	.file	"AppControls.cpp"
	.section	".text"
.Ltext0:
	.align 2
	.globl _ZN11AppControlsD2Ev
	.type	_ZN11AppControlsD2Ev, @function
_ZN11AppControlsD2Ev:
.LFB597:
	.file 1 "d:/Projects/SaveGameManager/savegame-manager-gx/trunk/source/Controls/AppControls.cpp"
	.loc 1 44 0
	.cfi_startproc
.LVL0:
	mflr 0
	stwu 1,-24(1)
.LCFI0:
	.cfi_def_cfa_offset 24
	.cfi_register 65, 0
.LBB144:
.LBB145:
.LBB146:
.LBB147:
.LBB148:
	.file 2 "d:\\devkitpro\\devkitppc\\bin\\../lib/gcc/powerpc-eabi/4.6.3/../../../../powerpc-eabi/include/c++/4.6.3/bits/basic_string.h"
	.loc 2 235 0
	lis 11,_ZNSs4_Rep20_S_empty_rep_storageE@ha
.LBE148:
.LBE147:
.LBE146:
.LBE145:
.LBE144:
	.loc 1 44 0
	stw 0,28(1)
.LBB168:
.LBB166:
.LBB164:
.LBB158:
.LBB155:
	.loc 2 235 0
	la 0,_ZNSs4_Rep20_S_empty_rep_storageE@l(11)
	.cfi_offset 65, 4
.LBE155:
.LBE158:
.LBB159:
.LBB160:
.LBB161:
	.loc 2 288 0
	lwz 9,84(3)
.LBE161:
.LBE160:
.LBE159:
	.loc 2 534 0
	addi 3,9,-12
.LVL1:
.LBB162:
.LBB156:
	.loc 2 235 0
	cmpw 7,3,0
	bne- 7,.L10
.LVL2:
.L1:
.LBE156:
.LBE162:
.LBE164:
.LBE166:
.LBE168:
	.loc 1 46 0
	lwz 0,28(1)
	addi 1,1,24
	.cfi_remember_state
.LCFI1:
	.cfi_def_cfa_offset 0
	mtlr 0
	blr
.LVL3:
.L10:
.LCFI2:
	.cfi_restore_state
.LBB169:
.LBB167:
.LBB165:
.LBB163:
.LBB157:
.LBB149:
.LBB150:
.LBB151:
	.file 3 "d:\\devkitpro\\devkitppc\\bin\\../lib/gcc/powerpc-eabi/4.6.3/../../../../powerpc-eabi/include/c++/4.6.3/ext/atomicity.h"
	.loc 3 66 0
	lwz 11,-4(9)
.LVL4:
.LBE151:
.LBE150:
.LBE149:
	.loc 2 240 0
	cmpwi 7,11,0
.LBB154:
.LBB153:
.LBB152:
	.loc 3 67 0
	addi 11,11,-1
	stw 11,-4(9)
.LBE152:
.LBE153:
.LBE154:
	.loc 2 240 0
	bgt+ 7,.L1
	.loc 2 244 0
	addi 4,1,8
	bl _ZNSs4_Rep10_M_destroyERKSaIcE
.LVL5:
	b .L1
.LBE157:
.LBE163:
.LBE165:
.LBE167:
.LBE169:
	.cfi_endproc
.LFE597:
	.size	_ZN11AppControlsD2Ev, .-_ZN11AppControlsD2Ev
	.align 2
	.globl _ZN11AppControls10SetDefaultEv
	.type	_ZN11AppControls10SetDefaultEv, @function
_ZN11AppControls10SetDefaultEv:
.LFB599:
	.loc 1 49 0
	.cfi_startproc
.LVL6:
	.loc 1 96 0
	lis 11,0x800
	lis 0,0x8
	ori 11,11,1024
	ori 0,0,4
	stw 11,4(3)
	lis 11,0x1000
	ori 11,11,16
	stw 0,0(3)
	stw 11,12(3)
	lis 11,0x80
	stw 11,16(3)
	lis 11,0x4
	ori 11,11,4
	stw 0,60(3)
	stw 11,20(3)
	li 11,4096
	stw 11,24(3)
	lis 11,0x10
	ori 11,11,64
	lis 0,0x1
	stw 11,28(3)
	lis 11,0x1
	ori 11,11,16384
	ori 0,0,2
	stw 11,32(3)
	lis 11,0x2
	ori 11,11,32768
	stw 0,64(3)
	stw 11,36(3)
	lis 0,0x20
	lis 11,0x400
	ori 0,0,64
	ori 11,11,4096
	stw 0,68(3)
	stw 11,40(3)
	lis 0,0x1000
	lis 11,0x800
	stw 0,72(3)
	stw 11,44(3)
	lis 0,0x200
	lis 11,0x40
	ori 0,0,512
	ori 11,11,64
	lis 9,0x100
	ori 9,9,512
	stw 11,48(3)
	stw 0,76(3)
	li 11,1024
	li 0,16
	stw 9,8(3)
	stw 11,52(3)
	.loc 1 97 0
	.loc 1 96 0
	stw 9,56(3)
	stw 0,80(3)
	.loc 1 97 0
	blr
	.cfi_endproc
.LFE599:
	.size	_ZN11AppControls10SetDefaultEv, .-_ZN11AppControls10SetDefaultEv
	.align 2
	.globl _ZN11AppControlsC2Ev
	.type	_ZN11AppControlsC2Ev, @function
_ZN11AppControlsC2Ev:
.LFB594:
	.loc 1 39 0
	.cfi_startproc
.LVL7:
.LBB170:
.LBB171:
.LBB172:
.LBB173:
	.loc 2 270 0
	lis 9,_ZNSs4_Rep20_S_empty_rep_storageE+12@ha
	la 0,_ZNSs4_Rep20_S_empty_rep_storageE+12@l(9)
	stw 0,84(3)
.LBE173:
.LBE172:
.LBE171:
.LBE170:
	.loc 1 42 0
.LBB174:
	.loc 1 41 0
	b _ZN11AppControls10SetDefaultEv
.LVL8:
.LVL9:
.LVL10:
.LBE174:
	.cfi_endproc
.LFE594:
	.size	_ZN11AppControlsC2Ev, .-_ZN11AppControlsC2Ev
	.align 2
	.globl _ZN11AppControls4SaveEv
	.type	_ZN11AppControls4SaveEv, @function
_ZN11AppControls4SaveEv:
.LFB601:
	.loc 1 127 0
	.cfi_startproc
.LVL11:
	mflr 0
	stwu 1,-1040(1)
.LCFI3:
	.cfi_def_cfa_offset 1040
	.cfi_register 65, 0
.LBB175:
	.loc 1 129 0
	lis 5,.LC0@ha
	li 4,1024
.LBE175:
	.loc 1 127 0
	stw 30,1032(1)
.LBB176:
	.loc 1 129 0
	la 5,.LC0@l(5)
.LBE176:
	.loc 1 127 0
	stw 0,1044(1)
	mr 30,3
	.cfi_offset 65, 4
	.cfi_offset 30, -8
.LVL12:
	stw 31,1036(1)
.LBB177:
	.loc 1 129 0
	lwz 6,84(3)
	addi 3,1,8
.LVL13:
	.cfi_offset 31, -4
	crxor 6,6,6
	bl snprintf
.LVL14:
	.loc 1 131 0
	lwz 3,84(30)
	lis 4,.LC1@ha
	la 4,.LC1@l(4)
	bl fopen
.LVL15:
	.loc 1 132 0
	mr. 31,3
	.loc 1 133 0
	li 3,0
.LVL16:
	.loc 1 132 0
	beq- 0,.L16
	.loc 1 135 0
	lis 3,.LC2@ha
	li 4,1
	li 5,31
	mr 6,31
	la 3,.LC2@l(3)
	bl fwrite
	.loc 1 136 0
	lis 3,.LC3@ha
	li 4,1
	li 5,46
	mr 6,31
	la 3,.LC3@l(3)
	bl fwrite
	.loc 1 137 0
	lis 3,.LC4@ha
	mr 6,31
	li 4,1
	li 5,16
	la 3,.LC4@l(3)
	bl fwrite
	.loc 1 138 0
	lhz 5,0(30)
	lis 4,.LC5@ha
	mr 3,31
	la 4,.LC5@l(4)
	crxor 6,6,6
	bl fprintf
	.loc 1 139 0
	lhz 5,2(30)
	lis 4,.LC6@ha
	mr 3,31
	la 4,.LC6@l(4)
	crxor 6,6,6
	bl fprintf
	.loc 1 140 0
	lhz 5,4(30)
	lis 4,.LC7@ha
	mr 3,31
	la 4,.LC7@l(4)
	crxor 6,6,6
	bl fprintf
	.loc 1 141 0
	lhz 5,6(30)
	lis 4,.LC8@ha
	mr 3,31
	la 4,.LC8@l(4)
	crxor 6,6,6
	bl fprintf
	.loc 1 142 0
	lhz 5,8(30)
	lis 4,.LC9@ha
	mr 3,31
	la 4,.LC9@l(4)
	crxor 6,6,6
	bl fprintf
	.loc 1 143 0
	lhz 5,10(30)
	lis 4,.LC10@ha
	mr 3,31
	la 4,.LC10@l(4)
	crxor 6,6,6
	bl fprintf
	.loc 1 144 0
	lhz 5,12(30)
	lis 4,.LC11@ha
	mr 3,31
	la 4,.LC11@l(4)
	crxor 6,6,6
	bl fprintf
	.loc 1 145 0
	lhz 5,14(30)
	lis 4,.LC12@ha
	mr 3,31
	la 4,.LC12@l(4)
	crxor 6,6,6
	bl fprintf
	.loc 1 146 0
	lhz 5,16(30)
	lis 4,.LC13@ha
	mr 3,31
	la 4,.LC13@l(4)
	crxor 6,6,6
	bl fprintf
	.loc 1 147 0
	lhz 5,18(30)
	lis 4,.LC14@ha
	mr 3,31
	la 4,.LC14@l(4)
	crxor 6,6,6
	bl fprintf
	.loc 1 148 0
	lhz 5,20(30)
	lis 4,.LC15@ha
	mr 3,31
	la 4,.LC15@l(4)
	crxor 6,6,6
	bl fprintf
	.loc 1 149 0
	lhz 5,22(30)
	lis 4,.LC16@ha
	mr 3,31
	la 4,.LC16@l(4)
	crxor 6,6,6
	bl fprintf
	.loc 1 150 0
	lhz 5,24(30)
	lis 4,.LC17@ha
	mr 3,31
	la 4,.LC17@l(4)
	crxor 6,6,6
	bl fprintf
	.loc 1 151 0
	lhz 5,26(30)
	lis 4,.LC18@ha
	mr 3,31
	la 4,.LC18@l(4)
	crxor 6,6,6
	bl fprintf
	.loc 1 153 0
	lis 3,.LC19@ha
	mr 6,31
	li 4,1
	li 5,25
	la 3,.LC19@l(3)
	bl fwrite
	.loc 1 154 0
	lhz 5,28(30)
	lis 4,.LC20@ha
	mr 3,31
	la 4,.LC20@l(4)
	crxor 6,6,6
	bl fprintf
	.loc 1 155 0
	lhz 5,30(30)
	lis 4,.LC21@ha
	mr 3,31
	la 4,.LC21@l(4)
	crxor 6,6,6
	bl fprintf
	.loc 1 156 0
	lhz 5,32(30)
	lis 4,.LC22@ha
	mr 3,31
	la 4,.LC22@l(4)
	crxor 6,6,6
	bl fprintf
	.loc 1 157 0
	lhz 5,34(30)
	lis 4,.LC23@ha
	mr 3,31
	la 4,.LC23@l(4)
	crxor 6,6,6
	bl fprintf
	.loc 1 158 0
	lhz 5,36(30)
	lis 4,.LC24@ha
	mr 3,31
	la 4,.LC24@l(4)
	crxor 6,6,6
	bl fprintf
	.loc 1 159 0
	lhz 5,38(30)
	lis 4,.LC25@ha
	mr 3,31
	la 4,.LC25@l(4)
	crxor 6,6,6
	bl fprintf
	.loc 1 160 0
	lhz 5,40(30)
	lis 4,.LC26@ha
	mr 3,31
	la 4,.LC26@l(4)
	crxor 6,6,6
	bl fprintf
	.loc 1 161 0
	lhz 5,42(30)
	lis 4,.LC27@ha
	mr 3,31
	la 4,.LC27@l(4)
	crxor 6,6,6
	bl fprintf
	.loc 1 162 0
	lhz 5,44(30)
	lis 4,.LC28@ha
	mr 3,31
	la 4,.LC28@l(4)
	crxor 6,6,6
	bl fprintf
	.loc 1 163 0
	lhz 5,46(30)
	lis 4,.LC29@ha
	mr 3,31
	la 4,.LC29@l(4)
	crxor 6,6,6
	bl fprintf
	.loc 1 164 0
	lhz 5,48(30)
	lis 4,.LC30@ha
	mr 3,31
	la 4,.LC30@l(4)
	crxor 6,6,6
	bl fprintf
	.loc 1 165 0
	lhz 5,50(30)
	lis 4,.LC31@ha
	mr 3,31
	la 4,.LC31@l(4)
	crxor 6,6,6
	bl fprintf
	.loc 1 166 0
	lhz 5,52(30)
	lis 4,.LC32@ha
	mr 3,31
	la 4,.LC32@l(4)
	crxor 6,6,6
	bl fprintf
	.loc 1 167 0
	lhz 5,54(30)
	lis 4,.LC33@ha
	mr 3,31
	la 4,.LC33@l(4)
	crxor 6,6,6
	bl fprintf
	.loc 1 169 0
	lis 3,.LC34@ha
	mr 6,31
	li 4,1
	li 5,16
	la 3,.LC34@l(3)
	bl fwrite
	.loc 1 170 0
	lhz 5,56(30)
	lis 4,.LC35@ha
	mr 3,31
	la 4,.LC35@l(4)
	crxor 6,6,6
	bl fprintf
	.loc 1 171 0
	lhz 5,58(30)
	lis 4,.LC36@ha
	mr 3,31
	la 4,.LC36@l(4)
	crxor 6,6,6
	bl fprintf
	.loc 1 172 0
	lhz 5,60(30)
	lis 4,.LC37@ha
	mr 3,31
	la 4,.LC37@l(4)
	crxor 6,6,6
	bl fprintf
	.loc 1 173 0
	lhz 5,62(30)
	lis 4,.LC38@ha
	mr 3,31
	la 4,.LC38@l(4)
	crxor 6,6,6
	bl fprintf
	.loc 1 174 0
	lhz 5,64(30)
	lis 4,.LC39@ha
	mr 3,31
	la 4,.LC39@l(4)
	crxor 6,6,6
	bl fprintf
	.loc 1 175 0
	lhz 5,66(30)
	lis 4,.LC40@ha
	mr 3,31
	la 4,.LC40@l(4)
	crxor 6,6,6
	bl fprintf
	.loc 1 176 0
	lhz 5,68(30)
	lis 4,.LC41@ha
	mr 3,31
	la 4,.LC41@l(4)
	crxor 6,6,6
	bl fprintf
	.loc 1 177 0
	lhz 5,70(30)
	lis 4,.LC42@ha
	mr 3,31
	la 4,.LC42@l(4)
	crxor 6,6,6
	bl fprintf
	.loc 1 178 0
	lhz 5,72(30)
	lis 4,.LC43@ha
	mr 3,31
	la 4,.LC43@l(4)
	crxor 6,6,6
	bl fprintf
	.loc 1 179 0
	lhz 5,74(30)
	lis 4,.LC44@ha
	mr 3,31
	la 4,.LC44@l(4)
	crxor 6,6,6
	bl fprintf
	.loc 1 180 0
	lhz 5,76(30)
	lis 4,.LC45@ha
	mr 3,31
	la 4,.LC45@l(4)
	crxor 6,6,6
	bl fprintf
	.loc 1 181 0
	lhz 5,78(30)
	lis 4,.LC46@ha
	mr 3,31
	la 4,.LC46@l(4)
	crxor 6,6,6
	bl fprintf
	.loc 1 182 0
	lhz 5,80(30)
	lis 4,.LC47@ha
	mr 3,31
	la 4,.LC47@l(4)
	crxor 6,6,6
	bl fprintf
	.loc 1 183 0
	lhz 5,82(30)
	lis 4,.LC48@ha
	mr 3,31
	la 4,.LC48@l(4)
	crxor 6,6,6
	bl fprintf
	.loc 1 190 0
	mr 3,31
	bl fclose
	.loc 1 192 0
	li 3,1
.LVL17:
.L16:
.LBE177:
	.loc 1 193 0
	lwz 0,1044(1)
	lwz 30,1032(1)
.LVL18:
	mtlr 0
	lwz 31,1036(1)
.LVL19:
	addi 1,1,1040
.LCFI4:
	.cfi_def_cfa_offset 0
	.cfi_restore 31
	.cfi_restore 30
	blr
	.cfi_endproc
.LFE601:
	.size	_ZN11AppControls4SaveEv, .-_ZN11AppControls4SaveEv
	.align 2
	.globl _ZN11AppControls10SetControlEPcS0_
	.type	_ZN11AppControls10SetControlEPcS0_, @function
_ZN11AppControls10SetControlEPcS0_:
.LFB602:
	.loc 1 196 0
	.cfi_startproc
.LVL20:
	stwu 1,-40(1)
.LCFI5:
	.cfi_def_cfa_offset 40
	mflr 0
	stw 30,32(1)
	mr 30,3
	.cfi_offset 30, -8
	.cfi_register 65, 0
	stw 31,36(1)
.LBB178:
	.loc 1 211 0
	mr 3,4
.LVL21:
.LBE178:
	.loc 1 196 0
	mr 31,4
	.cfi_offset 31, -4
.LBB179:
	.loc 1 211 0
	lis 4,.LC49@ha
.LVL22:
.LBE179:
	.loc 1 196 0
	stw 0,44(1)
.LBB180:
	.loc 1 211 0
	la 4,.LC49@l(4)
	.loc 1 197 0
	li 0,0
	.cfi_offset 65, 4
.LBE180:
	.loc 1 196 0
	stw 29,28(1)
.LBB181:
	.loc 1 197 0
	stw 0,8(1)
.LVL23:
.LBE181:
	.loc 1 196 0
	mr 29,5
	.cfi_offset 29, -12
.LBB182:
	.loc 1 211 0
	bl strcmp
.LVL24:
	cmpwi 7,3,0
	beq- 7,.L104
	.loc 1 217 0
	lis 4,.LC51@ha
	mr 3,31
	la 4,.LC51@l(4)
	bl strcmp
	cmpwi 7,3,0
	beq- 7,.L105
	.loc 1 223 0
	lis 4,.LC52@ha
	mr 3,31
	la 4,.LC52@l(4)
	bl strcmp
	cmpwi 7,3,0
	beq- 7,.L106
	.loc 1 229 0
	lis 4,.LC53@ha
	mr 3,31
	la 4,.LC53@l(4)
	bl strcmp
	cmpwi 7,3,0
	beq- 7,.L107
	.loc 1 235 0
	lis 4,.LC54@ha
	mr 3,31
	la 4,.LC54@l(4)
	bl strcmp
	cmpwi 7,3,0
	beq- 7,.L108
	.loc 1 241 0
	lis 4,.LC55@ha
	mr 3,31
	la 4,.LC55@l(4)
	bl strcmp
	cmpwi 7,3,0
	beq- 7,.L109
	.loc 1 247 0
	lis 4,.LC56@ha
	mr 3,31
	la 4,.LC56@l(4)
	bl strcmp
	cmpwi 7,3,0
	beq- 7,.L110
	.loc 1 253 0
	lis 4,.LC57@ha
	mr 3,31
	la 4,.LC57@l(4)
	bl strcmp
	cmpwi 7,3,0
	beq- 7,.L111
	.loc 1 259 0
	lis 4,.LC58@ha
	mr 3,31
	la 4,.LC58@l(4)
	bl strcmp
	cmpwi 7,3,0
	beq- 7,.L112
	.loc 1 265 0
	lis 4,.LC59@ha
	mr 3,31
	la 4,.LC59@l(4)
	bl strcmp
	cmpwi 7,3,0
	beq- 7,.L113
	.loc 1 271 0
	lis 4,.LC60@ha
	mr 3,31
	la 4,.LC60@l(4)
	bl strcmp
	cmpwi 7,3,0
	beq- 7,.L114
	.loc 1 277 0
	lis 4,.LC61@ha
	mr 3,31
	la 4,.LC61@l(4)
	bl strcmp
	cmpwi 7,3,0
	beq- 7,.L115
	.loc 1 283 0
	lis 4,.LC62@ha
	mr 3,31
	la 4,.LC62@l(4)
	bl strcmp
	cmpwi 7,3,0
	beq- 7,.L116
	.loc 1 289 0
	lis 4,.LC63@ha
	mr 3,31
	la 4,.LC63@l(4)
	bl strcmp
	cmpwi 7,3,0
	beq- 7,.L117
	.loc 1 295 0
	lis 4,.LC64@ha
	mr 3,31
	la 4,.LC64@l(4)
	bl strcmp
	cmpwi 7,3,0
	beq- 7,.L118
	.loc 1 301 0
	lis 4,.LC65@ha
	mr 3,31
	la 4,.LC65@l(4)
	bl strcmp
	cmpwi 7,3,0
	beq- 7,.L119
	.loc 1 307 0
	lis 4,.LC66@ha
	mr 3,31
	la 4,.LC66@l(4)
	bl strcmp
	cmpwi 7,3,0
	beq- 7,.L120
	.loc 1 313 0
	lis 4,.LC67@ha
	mr 3,31
	la 4,.LC67@l(4)
	bl strcmp
	cmpwi 7,3,0
	beq- 7,.L121
	.loc 1 319 0
	lis 4,.LC68@ha
	mr 3,31
	la 4,.LC68@l(4)
	bl strcmp
	cmpwi 7,3,0
	beq- 7,.L122
	.loc 1 325 0
	lis 4,.LC69@ha
	mr 3,31
	la 4,.LC69@l(4)
	bl strcmp
	cmpwi 7,3,0
	beq- 7,.L123
	.loc 1 331 0
	lis 4,.LC70@ha
	mr 3,31
	la 4,.LC70@l(4)
	bl strcmp
	cmpwi 7,3,0
	beq- 7,.L124
	.loc 1 337 0
	lis 4,.LC71@ha
	mr 3,31
	la 4,.LC71@l(4)
	bl strcmp
	cmpwi 7,3,0
	beq- 7,.L125
	.loc 1 343 0
	lis 4,.LC72@ha
	mr 3,31
	la 4,.LC72@l(4)
	bl strcmp
	cmpwi 7,3,0
	beq- 7,.L126
	.loc 1 349 0
	lis 4,.LC73@ha
	mr 3,31
	la 4,.LC73@l(4)
	bl strcmp
	cmpwi 7,3,0
	beq- 7,.L127
	.loc 1 355 0
	lis 4,.LC74@ha
	mr 3,31
	la 4,.LC74@l(4)
	bl strcmp
	cmpwi 7,3,0
	beq- 7,.L128
	.loc 1 361 0
	lis 4,.LC75@ha
	mr 3,31
	la 4,.LC75@l(4)
	bl strcmp
	cmpwi 7,3,0
	beq- 7,.L129
	.loc 1 367 0
	lis 4,.LC76@ha
	mr 3,31
	la 4,.LC76@l(4)
	bl strcmp
	cmpwi 7,3,0
	beq- 7,.L130
	.loc 1 373 0
	lis 4,.LC77@ha
	mr 3,31
	la 4,.LC77@l(4)
	bl strcmp
	cmpwi 7,3,0
	beq- 7,.L131
	.loc 1 379 0
	lis 4,.LC78@ha
	mr 3,31
	la 4,.LC78@l(4)
	bl strcmp
	cmpwi 7,3,0
	beq- 7,.L132
	.loc 1 385 0
	lis 4,.LC79@ha
	mr 3,31
	la 4,.LC79@l(4)
	bl strcmp
	cmpwi 7,3,0
	beq- 7,.L133
	.loc 1 391 0
	lis 4,.LC80@ha
	mr 3,31
	la 4,.LC80@l(4)
	bl strcmp
	cmpwi 7,3,0
	beq- 7,.L134
	.loc 1 397 0
	lis 4,.LC81@ha
	mr 3,31
	la 4,.LC81@l(4)
	bl strcmp
	cmpwi 7,3,0
	beq- 7,.L135
	.loc 1 403 0
	lis 4,.LC82@ha
	mr 3,31
	la 4,.LC82@l(4)
	bl strcmp
	cmpwi 7,3,0
	beq- 7,.L136
	.loc 1 409 0
	lis 4,.LC83@ha
	mr 3,31
	la 4,.LC83@l(4)
	bl strcmp
	cmpwi 7,3,0
	beq- 7,.L137
	.loc 1 415 0
	lis 4,.LC84@ha
	mr 3,31
	la 4,.LC84@l(4)
	bl strcmp
	cmpwi 7,3,0
	beq- 7,.L138
	.loc 1 421 0
	lis 4,.LC85@ha
	mr 3,31
	la 4,.LC85@l(4)
	bl strcmp
	cmpwi 7,3,0
	beq- 7,.L139
	.loc 1 427 0
	lis 4,.LC86@ha
	mr 3,31
	la 4,.LC86@l(4)
	bl strcmp
	cmpwi 7,3,0
	beq- 7,.L140
	.loc 1 433 0
	lis 4,.LC87@ha
	mr 3,31
	la 4,.LC87@l(4)
	bl strcmp
	cmpwi 7,3,0
	beq- 7,.L141
	.loc 1 439 0
	lis 4,.LC88@ha
	mr 3,31
	la 4,.LC88@l(4)
	bl strcmp
	cmpwi 7,3,0
	beq- 7,.L142
	.loc 1 445 0
	lis 4,.LC89@ha
	mr 3,31
	la 4,.LC89@l(4)
	bl strcmp
	cmpwi 7,3,0
	beq- 7,.L143
	.loc 1 451 0
	lis 4,.LC90@ha
	mr 3,31
	la 4,.LC90@l(4)
	bl strcmp
	cmpwi 7,3,0
	beq- 7,.L144
	.loc 1 457 0
	lis 4,.LC91@ha
	mr 3,31
	la 4,.LC91@l(4)
	bl strcmp
	cmpwi 7,3,0
	.loc 1 464 0
	li 3,0
	.loc 1 457 0
	bne+ 7,.L20
	.loc 1 458 0
	lis 4,.LC50@ha
	mr 3,29
	la 4,.LC50@l(4)
	addi 5,1,8
	crxor 6,6,6
	bl sscanf
	cmpwi 7,3,1
	.loc 1 461 0
	li 3,1
	.loc 1 458 0
	bne+ 7,.L20
	.loc 1 459 0
	lwz 0,8(1)
	sth 0,82(30)
	b .L20
.L104:
	.loc 1 212 0
	lis 4,.LC50@ha
	mr 3,29
	la 4,.LC50@l(4)
	addi 5,1,8
	crxor 6,6,6
	bl sscanf
	cmpwi 7,3,1
	.loc 1 215 0
	li 3,1
	.loc 1 212 0
	beq- 7,.L145
.L20:
.LBE182:
	.loc 1 465 0
	lwz 0,44(1)
	lwz 29,28(1)
.LVL25:
	mtlr 0
	lwz 30,32(1)
.LVL26:
	lwz 31,36(1)
.LVL27:
	addi 1,1,40
	.cfi_remember_state
.LCFI6:
	.cfi_def_cfa_offset 0
	.cfi_restore 31
	.cfi_restore 30
	.cfi_restore 29
	blr
.LVL28:
.L105:
.LCFI7:
	.cfi_restore_state
.LBB183:
	.loc 1 218 0
	lis 4,.LC50@ha
	mr 3,29
	la 4,.LC50@l(4)
	addi 5,1,8
	crxor 6,6,6
	bl sscanf
	cmpwi 7,3,1
	.loc 1 221 0
	li 3,1
	.loc 1 218 0
	bne+ 7,.L20
	.loc 1 219 0
	lwz 0,8(1)
	sth 0,2(30)
	b .L20
.L106:
	.loc 1 224 0
	lis 4,.LC50@ha
	mr 3,29
	la 4,.LC50@l(4)
	addi 5,1,8
	crxor 6,6,6
	bl sscanf
	cmpwi 7,3,1
	.loc 1 227 0
	li 3,1
	.loc 1 224 0
	bne+ 7,.L20
	.loc 1 225 0
	lwz 0,8(1)
	sth 0,4(30)
	b .L20
.L108:
	.loc 1 236 0
	lis 4,.LC50@ha
	mr 3,29
	la 4,.LC50@l(4)
	addi 5,1,8
	crxor 6,6,6
	bl sscanf
	cmpwi 7,3,1
	.loc 1 239 0
	li 3,1
	.loc 1 236 0
	bne+ 7,.L20
	.loc 1 237 0
	lwz 0,8(1)
	sth 0,8(30)
	b .L20
.L107:
	.loc 1 230 0
	lis 4,.LC50@ha
	mr 3,29
	la 4,.LC50@l(4)
	addi 5,1,8
	crxor 6,6,6
	bl sscanf
	cmpwi 7,3,1
	.loc 1 233 0
	li 3,1
	.loc 1 230 0
	bne+ 7,.L20
	.loc 1 231 0
	lwz 0,8(1)
	sth 0,6(30)
	b .L20
.L145:
	.loc 1 213 0
	lwz 0,8(1)
	sth 0,0(30)
	b .L20
.L109:
	.loc 1 242 0
	lis 4,.LC50@ha
	mr 3,29
	la 4,.LC50@l(4)
	addi 5,1,8
	crxor 6,6,6
	bl sscanf
	cmpwi 7,3,1
	.loc 1 245 0
	li 3,1
	.loc 1 242 0
	bne+ 7,.L20
	.loc 1 243 0
	lwz 0,8(1)
	sth 0,10(30)
	b .L20
.L112:
	.loc 1 260 0
	lis 4,.LC50@ha
	mr 3,29
	la 4,.LC50@l(4)
	addi 5,1,8
	crxor 6,6,6
	bl sscanf
	cmpwi 7,3,1
	.loc 1 263 0
	li 3,1
	.loc 1 260 0
	bne+ 7,.L20
	.loc 1 261 0
	lwz 0,8(1)
	sth 0,16(30)
	b .L20
.L110:
	.loc 1 248 0
	lis 4,.LC50@ha
	mr 3,29
	la 4,.LC50@l(4)
	addi 5,1,8
	crxor 6,6,6
	bl sscanf
	cmpwi 7,3,1
	.loc 1 251 0
	li 3,1
	.loc 1 248 0
	bne+ 7,.L20
	.loc 1 249 0
	lwz 0,8(1)
	sth 0,12(30)
	b .L20
.L111:
	.loc 1 254 0
	lis 4,.LC50@ha
	mr 3,29
	la 4,.LC50@l(4)
	addi 5,1,8
	crxor 6,6,6
	bl sscanf
	cmpwi 7,3,1
	.loc 1 257 0
	li 3,1
	.loc 1 254 0
	bne+ 7,.L20
	.loc 1 255 0
	lwz 0,8(1)
	sth 0,14(30)
	b .L20
.L113:
	.loc 1 266 0
	lis 4,.LC50@ha
	mr 3,29
	la 4,.LC50@l(4)
	addi 5,1,8
	crxor 6,6,6
	bl sscanf
	cmpwi 7,3,1
	.loc 1 269 0
	li 3,1
	.loc 1 266 0
	bne+ 7,.L20
	.loc 1 267 0
	lwz 0,8(1)
	sth 0,18(30)
	b .L20
.L114:
	.loc 1 272 0
	lis 4,.LC50@ha
	mr 3,29
	la 4,.LC50@l(4)
	addi 5,1,8
	crxor 6,6,6
	bl sscanf
	cmpwi 7,3,1
	.loc 1 275 0
	li 3,1
	.loc 1 272 0
	bne+ 7,.L20
	.loc 1 273 0
	lwz 0,8(1)
	sth 0,20(30)
	b .L20
.L115:
	.loc 1 278 0
	lis 4,.LC50@ha
	mr 3,29
	la 4,.LC50@l(4)
	addi 5,1,8
	crxor 6,6,6
	bl sscanf
	cmpwi 7,3,1
	.loc 1 281 0
	li 3,1
	.loc 1 278 0
	bne+ 7,.L20
	.loc 1 279 0
	lwz 0,8(1)
	sth 0,22(30)
	b .L20
.L116:
	.loc 1 284 0
	lis 4,.LC50@ha
	mr 3,29
	la 4,.LC50@l(4)
	addi 5,1,8
	crxor 6,6,6
	bl sscanf
	cmpwi 7,3,1
	.loc 1 287 0
	li 3,1
	.loc 1 284 0
	bne+ 7,.L20
	.loc 1 285 0
	lwz 0,8(1)
	sth 0,24(30)
	b .L20
.L117:
	.loc 1 290 0
	lis 4,.LC50@ha
	mr 3,29
	la 4,.LC50@l(4)
	addi 5,1,8
	crxor 6,6,6
	bl sscanf
	cmpwi 7,3,1
	.loc 1 293 0
	li 3,1
	.loc 1 290 0
	bne+ 7,.L20
	.loc 1 291 0
	lwz 0,8(1)
	sth 0,26(30)
	b .L20
.L118:
	.loc 1 296 0
	lis 4,.LC50@ha
	mr 3,29
	la 4,.LC50@l(4)
	addi 5,1,8
	crxor 6,6,6
	bl sscanf
	cmpwi 7,3,1
	.loc 1 299 0
	li 3,1
	.loc 1 296 0
	bne+ 7,.L20
	.loc 1 297 0
	lwz 0,8(1)
	sth 0,28(30)
	b .L20
.L119:
	.loc 1 302 0
	lis 4,.LC50@ha
	mr 3,29
	la 4,.LC50@l(4)
	addi 5,1,8
	crxor 6,6,6
	bl sscanf
	cmpwi 7,3,1
	.loc 1 305 0
	li 3,1
	.loc 1 302 0
	bne+ 7,.L20
	.loc 1 303 0
	lwz 0,8(1)
	sth 0,30(30)
	b .L20
.L120:
	.loc 1 308 0
	lis 4,.LC50@ha
	mr 3,29
	la 4,.LC50@l(4)
	addi 5,1,8
	crxor 6,6,6
	bl sscanf
	cmpwi 7,3,1
	.loc 1 311 0
	li 3,1
	.loc 1 308 0
	bne+ 7,.L20
	.loc 1 309 0
	lwz 0,8(1)
	sth 0,32(30)
	b .L20
.L121:
	.loc 1 314 0
	lis 4,.LC50@ha
	mr 3,29
	la 4,.LC50@l(4)
	addi 5,1,8
	crxor 6,6,6
	bl sscanf
	cmpwi 7,3,1
	.loc 1 317 0
	li 3,1
	.loc 1 314 0
	bne+ 7,.L20
	.loc 1 315 0
	lwz 0,8(1)
	sth 0,34(30)
	b .L20
.L122:
	.loc 1 320 0
	lis 4,.LC50@ha
	mr 3,29
	la 4,.LC50@l(4)
	addi 5,1,8
	crxor 6,6,6
	bl sscanf
	cmpwi 7,3,1
	.loc 1 323 0
	li 3,1
	.loc 1 320 0
	bne+ 7,.L20
	.loc 1 321 0
	lwz 0,8(1)
	sth 0,36(30)
	b .L20
.L123:
	.loc 1 326 0
	lis 4,.LC50@ha
	mr 3,29
	la 4,.LC50@l(4)
	addi 5,1,8
	crxor 6,6,6
	bl sscanf
	cmpwi 7,3,1
	.loc 1 329 0
	li 3,1
	.loc 1 326 0
	bne+ 7,.L20
	.loc 1 327 0
	lwz 0,8(1)
	sth 0,38(30)
	b .L20
.L124:
	.loc 1 332 0
	lis 4,.LC50@ha
	mr 3,29
	la 4,.LC50@l(4)
	addi 5,1,8
	crxor 6,6,6
	bl sscanf
	cmpwi 7,3,1
	.loc 1 335 0
	li 3,1
	.loc 1 332 0
	bne+ 7,.L20
	.loc 1 333 0
	lwz 0,8(1)
	sth 0,40(30)
	b .L20
.L126:
	.loc 1 344 0
	lis 4,.LC50@ha
	mr 3,29
	la 4,.LC50@l(4)
	addi 5,1,8
	crxor 6,6,6
	bl sscanf
	cmpwi 7,3,1
	.loc 1 347 0
	li 3,1
	.loc 1 344 0
	bne+ 7,.L20
	.loc 1 345 0
	lwz 0,8(1)
	sth 0,44(30)
	b .L20
.L125:
	.loc 1 338 0
	lis 4,.LC50@ha
	mr 3,29
	la 4,.LC50@l(4)
	addi 5,1,8
	crxor 6,6,6
	bl sscanf
	cmpwi 7,3,1
	.loc 1 341 0
	li 3,1
	.loc 1 338 0
	bne+ 7,.L20
	.loc 1 339 0
	lwz 0,8(1)
	sth 0,42(30)
	b .L20
.L128:
	.loc 1 356 0
	lis 4,.LC50@ha
	mr 3,29
	la 4,.LC50@l(4)
	addi 5,1,8
	crxor 6,6,6
	bl sscanf
	cmpwi 7,3,1
	.loc 1 359 0
	li 3,1
	.loc 1 356 0
	bne+ 7,.L20
	.loc 1 357 0
	lwz 0,8(1)
	sth 0,48(30)
	b .L20
.L127:
	.loc 1 350 0
	lis 4,.LC50@ha
	mr 3,29
	la 4,.LC50@l(4)
	addi 5,1,8
	crxor 6,6,6
	bl sscanf
	cmpwi 7,3,1
	.loc 1 353 0
	li 3,1
	.loc 1 350 0
	bne+ 7,.L20
	.loc 1 351 0
	lwz 0,8(1)
	sth 0,46(30)
	b .L20
.L129:
	.loc 1 362 0
	lis 4,.LC50@ha
	mr 3,29
	la 4,.LC50@l(4)
	addi 5,1,8
	crxor 6,6,6
	bl sscanf
	cmpwi 7,3,1
	.loc 1 365 0
	li 3,1
	.loc 1 362 0
	bne+ 7,.L20
	.loc 1 363 0
	lwz 0,8(1)
	sth 0,50(30)
	b .L20
.L130:
	.loc 1 368 0
	lis 4,.LC50@ha
	mr 3,29
	la 4,.LC50@l(4)
	addi 5,1,8
	crxor 6,6,6
	bl sscanf
	cmpwi 7,3,1
	.loc 1 371 0
	li 3,1
	.loc 1 368 0
	bne+ 7,.L20
	.loc 1 369 0
	lwz 0,8(1)
	sth 0,52(30)
	b .L20
.L132:
	.loc 1 380 0
	lis 4,.LC50@ha
	mr 3,29
	la 4,.LC50@l(4)
	addi 5,1,8
	crxor 6,6,6
	bl sscanf
	cmpwi 7,3,1
	.loc 1 383 0
	li 3,1
	.loc 1 380 0
	bne+ 7,.L20
	.loc 1 381 0
	lwz 0,8(1)
	sth 0,56(30)
	b .L20
.L131:
	.loc 1 374 0
	lis 4,.LC50@ha
	mr 3,29
	la 4,.LC50@l(4)
	addi 5,1,8
	crxor 6,6,6
	bl sscanf
	cmpwi 7,3,1
	.loc 1 377 0
	li 3,1
	.loc 1 374 0
	bne+ 7,.L20
	.loc 1 375 0
	lwz 0,8(1)
	sth 0,54(30)
	b .L20
.L136:
	.loc 1 404 0
	lis 4,.LC50@ha
	mr 3,29
	la 4,.LC50@l(4)
	addi 5,1,8
	crxor 6,6,6
	bl sscanf
	cmpwi 7,3,1
	.loc 1 407 0
	li 3,1
	.loc 1 404 0
	bne+ 7,.L20
	.loc 1 405 0
	lwz 0,8(1)
	sth 0,64(30)
	b .L20
.L135:
	.loc 1 398 0
	lis 4,.LC50@ha
	mr 3,29
	la 4,.LC50@l(4)
	addi 5,1,8
	crxor 6,6,6
	bl sscanf
	cmpwi 7,3,1
	.loc 1 401 0
	li 3,1
	.loc 1 398 0
	bne+ 7,.L20
	.loc 1 399 0
	lwz 0,8(1)
	sth 0,62(30)
	b .L20
.L134:
	.loc 1 392 0
	lis 4,.LC50@ha
	mr 3,29
	la 4,.LC50@l(4)
	addi 5,1,8
	crxor 6,6,6
	bl sscanf
	cmpwi 7,3,1
	.loc 1 395 0
	li 3,1
	.loc 1 392 0
	bne+ 7,.L20
	.loc 1 393 0
	lwz 0,8(1)
	sth 0,60(30)
	b .L20
.L133:
	.loc 1 386 0
	lis 4,.LC50@ha
	mr 3,29
	la 4,.LC50@l(4)
	addi 5,1,8
	crxor 6,6,6
	bl sscanf
	cmpwi 7,3,1
	.loc 1 389 0
	li 3,1
	.loc 1 386 0
	bne+ 7,.L20
	.loc 1 387 0
	lwz 0,8(1)
	sth 0,58(30)
	b .L20
.L144:
	.loc 1 452 0
	lis 4,.LC50@ha
	mr 3,29
	la 4,.LC50@l(4)
	addi 5,1,8
	crxor 6,6,6
	bl sscanf
	cmpwi 7,3,1
	.loc 1 455 0
	li 3,1
	.loc 1 452 0
	bne+ 7,.L20
	.loc 1 453 0
	lwz 0,8(1)
	sth 0,80(30)
	b .L20
.L143:
	.loc 1 446 0
	lis 4,.LC50@ha
	mr 3,29
	la 4,.LC50@l(4)
	addi 5,1,8
	crxor 6,6,6
	bl sscanf
	cmpwi 7,3,1
	.loc 1 449 0
	li 3,1
	.loc 1 446 0
	bne+ 7,.L20
	.loc 1 447 0
	lwz 0,8(1)
	sth 0,78(30)
	b .L20
.L142:
	.loc 1 440 0
	lis 4,.LC50@ha
	mr 3,29
	la 4,.LC50@l(4)
	addi 5,1,8
	crxor 6,6,6
	bl sscanf
	cmpwi 7,3,1
	.loc 1 443 0
	li 3,1
	.loc 1 440 0
	bne+ 7,.L20
	.loc 1 441 0
	lwz 0,8(1)
	sth 0,76(30)
	b .L20
.L141:
	.loc 1 434 0
	lis 4,.LC50@ha
	mr 3,29
	la 4,.LC50@l(4)
	addi 5,1,8
	crxor 6,6,6
	bl sscanf
	cmpwi 7,3,1
	.loc 1 437 0
	li 3,1
	.loc 1 434 0
	bne+ 7,.L20
	.loc 1 435 0
	lwz 0,8(1)
	sth 0,74(30)
	b .L20
.L140:
	.loc 1 428 0
	lis 4,.LC50@ha
	mr 3,29
	la 4,.LC50@l(4)
	addi 5,1,8
	crxor 6,6,6
	bl sscanf
	cmpwi 7,3,1
	.loc 1 431 0
	li 3,1
	.loc 1 428 0
	bne+ 7,.L20
	.loc 1 429 0
	lwz 0,8(1)
	sth 0,72(30)
	b .L20
.L139:
	.loc 1 422 0
	lis 4,.LC50@ha
	mr 3,29
	la 4,.LC50@l(4)
	addi 5,1,8
	crxor 6,6,6
	bl sscanf
	cmpwi 7,3,1
	.loc 1 425 0
	li 3,1
	.loc 1 422 0
	bne+ 7,.L20
	.loc 1 423 0
	lwz 0,8(1)
	sth 0,70(30)
	b .L20
.L138:
	.loc 1 416 0
	lis 4,.LC50@ha
	mr 3,29
	la 4,.LC50@l(4)
	addi 5,1,8
	crxor 6,6,6
	bl sscanf
	cmpwi 7,3,1
	.loc 1 419 0
	li 3,1
	.loc 1 416 0
	bne+ 7,.L20
	.loc 1 417 0
	lwz 0,8(1)
	sth 0,68(30)
	b .L20
.L137:
	.loc 1 410 0
	lis 4,.LC50@ha
	mr 3,29
	la 4,.LC50@l(4)
	addi 5,1,8
	crxor 6,6,6
	bl sscanf
	cmpwi 7,3,1
	.loc 1 413 0
	li 3,1
	.loc 1 410 0
	bne+ 7,.L20
	.loc 1 411 0
	lwz 0,8(1)
	sth 0,66(30)
	b .L20
.LBE183:
	.cfi_endproc
.LFE602:
	.size	_ZN11AppControls10SetControlEPcS0_, .-_ZN11AppControls10SetControlEPcS0_
	.align 2
	.globl _ZN11AppControls4LoadESs
	.type	_ZN11AppControls4LoadESs, @function
_ZN11AppControls4LoadESs:
.LFB600:
	.loc 1 100 0
	.cfi_startproc
	.cfi_personality 0,__gxx_personality_v0
	.cfi_lsda 0,.LLSDA600
.LVL29:
	mflr 0
	stwu 1,-1672(1)
.LCFI8:
	.cfi_def_cfa_offset 1672
	.cfi_register 65, 0
	stw 30,1664(1)
.LBB232:
	.loc 1 102 0
	li 30,0
	.cfi_offset 30, -8
.LBE232:
	.loc 1 100 0
	stw 0,1676(1)
	stw 31,1668(1)
	mr 31,3
	.cfi_offset 31, -4
	.cfi_offset 65, 4
.LBB281:
.LBB233:
.LBB234:
.LBB235:
	.loc 2 711 0
	lwz 9,0(4)
.LBE235:
.LBE234:
.LBE233:
.LBE281:
	.loc 1 100 0
	stw 26,1648(1)
.LBB282:
	.loc 1 101 0
	lwz 0,-12(9)
.LBE282:
	.loc 1 100 0
	stw 27,1652(1)
.LBB283:
	.loc 1 101 0
	cmpwi 7,0,0
.LBE283:
	.loc 1 100 0
	stw 28,1656(1)
	stw 29,1660(1)
.LBB284:
	.loc 1 101 0
	bne- 7,.L181
	.cfi_offset 29, -12
	.cfi_offset 28, -16
	.cfi_offset 27, -20
	.cfi_offset 26, -24
.LVL30:
.L147:
.LBE284:
	.loc 1 124 0
	lwz 0,1676(1)
	mr 3,30
	lwz 26,1648(1)
	mtlr 0
	lwz 27,1652(1)
	lwz 28,1656(1)
	lwz 29,1660(1)
	lwz 30,1664(1)
	lwz 31,1668(1)
.LVL31:
	addi 1,1,1672
	.cfi_remember_state
.LCFI9:
	.cfi_def_cfa_offset 0
	.cfi_restore 31
	.cfi_restore 30
	.cfi_restore 29
	.cfi_restore 28
	.cfi_restore 27
	.cfi_restore 26
	blr
.LVL32:
.L181:
.LCFI10:
	.cfi_restore_state
.LBB285:
	.loc 1 105 0
	addi 30,3,84
.LVL33:
.LBB236:
.LBB237:
	.loc 2 542 0
	mr 3,30
.LVL34:
.LEHB0:
	bl _ZNSs6assignERKSs
.LVL35:
.LBE237:
.LBE236:
.LBB238:
.LBB239:
.LBB240:
	.loc 2 1000 0
	lis 4,.LC92@ha
	la 4,.LC92@l(4)
	li 5,24
	mr 3,30
	bl _ZNSs6appendEPKcj
.LBE240:
.LBE239:
.LBE238:
	.loc 1 108 0
	addi 3,1,12
	mr 4,30
	bl _ZNSsC1ERKSs
.LEHE0:
	addi 3,1,12
.LEHB1:
	bl _Z9CheckFileSs
.LEHE1:
.LBB241:
.LBB242:
.LBB243:
.LBB244:
.LBB245:
.LBB246:
	.loc 2 288 0
	lwz 9,12(1)
.LBE246:
.LBE245:
.LBE244:
.LBB247:
.LBB248:
	.loc 2 235 0
	lis 11,_ZNSs4_Rep20_S_empty_rep_storageE@ha
.LBE248:
.LBE247:
.LBE243:
.LBE242:
.LBE241:
	.loc 1 108 0
	mr 30,3
.LVL36:
.LBB265:
.LBB263:
.LBB261:
.LBB258:
.LBB255:
	.loc 2 235 0
	la 0,_ZNSs4_Rep20_S_empty_rep_storageE@l(11)
.LBE255:
.LBE258:
	.loc 2 534 0
	addi 3,9,-12
.LVL37:
.LBB259:
.LBB256:
	.loc 2 235 0
	cmpw 7,3,0
	bne- 7,.L182
.LVL38:
.L153:
.LBE256:
.LBE259:
.LBE261:
.LBE263:
.LBE265:
	.loc 1 108 0 discriminator 1
	cmpwi 7,30,0
	.loc 1 109 0 discriminator 1
	li 30,0
	.loc 1 108 0 discriminator 1
	beq+ 7,.L147
.LVL39:
	.loc 1 111 0
	lwz 3,84(31)
	lis 4,.LC93@ha
	la 4,.LC93@l(4)
.LEHB2:
	bl fopen
.LVL40:
	.loc 1 112 0
	mr. 28,3
	beq- 0,.L147
.LVL41:
.L180:
	.loc 1 115 0 discriminator 1
	addi 3,1,616
	li 4,1024
	mr 5,28
	bl fgets
	cmpwi 7,3,0
	beq- 7,.L183
.L167:
	.loc 1 117 0
	lbz 0,616(1)
	cmpwi 7,0,35
	beq- 7,.L180
.LVL42:
.LBB266:
.LBB267:
	.loc 1 471 0
	addi 4,1,616
.LVL43:
	li 5,200
	addi 3,1,416
	bl strncpy
.LVL44:
	.loc 1 473 0
	addi 3,1,416
	li 4,61
	bl strchr
.LVL45:
	.loc 1 475 0
	mr. 29,3
	beq- 0,.L180
	.loc 1 477 0
	li 0,0
.LBB268:
.LBB269:
.LBB270:
	.loc 1 488 0
	addi 27,1,416
.LBE270:
.LBE269:
.LBE268:
	.loc 1 477 0
	stb 0,0(29)
.LVL46:
.LBB275:
.LBB273:
.LBB271:
	.loc 1 488 0
	lbz 0,416(1)
	cmpwi 7,0,32
	bne- 7,.L157
	mr 9,27
.L158:
	lbzu 0,1(9)
	addi 27,27,1
.LVL47:
	cmpwi 7,0,32
	beq+ 7,.L158
.L157:
	.loc 1 489 0
	mr 3,27
.LVL48:
	bl strlen
.LVL49:
	.loc 1 490 0
	mr. 0,3
	stw 0,1640(1)
	ble- 0,.L159
	lis 30,.LC94@ha
	.loc 1 99 0
	add 26,27,0
	la 30,.LC94@l(30)
.LVL50:
.L160:
	.loc 1 490 0
	lbzu 4,-1(26)
	mr 3,30
	bl strchr
	cmpwi 7,3,0
	beq- 7,.L159
.LVL51:
	lwz 0,1640(1)
	addic. 9,0,-1
	stw 9,1640(1)
	bne+ 0,.L160
.LVL52:
.L159:
	.loc 1 492 0
	lwz 30,1640(1)
	cmpwi 7,30,199
	ble- 7,.L161
	li 30,199
.L161:
	mr 4,27
	mr 5,30
	addi 3,1,216
.LBE271:
.LBE273:
.LBE275:
	.loc 1 480 0
	addi 27,29,1
.LVL53:
.LBB276:
.LBB274:
.LBB272:
	.loc 1 492 0
	bl strncpy
.LVL54:
	.loc 1 493 0
	addi 0,1,8
	add 30,0,30
	li 0,0
	stb 0,208(30)
.LBE272:
.LBE274:
.LBE276:
.LBB277:
.LBB278:
.LBB279:
	.loc 1 488 0
	lbz 0,1(29)
	cmpwi 7,0,32
	bne- 7,.L162
	.loc 1 99 0
	mr 9,27
.LVL55:
.L163:
	addi 9,9,1
.LVL56:
	.loc 1 488 0
	lbz 0,0(9)
	.loc 1 99 0
	mr 27,9
.LVL57:
	.loc 1 488 0
	cmpwi 7,0,32
	beq+ 7,.L163
.LVL58:
.L162:
	.loc 1 489 0
	mr 3,27
	bl strlen
.LVL59:
	.loc 1 490 0
	mr. 9,3
	stw 9,1640(1)
	ble- 0,.L164
	lis 30,.LC94@ha
	.loc 1 99 0
	add 29,27,9
.LVL60:
	la 30,.LC94@l(30)
.LVL61:
.L165:
	.loc 1 490 0
	lbzu 4,-1(29)
	mr 3,30
	bl strchr
.LVL62:
	cmpwi 7,3,0
	beq- 7,.L164
.LVL63:
	lwz 0,1640(1)
	addic. 9,0,-1
	stw 9,1640(1)
	bne+ 0,.L165
.LVL64:
.L164:
	.loc 1 492 0
	lwz 30,1640(1)
	cmpwi 7,30,199
	ble- 7,.L166
	li 30,199
.L166:
	mr 5,30
	mr 4,27
	addi 3,1,16
	bl strncpy
	.loc 1 493 0
	addi 0,1,8
	add 30,0,30
	li 0,0
	stb 0,8(30)
.LBE279:
.LBE278:
.LBE277:
	.loc 1 482 0
	addi 4,1,216
	addi 5,1,16
	mr 3,31
	bl _ZN11AppControls10SetControlEPcS0_
.LBE267:
.LBE266:
	.loc 1 115 0
	addi 3,1,616
.LVL65:
	li 4,1024
	mr 5,28
	bl fgets
.LVL66:
	cmpwi 7,3,0
	bne+ 7,.L167
.LVL67:
.L183:
	.loc 1 121 0
	mr 3,28
	.loc 1 123 0
	li 30,1
	.loc 1 121 0
	bl fclose
.LBE285:
	.loc 1 124 0
	lwz 0,1676(1)
	mr 3,30
	lwz 26,1648(1)
	mtlr 0
	lwz 27,1652(1)
	lwz 28,1656(1)
.LVL68:
	lwz 29,1660(1)
	lwz 30,1664(1)
	lwz 31,1668(1)
.LVL69:
	addi 1,1,1672
	.cfi_remember_state
	.cfi_restore 26
	.cfi_restore 27
	.cfi_restore 28
	.cfi_restore 29
	.cfi_restore 30
	.cfi_restore 31
.LCFI11:
	.cfi_def_cfa_offset 0
	blr
.LVL70:
.L182:
.LCFI12:
	.cfi_restore_state
.LBB286:
.LBB280:
.LBB264:
.LBB262:
.LBB260:
.LBB257:
.LBB249:
.LBB250:
.LBB251:
	.loc 3 66 0
	lwz 11,-4(9)
.LVL71:
.LBE251:
.LBE250:
.LBE249:
	.loc 2 240 0
	cmpwi 7,11,0
.LBB254:
.LBB253:
.LBB252:
	.loc 3 67 0
	addi 11,11,-1
	stw 11,-4(9)
.LBE252:
.LBE253:
.LBE254:
	.loc 2 240 0
	bgt+ 7,.L153
	.loc 2 244 0
	addi 4,1,8
	bl _ZNSs4_Rep10_M_destroyERKSaIcE
.LVL72:
	b .L153
.LVL73:
.L173:
	mr 31,3
.LVL74:
.LBE257:
.LBE260:
.LBE262:
.LBE264:
.LBE280:
	.loc 1 108 0
	addi 3,1,12
	bl _ZNSsD1Ev
	mr 3,31
	bl _Unwind_Resume
.LEHE2:
.LBE286:
	.cfi_endproc
.LFE600:
	.globl __gxx_personality_v0
	.section	.gcc_except_table,"a",@progbits
.LLSDA600:
	.byte	0xff
	.byte	0xff
	.byte	0x1
	.uleb128 .LLSDACSE600-.LLSDACSB600
.LLSDACSB600:
	.uleb128 .LEHB0-.LFB600
	.uleb128 .LEHE0-.LEHB0
	.uleb128 0
	.uleb128 0
	.uleb128 .LEHB1-.LFB600
	.uleb128 .LEHE1-.LEHB1
	.uleb128 .L173-.LFB600
	.uleb128 0
	.uleb128 .LEHB2-.LFB600
	.uleb128 .LEHE2-.LEHB2
	.uleb128 0
	.uleb128 0
.LLSDACSE600:
	.section	".text"
	.size	_ZN11AppControls4LoadESs, .-_ZN11AppControls4LoadESs
	.align 2
	.globl _ZN11AppControls9ParseLineEPc
	.type	_ZN11AppControls9ParseLineEPc, @function
_ZN11AppControls9ParseLineEPc:
.LFB603:
	.loc 1 468 0
	.cfi_startproc
.LVL75:
	stwu 1,-648(1)
.LCFI13:
	.cfi_def_cfa_offset 648
	mflr 0
.LBB294:
	.loc 1 471 0
	li 5,200
.LBE294:
	.loc 1 468 0
	stw 29,636(1)
	mr 29,3
	.cfi_offset 29, -12
	.cfi_register 65, 0
.LBB313:
	.loc 1 471 0
	addi 3,1,408
.LVL76:
.LBE313:
	.loc 1 468 0
	stw 0,652(1)
	stw 30,640(1)
	stw 27,628(1)
	stw 28,632(1)
	stw 31,644(1)
.LBB314:
	.loc 1 471 0
	.cfi_offset 31, -4
	.cfi_offset 28, -16
	.cfi_offset 27, -20
	.cfi_offset 30, -8
	.cfi_offset 65, 4
	bl strncpy
.LVL77:
	.loc 1 473 0
	addi 3,1,408
	li 4,61
	bl strchr
.LVL78:
	.loc 1 475 0
	mr. 30,3
	beq- 0,.L184
	.loc 1 477 0
	li 0,0
.LBB295:
.LBB296:
.LBB297:
	.loc 1 488 0
	addi 28,1,408
.LBE297:
.LBE296:
.LBE295:
	.loc 1 477 0
	stb 0,0(30)
.LVL79:
.LBB304:
.LBB301:
.LBB298:
	.loc 1 488 0
	lbz 0,408(1)
	cmpwi 7,0,32
	bne- 7,.L186
	mr 9,28
.L187:
	lbzu 0,1(9)
	addi 28,28,1
.LVL80:
	cmpwi 7,0,32
	beq+ 7,.L187
.L186:
	.loc 1 489 0
	mr 3,28
.LVL81:
	bl strlen
.LVL82:
	.loc 1 490 0
	mr. 0,3
	stw 0,616(1)
	ble- 0,.L188
	lis 31,.LC94@ha
	.loc 1 467 0
	add 27,28,0
	la 31,.LC94@l(31)
.LVL83:
.L189:
	.loc 1 490 0
	lbzu 4,-1(27)
	mr 3,31
	bl strchr
	cmpwi 7,3,0
	beq- 7,.L188
.LVL84:
	lwz 0,616(1)
	addic. 9,0,-1
	stw 9,616(1)
	bne+ 0,.L189
.LVL85:
.L188:
	.loc 1 492 0
	lwz 31,616(1)
	cmpwi 7,31,199
	bgt- 7,.L201
.L190:
	mr 4,28
	mr 5,31
	addi 3,1,208
.LBE298:
.LBE301:
.LBE304:
	.loc 1 480 0
	addi 28,30,1
.LVL86:
.LBB305:
.LBB302:
.LBB299:
	.loc 1 492 0
	bl strncpy
.LVL87:
	.loc 1 493 0
	addi 0,1,8
	add 31,0,31
	li 0,0
	stb 0,200(31)
.LBE299:
.LBE302:
.LBE305:
.LBB306:
.LBB307:
.LBB308:
	.loc 1 488 0
	lbz 0,1(30)
	cmpwi 7,0,32
	bne- 7,.L191
	.loc 1 467 0
	mr 9,28
.LVL88:
.L192:
	addi 9,9,1
.LVL89:
	.loc 1 488 0
	lbz 0,0(9)
	.loc 1 467 0
	mr 28,9
.LVL90:
	.loc 1 488 0
	cmpwi 7,0,32
	beq+ 7,.L192
.LVL91:
.L191:
	.loc 1 489 0
	mr 3,28
	bl strlen
.LVL92:
	.loc 1 490 0
	mr. 9,3
	stw 9,616(1)
	ble- 0,.L193
	lis 31,.LC94@ha
	.loc 1 467 0
	add 30,28,9
.LVL93:
	la 31,.LC94@l(31)
.LVL94:
.L194:
	.loc 1 490 0
	lbzu 4,-1(30)
	mr 3,31
	bl strchr
.LVL95:
	cmpwi 7,3,0
	beq- 7,.L193
.LVL96:
	lwz 0,616(1)
	addic. 9,0,-1
	stw 9,616(1)
	bne+ 0,.L194
.LVL97:
.L193:
	.loc 1 492 0
	lwz 31,616(1)
	cmpwi 7,31,199
	bgt- 7,.L202
.L195:
	mr 5,31
	mr 4,28
	addi 3,1,8
	.loc 1 493 0
	add 31,1,31
	.loc 1 492 0
	bl strncpy
	.loc 1 493 0
	li 0,0
	stb 0,8(31)
.LBE308:
.LBE307:
.LBE306:
	.loc 1 482 0
	mr 3,29
	addi 4,1,208
	addi 5,1,8
	bl _ZN11AppControls10SetControlEPcS0_
.LVL98:
.L184:
.LBE314:
	.loc 1 483 0
	lwz 0,652(1)
	lwz 27,628(1)
	mtlr 0
	lwz 28,632(1)
	lwz 29,636(1)
.LVL99:
	lwz 30,640(1)
	lwz 31,644(1)
	addi 1,1,648
	.cfi_remember_state
.LCFI14:
	.cfi_def_cfa_offset 0
	.cfi_restore 31
	.cfi_restore 30
	.cfi_restore 29
	.cfi_restore 28
	.cfi_restore 27
	blr
.LVL100:
.L202:
.LCFI15:
	.cfi_restore_state
.LBB315:
.LBB311:
.LBB310:
.LBB309:
	.loc 1 492 0
	li 31,199
.LVL101:
	b .L195
.LVL102:
.L201:
.LBE309:
.LBE310:
.LBE311:
.LBB312:
.LBB303:
.LBB300:
	li 31,199
	b .L190
.LBE300:
.LBE303:
.LBE312:
.LBE315:
	.cfi_endproc
.LFE603:
	.size	_ZN11AppControls9ParseLineEPc, .-_ZN11AppControls9ParseLineEPc
	.align 2
	.globl _ZN11AppControls8TrimLineEPcS0_i
	.type	_ZN11AppControls8TrimLineEPcS0_i, @function
_ZN11AppControls8TrimLineEPcS0_i:
.LFB604:
	.loc 1 486 0
	.cfi_startproc
.LVL103:
	mflr 0
	stwu 1,-40(1)
.LCFI16:
	.cfi_def_cfa_offset 40
	.cfi_register 65, 0
	stw 27,20(1)
	mr 27,6
	.cfi_offset 27, -20
	stw 30,32(1)
	mr 30,5
	.cfi_offset 30, -8
	stw 31,36(1)
	mr 31,4
	.cfi_offset 31, -4
	stw 0,44(1)
	stw 28,24(1)
	stw 29,28(1)
.LBB316:
	.loc 1 488 0
	lbz 0,0(5)
	.cfi_offset 29, -12
	.cfi_offset 28, -16
	.cfi_offset 65, 4
	cmpwi 7,0,32
	bne- 7,.L204
	mr 9,5
.LVL104:
.L205:
	.loc 1 488 0 is_stmt 0 discriminator 2
	lbzu 0,1(9)
	addi 30,30,1
.LVL105:
	cmpwi 7,0,32
	beq+ 7,.L205
.L204:
	.loc 1 489 0 is_stmt 1
	mr 3,30
.LVL106:
	bl strlen
.LVL107:
	.loc 1 490 0
	mr. 0,3
	stw 0,8(1)
	ble- 0,.L206
	lis 28,.LC94@ha
	.loc 1 485 0
	add 29,30,0
	la 28,.LC94@l(28)
.LVL108:
.L207:
	.loc 1 490 0 discriminator 2
	lbzu 4,-1(29)
	mr 3,28
	bl strchr
	cmpwi 7,3,0
	beq- 7,.L206
.LVL109:
	.loc 1 490 0 is_stmt 0 discriminator 5
	lwz 0,8(1)
	addic. 9,0,-1
	stw 9,8(1)
	bne+ 0,.L207
.LVL110:
.L206:
	.loc 1 491 0 is_stmt 1
	lwz 0,8(1)
	cmpw 7,27,0
	bgt- 7,.L208
	.loc 1 491 0 is_stmt 0 discriminator 1
	addi 27,27,-1
.LVL111:
	stw 27,8(1)
.LVL112:
.L208:
	.loc 1 492 0 is_stmt 1
	lwz 5,8(1)
	mr 3,31
	mr 4,30
	bl strncpy
	.loc 1 493 0
	lwz 9,8(1)
	li 0,0
	stbx 0,31,9
.LBE316:
	.loc 1 494 0
	lwz 0,44(1)
	lwz 27,20(1)
	mtlr 0
	lwz 28,24(1)
	lwz 29,28(1)
	lwz 30,32(1)
.LVL113:
	lwz 31,36(1)
.LVL114:
	addi 1,1,40
.LCFI17:
	.cfi_def_cfa_offset 0
	.cfi_restore 31
	.cfi_restore 30
	.cfi_restore 29
	.cfi_restore 28
	.cfi_restore 27
	blr
	.cfi_endproc
.LFE604:
	.size	_ZN11AppControls8TrimLineEPcS0_i, .-_ZN11AppControls8TrimLineEPcS0_i
	.globl _ZN11AppControlsD1Ev
	.set	_ZN11AppControlsD1Ev,_ZN11AppControlsD2Ev
	.globl _ZN11AppControlsC1Ev
	.set	_ZN11AppControlsC1Ev,_ZN11AppControlsC2Ev
	.section	.rodata.str1.4,"aMS",@progbits,1
	.align 2
.LC0:
	.string	"%s"
	.zero	1
.LC1:
	.string	"w"
	.zero	2
.LC2:
	.string	"# SaveGame Manager GX Controls\n"
.LC3:
	.string	"# Note: This file is automatically generated\n\n"
	.zero	1
.LC4:
	.string	"# Wii Controls\n\n"
	.zero	3
.LC5:
	.string	"WiiControls.ClickButton = %d\n"
	.zero	2
.LC6:
	.string	"WiiControls.BackButton = %d\n"
	.zero	3
.LC7:
	.string	"WiiControls.UpButton = %d\n"
	.zero	1
.LC8:
	.string	"WiiControls.DownButton = %d\n"
	.zero	3
.LC9:
	.string	"WiiControls.LeftButton = %d\n"
	.zero	3
.LC10:
	.string	"WiiControls.RightButton = %d\n"
	.zero	2
.LC11:
	.string	"WiiControls.NextButton = %d\n"
	.zero	3
.LC12:
	.string	"WiiControls.PrevButton = %d\n"
	.zero	3
.LC13:
	.string	"WiiControls.HomeButton = %d\n"
	.zero	3
.LC14:
	.string	"WiiControls.KeyShiftButton = %d\n"
	.zero	3
.LC15:
	.string	"WiiControls.KeyBackspaceButton = %d\n"
	.zero	3
.LC16:
	.string	"WiiControls.UpInDirectory = %d\n"
.LC17:
	.string	"WiiControls.OneButtonScroll = %d\n"
	.zero	2
.LC18:
	.string	"WiiControls.EditTextLine = %d\n"
	.zero	1
.LC19:
	.string	"\n# Wii Classic Controls\n\n"
	.zero	2
.LC20:
	.string	"ClassicControls.ClickButton = %d\n"
	.zero	2
.LC21:
	.string	"ClassicControls.BackButton = %d\n"
	.zero	3
.LC22:
	.string	"ClassicControls.UpButton = %d\n"
	.zero	1
.LC23:
	.string	"ClassicControls.DownButton = %d\n"
	.zero	3
.LC24:
	.string	"ClassicControls.LeftButton = %d\n"
	.zero	3
.LC25:
	.string	"ClassicControls.RightButton = %d\n"
	.zero	2
.LC26:
	.string	"ClassicControls.NextButton = %d\n"
	.zero	3
.LC27:
	.string	"ClassicControls.PrevButton = %d\n"
	.zero	3
.LC28:
	.string	"ClassicControls.HomeButton = %d\n"
	.zero	3
.LC29:
	.string	"ClassicControls.KeyShiftButton = %d\n"
	.zero	3
.LC30:
	.string	"ClassicControls.KeyBackspaceButton = %d\n"
	.zero	3
.LC31:
	.string	"ClassicControls.UpInDirectory = %d\n"
.LC32:
	.string	"ClassicControls.OneButtonScroll = %d\n"
	.zero	2
.LC33:
	.string	"ClassicControls.EditTextLine = %d\n"
	.zero	1
.LC34:
	.string	"\n# GC Controls\n\n"
	.zero	3
.LC35:
	.string	"GCControls.ClickButton = %d\n"
	.zero	3
.LC36:
	.string	"GCControls.BackButton = %d\n"
.LC37:
	.string	"GCControls.UpButton = %d\n"
	.zero	2
.LC38:
	.string	"GCControls.DownButton = %d\n"
.LC39:
	.string	"GCControls.LeftButton = %d\n"
.LC40:
	.string	"GCControls.RightButton = %d\n"
	.zero	3
.LC41:
	.string	"GCControls.NextButton = %d\n"
.LC42:
	.string	"GCControls.PrevButton = %d\n"
.LC43:
	.string	"GCControls.HomeButton = %d\n"
.LC44:
	.string	"GCControls.KeyShiftButton = %d\n"
.LC45:
	.string	"GCControls.KeyBackspaceButton = %d\n"
.LC46:
	.string	"GCControls.UpInDirectory = %d\n"
	.zero	1
.LC47:
	.string	"GCControls.OneButtonScroll = %d\n"
	.zero	3
.LC48:
	.string	"GCControls.EditTextLine = %d\n"
	.zero	2
.LC49:
	.string	"WiiControls.ClickButton"
.LC50:
	.string	"%d"
	.zero	1
.LC51:
	.string	"WiiControls.BackButton"
	.zero	1
.LC52:
	.string	"WiiControls.UpButton"
	.zero	3
.LC53:
	.string	"WiiControls.DownButton"
	.zero	1
.LC54:
	.string	"WiiControls.LeftButton"
	.zero	1
.LC55:
	.string	"WiiControls.RightButton"
.LC56:
	.string	"WiiControls.NextButton"
	.zero	1
.LC57:
	.string	"WiiControls.PrevButton"
	.zero	1
.LC58:
	.string	"WiiControls.HomeButton"
	.zero	1
.LC59:
	.string	"WiiControls.KeyShiftButton"
	.zero	1
.LC60:
	.string	"WiiControls.KeyBackspaceButton"
	.zero	1
.LC61:
	.string	"WiiControls.UpInDirectory"
	.zero	2
.LC62:
	.string	"WiiControls.OneButtonScroll"
.LC63:
	.string	"WiiControls.EditTextLine"
	.zero	3
.LC64:
	.string	"ClassicControls.ClickButton"
.LC65:
	.string	"ClassicControls.BackButton"
	.zero	1
.LC66:
	.string	"ClassicControls.UpButton"
	.zero	3
.LC67:
	.string	"ClassicControls.DownButton"
	.zero	1
.LC68:
	.string	"ClassicControls.LeftButton"
	.zero	1
.LC69:
	.string	"ClassicControls.RightButton"
.LC70:
	.string	"ClassicControls.NextButton"
	.zero	1
.LC71:
	.string	"ClassicControls.PrevButton"
	.zero	1
.LC72:
	.string	"ClassicControls.HomeButton"
	.zero	1
.LC73:
	.string	"ClassicControls.KeyShiftButton"
	.zero	1
.LC74:
	.string	"ClassicControls.KeyBackspaceButton"
	.zero	1
.LC75:
	.string	"ClassicControls.UpInDirectory"
	.zero	2
.LC76:
	.string	"ClassicControls.OneButtonScroll"
.LC77:
	.string	"ClassicControls.EditTextLine"
	.zero	3
.LC78:
	.string	"GCControls.ClickButton"
	.zero	1
.LC79:
	.string	"GCControls.BackButton"
	.zero	2
.LC80:
	.string	"GCControls.UpButton"
.LC81:
	.string	"GCControls.DownButton"
	.zero	2
.LC82:
	.string	"GCControls.LeftButton"
	.zero	2
.LC83:
	.string	"GCControls.RightButton"
	.zero	1
.LC84:
	.string	"GCControls.NextButton"
	.zero	2
.LC85:
	.string	"GCControls.PrevButton"
	.zero	2
.LC86:
	.string	"GCControls.HomeButton"
	.zero	2
.LC87:
	.string	"GCControls.KeyShiftButton"
	.zero	2
.LC88:
	.string	"GCControls.KeyBackspaceButton"
	.zero	2
.LC89:
	.string	"GCControls.UpInDirectory"
	.zero	3
.LC90:
	.string	"GCControls.OneButtonScroll"
	.zero	1
.LC91:
	.string	"GCControls.EditTextLine"
.LC92:
	.string	"/SaveGameGX_Controls.cfg"
	.zero	3
.LC93:
	.string	"r"
	.zero	2
.LC94:
	.string	" \r\n"
	.section	".text"
.Letext0:
	.file 4 "d:\\devkitpro\\devkitppc\\bin\\../lib/gcc/powerpc-eabi/4.6.3/../../../../powerpc-eabi/include/stdint.h"
	.file 5 "d:/devkitPro/libogc/include/gctypes.h"
	.file 6 "d:/devkitPro/libogc/include/ogc/gx.h"
	.file 7 "d:\\devkitpro\\devkitppc\\bin\\../lib/gcc/powerpc-eabi/4.6.3/../../../../powerpc-eabi/include/machine/_types.h"
	.file 8 "d:\\devkitpro\\devkitppc\\bin\\../lib/gcc/powerpc-eabi/4.6.3/../../../../powerpc-eabi/include/sys/lock.h"
	.file 9 "d:\\devkitpro\\devkitppc\\bin\\../lib/gcc/powerpc-eabi/4.6.3/include/stddef.h"
	.file 10 "d:\\devkitpro\\devkitppc\\bin\\../lib/gcc/powerpc-eabi/4.6.3/../../../../powerpc-eabi/include/sys/_types.h"
	.file 11 "d:\\devkitpro\\devkitppc\\bin\\../lib/gcc/powerpc-eabi/4.6.3/../../../../powerpc-eabi/include/sys/reent.h"
	.file 12 "d:\\devkitpro\\devkitppc\\bin\\../lib/gcc/powerpc-eabi/4.6.3/../../../../powerpc-eabi/include/time.h"
	.file 13 "<built-in>"
	.file 14 "d:\\devkitpro\\devkitppc\\bin\\../lib/gcc/powerpc-eabi/4.6.3/../../../../powerpc-eabi/include/stdio.h"
	.file 15 "d:\\devkitpro\\devkitppc\\bin\\../lib/gcc/powerpc-eabi/4.6.3/../../../../powerpc-eabi/include/c++/4.6.3/cwchar"
	.file 16 "d:\\devkitpro\\devkitppc\\bin\\../lib/gcc/powerpc-eabi/4.6.3/../../../../powerpc-eabi/include/c++/4.6.3/powerpc-eabi/bits/c++config.h"
	.file 17 "d:\\devkitpro\\devkitppc\\bin\\../lib/gcc/powerpc-eabi/4.6.3/../../../../powerpc-eabi/include/c++/4.6.3/clocale"
	.file 18 "d:\\devkitpro\\devkitppc\\bin\\../lib/gcc/powerpc-eabi/4.6.3/../../../../powerpc-eabi/include/c++/4.6.3/bits/stringfwd.h"
	.file 19 "d:\\devkitpro\\devkitppc\\bin\\../lib/gcc/powerpc-eabi/4.6.3/../../../../powerpc-eabi/include/c++/4.6.3/ext/new_allocator.h"
	.file 20 "d:\\devkitpro\\devkitppc\\bin\\../lib/gcc/powerpc-eabi/4.6.3/../../../../powerpc-eabi/include/c++/4.6.3/bits/cpp_type_traits.h"
	.file 21 "d:\\devkitpro\\devkitppc\\bin\\../lib/gcc/powerpc-eabi/4.6.3/../../../../powerpc-eabi/include/c++/4.6.3/debug/debug.h"
	.file 22 "d:\\devkitpro\\devkitppc\\bin\\../lib/gcc/powerpc-eabi/4.6.3/../../../../powerpc-eabi/include/wchar.h"
	.file 23 "d:\\devkitpro\\devkitppc\\bin\\../lib/gcc/powerpc-eabi/4.6.3/../../../../powerpc-eabi/include/c++/4.6.3/bits/char_traits.h"
	.file 24 "d:\\devkitpro\\devkitppc\\bin\\../lib/gcc/powerpc-eabi/4.6.3/../../../../powerpc-eabi/include/c++/4.6.3/bits/allocator.h"
	.file 25 "d:\\devkitpro\\devkitppc\\bin\\../lib/gcc/powerpc-eabi/4.6.3/../../../../powerpc-eabi/include/locale.h"
	.file 26 "d:\\devkitpro\\devkitppc\\bin\\../lib/gcc/powerpc-eabi/4.6.3/../../../../powerpc-eabi/include/c++/4.6.3/powerpc-eabi/bits/atomic_word.h"
	.file 27 "d:\\devkitpro\\devkitppc\\bin\\../lib/gcc/powerpc-eabi/4.6.3/../../../../powerpc-eabi/include/c++/4.6.3/ext/numeric_traits.h"
	.file 28 "d:\\devkitpro\\devkitppc\\bin\\../lib/gcc/powerpc-eabi/4.6.3/../../../../powerpc-eabi/include/c++/4.6.3/bits/basic_string.tcc"
	.file 29 "d:/Projects/SaveGameManager/savegame-manager-gx/trunk/source/Controls/AppControls.hpp"