   1              		.file	"Application.cpp"
   2              		.section	".text"
   3              	.Ltext0:
   4              		.section	.text._ZN7sigslot15single_threadedD2Ev,"axG",@progbits,_ZN7sigslot15single_threadedD5Ev,c
   5              		.align 2
   6              		.weak	_ZN7sigslot15single_threadedD2Ev
   7              		.type	_ZN7sigslot15single_threadedD2Ev, @function
   8              	_ZN7sigslot15single_threadedD2Ev:
   9              	.LFB1148:
  10              		.file 1 "d:/Projects/SaveGameManager/savegame-manager-gx/trunk/source/Controls/../GUI/../sigslot.h
  11              		.loc 1 104 0
  12              		.cfi_startproc
  13              	.LVL0:
  14              	.LBB2984:
  15              		.loc 1 105 0
  16 0000 3D200000 		lis 9,_ZTVN7sigslot15single_threadedE+8@ha
  17              	.LBE2984:
  18              		.loc 1 107 0
  19              	.LBB2985:
  20              		.loc 1 105 0
  21 0004 38090008 		la 0,_ZTVN7sigslot15single_threadedE+8@l(9)
  22 0008 90030000 		stw 0,0(3)
  23              	.LBE2985:
  24              		.loc 1 107 0
  25 000c 4E800020 		blr
  26              		.cfi_endproc
  27              	.LFE1148:
  28              		.size	_ZN7sigslot15single_threadedD2Ev, .-_ZN7sigslot15single_threadedD2Ev
  29              		.section	.text._ZN7sigslot15single_threaded4lockEv,"axG",@progbits,_ZN7sigslot15single_threaded4lo
  30              		.align 2
  31              		.weak	_ZN7sigslot15single_threaded4lockEv
  32              		.type	_ZN7sigslot15single_threaded4lockEv, @function
  33              	_ZN7sigslot15single_threaded4lockEv:
  34              	.LFB1151:
  35              		.loc 1 109 0
  36              		.cfi_startproc
  37              	.LVL1:
  38              		.loc 1 112 0
  39 0000 4E800020 		blr
  40              		.cfi_endproc
  41              	.LFE1151:
  42              		.size	_ZN7sigslot15single_threaded4lockEv, .-_ZN7sigslot15single_threaded4lockEv
  43              		.section	.text._ZN7sigslot15single_threaded6unlockEv,"axG",@progbits,_ZN7sigslot15single_threaded6
  44              		.align 2
  45              		.weak	_ZN7sigslot15single_threaded6unlockEv
  46              		.type	_ZN7sigslot15single_threaded6unlockEv, @function
  47              	_ZN7sigslot15single_threaded6unlockEv:
  48              	.LFB1152:
  49              		.loc 1 114 0
  50              		.cfi_startproc
  51              	.LVL2:
  52              		.loc 1 117 0
  53 0000 4E800020 		blr
  54              		.cfi_endproc
  55              	.LFE1152:
  56              		.size	_ZN7sigslot15single_threaded6unlockEv, .-_ZN7sigslot15single_threaded6unlockEv
  57              		.section	.text._ZN10GuiElement9SetParentEPS_,"axG",@progbits,_ZN10GuiElement9SetParentEPS_,comdat
  58              		.align 2
  59              		.weak	_ZN10GuiElement9SetParentEPS_
  60              		.type	_ZN10GuiElement9SetParentEPS_, @function
  61              	_ZN10GuiElement9SetParentEPS_:
  62              	.LFB1384:
  63              		.file 2 "d:/Projects/SaveGameManager/savegame-manager-gx/trunk/source/Controls/../GUI/gui_element.
  64              		.loc 2 92 0
  65              		.cfi_startproc
  66              	.LVL3:
  67              		.loc 2 92 0
  68 0000 90830060 		stw 4,96(3)
  69 0004 4E800020 		blr
  70              		.cfi_endproc
  71              	.LFE1384:
  72              		.size	_ZN10GuiElement9SetParentEPS_, .-_ZN10GuiElement9SetParentEPS_
  73              		.section	.text._ZN10GuiElement9GetParentEv,"axG",@progbits,_ZN10GuiElement9GetParentEv,comdat
  74              		.align 2
  75              		.weak	_ZN10GuiElement9GetParentEv
  76              		.type	_ZN10GuiElement9GetParentEv, @function
  77              	_ZN10GuiElement9GetParentEv:
  78              	.LFB1385:
  79              		.loc 2 95 0
  80              		.cfi_startproc
  81              	.LVL4:
  82              		.loc 2 95 0
  83 0000 80630060 		lwz 3,96(3)
  84              	.LVL5:
  85 0004 4E800020 		blr
  86              		.cfi_endproc
  87              	.LFE1385:
  88              		.size	_ZN10GuiElement9GetParentEv, .-_ZN10GuiElement9GetParentEv
  89              		.section	.text._ZN10GuiElement12GetZPositionEv,"axG",@progbits,_ZN10GuiElement12GetZPositionEv,com
  90              		.align 2
  91              		.weak	_ZN10GuiElement12GetZPositionEv
  92              		.type	_ZN10GuiElement12GetZPositionEv, @function
  93              	_ZN10GuiElement12GetZPositionEv:
  94              	.LFB1386:
  95              		.loc 2 106 0
  96              		.cfi_startproc
  97              	.LVL6:
  98 0000 7C0802A6 		mflr 0
  99 0004 9421FFF0 		stwu 1,-16(1)
 100              	.LCFI0:
 101              		.cfi_def_cfa_offset 16
 102              		.cfi_register 65, 0
 103 0008 93E1000C 		stw 31,12(1)
 104 000c 7C7F1B78 		mr 31,3
 105              		.cfi_offset 31, -4
 106 0010 90010014 		stw 0,20(1)
 107              	.LBB2986:
 108              		.loc 2 110 0
 109 0014 81630060 		lwz 11,96(3)
 110              		.loc 2 108 0
 111 0018 38600000 		li 3,0
 112              	.LVL7:
 113              		.loc 2 110 0
 114 001c 2F8B0000 		cmpwi 7,11,0
 115 0020 419E0018 		beq- 7,.L8
 116              		.cfi_offset 65, 4
 117              		.loc 2 111 0
 118 0024 812B0000 		lwz 9,0(11)
 119 0028 7D635B78 		mr 3,11
 120 002c 80090018 		lwz 0,24(9)
 121 0030 7C0903A6 		mtctr 0
 122 0034 4E800421 		bctrl
 123              	.LVL8:
 124              	.L8:
 125              		.loc 2 113 0
 126 0038 801F0034 		lwz 0,52(31)
 127              	.LBE2986:
 128              		.loc 2 114 0
 129 003c 83E1000C 		lwz 31,12(1)
 130              	.LVL9:
 131 0040 7C630214 		add 3,3,0
 132              	.LVL10:
 133 0044 80010014 		lwz 0,20(1)
 134 0048 38210010 		addi 1,1,16
 135              	.LCFI1:
 136              		.cfi_def_cfa_offset 0
 137              		.cfi_restore 31
 138 004c 7C0803A6 		mtlr 0
 139 0050 4E800020 		blr
 140              		.cfi_endproc
 141              	.LFE1386:
 142              		.size	_ZN10GuiElement12GetZPositionEv, .-_ZN10GuiElement12GetZPositionEv
 143              		.section	.text._ZN10GuiElement10GetLeftPosEv,"axG",@progbits,_ZN10GuiElement10GetLeftPosEv,comdat
 144              		.align 2
 145              		.weak	_ZN10GuiElement10GetLeftPosEv
 146              		.type	_ZN10GuiElement10GetLeftPosEv, @function
 147              	_ZN10GuiElement10GetLeftPosEv:
 148              	.LFB1387:
 149              		.loc 2 116 0
 150              		.cfi_startproc
 151              	.LVL11:
 152              		.loc 2 116 0
 153 0000 8063002C 		lwz 3,44(3)
 154              	.LVL12:
 155 0004 4E800020 		blr
 156              		.cfi_endproc
 157              	.LFE1387:
 158              		.size	_ZN10GuiElement10GetLeftPosEv, .-_ZN10GuiElement10GetLeftPosEv
 159              		.section	.text._ZN10GuiElement9GetTopPosEv,"axG",@progbits,_ZN10GuiElement9GetTopPosEv,comdat
 160              		.align 2
 161              		.weak	_ZN10GuiElement9GetTopPosEv
 162              		.type	_ZN10GuiElement9GetTopPosEv, @function
 163              	_ZN10GuiElement9GetTopPosEv:
 164              	.LFB1388:
 165              		.loc 2 118 0
 166              		.cfi_startproc
 167              	.LVL13:
 168              		.loc 2 118 0
 169 0000 80630030 		lwz 3,48(3)
 170              	.LVL14:
 171 0004 4E800020 		blr
 172              		.cfi_endproc
 173              	.LFE1388:
 174              		.size	_ZN10GuiElement9GetTopPosEv, .-_ZN10GuiElement9GetTopPosEv
 175              		.section	.text._ZN10GuiElement8GetWidthEv,"axG",@progbits,_ZN10GuiElement8GetWidthEv,comdat
 176              		.align 2
 177              		.weak	_ZN10GuiElement8GetWidthEv
 178              		.type	_ZN10GuiElement8GetWidthEv, @function
 179              	_ZN10GuiElement8GetWidthEv:
 180              	.LFB1389:
 181              		.loc 2 121 0
 182              		.cfi_startproc
 183              	.LVL15:
 184              		.loc 2 121 0
 185 0000 80630024 		lwz 3,36(3)
 186              	.LVL16:
 187 0004 4E800020 		blr
 188              		.cfi_endproc
 189              	.LFE1389:
 190              		.size	_ZN10GuiElement8GetWidthEv, .-_ZN10GuiElement8GetWidthEv
 191              		.section	.text._ZN10GuiElement9GetHeightEv,"axG",@progbits,_ZN10GuiElement9GetHeightEv,comdat
 192              		.align 2
 193              		.weak	_ZN10GuiElement9GetHeightEv
 194              		.type	_ZN10GuiElement9GetHeightEv, @function
 195              	_ZN10GuiElement9GetHeightEv:
 196              	.LFB1390:
 197              		.loc 2 124 0
 198              		.cfi_startproc
 199              	.LVL17:
 200              		.loc 2 124 0
 201 0000 80630028 		lwz 3,40(3)
 202              	.LVL18:
 203 0004 4E800020 		blr
 204              		.cfi_endproc
 205              	.LFE1390:
 206              		.size	_ZN10GuiElement9GetHeightEv, .-_ZN10GuiElement9GetHeightEv
 207              		.section	.text._ZN10GuiElement7SetSizeEii,"axG",@progbits,_ZN10GuiElement7SetSizeEii,comdat
 208              		.align 2
 209              		.weak	_ZN10GuiElement7SetSizeEii
 210              		.type	_ZN10GuiElement7SetSizeEii, @function
 211              	_ZN10GuiElement7SetSizeEii:
 212              	.LFB1391:
 213              		.loc 2 128 0
 214              		.cfi_startproc
 215              	.LVL19:
 216              		.loc 2 130 0
 217 0000 90830024 		stw 4,36(3)
 218              		.loc 2 132 0
 219              		.loc 2 131 0
 220 0004 90A30028 		stw 5,40(3)
 221              		.loc 2 132 0
 222 0008 4E800020 		blr
 223              		.cfi_endproc
 224              	.LFE1391:
 225              		.size	_ZN10GuiElement7SetSizeEii, .-_ZN10GuiElement7SetSizeEii
 226              		.section	.text._ZN10GuiElement9IsVisibleEv,"axG",@progbits,_ZN10GuiElement9IsVisibleEv,comdat
 227              		.align 2
 228              		.weak	_ZN10GuiElement9IsVisibleEv
 229              		.type	_ZN10GuiElement9IsVisibleEv, @function
 230              	_ZN10GuiElement9IsVisibleEv:
 231              	.LFB1393:
 232              		.loc 2 142 0
 233              		.cfi_startproc
 234              	.LVL20:
 235              		.loc 2 142 0
 236 0000 8863001D 		lbz 3,29(3)
 237              	.LVL21:
 238 0004 4E800020 		blr
 239              		.cfi_endproc
 240              	.LFE1393:
 241              		.size	_ZN10GuiElement9IsVisibleEv, .-_ZN10GuiElement9IsVisibleEv
 242              		.section	.text._ZN10GuiElement12IsSelectableEv,"axG",@progbits,_ZN10GuiElement12IsSelectableEv,com
 243              		.align 2
 244              		.weak	_ZN10GuiElement12IsSelectableEv
 245              		.type	_ZN10GuiElement12IsSelectableEv, @function
 246              	_ZN10GuiElement12IsSelectableEv:
 247              	.LFB1394:
 248              		.loc 2 145 0
 249              		.cfi_startproc
 250              	.LVL22:
 251              		.loc 2 149 0
 252 0000 80030048 		lwz 0,72(3)
 253 0004 39200000 		li 9,0
 254 0008 2F800004 		cmpwi 7,0,4
 255 000c 419E0010 		beq- 7,.L18
 256              		.loc 2 149 0 is_stmt 0 discriminator 1
 257 0010 2F800002 		cmpwi 7,0,2
 258 0014 419E0008 		beq- 7,.L18
 259              		.loc 2 149 0 discriminator 3
 260 0018 8923001E 		lbz 9,30(3)
 261              	.L18:
 262              		.loc 2 150 0 is_stmt 1 discriminator 5
 263 001c 7D234B78 		mr 3,9
 264              	.LVL23:
 265 0020 4E800020 		blr
 266              		.cfi_endproc
 267              	.LFE1394:
 268              		.size	_ZN10GuiElement12IsSelectableEv, .-_ZN10GuiElement12IsSelectableEv
 269              		.section	.text._ZN10GuiElement11IsClickableEv,"axG",@progbits,_ZN10GuiElement11IsClickableEv,comda
 270              		.align 2
 271              		.weak	_ZN10GuiElement11IsClickableEv
 272              		.type	_ZN10GuiElement11IsClickableEv, @function
 273              	_ZN10GuiElement11IsClickableEv:
 274              	.LFB1395:
 275              		.loc 2 153 0
 276              		.cfi_startproc
 277              	.LVL24:
 278              		.loc 2 158 0
 279 0000 80030048 		lwz 0,72(3)
 280 0004 39200000 		li 9,0
 281 0008 2F800004 		cmpwi 7,0,4
 282 000c 419E0018 		beq- 7,.L22
 283              		.loc 2 158 0 is_stmt 0 discriminator 1
 284 0010 2F800002 		cmpwi 7,0,2
 285 0014 419E0010 		beq- 7,.L22
 286              		.loc 2 158 0 discriminator 3
 287 0018 2F800003 		cmpwi 7,0,3
 288 001c 419E0008 		beq- 7,.L22
 289              		.loc 2 158 0 discriminator 4
 290 0020 8923001F 		lbz 9,31(3)
 291              	.L22:
 292              		.loc 2 159 0 is_stmt 1 discriminator 6
 293 0024 7D234B78 		mr 3,9
 294              	.LVL25:
 295 0028 4E800020 		blr
 296              		.cfi_endproc
 297              	.LFE1395:
 298              		.size	_ZN10GuiElement11IsClickableEv, .-_ZN10GuiElement11IsClickableEv
 299              		.section	.text._ZN10GuiElement10IsHoldableEv,"axG",@progbits,_ZN10GuiElement10IsHoldableEv,comdat
 300              		.align 2
 301              		.weak	_ZN10GuiElement10IsHoldableEv
 302              		.type	_ZN10GuiElement10IsHoldableEv, @function
 303              	_ZN10GuiElement10IsHoldableEv:
 304              	.LFB1396:
 305              		.loc 2 162 0
 306              		.cfi_startproc
 307              	.LVL26:
 308              		.loc 2 162 0
 309 0000 81230048 		lwz 9,72(3)
 310 0004 38000000 		li 0,0
 311 0008 2F890004 		cmpwi 7,9,4
 312 000c 419E0008 		beq- 7,.L27
 313              		.loc 2 162 0 is_stmt 0 discriminator 1
 314 0010 88030020 		lbz 0,32(3)
 315              	.L27:
 316              		.loc 2 162 0 discriminator 4
 317 0014 7C030378 		mr 3,0
 318              	.LVL27:
 319 0018 4E800020 		blr
 320              		.cfi_endproc
 321              	.LFE1396:
 322              		.size	_ZN10GuiElement10IsHoldableEv, .-_ZN10GuiElement10IsHoldableEv
 323              		.section	.text._ZN10GuiElement13SetSelectableEb,"axG",@progbits,_ZN10GuiElement13SetSelectableEb,c
 324              		.align 2
 325              		.weak	_ZN10GuiElement13SetSelectableEb
 326              		.type	_ZN10GuiElement13SetSelectableEb, @function
 327              	_ZN10GuiElement13SetSelectableEb:
 328              	.LFB1397:
 329              		.loc 2 165 0 is_stmt 1
 330              		.cfi_startproc
 331              	.LVL28:
 332              		.loc 2 165 0
 333 0000 9883001E 		stb 4,30(3)
 334 0004 4E800020 		blr
 335              		.cfi_endproc
 336              	.LFE1397:
 337              		.size	_ZN10GuiElement13SetSelectableEb, .-_ZN10GuiElement13SetSelectableEb
 338              		.section	.text._ZN10GuiElement12SetClickableEb,"axG",@progbits,_ZN10GuiElement12SetClickableEb,com
 339              		.align 2
 340              		.weak	_ZN10GuiElement12SetClickableEb
 341              		.type	_ZN10GuiElement12SetClickableEb, @function
 342              	_ZN10GuiElement12SetClickableEb:
 343              	.LFB1398:
 344              		.loc 2 168 0
 345              		.cfi_startproc
 346              	.LVL29:
 347              		.loc 2 168 0
 348 0000 9883001F 		stb 4,31(3)
 349 0004 4E800020 		blr
 350              		.cfi_endproc
 351              	.LFE1398:
 352              		.size	_ZN10GuiElement12SetClickableEb, .-_ZN10GuiElement12SetClickableEb
 353              		.section	.text._ZN10GuiElement11SetHoldableEb,"axG",@progbits,_ZN10GuiElement11SetHoldableEb,comda
 354              		.align 2
 355              		.weak	_ZN10GuiElement11SetHoldableEb
 356              		.type	_ZN10GuiElement11SetHoldableEb, @function
 357              	_ZN10GuiElement11SetHoldableEb:
 358              	.LFB1399:
 359              		.loc 2 171 0
 360              		.cfi_startproc
 361              	.LVL30:
 362              		.loc 2 171 0
 363 0000 98830020 		stb 4,32(3)
 364 0004 4E800020 		blr
 365              		.cfi_endproc
 366              	.LFE1399:
 367              		.size	_ZN10GuiElement11SetHoldableEb, .-_ZN10GuiElement11SetHoldableEb
 368              		.section	.text._ZN10GuiElement8GetStateEv,"axG",@progbits,_ZN10GuiElement8GetStateEv,comdat
 369              		.align 2
 370              		.weak	_ZN10GuiElement8GetStateEv
 371              		.type	_ZN10GuiElement8GetStateEv, @function
 372              	_ZN10GuiElement8GetStateEv:
 373              	.LFB1400:
 374              		.loc 2 178 0
 375              		.cfi_startproc
 376              	.LVL31:
 377              		.loc 2 178 0
 378 0000 80630048 		lwz 3,72(3)
 379              	.LVL32:
 380 0004 4E800020 		blr
 381              		.cfi_endproc
 382              	.LFE1400:
 383              		.size	_ZN10GuiElement8GetStateEv, .-_ZN10GuiElement8GetStateEv
 384              		.section	.text._ZN10GuiElement12GetStateChanEv,"axG",@progbits,_ZN10GuiElement12GetStateChanEv,com
 385              		.align 2
 386              		.weak	_ZN10GuiElement12GetStateChanEv
 387              		.type	_ZN10GuiElement12GetStateChanEv, @function
 388              	_ZN10GuiElement12GetStateChanEv:
 389              	.LFB1401:
 390              		.loc 2 181 0
 391              		.cfi_startproc
 392              	.LVL33:
 393              		.loc 2 181 0
 394 0000 8063004C 		lwz 3,76(3)
 395              	.LVL34:
 396 0004 4E800020 		blr
 397              		.cfi_endproc
 398              	.LFE1401:
 399              		.size	_ZN10GuiElement12GetStateChanEv, .-_ZN10GuiElement12GetStateChanEv
 400              		.section	.text._ZN10GuiElement8SetAlphaEi,"axG",@progbits,_ZN10GuiElement8SetAlphaEi,comdat
 401              		.align 2
 402              		.weak	_ZN10GuiElement8SetAlphaEi
 403              		.type	_ZN10GuiElement8SetAlphaEi, @function
 404              	_ZN10GuiElement8SetAlphaEi:
 405              	.LFB1403:
 406              		.loc 2 190 0
 407              		.cfi_startproc
 408              	.LVL35:
 409              		.loc 2 190 0
 410 0000 90830038 		stw 4,56(3)
 411 0004 4E800020 		blr
 412              		.cfi_endproc
 413              	.LFE1403:
 414              		.size	_ZN10GuiElement8SetAlphaEi, .-_ZN10GuiElement8SetAlphaEi
 415              		.section	.text._ZN10GuiElement8GetAlphaEv,"axG",@progbits,_ZN10GuiElement8GetAlphaEv,comdat
 416              		.align 2
 417              		.weak	_ZN10GuiElement8GetAlphaEv
 418              		.type	_ZN10GuiElement8GetAlphaEv, @function
 419              	_ZN10GuiElement8GetAlphaEv:
 420              	.LFB1404:
 421              		.loc 2 194 0
 422              		.cfi_startproc
 423              	.LVL36:
 424 0000 7C0802A6 		mflr 0
 425 0004 9421FFD8 		stwu 1,-40(1)
 426              	.LCFI2:
 427              		.cfi_def_cfa_offset 40
 428              		.cfi_register 65, 0
 429 0008 93E10024 		stw 31,36(1)
 430 000c 9001002C 		stw 0,44(1)
 431              	.LBB2987:
 432              		.loc 2 198 0
 433 0010 83E3006C 		lwz 31,108(3)
 434              		.cfi_offset 65, 4
 435              		.cfi_offset 31, -4
 436 0014 2F9F0000 		cmpwi 7,31,0
 437 0018 419C0094 		blt- 7,.L38
 438              	.L36:
 439              	.LVL37:
 440              		.loc 2 203 0
 441 001c 80630060 		lwz 3,96(3)
 442              	.LVL38:
 443 0020 2F830000 		cmpwi 7,3,0
 444 0024 419E0070 		beq- 7,.L37
 445              		.loc 2 204 0
 446 0028 81230000 		lwz 9,0(3)
 447 002c 6FFF8000 		xoris 31,31,0x8000
 448              	.LVL39:
 449 0030 80090064 		lwz 0,100(9)
 450 0034 7C0903A6 		mtctr 0
 451 0038 4E800421 		bctrl
 452 003c 3C004330 		lis 0,0x4330
 453 0040 6C638000 		xoris 3,3,0x8000
 454 0044 90010010 		stw 0,16(1)
 455 0048 90610014 		stw 3,20(1)
 456 004c 3D200000 		lis 9,.LC1@ha
 457 0050 C0090000 		lfs 0,.LC1@l(9)
 458 0054 3D200000 		lis 9,.LC2@ha
 459 0058 C9A10010 		lfd 13,16(1)
 460 005c C1890004 		lfs 12,.LC2@l(9)
 461 0060 39210018 		addi 9,1,24
 462 0064 FDAD0028 		fsub 13,13,0
 463 0068 93E1000C 		stw 31,12(1)
 464 006c 90010008 		stw 0,8(1)
 465 0070 FDA06818 		frsp 13,13
 466 0074 EDAD6024 		fdivs 13,13,12
 467 0078 C9810008 		lfd 12,8(1)
 468 007c FC0C0028 		fsub 0,12,0
 469 0080 FC000018 		frsp 0,0
 470 0084 EC000372 		fmuls 0,0,13
 471 0088 FC00001E 		fctiwz 0,0
 472 008c 7C004FAE 		stfiwx 0,0,9
 473 0090 83E10018 		lwz 31,24(1)
 474              	.LVL40:
 475              	.L37:
 476              	.LBE2987:
 477              		.loc 2 207 0
 478 0094 8001002C 		lwz 0,44(1)
 479 0098 7FE3FB78 		mr 3,31
 480 009c 83E10024 		lwz 31,36(1)
 481              	.LVL41:
 482 00a0 7C0803A6 		mtlr 0
 483 00a4 38210028 		addi 1,1,40
 484              		.cfi_remember_state
 485              	.LCFI3:
 486              		.cfi_def_cfa_offset 0
 487              		.cfi_restore 31
 488 00a8 4E800020 		blr
 489              	.LVL42:
 490              	.L38:
 491              	.LCFI4:
 492              		.cfi_restore_state
 493              	.LBB2988:
 494              		.loc 2 201 0
 495 00ac 83E30038 		lwz 31,56(3)
 496              	.LVL43:
 497 00b0 4BFFFF6C 		b .L36
 498              	.LBE2988:
 499              		.cfi_endproc
 500              	.LFE1404:
 501              		.size	_ZN10GuiElement8GetAlphaEv, .-_ZN10GuiElement8GetAlphaEv
 502              		.section	.text._ZN10GuiElement8SetScaleEf,"axG",@progbits,_ZN10GuiElement8SetScaleEf,comdat
 503              		.align 2
 504              		.weak	_ZN10GuiElement8SetScaleEf
 505              		.type	_ZN10GuiElement8SetScaleEf, @function
 506              	_ZN10GuiElement8SetScaleEf:
 507              	.LFB1405:
 508              		.loc 2 210 0
 509              		.cfi_startproc
 510              	.LVL44:
 511              		.loc 2 212 0
 512 0000 D023003C 		stfs 1,60(3)
 513              		.loc 2 214 0
 514              		.loc 2 213 0
 515 0004 D0230040 		stfs 1,64(3)
 516              		.loc 2 214 0
 517 0008 4E800020 		blr
 518              		.cfi_endproc
 519              	.LFE1405:
 520              		.size	_ZN10GuiElement8SetScaleEf, .-_ZN10GuiElement8SetScaleEf
 521              		.section	.text._ZN10GuiElement9SetScaleXEf,"axG",@progbits,_ZN10GuiElement9SetScaleXEf,comdat
 522              		.align 2
 523              		.weak	_ZN10GuiElement9SetScaleXEf
 524              		.type	_ZN10GuiElement9SetScaleXEf, @function
 525              	_ZN10GuiElement9SetScaleXEf:
 526              	.LFB1406:
 527              		.loc 2 217 0
 528              		.cfi_startproc
 529              	.LVL45:
 530              		.loc 2 217 0
 531 0000 D023003C 		stfs 1,60(3)
 532 0004 4E800020 		blr
 533              		.cfi_endproc
 534              	.LFE1406:
 535              		.size	_ZN10GuiElement9SetScaleXEf, .-_ZN10GuiElement9SetScaleXEf
 536              		.section	.text._ZN10GuiElement9SetScaleYEf,"axG",@progbits,_ZN10GuiElement9SetScaleYEf,comdat
 537              		.align 2
 538              		.weak	_ZN10GuiElement9SetScaleYEf
 539              		.type	_ZN10GuiElement9SetScaleYEf, @function
 540              	_ZN10GuiElement9SetScaleYEf:
 541              	.LFB1407:
 542              		.loc 2 220 0
 543              		.cfi_startproc
 544              	.LVL46:
 545              		.loc 2 220 0
 546 0000 D0230040 		stfs 1,64(3)
 547 0004 4E800020 		blr
 548              		.cfi_endproc
 549              	.LFE1407:
 550              		.size	_ZN10GuiElement9SetScaleYEf, .-_ZN10GuiElement9SetScaleYEf
 551              		.section	.text._ZN10GuiElement8GetScaleEv,"axG",@progbits,_ZN10GuiElement8GetScaleEv,comdat
 552              		.align 2
 553              		.weak	_ZN10GuiElement8GetScaleEv
 554              		.type	_ZN10GuiElement8GetScaleEv, @function
 555              	_ZN10GuiElement8GetScaleEv:
 556              	.LFB1408:
 557              		.loc 2 223 0
 558              		.cfi_startproc
 559              	.LVL47:
 560 0000 7C0802A6 		mflr 0
 561 0004 9421FFF0 		stwu 1,-16(1)
 562              	.LCFI5:
 563              		.cfi_def_cfa_offset 16
 564              		.cfi_register 65, 0
 565              	.LBB2989:
 566              		.loc 2 225 0
 567 0008 3D200000 		lis 9,.LC3@ha
 568              	.LBE2989:
 569              		.loc 2 223 0
 570 000c DBE10008 		stfd 31,8(1)
 571 0010 90010014 		stw 0,20(1)
 572              	.LBB2990:
 573              		.loc 2 225 0
 574 0014 C0030040 		lfs 0,64(3)
 575 0018 C3E3003C 		lfs 31,60(3)
 576              		.cfi_offset 65, 4
 577              		.cfi_offset 63, -8
 578              		.loc 2 227 0
 579 001c 81630060 		lwz 11,96(3)
 580              		.loc 2 225 0
 581 0020 EFFF002A 		fadds 31,31,0
 582 0024 C0090008 		lfs 0,.LC3@l(9)
 583              		.loc 2 227 0
 584 0028 2F8B0000 		cmpwi 7,11,0
 585              		.loc 2 225 0
 586 002c EFFF0032 		fmuls 31,31,0
 587 0030 C0030070 		lfs 0,112(3)
 588 0034 EFFF0032 		fmuls 31,31,0
 589              	.LVL48:
 590              		.loc 2 227 0
 591 0038 419E001C 		beq- 7,.L43
 592              		.loc 2 228 0
 593 003c 812B0000 		lwz 9,0(11)
 594 0040 7D635B78 		mr 3,11
 595              	.LVL49:
 596 0044 80090074 		lwz 0,116(9)
 597 0048 7C0903A6 		mtctr 0
 598 004c 4E800421 		bctrl
 599 0050 EFFF0072 		fmuls 31,31,1
 600              	.LVL50:
 601              	.L43:
 602              	.LBE2990:
 603              		.loc 2 231 0
 604 0054 80010014 		lwz 0,20(1)
 605 0058 FC20F890 		fmr 1,31
 606 005c CBE10008 		lfd 31,8(1)
 607              	.LVL51:
 608 0060 7C0803A6 		mtlr 0
 609 0064 38210010 		addi 1,1,16
 610              	.LCFI6:
 611              		.cfi_def_cfa_offset 0
 612              		.cfi_restore 63
 613 0068 4E800020 		blr
 614              		.cfi_endproc
 615              	.LFE1408:
 616              		.size	_ZN10GuiElement8GetScaleEv, .-_ZN10GuiElement8GetScaleEv
 617              		.section	.text._ZN10GuiElement9GetScaleXEv,"axG",@progbits,_ZN10GuiElement9GetScaleXEv,comdat
 618              		.align 2
 619              		.weak	_ZN10GuiElement9GetScaleXEv
 620              		.type	_ZN10GuiElement9GetScaleXEv, @function
 621              	_ZN10GuiElement9GetScaleXEv:
 622              	.LFB1409:
 623              		.loc 2 234 0
 624              		.cfi_startproc
 625              	.LVL52:
 626 0000 7C0802A6 		mflr 0
 627 0004 9421FFF0 		stwu 1,-16(1)
 628              	.LCFI7:
 629              		.cfi_def_cfa_offset 16
 630              		.cfi_register 65, 0
 631 0008 DBE10008 		stfd 31,8(1)
 632 000c 90010014 		stw 0,20(1)
 633              	.LBB2991:
 634              		.loc 2 238 0
 635 0010 81630060 		lwz 11,96(3)
 636              		.loc 2 236 0
 637 0014 C3E3003C 		lfs 31,60(3)
 638              		.cfi_offset 65, 4
 639              		.cfi_offset 63, -8
 640              		.loc 2 238 0
 641 0018 2F8B0000 		cmpwi 7,11,0
 642              		.loc 2 236 0
 643 001c C0030070 		lfs 0,112(3)
 644 0020 EFFF0032 		fmuls 31,31,0
 645              	.LVL53:
 646              		.loc 2 238 0
 647 0024 419E001C 		beq- 7,.L45
 648              		.loc 2 239 0
 649 0028 812B0000 		lwz 9,0(11)
 650 002c 7D635B78 		mr 3,11
 651              	.LVL54:
 652 0030 80090078 		lwz 0,120(9)
 653 0034 7C0903A6 		mtctr 0
 654 0038 4E800421 		bctrl
 655 003c EFFF0072 		fmuls 31,31,1
 656              	.LVL55:
 657              	.L45:
 658              	.LBE2991:
 659              		.loc 2 242 0
 660 0040 80010014 		lwz 0,20(1)
 661 0044 FC20F890 		fmr 1,31
 662 0048 CBE10008 		lfd 31,8(1)
 663              	.LVL56:
 664 004c 7C0803A6 		mtlr 0
 665 0050 38210010 		addi 1,1,16
 666              	.LCFI8:
 667              		.cfi_def_cfa_offset 0
 668              		.cfi_restore 63
 669 0054 4E800020 		blr
 670              		.cfi_endproc
 671              	.LFE1409:
 672              		.size	_ZN10GuiElement9GetScaleXEv, .-_ZN10GuiElement9GetScaleXEv
 673              		.section	.text._ZN10GuiElement9GetScaleYEv,"axG",@progbits,_ZN10GuiElement9GetScaleYEv,comdat
 674              		.align 2
 675              		.weak	_ZN10GuiElement9GetScaleYEv
 676              		.type	_ZN10GuiElement9GetScaleYEv, @function
 677              	_ZN10GuiElement9GetScaleYEv:
 678              	.LFB1410:
 679              		.loc 2 245 0
 680              		.cfi_startproc
 681              	.LVL57:
 682 0000 7C0802A6 		mflr 0
 683 0004 9421FFF0 		stwu 1,-16(1)
 684              	.LCFI9:
 685              		.cfi_def_cfa_offset 16
 686              		.cfi_register 65, 0
 687 0008 DBE10008 		stfd 31,8(1)
 688 000c 90010014 		stw 0,20(1)
 689              	.LBB2992:
 690              		.loc 2 249 0
 691 0010 81630060 		lwz 11,96(3)
 692              		.loc 2 247 0
 693 0014 C3E30040 		lfs 31,64(3)
 694              		.cfi_offset 65, 4
 695              		.cfi_offset 63, -8
 696              		.loc 2 249 0
 697 0018 2F8B0000 		cmpwi 7,11,0
 698              		.loc 2 247 0
 699 001c C0030070 		lfs 0,112(3)
 700 0020 EFFF0032 		fmuls 31,31,0
 701              	.LVL58:
 702              		.loc 2 249 0
 703 0024 419E001C 		beq- 7,.L47
 704              		.loc 2 250 0
 705 0028 812B0000 		lwz 9,0(11)
 706 002c 7D635B78 		mr 3,11
 707              	.LVL59:
 708 0030 8009007C 		lwz 0,124(9)
 709 0034 7C0903A6 		mtctr 0
 710 0038 4E800421 		bctrl
 711 003c EFFF0072 		fmuls 31,31,1
 712              	.LVL60:
 713              	.L47:
 714              	.LBE2992:
 715              		.loc 2 253 0
 716 0040 80010014 		lwz 0,20(1)
 717 0044 FC20F890 		fmr 1,31
 718 0048 CBE10008 		lfd 31,8(1)
 719              	.LVL61:
 720 004c 7C0803A6 		mtlr 0
 721 0050 38210010 		addi 1,1,16
 722              	.LCFI10:
 723              		.cfi_def_cfa_offset 0
 724              		.cfi_restore 63
 725 0054 4E800020 		blr
 726              		.cfi_endproc
 727              	.LFE1410:
 728              		.size	_ZN10GuiElement9GetScaleYEv, .-_ZN10GuiElement9GetScaleYEv
 729              		.section	.text._ZN10GuiElement6RumbleEv,"axG",@progbits,_ZN10GuiElement6RumbleEv,comdat
 730              		.align 2
 731              		.weak	_ZN10GuiElement6RumbleEv
 732              		.type	_ZN10GuiElement6RumbleEv, @function
 733              	_ZN10GuiElement6RumbleEv:
 734              	.LFB1411:
 735              		.loc 2 256 0
 736              		.cfi_startproc
 737              	.LVL62:
 738              		.loc 2 256 0
 739 0000 8863001C 		lbz 3,28(3)
 740              	.LVL63:
 741 0004 4E800020 		blr
 742              		.cfi_endproc
 743              	.LFE1411:
 744              		.size	_ZN10GuiElement6RumbleEv, .-_ZN10GuiElement6RumbleEv
 745              		.section	.text._ZN10GuiElement9SetRumbleEb,"axG",@progbits,_ZN10GuiElement9SetRumbleEb,comdat
 746              		.align 2
 747              		.weak	_ZN10GuiElement9SetRumbleEb
 748              		.type	_ZN10GuiElement9SetRumbleEb, @function
 749              	_ZN10GuiElement9SetRumbleEb:
 750              	.LFB1412:
 751              		.loc 2 259 0
 752              		.cfi_startproc
 753              	.LVL64:
 754              		.loc 2 259 0
 755 0000 9883001C 		stb 4,28(3)
 756 0004 4E800020 		blr
 757              		.cfi_endproc
 758              	.LFE1412:
 759              		.size	_ZN10GuiElement9SetRumbleEb, .-_ZN10GuiElement9SetRumbleEb
 760              		.section	.text._ZN10GuiElement13SetEffectGrowEv,"axG",@progbits,_ZN10GuiElement13SetEffectGrowEv,c
 761              		.align 2
 762              		.weak	_ZN10GuiElement13SetEffectGrowEv
 763              		.type	_ZN10GuiElement13SetEffectGrowEv, @function
 764              	_ZN10GuiElement13SetEffectGrowEv:
 765              	.LFB1413:
 766              		.loc 2 271 0
 767              		.cfi_startproc
 768              	.LVL65:
 769 0000 7C0802A6 		mflr 0
 770 0004 9421FFF8 		stwu 1,-8(1)
 771              	.LCFI11:
 772              		.cfi_def_cfa_offset 8
 773              		.cfi_register 65, 0
 774 0008 81230000 		lwz 9,0(3)
 775 000c 38800100 		li 4,256
 776 0010 38A00004 		li 5,4
 777 0014 38C0006E 		li 6,110
 778 0018 9001000C 		stw 0,12(1)
 779              		.loc 2 271 0
 780 001c 8009008C 		lwz 0,140(9)
 781              		.cfi_offset 65, 4
 782 0020 7C0903A6 		mtctr 0
 783 0024 4E800421 		bctrl
 784              	.LVL66:
 785 0028 8001000C 		lwz 0,12(1)
 786 002c 38210008 		addi 1,1,8
 787              	.LCFI12:
 788              		.cfi_def_cfa_offset 0
 789 0030 7C0803A6 		mtlr 0
 790 0034 4E800020 		blr
 791              		.cfi_endproc
 792              	.LFE1413:
 793              		.size	_ZN10GuiElement13SetEffectGrowEv, .-_ZN10GuiElement13SetEffectGrowEv
 794              		.section	.text._ZNK10GuiElement9GetEffectEv,"axG",@progbits,_ZNK10GuiElement9GetEffectEv,comdat
 795              		.align 2
 796              		.weak	_ZNK10GuiElement9GetEffectEv
 797              		.type	_ZNK10GuiElement9GetEffectEv, @function
 798              	_ZNK10GuiElement9GetEffectEv:
 799              	.LFB1414:
 800              		.loc 2 276 0
 801              		.cfi_startproc
 802              	.LVL67:
 803              		.loc 2 276 0
 804 0000 80630078 		lwz 3,120(3)
 805              	.LVL68:
 806 0004 4E800020 		blr
 807              		.cfi_endproc
 808              	.LFE1414:
 809              		.size	_ZNK10GuiElement9GetEffectEv, .-_ZNK10GuiElement9GetEffectEv
 810              		.section	.text._ZNK10GuiElement10IsAnimatedEv,"axG",@progbits,_ZNK10GuiElement10IsAnimatedEv,comda
 811              		.align 2
 812              		.weak	_ZNK10GuiElement10IsAnimatedEv
 813              		.type	_ZNK10GuiElement10IsAnimatedEv, @function
 814              	_ZNK10GuiElement10IsAnimatedEv:
 815              	.LFB1415:
 816              		.loc 2 278 0
 817              		.cfi_startproc
 818              	.LVL69:
 819 0000 7C0802A6 		mflr 0
 820 0004 9421FFF8 		stwu 1,-8(1)
 821              	.LCFI13:
 822              		.cfi_def_cfa_offset 8
 823              		.cfi_register 65, 0
 824 0008 9001000C 		stw 0,12(1)
 825              		.loc 2 278 0
 826 000c 81230000 		lwz 9,0(3)
 827 0010 80090098 		lwz 0,152(9)
 828              		.cfi_offset 65, 4
 829 0014 7C0903A6 		mtctr 0
 830 0018 4E800421 		bctrl
 831              	.LVL70:
 832 001c 7C60FE70 		srawi 0,3,31
 833 0020 7C630050 		subf 3,3,0
 834 0024 8001000C 		lwz 0,12(1)
 835 0028 54630FFE 		srwi 3,3,31
 836 002c 7C0803A6 		mtlr 0
 837 0030 38210008 		addi 1,1,8
 838              	.LCFI14:
 839              		.cfi_def_cfa_offset 0
 840 0034 4E800020 		blr
 841              		.cfi_endproc
 842              	.LFE1415:
 843              		.size	_ZNK10GuiElement10IsAnimatedEv, .-_ZNK10GuiElement10IsAnimatedEv
 844              		.section	.text._ZN10GuiElement8IsInsideEii,"axG",@progbits,_ZN10GuiElement8IsInsideEii,comdat
 845              		.align 2
 846              		.weak	_ZN10GuiElement8IsInsideEii
 847              		.type	_ZN10GuiElement8IsInsideEii, @function
 848              	_ZN10GuiElement8IsInsideEii:
 849              	.LFB1417:
 850              		.loc 2 285 0
 851              		.cfi_startproc
 852              	.LVL71:
 853 0000 7C0802A6 		mflr 0
 854 0004 9421FFE8 		stwu 1,-24(1)
 855              	.LCFI15:
 856              		.cfi_def_cfa_offset 24
 857              		.cfi_register 65, 0
 858 0008 93810008 		stw 28,8(1)
 859 000c 7CBC2B78 		mr 28,5
 860              		.cfi_offset 28, -16
 861 0010 9001001C 		stw 0,28(1)
 862 0014 93A1000C 		stw 29,12(1)
 863              		.loc 2 290 0
 864 0018 3BA00000 		li 29,0
 865              		.cfi_offset 29, -12
 866              		.cfi_offset 65, 4
 867              		.loc 2 287 0
 868 001c 81230000 		lwz 9,0(3)
 869              		.loc 2 285 0
 870 0020 93C10010 		stw 30,16(1)
 871 0024 7C9E2378 		mr 30,4
 872              		.cfi_offset 30, -8
 873              		.loc 2 287 0
 874 0028 80090010 		lwz 0,16(9)
 875              		.loc 2 285 0
 876 002c 93E10014 		stw 31,20(1)
 877              		.loc 2 285 0
 878 0030 7C7F1B78 		mr 31,3
 879              		.cfi_offset 31, -4
 880              		.loc 2 287 0
 881 0034 7C0903A6 		mtctr 0
 882 0038 4E800421 		bctrl
 883              	.LVL72:
 884              		.loc 2 290 0
 885 003c 7F83F000 		cmpw 7,3,30
 886 0040 419C0028 		blt- 7,.L58
 887              	.L54:
 888              		.loc 2 291 0 discriminator 6
 889 0044 8001001C 		lwz 0,28(1)
 890 0048 7FA3EB78 		mr 3,29
 891 004c 83810008 		lwz 28,8(1)
 892              	.LVL73:
 893 0050 7C0803A6 		mtlr 0
 894 0054 83A1000C 		lwz 29,12(1)
 895 0058 83C10010 		lwz 30,16(1)
 896              	.LVL74:
 897 005c 83E10014 		lwz 31,20(1)
 898              	.LVL75:
 899 0060 38210018 		addi 1,1,24
 900              		.cfi_remember_state
 901              	.LCFI16:
 902              		.cfi_def_cfa_offset 0
 903              		.cfi_restore 31
 904              		.cfi_restore 30
 905              		.cfi_restore 29
 906              		.cfi_restore 28
 907 0064 4E800020 		blr
 908              	.LVL76:
 909              	.L58:
 910              	.LCFI17:
 911              		.cfi_restore_state
 912              		.loc 2 288 0 discriminator 1
 913 0068 813F0000 		lwz 9,0(31)
 914 006c 7FE3FB78 		mr 3,31
 915 0070 80090010 		lwz 0,16(9)
 916 0074 7C0903A6 		mtctr 0
 917 0078 4E800421 		bctrl
 918              		.loc 2 290 0 discriminator 1
 919 007c 801F0024 		lwz 0,36(31)
 920 0080 7C030214 		add 0,3,0
 921 0084 7F9E0000 		cmpw 7,30,0
 922 0088 409CFFBC 		bge+ 7,.L54
 923              		.loc 2 289 0 discriminator 3
 924 008c 813F0000 		lwz 9,0(31)
 925 0090 7FE3FB78 		mr 3,31
 926 0094 80090014 		lwz 0,20(9)
 927 0098 7C0903A6 		mtctr 0
 928 009c 4E800421 		bctrl
 929              		.loc 2 290 0 discriminator 3
 930 00a0 7F83E000 		cmpw 7,3,28
 931 00a4 409CFFA0 		bge+ 7,.L54
 932              		.loc 2 290 0 is_stmt 0 discriminator 4
 933 00a8 813F0000 		lwz 9,0(31)
 934 00ac 7FE3FB78 		mr 3,31
 935 00b0 80090014 		lwz 0,20(9)
 936 00b4 7C0903A6 		mtctr 0
 937 00b8 4E800421 		bctrl
 938 00bc 801F0028 		lwz 0,40(31)
 939 00c0 7C030214 		add 0,3,0
 940              		.loc 2 285 0 is_stmt 1 discriminator 4
 941 00c4 7F9C0000 		cmpw 7,28,0
 942 00c8 7FA00026 		mfcr 29
 943 00cc 57BDEFFE 		rlwinm 29,29,29,1
 944 00d0 4BFFFF74 		b .L54
 945              		.cfi_endproc
 946              	.LFE1417:
 947              		.size	_ZN10GuiElement8IsInsideEii, .-_ZN10GuiElement8IsInsideEii
 948              		.section	.text._ZN10GuiElement11SetPositionEii,"axG",@progbits,_ZN10GuiElement11SetPositionEii,com
 949              		.align 2
 950              		.weak	_ZN10GuiElement11SetPositionEii
 951              		.type	_ZN10GuiElement11SetPositionEii, @function
 952              	_ZN10GuiElement11SetPositionEii:
 953              	.LFB1418:
 954              		.loc 2 295 0
 955              		.cfi_startproc
 956              	.LVL77:
 957              		.loc 2 297 0
 958 0000 9083002C 		stw 4,44(3)
 959              		.loc 2 299 0
 960              		.loc 2 298 0
 961 0004 90A30030 		stw 5,48(3)
 962              		.loc 2 299 0
 963 0008 4E800020 		blr
 964              		.cfi_endproc
 965              	.LFE1418:
 966              		.size	_ZN10GuiElement11SetPositionEii, .-_ZN10GuiElement11SetPositionEii
 967              		.section	.text._ZN10GuiElement11SetPositionEiii,"axG",@progbits,_ZN10GuiElement11SetPositionEiii,c
 968              		.align 2
 969              		.weak	_ZN10GuiElement11SetPositionEiii
 970              		.type	_ZN10GuiElement11SetPositionEiii, @function
 971              	_ZN10GuiElement11SetPositionEiii:
 972              	.LFB1419:
 973              		.loc 2 304 0
 974              		.cfi_startproc
 975              	.LVL78:
 976              		.loc 2 306 0
 977 0000 9083002C 		stw 4,44(3)
 978              		.loc 2 309 0
 979              		.loc 2 307 0
 980 0004 90A30030 		stw 5,48(3)
 981              		.loc 2 308 0
 982 0008 90C30034 		stw 6,52(3)
 983              		.loc 2 309 0
 984 000c 4E800020 		blr
 985              		.cfi_endproc
 986              	.LFE1419:
 987              		.size	_ZN10GuiElement11SetPositionEiii, .-_ZN10GuiElement11SetPositionEiii
 988              		.section	.text._ZN10GuiElement12SetAlignmentEi,"axG",@progbits,_ZN10GuiElement12SetAlignmentEi,com
 989              		.align 2
 990              		.weak	_ZN10GuiElement12SetAlignmentEi
 991              		.type	_ZN10GuiElement12SetAlignmentEi, @function
 992              	_ZN10GuiElement12SetAlignmentEi:
 993              	.LFB1421:
 994              		.loc 2 316 0
 995              		.cfi_startproc
 996              	.LVL79:
 997              		.loc 2 316 0
 998 0000 90830044 		stw 4,68(3)
 999 0004 4E800020 		blr
 1000              		.cfi_endproc
 1001              	.LFE1421:
 1002              		.size	_ZN10GuiElement12SetAlignmentEi, .-_ZN10GuiElement12SetAlignmentEi
 1003              		.section	.text._ZNK10GuiElement12GetAlignmentEv,"axG",@progbits,_ZNK10GuiElement12GetAlignmentEv,c
 1004              		.align 2
 1005              		.weak	_ZNK10GuiElement12GetAlignmentEv
 1006              		.type	_ZNK10GuiElement12GetAlignmentEv, @function
 1007              	_ZNK10GuiElement12GetAlignmentEv:
 1008              	.LFB1422:
 1009              		.loc 2 318 0
 1010              		.cfi_startproc
 1011              	.LVL80:
 1012              		.loc 2 318 0
 1013 0000 80630044 		lwz 3,68(3)
 1014              	.LVL81:
 1015 0004 4E800020 		blr
 1016              		.cfi_endproc
 1017              	.LFE1422:
 1018              		.size	_ZNK10GuiElement12GetAlignmentEv, .-_ZNK10GuiElement12GetAlignmentEv
 1019              		.section	".text"
 1020              		.align 2
 1021              		.globl _ZN11Application17OnHomeMenuClosingEP8GuiFrame
 1022              		.type	_ZN11Application17OnHomeMenuClosingEP8GuiFrame, @function
 1023              	_ZN11Application17OnHomeMenuClosingEP8GuiFrame:
 1024              	.LFB1755:
 1025              		.file 3 "d:/Projects/SaveGameManager/savegame-manager-gx/trunk/source/Controls/Application.cpp"
 1026              		.loc 3 237 0
 1027              		.cfi_startproc
 1028              	.LVL82:
 1029 0000 7C0802A6 		mflr 0
 1030 0004 9421FFF8 		stwu 1,-8(1)
 1031              	.LCFI18:
 1032              		.cfi_def_cfa_offset 8
 1033              		.cfi_register 65, 0
 1034              		.loc 3 238 0
 1035 0008 38800001 		li 4,1
 1036              	.LVL83:
 1037              		.loc 3 237 0
 1038 000c 9001000C 		stw 0,12(1)
 1039              		.loc 3 238 0
 1040 0010 806300E8 		lwz 3,232(3)
 1041              	.LVL84:
 1042 0014 81230000 		lwz 9,0(3)
 1043 0018 80090048 		lwz 0,72(9)
 1044              		.cfi_offset 65, 4
 1045 001c 7C0903A6 		mtctr 0
 1046 0020 4E800421 		bctrl
 1047              		.loc 3 239 0
 1048 0024 8001000C 		lwz 0,12(1)
 1049 0028 38210008 		addi 1,1,8
 1050              	.LCFI19:
 1051              		.cfi_def_cfa_offset 0
 1052 002c 7C0803A6 		mtlr 0
 1053 0030 4E800020 		blr
 1054              		.cfi_endproc
 1055              	.LFE1755:
 1056              		.size	_ZN11Application17OnHomeMenuClosingEP8GuiFrame, .-_ZN11Application17OnHomeMenuClosingEP8GuiF
 1057              		.section	.text._ZN7sigslot17_connection_base3IP9GuiButtoniRK6_POINTNS_15single_threadedEED2Ev,"axG
 1058              		.align 2
 1059              		.weak	_ZN7sigslot17_connection_base3IP9GuiButtoniRK6_POINTNS_15single_threadedEED2Ev
 1060              		.type	_ZN7sigslot17_connection_base3IP9GuiButtoniRK6_POINTNS_15single_threadedEED2Ev, @function
 1061              	_ZN7sigslot17_connection_base3IP9GuiButtoniRK6_POINTNS_15single_threadedEED2Ev:
 1062              	.LFB2088:
 1063              		.loc 1 387 0
 1064              		.cfi_startproc
 1065              	.LVL85:
 1066              	.LBB2993:
 1067              		.loc 1 387 0
 1068 0000 3D200000 		lis 9,_ZTVN7sigslot17_connection_base3IP9GuiButtoniRK6_POINTNS_15single_threadedEEE+8@ha
 1069              	.LBE2993:
 1070              	.LBB2994:
 1071 0004 38090008 		la 0,_ZTVN7sigslot17_connection_base3IP9GuiButtoniRK6_POINTNS_15single_threadedEEE+8@l(9)
 1072 0008 90030000 		stw 0,0(3)
 1073              	.LBE2994:
 1074 000c 4E800020 		blr
 1075              		.cfi_endproc
 1076              	.LFE2088:
 1077              		.size	_ZN7sigslot17_connection_base3IP9GuiButtoniRK6_POINTNS_15single_threadedEED2Ev, .-_ZN7sigslo
 1078              		.section	.text._ZN7sigslot17_connection_base1IP8GuiFrameNS_15single_threadedEED2Ev,"axG",@progbits
 1079              		.align 2
 1080              		.weak	_ZN7sigslot17_connection_base1IP8GuiFrameNS_15single_threadedEED2Ev
 1081              		.type	_ZN7sigslot17_connection_base1IP8GuiFrameNS_15single_threadedEED2Ev, @function
 1082              	_ZN7sigslot17_connection_base1IP8GuiFrameNS_15single_threadedEED2Ev:
 1083              	.LFB2095:
 1084              		.loc 1 365 0
 1085              		.cfi_startproc
 1086              	.LVL86:
 1087              	.LBB2995:
 1088              		.loc 1 365 0
 1089 0000 3D200000 		lis 9,_ZTVN7sigslot17_connection_base1IP8GuiFrameNS_15single_threadedEEE+8@ha
 1090              	.LBE2995:
 1091              	.LBB2996:
 1092 0004 38090008 		la 0,_ZTVN7sigslot17_connection_base1IP8GuiFrameNS_15single_threadedEEE+8@l(9)
 1093 0008 90030000 		stw 0,0(3)
 1094              	.LBE2996:
 1095 000c 4E800020 		blr
 1096              		.cfi_endproc
 1097              	.LFE2095:
 1098              		.size	_ZN7sigslot17_connection_base1IP8GuiFrameNS_15single_threadedEED2Ev, .-_ZN7sigslot17_connect
 1099              		.section	.text._ZN7sigslot12_connection1I11ApplicationP8GuiFrameNS_15single_threadedEED2Ev,"axG",@
 1100              		.align 2
 1101              		.weak	_ZN7sigslot12_connection1I11ApplicationP8GuiFrameNS_15single_threadedEED2Ev
 1102              		.type	_ZN7sigslot12_connection1I11ApplicationP8GuiFrameNS_15single_threadedEED2Ev, @function
 1103              	_ZN7sigslot12_connection1I11ApplicationP8GuiFrameNS_15single_threadedEED2Ev:
 1104              	.LFB2476:
 1105              		.loc 1 1688 0
 1106              		.cfi_startproc
 1107              	.LVL87:
 1108              	.LBB2997:
 1109              	.LBB2998:
 1110              	.LBB2999:
 1111              	.LBB3000:
 1112              		.loc 1 365 0
 1113 0000 3D200000 		lis 9,_ZTVN7sigslot17_connection_base1IP8GuiFrameNS_15single_threadedEEE+8@ha
 1114              	.LBE3000:
 1115              	.LBE2999:
 1116              	.LBE2998:
 1117              	.LBE2997:
 1118              		.loc 1 1691 0
 1119              	.LBB3004:
 1120              	.LBB3003:
 1121              	.LBB3002:
 1122              	.LBB3001:
 1123              		.loc 1 365 0
 1124 0004 38090008 		la 0,_ZTVN7sigslot17_connection_base1IP8GuiFrameNS_15single_threadedEEE+8@l(9)
 1125 0008 90030000 		stw 0,0(3)
 1126              	.LBE3001:
 1127              	.LBE3002:
 1128              	.LBE3003:
 1129              	.LBE3004:
 1130              		.loc 1 1691 0
 1131 000c 4E800020 		blr
 1132              		.cfi_endproc
 1133              	.LFE2476:
 1134              		.size	_ZN7sigslot12_connection1I11ApplicationP8GuiFrameNS_15single_threadedEED2Ev, .-_ZN7sigslot12
 1135              		.section	.text._ZNK7sigslot12_connection1I11ApplicationP8GuiFrameNS_15single_threadedEE7getdestEv,
 1136              		.align 2
 1137              		.weak	_ZNK7sigslot12_connection1I11ApplicationP8GuiFrameNS_15single_threadedEE7getdestEv
 1138              		.type	_ZNK7sigslot12_connection1I11ApplicationP8GuiFrameNS_15single_threadedEE7getdestEv, @functio
 1139              	_ZNK7sigslot12_connection1I11ApplicationP8GuiFrameNS_15single_threadedEE7getdestEv:
 1140              	.LFB2479:
 1141              		.loc 1 1708 0
 1142              		.cfi_startproc
 1143              	.LVL88:
 1144              		.loc 1 1710 0
 1145 0000 81230004 		lwz 9,4(3)
 1146 0004 38600000 		li 3,0
 1147              	.LVL89:
 1148 0008 2F890000 		cmpwi 7,9,0
 1149 000c 4D9E0020 		beqlr- 7
 1150              		.loc 1 1710 0 is_stmt 0 discriminator 1
 1151 0010 386900B0 		addi 3,9,176
 1152              		.loc 1 1711 0 is_stmt 1 discriminator 1
 1153 0014 4E800020 		blr
 1154              		.cfi_endproc
 1155              	.LFE2479:
 1156              		.size	_ZNK7sigslot12_connection1I11ApplicationP8GuiFrameNS_15single_threadedEE7getdestEv, .-_ZNK7s
 1157              		.section	.text._ZN7sigslot12_connection1I11ApplicationP8GuiFrameNS_15single_threadedEE4emitES3_,"a
 1158              		.align 2
 1159              		.weak	_ZN7sigslot12_connection1I11ApplicationP8GuiFrameNS_15single_threadedEE4emitES3_
 1160              		.type	_ZN7sigslot12_connection1I11ApplicationP8GuiFrameNS_15single_threadedEE4emitES3_, @function
 1161              	_ZN7sigslot12_connection1I11ApplicationP8GuiFrameNS_15single_threadedEE4emitES3_:
 1162              	.LFB2480:
 1163              		.loc 1 1703 0
 1164              		.cfi_startproc
 1165              	.LVL90:
 1166 0000 7C0802A6 		mflr 0
 1167 0004 9421FFF8 		stwu 1,-8(1)
 1168              	.LCFI20:
 1169              		.cfi_def_cfa_offset 8
 1170              		.cfi_register 65, 0
 1171 0008 9001000C 		stw 0,12(1)
 1172              		.loc 1 1705 0
 1173 000c 80030008 		lwz 0,8(3)
 1174              		.cfi_offset 65, 4
 1175 0010 81630004 		lwz 11,4(3)
 1176 0014 70090001 		andi. 9,0,1
 1177 0018 8123000C 		lwz 9,12(3)
 1178 001c 40820020 		bne- 0,.L75
 1179 0020 7C0903A6 		mtctr 0
 1180 0024 7C6B4A14 		add 3,11,9
 1181              	.LVL91:
 1182 0028 4E800421 		bctrl
 1183              	.LVL92:
 1184              		.loc 1 1706 0
 1185 002c 8001000C 		lwz 0,12(1)
 1186 0030 38210008 		addi 1,1,8
 1187              		.cfi_remember_state
 1188              	.LCFI21:
 1189              		.cfi_def_cfa_offset 0
 1190 0034 7C0803A6 		mtlr 0
 1191 0038 4E800020 		blr
 1192              	.LVL93:
 1193              	.L75:
 1194              	.LCFI22:
 1195              		.cfi_restore_state
 1196              		.loc 1 1705 0 discriminator 1
 1197 003c 7D4B482E 		lwzx 10,11,9
 1198 0040 7C6B4A14 		add 3,11,9
 1199              	.LVL94:
 1200 0044 7D2A0214 		add 9,10,0
 1201 0048 8009FFFF 		lwz 0,-1(9)
 1202 004c 7C0903A6 		mtctr 0
 1203 0050 4E800421 		bctrl
 1204              	.LVL95:
 1205              		.loc 1 1706 0 discriminator 1
 1206 0054 8001000C 		lwz 0,12(1)
 1207 0058 38210008 		addi 1,1,8
 1208              	.LCFI23:
 1209              		.cfi_def_cfa_offset 0
 1210 005c 7C0803A6 		mtlr 0
 1211 0060 4E800020 		blr
 1212              		.cfi_endproc
 1213              	.LFE2480:
 1214              		.size	_ZN7sigslot12_connection1I11ApplicationP8GuiFrameNS_15single_threadedEE4emitES3_, .-_ZN7sigs
 1215              		.section	.text._ZN7sigslot12_connection3I11ApplicationP9GuiButtoniRK6_POINTNS_15single_threadedEED
 1216              		.align 2
 1217              		.weak	_ZN7sigslot12_connection3I11ApplicationP9GuiButtoniRK6_POINTNS_15single_threadedEED2Ev
 1218              		.type	_ZN7sigslot12_connection3I11ApplicationP9GuiButtoniRK6_POINTNS_15single_threadedEED2Ev, @fun
 1219              	_ZN7sigslot12_connection3I11ApplicationP9GuiButtoniRK6_POINTNS_15single_threadedEED2Ev:
 1220              	.LFB2490:
 1221              		.loc 1 1783 0
 1222              		.cfi_startproc
 1223              	.LVL96:
 1224              	.LBB3005:
 1225              	.LBB3006:
 1226              	.LBB3007:
 1227              	.LBB3008:
 1228              		.loc 1 387 0
 1229 0000 3D200000 		lis 9,_ZTVN7sigslot17_connection_base3IP9GuiButtoniRK6_POINTNS_15single_threadedEEE+8@ha
 1230              	.LBE3008:
 1231              	.LBE3007:
 1232              	.LBE3006:
 1233              	.LBE3005:
 1234              		.loc 1 1786 0
 1235              	.LBB3012:
 1236              	.LBB3011:
 1237              	.LBB3010:
 1238              	.LBB3009:
 1239              		.loc 1 387 0
 1240 0004 38090008 		la 0,_ZTVN7sigslot17_connection_base3IP9GuiButtoniRK6_POINTNS_15single_threadedEEE+8@l(9)
 1241 0008 90030000 		stw 0,0(3)
 1242              	.LBE3009:
 1243              	.LBE3010:
 1244              	.LBE3011:
 1245              	.LBE3012:
 1246              		.loc 1 1786 0
 1247 000c 4E800020 		blr
 1248              		.cfi_endproc
 1249              	.LFE2490:
 1250              		.size	_ZN7sigslot12_connection3I11ApplicationP9GuiButtoniRK6_POINTNS_15single_threadedEED2Ev, .-_Z
 1251              		.section	.text._ZNK7sigslot12_connection3I11ApplicationP9GuiButtoniRK6_POINTNS_15single_threadedEE
 1252              		.align 2
 1253              		.weak	_ZNK7sigslot12_connection3I11ApplicationP9GuiButtoniRK6_POINTNS_15single_threadedEE7getdestE
 1254              		.type	_ZNK7sigslot12_connection3I11ApplicationP9GuiButtoniRK6_POINTNS_15single_threadedEE7getdestE
 1255              	_ZNK7sigslot12_connection3I11ApplicationP9GuiButtoniRK6_POINTNS_15single_threadedEE7getdestEv:
 1256              	.LFB2493:
 1257              		.loc 1 1804 0
 1258              		.cfi_startproc
 1259              	.LVL97:
 1260              		.loc 1 1806 0
 1261 0000 81230004 		lwz 9,4(3)
 1262 0004 38600000 		li 3,0
 1263              	.LVL98:
 1264 0008 2F890000 		cmpwi 7,9,0
 1265 000c 4D9E0020 		beqlr- 7
 1266              		.loc 1 1806 0 is_stmt 0 discriminator 1
 1267 0010 386900B0 		addi 3,9,176
 1268              		.loc 1 1807 0 is_stmt 1 discriminator 1
 1269 0014 4E800020 		blr
 1270              		.cfi_endproc
 1271              	.LFE2493:
 1272              		.size	_ZNK7sigslot12_connection3I11ApplicationP9GuiButtoniRK6_POINTNS_15single_threadedEE7getdestE
 1273              		.section	.text._ZN7sigslot12_connection3I11ApplicationP9GuiButtoniRK6_POINTNS_15single_threadedEE4
 1274              		.align 2
 1275              		.weak	_ZN7sigslot12_connection3I11ApplicationP9GuiButtoniRK6_POINTNS_15single_threadedEE4emitES3_i
 1276              		.type	_ZN7sigslot12_connection3I11ApplicationP9GuiButtoniRK6_POINTNS_15single_threadedEE4emitES3_i
 1277              	_ZN7sigslot12_connection3I11ApplicationP9GuiButtoniRK6_POINTNS_15single_threadedEE4emitES3_iS6_:
 1278              	.LFB2494:
 1279              		.loc 1 1799 0
 1280              		.cfi_startproc
 1281              	.LVL99:
 1282 0000 7C0802A6 		mflr 0
 1283 0004 9421FFF8 		stwu 1,-8(1)
 1284              	.LCFI24:
 1285              		.cfi_def_cfa_offset 8
 1286              		.cfi_register 65, 0
 1287 0008 9001000C 		stw 0,12(1)
 1288              		.loc 1 1801 0
 1289 000c 80030008 		lwz 0,8(3)
 1290              		.cfi_offset 65, 4
 1291 0010 81630004 		lwz 11,4(3)
 1292 0014 70090001 		andi. 9,0,1
 1293 0018 8123000C 		lwz 9,12(3)
 1294 001c 40820020 		bne- 0,.L84
 1295 0020 7C0903A6 		mtctr 0
 1296 0024 7C6B4A14 		add 3,11,9
 1297              	.LVL100:
 1298 0028 4E800421 		bctrl
 1299              	.LVL101:
 1300              		.loc 1 1802 0
 1301 002c 8001000C 		lwz 0,12(1)
 1302 0030 38210008 		addi 1,1,8
 1303              		.cfi_remember_state
 1304              	.LCFI25:
 1305              		.cfi_def_cfa_offset 0
 1306 0034 7C0803A6 		mtlr 0
 1307 0038 4E800020 		blr
 1308              	.LVL102:
 1309              	.L84:
 1310              	.LCFI26:
 1311              		.cfi_restore_state
 1312              		.loc 1 1801 0 discriminator 1
 1313 003c 7D4B482E 		lwzx 10,11,9
 1314 0040 7C6B4A14 		add 3,11,9
 1315              	.LVL103:
 1316 0044 7D2A0214 		add 9,10,0
 1317 0048 8009FFFF 		lwz 0,-1(9)
 1318 004c 7C0903A6 		mtctr 0
 1319 0050 4E800421 		bctrl
 1320              	.LVL104:
 1321              		.loc 1 1802 0 discriminator 1
 1322 0054 8001000C 		lwz 0,12(1)
 1323 0058 38210008 		addi 1,1,8
 1324              	.LCFI27:
 1325              		.cfi_def_cfa_offset 0
 1326 005c 7C0803A6 		mtlr 0
 1327 0060 4E800020 		blr
 1328              		.cfi_endproc
 1329              	.LFE2494:
 1330              		.size	_ZN7sigslot12_connection3I11ApplicationP9GuiButtoniRK6_POINTNS_15single_threadedEE4emitES3_i
 1331              		.section	.text._ZN7sigslot12_connection3I11ApplicationP9GuiButtoniRK6_POINTNS_15single_threadedEE9
 1332              		.align 2
 1333              		.weak	_ZN7sigslot12_connection3I11ApplicationP9GuiButtoniRK6_POINTNS_15single_threadedEE9duplicate
 1334              		.type	_ZN7sigslot12_connection3I11ApplicationP9GuiButtoniRK6_POINTNS_15single_threadedEE9duplicate
 1335              	_ZN7sigslot12_connection3I11ApplicationP9GuiButtoniRK6_POINTNS_15single_threadedEE9duplicateEPNS_9h
 1336              	.LFB2502:
 1337              		.loc 1 1794 0
 1338              		.cfi_startproc
 1339              	.LVL105:
 1340 0000 9421FFF0 		stwu 1,-16(1)
 1341              	.LCFI28:
 1342              		.cfi_def_cfa_offset 16
 1343 0004 7C0802A6 		mflr 0
 1344 0008 93C10008 		stw 30,8(1)
 1345 000c 7C9E2378 		mr 30,4
 1346              		.cfi_offset 30, -8
 1347              		.cfi_register 65, 0
 1348 0010 93E1000C 		stw 31,12(1)
 1349 0014 7C7F1B78 		mr 31,3
 1350              		.cfi_offset 31, -4
 1351              		.loc 1 1796 0
 1352 0018 38600010 		li 3,16
 1353              	.LVL106:
 1354              		.loc 1 1794 0
 1355 001c 90010014 		stw 0,20(1)
 1356              		.loc 1 1796 0
 1357              		.cfi_offset 65, 4
 1358 0020 48000001 		bl _Znwj
 1359              	.LVL107:
 1360 0024 2F9E0000 		cmpwi 7,30,0
 1361 0028 38000000 		li 0,0
 1362 002c 419E0008 		beq- 7,.L87
 1363              		.loc 1 1796 0 is_stmt 0 discriminator 1
 1364 0030 381EFF50 		addi 0,30,-176
 1365              	.L87:
 1366              	.LVL108:
 1367              		.loc 1 1796 0 discriminator 3
 1368 0034 817F0008 		lwz 11,8(31)
 1369              	.LVL109:
 1370              	.LBB3013:
 1371              	.LBB3014:
 1372              		.loc 1 1778 0 is_stmt 1 discriminator 3
 1373 0038 3D400000 		lis 10,_ZTVN7sigslot12_connection3I11ApplicationP9GuiButtoniRK6_POINTNS_15single_threadedEEE+8@ha
 1374              	.LBE3014:
 1375              	.LBE3013:
 1376              		.loc 1 1796 0 discriminator 3
 1377 003c 813F000C 		lwz 9,12(31)
 1378              	.LVL110:
 1379              	.LBB3017:
 1380              	.LBB3015:
 1381              		.loc 1 1778 0 discriminator 3
 1382 0040 394A0008 		la 10,_ZTVN7sigslot12_connection3I11ApplicationP9GuiButtoniRK6_POINTNS_15single_threadedEEE+8@l(10
 1383              		.loc 1 1780 0 discriminator 3
 1384 0044 91630008 		stw 11,8(3)
 1385 0048 9123000C 		stw 9,12(3)
 1386              		.loc 1 1779 0 discriminator 3
 1387 004c 90030004 		stw 0,4(3)
 1388              	.LBE3015:
 1389              	.LBE3017:
 1390              		.loc 1 1797 0 discriminator 3
 1391 0050 80010014 		lwz 0,20(1)
 1392              	.LVL111:
 1393 0054 83C10008 		lwz 30,8(1)
 1394              	.LVL112:
 1395 0058 7C0803A6 		mtlr 0
 1396 005c 83E1000C 		lwz 31,12(1)
 1397              	.LVL113:
 1398              	.LBB3018:
 1399              	.LBB3016:
 1400              		.loc 1 1778 0 discriminator 3
 1401 0060 91430000 		stw 10,0(3)
 1402              	.LBE3016:
 1403              	.LBE3018:
 1404              		.loc 1 1797 0 discriminator 3
 1405 0064 38210010 		addi 1,1,16
 1406              	.LCFI29:
 1407              		.cfi_def_cfa_offset 0
 1408              		.cfi_restore 31
 1409              		.cfi_restore 30
 1410 0068 4E800020 		blr
 1411              		.cfi_endproc
 1412              	.LFE2502:
 1413              		.size	_ZN7sigslot12_connection3I11ApplicationP9GuiButtoniRK6_POINTNS_15single_threadedEE9duplicate
 1414              		.section	.text._ZN7sigslot12_connection1I11ApplicationP8GuiFrameNS_15single_threadedEE9duplicateEP
 1415              		.align 2
 1416              		.weak	_ZN7sigslot12_connection1I11ApplicationP8GuiFrameNS_15single_threadedEE9duplicateEPNS_9has_s
 1417              		.type	_ZN7sigslot12_connection1I11ApplicationP8GuiFrameNS_15single_threadedEE9duplicateEPNS_9has_s
 1418              	_ZN7sigslot12_connection1I11ApplicationP8GuiFrameNS_15single_threadedEE9duplicateEPNS_9has_slotsIS4
 1419              	.LFB2488:
 1420              		.loc 1 1698 0
 1421              		.cfi_startproc
 1422              	.LVL114:
 1423 0000 9421FFF0 		stwu 1,-16(1)
 1424              	.LCFI30:
 1425              		.cfi_def_cfa_offset 16
 1426 0004 7C0802A6 		mflr 0
 1427 0008 93C10008 		stw 30,8(1)
 1428 000c 7C9E2378 		mr 30,4
 1429              		.cfi_offset 30, -8
 1430              		.cfi_register 65, 0
 1431 0010 93E1000C 		stw 31,12(1)
 1432 0014 7C7F1B78 		mr 31,3
 1433              		.cfi_offset 31, -4
 1434              		.loc 1 1700 0
 1435 0018 38600010 		li 3,16
 1436              	.LVL115:
 1437              		.loc 1 1698 0
 1438 001c 90010014 		stw 0,20(1)
 1439              		.loc 1 1700 0
 1440              		.cfi_offset 65, 4
 1441 0020 48000001 		bl _Znwj
 1442              	.LVL116:
 1443 0024 2F9E0000 		cmpwi 7,30,0
 1444 0028 38000000 		li 0,0
 1445 002c 419E0008 		beq- 7,.L90
 1446              		.loc 1 1700 0 is_stmt 0 discriminator 1
 1447 0030 381EFF50 		addi 0,30,-176
 1448              	.L90:
 1449              	.LVL117:
 1450              		.loc 1 1700 0 discriminator 3
 1451 0034 817F0008 		lwz 11,8(31)
 1452              	.LVL118:
 1453              	.LBB3019:
 1454              	.LBB3020:
 1455              		.loc 1 1683 0 is_stmt 1 discriminator 3
 1456 0038 3D400000 		lis 10,_ZTVN7sigslot12_connection1I11ApplicationP8GuiFrameNS_15single_threadedEEE+8@ha
 1457              	.LBE3020:
 1458              	.LBE3019:
 1459              		.loc 1 1700 0 discriminator 3
 1460 003c 813F000C 		lwz 9,12(31)
 1461              	.LVL119:
 1462              	.LBB3023:
 1463              	.LBB3021:
 1464              		.loc 1 1683 0 discriminator 3
 1465 0040 394A0008 		la 10,_ZTVN7sigslot12_connection1I11ApplicationP8GuiFrameNS_15single_threadedEEE+8@l(10)
 1466              		.loc 1 1685 0 discriminator 3
 1467 0044 91630008 		stw 11,8(3)
 1468 0048 9123000C 		stw 9,12(3)
 1469              		.loc 1 1684 0 discriminator 3
 1470 004c 90030004 		stw 0,4(3)
 1471              	.LBE3021:
 1472              	.LBE3023:
 1473              		.loc 1 1701 0 discriminator 3
 1474 0050 80010014 		lwz 0,20(1)
 1475              	.LVL120:
 1476 0054 83C10008 		lwz 30,8(1)
 1477              	.LVL121:
 1478 0058 7C0803A6 		mtlr 0
 1479 005c 83E1000C 		lwz 31,12(1)
 1480              	.LVL122:
 1481              	.LBB3024:
 1482              	.LBB3022:
 1483              		.loc 1 1683 0 discriminator 3
 1484 0060 91430000 		stw 10,0(3)
 1485              	.LBE3022:
 1486              	.LBE3024:
 1487              		.loc 1 1701 0 discriminator 3
 1488 0064 38210010 		addi 1,1,16
 1489              	.LCFI31:
 1490              		.cfi_def_cfa_offset 0
 1491              		.cfi_restore 31
 1492              		.cfi_restore 30
 1493 0068 4E800020 		blr
 1494              		.cfi_endproc
 1495              	.LFE2488:
 1496              		.size	_ZN7sigslot12_connection1I11ApplicationP8GuiFrameNS_15single_threadedEE9duplicateEPNS_9has_s
 1497              		.section	.text._ZN7sigslot12_connection1I11ApplicationP8GuiFrameNS_15single_threadedEE5cloneEv,"ax
 1498              		.align 2
 1499              		.weak	_ZN7sigslot12_connection1I11ApplicationP8GuiFrameNS_15single_threadedEE5cloneEv
 1500              		.type	_ZN7sigslot12_connection1I11ApplicationP8GuiFrameNS_15single_threadedEE5cloneEv, @function
 1501              	_ZN7sigslot12_connection1I11ApplicationP8GuiFrameNS_15single_threadedEE5cloneEv:
 1502              	.LFB2481:
 1503              		.loc 1 1693 0
 1504              		.cfi_startproc
 1505              	.LVL123:
 1506 0000 9421FFF0 		stwu 1,-16(1)
 1507              	.LCFI32:
 1508              		.cfi_def_cfa_offset 16
 1509 0004 7C0802A6 		mflr 0
 1510 0008 93E1000C 		stw 31,12(1)
 1511 000c 7C7F1B78 		mr 31,3
 1512              		.cfi_offset 31, -4
 1513              		.cfi_register 65, 0
 1514              		.loc 1 1695 0
 1515 0010 38600010 		li 3,16
 1516              	.LVL124:
 1517              		.loc 1 1693 0
 1518 0014 90010014 		stw 0,20(1)
 1519              		.loc 1 1695 0
 1520              		.cfi_offset 65, 4
 1521 0018 48000001 		bl _Znwj
 1522              		.loc 3 272 0
 1523 001c 801F0004 		lwz 0,4(31)
 1524              	.LVL125:
 1525              	.LBB3025:
 1526              	.LBB3026:
 1527              		.loc 1 1673 0
 1528 0020 3D600000 		lis 11,_ZTVN7sigslot12_connection1I11ApplicationP8GuiFrameNS_15single_threadedEEE+8@ha
 1529 0024 396B0008 		la 11,_ZTVN7sigslot12_connection1I11ApplicationP8GuiFrameNS_15single_threadedEEE+8@l(11)
 1530 0028 90030004 		stw 0,4(3)
 1531 002c 91630000 		stw 11,0(3)
 1532 0030 815F0008 		lwz 10,8(31)
 1533 0034 817F000C 		lwz 11,12(31)
 1534 0038 91430008 		stw 10,8(3)
 1535 003c 9163000C 		stw 11,12(3)
 1536              	.LBE3026:
 1537              	.LBE3025:
 1538              		.loc 1 1696 0
 1539 0040 80010014 		lwz 0,20(1)
 1540 0044 83E1000C 		lwz 31,12(1)
 1541              	.LVL126:
 1542 0048 7C0803A6 		mtlr 0
 1543 004c 38210010 		addi 1,1,16
 1544              	.LCFI33:
 1545              		.cfi_def_cfa_offset 0
 1546              		.cfi_restore 31
 1547 0050 4E800020 		blr
 1548              		.cfi_endproc
 1549              	.LFE2481:
 1550              		.size	_ZN7sigslot12_connection1I11ApplicationP8GuiFrameNS_15single_threadedEE5cloneEv, .-_ZN7sigsl
 1551              		.section	.text._ZN7sigslot12_connection3I11ApplicationP9GuiButtoniRK6_POINTNS_15single_threadedEE5
 1552              		.align 2
 1553              		.weak	_ZN7sigslot12_connection3I11ApplicationP9GuiButtoniRK6_POINTNS_15single_threadedEE5cloneEv
 1554              		.type	_ZN7sigslot12_connection3I11ApplicationP9GuiButtoniRK6_POINTNS_15single_threadedEE5cloneEv, 
 1555              	_ZN7sigslot12_connection3I11ApplicationP9GuiButtoniRK6_POINTNS_15single_threadedEE5cloneEv:
 1556              	.LFB2495:
 1557              		.loc 1 1789 0
 1558              		.cfi_startproc
 1559              	.LVL127:
 1560 0000 9421FFF0 		stwu 1,-16(1)
 1561              	.LCFI34:
 1562              		.cfi_def_cfa_offset 16
 1563 0004 7C0802A6 		mflr 0
 1564 0008 93E1000C 		stw 31,12(1)
 1565 000c 7C7F1B78 		mr 31,3
 1566              		.cfi_offset 31, -4
 1567              		.cfi_register 65, 0
 1568              		.loc 1 1791 0
 1569 0010 38600010 		li 3,16
 1570              	.LVL128:
 1571              		.loc 1 1789 0
 1572 0014 90010014 		stw 0,20(1)
 1573              		.loc 1 1791 0
 1574              		.cfi_offset 65, 4
 1575 0018 48000001 		bl _Znwj
 1576              		.loc 3 272 0
 1577 001c 801F0004 		lwz 0,4(31)
 1578              	.LVL129:
 1579              	.LBB3027:
 1580              	.LBB3028:
 1581              		.loc 1 1767 0
 1582 0020 3D600000 		lis 11,_ZTVN7sigslot12_connection3I11ApplicationP9GuiButtoniRK6_POINTNS_15single_threadedEEE+8@ha
 1583 0024 396B0008 		la 11,_ZTVN7sigslot12_connection3I11ApplicationP9GuiButtoniRK6_POINTNS_15single_threadedEEE+8@l(11
 1584 0028 90030004 		stw 0,4(3)
 1585 002c 91630000 		stw 11,0(3)
 1586 0030 815F0008 		lwz 10,8(31)
 1587 0034 817F000C 		lwz 11,12(31)
 1588 0038 91430008 		stw 10,8(3)
 1589 003c 9163000C 		stw 11,12(3)
 1590              	.LBE3028:
 1591              	.LBE3027:
 1592              		.loc 1 1792 0
 1593 0040 80010014 		lwz 0,20(1)
 1594 0044 83E1000C 		lwz 31,12(1)
 1595              	.LVL130:
 1596 0048 7C0803A6 		mtlr 0
 1597 004c 38210010 		addi 1,1,16
 1598              	.LCFI35:
 1599              		.cfi_def_cfa_offset 0
 1600              		.cfi_restore 31
 1601 0050 4E800020 		blr
 1602              		.cfi_endproc
 1603              	.LFE2495:
 1604              		.size	_ZN7sigslot12_connection3I11ApplicationP9GuiButtoniRK6_POINTNS_15single_threadedEE5cloneEv, 
 1605              		.section	.text._ZN7sigslot12_connection3I11ApplicationP9GuiButtoniRK6_POINTNS_15single_threadedEED
 1606              		.align 2
 1607              		.weak	_ZN7sigslot12_connection3I11ApplicationP9GuiButtoniRK6_POINTNS_15single_threadedEED0Ev
 1608              		.type	_ZN7sigslot12_connection3I11ApplicationP9GuiButtoniRK6_POINTNS_15single_threadedEED0Ev, @fun
 1609              	_ZN7sigslot12_connection3I11ApplicationP9GuiButtoniRK6_POINTNS_15single_threadedEED0Ev:
 1610              	.LFB2492:
 1611              		.loc 1 1783 0
 1612              		.cfi_startproc
 1613              	.LVL131:
 1614 0000 7C0802A6 		mflr 0
 1615 0004 9421FFF8 		stwu 1,-8(1)
 1616              	.LCFI36:
 1617              		.cfi_def_cfa_offset 8
 1618              		.cfi_register 65, 0
 1619              	.LBB3029:
 1620              	.LBB3030:
 1621              	.LBB3031:
 1622              	.LBB3032:
 1623              	.LBB3033:
 1624              	.LBB3034:
 1625              		.loc 1 387 0
 1626 0008 3D200000 		lis 9,_ZTVN7sigslot17_connection_base3IP9GuiButtoniRK6_POINTNS_15single_threadedEEE+8@ha
 1627              	.LBE3034:
 1628              	.LBE3033:
 1629              	.LBE3032:
 1630              	.LBE3031:
 1631              	.LBE3030:
 1632              	.LBE3029:
 1633              		.loc 1 1783 0
 1634 000c 9001000C 		stw 0,12(1)
 1635              	.LBB3040:
 1636              	.LBB3039:
 1637              	.LBB3038:
 1638              	.LBB3037:
 1639              	.LBB3036:
 1640              	.LBB3035:
 1641              		.loc 1 387 0
 1642 0010 38090008 		la 0,_ZTVN7sigslot17_connection_base3IP9GuiButtoniRK6_POINTNS_15single_threadedEEE+8@l(9)
 1643              		.cfi_offset 65, 4
 1644 0014 90030000 		stw 0,0(3)
 1645              	.LBE3035:
 1646              	.LBE3036:
 1647              	.LBE3037:
 1648              	.LBE3038:
 1649              	.LBE3039:
 1650              	.LBE3040:
 1651              		.loc 1 1786 0
 1652 0018 48000001 		bl _ZdlPv
 1653              	.LVL132:
 1654 001c 8001000C 		lwz 0,12(1)
 1655 0020 38210008 		addi 1,1,8
 1656              	.LCFI37:
 1657              		.cfi_def_cfa_offset 0
 1658 0024 7C0803A6 		mtlr 0
 1659 0028 4E800020 		blr
 1660              		.cfi_endproc
 1661              	.LFE2492:
 1662              		.size	_ZN7sigslot12_connection3I11ApplicationP9GuiButtoniRK6_POINTNS_15single_threadedEED0Ev, .-_Z
 1663              		.section	.text._ZN7sigslot12_connection1I11ApplicationP8GuiFrameNS_15single_threadedEED0Ev,"axG",@
 1664              		.align 2
 1665              		.weak	_ZN7sigslot12_connection1I11ApplicationP8GuiFrameNS_15single_threadedEED0Ev
 1666              		.type	_ZN7sigslot12_connection1I11ApplicationP8GuiFrameNS_15single_threadedEED0Ev, @function
 1667              	_ZN7sigslot12_connection1I11ApplicationP8GuiFrameNS_15single_threadedEED0Ev:
 1668              	.LFB2478:
 1669              		.loc 1 1688 0
 1670              		.cfi_startproc
 1671              	.LVL133:
 1672 0000 7C0802A6 		mflr 0
 1673 0004 9421FFF8 		stwu 1,-8(1)
 1674              	.LCFI38:
 1675              		.cfi_def_cfa_offset 8
 1676              		.cfi_register 65, 0
 1677              	.LBB3041:
 1678              	.LBB3042:
 1679              	.LBB3043:
 1680              	.LBB3044:
 1681              	.LBB3045:
 1682              	.LBB3046:
 1683              		.loc 1 365 0
 1684 0008 3D200000 		lis 9,_ZTVN7sigslot17_connection_base1IP8GuiFrameNS_15single_threadedEEE+8@ha
 1685              	.LBE3046:
 1686              	.LBE3045:
 1687              	.LBE3044:
 1688              	.LBE3043:
 1689              	.LBE3042:
 1690              	.LBE3041:
 1691              		.loc 1 1688 0
 1692 000c 9001000C 		stw 0,12(1)
 1693              	.LBB3052:
 1694              	.LBB3051:
 1695              	.LBB3050:
 1696              	.LBB3049:
 1697              	.LBB3048:
 1698              	.LBB3047:
 1699              		.loc 1 365 0
 1700 0010 38090008 		la 0,_ZTVN7sigslot17_connection_base1IP8GuiFrameNS_15single_threadedEEE+8@l(9)
 1701              		.cfi_offset 65, 4
 1702 0014 90030000 		stw 0,0(3)
 1703              	.LBE3047:
 1704              	.LBE3048:
 1705              	.LBE3049:
 1706              	.LBE3050:
 1707              	.LBE3051:
 1708              	.LBE3052:
 1709              		.loc 1 1691 0
 1710 0018 48000001 		bl _ZdlPv
 1711              	.LVL134:
 1712 001c 8001000C 		lwz 0,12(1)
 1713 0020 38210008 		addi 1,1,8
 1714              	.LCFI39:
 1715              		.cfi_def_cfa_offset 0
 1716 0024 7C0803A6 		mtlr 0
 1717 0028 4E800020 		blr
 1718              		.cfi_endproc
 1719              	.LFE2478:
 1720              		.size	_ZN7sigslot12_connection1I11ApplicationP8GuiFrameNS_15single_threadedEED0Ev, .-_ZN7sigslot12
 1721              		.section	.text._ZN7sigslot17_connection_base1IP8GuiFrameNS_15single_threadedEED0Ev,"axG",@progbits
 1722              		.align 2
 1723              		.weak	_ZN7sigslot17_connection_base1IP8GuiFrameNS_15single_threadedEED0Ev
 1724              		.type	_ZN7sigslot17_connection_base1IP8GuiFrameNS_15single_threadedEED0Ev, @function
 1725              	_ZN7sigslot17_connection_base1IP8GuiFrameNS_15single_threadedEED0Ev:
 1726              	.LFB2097:
 1727              		.loc 1 365 0
 1728              		.cfi_startproc
 1729              	.LVL135:
 1730 0000 7C0802A6 		mflr 0
 1731 0004 9421FFF8 		stwu 1,-8(1)
 1732              	.LCFI40:
 1733              		.cfi_def_cfa_offset 8
 1734              		.cfi_register 65, 0
 1735              	.LBB3053:
 1736              	.LBB3054:
 1737              	.LBB3055:
 1738 0008 3D200000 		lis 9,_ZTVN7sigslot17_connection_base1IP8GuiFrameNS_15single_threadedEEE+8@ha
 1739              	.LBE3055:
 1740              	.LBE3054:
 1741              	.LBE3053:
 1742 000c 9001000C 		stw 0,12(1)
 1743              	.LBB3058:
 1744              	.LBB3057:
 1745              	.LBB3056:
 1746              		.loc 1 365 0
 1747 0010 38090008 		la 0,_ZTVN7sigslot17_connection_base1IP8GuiFrameNS_15single_threadedEEE+8@l(9)
 1748              		.cfi_offset 65, 4
 1749 0014 90030000 		stw 0,0(3)
 1750              	.LBE3056:
 1751              	.LBE3057:
 1752              	.LBE3058:
 1753 0018 48000001 		bl _ZdlPv
 1754              	.LVL136:
 1755 001c 8001000C 		lwz 0,12(1)
 1756 0020 38210008 		addi 1,1,8
 1757              	.LCFI41:
 1758              		.cfi_def_cfa_offset 0
 1759 0024 7C0803A6 		mtlr 0
 1760 0028 4E800020 		blr
 1761              		.cfi_endproc
 1762              	.LFE2097:
 1763              		.size	_ZN7sigslot17_connection_base1IP8GuiFrameNS_15single_threadedEED0Ev, .-_ZN7sigslot17_connect
 1764              		.section	.text._ZN7sigslot17_connection_base3IP9GuiButtoniRK6_POINTNS_15single_threadedEED0Ev,"axG
 1765              		.align 2
 1766              		.weak	_ZN7sigslot17_connection_base3IP9GuiButtoniRK6_POINTNS_15single_threadedEED0Ev
 1767              		.type	_ZN7sigslot17_connection_base3IP9GuiButtoniRK6_POINTNS_15single_threadedEED0Ev, @function
 1768              	_ZN7sigslot17_connection_base3IP9GuiButtoniRK6_POINTNS_15single_threadedEED0Ev:
 1769              	.LFB2090:
 1770              		.loc 1 387 0
 1771              		.cfi_startproc
 1772              	.LVL137:
 1773 0000 7C0802A6 		mflr 0
 1774 0004 9421FFF8 		stwu 1,-8(1)
 1775              	.LCFI42:
 1776              		.cfi_def_cfa_offset 8
 1777              		.cfi_register 65, 0
 1778              	.LBB3059:
 1779              	.LBB3060:
 1780              	.LBB3061:
 1781 0008 3D200000 		lis 9,_ZTVN7sigslot17_connection_base3IP9GuiButtoniRK6_POINTNS_15single_threadedEEE+8@ha
 1782              	.LBE3061:
 1783              	.LBE3060:
 1784              	.LBE3059:
 1785 000c 9001000C 		stw 0,12(1)
 1786              	.LBB3064:
 1787              	.LBB3063:
 1788              	.LBB3062:
 1789              		.loc 1 387 0
 1790 0010 38090008 		la 0,_ZTVN7sigslot17_connection_base3IP9GuiButtoniRK6_POINTNS_15single_threadedEEE+8@l(9)
 1791              		.cfi_offset 65, 4
 1792 0014 90030000 		stw 0,0(3)
 1793              	.LBE3062:
 1794              	.LBE3063:
 1795              	.LBE3064:
 1796 0018 48000001 		bl _ZdlPv
 1797              	.LVL138:
 1798 001c 8001000C 		lwz 0,12(1)
 1799 0020 38210008 		addi 1,1,8
 1800              	.LCFI43:
 1801              		.cfi_def_cfa_offset 0
 1802 0024 7C0803A6 		mtlr 0
 1803 0028 4E800020 		blr
 1804              		.cfi_endproc
 1805              	.LFE2090:
 1806              		.size	_ZN7sigslot17_connection_base3IP9GuiButtoniRK6_POINTNS_15single_threadedEED0Ev, .-_ZN7sigslo
 1807              		.section	.text._ZN7sigslot15single_threadedD0Ev,"axG",@progbits,_ZN7sigslot15single_threadedD5Ev,c
 1808              		.align 2
 1809              		.weak	_ZN7sigslot15single_threadedD0Ev
 1810              		.type	_ZN7sigslot15single_threadedD0Ev, @function
 1811              	_ZN7sigslot15single_threadedD0Ev:
 1812              	.LFB1150:
 1813              		.loc 1 104 0
 1814              		.cfi_startproc
 1815              	.LVL139:
 1816 0000 7C0802A6 		mflr 0
 1817 0004 9421FFF8 		stwu 1,-8(1)
 1818              	.LCFI44:
 1819              		.cfi_def_cfa_offset 8
 1820              		.cfi_register 65, 0
 1821              	.LBB3065:
 1822              	.LBB3066:
 1823              	.LBB3067:
 1824              		.loc 1 105 0
 1825 0008 3D200000 		lis 9,_ZTVN7sigslot15single_threadedE+8@ha
 1826              	.LBE3067:
 1827              	.LBE3066:
 1828              	.LBE3065:
 1829              		.loc 1 104 0
 1830 000c 9001000C 		stw 0,12(1)
 1831              	.LBB3070:
 1832              	.LBB3069:
 1833              	.LBB3068:
 1834              		.loc 1 105 0
 1835 0010 38090008 		la 0,_ZTVN7sigslot15single_threadedE+8@l(9)
 1836              		.cfi_offset 65, 4
 1837 0014 90030000 		stw 0,0(3)
 1838              	.LBE3068:
 1839              	.LBE3069:
 1840              	.LBE3070:
 1841              		.loc 1 107 0
 1842 0018 48000001 		bl _ZdlPv
 1843              	.LVL140:
 1844 001c 8001000C 		lwz 0,12(1)
 1845 0020 38210008 		addi 1,1,8
 1846              	.LCFI45:
 1847              		.cfi_def_cfa_offset 0
 1848 0024 7C0803A6 		mtlr 0
 1849 0028 4E800020 		blr
 1850              		.cfi_endproc
 1851              	.LFE1150:
 1852              		.size	_ZN7sigslot15single_threadedD0Ev, .-_ZN7sigslot15single_threadedD0Ev
 1853              		.section	".text"
 1854              		.align 2
 1855              		.globl _ZN11Application4execEv
 1856              		.type	_ZN11Application4execEv, @function
 1857              	_ZN11Application4execEv:
 1858              	.LFB1749:
 1859              		.loc 3 94 0
 1860              		.cfi_startproc
 1861              	.LVL141:
 1862 0034 9421FFF0 		stwu 1,-16(1)
 1863              	.LCFI46:
 1864              		.cfi_def_cfa_offset 16
 1865 0038 7C0802A6 		mflr 0
 1866 003c 93C10008 		stw 30,8(1)
 1867              		.loc 3 95 0
 1868 0040 3FC00000 		lis 30,_ZN11Application15exitApplicationE@ha
 1869              		.cfi_offset 30, -8
 1870              		.cfi_register 65, 0
 1871              		.loc 3 94 0
 1872 0044 90010014 		stw 0,20(1)
 1873              		.loc 3 95 0
 1874 0048 881E0000 		lbz 0,_ZN11Application15exitApplicationE@l(30)
 1875              		.cfi_offset 65, 4
 1876              		.loc 3 94 0
 1877 004c 93E1000C 		stw 31,12(1)
 1878              		.loc 3 94 0
 1879 0050 7C7F1B78 		mr 31,3
 1880              		.cfi_offset 31, -4
 1881              		.loc 3 95 0
 1882 0054 2F800000 		cmpwi 7,0,0
 1883 0058 409E0028 		bne- 7,.L112
 1884 005c 3BDE0000 		la 30,_ZN11Application15exitApplicationE@l(30)
 1885              	.LVL142:
 1886              	.L113:
 1887              		.loc 3 97 0
 1888 0060 813F0000 		lwz 9,0(31)
 1889 0064 7FE3FB78 		mr 3,31
 1890 0068 800900D8 		lwz 0,216(9)
 1891 006c 7C0903A6 		mtctr 0
 1892 0070 4E800421 		bctrl
 1893              		.loc 3 95 0
 1894 0074 881E0000 		lbz 0,0(30)
 1895 0078 2F800000 		cmpwi 7,0,0
 1896 007c 419EFFE4 		beq+ 7,.L113
 1897              	.L112:
 1898              		.loc 3 100 0
 1899 0080 48000001 		bl ExitApp
 1900              		.loc 3 101 0
 1901 0084 80010014 		lwz 0,20(1)
 1902 0088 83C10008 		lwz 30,8(1)
 1903 008c 7C0803A6 		mtlr 0
 1904 0090 83E1000C 		lwz 31,12(1)
 1905              	.LVL143:
 1906 0094 38210010 		addi 1,1,16
 1907              	.LCFI47:
 1908              		.cfi_def_cfa_offset 0
 1909              		.cfi_restore 31
 1910              		.cfi_restore 30
 1911 0098 4E800020 		blr
 1912              		.cfi_endproc
 1913              	.LFE1749:
 1914              		.size	_ZN11Application4execEv, .-_ZN11Application4execEv
 1915              		.align 2
 1916              		.globl _ZN11Application4hideEv
 1917              		.type	_ZN11Application4hideEv, @function
 1918              	_ZN11Application4hideEv:
 1919              	.LFB1747:
 1920              		.loc 3 79 0
 1921              		.cfi_startproc
 1922              	.LVL144:
 1923 009c 7C0802A6 		mflr 0
 1924 00a0 9421FFF8 		stwu 1,-8(1)
 1925              	.LCFI48:
 1926              		.cfi_def_cfa_offset 8
 1927              		.cfi_register 65, 0
 1928 00a4 9001000C 		stw 0,12(1)
 1929              		.loc 3 80 0
 1930              		.cfi_offset 65, 4
 1931 00a8 48000001 		bl _ZN8GuiFrame9RemoveAllEv
 1932              	.LVL145:
 1933              		.loc 3 81 0
 1934 00ac 8001000C 		lwz 0,12(1)
 1935 00b0 38210008 		addi 1,1,8
 1936              	.LCFI49:
 1937              		.cfi_def_cfa_offset 0
 1938 00b4 7C0803A6 		mtlr 0
 1939 00b8 4E800020 		blr
 1940              		.cfi_endproc
 1941              	.LFE1747:
 1942              		.size	_ZN11Application4hideEv, .-_ZN11Application4hideEv
 1943              		.align 2
 1944              		.globl _ZN11Application4showEv
 1945              		.type	_ZN11Application4showEv, @function
 1946              	_ZN11Application4showEv:
 1947              	.LFB1748:
 1948              		.loc 3 84 0
 1949              		.cfi_startproc
 1950              		.cfi_personality 0,__gxx_personality_v0
 1951              		.cfi_lsda 0,.LLSDA1748
 1952              	.LVL146:
 1953 00bc 7C0802A6 		mflr 0
 1954 00c0 9421FFE8 		stwu 1,-24(1)
 1955              	.LCFI50:
 1956              		.cfi_def_cfa_offset 24
 1957              		.cfi_register 65, 0
 1958 00c4 93C10010 		stw 30,16(1)
 1959 00c8 9001001C 		stw 0,28(1)
 1960 00cc 93E10014 		stw 31,20(1)
 1961 00d0 7C7F1B78 		mr 31,3
 1962              		.cfi_offset 31, -4
 1963              		.cfi_offset 65, 4
 1964              		.cfi_offset 30, -8
 1965              		.loc 3 85 0
 1966 00d4 83C300E0 		lwz 30,224(3)
 1967              	.LVL147:
 1968              	.LBB3087:
 1969              	.LBB3088:
 1970              		.file 4 "d:/Projects/SaveGameManager/savegame-manager-gx/trunk/source/Controls/Application.h"
 1971              		.loc 4 51 0
 1972 00d8 80630274 		lwz 3,628(3)
 1973              	.LVL148:
 1974              	.LBE3088:
 1975              	.LBE3087:
 1976              		.loc 3 84 0
 1977 00dc 93A1000C 		stw 29,12(1)
 1978              	.LBB3090:
 1979              	.LBB3091:
 1980              		.file 5 "d:/Projects/SaveGameManager/savegame-manager-gx/trunk/source/Controls/../SoundOperations/
 1981              		.loc 5 38 0
 1982 00e0 3FA00000 		lis 29,_ZN11MusicPlayer8instanceE@ha
 1983              		.cfi_offset 29, -12
 1984              	.LEHB0:
 1985              	.LBE3091:
 1986              	.LBE3090:
 1987              	.LBB3095:
 1988              	.LBB3089:
 1989              		.loc 4 51 0
 1990 00e4 48000001 		bl LWP_MutexLock
 1991              	.LVL149:
 1992              		.loc 4 52 0
 1993 00e8 7FC4F378 		mr 4,30
 1994 00ec 7FE3FB78 		mr 3,31
 1995 00f0 48000001 		bl _ZN8GuiFrame6AppendEP10GuiElement
 1996              		.loc 4 53 0
 1997 00f4 807F0274 		lwz 3,628(31)
 1998 00f8 48000001 		bl LWP_MutexUnlock
 1999              	.LBE3089:
 2000              	.LBE3095:
 2001              		.loc 3 86 0
 2002 00fc 83DF00CC 		lwz 30,204(31)
 2003              	.LVL150:
 2004              	.LBB3096:
 2005              	.LBB3097:
 2006              		.loc 4 51 0
 2007 0100 807F0274 		lwz 3,628(31)
 2008 0104 48000001 		bl LWP_MutexLock
 2009              	.LVL151:
 2010              		.loc 4 52 0
 2011 0108 7FC4F378 		mr 4,30
 2012 010c 7FE3FB78 		mr 3,31
 2013 0110 48000001 		bl _ZN8GuiFrame6AppendEP10GuiElement
 2014              		.loc 4 53 0
 2015 0114 807F0274 		lwz 3,628(31)
 2016 0118 48000001 		bl LWP_MutexUnlock
 2017              	.LBE3097:
 2018              	.LBE3096:
 2019              	.LBB3098:
 2020              	.LBB3092:
 2021              		.loc 5 38 0
 2022 011c 83DD0000 		lwz 30,_ZN11MusicPlayer8instanceE@l(29)
 2023              	.LVL152:
 2024 0120 2F9E0000 		cmpwi 7,30,0
 2025 0124 419E0094 		beq- 7,.L129
 2026              	.LVL153:
 2027              	.LBE3092:
 2028              	.LBE3098:
 2029              	.LBB3099:
 2030              	.LBB3100:
 2031              		.loc 4 51 0
 2032 0128 807F0274 		lwz 3,628(31)
 2033              	.LBE3100:
 2034              	.LBE3099:
 2035              	.LBB3104:
 2036              	.LBB3105:
 2037              		.file 6 "d:/Projects/SaveGameManager/savegame-manager-gx/trunk/source/Controls/../Prompts/Progress
 2038              		.loc 6 26 0
 2039 012c 3FA00000 		lis 29,_ZN14ProgressWindow8instanceE@ha
 2040              	.LBE3105:
 2041              	.LBE3104:
 2042              	.LBB3111:
 2043              	.LBB3101:
 2044              		.loc 4 51 0
 2045 0130 48000001 		bl LWP_MutexLock
 2046              	.LVL154:
 2047              		.loc 4 52 0
 2048 0134 7FC4F378 		mr 4,30
 2049 0138 7FE3FB78 		mr 3,31
 2050 013c 48000001 		bl _ZN8GuiFrame6AppendEP10GuiElement
 2051              		.loc 4 53 0
 2052 0140 807F0274 		lwz 3,628(31)
 2053 0144 48000001 		bl LWP_MutexUnlock
 2054              	.LBE3101:
 2055              	.LBE3111:
 2056              	.LBB3112:
 2057              	.LBB3106:
 2058              		.loc 6 26 0
 2059 0148 83DD0000 		lwz 30,_ZN14ProgressWindow8instanceE@l(29)
 2060              	.LVL155:
 2061 014c 2F9E0000 		cmpwi 7,30,0
 2062 0150 419E00A8 		beq- 7,.L130
 2063              	.LVL156:
 2064              	.L119:
 2065              	.LBE3106:
 2066              	.LBE3112:
 2067              	.LBB3113:
 2068              	.LBB3114:
 2069              		.loc 4 51 0
 2070 0154 807F0274 		lwz 3,628(31)
 2071              	.LBE3114:
 2072              	.LBE3113:
 2073              	.LBB3118:
 2074              	.LBB3119:
 2075              		.file 7 "d:/Projects/SaveGameManager/savegame-manager-gx/trunk/source/Controls/../Menu/MainMenu.h"
 2076              		.loc 7 47 0
 2077 0158 3FA00000 		lis 29,_ZN8MainMenu8instanceE@ha
 2078              	.LBE3119:
 2079              	.LBE3118:
 2080              	.LBB3124:
 2081              	.LBB3115:
 2082              		.loc 4 51 0
 2083 015c 48000001 		bl LWP_MutexLock
 2084              		.loc 4 52 0
 2085 0160 7FC4F378 		mr 4,30
 2086 0164 7FE3FB78 		mr 3,31
 2087 0168 48000001 		bl _ZN8GuiFrame6AppendEP10GuiElement
 2088              		.loc 4 53 0
 2089 016c 807F0274 		lwz 3,628(31)
 2090 0170 48000001 		bl LWP_MutexUnlock
 2091              	.LBE3115:
 2092              	.LBE3124:
 2093              	.LBB3125:
 2094              	.LBB3120:
 2095              		.loc 7 47 0
 2096 0174 83DD0000 		lwz 30,_ZN8MainMenu8instanceE@l(29)
 2097              	.LVL157:
 2098 0178 2F9E0000 		cmpwi 7,30,0
 2099 017c 419E00BC 		beq- 7,.L131
 2100              	.L122:
 2101              	.LVL158:
 2102              	.LBE3120:
 2103              	.LBE3125:
 2104              	.LBB3126:
 2105              	.LBB3127:
 2106              		.loc 4 51 0
 2107 0180 807F0274 		lwz 3,628(31)
 2108 0184 48000001 		bl LWP_MutexLock
 2109              		.loc 4 52 0
 2110 0188 7FE3FB78 		mr 3,31
 2111 018c 7FC4F378 		mr 4,30
 2112 0190 48000001 		bl _ZN8GuiFrame6AppendEP10GuiElement
 2113              		.loc 4 53 0
 2114 0194 807F0274 		lwz 3,628(31)
 2115 0198 48000001 		bl LWP_MutexUnlock
 2116              	.LBE3127:
 2117              	.LBE3126:
 2118              		.loc 3 91 0
 2119 019c 8001001C 		lwz 0,28(1)
 2120 01a0 83A1000C 		lwz 29,12(1)
 2121 01a4 7C0803A6 		mtlr 0
 2122 01a8 83C10010 		lwz 30,16(1)
 2123              	.LVL159:
 2124 01ac 83E10014 		lwz 31,20(1)
 2125              	.LVL160:
 2126 01b0 38210018 		addi 1,1,24
 2127              		.cfi_remember_state
 2128              	.LCFI51:
 2129              		.cfi_def_cfa_offset 0
 2130              		.cfi_restore 31
 2131              		.cfi_restore 30
 2132              		.cfi_restore 29
 2133 01b4 4E800020 		blr
 2134              	.LVL161:
 2135              	.L129:
 2136              	.LCFI52:
 2137              		.cfi_restore_state
 2138              	.LBB3130:
 2139              	.LBB3093:
 2140              		.loc 5 38 0
 2141 01b8 3860027C 		li 3,636
 2142 01bc 48000001 		bl _Znwj
 2143              	.LEHE0:
 2144 01c0 7C7E1B78 		mr 30,3
 2145              	.LEHB1:
 2146 01c4 48000001 		bl _ZN11MusicPlayerC1Ev
 2147              	.LEHE1:
 2148              	.LBE3093:
 2149              	.LBE3130:
 2150              	.LBB3131:
 2151              	.LBB3102:
 2152              		.loc 4 51 0
 2153 01c8 807F0274 		lwz 3,628(31)
 2154              	.LBE3102:
 2155              	.LBE3131:
 2156              	.LBB3132:
 2157              	.LBB3094:
 2158              		.loc 5 38 0
 2159 01cc 93DD0000 		stw 30,_ZN11MusicPlayer8instanceE@l(29)
 2160              	.LVL162:
 2161              	.LBE3094:
 2162              	.LBE3132:
 2163              	.LBB3133:
 2164              	.LBB3107:
 2165              		.loc 6 26 0
 2166 01d0 3FA00000 		lis 29,_ZN14ProgressWindow8instanceE@ha
 2167              	.LEHB2:
 2168              	.LBE3107:
 2169              	.LBE3133:
 2170              	.LBB3134:
 2171              	.LBB3103:
 2172              		.loc 4 51 0
 2173 01d4 48000001 		bl LWP_MutexLock
 2174              		.loc 4 52 0
 2175 01d8 7FC4F378 		mr 4,30
 2176 01dc 7FE3FB78 		mr 3,31
 2177 01e0 48000001 		bl _ZN8GuiFrame6AppendEP10GuiElement
 2178              		.loc 4 53 0
 2179 01e4 807F0274 		lwz 3,628(31)
 2180 01e8 48000001 		bl LWP_MutexUnlock
 2181              	.LBE3103:
 2182              	.LBE3134:
 2183              	.LBB3135:
 2184              	.LBB3108:
 2185              		.loc 6 26 0
 2186 01ec 83DD0000 		lwz 30,_ZN14ProgressWindow8instanceE@l(29)
 2187              	.LVL163:
 2188 01f0 2F9E0000 		cmpwi 7,30,0
 2189 01f4 409EFF60 		bne+ 7,.L119
 2190              	.L130:
 2191 01f8 386001B8 		li 3,440
 2192 01fc 48000001 		bl _Znwj
 2193              	.LEHE2:
 2194 0200 7C7E1B78 		mr 30,3
 2195              	.LEHB3:
 2196 0204 48000001 		bl _ZN14ProgressWindowC1Ev
 2197              	.LEHE3:
 2198              	.LBE3108:
 2199              	.LBE3135:
 2200              	.LBB3136:
 2201              	.LBB3116:
 2202              		.loc 4 51 0
 2203 0208 807F0274 		lwz 3,628(31)
 2204              	.LBE3116:
 2205              	.LBE3136:
 2206              	.LBB3137:
 2207              	.LBB3109:
 2208              		.loc 6 26 0
 2209 020c 93DD0000 		stw 30,_ZN14ProgressWindow8instanceE@l(29)
 2210              	.LVL164:
 2211              	.LBE3109:
 2212              	.LBE3137:
 2213              	.LBB3138:
 2214              	.LBB3121:
 2215              		.loc 7 47 0
 2216 0210 3FA00000 		lis 29,_ZN8MainMenu8instanceE@ha
 2217              	.LEHB4:
 2218              	.LBE3121:
 2219              	.LBE3138:
 2220              	.LBB3139:
 2221              	.LBB3117:
 2222              		.loc 4 51 0
 2223 0214 48000001 		bl LWP_MutexLock
 2224              		.loc 4 52 0
 2225 0218 7FC4F378 		mr 4,30
 2226 021c 7FE3FB78 		mr 3,31
 2227 0220 48000001 		bl _ZN8GuiFrame6AppendEP10GuiElement
 2228              		.loc 4 53 0
 2229 0224 807F0274 		lwz 3,628(31)
 2230 0228 48000001 		bl LWP_MutexUnlock
 2231              	.LBE3117:
 2232              	.LBE3139:
 2233              	.LBB3140:
 2234              	.LBB3122:
 2235              		.loc 7 47 0
 2236 022c 83DD0000 		lwz 30,_ZN8MainMenu8instanceE@l(29)
 2237              	.LVL165:
 2238 0230 2F9E0000 		cmpwi 7,30,0
 2239 0234 409EFF4C 		bne+ 7,.L122
 2240              	.L131:
 2241 0238 386002A8 		li 3,680
 2242 023c 48000001 		bl _Znwj
 2243              	.LEHE4:
 2244 0240 7C7E1B78 		mr 30,3
 2245              	.LEHB5:
 2246 0244 48000001 		bl _ZN8MainMenuC1Ev
 2247              	.LEHE5:
 2248              	.LBE3122:
 2249              	.LBE3140:
 2250              	.LBB3141:
 2251              	.LBB3128:
 2252              		.loc 4 51 0
 2253 0248 807F0274 		lwz 3,628(31)
 2254              	.LBE3128:
 2255              	.LBE3141:
 2256              	.LBB3142:
 2257              	.LBB3123:
 2258              		.loc 7 47 0
 2259 024c 93DD0000 		stw 30,_ZN8MainMenu8instanceE@l(29)
 2260              	.LVL166:
 2261              	.LEHB6:
 2262              	.LBE3123:
 2263              	.LBE3142:
 2264              	.LBB3143:
 2265              	.LBB3129:
 2266              		.loc 4 51 0
 2267 0250 48000001 		bl LWP_MutexLock
 2268              		.loc 4 52 0
 2269 0254 7FE3FB78 		mr 3,31
 2270 0258 7FC4F378 		mr 4,30
 2271 025c 48000001 		bl _ZN8GuiFrame6AppendEP10GuiElement
 2272              		.loc 4 53 0
 2273 0260 807F0274 		lwz 3,628(31)
 2274 0264 48000001 		bl LWP_MutexUnlock
 2275              	.LBE3129:
 2276              	.LBE3143:
 2277              		.loc 3 91 0
 2278 0268 8001001C 		lwz 0,28(1)
 2279 026c 83A1000C 		lwz 29,12(1)
 2280 0270 7C0803A6 		mtlr 0
 2281 0274 83C10010 		lwz 30,16(1)
 2282              	.LVL167:
 2283 0278 83E10014 		lwz 31,20(1)
 2284              	.LVL168:
 2285 027c 38210018 		addi 1,1,24
 2286              		.cfi_remember_state
 2287              		.cfi_restore 29
 2288              		.cfi_restore 30
 2289              		.cfi_restore 31
 2290              	.LCFI53:
 2291              		.cfi_def_cfa_offset 0
 2292 0280 4E800020 		blr
 2293              	.LVL169:
 2294              	.L125:
 2295              	.L128:
 2296              	.LCFI54:
 2297              		.cfi_restore_state
 2298 0284 7C7F1B78 		mr 31,3
 2299              	.LVL170:
 2300              	.LBB3144:
 2301              	.LBB3110:
 2302              		.loc 6 26 0
 2303 0288 7FC3F378 		mr 3,30
 2304 028c 48000001 		bl _ZdlPv
 2305 0290 7FE3FB78 		mr 3,31
 2306 0294 48000001 		bl _Unwind_Resume
 2307              	.LEHE6:
 2308              	.LVL171:
 2309              	.L127:
 2310 0298 4BFFFFEC 		b .L128
 2311              	.LVL172:
 2312              	.L126:
 2313 029c 4BFFFFE8 		b .L128
 2314              	.LBE3110:
 2315              	.LBE3144:
 2316              		.cfi_endproc
 2317              	.LFE1748:
 2318              		.globl __gxx_personality_v0
 2319              		.section	.gcc_except_table,"a",@progbits
 2320              	.LLSDA1748:
 2321 0000 FF       		.byte	0xff
 2322 0001 FF       		.byte	0xff
 2323 0002 01       		.byte	0x1
 2324 0003 26       		.uleb128 .LLSDACSE1748-.LLSDACSB1748
 2325              	.LLSDACSB1748:
 2326 0004 28       		.uleb128 .LEHB0-.LFB1748
 2327 0005 DC01     		.uleb128 .LEHE0-.LEHB0
 2328 0007 00       		.uleb128 0
 2329 0008 00       		.uleb128 0
 2330 0009 8802     		.uleb128 .LEHB1-.LFB1748
 2331 000b 04       		.uleb128 .LEHE1-.LEHB1
 2332 000c C803     		.uleb128 .L125-.LFB1748
 2333 000e 00       		.uleb128 0
 2334 000f 9802     		.uleb128 .LEHB2-.LFB1748
 2335 0011 2C       		.uleb128 .LEHE2-.LEHB2
 2336 0012 00       		.uleb128 0
 2337 0013 00       		.uleb128 0
 2338 0014 C802     		.uleb128 .LEHB3-.LFB1748
 2339 0016 04       		.uleb128 .LEHE3-.LEHB3
 2340 0017 E003     		.uleb128 .L126-.LFB1748
 2341 0019 00       		.uleb128 0
 2342 001a D802     		.uleb128 .LEHB4-.LFB1748
 2343 001c 2C       		.uleb128 .LEHE4-.LEHB4
 2344 001d 00       		.uleb128 0
 2345 001e 00       		.uleb128 0
 2346 001f 8803     		.uleb128 .LEHB5-.LFB1748
 2347 0021 04       		.uleb128 .LEHE5-.LEHB5
 2348 0022 DC03     		.uleb128 .L127-.LFB1748
 2349 0024 00       		.uleb128 0
 2350 0025 9403     		.uleb128 .LEHB6-.LFB1748
 2351 0027 48       		.uleb128 .LEHE6-.LEHB6
 2352 0028 00       		.uleb128 0
 2353 0029 00       		.uleb128 0
 2354              	.LLSDACSE1748:
 2355              		.section	".text"
 2356              		.size	_ZN11Application4showEv, .-_ZN11Application4showEv
 2357              		.align 2
 2358              		.globl _ZN11Application7FadeOutEv
 2359              		.type	_ZN11Application7FadeOutEv, @function
 2360              	_ZN11Application7FadeOutEv:
 2361              	.LFB1745:
 2362              		.loc 3 61 0
 2363              		.cfi_startproc
 2364              	.LVL173:
 2365 02a0 7C0802A6 		mflr 0
 2366 02a4 9421FFC0 		stwu 1,-64(1)
 2367              	.LCFI55:
 2368              		.cfi_def_cfa_offset 64
 2369              		.cfi_register 65, 0
 2370 02a8 93410028 		stw 26,40(1)
 2371 02ac 3F400000 		lis 26,.LC4@ha
 2372              		.cfi_offset 26, -24
 2373 02b0 9361002C 		stw 27,44(1)
 2374 02b4 3F600000 		lis 27,screenwidth@ha
 2375              		.cfi_offset 27, -20
 2376 02b8 93810030 		stw 28,48(1)
 2377 02bc 3F800000 		lis 28,.LC1@ha
 2378              		.cfi_offset 28, -16
 2379 02c0 93A10034 		stw 29,52(1)
 2380 02c4 3FA00000 		lis 29,screenheight@ha
 2381              		.cfi_offset 29, -12
 2382 02c8 90010044 		stw 0,68(1)
 2383 02cc 3B5A000C 		la 26,.LC4@l(26)
 2384 02d0 93C10038 		stw 30,56(1)
 2385 02d4 3B7B0000 		la 27,screenwidth@l(27)
 2386 02d8 93E1003C 		stw 31,60(1)
 2387              		.loc 3 61 0
 2388 02dc 7C7E1B78 		mr 30,3
 2389              		.cfi_offset 31, -4
 2390              		.cfi_offset 30, -8
 2391              		.cfi_offset 65, 4
 2392              		.loc 3 62 0
 2393 02e0 3BE00000 		li 31,0
 2394 02e4 3B9C0000 		la 28,.LC1@l(28)
 2395 02e8 3BBD0000 		la 29,screenheight@l(29)
 2396              	.LVL174:
 2397              	.L133:
 2398              	.LBB3147:
 2399              	.LBB3148:
 2400              		.loc 3 64 0 discriminator 2
 2401 02ec 813E0000 		lwz 9,0(30)
 2402 02f0 7FC3F378 		mr 3,30
 2403 02f4 800900C0 		lwz 0,192(9)
 2404 02f8 7C0903A6 		mtctr 0
 2405 02fc 4E800421 		bctrl
 2406              		.loc 3 66 0 discriminator 2
 2407 0300 817B0000 		lwz 11,0(27)
 2408 0304 813D0000 		lwz 9,0(29)
 2409 0308 3C004330 		lis 0,0x4330
 2410 030c 6D6B8000 		xoris 11,11,0x8000
 2411 0310 90010018 		stw 0,24(1)
 2412 0314 6D298000 		xoris 9,9,0x8000
 2413 0318 9161001C 		stw 11,28(1)
 2414 031c 91210024 		stw 9,36(1)
 2415 0320 3D200000 		lis 9,.LC5@ha
 2416 0324 90010020 		stw 0,32(1)
 2417 0328 38610008 		addi 3,1,8
 2418 032c C01C0000 		lfs 0,0(28)
 2419              		.loc 3 65 0 discriminator 2
 2420 0330 38000000 		li 0,0
 2421              		.loc 3 66 0 discriminator 2
 2422 0334 C8810018 		lfd 4,24(1)
 2423 0338 38800000 		li 4,0
 2424 033c C8A10020 		lfd 5,32(1)
 2425 0340 38A00001 		li 5,1
 2426 0344 FC840028 		fsub 4,4,0
 2427 0348 C0290010 		lfs 1,.LC5@l(9)
 2428 034c FCA50028 		fsub 5,5,0
 2429 0350 C07A0000 		lfs 3,0(26)
 2430 0354 FC400890 		fmr 2,1
 2431              		.loc 3 65 0 discriminator 2
 2432 0358 9BE1000B 		stb 31,11(1)
 2433              		.loc 3 66 0 discriminator 2
 2434 035c FC802018 		frsp 4,4
 2435              		.loc 3 65 0 discriminator 2
 2436 0360 98010008 		stb 0,8(1)
 2437              		.loc 3 66 0 discriminator 2
 2438 0364 FCA02818 		frsp 5,5
 2439              		.loc 3 65 0 discriminator 2
 2440 0368 98010009 		stb 0,9(1)
 2441 036c 9801000A 		stb 0,10(1)
 2442              		.loc 3 66 0 discriminator 2
 2443 0370 48000001 		bl _Z18Menu_DrawRectanglefffffP9_gx_colorbb
 2444              		.loc 3 67 0 discriminator 2
 2445 0374 48000001 		bl _Z11Menu_Renderv
 2446              	.LVL175:
 2447              	.LBE3148:
 2448              		.loc 3 62 0 discriminator 2
 2449 0378 2F9F00FF 		cmpwi 7,31,255
 2450 037c 3BFF000F 		addi 31,31,15
 2451              	.LVL176:
 2452 0380 409EFF6C 		bne+ 7,.L133
 2453              	.LBE3147:
 2454              		.loc 3 69 0
 2455 0384 80010044 		lwz 0,68(1)
 2456 0388 83410028 		lwz 26,40(1)
 2457 038c 7C0803A6 		mtlr 0
 2458 0390 8361002C 		lwz 27,44(1)
 2459 0394 83810030 		lwz 28,48(1)
 2460 0398 83A10034 		lwz 29,52(1)
 2461 039c 83C10038 		lwz 30,56(1)
 2462              	.LVL177:
 2463 03a0 83E1003C 		lwz 31,60(1)
 2464              	.LVL178:
 2465 03a4 38210040 		addi 1,1,64
 2466              	.LCFI56:
 2467              		.cfi_def_cfa_offset 0
 2468              		.cfi_restore 31
 2469              		.cfi_restore 30
 2470              		.cfi_restore 29
 2471              		.cfi_restore 28
 2472              		.cfi_restore 27
 2473              		.cfi_restore 26
 2474 03a8 4E800020 		blr
 2475              		.cfi_endproc
 2476              	.LFE1745:
 2477              		.size	_ZN11Application7FadeOutEv, .-_ZN11Application7FadeOutEv
 2478              		.align 2
 2479              		.globl _ZN11Application4quitEv
 2480              		.type	_ZN11Application4quitEv, @function
 2481              	_ZN11Application4quitEv:
 2482              	.LFB1746:
 2483              		.loc 3 72 0
 2484              		.cfi_startproc
 2485              	.LVL179:
 2486 03ac 7C0802A6 		mflr 0
 2487 03b0 9421FFC0 		stwu 1,-64(1)
 2488              	.LCFI57:
 2489              		.cfi_def_cfa_offset 64
 2490              		.cfi_register 65, 0
 2491 03b4 93410028 		stw 26,40(1)
 2492 03b8 3F400000 		lis 26,.LC4@ha
 2493              		.cfi_offset 26, -24
 2494 03bc 9361002C 		stw 27,44(1)
 2495 03c0 3F600000 		lis 27,screenwidth@ha
 2496              		.cfi_offset 27, -20
 2497 03c4 93810030 		stw 28,48(1)
 2498 03c8 3F800000 		lis 28,.LC1@ha
 2499              		.cfi_offset 28, -16
 2500 03cc 93A10034 		stw 29,52(1)
 2501 03d0 3FA00000 		lis 29,screenheight@ha
 2502              		.cfi_offset 29, -12
 2503 03d4 90010044 		stw 0,68(1)
 2504 03d8 3B5A000C 		la 26,.LC4@l(26)
 2505 03dc 93C10038 		stw 30,56(1)
 2506 03e0 3B7B0000 		la 27,screenwidth@l(27)
 2507 03e4 93E1003C 		stw 31,60(1)
 2508              		.loc 3 72 0
 2509 03e8 7C7E1B78 		mr 30,3
 2510              		.cfi_offset 31, -4
 2511              		.cfi_offset 30, -8
 2512              		.cfi_offset 65, 4
 2513              	.LVL180:
 2514              		.loc 3 62 0
 2515 03ec 3BE00000 		li 31,0
 2516 03f0 3B9C0000 		la 28,.LC1@l(28)
 2517 03f4 3BBD0000 		la 29,screenheight@l(29)
 2518              	.LVL181:
 2519              	.L136:
 2520              	.LBB3153:
 2521              	.LBB3154:
 2522              	.LBB3155:
 2523              		.loc 3 64 0
 2524 03f8 813E0000 		lwz 9,0(30)
 2525 03fc 7FC3F378 		mr 3,30
 2526 0400 800900C0 		lwz 0,192(9)
 2527 0404 7C0903A6 		mtctr 0
 2528 0408 4E800421 		bctrl
 2529              		.loc 3 66 0
 2530 040c 817B0000 		lwz 11,0(27)
 2531 0410 813D0000 		lwz 9,0(29)
 2532 0414 3C004330 		lis 0,0x4330
 2533 0418 6D6B8000 		xoris 11,11,0x8000
 2534 041c 90010018 		stw 0,24(1)
 2535 0420 6D298000 		xoris 9,9,0x8000
 2536 0424 9161001C 		stw 11,28(1)
 2537 0428 91210024 		stw 9,36(1)
 2538 042c 3D200000 		lis 9,.LC5@ha
 2539 0430 90010020 		stw 0,32(1)
 2540 0434 38610008 		addi 3,1,8
 2541 0438 C01C0000 		lfs 0,0(28)
 2542              		.loc 3 65 0
 2543 043c 38000000 		li 0,0
 2544              		.loc 3 66 0
 2545 0440 C8810018 		lfd 4,24(1)
 2546 0444 38800000 		li 4,0
 2547 0448 C8A10020 		lfd 5,32(1)
 2548 044c 38A00001 		li 5,1
 2549 0450 FC840028 		fsub 4,4,0
 2550 0454 C0290010 		lfs 1,.LC5@l(9)
 2551 0458 FCA50028 		fsub 5,5,0
 2552 045c C07A0000 		lfs 3,0(26)
 2553 0460 FC400890 		fmr 2,1
 2554              		.loc 3 65 0
 2555 0464 9BE1000B 		stb 31,11(1)
 2556              		.loc 3 66 0
 2557 0468 FC802018 		frsp 4,4
 2558              		.loc 3 65 0
 2559 046c 98010008 		stb 0,8(1)
 2560              		.loc 3 66 0
 2561 0470 FCA02818 		frsp 5,5
 2562              		.loc 3 65 0
 2563 0474 98010009 		stb 0,9(1)
 2564 0478 9801000A 		stb 0,10(1)
 2565              		.loc 3 66 0
 2566 047c 48000001 		bl _Z18Menu_DrawRectanglefffffP9_gx_colorbb
 2567              		.loc 3 67 0
 2568 0480 48000001 		bl _Z11Menu_Renderv
 2569              	.LVL182:
 2570              	.LBE3155:
 2571              		.loc 3 62 0
 2572 0484 2F9F00FF 		cmpwi 7,31,255
 2573 0488 3BFF000F 		addi 31,31,15
 2574              	.LVL183:
 2575 048c 409EFF6C 		bne+ 7,.L136
 2576              	.LBE3154:
 2577              	.LBE3153:
 2578              		.loc 3 75 0
 2579 0490 38000001 		li 0,1
 2580 0494 3D200000 		lis 9,_ZN11Application15exitApplicationE@ha
 2581 0498 98090000 		stb 0,_ZN11Application15exitApplicationE@l(9)
 2582              		.loc 3 76 0
 2583 049c 80010044 		lwz 0,68(1)
 2584 04a0 83410028 		lwz 26,40(1)
 2585 04a4 7C0803A6 		mtlr 0
 2586 04a8 8361002C 		lwz 27,44(1)
 2587 04ac 83810030 		lwz 28,48(1)
 2588 04b0 83A10034 		lwz 29,52(1)
 2589 04b4 83C10038 		lwz 30,56(1)
 2590              	.LVL184:
 2591 04b8 83E1003C 		lwz 31,60(1)
 2592              	.LVL185:
 2593 04bc 38210040 		addi 1,1,64
 2594              	.LCFI58:
 2595              		.cfi_def_cfa_offset 0
 2596              		.cfi_restore 31
 2597              		.cfi_restore 30
 2598              		.cfi_restore 29
 2599              		.cfi_restore 28
 2600              		.cfi_restore 27
 2601              		.cfi_restore 26
 2602 04c0 4E800020 		blr
 2603              		.cfi_endproc
 2604              	.LFE1746:
 2605              		.size	_ZN11Application4quitEv, .-_ZN11Application4quitEv
 2606              		.align 2
 2607              		.globl _ZN11Application18ProcessDeleteQueueEv
 2608              		.type	_ZN11Application18ProcessDeleteQueueEv, @function
 2609              	_ZN11Application18ProcessDeleteQueueEv:
 2610              	.LFB1751:
 2611              		.loc 3 151 0
 2612              		.cfi_startproc
 2613              	.LVL186:
 2614 04c4 7C0802A6 		mflr 0
 2615 04c8 9421FFE0 		stwu 1,-32(1)
 2616              	.LCFI59:
 2617              		.cfi_def_cfa_offset 32
 2618              		.cfi_register 65, 0
 2619 04cc 93E1001C 		stw 31,28(1)
 2620 04d0 7C7F1B78 		mr 31,3
 2621              		.cfi_offset 31, -4
 2622 04d4 90010024 		stw 0,36(1)
 2623 04d8 93410008 		stw 26,8(1)
 2624              	.LBB3219:
 2625              		.loc 3 152 0
 2626 04dc 80630274 		lwz 3,628(3)
 2627              	.LVL187:
 2628              	.LBE3219:
 2629              		.loc 3 151 0
 2630 04e0 9361000C 		stw 27,12(1)
 2631 04e4 93810010 		stw 28,16(1)
 2632 04e8 93A10014 		stw 29,20(1)
 2633 04ec 93C10018 		stw 30,24(1)
 2634              	.LBB3297:
 2635              		.loc 3 152 0
 2636              		.cfi_offset 30, -8
 2637              		.cfi_offset 29, -12
 2638              		.cfi_offset 28, -16
 2639              		.cfi_offset 27, -20
 2640              		.cfi_offset 26, -24
 2641              		.cfi_offset 65, 4
 2642 04f0 48000001 		bl LWP_MutexLock
 2643              	.LVL188:
 2644              		.loc 3 272 0
 2645 04f4 817F0268 		lwz 11,616(31)
 2646              	.LBB3220:
 2647              	.LBB3221:
 2648              	.LBB3222:
 2649              		.file 8 "d:\\devkitpro\\devkitppc\\bin\\../lib/gcc/powerpc-eabi/4.6.3/../../../../powerpc-eabi/inc
 2650              		.loc 8 571 0
 2651 04f8 801F026C 		lwz 0,620(31)
 2652 04fc 7C0B0050 		subf 0,11,0
 2653              	.LBE3222:
 2654              	.LBE3221:
 2655              		.loc 3 153 0
 2656 0500 5408F0BF 		srwi. 8,0,2
 2657 0504 41820164 		beq- 0,.L139
 2658 0508 3BA00000 		li 29,0
 2659 050c 48000020 		b .L149
 2660              	.LVL189:
 2661              	.L152:
 2662              	.LBB3226:
 2663              	.LBB3227:
 2664              		.loc 3 158 0
 2665 0510 801F026C 		lwz 0,620(31)
 2666              	.LBE3227:
 2667              	.LBE3226:
 2668              		.loc 3 153 0
 2669 0514 3BBD0001 		addi 29,29,1
 2670              	.LVL190:
 2671              	.LBB3290:
 2672              	.LBB3285:
 2673              		.loc 3 158 0
 2674 0518 817F0268 		lwz 11,616(31)
 2675              	.LVL191:
 2676              	.LBE3285:
 2677              	.LBE3290:
 2678              	.LBB3291:
 2679              	.LBB3223:
 2680              		.loc 8 571 0
 2681 051c 7C0B0050 		subf 0,11,0
 2682 0520 7C001670 		srawi 0,0,2
 2683              	.LBE3223:
 2684              	.LBE3291:
 2685              		.loc 3 153 0
 2686 0524 7F9D0040 		cmplw 7,29,0
 2687 0528 409C0140 		bge- 7,.L139
 2688              	.LVL192:
 2689              	.L149:
 2690              	.LBB3292:
 2691              	.LBB3286:
 2692              	.LBB3287:
 2693              		.loc 8 696 0
 2694 052c 57BE103A 		slwi 30,29,2
 2695              	.LBE3287:
 2696              	.LBE3286:
 2697              		.loc 3 155 0
 2698 0530 7C6BF02E 		lwzx 3,11,30
 2699 0534 81230000 		lwz 9,0(3)
 2700 0538 8009000C 		lwz 0,12(9)
 2701 053c 7C0903A6 		mtctr 0
 2702 0540 4E800421 		bctrl
 2703              	.LVL193:
 2704              	.LBB3288:
 2705              		.loc 3 158 0
 2706 0544 7C7C1B79 		mr. 28,3
 2707 0548 41820054 		beq- 0,.L140
 2708              	.LVL194:
 2709              		.loc 3 158 0 is_stmt 0 discriminator 2
 2710 054c 813F0268 		lwz 9,616(31)
 2711 0550 7C69F02E 		lwzx 3,9,30
 2712              	.LVL195:
 2713 0554 81230000 		lwz 9,0(3)
 2714 0558 8009009C 		lwz 0,156(9)
 2715 055c 7C0903A6 		mtctr 0
 2716 0560 4E800421 		bctrl
 2717 0564 2F830000 		cmpwi 7,3,0
 2718 0568 40BEFFA8 		bne- 7,.L152
 2719              	.LBB3228:
 2720              	.LBB3229:
 2721              		.loc 3 163 0 is_stmt 1 discriminator 4
 2722 056c 3C800000 		lis 4,_ZTI10GuiElement@ha
 2723 0570 3CA00000 		lis 5,_ZTI8GuiFrame@ha
 2724 0574 7F83E378 		mr 3,28
 2725 0578 38840000 		la 4,_ZTI10GuiElement@l(4)
 2726 057c 38A50000 		la 5,_ZTI8GuiFrame@l(5)
 2727 0580 38C00000 		li 6,0
 2728 0584 48000001 		bl __dynamic_cast
 2729              	.LVL196:
 2730              		.loc 3 164 0 discriminator 4
 2731 0588 2F830000 		cmpwi 7,3,0
 2732 058c 419E0010 		beq- 7,.L140
 2733              	.LVL197:
 2734              		.loc 3 165 0
 2735 0590 813F0268 		lwz 9,616(31)
 2736 0594 7C89F02E 		lwzx 4,9,30
 2737 0598 48000001 		bl _ZN8GuiFrame6RemoveEP10GuiElement
 2738              	.LVL198:
 2739              	.L140:
 2740              	.LBE3229:
 2741              	.LBB3230:
 2742              		.loc 3 272 0
 2743 059c 813F025C 		lwz 9,604(31)
 2744 05a0 815F0260 		lwz 10,608(31)
 2745              	.LBE3230:
 2746              	.LBB3265:
 2747 05a4 817F0268 		lwz 11,616(31)
 2748              	.LVL199:
 2749              	.LBE3265:
 2750              	.LBB3266:
 2751              	.LBB3231:
 2752              	.LBB3232:
 2753              	.LBB3233:
 2754              		.loc 8 571 0
 2755 05a8 7C095050 		subf 0,9,10
 2756              	.LBE3233:
 2757              	.LBE3232:
 2758              		.loc 4 69 0
 2759 05ac 5408F0BF 		srwi. 8,0,2
 2760              	.LBE3231:
 2761              	.LBE3266:
 2762              	.LBB3267:
 2763              	.LBB3268:
 2764              		.loc 8 696 0
 2765 05b0 7C6BF214 		add 3,11,30
 2766              	.LBE3268:
 2767              	.LBE3267:
 2768              		.loc 3 168 0
 2769 05b4 7F6BF02E 		lwzx 27,11,30
 2770              	.LVL200:
 2771              	.LBB3269:
 2772              	.LBB3263:
 2773              		.loc 4 69 0
 2774 05b8 41820040 		beq- 0,.L143
 2775 05bc 7D204B78 		mr 0,9
 2776 05c0 3B800000 		li 28,0
 2777              	.LVL201:
 2778              	.L146:
 2779              		.loc 3 150 0
 2780 05c4 579A103A 		slwi 26,28,2
 2781              		.loc 4 69 0
 2782 05c8 3B9C0001 		addi 28,28,1
 2783              	.LVL202:
 2784              		.loc 4 70 0
 2785 05cc 7D29D02E 		lwzx 9,9,26
 2786 05d0 7F9B4800 		cmpw 7,27,9
 2787 05d4 419E00C4 		beq- 7,.L153
 2788              	.L144:
 2789              	.LVL203:
 2790              	.LBB3236:
 2791              	.LBB3234:
 2792              		.loc 8 571 0
 2793 05d8 7D605050 		subf 11,0,10
 2794              	.LBE3234:
 2795              	.LBE3236:
 2796              		.loc 3 272 0
 2797 05dc 7C090378 		mr 9,0
 2798              	.LBB3237:
 2799              	.LBB3235:
 2800              		.loc 8 571 0
 2801 05e0 7D6B1670 		srawi 11,11,2
 2802              	.LBE3235:
 2803              	.LBE3237:
 2804              		.loc 4 69 0
 2805 05e4 7F9C5840 		cmplw 7,28,11
 2806 05e8 419CFFDC 		blt+ 7,.L146
 2807 05ec 817F0268 		lwz 11,616(31)
 2808 05f0 7F6BF02E 		lwzx 27,11,30
 2809              	.LVL204:
 2810 05f4 7C6BF214 		add 3,11,30
 2811              	.LVL205:
 2812              	.L143:
 2813              	.LBE3263:
 2814              	.LBE3269:
 2815              		.loc 3 169 0
 2816 05f8 2F9B0000 		cmpwi 7,27,0
 2817 05fc 419E0020 		beq- 7,.L147
 2818              		.loc 3 169 0 is_stmt 0 discriminator 1
 2819 0600 813B0000 		lwz 9,0(27)
 2820 0604 7F63DB78 		mr 3,27
 2821 0608 80090004 		lwz 0,4(9)
 2822 060c 7C0903A6 		mtctr 0
 2823 0610 4E800421 		bctrl
 2824 0614 817F0268 		lwz 11,616(31)
 2825 0618 7C6BF214 		add 3,11,30
 2826              	.L147:
 2827              	.LVL206:
 2828              	.LBB3270:
 2829              	.LBB3271:
 2830              	.LBB3272:
 2831              		.loc 3 272 0 is_stmt 1
 2832 061c 813F026C 		lwz 9,620(31)
 2833              	.LBE3272:
 2834              	.LBB3273:
 2835              	.LBB3274:
 2836              		.file 9 "d:\\devkitpro\\devkitppc\\bin\\../lib/gcc/powerpc-eabi/4.6.3/../../../../powerpc-eabi/inc
 2837              		.loc 9 773 0
 2838 0620 38830004 		addi 4,3,4
 2839              	.LVL207:
 2840              	.LBE3274:
 2841              	.LBE3273:
 2842              		.file 10 "d:\\devkitpro\\devkitppc\\bin\\../lib/gcc/powerpc-eabi/4.6.3/../../../../powerpc-eabi/in
 2843              		.loc 10 138 0
 2844 0624 7F844800 		cmpw 7,4,9
 2845 0628 419E0020 		beq- 7,.L148
 2846              	.LVL208:
 2847              	.LBB3275:
 2848              	.LBB3276:
 2849              	.LBB3277:
 2850              	.LBB3278:
 2851              	.LBB3279:
 2852              	.LBB3280:
 2853              		.file 11 "d:\\devkitpro\\devkitppc\\bin\\../lib/gcc/powerpc-eabi/4.6.3/../../../../powerpc-eabi/in
 2854              		.loc 11 364 0
 2855 062c 7CA44850 		subf 5,4,9
 2856              	.LVL209:
 2857              		.loc 11 365 0
 2858 0630 7CA51671 		srawi. 5,5,2
 2859              	.LVL210:
 2860 0634 41A20014 		beq+ 0,.L148
 2861              		.loc 11 366 0
 2862 0638 54A5103A 		slwi 5,5,2
 2863              	.LVL211:
 2864 063c 48000001 		bl memmove
 2865              	.LVL212:
 2866 0640 813F026C 		lwz 9,620(31)
 2867 0644 817F0268 		lwz 11,616(31)
 2868              	.LVL213:
 2869              	.L148:
 2870              	.LBE3280:
 2871              	.LBE3279:
 2872              	.LBE3278:
 2873              	.LBE3277:
 2874              	.LBE3276:
 2875              	.LBE3275:
 2876              		.loc 10 140 0
 2877 0648 3809FFFC 		addi 0,9,-4
 2878              	.LBE3271:
 2879              	.LBE3270:
 2880              		.loc 3 171 0
 2881 064c 3BBDFFFF 		addi 29,29,-1
 2882              	.LVL214:
 2883              	.LBB3282:
 2884              	.LBB3281:
 2885              		.loc 10 140 0
 2886 0650 901F026C 		stw 0,620(31)
 2887              	.LBE3281:
 2888              	.LBE3282:
 2889              	.LBE3228:
 2890              	.LBE3288:
 2891              	.LBE3292:
 2892              	.LBB3293:
 2893              	.LBB3224:
 2894              		.loc 8 571 0
 2895 0654 7C0B0050 		subf 0,11,0
 2896              	.LBE3224:
 2897              	.LBE3293:
 2898              		.loc 3 153 0
 2899 0658 3BBD0001 		addi 29,29,1
 2900              	.LVL215:
 2901              	.LBB3294:
 2902              	.LBB3225:
 2903              		.loc 8 571 0
 2904 065c 7C001670 		srawi 0,0,2
 2905              	.LBE3225:
 2906              	.LBE3294:
 2907              		.loc 3 153 0
 2908 0660 7F9D0040 		cmplw 7,29,0
 2909 0664 419CFEC8 		blt+ 7,.L149
 2910              	.LVL216:
 2911              	.L139:
 2912              	.LBE3220:
 2913              		.loc 3 174 0
 2914 0668 807F0274 		lwz 3,628(31)
 2915 066c 48000001 		bl LWP_MutexUnlock
 2916              	.LBE3297:
 2917              		.loc 3 175 0
 2918 0670 80010024 		lwz 0,36(1)
 2919 0674 83410008 		lwz 26,8(1)
 2920 0678 7C0803A6 		mtlr 0
 2921 067c 8361000C 		lwz 27,12(1)
 2922 0680 83810010 		lwz 28,16(1)
 2923 0684 83A10014 		lwz 29,20(1)
 2924 0688 83C10018 		lwz 30,24(1)
 2925 068c 83E1001C 		lwz 31,28(1)
 2926              	.LVL217:
 2927 0690 38210020 		addi 1,1,32
 2928              		.cfi_remember_state
 2929              	.LCFI60:
 2930              		.cfi_def_cfa_offset 0
 2931              		.cfi_restore 31
 2932              		.cfi_restore 30
 2933              		.cfi_restore 29
 2934              		.cfi_restore 28
 2935              		.cfi_restore 27
 2936              		.cfi_restore 26
 2937 0694 4E800020 		blr
 2938              	.LVL218:
 2939              	.L153:
 2940              	.LCFI61:
 2941              		.cfi_restore_state
 2942              	.LBB3298:
 2943              	.LBB3296:
 2944              	.LBB3295:
 2945              	.LBB3289:
 2946              	.LBB3284:
 2947              	.LBB3283:
 2948              	.LBB3264:
 2949              		.loc 4 71 0
 2950 0698 807F0274 		lwz 3,628(31)
 2951 069c 48000001 		bl LWP_MutexLock
 2952              	.LVL219:
 2953              	.LBB3238:
 2954              	.LBB3239:
 2955              		.loc 9 773 0
 2956 06a0 807F025C 		lwz 3,604(31)
 2957              	.LBE3239:
 2958              	.LBE3238:
 2959              	.LBB3241:
 2960              	.LBB3242:
 2961              	.LBB3243:
 2962              		.loc 3 272 0
 2963 06a4 813F0260 		lwz 9,608(31)
 2964              	.LBE3243:
 2965              	.LBE3242:
 2966              	.LBE3241:
 2967              	.LBB3260:
 2968              	.LBB3240:
 2969              		.loc 9 773 0
 2970 06a8 7C63D214 		add 3,3,26
 2971              	.LVL220:
 2972              	.LBE3240:
 2973              	.LBE3260:
 2974              	.LBB3261:
 2975              	.LBB3258:
 2976              	.LBB3244:
 2977              	.LBB3245:
 2978 06ac 38830004 		addi 4,3,4
 2979              	.LVL221:
 2980              	.LBE3245:
 2981              	.LBE3244:
 2982              		.loc 10 138 0
 2983 06b0 7F844800 		cmpw 7,4,9
 2984              	.LBB3246:
 2985              	.LBB3247:
 2986              	.LBB3248:
 2987              	.LBB3249:
 2988              	.LBB3250:
 2989              	.LBB3251:
 2990              		.loc 11 364 0
 2991 06b4 7CA44850 		subf 5,4,9
 2992              		.loc 11 365 0
 2993 06b8 7CA51671 		srawi. 5,5,2
 2994              	.LBE3251:
 2995              	.LBE3250:
 2996              	.LBE3249:
 2997              	.LBE3248:
 2998              	.LBE3247:
 2999              	.LBE3246:
 3000              		.loc 10 138 0
 3001 06bc 419E0014 		beq- 7,.L145
 3002              	.LVL222:
 3003              	.LBB3257:
 3004              	.LBB3256:
 3005              	.LBB3255:
 3006              	.LBB3254:
 3007              	.LBB3253:
 3008              	.LBB3252:
 3009              		.loc 11 365 0
 3010 06c0 41A20010 		beq+ 0,.L145
 3011              		.loc 11 366 0
 3012 06c4 54A5103A 		slwi 5,5,2
 3013 06c8 48000001 		bl memmove
 3014              	.LVL223:
 3015 06cc 813F0260 		lwz 9,608(31)
 3016              	.LVL224:
 3017              	.L145:
 3018              	.LBE3252:
 3019              	.LBE3253:
 3020              	.LBE3254:
 3021              	.LBE3255:
 3022              	.LBE3256:
 3023              	.LBE3257:
 3024              		.loc 10 140 0
 3025 06d0 3929FFFC 		addi 9,9,-4
 3026              	.LBE3258:
 3027              	.LBE3261:
 3028              		.loc 4 73 0
 3029 06d4 807F0274 		lwz 3,628(31)
 3030              	.LBB3262:
 3031              	.LBB3259:
 3032              		.loc 10 140 0
 3033 06d8 913F0260 		stw 9,608(31)
 3034              	.LBE3259:
 3035              	.LBE3262:
 3036              		.loc 4 73 0
 3037 06dc 48000001 		bl LWP_MutexUnlock
 3038 06e0 801F025C 		lwz 0,604(31)
 3039 06e4 815F0260 		lwz 10,608(31)
 3040 06e8 4BFFFEF0 		b .L144
 3041              	.LBE3264:
 3042              	.LBE3283:
 3043              	.LBE3284:
 3044              	.LBE3289:
 3045              	.LBE3295:
 3046              	.LBE3296:
 3047              	.LBE3298:
 3048              		.cfi_endproc
 3049              	.LFE1751:
 3050              		.size	_ZN11Application18ProcessDeleteQueueEv, .-_ZN11Application18ProcessDeleteQueueEv
 3051              		.align 2
 3052              		.globl _ZN11Application11ReloadThemeEv
 3053              		.type	_ZN11Application11ReloadThemeEv, @function
 3054              	_ZN11Application11ReloadThemeEv:
 3055              	.LFB1757:
 3056              		.loc 3 251 0
 3057              		.cfi_startproc
 3058              	.LVL225:
 3059              	.LBB3300:
 3060              		.loc 3 252 0
 3061 06ec 3D200000 		lis 9,_ZN11Application11reloadThemeE@ha
 3062              	.LBE3300:
 3063              		.loc 3 251 0
 3064 06f0 7C0802A6 		mflr 0
 3065              	.LBB3301:
 3066              		.loc 3 252 0
 3067 06f4 A8690000 		lha 3,_ZN11Application11reloadThemeE@l(9)
 3068              	.LVL226:
 3069              	.LBE3301:
 3070              		.loc 3 251 0
 3071 06f8 9421FFF0 		stwu 1,-16(1)
 3072              	.LCFI62:
 3073              		.cfi_def_cfa_offset 16
 3074              		.cfi_register 65, 0
 3075              	.LBB3302:
 3076              		.loc 3 252 0
 3077 06fc 2F830000 		cmpwi 7,3,0
 3078              	.LBE3302:
 3079              		.loc 3 251 0
 3080 0700 90010014 		stw 0,20(1)
 3081 0704 93E1000C 		stw 31,12(1)
 3082              	.LBB3303:
 3083              		.loc 3 252 0
 3084 0708 419E0038 		beq- 7,.L154
 3085              		.cfi_offset 31, -4
 3086              		.cfi_offset 65, 4
 3087              	.LVL227:
 3088              		.loc 3 258 0
 3089 070c 3FE00000 		lis 31,_ZN11Application13returnToThemeE@ha
 3090 0710 68630001 		xori 3,3,1
 3091              	.LVL228:
 3092 0714 889F0000 		lbz 4,_ZN11Application13returnToThemeE@l(31)
 3093 0718 7C630034 		cntlzw 3,3
 3094              	.LVL229:
 3095              		.loc 3 256 0
 3096 071c 38000000 		li 0,0
 3097              		.loc 3 258 0
 3098 0720 5463D97E 		srwi 3,3,5
 3099 0724 3084FFFF 		addic 4,4,-1
 3100 0728 7C842110 		subfe 4,4,4
 3101              		.loc 3 256 0
 3102 072c B0090000 		sth 0,_ZN11Application11reloadThemeE@l(9)
 3103              		.loc 3 258 0
 3104 0730 60840003 		ori 4,4,3
 3105 0734 48000001 		bl _ZN5Theme6ReloadEbs
 3106              		.loc 3 260 0
 3107 0738 38000001 		li 0,1
 3108 073c 981F0000 		stb 0,_ZN11Application13returnToThemeE@l(31)
 3109              	.L154:
 3110              	.LBE3303:
 3111              		.loc 3 261 0
 3112 0740 80010014 		lwz 0,20(1)
 3113 0744 83E1000C 		lwz 31,12(1)
 3114 0748 7C0803A6 		mtlr 0
 3115 074c 38210010 		addi 1,1,16
 3116              	.LCFI63:
 3117              		.cfi_def_cfa_offset 0
 3118              		.cfi_restore 31
 3119 0750 4E800020 		blr
 3120              		.cfi_endproc
 3121              	.LFE1757:
 3122              		.size	_ZN11Application11ReloadThemeEv, .-_ZN11Application11ReloadThemeEv
 3123              		.align 2
 3124              		.globl _ZN11Application14ReloadLanguageEv
 3125              		.type	_ZN11Application14ReloadLanguageEv, @function
 3126              	_ZN11Application14ReloadLanguageEv:
 3127              	.LFB1758:
 3128              		.loc 3 264 0
 3129              		.cfi_startproc
 3130              	.LVL230:
 3131 0754 7C0802A6 		mflr 0
 3132 0758 9421FFF8 		stwu 1,-8(1)
 3133              	.LCFI64:
 3134              		.cfi_def_cfa_offset 8
 3135              		.cfi_register 65, 0
 3136              		.loc 3 265 0
 3137 075c 3D200000 		lis 9,_ZN11Application14reloadLanguageE@ha
 3138              		.loc 3 264 0
 3139 0760 9001000C 		stw 0,12(1)
 3140              		.loc 3 265 0
 3141 0764 88090000 		lbz 0,_ZN11Application14reloadLanguageE@l(9)
 3142              		.cfi_offset 65, 4
 3143 0768 2F800000 		cmpwi 7,0,0
 3144 076c 41BE002C 		beq+ 7,.L158
 3145              		.loc 3 270 0
 3146 0770 3C600000 		lis 3,Settings@ha
 3147              	.LVL231:
 3148              		.loc 3 268 0
 3149 0774 38000000 		li 0,0
 3150              		.loc 3 270 0
 3151 0778 38630000 		la 3,Settings@l(3)
 3152 077c 38A0FFFF 		li 5,-1
 3153 0780 38830526 		addi 4,3,1318
 3154              		.loc 3 268 0
 3155 0784 98090000 		stb 0,_ZN11Application14reloadLanguageE@l(9)
 3156              		.loc 3 270 0
 3157 0788 48000001 		bl _ZN9CSettings12LoadLanguageEPKci
 3158              		.loc 3 271 0
 3159 078c 38600000 		li 3,0
 3160 0790 38800000 		li 4,0
 3161 0794 48000001 		bl _ZN5Theme6ReloadEbs
 3162              	.L158:
 3163              		.loc 3 272 0
 3164 0798 8001000C 		lwz 0,12(1)
 3165 079c 38210008 		addi 1,1,8
 3166              	.LCFI65:
 3167              		.cfi_def_cfa_offset 0
 3168 07a0 7C0803A6 		mtlr 0
 3169 07a4 4E800020 		blr
 3170              		.cfi_endproc
 3171              	.LFE1758:
 3172              		.size	_ZN11Application14ReloadLanguageEv, .-_ZN11Application14ReloadLanguageEv
 3173              		.section	.text._ZNSt6vectorIP10GuiElementSaIS1_EE13_M_insert_auxEN9__gnu_cxx17__normal_iteratorIPS
 3174              		.align 2
 3175              		.weak	_ZNSt6vectorIP10GuiElementSaIS1_EE13_M_insert_auxEN9__gnu_cxx17__normal_iteratorIPS1_S3_EERK
 3176              		.type	_ZNSt6vectorIP10GuiElementSaIS1_EE13_M_insert_auxEN9__gnu_cxx17__normal_iteratorIPS1_S3_EERK
 3177              	_ZNSt6vectorIP10GuiElementSaIS1_EE13_M_insert_auxEN9__gnu_cxx17__normal_iteratorIPS1_S3_EERKS1_:
 3178              	.LFB1902:
 3179              		.loc 10 300 0
 3180              		.cfi_startproc
 3181              	.LVL232:
 3182 0000 7C0802A6 		mflr 0
 3183 0004 9421FFD8 		stwu 1,-40(1)
 3184              	.LCFI66:
 3185              		.cfi_def_cfa_offset 40
 3186              		.cfi_register 65, 0
 3187 0008 93610014 		stw 27,20(1)
 3188 000c 9001002C 		stw 0,44(1)
 3189 0010 93C10020 		stw 30,32(1)
 3190              	.LBB3366:
 3191              		.loc 10 304 0
 3192 0014 83630004 		lwz 27,4(3)
 3193              		.cfi_offset 30, -8
 3194              		.cfi_offset 65, 4
 3195              		.cfi_offset 27, -20
 3196 0018 80030008 		lwz 0,8(3)
 3197              	.LBE3366:
 3198              		.loc 10 300 0
 3199 001c 93E10024 		stw 31,36(1)
 3200 0020 7C7F1B78 		mr 31,3
 3201              		.cfi_offset 31, -4
 3202              	.LBB3491:
 3203              		.loc 10 304 0
 3204 0024 7F9B0000 		cmpw 7,27,0
 3205              	.LBE3491:
 3206              		.loc 10 300 0
 3207 0028 93410010 		stw 26,16(1)
 3208 002c 93810018 		stw 28,24(1)
 3209 0030 93A1001C 		stw 29,28(1)
 3210              		.loc 10 300 0
 3211 0034 83C40000 		lwz 30,0(4)
 3212              	.LVL233:
 3213              	.LBB3492:
 3214              		.loc 10 304 0
 3215 0038 419E0078 		beq- 7,.L161
 3216              		.cfi_offset 29, -12
 3217              		.cfi_offset 28, -16
 3218              		.cfi_offset 26, -24
 3219              	.LVL234:
 3220              	.LBB3367:
 3221              	.LBB3368:
 3222              	.LBB3369:
 3223              		.file 12 "d:\\devkitpro\\devkitppc\\bin\\../lib/gcc/powerpc-eabi/4.6.3/../../../../powerpc-eabi/in
 3224              		.loc 12 108 0
 3225 003c 2F9B0000 		cmpwi 7,27,0
 3226 0040 38600000 		li 3,0
 3227              	.LVL235:
 3228 0044 419E0010 		beq- 7,.L162
 3229 0048 801BFFFC 		lwz 0,-4(27)
 3230 004c 901B0000 		stw 0,0(27)
 3231 0050 807F0004 		lwz 3,4(31)
 3232              	.L162:
 3233              	.LBE3369:
 3234              	.LBE3368:
 3235              		.loc 10 313 0
 3236 0054 3803FFFC 		addi 0,3,-4
 3237              		.loc 10 309 0
 3238 0058 39230004 		addi 9,3,4
 3239              	.LBB3370:
 3240              	.LBB3371:
 3241              	.LBB3372:
 3242              	.LBB3373:
 3243              	.LBB3374:
 3244              	.LBB3375:
 3245              		.loc 11 559 0
 3246 005c 7C1E0050 		subf 0,30,0
 3247              	.LBE3375:
 3248              	.LBE3374:
 3249              	.LBE3373:
 3250              	.LBE3372:
 3251              	.LBE3371:
 3252              	.LBE3370:
 3253              		.loc 10 309 0
 3254 0060 913F0004 		stw 9,4(31)
 3255              	.LBB3391:
 3256              	.LBB3388:
 3257              	.LBB3385:
 3258              	.LBB3382:
 3259              	.LBB3379:
 3260              	.LBB3376:
 3261              		.loc 11 560 0
 3262 0064 7C001671 		srawi. 0,0,2
 3263              	.LBE3376:
 3264              	.LBE3379:
 3265              	.LBE3382:
 3266              	.LBE3385:
 3267              	.LBE3388:
 3268              	.LBE3391:
 3269              		.loc 10 311 0
 3270 0068 83E50000 		lwz 31,0(5)
 3271              	.LVL236:
 3272              	.LBB3392:
 3273              	.LBB3389:
 3274              	.LBB3386:
 3275              	.LBB3383:
 3276              	.LBB3380:
 3277              	.LBB3377:
 3278              		.loc 11 560 0
 3279 006c 40820030 		bne- 0,.L177
 3280              	.LVL237:
 3281              	.L163:
 3282              	.LBE3377:
 3283              	.LBE3380:
 3284              	.LBE3383:
 3285              	.LBE3386:
 3286              	.LBE3389:
 3287              	.LBE3392:
 3288              	.LBE3367:
 3289              	.LBE3492:
 3290              		.loc 10 373 0
 3291 0070 8001002C 		lwz 0,44(1)
 3292              	.LBB3493:
 3293              	.LBB3394:
 3294              		.loc 10 317 0
 3295 0074 93FE0000 		stw 31,0(30)
 3296              	.LBE3394:
 3297              	.LBE3493:
 3298              		.loc 10 373 0
 3299 0078 7C0803A6 		mtlr 0
 3300 007c 83410010 		lwz 26,16(1)
 3301 0080 83610014 		lwz 27,20(1)
 3302              	.LVL238:
 3303 0084 83810018 		lwz 28,24(1)
 3304 0088 83A1001C 		lwz 29,28(1)
 3305 008c 83C10020 		lwz 30,32(1)
 3306              	.LVL239:
 3307 0090 83E10024 		lwz 31,36(1)
 3308              	.LVL240:
 3309 0094 38210028 		addi 1,1,40
 3310              		.cfi_remember_state
 3311              	.LCFI67:
 3312              		.cfi_def_cfa_offset 0
 3313              		.cfi_restore 31
 3314              		.cfi_restore 30
 3315              		.cfi_restore 29
 3316              		.cfi_restore 28
 3317              		.cfi_restore 27
 3318              		.cfi_restore 26
 3319 0098 4E800020 		blr
 3320              	.LVL241:
 3321              	.L177:
 3322              	.LCFI68:
 3323              		.cfi_restore_state
 3324              	.LBB3494:
 3325              	.LBB3395:
 3326              	.LBB3393:
 3327              	.LBB3390:
 3328              	.LBB3387:
 3329              	.LBB3384:
 3330              	.LBB3381:
 3331              	.LBB3378:
 3332              		.loc 11 561 0
 3333 009c 5405103A 		slwi 5,0,2
 3334              	.LVL242:
 3335 00a0 7FC4F378 		mr 4,30
 3336 00a4 7C651850 		subf 3,5,3
 3337              	.LVL243:
 3338 00a8 48000001 		bl memmove
 3339              	.LVL244:
 3340 00ac 4BFFFFC4 		b .L163
 3341              	.LVL245:
 3342              	.L161:
 3343              	.LBE3378:
 3344              	.LBE3381:
 3345              	.LBE3384:
 3346              	.LBE3387:
 3347              	.LBE3390:
 3348              	.LBE3393:
 3349              	.LBE3395:
 3350              	.LBB3396:
 3351              	.LBB3397:
 3352              	.LBB3398:
 3353              	.LBB3399:
 3354              	.LBB3400:
 3355              		.loc 8 571 0
 3356 00b0 83830000 		lwz 28,0(3)
 3357 00b4 7F7CD850 		subf 27,28,27
 3358              	.LBE3400:
 3359              	.LBE3399:
 3360              	.LBB3401:
 3361              	.LBB3402:
 3362              		.loc 11 215 0
 3363 00b8 7F7B1671 		srawi. 27,27,2
 3364 00bc 418200E8 		beq- 0,.L165
 3365              	.LBE3402:
 3366              	.LBE3401:
 3367              		.loc 8 1244 0
 3368 00c0 5760083C 		slwi 0,27,1
 3369              	.LVL246:
 3370              		.loc 8 1245 0
 3371 00c4 7F9B0040 		cmplw 7,27,0
 3372 00c8 409D00EC 		ble- 7,.L178
 3373              	.L166:
 3374              	.LVL247:
 3375              	.LBE3398:
 3376              	.LBE3397:
 3377              	.LBB3405:
 3378              	.LBB3406:
 3379              		.loc 9 892 0
 3380 00cc 7F9CF050 		subf 28,28,30
 3381              	.LBE3406:
 3382              	.LBE3405:
 3383              		.loc 10 326 0
 3384 00d0 3B60FFFC 		li 27,-4
 3385              	.LBB3412:
 3386              	.LBB3407:
 3387              		.loc 9 892 0
 3388 00d4 7F9C1670 		srawi 28,28,2
 3389              	.LVL248:
 3390              	.L172:
 3391              	.LBE3407:
 3392              	.LBE3412:
 3393              	.LBB3413:
 3394              	.LBB3414:
 3395              	.LBB3415:
 3396              	.LBB3416:
 3397              		.loc 12 92 0
 3398 00d8 7F63DB78 		mr 3,27
 3399              	.LVL249:
 3400 00dc 90A10008 		stw 5,8(1)
 3401 00e0 48000001 		bl _Znwj
 3402              	.LVL250:
 3403 00e4 80A10008 		lwz 5,8(1)
 3404 00e8 7C7D1B78 		mr 29,3
 3405              	.L167:
 3406              	.LVL251:
 3407              	.LBE3416:
 3408              	.LBE3415:
 3409              	.LBE3414:
 3410              	.LBE3413:
 3411              		.loc 10 335 0
 3412 00ec 579C103A 		slwi 28,28,2
 3413              	.LVL252:
 3414 00f0 7C1DE214 		add 0,29,28
 3415              	.LVL253:
 3416              	.LBB3419:
 3417              	.LBB3420:
 3418              		.loc 12 108 0
 3419 00f4 2F800000 		cmpwi 7,0,0
 3420 00f8 419E000C 		beq- 7,.L168
 3421 00fc 80050000 		lwz 0,0(5)
 3422              	.LVL254:
 3423 0100 7C1DE12E 		stwx 0,29,28
 3424              	.L168:
 3425              	.LVL255:
 3426              	.LBE3420:
 3427              	.LBE3419:
 3428              		.loc 10 343 0
 3429 0104 809F0000 		lwz 4,0(31)
 3430              	.LVL256:
 3431              	.LBB3421:
 3432              	.LBB3422:
 3433              	.LBB3423:
 3434              	.LBB3424:
 3435              	.LBB3425:
 3436              	.LBB3426:
 3437              	.LBB3427:
 3438              	.LBB3428:
 3439              	.LBB3429:
 3440              	.LBB3430:
 3441              	.LBB3431:
 3442              		.loc 11 365 0
 3443 0108 3B800000 		li 28,0
 3444              		.loc 11 364 0
 3445 010c 7C04F050 		subf 0,4,30
 3446              	.LVL257:
 3447              		.loc 11 365 0
 3448 0110 7C001671 		srawi. 0,0,2
 3449              	.LVL258:
 3450 0114 41A20014 		beq+ 0,.L169
 3451              		.loc 11 366 0
 3452 0118 541C103A 		slwi 28,0,2
 3453 011c 7FA3EB78 		mr 3,29
 3454 0120 7F85E378 		mr 5,28
 3455              	.LVL259:
 3456 0124 48000001 		bl memmove
 3457              	.LVL260:
 3458              	.L169:
 3459              	.LBE3431:
 3460              	.LBE3430:
 3461              	.LBE3429:
 3462              	.LBE3428:
 3463              	.LBE3427:
 3464              	.LBE3426:
 3465              	.LBE3425:
 3466              	.LBE3424:
 3467              	.LBE3423:
 3468              	.LBE3422:
 3469              	.LBE3421:
 3470              	.LBB3442:
 3471              	.LBB3443:
 3472              	.LBB3444:
 3473              	.LBB3445:
 3474              	.LBB3446:
 3475              	.LBB3447:
 3476              	.LBB3448:
 3477              	.LBB3449:
 3478              	.LBB3450:
 3479              	.LBB3451:
 3480              	.LBB3452:
 3481              		.loc 11 364 0
 3482 0128 801F0004 		lwz 0,4(31)
 3483              	.LBE3452:
 3484              	.LBE3451:
 3485              	.LBE3450:
 3486              	.LBE3449:
 3487              	.LBE3448:
 3488              	.LBE3447:
 3489              	.LBE3446:
 3490              	.LBE3445:
 3491              	.LBE3444:
 3492              	.LBE3443:
 3493              	.LBE3442:
 3494              	.LBB3473:
 3495              	.LBB3441:
 3496              	.LBB3440:
 3497              	.LBB3439:
 3498              	.LBB3438:
 3499              	.LBB3437:
 3500              	.LBB3436:
 3501              	.LBB3435:
 3502              	.LBB3434:
 3503              	.LBB3433:
 3504              	.LBB3432:
 3505              		.loc 11 367 0
 3506 012c 7F9DE214 		add 28,29,28
 3507              	.LVL261:
 3508              	.LBE3432:
 3509              	.LBE3433:
 3510              	.LBE3434:
 3511              	.LBE3435:
 3512              	.LBE3436:
 3513              	.LBE3437:
 3514              	.LBE3438:
 3515              	.LBE3439:
 3516              	.LBE3440:
 3517              	.LBE3441:
 3518              	.LBE3473:
 3519              		.loc 10 347 0
 3520 0130 3B5C0004 		addi 26,28,4
 3521              	.LBB3474:
 3522              	.LBB3471:
 3523              	.LBB3469:
 3524              	.LBB3467:
 3525              	.LBB3465:
 3526              	.LBB3463:
 3527              	.LBB3461:
 3528              	.LBB3459:
 3529              	.LBB3457:
 3530              	.LBB3455:
 3531              	.LBB3453:
 3532              		.loc 11 365 0
 3533 0134 3B800000 		li 28,0
 3534              		.loc 11 364 0
 3535 0138 7C1E0050 		subf 0,30,0
 3536              	.LVL262:
 3537              		.loc 11 365 0
 3538 013c 7C001671 		srawi. 0,0,2
 3539              	.LVL263:
 3540 0140 41A20018 		beq+ 0,.L170
 3541              		.loc 11 366 0
 3542 0144 541C103A 		slwi 28,0,2
 3543 0148 7F43D378 		mr 3,26
 3544 014c 7FC4F378 		mr 4,30
 3545 0150 7F85E378 		mr 5,28
 3546 0154 48000001 		bl memmove
 3547              	.LVL264:
 3548              	.L170:
 3549              	.LBE3453:
 3550              	.LBE3455:
 3551              	.LBE3457:
 3552              	.LBE3459:
 3553              	.LBE3461:
 3554              	.LBE3463:
 3555              	.LBE3465:
 3556              	.LBE3467:
 3557              	.LBE3469:
 3558              	.LBE3471:
 3559              	.LBE3474:
 3560              		.loc 10 366 0
 3561 0158 807F0000 		lwz 3,0(31)
 3562              	.LBB3475:
 3563              	.LBB3472:
 3564              	.LBB3470:
 3565              	.LBB3468:
 3566              	.LBB3466:
 3567              	.LBB3464:
 3568              	.LBB3462:
 3569              	.LBB3460:
 3570              	.LBB3458:
 3571              	.LBB3456:
 3572              	.LBB3454:
 3573              		.loc 11 367 0
 3574 015c 7F9AE214 		add 28,26,28
 3575              	.LVL265:
 3576              	.LBE3454:
 3577              	.LBE3456:
 3578              	.LBE3458:
 3579              	.LBE3460:
 3580              	.LBE3462:
 3581              	.LBE3464:
 3582              	.LBE3466:
 3583              	.LBE3468:
 3584              	.LBE3470:
 3585              	.LBE3472:
 3586              	.LBE3475:
 3587              	.LBB3476:
 3588              	.LBB3477:
 3589              		.loc 8 155 0
 3590 0160 2F830000 		cmpwi 7,3,0
 3591 0164 419E0008 		beq- 7,.L171
 3592              	.LVL266:
 3593              	.LBB3478:
 3594              	.LBB3479:
 3595              		.loc 12 98 0
 3596 0168 48000001 		bl _ZdlPv
 3597              	.LVL267:
 3598              	.L171:
 3599              	.LBE3479:
 3600              	.LBE3478:
 3601              	.LBE3477:
 3602              	.LBE3476:
 3603              	.LBE3396:
 3604              	.LBE3494:
 3605              		.loc 10 373 0
 3606 016c 8001002C 		lwz 0,44(1)
 3607              	.LBB3495:
 3608              	.LBB3488:
 3609              		.loc 10 371 0
 3610 0170 7F7DDA14 		add 27,29,27
 3611              		.loc 10 369 0
 3612 0174 93BF0000 		stw 29,0(31)
 3613              	.LBE3488:
 3614              	.LBE3495:
 3615              		.loc 10 373 0
 3616 0178 7C0803A6 		mtlr 0
 3617              	.LBB3496:
 3618              	.LBB3489:
 3619              		.loc 10 370 0
 3620 017c 939F0004 		stw 28,4(31)
 3621              		.loc 10 371 0
 3622 0180 937F0008 		stw 27,8(31)
 3623              	.LBE3489:
 3624              	.LBE3496:
 3625              		.loc 10 373 0
 3626 0184 83410010 		lwz 26,16(1)
 3627              	.LVL268:
 3628 0188 83610014 		lwz 27,20(1)
 3629 018c 83810018 		lwz 28,24(1)
 3630 0190 83A1001C 		lwz 29,28(1)
 3631              	.LVL269:
 3632 0194 83C10020 		lwz 30,32(1)
 3633              	.LVL270:
 3634 0198 83E10024 		lwz 31,36(1)
 3635              	.LVL271:
 3636 019c 38210028 		addi 1,1,40
 3637              		.cfi_remember_state
 3638              		.cfi_restore 26
 3639              		.cfi_restore 27
 3640              		.cfi_restore 28
 3641              		.cfi_restore 29
 3642              		.cfi_restore 30
 3643              		.cfi_restore 31
 3644              	.LCFI69:
 3645              		.cfi_def_cfa_offset 0
 3646 01a0 4E800020 		blr
 3647              	.LVL272:
 3648              	.L165:
 3649              	.LCFI70:
 3650              		.cfi_restore_state
 3651              	.LBB3497:
 3652              	.LBB3490:
 3653              	.LBB3480:
 3654              	.LBB3408:
 3655              		.loc 9 892 0
 3656 01a4 7F9CF050 		subf 28,28,30
 3657              	.LBE3408:
 3658              	.LBE3480:
 3659              		.loc 10 326 0
 3660 01a8 3B600004 		li 27,4
 3661              	.LBB3481:
 3662              	.LBB3409:
 3663              		.loc 9 892 0
 3664 01ac 7F9C1670 		srawi 28,28,2
 3665              	.LVL273:
 3666 01b0 4BFFFF28 		b .L172
 3667              	.LVL274:
 3668              	.L178:
 3669              	.LBE3409:
 3670              	.LBE3481:
 3671              	.LBB3482:
 3672              	.LBB3403:
 3673              		.loc 8 1245 0
 3674 01b4 3D203FFF 		lis 9,0x3fff
 3675 01b8 6129FFFF 		ori 9,9,65535
 3676 01bc 7F804840 		cmplw 7,0,9
 3677 01c0 419DFF0C 		bgt+ 7,.L166
 3678              	.LBE3403:
 3679              	.LBE3482:
 3680              	.LBB3483:
 3681              	.LBB3417:
 3682              		.loc 8 150 0
 3683 01c4 2F800000 		cmpwi 7,0,0
 3684              	.LBE3417:
 3685              	.LBE3483:
 3686              	.LBB3484:
 3687              	.LBB3410:
 3688              		.loc 9 892 0
 3689 01c8 7F9CF050 		subf 28,28,30
 3690              	.LBE3410:
 3691              	.LBE3484:
 3692              	.LBB3485:
 3693              	.LBB3404:
 3694              		.loc 8 1245 0
 3695 01cc 577B1838 		slwi 27,27,3
 3696              	.LVL275:
 3697              	.LBE3404:
 3698              	.LBE3485:
 3699              	.LBB3486:
 3700              	.LBB3411:
 3701              		.loc 9 892 0
 3702 01d0 7F9C1670 		srawi 28,28,2
 3703              	.LVL276:
 3704              	.LBE3411:
 3705              	.LBE3486:
 3706              	.LBB3487:
 3707              	.LBB3418:
 3708              		.loc 8 150 0
 3709 01d4 3BA00000 		li 29,0
 3710 01d8 419EFF14 		beq+ 7,.L167
 3711 01dc 4BFFFEFC 		b .L172
 3712              	.LBE3418:
 3713              	.LBE3487:
 3714              	.LBE3490:
 3715              	.LBE3497:
 3716              		.cfi_endproc
 3717              	.LFE1902:
 3718              		.size	_ZNSt6vectorIP10GuiElementSaIS1_EE13_M_insert_auxEN9__gnu_cxx17__normal_iteratorIPS1_S3_EERK
 3719              		.section	".text"
 3720              		.align 2
 3721              		.globl _ZN11Application13PushForDeleteEP10GuiElement
 3722              		.type	_ZN11Application13PushForDeleteEP10GuiElement, @function
 3723              	_ZN11Application13PushForDeleteEP10GuiElement:
 3724              	.LFB1752:
 3725              		.loc 3 178 0
 3726              		.cfi_startproc
 3727              	.LVL277:
 3728              		.loc 3 179 0
 3729 07a8 7C892379 		mr. 9,4
 3730              		.loc 3 178 0
 3731 07ac 7C0802A6 		mflr 0
 3732 07b0 9421FFE8 		stwu 1,-24(1)
 3733              	.LCFI71:
 3734              		.cfi_def_cfa_offset 24
 3735              		.cfi_register 65, 0
 3736 07b4 93E10014 		stw 31,20(1)
 3737 07b8 7C7F1B78 		mr 31,3
 3738              		.cfi_offset 31, -4
 3739 07bc 9001001C 		stw 0,28(1)
 3740              		.loc 3 178 0
 3741 07c0 90810008 		stw 4,8(1)
 3742              		.loc 3 179 0
 3743 07c4 41820060 		beq- 0,.L179
 3744              		.cfi_offset 65, 4
 3745              		.loc 3 183 0
 3746 07c8 81690000 		lwz 11,0(9)
 3747 07cc 7D234B78 		mr 3,9
 3748              	.LVL278:
 3749 07d0 38800004 		li 4,4
 3750              	.LVL279:
 3751 07d4 38A0FFFF 		li 5,-1
 3752 07d8 800B0050 		lwz 0,80(11)
 3753 07dc 7C0903A6 		mtctr 0
 3754 07e0 4E800421 		bctrl
 3755              		.loc 3 185 0
 3756 07e4 807F0274 		lwz 3,628(31)
 3757 07e8 48000001 		bl LWP_MutexLock
 3758              	.LVL280:
 3759              	.LBB3498:
 3760              	.LBB3499:
 3761              		.loc 8 828 0
 3762 07ec 813F026C 		lwz 9,620(31)
 3763 07f0 801F0270 		lwz 0,624(31)
 3764 07f4 7F890000 		cmpw 7,9,0
 3765 07f8 419E0040 		beq- 7,.L181
 3766              	.LVL281:
 3767              	.LBB3500:
 3768              	.LBB3501:
 3769              		.loc 12 108 0
 3770 07fc 2F890000 		cmpwi 7,9,0
 3771 0800 39600000 		li 11,0
 3772 0804 419E0010 		beq- 7,.L182
 3773 0808 80010008 		lwz 0,8(1)
 3774 080c 90090000 		stw 0,0(9)
 3775 0810 817F026C 		lwz 11,620(31)
 3776              	.L182:
 3777              	.LBE3501:
 3778              	.LBE3500:
 3779              		.loc 8 831 0
 3780 0814 396B0004 		addi 11,11,4
 3781 0818 917F026C 		stw 11,620(31)
 3782              	.LVL282:
 3783              	.L183:
 3784              	.LBE3499:
 3785              	.LBE3498:
 3786              		.loc 3 187 0
 3787 081c 807F0274 		lwz 3,628(31)
 3788 0820 48000001 		bl LWP_MutexUnlock
 3789              	.LVL283:
 3790              	.L179:
 3791              		.loc 3 188 0
 3792 0824 8001001C 		lwz 0,28(1)
 3793 0828 83E10014 		lwz 31,20(1)
 3794              	.LVL284:
 3795 082c 7C0803A6 		mtlr 0
 3796 0830 38210018 		addi 1,1,24
 3797              		.cfi_remember_state
 3798              	.LCFI72:
 3799              		.cfi_def_cfa_offset 0
 3800              		.cfi_restore 31
 3801 0834 4E800020 		blr
 3802              	.LVL285:
 3803              	.L181:
 3804              	.LCFI73:
 3805              		.cfi_restore_state
 3806              	.LBB3503:
 3807              	.LBB3502:
 3808              		.loc 8 834 0
 3809 0838 7C240B78 		mr 4,1
 3810 083c 387F0268 		addi 3,31,616
 3811 0840 9524000C 		stwu 9,12(4)
 3812 0844 38A10008 		addi 5,1,8
 3813 0848 48000001 		bl _ZNSt6vectorIP10GuiElementSaIS1_EE13_M_insert_auxEN9__gnu_cxx17__normal_iteratorIPS1_S3_EERKS1_
 3814 084c 4BFFFFD0 		b .L183
 3815              	.LBE3502:
 3816              	.LBE3503:
 3817              		.cfi_endproc
 3818              	.LFE1752:
 3819              		.size	_ZN11Application13PushForDeleteEP10GuiElement, .-_ZN11Application13PushForDeleteEP10GuiEleme
 3820              		.section	.text._ZNSt8_Rb_treeIPN7sigslot12_signal_baseINS0_15single_threadedEEES4_St9_IdentityIS4_
 3821              		.align 2
 3822              		.weak	_ZNSt8_Rb_treeIPN7sigslot12_signal_baseINS0_15single_threadedEEES4_St9_IdentityIS4_ESt4lessI
 3823              		.type	_ZNSt8_Rb_treeIPN7sigslot12_signal_baseINS0_15single_threadedEEES4_St9_IdentityIS4_ESt4lessI
 3824              	_ZNSt8_Rb_treeIPN7sigslot12_signal_baseINS0_15single_threadedEEES4_St9_IdentityIS4_ESt4lessIS4_ESaI
 3825              	.LFB2068:
 3826              		.file 13 "d:\\devkitpro\\devkitppc\\bin\\../lib/gcc/powerpc-eabi/4.6.3/../../../../powerpc-eabi/in
 3827              		.loc 13 1068 0
 3828              		.cfi_startproc
 3829              	.LVL286:
 3830 0000 9421FFC8 		stwu 1,-56(1)
 3831              	.LCFI74:
 3832              		.cfi_def_cfa_offset 56
 3833 0004 7C0802A6 		mflr 0
 3834 0008 92C10010 		stw 22,16(1)
 3835              	.LBB3620:
 3836              		.loc 13 1072 0
 3837 000c 7C962379 		mr. 22,4
 3838              		.cfi_offset 22, -40
 3839              		.cfi_register 65, 0
 3840              	.LBE3620:
 3841              		.loc 13 1068 0
 3842 0010 93C10030 		stw 30,48(1)
 3843 0014 7C7E1B78 		mr 30,3
 3844              		.cfi_offset 30, -8
 3845 0018 9001003C 		stw 0,60(1)
 3846 001c 92A1000C 		stw 21,12(1)
 3847 0020 92E10014 		stw 23,20(1)
 3848 0024 93010018 		stw 24,24(1)
 3849 0028 9321001C 		stw 25,28(1)
 3850 002c 93410020 		stw 26,32(1)
 3851 0030 93610024 		stw 27,36(1)
 3852 0034 93810028 		stw 28,40(1)
 3853 0038 93A1002C 		stw 29,44(1)
 3854 003c 93E10034 		stw 31,52(1)
 3855              	.LBB3705:
 3856              		.loc 13 1072 0
 3857 0040 41820168 		beq- 0,.L185
 3858              		.cfi_offset 31, -4
 3859              		.cfi_offset 29, -12
 3860              		.cfi_offset 28, -16
 3861              		.cfi_offset 27, -20
 3862              		.cfi_offset 26, -24
 3863              		.cfi_offset 25, -28
 3864              		.cfi_offset 24, -32
 3865              		.cfi_offset 23, -36
 3866              		.cfi_offset 21, -44
 3867              		.cfi_offset 65, 4
 3868              	.LVL287:
 3869              	.L231:
 3870              		.loc 3 272 0
 3871 0044 8376000C 		lwz 27,12(22)
 3872              	.LVL288:
 3873              	.LBB3621:
 3874              	.LBB3622:
 3875              	.LBB3623:
 3876              		.loc 13 1072 0
 3877 0048 2F9B0000 		cmpwi 7,27,0
 3878 004c 419E0140 		beq- 7,.L187
 3879              	.LVL289:
 3880              	.L232:
 3881              	.LBE3623:
 3882              		.loc 3 272 0
 3883 0050 835B000C 		lwz 26,12(27)
 3884              	.LVL290:
 3885              	.LBB3699:
 3886              	.LBB3624:
 3887              	.LBB3625:
 3888              	.LBB3626:
 3889              		.loc 13 1072 0
 3890 0054 2F9A0000 		cmpwi 7,26,0
 3891 0058 419E0118 		beq- 7,.L188
 3892              	.LVL291:
 3893              	.L233:
 3894              	.LBE3626:
 3895              		.loc 3 272 0
 3896 005c 833A000C 		lwz 25,12(26)
 3897              	.LVL292:
 3898              	.LBB3692:
 3899              	.LBB3627:
 3900              	.LBB3628:
 3901              	.LBB3629:
 3902              		.loc 13 1072 0
 3903 0060 2F990000 		cmpwi 7,25,0
 3904 0064 419E00F0 		beq- 7,.L189
 3905              	.LVL293:
 3906              	.L234:
 3907              	.LBE3629:
 3908              		.loc 3 272 0
 3909 0068 8319000C 		lwz 24,12(25)
 3910              	.LVL294:
 3911              	.LBB3685:
 3912              	.LBB3630:
 3913              	.LBB3631:
 3914              	.LBB3632:
 3915              		.loc 13 1072 0
 3916 006c 2F980000 		cmpwi 7,24,0
 3917 0070 419E00C8 		beq- 7,.L190
 3918              	.LVL295:
 3919              	.L235:
 3920              	.LBE3632:
 3921              		.loc 3 272 0
 3922 0074 82F8000C 		lwz 23,12(24)
 3923              	.LVL296:
 3924              	.LBB3678:
 3925              	.LBB3633:
 3926              	.LBB3634:
 3927              	.LBB3635:
 3928              		.loc 13 1072 0
 3929 0078 2F970000 		cmpwi 7,23,0
 3930 007c 419E00A0 		beq- 7,.L191
 3931              	.LVL297:
 3932              	.L236:
 3933              	.LBE3635:
 3934              		.loc 3 272 0
 3935 0080 8397000C 		lwz 28,12(23)
 3936              	.LVL298:
 3937              	.LBB3671:
 3938              	.LBB3636:
 3939              	.LBB3637:
 3940              	.LBB3638:
 3941              		.loc 13 1072 0
 3942 0084 2F9C0000 		cmpwi 7,28,0
 3943 0088 419E0078 		beq- 7,.L192
 3944              	.LVL299:
 3945              	.L237:
 3946              	.LBE3638:
 3947              		.loc 3 272 0
 3948 008c 83BC000C 		lwz 29,12(28)
 3949              	.LVL300:
 3950              	.LBB3664:
 3951              	.LBB3639:
 3952              	.LBB3640:
 3953              	.LBB3641:
 3954              		.loc 13 1072 0
 3955 0090 2F9D0000 		cmpwi 7,29,0
 3956 0094 419E0050 		beq- 7,.L193
 3957              	.LVL301:
 3958              	.L238:
 3959              	.LBE3641:
 3960              		.loc 3 272 0
 3961 0098 83FD000C 		lwz 31,12(29)
 3962              	.LVL302:
 3963              	.LBB3657:
 3964              	.LBB3642:
 3965              	.LBB3643:
 3966              	.LBB3644:
 3967              		.loc 13 1072 0
 3968 009c 2F9F0000 		cmpwi 7,31,0
 3969 00a0 419E0028 		beq- 7,.L194
 3970              	.LVL303:
 3971              	.L239:
 3972              	.LBB3645:
 3973              		.loc 13 1074 0
 3974 00a4 809F000C 		lwz 4,12(31)
 3975 00a8 7FC3F378 		mr 3,30
 3976 00ac 48000001 		bl _ZNSt8_Rb_treeIPN7sigslot12_signal_baseINS0_15single_threadedEEES4_St9_IdentityIS4_ESt4lessIS4_
 3977              	.LBE3645:
 3978              	.LBE3644:
 3979              		.loc 3 272 0
 3980 00b0 82BF0008 		lwz 21,8(31)
 3981              	.LVL304:
 3982              	.LBB3651:
 3983              	.LBB3650:
 3984              	.LBB3646:
 3985              	.LBB3647:
 3986              	.LBB3648:
 3987              	.LBB3649:
 3988              		.loc 12 98 0
 3989 00b4 7FE3FB78 		mr 3,31
 3990 00b8 48000001 		bl _ZdlPv
 3991              	.LVL305:
 3992              	.LBE3649:
 3993              	.LBE3648:
 3994              	.LBE3647:
 3995              	.LBE3646:
 3996              	.LBE3650:
 3997              		.loc 13 1072 0
 3998 00bc 2F950000 		cmpwi 7,21,0
 3999              		.loc 13 1077 0
 4000 00c0 7EBFAB78 		mr 31,21
 4001              	.LVL306:
 4002              		.loc 13 1072 0
 4003 00c4 409EFFE0 		bne+ 7,.L239
 4004              	.LVL307:
 4005              	.L194:
 4006              	.LBE3651:
 4007              	.LBE3643:
 4008              	.LBE3642:
 4009              	.LBE3657:
 4010              		.loc 3 272 0
 4011 00c8 83FD0008 		lwz 31,8(29)
 4012              	.LVL308:
 4013              	.LBB3658:
 4014              	.LBB3656:
 4015              	.LBB3652:
 4016              	.LBB3653:
 4017              	.LBB3654:
 4018              	.LBB3655:
 4019              		.loc 12 98 0
 4020 00cc 7FA3EB78 		mr 3,29
 4021 00d0 48000001 		bl _ZdlPv
 4022              	.LVL309:
 4023              	.LBE3655:
 4024              	.LBE3654:
 4025              	.LBE3653:
 4026              	.LBE3652:
 4027              	.LBE3656:
 4028              		.loc 13 1072 0
 4029 00d4 2F9F0000 		cmpwi 7,31,0
 4030 00d8 419E000C 		beq- 7,.L193
 4031              		.loc 13 1077 0
 4032 00dc 7FFDFB78 		mr 29,31
 4033              	.LVL310:
 4034 00e0 4BFFFFB8 		b .L238
 4035              	.LVL311:
 4036              	.L193:
 4037              	.LBE3658:
 4038              	.LBE3640:
 4039              	.LBE3639:
 4040              	.LBE3664:
 4041              		.loc 3 272 0
 4042 00e4 83FC0008 		lwz 31,8(28)
 4043              	.LVL312:
 4044              	.LBB3665:
 4045              	.LBB3663:
 4046              	.LBB3659:
 4047              	.LBB3660:
 4048              	.LBB3661:
 4049              	.LBB3662:
 4050              		.loc 12 98 0
 4051 00e8 7F83E378 		mr 3,28
 4052 00ec 48000001 		bl _ZdlPv
 4053              	.LVL313:
 4054              	.LBE3662:
 4055              	.LBE3661:
 4056              	.LBE3660:
 4057              	.LBE3659:
 4058              	.LBE3663:
 4059              		.loc 13 1072 0
 4060 00f0 2F9F0000 		cmpwi 7,31,0
 4061 00f4 419E000C 		beq- 7,.L192
 4062              		.loc 13 1077 0
 4063 00f8 7FFCFB78 		mr 28,31
 4064              	.LVL314:
 4065 00fc 4BFFFF90 		b .L237
 4066              	.LVL315:
 4067              	.L192:
 4068              	.LBE3665:
 4069              	.LBE3637:
 4070              	.LBE3636:
 4071              	.LBE3671:
 4072              		.loc 3 272 0
 4073 0100 83F70008 		lwz 31,8(23)
 4074              	.LVL316:
 4075              	.LBB3672:
 4076              	.LBB3670:
 4077              	.LBB3666:
 4078              	.LBB3667:
 4079              	.LBB3668:
 4080              	.LBB3669:
 4081              		.loc 12 98 0
 4082 0104 7EE3BB78 		mr 3,23
 4083 0108 48000001 		bl _ZdlPv
 4084              	.LVL317:
 4085              	.LBE3669:
 4086              	.LBE3668:
 4087              	.LBE3667:
 4088              	.LBE3666:
 4089              	.LBE3670:
 4090              		.loc 13 1072 0
 4091 010c 2F9F0000 		cmpwi 7,31,0
 4092 0110 419E000C 		beq- 7,.L191
 4093              		.loc 13 1077 0
 4094 0114 7FF7FB78 		mr 23,31
 4095              	.LVL318:
 4096 0118 4BFFFF68 		b .L236
 4097              	.LVL319:
 4098              	.L191:
 4099              	.LBE3672:
 4100              	.LBE3634:
 4101              	.LBE3633:
 4102              	.LBE3678:
 4103              		.loc 3 272 0
 4104 011c 83F80008 		lwz 31,8(24)
 4105              	.LVL320:
 4106              	.LBB3679:
 4107              	.LBB3677:
 4108              	.LBB3673:
 4109              	.LBB3674:
 4110              	.LBB3675:
 4111              	.LBB3676:
 4112              		.loc 12 98 0
 4113 0120 7F03C378 		mr 3,24
 4114 0124 48000001 		bl _ZdlPv
 4115              	.LVL321:
 4116              	.LBE3676:
 4117              	.LBE3675:
 4118              	.LBE3674:
 4119              	.LBE3673:
 4120              	.LBE3677:
 4121              		.loc 13 1072 0
 4122 0128 2F9F0000 		cmpwi 7,31,0
 4123 012c 419E000C 		beq- 7,.L190
 4124              		.loc 13 1077 0
 4125 0130 7FF8FB78 		mr 24,31
 4126              	.LVL322:
 4127 0134 4BFFFF40 		b .L235
 4128              	.LVL323:
 4129              	.L190:
 4130              	.LBE3679:
 4131              	.LBE3631:
 4132              	.LBE3630:
 4133              	.LBE3685:
 4134              		.loc 3 272 0
 4135 0138 83F90008 		lwz 31,8(25)
 4136              	.LVL324:
 4137              	.LBB3686:
 4138              	.LBB3684:
 4139              	.LBB3680:
 4140              	.LBB3681:
 4141              	.LBB3682:
 4142              	.LBB3683:
 4143              		.loc 12 98 0
 4144 013c 7F23CB78 		mr 3,25
 4145 0140 48000001 		bl _ZdlPv
 4146              	.LVL325:
 4147              	.LBE3683:
 4148              	.LBE3682:
 4149              	.LBE3681:
 4150              	.LBE3680:
 4151              	.LBE3684:
 4152              		.loc 13 1072 0
 4153 0144 2F9F0000 		cmpwi 7,31,0
 4154 0148 419E000C 		beq- 7,.L189
 4155              		.loc 13 1077 0
 4156 014c 7FF9FB78 		mr 25,31
 4157              	.LVL326:
 4158 0150 4BFFFF18 		b .L234
 4159              	.LVL327:
 4160              	.L189:
 4161              	.LBE3686:
 4162              	.LBE3628:
 4163              	.LBE3627:
 4164              	.LBE3692:
 4165              		.loc 3 272 0
 4166 0154 83FA0008 		lwz 31,8(26)
 4167              	.LVL328:
 4168              	.LBB3693:
 4169              	.LBB3691:
 4170              	.LBB3687:
 4171              	.LBB3688:
 4172              	.LBB3689:
 4173              	.LBB3690:
 4174              		.loc 12 98 0
 4175 0158 7F43D378 		mr 3,26
 4176 015c 48000001 		bl _ZdlPv
 4177              	.LVL329:
 4178              	.LBE3690:
 4179              	.LBE3689:
 4180              	.LBE3688:
 4181              	.LBE3687:
 4182              	.LBE3691:
 4183              		.loc 13 1072 0
 4184 0160 2F9F0000 		cmpwi 7,31,0
 4185 0164 419E000C 		beq- 7,.L188
 4186              		.loc 13 1077 0
 4187 0168 7FFAFB78 		mr 26,31
 4188              	.LVL330:
 4189 016c 4BFFFEF0 		b .L233
 4190              	.LVL331:
 4191              	.L188:
 4192              	.LBE3693:
 4193              	.LBE3625:
 4194              	.LBE3624:
 4195              	.LBE3699:
 4196              		.loc 3 272 0
 4197 0170 83FB0008 		lwz 31,8(27)
 4198              	.LVL332:
 4199              	.LBB3700:
 4200              	.LBB3698:
 4201              	.LBB3694:
 4202              	.LBB3695:
 4203              	.LBB3696:
 4204              	.LBB3697:
 4205              		.loc 12 98 0
 4206 0174 7F63DB78 		mr 3,27
 4207 0178 48000001 		bl _ZdlPv
 4208              	.LVL333:
 4209              	.LBE3697:
 4210              	.LBE3696:
 4211              	.LBE3695:
 4212              	.LBE3694:
 4213              	.LBE3698:
 4214              		.loc 13 1072 0
 4215 017c 2F9F0000 		cmpwi 7,31,0
 4216 0180 419E000C 		beq- 7,.L187
 4217              		.loc 13 1077 0
 4218 0184 7FFBFB78 		mr 27,31
 4219              	.LVL334:
 4220 0188 4BFFFEC8 		b .L232
 4221              	.LVL335:
 4222              	.L187:
 4223              		.loc 3 272 0
 4224 018c 83F60008 		lwz 31,8(22)
 4225              	.LVL336:
 4226              	.LBE3700:
 4227              	.LBE3622:
 4228              	.LBB3701:
 4229              	.LBB3702:
 4230              	.LBB3703:
 4231              	.LBB3704:
 4232              		.loc 12 98 0
 4233 0190 7EC3B378 		mr 3,22
 4234 0194 48000001 		bl _ZdlPv
 4235              	.LVL337:
 4236              	.LBE3704:
 4237              	.LBE3703:
 4238              	.LBE3702:
 4239              	.LBE3701:
 4240              	.LBE3621:
 4241              		.loc 13 1072 0
 4242 0198 2F9F0000 		cmpwi 7,31,0
 4243 019c 419E000C 		beq- 7,.L185
 4244              		.loc 13 1077 0
 4245 01a0 7FF6FB78 		mr 22,31
 4246              	.LVL338:
 4247 01a4 4BFFFEA0 		b .L231
 4248              	.LVL339:
 4249              	.L185:
 4250              	.LBE3705:
 4251              		.loc 13 1079 0
 4252 01a8 8001003C 		lwz 0,60(1)
 4253 01ac 82A1000C 		lwz 21,12(1)
 4254 01b0 7C0803A6 		mtlr 0
 4255 01b4 82C10010 		lwz 22,16(1)
 4256 01b8 82E10014 		lwz 23,20(1)
 4257 01bc 83010018 		lwz 24,24(1)
 4258 01c0 8321001C 		lwz 25,28(1)
 4259 01c4 83410020 		lwz 26,32(1)
 4260 01c8 83610024 		lwz 27,36(1)
 4261 01cc 83810028 		lwz 28,40(1)
 4262 01d0 83A1002C 		lwz 29,44(1)
 4263 01d4 83C10030 		lwz 30,48(1)
 4264              	.LVL340:
 4265 01d8 83E10034 		lwz 31,52(1)
 4266 01dc 38210038 		addi 1,1,56
 4267              	.LCFI75:
 4268              		.cfi_def_cfa_offset 0
 4269              		.cfi_restore 31
 4270              		.cfi_restore 30
 4271              		.cfi_restore 29
 4272              		.cfi_restore 28
 4273              		.cfi_restore 27
 4274              		.cfi_restore 26
 4275              		.cfi_restore 25
 4276              		.cfi_restore 24
 4277              		.cfi_restore 23
 4278              		.cfi_restore 22
 4279              		.cfi_restore 21
 4280 01e0 4E800020 		blr
 4281              		.cfi_endproc
 4282              	.LFE2068:
 4283              		.size	_ZNSt8_Rb_treeIPN7sigslot12_signal_baseINS0_15single_threadedEEES4_St9_IdentityIS4_ESt4lessI
 4284              		.section	.text._ZN7sigslot9has_slotsINS_15single_threadedEED2Ev,"axG",@progbits,_ZN7sigslot9has_sl
 4285              		.align 2
 4286              		.weak	_ZN7sigslot9has_slotsINS_15single_threadedEED2Ev
 4287              		.type	_ZN7sigslot9has_slotsINS_15single_threadedEED2Ev, @function
 4288              	_ZN7sigslot9has_slotsINS_15single_threadedEED2Ev:
 4289              	.LFB1845:
 4290              		.loc 1 513 0
 4291              		.cfi_startproc
 4292              		.cfi_personality 0,__gxx_personality_v0
 4293              		.cfi_lsda 0,.LLSDA1845
 4294              	.LVL341:
 4295 0000 7C0802A6 		mflr 0
 4296 0004 9421FFE0 		stwu 1,-32(1)
 4297              	.LCFI76:
 4298              		.cfi_def_cfa_offset 32
 4299              		.cfi_register 65, 0
 4300              	.LBB3852:
 4301              		.loc 1 516 0
 4302 0008 3D200000 		lis 9,_ZTVN7sigslot9has_slotsINS_15single_threadedEEE+8@ha
 4303              	.LBE3852:
 4304              		.loc 1 513 0
 4305 000c 93810010 		stw 28,16(1)
 4306 0010 3B830004 		addi 28,3,4
 4307              		.cfi_offset 28, -16
 4308 0014 90010024 		stw 0,36(1)
 4309              	.LBB3928:
 4310              		.loc 1 516 0
 4311 0018 38090008 		la 0,_ZTVN7sigslot9has_slotsINS_15single_threadedEEE+8@l(9)
 4312              		.cfi_offset 65, 4
 4313              	.LBE3928:
 4314              		.loc 1 513 0
 4315 001c 93A10014 		stw 29,20(1)
 4316 0020 7C7D1B78 		mr 29,3
 4317              		.cfi_offset 29, -12
 4318 0024 93410008 		stw 26,8(1)
 4319 0028 9361000C 		stw 27,12(1)
 4320 002c 93C10018 		stw 30,24(1)
 4321 0030 93E1001C 		stw 31,28(1)
 4322              	.LBB3929:
 4323              		.loc 1 516 0
 4324 0034 90030000 		stw 0,0(3)
 4325              	.LVL342:
 4326              	.LEHB7:
 4327              	.LBB3853:
 4328              	.LBB3854:
 4329              	.LBB3855:
 4330              	.LBB3856:
 4331              		.loc 1 338 0
 4332              		.cfi_offset 31, -4
 4333              		.cfi_offset 30, -8
 4334              		.cfi_offset 27, -20
 4335              		.cfi_offset 26, -24
 4336 0038 48000001 		bl _ZN7sigslot15single_threaded4lockEv
 4337              	.LEHE7:
 4338              	.LVL343:
 4339              	.LBE3856:
 4340              	.LBE3855:
 4341              	.LBB3857:
 4342              		.loc 3 272 0
 4343 003c 83FD0010 		lwz 31,16(29)
 4344              	.LVL344:
 4345              	.LBE3857:
 4346              	.LBB3858:
 4347              	.LBB3859:
 4348              	.LBB3860:
 4349              		.loc 13 671 0
 4350 0040 3BDC0004 		addi 30,28,4
 4351              	.LVL345:
 4352              	.LBE3860:
 4353              	.LBE3859:
 4354              	.LBE3858:
 4355              		.loc 1 524 0
 4356 0044 7F9FF000 		cmpw 7,31,30
 4357 0048 419E0034 		beq- 7,.L241
 4358              	.LVL346:
 4359              	.L268:
 4360              		.loc 1 526 0
 4361 004c 807F0010 		lwz 3,16(31)
 4362 0050 7FA4EB78 		mr 4,29
 4363 0054 81230000 		lwz 9,0(3)
 4364 0058 80090010 		lwz 0,16(9)
 4365 005c 7C0903A6 		mtctr 0
 4366              	.LEHB8:
 4367 0060 4E800421 		bctrl
 4368              	.LEHE8:
 4369              	.LVL347:
 4370              	.LBB3861:
 4371              	.LBB3862:
 4372              		.loc 13 269 0
 4373 0064 7FE3FB78 		mr 3,31
 4374 0068 48000001 		bl _ZSt18_Rb_tree_incrementPKSt18_Rb_tree_node_base
 4375              	.LBE3862:
 4376              	.LBE3861:
 4377              		.loc 1 524 0
 4378 006c 7F9E1800 		cmpw 7,30,3
 4379              	.LBB3864:
 4380              	.LBB3863:
 4381              		.loc 13 269 0
 4382 0070 7C7F1B78 		mr 31,3
 4383              	.LVL348:
 4384              	.LBE3863:
 4385              	.LBE3864:
 4386              		.loc 1 524 0
 4387 0074 409EFFD8 		bne+ 7,.L268
 4388 0078 83FD0010 		lwz 31,16(29)
 4389              	.LVL349:
 4390              	.L241:
 4391              	.LBB3865:
 4392              	.LBB3866:
 4393              	.LBB3867:
 4394              	.LBB3868:
 4395              	.LBB3869:
 4396              	.LBB3870:
 4397              	.LBB3871:
 4398              		.loc 13 665 0
 4399 007c 3B5C0004 		addi 26,28,4
 4400              	.LBE3871:
 4401              	.LBE3870:
 4402              		.loc 13 1500 0
 4403 0080 7F9ED000 		cmpw 7,30,26
 4404 0084 419E0098 		beq- 7,.L243
 4405              	.LVL350:
 4406              		.loc 13 1503 0
 4407 0088 7F9EF800 		cmpw 7,30,31
 4408 008c 40BE000C 		bne+ 7,.L270
 4409 0090 48000038 		b .L244
 4410              	.LVL351:
 4411              	.L265:
 4412              		.loc 13 277 0
 4413 0094 7F7FDB78 		mr 31,27
 4414              	.LVL352:
 4415              	.L270:
 4416              	.LBB3872:
 4417              	.LBB3873:
 4418 0098 7FE3FB78 		mr 3,31
 4419 009c 48000001 		bl _ZSt18_Rb_tree_incrementPKSt18_Rb_tree_node_base
 4420              	.LBE3873:
 4421              	.LBE3872:
 4422              	.LBB3875:
 4423              	.LBB3876:
 4424              	.LBB3877:
 4425              		.loc 13 1489 0
 4426 00a0 7F44D378 		mr 4,26
 4427              	.LBE3877:
 4428              	.LBE3876:
 4429              	.LBE3875:
 4430              	.LBB3886:
 4431              	.LBB3874:
 4432              		.loc 13 277 0
 4433 00a4 7C7B1B78 		mr 27,3
 4434              	.LVL353:
 4435              	.LBE3874:
 4436              	.LBE3886:
 4437              	.LBB3887:
 4438              	.LBB3884:
 4439              	.LBB3882:
 4440              		.loc 13 1489 0
 4441 00a8 7FE3FB78 		mr 3,31
 4442              	.LVL354:
 4443 00ac 48000001 		bl _ZSt28_Rb_tree_rebalance_for_erasePSt18_Rb_tree_node_baseRS_
 4444              	.LBB3878:
 4445              	.LBB3879:
 4446              	.LBB3880:
 4447              	.LBB3881:
 4448              		.loc 12 98 0
 4449 00b0 48000001 		bl _ZdlPv
 4450              	.LBE3881:
 4451              	.LBE3880:
 4452              	.LBE3879:
 4453              	.LBE3878:
 4454              	.LBE3882:
 4455              	.LBE3884:
 4456              	.LBE3887:
 4457              		.loc 13 1503 0
 4458 00b4 7F9ED800 		cmpw 7,30,27
 4459              	.LBB3888:
 4460              	.LBB3885:
 4461              	.LBB3883:
 4462              		.loc 13 1491 0
 4463 00b8 813C0014 		lwz 9,20(28)
 4464 00bc 3809FFFF 		addi 0,9,-1
 4465 00c0 901C0014 		stw 0,20(28)
 4466              	.LBE3883:
 4467              	.LBE3885:
 4468              	.LBE3888:
 4469              		.loc 13 1503 0
 4470 00c4 409EFFD0 		bne+ 7,.L265
 4471              	.LVL355:
 4472              	.L244:
 4473              	.LBE3869:
 4474              	.LBE3868:
 4475              	.LBE3867:
 4476              	.LBE3866:
 4477              	.LBE3865:
 4478              	.LBB3897:
 4479              	.LBB3898:
 4480              	.LBB3899:
 4481              		.loc 1 343 0
 4482 00c8 813D0000 		lwz 9,0(29)
 4483 00cc 7FA3EB78 		mr 3,29
 4484 00d0 8009000C 		lwz 0,12(9)
 4485 00d4 7C0903A6 		mtctr 0
 4486              	.LEHB9:
 4487 00d8 4E800421 		bctrl
 4488              	.LEHE9:
 4489              	.LVL356:
 4490              	.LBE3899:
 4491              	.LBE3898:
 4492              	.LBE3897:
 4493              	.LBE3854:
 4494              	.LBE3853:
 4495              	.LBB3906:
 4496              	.LBB3907:
 4497              	.LBB3908:
 4498              	.LBB3909:
 4499              	.LBB3910:
 4500              		.loc 13 639 0
 4501 00dc 809D000C 		lwz 4,12(29)
 4502 00e0 7F83E378 		mr 3,28
 4503 00e4 48000001 		bl _ZNSt8_Rb_treeIPN7sigslot12_signal_baseINS0_15single_threadedEEES4_St9_IdentityIS4_ESt4lessIS4_
 4504              	.LVL357:
 4505              	.LBE3910:
 4506              	.LBE3909:
 4507              	.LBE3908:
 4508              	.LBE3907:
 4509              	.LBE3906:
 4510              	.LBB3911:
 4511              	.LBB3912:
 4512              	.LBB3913:
 4513              		.loc 1 105 0
 4514 00e8 3D200000 		lis 9,_ZTVN7sigslot15single_threadedE+8@ha
 4515 00ec 38090008 		la 0,_ZTVN7sigslot15single_threadedE+8@l(9)
 4516              	.LBE3913:
 4517              	.LBE3912:
 4518              	.LBE3911:
 4519              	.LBE3929:
 4520              		.loc 1 516 0
 4521 00f0 83410008 		lwz 26,8(1)
 4522              	.LBB3930:
 4523              	.LBB3916:
 4524              	.LBB3915:
 4525              	.LBB3914:
 4526              		.loc 1 105 0
 4527 00f4 901D0000 		stw 0,0(29)
 4528              	.LBE3914:
 4529              	.LBE3915:
 4530              	.LBE3916:
 4531              	.LBE3930:
 4532              		.loc 1 516 0
 4533 00f8 80010024 		lwz 0,36(1)
 4534 00fc 8361000C 		lwz 27,12(1)
 4535 0100 7C0803A6 		mtlr 0
 4536 0104 83810010 		lwz 28,16(1)
 4537              	.LVL358:
 4538 0108 83A10014 		lwz 29,20(1)
 4539              	.LVL359:
 4540 010c 83C10018 		lwz 30,24(1)
 4541              	.LVL360:
 4542 0110 83E1001C 		lwz 31,28(1)
 4543 0114 38210020 		addi 1,1,32
 4544              		.cfi_remember_state
 4545              	.LCFI77:
 4546              		.cfi_def_cfa_offset 0
 4547              		.cfi_restore 31
 4548              		.cfi_restore 30
 4549              		.cfi_restore 29
 4550              		.cfi_restore 28
 4551              		.cfi_restore 27
 4552              		.cfi_restore 26
 4553 0118 4E800020 		blr
 4554              	.LVL361:
 4555              	.L243:
 4556              	.LCFI78:
 4557              		.cfi_restore_state
 4558              	.LBB3931:
 4559              	.LBB3917:
 4560              	.LBB3904:
 4561              	.LBB3900:
 4562              	.LBB3896:
 4563              	.LBB3895:
 4564              	.LBB3894:
 4565              	.LBB3893:
 4566              	.LBB3889:
 4567              	.LBB3890:
 4568              	.LBB3891:
 4569              	.LBB3892:
 4570              		.loc 13 809 0
 4571 011c 809D000C 		lwz 4,12(29)
 4572 0120 7F83E378 		mr 3,28
 4573 0124 48000001 		bl _ZNSt8_Rb_treeIPN7sigslot12_signal_baseINS0_15single_threadedEEES4_St9_IdentityIS4_ESt4lessIS4_
 4574              	.LVL362:
 4575              		.loc 13 811 0
 4576 0128 38000000 		li 0,0
 4577              		.loc 13 810 0
 4578 012c 93DD0010 		stw 30,16(29)
 4579              	.LVL363:
 4580              		.loc 13 811 0
 4581 0130 901D000C 		stw 0,12(29)
 4582              	.LVL364:
 4583              		.loc 13 812 0
 4584 0134 93DD0014 		stw 30,20(29)
 4585              		.loc 13 813 0
 4586 0138 901D0018 		stw 0,24(29)
 4587 013c 4BFFFF8C 		b .L244
 4588              	.LVL365:
 4589              	.L266:
 4590 0140 7C7F1B78 		mr 31,3
 4591              	.L251:
 4592              	.LVL366:
 4593              	.LBE3892:
 4594              	.LBE3891:
 4595              	.LBE3890:
 4596              	.LBE3889:
 4597              	.LBE3893:
 4598              	.LBE3894:
 4599              	.LBE3895:
 4600              	.LBE3896:
 4601              	.LBE3900:
 4602              	.LBE3904:
 4603              	.LBE3917:
 4604              	.LBB3918:
 4605              	.LBB3919:
 4606              	.LBB3920:
 4607              	.LBB3921:
 4608              	.LBB3922:
 4609              	.LBB3923:
 4610              		.loc 13 639 0
 4611 0144 809D000C 		lwz 4,12(29)
 4612 0148 7F83E378 		mr 3,28
 4613 014c 48000001 		bl _ZNSt8_Rb_treeIPN7sigslot12_signal_baseINS0_15single_threadedEEES4_St9_IdentityIS4_ESt4lessIS4_
 4614              	.LVL367:
 4615              	.LBE3923:
 4616              	.LBE3922:
 4617              	.LBE3921:
 4618              	.LBE3920:
 4619              	.LBE3919:
 4620              	.LBE3918:
 4621              	.LBB3924:
 4622              	.LBB3925:
 4623              	.LBB3926:
 4624              		.loc 1 105 0
 4625 0150 3D200000 		lis 9,_ZTVN7sigslot15single_threadedE+8@ha
 4626 0154 38090008 		la 0,_ZTVN7sigslot15single_threadedE+8@l(9)
 4627 0158 7FE3FB78 		mr 3,31
 4628 015c 901D0000 		stw 0,0(29)
 4629              	.LEHB10:
 4630 0160 48000001 		bl _Unwind_Resume
 4631              	.LEHE10:
 4632              	.LVL368:
 4633              	.L267:
 4634              	.LBE3926:
 4635              	.LBE3925:
 4636              	.LBE3924:
 4637              	.LBB3927:
 4638              	.LBB3905:
 4639              	.LBB3901:
 4640              	.LBB3902:
 4641              	.LBB3903:
 4642              		.loc 1 343 0
 4643 0164 813D0000 		lwz 9,0(29)
 4644 0168 7C7F1B78 		mr 31,3
 4645              	.LVL369:
 4646 016c 7FA3EB78 		mr 3,29
 4647 0170 8009000C 		lwz 0,12(9)
 4648 0174 7C0903A6 		mtctr 0
 4649 0178 4E800421 		bctrl
 4650 017c 4BFFFFC8 		b .L251
 4651              	.LBE3903:
 4652              	.LBE3902:
 4653              	.LBE3901:
 4654              	.LBE3905:
 4655              	.LBE3927:
 4656              	.LBE3931:
 4657              		.cfi_endproc
 4658              	.LFE1845:
 4659              		.section	.gcc_except_table
 4660              	.LLSDA1845:
 4661 002a FF       		.byte	0xff
 4662 002b FF       		.byte	0xff
 4663 002c 01       		.byte	0x1
 4664 002d 15       		.uleb128 .LLSDACSE1845-.LLSDACSB1845
 4665              	.LLSDACSB1845:
 4666 002e 38       		.uleb128 .LEHB7-.LFB1845
 4667 002f 04       		.uleb128 .LEHE7-.LEHB7
 4668 0030 C002     		.uleb128 .L266-.LFB1845
 4669 0032 00       		.uleb128 0
 4670 0033 60       		.uleb128 .LEHB8-.LFB1845
 4671 0034 04       		.uleb128 .LEHE8-.LEHB8
 4672 0035 E402     		.uleb128 .L267-.LFB1845
 4673 0037 00       		.uleb128 0
 4674 0038 D801     		.uleb128 .LEHB9-.LFB1845
 4675 003a 04       		.uleb128 .LEHE9-.LEHB9
 4676 003b C002     		.uleb128 .L266-.LFB1845
 4677 003d 00       		.uleb128 0
 4678 003e E002     		.uleb128 .LEHB10-.LFB1845
 4679 0040 04       		.uleb128 .LEHE10-.LEHB10
 4680 0041 00       		.uleb128 0
 4681 0042 00       		.uleb128 0
 4682              	.LLSDACSE1845:
 4683              		.section	.text._ZN7sigslot9has_slotsINS_15single_threadedEED2Ev,"axG",@progbits,_ZN7sigslot9has_sl
 4684              		.size	_ZN7sigslot9has_slotsINS_15single_threadedEED2Ev, .-_ZN7sigslot9has_slotsINS_15single_thread
 4685              		.section	".text"
 4686              		.align 2
 4687              		.globl _ZN11ApplicationC2Ev
 4688              		.type	_ZN11ApplicationC2Ev, @function
 4689              	_ZN11ApplicationC2Ev:
 4690              	.LFB1739:
 4691              		.loc 3 37 0
 4692              		.cfi_startproc
 4693              		.cfi_personality 0,__gxx_personality_v0
 4694              		.cfi_lsda 0,.LLSDA1739
 4695              	.LVL370:
 4696              	.LBB3932:
 4697              		.loc 3 38 0
 4698 0850 3D200000 		lis 9,screenwidth@ha
 4699              	.LBE3932:
 4700              		.loc 3 37 0
 4701 0854 7C0802A6 		mflr 0
 4702              	.LBB3973:
 4703              		.loc 3 38 0
 4704 0858 80890000 		lwz 4,screenwidth@l(9)
 4705 085c 3D200000 		lis 9,screenheight@ha
 4706              	.LBE3973:
 4707              		.loc 3 37 0
 4708 0860 9421FFF0 		stwu 1,-16(1)
 4709              	.LCFI79:
 4710              		.cfi_def_cfa_offset 16
 4711              		.cfi_register 65, 0
 4712              	.LBB3974:
 4713              		.loc 3 38 0
 4714 0864 38C00000 		li 6,0
 4715 0868 80A90000 		lwz 5,screenheight@l(9)
 4716              	.LBE3974:
 4717              		.loc 3 37 0
 4718 086c 90010014 		stw 0,20(1)
 4719 0870 93E1000C 		stw 31,12(1)
 4720 0874 7C7F1B78 		mr 31,3
 4721              		.cfi_offset 31, -4
 4722              		.cfi_offset 65, 4
 4723 0878 93C10008 		stw 30,8(1)
 4724              	.LEHB11:
 4725              	.LBB3975:
 4726              		.loc 3 38 0
 4727              		.cfi_offset 30, -8
 4728 087c 48000001 		bl _ZN8GuiFrameC2EiiPS_
 4729              	.LEHE11:
 4730              	.LVL371:
 4731 0880 3D200000 		lis 9,_ZTV11Application+8@ha
 4732              	.LBB3933:
 4733              	.LBB3934:
 4734              	.LBB3935:
 4735              	.LBB3936:
 4736              	.LBB3937:
 4737              	.LBB3938:
 4738              		.loc 13 445 0
 4739 0884 38000000 		li 0,0
 4740              	.LBE3938:
 4741              	.LBE3937:
 4742              	.LBE3936:
 4743              	.LBE3935:
 4744              	.LBE3934:
 4745              	.LBE3933:
 4746              		.loc 3 38 0
 4747 0888 39290008 		la 9,_ZTV11Application+8@l(9)
 4748              	.LBB3958:
 4749              	.LBB3955:
 4750              	.LBB3952:
 4751              	.LBB3949:
 4752              	.LBB3946:
 4753              	.LBB3943:
 4754              	.LBB3939:
 4755              	.LBB3940:
 4756              		.loc 13 459 0
 4757 088c 397F00B8 		addi 11,31,184
 4758              	.LBE3940:
 4759              	.LBE3939:
 4760              	.LBE3943:
 4761              	.LBE3946:
 4762              	.LBE3949:
 4763              	.LBE3952:
 4764              	.LBE3955:
 4765              	.LBE3958:
 4766              		.loc 3 38 0
 4767 0890 394900E4 		addi 10,9,228
 4768              	.LBB3959:
 4769              	.LBB3956:
 4770              	.LBB3953:
 4771              	.LBB3950:
 4772              	.LBB3947:
 4773              	.LBB3944:
 4774              		.loc 13 445 0
 4775 0894 901F00B8 		stw 0,184(31)
 4776 0898 901F00BC 		stw 0,188(31)
 4777              	.LBE3944:
 4778              	.LBE3947:
 4779              	.LBE3950:
 4780              	.LBE3953:
 4781              	.LBE3956:
 4782              	.LBE3959:
 4783              		.loc 3 38 0
 4784 089c 387F00EC 		addi 3,31,236
 4785              	.LBB3960:
 4786              	.LBB3957:
 4787              	.LBB3954:
 4788              	.LBB3951:
 4789              	.LBB3948:
 4790              	.LBB3945:
 4791              		.loc 13 445 0
 4792 08a0 901F00C8 		stw 0,200(31)
 4793              	.LVL372:
 4794              	.LBB3942:
 4795              	.LBB3941:
 4796              		.loc 13 459 0
 4797 08a4 917F00C0 		stw 11,192(31)
 4798              		.loc 13 460 0
 4799 08a8 917F00C4 		stw 11,196(31)
 4800              	.LBE3941:
 4801              	.LBE3942:
 4802              	.LBE3945:
 4803              	.LBE3948:
 4804              	.LBE3951:
 4805              	.LBE3954:
 4806              	.LBE3957:
 4807              	.LBE3960:
 4808              		.loc 3 38 0
 4809 08ac 913F0000 		stw 9,0(31)
 4810 08b0 915F00B0 		stw 10,176(31)
 4811              	.LEHB12:
 4812 08b4 48000001 		bl _ZN10GuiTriggerC1Ev
 4813              	.LEHE12:
 4814              	.LVL373:
 4815              	.LBB3961:
 4816              	.LBB3962:
 4817              	.LBB3963:
 4818              	.LBB3964:
 4819              		.loc 8 83 0 discriminator 2
 4820 08b8 38000000 		li 0,0
 4821              	.LBE3964:
 4822              	.LBE3963:
 4823              	.LBE3962:
 4824              	.LBE3961:
 4825              	.LBE3975:
 4826              		.loc 3 41 0 discriminator 2
 4827 08bc 83C10008 		lwz 30,8(1)
 4828              	.LBB3976:
 4829              	.LBB3968:
 4830              	.LBB3967:
 4831              	.LBB3966:
 4832              	.LBB3965:
 4833              		.loc 8 83 0 discriminator 2
 4834 08c0 901F025C 		stw 0,604(31)
 4835 08c4 901F0260 		stw 0,608(31)
 4836 08c8 901F0264 		stw 0,612(31)
 4837              	.LVL374:
 4838              	.LBE3965:
 4839              	.LBE3966:
 4840              	.LBE3967:
 4841              	.LBE3968:
 4842              	.LBB3969:
 4843              	.LBB3970:
 4844              	.LBB3971:
 4845              	.LBB3972:
 4846 08cc 901F0268 		stw 0,616(31)
 4847 08d0 901F026C 		stw 0,620(31)
 4848 08d4 901F0270 		stw 0,624(31)
 4849              	.LBE3972:
 4850              	.LBE3971:
 4851              	.LBE3970:
 4852              	.LBE3969:
 4853              	.LBE3976:
 4854              		.loc 3 41 0 discriminator 2
 4855 08d8 80010014 		lwz 0,20(1)
 4856 08dc 83E1000C 		lwz 31,12(1)
 4857              	.LVL375:
 4858 08e0 7C0803A6 		mtlr 0
 4859 08e4 38210010 		addi 1,1,16
 4860              		.cfi_remember_state
 4861              	.LCFI80:
 4862              		.cfi_def_cfa_offset 0
 4863              		.cfi_restore 31
 4864              		.cfi_restore 30
 4865 08e8 4E800020 		blr
 4866              	.LVL376:
 4867              	.L274:
 4868              	.LCFI81:
 4869              		.cfi_restore_state
 4870 08ec 7C7E1B78 		mr 30,3
 4871              	.LBB3977:
 4872              		.loc 3 38 0
 4873 08f0 387F00B0 		addi 3,31,176
 4874 08f4 48000001 		bl _ZN7sigslot9has_slotsINS_15single_threadedEED2Ev
 4875 08f8 7FE3FB78 		mr 3,31
 4876 08fc 48000001 		bl _ZN8GuiFrameD2Ev
 4877 0900 7FC3F378 		mr 3,30
 4878              	.LEHB13:
 4879 0904 48000001 		bl _Unwind_Resume
 4880              	.LEHE13:
 4881              	.LBE3977:
 4882              		.cfi_endproc
 4883              	.LFE1739:
 4884              		.section	.gcc_except_table
 4885              	.LLSDA1739:
 4886 0043 FF       		.byte	0xff
 4887 0044 FF       		.byte	0xff
 4888 0045 01       		.byte	0x1
 4889 0046 0E       		.uleb128 .LLSDACSE1739-.LLSDACSB1739
 4890              	.LLSDACSB1739:
 4891 0047 2C       		.uleb128 .LEHB11-.LFB1739
 4892 0048 04       		.uleb128 .LEHE11-.LEHB11
 4893 0049 00       		.uleb128 0
 4894 004a 00       		.uleb128 0
 4895 004b 64       		.uleb128 .LEHB12-.LFB1739
 4896 004c 04       		.uleb128 .LEHE12-.LEHB12
 4897 004d 9C01     		.uleb128 .L274-.LFB1739
 4898 004f 00       		.uleb128 0
 4899 0050 B401     		.uleb128 .LEHB13-.LFB1739
 4900 0052 04       		.uleb128 .LEHE13-.LEHB13
 4901 0053 00       		.uleb128 0
 4902 0054 00       		.uleb128 0
 4903              	.LLSDACSE1739:
 4904              		.section	".text"
 4905              		.size	_ZN11ApplicationC2Ev, .-_ZN11ApplicationC2Ev
 4906              		.align 2
 4907              		.globl _ZThn176_N11ApplicationD1Ev
 4908              		.type	_ZThn176_N11ApplicationD1Ev, @function
 4909              	_ZThn176_N11ApplicationD1Ev:
 4910              	.LFB2713:
 4911              		.cfi_startproc
 4912 0908 3863FF50 		addi 3,3,-176
 4913 090c 48000004 		b .LTHUNK0
 4914              		.cfi_endproc
 4915              	.LFE2713:
 4916              		.size	_ZThn176_N11ApplicationD1Ev, .-_ZThn176_N11ApplicationD1Ev
 4917              		.align 2
 4918              		.globl _ZN11ApplicationD2Ev
 4919              		.type	_ZN11ApplicationD2Ev, @function
 4920              	_ZN11ApplicationD2Ev:
 4921              	.LFB1742:
 4922              		.loc 3 43 0
 4923              		.cfi_startproc
 4924              		.cfi_personality 0,__gxx_personality_v0
 4925              		.cfi_lsda 0,.LLSDA1742
 4926              	.LVL377:
 4927 0910 7C0802A6 		mflr 0
 4928 0914 9421FFE8 		stwu 1,-24(1)
 4929              	.LCFI82:
 4930              		.cfi_def_cfa_offset 24
 4931              		.cfi_register 65, 0
 4932              	.LBB4135:
 4933 0918 3D200000 		lis 9,_ZTV11Application+8@ha
 4934 091c 39290008 		la 9,_ZTV11Application+8@l(9)
 4935              	.LBE4135:
 4936 0920 93C10010 		stw 30,16(1)
 4937 0924 9001001C 		stw 0,28(1)
 4938              	.LBB4266:
 4939 0928 380900E4 		addi 0,9,228
 4940              		.cfi_offset 65, 4
 4941              		.cfi_offset 30, -8
 4942              	.LBE4266:
 4943 092c 93810008 		stw 28,8(1)
 4944 0930 7C7E1B78 		mr 30,3
 4945 0934 93A1000C 		stw 29,12(1)
 4946 0938 93E10014 		stw 31,20(1)
 4947              	.LBB4267:
 4948              		.loc 3 43 0
 4949 093c 91230000 		stw 9,0(3)
 4950 0940 900300B0 		stw 0,176(3)
 4951              	.LEHB14:
 4952              	.LBB4136:
 4953              		.loc 3 45 0
 4954              		.cfi_offset 31, -4
 4955              		.cfi_offset 29, -12
 4956              		.cfi_offset 28, -16
 4957 0944 48000001 		bl _ZN8GuiFrame9RemoveAllEv
 4958              	.LVL378:
 4959              		.loc 3 46 0
 4960 0948 807E00CC 		lwz 3,204(30)
 4961 094c 2F830000 		cmpwi 7,3,0
 4962 0950 419E0014 		beq- 7,.L276
 4963              		.loc 3 46 0 is_stmt 0 discriminator 1
 4964 0954 81230000 		lwz 9,0(3)
 4965 0958 80090004 		lwz 0,4(9)
 4966 095c 7C0903A6 		mtctr 0
 4967 0960 4E800421 		bctrl
 4968              	.L276:
 4969              		.loc 3 47 0 is_stmt 1
 4970 0964 807E00E0 		lwz 3,224(30)
 4971 0968 2F830000 		cmpwi 7,3,0
 4972 096c 419E0014 		beq- 7,.L277
 4973              		.loc 3 47 0 is_stmt 0 discriminator 1
 4974 0970 81230000 		lwz 9,0(3)
 4975 0974 80090004 		lwz 0,4(9)
 4976 0978 7C0903A6 		mtctr 0
 4977 097c 4E800421 		bctrl
 4978              	.L277:
 4979              		.loc 3 48 0 is_stmt 1
 4980 0980 807E00E8 		lwz 3,232(30)
 4981 0984 2F830000 		cmpwi 7,3,0
 4982 0988 419E0014 		beq- 7,.L284
 4983              		.loc 3 48 0 is_stmt 0 discriminator 1
 4984 098c 81230000 		lwz 9,0(3)
 4985 0990 80090004 		lwz 0,4(9)
 4986 0994 7C0903A6 		mtctr 0
 4987 0998 4E800421 		bctrl
 4988              	.L284:
 4989              	.LVL379:
 4990              	.LBB4137:
 4991              		.loc 3 51 0 is_stmt 1 discriminator 1
 4992 099c 807E00D0 		lwz 3,208(30)
 4993 09a0 2F830000 		cmpwi 7,3,0
 4994 09a4 419E0014 		beq- 7,.L279
 4995              		.loc 3 51 0 is_stmt 0
 4996 09a8 81230000 		lwz 9,0(3)
 4997 09ac 80090004 		lwz 0,4(9)
 4998 09b0 7C0903A6 		mtctr 0
 4999 09b4 4E800421 		bctrl
 5000              	.L279:
 5001              	.LVL380:
 5002 09b8 807E00D4 		lwz 3,212(30)
 5003 09bc 2F830000 		cmpwi 7,3,0
 5004 09c0 419E0014 		beq- 7,.L280
 5005 09c4 81230000 		lwz 9,0(3)
 5006 09c8 80090004 		lwz 0,4(9)
 5007 09cc 7C0903A6 		mtctr 0
 5008 09d0 4E800421 		bctrl
 5009              	.L280:
 5010              	.LVL381:
 5011 09d4 807E00D8 		lwz 3,216(30)
 5012 09d8 2F830000 		cmpwi 7,3,0
 5013 09dc 419E0014 		beq- 7,.L281
 5014 09e0 81230000 		lwz 9,0(3)
 5015 09e4 80090004 		lwz 0,4(9)
 5016 09e8 7C0903A6 		mtctr 0
 5017 09ec 4E800421 		bctrl
 5018              	.L281:
 5019              	.LVL382:
 5020 09f0 807E00DC 		lwz 3,220(30)
 5021 09f4 2F830000 		cmpwi 7,3,0
 5022 09f8 419E0014 		beq- 7,.L283
 5023              		.loc 3 51 0 discriminator 1
 5024 09fc 81230000 		lwz 9,0(3)
 5025 0a00 80090004 		lwz 0,4(9)
 5026 0a04 7C0903A6 		mtctr 0
 5027 0a08 4E800421 		bctrl
 5028              	.L283:
 5029              	.LVL383:
 5030              		.loc 3 272 0 is_stmt 1
 5031 0a0c 813E0268 		lwz 9,616(30)
 5032 0a10 815E026C 		lwz 10,620(30)
 5033              	.LBE4137:
 5034              	.LBB4138:
 5035              	.LBB4139:
 5036              	.LBB4140:
 5037              		.loc 8 571 0
 5038 0a14 7C095050 		subf 0,9,10
 5039              	.LBE4140:
 5040              	.LBE4139:
 5041              		.loc 3 54 0
 5042 0a18 540BF0BF 		srwi. 11,0,2
 5043 0a1c 41820050 		beq- 0,.L285
 5044 0a20 7D204B78 		mr 0,9
 5045 0a24 3BE00000 		li 31,0
 5046 0a28 48000008 		b .L287
 5047              	.LVL384:
 5048              	.L336:
 5049              		.loc 3 272 0
 5050 0a2c 7C090378 		mr 9,0
 5051              	.LVL385:
 5052              	.L287:
 5053              		.loc 3 55 0
 5054 0a30 57EB103A 		slwi 11,31,2
 5055 0a34 7C69582E 		lwzx 3,9,11
 5056 0a38 2F830000 		cmpwi 7,3,0
 5057 0a3c 419E001C 		beq- 7,.L286
 5058              		.loc 3 55 0 is_stmt 0 discriminator 1
 5059 0a40 81230000 		lwz 9,0(3)
 5060 0a44 80090004 		lwz 0,4(9)
 5061 0a48 7C0903A6 		mtctr 0
 5062 0a4c 4E800421 		bctrl
 5063              		.loc 3 55 0
 5064 0a50 801E0268 		lwz 0,616(30)
 5065 0a54 815E026C 		lwz 10,620(30)
 5066              	.L286:
 5067              	.LBB4143:
 5068              	.LBB4141:
 5069              		.loc 8 571 0 is_stmt 1
 5070 0a58 7D205050 		subf 9,0,10
 5071              	.LBE4141:
 5072              	.LBE4143:
 5073              		.loc 3 54 0
 5074 0a5c 3BFF0001 		addi 31,31,1
 5075              	.LVL386:
 5076              	.LBB4144:
 5077              	.LBB4142:
 5078              		.loc 8 571 0
 5079 0a60 7D291670 		srawi 9,9,2
 5080              	.LBE4142:
 5081              	.LBE4144:
 5082              		.loc 3 54 0
 5083 0a64 7F9F4840 		cmplw 7,31,9
 5084 0a68 419CFFC4 		blt+ 7,.L336
 5085              	.LVL387:
 5086              	.L285:
 5087              	.LBE4138:
 5088              		.loc 3 57 0
 5089 0a6c 807E0274 		lwz 3,628(30)
 5090 0a70 48000001 		bl LWP_MutexDestroy
 5091              	.LEHE14:
 5092              	.LVL388:
 5093              	.LBE4136:
 5094              	.LBB4145:
 5095              		.loc 3 272 0
 5096 0a74 807E0268 		lwz 3,616(30)
 5097              	.LVL389:
 5098              	.LBB4146:
 5099              	.LBB4147:
 5100              	.LBB4148:
 5101              	.LBB4149:
 5102              	.LBB4150:
 5103              		.loc 8 155 0
 5104 0a78 2F830000 		cmpwi 7,3,0
 5105 0a7c 419E0008 		beq- 7,.L292
 5106              	.LVL390:
 5107              	.LBB4151:
 5108              	.LBB4152:
 5109              		.loc 12 98 0
 5110 0a80 48000001 		bl _ZdlPv
 5111              	.LVL391:
 5112              	.L292:
 5113              	.LBE4152:
 5114              	.LBE4151:
 5115              	.LBE4150:
 5116              	.LBE4149:
 5117              	.LBE4148:
 5118              	.LBE4147:
 5119              	.LBE4146:
 5120              	.LBE4145:
 5121              	.LBB4153:
 5122              		.loc 3 272 0
 5123 0a84 807E025C 		lwz 3,604(30)
 5124              	.LVL392:
 5125              	.LBB4154:
 5126              	.LBB4155:
 5127              	.LBB4156:
 5128              	.LBB4157:
 5129              	.LBB4158:
 5130              		.loc 8 155 0
 5131 0a88 2F830000 		cmpwi 7,3,0
 5132 0a8c 419E0008 		beq- 7,.L297
 5133              	.LVL393:
 5134              	.LBB4159:
 5135              	.LBB4160:
 5136              		.loc 12 98 0
 5137 0a90 48000001 		bl _ZdlPv
 5138              	.LVL394:
 5139              	.L297:
 5140              	.LBE4160:
 5141              	.LBE4159:
 5142              	.LBE4158:
 5143              	.LBE4157:
 5144              	.LBE4156:
 5145              	.LBE4155:
 5146              	.LBE4154:
 5147              	.LBE4153:
 5148              		.loc 3 43 0
 5149 0a94 387E00EC 		addi 3,30,236
 5150              	.LEHB15:
 5151 0a98 48000001 		bl _ZN10GuiTriggerD1Ev
 5152              	.LEHE15:
 5153              	.LBB4161:
 5154              	.LBB4162:
 5155              	.LBB4163:
 5156              		.loc 1 516 0 discriminator 3
 5157 0a9c 3D200000 		lis 9,_ZTVN7sigslot9has_slotsINS_15single_threadedEEE+8@ha
 5158              	.LBE4163:
 5159              	.LBE4162:
 5160              	.LBE4161:
 5161              		.loc 3 43 0 discriminator 3
 5162 0aa0 3B9E00B0 		addi 28,30,176
 5163              	.LVL395:
 5164              	.LBB4247:
 5165              	.LBB4244:
 5166              	.LBB4241:
 5167              		.loc 1 516 0 discriminator 3
 5168 0aa4 38090008 		la 0,_ZTVN7sigslot9has_slotsINS_15single_threadedEEE+8@l(9)
 5169              	.LBB4164:
 5170              	.LBB4165:
 5171              	.LBB4166:
 5172              	.LBB4167:
 5173              		.loc 1 338 0 discriminator 3
 5174 0aa8 7F83E378 		mr 3,28
 5175              	.LBE4167:
 5176              	.LBE4166:
 5177              	.LBE4165:
 5178              	.LBE4164:
 5179              		.loc 1 516 0 discriminator 3
 5180 0aac 901E00B0 		stw 0,176(30)
 5181              	.LVL396:
 5182 0ab0 3BFE00B4 		addi 31,30,180
 5183              	.LEHB16:
 5184              	.LBB4219:
 5185              	.LBB4217:
 5186              	.LBB4169:
 5187              	.LBB4168:
 5188              		.loc 1 338 0 discriminator 3
 5189 0ab4 48000001 		bl _ZN7sigslot15single_threaded4lockEv
 5190              	.LEHE16:
 5191              	.LVL397:
 5192              	.LBE4168:
 5193              	.LBE4169:
 5194              	.LBB4170:
 5195              		.loc 3 272 0
 5196 0ab8 83FE00C0 		lwz 31,192(30)
 5197              	.LVL398:
 5198              	.LBE4170:
 5199              	.LBB4171:
 5200              	.LBB4172:
 5201              	.LBB4173:
 5202              		.loc 13 671 0
 5203 0abc 3BBE00B8 		addi 29,30,184
 5204              	.LVL399:
 5205              	.LBE4173:
 5206              	.LBE4172:
 5207              	.LBE4171:
 5208              		.loc 1 524 0
 5209 0ac0 7F9FE800 		cmpw 7,31,29
 5210 0ac4 419E0030 		beq- 7,.L298
 5211              	.LVL400:
 5212              	.L342:
 5213              		.loc 1 526 0
 5214 0ac8 807F0010 		lwz 3,16(31)
 5215 0acc 7F84E378 		mr 4,28
 5216 0ad0 81230000 		lwz 9,0(3)
 5217 0ad4 80090010 		lwz 0,16(9)
 5218 0ad8 7C0903A6 		mtctr 0
 5219              	.LEHB17:
 5220 0adc 4E800421 		bctrl
 5221              	.LEHE17:
 5222              	.LVL401:
 5223              	.LBB4174:
 5224              	.LBB4175:
 5225              		.loc 13 269 0
 5226 0ae0 7FE3FB78 		mr 3,31
 5227 0ae4 48000001 		bl _ZSt18_Rb_tree_incrementPKSt18_Rb_tree_node_base
 5228              	.LBE4175:
 5229              	.LBE4174:
 5230              		.loc 1 524 0
 5231 0ae8 7F9D1800 		cmpw 7,29,3
 5232              	.LBB4177:
 5233              	.LBB4176:
 5234              		.loc 13 269 0
 5235 0aec 7C7F1B78 		mr 31,3
 5236              	.LVL402:
 5237              	.LBE4176:
 5238              	.LBE4177:
 5239              		.loc 1 524 0
 5240 0af0 409EFFD8 		bne+ 7,.L342
 5241              	.LVL403:
 5242              	.L298:
 5243              	.LBB4178:
 5244              	.LBB4179:
 5245              		.file 14 "d:\\devkitpro\\devkitppc\\bin\\../lib/gcc/powerpc-eabi/4.6.3/../../../../powerpc-eabi/in
 5246              		.loc 14 562 0
 5247 0af4 3BFE00B4 		addi 31,30,180
 5248              	.LVL404:
 5249              	.LBB4180:
 5250              	.LBB4181:
 5251              	.LBB4182:
 5252              	.LBB4183:
 5253              	.LBB4184:
 5254              	.LBB4185:
 5255              	.LBB4186:
 5256              		.loc 13 809 0
 5257 0af8 809E00BC 		lwz 4,188(30)
 5258 0afc 7FE3FB78 		mr 3,31
 5259 0b00 48000001 		bl _ZNSt8_Rb_treeIPN7sigslot12_signal_baseINS0_15single_threadedEEES4_St9_IdentityIS4_ESt4lessIS4_
 5260              	.LVL405:
 5261              		.loc 13 811 0
 5262 0b04 38000000 		li 0,0
 5263              		.loc 13 810 0
 5264 0b08 93BE00C0 		stw 29,192(30)
 5265              	.LVL406:
 5266              	.LBE4186:
 5267              	.LBE4185:
 5268              	.LBE4184:
 5269              	.LBE4183:
 5270              	.LBE4182:
 5271              	.LBE4181:
 5272              	.LBE4180:
 5273              	.LBE4179:
 5274              	.LBE4178:
 5275              	.LBB4203:
 5276              	.LBB4204:
 5277              	.LBB4205:
 5278              		.loc 1 343 0
 5279 0b0c 7F83E378 		mr 3,28
 5280              	.LBE4205:
 5281              	.LBE4204:
 5282              	.LBE4203:
 5283              	.LBB4210:
 5284              	.LBB4201:
 5285              	.LBB4199:
 5286              	.LBB4197:
 5287              	.LBB4195:
 5288              	.LBB4193:
 5289              	.LBB4191:
 5290              	.LBB4189:
 5291              	.LBB4187:
 5292              		.loc 13 811 0
 5293 0b10 901E00BC 		stw 0,188(30)
 5294              	.LVL407:
 5295              		.loc 13 812 0
 5296 0b14 93BE00C4 		stw 29,196(30)
 5297              	.LBE4187:
 5298              	.LBE4189:
 5299              	.LBE4191:
 5300              	.LBE4193:
 5301              	.LBE4195:
 5302              	.LBE4197:
 5303              	.LBE4199:
 5304              	.LBE4201:
 5305              	.LBE4210:
 5306              	.LBB4211:
 5307              	.LBB4208:
 5308              	.LBB4206:
 5309              		.loc 1 343 0
 5310 0b18 813E00B0 		lwz 9,176(30)
 5311              	.LBE4206:
 5312              	.LBE4208:
 5313              	.LBE4211:
 5314              	.LBB4212:
 5315              	.LBB4202:
 5316              	.LBB4200:
 5317              	.LBB4198:
 5318              	.LBB4196:
 5319              	.LBB4194:
 5320              	.LBB4192:
 5321              	.LBB4190:
 5322              	.LBB4188:
 5323              		.loc 13 813 0
 5324 0b1c 901E00C8 		stw 0,200(30)
 5325              	.LVL408:
 5326              	.LBE4188:
 5327              	.LBE4190:
 5328              	.LBE4192:
 5329              	.LBE4194:
 5330              	.LBE4196:
 5331              	.LBE4198:
 5332              	.LBE4200:
 5333              	.LBE4202:
 5334              	.LBE4212:
 5335              	.LBB4213:
 5336              	.LBB4209:
 5337              	.LBB4207:
 5338              		.loc 1 343 0
 5339 0b20 8009000C 		lwz 0,12(9)
 5340 0b24 7C0903A6 		mtctr 0
 5341              	.LEHB18:
 5342 0b28 4E800421 		bctrl
 5343              	.LEHE18:
 5344              	.LVL409:
 5345              	.LBE4207:
 5346              	.LBE4209:
 5347              	.LBE4213:
 5348              	.LBE4217:
 5349              	.LBE4219:
 5350              	.LBB4220:
 5351              	.LBB4221:
 5352              	.LBB4222:
 5353              	.LBB4223:
 5354              	.LBB4224:
 5355              		.loc 13 639 0
 5356 0b2c 809E00BC 		lwz 4,188(30)
 5357 0b30 7FE3FB78 		mr 3,31
 5358 0b34 48000001 		bl _ZNSt8_Rb_treeIPN7sigslot12_signal_baseINS0_15single_threadedEEES4_St9_IdentityIS4_ESt4lessIS4_
 5359              	.LBE4224:
 5360              	.LBE4223:
 5361              	.LBE4222:
 5362              	.LBE4221:
 5363              	.LBE4220:
 5364              	.LBB4225:
 5365              	.LBB4226:
 5366              	.LBB4227:
 5367              		.loc 1 105 0
 5368 0b38 3D200000 		lis 9,_ZTVN7sigslot15single_threadedE+8@ha
 5369 0b3c 38090008 		la 0,_ZTVN7sigslot15single_threadedE+8@l(9)
 5370              	.LBE4227:
 5371              	.LBE4226:
 5372              	.LBE4225:
 5373              	.LBE4241:
 5374              	.LBE4244:
 5375              	.LBE4247:
 5376              		.loc 3 43 0
 5377 0b40 7FC3F378 		mr 3,30
 5378              	.LBB4248:
 5379              	.LBB4245:
 5380              	.LBB4242:
 5381              	.LBB4230:
 5382              	.LBB4229:
 5383              	.LBB4228:
 5384              		.loc 1 105 0
 5385 0b44 901E00B0 		stw 0,176(30)
 5386              	.LEHB19:
 5387              	.LBE4228:
 5388              	.LBE4229:
 5389              	.LBE4230:
 5390              	.LBE4242:
 5391              	.LBE4245:
 5392              	.LBE4248:
 5393              		.loc 3 43 0
 5394 0b48 48000001 		bl _ZN8GuiFrameD2Ev
 5395              	.LEHE19:
 5396              	.LBE4267:
 5397              		.loc 3 58 0
 5398 0b4c 8001001C 		lwz 0,28(1)
 5399 0b50 83810008 		lwz 28,8(1)
 5400              	.LVL410:
 5401 0b54 7C0803A6 		mtlr 0
 5402 0b58 83A1000C 		lwz 29,12(1)
 5403              	.LVL411:
 5404 0b5c 83C10010 		lwz 30,16(1)
 5405              	.LVL412:
 5406 0b60 83E10014 		lwz 31,20(1)
 5407              	.LVL413:
 5408 0b64 38210018 		addi 1,1,24
 5409              		.cfi_remember_state
 5410              	.LCFI83:
 5411              		.cfi_def_cfa_offset 0
 5412              		.cfi_restore 31
 5413              		.cfi_restore 30
 5414              		.cfi_restore 29
 5415              		.cfi_restore 28
 5416 0b68 4E800020 		blr
 5417              	.LVL414:
 5418              	.L338:
 5419              	.LCFI84:
 5420              		.cfi_restore_state
 5421              	.LBB4268:
 5422              	.LBB4249:
 5423              		.loc 3 272 0
 5424 0b6c 801E0268 		lwz 0,616(30)
 5425 0b70 7C7D1B78 		mr 29,3
 5426              	.LVL415:
 5427              	.LBB4250:
 5428              	.LBB4251:
 5429              	.LBB4252:
 5430              	.LBB4253:
 5431              	.LBB4254:
 5432              		.loc 8 155 0
 5433 0b74 2F800000 		cmpwi 7,0,0
 5434 0b78 419E000C 		beq- 7,.L329
 5435              	.LVL416:
 5436              	.LBB4255:
 5437              	.LBB4256:
 5438              		.loc 12 98 0
 5439 0b7c 7C030378 		mr 3,0
 5440 0b80 48000001 		bl _ZdlPv
 5441              	.LVL417:
 5442              	.L329:
 5443              	.LBE4256:
 5444              	.LBE4255:
 5445              	.LBE4254:
 5446              	.LBE4253:
 5447              	.LBE4252:
 5448              	.LBE4251:
 5449              	.LBE4250:
 5450              	.LBE4249:
 5451              	.LBB4257:
 5452              		.loc 3 272 0
 5453 0b84 807E025C 		lwz 3,604(30)
 5454              	.LVL418:
 5455              	.LBB4258:
 5456              	.LBB4259:
 5457              	.LBB4260:
 5458              	.LBB4261:
 5459              	.LBB4262:
 5460              		.loc 8 155 0
 5461 0b88 2F830000 		cmpwi 7,3,0
 5462 0b8c 419E0008 		beq- 7,.L334
 5463              	.LVL419:
 5464              	.LBB4263:
 5465              	.LBB4264:
 5466              		.loc 12 98 0
 5467 0b90 48000001 		bl _ZdlPv
 5468              	.LVL420:
 5469              	.L334:
 5470              	.LBE4264:
 5471              	.LBE4263:
 5472              	.LBE4262:
 5473              	.LBE4261:
 5474              	.LBE4260:
 5475              	.LBE4259:
 5476              	.LBE4258:
 5477              	.LBE4257:
 5478              		.loc 3 43 0
 5479 0b94 387E00EC 		addi 3,30,236
 5480 0b98 48000001 		bl _ZN10GuiTriggerD1Ev
 5481              	.LVL421:
 5482              	.L335:
 5483 0b9c 387E00B0 		addi 3,30,176
 5484 0ba0 48000001 		bl _ZN7sigslot9has_slotsINS_15single_threadedEED2Ev
 5485              	.L321:
 5486 0ba4 7FC3F378 		mr 3,30
 5487 0ba8 48000001 		bl _ZN8GuiFrameD2Ev
 5488 0bac 7FA3EB78 		mr 3,29
 5489              	.LEHB20:
 5490 0bb0 48000001 		bl _Unwind_Resume
 5491              	.LEHE20:
 5492              	.LVL422:
 5493              	.L341:
 5494              	.LBB4265:
 5495              	.LBB4246:
 5496              	.LBB4243:
 5497              	.LBB4231:
 5498              	.LBB4218:
 5499              	.LBB4214:
 5500              	.LBB4215:
 5501              	.LBB4216:
 5502              		.loc 1 343 0
 5503 0bb4 813E00B0 		lwz 9,176(30)
 5504 0bb8 7C7D1B78 		mr 29,3
 5505              	.LVL423:
 5506 0bbc 7F83E378 		mr 3,28
 5507 0bc0 3BFE00B4 		addi 31,30,180
 5508              	.LVL424:
 5509 0bc4 8009000C 		lwz 0,12(9)
 5510 0bc8 7C0903A6 		mtctr 0
 5511 0bcc 4E800421 		bctrl
 5512              	.LVL425:
 5513              	.L308:
 5514              	.LBE4216:
 5515              	.LBE4215:
 5516              	.LBE4214:
 5517              	.LBE4218:
 5518              	.LBE4231:
 5519              	.LBB4232:
 5520              	.LBB4233:
 5521              	.LBB4234:
 5522              	.LBB4235:
 5523              	.LBB4236:
 5524              	.LBB4237:
 5525              		.loc 13 639 0
 5526 0bd0 809E00BC 		lwz 4,188(30)
 5527 0bd4 7FE3FB78 		mr 3,31
 5528 0bd8 48000001 		bl _ZNSt8_Rb_treeIPN7sigslot12_signal_baseINS0_15single_threadedEEES4_St9_IdentityIS4_ESt4lessIS4_
 5529              	.LBE4237:
 5530              	.LBE4236:
 5531              	.LBE4235:
 5532              	.LBE4234:
 5533              	.LBE4233:
 5534              	.LBE4232:
 5535              	.LBB4238:
 5536              	.LBB4239:
 5537              	.LBB4240:
 5538              		.loc 1 105 0
 5539 0bdc 3D200000 		lis 9,_ZTVN7sigslot15single_threadedE+8@ha
 5540 0be0 38090008 		la 0,_ZTVN7sigslot15single_threadedE+8@l(9)
 5541 0be4 901E00B0 		stw 0,176(30)
 5542 0be8 4BFFFFBC 		b .L321
 5543              	.LVL426:
 5544              	.L340:
 5545 0bec 7C7D1B78 		mr 29,3
 5546 0bf0 4BFFFFE0 		b .L308
 5547              	.LVL427:
 5548              	.L339:
 5549 0bf4 7C7D1B78 		mr 29,3
 5550 0bf8 4BFFFFA4 		b .L335
 5551              	.LBE4240:
 5552              	.LBE4239:
 5553              	.LBE4238:
 5554              	.LBE4243:
 5555              	.LBE4246:
 5556              	.LBE4265:
 5557              	.LBE4268:
 5558              		.cfi_endproc
 5559              	.LFE1742:
 5560              		.section	.gcc_except_table
 5561              	.LLSDA1742:
 5562 0055 FF       		.byte	0xff
 5563 0056 FF       		.byte	0xff
 5564 0057 01       		.byte	0x1
 5565 0058 28       		.uleb128 .LLSDACSE1742-.LLSDACSB1742
 5566              	.LLSDACSB1742:
 5567 0059 34       		.uleb128 .LEHB14-.LFB1742
 5568 005a B002     		.uleb128 .LEHE14-.LEHB14
 5569 005c DC04     		.uleb128 .L338-.LFB1742
 5570 005e 00       		.uleb128 0
 5571 005f 8803     		.uleb128 .LEHB15-.LFB1742
 5572 0061 04       		.uleb128 .LEHE15-.LEHB15
 5573 0062 E405     		.uleb128 .L339-.LFB1742
 5574 0064 00       		.uleb128 0
 5575 0065 A403     		.uleb128 .LEHB16-.LFB1742
 5576 0067 04       		.uleb128 .LEHE16-.LEHB16
 5577 0068 DC05     		.uleb128 .L340-.LFB1742
 5578 006a 00       		.uleb128 0
 5579 006b CC03     		.uleb128 .LEHB17-.LFB1742
 5580 006d 04       		.uleb128 .LEHE17-.LEHB17
 5581 006e A405     		.uleb128 .L341-.LFB1742
 5582 0070 00       		.uleb128 0
 5583 0071 9804     		.uleb128 .LEHB18-.LFB1742
 5584 0073 04       		.uleb128 .LEHE18-.LEHB18
 5585 0074 DC05     		.uleb128 .L340-.LFB1742
 5586 0076 00       		.uleb128 0
 5587 0077 B804     		.uleb128 .LEHB19-.LFB1742
 5588 0079 04       		.uleb128 .LEHE19-.LEHB19
 5589 007a 00       		.uleb128 0
 5590 007b 00       		.uleb128 0
 5591 007c A005     		.uleb128 .LEHB20-.LFB1742
 5592 007e 04       		.uleb128 .LEHE20-.LEHB20
 5593 007f 00       		.uleb128 0
 5594 0080 00       		.uleb128 0
 5595              	.LLSDACSE1742:
 5596              		.section	".text"
 5597              		.size	_ZN11ApplicationD2Ev, .-_ZN11ApplicationD2Ev
 5598              		.align 2
 5599              		.globl _ZThn176_N11ApplicationD0Ev
 5600              		.type	_ZThn176_N11ApplicationD0Ev, @function
 5601              	_ZThn176_N11ApplicationD0Ev:
 5602              	.LFB2714:
 5603              		.cfi_startproc
 5604 0bfc 3863FF50 		addi 3,3,-176
 5605 0c00 48000004 		b .LTHUNK1
 5606              		.cfi_endproc
 5607              	.LFE2714:
 5608              		.size	_ZThn176_N11ApplicationD0Ev, .-_ZThn176_N11ApplicationD0Ev
 5609              		.align 2
 5610              		.globl _ZN11ApplicationD0Ev
 5611              		.type	_ZN11ApplicationD0Ev, @function
 5612              	_ZN11ApplicationD0Ev:
 5613              	.LFB1744:
 5614              		.loc 3 43 0
 5615              		.cfi_startproc
 5616              	.LVL428:
 5617 0c04 9421FFF0 		stwu 1,-16(1)
 5618              	.LCFI85:
 5619              		.cfi_def_cfa_offset 16
 5620 0c08 7C0802A6 		mflr 0
 5621 0c0c 93E1000C 		stw 31,12(1)
 5622 0c10 7C7F1B78 		mr 31,3
 5623              		.cfi_offset 31, -4
 5624              		.cfi_register 65, 0
 5625 0c14 90010014 		stw 0,20(1)
 5626              		.loc 3 58 0
 5627              		.cfi_offset 65, 4
 5628 0c18 48000001 		bl _ZN11ApplicationD1Ev
 5629              	.LVL429:
 5630 0c1c 7FE3FB78 		mr 3,31
 5631 0c20 48000001 		bl _ZdlPv
 5632 0c24 80010014 		lwz 0,20(1)
 5633 0c28 83E1000C 		lwz 31,12(1)
 5634              	.LVL430:
 5635 0c2c 7C0803A6 		mtlr 0
 5636 0c30 38210010 		addi 1,1,16
 5637              	.LCFI86:
 5638              		.cfi_def_cfa_offset 0
 5639              		.cfi_restore 31
 5640 0c34 4E800020 		blr
 5641              		.cfi_endproc
 5642              	.LFE1744:
 5643              		.size	_ZN11ApplicationD0Ev, .-_ZN11ApplicationD0Ev
 5644              		.section	.text._ZN7sigslot9has_slotsINS_15single_threadedEED0Ev,"axG",@progbits,_ZN7sigslot9has_sl
 5645              		.align 2
 5646              		.weak	_ZN7sigslot9has_slotsINS_15single_threadedEED0Ev
 5647              		.type	_ZN7sigslot9has_slotsINS_15single_threadedEED0Ev, @function
 5648              	_ZN7sigslot9has_slotsINS_15single_threadedEED0Ev:
 5649              	.LFB1847:
 5650              		.loc 1 513 0
 5651              		.cfi_startproc
 5652              		.cfi_personality 0,__gxx_personality_v0
 5653              		.cfi_lsda 0,.LLSDA1847
 5654              	.LVL431:
 5655 0000 7C0802A6 		mflr 0
 5656 0004 9421FFE0 		stwu 1,-32(1)
 5657              	.LCFI87:
 5658              		.cfi_def_cfa_offset 32
 5659              		.cfi_register 65, 0
 5660              	.LBB4362:
 5661              	.LBB4363:
 5662              	.LBB4364:
 5663              		.loc 1 516 0
 5664 0008 3D200000 		lis 9,_ZTVN7sigslot9has_slotsINS_15single_threadedEEE+8@ha
 5665              	.LBE4364:
 5666              	.LBE4363:
 5667              	.LBE4362:
 5668              		.loc 1 513 0
 5669 000c 93810010 		stw 28,16(1)
 5670 0010 3B830004 		addi 28,3,4
 5671              		.cfi_offset 28, -16
 5672 0014 90010024 		stw 0,36(1)
 5673              	.LBB4448:
 5674              	.LBB4444:
 5675              	.LBB4440:
 5676              		.loc 1 516 0
 5677 0018 38090008 		la 0,_ZTVN7sigslot9has_slotsINS_15single_threadedEEE+8@l(9)
 5678              		.cfi_offset 65, 4
 5679              	.LBE4440:
 5680              	.LBE4444:
 5681              	.LBE4448:
 5682              		.loc 1 513 0
 5683 001c 93A10014 		stw 29,20(1)
 5684 0020 7C7D1B78 		mr 29,3
 5685              		.cfi_offset 29, -12
 5686              	.LVL432:
 5687 0024 93410008 		stw 26,8(1)
 5688 0028 9361000C 		stw 27,12(1)
 5689 002c 93C10018 		stw 30,24(1)
 5690 0030 93E1001C 		stw 31,28(1)
 5691              	.LBB4449:
 5692              	.LBB4445:
 5693              	.LBB4441:
 5694              		.loc 1 516 0
 5695 0034 90030000 		stw 0,0(3)
 5696              	.LVL433:
 5697              	.LEHB21:
 5698              	.LBB4365:
 5699              	.LBB4366:
 5700              	.LBB4367:
 5701              	.LBB4368:
 5702              		.loc 1 338 0
 5703              		.cfi_offset 31, -4
 5704              		.cfi_offset 30, -8
 5705              		.cfi_offset 27, -20
 5706              		.cfi_offset 26, -24
 5707 0038 48000001 		bl _ZN7sigslot15single_threaded4lockEv
 5708              	.LEHE21:
 5709              	.LVL434:
 5710              	.LBE4368:
 5711              	.LBE4367:
 5712              	.LBB4369:
 5713              		.loc 3 272 0
 5714 003c 83FD0010 		lwz 31,16(29)
 5715              	.LVL435:
 5716              	.LBE4369:
 5717              	.LBB4370:
 5718              	.LBB4371:
 5719              	.LBB4372:
 5720              		.loc 13 671 0
 5721 0040 3BDC0004 		addi 30,28,4
 5722              	.LVL436:
 5723              	.LBE4372:
 5724              	.LBE4371:
 5725              	.LBE4370:
 5726              		.loc 1 524 0
 5727 0044 7F9FF000 		cmpw 7,31,30
 5728 0048 419E0034 		beq- 7,.L348
 5729              	.LVL437:
 5730              	.L376:
 5731              		.loc 1 526 0
 5732 004c 807F0010 		lwz 3,16(31)
 5733 0050 7FA4EB78 		mr 4,29
 5734 0054 81230000 		lwz 9,0(3)
 5735 0058 80090010 		lwz 0,16(9)
 5736 005c 7C0903A6 		mtctr 0
 5737              	.LEHB22:
 5738 0060 4E800421 		bctrl
 5739              	.LEHE22:
 5740              	.LVL438:
 5741              	.LBB4373:
 5742              	.LBB4374:
 5743              		.loc 13 269 0
 5744 0064 7FE3FB78 		mr 3,31
 5745 0068 48000001 		bl _ZSt18_Rb_tree_incrementPKSt18_Rb_tree_node_base
 5746              	.LBE4374:
 5747              	.LBE4373:
 5748              		.loc 1 524 0
 5749 006c 7F9E1800 		cmpw 7,30,3
 5750              	.LBB4376:
 5751              	.LBB4375:
 5752              		.loc 13 269 0
 5753 0070 7C7F1B78 		mr 31,3
 5754              	.LVL439:
 5755              	.LBE4375:
 5756              	.LBE4376:
 5757              		.loc 1 524 0
 5758 0074 409EFFD8 		bne+ 7,.L376
 5759 0078 83FD0010 		lwz 31,16(29)
 5760              	.LVL440:
 5761              	.L348:
 5762              	.LBB4377:
 5763              	.LBB4378:
 5764              	.LBB4379:
 5765              	.LBB4380:
 5766              	.LBB4381:
 5767              	.LBB4382:
 5768              	.LBB4383:
 5769              		.loc 13 665 0
 5770 007c 3B5C0004 		addi 26,28,4
 5771              	.LBE4383:
 5772              	.LBE4382:
 5773              		.loc 13 1500 0
 5774 0080 7F9ED000 		cmpw 7,30,26
 5775 0084 419E00A0 		beq- 7,.L350
 5776              	.LVL441:
 5777              		.loc 13 1503 0
 5778 0088 7F9EF800 		cmpw 7,30,31
 5779 008c 40BE000C 		bne+ 7,.L378
 5780 0090 48000038 		b .L351
 5781              	.LVL442:
 5782              	.L373:
 5783              		.loc 13 277 0
 5784 0094 7F7FDB78 		mr 31,27
 5785              	.LVL443:
 5786              	.L378:
 5787              	.LBB4384:
 5788              	.LBB4385:
 5789 0098 7FE3FB78 		mr 3,31
 5790 009c 48000001 		bl _ZSt18_Rb_tree_incrementPKSt18_Rb_tree_node_base
 5791              	.LBE4385:
 5792              	.LBE4384:
 5793              	.LBB4387:
 5794              	.LBB4388:
 5795              	.LBB4389:
 5796              		.loc 13 1489 0
 5797 00a0 7F44D378 		mr 4,26
 5798              	.LBE4389:
 5799              	.LBE4388:
 5800              	.LBE4387:
 5801              	.LBB4398:
 5802              	.LBB4386:
 5803              		.loc 13 277 0
 5804 00a4 7C7B1B78 		mr 27,3
 5805              	.LVL444:
 5806              	.LBE4386:
 5807              	.LBE4398:
 5808              	.LBB4399:
 5809              	.LBB4396:
 5810              	.LBB4394:
 5811              		.loc 13 1489 0
 5812 00a8 7FE3FB78 		mr 3,31
 5813              	.LVL445:
 5814 00ac 48000001 		bl _ZSt28_Rb_tree_rebalance_for_erasePSt18_Rb_tree_node_baseRS_
 5815              	.LBB4390:
 5816              	.LBB4391:
 5817              	.LBB4392:
 5818              	.LBB4393:
 5819              		.loc 12 98 0
 5820 00b0 48000001 		bl _ZdlPv
 5821              	.LBE4393:
 5822              	.LBE4392:
 5823              	.LBE4391:
 5824              	.LBE4390:
 5825              	.LBE4394:
 5826              	.LBE4396:
 5827              	.LBE4399:
 5828              		.loc 13 1503 0
 5829 00b4 7F9ED800 		cmpw 7,30,27
 5830              	.LBB4400:
 5831              	.LBB4397:
 5832              	.LBB4395:
 5833              		.loc 13 1491 0
 5834 00b8 813C0014 		lwz 9,20(28)
 5835 00bc 3809FFFF 		addi 0,9,-1
 5836 00c0 901C0014 		stw 0,20(28)
 5837              	.LBE4395:
 5838              	.LBE4397:
 5839              	.LBE4400:
 5840              		.loc 13 1503 0
 5841 00c4 409EFFD0 		bne+ 7,.L373
 5842              	.LVL446:
 5843              	.L351:
 5844              	.LBE4381:
 5845              	.LBE4380:
 5846              	.LBE4379:
 5847              	.LBE4378:
 5848              	.LBE4377:
 5849              	.LBB4409:
 5850              	.LBB4410:
 5851              	.LBB4411:
 5852              		.loc 1 343 0
 5853 00c8 813D0000 		lwz 9,0(29)
 5854 00cc 7FA3EB78 		mr 3,29
 5855 00d0 8009000C 		lwz 0,12(9)
 5856 00d4 7C0903A6 		mtctr 0
 5857              	.LEHB23:
 5858 00d8 4E800421 		bctrl
 5859              	.LEHE23:
 5860              	.LVL447:
 5861              	.LBE4411:
 5862              	.LBE4410:
 5863              	.LBE4409:
 5864              	.LBE4366:
 5865              	.LBE4365:
 5866              	.LBB4418:
 5867              	.LBB4419:
 5868              	.LBB4420:
 5869              	.LBB4421:
 5870              	.LBB4422:
 5871              		.loc 13 639 0
 5872 00dc 809D000C 		lwz 4,12(29)
 5873 00e0 7F83E378 		mr 3,28
 5874 00e4 48000001 		bl _ZNSt8_Rb_treeIPN7sigslot12_signal_baseINS0_15single_threadedEEES4_St9_IdentityIS4_ESt4lessIS4_
 5875              	.LVL448:
 5876              	.LBE4422:
 5877              	.LBE4421:
 5878              	.LBE4420:
 5879              	.LBE4419:
 5880              	.LBE4418:
 5881              	.LBB4423:
 5882              	.LBB4424:
 5883              	.LBB4425:
 5884              		.loc 1 105 0
 5885 00e8 3D200000 		lis 9,_ZTVN7sigslot15single_threadedE+8@ha
 5886 00ec 38090008 		la 0,_ZTVN7sigslot15single_threadedE+8@l(9)
 5887              	.LBE4425:
 5888              	.LBE4424:
 5889              	.LBE4423:
 5890              	.LBE4441:
 5891              	.LBE4445:
 5892              	.LBE4449:
 5893              		.loc 1 516 0
 5894 00f0 7FA3EB78 		mr 3,29
 5895              	.LBB4450:
 5896              	.LBB4446:
 5897              	.LBB4442:
 5898              	.LBB4428:
 5899              	.LBB4427:
 5900              	.LBB4426:
 5901              		.loc 1 105 0
 5902 00f4 901D0000 		stw 0,0(29)
 5903              	.LBE4426:
 5904              	.LBE4427:
 5905              	.LBE4428:
 5906              	.LBE4442:
 5907              	.LBE4446:
 5908              	.LBE4450:
 5909              		.loc 1 516 0
 5910 00f8 48000001 		bl _ZdlPv
 5911 00fc 80010024 		lwz 0,36(1)
 5912 0100 83410008 		lwz 26,8(1)
 5913 0104 7C0803A6 		mtlr 0
 5914 0108 8361000C 		lwz 27,12(1)
 5915 010c 83810010 		lwz 28,16(1)
 5916              	.LVL449:
 5917 0110 83A10014 		lwz 29,20(1)
 5918              	.LVL450:
 5919 0114 83C10018 		lwz 30,24(1)
 5920              	.LVL451:
 5921 0118 83E1001C 		lwz 31,28(1)
 5922 011c 38210020 		addi 1,1,32
 5923              		.cfi_remember_state
 5924              	.LCFI88:
 5925              		.cfi_def_cfa_offset 0
 5926              		.cfi_restore 31
 5927              		.cfi_restore 30
 5928              		.cfi_restore 29
 5929              		.cfi_restore 28
 5930              		.cfi_restore 27
 5931              		.cfi_restore 26
 5932 0120 4E800020 		blr
 5933              	.LVL452:
 5934              	.L350:
 5935              	.LCFI89:
 5936              		.cfi_restore_state
 5937              	.LBB4451:
 5938              	.LBB4447:
 5939              	.LBB4443:
 5940              	.LBB4429:
 5941              	.LBB4416:
 5942              	.LBB4412:
 5943              	.LBB4408:
 5944              	.LBB4407:
 5945              	.LBB4406:
 5946              	.LBB4405:
 5947              	.LBB4401:
 5948              	.LBB4402:
 5949              	.LBB4403:
 5950              	.LBB4404:
 5951              		.loc 13 809 0
 5952 0124 809D000C 		lwz 4,12(29)
 5953 0128 7F83E378 		mr 3,28
 5954 012c 48000001 		bl _ZNSt8_Rb_treeIPN7sigslot12_signal_baseINS0_15single_threadedEEES4_St9_IdentityIS4_ESt4lessIS4_
 5955              	.LVL453:
 5956              		.loc 13 811 0
 5957 0130 38000000 		li 0,0
 5958              		.loc 13 810 0
 5959 0134 93DD0010 		stw 30,16(29)
 5960              	.LVL454:
 5961              		.loc 13 811 0
 5962 0138 901D000C 		stw 0,12(29)
 5963              	.LVL455:
 5964              		.loc 13 812 0
 5965 013c 93DD0014 		stw 30,20(29)
 5966              		.loc 13 813 0
 5967 0140 901D0018 		stw 0,24(29)
 5968 0144 4BFFFF84 		b .L351
 5969              	.LVL456:
 5970              	.L374:
 5971 0148 7C7F1B78 		mr 31,3
 5972              	.L358:
 5973              	.LVL457:
 5974              	.LBE4404:
 5975              	.LBE4403:
 5976              	.LBE4402:
 5977              	.LBE4401:
 5978              	.LBE4405:
 5979              	.LBE4406:
 5980              	.LBE4407:
 5981              	.LBE4408:
 5982              	.LBE4412:
 5983              	.LBE4416:
 5984              	.LBE4429:
 5985              	.LBB4430:
 5986              	.LBB4431:
 5987              	.LBB4432:
 5988              	.LBB4433:
 5989              	.LBB4434:
 5990              	.LBB4435:
 5991              		.loc 13 639 0
 5992 014c 809D000C 		lwz 4,12(29)
 5993 0150 7F83E378 		mr 3,28
 5994 0154 48000001 		bl _ZNSt8_Rb_treeIPN7sigslot12_signal_baseINS0_15single_threadedEEES4_St9_IdentityIS4_ESt4lessIS4_
 5995              	.LVL458:
 5996              	.LBE4435:
 5997              	.LBE4434:
 5998              	.LBE4433:
 5999              	.LBE4432:
 6000              	.LBE4431:
 6001              	.LBE4430:
 6002              	.LBB4436:
 6003              	.LBB4437:
 6004              	.LBB4438:
 6005              		.loc 1 105 0
 6006 0158 3D200000 		lis 9,_ZTVN7sigslot15single_threadedE+8@ha
 6007 015c 38090008 		la 0,_ZTVN7sigslot15single_threadedE+8@l(9)
 6008 0160 7FE3FB78 		mr 3,31
 6009 0164 901D0000 		stw 0,0(29)
 6010              	.LEHB24:
 6011 0168 48000001 		bl _Unwind_Resume
 6012              	.LEHE24:
 6013              	.LVL459:
 6014              	.L375:
 6015              	.LBE4438:
 6016              	.LBE4437:
 6017              	.LBE4436:
 6018              	.LBB4439:
 6019              	.LBB4417:
 6020              	.LBB4413:
 6021              	.LBB4414:
 6022              	.LBB4415:
 6023              		.loc 1 343 0
 6024 016c 813D0000 		lwz 9,0(29)
 6025 0170 7C7F1B78 		mr 31,3
 6026              	.LVL460:
 6027 0174 7FA3EB78 		mr 3,29
 6028 0178 8009000C 		lwz 0,12(9)
 6029 017c 7C0903A6 		mtctr 0
 6030 0180 4E800421 		bctrl
 6031 0184 4BFFFFC8 		b .L358
 6032              	.LBE4415:
 6033              	.LBE4414:
 6034              	.LBE4413:
 6035              	.LBE4417:
 6036              	.LBE4439:
 6037              	.LBE4443:
 6038              	.LBE4447:
 6039              	.LBE4451:
 6040              		.cfi_endproc
 6041              	.LFE1847:
 6042              		.section	.gcc_except_table
 6043              	.LLSDA1847:
 6044 0081 FF       		.byte	0xff
 6045 0082 FF       		.byte	0xff
 6046 0083 01       		.byte	0x1
 6047 0084 15       		.uleb128 .LLSDACSE1847-.LLSDACSB1847
 6048              	.LLSDACSB1847:
 6049 0085 38       		.uleb128 .LEHB21-.LFB1847
 6050 0086 04       		.uleb128 .LEHE21-.LEHB21
 6051 0087 C802     		.uleb128 .L374-.LFB1847
 6052 0089 00       		.uleb128 0
 6053 008a 60       		.uleb128 .LEHB22-.LFB1847
 6054 008b 04       		.uleb128 .LEHE22-.LEHB22
 6055 008c EC02     		.uleb128 .L375-.LFB1847
 6056 008e 00       		.uleb128 0
 6057 008f D801     		.uleb128 .LEHB23-.LFB1847
 6058 0091 04       		.uleb128 .LEHE23-.LEHB23
 6059 0092 C802     		.uleb128 .L374-.LFB1847
 6060 0094 00       		.uleb128 0
 6061 0095 E802     		.uleb128 .LEHB24-.LFB1847
 6062 0097 04       		.uleb128 .LEHE24-.LEHB24
 6063 0098 00       		.uleb128 0
 6064 0099 00       		.uleb128 0
 6065              	.LLSDACSE1847:
 6066              		.section	.text._ZN7sigslot9has_slotsINS_15single_threadedEED0Ev,"axG",@progbits,_ZN7sigslot9has_sl
 6067              		.size	_ZN7sigslot9has_slotsINS_15single_threadedEED0Ev, .-_ZN7sigslot9has_slotsINS_15single_thread
 6068              		.section	.text._ZNSt8_Rb_treeIPN7sigslot12_signal_baseINS0_15single_threadedEEES4_St9_IdentityIS4_
 6069              		.align 2
 6070              		.weak	_ZNSt8_Rb_treeIPN7sigslot12_signal_baseINS0_15single_threadedEEES4_St9_IdentityIS4_ESt4lessI
 6071              		.type	_ZNSt8_Rb_treeIPN7sigslot12_signal_baseINS0_15single_threadedEEES4_St9_IdentityIS4_ESt4lessI
 6072              	_ZNSt8_Rb_treeIPN7sigslot12_signal_baseINS0_15single_threadedEEES4_St9_IdentityIS4_ESt4lessIS4_ESaI
 6073              	.LFB2197:
 6074              		.loc 13 1264 0
 6075              		.cfi_startproc
 6076              	.LVL461:
 6077 0000 7C0802A6 		mflr 0
 6078 0004 9421FFE0 		stwu 1,-32(1)
 6079              	.LCFI90:
 6080              		.cfi_def_cfa_offset 32
 6081              		.cfi_register 65, 0
 6082 0008 93810010 		stw 28,16(1)
 6083 000c 90010024 		stw 0,36(1)
 6084 0010 9361000C 		stw 27,12(1)
 6085 0014 7C9B2378 		mr 27,4
 6086              		.cfi_offset 27, -20
 6087              		.cfi_offset 65, 4
 6088              		.cfi_offset 28, -16
 6089              	.LBB4491:
 6090              	.LBB4492:
 6091              	.LBB4493:
 6092              		.loc 3 272 0
 6093 0018 83830008 		lwz 28,8(3)
 6094              	.LVL462:
 6095              	.LBE4493:
 6096              	.LBE4492:
 6097              	.LBE4491:
 6098              		.loc 13 1264 0
 6099 001c 93A10014 		stw 29,20(1)
 6100              	.LBB4518:
 6101              	.LBB4510:
 6102              	.LBB4506:
 6103              		.loc 13 1272 0
 6104 0020 3BA30004 		addi 29,3,4
 6105              		.cfi_offset 29, -12
 6106              	.LVL463:
 6107              	.LBE4506:
 6108              	.LBE4510:
 6109              		.loc 13 1274 0
 6110 0024 2F9C0000 		cmpwi 7,28,0
 6111              	.LBE4518:
 6112              		.loc 13 1264 0
 6113 0028 93E1001C 		stw 31,28(1)
 6114 002c 93410008 		stw 26,8(1)
 6115 0030 7C7F1B78 		mr 31,3
 6116              		.cfi_offset 26, -24
 6117              		.cfi_offset 31, -4
 6118 0034 93C10018 		stw 30,24(1)
 6119              	.LBB4519:
 6120              		.loc 13 1274 0
 6121 0038 419E0084 		beq- 7,.L395
 6122              		.cfi_offset 30, -8
 6123              	.LVL464:
 6124 003c 81440000 		lwz 10,0(4)
 6125 0040 48000014 		b .L384
 6126              	.LVL465:
 6127              	.L403:
 6128              		.loc 3 272 0 discriminator 1
 6129 0044 801C0008 		lwz 0,8(28)
 6130              	.LVL466:
 6131              		.loc 13 1274 0 discriminator 1
 6132 0048 2F800000 		cmpwi 7,0,0
 6133 004c 419E0028 		beq- 7,.L402
 6134              	.LVL467:
 6135              	.L396:
 6136              		.loc 13 1274 0 is_stmt 0
 6137 0050 7C1C0378 		mr 28,0
 6138              	.LVL468:
 6139              	.L384:
 6140              		.loc 3 272 0 is_stmt 1
 6141 0054 813C0010 		lwz 9,16(28)
 6142 0058 39600001 		li 11,1
 6143              		.loc 13 1278 0
 6144 005c 7F895040 		cmplw 7,9,10
 6145 0060 41BDFFE4 		bgt- 7,.L403
 6146              		.loc 3 272 0 discriminator 2
 6147 0064 801C000C 		lwz 0,12(28)
 6148 0068 39600000 		li 11,0
 6149              	.LVL469:
 6150              		.loc 13 1274 0 discriminator 2
 6151 006c 2F800000 		cmpwi 7,0,0
 6152 0070 409EFFE0 		bne+ 7,.L396
 6153              	.LVL470:
 6154              	.L402:
 6155              		.loc 13 1281 0
 6156 0074 2F8B0000 		cmpwi 7,11,0
 6157 0078 7F83E378 		mr 3,28
 6158              	.LVL471:
 6159 007c 409E0044 		bne- 7,.L381
 6160              	.LVL472:
 6161              		.loc 13 1289 0
 6162 0080 7F8A4840 		cmplw 7,10,9
 6163 0084 419D0060 		bgt- 7,.L404
 6164              	.LVL473:
 6165              	.L391:
 6166              		.loc 13 1292 0
 6167 0088 38000000 		li 0,0
 6168 008c 38800000 		li 4,0
 6169 0090 5004C00E 		rlwimi 4,0,24,0,7
 6170              	.LBE4519:
 6171              		.loc 13 1293 0
 6172 0094 80010024 		lwz 0,36(1)
 6173 0098 83410008 		lwz 26,8(1)
 6174 009c 7C0803A6 		mtlr 0
 6175 00a0 8361000C 		lwz 27,12(1)
 6176              	.LVL474:
 6177 00a4 83810010 		lwz 28,16(1)
 6178 00a8 83A10014 		lwz 29,20(1)
 6179 00ac 83C10018 		lwz 30,24(1)
 6180 00b0 83E1001C 		lwz 31,28(1)
 6181              	.LVL475:
 6182 00b4 38210020 		addi 1,1,32
 6183              		.cfi_remember_state
 6184              	.LCFI91:
 6185              		.cfi_def_cfa_offset 0
 6186              		.cfi_restore 31
 6187              		.cfi_restore 30
 6188              		.cfi_restore 29
 6189              		.cfi_restore 28
 6190              		.cfi_restore 27
 6191              		.cfi_restore 26
 6192 00b8 4E800020 		blr
 6193              	.LVL476:
 6194              	.L395:
 6195              	.LCFI92:
 6196              		.cfi_restore_state
 6197              	.LBB4520:
 6198              		.loc 13 1272 0
 6199 00bc 7FBCEB78 		mr 28,29
 6200              	.LVL477:
 6201              	.L381:
 6202              		.loc 13 1283 0
 6203 00c0 801F000C 		lwz 0,12(31)
 6204 00c4 7F9C0000 		cmpw 7,28,0
 6205 00c8 419E003C 		beq- 7,.L405
 6206              	.LVL478:
 6207              	.LBB4511:
 6208              	.LBB4512:
 6209              		.loc 13 203 0
 6210 00cc 7F83E378 		mr 3,28
 6211 00d0 48000001 		bl _ZSt18_Rb_tree_decrementPSt18_Rb_tree_node_base
 6212              	.LVL479:
 6213 00d4 815B0000 		lwz 10,0(27)
 6214 00d8 81230010 		lwz 9,16(3)
 6215              	.LVL480:
 6216              	.LBE4512:
 6217              	.LBE4511:
 6218              		.loc 13 1289 0
 6219 00dc 7F8A4840 		cmplw 7,10,9
 6220 00e0 409DFFA8 		ble+ 7,.L391
 6221              	.LVL481:
 6222              	.L404:
 6223              	.LBB4513:
 6224              	.LBB4507:
 6225              		.loc 13 969 0
 6226 00e4 7F9CE800 		cmpw 7,28,29
 6227 00e8 3B400001 		li 26,1
 6228 00ec 419E0038 		beq- 7,.L392
 6229              	.LVL482:
 6230              		.loc 13 1264 0
 6231 00f0 835C0010 		lwz 26,16(28)
 6232 00f4 7F5A5010 		subfc 26,26,10
 6233 00f8 7F5AD110 		subfe 26,26,26
 6234 00fc 7F5A00D0 		neg 26,26
 6235 0100 48000024 		b .L392
 6236              	.LVL483:
 6237              	.L405:
 6238              	.LBE4507:
 6239              	.LBE4513:
 6240              	.LBB4514:
 6241              	.LBB4515:
 6242              		.loc 13 969 0
 6243 0104 7F9CE800 		cmpw 7,28,29
 6244 0108 3B400001 		li 26,1
 6245 010c 419E0018 		beq- 7,.L392
 6246              	.LVL484:
 6247              		.loc 13 1264 0
 6248 0110 835B0000 		lwz 26,0(27)
 6249 0114 801C0010 		lwz 0,16(28)
 6250              	.LVL485:
 6251 0118 7F40D010 		subfc 26,0,26
 6252 011c 7F5AD110 		subfe 26,26,26
 6253 0120 7F5A00D0 		neg 26,26
 6254              	.LVL486:
 6255              	.L392:
 6256              	.LBE4515:
 6257              	.LBE4514:
 6258              	.LBB4516:
 6259              	.LBB4508:
 6260              	.LBB4494:
 6261              	.LBB4495:
 6262              	.LBB4496:
 6263              	.LBB4497:
 6264              	.LBB4498:
 6265              		.loc 12 92 0
 6266 0124 38600014 		li 3,20
 6267 0128 48000001 		bl _Znwj
 6268              	.LBE4498:
 6269              	.LBE4497:
 6270              	.LBE4496:
 6271              	.LBB4501:
 6272              	.LBB4502:
 6273              		.loc 12 108 0
 6274 012c 2F83FFF0 		cmpwi 7,3,-16
 6275              	.LBE4502:
 6276              	.LBE4501:
 6277              	.LBB4504:
 6278              	.LBB4500:
 6279              	.LBB4499:
 6280              		.loc 12 92 0
 6281 0130 7C7E1B78 		mr 30,3
 6282              	.LVL487:
 6283              	.LBE4499:
 6284              	.LBE4500:
 6285              	.LBE4504:
 6286              	.LBB4505:
 6287              	.LBB4503:
 6288              		.loc 12 108 0
 6289 0134 419E000C 		beq- 7,.L394
 6290 0138 801B0000 		lwz 0,0(27)
 6291 013c 90030010 		stw 0,16(3)
 6292              	.L394:
 6293              	.LVL488:
 6294              	.LBE4503:
 6295              	.LBE4505:
 6296              	.LBE4495:
 6297              	.LBE4494:
 6298              		.loc 13 973 0
 6299 0140 7F43D378 		mr 3,26
 6300              	.LVL489:
 6301 0144 7FC4F378 		mr 4,30
 6302 0148 7F85E378 		mr 5,28
 6303 014c 7FA6EB78 		mr 6,29
 6304 0150 48000001 		bl _ZSt29_Rb_tree_insert_and_rebalancebPSt18_Rb_tree_node_baseS0_RS_
 6305              		.loc 13 976 0
 6306 0154 813F0014 		lwz 9,20(31)
 6307              		.loc 13 1291 0
 6308 0158 38800000 		li 4,0
 6309 015c 7FC3F378 		mr 3,30
 6310              		.loc 13 976 0
 6311 0160 38090001 		addi 0,9,1
 6312              	.LBE4508:
 6313              	.LBE4516:
 6314              	.LBE4520:
 6315              		.loc 13 1293 0
 6316 0164 83410008 		lwz 26,8(1)
 6317              	.LVL490:
 6318              	.LBB4521:
 6319              	.LBB4517:
 6320              	.LBB4509:
 6321              		.loc 13 976 0
 6322 0168 901F0014 		stw 0,20(31)
 6323              	.LVL491:
 6324              		.loc 13 1291 0
 6325 016c 38000001 		li 0,1
 6326 0170 5004C00E 		rlwimi 4,0,24,0,7
 6327              	.LBE4509:
 6328              	.LBE4517:
 6329              	.LBE4521:
 6330              		.loc 13 1293 0
 6331 0174 80010024 		lwz 0,36(1)
 6332 0178 8361000C 		lwz 27,12(1)
 6333              	.LVL492:
 6334 017c 7C0803A6 		mtlr 0
 6335 0180 83810010 		lwz 28,16(1)
 6336 0184 83A10014 		lwz 29,20(1)
 6337 0188 83C10018 		lwz 30,24(1)
 6338              	.LVL493:
 6339 018c 83E1001C 		lwz 31,28(1)
 6340              	.LVL494:
 6341 0190 38210020 		addi 1,1,32
 6342              		.cfi_restore 26
 6343              		.cfi_restore 27
 6344              		.cfi_restore 28
 6345              		.cfi_restore 29
 6346              		.cfi_restore 30
 6347              		.cfi_restore 31
 6348              	.LCFI93:
 6349              		.cfi_def_cfa_offset 0
 6350 0194 4E800020 		blr
 6351              		.cfi_endproc
 6352              	.LFE2197:
 6353              		.size	_ZNSt8_Rb_treeIPN7sigslot12_signal_baseINS0_15single_threadedEEES4_St9_IdentityIS4_ESt4lessI
 6354              		.section	.text._ZN7sigslot7signal3IP9GuiButtoniRK6_POINTNS_15single_threadedEE7connectI11Applicati
 6355              		.align 2
 6356              		.weak	_ZN7sigslot7signal3IP9GuiButtoniRK6_POINTNS_15single_threadedEE7connectI11ApplicationEEvPT_M
 6357              		.type	_ZN7sigslot7signal3IP9GuiButtoniRK6_POINTNS_15single_threadedEE7connectI11ApplicationEEvPT_M
 6358              	_ZN7sigslot7signal3IP9GuiButtoniRK6_POINTNS_15single_threadedEE7connectI11ApplicationEEvPT_MSA_FvS2
 6359              	.LFB1856:
 6360              		.loc 1 2308 0
 6361              		.cfi_startproc
 6362              		.cfi_personality 0,__gxx_personality_v0
 6363              		.cfi_lsda 0,.LLSDA1856
 6364              	.LVL495:
 6365 0000 7C0802A6 		mflr 0
 6366 0004 9421FFD0 		stwu 1,-48(1)
 6367              	.LCFI94:
 6368              		.cfi_def_cfa_offset 48
 6369              		.cfi_register 65, 0
 6370 0008 9361001C 		stw 27,28(1)
 6371 000c 90010034 		stw 0,52(1)
 6372 0010 93C10028 		stw 30,40(1)
 6373 0014 7C9E2378 		mr 30,4
 6374              		.cfi_offset 30, -8
 6375              		.cfi_offset 65, 4
 6376              		.cfi_offset 27, -20
 6377              	.LBB4564:
 6378              	.LBB4565:
 6379              	.LBB4566:
 6380              		.loc 1 338 0
 6381 0018 81230000 		lwz 9,0(3)
 6382              	.LBE4566:
 6383              	.LBE4565:
 6384              	.LBE4564:
 6385              		.loc 1 2308 0
 6386 001c 93E1002C 		stw 31,44(1)
 6387 0020 7C7F1B78 		mr 31,3
 6388              		.cfi_offset 31, -4
 6389              	.LVL496:
 6390              	.LBB4619:
 6391              	.LBB4570:
 6392              	.LBB4567:
 6393              		.loc 1 338 0
 6394 0024 80090008 		lwz 0,8(9)
 6395              	.LBE4567:
 6396              	.LBE4570:
 6397              	.LBE4619:
 6398              		.loc 1 2308 0
 6399 0028 93810020 		stw 28,32(1)
 6400 002c 93A10024 		stw 29,36(1)
 6401              	.LBB4620:
 6402              	.LBB4571:
 6403              	.LBB4568:
 6404              		.loc 1 338 0
 6405 0030 7C0903A6 		mtctr 0
 6406              	.LBE4568:
 6407              	.LBE4571:
 6408              	.LBE4620:
 6409              		.loc 1 2308 0
 6410 0034 83650000 		lwz 27,0(5)
 6411 0038 83850004 		lwz 28,4(5)
 6412              		.cfi_offset 29, -12
 6413              		.cfi_offset 28, -16
 6414              	.LEHB25:
 6415              	.LBB4621:
 6416              	.LBB4572:
 6417              	.LBB4569:
 6418              		.loc 1 338 0
 6419 003c 4E800421 		bctrl
 6420              	.LEHE25:
 6421              	.LVL497:
 6422              	.LBE4569:
 6423              	.LBE4572:
 6424              		.loc 1 2314 0
 6425 0040 38600010 		li 3,16
 6426              	.LEHB26:
 6427 0044 48000001 		bl _Znwj
 6428              	.LBB4573:
 6429              	.LBB4574:
 6430              		.loc 1 1778 0
 6431 0048 3D200000 		lis 9,_ZTVN7sigslot12_connection3I11ApplicationP9GuiButtoniRK6_POINTNS_15single_threadedEEE+8@ha
 6432              		.loc 1 1779 0
 6433 004c 93C30004 		stw 30,4(3)
 6434              		.loc 1 1778 0
 6435 0050 38090008 		la 0,_ZTVN7sigslot12_connection3I11ApplicationP9GuiButtoniRK6_POINTNS_15single_threadedEEE+8@l(9)
 6436              		.loc 1 1780 0
 6437 0054 93630008 		stw 27,8(3)
 6438              		.loc 1 1778 0
 6439 0058 90030000 		stw 0,0(3)
 6440              	.LBE4574:
 6441              	.LBE4573:
 6442              		.loc 1 2314 0
 6443 005c 7C7D1B78 		mr 29,3
 6444              	.LVL498:
 6445              	.LBB4576:
 6446              	.LBB4575:
 6447              		.loc 1 1780 0
 6448 0060 9383000C 		stw 28,12(3)
 6449              	.LVL499:
 6450              	.LBE4575:
 6451              	.LBE4576:
 6452              	.LBB4577:
 6453              	.LBB4578:
 6454              	.LBB4579:
 6455              	.LBB4580:
 6456              	.LBB4581:
 6457              	.LBB4582:
 6458              	.LBB4583:
 6459              	.LBB4584:
 6460              		.loc 12 92 0
 6461 0064 3860000C 		li 3,12
 6462              	.LVL500:
 6463 0068 48000001 		bl _Znwj
 6464              	.LVL501:
 6465              	.LBE4584:
 6466              	.LBE4583:
 6467              	.LBE4582:
 6468              	.LBB4585:
 6469              	.LBB4586:
 6470              		.loc 12 108 0 discriminator 1
 6471 006c 2F83FFF8 		cmpwi 7,3,-8
 6472 0070 419E0008 		beq- 7,.L408
 6473              		.loc 12 108 0 is_stmt 0
 6474 0074 93A30008 		stw 29,8(3)
 6475              	.L408:
 6476              	.LVL502:
 6477              	.LBE4586:
 6478              	.LBE4585:
 6479              	.LBE4581:
 6480              	.LBE4580:
 6481              		.file 15 "d:\\devkitpro\\devkitppc\\bin\\../lib/gcc/powerpc-eabi/4.6.3/../../../../powerpc-eabi/in
 6482              		.loc 15 1516 0 is_stmt 1
 6483 0078 389F0004 		addi 4,31,4
 6484              	.LBE4579:
 6485              	.LBE4578:
 6486              	.LBE4577:
 6487              	.LBB4591:
 6488              	.LBB4592:
 6489              		.loc 1 503 0
 6490 007c 3BBE00B0 		addi 29,30,176
 6491              	.LVL503:
 6492              	.LBE4592:
 6493              	.LBE4591:
 6494              	.LBB4608:
 6495              	.LBB4589:
 6496              	.LBB4587:
 6497              		.loc 15 1516 0
 6498 0080 48000001 		bl _ZNSt8__detail15_List_node_base7_M_hookEPS0_
 6499              	.LVL504:
 6500              	.LBE4587:
 6501              	.LBE4589:
 6502              	.LBE4608:
 6503              	.LBB4609:
 6504              	.LBB4605:
 6505              	.LBB4593:
 6506              	.LBB4594:
 6507              		.loc 1 338 0
 6508 0084 813E00B0 		lwz 9,176(30)
 6509              	.LBE4594:
 6510              	.LBE4593:
 6511              	.LBE4605:
 6512              	.LBE4609:
 6513              	.LBB4610:
 6514              	.LBB4590:
 6515              	.LBB4588:
 6516              		.loc 15 1516 0
 6517 0088 93E10008 		stw 31,8(1)
 6518              	.LVL505:
 6519              	.LBE4588:
 6520              	.LBE4590:
 6521              	.LBE4610:
 6522              	.LBB4611:
 6523              	.LBB4606:
 6524              	.LBB4596:
 6525              	.LBB4595:
 6526              		.loc 1 338 0
 6527 008c 7FA3EB78 		mr 3,29
 6528 0090 80090008 		lwz 0,8(9)
 6529 0094 7C0903A6 		mtctr 0
 6530 0098 4E800421 		bctrl
 6531              	.LEHE26:
 6532              	.LVL506:
 6533              	.LBE4595:
 6534              	.LBE4596:
 6535              	.LBB4597:
 6536              	.LBB4598:
 6537              		.loc 14 410 0
 6538 009c 387E00B4 		addi 3,30,180
 6539 00a0 38810008 		addi 4,1,8
 6540              	.LEHB27:
 6541 00a4 48000001 		bl _ZNSt8_Rb_treeIPN7sigslot12_signal_baseINS0_15single_threadedEEES4_St9_IdentityIS4_ESt4lessIS4_
 6542              	.LEHE27:
 6543              	.LVL507:
 6544              	.LBE4598:
 6545              	.LBE4597:
 6546              	.LBB4599:
 6547              	.LBB4600:
 6548              	.LBB4601:
 6549              		.loc 1 343 0
 6550 00a8 813E00B0 		lwz 9,176(30)
 6551 00ac 7FA3EB78 		mr 3,29
 6552 00b0 8009000C 		lwz 0,12(9)
 6553 00b4 7C0903A6 		mtctr 0
 6554              	.LEHB28:
 6555 00b8 4E800421 		bctrl
 6556              	.LEHE28:
 6557              	.LVL508:
 6558              	.LBE4601:
 6559              	.LBE4600:
 6560              	.LBE4599:
 6561              	.LBE4606:
 6562              	.LBE4611:
 6563              	.LBB4612:
 6564              	.LBB4613:
 6565              	.LBB4614:
 6566 00bc 813F0000 		lwz 9,0(31)
 6567 00c0 7FE3FB78 		mr 3,31
 6568 00c4 8009000C 		lwz 0,12(9)
 6569 00c8 7C0903A6 		mtctr 0
 6570              	.LEHB29:
 6571 00cc 4E800421 		bctrl
 6572              	.LEHE29:
 6573              	.LBE4614:
 6574              	.LBE4613:
 6575              	.LBE4612:
 6576              	.LBE4621:
 6577              		.loc 1 2317 0
 6578 00d0 80010034 		lwz 0,52(1)
 6579 00d4 8361001C 		lwz 27,28(1)
 6580              	.LVL509:
 6581 00d8 7C0803A6 		mtlr 0
 6582 00dc 83810020 		lwz 28,32(1)
 6583              	.LVL510:
 6584 00e0 83A10024 		lwz 29,36(1)
 6585              	.LVL511:
 6586 00e4 83C10028 		lwz 30,40(1)
 6587              	.LVL512:
 6588 00e8 83E1002C 		lwz 31,44(1)
 6589              	.LVL513:
 6590 00ec 38210030 		addi 1,1,48
 6591              		.cfi_remember_state
 6592              	.LCFI95:
 6593              		.cfi_def_cfa_offset 0
 6594              		.cfi_restore 31
 6595              		.cfi_restore 30
 6596              		.cfi_restore 29
 6597              		.cfi_restore 28
 6598              		.cfi_restore 27
 6599 00f0 4E800020 		blr
 6600              	.LVL514:
 6601              	.L415:
 6602              	.LCFI96:
 6603              		.cfi_restore_state
 6604 00f4 7C7E1B78 		mr 30,3
 6605              	.LVL515:
 6606              	.L412:
 6607              	.LBB4622:
 6608              	.LBB4615:
 6609              	.LBB4616:
 6610              	.LBB4617:
 6611              		.loc 1 343 0
 6612 00f8 813F0000 		lwz 9,0(31)
 6613 00fc 7FE3FB78 		mr 3,31
 6614 0100 8009000C 		lwz 0,12(9)
 6615 0104 7C0903A6 		mtctr 0
 6616 0108 4E800421 		bctrl
 6617 010c 7FC3F378 		mr 3,30
 6618              	.LEHB30:
 6619 0110 48000001 		bl _Unwind_Resume
 6620              	.LEHE30:
 6621              	.LVL516:
 6622              	.L416:
 6623              	.LBE4617:
 6624              	.LBE4616:
 6625              	.LBE4615:
 6626              	.LBB4618:
 6627              	.LBB4607:
 6628              	.LBB4602:
 6629              	.LBB4603:
 6630              	.LBB4604:
 6631 0114 813E00B0 		lwz 9,176(30)
 6632 0118 7C7E1B78 		mr 30,3
 6633              	.LVL517:
 6634 011c 7FA3EB78 		mr 3,29
 6635 0120 8009000C 		lwz 0,12(9)
 6636 0124 7C0903A6 		mtctr 0
 6637 0128 4E800421 		bctrl
 6638 012c 4BFFFFCC 		b .L412
 6639              	.LBE4604:
 6640              	.LBE4603:
 6641              	.LBE4602:
 6642              	.LBE4607:
 6643              	.LBE4618:
 6644              	.LBE4622:
 6645              		.cfi_endproc
 6646              	.LFE1856:
 6647              		.section	.gcc_except_table
 6648              	.LLSDA1856:
 6649 009a FF       		.byte	0xff
 6650 009b FF       		.byte	0xff
 6651 009c 01       		.byte	0x1
 6652 009d 1F       		.uleb128 .LLSDACSE1856-.LLSDACSB1856
 6653              	.LLSDACSB1856:
 6654 009e 3C       		.uleb128 .LEHB25-.LFB1856
 6655 009f 04       		.uleb128 .LEHE25-.LEHB25
 6656 00a0 00       		.uleb128 0
 6657 00a1 00       		.uleb128 0
 6658 00a2 44       		.uleb128 .LEHB26-.LFB1856
 6659 00a3 58       		.uleb128 .LEHE26-.LEHB26
 6660 00a4 F401     		.uleb128 .L415-.LFB1856
 6661 00a6 00       		.uleb128 0
 6662 00a7 A401     		.uleb128 .LEHB27-.LFB1856
 6663 00a9 04       		.uleb128 .LEHE27-.LEHB27
 6664 00aa 9402     		.uleb128 .L416-.LFB1856
 6665 00ac 00       		.uleb128 0
 6666 00ad B801     		.uleb128 .LEHB28-.LFB1856
 6667 00af 04       		.uleb128 .LEHE28-.LEHB28
 6668 00b0 F401     		.uleb128 .L415-.LFB1856
 6669 00b2 00       		.uleb128 0
 6670 00b3 CC01     		.uleb128 .LEHB29-.LFB1856
 6671 00b5 04       		.uleb128 .LEHE29-.LEHB29
 6672 00b6 00       		.uleb128 0
 6673 00b7 00       		.uleb128 0
 6674 00b8 9002     		.uleb128 .LEHB30-.LFB1856
 6675 00ba 04       		.uleb128 .LEHE30-.LEHB30
 6676 00bb 00       		.uleb128 0
 6677 00bc 00       		.uleb128 0
 6678              	.LLSDACSE1856:
 6679              		.section	.text._ZN7sigslot7signal3IP9GuiButtoniRK6_POINTNS_15single_threadedEE7connectI11Applicati
 6680              		.size	_ZN7sigslot7signal3IP9GuiButtoniRK6_POINTNS_15single_threadedEE7connectI11ApplicationEEvPT_M
 6681              		.section	".text"
 6682              		.align 2
 6683              		.globl _ZN11Application4initEv
 6684              		.type	_ZN11Application4initEv, @function
 6685              	_ZN11Application4initEv:
 6686              	.LFB1753:
 6687              		.loc 3 196 0
 6688              		.cfi_startproc
 6689              		.cfi_personality 0,__gxx_personality_v0
 6690              		.cfi_lsda 0,.LLSDA1753
 6691              	.LVL518:
 6692 0c38 7C0802A6 		mflr 0
 6693 0c3c 9421FFE0 		stwu 1,-32(1)
 6694              	.LCFI97:
 6695              		.cfi_def_cfa_offset 32
 6696              		.cfi_register 65, 0
 6697 0c40 93C10018 		stw 30,24(1)
 6698              		.loc 3 197 0
 6699 0c44 3FC00000 		lis 30,Settings@ha
 6700              		.cfi_offset 30, -8
 6701              		.loc 3 196 0
 6702 0c48 90010024 		stw 0,36(1)
 6703              		.loc 3 197 0
 6704 0c4c 3BDE0000 		la 30,Settings@l(30)
 6705              		.loc 3 196 0
 6706 0c50 93E1001C 		stw 31,28(1)
 6707 0c54 7C7F1B78 		mr 31,3
 6708              		.cfi_offset 31, -4
 6709              		.cfi_offset 65, 4
 6710              		.loc 3 197 0
 6711 0c58 A81E0A0E 		lha 0,2574(30)
 6712              		.loc 3 196 0
 6713 0c5c 93810010 		stw 28,16(1)
 6714              		.loc 3 197 0
 6715 0c60 2F800000 		cmpwi 7,0,0
 6716              		.loc 3 196 0
 6717 0c64 93A10014 		stw 29,20(1)
 6718              		.loc 3 197 0
 6719 0c68 419E0208 		beq- 7,.L444
 6720              		.cfi_offset 29, -12
 6721              		.cfi_offset 28, -16
 6722 0c6c 3C600000 		lis 3,.LC6@ha
 6723              	.LVL519:
 6724 0c70 38630000 		la 3,.LC6@l(3)
 6725              	.L419:
 6726              	.LEHB31:
 6727              		.loc 3 197 0 is_stmt 0 discriminator 3
 6728 0c74 48000001 		bl _ZN9Resources12GetImageDataEPKc
 6729 0c78 907F00E4 		stw 3,228(31)
 6730              		.loc 3 198 0 is_stmt 1 discriminator 3
 6731 0c7c 386000C4 		li 3,196
 6732 0c80 48000001 		bl _Znwj
 6733              	.LEHE31:
 6734 0c84 809F00E4 		lwz 4,228(31)
 6735 0c88 7C7D1B78 		mr 29,3
 6736              	.LEHB32:
 6737 0c8c 48000001 		bl _ZN8GuiImageC1EP12GuiImageData
 6738              	.LEHE32:
 6739              		.loc 3 198 0 is_stmt 0 discriminator 1
 6740 0c90 93BF00E0 		stw 29,224(31)
 6741              		.loc 3 201 0 is_stmt 1 discriminator 1
 6742 0c94 38600020 		li 3,32
 6743              	.LEHB33:
 6744 0c98 48000001 		bl _Znwj
 6745              	.LEHE33:
 6746 0c9c 3C800000 		lis 4,.LC8@ha
 6747 0ca0 3884002C 		la 4,.LC8@l(4)
 6748 0ca4 7C7D1B78 		mr 29,3
 6749              	.LEHB34:
 6750 0ca8 48000001 		bl _ZN10WiiPointerC1EPKc
 6751              	.LEHE34:
 6752 0cac 93BF00D0 		stw 29,208(31)
 6753              		.loc 3 202 0 discriminator 1
 6754 0cb0 38600020 		li 3,32
 6755              	.LEHB35:
 6756 0cb4 48000001 		bl _Znwj
 6757              	.LEHE35:
 6758 0cb8 3C800000 		lis 4,.LC9@ha
 6759 0cbc 38840040 		la 4,.LC9@l(4)
 6760 0cc0 7C7D1B78 		mr 29,3
 6761              	.LEHB36:
 6762 0cc4 48000001 		bl _ZN10WiiPointerC1EPKc
 6763              	.LEHE36:
 6764 0cc8 93BF00D4 		stw 29,212(31)
 6765              		.loc 3 203 0 discriminator 1
 6766 0ccc 38600020 		li 3,32
 6767              	.LEHB37:
 6768 0cd0 48000001 		bl _Znwj
 6769              	.LEHE37:
 6770 0cd4 3C800000 		lis 4,.LC10@ha
 6771 0cd8 38840054 		la 4,.LC10@l(4)
 6772 0cdc 7C7D1B78 		mr 29,3
 6773              	.LEHB38:
 6774 0ce0 48000001 		bl _ZN10WiiPointerC1EPKc
 6775              	.LEHE38:
 6776 0ce4 93BF00D8 		stw 29,216(31)
 6777              		.loc 3 204 0 discriminator 1
 6778 0ce8 38600020 		li 3,32
 6779              	.LEHB39:
 6780 0cec 48000001 		bl _Znwj
 6781              	.LEHE39:
 6782 0cf0 3C800000 		lis 4,.LC11@ha
 6783 0cf4 38840068 		la 4,.LC11@l(4)
 6784 0cf8 7C7D1B78 		mr 29,3
 6785              	.LEHB40:
 6786 0cfc 48000001 		bl _ZN10WiiPointerC1EPKc
 6787              	.LEHE40:
 6788 0d00 93BF00DC 		stw 29,220(31)
 6789              		.loc 3 206 0 discriminator 1
 6790 0d04 387F0274 		addi 3,31,628
 6791 0d08 38800001 		li 4,1
 6792              	.LBB4639:
 6793              	.LBB4640:
 6794              		.loc 5 38 0 discriminator 1
 6795 0d0c 3FA00000 		lis 29,_ZN11MusicPlayer8instanceE@ha
 6796              	.LEHB41:
 6797              	.LBE4640:
 6798              	.LBE4639:
 6799              		.loc 3 206 0 discriminator 1
 6800 0d10 48000001 		bl LWP_MutexInit
 6801              	.LBB4644:
 6802              	.LBB4641:
 6803              		.loc 5 38 0 discriminator 1
 6804 0d14 839D0000 		lwz 28,_ZN11MusicPlayer8instanceE@l(29)
 6805 0d18 2F9C0000 		cmpwi 7,28,0
 6806 0d1c 419E0160 		beq- 7,.L462
 6807              	.LVL520:
 6808              	.LBE4641:
 6809              	.LBE4644:
 6810              	.LBB4645:
 6811              	.LBB4646:
 6812              		.loc 5 53 0
 6813 0d20 807C00F0 		lwz 3,240(28)
 6814 0d24 809E04DC 		lwz 4,1244(30)
 6815 0d28 48000001 		bl _ZN8GuiSound9SetVolumeEi
 6816              	.LVL521:
 6817              	.LBE4646:
 6818              	.LBE4645:
 6819              	.LBB4649:
 6820              	.LBB4650:
 6821              		.loc 5 38 0
 6822 0d2c 839D0000 		lwz 28,_ZN11MusicPlayer8instanceE@l(29)
 6823 0d30 2F9C0000 		cmpwi 7,28,0
 6824 0d34 419E0174 		beq- 7,.L463
 6825              	.L422:
 6826              	.LBE4650:
 6827              	.LBE4649:
 6828              		.loc 3 210 0
 6829 0d38 889E04E9 		lbz 4,1257(30)
 6830              		.loc 3 272 0
 6831 0d3c 807C00F0 		lwz 3,240(28)
 6832              	.LVL522:
 6833              	.LBB4654:
 6834              	.LBB4655:
 6835              		.loc 5 52 0
 6836 0d40 989C00F4 		stb 4,244(28)
 6837 0d44 48000001 		bl _ZN8GuiSound7SetLoopEh
 6838              	.LVL523:
 6839              	.LBE4655:
 6840              	.LBE4654:
 6841              	.LBB4658:
 6842              	.LBB4659:
 6843              		.loc 5 38 0
