	.file	"audio.cpp"
	.section	".text"
.Ltext0:
	.align 2
	.globl _Z9InitAudiov
	.type	_Z9InitAudiov, @function
_Z9InitAudiov:
.LFB61:
	.file 1 "d:/Projects/SaveGameManager/savegame-manager-gx/trunk/source/System/audio.cpp"
	.loc 1 19 0
	.cfi_startproc
	mflr 0
	stwu 1,-8(1)
.LCFI0:
	.cfi_def_cfa_offset 8
	.cfi_register 65, 0
	.loc 1 20 0
	li 3,0
	.loc 1 19 0
	stw 0,12(1)
	.loc 1 20 0
	.cfi_offset 65, 4
	bl AUDIO_Init
	.loc 1 21 0
	bl ASND_Init
	.loc 1 22 0
	li 3,0
	bl ASND_Pause
	.loc 1 23 0
	lwz 0,12(1)
	addi 1,1,8
.LCFI1:
	.cfi_def_cfa_offset 0
	mtlr 0
	blr
	.cfi_endproc
.LFE61:
	.size	_Z9InitAudiov, .-_Z9InitAudiov
	.align 2
	.globl _Z13ShutdownAudiov
	.type	_Z13ShutdownAudiov, @function
_Z13ShutdownAudiov:
.LFB62:
	.loc 1 32 0
	.cfi_startproc
	mflr 0
	stwu 1,-8(1)
.LCFI2:
	.cfi_def_cfa_offset 8
	.cfi_register 65, 0
	.loc 1 33 0
	li 3,1
	.loc 1 32 0
	stw 0,12(1)
	.loc 1 33 0
	.cfi_offset 65, 4
	bl ASND_Pause
	.loc 1 34 0
	bl ASND_End
	.loc 1 35 0
	lwz 0,12(1)
	addi 1,1,8
.LCFI3:
	.cfi_def_cfa_offset 0
	mtlr 0
	blr
	.cfi_endproc
.LFE62:
	.size	_Z13ShutdownAudiov, .-_Z13ShutdownAudiov
.Letext0:
	.file 2 "d:\\devkitpro\\devkitppc\\bin\\../lib/gcc/powerpc-eabi/4.6.3/../../../../powerpc-eabi/include/stdint.h"
	.file 3 "d:/devkitPro/libogc/include/gctypes.h"
	.file 4 "d:/devkitPro/libogc/include/ogc/gx.h"