   1              		.file	"audio.cpp"
   2              		.section	".text"
   3              	.Ltext0:
   4              		.align 2
   5              		.globl _Z9InitAudiov
   6              		.type	_Z9InitAudiov, @function
   7              	_Z9InitAudiov:
   8              	.LFB61:
   9              		.file 1 "d:/Projects/SaveGameManager/savegame-manager-gx/trunk/source/System/audio.cpp"
  10              		.loc 1 19 0
  11              		.cfi_startproc
  12 0000 7C0802A6 		mflr 0
  13 0004 9421FFF8 		stwu 1,-8(1)
  14              	.LCFI0:
  15              		.cfi_def_cfa_offset 8
  16              		.cfi_register 65, 0
  17              		.loc 1 20 0
  18 0008 38600000 		li 3,0
  19              		.loc 1 19 0
  20 000c 9001000C 		stw 0,12(1)
  21              		.loc 1 20 0
  22              		.cfi_offset 65, 4
  23 0010 48000001 		bl AUDIO_Init
  24              		.loc 1 21 0
  25 0014 48000001 		bl ASND_Init
  26              		.loc 1 22 0
  27 0018 38600000 		li 3,0
  28 001c 48000001 		bl ASND_Pause
  29              		.loc 1 23 0
  30 0020 8001000C 		lwz 0,12(1)
  31 0024 38210008 		addi 1,1,8
  32              	.LCFI1:
  33              		.cfi_def_cfa_offset 0
  34 0028 7C0803A6 		mtlr 0
  35 002c 4E800020 		blr
  36              		.cfi_endproc
  37              	.LFE61:
  38              		.size	_Z9InitAudiov, .-_Z9InitAudiov
  39              		.align 2
  40              		.globl _Z13ShutdownAudiov
  41              		.type	_Z13ShutdownAudiov, @function
  42              	_Z13ShutdownAudiov:
  43              	.LFB62:
  44              		.loc 1 32 0
  45              		.cfi_startproc
  46 0030 7C0802A6 		mflr 0
  47 0034 9421FFF8 		stwu 1,-8(1)
  48              	.LCFI2:
  49              		.cfi_def_cfa_offset 8
  50              		.cfi_register 65, 0
  51              		.loc 1 33 0
  52 0038 38600001 		li 3,1
  53              		.loc 1 32 0
  54 003c 9001000C 		stw 0,12(1)
  55              		.loc 1 33 0
  56              		.cfi_offset 65, 4
  57 0040 48000001 		bl ASND_Pause
  58              		.loc 1 34 0
  59 0044 48000001 		bl ASND_End
  60              		.loc 1 35 0
  61 0048 8001000C 		lwz 0,12(1)
  62 004c 38210008 		addi 1,1,8
  63              	.LCFI3:
  64              		.cfi_def_cfa_offset 0
  65 0050 7C0803A6 		mtlr 0
  66 0054 4E800020 		blr
  67              		.cfi_endproc
  68              	.LFE62:
  69              		.size	_Z13ShutdownAudiov, .-_Z13ShutdownAudiov
  70              	.Letext0:
  71              		.file 2 "d:\\devkitpro\\devkitppc\\bin\\../lib/gcc/powerpc-eabi/4.6.3/../../../../powerpc-eabi/inc
  72              		.file 3 "d:/devkitPro/libogc/include/gctypes.h"
  73              		.file 4 "d:/devkitPro/libogc/include/ogc/gx.h"