	.file	"BNSDecoder.cpp"
	.section	".text"
.Ltext0:
	.section	.text._ZN12SoundDecoder4TellEv,"axG",@progbits,_ZN12SoundDecoder4TellEv,comdat
	.align 2
	.weak	_ZN12SoundDecoder4TellEv
	.type	_ZN12SoundDecoder4TellEv, @function
_ZN12SoundDecoder4TellEv:
.LFB1396:
	.file 1 "d:/Projects/SaveGameManager/savegame-manager-gx/trunk/source/SoundOperations/SoundDecoder.hpp"
	.loc 1 54 0
	.cfi_startproc
.LVL0:
	.loc 1 54 0
	lwz 3,68(3)
.LVL1:
	blr
	.cfi_endproc
.LFE1396:
	.size	_ZN12SoundDecoder4TellEv, .-_ZN12SoundDecoder4TellEv
	.section	.text._ZN12SoundDecoder9GetBufferEv,"axG",@progbits,_ZN12SoundDecoder9GetBufferEv,comdat
	.align 2
	.weak	_ZN12SoundDecoder9GetBufferEv
	.type	_ZN12SoundDecoder9GetBufferEv, @function
_ZN12SoundDecoder9GetBufferEv:
.LFB1401:
	.loc 1 61 0
	.cfi_startproc
.LVL2:
.LBB283:
.LBB284:
.LBB285:
.LBB286:
.LBB287:
	.file 2 "d:/Projects/SaveGameManager/savegame-manager-gx/trunk/source/SoundOperations/BNSDecoder.cpp"
	.loc 2 367 0
	lwz 9,16(3)
.LBB288:
.LBB289:
	.file 3 "d:\\devkitpro\\devkitppc\\bin\\../lib/gcc/powerpc-eabi/4.6.3/../../../../powerpc-eabi/include/c++/4.6.3/bits/stl_vector.h"
	.loc 3 571 0
	lwz 11,20(3)
.LBE289:
.LBE288:
.LBE287:
.LBE286:
.LBE285:
	.file 4 "d:/Projects/SaveGameManager/savegame-manager-gx/trunk/source/SoundOperations/BufferCircle.hpp"
	.loc 4 54 0
	lhz 0,8(3)
.LVL3:
.LBB294:
.LBB293:
	li 3,0
.LVL4:
.LBB292:
.LBB291:
.LBB290:
	.loc 3 571 0
	subf 11,9,11
	srawi 11,11,2
.LBE290:
.LBE291:
.LBE292:
	.loc 4 83 0
	cmpw 7,0,11
	bgelr- 7
.LVL5:
.LBE293:
.LBE294:
	.loc 4 54 0
	slwi 0,0,2
.LVL6:
	lwzx 3,9,0
.LBE284:
.LBE283:
	.loc 1 61 0
	blr
	.cfi_endproc
.LFE1401:
	.size	_ZN12SoundDecoder9GetBufferEv, .-_ZN12SoundDecoder9GetBufferEv
	.section	.text._ZN12SoundDecoder13GetNextBufferEv,"axG",@progbits,_ZN12SoundDecoder13GetNextBufferEv,comdat
	.align 2
	.weak	_ZN12SoundDecoder13GetNextBufferEv
	.type	_ZN12SoundDecoder13GetNextBufferEv, @function
_ZN12SoundDecoder13GetNextBufferEv:
.LFB1402:
	.loc 1 62 0
	.cfi_startproc
.LVL7:
.LBB295:
.LBB296:
.LBB297:
	.loc 2 367 0
	lwz 11,16(3)
.LBE297:
.LBE296:
.LBE295:
	.loc 1 62 0
	mr 9,3
.LVL8:
.LBB305:
.LBB304:
.LBB302:
.LBB298:
.LBB299:
	.loc 3 571 0
	lwz 0,20(3)
.LBE299:
.LBE298:
.LBE302:
	.loc 4 58 0
	li 3,0
.LVL9:
.LBB303:
.LBB301:
.LBB300:
	.loc 3 571 0
	subf 0,11,0
.LBE300:
.LBE301:
.LBE303:
	.loc 4 58 0
	srawi. 0,0,2
	blelr- 0
.LVL10:
	lhz 9,8(9)
.LVL11:
	addi 9,9,1
.LVL12:
	divw 10,9,0
	mullw 0,10,0
.LVL13:
	subf 9,0,9
	slwi 9,9,2
	lwzx 3,11,9
.LBE304:
.LBE305:
	.loc 1 62 0
	blr
	.cfi_endproc
.LFE1402:
	.size	_ZN12SoundDecoder13GetNextBufferEv, .-_ZN12SoundDecoder13GetNextBufferEv
	.section	.text._ZN12SoundDecoder13GetLastBufferEv,"axG",@progbits,_ZN12SoundDecoder13GetLastBufferEv,comdat
	.align 2
	.weak	_ZN12SoundDecoder13GetLastBufferEv
	.type	_ZN12SoundDecoder13GetLastBufferEv, @function
_ZN12SoundDecoder13GetLastBufferEv:
.LFB1403:
	.loc 1 63 0
	.cfi_startproc
.LVL14:
.LBB306:
.LBB307:
.LBB308:
	.loc 2 367 0
	lwz 11,16(3)
.LBE308:
.LBE307:
.LBE306:
	.loc 1 63 0
	mr 9,3
.LVL15:
.LBB316:
.LBB315:
.LBB313:
.LBB309:
.LBB310:
	.loc 3 571 0
	lwz 0,20(3)
.LBE310:
.LBE309:
.LBE313:
	.loc 4 60 0
	li 3,0
.LVL16:
.LBB314:
.LBB312:
.LBB311:
	.loc 3 571 0
	subf 0,11,0
.LBE311:
.LBE312:
.LBE314:
	.loc 4 60 0
	srawi. 0,0,2
	blelr- 0
.LVL17:
	lhz 9,8(9)
.LVL18:
	add 9,0,9
.LVL19:
	addi 9,9,-1
	divw 10,9,0
	mullw 0,10,0
	subf 9,0,9
	slwi 9,9,2
	lwzx 3,11,9
.LBE315:
.LBE316:
	.loc 1 63 0
	blr
	.cfi_endproc
.LFE1403:
	.size	_ZN12SoundDecoder13GetLastBufferEv, .-_ZN12SoundDecoder13GetLastBufferEv
	.section	.text._ZN12SoundDecoder17IsNextBufferReadyEv,"axG",@progbits,_ZN12SoundDecoder17IsNextBufferReadyEv,comdat
	.align 2
	.weak	_ZN12SoundDecoder17IsNextBufferReadyEv
	.type	_ZN12SoundDecoder17IsNextBufferReadyEv, @function
_ZN12SoundDecoder17IsNextBufferReadyEv:
.LFB1406:
	.loc 1 66 0
	.cfi_startproc
.LVL20:
.LBB317:
.LBB318:
.LBB319:
.LBB320:
.LBB321:
	.loc 3 571 0
	lwz 11,20(3)
.LBE321:
.LBE320:
.LBE319:
.LBE318:
.LBE317:
	.loc 1 66 0
	mr 9,3
.LVL21:
.LBB343:
.LBB342:
.LBB326:
.LBB324:
.LBB322:
	.loc 3 571 0
	lwz 0,16(3)
.LBE322:
.LBE324:
.LBE326:
	.loc 4 72 0
	li 3,0
.LVL22:
.LBB327:
.LBB325:
.LBB323:
	.loc 3 571 0
	subf 0,0,11
.LBE323:
.LBE325:
.LBE327:
	.loc 4 72 0
	srawi. 0,0,2
	blelr- 0
.LVL23:
	lhz 10,8(9)
.LBB328:
.LBB329:
	.file 5 "d:\\devkitpro\\devkitppc\\bin\\../lib/gcc/powerpc-eabi/4.6.3/../../../../powerpc-eabi/include/c++/4.6.3/bits/stl_bvector.h"
	.loc 5 80 0
	lwz 11,40(9)
.LBE329:
.LBE328:
	.loc 4 72 0
	addi 9,10,1
.LVL24:
	divw 10,9,0
	mullw 0,10,0
	subf 0,0,9
.LVL25:
.LBB333:
.LBB330:
	.loc 5 80 0
	rlwinm 9,0,29,3,29
.LBE330:
.LBE333:
.LBB334:
.LBB335:
	.loc 5 692 0
	rlwinm 0,0,0,27,31
.LVL26:
.LBE335:
.LBE334:
.LBB339:
.LBB331:
	.loc 5 80 0
	lwzx 9,11,9
.LBE331:
.LBE339:
.LBB340:
.LBB338:
.LBB336:
.LBB337:
	.loc 5 200 0
	li 11,1
	slw 0,11,0
.LVL27:
.LBE337:
.LBE336:
.LBE338:
.LBE340:
.LBB341:
.LBB332:
	.loc 5 80 0
	and. 11,0,9
	mfcr 3
	rlwinm 3,3,3,1
	xori 3,3,1
.LBE332:
.LBE341:
.LBE342:
.LBE343:
	.loc 1 66 0
	blr
	.cfi_endproc
.LFE1406:
	.size	_ZN12SoundDecoder17IsNextBufferReadyEv, .-_ZN12SoundDecoder17IsNextBufferReadyEv
	.section	.text._ZN12SoundDecoder17IsLastBufferReadyEv,"axG",@progbits,_ZN12SoundDecoder17IsLastBufferReadyEv,comdat
	.align 2
	.weak	_ZN12SoundDecoder17IsLastBufferReadyEv
	.type	_ZN12SoundDecoder17IsLastBufferReadyEv, @function
_ZN12SoundDecoder17IsLastBufferReadyEv:
.LFB1407:
	.loc 1 67 0
	.cfi_startproc
.LVL28:
.LBB344:
.LBB345:
.LBB346:
.LBB347:
.LBB348:
	.loc 3 571 0
	lwz 11,20(3)
.LBE348:
.LBE347:
.LBE346:
.LBE345:
.LBE344:
	.loc 1 67 0
	mr 9,3
.LVL29:
.LBB370:
.LBB369:
.LBB353:
.LBB351:
.LBB349:
	.loc 3 571 0
	lwz 0,16(3)
.LBE349:
.LBE351:
.LBE353:
	.loc 4 74 0
	li 3,0
.LVL30:
.LBB354:
.LBB352:
.LBB350:
	.loc 3 571 0
	subf 0,0,11
.LBE350:
.LBE352:
.LBE354:
	.loc 4 74 0
	srawi. 0,0,2
	blelr- 0
.LVL31:
	lhz 10,8(9)
.LBB355:
.LBB356:
	.loc 5 80 0
	lwz 11,40(9)
.LBE356:
.LBE355:
	.loc 4 74 0
	add 9,0,10
.LVL32:
	addi 9,9,-1
	divw 10,9,0
	mullw 0,10,0
	subf 0,0,9
.LVL33:
.LBB360:
.LBB357:
	.loc 5 80 0
	rlwinm 9,0,29,3,29
.LBE357:
.LBE360:
.LBB361:
.LBB362:
	.loc 5 692 0
	rlwinm 0,0,0,27,31
.LVL34:
.LBE362:
.LBE361:
.LBB366:
.LBB358:
	.loc 5 80 0
	lwzx 9,11,9
.LBE358:
.LBE366:
.LBB367:
.LBB365:
.LBB363:
.LBB364:
	.loc 5 200 0
	li 11,1
	slw 0,11,0
.LVL35:
.LBE364:
.LBE363:
.LBE365:
.LBE367:
.LBB368:
.LBB359:
	.loc 5 80 0
	and. 11,0,9
	mfcr 3
	rlwinm 3,3,3,1
	xori 3,3,1
.LBE359:
.LBE368:
.LBE369:
.LBE370:
	.loc 1 67 0
	blr
	.cfi_endproc
.LFE1407:
	.size	_ZN12SoundDecoder17IsLastBufferReadyEv, .-_ZN12SoundDecoder17IsLastBufferReadyEv
	.section	.text._ZN12SoundDecoder5IsEOFEv,"axG",@progbits,_ZN12SoundDecoder5IsEOFEv,comdat
	.align 2
	.weak	_ZN12SoundDecoder5IsEOFEv
	.type	_ZN12SoundDecoder5IsEOFEv, @function
_ZN12SoundDecoder5IsEOFEv:
.LFB1408:
	.loc 1 68 0
	.cfi_startproc
.LVL36:
	.loc 1 68 0
	lbz 3,73(3)
.LVL37:
	blr
	.cfi_endproc
.LFE1408:
	.size	_ZN12SoundDecoder5IsEOFEv, .-_ZN12SoundDecoder5IsEOFEv
	.section	.text._ZN12SoundDecoder7SetLoopEb,"axG",@progbits,_ZN12SoundDecoder7SetLoopEb,comdat
	.align 2
	.weak	_ZN12SoundDecoder7SetLoopEb
	.type	_ZN12SoundDecoder7SetLoopEb, @function
_ZN12SoundDecoder7SetLoopEb:
.LFB1409:
	.loc 1 69 0
	.cfi_startproc
.LVL38:
	.loc 1 69 0
	stb 4,72(3)
	blr
	.cfi_endproc
.LFE1409:
	.size	_ZN12SoundDecoder7SetLoopEb, .-_ZN12SoundDecoder7SetLoopEb
	.section	.text._ZN12SoundDecoder12GetSoundTypeEv,"axG",@progbits,_ZN12SoundDecoder12GetSoundTypeEv,comdat
	.align 2
	.weak	_ZN12SoundDecoder12GetSoundTypeEv
	.type	_ZN12SoundDecoder12GetSoundTypeEv, @function
_ZN12SoundDecoder12GetSoundTypeEv:
.LFB1410:
	.loc 1 70 0
	.cfi_startproc
.LVL39:
	.loc 1 70 0
	lbz 3,60(3)
.LVL40:
	blr
	.cfi_endproc
.LFE1410:
	.size	_ZN12SoundDecoder12GetSoundTypeEv, .-_ZN12SoundDecoder12GetSoundTypeEv
	.section	.text._ZN10BNSDecoder9GetFormatEv,"axG",@progbits,_ZN10BNSDecoder9GetFormatEv,comdat
	.align 2
	.weak	_ZN10BNSDecoder9GetFormatEv
	.type	_ZN10BNSDecoder9GetFormatEv, @function
_ZN10BNSDecoder9GetFormatEv:
.LFB1414:
	.file 6 "d:/Projects/SaveGameManager/savegame-manager-gx/trunk/source/SoundOperations/BNSDecoder.hpp"
	.loc 6 48 0
	.cfi_startproc
.LVL41:
	.loc 6 48 0
	lbz 3,84(3)
.LVL42:
	blr
	.cfi_endproc
.LFE1414:
	.size	_ZN10BNSDecoder9GetFormatEv, .-_ZN10BNSDecoder9GetFormatEv
	.section	.text._ZN10BNSDecoder13GetSampleRateEv,"axG",@progbits,_ZN10BNSDecoder13GetSampleRateEv,comdat
	.align 2
	.weak	_ZN10BNSDecoder13GetSampleRateEv
	.type	_ZN10BNSDecoder13GetSampleRateEv, @function
_ZN10BNSDecoder13GetSampleRateEv:
.LFB1415:
	.loc 6 49 0
	.cfi_startproc
.LVL43:
	.loc 6 49 0
	lwz 3,88(3)
.LVL44:
	blr
	.cfi_endproc
.LFE1415:
	.size	_ZN10BNSDecoder13GetSampleRateEv, .-_ZN10BNSDecoder13GetSampleRateEv
	.section	".text"
	.align 2
	.globl _ZN10BNSDecoder4ReadEPhii
	.type	_ZN10BNSDecoder4ReadEPhii, @function
_ZN10BNSDecoder4ReadEPhii:
.LFB1428:
	.loc 2 117 0
	.cfi_startproc
.LVL45:
	mflr 0
	stwu 1,-16(1)
.LCFI0:
	.cfi_def_cfa_offset 16
	.cfi_register 65, 0
	stw 30,8(1)
	mr 30,5
	.cfi_offset 30, -8
	stw 0,20(1)
	stw 31,12(1)
	.loc 2 117 0
	mr 31,3
	.cfi_offset 31, -4
	.cfi_offset 65, 4
.LBB371:
	.loc 2 118 0
	lwz 0,76(3)
	cmpwi 7,0,0
	beq- 7,.L31
.LBB372:
	.loc 2 121 0
	lbz 9,100(3)
	cmpwi 7,9,0
	beq- 7,.L25
.LBB373:
	.loc 2 123 0
	lbz 9,84(3)
	li 8,2
	li 11,2
	cmpwi 7,9,3
	beq- 7,.L34
.L26:
.LVL46:
	.loc 2 124 0 discriminator 3
	lwz 10,96(31)
	lwz 9,68(31)
	mullw 11,11,10
.LVL47:
	cmpw 7,9,11
	blt- 7,.L27
	.loc 2 125 0
	lwz 9,92(31)
	mullw 9,8,9
	stw 9,68(31)
.L27:
	.loc 2 127 0
	subf 11,9,11
	cmpw 7,11,30
	bge- 7,.L29
	.loc 2 128 0
	mullw 30,8,10
	subf 30,9,30
.LVL48:
.L29:
.LBE373:
.LBE372:
	.loc 2 139 0
	mr 3,4
.LVL49:
	mr 5,30
	add 4,0,9
.LVL50:
	bl memcpy
.LVL51:
	.loc 2 140 0
	lwz 0,68(31)
	add 0,0,30
	stw 0,68(31)
.LVL52:
.L24:
.LBE371:
	.loc 2 143 0
	lwz 0,20(1)
	mr 3,30
	lwz 31,12(1)
.LVL53:
	mtlr 0
	lwz 30,8(1)
	addi 1,1,16
	.cfi_remember_state
.LCFI1:
	.cfi_def_cfa_offset 0
	.cfi_restore 31
	.cfi_restore 30
	blr
.LVL54:
.L25:
.LCFI2:
	.cfi_restore_state
.LBB378:
.LBB375:
	.loc 2 132 0
	lwz 9,68(3)
	lwz 11,80(3)
	cmpw 7,9,11
	bge- 7,.L33
	.loc 2 135 0
	subf 11,9,11
	cmpw 7,5,11
	ble- 7,.L29
	.loc 2 136 0
	mr 30,11
.LVL55:
	b .L29
.LVL56:
.L33:
.LBE375:
.LBE378:
	.loc 2 143 0
	lwz 0,20(1)
.LBB379:
.LBB376:
	.loc 2 133 0
	li 30,0
.LBE376:
.LBE379:
	.loc 2 143 0
	mr 3,30
.LVL57:
	lwz 31,12(1)
.LVL58:
	mtlr 0
	lwz 30,8(1)
	addi 1,1,16
	.cfi_remember_state
	.cfi_restore 30
	.cfi_restore 31
.LCFI3:
	.cfi_def_cfa_offset 0
	blr
.LVL59:
.L34:
.LCFI4:
	.cfi_restore_state
.LBB380:
.LBB377:
.LBB374:
	.loc 2 123 0
	li 8,4
	li 11,4
	b .L26
.L31:
.LBE374:
.LBE377:
	.loc 2 119 0
	li 30,-1
	b .L24
.LBE380:
	.cfi_endproc
.LFE1428:
	.size	_ZN10BNSDecoder4ReadEPhii, .-_ZN10BNSDecoder4ReadEPhii
	.align 2
	.globl _ZN10BNSDecoderD2Ev
	.type	_ZN10BNSDecoderD2Ev, @function
_ZN10BNSDecoderD2Ev:
.LFB1423:
	.loc 2 58 0
	.cfi_startproc
	.cfi_personality 0,__gxx_personality_v0
	.cfi_lsda 0,.LLSDA1423
.LVL60:
	mflr 0
	stwu 1,-16(1)
.LCFI5:
	.cfi_def_cfa_offset 16
	.cfi_register 65, 0
.LBB382:
	lis 9,_ZTV10BNSDecoder+8@ha
.LBE382:
	stw 31,12(1)
	mr 31,3
	.cfi_offset 31, -4
	stw 0,20(1)
.LBB383:
	la 0,_ZTV10BNSDecoder+8@l(9)
	.cfi_offset 65, 4
.LBE383:
	stw 30,8(1)
.LBB384:
	.loc 2 58 0
	stw 0,0(3)
	.loc 2 60 0
	li 0,1
	stb 0,75(3)
	.loc 2 61 0
	b .L36
	.cfi_offset 30, -8
.LVL61:
.L37:
	.loc 2 62 0
	li 3,100
.LEHB0:
	bl usleep
.LEHE0:
.L36:
	.loc 2 61 0 discriminator 1
	lbz 0,74(31)
	cmpwi 7,0,0
	bne+ 7,.L37
	.loc 2 64 0
	lwz 3,76(31)
	cmpwi 7,3,0
	beq- 7,.L38
	.loc 2 65 0
	bl free
.L38:
	.loc 2 67 0
	li 0,0
	.loc 2 58 0
	mr 3,31
	.loc 2 67 0
	stw 0,76(31)
.LEHB1:
	.loc 2 58 0
	bl _ZN12SoundDecoderD2Ev
.LEHE1:
.LBE384:
	.loc 2 68 0
	lwz 0,20(1)
	lwz 30,8(1)
	mtlr 0
	lwz 31,12(1)
.LVL62:
	addi 1,1,16
	.cfi_remember_state
.LCFI6:
	.cfi_def_cfa_offset 0
	.cfi_restore 31
	.cfi_restore 30
	blr
.LVL63:
.L41:
.LCFI7:
	.cfi_restore_state
	mr 30,3
.LBB385:
	.loc 2 58 0
	mr 3,31
	bl _ZN12SoundDecoderD2Ev
	mr 3,30
.LEHB2:
	bl _Unwind_Resume
.LEHE2:
.LBE385:
	.cfi_endproc
.LFE1423:
	.globl __gxx_personality_v0
	.section	.gcc_except_table,"a",@progbits
.LLSDA1423:
	.byte	0xff
	.byte	0xff
	.byte	0x1
	.uleb128 .LLSDACSE1423-.LLSDACSB1423
.LLSDACSB1423:
	.uleb128 .LEHB0-.LFB1423
	.uleb128 .LEHE0-.LEHB0
	.uleb128 .L41-.LFB1423
	.uleb128 0
	.uleb128 .LEHB1-.LFB1423
	.uleb128 .LEHE1-.LEHB1
	.uleb128 0
	.uleb128 0
	.uleb128 .LEHB2-.LFB1423
	.uleb128 .LEHE2-.LEHB2
	.uleb128 0
	.uleb128 0
.LLSDACSE1423:
	.section	".text"
	.size	_ZN10BNSDecoderD2Ev, .-_ZN10BNSDecoderD2Ev
	.section	.text._ZN12SoundDecoder11ClearBufferEv,"axG",@progbits,_ZN12SoundDecoder11ClearBufferEv,comdat
	.align 2
	.weak	_ZN12SoundDecoder11ClearBufferEv
	.type	_ZN12SoundDecoder11ClearBufferEv, @function
_ZN12SoundDecoder11ClearBufferEv:
.LFB1411:
	.loc 1 71 0
	.cfi_startproc
.LVL64:
	mflr 0
	stwu 1,-8(1)
.LCFI8:
	.cfi_def_cfa_offset 8
	.cfi_register 65, 0
	addi 3,3,8
.LVL65:
	stw 0,12(1)
	.loc 1 71 0
	.cfi_offset 65, 4
	bl _ZN12BufferCircle11ClearBufferEv
.LVL66:
	lwz 0,12(1)
	addi 1,1,8
.LCFI9:
	.cfi_def_cfa_offset 0
	mtlr 0
	blr
	.cfi_endproc
.LFE1411:
	.size	_ZN12SoundDecoder11ClearBufferEv, .-_ZN12SoundDecoder11ClearBufferEv
	.section	.text._ZN12SoundDecoder8LoadNextEv,"axG",@progbits,_ZN12SoundDecoder8LoadNextEv,comdat
	.align 2
	.weak	_ZN12SoundDecoder8LoadNextEv
	.type	_ZN12SoundDecoder8LoadNextEv, @function
_ZN12SoundDecoder8LoadNextEv:
.LFB1404:
	.loc 1 64 0
	.cfi_startproc
.LVL67:
	mflr 0
	stwu 1,-8(1)
.LCFI10:
	.cfi_def_cfa_offset 8
	.cfi_register 65, 0
	addi 3,3,8
.LVL68:
	stw 0,12(1)
	.loc 1 64 0
	.cfi_offset 65, 4
	bl _ZN12BufferCircle8LoadNextEv
.LVL69:
	lwz 0,12(1)
	addi 1,1,8
.LCFI11:
	.cfi_def_cfa_offset 0
	mtlr 0
	blr
	.cfi_endproc
.LFE1404:
	.size	_ZN12SoundDecoder8LoadNextEv, .-_ZN12SoundDecoder8LoadNextEv
	.section	.text._ZN12SoundDecoder4SeekEi,"axG",@progbits,_ZN12SoundDecoder4SeekEi,comdat
	.align 2
	.weak	_ZN12SoundDecoder4SeekEi
	.type	_ZN12SoundDecoder4SeekEi, @function
_ZN12SoundDecoder4SeekEi:
.LFB1397:
	.loc 1 55 0
	.cfi_startproc
.LVL70:
	mflr 0
	stwu 1,-8(1)
.LCFI12:
	.cfi_def_cfa_offset 8
	.cfi_register 65, 0
	li 5,0
	stw 0,12(1)
	.loc 1 55 0
	stw 4,68(3)
	lwz 3,4(3)
.LVL71:
	.cfi_offset 65, 4
	bl _ZN5CFile4seekEli
.LVL72:
	lwz 0,12(1)
	addi 1,1,8
.LCFI13:
	.cfi_def_cfa_offset 0
	mtlr 0
	blr
	.cfi_endproc
.LFE1397:
	.size	_ZN12SoundDecoder4SeekEi, .-_ZN12SoundDecoder4SeekEi
	.section	.text._ZN12SoundDecoder8IsStereoEv,"axG",@progbits,_ZN12SoundDecoder8IsStereoEv,comdat
	.align 2
	.weak	_ZN12SoundDecoder8IsStereoEv
	.type	_ZN12SoundDecoder8IsStereoEv, @function
_ZN12SoundDecoder8IsStereoEv:
.LFB1412:
	.loc 1 72 0
	.cfi_startproc
.LVL73:
	mflr 0
	stwu 1,-16(1)
.LCFI14:
	.cfi_def_cfa_offset 16
	.cfi_register 65, 0
	stw 31,12(1)
	mr 31,3
	.cfi_offset 31, -4
	stw 0,20(1)
	.loc 1 72 0
	lwz 9,0(3)
	lwz 0,24(9)
	.cfi_offset 65, 4
	mtctr 0
	bctrl
.LVL74:
	cmpwi 7,3,3
	li 3,1
	beq- 7,.L46
.LVL75:
.LBB388:
.LBB389:
	lwz 9,0(31)
	mr 3,31
	lwz 0,24(9)
	mtctr 0
	bctrl
	xori 3,3,2
	cntlzw 3,3
	srwi 3,3,5
.LVL76:
.L46:
.LBE389:
.LBE388:
	.loc 1 72 0 is_stmt 0 discriminator 4
	lwz 0,20(1)
	lwz 31,12(1)
.LVL77:
	mtlr 0
	addi 1,1,16
.LCFI15:
	.cfi_def_cfa_offset 0
	.cfi_restore 31
	blr
	.cfi_endproc
.LFE1412:
	.size	_ZN12SoundDecoder8IsStereoEv, .-_ZN12SoundDecoder8IsStereoEv
	.section	.text._ZN12SoundDecoder7Is16BitEv,"axG",@progbits,_ZN12SoundDecoder7Is16BitEv,comdat
	.align 2
	.weak	_ZN12SoundDecoder7Is16BitEv
	.type	_ZN12SoundDecoder7Is16BitEv, @function
_ZN12SoundDecoder7Is16BitEv:
.LFB1413:
	.loc 1 73 0 is_stmt 1
	.cfi_startproc
.LVL78:
	mflr 0
	stwu 1,-16(1)
.LCFI16:
	.cfi_def_cfa_offset 16
	.cfi_register 65, 0
	stw 31,12(1)
	mr 31,3
	.cfi_offset 31, -4
	stw 0,20(1)
	.loc 1 73 0
	lwz 9,0(3)
	lwz 0,24(9)
	.cfi_offset 65, 4
	mtctr 0
	bctrl
.LVL79:
	cmpwi 7,3,3
	li 3,1
	beq- 7,.L49
.LVL80:
.LBB392:
.LBB393:
	lwz 9,0(31)
	mr 3,31
	lwz 0,24(9)
	mtctr 0
	bctrl
	xori 3,3,1
	cntlzw 3,3
	srwi 3,3,5
.LVL81:
.L49:
.LBE393:
.LBE392:
	.loc 1 73 0 is_stmt 0 discriminator 4
	lwz 0,20(1)
	lwz 31,12(1)
.LVL82:
	mtlr 0
	addi 1,1,16
.LCFI17:
	.cfi_def_cfa_offset 0
	.cfi_restore 31
	blr
	.cfi_endproc
.LFE1413:
	.size	_ZN12SoundDecoder7Is16BitEv, .-_ZN12SoundDecoder7Is16BitEv
	.section	.text._ZN12SoundDecoder13GetBufferSizeEv,"axG",@progbits,_ZN12SoundDecoder13GetBufferSizeEv,comdat
	.align 2
	.weak	_ZN12SoundDecoder13GetBufferSizeEv
	.type	_ZN12SoundDecoder13GetBufferSizeEv, @function
_ZN12SoundDecoder13GetBufferSizeEv:
.LFB1400:
	.loc 1 60 0 is_stmt 1
	.cfi_startproc
.LVL83:
.LBB414:
.LBB415:
.LBB416:
.LBB417:
.LBB418:
.LBB419:
.LBB420:
	.loc 3 571 0
	lwz 10,20(3)
.LBE420:
.LBE419:
.LBE418:
.LBE417:
.LBE416:
.LBE415:
.LBE414:
	.loc 1 60 0
	mr 9,3
.LVL84:
.LBB432:
.LBB431:
.LBB429:
.LBB427:
.LBB425:
.LBB423:
.LBB421:
	.loc 3 571 0
	lwz 11,16(3)
.LBE421:
.LBE423:
.LBE425:
.LBE427:
.LBE429:
	.loc 4 62 0
	lhz 0,8(3)
.LVL85:
.LBB430:
.LBB428:
	li 3,0
.LVL86:
.LBB426:
.LBB424:
.LBB422:
	.loc 3 571 0
	subf 11,11,10
	srawi 11,11,2
.LBE422:
.LBE424:
.LBE426:
	.loc 4 83 0
	cmpw 7,0,11
	bgelr- 7
.LVL87:
.LBE428:
.LBE430:
.LBE431:
.LBE432:
.LBB433:
.LBB434:
.LBB435:
	.loc 4 62 0
	lwz 9,28(9)
.LVL88:
	slwi 0,0,2
.LVL89:
	lwzx 3,9,0
.LBE435:
.LBE434:
.LBE433:
	.loc 1 60 0
	blr
	.cfi_endproc
.LFE1400:
	.size	_ZN12SoundDecoder13GetBufferSizeEv, .-_ZN12SoundDecoder13GetBufferSizeEv
	.section	.text._ZN12SoundDecoder13IsBufferReadyEv,"axG",@progbits,_ZN12SoundDecoder13IsBufferReadyEv,comdat
	.align 2
	.weak	_ZN12SoundDecoder13IsBufferReadyEv
	.type	_ZN12SoundDecoder13IsBufferReadyEv, @function
_ZN12SoundDecoder13IsBufferReadyEv:
.LFB1405:
	.loc 1 65 0
	.cfi_startproc
.LVL90:
.LBB460:
.LBB461:
.LBB462:
.LBB463:
.LBB464:
.LBB465:
.LBB466:
	.loc 3 571 0
	lwz 10,20(3)
.LBE466:
.LBE465:
.LBE464:
.LBE463:
.LBE462:
.LBE461:
.LBE460:
	.loc 1 65 0
	mr 9,3
.LVL91:
.LBB478:
.LBB477:
.LBB475:
.LBB473:
.LBB471:
.LBB469:
.LBB467:
	.loc 3 571 0
	lwz 11,16(3)
.LBE467:
.LBE469:
.LBE471:
.LBE473:
.LBE475:
	.loc 4 68 0
	lhz 0,8(3)
.LVL92:
.LBB476:
.LBB474:
	li 3,0
.LVL93:
.LBB472:
.LBB470:
.LBB468:
	.loc 3 571 0
	subf 11,11,10
	srawi 11,11,2
.LBE468:
.LBE470:
.LBE472:
	.loc 4 83 0
	cmpw 7,0,11
	bgelr- 7
.LVL94:
.LBE474:
.LBE476:
.LBE477:
.LBE478:
.LBB479:
.LBB480:
.LBB481:
.LBB482:
.LBB483:
	.loc 5 80 0
	lwz 11,40(9)
	rlwinm 9,0,29,19,29
.LVL95:
.LBE483:
.LBE482:
.LBB486:
.LBB487:
	.loc 5 692 0
	rlwinm 0,0,0,27,31
.LVL96:
.LBE487:
.LBE486:
.LBB491:
.LBB484:
	.loc 5 80 0
	lwzx 9,11,9
.LBE484:
.LBE491:
.LBB492:
.LBB490:
.LBB488:
.LBB489:
	.loc 5 200 0
	li 11,1
	slw 0,11,0
.LVL97:
.LBE489:
.LBE488:
.LBE490:
.LBE492:
.LBB493:
.LBB485:
	.loc 5 80 0
	and. 11,0,9
	mfcr 3
	rlwinm 3,3,3,1
	xori 3,3,1
.LBE485:
.LBE493:
.LBE481:
.LBE480:
.LBE479:
	.loc 1 65 0
	blr
	.cfi_endproc
.LFE1405:
	.size	_ZN12SoundDecoder13IsBufferReadyEv, .-_ZN12SoundDecoder13IsBufferReadyEv
	.section	.text.unlikely,"ax",@progbits
	.align 2
	.type	_ZL16decodeADPCMBlockPsRK13BNSADPCMBlockR9BNSDecObj.constprop.12, @function
_ZL16decodeADPCMBlockPsRK13BNSADPCMBlockR9BNSDecObj.constprop.12:
.LFB1462:
	.loc 2 245 0
	.cfi_startproc
.LVL98:
.LBB494:
	.loc 2 249 0
	lbz 0,0(3)
.LBB495:
.LBB496:
	.loc 2 254 0
	lis 7,.LANCHOR0@ha
.LBE496:
.LBE495:
.LBE494:
	.loc 2 245 0
	stwu 1,-40(1)
.LCFI18:
	.cfi_def_cfa_offset 40
.LBB527:
.LBB518:
.LBB507:
	.loc 2 254 0
	la 7,.LANCHOR0@l(7)
.LBE507:
.LBE518:
	.loc 2 249 0
	rlwinm 9,0,30,27,29
.LBB519:
.LBB508:
	.loc 2 257 0
	li 11,14
.LBE508:
.LBE519:
	.loc 2 249 0
	add 9,4,9
.LBE527:
	.loc 2 245 0
	stw 28,24(1)
	stw 29,28(1)
.LBB528:
.LBB520:
.LBB509:
	.loc 2 254 0
	rlwinm 0,0,0,28,31
.LBE509:
.LBE520:
.LBE528:
	.loc 2 245 0
	stw 30,32(1)
.LBB529:
.LBB521:
.LBB510:
	.loc 2 254 0
	addi 7,7,-2
.LBE510:
.LBE521:
.LBE529:
	.loc 2 245 0
	stw 31,36(1)
.LBB530:
.LBB522:
.LBB511:
	.loc 2 257 0
	li 30,-32768
	.cfi_offset 31, -4
	.cfi_offset 30, -8
	.cfi_offset 29, -12
	.cfi_offset 28, -16
.LBE511:
.LBE522:
	.loc 2 249 0
	lha 28,4(9)
.LBB523:
.LBB512:
	.loc 2 257 0
	li 31,32767
.LBE512:
.LBE523:
	.loc 2 250 0
	lha 29,6(9)
.LBB524:
.LBB513:
	.loc 2 257 0
	mtctr 11
.LBE513:
.LBE524:
	.loc 2 247 0
	lha 10,0(4)
.LVL99:
.LBB525:
.LBB514:
	.loc 2 251 0
	li 9,0
.LBE514:
.LBE525:
	.loc 2 248 0
	lha 6,2(4)
.LVL100:
	b .L62
.LVL101:
.L64:
.LBB526:
	.loc 2 259 0
	mr 10,11
.LVL102:
.L62:
.LBB515:
	.loc 2 253 0
	andi. 11,9,1
	srawi 11,9,1
	add 8,3,11
	bne- 0,.L58
	lbz 5,1(8)
	extsb 5,5
	srawi 5,5,4
	b .L59
.L58:
	lbz 5,1(8)
	slwi 5,5,28
	srawi 5,5,28
.L59:
.LVL103:
	.loc 2 255 0
	mullw 8,29,6
	.loc 2 254 0
	slw 5,5,0
.LVL104:
	slwi 5,5,11
.LVL105:
	.loc 2 257 0
	stw 30,8(1)
.LBB497:
.LBB498:
	.file 7 "d:\\devkitpro\\devkitppc\\bin\\../lib/gcc/powerpc-eabi/4.6.3/../../../../powerpc-eabi/include/c++/4.6.3/bits/stl_algobase.h"
	.loc 7 217 0
	addi 11,1,8
.LBE498:
.LBE497:
.LBE515:
	.loc 2 251 0
	addi 9,9,1
.LBB516:
	.loc 2 255 0
	mullw 12,28,10
.LBE516:
	.loc 2 251 0
	mr 6,10
.LVL106:
.LBB517:
	.loc 2 255 0
	add 8,12,8
.LVL107:
	.loc 2 256 0
	add 8,8,5
.LVL108:
	.loc 2 257 0
	addi 8,8,1024
.LVL109:
	srawi 8,8,11
.LVL110:
.LBB501:
.LBB499:
	.loc 7 215 0
	cmpwi 7,8,-32767
.LBE499:
.LBE501:
	.loc 2 257 0
	stw 8,12(1)
.LVL111:
.LBB502:
.LBB500:
	.loc 7 215 0
	blt- 7,.L60
.LVL112:
	.loc 2 257 0
	addi 11,1,12
.LVL113:
.L60:
.LBE500:
.LBE502:
.LBB503:
.LBB504:
	.loc 7 192 0
	lwz 8,0(11)
.LBE504:
.LBE503:
	.loc 2 257 0
	stw 31,16(1)
.LVL114:
.LBB506:
.LBB505:
	.loc 7 192 0
	cmpwi 7,8,32767
	ble- 7,.L61
	.loc 2 257 0
	addi 11,1,16
.LVL115:
.L61:
.LBE505:
.LBE506:
	lha 11,2(11)
	sthu 11,2(7)
.LVL116:
.LBE517:
	.loc 2 251 0
	bdnz .L64
.LBE526:
.LBE530:
	.loc 2 263 0
	lwz 28,24(1)
.LVL117:
	lwz 29,28(1)
.LVL118:
	lwz 30,32(1)
	lwz 31,36(1)
.LBB531:
	.loc 2 261 0
	sth 11,0(4)
.LBE531:
	.loc 2 263 0
	addi 1,1,40
.LCFI19:
	.cfi_def_cfa_offset 0
	.cfi_restore 31
	.cfi_restore 30
	.cfi_restore 29
	.cfi_restore 28
.LBB532:
	.loc 2 262 0
	sth 10,2(4)
.LBE532:
	.loc 2 263 0
	blr
	.cfi_endproc
.LFE1462:
	.size	_ZL16decodeADPCMBlockPsRK13BNSADPCMBlockR9BNSDecObj.constprop.12, .-_ZL16decodeADPCMBlockPsRK13BNSADPCMBlockR9BNSDecObj.constprop.12
	.section	".text"
	.align 2
	.globl _ZN10BNSDecoderD0Ev
	.type	_ZN10BNSDecoderD0Ev, @function
_ZN10BNSDecoderD0Ev:
.LFB1425:
	.loc 2 58 0
	.cfi_startproc
	.cfi_personality 0,__gxx_personality_v0
	.cfi_lsda 0,.LLSDA1425
.LVL119:
	mflr 0
	stwu 1,-16(1)
.LCFI20:
	.cfi_def_cfa_offset 16
	.cfi_register 65, 0
.LBB536:
.LBB537:
.LBB538:
	lis 9,_ZTV10BNSDecoder+8@ha
.LBE538:
.LBE537:
.LBE536:
	stw 31,12(1)
	mr 31,3
	.cfi_offset 31, -4
.LVL120:
	stw 0,20(1)
.LBB545:
.LBB542:
.LBB539:
	la 0,_ZTV10BNSDecoder+8@l(9)
	.cfi_offset 65, 4
.LBE539:
.LBE542:
.LBE545:
	stw 30,8(1)
.LBB546:
.LBB543:
.LBB540:
	.loc 2 58 0
	stw 0,0(3)
	.loc 2 60 0
	li 0,1
	stb 0,75(3)
	b .L66
	.cfi_offset 30, -8
.LVL121:
.L67:
	.loc 2 62 0
	li 3,100
.LEHB3:
	bl usleep
.LEHE3:
.L66:
	.loc 2 61 0
	lbz 0,74(31)
	cmpwi 7,0,0
	bne+ 7,.L67
	.loc 2 64 0
	lwz 3,76(31)
	cmpwi 7,3,0
	beq- 7,.L68
	.loc 2 65 0
	bl free
.L68:
	.loc 2 67 0
	li 0,0
	.loc 2 58 0
	mr 3,31
	.loc 2 67 0
	stw 0,76(31)
.LEHB4:
	.loc 2 58 0
	bl _ZN12SoundDecoderD2Ev
.LEHE4:
.LBE540:
.LBE543:
.LBE546:
	.loc 2 68 0
	mr 3,31
	bl _ZdlPv
	lwz 0,20(1)
	lwz 30,8(1)
	mtlr 0
	lwz 31,12(1)
.LVL122:
	addi 1,1,16
	.cfi_remember_state
.LCFI21:
	.cfi_def_cfa_offset 0
	.cfi_restore 31
	.cfi_restore 30
	blr
.LVL123:
.L72:
.LCFI22:
	.cfi_restore_state
	mr 30,3
.LBB547:
.LBB544:
.LBB541:
	.loc 2 58 0
	mr 3,31
	bl _ZN12SoundDecoderD2Ev
	mr 3,30
.LEHB5:
	bl _Unwind_Resume
.LEHE5:
.LBE541:
.LBE544:
.LBE547:
	.cfi_endproc
.LFE1425:
	.section	.gcc_except_table
.LLSDA1425:
	.byte	0xff
	.byte	0xff
	.byte	0x1
	.uleb128 .LLSDACSE1425-.LLSDACSB1425
.LLSDACSB1425:
	.uleb128 .LEHB3-.LFB1425
	.uleb128 .LEHE3-.LEHB3
	.uleb128 .L72-.LFB1425
	.uleb128 0
	.uleb128 .LEHB4-.LFB1425
	.uleb128 .LEHE4-.LEHB4
	.uleb128 0
	.uleb128 0
	.uleb128 .LEHB5-.LFB1425
	.uleb128 .LEHE5-.LEHB5
	.uleb128 0
	.uleb128 0
.LLSDACSE1425:
	.section	".text"
	.size	_ZN10BNSDecoderD0Ev, .-_ZN10BNSDecoderD0Ev
	.align 2
	.globl _ZN10BNSDecoder9CloseFileEv
	.type	_ZN10BNSDecoder9CloseFileEv, @function
_ZN10BNSDecoder9CloseFileEv:
.LFB1427:
	.loc 2 109 0
	.cfi_startproc
.LVL124:
	mflr 0
	stwu 1,-16(1)
.LCFI23:
	.cfi_def_cfa_offset 16
	.cfi_register 65, 0
	stw 31,12(1)
	stw 0,20(1)
	stw 30,8(1)
	.loc 2 109 0
	mr 30,3
	.cfi_offset 30, -8
	.cfi_offset 65, 4
	.cfi_offset 31, -4
	.loc 2 110 0
	lwz 31,4(3)
	cmpwi 7,31,0
	beq- 7,.L74
	.loc 2 111 0
	mr 3,31
.LVL125:
	bl _ZN5CFileD1Ev
	mr 3,31
	bl _ZdlPv
.L74:
	.loc 2 113 0
	li 0,0
	.loc 2 114 0
	lwz 31,12(1)
	.loc 2 113 0
	stw 0,4(30)
	.loc 2 114 0
	lwz 0,20(1)
	lwz 30,8(1)
.LVL126:
	mtlr 0
	addi 1,1,16
.LCFI24:
	.cfi_def_cfa_offset 0
	.cfi_restore 31
	.cfi_restore 30
	blr
	.cfi_endproc
.LFE1427:
	.size	_ZN10BNSDecoder9CloseFileEv, .-_ZN10BNSDecoder9CloseFileEv
	.align 2
	.globl _Z13DecodefromBNSPKhj
	.type	_Z13DecodefromBNSPKhj, @function
_Z13DecodefromBNSPKhj:
.LFB1432:
	.loc 2 313 0
	.cfi_startproc
.LVL127:
	mflr 0
	mfcr 12
.LBB564:
	.loc 2 318 0
	cmplwi 7,5,31
.LBE564:
	.loc 2 313 0
	stwu 1,-280(1)
.LCFI25:
	.cfi_def_cfa_offset 280
	.cfi_register 70, 12
	.cfi_register 65, 0
	stw 0,284(1)
.LBB596:
	.loc 2 315 0
	li 0,0
	.cfi_offset 65, 4
.LBE596:
	.loc 2 313 0
	stw 29,268(1)
	mr 29,4
	.cfi_offset 29, -12
	stw 30,272(1)
	mr 30,5
	.cfi_offset 30, -8
	stw 31,276(1)
	mr 31,3
	.cfi_offset 31, -4
	stw 17,220(1)
	stw 18,224(1)
	stw 19,228(1)
	stw 20,232(1)
	stw 21,236(1)
	stw 22,240(1)
	stw 23,244(1)
	stw 24,248(1)
	stw 25,252(1)
	stw 26,256(1)
	stw 27,260(1)
	stw 28,264(1)
	stw 12,216(1)
.LBB597:
	.loc 2 315 0
	stw 0,0(3)
	stw 0,4(3)
	stw 0,8(3)
	stw 0,12(3)
	stw 0,16(3)
	stw 0,20(3)
	stw 0,24(3)
.LVL128:
	.loc 2 318 0
	ble- 7,.L75
	.cfi_offset 70, -64
	.cfi_offset 28, -16
	.cfi_offset 27, -20
	.cfi_offset 26, -24
	.cfi_offset 25, -28
	.cfi_offset 24, -32
	.cfi_offset 23, -36
	.cfi_offset 22, -40
	.cfi_offset 21, -44
	.cfi_offset 20, -48
	.cfi_offset 19, -52
	.cfi_offset 18, -56
	.cfi_offset 17, -60
	.loc 2 320 0
	lwz 9,0(4)
	xoris 0,9,0x424e
	cmpwi 7,0,21280
	beq 7,.L92
.LVL129:
.L75:
.LBE597:
	.loc 2 367 0
	lwz 0,284(1)
	mr 3,31
	lwz 12,216(1)
	mtlr 0
	lwz 17,220(1)
	lwz 18,224(1)
	mtcrf 8,12
	lwz 19,228(1)
	lwz 20,232(1)
	lwz 21,236(1)
	lwz 22,240(1)
	lwz 23,244(1)
	lwz 24,248(1)
	lwz 25,252(1)
	lwz 26,256(1)
	lwz 27,260(1)
	lwz 28,264(1)
	lwz 29,268(1)
	lwz 30,272(1)
	lwz 31,276(1)
.LVL130:
	addi 1,1,280
	.cfi_remember_state
.LCFI26:
	.cfi_def_cfa_offset 0
	.cfi_restore 70
	.cfi_restore 31
	.cfi_restore 30
	.cfi_restore 29
	.cfi_restore 28
	.cfi_restore 27
	.cfi_restore 26
	.cfi_restore 25
	.cfi_restore 24
	.cfi_restore 23
	.cfi_restore 22
	.cfi_restore 21
	.cfi_restore 20
	.cfi_restore 19
	.cfi_restore 18
	.cfi_restore 17
	blr
.LVL131:
.L92:
.LCFI27:
	.cfi_restore_state
.LBB598:
	.loc 2 324 0
	lwz 26,16(4)
.LBB565:
.LBB566:
	.loc 2 226 0
	addi 3,1,44
.LVL132:
	li 5,160
.LVL133:
.LBE566:
.LBE565:
	.loc 2 324 0
	add 28,4,26
.LVL134:
.LBB569:
.LBB567:
	.loc 2 226 0
	mr 4,28
.LVL135:
	bl memcpy
.LVL136:
	.loc 2 227 0
	lwz 27,68(1)
	cmpwi 7,27,24
	beq- 7,.L93
.L77:
	.loc 2 225 0
	addi 28,28,8
.LVL137:
	.loc 2 233 0
	addi 3,1,108
	.loc 2 230 0
	lwzx 10,28,27
	.loc 2 231 0
	mr 9,28
	lwzux 11,9,10
	.loc 2 230 0
	stw 10,76(1)
	.loc 2 232 0
	lwz 0,4(9)
	.loc 2 231 0
	stw 11,84(1)
	.loc 2 233 0
	add 4,28,0
	.loc 2 232 0
	stw 0,88(1)
	.loc 2 233 0
	cmpw 7,4,3
	beq- 7,.L79
	.loc 2 234 0
	li 5,48
	bl memcpy
.L79:
	.loc 2 235 0
	lbz 0,54(1)
	cmpwi 7,0,2
	beq- 7,.L94
.LVL138:
.L78:
.LBE567:
.LBE569:
	.loc 2 327 0
	lwz 0,8(29)
	.loc 2 325 0
	lwz 9,24(29)
.LVL139:
	.loc 2 327 0
	cmplw 7,30,0
	blt- 7,.L75
	.loc 2 327 0 is_stmt 0 discriminator 1
	lwz 0,20(29)
	add 26,0,26
	cmplw 7,30,26
	blt- 7,.L75
	.loc 2 327 0 discriminator 2
	lwz 11,28(29)
	add 10,11,9
	cmplw 7,30,10
	blt- 7,.L75
	.loc 2 327 0 discriminator 3
	cmplwi 7,0,95
	ble- 7,.L75
	.loc 2 327 0 discriminator 4
	cmplwi 7,11,8
	ble- 7,.L75
	.loc 2 327 0 discriminator 5
	lwz 10,48(1)
	cmpw 7,0,10
	bne+ 7,.L75
	.loc 2 325 0 is_stmt 1 discriminator 6
	add 29,29,9
.LVL140:
	.loc 2 327 0 discriminator 6
	lwz 9,4(29)
	cmplw 7,11,9
	blt- 7,.L75
	.loc 2 332 0
	lbz 0,52(1)
	cmpwi 7,0,0
	bne- 7,.L75
.LVL141:
	.loc 2 335 0
	lbz 0,54(1)
	cmpwi 4,0,1
	beq- 4,.L88
	.loc 2 337 0
	cmpwi 7,0,2
	.loc 2 338 0
	li 21,3
	.loc 2 337 0
	bne+ 7,.L75
.L80:
.LVL142:
.LBB570:
.LBB571:
	.loc 2 269 0
	addi 9,9,-8
.LBE571:
.LBE570:
	.loc 2 341 0
	lhz 20,56(1)
.LVL143:
.LBB593:
.LBB591:
	.loc 2 269 0
	srwi 24,9,3
.LVL144:
	.loc 2 270 0
	mulli 22,24,14
	.loc 2 272 0
	slwi 22,22,1
	mr 3,22
	bl malloc
.LVL145:
	.loc 2 275 0
	mr. 23,3
	beq- 0,.L81
	.loc 2 277 0
	lwz 4,108(1)
	.loc 2 271 0
	addi 27,29,8
	.loc 2 277 0
	lwz 5,112(1)
	lwz 6,116(1)
	lwz 7,120(1)
	lwz 8,124(1)
	lwz 10,128(1)
	lwz 11,132(1)
	lwz 9,136(1)
	.loc 2 278 0
	lwz 0,144(1)
	.loc 2 277 0
	stw 4,12(1)
	stw 5,16(1)
	stw 6,20(1)
	stw 7,24(1)
	stw 8,28(1)
	stw 10,32(1)
	stw 11,36(1)
	stw 9,40(1)
	.loc 2 278 0
	stw 0,8(1)
.LVL146:
.LBB572:
	.loc 2 280 0
	beq- 4,.L95
.LVL147:
.LBB573:
.LBB574:
	.loc 2 290 0
	srawi. 24,24,1
.LVL148:
	beq- 0,.L83
	lis 30,.LANCHOR0@ha
.LVL149:
	mr 26,27
	mr 29,23
.LVL150:
	li 28,0
	addi 25,1,8
	la 30,.LANCHOR0@l(30)
.LVL151:
.L86:
.LBB575:
	.loc 2 292 0
	mr 3,26
	mr 4,25
.LBE575:
	.loc 2 290 0
	addi 28,28,1
.LBB578:
	.loc 2 292 0
	bl _ZL16decodeADPCMBlockPsRK13BNSADPCMBlockR9BNSDecObj.constprop.12
.LVL152:
.LBE578:
	.loc 2 290 0
	cmpw 7,28,24
.LBB579:
.LBB576:
	.loc 2 294 0
	lhz 17,0(30)
	lhz 12,2(30)
.LBE576:
.LBE579:
	.loc 2 290 0
	addi 26,26,8
.LBB580:
.LBB577:
	.loc 2 294 0
	lhz 18,4(30)
	lhz 19,6(30)
	lhz 3,8(30)
	lhz 4,10(30)
	lhz 5,12(30)
	lhz 6,14(30)
	lhz 7,16(30)
	lhz 8,18(30)
	lhz 10,20(30)
	lhz 11,22(30)
	lhz 9,24(30)
	lhz 0,26(30)
	sth 17,0(29)
.LVL153:
	sth 12,4(29)
.LVL154:
	sth 18,8(29)
.LVL155:
	sth 19,12(29)
.LVL156:
	sth 3,16(29)
.LVL157:
	sth 4,20(29)
.LVL158:
	sth 5,24(29)
.LVL159:
	sth 6,28(29)
.LVL160:
	sth 7,32(29)
.LVL161:
	sth 8,36(29)
.LVL162:
	sth 10,40(29)
.LVL163:
	sth 11,44(29)
.LVL164:
	sth 9,48(29)
.LVL165:
	sth 0,52(29)
.LVL166:
.LBE577:
	.loc 2 295 0
	addi 29,29,56
.LVL167:
.LBE580:
	.loc 2 290 0
	bne+ 7,.L86
.LBE574:
	.loc 2 298 0
	lwz 3,156(1)
	.loc 2 312 0
	slwi 0,24,3
	.loc 2 298 0
	lwz 4,160(1)
	.loc 2 297 0
	addi 29,23,2
.LVL168:
	.loc 2 298 0
	lwz 5,164(1)
	.loc 2 312 0
	add 27,27,0
.LVL169:
	.loc 2 298 0
	lwz 6,168(1)
.LBB581:
	.loc 2 300 0
	li 28,0
.LVL170:
.LBE581:
	.loc 2 298 0
	lwz 7,172(1)
	lwz 8,176(1)
	lwz 10,180(1)
	lwz 11,184(1)
	.loc 2 299 0
	lwz 9,192(1)
	.loc 2 298 0
	stw 3,12(1)
	stw 4,16(1)
	stw 5,20(1)
	stw 6,24(1)
	stw 7,28(1)
	stw 8,32(1)
	stw 10,36(1)
	stw 11,40(1)
	.loc 2 299 0
	stw 9,8(1)
.LVL171:
.L87:
.LBB582:
.LBB583:
	.loc 2 302 0
	mr 3,27
	mr 4,25
.LBE583:
	.loc 2 300 0
	addi 28,28,1
.LBB586:
	.loc 2 302 0
	bl _ZL16decodeADPCMBlockPsRK13BNSADPCMBlockR9BNSDecObj.constprop.12
.LVL172:
.LBE586:
	.loc 2 300 0
	cmpw 7,28,24
.LBB587:
.LBB584:
	.loc 2 304 0
	lhz 18,0(30)
	lhz 19,2(30)
.LBE584:
.LBE587:
	.loc 2 300 0
	addi 27,27,8
.LBB588:
.LBB585:
	.loc 2 304 0
	lhz 12,4(30)
	lhz 26,6(30)
	lhz 3,8(30)
	lhz 4,10(30)
	lhz 5,12(30)
	lhz 6,14(30)
	lhz 7,16(30)
	lhz 8,18(30)
	lhz 10,20(30)
	lhz 11,22(30)
	lhz 9,24(30)
	lhz 0,26(30)
	sth 18,0(29)
.LVL173:
	sth 19,4(29)
.LVL174:
	sth 12,8(29)
.LVL175:
	sth 26,12(29)
.LVL176:
	sth 3,16(29)
.LVL177:
	sth 4,20(29)
.LVL178:
	sth 5,24(29)
.LVL179:
	sth 6,28(29)
.LVL180:
	sth 7,32(29)
.LVL181:
	sth 8,36(29)
.LVL182:
	sth 10,40(29)
.LVL183:
	sth 11,44(29)
.LVL184:
	sth 9,48(29)
.LVL185:
	sth 0,52(29)
.LVL186:
.LBE585:
	.loc 2 305 0
	addi 29,29,56
.LVL187:
.LBE588:
	.loc 2 300 0
	bne+ 7,.L87
.LVL188:
.L83:
.LBE582:
.LBE573:
.LBE572:
.LBE591:
.LBE593:
	.loc 2 362 0
	lwz 0,60(1)
	.loc 2 346 0
	stw 23,0(31)
	.loc 2 362 0
	stw 0,16(31)
	.loc 2 363 0
	lwz 0,64(1)
	.loc 2 341 0
	stw 20,12(31)
	.loc 2 363 0
	stw 0,20(31)
	.loc 2 364 0
	lbz 0,53(1)
	.loc 2 360 0
	stb 21,8(31)
	.loc 2 361 0
	stw 22,4(31)
	.loc 2 364 0
	stb 0,24(31)
	.loc 2 366 0
	b .L75
.LVL189:
.L94:
.LBB594:
.LBB568:
	.loc 2 237 0
	add 27,28,27
	.loc 2 238 0
	mr 9,28
	.loc 2 237 0
	lwz 10,4(27)
	.loc 2 240 0
	addi 3,1,156
	.loc 2 238 0
	lwzux 11,9,10
	.loc 2 237 0
	stw 10,80(1)
	.loc 2 239 0
	lwz 0,4(9)
	.loc 2 238 0
	stw 11,96(1)
	.loc 2 240 0
	add 4,28,0
	.loc 2 239 0
	stw 0,100(1)
	.loc 2 240 0
	cmpw 7,4,3
	beq- 7,.L78
	.loc 2 241 0
	li 5,48
	bl memcpy
	b .L78
.LVL190:
.L93:
	.loc 2 227 0
	lwz 0,76(1)
	cmpwi 7,0,32
	bne+ 7,.L77
	lwz 0,80(1)
	cmpwi 7,0,44
	bne+ 7,.L77
	lwz 0,88(1)
	cmpwi 7,0,56
	bne+ 7,.L77
	lwz 0,100(1)
	cmpwi 7,0,104
	bne+ 7,.L77
	b .L78
.LVL191:
.L88:
.LBE568:
.LBE594:
	.loc 2 336 0
	li 21,1
	b .L80
.LVL192:
.L95:
.LBB595:
.LBB592:
.LBB590:
.LBB589:
	.loc 2 281 0
	cmpwi 7,24,0
	beq- 7,.L83
	lis 30,.LANCHOR0@ha
.LVL193:
	mr 29,23
.LVL194:
	li 28,0
	addi 25,1,8
	la 30,.LANCHOR0@l(30)
.LVL195:
.L84:
	.loc 2 283 0
	mr 3,27
	mr 4,25
	.loc 2 281 0
	addi 28,28,1
	.loc 2 283 0
	bl _ZL16decodeADPCMBlockPsRK13BNSADPCMBlockR9BNSDecObj.constprop.12
	.loc 2 281 0
	cmpw 7,24,28
	.loc 2 284 0
	lwz 6,0(30)
	lwz 7,4(30)
	.loc 2 281 0
	addi 27,27,8
	.loc 2 284 0
	lwz 8,8(30)
	lwz 10,12(30)
	lwz 11,16(30)
	lwz 9,20(30)
	lwz 0,24(30)
	stw 6,0(29)
	stw 7,4(29)
	stw 8,8(29)
	stw 10,12(29)
	stw 11,16(29)
	stw 9,20(29)
	stw 0,24(29)
	.loc 2 285 0
	addi 29,29,28
.LVL196:
	.loc 2 281 0
	bne+ 7,.L84
	b .L83
.LVL197:
.L81:
.LBE589:
.LBE590:
.LBE592:
.LBE595:
	.loc 2 346 0
	stw 23,0(31)
	b .L75
.LBE598:
	.cfi_endproc
.LFE1432:
	.size	_Z13DecodefromBNSPKhj, .-_Z13DecodefromBNSPKhj
	.align 2
	.globl _ZN10BNSDecoder8OpenFileEv
	.type	_ZN10BNSDecoder8OpenFileEv, @function
_ZN10BNSDecoder8OpenFileEv:
.LFB1426:
	.loc 2 71 0
	.cfi_startproc
.LVL198:
	mflr 0
	stwu 1,-64(1)
.LCFI28:
	.cfi_def_cfa_offset 64
	.cfi_register 65, 0
.LBB613:
	.loc 2 72 0
	lis 4,_ZSt7nothrow@ha
.LBE613:
	.loc 2 71 0
	stw 30,56(1)
	mr 30,3
	.cfi_offset 30, -8
	stw 0,68(1)
.LBB629:
	.loc 2 72 0
	la 4,_ZSt7nothrow@l(4)
.LBE629:
	.loc 2 71 0
	stw 29,52(1)
.LBB630:
.LBB614:
.LBB615:
	.loc 2 367 0
	lwz 9,4(3)
.LBE615:
.LBE614:
.LBE630:
	.loc 2 71 0
	stw 31,60(1)
.LBB631:
	.loc 2 72 0
	lwz 3,12(9)
.LVL199:
	.cfi_offset 31, -4
	.cfi_offset 29, -12
	.cfi_offset 65, 4
	bl _ZnajRKSt9nothrow_t
.LVL200:
	.loc 2 73 0
	mr. 29,3
	beq- 0,.L111
.LVL201:
	.loc 2 81 0 discriminator 1
	lwz 3,4(30)
.LVL202:
	li 31,0
.LBB616:
.LBB617:
	.file 8 "d:/Projects/SaveGameManager/savegame-manager-gx/trunk/source/SoundOperations/../FileOperations/File.hpp"
	.loc 8 21 0 discriminator 1
	lwz 5,12(3)
.LBE617:
.LBE616:
	.loc 2 81 0 discriminator 1
	cmpwi 7,5,0
	bgt+ 7,.L107
	b .L115
.LVL203:
.L114:
	.loc 2 81 0 is_stmt 0
	lwz 3,4(30)
.LVL204:
.LBB619:
.LBB618:
	.loc 8 21 0 is_stmt 1
	lwz 5,12(3)
.LBE618:
.LBE619:
	.loc 2 81 0
	cmpw 7,31,5
	bge- 7,.L113
.LVL205:
.L107:
.LBB620:
	.loc 2 83 0
	subf 5,31,5
	add 4,29,31
	bl _ZN5CFile4readEPhj
.LVL206:
	.loc 2 84 0
	cmpwi 0,3,0
	.loc 2 85 0
	add 31,31,3
	.loc 2 84 0
	bgt+ 0,.L114
	.loc 2 88 0 discriminator 1
	mr 3,29
.LVL207:
	bl _ZdaPv
.LVL208:
.LBB621:
.LBB622:
	.loc 2 110 0 discriminator 1
	lwz 31,4(30)
	cmpwi 7,31,0
	beq- 7,.L105
.LVL209:
.L109:
.LBE622:
.LBE621:
.LBE620:
.LBB623:
.LBB624:
	.loc 2 111 0
	mr 3,31
	bl _ZN5CFileD1Ev
	mr 3,31
	bl _ZdlPv
.L105:
	.loc 2 113 0
	li 0,0
.LBE624:
.LBE623:
.LBE631:
	.loc 2 106 0
	lwz 29,52(1)
.LBB632:
.LBB627:
.LBB625:
	.loc 2 113 0
	stw 0,4(30)
.LBE625:
.LBE627:
.LBE632:
	.loc 2 106 0
	lwz 0,68(1)
	lwz 30,56(1)
.LVL210:
	mtlr 0
	lwz 31,60(1)
	addi 1,1,64
	.cfi_remember_state
.LCFI29:
	.cfi_def_cfa_offset 0
	.cfi_restore 31
	.cfi_restore 30
	.cfi_restore 29
	blr
.LVL211:
.L113:
.LCFI30:
	.cfi_restore_state
.LBB633:
	.loc 2 81 0
	mr 5,31
.LVL212:
.L99:
	.loc 2 95 0
	addi 3,1,16
	mr 4,29
	bl _Z13DecodefromBNSPKhj
	lwz 0,16(1)
	lwz 6,20(1)
	.loc 2 96 0
	cmpwi 7,0,0
	.loc 2 95 0
	lwz 7,24(1)
	lwz 8,28(1)
	lwz 10,32(1)
	lwz 11,36(1)
	lwz 9,40(1)
	stw 0,76(30)
	stw 6,80(30)
	stw 7,84(30)
	stw 8,88(30)
	stw 10,92(30)
	stw 11,96(30)
	stw 9,100(30)
	.loc 2 96 0
	beq- 7,.L111
	.loc 2 102 0 discriminator 1
	mr 3,29
	bl _ZdaPv
.LVL213:
	.loc 2 105 0 discriminator 1
	lwz 9,0(30)
	mr 3,30
	lwz 0,32(9)
	mtctr 0
	bctrl
.LBE633:
	.loc 2 106 0 discriminator 1
	lwz 0,68(1)
	lwz 29,52(1)
	mtlr 0
	lwz 30,56(1)
.LVL214:
	lwz 31,60(1)
	addi 1,1,64
	.cfi_remember_state
	.cfi_restore 29
	.cfi_restore 30
	.cfi_restore 31
.LCFI31:
	.cfi_def_cfa_offset 0
	blr
.LVL215:
.L111:
.LCFI32:
	.cfi_restore_state
.LBB634:
.LBB628:
.LBB626:
	.loc 2 110 0
	lwz 31,4(30)
	cmpwi 7,31,0
	bne+ 7,.L109
	b .L105
.LVL216:
.L115:
.LBE626:
.LBE628:
	.loc 2 81 0
	li 5,0
	b .L99
.LBE634:
	.cfi_endproc
.LFE1426:
	.size	_ZN10BNSDecoder8OpenFileEv, .-_ZN10BNSDecoder8OpenFileEv
	.align 2
	.globl _ZN10BNSDecoderC2EPKhi
	.type	_ZN10BNSDecoderC2EPKhi, @function
_ZN10BNSDecoderC2EPKhi:
.LFB1420:
	.loc 2 46 0
	.cfi_startproc
	.cfi_personality 0,__gxx_personality_v0
	.cfi_lsda 0,.LLSDA1420
.LVL217:
	stwu 1,-16(1)
.LCFI33:
	.cfi_def_cfa_offset 16
	mflr 0
	stw 31,12(1)
	mr 31,3
	.cfi_offset 31, -4
	.cfi_register 65, 0
	stw 0,20(1)
	stw 30,8(1)
.LEHB6:
.LBB635:
	.loc 2 47 0
	.cfi_offset 30, -8
	.cfi_offset 65, 4
	bl _ZN12SoundDecoderC2EPKhi
.LEHE6:
.LVL218:
	.loc 2 52 0
	lwz 0,4(31)
	.loc 2 47 0
	lis 11,_ZTV10BNSDecoder+8@ha
	la 11,_ZTV10BNSDecoder+8@l(11)
	.loc 2 52 0
	cmpwi 7,0,0
	.loc 2 47 0
	stw 11,0(31)
	.loc 2 50 0
	li 0,0
	.loc 2 49 0
	li 11,4
	.loc 2 50 0
	stw 0,76(31)
	.loc 2 49 0
	stb 11,60(31)
	.loc 2 50 0
	stw 0,80(31)
	stw 0,84(31)
	stw 0,88(31)
	stw 0,92(31)
	stw 0,96(31)
	stw 0,100(31)
	.loc 2 52 0
	beq- 7,.L116
	.loc 2 55 0
	mr 3,31
.LEHB7:
	bl _ZN10BNSDecoder8OpenFileEv
.LEHE7:
.L116:
.LBE635:
	.loc 2 56 0
	lwz 0,20(1)
	lwz 30,8(1)
	mtlr 0
	lwz 31,12(1)
.LVL219:
	addi 1,1,16
	.cfi_remember_state
.LCFI34:
	.cfi_def_cfa_offset 0
	.cfi_restore 31
	.cfi_restore 30
	blr
.LVL220:
.L119:
.LCFI35:
	.cfi_restore_state
	mr 30,3
.LBB636:
	.loc 2 47 0
	mr 3,31
	bl _ZN12SoundDecoderD2Ev
	mr 3,30
.LEHB8:
	bl _Unwind_Resume
.LEHE8:
.LBE636:
	.cfi_endproc
.LFE1420:
	.section	.gcc_except_table
.LLSDA1420:
	.byte	0xff
	.byte	0xff
	.byte	0x1
	.uleb128 .LLSDACSE1420-.LLSDACSB1420
.LLSDACSB1420:
	.uleb128 .LEHB6-.LFB1420
	.uleb128 .LEHE6-.LEHB6
	.uleb128 0
	.uleb128 0
	.uleb128 .LEHB7-.LFB1420
	.uleb128 .LEHE7-.LEHB7
	.uleb128 .L119-.LFB1420
	.uleb128 0
	.uleb128 .LEHB8-.LFB1420
	.uleb128 .LEHE8-.LEHB8
	.uleb128 0
	.uleb128 0
.LLSDACSE1420:
	.section	".text"
	.size	_ZN10BNSDecoderC2EPKhi, .-_ZN10BNSDecoderC2EPKhi
	.align 2
	.globl _ZN10BNSDecoderC2EPKc
	.type	_ZN10BNSDecoderC2EPKc, @function
_ZN10BNSDecoderC2EPKc:
.LFB1417:
	.loc 2 34 0
	.cfi_startproc
	.cfi_personality 0,__gxx_personality_v0
	.cfi_lsda 0,.LLSDA1417
.LVL221:
	stwu 1,-16(1)
.LCFI36:
	.cfi_def_cfa_offset 16
	mflr 0
	stw 31,12(1)
	mr 31,3
	.cfi_offset 31, -4
	.cfi_register 65, 0
	stw 0,20(1)
	stw 30,8(1)
.LEHB9:
.LBB637:
	.loc 2 35 0
	.cfi_offset 30, -8
	.cfi_offset 65, 4
	bl _ZN12SoundDecoderC2EPKc
.LEHE9:
.LVL222:
	.loc 2 40 0
	lwz 0,4(31)
	.loc 2 35 0
	lis 11,_ZTV10BNSDecoder+8@ha
	la 11,_ZTV10BNSDecoder+8@l(11)
	.loc 2 40 0
	cmpwi 7,0,0
	.loc 2 35 0
	stw 11,0(31)
	.loc 2 38 0
	li 0,0
	.loc 2 37 0
	li 11,4
	.loc 2 38 0
	stw 0,76(31)
	.loc 2 37 0
	stb 11,60(31)
	.loc 2 38 0
	stw 0,80(31)
	stw 0,84(31)
	stw 0,88(31)
	stw 0,92(31)
	stw 0,96(31)
	stw 0,100(31)
	.loc 2 40 0
	beq- 7,.L120
	.loc 2 43 0
	mr 3,31
.LEHB10:
	bl _ZN10BNSDecoder8OpenFileEv
.LEHE10:
.L120:
.LBE637:
	.loc 2 44 0
	lwz 0,20(1)
	lwz 30,8(1)
	mtlr 0
	lwz 31,12(1)
.LVL223:
	addi 1,1,16
	.cfi_remember_state
.LCFI37:
	.cfi_def_cfa_offset 0
	.cfi_restore 31
	.cfi_restore 30
	blr
.LVL224:
.L123:
.LCFI38:
	.cfi_restore_state
	mr 30,3
.LBB638:
	.loc 2 35 0
	mr 3,31
	bl _ZN12SoundDecoderD2Ev
	mr 3,30
.LEHB11:
	bl _Unwind_Resume
.LEHE11:
.LBE638:
	.cfi_endproc
.LFE1417:
	.section	.gcc_except_table
.LLSDA1417:
	.byte	0xff
	.byte	0xff
	.byte	0x1
	.uleb128 .LLSDACSE1417-.LLSDACSB1417
.LLSDACSB1417:
	.uleb128 .LEHB9-.LFB1417
	.uleb128 .LEHE9-.LEHB9
	.uleb128 0
	.uleb128 0
	.uleb128 .LEHB10-.LFB1417
	.uleb128 .LEHE10-.LEHB10
	.uleb128 .L123-.LFB1417
	.uleb128 0
	.uleb128 .LEHB11-.LFB1417
	.uleb128 .LEHE11-.LEHB11
	.uleb128 0
	.uleb128 0
.LLSDACSE1417:
	.section	".text"
	.size	_ZN10BNSDecoderC2EPKc, .-_ZN10BNSDecoderC2EPKc
	.weak	_ZTS10BNSDecoder
	.section	.rodata._ZTS10BNSDecoder,"aG",@progbits,_ZTS10BNSDecoder,comdat
	.align 2
	.type	_ZTS10BNSDecoder, @object
	.size	_ZTS10BNSDecoder, 13
_ZTS10BNSDecoder:
	.string	"10BNSDecoder"
	.weak	_ZTI10BNSDecoder
	.section	.rodata._ZTI10BNSDecoder,"aG",@progbits,_ZTI10BNSDecoder,comdat
	.align 2
	.type	_ZTI10BNSDecoder, @object
	.size	_ZTI10BNSDecoder, 12
_ZTI10BNSDecoder:
	.long	_ZTVN10__cxxabiv120__si_class_type_infoE+8
	.long	_ZTS10BNSDecoder
	.long	_ZTI12SoundDecoder
	.weak	_ZTV10BNSDecoder
	.section	.rodata._ZTV10BNSDecoder,"aG",@progbits,_ZTV10BNSDecoder,comdat
	.align 3
	.type	_ZTV10BNSDecoder, @object
	.size	_ZTV10BNSDecoder, 100
_ZTV10BNSDecoder:
	.long	0
	.long	_ZTI10BNSDecoder
	.long	_ZN10BNSDecoderD1Ev
	.long	_ZN10BNSDecoderD0Ev
	.long	_ZN10BNSDecoder4ReadEPhii
	.long	_ZN12SoundDecoder4TellEv
	.long	_ZN12SoundDecoder4SeekEi
	.long	_ZN12SoundDecoder6RewindEv
	.long	_ZN10BNSDecoder9GetFormatEv
	.long	_ZN10BNSDecoder13GetSampleRateEv
	.long	_ZN12SoundDecoder6DecodeEv
	.long	_ZN12SoundDecoder13GetBufferSizeEv
	.long	_ZN12SoundDecoder9GetBufferEv
	.long	_ZN12SoundDecoder13GetNextBufferEv
	.long	_ZN12SoundDecoder13GetLastBufferEv
	.long	_ZN12SoundDecoder8LoadNextEv
	.long	_ZN12SoundDecoder13IsBufferReadyEv
	.long	_ZN12SoundDecoder17IsNextBufferReadyEv
	.long	_ZN12SoundDecoder17IsLastBufferReadyEv
	.long	_ZN12SoundDecoder5IsEOFEv
	.long	_ZN12SoundDecoder7SetLoopEb
	.long	_ZN12SoundDecoder12GetSoundTypeEv
	.long	_ZN12SoundDecoder11ClearBufferEv
	.long	_ZN12SoundDecoder8IsStereoEv
	.long	_ZN12SoundDecoder7Is16BitEv
	.globl _ZN10BNSDecoderD1Ev
	.set	_ZN10BNSDecoderD1Ev,_ZN10BNSDecoderD2Ev
	.globl _ZN10BNSDecoderC1EPKhi
	.set	_ZN10BNSDecoderC1EPKhi,_ZN10BNSDecoderC2EPKhi
	.globl _ZN10BNSDecoderC1EPKc
	.set	_ZN10BNSDecoderC1EPKc,_ZN10BNSDecoderC2EPKc
	.section	".bss"
	.align 2
	.set	.LANCHOR0,. + 0
	.type	_ZZL9decodeBNSRjRK7BNSInfoRK7BNSDataE9smplBlock, @object
	.size	_ZZL9decodeBNSRjRK7BNSInfoRK7BNSDataE9smplBlock, 28
_ZZL9decodeBNSRjRK7BNSInfoRK7BNSDataE9smplBlock:
	.zero	28
	.section	".text"
.Letext0:
	.file 9 "d:\\devkitpro\\devkitppc\\bin\\../lib/gcc/powerpc-eabi/4.6.3/../../../../powerpc-eabi/include/machine/_types.h"
	.file 10 "d:\\devkitpro\\devkitppc\\bin\\../lib/gcc/powerpc-eabi/4.6.3/../../../../powerpc-eabi/include/sys/lock.h"
	.file 11 "d:\\devkitpro\\devkitppc\\bin\\../lib/gcc/powerpc-eabi/4.6.3/include/stddef.h"
	.file 12 "d:\\devkitpro\\devkitppc\\bin\\../lib/gcc/powerpc-eabi/4.6.3/../../../../powerpc-eabi/include/sys/_types.h"
	.file 13 "d:\\devkitpro\\devkitppc\\bin\\../lib/gcc/powerpc-eabi/4.6.3/../../../../powerpc-eabi/include/sys/reent.h"
	.file 14 "d:\\devkitpro\\devkitppc\\bin\\../lib/gcc/powerpc-eabi/4.6.3/../../../../powerpc-eabi/include/stdint.h"
	.file 15 "d:/devkitPro/libogc/include/gctypes.h"
	.file 16 "<built-in>"
	.file 17 "d:\\devkitpro\\devkitppc\\bin\\../lib/gcc/powerpc-eabi/4.6.3/../../../../powerpc-eabi/include/stdio.h"
	.file 18 "d:\\devkitpro\\devkitppc\\bin\\../lib/gcc/powerpc-eabi/4.6.3/../../../../powerpc-eabi/include/c++/4.6.3/powerpc-eabi/bits/c++config.h"
	.file 19 "d:\\devkitpro\\devkitppc\\bin\\../lib/gcc/powerpc-eabi/4.6.3/../../../../powerpc-eabi/include/c++/4.6.3/cwchar"
	.file 20 "d:\\devkitpro\\devkitppc\\bin\\../lib/gcc/powerpc-eabi/4.6.3/../../../../powerpc-eabi/include/c++/4.6.3/clocale"
	.file 21 "d:\\devkitpro\\devkitppc\\bin\\../lib/gcc/powerpc-eabi/4.6.3/../../../../powerpc-eabi/include/c++/4.6.3/debug/debug.h"
	.file 22 "d:\\devkitpro\\devkitppc\\bin\\../lib/gcc/powerpc-eabi/4.6.3/../../../../powerpc-eabi/include/c++/4.6.3/bits/stl_list.h"
	.file 23 "d:\\devkitpro\\devkitppc\\bin\\../lib/gcc/powerpc-eabi/4.6.3/../../../../powerpc-eabi/include/c++/4.6.3/bits/cpp_type_traits.h"
	.file 24 "d:\\devkitpro\\devkitppc\\bin\\../lib/gcc/powerpc-eabi/4.6.3/../../../../powerpc-eabi/include/c++/4.6.3/ext/new_allocator.h"
	.file 25 "d:\\devkitpro\\devkitppc\\bin\\../lib/gcc/powerpc-eabi/4.6.3/../../../../powerpc-eabi/include/c++/4.6.3/bits/stl_iterator_base_types.h"
	.file 26 "d:\\devkitpro\\devkitppc\\bin\\../lib/gcc/powerpc-eabi/4.6.3/../../../../powerpc-eabi/include/c++/4.6.3/new"
	.file 27 "d:\\devkitpro\\devkitppc\\bin\\../lib/gcc/powerpc-eabi/4.6.3/../../../../powerpc-eabi/include/c++/4.6.3/bits/stl_iterator.h"
	.file 28 "d:\\devkitpro\\devkitppc\\bin\\../lib/gcc/powerpc-eabi/4.6.3/../../../../powerpc-eabi/include/c++/4.6.3/ext/numeric_traits.h"
	.file 29 "d:\\devkitpro\\devkitppc\\bin\\../lib/gcc/powerpc-eabi/4.6.3/../../../../powerpc-eabi/include/c++/4.6.3/bits/allocator.h"
	.file 30 "d:\\devkitpro\\devkitppc\\bin\\../lib/gcc/powerpc-eabi/4.6.3/../../../../powerpc-eabi/include/c++/4.6.3/bits/vector.tcc"
	.file 31 "d:\\devkitpro\\devkitppc\\bin\\../lib/gcc/powerpc-eabi/4.6.3/../../../../powerpc-eabi/include/time.h"
	.file 32 "d:/devkitPro/libogc/include/ogc/gx.h"
	.file 33 "d:\\devkitpro\\devkitppc\\bin\\../lib/gcc/powerpc-eabi/4.6.3/../../../../powerpc-eabi/include/wchar.h"
	.file 34 "d:\\devkitpro\\devkitppc\\bin\\../lib/gcc/powerpc-eabi/4.6.3/../../../../powerpc-eabi/include/locale.h"
	.file 35 "d:/Projects/SaveGameManager/savegame-manager-gx/trunk/source/SoundOperations/../sigslot.h"