   1              		.file	"BootHomebrew.cpp"
   2              		.section	".text"
   3              	.Ltext0:
   4              		.align 2
   5              		.type	_Z41__static_initialization_and_destruction_0ii.constprop.32, @function
   6              	_Z41__static_initialization_and_destruction_0ii.constprop.32:
   7              	.LFB1015:
   8              		.file 1 "d:/Projects/SaveGameManager/savegame-manager-gx/trunk/source/BootHomebrew/BootHomebrew.cp
   9              		.loc 1 199 0
  10              		.cfi_startproc
  11              	.LVL0:
  12 0000 2F830001 		cmpwi 7,3,1
  13 0004 7C0802A6 		mflr 0
  14 0008 9421FFD8 		stwu 1,-40(1)
  15              	.LCFI0:
  16              		.cfi_def_cfa_offset 40
  17              		.cfi_register 65, 0
  18 000c 9001002C 		stw 0,44(1)
  19 0010 93810018 		stw 28,24(1)
  20 0014 93A1001C 		stw 29,28(1)
  21 0018 93C10020 		stw 30,32(1)
  22 001c 93E10024 		stw 31,36(1)
  23              		.loc 1 199 0
  24 0020 419E0078 		beq- 7,.L23
  25              		.cfi_offset 31, -4
  26              		.cfi_offset 30, -8
  27              		.cfi_offset 29, -12
  28              		.cfi_offset 28, -16
  29              		.cfi_offset 65, 4
  30              		.loc 1 53 0
  31 0024 2F830000 		cmpwi 7,3,0
  32 0028 409E0050 		bne- 7,.L1
  33              	.LVL1:
  34              	.LBB751:
  35              	.LBB752:
  36              	.LBB753:
  37              	.LBB754:
  38              	.LBB755:
  39              		.file 2 "d:\\devkitpro\\devkitppc\\bin\\../lib/gcc/powerpc-eabi/4.6.3/../../../../powerpc-eabi/inc
  40              		.loc 2 350 0
  41 002c 3F800000 		lis 28,.LANCHOR0@ha
  42 0030 393C0000 		la 9,.LANCHOR0@l(28)
  43 0034 83FC0000 		lwz 31,.LANCHOR0@l(28)
  44 0038 83C90004 		lwz 30,4(9)
  45              	.LVL2:
  46              	.LBB756:
  47              	.LBB757:
  48              	.LBB758:
  49              	.LBB759:
  50              	.LBB760:
  51              		.file 3 "d:\\devkitpro\\devkitppc\\bin\\../lib/gcc/powerpc-eabi/4.6.3/../../../../powerpc-eabi/inc
  52              		.loc 3 103 0
  53 003c 7F9FF000 		cmpw 7,31,30
  54 0040 419E0028 		beq- 7,.L4
  55 0044 3FA00000 		lis 29,_ZNSs4_Rep20_S_empty_rep_storageE@ha
  56 0048 3BBD0000 		la 29,_ZNSs4_Rep20_S_empty_rep_storageE@l(29)
  57              	.LVL3:
  58              	.L11:
  59              	.LBB761:
  60              	.LBB762:
  61              	.LBB763:
  62              	.LBB764:
  63              	.LBB765:
  64              	.LBB766:
  65              	.LBB767:
  66              		.file 4 "d:\\devkitpro\\devkitppc\\bin\\../lib/gcc/powerpc-eabi/4.6.3/../../../../powerpc-eabi/inc
  67              		.loc 4 288 0
  68 004c 813F0000 		lwz 9,0(31)
  69              	.LBE767:
  70              	.LBE766:
  71              	.LBE765:
  72              	.LBE764:
  73              	.LBE763:
  74              	.LBE762:
  75              	.LBE761:
  76              		.loc 3 103 0
  77 0050 3BFF0004 		addi 31,31,4
  78              	.LVL4:
  79              	.LBB784:
  80              	.LBB782:
  81              	.LBB780:
  82              	.LBB778:
  83              		.loc 4 534 0
  84 0054 3869FFF4 		addi 3,9,-12
  85              	.LVL5:
  86              	.LBB768:
  87              	.LBB769:
  88              		.loc 4 235 0
  89 0058 7F83E800 		cmpw 7,3,29
  90 005c 409E0058 		bne- 7,.L24
  91              	.LVL6:
  92              	.L10:
  93              	.LBE769:
  94              	.LBE768:
  95              	.LBE778:
  96              	.LBE780:
  97              	.LBE782:
  98              	.LBE784:
  99              		.loc 3 103 0
 100 0060 7F9EF800 		cmpw 7,30,31
 101 0064 409EFFE8 		bne+ 7,.L11
 102              	.LVL7:
 103              	.L4:
 104              	.LBE760:
 105              	.LBE759:
 106              	.LBE758:
 107              	.LBE757:
 108              	.LBE756:
 109              	.LBE755:
 110              	.LBE754:
 111              		.loc 1 199 0
 112 0068 807C0000 		lwz 3,.LANCHOR0@l(28)
 113              	.LVL8:
 114              	.LBB799:
 115              	.LBB797:
 116              	.LBB790:
 117              	.LBB791:
 118              	.LBB792:
 119              	.LBB793:
 120              		.loc 2 155 0
 121 006c 2F830000 		cmpwi 7,3,0
 122 0070 419E0008 		beq- 7,.L1
 123              	.LVL9:
 124              	.LBB794:
 125              	.LBB795:
 126              		.file 5 "d:\\devkitpro\\devkitppc\\bin\\../lib/gcc/powerpc-eabi/4.6.3/../../../../powerpc-eabi/inc
 127              		.loc 5 98 0
 128 0074 48000001 		bl _ZdlPv
 129              	.LVL10:
 130              	.L1:
 131              	.LBE795:
 132              	.LBE794:
 133              	.LBE793:
 134              	.LBE792:
 135              	.LBE791:
 136              	.LBE790:
 137              	.LBE797:
 138              	.LBE799:
 139              	.LBE753:
 140              	.LBE752:
 141              	.LBE751:
 142              		.loc 1 199 0
 143 0078 8001002C 		lwz 0,44(1)
 144 007c 83810018 		lwz 28,24(1)
 145 0080 7C0803A6 		mtlr 0
 146 0084 83A1001C 		lwz 29,28(1)
 147 0088 83C10020 		lwz 30,32(1)
 148 008c 83E10024 		lwz 31,36(1)
 149 0090 38210028 		addi 1,1,40
 150              		.cfi_remember_state
 151              	.LCFI1:
 152              		.cfi_def_cfa_offset 0
 153              		.cfi_restore 31
 154              		.cfi_restore 30
 155              		.cfi_restore 29
 156              		.cfi_restore 28
 157 0094 4E800020 		blr
 158              	.LVL11:
 159              	.L23:
 160              	.LCFI2:
 161              		.cfi_restore_state
 162              	.LBB803:
 163              	.LBB804:
 164              	.LBB805:
 165              	.LBB806:
 166              		.loc 2 83 0
 167 0098 3D600000 		lis 11,.LANCHOR0@ha
 168 009c 38000000 		li 0,0
 169 00a0 392B0000 		la 9,.LANCHOR0@l(11)
 170 00a4 900B0000 		stw 0,.LANCHOR0@l(11)
 171 00a8 90090004 		stw 0,4(9)
 172 00ac 90090008 		stw 0,8(9)
 173 00b0 4BFFFFC8 		b .L1
 174              	.LVL12:
 175              	.L24:
 176              	.LBE806:
 177              	.LBE805:
 178              	.LBE804:
 179              	.LBE803:
 180              	.LBB807:
 181              	.LBB802:
 182              	.LBB801:
 183              	.LBB800:
 184              	.LBB798:
 185              	.LBB796:
 186              	.LBB789:
 187              	.LBB788:
 188              	.LBB787:
 189              	.LBB786:
 190              	.LBB785:
 191              	.LBB783:
 192              	.LBB781:
 193              	.LBB779:
 194              	.LBB777:
 195              	.LBB776:
 196              	.LBB770:
 197              	.LBB771:
 198              	.LBB772:
 199              		.file 6 "d:\\devkitpro\\devkitppc\\bin\\../lib/gcc/powerpc-eabi/4.6.3/../../../../powerpc-eabi/inc
 200              		.loc 6 66 0
 201 00b4 8169FFFC 		lwz 11,-4(9)
 202              	.LVL13:
 203              	.LBE772:
 204              	.LBE771:
 205              	.LBE770:
 206              		.loc 4 240 0
 207 00b8 2F8B0000 		cmpwi 7,11,0
 208              	.LBB775:
 209              	.LBB774:
 210              	.LBB773:
 211              		.loc 6 67 0
 212 00bc 396BFFFF 		addi 11,11,-1
 213 00c0 9169FFFC 		stw 11,-4(9)
 214              	.LBE773:
 215              	.LBE774:
 216              	.LBE775:
 217              		.loc 4 240 0
 218 00c4 419DFF9C 		bgt+ 7,.L10
 219              		.loc 4 244 0
 220 00c8 38810008 		addi 4,1,8
 221 00cc 48000001 		bl _ZNSs4_Rep10_M_destroyERKSaIcE
 222              	.LVL14:
 223 00d0 4BFFFF90 		b .L10
 224              	.LBE776:
 225              	.LBE777:
 226              	.LBE779:
 227              	.LBE781:
 228              	.LBE783:
 229              	.LBE785:
 230              	.LBE786:
 231              	.LBE787:
 232              	.LBE788:
 233              	.LBE789:
 234              	.LBE796:
 235              	.LBE798:
 236              	.LBE800:
 237              	.LBE801:
 238              	.LBE802:
 239              	.LBE807:
 240              		.cfi_endproc
 241              	.LFE1015:
 242              		.size	_Z41__static_initialization_and_destruction_0ii.constprop.32, .-_Z41__static_initialization_
 243              		.align 2
 244              		.globl _Z15AddBootArgumentPKc
 245              		.type	_Z15AddBootArgumentPKc, @function
 246              	_Z15AddBootArgumentPKc:
 247              	.LFB862:
 248              		.loc 1 56 0
 249              		.cfi_startproc
 250              		.cfi_personality 0,__gxx_personality_v0
 251              		.cfi_lsda 0,.LLSDA862
 252              	.LVL15:
 253 00d4 9421FFB8 		stwu 1,-72(1)
 254              	.LCFI3:
 255              		.cfi_def_cfa_offset 72
 256 00d8 7C0802A6 		mflr 0
 257 00dc 7C641B78 		mr 4,3
 258 00e0 93A1003C 		stw 29,60(1)
 259              	.LBB977:
 260              	.LBB978:
 261              	.LBB979:
 262              		.loc 2 828 0
 263 00e4 3FA00000 		lis 29,.LANCHOR0@ha
 264              		.cfi_offset 29, -12
 265              		.cfi_register 65, 0
 266              	.LBE979:
 267              	.LBE978:
 268              	.LBE977:
 269              		.loc 1 56 0
 270 00e8 93C10040 		stw 30,64(1)
 271              	.LBB1162:
 272              		.loc 1 57 0
 273 00ec 3861000C 		addi 3,1,12
 274              	.LVL16:
 275              	.LBB1138:
 276              	.LBB1133:
 277              		.loc 2 828 0
 278 00f0 3BDD0000 		la 30,.LANCHOR0@l(29)
 279              		.cfi_offset 30, -8
 280              	.LBE1133:
 281              	.LBE1138:
 282              		.loc 1 57 0
 283 00f4 38A1000A 		addi 5,1,10
 284              	.LBE1162:
 285              		.loc 1 56 0
 286 00f8 9001004C 		stw 0,76(1)
 287 00fc 93E10044 		stw 31,68(1)
 288 0100 92E10024 		stw 23,36(1)
 289 0104 93010028 		stw 24,40(1)
 290 0108 9321002C 		stw 25,44(1)
 291 010c 93410030 		stw 26,48(1)
 292 0110 93610034 		stw 27,52(1)
 293 0114 93810038 		stw 28,56(1)
 294              	.LEHB0:
 295              	.LBB1163:
 296              		.loc 1 57 0
 297              		.cfi_offset 28, -16
 298              		.cfi_offset 27, -20
 299              		.cfi_offset 26, -24
 300              		.cfi_offset 25, -28
 301              		.cfi_offset 24, -32
 302              		.cfi_offset 23, -36
 303              		.cfi_offset 31, -4
 304              		.cfi_offset 65, 4
 305 0118 48000001 		bl _ZNSsC1EPKcRKSaIcE
 306              	.LEHE0:
 307              	.LVL17:
 308              	.LBB1139:
 309              	.LBB1134:
 310              		.loc 2 828 0
 311 011c 83FE0004 		lwz 31,4(30)
 312 0120 801E0008 		lwz 0,8(30)
 313 0124 7F9F0000 		cmpw 7,31,0
 314 0128 419E0078 		beq- 7,.L28
 315              	.LVL18:
 316              	.LBB980:
 317              	.LBB981:
 318              		.loc 5 108 0
 319 012c 2F9F0000 		cmpwi 7,31,0
 320 0130 419E0068 		beq- 7,.L79
 321 0134 7FE3FB78 		mr 3,31
 322 0138 3881000C 		addi 4,1,12
 323              	.LVL19:
 324              	.LEHB1:
 325 013c 48000001 		bl _ZNSsC1ERKSs
 326              	.LVL20:
 327 0140 813E0004 		lwz 9,4(30)
 328              	.L29:
 329              	.LBE981:
 330              	.LBE980:
 331              		.loc 2 831 0
 332 0144 38090004 		addi 0,9,4
 333 0148 3FE00000 		lis 31,_ZNSs4_Rep20_S_empty_rep_storageE@ha
 334              	.LVL21:
 335 014c 901E0004 		stw 0,4(30)
 336 0150 3BFF0000 		la 31,_ZNSs4_Rep20_S_empty_rep_storageE@l(31)
 337              	.LVL22:
 338              	.L72:
 339              	.LBE1134:
 340              	.LBE1139:
 341              	.LBB1140:
 342              	.LBB1141:
 343              	.LBB1142:
 344              	.LBB1143:
 345              	.LBB1144:
 346              	.LBB1145:
 347              		.loc 4 288 0 discriminator 1
 348 0154 8121000C 		lwz 9,12(1)
 349              	.LBE1145:
 350              	.LBE1144:
 351              	.LBE1143:
 352              		.loc 4 534 0 discriminator 1
 353 0158 3869FFF4 		addi 3,9,-12
 354              	.LVL23:
 355              	.LBB1146:
 356              	.LBB1147:
 357              		.loc 4 235 0 discriminator 1
 358 015c 7F83F800 		cmpw 7,3,31
 359 0160 409E016C 		bne- 7,.L96
 360              	.LVL24:
 361              	.L25:
 362              	.LBE1147:
 363              	.LBE1146:
 364              	.LBE1142:
 365              	.LBE1141:
 366              	.LBE1140:
 367              	.LBE1163:
 368              		.loc 1 59 0
 369 0164 8001004C 		lwz 0,76(1)
 370 0168 82E10024 		lwz 23,36(1)
 371 016c 7C0803A6 		mtlr 0
 372 0170 83010028 		lwz 24,40(1)
 373 0174 8321002C 		lwz 25,44(1)
 374 0178 83410030 		lwz 26,48(1)
 375 017c 83610034 		lwz 27,52(1)
 376 0180 83810038 		lwz 28,56(1)
 377 0184 83A1003C 		lwz 29,60(1)
 378 0188 83C10040 		lwz 30,64(1)
 379 018c 83E10044 		lwz 31,68(1)
 380 0190 38210048 		addi 1,1,72
 381              		.cfi_remember_state
 382              	.LCFI4:
 383              		.cfi_def_cfa_offset 0
 384              		.cfi_restore 31
 385              		.cfi_restore 30
 386              		.cfi_restore 29
 387              		.cfi_restore 28
 388              		.cfi_restore 27
 389              		.cfi_restore 26
 390              		.cfi_restore 25
 391              		.cfi_restore 24
 392              		.cfi_restore 23
 393 0194 4E800020 		blr
 394              	.LVL25:
 395              	.L79:
 396              	.LCFI5:
 397              		.cfi_restore_state
 398              	.LBB1164:
 399              	.LBB1158:
 400              	.LBB1135:
 401              	.LBB983:
 402              	.LBB982:
 403              		.loc 5 108 0
 404 0198 39200000 		li 9,0
 405 019c 4BFFFFA8 		b .L29
 406              	.LVL26:
 407              	.L28:
 408              	.LBE982:
 409              	.LBE983:
 410              	.LBB984:
 411              	.LBB985:
 412              	.LBB986:
 413              	.LBB987:
 414              	.LBB988:
 415              	.LBB989:
 416              	.LBB990:
 417              		.loc 2 571 0
 418 01a0 839D0000 		lwz 28,.LANCHOR0@l(29)
 419              	.LBE990:
 420              	.LBE989:
 421              	.LBB992:
 422              	.LBB993:
 423              		.loc 2 1244 0
 424 01a4 38000001 		li 0,1
 425              	.LBE993:
 426              	.LBE992:
 427              	.LBB995:
 428              	.LBB991:
 429              		.loc 2 571 0
 430 01a8 7F9CF850 		subf 28,28,31
 431              	.LBE991:
 432              	.LBE995:
 433              	.LBB996:
 434              	.LBB994:
 435              		.file 7 "d:\\devkitpro\\devkitppc\\bin\\../lib/gcc/powerpc-eabi/4.6.3/../../../../powerpc-eabi/inc
 436              		.loc 7 215 0
 437 01ac 7F9C1671 		srawi. 28,28,2
 438 01b0 408200F8 		bne- 0,.L97
 439              	.L31:
 440              	.LVL27:
 441              	.LBE994:
 442              	.LBE996:
 443              		.loc 2 1245 0
 444 01b4 5403103A 		slwi 3,0,2
 445 01b8 7C180378 		mr 24,0
 446              	.LVL28:
 447              	.L32:
 448              	.LBE988:
 449              	.LBE987:
 450              	.LBB998:
 451              	.LBB999:
 452              	.LBB1000:
 453              		.loc 5 92 0
 454 01bc 48000001 		bl _Znwj
 455              	.LEHE1:
 456              	.LBE1000:
 457              	.LBE999:
 458              	.LBE998:
 459              		.file 8 "d:\\devkitpro\\devkitppc\\bin\\../lib/gcc/powerpc-eabi/4.6.3/../../../../powerpc-eabi/inc
 460              		.loc 8 335 0
 461 01c0 579C103A 		slwi 28,28,2
 462              	.LBB1003:
 463              	.LBB1002:
 464              	.LBB1001:
 465              		.loc 5 92 0
 466 01c4 7C7A1B78 		mr 26,3
 467              	.LVL29:
 468              	.LBE1001:
 469              	.LBE1002:
 470              	.LBE1003:
 471              	.LBB1004:
 472              	.LBB1005:
 473              		.loc 5 108 0
 474 01c8 7EE3E215 		add. 23,3,28
 475 01cc 41820010 		beq- 0,.L33
 476 01d0 7EE3BB78 		mr 3,23
 477              	.LVL30:
 478 01d4 3881000C 		addi 4,1,12
 479              	.LVL31:
 480              	.LEHB2:
 481 01d8 48000001 		bl _ZNSsC1ERKSs
 482              	.LEHE2:
 483              	.LVL32:
 484              	.L33:
 485              	.LBE1005:
 486              	.LBE1004:
 487              		.loc 8 343 0
 488 01dc 839D0000 		lwz 28,.LANCHOR0@l(29)
 489              	.LVL33:
 490              	.LBB1007:
 491              	.LBB1008:
 492              	.LBB1009:
 493              	.LBB1010:
 494              	.LBB1011:
 495              	.LBB1012:
 496              		.file 9 "d:\\devkitpro\\devkitppc\\bin\\../lib/gcc/powerpc-eabi/4.6.3/../../../../powerpc-eabi/inc
 497              		.loc 9 76 0
 498 01e0 7F59D378 		mr 25,26
 499 01e4 7F9FE000 		cmpw 7,31,28
 500 01e8 419E0028 		beq- 7,.L34
 501              	.LVL34:
 502              	.L36:
 503              	.LBB1013:
 504              	.LBB1014:
 505              		.loc 3 84 0
 506 01ec 2F990000 		cmpwi 7,25,0
 507 01f0 419E0010 		beq- 7,.L35
 508              	.LVL35:
 509 01f4 7F23CB78 		mr 3,25
 510 01f8 7F84E378 		mr 4,28
 511              	.LEHB3:
 512 01fc 48000001 		bl _ZNSsC1ERKSs
 513              	.LEHE3:
 514              	.LVL36:
 515              	.L35:
 516              	.LBE1014:
 517              	.LBE1013:
 518              		.loc 9 76 0
 519 0200 3B9C0004 		addi 28,28,4
 520              	.LVL37:
 521 0204 3B390004 		addi 25,25,4
 522              	.LVL38:
 523 0208 7F9FE000 		cmpw 7,31,28
 524 020c 409EFFE0 		bne+ 7,.L36
 525              	.LVL39:
 526              	.L34:
 527              	.LBE1012:
 528              	.LBE1011:
 529              	.LBE1010:
 530              	.LBE1009:
 531              	.LBE1008:
 532              	.LBE1007:
 533              		.loc 8 349 0
 534 0210 837E0004 		lwz 27,4(30)
 535              		.loc 8 347 0
 536 0214 3B390004 		addi 25,25,4
 537              	.LVL40:
 538              	.LBB1038:
 539              	.LBB1039:
 540              	.LBB1040:
 541              	.LBB1041:
 542              	.LBB1042:
 543              	.LBB1043:
 544              		.loc 9 76 0
 545 0218 7F3CCB78 		mr 28,25
 546 021c 7F9FD800 		cmpw 7,31,27
 547 0220 419E0028 		beq- 7,.L38
 548              	.LVL41:
 549              	.L92:
 550              	.LBB1044:
 551              	.LBB1045:
 552              		.loc 3 84 0
 553 0224 2F9C0000 		cmpwi 7,28,0
 554 0228 419E0010 		beq- 7,.L44
 555              	.LVL42:
 556 022c 7F83E378 		mr 3,28
 557 0230 7FE4FB78 		mr 4,31
 558              	.LEHB4:
 559 0234 48000001 		bl _ZNSsC1ERKSs
 560              	.LEHE4:
 561              	.LVL43:
 562              	.L44:
 563              	.LBE1045:
 564              	.LBE1044:
 565              		.loc 9 76 0
 566 0238 3BFF0004 		addi 31,31,4
 567              	.LVL44:
 568 023c 3B9C0004 		addi 28,28,4
 569              	.LVL45:
 570 0240 7F9BF800 		cmpw 7,27,31
 571 0244 409EFFE0 		bne+ 7,.L92
 572              	.LVL46:
 573              	.L38:
 574              	.LBE1043:
 575              	.LBE1042:
 576              	.LBE1041:
 577              	.LBE1040:
 578              	.LBE1039:
 579              	.LBE1038:
 580              		.loc 8 364 0
 581 0248 837D0000 		lwz 27,.LANCHOR0@l(29)
 582              	.LVL47:
 583 024c 3FE00000 		lis 31,_ZNSs4_Rep20_S_empty_rep_storageE@ha
 584              	.LVL48:
 585 0250 833E0004 		lwz 25,4(30)
 586              	.LVL49:
 587 0254 3BFF0000 		la 31,_ZNSs4_Rep20_S_empty_rep_storageE@l(31)
 588              	.LBB1069:
 589              	.LBB1070:
 590              	.LBB1071:
 591              	.LBB1072:
 592              	.LBB1073:
 593              		.loc 3 103 0
 594 0258 7F9BC800 		cmpw 7,27,25
 595 025c 419E0024 		beq- 7,.L47
 596              	.LVL50:
 597              	.L59:
 598              	.LBB1074:
 599              	.LBB1075:
 600              	.LBB1076:
 601              	.LBB1077:
 602              	.LBB1078:
 603              	.LBB1079:
 604              	.LBB1080:
 605              		.loc 4 288 0
 606 0260 813B0000 		lwz 9,0(27)
 607              	.LBE1080:
 608              	.LBE1079:
 609              	.LBE1078:
 610              		.loc 4 534 0
 611 0264 3869FFF4 		addi 3,9,-12
 612              	.LVL51:
 613              	.LBB1081:
 614              	.LBB1082:
 615              		.loc 4 235 0
 616 0268 7F83F800 		cmpw 7,3,31
 617 026c 409E0140 		bne- 7,.L98
 618              	.LVL52:
 619              	.L58:
 620              	.LBE1082:
 621              	.LBE1081:
 622              	.LBE1077:
 623              	.LBE1076:
 624              	.LBE1075:
 625              	.LBE1074:
 626              		.loc 3 103 0
 627 0270 3B7B0004 		addi 27,27,4
 628              	.LVL53:
 629 0274 7F99D800 		cmpw 7,25,27
 630 0278 409EFFE8 		bne+ 7,.L59
 631 027c 837D0000 		lwz 27,.LANCHOR0@l(29)
 632              	.LVL54:
 633              	.L47:
 634              	.LBE1073:
 635              	.LBE1072:
 636              	.LBE1071:
 637              	.LBE1070:
 638              	.LBE1069:
 639              	.LBB1099:
 640              	.LBB1100:
 641              		.loc 2 155 0
 642 0280 2F9B0000 		cmpwi 7,27,0
 643 0284 419E000C 		beq- 7,.L60
 644              	.LVL55:
 645              	.LBB1101:
 646              	.LBB1102:
 647              		.loc 5 98 0
 648 0288 7F63DB78 		mr 3,27
 649 028c 48000001 		bl _ZdlPv
 650              	.LVL56:
 651              	.L60:
 652              	.LBE1102:
 653              	.LBE1101:
 654              	.LBE1100:
 655              	.LBE1099:
 656              		.loc 8 371 0
 657 0290 5700103A 		slwi 0,24,2
 658              		.loc 8 369 0
 659 0294 935D0000 		stw 26,.LANCHOR0@l(29)
 660              		.loc 8 371 0
 661 0298 7C1A0214 		add 0,26,0
 662              		.loc 8 370 0
 663 029c 939E0004 		stw 28,4(30)
 664              		.loc 8 371 0
 665 02a0 901E0008 		stw 0,8(30)
 666 02a4 4BFFFEB0 		b .L72
 667              	.LVL57:
 668              	.L97:
 669              	.LBB1103:
 670              	.LBB997:
 671              		.loc 2 1244 0
 672 02a8 5780083C 		slwi 0,28,1
 673              	.LVL58:
 674              		.loc 2 1245 0
 675 02ac 3F003FFF 		lis 24,0x3fff
 676 02b0 7F9C0040 		cmplw 7,28,0
 677 02b4 3860FFFC 		li 3,-4
 678 02b8 6318FFFF 		ori 24,24,65535
 679 02bc 419DFF00 		bgt+ 7,.L32
 680              	.LVL59:
 681 02c0 7F80C040 		cmplw 7,0,24
 682 02c4 419DFEF8 		bgt+ 7,.L32
 683 02c8 4BFFFEEC 		b .L31
 684              	.LVL60:
 685              	.L96:
 686              	.LBE997:
 687              	.LBE1103:
 688              	.LBE986:
 689              	.LBE985:
 690              	.LBE984:
 691              	.LBE1135:
 692              	.LBE1158:
 693              	.LBB1159:
 694              	.LBB1157:
 695              	.LBB1156:
 696              	.LBB1155:
 697              	.LBB1154:
 698              	.LBB1148:
 699              	.LBB1149:
 700              	.LBB1150:
 701              		.loc 6 66 0
 702 02cc 8169FFFC 		lwz 11,-4(9)
 703              	.LVL61:
 704              	.LBE1150:
 705              	.LBE1149:
 706              	.LBE1148:
 707              		.loc 4 240 0
 708 02d0 2F8B0000 		cmpwi 7,11,0
 709              	.LBB1153:
 710              	.LBB1152:
 711              	.LBB1151:
 712              		.loc 6 67 0
 713 02d4 396BFFFF 		addi 11,11,-1
 714 02d8 9169FFFC 		stw 11,-4(9)
 715              	.LBE1151:
 716              	.LBE1152:
 717              	.LBE1153:
 718              		.loc 4 240 0
 719 02dc 419DFE88 		bgt+ 7,.L25
 720              		.loc 4 244 0
 721 02e0 38810008 		addi 4,1,8
 722 02e4 48000001 		bl _ZNSs4_Rep10_M_destroyERKSaIcE
 723              	.LVL62:
 724 02e8 4BFFFE7C 		b .L25
 725              	.LVL63:
 726              	.L87:
 727              	.LBE1154:
 728              	.LBE1155:
 729              	.LBE1156:
 730              	.LBE1157:
 731              	.LBE1159:
 732              	.LBB1160:
 733              	.LBB1136:
 734              	.LBB1131:
 735              	.LBB1129:
 736              	.LBB1127:
 737              	.LBB1104:
 738              	.LBB1035:
 739              	.LBB1032:
 740              	.LBB1029:
 741              	.LBB1026:
 742              	.LBB1023:
 743              		.loc 9 80 0
 744 02ec 48000001 		bl __cxa_begin_catch
 745              	.LVL64:
 746 02f0 7F5FD378 		mr 31,26
 747              	.LVL65:
 748              	.L42:
 749              	.LBB1015:
 750              	.LBB1016:
 751              	.LBB1017:
 752              	.LBB1018:
 753              		.loc 3 103 0
 754 02f4 7F99F800 		cmpw 7,25,31
 755 02f8 419E0034 		beq- 7,.L99
 756              	.LVL66:
 757              	.LBB1019:
 758              	.LBB1020:
 759              		.loc 3 94 0
 760 02fc 7FE3FB78 		mr 3,31
 761              	.LBE1020:
 762              	.LBE1019:
 763              		.loc 3 103 0
 764 0300 3BFF0004 		addi 31,31,4
 765              	.LVL67:
 766              	.LBB1022:
 767              	.LBB1021:
 768              		.loc 3 94 0
 769 0304 48000001 		bl _ZNSsD1Ev
 770              	.LVL68:
 771 0308 4BFFFFEC 		b .L42
 772              	.LVL69:
 773              	.L89:
 774              	.LBE1021:
 775              	.LBE1022:
 776              	.LBE1018:
 777              	.LBE1017:
 778              	.LBE1016:
 779              	.LBE1015:
 780              	.LBE1023:
 781              	.LBE1026:
 782              	.LBE1029:
 783              	.LBE1032:
 784              	.LBE1035:
 785              	.LBE1104:
 786              	.LBB1105:
 787              	.LBB1066:
 788              	.LBB1063:
 789              	.LBB1060:
 790              	.LBB1057:
 791              	.LBB1054:
 792              		.loc 9 80 0
 793 030c 48000001 		bl __cxa_begin_catch
 794              	.LVL70:
 795 0310 7F3FCB78 		mr 31,25
 796              	.LVL71:
 797              	.L51:
 798              	.LBB1046:
 799              	.LBB1047:
 800              	.LBB1048:
 801              	.LBB1049:
 802              		.loc 3 103 0
 803 0314 7F9FE000 		cmpw 7,31,28
 804 0318 419E0018 		beq- 7,.L100
 805              	.LVL72:
 806              	.LBB1050:
 807              	.LBB1051:
 808              		.loc 3 94 0
 809 031c 7FE3FB78 		mr 3,31
 810              	.LBE1051:
 811              	.LBE1050:
 812              		.loc 3 103 0
 813 0320 3BFF0004 		addi 31,31,4
 814              	.LVL73:
 815              	.LBB1053:
 816              	.LBB1052:
 817              		.loc 3 94 0
 818 0324 48000001 		bl _ZNSsD1Ev
 819              	.LVL74:
 820 0328 4BFFFFEC 		b .L51
 821              	.LVL75:
 822              	.L99:
 823              	.LEHB5:
 824              	.LBE1052:
 825              	.LBE1053:
 826              	.LBE1049:
 827              	.LBE1048:
 828              	.LBE1047:
 829              	.LBE1046:
 830              	.LBE1054:
 831              	.LBE1057:
 832              	.LBE1060:
 833              	.LBE1063:
 834              	.LBE1066:
 835              	.LBE1105:
 836              	.LBB1106:
 837              	.LBB1036:
 838              	.LBB1033:
 839              	.LBB1030:
 840              	.LBB1027:
 841              	.LBB1024:
 842              		.loc 9 83 0
 843 032c 48000001 		bl __cxa_rethrow
 844              	.LEHE5:
 845              	.LVL76:
 846              	.L100:
 847              	.LEHB6:
 848              	.LBE1024:
 849              	.LBE1027:
 850              	.LBE1030:
 851              	.LBE1033:
 852              	.LBE1036:
 853              	.LBE1106:
 854              	.LBB1107:
 855              	.LBB1067:
 856              	.LBB1064:
 857              	.LBB1061:
 858              	.LBB1058:
 859              	.LBB1055:
 860 0330 48000001 		bl __cxa_rethrow
 861              	.LEHE6:
 862              	.LVL77:
 863              	.L88:
 864              	.LBE1055:
 865              	.LBE1058:
 866              	.LBE1061:
 867              	.LBE1064:
 868              	.LBE1067:
 869              	.LBE1107:
 870              	.LBB1108:
 871              	.LBB1037:
 872              	.LBB1034:
 873              	.LBB1031:
 874              	.LBB1028:
 875              	.LBB1025:
 876              		.loc 9 80 0
 877 0334 90610018 		stw 3,24(1)
 878 0338 48000001 		bl __cxa_end_catch
 879              	.LBE1025:
 880              	.LBE1028:
 881              	.LBE1031:
 882              	.LBE1034:
 883              	.LBE1037:
 884              	.LBE1108:
 885              		.loc 8 355 0
 886 033c 80610018 		lwz 3,24(1)
 887 0340 48000001 		bl __cxa_begin_catch
 888              	.LVL78:
 889              	.L40:
 890              	.LBB1109:
 891              	.LBB1110:
 892              		.loc 5 118 0
 893 0344 7EE3BB78 		mr 3,23
 894 0348 48000001 		bl _ZNSsD1Ev
 895              	.LVL79:
 896              	.L65:
 897              	.LBE1110:
 898              	.LBE1109:
 899              	.LBB1111:
 900              	.LBB1112:
 901              		.loc 2 155 0
 902 034c 2F9A0000 		cmpwi 7,26,0
 903 0350 419E000C 		beq- 7,.L67
 904              	.LVL80:
 905              	.LBB1113:
 906              	.LBB1114:
 907              		.loc 5 98 0
 908 0354 7F43D378 		mr 3,26
 909 0358 48000001 		bl _ZdlPv
 910              	.LVL81:
 911              	.L67:
 912              	.LEHB7:
 913              	.LBE1114:
 914              	.LBE1113:
 915              	.LBE1112:
 916              	.LBE1111:
 917              		.loc 8 362 0
 918 035c 48000001 		bl __cxa_rethrow
 919              	.LEHE7:
 920              	.LVL82:
 921              	.L90:
 922 0360 7C7F1B78 		mr 31,3
 923              	.LVL83:
 924              	.LBB1115:
 925              	.LBB1068:
 926              	.LBB1065:
 927              	.LBB1062:
 928              	.LBB1059:
 929              	.LBB1056:
 930              		.loc 9 80 0
 931 0364 48000001 		bl __cxa_end_catch
 932 0368 7FE3FB78 		mr 3,31
 933              	.LVL84:
 934              	.L49:
 935              	.LBE1056:
 936              	.LBE1059:
 937              	.LBE1062:
 938              	.LBE1065:
 939              	.LBE1068:
 940              	.LBE1115:
 941              		.loc 8 355 0
 942 036c 48000001 		bl __cxa_begin_catch
 943              		.loc 8 357 0
 944 0370 2F990000 		cmpwi 7,25,0
 945 0374 7F5FD378 		mr 31,26
 946 0378 41BEFFCC 		beq- 7,.L40
 947              	.L64:
 948              	.LVL85:
 949              	.LBB1116:
 950              	.LBB1117:
 951              	.LBB1118:
 952              	.LBB1119:
 953              	.LBB1120:
 954              		.loc 3 103 0
 955 037c 7F99F800 		cmpw 7,25,31
 956 0380 41BEFFCC 		beq- 7,.L65
 957              	.LVL86:
 958              	.LBB1121:
 959              	.LBB1122:
 960              		.loc 3 94 0
 961 0384 7FE3FB78 		mr 3,31
 962              	.LBE1122:
 963              	.LBE1121:
 964              		.loc 3 103 0
 965 0388 3BFF0004 		addi 31,31,4
 966              	.LVL87:
 967              	.LBB1124:
 968              	.LBB1123:
 969              		.loc 3 94 0
 970 038c 48000001 		bl _ZNSsD1Ev
 971              	.LVL88:
 972 0390 4BFFFFEC 		b .L64
 973              	.LVL89:
 974              	.L86:
 975 0394 7C7F1B78 		mr 31,3
 976              	.LBE1123:
 977              	.LBE1124:
 978              	.LBE1120:
 979              	.LBE1119:
 980              	.LBE1118:
 981              	.LBE1117:
 982              	.LBE1116:
 983              		.loc 8 355 0
 984 0398 48000001 		bl __cxa_end_catch
 985              	.LVL90:
 986              	.L62:
 987              	.LBE1127:
 988              	.LBE1129:
 989              	.LBE1131:
 990              	.LBE1136:
 991              	.LBE1160:
 992              		.loc 1 58 0
 993 039c 3861000C 		addi 3,1,12
 994              	.LVL91:
 995 03a0 48000001 		bl _ZNSsD1Ev
 996              	.LVL92:
 997 03a4 7FE3FB78 		mr 3,31
 998              	.LEHB8:
 999 03a8 48000001 		bl _Unwind_Resume
 1000              	.LEHE8:
 1001              	.LVL93:
 1002              	.L98:
 1003              	.LBB1161:
 1004              	.LBB1137:
 1005              	.LBB1132:
 1006              	.LBB1130:
 1007              	.LBB1128:
 1008              	.LBB1125:
 1009              	.LBB1098:
 1010              	.LBB1097:
 1011              	.LBB1096:
 1012              	.LBB1095:
 1013              	.LBB1094:
 1014              	.LBB1093:
 1015              	.LBB1092:
 1016              	.LBB1091:
 1017              	.LBB1090:
 1018              	.LBB1089:
 1019              	.LBB1083:
 1020              	.LBB1084:
 1021              	.LBB1085:
 1022              		.loc 6 66 0
 1023 03ac 8169FFFC 		lwz 11,-4(9)
 1024              	.LVL94:
 1025              	.LBE1085:
 1026              	.LBE1084:
 1027              	.LBE1083:
 1028              		.loc 4 240 0
 1029 03b0 2F8B0000 		cmpwi 7,11,0
 1030              	.LBB1088:
 1031              	.LBB1087:
 1032              	.LBB1086:
 1033              		.loc 6 67 0
 1034 03b4 396BFFFF 		addi 11,11,-1
 1035 03b8 9169FFFC 		stw 11,-4(9)
 1036              	.LBE1086:
 1037              	.LBE1087:
 1038              	.LBE1088:
 1039              		.loc 4 240 0
 1040 03bc 419DFEB4 		bgt+ 7,.L58
 1041              		.loc 4 244 0
 1042 03c0 38810009 		addi 4,1,9
 1043 03c4 48000001 		bl _ZNSs4_Rep10_M_destroyERKSaIcE
 1044              	.LVL95:
 1045 03c8 4BFFFEA8 		b .L58
 1046              	.LVL96:
 1047              	.L84:
 1048 03cc 7C7F1B78 		mr 31,3
 1049 03d0 4BFFFFCC 		b .L62
 1050              	.LVL97:
 1051              	.L85:
 1052              	.LBE1089:
 1053              	.LBE1090:
 1054              	.LBE1091:
 1055              	.LBE1092:
 1056              	.LBE1093:
 1057              	.LBE1094:
 1058              	.LBE1095:
 1059              	.LBE1096:
 1060              	.LBE1097:
 1061              	.LBE1098:
 1062              	.LBE1125:
 1063              	.LBB1126:
 1064              	.LBB1006:
 1065              		.loc 5 108 0
 1066 03d4 7F59D378 		mr 25,26
 1067 03d8 4BFFFF94 		b .L49
 1068              	.LBE1006:
 1069              	.LBE1126:
 1070              	.LBE1128:
 1071              	.LBE1130:
 1072              	.LBE1132:
 1073              	.LBE1137:
 1074              	.LBE1161:
 1075              	.LBE1164:
 1076              		.cfi_endproc
 1077              	.LFE862:
 1078              		.globl __gxx_personality_v0
 1079              		.section	.gcc_except_table,"a",@progbits
 1080              		.align 2
 1081              	.LLSDA862:
 1082 0000 FF       		.byte	0xff
 1083 0001 00       		.byte	0
 1084 0002 3D       		.uleb128 .LLSDATT862-.LLSDATTD862
 1085              	.LLSDATTD862:
 1086 0003 01       		.byte	0x1
 1087 0004 33       		.uleb128 .LLSDACSE862-.LLSDACSB862
 1088              	.LLSDACSB862:
 1089 0005 44       		.uleb128 .LEHB0-.LFB862
 1090 0006 04       		.uleb128 .LEHE0-.LEHB0
 1091 0007 00       		.uleb128 0
 1092 0008 00       		.uleb128 0
 1093 0009 68       		.uleb128 .LEHB1-.LFB862
 1094 000a 8401     		.uleb128 .LEHE1-.LEHB1
 1095 000c F805     		.uleb128 .L84-.LFB862
 1096 000e 00       		.uleb128 0
 1097 000f 8402     		.uleb128 .LEHB2-.LFB862
 1098 0011 04       		.uleb128 .LEHE2-.LEHB2
 1099 0012 8006     		.uleb128 .L85-.LFB862
 1100 0014 01       		.uleb128 0x1
 1101 0015 A802     		.uleb128 .LEHB3-.LFB862
 1102 0017 04       		.uleb128 .LEHE3-.LEHB3
 1103 0018 9804     		.uleb128 .L87-.LFB862
 1104 001a 01       		.uleb128 0x1
 1105 001b E002     		.uleb128 .LEHB4-.LFB862
 1106 001d 04       		.uleb128 .LEHE4-.LEHB4
 1107 001e B804     		.uleb128 .L89-.LFB862
 1108 0020 01       		.uleb128 0x1
 1109 0021 D804     		.uleb128 .LEHB5-.LFB862
 1110 0023 04       		.uleb128 .LEHE5-.LEHB5
 1111 0024 E004     		.uleb128 .L88-.LFB862
 1112 0026 01       		.uleb128 0x1
 1113 0027 DC04     		.uleb128 .LEHB6-.LFB862
 1114 0029 04       		.uleb128 .LEHE6-.LEHB6
 1115 002a 8C05     		.uleb128 .L90-.LFB862
 1116 002c 01       		.uleb128 0x1
 1117 002d 8805     		.uleb128 .LEHB7-.LFB862
 1118 002f 04       		.uleb128 .LEHE7-.LEHB7
 1119 0030 C005     		.uleb128 .L86-.LFB862
 1120 0032 00       		.uleb128 0
 1121 0033 D405     		.uleb128 .LEHB8-.LFB862
 1122 0035 04       		.uleb128 .LEHE8-.LEHB8
 1123 0036 00       		.uleb128 0
 1124 0037 00       		.uleb128 0
 1125              	.LLSDACSE862:
 1126 0038 01       		.byte	0x1
 1127 0039 00       		.byte	0
 1128 003a 0000     		.align 2
 1129 003c 00000000 		.long	0
 1130              	.LLSDATT862:
 1131              		.section	".text"
 1132              		.size	_Z15AddBootArgumentPKc, .-_Z15AddBootArgumentPKc
 1133              		.align 2
 1134              		.globl _Z18CopyHomebrewMemoryPhjj
 1135              		.type	_Z18CopyHomebrewMemoryPhjj, @function
 1136              	_Z18CopyHomebrewMemoryPhjj:
 1137              	.LFB863:
 1138              		.loc 1 62 0
 1139              		.cfi_startproc
 1140              	.LVL98:
 1141 03dc 7C0802A6 		mflr 0
 1142 03e0 9421FFF8 		stwu 1,-8(1)
 1143              	.LCFI6:
 1144              		.cfi_def_cfa_offset 8
 1145              		.cfi_register 65, 0
 1146              		.loc 1 63 0
 1147 03e4 3D200000 		lis 9,.LANCHOR0@ha
 1148              		.loc 1 64 0
 1149 03e8 3D600000 		lis 11,.LANCHOR1@ha
 1150              		.loc 1 63 0
 1151 03ec 39290000 		la 9,.LANCHOR0@l(9)
 1152              		.loc 1 64 0
 1153 03f0 814B0000 		lwz 10,.LANCHOR1@l(11)
 1154              		.loc 1 62 0
 1155 03f4 9001000C 		stw 0,12(1)
 1156              		.loc 1 62 0
 1157 03f8 7C6B1B78 		mr 11,3
 1158              		.loc 1 64 0
 1159 03fc 7C6A2214 		add 3,10,4
 1160              	.LVL99:
 1161 0400 7D645B78 		mr 4,11
 1162              	.LVL100:
 1163              		.loc 1 63 0
 1164 0404 8009000C 		lwz 0,12(9)
 1165              		.cfi_offset 65, 4
 1166 0408 7C050214 		add 0,5,0
 1167 040c 9009000C 		stw 0,12(9)
 1168              		.loc 1 64 0
 1169 0410 48000001 		bl memcpy
 1170              	.LVL101:
 1171              		.loc 1 67 0
 1172 0414 8001000C 		lwz 0,12(1)
 1173 0418 38600001 		li 3,1
 1174 041c 7C0803A6 		mtlr 0
 1175 0420 38210008 		addi 1,1,8
 1176              	.LCFI7:
 1177              		.cfi_def_cfa_offset 0
 1178 0424 4E800020 		blr
 1179              		.cfi_endproc
 1180              	.LFE863:
 1181              		.size	_Z18CopyHomebrewMemoryPhjj, .-_Z18CopyHomebrewMemoryPhjj
 1182              		.align 2
 1183              		.globl _Z18FreeHomebrewBufferv
 1184              		.type	_Z18FreeHomebrewBufferv, @function
 1185              	_Z18FreeHomebrewBufferv:
 1186              	.LFB864:
 1187              		.loc 1 70 0
 1188              		.cfi_startproc
 1189 0428 9421FFD0 		stwu 1,-48(1)
 1190              	.LCFI8:
 1191              		.cfi_def_cfa_offset 48
 1192              		.loc 1 72 0
 1193 042c 3D200000 		lis 9,.LANCHOR0@ha
 1194              		.loc 1 70 0
 1195 0430 7C0802A6 		mflr 0
 1196 0434 93810020 		stw 28,32(1)
 1197              		.loc 1 72 0
 1198 0438 3B890000 		la 28,.LANCHOR0@l(9)
 1199              		.cfi_offset 28, -16
 1200              		.cfi_register 65, 0
 1201              		.loc 1 70 0
 1202 043c 9361001C 		stw 27,28(1)
 1203 0440 93C10028 		stw 30,40(1)
 1204              	.LBB1208:
 1205              	.LBB1209:
 1206              		.loc 2 1040 0
 1207 0444 83690000 		lwz 27,.LANCHOR0@l(9)
 1208              		.cfi_offset 30, -8
 1209              		.cfi_offset 27, -20
 1210              	.LBE1209:
 1211              	.LBE1208:
 1212              		.loc 1 71 0
 1213 0448 3D200000 		lis 9,.LANCHOR1@ha
 1214              	.LBB1265:
 1215              	.LBB1260:
 1216              	.LBB1210:
 1217              	.LBB1211:
 1218              		.loc 2 1255 0
 1219 044c 83DC0004 		lwz 30,4(28)
 1220              	.LBE1211:
 1221              	.LBE1210:
 1222              	.LBE1260:
 1223              	.LBE1265:
 1224              		.loc 1 70 0
 1225 0450 90010034 		stw 0,52(1)
 1226              		.loc 1 71 0
 1227 0454 3C009200 		lis 0,0x9200
 1228              		.cfi_offset 65, 4
 1229              	.LBB1266:
 1230              	.LBB1261:
 1231              	.LBB1256:
 1232              	.LBB1252:
 1233              	.LBB1212:
 1234              	.LBB1213:
 1235              	.LBB1214:
 1236              	.LBB1215:
 1237              	.LBB1216:
 1238              		.loc 3 103 0
 1239 0458 7F9BF000 		cmpw 7,27,30
 1240              	.LBE1216:
 1241              	.LBE1215:
 1242              	.LBE1214:
 1243              	.LBE1213:
 1244              	.LBE1212:
 1245              	.LBE1252:
 1246              	.LBE1256:
 1247              	.LBE1261:
 1248              	.LBE1266:
 1249              		.loc 1 71 0
 1250 045c 90090000 		stw 0,.LANCHOR1@l(9)
 1251              		.loc 1 72 0
 1252 0460 38000000 		li 0,0
 1253              		.loc 1 70 0
 1254 0464 93A10024 		stw 29,36(1)
 1255 0468 93E1002C 		stw 31,44(1)
 1256              		.loc 1 72 0
 1257 046c 901C000C 		stw 0,12(28)
 1258              	.LVL102:
 1259              	.LBB1267:
 1260              	.LBB1262:
 1261              	.LBB1257:
 1262              	.LBB1253:
 1263              	.LBB1250:
 1264              	.LBB1248:
 1265              	.LBB1246:
 1266              	.LBB1244:
 1267              	.LBB1242:
 1268              		.loc 3 103 0
 1269 0470 419E002C 		beq- 7,.L103
 1270              		.cfi_offset 31, -4
 1271              		.cfi_offset 29, -12
 1272 0474 3FA00000 		lis 29,_ZNSs4_Rep20_S_empty_rep_storageE@ha
 1273 0478 7F7FDB78 		mr 31,27
 1274 047c 3BBD0000 		la 29,_ZNSs4_Rep20_S_empty_rep_storageE@l(29)
 1275              	.LVL103:
 1276              	.L110:
 1277              	.LBB1217:
 1278              	.LBB1218:
 1279              	.LBB1219:
 1280              	.LBB1220:
 1281              	.LBB1221:
 1282              	.LBB1222:
 1283              	.LBB1223:
 1284              		.loc 4 288 0
 1285 0480 813F0000 		lwz 9,0(31)
 1286              	.LBE1223:
 1287              	.LBE1222:
 1288              	.LBE1221:
 1289              	.LBE1220:
 1290              	.LBE1219:
 1291              	.LBE1218:
 1292              	.LBE1217:
 1293              		.loc 3 103 0
 1294 0484 3BFF0004 		addi 31,31,4
 1295              	.LVL104:
 1296              	.LBB1240:
 1297              	.LBB1238:
 1298              	.LBB1236:
 1299              	.LBB1234:
 1300              		.loc 4 534 0
 1301 0488 3869FFF4 		addi 3,9,-12
 1302              	.LVL105:
 1303              	.LBB1224:
 1304              	.LBB1225:
 1305              		.loc 4 235 0
 1306 048c 7F83E800 		cmpw 7,3,29
 1307 0490 409E0034 		bne- 7,.L112
 1308              	.LVL106:
 1309              	.L109:
 1310              	.LBE1225:
 1311              	.LBE1224:
 1312              	.LBE1234:
 1313              	.LBE1236:
 1314              	.LBE1238:
 1315              	.LBE1240:
 1316              		.loc 3 103 0
 1317 0494 7F9EF800 		cmpw 7,30,31
 1318 0498 409EFFE8 		bne+ 7,.L110
 1319              	.LVL107:
 1320              	.L103:
 1321              	.LBE1242:
 1322              	.LBE1244:
 1323              	.LBE1246:
 1324              	.LBE1248:
 1325              	.LBE1250:
 1326              	.LBE1253:
 1327              	.LBE1257:
 1328              	.LBE1262:
 1329              	.LBE1267:
 1330              		.loc 1 74 0
 1331 049c 80010034 		lwz 0,52(1)
 1332              	.LBB1268:
 1333              	.LBB1263:
 1334              	.LBB1258:
 1335              	.LBB1254:
 1336              		.loc 2 1256 0
 1337 04a0 937C0004 		stw 27,4(28)
 1338              	.LBE1254:
 1339              	.LBE1258:
 1340              	.LBE1263:
 1341              	.LBE1268:
 1342              		.loc 1 74 0
 1343 04a4 7C0803A6 		mtlr 0
 1344 04a8 8361001C 		lwz 27,28(1)
 1345              	.LVL108:
 1346 04ac 83810020 		lwz 28,32(1)
 1347              	.LVL109:
 1348 04b0 83A10024 		lwz 29,36(1)
 1349 04b4 83C10028 		lwz 30,40(1)
 1350              	.LVL110:
 1351 04b8 83E1002C 		lwz 31,44(1)
 1352 04bc 38210030 		addi 1,1,48
 1353              		.cfi_remember_state
 1354              	.LCFI9:
 1355              		.cfi_def_cfa_offset 0
 1356              		.cfi_restore 31
 1357              		.cfi_restore 30
 1358              		.cfi_restore 29
 1359              		.cfi_restore 28
 1360              		.cfi_restore 27
 1361 04c0 4E800020 		blr
 1362              	.LVL111:
 1363              	.L112:
 1364              	.LCFI10:
 1365              		.cfi_restore_state
 1366              	.LBB1269:
 1367              	.LBB1264:
 1368              	.LBB1259:
 1369              	.LBB1255:
 1370              	.LBB1251:
 1371              	.LBB1249:
 1372              	.LBB1247:
 1373              	.LBB1245:
 1374              	.LBB1243:
 1375              	.LBB1241:
 1376              	.LBB1239:
 1377              	.LBB1237:
 1378              	.LBB1235:
 1379              	.LBB1233:
 1380              	.LBB1232:
 1381              	.LBB1226:
 1382              	.LBB1227:
 1383              	.LBB1228:
 1384              		.loc 6 66 0
 1385 04c4 8169FFFC 		lwz 11,-4(9)
 1386              	.LVL112:
 1387              	.LBE1228:
 1388              	.LBE1227:
 1389              	.LBE1226:
 1390              		.loc 4 240 0
 1391 04c8 2F8B0000 		cmpwi 7,11,0
 1392              	.LBB1231:
 1393              	.LBB1230:
 1394              	.LBB1229:
 1395              		.loc 6 67 0
 1396 04cc 396BFFFF 		addi 11,11,-1
 1397 04d0 9169FFFC 		stw 11,-4(9)
 1398              	.LBE1229:
 1399              	.LBE1230:
 1400              	.LBE1231:
 1401              		.loc 4 240 0
 1402 04d4 419DFFC0 		bgt+ 7,.L109
 1403              		.loc 4 244 0
 1404 04d8 38810008 		addi 4,1,8
 1405 04dc 48000001 		bl _ZNSs4_Rep10_M_destroyERKSaIcE
 1406              	.LVL113:
 1407 04e0 4BFFFFB4 		b .L109
 1408              	.LBE1232:
 1409              	.LBE1233:
 1410              	.LBE1235:
 1411              	.LBE1237:
 1412              	.LBE1239:
 1413              	.LBE1241:
 1414              	.LBE1243:
 1415              	.LBE1245:
 1416              	.LBE1247:
 1417              	.LBE1249:
 1418              	.LBE1251:
 1419              	.LBE1255:
 1420              	.LBE1259:
 1421              	.LBE1264:
 1422              	.LBE1269:
 1423              		.cfi_endproc
 1424              	.LFE864:
 1425              		.size	_Z18FreeHomebrewBufferv, .-_Z18FreeHomebrewBufferv
 1426              		.align 2
 1427              		.globl _Z12LoadHomebrewPKc
 1428              		.type	_Z12LoadHomebrewPKc, @function
 1429              	_Z12LoadHomebrewPKc:
 1430              	.LFB865:
 1431              		.loc 1 77 0
 1432              		.cfi_startproc
 1433              		.cfi_personality 0,__gxx_personality_v0
 1434              		.cfi_lsda 0,.LLSDA865
 1435              	.LVL114:
 1436 04e4 9421FFC0 		stwu 1,-64(1)
 1437              	.LCFI11:
 1438              		.cfi_def_cfa_offset 64
 1439 04e8 7C0802A6 		mflr 0
 1440              	.LBB1332:
 1441              		.loc 1 79 0
 1442 04ec 39400000 		li 10,0
 1443 04f0 39600000 		li 11,0
 1444              	.LBE1332:
 1445              		.loc 1 77 0
 1446 04f4 93C10038 		stw 30,56(1)
 1447 04f8 7C7E1B78 		mr 30,3
 1448              		.cfi_offset 30, -8
 1449              		.cfi_register 65, 0
 1450              	.LBB1425:
 1451              		.loc 1 80 0
 1452 04fc 3C600000 		lis 3,.LC0@ha
 1453              	.LVL115:
 1454              	.LBE1425:
 1455              		.loc 1 77 0
 1456 0500 90010044 		stw 0,68(1)
 1457              	.LBB1426:
 1458              		.loc 1 80 0
 1459 0504 38630000 		la 3,.LC0@l(3)
 1460              		.loc 1 78 0
 1461 0508 38000000 		li 0,0
 1462              		.cfi_offset 65, 4
 1463              	.LBE1426:
 1464              		.loc 1 77 0
 1465 050c 93E1003C 		stw 31,60(1)
 1466              	.LBB1427:
 1467              		.loc 1 78 0
 1468 0510 90010010 		stw 0,16(1)
 1469              	.LVL116:
 1470              		.loc 1 79 0
 1471 0514 91410018 		stw 10,24(1)
 1472              	.LVL117:
 1473 0518 9161001C 		stw 11,28(1)
 1474              	.LVL118:
 1475              	.LBE1427:
 1476              		.loc 1 77 0
 1477 051c 93410028 		stw 26,40(1)
 1478 0520 9361002C 		stw 27,44(1)
 1479 0524 93810030 		stw 28,48(1)
 1480 0528 93A10034 		stw 29,52(1)
 1481              	.LEHB9:
 1482              	.LBB1428:
 1483              		.loc 1 80 0
 1484              		.cfi_offset 29, -12
 1485              		.cfi_offset 28, -16
 1486              		.cfi_offset 27, -20
 1487              		.cfi_offset 26, -24
 1488              		.cfi_offset 31, -4
 1489 052c 48000001 		bl gettext
 1490 0530 7C7F1B78 		mr 31,3
 1491 0534 38A1000A 		addi 5,1,10
 1492 0538 3861000C 		addi 3,1,12
 1493 053c 7FC4F378 		mr 4,30
 1494 0540 48000001 		bl _ZNSsC1EPKcRKSaIcE
 1495              	.LEHE9:
 1496 0544 7FE3FB78 		mr 3,31
 1497 0548 3881000C 		addi 4,1,12
 1498 054c 38A10010 		addi 5,1,16
 1499 0550 38C10018 		addi 6,1,24
 1500              	.LEHB10:
 1501 0554 48000001 		bl _Z25LoadFileToMemWithProgressPKcSsPPhPy
 1502              	.LEHE10:
 1503              	.LBB1333:
 1504              	.LBB1334:
 1505              	.LBB1335:
 1506              	.LBB1336:
 1507              	.LBB1337:
 1508              	.LBB1338:
 1509              		.loc 4 288 0
 1510 0558 8121000C 		lwz 9,12(1)
 1511              	.LBE1338:
 1512              	.LBE1337:
 1513              	.LBE1336:
 1514              	.LBB1339:
 1515              	.LBB1340:
 1516              		.loc 4 235 0
 1517 055c 3F800000 		lis 28,_ZNSs4_Rep20_S_empty_rep_storageE@ha
 1518              	.LBE1340:
 1519              	.LBE1339:
 1520              	.LBE1335:
 1521              	.LBE1334:
 1522              	.LBE1333:
 1523              		.loc 1 80 0
 1524 0560 7C7F1B78 		mr 31,3
 1525              	.LVL119:
 1526              	.LBB1357:
 1527              	.LBB1355:
 1528              	.LBB1353:
 1529              	.LBB1350:
 1530              	.LBB1347:
 1531              		.loc 4 235 0
 1532 0564 3B9C0000 		la 28,_ZNSs4_Rep20_S_empty_rep_storageE@l(28)
 1533              	.LBE1347:
 1534              	.LBE1350:
 1535              		.loc 4 534 0
 1536 0568 3869FFF4 		addi 3,9,-12
 1537              	.LVL120:
 1538              	.LBB1351:
 1539              	.LBB1348:
 1540              		.loc 4 235 0
 1541 056c 7F83E000 		cmpw 7,3,28
 1542 0570 409E00DC 		bne- 7,.L136
 1543              	.LVL121:
 1544              	.L121:
 1545              	.LBE1348:
 1546              	.LBE1351:
 1547              	.LBE1353:
 1548              	.LBE1355:
 1549              	.LBE1357:
 1550              		.loc 1 81 0 discriminator 2
 1551 0574 2F9F0000 		cmpwi 7,31,0
 1552 0578 419C0088 		blt- 7,.L122
 1553              	.LBB1358:
 1554              	.LBB1359:
 1555              		.loc 1 72 0
 1556 057c 3D200000 		lis 9,.LANCHOR0@ha
 1557              		.loc 1 71 0
 1558 0580 3C009200 		lis 0,0x9200
 1559              		.loc 1 72 0
 1560 0584 3BE90000 		la 31,.LANCHOR0@l(9)
 1561              	.LVL122:
 1562              	.LBB1360:
 1563              	.LBB1361:
 1564              		.loc 2 1040 0
 1565 0588 83C90000 		lwz 30,.LANCHOR0@l(9)
 1566              	.LVL123:
 1567              	.LBB1362:
 1568              	.LBB1363:
 1569              		.loc 2 1255 0
 1570 058c 837F0004 		lwz 27,4(31)
 1571              	.LBE1363:
 1572              	.LBE1362:
 1573              	.LBE1361:
 1574              	.LBE1360:
 1575              		.loc 1 71 0
 1576 0590 3F400000 		lis 26,.LANCHOR1@ha
 1577 0594 901A0000 		stw 0,.LANCHOR1@l(26)
 1578              		.loc 1 72 0
 1579 0598 38000000 		li 0,0
 1580              	.LBB1412:
 1581              	.LBB1408:
 1582              	.LBB1404:
 1583              	.LBB1400:
 1584              	.LBB1364:
 1585              	.LBB1365:
 1586              	.LBB1366:
 1587              	.LBB1367:
 1588              	.LBB1368:
 1589              		.loc 3 103 0
 1590 059c 7F9ED800 		cmpw 7,30,27
 1591              	.LBE1368:
 1592              	.LBE1367:
 1593              	.LBE1366:
 1594              	.LBE1365:
 1595              	.LBE1364:
 1596              	.LBE1400:
 1597              	.LBE1404:
 1598              	.LBE1408:
 1599              	.LBE1412:
 1600              		.loc 1 72 0
 1601 05a0 901F000C 		stw 0,12(31)
 1602              	.LVL124:
 1603              	.LBB1413:
 1604              	.LBB1409:
 1605              	.LBB1405:
 1606              	.LBB1401:
 1607              	.LBB1398:
 1608              	.LBB1396:
 1609              	.LBB1394:
 1610              	.LBB1392:
 1611              	.LBB1390:
 1612              		.loc 3 103 0
 1613 05a4 3C609200 		lis 3,0x9200
 1614 05a8 419E002C 		beq- 7,.L123
 1615 05ac 7FDDF378 		mr 29,30
 1616              	.LVL125:
 1617              	.L130:
 1618              	.LBB1369:
 1619              	.LBB1370:
 1620              	.LBB1371:
 1621              	.LBB1372:
 1622              	.LBB1373:
 1623              	.LBB1374:
 1624              	.LBB1375:
 1625              		.loc 4 288 0
 1626 05b0 813D0000 		lwz 9,0(29)
 1627              	.LBE1375:
 1628              	.LBE1374:
 1629              	.LBE1373:
 1630              		.loc 4 534 0
 1631 05b4 3869FFF4 		addi 3,9,-12
 1632              	.LVL126:
 1633              	.LBB1376:
 1634              	.LBB1377:
 1635              		.loc 4 235 0
 1636 05b8 7F83E000 		cmpw 7,3,28
 1637 05bc 409E0070 		bne- 7,.L137
 1638              	.LVL127:
 1639              	.L129:
 1640              	.LBE1377:
 1641              	.LBE1376:
 1642              	.LBE1372:
 1643              	.LBE1371:
 1644              	.LBE1370:
 1645              	.LBE1369:
 1646              		.loc 3 103 0
 1647 05c0 3BBD0004 		addi 29,29,4
 1648              	.LVL128:
 1649 05c4 7F9BE800 		cmpw 7,27,29
 1650 05c8 409EFFE8 		bne+ 7,.L130
 1651 05cc 807A0000 		lwz 3,.LANCHOR1@l(26)
 1652 05d0 801F000C 		lwz 0,12(31)
 1653              	.LVL129:
 1654              	.L123:
 1655              	.LBE1390:
 1656              	.LBE1392:
 1657              	.LBE1394:
 1658              	.LBE1396:
 1659              	.LBE1398:
 1660              	.LBE1401:
 1661              	.LBE1405:
 1662              	.LBE1409:
 1663              	.LBE1413:
 1664              	.LBE1359:
 1665              	.LBE1358:
 1666              		.loc 1 86 0
 1667 05d4 80A1001C 		lwz 5,28(1)
 1668              	.LVL130:
 1669              	.LBB1418:
 1670              	.LBB1416:
 1671              	.LBB1414:
 1672              	.LBB1410:
 1673              	.LBB1406:
 1674              	.LBB1402:
 1675              		.loc 2 1256 0
 1676 05d8 93DF0004 		stw 30,4(31)
 1677              	.LBE1402:
 1678              	.LBE1406:
 1679              	.LBE1410:
 1680              	.LBE1414:
 1681              	.LBE1416:
 1682              	.LBE1418:
 1683              	.LBB1419:
 1684              	.LBB1420:
 1685              		.loc 1 63 0
 1686 05dc 7C050214 		add 0,5,0
 1687              		.loc 1 64 0
 1688 05e0 80810010 		lwz 4,16(1)
 1689              		.loc 1 63 0
 1690 05e4 901F000C 		stw 0,12(31)
 1691              	.LBE1420:
 1692              	.LBE1419:
 1693              		.loc 1 92 0
 1694 05e8 3BE00001 		li 31,1
 1695              	.LBB1422:
 1696              	.LBB1421:
 1697              		.loc 1 64 0
 1698 05ec 48000001 		bl memcpy
 1699              	.LVL131:
 1700              	.LBE1421:
 1701              	.LBE1422:
 1702              		.loc 1 87 0
 1703 05f0 80610010 		lwz 3,16(1)
 1704 05f4 2F830000 		cmpwi 7,3,0
 1705 05f8 419E0008 		beq- 7,.L122
 1706              		.loc 1 88 0
 1707 05fc 48000001 		bl free
 1708              	.LVL132:
 1709              	.L122:
 1710              	.LBE1428:
 1711              		.loc 1 93 0
 1712 0600 80010044 		lwz 0,68(1)
 1713 0604 7FE3FB78 		mr 3,31
 1714 0608 83410028 		lwz 26,40(1)
 1715 060c 7C0803A6 		mtlr 0
 1716 0610 8361002C 		lwz 27,44(1)
 1717 0614 83810030 		lwz 28,48(1)
 1718 0618 83A10034 		lwz 29,52(1)
 1719 061c 83C10038 		lwz 30,56(1)
 1720 0620 83E1003C 		lwz 31,60(1)
 1721 0624 38210040 		addi 1,1,64
 1722              		.cfi_remember_state
 1723              	.LCFI12:
 1724              		.cfi_def_cfa_offset 0
 1725              		.cfi_restore 31
 1726              		.cfi_restore 30
 1727              		.cfi_restore 29
 1728              		.cfi_restore 28
 1729              		.cfi_restore 27
 1730              		.cfi_restore 26
 1731 0628 4E800020 		blr
 1732              	.LVL133:
 1733              	.L137:
 1734              	.LCFI13:
 1735              		.cfi_restore_state
 1736              	.LBB1429:
 1737              	.LBB1423:
 1738              	.LBB1417:
 1739              	.LBB1415:
 1740              	.LBB1411:
 1741              	.LBB1407:
 1742              	.LBB1403:
 1743              	.LBB1399:
 1744              	.LBB1397:
 1745              	.LBB1395:
 1746              	.LBB1393:
 1747              	.LBB1391:
 1748              	.LBB1389:
 1749              	.LBB1388:
 1750              	.LBB1387:
 1751              	.LBB1386:
 1752              	.LBB1385:
 1753              	.LBB1384:
 1754              	.LBB1378:
 1755              	.LBB1379:
 1756              	.LBB1380:
 1757              		.loc 6 66 0
 1758 062c 8169FFFC 		lwz 11,-4(9)
 1759              	.LVL134:
 1760              	.LBE1380:
 1761              	.LBE1379:
 1762              	.LBE1378:
 1763              		.loc 4 240 0
 1764 0630 2F8B0000 		cmpwi 7,11,0
 1765              	.LBB1383:
 1766              	.LBB1382:
 1767              	.LBB1381:
 1768              		.loc 6 67 0
 1769 0634 396BFFFF 		addi 11,11,-1
 1770 0638 9169FFFC 		stw 11,-4(9)
 1771              	.LBE1381:
 1772              	.LBE1382:
 1773              	.LBE1383:
 1774              		.loc 4 240 0
 1775 063c 419DFF84 		bgt+ 7,.L129
 1776              		.loc 4 244 0
 1777 0640 38810008 		addi 4,1,8
 1778 0644 48000001 		bl _ZNSs4_Rep10_M_destroyERKSaIcE
 1779              	.LVL135:
 1780 0648 4BFFFF78 		b .L129
 1781              	.LVL136:
 1782              	.L136:
 1783              	.LBE1384:
 1784              	.LBE1385:
 1785              	.LBE1386:
 1786              	.LBE1387:
 1787              	.LBE1388:
 1788              	.LBE1389:
 1789              	.LBE1391:
 1790              	.LBE1393:
 1791              	.LBE1395:
 1792              	.LBE1397:
 1793              	.LBE1399:
 1794              	.LBE1403:
 1795              	.LBE1407:
 1796              	.LBE1411:
 1797              	.LBE1415:
 1798              	.LBE1417:
 1799              	.LBE1423:
 1800              	.LBB1424:
 1801              	.LBB1356:
 1802              	.LBB1354:
 1803              	.LBB1352:
 1804              	.LBB1349:
 1805              	.LBB1341:
 1806              	.LBB1342:
 1807              	.LBB1343:
 1808              		.loc 6 66 0
 1809 064c 8169FFFC 		lwz 11,-4(9)
 1810              	.LVL137:
 1811              	.LBE1343:
 1812              	.LBE1342:
 1813              	.LBE1341:
 1814              		.loc 4 240 0
 1815 0650 2F8B0000 		cmpwi 7,11,0
 1816              	.LBB1346:
 1817              	.LBB1345:
 1818              	.LBB1344:
 1819              		.loc 6 67 0
 1820 0654 396BFFFF 		addi 11,11,-1
 1821 0658 9169FFFC 		stw 11,-4(9)
 1822              	.LBE1344:
 1823              	.LBE1345:
 1824              	.LBE1346:
 1825              		.loc 4 240 0
 1826 065c 419DFF18 		bgt+ 7,.L121
 1827              		.loc 4 244 0
 1828 0660 38810009 		addi 4,1,9
 1829 0664 48000001 		bl _ZNSs4_Rep10_M_destroyERKSaIcE
 1830              	.LVL138:
 1831 0668 4BFFFF0C 		b .L121
 1832              	.LVL139:
 1833              	.L134:
 1834 066c 7C7F1B78 		mr 31,3
 1835              	.LBE1349:
 1836              	.LBE1352:
 1837              	.LBE1354:
 1838              	.LBE1356:
 1839              	.LBE1424:
 1840              		.loc 1 80 0
 1841 0670 3861000C 		addi 3,1,12
 1842 0674 48000001 		bl _ZNSsD1Ev
 1843 0678 7FE3FB78 		mr 3,31
 1844              	.LEHB11:
 1845 067c 48000001 		bl _Unwind_Resume
 1846              	.LEHE11:
 1847              	.LBE1429:
 1848              		.cfi_endproc
 1849              	.LFE865:
 1850              		.section	.gcc_except_table
 1851              	.LLSDA865:
 1852 0040 FF       		.byte	0xff
 1853 0041 FF       		.byte	0xff
 1854 0042 01       		.byte	0x1
 1855 0043 0E       		.uleb128 .LLSDACSE865-.LLSDACSB865
 1856              	.LLSDACSB865:
 1857 0044 48       		.uleb128 .LEHB9-.LFB865
 1858 0045 18       		.uleb128 .LEHE9-.LEHB9
 1859 0046 00       		.uleb128 0
 1860 0047 00       		.uleb128 0
 1861 0048 70       		.uleb128 .LEHB10-.LFB865
 1862 0049 04       		.uleb128 .LEHE10-.LEHB10
 1863 004a 8803     		.uleb128 .L134-.LFB865
 1864 004c 00       		.uleb128 0
 1865 004d 9803     		.uleb128 .LEHB11-.LFB865
 1866 004f 04       		.uleb128 .LEHE11-.LEHB11
 1867 0050 00       		.uleb128 0
 1868 0051 00       		.uleb128 0
 1869              	.LLSDACSE865:
 1870              		.section	".text"
 1871              		.size	_Z12LoadHomebrewPKc, .-_Z12LoadHomebrewPKc
 1872              		.align 2
 1873              		.globl _Z12BootHomebrewv
 1874              		.type	_Z12BootHomebrewv, @function
 1875              	_Z12BootHomebrewv:
 1876              	.LFB867:
 1877              		.loc 1 165 0
 1878              		.cfi_startproc
 1879 0680 7C0802A6 		mflr 0
 1880 0684 9421FFC0 		stwu 1,-64(1)
 1881              	.LCFI14:
 1882              		.cfi_def_cfa_offset 64
 1883              		.cfi_register 65, 0
 1884              	.LBB1493:
 1885              		.loc 1 167 0
 1886 0688 3860FFFF 		li 3,-1
 1887              	.LBE1493:
 1888              		.loc 1 165 0
 1889 068c 9361002C 		stw 27,44(1)
 1890              	.LBB1578:
 1891              		.loc 1 166 0
 1892 0690 3F600000 		lis 27,.LANCHOR0@ha
 1893              		.cfi_offset 27, -20
 1894              	.LBE1578:
 1895              		.loc 1 165 0
 1896 0694 90010044 		stw 0,68(1)
 1897 0698 93E1003C 		stw 31,60(1)
 1898              	.LBB1579:
 1899              		.loc 1 166 0
 1900 069c 3BFB0000 		la 31,.LANCHOR0@l(27)
 1901              		.cfi_offset 31, -4
 1902              		.cfi_offset 65, 4
 1903 06a0 801F000C 		lwz 0,12(31)
 1904              	.LBE1579:
 1905              		.loc 1 165 0
 1906 06a4 93810030 		stw 28,48(1)
 1907              	.LBB1580:
 1908              		.loc 1 166 0
 1909 06a8 2F800000 		cmpwi 7,0,0
 1910              	.LBE1580:
 1911              		.loc 1 165 0
 1912 06ac 93A10034 		stw 29,52(1)
 1913 06b0 93C10038 		stw 30,56(1)
 1914              	.LBB1581:
 1915              		.loc 1 166 0
 1916 06b4 419E01E0 		beq- 7,.L139
 1917              		.cfi_offset 30, -8
 1918              		.cfi_offset 29, -12
 1919              		.cfi_offset 28, -16
 1920              		.loc 1 169 0
 1921 06b8 48000001 		bl ExitApp
 1922              		.loc 1 171 0
 1923 06bc 48000001 		bl IOS_GetVersion
 1924 06c0 3D200000 		lis 9,Settings+2572@ha
 1925 06c4 88090A0C 		lbz 0,Settings+2572@l(9)
 1926 06c8 7F830000 		cmpw 7,3,0
 1927 06cc 419E000C 		beq- 7,.L140
 1928              		.loc 1 172 0
 1929 06d0 7C030378 		mr 3,0
 1930 06d4 48000001 		bl _ZN9IosLoader22ReloadIosKeepingRightsEi
 1931              	.L140:
 1932              	.LVL140:
 1933              	.LBB1494:
 1934              		.loc 1 108 0
 1935 06d8 813B0000 		lwz 9,.LANCHOR0@l(27)
 1936              	.LBB1495:
 1937              		.loc 1 101 0
 1938 06dc 3D605F61 		lis 11,0x5f61
 1939              	.LBB1496:
 1940              	.LBB1497:
 1941              	.LBB1498:
 1942              		.loc 2 571 0
 1943 06e0 801F0004 		lwz 0,4(31)
 1944              	.LBE1498:
 1945              	.LBE1497:
 1946              	.LBE1496:
 1947              		.loc 1 101 0
 1948 06e4 616B7267 		ori 11,11,29287
 1949 06e8 9161000C 		stw 11,12(1)
 1950              	.LVL141:
 1951              	.LBB1508:
 1952              	.LBB1500:
 1953              	.LBB1499:
 1954              		.loc 2 571 0
 1955 06ec 7C090050 		subf 0,9,0
 1956              	.LBE1499:
 1957              	.LBE1500:
 1958              		.loc 1 108 0
 1959 06f0 7C0A1671 		srawi. 10,0,2
 1960              	.LBE1508:
 1961              		.loc 1 100 0
 1962 06f4 38000000 		li 0,0
 1963 06f8 90010010 		stw 0,16(1)
 1964 06fc 90010014 		stw 0,20(1)
 1965 0700 90010018 		stw 0,24(1)
 1966 0704 9001001C 		stw 0,28(1)
 1967 0708 90010020 		stw 0,32(1)
 1968              	.LBB1509:
 1969              		.loc 1 108 0
 1970 070c 38000001 		li 0,1
 1971 0710 41820028 		beq- 0,.L141
 1972 0714 7D4903A6 		mtctr 10
 1973 0718 39600000 		li 11,0
 1974              	.LVL142:
 1975              	.L142:
 1976              	.LBB1501:
 1977              	.LBB1502:
 1978              	.LBB1503:
 1979              	.LBB1504:
 1980              	.LBB1505:
 1981              		.loc 4 288 0
 1982 071c 556A103A 		slwi 10,11,2
 1983              	.LBE1505:
 1984              	.LBE1504:
 1985              	.LBE1503:
 1986              	.LBE1502:
 1987              	.LBE1501:
 1988              		.loc 1 108 0
 1989 0720 396B0001 		addi 11,11,1
 1990              	.LVL143:
 1991              	.LBB1507:
 1992              	.LBB1506:
 1993              		.loc 4 711 0
 1994 0724 7D49502E 		lwzx 10,9,10
 1995              	.LBE1506:
 1996              	.LBE1507:
 1997              		.loc 1 110 0
 1998 0728 814AFFF4 		lwz 10,-12(10)
 1999 072c 394A0001 		addi 10,10,1
 2000 0730 7C005214 		add 0,0,10
 2001              	.LVL144:
 2002              		.loc 1 108 0
 2003 0734 4200FFE8 		bdnz .L142
 2004              	.LVL145:
 2005              	.L141:
 2006              	.LBE1509:
 2007              		.loc 1 115 0
 2008 0738 3C609320 		lis 3,0x9320
 2009              		.loc 1 113 0
 2010 073c 90010014 		stw 0,20(1)
 2011              		.loc 1 115 0
 2012 0740 60630018 		ori 3,3,24
 2013              	.LBB1510:
 2014              		.loc 1 118 0
 2015 0744 3BC00000 		li 30,0
 2016              	.LBE1510:
 2017              		.loc 1 115 0
 2018 0748 90610010 		stw 3,16(1)
 2019              	.LVL146:
 2020              	.LBB1517:
 2021              		.loc 1 118 0
 2022 074c 4182004C 		beq- 0,.L143
 2023 0750 3BA00000 		li 29,0
 2024 0754 48000008 		b .L145
 2025              	.LVL147:
 2026              	.L160:
 2027 0758 80610010 		lwz 3,16(1)
 2028              	.LVL148:
 2029              	.L145:
 2030              		.loc 1 164 0
 2031 075c 57DC103A 		slwi 28,30,2
 2032              	.LVL149:
 2033              		.loc 1 120 0
 2034 0760 7C63EA14 		add 3,3,29
 2035 0764 7C89E02E 		lwzx 4,9,28
 2036              		.loc 1 122 0
 2037 0768 3BDE0001 		addi 30,30,1
 2038              		.loc 1 120 0
 2039 076c 48000001 		bl strcpy
 2040              	.LVL150:
 2041              	.LBE1517:
 2042              	.LBE1495:
 2043              		.loc 1 121 0
 2044 0770 813F0000 		lwz 9,0(31)
 2045              	.LVL151:
 2046              	.LBB1570:
 2047              	.LBB1518:
 2048              	.LBB1511:
 2049              	.LBB1512:
 2050              		.loc 2 571 0
 2051 0774 801F0004 		lwz 0,4(31)
 2052              	.LBE1512:
 2053              	.LBE1511:
 2054              	.LBB1514:
 2055              	.LBB1515:
 2056              		.loc 4 711 0
 2057 0778 7D69E02E 		lwzx 11,9,28
 2058              	.LBE1515:
 2059              	.LBE1514:
 2060              	.LBB1516:
 2061              	.LBB1513:
 2062              		.loc 2 571 0
 2063 077c 7C090050 		subf 0,9,0
 2064 0780 7C001670 		srawi 0,0,2
 2065              	.LBE1513:
 2066              	.LBE1516:
 2067              		.loc 1 121 0
 2068 0784 816BFFF4 		lwz 11,-12(11)
 2069              		.loc 1 118 0
 2070 0788 7F9E0040 		cmplw 7,30,0
 2071              		.loc 1 121 0
 2072 078c 380B0001 		addi 0,11,1
 2073 0790 7FBD0214 		add 29,29,0
 2074              	.LVL152:
 2075              		.loc 1 118 0
 2076 0794 419CFFC4 		blt+ 7,.L160
 2077              	.LVL153:
 2078              	.L143:
 2079              	.LBE1518:
 2080              		.loc 1 127 0
 2081 0798 80010014 		lwz 0,20(1)
 2082 079c 81210010 		lwz 9,16(1)
 2083              		.loc 1 125 0
 2084 07a0 93C10018 		stw 30,24(1)
 2085              		.loc 1 127 0
 2086 07a4 7D290214 		add 9,9,0
 2087 07a8 38000000 		li 0,0
 2088 07ac 9809FFFF 		stb 0,-1(9)
 2089              		.loc 1 128 0
 2090 07b0 38010010 		addi 0,1,16
 2091 07b4 9001001C 		stw 0,28(1)
 2092              		.loc 1 129 0
 2093 07b8 38010014 		addi 0,1,20
 2094              	.LBB1519:
 2095              	.LBB1520:
 2096              		.loc 2 1040 0
 2097 07bc 83DB0000 		lwz 30,.LANCHOR0@l(27)
 2098              	.LBB1521:
 2099              	.LBB1522:
 2100              		.loc 2 1255 0
 2101 07c0 839F0004 		lwz 28,4(31)
 2102              	.LBE1522:
 2103              	.LBE1521:
 2104              	.LBE1520:
 2105              	.LBE1519:
 2106              		.loc 1 129 0
 2107 07c4 90010020 		stw 0,32(1)
 2108              	.LVL154:
 2109              	.LBB1567:
 2110              	.LBB1564:
 2111              	.LBB1561:
 2112              	.LBB1558:
 2113              	.LBB1523:
 2114              	.LBB1524:
 2115              	.LBB1525:
 2116              	.LBB1526:
 2117              	.LBB1527:
 2118              		.loc 3 103 0
 2119 07c8 7F9EE000 		cmpw 7,30,28
 2120 07cc 419E002C 		beq- 7,.L146
 2121 07d0 3F600000 		lis 27,_ZNSs4_Rep20_S_empty_rep_storageE@ha
 2122 07d4 7FDDF378 		mr 29,30
 2123 07d8 3B7B0000 		la 27,_ZNSs4_Rep20_S_empty_rep_storageE@l(27)
 2124              	.LVL155:
 2125              	.L153:
 2126              	.LBB1528:
 2127              	.LBB1529:
 2128              	.LBB1530:
 2129              	.LBB1531:
 2130              	.LBB1532:
 2131              	.LBB1533:
 2132              	.LBB1534:
 2133              		.loc 4 288 0
 2134 07dc 813D0000 		lwz 9,0(29)
 2135              	.LBE1534:
 2136              	.LBE1533:
 2137              	.LBE1532:
 2138              	.LBE1531:
 2139              	.LBE1530:
 2140              	.LBE1529:
 2141              	.LBE1528:
 2142              		.loc 3 103 0
 2143 07e0 3BBD0004 		addi 29,29,4
 2144              	.LVL156:
 2145              	.LBB1551:
 2146              	.LBB1549:
 2147              	.LBB1547:
 2148              	.LBB1545:
 2149              		.loc 4 534 0
 2150 07e4 3869FFF4 		addi 3,9,-12
 2151              	.LVL157:
 2152              	.LBB1535:
 2153              	.LBB1536:
 2154              		.loc 4 235 0
 2155 07e8 7F83D800 		cmpw 7,3,27
 2156 07ec 409E00F0 		bne- 7,.L161
 2157              	.LVL158:
 2158              	.L152:
 2159              	.LBE1536:
 2160              	.LBE1535:
 2161              	.LBE1545:
 2162              	.LBE1547:
 2163              	.LBE1549:
 2164              	.LBE1551:
 2165              		.loc 3 103 0
 2166 07f0 7F9CE800 		cmpw 7,28,29
 2167 07f4 409EFFE8 		bne+ 7,.L153
 2168              	.LVL159:
 2169              	.L146:
 2170              	.LBE1527:
 2171              	.LBE1526:
 2172              	.LBE1525:
 2173              	.LBE1524:
 2174              	.LBE1523:
 2175              	.LBE1558:
 2176              	.LBE1561:
 2177              	.LBE1564:
 2178              	.LBE1567:
 2179              	.LBE1570:
 2180              	.LBE1494:
 2181              		.loc 1 179 0
 2182 07f8 3D200000 		lis 9,app_booter_bin_size@ha
 2183 07fc 3C800000 		lis 4,app_booter_bin@ha
 2184 0800 83A90000 		lwz 29,app_booter_bin_size@l(9)
 2185 0804 38840000 		la 4,app_booter_bin@l(4)
 2186              	.LBB1573:
 2187              	.LBB1571:
 2188              	.LBB1568:
 2189              	.LBB1565:
 2190              	.LBB1562:
 2191              	.LBB1559:
 2192              		.loc 2 1256 0
 2193 0808 93DF0004 		stw 30,4(31)
 2194              	.LBE1559:
 2195              	.LBE1562:
 2196              	.LBE1565:
 2197              	.LBE1568:
 2198              	.LBE1571:
 2199              	.LBE1573:
 2200              		.loc 1 179 0
 2201 080c 3C609300 		lis 3,0x9300
 2202 0810 7FA5EB78 		mr 5,29
 2203 0814 48000001 		bl memcpy
 2204              		.loc 1 180 0
 2205 0818 3C609300 		lis 3,0x9300
 2206 081c 7FA4EB78 		mr 4,29
 2207 0820 48000001 		bl DCFlushRange
 2208              	.LVL160:
 2209              		.loc 1 184 0
 2210 0824 8121000C 		lwz 9,12(1)
 2211 0828 6D205F61 		xoris 0,9,0x5f61
 2212 082c 2F807267 		cmpwi 7,0,29287
 2213 0830 419E0088 		beq 7,.L162
 2214              	.L154:
 2215              	.LBB1574:
 2216              		.loc 1 191 0
 2217 0834 3BC00000 		li 30,0
 2218              	.LVL161:
 2219              	.LBE1574:
 2220              		.loc 1 190 0
 2221 0838 38600002 		li 3,2
 2222 083c 38800000 		li 4,0
 2223 0840 38A00000 		li 5,0
 2224 0844 48000001 		bl SYS_ResetSystem
 2225              	.LVL162:
 2226              	.LBB1575:
 2227              		.loc 1 191 0
 2228 0848 7FC9F378 		mr 9,30
 2229 084c 7FC0F378 		mr 0,30
 2230              	 # 191 "d:/Projects/SaveGameManager/savegame-manager-gx/trunk/source/BootHomebrew/BootHomebrew.cpp"
 2231 0850 7D2000A6 		mfmsr 9
 2232 0854 5520045E 	rlwinm 0,9,0,17,15
 2233 0858 7C000124 	mtmsr 0
 2234 085c 55298FFE 	extrwi 9,9,1,16
 2235              	 # 0 "" 2
 2236              	.LVL163:
 2237 0860 7D3F4B78 		mr 31,9
 2238              	.LVL164:
 2239              	.LBE1575:
 2240              		.loc 1 192 0
 2241 0864 48000001 		bl __exception_closeall
 2242              	.LVL165:
 2243              		.loc 1 193 0
 2244 0868 3C009300 		lis 0,0x9300
 2245 086c 7C0903A6 		mtctr 0
 2246 0870 4E800421 		bctrl
 2247              	.LVL166:
 2248              	.LBB1576:
 2249              		.loc 1 194 0
 2250 0874 7FC0F378 		mr 0,30
 2251              	 # 194 "d:/Projects/SaveGameManager/savegame-manager-gx/trunk/source/BootHomebrew/BootHomebrew.cpp"
 2252 0878 2C1F0000 		    cmpwi 31,0
 2253 087c 41820010 	    beq 1f
 2254 0880 7C0000A6 	    mfmsr 0
 2255 0884 60008000 	    ori 0,0,0x8000
 2256 0888 7C000124 	    mtmsr 0
 2257              	1:
 2258              	 # 0 "" 2
 2259              	.LVL167:
 2260              	.LBE1576:
 2261              		.loc 1 196 0
 2262 088c 48000001 		bl Sys_BackToLoader
 2263              		.loc 1 198 0
 2264 0890 38600000 		li 3,0
 2265              	.LVL168:
 2266              	.L139:
 2267              	.LBE1581:
 2268              		.loc 1 199 0
 2269 0894 80010044 		lwz 0,68(1)
 2270 0898 8361002C 		lwz 27,44(1)
 2271 089c 7C0803A6 		mtlr 0
 2272 08a0 83810030 		lwz 28,48(1)
 2273 08a4 83A10034 		lwz 29,52(1)
 2274 08a8 83C10038 		lwz 30,56(1)
 2275 08ac 83E1003C 		lwz 31,60(1)
 2276 08b0 38210040 		addi 1,1,64
 2277              		.cfi_remember_state
 2278              	.LCFI15:
 2279              		.cfi_def_cfa_offset 0
 2280              		.cfi_restore 31
 2281              		.cfi_restore 30
 2282              		.cfi_restore 29
 2283              		.cfi_restore 28
 2284              		.cfi_restore 27
 2285 08b4 4E800020 		blr
 2286              	.LVL169:
 2287              	.L162:
 2288              	.LCFI16:
 2289              		.cfi_restore_state
 2290              	.LBB1582:
 2291              		.loc 1 186 0
 2292 08b8 3881000C 		addi 4,1,12
 2293 08bc 38A00018 		li 5,24
 2294 08c0 3C609320 		lis 3,0x9320
 2295 08c4 48000001 		bl memmove
 2296              		.loc 1 187 0
 2297 08c8 80810014 		lwz 4,20(1)
 2298 08cc 3C609320 		lis 3,0x9320
 2299 08d0 38840018 		addi 4,4,24
 2300 08d4 48000001 		bl DCFlushRange
 2301 08d8 4BFFFF5C 		b .L154
 2302              	.LVL170:
 2303              	.L161:
 2304              	.LBB1577:
 2305              	.LBB1572:
 2306              	.LBB1569:
 2307              	.LBB1566:
 2308              	.LBB1563:
 2309              	.LBB1560:
 2310              	.LBB1557:
 2311              	.LBB1556:
 2312              	.LBB1555:
 2313              	.LBB1554:
 2314              	.LBB1553:
 2315              	.LBB1552:
 2316              	.LBB1550:
 2317              	.LBB1548:
 2318              	.LBB1546:
 2319              	.LBB1544:
 2320              	.LBB1543:
 2321              	.LBB1537:
 2322              	.LBB1538:
 2323              	.LBB1539:
 2324              		.loc 6 66 0
 2325 08dc 8169FFFC 		lwz 11,-4(9)
 2326              	.LVL171:
 2327              	.LBE1539:
 2328              	.LBE1538:
 2329              	.LBE1537:
 2330              		.loc 4 240 0
 2331 08e0 2F8B0000 		cmpwi 7,11,0
 2332              	.LBB1542:
 2333              	.LBB1541:
 2334              	.LBB1540:
 2335              		.loc 6 67 0
 2336 08e4 396BFFFF 		addi 11,11,-1
 2337 08e8 9169FFFC 		stw 11,-4(9)
 2338              	.LBE1540:
 2339              	.LBE1541:
 2340              	.LBE1542:
 2341              		.loc 4 240 0
 2342 08ec 419DFF04 		bgt+ 7,.L152
 2343              		.loc 4 244 0
 2344 08f0 38810008 		addi 4,1,8
 2345 08f4 48000001 		bl _ZNSs4_Rep10_M_destroyERKSaIcE
 2346              	.LVL172:
 2347 08f8 4BFFFEF8 		b .L152
 2348              	.LBE1543:
 2349              	.LBE1544:
 2350              	.LBE1546:
 2351              	.LBE1548:
 2352              	.LBE1550:
 2353              	.LBE1552:
 2354              	.LBE1553:
 2355              	.LBE1554:
 2356              	.LBE1555:
 2357              	.LBE1556:
 2358              	.LBE1557:
 2359              	.LBE1560:
 2360              	.LBE1563:
 2361              	.LBE1566:
 2362              	.LBE1569:
 2363              	.LBE1572:
 2364              	.LBE1577:
 2365              	.LBE1582:
 2366              		.cfi_endproc
 2367              	.LFE867:
 2368              		.size	_Z12BootHomebrewv, .-_Z12BootHomebrewv
 2369              		.section	.text.startup,"ax",@progbits
 2370              		.align 2
 2371              		.type	_GLOBAL__sub_I__Z15AddBootArgumentPKc, @function
 2372              	_GLOBAL__sub_I__Z15AddBootArgumentPKc:
 2373              	.LFB978:
 2374              		.loc 1 199 0
 2375              		.cfi_startproc
 2376              		.loc 1 199 0
 2377 0000 38600001 		li 3,1
 2378 0004 48000000 		b _Z41__static_initialization_and_destruction_0ii.constprop.32
 2379              		.cfi_endproc
 2380              	.LFE978:
 2381              		.size	_GLOBAL__sub_I__Z15AddBootArgumentPKc, .-_GLOBAL__sub_I__Z15AddBootArgumentPKc
 2382              		.section	.ctors,"aw",@progbits
 2383              		.align 2
 2384 0000 00000000 		.long	_GLOBAL__sub_I__Z15AddBootArgumentPKc
 2385              		.section	.text.exit,"ax",@progbits
 2386              		.align 2
 2387              		.type	_GLOBAL__sub_D__Z15AddBootArgumentPKc, @function
 2388              	_GLOBAL__sub_D__Z15AddBootArgumentPKc:
 2389              	.LFB979:
 2390              		.loc 1 199 0
 2391              		.cfi_startproc
 2392              		.loc 1 199 0
 2393 0000 38600000 		li 3,0
 2394 0004 48000000 		b _Z41__static_initialization_and_destruction_0ii.constprop.32
 2395              		.cfi_endproc
 2396              	.LFE979:
 2397              		.size	_GLOBAL__sub_D__Z15AddBootArgumentPKc, .-_GLOBAL__sub_D__Z15AddBootArgumentPKc
 2398              		.section	.dtors,"aw",@progbits
 2399              		.align 2
 2400 0000 00000000 		.long	_GLOBAL__sub_D__Z15AddBootArgumentPKc
 2401              		.section	".data"
 2402              		.align 2
 2403              		.set	.LANCHOR1,. + 0
 2404              		.type	_ZL14homebrewbuffer, @object
 2405              		.size	_ZL14homebrewbuffer, 4
 2406              	_ZL14homebrewbuffer:
 2407 0000 92000000 		.long	-1845493760
 2408              		.section	.rodata.str1.4,"aMS",@progbits,1
 2409              		.align 2
 2410              	.LC0:
 2411 0000 4C6F6164 		.string	"Loading file:"
 2411      696E6720 
 2411      66696C65 
 2411      3A00
 2412              		.section	".bss"
 2413              		.align 2
 2414              		.set	.LANCHOR0,. + 0
 2415              		.type	_ZL9Arguments, @object
 2416              		.size	_ZL9Arguments, 12
 2417              	_ZL9Arguments:
 2418 0000 00000000 		.zero	12
 2418      00000000 
 2418      00000000 
 2419              		.type	_ZL12homebrewsize, @object
 2420              		.size	_ZL12homebrewsize, 4
 2421              	_ZL12homebrewsize:
 2422 000c 00000000 		.zero	4
 2423              		.section	".text"
 2424              	.Letext0:
 2425              		.file 10 "d:\\devkitpro\\devkitppc\\bin\\../lib/gcc/powerpc-eabi/4.6.3/../../../../powerpc-eabi/in
 2426              		.file 11 "d:/devkitPro/libogc/include/gctypes.h"
 2427              		.file 12 "d:/devkitPro/libogc/include/ogc/gx.h"
 2428              		.file 13 "d:\\devkitpro\\devkitppc\\bin\\../lib/gcc/powerpc-eabi/4.6.3/../../../../powerpc-eabi/in
 2429              		.file 14 "d:\\devkitpro\\devkitppc\\bin\\../lib/gcc/powerpc-eabi/4.6.3/../../../../powerpc-eabi/in
 2430              		.file 15 "d:\\devkitpro\\devkitppc\\bin\\../lib/gcc/powerpc-eabi/4.6.3/include/stddef.h"
 2431              		.file 16 "d:\\devkitpro\\devkitppc\\bin\\../lib/gcc/powerpc-eabi/4.6.3/../../../../powerpc-eabi/in
 2432              		.file 17 "d:\\devkitpro\\devkitppc\\bin\\../lib/gcc/powerpc-eabi/4.6.3/../../../../powerpc-eabi/in
 2433              		.file 18 "d:\\devkitpro\\devkitppc\\bin\\../lib/gcc/powerpc-eabi/4.6.3/../../../../powerpc-eabi/in
 2434              		.file 19 "<built-in>"
 2435              		.file 20 "d:\\devkitpro\\devkitppc\\bin\\../lib/gcc/powerpc-eabi/4.6.3/../../../../powerpc-eabi/in
 2436              		.file 21 "d:\\devkitpro\\devkitppc\\bin\\../lib/gcc/powerpc-eabi/4.6.3/../../../../powerpc-eabi/in
 2437              		.file 22 "d:\\devkitpro\\devkitppc\\bin\\../lib/gcc/powerpc-eabi/4.6.3/../../../../powerpc-eabi/in
 2438              		.file 23 "d:\\devkitpro\\devkitppc\\bin\\../lib/gcc/powerpc-eabi/4.6.3/../../../../powerpc-eabi/in
 2439              		.file 24 "d:\\devkitpro\\devkitppc\\bin\\../lib/gcc/powerpc-eabi/4.6.3/../../../../powerpc-eabi/in
 2440              		.file 25 "d:\\devkitpro\\devkitppc\\bin\\../lib/gcc/powerpc-eabi/4.6.3/../../../../powerpc-eabi/in
 2441              		.file 26 "d:\\devkitpro\\devkitppc\\bin\\../lib/gcc/powerpc-eabi/4.6.3/../../../../powerpc-eabi/in
 2442              		.file 27 "d:\\devkitpro\\devkitppc\\bin\\../lib/gcc/powerpc-eabi/4.6.3/../../../../powerpc-eabi/in
 2443              		.file 28 "d:\\devkitpro\\devkitppc\\bin\\../lib/gcc/powerpc-eabi/4.6.3/../../../../powerpc-eabi/in
 2444              		.file 29 "d:\\devkitpro\\devkitppc\\bin\\../lib/gcc/powerpc-eabi/4.6.3/../../../../powerpc-eabi/in
 2445              		.file 30 "d:\\devkitpro\\devkitppc\\bin\\../lib/gcc/powerpc-eabi/4.6.3/../../../../powerpc-eabi/in
 2446              		.file 31 "d:\\devkitpro\\devkitppc\\bin\\../lib/gcc/powerpc-eabi/4.6.3/../../../../powerpc-eabi/in
 2447              		.file 32 "d:\\devkitpro\\devkitppc\\bin\\../lib/gcc/powerpc-eabi/4.6.3/../../../../powerpc-eabi/in
 2448              		.file 33 "d:\\devkitpro\\devkitppc\\bin\\../lib/gcc/powerpc-eabi/4.6.3/../../../../powerpc-eabi/in
 2449              		.file 34 "d:\\devkitpro\\devkitppc\\bin\\../lib/gcc/powerpc-eabi/4.6.3/../../../../powerpc-eabi/in
 2450              		.file 35 "d:\\devkitpro\\devkitppc\\bin\\../lib/gcc/powerpc-eabi/4.6.3/../../../../powerpc-eabi/in
 2451              		.file 36 "d:/Projects/SaveGameManager/savegame-manager-gx/trunk/source/BootHomebrew/../Settings/..
 2452              		.file 37 "d:/Projects/SaveGameManager/savegame-manager-gx/trunk/source/BootHomebrew/../Settings/..
 2453              		.file 38 "d:/Projects/SaveGameManager/savegame-manager-gx/trunk/source/BootHomebrew/../Settings/CS
 2454              		.file 39 "d:\\devkitpro\\devkitppc\\bin\\../lib/gcc/powerpc-eabi/4.6.3/../../../../powerpc-eabi/in
 2455              		.file 40 "d:\\devkitpro\\devkitppc\\bin\\../lib/gcc/powerpc-eabi/4.6.3/../../../../powerpc-eabi/in