   1              		.file	"BufferCircle.cpp"
   2              		.section	".text"
   3              	.Ltext0:
   4              		.align 2
   5              		.globl _ZN12BufferCircleC2Ev
   6              		.type	_ZN12BufferCircleC2Ev, @function
   7              	_ZN12BufferCircleC2Ev:
   8              	.LFB457:
   9              		.file 1 "d:/Projects/SaveGameManager/savegame-manager-gx/trunk/source/SoundOperations/BufferCircle
  10              		.loc 1 30 0
  11              		.cfi_startproc
  12              	.LVL0:
  13              	.LBB2354:
  14              	.LBB2355:
  15              	.LBB2356:
  16              	.LBB2357:
  17              	.LBB2358:
  18              		.file 2 "d:\\devkitpro\\devkitppc\\bin\\../lib/gcc/powerpc-eabi/4.6.3/../../../../powerpc-eabi/inc
  19              		.loc 2 83 0
  20 0000 38000000 		li 0,0
  21              	.LBE2358:
  22              	.LBE2357:
  23              	.LBE2356:
  24              	.LBE2355:
  25              	.LBE2354:
  26              		.loc 1 34 0
  27              	.LBB2377:
  28              	.LBB2362:
  29              	.LBB2361:
  30              	.LBB2360:
  31              	.LBB2359:
  32              		.loc 2 83 0
  33 0004 90030008 		stw 0,8(3)
  34 0008 9003000C 		stw 0,12(3)
  35 000c 90030010 		stw 0,16(3)
  36              	.LVL1:
  37              	.LBE2359:
  38              	.LBE2360:
  39              	.LBE2361:
  40              	.LBE2362:
  41              	.LBB2363:
  42              	.LBB2364:
  43              	.LBB2365:
  44              	.LBB2366:
  45 0010 90030014 		stw 0,20(3)
  46 0014 90030018 		stw 0,24(3)
  47 0018 9003001C 		stw 0,28(3)
  48              	.LVL2:
  49              	.LBE2366:
  50              	.LBE2365:
  51              	.LBE2364:
  52              	.LBE2363:
  53              	.LBB2367:
  54              	.LBB2368:
  55              	.LBB2369:
  56              	.LBB2370:
  57              	.LBB2371:
  58              	.LBB2372:
  59              	.LBB2373:
  60              		.file 3 "d:\\devkitpro\\devkitppc\\bin\\../lib/gcc/powerpc-eabi/4.6.3/../../../../powerpc-eabi/inc
  61              		.loc 3 116 0
  62 001c 90030020 		stw 0,32(3)
  63 0020 90030024 		stw 0,36(3)
  64              	.LVL3:
  65              	.LBE2373:
  66              	.LBE2372:
  67              	.LBE2371:
  68              	.LBB2374:
  69              	.LBB2375:
  70              	.LBB2376:
  71 0024 90030028 		stw 0,40(3)
  72 0028 9003002C 		stw 0,44(3)
  73              	.LBE2376:
  74              	.LBE2375:
  75              	.LBE2374:
  76              		.loc 3 389 0
  77 002c 90030030 		stw 0,48(3)
  78              	.LBE2370:
  79              	.LBE2369:
  80              	.LBE2368:
  81              	.LBE2367:
  82              		.loc 1 32 0
  83 0030 B0030000 		sth 0,0(3)
  84              		.loc 1 33 0
  85 0034 90030004 		stw 0,4(3)
  86              	.LBE2377:
  87              		.loc 1 34 0
  88 0038 4E800020 		blr
  89              		.cfi_endproc
  90              	.LFE457:
  91              		.size	_ZN12BufferCircleC2Ev, .-_ZN12BufferCircleC2Ev
  92              		.align 2
  93              		.globl _ZN12BufferCircle18SetBufferBlockSizeEi
  94              		.type	_ZN12BufferCircle18SetBufferBlockSizeEi, @function
  95              	_ZN12BufferCircle18SetBufferBlockSizeEi:
  96              	.LFB462:
  97              		.loc 1 45 0
  98              		.cfi_startproc
  99              	.LVL4:
 100              	.LBB2400:
 101              		.loc 1 46 0
 102 003c 2C040000 		cmpwi 0,4,0
 103              	.LBE2400:
 104              		.loc 1 45 0
 105 0040 7C0802A6 		mflr 0
 106 0044 9421FFE8 		stwu 1,-24(1)
 107              	.LCFI0:
 108              		.cfi_def_cfa_offset 24
 109              		.cfi_register 65, 0
 110 0048 93E10014 		stw 31,20(1)
 111 004c 7C7F1B78 		mr 31,3
 112              		.cfi_offset 31, -4
 113 0050 9001001C 		stw 0,28(1)
 114 0054 93810008 		stw 28,8(1)
 115 0058 93A1000C 		stw 29,12(1)
 116 005c 93C10010 		stw 30,16(1)
 117              	.LBB2431:
 118              		.loc 1 46 0
 119 0060 418000A4 		blt- 0,.L2
 120              		.cfi_offset 30, -8
 121              		.cfi_offset 29, -12
 122              		.cfi_offset 28, -16
 123              		.cfi_offset 65, 4
 124              	.LBB2401:
 125              	.LBB2402:
 126              		.loc 1 143 0
 127 0064 81230008 		lwz 9,8(3)
 128              	.LBE2402:
 129              		.loc 1 51 0
 130 0068 3BC00000 		li 30,0
 131              	.LBB2413:
 132              	.LBB2403:
 133              	.LBB2404:
 134              		.loc 2 571 0
 135 006c 8003000C 		lwz 0,12(3)
 136              	.LBE2404:
 137              	.LBE2403:
 138              	.LBE2413:
 139              	.LBE2401:
 140              		.loc 1 49 0
 141 0070 90830004 		stw 4,4(3)
 142              	.LVL5:
 143              	.LBB2430:
 144              		.loc 1 51 0
 145 0074 7D3C4B78 		mr 28,9
 146              	.LBB2414:
 147              	.LBB2409:
 148              	.LBB2405:
 149              		.loc 2 571 0
 150 0078 7C090050 		subf 0,9,0
 151              	.LBE2405:
 152              	.LBE2409:
 153              	.LBE2414:
 154              		.loc 1 51 0
 155 007c 2F800003 		cmpwi 7,0,3
 156 0080 41BD000C 		bgt+ 7,.L5
 157 0084 48000080 		b .L2
 158              	.LVL6:
 159              	.L6:
 160 0088 7D3C4B78 		mr 28,9
 161              	.LVL7:
 162              	.L5:
 163              		.loc 1 44 0
 164 008c 57DD103A 		slwi 29,30,2
 165              		.loc 1 53 0
 166 0090 7C69E82E 		lwzx 3,9,29
 167 0094 2F830000 		cmpwi 7,3,0
 168 0098 419E000C 		beq- 7,.L4
 169              	.LVL8:
 170              		.loc 1 54 0
 171 009c 48000001 		bl free
 172 00a0 839F0008 		lwz 28,8(31)
 173              	.LVL9:
 174              	.L4:
 175              		.loc 1 56 0
 176 00a4 809F0004 		lwz 4,4(31)
 177 00a8 38600020 		li 3,32
 178 00ac 3884001F 		addi 4,4,31
 179 00b0 54840034 		rlwinm 4,4,0,0,26
 180 00b4 48000001 		bl memalign
 181              		.loc 1 57 0
 182 00b8 38000000 		li 0,0
 183              		.loc 1 56 0
 184 00bc 7C7CE92E 		stwx 3,28,29
 185              	.LVL10:
 186              	.LBB2415:
 187              	.LBB2416:
 188              		.loc 3 692 0
 189 00c0 57CA06FE 		rlwinm 10,30,0,27,31
 190              	.LBB2417:
 191              	.LBB2418:
 192              		.loc 3 200 0
 193 00c4 38E0FFFE 		li 7,-2
 194              	.LBE2418:
 195              	.LBE2417:
 196              	.LBE2416:
 197              	.LBE2415:
 198              		.loc 1 57 0
 199 00c8 817F0014 		lwz 11,20(31)
 200              	.LBB2421:
 201              	.LBB2422:
 202              		.loc 3 88 0
 203 00cc 5CEA503E 		rlwnm 10,7,10,0xffffffff
 204              	.LBE2422:
 205              	.LBE2421:
 206              	.LBB2424:
 207              		.loc 1 143 0
 208 00d0 813F0008 		lwz 9,8(31)
 209              	.LBB2410:
 210              	.LBB2406:
 211              		.loc 2 571 0
 212 00d4 811F000C 		lwz 8,12(31)
 213              	.LBE2406:
 214              	.LBE2410:
 215              	.LBE2424:
 216              		.loc 1 57 0
 217 00d8 7C0BE92E 		stwx 0,11,29
 218              	.LVL11:
 219              	.LBB2425:
 220              	.LBB2419:
 221              		.loc 3 692 0
 222 00dc 57C0E8FA 		rlwinm 0,30,29,3,29
 223              	.LBE2419:
 224              	.LBE2425:
 225              	.LBB2426:
 226              	.LBB2411:
 227              	.LBB2407:
 228              		.loc 2 571 0
 229 00e0 7D094050 		subf 8,9,8
 230              	.LBE2407:
 231              	.LBE2411:
 232              	.LBE2426:
 233              		.loc 1 51 0
 234 00e4 3BDE0001 		addi 30,30,1
 235              	.LVL12:
 236              	.LBB2427:
 237              	.LBB2420:
 238              		.loc 3 692 0
 239 00e8 817F0020 		lwz 11,32(31)
 240              	.LVL13:
 241              	.LBE2420:
 242              	.LBE2427:
 243              	.LBB2428:
 244              	.LBB2412:
 245              	.LBB2408:
 246              		.loc 2 571 0
 247 00ec 7D081670 		srawi 8,8,2
 248              	.LBE2408:
 249              	.LBE2412:
 250              	.LBE2428:
 251              		.loc 1 51 0
 252 00f0 7F9E4000 		cmpw 7,30,8
 253              	.LBB2429:
 254              	.LBB2423:
 255              		.loc 3 88 0
 256 00f4 7D0B002E 		lwzx 8,11,0
 257 00f8 7D0A5038 		and 10,8,10
 258 00fc 7D4B012E 		stwx 10,11,0
 259              	.LBE2423:
 260              	.LBE2429:
 261              		.loc 1 51 0
 262 0100 419CFF88 		blt+ 7,.L6
 263              	.LVL14:
 264              	.L2:
 265              	.LBE2430:
 266              	.LBE2431:
 267              		.loc 1 60 0
 268 0104 8001001C 		lwz 0,28(1)
 269 0108 83810008 		lwz 28,8(1)
 270 010c 7C0803A6 		mtlr 0
 271 0110 83A1000C 		lwz 29,12(1)
 272 0114 83C10010 		lwz 30,16(1)
 273 0118 83E10014 		lwz 31,20(1)
 274              	.LVL15:
 275 011c 38210018 		addi 1,1,24
 276              	.LCFI1:
 277              		.cfi_def_cfa_offset 0
 278              		.cfi_restore 31
 279              		.cfi_restore 30
 280              		.cfi_restore 29
 281              		.cfi_restore 28
 282 0120 4E800020 		blr
 283              		.cfi_endproc
 284              	.LFE462:
 285              		.size	_ZN12BufferCircle18SetBufferBlockSizeEi, .-_ZN12BufferCircle18SetBufferBlockSizeEi
 286              		.align 2
 287              		.globl _ZN12BufferCircle12RemoveBufferEi
 288              		.type	_ZN12BufferCircle12RemoveBufferEi, @function
 289              	_ZN12BufferCircle12RemoveBufferEi:
 290              	.LFB464:
 291              		.loc 1 85 0
 292              		.cfi_startproc
 293              	.LVL16:
 294 0124 9421FFE8 		stwu 1,-24(1)
 295              	.LCFI2:
 296              		.cfi_def_cfa_offset 24
 297 0128 7C0802A6 		mflr 0
 298 012c 93C10010 		stw 30,16(1)
 299              	.LBB2550:
 300              	.LBB2551:
 301              		.file 4 "d:/Projects/SaveGameManager/savegame-manager-gx/trunk/source/SoundOperations/BufferCircle
 302              		.loc 4 83 0
 303 0130 7C9E2379 		mr. 30,4
 304              		.cfi_offset 30, -8
 305              		.cfi_register 65, 0
 306              	.LBE2551:
 307              	.LBE2550:
 308              		.loc 1 85 0
 309 0134 93E10014 		stw 31,20(1)
 310 0138 7C7F1B78 		mr 31,3
 311              		.cfi_offset 31, -4
 312              	.LVL17:
 313 013c 9001001C 		stw 0,28(1)
 314 0140 93A1000C 		stw 29,12(1)
 315              	.LBB2556:
 316              	.LBB2555:
 317              		.loc 4 83 0
 318 0144 41800174 		blt- 0,.L8
 319              		.cfi_offset 29, -12
 320              		.cfi_offset 65, 4
 321              	.LVL18:
 322              	.LBB2552:
 323              		.loc 1 143 0
 324 0148 81630008 		lwz 11,8(3)
 325 014c 8123000C 		lwz 9,12(3)
 326              	.LBB2553:
 327              	.LBB2554:
 328              		.loc 2 571 0
 329 0150 7C0B4850 		subf 0,11,9
 330 0154 7C001670 		srawi 0,0,2
 331              	.LBE2554:
 332              	.LBE2553:
 333              	.LBE2552:
 334              		.loc 4 83 0
 335 0158 7F80F000 		cmpw 7,0,30
 336 015c 409D015C 		ble- 7,.L8
 337              	.LVL19:
 338              	.LBE2555:
 339              	.LBE2556:
 340              	.LBB2557:
 341              	.LBB2558:
 342              		.loc 2 696 0
 343 0160 57DD103A 		slwi 29,30,2
 344              	.LBE2558:
 345              	.LBE2557:
 346              		.loc 1 89 0
 347 0164 7C6BE82E 		lwzx 3,11,29
 348              	.LVL20:
 349              	.LBB2560:
 350              	.LBB2559:
 351              		.loc 2 696 0
 352 0168 7D6BEA14 		add 11,11,29
 353              	.LBE2559:
 354              	.LBE2560:
 355              		.loc 1 89 0
 356 016c 2F830000 		cmpwi 7,3,0
 357 0170 419E0014 		beq- 7,.L10
 358              	.LVL21:
 359              		.loc 1 90 0
 360 0174 48000001 		bl free
 361              	.LVL22:
 362 0178 817F0008 		lwz 11,8(31)
 363 017c 813F000C 		lwz 9,12(31)
 364 0180 7D6BEA14 		add 11,11,29
 365              	.LVL23:
 366              	.L10:
 367              	.LBB2561:
 368              	.LBB2562:
 369              	.LBB2563:
 370              	.LBB2564:
 371              		.file 5 "d:\\devkitpro\\devkitppc\\bin\\../lib/gcc/powerpc-eabi/4.6.3/../../../../powerpc-eabi/inc
 372              		.loc 5 773 0
 373 0184 388B0004 		addi 4,11,4
 374              	.LVL24:
 375              	.LBE2564:
 376              	.LBE2563:
 377              		.file 6 "d:\\devkitpro\\devkitppc\\bin\\../lib/gcc/powerpc-eabi/4.6.3/../../../../powerpc-eabi/inc
 378              		.loc 6 138 0
 379 0188 7F844800 		cmpw 7,4,9
 380 018c 419E0020 		beq- 7,.L11
 381              	.LVL25:
 382              	.LBB2565:
 383              	.LBB2566:
 384              	.LBB2567:
 385              	.LBB2568:
 386              	.LBB2569:
 387              	.LBB2570:
 388              		.file 7 "d:\\devkitpro\\devkitppc\\bin\\../lib/gcc/powerpc-eabi/4.6.3/../../../../powerpc-eabi/inc
 389              		.loc 7 364 0
 390 0190 7CA44850 		subf 5,4,9
 391              	.LVL26:
 392              		.loc 7 365 0
 393 0194 7CA51671 		srawi. 5,5,2
 394              	.LVL27:
 395 0198 41A20014 		beq+ 0,.L11
 396              		.loc 7 366 0
 397 019c 7D635B78 		mr 3,11
 398 01a0 54A5103A 		slwi 5,5,2
 399              	.LVL28:
 400 01a4 48000001 		bl memmove
 401              	.LVL29:
 402 01a8 813F000C 		lwz 9,12(31)
 403              	.LVL30:
 404              	.L11:
 405              	.LBE2570:
 406              	.LBE2569:
 407              	.LBE2568:
 408              	.LBE2567:
 409              	.LBE2566:
 410              	.LBE2565:
 411              	.LBE2562:
 412              	.LBE2561:
 413              	.LBB2573:
 414              	.LBB2574:
 415              		.loc 5 773 0
 416 01ac 807F0014 		lwz 3,20(31)
 417              	.LBE2574:
 418              	.LBE2573:
 419              	.LBB2576:
 420              	.LBB2571:
 421              		.loc 6 140 0
 422 01b0 3929FFFC 		addi 9,9,-4
 423              	.LBE2571:
 424              	.LBE2576:
 425              	.LBB2577:
 426              	.LBB2578:
 427              	.LBB2579:
 428              		.loc 1 143 0
 429 01b4 815F0018 		lwz 10,24(31)
 430              	.LBE2579:
 431              	.LBE2578:
 432              	.LBE2577:
 433              	.LBB2591:
 434              	.LBB2575:
 435              		.loc 5 773 0
 436 01b8 7C63EA14 		add 3,3,29
 437              	.LBE2575:
 438              	.LBE2591:
 439              	.LBB2592:
 440              	.LBB2572:
 441              		.loc 6 140 0
 442 01bc 913F000C 		stw 9,12(31)
 443              	.LVL31:
 444              	.LBE2572:
 445              	.LBE2592:
 446              	.LBB2593:
 447              	.LBB2588:
 448              	.LBB2580:
 449              	.LBB2581:
 450              		.loc 5 773 0
 451 01c0 38830004 		addi 4,3,4
 452              	.LBE2581:
 453              	.LBE2580:
 454              		.loc 6 138 0
 455 01c4 7F845000 		cmpw 7,4,10
 456 01c8 419E001C 		beq- 7,.L12
 457              	.LVL32:
 458              	.LBB2582:
 459              	.LBB2583:
 460              	.LBB2584:
 461              	.LBB2585:
 462              	.LBB2586:
 463              	.LBB2587:
 464              		.loc 7 364 0
 465 01cc 7CA45050 		subf 5,4,10
 466              	.LVL33:
 467              		.loc 7 365 0
 468 01d0 7CA51671 		srawi. 5,5,2
 469              	.LVL34:
 470 01d4 41A20010 		beq+ 0,.L12
 471              		.loc 7 366 0
 472 01d8 54A5103A 		slwi 5,5,2
 473              	.LVL35:
 474 01dc 48000001 		bl memmove
 475              	.LVL36:
 476 01e0 815F0018 		lwz 10,24(31)
 477              	.LVL37:
 478              	.L12:
 479              	.LBE2587:
 480              	.LBE2586:
 481              	.LBE2585:
 482              	.LBE2584:
 483              	.LBE2583:
 484              	.LBE2582:
 485              	.LBE2588:
 486              	.LBE2593:
 487              	.LBB2594:
 488              	.LBB2595:
 489              	.LBB2596:
 490              	.LBB2597:
 491              	.LBB2598:
 492              		.loc 3 141 0
 493 01e4 801F0024 		lwz 0,36(31)
 494              	.LBE2598:
 495              	.LBE2597:
 496              	.LBE2596:
 497              	.LBE2595:
 498              	.LBE2594:
 499              	.LBB2611:
 500              	.LBB2589:
 501              		.loc 6 140 0
 502 01e8 394AFFFC 		addi 10,10,-4
 503              	.LBE2589:
 504              	.LBE2611:
 505              	.LBB2612:
 506              	.LBB2608:
 507              	.LBB2605:
 508              	.LBB2602:
 509              	.LBB2599:
 510              		.loc 3 142 0
 511 01ec 817F0020 		lwz 11,32(31)
 512              		.loc 3 141 0
 513 01f0 7FDE0214 		add 30,30,0
 514              	.LVL38:
 515              	.LBE2599:
 516              	.LBE2602:
 517              	.LBE2605:
 518              	.LBE2608:
 519              	.LBE2612:
 520              	.LBB2613:
 521              	.LBB2590:
 522              		.loc 6 140 0
 523 01f4 915F0018 		stw 10,24(31)
 524              	.LBE2590:
 525              	.LBE2613:
 526              	.LBB2614:
 527              	.LBB2609:
 528              	.LBB2606:
 529              	.LBB2603:
 530              	.LBB2600:
 531              		.loc 3 142 0
 532 01f8 7FC02E70 		srawi 0,30,5
 533 01fc 7C000194 		addze 0,0
 534              		.loc 3 143 0
 535 0200 54092834 		slwi 9,0,5
 536              	.LVL39:
 537              		.loc 3 144 0
 538 0204 7FC9F051 		subf. 30,9,30
 539              	.LVL40:
 540              		.loc 3 142 0
 541 0208 5400103A 		slwi 0,0,2
 542 020c 7D6B0214 		add 11,11,0
 543              	.LVL41:
 544              		.loc 3 144 0
 545 0210 418000E0 		blt- 0,.L25
 546              	.L13:
 547              	.LVL42:
 548              	.LBE2600:
 549              	.LBE2603:
 550              	.LBE2606:
 551              	.LBE2609:
 552              	.LBE2614:
 553              	.LBB2615:
 554              	.LBB2616:
 555              	.LBB2617:
 556              	.LBB2618:
 557              	.LBB2619:
 558              	.LBB2620:
 559              		.loc 3 141 0
 560 0214 393E0001 		addi 9,30,1
 561              	.LVL43:
 562              		.loc 3 149 0
 563 0218 80BF0028 		lwz 5,40(31)
 564              		.loc 3 142 0
 565 021c 7D2A2E70 		srawi 10,9,5
 566              		.loc 3 149 0
 567 0220 80DF002C 		lwz 6,44(31)
 568              		.loc 3 142 0
 569 0224 554A103A 		slwi 10,10,2
 570              		.loc 3 143 0
 571 0228 552906FE 		rlwinm 9,9,0,27,31
 572              	.LVL44:
 573              		.loc 3 142 0
 574 022c 7D4B5214 		add 10,11,10
 575              	.LVL45:
 576              	.LBE2620:
 577              	.LBE2619:
 578              	.LBE2618:
 579              	.LBE2617:
 580              	.LBE2616:
 581              	.LBB2621:
 582              	.LBB2622:
 583              	.LBB2623:
 584              		.loc 3 154 0
 585 0230 7F8A2800 		cmpw 7,10,5
 586 0234 419E00C8 		beq- 7,.L26
 587              	.L14:
 588              	.LVL46:
 589              	.LBE2623:
 590              	.LBE2622:
 591              	.LBE2621:
 592              	.LBB2626:
 593              	.LBB2627:
 594              	.LBB2628:
 595              	.LBB2629:
 596              	.LBB2630:
 597              	.LBB2631:
 598              	.LBB2632:
 599              	.LBB2633:
 600              	.LBB2634:
 601              		.loc 3 184 0
 602 0238 7C0A2850 		subf 0,10,5
 603 023c 54001838 		slwi 0,0,3
 604 0240 7C003214 		add 0,0,6
 605              	.LVL47:
 606              	.LBE2634:
 607              	.LBE2633:
 608              		.loc 7 327 0
 609 0244 7D090051 		subf. 8,9,0
 610 0248 40810050 		ble- 0,.L15
 611              	.LBB2635:
 612              	.LBB2636:
 613              	.LBB2637:
 614              	.LBB2638:
 615              	.LBB2639:
 616              		.loc 3 123 0
 617 024c 7D0903A6 		mtctr 8
 618              	.LBE2639:
 619              	.LBE2638:
 620              	.LBE2637:
 621              	.LBE2636:
 622              	.LBE2635:
 623              	.LBB2646:
 624              	.LBB2647:
 625              		.loc 3 200 0
 626 0250 38000001 		li 0,1
 627              	.LVL48:
 628              	.L23:
 629              	.LBE2647:
 630              	.LBE2646:
 631              	.LBB2649:
 632              	.LBB2650:
 633              	.LBB2651:
 634              		.loc 3 80 0
 635 0254 810A0000 		lwz 8,0(10)
 636              	.LBE2651:
 637              	.LBE2650:
 638              	.LBE2649:
 639              	.LBB2662:
 640              	.LBB2663:
 641              		.loc 3 200 0
 642 0258 7C074830 		slw 7,0,9
 643              	.LBE2663:
 644              	.LBE2662:
 645              	.LBB2664:
 646              	.LBB2652:
 647              	.LBB2653:
 648              		.loc 3 85 0
 649 025c 7CE44039 		and. 4,7,8
 650              	.LBE2653:
 651              	.LBE2652:
 652              	.LBE2664:
 653              	.LBB2665:
 654              	.LBB2648:
 655              		.loc 3 200 0
 656 0260 7C08F030 		slw 8,0,30
 657              	.LVL49:
 658              	.LBE2648:
 659              	.LBE2665:
 660              	.LBB2666:
 661              	.LBB2660:
 662              	.LBB2658:
 663              	.LBB2654:
 664              	.LBB2655:
 665              		.loc 3 86 0
 666 0264 80EB0000 		lwz 7,0(11)
 667              	.LBE2655:
 668              	.LBE2654:
 669              		.loc 3 85 0
 670 0268 4082007C 		bne- 0,.L27
 671              		.loc 3 88 0
 672 026c 7CE84078 		andc 8,7,8
 673              	.LVL50:
 674 0270 910B0000 		stw 8,0(11)
 675              	.L17:
 676              	.LVL51:
 677              	.LBE2658:
 678              	.LBE2660:
 679              	.LBE2666:
 680              	.LBB2667:
 681              	.LBB2643:
 682              	.LBB2644:
 683              		.loc 3 121 0
 684 0274 2F89001F 		cmpwi 7,9,31
 685 0278 39290001 		addi 9,9,1
 686              	.LVL52:
 687 027c 40BE000C 		bne+ 7,.L19
 688              	.LVL53:
 689              	.LBE2644:
 690              	.LBE2643:
 691              	.LBB2645:
 692              	.LBB2642:
 693              	.LBB2641:
 694              	.LBB2640:
 695              		.loc 3 124 0
 696 0280 394A0004 		addi 10,10,4
 697              	.LVL54:
 698              		.loc 3 123 0
 699 0284 39200000 		li 9,0
 700              	.LVL55:
 701              	.L19:
 702              	.LBE2640:
 703              	.LBE2641:
 704              	.LBE2642:
 705              	.LBE2645:
 706              	.LBE2667:
 707              	.LBB2668:
 708              	.LBB2669:
 709              	.LBB2670:
 710              		.loc 3 121 0
 711 0288 2F9E001F 		cmpwi 7,30,31
 712 028c 3BDE0001 		addi 30,30,1
 713              	.LVL56:
 714 0290 419E0044 		beq- 7,.L28
 715              	.LBE2670:
 716              	.LBE2669:
 717              	.LBE2668:
 718              		.loc 7 327 0
 719 0294 4200FFC0 		bdnz .L23
 720              	.LVL57:
 721              	.L15:
 722              	.LBE2632:
 723              	.LBE2631:
 724              	.LBE2630:
 725              	.LBE2629:
 726              	.LBE2628:
 727              	.LBE2627:
 728              	.LBE2626:
 729              	.LBB2683:
 730              	.LBB2684:
 731              	.LBB2685:
 732              		.loc 3 131 0
 733 0298 2F860000 		cmpwi 7,6,0
 734 029c 38C6FFFF 		addi 6,6,-1
 735 02a0 90DF002C 		stw 6,44(31)
 736 02a4 409E0014 		bne- 7,.L8
 737              	.LVL58:
 738              	.LBE2685:
 739              	.LBE2684:
 740              	.LBB2686:
 741              	.LBB2687:
 742              	.LBB2688:
 743              		.loc 3 134 0
 744 02a8 38A5FFFC 		addi 5,5,-4
 745              		.loc 3 133 0
 746 02ac 3800001F 		li 0,31
 747 02b0 901F002C 		stw 0,44(31)
 748              		.loc 3 134 0
 749 02b4 90BF0028 		stw 5,40(31)
 750              	.LVL59:
 751              	.L8:
 752              	.LBE2688:
 753              	.LBE2687:
 754              	.LBE2686:
 755              	.LBE2683:
 756              	.LBE2615:
 757              		.loc 1 95 0
 758 02b8 8001001C 		lwz 0,28(1)
 759 02bc 83A1000C 		lwz 29,12(1)
 760 02c0 7C0803A6 		mtlr 0
 761 02c4 83C10010 		lwz 30,16(1)
 762 02c8 83E10014 		lwz 31,20(1)
 763              	.LVL60:
 764 02cc 38210018 		addi 1,1,24
 765              		.cfi_remember_state
 766              	.LCFI3:
 767              		.cfi_def_cfa_offset 0
 768              		.cfi_restore 31
 769              		.cfi_restore 30
 770              		.cfi_restore 29
 771 02d0 4E800020 		blr
 772              	.LVL61:
 773              	.L28:
 774              	.LCFI4:
 775              		.cfi_restore_state
 776              	.LBB2691:
 777              	.LBB2689:
 778              	.LBB2682:
 779              	.LBB2681:
 780              	.LBB2680:
 781              	.LBB2679:
 782              	.LBB2678:
 783              	.LBB2677:
 784              	.LBB2675:
 785              	.LBB2671:
 786              	.LBB2672:
 787              	.LBB2673:
 788              	.LBB2674:
 789              		.loc 3 124 0
 790 02d4 396B0004 		addi 11,11,4
 791              	.LVL62:
 792              		.loc 3 123 0
 793 02d8 3BC00000 		li 30,0
 794              	.LVL63:
 795              	.LBE2674:
 796              	.LBE2673:
 797              	.LBE2672:
 798              	.LBE2671:
 799              	.LBE2675:
 800              		.loc 7 327 0
 801 02dc 4200FF78 		bdnz .L23
 802 02e0 4BFFFFB8 		b .L15
 803              	.LVL64:
 804              	.L27:
 805              	.LBB2676:
 806              	.LBB2661:
 807              	.LBB2659:
 808              	.LBB2657:
 809              	.LBB2656:
 810              		.loc 3 86 0
 811 02e4 7CE84378 		or 8,7,8
 812              	.LVL65:
 813 02e8 910B0000 		stw 8,0(11)
 814 02ec 4BFFFF88 		b .L17
 815              	.LVL66:
 816              	.L25:
 817              	.LBE2656:
 818              	.LBE2657:
 819              	.LBE2659:
 820              	.LBE2661:
 821              	.LBE2676:
 822              	.LBE2677:
 823              	.LBE2678:
 824              	.LBE2679:
 825              	.LBE2680:
 826              	.LBE2681:
 827              	.LBE2682:
 828              	.LBE2689:
 829              	.LBE2691:
 830              	.LBB2692:
 831              	.LBB2610:
 832              	.LBB2607:
 833              	.LBB2604:
 834              	.LBB2601:
 835              		.loc 3 146 0
 836 02f0 3BDE0020 		addi 30,30,32
 837              	.LVL67:
 838              		.loc 3 147 0
 839 02f4 396BFFFC 		addi 11,11,-4
 840              	.LVL68:
 841 02f8 4BFFFF1C 		b .L13
 842              	.LVL69:
 843              	.L26:
 844              	.LBE2601:
 845              	.LBE2604:
 846              	.LBE2607:
 847              	.LBE2610:
 848              	.LBE2692:
 849              	.LBB2693:
 850              	.LBB2690:
 851              	.LBB2625:
 852              	.LBB2624:
 853              		.loc 3 154 0
 854 02fc 7F893000 		cmpw 7,9,6
 855 0300 409EFF38 		bne+ 7,.L14
 856 0304 4BFFFF94 		b .L15
 857              	.LBE2624:
 858              	.LBE2625:
 859              	.LBE2690:
 860              	.LBE2693:
 861              		.cfi_endproc
 862              	.LFE464:
 863              		.size	_ZN12BufferCircle12RemoveBufferEi, .-_ZN12BufferCircle12RemoveBufferEi
 864              		.align 2
 865              		.globl _ZN12BufferCircle11ClearBufferEv
 866              		.type	_ZN12BufferCircle11ClearBufferEv, @function
 867              	_ZN12BufferCircle11ClearBufferEv:
 868              	.LFB465:
 869              		.loc 1 98 0
 870              		.cfi_startproc
 871              	.LVL70:
 872              	.LBB2710:
 873              	.LBB2711:
 874              	.LBB2712:
 875              	.LBB2713:
 876              	.LBB2714:
 877              		.loc 2 571 0
 878 0308 8123000C 		lwz 9,12(3)
 879 030c 80030008 		lwz 0,8(3)
 880 0310 7C004850 		subf 0,0,9
 881              	.LBE2714:
 882              	.LBE2713:
 883              	.LBE2712:
 884              		.loc 1 99 0
 885 0314 2F800003 		cmpwi 7,0,3
 886 0318 409D004C 		ble- 7,.L30
 887 031c 7C091671 		srawi. 9,0,2
 888 0320 80E30014 		lwz 7,20(3)
 889              		.loc 1 101 0
 890 0324 38C00000 		li 6,0
 891              	.LBB2715:
 892              	.LBB2716:
 893              	.LBB2717:
 894              	.LBB2718:
 895              		.loc 3 200 0
 896 0328 38A00001 		li 5,1
 897 032c 7D2903A6 		mtctr 9
 898              	.LBE2718:
 899              	.LBE2717:
 900              	.LBE2716:
 901              	.LBE2715:
 902              		.loc 1 99 0
 903 0330 39200000 		li 9,0
 904 0334 4081003C 		ble- 0,.L34
 905              	.LVL71:
 906              	.L31:
 907              		.loc 1 101 0 discriminator 2
 908 0338 5520103A 		slwi 0,9,2
 909              	.LBB2724:
 910              	.LBB2721:
 911              		.loc 3 692 0 discriminator 2
 912 033c 552A06FE 		rlwinm 10,9,0,27,31
 913              	.LBE2721:
 914              	.LBE2724:
 915              		.loc 1 101 0 discriminator 2
 916 0340 7CC7012E 		stwx 6,7,0
 917              	.LVL72:
 918              	.LBB2725:
 919              	.LBB2722:
 920              		.loc 3 692 0 discriminator 2
 921 0344 5520E8FA 		rlwinm 0,9,29,3,29
 922              	.LBB2720:
 923              	.LBB2719:
 924              		.loc 3 200 0 discriminator 2
 925 0348 7CAA5030 		slw 10,5,10
 926              	.LBE2719:
 927              	.LBE2720:
 928              	.LBE2722:
 929              	.LBE2725:
 930              		.loc 1 99 0 discriminator 2
 931 034c 39290001 		addi 9,9,1
 932              	.LVL73:
 933              	.LBB2726:
 934              	.LBB2723:
 935              		.loc 3 692 0 discriminator 2
 936 0350 81630020 		lwz 11,32(3)
 937              	.LVL74:
 938              	.LBE2723:
 939              	.LBE2726:
 940              	.LBB2727:
 941              	.LBB2728:
 942              		.loc 3 88 0 discriminator 2
 943 0354 7D0B002E 		lwzx 8,11,0
 944 0358 7D0A5078 		andc 10,8,10
 945 035c 7D4B012E 		stwx 10,11,0
 946              	.LBE2728:
 947              	.LBE2727:
 948              		.loc 1 99 0 discriminator 2
 949 0360 4200FFD8 		bdnz .L31
 950              	.LVL75:
 951              	.L30:
 952              	.LBE2711:
 953              		.loc 1 104 0
 954 0364 38000000 		li 0,0
 955              	.LBE2710:
 956              		.loc 1 105 0
 957              	.LBB2729:
 958              		.loc 1 104 0
 959 0368 B0030000 		sth 0,0(3)
 960              	.LBE2729:
 961              		.loc 1 105 0
 962 036c 4E800020 		blr
 963              	.LVL76:
 964              	.L34:
 965 0370 38000001 		li 0,1
 966 0374 7C0903A6 		mtctr 0
 967 0378 4BFFFFC0 		b .L31
 968              		.cfi_endproc
 969              	.LFE465:
 970              		.size	_ZN12BufferCircle11ClearBufferEv, .-_ZN12BufferCircle11ClearBufferEv
 971              		.align 2
 972              		.globl _ZN12BufferCircle10FreeBufferEv
 973              		.type	_ZN12BufferCircle10FreeBufferEv, @function
 974              	_ZN12BufferCircle10FreeBufferEv:
 975              	.LFB466:
 976              		.loc 1 108 0
 977              		.cfi_startproc
 978              	.LVL77:
 979 037c 7C0802A6 		mflr 0
 980 0380 9421FFE8 		stwu 1,-24(1)
 981              	.LCFI5:
 982              		.cfi_def_cfa_offset 24
 983              		.cfi_register 65, 0
 984 0384 93C10010 		stw 30,16(1)
 985 0388 7C7E1B78 		mr 30,3
 986              		.cfi_offset 30, -8
 987              	.LVL78:
 988 038c 9001001C 		stw 0,28(1)
 989 0390 93E10014 		stw 31,20(1)
 990              	.LBB2751:
 991              		.loc 1 109 0
 992 0394 3BE00000 		li 31,0
 993              		.cfi_offset 31, -4
 994              		.cfi_offset 65, 4
 995              	.LBB2752:
 996              		.loc 1 143 0
 997 0398 81630008 		lwz 11,8(3)
 998              	.LBB2753:
 999              	.LBB2754:
 1000              		.loc 2 571 0
 1001 039c 8003000C 		lwz 0,12(3)
 1002              	.LBE2754:
 1003              	.LBE2753:
 1004              	.LBE2752:
 1005              	.LBE2751:
 1006              		.loc 1 108 0
 1007 03a0 93A1000C 		stw 29,12(1)
 1008              	.LBB2779:
 1009              		.loc 1 109 0
 1010 03a4 7D695B78 		mr 9,11
 1011              	.LBB2763:
 1012              	.LBB2759:
 1013              	.LBB2755:
 1014              		.loc 2 571 0
 1015 03a8 7C0B0050 		subf 0,11,0
 1016              	.LBE2755:
 1017              	.LBE2759:
 1018              	.LBE2763:
 1019              		.loc 1 109 0
 1020 03ac 2F800003 		cmpwi 7,0,3
 1021 03b0 41BD000C 		bgt+ 7,.L38
 1022              		.cfi_offset 29, -12
 1023 03b4 4800006C 		b .L35
 1024              	.LVL79:
 1025              	.L39:
 1026 03b8 7D695B78 		mr 9,11
 1027              	.LVL80:
 1028              	.L38:
 1029              		.loc 1 107 0
 1030 03bc 57FD103A 		slwi 29,31,2
 1031              		.loc 1 111 0
 1032 03c0 7C6BE82E 		lwzx 3,11,29
 1033 03c4 2F830000 		cmpwi 7,3,0
 1034 03c8 419E000C 		beq- 7,.L37
 1035              	.LVL81:
 1036              		.loc 1 112 0
 1037 03cc 48000001 		bl free
 1038 03d0 813E0008 		lwz 9,8(30)
 1039              	.LVL82:
 1040              	.L37:
 1041              		.loc 1 114 0
 1042 03d4 39400000 		li 10,0
 1043              	.LBB2764:
 1044              	.LBB2765:
 1045              		.loc 3 692 0
 1046 03d8 57E0E8FA 		rlwinm 0,31,29,3,29
 1047              	.LBE2765:
 1048              	.LBE2764:
 1049              		.loc 1 114 0
 1050 03dc 7D49E92E 		stwx 10,9,29
 1051              	.LVL83:
 1052              	.LBB2771:
 1053              	.LBB2768:
 1054              	.LBB2766:
 1055              	.LBB2767:
 1056              		.loc 3 200 0
 1057 03e0 38E0FFFE 		li 7,-2
 1058              	.LBE2767:
 1059              	.LBE2766:
 1060              	.LBE2768:
 1061              	.LBE2771:
 1062              		.loc 1 115 0
 1063 03e4 813E0014 		lwz 9,20(30)
 1064              	.LBB2772:
 1065              		.loc 1 143 0
 1066 03e8 817E0008 		lwz 11,8(30)
 1067              	.LBB2760:
 1068              	.LBB2756:
 1069              		.loc 2 571 0
 1070 03ec 811E000C 		lwz 8,12(30)
 1071              	.LBE2756:
 1072              	.LBE2760:
 1073              	.LBE2772:
 1074              		.loc 1 115 0
 1075 03f0 7D49E92E 		stwx 10,9,29
 1076              	.LVL84:
 1077              	.LBB2773:
 1078              	.LBB2769:
 1079              		.loc 3 692 0
 1080 03f4 57EA06FE 		rlwinm 10,31,0,27,31
 1081              	.LBE2769:
 1082              	.LBE2773:
 1083              	.LBB2774:
 1084              	.LBB2761:
 1085              	.LBB2757:
 1086              		.loc 2 571 0
 1087 03f8 7D0B4050 		subf 8,11,8
 1088              	.LBE2757:
 1089              	.LBE2761:
 1090              	.LBE2774:
 1091              		.loc 1 109 0
 1092 03fc 3BFF0001 		addi 31,31,1
 1093              	.LVL85:
 1094              	.LBB2775:
 1095              	.LBB2770:
 1096              		.loc 3 692 0
 1097 0400 813E0020 		lwz 9,32(30)
 1098              	.LVL86:
 1099              	.LBE2770:
 1100              	.LBE2775:
 1101              	.LBB2776:
 1102              	.LBB2762:
 1103              	.LBB2758:
 1104              		.loc 2 571 0
 1105 0404 7D081670 		srawi 8,8,2
 1106              	.LBE2758:
 1107              	.LBE2762:
 1108              	.LBE2776:
 1109              		.loc 1 109 0
 1110 0408 7F9F4000 		cmpw 7,31,8
 1111              	.LBB2777:
 1112              	.LBB2778:
 1113              		.loc 3 88 0
 1114 040c 5CEA503E 		rlwnm 10,7,10,0xffffffff
 1115 0410 7D09002E 		lwzx 8,9,0
 1116 0414 7D0A5038 		and 10,8,10
 1117 0418 7D49012E 		stwx 10,9,0
 1118              	.LBE2778:
 1119              	.LBE2777:
 1120              		.loc 1 109 0
 1121 041c 419CFF9C 		blt+ 7,.L39
 1122              	.LVL87:
 1123              	.L35:
 1124              	.LBE2779:
 1125              		.loc 1 118 0
 1126 0420 8001001C 		lwz 0,28(1)
 1127 0424 83A1000C 		lwz 29,12(1)
 1128 0428 7C0803A6 		mtlr 0
 1129 042c 83C10010 		lwz 30,16(1)
 1130              	.LVL88:
 1131 0430 83E10014 		lwz 31,20(1)
 1132 0434 38210018 		addi 1,1,24
 1133              	.LCFI6:
 1134              		.cfi_def_cfa_offset 0
 1135              		.cfi_restore 31
 1136              		.cfi_restore 30
 1137              		.cfi_restore 29
 1138 0438 4E800020 		blr
 1139              		.cfi_endproc
 1140              	.LFE466:
 1141              		.size	_ZN12BufferCircle10FreeBufferEv, .-_ZN12BufferCircle10FreeBufferEv
 1142              		.align 2
 1143              		.globl _ZN12BufferCircleD2Ev
 1144              		.type	_ZN12BufferCircleD2Ev, @function
 1145              	_ZN12BufferCircleD2Ev:
 1146              	.LFB460:
 1147              		.loc 1 36 0
 1148              		.cfi_startproc
 1149              	.LVL89:
 1150 043c 9421FFF0 		stwu 1,-16(1)
 1151              	.LCFI7:
 1152              		.cfi_def_cfa_offset 16
 1153 0440 7C0802A6 		mflr 0
 1154 0444 93E1000C 		stw 31,12(1)
 1155 0448 7C7F1B78 		mr 31,3
 1156              		.cfi_offset 31, -4
 1157              		.cfi_register 65, 0
 1158 044c 90010014 		stw 0,20(1)
 1159              	.LBB2780:
 1160              		.loc 1 38 0
 1161              		.cfi_offset 65, 4
 1162 0450 48000001 		bl _ZN12BufferCircle10FreeBufferEv
 1163              	.LVL90:
 1164              	.LBB2781:
 1165              	.LBB2782:
 1166              	.LBB2783:
 1167              	.LBB2784:
 1168              		.loc 2 1256 0
 1169 0454 807F0020 		lwz 3,32(31)
 1170              	.LBE2784:
 1171              	.LBE2783:
 1172              	.LBE2782:
 1173              	.LBE2781:
 1174              	.LBB2791:
 1175              	.LBB2792:
 1176              	.LBB2793:
 1177              	.LBB2794:
 1178 0458 817F0008 		lwz 11,8(31)
 1179              	.LBE2794:
 1180              	.LBE2793:
 1181              	.LBE2792:
 1182              	.LBE2791:
 1183              	.LBB2798:
 1184              	.LBB2799:
 1185              	.LBB2800:
 1186              	.LBB2801:
 1187              	.LBB2802:
 1188              	.LBB2803:
 1189              		.loc 3 445 0
 1190 045c 2F830000 		cmpwi 7,3,0
 1191              	.LBE2803:
 1192              	.LBE2802:
 1193              	.LBE2801:
 1194              	.LBE2800:
 1195              	.LBE2799:
 1196              	.LBE2798:
 1197              	.LBB2811:
 1198              	.LBB2789:
 1199              		.loc 2 1040 0
 1200 0460 801F0014 		lwz 0,20(31)
 1201              	.LBB2787:
 1202              	.LBB2785:
 1203              		.loc 2 1256 0
 1204 0464 813F0024 		lwz 9,36(31)
 1205              	.LBE2785:
 1206              	.LBE2787:
 1207              	.LBE2789:
 1208              	.LBE2811:
 1209              	.LBB2812:
 1210              	.LBB2797:
 1211              	.LBB2796:
 1212              	.LBB2795:
 1213 0468 917F000C 		stw 11,12(31)
 1214              	.LVL91:
 1215              	.LBE2795:
 1216              	.LBE2796:
 1217              	.LBE2797:
 1218              	.LBE2812:
 1219              	.LBB2813:
 1220              	.LBB2790:
 1221              	.LBB2788:
 1222              	.LBB2786:
 1223 046c 901F0018 		stw 0,24(31)
 1224              	.LVL92:
 1225              	.LBE2786:
 1226              	.LBE2788:
 1227              	.LBE2790:
 1228              	.LBE2813:
 1229              	.LBB2814:
 1230              		.loc 3 1032 0
 1231 0470 907F0028 		stw 3,40(31)
 1232 0474 913F002C 		stw 9,44(31)
 1233              	.LVL93:
 1234              	.LBE2814:
 1235              	.LBB2815:
 1236              	.LBB2810:
 1237              	.LBB2809:
 1238              	.LBB2808:
 1239              	.LBB2807:
 1240              	.LBB2806:
 1241              		.loc 3 445 0
 1242 0478 419E000C 		beq- 7,.L45
 1243              	.LVL94:
 1244              	.LBB2804:
 1245              	.LBB2805:
 1246              		.file 8 "d:\\devkitpro\\devkitppc\\bin\\../lib/gcc/powerpc-eabi/4.6.3/../../../../powerpc-eabi/inc
 1247              		.loc 8 98 0
 1248 047c 48000001 		bl _ZdlPv
 1249              	.LVL95:
 1250 0480 801F0014 		lwz 0,20(31)
 1251              	.L45:
 1252              	.LVL96:
 1253              	.LBE2805:
 1254              	.LBE2804:
 1255              	.LBE2806:
 1256              	.LBE2807:
 1257              	.LBE2808:
 1258              	.LBE2809:
 1259              	.LBE2810:
 1260              	.LBE2815:
 1261              	.LBB2816:
 1262              	.LBB2817:
 1263              	.LBB2818:
 1264              	.LBB2819:
 1265              	.LBB2820:
 1266              	.LBB2821:
 1267              		.loc 2 155 0
 1268 0484 2F800000 		cmpwi 7,0,0
 1269 0488 419E000C 		beq- 7,.L50
 1270              	.LVL97:
 1271              	.LBB2822:
 1272              	.LBB2823:
 1273              		.loc 8 98 0
 1274 048c 7C030378 		mr 3,0
 1275 0490 48000001 		bl _ZdlPv
 1276              	.LVL98:
 1277              	.L50:
 1278              	.LBE2823:
 1279              	.LBE2822:
 1280              	.LBE2821:
 1281              	.LBE2820:
 1282              	.LBE2819:
 1283              	.LBE2818:
 1284              	.LBE2817:
 1285              	.LBE2816:
 1286              	.LBB2824:
 1287              		.loc 1 143 0
 1288 0494 807F0008 		lwz 3,8(31)
 1289              	.LVL99:
 1290              	.LBB2825:
 1291              	.LBB2826:
 1292              	.LBB2827:
 1293              	.LBB2828:
 1294              	.LBB2829:
 1295              		.loc 2 155 0
 1296 0498 2F830000 		cmpwi 7,3,0
 1297 049c 419E0008 		beq- 7,.L40
 1298              	.LVL100:
 1299              	.LBB2830:
 1300              	.LBB2831:
 1301              		.loc 8 98 0
 1302 04a0 48000001 		bl _ZdlPv
 1303              	.LVL101:
 1304              	.L40:
 1305              	.LBE2831:
 1306              	.LBE2830:
 1307              	.LBE2829:
 1308              	.LBE2828:
 1309              	.LBE2827:
 1310              	.LBE2826:
 1311              	.LBE2825:
 1312              	.LBE2824:
 1313              	.LBE2780:
 1314              		.loc 1 42 0
 1315 04a4 80010014 		lwz 0,20(1)
 1316 04a8 83E1000C 		lwz 31,12(1)
 1317              	.LVL102:
 1318 04ac 7C0803A6 		mtlr 0
 1319 04b0 38210010 		addi 1,1,16
 1320              	.LCFI8:
 1321              		.cfi_def_cfa_offset 0
 1322              		.cfi_restore 31
 1323 04b4 4E800020 		blr
 1324              		.cfi_endproc
 1325              	.LFE460:
 1326              		.size	_ZN12BufferCircleD2Ev, .-_ZN12BufferCircleD2Ev
 1327              		.align 2
 1328              		.globl _ZN12BufferCircle8LoadNextEv
 1329              		.type	_ZN12BufferCircle8LoadNextEv, @function
 1330              	_ZN12BufferCircle8LoadNextEv:
 1331              	.LFB467:
 1332              		.loc 1 121 0
 1333              		.cfi_startproc
 1334              	.LVL103:
 1335              	.LBB2855:
 1336              	.LBB2856:
 1337              	.LBB2857:
 1338              	.LBB2858:
 1339              		.loc 2 571 0
 1340 04b8 8123000C 		lwz 9,12(3)
 1341              	.LBE2858:
 1342              	.LBE2857:
 1343              	.LBE2856:
 1344              	.LBB2865:
 1345              	.LBB2866:
 1346              		.loc 3 88 0
 1347 04bc 3880FFFE 		li 4,-2
 1348              	.LBE2866:
 1349              	.LBE2865:
 1350              	.LBB2871:
 1351              	.LBB2862:
 1352              	.LBB2859:
 1353              		.loc 2 571 0
 1354 04c0 80030008 		lwz 0,8(3)
 1355              	.LBE2859:
 1356              	.LBE2862:
 1357              	.LBE2871:
 1358              		.loc 1 122 0
 1359 04c4 A1030000 		lhz 8,0(3)
 1360              	.LVL104:
 1361              	.LBB2872:
 1362              	.LBB2863:
 1363              	.LBB2860:
 1364              		.loc 2 571 0
 1365 04c8 7C004850 		subf 0,0,9
 1366              	.LBE2860:
 1367              	.LBE2863:
 1368              	.LBE2872:
 1369              	.LBB2873:
 1370              	.LBB2874:
 1371              		.loc 3 692 0
 1372 04cc 81430020 		lwz 10,32(3)
 1373              	.LBE2874:
 1374              	.LBE2873:
 1375              	.LBB2877:
 1376              	.LBB2864:
 1377              	.LBB2861:
 1378              		.loc 2 571 0
 1379 04d0 7C001670 		srawi 0,0,2
 1380              	.LVL105:
 1381              	.LBE2861:
 1382              	.LBE2864:
 1383              	.LBE2877:
 1384              		.loc 1 124 0
 1385 04d4 80E30014 		lwz 7,20(3)
 1386              		.loc 1 122 0
 1387 04d8 7D680214 		add 11,8,0
 1388              		.loc 1 126 0
 1389 04dc 39080001 		addi 8,8,1
 1390              	.LVL106:
 1391              		.loc 1 122 0
 1392 04e0 396BFFFF 		addi 11,11,-1
 1393              		.loc 1 126 0
 1394 04e4 7CC803D6 		divw 6,8,0
 1395              		.loc 1 122 0
 1396 04e8 7D2B03D6 		divw 9,11,0
 1397 04ec 7D2901D6 		mullw 9,9,0
 1398              		.loc 1 126 0
 1399 04f0 7C0601D6 		mullw 0,6,0
 1400              	.LVL107:
 1401              		.loc 1 122 0
 1402 04f4 7D295850 		subf 9,9,11
 1403              	.LVL108:
 1404              	.LBB2878:
 1405              	.LBB2875:
 1406              		.loc 3 692 0
 1407 04f8 552BE8FA 		rlwinm 11,9,29,3,29
 1408              	.LVL109:
 1409              	.LBE2875:
 1410              	.LBE2878:
 1411              	.LBB2879:
 1412              	.LBB2867:
 1413              		.loc 3 88 0
 1414 04fc 7CAA582E 		lwzx 5,10,11
 1415              	.LBE2867:
 1416              	.LBE2879:
 1417              	.LBB2880:
 1418              	.LBB2876:
 1419              		.loc 3 692 0
 1420 0500 552606FE 		rlwinm 6,9,0,27,31
 1421              	.LBE2876:
 1422              	.LBE2880:
 1423              	.LBB2881:
 1424              	.LBB2868:
 1425              		.loc 3 88 0
 1426 0504 5C86303E 		rlwnm 6,4,6,0xffffffff
 1427              	.LBE2868:
 1428              	.LBE2881:
 1429              		.loc 1 126 0
 1430 0508 7D004050 		subf 8,0,8
 1431              	.LBB2882:
 1432              	.LBB2869:
 1433              		.loc 3 88 0
 1434 050c 7CA63038 		and 6,5,6
 1435              	.LBE2869:
 1436              	.LBE2882:
 1437              		.loc 1 124 0
 1438 0510 5529103A 		slwi 9,9,2
 1439              	.LVL110:
 1440 0514 38000000 		li 0,0
 1441              	.LBB2883:
 1442              	.LBB2870:
 1443              		.loc 3 88 0
 1444 0518 7CCA592E 		stwx 6,10,11
 1445              	.LBE2870:
 1446              	.LBE2883:
 1447              		.loc 1 124 0
 1448 051c 7C07492E 		stwx 0,7,9
 1449              	.LVL111:
 1450              	.LBE2855:
 1451              		.loc 1 127 0
 1452              	.LBB2884:
 1453              		.loc 1 126 0
 1454 0520 B1030000 		sth 8,0(3)
 1455              	.LBE2884:
 1456              		.loc 1 127 0
 1457 0524 4E800020 		blr
 1458              		.cfi_endproc
 1459              	.LFE467:
 1460              		.size	_ZN12BufferCircle8LoadNextEv, .-_ZN12BufferCircle8LoadNextEv
 1461              		.align 2
 1462              		.globl _ZN12BufferCircle14SetBufferReadyEib
 1463              		.type	_ZN12BufferCircle14SetBufferReadyEib, @function
 1464              	_ZN12BufferCircle14SetBufferReadyEib:
 1465              	.LFB468:
 1466              		.loc 1 130 0
 1467              		.cfi_startproc
 1468              	.LVL112:
 1469              	.LBB2899:
 1470              	.LBB2900:
 1471              		.loc 4 83 0
 1472 0528 2C040000 		cmpwi 0,4,0
 1473              	.LVL113:
 1474 052c 4D800020 		bltlr- 0
 1475              	.LVL114:
 1476              	.LBB2901:
 1477              	.LBB2902:
 1478              	.LBB2903:
 1479              		.loc 2 571 0
 1480 0530 8123000C 		lwz 9,12(3)
 1481 0534 80030008 		lwz 0,8(3)
 1482 0538 7C004850 		subf 0,0,9
 1483 053c 7C001670 		srawi 0,0,2
 1484              	.LBE2903:
 1485              	.LBE2902:
 1486              	.LBE2901:
 1487              		.loc 4 83 0
 1488 0540 7F840000 		cmpw 7,4,0
 1489 0544 4C9C0020 		bgelr- 7
 1490              	.LVL115:
 1491              	.LBE2900:
 1492              	.LBE2899:
 1493              	.LBB2904:
 1494              	.LBB2905:
 1495              		.loc 3 85 0
 1496 0548 2F850000 		cmpwi 7,5,0
 1497              	.LBE2905:
 1498              	.LBE2904:
 1499              	.LBB2911:
 1500              	.LBB2912:
 1501              		.loc 3 692 0
 1502 054c 81230020 		lwz 9,32(3)
 1503 0550 548006FE 		rlwinm 0,4,0,27,31
 1504              	.LBB2913:
 1505              	.LBB2914:
 1506              		.loc 3 200 0
 1507 0554 39600001 		li 11,1
 1508              	.LBE2914:
 1509              	.LBE2913:
 1510              		.loc 3 692 0
 1511 0558 5484E8FA 		rlwinm 4,4,29,3,29
 1512              	.LVL116:
 1513              	.LBB2916:
 1514              	.LBB2915:
 1515              		.loc 3 200 0
 1516 055c 7D600030 		slw 0,11,0
 1517              	.LVL117:
 1518              	.LBE2915:
 1519              	.LBE2916:
 1520              	.LBE2912:
 1521              	.LBE2911:
 1522              	.LBB2917:
 1523              	.LBB2910:
 1524              	.LBB2906:
 1525              	.LBB2907:
 1526              		.loc 3 86 0
 1527 0560 7D69202E 		lwzx 11,9,4
 1528              	.LBE2907:
 1529              	.LBE2906:
 1530              		.loc 3 85 0
 1531 0564 409E0010 		bne- 7,.L61
 1532              		.loc 3 88 0
 1533 0568 7D600078 		andc 0,11,0
 1534              	.LVL118:
 1535 056c 7C09212E 		stwx 0,9,4
 1536 0570 4E800020 		blr
 1537              	.LVL119:
 1538              	.L61:
 1539              	.LBB2909:
 1540              	.LBB2908:
 1541              		.loc 3 86 0
 1542 0574 7D600378 		or 0,11,0
 1543              	.LVL120:
 1544 0578 7C09212E 		stwx 0,9,4
 1545 057c 4E800020 		blr
 1546              	.LBE2908:
 1547              	.LBE2909:
 1548              	.LBE2910:
 1549              	.LBE2917:
 1550              		.cfi_endproc
 1551              	.LFE468:
 1552              		.size	_ZN12BufferCircle14SetBufferReadyEib, .-_ZN12BufferCircle14SetBufferReadyEib
 1553              		.align 2
 1554              		.globl _ZN12BufferCircle13SetBufferSizeEii
 1555              		.type	_ZN12BufferCircle13SetBufferSizeEii, @function
 1556              	_ZN12BufferCircle13SetBufferSizeEii:
 1557              	.LFB469:
 1558              		.loc 1 138 0
 1559              		.cfi_startproc
 1560              	.LVL121:
 1561              	.LBB2918:
 1562              	.LBB2919:
 1563              		.loc 4 83 0
 1564 0580 2C040000 		cmpwi 0,4,0
 1565              	.LVL122:
 1566 0584 4D800020 		bltlr- 0
 1567              	.LVL123:
 1568              	.LBB2920:
 1569              	.LBB2921:
 1570              	.LBB2922:
 1571              		.loc 2 571 0
 1572 0588 8123000C 		lwz 9,12(3)
 1573 058c 80030008 		lwz 0,8(3)
 1574 0590 7C004850 		subf 0,0,9
 1575 0594 7C001670 		srawi 0,0,2
 1576              	.LBE2922:
 1577              	.LBE2921:
 1578              	.LBE2920:
 1579              		.loc 4 83 0
 1580 0598 7F840000 		cmpw 7,4,0
 1581 059c 4C9C0020 		bgelr- 7
 1582              	.LVL124:
 1583              	.LBE2919:
 1584              	.LBE2918:
 1585              		.loc 1 142 0
 1586 05a0 81230014 		lwz 9,20(3)
 1587 05a4 5484103A 		slwi 4,4,2
 1588              	.LVL125:
 1589 05a8 7CA9212E 		stwx 5,9,4
 1590 05ac 4E800020 		blr
 1591              		.cfi_endproc
 1592              	.LFE469:
 1593              		.size	_ZN12BufferCircle13SetBufferSizeEii, .-_ZN12BufferCircle13SetBufferSizeEii
 1594              		.section	.text._ZNSt6vectorIPhSaIS0_EE14_M_fill_insertEN9__gnu_cxx17__normal_iteratorIPS0_S2_EEjRK
 1595              		.align 2
 1596              		.weak	_ZNSt6vectorIPhSaIS0_EE14_M_fill_insertEN9__gnu_cxx17__normal_iteratorIPS0_S2_EEjRKS0_
 1597              		.type	_ZNSt6vectorIPhSaIS0_EE14_M_fill_insertEN9__gnu_cxx17__normal_iteratorIPS0_S2_EEjRKS0_, @fun
 1598              	_ZNSt6vectorIPhSaIS0_EE14_M_fill_insertEN9__gnu_cxx17__normal_iteratorIPS0_S2_EEjRKS0_:
 1599              	.LFB588:
 1600              		.loc 6 377 0
 1601              		.cfi_startproc
 1602              	.LVL126:
 1603 0000 9421FFD8 		stwu 1,-40(1)
 1604              	.LCFI9:
 1605              		.cfi_def_cfa_offset 40
 1606 0004 7C0802A6 		mflr 0
 1607 0008 93C10020 		stw 30,32(1)
 1608              	.LBB3033:
 1609              		.loc 6 380 0
 1610 000c 7CBE2B79 		mr. 30,5
 1611              		.cfi_offset 30, -8
 1612              		.cfi_register 65, 0
 1613              	.LBE3033:
 1614              		.loc 6 377 0
 1615 0010 9001002C 		stw 0,44(1)
 1616 0014 93A1001C 		stw 29,28(1)
 1617 0018 93E10024 		stw 31,36(1)
 1618 001c 7C7F1B78 		mr 31,3
 1619              		.cfi_offset 31, -4
 1620              		.cfi_offset 29, -12
 1621              		.cfi_offset 65, 4
 1622 0020 93410010 		stw 26,16(1)
 1623 0024 93610014 		stw 27,20(1)
 1624 0028 93810018 		stw 28,24(1)
 1625              		.loc 6 377 0
 1626 002c 83A40000 		lwz 29,0(4)
 1627              	.LBB3330:
 1628              		.loc 6 380 0
 1629 0030 41820088 		beq- 0,.L64
 1630              		.cfi_offset 28, -16
 1631              		.cfi_offset 27, -20
 1632              		.cfi_offset 26, -24
 1633              	.LBB3034:
 1634              		.loc 6 382 0
 1635 0034 83630004 		lwz 27,4(3)
 1636 0038 80030008 		lwz 0,8(3)
 1637 003c 7C1B0050 		subf 0,27,0
 1638 0040 7C001670 		srawi 0,0,2
 1639 0044 7F9E0040 		cmplw 7,30,0
 1640 0048 419D0098 		bgt- 7,.L66
 1641              	.LBB3035:
 1642              	.LBB3036:
 1643              	.LBB3037:
 1644              		.loc 5 892 0
 1645 004c 7C1DD850 		subf 0,29,27
 1646              	.LBE3037:
 1647              	.LBE3036:
 1648              		.loc 6 385 0
 1649 0050 83860000 		lwz 28,0(6)
 1650              	.LVL127:
 1651              	.LBB3039:
 1652              	.LBB3038:
 1653              		.loc 5 892 0
 1654 0054 7C001670 		srawi 0,0,2
 1655              	.LVL128:
 1656              	.LBE3038:
 1657              	.LBE3039:
 1658              		.loc 6 388 0
 1659 0058 7F9E0040 		cmplw 7,30,0
 1660 005c 419C0218 		blt- 7,.L94
 1661              	.LVL129:
 1662              	.LBB3040:
 1663              	.LBB3041:
 1664              	.LBB3042:
 1665              	.LBB3043:
 1666              	.LBB3044:
 1667              	.LBB3045:
 1668              	.LBB3046:
 1669              	.LBB3047:
 1670              		.loc 7 743 0
 1671 0060 7FC0F051 		subf. 30,0,30
 1672              		.loc 6 382 0
 1673 0064 7F69DB78 		mr 9,27
 1674              		.loc 7 743 0
 1675 0068 41820018 		beq- 0,.L71
 1676              	.LBE3047:
 1677              	.LBE3046:
 1678              	.LBE3045:
 1679              	.LBE3044:
 1680              	.LBE3043:
 1681              	.LBE3042:
 1682              	.LBE3041:
 1683              	.LBE3040:
 1684              	.LBB3055:
 1685              	.LBB3056:
 1686              	.LBB3057:
 1687              	.LBB3058:
 1688              	.LBB3059:
 1689              	.LBB3060:
 1690              	.LBB3061:
 1691              	.LBB3062:
 1692              	.LBB3063:
 1693              	.LBB3064:
 1694              	.LBB3065:
 1695              		.loc 6 377 0
 1696 006c 7FC903A6 		mtctr 30
 1697              	.LBE3065:
 1698              	.LBE3064:
 1699              	.LBE3063:
 1700              	.LBE3062:
 1701              	.LBE3061:
 1702              	.LBE3060:
 1703              	.LBE3059:
 1704              	.LBE3058:
 1705              	.LBE3057:
 1706              	.LBE3056:
 1707              	.LBE3055:
 1708              	.LBB3076:
 1709              	.LBB3054:
 1710              	.LBB3053:
 1711              	.LBB3052:
 1712              	.LBB3051:
 1713              	.LBB3050:
 1714              	.LBB3049:
 1715              	.LBB3048:
 1716 0070 393BFFFC 		addi 9,27,-4
 1717              	.LVL130:
 1718              	.L72:
 1719              		.loc 7 745 0
 1720 0074 97890004 		stwu 28,4(9)
 1721              		.loc 7 743 0
 1722 0078 4200FFFC 		bdnz .L72
 1723 007c 813F0004 		lwz 9,4(31)
 1724              	.L71:
 1725              	.LBE3048:
 1726              	.LBE3049:
 1727              	.LBE3050:
 1728              	.LBE3051:
 1729              	.LBE3052:
 1730              	.LBE3053:
 1731              	.LBE3054:
 1732              	.LBE3076:
 1733              	.LBB3077:
 1734              	.LBB3078:
 1735              	.LBB3079:
 1736              	.LBB3080:
 1737              	.LBB3081:
 1738              	.LBB3082:
 1739              	.LBB3083:
 1740              	.LBB3084:
 1741              	.LBB3085:
 1742              	.LBB3086:
 1743              	.LBB3087:
 1744              		.loc 7 365 0
 1745 0080 2F800000 		cmpwi 7,0,0
 1746              	.LBE3087:
 1747              	.LBE3086:
 1748              	.LBE3085:
 1749              	.LBE3084:
 1750              	.LBE3083:
 1751              	.LBE3082:
 1752              	.LBE3081:
 1753              	.LBE3080:
 1754              	.LBE3079:
 1755              	.LBE3078:
 1756              	.LBE3077:
 1757              		.loc 6 406 0
 1758 0084 57DE103A 		slwi 30,30,2
 1759 0088 7C69F214 		add 3,9,30
 1760              	.LVL131:
 1761 008c 907F0004 		stw 3,4(31)
 1762              	.LVL132:
 1763              	.LBB3108:
 1764              	.LBB3106:
 1765              	.LBB3104:
 1766              	.LBB3102:
 1767              	.LBB3100:
 1768              	.LBB3098:
 1769              	.LBB3096:
 1770              	.LBB3094:
 1771              	.LBB3092:
 1772              	.LBB3090:
 1773              	.LBB3088:
 1774              		.loc 7 365 0
 1775 0090 409E01CC 		bne- 7,.L73
 1776 0094 3BC00000 		li 30,0
 1777              	.LVL133:
 1778              	.L74:
 1779              	.LBE3088:
 1780              	.LBE3090:
 1781              	.LBE3092:
 1782              	.LBE3094:
 1783              	.LBE3096:
 1784              	.LBE3098:
 1785              	.LBE3100:
 1786              	.LBE3102:
 1787              	.LBE3104:
 1788              	.LBE3106:
 1789              	.LBE3108:
 1790              	.LBB3109:
 1791              	.LBB3110:
 1792              	.LBB3111:
 1793              		.loc 7 686 0
 1794 0098 7F9BE800 		cmpw 7,27,29
 1795              	.LBE3111:
 1796              	.LBE3110:
 1797              	.LBE3109:
 1798              		.loc 6 410 0
 1799 009c 7C63F214 		add 3,3,30
 1800 00a0 907F0004 		stw 3,4(31)
 1801              	.LVL134:
 1802              	.LBB3114:
 1803              	.LBB3113:
 1804              	.LBB3112:
 1805              		.loc 7 686 0
 1806 00a4 419E0014 		beq- 7,.L64
 1807              	.LVL135:
 1808              	.L75:
 1809              		.loc 7 687 0
 1810 00a8 939D0000 		stw 28,0(29)
 1811 00ac 3BBD0004 		addi 29,29,4
 1812              		.loc 7 686 0
 1813 00b0 7F9BE800 		cmpw 7,27,29
 1814 00b4 409EFFF4 		bne+ 7,.L75
 1815              	.LVL136:
 1816              	.L64:
 1817              	.LBE3112:
 1818              	.LBE3113:
 1819              	.LBE3114:
 1820              	.LBE3035:
 1821              	.LBE3034:
 1822              	.LBE3330:
 1823              		.loc 6 464 0
 1824 00b8 8001002C 		lwz 0,44(1)
 1825 00bc 83410010 		lwz 26,16(1)
 1826 00c0 7C0803A6 		mtlr 0
 1827 00c4 83610014 		lwz 27,20(1)
 1828 00c8 83810018 		lwz 28,24(1)
 1829 00cc 83A1001C 		lwz 29,28(1)
 1830 00d0 83C10020 		lwz 30,32(1)
 1831 00d4 83E10024 		lwz 31,36(1)
 1832              	.LVL137:
 1833 00d8 38210028 		addi 1,1,40
 1834              		.cfi_remember_state
 1835              	.LCFI10:
 1836              		.cfi_def_cfa_offset 0
 1837              		.cfi_restore 31
 1838              		.cfi_restore 30
 1839              		.cfi_restore 29
 1840              		.cfi_restore 28
 1841              		.cfi_restore 27
 1842              		.cfi_restore 26
 1843 00dc 4E800020 		blr
 1844              	.LVL138:
 1845              	.L66:
 1846              	.LCFI11:
 1847              		.cfi_restore_state
 1848              	.LBB3331:
 1849              	.LBB3326:
 1850              	.LBB3144:
 1851              	.LBB3145:
 1852              	.LBB3146:
 1853              	.LBB3147:
 1854              	.LBB3148:
 1855              		.loc 2 571 0
 1856 00e0 81230000 		lwz 9,0(3)
 1857              	.LBE3148:
 1858              	.LBE3147:
 1859              		.loc 2 1241 0
 1860 00e4 3D603FFF 		lis 11,0x3fff
 1861 00e8 616BFFFF 		ori 11,11,65535
 1862              	.LBB3150:
 1863              	.LBB3149:
 1864              		.loc 2 571 0
 1865 00ec 7F69D850 		subf 27,9,27
 1866 00f0 7F601670 		srawi 0,27,2
 1867              	.LBE3149:
 1868              	.LBE3150:
 1869              		.loc 2 1241 0
 1870 00f4 7D605850 		subf 11,0,11
 1871 00f8 7F9E5840 		cmplw 7,30,11
 1872 00fc 419D01E8 		bgt- 7,.L95
 1873              	.LVL139:
 1874              		.loc 2 1244 0
 1875 0100 7F80F040 		cmplw 7,0,30
 1876 0104 7C0B0378 		mr 11,0
 1877 0108 419C00CC 		blt- 7,.L96
 1878 010c 7D6B0214 		add 11,11,0
 1879              	.LVL140:
 1880              		.loc 2 1245 0
 1881 0110 7F805840 		cmplw 7,0,11
 1882 0114 409D00D0 		ble- 7,.L97
 1883              	.L78:
 1884              	.LVL141:
 1885              	.LBE3146:
 1886              	.LBE3145:
 1887              	.LBB3153:
 1888              	.LBB3154:
 1889              		.loc 5 892 0
 1890 0118 7F69E850 		subf 27,9,29
 1891              	.LBE3154:
 1892              	.LBE3153:
 1893              		.loc 6 418 0
 1894 011c 3B40FFFC 		li 26,-4
 1895              	.LBB3157:
 1896              	.LBB3155:
 1897              		.loc 5 892 0
 1898 0120 7F7B1670 		srawi 27,27,2
 1899              	.LVL142:
 1900              	.L84:
 1901              	.LBE3155:
 1902              	.LBE3157:
 1903              	.LBB3158:
 1904              	.LBB3159:
 1905              	.LBB3160:
 1906              	.LBB3161:
 1907              		.loc 8 92 0
 1908 0124 7F43D378 		mr 3,26
 1909              	.LVL143:
 1910 0128 90C10008 		stw 6,8(1)
 1911 012c 48000001 		bl _Znwj
 1912              	.LVL144:
 1913 0130 80C10008 		lwz 6,8(1)
 1914 0134 7C7C1B78 		mr 28,3
 1915              	.L79:
 1916              	.LVL145:
 1917              	.LBE3161:
 1918              	.LBE3160:
 1919              	.LBE3159:
 1920              	.LBE3158:
 1921              		.loc 6 424 0
 1922 0138 577B103A 		slwi 27,27,2
 1923              	.LVL146:
 1924              	.LBB3170:
 1925              	.LBB3166:
 1926              	.LBB3164:
 1927              	.LBB3162:
 1928              		.loc 1 143 0
 1929 013c 80060000 		lwz 0,0(6)
 1930              	.LVL147:
 1931              	.LBE3162:
 1932              	.LBE3164:
 1933              	.LBE3166:
 1934              	.LBE3170:
 1935              		.loc 6 424 0
 1936 0140 7F7CDA14 		add 27,28,27
 1937              	.LBB3171:
 1938              	.LBB3167:
 1939              		.loc 6 377 0
 1940 0144 7FC903A6 		mtctr 30
 1941              	.LBB3165:
 1942              	.LBB3163:
 1943 0148 3B7BFFFC 		addi 27,27,-4
 1944              	.LVL148:
 1945              	.L80:
 1946              	.LBE3163:
 1947              	.LBE3165:
 1948              	.LBE3167:
 1949              	.LBE3171:
 1950              	.LBB3172:
 1951              	.LBB3173:
 1952              	.LBB3174:
 1953              	.LBB3175:
 1954              	.LBB3176:
 1955              	.LBB3177:
 1956              	.LBB3178:
 1957              	.LBB3179:
 1958              		.loc 7 745 0
 1959 014c 941B0004 		stwu 0,4(27)
 1960              		.loc 7 743 0
 1961 0150 4200FFFC 		bdnz .L80
 1962              	.LVL149:
 1963              	.LBE3179:
 1964              	.LBE3178:
 1965              	.LBE3177:
 1966              	.LBE3176:
 1967              	.LBE3175:
 1968              	.LBE3174:
 1969              	.LBE3173:
 1970              	.LBE3172:
 1971              		.loc 6 429 0
 1972 0154 809F0000 		lwz 4,0(31)
 1973              	.LVL150:
 1974              	.LBB3180:
 1975              	.LBB3181:
 1976              	.LBB3182:
 1977              	.LBB3183:
 1978              	.LBB3184:
 1979              	.LBB3185:
 1980              	.LBB3186:
 1981              	.LBB3187:
 1982              	.LBB3188:
 1983              	.LBB3189:
 1984              	.LBB3190:
 1985              		.loc 7 365 0
 1986 0158 3B600000 		li 27,0
 1987              		.loc 7 364 0
 1988 015c 7C04E850 		subf 0,4,29
 1989              	.LVL151:
 1990              		.loc 7 365 0
 1991 0160 7C001671 		srawi. 0,0,2
 1992              	.LVL152:
 1993 0164 408200B0 		bne- 0,.L98
 1994              	.LBE3190:
 1995              	.LBE3189:
 1996              	.LBE3188:
 1997              	.LBE3187:
 1998              	.LBE3186:
 1999              	.LBE3185:
 2000              	.LBE3184:
 2001              	.LBE3183:
 2002              	.LBE3182:
 2003              	.LBE3181:
 2004              	.LBE3180:
 2005              	.LBB3231:
 2006              	.LBB3232:
 2007              	.LBB3233:
 2008              	.LBB3234:
 2009              	.LBB3235:
 2010              	.LBB3236:
 2011              	.LBB3237:
 2012              	.LBB3238:
 2013              	.LBB3239:
 2014              	.LBB3240:
 2015              	.LBB3241:
 2016              		.loc 7 364 0
 2017 0168 801F0004 		lwz 0,4(31)
 2018              	.LVL153:
 2019              	.LBE3241:
 2020              	.LBE3240:
 2021              	.LBE3239:
 2022              	.LBE3238:
 2023              	.LBE3237:
 2024              	.LBE3236:
 2025              	.LBE3235:
 2026              	.LBE3234:
 2027              	.LBE3233:
 2028              	.LBE3232:
 2029              	.LBE3231:
 2030              	.LBB3302:
 2031              	.LBB3227:
 2032              	.LBB3223:
 2033              	.LBB3219:
 2034              	.LBB3215:
 2035              	.LBB3211:
 2036              	.LBB3207:
 2037              	.LBB3203:
 2038              	.LBB3199:
 2039              	.LBB3195:
 2040              	.LBB3191:
 2041              		.loc 7 367 0
 2042 016c 7F7CDA14 		add 27,28,27
 2043              	.LVL154:
 2044              	.LBE3191:
 2045              	.LBE3195:
 2046              	.LBE3199:
 2047              	.LBE3203:
 2048              	.LBE3207:
 2049              	.LBE3211:
 2050              	.LBE3215:
 2051              	.LBE3219:
 2052              	.LBE3223:
 2053              	.LBE3227:
 2054              	.LBE3302:
 2055              		.loc 6 434 0
 2056 0170 57DE103A 		slwi 30,30,2
 2057              	.LVL155:
 2058              	.LBB3303:
 2059              	.LBB3296:
 2060              	.LBB3290:
 2061              	.LBB3284:
 2062              	.LBB3278:
 2063              	.LBB3272:
 2064              	.LBB3266:
 2065              	.LBB3260:
 2066              	.LBB3254:
 2067              	.LBB3248:
 2068              	.LBB3242:
 2069              		.loc 7 364 0
 2070 0174 7C1D0050 		subf 0,29,0
 2071              	.LBE3242:
 2072              	.LBE3248:
 2073              	.LBE3254:
 2074              	.LBE3260:
 2075              	.LBE3266:
 2076              	.LBE3272:
 2077              	.LBE3278:
 2078              	.LBE3284:
 2079              	.LBE3290:
 2080              	.LBE3296:
 2081              	.LBE3303:
 2082              		.loc 6 434 0
 2083 0178 7FDBF214 		add 30,27,30
 2084              	.LVL156:
 2085              	.LBB3304:
 2086              	.LBB3297:
 2087              	.LBB3291:
 2088              	.LBB3285:
 2089              	.LBB3279:
 2090              	.LBB3273:
 2091              	.LBB3267:
 2092              	.LBB3261:
 2093              	.LBB3255:
 2094              	.LBB3249:
 2095              	.LBB3243:
 2096              		.loc 7 365 0
 2097 017c 7C001671 		srawi. 0,0,2
 2098              	.LVL157:
 2099 0180 3B600000 		li 27,0
 2100 0184 408200C0 		bne- 0,.L99
 2101              	.LVL158:
 2102              	.L82:
 2103              	.LBE3243:
 2104              	.LBE3249:
 2105              	.LBE3255:
 2106              	.LBE3261:
 2107              	.LBE3267:
 2108              	.LBE3273:
 2109              	.LBE3279:
 2110              	.LBE3285:
 2111              	.LBE3291:
 2112              	.LBE3297:
 2113              	.LBE3304:
 2114              		.loc 6 456 0
 2115 0188 807F0000 		lwz 3,0(31)
 2116              	.LBB3305:
 2117              	.LBB3298:
 2118              	.LBB3292:
 2119              	.LBB3286:
 2120              	.LBB3280:
 2121              	.LBB3274:
 2122              	.LBB3268:
 2123              	.LBB3262:
 2124              	.LBB3256:
 2125              	.LBB3250:
 2126              	.LBB3244:
 2127              		.loc 7 367 0
 2128 018c 7F7EDA14 		add 27,30,27
 2129              	.LVL159:
 2130              	.LBE3244:
 2131              	.LBE3250:
 2132              	.LBE3256:
 2133              	.LBE3262:
 2134              	.LBE3268:
 2135              	.LBE3274:
 2136              	.LBE3280:
 2137              	.LBE3286:
 2138              	.LBE3292:
 2139              	.LBE3298:
 2140              	.LBE3305:
 2141              	.LBB3306:
 2142              	.LBB3307:
 2143              		.loc 2 155 0
 2144 0190 2F830000 		cmpwi 7,3,0
 2145 0194 419E0008 		beq- 7,.L83
 2146              	.LVL160:
 2147              	.LBB3308:
 2148              	.LBB3309:
 2149              		.loc 8 98 0
 2150 0198 48000001 		bl _ZdlPv
 2151              	.LVL161:
 2152              	.L83:
 2153              	.LBE3309:
 2154              	.LBE3308:
 2155              	.LBE3307:
 2156              	.LBE3306:
 2157              	.LBE3144:
 2158              	.LBE3326:
 2159              	.LBE3331:
 2160              		.loc 6 464 0
 2161 019c 8001002C 		lwz 0,44(1)
 2162              	.LBB3332:
 2163              	.LBB3327:
 2164              	.LBB3321:
 2165              		.loc 6 461 0
 2166 01a0 7F5CD214 		add 26,28,26
 2167              		.loc 6 459 0
 2168 01a4 939F0000 		stw 28,0(31)
 2169              	.LBE3321:
 2170              	.LBE3327:
 2171              	.LBE3332:
 2172              		.loc 6 464 0
 2173 01a8 7C0803A6 		mtlr 0
 2174              	.LBB3333:
 2175              	.LBB3328:
 2176              	.LBB3322:
 2177              		.loc 6 460 0
 2178 01ac 937F0004 		stw 27,4(31)
 2179              		.loc 6 461 0
 2180 01b0 935F0008 		stw 26,8(31)
 2181              	.LBE3322:
 2182              	.LBE3328:
 2183              	.LBE3333:
 2184              		.loc 6 464 0
 2185 01b4 83610014 		lwz 27,20(1)
 2186 01b8 83410010 		lwz 26,16(1)
 2187 01bc 83810018 		lwz 28,24(1)
 2188              	.LVL162:
 2189 01c0 83A1001C 		lwz 29,28(1)
 2190              	.LVL163:
 2191 01c4 83C10020 		lwz 30,32(1)
 2192              	.LVL164:
 2193 01c8 83E10024 		lwz 31,36(1)
 2194              	.LVL165:
 2195 01cc 38210028 		addi 1,1,40
 2196              		.cfi_remember_state
 2197              		.cfi_restore 26
 2198              		.cfi_restore 27
 2199              		.cfi_restore 28
 2200              		.cfi_restore 29
 2201              		.cfi_restore 30
 2202              		.cfi_restore 31
 2203              	.LCFI12:
 2204              		.cfi_def_cfa_offset 0
 2205 01d0 4E800020 		blr
 2206              	.LVL166:
 2207              	.L96:
 2208              	.LCFI13:
 2209              		.cfi_restore_state
 2210              	.LBB3334:
 2211              	.LBB3329:
 2212              	.LBB3323:
 2213              	.LBB3310:
 2214              	.LBB3151:
 2215              		.loc 2 1244 0
 2216 01d4 7FCBF378 		mr 11,30
 2217 01d8 7D6B0214 		add 11,11,0
 2218              	.LVL167:
 2219              		.loc 2 1245 0
 2220 01dc 7F805840 		cmplw 7,0,11
 2221 01e0 41BDFF38 		bgt- 7,.L78
 2222              	.L97:
 2223              	.LVL168:
 2224 01e4 3C003FFF 		lis 0,0x3fff
 2225 01e8 6000FFFF 		ori 0,0,65535
 2226 01ec 7F8B0040 		cmplw 7,11,0
 2227 01f0 41BDFF28 		bgt- 7,.L78
 2228              	.LVL169:
 2229              	.LBE3151:
 2230              	.LBE3310:
 2231              	.LBB3311:
 2232              	.LBB3168:
 2233              		.loc 2 150 0
 2234 01f4 2F8B0000 		cmpwi 7,11,0
 2235              	.LBE3168:
 2236              	.LBE3311:
 2237              	.LBB3312:
 2238              	.LBB3156:
 2239              		.loc 5 892 0
 2240 01f8 7D29E850 		subf 9,9,29
 2241 01fc 7D3B1670 		srawi 27,9,2
 2242              	.LVL170:
 2243              	.LBE3156:
 2244              	.LBE3312:
 2245              	.LBB3313:
 2246              	.LBB3169:
 2247              		.loc 2 150 0
 2248 0200 3B400000 		li 26,0
 2249 0204 3B800000 		li 28,0
 2250 0208 419EFF30 		beq+ 7,.L79
 2251 020c 557A103A 		slwi 26,11,2
 2252 0210 4BFFFF14 		b .L84
 2253              	.LVL171:
 2254              	.L98:
 2255              	.LBE3169:
 2256              	.LBE3313:
 2257              	.LBB3314:
 2258              	.LBB3228:
 2259              	.LBB3224:
 2260              	.LBB3220:
 2261              	.LBB3216:
 2262              	.LBB3212:
 2263              	.LBB3208:
 2264              	.LBB3204:
 2265              	.LBB3200:
 2266              	.LBB3196:
 2267              	.LBB3192:
 2268              		.loc 7 366 0
 2269 0214 541B103A 		slwi 27,0,2
 2270 0218 7F83E378 		mr 3,28
 2271 021c 7F65DB78 		mr 5,27
 2272              	.LBE3192:
 2273              	.LBE3196:
 2274              	.LBE3200:
 2275              	.LBE3204:
 2276              	.LBE3208:
 2277              	.LBE3212:
 2278              	.LBE3216:
 2279              	.LBE3220:
 2280              	.LBE3224:
 2281              	.LBE3228:
 2282              	.LBE3314:
 2283              		.loc 6 434 0
 2284 0220 57DE103A 		slwi 30,30,2
 2285              	.LVL172:
 2286              	.LBB3315:
 2287              	.LBB3229:
 2288              	.LBB3225:
 2289              	.LBB3221:
 2290              	.LBB3217:
 2291              	.LBB3213:
 2292              	.LBB3209:
 2293              	.LBB3205:
 2294              	.LBB3201:
 2295              	.LBB3197:
 2296              	.LBB3193:
 2297              		.loc 7 366 0
 2298 0224 48000001 		bl memmove
 2299              	.LVL173:
 2300              	.LBE3193:
 2301              	.LBE3197:
 2302              	.LBE3201:
 2303              	.LBE3205:
 2304              	.LBE3209:
 2305              	.LBE3213:
 2306              	.LBE3217:
 2307              	.LBE3221:
 2308              	.LBE3225:
 2309              	.LBE3229:
 2310              	.LBE3315:
 2311              	.LBB3316:
 2312              	.LBB3299:
 2313              	.LBB3293:
 2314              	.LBB3287:
 2315              	.LBB3281:
 2316              	.LBB3275:
 2317              	.LBB3269:
 2318              	.LBB3263:
 2319              	.LBB3257:
 2320              	.LBB3251:
 2321              	.LBB3245:
 2322              		.loc 7 364 0
 2323 0228 801F0004 		lwz 0,4(31)
 2324              	.LBE3245:
 2325              	.LBE3251:
 2326              	.LBE3257:
 2327              	.LBE3263:
 2328              	.LBE3269:
 2329              	.LBE3275:
 2330              	.LBE3281:
 2331              	.LBE3287:
 2332              	.LBE3293:
 2333              	.LBE3299:
 2334              	.LBE3316:
 2335              	.LBB3317:
 2336              	.LBB3230:
 2337              	.LBB3226:
 2338              	.LBB3222:
 2339              	.LBB3218:
 2340              	.LBB3214:
 2341              	.LBB3210:
 2342              	.LBB3206:
 2343              	.LBB3202:
 2344              	.LBB3198:
 2345              	.LBB3194:
 2346              		.loc 7 367 0
 2347 022c 7F7CDA14 		add 27,28,27
 2348              	.LVL174:
 2349              	.LBE3194:
 2350              	.LBE3198:
 2351              	.LBE3202:
 2352              	.LBE3206:
 2353              	.LBE3210:
 2354              	.LBE3214:
 2355              	.LBE3218:
 2356              	.LBE3222:
 2357              	.LBE3226:
 2358              	.LBE3230:
 2359              	.LBE3317:
 2360              	.LBB3318:
 2361              	.LBB3300:
 2362              	.LBB3294:
 2363              	.LBB3288:
 2364              	.LBB3282:
 2365              	.LBB3276:
 2366              	.LBB3270:
 2367              	.LBB3264:
 2368              	.LBB3258:
 2369              	.LBB3252:
 2370              	.LBB3246:
 2371              		.loc 7 364 0
 2372 0230 7C1D0050 		subf 0,29,0
 2373              	.LBE3246:
 2374              	.LBE3252:
 2375              	.LBE3258:
 2376              	.LBE3264:
 2377              	.LBE3270:
 2378              	.LBE3276:
 2379              	.LBE3282:
 2380              	.LBE3288:
 2381              	.LBE3294:
 2382              	.LBE3300:
 2383              	.LBE3318:
 2384              		.loc 6 434 0
 2385 0234 7FDBF214 		add 30,27,30
 2386              	.LVL175:
 2387              	.LBB3319:
 2388              	.LBB3301:
 2389              	.LBB3295:
 2390              	.LBB3289:
 2391              	.LBB3283:
 2392              	.LBB3277:
 2393              	.LBB3271:
 2394              	.LBB3265:
 2395              	.LBB3259:
 2396              	.LBB3253:
 2397              	.LBB3247:
 2398              		.loc 7 365 0
 2399 0238 7C001671 		srawi. 0,0,2
 2400              	.LVL176:
 2401 023c 3B600000 		li 27,0
 2402 0240 4182FF48 		beq+ 0,.L82
 2403              	.LVL177:
 2404              	.L99:
 2405              		.loc 7 366 0
 2406 0244 541B103A 		slwi 27,0,2
 2407 0248 7FC3F378 		mr 3,30
 2408 024c 7FA4EB78 		mr 4,29
 2409 0250 7F65DB78 		mr 5,27
 2410 0254 48000001 		bl memmove
 2411 0258 4BFFFF30 		b .L82
 2412              	.LVL178:
 2413              	.L73:
 2414              	.LBE3247:
 2415              	.LBE3253:
 2416              	.LBE3259:
 2417              	.LBE3265:
 2418              	.LBE3271:
 2419              	.LBE3277:
 2420              	.LBE3283:
 2421              	.LBE3289:
 2422              	.LBE3295:
 2423              	.LBE3301:
 2424              	.LBE3319:
 2425              	.LBE3323:
 2426              	.LBB3324:
 2427              	.LBB3115:
 2428              	.LBB3107:
 2429              	.LBB3105:
 2430              	.LBB3103:
 2431              	.LBB3101:
 2432              	.LBB3099:
 2433              	.LBB3097:
 2434              	.LBB3095:
 2435              	.LBB3093:
 2436              	.LBB3091:
 2437              	.LBB3089:
 2438 025c 541E103A 		slwi 30,0,2
 2439 0260 7FA4EB78 		mr 4,29
 2440 0264 7FC5F378 		mr 5,30
 2441              	.LVL179:
 2442 0268 48000001 		bl memmove
 2443              	.LVL180:
 2444 026c 807F0004 		lwz 3,4(31)
 2445 0270 4BFFFE28 		b .L74
 2446              	.LVL181:
 2447              	.L94:
 2448              	.LBE3089:
 2449              	.LBE3091:
 2450              	.LBE3093:
 2451              	.LBE3095:
 2452              	.LBE3097:
 2453              	.LBE3099:
 2454              	.LBE3101:
 2455              	.LBE3103:
 2456              	.LBE3105:
 2457              	.LBE3107:
 2458              	.LBE3115:
 2459              		.loc 6 390 0
 2460 0274 57DE103A 		slwi 30,30,2
 2461              	.LVL182:
 2462              	.LBB3116:
 2463              	.LBB3075:
 2464              	.LBB3074:
 2465              	.LBB3073:
 2466              	.LBB3072:
 2467              	.LBB3071:
 2468              	.LBB3070:
 2469              	.LBB3069:
 2470              	.LBB3068:
 2471              	.LBB3067:
 2472              	.LBB3066:
 2473              		.loc 6 382 0
 2474 0278 7F60DB78 		mr 0,27
 2475              	.LVL183:
 2476              		.loc 7 365 0
 2477 027c 7FC51671 		srawi. 5,30,2
 2478              	.LVL184:
 2479              		.loc 7 364 0
 2480 0280 7F5ED850 		subf 26,30,27
 2481              		.loc 7 365 0
 2482 0284 41A20018 		beq+ 0,.L68
 2483              		.loc 7 366 0
 2484 0288 7F63DB78 		mr 3,27
 2485 028c 7F44D378 		mr 4,26
 2486 0290 54A5103A 		slwi 5,5,2
 2487 0294 48000001 		bl memmove
 2488              	.LVL185:
 2489 0298 801F0004 		lwz 0,4(31)
 2490              	.L68:
 2491              	.LBE3066:
 2492              	.LBE3067:
 2493              	.LBE3068:
 2494              	.LBE3069:
 2495              	.LBE3070:
 2496              	.LBE3071:
 2497              	.LBE3072:
 2498              	.LBE3073:
 2499              	.LBE3074:
 2500              	.LBE3075:
 2501              	.LBE3116:
 2502              	.LBB3117:
 2503              	.LBB3118:
 2504              	.LBB3119:
 2505              	.LBB3120:
 2506              	.LBB3121:
 2507              	.LBB3122:
 2508              		.loc 7 559 0
 2509 029c 7F5DD050 		subf 26,29,26
 2510              	.LBE3122:
 2511              	.LBE3121:
 2512              	.LBE3120:
 2513              	.LBE3119:
 2514              	.LBE3118:
 2515              	.LBE3117:
 2516              		.loc 6 394 0
 2517 02a0 7C00F214 		add 0,0,30
 2518              	.LBB3138:
 2519              	.LBB3135:
 2520              	.LBB3132:
 2521              	.LBB3129:
 2522              	.LBB3126:
 2523              	.LBB3123:
 2524              		.loc 7 560 0
 2525 02a4 7F5A1671 		srawi. 26,26,2
 2526              	.LBE3123:
 2527              	.LBE3126:
 2528              	.LBE3129:
 2529              	.LBE3132:
 2530              	.LBE3135:
 2531              	.LBE3138:
 2532              		.loc 6 394 0
 2533 02a8 901F0004 		stw 0,4(31)
 2534              	.LVL186:
 2535              	.LBB3139:
 2536              	.LBB3136:
 2537              	.LBB3133:
 2538              	.LBB3130:
 2539              	.LBB3127:
 2540              	.LBB3124:
 2541              		.loc 7 560 0
 2542 02ac 40820024 		bne- 0,.L100
 2543              	.L69:
 2544              	.LVL187:
 2545              	.LBE3124:
 2546              	.LBE3127:
 2547              	.LBE3130:
 2548              	.LBE3133:
 2549              	.LBE3136:
 2550              	.LBE3139:
 2551              		.loc 6 397 0
 2552 02b0 7FDDF214 		add 30,29,30
 2553              	.LVL188:
 2554              	.LBB3140:
 2555              	.LBB3141:
 2556              	.LBB3142:
 2557              		.loc 7 686 0
 2558 02b4 7F9EE800 		cmpw 7,30,29
 2559 02b8 41BEFE00 		beq- 7,.L64
 2560              	.LVL189:
 2561              	.L70:
 2562              		.loc 7 687 0
 2563 02bc 939D0000 		stw 28,0(29)
 2564 02c0 3BBD0004 		addi 29,29,4
 2565              		.loc 7 686 0
 2566 02c4 7F9EE800 		cmpw 7,30,29
 2567 02c8 409EFFF4 		bne+ 7,.L70
 2568 02cc 4BFFFDEC 		b .L64
 2569              	.LVL190:
 2570              	.L100:
 2571              	.LBE3142:
 2572              	.LBE3141:
 2573              	.LBE3140:
 2574              	.LBB3143:
 2575              	.LBB3137:
 2576              	.LBB3134:
 2577              	.LBB3131:
 2578              	.LBB3128:
 2579              	.LBB3125:
 2580              		.loc 7 561 0
 2581 02d0 5745103A 		slwi 5,26,2
 2582 02d4 7FA4EB78 		mr 4,29
 2583 02d8 7C65D850 		subf 3,5,27
 2584 02dc 48000001 		bl memmove
 2585 02e0 4BFFFFD0 		b .L69
 2586              	.LVL191:
 2587              	.L95:
 2588              	.LBE3125:
 2589              	.LBE3128:
 2590              	.LBE3131:
 2591              	.LBE3134:
 2592              	.LBE3137:
 2593              	.LBE3143:
 2594              	.LBE3324:
 2595              	.LBB3325:
 2596              	.LBB3320:
 2597              	.LBB3152:
 2598              		.loc 2 1242 0
 2599 02e4 3C600000 		lis 3,.LC0@ha
 2600 02e8 38630000 		la 3,.LC0@l(3)
 2601 02ec 48000001 		bl _ZSt20__throw_length_errorPKc
 2602              	.LVL192:
 2603              	.LVL193:
 2604              	.LVL194:
 2605              	.LBE3152:
 2606              	.LBE3320:
 2607              	.LBE3325:
 2608              	.LBE3329:
 2609              	.LBE3334:
 2610              		.cfi_endproc
 2611              	.LFE588:
 2612              		.size	_ZNSt6vectorIPhSaIS0_EE14_M_fill_insertEN9__gnu_cxx17__normal_iteratorIPS0_S2_EEjRKS0_, .-_Z
 2613              		.section	.text._ZNSt6vectorIjSaIjEE14_M_fill_insertEN9__gnu_cxx17__normal_iteratorIPjS1_EEjRKj,"ax
 2614              		.align 2
 2615              		.weak	_ZNSt6vectorIjSaIjEE14_M_fill_insertEN9__gnu_cxx17__normal_iteratorIPjS1_EEjRKj
 2616              		.type	_ZNSt6vectorIjSaIjEE14_M_fill_insertEN9__gnu_cxx17__normal_iteratorIPjS1_EEjRKj, @function
 2617              	_ZNSt6vectorIjSaIjEE14_M_fill_insertEN9__gnu_cxx17__normal_iteratorIPjS1_EEjRKj:
 2618              	.LFB589:
 2619              		.loc 6 377 0
 2620              		.cfi_startproc
 2621              	.LVL195:
 2622 0000 9421FFD8 		stwu 1,-40(1)
 2623              	.LCFI14:
 2624              		.cfi_def_cfa_offset 40
 2625 0004 7C0802A6 		mflr 0
 2626 0008 93C10020 		stw 30,32(1)
 2627              	.LBB3445:
 2628              		.loc 6 380 0
 2629 000c 7CBE2B79 		mr. 30,5
 2630              		.cfi_offset 30, -8
 2631              		.cfi_register 65, 0
 2632              	.LBE3445:
 2633              		.loc 6 377 0
 2634 0010 9001002C 		stw 0,44(1)
 2635 0014 93A1001C 		stw 29,28(1)
 2636 0018 93E10024 		stw 31,36(1)
 2637 001c 7C7F1B78 		mr 31,3
 2638              		.cfi_offset 31, -4
 2639              		.cfi_offset 29, -12
 2640              		.cfi_offset 65, 4
 2641 0020 93410010 		stw 26,16(1)
 2642 0024 93610014 		stw 27,20(1)
 2643 0028 93810018 		stw 28,24(1)
 2644              		.loc 6 377 0
 2645 002c 83A40000 		lwz 29,0(4)
 2646              	.LBB3740:
 2647              		.loc 6 380 0
 2648 0030 41820080 		beq- 0,.L101
 2649              		.cfi_offset 28, -16
 2650              		.cfi_offset 27, -20
 2651              		.cfi_offset 26, -24
 2652              	.LBB3446:
 2653              		.loc 6 382 0
 2654 0034 83630004 		lwz 27,4(3)
 2655 0038 80030008 		lwz 0,8(3)
 2656 003c 7C1B0050 		subf 0,27,0
 2657 0040 7C001670 		srawi 0,0,2
 2658 0044 7F9E0040 		cmplw 7,30,0
 2659 0048 419D0090 		bgt- 7,.L103
 2660              	.LBB3447:
 2661              	.LBB3448:
 2662              	.LBB3449:
 2663              		.loc 5 892 0
 2664 004c 7C1DD850 		subf 0,29,27
 2665              	.LBE3449:
 2666              	.LBE3448:
 2667              		.loc 6 385 0
 2668 0050 83860000 		lwz 28,0(6)
 2669              	.LVL196:
 2670              	.LBB3451:
 2671              	.LBB3450:
 2672              		.loc 5 892 0
 2673 0054 7C001670 		srawi 0,0,2
 2674              	.LVL197:
 2675              	.LBE3450:
 2676              	.LBE3451:
 2677              		.loc 6 388 0
 2678 0058 7F9E0040 		cmplw 7,30,0
 2679 005c 419C0210 		blt- 7,.L130
 2680              	.LVL198:
 2681              	.LBB3452:
 2682              	.LBB3453:
 2683              	.LBB3454:
 2684              	.LBB3455:
 2685              	.LBB3456:
 2686              	.LBB3457:
 2687              	.LBB3458:
 2688              	.LBB3459:
 2689              		.loc 7 743 0
 2690 0060 7FC0F051 		subf. 30,0,30
 2691 0064 41820014 		beq- 0,.L108
 2692              	.LBE3459:
 2693              	.LBE3458:
 2694              	.LBE3457:
 2695              	.LBE3456:
 2696              	.LBE3455:
 2697              	.LBE3454:
 2698              	.LBE3453:
 2699              	.LBE3452:
 2700              	.LBB3467:
 2701              	.LBB3468:
 2702              	.LBB3469:
 2703              	.LBB3470:
 2704              	.LBB3471:
 2705              	.LBB3472:
 2706              	.LBB3473:
 2707              	.LBB3474:
 2708              	.LBB3475:
 2709              	.LBB3476:
 2710              	.LBB3477:
 2711              		.loc 6 377 0
 2712 0068 7FC903A6 		mtctr 30
 2713              	.LBE3477:
 2714              	.LBE3476:
 2715              	.LBE3475:
 2716              	.LBE3474:
 2717              	.LBE3473:
 2718              	.LBE3472:
 2719              	.LBE3471:
 2720              	.LBE3470:
 2721              	.LBE3469:
 2722              	.LBE3468:
 2723              	.LBE3467:
 2724              	.LBB3488:
 2725              	.LBB3466:
 2726              	.LBB3465:
 2727              	.LBB3464:
 2728              	.LBB3463:
 2729              	.LBB3462:
 2730              	.LBB3461:
 2731              	.LBB3460:
 2732 006c 393BFFFC 		addi 9,27,-4
 2733              	.LVL199:
 2734              	.L109:
 2735              		.loc 7 745 0
 2736 0070 97890004 		stwu 28,4(9)
 2737              		.loc 7 743 0
 2738 0074 4200FFFC 		bdnz .L109
 2739              	.L108:
 2740              	.LBE3460:
 2741              	.LBE3461:
 2742              	.LBE3462:
 2743              	.LBE3463:
 2744              	.LBE3464:
 2745              	.LBE3465:
 2746              	.LBE3466:
 2747              	.LBE3488:
 2748              	.LBB3489:
 2749              	.LBB3490:
 2750              	.LBB3491:
 2751              	.LBB3492:
 2752              	.LBB3493:
 2753              	.LBB3494:
 2754              	.LBB3495:
 2755              	.LBB3496:
 2756              	.LBB3497:
 2757              	.LBB3498:
 2758              	.LBB3499:
 2759              		.loc 7 365 0
 2760 0078 2F800000 		cmpwi 7,0,0
 2761              	.LBE3499:
 2762              	.LBE3498:
 2763              	.LBE3497:
 2764              	.LBE3496:
 2765              	.LBE3495:
 2766              	.LBE3494:
 2767              	.LBE3493:
 2768              	.LBE3492:
 2769              	.LBE3491:
 2770              	.LBE3490:
 2771              	.LBE3489:
 2772              		.loc 6 406 0
 2773 007c 57DE103A 		slwi 30,30,2
 2774 0080 7C7BF214 		add 3,27,30
 2775              	.LVL200:
 2776 0084 907F0004 		stw 3,4(31)
 2777              	.LVL201:
 2778              	.LBB3520:
 2779              	.LBB3518:
 2780              	.LBB3516:
 2781              	.LBB3514:
 2782              	.LBB3512:
 2783              	.LBB3510:
 2784              	.LBB3508:
 2785              	.LBB3506:
 2786              	.LBB3504:
 2787              	.LBB3502:
 2788              	.LBB3500:
 2789              		.loc 7 365 0
 2790 0088 409E01CC 		bne- 7,.L110
 2791 008c 3BC00000 		li 30,0
 2792              	.LVL202:
 2793              	.L111:
 2794              	.LBE3500:
 2795              	.LBE3502:
 2796              	.LBE3504:
 2797              	.LBE3506:
 2798              	.LBE3508:
 2799              	.LBE3510:
 2800              	.LBE3512:
 2801              	.LBE3514:
 2802              	.LBE3516:
 2803              	.LBE3518:
 2804              	.LBE3520:
 2805              	.LBB3521:
 2806              	.LBB3522:
 2807              	.LBB3523:
 2808              		.loc 7 686 0
 2809 0090 7F9BE800 		cmpw 7,27,29
 2810              	.LBE3523:
 2811              	.LBE3522:
 2812              	.LBE3521:
 2813              		.loc 6 410 0
 2814 0094 7C63F214 		add 3,3,30
 2815 0098 907F0004 		stw 3,4(31)
 2816              	.LVL203:
 2817              	.LBB3526:
 2818              	.LBB3525:
 2819              	.LBB3524:
 2820              		.loc 7 686 0
 2821 009c 419E0014 		beq- 7,.L101
 2822              	.LVL204:
 2823              	.L112:
 2824              		.loc 7 687 0
 2825 00a0 939D0000 		stw 28,0(29)
 2826 00a4 3BBD0004 		addi 29,29,4
 2827              		.loc 7 686 0
 2828 00a8 7F9BE800 		cmpw 7,27,29
 2829 00ac 409EFFF4 		bne+ 7,.L112
 2830              	.LVL205:
 2831              	.L101:
 2832              	.LBE3524:
 2833              	.LBE3525:
 2834              	.LBE3526:
 2835              	.LBE3447:
 2836              	.LBE3446:
 2837              	.LBE3740:
 2838              		.loc 6 464 0
 2839 00b0 8001002C 		lwz 0,44(1)
 2840 00b4 83410010 		lwz 26,16(1)
 2841 00b8 7C0803A6 		mtlr 0
 2842 00bc 83610014 		lwz 27,20(1)
 2843 00c0 83810018 		lwz 28,24(1)
 2844 00c4 83A1001C 		lwz 29,28(1)
 2845 00c8 83C10020 		lwz 30,32(1)
 2846 00cc 83E10024 		lwz 31,36(1)
 2847              	.LVL206:
 2848 00d0 38210028 		addi 1,1,40
 2849              		.cfi_remember_state
 2850              	.LCFI15:
 2851              		.cfi_def_cfa_offset 0
 2852              		.cfi_restore 31
 2853              		.cfi_restore 30
 2854              		.cfi_restore 29
 2855              		.cfi_restore 28
 2856              		.cfi_restore 27
 2857              		.cfi_restore 26
 2858 00d4 4E800020 		blr
 2859              	.LVL207:
 2860              	.L103:
 2861              	.LCFI16:
 2862              		.cfi_restore_state
 2863              	.LBB3741:
 2864              	.LBB3736:
 2865              	.LBB3556:
 2866              	.LBB3557:
 2867              		.loc 1 143 0
 2868 00d8 80830000 		lwz 4,0(3)
 2869              	.LBB3558:
 2870              		.loc 2 1241 0
 2871 00dc 3C003FFF 		lis 0,0x3fff
 2872 00e0 6000FFFF 		ori 0,0,65535
 2873              	.LBB3559:
 2874              	.LBB3560:
 2875              		.loc 2 571 0
 2876 00e4 7F64D850 		subf 27,4,27
 2877 00e8 7F7B1670 		srawi 27,27,2
 2878              	.LBE3560:
 2879              	.LBE3559:
 2880              		.loc 2 1241 0
 2881 00ec 7C1B0050 		subf 0,27,0
 2882 00f0 7F9E0040 		cmplw 7,30,0
 2883 00f4 419D01E8 		bgt- 7,.L131
 2884              	.LVL208:
 2885              		.loc 2 1244 0
 2886 00f8 7F9BF040 		cmplw 7,27,30
 2887 00fc 7F60DB78 		mr 0,27
 2888 0100 419C00CC 		blt- 7,.L132
 2889 0104 7C00DA14 		add 0,0,27
 2890              	.LVL209:
 2891              		.loc 2 1245 0
 2892 0108 7F9B0040 		cmplw 7,27,0
 2893 010c 409D00D0 		ble- 7,.L133
 2894              	.L115:
 2895              	.LVL210:
 2896              	.LBE3558:
 2897              	.LBE3557:
 2898              	.LBB3563:
 2899              	.LBB3564:
 2900              		.loc 5 892 0
 2901 0110 7C84E850 		subf 4,4,29
 2902              	.LBE3564:
 2903              	.LBE3563:
 2904              		.loc 6 418 0
 2905 0114 3B40FFFC 		li 26,-4
 2906              	.LBB3567:
 2907              	.LBB3565:
 2908              		.loc 5 892 0
 2909 0118 7C9B1670 		srawi 27,4,2
 2910              	.LVL211:
 2911              	.L121:
 2912              	.LBE3565:
 2913              	.LBE3567:
 2914              	.LBB3568:
 2915              	.LBB3569:
 2916              	.LBB3570:
 2917              	.LBB3571:
 2918              		.loc 8 92 0
 2919 011c 7F43D378 		mr 3,26
 2920              	.LVL212:
 2921 0120 90C10008 		stw 6,8(1)
 2922 0124 48000001 		bl _Znwj
 2923              	.LVL213:
 2924 0128 809F0000 		lwz 4,0(31)
 2925 012c 80C10008 		lwz 6,8(1)
 2926 0130 7C7C1B78 		mr 28,3
 2927 0134 7D24E850 		subf 9,4,29
 2928              	.L116:
 2929              	.LVL214:
 2930              	.LBE3571:
 2931              	.LBE3570:
 2932              	.LBE3569:
 2933              	.LBE3568:
 2934              		.loc 6 424 0
 2935 0138 577B103A 		slwi 27,27,2
 2936              	.LVL215:
 2937              	.LBB3580:
 2938              	.LBB3576:
 2939              	.LBB3574:
 2940              	.LBB3572:
 2941              		.loc 1 143 0
 2942 013c 80060000 		lwz 0,0(6)
 2943              	.LVL216:
 2944              	.LBE3572:
 2945              	.LBE3574:
 2946              	.LBE3576:
 2947              	.LBE3580:
 2948              		.loc 6 424 0
 2949 0140 7F7CDA14 		add 27,28,27
 2950              	.LBB3581:
 2951              	.LBB3577:
 2952              		.loc 6 377 0
 2953 0144 7FC903A6 		mtctr 30
 2954              	.LBB3575:
 2955              	.LBB3573:
 2956 0148 3B7BFFFC 		addi 27,27,-4
 2957              	.LVL217:
 2958              	.L117:
 2959              	.LBE3573:
 2960              	.LBE3575:
 2961              	.LBE3577:
 2962              	.LBE3581:
 2963              	.LBB3582:
 2964              	.LBB3583:
 2965              	.LBB3584:
 2966              	.LBB3585:
 2967              	.LBB3586:
 2968              	.LBB3587:
 2969              	.LBB3588:
 2970              	.LBB3589:
 2971              		.loc 7 745 0
 2972 014c 941B0004 		stwu 0,4(27)
 2973              		.loc 7 743 0
 2974 0150 4200FFFC 		bdnz .L117
 2975              	.LVL218:
 2976              	.LBE3589:
 2977              	.LBE3588:
 2978              	.LBE3587:
 2979              	.LBE3586:
 2980              	.LBE3585:
 2981              	.LBE3584:
 2982              	.LBE3583:
 2983              	.LBE3582:
 2984              	.LBB3590:
 2985              	.LBB3591:
 2986              	.LBB3592:
 2987              	.LBB3593:
 2988              	.LBB3594:
 2989              	.LBB3595:
 2990              	.LBB3596:
 2991              	.LBB3597:
 2992              	.LBB3598:
 2993              	.LBB3599:
 2994              	.LBB3600:
 2995              		.loc 7 365 0
 2996 0154 7D291671 		srawi. 9,9,2
 2997              	.LVL219:
 2998 0158 3B600000 		li 27,0
 2999 015c 408200B0 		bne- 0,.L134
 3000              	.LBE3600:
 3001              	.LBE3599:
 3002              	.LBE3598:
 3003              	.LBE3597:
 3004              	.LBE3596:
 3005              	.LBE3595:
 3006              	.LBE3594:
 3007              	.LBE3593:
 3008              	.LBE3592:
 3009              	.LBE3591:
 3010              	.LBE3590:
 3011              	.LBB3641:
 3012              	.LBB3642:
 3013              	.LBB3643:
 3014              	.LBB3644:
 3015              	.LBB3645:
 3016              	.LBB3646:
 3017              	.LBB3647:
 3018              	.LBB3648:
 3019              	.LBB3649:
 3020              	.LBB3650:
 3021              	.LBB3651:
 3022              		.loc 7 364 0
 3023 0160 801F0004 		lwz 0,4(31)
 3024              	.LBE3651:
 3025              	.LBE3650:
 3026              	.LBE3649:
 3027              	.LBE3648:
 3028              	.LBE3647:
 3029              	.LBE3646:
 3030              	.LBE3645:
 3031              	.LBE3644:
 3032              	.LBE3643:
 3033              	.LBE3642:
 3034              	.LBE3641:
 3035              	.LBB3712:
 3036              	.LBB3637:
 3037              	.LBB3633:
 3038              	.LBB3629:
 3039              	.LBB3625:
 3040              	.LBB3621:
 3041              	.LBB3617:
 3042              	.LBB3613:
 3043              	.LBB3609:
 3044              	.LBB3605:
 3045              	.LBB3601:
 3046              		.loc 7 367 0
 3047 0164 7F7CDA14 		add 27,28,27
 3048              	.LVL220:
 3049              	.LBE3601:
 3050              	.LBE3605:
 3051              	.LBE3609:
 3052              	.LBE3613:
 3053              	.LBE3617:
 3054              	.LBE3621:
 3055              	.LBE3625:
 3056              	.LBE3629:
 3057              	.LBE3633:
 3058              	.LBE3637:
 3059              	.LBE3712:
 3060              		.loc 6 434 0
 3061 0168 57DE103A 		slwi 30,30,2
 3062              	.LVL221:
 3063              	.LBB3713:
 3064              	.LBB3706:
 3065              	.LBB3700:
 3066              	.LBB3694:
 3067              	.LBB3688:
 3068              	.LBB3682:
 3069              	.LBB3676:
 3070              	.LBB3670:
 3071              	.LBB3664:
 3072              	.LBB3658:
 3073              	.LBB3652:
 3074              		.loc 7 364 0
 3075 016c 7C1D0050 		subf 0,29,0
 3076              	.LBE3652:
 3077              	.LBE3658:
 3078              	.LBE3664:
 3079              	.LBE3670:
 3080              	.LBE3676:
 3081              	.LBE3682:
 3082              	.LBE3688:
 3083              	.LBE3694:
 3084              	.LBE3700:
 3085              	.LBE3706:
 3086              	.LBE3713:
 3087              		.loc 6 434 0
 3088 0170 7FDBF214 		add 30,27,30
 3089              	.LVL222:
 3090              	.LBB3714:
 3091              	.LBB3707:
 3092              	.LBB3701:
 3093              	.LBB3695:
 3094              	.LBB3689:
 3095              	.LBB3683:
 3096              	.LBB3677:
 3097              	.LBB3671:
 3098              	.LBB3665:
 3099              	.LBB3659:
 3100              	.LBB3653:
 3101              		.loc 7 365 0
 3102 0174 7C001671 		srawi. 0,0,2
 3103              	.LVL223:
 3104 0178 3B600000 		li 27,0
 3105 017c 408200C0 		bne- 0,.L135
 3106              	.LVL224:
 3107              	.L119:
 3108              	.LBE3653:
 3109              	.LBE3659:
 3110              	.LBE3665:
 3111              	.LBE3671:
 3112              	.LBE3677:
 3113              	.LBE3683:
 3114              	.LBE3689:
 3115              	.LBE3695:
 3116              	.LBE3701:
 3117              	.LBE3707:
 3118              	.LBE3714:
 3119              		.loc 6 456 0
 3120 0180 807F0000 		lwz 3,0(31)
 3121              	.LBB3715:
 3122              	.LBB3708:
 3123              	.LBB3702:
 3124              	.LBB3696:
 3125              	.LBB3690:
 3126              	.LBB3684:
 3127              	.LBB3678:
 3128              	.LBB3672:
 3129              	.LBB3666:
 3130              	.LBB3660:
 3131              	.LBB3654:
 3132              		.loc 7 367 0
 3133 0184 7F7EDA14 		add 27,30,27
 3134              	.LVL225:
 3135              	.LBE3654:
 3136              	.LBE3660:
 3137              	.LBE3666:
 3138              	.LBE3672:
 3139              	.LBE3678:
 3140              	.LBE3684:
 3141              	.LBE3690:
 3142              	.LBE3696:
 3143              	.LBE3702:
 3144              	.LBE3708:
 3145              	.LBE3715:
 3146              	.LBB3716:
 3147              	.LBB3717:
 3148              		.loc 2 155 0
 3149 0188 2F830000 		cmpwi 7,3,0
 3150 018c 419E0008 		beq- 7,.L120
 3151              	.LVL226:
 3152              	.LBB3718:
 3153              	.LBB3719:
 3154              		.loc 8 98 0
 3155 0190 48000001 		bl _ZdlPv
 3156              	.LVL227:
 3157              	.L120:
 3158              	.LBE3719:
 3159              	.LBE3718:
 3160              	.LBE3717:
 3161              	.LBE3716:
 3162              	.LBE3556:
 3163              	.LBE3736:
 3164              	.LBE3741:
 3165              		.loc 6 464 0
 3166 0194 8001002C 		lwz 0,44(1)
 3167              	.LBB3742:
 3168              	.LBB3737:
 3169              	.LBB3731:
 3170              		.loc 6 461 0
 3171 0198 7F5CD214 		add 26,28,26
 3172              		.loc 6 459 0
 3173 019c 939F0000 		stw 28,0(31)
 3174              	.LBE3731:
 3175              	.LBE3737:
 3176              	.LBE3742:
 3177              		.loc 6 464 0
 3178 01a0 7C0803A6 		mtlr 0
 3179              	.LBB3743:
 3180              	.LBB3738:
 3181              	.LBB3732:
 3182              		.loc 6 460 0
 3183 01a4 937F0004 		stw 27,4(31)
 3184              		.loc 6 461 0
 3185 01a8 935F0008 		stw 26,8(31)
 3186              	.LBE3732:
 3187              	.LBE3738:
 3188              	.LBE3743:
 3189              		.loc 6 464 0
 3190 01ac 83610014 		lwz 27,20(1)
 3191 01b0 83410010 		lwz 26,16(1)
 3192 01b4 83810018 		lwz 28,24(1)
 3193              	.LVL228:
 3194 01b8 83A1001C 		lwz 29,28(1)
 3195              	.LVL229:
 3196 01bc 83C10020 		lwz 30,32(1)
 3197              	.LVL230:
 3198 01c0 83E10024 		lwz 31,36(1)
 3199              	.LVL231:
 3200 01c4 38210028 		addi 1,1,40
 3201              		.cfi_remember_state
 3202              		.cfi_restore 26
 3203              		.cfi_restore 27
 3204              		.cfi_restore 28
 3205              		.cfi_restore 29
 3206              		.cfi_restore 30
 3207              		.cfi_restore 31
 3208              	.LCFI17:
 3209              		.cfi_def_cfa_offset 0
 3210 01c8 4E800020 		blr
 3211              	.LVL232:
 3212              	.L132:
 3213              	.LCFI18:
 3214              		.cfi_restore_state
 3215              	.LBB3744:
 3216              	.LBB3739:
 3217              	.LBB3733:
 3218              	.LBB3720:
 3219              	.LBB3561:
 3220              		.loc 2 1244 0
 3221 01cc 7FC0F378 		mr 0,30
 3222 01d0 7C00DA14 		add 0,0,27
 3223              	.LVL233:
 3224              		.loc 2 1245 0
 3225 01d4 7F9B0040 		cmplw 7,27,0
 3226 01d8 41BDFF38 		bgt- 7,.L115
 3227              	.L133:
 3228              	.LVL234:
 3229 01dc 3D203FFF 		lis 9,0x3fff
 3230 01e0 6129FFFF 		ori 9,9,65535
 3231 01e4 7F804840 		cmplw 7,0,9
 3232 01e8 41BDFF28 		bgt- 7,.L115
 3233              	.LVL235:
 3234              	.LBE3561:
 3235              	.LBE3720:
 3236              	.LBB3721:
 3237              	.LBB3578:
 3238              		.loc 2 150 0
 3239 01ec 2F800000 		cmpwi 7,0,0
 3240              	.LBE3578:
 3241              	.LBE3721:
 3242              	.LBB3722:
 3243              	.LBB3566:
 3244              		.loc 5 892 0
 3245 01f0 7D24E850 		subf 9,4,29
 3246 01f4 7D3B1670 		srawi 27,9,2
 3247              	.LVL236:
 3248              	.LBE3566:
 3249              	.LBE3722:
 3250              	.LBB3723:
 3251              	.LBB3579:
 3252              		.loc 2 150 0
 3253 01f8 3B400000 		li 26,0
 3254 01fc 3B800000 		li 28,0
 3255 0200 419EFF38 		beq+ 7,.L116
 3256 0204 541A103A 		slwi 26,0,2
 3257 0208 4BFFFF14 		b .L121
 3258              	.LVL237:
 3259              	.L134:
 3260              	.LBE3579:
 3261              	.LBE3723:
 3262              	.LBB3724:
 3263              	.LBB3638:
 3264              	.LBB3634:
 3265              	.LBB3630:
 3266              	.LBB3626:
 3267              	.LBB3622:
 3268              	.LBB3618:
 3269              	.LBB3614:
 3270              	.LBB3610:
 3271              	.LBB3606:
 3272              	.LBB3602:
 3273              		.loc 7 366 0
 3274 020c 553B103A 		slwi 27,9,2
 3275 0210 7F83E378 		mr 3,28
 3276 0214 7F65DB78 		mr 5,27
 3277              	.LBE3602:
 3278              	.LBE3606:
 3279              	.LBE3610:
 3280              	.LBE3614:
 3281              	.LBE3618:
 3282              	.LBE3622:
 3283              	.LBE3626:
 3284              	.LBE3630:
 3285              	.LBE3634:
 3286              	.LBE3638:
 3287              	.LBE3724:
 3288              		.loc 6 434 0
 3289 0218 57DE103A 		slwi 30,30,2
 3290              	.LVL238:
 3291              	.LBB3725:
 3292              	.LBB3639:
 3293              	.LBB3635:
 3294              	.LBB3631:
 3295              	.LBB3627:
 3296              	.LBB3623:
 3297              	.LBB3619:
 3298              	.LBB3615:
 3299              	.LBB3611:
 3300              	.LBB3607:
 3301              	.LBB3603:
 3302              		.loc 7 366 0
 3303 021c 48000001 		bl memmove
 3304              	.LVL239:
 3305              	.LBE3603:
 3306              	.LBE3607:
 3307              	.LBE3611:
 3308              	.LBE3615:
 3309              	.LBE3619:
 3310              	.LBE3623:
 3311              	.LBE3627:
 3312              	.LBE3631:
 3313              	.LBE3635:
 3314              	.LBE3639:
 3315              	.LBE3725:
 3316              	.LBB3726:
 3317              	.LBB3709:
 3318              	.LBB3703:
 3319              	.LBB3697:
 3320              	.LBB3691:
 3321              	.LBB3685:
 3322              	.LBB3679:
 3323              	.LBB3673:
 3324              	.LBB3667:
 3325              	.LBB3661:
 3326              	.LBB3655:
 3327              		.loc 7 364 0
 3328 0220 801F0004 		lwz 0,4(31)
 3329              	.LBE3655:
 3330              	.LBE3661:
 3331              	.LBE3667:
 3332              	.LBE3673:
 3333              	.LBE3679:
 3334              	.LBE3685:
 3335              	.LBE3691:
 3336              	.LBE3697:
 3337              	.LBE3703:
 3338              	.LBE3709:
 3339              	.LBE3726:
 3340              	.LBB3727:
 3341              	.LBB3640:
 3342              	.LBB3636:
 3343              	.LBB3632:
 3344              	.LBB3628:
 3345              	.LBB3624:
 3346              	.LBB3620:
 3347              	.LBB3616:
 3348              	.LBB3612:
 3349              	.LBB3608:
 3350              	.LBB3604:
 3351              		.loc 7 367 0
 3352 0224 7F7CDA14 		add 27,28,27
 3353              	.LVL240:
 3354              	.LBE3604:
 3355              	.LBE3608:
 3356              	.LBE3612:
 3357              	.LBE3616:
 3358              	.LBE3620:
 3359              	.LBE3624:
 3360              	.LBE3628:
 3361              	.LBE3632:
 3362              	.LBE3636:
 3363              	.LBE3640:
 3364              	.LBE3727:
 3365              	.LBB3728:
 3366              	.LBB3710:
 3367              	.LBB3704:
 3368              	.LBB3698:
 3369              	.LBB3692:
 3370              	.LBB3686:
 3371              	.LBB3680:
 3372              	.LBB3674:
 3373              	.LBB3668:
 3374              	.LBB3662:
 3375              	.LBB3656:
 3376              		.loc 7 364 0
 3377 0228 7C1D0050 		subf 0,29,0
 3378              	.LBE3656:
 3379              	.LBE3662:
 3380              	.LBE3668:
 3381              	.LBE3674:
 3382              	.LBE3680:
 3383              	.LBE3686:
 3384              	.LBE3692:
 3385              	.LBE3698:
 3386              	.LBE3704:
 3387              	.LBE3710:
 3388              	.LBE3728:
 3389              		.loc 6 434 0
 3390 022c 7FDBF214 		add 30,27,30
 3391              	.LVL241:
 3392              	.LBB3729:
 3393              	.LBB3711:
 3394              	.LBB3705:
 3395              	.LBB3699:
 3396              	.LBB3693:
 3397              	.LBB3687:
 3398              	.LBB3681:
 3399              	.LBB3675:
 3400              	.LBB3669:
 3401              	.LBB3663:
 3402              	.LBB3657:
 3403              		.loc 7 365 0
 3404 0230 7C001671 		srawi. 0,0,2
 3405              	.LVL242:
 3406 0234 3B600000 		li 27,0
 3407 0238 4182FF48 		beq+ 0,.L119
 3408              	.LVL243:
 3409              	.L135:
 3410              		.loc 7 366 0
 3411 023c 541B103A 		slwi 27,0,2
 3412 0240 7FC3F378 		mr 3,30
 3413 0244 7FA4EB78 		mr 4,29
 3414 0248 7F65DB78 		mr 5,27
 3415 024c 48000001 		bl memmove
 3416 0250 4BFFFF30 		b .L119
 3417              	.LVL244:
 3418              	.L110:
 3419              	.LBE3657:
 3420              	.LBE3663:
 3421              	.LBE3669:
 3422              	.LBE3675:
 3423              	.LBE3681:
 3424              	.LBE3687:
 3425              	.LBE3693:
 3426              	.LBE3699:
 3427              	.LBE3705:
 3428              	.LBE3711:
 3429              	.LBE3729:
 3430              	.LBE3733:
 3431              	.LBB3734:
 3432              	.LBB3527:
 3433              	.LBB3519:
 3434              	.LBB3517:
 3435              	.LBB3515:
 3436              	.LBB3513:
 3437              	.LBB3511:
 3438              	.LBB3509:
 3439              	.LBB3507:
 3440              	.LBB3505:
 3441              	.LBB3503:
 3442              	.LBB3501:
 3443 0254 541E103A 		slwi 30,0,2
 3444 0258 7FA4EB78 		mr 4,29
 3445 025c 7FC5F378 		mr 5,30
 3446              	.LVL245:
 3447 0260 48000001 		bl memmove
 3448              	.LVL246:
 3449 0264 807F0004 		lwz 3,4(31)
 3450 0268 4BFFFE28 		b .L111
 3451              	.LVL247:
 3452              	.L130:
 3453              	.LBE3501:
 3454              	.LBE3503:
 3455              	.LBE3505:
 3456              	.LBE3507:
 3457              	.LBE3509:
 3458              	.LBE3511:
 3459              	.LBE3513:
 3460              	.LBE3515:
 3461              	.LBE3517:
 3462              	.LBE3519:
 3463              	.LBE3527:
 3464              		.loc 6 390 0
 3465 026c 57DE103A 		slwi 30,30,2
 3466              	.LVL248:
 3467              	.LBB3528:
 3468              	.LBB3487:
 3469              	.LBB3486:
 3470              	.LBB3485:
 3471              	.LBB3484:
 3472              	.LBB3483:
 3473              	.LBB3482:
 3474              	.LBB3481:
 3475              	.LBB3480:
 3476              	.LBB3479:
 3477              	.LBB3478:
 3478              		.loc 6 382 0
 3479 0270 7F60DB78 		mr 0,27
 3480              	.LVL249:
 3481              		.loc 7 365 0
 3482 0274 7FC51671 		srawi. 5,30,2
 3483              	.LVL250:
 3484              		.loc 7 364 0
 3485 0278 7F5ED850 		subf 26,30,27
 3486              		.loc 7 365 0
 3487 027c 41A20018 		beq+ 0,.L105
 3488              		.loc 7 366 0
 3489 0280 7F63DB78 		mr 3,27
 3490 0284 7F44D378 		mr 4,26
 3491 0288 54A5103A 		slwi 5,5,2
 3492 028c 48000001 		bl memmove
 3493              	.LVL251:
 3494 0290 801F0004 		lwz 0,4(31)
 3495              	.L105:
 3496              	.LBE3478:
 3497              	.LBE3479:
 3498              	.LBE3480:
 3499              	.LBE3481:
 3500              	.LBE3482:
 3501              	.LBE3483:
 3502              	.LBE3484:
 3503              	.LBE3485:
 3504              	.LBE3486:
 3505              	.LBE3487:
 3506              	.LBE3528:
 3507              	.LBB3529:
 3508              	.LBB3530:
 3509              	.LBB3531:
 3510              	.LBB3532:
 3511              	.LBB3533:
 3512              	.LBB3534:
 3513              		.loc 7 559 0
 3514 0294 7F5DD050 		subf 26,29,26
 3515              	.LBE3534:
 3516              	.LBE3533:
 3517              	.LBE3532:
 3518              	.LBE3531:
 3519              	.LBE3530:
 3520              	.LBE3529:
 3521              		.loc 6 394 0
 3522 0298 7C00F214 		add 0,0,30
 3523              	.LBB3550:
 3524              	.LBB3547:
 3525              	.LBB3544:
 3526              	.LBB3541:
 3527              	.LBB3538:
 3528              	.LBB3535:
 3529              		.loc 7 560 0
 3530 029c 7F5A1671 		srawi. 26,26,2
 3531              	.LBE3535:
 3532              	.LBE3538:
 3533              	.LBE3541:
 3534              	.LBE3544:
 3535              	.LBE3547:
 3536              	.LBE3550:
 3537              		.loc 6 394 0
 3538 02a0 901F0004 		stw 0,4(31)
 3539              	.LVL252:
 3540              	.LBB3551:
 3541              	.LBB3548:
 3542              	.LBB3545:
 3543              	.LBB3542:
 3544              	.LBB3539:
 3545              	.LBB3536:
 3546              		.loc 7 560 0
 3547 02a4 40820024 		bne- 0,.L136
 3548              	.L106:
 3549              	.LVL253:
 3550              	.LBE3536:
 3551              	.LBE3539:
 3552              	.LBE3542:
 3553              	.LBE3545:
 3554              	.LBE3548:
 3555              	.LBE3551:
 3556              		.loc 6 397 0
 3557 02a8 7FDDF214 		add 30,29,30
 3558              	.LVL254:
 3559              	.LBB3552:
 3560              	.LBB3553:
 3561              	.LBB3554:
 3562              		.loc 7 686 0
 3563 02ac 7F9EE800 		cmpw 7,30,29
 3564 02b0 41BEFE00 		beq- 7,.L101
 3565              	.LVL255:
 3566              	.L107:
 3567              		.loc 7 687 0
 3568 02b4 939D0000 		stw 28,0(29)
 3569 02b8 3BBD0004 		addi 29,29,4
 3570              		.loc 7 686 0
 3571 02bc 7F9EE800 		cmpw 7,30,29
 3572 02c0 409EFFF4 		bne+ 7,.L107
 3573 02c4 4BFFFDEC 		b .L101
 3574              	.LVL256:
 3575              	.L136:
 3576              	.LBE3554:
 3577              	.LBE3553:
 3578              	.LBE3552:
 3579              	.LBB3555:
 3580              	.LBB3549:
 3581              	.LBB3546:
 3582              	.LBB3543:
 3583              	.LBB3540:
 3584              	.LBB3537:
 3585              		.loc 7 561 0
 3586 02c8 5745103A 		slwi 5,26,2
 3587 02cc 7FA4EB78 		mr 4,29
 3588 02d0 7C65D850 		subf 3,5,27
 3589 02d4 48000001 		bl memmove
 3590 02d8 4BFFFFD0 		b .L106
 3591              	.LVL257:
 3592              	.L131:
 3593              	.LBE3537:
 3594              	.LBE3540:
 3595              	.LBE3543:
 3596              	.LBE3546:
 3597              	.LBE3549:
 3598              	.LBE3555:
 3599              	.LBE3734:
 3600              	.LBB3735:
 3601              	.LBB3730:
 3602              	.LBB3562:
 3603              		.loc 2 1242 0
 3604 02dc 3C600000 		lis 3,.LC0@ha
 3605 02e0 38630000 		la 3,.LC0@l(3)
 3606 02e4 48000001 		bl _ZSt20__throw_length_errorPKc
 3607              	.LVL258:
 3608              	.LVL259:
 3609              	.LVL260:
 3610              	.LBE3562:
 3611              	.LBE3730:
 3612              	.LBE3735:
 3613              	.LBE3739:
 3614              	.LBE3744:
 3615              		.cfi_endproc
 3616              	.LFE589:
 3617              		.size	_ZNSt6vectorIjSaIjEE14_M_fill_insertEN9__gnu_cxx17__normal_iteratorIPjS1_EEjRKj, .-_ZNSt6vec
 3618              		.section	".text"
 3619              		.align 2
 3620              		.globl _ZN12BufferCircle6ResizeEi
 3621              		.type	_ZN12BufferCircle6ResizeEi, @function
 3622              	_ZN12BufferCircle6ResizeEi:
 3623              	.LFB463:
 3624              		.loc 1 63 0
 3625              		.cfi_startproc
 3626              	.LVL261:
 3627 05b0 7C0802A6 		mflr 0
 3628 05b4 9421FFC0 		stwu 1,-64(1)
 3629              	.LCFI19:
 3630              		.cfi_def_cfa_offset 64
 3631              		.cfi_register 65, 0
 3632 05b8 93C10038 		stw 30,56(1)
 3633 05bc 90010044 		stw 0,68(1)
 3634 05c0 93A10034 		stw 29,52(1)
 3635 05c4 7C9D2378 		mr 29,4
 3636              		.cfi_offset 29, -12
 3637              		.cfi_offset 65, 4
 3638              		.cfi_offset 30, -8
 3639              	.LBB4206:
 3640              	.LBB4207:
 3641              		.loc 1 143 0
 3642 05c8 80030008 		lwz 0,8(3)
 3643 05cc 8123000C 		lwz 9,12(3)
 3644              	.LBE4207:
 3645              	.LBE4206:
 3646              		.loc 1 63 0
 3647 05d0 93E1003C 		stw 31,60(1)
 3648 05d4 7C7F1B78 		mr 31,3
 3649              		.cfi_offset 31, -4
 3650              	.LVL262:
 3651              	.LBB4978:
 3652              	.LBB4214:
 3653              	.LBB4208:
 3654              	.LBB4209:
 3655              		.loc 2 571 0
 3656 05d8 7FC04850 		subf 30,0,9
 3657              	.LBE4209:
 3658              	.LBE4208:
 3659              	.LBE4214:
 3660              	.LBE4978:
 3661              		.loc 1 63 0
 3662 05dc 93010020 		stw 24,32(1)
 3663              	.LBB4979:
 3664              	.LBB4215:
 3665              	.LBB4212:
 3666              	.LBB4210:
 3667              		.loc 2 571 0
 3668 05e0 7FDE1670 		srawi 30,30,2
 3669              	.LBE4210:
 3670              	.LBE4212:
 3671              	.LBE4215:
 3672              	.LBE4979:
 3673              		.loc 1 63 0
 3674 05e4 93210024 		stw 25,36(1)
 3675              	.LBB4980:
 3676              		.loc 1 64 0
 3677 05e8 7F84F000 		cmpw 7,4,30
 3678              	.LBE4980:
 3679              		.loc 1 63 0
 3680 05ec 93410028 		stw 26,40(1)
 3681 05f0 9361002C 		stw 27,44(1)
 3682 05f4 93810030 		stw 28,48(1)
 3683              	.LBB4981:
 3684              		.loc 1 64 0
 3685 05f8 409C0028 		bge- 7,.L139
 3686              		.cfi_offset 28, -16
 3687              		.cfi_offset 27, -20
 3688              		.cfi_offset 26, -24
 3689              		.cfi_offset 25, -28
 3690              		.cfi_offset 24, -32
 3691              	.LVL263:
 3692              	.L227:
 3693              		.loc 1 65 0
 3694 05fc 389EFFFF 		addi 4,30,-1
 3695 0600 7FE3FB78 		mr 3,31
 3696 0604 48000001 		bl _ZN12BufferCircle12RemoveBufferEi
 3697              	.LBB4216:
 3698              		.loc 1 143 0
 3699 0608 801F0008 		lwz 0,8(31)
 3700 060c 813F000C 		lwz 9,12(31)
 3701              	.LBB4213:
 3702              	.LBB4211:
 3703              		.loc 2 571 0
 3704 0610 7FC04850 		subf 30,0,9
 3705 0614 7FDE1670 		srawi 30,30,2
 3706              	.LBE4211:
 3707              	.LBE4213:
 3708              	.LBE4216:
 3709              		.loc 1 64 0
 3710 0618 7F9DF000 		cmpw 7,29,30
 3711 061c 419CFFE0 		blt+ 7,.L227
 3712              	.LVL264:
 3713              	.L139:
 3714              	.LBB4217:
 3715              	.LBB4218:
 3716              		.loc 2 631 0
 3717 0620 7F9DF040 		cmplw 7,29,30
 3718              	.LBE4218:
 3719              	.LBE4217:
 3720              		.loc 1 69 0
 3721 0624 39600000 		li 11,0
 3722 0628 9161000C 		stw 11,12(1)
 3723              	.LVL265:
 3724              	.LBB4238:
 3725              	.LBB4231:
 3726              		.loc 2 631 0
 3727 062c 419D0298 		bgt- 7,.L254
 3728              		.loc 2 633 0
 3729 0630 419C024C 		blt- 7,.L255
 3730              	.L142:
 3731              	.LVL266:
 3732              	.LBE4231:
 3733              	.LBE4238:
 3734              	.LBB4239:
 3735              		.loc 1 143 0
 3736 0634 801F0014 		lwz 0,20(31)
 3737              	.LBE4239:
 3738              	.LBB4253:
 3739              	.LBB4232:
 3740              	.LBB4219:
 3741              	.LBB4220:
 3742              		.loc 2 1256 0
 3743 0638 39600000 		li 11,0
 3744              	.LBE4220:
 3745              	.LBE4219:
 3746              	.LBE4232:
 3747              	.LBE4253:
 3748              	.LBB4254:
 3749              		.loc 1 143 0
 3750 063c 813F0018 		lwz 9,24(31)
 3751              	.LBE4254:
 3752              	.LBB4255:
 3753              	.LBB4233:
 3754              	.LBB4225:
 3755              	.LBB4221:
 3756              		.loc 2 1256 0
 3757 0640 91610008 		stw 11,8(1)
 3758              	.LVL267:
 3759              	.LBE4221:
 3760              	.LBE4225:
 3761              	.LBE4233:
 3762              	.LBE4255:
 3763              	.LBB4256:
 3764              	.LBB4240:
 3765              	.LBB4241:
 3766              	.LBB4242:
 3767              		.loc 2 571 0
 3768 0644 7CA04850 		subf 5,0,9
 3769 0648 7CA51670 		srawi 5,5,2
 3770              	.LBE4242:
 3771              	.LBE4241:
 3772              		.loc 2 631 0
 3773 064c 7F9D2840 		cmplw 7,29,5
 3774 0650 419D0258 		bgt- 7,.L256
 3775              	.LVL268:
 3776              	.L143:
 3777              		.loc 2 633 0
 3778 0654 419C0118 		blt- 7,.L257
 3779              	.L144:
 3780              	.LVL269:
 3781              	.LBE4240:
 3782              	.LBE4256:
 3783              	.LBB4257:
 3784              	.LBB4258:
 3785              	.LBB4259:
 3786              	.LBB4260:
 3787              	.LBB4261:
 3788              	.LBB4262:
 3789              		.loc 3 282 0
 3790 0658 839F0028 		lwz 28,40(31)
 3791              	.LBE4262:
 3792              	.LBE4261:
 3793              	.LBE4260:
 3794              	.LBB4269:
 3795              	.LBB4270:
 3796              	.LBB4271:
 3797 065c 817F0020 		lwz 11,32(31)
 3798              	.LBE4271:
 3799              	.LBE4270:
 3800              	.LBE4269:
 3801              	.LBB4278:
 3802              	.LBB4266:
 3803              	.LBB4263:
 3804 0660 837F002C 		lwz 27,44(31)
 3805              	.LVL270:
 3806              	.LBE4263:
 3807              	.LBE4266:
 3808              	.LBE4278:
 3809              	.LBB4279:
 3810              	.LBB4275:
 3811              	.LBB4272:
 3812 0664 813F0024 		lwz 9,36(31)
 3813              	.LVL271:
 3814              	.LBE4272:
 3815              	.LBE4275:
 3816              	.LBE4279:
 3817              	.LBB4280:
 3818              	.LBB4281:
 3819              		.loc 3 184 0
 3820 0668 7C0BE050 		subf 0,11,28
 3821 066c 54001838 		slwi 0,0,3
 3822 0670 7D49D850 		subf 10,9,27
 3823 0674 7C0A0214 		add 0,10,0
 3824              	.LBE4281:
 3825              	.LBE4280:
 3826              	.LBE4259:
 3827              		.loc 3 832 0
 3828 0678 7F9D0040 		cmplw 7,29,0
 3829 067c 409C0124 		bge- 7,.L145
 3830              	.LVL272:
 3831              	.L259:
 3832              	.LBB4288:
 3833              	.LBB4289:
 3834              	.LBB4290:
 3835              	.LBB4291:
 3836              	.LBB4292:
 3837              		.loc 3 141 0
 3838 0680 7D3D4A14 		add 9,29,9
 3839              	.LVL273:
 3840              		.loc 3 142 0
 3841 0684 7D202E70 		srawi 0,9,5
 3842 0688 7C000194 		addze 0,0
 3843              		.loc 3 143 0
 3844 068c 540A2834 		slwi 10,0,5
 3845              		.loc 3 144 0
 3846 0690 7D2A4851 		subf. 9,10,9
 3847              	.LVL274:
 3848              		.loc 3 142 0
 3849 0694 5400103A 		slwi 0,0,2
 3850 0698 7D6B0214 		add 11,11,0
 3851              	.LVL275:
 3852              		.loc 3 144 0
 3853 069c 4180026C 		blt- 0,.L258
 3854              	.L146:
 3855              	.LVL276:
 3856              	.LBE4292:
 3857              	.LBE4291:
 3858              	.LBE4290:
 3859              	.LBE4289:
 3860              	.LBE4288:
 3861              	.LBE4258:
 3862              		.loc 3 1032 0
 3863 06a0 917F0028 		stw 11,40(31)
 3864 06a4 913F002C 		stw 9,44(31)
 3865              	.LVL277:
 3866              	.L147:
 3867              	.LBE4257:
 3868              	.LBB4935:
 3869              	.LBB4936:
 3870              		.loc 1 143 0 discriminator 1
 3871 06a8 839F0008 		lwz 28,8(31)
 3872              	.LBB4937:
 3873              	.LBB4938:
 3874              		.loc 2 571 0 discriminator 1
 3875 06ac 801F000C 		lwz 0,12(31)
 3876 06b0 7C1C0050 		subf 0,28,0
 3877 06b4 7C001670 		srawi 0,0,2
 3878              	.LBE4938:
 3879              	.LBE4937:
 3880              	.LBE4936:
 3881              		.loc 1 73 0 discriminator 1
 3882 06b8 7F80F000 		cmpw 7,0,30
 3883 06bc 409D0080 		ble- 7,.L137
 3884              		.loc 1 73 0 is_stmt 0
 3885 06c0 57DD103A 		slwi 29,30,2
 3886 06c4 48000054 		b .L216
 3887              	.LVL278:
 3888              	.L214:
 3889              		.loc 1 78 0 is_stmt 1
 3890 06c8 7C9CE92E 		stwx 4,28,29
 3891              	.LVL279:
 3892              	.L215:
 3893              		.loc 1 79 0
 3894 06cc 813F0014 		lwz 9,20(31)
 3895 06d0 38000000 		li 0,0
 3896              	.LBB4945:
 3897              		.loc 1 143 0
 3898 06d4 839F0008 		lwz 28,8(31)
 3899              	.LBE4945:
 3900              	.LBB4946:
 3901              	.LBB4947:
 3902              		.loc 3 692 0
 3903 06d8 57CB06FE 		rlwinm 11,30,0,27,31
 3904              	.LBE4947:
 3905              	.LBE4946:
 3906              	.LBB4953:
 3907              	.LBB4942:
 3908              	.LBB4939:
 3909              		.loc 2 571 0
 3910 06dc 815F000C 		lwz 10,12(31)
 3911              	.LBE4939:
 3912              	.LBE4942:
 3913              	.LBE4953:
 3914              	.LBB4954:
 3915              	.LBB4950:
 3916              	.LBB4948:
 3917              	.LBB4949:
 3918              		.loc 3 200 0
 3919 06e0 3900FFFE 		li 8,-2
 3920              	.LBE4949:
 3921              	.LBE4948:
 3922              	.LBE4950:
 3923              	.LBE4954:
 3924              		.loc 1 79 0
 3925 06e4 7C09E92E 		stwx 0,9,29
 3926              	.LVL280:
 3927              	.LBB4955:
 3928              	.LBB4951:
 3929              		.loc 3 692 0
 3930 06e8 57C0E8FA 		rlwinm 0,30,29,3,29
 3931              	.LBE4951:
 3932              	.LBE4955:
 3933              	.LBB4956:
 3934              	.LBB4943:
 3935              	.LBB4940:
 3936              		.loc 2 571 0
 3937 06ec 7D5C5050 		subf 10,28,10
 3938              	.LBE4940:
 3939              	.LBE4943:
 3940              	.LBE4956:
 3941              		.loc 1 73 0
 3942 06f0 3BDE0001 		addi 30,30,1
 3943              	.LVL281:
 3944              	.LBB4957:
 3945              	.LBB4952:
 3946              		.loc 3 692 0
 3947 06f4 813F0020 		lwz 9,32(31)
 3948              	.LVL282:
 3949              	.LBE4952:
 3950              	.LBE4957:
 3951              	.LBB4958:
 3952              	.LBB4944:
 3953              	.LBB4941:
 3954              		.loc 2 571 0
 3955 06f8 7D4A1670 		srawi 10,10,2
 3956              	.LBE4941:
 3957              	.LBE4944:
 3958              	.LBE4958:
 3959              		.loc 1 73 0
 3960 06fc 7F9E5000 		cmpw 7,30,10
 3961              	.LBB4959:
 3962              	.LBB4960:
 3963              		.loc 3 88 0
 3964 0700 5D0B583E 		rlwnm 11,8,11,0xffffffff
 3965 0704 7D49002E 		lwzx 10,9,0
 3966              	.LBE4960:
 3967              	.LBE4959:
 3968              	.LBB4962:
 3969              		.loc 1 143 0
 3970 0708 3BBD0004 		addi 29,29,4
 3971              	.LBE4962:
 3972              	.LBB4963:
 3973              	.LBB4961:
 3974              		.loc 3 88 0
 3975 070c 7D4B5838 		and 11,10,11
 3976 0710 7D69012E 		stwx 11,9,0
 3977              	.LBE4961:
 3978              	.LBE4963:
 3979              		.loc 1 73 0
 3980 0714 409C0028 		bge- 7,.L137
 3981              	.LVL283:
 3982              	.L216:
 3983              		.loc 1 75 0
 3984 0718 809F0004 		lwz 4,4(31)
 3985 071c 2F840000 		cmpwi 7,4,0
 3986 0720 419EFFA8 		beq+ 7,.L214
 3987              	.LVL284:
 3988              		.loc 1 76 0
 3989 0724 3884001F 		addi 4,4,31
 3990 0728 38600020 		li 3,32
 3991 072c 54840034 		rlwinm 4,4,0,0,26
 3992 0730 48000001 		bl memalign
 3993 0734 7C7CE92E 		stwx 3,28,29
 3994 0738 4BFFFF94 		b .L215
 3995              	.LVL285:
 3996              	.L137:
 3997              	.LBE4935:
 3998              	.LBE4981:
 3999              		.loc 1 82 0
 4000 073c 80010044 		lwz 0,68(1)
 4001 0740 83010020 		lwz 24,32(1)
 4002 0744 7C0803A6 		mtlr 0
 4003 0748 83210024 		lwz 25,36(1)
 4004 074c 83410028 		lwz 26,40(1)
 4005 0750 8361002C 		lwz 27,44(1)
 4006 0754 83810030 		lwz 28,48(1)
 4007 0758 83A10034 		lwz 29,52(1)
 4008 075c 83C10038 		lwz 30,56(1)
 4009              	.LVL286:
 4010 0760 83E1003C 		lwz 31,60(1)
 4011              	.LVL287:
 4012 0764 38210040 		addi 1,1,64
 4013              		.cfi_remember_state
 4014              	.LCFI20:
 4015              		.cfi_def_cfa_offset 0
 4016              		.cfi_restore 31
 4017              		.cfi_restore 30
 4018              		.cfi_restore 29
 4019              		.cfi_restore 28
 4020              		.cfi_restore 27
 4021              		.cfi_restore 26
 4022              		.cfi_restore 25
 4023              		.cfi_restore 24
 4024 0768 4E800020 		blr
 4025              	.LVL288:
 4026              	.L257:
 4027              	.LCFI21:
 4028              		.cfi_restore_state
 4029              	.LBB4982:
 4030              	.LBB4964:
 4031              	.LBB4249:
 4032              		.loc 2 634 0
 4033 076c 57A9103A 		slwi 9,29,2
 4034              	.LBE4249:
 4035              	.LBE4964:
 4036              	.LBB4965:
 4037              	.LBB4931:
 4038              	.LBB4297:
 4039              	.LBB4283:
 4040              	.LBB4267:
 4041              	.LBB4264:
 4042              		.loc 3 282 0
 4043 0770 839F0028 		lwz 28,40(31)
 4044              	.LBE4264:
 4045              	.LBE4267:
 4046              	.LBE4283:
 4047              	.LBB4284:
 4048              	.LBB4276:
 4049              	.LBB4273:
 4050 0774 817F0020 		lwz 11,32(31)
 4051              	.LBE4273:
 4052              	.LBE4276:
 4053              	.LBE4284:
 4054              	.LBE4297:
 4055              	.LBE4931:
 4056              	.LBE4965:
 4057              	.LBB4966:
 4058              	.LBB4250:
 4059              		.loc 2 634 0
 4060 0778 7C004A14 		add 0,0,9
 4061              	.LVL289:
 4062              	.LBE4250:
 4063              	.LBE4966:
 4064              	.LBB4967:
 4065              	.LBB4932:
 4066              	.LBB4298:
 4067              	.LBB4285:
 4068              	.LBB4268:
 4069              	.LBB4265:
 4070              		.loc 3 282 0
 4071 077c 837F002C 		lwz 27,44(31)
 4072              	.LBE4265:
 4073              	.LBE4268:
 4074              	.LBE4285:
 4075              	.LBB4286:
 4076              	.LBB4277:
 4077              	.LBB4274:
 4078 0780 813F0024 		lwz 9,36(31)
 4079              	.LBE4274:
 4080              	.LBE4277:
 4081              	.LBE4286:
 4082              	.LBE4298:
 4083              	.LBE4932:
 4084              	.LBE4967:
 4085              	.LBB4968:
 4086              	.LBB4251:
 4087              	.LBB4244:
 4088              	.LBB4245:
 4089              		.loc 2 1256 0
 4090 0784 901F0018 		stw 0,24(31)
 4091              	.LVL290:
 4092              	.LBE4245:
 4093              	.LBE4244:
 4094              	.LBE4251:
 4095              	.LBE4968:
 4096              	.LBB4969:
 4097              	.LBB4933:
 4098              	.LBB4299:
 4099              	.LBB4287:
 4100              	.LBB4282:
 4101              		.loc 3 184 0
 4102 0788 7C0BE050 		subf 0,11,28
 4103              	.LVL291:
 4104 078c 7D49D850 		subf 10,9,27
 4105 0790 54001838 		slwi 0,0,3
 4106 0794 7C0A0214 		add 0,10,0
 4107              	.LBE4282:
 4108              	.LBE4287:
 4109              	.LBE4299:
 4110              		.loc 3 832 0
 4111 0798 7F9D0040 		cmplw 7,29,0
 4112 079c 419CFEE4 		blt+ 7,.L259
 4113              	.LVL292:
 4114              	.L145:
 4115              	.LBB4300:
 4116              	.LBB4301:
 4117              	.LBB4302:
 4118              	.LBB4303:
 4119              		.loc 6 644 0
 4120 07a0 7FA0E851 		subf. 29,0,29
 4121              	.LVL293:
 4122 07a4 41A2FF04 		beq- 0,.L147
 4123              	.LVL294:
 4124              	.LBB4304:
 4125              	.LBB4305:
 4126              	.LBB4306:
 4127              	.LBB4307:
 4128              	.LBB4308:
 4129              		.loc 3 184 0
 4130 07a8 815F0030 		lwz 10,48(31)
 4131 07ac 7D6B5050 		subf 11,11,10
 4132              	.LVL295:
 4133 07b0 556B1838 		slwi 11,11,3
 4134 07b4 7D295850 		subf 9,9,11
 4135              	.LVL296:
 4136              	.LBE4308:
 4137              	.LBE4307:
 4138              	.LBE4306:
 4139              	.LBE4305:
 4140              		.loc 6 646 0
 4141 07b8 7D204850 		subf 9,0,9
 4142 07bc 7F9D4840 		cmplw 7,29,9
 4143 07c0 419D0154 		bgt- 7,.L148
 4144              	.LVL297:
 4145              	.LBB4309:
 4146              	.LBB4310:
 4147              	.LBB4311:
 4148              	.LBB4312:
 4149              	.LBB4313:
 4150              		.loc 3 141 0
 4151 07c4 7FBDDA14 		add 29,29,27
 4152              	.LVL298:
 4153              		.loc 3 142 0
 4154 07c8 7FA02E70 		srawi 0,29,5
 4155 07cc 7C000194 		addze 0,0
 4156              		.loc 3 143 0
 4157 07d0 54062834 		slwi 6,0,5
 4158 07d4 7CC6E850 		subf 6,6,29
 4159              		.loc 3 142 0
 4160 07d8 5400103A 		slwi 0,0,2
 4161              	.LBE4313:
 4162              	.LBE4312:
 4163              	.LBE4311:
 4164              	.LBE4310:
 4165              	.LBE4309:
 4166              	.LBB4318:
 4167              	.LBB4319:
 4168              	.LBB4320:
 4169              	.LBB4321:
 4170              	.LBB4322:
 4171              		.loc 3 144 0
 4172 07dc 2F060000 		cmpwi 6,6,0
 4173              	.LBE4322:
 4174              	.LBE4321:
 4175              	.LBE4320:
 4176              	.LBE4319:
 4177              	.LBE4318:
 4178              	.LBB4331:
 4179              	.LBB4317:
 4180              	.LBB4316:
 4181              	.LBB4315:
 4182              	.LBB4314:
 4183              		.loc 3 142 0
 4184 07e0 7CBC0214 		add 5,28,0
 4185              	.LVL299:
 4186              	.LBE4314:
 4187              	.LBE4315:
 4188              	.LBE4316:
 4189              	.LBE4317:
 4190              	.LBE4331:
 4191              	.LBB4332:
 4192              	.LBB4329:
 4193              	.LBB4327:
 4194              	.LBB4325:
 4195              	.LBB4323:
 4196 07e4 7CA82B78 		mr 8,5
 4197              		.loc 3 144 0
 4198 07e8 7CC43378 		mr 4,6
 4199 07ec 419805A4 		blt- 6,.L260
 4200              	.LVL300:
 4201              	.L149:
 4202              	.LBE4323:
 4203              	.LBE4325:
 4204              	.LBE4327:
 4205              	.LBE4329:
 4206              	.LBE4332:
 4207              	.LBB4333:
 4208              	.LBB4334:
 4209              		.loc 3 365 0
 4210 07f0 7F9C4000 		cmpw 7,28,8
 4211 07f4 7F89E378 		mr 9,28
 4212              	.LBB4335:
 4213              	.LBB4336:
 4214              	.LBB4337:
 4215              		.loc 3 200 0
 4216 07f8 39400001 		li 10,1
 4217              	.LBE4337:
 4218              	.LBE4336:
 4219              	.LBE4335:
 4220              		.loc 3 365 0
 4221 07fc 419E032C 		beq- 7,.L151
 4222              		.loc 3 367 0
 4223 0800 395C0004 		addi 10,28,4
 4224              	.LVL301:
 4225              	.LBB4366:
 4226              	.LBB4367:
 4227              	.LBB4368:
 4228              		.loc 7 686 0
 4229 0804 7F885000 		cmpw 7,8,10
 4230 0808 419E0038 		beq- 7,.L152
 4231              		.loc 1 62 0
 4232 080c 397C0008 		addi 11,28,8
 4233              		.loc 7 686 0
 4234 0810 7F89E378 		mr 9,28
 4235              		.loc 1 62 0
 4236 0814 7D6B4050 		subf 11,11,8
 4237              		.loc 7 687 0
 4238 0818 38000000 		li 0,0
 4239              		.loc 1 62 0
 4240 081c 556B003A 		rlwinm 11,11,0,0,29
 4241 0820 7D6A5A14 		add 11,10,11
 4242              		.loc 7 687 0
 4243 0824 7D7C5850 		subf 11,28,11
 4244 0828 396BFFFC 		addi 11,11,-4
 4245 082c 556BF0BE 		srwi 11,11,2
 4246 0830 396B0001 		addi 11,11,1
 4247 0834 7D6903A6 		mtctr 11
 4248              	.LVL302:
 4249              	.L153:
 4250 0838 94090004 		stwu 0,4(9)
 4251              		.loc 7 686 0
 4252 083c 4200FFFC 		bdnz .L153
 4253              	.L152:
 4254              	.LVL303:
 4255              	.LBE4368:
 4256              	.LBE4367:
 4257              	.LBE4366:
 4258              	.LBB4375:
 4259              	.LBB4376:
 4260              	.LBB4377:
 4261              		.loc 3 200 0
 4262 0840 39600001 		li 11,1
 4263              	.LVL304:
 4264              	.L154:
 4265              	.LBE4377:
 4266              	.LBE4376:
 4267              	.LBE4375:
 4268              	.LBB4427:
 4269              	.LBB4372:
 4270              	.LBB4369:
 4271              		.loc 3 123 0
 4272 0844 7F8AE000 		cmpw 7,10,28
 4273              	.LBE4369:
 4274              	.LBE4372:
 4275              	.LBE4427:
 4276              	.LBB4428:
 4277              	.LBB4382:
 4278              	.LBB4378:
 4279              		.loc 3 200 0
 4280 0848 201B0001 		subfic 0,27,1
 4281              	.LBE4378:
 4282              	.LBE4382:
 4283              	.LBE4428:
 4284              	.LBB4429:
 4285              	.LBB4373:
 4286              	.LBB4370:
 4287              		.loc 3 123 0
 4288 084c 419E0094 		beq- 7,.L244
 4289              	.LBE4370:
 4290              	.LBE4373:
 4291              	.LBE4429:
 4292              	.LBB4430:
 4293              	.LBB4383:
 4294              	.LBB4379:
 4295              		.loc 3 200 0
 4296 0850 201B0020 		subfic 0,27,32
 4297 0854 7C0903A6 		mtctr 0
 4298              	.LVL305:
 4299              	.L248:
 4300              	.LBE4379:
 4301              	.LBE4383:
 4302              	.LBB4384:
 4303              	.LBB4385:
 4304              		.loc 3 88 0
 4305 0858 801C0000 		lwz 0,0(28)
 4306              	.LBE4385:
 4307              	.LBE4384:
 4308              	.LBB4389:
 4309              	.LBB4380:
 4310              		.loc 3 200 0
 4311 085c 7D69D830 		slw 9,11,27
 4312              	.LBE4380:
 4313              	.LBE4389:
 4314              	.LBB4390:
 4315              	.LBB4386:
 4316              		.loc 3 88 0
 4317 0860 3B7B0001 		addi 27,27,1
 4318              	.LVL306:
 4319 0864 7C004878 		andc 0,0,9
 4320 0868 901C0000 		stw 0,0(28)
 4321              	.LVL307:
 4322              	.LBE4386:
 4323              	.LBE4390:
 4324              	.LBB4391:
 4325              	.LBB4392:
 4326              	.LBB4393:
 4327              		.loc 3 121 0
 4328 086c 4200FFEC 		bdnz .L248
 4329              	.LVL308:
 4330              	.L156:
 4331              	.LBE4393:
 4332              	.LBE4392:
 4333              	.LBE4391:
 4334              	.LBE4430:
 4335              	.LBB4431:
 4336              	.LBB4374:
 4337              	.LBB4371:
 4338              		.loc 7 686 0
 4339 0870 3B9C0004 		addi 28,28,4
 4340              		.loc 3 123 0
 4341 0874 3B600000 		li 27,0
 4342 0878 4BFFFFCC 		b .L154
 4343              	.LVL309:
 4344              	.L255:
 4345              	.LBE4371:
 4346              	.LBE4374:
 4347              	.LBE4431:
 4348              	.LBE4334:
 4349              	.LBE4333:
 4350              	.LBE4304:
 4351              	.LBE4303:
 4352              	.LBE4302:
 4353              	.LBE4301:
 4354              	.LBE4300:
 4355              	.LBE4933:
 4356              	.LBE4969:
 4357              	.LBB4970:
 4358              	.LBB4234:
 4359              		.loc 2 634 0
 4360 087c 57A9103A 		slwi 9,29,2
 4361              	.LBB4226:
 4362              	.LBB4222:
 4363              		.loc 2 1256 0
 4364 0880 39600000 		li 11,0
 4365              	.LBE4222:
 4366              	.LBE4226:
 4367              		.loc 2 634 0
 4368 0884 7C004A14 		add 0,0,9
 4369              	.LVL310:
 4370              	.LBE4234:
 4371              	.LBE4970:
 4372              	.LBB4971:
 4373              		.loc 1 143 0
 4374 0888 813F0018 		lwz 9,24(31)
 4375              	.LBE4971:
 4376              	.LBB4972:
 4377              	.LBB4235:
 4378              	.LBB4227:
 4379              	.LBB4223:
 4380              		.loc 2 1256 0
 4381 088c 901F000C 		stw 0,12(31)
 4382              	.LVL311:
 4383              	.LBE4223:
 4384              	.LBE4227:
 4385              	.LBE4235:
 4386              	.LBE4972:
 4387              	.LBB4973:
 4388              		.loc 1 143 0
 4389 0890 801F0014 		lwz 0,20(31)
 4390              	.LVL312:
 4391              	.LBE4973:
 4392              	.LBB4974:
 4393              	.LBB4236:
 4394              	.LBB4228:
 4395              	.LBB4224:
 4396              		.loc 2 1256 0
 4397 0894 91610008 		stw 11,8(1)
 4398              	.LVL313:
 4399              	.LBE4224:
 4400              	.LBE4228:
 4401              	.LBE4236:
 4402              	.LBE4974:
 4403              	.LBB4975:
 4404              	.LBB4252:
 4405              	.LBB4246:
 4406              	.LBB4243:
 4407              		.loc 2 571 0
 4408 0898 7CA04850 		subf 5,0,9
 4409 089c 7CA51670 		srawi 5,5,2
 4410              	.LBE4243:
 4411              	.LBE4246:
 4412              		.loc 2 631 0
 4413 08a0 7F9D2840 		cmplw 7,29,5
 4414 08a4 409DFDB0 		ble+ 7,.L143
 4415              	.LVL314:
 4416              	.L256:
 4417              	.LBB4247:
 4418              	.LBB4248:
 4419              		.loc 2 944 0
 4420 08a8 7C240B78 		mr 4,1
 4421 08ac 387F0014 		addi 3,31,20
 4422 08b0 9524001C 		stwu 9,28(4)
 4423 08b4 7CA5E850 		subf 5,5,29
 4424              	.LVL315:
 4425 08b8 38C10008 		addi 6,1,8
 4426 08bc 48000001 		bl _ZNSt6vectorIjSaIjEE14_M_fill_insertEN9__gnu_cxx17__normal_iteratorIPjS1_EEjRKj
 4427              	.LVL316:
 4428 08c0 4BFFFD98 		b .L144
 4429              	.LVL317:
 4430              	.L254:
 4431              	.LBE4248:
 4432              	.LBE4247:
 4433              	.LBE4252:
 4434              	.LBE4975:
 4435              	.LBB4976:
 4436              	.LBB4237:
 4437              	.LBB4229:
 4438              	.LBB4230:
 4439 08c4 7C240B78 		mr 4,1
 4440 08c8 387F0008 		addi 3,31,8
 4441 08cc 95240018 		stwu 9,24(4)
 4442 08d0 7CBEE850 		subf 5,30,29
 4443 08d4 38C1000C 		addi 6,1,12
 4444 08d8 48000001 		bl _ZNSt6vectorIPhSaIS0_EE14_M_fill_insertEN9__gnu_cxx17__normal_iteratorIPS0_S2_EEjRKS0_
 4445 08dc 4BFFFD58 		b .L142
 4446              	.LVL318:
 4447              	.L244:
 4448              	.LBE4230:
 4449              	.LBE4229:
 4450              	.LBE4237:
 4451              	.LBE4976:
 4452              	.LBB4977:
 4453              	.LBB4934:
 4454              	.LBB4928:
 4455              	.LBB4926:
 4456              	.LBB4922:
 4457              	.LBB4918:
 4458              	.LBB4914:
 4459              	.LBB4486:
 4460              	.LBB4483:
 4461              	.LBB4432:
 4462              	.LBB4402:
 4463              	.LBB4403:
 4464              	.LBB4404:
 4465              		.loc 3 154 0
 4466 08e0 3400FFFF 		addic. 0,0,-1
 4467 08e4 418203C4 		beq- 0,.L261
 4468              	.LVL319:
 4469              	.LBE4404:
 4470              	.LBE4403:
 4471              	.LBE4402:
 4472              	.LBB4415:
 4473              	.LBB4398:
 4474              	.LBB4394:
 4475              		.loc 3 121 0
 4476 08e8 2F9B001F 		cmpwi 7,27,31
 4477              	.LBE4394:
 4478              	.LBE4398:
 4479              	.LBE4415:
 4480              	.LBB4416:
 4481              	.LBB4387:
 4482              		.loc 3 88 0
 4483 08ec 813C0000 		lwz 9,0(28)
 4484              	.LBE4387:
 4485              	.LBE4416:
 4486              	.LBB4417:
 4487              	.LBB4381:
 4488              		.loc 3 200 0
 4489 08f0 7D67D830 		slw 7,11,27
 4490              	.LBE4381:
 4491              	.LBE4417:
 4492              	.LBB4418:
 4493              	.LBB4399:
 4494              	.LBB4395:
 4495              		.loc 3 121 0
 4496 08f4 3B7B0001 		addi 27,27,1
 4497              	.LVL320:
 4498              	.LBE4395:
 4499              	.LBE4399:
 4500              	.LBE4418:
 4501              	.LBB4419:
 4502              	.LBB4388:
 4503              		.loc 3 88 0
 4504 08f8 7D293878 		andc 9,9,7
 4505 08fc 913C0000 		stw 9,0(28)
 4506              	.LVL321:
 4507              	.LBE4388:
 4508              	.LBE4419:
 4509              	.LBB4420:
 4510              	.LBB4400:
 4511              	.LBB4396:
 4512              		.loc 3 121 0
 4513 0900 409EFFE0 		bne+ 7,.L244
 4514 0904 4BFFFF6C 		b .L156
 4515              	.LVL322:
 4516              	.L258:
 4517              	.LBE4396:
 4518              	.LBE4400:
 4519              	.LBE4420:
 4520              	.LBE4432:
 4521              	.LBE4483:
 4522              	.LBE4486:
 4523              	.LBE4914:
 4524              	.LBE4918:
 4525              	.LBE4922:
 4526              	.LBE4926:
 4527              	.LBE4928:
 4528              	.LBB4929:
 4529              	.LBB4296:
 4530              	.LBB4295:
 4531              	.LBB4294:
 4532              	.LBB4293:
 4533              		.loc 3 146 0
 4534 0908 39290020 		addi 9,9,32
 4535              	.LVL323:
 4536              		.loc 3 147 0
 4537 090c 396BFFFC 		addi 11,11,-4
 4538              	.LVL324:
 4539 0910 4BFFFD90 		b .L146
 4540              	.LVL325:
 4541              	.L148:
 4542              	.LBE4293:
 4543              	.LBE4294:
 4544              	.LBE4295:
 4545              	.LBE4296:
 4546              	.LBE4929:
 4547              	.LBB4930:
 4548              	.LBB4927:
 4549              	.LBB4923:
 4550              	.LBB4919:
 4551              	.LBB4915:
 4552              	.LBB4487:
 4553              	.LBB4488:
 4554              	.LBB4489:
 4555              		.loc 3 1023 0
 4556 0914 3D207FFF 		lis 9,0x7fff
 4557 0918 6129FFE0 		ori 9,9,65504
 4558 091c 7D204850 		subf 9,0,9
 4559 0920 7F9D4840 		cmplw 7,29,9
 4560 0924 419D0490 		bgt- 7,.L262
 4561              	.LVL326:
 4562              		.loc 3 1026 0
 4563 0928 7F9D0040 		cmplw 7,29,0
 4564 092c 7FA9EB78 		mr 9,29
 4565 0930 419C01C4 		blt- 7,.L263
 4566              	.L171:
 4567 0934 7D290214 		add 9,9,0
 4568              	.LVL327:
 4569              		.loc 3 1027 0
 4570 0938 3F200FFF 		lis 25,0xfff
 4571 093c 7F804840 		cmplw 7,0,9
 4572 0940 6339FFFC 		ori 25,25,65532
 4573 0944 409D0190 		ble- 7,.L264
 4574              	.LVL328:
 4575              	.L172:
 4576              	.LBE4489:
 4577              	.LBE4488:
 4578              	.LBB4492:
 4579              	.LBB4493:
 4580              	.LBB4494:
 4581              		.loc 8 92 0
 4582 0948 7F23CB78 		mr 3,25
 4583              	.LBE4494:
 4584              	.LBE4493:
 4585              	.LBE4492:
 4586              	.LBB4497:
 4587              	.LBB4498:
 4588              	.LBB4499:
 4589              	.LBB4500:
 4590              	.LBB4501:
 4591              	.LBB4502:
 4592              	.LBB4503:
 4593              	.LBB4504:
 4594              		.loc 7 365 0
 4595 094c 3B000000 		li 24,0
 4596              	.LBE4504:
 4597              	.LBE4503:
 4598              	.LBE4502:
 4599              	.LBE4501:
 4600              	.LBE4500:
 4601              	.LBE4499:
 4602              	.LBE4498:
 4603              	.LBE4497:
 4604              	.LBB4608:
 4605              	.LBB4496:
 4606              	.LBB4495:
 4607              		.loc 8 92 0
 4608 0950 48000001 		bl _Znwj
 4609              	.LVL329:
 4610 0954 809F0020 		lwz 4,32(31)
 4611 0958 7C7A1B78 		mr 26,3
 4612              	.LVL330:
 4613              	.LBE4495:
 4614              	.LBE4496:
 4615              	.LBE4608:
 4616              	.LBB4609:
 4617              	.LBB4605:
 4618              	.LBB4520:
 4619              	.LBB4517:
 4620              	.LBB4514:
 4621              	.LBB4511:
 4622              	.LBB4508:
 4623              	.LBB4505:
 4624              		.loc 7 364 0
 4625 095c 7C04E050 		subf 0,4,28
 4626              	.LVL331:
 4627              		.loc 7 365 0
 4628 0960 7C001671 		srawi. 0,0,2
 4629              	.LVL332:
 4630 0964 40820418 		bne- 0,.L265
 4631              	.LVL333:
 4632              	.L174:
 4633              	.LBE4505:
 4634              	.LBE4508:
 4635              	.LBE4511:
 4636              	.LBE4514:
 4637              	.LBE4517:
 4638              	.LBE4520:
 4639              	.LBB4521:
 4640              	.LBB4522:
 4641              	.LBB4523:
 4642              	.LBB4524:
 4643              	.LBB4525:
 4644              	.LBB4526:
 4645              	.LBB4527:
 4646              		.loc 7 327 0
 4647 0968 2F9B0000 		cmpwi 7,27,0
 4648              	.LBE4527:
 4649              	.LBE4526:
 4650              	.LBE4525:
 4651              	.LBE4524:
 4652              	.LBE4523:
 4653              	.LBE4522:
 4654              	.LBE4521:
 4655              	.LBB4601:
 4656              	.LBB4518:
 4657              	.LBB4515:
 4658              	.LBB4512:
 4659              	.LBB4509:
 4660              	.LBB4506:
 4661              		.loc 7 367 0
 4662 096c 7F1AC214 		add 24,26,24
 4663              	.LVL334:
 4664              	.LBE4506:
 4665              	.LBE4509:
 4666              	.LBE4512:
 4667              	.LBE4515:
 4668              	.LBE4518:
 4669              	.LBE4601:
 4670              	.LBB4602:
 4671              	.LBB4599:
 4672              	.LBB4597:
 4673              	.LBB4595:
 4674              	.LBB4593:
 4675              	.LBB4591:
 4676              	.LBB4589:
 4677              		.loc 7 327 0
 4678 0970 39200000 		li 9,0
 4679 0974 409D0050 		ble- 7,.L175
 4680              	.LBB4528:
 4681              	.LBB4529:
 4682              	.LBB4530:
 4683              	.LBB4531:
 4684              	.LBB4532:
 4685              		.loc 3 123 0
 4686 0978 7F6903A6 		mtctr 27
 4687              	.LBE4532:
 4688              	.LBE4531:
 4689              	.LBE4530:
 4690              	.LBE4529:
 4691              	.LBE4528:
 4692              		.loc 7 327 0
 4693 097c 7F87E378 		mr 7,28
 4694 0980 39600000 		li 11,0
 4695              	.LBB4547:
 4696              	.LBB4548:
 4697              		.loc 3 200 0
 4698 0984 38000001 		li 0,1
 4699              	.LVL335:
 4700              	.L182:
 4701              	.LBE4548:
 4702              	.LBE4547:
 4703              	.LBB4550:
 4704              	.LBB4551:
 4705              	.LBB4552:
 4706              	.LBB4553:
 4707              		.loc 3 80 0
 4708 0988 81470000 		lwz 10,0(7)
 4709              	.LBE4553:
 4710              	.LBE4552:
 4711              		.loc 3 286 0
 4712 098c 7C085830 		slw 8,0,11
 4713              	.LBE4551:
 4714              	.LBE4550:
 4715              	.LBB4554:
 4716              	.LBB4555:
 4717              		.loc 3 85 0
 4718 0990 7D065039 		and. 6,8,10
 4719              	.LBE4555:
 4720              	.LBE4554:
 4721              	.LBB4563:
 4722              	.LBB4549:
 4723              		.loc 3 200 0
 4724 0994 7C0A4830 		slw 10,0,9
 4725              	.LVL336:
 4726              	.LBE4549:
 4727              	.LBE4563:
 4728              	.LBB4564:
 4729              	.LBB4560:
 4730              	.LBB4556:
 4731              	.LBB4557:
 4732              		.loc 3 86 0
 4733 0998 81180000 		lwz 8,0(24)
 4734              	.LBE4557:
 4735              	.LBE4556:
 4736              		.loc 3 85 0
 4737 099c 40820108 		bne- 0,.L266
 4738              	.LVL337:
 4739              	.LBE4560:
 4740              	.LBE4564:
 4741              	.LBB4565:
 4742              	.LBB4541:
 4743              	.LBB4535:
 4744              		.loc 3 121 0
 4745 09a0 2F8B001F 		cmpwi 7,11,31
 4746              	.LBE4535:
 4747              	.LBE4541:
 4748              	.LBE4565:
 4749              	.LBB4566:
 4750              	.LBB4561:
 4751              		.loc 3 88 0
 4752 09a4 7D0A5078 		andc 10,8,10
 4753              	.LVL338:
 4754 09a8 91580000 		stw 10,0(24)
 4755              	.LVL339:
 4756              	.LBE4561:
 4757              	.LBE4566:
 4758              	.LBB4567:
 4759              	.LBB4542:
 4760              	.LBB4536:
 4761              		.loc 3 121 0
 4762 09ac 419E0108 		beq- 7,.L178
 4763              	.LVL340:
 4764              	.L269:
 4765              	.LBE4536:
 4766              	.LBE4542:
 4767              	.LBE4567:
 4768              	.LBB4568:
 4769              	.LBB4569:
 4770              	.LBB4570:
 4771 09b0 2F89001F 		cmpwi 7,9,31
 4772              	.LBE4570:
 4773              	.LBE4569:
 4774              	.LBE4568:
 4775              	.LBB4581:
 4776              	.LBB4543:
 4777              	.LBB4537:
 4778 09b4 396B0001 		addi 11,11,1
 4779              	.LVL341:
 4780              	.LBE4537:
 4781              	.LBE4543:
 4782              	.LBE4581:
 4783              	.LBB4582:
 4784              	.LBB4574:
 4785              	.LBB4571:
 4786 09b8 419E010C 		beq- 7,.L180
 4787              	.LVL342:
 4788              	.L270:
 4789 09bc 39290001 		addi 9,9,1
 4790              	.LVL343:
 4791              	.LBE4571:
 4792              	.LBE4574:
 4793              	.LBE4582:
 4794              		.loc 7 327 0
 4795 09c0 4200FFC8 		bdnz .L182
 4796              	.LVL344:
 4797              	.L175:
 4798              	.LBE4589:
 4799              	.LBE4591:
 4800              	.LBE4593:
 4801              	.LBE4595:
 4802              	.LBE4597:
 4803              	.LBE4599:
 4804              	.LBE4602:
 4805              	.LBE4605:
 4806              	.LBE4609:
 4807              	.LBB4610:
 4808              	.LBB4611:
 4809              	.LBB4612:
 4810              	.LBB4613:
 4811              	.LBB4614:
 4812              		.loc 3 141 0
 4813 09c4 7FA9EA14 		add 29,9,29
 4814              	.LVL345:
 4815              		.loc 3 142 0
 4816 09c8 7FA02E70 		srawi 0,29,5
 4817 09cc 7C000194 		addze 0,0
 4818              		.loc 3 143 0
 4819 09d0 54052834 		slwi 5,0,5
 4820 09d4 7CA5E850 		subf 5,5,29
 4821              		.loc 3 142 0
 4822 09d8 5400103A 		slwi 0,0,2
 4823              		.loc 3 144 0
 4824 09dc 2F050000 		cmpwi 6,5,0
 4825              		.loc 3 142 0
 4826 09e0 7C780214 		add 3,24,0
 4827              	.LVL346:
 4828 09e4 7C671B78 		mr 7,3
 4829              		.loc 3 144 0
 4830 09e8 7CBD2B78 		mr 29,5
 4831 09ec 419803B0 		blt- 6,.L267
 4832              	.LVL347:
 4833              	.L183:
 4834              	.LBE4614:
 4835              	.LBE4613:
 4836              	.LBE4612:
 4837              	.LBE4611:
 4838              	.LBE4610:
 4839              	.LBB4619:
 4840              	.LBB4620:
 4841              		.loc 3 365 0
 4842 09f0 7F87C000 		cmpw 7,7,24
 4843 09f4 7CEB3B78 		mr 11,7
 4844              	.LBB4621:
 4845              	.LBB4622:
 4846              	.LBB4623:
 4847              		.loc 3 200 0
 4848 09f8 39000001 		li 8,1
 4849              	.LBE4623:
 4850              	.LBE4622:
 4851              	.LBE4621:
 4852              		.loc 3 365 0
 4853 09fc 419E018C 		beq- 7,.L185
 4854              		.loc 3 367 0
 4855 0a00 39780004 		addi 11,24,4
 4856              	.LVL348:
 4857              	.LBB4655:
 4858              	.LBB4656:
 4859              	.LBB4657:
 4860              		.loc 7 686 0
 4861 0a04 7F875800 		cmpw 7,7,11
 4862 0a08 419E0038 		beq- 7,.L186
 4863              		.loc 1 62 0
 4864 0a0c 39180008 		addi 8,24,8
 4865              		.loc 7 686 0
 4866 0a10 7F0AC378 		mr 10,24
 4867              		.loc 1 62 0
 4868 0a14 7D083850 		subf 8,8,7
 4869              		.loc 7 687 0
 4870 0a18 38000000 		li 0,0
 4871              		.loc 1 62 0
 4872 0a1c 5508003A 		rlwinm 8,8,0,0,29
 4873 0a20 7D0B4214 		add 8,11,8
 4874              		.loc 7 687 0
 4875 0a24 7D184050 		subf 8,24,8
 4876 0a28 3908FFFC 		addi 8,8,-4
 4877 0a2c 5508F0BE 		srwi 8,8,2
 4878 0a30 39080001 		addi 8,8,1
 4879 0a34 7D0903A6 		mtctr 8
 4880              	.LVL349:
 4881              	.L187:
 4882 0a38 940A0004 		stwu 0,4(10)
 4883              		.loc 7 686 0
 4884 0a3c 4200FFFC 		bdnz .L187
 4885              	.L186:
 4886              	.LVL350:
 4887              	.LBE4657:
 4888              	.LBE4656:
 4889              	.LBE4655:
 4890              	.LBB4664:
 4891              	.LBB4665:
 4892              	.LBB4666:
 4893              		.loc 3 200 0
 4894 0a40 39000001 		li 8,1
 4895              	.LVL351:
 4896              	.L188:
 4897              	.LBE4666:
 4898              	.LBE4665:
 4899              	.LBE4664:
 4900              	.LBB4719:
 4901              	.LBB4661:
 4902              	.LBB4658:
 4903              		.loc 3 123 0
 4904 0a44 7F8BC000 		cmpw 7,11,24
 4905              	.LBE4658:
 4906              	.LBE4661:
 4907              	.LBE4719:
 4908              	.LBB4720:
 4909              	.LBB4671:
 4910              	.LBB4667:
 4911              		.loc 3 200 0
 4912 0a48 20090001 		subfic 0,9,1
 4913              	.LBE4667:
 4914              	.LBE4671:
 4915              	.LBE4720:
 4916              	.LBB4721:
 4917              	.LBB4662:
 4918              	.LBB4659:
 4919              		.loc 3 123 0
 4920 0a4c 419E0030 		beq- 7,.L246
 4921              	.LBE4659:
 4922              	.LBE4662:
 4923              	.LBE4721:
 4924              	.LBB4722:
 4925              	.LBB4672:
 4926              	.LBB4668:
 4927              		.loc 3 200 0
 4928 0a50 20090020 		subfic 0,9,32
 4929 0a54 7C0903A6 		mtctr 0
 4930              	.LVL352:
 4931              	.L251:
 4932              	.LBE4668:
 4933              	.LBE4672:
 4934              	.LBB4673:
 4935              	.LBB4674:
 4936              		.loc 3 88 0
 4937 0a58 80180000 		lwz 0,0(24)
 4938              	.LBE4674:
 4939              	.LBE4673:
 4940              	.LBB4678:
 4941              	.LBB4669:
 4942              		.loc 3 200 0
 4943 0a5c 7D0A4830 		slw 10,8,9
 4944              	.LBE4669:
 4945              	.LBE4678:
 4946              	.LBB4679:
 4947              	.LBB4675:
 4948              		.loc 3 88 0
 4949 0a60 39290001 		addi 9,9,1
 4950              	.LVL353:
 4951 0a64 7C005078 		andc 0,0,10
 4952 0a68 90180000 		stw 0,0(24)
 4953              	.LVL354:
 4954              	.LBE4675:
 4955              	.LBE4679:
 4956              	.LBB4680:
 4957              	.LBB4681:
 4958              	.LBB4682:
 4959              		.loc 3 121 0
 4960 0a6c 4200FFEC 		bdnz .L251
 4961              	.LVL355:
 4962              	.L190:
 4963              	.LBE4682:
 4964              	.LBE4681:
 4965              	.LBE4680:
 4966              	.LBE4722:
 4967              	.LBB4723:
 4968              	.LBB4663:
 4969              	.LBB4660:
 4970              		.loc 7 686 0
 4971 0a70 3B180004 		addi 24,24,4
 4972              		.loc 3 123 0
 4973 0a74 39200000 		li 9,0
 4974 0a78 4BFFFFCC 		b .L188
 4975              	.LVL356:
 4976              	.L246:
 4977              	.LBE4660:
 4978              	.LBE4663:
 4979              	.LBE4723:
 4980              	.LBB4724:
 4981              	.LBB4693:
 4982              	.LBB4694:
 4983              	.LBB4695:
 4984              		.loc 3 154 0
 4985 0a7c 3400FFFF 		addic. 0,0,-1
 4986 0a80 41820290 		beq- 0,.L268
 4987              	.LVL357:
 4988              	.LBE4695:
 4989              	.LBE4694:
 4990              	.LBE4693:
 4991              	.LBB4706:
 4992              	.LBB4688:
 4993              	.LBB4683:
 4994              		.loc 3 121 0
 4995 0a84 2F89001F 		cmpwi 7,9,31
 4996              	.LBE4683:
 4997              	.LBE4688:
 4998              	.LBE4706:
 4999              	.LBB4707:
 5000              	.LBB4676:
 5001              		.loc 3 88 0
 5002 0a88 81580000 		lwz 10,0(24)
 5003              	.LBE4676:
 5004              	.LBE4707:
 5005              	.LBB4708:
 5006              	.LBB4670:
 5007              		.loc 3 200 0
 5008 0a8c 7D064830 		slw 6,8,9
 5009              	.LBE4670:
 5010              	.LBE4708:
 5011              	.LBB4709:
 5012              	.LBB4689:
 5013              	.LBB4684:
 5014              		.loc 3 121 0
 5015 0a90 39290001 		addi 9,9,1
 5016              	.LVL358:
 5017              	.LBE4684:
 5018              	.LBE4689:
 5019              	.LBE4709:
 5020              	.LBB4710:
 5021              	.LBB4677:
 5022              		.loc 3 88 0
 5023 0a94 7D4A3078 		andc 10,10,6
 5024 0a98 91580000 		stw 10,0(24)
 5025              	.LVL359:
 5026              	.LBE4677:
 5027              	.LBE4710:
 5028              	.LBB4711:
 5029              	.LBB4690:
 5030              	.LBB4685:
 5031              		.loc 3 121 0
 5032 0a9c 409EFFE0 		bne+ 7,.L246
 5033 0aa0 4BFFFFD0 		b .L190
 5034              	.LVL360:
 5035              	.L266:
 5036              	.LBE4685:
 5037              	.LBE4690:
 5038              	.LBE4711:
 5039              	.LBE4724:
 5040              	.LBE4620:
 5041              	.LBE4619:
 5042              	.LBB4779:
 5043              	.LBB4606:
 5044              	.LBB4603:
 5045              	.LBB4600:
 5046              	.LBB4598:
 5047              	.LBB4596:
 5048              	.LBB4594:
 5049              	.LBB4592:
 5050              	.LBB4590:
 5051              	.LBB4583:
 5052              	.LBB4544:
 5053              	.LBB4538:
 5054 0aa4 2F8B001F 		cmpwi 7,11,31
 5055              	.LBE4538:
 5056              	.LBE4544:
 5057              	.LBE4583:
 5058              	.LBB4584:
 5059              	.LBB4562:
 5060              	.LBB4559:
 5061              	.LBB4558:
 5062              		.loc 3 86 0
 5063 0aa8 7D0A5378 		or 10,8,10
 5064              	.LVL361:
 5065 0aac 91580000 		stw 10,0(24)
 5066              	.LVL362:
 5067              	.LBE4558:
 5068              	.LBE4559:
 5069              	.LBE4562:
 5070              	.LBE4584:
 5071              	.LBB4585:
 5072              	.LBB4545:
 5073              	.LBB4539:
 5074              		.loc 3 121 0
 5075 0ab0 409EFF00 		bne+ 7,.L269
 5076              	.LVL363:
 5077              	.L178:
 5078              	.LBE4539:
 5079              	.LBE4545:
 5080              	.LBE4585:
 5081              	.LBB4586:
 5082              	.LBB4575:
 5083              	.LBB4572:
 5084 0ab4 2F89001F 		cmpwi 7,9,31
 5085              	.LBE4572:
 5086              	.LBE4575:
 5087              	.LBE4586:
 5088              	.LBB4587:
 5089              	.LBB4546:
 5090              	.LBB4540:
 5091              	.LBB4534:
 5092              	.LBB4533:
 5093              		.loc 3 124 0
 5094 0ab8 38E70004 		addi 7,7,4
 5095              	.LVL364:
 5096              		.loc 3 123 0
 5097 0abc 39600000 		li 11,0
 5098              	.LVL365:
 5099              	.LBE4533:
 5100              	.LBE4534:
 5101              	.LBE4540:
 5102              	.LBE4546:
 5103              	.LBE4587:
 5104              	.LBB4588:
 5105              	.LBB4576:
 5106              	.LBB4573:
 5107              		.loc 3 121 0
 5108 0ac0 409EFEFC 		bne+ 7,.L270
 5109              	.LVL366:
 5110              	.L180:
 5111              	.LBE4573:
 5112              	.LBE4576:
 5113              	.LBB4577:
 5114              	.LBB4578:
 5115              	.LBB4579:
 5116              	.LBB4580:
 5117              		.loc 3 124 0
 5118 0ac4 3B180004 		addi 24,24,4
 5119              	.LVL367:
 5120              		.loc 3 123 0
 5121 0ac8 39200000 		li 9,0
 5122              	.LVL368:
 5123              	.LBE4580:
 5124              	.LBE4579:
 5125              	.LBE4578:
 5126              	.LBE4577:
 5127              	.LBE4588:
 5128              		.loc 7 327 0
 5129 0acc 4200FEBC 		bdnz .L182
 5130 0ad0 4BFFFEF4 		b .L175
 5131              	.LVL369:
 5132              	.L264:
 5133              	.LBE4590:
 5134              	.LBE4592:
 5135              	.LBE4594:
 5136              	.LBE4596:
 5137              	.LBE4598:
 5138              	.LBE4600:
 5139              	.LBE4603:
 5140              	.LBE4606:
 5141              	.LBE4779:
 5142              	.LBB4780:
 5143              	.LBB4490:
 5144              		.loc 3 1027 0
 5145 0ad4 3C007FFF 		lis 0,0x7fff
 5146 0ad8 6000FFE0 		ori 0,0,65504
 5147 0adc 7F890040 		cmplw 7,9,0
 5148 0ae0 409D0008 		ble- 7,.L173
 5149 0ae4 7C090378 		mr 9,0
 5150              	.LVL370:
 5151              	.L173:
 5152 0ae8 3929001F 		addi 9,9,31
 5153 0aec 5539E8FA 		rlwinm 25,9,29,3,29
 5154 0af0 4BFFFE58 		b .L172
 5155              	.LVL371:
 5156              	.L263:
 5157              		.loc 3 1026 0
 5158 0af4 7C090378 		mr 9,0
 5159 0af8 4BFFFE3C 		b .L171
 5160              	.LVL372:
 5161              	.L245:
 5162              	.LBE4490:
 5163              	.LBE4780:
 5164              	.LBE4487:
 5165              	.LBB4903:
 5166              	.LBB4484:
 5167              	.LBB4433:
 5168              	.LBB4342:
 5169              	.LBB4343:
 5170              	.LBB4344:
 5171              		.loc 3 154 0
 5172 0afc 3400FFFF 		addic. 0,0,-1
 5173 0b00 41820184 		beq- 0,.L163
 5174              	.LVL373:
 5175              	.LBE4344:
 5176              	.LBE4343:
 5177              	.LBE4342:
 5178              	.LBB4345:
 5179              	.LBB4346:
 5180              	.LBB4347:
 5181              		.loc 3 121 0
 5182 0b04 2F9B001F 		cmpwi 7,27,31
 5183              	.LBE4347:
 5184              	.LBE4346:
 5185              	.LBE4345:
 5186              	.LBB4352:
 5187              	.LBB4353:
 5188              		.loc 3 88 0
 5189 0b08 817C0000 		lwz 11,0(28)
 5190              	.LBE4353:
 5191              	.LBE4352:
 5192              	.LBB4357:
 5193              	.LBB4338:
 5194              		.loc 3 200 0
 5195 0b0c 7D48D830 		slw 8,10,27
 5196              	.LBE4338:
 5197              	.LBE4357:
 5198              	.LBB4358:
 5199              	.LBB4354:
 5200              		.loc 3 88 0
 5201 0b10 3B7B0001 		addi 27,27,1
 5202              	.LVL374:
 5203 0b14 7D6B4078 		andc 11,11,8
 5204 0b18 917C0000 		stw 11,0(28)
 5205              	.LVL375:
 5206              	.LBE4354:
 5207              	.LBE4358:
 5208              	.LBB4359:
 5209              	.LBB4350:
 5210              	.LBB4348:
 5211              		.loc 3 121 0
 5212 0b1c 409EFFE0 		bne+ 7,.L245
 5213              	.LVL376:
 5214              	.L166:
 5215              	.LBE4348:
 5216              	.LBE4350:
 5217              	.LBE4359:
 5218              	.LBE4433:
 5219              	.LBB4434:
 5220              	.LBB4435:
 5221              	.LBB4436:
 5222              	.LBB4437:
 5223              		.loc 3 154 0
 5224 0b20 39290004 		addi 9,9,4
 5225              		.loc 3 123 0
 5226 0b24 3B600000 		li 27,0
 5227              	.LVL377:
 5228              	.L151:
 5229 0b28 7F9C4800 		cmpw 7,28,9
 5230              	.LBE4437:
 5231              	.LBE4436:
 5232              	.LBE4435:
 5233              	.LBE4434:
 5234              	.LBB4471:
 5235              	.LBB4360:
 5236              	.LBB4339:
 5237              		.loc 3 200 0
 5238 0b2c 7D7B2050 		subf 11,27,4
 5239 0b30 380B0001 		addi 0,11,1
 5240              	.LBE4339:
 5241              	.LBE4360:
 5242              	.LBE4471:
 5243              	.LBB4472:
 5244              	.LBB4442:
 5245              	.LBB4440:
 5246              	.LBB4438:
 5247              		.loc 3 123 0
 5248 0b34 41BEFFC8 		beq- 7,.L245
 5249              	.LBE4438:
 5250              	.LBE4440:
 5251              	.LBE4442:
 5252              	.LBE4472:
 5253              	.LBB4473:
 5254              	.LBB4361:
 5255              	.LBB4340:
 5256              		.loc 3 200 0
 5257 0b38 201B0020 		subfic 0,27,32
 5258 0b3c 7C0903A6 		mtctr 0
 5259              	.LVL378:
 5260              	.L250:
 5261              	.LBE4340:
 5262              	.LBE4361:
 5263              	.LBB4362:
 5264              	.LBB4355:
 5265              		.loc 3 88 0
 5266 0b40 80090000 		lwz 0,0(9)
 5267              	.LBE4355:
 5268              	.LBE4362:
 5269              	.LBB4363:
 5270              	.LBB4341:
 5271              		.loc 3 200 0
 5272 0b44 7D4BD830 		slw 11,10,27
 5273              	.LBE4341:
 5274              	.LBE4363:
 5275              	.LBB4364:
 5276              	.LBB4356:
 5277              		.loc 3 88 0
 5278 0b48 3B7B0001 		addi 27,27,1
 5279              	.LVL379:
 5280 0b4c 7C005878 		andc 0,0,11
 5281 0b50 90090000 		stw 0,0(9)
 5282              	.LVL380:
 5283              	.LBE4356:
 5284              	.LBE4364:
 5285              	.LBB4365:
 5286              	.LBB4351:
 5287              	.LBB4349:
 5288              		.loc 3 121 0
 5289 0b54 4200FFEC 		bdnz .L250
 5290 0b58 4BFFFFC8 		b .L166
 5291              	.LVL381:
 5292              	.L247:
 5293              	.LBE4349:
 5294              	.LBE4351:
 5295              	.LBE4365:
 5296              	.LBE4473:
 5297              	.LBE4484:
 5298              	.LBE4903:
 5299              	.LBB4904:
 5300              	.LBB4781:
 5301              	.LBB4777:
 5302              	.LBB4725:
 5303              	.LBB4628:
 5304              	.LBB4629:
 5305              	.LBB4630:
 5306              		.loc 3 154 0
 5307 0b5c 3400FFFF 		addic. 0,0,-1
 5308 0b60 4182005C 		beq- 0,.L197
 5309              	.LVL382:
 5310              	.LBE4630:
 5311              	.LBE4629:
 5312              	.LBE4628:
 5313              	.LBB4633:
 5314              	.LBB4634:
 5315              	.LBB4635:
 5316              		.loc 3 121 0
 5317 0b64 2F89001F 		cmpwi 7,9,31
 5318              	.LBE4635:
 5319              	.LBE4634:
 5320              	.LBE4633:
 5321              	.LBB4640:
 5322              	.LBB4641:
 5323              		.loc 3 88 0
 5324 0b68 81470000 		lwz 10,0(7)
 5325              	.LBE4641:
 5326              	.LBE4640:
 5327              	.LBB4645:
 5328              	.LBB4624:
 5329              		.loc 3 200 0
 5330 0b6c 7D064830 		slw 6,8,9
 5331              	.LBE4624:
 5332              	.LBE4645:
 5333              	.LBB4646:
 5334              	.LBB4642:
 5335              		.loc 3 88 0
 5336 0b70 39290001 		addi 9,9,1
 5337              	.LVL383:
 5338 0b74 7D4A3078 		andc 10,10,6
 5339 0b78 91470000 		stw 10,0(7)
 5340              	.LVL384:
 5341              	.LBE4642:
 5342              	.LBE4646:
 5343              	.LBB4647:
 5344              	.LBB4638:
 5345              	.LBB4636:
 5346              		.loc 3 121 0
 5347 0b7c 409EFFE0 		bne+ 7,.L247
 5348              	.LVL385:
 5349              	.L200:
 5350              	.LBE4636:
 5351              	.LBE4638:
 5352              	.LBE4647:
 5353              	.LBE4725:
 5354              	.LBB4726:
 5355              	.LBB4727:
 5356              	.LBB4728:
 5357              	.LBB4729:
 5358              		.loc 3 154 0
 5359 0b80 396B0004 		addi 11,11,4
 5360              		.loc 3 123 0
 5361 0b84 39200000 		li 9,0
 5362              	.LVL386:
 5363              	.L185:
 5364 0b88 7F875800 		cmpw 7,7,11
 5365              	.LBE4729:
 5366              	.LBE4728:
 5367              	.LBE4727:
 5368              	.LBE4726:
 5369              	.LBB4763:
 5370              	.LBB4648:
 5371              	.LBB4625:
 5372              		.loc 3 200 0
 5373 0b8c 7D49E850 		subf 10,9,29
 5374 0b90 380A0001 		addi 0,10,1
 5375              	.LBE4625:
 5376              	.LBE4648:
 5377              	.LBE4763:
 5378              	.LBB4764:
 5379              	.LBB4734:
 5380              	.LBB4732:
 5381              	.LBB4730:
 5382              		.loc 3 123 0
 5383 0b94 41BEFFC8 		beq- 7,.L247
 5384              	.LBE4730:
 5385              	.LBE4732:
 5386              	.LBE4734:
 5387              	.LBE4764:
 5388              	.LBB4765:
 5389              	.LBB4649:
 5390              	.LBB4626:
 5391              		.loc 3 200 0
 5392 0b98 20090020 		subfic 0,9,32
 5393 0b9c 7C0903A6 		mtctr 0
 5394              	.LVL387:
 5395              	.L253:
 5396              	.LBE4626:
 5397              	.LBE4649:
 5398              	.LBB4650:
 5399              	.LBB4643:
 5400              		.loc 3 88 0
 5401 0ba0 800B0000 		lwz 0,0(11)
 5402              	.LBE4643:
 5403              	.LBE4650:
 5404              	.LBB4651:
 5405              	.LBB4627:
 5406              		.loc 3 200 0
 5407 0ba4 7D0A4830 		slw 10,8,9
 5408              	.LBE4627:
 5409              	.LBE4651:
 5410              	.LBB4652:
 5411              	.LBB4644:
 5412              		.loc 3 88 0
 5413 0ba8 39290001 		addi 9,9,1
 5414              	.LVL388:
 5415 0bac 7C005078 		andc 0,0,10
 5416 0bb0 900B0000 		stw 0,0(11)
 5417              	.LVL389:
 5418              	.LBE4644:
 5419              	.LBE4652:
 5420              	.LBB4653:
 5421              	.LBB4639:
 5422              	.LBB4637:
 5423              		.loc 3 121 0
 5424 0bb4 4200FFEC 		bdnz .L253
 5425 0bb8 4BFFFFC8 		b .L200
 5426              	.LVL390:
 5427              	.L197:
 5428              	.LBE4637:
 5429              	.LBE4639:
 5430              	.LBE4653:
 5431              	.LBB4654:
 5432              	.LBB4632:
 5433              	.LBB4631:
 5434              		.loc 3 154 0
 5435 0bbc 801F0028 		lwz 0,40(31)
 5436 0bc0 813F002C 		lwz 9,44(31)
 5437              	.LVL391:
 5438              	.LBE4631:
 5439              	.LBE4632:
 5440              	.LBE4654:
 5441              	.LBE4765:
 5442              	.LBE4777:
 5443              	.LBE4781:
 5444              	.LBB4782:
 5445              	.LBB4783:
 5446              	.LBB4784:
 5447              	.LBB4785:
 5448              	.LBB4786:
 5449              		.loc 3 144 0
 5450 0bc4 419801E4 		blt- 6,.L271
 5451              		.loc 3 142 0
 5452 0bc8 7C6B1B78 		mr 11,3
 5453              	.LVL392:
 5454              	.L203:
 5455              	.LBE4786:
 5456              	.LBE4785:
 5457              	.LBE4784:
 5458              	.LBE4783:
 5459              	.LBE4782:
 5460              	.LBB4795:
 5461              	.LBB4796:
 5462              	.LBB4797:
 5463              	.LBB4798:
 5464              	.LBB4799:
 5465              	.LBB4800:
 5466              	.LBB4801:
 5467              	.LBB4802:
 5468              	.LBB4803:
 5469              		.loc 3 184 0
 5470 0bcc 7C1C0050 		subf 0,28,0
 5471 0bd0 7D3B4850 		subf 9,27,9
 5472 0bd4 54001838 		slwi 0,0,3
 5473              	.LBE4803:
 5474              	.LBE4802:
 5475              		.loc 7 327 0
 5476 0bd8 7D490215 		add. 10,9,0
 5477              	.LBE4801:
 5478              	.LBE4800:
 5479              	.LBE4799:
 5480              	.LBE4798:
 5481              	.LBE4797:
 5482              	.LBE4796:
 5483              	.LBE4795:
 5484              	.LBB4888:
 5485              	.LBB4793:
 5486              	.LBB4791:
 5487              	.LBB4789:
 5488              	.LBB4787:
 5489              		.loc 3 149 0
 5490 0bdc 7CA92B78 		mr 9,5
 5491              	.LVL393:
 5492              	.LBE4787:
 5493              	.LBE4789:
 5494              	.LBE4791:
 5495              	.LBE4793:
 5496              	.LBE4888:
 5497              	.LBB4889:
 5498              	.LBB4885:
 5499              	.LBB4882:
 5500              	.LBB4879:
 5501              	.LBB4876:
 5502              	.LBB4873:
 5503              	.LBB4870:
 5504              		.loc 7 327 0
 5505 0be0 40810048 		ble- 0,.L204
 5506              	.LBB4804:
 5507              	.LBB4805:
 5508              	.LBB4806:
 5509              	.LBB4807:
 5510              	.LBB4808:
 5511              		.loc 3 123 0
 5512 0be4 7D4903A6 		mtctr 10
 5513              	.LBE4808:
 5514              	.LBE4807:
 5515              	.LBE4806:
 5516              	.LBE4805:
 5517              	.LBE4804:
 5518              	.LBB4823:
 5519              	.LBB4824:
 5520              		.loc 3 200 0
 5521 0be8 38000001 		li 0,1
 5522              	.LVL394:
 5523              	.L211:
 5524              	.LBE4824:
 5525              	.LBE4823:
 5526              	.LBB4826:
 5527              	.LBB4827:
 5528              	.LBB4828:
 5529              		.loc 3 80 0
 5530 0bec 815C0000 		lwz 10,0(28)
 5531              	.LBE4828:
 5532              	.LBE4827:
 5533              	.LBE4826:
 5534              	.LBB4841:
 5535              	.LBB4842:
 5536              		.loc 3 200 0
 5537 0bf0 7C08D830 		slw 8,0,27
 5538              	.LBE4842:
 5539              	.LBE4841:
 5540              	.LBB4843:
 5541              	.LBB4829:
 5542              	.LBB4830:
 5543              		.loc 3 85 0
 5544 0bf4 7D065039 		and. 6,8,10
 5545              	.LBE4830:
 5546              	.LBE4829:
 5547              	.LBE4843:
 5548              	.LBB4844:
 5549              	.LBB4825:
 5550              		.loc 3 200 0
 5551 0bf8 7C0A4830 		slw 10,0,9
 5552              	.LVL395:
 5553              	.LBE4825:
 5554              	.LBE4844:
 5555              	.LBB4845:
 5556              	.LBB4838:
 5557              	.LBB4835:
 5558              	.LBB4831:
 5559              	.LBB4832:
 5560              		.loc 3 86 0
 5561 0bfc 810B0000 		lwz 8,0(11)
 5562              	.LBE4832:
 5563              	.LBE4831:
 5564              		.loc 3 85 0
 5565 0c00 40820058 		bne- 0,.L272
 5566              	.LBE4835:
 5567              	.LBE4838:
 5568              	.LBE4845:
 5569              	.LBB4846:
 5570              	.LBB4812:
 5571              	.LBB4813:
 5572              		.loc 3 121 0
 5573 0c04 2F9B001F 		cmpwi 7,27,31
 5574              	.LBE4813:
 5575              	.LBE4812:
 5576              	.LBE4846:
 5577              	.LBB4847:
 5578              	.LBB4839:
 5579              	.LBB4836:
 5580              		.loc 3 88 0
 5581 0c08 7D0A5078 		andc 10,8,10
 5582              	.LVL396:
 5583 0c0c 914B0000 		stw 10,0(11)
 5584              	.LVL397:
 5585              	.LBE4836:
 5586              	.LBE4839:
 5587              	.LBE4847:
 5588              	.LBB4848:
 5589              	.LBB4818:
 5590              	.LBB4814:
 5591              		.loc 3 121 0
 5592 0c10 419E0058 		beq- 7,.L207
 5593              	.LVL398:
 5594              	.L273:
 5595              	.LBE4814:
 5596              	.LBE4818:
 5597              	.LBE4848:
 5598              	.LBB4849:
 5599              	.LBB4850:
 5600              	.LBB4851:
 5601 0c14 2F89001F 		cmpwi 7,9,31
 5602              	.LBE4851:
 5603              	.LBE4850:
 5604              	.LBE4849:
 5605              	.LBB4862:
 5606              	.LBB4819:
 5607              	.LBB4815:
 5608 0c18 3B7B0001 		addi 27,27,1
 5609              	.LVL399:
 5610              	.LBE4815:
 5611              	.LBE4819:
 5612              	.LBE4862:
 5613              	.LBB4863:
 5614              	.LBB4855:
 5615              	.LBB4852:
 5616 0c1c 419E005C 		beq- 7,.L209
 5617              	.LVL400:
 5618              	.L274:
 5619 0c20 39290001 		addi 9,9,1
 5620              	.LVL401:
 5621              	.L210:
 5622              	.LBE4852:
 5623              	.LBE4855:
 5624              	.LBE4863:
 5625              		.loc 7 327 0
 5626 0c24 4200FFC8 		bdnz .L211
 5627              	.LVL402:
 5628              	.L204:
 5629              	.LBE4870:
 5630              	.LBE4873:
 5631              	.LBE4876:
 5632              	.LBE4879:
 5633              	.LBE4882:
 5634              	.LBE4885:
 5635              	.LBE4889:
 5636              	.LBB4890:
 5637              	.LBB4891:
 5638              		.loc 3 445 0
 5639 0c28 2F840000 		cmpwi 7,4,0
 5640              	.LBE4891:
 5641              	.LBE4890:
 5642              	.LBB4895:
 5643              	.LBB4886:
 5644              	.LBB4883:
 5645              	.LBB4880:
 5646              	.LBB4877:
 5647              	.LBB4874:
 5648              	.LBB4871:
 5649              		.loc 6 661 0
 5650 0c2c 917F0028 		stw 11,40(31)
 5651 0c30 913F002C 		stw 9,44(31)
 5652              	.LBE4871:
 5653              	.LBE4874:
 5654              	.LBE4877:
 5655              	.LBE4880:
 5656              	.LBE4883:
 5657              	.LBE4886:
 5658              	.LBE4895:
 5659              	.LBB4896:
 5660              	.LBB4894:
 5661              		.loc 3 445 0
 5662 0c34 419E000C 		beq- 7,.L212
 5663              	.LVL403:
 5664              	.LBB4892:
 5665              	.LBB4893:
 5666              		.loc 8 98 0
 5667 0c38 7C832378 		mr 3,4
 5668 0c3c 48000001 		bl _ZdlPv
 5669              	.LVL404:
 5670              	.L212:
 5671              	.LBE4893:
 5672              	.LBE4892:
 5673              	.LBE4894:
 5674              	.LBE4896:
 5675              		.loc 6 664 0
 5676 0c40 7F3ACA14 		add 25,26,25
 5677              	.LBE4904:
 5678              	.LBE4915:
 5679              	.LBE4919:
 5680              	.LBE4923:
 5681              		.loc 6 667 0
 5682 0c44 38000000 		li 0,0
 5683              	.LBB4924:
 5684              	.LBB4920:
 5685              	.LBB4916:
 5686              	.LBB4905:
 5687              		.loc 6 664 0
 5688 0c48 933F0030 		stw 25,48(31)
 5689              	.LVL405:
 5690              	.LBE4905:
 5691              	.LBE4916:
 5692              	.LBE4920:
 5693              	.LBE4924:
 5694              		.loc 6 667 0
 5695 0c4c 935F0020 		stw 26,32(31)
 5696 0c50 901F0024 		stw 0,36(31)
 5697 0c54 4BFFFA54 		b .L147
 5698              	.LVL406:
 5699              	.L272:
 5700              	.LBB4925:
 5701              	.LBB4921:
 5702              	.LBB4917:
 5703              	.LBB4906:
 5704              	.LBB4897:
 5705              	.LBB4887:
 5706              	.LBB4884:
 5707              	.LBB4881:
 5708              	.LBB4878:
 5709              	.LBB4875:
 5710              	.LBB4872:
 5711              	.LBB4864:
 5712              	.LBB4820:
 5713              	.LBB4816:
 5714              		.loc 3 121 0
 5715 0c58 2F9B001F 		cmpwi 7,27,31
 5716              	.LBE4816:
 5717              	.LBE4820:
 5718              	.LBE4864:
 5719              	.LBB4865:
 5720              	.LBB4840:
 5721              	.LBB4837:
 5722              	.LBB4834:
 5723              	.LBB4833:
 5724              		.loc 3 86 0
 5725 0c5c 7D0A5378 		or 10,8,10
 5726              	.LVL407:
 5727 0c60 914B0000 		stw 10,0(11)
 5728              	.LVL408:
 5729              	.LBE4833:
 5730              	.LBE4834:
 5731              	.LBE4837:
 5732              	.LBE4840:
 5733              	.LBE4865:
 5734              	.LBB4866:
 5735              	.LBB4821:
 5736              	.LBB4817:
 5737              		.loc 3 121 0
 5738 0c64 409EFFB0 		bne+ 7,.L273
 5739              	.LVL409:
 5740              	.L207:
 5741              	.LBE4817:
 5742              	.LBE4821:
 5743              	.LBE4866:
 5744              	.LBB4867:
 5745              	.LBB4856:
 5746              	.LBB4853:
 5747 0c68 2F89001F 		cmpwi 7,9,31
 5748              	.LBE4853:
 5749              	.LBE4856:
 5750              	.LBE4867:
 5751              	.LBB4868:
 5752              	.LBB4822:
 5753              	.LBB4811:
 5754              	.LBB4810:
 5755              	.LBB4809:
 5756              		.loc 3 124 0
 5757 0c6c 3B9C0004 		addi 28,28,4
 5758              	.LVL410:
 5759              		.loc 3 123 0
 5760 0c70 3B600000 		li 27,0
 5761              	.LVL411:
 5762              	.LBE4809:
 5763              	.LBE4810:
 5764              	.LBE4811:
 5765              	.LBE4822:
 5766              	.LBE4868:
 5767              	.LBB4869:
 5768              	.LBB4857:
 5769              	.LBB4854:
 5770              		.loc 3 121 0
 5771 0c74 409EFFAC 		bne+ 7,.L274
 5772              	.LVL412:
 5773              	.L209:
 5774              	.LBE4854:
 5775              	.LBE4857:
 5776              	.LBB4858:
 5777              	.LBB4859:
 5778              	.LBB4860:
 5779              	.LBB4861:
 5780              		.loc 3 124 0
 5781 0c78 396B0004 		addi 11,11,4
 5782              	.LVL413:
 5783              		.loc 3 123 0
 5784 0c7c 39200000 		li 9,0
 5785 0c80 4BFFFFA4 		b .L210
 5786              	.LVL414:
 5787              	.L163:
 5788              	.LBE4861:
 5789              	.LBE4860:
 5790              	.LBE4859:
 5791              	.LBE4858:
 5792              	.LBE4869:
 5793              	.LBE4872:
 5794              	.LBE4875:
 5795              	.LBE4878:
 5796              	.LBE4881:
 5797              	.LBE4884:
 5798              	.LBE4887:
 5799              	.LBE4897:
 5800              	.LBE4906:
 5801              	.LBB4907:
 5802              	.LBB4908:
 5803              	.LBB4909:
 5804              		.loc 3 142 0
 5805 0c84 90BF0028 		stw 5,40(31)
 5806              	.LVL415:
 5807              		.loc 3 144 0
 5808 0c88 4198000C 		blt- 6,.L275
 5809              		.loc 3 149 0
 5810 0c8c 90DF002C 		stw 6,44(31)
 5811 0c90 4BFFFA18 		b .L147
 5812              	.L275:
 5813              		.loc 3 147 0
 5814 0c94 38A5FFFC 		addi 5,5,-4
 5815              		.loc 3 146 0
 5816 0c98 38C60020 		addi 6,6,32
 5817              	.LVL416:
 5818              		.loc 3 147 0
 5819 0c9c 90BF0028 		stw 5,40(31)
 5820              		.loc 3 149 0
 5821 0ca0 90DF002C 		stw 6,44(31)
 5822 0ca4 4BFFFA04 		b .L147
 5823              	.LVL417:
 5824              	.L261:
 5825              	.LBE4909:
 5826              	.LBE4908:
 5827              	.LBE4907:
 5828              	.LBB4910:
 5829              	.LBB4485:
 5830              	.LBB4474:
 5831              	.LBB4421:
 5832              	.LBB4410:
 5833              	.LBB4405:
 5834              		.loc 3 154 0
 5835 0ca8 7D0B4378 		mr 11,8
 5836              	.LBE4405:
 5837              	.LBE4410:
 5838              	.LBE4421:
 5839              	.LBE4474:
 5840              	.LBB4475:
 5841              	.LBB4443:
 5842              	.LBB4444:
 5843              		.loc 3 200 0
 5844 0cac 38E00001 		li 7,1
 5845              	.LVL418:
 5846              	.L159:
 5847              	.LBE4444:
 5848              	.LBE4443:
 5849              	.LBE4475:
 5850              	.LBB4476:
 5851              	.LBB4422:
 5852              	.LBB4411:
 5853              	.LBB4406:
 5854              		.loc 3 154 0
 5855 0cb0 7F885800 		cmpw 7,8,11
 5856              	.LBE4406:
 5857              	.LBE4411:
 5858              	.LBE4422:
 5859              	.LBB4423:
 5860              	.LBB4401:
 5861              	.LBB4397:
 5862              		.loc 3 121 0
 5863 0cb4 39200000 		li 9,0
 5864              	.LBE4397:
 5865              	.LBE4401:
 5866              	.LBE4423:
 5867              	.LBE4476:
 5868              	.LBB4477:
 5869              	.LBB4449:
 5870              	.LBB4445:
 5871              		.loc 3 200 0
 5872 0cb8 38000020 		li 0,32
 5873              	.LBE4445:
 5874              	.LBE4449:
 5875              	.LBE4477:
 5876              	.LBB4478:
 5877              	.LBB4424:
 5878              	.LBB4412:
 5879              	.LBB4407:
 5880              		.loc 3 154 0
 5881 0cbc 419E0028 		beq- 7,.L242
 5882              	.LBE4407:
 5883              	.LBE4412:
 5884              	.LBE4424:
 5885              	.LBE4478:
 5886              	.LBB4479:
 5887              	.LBB4450:
 5888              	.LBB4446:
 5889              		.loc 3 200 0
 5890 0cc0 7C0903A6 		mtctr 0
 5891              	.LVL419:
 5892              	.L162:
 5893              	.LBE4446:
 5894              	.LBE4450:
 5895              	.LBB4451:
 5896              	.LBB4452:
 5897              		.loc 3 88 0
 5898 0cc4 800B0000 		lwz 0,0(11)
 5899              	.LBE4452:
 5900              	.LBE4451:
 5901              	.LBB4456:
 5902              	.LBB4447:
 5903              		.loc 3 200 0
 5904 0cc8 7CEA4830 		slw 10,7,9
 5905              	.LBE4447:
 5906              	.LBE4456:
 5907              	.LBB4457:
 5908              	.LBB4453:
 5909              		.loc 3 88 0
 5910 0ccc 39290001 		addi 9,9,1
 5911              	.LVL420:
 5912 0cd0 7C005078 		andc 0,0,10
 5913 0cd4 900B0000 		stw 0,0(11)
 5914              	.LVL421:
 5915              	.LBE4453:
 5916              	.LBE4457:
 5917              	.LBB4458:
 5918              	.LBB4459:
 5919              	.LBB4460:
 5920              		.loc 3 121 0
 5921 0cd8 4200FFEC 		bdnz .L162
 5922              	.LVL422:
 5923              	.LBE4460:
 5924              	.LBE4459:
 5925              	.LBE4458:
 5926              	.LBE4479:
 5927              	.LBB4480:
 5928              	.LBB4425:
 5929              	.LBB4413:
 5930              	.LBB4408:
 5931              		.loc 3 154 0
 5932 0cdc 396B0004 		addi 11,11,4
 5933 0ce0 4BFFFFD0 		b .L159
 5934              	.LVL423:
 5935              	.L242:
 5936              	.LBE4408:
 5937              	.LBE4413:
 5938              	.LBE4425:
 5939              	.LBE4480:
 5940              	.LBB4481:
 5941              	.LBB4465:
 5942              	.LBB4441:
 5943              	.LBB4439:
 5944 0ce4 7F892000 		cmpw 7,9,4
 5945 0ce8 41BEFF9C 		beq- 7,.L163
 5946              	.LVL424:
 5947              	.LBE4439:
 5948              	.LBE4441:
 5949              	.LBE4465:
 5950              	.LBB4466:
 5951              	.LBB4463:
 5952              	.LBB4461:
 5953              		.loc 3 121 0
 5954 0cec 3400FFFF 		addic. 0,0,-1
 5955              	.LBE4461:
 5956              	.LBE4463:
 5957              	.LBE4466:
 5958              	.LBB4467:
 5959              	.LBB4454:
 5960              		.loc 3 88 0
 5961 0cf0 81480000 		lwz 10,0(8)
 5962              	.LBE4454:
 5963              	.LBE4467:
 5964              	.LBB4468:
 5965              	.LBB4448:
 5966              		.loc 3 200 0
 5967 0cf4 7CE34830 		slw 3,7,9
 5968              	.LBE4448:
 5969              	.LBE4468:
 5970              	.LBB4469:
 5971              	.LBB4455:
 5972              		.loc 3 88 0
 5973 0cf8 39290001 		addi 9,9,1
 5974              	.LVL425:
 5975 0cfc 7D4A1878 		andc 10,10,3
 5976 0d00 91480000 		stw 10,0(8)
 5977              	.LVL426:
 5978              	.LBE4455:
 5979              	.LBE4469:
 5980              	.LBB4470:
 5981              	.LBB4464:
 5982              	.LBB4462:
 5983              		.loc 3 121 0
 5984 0d04 4082FFE0 		bne+ 0,.L242
 5985              	.LVL427:
 5986              	.LBE4462:
 5987              	.LBE4464:
 5988              	.LBE4470:
 5989              	.LBE4481:
 5990              	.LBB4482:
 5991              	.LBB4426:
 5992              	.LBB4414:
 5993              	.LBB4409:
 5994              		.loc 3 154 0
 5995 0d08 396B0004 		addi 11,11,4
 5996 0d0c 4BFFFFA4 		b .L159
 5997              	.LVL428:
 5998              	.L268:
 5999              	.LBE4409:
 6000              	.LBE4414:
 6001              	.LBE4426:
 6002              	.LBE4482:
 6003              	.LBE4485:
 6004              	.LBE4910:
 6005              	.LBB4911:
 6006              	.LBB4898:
 6007              	.LBB4778:
 6008              	.LBB4766:
 6009              	.LBB4712:
 6010              	.LBB4701:
 6011              	.LBB4696:
 6012 0d10 7CEA3B78 		mr 10,7
 6013              	.LBE4696:
 6014              	.LBE4701:
 6015              	.LBE4712:
 6016              	.LBE4766:
 6017              	.LBB4767:
 6018              	.LBB4735:
 6019              	.LBB4736:
 6020              		.loc 3 200 0
 6021 0d14 38C00001 		li 6,1
 6022              	.LVL429:
 6023              	.L193:
 6024              	.LBE4736:
 6025              	.LBE4735:
 6026              	.LBE4767:
 6027              	.LBB4768:
 6028              	.LBB4713:
 6029              	.LBB4702:
 6030              	.LBB4697:
 6031              		.loc 3 154 0
 6032 0d18 7F875000 		cmpw 7,7,10
 6033              	.LBE4697:
 6034              	.LBE4702:
 6035              	.LBE4713:
 6036              	.LBB4714:
 6037              	.LBB4691:
 6038              	.LBB4686:
 6039              		.loc 3 121 0
 6040 0d1c 39000000 		li 8,0
 6041              	.LBE4686:
 6042              	.LBE4691:
 6043              	.LBE4714:
 6044              	.LBE4768:
 6045              	.LBB4769:
 6046              	.LBB4741:
 6047              	.LBB4737:
 6048              		.loc 3 200 0
 6049 0d20 38000020 		li 0,32
 6050              	.LBE4737:
 6051              	.LBE4741:
 6052              	.LBE4769:
 6053              	.LBB4770:
 6054              	.LBB4715:
 6055              	.LBB4703:
 6056              	.LBB4698:
 6057              		.loc 3 154 0
 6058 0d24 419E002C 		beq- 7,.L243
 6059              	.LBE4698:
 6060              	.LBE4703:
 6061              	.LBE4715:
 6062              	.LBE4770:
 6063              	.LBB4771:
 6064              	.LBB4742:
 6065              	.LBB4738:
 6066              		.loc 3 200 0
 6067 0d28 7C0903A6 		mtctr 0
 6068              	.LBE4738:
 6069              	.LBE4742:
 6070              	.LBE4771:
 6071              	.LBB4772:
 6072              	.LBB4716:
 6073              	.LBB4692:
 6074              	.LBB4687:
 6075              		.loc 3 121 0
 6076 0d2c 39600000 		li 11,0
 6077              	.LVL430:
 6078              	.L196:
 6079              	.LBE4687:
 6080              	.LBE4692:
 6081              	.LBE4716:
 6082              	.LBE4772:
 6083              	.LBB4773:
 6084              	.LBB4743:
 6085              	.LBB4744:
 6086              		.loc 3 88 0
 6087 0d30 800A0000 		lwz 0,0(10)
 6088              	.LBE4744:
 6089              	.LBE4743:
 6090              	.LBB4748:
 6091              	.LBB4739:
 6092              		.loc 3 200 0
 6093 0d34 7CC85830 		slw 8,6,11
 6094              	.LBE4739:
 6095              	.LBE4748:
 6096              	.LBB4749:
 6097              	.LBB4745:
 6098              		.loc 3 88 0
 6099 0d38 396B0001 		addi 11,11,1
 6100              	.LVL431:
 6101 0d3c 7C004078 		andc 0,0,8
 6102 0d40 900A0000 		stw 0,0(10)
 6103              	.LVL432:
 6104              	.LBE4745:
 6105              	.LBE4749:
 6106              	.LBB4750:
 6107              	.LBB4751:
 6108              	.LBB4752:
 6109              		.loc 3 121 0
 6110 0d44 4200FFEC 		bdnz .L196
 6111              	.LVL433:
 6112              	.LBE4752:
 6113              	.LBE4751:
 6114              	.LBE4750:
 6115              	.LBE4773:
 6116              	.LBB4774:
 6117              	.LBB4717:
 6118              	.LBB4704:
 6119              	.LBB4699:
 6120              		.loc 3 154 0
 6121 0d48 394A0004 		addi 10,10,4
 6122 0d4c 4BFFFFCC 		b .L193
 6123              	.LVL434:
 6124              	.L243:
 6125              	.LBE4699:
 6126              	.LBE4704:
 6127              	.LBE4717:
 6128              	.LBE4774:
 6129              	.LBB4775:
 6130              	.LBB4757:
 6131              	.LBB4733:
 6132              	.LBB4731:
 6133 0d50 7F9D4000 		cmpw 7,29,8
 6134 0d54 41BEFE68 		beq- 7,.L197
 6135              	.LVL435:
 6136              	.LBE4731:
 6137              	.LBE4733:
 6138              	.LBE4757:
 6139              	.LBB4758:
 6140              	.LBB4755:
 6141              	.LBB4753:
 6142              		.loc 3 121 0
 6143 0d58 3400FFFF 		addic. 0,0,-1
 6144              	.LBE4753:
 6145              	.LBE4755:
 6146              	.LBE4758:
 6147              	.LBB4759:
 6148              	.LBB4746:
 6149              		.loc 3 88 0
 6150 0d5c 81270000 		lwz 9,0(7)
 6151              	.LBE4746:
 6152              	.LBE4759:
 6153              	.LBB4760:
 6154              	.LBB4740:
 6155              		.loc 3 200 0
 6156 0d60 7CCB4030 		slw 11,6,8
 6157              	.LBE4740:
 6158              	.LBE4760:
 6159              	.LBB4761:
 6160              	.LBB4747:
 6161              		.loc 3 88 0
 6162 0d64 39080001 		addi 8,8,1
 6163              	.LVL436:
 6164 0d68 7D295878 		andc 9,9,11
 6165 0d6c 91270000 		stw 9,0(7)
 6166              	.LVL437:
 6167              	.LBE4747:
 6168              	.LBE4761:
 6169              	.LBB4762:
 6170              	.LBB4756:
 6171              	.LBB4754:
 6172              		.loc 3 121 0
 6173 0d70 4082FFE0 		bne+ 0,.L243
 6174              	.LVL438:
 6175              	.LBE4754:
 6176              	.LBE4756:
 6177              	.LBE4762:
 6178              	.LBE4775:
 6179              	.LBB4776:
 6180              	.LBB4718:
 6181              	.LBB4705:
 6182              	.LBB4700:
 6183              		.loc 3 154 0
 6184 0d74 394A0004 		addi 10,10,4
 6185 0d78 4BFFFFA0 		b .L193
 6186              	.LVL439:
 6187              	.L265:
 6188              	.LBE4700:
 6189              	.LBE4705:
 6190              	.LBE4718:
 6191              	.LBE4776:
 6192              	.LBE4778:
 6193              	.LBE4898:
 6194              	.LBB4899:
 6195              	.LBB4607:
 6196              	.LBB4604:
 6197              	.LBB4519:
 6198              	.LBB4516:
 6199              	.LBB4513:
 6200              	.LBB4510:
 6201              	.LBB4507:
 6202              		.loc 7 366 0
 6203 0d7c 5418103A 		slwi 24,0,2
 6204 0d80 7F05C378 		mr 5,24
 6205 0d84 48000001 		bl memmove
 6206              	.LVL440:
 6207 0d88 809F0020 		lwz 4,32(31)
 6208 0d8c 4BFFFBDC 		b .L174
 6209              	.LVL441:
 6210              	.L260:
 6211              	.LBE4507:
 6212              	.LBE4510:
 6213              	.LBE4513:
 6214              	.LBE4516:
 6215              	.LBE4519:
 6216              	.LBE4604:
 6217              	.LBE4607:
 6218              	.LBE4899:
 6219              	.LBE4911:
 6220              	.LBB4912:
 6221              	.LBB4330:
 6222              	.LBB4328:
 6223              	.LBB4326:
 6224              	.LBB4324:
 6225              		.loc 3 146 0
 6226 0d90 38860020 		addi 4,6,32
 6227              	.LVL442:
 6228              		.loc 3 147 0
 6229 0d94 3905FFFC 		addi 8,5,-4
 6230              	.LVL443:
 6231 0d98 4BFFFA58 		b .L149
 6232              	.LVL444:
 6233              	.L267:
 6234              	.LBE4324:
 6235              	.LBE4326:
 6236              	.LBE4328:
 6237              	.LBE4330:
 6238              	.LBE4912:
 6239              	.LBB4913:
 6240              	.LBB4900:
 6241              	.LBB4618:
 6242              	.LBB4617:
 6243              	.LBB4616:
 6244              	.LBB4615:
 6245              		.loc 3 146 0
 6246 0d9c 3BA50020 		addi 29,5,32
 6247              	.LVL445:
 6248              		.loc 3 147 0
 6249 0da0 38E3FFFC 		addi 7,3,-4
 6250              	.LVL446:
 6251 0da4 4BFFFC4C 		b .L183
 6252              	.LVL447:
 6253              	.L271:
 6254              	.LBE4615:
 6255              	.LBE4616:
 6256              	.LBE4617:
 6257              	.LBE4618:
 6258              	.LBE4900:
 6259              	.LBB4901:
 6260              	.LBB4794:
 6261              	.LBB4792:
 6262              	.LBB4790:
 6263              	.LBB4788:
 6264              		.loc 3 146 0
 6265 0da8 38A50020 		addi 5,5,32
 6266              	.LVL448:
 6267              		.loc 3 147 0
 6268 0dac 3963FFFC 		addi 11,3,-4
 6269              	.LVL449:
 6270 0db0 4BFFFE1C 		b .L203
 6271              	.LVL450:
 6272              	.L262:
 6273              	.LBE4788:
 6274              	.LBE4790:
 6275              	.LBE4792:
 6276              	.LBE4794:
 6277              	.LBE4901:
 6278              	.LBB4902:
 6279              	.LBB4491:
 6280              		.loc 3 1024 0
 6281 0db4 3C600000 		lis 3,.LC1@ha
 6282 0db8 38630018 		la 3,.LC1@l(3)
 6283 0dbc 48000001 		bl _ZSt20__throw_length_errorPKc
 6284              	.LVL451:
 6285              	.LVL452:
 6286              	.LBE4491:
 6287              	.LBE4902:
 6288              	.LBE4913:
 6289              	.LBE4917:
 6290              	.LBE4921:
 6291              	.LBE4925:
 6292              	.LBE4927:
 6293              	.LBE4930:
 6294              	.LBE4934:
 6295              	.LBE4977:
 6296              	.LBE4982:
 6297              		.cfi_endproc
 6298              	.LFE463:
 6299              		.size	_ZN12BufferCircle6ResizeEi, .-_ZN12BufferCircle6ResizeEi
 6300              		.globl _ZN12BufferCircleC1Ev
 6301              		.set	_ZN12BufferCircleC1Ev,_ZN12BufferCircleC2Ev
 6302              		.globl _ZN12BufferCircleD1Ev
 6303              		.set	_ZN12BufferCircleD1Ev,_ZN12BufferCircleD2Ev
 6304              		.section	.rodata.str1.4,"aMS",@progbits,1
 6305              		.align 2
 6306              	.LC0:
 6307 0000 76656374 		.string	"vector::_M_fill_insert"
 6307      6F723A3A 
 6307      5F4D5F66 
 6307      696C6C5F 
 6307      696E7365 
 6308 0017 00       		.zero	1
 6309              	.LC1:
 6310 0018 76656374 		.string	"vector<bool>::_M_fill_insert"
 6310      6F723C62 
 6310      6F6F6C3E 
 6310      3A3A5F4D 
 6310      5F66696C 
 6311              		.section	".text"
 6312              	.Letext0:
 6313              		.file 9 "d:\\devkitpro\\devkitppc\\bin\\../lib/gcc/powerpc-eabi/4.6.3/../../../../powerpc-eabi/inc
 6314              		.file 10 "d:\\devkitpro\\devkitppc\\bin\\../lib/gcc/powerpc-eabi/4.6.3/../../../../powerpc-eabi/in
 6315              		.file 11 "d:\\devkitpro\\devkitppc\\bin\\../lib/gcc/powerpc-eabi/4.6.3/../../../../powerpc-eabi/in
 6316              		.file 12 "d:\\devkitpro\\devkitppc\\bin\\../lib/gcc/powerpc-eabi/4.6.3/../../../../powerpc-eabi/in
 6317              		.file 13 "d:\\devkitpro\\devkitppc\\bin\\../lib/gcc/powerpc-eabi/4.6.3/../../../../powerpc-eabi/in
 6318              		.file 14 "d:\\devkitpro\\devkitppc\\bin\\../lib/gcc/powerpc-eabi/4.6.3/../../../../powerpc-eabi/in
 6319              		.file 15 "d:\\devkitpro\\devkitppc\\bin\\../lib/gcc/powerpc-eabi/4.6.3/../../../../powerpc-eabi/in
 6320              		.file 16 "d:\\devkitpro\\devkitppc\\bin\\../lib/gcc/powerpc-eabi/4.6.3/../../../../powerpc-eabi/in
 6321              		.file 17 "d:/devkitPro/libogc/include/gctypes.h"
 6322              		.file 18 "d:\\devkitpro\\devkitppc\\bin\\../lib/gcc/powerpc-eabi/4.6.3/../../../../powerpc-eabi/in
 6323              		.file 19 "d:\\devkitpro\\devkitppc\\bin\\../lib/gcc/powerpc-eabi/4.6.3/../../../../powerpc-eabi/in
 6324              		.file 20 "<built-in>"