   1              		.file	"ChangeLog.cpp"
   2              		.section	".text"
   3              	.Ltext0:
   4              		.align 2
   5              		.type	_ZN9ChangeLog16FixChangeLogTextESs.constprop.74, @function
   6              	_ZN9ChangeLog16FixChangeLogTextESs.constprop.74:
   7              	.LFB2053:
   8              		.file 1 "d:/Projects/SaveGameManager/savegame-manager-gx/trunk/source/Network/ChangeLog.cpp"
   9              		.loc 1 235 0
  10              		.cfi_startproc
  11              		.cfi_personality 0,__gxx_personality_v0
  12              		.cfi_lsda 0,.LLSDA2053
  13              	.LVL0:
  14 0000 9421FF78 		stwu 1,-136(1)
  15              	.LCFI0:
  16              		.cfi_def_cfa_offset 136
  17 0004 7C0802A6 		mflr 0
  18 0008 93A1007C 		stw 29,124(1)
  19 000c 7C7D1B78 		mr 29,3
  20              		.cfi_offset 29, -12
  21              		.cfi_register 65, 0
  22              		.loc 1 237 0
  23 0010 3861002C 		addi 3,1,44
  24              	.LVL1:
  25              		.loc 1 235 0
  26 0014 93C10080 		stw 30,128(1)
  27 0018 9001008C 		stw 0,140(1)
  28 001c 7C9E2378 		mr 30,4
  29              		.cfi_offset 65, 4
  30              		.cfi_offset 30, -8
  31 0020 93E10084 		stw 31,132(1)
  32              	.LEHB0:
  33              		.loc 1 237 0
  34              		.cfi_offset 31, -4
  35 0024 48000001 		bl _ZNSsC1ERKSs
  36              	.LEHE0:
  37              	.LVL2:
  38 0028 3C800000 		lis 4,.LC0@ha
  39 002c 38610030 		addi 3,1,48
  40 0030 38840000 		la 4,.LC0@l(4)
  41 0034 38A1001C 		addi 5,1,28
  42              	.LEHB1:
  43 0038 48000001 		bl _ZNSsC1EPKcRKSaIcE
  44              	.LEHE1:
  45 003c 3C800000 		lis 4,.LC1@ha
  46 0040 38610034 		addi 3,1,52
  47 0044 38840008 		la 4,.LC1@l(4)
  48 0048 38A1001D 		addi 5,1,29
  49              	.LEHB2:
  50 004c 48000001 		bl _ZNSsC1EPKcRKSaIcE
  51              	.LEHE2:
  52 0050 38610028 		addi 3,1,40
  53 0054 3881002C 		addi 4,1,44
  54 0058 38A10030 		addi 5,1,48
  55 005c 38C10034 		addi 6,1,52
  56              	.LEHB3:
  57 0060 48000001 		bl _Z13StringReplaceSsSsSs
  58              	.LEHE3:
  59 0064 7FC3F378 		mr 3,30
  60 0068 38810028 		addi 4,1,40
  61              	.LEHB4:
  62 006c 48000001 		bl _ZNSs6assignERKSs
  63              	.LEHE4:
  64              	.LVL3:
  65              	.LBB2095:
  66              	.LBB2096:
  67              	.LBB2097:
  68              	.LBB2098:
  69              	.LBB2099:
  70              	.LBB2100:
  71              		.file 2 "d:\\devkitpro\\devkitppc\\bin\\../lib/gcc/powerpc-eabi/4.6.3/../../../../powerpc-eabi/inc
  72              		.loc 2 288 0
  73 0070 81210028 		lwz 9,40(1)
  74              	.LBE2100:
  75              	.LBE2099:
  76              	.LBE2098:
  77              	.LBB2101:
  78              	.LBB2102:
  79              		.loc 2 235 0
  80 0074 3FE00000 		lis 31,_ZNSs4_Rep20_S_empty_rep_storageE@ha
  81 0078 3BFF0000 		la 31,_ZNSs4_Rep20_S_empty_rep_storageE@l(31)
  82              	.LBE2102:
  83              	.LBE2101:
  84              		.loc 2 534 0
  85 007c 3869FFF4 		addi 3,9,-12
  86              	.LVL4:
  87              	.LBB2111:
  88              	.LBB2109:
  89              		.loc 2 235 0
  90 0080 7F83F800 		cmpw 7,3,31
  91 0084 409E02B0 		bne- 7,.L203
  92              	.LVL5:
  93              	.L7:
  94              	.LBE2109:
  95              	.LBE2111:
  96              	.LBE2097:
  97              	.LBE2096:
  98              	.LBE2095:
  99              	.LBB2115:
 100              	.LBB2116:
 101              	.LBB2117:
 102              	.LBB2118:
 103              	.LBB2119:
 104              	.LBB2120:
 105              		.loc 2 288 0
 106 0088 81210034 		lwz 9,52(1)
 107              	.LBE2120:
 108              	.LBE2119:
 109              	.LBE2118:
 110              		.loc 2 534 0
 111 008c 3869FFF4 		addi 3,9,-12
 112              	.LVL6:
 113              	.LBB2121:
 114              	.LBB2122:
 115              		.loc 2 235 0
 116 0090 7F83F800 		cmpw 7,3,31
 117 0094 409E0500 		bne- 7,.L204
 118              	.LVL7:
 119              	.L15:
 120              	.LBE2122:
 121              	.LBE2121:
 122              	.LBE2117:
 123              	.LBE2116:
 124              	.LBE2115:
 125              	.LBB2133:
 126              	.LBB2134:
 127              	.LBB2135:
 128              	.LBB2136:
 129              	.LBB2137:
 130              	.LBB2138:
 131              		.loc 2 288 0
 132 0098 81210030 		lwz 9,48(1)
 133              	.LBE2138:
 134              	.LBE2137:
 135              	.LBE2136:
 136              		.loc 2 534 0
 137 009c 3869FFF4 		addi 3,9,-12
 138              	.LVL8:
 139              	.LBB2139:
 140              	.LBB2140:
 141              		.loc 2 235 0
 142 00a0 7F83F800 		cmpw 7,3,31
 143 00a4 409E04D0 		bne- 7,.L205
 144              	.LVL9:
 145              	.L23:
 146              	.LBE2140:
 147              	.LBE2139:
 148              	.LBE2135:
 149              	.LBE2134:
 150              	.LBE2133:
 151              	.LBB2151:
 152              	.LBB2152:
 153              	.LBB2153:
 154              	.LBB2154:
 155              	.LBB2155:
 156              	.LBB2156:
 157              		.loc 2 288 0
 158 00a8 8121002C 		lwz 9,44(1)
 159              	.LBE2156:
 160              	.LBE2155:
 161              	.LBE2154:
 162              		.loc 2 534 0
 163 00ac 3869FFF4 		addi 3,9,-12
 164              	.LVL10:
 165              	.LBB2157:
 166              	.LBB2158:
 167              		.loc 2 235 0
 168 00b0 7F83F800 		cmpw 7,3,31
 169 00b4 409E04A0 		bne- 7,.L206
 170              	.LVL11:
 171              	.L29:
 172              	.LBE2158:
 173              	.LBE2157:
 174              	.LBE2153:
 175              	.LBE2152:
 176              	.LBE2151:
 177              		.loc 1 238 0
 178 00b8 3861003C 		addi 3,1,60
 179 00bc 7FC4F378 		mr 4,30
 180              	.LEHB5:
 181 00c0 48000001 		bl _ZNSsC1ERKSs
 182              	.LEHE5:
 183 00c4 3C800000 		lis 4,.LC2@ha
 184 00c8 38610040 		addi 3,1,64
 185 00cc 3884000C 		la 4,.LC2@l(4)
 186 00d0 38A1001E 		addi 5,1,30
 187              	.LEHB6:
 188 00d4 48000001 		bl _ZNSsC1EPKcRKSaIcE
 189              	.LEHE6:
 190 00d8 3C800000 		lis 4,.LC3@ha
 191 00dc 38610044 		addi 3,1,68
 192 00e0 38840014 		la 4,.LC3@l(4)
 193 00e4 38A1001F 		addi 5,1,31
 194              	.LEHB7:
 195 00e8 48000001 		bl _ZNSsC1EPKcRKSaIcE
 196              	.LEHE7:
 197 00ec 38610038 		addi 3,1,56
 198 00f0 3881003C 		addi 4,1,60
 199 00f4 38A10040 		addi 5,1,64
 200 00f8 38C10044 		addi 6,1,68
 201              	.LEHB8:
 202 00fc 48000001 		bl _Z13StringReplaceSsSsSs
 203              	.LEHE8:
 204 0100 7FC3F378 		mr 3,30
 205 0104 38810038 		addi 4,1,56
 206              	.LEHB9:
 207 0108 48000001 		bl _ZNSs6assignERKSs
 208              	.LEHE9:
 209              	.LVL12:
 210              	.LBB2169:
 211              	.LBB2170:
 212              	.LBB2171:
 213              	.LBB2172:
 214              	.LBB2173:
 215              	.LBB2174:
 216              		.loc 2 288 0
 217 010c 81210038 		lwz 9,56(1)
 218              	.LBE2174:
 219              	.LBE2173:
 220              	.LBE2172:
 221              		.loc 2 534 0
 222 0110 3869FFF4 		addi 3,9,-12
 223              	.LVL13:
 224              	.LBB2175:
 225              	.LBB2176:
 226              		.loc 2 235 0
 227 0114 7F83F800 		cmpw 7,3,31
 228 0118 409E041C 		bne- 7,.L207
 229              	.LVL14:
 230              	.L35:
 231              	.LBE2176:
 232              	.LBE2175:
 233              	.LBE2171:
 234              	.LBE2170:
 235              	.LBE2169:
 236              	.LBB2187:
 237              	.LBB2188:
 238              	.LBB2189:
 239              	.LBB2190:
 240              	.LBB2191:
 241              	.LBB2192:
 242              		.loc 2 288 0
 243 011c 81210044 		lwz 9,68(1)
 244              	.LBE2192:
 245              	.LBE2191:
 246              	.LBE2190:
 247              		.loc 2 534 0
 248 0120 3869FFF4 		addi 3,9,-12
 249              	.LVL15:
 250              	.LBB2193:
 251              	.LBB2194:
 252              		.loc 2 235 0
 253 0124 7F83F800 		cmpw 7,3,31
 254 0128 409E03EC 		bne- 7,.L208
 255              	.LVL16:
 256              	.L43:
 257              	.LBE2194:
 258              	.LBE2193:
 259              	.LBE2189:
 260              	.LBE2188:
 261              	.LBE2187:
 262              	.LBB2205:
 263              	.LBB2206:
 264              	.LBB2207:
 265              	.LBB2208:
 266              	.LBB2209:
 267              	.LBB2210:
 268              		.loc 2 288 0
 269 012c 81210040 		lwz 9,64(1)
 270              	.LBE2210:
 271              	.LBE2209:
 272              	.LBE2208:
 273              		.loc 2 534 0
 274 0130 3869FFF4 		addi 3,9,-12
 275              	.LVL17:
 276              	.LBB2211:
 277              	.LBB2212:
 278              		.loc 2 235 0
 279 0134 7F83F800 		cmpw 7,3,31
 280 0138 409E03BC 		bne- 7,.L209
 281              	.LVL18:
 282              	.L51:
 283              	.LBE2212:
 284              	.LBE2211:
 285              	.LBE2207:
 286              	.LBE2206:
 287              	.LBE2205:
 288              	.LBB2223:
 289              	.LBB2224:
 290              	.LBB2225:
 291              	.LBB2226:
 292              	.LBB2227:
 293              	.LBB2228:
 294              		.loc 2 288 0
 295 013c 8121003C 		lwz 9,60(1)
 296              	.LBE2228:
 297              	.LBE2227:
 298              	.LBE2226:
 299              		.loc 2 534 0
 300 0140 3869FFF4 		addi 3,9,-12
 301              	.LVL19:
 302              	.LBB2229:
 303              	.LBB2230:
 304              		.loc 2 235 0
 305 0144 7F83F800 		cmpw 7,3,31
 306 0148 409E038C 		bne- 7,.L210
 307              	.LVL20:
 308              	.L57:
 309              	.LBE2230:
 310              	.LBE2229:
 311              	.LBE2225:
 312              	.LBE2224:
 313              	.LBE2223:
 314              		.loc 1 239 0
 315 014c 3861004C 		addi 3,1,76
 316 0150 7FC4F378 		mr 4,30
 317              	.LEHB10:
 318 0154 48000001 		bl _ZNSsC1ERKSs
 319              	.LEHE10:
 320 0158 3C800000 		lis 4,.LC4@ha
 321 015c 38610050 		addi 3,1,80
 322 0160 38840018 		la 4,.LC4@l(4)
 323 0164 38A10020 		addi 5,1,32
 324              	.LEHB11:
 325 0168 48000001 		bl _ZNSsC1EPKcRKSaIcE
 326              	.LEHE11:
 327 016c 3C800000 		lis 4,.LC5@ha
 328 0170 38610054 		addi 3,1,84
 329 0174 38840020 		la 4,.LC5@l(4)
 330 0178 38A10021 		addi 5,1,33
 331              	.LEHB12:
 332 017c 48000001 		bl _ZNSsC1EPKcRKSaIcE
 333              	.LEHE12:
 334 0180 38610048 		addi 3,1,72
 335 0184 3881004C 		addi 4,1,76
 336 0188 38A10050 		addi 5,1,80
 337 018c 38C10054 		addi 6,1,84
 338              	.LEHB13:
 339 0190 48000001 		bl _Z13StringReplaceSsSsSs
 340              	.LEHE13:
 341 0194 7FC3F378 		mr 3,30
 342 0198 38810048 		addi 4,1,72
 343              	.LEHB14:
 344 019c 48000001 		bl _ZNSs6assignERKSs
 345              	.LEHE14:
 346              	.LVL21:
 347              	.LBB2241:
 348              	.LBB2242:
 349              	.LBB2243:
 350              	.LBB2244:
 351              	.LBB2245:
 352              	.LBB2246:
 353              		.loc 2 288 0
 354 01a0 81210048 		lwz 9,72(1)
 355              	.LBE2246:
 356              	.LBE2245:
 357              	.LBE2244:
 358              		.loc 2 534 0
 359 01a4 3869FFF4 		addi 3,9,-12
 360              	.LVL22:
 361              	.LBB2247:
 362              	.LBB2248:
 363              		.loc 2 235 0
 364 01a8 7F83F800 		cmpw 7,3,31
 365 01ac 409E0308 		bne- 7,.L211
 366              	.LVL23:
 367              	.L63:
 368              	.LBE2248:
 369              	.LBE2247:
 370              	.LBE2243:
 371              	.LBE2242:
 372              	.LBE2241:
 373              	.LBB2259:
 374              	.LBB2260:
 375              	.LBB2261:
 376              	.LBB2262:
 377              	.LBB2263:
 378              	.LBB2264:
 379              		.loc 2 288 0
 380 01b0 81210054 		lwz 9,84(1)
 381              	.LBE2264:
 382              	.LBE2263:
 383              	.LBE2262:
 384              		.loc 2 534 0
 385 01b4 3869FFF4 		addi 3,9,-12
 386              	.LVL24:
 387              	.LBB2265:
 388              	.LBB2266:
 389              		.loc 2 235 0
 390 01b8 7F83F800 		cmpw 7,3,31
 391 01bc 409E02D8 		bne- 7,.L212
 392              	.LVL25:
 393              	.L71:
 394              	.LBE2266:
 395              	.LBE2265:
 396              	.LBE2261:
 397              	.LBE2260:
 398              	.LBE2259:
 399              	.LBB2277:
 400              	.LBB2278:
 401              	.LBB2279:
 402              	.LBB2280:
 403              	.LBB2281:
 404              	.LBB2282:
 405              		.loc 2 288 0
 406 01c0 81210050 		lwz 9,80(1)
 407              	.LBE2282:
 408              	.LBE2281:
 409              	.LBE2280:
 410              		.loc 2 534 0
 411 01c4 3869FFF4 		addi 3,9,-12
 412              	.LVL26:
 413              	.LBB2283:
 414              	.LBB2284:
 415              		.loc 2 235 0
 416 01c8 7F83F800 		cmpw 7,3,31
 417 01cc 409E02A8 		bne- 7,.L213
 418              	.LVL27:
 419              	.L79:
 420              	.LBE2284:
 421              	.LBE2283:
 422              	.LBE2279:
 423              	.LBE2278:
 424              	.LBE2277:
 425              	.LBB2295:
 426              	.LBB2296:
 427              	.LBB2297:
 428              	.LBB2298:
 429              	.LBB2299:
 430              	.LBB2300:
 431              		.loc 2 288 0
 432 01d0 8121004C 		lwz 9,76(1)
 433              	.LBE2300:
 434              	.LBE2299:
 435              	.LBE2298:
 436              		.loc 2 534 0
 437 01d4 3869FFF4 		addi 3,9,-12
 438              	.LVL28:
 439              	.LBB2301:
 440              	.LBB2302:
 441              		.loc 2 235 0
 442 01d8 7F83F800 		cmpw 7,3,31
 443 01dc 409E0278 		bne- 7,.L214
 444              	.LVL29:
 445              	.L85:
 446              	.LBE2302:
 447              	.LBE2301:
 448              	.LBE2297:
 449              	.LBE2296:
 450              	.LBE2295:
 451              		.loc 1 240 0
 452 01e0 3861005C 		addi 3,1,92
 453 01e4 7FC4F378 		mr 4,30
 454              	.LEHB15:
 455 01e8 48000001 		bl _ZNSsC1ERKSs
 456              	.LEHE15:
 457 01ec 3C800000 		lis 4,.LC6@ha
 458 01f0 38610060 		addi 3,1,96
 459 01f4 38840024 		la 4,.LC6@l(4)
 460 01f8 38A10022 		addi 5,1,34
 461              	.LEHB16:
 462 01fc 48000001 		bl _ZNSsC1EPKcRKSaIcE
 463              	.LEHE16:
 464 0200 3C800000 		lis 4,.LC7@ha
 465 0204 38610064 		addi 3,1,100
 466 0208 3884002C 		la 4,.LC7@l(4)
 467 020c 38A10023 		addi 5,1,35
 468              	.LEHB17:
 469 0210 48000001 		bl _ZNSsC1EPKcRKSaIcE
 470              	.LEHE17:
 471 0214 38610058 		addi 3,1,88
 472 0218 3881005C 		addi 4,1,92
 473 021c 38A10060 		addi 5,1,96
 474 0220 38C10064 		addi 6,1,100
 475              	.LEHB18:
 476 0224 48000001 		bl _Z13StringReplaceSsSsSs
 477              	.LEHE18:
 478 0228 7FC3F378 		mr 3,30
 479 022c 38810058 		addi 4,1,88
 480              	.LEHB19:
 481 0230 48000001 		bl _ZNSs6assignERKSs
 482              	.LEHE19:
 483              	.LVL30:
 484              	.LBB2313:
 485              	.LBB2314:
 486              	.LBB2315:
 487              	.LBB2316:
 488              	.LBB2317:
 489              	.LBB2318:
 490              		.loc 2 288 0
 491 0234 81210058 		lwz 9,88(1)
 492              	.LBE2318:
 493              	.LBE2317:
 494              	.LBE2316:
 495              		.loc 2 534 0
 496 0238 3869FFF4 		addi 3,9,-12
 497              	.LVL31:
 498              	.LBB2319:
 499              	.LBB2320:
 500              		.loc 2 235 0
 501 023c 7F83F800 		cmpw 7,3,31
 502 0240 409E01F4 		bne- 7,.L215
 503              	.LVL32:
 504              	.L91:
 505              	.LBE2320:
 506              	.LBE2319:
 507              	.LBE2315:
 508              	.LBE2314:
 509              	.LBE2313:
 510              	.LBB2331:
 511              	.LBB2332:
 512              	.LBB2333:
 513              	.LBB2334:
 514              	.LBB2335:
 515              	.LBB2336:
 516              		.loc 2 288 0
 517 0244 81210064 		lwz 9,100(1)
 518              	.LBE2336:
 519              	.LBE2335:
 520              	.LBE2334:
 521              		.loc 2 534 0
 522 0248 3869FFF4 		addi 3,9,-12
 523              	.LVL33:
 524              	.LBB2337:
 525              	.LBB2338:
 526              		.loc 2 235 0
 527 024c 7F83F800 		cmpw 7,3,31
 528 0250 409E01C4 		bne- 7,.L216
 529              	.LVL34:
 530              	.L99:
 531              	.LBE2338:
 532              	.LBE2337:
 533              	.LBE2333:
 534              	.LBE2332:
 535              	.LBE2331:
 536              	.LBB2349:
 537              	.LBB2350:
 538              	.LBB2351:
 539              	.LBB2352:
 540              	.LBB2353:
 541              	.LBB2354:
 542              		.loc 2 288 0
 543 0254 81210060 		lwz 9,96(1)
 544              	.LBE2354:
 545              	.LBE2353:
 546              	.LBE2352:
 547              		.loc 2 534 0
 548 0258 3869FFF4 		addi 3,9,-12
 549              	.LVL35:
 550              	.LBB2355:
 551              	.LBB2356:
 552              		.loc 2 235 0
 553 025c 7F83F800 		cmpw 7,3,31
 554 0260 409E0194 		bne- 7,.L217
 555              	.LVL36:
 556              	.L107:
 557              	.LBE2356:
 558              	.LBE2355:
 559              	.LBE2351:
 560              	.LBE2350:
 561              	.LBE2349:
 562              	.LBB2367:
 563              	.LBB2368:
 564              	.LBB2369:
 565              	.LBB2370:
 566              	.LBB2371:
 567              	.LBB2372:
 568              		.loc 2 288 0
 569 0264 8121005C 		lwz 9,92(1)
 570              	.LBE2372:
 571              	.LBE2371:
 572              	.LBE2370:
 573              		.loc 2 534 0
 574 0268 3869FFF4 		addi 3,9,-12
 575              	.LVL37:
 576              	.LBB2373:
 577              	.LBB2374:
 578              		.loc 2 235 0
 579 026c 7F83F800 		cmpw 7,3,31
 580 0270 409E0164 		bne- 7,.L218
 581              	.LVL38:
 582              	.L113:
 583              	.LBE2374:
 584              	.LBE2373:
 585              	.LBE2369:
 586              	.LBE2368:
 587              	.LBE2367:
 588              		.loc 1 241 0
 589 0274 3861006C 		addi 3,1,108
 590 0278 7FC4F378 		mr 4,30
 591              	.LEHB20:
 592 027c 48000001 		bl _ZNSsC1ERKSs
 593              	.LEHE20:
 594 0280 3C800000 		lis 4,.LC8@ha
 595 0284 38610070 		addi 3,1,112
 596 0288 38840030 		la 4,.LC8@l(4)
 597 028c 38A10024 		addi 5,1,36
 598              	.LEHB21:
 599 0290 48000001 		bl _ZNSsC1EPKcRKSaIcE
 600              	.LEHE21:
 601 0294 3C800000 		lis 4,.LC9@ha
 602 0298 38610074 		addi 3,1,116
 603 029c 38840038 		la 4,.LC9@l(4)
 604 02a0 38A10025 		addi 5,1,37
 605              	.LEHB22:
 606 02a4 48000001 		bl _ZNSsC1EPKcRKSaIcE
 607              	.LEHE22:
 608 02a8 38610068 		addi 3,1,104
 609 02ac 3881006C 		addi 4,1,108
 610 02b0 38A10070 		addi 5,1,112
 611 02b4 38C10074 		addi 6,1,116
 612              	.LEHB23:
 613 02b8 48000001 		bl _Z13StringReplaceSsSsSs
 614              	.LEHE23:
 615 02bc 7FC3F378 		mr 3,30
 616 02c0 38810068 		addi 4,1,104
 617              	.LEHB24:
 618 02c4 48000001 		bl _ZNSs6assignERKSs
 619              	.LEHE24:
 620              	.LVL39:
 621              	.LBB2385:
 622              	.LBB2386:
 623              	.LBB2387:
 624              	.LBB2388:
 625              	.LBB2389:
 626              	.LBB2390:
 627              		.loc 2 288 0
 628 02c8 81210068 		lwz 9,104(1)
 629              	.LBE2390:
 630              	.LBE2389:
 631              	.LBE2388:
 632              		.loc 2 534 0
 633 02cc 3869FFF4 		addi 3,9,-12
 634              	.LVL40:
 635              	.LBB2391:
 636              	.LBB2392:
 637              		.loc 2 235 0
 638 02d0 7F83F800 		cmpw 7,3,31
 639 02d4 409E00E0 		bne- 7,.L219
 640              	.LVL41:
 641              	.L119:
 642              	.LBE2392:
 643              	.LBE2391:
 644              	.LBE2387:
 645              	.LBE2386:
 646              	.LBE2385:
 647              	.LBB2403:
 648              	.LBB2404:
 649              	.LBB2405:
 650              	.LBB2406:
 651              	.LBB2407:
 652              	.LBB2408:
 653              		.loc 2 288 0
 654 02d8 81210074 		lwz 9,116(1)
 655              	.LBE2408:
 656              	.LBE2407:
 657              	.LBE2406:
 658              		.loc 2 534 0
 659 02dc 3869FFF4 		addi 3,9,-12
 660              	.LVL42:
 661              	.LBB2409:
 662              	.LBB2410:
 663              		.loc 2 235 0
 664 02e0 7F83F800 		cmpw 7,3,31
 665 02e4 409E00B0 		bne- 7,.L220
 666              	.LVL43:
 667              	.L127:
 668              	.LBE2410:
 669              	.LBE2409:
 670              	.LBE2405:
 671              	.LBE2404:
 672              	.LBE2403:
 673              	.LBB2421:
 674              	.LBB2422:
 675              	.LBB2423:
 676              	.LBB2424:
 677              	.LBB2425:
 678              	.LBB2426:
 679              		.loc 2 288 0
 680 02e8 81210070 		lwz 9,112(1)
 681              	.LBE2426:
 682              	.LBE2425:
 683              	.LBE2424:
 684              		.loc 2 534 0
 685 02ec 3869FFF4 		addi 3,9,-12
 686              	.LVL44:
 687              	.LBB2427:
 688              	.LBB2428:
 689              		.loc 2 235 0
 690 02f0 7F83F800 		cmpw 7,3,31
 691 02f4 409E0080 		bne- 7,.L221
 692              	.LVL45:
 693              	.L135:
 694              	.LBE2428:
 695              	.LBE2427:
 696              	.LBE2423:
 697              	.LBE2422:
 698              	.LBE2421:
 699              	.LBB2439:
 700              	.LBB2440:
 701              	.LBB2441:
 702              	.LBB2442:
 703              	.LBB2443:
 704              	.LBB2444:
 705              		.loc 2 288 0
 706 02f8 8121006C 		lwz 9,108(1)
 707              	.LBE2444:
 708              	.LBE2443:
 709              	.LBE2442:
 710              		.loc 2 534 0
 711 02fc 3869FFF4 		addi 3,9,-12
 712              	.LVL46:
 713              	.LBB2445:
 714              	.LBB2446:
 715              		.loc 2 235 0
 716 0300 7F83F800 		cmpw 7,3,31
 717 0304 409E0050 		bne- 7,.L222
 718              	.LVL47:
 719              	.L141:
 720              	.LBE2446:
 721              	.LBE2445:
 722              	.LBE2441:
 723              	.LBE2440:
 724              	.LBE2439:
 725              		.loc 1 243 0
 726 0308 7FA3EB78 		mr 3,29
 727 030c 7FC4F378 		mr 4,30
 728              	.LEHB25:
 729 0310 48000001 		bl _ZNSsC1ERKSs
 730              		.loc 1 244 0
 731 0314 8001008C 		lwz 0,140(1)
 732 0318 7FA3EB78 		mr 3,29
 733 031c 83C10080 		lwz 30,128(1)
 734              	.LVL48:
 735 0320 7C0803A6 		mtlr 0
 736 0324 83A1007C 		lwz 29,124(1)
 737              	.LVL49:
 738 0328 83E10084 		lwz 31,132(1)
 739 032c 38210088 		addi 1,1,136
 740              		.cfi_remember_state
 741              	.LCFI1:
 742              		.cfi_def_cfa_offset 0
 743              		.cfi_restore 31
 744              		.cfi_restore 30
 745              		.cfi_restore 29
 746 0330 4E800020 		blr
 747              	.LVL50:
 748              	.L203:
 749              	.LCFI2:
 750              		.cfi_restore_state
 751              	.LBB2457:
 752              	.LBB2114:
 753              	.LBB2113:
 754              	.LBB2112:
 755              	.LBB2110:
 756              	.LBB2103:
 757              	.LBB2104:
 758              	.LBB2105:
 759              		.file 3 "d:\\devkitpro\\devkitppc\\bin\\../lib/gcc/powerpc-eabi/4.6.3/../../../../powerpc-eabi/inc
 760              		.loc 3 66 0
 761 0334 8169FFFC 		lwz 11,-4(9)
 762              	.LVL51:
 763              	.LBE2105:
 764              	.LBE2104:
 765              	.LBE2103:
 766              		.loc 2 240 0
 767 0338 2F8B0000 		cmpwi 7,11,0
 768              	.LBB2108:
 769              	.LBB2107:
 770              	.LBB2106:
 771              		.loc 3 67 0
 772 033c 396BFFFF 		addi 11,11,-1
 773 0340 9169FFFC 		stw 11,-4(9)
 774              	.LBE2106:
 775              	.LBE2107:
 776              	.LBE2108:
 777              		.loc 2 240 0
 778 0344 419DFD44 		bgt+ 7,.L7
 779              		.loc 2 244 0
 780 0348 3881001B 		addi 4,1,27
 781 034c 48000001 		bl _ZNSs4_Rep10_M_destroyERKSaIcE
 782              	.LVL52:
 783 0350 4BFFFD38 		b .L7
 784              	.LVL53:
 785              	.L222:
 786              	.LBE2110:
 787              	.LBE2112:
 788              	.LBE2113:
 789              	.LBE2114:
 790              	.LBE2457:
 791              	.LBB2458:
 792              	.LBB2456:
 793              	.LBB2455:
 794              	.LBB2454:
 795              	.LBB2453:
 796              	.LBB2447:
 797              	.LBB2448:
 798              	.LBB2449:
 799              		.loc 3 66 0
 800 0354 8169FFFC 		lwz 11,-4(9)
 801              	.LVL54:
 802              	.LBE2449:
 803              	.LBE2448:
 804              	.LBE2447:
 805              		.loc 2 240 0
 806 0358 2F8B0000 		cmpwi 7,11,0
 807              	.LBB2452:
 808              	.LBB2451:
 809              	.LBB2450:
 810              		.loc 3 67 0
 811 035c 396BFFFF 		addi 11,11,-1
 812 0360 9169FFFC 		stw 11,-4(9)
 813              	.LBE2450:
 814              	.LBE2451:
 815              	.LBE2452:
 816              		.loc 2 240 0
 817 0364 419DFFA4 		bgt+ 7,.L141
 818              		.loc 2 244 0
 819 0368 38810008 		addi 4,1,8
 820 036c 48000001 		bl _ZNSs4_Rep10_M_destroyERKSaIcE
 821              	.LVL55:
 822 0370 4BFFFF98 		b .L141
 823              	.LVL56:
 824              	.L221:
 825              	.LBE2453:
 826              	.LBE2454:
 827              	.LBE2455:
 828              	.LBE2456:
 829              	.LBE2458:
 830              	.LBB2459:
 831              	.LBB2438:
 832              	.LBB2437:
 833              	.LBB2436:
 834              	.LBB2435:
 835              	.LBB2429:
 836              	.LBB2430:
 837              	.LBB2431:
 838              		.loc 3 66 0
 839 0374 8169FFFC 		lwz 11,-4(9)
 840              	.LVL57:
 841              	.LBE2431:
 842              	.LBE2430:
 843              	.LBE2429:
 844              		.loc 2 240 0
 845 0378 2F8B0000 		cmpwi 7,11,0
 846              	.LBB2434:
 847              	.LBB2433:
 848              	.LBB2432:
 849              		.loc 3 67 0
 850 037c 396BFFFF 		addi 11,11,-1
 851 0380 9169FFFC 		stw 11,-4(9)
 852              	.LBE2432:
 853              	.LBE2433:
 854              	.LBE2434:
 855              		.loc 2 240 0
 856 0384 419DFF74 		bgt+ 7,.L135
 857              		.loc 2 244 0
 858 0388 38810009 		addi 4,1,9
 859 038c 48000001 		bl _ZNSs4_Rep10_M_destroyERKSaIcE
 860              	.LVL58:
 861 0390 4BFFFF68 		b .L135
 862              	.LVL59:
 863              	.L220:
 864              	.LBE2435:
 865              	.LBE2436:
 866              	.LBE2437:
 867              	.LBE2438:
 868              	.LBE2459:
 869              	.LBB2460:
 870              	.LBB2420:
 871              	.LBB2419:
 872              	.LBB2418:
 873              	.LBB2417:
 874              	.LBB2411:
 875              	.LBB2412:
 876              	.LBB2413:
 877              		.loc 3 66 0
 878 0394 8169FFFC 		lwz 11,-4(9)
 879              	.LVL60:
 880              	.LBE2413:
 881              	.LBE2412:
 882              	.LBE2411:
 883              		.loc 2 240 0
 884 0398 2F8B0000 		cmpwi 7,11,0
 885              	.LBB2416:
 886              	.LBB2415:
 887              	.LBB2414:
 888              		.loc 3 67 0
 889 039c 396BFFFF 		addi 11,11,-1
 890 03a0 9169FFFC 		stw 11,-4(9)
 891              	.LBE2414:
 892              	.LBE2415:
 893              	.LBE2416:
 894              		.loc 2 240 0
 895 03a4 419DFF44 		bgt+ 7,.L127
 896              		.loc 2 244 0
 897 03a8 3881000A 		addi 4,1,10
 898 03ac 48000001 		bl _ZNSs4_Rep10_M_destroyERKSaIcE
 899              	.LVL61:
 900 03b0 4BFFFF38 		b .L127
 901              	.LVL62:
 902              	.L219:
 903              	.LBE2417:
 904              	.LBE2418:
 905              	.LBE2419:
 906              	.LBE2420:
 907              	.LBE2460:
 908              	.LBB2461:
 909              	.LBB2402:
 910              	.LBB2401:
 911              	.LBB2400:
 912              	.LBB2399:
 913              	.LBB2393:
 914              	.LBB2394:
 915              	.LBB2395:
 916              		.loc 3 66 0
 917 03b4 8169FFFC 		lwz 11,-4(9)
 918              	.LVL63:
 919              	.LBE2395:
 920              	.LBE2394:
 921              	.LBE2393:
 922              		.loc 2 240 0
 923 03b8 2F8B0000 		cmpwi 7,11,0
 924              	.LBB2398:
 925              	.LBB2397:
 926              	.LBB2396:
 927              		.loc 3 67 0
 928 03bc 396BFFFF 		addi 11,11,-1
 929 03c0 9169FFFC 		stw 11,-4(9)
 930              	.LBE2396:
 931              	.LBE2397:
 932              	.LBE2398:
 933              		.loc 2 240 0
 934 03c4 419DFF14 		bgt+ 7,.L119
 935              		.loc 2 244 0
 936 03c8 3881000B 		addi 4,1,11
 937 03cc 48000001 		bl _ZNSs4_Rep10_M_destroyERKSaIcE
 938              	.LVL64:
 939 03d0 4BFFFF08 		b .L119
 940              	.LVL65:
 941              	.L218:
 942              	.LBE2399:
 943              	.LBE2400:
 944              	.LBE2401:
 945              	.LBE2402:
 946              	.LBE2461:
 947              	.LBB2462:
 948              	.LBB2384:
 949              	.LBB2383:
 950              	.LBB2382:
 951              	.LBB2381:
 952              	.LBB2375:
 953              	.LBB2376:
 954              	.LBB2377:
 955              		.loc 3 66 0
 956 03d4 8169FFFC 		lwz 11,-4(9)
 957              	.LVL66:
 958              	.LBE2377:
 959              	.LBE2376:
 960              	.LBE2375:
 961              		.loc 2 240 0
 962 03d8 2F8B0000 		cmpwi 7,11,0
 963              	.LBB2380:
 964              	.LBB2379:
 965              	.LBB2378:
 966              		.loc 3 67 0
 967 03dc 396BFFFF 		addi 11,11,-1
 968 03e0 9169FFFC 		stw 11,-4(9)
 969              	.LBE2378:
 970              	.LBE2379:
 971              	.LBE2380:
 972              		.loc 2 240 0
 973 03e4 419DFE90 		bgt+ 7,.L113
 974              		.loc 2 244 0
 975 03e8 3881000C 		addi 4,1,12
 976 03ec 48000001 		bl _ZNSs4_Rep10_M_destroyERKSaIcE
 977              	.LVL67:
 978 03f0 4BFFFE84 		b .L113
 979              	.LVL68:
 980              	.L217:
 981              	.LBE2381:
 982              	.LBE2382:
 983              	.LBE2383:
 984              	.LBE2384:
 985              	.LBE2462:
 986              	.LBB2463:
 987              	.LBB2366:
 988              	.LBB2365:
 989              	.LBB2364:
 990              	.LBB2363:
 991              	.LBB2357:
 992              	.LBB2358:
 993              	.LBB2359:
 994              		.loc 3 66 0
 995 03f4 8169FFFC 		lwz 11,-4(9)
 996              	.LVL69:
 997              	.LBE2359:
 998              	.LBE2358:
 999              	.LBE2357:
 1000              		.loc 2 240 0
 1001 03f8 2F8B0000 		cmpwi 7,11,0
 1002              	.LBB2362:
 1003              	.LBB2361:
 1004              	.LBB2360:
 1005              		.loc 3 67 0
 1006 03fc 396BFFFF 		addi 11,11,-1
 1007 0400 9169FFFC 		stw 11,-4(9)
 1008              	.LBE2360:
 1009              	.LBE2361:
 1010              	.LBE2362:
 1011              		.loc 2 240 0
 1012 0404 419DFE60 		bgt+ 7,.L107
 1013              		.loc 2 244 0
 1014 0408 3881000D 		addi 4,1,13
 1015 040c 48000001 		bl _ZNSs4_Rep10_M_destroyERKSaIcE
 1016              	.LVL70:
 1017 0410 4BFFFE54 		b .L107
 1018              	.LVL71:
 1019              	.L216:
 1020              	.LBE2363:
 1021              	.LBE2364:
 1022              	.LBE2365:
 1023              	.LBE2366:
 1024              	.LBE2463:
 1025              	.LBB2464:
 1026              	.LBB2348:
 1027              	.LBB2347:
 1028              	.LBB2346:
 1029              	.LBB2345:
 1030              	.LBB2339:
 1031              	.LBB2340:
 1032              	.LBB2341:
 1033              		.loc 3 66 0
 1034 0414 8169FFFC 		lwz 11,-4(9)
 1035              	.LVL72:
 1036              	.LBE2341:
 1037              	.LBE2340:
 1038              	.LBE2339:
 1039              		.loc 2 240 0
 1040 0418 2F8B0000 		cmpwi 7,11,0
 1041              	.LBB2344:
 1042              	.LBB2343:
 1043              	.LBB2342:
 1044              		.loc 3 67 0
 1045 041c 396BFFFF 		addi 11,11,-1
 1046 0420 9169FFFC 		stw 11,-4(9)
 1047              	.LBE2342:
 1048              	.LBE2343:
 1049              	.LBE2344:
 1050              		.loc 2 240 0
 1051 0424 419DFE30 		bgt+ 7,.L99
 1052              		.loc 2 244 0
 1053 0428 3881000E 		addi 4,1,14
 1054 042c 48000001 		bl _ZNSs4_Rep10_M_destroyERKSaIcE
 1055              	.LVL73:
 1056 0430 4BFFFE24 		b .L99
 1057              	.LVL74:
 1058              	.L215:
 1059              	.LBE2345:
 1060              	.LBE2346:
 1061              	.LBE2347:
 1062              	.LBE2348:
 1063              	.LBE2464:
 1064              	.LBB2465:
 1065              	.LBB2330:
 1066              	.LBB2329:
 1067              	.LBB2328:
 1068              	.LBB2327:
 1069              	.LBB2321:
 1070              	.LBB2322:
 1071              	.LBB2323:
 1072              		.loc 3 66 0
 1073 0434 8169FFFC 		lwz 11,-4(9)
 1074              	.LVL75:
 1075              	.LBE2323:
 1076              	.LBE2322:
 1077              	.LBE2321:
 1078              		.loc 2 240 0
 1079 0438 2F8B0000 		cmpwi 7,11,0
 1080              	.LBB2326:
 1081              	.LBB2325:
 1082              	.LBB2324:
 1083              		.loc 3 67 0
 1084 043c 396BFFFF 		addi 11,11,-1
 1085 0440 9169FFFC 		stw 11,-4(9)
 1086              	.LBE2324:
 1087              	.LBE2325:
 1088              	.LBE2326:
 1089              		.loc 2 240 0
 1090 0444 419DFE00 		bgt+ 7,.L91
 1091              		.loc 2 244 0
 1092 0448 3881000F 		addi 4,1,15
 1093 044c 48000001 		bl _ZNSs4_Rep10_M_destroyERKSaIcE
 1094              	.LVL76:
 1095 0450 4BFFFDF4 		b .L91
 1096              	.LVL77:
 1097              	.L214:
 1098              	.LBE2327:
 1099              	.LBE2328:
 1100              	.LBE2329:
 1101              	.LBE2330:
 1102              	.LBE2465:
 1103              	.LBB2466:
 1104              	.LBB2312:
 1105              	.LBB2311:
 1106              	.LBB2310:
 1107              	.LBB2309:
 1108              	.LBB2303:
 1109              	.LBB2304:
 1110              	.LBB2305:
 1111              		.loc 3 66 0
 1112 0454 8169FFFC 		lwz 11,-4(9)
 1113              	.LVL78:
 1114              	.LBE2305:
 1115              	.LBE2304:
 1116              	.LBE2303:
 1117              		.loc 2 240 0
 1118 0458 2F8B0000 		cmpwi 7,11,0
 1119              	.LBB2308:
 1120              	.LBB2307:
 1121              	.LBB2306:
 1122              		.loc 3 67 0
 1123 045c 396BFFFF 		addi 11,11,-1
 1124 0460 9169FFFC 		stw 11,-4(9)
 1125              	.LBE2306:
 1126              	.LBE2307:
 1127              	.LBE2308:
 1128              		.loc 2 240 0
 1129 0464 419DFD7C 		bgt+ 7,.L85
 1130              		.loc 2 244 0
 1131 0468 38810010 		addi 4,1,16
 1132 046c 48000001 		bl _ZNSs4_Rep10_M_destroyERKSaIcE
 1133              	.LVL79:
 1134 0470 4BFFFD70 		b .L85
 1135              	.LVL80:
 1136              	.L213:
 1137              	.LBE2309:
 1138              	.LBE2310:
 1139              	.LBE2311:
 1140              	.LBE2312:
 1141              	.LBE2466:
 1142              	.LBB2467:
 1143              	.LBB2294:
 1144              	.LBB2293:
 1145              	.LBB2292:
 1146              	.LBB2291:
 1147              	.LBB2285:
 1148              	.LBB2286:
 1149              	.LBB2287:
 1150              		.loc 3 66 0
 1151 0474 8169FFFC 		lwz 11,-4(9)
 1152              	.LVL81:
 1153              	.LBE2287:
 1154              	.LBE2286:
 1155              	.LBE2285:
 1156              		.loc 2 240 0
 1157 0478 2F8B0000 		cmpwi 7,11,0
 1158              	.LBB2290:
 1159              	.LBB2289:
 1160              	.LBB2288:
 1161              		.loc 3 67 0
 1162 047c 396BFFFF 		addi 11,11,-1
 1163 0480 9169FFFC 		stw 11,-4(9)
 1164              	.LBE2288:
 1165              	.LBE2289:
 1166              	.LBE2290:
 1167              		.loc 2 240 0
 1168 0484 419DFD4C 		bgt+ 7,.L79
 1169              		.loc 2 244 0
 1170 0488 38810011 		addi 4,1,17
 1171 048c 48000001 		bl _ZNSs4_Rep10_M_destroyERKSaIcE
 1172              	.LVL82:
 1173 0490 4BFFFD40 		b .L79
 1174              	.LVL83:
 1175              	.L212:
 1176              	.LBE2291:
 1177              	.LBE2292:
 1178              	.LBE2293:
 1179              	.LBE2294:
 1180              	.LBE2467:
 1181              	.LBB2468:
 1182              	.LBB2276:
 1183              	.LBB2275:
 1184              	.LBB2274:
 1185              	.LBB2273:
 1186              	.LBB2267:
 1187              	.LBB2268:
 1188              	.LBB2269:
 1189              		.loc 3 66 0
 1190 0494 8169FFFC 		lwz 11,-4(9)
 1191              	.LVL84:
 1192              	.LBE2269:
 1193              	.LBE2268:
 1194              	.LBE2267:
 1195              		.loc 2 240 0
 1196 0498 2F8B0000 		cmpwi 7,11,0
 1197              	.LBB2272:
 1198              	.LBB2271:
 1199              	.LBB2270:
 1200              		.loc 3 67 0
 1201 049c 396BFFFF 		addi 11,11,-1
 1202 04a0 9169FFFC 		stw 11,-4(9)
 1203              	.LBE2270:
 1204              	.LBE2271:
 1205              	.LBE2272:
 1206              		.loc 2 240 0
 1207 04a4 419DFD1C 		bgt+ 7,.L71
 1208              		.loc 2 244 0
 1209 04a8 38810012 		addi 4,1,18
 1210 04ac 48000001 		bl _ZNSs4_Rep10_M_destroyERKSaIcE
 1211              	.LVL85:
 1212 04b0 4BFFFD10 		b .L71
 1213              	.LVL86:
 1214              	.L211:
 1215              	.LBE2273:
 1216              	.LBE2274:
 1217              	.LBE2275:
 1218              	.LBE2276:
 1219              	.LBE2468:
 1220              	.LBB2469:
 1221              	.LBB2258:
 1222              	.LBB2257:
 1223              	.LBB2256:
 1224              	.LBB2255:
 1225              	.LBB2249:
 1226              	.LBB2250:
 1227              	.LBB2251:
 1228              		.loc 3 66 0
 1229 04b4 8169FFFC 		lwz 11,-4(9)
 1230              	.LVL87:
 1231              	.LBE2251:
 1232              	.LBE2250:
 1233              	.LBE2249:
 1234              		.loc 2 240 0
 1235 04b8 2F8B0000 		cmpwi 7,11,0
 1236              	.LBB2254:
 1237              	.LBB2253:
 1238              	.LBB2252:
 1239              		.loc 3 67 0
 1240 04bc 396BFFFF 		addi 11,11,-1
 1241 04c0 9169FFFC 		stw 11,-4(9)
 1242              	.LBE2252:
 1243              	.LBE2253:
 1244              	.LBE2254:
 1245              		.loc 2 240 0
 1246 04c4 419DFCEC 		bgt+ 7,.L63
 1247              		.loc 2 244 0
 1248 04c8 38810013 		addi 4,1,19
 1249 04cc 48000001 		bl _ZNSs4_Rep10_M_destroyERKSaIcE
 1250              	.LVL88:
 1251 04d0 4BFFFCE0 		b .L63
 1252              	.LVL89:
 1253              	.L210:
 1254              	.LBE2255:
 1255              	.LBE2256:
 1256              	.LBE2257:
 1257              	.LBE2258:
 1258              	.LBE2469:
 1259              	.LBB2470:
 1260              	.LBB2240:
 1261              	.LBB2239:
 1262              	.LBB2238:
 1263              	.LBB2237:
 1264              	.LBB2231:
 1265              	.LBB2232:
 1266              	.LBB2233:
 1267              		.loc 3 66 0
 1268 04d4 8169FFFC 		lwz 11,-4(9)
 1269              	.LVL90:
 1270              	.LBE2233:
 1271              	.LBE2232:
 1272              	.LBE2231:
 1273              		.loc 2 240 0
 1274 04d8 2F8B0000 		cmpwi 7,11,0
 1275              	.LBB2236:
 1276              	.LBB2235:
 1277              	.LBB2234:
 1278              		.loc 3 67 0
 1279 04dc 396BFFFF 		addi 11,11,-1
 1280 04e0 9169FFFC 		stw 11,-4(9)
 1281              	.LBE2234:
 1282              	.LBE2235:
 1283              	.LBE2236:
 1284              		.loc 2 240 0
 1285 04e4 419DFC68 		bgt+ 7,.L57
 1286              		.loc 2 244 0
 1287 04e8 38810014 		addi 4,1,20
 1288 04ec 48000001 		bl _ZNSs4_Rep10_M_destroyERKSaIcE
 1289              	.LVL91:
 1290 04f0 4BFFFC5C 		b .L57
 1291              	.LVL92:
 1292              	.L209:
 1293              	.LBE2237:
 1294              	.LBE2238:
 1295              	.LBE2239:
 1296              	.LBE2240:
 1297              	.LBE2470:
 1298              	.LBB2471:
 1299              	.LBB2222:
 1300              	.LBB2221:
 1301              	.LBB2220:
 1302              	.LBB2219:
 1303              	.LBB2213:
 1304              	.LBB2214:
 1305              	.LBB2215:
 1306              		.loc 3 66 0
 1307 04f4 8169FFFC 		lwz 11,-4(9)
 1308              	.LVL93:
 1309              	.LBE2215:
 1310              	.LBE2214:
 1311              	.LBE2213:
 1312              		.loc 2 240 0
 1313 04f8 2F8B0000 		cmpwi 7,11,0
 1314              	.LBB2218:
 1315              	.LBB2217:
 1316              	.LBB2216:
 1317              		.loc 3 67 0
 1318 04fc 396BFFFF 		addi 11,11,-1
 1319 0500 9169FFFC 		stw 11,-4(9)
 1320              	.LBE2216:
 1321              	.LBE2217:
 1322              	.LBE2218:
 1323              		.loc 2 240 0
 1324 0504 419DFC38 		bgt+ 7,.L51
 1325              		.loc 2 244 0
 1326 0508 38810015 		addi 4,1,21
 1327 050c 48000001 		bl _ZNSs4_Rep10_M_destroyERKSaIcE
 1328              	.LVL94:
 1329 0510 4BFFFC2C 		b .L51
 1330              	.LVL95:
 1331              	.L208:
 1332              	.LBE2219:
 1333              	.LBE2220:
 1334              	.LBE2221:
 1335              	.LBE2222:
 1336              	.LBE2471:
 1337              	.LBB2472:
 1338              	.LBB2204:
 1339              	.LBB2203:
 1340              	.LBB2202:
 1341              	.LBB2201:
 1342              	.LBB2195:
 1343              	.LBB2196:
 1344              	.LBB2197:
 1345              		.loc 3 66 0
 1346 0514 8169FFFC 		lwz 11,-4(9)
 1347              	.LVL96:
 1348              	.LBE2197:
 1349              	.LBE2196:
 1350              	.LBE2195:
 1351              		.loc 2 240 0
 1352 0518 2F8B0000 		cmpwi 7,11,0
 1353              	.LBB2200:
 1354              	.LBB2199:
 1355              	.LBB2198:
 1356              		.loc 3 67 0
 1357 051c 396BFFFF 		addi 11,11,-1
 1358 0520 9169FFFC 		stw 11,-4(9)
 1359              	.LBE2198:
 1360              	.LBE2199:
 1361              	.LBE2200:
 1362              		.loc 2 240 0
 1363 0524 419DFC08 		bgt+ 7,.L43
 1364              		.loc 2 244 0
 1365 0528 38810016 		addi 4,1,22
 1366 052c 48000001 		bl _ZNSs4_Rep10_M_destroyERKSaIcE
 1367              	.LVL97:
 1368 0530 4BFFFBFC 		b .L43
 1369              	.LVL98:
 1370              	.L207:
 1371              	.LBE2201:
 1372              	.LBE2202:
 1373              	.LBE2203:
 1374              	.LBE2204:
 1375              	.LBE2472:
 1376              	.LBB2473:
 1377              	.LBB2186:
 1378              	.LBB2185:
 1379              	.LBB2184:
 1380              	.LBB2183:
 1381              	.LBB2177:
 1382              	.LBB2178:
 1383              	.LBB2179:
 1384              		.loc 3 66 0
 1385 0534 8169FFFC 		lwz 11,-4(9)
 1386              	.LVL99:
 1387              	.LBE2179:
 1388              	.LBE2178:
 1389              	.LBE2177:
 1390              		.loc 2 240 0
 1391 0538 2F8B0000 		cmpwi 7,11,0
 1392              	.LBB2182:
 1393              	.LBB2181:
 1394              	.LBB2180:
 1395              		.loc 3 67 0
 1396 053c 396BFFFF 		addi 11,11,-1
 1397 0540 9169FFFC 		stw 11,-4(9)
 1398              	.LBE2180:
 1399              	.LBE2181:
 1400              	.LBE2182:
 1401              		.loc 2 240 0
 1402 0544 419DFBD8 		bgt+ 7,.L35
 1403              		.loc 2 244 0
 1404 0548 38810017 		addi 4,1,23
 1405 054c 48000001 		bl _ZNSs4_Rep10_M_destroyERKSaIcE
 1406              	.LVL100:
 1407 0550 4BFFFBCC 		b .L35
 1408              	.LVL101:
 1409              	.L206:
 1410              	.LBE2183:
 1411              	.LBE2184:
 1412              	.LBE2185:
 1413              	.LBE2186:
 1414              	.LBE2473:
 1415              	.LBB2474:
 1416              	.LBB2168:
 1417              	.LBB2167:
 1418              	.LBB2166:
 1419              	.LBB2165:
 1420              	.LBB2159:
 1421              	.LBB2160:
 1422              	.LBB2161:
 1423              		.loc 3 66 0
 1424 0554 8169FFFC 		lwz 11,-4(9)
 1425              	.LVL102:
 1426              	.LBE2161:
 1427              	.LBE2160:
 1428              	.LBE2159:
 1429              		.loc 2 240 0
 1430 0558 2F8B0000 		cmpwi 7,11,0
 1431              	.LBB2164:
 1432              	.LBB2163:
 1433              	.LBB2162:
 1434              		.loc 3 67 0
 1435 055c 396BFFFF 		addi 11,11,-1
 1436 0560 9169FFFC 		stw 11,-4(9)
 1437              	.LBE2162:
 1438              	.LBE2163:
 1439              	.LBE2164:
 1440              		.loc 2 240 0
 1441 0564 419DFB54 		bgt+ 7,.L29
 1442              		.loc 2 244 0
 1443 0568 38810018 		addi 4,1,24
 1444 056c 48000001 		bl _ZNSs4_Rep10_M_destroyERKSaIcE
 1445              	.LVL103:
 1446 0570 4BFFFB48 		b .L29
 1447              	.LVL104:
 1448              	.L205:
 1449              	.LBE2165:
 1450              	.LBE2166:
 1451              	.LBE2167:
 1452              	.LBE2168:
 1453              	.LBE2474:
 1454              	.LBB2475:
 1455              	.LBB2150:
 1456              	.LBB2149:
 1457              	.LBB2148:
 1458              	.LBB2147:
 1459              	.LBB2141:
 1460              	.LBB2142:
 1461              	.LBB2143:
 1462              		.loc 3 66 0
 1463 0574 8169FFFC 		lwz 11,-4(9)
 1464              	.LVL105:
 1465              	.LBE2143:
 1466              	.LBE2142:
 1467              	.LBE2141:
 1468              		.loc 2 240 0
 1469 0578 2F8B0000 		cmpwi 7,11,0
 1470              	.LBB2146:
 1471              	.LBB2145:
 1472              	.LBB2144:
 1473              		.loc 3 67 0
 1474 057c 396BFFFF 		addi 11,11,-1
 1475 0580 9169FFFC 		stw 11,-4(9)
 1476              	.LBE2144:
 1477              	.LBE2145:
 1478              	.LBE2146:
 1479              		.loc 2 240 0
 1480 0584 419DFB24 		bgt+ 7,.L23
 1481              		.loc 2 244 0
 1482 0588 38810019 		addi 4,1,25
 1483 058c 48000001 		bl _ZNSs4_Rep10_M_destroyERKSaIcE
 1484              	.LVL106:
 1485 0590 4BFFFB18 		b .L23
 1486              	.LVL107:
 1487              	.L204:
 1488              	.LBE2147:
 1489              	.LBE2148:
 1490              	.LBE2149:
 1491              	.LBE2150:
 1492              	.LBE2475:
 1493              	.LBB2476:
 1494              	.LBB2132:
 1495              	.LBB2131:
 1496              	.LBB2130:
 1497              	.LBB2129:
 1498              	.LBB2123:
 1499              	.LBB2124:
 1500              	.LBB2125:
 1501              		.loc 3 66 0
 1502 0594 8169FFFC 		lwz 11,-4(9)
 1503              	.LVL108:
 1504              	.LBE2125:
 1505              	.LBE2124:
 1506              	.LBE2123:
 1507              		.loc 2 240 0
 1508 0598 2F8B0000 		cmpwi 7,11,0
 1509              	.LBB2128:
 1510              	.LBB2127:
 1511              	.LBB2126:
 1512              		.loc 3 67 0
 1513 059c 396BFFFF 		addi 11,11,-1
 1514 05a0 9169FFFC 		stw 11,-4(9)
 1515              	.LBE2126:
 1516              	.LBE2127:
 1517              	.LBE2128:
 1518              		.loc 2 240 0
 1519 05a4 419DFAF4 		bgt+ 7,.L15
 1520              		.loc 2 244 0
 1521 05a8 3881001A 		addi 4,1,26
 1522 05ac 48000001 		bl _ZNSs4_Rep10_M_destroyERKSaIcE
 1523              	.LVL109:
 1524 05b0 4BFFFAE8 		b .L15
 1525              	.LVL110:
 1526              	.L200:
 1527 05b4 7C7F1B78 		mr 31,3
 1528              	.L143:
 1529              	.LBE2129:
 1530              	.LBE2130:
 1531              	.LBE2131:
 1532              	.LBE2132:
 1533              	.LBE2476:
 1534              		.loc 1 237 0
 1535 05b8 38610034 		addi 3,1,52
 1536 05bc 48000001 		bl _ZNSsD1Ev
 1537              	.L146:
 1538 05c0 38610030 		addi 3,1,48
 1539 05c4 48000001 		bl _ZNSsD1Ev
 1540              	.L149:
 1541 05c8 3861002C 		addi 3,1,44
 1542 05cc 48000001 		bl _ZNSsD1Ev
 1543 05d0 7FE3FB78 		mr 3,31
 1544 05d4 48000001 		bl _Unwind_Resume
 1545              	.L199:
 1546 05d8 7C7F1B78 		mr 31,3
 1547 05dc 4BFFFFE4 		b .L146
 1548              	.L201:
 1549 05e0 7C7F1B78 		mr 31,3
 1550 05e4 38610028 		addi 3,1,40
 1551 05e8 48000001 		bl _ZNSsD1Ev
 1552 05ec 4BFFFFCC 		b .L143
 1553              	.L198:
 1554 05f0 7C7F1B78 		mr 31,3
 1555 05f4 4BFFFFD4 		b .L149
 1556              	.LVL111:
 1557              	.L185:
 1558 05f8 7C7F1B78 		mr 31,3
 1559              		.loc 1 241 0
 1560 05fc 38610068 		addi 3,1,104
 1561 0600 48000001 		bl _ZNSsD1Ev
 1562              	.L175:
 1563 0604 38610074 		addi 3,1,116
 1564 0608 48000001 		bl _ZNSsD1Ev
 1565              	.L178:
 1566 060c 38610070 		addi 3,1,112
 1567 0610 48000001 		bl _ZNSsD1Ev
 1568              	.L181:
 1569 0614 3861006C 		addi 3,1,108
 1570 0618 48000001 		bl _ZNSsD1Ev
 1571 061c 7FE3FB78 		mr 3,31
 1572 0620 48000001 		bl _Unwind_Resume
 1573              	.L182:
 1574 0624 7C7F1B78 		mr 31,3
 1575 0628 4BFFFFEC 		b .L181
 1576              	.L183:
 1577 062c 7C7F1B78 		mr 31,3
 1578 0630 4BFFFFDC 		b .L178
 1579              	.LVL112:
 1580              	.L188:
 1581 0634 7C7F1B78 		mr 31,3
 1582              	.L167:
 1583              		.loc 1 240 0
 1584 0638 38610064 		addi 3,1,100
 1585 063c 48000001 		bl _ZNSsD1Ev
 1586              	.L170:
 1587 0640 38610060 		addi 3,1,96
 1588 0644 48000001 		bl _ZNSsD1Ev
 1589              	.L173:
 1590 0648 3861005C 		addi 3,1,92
 1591 064c 48000001 		bl _ZNSsD1Ev
 1592 0650 7FE3FB78 		mr 3,31
 1593 0654 48000001 		bl _Unwind_Resume
 1594              	.L189:
 1595 0658 7C7F1B78 		mr 31,3
 1596 065c 38610058 		addi 3,1,88
 1597 0660 48000001 		bl _ZNSsD1Ev
 1598 0664 4BFFFFD4 		b .L167
 1599              	.LVL113:
 1600              	.L191:
 1601 0668 7C7F1B78 		mr 31,3
 1602              	.L162:
 1603              		.loc 1 239 0
 1604 066c 38610050 		addi 3,1,80
 1605 0670 48000001 		bl _ZNSsD1Ev
 1606              	.L165:
 1607 0674 3861004C 		addi 3,1,76
 1608 0678 48000001 		bl _ZNSsD1Ev
 1609 067c 7FE3FB78 		mr 3,31
 1610 0680 48000001 		bl _Unwind_Resume
 1611              	.L193:
 1612 0684 7C7F1B78 		mr 31,3
 1613 0688 38610048 		addi 3,1,72
 1614 068c 48000001 		bl _ZNSsD1Ev
 1615              	.L159:
 1616 0690 38610054 		addi 3,1,84
 1617 0694 48000001 		bl _ZNSsD1Ev
 1618 0698 4BFFFFD4 		b .L162
 1619              	.L190:
 1620 069c 7C7F1B78 		mr 31,3
 1621 06a0 4BFFFFD4 		b .L165
 1622              	.L192:
 1623 06a4 7C7F1B78 		mr 31,3
 1624 06a8 4BFFFFE8 		b .L159
 1625              	.LVL114:
 1626              	.L195:
 1627 06ac 7C7F1B78 		mr 31,3
 1628              	.L154:
 1629              		.loc 1 238 0
 1630 06b0 38610040 		addi 3,1,64
 1631 06b4 48000001 		bl _ZNSsD1Ev
 1632              	.L157:
 1633 06b8 3861003C 		addi 3,1,60
 1634 06bc 48000001 		bl _ZNSsD1Ev
 1635 06c0 7FE3FB78 		mr 3,31
 1636 06c4 48000001 		bl _Unwind_Resume
 1637              	.LEHE25:
 1638              	.L197:
 1639 06c8 7C7F1B78 		mr 31,3
 1640 06cc 38610038 		addi 3,1,56
 1641 06d0 48000001 		bl _ZNSsD1Ev
 1642              	.L151:
 1643 06d4 38610044 		addi 3,1,68
 1644 06d8 48000001 		bl _ZNSsD1Ev
 1645 06dc 4BFFFFD4 		b .L154
 1646              	.L194:
 1647 06e0 7C7F1B78 		mr 31,3
 1648 06e4 4BFFFFD4 		b .L157
 1649              	.LVL115:
 1650              	.L184:
 1651 06e8 7C7F1B78 		mr 31,3
 1652 06ec 4BFFFF18 		b .L175
 1653              	.LVL116:
 1654              	.L196:
 1655 06f0 7C7F1B78 		mr 31,3
 1656 06f4 4BFFFFE0 		b .L151
 1657              	.LVL117:
 1658              	.L186:
 1659 06f8 7C7F1B78 		mr 31,3
 1660 06fc 4BFFFF4C 		b .L173
 1661              	.L187:
 1662 0700 7C7F1B78 		mr 31,3
 1663 0704 4BFFFF3C 		b .L170
 1664              		.cfi_endproc
 1665              	.LFE2053:
 1666              		.globl __gxx_personality_v0
 1667              		.section	.gcc_except_table,"a",@progbits
 1668              	.LLSDA2053:
 1669 0000 FF       		.byte	0xff
 1670 0001 FF       		.byte	0xff
 1671 0002 01       		.byte	0x1
 1672 0003 9201     		.uleb128 .LLSDACSE2053-.LLSDACSB2053
 1673              	.LLSDACSB2053:
 1674 0005 24       		.uleb128 .LEHB0-.LFB2053
 1675 0006 04       		.uleb128 .LEHE0-.LEHB0
 1676 0007 00       		.uleb128 0
 1677 0008 00       		.uleb128 0
 1678 0009 38       		.uleb128 .LEHB1-.LFB2053
 1679 000a 04       		.uleb128 .LEHE1-.LEHB1
 1680 000b F00B     		.uleb128 .L198-.LFB2053
 1681 000d 00       		.uleb128 0
 1682 000e 4C       		.uleb128 .LEHB2-.LFB2053
 1683 000f 04       		.uleb128 .LEHE2-.LEHB2
 1684 0010 D80B     		.uleb128 .L199-.LFB2053
 1685 0012 00       		.uleb128 0
 1686 0013 60       		.uleb128 .LEHB3-.LFB2053
 1687 0014 04       		.uleb128 .LEHE3-.LEHB3
 1688 0015 B40B     		.uleb128 .L200-.LFB2053
 1689 0017 00       		.uleb128 0
 1690 0018 6C       		.uleb128 .LEHB4-.LFB2053
 1691 0019 04       		.uleb128 .LEHE4-.LEHB4
 1692 001a E00B     		.uleb128 .L201-.LFB2053
 1693 001c 00       		.uleb128 0
 1694 001d C001     		.uleb128 .LEHB5-.LFB2053
 1695 001f 04       		.uleb128 .LEHE5-.LEHB5
 1696 0020 00       		.uleb128 0
 1697 0021 00       		.uleb128 0
 1698 0022 D401     		.uleb128 .LEHB6-.LFB2053
 1699 0024 04       		.uleb128 .LEHE6-.LEHB6
 1700 0025 E00D     		.uleb128 .L194-.LFB2053
 1701 0027 00       		.uleb128 0
 1702 0028 E801     		.uleb128 .LEHB7-.LFB2053
 1703 002a 04       		.uleb128 .LEHE7-.LEHB7
 1704 002b AC0D     		.uleb128 .L195-.LFB2053
 1705 002d 00       		.uleb128 0
 1706 002e FC01     		.uleb128 .LEHB8-.LFB2053
 1707 0030 04       		.uleb128 .LEHE8-.LEHB8
 1708 0031 F00D     		.uleb128 .L196-.LFB2053
 1709 0033 00       		.uleb128 0
 1710 0034 8802     		.uleb128 .LEHB9-.LFB2053
 1711 0036 04       		.uleb128 .LEHE9-.LEHB9
 1712 0037 C80D     		.uleb128 .L197-.LFB2053
 1713 0039 00       		.uleb128 0
 1714 003a D402     		.uleb128 .LEHB10-.LFB2053
 1715 003c 04       		.uleb128 .LEHE10-.LEHB10
 1716 003d 00       		.uleb128 0
 1717 003e 00       		.uleb128 0
 1718 003f E802     		.uleb128 .LEHB11-.LFB2053
 1719 0041 04       		.uleb128 .LEHE11-.LEHB11
 1720 0042 9C0D     		.uleb128 .L190-.LFB2053
 1721 0044 00       		.uleb128 0
 1722 0045 FC02     		.uleb128 .LEHB12-.LFB2053
 1723 0047 04       		.uleb128 .LEHE12-.LEHB12
 1724 0048 E80C     		.uleb128 .L191-.LFB2053
 1725 004a 00       		.uleb128 0
 1726 004b 9003     		.uleb128 .LEHB13-.LFB2053
 1727 004d 04       		.uleb128 .LEHE13-.LEHB13
 1728 004e A40D     		.uleb128 .L192-.LFB2053
 1729 0050 00       		.uleb128 0
 1730 0051 9C03     		.uleb128 .LEHB14-.LFB2053
 1731 0053 04       		.uleb128 .LEHE14-.LEHB14
 1732 0054 840D     		.uleb128 .L193-.LFB2053
 1733 0056 00       		.uleb128 0
 1734 0057 E803     		.uleb128 .LEHB15-.LFB2053
 1735 0059 04       		.uleb128 .LEHE15-.LEHB15
 1736 005a 00       		.uleb128 0
 1737 005b 00       		.uleb128 0
 1738 005c FC03     		.uleb128 .LEHB16-.LFB2053
 1739 005e 04       		.uleb128 .LEHE16-.LEHB16
 1740 005f F80D     		.uleb128 .L186-.LFB2053
 1741 0061 00       		.uleb128 0
 1742 0062 9004     		.uleb128 .LEHB17-.LFB2053
 1743 0064 04       		.uleb128 .LEHE17-.LEHB17
 1744 0065 800E     		.uleb128 .L187-.LFB2053
 1745 0067 00       		.uleb128 0
 1746 0068 A404     		.uleb128 .LEHB18-.LFB2053
 1747 006a 04       		.uleb128 .LEHE18-.LEHB18
 1748 006b B40C     		.uleb128 .L188-.LFB2053
 1749 006d 00       		.uleb128 0
 1750 006e B004     		.uleb128 .LEHB19-.LFB2053
 1751 0070 04       		.uleb128 .LEHE19-.LEHB19
 1752 0071 D80C     		.uleb128 .L189-.LFB2053
 1753 0073 00       		.uleb128 0
 1754 0074 FC04     		.uleb128 .LEHB20-.LFB2053
 1755 0076 04       		.uleb128 .LEHE20-.LEHB20
 1756 0077 00       		.uleb128 0
 1757 0078 00       		.uleb128 0
 1758 0079 9005     		.uleb128 .LEHB21-.LFB2053
 1759 007b 04       		.uleb128 .LEHE21-.LEHB21
 1760 007c A40C     		.uleb128 .L182-.LFB2053
 1761 007e 00       		.uleb128 0
 1762 007f A405     		.uleb128 .LEHB22-.LFB2053
 1763 0081 04       		.uleb128 .LEHE22-.LEHB22
 1764 0082 AC0C     		.uleb128 .L183-.LFB2053
 1765 0084 00       		.uleb128 0
 1766 0085 B805     		.uleb128 .LEHB23-.LFB2053
 1767 0087 04       		.uleb128 .LEHE23-.LEHB23
 1768 0088 E80D     		.uleb128 .L184-.LFB2053
 1769 008a 00       		.uleb128 0
 1770 008b C405     		.uleb128 .LEHB24-.LFB2053
 1771 008d 04       		.uleb128 .LEHE24-.LEHB24
 1772 008e F80B     		.uleb128 .L185-.LFB2053
 1773 0090 00       		.uleb128 0
 1774 0091 9006     		.uleb128 .LEHB25-.LFB2053
 1775 0093 B807     		.uleb128 .LEHE25-.LEHB25
 1776 0095 00       		.uleb128 0
 1777 0096 00       		.uleb128 0
 1778              	.LLSDACSE2053:
 1779              		.section	".text"
 1780              		.size	_ZN9ChangeLog16FixChangeLogTextESs.constprop.74, .-_ZN9ChangeLog16FixChangeLogTextESs.constp
 1781              		.align 2
 1782              		.globl _ZN9ChangeLogC2EP12UpdateWindow
 1783              		.type	_ZN9ChangeLogC2EP12UpdateWindow, @function
 1784              	_ZN9ChangeLogC2EP12UpdateWindow:
 1785              	.LFB1597:
 1786              		.loc 1 39 0
 1787              		.cfi_startproc
 1788              		.cfi_personality 0,__gxx_personality_v0
 1789              		.cfi_lsda 0,.LLSDA1597
 1790              	.LVL118:
 1791 0708 7C0802A6 		mflr 0
 1792              	.LBB2477:
 1793              		.loc 1 43 0
 1794 070c 2F840000 		cmpwi 7,4,0
 1795              	.LBE2477:
 1796              		.loc 1 39 0
 1797 0710 9421FFF0 		stwu 1,-16(1)
 1798              	.LCFI3:
 1799              		.cfi_def_cfa_offset 16
 1800              		.cfi_register 65, 0
 1801 0714 90010014 		stw 0,20(1)
 1802              	.LBB2478:
 1803              		.loc 1 41 0
 1804 0718 38000000 		li 0,0
 1805              		.cfi_offset 65, 4
 1806              	.LBE2478:
 1807              		.loc 1 39 0
 1808 071c 93E1000C 		stw 31,12(1)
 1809 0720 7C7F1B78 		mr 31,3
 1810              		.cfi_offset 31, -4
 1811 0724 93C10008 		stw 30,8(1)
 1812              	.LBB2479:
 1813              		.loc 1 41 0
 1814 0728 98030000 		stb 0,0(3)
 1815 072c 90830004 		stw 4,4(3)
 1816              		.loc 1 43 0
 1817 0730 419E001C 		beq- 7,.L227
 1818              		.cfi_offset 30, -8
 1819              	.LBE2479:
 1820              		.loc 1 48 0
 1821 0734 80010014 		lwz 0,20(1)
 1822 0738 83C10008 		lwz 30,8(1)
 1823 073c 7C0803A6 		mtlr 0
 1824 0740 83E1000C 		lwz 31,12(1)
 1825 0744 38210010 		addi 1,1,16
 1826              		.cfi_remember_state
 1827              	.LCFI4:
 1828              		.cfi_def_cfa_offset 0
 1829              		.cfi_restore 31
 1830              		.cfi_restore 30
 1831 0748 4E800020 		blr
 1832              	.L227:
 1833              	.LCFI5:
 1834              		.cfi_restore_state
 1835              	.LBB2480:
 1836              		.loc 1 45 0
 1837 074c 3860014C 		li 3,332
 1838              	.LVL119:
 1839              	.LEHB26:
 1840 0750 48000001 		bl _Znwj
 1841              	.LEHE26:
 1842              	.LVL120:
 1843 0754 7C7E1B78 		mr 30,3
 1844              	.LEHB27:
 1845 0758 48000001 		bl _ZN12UpdateWindowC1Ev
 1846              	.LEHE27:
 1847              		.loc 1 46 0 discriminator 1
 1848 075c 38000001 		li 0,1
 1849              		.loc 1 45 0 discriminator 1
 1850 0760 93DF0004 		stw 30,4(31)
 1851              		.loc 1 46 0 discriminator 1
 1852 0764 981F0000 		stb 0,0(31)
 1853              	.LBE2480:
 1854              		.loc 1 48 0 discriminator 1
 1855 0768 80010014 		lwz 0,20(1)
 1856 076c 83C10008 		lwz 30,8(1)
 1857 0770 7C0803A6 		mtlr 0
 1858 0774 83E1000C 		lwz 31,12(1)
 1859              	.LVL121:
 1860 0778 38210010 		addi 1,1,16
 1861              		.cfi_remember_state
 1862              		.cfi_restore 30
 1863              		.cfi_restore 31
 1864              	.LCFI6:
 1865              		.cfi_def_cfa_offset 0
 1866 077c 4E800020 		blr
 1867              	.LVL122:
 1868              	.L226:
 1869              	.LCFI7:
 1870              		.cfi_restore_state
 1871 0780 7C7F1B78 		mr 31,3
 1872              	.LVL123:
 1873              	.LBB2481:
 1874              		.loc 1 45 0
 1875 0784 7FC3F378 		mr 3,30
 1876 0788 48000001 		bl _ZdlPv
 1877 078c 7FE3FB78 		mr 3,31
 1878              	.LEHB28:
 1879 0790 48000001 		bl _Unwind_Resume
 1880              	.LEHE28:
 1881              	.LBE2481:
 1882              		.cfi_endproc
 1883              	.LFE1597:
 1884              		.section	.gcc_except_table
 1885              	.LLSDA1597:
 1886 0097 FF       		.byte	0xff
 1887 0098 FF       		.byte	0xff
 1888 0099 01       		.byte	0x1
 1889 009a 0D       		.uleb128 .LLSDACSE1597-.LLSDACSB1597
 1890              	.LLSDACSB1597:
 1891 009b 48       		.uleb128 .LEHB26-.LFB1597
 1892 009c 04       		.uleb128 .LEHE26-.LEHB26
 1893 009d 00       		.uleb128 0
 1894 009e 00       		.uleb128 0
 1895 009f 50       		.uleb128 .LEHB27-.LFB1597
 1896 00a0 04       		.uleb128 .LEHE27-.LEHB27
 1897 00a1 78       		.uleb128 .L226-.LFB1597
 1898 00a2 00       		.uleb128 0
 1899 00a3 8801     		.uleb128 .LEHB28-.LFB1597
 1900 00a5 04       		.uleb128 .LEHE28-.LEHB28
 1901 00a6 00       		.uleb128 0
 1902 00a7 00       		.uleb128 0
 1903              	.LLSDACSE1597:
 1904              		.section	".text"
 1905              		.size	_ZN9ChangeLogC2EP12UpdateWindow, .-_ZN9ChangeLogC2EP12UpdateWindow
 1906              		.align 2
 1907              		.globl _ZN9ChangeLog10GetChangesEi
 1908              		.type	_ZN9ChangeLog10GetChangesEi, @function
 1909              	_ZN9ChangeLog10GetChangesEi:
 1910              	.LFB1600:
 1911              		.loc 1 135 0
 1912              		.cfi_startproc
 1913              		.cfi_personality 0,__gxx_personality_v0
 1914              		.cfi_lsda 0,.LLSDA1600
 1915              	.LVL124:
 1916 0794 9421FF58 		stwu 1,-168(1)
 1917              	.LCFI8:
 1918              		.cfi_def_cfa_offset 168
 1919 0798 7C0802A6 		mflr 0
 1920              	.LBB2482:
 1921              		.loc 1 136 0
 1922 079c 38610008 		addi 3,1,8
 1923              	.LVL125:
 1924              	.LBE2482:
 1925              		.loc 1 135 0
 1926 07a0 93A1009C 		stw 29,156(1)
 1927 07a4 900100AC 		stw 0,172(1)
 1928 07a8 7C9D2378 		mr 29,4
 1929              		.cfi_offset 29, -12
 1930              		.cfi_offset 65, 4
 1931 07ac 93E100A4 		stw 31,164(1)
 1932 07b0 93C100A0 		stw 30,160(1)
 1933              	.LEHB29:
 1934              	.LBB2483:
 1935              		.loc 1 136 0
 1936              		.cfi_offset 30, -8
 1937              		.cfi_offset 31, -4
 1938 07b4 48000001 		bl _ZN11HTML_StreamC1Ev
 1939              	.LEHE29:
 1940              	.LVL126:
 1941              		.loc 1 138 0
 1942 07b8 38600020 		li 3,32
 1943 07bc 48000001 		bl malloc
 1944              	.LVL127:
 1945              		.loc 1 139 0
 1946 07c0 7C7F1B79 		mr. 31,3
 1947 07c4 418200D4 		beq- 0,.L229
 1948              		.loc 1 142 0
 1949 07c8 38000000 		li 0,0
 1950              		.loc 1 149 0
 1951 07cc 3C800000 		lis 4,.LC10@ha
 1952              		.loc 1 142 0
 1953 07d0 981F0000 		stb 0,0(31)
 1954              	.LVL128:
 1955              		.loc 1 149 0
 1956 07d4 3884003C 		la 4,.LC10@l(4)
 1957 07d8 38610048 		addi 3,1,72
 1958              	.LVL129:
 1959 07dc 7FA5EB78 		mr 5,29
 1960 07e0 4CC63182 		crxor 6,6,6
 1961 07e4 48000001 		bl sprintf
 1962              		.loc 1 150 0
 1963 07e8 38610008 		addi 3,1,8
 1964 07ec 38810048 		addi 4,1,72
 1965              	.LEHB30:
 1966 07f0 48000001 		bl _ZN11HTML_Stream8LoadLinkEPKc
 1967 07f4 2F830000 		cmpwi 7,3,0
 1968 07f8 419E00C8 		beq- 7,.L235
 1969              		.loc 1 156 0
 1970 07fc 3C800000 		lis 4,.LC11@ha
 1971 0800 38610008 		addi 3,1,8
 1972 0804 3884007C 		la 4,.LC11@l(4)
 1973 0808 48000001 		bl _ZN11HTML_Stream13FindStringEndEPKc
 1974              		.loc 1 157 0
 1975 080c 3C800000 		lis 4,.LC12@ha
 1976 0810 38610008 		addi 3,1,8
 1977 0814 388400A8 		la 4,.LC12@l(4)
 1978 0818 48000001 		bl _ZN11HTML_Stream10CopyStringEPKc
 1979              		.loc 1 159 0
 1980 081c 3CA00000 		lis 5,.LC13@ha
 1981              		.loc 1 157 0
 1982 0820 7C7E1B78 		mr 30,3
 1983              	.LVL130:
 1984              		.loc 1 159 0
 1985 0824 38800032 		li 4,50
 1986 0828 38610014 		addi 3,1,20
 1987              	.LVL131:
 1988 082c 38A500B0 		la 5,.LC13@l(5)
 1989 0830 7FA6EB78 		mr 6,29
 1990 0834 4CC63182 		crxor 6,6,6
 1991 0838 48000001 		bl snprintf
 1992              	.LEHE30:
 1993              		.loc 1 160 0
 1994 083c 7FC3F378 		mr 3,30
 1995 0840 48000001 		bl strlen
 1996 0844 7C7D1B78 		mr 29,3
 1997              	.LVL132:
 1998 0848 38610014 		addi 3,1,20
 1999 084c 48000001 		bl strlen
 2000              	.LVL133:
 2001 0850 7C9D1A14 		add 4,29,3
 2002              		.loc 1 161 0
 2003 0854 7FE3FB78 		mr 3,31
 2004              	.LVL134:
 2005 0858 38840001 		addi 4,4,1
 2006              	.LVL135:
 2007 085c 48000001 		bl realloc
 2008              	.LVL136:
 2009              		.loc 1 162 0
 2010 0860 7C7D1B79 		mr. 29,3
 2011 0864 41820090 		beq- 0,.L236
 2012              	.LVL137:
 2013              		.loc 1 173 0
 2014 0868 38810014 		addi 4,1,20
 2015              		.loc 1 177 0
 2016 086c 7FBFEB78 		mr 31,29
 2017              		.loc 1 173 0
 2018 0870 48000001 		bl strcat
 2019              	.LVL138:
 2020              		.loc 1 174 0
 2021 0874 7FC4F378 		mr 4,30
 2022 0878 7FA3EB78 		mr 3,29
 2023 087c 48000001 		bl strcat
 2024              		.loc 1 175 0
 2025 0880 7FC3F378 		mr 3,30
 2026 0884 48000001 		bl free
 2027              		.loc 1 177 0
 2028 0888 7FA3EB78 		mr 3,29
 2029 088c 48000001 		bl strlen
 2030 0890 2B830004 		cmplwi 7,3,4
 2031 0894 409D002C 		ble- 7,.L235
 2032              	.LVL139:
 2033              	.L229:
 2034              		.loc 1 184 0
 2035 0898 38610008 		addi 3,1,8
 2036              	.LEHB31:
 2037 089c 48000001 		bl _ZN11HTML_StreamD1Ev
 2038              	.LBE2483:
 2039              		.loc 1 185 0
 2040 08a0 800100AC 		lwz 0,172(1)
 2041 08a4 7FE3FB78 		mr 3,31
 2042 08a8 83A1009C 		lwz 29,156(1)
 2043 08ac 7C0803A6 		mtlr 0
 2044 08b0 83C100A0 		lwz 30,160(1)
 2045 08b4 83E100A4 		lwz 31,164(1)
 2046 08b8 382100A8 		addi 1,1,168
 2047              		.cfi_remember_state
 2048              	.LCFI9:
 2049              		.cfi_def_cfa_offset 0
 2050              		.cfi_restore 31
 2051              		.cfi_restore 30
 2052              		.cfi_restore 29
 2053 08bc 4E800020 		blr
 2054              	.LVL140:
 2055              	.L235:
 2056              	.LCFI10:
 2057              		.cfi_restore_state
 2058              	.LBB2484:
 2059              		.loc 1 180 0
 2060 08c0 7FE3FB78 		mr 3,31
 2061              		.loc 1 181 0
 2062 08c4 3BE00000 		li 31,0
 2063              	.LVL141:
 2064              		.loc 1 180 0
 2065 08c8 48000001 		bl free
 2066              	.LVL142:
 2067              		.loc 1 184 0
 2068 08cc 38610008 		addi 3,1,8
 2069 08d0 48000001 		bl _ZN11HTML_StreamD1Ev
 2070              	.LEHE31:
 2071              	.LBE2484:
 2072              		.loc 1 185 0
 2073 08d4 800100AC 		lwz 0,172(1)
 2074 08d8 7FE3FB78 		mr 3,31
 2075 08dc 83A1009C 		lwz 29,156(1)
 2076 08e0 7C0803A6 		mtlr 0
 2077 08e4 83C100A0 		lwz 30,160(1)
 2078 08e8 83E100A4 		lwz 31,164(1)
 2079 08ec 382100A8 		addi 1,1,168
 2080              		.cfi_remember_state
 2081              		.cfi_restore 29
 2082              		.cfi_restore 30
 2083              		.cfi_restore 31
 2084              	.LCFI11:
 2085              		.cfi_def_cfa_offset 0
 2086 08f0 4E800020 		blr
 2087              	.LVL143:
 2088              	.L236:
 2089              	.LCFI12:
 2090              		.cfi_restore_state
 2091              	.LBB2485:
 2092              		.loc 1 166 0
 2093 08f4 7FE3FB78 		mr 3,31
 2094              		.loc 1 169 0
 2095 08f8 3BE00000 		li 31,0
 2096              	.LVL144:
 2097              		.loc 1 166 0
 2098 08fc 48000001 		bl free
 2099              	.LVL145:
 2100              		.loc 1 168 0
 2101 0900 7FC3F378 		mr 3,30
 2102 0904 48000001 		bl free
 2103 0908 4BFFFF90 		b .L229
 2104              	.LVL146:
 2105              	.L234:
 2106 090c 7C7F1B78 		mr 31,3
 2107              	.LVL147:
 2108              		.loc 1 184 0
 2109 0910 38610008 		addi 3,1,8
 2110 0914 48000001 		bl _ZN11HTML_StreamD1Ev
 2111 0918 7FE3FB78 		mr 3,31
 2112              	.LEHB32:
 2113 091c 48000001 		bl _Unwind_Resume
 2114              	.LEHE32:
 2115              	.LBE2485:
 2116              		.cfi_endproc
 2117              	.LFE1600:
 2118              		.section	.gcc_except_table
 2119              	.LLSDA1600:
 2120 00a8 FF       		.byte	0xff
 2121 00a9 FF       		.byte	0xff
 2122 00aa 01       		.byte	0x1
 2123 00ab 13       		.uleb128 .LLSDACSE1600-.LLSDACSB1600
 2124              	.LLSDACSB1600:
 2125 00ac 20       		.uleb128 .LEHB29-.LFB1600
 2126 00ad 04       		.uleb128 .LEHE29-.LEHB29
 2127 00ae 00       		.uleb128 0
 2128 00af 00       		.uleb128 0
 2129 00b0 5C       		.uleb128 .LEHB30-.LFB1600
 2130 00b1 4C       		.uleb128 .LEHE30-.LEHB30
 2131 00b2 F802     		.uleb128 .L234-.LFB1600
 2132 00b4 00       		.uleb128 0
 2133 00b5 8802     		.uleb128 .LEHB31-.LFB1600
 2134 00b7 38       		.uleb128 .LEHE31-.LEHB31
 2135 00b8 00       		.uleb128 0
 2136 00b9 00       		.uleb128 0
 2137 00ba 8803     		.uleb128 .LEHB32-.LFB1600
 2138 00bc 04       		.uleb128 .LEHE32-.LEHB32
 2139 00bd 00       		.uleb128 0
 2140 00be 00       		.uleb128 0
 2141              	.LLSDACSE1600:
 2142              		.section	".text"
 2143              		.size	_ZN9ChangeLog10GetChangesEi, .-_ZN9ChangeLog10GetChangesEi
 2144              		.align 2
 2145              		.globl _ZN9ChangeLog17GetChangeLogRangeEiib
 2146              		.type	_ZN9ChangeLog17GetChangeLogRangeEiib, @function
 2147              	_ZN9ChangeLog17GetChangeLogRangeEiib:
 2148              	.LFB1599:
 2149              		.loc 1 51 0
 2150              		.cfi_startproc
 2151              		.cfi_personality 0,__gxx_personality_v0
 2152              		.cfi_lsda 0,.LLSDA1599
 2153              	.LVL148:
 2154 0920 9421FF90 		stwu 1,-112(1)
 2155              	.LCFI13:
 2156              		.cfi_def_cfa_offset 112
 2157 0924 7C0802A6 		mflr 0
 2158 0928 7D800026 		mfcr 12
 2159 092c 93810060 		stw 28,96(1)
 2160 0930 7C7C1B78 		mr 28,3
 2161              		.cfi_offset 28, -16
 2162              		.cfi_register 70, 12
 2163              		.cfi_register 65, 0
 2164              	.LBB2550:
 2165              		.loc 1 52 0
 2166 0934 38600020 		li 3,32
 2167              	.LVL149:
 2168              	.LBE2550:
 2169              		.loc 1 51 0
 2170 0938 93210054 		stw 25,84(1)
 2171 093c 93A10064 		stw 29,100(1)
 2172 0940 7CDD3378 		mr 29,6
 2173              		.cfi_offset 29, -12
 2174              		.cfi_offset 25, -28
 2175 0944 93C10068 		stw 30,104(1)
 2176 0948 7CBE2B78 		mr 30,5
 2177              		.cfi_offset 30, -8
 2178 094c 93E1006C 		stw 31,108(1)
 2179 0950 7C9F2378 		mr 31,4
 2180              		.cfi_offset 31, -4
 2181 0954 90010074 		stw 0,116(1)
 2182 0958 92E1004C 		stw 23,76(1)
 2183 095c 93010050 		stw 24,80(1)
 2184 0960 93410058 		stw 26,88(1)
 2185 0964 9361005C 		stw 27,92(1)
 2186 0968 91810048 		stw 12,72(1)
 2187              	.LBB2613:
 2188              		.loc 1 52 0
 2189              		.cfi_offset 70, -40
 2190              		.cfi_offset 27, -20
 2191              		.cfi_offset 26, -24
 2192              		.cfi_offset 24, -32
 2193              		.cfi_offset 23, -36
 2194              		.cfi_offset 65, 4
 2195 096c 48000001 		bl malloc
 2196              	.LVL150:
 2197              		.loc 1 53 0
 2198 0970 7C791B79 		mr. 25,3
 2199 0974 41820160 		beq- 0,.L238
 2200              		.loc 1 63 0
 2201 0978 2E1D0000 		cmpwi 4,29,0
 2202              		.loc 1 56 0
 2203 097c 38000000 		li 0,0
 2204 0980 98190000 		stb 0,0(25)
 2205              	.LVL151:
 2206              		.loc 1 71 0
 2207 0984 3AFE0001 		addi 23,30,1
 2208              	.LVL152:
 2209              		.loc 1 63 0
 2210 0988 4092018C 		bne- 4,.L288
 2211              	.LVL153:
 2212              	.L240:
 2213              		.loc 1 74 0
 2214 098c 3BC00000 		li 30,0
 2215              	.LVL154:
 2216              		.loc 1 59 0
 2217 0990 3B000001 		li 24,1
 2218              		.loc 1 75 0
 2219 0994 48000010 		b .L241
 2220              	.LVL155:
 2221              	.L292:
 2222              	.LBB2551:
 2223              		.loc 1 111 0
 2224 0998 3BFFFFFF 		addi 31,31,-1
 2225              	.LVL156:
 2226              	.L267:
 2227              		.loc 1 115 0
 2228 099c 3BDE0001 		addi 30,30,1
 2229              	.LVL157:
 2230 09a0 7F79DB78 		mr 25,27
 2231              	.LVL158:
 2232              	.L241:
 2233              	.LBE2551:
 2234              		.loc 1 75 0 discriminator 1
 2235 09a4 7F97F800 		cmpw 7,23,31
 2236 09a8 419E0178 		beq- 7,.L286
 2237 09ac 3F400000 		lis 26,.LC14@ha
 2238 09b0 3F600000 		lis 27,.LC15@ha
 2239 09b4 3B5A00C0 		la 26,.LC14@l(26)
 2240 09b8 3B7B00CC 		la 27,.LC15@l(27)
 2241              	.L258:
 2242              	.LBB2602:
 2243              		.loc 1 78 0
 2244 09bc 7FE6FB78 		mr 6,31
 2245 09c0 38800032 		li 4,50
 2246 09c4 7F45D378 		mr 5,26
 2247 09c8 38610014 		addi 3,1,20
 2248              	.LEHB33:
 2249 09cc 4CC63182 		crxor 6,6,6
 2250 09d0 48000001 		bl snprintf
 2251              		.loc 1 79 0
 2252 09d4 7F63DB78 		mr 3,27
 2253 09d8 83BC0004 		lwz 29,4(28)
 2254 09dc 48000001 		bl gettext
 2255 09e0 7C641B78 		mr 4,3
 2256 09e4 38A1000B 		addi 5,1,11
 2257 09e8 38610010 		addi 3,1,16
 2258 09ec 48000001 		bl _ZNSsC1EPKcRKSaIcE
 2259              	.LEHE33:
 2260 09f0 3861000C 		addi 3,1,12
 2261 09f4 38810014 		addi 4,1,20
 2262 09f8 38A1000A 		addi 5,1,10
 2263              	.LEHB34:
 2264 09fc 48000001 		bl _ZNSsC1EPKcRKSaIcE
 2265              	.LEHE34:
 2266              		.loc 1 79 0 is_stmt 0 discriminator 2
 2267 0a00 7FA3EB78 		mr 3,29
 2268 0a04 38810010 		addi 4,1,16
 2269 0a08 38A1000C 		addi 5,1,12
 2270 0a0c 7FC6F378 		mr 6,30
 2271 0a10 38E00006 		li 7,6
 2272              	.LEHB35:
 2273 0a14 48000001 		bl _ZN12UpdateWindow12ShowProgressESsSsii
 2274              	.LEHE35:
 2275              	.LVL159:
 2276              	.LBB2552:
 2277              	.LBB2553:
 2278              	.LBB2554:
 2279              	.LBB2555:
 2280              	.LBB2556:
 2281              	.LBB2557:
 2282              		.loc 2 288 0 is_stmt 1
 2283 0a18 8121000C 		lwz 9,12(1)
 2284              	.LBE2557:
 2285              	.LBE2556:
 2286              	.LBE2555:
 2287              	.LBB2558:
 2288              	.LBB2559:
 2289              		.loc 2 235 0
 2290 0a1c 3FA00000 		lis 29,_ZNSs4_Rep20_S_empty_rep_storageE@ha
 2291 0a20 3BBD0000 		la 29,_ZNSs4_Rep20_S_empty_rep_storageE@l(29)
 2292              	.LBE2559:
 2293              	.LBE2558:
 2294              		.loc 2 534 0
 2295 0a24 3869FFF4 		addi 3,9,-12
 2296              	.LVL160:
 2297              	.LBB2568:
 2298              	.LBB2566:
 2299              		.loc 2 235 0
 2300 0a28 7F83E800 		cmpw 7,3,29
 2301 0a2c 409E023C 		bne- 7,.L289
 2302              	.LVL161:
 2303              	.L249:
 2304              	.LBE2566:
 2305              	.LBE2568:
 2306              	.LBE2554:
 2307              	.LBE2553:
 2308              	.LBE2552:
 2309              	.LBB2572:
 2310              	.LBB2573:
 2311              	.LBB2574:
 2312              	.LBB2575:
 2313              	.LBB2576:
 2314              	.LBB2577:
 2315              		.loc 2 288 0
 2316 0a30 81210010 		lwz 9,16(1)
 2317              	.LBE2577:
 2318              	.LBE2576:
 2319              	.LBE2575:
 2320              		.loc 2 534 0
 2321 0a34 3869FFF4 		addi 3,9,-12
 2322              	.LVL162:
 2323              	.LBB2578:
 2324              	.LBB2579:
 2325              		.loc 2 235 0
 2326 0a38 7F83E800 		cmpw 7,3,29
 2327 0a3c 409E024C 		bne- 7,.L290
 2328              	.LVL163:
 2329              	.L257:
 2330              	.LBE2579:
 2331              	.LBE2578:
 2332              	.LBE2574:
 2333              	.LBE2573:
 2334              	.LBE2572:
 2335              		.loc 1 81 0 discriminator 1
 2336 0a40 7F83E378 		mr 3,28
 2337 0a44 7FE4FB78 		mr 4,31
 2338              	.LEHB36:
 2339 0a48 48000001 		bl _ZN9ChangeLog10GetChangesEi
 2340              	.LVL164:
 2341              		.loc 1 82 0 discriminator 1
 2342 0a4c 7C7D1B79 		mr. 29,3
 2343 0a50 41A2FF6C 		beq- 0,.L258
 2344              		.loc 1 85 0
 2345 0a54 48000001 		bl strlen
 2346              	.LVL165:
 2347 0a58 3B180002 		addi 24,24,2
 2348              	.LVL166:
 2349 0a5c 7F181A14 		add 24,24,3
 2350              	.LVL167:
 2351              		.loc 1 87 0
 2352 0a60 7F23CB78 		mr 3,25
 2353 0a64 7F04C378 		mr 4,24
 2354 0a68 48000001 		bl realloc
 2355              	.LVL168:
 2356              		.loc 1 88 0
 2357 0a6c 7C7B1B79 		mr. 27,3
 2358 0a70 41820044 		beq- 0,.L291
 2359              	.LVL169:
 2360              		.loc 1 105 0
 2361 0a74 7FA4EB78 		mr 4,29
 2362 0a78 48000001 		bl strcat
 2363              	.LVL170:
 2364              		.loc 1 106 0
 2365 0a7c 7F63DB78 		mr 3,27
 2366 0a80 48000001 		bl strlen
 2367 0a84 3D200000 		lis 9,.LC16@ha
 2368 0a88 394900E4 		la 10,.LC16@l(9)
 2369 0a8c A16900E4 		lhz 11,.LC16@l(9)
 2370 0a90 880A0002 		lbz 0,2(10)
 2371 0a94 7D3B1A14 		add 9,27,3
 2372 0a98 7D7B1B2E 		sthx 11,27,3
 2373              		.loc 1 108 0
 2374 0a9c 7FA3EB78 		mr 3,29
 2375              		.loc 1 106 0
 2376 0aa0 98090002 		stb 0,2(9)
 2377              		.loc 1 108 0
 2378 0aa4 48000001 		bl free
 2379              		.loc 1 110 0
 2380 0aa8 40B2FEF0 		bne- 4,.L292
 2381              		.loc 1 113 0
 2382 0aac 3BFF0001 		addi 31,31,1
 2383              	.LVL171:
 2384 0ab0 4BFFFEEC 		b .L267
 2385              	.LVL172:
 2386              	.L291:
 2387              		.loc 1 90 0
 2388 0ab4 881C0000 		lbz 0,0(28)
 2389 0ab8 2F800000 		cmpwi 7,0,0
 2390 0abc 409E010C 		bne- 7,.L293
 2391              	.LVL173:
 2392              	.L260:
 2393              		.loc 1 98 0
 2394 0ac0 7F23CB78 		mr 3,25
 2395              		.loc 1 100 0
 2396 0ac4 3B200000 		li 25,0
 2397              	.LVL174:
 2398              		.loc 1 98 0
 2399 0ac8 48000001 		bl free
 2400              	.LVL175:
 2401              		.loc 1 99 0
 2402 0acc 7FA3EB78 		mr 3,29
 2403 0ad0 48000001 		bl free
 2404              	.LVL176:
 2405              	.L238:
 2406              	.LBE2602:
 2407              	.LBE2613:
 2408              		.loc 1 132 0
 2409 0ad4 80010074 		lwz 0,116(1)
 2410 0ad8 7F23CB78 		mr 3,25
 2411 0adc 81810048 		lwz 12,72(1)
 2412 0ae0 7C0803A6 		mtlr 0
 2413 0ae4 82E1004C 		lwz 23,76(1)
 2414 0ae8 83010050 		lwz 24,80(1)
 2415 0aec 7D808120 		mtcrf 8,12
 2416 0af0 83210054 		lwz 25,84(1)
 2417 0af4 83410058 		lwz 26,88(1)
 2418 0af8 8361005C 		lwz 27,92(1)
 2419 0afc 83810060 		lwz 28,96(1)
 2420              	.LVL177:
 2421 0b00 83A10064 		lwz 29,100(1)
 2422 0b04 83C10068 		lwz 30,104(1)
 2423 0b08 83E1006C 		lwz 31,108(1)
 2424 0b0c 38210070 		addi 1,1,112
 2425              		.cfi_remember_state
 2426              	.LCFI14:
 2427              		.cfi_def_cfa_offset 0
 2428              		.cfi_restore 70
 2429              		.cfi_restore 31
 2430              		.cfi_restore 30
 2431              		.cfi_restore 29
 2432              		.cfi_restore 28
 2433              		.cfi_restore 27
 2434              		.cfi_restore 26
 2435              		.cfi_restore 25
 2436              		.cfi_restore 24
 2437              		.cfi_restore 23
 2438 0b10 4E800020 		blr
 2439              	.LVL178:
 2440              	.L288:
 2441              	.LCFI15:
 2442              		.cfi_restore_state
 2443              	.LBB2614:
 2444              		.loc 1 66 0
 2445 0b14 3AFFFFFF 		addi 23,31,-1
 2446              	.LVL179:
 2447              		.loc 1 65 0
 2448 0b18 7FDFF378 		mr 31,30
 2449              	.LVL180:
 2450 0b1c 4BFFFE70 		b .L240
 2451              	.LVL181:
 2452              	.L286:
 2453              		.loc 1 118 0
 2454 0b20 881C0000 		lbz 0,0(28)
 2455 0b24 2F800000 		cmpwi 7,0,0
 2456 0b28 409E0060 		bne- 7,.L294
 2457              	.LVL182:
 2458              	.L268:
 2459              		.loc 1 124 0
 2460 0b2c 7F23CB78 		mr 3,25
 2461 0b30 48000001 		bl strlen
 2462 0b34 2B830004 		cmplwi 7,3,4
 2463 0b38 419DFF9C 		bgt+ 7,.L238
 2464              		.loc 1 127 0
 2465 0b3c 7F23CB78 		mr 3,25
 2466              		.loc 1 128 0
 2467 0b40 3B200000 		li 25,0
 2468              	.LVL183:
 2469              		.loc 1 127 0
 2470 0b44 48000001 		bl free
 2471              	.LVL184:
 2472              	.LBE2614:
 2473              		.loc 1 132 0
 2474 0b48 80010074 		lwz 0,116(1)
 2475 0b4c 81810048 		lwz 12,72(1)
 2476 0b50 7F23CB78 		mr 3,25
 2477 0b54 7C0803A6 		mtlr 0
 2478 0b58 82E1004C 		lwz 23,76(1)
 2479              	.LVL185:
 2480 0b5c 83010050 		lwz 24,80(1)
 2481              	.LVL186:
 2482 0b60 7D808120 		mtcrf 8,12
 2483 0b64 83210054 		lwz 25,84(1)
 2484 0b68 83410058 		lwz 26,88(1)
 2485 0b6c 8361005C 		lwz 27,92(1)
 2486 0b70 83810060 		lwz 28,96(1)
 2487              	.LVL187:
 2488 0b74 83A10064 		lwz 29,100(1)
 2489 0b78 83C10068 		lwz 30,104(1)
 2490 0b7c 83E1006C 		lwz 31,108(1)
 2491 0b80 38210070 		addi 1,1,112
 2492              		.cfi_remember_state
 2493              		.cfi_restore 23
 2494              		.cfi_restore 24
 2495              		.cfi_restore 25
 2496              		.cfi_restore 26
 2497              		.cfi_restore 27
 2498              		.cfi_restore 28
 2499              		.cfi_restore 29
 2500              		.cfi_restore 30
 2501              		.cfi_restore 31
 2502              		.cfi_restore 70
 2503              	.LCFI16:
 2504              		.cfi_def_cfa_offset 0
 2505 0b84 4E800020 		blr
 2506              	.LVL188:
 2507              	.L294:
 2508              	.LCFI17:
 2509              		.cfi_restore_state
 2510              	.LBB2615:
 2511              	.LBB2603:
 2512              	.LBB2604:
 2513              		.file 4 "d:/Projects/SaveGameManager/savegame-manager-gx/trunk/source/Network/../Controls/Applicat
 2514              		.loc 4 27 0
 2515 0b88 3FE00000 		lis 31,_ZN11Application8instanceE@ha
 2516              	.LVL189:
 2517 0b8c 83DF0000 		lwz 30,_ZN11Application8instanceE@l(31)
 2518              	.LVL190:
 2519 0b90 2F9E0000 		cmpwi 7,30,0
 2520 0b94 419E0074 		beq- 7,.L295
 2521              	.L269:
 2522              	.LBE2604:
 2523              	.LBE2603:
 2524              		.loc 1 120 0
 2525 0b98 809C0004 		lwz 4,4(28)
 2526 0b9c 7FC3F378 		mr 3,30
 2527 0ba0 48000001 		bl _ZN11Application13PushForDeleteEP10GuiElement
 2528              	.LBB2606:
 2529              	.LBB2607:
 2530              		.loc 4 27 0
 2531 0ba4 83DF0000 		lwz 30,_ZN11Application8instanceE@l(31)
 2532 0ba8 2F9E0000 		cmpwi 7,30,0
 2533 0bac 419E0074 		beq- 7,.L296
 2534              	.L271:
 2535              	.LBE2607:
 2536              	.LBE2606:
 2537              		.loc 1 121 0
 2538 0bb0 813E0000 		lwz 9,0(30)
 2539 0bb4 7FC3F378 		mr 3,30
 2540 0bb8 800900D8 		lwz 0,216(9)
 2541 0bbc 7C0903A6 		mtctr 0
 2542 0bc0 4E800421 		bctrl
 2543 0bc4 4BFFFF68 		b .L268
 2544              	.LVL191:
 2545              	.L293:
 2546              	.LBB2609:
 2547              	.LBB2590:
 2548              	.LBB2591:
 2549              		.loc 4 27 0
 2550 0bc8 3FE00000 		lis 31,_ZN11Application8instanceE@ha
 2551              	.LVL192:
 2552 0bcc 83DF0000 		lwz 30,_ZN11Application8instanceE@l(31)
 2553              	.LVL193:
 2554 0bd0 2F9E0000 		cmpwi 7,30,0
 2555 0bd4 419E007C 		beq- 7,.L297
 2556              	.LVL194:
 2557              	.L261:
 2558              	.LBE2591:
 2559              	.LBE2590:
 2560              		.loc 1 92 0
 2561 0bd8 809C0004 		lwz 4,4(28)
 2562 0bdc 7FC3F378 		mr 3,30
 2563 0be0 48000001 		bl _ZN11Application13PushForDeleteEP10GuiElement
 2564              	.LBB2593:
 2565              	.LBB2594:
 2566              		.loc 4 27 0
 2567 0be4 83DF0000 		lwz 30,_ZN11Application8instanceE@l(31)
 2568 0be8 2F9E0000 		cmpwi 7,30,0
 2569 0bec 419E004C 		beq- 7,.L298
 2570              	.L263:
 2571              	.LBE2594:
 2572              	.LBE2593:
 2573              		.loc 1 93 0
 2574 0bf0 813E0000 		lwz 9,0(30)
 2575 0bf4 7FC3F378 		mr 3,30
 2576 0bf8 800900D8 		lwz 0,216(9)
 2577 0bfc 7C0903A6 		mtctr 0
 2578 0c00 4E800421 		bctrl
 2579 0c04 4BFFFEBC 		b .L260
 2580              	.LVL195:
 2581              	.L295:
 2582              	.LBE2609:
 2583              	.LBB2610:
 2584              	.LBB2605:
 2585              		.loc 4 27 0
 2586 0c08 38600278 		li 3,632
 2587 0c0c 48000001 		bl _Znwj
 2588              	.LEHE36:
 2589 0c10 7C7E1B78 		mr 30,3
 2590              	.LEHB37:
 2591 0c14 48000001 		bl _ZN11ApplicationC1Ev
 2592              	.LEHE37:
 2593 0c18 93DF0000 		stw 30,_ZN11Application8instanceE@l(31)
 2594 0c1c 4BFFFF7C 		b .L269
 2595              	.L296:
 2596              	.LBE2605:
 2597              	.LBE2610:
 2598              	.LBB2611:
 2599              	.LBB2608:
 2600 0c20 38600278 		li 3,632
 2601              	.LEHB38:
 2602 0c24 48000001 		bl _Znwj
 2603              	.LEHE38:
 2604 0c28 7C7E1B78 		mr 30,3
 2605              	.LEHB39:
 2606 0c2c 48000001 		bl _ZN11ApplicationC1Ev
 2607              	.LEHE39:
 2608 0c30 93DF0000 		stw 30,_ZN11Application8instanceE@l(31)
 2609 0c34 4BFFFF7C 		b .L271
 2610              	.LVL196:
 2611              	.L298:
 2612              	.LBE2608:
 2613              	.LBE2611:
 2614              	.LBB2612:
 2615              	.LBB2597:
 2616              	.LBB2595:
 2617 0c38 38600278 		li 3,632
 2618              	.LEHB40:
 2619 0c3c 48000001 		bl _Znwj
 2620              	.LEHE40:
 2621 0c40 7C7E1B78 		mr 30,3
 2622              	.LEHB41:
 2623 0c44 48000001 		bl _ZN11ApplicationC1Ev
 2624              	.LEHE41:
 2625 0c48 93DF0000 		stw 30,_ZN11Application8instanceE@l(31)
 2626 0c4c 4BFFFFA4 		b .L263
 2627              	.L297:
 2628              	.LBE2595:
 2629              	.LBE2597:
 2630              	.LBB2598:
 2631              	.LBB2592:
 2632 0c50 38600278 		li 3,632
 2633              	.LEHB42:
 2634 0c54 48000001 		bl _Znwj
 2635              	.LEHE42:
 2636 0c58 7C7E1B78 		mr 30,3
 2637              	.LEHB43:
 2638 0c5c 48000001 		bl _ZN11ApplicationC1Ev
 2639              	.LEHE43:
 2640 0c60 93DF0000 		stw 30,_ZN11Application8instanceE@l(31)
 2641 0c64 4BFFFF74 		b .L261
 2642              	.LVL197:
 2643              	.L289:
 2644              	.LBE2592:
 2645              	.LBE2598:
 2646              	.LBB2599:
 2647              	.LBB2571:
 2648              	.LBB2570:
 2649              	.LBB2569:
 2650              	.LBB2567:
 2651              	.LBB2560:
 2652              	.LBB2561:
 2653              	.LBB2562:
 2654              		.loc 3 66 0
 2655 0c68 8169FFFC 		lwz 11,-4(9)
 2656              	.LVL198:
 2657              	.LBE2562:
 2658              	.LBE2561:
 2659              	.LBE2560:
 2660              		.loc 2 240 0
 2661 0c6c 2F8B0000 		cmpwi 7,11,0
 2662              	.LBB2565:
 2663              	.LBB2564:
 2664              	.LBB2563:
 2665              		.loc 3 67 0
 2666 0c70 396BFFFF 		addi 11,11,-1
 2667 0c74 9169FFFC 		stw 11,-4(9)
 2668              	.LBE2563:
 2669              	.LBE2564:
 2670              	.LBE2565:
 2671              		.loc 2 240 0
 2672 0c78 419DFDB8 		bgt+ 7,.L249
 2673              		.loc 2 244 0
 2674 0c7c 38810009 		addi 4,1,9
 2675 0c80 48000001 		bl _ZNSs4_Rep10_M_destroyERKSaIcE
 2676              	.LVL199:
 2677 0c84 4BFFFDAC 		b .L249
 2678              	.LVL200:
 2679              	.L290:
 2680              	.LBE2567:
 2681              	.LBE2569:
 2682              	.LBE2570:
 2683              	.LBE2571:
 2684              	.LBE2599:
 2685              	.LBB2600:
 2686              	.LBB2589:
 2687              	.LBB2588:
 2688              	.LBB2587:
 2689              	.LBB2586:
 2690              	.LBB2580:
 2691              	.LBB2581:
 2692              	.LBB2582:
 2693              		.loc 3 66 0
 2694 0c88 8169FFFC 		lwz 11,-4(9)
 2695              	.LVL201:
 2696              	.LBE2582:
 2697              	.LBE2581:
 2698              	.LBE2580:
 2699              		.loc 2 240 0
 2700 0c8c 2F8B0000 		cmpwi 7,11,0
 2701              	.LBB2585:
 2702              	.LBB2584:
 2703              	.LBB2583:
 2704              		.loc 3 67 0
 2705 0c90 396BFFFF 		addi 11,11,-1
 2706 0c94 9169FFFC 		stw 11,-4(9)
 2707              	.LBE2583:
 2708              	.LBE2584:
 2709              	.LBE2585:
 2710              		.loc 2 240 0
 2711 0c98 419DFDA8 		bgt+ 7,.L257
 2712              		.loc 2 244 0
 2713 0c9c 38810008 		addi 4,1,8
 2714 0ca0 48000001 		bl _ZNSs4_Rep10_M_destroyERKSaIcE
 2715              	.LVL202:
 2716 0ca4 4BFFFD9C 		b .L257
 2717              	.LVL203:
 2718              	.L279:
 2719 0ca8 7C7F1B78 		mr 31,3
 2720              	.LVL204:
 2721              	.LBE2586:
 2722              	.LBE2587:
 2723              	.LBE2588:
 2724              	.LBE2589:
 2725              	.LBE2600:
 2726              		.loc 1 79 0
 2727 0cac 3861000C 		addi 3,1,12
 2728 0cb0 48000001 		bl _ZNSsD1Ev
 2729              	.L277:
 2730 0cb4 38610010 		addi 3,1,16
 2731 0cb8 48000001 		bl _ZNSsD1Ev
 2732 0cbc 7FE3FB78 		mr 3,31
 2733              	.LEHB44:
 2734 0cc0 48000001 		bl _Unwind_Resume
 2735              	.LVL205:
 2736              	.L280:
 2737              	.L287:
 2738 0cc4 7C7F1B78 		mr 31,3
 2739              	.LBB2601:
 2740              	.LBB2596:
 2741              		.loc 4 27 0
 2742 0cc8 7FC3F378 		mr 3,30
 2743 0ccc 48000001 		bl _ZdlPv
 2744 0cd0 7FE3FB78 		mr 3,31
 2745 0cd4 48000001 		bl _Unwind_Resume
 2746              	.LEHE44:
 2747              	.LVL206:
 2748              	.L278:
 2749 0cd8 7C7F1B78 		mr 31,3
 2750              	.LVL207:
 2751 0cdc 4BFFFFD8 		b .L277
 2752              	.LVL208:
 2753              	.L283:
 2754 0ce0 4BFFFFE4 		b .L287
 2755              	.L282:
 2756 0ce4 4BFFFFE0 		b .L287
 2757              	.LVL209:
 2758              	.L281:
 2759 0ce8 4BFFFFDC 		b .L287
 2760              	.LBE2596:
 2761              	.LBE2601:
 2762              	.LBE2612:
 2763              	.LBE2615:
 2764              		.cfi_endproc
 2765              	.LFE1599:
 2766              		.section	.gcc_except_table
 2767              	.LLSDA1599:
 2768 00bf FF       		.byte	0xff
 2769 00c0 FF       		.byte	0xff
 2770 00c1 01       		.byte	0x1
 2771 00c2 43       		.uleb128 .LLSDACSE1599-.LLSDACSB1599
 2772              	.LLSDACSB1599:
 2773 00c3 AC01     		.uleb128 .LEHB33-.LFB1599
 2774 00c5 24       		.uleb128 .LEHE33-.LEHB33
 2775 00c6 00       		.uleb128 0
 2776 00c7 00       		.uleb128 0
 2777 00c8 DC01     		.uleb128 .LEHB34-.LFB1599
 2778 00ca 04       		.uleb128 .LEHE34-.LEHB34
 2779 00cb B807     		.uleb128 .L278-.LFB1599
 2780 00cd 00       		.uleb128 0
 2781 00ce F401     		.uleb128 .LEHB35-.LFB1599
 2782 00d0 04       		.uleb128 .LEHE35-.LEHB35
 2783 00d1 8807     		.uleb128 .L279-.LFB1599
 2784 00d3 00       		.uleb128 0
 2785 00d4 A802     		.uleb128 .LEHB36-.LFB1599
 2786 00d6 C803     		.uleb128 .LEHE36-.LEHB36
 2787 00d8 00       		.uleb128 0
 2788 00d9 00       		.uleb128 0
 2789 00da F405     		.uleb128 .LEHB37-.LFB1599
 2790 00dc 04       		.uleb128 .LEHE37-.LEHB37
 2791 00dd C407     		.uleb128 .L282-.LFB1599
 2792 00df 00       		.uleb128 0
 2793 00e0 8406     		.uleb128 .LEHB38-.LFB1599
 2794 00e2 04       		.uleb128 .LEHE38-.LEHB38
 2795 00e3 00       		.uleb128 0
 2796 00e4 00       		.uleb128 0
 2797 00e5 8C06     		.uleb128 .LEHB39-.LFB1599
 2798 00e7 04       		.uleb128 .LEHE39-.LEHB39
 2799 00e8 C007     		.uleb128 .L283-.LFB1599
 2800 00ea 00       		.uleb128 0
 2801 00eb 9C06     		.uleb128 .LEHB40-.LFB1599
 2802 00ed 04       		.uleb128 .LEHE40-.LEHB40
 2803 00ee 00       		.uleb128 0
 2804 00ef 00       		.uleb128 0
 2805 00f0 A406     		.uleb128 .LEHB41-.LFB1599
 2806 00f2 04       		.uleb128 .LEHE41-.LEHB41
 2807 00f3 C807     		.uleb128 .L281-.LFB1599
 2808 00f5 00       		.uleb128 0
 2809 00f6 B406     		.uleb128 .LEHB42-.LFB1599
 2810 00f8 04       		.uleb128 .LEHE42-.LEHB42
 2811 00f9 00       		.uleb128 0
 2812 00fa 00       		.uleb128 0
 2813 00fb BC06     		.uleb128 .LEHB43-.LFB1599
 2814 00fd 04       		.uleb128 .LEHE43-.LEHB43
 2815 00fe A407     		.uleb128 .L280-.LFB1599
 2816 0100 00       		.uleb128 0
 2817 0101 A007     		.uleb128 .LEHB44-.LFB1599
 2818 0103 18       		.uleb128 .LEHE44-.LEHB44
 2819 0104 00       		.uleb128 0
 2820 0105 00       		.uleb128 0
 2821              	.LLSDACSE1599:
 2822              		.section	".text"
 2823              		.size	_ZN9ChangeLog17GetChangeLogRangeEiib, .-_ZN9ChangeLog17GetChangeLogRangeEiib
 2824              		.align 2
 2825              		.globl _ZN9ChangeLog17DownloadChangeLogEiib
 2826              		.type	_ZN9ChangeLog17DownloadChangeLogEiib, @function
 2827              	_ZN9ChangeLog17DownloadChangeLogEiib:
 2828              	.LFB1601:
 2829              		.loc 1 189 0
 2830              		.cfi_startproc
 2831              		.cfi_personality 0,__gxx_personality_v0
 2832              		.cfi_lsda 0,.LLSDA1601
 2833              	.LVL210:
 2834 0cec 7C0802A6 		mflr 0
 2835 0cf0 9421FBC8 		stwu 1,-1080(1)
 2836              	.LCFI18:
 2837              		.cfi_def_cfa_offset 1080
 2838              		.cfi_register 65, 0
 2839 0cf4 93C10430 		stw 30,1072(1)
 2840 0cf8 9001043C 		stw 0,1084(1)
 2841 0cfc 93A1042C 		stw 29,1068(1)
 2842 0d00 93E10434 		stw 31,1076(1)
 2843              	.LEHB45:
 2844              	.LBB2696:
 2845              		.loc 1 190 0
 2846              		.cfi_offset 31, -4
 2847              		.cfi_offset 29, -12
 2848              		.cfi_offset 65, 4
 2849              		.cfi_offset 30, -8
 2850 0d04 48000001 		bl _ZN9ChangeLog17GetChangeLogRangeEiib
 2851              	.LVL211:
 2852              		.loc 1 192 0
 2853 0d08 7C7E1B79 		mr. 30,3
 2854 0d0c 418200F4 		beq- 0,.L326
 2855              		.loc 1 196 0
 2856 0d10 3FE00000 		lis 31,Settings+494@ha
 2857 0d14 3CA00000 		lis 5,.LC17@ha
 2858 0d18 3BFF01EE 		la 31,Settings+494@l(31)
 2859 0d1c 38800400 		li 4,1024
 2860 0d20 38A500E8 		la 5,.LC17@l(5)
 2861 0d24 7FE6FB78 		mr 6,31
 2862 0d28 3861001C 		addi 3,1,28
 2863              	.LVL212:
 2864 0d2c 4CC63182 		crxor 6,6,6
 2865 0d30 48000001 		bl snprintf
 2866              		.loc 1 197 0
 2867 0d34 38610018 		addi 3,1,24
 2868 0d38 7FE4FB78 		mr 4,31
 2869 0d3c 38A1000C 		addi 5,1,12
 2870 0d40 48000001 		bl _ZNSsC1EPKcRKSaIcE
 2871              	.LEHE45:
 2872 0d44 38610018 		addi 3,1,24
 2873              	.LEHB46:
 2874 0d48 48000001 		bl _Z15CreateSubfolderSs
 2875              	.LEHE46:
 2876              	.LVL213:
 2877              	.LBB2697:
 2878              	.LBB2698:
 2879              	.LBB2699:
 2880              	.LBB2700:
 2881              	.LBB2701:
 2882              	.LBB2702:
 2883              		.loc 2 288 0
 2884 0d4c 81210018 		lwz 9,24(1)
 2885              	.LBE2702:
 2886              	.LBE2701:
 2887              	.LBE2700:
 2888              	.LBB2703:
 2889              	.LBB2704:
 2890              		.loc 2 235 0
 2891 0d50 3FE00000 		lis 31,_ZNSs4_Rep20_S_empty_rep_storageE@ha
 2892 0d54 3BFF0000 		la 31,_ZNSs4_Rep20_S_empty_rep_storageE@l(31)
 2893              	.LBE2704:
 2894              	.LBE2703:
 2895              		.loc 2 534 0
 2896 0d58 3869FFF4 		addi 3,9,-12
 2897              	.LVL214:
 2898              	.LBB2713:
 2899              	.LBB2711:
 2900              		.loc 2 235 0
 2901 0d5c 7F83F800 		cmpw 7,3,31
 2902 0d60 409E00D4 		bne- 7,.L332
 2903              	.LVL215:
 2904              	.L308:
 2905              	.LBE2711:
 2906              	.LBE2713:
 2907              	.LBE2699:
 2908              	.LBE2698:
 2909              	.LBE2697:
 2910              		.loc 1 199 0 discriminator 1
 2911 0d64 3C800000 		lis 4,.LC18@ha
 2912 0d68 3861001C 		addi 3,1,28
 2913 0d6c 38840104 		la 4,.LC18@l(4)
 2914              	.LEHB47:
 2915 0d70 48000001 		bl fopen
 2916              	.LVL216:
 2917              		.loc 1 200 0 discriminator 1
 2918 0d74 7C7D1B79 		mr. 29,3
 2919 0d78 418200AC 		beq- 0,.L333
 2920              		.loc 1 206 0
 2921 0d7c 38610010 		addi 3,1,16
 2922              	.LVL217:
 2923 0d80 7FC4F378 		mr 4,30
 2924 0d84 38A1000B 		addi 5,1,11
 2925 0d88 48000001 		bl _ZNSsC1EPKcRKSaIcE
 2926              	.LEHE47:
 2927 0d8c 38610014 		addi 3,1,20
 2928 0d90 38810010 		addi 4,1,16
 2929              	.LEHB48:
 2930 0d94 4BFFF26D 		bl _ZN9ChangeLog16FixChangeLogTextESs.constprop.74
 2931              	.LEHE48:
 2932              	.LVL218:
 2933              	.LBB2717:
 2934              	.LBB2718:
 2935              	.LBB2719:
 2936              	.LBB2720:
 2937              	.LBB2721:
 2938              	.LBB2722:
 2939              		.loc 2 288 0
 2940 0d98 81210010 		lwz 9,16(1)
 2941              	.LBE2722:
 2942              	.LBE2721:
 2943              	.LBE2720:
 2944              		.loc 2 534 0
 2945 0d9c 3869FFF4 		addi 3,9,-12
 2946              	.LVL219:
 2947              	.LBB2723:
 2948              	.LBB2724:
 2949              		.loc 2 235 0
 2950 0da0 7F83F800 		cmpw 7,3,31
 2951 0da4 409E00B0 		bne- 7,.L334
 2952              	.LVL220:
 2953              	.L317:
 2954              	.LBE2724:
 2955              	.LBE2723:
 2956              	.LBE2719:
 2957              	.LBE2718:
 2958              	.LBE2717:
 2959              		.loc 1 207 0
 2960 0da8 80610014 		lwz 3,20(1)
 2961 0dac 38800001 		li 4,1
 2962 0db0 7FA6EB78 		mr 6,29
 2963 0db4 80A3FFF4 		lwz 5,-12(3)
 2964              	.LEHB49:
 2965 0db8 48000001 		bl fwrite
 2966              		.loc 1 209 0
 2967 0dbc 7FA3EB78 		mr 3,29
 2968 0dc0 48000001 		bl fclose
 2969              	.LEHE49:
 2970              		.loc 1 210 0
 2971 0dc4 7FC3F378 		mr 3,30
 2972              	.LBB2735:
 2973              	.LBB2736:
 2974              	.LBB2737:
 2975              	.LBB2738:
 2976              	.LBB2739:
 2977              		.loc 1 212 0
 2978 0dc8 3BC00001 		li 30,1
 2979              	.LVL221:
 2980              	.LBE2739:
 2981              	.LBE2738:
 2982              	.LBE2737:
 2983              	.LBE2736:
 2984              	.LBE2735:
 2985              		.loc 1 210 0
 2986 0dcc 48000001 		bl free
 2987              	.LVL222:
 2988              	.LBB2757:
 2989              	.LBB2755:
 2990              	.LBB2753:
 2991              	.LBB2748:
 2992              	.LBB2749:
 2993              	.LBB2750:
 2994              		.loc 2 288 0
 2995 0dd0 81210014 		lwz 9,20(1)
 2996              	.LBE2750:
 2997              	.LBE2749:
 2998              	.LBE2748:
 2999              		.loc 2 534 0
 3000 0dd4 3869FFF4 		addi 3,9,-12
 3001              	.LVL223:
 3002              	.LBB2751:
 3003              	.LBB2746:
 3004              		.loc 2 235 0
 3005 0dd8 7F83F800 		cmpw 7,3,31
 3006 0ddc 409E0098 		bne- 7,.L335
 3007              	.LVL224:
 3008              	.L322:
 3009              	.LBE2746:
 3010              	.LBE2751:
 3011              	.LBE2753:
 3012              	.LBE2755:
 3013              	.LBE2757:
 3014              	.LBE2696:
 3015              		.loc 1 213 0
 3016 0de0 8001043C 		lwz 0,1084(1)
 3017 0de4 7FC3F378 		mr 3,30
 3018 0de8 83A1042C 		lwz 29,1068(1)
 3019              	.LVL225:
 3020 0dec 7C0803A6 		mtlr 0
 3021 0df0 83C10430 		lwz 30,1072(1)
 3022 0df4 83E10434 		lwz 31,1076(1)
 3023 0df8 38210438 		addi 1,1,1080
 3024              		.cfi_remember_state
 3025              	.LCFI19:
 3026              		.cfi_def_cfa_offset 0
 3027              		.cfi_restore 31
 3028              		.cfi_restore 30
 3029              		.cfi_restore 29
 3030 0dfc 4E800020 		blr
 3031              	.LVL226:
 3032              	.L326:
 3033              	.LCFI20:
 3034              		.cfi_restore_state
 3035 0e00 8001043C 		lwz 0,1084(1)
 3036              	.LBB2761:
 3037              		.loc 1 193 0
 3038 0e04 3BC00000 		li 30,0
 3039              	.LBE2761:
 3040              		.loc 1 213 0
 3041 0e08 7FC3F378 		mr 3,30
 3042              	.LVL227:
 3043 0e0c 83A1042C 		lwz 29,1068(1)
 3044 0e10 7C0803A6 		mtlr 0
 3045 0e14 83C10430 		lwz 30,1072(1)
 3046 0e18 83E10434 		lwz 31,1076(1)
 3047 0e1c 38210438 		addi 1,1,1080
 3048              		.cfi_remember_state
 3049              		.cfi_restore 29
 3050              		.cfi_restore 30
 3051              		.cfi_restore 31
 3052              	.LCFI21:
 3053              		.cfi_def_cfa_offset 0
 3054 0e20 4E800020 		blr
 3055              	.LVL228:
 3056              	.L333:
 3057              	.LCFI22:
 3058              		.cfi_restore_state
 3059              	.LBB2762:
 3060              		.loc 1 202 0
 3061 0e24 7FC3F378 		mr 3,30
 3062              	.LVL229:
 3063              		.loc 1 203 0
 3064 0e28 3BC00000 		li 30,0
 3065              	.LVL230:
 3066              		.loc 1 202 0
 3067 0e2c 48000001 		bl free
 3068              	.LVL231:
 3069              		.loc 1 203 0
 3070 0e30 4BFFFFB0 		b .L322
 3071              	.LVL232:
 3072              	.L332:
 3073              	.LBB2758:
 3074              	.LBB2716:
 3075              	.LBB2715:
 3076              	.LBB2714:
 3077              	.LBB2712:
 3078              	.LBB2705:
 3079              	.LBB2706:
 3080              	.LBB2707:
 3081              		.loc 3 66 0
 3082 0e34 8169FFFC 		lwz 11,-4(9)
 3083              	.LVL233:
 3084              	.LBE2707:
 3085              	.LBE2706:
 3086              	.LBE2705:
 3087              		.loc 2 240 0
 3088 0e38 2F8B0000 		cmpwi 7,11,0
 3089              	.LBB2710:
 3090              	.LBB2709:
 3091              	.LBB2708:
 3092              		.loc 3 67 0
 3093 0e3c 396BFFFF 		addi 11,11,-1
 3094 0e40 9169FFFC 		stw 11,-4(9)
 3095              	.LBE2708:
 3096              	.LBE2709:
 3097              	.LBE2710:
 3098              		.loc 2 240 0
 3099 0e44 419DFF20 		bgt+ 7,.L308
 3100              		.loc 2 244 0
 3101 0e48 3881000A 		addi 4,1,10
 3102 0e4c 48000001 		bl _ZNSs4_Rep10_M_destroyERKSaIcE
 3103              	.LVL234:
 3104 0e50 4BFFFF14 		b .L308
 3105              	.LVL235:
 3106              	.L334:
 3107              	.LBE2712:
 3108              	.LBE2714:
 3109              	.LBE2715:
 3110              	.LBE2716:
 3111              	.LBE2758:
 3112              	.LBB2759:
 3113              	.LBB2734:
 3114              	.LBB2733:
 3115              	.LBB2732:
 3116              	.LBB2731:
 3117              	.LBB2725:
 3118              	.LBB2726:
 3119              	.LBB2727:
 3120              		.loc 3 66 0
 3121 0e54 8169FFFC 		lwz 11,-4(9)
 3122              	.LVL236:
 3123              	.LBE2727:
 3124              	.LBE2726:
 3125              	.LBE2725:
 3126              		.loc 2 240 0
 3127 0e58 2F8B0000 		cmpwi 7,11,0
 3128              	.LBB2730:
 3129              	.LBB2729:
 3130              	.LBB2728:
 3131              		.loc 3 67 0
 3132 0e5c 396BFFFF 		addi 11,11,-1
 3133 0e60 9169FFFC 		stw 11,-4(9)
 3134              	.LBE2728:
 3135              	.LBE2729:
 3136              	.LBE2730:
 3137              		.loc 2 240 0
 3138 0e64 419DFF44 		bgt+ 7,.L317
 3139              		.loc 2 244 0
 3140 0e68 38810009 		addi 4,1,9
 3141 0e6c 48000001 		bl _ZNSs4_Rep10_M_destroyERKSaIcE
 3142              	.LVL237:
 3143 0e70 4BFFFF38 		b .L317
 3144              	.LVL238:
 3145              	.L335:
 3146              	.LBE2731:
 3147              	.LBE2732:
 3148              	.LBE2733:
 3149              	.LBE2734:
 3150              	.LBE2759:
 3151              	.LBB2760:
 3152              	.LBB2756:
 3153              	.LBB2754:
 3154              	.LBB2752:
 3155              	.LBB2747:
 3156              	.LBB2740:
 3157              	.LBB2741:
 3158              	.LBB2742:
 3159              		.loc 3 66 0
 3160 0e74 8169FFFC 		lwz 11,-4(9)
 3161              	.LVL239:
 3162              	.LBE2742:
 3163              	.LBE2741:
 3164              	.LBE2740:
 3165              		.loc 2 240 0
 3166 0e78 2F8B0000 		cmpwi 7,11,0
 3167              	.LBB2745:
 3168              	.LBB2744:
 3169              	.LBB2743:
 3170              		.loc 3 67 0
 3171 0e7c 396BFFFF 		addi 11,11,-1
 3172 0e80 9169FFFC 		stw 11,-4(9)
 3173              	.LBE2743:
 3174              	.LBE2744:
 3175              	.LBE2745:
 3176              		.loc 2 240 0
 3177 0e84 419DFF5C 		bgt+ 7,.L322
 3178              		.loc 2 244 0
 3179 0e88 38810008 		addi 4,1,8
 3180 0e8c 48000001 		bl _ZNSs4_Rep10_M_destroyERKSaIcE
 3181              	.LVL240:
 3182 0e90 4BFFFF50 		b .L322
 3183              	.LVL241:
 3184              	.L331:
 3185 0e94 7C7F1B78 		mr 31,3
 3186              	.LBE2747:
 3187              	.LBE2752:
 3188              	.LBE2754:
 3189              	.LBE2756:
 3190              	.LBE2760:
 3191              		.loc 1 212 0
 3192 0e98 38610014 		addi 3,1,20
 3193              	.LVL242:
 3194 0e9c 48000001 		bl _ZNSsD1Ev
 3195              	.LVL243:
 3196 0ea0 7FE3FB78 		mr 3,31
 3197              	.LEHB50:
 3198 0ea4 48000001 		bl _Unwind_Resume
 3199              	.LVL244:
 3200              	.L330:
 3201 0ea8 7C7F1B78 		mr 31,3
 3202              		.loc 1 206 0
 3203 0eac 38610010 		addi 3,1,16
 3204 0eb0 48000001 		bl _ZNSsD1Ev
 3205 0eb4 7FE3FB78 		mr 3,31
 3206 0eb8 48000001 		bl _Unwind_Resume
 3207              	.LVL245:
 3208              	.L329:
 3209 0ebc 7C7F1B78 		mr 31,3
 3210              		.loc 1 197 0
 3211 0ec0 38610018 		addi 3,1,24
 3212 0ec4 48000001 		bl _ZNSsD1Ev
 3213 0ec8 7FE3FB78 		mr 3,31
 3214 0ecc 48000001 		bl _Unwind_Resume
 3215              	.LEHE50:
 3216              	.LBE2762:
 3217              		.cfi_endproc
 3218              	.LFE1601:
 3219              		.section	.gcc_except_table
 3220              	.LLSDA1601:
 3221 0106 FF       		.byte	0xff
 3222 0107 FF       		.byte	0xff
 3223 0108 01       		.byte	0x1
 3224 0109 1F       		.uleb128 .LLSDACSE1601-.LLSDACSB1601
 3225              	.LLSDACSB1601:
 3226 010a 18       		.uleb128 .LEHB45-.LFB1601
 3227 010b 40       		.uleb128 .LEHE45-.LEHB45
 3228 010c 00       		.uleb128 0
 3229 010d 00       		.uleb128 0
 3230 010e 5C       		.uleb128 .LEHB46-.LFB1601
 3231 010f 04       		.uleb128 .LEHE46-.LEHB46
 3232 0110 D003     		.uleb128 .L329-.LFB1601
 3233 0112 00       		.uleb128 0
 3234 0113 8401     		.uleb128 .LEHB47-.LFB1601
 3235 0115 1C       		.uleb128 .LEHE47-.LEHB47
 3236 0116 00       		.uleb128 0
 3237 0117 00       		.uleb128 0
 3238 0118 A801     		.uleb128 .LEHB48-.LFB1601
 3239 011a 04       		.uleb128 .LEHE48-.LEHB48
 3240 011b BC03     		.uleb128 .L330-.LFB1601
 3241 011d 00       		.uleb128 0
 3242 011e CC01     		.uleb128 .LEHB49-.LFB1601
 3243 0120 0C       		.uleb128 .LEHE49-.LEHB49
 3244 0121 A803     		.uleb128 .L331-.LFB1601
 3245 0123 00       		.uleb128 0
 3246 0124 B803     		.uleb128 .LEHB50-.LFB1601
 3247 0126 2C       		.uleb128 .LEHE50-.LEHB50
 3248 0127 00       		.uleb128 0
 3249 0128 00       		.uleb128 0
 3250              	.LLSDACSE1601:
 3251              		.section	".text"
 3252              		.size	_ZN9ChangeLog17DownloadChangeLogEiib, .-_ZN9ChangeLog17DownloadChangeLogEiib
 3253              		.align 2
 3254              		.globl _ZN9ChangeLog20GetSavedChangeLogRevEv
 3255              		.type	_ZN9ChangeLog20GetSavedChangeLogRevEv, @function
 3256              	_ZN9ChangeLog20GetSavedChangeLogRevEv:
 3257              	.LFB1602:
 3258              		.loc 1 216 0
 3259              		.cfi_startproc
 3260              		.cfi_personality 0,__gxx_personality_v0
 3261              		.cfi_lsda 0,.LLSDA1602
 3262              	.LVL246:
 3263 0ed0 9421FBD0 		stwu 1,-1072(1)
 3264              	.LCFI23:
 3265              		.cfi_def_cfa_offset 1072
 3266 0ed4 7C0802A6 		mflr 0
 3267              	.LBB2789:
 3268              		.loc 1 218 0
 3269 0ed8 3CA00000 		lis 5,.LC17@ha
 3270 0edc 3CC00000 		lis 6,Settings+494@ha
 3271 0ee0 38800400 		li 4,1024
 3272 0ee4 38A500E8 		la 5,.LC17@l(5)
 3273 0ee8 38C601EE 		la 6,Settings+494@l(6)
 3274 0eec 38610024 		addi 3,1,36
 3275              	.LVL247:
 3276              	.LBE2789:
 3277              		.loc 1 216 0
 3278 0ef0 90010434 		stw 0,1076(1)
 3279 0ef4 93C10428 		stw 30,1064(1)
 3280 0ef8 93E1042C 		stw 31,1068(1)
 3281              	.LEHB51:
 3282              	.LBB2816:
 3283              		.loc 1 218 0
 3284              		.cfi_offset 31, -4
 3285              		.cfi_offset 30, -8
 3286              		.cfi_offset 65, 4
 3287 0efc 4CC63182 		crxor 6,6,6
 3288 0f00 48000001 		bl snprintf
 3289              		.loc 1 220 0
 3290 0f04 3861000C 		addi 3,1,12
 3291 0f08 38810024 		addi 4,1,36
 3292 0f0c 38A10009 		addi 5,1,9
 3293 0f10 48000001 		bl _ZNSsC1EPKcRKSaIcE
 3294              	.LEHE51:
 3295 0f14 3861000C 		addi 3,1,12
 3296              	.LEHB52:
 3297 0f18 48000001 		bl _Z9CheckFileSs
 3298              	.LEHE52:
 3299              	.LBB2790:
 3300              	.LBB2791:
 3301              	.LBB2792:
 3302              	.LBB2793:
 3303              	.LBB2794:
 3304              	.LBB2795:
 3305              		.loc 2 288 0
 3306 0f1c 8121000C 		lwz 9,12(1)
 3307              	.LBE2795:
 3308              	.LBE2794:
 3309              	.LBE2793:
 3310              	.LBB2796:
 3311              	.LBB2797:
 3312              		.loc 2 235 0
 3313 0f20 3D600000 		lis 11,_ZNSs4_Rep20_S_empty_rep_storageE@ha
 3314              	.LBE2797:
 3315              	.LBE2796:
 3316              	.LBE2792:
 3317              	.LBE2791:
 3318              	.LBE2790:
 3319              		.loc 1 220 0
 3320 0f24 7C7F1B78 		mr 31,3
 3321              	.LVL248:
 3322              	.LBB2814:
 3323              	.LBB2812:
 3324              	.LBB2810:
 3325              	.LBB2807:
 3326              	.LBB2804:
 3327              		.loc 2 235 0
 3328 0f28 380B0000 		la 0,_ZNSs4_Rep20_S_empty_rep_storageE@l(11)
 3329              	.LBE2804:
 3330              	.LBE2807:
 3331              		.loc 2 534 0
 3332 0f2c 3869FFF4 		addi 3,9,-12
 3333              	.LVL249:
 3334              	.LBB2808:
 3335              	.LBB2805:
 3336              		.loc 2 235 0
 3337 0f30 7F830000 		cmpw 7,3,0
 3338 0f34 409E007C 		bne- 7,.L350
 3339              	.LVL250:
 3340              	.L344:
 3341              	.LBE2805:
 3342              	.LBE2808:
 3343              	.LBE2810:
 3344              	.LBE2812:
 3345              	.LBE2814:
 3346              		.loc 1 220 0 discriminator 2
 3347 0f38 2F9F0000 		cmpwi 7,31,0
 3348              		.loc 1 221 0 discriminator 2
 3349 0f3c 3BC0FFFF 		li 30,-1
 3350              		.loc 1 220 0 discriminator 2
 3351 0f40 419E0054 		beq- 7,.L345
 3352              		.loc 1 223 0
 3353 0f44 3C800000 		lis 4,.LC19@ha
 3354 0f48 38610024 		addi 3,1,36
 3355 0f4c 38840108 		la 4,.LC19@l(4)
 3356              	.LEHB53:
 3357 0f50 48000001 		bl fopen
 3358              	.LVL251:
 3359              		.loc 1 224 0
 3360 0f54 7C7F1B79 		mr. 31,3
 3361 0f58 4182003C 		beq- 0,.L345
 3362              		.loc 1 228 0
 3363 0f5c 38E00000 		li 7,0
 3364 0f60 38A00000 		li 5,0
 3365 0f64 38C0000A 		li 6,10
 3366 0f68 48000001 		bl fseek
 3367              	.LVL252:
 3368              		.loc 1 229 0
 3369 0f6c 38800001 		li 4,1
 3370 0f70 38A00004 		li 5,4
 3371 0f74 7FE6FB78 		mr 6,31
 3372 0f78 38610010 		addi 3,1,16
 3373 0f7c 48000001 		bl fread
 3374              		.loc 1 230 0
 3375 0f80 7FE3FB78 		mr 3,31
 3376 0f84 48000001 		bl fclose
 3377              		.loc 1 232 0
 3378 0f88 38610010 		addi 3,1,16
 3379 0f8c 48000001 		bl atoi
 3380 0f90 7C7E1B78 		mr 30,3
 3381              	.LVL253:
 3382              	.L345:
 3383              	.LBE2816:
 3384              		.loc 1 233 0
 3385 0f94 80010434 		lwz 0,1076(1)
 3386 0f98 7FC3F378 		mr 3,30
 3387 0f9c 83E1042C 		lwz 31,1068(1)
 3388 0fa0 7C0803A6 		mtlr 0
 3389 0fa4 83C10428 		lwz 30,1064(1)
 3390 0fa8 38210430 		addi 1,1,1072
 3391              		.cfi_remember_state
 3392              	.LCFI24:
 3393              		.cfi_def_cfa_offset 0
 3394              		.cfi_restore 31
 3395              		.cfi_restore 30
 3396 0fac 4E800020 		blr
 3397              	.LVL254:
 3398              	.L350:
 3399              	.LCFI25:
 3400              		.cfi_restore_state
 3401              	.LBB2817:
 3402              	.LBB2815:
 3403              	.LBB2813:
 3404              	.LBB2811:
 3405              	.LBB2809:
 3406              	.LBB2806:
 3407              	.LBB2798:
 3408              	.LBB2799:
 3409              	.LBB2800:
 3410              		.loc 3 66 0
 3411 0fb0 8169FFFC 		lwz 11,-4(9)
 3412              	.LVL255:
 3413              	.LBE2800:
 3414              	.LBE2799:
 3415              	.LBE2798:
 3416              		.loc 2 240 0
 3417 0fb4 2F8B0000 		cmpwi 7,11,0
 3418              	.LBB2803:
 3419              	.LBB2802:
 3420              	.LBB2801:
 3421              		.loc 3 67 0
 3422 0fb8 396BFFFF 		addi 11,11,-1
 3423 0fbc 9169FFFC 		stw 11,-4(9)
 3424              	.LBE2801:
 3425              	.LBE2802:
 3426              	.LBE2803:
 3427              		.loc 2 240 0
 3428 0fc0 419DFF78 		bgt+ 7,.L344
 3429              		.loc 2 244 0
 3430 0fc4 38810008 		addi 4,1,8
 3431 0fc8 48000001 		bl _ZNSs4_Rep10_M_destroyERKSaIcE
 3432              	.LVL256:
 3433 0fcc 4BFFFF6C 		b .L344
 3434              	.LVL257:
 3435              	.L349:
 3436 0fd0 7C7F1B78 		mr 31,3
 3437              	.LBE2806:
 3438              	.LBE2809:
 3439              	.LBE2811:
 3440              	.LBE2813:
 3441              	.LBE2815:
 3442              		.loc 1 220 0
 3443 0fd4 3861000C 		addi 3,1,12
 3444 0fd8 48000001 		bl _ZNSsD1Ev
 3445 0fdc 7FE3FB78 		mr 3,31
 3446 0fe0 48000001 		bl _Unwind_Resume
 3447              	.LEHE53:
 3448              	.LBE2817:
 3449              		.cfi_endproc
 3450              	.LFE1602:
 3451              		.section	.gcc_except_table
 3452              	.LLSDA1602:
 3453 0129 FF       		.byte	0xff
 3454 012a FF       		.byte	0xff
 3455 012b 01       		.byte	0x1
 3456 012c 0F       		.uleb128 .LLSDACSE1602-.LLSDACSB1602
 3457              	.LLSDACSB1602:
 3458 012d 2C       		.uleb128 .LEHB51-.LFB1602
 3459 012e 18       		.uleb128 .LEHE51-.LEHB51
 3460 012f 00       		.uleb128 0
 3461 0130 00       		.uleb128 0
 3462 0131 48       		.uleb128 .LEHB52-.LFB1602
 3463 0132 04       		.uleb128 .LEHE52-.LEHB52
 3464 0133 8002     		.uleb128 .L349-.LFB1602
 3465 0135 00       		.uleb128 0
 3466 0136 8001     		.uleb128 .LEHB53-.LFB1602
 3467 0138 9401     		.uleb128 .LEHE53-.LEHB53
 3468 013a 00       		.uleb128 0
 3469 013b 00       		.uleb128 0
 3470              	.LLSDACSE1602:
 3471              		.section	".text"
 3472              		.size	_ZN9ChangeLog20GetSavedChangeLogRevEv, .-_ZN9ChangeLog20GetSavedChangeLogRevEv
 3473              		.align 2
 3474              		.globl _ZN9ChangeLog16FixChangeLogTextESs
 3475              		.type	_ZN9ChangeLog16FixChangeLogTextESs, @function
 3476              	_ZN9ChangeLog16FixChangeLogTextESs:
 3477              	.LFB1603:
 3478              		.loc 1 236 0
 3479              		.cfi_startproc
 3480              		.cfi_personality 0,__gxx_personality_v0
 3481              		.cfi_lsda 0,.LLSDA1603
 3482              	.LVL258:
 3483 0fe4 9421FF78 		stwu 1,-136(1)
 3484              	.LCFI26:
 3485              		.cfi_def_cfa_offset 136
 3486 0fe8 7C0802A6 		mflr 0
 3487              		.loc 1 237 0
 3488 0fec 7CA42B78 		mr 4,5
 3489              	.LVL259:
 3490              		.loc 1 236 0
 3491 0ff0 93A1007C 		stw 29,124(1)
 3492 0ff4 7C7D1B78 		mr 29,3
 3493              		.cfi_offset 29, -12
 3494              		.cfi_register 65, 0
 3495              		.loc 1 237 0
 3496 0ff8 38610074 		addi 3,1,116
 3497              	.LVL260:
 3498              		.loc 1 236 0
 3499 0ffc 93C10080 		stw 30,128(1)
 3500 1000 9001008C 		stw 0,140(1)
 3501 1004 7CBE2B78 		mr 30,5
 3502              		.cfi_offset 65, 4
 3503              		.cfi_offset 30, -8
 3504 1008 93E10084 		stw 31,132(1)
 3505              	.LEHB54:
 3506              		.loc 1 237 0
 3507              		.cfi_offset 31, -4
 3508 100c 48000001 		bl _ZNSsC1ERKSs
 3509              	.LEHE54:
 3510              	.LVL261:
 3511 1010 3C800000 		lis 4,.LC0@ha
 3512 1014 38610070 		addi 3,1,112
 3513 1018 38840000 		la 4,.LC0@l(4)
 3514 101c 38A10025 		addi 5,1,37
 3515              	.LEHB55:
 3516 1020 48000001 		bl _ZNSsC1EPKcRKSaIcE
 3517              	.LEHE55:
 3518              		.loc 1 237 0 is_stmt 0 discriminator 1
 3519 1024 3C800000 		lis 4,.LC1@ha
 3520 1028 3861006C 		addi 3,1,108
 3521 102c 38840008 		la 4,.LC1@l(4)
 3522 1030 38A10024 		addi 5,1,36
 3523              	.LEHB56:
 3524 1034 48000001 		bl _ZNSsC1EPKcRKSaIcE
 3525              	.LEHE56:
 3526              		.loc 1 237 0 discriminator 2
 3527 1038 38610068 		addi 3,1,104
 3528 103c 38810074 		addi 4,1,116
 3529 1040 38A10070 		addi 5,1,112
 3530 1044 38C1006C 		addi 6,1,108
 3531              	.LEHB57:
 3532 1048 48000001 		bl _Z13StringReplaceSsSsSs
 3533              	.LEHE57:
 3534              		.loc 1 237 0 discriminator 3
 3535 104c 7FC3F378 		mr 3,30
 3536 1050 38810068 		addi 4,1,104
 3537              	.LEHB58:
 3538 1054 48000001 		bl _ZNSs6assignERKSs
 3539              	.LEHE58:
 3540              	.LVL262:
 3541              	.LBB3318:
 3542              	.LBB3319:
 3543              	.LBB3320:
 3544              	.LBB3321:
 3545              	.LBB3322:
 3546              	.LBB3323:
 3547              		.loc 2 288 0 is_stmt 1
 3548 1058 81210068 		lwz 9,104(1)
 3549              	.LBE3323:
 3550              	.LBE3322:
 3551              	.LBE3321:
 3552              	.LBB3324:
 3553              	.LBB3325:
 3554              		.loc 2 235 0
 3555 105c 3FE00000 		lis 31,_ZNSs4_Rep20_S_empty_rep_storageE@ha
 3556 1060 3BFF0000 		la 31,_ZNSs4_Rep20_S_empty_rep_storageE@l(31)
 3557              	.LBE3325:
 3558              	.LBE3324:
 3559              		.loc 2 534 0
 3560 1064 3869FFF4 		addi 3,9,-12
 3561              	.LVL263:
 3562              	.LBB3334:
 3563              	.LBB3332:
 3564              		.loc 2 235 0
 3565 1068 7F83F800 		cmpw 7,3,31
 3566 106c 409E02B0 		bne- 7,.L552
 3567              	.LVL264:
 3568              	.L357:
 3569              	.LBE3332:
 3570              	.LBE3334:
 3571              	.LBE3320:
 3572              	.LBE3319:
 3573              	.LBE3318:
 3574              	.LBB3338:
 3575              	.LBB3339:
 3576              	.LBB3340:
 3577              	.LBB3341:
 3578              	.LBB3342:
 3579              	.LBB3343:
 3580              		.loc 2 288 0
 3581 1070 8121006C 		lwz 9,108(1)
 3582              	.LBE3343:
 3583              	.LBE3342:
 3584              	.LBE3341:
 3585              		.loc 2 534 0
 3586 1074 3869FFF4 		addi 3,9,-12
 3587              	.LVL265:
 3588              	.LBB3344:
 3589              	.LBB3345:
 3590              		.loc 2 235 0
 3591 1078 7F83F800 		cmpw 7,3,31
 3592 107c 409E0500 		bne- 7,.L553
 3593              	.LVL266:
 3594              	.L365:
 3595              	.LBE3345:
 3596              	.LBE3344:
 3597              	.LBE3340:
 3598              	.LBE3339:
 3599              	.LBE3338:
 3600              	.LBB3356:
 3601              	.LBB3357:
 3602              	.LBB3358:
 3603              	.LBB3359:
 3604              	.LBB3360:
 3605              	.LBB3361:
 3606              		.loc 2 288 0
 3607 1080 81210070 		lwz 9,112(1)
 3608              	.LBE3361:
 3609              	.LBE3360:
 3610              	.LBE3359:
 3611              		.loc 2 534 0
 3612 1084 3869FFF4 		addi 3,9,-12
 3613              	.LVL267:
 3614              	.LBB3362:
 3615              	.LBB3363:
 3616              		.loc 2 235 0
 3617 1088 7F83F800 		cmpw 7,3,31
 3618 108c 409E04D0 		bne- 7,.L554
 3619              	.LVL268:
 3620              	.L373:
 3621              	.LBE3363:
 3622              	.LBE3362:
 3623              	.LBE3358:
 3624              	.LBE3357:
 3625              	.LBE3356:
 3626              	.LBB3374:
 3627              	.LBB3375:
 3628              	.LBB3376:
 3629              	.LBB3377:
 3630              	.LBB3378:
 3631              	.LBB3379:
 3632              		.loc 2 288 0
 3633 1090 81210074 		lwz 9,116(1)
 3634              	.LBE3379:
 3635              	.LBE3378:
 3636              	.LBE3377:
 3637              		.loc 2 534 0
 3638 1094 3869FFF4 		addi 3,9,-12
 3639              	.LVL269:
 3640              	.LBB3380:
 3641              	.LBB3381:
 3642              		.loc 2 235 0
 3643 1098 7F83F800 		cmpw 7,3,31
 3644 109c 409E04A0 		bne- 7,.L555
 3645              	.LVL270:
 3646              	.L379:
 3647              	.LBE3381:
 3648              	.LBE3380:
 3649              	.LBE3376:
 3650              	.LBE3375:
 3651              	.LBE3374:
 3652              		.loc 1 238 0 discriminator 1
 3653 10a0 38610064 		addi 3,1,100
 3654 10a4 7FC4F378 		mr 4,30
 3655              	.LEHB59:
 3656 10a8 48000001 		bl _ZNSsC1ERKSs
 3657              	.LEHE59:
 3658 10ac 3C800000 		lis 4,.LC2@ha
 3659 10b0 38610060 		addi 3,1,96
 3660 10b4 3884000C 		la 4,.LC2@l(4)
 3661 10b8 38A10023 		addi 5,1,35
 3662              	.LEHB60:
 3663 10bc 48000001 		bl _ZNSsC1EPKcRKSaIcE
 3664              	.LEHE60:
 3665 10c0 3C800000 		lis 4,.LC3@ha
 3666 10c4 3861005C 		addi 3,1,92
 3667 10c8 38840014 		la 4,.LC3@l(4)
 3668 10cc 38A10022 		addi 5,1,34
 3669              	.LEHB61:
 3670 10d0 48000001 		bl _ZNSsC1EPKcRKSaIcE
 3671              	.LEHE61:
 3672              		.loc 1 238 0 is_stmt 0 discriminator 2
 3673 10d4 38610058 		addi 3,1,88
 3674 10d8 38810064 		addi 4,1,100
 3675 10dc 38A10060 		addi 5,1,96
 3676 10e0 38C1005C 		addi 6,1,92
 3677              	.LEHB62:
 3678 10e4 48000001 		bl _Z13StringReplaceSsSsSs
 3679              	.LEHE62:
 3680              		.loc 1 238 0 discriminator 3
 3681 10e8 7FC3F378 		mr 3,30
 3682 10ec 38810058 		addi 4,1,88
 3683              	.LEHB63:
 3684 10f0 48000001 		bl _ZNSs6assignERKSs
 3685              	.LEHE63:
 3686              	.LVL271:
 3687              	.LBB3392:
 3688              	.LBB3393:
 3689              	.LBB3394:
 3690              	.LBB3395:
 3691              	.LBB3396:
 3692              	.LBB3397:
 3693              		.loc 2 288 0 is_stmt 1
 3694 10f4 81210058 		lwz 9,88(1)
 3695              	.LBE3397:
 3696              	.LBE3396:
 3697              	.LBE3395:
 3698              		.loc 2 534 0
 3699 10f8 3869FFF4 		addi 3,9,-12
 3700              	.LVL272:
 3701              	.LBB3398:
 3702              	.LBB3399:
 3703              		.loc 2 235 0
 3704 10fc 7F83F800 		cmpw 7,3,31
 3705 1100 409E041C 		bne- 7,.L556
 3706              	.LVL273:
 3707              	.L385:
 3708              	.LBE3399:
 3709              	.LBE3398:
 3710              	.LBE3394:
 3711              	.LBE3393:
 3712              	.LBE3392:
 3713              	.LBB3410:
 3714              	.LBB3411:
 3715              	.LBB3412:
 3716              	.LBB3413:
 3717              	.LBB3414:
 3718              	.LBB3415:
 3719              		.loc 2 288 0
 3720 1104 8121005C 		lwz 9,92(1)
 3721              	.LBE3415:
 3722              	.LBE3414:
 3723              	.LBE3413:
 3724              		.loc 2 534 0
 3725 1108 3869FFF4 		addi 3,9,-12
 3726              	.LVL274:
 3727              	.LBB3416:
 3728              	.LBB3417:
 3729              		.loc 2 235 0
 3730 110c 7F83F800 		cmpw 7,3,31
 3731 1110 409E03EC 		bne- 7,.L557
 3732              	.LVL275:
 3733              	.L393:
 3734              	.LBE3417:
 3735              	.LBE3416:
 3736              	.LBE3412:
 3737              	.LBE3411:
 3738              	.LBE3410:
 3739              	.LBB3428:
 3740              	.LBB3429:
 3741              	.LBB3430:
 3742              	.LBB3431:
 3743              	.LBB3432:
 3744              	.LBB3433:
 3745              		.loc 2 288 0
 3746 1114 81210060 		lwz 9,96(1)
 3747              	.LBE3433:
 3748              	.LBE3432:
 3749              	.LBE3431:
 3750              		.loc 2 534 0
 3751 1118 3869FFF4 		addi 3,9,-12
 3752              	.LVL276:
 3753              	.LBB3434:
 3754              	.LBB3435:
 3755              		.loc 2 235 0
 3756 111c 7F83F800 		cmpw 7,3,31
 3757 1120 409E03BC 		bne- 7,.L558
 3758              	.LVL277:
 3759              	.L401:
 3760              	.LBE3435:
 3761              	.LBE3434:
 3762              	.LBE3430:
 3763              	.LBE3429:
 3764              	.LBE3428:
 3765              	.LBB3446:
 3766              	.LBB3447:
 3767              	.LBB3448:
 3768              	.LBB3449:
 3769              	.LBB3450:
 3770              	.LBB3451:
 3771              		.loc 2 288 0
 3772 1124 81210064 		lwz 9,100(1)
 3773              	.LBE3451:
 3774              	.LBE3450:
 3775              	.LBE3449:
 3776              		.loc 2 534 0
 3777 1128 3869FFF4 		addi 3,9,-12
 3778              	.LVL278:
 3779              	.LBB3452:
 3780              	.LBB3453:
 3781              		.loc 2 235 0
 3782 112c 7F83F800 		cmpw 7,3,31
 3783 1130 409E038C 		bne- 7,.L559
 3784              	.LVL279:
 3785              	.L407:
 3786              	.LBE3453:
 3787              	.LBE3452:
 3788              	.LBE3448:
 3789              	.LBE3447:
 3790              	.LBE3446:
 3791              		.loc 1 239 0 discriminator 1
 3792 1134 38610054 		addi 3,1,84
 3793 1138 7FC4F378 		mr 4,30
 3794              	.LEHB64:
 3795 113c 48000001 		bl _ZNSsC1ERKSs
 3796              	.LEHE64:
 3797 1140 3C800000 		lis 4,.LC4@ha
 3798 1144 38610050 		addi 3,1,80
 3799 1148 38840018 		la 4,.LC4@l(4)
 3800 114c 38A10021 		addi 5,1,33
 3801              	.LEHB65:
 3802 1150 48000001 		bl _ZNSsC1EPKcRKSaIcE
 3803              	.LEHE65:
 3804 1154 3C800000 		lis 4,.LC5@ha
 3805 1158 3861004C 		addi 3,1,76
 3806 115c 38840020 		la 4,.LC5@l(4)
 3807 1160 38A10020 		addi 5,1,32
 3808              	.LEHB66:
 3809 1164 48000001 		bl _ZNSsC1EPKcRKSaIcE
 3810              	.LEHE66:
 3811              		.loc 1 239 0 is_stmt 0 discriminator 2
 3812 1168 38610048 		addi 3,1,72
 3813 116c 38810054 		addi 4,1,84
 3814 1170 38A10050 		addi 5,1,80
 3815 1174 38C1004C 		addi 6,1,76
 3816              	.LEHB67:
 3817 1178 48000001 		bl _Z13StringReplaceSsSsSs
 3818              	.LEHE67:
 3819              		.loc 1 239 0 discriminator 3
 3820 117c 7FC3F378 		mr 3,30
 3821 1180 38810048 		addi 4,1,72
 3822              	.LEHB68:
 3823 1184 48000001 		bl _ZNSs6assignERKSs
 3824              	.LEHE68:
 3825              	.LVL280:
 3826              	.LBB3464:
 3827              	.LBB3465:
 3828              	.LBB3466:
 3829              	.LBB3467:
 3830              	.LBB3468:
 3831              	.LBB3469:
 3832              		.loc 2 288 0 is_stmt 1
 3833 1188 81210048 		lwz 9,72(1)
 3834              	.LBE3469:
 3835              	.LBE3468:
 3836              	.LBE3467:
 3837              		.loc 2 534 0
 3838 118c 3869FFF4 		addi 3,9,-12
 3839              	.LVL281:
 3840              	.LBB3470:
 3841              	.LBB3471:
 3842              		.loc 2 235 0
 3843 1190 7F83F800 		cmpw 7,3,31
 3844 1194 409E0308 		bne- 7,.L560
 3845              	.LVL282:
 3846              	.L413:
 3847              	.LBE3471:
 3848              	.LBE3470:
 3849              	.LBE3466:
 3850              	.LBE3465:
 3851              	.LBE3464:
 3852              	.LBB3482:
 3853              	.LBB3483:
 3854              	.LBB3484:
 3855              	.LBB3485:
 3856              	.LBB3486:
 3857              	.LBB3487:
 3858              		.loc 2 288 0
 3859 1198 8121004C 		lwz 9,76(1)
 3860              	.LBE3487:
 3861              	.LBE3486:
 3862              	.LBE3485:
 3863              		.loc 2 534 0
 3864 119c 3869FFF4 		addi 3,9,-12
 3865              	.LVL283:
 3866              	.LBB3488:
 3867              	.LBB3489:
 3868              		.loc 2 235 0
 3869 11a0 7F83F800 		cmpw 7,3,31
 3870 11a4 409E02D8 		bne- 7,.L561
 3871              	.LVL284:
 3872              	.L421:
 3873              	.LBE3489:
 3874              	.LBE3488:
 3875              	.LBE3484:
 3876              	.LBE3483:
 3877              	.LBE3482:
 3878              	.LBB3500:
 3879              	.LBB3501:
 3880              	.LBB3502:
 3881              	.LBB3503:
 3882              	.LBB3504:
 3883              	.LBB3505:
 3884              		.loc 2 288 0
 3885 11a8 81210050 		lwz 9,80(1)
 3886              	.LBE3505:
 3887              	.LBE3504:
 3888              	.LBE3503:
 3889              		.loc 2 534 0
 3890 11ac 3869FFF4 		addi 3,9,-12
 3891              	.LVL285:
 3892              	.LBB3506:
 3893              	.LBB3507:
 3894              		.loc 2 235 0
 3895 11b0 7F83F800 		cmpw 7,3,31
 3896 11b4 409E02A8 		bne- 7,.L562
 3897              	.LVL286:
 3898              	.L429:
 3899              	.LBE3507:
 3900              	.LBE3506:
 3901              	.LBE3502:
 3902              	.LBE3501:
 3903              	.LBE3500:
 3904              	.LBB3518:
 3905              	.LBB3519:
 3906              	.LBB3520:
 3907              	.LBB3521:
 3908              	.LBB3522:
 3909              	.LBB3523:
 3910              		.loc 2 288 0
 3911 11b8 81210054 		lwz 9,84(1)
 3912              	.LBE3523:
 3913              	.LBE3522:
 3914              	.LBE3521:
 3915              		.loc 2 534 0
 3916 11bc 3869FFF4 		addi 3,9,-12
 3917              	.LVL287:
 3918              	.LBB3524:
 3919              	.LBB3525:
 3920              		.loc 2 235 0
 3921 11c0 7F83F800 		cmpw 7,3,31
 3922 11c4 409E0278 		bne- 7,.L563
 3923              	.LVL288:
 3924              	.L435:
 3925              	.LBE3525:
 3926              	.LBE3524:
 3927              	.LBE3520:
 3928              	.LBE3519:
 3929              	.LBE3518:
 3930              		.loc 1 240 0 discriminator 1
 3931 11c8 38610044 		addi 3,1,68
 3932 11cc 7FC4F378 		mr 4,30
 3933              	.LEHB69:
 3934 11d0 48000001 		bl _ZNSsC1ERKSs
 3935              	.LEHE69:
 3936 11d4 3C800000 		lis 4,.LC6@ha
 3937 11d8 38610040 		addi 3,1,64
 3938 11dc 38840024 		la 4,.LC6@l(4)
 3939 11e0 38A1001F 		addi 5,1,31
 3940              	.LEHB70:
 3941 11e4 48000001 		bl _ZNSsC1EPKcRKSaIcE
 3942              	.LEHE70:
 3943 11e8 3C800000 		lis 4,.LC7@ha
 3944 11ec 3861003C 		addi 3,1,60
 3945 11f0 3884002C 		la 4,.LC7@l(4)
 3946 11f4 38A1001E 		addi 5,1,30
 3947              	.LEHB71:
 3948 11f8 48000001 		bl _ZNSsC1EPKcRKSaIcE
 3949              	.LEHE71:
 3950              		.loc 1 240 0 is_stmt 0 discriminator 2
 3951 11fc 38610038 		addi 3,1,56
 3952 1200 38810044 		addi 4,1,68
 3953 1204 38A10040 		addi 5,1,64
 3954 1208 38C1003C 		addi 6,1,60
 3955              	.LEHB72:
 3956 120c 48000001 		bl _Z13StringReplaceSsSsSs
 3957              	.LEHE72:
 3958              		.loc 1 240 0 discriminator 3
 3959 1210 7FC3F378 		mr 3,30
 3960 1214 38810038 		addi 4,1,56
 3961              	.LEHB73:
 3962 1218 48000001 		bl _ZNSs6assignERKSs
 3963              	.LEHE73:
 3964              	.LVL289:
 3965              	.LBB3536:
 3966              	.LBB3537:
 3967              	.LBB3538:
 3968              	.LBB3539:
 3969              	.LBB3540:
 3970              	.LBB3541:
 3971              		.loc 2 288 0 is_stmt 1
 3972 121c 81210038 		lwz 9,56(1)
 3973              	.LBE3541:
 3974              	.LBE3540:
 3975              	.LBE3539:
 3976              		.loc 2 534 0
 3977 1220 3869FFF4 		addi 3,9,-12
 3978              	.LVL290:
 3979              	.LBB3542:
 3980              	.LBB3543:
 3981              		.loc 2 235 0
 3982 1224 7F83F800 		cmpw 7,3,31
 3983 1228 409E01F4 		bne- 7,.L564
 3984              	.LVL291:
 3985              	.L441:
 3986              	.LBE3543:
 3987              	.LBE3542:
 3988              	.LBE3538:
 3989              	.LBE3537:
 3990              	.LBE3536:
 3991              	.LBB3554:
 3992              	.LBB3555:
 3993              	.LBB3556:
 3994              	.LBB3557:
 3995              	.LBB3558:
 3996              	.LBB3559:
 3997              		.loc 2 288 0
 3998 122c 8121003C 		lwz 9,60(1)
 3999              	.LBE3559:
 4000              	.LBE3558:
 4001              	.LBE3557:
 4002              		.loc 2 534 0
 4003 1230 3869FFF4 		addi 3,9,-12
 4004              	.LVL292:
 4005              	.LBB3560:
 4006              	.LBB3561:
 4007              		.loc 2 235 0
 4008 1234 7F83F800 		cmpw 7,3,31
 4009 1238 409E01C4 		bne- 7,.L565
 4010              	.LVL293:
 4011              	.L449:
 4012              	.LBE3561:
 4013              	.LBE3560:
 4014              	.LBE3556:
 4015              	.LBE3555:
 4016              	.LBE3554:
 4017              	.LBB3572:
 4018              	.LBB3573:
 4019              	.LBB3574:
 4020              	.LBB3575:
 4021              	.LBB3576:
 4022              	.LBB3577:
 4023              		.loc 2 288 0
 4024 123c 81210040 		lwz 9,64(1)
 4025              	.LBE3577:
 4026              	.LBE3576:
 4027              	.LBE3575:
 4028              		.loc 2 534 0
 4029 1240 3869FFF4 		addi 3,9,-12
 4030              	.LVL294:
 4031              	.LBB3578:
 4032              	.LBB3579:
 4033              		.loc 2 235 0
 4034 1244 7F83F800 		cmpw 7,3,31
 4035 1248 409E0194 		bne- 7,.L566
 4036              	.LVL295:
 4037              	.L457:
 4038              	.LBE3579:
 4039              	.LBE3578:
 4040              	.LBE3574:
 4041              	.LBE3573:
 4042              	.LBE3572:
 4043              	.LBB3590:
 4044              	.LBB3591:
 4045              	.LBB3592:
 4046              	.LBB3593:
 4047              	.LBB3594:
 4048              	.LBB3595:
 4049              		.loc 2 288 0
 4050 124c 81210044 		lwz 9,68(1)
 4051              	.LBE3595:
 4052              	.LBE3594:
 4053              	.LBE3593:
 4054              		.loc 2 534 0
 4055 1250 3869FFF4 		addi 3,9,-12
 4056              	.LVL296:
 4057              	.LBB3596:
 4058              	.LBB3597:
 4059              		.loc 2 235 0
 4060 1254 7F83F800 		cmpw 7,3,31
 4061 1258 409E0164 		bne- 7,.L567
 4062              	.LVL297:
 4063              	.L463:
 4064              	.LBE3597:
 4065              	.LBE3596:
 4066              	.LBE3592:
 4067              	.LBE3591:
 4068              	.LBE3590:
 4069              		.loc 1 241 0 discriminator 1
 4070 125c 38610034 		addi 3,1,52
 4071 1260 7FC4F378 		mr 4,30
 4072              	.LEHB74:
 4073 1264 48000001 		bl _ZNSsC1ERKSs
 4074              	.LEHE74:
 4075 1268 3C800000 		lis 4,.LC8@ha
 4076 126c 38610030 		addi 3,1,48
 4077 1270 38840030 		la 4,.LC8@l(4)
 4078 1274 38A1001D 		addi 5,1,29
 4079              	.LEHB75:
 4080 1278 48000001 		bl _ZNSsC1EPKcRKSaIcE
 4081              	.LEHE75:
 4082 127c 3C800000 		lis 4,.LC9@ha
 4083 1280 3861002C 		addi 3,1,44
 4084 1284 38840038 		la 4,.LC9@l(4)
 4085 1288 38A1001C 		addi 5,1,28
 4086              	.LEHB76:
 4087 128c 48000001 		bl _ZNSsC1EPKcRKSaIcE
 4088              	.LEHE76:
 4089              		.loc 1 241 0 is_stmt 0 discriminator 2
 4090 1290 38610028 		addi 3,1,40
 4091 1294 38810034 		addi 4,1,52
 4092 1298 38A10030 		addi 5,1,48
 4093 129c 38C1002C 		addi 6,1,44
 4094              	.LEHB77:
 4095 12a0 48000001 		bl _Z13StringReplaceSsSsSs
 4096              	.LEHE77:
 4097              		.loc 1 241 0 discriminator 3
 4098 12a4 7FC3F378 		mr 3,30
 4099 12a8 38810028 		addi 4,1,40
 4100              	.LEHB78:
 4101 12ac 48000001 		bl _ZNSs6assignERKSs
 4102              	.LEHE78:
 4103              	.LVL298:
 4104              	.LBB3608:
 4105              	.LBB3609:
 4106              	.LBB3610:
 4107              	.LBB3611:
 4108              	.LBB3612:
 4109              	.LBB3613:
 4110              		.loc 2 288 0 is_stmt 1
 4111 12b0 81210028 		lwz 9,40(1)
 4112              	.LBE3613:
 4113              	.LBE3612:
 4114              	.LBE3611:
 4115              		.loc 2 534 0
 4116 12b4 3869FFF4 		addi 3,9,-12
 4117              	.LVL299:
 4118              	.LBB3614:
 4119              	.LBB3615:
 4120              		.loc 2 235 0
 4121 12b8 7F83F800 		cmpw 7,3,31
 4122 12bc 409E00E0 		bne- 7,.L568
 4123              	.LVL300:
 4124              	.L469:
 4125              	.LBE3615:
 4126              	.LBE3614:
 4127              	.LBE3610:
 4128              	.LBE3609:
 4129              	.LBE3608:
 4130              	.LBB3626:
 4131              	.LBB3627:
 4132              	.LBB3628:
 4133              	.LBB3629:
 4134              	.LBB3630:
 4135              	.LBB3631:
 4136              		.loc 2 288 0
 4137 12c0 8121002C 		lwz 9,44(1)
 4138              	.LBE3631:
 4139              	.LBE3630:
 4140              	.LBE3629:
 4141              		.loc 2 534 0
 4142 12c4 3869FFF4 		addi 3,9,-12
 4143              	.LVL301:
 4144              	.LBB3632:
 4145              	.LBB3633:
 4146              		.loc 2 235 0
 4147 12c8 7F83F800 		cmpw 7,3,31
 4148 12cc 409E00B0 		bne- 7,.L569
 4149              	.LVL302:
 4150              	.L477:
 4151              	.LBE3633:
 4152              	.LBE3632:
 4153              	.LBE3628:
 4154              	.LBE3627:
 4155              	.LBE3626:
 4156              	.LBB3644:
 4157              	.LBB3645:
 4158              	.LBB3646:
 4159              	.LBB3647:
 4160              	.LBB3648:
 4161              	.LBB3649:
 4162              		.loc 2 288 0
 4163 12d0 81210030 		lwz 9,48(1)
 4164              	.LBE3649:
 4165              	.LBE3648:
 4166              	.LBE3647:
 4167              		.loc 2 534 0
 4168 12d4 3869FFF4 		addi 3,9,-12
 4169              	.LVL303:
 4170              	.LBB3650:
 4171              	.LBB3651:
 4172              		.loc 2 235 0
 4173 12d8 7F83F800 		cmpw 7,3,31
 4174 12dc 409E0080 		bne- 7,.L570
 4175              	.LVL304:
 4176              	.L485:
 4177              	.LBE3651:
 4178              	.LBE3650:
 4179              	.LBE3646:
 4180              	.LBE3645:
 4181              	.LBE3644:
 4182              	.LBB3662:
 4183              	.LBB3663:
 4184              	.LBB3664:
 4185              	.LBB3665:
 4186              	.LBB3666:
 4187              	.LBB3667:
 4188              		.loc 2 288 0
 4189 12e0 81210034 		lwz 9,52(1)
 4190              	.LBE3667:
 4191              	.LBE3666:
 4192              	.LBE3665:
 4193              		.loc 2 534 0
 4194 12e4 3869FFF4 		addi 3,9,-12
 4195              	.LVL305:
 4196              	.LBB3668:
 4197              	.LBB3669:
 4198              		.loc 2 235 0
 4199 12e8 7F83F800 		cmpw 7,3,31
 4200 12ec 409E0050 		bne- 7,.L571
 4201              	.LVL306:
 4202              	.L491:
 4203              	.LBE3669:
 4204              	.LBE3668:
 4205              	.LBE3664:
 4206              	.LBE3663:
 4207              	.LBE3662:
 4208              		.loc 1 243 0 discriminator 1
 4209 12f0 7FA3EB78 		mr 3,29
 4210 12f4 7FC4F378 		mr 4,30
 4211              	.LEHB79:
 4212 12f8 48000001 		bl _ZNSsC1ERKSs
 4213              		.loc 1 244 0 discriminator 1
 4214 12fc 8001008C 		lwz 0,140(1)
 4215 1300 7FA3EB78 		mr 3,29
 4216 1304 83C10080 		lwz 30,128(1)
 4217              	.LVL307:
 4218 1308 7C0803A6 		mtlr 0
 4219 130c 83A1007C 		lwz 29,124(1)
 4220              	.LVL308:
 4221 1310 83E10084 		lwz 31,132(1)
 4222 1314 38210088 		addi 1,1,136
 4223              		.cfi_remember_state
 4224              	.LCFI27:
 4225              		.cfi_def_cfa_offset 0
 4226              		.cfi_restore 31
 4227              		.cfi_restore 30
 4228              		.cfi_restore 29
 4229 1318 4E800020 		blr
 4230              	.LVL309:
 4231              	.L552:
 4232              	.LCFI28:
 4233              		.cfi_restore_state
 4234              	.LBB3680:
 4235              	.LBB3337:
 4236              	.LBB3336:
 4237              	.LBB3335:
 4238              	.LBB3333:
 4239              	.LBB3326:
 4240              	.LBB3327:
 4241              	.LBB3328:
 4242              		.loc 3 66 0
 4243 131c 8169FFFC 		lwz 11,-4(9)
 4244              	.LVL310:
 4245              	.LBE3328:
 4246              	.LBE3327:
 4247              	.LBE3326:
 4248              		.loc 2 240 0
 4249 1320 2F8B0000 		cmpwi 7,11,0
 4250              	.LBB3331:
 4251              	.LBB3330:
 4252              	.LBB3329:
 4253              		.loc 3 67 0
 4254 1324 396BFFFF 		addi 11,11,-1
 4255 1328 9169FFFC 		stw 11,-4(9)
 4256              	.LBE3329:
 4257              	.LBE3330:
 4258              	.LBE3331:
 4259              		.loc 2 240 0
 4260 132c 419DFD44 		bgt+ 7,.L357
 4261              		.loc 2 244 0
 4262 1330 3881001B 		addi 4,1,27
 4263 1334 48000001 		bl _ZNSs4_Rep10_M_destroyERKSaIcE
 4264              	.LVL311:
 4265 1338 4BFFFD38 		b .L357
 4266              	.LVL312:
 4267              	.L571:
 4268              	.LBE3333:
 4269              	.LBE3335:
 4270              	.LBE3336:
 4271              	.LBE3337:
 4272              	.LBE3680:
 4273              	.LBB3681:
 4274              	.LBB3679:
 4275              	.LBB3678:
 4276              	.LBB3677:
 4277              	.LBB3676:
 4278              	.LBB3670:
 4279              	.LBB3671:
 4280              	.LBB3672:
 4281              		.loc 3 66 0
 4282 133c 8169FFFC 		lwz 11,-4(9)
 4283              	.LVL313:
 4284              	.LBE3672:
 4285              	.LBE3671:
 4286              	.LBE3670:
 4287              		.loc 2 240 0
 4288 1340 2F8B0000 		cmpwi 7,11,0
 4289              	.LBB3675:
 4290              	.LBB3674:
 4291              	.LBB3673:
 4292              		.loc 3 67 0
 4293 1344 396BFFFF 		addi 11,11,-1
 4294 1348 9169FFFC 		stw 11,-4(9)
 4295              	.LBE3673:
 4296              	.LBE3674:
 4297              	.LBE3675:
 4298              		.loc 2 240 0
 4299 134c 419DFFA4 		bgt+ 7,.L491
 4300              		.loc 2 244 0
 4301 1350 38810008 		addi 4,1,8
 4302 1354 48000001 		bl _ZNSs4_Rep10_M_destroyERKSaIcE
 4303              	.LVL314:
 4304 1358 4BFFFF98 		b .L491
 4305              	.LVL315:
 4306              	.L570:
 4307              	.LBE3676:
 4308              	.LBE3677:
 4309              	.LBE3678:
 4310              	.LBE3679:
 4311              	.LBE3681:
 4312              	.LBB3682:
 4313              	.LBB3661:
 4314              	.LBB3660:
 4315              	.LBB3659:
 4316              	.LBB3658:
 4317              	.LBB3652:
 4318              	.LBB3653:
 4319              	.LBB3654:
 4320              		.loc 3 66 0
 4321 135c 8169FFFC 		lwz 11,-4(9)
 4322              	.LVL316:
 4323              	.LBE3654:
 4324              	.LBE3653:
 4325              	.LBE3652:
 4326              		.loc 2 240 0
 4327 1360 2F8B0000 		cmpwi 7,11,0
 4328              	.LBB3657:
 4329              	.LBB3656:
 4330              	.LBB3655:
 4331              		.loc 3 67 0
 4332 1364 396BFFFF 		addi 11,11,-1
 4333 1368 9169FFFC 		stw 11,-4(9)
 4334              	.LBE3655:
 4335              	.LBE3656:
 4336              	.LBE3657:
 4337              		.loc 2 240 0
 4338 136c 419DFF74 		bgt+ 7,.L485
 4339              		.loc 2 244 0
 4340 1370 38810009 		addi 4,1,9
 4341 1374 48000001 		bl _ZNSs4_Rep10_M_destroyERKSaIcE
 4342              	.LVL317:
 4343 1378 4BFFFF68 		b .L485
 4344              	.LVL318:
 4345              	.L569:
 4346              	.LBE3658:
 4347              	.LBE3659:
 4348              	.LBE3660:
 4349              	.LBE3661:
 4350              	.LBE3682:
 4351              	.LBB3683:
 4352              	.LBB3643:
 4353              	.LBB3642:
 4354              	.LBB3641:
 4355              	.LBB3640:
 4356              	.LBB3634:
 4357              	.LBB3635:
 4358              	.LBB3636:
 4359              		.loc 3 66 0
 4360 137c 8169FFFC 		lwz 11,-4(9)
 4361              	.LVL319:
 4362              	.LBE3636:
 4363              	.LBE3635:
 4364              	.LBE3634:
 4365              		.loc 2 240 0
 4366 1380 2F8B0000 		cmpwi 7,11,0
 4367              	.LBB3639:
 4368              	.LBB3638:
 4369              	.LBB3637:
 4370              		.loc 3 67 0
 4371 1384 396BFFFF 		addi 11,11,-1
 4372 1388 9169FFFC 		stw 11,-4(9)
 4373              	.LBE3637:
 4374              	.LBE3638:
 4375              	.LBE3639:
 4376              		.loc 2 240 0
 4377 138c 419DFF44 		bgt+ 7,.L477
 4378              		.loc 2 244 0
 4379 1390 3881000A 		addi 4,1,10
 4380 1394 48000001 		bl _ZNSs4_Rep10_M_destroyERKSaIcE
 4381              	.LVL320:
 4382 1398 4BFFFF38 		b .L477
 4383              	.LVL321:
 4384              	.L568:
 4385              	.LBE3640:
 4386              	.LBE3641:
 4387              	.LBE3642:
 4388              	.LBE3643:
 4389              	.LBE3683:
 4390              	.LBB3684:
 4391              	.LBB3625:
 4392              	.LBB3624:
 4393              	.LBB3623:
 4394              	.LBB3622:
 4395              	.LBB3616:
 4396              	.LBB3617:
 4397              	.LBB3618:
 4398              		.loc 3 66 0
 4399 139c 8169FFFC 		lwz 11,-4(9)
 4400              	.LVL322:
 4401              	.LBE3618:
 4402              	.LBE3617:
 4403              	.LBE3616:
 4404              		.loc 2 240 0
 4405 13a0 2F8B0000 		cmpwi 7,11,0
 4406              	.LBB3621:
 4407              	.LBB3620:
 4408              	.LBB3619:
 4409              		.loc 3 67 0
 4410 13a4 396BFFFF 		addi 11,11,-1
 4411 13a8 9169FFFC 		stw 11,-4(9)
 4412              	.LBE3619:
 4413              	.LBE3620:
 4414              	.LBE3621:
 4415              		.loc 2 240 0
 4416 13ac 419DFF14 		bgt+ 7,.L469
 4417              		.loc 2 244 0
 4418 13b0 3881000B 		addi 4,1,11
 4419 13b4 48000001 		bl _ZNSs4_Rep10_M_destroyERKSaIcE
 4420              	.LVL323:
 4421 13b8 4BFFFF08 		b .L469
 4422              	.LVL324:
 4423              	.L567:
 4424              	.LBE3622:
 4425              	.LBE3623:
 4426              	.LBE3624:
 4427              	.LBE3625:
 4428              	.LBE3684:
 4429              	.LBB3685:
 4430              	.LBB3607:
 4431              	.LBB3606:
 4432              	.LBB3605:
 4433              	.LBB3604:
 4434              	.LBB3598:
 4435              	.LBB3599:
 4436              	.LBB3600:
 4437              		.loc 3 66 0
 4438 13bc 8169FFFC 		lwz 11,-4(9)
 4439              	.LVL325:
 4440              	.LBE3600:
 4441              	.LBE3599:
 4442              	.LBE3598:
 4443              		.loc 2 240 0
 4444 13c0 2F8B0000 		cmpwi 7,11,0
 4445              	.LBB3603:
 4446              	.LBB3602:
 4447              	.LBB3601:
 4448              		.loc 3 67 0
 4449 13c4 396BFFFF 		addi 11,11,-1
 4450 13c8 9169FFFC 		stw 11,-4(9)
 4451              	.LBE3601:
 4452              	.LBE3602:
 4453              	.LBE3603:
 4454              		.loc 2 240 0
 4455 13cc 419DFE90 		bgt+ 7,.L463
 4456              		.loc 2 244 0
 4457 13d0 3881000C 		addi 4,1,12
 4458 13d4 48000001 		bl _ZNSs4_Rep10_M_destroyERKSaIcE
 4459              	.LVL326:
 4460 13d8 4BFFFE84 		b .L463
 4461              	.LVL327:
 4462              	.L566:
 4463              	.LBE3604:
 4464              	.LBE3605:
 4465              	.LBE3606:
 4466              	.LBE3607:
 4467              	.LBE3685:
 4468              	.LBB3686:
 4469              	.LBB3589:
 4470              	.LBB3588:
 4471              	.LBB3587:
 4472              	.LBB3586:
 4473              	.LBB3580:
 4474              	.LBB3581:
 4475              	.LBB3582:
 4476              		.loc 3 66 0
 4477 13dc 8169FFFC 		lwz 11,-4(9)
 4478              	.LVL328:
 4479              	.LBE3582:
 4480              	.LBE3581:
 4481              	.LBE3580:
 4482              		.loc 2 240 0
 4483 13e0 2F8B0000 		cmpwi 7,11,0
 4484              	.LBB3585:
 4485              	.LBB3584:
 4486              	.LBB3583:
 4487              		.loc 3 67 0
 4488 13e4 396BFFFF 		addi 11,11,-1
 4489 13e8 9169FFFC 		stw 11,-4(9)
 4490              	.LBE3583:
 4491              	.LBE3584:
 4492              	.LBE3585:
 4493              		.loc 2 240 0
 4494 13ec 419DFE60 		bgt+ 7,.L457
 4495              		.loc 2 244 0
 4496 13f0 3881000D 		addi 4,1,13
 4497 13f4 48000001 		bl _ZNSs4_Rep10_M_destroyERKSaIcE
 4498              	.LVL329:
 4499 13f8 4BFFFE54 		b .L457
 4500              	.LVL330:
 4501              	.L565:
 4502              	.LBE3586:
 4503              	.LBE3587:
 4504              	.LBE3588:
 4505              	.LBE3589:
 4506              	.LBE3686:
 4507              	.LBB3687:
 4508              	.LBB3571:
 4509              	.LBB3570:
 4510              	.LBB3569:
 4511              	.LBB3568:
 4512              	.LBB3562:
 4513              	.LBB3563:
 4514              	.LBB3564:
 4515              		.loc 3 66 0
 4516 13fc 8169FFFC 		lwz 11,-4(9)
 4517              	.LVL331:
 4518              	.LBE3564:
 4519              	.LBE3563:
 4520              	.LBE3562:
 4521              		.loc 2 240 0
 4522 1400 2F8B0000 		cmpwi 7,11,0
 4523              	.LBB3567:
 4524              	.LBB3566:
 4525              	.LBB3565:
 4526              		.loc 3 67 0
 4527 1404 396BFFFF 		addi 11,11,-1
 4528 1408 9169FFFC 		stw 11,-4(9)
 4529              	.LBE3565:
 4530              	.LBE3566:
 4531              	.LBE3567:
 4532              		.loc 2 240 0
 4533 140c 419DFE30 		bgt+ 7,.L449
 4534              		.loc 2 244 0
 4535 1410 3881000E 		addi 4,1,14
 4536 1414 48000001 		bl _ZNSs4_Rep10_M_destroyERKSaIcE
 4537              	.LVL332:
 4538 1418 4BFFFE24 		b .L449
 4539              	.LVL333:
 4540              	.L564:
 4541              	.LBE3568:
 4542              	.LBE3569:
 4543              	.LBE3570:
 4544              	.LBE3571:
 4545              	.LBE3687:
 4546              	.LBB3688:
 4547              	.LBB3553:
 4548              	.LBB3552:
 4549              	.LBB3551:
 4550              	.LBB3550:
 4551              	.LBB3544:
 4552              	.LBB3545:
 4553              	.LBB3546:
 4554              		.loc 3 66 0
 4555 141c 8169FFFC 		lwz 11,-4(9)
 4556              	.LVL334:
 4557              	.LBE3546:
 4558              	.LBE3545:
 4559              	.LBE3544:
 4560              		.loc 2 240 0
 4561 1420 2F8B0000 		cmpwi 7,11,0
 4562              	.LBB3549:
 4563              	.LBB3548:
 4564              	.LBB3547:
 4565              		.loc 3 67 0
 4566 1424 396BFFFF 		addi 11,11,-1
 4567 1428 9169FFFC 		stw 11,-4(9)
 4568              	.LBE3547:
 4569              	.LBE3548:
 4570              	.LBE3549:
 4571              		.loc 2 240 0
 4572 142c 419DFE00 		bgt+ 7,.L441
 4573              		.loc 2 244 0
 4574 1430 3881000F 		addi 4,1,15
 4575 1434 48000001 		bl _ZNSs4_Rep10_M_destroyERKSaIcE
 4576              	.LVL335:
 4577 1438 4BFFFDF4 		b .L441
 4578              	.LVL336:
 4579              	.L563:
 4580              	.LBE3550:
 4581              	.LBE3551:
 4582              	.LBE3552:
 4583              	.LBE3553:
 4584              	.LBE3688:
 4585              	.LBB3689:
 4586              	.LBB3535:
 4587              	.LBB3534:
 4588              	.LBB3533:
 4589              	.LBB3532:
 4590              	.LBB3526:
 4591              	.LBB3527:
 4592              	.LBB3528:
 4593              		.loc 3 66 0
 4594 143c 8169FFFC 		lwz 11,-4(9)
 4595              	.LVL337:
 4596              	.LBE3528:
 4597              	.LBE3527:
 4598              	.LBE3526:
 4599              		.loc 2 240 0
 4600 1440 2F8B0000 		cmpwi 7,11,0
 4601              	.LBB3531:
 4602              	.LBB3530:
 4603              	.LBB3529:
 4604              		.loc 3 67 0
 4605 1444 396BFFFF 		addi 11,11,-1
 4606 1448 9169FFFC 		stw 11,-4(9)
 4607              	.LBE3529:
 4608              	.LBE3530:
 4609              	.LBE3531:
 4610              		.loc 2 240 0
 4611 144c 419DFD7C 		bgt+ 7,.L435
 4612              		.loc 2 244 0
 4613 1450 38810010 		addi 4,1,16
 4614 1454 48000001 		bl _ZNSs4_Rep10_M_destroyERKSaIcE
 4615              	.LVL338:
 4616 1458 4BFFFD70 		b .L435
 4617              	.LVL339:
 4618              	.L562:
 4619              	.LBE3532:
 4620              	.LBE3533:
 4621              	.LBE3534:
 4622              	.LBE3535:
 4623              	.LBE3689:
 4624              	.LBB3690:
 4625              	.LBB3517:
 4626              	.LBB3516:
 4627              	.LBB3515:
 4628              	.LBB3514:
 4629              	.LBB3508:
 4630              	.LBB3509:
 4631              	.LBB3510:
 4632              		.loc 3 66 0
 4633 145c 8169FFFC 		lwz 11,-4(9)
 4634              	.LVL340:
 4635              	.LBE3510:
 4636              	.LBE3509:
 4637              	.LBE3508:
 4638              		.loc 2 240 0
 4639 1460 2F8B0000 		cmpwi 7,11,0
 4640              	.LBB3513:
 4641              	.LBB3512:
 4642              	.LBB3511:
 4643              		.loc 3 67 0
 4644 1464 396BFFFF 		addi 11,11,-1
 4645 1468 9169FFFC 		stw 11,-4(9)
 4646              	.LBE3511:
 4647              	.LBE3512:
 4648              	.LBE3513:
 4649              		.loc 2 240 0
 4650 146c 419DFD4C 		bgt+ 7,.L429
 4651              		.loc 2 244 0
 4652 1470 38810011 		addi 4,1,17
 4653 1474 48000001 		bl _ZNSs4_Rep10_M_destroyERKSaIcE
 4654              	.LVL341:
 4655 1478 4BFFFD40 		b .L429
 4656              	.LVL342:
 4657              	.L561:
 4658              	.LBE3514:
 4659              	.LBE3515:
 4660              	.LBE3516:
 4661              	.LBE3517:
 4662              	.LBE3690:
 4663              	.LBB3691:
 4664              	.LBB3499:
 4665              	.LBB3498:
 4666              	.LBB3497:
 4667              	.LBB3496:
 4668              	.LBB3490:
 4669              	.LBB3491:
 4670              	.LBB3492:
 4671              		.loc 3 66 0
 4672 147c 8169FFFC 		lwz 11,-4(9)
 4673              	.LVL343:
 4674              	.LBE3492:
 4675              	.LBE3491:
 4676              	.LBE3490:
 4677              		.loc 2 240 0
 4678 1480 2F8B0000 		cmpwi 7,11,0
 4679              	.LBB3495:
 4680              	.LBB3494:
 4681              	.LBB3493:
 4682              		.loc 3 67 0
 4683 1484 396BFFFF 		addi 11,11,-1
 4684 1488 9169FFFC 		stw 11,-4(9)
 4685              	.LBE3493:
 4686              	.LBE3494:
 4687              	.LBE3495:
 4688              		.loc 2 240 0
 4689 148c 419DFD1C 		bgt+ 7,.L421
 4690              		.loc 2 244 0
 4691 1490 38810012 		addi 4,1,18
 4692 1494 48000001 		bl _ZNSs4_Rep10_M_destroyERKSaIcE
 4693              	.LVL344:
 4694 1498 4BFFFD10 		b .L421
 4695              	.LVL345:
 4696              	.L560:
 4697              	.LBE3496:
 4698              	.LBE3497:
 4699              	.LBE3498:
 4700              	.LBE3499:
 4701              	.LBE3691:
 4702              	.LBB3692:
 4703              	.LBB3481:
 4704              	.LBB3480:
 4705              	.LBB3479:
 4706              	.LBB3478:
 4707              	.LBB3472:
 4708              	.LBB3473:
 4709              	.LBB3474:
 4710              		.loc 3 66 0
 4711 149c 8169FFFC 		lwz 11,-4(9)
 4712              	.LVL346:
 4713              	.LBE3474:
 4714              	.LBE3473:
 4715              	.LBE3472:
 4716              		.loc 2 240 0
 4717 14a0 2F8B0000 		cmpwi 7,11,0
 4718              	.LBB3477:
 4719              	.LBB3476:
 4720              	.LBB3475:
 4721              		.loc 3 67 0
 4722 14a4 396BFFFF 		addi 11,11,-1
 4723 14a8 9169FFFC 		stw 11,-4(9)
 4724              	.LBE3475:
 4725              	.LBE3476:
 4726              	.LBE3477:
 4727              		.loc 2 240 0
 4728 14ac 419DFCEC 		bgt+ 7,.L413
 4729              		.loc 2 244 0
 4730 14b0 38810013 		addi 4,1,19
 4731 14b4 48000001 		bl _ZNSs4_Rep10_M_destroyERKSaIcE
 4732              	.LVL347:
 4733 14b8 4BFFFCE0 		b .L413
 4734              	.LVL348:
 4735              	.L559:
 4736              	.LBE3478:
 4737              	.LBE3479:
 4738              	.LBE3480:
 4739              	.LBE3481:
 4740              	.LBE3692:
 4741              	.LBB3693:
 4742              	.LBB3463:
 4743              	.LBB3462:
 4744              	.LBB3461:
 4745              	.LBB3460:
 4746              	.LBB3454:
 4747              	.LBB3455:
 4748              	.LBB3456:
 4749              		.loc 3 66 0
 4750 14bc 8169FFFC 		lwz 11,-4(9)
 4751              	.LVL349:
 4752              	.LBE3456:
 4753              	.LBE3455:
 4754              	.LBE3454:
 4755              		.loc 2 240 0
 4756 14c0 2F8B0000 		cmpwi 7,11,0
 4757              	.LBB3459:
 4758              	.LBB3458:
 4759              	.LBB3457:
 4760              		.loc 3 67 0
 4761 14c4 396BFFFF 		addi 11,11,-1
 4762 14c8 9169FFFC 		stw 11,-4(9)
 4763              	.LBE3457:
 4764              	.LBE3458:
 4765              	.LBE3459:
 4766              		.loc 2 240 0
 4767 14cc 419DFC68 		bgt+ 7,.L407
 4768              		.loc 2 244 0
 4769 14d0 38810014 		addi 4,1,20
 4770 14d4 48000001 		bl _ZNSs4_Rep10_M_destroyERKSaIcE
 4771              	.LVL350:
 4772 14d8 4BFFFC5C 		b .L407
 4773              	.LVL351:
 4774              	.L558:
 4775              	.LBE3460:
 4776              	.LBE3461:
 4777              	.LBE3462:
 4778              	.LBE3463:
 4779              	.LBE3693:
 4780              	.LBB3694:
 4781              	.LBB3445:
 4782              	.LBB3444:
 4783              	.LBB3443:
 4784              	.LBB3442:
 4785              	.LBB3436:
 4786              	.LBB3437:
 4787              	.LBB3438:
 4788              		.loc 3 66 0
 4789 14dc 8169FFFC 		lwz 11,-4(9)
 4790              	.LVL352:
 4791              	.LBE3438:
 4792              	.LBE3437:
 4793              	.LBE3436:
 4794              		.loc 2 240 0
 4795 14e0 2F8B0000 		cmpwi 7,11,0
 4796              	.LBB3441:
 4797              	.LBB3440:
 4798              	.LBB3439:
 4799              		.loc 3 67 0
 4800 14e4 396BFFFF 		addi 11,11,-1
 4801 14e8 9169FFFC 		stw 11,-4(9)
 4802              	.LBE3439:
 4803              	.LBE3440:
 4804              	.LBE3441:
 4805              		.loc 2 240 0
 4806 14ec 419DFC38 		bgt+ 7,.L401
 4807              		.loc 2 244 0
 4808 14f0 38810015 		addi 4,1,21
 4809 14f4 48000001 		bl _ZNSs4_Rep10_M_destroyERKSaIcE
 4810              	.LVL353:
 4811 14f8 4BFFFC2C 		b .L401
 4812              	.LVL354:
 4813              	.L557:
 4814              	.LBE3442:
 4815              	.LBE3443:
 4816              	.LBE3444:
 4817              	.LBE3445:
 4818              	.LBE3694:
 4819              	.LBB3695:
 4820              	.LBB3427:
 4821              	.LBB3426:
 4822              	.LBB3425:
 4823              	.LBB3424:
 4824              	.LBB3418:
 4825              	.LBB3419:
 4826              	.LBB3420:
 4827              		.loc 3 66 0
 4828 14fc 8169FFFC 		lwz 11,-4(9)
 4829              	.LVL355:
 4830              	.LBE3420:
 4831              	.LBE3419:
 4832              	.LBE3418:
 4833              		.loc 2 240 0
 4834 1500 2F8B0000 		cmpwi 7,11,0
 4835              	.LBB3423:
 4836              	.LBB3422:
 4837              	.LBB3421:
 4838              		.loc 3 67 0
 4839 1504 396BFFFF 		addi 11,11,-1
 4840 1508 9169FFFC 		stw 11,-4(9)
 4841              	.LBE3421:
 4842              	.LBE3422:
 4843              	.LBE3423:
 4844              		.loc 2 240 0
 4845 150c 419DFC08 		bgt+ 7,.L393
 4846              		.loc 2 244 0
 4847 1510 38810016 		addi 4,1,22
 4848 1514 48000001 		bl _ZNSs4_Rep10_M_destroyERKSaIcE
 4849              	.LVL356:
 4850 1518 4BFFFBFC 		b .L393
 4851              	.LVL357:
 4852              	.L556:
 4853              	.LBE3424:
 4854              	.LBE3425:
 4855              	.LBE3426:
 4856              	.LBE3427:
 4857              	.LBE3695:
 4858              	.LBB3696:
 4859              	.LBB3409:
 4860              	.LBB3408:
 4861              	.LBB3407:
 4862              	.LBB3406:
 4863              	.LBB3400:
 4864              	.LBB3401:
 4865              	.LBB3402:
 4866              		.loc 3 66 0
 4867 151c 8169FFFC 		lwz 11,-4(9)
 4868              	.LVL358:
 4869              	.LBE3402:
 4870              	.LBE3401:
 4871              	.LBE3400:
 4872              		.loc 2 240 0
 4873 1520 2F8B0000 		cmpwi 7,11,0
 4874              	.LBB3405:
 4875              	.LBB3404:
 4876              	.LBB3403:
 4877              		.loc 3 67 0
 4878 1524 396BFFFF 		addi 11,11,-1
 4879 1528 9169FFFC 		stw 11,-4(9)
 4880              	.LBE3403:
 4881              	.LBE3404:
 4882              	.LBE3405:
 4883              		.loc 2 240 0
 4884 152c 419DFBD8 		bgt+ 7,.L385
 4885              		.loc 2 244 0
 4886 1530 38810017 		addi 4,1,23
 4887 1534 48000001 		bl _ZNSs4_Rep10_M_destroyERKSaIcE
 4888              	.LVL359:
 4889 1538 4BFFFBCC 		b .L385
 4890              	.LVL360:
 4891              	.L555:
 4892              	.LBE3406:
 4893              	.LBE3407:
 4894              	.LBE3408:
 4895              	.LBE3409:
 4896              	.LBE3696:
 4897              	.LBB3697:
 4898              	.LBB3391:
 4899              	.LBB3390:
 4900              	.LBB3389:
 4901              	.LBB3388:
 4902              	.LBB3382:
 4903              	.LBB3383:
 4904              	.LBB3384:
 4905              		.loc 3 66 0
 4906 153c 8169FFFC 		lwz 11,-4(9)
 4907              	.LVL361:
 4908              	.LBE3384:
 4909              	.LBE3383:
 4910              	.LBE3382:
 4911              		.loc 2 240 0
 4912 1540 2F8B0000 		cmpwi 7,11,0
 4913              	.LBB3387:
 4914              	.LBB3386:
 4915              	.LBB3385:
 4916              		.loc 3 67 0
 4917 1544 396BFFFF 		addi 11,11,-1
 4918 1548 9169FFFC 		stw 11,-4(9)
 4919              	.LBE3385:
 4920              	.LBE3386:
 4921              	.LBE3387:
 4922              		.loc 2 240 0
 4923 154c 419DFB54 		bgt+ 7,.L379
 4924              		.loc 2 244 0
 4925 1550 38810018 		addi 4,1,24
 4926 1554 48000001 		bl _ZNSs4_Rep10_M_destroyERKSaIcE
 4927              	.LVL362:
 4928 1558 4BFFFB48 		b .L379
 4929              	.LVL363:
 4930              	.L554:
 4931              	.LBE3388:
 4932              	.LBE3389:
 4933              	.LBE3390:
 4934              	.LBE3391:
 4935              	.LBE3697:
 4936              	.LBB3698:
 4937              	.LBB3373:
 4938              	.LBB3372:
 4939              	.LBB3371:
 4940              	.LBB3370:
 4941              	.LBB3364:
 4942              	.LBB3365:
 4943              	.LBB3366:
 4944              		.loc 3 66 0
 4945 155c 8169FFFC 		lwz 11,-4(9)
 4946              	.LVL364:
 4947              	.LBE3366:
 4948              	.LBE3365:
 4949              	.LBE3364:
 4950              		.loc 2 240 0
 4951 1560 2F8B0000 		cmpwi 7,11,0
 4952              	.LBB3369:
 4953              	.LBB3368:
 4954              	.LBB3367:
 4955              		.loc 3 67 0
 4956 1564 396BFFFF 		addi 11,11,-1
 4957 1568 9169FFFC 		stw 11,-4(9)
 4958              	.LBE3367:
 4959              	.LBE3368:
 4960              	.LBE3369:
 4961              		.loc 2 240 0
 4962 156c 419DFB24 		bgt+ 7,.L373
 4963              		.loc 2 244 0
 4964 1570 38810019 		addi 4,1,25
 4965 1574 48000001 		bl _ZNSs4_Rep10_M_destroyERKSaIcE
 4966              	.LVL365:
 4967 1578 4BFFFB18 		b .L373
 4968              	.LVL366:
 4969              	.L553:
 4970              	.LBE3370:
 4971              	.LBE3371:
 4972              	.LBE3372:
 4973              	.LBE3373:
 4974              	.LBE3698:
 4975              	.LBB3699:
 4976              	.LBB3355:
 4977              	.LBB3354:
 4978              	.LBB3353:
 4979              	.LBB3352:
 4980              	.LBB3346:
 4981              	.LBB3347:
 4982              	.LBB3348:
 4983              		.loc 3 66 0
 4984 157c 8169FFFC 		lwz 11,-4(9)
 4985              	.LVL367:
 4986              	.LBE3348:
 4987              	.LBE3347:
 4988              	.LBE3346:
 4989              		.loc 2 240 0
 4990 1580 2F8B0000 		cmpwi 7,11,0
 4991              	.LBB3351:
 4992              	.LBB3350:
 4993              	.LBB3349:
 4994              		.loc 3 67 0
 4995 1584 396BFFFF 		addi 11,11,-1
 4996 1588 9169FFFC 		stw 11,-4(9)
 4997              	.LBE3349:
 4998              	.LBE3350:
 4999              	.LBE3351:
 5000              		.loc 2 240 0
 5001 158c 419DFAF4 		bgt+ 7,.L365
 5002              		.loc 2 244 0
 5003 1590 3881001A 		addi 4,1,26
 5004 1594 48000001 		bl _ZNSs4_Rep10_M_destroyERKSaIcE
 5005              	.LVL368:
 5006 1598 4BFFFAE8 		b .L365
 5007              	.LVL369:
 5008              	.L534:
 5009 159c 7C7F1B78 		mr 31,3
 5010              	.L493:
 5011              	.LBE3352:
 5012              	.LBE3353:
 5013              	.LBE3354:
 5014              	.LBE3355:
 5015              	.LBE3699:
 5016              		.loc 1 237 0
 5017 15a0 3861006C 		addi 3,1,108
 5018 15a4 48000001 		bl _ZNSsD1Ev
 5019              	.L496:
 5020 15a8 38610070 		addi 3,1,112
 5021 15ac 48000001 		bl _ZNSsD1Ev
 5022              	.L499:
 5023 15b0 38610074 		addi 3,1,116
 5024 15b4 48000001 		bl _ZNSsD1Ev
 5025 15b8 7FE3FB78 		mr 3,31
 5026 15bc 48000001 		bl _Unwind_Resume
 5027              	.L533:
 5028 15c0 7C7F1B78 		mr 31,3
 5029 15c4 4BFFFFE4 		b .L496
 5030              	.L535:
 5031 15c8 7C7F1B78 		mr 31,3
 5032 15cc 38610068 		addi 3,1,104
 5033 15d0 48000001 		bl _ZNSsD1Ev
 5034 15d4 4BFFFFCC 		b .L493
 5035              	.L532:
 5036 15d8 7C7F1B78 		mr 31,3
 5037 15dc 4BFFFFD4 		b .L499
 5038              	.LVL370:
 5039              	.L551:
 5040 15e0 7C7F1B78 		mr 31,3
 5041              		.loc 1 241 0
 5042 15e4 38610028 		addi 3,1,40
 5043 15e8 48000001 		bl _ZNSsD1Ev
 5044              	.L525:
 5045 15ec 3861002C 		addi 3,1,44
 5046 15f0 48000001 		bl _ZNSsD1Ev
 5047              	.L528:
 5048 15f4 38610030 		addi 3,1,48
 5049 15f8 48000001 		bl _ZNSsD1Ev
 5050              	.L531:
 5051 15fc 38610034 		addi 3,1,52
 5052 1600 48000001 		bl _ZNSsD1Ev
 5053 1604 7FE3FB78 		mr 3,31
 5054 1608 48000001 		bl _Unwind_Resume
 5055              	.L548:
 5056 160c 7C7F1B78 		mr 31,3
 5057 1610 4BFFFFEC 		b .L531
 5058              	.L549:
 5059 1614 7C7F1B78 		mr 31,3
 5060 1618 4BFFFFDC 		b .L528
 5061              	.LVL371:
 5062              	.L546:
 5063 161c 7C7F1B78 		mr 31,3
 5064              	.L517:
 5065              		.loc 1 240 0
 5066 1620 3861003C 		addi 3,1,60
 5067 1624 48000001 		bl _ZNSsD1Ev
 5068              	.L520:
 5069 1628 38610040 		addi 3,1,64
 5070 162c 48000001 		bl _ZNSsD1Ev
 5071              	.L523:
 5072 1630 38610044 		addi 3,1,68
 5073 1634 48000001 		bl _ZNSsD1Ev
 5074 1638 7FE3FB78 		mr 3,31
 5075 163c 48000001 		bl _Unwind_Resume
 5076              	.L547:
 5077 1640 7C7F1B78 		mr 31,3
 5078 1644 38610038 		addi 3,1,56
 5079 1648 48000001 		bl _ZNSsD1Ev
 5080 164c 4BFFFFD4 		b .L517
 5081              	.LVL372:
 5082              	.L541:
 5083 1650 7C7F1B78 		mr 31,3
 5084              	.L512:
 5085              		.loc 1 239 0
 5086 1654 38610050 		addi 3,1,80
 5087 1658 48000001 		bl _ZNSsD1Ev
 5088              	.L515:
 5089 165c 38610054 		addi 3,1,84
 5090 1660 48000001 		bl _ZNSsD1Ev
 5091 1664 7FE3FB78 		mr 3,31
 5092 1668 48000001 		bl _Unwind_Resume
 5093              	.L543:
 5094 166c 7C7F1B78 		mr 31,3
 5095 1670 38610048 		addi 3,1,72
 5096 1674 48000001 		bl _ZNSsD1Ev
 5097              	.L509:
 5098 1678 3861004C 		addi 3,1,76
 5099 167c 48000001 		bl _ZNSsD1Ev
 5100 1680 4BFFFFD4 		b .L512
 5101              	.L540:
 5102 1684 7C7F1B78 		mr 31,3
 5103 1688 4BFFFFD4 		b .L515
 5104              	.L542:
 5105 168c 7C7F1B78 		mr 31,3
 5106 1690 4BFFFFE8 		b .L509
 5107              	.LVL373:
 5108              	.L537:
 5109 1694 7C7F1B78 		mr 31,3
 5110              	.L504:
 5111              		.loc 1 238 0
 5112 1698 38610060 		addi 3,1,96
 5113 169c 48000001 		bl _ZNSsD1Ev
 5114              	.L507:
 5115 16a0 38610064 		addi 3,1,100
 5116 16a4 48000001 		bl _ZNSsD1Ev
 5117 16a8 7FE3FB78 		mr 3,31
 5118 16ac 48000001 		bl _Unwind_Resume
 5119              	.LEHE79:
 5120              	.L539:
 5121 16b0 7C7F1B78 		mr 31,3
 5122 16b4 38610058 		addi 3,1,88
 5123 16b8 48000001 		bl _ZNSsD1Ev
 5124              	.L501:
 5125 16bc 3861005C 		addi 3,1,92
 5126 16c0 48000001 		bl _ZNSsD1Ev
 5127 16c4 4BFFFFD4 		b .L504
 5128              	.L536:
 5129 16c8 7C7F1B78 		mr 31,3
 5130 16cc 4BFFFFD4 		b .L507
 5131              	.LVL374:
 5132              	.L550:
 5133 16d0 7C7F1B78 		mr 31,3
 5134 16d4 4BFFFF18 		b .L525
 5135              	.LVL375:
 5136              	.L538:
 5137 16d8 7C7F1B78 		mr 31,3
 5138 16dc 4BFFFFE0 		b .L501
 5139              	.LVL376:
 5140              	.L544:
 5141 16e0 7C7F1B78 		mr 31,3
 5142 16e4 4BFFFF4C 		b .L523
 5143              	.L545:
 5144 16e8 7C7F1B78 		mr 31,3
 5145 16ec 4BFFFF3C 		b .L520
 5146              		.cfi_endproc
 5147              	.LFE1603:
 5148              		.section	.gcc_except_table
 5149              	.LLSDA1603:
 5150 013c FF       		.byte	0xff
 5151 013d FF       		.byte	0xff
 5152 013e 01       		.byte	0x1
 5153 013f 9201     		.uleb128 .LLSDACSE1603-.LLSDACSB1603
 5154              	.LLSDACSB1603:
 5155 0141 28       		.uleb128 .LEHB54-.LFB1603
 5156 0142 04       		.uleb128 .LEHE54-.LEHB54
 5157 0143 00       		.uleb128 0
 5158 0144 00       		.uleb128 0
 5159 0145 3C       		.uleb128 .LEHB55-.LFB1603
 5160 0146 04       		.uleb128 .LEHE55-.LEHB55
 5161 0147 F40B     		.uleb128 .L532-.LFB1603
 5162 0149 00       		.uleb128 0
 5163 014a 50       		.uleb128 .LEHB56-.LFB1603
 5164 014b 04       		.uleb128 .LEHE56-.LEHB56
 5165 014c DC0B     		.uleb128 .L533-.LFB1603
 5166 014e 00       		.uleb128 0
 5167 014f 64       		.uleb128 .LEHB57-.LFB1603
 5168 0150 04       		.uleb128 .LEHE57-.LEHB57
 5169 0151 B80B     		.uleb128 .L534-.LFB1603
 5170 0153 00       		.uleb128 0
 5171 0154 70       		.uleb128 .LEHB58-.LFB1603
 5172 0155 04       		.uleb128 .LEHE58-.LEHB58
 5173 0156 E40B     		.uleb128 .L535-.LFB1603
 5174 0158 00       		.uleb128 0
 5175 0159 C401     		.uleb128 .LEHB59-.LFB1603
 5176 015b 04       		.uleb128 .LEHE59-.LEHB59
 5177 015c 00       		.uleb128 0
 5178 015d 00       		.uleb128 0
 5179 015e D801     		.uleb128 .LEHB60-.LFB1603
 5180 0160 04       		.uleb128 .LEHE60-.LEHB60
 5181 0161 E40D     		.uleb128 .L536-.LFB1603
 5182 0163 00       		.uleb128 0
 5183 0164 EC01     		.uleb128 .LEHB61-.LFB1603
 5184 0166 04       		.uleb128 .LEHE61-.LEHB61
 5185 0167 B00D     		.uleb128 .L537-.LFB1603
 5186 0169 00       		.uleb128 0
 5187 016a 8002     		.uleb128 .LEHB62-.LFB1603
 5188 016c 04       		.uleb128 .LEHE62-.LEHB62
 5189 016d F40D     		.uleb128 .L538-.LFB1603
 5190 016f 00       		.uleb128 0
 5191 0170 8C02     		.uleb128 .LEHB63-.LFB1603
 5192 0172 04       		.uleb128 .LEHE63-.LEHB63
 5193 0173 CC0D     		.uleb128 .L539-.LFB1603
 5194 0175 00       		.uleb128 0
 5195 0176 D802     		.uleb128 .LEHB64-.LFB1603
 5196 0178 04       		.uleb128 .LEHE64-.LEHB64
 5197 0179 00       		.uleb128 0
 5198 017a 00       		.uleb128 0
 5199 017b EC02     		.uleb128 .LEHB65-.LFB1603
 5200 017d 04       		.uleb128 .LEHE65-.LEHB65
 5201 017e A00D     		.uleb128 .L540-.LFB1603
 5202 0180 00       		.uleb128 0
 5203 0181 8003     		.uleb128 .LEHB66-.LFB1603
 5204 0183 04       		.uleb128 .LEHE66-.LEHB66
 5205 0184 EC0C     		.uleb128 .L541-.LFB1603
 5206 0186 00       		.uleb128 0
 5207 0187 9403     		.uleb128 .LEHB67-.LFB1603
 5208 0189 04       		.uleb128 .LEHE67-.LEHB67
 5209 018a A80D     		.uleb128 .L542-.LFB1603
 5210 018c 00       		.uleb128 0
 5211 018d A003     		.uleb128 .LEHB68-.LFB1603
 5212 018f 04       		.uleb128 .LEHE68-.LEHB68
 5213 0190 880D     		.uleb128 .L543-.LFB1603
 5214 0192 00       		.uleb128 0
 5215 0193 EC03     		.uleb128 .LEHB69-.LFB1603
 5216 0195 04       		.uleb128 .LEHE69-.LEHB69
 5217 0196 00       		.uleb128 0
 5218 0197 00       		.uleb128 0
 5219 0198 8004     		.uleb128 .LEHB70-.LFB1603
 5220 019a 04       		.uleb128 .LEHE70-.LEHB70
 5221 019b FC0D     		.uleb128 .L544-.LFB1603
 5222 019d 00       		.uleb128 0
 5223 019e 9404     		.uleb128 .LEHB71-.LFB1603
 5224 01a0 04       		.uleb128 .LEHE71-.LEHB71
 5225 01a1 840E     		.uleb128 .L545-.LFB1603
 5226 01a3 00       		.uleb128 0
 5227 01a4 A804     		.uleb128 .LEHB72-.LFB1603
 5228 01a6 04       		.uleb128 .LEHE72-.LEHB72
 5229 01a7 B80C     		.uleb128 .L546-.LFB1603
 5230 01a9 00       		.uleb128 0
 5231 01aa B404     		.uleb128 .LEHB73-.LFB1603
 5232 01ac 04       		.uleb128 .LEHE73-.LEHB73
 5233 01ad DC0C     		.uleb128 .L547-.LFB1603
 5234 01af 00       		.uleb128 0
 5235 01b0 8005     		.uleb128 .LEHB74-.LFB1603
 5236 01b2 04       		.uleb128 .LEHE74-.LEHB74
 5237 01b3 00       		.uleb128 0
 5238 01b4 00       		.uleb128 0
 5239 01b5 9405     		.uleb128 .LEHB75-.LFB1603
 5240 01b7 04       		.uleb128 .LEHE75-.LEHB75
 5241 01b8 A80C     		.uleb128 .L548-.LFB1603
 5242 01ba 00       		.uleb128 0
 5243 01bb A805     		.uleb128 .LEHB76-.LFB1603
 5244 01bd 04       		.uleb128 .LEHE76-.LEHB76
 5245 01be B00C     		.uleb128 .L549-.LFB1603
 5246 01c0 00       		.uleb128 0
 5247 01c1 BC05     		.uleb128 .LEHB77-.LFB1603
 5248 01c3 04       		.uleb128 .LEHE77-.LEHB77
 5249 01c4 EC0D     		.uleb128 .L550-.LFB1603
 5250 01c6 00       		.uleb128 0
 5251 01c7 C805     		.uleb128 .LEHB78-.LFB1603
 5252 01c9 04       		.uleb128 .LEHE78-.LEHB78
 5253 01ca FC0B     		.uleb128 .L551-.LFB1603
 5254 01cc 00       		.uleb128 0
 5255 01cd 9406     		.uleb128 .LEHB79-.LFB1603
 5256 01cf B807     		.uleb128 .LEHE79-.LEHB79
 5257 01d1 00       		.uleb128 0
 5258 01d2 00       		.uleb128 0
 5259              	.LLSDACSE1603:
 5260              		.section	".text"
 5261              		.size	_ZN9ChangeLog16FixChangeLogTextESs, .-_ZN9ChangeLog16FixChangeLogTextESs
 5262              		.align 2
 5263              		.globl _ZN9ChangeLog4ShowEv
 5264              		.type	_ZN9ChangeLog4ShowEv, @function
 5265              	_ZN9ChangeLog4ShowEv:
 5266              	.LFB1604:
 5267              		.loc 1 247 0
 5268              		.cfi_startproc
 5269              		.cfi_personality 0,__gxx_personality_v0
 5270              		.cfi_lsda 0,.LLSDA1604
 5271              	.LVL377:
 5272 16f0 9421F768 		stwu 1,-2200(1)
 5273              	.LCFI29:
 5274              		.cfi_def_cfa_offset 2200
 5275 16f4 7C0802A6 		mflr 0
 5276              	.LBB3874:
 5277              		.loc 1 249 0
 5278 16f8 38800400 		li 4,1024
 5279              	.LBE3874:
 5280              		.loc 1 247 0
 5281 16fc 92A1086C 		stw 21,2156(1)
 5282              	.LBB4062:
 5283              		.loc 1 249 0
 5284 1700 3EA00000 		lis 21,.LC17@ha
 5285              		.cfi_offset 21, -44
 5286              		.cfi_register 65, 0
 5287              	.LBE4062:
 5288              		.loc 1 247 0
 5289 1704 92C10870 		stw 22,2160(1)
 5290              	.LBB4063:
 5291              		.loc 1 249 0
 5292 1708 3EC00000 		lis 22,Settings+494@ha
 5293              		.cfi_offset 22, -40
 5294 170c 3AB500E8 		la 21,.LC17@l(21)
 5295 1710 3AD601EE 		la 22,Settings+494@l(22)
 5296 1714 7EA5AB78 		mr 5,21
 5297 1718 7EC6B378 		mr 6,22
 5298              	.LBE4063:
 5299              		.loc 1 247 0
 5300 171c 93810888 		stw 28,2184(1)
 5301 1720 7C7C1B78 		mr 28,3
 5302              		.cfi_offset 28, -16
 5303              	.LBB4064:
 5304              		.loc 1 249 0
 5305 1724 38610460 		addi 3,1,1120
 5306              	.LVL378:
 5307              	.LBE4064:
 5308              		.loc 1 247 0
 5309 1728 9001089C 		stw 0,2204(1)
 5310 172c 93E10894 		stw 31,2196(1)
 5311 1730 92E10874 		stw 23,2164(1)
 5312 1734 93010878 		stw 24,2168(1)
 5313 1738 9321087C 		stw 25,2172(1)
 5314 173c 93410880 		stw 26,2176(1)
 5315 1740 93610884 		stw 27,2180(1)
 5316 1744 93A1088C 		stw 29,2188(1)
 5317 1748 93C10890 		stw 30,2192(1)
 5318              	.LEHB80:
 5319              	.LBB4065:
 5320              		.loc 1 249 0
 5321              		.cfi_offset 30, -8
 5322              		.cfi_offset 29, -12
 5323              		.cfi_offset 27, -20
 5324              		.cfi_offset 26, -24
 5325              		.cfi_offset 25, -28
 5326              		.cfi_offset 24, -32
 5327              		.cfi_offset 23, -36
 5328              		.cfi_offset 31, -4
 5329              		.cfi_offset 65, 4
 5330 174c 4CC63182 		crxor 6,6,6
 5331 1750 48000001 		bl snprintf
 5332              		.loc 1 251 0
 5333 1754 7F83E378 		mr 3,28
 5334 1758 48000001 		bl _ZN9ChangeLog20GetSavedChangeLogRevEv
 5335 175c 7C7F1B78 		mr 31,3
 5336 1760 48000001 		bl GetIntRev
 5337 1764 7F9F1800 		cmpw 7,31,3
 5338 1768 409C0228 		bge- 7,.L573
 5339              		.loc 1 253 0
 5340 176c 48000001 		bl GetIntRev
 5341 1770 7C771B78 		mr 23,3
 5342 1774 48000001 		bl GetIntRev
 5343 1778 7C7F1B78 		mr 31,3
 5344              	.LVL379:
 5345              	.LBB3875:
 5346              	.LBB3876:
 5347              	.LBB3877:
 5348              	.LBB3878:
 5349              	.LBB3879:
 5350              	.LBB3880:
 5351              		.loc 1 52 0
 5352 177c 38600020 		li 3,32
 5353              	.LVL380:
 5354 1780 48000001 		bl malloc
 5355              	.LVL381:
 5356              		.loc 1 53 0
 5357 1784 7C791B79 		mr. 25,3
 5358 1788 418203F4 		beq- 0,.L646
 5359              		.loc 1 56 0
 5360 178c 38000000 		li 0,0
 5361              		.loc 1 66 0
 5362 1790 3AF7FFFA 		addi 23,23,-6
 5363              	.LVL382:
 5364              		.loc 1 56 0
 5365 1794 98190000 		stb 0,0(25)
 5366              	.LVL383:
 5367              		.loc 1 74 0
 5368 1798 3BA00000 		li 29,0
 5369              		.loc 1 59 0
 5370 179c 3B000001 		li 24,1
 5371 17a0 4800010C 		b .L575
 5372              	.LVL384:
 5373              	.L667:
 5374 17a4 3F400000 		lis 26,.LC14@ha
 5375 17a8 3F600000 		lis 27,.LC15@ha
 5376 17ac 3B5A00C0 		la 26,.LC14@l(26)
 5377 17b0 3B7B00CC 		la 27,.LC15@l(27)
 5378              	.L592:
 5379              	.LBB3881:
 5380              		.loc 1 78 0
 5381 17b4 7FE6FB78 		mr 6,31
 5382 17b8 38800032 		li 4,50
 5383 17bc 7F45D378 		mr 5,26
 5384 17c0 3861002C 		addi 3,1,44
 5385 17c4 4CC63182 		crxor 6,6,6
 5386 17c8 48000001 		bl snprintf
 5387              		.loc 1 79 0
 5388 17cc 7F63DB78 		mr 3,27
 5389 17d0 83DC0004 		lwz 30,4(28)
 5390 17d4 48000001 		bl gettext
 5391 17d8 7C641B78 		mr 4,3
 5392 17dc 38A1000F 		addi 5,1,15
 5393 17e0 38610018 		addi 3,1,24
 5394 17e4 48000001 		bl _ZNSsC1EPKcRKSaIcE
 5395              	.LEHE80:
 5396 17e8 38610014 		addi 3,1,20
 5397 17ec 3881002C 		addi 4,1,44
 5398 17f0 38A1000E 		addi 5,1,14
 5399              	.LEHB81:
 5400 17f4 48000001 		bl _ZNSsC1EPKcRKSaIcE
 5401              	.LEHE81:
 5402 17f8 7FC3F378 		mr 3,30
 5403 17fc 38810018 		addi 4,1,24
 5404 1800 38A10014 		addi 5,1,20
 5405 1804 7FA6EB78 		mr 6,29
 5406 1808 38E00006 		li 7,6
 5407              	.LEHB82:
 5408 180c 48000001 		bl _ZN12UpdateWindow12ShowProgressESsSsii
 5409              	.LEHE82:
 5410              	.LVL385:
 5411              	.LBB3882:
 5412              	.LBB3883:
 5413              	.LBB3884:
 5414              	.LBB3885:
 5415              	.LBB3886:
 5416              	.LBB3887:
 5417              		.loc 2 288 0
 5418 1810 81210014 		lwz 9,20(1)
 5419              	.LBE3887:
 5420              	.LBE3886:
 5421              	.LBE3885:
 5422              	.LBB3888:
 5423              	.LBB3889:
 5424              		.loc 2 235 0
 5425 1814 3FC00000 		lis 30,_ZNSs4_Rep20_S_empty_rep_storageE@ha
 5426 1818 3BDE0000 		la 30,_ZNSs4_Rep20_S_empty_rep_storageE@l(30)
 5427              	.LBE3889:
 5428              	.LBE3888:
 5429              		.loc 2 534 0
 5430 181c 3869FFF4 		addi 3,9,-12
 5431              	.LVL386:
 5432              	.LBB3898:
 5433              	.LBB3896:
 5434              		.loc 2 235 0
 5435 1820 7F83F000 		cmpw 7,3,30
 5436 1824 409E03C0 		bne- 7,.L664
 5437              	.LVL387:
 5438              	.L583:
 5439              	.LBE3896:
 5440              	.LBE3898:
 5441              	.LBE3884:
 5442              	.LBE3883:
 5443              	.LBE3882:
 5444              	.LBB3902:
 5445              	.LBB3903:
 5446              	.LBB3904:
 5447              	.LBB3905:
 5448              	.LBB3906:
 5449              	.LBB3907:
 5450              		.loc 2 288 0
 5451 1828 81210018 		lwz 9,24(1)
 5452              	.LBE3907:
 5453              	.LBE3906:
 5454              	.LBE3905:
 5455              		.loc 2 534 0
 5456 182c 3869FFF4 		addi 3,9,-12
 5457              	.LVL388:
 5458              	.LBB3908:
 5459              	.LBB3909:
 5460              		.loc 2 235 0
 5461 1830 7F83F000 		cmpw 7,3,30
 5462 1834 409E03D0 		bne- 7,.L665
 5463              	.LVL389:
 5464              	.L591:
 5465              	.LBE3909:
 5466              	.LBE3908:
 5467              	.LBE3904:
 5468              	.LBE3903:
 5469              	.LBE3902:
 5470              		.loc 1 81 0
 5471 1838 7F83E378 		mr 3,28
 5472 183c 7FE4FB78 		mr 4,31
 5473              	.LEHB83:
 5474 1840 48000001 		bl _ZN9ChangeLog10GetChangesEi
 5475              	.LVL390:
 5476              		.loc 1 82 0
 5477 1844 7C7E1B79 		mr. 30,3
 5478 1848 41A2FF6C 		beq- 0,.L592
 5479              		.loc 1 85 0
 5480 184c 48000001 		bl strlen
 5481              	.LVL391:
 5482 1850 3B180002 		addi 24,24,2
 5483              	.LVL392:
 5484 1854 7F181A14 		add 24,24,3
 5485              	.LVL393:
 5486              		.loc 1 87 0
 5487 1858 7F23CB78 		mr 3,25
 5488 185c 7F04C378 		mr 4,24
 5489 1860 48000001 		bl realloc
 5490              	.LVL394:
 5491              		.loc 1 88 0
 5492 1864 7C7B1B79 		mr. 27,3
 5493 1868 41820230 		beq- 0,.L666
 5494              		.loc 1 105 0
 5495 186c 7FC4F378 		mr 4,30
 5496              	.LVL395:
 5497              		.loc 1 111 0
 5498 1870 3BFFFFFF 		addi 31,31,-1
 5499              	.LVL396:
 5500              		.loc 1 105 0
 5501 1874 48000001 		bl strcat
 5502              	.LVL397:
 5503              		.loc 1 106 0
 5504 1878 7F63DB78 		mr 3,27
 5505 187c 48000001 		bl strlen
 5506 1880 3D200000 		lis 9,.LC16@ha
 5507 1884 394900E4 		la 10,.LC16@l(9)
 5508 1888 A16900E4 		lhz 11,.LC16@l(9)
 5509 188c 880A0002 		lbz 0,2(10)
 5510 1890 7D3B1A14 		add 9,27,3
 5511 1894 7D7B1B2E 		sthx 11,27,3
 5512              		.loc 1 108 0
 5513 1898 7FC3F378 		mr 3,30
 5514              		.loc 1 106 0
 5515 189c 98090002 		stb 0,2(9)
 5516              		.loc 1 115 0
 5517 18a0 3BBD0001 		addi 29,29,1
 5518              	.LVL398:
 5519 18a4 7F79DB78 		mr 25,27
 5520              		.loc 1 108 0
 5521 18a8 48000001 		bl free
 5522              	.LVL399:
 5523              	.L575:
 5524              	.LBE3881:
 5525              		.loc 1 75 0
 5526 18ac 7F97F800 		cmpw 7,23,31
 5527 18b0 409EFEF4 		bne+ 7,.L667
 5528              		.loc 1 118 0
 5529 18b4 881C0000 		lbz 0,0(28)
 5530 18b8 2F800000 		cmpwi 7,0,0
 5531 18bc 409E019C 		bne- 7,.L668
 5532              	.LVL400:
 5533              	.L600:
 5534              		.loc 1 124 0
 5535 18c0 7F23CB78 		mr 3,25
 5536 18c4 48000001 		bl strlen
 5537 18c8 2B830004 		cmplwi 7,3,4
 5538 18cc 409D0228 		ble- 7,.L661
 5539              	.LBE3880:
 5540              	.LBE3879:
 5541              	.LBE3878:
 5542              		.loc 1 196 0
 5543 18d0 38800400 		li 4,1024
 5544 18d4 7EA5AB78 		mr 5,21
 5545 18d8 7EC6B378 		mr 6,22
 5546 18dc 38610060 		addi 3,1,96
 5547 18e0 4CC63182 		crxor 6,6,6
 5548 18e4 48000001 		bl snprintf
 5549              		.loc 1 197 0
 5550 18e8 38610020 		addi 3,1,32
 5551 18ec 7EC4B378 		mr 4,22
 5552 18f0 38A10011 		addi 5,1,17
 5553 18f4 48000001 		bl _ZNSsC1EPKcRKSaIcE
 5554              	.LEHE83:
 5555 18f8 38610020 		addi 3,1,32
 5556              	.LEHB84:
 5557 18fc 48000001 		bl _Z15CreateSubfolderSs
 5558              	.LEHE84:
 5559              	.LVL401:
 5560              	.LBB3955:
 5561              	.LBB3956:
 5562              	.LBB3957:
 5563              	.LBB3958:
 5564              	.LBB3959:
 5565              	.LBB3960:
 5566              		.loc 2 288 0
 5567 1900 81210020 		lwz 9,32(1)
 5568              	.LBE3960:
 5569              	.LBE3959:
 5570              	.LBE3958:
 5571              	.LBB3961:
 5572              	.LBB3962:
 5573              		.loc 2 235 0
 5574 1904 3FC00000 		lis 30,_ZNSs4_Rep20_S_empty_rep_storageE@ha
 5575 1908 3BDE0000 		la 30,_ZNSs4_Rep20_S_empty_rep_storageE@l(30)
 5576              	.LBE3962:
 5577              	.LBE3961:
 5578              		.loc 2 534 0
 5579 190c 3869FFF4 		addi 3,9,-12
 5580              	.LVL402:
 5581              	.LBB3971:
 5582              	.LBB3969:
 5583              		.loc 2 235 0
 5584 1910 7F83F000 		cmpw 7,3,30
 5585 1914 409E0310 		bne- 7,.L669
 5586              	.LVL403:
 5587              	.L618:
 5588              	.LBE3969:
 5589              	.LBE3971:
 5590              	.LBE3957:
 5591              	.LBE3956:
 5592              	.LBE3955:
 5593              		.loc 1 199 0
 5594 1918 3C800000 		lis 4,.LC18@ha
 5595 191c 38610060 		addi 3,1,96
 5596 1920 38840104 		la 4,.LC18@l(4)
 5597              	.LEHB85:
 5598 1924 48000001 		bl fopen
 5599              	.LVL404:
 5600              		.loc 1 200 0
 5601 1928 7C7F1B79 		mr. 31,3
 5602 192c 418201C8 		beq- 0,.L661
 5603              		.loc 1 206 0
 5604 1930 3861001C 		addi 3,1,28
 5605              	.LVL405:
 5606 1934 7F24CB78 		mr 4,25
 5607 1938 38A10010 		addi 5,1,16
 5608 193c 48000001 		bl _ZNSsC1EPKcRKSaIcE
 5609              	.LEHE85:
 5610 1940 38610024 		addi 3,1,36
 5611 1944 3881001C 		addi 4,1,28
 5612              	.LEHB86:
 5613 1948 4BFFE6B9 		bl _ZN9ChangeLog16FixChangeLogTextESs.constprop.74
 5614              	.LEHE86:
 5615              	.LVL406:
 5616              	.LBB3975:
 5617              	.LBB3976:
 5618              	.LBB3977:
 5619              	.LBB3978:
 5620              	.LBB3979:
 5621              	.LBB3980:
 5622              		.loc 2 288 0
 5623 194c 8121001C 		lwz 9,28(1)
 5624              	.LBE3980:
 5625              	.LBE3979:
 5626              	.LBE3978:
 5627              		.loc 2 534 0
 5628 1950 3869FFF4 		addi 3,9,-12
 5629              	.LVL407:
 5630              	.LBB3981:
 5631              	.LBB3982:
 5632              		.loc 2 235 0
 5633 1954 7F83F000 		cmpw 7,3,30
 5634 1958 409E03BC 		bne- 7,.L670
 5635              	.LVL408:
 5636              	.L627:
 5637              	.LBE3982:
 5638              	.LBE3981:
 5639              	.LBE3977:
 5640              	.LBE3976:
 5641              	.LBE3975:
 5642              		.loc 1 207 0
 5643 195c 80610024 		lwz 3,36(1)
 5644 1960 38800001 		li 4,1
 5645 1964 7FE6FB78 		mr 6,31
 5646 1968 80A3FFF4 		lwz 5,-12(3)
 5647              	.LEHB87:
 5648 196c 48000001 		bl fwrite
 5649              		.loc 1 209 0
 5650 1970 7FE3FB78 		mr 3,31
 5651 1974 48000001 		bl fclose
 5652              	.LEHE87:
 5653              		.loc 1 210 0
 5654 1978 7F23CB78 		mr 3,25
 5655 197c 48000001 		bl free
 5656              	.LVL409:
 5657              	.LBB3993:
 5658              	.LBB3994:
 5659              	.LBB3995:
 5660              	.LBB3996:
 5661              	.LBB3997:
 5662              	.LBB3998:
 5663              		.loc 2 288 0
 5664 1980 81210024 		lwz 9,36(1)
 5665              	.LBE3998:
 5666              	.LBE3997:
 5667              	.LBE3996:
 5668              		.loc 2 534 0
 5669 1984 3869FFF4 		addi 3,9,-12
 5670              	.LVL410:
 5671              	.LBB3999:
 5672              	.LBB4000:
 5673              		.loc 2 235 0
 5674 1988 7F83F000 		cmpw 7,3,30
 5675 198c 409E02E0 		bne- 7,.L671
 5676              	.LVL411:
 5677              	.L573:
 5678              	.LBE4000:
 5679              	.LBE3999:
 5680              	.LBE3995:
 5681              	.LBE3994:
 5682              	.LBE3993:
 5683              	.LBE3877:
 5684              	.LBE3876:
 5685              	.LBE3875:
 5686              		.loc 1 257 0
 5687 1990 38610028 		addi 3,1,40
 5688 1994 38810460 		addi 4,1,1120
 5689 1998 38A10012 		addi 5,1,18
 5690              	.LEHB88:
 5691 199c 48000001 		bl _ZNSsC1EPKcRKSaIcE
 5692              	.LEHE88:
 5693 19a0 38610028 		addi 3,1,40
 5694              	.LEHB89:
 5695 19a4 48000001 		bl _Z9CheckFileSs
 5696              	.LEHE89:
 5697              	.LBB4030:
 5698              	.LBB4031:
 5699              	.LBB4032:
 5700              	.LBB4033:
 5701              	.LBB4034:
 5702              	.LBB4035:
 5703              		.loc 2 288 0
 5704 19a8 81210028 		lwz 9,40(1)
 5705              	.LBE4035:
 5706              	.LBE4034:
 5707              	.LBE4033:
 5708              	.LBB4036:
 5709              	.LBB4037:
 5710              		.loc 2 235 0
 5711 19ac 3D600000 		lis 11,_ZNSs4_Rep20_S_empty_rep_storageE@ha
 5712              	.LBE4037:
 5713              	.LBE4036:
 5714              	.LBE4032:
 5715              	.LBE4031:
 5716              	.LBE4030:
 5717              		.loc 1 257 0
 5718 19b0 7C7F1B78 		mr 31,3
 5719              	.LVL412:
 5720              	.LBB4054:
 5721              	.LBB4052:
 5722              	.LBB4050:
 5723              	.LBB4047:
 5724              	.LBB4044:
 5725              		.loc 2 235 0
 5726 19b4 380B0000 		la 0,_ZNSs4_Rep20_S_empty_rep_storageE@l(11)
 5727              	.LBE4044:
 5728              	.LBE4047:
 5729              		.loc 2 534 0
 5730 19b8 3869FFF4 		addi 3,9,-12
 5731              	.LVL413:
 5732              	.LBB4048:
 5733              	.LBB4045:
 5734              		.loc 2 235 0
 5735 19bc 7F830000 		cmpw 7,3,0
 5736 19c0 409E02CC 		bne- 7,.L672
 5737              	.LVL414:
 5738              	.L639:
 5739              	.LBE4045:
 5740              	.LBE4048:
 5741              	.LBE4050:
 5742              	.LBE4052:
 5743              	.LBE4054:
 5744              		.loc 1 257 0 discriminator 2
 5745 19c4 2F9F0000 		cmpwi 7,31,0
 5746              		.loc 1 258 0 discriminator 2
 5747 19c8 38600000 		li 3,0
 5748              		.loc 1 257 0 discriminator 2
 5749 19cc 409E0040 		bne- 7,.L673
 5750              	.LVL415:
 5751              	.L644:
 5752              	.LBE4065:
 5753              		.loc 1 263 0
 5754 19d0 8001089C 		lwz 0,2204(1)
 5755 19d4 82A1086C 		lwz 21,2156(1)
 5756 19d8 7C0803A6 		mtlr 0
 5757 19dc 82C10870 		lwz 22,2160(1)
 5758 19e0 82E10874 		lwz 23,2164(1)
 5759 19e4 83010878 		lwz 24,2168(1)
 5760 19e8 8321087C 		lwz 25,2172(1)
 5761 19ec 83410880 		lwz 26,2176(1)
 5762 19f0 83610884 		lwz 27,2180(1)
 5763 19f4 83810888 		lwz 28,2184(1)
 5764              	.LVL416:
 5765 19f8 83A1088C 		lwz 29,2188(1)
 5766 19fc 83C10890 		lwz 30,2192(1)
 5767 1a00 83E10894 		lwz 31,2196(1)
 5768 1a04 38210898 		addi 1,1,2200
 5769              		.cfi_remember_state
 5770              	.LCFI30:
 5771              		.cfi_def_cfa_offset 0
 5772              		.cfi_restore 31
 5773              		.cfi_restore 30
 5774              		.cfi_restore 29
 5775              		.cfi_restore 28
 5776              		.cfi_restore 27
 5777              		.cfi_restore 26
 5778              		.cfi_restore 25
 5779              		.cfi_restore 24
 5780              		.cfi_restore 23
 5781              		.cfi_restore 22
 5782              		.cfi_restore 21
 5783 1a08 4E800020 		blr
 5784              	.LVL417:
 5785              	.L673:
 5786              	.LCFI31:
 5787              		.cfi_restore_state
 5788              	.LBB4066:
 5789              		.loc 1 260 0
 5790 1a0c 38610460 		addi 3,1,1120
 5791 1a10 38800000 		li 4,0
 5792              	.LEHB90:
 5793 1a14 48000001 		bl _ZN10TextEditor8LoadFileEPKcb
 5794              	.LBE4066:
 5795              		.loc 1 263 0
 5796 1a18 8001089C 		lwz 0,2204(1)
 5797 1a1c 82A1086C 		lwz 21,2156(1)
 5798              	.LBB4067:
 5799              		.loc 1 262 0
 5800 1a20 38600001 		li 3,1
 5801              	.LBE4067:
 5802              		.loc 1 263 0
 5803 1a24 7C0803A6 		mtlr 0
 5804 1a28 82C10870 		lwz 22,2160(1)
 5805 1a2c 82E10874 		lwz 23,2164(1)
 5806 1a30 83010878 		lwz 24,2168(1)
 5807 1a34 8321087C 		lwz 25,2172(1)
 5808 1a38 83410880 		lwz 26,2176(1)
 5809 1a3c 83610884 		lwz 27,2180(1)
 5810 1a40 83810888 		lwz 28,2184(1)
 5811              	.LVL418:
 5812 1a44 83A1088C 		lwz 29,2188(1)
 5813 1a48 83C10890 		lwz 30,2192(1)
 5814 1a4c 83E10894 		lwz 31,2196(1)
 5815 1a50 38210898 		addi 1,1,2200
 5816              		.cfi_remember_state
 5817              		.cfi_restore 21
 5818              		.cfi_restore 22
 5819              		.cfi_restore 23
 5820              		.cfi_restore 24
 5821              		.cfi_restore 25
 5822              		.cfi_restore 26
 5823              		.cfi_restore 27
 5824              		.cfi_restore 28
 5825              		.cfi_restore 29
 5826              		.cfi_restore 30
 5827              		.cfi_restore 31
 5828              	.LCFI32:
 5829              		.cfi_def_cfa_offset 0
 5830 1a54 4E800020 		blr
 5831              	.LVL419:
 5832              	.L668:
 5833              	.LCFI33:
 5834              		.cfi_restore_state
 5835              	.LBB4068:
 5836              	.LBB4055:
 5837              	.LBB4024:
 5838              	.LBB4018:
 5839              	.LBB4011:
 5840              	.LBB3951:
 5841              	.LBB3947:
 5842              	.LBB3932:
 5843              	.LBB3933:
 5844              		.loc 4 27 0
 5845 1a58 3FE00000 		lis 31,_ZN11Application8instanceE@ha
 5846              	.LVL420:
 5847 1a5c 83DF0000 		lwz 30,_ZN11Application8instanceE@l(31)
 5848 1a60 2F9E0000 		cmpwi 7,30,0
 5849 1a64 419E0138 		beq- 7,.L674
 5850              	.L601:
 5851              	.LBE3933:
 5852              	.LBE3932:
 5853              		.loc 1 120 0
 5854 1a68 809C0004 		lwz 4,4(28)
 5855 1a6c 7FC3F378 		mr 3,30
 5856 1a70 48000001 		bl _ZN11Application13PushForDeleteEP10GuiElement
 5857              	.LBB3935:
 5858              	.LBB3936:
 5859              		.loc 4 27 0
 5860 1a74 83DF0000 		lwz 30,_ZN11Application8instanceE@l(31)
 5861 1a78 2F9E0000 		cmpwi 7,30,0
 5862 1a7c 419E0108 		beq- 7,.L675
 5863              	.L603:
 5864              	.LBE3936:
 5865              	.LBE3935:
 5866              		.loc 1 121 0
 5867 1a80 813E0000 		lwz 9,0(30)
 5868 1a84 7FC3F378 		mr 3,30
 5869 1a88 800900D8 		lwz 0,216(9)
 5870 1a8c 7C0903A6 		mtctr 0
 5871 1a90 4E800421 		bctrl
 5872 1a94 4BFFFE2C 		b .L600
 5873              	.LVL421:
 5874              	.L666:
 5875              	.LBB3939:
 5876              		.loc 1 90 0
 5877 1a98 881C0000 		lbz 0,0(28)
 5878 1a9c 2F800000 		cmpwi 7,0,0
 5879 1aa0 409E009C 		bne- 7,.L676
 5880              	.LVL422:
 5881              	.L594:
 5882              		.loc 1 98 0
 5883 1aa4 7F23CB78 		mr 3,25
 5884 1aa8 48000001 		bl free
 5885              		.loc 1 99 0
 5886 1aac 7FC3F378 		mr 3,30
 5887 1ab0 48000001 		bl free
 5888              	.LBE3939:
 5889              	.LBE3947:
 5890              	.LBE3951:
 5891              	.LBE4011:
 5892              	.LBE4018:
 5893              	.LBE4024:
 5894              	.LBE4055:
 5895              	.LBE4068:
 5896              		.loc 1 263 0
 5897 1ab4 8001089C 		lwz 0,2204(1)
 5898 1ab8 82A1086C 		lwz 21,2156(1)
 5899              	.LBB4069:
 5900              	.LBB4056:
 5901              	.LBB4025:
 5902              	.LBB4019:
 5903              	.LBB4012:
 5904              	.LBB3952:
 5905              	.LBB3948:
 5906              	.LBB3940:
 5907              		.loc 1 254 0
 5908 1abc 38600000 		li 3,0
 5909              	.LBE3940:
 5910              	.LBE3948:
 5911              	.LBE3952:
 5912              	.LBE4012:
 5913              	.LBE4019:
 5914              	.LBE4025:
 5915              	.LBE4056:
 5916              	.LBE4069:
 5917              		.loc 1 263 0
 5918 1ac0 7C0803A6 		mtlr 0
 5919 1ac4 82C10870 		lwz 22,2160(1)
 5920 1ac8 82E10874 		lwz 23,2164(1)
 5921              	.LVL423:
 5922 1acc 83010878 		lwz 24,2168(1)
 5923              	.LVL424:
 5924 1ad0 8321087C 		lwz 25,2172(1)
 5925              	.LVL425:
 5926 1ad4 83410880 		lwz 26,2176(1)
 5927 1ad8 83610884 		lwz 27,2180(1)
 5928 1adc 83810888 		lwz 28,2184(1)
 5929              	.LVL426:
 5930 1ae0 83A1088C 		lwz 29,2188(1)
 5931 1ae4 83C10890 		lwz 30,2192(1)
 5932              	.LVL427:
 5933 1ae8 83E10894 		lwz 31,2196(1)
 5934 1aec 38210898 		addi 1,1,2200
 5935              		.cfi_remember_state
 5936              		.cfi_restore 21
 5937              		.cfi_restore 22
 5938              		.cfi_restore 23
 5939              		.cfi_restore 24
 5940              		.cfi_restore 25
 5941              		.cfi_restore 26
 5942              		.cfi_restore 27
 5943              		.cfi_restore 28
 5944              		.cfi_restore 29
 5945              		.cfi_restore 30
 5946              		.cfi_restore 31
 5947              	.LCFI34:
 5948              		.cfi_def_cfa_offset 0
 5949 1af0 4E800020 		blr
 5950              	.LVL428:
 5951              	.L661:
 5952              	.LCFI35:
 5953              		.cfi_restore_state
 5954              	.LBB4070:
 5955              	.LBB4057:
 5956              	.LBB4026:
 5957              	.LBB4020:
 5958              		.loc 1 202 0
 5959 1af4 7F23CB78 		mr 3,25
 5960 1af8 48000001 		bl free
 5961              	.LBE4020:
 5962              	.LBE4026:
 5963              	.LBE4057:
 5964              	.LBE4070:
 5965              		.loc 1 263 0
 5966 1afc 8001089C 		lwz 0,2204(1)
 5967 1b00 82A1086C 		lwz 21,2156(1)
 5968              	.LBB4071:
 5969              	.LBB4058:
 5970              	.LBB4027:
 5971              	.LBB4021:
 5972              		.loc 1 254 0
 5973 1b04 38600000 		li 3,0
 5974              	.LBE4021:
 5975              	.LBE4027:
 5976              	.LBE4058:
 5977              	.LBE4071:
 5978              		.loc 1 263 0
 5979 1b08 7C0803A6 		mtlr 0
 5980 1b0c 82C10870 		lwz 22,2160(1)
 5981 1b10 82E10874 		lwz 23,2164(1)
 5982              	.LVL429:
 5983 1b14 83010878 		lwz 24,2168(1)
 5984              	.LVL430:
 5985 1b18 8321087C 		lwz 25,2172(1)
 5986              	.LVL431:
 5987 1b1c 83410880 		lwz 26,2176(1)
 5988 1b20 83610884 		lwz 27,2180(1)
 5989 1b24 83810888 		lwz 28,2184(1)
 5990              	.LVL432:
 5991 1b28 83A1088C 		lwz 29,2188(1)
 5992              	.LVL433:
 5993 1b2c 83C10890 		lwz 30,2192(1)
 5994 1b30 83E10894 		lwz 31,2196(1)
 5995 1b34 38210898 		addi 1,1,2200
 5996              		.cfi_remember_state
 5997              		.cfi_restore 21
 5998              		.cfi_restore 22
 5999              		.cfi_restore 23
 6000              		.cfi_restore 24
 6001              		.cfi_restore 25
 6002              		.cfi_restore 26
 6003              		.cfi_restore 27
 6004              		.cfi_restore 28
 6005              		.cfi_restore 29
 6006              		.cfi_restore 30
 6007              		.cfi_restore 31
 6008              	.LCFI36:
 6009              		.cfi_def_cfa_offset 0
 6010 1b38 4E800020 		blr
 6011              	.LVL434:
 6012              	.L676:
 6013              	.LCFI37:
 6014              		.cfi_restore_state
 6015              	.LBB4072:
 6016              	.LBB4059:
 6017              	.LBB4028:
 6018              	.LBB4022:
 6019              	.LBB4013:
 6020              	.LBB3953:
 6021              	.LBB3949:
 6022              	.LBB3941:
 6023              	.LBB3920:
 6024              	.LBB3921:
 6025              		.loc 4 27 0
 6026 1b3c 3FE00000 		lis 31,_ZN11Application8instanceE@ha
 6027              	.LVL435:
 6028 1b40 83BF0000 		lwz 29,_ZN11Application8instanceE@l(31)
 6029              	.LVL436:
 6030 1b44 2F9D0000 		cmpwi 7,29,0
 6031 1b48 419E0084 		beq- 7,.L677
 6032              	.LVL437:
 6033              	.L595:
 6034              	.LBE3921:
 6035              	.LBE3920:
 6036              		.loc 1 92 0
 6037 1b4c 809C0004 		lwz 4,4(28)
 6038 1b50 7FA3EB78 		mr 3,29
 6039 1b54 48000001 		bl _ZN11Application13PushForDeleteEP10GuiElement
 6040              	.LBB3923:
 6041              	.LBB3924:
 6042              		.loc 4 27 0
 6043 1b58 83BF0000 		lwz 29,_ZN11Application8instanceE@l(31)
 6044 1b5c 2F9D0000 		cmpwi 7,29,0
 6045 1b60 419E0054 		beq- 7,.L678
 6046              	.L597:
 6047              	.LBE3924:
 6048              	.LBE3923:
 6049              		.loc 1 93 0
 6050 1b64 813D0000 		lwz 9,0(29)
 6051 1b68 7FA3EB78 		mr 3,29
 6052 1b6c 800900D8 		lwz 0,216(9)
 6053 1b70 7C0903A6 		mtctr 0
 6054 1b74 4E800421 		bctrl
 6055 1b78 4BFFFF2C 		b .L594
 6056              	.LVL438:
 6057              	.L646:
 6058              	.LBE3941:
 6059              		.loc 1 254 0
 6060 1b7c 38600000 		li 3,0
 6061              	.LVL439:
 6062 1b80 4BFFFE50 		b .L644
 6063              	.LVL440:
 6064              	.L675:
 6065              	.LBB3942:
 6066              	.LBB3937:
 6067              		.loc 4 27 0
 6068 1b84 38600278 		li 3,632
 6069 1b88 48000001 		bl _Znwj
 6070              	.LEHE90:
 6071 1b8c 7C7E1B78 		mr 30,3
 6072              	.LEHB91:
 6073 1b90 48000001 		bl _ZN11ApplicationC1Ev
 6074              	.LEHE91:
 6075 1b94 93DF0000 		stw 30,_ZN11Application8instanceE@l(31)
 6076 1b98 4BFFFEE8 		b .L603
 6077              	.L674:
 6078              	.LBE3937:
 6079              	.LBE3942:
 6080              	.LBB3943:
 6081              	.LBB3934:
 6082 1b9c 38600278 		li 3,632
 6083              	.LEHB92:
 6084 1ba0 48000001 		bl _Znwj
 6085              	.LEHE92:
 6086 1ba4 7C7E1B78 		mr 30,3
 6087              	.LEHB93:
 6088 1ba8 48000001 		bl _ZN11ApplicationC1Ev
 6089              	.LEHE93:
 6090 1bac 93DF0000 		stw 30,_ZN11Application8instanceE@l(31)
 6091 1bb0 4BFFFEB8 		b .L601
 6092              	.LVL441:
 6093              	.L678:
 6094              	.LBE3934:
 6095              	.LBE3943:
 6096              	.LBB3944:
 6097              	.LBB3927:
 6098              	.LBB3925:
 6099 1bb4 38600278 		li 3,632
 6100              	.LEHB94:
 6101 1bb8 48000001 		bl _Znwj
 6102              	.LEHE94:
 6103 1bbc 7C7D1B78 		mr 29,3
 6104              	.LEHB95:
 6105 1bc0 48000001 		bl _ZN11ApplicationC1Ev
 6106              	.LEHE95:
 6107 1bc4 93BF0000 		stw 29,_ZN11Application8instanceE@l(31)
 6108 1bc8 4BFFFF9C 		b .L597
 6109              	.L677:
 6110              	.LBE3925:
 6111              	.LBE3927:
 6112              	.LBB3928:
 6113              	.LBB3922:
 6114 1bcc 38600278 		li 3,632
 6115              	.LEHB96:
 6116 1bd0 48000001 		bl _Znwj
 6117              	.LEHE96:
 6118 1bd4 7C7D1B78 		mr 29,3
 6119              	.LEHB97:
 6120 1bd8 48000001 		bl _ZN11ApplicationC1Ev
 6121              	.LEHE97:
 6122 1bdc 93BF0000 		stw 29,_ZN11Application8instanceE@l(31)
 6123 1be0 4BFFFF6C 		b .L595
 6124              	.LVL442:
 6125              	.L664:
 6126              	.LBE3922:
 6127              	.LBE3928:
 6128              	.LBB3929:
 6129              	.LBB3901:
 6130              	.LBB3900:
 6131              	.LBB3899:
 6132              	.LBB3897:
 6133              	.LBB3890:
 6134              	.LBB3891:
 6135              	.LBB3892:
 6136              		.loc 3 66 0
 6137 1be4 8169FFFC 		lwz 11,-4(9)
 6138              	.LVL443:
 6139              	.LBE3892:
 6140              	.LBE3891:
 6141              	.LBE3890:
 6142              		.loc 2 240 0
 6143 1be8 2F8B0000 		cmpwi 7,11,0
 6144              	.LBB3895:
 6145              	.LBB3894:
 6146              	.LBB3893:
 6147              		.loc 3 67 0
 6148 1bec 396BFFFF 		addi 11,11,-1
 6149 1bf0 9169FFFC 		stw 11,-4(9)
 6150              	.LBE3893:
 6151              	.LBE3894:
 6152              	.LBE3895:
 6153              		.loc 2 240 0
 6154 1bf4 419DFC34 		bgt+ 7,.L583
 6155              		.loc 2 244 0
 6156 1bf8 3881000D 		addi 4,1,13
 6157 1bfc 48000001 		bl _ZNSs4_Rep10_M_destroyERKSaIcE
 6158              	.LVL444:
 6159 1c00 4BFFFC28 		b .L583
 6160              	.LVL445:
 6161              	.L665:
 6162              	.LBE3897:
 6163              	.LBE3899:
 6164              	.LBE3900:
 6165              	.LBE3901:
 6166              	.LBE3929:
 6167              	.LBB3930:
 6168              	.LBB3919:
 6169              	.LBB3918:
 6170              	.LBB3917:
 6171              	.LBB3916:
 6172              	.LBB3910:
 6173              	.LBB3911:
 6174              	.LBB3912:
 6175              		.loc 3 66 0
 6176 1c04 8169FFFC 		lwz 11,-4(9)
 6177              	.LVL446:
 6178              	.LBE3912:
 6179              	.LBE3911:
 6180              	.LBE3910:
 6181              		.loc 2 240 0
 6182 1c08 2F8B0000 		cmpwi 7,11,0
 6183              	.LBB3915:
 6184              	.LBB3914:
 6185              	.LBB3913:
 6186              		.loc 3 67 0
 6187 1c0c 396BFFFF 		addi 11,11,-1
 6188 1c10 9169FFFC 		stw 11,-4(9)
 6189              	.LBE3913:
 6190              	.LBE3914:
 6191              	.LBE3915:
 6192              		.loc 2 240 0
 6193 1c14 419DFC24 		bgt+ 7,.L591
 6194              		.loc 2 244 0
 6195 1c18 3881000C 		addi 4,1,12
 6196 1c1c 48000001 		bl _ZNSs4_Rep10_M_destroyERKSaIcE
 6197              	.LVL447:
 6198 1c20 4BFFFC18 		b .L591
 6199              	.LVL448:
 6200              	.L669:
 6201              	.LBE3916:
 6202              	.LBE3917:
 6203              	.LBE3918:
 6204              	.LBE3919:
 6205              	.LBE3930:
 6206              	.LBE3944:
 6207              	.LBE3949:
 6208              	.LBE3953:
 6209              	.LBE4013:
 6210              	.LBB4014:
 6211              	.LBB3974:
 6212              	.LBB3973:
 6213              	.LBB3972:
 6214              	.LBB3970:
 6215              	.LBB3963:
 6216              	.LBB3964:
 6217              	.LBB3965:
 6218              		.loc 3 66 0
 6219 1c24 8169FFFC 		lwz 11,-4(9)
 6220              	.LVL449:
 6221              	.LBE3965:
 6222              	.LBE3964:
 6223              	.LBE3963:
 6224              		.loc 2 240 0
 6225 1c28 2F8B0000 		cmpwi 7,11,0
 6226              	.LBB3968:
 6227              	.LBB3967:
 6228              	.LBB3966:
 6229              		.loc 3 67 0
 6230 1c2c 396BFFFF 		addi 11,11,-1
 6231 1c30 9169FFFC 		stw 11,-4(9)
 6232              	.LBE3966:
 6233              	.LBE3967:
 6234              	.LBE3968:
 6235              		.loc 2 240 0
 6236 1c34 419DFCE4 		bgt+ 7,.L618
 6237              		.loc 2 244 0
 6238 1c38 3881000B 		addi 4,1,11
 6239 1c3c 48000001 		bl _ZNSs4_Rep10_M_destroyERKSaIcE
 6240              	.LVL450:
 6241 1c40 4BFFFCD8 		b .L618
 6242              	.LVL451:
 6243              	.L650:
 6244 1c44 7C7F1B78 		mr 31,3
 6245              	.LVL452:
 6246              	.LBE3970:
 6247              	.LBE3972:
 6248              	.LBE3973:
 6249              	.LBE3974:
 6250              	.LBE4014:
 6251              		.loc 1 206 0
 6252 1c48 3861001C 		addi 3,1,28
 6253 1c4c 48000001 		bl _ZNSsD1Ev
 6254 1c50 7FE3FB78 		mr 3,31
 6255              	.LEHB98:
 6256 1c54 48000001 		bl _Unwind_Resume
 6257              	.LVL453:
 6258              	.L649:
 6259 1c58 7C7F1B78 		mr 31,3
 6260              		.loc 1 197 0
 6261 1c5c 38610020 		addi 3,1,32
 6262 1c60 48000001 		bl _ZNSsD1Ev
 6263 1c64 7FE3FB78 		mr 3,31
 6264 1c68 48000001 		bl _Unwind_Resume
 6265              	.LVL454:
 6266              	.L671:
 6267              	.LBB4015:
 6268              	.LBB4010:
 6269              	.LBB4009:
 6270              	.LBB4008:
 6271              	.LBB4007:
 6272              	.LBB4001:
 6273              	.LBB4002:
 6274              	.LBB4003:
 6275              		.loc 3 66 0
 6276 1c6c 8169FFFC 		lwz 11,-4(9)
 6277              	.LVL455:
 6278              	.LBE4003:
 6279              	.LBE4002:
 6280              	.LBE4001:
 6281              		.loc 2 240 0
 6282 1c70 2F8B0000 		cmpwi 7,11,0
 6283              	.LBB4006:
 6284              	.LBB4005:
 6285              	.LBB4004:
 6286              		.loc 3 67 0
 6287 1c74 396BFFFF 		addi 11,11,-1
 6288 1c78 9169FFFC 		stw 11,-4(9)
 6289              	.LBE4004:
 6290              	.LBE4005:
 6291              	.LBE4006:
 6292              		.loc 2 240 0
 6293 1c7c 419DFD14 		bgt+ 7,.L573
 6294              		.loc 2 244 0
 6295 1c80 38810009 		addi 4,1,9
 6296 1c84 48000001 		bl _ZNSs4_Rep10_M_destroyERKSaIcE
 6297              	.LVL456:
 6298 1c88 4BFFFD08 		b .L573
 6299              	.LVL457:
 6300              	.L672:
 6301              	.LBE4007:
 6302              	.LBE4008:
 6303              	.LBE4009:
 6304              	.LBE4010:
 6305              	.LBE4015:
 6306              	.LBE4022:
 6307              	.LBE4028:
 6308              	.LBE4059:
 6309              	.LBB4060:
 6310              	.LBB4053:
 6311              	.LBB4051:
 6312              	.LBB4049:
 6313              	.LBB4046:
 6314              	.LBB4038:
 6315              	.LBB4039:
 6316              	.LBB4040:
 6317              		.loc 3 66 0
 6318 1c8c 8169FFFC 		lwz 11,-4(9)
 6319              	.LVL458:
 6320              	.LBE4040:
 6321              	.LBE4039:
 6322              	.LBE4038:
 6323              		.loc 2 240 0
 6324 1c90 2F8B0000 		cmpwi 7,11,0
 6325              	.LBB4043:
 6326              	.LBB4042:
 6327              	.LBB4041:
 6328              		.loc 3 67 0
 6329 1c94 396BFFFF 		addi 11,11,-1
 6330 1c98 9169FFFC 		stw 11,-4(9)
 6331              	.LBE4041:
 6332              	.LBE4042:
 6333              	.LBE4043:
 6334              		.loc 2 240 0
 6335 1c9c 419DFD28 		bgt+ 7,.L639
 6336              		.loc 2 244 0
 6337 1ca0 38810008 		addi 4,1,8
 6338 1ca4 48000001 		bl _ZNSs4_Rep10_M_destroyERKSaIcE
 6339              	.LVL459:
 6340 1ca8 4BFFFD1C 		b .L639
 6341              	.LVL460:
 6342              	.L648:
 6343 1cac 7C7F1B78 		mr 31,3
 6344              	.LBE4046:
 6345              	.LBE4049:
 6346              	.LBE4051:
 6347              	.LBE4053:
 6348              	.LBE4060:
 6349              		.loc 1 257 0
 6350 1cb0 38610028 		addi 3,1,40
 6351 1cb4 48000001 		bl _ZNSsD1Ev
 6352 1cb8 7FE3FB78 		mr 3,31
 6353 1cbc 48000001 		bl _Unwind_Resume
 6354              	.LVL461:
 6355              	.L657:
 6356              	.L663:
 6357 1cc0 7C7F1B78 		mr 31,3
 6358              	.LBB4061:
 6359              	.LBB4029:
 6360              	.LBB4023:
 6361              	.LBB4016:
 6362              	.LBB3954:
 6363              	.LBB3950:
 6364              	.LBB3945:
 6365              	.LBB3938:
 6366              		.loc 4 27 0
 6367 1cc4 7FC3F378 		mr 3,30
 6368 1cc8 48000001 		bl _ZdlPv
 6369 1ccc 7FE3FB78 		mr 3,31
 6370 1cd0 48000001 		bl _Unwind_Resume
 6371              	.LVL462:
 6372              	.L654:
 6373              	.L662:
 6374 1cd4 7C7F1B78 		mr 31,3
 6375              	.LBE3938:
 6376              	.LBE3945:
 6377              	.LBB3946:
 6378              	.LBB3931:
 6379              	.LBB3926:
 6380 1cd8 7FA3EB78 		mr 3,29
 6381 1cdc 48000001 		bl _ZdlPv
 6382 1ce0 7FE3FB78 		mr 3,31
 6383 1ce4 48000001 		bl _Unwind_Resume
 6384              	.LVL463:
 6385              	.L656:
 6386 1ce8 4BFFFFD8 		b .L663
 6387              	.LVL464:
 6388              	.L655:
 6389 1cec 4BFFFFE8 		b .L662
 6390              	.LVL465:
 6391              	.L652:
 6392 1cf0 7C7F1B78 		mr 31,3
 6393              	.LVL466:
 6394              	.L610:
 6395              	.LBE3926:
 6396              	.LBE3931:
 6397              		.loc 1 79 0
 6398 1cf4 38610018 		addi 3,1,24
 6399 1cf8 48000001 		bl _ZNSsD1Ev
 6400 1cfc 7FE3FB78 		mr 3,31
 6401 1d00 48000001 		bl _Unwind_Resume
 6402              	.LVL467:
 6403              	.L653:
 6404 1d04 7C7F1B78 		mr 31,3
 6405              	.LVL468:
 6406 1d08 38610014 		addi 3,1,20
 6407 1d0c 48000001 		bl _ZNSsD1Ev
 6408 1d10 4BFFFFE4 		b .L610
 6409              	.LVL469:
 6410              	.L670:
 6411              	.LBE3946:
 6412              	.LBE3950:
 6413              	.LBE3954:
 6414              	.LBE4016:
 6415              	.LBB4017:
 6416              	.LBB3992:
 6417              	.LBB3991:
 6418              	.LBB3990:
 6419              	.LBB3989:
 6420              	.LBB3983:
 6421              	.LBB3984:
 6422              	.LBB3985:
 6423              		.loc 3 66 0
 6424 1d14 8169FFFC 		lwz 11,-4(9)
 6425              	.LVL470:
 6426              	.LBE3985:
 6427              	.LBE3984:
 6428              	.LBE3983:
 6429              		.loc 2 240 0
 6430 1d18 2F8B0000 		cmpwi 7,11,0
 6431              	.LBB3988:
 6432              	.LBB3987:
 6433              	.LBB3986:
 6434              		.loc 3 67 0
 6435 1d1c 396BFFFF 		addi 11,11,-1
 6436 1d20 9169FFFC 		stw 11,-4(9)
 6437              	.LBE3986:
 6438              	.LBE3987:
 6439              	.LBE3988:
 6440              		.loc 2 240 0
 6441 1d24 419DFC38 		bgt+ 7,.L627
 6442              		.loc 2 244 0
 6443 1d28 3881000A 		addi 4,1,10
 6444 1d2c 48000001 		bl _ZNSs4_Rep10_M_destroyERKSaIcE
 6445              	.LVL471:
 6446 1d30 4BFFFC2C 		b .L627
 6447              	.LVL472:
 6448              	.L651:
 6449 1d34 7C7F1B78 		mr 31,3
 6450              	.LVL473:
 6451              	.LBE3989:
 6452              	.LBE3990:
 6453              	.LBE3991:
 6454              	.LBE3992:
 6455              	.LBE4017:
 6456              		.loc 1 212 0
 6457 1d38 38610024 		addi 3,1,36
 6458              	.LVL474:
 6459 1d3c 48000001 		bl _ZNSsD1Ev
 6460              	.LVL475:
 6461 1d40 7FE3FB78 		mr 3,31
 6462 1d44 48000001 		bl _Unwind_Resume
 6463              	.LEHE98:
 6464              	.LBE4023:
 6465              	.LBE4029:
 6466              	.LBE4061:
 6467              	.LBE4072:
 6468              		.cfi_endproc
 6469              	.LFE1604:
 6470              		.section	.gcc_except_table
 6471              	.LLSDA1604:
 6472 01d3 FF       		.byte	0xff
 6473 01d4 FF       		.byte	0xff
 6474 01d5 01       		.byte	0x1
 6475 01d6 6C       		.uleb128 .LLSDACSE1604-.LLSDACSB1604
 6476              	.LLSDACSB1604:
 6477 01d7 5C       		.uleb128 .LEHB80-.LFB1604
 6478 01d8 9C01     		.uleb128 .LEHE80-.LEHB80
 6479 01da 00       		.uleb128 0
 6480 01db 00       		.uleb128 0
 6481 01dc 8402     		.uleb128 .LEHB81-.LFB1604
 6482 01de 04       		.uleb128 .LEHE81-.LEHB81
 6483 01df 800C     		.uleb128 .L652-.LFB1604
 6484 01e1 00       		.uleb128 0
 6485 01e2 9C02     		.uleb128 .LEHB82-.LFB1604
 6486 01e4 04       		.uleb128 .LEHE82-.LEHB82
 6487 01e5 940C     		.uleb128 .L653-.LFB1604
 6488 01e7 00       		.uleb128 0
 6489 01e8 D002     		.uleb128 .LEHB83-.LFB1604
 6490 01ea B801     		.uleb128 .LEHE83-.LEHB83
 6491 01ec 00       		.uleb128 0
 6492 01ed 00       		.uleb128 0
 6493 01ee 8C04     		.uleb128 .LEHB84-.LFB1604
 6494 01f0 04       		.uleb128 .LEHE84-.LEHB84
 6495 01f1 E80A     		.uleb128 .L649-.LFB1604
 6496 01f3 00       		.uleb128 0
 6497 01f4 B404     		.uleb128 .LEHB85-.LFB1604
 6498 01f6 1C       		.uleb128 .LEHE85-.LEHB85
 6499 01f7 00       		.uleb128 0
 6500 01f8 00       		.uleb128 0
 6501 01f9 D804     		.uleb128 .LEHB86-.LFB1604
 6502 01fb 04       		.uleb128 .LEHE86-.LEHB86
 6503 01fc D40A     		.uleb128 .L650-.LFB1604
 6504 01fe 00       		.uleb128 0
 6505 01ff FC04     		.uleb128 .LEHB87-.LFB1604
 6506 0201 0C       		.uleb128 .LEHE87-.LEHB87
 6507 0202 C40C     		.uleb128 .L651-.LFB1604
 6508 0204 00       		.uleb128 0
 6509 0205 AC05     		.uleb128 .LEHB88-.LFB1604
 6510 0207 04       		.uleb128 .LEHE88-.LEHB88
 6511 0208 00       		.uleb128 0
 6512 0209 00       		.uleb128 0
 6513 020a B405     		.uleb128 .LEHB89-.LFB1604
 6514 020c 04       		.uleb128 .LEHE89-.LEHB89
 6515 020d BC0B     		.uleb128 .L648-.LFB1604
 6516 020f 00       		.uleb128 0
 6517 0210 A406     		.uleb128 .LEHB90-.LFB1604
 6518 0212 F802     		.uleb128 .LEHE90-.LEHB90
 6519 0214 00       		.uleb128 0
 6520 0215 00       		.uleb128 0
 6521 0216 A009     		.uleb128 .LEHB91-.LFB1604
 6522 0218 04       		.uleb128 .LEHE91-.LEHB91
 6523 0219 D00B     		.uleb128 .L657-.LFB1604
 6524 021b 00       		.uleb128 0
 6525 021c B009     		.uleb128 .LEHB92-.LFB1604
 6526 021e 04       		.uleb128 .LEHE92-.LEHB92
 6527 021f 00       		.uleb128 0
 6528 0220 00       		.uleb128 0
 6529 0221 B809     		.uleb128 .LEHB93-.LFB1604
 6530 0223 04       		.uleb128 .LEHE93-.LEHB93
 6531 0224 F80B     		.uleb128 .L656-.LFB1604
 6532 0226 00       		.uleb128 0
 6533 0227 C809     		.uleb128 .LEHB94-.LFB1604
 6534 0229 04       		.uleb128 .LEHE94-.LEHB94
 6535 022a 00       		.uleb128 0
 6536 022b 00       		.uleb128 0
 6537 022c D009     		.uleb128 .LEHB95-.LFB1604
 6538 022e 04       		.uleb128 .LEHE95-.LEHB95
 6539 022f FC0B     		.uleb128 .L655-.LFB1604
 6540 0231 00       		.uleb128 0
 6541 0232 E009     		.uleb128 .LEHB96-.LFB1604
 6542 0234 04       		.uleb128 .LEHE96-.LEHB96
 6543 0235 00       		.uleb128 0
 6544 0236 00       		.uleb128 0
 6545 0237 E809     		.uleb128 .LEHB97-.LFB1604
 6546 0239 04       		.uleb128 .LEHE97-.LEHB97
 6547 023a E40B     		.uleb128 .L654-.LFB1604
 6548 023c 00       		.uleb128 0
 6549 023d E40A     		.uleb128 .LEHB98-.LFB1604
 6550 023f F401     		.uleb128 .LEHE98-.LEHB98
 6551 0241 00       		.uleb128 0
 6552 0242 00       		.uleb128 0
 6553              	.LLSDACSE1604:
 6554              		.section	".text"
 6555              		.size	_ZN9ChangeLog4ShowEv, .-_ZN9ChangeLog4ShowEv
 6556              		.globl _ZN9ChangeLogC1EP12UpdateWindow
 6557              		.set	_ZN9ChangeLogC1EP12UpdateWindow,_ZN9ChangeLogC2EP12UpdateWindow
 6558              		.section	.rodata.str1.4,"aMS",@progbits,1
 6559              		.align 2
 6560              	.LC0:
 6561 0000 2667743B 		.string	"&gt;"
 6561      00
 6562 0005 000000   		.zero	3
 6563              	.LC1:
 6564 0008 3E00     		.string	">"
 6565 000a 0000     		.zero	2
 6566              	.LC2:
 6567 000c 266C743B 		.string	"&lt;"
 6567      00
 6568 0011 000000   		.zero	3
 6569              	.LC3:
 6570 0014 3C00     		.string	"<"
 6571 0016 0000     		.zero	2
 6572              	.LC4:
 6573 0018 2671756F 		.string	"&quot;"
 6573      743B00
 6574 001f 00       		.zero	1
 6575              	.LC5:
 6576 0020 2200     		.string	"\""
 6577 0022 0000     		.zero	2
 6578              	.LC6:
 6579 0024 2661706F 		.string	"&apos;"
 6579      733B00
 6580 002b 00       		.zero	1
 6581              	.LC7:
 6582 002c 2700     		.string	"'"
 6583 002e 0000     		.zero	2
 6584              	.LC8:
 6585 0030 26616D70 		.string	"&amp;"
 6585      3B00
 6586 0036 0000     		.zero	2
 6587              	.LC9:
 6588 0038 2600     		.string	"&"
 6589 003a 0000     		.zero	2
 6590              	.LC10:
 6591 003c 68747470 		.string	"http://code.google.com/p/savegame-manager-gx/source/detail?r=%i"
 6591      3A2F2F63 
 6591      6F64652E 
 6591      676F6F67 
 6591      6C652E63 
 6592              	.LC11:
 6593 007c 3C707265 		.string	"<pre class=\"wrap\" style=\"margin-left:1em\">"
 6593      20636C61 
 6593      73733D22 
 6593      77726170 
 6593      22207374 
 6594 00a7 00       		.zero	1
 6595              	.LC12:
 6596 00a8 3C2F7072 		.string	"</pre>"
 6596      653E00
 6597 00af 00       		.zero	1
 6598              	.LC13:
 6599 00b0 52657669 		.string	"Revision: %i\n"
 6599      73696F6E 
 6599      3A202569 
 6599      0A00
 6600 00be 0000     		.zero	2
 6601              	.LC14:
 6602 00c0 52657669 		.string	"Revision %i"
 6602      73696F6E 
 6602      20256900 
 6603              	.LC15:
 6604 00cc 47657474 		.string	"Getting Changelog..."
 6604      696E6720 
 6604      4368616E 
 6604      67656C6F 
 6604      672E2E2E 
 6605 00e1 000000   		.zero	3
 6606              	.LC16:
 6607 00e4 0A0A00   		.string	"\n\n"
 6608 00e7 00       		.zero	1
 6609              	.LC17:
 6610 00e8 25732F53 		.string	"%s/SaveGame_Manager_GX.log"
 6610      61766547 
 6610      616D655F 
 6610      4D616E61 
 6610      6765725F 
 6611 0103 00       		.zero	1
 6612              	.LC18:
 6613 0104 776200   		.string	"wb"
 6614 0107 00       		.zero	1
 6615              	.LC19:
 6616 0108 726200   		.string	"rb"
 6617              		.section	".text"
 6618              	.Letext0:
 6619              		.file 5 "d:\\devkitpro\\devkitppc\\bin\\../lib/gcc/powerpc-eabi/4.6.3/../../../../powerpc-eabi/inc
 6620              		.file 6 "d:\\devkitpro\\devkitppc\\bin\\../lib/gcc/powerpc-eabi/4.6.3/../../../../powerpc-eabi/inc
 6621              		.file 7 "d:\\devkitpro\\devkitppc\\bin\\../lib/gcc/powerpc-eabi/4.6.3/include/stddef.h"
 6622              		.file 8 "d:\\devkitpro\\devkitppc\\bin\\../lib/gcc/powerpc-eabi/4.6.3/../../../../powerpc-eabi/inc
 6623              		.file 9 "d:\\devkitpro\\devkitppc\\bin\\../lib/gcc/powerpc-eabi/4.6.3/../../../../powerpc-eabi/inc
 6624              		.file 10 "d:\\devkitpro\\devkitppc\\bin\\../lib/gcc/powerpc-eabi/4.6.3/../../../../powerpc-eabi/in
 6625              		.file 11 "d:/devkitPro/libogc/include/gctypes.h"
 6626              		.file 12 "d:/devkitPro/libogc/include/ogc/gx.h"
 6627              		.file 13 "d:\\devkitpro\\devkitppc\\bin\\../lib/gcc/powerpc-eabi/4.6.3/../../../../powerpc-eabi/in
 6628              		.file 14 "<built-in>"
 6629              		.file 15 "d:\\devkitpro\\devkitppc\\bin\\../lib/gcc/powerpc-eabi/4.6.3/../../../../powerpc-eabi/in
 6630              		.file 16 "d:\\devkitpro\\devkitppc\\bin\\../lib/gcc/powerpc-eabi/4.6.3/../../../../powerpc-eabi/in
 6631              		.file 17 "d:\\devkitpro\\devkitppc\\bin\\../lib/gcc/powerpc-eabi/4.6.3/../../../../powerpc-eabi/in
 6632              		.file 18 "d:\\devkitpro\\devkitppc\\bin\\../lib/gcc/powerpc-eabi/4.6.3/../../../../powerpc-eabi/in
 6633              		.file 19 "d:\\devkitpro\\devkitppc\\bin\\../lib/gcc/powerpc-eabi/4.6.3/../../../../powerpc-eabi/in
 6634              		.file 20 "d:\\devkitpro\\devkitppc\\bin\\../lib/gcc/powerpc-eabi/4.6.3/../../../../powerpc-eabi/in
 6635              		.file 21 "d:\\devkitpro\\devkitppc\\bin\\../lib/gcc/powerpc-eabi/4.6.3/../../../../powerpc-eabi/in
 6636              		.file 22 "d:\\devkitpro\\devkitppc\\bin\\../lib/gcc/powerpc-eabi/4.6.3/../../../../powerpc-eabi/in
 6637              		.file 23 "d:\\devkitpro\\devkitppc\\bin\\../lib/gcc/powerpc-eabi/4.6.3/../../../../powerpc-eabi/in
 6638              		.file 24 "d:\\devkitpro\\devkitppc\\bin\\../lib/gcc/powerpc-eabi/4.6.3/../../../../powerpc-eabi/in
 6639              		.file 25 "d:\\devkitpro\\devkitppc\\bin\\../lib/gcc/powerpc-eabi/4.6.3/../../../../powerpc-eabi/in
 6640              		.file 26 "d:\\devkitpro\\devkitppc\\bin\\../lib/gcc/powerpc-eabi/4.6.3/../../../../powerpc-eabi/in
 6641              		.file 27 "d:\\devkitpro\\devkitppc\\bin\\../lib/gcc/powerpc-eabi/4.6.3/../../../../powerpc-eabi/in
 6642              		.file 28 "d:\\devkitpro\\devkitppc\\bin\\../lib/gcc/powerpc-eabi/4.6.3/../../../../powerpc-eabi/in
 6643              		.file 29 "d:\\devkitpro\\devkitppc\\bin\\../lib/gcc/powerpc-eabi/4.6.3/../../../../powerpc-eabi/in
 6644              		.file 30 "d:\\devkitpro\\devkitppc\\bin\\../lib/gcc/powerpc-eabi/4.6.3/../../../../powerpc-eabi/in
 6645              		.file 31 "d:\\devkitpro\\devkitppc\\bin\\../lib/gcc/powerpc-eabi/4.6.3/../../../../powerpc-eabi/in
 6646              		.file 32 "d:\\devkitpro\\devkitppc\\bin\\../lib/gcc/powerpc-eabi/4.6.3/../../../../powerpc-eabi/in
 6647              		.file 33 "d:\\devkitpro\\devkitppc\\bin\\../lib/gcc/powerpc-eabi/4.6.3/../../../../powerpc-eabi/in
 6648              		.file 34 "d:\\devkitpro\\devkitppc\\bin\\../lib/gcc/powerpc-eabi/4.6.3/../../../../powerpc-eabi/in
 6649              		.file 35 "d:\\devkitpro\\devkitppc\\bin\\../lib/gcc/powerpc-eabi/4.6.3/../../../../powerpc-eabi/in
 6650              		.file 36 "d:/Projects/SaveGameManager/savegame-manager-gx/trunk/source/Network/../Controls/../GUI/
 6651              		.file 37 "d:/Projects/SaveGameManager/savegame-manager-gx/trunk/source/Network/../Controls/../GUI/
 6652              		.file 38 "d:/Projects/SaveGameManager/savegame-manager-gx/trunk/source/Network/../Controls/../GUI/
 6653              		.file 39 "d:/Projects/SaveGameManager/savegame-manager-gx/trunk/source/Network/../Controls/../GUI/
 6654              		.file 40 "d:/Projects/SaveGameManager/savegame-manager-gx/trunk/source/Network/../Controls/../GUI/
 6655              		.file 41 "d:\\devkitpro\\devkitppc\\bin\\../lib/gcc/powerpc-eabi/4.6.3/../../../../powerpc-eabi/in
 6656              		.file 42 "d:/Projects/SaveGameManager/savegame-manager-gx/trunk/source/Network/../Controls/../GUI/
 6657              		.file 43 "d:\\devkitpro\\devkitppc\\bin\\../lib/gcc/powerpc-eabi/4.6.3/../../../../powerpc-eabi/in
 6658              		.file 44 "d:\\devkitpro\\devkitppc\\bin\\../lib/gcc/powerpc-eabi/4.6.3/../../../../powerpc-eabi/in
 6659              		.file 45 "d:\\devkitpro\\devkitppc\\bin\\../lib/gcc/powerpc-eabi/4.6.3/../../../../powerpc-eabi/in
 6660              		.file 46 "d:/Projects/SaveGameManager/savegame-manager-gx/trunk/source/Network/HTML_Stream.h"
 6661              		.file 47 "d:/Projects/SaveGameManager/savegame-manager-gx/trunk/source/Network/ChangeLog.h"
 6662              		.file 48 "d:\\devkitpro\\devkitppc\\bin\\../lib/gcc/powerpc-eabi/4.6.3/../../../../powerpc-eabi/in
 6663              		.file 49 "d:\\devkitpro\\devkitppc\\bin\\../lib/gcc/powerpc-eabi/4.6.3/../../../../powerpc-eabi/in
 6664              		.file 50 "d:/Projects/SaveGameManager/savegame-manager-gx/trunk/source/Network/../Prompts/UpdateWi