	.file	"CLangList.cpp"
	.section	".text"
.Ltext0:
	.align 2
	.globl _ZN9CLangList11GetFilenameEi
	.type	_ZN9CLangList11GetFilenameEi, @function
_ZN9CLangList11GetFilenameEi:
.LFB511:
	.file 1 "d:/Projects/SaveGameManager/savegame-manager-gx/trunk/source/Language/CLangList.cpp"
	.loc 1 42 0
	.cfi_startproc
.LVL0:
	.loc 1 43 0
	cmpwi 0,4,0
	.loc 1 42 0
	mflr 0
	stwu 1,-8(1)
.LCFI0:
	.cfi_def_cfa_offset 8
	.cfi_register 65, 0
	stw 0,12(1)
	.loc 1 43 0
	blt- 0,.L6
	.cfi_offset 65, 4
	.loc 1 108 0 discriminator 2
	lwz 9,0(3)
.LBB530:
.LBB531:
	.file 2 "d:\\devkitpro\\devkitppc\\bin\\../lib/gcc/powerpc-eabi/4.6.3/../../../../powerpc-eabi/include/c++/4.6.3/bits/stl_vector.h"
	.loc 2 571 0 discriminator 2
	lwz 0,4(3)
.LBE531:
.LBE530:
	.loc 1 44 0 discriminator 2
	li 3,0
.LVL1:
.LBB533:
.LBB532:
	.loc 2 571 0 discriminator 2
	subf 0,9,0
	srawi 0,0,2
.LBE532:
.LBE533:
	.loc 1 43 0 discriminator 2
	cmpw 7,4,0
	bge- 7,.L2
.LVL2:
.LBB534:
.LBB535:
.LBB536:
	.loc 2 718 0
	cmplw 7,4,0
	bge- 7,.L11
.LVL3:
.LBE536:
.LBE535:
.LBE534:
	.loc 1 46 0
	slwi 4,4,2
.LVL4:
	lwzx 9,9,4
	lwz 3,0(9)
.LVL5:
.L2:
	.loc 1 47 0
	lwz 0,12(1)
	addi 1,1,8
	.cfi_remember_state
.LCFI1:
	.cfi_def_cfa_offset 0
	mtlr 0
	blr
.LVL6:
.L6:
.LCFI2:
	.cfi_restore_state
	lwz 0,12(1)
	.loc 1 44 0
	li 3,0
.LVL7:
	.loc 1 47 0
	addi 1,1,8
	.cfi_remember_state
.LCFI3:
	.cfi_def_cfa_offset 0
	mtlr 0
	blr
.LVL8:
.L11:
.LCFI4:
	.cfi_restore_state
.LBB539:
.LBB538:
.LBB537:
	.loc 2 719 0
	lis 3,.LC0@ha
	la 3,.LC0@l(3)
	bl _ZSt20__throw_out_of_rangePKc
.LVL9:
.LVL10:
.LVL11:
.LBE537:
.LBE538:
.LBE539:
	.cfi_endproc
.LFE511:
	.size	_ZN9CLangList11GetFilenameEi, .-_ZN9CLangList11GetFilenameEi
	.align 2
	.globl _ZN9CLangList6NeededEi
	.type	_ZN9CLangList6NeededEi, @function
_ZN9CLangList6NeededEi:
.LFB512:
	.loc 1 50 0
	.cfi_startproc
.LVL12:
	.loc 1 51 0
	cmpwi 0,4,0
	.loc 1 50 0
	mflr 0
	stwu 1,-8(1)
.LCFI5:
	.cfi_def_cfa_offset 8
	.cfi_register 65, 0
	stw 0,12(1)
	.loc 1 51 0
	blt- 0,.L17
	.cfi_offset 65, 4
	.loc 1 108 0 discriminator 2
	lwz 9,0(3)
.LBB550:
.LBB551:
	.loc 2 571 0 discriminator 2
	lwz 0,4(3)
.LBE551:
.LBE550:
	.loc 1 52 0 discriminator 2
	li 3,0
.LVL13:
.LBB553:
.LBB552:
	.loc 2 571 0 discriminator 2
	subf 0,9,0
	srawi 0,0,2
.LBE552:
.LBE553:
	.loc 1 51 0 discriminator 2
	cmpw 7,4,0
	bge- 7,.L13
.LVL14:
.LBB554:
.LBB555:
.LBB556:
	.loc 2 718 0
	cmplw 7,4,0
	bge- 7,.L21
.LVL15:
.LBE556:
.LBE555:
.LBE554:
	.loc 1 54 0
	slwi 4,4,2
.LVL16:
	lwzx 9,9,4
	lbz 3,4(9)
.LVL17:
.L13:
	.loc 1 55 0
	lwz 0,12(1)
	addi 1,1,8
	.cfi_remember_state
.LCFI6:
	.cfi_def_cfa_offset 0
	mtlr 0
	blr
.LVL18:
.L17:
.LCFI7:
	.cfi_restore_state
	lwz 0,12(1)
	.loc 1 52 0
	li 3,0
.LVL19:
	.loc 1 55 0
	addi 1,1,8
	.cfi_remember_state
.LCFI8:
	.cfi_def_cfa_offset 0
	mtlr 0
	blr
.LVL20:
.L21:
.LCFI9:
	.cfi_restore_state
.LBB559:
.LBB558:
.LBB557:
	.loc 2 719 0
	lis 3,.LC0@ha
	la 3,.LC0@l(3)
	bl _ZSt20__throw_out_of_rangePKc
.LVL21:
.LVL22:
.LVL23:
.LBE557:
.LBE558:
.LBE559:
	.cfi_endproc
.LFE512:
	.size	_ZN9CLangList6NeededEi, .-_ZN9CLangList6NeededEi
	.align 2
	.globl _ZN9CLangList9SetNeededEib
	.type	_ZN9CLangList9SetNeededEib, @function
_ZN9CLangList9SetNeededEib:
.LFB513:
	.loc 1 58 0
	.cfi_startproc
.LVL24:
	.loc 1 59 0
	cmpwi 0,4,0
	.loc 1 58 0
	mflr 0
	stwu 1,-8(1)
.LCFI10:
	.cfi_def_cfa_offset 8
	.cfi_register 65, 0
	stw 0,12(1)
	.loc 1 59 0
	blt- 0,.L22
	.cfi_offset 65, 4
	.loc 1 108 0 discriminator 2
	lwz 9,0(3)
.LBB570:
.LBB571:
	.loc 2 571 0 discriminator 2
	lwz 0,4(3)
	subf 0,9,0
	srawi 0,0,2
.LBE571:
.LBE570:
	.loc 1 59 0 discriminator 2
	cmpw 7,4,0
	bge- 7,.L22
.LVL25:
.LBB572:
.LBB573:
.LBB574:
	.loc 2 718 0
	cmplw 7,4,0
	bge- 7,.L29
.LVL26:
.LBE574:
.LBE573:
.LBE572:
	.loc 1 62 0
	slwi 4,4,2
.LVL27:
	lwzx 9,9,4
	stb 5,4(9)
.LVL28:
.L22:
	.loc 1 63 0
	lwz 0,12(1)
	addi 1,1,8
	.cfi_remember_state
.LCFI11:
	.cfi_def_cfa_offset 0
	mtlr 0
	blr
.LVL29:
.L29:
.LCFI12:
	.cfi_restore_state
.LBB577:
.LBB576:
.LBB575:
	.loc 2 719 0
	lis 3,.LC0@ha
.LVL30:
	la 3,.LC0@l(3)
	bl _ZSt20__throw_out_of_rangePKc
.LVL31:
.LVL32:
.LVL33:
.LVL34:
.LBE575:
.LBE576:
.LBE577:
	.cfi_endproc
.LFE513:
	.size	_ZN9CLangList9SetNeededEib, .-_ZN9CLangList9SetNeededEib
	.align 2
	.globl _ZN9CLangList5ResetEv
	.type	_ZN9CLangList5ResetEv, @function
_ZN9CLangList5ResetEv:
.LFB514:
	.loc 1 66 0
	.cfi_startproc
.LVL35:
	mflr 0
	stwu 1,-24(1)
.LCFI13:
	.cfi_def_cfa_offset 24
	.cfi_register 65, 0
	stw 30,16(1)
	mr 30,3
	.cfi_offset 30, -8
	stw 0,28(1)
	stw 29,12(1)
.LBB610:
	.loc 1 108 0
	lwz 9,0(3)
.LBB611:
.LBB612:
	.loc 2 571 0
	lwz 0,4(3)
	.cfi_offset 29, -12
	.cfi_offset 65, 4
.LBE612:
.LBE611:
.LBE610:
	.loc 1 66 0
	stw 31,20(1)
.LBB625:
.LBB615:
.LBB613:
	.loc 2 571 0
	subf 0,9,0
.LBE613:
.LBE615:
	.loc 1 67 0
	srwi. 11,0,2
	beq- 0,.L31
	.cfi_offset 31, -4
	li 31,0
.LVL36:
.L33:
	.loc 1 65 0
	slwi 29,31,2
	.loc 1 69 0
	lwzx 9,9,29
	lwz 3,0(9)
	bl free
.LVL37:
.LBB616:
.LBB617:
	.loc 1 108 0
	lwz 9,0(30)
.LBB618:
.LBB619:
.LBB620:
	.loc 2 571 0
	lwz 0,4(30)
	subf 0,9,0
	srawi 0,0,2
.LBE620:
.LBE619:
	.loc 2 718 0
	cmplw 7,31,0
	bge- 7,.L35
.LBE618:
.LBE617:
.LBE616:
	.loc 1 70 0
	lwzx 3,9,29
	.loc 1 67 0
	addi 31,31,1
.LVL38:
	.loc 1 70 0
	bl _ZdlPv
.LVL39:
	.loc 1 108 0
	lwz 9,0(30)
.LBB623:
.LBB614:
	.loc 2 571 0
	lwz 0,4(30)
	subf 0,9,0
	srawi 0,0,2
.LBE614:
.LBE623:
	.loc 1 67 0
	cmplw 7,31,0
	blt+ 7,.L33
.LVL40:
.L31:
.LBE625:
	.loc 1 74 0
	lwz 0,28(1)
.LBB626:
.LBB627:
.LBB628:
	.loc 2 1256 0
	stw 9,4(30)
.LBE628:
.LBE627:
.LBE626:
	.loc 1 74 0
	mtlr 0
	lwz 29,12(1)
	lwz 30,16(1)
.LVL41:
	lwz 31,20(1)
	addi 1,1,24
	.cfi_remember_state
.LCFI14:
	.cfi_def_cfa_offset 0
	.cfi_restore 31
	.cfi_restore 30
	.cfi_restore 29
	blr
.LVL42:
.L35:
.LCFI15:
	.cfi_restore_state
.LBB629:
.LBB624:
.LBB622:
.LBB621:
	.loc 2 719 0
	lis 3,.LC0@ha
	la 3,.LC0@l(3)
	bl _ZSt20__throw_out_of_rangePKc
.LBE621:
.LBE622:
.LBE624:
.LBE629:
	.cfi_endproc
.LFE514:
	.size	_ZN9CLangList5ResetEv, .-_ZN9CLangList5ResetEv
	.align 2
	.type	_Z41__static_initialization_and_destruction_0ii.constprop.25, @function
_Z41__static_initialization_and_destruction_0ii.constprop.25:
.LFB624:
	.loc 1 108 0
	.cfi_startproc
	.cfi_personality 0,__gxx_personality_v0
	.cfi_lsda 0,.LLSDA624
.LVL43:
	cmpwi 7,3,1
	mflr 0
	stwu 1,-16(1)
.LCFI16:
	.cfi_def_cfa_offset 16
	.cfi_register 65, 0
	stw 0,20(1)
	stw 31,12(1)
	.loc 1 108 0
	beq- 7,.L57
	.cfi_offset 31, -4
	.cfi_offset 65, 4
	.loc 1 30 0
	cmpwi 7,3,0
	bne- 7,.L36
.LVL44:
.LBB700:
.LBB701:
.LBB702:
	lis 31,.LANCHOR0@ha
	.file 3 "d:/Projects/SaveGameManager/savegame-manager-gx/trunk/source/Language/CLangList.hpp"
	.loc 3 47 0
	la 3,.LANCHOR0@l(31)
.LVL45:
.LEHB0:
	bl _ZN9CLangList5ResetEv
.LEHE0:
.LVL46:
.LBE702:
.LBE701:
.LBE700:
.LBB713:
.LBB714:
.LBB715:
.LBB716:
.LBB717:
	.loc 1 108 0
	lwz 3,.LANCHOR0@l(31)
.LVL47:
.LBB718:
.LBB719:
.LBB720:
.LBB721:
.LBB722:
	.loc 2 155 0
	cmpwi 7,3,0
	beq- 7,.L36
.LVL48:
.LBB723:
.LBB724:
	.file 4 "d:\\devkitpro\\devkitppc\\bin\\../lib/gcc/powerpc-eabi/4.6.3/../../../../powerpc-eabi/include/c++/4.6.3/ext/new_allocator.h"
	.loc 4 98 0
	bl _ZdlPv
.LVL49:
.L36:
.LBE724:
.LBE723:
.LBE722:
.LBE721:
.LBE720:
.LBE719:
.LBE718:
.LBE717:
.LBE716:
.LBE715:
.LBE714:
.LBE713:
	.loc 1 108 0
	lwz 0,20(1)
	lwz 31,12(1)
	mtlr 0
	addi 1,1,16
	.cfi_remember_state
.LCFI17:
	.cfi_def_cfa_offset 0
	.cfi_restore 31
	blr
.LVL50:
.L57:
.LCFI18:
	.cfi_restore_state
.LBB725:
.LBB726:
.LBB727:
.LBB728:
.LBB729:
	.loc 2 83 0
	lis 11,.LANCHOR0@ha
	li 0,0
	la 9,.LANCHOR0@l(11)
	stw 0,.LANCHOR0@l(11)
	stw 0,4(9)
	stw 0,8(9)
	b .L36
.LVL51:
.L56:
.LBE729:
.LBE728:
.LBE727:
.LBE726:
.LBE725:
.LBB730:
.LBB712:
.LBB711:
.LBB703:
	.loc 1 108 0
	lwz 0,.LANCHOR0@l(31)
	mr 31,3
.LVL52:
.LBB704:
.LBB705:
.LBB706:
.LBB707:
.LBB708:
	.loc 2 155 0
	cmpwi 7,0,0
	beq- 7,.L44
.LVL53:
.LBB709:
.LBB710:
	.loc 4 98 0
	mr 3,0
	bl _ZdlPv
.LVL54:
.L44:
	mr 3,31
.LEHB1:
	bl _Unwind_Resume
.LEHE1:
.LBE710:
.LBE709:
.LBE708:
.LBE707:
.LBE706:
.LBE705:
.LBE704:
.LBE703:
.LBE711:
.LBE712:
.LBE730:
	.cfi_endproc
.LFE624:
	.globl __gxx_personality_v0
	.section	.gcc_except_table,"a",@progbits
.LLSDA624:
	.byte	0xff
	.byte	0xff
	.byte	0x1
	.uleb128 .LLSDACSE624-.LLSDACSB624
.LLSDACSB624:
	.uleb128 .LEHB0-.LFB624
	.uleb128 .LEHE0-.LEHB0
	.uleb128 .L56-.LFB624
	.uleb128 0
	.uleb128 .LEHB1-.LFB624
	.uleb128 .LEHE1-.LEHB1
	.uleb128 0
	.uleb128 0
.LLSDACSE624:
	.section	".text"
	.size	_Z41__static_initialization_and_destruction_0ii.constprop.25, .-_Z41__static_initialization_and_destruction_0ii.constprop.25
	.section	.text._ZNSt6vectorIP11_LangStructSaIS1_EE13_M_insert_auxEN9__gnu_cxx17__normal_iteratorIPS1_S3_EERKS1_,"axG",@progbits,_ZNSt6vectorIP11_LangStructSaIS1_EE13_M_insert_auxEN9__gnu_cxx17__normal_iteratorIPS1_S3_EERKS1_,comdat
	.align 2
	.weak	_ZNSt6vectorIP11_LangStructSaIS1_EE13_M_insert_auxEN9__gnu_cxx17__normal_iteratorIPS1_S3_EERKS1_
	.type	_ZNSt6vectorIP11_LangStructSaIS1_EE13_M_insert_auxEN9__gnu_cxx17__normal_iteratorIPS1_S3_EERKS1_, @function
_ZNSt6vectorIP11_LangStructSaIS1_EE13_M_insert_auxEN9__gnu_cxx17__normal_iteratorIPS1_S3_EERKS1_:
.LFB542:
	.file 5 "d:\\devkitpro\\devkitppc\\bin\\../lib/gcc/powerpc-eabi/4.6.3/../../../../powerpc-eabi/include/c++/4.6.3/bits/vector.tcc"
	.loc 5 300 0
	.cfi_startproc
.LVL55:
	mflr 0
	stwu 1,-40(1)
.LCFI19:
	.cfi_def_cfa_offset 40
	.cfi_register 65, 0
	stw 28,24(1)
	stw 0,44(1)
	stw 30,32(1)
.LBB731:
	.loc 5 304 0
	lwz 28,4(3)
	.cfi_offset 30, -8
	.cfi_offset 65, 4
	.cfi_offset 28, -16
	lwz 0,8(3)
.LBE731:
	.loc 5 300 0
	stw 31,36(1)
	mr 31,3
	.cfi_offset 31, -4
.LBB878:
	.loc 5 304 0
	cmpw 7,28,0
.LBE878:
	.loc 5 300 0
	stw 26,16(1)
	stw 27,20(1)
	stw 29,28(1)
	.loc 5 300 0
	lwz 30,0(4)
.LVL56:
.LBB879:
	.loc 5 304 0
	beq- 7,.L59
	.cfi_offset 29, -12
	.cfi_offset 27, -20
	.cfi_offset 26, -24
.LVL57:
.LBB732:
.LBB733:
.LBB734:
	.loc 4 108 0
	cmpwi 7,28,0
	li 3,0
.LVL58:
	beq- 7,.L60
	lwz 0,-4(28)
	stw 0,0(28)
	lwz 3,4(31)
.L60:
.LBE734:
.LBE733:
	.loc 5 313 0
	addi 0,3,-4
	.loc 5 309 0
	addi 9,3,4
.LBB735:
.LBB736:
.LBB737:
.LBB738:
.LBB739:
.LBB740:
	.file 6 "d:\\devkitpro\\devkitppc\\bin\\../lib/gcc/powerpc-eabi/4.6.3/../../../../powerpc-eabi/include/c++/4.6.3/bits/stl_algobase.h"
	.loc 6 559 0
	subf 0,30,0
.LBE740:
.LBE739:
.LBE738:
.LBE737:
.LBE736:
.LBE735:
	.loc 5 309 0
	stw 9,4(31)
.LBB756:
.LBB753:
.LBB750:
.LBB747:
.LBB744:
.LBB741:
	.loc 6 560 0
	srawi. 0,0,2
.LBE741:
.LBE744:
.LBE747:
.LBE750:
.LBE753:
.LBE756:
	.loc 5 311 0
	lwz 31,0(5)
.LVL59:
.LBB757:
.LBB754:
.LBB751:
.LBB748:
.LBB745:
.LBB742:
	.loc 6 560 0
	bne- 0,.L75
.LVL60:
.L61:
.LBE742:
.LBE745:
.LBE748:
.LBE751:
.LBE754:
.LBE757:
.LBE732:
.LBE879:
	.loc 5 373 0
	lwz 0,44(1)
.LBB880:
.LBB759:
	.loc 5 317 0
	stw 31,0(30)
.LBE759:
.LBE880:
	.loc 5 373 0
	mtlr 0
	lwz 26,16(1)
	lwz 27,20(1)
	lwz 28,24(1)
.LVL61:
	lwz 29,28(1)
	lwz 30,32(1)
.LVL62:
	lwz 31,36(1)
.LVL63:
	addi 1,1,40
	.cfi_remember_state
.LCFI20:
	.cfi_def_cfa_offset 0
	.cfi_restore 31
	.cfi_restore 30
	.cfi_restore 29
	.cfi_restore 28
	.cfi_restore 27
	.cfi_restore 26
	blr
.LVL64:
.L75:
.LCFI21:
	.cfi_restore_state
.LBB881:
.LBB760:
.LBB758:
.LBB755:
.LBB752:
.LBB749:
.LBB746:
.LBB743:
	.loc 6 561 0
	slwi 5,0,2
.LVL65:
	mr 4,30
	subf 3,5,3
.LVL66:
	bl memmove
.LVL67:
	b .L61
.LVL68:
.L59:
.LBE743:
.LBE746:
.LBE749:
.LBE752:
.LBE755:
.LBE758:
.LBE760:
.LBB761:
.LBB762:
.LBB763:
.LBB764:
.LBB765:
	.loc 2 571 0
	lwz 27,0(3)
	subf 28,27,28
.LBE765:
.LBE764:
.LBB766:
.LBB767:
	.loc 6 215 0
	srawi. 28,28,2
	beq- 0,.L63
.LBE767:
.LBE766:
	.loc 2 1244 0
	slwi 0,28,1
.LVL69:
	.loc 2 1245 0
	cmplw 7,28,0
	ble- 7,.L76
.L64:
.LVL70:
.LBE763:
.LBE762:
.LBB770:
.LBB771:
	.file 7 "d:\\devkitpro\\devkitppc\\bin\\../lib/gcc/powerpc-eabi/4.6.3/../../../../powerpc-eabi/include/c++/4.6.3/bits/stl_iterator.h"
	.loc 7 892 0
	subf 27,27,30
.LBE771:
.LBE770:
	.loc 5 326 0
	li 28,-4
.LBB777:
.LBB772:
	.loc 7 892 0
	srawi 27,27,2
.LVL71:
.L70:
.LBE772:
.LBE777:
.LBB778:
.LBB779:
.LBB780:
.LBB781:
	.loc 4 92 0
	mr 3,28
.LVL72:
	stw 5,8(1)
	bl _Znwj
.LVL73:
	lwz 5,8(1)
	mr 29,3
.L65:
.LVL74:
.LBE781:
.LBE780:
.LBE779:
.LBE778:
	.loc 5 335 0
	slwi 27,27,2
.LVL75:
	add 0,29,27
.LVL76:
.LBB784:
.LBB785:
	.loc 4 108 0
	cmpwi 7,0,0
	beq- 7,.L66
	lwz 0,0(5)
.LVL77:
	stwx 0,29,27
.L66:
.LVL78:
.LBE785:
.LBE784:
	.loc 5 343 0
	lwz 4,0(31)
.LVL79:
.LBB786:
.LBB787:
.LBB788:
.LBB789:
.LBB790:
.LBB791:
.LBB792:
.LBB793:
.LBB794:
.LBB795:
.LBB796:
	.loc 6 365 0
	li 27,0
	.loc 6 364 0
	subf 0,4,30
.LVL80:
	.loc 6 365 0
	srawi. 0,0,2
.LVL81:
	bne- 0,.L77
.LVL82:
.L67:
.LBE796:
.LBE795:
.LBE794:
.LBE793:
.LBE792:
.LBE791:
.LBE790:
.LBE789:
.LBE788:
.LBE787:
.LBE786:
.LBB817:
.LBB818:
.LBB819:
.LBB820:
.LBB821:
.LBB822:
.LBB823:
.LBB824:
.LBB825:
.LBB826:
.LBB827:
	.loc 6 364 0
	lwz 0,4(31)
.LBE827:
.LBE826:
.LBE825:
.LBE824:
.LBE823:
.LBE822:
.LBE821:
.LBE820:
.LBE819:
.LBE818:
.LBE817:
.LBB858:
.LBB815:
.LBB813:
.LBB811:
.LBB809:
.LBB807:
.LBB805:
.LBB803:
.LBB801:
.LBB799:
.LBB797:
	.loc 6 367 0
	add 27,29,27
.LVL83:
.LBE797:
.LBE799:
.LBE801:
.LBE803:
.LBE805:
.LBE807:
.LBE809:
.LBE811:
.LBE813:
.LBE815:
.LBE858:
	.loc 5 347 0
	addi 26,27,4
.LBB859:
.LBB855:
.LBB852:
.LBB849:
.LBB846:
.LBB843:
.LBB840:
.LBB837:
.LBB834:
.LBB831:
.LBB828:
	.loc 6 365 0
	li 27,0
.LVL84:
	.loc 6 364 0
	subf 0,30,0
.LVL85:
	.loc 6 365 0
	srawi. 0,0,2
.LVL86:
	bne- 0,.L78
.LVL87:
.L68:
.LBE828:
.LBE831:
.LBE834:
.LBE837:
.LBE840:
.LBE843:
.LBE846:
.LBE849:
.LBE852:
.LBE855:
.LBE859:
	.loc 5 366 0
	lwz 3,0(31)
.LBB860:
.LBB856:
.LBB853:
.LBB850:
.LBB847:
.LBB844:
.LBB841:
.LBB838:
.LBB835:
.LBB832:
.LBB829:
	.loc 6 367 0
	add 27,26,27
.LVL88:
.LBE829:
.LBE832:
.LBE835:
.LBE838:
.LBE841:
.LBE844:
.LBE847:
.LBE850:
.LBE853:
.LBE856:
.LBE860:
.LBB861:
.LBB862:
	.loc 2 155 0
	cmpwi 7,3,0
	beq- 7,.L69
.LVL89:
.LBB863:
.LBB864:
	.loc 4 98 0
	bl _ZdlPv
.LVL90:
.L69:
.LBE864:
.LBE863:
.LBE862:
.LBE861:
.LBE761:
.LBE881:
	.loc 5 373 0
	lwz 0,44(1)
.LBB882:
.LBB875:
	.loc 5 371 0
	add 28,29,28
	.loc 5 369 0
	stw 29,0(31)
.LBE875:
.LBE882:
	.loc 5 373 0
	mtlr 0
.LBB883:
.LBB876:
	.loc 5 370 0
	stw 27,4(31)
	.loc 5 371 0
	stw 28,8(31)
.LBE876:
.LBE883:
	.loc 5 373 0
	lwz 26,16(1)
.LVL91:
	lwz 27,20(1)
.LVL92:
	lwz 28,24(1)
	lwz 29,28(1)
.LVL93:
	lwz 30,32(1)
.LVL94:
	lwz 31,36(1)
.LVL95:
	addi 1,1,40
	.cfi_remember_state
	.cfi_restore 26
	.cfi_restore 27
	.cfi_restore 28
	.cfi_restore 29
	.cfi_restore 30
	.cfi_restore 31
.LCFI22:
	.cfi_def_cfa_offset 0
	blr
.LVL96:
.L63:
.LCFI23:
	.cfi_restore_state
.LBB884:
.LBB877:
.LBB865:
.LBB773:
	.loc 7 892 0
	subf 27,27,30
.LBE773:
.LBE865:
	.loc 5 326 0
	li 28,4
.LBB866:
.LBB774:
	.loc 7 892 0
	srawi 27,27,2
.LVL97:
	b .L70
.LVL98:
.L77:
.LBE774:
.LBE866:
.LBB867:
.LBB816:
.LBB814:
.LBB812:
.LBB810:
.LBB808:
.LBB806:
.LBB804:
.LBB802:
.LBB800:
.LBB798:
	.loc 6 366 0
	slwi 27,0,2
	mr 3,29
	mr 5,27
.LVL99:
	bl memmove
.LVL100:
	b .L67
.LVL101:
.L78:
.LBE798:
.LBE800:
.LBE802:
.LBE804:
.LBE806:
.LBE808:
.LBE810:
.LBE812:
.LBE814:
.LBE816:
.LBE867:
.LBB868:
.LBB857:
.LBB854:
.LBB851:
.LBB848:
.LBB845:
.LBB842:
.LBB839:
.LBB836:
.LBB833:
.LBB830:
	slwi 27,0,2
	mr 3,26
	mr 4,30
	mr 5,27
	bl memmove
.LVL102:
	b .L68
.LVL103:
.L76:
.LBE830:
.LBE833:
.LBE836:
.LBE839:
.LBE842:
.LBE845:
.LBE848:
.LBE851:
.LBE854:
.LBE857:
.LBE868:
.LBB869:
.LBB768:
	.loc 2 1245 0
	lis 9,0x3fff
	ori 9,9,65535
	cmplw 7,0,9
	bgt+ 7,.L64
.LBE768:
.LBE869:
.LBB870:
.LBB782:
	.loc 2 150 0
	cmpwi 7,0,0
.LBE782:
.LBE870:
.LBB871:
.LBB775:
	.loc 7 892 0
	subf 27,27,30
.LBE775:
.LBE871:
.LBB872:
.LBB769:
	.loc 2 1245 0
	slwi 28,28,3
.LVL104:
.LBE769:
.LBE872:
.LBB873:
.LBB776:
	.loc 7 892 0
	srawi 27,27,2
.LVL105:
.LBE776:
.LBE873:
.LBB874:
.LBB783:
	.loc 2 150 0
	li 29,0
	beq+ 7,.L65
	b .L70
.LBE783:
.LBE874:
.LBE877:
.LBE884:
	.cfi_endproc
.LFE542:
	.size	_ZNSt6vectorIP11_LangStructSaIS1_EE13_M_insert_auxEN9__gnu_cxx17__normal_iteratorIPS1_S3_EERKS1_, .-_ZNSt6vectorIP11_LangStructSaIS1_EE13_M_insert_auxEN9__gnu_cxx17__normal_iteratorIPS1_S3_EERKS1_
	.section	".text"
	.align 2
	.globl _ZN9CLangList7AddLangEv
	.type	_ZN9CLangList7AddLangEv, @function
_ZN9CLangList7AddLangEv:
.LFB510:
	.loc 1 33 0
	.cfi_startproc
.LVL106:
	stwu 1,-40(1)
.LCFI24:
	.cfi_def_cfa_offset 40
	mflr 0
	stw 30,32(1)
	mr 30,3
	.cfi_offset 30, -8
	.cfi_register 65, 0
.LBB891:
	.loc 1 34 0
	li 3,8
.LVL107:
.LBE891:
	.loc 1 33 0
	stw 0,44(1)
	stw 31,36(1)
.LBB902:
	.loc 1 34 0
	.cfi_offset 31, -4
	.cfi_offset 65, 4
	bl _Znwj
	mr 31,3
.LVL108:
	.loc 1 35 0
	li 3,1025
	.loc 1 34 0
	stw 31,8(1)
.LVL109:
	.loc 1 35 0
	bl malloc
.LBB892:
.LBB893:
	.loc 2 828 0
	lwz 0,8(30)
	lwz 9,4(30)
.LBE893:
.LBE892:
	.loc 1 35 0
	stw 3,0(31)
.LBB899:
.LBB896:
	.loc 2 828 0
	cmpw 7,9,0
.LBE896:
.LBE899:
	.loc 1 36 0
	li 0,0
	stb 0,4(31)
.LVL110:
.LBB900:
.LBB897:
	.loc 2 828 0
	beq- 7,.L80
.LVL111:
.LBB894:
.LBB895:
	.loc 4 108 0
	cmpwi 7,9,0
	beq- 7,.L81
	stw 31,0(9)
	lwz 9,4(30)
.L81:
.LBE895:
.LBE894:
	.loc 2 831 0
	addi 9,9,4
	stw 9,4(30)
.LVL112:
.L79:
.LBE897:
.LBE900:
.LBE902:
	.loc 1 39 0
	lwz 0,44(1)
	lwz 30,32(1)
.LVL113:
	mtlr 0
	lwz 31,36(1)
.LVL114:
	addi 1,1,40
	.cfi_remember_state
.LCFI25:
	.cfi_def_cfa_offset 0
	.cfi_restore 31
	.cfi_restore 30
	blr
.LVL115:
.L80:
.LCFI26:
	.cfi_restore_state
.LBB903:
.LBB901:
.LBB898:
	.loc 2 834 0
	mr 4,1
	mr 3,30
	stwu 9,24(4)
	addi 5,1,8
	bl _ZNSt6vectorIP11_LangStructSaIS1_EE13_M_insert_auxEN9__gnu_cxx17__normal_iteratorIPS1_S3_EERKS1_
	b .L79
.LBE898:
.LBE901:
.LBE903:
	.cfi_endproc
.LFE510:
	.size	_ZN9CLangList7AddLangEv, .-_ZN9CLangList7AddLangEv
	.align 2
	.globl _ZN9CLangList3GetEP8URL_List
	.type	_ZN9CLangList3GetEP8URL_List, @function
_ZN9CLangList3GetEP8URL_List:
.LFB515:
	.loc 1 77 0
	.cfi_startproc
.LVL116:
	mflr 0
	stwu 1,-64(1)
.LCFI27:
	.cfi_def_cfa_offset 64
	.cfi_register 65, 0
	stw 29,52(1)
	mr 29,4
	.cfi_offset 29, -12
	stw 0,68(1)
	stw 31,60(1)
	mr 31,3
	.cfi_offset 31, -4
	.cfi_offset 65, 4
.LVL117:
.LBB949:
.LBB950:
	.loc 1 108 0
	lwz 9,0(3)
.LBB951:
.LBB952:
.LBB953:
	.loc 2 571 0
	lwz 0,4(3)
.LBE953:
.LBE952:
.LBE951:
.LBE950:
.LBE949:
	.loc 1 77 0
	stw 25,36(1)
.LBB1005:
.LBB977:
.LBB966:
.LBB956:
.LBB954:
	.loc 2 571 0
	subf 0,9,0
.LBE954:
.LBE956:
.LBE966:
.LBE977:
.LBE1005:
	.loc 1 77 0
	stw 26,40(1)
.LBB1006:
.LBB978:
.LBB967:
	.loc 1 67 0
	srwi. 11,0,2
.LBE967:
.LBE978:
.LBE1006:
	.loc 1 77 0
	stw 27,44(1)
	stw 28,48(1)
	stw 30,56(1)
.LBB1007:
.LBB979:
.LBB968:
	.loc 1 67 0
	beq- 0,.L84
	.cfi_offset 30, -8
	.cfi_offset 28, -16
	.cfi_offset 27, -20
	.cfi_offset 26, -24
	.cfi_offset 25, -28
.LVL118:
	li 30,0
.LVL119:
.L86:
	.loc 1 76 0
	slwi 28,30,2
	.loc 1 69 0
	lwzx 9,9,28
	lwz 3,0(9)
	bl free
.LVL120:
.LBB957:
.LBB958:
	.loc 1 108 0
	lwz 9,0(31)
.LBB959:
.LBB960:
.LBB961:
	.loc 2 571 0
	lwz 0,4(31)
	subf 0,9,0
	srawi 0,0,2
.LBE961:
.LBE960:
	.loc 2 718 0
	cmplw 7,30,0
	bge- 7,.L97
.LBE959:
.LBE958:
.LBE957:
	.loc 1 70 0
	lwzx 3,9,28
	.loc 1 67 0
	addi 30,30,1
.LVL121:
	.loc 1 70 0
	bl _ZdlPv
.LVL122:
.LBE968:
	.loc 1 108 0
	lwz 9,0(31)
.LBB969:
.LBB964:
.LBB955:
	.loc 2 571 0
	lwz 0,4(31)
	subf 0,9,0
	srawi 0,0,2
.LBE955:
.LBE964:
	.loc 1 67 0
	cmplw 7,30,0
	blt+ 7,.L86
.LVL123:
.L84:
.LBE969:
.LBB970:
.LBB971:
.LBB972:
	.loc 2 1256 0
	stw 9,4(31)
.LBE972:
.LBE971:
.LBE970:
.LBE979:
.LBB980:
	.loc 1 82 0
	mr 3,29
.LBE980:
.LBB997:
.LBB975:
.LBB974:
.LBB973:
	li 30,0
.LVL124:
	.loc 1 80 0
	li 28,0
.LVL125:
.LBE973:
.LBE974:
.LBE975:
.LBE997:
.LBB998:
	.loc 1 82 0
	bl _ZN8URL_List11GetURLCountEv
.LVL126:
	cmpw 7,30,3
	bge- 7,.L98
.LVL127:
.L94:
.LBB981:
	.loc 1 84 0
	mr 4,30
	mr 3,29
	bl _ZN8URL_List6GetURLEi
	li 4,47
	bl strrchr
.LVL128:
	.loc 1 85 0
	cmpwi 0,3,0
	beq- 0,.L88
	.loc 1 85 0 is_stmt 0 discriminator 1
	addi 26,3,1
.LVL129:
.L89:
	.loc 1 88 0 is_stmt 1
	cmpwi 7,26,0
	beq- 7,.L90
	.loc 1 91 0
	mr 3,26
	li 4,46
	bl strrchr
.LVL130:
	.loc 1 92 0
	cmpwi 7,3,0
	beq- 7,.L90
	.loc 1 92 0 is_stmt 0 discriminator 1
	lis 4,.LC1@ha
	la 4,.LC1@l(4)
	bl strcasecmp
.LVL131:
	mr. 27,3
	bne- 0,.L90
	.loc 1 95 0 is_stmt 1
	lbz 0,0(26)
	cmpwi 7,0,0
	beq- 7,.L90
	.loc 1 108 0
	lwz 25,0(31)
.LBB982:
.LBB983:
	.loc 2 571 0
	lwz 0,4(31)
	subf 0,25,0
	srawi 0,0,2
.LBE983:
.LBE982:
	.loc 1 97 0
	cmplw 7,28,0
	bge- 7,.L99
.L91:
.LVL132:
.LBB984:
.LBB985:
	.loc 2 696 0
	slwi 27,28,2
.LBE985:
.LBE984:
	.loc 1 100 0
	mr 3,26
	bl strlen
	lwzx 9,25,27
	addi 4,3,1
	lis 5,.LC2@ha
	lwz 3,0(9)
	la 5,.LC2@l(5)
	mr 6,26
	.loc 1 103 0
	addi 28,28,1
.LVL133:
	.loc 1 100 0
	crxor 6,6,6
	bl snprintf
.LVL134:
	.loc 1 101 0
	lwz 9,0(31)
	li 0,0
	lwzx 9,9,27
	stb 0,4(9)
.LVL135:
.L90:
.LBE981:
	.loc 1 82 0
	mr 3,29
	addi 30,30,1
.LVL136:
	bl _ZN8URL_List11GetURLCountEv
	cmpw 7,30,3
	blt+ 7,.L94
.LVL137:
.L98:
.LBE998:
.LBB999:
.LBB1000:
	.loc 2 571 0
	lwz 0,0(31)
	lwz 3,4(31)
.LBE1000:
.LBE999:
.LBE1007:
	.loc 1 108 0
	lwz 25,36(1)
.LBB1008:
.LBB1002:
.LBB1001:
	.loc 2 571 0
	subf 3,0,3
.LBE1001:
.LBE1002:
.LBE1008:
	.loc 1 108 0
	lwz 0,68(1)
	lwz 26,40(1)
	srawi 3,3,2
	mtlr 0
	lwz 27,44(1)
	lwz 28,48(1)
.LVL138:
	lwz 29,52(1)
.LVL139:
	lwz 30,56(1)
.LVL140:
	lwz 31,60(1)
.LVL141:
	addi 1,1,64
	.cfi_remember_state
.LCFI28:
	.cfi_def_cfa_offset 0
	.cfi_restore 31
	.cfi_restore 30
	.cfi_restore 29
	.cfi_restore 28
	.cfi_restore 27
	.cfi_restore 26
	.cfi_restore 25
	blr
.LVL142:
.L88:
.LCFI29:
	.cfi_restore_state
.LBB1009:
.LBB1003:
.LBB996:
	.loc 1 86 0
	mr 3,29
.LVL143:
	mr 4,30
	bl _ZN8URL_List6GetURLEi
	mr 26,3
.LVL144:
	b .L89
.LVL145:
.L99:
.LBB986:
.LBB987:
	.loc 1 34 0
	li 3,8
	bl _Znwj
	mr 25,3
.LVL146:
	.loc 1 35 0
	li 3,1025
	.loc 1 34 0
	stw 25,8(1)
.LVL147:
	.loc 1 35 0
	bl malloc
.LBB988:
.LBB989:
	.loc 2 828 0
	lwz 9,4(31)
	lwz 0,8(31)
.LBE989:
.LBE988:
	.loc 1 35 0
	stw 3,0(25)
.LBB994:
.LBB992:
	.loc 2 828 0
	cmpw 7,9,0
.LBE992:
.LBE994:
	.loc 1 36 0
	stb 27,4(25)
.LVL148:
.LBB995:
.LBB993:
	.loc 2 828 0
	beq- 7,.L92
.LVL149:
.LBB990:
.LBB991:
	.loc 4 108 0
	cmpwi 7,9,0
	li 11,0
	beq- 7,.L93
	stw 25,0(9)
	lwz 11,4(31)
.L93:
.LBE991:
.LBE990:
	.loc 2 831 0
	addi 11,11,4
	lwz 25,0(31)
.LVL150:
	stw 11,4(31)
	b .L91
.LVL151:
.L92:
	.loc 2 834 0
	mr 4,1
	mr 3,31
	stwu 9,24(4)
	addi 5,1,8
	bl _ZNSt6vectorIP11_LangStructSaIS1_EE13_M_insert_auxEN9__gnu_cxx17__normal_iteratorIPS1_S3_EERKS1_
	lwz 25,0(31)
	b .L91
.LVL152:
.L97:
.LBE993:
.LBE995:
.LBE987:
.LBE986:
.LBE996:
.LBE1003:
.LBB1004:
.LBB976:
.LBB965:
.LBB963:
.LBB962:
	.loc 2 719 0
	lis 3,.LC0@ha
	la 3,.LC0@l(3)
	bl _ZSt20__throw_out_of_rangePKc
.LBE962:
.LBE963:
.LBE965:
.LBE976:
.LBE1004:
.LBE1009:
	.cfi_endproc
.LFE515:
	.size	_ZN9CLangList3GetEP8URL_List, .-_ZN9CLangList3GetEP8URL_List
	.section	.text.startup,"ax",@progbits
	.align 2
	.type	_GLOBAL__sub_I_LangList, @function
_GLOBAL__sub_I_LangList:
.LFB597:
	.loc 1 108 0
	.cfi_startproc
	.loc 1 108 0
	li 3,1
	b _Z41__static_initialization_and_destruction_0ii.constprop.25
	.cfi_endproc
.LFE597:
	.size	_GLOBAL__sub_I_LangList, .-_GLOBAL__sub_I_LangList
	.section	.ctors,"aw",@progbits
	.align 2
	.long	_GLOBAL__sub_I_LangList
	.section	.text.exit,"ax",@progbits
	.align 2
	.type	_GLOBAL__sub_D_LangList, @function
_GLOBAL__sub_D_LangList:
.LFB598:
	.loc 1 108 0
	.cfi_startproc
	.loc 1 108 0
	li 3,0
	b _Z41__static_initialization_and_destruction_0ii.constprop.25
	.cfi_endproc
.LFE598:
	.size	_GLOBAL__sub_D_LangList, .-_GLOBAL__sub_D_LangList
	.section	.dtors,"aw",@progbits
	.align 2
	.long	_GLOBAL__sub_D_LangList
	.globl LangList
	.section	.rodata.str1.4,"aMS",@progbits,1
	.align 2
.LC0:
	.string	"vector::_M_range_check"
	.zero	1
.LC1:
	.string	".lang"
	.zero	2
.LC2:
	.string	"%s"
	.section	".bss"
	.align 2
	.set	.LANCHOR0,. + 0
	.type	LangList, @object
	.size	LangList, 12
LangList:
	.zero	12
	.section	".text"
.Letext0:
	.file 8 "d:\\devkitpro\\devkitppc\\bin\\../lib/gcc/powerpc-eabi/4.6.3/../../../../powerpc-eabi/include/c++/4.6.3/powerpc-eabi/bits/c++config.h"
	.file 9 "d:\\devkitpro\\devkitppc\\bin\\../lib/gcc/powerpc-eabi/4.6.3/../../../../powerpc-eabi/include/c++/4.6.3/bits/stl_construct.h"
	.file 10 "d:\\devkitpro\\devkitppc\\bin\\../lib/gcc/powerpc-eabi/4.6.3/../../../../powerpc-eabi/include/c++/4.6.3/bits/stl_uninitialized.h"
	.file 11 "d:\\devkitpro\\devkitppc\\bin\\../lib/gcc/powerpc-eabi/4.6.3/../../../../powerpc-eabi/include/c++/4.6.3/bits/cpp_type_traits.h"
	.file 12 "d:\\devkitpro\\devkitppc\\bin\\../lib/gcc/powerpc-eabi/4.6.3/../../../../powerpc-eabi/include/c++/4.6.3/debug/debug.h"
	.file 13 "d:\\devkitpro\\devkitppc\\bin\\../lib/gcc/powerpc-eabi/4.6.3/../../../../powerpc-eabi/include/c++/4.6.3/ext/numeric_traits.h"
	.file 14 "d:\\devkitpro\\devkitppc\\bin\\../lib/gcc/powerpc-eabi/4.6.3/../../../../powerpc-eabi/include/stdint.h"
	.file 15 "d:/devkitPro/libogc/include/gctypes.h"
	.file 16 "d:/devkitPro/libogc/include/ogc/gx.h"
	.file 17 "d:/Projects/SaveGameManager/savegame-manager-gx/trunk/source/Language/../Network/URL_List.h"
	.file 18 "d:\\devkitpro\\devkitppc\\bin\\../lib/gcc/powerpc-eabi/4.6.3/../../../../powerpc-eabi/include/c++/4.6.3/bits/allocator.h"
	.file 19 "d:\\devkitpro\\devkitppc\\bin\\../lib/gcc/powerpc-eabi/4.6.3/../../../../powerpc-eabi/include/c++/4.6.3/bits/stl_iterator_base_types.h"
	.file 20 "d:\\devkitpro\\devkitppc\\bin\\../lib/gcc/powerpc-eabi/4.6.3/../../../../powerpc-eabi/include/c++/4.6.3/new"
	.file 21 "<built-in>"