   1              		.file	"Clock.cpp"
   2              		.section	".text"
   3              	.Ltext0:
   4              		.section	.text._ZN10GuiElement9SetParentEPS_,"axG",@progbits,_ZN10GuiElement9SetParentEPS_,comdat
   5              		.align 2
   6              		.weak	_ZN10GuiElement9SetParentEPS_
   7              		.type	_ZN10GuiElement9SetParentEPS_, @function
   8              	_ZN10GuiElement9SetParentEPS_:
   9              	.LFB1384:
  10              		.file 1 "d:/Projects/SaveGameManager/savegame-manager-gx/trunk/source/Menu/../GUI/gui_element.h"
  11              		.loc 1 92 0
  12              		.cfi_startproc
  13              	.LVL0:
  14              		.loc 1 92 0
  15 0000 90830060 		stw 4,96(3)
  16 0004 4E800020 		blr
  17              		.cfi_endproc
  18              	.LFE1384:
  19              		.size	_ZN10GuiElement9SetParentEPS_, .-_ZN10GuiElement9SetParentEPS_
  20              		.section	.text._ZN10GuiElement9GetParentEv,"axG",@progbits,_ZN10GuiElement9GetParentEv,comdat
  21              		.align 2
  22              		.weak	_ZN10GuiElement9GetParentEv
  23              		.type	_ZN10GuiElement9GetParentEv, @function
  24              	_ZN10GuiElement9GetParentEv:
  25              	.LFB1385:
  26              		.loc 1 95 0
  27              		.cfi_startproc
  28              	.LVL1:
  29              		.loc 1 95 0
  30 0000 80630060 		lwz 3,96(3)
  31              	.LVL2:
  32 0004 4E800020 		blr
  33              		.cfi_endproc
  34              	.LFE1385:
  35              		.size	_ZN10GuiElement9GetParentEv, .-_ZN10GuiElement9GetParentEv
  36              		.section	.text._ZN10GuiElement12GetZPositionEv,"axG",@progbits,_ZN10GuiElement12GetZPositionEv,com
  37              		.align 2
  38              		.weak	_ZN10GuiElement12GetZPositionEv
  39              		.type	_ZN10GuiElement12GetZPositionEv, @function
  40              	_ZN10GuiElement12GetZPositionEv:
  41              	.LFB1386:
  42              		.loc 1 106 0
  43              		.cfi_startproc
  44              	.LVL3:
  45 0000 7C0802A6 		mflr 0
  46 0004 9421FFF0 		stwu 1,-16(1)
  47              	.LCFI0:
  48              		.cfi_def_cfa_offset 16
  49              		.cfi_register 65, 0
  50 0008 93E1000C 		stw 31,12(1)
  51 000c 7C7F1B78 		mr 31,3
  52              		.cfi_offset 31, -4
  53 0010 90010014 		stw 0,20(1)
  54              	.LBB1252:
  55              		.loc 1 110 0
  56 0014 81630060 		lwz 11,96(3)
  57              		.loc 1 108 0
  58 0018 38600000 		li 3,0
  59              	.LVL4:
  60              		.loc 1 110 0
  61 001c 2F8B0000 		cmpwi 7,11,0
  62 0020 419E0018 		beq- 7,.L4
  63              		.cfi_offset 65, 4
  64              		.loc 1 111 0
  65 0024 812B0000 		lwz 9,0(11)
  66 0028 7D635B78 		mr 3,11
  67 002c 80090018 		lwz 0,24(9)
  68 0030 7C0903A6 		mtctr 0
  69 0034 4E800421 		bctrl
  70              	.LVL5:
  71              	.L4:
  72              		.loc 1 113 0
  73 0038 801F0034 		lwz 0,52(31)
  74              	.LBE1252:
  75              		.loc 1 114 0
  76 003c 83E1000C 		lwz 31,12(1)
  77              	.LVL6:
  78 0040 7C630214 		add 3,3,0
  79              	.LVL7:
  80 0044 80010014 		lwz 0,20(1)
  81 0048 38210010 		addi 1,1,16
  82              	.LCFI1:
  83              		.cfi_def_cfa_offset 0
  84              		.cfi_restore 31
  85 004c 7C0803A6 		mtlr 0
  86 0050 4E800020 		blr
  87              		.cfi_endproc
  88              	.LFE1386:
  89              		.size	_ZN10GuiElement12GetZPositionEv, .-_ZN10GuiElement12GetZPositionEv
  90              		.section	.text._ZN10GuiElement10GetLeftPosEv,"axG",@progbits,_ZN10GuiElement10GetLeftPosEv,comdat
  91              		.align 2
  92              		.weak	_ZN10GuiElement10GetLeftPosEv
  93              		.type	_ZN10GuiElement10GetLeftPosEv, @function
  94              	_ZN10GuiElement10GetLeftPosEv:
  95              	.LFB1387:
  96              		.loc 1 116 0
  97              		.cfi_startproc
  98              	.LVL8:
  99              		.loc 1 116 0
 100 0000 8063002C 		lwz 3,44(3)
 101              	.LVL9:
 102 0004 4E800020 		blr
 103              		.cfi_endproc
 104              	.LFE1387:
 105              		.size	_ZN10GuiElement10GetLeftPosEv, .-_ZN10GuiElement10GetLeftPosEv
 106              		.section	.text._ZN10GuiElement9GetTopPosEv,"axG",@progbits,_ZN10GuiElement9GetTopPosEv,comdat
 107              		.align 2
 108              		.weak	_ZN10GuiElement9GetTopPosEv
 109              		.type	_ZN10GuiElement9GetTopPosEv, @function
 110              	_ZN10GuiElement9GetTopPosEv:
 111              	.LFB1388:
 112              		.loc 1 118 0
 113              		.cfi_startproc
 114              	.LVL10:
 115              		.loc 1 118 0
 116 0000 80630030 		lwz 3,48(3)
 117              	.LVL11:
 118 0004 4E800020 		blr
 119              		.cfi_endproc
 120              	.LFE1388:
 121              		.size	_ZN10GuiElement9GetTopPosEv, .-_ZN10GuiElement9GetTopPosEv
 122              		.section	.text._ZN10GuiElement8GetWidthEv,"axG",@progbits,_ZN10GuiElement8GetWidthEv,comdat
 123              		.align 2
 124              		.weak	_ZN10GuiElement8GetWidthEv
 125              		.type	_ZN10GuiElement8GetWidthEv, @function
 126              	_ZN10GuiElement8GetWidthEv:
 127              	.LFB1389:
 128              		.loc 1 121 0
 129              		.cfi_startproc
 130              	.LVL12:
 131              		.loc 1 121 0
 132 0000 80630024 		lwz 3,36(3)
 133              	.LVL13:
 134 0004 4E800020 		blr
 135              		.cfi_endproc
 136              	.LFE1389:
 137              		.size	_ZN10GuiElement8GetWidthEv, .-_ZN10GuiElement8GetWidthEv
 138              		.section	.text._ZN10GuiElement9GetHeightEv,"axG",@progbits,_ZN10GuiElement9GetHeightEv,comdat
 139              		.align 2
 140              		.weak	_ZN10GuiElement9GetHeightEv
 141              		.type	_ZN10GuiElement9GetHeightEv, @function
 142              	_ZN10GuiElement9GetHeightEv:
 143              	.LFB1390:
 144              		.loc 1 124 0
 145              		.cfi_startproc
 146              	.LVL14:
 147              		.loc 1 124 0
 148 0000 80630028 		lwz 3,40(3)
 149              	.LVL15:
 150 0004 4E800020 		blr
 151              		.cfi_endproc
 152              	.LFE1390:
 153              		.size	_ZN10GuiElement9GetHeightEv, .-_ZN10GuiElement9GetHeightEv
 154              		.section	.text._ZN10GuiElement7SetSizeEii,"axG",@progbits,_ZN10GuiElement7SetSizeEii,comdat
 155              		.align 2
 156              		.weak	_ZN10GuiElement7SetSizeEii
 157              		.type	_ZN10GuiElement7SetSizeEii, @function
 158              	_ZN10GuiElement7SetSizeEii:
 159              	.LFB1391:
 160              		.loc 1 128 0
 161              		.cfi_startproc
 162              	.LVL16:
 163              		.loc 1 130 0
 164 0000 90830024 		stw 4,36(3)
 165              		.loc 1 132 0
 166              		.loc 1 131 0
 167 0004 90A30028 		stw 5,40(3)
 168              		.loc 1 132 0
 169 0008 4E800020 		blr
 170              		.cfi_endproc
 171              	.LFE1391:
 172              		.size	_ZN10GuiElement7SetSizeEii, .-_ZN10GuiElement7SetSizeEii
 173              		.section	.text._ZN10GuiElement9IsVisibleEv,"axG",@progbits,_ZN10GuiElement9IsVisibleEv,comdat
 174              		.align 2
 175              		.weak	_ZN10GuiElement9IsVisibleEv
 176              		.type	_ZN10GuiElement9IsVisibleEv, @function
 177              	_ZN10GuiElement9IsVisibleEv:
 178              	.LFB1393:
 179              		.loc 1 142 0
 180              		.cfi_startproc
 181              	.LVL17:
 182              		.loc 1 142 0
 183 0000 8863001D 		lbz 3,29(3)
 184              	.LVL18:
 185 0004 4E800020 		blr
 186              		.cfi_endproc
 187              	.LFE1393:
 188              		.size	_ZN10GuiElement9IsVisibleEv, .-_ZN10GuiElement9IsVisibleEv
 189              		.section	.text._ZN10GuiElement12IsSelectableEv,"axG",@progbits,_ZN10GuiElement12IsSelectableEv,com
 190              		.align 2
 191              		.weak	_ZN10GuiElement12IsSelectableEv
 192              		.type	_ZN10GuiElement12IsSelectableEv, @function
 193              	_ZN10GuiElement12IsSelectableEv:
 194              	.LFB1394:
 195              		.loc 1 145 0
 196              		.cfi_startproc
 197              	.LVL19:
 198              		.loc 1 149 0
 199 0000 80030048 		lwz 0,72(3)
 200 0004 39200000 		li 9,0
 201 0008 2F800004 		cmpwi 7,0,4
 202 000c 419E0010 		beq- 7,.L14
 203              		.loc 1 149 0 is_stmt 0 discriminator 1
 204 0010 2F800002 		cmpwi 7,0,2
 205 0014 419E0008 		beq- 7,.L14
 206              		.loc 1 149 0 discriminator 3
 207 0018 8923001E 		lbz 9,30(3)
 208              	.L14:
 209              		.loc 1 150 0 is_stmt 1 discriminator 5
 210 001c 7D234B78 		mr 3,9
 211              	.LVL20:
 212 0020 4E800020 		blr
 213              		.cfi_endproc
 214              	.LFE1394:
 215              		.size	_ZN10GuiElement12IsSelectableEv, .-_ZN10GuiElement12IsSelectableEv
 216              		.section	.text._ZN10GuiElement11IsClickableEv,"axG",@progbits,_ZN10GuiElement11IsClickableEv,comda
 217              		.align 2
 218              		.weak	_ZN10GuiElement11IsClickableEv
 219              		.type	_ZN10GuiElement11IsClickableEv, @function
 220              	_ZN10GuiElement11IsClickableEv:
 221              	.LFB1395:
 222              		.loc 1 153 0
 223              		.cfi_startproc
 224              	.LVL21:
 225              		.loc 1 158 0
 226 0000 80030048 		lwz 0,72(3)
 227 0004 39200000 		li 9,0
 228 0008 2F800004 		cmpwi 7,0,4
 229 000c 419E0018 		beq- 7,.L18
 230              		.loc 1 158 0 is_stmt 0 discriminator 1
 231 0010 2F800002 		cmpwi 7,0,2
 232 0014 419E0010 		beq- 7,.L18
 233              		.loc 1 158 0 discriminator 3
 234 0018 2F800003 		cmpwi 7,0,3
 235 001c 419E0008 		beq- 7,.L18
 236              		.loc 1 158 0 discriminator 4
 237 0020 8923001F 		lbz 9,31(3)
 238              	.L18:
 239              		.loc 1 159 0 is_stmt 1 discriminator 6
 240 0024 7D234B78 		mr 3,9
 241              	.LVL22:
 242 0028 4E800020 		blr
 243              		.cfi_endproc
 244              	.LFE1395:
 245              		.size	_ZN10GuiElement11IsClickableEv, .-_ZN10GuiElement11IsClickableEv
 246              		.section	.text._ZN10GuiElement10IsHoldableEv,"axG",@progbits,_ZN10GuiElement10IsHoldableEv,comdat
 247              		.align 2
 248              		.weak	_ZN10GuiElement10IsHoldableEv
 249              		.type	_ZN10GuiElement10IsHoldableEv, @function
 250              	_ZN10GuiElement10IsHoldableEv:
 251              	.LFB1396:
 252              		.loc 1 162 0
 253              		.cfi_startproc
 254              	.LVL23:
 255              		.loc 1 162 0
 256 0000 81230048 		lwz 9,72(3)
 257 0004 38000000 		li 0,0
 258 0008 2F890004 		cmpwi 7,9,4
 259 000c 419E0008 		beq- 7,.L23
 260              		.loc 1 162 0 is_stmt 0 discriminator 1
 261 0010 88030020 		lbz 0,32(3)
 262              	.L23:
 263              		.loc 1 162 0 discriminator 4
 264 0014 7C030378 		mr 3,0
 265              	.LVL24:
 266 0018 4E800020 		blr
 267              		.cfi_endproc
 268              	.LFE1396:
 269              		.size	_ZN10GuiElement10IsHoldableEv, .-_ZN10GuiElement10IsHoldableEv
 270              		.section	.text._ZN10GuiElement13SetSelectableEb,"axG",@progbits,_ZN10GuiElement13SetSelectableEb,c
 271              		.align 2
 272              		.weak	_ZN10GuiElement13SetSelectableEb
 273              		.type	_ZN10GuiElement13SetSelectableEb, @function
 274              	_ZN10GuiElement13SetSelectableEb:
 275              	.LFB1397:
 276              		.loc 1 165 0 is_stmt 1
 277              		.cfi_startproc
 278              	.LVL25:
 279              		.loc 1 165 0
 280 0000 9883001E 		stb 4,30(3)
 281 0004 4E800020 		blr
 282              		.cfi_endproc
 283              	.LFE1397:
 284              		.size	_ZN10GuiElement13SetSelectableEb, .-_ZN10GuiElement13SetSelectableEb
 285              		.section	.text._ZN10GuiElement12SetClickableEb,"axG",@progbits,_ZN10GuiElement12SetClickableEb,com
 286              		.align 2
 287              		.weak	_ZN10GuiElement12SetClickableEb
 288              		.type	_ZN10GuiElement12SetClickableEb, @function
 289              	_ZN10GuiElement12SetClickableEb:
 290              	.LFB1398:
 291              		.loc 1 168 0
 292              		.cfi_startproc
 293              	.LVL26:
 294              		.loc 1 168 0
 295 0000 9883001F 		stb 4,31(3)
 296 0004 4E800020 		blr
 297              		.cfi_endproc
 298              	.LFE1398:
 299              		.size	_ZN10GuiElement12SetClickableEb, .-_ZN10GuiElement12SetClickableEb
 300              		.section	.text._ZN10GuiElement11SetHoldableEb,"axG",@progbits,_ZN10GuiElement11SetHoldableEb,comda
 301              		.align 2
 302              		.weak	_ZN10GuiElement11SetHoldableEb
 303              		.type	_ZN10GuiElement11SetHoldableEb, @function
 304              	_ZN10GuiElement11SetHoldableEb:
 305              	.LFB1399:
 306              		.loc 1 171 0
 307              		.cfi_startproc
 308              	.LVL27:
 309              		.loc 1 171 0
 310 0000 98830020 		stb 4,32(3)
 311 0004 4E800020 		blr
 312              		.cfi_endproc
 313              	.LFE1399:
 314              		.size	_ZN10GuiElement11SetHoldableEb, .-_ZN10GuiElement11SetHoldableEb
 315              		.section	.text._ZN10GuiElement8GetStateEv,"axG",@progbits,_ZN10GuiElement8GetStateEv,comdat
 316              		.align 2
 317              		.weak	_ZN10GuiElement8GetStateEv
 318              		.type	_ZN10GuiElement8GetStateEv, @function
 319              	_ZN10GuiElement8GetStateEv:
 320              	.LFB1400:
 321              		.loc 1 178 0
 322              		.cfi_startproc
 323              	.LVL28:
 324              		.loc 1 178 0
 325 0000 80630048 		lwz 3,72(3)
 326              	.LVL29:
 327 0004 4E800020 		blr
 328              		.cfi_endproc
 329              	.LFE1400:
 330              		.size	_ZN10GuiElement8GetStateEv, .-_ZN10GuiElement8GetStateEv
 331              		.section	.text._ZN10GuiElement12GetStateChanEv,"axG",@progbits,_ZN10GuiElement12GetStateChanEv,com
 332              		.align 2
 333              		.weak	_ZN10GuiElement12GetStateChanEv
 334              		.type	_ZN10GuiElement12GetStateChanEv, @function
 335              	_ZN10GuiElement12GetStateChanEv:
 336              	.LFB1401:
 337              		.loc 1 181 0
 338              		.cfi_startproc
 339              	.LVL30:
 340              		.loc 1 181 0
 341 0000 8063004C 		lwz 3,76(3)
 342              	.LVL31:
 343 0004 4E800020 		blr
 344              		.cfi_endproc
 345              	.LFE1401:
 346              		.size	_ZN10GuiElement12GetStateChanEv, .-_ZN10GuiElement12GetStateChanEv
 347              		.section	.text._ZN10GuiElement8SetAlphaEi,"axG",@progbits,_ZN10GuiElement8SetAlphaEi,comdat
 348              		.align 2
 349              		.weak	_ZN10GuiElement8SetAlphaEi
 350              		.type	_ZN10GuiElement8SetAlphaEi, @function
 351              	_ZN10GuiElement8SetAlphaEi:
 352              	.LFB1403:
 353              		.loc 1 190 0
 354              		.cfi_startproc
 355              	.LVL32:
 356              		.loc 1 190 0
 357 0000 90830038 		stw 4,56(3)
 358 0004 4E800020 		blr
 359              		.cfi_endproc
 360              	.LFE1403:
 361              		.size	_ZN10GuiElement8SetAlphaEi, .-_ZN10GuiElement8SetAlphaEi
 362              		.section	.text._ZN10GuiElement8GetAlphaEv,"axG",@progbits,_ZN10GuiElement8GetAlphaEv,comdat
 363              		.align 2
 364              		.weak	_ZN10GuiElement8GetAlphaEv
 365              		.type	_ZN10GuiElement8GetAlphaEv, @function
 366              	_ZN10GuiElement8GetAlphaEv:
 367              	.LFB1404:
 368              		.loc 1 194 0
 369              		.cfi_startproc
 370              	.LVL33:
 371 0000 7C0802A6 		mflr 0
 372 0004 9421FFD8 		stwu 1,-40(1)
 373              	.LCFI2:
 374              		.cfi_def_cfa_offset 40
 375              		.cfi_register 65, 0
 376 0008 93E10024 		stw 31,36(1)
 377 000c 9001002C 		stw 0,44(1)
 378              	.LBB1253:
 379              		.loc 1 198 0
 380 0010 83E3006C 		lwz 31,108(3)
 381              		.cfi_offset 65, 4
 382              		.cfi_offset 31, -4
 383 0014 2F9F0000 		cmpwi 7,31,0
 384 0018 419C0094 		blt- 7,.L34
 385              	.L32:
 386              	.LVL34:
 387              		.loc 1 203 0
 388 001c 80630060 		lwz 3,96(3)
 389              	.LVL35:
 390 0020 2F830000 		cmpwi 7,3,0
 391 0024 419E0070 		beq- 7,.L33
 392              		.loc 1 204 0
 393 0028 81230000 		lwz 9,0(3)
 394 002c 6FFF8000 		xoris 31,31,0x8000
 395              	.LVL36:
 396 0030 80090064 		lwz 0,100(9)
 397 0034 7C0903A6 		mtctr 0
 398 0038 4E800421 		bctrl
 399 003c 3C004330 		lis 0,0x4330
 400 0040 6C638000 		xoris 3,3,0x8000
 401 0044 90010010 		stw 0,16(1)
 402 0048 90610014 		stw 3,20(1)
 403 004c 3D200000 		lis 9,.LC1@ha
 404 0050 C0090000 		lfs 0,.LC1@l(9)
 405 0054 3D200000 		lis 9,.LC2@ha
 406 0058 C9A10010 		lfd 13,16(1)
 407 005c C1890004 		lfs 12,.LC2@l(9)
 408 0060 39210018 		addi 9,1,24
 409 0064 FDAD0028 		fsub 13,13,0
 410 0068 93E1000C 		stw 31,12(1)
 411 006c 90010008 		stw 0,8(1)
 412 0070 FDA06818 		frsp 13,13
 413 0074 EDAD6024 		fdivs 13,13,12
 414 0078 C9810008 		lfd 12,8(1)
 415 007c FC0C0028 		fsub 0,12,0
 416 0080 FC000018 		frsp 0,0
 417 0084 EC000372 		fmuls 0,0,13
 418 0088 FC00001E 		fctiwz 0,0
 419 008c 7C004FAE 		stfiwx 0,0,9
 420 0090 83E10018 		lwz 31,24(1)
 421              	.LVL37:
 422              	.L33:
 423              	.LBE1253:
 424              		.loc 1 207 0
 425 0094 8001002C 		lwz 0,44(1)
 426 0098 7FE3FB78 		mr 3,31
 427 009c 83E10024 		lwz 31,36(1)
 428              	.LVL38:
 429 00a0 7C0803A6 		mtlr 0
 430 00a4 38210028 		addi 1,1,40
 431              		.cfi_remember_state
 432              	.LCFI3:
 433              		.cfi_def_cfa_offset 0
 434              		.cfi_restore 31
 435 00a8 4E800020 		blr
 436              	.LVL39:
 437              	.L34:
 438              	.LCFI4:
 439              		.cfi_restore_state
 440              	.LBB1254:
 441              		.loc 1 201 0
 442 00ac 83E30038 		lwz 31,56(3)
 443              	.LVL40:
 444 00b0 4BFFFF6C 		b .L32
 445              	.LBE1254:
 446              		.cfi_endproc
 447              	.LFE1404:
 448              		.size	_ZN10GuiElement8GetAlphaEv, .-_ZN10GuiElement8GetAlphaEv
 449              		.section	.text._ZN10GuiElement8SetScaleEf,"axG",@progbits,_ZN10GuiElement8SetScaleEf,comdat
 450              		.align 2
 451              		.weak	_ZN10GuiElement8SetScaleEf
 452              		.type	_ZN10GuiElement8SetScaleEf, @function
 453              	_ZN10GuiElement8SetScaleEf:
 454              	.LFB1405:
 455              		.loc 1 210 0
 456              		.cfi_startproc
 457              	.LVL41:
 458              		.loc 1 212 0
 459 0000 D023003C 		stfs 1,60(3)
 460              		.loc 1 214 0
 461              		.loc 1 213 0
 462 0004 D0230040 		stfs 1,64(3)
 463              		.loc 1 214 0
 464 0008 4E800020 		blr
 465              		.cfi_endproc
 466              	.LFE1405:
 467              		.size	_ZN10GuiElement8SetScaleEf, .-_ZN10GuiElement8SetScaleEf
 468              		.section	.text._ZN10GuiElement9SetScaleXEf,"axG",@progbits,_ZN10GuiElement9SetScaleXEf,comdat
 469              		.align 2
 470              		.weak	_ZN10GuiElement9SetScaleXEf
 471              		.type	_ZN10GuiElement9SetScaleXEf, @function
 472              	_ZN10GuiElement9SetScaleXEf:
 473              	.LFB1406:
 474              		.loc 1 217 0
 475              		.cfi_startproc
 476              	.LVL42:
 477              		.loc 1 217 0
 478 0000 D023003C 		stfs 1,60(3)
 479 0004 4E800020 		blr
 480              		.cfi_endproc
 481              	.LFE1406:
 482              		.size	_ZN10GuiElement9SetScaleXEf, .-_ZN10GuiElement9SetScaleXEf
 483              		.section	.text._ZN10GuiElement9SetScaleYEf,"axG",@progbits,_ZN10GuiElement9SetScaleYEf,comdat
 484              		.align 2
 485              		.weak	_ZN10GuiElement9SetScaleYEf
 486              		.type	_ZN10GuiElement9SetScaleYEf, @function
 487              	_ZN10GuiElement9SetScaleYEf:
 488              	.LFB1407:
 489              		.loc 1 220 0
 490              		.cfi_startproc
 491              	.LVL43:
 492              		.loc 1 220 0
 493 0000 D0230040 		stfs 1,64(3)
 494 0004 4E800020 		blr
 495              		.cfi_endproc
 496              	.LFE1407:
 497              		.size	_ZN10GuiElement9SetScaleYEf, .-_ZN10GuiElement9SetScaleYEf
 498              		.section	.text._ZN10GuiElement8GetScaleEv,"axG",@progbits,_ZN10GuiElement8GetScaleEv,comdat
 499              		.align 2
 500              		.weak	_ZN10GuiElement8GetScaleEv
 501              		.type	_ZN10GuiElement8GetScaleEv, @function
 502              	_ZN10GuiElement8GetScaleEv:
 503              	.LFB1408:
 504              		.loc 1 223 0
 505              		.cfi_startproc
 506              	.LVL44:
 507 0000 7C0802A6 		mflr 0
 508 0004 9421FFF0 		stwu 1,-16(1)
 509              	.LCFI5:
 510              		.cfi_def_cfa_offset 16
 511              		.cfi_register 65, 0
 512              	.LBB1255:
 513              		.loc 1 225 0
 514 0008 3D200000 		lis 9,.LC3@ha
 515              	.LBE1255:
 516              		.loc 1 223 0
 517 000c DBE10008 		stfd 31,8(1)
 518 0010 90010014 		stw 0,20(1)
 519              	.LBB1256:
 520              		.loc 1 225 0
 521 0014 C0030040 		lfs 0,64(3)
 522 0018 C3E3003C 		lfs 31,60(3)
 523              		.cfi_offset 65, 4
 524              		.cfi_offset 63, -8
 525              		.loc 1 227 0
 526 001c 81630060 		lwz 11,96(3)
 527              		.loc 1 225 0
 528 0020 EFFF002A 		fadds 31,31,0
 529 0024 C0090008 		lfs 0,.LC3@l(9)
 530              		.loc 1 227 0
 531 0028 2F8B0000 		cmpwi 7,11,0
 532              		.loc 1 225 0
 533 002c EFFF0032 		fmuls 31,31,0
 534 0030 C0030070 		lfs 0,112(3)
 535 0034 EFFF0032 		fmuls 31,31,0
 536              	.LVL45:
 537              		.loc 1 227 0
 538 0038 419E001C 		beq- 7,.L39
 539              		.loc 1 228 0
 540 003c 812B0000 		lwz 9,0(11)
 541 0040 7D635B78 		mr 3,11
 542              	.LVL46:
 543 0044 80090074 		lwz 0,116(9)
 544 0048 7C0903A6 		mtctr 0
 545 004c 4E800421 		bctrl
 546 0050 EFFF0072 		fmuls 31,31,1
 547              	.LVL47:
 548              	.L39:
 549              	.LBE1256:
 550              		.loc 1 231 0
 551 0054 80010014 		lwz 0,20(1)
 552 0058 FC20F890 		fmr 1,31
 553 005c CBE10008 		lfd 31,8(1)
 554              	.LVL48:
 555 0060 7C0803A6 		mtlr 0
 556 0064 38210010 		addi 1,1,16
 557              	.LCFI6:
 558              		.cfi_def_cfa_offset 0
 559              		.cfi_restore 63
 560 0068 4E800020 		blr
 561              		.cfi_endproc
 562              	.LFE1408:
 563              		.size	_ZN10GuiElement8GetScaleEv, .-_ZN10GuiElement8GetScaleEv
 564              		.section	.text._ZN10GuiElement9GetScaleXEv,"axG",@progbits,_ZN10GuiElement9GetScaleXEv,comdat
 565              		.align 2
 566              		.weak	_ZN10GuiElement9GetScaleXEv
 567              		.type	_ZN10GuiElement9GetScaleXEv, @function
 568              	_ZN10GuiElement9GetScaleXEv:
 569              	.LFB1409:
 570              		.loc 1 234 0
 571              		.cfi_startproc
 572              	.LVL49:
 573 0000 7C0802A6 		mflr 0
 574 0004 9421FFF0 		stwu 1,-16(1)
 575              	.LCFI7:
 576              		.cfi_def_cfa_offset 16
 577              		.cfi_register 65, 0
 578 0008 DBE10008 		stfd 31,8(1)
 579 000c 90010014 		stw 0,20(1)
 580              	.LBB1257:
 581              		.loc 1 238 0
 582 0010 81630060 		lwz 11,96(3)
 583              		.loc 1 236 0
 584 0014 C3E3003C 		lfs 31,60(3)
 585              		.cfi_offset 65, 4
 586              		.cfi_offset 63, -8
 587              		.loc 1 238 0
 588 0018 2F8B0000 		cmpwi 7,11,0
 589              		.loc 1 236 0
 590 001c C0030070 		lfs 0,112(3)
 591 0020 EFFF0032 		fmuls 31,31,0
 592              	.LVL50:
 593              		.loc 1 238 0
 594 0024 419E001C 		beq- 7,.L41
 595              		.loc 1 239 0
 596 0028 812B0000 		lwz 9,0(11)
 597 002c 7D635B78 		mr 3,11
 598              	.LVL51:
 599 0030 80090078 		lwz 0,120(9)
 600 0034 7C0903A6 		mtctr 0
 601 0038 4E800421 		bctrl
 602 003c EFFF0072 		fmuls 31,31,1
 603              	.LVL52:
 604              	.L41:
 605              	.LBE1257:
 606              		.loc 1 242 0
 607 0040 80010014 		lwz 0,20(1)
 608 0044 FC20F890 		fmr 1,31
 609 0048 CBE10008 		lfd 31,8(1)
 610              	.LVL53:
 611 004c 7C0803A6 		mtlr 0
 612 0050 38210010 		addi 1,1,16
 613              	.LCFI8:
 614              		.cfi_def_cfa_offset 0
 615              		.cfi_restore 63
 616 0054 4E800020 		blr
 617              		.cfi_endproc
 618              	.LFE1409:
 619              		.size	_ZN10GuiElement9GetScaleXEv, .-_ZN10GuiElement9GetScaleXEv
 620              		.section	.text._ZN10GuiElement9GetScaleYEv,"axG",@progbits,_ZN10GuiElement9GetScaleYEv,comdat
 621              		.align 2
 622              		.weak	_ZN10GuiElement9GetScaleYEv
 623              		.type	_ZN10GuiElement9GetScaleYEv, @function
 624              	_ZN10GuiElement9GetScaleYEv:
 625              	.LFB1410:
 626              		.loc 1 245 0
 627              		.cfi_startproc
 628              	.LVL54:
 629 0000 7C0802A6 		mflr 0
 630 0004 9421FFF0 		stwu 1,-16(1)
 631              	.LCFI9:
 632              		.cfi_def_cfa_offset 16
 633              		.cfi_register 65, 0
 634 0008 DBE10008 		stfd 31,8(1)
 635 000c 90010014 		stw 0,20(1)
 636              	.LBB1258:
 637              		.loc 1 249 0
 638 0010 81630060 		lwz 11,96(3)
 639              		.loc 1 247 0
 640 0014 C3E30040 		lfs 31,64(3)
 641              		.cfi_offset 65, 4
 642              		.cfi_offset 63, -8
 643              		.loc 1 249 0
 644 0018 2F8B0000 		cmpwi 7,11,0
 645              		.loc 1 247 0
 646 001c C0030070 		lfs 0,112(3)
 647 0020 EFFF0032 		fmuls 31,31,0
 648              	.LVL55:
 649              		.loc 1 249 0
 650 0024 419E001C 		beq- 7,.L43
 651              		.loc 1 250 0
 652 0028 812B0000 		lwz 9,0(11)
 653 002c 7D635B78 		mr 3,11
 654              	.LVL56:
 655 0030 8009007C 		lwz 0,124(9)
 656 0034 7C0903A6 		mtctr 0
 657 0038 4E800421 		bctrl
 658 003c EFFF0072 		fmuls 31,31,1
 659              	.LVL57:
 660              	.L43:
 661              	.LBE1258:
 662              		.loc 1 253 0
 663 0040 80010014 		lwz 0,20(1)
 664 0044 FC20F890 		fmr 1,31
 665 0048 CBE10008 		lfd 31,8(1)
 666              	.LVL58:
 667 004c 7C0803A6 		mtlr 0
 668 0050 38210010 		addi 1,1,16
 669              	.LCFI10:
 670              		.cfi_def_cfa_offset 0
 671              		.cfi_restore 63
 672 0054 4E800020 		blr
 673              		.cfi_endproc
 674              	.LFE1410:
 675              		.size	_ZN10GuiElement9GetScaleYEv, .-_ZN10GuiElement9GetScaleYEv
 676              		.section	.text._ZN10GuiElement6RumbleEv,"axG",@progbits,_ZN10GuiElement6RumbleEv,comdat
 677              		.align 2
 678              		.weak	_ZN10GuiElement6RumbleEv
 679              		.type	_ZN10GuiElement6RumbleEv, @function
 680              	_ZN10GuiElement6RumbleEv:
 681              	.LFB1411:
 682              		.loc 1 256 0
 683              		.cfi_startproc
 684              	.LVL59:
 685              		.loc 1 256 0
 686 0000 8863001C 		lbz 3,28(3)
 687              	.LVL60:
 688 0004 4E800020 		blr
 689              		.cfi_endproc
 690              	.LFE1411:
 691              		.size	_ZN10GuiElement6RumbleEv, .-_ZN10GuiElement6RumbleEv
 692              		.section	.text._ZN10GuiElement9SetRumbleEb,"axG",@progbits,_ZN10GuiElement9SetRumbleEb,comdat
 693              		.align 2
 694              		.weak	_ZN10GuiElement9SetRumbleEb
 695              		.type	_ZN10GuiElement9SetRumbleEb, @function
 696              	_ZN10GuiElement9SetRumbleEb:
 697              	.LFB1412:
 698              		.loc 1 259 0
 699              		.cfi_startproc
 700              	.LVL61:
 701              		.loc 1 259 0
 702 0000 9883001C 		stb 4,28(3)
 703 0004 4E800020 		blr
 704              		.cfi_endproc
 705              	.LFE1412:
 706              		.size	_ZN10GuiElement9SetRumbleEb, .-_ZN10GuiElement9SetRumbleEb
 707              		.section	.text._ZN10GuiElement13SetEffectGrowEv,"axG",@progbits,_ZN10GuiElement13SetEffectGrowEv,c
 708              		.align 2
 709              		.weak	_ZN10GuiElement13SetEffectGrowEv
 710              		.type	_ZN10GuiElement13SetEffectGrowEv, @function
 711              	_ZN10GuiElement13SetEffectGrowEv:
 712              	.LFB1413:
 713              		.loc 1 271 0
 714              		.cfi_startproc
 715              	.LVL62:
 716 0000 7C0802A6 		mflr 0
 717 0004 9421FFF8 		stwu 1,-8(1)
 718              	.LCFI11:
 719              		.cfi_def_cfa_offset 8
 720              		.cfi_register 65, 0
 721 0008 81230000 		lwz 9,0(3)
 722 000c 38800100 		li 4,256
 723 0010 38A00004 		li 5,4
 724 0014 38C0006E 		li 6,110
 725 0018 9001000C 		stw 0,12(1)
 726              		.loc 1 271 0
 727 001c 8009008C 		lwz 0,140(9)
 728              		.cfi_offset 65, 4
 729 0020 7C0903A6 		mtctr 0
 730 0024 4E800421 		bctrl
 731              	.LVL63:
 732 0028 8001000C 		lwz 0,12(1)
 733 002c 38210008 		addi 1,1,8
 734              	.LCFI12:
 735              		.cfi_def_cfa_offset 0
 736 0030 7C0803A6 		mtlr 0
 737 0034 4E800020 		blr
 738              		.cfi_endproc
 739              	.LFE1413:
 740              		.size	_ZN10GuiElement13SetEffectGrowEv, .-_ZN10GuiElement13SetEffectGrowEv
 741              		.section	.text._ZNK10GuiElement9GetEffectEv,"axG",@progbits,_ZNK10GuiElement9GetEffectEv,comdat
 742              		.align 2
 743              		.weak	_ZNK10GuiElement9GetEffectEv
 744              		.type	_ZNK10GuiElement9GetEffectEv, @function
 745              	_ZNK10GuiElement9GetEffectEv:
 746              	.LFB1414:
 747              		.loc 1 276 0
 748              		.cfi_startproc
 749              	.LVL64:
 750              		.loc 1 276 0
 751 0000 80630078 		lwz 3,120(3)
 752              	.LVL65:
 753 0004 4E800020 		blr
 754              		.cfi_endproc
 755              	.LFE1414:
 756              		.size	_ZNK10GuiElement9GetEffectEv, .-_ZNK10GuiElement9GetEffectEv
 757              		.section	.text._ZNK10GuiElement10IsAnimatedEv,"axG",@progbits,_ZNK10GuiElement10IsAnimatedEv,comda
 758              		.align 2
 759              		.weak	_ZNK10GuiElement10IsAnimatedEv
 760              		.type	_ZNK10GuiElement10IsAnimatedEv, @function
 761              	_ZNK10GuiElement10IsAnimatedEv:
 762              	.LFB1415:
 763              		.loc 1 278 0
 764              		.cfi_startproc
 765              	.LVL66:
 766 0000 7C0802A6 		mflr 0
 767 0004 9421FFF8 		stwu 1,-8(1)
 768              	.LCFI13:
 769              		.cfi_def_cfa_offset 8
 770              		.cfi_register 65, 0
 771 0008 9001000C 		stw 0,12(1)
 772              		.loc 1 278 0
 773 000c 81230000 		lwz 9,0(3)
 774 0010 80090098 		lwz 0,152(9)
 775              		.cfi_offset 65, 4
 776 0014 7C0903A6 		mtctr 0
 777 0018 4E800421 		bctrl
 778              	.LVL67:
 779 001c 7C60FE70 		srawi 0,3,31
 780 0020 7C630050 		subf 3,3,0
 781 0024 8001000C 		lwz 0,12(1)
 782 0028 54630FFE 		srwi 3,3,31
 783 002c 7C0803A6 		mtlr 0
 784 0030 38210008 		addi 1,1,8
 785              	.LCFI14:
 786              		.cfi_def_cfa_offset 0
 787 0034 4E800020 		blr
 788              		.cfi_endproc
 789              	.LFE1415:
 790              		.size	_ZNK10GuiElement10IsAnimatedEv, .-_ZNK10GuiElement10IsAnimatedEv
 791              		.section	.text._ZN10GuiElement8IsInsideEii,"axG",@progbits,_ZN10GuiElement8IsInsideEii,comdat
 792              		.align 2
 793              		.weak	_ZN10GuiElement8IsInsideEii
 794              		.type	_ZN10GuiElement8IsInsideEii, @function
 795              	_ZN10GuiElement8IsInsideEii:
 796              	.LFB1417:
 797              		.loc 1 285 0
 798              		.cfi_startproc
 799              	.LVL68:
 800 0000 7C0802A6 		mflr 0
 801 0004 9421FFE8 		stwu 1,-24(1)
 802              	.LCFI15:
 803              		.cfi_def_cfa_offset 24
 804              		.cfi_register 65, 0
 805 0008 93810008 		stw 28,8(1)
 806 000c 7CBC2B78 		mr 28,5
 807              		.cfi_offset 28, -16
 808 0010 9001001C 		stw 0,28(1)
 809 0014 93A1000C 		stw 29,12(1)
 810              		.loc 1 290 0
 811 0018 3BA00000 		li 29,0
 812              		.cfi_offset 29, -12
 813              		.cfi_offset 65, 4
 814              		.loc 1 287 0
 815 001c 81230000 		lwz 9,0(3)
 816              		.loc 1 285 0
 817 0020 93C10010 		stw 30,16(1)
 818 0024 7C9E2378 		mr 30,4
 819              		.cfi_offset 30, -8
 820              		.loc 1 287 0
 821 0028 80090010 		lwz 0,16(9)
 822              		.loc 1 285 0
 823 002c 93E10014 		stw 31,20(1)
 824              		.loc 1 285 0
 825 0030 7C7F1B78 		mr 31,3
 826              		.cfi_offset 31, -4
 827              		.loc 1 287 0
 828 0034 7C0903A6 		mtctr 0
 829 0038 4E800421 		bctrl
 830              	.LVL69:
 831              		.loc 1 290 0
 832 003c 7F83F000 		cmpw 7,3,30
 833 0040 419C0028 		blt- 7,.L54
 834              	.L50:
 835              		.loc 1 291 0 discriminator 6
 836 0044 8001001C 		lwz 0,28(1)
 837 0048 7FA3EB78 		mr 3,29
 838 004c 83810008 		lwz 28,8(1)
 839              	.LVL70:
 840 0050 7C0803A6 		mtlr 0
 841 0054 83A1000C 		lwz 29,12(1)
 842 0058 83C10010 		lwz 30,16(1)
 843              	.LVL71:
 844 005c 83E10014 		lwz 31,20(1)
 845              	.LVL72:
 846 0060 38210018 		addi 1,1,24
 847              		.cfi_remember_state
 848              	.LCFI16:
 849              		.cfi_def_cfa_offset 0
 850              		.cfi_restore 31
 851              		.cfi_restore 30
 852              		.cfi_restore 29
 853              		.cfi_restore 28
 854 0064 4E800020 		blr
 855              	.LVL73:
 856              	.L54:
 857              	.LCFI17:
 858              		.cfi_restore_state
 859              		.loc 1 288 0 discriminator 1
 860 0068 813F0000 		lwz 9,0(31)
 861 006c 7FE3FB78 		mr 3,31
 862 0070 80090010 		lwz 0,16(9)
 863 0074 7C0903A6 		mtctr 0
 864 0078 4E800421 		bctrl
 865              		.loc 1 290 0 discriminator 1
 866 007c 801F0024 		lwz 0,36(31)
 867 0080 7C030214 		add 0,3,0
 868 0084 7F9E0000 		cmpw 7,30,0
 869 0088 409CFFBC 		bge+ 7,.L50
 870              		.loc 1 289 0 discriminator 3
 871 008c 813F0000 		lwz 9,0(31)
 872 0090 7FE3FB78 		mr 3,31
 873 0094 80090014 		lwz 0,20(9)
 874 0098 7C0903A6 		mtctr 0
 875 009c 4E800421 		bctrl
 876              		.loc 1 290 0 discriminator 3
 877 00a0 7F83E000 		cmpw 7,3,28
 878 00a4 409CFFA0 		bge+ 7,.L50
 879              		.loc 1 290 0 is_stmt 0 discriminator 4
 880 00a8 813F0000 		lwz 9,0(31)
 881 00ac 7FE3FB78 		mr 3,31
 882 00b0 80090014 		lwz 0,20(9)
 883 00b4 7C0903A6 		mtctr 0
 884 00b8 4E800421 		bctrl
 885 00bc 801F0028 		lwz 0,40(31)
 886 00c0 7C030214 		add 0,3,0
 887              		.loc 1 285 0 is_stmt 1 discriminator 4
 888 00c4 7F9C0000 		cmpw 7,28,0
 889 00c8 7FA00026 		mfcr 29
 890 00cc 57BDEFFE 		rlwinm 29,29,29,1
 891 00d0 4BFFFF74 		b .L50
 892              		.cfi_endproc
 893              	.LFE1417:
 894              		.size	_ZN10GuiElement8IsInsideEii, .-_ZN10GuiElement8IsInsideEii
 895              		.section	.text._ZN10GuiElement11SetPositionEii,"axG",@progbits,_ZN10GuiElement11SetPositionEii,com
 896              		.align 2
 897              		.weak	_ZN10GuiElement11SetPositionEii
 898              		.type	_ZN10GuiElement11SetPositionEii, @function
 899              	_ZN10GuiElement11SetPositionEii:
 900              	.LFB1418:
 901              		.loc 1 295 0
 902              		.cfi_startproc
 903              	.LVL74:
 904              		.loc 1 297 0
 905 0000 9083002C 		stw 4,44(3)
 906              		.loc 1 299 0
 907              		.loc 1 298 0
 908 0004 90A30030 		stw 5,48(3)
 909              		.loc 1 299 0
 910 0008 4E800020 		blr
 911              		.cfi_endproc
 912              	.LFE1418:
 913              		.size	_ZN10GuiElement11SetPositionEii, .-_ZN10GuiElement11SetPositionEii
 914              		.section	.text._ZN10GuiElement11SetPositionEiii,"axG",@progbits,_ZN10GuiElement11SetPositionEiii,c
 915              		.align 2
 916              		.weak	_ZN10GuiElement11SetPositionEiii
 917              		.type	_ZN10GuiElement11SetPositionEiii, @function
 918              	_ZN10GuiElement11SetPositionEiii:
 919              	.LFB1419:
 920              		.loc 1 304 0
 921              		.cfi_startproc
 922              	.LVL75:
 923              		.loc 1 306 0
 924 0000 9083002C 		stw 4,44(3)
 925              		.loc 1 309 0
 926              		.loc 1 307 0
 927 0004 90A30030 		stw 5,48(3)
 928              		.loc 1 308 0
 929 0008 90C30034 		stw 6,52(3)
 930              		.loc 1 309 0
 931 000c 4E800020 		blr
 932              		.cfi_endproc
 933              	.LFE1419:
 934              		.size	_ZN10GuiElement11SetPositionEiii, .-_ZN10GuiElement11SetPositionEiii
 935              		.section	.text._ZN10GuiElement12SetAlignmentEi,"axG",@progbits,_ZN10GuiElement12SetAlignmentEi,com
 936              		.align 2
 937              		.weak	_ZN10GuiElement12SetAlignmentEi
 938              		.type	_ZN10GuiElement12SetAlignmentEi, @function
 939              	_ZN10GuiElement12SetAlignmentEi:
 940              	.LFB1421:
 941              		.loc 1 316 0
 942              		.cfi_startproc
 943              	.LVL76:
 944              		.loc 1 316 0
 945 0000 90830044 		stw 4,68(3)
 946 0004 4E800020 		blr
 947              		.cfi_endproc
 948              	.LFE1421:
 949              		.size	_ZN10GuiElement12SetAlignmentEi, .-_ZN10GuiElement12SetAlignmentEi
 950              		.section	.text._ZNK10GuiElement12GetAlignmentEv,"axG",@progbits,_ZNK10GuiElement12GetAlignmentEv,c
 951              		.align 2
 952              		.weak	_ZNK10GuiElement12GetAlignmentEv
 953              		.type	_ZNK10GuiElement12GetAlignmentEv, @function
 954              	_ZNK10GuiElement12GetAlignmentEv:
 955              	.LFB1422:
 956              		.loc 1 318 0
 957              		.cfi_startproc
 958              	.LVL77:
 959              		.loc 1 318 0
 960 0000 80630044 		lwz 3,68(3)
 961              	.LVL78:
 962 0004 4E800020 		blr
 963              		.cfi_endproc
 964              	.LFE1422:
 965              		.size	_ZNK10GuiElement12GetAlignmentEv, .-_ZNK10GuiElement12GetAlignmentEv
 966              		.section	.text._ZN8GuiFrame4showEv,"axG",@progbits,_ZN8GuiFrame4showEv,comdat
 967              		.align 2
 968              		.weak	_ZN8GuiFrame4showEv
 969              		.type	_ZN8GuiFrame4showEv, @function
 970              	_ZN8GuiFrame4showEv:
 971              	.LFB1431:
 972              		.file 2 "d:/Projects/SaveGameManager/savegame-manager-gx/trunk/source/Menu/../GUI/gui_frame.h"
 973              		.loc 2 79 0
 974              		.cfi_startproc
 975              	.LVL79:
 976              		.loc 2 79 0
 977 0000 4E800020 		blr
 978              		.cfi_endproc
 979              	.LFE1431:
 980              		.size	_ZN8GuiFrame4showEv, .-_ZN8GuiFrame4showEv
 981              		.section	.text._ZN8GuiFrame4hideEv,"axG",@progbits,_ZN8GuiFrame4hideEv,comdat
 982              		.align 2
 983              		.weak	_ZN8GuiFrame4hideEv
 984              		.type	_ZN8GuiFrame4hideEv, @function
 985              	_ZN8GuiFrame4hideEv:
 986              	.LFB1432:
 987              		.loc 2 81 0
 988              		.cfi_startproc
 989              	.LVL80:
 990              		.loc 2 81 0
 991 0000 4E800020 		blr
 992              		.cfi_endproc
 993              	.LFE1432:
 994              		.size	_ZN8GuiFrame4hideEv, .-_ZN8GuiFrame4hideEv
 995              		.section	.text._ZN8GuiFrame4execEv,"axG",@progbits,_ZN8GuiFrame4execEv,comdat
 996              		.align 2
 997              		.weak	_ZN8GuiFrame4execEv
 998              		.type	_ZN8GuiFrame4execEv, @function
 999              	_ZN8GuiFrame4execEv:
 1000              	.LFB1433:
 1001              		.loc 2 83 0
 1002              		.cfi_startproc
 1003              	.LVL81:
 1004              		.loc 2 83 0
 1005 0000 4E800020 		blr
 1006              		.cfi_endproc
 1007              	.LFE1433:
 1008              		.size	_ZN8GuiFrame4execEv, .-_ZN8GuiFrame4execEv
 1009              		.section	.text._ZN8GuiFrame12updateEventsEv,"axG",@progbits,_ZN8GuiFrame12updateEventsEv,comdat
 1010              		.align 2
 1011              		.weak	_ZN8GuiFrame12updateEventsEv
 1012              		.type	_ZN8GuiFrame12updateEventsEv, @function
 1013              	_ZN8GuiFrame12updateEventsEv:
 1014              	.LFB1434:
 1015              		.loc 2 85 0
 1016              		.cfi_startproc
 1017              	.LVL82:
 1018              		.loc 2 85 0
 1019 0000 4E800020 		blr
 1020              		.cfi_endproc
 1021              	.LFE1434:
 1022              		.size	_ZN8GuiFrame12updateEventsEv, .-_ZN8GuiFrame12updateEventsEv
 1023              		.section	".text"
 1024              		.align 2
 1025              		.globl _ZN5ClockD2Ev
 1026              		.type	_ZN5ClockD2Ev, @function
 1027              	_ZN5ClockD2Ev:
 1028              	.LFB1578:
 1029              		.file 3 "d:/Projects/SaveGameManager/savegame-manager-gx/trunk/source/Menu/Clock.cpp"
 1030              		.loc 3 48 0
 1031              		.cfi_startproc
 1032              		.cfi_personality 0,__gxx_personality_v0
 1033              		.cfi_lsda 0,.LLSDA1578
 1034              	.LVL83:
 1035 0000 7C0802A6 		mflr 0
 1036 0004 9421FFF0 		stwu 1,-16(1)
 1037              	.LCFI18:
 1038              		.cfi_def_cfa_offset 16
 1039              		.cfi_register 65, 0
 1040              	.LBB1260:
 1041 0008 3D200000 		lis 9,_ZTV5Clock+8@ha
 1042              	.LBE1260:
 1043 000c 93E1000C 		stw 31,12(1)
 1044 0010 7C7F1B78 		mr 31,3
 1045              		.cfi_offset 31, -4
 1046 0014 90010014 		stw 0,20(1)
 1047              	.LBB1261:
 1048 0018 38090008 		la 0,_ZTV5Clock+8@l(9)
 1049              		.cfi_offset 65, 4
 1050              	.LBE1261:
 1051 001c 93C10008 		stw 30,8(1)
 1052              	.LBB1262:
 1053              		.loc 3 48 0
 1054 0020 90030000 		stw 0,0(3)
 1055              	.LEHB0:
 1056              		.loc 3 50 0
 1057              		.cfi_offset 30, -8
 1058 0024 48000001 		bl _ZN8GuiFrame9RemoveAllEv
 1059              	.LVL84:
 1060              		.loc 3 52 0
 1061 0028 807F00B0 		lwz 3,176(31)
 1062 002c 2F830000 		cmpwi 7,3,0
 1063 0030 419E0014 		beq- 7,.L64
 1064              		.loc 3 52 0 is_stmt 0 discriminator 1
 1065 0034 81230000 		lwz 9,0(3)
 1066 0038 80090004 		lwz 0,4(9)
 1067 003c 7C0903A6 		mtctr 0
 1068 0040 4E800421 		bctrl
 1069              	.L64:
 1070              		.loc 3 53 0 is_stmt 1
 1071 0044 807F00B4 		lwz 3,180(31)
 1072 0048 2F830000 		cmpwi 7,3,0
 1073 004c 419E0014 		beq- 7,.L65
 1074              		.loc 3 53 0 is_stmt 0 discriminator 1
 1075 0050 81230000 		lwz 9,0(3)
 1076 0054 80090004 		lwz 0,4(9)
 1077 0058 7C0903A6 		mtctr 0
 1078 005c 4E800421 		bctrl
 1079              	.LEHE0:
 1080              	.L65:
 1081              		.loc 3 48 0 is_stmt 1
 1082 0060 7FE3FB78 		mr 3,31
 1083              	.LEHB1:
 1084 0064 48000001 		bl _ZN8GuiFrameD2Ev
 1085              	.LEHE1:
 1086              	.LBE1262:
 1087              		.loc 3 54 0
 1088 0068 80010014 		lwz 0,20(1)
 1089 006c 83C10008 		lwz 30,8(1)
 1090 0070 7C0803A6 		mtlr 0
 1091 0074 83E1000C 		lwz 31,12(1)
 1092              	.LVL85:
 1093 0078 38210010 		addi 1,1,16
 1094              		.cfi_remember_state
 1095              	.LCFI19:
 1096              		.cfi_def_cfa_offset 0
 1097              		.cfi_restore 31
 1098              		.cfi_restore 30
 1099 007c 4E800020 		blr
 1100              	.LVL86:
 1101              	.L68:
 1102              	.LCFI20:
 1103              		.cfi_restore_state
 1104 0080 7C7E1B78 		mr 30,3
 1105              	.LBB1263:
 1106              		.loc 3 48 0
 1107 0084 7FE3FB78 		mr 3,31
 1108 0088 48000001 		bl _ZN8GuiFrameD2Ev
 1109 008c 7FC3F378 		mr 3,30
 1110              	.LEHB2:
 1111 0090 48000001 		bl _Unwind_Resume
 1112              	.LEHE2:
 1113              	.LBE1263:
 1114              		.cfi_endproc
 1115              	.LFE1578:
 1116              		.globl __gxx_personality_v0
 1117              		.section	.gcc_except_table,"a",@progbits
 1118              	.LLSDA1578:
 1119 0000 FF       		.byte	0xff
 1120 0001 FF       		.byte	0xff
 1121 0002 01       		.byte	0x1
 1122 0003 0E       		.uleb128 .LLSDACSE1578-.LLSDACSB1578
 1123              	.LLSDACSB1578:
 1124 0004 24       		.uleb128 .LEHB0-.LFB1578
 1125 0005 3C       		.uleb128 .LEHE0-.LEHB0
 1126 0006 8001     		.uleb128 .L68-.LFB1578
 1127 0008 00       		.uleb128 0
 1128 0009 64       		.uleb128 .LEHB1-.LFB1578
 1129 000a 04       		.uleb128 .LEHE1-.LEHB1
 1130 000b 00       		.uleb128 0
 1131 000c 00       		.uleb128 0
 1132 000d 9001     		.uleb128 .LEHB2-.LFB1578
 1133 000f 04       		.uleb128 .LEHE2-.LEHB2
 1134 0010 00       		.uleb128 0
 1135 0011 00       		.uleb128 0
 1136              	.LLSDACSE1578:
 1137              		.section	".text"
 1138              		.size	_ZN5ClockD2Ev, .-_ZN5ClockD2Ev
 1139              		.align 2
 1140              		.globl _ZN5Clock4DrawEv
 1141              		.type	_ZN5Clock4DrawEv, @function
 1142              	_ZN5Clock4DrawEv:
 1143              	.LFB1581:
 1144              		.loc 3 57 0
 1145              		.cfi_startproc
 1146              	.LVL87:
 1147 0094 7C0802A6 		mflr 0
 1148 0098 9421FFD0 		stwu 1,-48(1)
 1149              	.LCFI21:
 1150              		.cfi_def_cfa_offset 48
 1151              		.cfi_register 65, 0
 1152 009c 93E1002C 		stw 31,44(1)
 1153 00a0 7C7F1B78 		mr 31,3
 1154              		.cfi_offset 31, -4
 1155 00a4 90010034 		stw 0,52(1)
 1156 00a8 93C10028 		stw 30,40(1)
 1157              	.LBB1270:
 1158              		.loc 3 58 0
 1159 00ac 81230000 		lwz 9,0(3)
 1160 00b0 80090034 		lwz 0,52(9)
 1161              		.cfi_offset 30, -8
 1162              		.cfi_offset 65, 4
 1163 00b4 7C0903A6 		mtctr 0
 1164 00b8 4E800421 		bctrl
 1165              	.LVL88:
 1166 00bc 2F830000 		cmpwi 7,3,0
 1167 00c0 419E0020 		beq- 7,.L69
 1168              		.loc 3 58 0 is_stmt 0 discriminator 2
 1169 00c4 3FC00000 		lis 30,Settings@ha
 1170 00c8 3BDE0000 		la 30,Settings@l(30)
 1171 00cc A13E0066 		lhz 9,102(30)
 1172 00d0 3809FFFF 		addi 0,9,-1
 1173 00d4 5400043E 		rlwinm 0,0,0,0xffff
 1174 00d8 2B800001 		cmplwi 7,0,1
 1175 00dc 409D001C 		ble- 7,.L81
 1176              	.L69:
 1177              	.LBE1270:
 1178              		.loc 3 87 0 is_stmt 1
 1179 00e0 80010034 		lwz 0,52(1)
 1180 00e4 83C10028 		lwz 30,40(1)
 1181 00e8 7C0803A6 		mtlr 0
 1182 00ec 83E1002C 		lwz 31,44(1)
 1183              	.LVL89:
 1184 00f0 38210030 		addi 1,1,48
 1185              		.cfi_remember_state
 1186              	.LCFI22:
 1187              		.cfi_def_cfa_offset 0
 1188              		.cfi_restore 31
 1189              		.cfi_restore 30
 1190 00f4 4E800020 		blr
 1191              	.LVL90:
 1192              	.L81:
 1193              	.LCFI23:
 1194              		.cfi_restore_state
 1195              	.LBB1271:
 1196              	.LBB1272:
 1197              	.LBB1273:
 1198              		.loc 3 61 0
 1199 00f8 893E0A10 		lbz 9,2576(30)
 1200 00fc 3D600000 		lis 11,frameCount@ha
 1201 0100 816B0000 		lwz 11,frameCount@l(11)
 1202 0104 3129FFFF 		addic 9,9,-1
 1203 0108 7D294910 		subfe 9,9,9
 1204 010c 7129000A 		andi. 9,9,10
 1205 0110 39290032 		addi 9,9,50
 1206 0114 7C0B4B96 		divwu 0,11,9
 1207 0118 7C0049D6 		mullw 0,0,9
 1208 011c 7C005851 		subf. 0,0,11
 1209 0120 41820024 		beq- 0,.L82
 1210              	.LVL91:
 1211              	.L72:
 1212              	.LBE1273:
 1213              		.loc 3 86 0
 1214 0124 7FE3FB78 		mr 3,31
 1215 0128 48000001 		bl _ZN8GuiFrame4DrawEv
 1216              	.LBE1272:
 1217              	.LBE1271:
 1218              		.loc 3 87 0
 1219 012c 80010034 		lwz 0,52(1)
 1220 0130 83C10028 		lwz 30,40(1)
 1221 0134 7C0803A6 		mtlr 0
 1222 0138 83E1002C 		lwz 31,44(1)
 1223              	.LVL92:
 1224 013c 38210030 		addi 1,1,48
 1225              		.cfi_remember_state
 1226              		.cfi_restore 30
 1227              		.cfi_restore 31
 1228              	.LCFI24:
 1229              		.cfi_def_cfa_offset 0
 1230 0140 4E800020 		blr
 1231              	.LVL93:
 1232              	.L82:
 1233              	.LCFI25:
 1234              		.cfi_restore_state
 1235              	.LBB1277:
 1236              	.LBB1276:
 1237              	.LBB1275:
 1238              	.LBB1274:
 1239              		.loc 3 65 0
 1240 0144 38600000 		li 3,0
 1241              		.loc 3 64 0
 1242 0148 9801000C 		stb 0,12(1)
 1243              		.loc 3 65 0
 1244 014c 48000001 		bl time
 1245 0150 7C290B78 		mr 9,1
 1246 0154 94690008 		stwu 3,8(9)
 1247              	.LVL94:
 1248              		.loc 3 66 0
 1249 0158 7D234B78 		mr 3,9
 1250 015c 48000001 		bl localtime
 1251              		.loc 3 68 0
 1252 0160 A81E0066 		lha 0,102(30)
 1253              		.loc 3 71 0
 1254 0164 3BC1000C 		addi 30,1,12
 1255              		.loc 3 66 0
 1256 0168 7C661B78 		mr 6,3
 1257              	.LVL95:
 1258              		.loc 3 68 0
 1259 016c 2F800002 		cmpwi 7,0,2
 1260              		.loc 3 70 0
 1261 0170 80010008 		lwz 0,8(1)
 1262              		.loc 3 71 0
 1263 0174 7FC3F378 		mr 3,30
 1264              	.LVL96:
 1265 0178 38800014 		li 4,20
 1266              		.loc 3 70 0
 1267 017c 70090001 		andi. 9,0,1
 1268              		.loc 3 68 0
 1269 0180 419E0040 		beq- 7,.L83
 1270              		.loc 3 77 0
 1271 0184 4182002C 		beq- 0,.L76
 1272              		.loc 3 78 0
 1273 0188 3CA00000 		lis 5,.LC6@ha
 1274 018c 38A50010 		la 5,.LC6@l(5)
 1275 0190 48000001 		bl strftime
 1276              	.LVL97:
 1277              	.L75:
 1278              		.loc 3 83 0
 1279 0194 807F00B0 		lwz 3,176(31)
 1280 0198 7FC4F378 		mr 4,30
 1281 019c 81230000 		lwz 9,0(3)
 1282 01a0 800900C8 		lwz 0,200(9)
 1283 01a4 7C0903A6 		mtctr 0
 1284 01a8 4E800421 		bctrl
 1285 01ac 4BFFFF78 		b .L72
 1286              	.LVL98:
 1287              	.L76:
 1288              		.loc 3 80 0
 1289 01b0 3CA00000 		lis 5,.LC7@ha
 1290 01b4 38A50018 		la 5,.LC7@l(5)
 1291 01b8 48000001 		bl strftime
 1292              	.LVL99:
 1293 01bc 4BFFFFD8 		b .L75
 1294              	.LVL100:
 1295              	.L83:
 1296              		.loc 3 70 0
 1297 01c0 41820014 		beq- 0,.L74
 1298              		.loc 3 71 0
 1299 01c4 3CA00000 		lis 5,.LC4@ha
 1300 01c8 38A50000 		la 5,.LC4@l(5)
 1301 01cc 48000001 		bl strftime
 1302              	.LVL101:
 1303 01d0 4BFFFFC4 		b .L75
 1304              	.LVL102:
 1305              	.L74:
 1306              		.loc 3 73 0
 1307 01d4 3CA00000 		lis 5,.LC5@ha
 1308 01d8 38A50008 		la 5,.LC5@l(5)
 1309 01dc 48000001 		bl strftime
 1310              	.LVL103:
 1311 01e0 4BFFFFB4 		b .L75
 1312              	.LBE1274:
 1313              	.LBE1275:
 1314              	.LBE1276:
 1315              	.LBE1277:
 1316              		.cfi_endproc
 1317              	.LFE1581:
 1318              		.size	_ZN5Clock4DrawEv, .-_ZN5Clock4DrawEv
 1319              		.align 2
 1320              		.globl _ZN5ClockD0Ev
 1321              		.type	_ZN5ClockD0Ev, @function
 1322              	_ZN5ClockD0Ev:
 1323              	.LFB1580:
 1324              		.loc 3 48 0
 1325              		.cfi_startproc
 1326              		.cfi_personality 0,__gxx_personality_v0
 1327              		.cfi_lsda 0,.LLSDA1580
 1328              	.LVL104:
 1329 01e4 7C0802A6 		mflr 0
 1330 01e8 9421FFF0 		stwu 1,-16(1)
 1331              	.LCFI26:
 1332              		.cfi_def_cfa_offset 16
 1333              		.cfi_register 65, 0
 1334              	.LBB1281:
 1335              	.LBB1282:
 1336              	.LBB1283:
 1337 01ec 3D200000 		lis 9,_ZTV5Clock+8@ha
 1338              	.LBE1283:
 1339              	.LBE1282:
 1340              	.LBE1281:
 1341 01f0 93E1000C 		stw 31,12(1)
 1342 01f4 7C7F1B78 		mr 31,3
 1343              		.cfi_offset 31, -4
 1344              	.LVL105:
 1345 01f8 90010014 		stw 0,20(1)
 1346              	.LBB1290:
 1347              	.LBB1287:
 1348              	.LBB1284:
 1349 01fc 38090008 		la 0,_ZTV5Clock+8@l(9)
 1350              		.cfi_offset 65, 4
 1351              	.LBE1284:
 1352              	.LBE1287:
 1353              	.LBE1290:
 1354 0200 93C10008 		stw 30,8(1)
 1355              	.LBB1291:
 1356              	.LBB1288:
 1357              	.LBB1285:
 1358              		.loc 3 48 0
 1359 0204 90030000 		stw 0,0(3)
 1360              	.LEHB3:
 1361              		.loc 3 50 0
 1362              		.cfi_offset 30, -8
 1363 0208 48000001 		bl _ZN8GuiFrame9RemoveAllEv
 1364              	.LVL106:
 1365              		.loc 3 52 0
 1366 020c 807F00B0 		lwz 3,176(31)
 1367 0210 2F830000 		cmpwi 7,3,0
 1368 0214 419E0014 		beq- 7,.L85
 1369 0218 81230000 		lwz 9,0(3)
 1370 021c 80090004 		lwz 0,4(9)
 1371 0220 7C0903A6 		mtctr 0
 1372 0224 4E800421 		bctrl
 1373              	.L85:
 1374              		.loc 3 53 0
 1375 0228 807F00B4 		lwz 3,180(31)
 1376 022c 2F830000 		cmpwi 7,3,0
 1377 0230 419E0014 		beq- 7,.L86
 1378 0234 81230000 		lwz 9,0(3)
 1379 0238 80090004 		lwz 0,4(9)
 1380 023c 7C0903A6 		mtctr 0
 1381 0240 4E800421 		bctrl
 1382              	.LEHE3:
 1383              	.L86:
 1384              		.loc 3 48 0
 1385 0244 7FE3FB78 		mr 3,31
 1386              	.LEHB4:
 1387 0248 48000001 		bl _ZN8GuiFrameD2Ev
 1388              	.LEHE4:
 1389              	.LBE1285:
 1390              	.LBE1288:
 1391              	.LBE1291:
 1392              		.loc 3 54 0
 1393 024c 7FE3FB78 		mr 3,31
 1394 0250 48000001 		bl _ZdlPv
 1395 0254 80010014 		lwz 0,20(1)
 1396 0258 83C10008 		lwz 30,8(1)
 1397 025c 7C0803A6 		mtlr 0
 1398 0260 83E1000C 		lwz 31,12(1)
 1399              	.LVL107:
 1400 0264 38210010 		addi 1,1,16
 1401              		.cfi_remember_state
 1402              	.LCFI27:
 1403              		.cfi_def_cfa_offset 0
 1404              		.cfi_restore 31
 1405              		.cfi_restore 30
 1406 0268 4E800020 		blr
 1407              	.LVL108:
 1408              	.L90:
 1409              	.LCFI28:
 1410              		.cfi_restore_state
 1411 026c 7C7E1B78 		mr 30,3
 1412              	.LBB1292:
 1413              	.LBB1289:
 1414              	.LBB1286:
 1415              		.loc 3 48 0
 1416 0270 7FE3FB78 		mr 3,31
 1417 0274 48000001 		bl _ZN8GuiFrameD2Ev
 1418 0278 7FC3F378 		mr 3,30
 1419              	.LEHB5:
 1420 027c 48000001 		bl _Unwind_Resume
 1421              	.LEHE5:
 1422              	.LBE1286:
 1423              	.LBE1289:
 1424              	.LBE1292:
 1425              		.cfi_endproc
 1426              	.LFE1580:
 1427              		.section	.gcc_except_table
 1428              	.LLSDA1580:
 1429 0012 FF       		.byte	0xff
 1430 0013 FF       		.byte	0xff
 1431 0014 01       		.byte	0x1
 1432 0015 0E       		.uleb128 .LLSDACSE1580-.LLSDACSB1580
 1433              	.LLSDACSB1580:
 1434 0016 24       		.uleb128 .LEHB3-.LFB1580
 1435 0017 3C       		.uleb128 .LEHE3-.LEHB3
 1436 0018 8801     		.uleb128 .L90-.LFB1580
 1437 001a 00       		.uleb128 0
 1438 001b 64       		.uleb128 .LEHB4-.LFB1580
 1439 001c 04       		.uleb128 .LEHE4-.LEHB4
 1440 001d 00       		.uleb128 0
 1441 001e 00       		.uleb128 0
 1442 001f 9801     		.uleb128 .LEHB5-.LFB1580
 1443 0021 04       		.uleb128 .LEHE5-.LEHB5
 1444 0022 00       		.uleb128 0
 1445 0023 00       		.uleb128 0
 1446              	.LLSDACSE1580:
 1447              		.section	".text"
 1448              		.size	_ZN5ClockD0Ev, .-_ZN5ClockD0Ev
 1449              		.align 2
 1450              		.globl _ZN5ClockC2Ev
 1451              		.type	_ZN5ClockC2Ev, @function
 1452              	_ZN5ClockC2Ev:
 1453              	.LFB1575:
 1454              		.loc 3 24 0
 1455              		.cfi_startproc
 1456              		.cfi_personality 0,__gxx_personality_v0
 1457              		.cfi_lsda 0,.LLSDA1575
 1458              	.LVL109:
 1459              	.LBB1293:
 1460              		.loc 3 25 0
 1461 0280 3D200000 		lis 9,screenwidth@ha
 1462              	.LBE1293:
 1463              		.loc 3 24 0
 1464 0284 7C0802A6 		mflr 0
 1465              	.LBB1299:
 1466              		.loc 3 25 0
 1467 0288 80890000 		lwz 4,screenwidth@l(9)
 1468 028c 3D200000 		lis 9,screenheight@ha
 1469              	.LBE1299:
 1470              		.loc 3 24 0
 1471 0290 9421FFB0 		stwu 1,-80(1)
 1472              	.LCFI29:
 1473              		.cfi_def_cfa_offset 80
 1474              		.cfi_register 65, 0
 1475              	.LBB1300:
 1476              		.loc 3 25 0
 1477 0294 38C00000 		li 6,0
 1478 0298 80A90000 		lwz 5,screenheight@l(9)
 1479              	.LBE1300:
 1480              		.loc 3 24 0
 1481 029c 90010054 		stw 0,84(1)
 1482 02a0 93E10044 		stw 31,68(1)
 1483 02a4 7C7F1B78 		mr 31,3
 1484              		.cfi_offset 31, -12
 1485              		.cfi_offset 65, 4
 1486 02a8 DBE10048 		stfd 31,72(1)
 1487 02ac 92810018 		stw 20,24(1)
 1488 02b0 92A1001C 		stw 21,28(1)
 1489 02b4 92C10020 		stw 22,32(1)
 1490 02b8 92E10024 		stw 23,36(1)
 1491 02bc 93010028 		stw 24,40(1)
 1492 02c0 9321002C 		stw 25,44(1)
 1493 02c4 93410030 		stw 26,48(1)
 1494 02c8 93610034 		stw 27,52(1)
 1495 02cc 93810038 		stw 28,56(1)
 1496 02d0 93A1003C 		stw 29,60(1)
 1497 02d4 93C10040 		stw 30,64(1)
 1498              	.LEHB6:
 1499              	.LBB1301:
 1500              		.loc 3 25 0
 1501              		.cfi_offset 30, -16
 1502              		.cfi_offset 29, -20
 1503              		.cfi_offset 28, -24
 1504              		.cfi_offset 27, -28
 1505              		.cfi_offset 26, -32
 1506              		.cfi_offset 25, -36
 1507              		.cfi_offset 24, -40
 1508              		.cfi_offset 23, -44
 1509              		.cfi_offset 22, -48
 1510              		.cfi_offset 21, -52
 1511              		.cfi_offset 20, -56
 1512              		.cfi_offset 63, -8
 1513 02d8 48000001 		bl _ZN8GuiFrameC2EiiPS_
 1514              	.LEHE6:
 1515              	.LVL110:
 1516 02dc 3D200000 		lis 9,_ZTV5Clock+8@ha
 1517              	.LBB1294:
 1518              		.loc 3 27 0
 1519 02e0 3C600000 		lis 3,.LC8@ha
 1520              	.LBE1294:
 1521              		.loc 3 25 0
 1522 02e4 38090008 		la 0,_ZTV5Clock+8@l(9)
 1523              	.LBB1295:
 1524              		.loc 3 27 0
 1525 02e8 38630020 		la 3,.LC8@l(3)
 1526              	.LBE1295:
 1527              		.loc 3 25 0
 1528 02ec 901F0000 		stw 0,0(31)
 1529              	.LEHB7:
 1530              	.LBB1296:
 1531              		.loc 3 27 0
 1532 02f0 48000001 		bl getThemeColor
 1533              		.loc 3 29 0
 1534 02f4 3FA00000 		lis 29,.LC9@ha
 1535              		.loc 3 27 0
 1536 02f8 7C7E1B78 		mr 30,3
 1537              	.LVL111:
 1538              		.loc 3 29 0
 1539 02fc 3BBD0048 		la 29,.LC9@l(29)
 1540 0300 7FA3EB78 		mr 3,29
 1541 0304 48000001 		bl getThemeFloat
 1542 0308 3D200000 		lis 9,.LC10@ha
 1543 030c C009000C 		lfs 0,.LC10@l(9)
 1544 0310 FF810000 		fcmpu 7,1,0
 1545 0314 409E025C 		bne- 7,.L101
 1546              		.loc 3 32 0
 1547 0318 3D200000 		lis 9,Settings+116@ha
 1548 031c C3E90074 		lfs 31,Settings+116@l(9)
 1549              	.LVL112:
 1550              	.L93:
 1551              		.loc 3 34 0
 1552 0320 3C00AAAA 		lis 0,0xaaaa
 1553 0324 57C9063E 		rlwinm 9,30,0,0xff
 1554 0328 6000AAAB 		ori 0,0,43691
 1555 032c 3B600000 		li 27,0
 1556 0330 7C090016 		mulhwu 0,9,0
 1557              	.LVL113:
 1558 0334 53DB000E 		rlwimi 27,30,0,0,7
 1559 0338 53DB021E 		rlwimi 27,30,0,8,15
 1560 033c 53DB042E 		rlwimi 27,30,0,16,23
 1561 0340 386000D0 		li 3,208
 1562 0344 501BF63E 		rlwimi 27,0,30,24,31
 1563 0348 48000001 		bl _Znwj
 1564              	.LEHE7:
 1565              	.LVL114:
 1566 034c 3F400000 		lis 26,Settings@ha
 1567 0350 3F200000 		lis 25,.LC12@ha
 1568 0354 3B5A0000 		la 26,Settings@l(26)
 1569 0358 C1B90010 		lfs 13,.LC12@l(25)
 1570 035c C01A0070 		lfs 0,112(26)
 1571 0360 7C3C0B78 		mr 28,1
 1572 0364 39210010 		addi 9,1,16
 1573 0368 977C0008 		stwu 27,8(28)
 1574 036c EC0D0024 		fdivs 0,13,0
 1575 0370 3C800000 		lis 4,.LC11@ha
 1576 0374 38840084 		la 4,.LC11@l(4)
 1577 0378 7F86E378 		mr 6,28
 1578 037c 7C7D1B78 		mr 29,3
 1579 0380 EC0007F2 		fmuls 0,0,31
 1580 0384 FC00001E 		fctiwz 0,0
 1581 0388 7C004FAE 		stfiwx 0,0,9
 1582 038c 80A10010 		lwz 5,16(1)
 1583              	.LEHB8:
 1584 0390 48000001 		bl _ZN7GuiTextC1EPKci9_gx_color
 1585              	.LEHE8:
 1586              		.loc 3 35 0 discriminator 1
 1587 0394 3F000000 		lis 24,.LC13@ha
 1588              		.loc 3 34 0 discriminator 1
 1589 0398 93BF00B4 		stw 29,180(31)
 1590              		.loc 3 35 0 discriminator 1
 1591 039c 813D0000 		lwz 9,0(29)
 1592 03a0 3B18008C 		la 24,.LC13@l(24)
 1593 03a4 7F03C378 		mr 3,24
 1594 03a8 82E900B4 		lwz 23,180(9)
 1595              	.LEHB9:
 1596 03ac 48000001 		bl getThemeAlignment
 1597 03b0 3EA00000 		lis 21,.LC14@ha
 1598 03b4 7C7B1B78 		mr 27,3
 1599 03b8 3AB500A4 		la 21,.LC14@l(21)
 1600 03bc 7EA3AB78 		mr 3,21
 1601 03c0 48000001 		bl getThemeAlignment
 1602 03c4 7C64DB78 		or 4,3,27
 1603 03c8 7EE903A6 		mtctr 23
 1604 03cc 7FA3EB78 		mr 3,29
 1605 03d0 4E800421 		bctrl
 1606              		.loc 3 36 0
 1607 03d4 83BF00B4 		lwz 29,180(31)
 1608 03d8 3EE00000 		lis 23,.LC15@ha
 1609 03dc 3AF700BC 		la 23,.LC15@l(23)
 1610 03e0 813D0000 		lwz 9,0(29)
 1611 03e4 7EE3BB78 		mr 3,23
 1612 03e8 828900A8 		lwz 20,168(9)
 1613 03ec 48000001 		bl getThemeInt
 1614 03f0 3EC00000 		lis 22,.LC16@ha
 1615 03f4 7C7B1B78 		mr 27,3
 1616 03f8 3AD600D0 		la 22,.LC16@l(22)
 1617 03fc 7EC3B378 		mr 3,22
 1618 0400 48000001 		bl getThemeInt
 1619              		.loc 3 36 0 is_stmt 0 discriminator 1
 1620 0404 7C651B78 		mr 5,3
 1621 0408 7F64DB78 		mr 4,27
 1622 040c 7FA3EB78 		mr 3,29
 1623 0410 7E8903A6 		mtctr 20
 1624 0414 4E800421 		bctrl
 1625              		.loc 3 37 0 is_stmt 1
 1626 0418 3FA00000 		lis 29,.LC17@ha
 1627 041c 837F00B4 		lwz 27,180(31)
 1628 0420 3BBD00E4 		la 29,.LC17@l(29)
 1629 0424 7FA3EB78 		mr 3,29
 1630 0428 48000001 		bl _ZN9Resources7GetFileEPKc
 1631 042c 7C741B78 		mr 20,3
 1632 0430 7FA3EB78 		mr 3,29
 1633 0434 48000001 		bl _ZN9Resources11GetFileSizeEPKc
 1634              		.loc 3 37 0 is_stmt 0 discriminator 1
 1635 0438 7C651B78 		mr 5,3
 1636 043c 7E84A378 		mr 4,20
 1637 0440 7F63DB78 		mr 3,27
 1638 0444 48000001 		bl _ZN7GuiText7SetFontEPKhj
 1639              		.loc 3 39 0 is_stmt 1
 1640 0448 386000D0 		li 3,208
 1641 044c 48000001 		bl _Znwj
 1642              	.LEHE9:
 1643 0450 C01A0070 		lfs 0,112(26)
 1644 0454 3921000C 		addi 9,1,12
 1645 0458 C1B90010 		lfs 13,.LC12@l(25)
 1646 045c 3C800000 		lis 4,.LC18@ha
 1647 0460 93C10008 		stw 30,8(1)
 1648 0464 388400F0 		la 4,.LC18@l(4)
 1649 0468 EC0D0024 		fdivs 0,13,0
 1650 046c 7F86E378 		mr 6,28
 1651 0470 7C7B1B78 		mr 27,3
 1652 0474 EFE007F2 		fmuls 31,0,31
 1653              	.LVL115:
 1654 0478 FFE0F81E 		fctiwz 31,31
 1655 047c 7FE04FAE 		stfiwx 31,0,9
 1656 0480 80A1000C 		lwz 5,12(1)
 1657              	.LEHB10:
 1658 0484 48000001 		bl _ZN7GuiTextC1EPKci9_gx_color
 1659              	.LEHE10:
 1660              		.loc 3 39 0 is_stmt 0 discriminator 1
 1661 0488 937F00B0 		stw 27,176(31)
 1662              		.loc 3 40 0 is_stmt 1 discriminator 1
 1663 048c 7F03C378 		mr 3,24
 1664 0490 813B0000 		lwz 9,0(27)
 1665 0494 838900B4 		lwz 28,180(9)
 1666              	.LEHB11:
 1667 0498 48000001 		bl getThemeAlignment
 1668 049c 7C7E1B78 		mr 30,3
 1669              	.LVL116:
 1670 04a0 7EA3AB78 		mr 3,21
 1671 04a4 48000001 		bl getThemeAlignment
 1672 04a8 7C64F378 		or 4,3,30
 1673 04ac 7F8903A6 		mtctr 28
 1674 04b0 7F63DB78 		mr 3,27
 1675 04b4 4E800421 		bctrl
 1676              		.loc 3 41 0
 1677 04b8 83DF00B0 		lwz 30,176(31)
 1678 04bc 7EE3BB78 		mr 3,23
 1679 04c0 813E0000 		lwz 9,0(30)
 1680 04c4 838900A8 		lwz 28,168(9)
 1681 04c8 48000001 		bl getThemeInt
 1682 04cc 7C7B1B78 		mr 27,3
 1683 04d0 7EC3B378 		mr 3,22
 1684 04d4 48000001 		bl getThemeInt
 1685              		.loc 3 41 0 is_stmt 0 discriminator 1
 1686 04d8 7C651B78 		mr 5,3
 1687 04dc 7F64DB78 		mr 4,27
 1688 04e0 7FC3F378 		mr 3,30
 1689 04e4 7F8903A6 		mtctr 28
 1690 04e8 4E800421 		bctrl
 1691              		.loc 3 42 0 is_stmt 1
 1692 04ec 7FA3EB78 		mr 3,29
 1693 04f0 839F00B0 		lwz 28,176(31)
 1694 04f4 48000001 		bl _ZN9Resources7GetFileEPKc
 1695 04f8 7C7E1B78 		mr 30,3
 1696 04fc 7FA3EB78 		mr 3,29
 1697 0500 48000001 		bl _ZN9Resources11GetFileSizeEPKc
 1698              		.loc 3 42 0 is_stmt 0 discriminator 1
 1699 0504 7C651B78 		mr 5,3
 1700 0508 7FC4F378 		mr 4,30
 1701 050c 7F83E378 		mr 3,28
 1702 0510 48000001 		bl _ZN7GuiText7SetFontEPKhj
 1703              		.loc 3 44 0 is_stmt 1
 1704 0514 809F00B4 		lwz 4,180(31)
 1705 0518 7FE3FB78 		mr 3,31
 1706 051c 48000001 		bl _ZN8GuiFrame6AppendEP10GuiElement
 1707              		.loc 3 45 0
 1708 0520 809F00B0 		lwz 4,176(31)
 1709 0524 7FE3FB78 		mr 3,31
 1710 0528 48000001 		bl _ZN8GuiFrame6AppendEP10GuiElement
 1711              	.LBE1296:
 1712              	.LBE1301:
 1713              		.loc 3 46 0
 1714 052c 80010054 		lwz 0,84(1)
 1715 0530 82810018 		lwz 20,24(1)
 1716 0534 7C0803A6 		mtlr 0
 1717 0538 82A1001C 		lwz 21,28(1)
 1718 053c 82C10020 		lwz 22,32(1)
 1719 0540 82E10024 		lwz 23,36(1)
 1720 0544 83010028 		lwz 24,40(1)
 1721 0548 8321002C 		lwz 25,44(1)
 1722 054c 83410030 		lwz 26,48(1)
 1723 0550 83610034 		lwz 27,52(1)
 1724 0554 83810038 		lwz 28,56(1)
 1725 0558 83A1003C 		lwz 29,60(1)
 1726 055c 83C10040 		lwz 30,64(1)
 1727 0560 83E10044 		lwz 31,68(1)
 1728              	.LVL117:
 1729 0564 CBE10048 		lfd 31,72(1)
 1730 0568 38210050 		addi 1,1,80
 1731              		.cfi_remember_state
 1732              	.LCFI30:
 1733              		.cfi_def_cfa_offset 0
 1734              		.cfi_restore 63
 1735              		.cfi_restore 31
 1736              		.cfi_restore 30
 1737              		.cfi_restore 29
 1738              		.cfi_restore 28
 1739              		.cfi_restore 27
 1740              		.cfi_restore 26
 1741              		.cfi_restore 25
 1742              		.cfi_restore 24
 1743              		.cfi_restore 23
 1744              		.cfi_restore 22
 1745              		.cfi_restore 21
 1746              		.cfi_restore 20
 1747 056c 4E800020 		blr
 1748              	.LVL118:
 1749              	.L101:
 1750              	.LCFI31:
 1751              		.cfi_restore_state
 1752              	.LBB1302:
 1753              	.LBB1297:
 1754              		.loc 3 30 0
 1755 0570 7FA3EB78 		mr 3,29
 1756 0574 48000001 		bl getThemeFloat
 1757              	.LEHE11:
 1758 0578 FFE00890 		fmr 31,1
 1759 057c 4BFFFDA4 		b .L93
 1760              	.LVL119:
 1761              	.L97:
 1762 0580 7C7E1B78 		mr 30,3
 1763              	.LVL120:
 1764              	.L95:
 1765              	.LBE1297:
 1766              		.loc 3 25 0
 1767 0584 7FE3FB78 		mr 3,31
 1768 0588 48000001 		bl _ZN8GuiFrameD2Ev
 1769 058c 7FC3F378 		mr 3,30
 1770              	.LEHB12:
 1771 0590 48000001 		bl _Unwind_Resume
 1772              	.LEHE12:
 1773              	.LVL121:
 1774              	.L99:
 1775 0594 7C7E1B78 		mr 30,3
 1776              	.LVL122:
 1777              	.LBB1298:
 1778              		.loc 3 39 0
 1779 0598 7F63DB78 		mr 3,27
 1780 059c 48000001 		bl _ZdlPv
 1781 05a0 4BFFFFE4 		b .L95
 1782              	.LVL123:
 1783              	.L98:
 1784 05a4 7C7E1B78 		mr 30,3
 1785              	.LVL124:
 1786              		.loc 3 34 0
 1787 05a8 7FA3EB78 		mr 3,29
 1788 05ac 48000001 		bl _ZdlPv
 1789 05b0 4BFFFFD4 		b .L95
 1790              	.LBE1298:
 1791              	.LBE1302:
 1792              		.cfi_endproc
 1793              	.LFE1575:
 1794              		.section	.gcc_except_table
 1795              	.LLSDA1575:
 1796 0024 FF       		.byte	0xff
 1797 0025 FF       		.byte	0xff
 1798 0026 01       		.byte	0x1
 1799 0027 28       		.uleb128 .LLSDACSE1575-.LLSDACSB1575
 1800              	.LLSDACSB1575:
 1801 0028 58       		.uleb128 .LEHB6-.LFB1575
 1802 0029 04       		.uleb128 .LEHE6-.LEHB6
 1803 002a 00       		.uleb128 0
 1804 002b 00       		.uleb128 0
 1805 002c 70       		.uleb128 .LEHB7-.LFB1575
 1806 002d 5C       		.uleb128 .LEHE7-.LEHB7
 1807 002e 8006     		.uleb128 .L97-.LFB1575
 1808 0030 00       		.uleb128 0
 1809 0031 9002     		.uleb128 .LEHB8-.LFB1575
 1810 0033 04       		.uleb128 .LEHE8-.LEHB8
 1811 0034 A406     		.uleb128 .L98-.LFB1575
 1812 0036 00       		.uleb128 0
 1813 0037 AC02     		.uleb128 .LEHB9-.LFB1575
 1814 0039 A401     		.uleb128 .LEHE9-.LEHB9
 1815 003b 8006     		.uleb128 .L97-.LFB1575
 1816 003d 00       		.uleb128 0
 1817 003e 8404     		.uleb128 .LEHB10-.LFB1575
 1818 0040 04       		.uleb128 .LEHE10-.LEHB10
 1819 0041 9406     		.uleb128 .L99-.LFB1575
 1820 0043 00       		.uleb128 0
 1821 0044 9804     		.uleb128 .LEHB11-.LFB1575
 1822 0046 E001     		.uleb128 .LEHE11-.LEHB11
 1823 0048 8006     		.uleb128 .L97-.LFB1575
 1824 004a 00       		.uleb128 0
 1825 004b 9006     		.uleb128 .LEHB12-.LFB1575
 1826 004d 04       		.uleb128 .LEHE12-.LEHB12
 1827 004e 00       		.uleb128 0
 1828 004f 00       		.uleb128 0
 1829              	.LLSDACSE1575:
 1830              		.section	".text"
 1831              		.size	_ZN5ClockC2Ev, .-_ZN5ClockC2Ev
 1832              		.weak	_ZTS5Clock
 1833              		.section	.sdata._ZTS5Clock,"awG",@progbits,_ZTS5Clock,comdat
 1834              		.align 2
 1835              		.type	_ZTS5Clock, @object
 1836              		.size	_ZTS5Clock, 7
 1837              	_ZTS5Clock:
 1838 0000 35436C6F 		.string	"5Clock"
 1838      636B00
 1839              		.weak	_ZTI5Clock
 1840              		.section	.rodata._ZTI5Clock,"aG",@progbits,_ZTI5Clock,comdat
 1841              		.align 2
 1842              		.type	_ZTI5Clock, @object
 1843              		.size	_ZTI5Clock, 12
 1844              	_ZTI5Clock:
 1845 0000 00000008 		.long	_ZTVN10__cxxabiv120__si_class_type_infoE+8
 1846 0004 00000000 		.long	_ZTS5Clock
 1847 0008 00000000 		.long	_ZTI8GuiFrame
 1848              		.weak	_ZTV5Clock
 1849              		.section	.rodata._ZTV5Clock,"aG",@progbits,_ZTV5Clock,comdat
 1850              		.align 3
 1851              		.type	_ZTV5Clock, @object
 1852              		.size	_ZTV5Clock, 228
 1853              	_ZTV5Clock:
 1854 0000 00000000 		.long	0
 1855 0004 00000000 		.long	_ZTI5Clock
 1856 0008 00000000 		.long	_ZN5ClockD1Ev
 1857 000c 00000000 		.long	_ZN5ClockD0Ev
 1858 0010 00000000 		.long	_ZN10GuiElement9SetParentEPS_
 1859 0014 00000000 		.long	_ZN10GuiElement9GetParentEv
 1860 0018 00000000 		.long	_ZN10GuiElement7GetLeftEv
 1861 001c 00000000 		.long	_ZN10GuiElement6GetTopEv
 1862 0020 00000000 		.long	_ZN10GuiElement12GetZPositionEv
 1863 0024 00000000 		.long	_ZN10GuiElement10GetLeftPosEv
 1864 0028 00000000 		.long	_ZN10GuiElement9GetTopPosEv
 1865 002c 00000000 		.long	_ZN10GuiElement8GetWidthEv
 1866 0030 00000000 		.long	_ZN10GuiElement9GetHeightEv
 1867 0034 00000000 		.long	_ZN10GuiElement7SetSizeEii
 1868 0038 00000000 		.long	_ZN8GuiFrame10SetVisibleEb
 1869 003c 00000000 		.long	_ZN10GuiElement9IsVisibleEv
 1870 0040 00000000 		.long	_ZN10GuiElement12IsSelectableEv
 1871 0044 00000000 		.long	_ZN10GuiElement11IsClickableEv
 1872 0048 00000000 		.long	_ZN10GuiElement10IsHoldableEv
 1873 004c 00000000 		.long	_ZN10GuiElement13SetSelectableEb
 1874 0050 00000000 		.long	_ZN10GuiElement12SetClickableEb
 1875 0054 00000000 		.long	_ZN10GuiElement11SetHoldableEb
 1876 0058 00000000 		.long	_ZN10GuiElement8SetStateEii
 1877 005c 00000000 		.long	_ZN10GuiElement8GetStateEv
 1878 0060 00000000 		.long	_ZN10GuiElement12GetStateChanEv
 1879 0064 00000000 		.long	_ZN8GuiFrame10ResetStateEv
 1880 0068 00000000 		.long	_ZN10GuiElement8SetAlphaEi
 1881 006c 00000000 		.long	_ZN10GuiElement8GetAlphaEv
 1882 0070 00000000 		.long	_ZN10GuiElement8SetScaleEf
 1883 0074 00000000 		.long	_ZN10GuiElement9SetScaleXEf
 1884 0078 00000000 		.long	_ZN10GuiElement9SetScaleYEf
 1885 007c 00000000 		.long	_ZN10GuiElement8GetScaleEv
 1886 0080 00000000 		.long	_ZN10GuiElement9GetScaleXEv
 1887 0084 00000000 		.long	_ZN10GuiElement9GetScaleYEv
 1888 0088 00000000 		.long	_ZN10GuiElement6RumbleEv
 1889 008c 00000000 		.long	_ZN10GuiElement9SetRumbleEb
 1890 0090 00000000 		.long	_ZN10GuiElement9SetEffectEiii
 1891 0094 00000000 		.long	_ZN10GuiElement15SetEffectOnOverEiii
 1892 0098 00000000 		.long	_ZN10GuiElement13SetEffectGrowEv
 1893 009c 00000000 		.long	_ZN10GuiElement12ResetEffectsEv
 1894 00a0 00000000 		.long	_ZNK10GuiElement9GetEffectEv
 1895 00a4 00000000 		.long	_ZNK10GuiElement10IsAnimatedEv
 1896 00a8 00000000 		.long	_ZN8GuiFrame9SetBoundsE4RectIiE
 1897 00ac 00000000 		.long	_ZN10GuiElement8IsInsideEii
 1898 00b0 00000000 		.long	_ZN10GuiElement11SetPositionEii
 1899 00b4 00000000 		.long	_ZN10GuiElement11SetPositionEiii
 1900 00b8 00000000 		.long	_ZN8GuiFrame11GetSelectedEv
 1901 00bc 00000000 		.long	_ZN10GuiElement12SetAlignmentEi
 1902 00c0 00000000 		.long	_ZNK10GuiElement12GetAlignmentEv
 1903 00c4 00000000 		.long	_ZN8GuiFrame6UpdateEP10GuiTrigger
 1904 00c8 00000000 		.long	_ZN5Clock4DrawEv
 1905 00cc 00000000 		.long	_ZN10GuiElement13UpdateEffectsEv
 1906 00d0 00000000 		.long	_ZN8GuiFrame5CloseEv
 1907 00d4 00000000 		.long	_ZN8GuiFrame4showEv
 1908 00d8 00000000 		.long	_ZN8GuiFrame4hideEv
 1909 00dc 00000000 		.long	_ZN8GuiFrame4execEv
 1910 00e0 00000000 		.long	_ZN8GuiFrame12updateEventsEv
 1911              		.globl _ZN5ClockD1Ev
 1912              		.set	_ZN5ClockD1Ev,_ZN5ClockD2Ev
 1913              		.globl _ZN5ClockC1Ev
 1914              		.set	_ZN5ClockC1Ev,_ZN5ClockC2Ev
 1915              		.section	.rodata.cst4,"aM",@progbits,4
 1916              		.align 2
 1917              	.LC1:
 1918 0000 59800004 		.4byte	1501560836
 1919              	.LC2:
 1920 0004 437F0000 		.4byte	1132396544
 1921              	.LC3:
 1922 0008 3F000000 		.4byte	1056964608
 1923              	.LC10:
 1924 000c 3F800000 		.4byte	1065353216
 1925              	.LC12:
 1926 0010 42200000 		.4byte	1109393408
 1927              		.section	.rodata.str1.4,"aMS",@progbits,1
 1928              		.align 2
 1929              	.LC4:
 1930 0000 25482025 		.string	"%H %M"
 1930      4D00
 1931 0006 0000     		.zero	2
 1932              	.LC5:
 1933 0008 25483A25 		.string	"%H:%M"
 1933      4D00
 1934 000e 0000     		.zero	2
 1935              	.LC6:
 1936 0010 25492025 		.string	"%I %M"
 1936      4D00
 1937 0016 0000     		.zero	2
 1938              	.LC7:
 1939 0018 25493A25 		.string	"%I:%M"
 1939      4D00
 1940 001e 0000     		.zero	2
 1941              	.LC8:
 1942 0020 723D3133 		.string	"r=138 g=138 b=138 a=240 - clock color"
 1942      3820673D 
 1942      31333820 
 1942      623D3133 
 1942      3820613D 
 1943 0046 0000     		.zero	2
 1944              	.LC9:
 1945 0048 312E3020 		.string	"1.0 - Overrided clock scale factor. 1.0=allow user setting"
 1945      2D204F76 
 1945      65727269 
 1945      64656420 
 1945      636C6F63 
 1946 0083 00       		.zero	1
 1947              	.LC11:
 1948 0084 38383A38 		.string	"88:88"
 1948      3800
 1949 008a 0000     		.zero	2
 1950              	.LC13:
 1951 008c 6C656674 		.string	"left - clock align hor"
 1951      202D2063 
 1951      6C6F636B 
 1951      20616C69 
 1951      676E2068 
 1952 00a3 00       		.zero	1
 1953              	.LC14:
 1954 00a4 746F7020 		.string	"top - clock align ver"
 1954      2D20636C 
 1954      6F636B20 
 1954      616C6967 
 1954      6E207665 
 1955 00ba 0000     		.zero	2
 1956              	.LC15:
 1957 00bc 32373520 		.string	"275 - clock pos x"
 1957      2D20636C 
 1957      6F636B20 
 1957      706F7320 
 1957      7800
 1958 00ce 0000     		.zero	2
 1959              	.LC16:
 1960 00d0 33343020 		.string	"340 - clock pos y"
 1960      2D20636C 
 1960      6F636B20 
 1960      706F7320 
 1960      7900
 1961 00e2 0000     		.zero	2
 1962              	.LC17:
 1963 00e4 636C6F63 		.string	"clock.ttf"
 1963      6B2E7474 
 1963      6600
 1964 00ee 0000     		.zero	2
 1965              	.LC18:
 1966 00f0 00       		.string	""
 1967              		.section	".text"
 1968              	.Letext0:
 1969              		.file 4 "d:\\devkitpro\\devkitppc\\bin\\../lib/gcc/powerpc-eabi/4.6.3/../../../../powerpc-eabi/inc
 1970              		.file 5 "d:\\devkitpro\\devkitppc\\bin\\../lib/gcc/powerpc-eabi/4.6.3/../../../../powerpc-eabi/inc
 1971              		.file 6 "d:\\devkitpro\\devkitppc\\bin\\../lib/gcc/powerpc-eabi/4.6.3/include/stddef.h"
 1972              		.file 7 "d:\\devkitpro\\devkitppc\\bin\\../lib/gcc/powerpc-eabi/4.6.3/../../../../powerpc-eabi/inc
 1973              		.file 8 "d:\\devkitpro\\devkitppc\\bin\\../lib/gcc/powerpc-eabi/4.6.3/../../../../powerpc-eabi/inc
 1974              		.file 9 "d:\\devkitpro\\devkitppc\\bin\\../lib/gcc/powerpc-eabi/4.6.3/../../../../powerpc-eabi/inc
 1975              		.file 10 "d:\\devkitpro\\devkitppc\\bin\\../lib/gcc/powerpc-eabi/4.6.3/../../../../powerpc-eabi/in
 1976              		.file 11 "d:\\devkitpro\\devkitppc\\bin\\../lib/gcc/powerpc-eabi/4.6.3/../../../../powerpc-eabi/in
 1977              		.file 12 "d:/devkitPro/libogc/include/gctypes.h"
 1978              		.file 13 "d:/devkitPro/libogc/include/ogc/gx.h"
 1979              		.file 14 "<built-in>"
 1980              		.file 15 "d:\\devkitpro\\devkitppc\\bin\\../lib/gcc/powerpc-eabi/4.6.3/../../../../powerpc-eabi/in
 1981              		.file 16 "d:\\devkitpro\\devkitppc\\bin\\../lib/gcc/powerpc-eabi/4.6.3/../../../../powerpc-eabi/in
 1982              		.file 17 "d:\\devkitpro\\devkitppc\\bin\\../lib/gcc/powerpc-eabi/4.6.3/../../../../powerpc-eabi/in
 1983              		.file 18 "d:\\devkitpro\\devkitppc\\bin\\../lib/gcc/powerpc-eabi/4.6.3/../../../../powerpc-eabi/in
 1984              		.file 19 "d:\\devkitpro\\devkitppc\\bin\\../lib/gcc/powerpc-eabi/4.6.3/../../../../powerpc-eabi/in
 1985              		.file 20 "d:\\devkitpro\\devkitppc\\bin\\../lib/gcc/powerpc-eabi/4.6.3/../../../../powerpc-eabi/in
 1986              		.file 21 "d:\\devkitpro\\devkitppc\\bin\\../lib/gcc/powerpc-eabi/4.6.3/../../../../powerpc-eabi/in
 1987              		.file 22 "d:\\devkitpro\\devkitppc\\bin\\../lib/gcc/powerpc-eabi/4.6.3/../../../../powerpc-eabi/in
 1988              		.file 23 "d:\\devkitpro\\devkitppc\\bin\\../lib/gcc/powerpc-eabi/4.6.3/../../../../powerpc-eabi/in
 1989              		.file 24 "d:\\devkitpro\\devkitppc\\bin\\../lib/gcc/powerpc-eabi/4.6.3/../../../../powerpc-eabi/in
 1990              		.file 25 "d:\\devkitpro\\devkitppc\\bin\\../lib/gcc/powerpc-eabi/4.6.3/../../../../powerpc-eabi/in
 1991              		.file 26 "d:\\devkitpro\\devkitppc\\bin\\../lib/gcc/powerpc-eabi/4.6.3/../../../../powerpc-eabi/in
 1992              		.file 27 "d:\\devkitpro\\devkitppc\\bin\\../lib/gcc/powerpc-eabi/4.6.3/../../../../powerpc-eabi/in
 1993              		.file 28 "d:\\devkitpro\\devkitppc\\bin\\../lib/gcc/powerpc-eabi/4.6.3/../../../../powerpc-eabi/in
 1994              		.file 29 "d:\\devkitpro\\devkitppc\\bin\\../lib/gcc/powerpc-eabi/4.6.3/../../../../powerpc-eabi/in
 1995              		.file 30 "d:\\devkitpro\\devkitppc\\bin\\../lib/gcc/powerpc-eabi/4.6.3/../../../../powerpc-eabi/in
 1996              		.file 31 "d:\\devkitpro\\devkitppc\\bin\\../lib/gcc/powerpc-eabi/4.6.3/../../../../powerpc-eabi/in
 1997              		.file 32 "d:\\devkitpro\\devkitppc\\bin\\../lib/gcc/powerpc-eabi/4.6.3/../../../../powerpc-eabi/in
 1998              		.file 33 "d:\\devkitpro\\devkitppc\\bin\\../lib/gcc/powerpc-eabi/4.6.3/../../../../powerpc-eabi/in
 1999              		.file 34 "d:\\devkitpro\\devkitppc\\bin\\../lib/gcc/powerpc-eabi/4.6.3/../../../../powerpc-eabi/in
 2000              		.file 35 "d:\\devkitpro\\devkitppc\\bin\\../lib/gcc/powerpc-eabi/4.6.3/../../../../powerpc-eabi/in
 2001              		.file 36 "d:/Projects/SaveGameManager/savegame-manager-gx/trunk/source/Menu/../GUI/../Settings/../
 2002              		.file 37 "d:/Projects/SaveGameManager/savegame-manager-gx/trunk/source/Menu/../GUI/../Settings/../
 2003              		.file 38 "d:/Projects/SaveGameManager/savegame-manager-gx/trunk/source/Menu/../GUI/../Settings/CSe
 2004              		.file 39 "d:/Projects/SaveGameManager/savegame-manager-gx/trunk/source/Menu/../GUI/../Tools/Rect.h
 2005              		.file 40 "d:/Projects/SaveGameManager/savegame-manager-gx/trunk/source/Menu/../GUI/../Settings/Set
 2006              		.file 41 "d:/Projects/SaveGameManager/savegame-manager-gx/trunk/source/Menu/../GUI/../sigslot.h"
 2007              		.file 42 "d:\\devkitpro\\devkitppc\\bin\\../lib/gcc/powerpc-eabi/4.6.3/../../../../powerpc-eabi/in
 2008              		.file 43 "d:\\devkitpro\\devkitppc\\bin\\../lib/gcc/powerpc-eabi/4.6.3/../../../../powerpc-eabi/in
 2009              		.file 44 "d:\\devkitpro\\devkitppc\\bin\\../lib/gcc/powerpc-eabi/4.6.3/../../../../powerpc-eabi/in
 2010              		.file 45 "d:\\devkitpro\\devkitppc\\bin\\../lib/gcc/powerpc-eabi/4.6.3/../../../../powerpc-eabi/in
 2011              		.file 46 "d:/Projects/SaveGameManager/savegame-manager-gx/trunk/source/Menu/Clock.h"
 2012              		.file 47 "d:\\devkitpro\\devkitppc\\bin\\../lib/gcc/powerpc-eabi/4.6.3/../../../../powerpc-eabi/in
 2013              		.file 48 "d:/Projects/SaveGameManager/savegame-manager-gx/trunk/source/Menu/../GUI/../stdafx.h"