   1              		.file	"ControlsSettingsMenu.cpp"
   2              		.section	".text"
   3              	.Ltext0:
   4              		.section	.text._ZN7sigslot15single_threaded4lockEv,"axG",@progbits,_ZN7sigslot15single_threaded4lo
   5              		.align 2
   6              		.weak	_ZN7sigslot15single_threaded4lockEv
   7              		.type	_ZN7sigslot15single_threaded4lockEv, @function
   8              	_ZN7sigslot15single_threaded4lockEv:
   9              	.LFB1151:
  10              		.file 1 "d:/Projects/SaveGameManager/savegame-manager-gx/trunk/source/Settings/menus/../../GUI/../
  11              		.loc 1 109 0
  12              		.cfi_startproc
  13              	.LVL0:
  14              		.loc 1 112 0
  15 0000 4E800020 		blr
  16              		.cfi_endproc
  17              	.LFE1151:
  18              		.size	_ZN7sigslot15single_threaded4lockEv, .-_ZN7sigslot15single_threaded4lockEv
  19              		.section	.text._ZN7sigslot15single_threaded6unlockEv,"axG",@progbits,_ZN7sigslot15single_threaded6
  20              		.align 2
  21              		.weak	_ZN7sigslot15single_threaded6unlockEv
  22              		.type	_ZN7sigslot15single_threaded6unlockEv, @function
  23              	_ZN7sigslot15single_threaded6unlockEv:
  24              	.LFB1152:
  25              		.loc 1 114 0
  26              		.cfi_startproc
  27              	.LVL1:
  28              		.loc 1 117 0
  29 0000 4E800020 		blr
  30              		.cfi_endproc
  31              	.LFE1152:
  32              		.size	_ZN7sigslot15single_threaded6unlockEv, .-_ZN7sigslot15single_threaded6unlockEv
  33              		.section	.text._ZN10GuiElement9SetParentEPS_,"axG",@progbits,_ZN10GuiElement9SetParentEPS_,comdat
  34              		.align 2
  35              		.weak	_ZN10GuiElement9SetParentEPS_
  36              		.type	_ZN10GuiElement9SetParentEPS_, @function
  37              	_ZN10GuiElement9SetParentEPS_:
  38              	.LFB1384:
  39              		.file 2 "d:/Projects/SaveGameManager/savegame-manager-gx/trunk/source/Settings/menus/../../GUI/gui
  40              		.loc 2 92 0
  41              		.cfi_startproc
  42              	.LVL2:
  43              		.loc 2 92 0
  44 0000 90830060 		stw 4,96(3)
  45 0004 4E800020 		blr
  46              		.cfi_endproc
  47              	.LFE1384:
  48              		.size	_ZN10GuiElement9SetParentEPS_, .-_ZN10GuiElement9SetParentEPS_
  49              		.section	.text._ZN10GuiElement9GetParentEv,"axG",@progbits,_ZN10GuiElement9GetParentEv,comdat
  50              		.align 2
  51              		.weak	_ZN10GuiElement9GetParentEv
  52              		.type	_ZN10GuiElement9GetParentEv, @function
  53              	_ZN10GuiElement9GetParentEv:
  54              	.LFB1385:
  55              		.loc 2 95 0
  56              		.cfi_startproc
  57              	.LVL3:
  58              		.loc 2 95 0
  59 0000 80630060 		lwz 3,96(3)
  60              	.LVL4:
  61 0004 4E800020 		blr
  62              		.cfi_endproc
  63              	.LFE1385:
  64              		.size	_ZN10GuiElement9GetParentEv, .-_ZN10GuiElement9GetParentEv
  65              		.section	.text._ZN10GuiElement12GetZPositionEv,"axG",@progbits,_ZN10GuiElement12GetZPositionEv,com
  66              		.align 2
  67              		.weak	_ZN10GuiElement12GetZPositionEv
  68              		.type	_ZN10GuiElement12GetZPositionEv, @function
  69              	_ZN10GuiElement12GetZPositionEv:
  70              	.LFB1386:
  71              		.loc 2 106 0
  72              		.cfi_startproc
  73              	.LVL5:
  74 0000 7C0802A6 		mflr 0
  75 0004 9421FFF0 		stwu 1,-16(1)
  76              	.LCFI0:
  77              		.cfi_def_cfa_offset 16
  78              		.cfi_register 65, 0
  79 0008 93E1000C 		stw 31,12(1)
  80 000c 7C7F1B78 		mr 31,3
  81              		.cfi_offset 31, -4
  82 0010 90010014 		stw 0,20(1)
  83              	.LBB1315:
  84              		.loc 2 110 0
  85 0014 81630060 		lwz 11,96(3)
  86              		.loc 2 108 0
  87 0018 38600000 		li 3,0
  88              	.LVL6:
  89              		.loc 2 110 0
  90 001c 2F8B0000 		cmpwi 7,11,0
  91 0020 419E0018 		beq- 7,.L6
  92              		.cfi_offset 65, 4
  93              		.loc 2 111 0
  94 0024 812B0000 		lwz 9,0(11)
  95 0028 7D635B78 		mr 3,11
  96 002c 80090018 		lwz 0,24(9)
  97 0030 7C0903A6 		mtctr 0
  98 0034 4E800421 		bctrl
  99              	.LVL7:
 100              	.L6:
 101              		.loc 2 113 0
 102 0038 801F0034 		lwz 0,52(31)
 103              	.LBE1315:
 104              		.loc 2 114 0
 105 003c 83E1000C 		lwz 31,12(1)
 106              	.LVL8:
 107 0040 7C630214 		add 3,3,0
 108              	.LVL9:
 109 0044 80010014 		lwz 0,20(1)
 110 0048 38210010 		addi 1,1,16
 111              	.LCFI1:
 112              		.cfi_def_cfa_offset 0
 113              		.cfi_restore 31
 114 004c 7C0803A6 		mtlr 0
 115 0050 4E800020 		blr
 116              		.cfi_endproc
 117              	.LFE1386:
 118              		.size	_ZN10GuiElement12GetZPositionEv, .-_ZN10GuiElement12GetZPositionEv
 119              		.section	.text._ZN10GuiElement10GetLeftPosEv,"axG",@progbits,_ZN10GuiElement10GetLeftPosEv,comdat
 120              		.align 2
 121              		.weak	_ZN10GuiElement10GetLeftPosEv
 122              		.type	_ZN10GuiElement10GetLeftPosEv, @function
 123              	_ZN10GuiElement10GetLeftPosEv:
 124              	.LFB1387:
 125              		.loc 2 116 0
 126              		.cfi_startproc
 127              	.LVL10:
 128              		.loc 2 116 0
 129 0000 8063002C 		lwz 3,44(3)
 130              	.LVL11:
 131 0004 4E800020 		blr
 132              		.cfi_endproc
 133              	.LFE1387:
 134              		.size	_ZN10GuiElement10GetLeftPosEv, .-_ZN10GuiElement10GetLeftPosEv
 135              		.section	.text._ZN10GuiElement9GetTopPosEv,"axG",@progbits,_ZN10GuiElement9GetTopPosEv,comdat
 136              		.align 2
 137              		.weak	_ZN10GuiElement9GetTopPosEv
 138              		.type	_ZN10GuiElement9GetTopPosEv, @function
 139              	_ZN10GuiElement9GetTopPosEv:
 140              	.LFB1388:
 141              		.loc 2 118 0
 142              		.cfi_startproc
 143              	.LVL12:
 144              		.loc 2 118 0
 145 0000 80630030 		lwz 3,48(3)
 146              	.LVL13:
 147 0004 4E800020 		blr
 148              		.cfi_endproc
 149              	.LFE1388:
 150              		.size	_ZN10GuiElement9GetTopPosEv, .-_ZN10GuiElement9GetTopPosEv
 151              		.section	.text._ZN10GuiElement8GetWidthEv,"axG",@progbits,_ZN10GuiElement8GetWidthEv,comdat
 152              		.align 2
 153              		.weak	_ZN10GuiElement8GetWidthEv
 154              		.type	_ZN10GuiElement8GetWidthEv, @function
 155              	_ZN10GuiElement8GetWidthEv:
 156              	.LFB1389:
 157              		.loc 2 121 0
 158              		.cfi_startproc
 159              	.LVL14:
 160              		.loc 2 121 0
 161 0000 80630024 		lwz 3,36(3)
 162              	.LVL15:
 163 0004 4E800020 		blr
 164              		.cfi_endproc
 165              	.LFE1389:
 166              		.size	_ZN10GuiElement8GetWidthEv, .-_ZN10GuiElement8GetWidthEv
 167              		.section	.text._ZN10GuiElement9GetHeightEv,"axG",@progbits,_ZN10GuiElement9GetHeightEv,comdat
 168              		.align 2
 169              		.weak	_ZN10GuiElement9GetHeightEv
 170              		.type	_ZN10GuiElement9GetHeightEv, @function
 171              	_ZN10GuiElement9GetHeightEv:
 172              	.LFB1390:
 173              		.loc 2 124 0
 174              		.cfi_startproc
 175              	.LVL16:
 176              		.loc 2 124 0
 177 0000 80630028 		lwz 3,40(3)
 178              	.LVL17:
 179 0004 4E800020 		blr
 180              		.cfi_endproc
 181              	.LFE1390:
 182              		.size	_ZN10GuiElement9GetHeightEv, .-_ZN10GuiElement9GetHeightEv
 183              		.section	.text._ZN10GuiElement7SetSizeEii,"axG",@progbits,_ZN10GuiElement7SetSizeEii,comdat
 184              		.align 2
 185              		.weak	_ZN10GuiElement7SetSizeEii
 186              		.type	_ZN10GuiElement7SetSizeEii, @function
 187              	_ZN10GuiElement7SetSizeEii:
 188              	.LFB1391:
 189              		.loc 2 128 0
 190              		.cfi_startproc
 191              	.LVL18:
 192              		.loc 2 130 0
 193 0000 90830024 		stw 4,36(3)
 194              		.loc 2 132 0
 195              		.loc 2 131 0
 196 0004 90A30028 		stw 5,40(3)
 197              		.loc 2 132 0
 198 0008 4E800020 		blr
 199              		.cfi_endproc
 200              	.LFE1391:
 201              		.size	_ZN10GuiElement7SetSizeEii, .-_ZN10GuiElement7SetSizeEii
 202              		.section	.text._ZN10GuiElement9IsVisibleEv,"axG",@progbits,_ZN10GuiElement9IsVisibleEv,comdat
 203              		.align 2
 204              		.weak	_ZN10GuiElement9IsVisibleEv
 205              		.type	_ZN10GuiElement9IsVisibleEv, @function
 206              	_ZN10GuiElement9IsVisibleEv:
 207              	.LFB1393:
 208              		.loc 2 142 0
 209              		.cfi_startproc
 210              	.LVL19:
 211              		.loc 2 142 0
 212 0000 8863001D 		lbz 3,29(3)
 213              	.LVL20:
 214 0004 4E800020 		blr
 215              		.cfi_endproc
 216              	.LFE1393:
 217              		.size	_ZN10GuiElement9IsVisibleEv, .-_ZN10GuiElement9IsVisibleEv
 218              		.section	.text._ZN10GuiElement12IsSelectableEv,"axG",@progbits,_ZN10GuiElement12IsSelectableEv,com
 219              		.align 2
 220              		.weak	_ZN10GuiElement12IsSelectableEv
 221              		.type	_ZN10GuiElement12IsSelectableEv, @function
 222              	_ZN10GuiElement12IsSelectableEv:
 223              	.LFB1394:
 224              		.loc 2 145 0
 225              		.cfi_startproc
 226              	.LVL21:
 227              		.loc 2 149 0
 228 0000 80030048 		lwz 0,72(3)
 229 0004 39200000 		li 9,0
 230 0008 2F800004 		cmpwi 7,0,4
 231 000c 419E0010 		beq- 7,.L16
 232              		.loc 2 149 0 is_stmt 0 discriminator 1
 233 0010 2F800002 		cmpwi 7,0,2
 234 0014 419E0008 		beq- 7,.L16
 235              		.loc 2 149 0 discriminator 3
 236 0018 8923001E 		lbz 9,30(3)
 237              	.L16:
 238              		.loc 2 150 0 is_stmt 1 discriminator 5
 239 001c 7D234B78 		mr 3,9
 240              	.LVL22:
 241 0020 4E800020 		blr
 242              		.cfi_endproc
 243              	.LFE1394:
 244              		.size	_ZN10GuiElement12IsSelectableEv, .-_ZN10GuiElement12IsSelectableEv
 245              		.section	.text._ZN10GuiElement11IsClickableEv,"axG",@progbits,_ZN10GuiElement11IsClickableEv,comda
 246              		.align 2
 247              		.weak	_ZN10GuiElement11IsClickableEv
 248              		.type	_ZN10GuiElement11IsClickableEv, @function
 249              	_ZN10GuiElement11IsClickableEv:
 250              	.LFB1395:
 251              		.loc 2 153 0
 252              		.cfi_startproc
 253              	.LVL23:
 254              		.loc 2 158 0
 255 0000 80030048 		lwz 0,72(3)
 256 0004 39200000 		li 9,0
 257 0008 2F800004 		cmpwi 7,0,4
 258 000c 419E0018 		beq- 7,.L20
 259              		.loc 2 158 0 is_stmt 0 discriminator 1
 260 0010 2F800002 		cmpwi 7,0,2
 261 0014 419E0010 		beq- 7,.L20
 262              		.loc 2 158 0 discriminator 3
 263 0018 2F800003 		cmpwi 7,0,3
 264 001c 419E0008 		beq- 7,.L20
 265              		.loc 2 158 0 discriminator 4
 266 0020 8923001F 		lbz 9,31(3)
 267              	.L20:
 268              		.loc 2 159 0 is_stmt 1 discriminator 6
 269 0024 7D234B78 		mr 3,9
 270              	.LVL24:
 271 0028 4E800020 		blr
 272              		.cfi_endproc
 273              	.LFE1395:
 274              		.size	_ZN10GuiElement11IsClickableEv, .-_ZN10GuiElement11IsClickableEv
 275              		.section	.text._ZN10GuiElement10IsHoldableEv,"axG",@progbits,_ZN10GuiElement10IsHoldableEv,comdat
 276              		.align 2
 277              		.weak	_ZN10GuiElement10IsHoldableEv
 278              		.type	_ZN10GuiElement10IsHoldableEv, @function
 279              	_ZN10GuiElement10IsHoldableEv:
 280              	.LFB1396:
 281              		.loc 2 162 0
 282              		.cfi_startproc
 283              	.LVL25:
 284              		.loc 2 162 0
 285 0000 81230048 		lwz 9,72(3)
 286 0004 38000000 		li 0,0
 287 0008 2F890004 		cmpwi 7,9,4
 288 000c 419E0008 		beq- 7,.L25
 289              		.loc 2 162 0 is_stmt 0 discriminator 1
 290 0010 88030020 		lbz 0,32(3)
 291              	.L25:
 292              		.loc 2 162 0 discriminator 4
 293 0014 7C030378 		mr 3,0
 294              	.LVL26:
 295 0018 4E800020 		blr
 296              		.cfi_endproc
 297              	.LFE1396:
 298              		.size	_ZN10GuiElement10IsHoldableEv, .-_ZN10GuiElement10IsHoldableEv
 299              		.section	.text._ZN10GuiElement13SetSelectableEb,"axG",@progbits,_ZN10GuiElement13SetSelectableEb,c
 300              		.align 2
 301              		.weak	_ZN10GuiElement13SetSelectableEb
 302              		.type	_ZN10GuiElement13SetSelectableEb, @function
 303              	_ZN10GuiElement13SetSelectableEb:
 304              	.LFB1397:
 305              		.loc 2 165 0 is_stmt 1
 306              		.cfi_startproc
 307              	.LVL27:
 308              		.loc 2 165 0
 309 0000 9883001E 		stb 4,30(3)
 310 0004 4E800020 		blr
 311              		.cfi_endproc
 312              	.LFE1397:
 313              		.size	_ZN10GuiElement13SetSelectableEb, .-_ZN10GuiElement13SetSelectableEb
 314              		.section	.text._ZN10GuiElement12SetClickableEb,"axG",@progbits,_ZN10GuiElement12SetClickableEb,com
 315              		.align 2
 316              		.weak	_ZN10GuiElement12SetClickableEb
 317              		.type	_ZN10GuiElement12SetClickableEb, @function
 318              	_ZN10GuiElement12SetClickableEb:
 319              	.LFB1398:
 320              		.loc 2 168 0
 321              		.cfi_startproc
 322              	.LVL28:
 323              		.loc 2 168 0
 324 0000 9883001F 		stb 4,31(3)
 325 0004 4E800020 		blr
 326              		.cfi_endproc
 327              	.LFE1398:
 328              		.size	_ZN10GuiElement12SetClickableEb, .-_ZN10GuiElement12SetClickableEb
 329              		.section	.text._ZN10GuiElement11SetHoldableEb,"axG",@progbits,_ZN10GuiElement11SetHoldableEb,comda
 330              		.align 2
 331              		.weak	_ZN10GuiElement11SetHoldableEb
 332              		.type	_ZN10GuiElement11SetHoldableEb, @function
 333              	_ZN10GuiElement11SetHoldableEb:
 334              	.LFB1399:
 335              		.loc 2 171 0
 336              		.cfi_startproc
 337              	.LVL29:
 338              		.loc 2 171 0
 339 0000 98830020 		stb 4,32(3)
 340 0004 4E800020 		blr
 341              		.cfi_endproc
 342              	.LFE1399:
 343              		.size	_ZN10GuiElement11SetHoldableEb, .-_ZN10GuiElement11SetHoldableEb
 344              		.section	.text._ZN10GuiElement8GetStateEv,"axG",@progbits,_ZN10GuiElement8GetStateEv,comdat
 345              		.align 2
 346              		.weak	_ZN10GuiElement8GetStateEv
 347              		.type	_ZN10GuiElement8GetStateEv, @function
 348              	_ZN10GuiElement8GetStateEv:
 349              	.LFB1400:
 350              		.loc 2 178 0
 351              		.cfi_startproc
 352              	.LVL30:
 353              		.loc 2 178 0
 354 0000 80630048 		lwz 3,72(3)
 355              	.LVL31:
 356 0004 4E800020 		blr
 357              		.cfi_endproc
 358              	.LFE1400:
 359              		.size	_ZN10GuiElement8GetStateEv, .-_ZN10GuiElement8GetStateEv
 360              		.section	.text._ZN10GuiElement12GetStateChanEv,"axG",@progbits,_ZN10GuiElement12GetStateChanEv,com
 361              		.align 2
 362              		.weak	_ZN10GuiElement12GetStateChanEv
 363              		.type	_ZN10GuiElement12GetStateChanEv, @function
 364              	_ZN10GuiElement12GetStateChanEv:
 365              	.LFB1401:
 366              		.loc 2 181 0
 367              		.cfi_startproc
 368              	.LVL32:
 369              		.loc 2 181 0
 370 0000 8063004C 		lwz 3,76(3)
 371              	.LVL33:
 372 0004 4E800020 		blr
 373              		.cfi_endproc
 374              	.LFE1401:
 375              		.size	_ZN10GuiElement12GetStateChanEv, .-_ZN10GuiElement12GetStateChanEv
 376              		.section	.text._ZN10GuiElement8SetAlphaEi,"axG",@progbits,_ZN10GuiElement8SetAlphaEi,comdat
 377              		.align 2
 378              		.weak	_ZN10GuiElement8SetAlphaEi
 379              		.type	_ZN10GuiElement8SetAlphaEi, @function
 380              	_ZN10GuiElement8SetAlphaEi:
 381              	.LFB1403:
 382              		.loc 2 190 0
 383              		.cfi_startproc
 384              	.LVL34:
 385              		.loc 2 190 0
 386 0000 90830038 		stw 4,56(3)
 387 0004 4E800020 		blr
 388              		.cfi_endproc
 389              	.LFE1403:
 390              		.size	_ZN10GuiElement8SetAlphaEi, .-_ZN10GuiElement8SetAlphaEi
 391              		.section	.text._ZN10GuiElement8GetAlphaEv,"axG",@progbits,_ZN10GuiElement8GetAlphaEv,comdat
 392              		.align 2
 393              		.weak	_ZN10GuiElement8GetAlphaEv
 394              		.type	_ZN10GuiElement8GetAlphaEv, @function
 395              	_ZN10GuiElement8GetAlphaEv:
 396              	.LFB1404:
 397              		.loc 2 194 0
 398              		.cfi_startproc
 399              	.LVL35:
 400 0000 7C0802A6 		mflr 0
 401 0004 9421FFD8 		stwu 1,-40(1)
 402              	.LCFI2:
 403              		.cfi_def_cfa_offset 40
 404              		.cfi_register 65, 0
 405 0008 93E10024 		stw 31,36(1)
 406 000c 9001002C 		stw 0,44(1)
 407              	.LBB1316:
 408              		.loc 2 198 0
 409 0010 83E3006C 		lwz 31,108(3)
 410              		.cfi_offset 65, 4
 411              		.cfi_offset 31, -4
 412 0014 2F9F0000 		cmpwi 7,31,0
 413 0018 419C0094 		blt- 7,.L36
 414              	.L34:
 415              	.LVL36:
 416              		.loc 2 203 0
 417 001c 80630060 		lwz 3,96(3)
 418              	.LVL37:
 419 0020 2F830000 		cmpwi 7,3,0
 420 0024 419E0070 		beq- 7,.L35
 421              		.loc 2 204 0
 422 0028 81230000 		lwz 9,0(3)
 423 002c 6FFF8000 		xoris 31,31,0x8000
 424              	.LVL38:
 425 0030 80090064 		lwz 0,100(9)
 426 0034 7C0903A6 		mtctr 0
 427 0038 4E800421 		bctrl
 428 003c 3C004330 		lis 0,0x4330
 429 0040 6C638000 		xoris 3,3,0x8000
 430 0044 90010010 		stw 0,16(1)
 431 0048 90610014 		stw 3,20(1)
 432 004c 3D200000 		lis 9,.LC1@ha
 433 0050 C0090000 		lfs 0,.LC1@l(9)
 434 0054 3D200000 		lis 9,.LC2@ha
 435 0058 C9A10010 		lfd 13,16(1)
 436 005c C1890004 		lfs 12,.LC2@l(9)
 437 0060 39210018 		addi 9,1,24
 438 0064 FDAD0028 		fsub 13,13,0
 439 0068 93E1000C 		stw 31,12(1)
 440 006c 90010008 		stw 0,8(1)
 441 0070 FDA06818 		frsp 13,13
 442 0074 EDAD6024 		fdivs 13,13,12
 443 0078 C9810008 		lfd 12,8(1)
 444 007c FC0C0028 		fsub 0,12,0
 445 0080 FC000018 		frsp 0,0
 446 0084 EC000372 		fmuls 0,0,13
 447 0088 FC00001E 		fctiwz 0,0
 448 008c 7C004FAE 		stfiwx 0,0,9
 449 0090 83E10018 		lwz 31,24(1)
 450              	.LVL39:
 451              	.L35:
 452              	.LBE1316:
 453              		.loc 2 207 0
 454 0094 8001002C 		lwz 0,44(1)
 455 0098 7FE3FB78 		mr 3,31
 456 009c 83E10024 		lwz 31,36(1)
 457              	.LVL40:
 458 00a0 7C0803A6 		mtlr 0
 459 00a4 38210028 		addi 1,1,40
 460              		.cfi_remember_state
 461              	.LCFI3:
 462              		.cfi_def_cfa_offset 0
 463              		.cfi_restore 31
 464 00a8 4E800020 		blr
 465              	.LVL41:
 466              	.L36:
 467              	.LCFI4:
 468              		.cfi_restore_state
 469              	.LBB1317:
 470              		.loc 2 201 0
 471 00ac 83E30038 		lwz 31,56(3)
 472              	.LVL42:
 473 00b0 4BFFFF6C 		b .L34
 474              	.LBE1317:
 475              		.cfi_endproc
 476              	.LFE1404:
 477              		.size	_ZN10GuiElement8GetAlphaEv, .-_ZN10GuiElement8GetAlphaEv
 478              		.section	.text._ZN10GuiElement8SetScaleEf,"axG",@progbits,_ZN10GuiElement8SetScaleEf,comdat
 479              		.align 2
 480              		.weak	_ZN10GuiElement8SetScaleEf
 481              		.type	_ZN10GuiElement8SetScaleEf, @function
 482              	_ZN10GuiElement8SetScaleEf:
 483              	.LFB1405:
 484              		.loc 2 210 0
 485              		.cfi_startproc
 486              	.LVL43:
 487              		.loc 2 212 0
 488 0000 D023003C 		stfs 1,60(3)
 489              		.loc 2 214 0
 490              		.loc 2 213 0
 491 0004 D0230040 		stfs 1,64(3)
 492              		.loc 2 214 0
 493 0008 4E800020 		blr
 494              		.cfi_endproc
 495              	.LFE1405:
 496              		.size	_ZN10GuiElement8SetScaleEf, .-_ZN10GuiElement8SetScaleEf
 497              		.section	.text._ZN10GuiElement9SetScaleXEf,"axG",@progbits,_ZN10GuiElement9SetScaleXEf,comdat
 498              		.align 2
 499              		.weak	_ZN10GuiElement9SetScaleXEf
 500              		.type	_ZN10GuiElement9SetScaleXEf, @function
 501              	_ZN10GuiElement9SetScaleXEf:
 502              	.LFB1406:
 503              		.loc 2 217 0
 504              		.cfi_startproc
 505              	.LVL44:
 506              		.loc 2 217 0
 507 0000 D023003C 		stfs 1,60(3)
 508 0004 4E800020 		blr
 509              		.cfi_endproc
 510              	.LFE1406:
 511              		.size	_ZN10GuiElement9SetScaleXEf, .-_ZN10GuiElement9SetScaleXEf
 512              		.section	.text._ZN10GuiElement9SetScaleYEf,"axG",@progbits,_ZN10GuiElement9SetScaleYEf,comdat
 513              		.align 2
 514              		.weak	_ZN10GuiElement9SetScaleYEf
 515              		.type	_ZN10GuiElement9SetScaleYEf, @function
 516              	_ZN10GuiElement9SetScaleYEf:
 517              	.LFB1407:
 518              		.loc 2 220 0
 519              		.cfi_startproc
 520              	.LVL45:
 521              		.loc 2 220 0
 522 0000 D0230040 		stfs 1,64(3)
 523 0004 4E800020 		blr
 524              		.cfi_endproc
 525              	.LFE1407:
 526              		.size	_ZN10GuiElement9SetScaleYEf, .-_ZN10GuiElement9SetScaleYEf
 527              		.section	.text._ZN10GuiElement8GetScaleEv,"axG",@progbits,_ZN10GuiElement8GetScaleEv,comdat
 528              		.align 2
 529              		.weak	_ZN10GuiElement8GetScaleEv
 530              		.type	_ZN10GuiElement8GetScaleEv, @function
 531              	_ZN10GuiElement8GetScaleEv:
 532              	.LFB1408:
 533              		.loc 2 223 0
 534              		.cfi_startproc
 535              	.LVL46:
 536 0000 7C0802A6 		mflr 0
 537 0004 9421FFF0 		stwu 1,-16(1)
 538              	.LCFI5:
 539              		.cfi_def_cfa_offset 16
 540              		.cfi_register 65, 0
 541              	.LBB1318:
 542              		.loc 2 225 0
 543 0008 3D200000 		lis 9,.LC3@ha
 544              	.LBE1318:
 545              		.loc 2 223 0
 546 000c DBE10008 		stfd 31,8(1)
 547 0010 90010014 		stw 0,20(1)
 548              	.LBB1319:
 549              		.loc 2 225 0
 550 0014 C0030040 		lfs 0,64(3)
 551 0018 C3E3003C 		lfs 31,60(3)
 552              		.cfi_offset 65, 4
 553              		.cfi_offset 63, -8
 554              		.loc 2 227 0
 555 001c 81630060 		lwz 11,96(3)
 556              		.loc 2 225 0
 557 0020 EFFF002A 		fadds 31,31,0
 558 0024 C0090008 		lfs 0,.LC3@l(9)
 559              		.loc 2 227 0
 560 0028 2F8B0000 		cmpwi 7,11,0
 561              		.loc 2 225 0
 562 002c EFFF0032 		fmuls 31,31,0
 563 0030 C0030070 		lfs 0,112(3)
 564 0034 EFFF0032 		fmuls 31,31,0
 565              	.LVL47:
 566              		.loc 2 227 0
 567 0038 419E001C 		beq- 7,.L41
 568              		.loc 2 228 0
 569 003c 812B0000 		lwz 9,0(11)
 570 0040 7D635B78 		mr 3,11
 571              	.LVL48:
 572 0044 80090074 		lwz 0,116(9)
 573 0048 7C0903A6 		mtctr 0
 574 004c 4E800421 		bctrl
 575 0050 EFFF0072 		fmuls 31,31,1
 576              	.LVL49:
 577              	.L41:
 578              	.LBE1319:
 579              		.loc 2 231 0
 580 0054 80010014 		lwz 0,20(1)
 581 0058 FC20F890 		fmr 1,31
 582 005c CBE10008 		lfd 31,8(1)
 583              	.LVL50:
 584 0060 7C0803A6 		mtlr 0
 585 0064 38210010 		addi 1,1,16
 586              	.LCFI6:
 587              		.cfi_def_cfa_offset 0
 588              		.cfi_restore 63
 589 0068 4E800020 		blr
 590              		.cfi_endproc
 591              	.LFE1408:
 592              		.size	_ZN10GuiElement8GetScaleEv, .-_ZN10GuiElement8GetScaleEv
 593              		.section	.text._ZN10GuiElement9GetScaleXEv,"axG",@progbits,_ZN10GuiElement9GetScaleXEv,comdat
 594              		.align 2
 595              		.weak	_ZN10GuiElement9GetScaleXEv
 596              		.type	_ZN10GuiElement9GetScaleXEv, @function
 597              	_ZN10GuiElement9GetScaleXEv:
 598              	.LFB1409:
 599              		.loc 2 234 0
 600              		.cfi_startproc
 601              	.LVL51:
 602 0000 7C0802A6 		mflr 0
 603 0004 9421FFF0 		stwu 1,-16(1)
 604              	.LCFI7:
 605              		.cfi_def_cfa_offset 16
 606              		.cfi_register 65, 0
 607 0008 DBE10008 		stfd 31,8(1)
 608 000c 90010014 		stw 0,20(1)
 609              	.LBB1320:
 610              		.loc 2 238 0
 611 0010 81630060 		lwz 11,96(3)
 612              		.loc 2 236 0
 613 0014 C3E3003C 		lfs 31,60(3)
 614              		.cfi_offset 65, 4
 615              		.cfi_offset 63, -8
 616              		.loc 2 238 0
 617 0018 2F8B0000 		cmpwi 7,11,0
 618              		.loc 2 236 0
 619 001c C0030070 		lfs 0,112(3)
 620 0020 EFFF0032 		fmuls 31,31,0
 621              	.LVL52:
 622              		.loc 2 238 0
 623 0024 419E001C 		beq- 7,.L43
 624              		.loc 2 239 0
 625 0028 812B0000 		lwz 9,0(11)
 626 002c 7D635B78 		mr 3,11
 627              	.LVL53:
 628 0030 80090078 		lwz 0,120(9)
 629 0034 7C0903A6 		mtctr 0
 630 0038 4E800421 		bctrl
 631 003c EFFF0072 		fmuls 31,31,1
 632              	.LVL54:
 633              	.L43:
 634              	.LBE1320:
 635              		.loc 2 242 0
 636 0040 80010014 		lwz 0,20(1)
 637 0044 FC20F890 		fmr 1,31
 638 0048 CBE10008 		lfd 31,8(1)
 639              	.LVL55:
 640 004c 7C0803A6 		mtlr 0
 641 0050 38210010 		addi 1,1,16
 642              	.LCFI8:
 643              		.cfi_def_cfa_offset 0
 644              		.cfi_restore 63
 645 0054 4E800020 		blr
 646              		.cfi_endproc
 647              	.LFE1409:
 648              		.size	_ZN10GuiElement9GetScaleXEv, .-_ZN10GuiElement9GetScaleXEv
 649              		.section	.text._ZN10GuiElement9GetScaleYEv,"axG",@progbits,_ZN10GuiElement9GetScaleYEv,comdat
 650              		.align 2
 651              		.weak	_ZN10GuiElement9GetScaleYEv
 652              		.type	_ZN10GuiElement9GetScaleYEv, @function
 653              	_ZN10GuiElement9GetScaleYEv:
 654              	.LFB1410:
 655              		.loc 2 245 0
 656              		.cfi_startproc
 657              	.LVL56:
 658 0000 7C0802A6 		mflr 0
 659 0004 9421FFF0 		stwu 1,-16(1)
 660              	.LCFI9:
 661              		.cfi_def_cfa_offset 16
 662              		.cfi_register 65, 0
 663 0008 DBE10008 		stfd 31,8(1)
 664 000c 90010014 		stw 0,20(1)
 665              	.LBB1321:
 666              		.loc 2 249 0
 667 0010 81630060 		lwz 11,96(3)
 668              		.loc 2 247 0
 669 0014 C3E30040 		lfs 31,64(3)
 670              		.cfi_offset 65, 4
 671              		.cfi_offset 63, -8
 672              		.loc 2 249 0
 673 0018 2F8B0000 		cmpwi 7,11,0
 674              		.loc 2 247 0
 675 001c C0030070 		lfs 0,112(3)
 676 0020 EFFF0032 		fmuls 31,31,0
 677              	.LVL57:
 678              		.loc 2 249 0
 679 0024 419E001C 		beq- 7,.L45
 680              		.loc 2 250 0
 681 0028 812B0000 		lwz 9,0(11)
 682 002c 7D635B78 		mr 3,11
 683              	.LVL58:
 684 0030 8009007C 		lwz 0,124(9)
 685 0034 7C0903A6 		mtctr 0
 686 0038 4E800421 		bctrl
 687 003c EFFF0072 		fmuls 31,31,1
 688              	.LVL59:
 689              	.L45:
 690              	.LBE1321:
 691              		.loc 2 253 0
 692 0040 80010014 		lwz 0,20(1)
 693 0044 FC20F890 		fmr 1,31
 694 0048 CBE10008 		lfd 31,8(1)
 695              	.LVL60:
 696 004c 7C0803A6 		mtlr 0
 697 0050 38210010 		addi 1,1,16
 698              	.LCFI10:
 699              		.cfi_def_cfa_offset 0
 700              		.cfi_restore 63
 701 0054 4E800020 		blr
 702              		.cfi_endproc
 703              	.LFE1410:
 704              		.size	_ZN10GuiElement9GetScaleYEv, .-_ZN10GuiElement9GetScaleYEv
 705              		.section	.text._ZN10GuiElement6RumbleEv,"axG",@progbits,_ZN10GuiElement6RumbleEv,comdat
 706              		.align 2
 707              		.weak	_ZN10GuiElement6RumbleEv
 708              		.type	_ZN10GuiElement6RumbleEv, @function
 709              	_ZN10GuiElement6RumbleEv:
 710              	.LFB1411:
 711              		.loc 2 256 0
 712              		.cfi_startproc
 713              	.LVL61:
 714              		.loc 2 256 0
 715 0000 8863001C 		lbz 3,28(3)
 716              	.LVL62:
 717 0004 4E800020 		blr
 718              		.cfi_endproc
 719              	.LFE1411:
 720              		.size	_ZN10GuiElement6RumbleEv, .-_ZN10GuiElement6RumbleEv
 721              		.section	.text._ZN10GuiElement9SetRumbleEb,"axG",@progbits,_ZN10GuiElement9SetRumbleEb,comdat
 722              		.align 2
 723              		.weak	_ZN10GuiElement9SetRumbleEb
 724              		.type	_ZN10GuiElement9SetRumbleEb, @function
 725              	_ZN10GuiElement9SetRumbleEb:
 726              	.LFB1412:
 727              		.loc 2 259 0
 728              		.cfi_startproc
 729              	.LVL63:
 730              		.loc 2 259 0
 731 0000 9883001C 		stb 4,28(3)
 732 0004 4E800020 		blr
 733              		.cfi_endproc
 734              	.LFE1412:
 735              		.size	_ZN10GuiElement9SetRumbleEb, .-_ZN10GuiElement9SetRumbleEb
 736              		.section	.text._ZN10GuiElement13SetEffectGrowEv,"axG",@progbits,_ZN10GuiElement13SetEffectGrowEv,c
 737              		.align 2
 738              		.weak	_ZN10GuiElement13SetEffectGrowEv
 739              		.type	_ZN10GuiElement13SetEffectGrowEv, @function
 740              	_ZN10GuiElement13SetEffectGrowEv:
 741              	.LFB1413:
 742              		.loc 2 271 0
 743              		.cfi_startproc
 744              	.LVL64:
 745 0000 7C0802A6 		mflr 0
 746 0004 9421FFF8 		stwu 1,-8(1)
 747              	.LCFI11:
 748              		.cfi_def_cfa_offset 8
 749              		.cfi_register 65, 0
 750 0008 81230000 		lwz 9,0(3)
 751 000c 38800100 		li 4,256
 752 0010 38A00004 		li 5,4
 753 0014 38C0006E 		li 6,110
 754 0018 9001000C 		stw 0,12(1)
 755              		.loc 2 271 0
 756 001c 8009008C 		lwz 0,140(9)
 757              		.cfi_offset 65, 4
 758 0020 7C0903A6 		mtctr 0
 759 0024 4E800421 		bctrl
 760              	.LVL65:
 761 0028 8001000C 		lwz 0,12(1)
 762 002c 38210008 		addi 1,1,8
 763              	.LCFI12:
 764              		.cfi_def_cfa_offset 0
 765 0030 7C0803A6 		mtlr 0
 766 0034 4E800020 		blr
 767              		.cfi_endproc
 768              	.LFE1413:
 769              		.size	_ZN10GuiElement13SetEffectGrowEv, .-_ZN10GuiElement13SetEffectGrowEv
 770              		.section	.text._ZNK10GuiElement9GetEffectEv,"axG",@progbits,_ZNK10GuiElement9GetEffectEv,comdat
 771              		.align 2
 772              		.weak	_ZNK10GuiElement9GetEffectEv
 773              		.type	_ZNK10GuiElement9GetEffectEv, @function
 774              	_ZNK10GuiElement9GetEffectEv:
 775              	.LFB1414:
 776              		.loc 2 276 0
 777              		.cfi_startproc
 778              	.LVL66:
 779              		.loc 2 276 0
 780 0000 80630078 		lwz 3,120(3)
 781              	.LVL67:
 782 0004 4E800020 		blr
 783              		.cfi_endproc
 784              	.LFE1414:
 785              		.size	_ZNK10GuiElement9GetEffectEv, .-_ZNK10GuiElement9GetEffectEv
 786              		.section	.text._ZNK10GuiElement10IsAnimatedEv,"axG",@progbits,_ZNK10GuiElement10IsAnimatedEv,comda
 787              		.align 2
 788              		.weak	_ZNK10GuiElement10IsAnimatedEv
 789              		.type	_ZNK10GuiElement10IsAnimatedEv, @function
 790              	_ZNK10GuiElement10IsAnimatedEv:
 791              	.LFB1415:
 792              		.loc 2 278 0
 793              		.cfi_startproc
 794              	.LVL68:
 795 0000 7C0802A6 		mflr 0
 796 0004 9421FFF8 		stwu 1,-8(1)
 797              	.LCFI13:
 798              		.cfi_def_cfa_offset 8
 799              		.cfi_register 65, 0
 800 0008 9001000C 		stw 0,12(1)
 801              		.loc 2 278 0
 802 000c 81230000 		lwz 9,0(3)
 803 0010 80090098 		lwz 0,152(9)
 804              		.cfi_offset 65, 4
 805 0014 7C0903A6 		mtctr 0
 806 0018 4E800421 		bctrl
 807              	.LVL69:
 808 001c 7C60FE70 		srawi 0,3,31
 809 0020 7C630050 		subf 3,3,0
 810 0024 8001000C 		lwz 0,12(1)
 811 0028 54630FFE 		srwi 3,3,31
 812 002c 7C0803A6 		mtlr 0
 813 0030 38210008 		addi 1,1,8
 814              	.LCFI14:
 815              		.cfi_def_cfa_offset 0
 816 0034 4E800020 		blr
 817              		.cfi_endproc
 818              	.LFE1415:
 819              		.size	_ZNK10GuiElement10IsAnimatedEv, .-_ZNK10GuiElement10IsAnimatedEv
 820              		.section	.text._ZN10GuiElement8IsInsideEii,"axG",@progbits,_ZN10GuiElement8IsInsideEii,comdat
 821              		.align 2
 822              		.weak	_ZN10GuiElement8IsInsideEii
 823              		.type	_ZN10GuiElement8IsInsideEii, @function
 824              	_ZN10GuiElement8IsInsideEii:
 825              	.LFB1417:
 826              		.loc 2 285 0
 827              		.cfi_startproc
 828              	.LVL70:
 829 0000 7C0802A6 		mflr 0
 830 0004 9421FFE8 		stwu 1,-24(1)
 831              	.LCFI15:
 832              		.cfi_def_cfa_offset 24
 833              		.cfi_register 65, 0
 834 0008 93810008 		stw 28,8(1)
 835 000c 7CBC2B78 		mr 28,5
 836              		.cfi_offset 28, -16
 837 0010 9001001C 		stw 0,28(1)
 838 0014 93A1000C 		stw 29,12(1)
 839              		.loc 2 290 0
 840 0018 3BA00000 		li 29,0
 841              		.cfi_offset 29, -12
 842              		.cfi_offset 65, 4
 843              		.loc 2 287 0
 844 001c 81230000 		lwz 9,0(3)
 845              		.loc 2 285 0
 846 0020 93C10010 		stw 30,16(1)
 847 0024 7C9E2378 		mr 30,4
 848              		.cfi_offset 30, -8
 849              		.loc 2 287 0
 850 0028 80090010 		lwz 0,16(9)
 851              		.loc 2 285 0
 852 002c 93E10014 		stw 31,20(1)
 853              		.loc 2 285 0
 854 0030 7C7F1B78 		mr 31,3
 855              		.cfi_offset 31, -4
 856              		.loc 2 287 0
 857 0034 7C0903A6 		mtctr 0
 858 0038 4E800421 		bctrl
 859              	.LVL71:
 860              		.loc 2 290 0
 861 003c 7F83F000 		cmpw 7,3,30
 862 0040 419C0028 		blt- 7,.L56
 863              	.L52:
 864              		.loc 2 291 0 discriminator 6
 865 0044 8001001C 		lwz 0,28(1)
 866 0048 7FA3EB78 		mr 3,29
 867 004c 83810008 		lwz 28,8(1)
 868              	.LVL72:
 869 0050 7C0803A6 		mtlr 0
 870 0054 83A1000C 		lwz 29,12(1)
 871 0058 83C10010 		lwz 30,16(1)
 872              	.LVL73:
 873 005c 83E10014 		lwz 31,20(1)
 874              	.LVL74:
 875 0060 38210018 		addi 1,1,24
 876              		.cfi_remember_state
 877              	.LCFI16:
 878              		.cfi_def_cfa_offset 0
 879              		.cfi_restore 31
 880              		.cfi_restore 30
 881              		.cfi_restore 29
 882              		.cfi_restore 28
 883 0064 4E800020 		blr
 884              	.LVL75:
 885              	.L56:
 886              	.LCFI17:
 887              		.cfi_restore_state
 888              		.loc 2 288 0 discriminator 1
 889 0068 813F0000 		lwz 9,0(31)
 890 006c 7FE3FB78 		mr 3,31
 891 0070 80090010 		lwz 0,16(9)
 892 0074 7C0903A6 		mtctr 0
 893 0078 4E800421 		bctrl
 894              		.loc 2 290 0 discriminator 1
 895 007c 801F0024 		lwz 0,36(31)
 896 0080 7C030214 		add 0,3,0
 897 0084 7F9E0000 		cmpw 7,30,0
 898 0088 409CFFBC 		bge+ 7,.L52
 899              		.loc 2 289 0 discriminator 3
 900 008c 813F0000 		lwz 9,0(31)
 901 0090 7FE3FB78 		mr 3,31
 902 0094 80090014 		lwz 0,20(9)
 903 0098 7C0903A6 		mtctr 0
 904 009c 4E800421 		bctrl
 905              		.loc 2 290 0 discriminator 3
 906 00a0 7F83E000 		cmpw 7,3,28
 907 00a4 409CFFA0 		bge+ 7,.L52
 908              		.loc 2 290 0 is_stmt 0 discriminator 4
 909 00a8 813F0000 		lwz 9,0(31)
 910 00ac 7FE3FB78 		mr 3,31
 911 00b0 80090014 		lwz 0,20(9)
 912 00b4 7C0903A6 		mtctr 0
 913 00b8 4E800421 		bctrl
 914 00bc 801F0028 		lwz 0,40(31)
 915 00c0 7C030214 		add 0,3,0
 916              		.loc 2 285 0 is_stmt 1 discriminator 4
 917 00c4 7F9C0000 		cmpw 7,28,0
 918 00c8 7FA00026 		mfcr 29
 919 00cc 57BDEFFE 		rlwinm 29,29,29,1
 920 00d0 4BFFFF74 		b .L52
 921              		.cfi_endproc
 922              	.LFE1417:
 923              		.size	_ZN10GuiElement8IsInsideEii, .-_ZN10GuiElement8IsInsideEii
 924              		.section	.text._ZN10GuiElement11SetPositionEii,"axG",@progbits,_ZN10GuiElement11SetPositionEii,com
 925              		.align 2
 926              		.weak	_ZN10GuiElement11SetPositionEii
 927              		.type	_ZN10GuiElement11SetPositionEii, @function
 928              	_ZN10GuiElement11SetPositionEii:
 929              	.LFB1418:
 930              		.loc 2 295 0
 931              		.cfi_startproc
 932              	.LVL76:
 933              		.loc 2 297 0
 934 0000 9083002C 		stw 4,44(3)
 935              		.loc 2 299 0
 936              		.loc 2 298 0
 937 0004 90A30030 		stw 5,48(3)
 938              		.loc 2 299 0
 939 0008 4E800020 		blr
 940              		.cfi_endproc
 941              	.LFE1418:
 942              		.size	_ZN10GuiElement11SetPositionEii, .-_ZN10GuiElement11SetPositionEii
 943              		.section	.text._ZN10GuiElement11SetPositionEiii,"axG",@progbits,_ZN10GuiElement11SetPositionEiii,c
 944              		.align 2
 945              		.weak	_ZN10GuiElement11SetPositionEiii
 946              		.type	_ZN10GuiElement11SetPositionEiii, @function
 947              	_ZN10GuiElement11SetPositionEiii:
 948              	.LFB1419:
 949              		.loc 2 304 0
 950              		.cfi_startproc
 951              	.LVL77:
 952              		.loc 2 306 0
 953 0000 9083002C 		stw 4,44(3)
 954              		.loc 2 309 0
 955              		.loc 2 307 0
 956 0004 90A30030 		stw 5,48(3)
 957              		.loc 2 308 0
 958 0008 90C30034 		stw 6,52(3)
 959              		.loc 2 309 0
 960 000c 4E800020 		blr
 961              		.cfi_endproc
 962              	.LFE1419:
 963              		.size	_ZN10GuiElement11SetPositionEiii, .-_ZN10GuiElement11SetPositionEiii
 964              		.section	.text._ZN10GuiElement12SetAlignmentEi,"axG",@progbits,_ZN10GuiElement12SetAlignmentEi,com
 965              		.align 2
 966              		.weak	_ZN10GuiElement12SetAlignmentEi
 967              		.type	_ZN10GuiElement12SetAlignmentEi, @function
 968              	_ZN10GuiElement12SetAlignmentEi:
 969              	.LFB1421:
 970              		.loc 2 316 0
 971              		.cfi_startproc
 972              	.LVL78:
 973              		.loc 2 316 0
 974 0000 90830044 		stw 4,68(3)
 975 0004 4E800020 		blr
 976              		.cfi_endproc
 977              	.LFE1421:
 978              		.size	_ZN10GuiElement12SetAlignmentEi, .-_ZN10GuiElement12SetAlignmentEi
 979              		.section	.text._ZNK10GuiElement12GetAlignmentEv,"axG",@progbits,_ZNK10GuiElement12GetAlignmentEv,c
 980              		.align 2
 981              		.weak	_ZNK10GuiElement12GetAlignmentEv
 982              		.type	_ZNK10GuiElement12GetAlignmentEv, @function
 983              	_ZNK10GuiElement12GetAlignmentEv:
 984              	.LFB1422:
 985              		.loc 2 318 0
 986              		.cfi_startproc
 987              	.LVL79:
 988              		.loc 2 318 0
 989 0000 80630044 		lwz 3,68(3)
 990              	.LVL80:
 991 0004 4E800020 		blr
 992              		.cfi_endproc
 993              	.LFE1422:
 994              		.size	_ZNK10GuiElement12GetAlignmentEv, .-_ZNK10GuiElement12GetAlignmentEv
 995              		.section	.text._ZN8GuiFrame4hideEv,"axG",@progbits,_ZN8GuiFrame4hideEv,comdat
 996              		.align 2
 997              		.weak	_ZN8GuiFrame4hideEv
 998              		.type	_ZN8GuiFrame4hideEv, @function
 999              	_ZN8GuiFrame4hideEv:
 1000              	.LFB1432:
 1001              		.file 3 "d:/Projects/SaveGameManager/savegame-manager-gx/trunk/source/Settings/menus/../../GUI/gui
 1002              		.loc 3 81 0
 1003              		.cfi_startproc
 1004              	.LVL81:
 1005              		.loc 3 81 0
 1006 0000 4E800020 		blr
 1007              		.cfi_endproc
 1008              	.LFE1432:
 1009              		.size	_ZN8GuiFrame4hideEv, .-_ZN8GuiFrame4hideEv
 1010              		.section	.text._ZN8GuiFrame4execEv,"axG",@progbits,_ZN8GuiFrame4execEv,comdat
 1011              		.align 2
 1012              		.weak	_ZN8GuiFrame4execEv
 1013              		.type	_ZN8GuiFrame4execEv, @function
 1014              	_ZN8GuiFrame4execEv:
 1015              	.LFB1433:
 1016              		.loc 3 83 0
 1017              		.cfi_startproc
 1018              	.LVL82:
 1019              		.loc 3 83 0
 1020 0000 4E800020 		blr
 1021              		.cfi_endproc
 1022              	.LFE1433:
 1023              		.size	_ZN8GuiFrame4execEv, .-_ZN8GuiFrame4execEv
 1024              		.section	.text._ZN8GuiFrame12updateEventsEv,"axG",@progbits,_ZN8GuiFrame12updateEventsEv,comdat
 1025              		.align 2
 1026              		.weak	_ZN8GuiFrame12updateEventsEv
 1027              		.type	_ZN8GuiFrame12updateEventsEv, @function
 1028              	_ZN8GuiFrame12updateEventsEv:
 1029              	.LFB1434:
 1030              		.loc 3 85 0
 1031              		.cfi_startproc
 1032              	.LVL83:
 1033              		.loc 3 85 0
 1034 0000 4E800020 		blr
 1035              		.cfi_endproc
 1036              	.LFE1434:
 1037              		.size	_ZN8GuiFrame12updateEventsEv, .-_ZN8GuiFrame12updateEventsEv
 1038              		.section	.text._ZN20ControlsSettingsMenuD1Ev,"axG",@progbits,_ZN20ControlsSettingsMenuD1Ev,comdat
 1039              		.align 2
 1040              		.weak	_ZThn176_N20ControlsSettingsMenuD1Ev
 1041              		.type	_ZThn176_N20ControlsSettingsMenuD1Ev, @function
 1042              	_ZThn176_N20ControlsSettingsMenuD1Ev:
 1043              	.LFB1963:
 1044              		.cfi_startproc
 1045 0000 3863FF50 		addi 3,3,-176
 1046 0004 48000000 		b .LTHUNK0
 1047              		.cfi_endproc
 1048              	.LFE1963:
 1049              		.size	_ZThn176_N20ControlsSettingsMenuD1Ev, .-_ZThn176_N20ControlsSettingsMenuD1Ev
 1050              		.section	.text._ZN20ControlsSettingsMenuD2Ev,"axG",@progbits,_ZN20ControlsSettingsMenuD5Ev,comdat
 1051              		.align 2
 1052              		.weak	_ZN20ControlsSettingsMenuD2Ev
 1053              		.type	_ZN20ControlsSettingsMenuD2Ev, @function
 1054              	_ZN20ControlsSettingsMenuD2Ev:
 1055              	.LFB1856:
 1056              		.file 4 "d:/Projects/SaveGameManager/savegame-manager-gx/trunk/source/Settings/menus/ControlsSetti
 1057              		.loc 4 31 0
 1058              		.cfi_startproc
 1059              	.LVL84:
 1060 0000 7C0802A6 		mflr 0
 1061 0004 9421FFF8 		stwu 1,-8(1)
 1062              	.LCFI18:
 1063              		.cfi_def_cfa_offset 8
 1064              		.cfi_register 65, 0
 1065              	.LBB1323:
 1066 0008 3D600000 		lis 11,_ZTV20ControlsSettingsMenu+8@ha
 1067 000c 396B0008 		la 11,_ZTV20ControlsSettingsMenu+8@l(11)
 1068              	.LBE1323:
 1069 0010 9001000C 		stw 0,12(1)
 1070              	.LBB1324:
 1071              		.loc 4 31 0
 1072 0014 380B00F0 		addi 0,11,240
 1073              		.cfi_offset 65, 4
 1074 0018 900300B0 		stw 0,176(3)
 1075 001c 91630000 		stw 11,0(3)
 1076 0020 48000001 		bl _ZN15SettingsBrowserD2Ev
 1077              	.LVL85:
 1078              	.LBE1324:
 1079 0024 8001000C 		lwz 0,12(1)
 1080 0028 38210008 		addi 1,1,8
 1081              	.LCFI19:
 1082              		.cfi_def_cfa_offset 0
 1083 002c 7C0803A6 		mtlr 0
 1084 0030 4E800020 		blr
 1085              		.cfi_endproc
 1086              	.LFE1856:
 1087              		.size	_ZN20ControlsSettingsMenuD2Ev, .-_ZN20ControlsSettingsMenuD2Ev
 1088              		.section	".text"
 1089              		.align 2
 1090              		.globl _ZN20ControlsSettingsMenu15SetupOptionNameEv
 1091              		.type	_ZN20ControlsSettingsMenu15SetupOptionNameEv, @function
 1092              	_ZN20ControlsSettingsMenu15SetupOptionNameEv:
 1093              	.LFB1589:
 1094              		.file 5 "d:/Projects/SaveGameManager/savegame-manager-gx/trunk/source/Settings/menus/ControlsSetti
 1095              		.loc 5 251 0
 1096              		.cfi_startproc
 1097              	.LVL86:
 1098 0000 7C0802A6 		mflr 0
 1099 0004 9421FFE8 		stwu 1,-24(1)
 1100              	.LCFI20:
 1101              		.cfi_def_cfa_offset 24
 1102              		.cfi_register 65, 0
 1103 0008 93C10010 		stw 30,16(1)
 1104              	.LBB1325:
 1105              		.loc 5 256 0
 1106 000c 3FC00000 		lis 30,.LC4@ha
 1107              		.cfi_offset 30, -8
 1108              	.LBE1325:
 1109              		.loc 5 251 0
 1110 0010 9001001C 		stw 0,28(1)
 1111              	.LBB1326:
 1112              		.loc 5 256 0
 1113 0014 3BDE0000 		la 30,.LC4@l(30)
 1114              	.LBE1326:
 1115              		.loc 5 251 0
 1116 0018 93A1000C 		stw 29,12(1)
 1117 001c 93E10014 		stw 31,20(1)
 1118              		.loc 5 251 0
 1119 0020 7C7F1B78 		mr 31,3
 1120              		.cfi_offset 31, -4
 1121              		.cfi_offset 29, -12
 1122              		.cfi_offset 65, 4
 1123              	.LBB1327:
 1124              		.loc 5 256 0
 1125 0024 83A300CC 		lwz 29,204(3)
 1126              	.LVL87:
 1127 0028 7FC3F378 		mr 3,30
 1128              	.LVL88:
 1129 002c 48000001 		bl gettext
 1130 0030 38800000 		li 4,0
 1131 0034 7C651B78 		mr 5,3
 1132 0038 7FA3EB78 		mr 3,29
 1133 003c 4CC63182 		crxor 6,6,6
 1134 0040 48000001 		bl _ZN10OptionList7SetNameEiPKcz
 1135              		.loc 5 257 0
 1136 0044 83BF00CC 		lwz 29,204(31)
 1137              	.LVL89:
 1138 0048 7FC3F378 		mr 3,30
 1139 004c 48000001 		bl gettext
 1140 0050 38800001 		li 4,1
 1141 0054 7C651B78 		mr 5,3
 1142 0058 7FA3EB78 		mr 3,29
 1143 005c 4CC63182 		crxor 6,6,6
 1144 0060 48000001 		bl _ZN10OptionList7SetNameEiPKcz
 1145              		.loc 5 258 0
 1146 0064 83BF00CC 		lwz 29,204(31)
 1147              	.LVL90:
 1148 0068 7FC3F378 		mr 3,30
 1149              		.loc 5 259 0
 1150 006c 3FC00000 		lis 30,.LC5@ha
 1151              		.loc 5 258 0
 1152 0070 48000001 		bl gettext
 1153              		.loc 5 259 0
 1154 0074 3BDE0010 		la 30,.LC5@l(30)
 1155              		.loc 5 258 0
 1156 0078 7C651B78 		mr 5,3
 1157 007c 38800002 		li 4,2
 1158 0080 7FA3EB78 		mr 3,29
 1159 0084 4CC63182 		crxor 6,6,6
 1160 0088 48000001 		bl _ZN10OptionList7SetNameEiPKcz
 1161              		.loc 5 259 0
 1162 008c 83BF00CC 		lwz 29,204(31)
 1163              	.LVL91:
 1164 0090 7FC3F378 		mr 3,30
 1165 0094 48000001 		bl gettext
 1166 0098 38800003 		li 4,3
 1167 009c 7C651B78 		mr 5,3
 1168 00a0 7FA3EB78 		mr 3,29
 1169 00a4 4CC63182 		crxor 6,6,6
 1170 00a8 48000001 		bl _ZN10OptionList7SetNameEiPKcz
 1171              		.loc 5 260 0
 1172 00ac 83BF00CC 		lwz 29,204(31)
 1173              	.LVL92:
 1174 00b0 7FC3F378 		mr 3,30
 1175 00b4 48000001 		bl gettext
 1176 00b8 38800004 		li 4,4
 1177 00bc 7C651B78 		mr 5,3
 1178 00c0 7FA3EB78 		mr 3,29
 1179 00c4 4CC63182 		crxor 6,6,6
 1180 00c8 48000001 		bl _ZN10OptionList7SetNameEiPKcz
 1181              		.loc 5 261 0
 1182 00cc 83BF00CC 		lwz 29,204(31)
 1183              	.LVL93:
 1184 00d0 7FC3F378 		mr 3,30
 1185              		.loc 5 262 0
 1186 00d4 3FC00000 		lis 30,.LC6@ha
 1187              		.loc 5 261 0
 1188 00d8 48000001 		bl gettext
 1189              		.loc 5 262 0
 1190 00dc 3BDE001C 		la 30,.LC6@l(30)
 1191              		.loc 5 261 0
 1192 00e0 7C651B78 		mr 5,3
 1193 00e4 38800005 		li 4,5
 1194 00e8 7FA3EB78 		mr 3,29
 1195 00ec 4CC63182 		crxor 6,6,6
 1196 00f0 48000001 		bl _ZN10OptionList7SetNameEiPKcz
 1197              		.loc 5 262 0
 1198 00f4 83BF00CC 		lwz 29,204(31)
 1199              	.LVL94:
 1200 00f8 7FC3F378 		mr 3,30
 1201 00fc 48000001 		bl gettext
 1202 0100 38800006 		li 4,6
 1203 0104 7C651B78 		mr 5,3
 1204 0108 7FA3EB78 		mr 3,29
 1205 010c 4CC63182 		crxor 6,6,6
 1206 0110 48000001 		bl _ZN10OptionList7SetNameEiPKcz
 1207              		.loc 5 263 0
 1208 0114 83BF00CC 		lwz 29,204(31)
 1209              	.LVL95:
 1210 0118 7FC3F378 		mr 3,30
 1211 011c 48000001 		bl gettext
 1212 0120 38800007 		li 4,7
 1213 0124 7C651B78 		mr 5,3
 1214 0128 7FA3EB78 		mr 3,29
 1215 012c 4CC63182 		crxor 6,6,6
 1216 0130 48000001 		bl _ZN10OptionList7SetNameEiPKcz
 1217              		.loc 5 264 0
 1218 0134 83BF00CC 		lwz 29,204(31)
 1219              	.LVL96:
 1220 0138 7FC3F378 		mr 3,30
 1221              		.loc 5 265 0
 1222 013c 3FC00000 		lis 30,.LC7@ha
 1223              		.loc 5 264 0
 1224 0140 48000001 		bl gettext
 1225              		.loc 5 265 0
 1226 0144 3BDE0028 		la 30,.LC7@l(30)
 1227              		.loc 5 264 0
 1228 0148 7C651B78 		mr 5,3
 1229 014c 38800008 		li 4,8
 1230 0150 7FA3EB78 		mr 3,29
 1231 0154 4CC63182 		crxor 6,6,6
 1232 0158 48000001 		bl _ZN10OptionList7SetNameEiPKcz
 1233              		.loc 5 265 0
 1234 015c 83BF00CC 		lwz 29,204(31)
 1235              	.LVL97:
 1236 0160 7FC3F378 		mr 3,30
 1237 0164 48000001 		bl gettext
 1238 0168 38800009 		li 4,9
 1239 016c 7C651B78 		mr 5,3
 1240 0170 7FA3EB78 		mr 3,29
 1241 0174 4CC63182 		crxor 6,6,6
 1242 0178 48000001 		bl _ZN10OptionList7SetNameEiPKcz
 1243              		.loc 5 266 0
 1244 017c 83BF00CC 		lwz 29,204(31)
 1245              	.LVL98:
 1246 0180 7FC3F378 		mr 3,30
 1247 0184 48000001 		bl gettext
 1248 0188 3880000A 		li 4,10
 1249 018c 7C651B78 		mr 5,3
 1250 0190 7FA3EB78 		mr 3,29
 1251 0194 4CC63182 		crxor 6,6,6
 1252 0198 48000001 		bl _ZN10OptionList7SetNameEiPKcz
 1253              		.loc 5 267 0
 1254 019c 83BF00CC 		lwz 29,204(31)
 1255              	.LVL99:
 1256 01a0 7FC3F378 		mr 3,30
 1257              		.loc 5 268 0
 1258 01a4 3FC00000 		lis 30,.LC8@ha
 1259              		.loc 5 267 0
 1260 01a8 48000001 		bl gettext
 1261              		.loc 5 268 0
 1262 01ac 3BDE0034 		la 30,.LC8@l(30)
 1263              		.loc 5 267 0
 1264 01b0 7C651B78 		mr 5,3
 1265 01b4 3880000B 		li 4,11
 1266 01b8 7FA3EB78 		mr 3,29
 1267 01bc 4CC63182 		crxor 6,6,6
 1268 01c0 48000001 		bl _ZN10OptionList7SetNameEiPKcz
 1269              		.loc 5 268 0
 1270 01c4 83BF00CC 		lwz 29,204(31)
 1271              	.LVL100:
 1272 01c8 7FC3F378 		mr 3,30
 1273 01cc 48000001 		bl gettext
 1274 01d0 3880000C 		li 4,12
 1275 01d4 7C651B78 		mr 5,3
 1276 01d8 7FA3EB78 		mr 3,29
 1277 01dc 4CC63182 		crxor 6,6,6
 1278 01e0 48000001 		bl _ZN10OptionList7SetNameEiPKcz
 1279              		.loc 5 269 0
 1280 01e4 83BF00CC 		lwz 29,204(31)
 1281              	.LVL101:
 1282 01e8 7FC3F378 		mr 3,30
 1283 01ec 48000001 		bl gettext
 1284 01f0 3880000D 		li 4,13
 1285 01f4 7C651B78 		mr 5,3
 1286 01f8 7FA3EB78 		mr 3,29
 1287 01fc 4CC63182 		crxor 6,6,6
 1288 0200 48000001 		bl _ZN10OptionList7SetNameEiPKcz
 1289              		.loc 5 270 0
 1290 0204 83BF00CC 		lwz 29,204(31)
 1291              	.LVL102:
 1292 0208 7FC3F378 		mr 3,30
 1293              		.loc 5 271 0
 1294 020c 3FC00000 		lis 30,.LC9@ha
 1295              		.loc 5 270 0
 1296 0210 48000001 		bl gettext
 1297              		.loc 5 271 0
 1298 0214 3BDE0040 		la 30,.LC9@l(30)
 1299              		.loc 5 270 0
 1300 0218 7C651B78 		mr 5,3
 1301 021c 3880000E 		li 4,14
 1302 0220 7FA3EB78 		mr 3,29
 1303 0224 4CC63182 		crxor 6,6,6
 1304 0228 48000001 		bl _ZN10OptionList7SetNameEiPKcz
 1305              		.loc 5 271 0
 1306 022c 83BF00CC 		lwz 29,204(31)
 1307              	.LVL103:
 1308 0230 7FC3F378 		mr 3,30
 1309 0234 48000001 		bl gettext
 1310 0238 3880000F 		li 4,15
 1311 023c 7C651B78 		mr 5,3
 1312 0240 7FA3EB78 		mr 3,29
 1313 0244 4CC63182 		crxor 6,6,6
 1314 0248 48000001 		bl _ZN10OptionList7SetNameEiPKcz
 1315              		.loc 5 272 0
 1316 024c 83BF00CC 		lwz 29,204(31)
 1317              	.LVL104:
 1318 0250 7FC3F378 		mr 3,30
 1319 0254 48000001 		bl gettext
 1320 0258 38800010 		li 4,16
 1321 025c 7C651B78 		mr 5,3
 1322 0260 7FA3EB78 		mr 3,29
 1323 0264 4CC63182 		crxor 6,6,6
 1324 0268 48000001 		bl _ZN10OptionList7SetNameEiPKcz
 1325              		.loc 5 273 0
 1326 026c 83BF00CC 		lwz 29,204(31)
 1327              	.LVL105:
 1328 0270 7FC3F378 		mr 3,30
 1329              		.loc 5 274 0
 1330 0274 3FC00000 		lis 30,.LC10@ha
 1331              		.loc 5 273 0
 1332 0278 48000001 		bl gettext
 1333              		.loc 5 274 0
 1334 027c 3BDE0050 		la 30,.LC10@l(30)
 1335              		.loc 5 273 0
 1336 0280 7C651B78 		mr 5,3
 1337 0284 38800011 		li 4,17
 1338 0288 7FA3EB78 		mr 3,29
 1339 028c 4CC63182 		crxor 6,6,6
 1340 0290 48000001 		bl _ZN10OptionList7SetNameEiPKcz
 1341              		.loc 5 274 0
 1342 0294 83BF00CC 		lwz 29,204(31)
 1343              	.LVL106:
 1344 0298 7FC3F378 		mr 3,30
 1345 029c 48000001 		bl gettext
 1346 02a0 38800012 		li 4,18
 1347 02a4 7C651B78 		mr 5,3
 1348 02a8 7FA3EB78 		mr 3,29
 1349 02ac 4CC63182 		crxor 6,6,6
 1350 02b0 48000001 		bl _ZN10OptionList7SetNameEiPKcz
 1351              		.loc 5 275 0
 1352 02b4 83BF00CC 		lwz 29,204(31)
 1353              	.LVL107:
 1354 02b8 7FC3F378 		mr 3,30
 1355 02bc 48000001 		bl gettext
 1356 02c0 38800013 		li 4,19
 1357 02c4 7C651B78 		mr 5,3
 1358 02c8 7FA3EB78 		mr 3,29
 1359 02cc 4CC63182 		crxor 6,6,6
 1360 02d0 48000001 		bl _ZN10OptionList7SetNameEiPKcz
 1361              		.loc 5 276 0
 1362 02d4 83BF00CC 		lwz 29,204(31)
 1363              	.LVL108:
 1364 02d8 7FC3F378 		mr 3,30
 1365              		.loc 5 277 0
 1366 02dc 3FC00000 		lis 30,.LC11@ha
 1367              		.loc 5 276 0
 1368 02e0 48000001 		bl gettext
 1369              		.loc 5 277 0
 1370 02e4 3BDE005C 		la 30,.LC11@l(30)
 1371              		.loc 5 276 0
 1372 02e8 7C651B78 		mr 5,3
 1373 02ec 38800014 		li 4,20
 1374 02f0 7FA3EB78 		mr 3,29
 1375 02f4 4CC63182 		crxor 6,6,6
 1376 02f8 48000001 		bl _ZN10OptionList7SetNameEiPKcz
 1377              		.loc 5 277 0
 1378 02fc 83BF00CC 		lwz 29,204(31)
 1379              	.LVL109:
 1380 0300 7FC3F378 		mr 3,30
 1381 0304 48000001 		bl gettext
 1382 0308 38800015 		li 4,21
 1383 030c 7C651B78 		mr 5,3
 1384 0310 7FA3EB78 		mr 3,29
 1385 0314 4CC63182 		crxor 6,6,6
 1386 0318 48000001 		bl _ZN10OptionList7SetNameEiPKcz
 1387              		.loc 5 278 0
 1388 031c 83BF00CC 		lwz 29,204(31)
 1389              	.LVL110:
 1390 0320 7FC3F378 		mr 3,30
 1391 0324 48000001 		bl gettext
 1392 0328 38800016 		li 4,22
 1393 032c 7C651B78 		mr 5,3
 1394 0330 7FA3EB78 		mr 3,29
 1395 0334 4CC63182 		crxor 6,6,6
 1396 0338 48000001 		bl _ZN10OptionList7SetNameEiPKcz
 1397              		.loc 5 279 0
 1398 033c 83BF00CC 		lwz 29,204(31)
 1399              	.LVL111:
 1400 0340 7FC3F378 		mr 3,30
 1401 0344 48000001 		bl gettext
 1402 0348 38800017 		li 4,23
 1403 034c 7C651B78 		mr 5,3
 1404 0350 7FA3EB78 		mr 3,29
 1405 0354 4CC63182 		crxor 6,6,6
 1406 0358 48000001 		bl _ZN10OptionList7SetNameEiPKcz
 1407              		.loc 5 282 0
 1408 035c 813F0000 		lwz 9,0(31)
 1409 0360 7FE3FB78 		mr 3,31
 1410 0364 800900E0 		lwz 0,224(9)
 1411 0368 7C0903A6 		mtctr 0
 1412 036c 4E800421 		bctrl
 1413              	.LBE1327:
 1414              		.loc 5 283 0
 1415 0370 8001001C 		lwz 0,28(1)
 1416 0374 83A1000C 		lwz 29,12(1)
 1417 0378 7C0803A6 		mtlr 0
 1418 037c 83C10010 		lwz 30,16(1)
 1419 0380 83E10014 		lwz 31,20(1)
 1420              	.LVL112:
 1421 0384 38210018 		addi 1,1,24
 1422              	.LCFI21:
 1423              		.cfi_def_cfa_offset 0
 1424              		.cfi_restore 31
 1425              		.cfi_restore 30
 1426              		.cfi_restore 29
 1427 0388 4E800020 		blr
 1428              		.cfi_endproc
 1429              	.LFE1589:
 1430              		.size	_ZN20ControlsSettingsMenu15SetupOptionNameEv, .-_ZN20ControlsSettingsMenu15SetupOptionNameEv
 1431              		.section	.text._ZN20ControlsSettingsMenuD0Ev,"axG",@progbits,_ZN20ControlsSettingsMenuD0Ev,comdat
 1432              		.align 2
 1433              		.weak	_ZThn176_N20ControlsSettingsMenuD0Ev
 1434              		.type	_ZThn176_N20ControlsSettingsMenuD0Ev, @function
 1435              	_ZThn176_N20ControlsSettingsMenuD0Ev:
 1436              	.LFB1965:
 1437              		.cfi_startproc
 1438 0000 3863FF50 		addi 3,3,-176
 1439 0004 48000004 		b .LTHUNK1
 1440              		.cfi_endproc
 1441              	.LFE1965:
 1442              		.size	_ZThn176_N20ControlsSettingsMenuD0Ev, .-_ZThn176_N20ControlsSettingsMenuD0Ev
 1443              		.align 2
 1444              		.weak	_ZN20ControlsSettingsMenuD0Ev
 1445              		.type	_ZN20ControlsSettingsMenuD0Ev, @function
 1446              	_ZN20ControlsSettingsMenuD0Ev:
 1447              	.LFB1858:
 1448              		.loc 4 31 0
 1449              		.cfi_startproc
 1450              	.LVL113:
 1451 0008 7C0802A6 		mflr 0
 1452 000c 9421FFF0 		stwu 1,-16(1)
 1453              	.LCFI22:
 1454              		.cfi_def_cfa_offset 16
 1455              		.cfi_register 65, 0
 1456              	.LBB1331:
 1457              	.LBB1332:
 1458              	.LBB1333:
 1459 0010 3D200000 		lis 9,_ZTV20ControlsSettingsMenu+8@ha
 1460 0014 39290008 		la 9,_ZTV20ControlsSettingsMenu+8@l(9)
 1461              	.LBE1333:
 1462              	.LBE1332:
 1463              	.LBE1331:
 1464 0018 93E1000C 		stw 31,12(1)
 1465 001c 90010014 		stw 0,20(1)
 1466              	.LBB1338:
 1467              	.LBB1336:
 1468              	.LBB1334:
 1469              		.loc 4 31 0
 1470 0020 380900F0 		addi 0,9,240
 1471              		.cfi_offset 65, 4
 1472              		.cfi_offset 31, -4
 1473 0024 900300B0 		stw 0,176(3)
 1474              	.LBE1334:
 1475              	.LBE1336:
 1476              	.LBE1338:
 1477 0028 7C7F1B78 		mr 31,3
 1478              	.LVL114:
 1479              	.LBB1339:
 1480              	.LBB1337:
 1481              	.LBB1335:
 1482 002c 91230000 		stw 9,0(3)
 1483 0030 48000001 		bl _ZN15SettingsBrowserD2Ev
 1484              	.LVL115:
 1485              	.LBE1335:
 1486              	.LBE1337:
 1487              	.LBE1339:
 1488 0034 7FE3FB78 		mr 3,31
 1489 0038 48000001 		bl _ZdlPv
 1490 003c 80010014 		lwz 0,20(1)
 1491 0040 83E1000C 		lwz 31,12(1)
 1492              	.LVL116:
 1493 0044 7C0803A6 		mtlr 0
 1494 0048 38210010 		addi 1,1,16
 1495              	.LCFI23:
 1496              		.cfi_def_cfa_offset 0
 1497              		.cfi_restore 31
 1498 004c 4E800020 		blr
 1499              		.cfi_endproc
 1500              	.LFE1858:
 1501              		.size	_ZN20ControlsSettingsMenuD0Ev, .-_ZN20ControlsSettingsMenuD0Ev
 1502              		.section	".text"
 1503              		.align 2
 1504              		.globl _ZN20ControlsSettingsMenu14OnBrowserClickEP16GuiOptionBrowseri
 1505              		.type	_ZN20ControlsSettingsMenu14OnBrowserClickEP16GuiOptionBrowseri, @function
 1506              	_ZN20ControlsSettingsMenu14OnBrowserClickEP16GuiOptionBrowseri:
 1507              	.LFB1591:
 1508              		.loc 5 326 0
 1509              		.cfi_startproc
 1510              	.LVL117:
 1511              		.loc 5 327 0
 1512 038c 2B850017 		cmplwi 7,5,23
 1513              		.loc 5 326 0
 1514 0390 7C0802A6 		mflr 0
 1515 0394 9421FFF8 		stwu 1,-8(1)
 1516              	.LCFI24:
 1517              		.cfi_def_cfa_offset 8
 1518              		.cfi_register 65, 0
 1519 0398 9001000C 		stw 0,12(1)
 1520              		.loc 5 327 0
 1521 039c 419D0060 		bgt- 7,.L71
 1522              		.cfi_offset 65, 4
 1523 03a0 3D200000 		lis 9,.L96@ha
 1524 03a4 54A5103A 		slwi 5,5,2
 1525              	.LVL118:
 1526 03a8 39290000 		la 9,.L96@l(9)
 1527 03ac 7C09282E 		lwzx 0,9,5
 1528 03b0 7D204A14 		add 9,0,9
 1529 03b4 7D2903A6 		mtctr 9
 1530              		.loc 5 405 0
 1531 03b8 3D200000 		lis 9,Settings@ha
 1532 03bc 39290000 		la 9,Settings@l(9)
 1533              		.loc 5 327 0
 1534 03c0 4E800420 		bctr
 1535              		.section	.rodata
 1536              		.align 2
 1537              		.align 2
 1538              	.L96:
 1539 0000 000003C4 		.long .L72-.L96
 1540 0004 000007E8 		.long .L73-.L96
 1541 0008 00000710 		.long .L74-.L96
 1542 000c 00000664 		.long .L75-.L96
 1543 0010 0000063C 		.long .L76-.L96
 1544 0014 000007A0 		.long .L77-.L96
 1545 0018 00000618 		.long .L78-.L96
 1546 001c 000006F8 		.long .L79-.L96
 1547 0020 000006D0 		.long .L80-.L96
 1548 0024 000007DC 		.long .L81-.L96
 1549 0028 000006AC 		.long .L82-.L96
 1550 002c 000005D4 		.long .L83-.L96
 1551 0030 000005AC 		.long .L84-.L96
 1552 0034 00000794 		.long .L85-.L96
 1553 0038 00000588 		.long .L86-.L96
 1554 003c 00000534 		.long .L87-.L96
 1555 0040 0000050C 		.long .L88-.L96
 1556 0044 00000618 		.long .L89-.L96
 1557 0048 000004E8 		.long .L90-.L96
 1558 004c 00000570 		.long .L91-.L96
 1559 0050 000004C4 		.long .L92-.L96
 1560 0054 0000049C 		.long .L93-.L96
 1561 0058 00000474 		.long .L94-.L96
 1562 005c 00000790 		.long .L95-.L96
 1563              		.section	".text"
 1564              	.L72:
 1565              		.loc 5 336 0
 1566 03c4 A0090A38 		lhz 0,2616(9)
 1567              	.LVL119:
 1568              	.LBB1436:
 1569              	.LBB1437:
 1570              		.loc 5 49 0
 1571 03c8 39600001 		li 11,1
 1572              		.loc 5 47 0
 1573 03cc 2F800000 		cmpwi 7,0,0
 1574 03d0 419E0028 		beq- 7,.L97
 1575              		.loc 5 51 0
 1576 03d4 2B80000F 		cmplwi 7,0,15
 1577 03d8 409D001C 		ble- 7,.L241
 1578              	.LVL120:
 1579              	.LBB1438:
 1580              	.LBB1439:
 1581              		.loc 5 55 0
 1582 03dc 2B80007F 		cmplwi 7,0,127
 1583              		.loc 5 57 0
 1584 03e0 39600080 		li 11,128
 1585              		.loc 5 55 0
 1586 03e4 40BD0014 		ble+ 7,.L97
 1587              		.loc 5 59 0
 1588 03e8 2B800FFF 		cmplwi 7,0,4095
 1589              		.loc 5 65 0
 1590 03ec 39600000 		li 11,0
 1591              		.loc 5 59 0
 1592 03f0 419D0008 		bgt- 7,.L97
 1593              	.LVL121:
 1594              	.L241:
 1595              		.loc 5 61 0
 1596 03f4 540B0C3C 		rlwinm 11,0,1,16,30
 1597              	.L97:
 1598              	.LBE1439:
 1599              	.LBE1438:
 1600              	.LBE1437:
 1601              	.LBE1436:
 1602              		.loc 5 336 0
 1603 03f8 B1690A38 		sth 11,2616(9)
 1604              	.LVL122:
 1605              	.L71:
 1606              		.loc 5 411 0
 1607 03fc 81230000 		lwz 9,0(3)
 1608 0400 800900E0 		lwz 0,224(9)
 1609 0404 7C0903A6 		mtctr 0
 1610 0408 4E800421 		bctrl
 1611              	.LVL123:
 1612              		.loc 5 412 0
 1613 040c 8001000C 		lwz 0,12(1)
 1614 0410 38210008 		addi 1,1,8
 1615              		.cfi_remember_state
 1616              	.LCFI25:
 1617              		.cfi_def_cfa_offset 0
 1618 0414 7C0803A6 		mtlr 0
 1619 0418 4E800020 		blr
 1620              	.LVL124:
 1621              	.L94:
 1622              	.LCFI26:
 1623              		.cfi_restore_state
 1624              		.loc 5 402 0
 1625 041c A0090A6A 		lhz 0,2666(9)
 1626              	.LVL125:
 1627              	.LBB1440:
 1628              	.LBB1441:
 1629              		.loc 5 73 0
 1630 0420 39600001 		li 11,1
 1631              		.loc 5 71 0
 1632 0424 2F800000 		cmpwi 7,0,0
 1633 0428 419E0018 		beq- 7,.L163
 1634              		.loc 5 75 0
 1635 042c 2B80007F 		cmplwi 7,0,127
 1636 0430 409D050C 		ble- 7,.L263
 1637              	.LVL126:
 1638              	.LBB1442:
 1639              	.LBB1443:
 1640              		.loc 5 79 0
 1641 0434 2B8001FF 		cmplwi 7,0,511
 1642              		.loc 5 81 0
 1643 0438 39600200 		li 11,512
 1644              		.loc 5 79 0
 1645 043c 419D04F4 		bgt- 7,.L265
 1646              	.LVL127:
 1647              	.L163:
 1648              	.LBE1443:
 1649              	.LBE1442:
 1650              	.LBE1441:
 1651              	.LBE1440:
 1652              		.loc 5 402 0
 1653 0440 B1690A6A 		sth 11,2666(9)
 1654              		.loc 5 403 0
 1655 0444 4BFFFFB8 		b .L71
 1656              	.LVL128:
 1657              	.L93:
 1658              		.loc 5 399 0
 1659 0448 A0090A4E 		lhz 0,2638(9)
 1660              	.LVL129:
 1661              	.LBB1447:
 1662              	.LBB1448:
 1663              		.loc 5 49 0
 1664 044c 39600001 		li 11,1
 1665              		.loc 5 47 0
 1666 0450 2F800000 		cmpwi 7,0,0
 1667 0454 419E0018 		beq- 7,.L160
 1668              		.loc 5 51 0
 1669 0458 2B80000F 		cmplwi 7,0,15
 1670 045c 409D04F8 		ble- 7,.L262
 1671              	.LVL130:
 1672              	.LBB1449:
 1673              	.LBB1450:
 1674              		.loc 5 55 0
 1675 0460 2B80007F 		cmplwi 7,0,127
 1676              		.loc 5 57 0
 1677 0464 39600080 		li 11,128
 1678              		.loc 5 55 0
 1679 0468 419D04E0 		bgt- 7,.L266
 1680              	.LVL131:
 1681              	.L160:
 1682              	.LBE1450:
 1683              	.LBE1449:
 1684              	.LBE1448:
 1685              	.LBE1447:
 1686              		.loc 5 399 0
 1687 046c B1690A4E 		sth 11,2638(9)
 1688              		.loc 5 400 0
 1689 0470 4BFFFF8C 		b .L71
 1690              	.LVL132:
 1691              	.L92:
 1692              		.loc 5 396 0
 1693 0474 A0090A80 		lhz 0,2688(9)
 1694              	.LVL133:
 1695              	.LBB1454:
 1696              	.LBB1455:
 1697              		.loc 5 97 0
 1698 0478 39600001 		li 11,1
 1699              		.loc 5 95 0
 1700 047c 2F800000 		cmpwi 7,0,0
 1701 0480 419E0018 		beq- 7,.L157
 1702              		.loc 5 99 0
 1703 0484 2B80003F 		cmplwi 7,0,63
 1704 0488 409D0424 		ble- 7,.L261
 1705              	.LVL134:
 1706              	.LBB1456:
 1707              	.LBB1457:
 1708              		.loc 5 103 0
 1709 048c 2B8000FF 		cmplwi 7,0,255
 1710              		.loc 5 105 0
 1711 0490 39600100 		li 11,256
 1712              		.loc 5 103 0
 1713 0494 419D040C 		bgt- 7,.L267
 1714              	.LVL135:
 1715              	.L157:
 1716              	.LBE1457:
 1717              	.LBE1456:
 1718              	.LBE1455:
 1719              	.LBE1454:
 1720              		.loc 5 396 0
 1721 0498 B1690A80 		sth 11,2688(9)
 1722              		.loc 5 397 0
 1723 049c 4BFFFF60 		b .L71
 1724              	.LVL136:
 1725              	.L90:
 1726              		.loc 5 390 0
 1727 04a0 A0090A48 		lhz 0,2632(9)
 1728              	.LVL137:
 1729              	.LBB1461:
 1730              	.LBB1462:
 1731              		.loc 5 49 0
 1732 04a4 39600001 		li 11,1
 1733              		.loc 5 47 0
 1734 04a8 2F800000 		cmpwi 7,0,0
 1735 04ac 419E0018 		beq- 7,.L151
 1736              		.loc 5 51 0
 1737 04b0 2B80000F 		cmplwi 7,0,15
 1738 04b4 409D04E8 		ble- 7,.L259
 1739              	.LVL138:
 1740              	.LBB1463:
 1741              	.LBB1464:
 1742              		.loc 5 55 0
 1743 04b8 2B80007F 		cmplwi 7,0,127
 1744              		.loc 5 57 0
 1745 04bc 39600080 		li 11,128
 1746              		.loc 5 55 0
 1747 04c0 419D04D0 		bgt- 7,.L268
 1748              	.LVL139:
 1749              	.L151:
 1750              	.LBE1464:
 1751              	.LBE1463:
 1752              	.LBE1462:
 1753              	.LBE1461:
 1754              		.loc 5 390 0
 1755 04c4 B1690A48 		sth 11,2632(9)
 1756              		.loc 5 391 0
 1757 04c8 4BFFFF34 		b .L71
 1758              	.LVL140:
 1759              	.L88:
 1760              		.loc 5 384 0
 1761 04cc A0090A5E 		lhz 0,2654(9)
 1762              	.LVL141:
 1763              	.LBB1468:
 1764              	.LBB1469:
 1765              		.loc 5 73 0
 1766 04d0 39600001 		li 11,1
 1767              		.loc 5 71 0
 1768 04d4 2F800000 		cmpwi 7,0,0
 1769 04d8 419E0018 		beq- 7,.L145
 1770              		.loc 5 75 0
 1771 04dc 2B80007F 		cmplwi 7,0,127
 1772 04e0 409D051C 		ble- 7,.L257
 1773              	.LVL142:
 1774              	.LBB1470:
 1775              	.LBB1471:
 1776              		.loc 5 79 0
 1777 04e4 2B8001FF 		cmplwi 7,0,511
 1778              		.loc 5 81 0
 1779 04e8 39600200 		li 11,512
 1780              		.loc 5 79 0
 1781 04ec 419D0504 		bgt- 7,.L269
 1782              	.LVL143:
 1783              	.L145:
 1784              	.LBE1471:
 1785              	.LBE1470:
 1786              	.LBE1469:
 1787              	.LBE1468:
 1788              		.loc 5 384 0
 1789 04f0 B1690A5E 		sth 11,2654(9)
 1790              		.loc 5 385 0
 1791 04f4 4BFFFF08 		b .L71
 1792              	.LVL144:
 1793              	.L87:
 1794              		.loc 5 381 0
 1795 04f8 A0090A42 		lhz 0,2626(9)
 1796              	.LVL145:
 1797              	.LBB1475:
 1798              	.LBB1476:
 1799              		.loc 5 49 0
 1800 04fc 39600001 		li 11,1
 1801              		.loc 5 47 0
 1802 0500 2F800000 		cmpwi 7,0,0
 1803 0504 419E0018 		beq- 7,.L142
 1804              		.loc 5 51 0
 1805 0508 2B80000F 		cmplwi 7,0,15
 1806 050c 409D0460 		ble- 7,.L256
 1807              	.LVL146:
 1808              	.LBB1477:
 1809              	.LBB1478:
 1810              		.loc 5 55 0
 1811 0510 2B80007F 		cmplwi 7,0,127
 1812              		.loc 5 57 0
 1813 0514 39600080 		li 11,128
 1814              		.loc 5 55 0
 1815 0518 419D0448 		bgt- 7,.L270
 1816              	.LVL147:
 1817              	.L142:
 1818              	.LBE1478:
 1819              	.LBE1477:
 1820              	.LBE1476:
 1821              	.LBE1475:
 1822              		.loc 5 381 0
 1823 051c B1690A42 		sth 11,2626(9)
 1824              		.loc 5 382 0
 1825 0520 4BFFFEDC 		b .L71
 1826              	.LVL148:
 1827              	.L91:
 1828              		.loc 5 393 0
 1829 0524 A0090A64 		lhz 0,2660(9)
 1830              	.LVL149:
 1831              	.LBB1482:
 1832              	.LBB1483:
 1833              		.loc 5 73 0
 1834 0528 39600001 		li 11,1
 1835              		.loc 5 71 0
 1836 052c 2F800000 		cmpwi 7,0,0
 1837 0530 419E0018 		beq- 7,.L154
 1838              		.loc 5 75 0
 1839 0534 2B80007F 		cmplwi 7,0,127
 1840 0538 409D044C 		ble- 7,.L260
 1841              	.LVL150:
 1842              	.LBB1484:
 1843              	.LBB1485:
 1844              		.loc 5 79 0
 1845 053c 2B8001FF 		cmplwi 7,0,511
 1846              		.loc 5 81 0
 1847 0540 39600200 		li 11,512
 1848              		.loc 5 79 0
 1849 0544 419D0434 		bgt- 7,.L271
 1850              	.LVL151:
 1851              	.L154:
 1852              	.LBE1485:
 1853              	.LBE1484:
 1854              	.LBE1483:
 1855              	.LBE1482:
 1856              		.loc 5 393 0
 1857 0548 B1690A64 		sth 11,2660(9)
 1858              		.loc 5 394 0
 1859 054c 4BFFFEB0 		b .L71
 1860              	.LVL152:
 1861              	.L86:
 1862              		.loc 5 378 0
 1863 0550 A0090A78 		lhz 0,2680(9)
 1864              	.LVL153:
 1865              	.LBB1489:
 1866              	.LBB1490:
 1867              		.loc 5 97 0
 1868 0554 39600001 		li 11,1
 1869              		.loc 5 95 0
 1870 0558 2F800000 		cmpwi 7,0,0
 1871 055c 419E0018 		beq- 7,.L139
 1872              		.loc 5 99 0
 1873 0560 2B80003F 		cmplwi 7,0,63
 1874 0564 409D02B8 		ble- 7,.L255
 1875              	.LVL154:
 1876              	.LBB1491:
 1877              	.LBB1492:
 1878              		.loc 5 103 0
 1879 0568 2B8000FF 		cmplwi 7,0,255
 1880              		.loc 5 105 0
 1881 056c 39600100 		li 11,256
 1882              		.loc 5 103 0
 1883 0570 419D02A0 		bgt- 7,.L272
 1884              	.LVL155:
 1885              	.L139:
 1886              	.LBE1492:
 1887              	.LBE1491:
 1888              	.LBE1490:
 1889              	.LBE1489:
 1890              		.loc 5 378 0
 1891 0574 B1690A78 		sth 11,2680(9)
 1892              		.loc 5 379 0
 1893 0578 4BFFFE84 		b .L71
 1894              	.LVL156:
 1895              	.L84:
 1896              		.loc 5 372 0
 1897 057c A0090A40 		lhz 0,2624(9)
 1898              	.LVL157:
 1899              	.LBB1496:
 1900              	.LBB1497:
 1901              		.loc 5 49 0
 1902 0580 39600001 		li 11,1
 1903              		.loc 5 47 0
 1904 0584 2F800000 		cmpwi 7,0,0
 1905 0588 419E0018 		beq- 7,.L133
 1906              		.loc 5 51 0
 1907 058c 2B80000F 		cmplwi 7,0,15
 1908 0590 409D02A4 		ble- 7,.L253
 1909              	.LVL158:
 1910              	.LBB1498:
 1911              	.LBB1499:
 1912              		.loc 5 55 0
 1913 0594 2B80007F 		cmplwi 7,0,127
 1914              		.loc 5 57 0
 1915 0598 39600080 		li 11,128
 1916              		.loc 5 55 0
 1917 059c 419D028C 		bgt- 7,.L273
 1918              	.LVL159:
 1919              	.L133:
 1920              	.LBE1499:
 1921              	.LBE1498:
 1922              	.LBE1497:
 1923              	.LBE1496:
 1924              		.loc 5 372 0
 1925 05a0 B1690A40 		sth 11,2624(9)
 1926              		.loc 5 373 0
 1927 05a4 4BFFFE58 		b .L71
 1928              	.LVL160:
 1929              	.L83:
 1930              		.loc 5 369 0
 1931 05a8 A0090A76 		lhz 0,2678(9)
 1932              	.LVL161:
 1933              	.LBB1503:
 1934              	.LBB1504:
 1935              		.loc 5 97 0
 1936 05ac 39600001 		li 11,1
 1937              		.loc 5 95 0
 1938 05b0 2F800000 		cmpwi 7,0,0
 1939 05b4 419E0018 		beq- 7,.L130
 1940              		.loc 5 99 0
 1941 05b8 2B80003F 		cmplwi 7,0,63
 1942 05bc 409D0308 		ble- 7,.L252
 1943              	.LVL162:
 1944              	.LBB1505:
 1945              	.LBB1506:
 1946              		.loc 5 103 0
 1947 05c0 2B8000FF 		cmplwi 7,0,255
 1948              		.loc 5 105 0
 1949 05c4 39600100 		li 11,256
 1950              		.loc 5 103 0
 1951 05c8 419D02F0 		bgt- 7,.L274
 1952              	.LVL163:
 1953              	.L130:
 1954              	.LBE1506:
 1955              	.LBE1505:
 1956              	.LBE1504:
 1957              	.LBE1503:
 1958              		.loc 5 369 0
 1959 05cc B1690A76 		sth 11,2678(9)
 1960              		.loc 5 370 0
 1961 05d0 4BFFFE2C 		b .L71
 1962              	.LVL164:
 1963              	.L89:
 1964              		.loc 5 387 0
 1965 05d4 A0090A7A 		lhz 0,2682(9)
 1966              	.LVL165:
 1967              	.LBB1510:
 1968              	.LBB1511:
 1969              		.loc 5 97 0
 1970 05d8 39600001 		li 11,1
 1971              		.loc 5 95 0
 1972 05dc 2F800000 		cmpwi 7,0,0
 1973 05e0 419E0018 		beq- 7,.L148
 1974              		.loc 5 99 0
 1975 05e4 2B80003F 		cmplwi 7,0,63
 1976 05e8 409D03FC 		ble- 7,.L258
 1977              	.LVL166:
 1978              	.LBB1512:
 1979              	.LBB1513:
 1980              		.loc 5 103 0
 1981 05ec 2B8000FF 		cmplwi 7,0,255
 1982              		.loc 5 105 0
 1983 05f0 39600100 		li 11,256
 1984              		.loc 5 103 0
 1985 05f4 419D03E4 		bgt- 7,.L275
 1986              	.LVL167:
 1987              	.L148:
 1988              	.LBE1513:
 1989              	.LBE1512:
 1990              	.LBE1511:
 1991              	.LBE1510:
 1992              		.loc 5 387 0
 1993 05f8 B1690A7A 		sth 11,2682(9)
 1994              		.loc 5 388 0
 1995 05fc 4BFFFE00 		b .L71
 1996              	.LVL168:
 1997              	.L78:
 1998              		.loc 5 354 0
 1999 0600 A0090A3C 		lhz 0,2620(9)
 2000              	.LVL169:
 2001              	.LBB1517:
 2002              	.LBB1518:
 2003              		.loc 5 49 0
 2004 0604 39600001 		li 11,1
 2005              		.loc 5 47 0
 2006 0608 2F800000 		cmpwi 7,0,0
 2007 060c 419E0018 		beq- 7,.L115
 2008              		.loc 5 51 0
 2009 0610 2B80000F 		cmplwi 7,0,15
 2010 0614 409D02E0 		ble- 7,.L247
 2011              	.LVL170:
 2012              	.LBB1519:
 2013              	.LBB1520:
 2014              		.loc 5 55 0
 2015 0618 2B80007F 		cmplwi 7,0,127
 2016              		.loc 5 57 0
 2017 061c 39600080 		li 11,128
 2018              		.loc 5 55 0
 2019 0620 419D02C8 		bgt- 7,.L276
 2020              	.LVL171:
 2021              	.L115:
 2022              	.LBE1520:
 2023              	.LBE1519:
 2024              	.LBE1518:
 2025              	.LBE1517:
 2026              		.loc 5 354 0
 2027 0624 B1690A3C 		sth 11,2620(9)
 2028              		.loc 5 355 0
 2029 0628 4BFFFDD4 		b .L71
 2030              	.LVL172:
 2031              	.L76:
 2032              		.loc 5 348 0
 2033 062c A0090A56 		lhz 0,2646(9)
 2034              	.LVL173:
 2035              	.LBB1524:
 2036              	.LBB1525:
 2037              		.loc 5 73 0
 2038 0630 39600001 		li 11,1
 2039              		.loc 5 71 0
 2040 0634 2F800000 		cmpwi 7,0,0
 2041 0638 419E0018 		beq- 7,.L109
 2042              		.loc 5 75 0
 2043 063c 2B80007F 		cmplwi 7,0,127
 2044 0640 409D02CC 		ble- 7,.L245
 2045              	.LVL174:
 2046              	.LBB1526:
 2047              	.LBB1527:
 2048              		.loc 5 79 0
 2049 0644 2B8001FF 		cmplwi 7,0,511
 2050              		.loc 5 81 0
 2051 0648 39600200 		li 11,512
 2052              		.loc 5 79 0
 2053 064c 419D02B4 		bgt- 7,.L277
 2054              	.LVL175:
 2055              	.L109:
 2056              	.LBE1527:
 2057              	.LBE1526:
 2058              	.LBE1525:
 2059              	.LBE1524:
 2060              		.loc 5 348 0
 2061 0650 B1690A56 		sth 11,2646(9)
 2062              		.loc 5 349 0
 2063 0654 4BFFFDA8 		b .L71
 2064              	.LVL176:
 2065              	.L75:
 2066              		.loc 5 345 0
 2067 0658 A0090A3A 		lhz 0,2618(9)
 2068              	.LVL177:
 2069              	.LBB1531:
 2070              	.LBB1532:
 2071              		.loc 5 49 0
 2072 065c 39600001 		li 11,1
 2073              		.loc 5 47 0
 2074 0660 2F800000 		cmpwi 7,0,0
 2075 0664 419E0018 		beq- 7,.L106
 2076              		.loc 5 51 0
 2077 0668 2B80000F 		cmplwi 7,0,15
 2078 066c 409D0270 		ble- 7,.L244
 2079              	.LVL178:
 2080              	.LBB1533:
 2081              	.LBB1534:
 2082              		.loc 5 55 0
 2083 0670 2B80007F 		cmplwi 7,0,127
 2084              		.loc 5 57 0
 2085 0674 39600080 		li 11,128
 2086              		.loc 5 55 0
 2087 0678 419D0258 		bgt- 7,.L278
 2088              	.LVL179:
 2089              	.L106:
 2090              	.LBE1534:
 2091              	.LBE1533:
 2092              	.LBE1532:
 2093              	.LBE1531:
 2094              		.loc 5 345 0
 2095 067c B1690A3A 		sth 11,2618(9)
 2096              		.loc 5 346 0
 2097 0680 4BFFFD7C 		b .L71
 2098              	.LVL180:
 2099              	.L82:
 2100              		.loc 5 366 0
 2101 0684 A0090A5A 		lhz 0,2650(9)
 2102              	.LVL181:
 2103              	.LBB1538:
 2104              	.LBB1539:
 2105              		.loc 5 73 0
 2106 0688 39600001 		li 11,1
 2107              		.loc 5 71 0
 2108 068c 2F800000 		cmpwi 7,0,0
 2109 0690 419E0018 		beq- 7,.L127
 2110              		.loc 5 75 0
 2111 0694 2B80007F 		cmplwi 7,0,127
 2112 0698 409D01CC 		ble- 7,.L251
 2113              	.LVL182:
 2114              	.LBB1540:
 2115              	.LBB1541:
 2116              		.loc 5 79 0
 2117 069c 2B8001FF 		cmplwi 7,0,511
 2118              		.loc 5 81 0
 2119 06a0 39600200 		li 11,512
 2120              		.loc 5 79 0
 2121 06a4 419D01B4 		bgt- 7,.L279
 2122              	.LVL183:
 2123              	.L127:
 2124              	.LBE1541:
 2125              	.LBE1540:
 2126              	.LBE1539:
 2127              	.LBE1538:
 2128              		.loc 5 366 0
 2129 06a8 B1690A5A 		sth 11,2650(9)
 2130              		.loc 5 367 0
 2131 06ac 4BFFFD50 		b .L71
 2132              	.LVL184:
 2133              	.L80:
 2134              		.loc 5 360 0
 2135 06b0 A0090A74 		lhz 0,2676(9)
 2136              	.LVL185:
 2137              	.LBB1545:
 2138              	.LBB1546:
 2139              		.loc 5 97 0
 2140 06b4 39600001 		li 11,1
 2141              		.loc 5 95 0
 2142 06b8 2F800000 		cmpwi 7,0,0
 2143 06bc 419E0018 		beq- 7,.L121
 2144              		.loc 5 99 0
 2145 06c0 2B80003F 		cmplwi 7,0,63
 2146 06c4 409D01B8 		ble- 7,.L249
 2147              	.LVL186:
 2148              	.LBB1547:
 2149              	.LBB1548:
 2150              		.loc 5 103 0
 2151 06c8 2B8000FF 		cmplwi 7,0,255
 2152              		.loc 5 105 0
 2153 06cc 39600100 		li 11,256
 2154              		.loc 5 103 0
 2155 06d0 419D01A0 		bgt- 7,.L280
 2156              	.LVL187:
 2157              	.L121:
 2158              	.LBE1548:
 2159              	.LBE1547:
 2160              	.LBE1546:
 2161              	.LBE1545:
 2162              		.loc 5 360 0
 2163 06d4 B1690A74 		sth 11,2676(9)
 2164              		.loc 5 361 0
 2165 06d8 4BFFFD24 		b .L71
 2166              	.LVL188:
 2167              	.L79:
 2168              		.loc 5 357 0
 2169 06dc A0090A58 		lhz 0,2648(9)
 2170              	.LVL189:
 2171              	.LBB1552:
 2172              	.LBB1553:
 2173              		.loc 5 73 0
 2174 06e0 39600001 		li 11,1
 2175              		.loc 5 71 0
 2176 06e4 2F800000 		cmpwi 7,0,0
 2177 06e8 419E0018 		beq- 7,.L118
 2178              		.loc 5 75 0
 2179 06ec 2B80007F 		cmplwi 7,0,127
 2180 06f0 409D01A4 		ble- 7,.L248
 2181              	.LVL190:
 2182              	.LBB1554:
 2183              	.LBB1555:
 2184              		.loc 5 79 0
 2185 06f4 2B8001FF 		cmplwi 7,0,511
 2186              		.loc 5 81 0
 2187 06f8 39600200 		li 11,512
 2188              		.loc 5 79 0
 2189 06fc 419D018C 		bgt- 7,.L281
 2190              	.LVL191:
 2191              	.L118:
 2192              	.LBE1555:
 2193              	.LBE1554:
 2194              	.LBE1553:
 2195              	.LBE1552:
 2196              		.loc 5 357 0
 2197 0700 B1690A58 		sth 11,2648(9)
 2198              		.loc 5 358 0
 2199 0704 4BFFFCF8 		b .L71
 2200              	.LVL192:
 2201              	.L74:
 2202              		.loc 5 342 0
 2203 0708 A0090A70 		lhz 0,2672(9)
 2204              	.LVL193:
 2205              	.LBB1559:
 2206              	.LBB1560:
 2207              		.loc 5 97 0
 2208 070c 39600001 		li 11,1
 2209              		.loc 5 95 0
 2210 0710 2F800000 		cmpwi 7,0,0
 2211 0714 419E0018 		beq- 7,.L103
 2212              		.loc 5 99 0
 2213 0718 2B80003F 		cmplwi 7,0,63
 2214 071c 409D0130 		ble- 7,.L243
 2215              	.LVL194:
 2216              	.LBB1561:
 2217              	.LBB1562:
 2218              		.loc 5 103 0
 2219 0720 2B8000FF 		cmplwi 7,0,255
 2220              		.loc 5 105 0
 2221 0724 39600100 		li 11,256
 2222              		.loc 5 103 0
 2223 0728 419D0118 		bgt- 7,.L282
 2224              	.LVL195:
 2225              	.L103:
 2226              	.LBE1562:
 2227              	.LBE1561:
 2228              	.LBE1560:
 2229              	.LBE1559:
 2230              		.loc 5 342 0
 2231 072c B1690A70 		sth 11,2672(9)
 2232              		.loc 5 343 0
 2233 0730 4BFFFCCC 		b .L71
 2234              	.LVL196:
 2235              	.L95:
 2236              		.loc 5 405 0
 2237 0734 A0090A86 		lhz 0,2694(9)
 2238              	.LVL197:
 2239              	.LBB1566:
 2240              	.LBB1567:
 2241              		.loc 5 97 0
 2242 0738 39600001 		li 11,1
 2243              		.loc 5 95 0
 2244 073c 2F800000 		cmpwi 7,0,0
 2245 0740 419E0018 		beq- 7,.L166
 2246              		.loc 5 99 0
 2247 0744 2B80003F 		cmplwi 7,0,63
 2248 0748 409D02CC 		ble- 7,.L264
 2249              	.LVL198:
 2250              	.LBB1568:
 2251              	.LBB1569:
 2252              		.loc 5 103 0
 2253 074c 2B8000FF 		cmplwi 7,0,255
 2254              		.loc 5 105 0
 2255 0750 39600100 		li 11,256
 2256              		.loc 5 103 0
 2257 0754 419D02B4 		bgt- 7,.L283
 2258              	.LVL199:
 2259              	.L166:
 2260              	.LBE1569:
 2261              	.LBE1568:
 2262              	.LBE1567:
 2263              	.LBE1566:
 2264              		.loc 5 405 0
 2265 0758 B1690A86 		sth 11,2694(9)
 2266              		.loc 5 406 0
 2267 075c 4BFFFCA0 		b .L71
 2268              	.LVL200:
 2269              	.L85:
 2270              		.loc 5 375 0
 2271 0760 A0090A5C 		lhz 0,2652(9)
 2272              	.LVL201:
 2273              	.LBB1573:
 2274              	.LBB1574:
 2275              		.loc 5 73 0
 2276 0764 39600001 		li 11,1
 2277              		.loc 5 71 0
 2278 0768 2F800000 		cmpwi 7,0,0
 2279 076c 419E0018 		beq- 7,.L136
 2280              		.loc 5 75 0
 2281 0770 2B80007F 		cmplwi 7,0,127
 2282 0774 409D02B8 		ble- 7,.L254
 2283              	.LVL202:
 2284              	.LBB1575:
 2285              	.LBB1576:
 2286              		.loc 5 79 0
 2287 0778 2B8001FF 		cmplwi 7,0,511
 2288              		.loc 5 81 0
 2289 077c 39600200 		li 11,512
 2290              		.loc 5 79 0
 2291 0780 419D02A0 		bgt- 7,.L284
 2292              	.LVL203:
 2293              	.L136:
 2294              	.LBE1576:
 2295              	.LBE1575:
 2296              	.LBE1574:
 2297              	.LBE1573:
 2298              		.loc 5 375 0
 2299 0784 B1690A5C 		sth 11,2652(9)
 2300              		.loc 5 376 0
 2301 0788 4BFFFC74 		b .L71
 2302              	.LVL204:
 2303              	.L77:
 2304              		.loc 5 351 0
 2305 078c A0090A72 		lhz 0,2674(9)
 2306              	.LVL205:
 2307              	.LBB1580:
 2308              	.LBB1581:
 2309              		.loc 5 97 0
 2310 0790 39600001 		li 11,1
 2311              		.loc 5 95 0
 2312 0794 2F800000 		cmpwi 7,0,0
 2313 0798 419E0018 		beq- 7,.L112
 2314              		.loc 5 99 0
 2315 079c 2B80003F 		cmplwi 7,0,63
 2316 07a0 409D022C 		ble- 7,.L246
 2317              	.LVL206:
 2318              	.LBB1582:
 2319              	.LBB1583:
 2320              		.loc 5 103 0
 2321 07a4 2B8000FF 		cmplwi 7,0,255
 2322              		.loc 5 105 0
 2323 07a8 39600100 		li 11,256
 2324              		.loc 5 103 0
 2325 07ac 419D0214 		bgt- 7,.L285
 2326              	.LVL207:
 2327              	.L112:
 2328              	.LBE1583:
 2329              	.LBE1582:
 2330              	.LBE1581:
 2331              	.LBE1580:
 2332              		.loc 5 351 0
 2333 07b0 B1690A72 		sth 11,2674(9)
 2334              		.loc 5 352 0
 2335 07b4 4BFFFC48 		b .L71
 2336              	.LVL208:
 2337              	.L81:
 2338              		.loc 5 363 0
 2339 07b8 A0090A3E 		lhz 0,2622(9)
 2340              	.LVL209:
 2341              	.LBB1587:
 2342              	.LBB1588:
 2343              		.loc 5 49 0
 2344 07bc 39600001 		li 11,1
 2345              		.loc 5 47 0
 2346 07c0 2F800000 		cmpwi 7,0,0
 2347 07c4 419E0018 		beq- 7,.L124
 2348              		.loc 5 51 0
 2349 07c8 2B80000F 		cmplwi 7,0,15
 2350 07cc 409D01E8 		ble- 7,.L250
 2351              	.LVL210:
 2352              	.LBB1589:
 2353              	.LBB1590:
 2354              		.loc 5 55 0
 2355 07d0 2B80007F 		cmplwi 7,0,127
 2356              		.loc 5 57 0
 2357 07d4 39600080 		li 11,128
 2358              		.loc 5 55 0
 2359 07d8 419D01D0 		bgt- 7,.L286
 2360              	.LVL211:
 2361              	.L124:
 2362              	.LBE1590:
 2363              	.LBE1589:
 2364              	.LBE1588:
 2365              	.LBE1587:
 2366              		.loc 5 363 0
 2367 07dc B1690A3E 		sth 11,2622(9)
 2368              		.loc 5 364 0
 2369 07e0 4BFFFC1C 		b .L71
 2370              	.LVL212:
 2371              	.L73:
 2372              		.loc 5 339 0
 2373 07e4 A0090A54 		lhz 0,2644(9)
 2374              	.LVL213:
 2375              	.LBB1594:
 2376              	.LBB1595:
 2377              		.loc 5 73 0
 2378 07e8 39600001 		li 11,1
 2379              		.loc 5 71 0
 2380 07ec 2F800000 		cmpwi 7,0,0
 2381 07f0 419E0018 		beq- 7,.L100
 2382              		.loc 5 75 0
 2383 07f4 2B80007F 		cmplwi 7,0,127
 2384 07f8 409D012C 		ble- 7,.L242
 2385              	.LVL214:
 2386              	.LBB1596:
 2387              	.LBB1597:
 2388              		.loc 5 79 0
 2389 07fc 2B8001FF 		cmplwi 7,0,511
 2390              		.loc 5 81 0
 2391 0800 39600200 		li 11,512
 2392              		.loc 5 79 0
 2393 0804 419D0114 		bgt- 7,.L287
 2394              	.LVL215:
 2395              	.L100:
 2396              	.LBE1597:
 2397              	.LBE1596:
 2398              	.LBE1595:
 2399              	.LBE1594:
 2400              		.loc 5 339 0
 2401 0808 B1690A54 		sth 11,2644(9)
 2402              		.loc 5 340 0
 2403 080c 4BFFFBF0 		b .L71
 2404              	.LVL216:
 2405              	.L272:
 2406              	.LBB1601:
 2407              	.LBB1495:
 2408              	.LBB1494:
 2409              	.LBB1493:
 2410              		.loc 5 107 0
 2411 0810 2B800FFF 		cmplwi 7,0,4095
 2412              		.loc 5 113 0
 2413 0814 39600000 		li 11,0
 2414              		.loc 5 107 0
 2415 0818 41BDFD5C 		bgt- 7,.L139
 2416              	.LVL217:
 2417              	.L255:
 2418              		.loc 5 109 0
 2419 081c 540B0C3C 		rlwinm 11,0,1,16,30
 2420              	.LBE1493:
 2421              	.LBE1494:
 2422              	.LBE1495:
 2423              	.LBE1601:
 2424              		.loc 5 378 0
 2425 0820 B1690A78 		sth 11,2680(9)
 2426 0824 4BFFFBD8 		b .L71
 2427              	.LVL218:
 2428              	.L273:
 2429              	.LBB1602:
 2430              	.LBB1502:
 2431              	.LBB1501:
 2432              	.LBB1500:
 2433              		.loc 5 59 0
 2434 0828 2B800FFF 		cmplwi 7,0,4095
 2435              		.loc 5 65 0
 2436 082c 39600000 		li 11,0
 2437              		.loc 5 59 0
 2438 0830 41BDFD70 		bgt- 7,.L133
 2439              	.LVL219:
 2440              	.L253:
 2441              		.loc 5 61 0
 2442 0834 540B0C3C 		rlwinm 11,0,1,16,30
 2443              	.LBE1500:
 2444              	.LBE1501:
 2445              	.LBE1502:
 2446              	.LBE1602:
 2447              		.loc 5 372 0
 2448 0838 B1690A40 		sth 11,2624(9)
 2449 083c 4BFFFBC0 		b .L71
 2450              	.LVL220:
 2451              	.L282:
 2452              	.LBB1603:
 2453              	.LBB1565:
 2454              	.LBB1564:
 2455              	.LBB1563:
 2456              		.loc 5 107 0
 2457 0840 2B800FFF 		cmplwi 7,0,4095
 2458              		.loc 5 113 0
 2459 0844 39600000 		li 11,0
 2460              		.loc 5 107 0
 2461 0848 41BDFEE4 		bgt- 7,.L103
 2462              	.LVL221:
 2463              	.L243:
 2464              		.loc 5 109 0
 2465 084c 540B0C3C 		rlwinm 11,0,1,16,30
 2466              	.LBE1563:
 2467              	.LBE1564:
 2468              	.LBE1565:
 2469              	.LBE1603:
 2470              		.loc 5 342 0
 2471 0850 B1690A70 		sth 11,2672(9)
 2472 0854 4BFFFBA8 		b .L71
 2473              	.LVL222:
 2474              	.L279:
 2475              	.LBB1604:
 2476              	.LBB1544:
 2477              	.LBB1543:
 2478              	.LBB1542:
 2479              		.loc 5 83 0
 2480 0858 700B8000 		andi. 11,0,32768
 2481              		.loc 5 89 0
 2482 085c 39600000 		li 11,0
 2483              		.loc 5 83 0
 2484 0860 40A2FE48 		bne- 0,.L127
 2485              	.LVL223:
 2486              	.L251:
 2487              		.loc 5 85 0
 2488 0864 540B0C3C 		rlwinm 11,0,1,16,30
 2489              	.LBE1542:
 2490              	.LBE1543:
 2491              	.LBE1544:
 2492              	.LBE1604:
 2493              		.loc 5 366 0
 2494 0868 B1690A5A 		sth 11,2650(9)
 2495 086c 4BFFFB90 		b .L71
 2496              	.LVL224:
 2497              	.L280:
 2498              	.LBB1605:
 2499              	.LBB1551:
 2500              	.LBB1550:
 2501              	.LBB1549:
 2502              		.loc 5 107 0
 2503 0870 2B800FFF 		cmplwi 7,0,4095
 2504              		.loc 5 113 0
 2505 0874 39600000 		li 11,0
 2506              		.loc 5 107 0
 2507 0878 41BDFE5C 		bgt- 7,.L121
 2508              	.LVL225:
 2509              	.L249:
 2510              		.loc 5 109 0
 2511 087c 540B0C3C 		rlwinm 11,0,1,16,30
 2512              	.LBE1549:
 2513              	.LBE1550:
 2514              	.LBE1551:
 2515              	.LBE1605:
 2516              		.loc 5 360 0
 2517 0880 B1690A74 		sth 11,2676(9)
 2518 0884 4BFFFB78 		b .L71
 2519              	.LVL226:
 2520              	.L281:
 2521              	.LBB1606:
 2522              	.LBB1558:
 2523              	.LBB1557:
 2524              	.LBB1556:
 2525              		.loc 5 83 0
 2526 0888 700B8000 		andi. 11,0,32768
 2527              		.loc 5 89 0
 2528 088c 39600000 		li 11,0
 2529              		.loc 5 83 0
 2530 0890 40A2FE70 		bne- 0,.L118
 2531              	.LVL227:
 2532              	.L248:
 2533              		.loc 5 85 0
 2534 0894 540B0C3C 		rlwinm 11,0,1,16,30
 2535              	.LBE1556:
 2536              	.LBE1557:
 2537              	.LBE1558:
 2538              	.LBE1606:
 2539              		.loc 5 357 0
 2540 0898 B1690A58 		sth 11,2648(9)
 2541 089c 4BFFFB60 		b .L71
 2542              	.LVL228:
 2543              	.L267:
 2544              	.LBB1607:
 2545              	.LBB1460:
 2546              	.LBB1459:
 2547              	.LBB1458:
 2548              		.loc 5 107 0
 2549 08a0 2B800FFF 		cmplwi 7,0,4095
 2550              		.loc 5 113 0
 2551 08a4 39600000 		li 11,0
 2552              		.loc 5 107 0
 2553 08a8 41BDFBF0 		bgt- 7,.L157
 2554              	.LVL229:
 2555              	.L261:
 2556              		.loc 5 109 0
 2557 08ac 540B0C3C 		rlwinm 11,0,1,16,30
 2558              	.LBE1458:
 2559              	.LBE1459:
 2560              	.LBE1460:
 2561              	.LBE1607:
 2562              		.loc 5 396 0
 2563 08b0 B1690A80 		sth 11,2688(9)
 2564 08b4 4BFFFB48 		b .L71
 2565              	.LVL230:
 2566              	.L274:
 2567              	.LBB1608:
 2568              	.LBB1509:
 2569              	.LBB1508:
 2570              	.LBB1507:
 2571              		.loc 5 107 0
 2572 08b8 2B800FFF 		cmplwi 7,0,4095
 2573              		.loc 5 113 0
 2574 08bc 39600000 		li 11,0
 2575              		.loc 5 107 0
 2576 08c0 41BDFD0C 		bgt- 7,.L130
 2577              	.LVL231:
 2578              	.L252:
 2579              		.loc 5 109 0
 2580 08c4 540B0C3C 		rlwinm 11,0,1,16,30
 2581              	.LBE1507:
 2582              	.LBE1508:
 2583              	.LBE1509:
 2584              	.LBE1608:
 2585              		.loc 5 369 0
 2586 08c8 B1690A76 		sth 11,2678(9)
 2587 08cc 4BFFFB30 		b .L71
 2588              	.LVL232:
 2589              	.L278:
 2590              	.LBB1609:
 2591              	.LBB1537:
 2592              	.LBB1536:
 2593              	.LBB1535:
 2594              		.loc 5 59 0
 2595 08d0 2B800FFF 		cmplwi 7,0,4095
 2596              		.loc 5 65 0
 2597 08d4 39600000 		li 11,0
 2598              		.loc 5 59 0
 2599 08d8 41BDFDA4 		bgt- 7,.L106
 2600              	.LVL233:
 2601              	.L244:
 2602              		.loc 5 61 0
 2603 08dc 540B0C3C 		rlwinm 11,0,1,16,30
 2604              	.LBE1535:
 2605              	.LBE1536:
 2606              	.LBE1537:
 2607              	.LBE1609:
 2608              		.loc 5 345 0
 2609 08e0 B1690A3A 		sth 11,2618(9)
 2610 08e4 4BFFFB18 		b .L71
 2611              	.LVL234:
 2612              	.L276:
 2613              	.LBB1610:
 2614              	.LBB1523:
 2615              	.LBB1522:
 2616              	.LBB1521:
 2617              		.loc 5 59 0
 2618 08e8 2B800FFF 		cmplwi 7,0,4095
 2619              		.loc 5 65 0
 2620 08ec 39600000 		li 11,0
 2621              		.loc 5 59 0
 2622 08f0 41BDFD34 		bgt- 7,.L115
 2623              	.LVL235:
 2624              	.L247:
 2625              		.loc 5 61 0
 2626 08f4 540B0C3C 		rlwinm 11,0,1,16,30
 2627              	.LBE1521:
 2628              	.LBE1522:
 2629              	.LBE1523:
 2630              	.LBE1610:
 2631              		.loc 5 354 0
 2632 08f8 B1690A3C 		sth 11,2620(9)
 2633 08fc 4BFFFB00 		b .L71
 2634              	.LVL236:
 2635              	.L277:
 2636              	.LBB1611:
 2637              	.LBB1530:
 2638              	.LBB1529:
 2639              	.LBB1528:
 2640              		.loc 5 83 0
 2641 0900 700B8000 		andi. 11,0,32768
 2642              		.loc 5 89 0
 2643 0904 39600000 		li 11,0
 2644              		.loc 5 83 0
 2645 0908 40A2FD48 		bne- 0,.L109
 2646              	.LVL237:
 2647              	.L245:
 2648              		.loc 5 85 0
 2649 090c 540B0C3C 		rlwinm 11,0,1,16,30
 2650              	.LBE1528:
 2651              	.LBE1529:
 2652              	.LBE1530:
 2653              	.LBE1611:
 2654              		.loc 5 348 0
 2655 0910 B1690A56 		sth 11,2646(9)
 2656 0914 4BFFFAE8 		b .L71
 2657              	.LVL238:
 2658              	.L287:
 2659              	.LBB1612:
 2660              	.LBB1600:
 2661              	.LBB1599:
 2662              	.LBB1598:
 2663              		.loc 5 83 0
 2664 0918 700B8000 		andi. 11,0,32768
 2665              		.loc 5 89 0
 2666 091c 39600000 		li 11,0
 2667              		.loc 5 83 0
 2668 0920 40A2FEE8 		bne- 0,.L100
 2669              	.LVL239:
 2670              	.L242:
 2671              		.loc 5 85 0
 2672 0924 540B0C3C 		rlwinm 11,0,1,16,30
 2673              	.LBE1598:
 2674              	.LBE1599:
 2675              	.LBE1600:
 2676              	.LBE1612:
 2677              		.loc 5 339 0
 2678 0928 B1690A54 		sth 11,2644(9)
 2679 092c 4BFFFAD0 		b .L71
 2680              	.LVL240:
 2681              	.L265:
 2682              	.LBB1613:
 2683              	.LBB1446:
 2684              	.LBB1445:
 2685              	.LBB1444:
 2686              		.loc 5 83 0
 2687 0930 700B8000 		andi. 11,0,32768
 2688              		.loc 5 89 0
 2689 0934 39600000 		li 11,0
 2690              		.loc 5 83 0
 2691 0938 40A2FB08 		bne- 0,.L163
 2692              	.LVL241:
 2693              	.L263:
 2694              		.loc 5 85 0
 2695 093c 540B0C3C 		rlwinm 11,0,1,16,30
 2696              	.LBE1444:
 2697              	.LBE1445:
 2698              	.LBE1446:
 2699              	.LBE1613:
 2700              		.loc 5 402 0
 2701 0940 B1690A6A 		sth 11,2666(9)
 2702 0944 4BFFFAB8 		b .L71
 2703              	.LVL242:
 2704              	.L266:
 2705              	.LBB1614:
 2706              	.LBB1453:
 2707              	.LBB1452:
 2708              	.LBB1451:
 2709              		.loc 5 59 0
 2710 0948 2B800FFF 		cmplwi 7,0,4095
 2711              		.loc 5 65 0
 2712 094c 39600000 		li 11,0
 2713              		.loc 5 59 0
 2714 0950 41BDFB1C 		bgt- 7,.L160
 2715              	.LVL243:
 2716              	.L262:
 2717              		.loc 5 61 0
 2718 0954 540B0C3C 		rlwinm 11,0,1,16,30
 2719              	.LBE1451:
 2720              	.LBE1452:
 2721              	.LBE1453:
 2722              	.LBE1614:
 2723              		.loc 5 399 0
 2724 0958 B1690A4E 		sth 11,2638(9)
 2725 095c 4BFFFAA0 		b .L71
 2726              	.LVL244:
 2727              	.L270:
 2728              	.LBB1615:
 2729              	.LBB1481:
 2730              	.LBB1480:
 2731              	.LBB1479:
 2732              		.loc 5 59 0
 2733 0960 2B800FFF 		cmplwi 7,0,4095
 2734              		.loc 5 65 0
 2735 0964 39600000 		li 11,0
 2736              		.loc 5 59 0
 2737 0968 41BDFBB4 		bgt- 7,.L142
 2738              	.LVL245:
 2739              	.L256:
 2740              		.loc 5 61 0
 2741 096c 540B0C3C 		rlwinm 11,0,1,16,30
 2742              	.LBE1479:
 2743              	.LBE1480:
 2744              	.LBE1481:
 2745              	.LBE1615:
 2746              		.loc 5 381 0
 2747 0970 B1690A42 		sth 11,2626(9)
 2748 0974 4BFFFA88 		b .L71
 2749              	.LVL246:
 2750              	.L271:
 2751              	.LBB1616:
 2752              	.LBB1488:
 2753              	.LBB1487:
 2754              	.LBB1486:
 2755              		.loc 5 83 0
 2756 0978 700B8000 		andi. 11,0,32768
 2757              		.loc 5 89 0
 2758 097c 39600000 		li 11,0
 2759              		.loc 5 83 0
 2760 0980 40A2FBC8 		bne- 0,.L154
 2761              	.LVL247:
 2762              	.L260:
 2763              		.loc 5 85 0
 2764 0984 540B0C3C 		rlwinm 11,0,1,16,30
 2765              	.LBE1486:
 2766              	.LBE1487:
 2767              	.LBE1488:
 2768              	.LBE1616:
 2769              		.loc 5 393 0
 2770 0988 B1690A64 		sth 11,2660(9)
 2771 098c 4BFFFA70 		b .L71
 2772              	.LVL248:
 2773              	.L268:
 2774              	.LBB1617:
 2775              	.LBB1467:
 2776              	.LBB1466:
 2777              	.LBB1465:
 2778              		.loc 5 59 0
 2779 0990 2B800FFF 		cmplwi 7,0,4095
 2780              		.loc 5 65 0
 2781 0994 39600000 		li 11,0
 2782              		.loc 5 59 0
 2783 0998 41BDFB2C 		bgt- 7,.L151
 2784              	.LVL249:
 2785              	.L259:
 2786              		.loc 5 61 0
 2787 099c 540B0C3C 		rlwinm 11,0,1,16,30
 2788              	.LBE1465:
 2789              	.LBE1466:
 2790              	.LBE1467:
 2791              	.LBE1617:
 2792              		.loc 5 390 0
 2793 09a0 B1690A48 		sth 11,2632(9)
 2794 09a4 4BFFFA58 		b .L71
 2795              	.LVL250:
 2796              	.L286:
 2797              	.LBB1618:
 2798              	.LBB1593:
 2799              	.LBB1592:
 2800              	.LBB1591:
 2801              		.loc 5 59 0
 2802 09a8 2B800FFF 		cmplwi 7,0,4095
 2803              		.loc 5 65 0
 2804 09ac 39600000 		li 11,0
 2805              		.loc 5 59 0
 2806 09b0 41BDFE2C 		bgt- 7,.L124
 2807              	.LVL251:
 2808              	.L250:
 2809              		.loc 5 61 0
 2810 09b4 540B0C3C 		rlwinm 11,0,1,16,30
 2811              	.LBE1591:
 2812              	.LBE1592:
 2813              	.LBE1593:
 2814              	.LBE1618:
 2815              		.loc 5 363 0
 2816 09b8 B1690A3E 		sth 11,2622(9)
 2817 09bc 4BFFFA40 		b .L71
 2818              	.LVL252:
 2819              	.L285:
 2820              	.LBB1619:
 2821              	.LBB1586:
 2822              	.LBB1585:
 2823              	.LBB1584:
 2824              		.loc 5 107 0
 2825 09c0 2B800FFF 		cmplwi 7,0,4095
 2826              		.loc 5 113 0
 2827 09c4 39600000 		li 11,0
 2828              		.loc 5 107 0
 2829 09c8 41BDFDE8 		bgt- 7,.L112
 2830              	.LVL253:
 2831              	.L246:
 2832              		.loc 5 109 0
 2833 09cc 540B0C3C 		rlwinm 11,0,1,16,30
 2834              	.LBE1584:
 2835              	.LBE1585:
 2836              	.LBE1586:
 2837              	.LBE1619:
 2838              		.loc 5 351 0
 2839 09d0 B1690A72 		sth 11,2674(9)
 2840 09d4 4BFFFA28 		b .L71
 2841              	.LVL254:
 2842              	.L275:
 2843              	.LBB1620:
 2844              	.LBB1516:
 2845              	.LBB1515:
 2846              	.LBB1514:
 2847              		.loc 5 107 0
 2848 09d8 2B800FFF 		cmplwi 7,0,4095
 2849              		.loc 5 113 0
 2850 09dc 39600000 		li 11,0
 2851              		.loc 5 107 0
 2852 09e0 41BDFC18 		bgt- 7,.L148
 2853              	.LVL255:
 2854              	.L258:
 2855              		.loc 5 109 0
 2856 09e4 540B0C3C 		rlwinm 11,0,1,16,30
 2857              	.LBE1514:
 2858              	.LBE1515:
 2859              	.LBE1516:
 2860              	.LBE1620:
 2861              		.loc 5 387 0
 2862 09e8 B1690A7A 		sth 11,2682(9)
 2863 09ec 4BFFFA10 		b .L71
 2864              	.LVL256:
 2865              	.L269:
 2866              	.LBB1621:
 2867              	.LBB1474:
 2868              	.LBB1473:
 2869              	.LBB1472:
 2870              		.loc 5 83 0
 2871 09f0 700B8000 		andi. 11,0,32768
 2872              		.loc 5 89 0
 2873 09f4 39600000 		li 11,0
 2874              		.loc 5 83 0
 2875 09f8 40A2FAF8 		bne- 0,.L145
 2876              	.LVL257:
 2877              	.L257:
 2878              		.loc 5 85 0
 2879 09fc 540B0C3C 		rlwinm 11,0,1,16,30
 2880              	.LBE1472:
 2881              	.LBE1473:
 2882              	.LBE1474:
 2883              	.LBE1621:
 2884              		.loc 5 384 0
 2885 0a00 B1690A5E 		sth 11,2654(9)
 2886 0a04 4BFFF9F8 		b .L71
 2887              	.LVL258:
 2888              	.L283:
 2889              	.LBB1622:
 2890              	.LBB1572:
 2891              	.LBB1571:
 2892              	.LBB1570:
 2893              		.loc 5 107 0
 2894 0a08 2B800FFF 		cmplwi 7,0,4095
 2895              		.loc 5 113 0
 2896 0a0c 39600000 		li 11,0
 2897              		.loc 5 107 0
 2898 0a10 41BDFD48 		bgt- 7,.L166
 2899              	.LVL259:
 2900              	.L264:
 2901              		.loc 5 109 0
 2902 0a14 540B0C3C 		rlwinm 11,0,1,16,30
 2903              	.LBE1570:
 2904              	.LBE1571:
 2905              	.LBE1572:
 2906              	.LBE1622:
 2907              		.loc 5 405 0
 2908 0a18 B1690A86 		sth 11,2694(9)
 2909 0a1c 4BFFF9E0 		b .L71
 2910              	.LVL260:
 2911              	.L284:
 2912              	.LBB1623:
 2913              	.LBB1579:
 2914              	.LBB1578:
 2915              	.LBB1577:
 2916              		.loc 5 83 0
 2917 0a20 700B8000 		andi. 11,0,32768
 2918              		.loc 5 89 0
 2919 0a24 39600000 		li 11,0
 2920              		.loc 5 83 0
 2921 0a28 40A2FD5C 		bne- 0,.L136
 2922              	.LVL261:
 2923              	.L254:
 2924              		.loc 5 85 0
 2925 0a2c 540B0C3C 		rlwinm 11,0,1,16,30
 2926              	.LBE1577:
 2927              	.LBE1578:
 2928              	.LBE1579:
 2929              	.LBE1623:
 2930              		.loc 5 375 0
 2931 0a30 B1690A5C 		sth 11,2652(9)
 2932 0a34 4BFFF9C8 		b .L71
 2933              		.cfi_endproc
 2934              	.LFE1591:
 2935              		.size	_ZN20ControlsSettingsMenu14OnBrowserClickEP16GuiOptionBrowseri, .-_ZN20ControlsSettingsMenu1
 2936              		.align 2
 2937              		.globl _ZN20ControlsSettingsMenu15SetOptionValuesEv
 2938              		.type	_ZN20ControlsSettingsMenu15SetOptionValuesEv, @function
 2939              	_ZN20ControlsSettingsMenu15SetOptionValuesEv:
 2940              	.LFB1590:
 2941              		.loc 5 286 0
 2942              		.cfi_startproc
 2943              	.LVL262:
 2944 0a38 9421FFE8 		stwu 1,-24(1)
 2945              	.LCFI27:
 2946              		.cfi_def_cfa_offset 24
 2947 0a3c 7C0802A6 		mflr 0
 2948 0a40 93C10010 		stw 30,16(1)
 2949              	.LBB1721:
 2950              		.loc 5 292 0
 2951 0a44 3FC00000 		lis 30,Settings@ha
 2952              		.cfi_offset 30, -8
 2953              		.cfi_register 65, 0
 2954 0a48 3BDE0000 		la 30,Settings@l(30)
 2955              	.LBE1721:
 2956              		.loc 5 286 0
 2957 0a4c 9001001C 		stw 0,28(1)
 2958              	.LBB2142:
 2959              	.LBB1722:
 2960              	.LBB1723:
 2961              		.loc 5 134 0
 2962 0a50 A01E0A38 		lhz 0,2616(30)
 2963              		.cfi_offset 65, 4
 2964              	.LBE1723:
 2965              	.LBE1722:
 2966              	.LBE2142:
 2967              		.loc 5 286 0
 2968 0a54 93A1000C 		stw 29,12(1)
 2969              	.LBB2143:
 2970              	.LBB1730:
 2971              	.LBB1726:
 2972              		.loc 5 134 0
 2973 0a58 2F800010 		cmpwi 7,0,16
 2974              	.LBE1726:
 2975              	.LBE1730:
 2976              	.LBE2143:
 2977              		.loc 5 286 0
 2978 0a5c 93E10014 		stw 31,20(1)
 2979              	.LBB2144:
 2980              		.loc 5 292 0
 2981 0a60 83A300CC 		lwz 29,204(3)
 2982              		.cfi_offset 31, -4
 2983              		.cfi_offset 29, -12
 2984              	.LVL263:
 2985              	.LBE2144:
 2986              		.loc 5 286 0
 2987 0a64 7C7F1B78 		mr 31,3
 2988              	.LBB2145:
 2989              	.LBB1731:
 2990              	.LBB1727:
 2991              		.loc 5 134 0
 2992 0a68 419E1718 		beq- 7,.L295
 2993 0a6c 2B800010 		cmplwi 7,0,16
 2994 0a70 409D07C8 		ble- 7,.L745
 2995 0a74 2F800200 		cmpwi 7,0,512
 2996 0a78 419E16E0 		beq- 7,.L298
 2997 0a7c 2B800200 		cmplwi 7,0,512
 2998 0a80 419D07EC 		bgt- 7,.L304
 2999 0a84 2F800080 		cmpwi 7,0,128
 3000 0a88 419E1720 		beq- 7,.L296
 3001 0a8c 2F800100 		cmpwi 7,0,256
 3002 0a90 419E1704 		beq- 7,.L746
 3003              	.L721:
 3004              		.loc 5 161 0
 3005 0a94 3CA00000 		lis 5,.LC12@ha
 3006 0a98 38A50070 		la 5,.LC12@l(5)
 3007              	.LVL264:
 3008              	.L289:
 3009              	.LBE1727:
 3010              	.LBE1731:
 3011              		.loc 5 292 0
 3012 0a9c 7FA3EB78 		mr 3,29
 3013 0aa0 38800000 		li 4,0
 3014 0aa4 4CC63182 		crxor 6,6,6
 3015 0aa8 48000001 		bl _ZN10OptionList8SetValueEiPKcz
 3016              	.LBB1732:
 3017              	.LBB1733:
 3018              		.loc 5 167 0
 3019 0aac A01E0A54 		lhz 0,2644(30)
 3020              	.LBE1733:
 3021              	.LBE1732:
 3022              		.loc 5 293 0
 3023 0ab0 83BF00CC 		lwz 29,204(31)
 3024              	.LVL265:
 3025              	.LBB1743:
 3026              	.LBB1736:
 3027              		.loc 5 167 0
 3028 0ab4 2F800040 		cmpwi 7,0,64
 3029 0ab8 419E21A4 		beq- 7,.L313
 3030 0abc 2B800040 		cmplwi 7,0,64
 3031 0ac0 419D0928 		bgt- 7,.L322
 3032 0ac4 2F800004 		cmpwi 7,0,4
 3033 0ac8 419E216C 		beq- 7,.L309
 3034 0acc 2B800004 		cmplwi 7,0,4
 3035 0ad0 419D0E64 		bgt- 7,.L323
 3036 0ad4 2F800001 		cmpwi 7,0,1
 3037 0ad8 419E2134 		beq- 7,.L307
 3038 0adc 2B800001 		cmplwi 7,0,1
 3039 0ae0 409C26D4 		bge- 7,.L747
 3040              	.LBB1734:
 3041              	.LBB1735:
 3042              		.loc 5 170 0
 3043 0ae4 3C600000 		lis 3,.LC25@ha
 3044 0ae8 38630150 		la 3,.LC25@l(3)
 3045 0aec 48000001 		bl gettext
 3046              	.LVL266:
 3047 0af0 7C651B78 		mr 5,3
 3048              	.L305:
 3049              	.LBE1735:
 3050              	.LBE1734:
 3051              	.LBE1736:
 3052              	.LBE1743:
 3053              		.loc 5 293 0
 3054 0af4 7FA3EB78 		mr 3,29
 3055 0af8 38800001 		li 4,1
 3056 0afc 4CC63182 		crxor 6,6,6
 3057 0b00 48000001 		bl _ZN10OptionList8SetValueEiPKcz
 3058              	.LBB1744:
 3059              	.LBB1745:
 3060              		.loc 5 208 0
 3061 0b04 A01E0A70 		lhz 0,2672(30)
 3062              	.LBE1745:
 3063              	.LBE1744:
 3064              		.loc 5 294 0
 3065 0b08 83BF00CC 		lwz 29,204(31)
 3066              	.LVL267:
 3067              	.LBB1753:
 3068              	.LBB1748:
 3069              		.loc 5 208 0
 3070 0b0c 2F800020 		cmpwi 7,0,32
 3071 0b10 419E1BE8 		beq- 7,.L333
 3072 0b14 2B800020 		cmplwi 7,0,32
 3073 0b18 419D0918 		bgt- 7,.L340
 3074 0b1c 2F800002 		cmpwi 7,0,2
 3075 0b20 419E1BC4 		beq- 7,.L329
 3076 0b24 2B800002 		cmplwi 7,0,2
 3077 0b28 419D0E38 		bgt- 7,.L341
 3078 0b2c 2F800000 		cmpwi 7,0,0
 3079 0b30 419E1BA0 		beq- 7,.L327
 3080 0b34 2F800001 		cmpwi 7,0,1
 3081 0b38 419E0798 		beq- 7,.L748
 3082              	.L723:
 3083              		.loc 5 237 0
 3084 0b3c 3CA00000 		lis 5,.LC12@ha
 3085 0b40 38A50070 		la 5,.LC12@l(5)
 3086              	.LVL268:
 3087              	.L326:
 3088              	.LBE1748:
 3089              	.LBE1753:
 3090              		.loc 5 294 0
 3091 0b44 7FA3EB78 		mr 3,29
 3092 0b48 38800002 		li 4,2
 3093 0b4c 4CC63182 		crxor 6,6,6
 3094 0b50 48000001 		bl _ZN10OptionList8SetValueEiPKcz
 3095              	.LBB1754:
 3096              	.LBB1755:
 3097              		.loc 5 134 0
 3098 0b54 A01E0A3A 		lhz 0,2618(30)
 3099              	.LBE1755:
 3100              	.LBE1754:
 3101              		.loc 5 296 0
 3102 0b58 83BF00CC 		lwz 29,204(31)
 3103              	.LVL269:
 3104              	.LBB1764:
 3105              	.LBB1758:
 3106              		.loc 5 134 0
 3107 0b5c 2F800010 		cmpwi 7,0,16
 3108 0b60 419E16FC 		beq- 7,.L349
 3109 0b64 2B800010 		cmplwi 7,0,16
 3110 0b68 419D08FC 		bgt- 7,.L356
 3111 0b6c 2F800002 		cmpwi 7,0,2
 3112 0b70 419E169C 		beq- 7,.L346
 3113 0b74 2B800002 		cmplwi 7,0,2
 3114 0b78 419D0E78 		bgt- 7,.L357
 3115 0b7c 2F800000 		cmpwi 7,0,0
 3116 0b80 419E16A0 		beq- 7,.L344
 3117 0b84 2F800001 		cmpwi 7,0,1
 3118 0b88 419E0734 		beq- 7,.L749
 3119              	.L724:
 3120              		.loc 5 161 0
 3121 0b8c 3CA00000 		lis 5,.LC12@ha
 3122 0b90 38A50070 		la 5,.LC12@l(5)
 3123              	.LVL270:
 3124              	.L343:
 3125              	.LBE1758:
 3126              	.LBE1764:
 3127              		.loc 5 296 0
 3128 0b94 7FA3EB78 		mr 3,29
 3129 0b98 38800003 		li 4,3
 3130 0b9c 4CC63182 		crxor 6,6,6
 3131 0ba0 48000001 		bl _ZN10OptionList8SetValueEiPKcz
 3132              	.LBB1765:
 3133              	.LBB1766:
 3134              		.loc 5 167 0
 3135 0ba4 A01E0A56 		lhz 0,2646(30)
 3136              	.LBE1766:
 3137              	.LBE1765:
 3138              		.loc 5 297 0
 3139 0ba8 83BF00CC 		lwz 29,204(31)
 3140              	.LVL271:
 3141              	.LBB1779:
 3142              	.LBB1769:
 3143              		.loc 5 167 0
 3144 0bac 2F800040 		cmpwi 7,0,64
 3145 0bb0 419E2250 		beq- 7,.L367
 3146 0bb4 2B800040 		cmplwi 7,0,64
 3147 0bb8 419D08E0 		bgt- 7,.L376
 3148 0bbc 2F800004 		cmpwi 7,0,4
 3149 0bc0 419E21F0 		beq- 7,.L363
 3150 0bc4 2B800004 		cmplwi 7,0,4
 3151 0bc8 419D0EB0 		bgt- 7,.L377
 3152 0bcc 2F800001 		cmpwi 7,0,1
 3153 0bd0 419E21A4 		beq- 7,.L361
 3154 0bd4 2B800001 		cmplwi 7,0,1
 3155 0bd8 409C2614 		bge- 7,.L750
 3156              	.LBB1767:
 3157              	.LBB1768:
 3158              		.loc 5 170 0
 3159 0bdc 3C600000 		lis 3,.LC25@ha
 3160 0be0 38630150 		la 3,.LC25@l(3)
 3161 0be4 48000001 		bl gettext
 3162              	.LVL272:
 3163 0be8 7C651B78 		mr 5,3
 3164              	.L359:
 3165              	.LBE1768:
 3166              	.LBE1767:
 3167              	.LBE1769:
 3168              	.LBE1779:
 3169              		.loc 5 297 0
 3170 0bec 7FA3EB78 		mr 3,29
 3171 0bf0 38800004 		li 4,4
 3172 0bf4 4CC63182 		crxor 6,6,6
 3173 0bf8 48000001 		bl _ZN10OptionList8SetValueEiPKcz
 3174              	.LBB1780:
 3175              	.LBB1781:
 3176              		.loc 5 208 0
 3177 0bfc A01E0A72 		lhz 0,2674(30)
 3178              	.LBE1781:
 3179              	.LBE1780:
 3180              		.loc 5 298 0
 3181 0c00 83BF00CC 		lwz 29,204(31)
 3182              	.LVL273:
 3183              	.LBB1789:
 3184              	.LBB1784:
 3185              		.loc 5 208 0
 3186 0c04 2F800020 		cmpwi 7,0,32
 3187 0c08 419E1B40 		beq- 7,.L387
 3188 0c0c 2B800020 		cmplwi 7,0,32
 3189 0c10 419D08D0 		bgt- 7,.L394
 3190 0c14 2F800002 		cmpwi 7,0,2
 3191 0c18 419E1B80 		beq- 7,.L383
 3192 0c1c 2B800002 		cmplwi 7,0,2
 3193 0c20 419D0ED4 		bgt- 7,.L395
 3194 0c24 2F800000 		cmpwi 7,0,0
 3195 0c28 419E1B84 		beq- 7,.L381
 3196 0c2c 2F800001 		cmpwi 7,0,1
 3197 0c30 419E072C 		beq- 7,.L751
 3198              	.L726:
 3199              		.loc 5 237 0
 3200 0c34 3CA00000 		lis 5,.LC12@ha
 3201 0c38 38A50070 		la 5,.LC12@l(5)
 3202              	.LVL274:
 3203              	.L380:
 3204              	.LBE1784:
 3205              	.LBE1789:
 3206              		.loc 5 298 0
 3207 0c3c 7FA3EB78 		mr 3,29
 3208 0c40 38800005 		li 4,5
 3209 0c44 4CC63182 		crxor 6,6,6
 3210 0c48 48000001 		bl _ZN10OptionList8SetValueEiPKcz
 3211              	.LBB1790:
 3212              	.LBB1791:
 3213              		.loc 5 134 0
 3214 0c4c A01E0A3C 		lhz 0,2620(30)
 3215              	.LBE1791:
 3216              	.LBE1790:
 3217              		.loc 5 300 0
 3218 0c50 83BF00CC 		lwz 29,204(31)
 3219              	.LVL275:
 3220              	.LBB1799:
 3221              	.LBB1794:
 3222              		.loc 5 134 0
 3223 0c54 2F800010 		cmpwi 7,0,16
 3224 0c58 419E16CC 		beq- 7,.L403
 3225 0c5c 2B800010 		cmplwi 7,0,16
 3226 0c60 419D08B4 		bgt- 7,.L410
 3227 0c64 2F800002 		cmpwi 7,0,2
 3228 0c68 419E1694 		beq- 7,.L400
 3229 0c6c 2B800002 		cmplwi 7,0,2
 3230 0c70 419D0E60 		bgt- 7,.L411
 3231 0c74 2F800000 		cmpwi 7,0,0
 3232 0c78 419E1648 		beq- 7,.L398
 3233 0c7c 2F800001 		cmpwi 7,0,1
 3234 0c80 419E0664 		beq- 7,.L752
 3235              	.L727:
 3236              		.loc 5 161 0
 3237 0c84 3CA00000 		lis 5,.LC12@ha
 3238 0c88 38A50070 		la 5,.LC12@l(5)
 3239              	.LVL276:
 3240              	.L397:
 3241              	.LBE1794:
 3242              	.LBE1799:
 3243              		.loc 5 300 0
 3244 0c8c 7FA3EB78 		mr 3,29
 3245 0c90 38800006 		li 4,6
 3246 0c94 4CC63182 		crxor 6,6,6
 3247 0c98 48000001 		bl _ZN10OptionList8SetValueEiPKcz
 3248              	.LBB1800:
 3249              	.LBB1801:
 3250              		.loc 5 167 0
 3251 0c9c A01E0A58 		lhz 0,2648(30)
 3252              	.LBE1801:
 3253              	.LBE1800:
 3254              		.loc 5 301 0
 3255 0ca0 83BF00CC 		lwz 29,204(31)
 3256              	.LVL277:
 3257              	.LBB1813:
 3258              	.LBB1804:
 3259              		.loc 5 167 0
 3260 0ca4 2F800040 		cmpwi 7,0,64
 3261 0ca8 419E2130 		beq- 7,.L421
 3262 0cac 2B800040 		cmplwi 7,0,64
 3263 0cb0 419D0898 		bgt- 7,.L430
 3264 0cb4 2F800004 		cmpwi 7,0,4
 3265 0cb8 419E2030 		beq- 7,.L417
 3266 0cbc 2B800004 		cmplwi 7,0,4
 3267 0cc0 419D0F6C 		bgt- 7,.L431
 3268 0cc4 2F800001 		cmpwi 7,0,1
 3269 0cc8 419E20C0 		beq- 7,.L415
 3270 0ccc 2B800001 		cmplwi 7,0,1
 3271 0cd0 409C2570 		bge- 7,.L753
 3272              	.LBB1802:
 3273              	.LBB1803:
 3274              		.loc 5 170 0
 3275 0cd4 3C600000 		lis 3,.LC25@ha
 3276 0cd8 38630150 		la 3,.LC25@l(3)
 3277 0cdc 48000001 		bl gettext
 3278              	.LVL278:
 3279 0ce0 7C651B78 		mr 5,3
 3280              	.L413:
 3281              	.LBE1803:
 3282              	.LBE1802:
 3283              	.LBE1804:
 3284              	.LBE1813:
 3285              		.loc 5 301 0
 3286 0ce4 7FA3EB78 		mr 3,29
 3287 0ce8 38800007 		li 4,7
 3288 0cec 4CC63182 		crxor 6,6,6
 3289 0cf0 48000001 		bl _ZN10OptionList8SetValueEiPKcz
 3290              	.LBB1814:
 3291              	.LBB1815:
 3292              		.loc 5 208 0
 3293 0cf4 A01E0A74 		lhz 0,2676(30)
 3294              	.LBE1815:
 3295              	.LBE1814:
 3296              		.loc 5 302 0
 3297 0cf8 83BF00CC 		lwz 29,204(31)
 3298              	.LVL279:
 3299              	.LBB1824:
 3300              	.LBB1818:
 3301              		.loc 5 208 0
 3302 0cfc 2F800020 		cmpwi 7,0,32
 3303 0d00 419E1AE8 		beq- 7,.L441
 3304 0d04 2B800020 		cmplwi 7,0,32
 3305 0d08 419D0888 		bgt- 7,.L448
 3306 0d0c 2F800002 		cmpwi 7,0,2
 3307 0d10 419E1B14 		beq- 7,.L437
 3308 0d14 2B800002 		cmplwi 7,0,2
 3309 0d18 419D0EC4 		bgt- 7,.L449
 3310 0d1c 2F800000 		cmpwi 7,0,0
 3311 0d20 419E1B18 		beq- 7,.L435
 3312 0d24 2F800001 		cmpwi 7,0,1
 3313 0d28 419E0648 		beq- 7,.L754
 3314              	.L729:
 3315              		.loc 5 237 0
 3316 0d2c 3CA00000 		lis 5,.LC12@ha
 3317 0d30 38A50070 		la 5,.LC12@l(5)
 3318              	.LVL280:
 3319              	.L434:
 3320              	.LBE1818:
 3321              	.LBE1824:
 3322              		.loc 5 302 0
 3323 0d34 7FA3EB78 		mr 3,29
 3324 0d38 38800008 		li 4,8
 3325 0d3c 4CC63182 		crxor 6,6,6
 3326 0d40 48000001 		bl _ZN10OptionList8SetValueEiPKcz
 3327              	.LBB1825:
 3328              	.LBB1826:
 3329              		.loc 5 134 0
 3330 0d44 A01E0A3E 		lhz 0,2622(30)
 3331              	.LBE1826:
 3332              	.LBE1825:
 3333              		.loc 5 304 0
 3334 0d48 83BF00CC 		lwz 29,204(31)
 3335              	.LVL281:
 3336              	.LBB1837:
 3337              	.LBB1829:
 3338              		.loc 5 134 0
 3339 0d4c 2F800010 		cmpwi 7,0,16
 3340 0d50 419E16C4 		beq- 7,.L457
 3341 0d54 2B800010 		cmplwi 7,0,16
 3342 0d58 419D086C 		bgt- 7,.L464
 3343 0d5c 2F800002 		cmpwi 7,0,2
 3344 0d60 419E1614 		beq- 7,.L454
 3345 0d64 2B800002 		cmplwi 7,0,2
 3346 0d68 419D0EA0 		bgt- 7,.L465
 3347 0d6c 2F800000 		cmpwi 7,0,0
 3348 0d70 419E16F4 		beq- 7,.L452
 3349 0d74 2F800001 		cmpwi 7,0,1
 3350 0d78 419E0580 		beq- 7,.L755
 3351              	.L730:
 3352              		.loc 5 161 0
 3353 0d7c 3CA00000 		lis 5,.LC12@ha
 3354 0d80 38A50070 		la 5,.LC12@l(5)
 3355              	.LVL282:
 3356              	.L451:
 3357              	.LBE1829:
 3358              	.LBE1837:
 3359              		.loc 5 304 0
 3360 0d84 7FA3EB78 		mr 3,29
 3361 0d88 38800009 		li 4,9
 3362 0d8c 4CC63182 		crxor 6,6,6
 3363 0d90 48000001 		bl _ZN10OptionList8SetValueEiPKcz
 3364              	.LBB1838:
 3365              	.LBB1839:
 3366              		.loc 5 167 0
 3367 0d94 A01E0A5A 		lhz 0,2650(30)
 3368              	.LBE1839:
 3369              	.LBE1838:
 3370              		.loc 5 305 0
 3371 0d98 83BF00CC 		lwz 29,204(31)
 3372              	.LVL283:
 3373              	.LBB1849:
 3374              	.LBB1842:
 3375              		.loc 5 167 0
 3376 0d9c 2F800040 		cmpwi 7,0,64
 3377 0da0 419E20C4 		beq- 7,.L475
 3378 0da4 2B800040 		cmplwi 7,0,64
 3379 0da8 419D0850 		bgt- 7,.L484
 3380 0dac 2F800004 		cmpwi 7,0,4
 3381 0db0 419E2064 		beq- 7,.L471
 3382 0db4 2B800004 		cmplwi 7,0,4
 3383 0db8 419D0F30 		bgt- 7,.L485
 3384 0dbc 2F800001 		cmpwi 7,0,1
 3385 0dc0 419E2068 		beq- 7,.L469
 3386 0dc4 2B800001 		cmplwi 7,0,1
 3387 0dc8 409C245C 		bge- 7,.L756
 3388              	.LBB1840:
 3389              	.LBB1841:
 3390              		.loc 5 170 0
 3391 0dcc 3C600000 		lis 3,.LC25@ha
 3392 0dd0 38630150 		la 3,.LC25@l(3)
 3393 0dd4 48000001 		bl gettext
 3394              	.LVL284:
 3395 0dd8 7C651B78 		mr 5,3
 3396              	.L467:
 3397              	.LBE1841:
 3398              	.LBE1840:
 3399              	.LBE1842:
 3400              	.LBE1849:
 3401              		.loc 5 305 0
 3402 0ddc 7FA3EB78 		mr 3,29
 3403 0de0 3880000A 		li 4,10
 3404 0de4 4CC63182 		crxor 6,6,6
 3405 0de8 48000001 		bl _ZN10OptionList8SetValueEiPKcz
 3406              	.LBB1850:
 3407              	.LBB1851:
 3408              		.loc 5 208 0
 3409 0dec A01E0A76 		lhz 0,2678(30)
 3410              	.LBE1851:
 3411              	.LBE1850:
 3412              		.loc 5 306 0
 3413 0df0 83BF00CC 		lwz 29,204(31)
 3414              	.LVL285:
 3415              	.LBB1859:
 3416              	.LBB1854:
 3417              		.loc 5 208 0
 3418 0df4 2F800020 		cmpwi 7,0,32
 3419 0df8 419E1ACC 		beq- 7,.L495
 3420 0dfc 2B800020 		cmplwi 7,0,32
 3421 0e00 419D0840 		bgt- 7,.L502
 3422 0e04 2F800002 		cmpwi 7,0,2
 3423 0e08 419E1B0C 		beq- 7,.L491
 3424 0e0c 2B800002 		cmplwi 7,0,2
 3425 0e10 419D0E48 		bgt- 7,.L503
 3426 0e14 2F800000 		cmpwi 7,0,0
 3427 0e18 419E1A5C 		beq- 7,.L489
 3428 0e1c 2F800001 		cmpwi 7,0,1
 3429 0e20 419E0564 		beq- 7,.L757
 3430              	.L732:
 3431              		.loc 5 237 0
 3432 0e24 3CA00000 		lis 5,.LC12@ha
 3433 0e28 38A50070 		la 5,.LC12@l(5)
 3434              	.LVL286:
 3435              	.L488:
 3436              	.LBE1854:
 3437              	.LBE1859:
 3438              		.loc 5 306 0
 3439 0e2c 7FA3EB78 		mr 3,29
 3440 0e30 3880000B 		li 4,11
 3441 0e34 4CC63182 		crxor 6,6,6
 3442 0e38 48000001 		bl _ZN10OptionList8SetValueEiPKcz
 3443              	.LBB1860:
 3444              	.LBB1861:
 3445              		.loc 5 134 0
 3446 0e3c A01E0A40 		lhz 0,2624(30)
 3447              	.LBE1861:
 3448              	.LBE1860:
 3449              		.loc 5 308 0
 3450 0e40 83BF00CC 		lwz 29,204(31)
 3451              	.LVL287:
 3452              	.LBB1870:
 3453              	.LBB1864:
 3454              		.loc 5 134 0
 3455 0e44 2F800010 		cmpwi 7,0,16
 3456 0e48 419E1590 		beq- 7,.L511
 3457 0e4c 2B800010 		cmplwi 7,0,16
 3458 0e50 419D0824 		bgt- 7,.L518
 3459 0e54 2F800002 		cmpwi 7,0,2
 3460 0e58 419E1594 		beq- 7,.L508
 3461 0e5c 2B800002 		cmplwi 7,0,2
 3462 0e60 419D0EB4 		bgt- 7,.L519
 3463 0e64 2F800000 		cmpwi 7,0,0
 3464 0e68 419E1598 		beq- 7,.L506
 3465 0e6c 2F800001 		cmpwi 7,0,1
 3466 0e70 419E049C 		beq- 7,.L758
 3467              	.L733:
 3468              		.loc 5 161 0
 3469 0e74 3CA00000 		lis 5,.LC12@ha
 3470 0e78 38A50070 		la 5,.LC12@l(5)
 3471              	.LVL288:
 3472              	.L505:
 3473              	.LBE1864:
 3474              	.LBE1870:
 3475              		.loc 5 308 0
 3476 0e7c 7FA3EB78 		mr 3,29
 3477 0e80 3880000C 		li 4,12
 3478 0e84 4CC63182 		crxor 6,6,6
 3479 0e88 48000001 		bl _ZN10OptionList8SetValueEiPKcz
 3480              	.LBB1871:
 3481              	.LBB1872:
 3482              		.loc 5 167 0
 3483 0e8c A01E0A5C 		lhz 0,2652(30)
 3484              	.LBE1872:
 3485              	.LBE1871:
 3486              		.loc 5 309 0
 3487 0e90 83BF00CC 		lwz 29,204(31)
 3488              	.LVL289:
 3489              	.LBB1885:
 3490              	.LBB1875:
 3491              		.loc 5 167 0
 3492 0e94 2F800040 		cmpwi 7,0,64
 3493 0e98 419E20E4 		beq- 7,.L529
 3494 0e9c 2B800040 		cmplwi 7,0,64
 3495 0ea0 419D0808 		bgt- 7,.L538
 3496 0ea4 2F800004 		cmpwi 7,0,4
 3497 0ea8 419E20E8 		beq- 7,.L525
 3498 0eac 2B800004 		cmplwi 7,0,4
 3499 0eb0 419D0EEC 		bgt- 7,.L539
 3500 0eb4 2F800001 		cmpwi 7,0,1
 3501 0eb8 419E2074 		beq- 7,.L523
 3502 0ebc 2B800001 		cmplwi 7,0,1
 3503 0ec0 409C2348 		bge- 7,.L759
 3504              	.LBB1873:
 3505              	.LBB1874:
 3506              		.loc 5 170 0
 3507 0ec4 3C600000 		lis 3,.LC25@ha
 3508 0ec8 38630150 		la 3,.LC25@l(3)
 3509 0ecc 48000001 		bl gettext
 3510              	.LVL290:
 3511 0ed0 7C651B78 		mr 5,3
 3512              	.L521:
 3513              	.LBE1874:
 3514              	.LBE1873:
 3515              	.LBE1875:
 3516              	.LBE1885:
 3517              		.loc 5 309 0
 3518 0ed4 7FA3EB78 		mr 3,29
 3519 0ed8 3880000D 		li 4,13
 3520 0edc 4CC63182 		crxor 6,6,6
 3521 0ee0 48000001 		bl _ZN10OptionList8SetValueEiPKcz
 3522              	.LBB1886:
 3523              	.LBB1887:
 3524              		.loc 5 208 0
 3525 0ee4 A01E0A78 		lhz 0,2680(30)
 3526              	.LBE1887:
 3527              	.LBE1886:
 3528              		.loc 5 310 0
 3529 0ee8 83BF00CC 		lwz 29,204(31)
 3530              	.LVL291:
 3531              	.LBB1899:
 3532              	.LBB1890:
 3533              		.loc 5 208 0
 3534 0eec 2F800020 		cmpwi 7,0,32
 3535 0ef0 419E1AC4 		beq- 7,.L549
 3536 0ef4 2B800020 		cmplwi 7,0,32
 3537 0ef8 419D07F8 		bgt- 7,.L556
 3538 0efc 2F800002 		cmpwi 7,0,2
 3539 0f00 419E1AA0 		beq- 7,.L545
 3540 0f04 2B800002 		cmplwi 7,0,2
 3541 0f08 419D0EC0 		bgt- 7,.L557
 3542 0f0c 2F800000 		cmpwi 7,0,0
 3543 0f10 419E1B6C 		beq- 7,.L543
 3544 0f14 2F800001 		cmpwi 7,0,1
 3545 0f18 419E0480 		beq- 7,.L760
 3546              	.L735:
 3547              		.loc 5 237 0
 3548 0f1c 3CA00000 		lis 5,.LC12@ha
 3549 0f20 38A50070 		la 5,.LC12@l(5)
 3550              	.LVL292:
 3551              	.L542:
 3552              	.LBE1890:
 3553              	.LBE1899:
 3554              		.loc 5 310 0
 3555 0f24 7FA3EB78 		mr 3,29
 3556 0f28 3880000E 		li 4,14
 3557 0f2c 4CC63182 		crxor 6,6,6
 3558 0f30 48000001 		bl _ZN10OptionList8SetValueEiPKcz
 3559              	.LBB1900:
 3560              	.LBB1901:
 3561              		.loc 5 134 0
 3562 0f34 A01E0A42 		lhz 0,2626(30)
 3563              	.LBE1901:
 3564              	.LBE1900:
 3565              		.loc 5 312 0
 3566 0f38 83BF00CC 		lwz 29,204(31)
 3567              	.LVL293:
 3568              	.LBB1910:
 3569              	.LBB1904:
 3570              		.loc 5 134 0
 3571 0f3c 2F800010 		cmpwi 7,0,16
 3572 0f40 419E1538 		beq- 7,.L565
 3573 0f44 2B800010 		cmplwi 7,0,16
 3574 0f48 419D07DC 		bgt- 7,.L572
 3575 0f4c 2F800002 		cmpwi 7,0,2
 3576 0f50 419E15B4 		beq- 7,.L562
 3577 0f54 2B800002 		cmplwi 7,0,2
 3578 0f58 419D0E9C 		bgt- 7,.L573
 3579 0f5c 2F800000 		cmpwi 7,0,0
 3580 0f60 419E1590 		beq- 7,.L560
 3581 0f64 2F800001 		cmpwi 7,0,1
 3582 0f68 419E03B8 		beq- 7,.L761
 3583              	.L736:
 3584              		.loc 5 161 0
 3585 0f6c 3CA00000 		lis 5,.LC12@ha
 3586 0f70 38A50070 		la 5,.LC12@l(5)
 3587              	.LVL294:
 3588              	.L559:
 3589              	.LBE1904:
 3590              	.LBE1910:
 3591              		.loc 5 312 0
 3592 0f74 7FA3EB78 		mr 3,29
 3593 0f78 3880000F 		li 4,15
 3594 0f7c 4CC63182 		crxor 6,6,6
 3595 0f80 48000001 		bl _ZN10OptionList8SetValueEiPKcz
 3596              	.LBB1911:
 3597              	.LBB1912:
 3598              		.loc 5 167 0
 3599 0f84 A01E0A5E 		lhz 0,2654(30)
 3600              	.LBE1912:
 3601              	.LBE1911:
 3602              		.loc 5 313 0
 3603 0f88 83BF00CC 		lwz 29,204(31)
 3604              	.LVL295:
 3605              	.LBB1926:
 3606              	.LBB1915:
 3607              		.loc 5 167 0
 3608 0f8c 2F800040 		cmpwi 7,0,64
 3609 0f90 419E1F60 		beq- 7,.L583
 3610 0f94 2B800040 		cmplwi 7,0,64
 3611 0f98 419D07C0 		bgt- 7,.L592
 3612 0f9c 2F800004 		cmpwi 7,0,4
 3613 0fa0 419E2068 		beq- 7,.L579
 3614 0fa4 2B800004 		cmplwi 7,0,4
 3615 0fa8 419D0EC8 		bgt- 7,.L593
 3616 0fac 2F800001 		cmpwi 7,0,1
 3617 0fb0 419E1F2C 		beq- 7,.L577
 3618 0fb4 2B800001 		cmplwi 7,0,1
 3619 0fb8 409C22F8 		bge- 7,.L762
 3620              	.LBB1913:
 3621              	.LBB1914:
 3622              		.loc 5 170 0
 3623 0fbc 3C600000 		lis 3,.LC25@ha
 3624 0fc0 38630150 		la 3,.LC25@l(3)
 3625 0fc4 48000001 		bl gettext
 3626              	.LVL296:
 3627 0fc8 7C651B78 		mr 5,3
 3628              	.L575:
 3629              	.LBE1914:
 3630              	.LBE1913:
 3631              	.LBE1915:
 3632              	.LBE1926:
 3633              		.loc 5 313 0
 3634 0fcc 7FA3EB78 		mr 3,29
 3635 0fd0 38800010 		li 4,16
 3636 0fd4 4CC63182 		crxor 6,6,6
 3637 0fd8 48000001 		bl _ZN10OptionList8SetValueEiPKcz
 3638              	.LBB1927:
 3639              	.LBB1928:
 3640              		.loc 5 208 0
 3641 0fdc A01E0A7A 		lhz 0,2682(30)
 3642              	.LBE1928:
 3643              	.LBE1927:
 3644              		.loc 5 314 0
 3645 0fe0 83BF00CC 		lwz 29,204(31)
 3646              	.LVL297:
 3647              	.LBB1938:
 3648              	.LBB1931:
 3649              		.loc 5 208 0
 3650 0fe4 2F800020 		cmpwi 7,0,32
 3651 0fe8 419E19A4 		beq- 7,.L603
 3652 0fec 2B800020 		cmplwi 7,0,32
 3653 0ff0 419D07B0 		bgt- 7,.L610
 3654 0ff4 2F800002 		cmpwi 7,0,2
 3655 0ff8 419E19F8 		beq- 7,.L599
 3656 0ffc 2B800002 		cmplwi 7,0,2
 3657 1000 419D0EC8 		bgt- 7,.L611
 3658 1004 2F800000 		cmpwi 7,0,0
 3659 1008 419E19C0 		beq- 7,.L597
 3660 100c 2F800001 		cmpwi 7,0,1
 3661 1010 419E039C 		beq- 7,.L763
 3662              	.L738:
 3663              		.loc 5 237 0
 3664 1014 3CA00000 		lis 5,.LC12@ha
 3665 1018 38A50070 		la 5,.LC12@l(5)
 3666              	.LVL298:
 3667              	.L596:
 3668              	.LBE1931:
 3669              	.LBE1938:
 3670              		.loc 5 314 0
 3671 101c 7FA3EB78 		mr 3,29
 3672 1020 38800011 		li 4,17
 3673 1024 4CC63182 		crxor 6,6,6
 3674 1028 48000001 		bl _ZN10OptionList8SetValueEiPKcz
 3675              	.LBB1939:
 3676              	.LBB1940:
 3677              		.loc 5 134 0
 3678 102c A01E0A48 		lhz 0,2632(30)
 3679              	.LBE1940:
 3680              	.LBE1939:
 3681              		.loc 5 316 0
 3682 1030 83BF00CC 		lwz 29,204(31)
 3683              	.LVL299:
 3684              	.LBB1949:
 3685              	.LBB1943:
 3686              		.loc 5 134 0
 3687 1034 2F800010 		cmpwi 7,0,16
 3688 1038 419E1558 		beq- 7,.L619
 3689 103c 2B800010 		cmplwi 7,0,16
 3690 1040 419D0794 		bgt- 7,.L626
 3691 1044 2F800002 		cmpwi 7,0,2
 3692 1048 419E155C 		beq- 7,.L616
 3693 104c 2B800002 		cmplwi 7,0,2
 3694 1050 419D0F6C 		bgt- 7,.L627
 3695 1054 2F800000 		cmpwi 7,0,0
 3696 1058 419E14FC 		beq- 7,.L614
 3697 105c 2F800001 		cmpwi 7,0,1
 3698 1060 419E02D4 		beq- 7,.L764
 3699              	.L739:
 3700              		.loc 5 161 0
 3701 1064 3CA00000 		lis 5,.LC12@ha
 3702 1068 38A50070 		la 5,.LC12@l(5)
 3703              	.LVL300:
 3704              	.L613:
 3705              	.LBE1943:
 3706              	.LBE1949:
 3707              		.loc 5 316 0
 3708 106c 7FA3EB78 		mr 3,29
 3709 1070 38800012 		li 4,18
 3710 1074 4CC63182 		crxor 6,6,6
 3711 1078 48000001 		bl _ZN10OptionList8SetValueEiPKcz
 3712              	.LBB1950:
 3713              	.LBB1951:
 3714              		.loc 5 167 0
 3715 107c A01E0A64 		lhz 0,2660(30)
 3716              	.LBE1951:
 3717              	.LBE1950:
 3718              		.loc 5 317 0
 3719 1080 83BF00CC 		lwz 29,204(31)
 3720              	.LVL301:
 3721              	.LBB1960:
 3722              	.LBB1954:
 3723              		.loc 5 167 0
 3724 1084 2F800040 		cmpwi 7,0,64
 3725 1088 419E2048 		beq- 7,.L637
 3726 108c 2B800040 		cmplwi 7,0,64
 3727 1090 419D0778 		bgt- 7,.L646
 3728 1094 2F800004 		cmpwi 7,0,4
 3729 1098 419E1FAC 		beq- 7,.L633
 3730 109c 2B800004 		cmplwi 7,0,4
 3731 10a0 419D0EB8 		bgt- 7,.L647
 3732 10a4 2F800001 		cmpwi 7,0,1
 3733 10a8 419E1FC4 		beq- 7,.L631
 3734 10ac 2B800001 		cmplwi 7,0,1
 3735 10b0 409C221C 		bge- 7,.L765
 3736              	.LBB1952:
 3737              	.LBB1953:
 3738              		.loc 5 170 0
 3739 10b4 3C600000 		lis 3,.LC25@ha
 3740 10b8 38630150 		la 3,.LC25@l(3)
 3741 10bc 48000001 		bl gettext
 3742              	.LVL302:
 3743 10c0 7C651B78 		mr 5,3
 3744              	.L629:
 3745              	.LBE1953:
 3746              	.LBE1952:
 3747              	.LBE1954:
 3748              	.LBE1960:
 3749              		.loc 5 317 0
 3750 10c4 7FA3EB78 		mr 3,29
 3751 10c8 38800013 		li 4,19
 3752 10cc 4CC63182 		crxor 6,6,6
 3753 10d0 48000001 		bl _ZN10OptionList8SetValueEiPKcz
 3754              	.LBB1961:
 3755              	.LBB1962:
 3756              		.loc 5 208 0
 3757 10d4 A01E0A80 		lhz 0,2688(30)
 3758              	.LBE1962:
 3759              	.LBE1961:
 3760              		.loc 5 318 0
 3761 10d8 83BF00CC 		lwz 29,204(31)
 3762              	.LVL303:
 3763              	.LBB1971:
 3764              	.LBB1965:
 3765              		.loc 5 208 0
 3766 10dc 2F800020 		cmpwi 7,0,32
 3767 10e0 419E19D8 		beq- 7,.L657
 3768 10e4 2B800020 		cmplwi 7,0,32
 3769 10e8 419D0768 		bgt- 7,.L664
 3770 10ec 2F800002 		cmpwi 7,0,2
 3771 10f0 419E19B4 		beq- 7,.L653
 3772 10f4 2B800002 		cmplwi 7,0,2
 3773 10f8 419D0EE8 		bgt- 7,.L665
 3774 10fc 2F800000 		cmpwi 7,0,0
 3775 1100 419E19CC 		beq- 7,.L651
 3776 1104 2F800001 		cmpwi 7,0,1
 3777 1108 419E02B8 		beq- 7,.L766
 3778              	.L741:
 3779              		.loc 5 237 0
 3780 110c 3CA00000 		lis 5,.LC12@ha
 3781 1110 38A50070 		la 5,.LC12@l(5)
 3782              	.LVL304:
 3783              	.L650:
 3784              	.LBE1965:
 3785              	.LBE1971:
 3786              		.loc 5 318 0
 3787 1114 7FA3EB78 		mr 3,29
 3788 1118 38800014 		li 4,20
 3789 111c 4CC63182 		crxor 6,6,6
 3790 1120 48000001 		bl _ZN10OptionList8SetValueEiPKcz
 3791              	.LBB1972:
 3792              	.LBB1973:
 3793              		.loc 5 134 0
 3794 1124 A01E0A4E 		lhz 0,2638(30)
 3795              	.LBE1973:
 3796              	.LBE1972:
 3797              		.loc 5 320 0
 3798 1128 83BF00CC 		lwz 29,204(31)
 3799              	.LVL305:
 3800              	.LBB1982:
 3801              	.LBB1976:
 3802              		.loc 5 134 0
 3803 112c 2F800010 		cmpwi 7,0,16
 3804 1130 419E1500 		beq- 7,.L673
 3805 1134 2B800010 		cmplwi 7,0,16
 3806 1138 419D074C 		bgt- 7,.L680
 3807 113c 2F800002 		cmpwi 7,0,2
 3808 1140 419E1478 		beq- 7,.L670
 3809 1144 2B800002 		cmplwi 7,0,2
 3810 1148 419D0EF0 		bgt- 7,.L681
 3811 114c 2F800000 		cmpwi 7,0,0
 3812 1150 419E14CC 		beq- 7,.L668
 3813 1154 2F800001 		cmpwi 7,0,1
 3814 1158 419E01F0 		beq- 7,.L767
 3815              	.L742:
 3816              		.loc 5 161 0
 3817 115c 3CA00000 		lis 5,.LC12@ha
 3818 1160 38A50070 		la 5,.LC12@l(5)
 3819              	.LVL306:
 3820              	.L667:
 3821              	.LBE1976:
 3822              	.LBE1982:
 3823              		.loc 5 320 0
 3824 1164 7FA3EB78 		mr 3,29
 3825 1168 38800015 		li 4,21
 3826 116c 4CC63182 		crxor 6,6,6
 3827 1170 48000001 		bl _ZN10OptionList8SetValueEiPKcz
 3828              	.LBB1983:
 3829              	.LBB1984:
 3830              		.loc 5 167 0
 3831 1174 A01E0A6A 		lhz 0,2666(30)
 3832              	.LBE1984:
 3833              	.LBE1983:
 3834              		.loc 5 321 0
 3835 1178 83BF00CC 		lwz 29,204(31)
 3836              	.LVL307:
 3837              	.LBB1994:
 3838              	.LBB1987:
 3839              		.loc 5 167 0
 3840 117c 2F800040 		cmpwi 7,0,64
 3841 1180 419E1FDC 		beq- 7,.L691
 3842 1184 2B800040 		cmplwi 7,0,64
 3843 1188 419D0730 		bgt- 7,.L700
 3844 118c 2F800004 		cmpwi 7,0,4
 3845 1190 419E1FB8 		beq- 7,.L687
 3846 1194 2B800004 		cmplwi 7,0,4
 3847 1198 419D0E74 		bgt- 7,.L701
 3848 119c 2F800001 		cmpwi 7,0,1
 3849 11a0 419E1F94 		beq- 7,.L685
 3850 11a4 2B800001 		cmplwi 7,0,1
 3851 11a8 409C2178 		bge- 7,.L768
 3852              	.LBB1985:
 3853              	.LBB1986:
 3854              		.loc 5 170 0
 3855 11ac 3C600000 		lis 3,.LC25@ha
 3856 11b0 38630150 		la 3,.LC25@l(3)
 3857 11b4 48000001 		bl gettext
 3858              	.LVL308:
 3859 11b8 7C651B78 		mr 5,3
 3860              	.L683:
 3861              	.LBE1986:
 3862              	.LBE1985:
 3863              	.LBE1987:
 3864              	.LBE1994:
 3865              		.loc 5 321 0
 3866 11bc 7FA3EB78 		mr 3,29
 3867 11c0 38800016 		li 4,22
 3868 11c4 4CC63182 		crxor 6,6,6
 3869 11c8 48000001 		bl _ZN10OptionList8SetValueEiPKcz
 3870              	.LBB1995:
 3871              	.LBB1996:
 3872              		.loc 5 208 0
 3873 11cc A01E0A86 		lhz 0,2694(30)
 3874              	.LBE1996:
 3875              	.LBE1995:
 3876              		.loc 5 322 0
 3877 11d0 83FF00CC 		lwz 31,204(31)
 3878              	.LVL309:
 3879              	.LBB2004:
 3880              	.LBB1999:
 3881              		.loc 5 208 0
 3882 11d4 2F800020 		cmpwi 7,0,32
 3883 11d8 419E1A0C 		beq- 7,.L711
 3884 11dc 2B800020 		cmplwi 7,0,32
 3885 11e0 419D0720 		bgt- 7,.L718
 3886 11e4 2F800002 		cmpwi 7,0,2
 3887 11e8 419E195C 		beq- 7,.L707
 3888 11ec 2B800002 		cmplwi 7,0,2
 3889 11f0 419D0EFC 		bgt- 7,.L719
 3890 11f4 2F800000 		cmpwi 7,0,0
 3891 11f8 419E19C4 		beq- 7,.L705
 3892 11fc 2F800001 		cmpwi 7,0,1
 3893 1200 419E01D4 		beq- 7,.L769
 3894              	.L744:
 3895              		.loc 5 237 0
 3896 1204 3CA00000 		lis 5,.LC12@ha
 3897 1208 38A50070 		la 5,.LC12@l(5)
 3898              	.LVL310:
 3899              	.L704:
 3900              	.LBE1999:
 3901              	.LBE2004:
 3902              		.loc 5 322 0
 3903 120c 7FE3FB78 		mr 3,31
 3904 1210 38800017 		li 4,23
 3905 1214 4CC63182 		crxor 6,6,6
 3906 1218 48000001 		bl _ZN10OptionList8SetValueEiPKcz
 3907              	.LBE2145:
 3908              		.loc 5 323 0
 3909 121c 8001001C 		lwz 0,28(1)
 3910 1220 83A1000C 		lwz 29,12(1)
 3911 1224 7C0803A6 		mtlr 0
 3912 1228 83C10010 		lwz 30,16(1)
 3913 122c 83E10014 		lwz 31,20(1)
 3914 1230 38210018 		addi 1,1,24
 3915              		.cfi_remember_state
 3916              	.LCFI28:
 3917              		.cfi_def_cfa_offset 0
 3918              		.cfi_restore 31
 3919              		.cfi_restore 30
 3920              		.cfi_restore 29
 3921 1234 4E800020 		blr
 3922              	.LVL311:
 3923              	.L745:
 3924              	.LCFI29:
 3925              		.cfi_restore_state
 3926              	.LBB2146:
 3927              	.LBB2005:
 3928              	.LBB1728:
 3929              		.loc 5 134 0
 3930 1238 2F800002 		cmpwi 7,0,2
 3931 123c 419E0F30 		beq- 7,.L292
 3932 1240 2B800002 		cmplwi 7,0,2
 3933 1244 409D0054 		ble- 7,.L770
 3934 1248 2F800004 		cmpwi 7,0,4
 3935 124c 419E0EF8 		beq- 7,.L293
 3936 1250 2F800008 		cmpwi 7,0,8
 3937 1254 409EF840 		bne+ 7,.L721
 3938              		.loc 5 145 0
 3939 1258 3C600000 		lis 3,.LC17@ha
 3940              	.LVL312:
 3941 125c 386300B8 		la 3,.LC17@l(3)
 3942 1260 48000001 		bl gettext
 3943              	.LVL313:
 3944 1264 7C651B78 		mr 5,3
 3945 1268 4BFFF834 		b .L289
 3946              	.LVL314:
 3947              	.L304:
 3948              		.loc 5 134 0
 3949 126c 2F800800 		cmpwi 7,0,2048
 3950 1270 419E0F60 		beq- 7,.L300
 3951 1274 2F801000 		cmpwi 7,0,4096
 3952 1278 419E0F44 		beq- 7,.L301
 3953 127c 2F800400 		cmpwi 7,0,1024
 3954 1280 409EF814 		bne+ 7,.L721
 3955              		.loc 5 155 0
 3956 1284 3C600000 		lis 3,.LC22@ha
 3957 1288 38630118 		la 3,.LC22@l(3)
 3958 128c 48000001 		bl gettext
 3959              	.LVL315:
 3960 1290 7C651B78 		mr 5,3
 3961 1294 4BFFF808 		b .L289
 3962              	.LVL316:
 3963              	.L770:
 3964              		.loc 5 134 0
 3965 1298 2F800000 		cmpwi 7,0,0
 3966 129c 419E0F48 		beq- 7,.L290
 3967 12a0 2F800001 		cmpwi 7,0,1
 3968 12a4 409EF7F0 		bne+ 7,.L721
 3969              		.loc 5 139 0
 3970 12a8 3C600000 		lis 3,.LC14@ha
 3971 12ac 38630088 		la 3,.LC14@l(3)
 3972 12b0 48000001 		bl gettext
 3973              	.LVL317:
 3974 12b4 7C651B78 		mr 5,3
 3975 12b8 4BFFF7E4 		b .L289
 3976              	.LVL318:
 3977              	.L749:
 3978              	.LBE1728:
 3979              	.LBE2005:
 3980              	.LBB2006:
 3981              	.LBB1759:
 3982 12bc 3C600000 		lis 3,.LC14@ha
 3983 12c0 38630088 		la 3,.LC14@l(3)
 3984 12c4 48000001 		bl gettext
 3985              	.LVL319:
 3986 12c8 7C651B78 		mr 5,3
 3987 12cc 4BFFF8C8 		b .L343
 3988              	.LVL320:
 3989              	.L748:
 3990              	.LBE1759:
 3991              	.LBE2006:
 3992              	.LBB2007:
 3993              	.LBB1749:
 3994              		.loc 5 213 0
 3995 12d0 3C600000 		lis 3,.LC42@ha
 3996 12d4 38630308 		la 3,.LC42@l(3)
 3997 12d8 48000001 		bl gettext
 3998              	.LVL321:
 3999 12dc 7C651B78 		mr 5,3
 4000 12e0 4BFFF864 		b .L326
 4001              	.LVL322:
 4002              	.L752:
 4003              	.LBE1749:
 4004              	.LBE2007:
 4005              	.LBB2008:
 4006              	.LBB1795:
 4007              		.loc 5 139 0
 4008 12e4 3C600000 		lis 3,.LC14@ha
 4009 12e8 38630088 		la 3,.LC14@l(3)
 4010 12ec 48000001 		bl gettext
 4011              	.LVL323:
 4012 12f0 7C651B78 		mr 5,3
 4013 12f4 4BFFF998 		b .L397
 4014              	.LVL324:
 4015              	.L755:
 4016              	.LBE1795:
 4017              	.LBE2008:
 4018              	.LBB2009:
 4019              	.LBB1830:
 4020 12f8 3C600000 		lis 3,.LC14@ha
 4021 12fc 38630088 		la 3,.LC14@l(3)
 4022 1300 48000001 		bl gettext
 4023              	.LVL325:
 4024 1304 7C651B78 		mr 5,3
 4025 1308 4BFFFA7C 		b .L451
 4026              	.LVL326:
 4027              	.L758:
 4028              	.LBE1830:
 4029              	.LBE2009:
 4030              	.LBB2010:
 4031              	.LBB1865:
 4032 130c 3C600000 		lis 3,.LC14@ha
 4033 1310 38630088 		la 3,.LC14@l(3)
 4034 1314 48000001 		bl gettext
 4035              	.LVL327:
 4036 1318 7C651B78 		mr 5,3
 4037 131c 4BFFFB60 		b .L505
 4038              	.LVL328:
 4039              	.L761:
 4040              	.LBE1865:
 4041              	.LBE2010:
 4042              	.LBB2011:
 4043              	.LBB1905:
 4044 1320 3C600000 		lis 3,.LC14@ha
 4045 1324 38630088 		la 3,.LC14@l(3)
 4046 1328 48000001 		bl gettext
 4047              	.LVL329:
 4048 132c 7C651B78 		mr 5,3
 4049 1330 4BFFFC44 		b .L559
 4050              	.LVL330:
 4051              	.L764:
 4052              	.LBE1905:
 4053              	.LBE2011:
 4054              	.LBB2012:
 4055              	.LBB1944:
 4056 1334 3C600000 		lis 3,.LC14@ha
 4057 1338 38630088 		la 3,.LC14@l(3)
 4058 133c 48000001 		bl gettext
 4059              	.LVL331:
 4060 1340 7C651B78 		mr 5,3
 4061 1344 4BFFFD28 		b .L613
 4062              	.LVL332:
 4063              	.L767:
 4064              	.LBE1944:
 4065              	.LBE2012:
 4066              	.LBB2013:
 4067              	.LBB1977:
 4068 1348 3C600000 		lis 3,.LC14@ha
 4069 134c 38630088 		la 3,.LC14@l(3)
 4070 1350 48000001 		bl gettext
 4071              	.LVL333:
 4072 1354 7C651B78 		mr 5,3
 4073 1358 4BFFFE0C 		b .L667
 4074              	.LVL334:
 4075              	.L751:
 4076              	.LBE1977:
 4077              	.LBE2013:
 4078              	.LBB2014:
 4079              	.LBB1785:
 4080              		.loc 5 213 0
 4081 135c 3C600000 		lis 3,.LC42@ha
 4082 1360 38630308 		la 3,.LC42@l(3)
 4083 1364 48000001 		bl gettext
 4084              	.LVL335:
 4085 1368 7C651B78 		mr 5,3
 4086 136c 4BFFF8D0 		b .L380
 4087              	.LVL336:
 4088              	.L754:
 4089              	.LBE1785:
 4090              	.LBE2014:
 4091              	.LBB2015:
 4092              	.LBB1819:
 4093 1370 3C600000 		lis 3,.LC42@ha
 4094 1374 38630308 		la 3,.LC42@l(3)
 4095 1378 48000001 		bl gettext
 4096              	.LVL337:
 4097 137c 7C651B78 		mr 5,3
 4098 1380 4BFFF9B4 		b .L434
 4099              	.LVL338:
 4100              	.L757:
 4101              	.LBE1819:
 4102              	.LBE2015:
 4103              	.LBB2016:
 4104              	.LBB1855:
 4105 1384 3C600000 		lis 3,.LC42@ha
 4106 1388 38630308 		la 3,.LC42@l(3)
 4107 138c 48000001 		bl gettext
 4108              	.LVL339:
 4109 1390 7C651B78 		mr 5,3
 4110 1394 4BFFFA98 		b .L488
 4111              	.LVL340:
 4112              	.L760:
 4113              	.LBE1855:
 4114              	.LBE2016:
 4115              	.LBB2017:
 4116              	.LBB1891:
 4117 1398 3C600000 		lis 3,.LC42@ha
 4118 139c 38630308 		la 3,.LC42@l(3)
 4119 13a0 48000001 		bl gettext
 4120              	.LVL341:
 4121 13a4 7C651B78 		mr 5,3
 4122 13a8 4BFFFB7C 		b .L542
 4123              	.LVL342:
 4124              	.L763:
 4125              	.LBE1891:
 4126              	.LBE2017:
 4127              	.LBB2018:
 4128              	.LBB1932:
 4129 13ac 3C600000 		lis 3,.LC42@ha
 4130 13b0 38630308 		la 3,.LC42@l(3)
 4131 13b4 48000001 		bl gettext
 4132              	.LVL343:
 4133 13b8 7C651B78 		mr 5,3
 4134 13bc 4BFFFC60 		b .L596
 4135              	.LVL344:
 4136              	.L766:
 4137              	.LBE1932:
 4138              	.LBE2018:
 4139              	.LBB2019:
 4140              	.LBB1966:
 4141 13c0 3C600000 		lis 3,.LC42@ha
 4142 13c4 38630308 		la 3,.LC42@l(3)
 4143 13c8 48000001 		bl gettext
 4144              	.LVL345:
 4145 13cc 7C651B78 		mr 5,3
 4146 13d0 4BFFFD44 		b .L650
 4147              	.LVL346:
 4148              	.L769:
 4149              	.LBE1966:
 4150              	.LBE2019:
 4151              	.LBB2020:
 4152              	.LBB2000:
 4153 13d4 3C600000 		lis 3,.LC42@ha
 4154 13d8 38630308 		la 3,.LC42@l(3)
 4155 13dc 48000001 		bl gettext
 4156              	.LVL347:
 4157 13e0 7C651B78 		mr 5,3
 4158 13e4 4BFFFE28 		b .L704
 4159              	.LVL348:
 4160              	.L322:
 4161              	.LBE2000:
 4162              	.LBE2020:
 4163              	.LBB2021:
 4164              	.LBB1737:
 4165              		.loc 5 167 0
 4166 13e8 2F800800 		cmpwi 7,0,2048
 4167 13ec 419E185C 		beq- 7,.L317
 4168 13f0 2B800800 		cmplwi 7,0,2048
 4169 13f4 419D05C4 		bgt- 7,.L324
 4170 13f8 2F800200 		cmpwi 7,0,512
 4171 13fc 419E17FC 		beq- 7,.L315
 4172 1400 2F800400 		cmpwi 7,0,1024
 4173 1404 419E1880 		beq- 7,.L316
 4174 1408 2F800080 		cmpwi 7,0,128
 4175 140c 419E0010 		beq- 7,.L771
 4176              	.L722:
 4177              		.loc 5 202 0
 4178 1410 3CA00000 		lis 5,.LC12@ha
 4179 1414 38A50070 		la 5,.LC12@l(5)
 4180 1418 4BFFF6DC 		b .L305
 4181              	.L771:
 4182              		.loc 5 186 0
 4183 141c 3C600000 		lis 3,.LC33@ha
 4184 1420 38630218 		la 3,.LC33@l(3)
 4185 1424 48000001 		bl gettext
 4186              	.LVL349:
 4187 1428 7C651B78 		mr 5,3
 4188 142c 4BFFF6C8 		b .L305
 4189              	.LVL350:
 4190              	.L340:
 4191              	.LBE1737:
 4192              	.LBE2021:
 4193              	.LBB2022:
 4194              	.LBB1750:
 4195              		.loc 5 208 0
 4196 1430 2F800200 		cmpwi 7,0,512
 4197 1434 419E1274 		beq- 7,.L336
 4198 1438 2B800200 		cmplwi 7,0,512
 4199 143c 419D0550 		bgt- 7,.L342
 4200 1440 2F800040 		cmpwi 7,0,64
 4201 1444 419E1278 		beq- 7,.L334
 4202 1448 2F800100 		cmpwi 7,0,256
 4203 144c 409EF6F0 		bne+ 7,.L723
 4204              		.loc 5 227 0
 4205 1450 3C600000 		lis 3,.LC49@ha
 4206 1454 38630394 		la 3,.LC49@l(3)
 4207 1458 48000001 		bl gettext
 4208              	.LVL351:
 4209 145c 7C651B78 		mr 5,3
 4210 1460 4BFFF6E4 		b .L326
 4211              	.LVL352:
 4212              	.L356:
 4213              	.LBE1750:
 4214              	.LBE2022:
 4215              	.LBB2023:
 4216              	.LBB1760:
 4217              		.loc 5 134 0
 4218 1464 2F800200 		cmpwi 7,0,512
 4219 1468 419E0DE0 		beq- 7,.L352
 4220 146c 2B800200 		cmplwi 7,0,512
 4221 1470 419D05DC 		bgt- 7,.L358
 4222 1474 2F800080 		cmpwi 7,0,128
 4223 1478 419E0D80 		beq- 7,.L350
 4224 147c 2F800100 		cmpwi 7,0,256
 4225 1480 409EF70C 		bne+ 7,.L724
 4226              		.loc 5 151 0
 4227 1484 3C600000 		lis 3,.LC20@ha
 4228 1488 386300F0 		la 3,.LC20@l(3)
 4229 148c 48000001 		bl gettext
 4230              	.LVL353:
 4231 1490 7C651B78 		mr 5,3
 4232 1494 4BFFF700 		b .L343
 4233              	.LVL354:
 4234              	.L376:
 4235              	.LBE1760:
 4236              	.LBE2023:
 4237              	.LBB2024:
 4238              	.LBB1770:
 4239              		.loc 5 167 0
 4240 1498 2F800800 		cmpwi 7,0,2048
 4241 149c 419E1810 		beq- 7,.L371
 4242 14a0 2B800800 		cmplwi 7,0,2048
 4243 14a4 419D0570 		bgt- 7,.L378
 4244 14a8 2F800200 		cmpwi 7,0,512
 4245 14ac 419E1828 		beq- 7,.L369
 4246 14b0 2F800400 		cmpwi 7,0,1024
 4247 14b4 419E180C 		beq- 7,.L370
 4248 14b8 2F800080 		cmpwi 7,0,128
 4249 14bc 419E0010 		beq- 7,.L772
 4250              	.L725:
 4251              		.loc 5 202 0
 4252 14c0 3CA00000 		lis 5,.LC12@ha
 4253 14c4 38A50070 		la 5,.LC12@l(5)
 4254 14c8 4BFFF724 		b .L359
 4255              	.L772:
 4256              		.loc 5 186 0
 4257 14cc 3C600000 		lis 3,.LC33@ha
 4258 14d0 38630218 		la 3,.LC33@l(3)
 4259 14d4 48000001 		bl gettext
 4260              	.LVL355:
 4261 14d8 7C651B78 		mr 5,3
 4262 14dc 4BFFF710 		b .L359
 4263              	.LVL356:
 4264              	.L394:
 4265              	.LBE1770:
 4266              	.LBE2024:
 4267              	.LBB2025:
 4268              	.LBB1786:
 4269              		.loc 5 208 0
 4270 14e0 2F800200 		cmpwi 7,0,512
 4271 14e4 419E1250 		beq- 7,.L390
 4272 14e8 2B800200 		cmplwi 7,0,512
 4273 14ec 419D0634 		bgt- 7,.L396
 4274 14f0 2F800040 		cmpwi 7,0,64
 4275 14f4 419E122C 		beq- 7,.L388
 4276 14f8 2F800100 		cmpwi 7,0,256
 4277 14fc 409EF738 		bne+ 7,.L726
 4278              		.loc 5 227 0
 4279 1500 3C600000 		lis 3,.LC49@ha
 4280 1504 38630394 		la 3,.LC49@l(3)
 4281 1508 48000001 		bl gettext
 4282              	.LVL357:
 4283 150c 7C651B78 		mr 5,3
 4284 1510 4BFFF72C 		b .L380
 4285              	.LVL358:
 4286              	.L410:
 4287              	.LBE1786:
 4288              	.LBE2025:
 4289              	.LBB2026:
 4290              	.LBB1796:
 4291              		.loc 5 134 0
 4292 1514 2F800200 		cmpwi 7,0,512
 4293 1518 419E0DF8 		beq- 7,.L406
 4294 151c 2B800200 		cmplwi 7,0,512
 4295 1520 419D0584 		bgt- 7,.L412
 4296 1524 2F800080 		cmpwi 7,0,128
 4297 1528 419E0DAC 		beq- 7,.L404
 4298 152c 2F800100 		cmpwi 7,0,256
 4299 1530 409EF754 		bne+ 7,.L727
 4300              		.loc 5 151 0
 4301 1534 3C600000 		lis 3,.LC20@ha
 4302 1538 386300F0 		la 3,.LC20@l(3)
 4303 153c 48000001 		bl gettext
 4304              	.LVL359:
 4305 1540 7C651B78 		mr 5,3
 4306 1544 4BFFF748 		b .L397
 4307              	.LVL360:
 4308              	.L430:
 4309              	.LBE1796:
 4310              	.LBE2026:
 4311              	.LBB2027:
 4312              	.LBB1805:
 4313              		.loc 5 167 0
 4314 1548 2F800800 		cmpwi 7,0,2048
 4315 154c 419E1878 		beq- 7,.L425
 4316 1550 2B800800 		cmplwi 7,0,2048
 4317 1554 419D0650 		bgt- 7,.L432
 4318 1558 2F800200 		cmpwi 7,0,512
 4319 155c 419E1890 		beq- 7,.L423
 4320 1560 2F800400 		cmpwi 7,0,1024
 4321 1564 419E1838 		beq- 7,.L424
 4322 1568 2F800080 		cmpwi 7,0,128
 4323 156c 419E0010 		beq- 7,.L773
 4324              	.L728:
 4325              		.loc 5 202 0
 4326 1570 3CA00000 		lis 5,.LC12@ha
 4327 1574 38A50070 		la 5,.LC12@l(5)
 4328 1578 4BFFF76C 		b .L413
 4329              	.L773:
 4330              		.loc 5 186 0
 4331 157c 3C600000 		lis 3,.LC33@ha
 4332 1580 38630218 		la 3,.LC33@l(3)
 4333 1584 48000001 		bl gettext
 4334              	.LVL361:
 4335 1588 7C651B78 		mr 5,3
 4336 158c 4BFFF758 		b .L413
 4337              	.LVL362:
 4338              	.L448:
 4339              	.LBE1805:
 4340              	.LBE2027:
 4341              	.LBB2028:
 4342              	.LBB1820:
 4343              		.loc 5 208 0
 4344 1590 2F800200 		cmpwi 7,0,512
 4345 1594 419E12B8 		beq- 7,.L444
 4346 1598 2B800200 		cmplwi 7,0,512
 4347 159c 419D05DC 		bgt- 7,.L450
 4348 15a0 2F800040 		cmpwi 7,0,64
 4349 15a4 419E12BC 		beq- 7,.L442
 4350 15a8 2F800100 		cmpwi 7,0,256
 4351 15ac 409EF780 		bne+ 7,.L729
 4352              		.loc 5 227 0
 4353 15b0 3C600000 		lis 3,.LC49@ha
 4354 15b4 38630394 		la 3,.LC49@l(3)
 4355 15b8 48000001 		bl gettext
 4356              	.LVL363:
 4357 15bc 7C651B78 		mr 5,3
 4358 15c0 4BFFF774 		b .L434
 4359              	.LVL364:
 4360              	.L464:
 4361              	.LBE1820:
 4362              	.LBE2028:
 4363              	.LBB2029:
 4364              	.LBB1831:
 4365              		.loc 5 134 0
 4366 15c4 2F800200 		cmpwi 7,0,512
 4367 15c8 419E0D84 		beq- 7,.L460
 4368 15cc 2B800200 		cmplwi 7,0,512
 4369 15d0 419D057C 		bgt- 7,.L466
 4370 15d4 2F800080 		cmpwi 7,0,128
 4371 15d8 419E0E50 		beq- 7,.L458
 4372 15dc 2F800100 		cmpwi 7,0,256
 4373 15e0 409EF79C 		bne+ 7,.L730
 4374              		.loc 5 151 0
 4375 15e4 3C600000 		lis 3,.LC20@ha
 4376 15e8 386300F0 		la 3,.LC20@l(3)
 4377 15ec 48000001 		bl gettext
 4378              	.LVL365:
 4379 15f0 7C651B78 		mr 5,3
 4380 15f4 4BFFF790 		b .L451
 4381              	.LVL366:
 4382              	.L484:
 4383              	.LBE1831:
 4384              	.LBE2029:
 4385              	.LBB2030:
 4386              	.LBB1843:
 4387              		.loc 5 167 0
 4388 15f8 2F800800 		cmpwi 7,0,2048
 4389 15fc 419E1890 		beq- 7,.L479
 4390 1600 2B800800 		cmplwi 7,0,2048
 4391 1604 419D06AC 		bgt- 7,.L486
 4392 1608 2F800200 		cmpwi 7,0,512
 4393 160c 419E18A8 		beq- 7,.L477
 4394 1610 2F800400 		cmpwi 7,0,1024
 4395 1614 419E188C 		beq- 7,.L478
 4396 1618 2F800080 		cmpwi 7,0,128
 4397 161c 419E0010 		beq- 7,.L774
 4398              	.L731:
 4399              		.loc 5 202 0
 4400 1620 3CA00000 		lis 5,.LC12@ha
 4401 1624 38A50070 		la 5,.LC12@l(5)
 4402 1628 4BFFF7B4 		b .L467
 4403              	.L774:
 4404              		.loc 5 186 0
 4405 162c 3C600000 		lis 3,.LC33@ha
 4406 1630 38630218 		la 3,.LC33@l(3)
 4407 1634 48000001 		bl gettext
 4408              	.LVL367:
 4409 1638 7C651B78 		mr 5,3
 4410 163c 4BFFF7A0 		b .L467
 4411              	.LVL368:
 4412              	.L502:
 4413              	.LBE1843:
 4414              	.LBE2030:
 4415              	.LBB2031:
 4416              	.LBB1856:
 4417              		.loc 5 208 0
 4418 1640 2F800200 		cmpwi 7,0,512
 4419 1644 419E126C 		beq- 7,.L498
 4420 1648 2B800200 		cmplwi 7,0,512
 4421 164c 419D0638 		bgt- 7,.L504
 4422 1650 2F800040 		cmpwi 7,0,64
 4423 1654 419E1248 		beq- 7,.L496
 4424 1658 2F800100 		cmpwi 7,0,256
 4425 165c 409EF7C8 		bne+ 7,.L732
 4426              		.loc 5 227 0
 4427 1660 3C600000 		lis 3,.LC49@ha
 4428 1664 38630394 		la 3,.LC49@l(3)
 4429 1668 48000001 		bl gettext
 4430              	.LVL369:
 4431 166c 7C651B78 		mr 5,3
 4432 1670 4BFFF7BC 		b .L488
 4433              	.LVL370:
 4434              	.L518:
 4435              	.LBE1856:
 4436              	.LBE2031:
 4437              	.LBB2032:
 4438              	.LBB1866:
 4439              		.loc 5 134 0
 4440 1674 2F800200 		cmpwi 7,0,512
 4441 1678 419E0D4C 		beq- 7,.L514
 4442 167c 2B800200 		cmplwi 7,0,512
 4443 1680 419D06B8 		bgt- 7,.L520
 4444 1684 2F800080 		cmpwi 7,0,128
 4445 1688 419E0D28 		beq- 7,.L512
 4446 168c 2F800100 		cmpwi 7,0,256
 4447 1690 409EF7E4 		bne+ 7,.L733
 4448              		.loc 5 151 0
 4449 1694 3C600000 		lis 3,.LC20@ha
 4450 1698 386300F0 		la 3,.LC20@l(3)
 4451 169c 48000001 		bl gettext
 4452              	.LVL371:
 4453 16a0 7C651B78 		mr 5,3
 4454 16a4 4BFFF7D8 		b .L505
 4455              	.LVL372:
 4456              	.L538:
 4457              	.LBE1866:
 4458              	.LBE2032:
 4459              	.LBB2033:
 4460              	.LBB1876:
 4461              		.loc 5 167 0
 4462 16a8 2F800800 		cmpwi 7,0,2048
 4463 16ac 419E18BC 		beq- 7,.L533
 4464 16b0 2B800800 		cmplwi 7,0,2048
 4465 16b4 419D06B0 		bgt- 7,.L540
 4466 16b8 2F800200 		cmpwi 7,0,512
 4467 16bc 419E1938 		beq- 7,.L531
 4468 16c0 2F800400 		cmpwi 7,0,1024
 4469 16c4 419E1854 		beq- 7,.L532
 4470 16c8 2F800080 		cmpwi 7,0,128
 4471 16cc 419E0010 		beq- 7,.L775
 4472              	.L734:
 4473              		.loc 5 202 0
 4474 16d0 3CA00000 		lis 5,.LC12@ha
 4475 16d4 38A50070 		la 5,.LC12@l(5)
 4476 16d8 4BFFF7FC 		b .L521
 4477              	.L775:
 4478              		.loc 5 186 0
 4479 16dc 3C600000 		lis 3,.LC33@ha
 4480 16e0 38630218 		la 3,.LC33@l(3)
 4481 16e4 48000001 		bl gettext
 4482              	.LVL373:
 4483 16e8 7C651B78 		mr 5,3
 4484 16ec 4BFFF7E8 		b .L521
 4485              	.LVL374:
 4486              	.L556:
 4487              	.LBE1876:
 4488              	.LBE2033:
 4489              	.LBB2034:
 4490              	.LBB1892:
 4491              		.loc 5 208 0
 4492 16f0 2F800200 		cmpwi 7,0,512
 4493 16f4 419E1324 		beq- 7,.L552
 4494 16f8 2B800200 		cmplwi 7,0,512
 4495 16fc 419D071C 		bgt- 7,.L558
 4496 1700 2F800040 		cmpwi 7,0,64
 4497 1704 419E1238 		beq- 7,.L550
 4498 1708 2F800100 		cmpwi 7,0,256
 4499 170c 409EF810 		bne+ 7,.L735
 4500              		.loc 5 227 0
 4501 1710 3C600000 		lis 3,.LC49@ha
 4502 1714 38630394 		la 3,.LC49@l(3)
 4503 1718 48000001 		bl gettext
 4504              	.LVL375:
 4505 171c 7C651B78 		mr 5,3
 4506 1720 4BFFF804 		b .L542
 4507              	.LVL376:
 4508              	.L572:
 4509              	.LBE1892:
 4510              	.LBE2034:
 4511              	.LBB2035:
 4512              	.LBB1906:
 4513              		.loc 5 134 0
 4514 1724 2F800200 		cmpwi 7,0,512
 4515 1728 419E0DA0 		beq- 7,.L568
 4516 172c 2B800200 		cmplwi 7,0,512
 4517 1730 419D0714 		bgt- 7,.L574
 4518 1734 2F800080 		cmpwi 7,0,128
 4519 1738 419E0D54 		beq- 7,.L566
 4520 173c 2F800100 		cmpwi 7,0,256
 4521 1740 409EF82C 		bne+ 7,.L736
 4522              		.loc 5 151 0
 4523 1744 3C600000 		lis 3,.LC20@ha
 4524 1748 386300F0 		la 3,.LC20@l(3)
 4525 174c 48000001 		bl gettext
 4526              	.LVL377:
 4527 1750 7C651B78 		mr 5,3
 4528 1754 4BFFF820 		b .L559
 4529              	.LVL378:
 4530              	.L592:
 4531              	.LBE1906:
 4532              	.LBE2035:
 4533              	.LBB2036:
 4534              	.LBB1916:
 4535              		.loc 5 167 0
 4536 1758 2F800800 		cmpwi 7,0,2048
 4537 175c 419E17E4 		beq- 7,.L587
 4538 1760 2B800800 		cmplwi 7,0,2048
 4539 1764 419D0790 		bgt- 7,.L594
 4540 1768 2F800200 		cmpwi 7,0,512
 4541 176c 419E1860 		beq- 7,.L585
 4542 1770 2F800400 		cmpwi 7,0,1024
 4543 1774 419E1844 		beq- 7,.L586
 4544 1778 2F800080 		cmpwi 7,0,128
 4545 177c 419E0010 		beq- 7,.L776
 4546              	.L737:
 4547              		.loc 5 202 0
 4548 1780 3CA00000 		lis 5,.LC12@ha
 4549 1784 38A50070 		la 5,.LC12@l(5)
 4550 1788 4BFFF844 		b .L575
 4551              	.L776:
 4552              		.loc 5 186 0
 4553 178c 3C600000 		lis 3,.LC33@ha
 4554 1790 38630218 		la 3,.LC33@l(3)
 4555 1794 48000001 		bl gettext
 4556              	.LVL379:
 4557 1798 7C651B78 		mr 5,3
 4558 179c 4BFFF830 		b .L575
 4559              	.LVL380:
 4560              	.L610:
 4561              	.LBE1916:
 4562              	.LBE2036:
 4563              	.LBB2037:
 4564              	.LBB1933:
 4565              		.loc 5 208 0
 4566 17a0 2F800200 		cmpwi 7,0,512
 4567 17a4 419E11D4 		beq- 7,.L606
 4568 17a8 2B800200 		cmplwi 7,0,512
 4569 17ac 419D06F0 		bgt- 7,.L612
 4570 17b0 2F800040 		cmpwi 7,0,64
 4571 17b4 419E11B0 		beq- 7,.L604
 4572 17b8 2F800100 		cmpwi 7,0,256
 4573 17bc 409EF858 		bne+ 7,.L738
 4574              		.loc 5 227 0
 4575 17c0 3C600000 		lis 3,.LC49@ha
 4576 17c4 38630394 		la 3,.LC49@l(3)
 4577 17c8 48000001 		bl gettext
 4578              	.LVL381:
 4579 17cc 7C651B78 		mr 5,3
 4580 17d0 4BFFF84C 		b .L596
 4581              	.LVL382:
 4582              	.L626:
 4583              	.LBE1933:
 4584              	.LBE2037:
 4585              	.LBB2038:
 4586              	.LBB1945:
 4587              		.loc 5 134 0
 4588 17d4 2F800200 		cmpwi 7,0,512
 4589 17d8 419E0DA4 		beq- 7,.L622
 4590 17dc 2B800200 		cmplwi 7,0,512
 4591 17e0 419D074C 		bgt- 7,.L628
 4592 17e4 2F800080 		cmpwi 7,0,128
 4593 17e8 419E0D80 		beq- 7,.L620
 4594 17ec 2F800100 		cmpwi 7,0,256
 4595 17f0 409EF874 		bne+ 7,.L739
 4596              		.loc 5 151 0
 4597 17f4 3C600000 		lis 3,.LC20@ha
 4598 17f8 386300F0 		la 3,.LC20@l(3)
 4599 17fc 48000001 		bl gettext
 4600              	.LVL383:
 4601 1800 7C651B78 		mr 5,3
 4602 1804 4BFFF868 		b .L613
 4603              	.LVL384:
 4604              	.L646:
 4605              	.LBE1945:
 4606              	.LBE2038:
 4607              	.LBB2039:
 4608              	.LBB1955:
 4609              		.loc 5 167 0
 4610 1808 2F800800 		cmpwi 7,0,2048
 4611 180c 419E18B0 		beq- 7,.L641
 4612 1810 2B800800 		cmplwi 7,0,2048
 4613 1814 419D0770 		bgt- 7,.L648
 4614 1818 2F800200 		cmpwi 7,0,512
 4615 181c 419E188C 		beq- 7,.L639
 4616 1820 2F800400 		cmpwi 7,0,1024
 4617 1824 419E1834 		beq- 7,.L640
 4618 1828 2F800080 		cmpwi 7,0,128
 4619 182c 419E0010 		beq- 7,.L777
 4620              	.L740:
 4621              		.loc 5 202 0
 4622 1830 3CA00000 		lis 5,.LC12@ha
 4623 1834 38A50070 		la 5,.LC12@l(5)
 4624 1838 4BFFF88C 		b .L629
 4625              	.L777:
 4626              		.loc 5 186 0
 4627 183c 3C600000 		lis 3,.LC33@ha
 4628 1840 38630218 		la 3,.LC33@l(3)
 4629 1844 48000001 		bl gettext
 4630              	.LVL385:
 4631 1848 7C651B78 		mr 5,3
 4632 184c 4BFFF878 		b .L629
 4633              	.LVL386:
 4634              	.L664:
 4635              	.LBE1955:
 4636              	.LBE2039:
 4637              	.LBB2040:
 4638              	.LBB1967:
 4639              		.loc 5 208 0
 4640 1850 2F800200 		cmpwi 7,0,512
 4641 1854 419E12B4 		beq- 7,.L660
 4642 1858 2B800200 		cmplwi 7,0,512
 4643 185c 419D0864 		bgt- 7,.L666
 4644 1860 2F800040 		cmpwi 7,0,64
 4645 1864 419E122C 		beq- 7,.L658
 4646 1868 2F800100 		cmpwi 7,0,256
 4647 186c 409EF8A0 		bne+ 7,.L741
 4648              		.loc 5 227 0
 4649 1870 3C600000 		lis 3,.LC49@ha
 4650 1874 38630394 		la 3,.LC49@l(3)
 4651 1878 48000001 		bl gettext
 4652              	.LVL387:
 4653 187c 7C651B78 		mr 5,3
 4654 1880 4BFFF894 		b .L650
 4655              	.LVL388:
 4656              	.L680:
 4657              	.LBE1967:
 4658              	.LBE2040:
 4659              	.LBB2041:
 4660              	.LBB1978:
 4661              		.loc 5 134 0
 4662 1884 2F800200 		cmpwi 7,0,512
 4663 1888 419E0D6C 		beq- 7,.L676
 4664 188c 2B800200 		cmplwi 7,0,512
 4665 1890 419D0804 		bgt- 7,.L682
 4666 1894 2F800080 		cmpwi 7,0,128
 4667 1898 419E0DAC 		beq- 7,.L674
 4668 189c 2F800100 		cmpwi 7,0,256
 4669 18a0 409EF8BC 		bne+ 7,.L742
 4670              		.loc 5 151 0
 4671 18a4 3C600000 		lis 3,.LC20@ha
 4672 18a8 386300F0 		la 3,.LC20@l(3)
 4673 18ac 48000001 		bl gettext
 4674              	.LVL389:
 4675 18b0 7C651B78 		mr 5,3
 4676 18b4 4BFFF8B0 		b .L667
 4677              	.LVL390:
 4678              	.L700:
 4679              	.LBE1978:
 4680              	.LBE2041:
 4681              	.LBB2042:
 4682              	.LBB1988:
 4683              		.loc 5 167 0
 4684 18b8 2F800800 		cmpwi 7,0,2048
 4685 18bc 419E183C 		beq- 7,.L695
 4686 18c0 2B800800 		cmplwi 7,0,2048
 4687 18c4 419D0798 		bgt- 7,.L702
 4688 18c8 2F800200 		cmpwi 7,0,512
 4689 18cc 419E18B8 		beq- 7,.L693
 4690 18d0 2F800400 		cmpwi 7,0,1024
 4691 18d4 419E189C 		beq- 7,.L694
 4692 18d8 2F800080 		cmpwi 7,0,128
 4693 18dc 419E0010 		beq- 7,.L778
 4694              	.L743:
 4695              		.loc 5 202 0
 4696 18e0 3CA00000 		lis 5,.LC12@ha
 4697 18e4 38A50070 		la 5,.LC12@l(5)
 4698 18e8 4BFFF8D4 		b .L683
 4699              	.L778:
 4700              		.loc 5 186 0
 4701 18ec 3C600000 		lis 3,.LC33@ha
 4702 18f0 38630218 		la 3,.LC33@l(3)
 4703 18f4 48000001 		bl gettext
 4704              	.LVL391:
 4705 18f8 7C651B78 		mr 5,3
 4706 18fc 4BFFF8C0 		b .L683
 4707              	.LVL392:
 4708              	.L718:
 4709              	.LBE1988:
 4710              	.LBE2042:
 4711              	.LBB2043:
 4712              	.LBB2001:
 4713              		.loc 5 208 0
 4714 1900 2F800200 		cmpwi 7,0,512
 4715 1904 419E12CC 		beq- 7,.L714
 4716 1908 2B800200 		cmplwi 7,0,512
 4717 190c 419D080C 		bgt- 7,.L720
 4718 1910 2F800040 		cmpwi 7,0,64
 4719 1914 419E126C 		beq- 7,.L712
 4720 1918 2F800100 		cmpwi 7,0,256
 4721 191c 409EF8E8 		bne+ 7,.L744
 4722              		.loc 5 227 0
 4723 1920 3C600000 		lis 3,.LC49@ha
 4724 1924 38630394 		la 3,.LC49@l(3)
 4725 1928 48000001 		bl gettext
 4726              	.LVL393:
 4727 192c 7C651B78 		mr 5,3
 4728 1930 4BFFF8DC 		b .L704
 4729              	.LVL394:
 4730              	.L323:
 4731              	.LBE2001:
 4732              	.LBE2043:
 4733              	.LBB2044:
 4734              	.LBB1738:
 4735              		.loc 5 167 0
 4736 1934 2F800010 		cmpwi 7,0,16
 4737 1938 419E12E8 		beq- 7,.L311
 4738 193c 2F800020 		cmpwi 7,0,32
 4739 1940 419E1330 		beq- 7,.L312
 4740 1944 2F800008 		cmpwi 7,0,8
 4741 1948 409EFAC8 		bne+ 7,.L722
 4742              		.loc 5 178 0
 4743 194c 3C600000 		lis 3,.LC29@ha
 4744 1950 386301B8 		la 3,.LC29@l(3)
 4745 1954 48000001 		bl gettext
 4746              	.LVL395:
 4747 1958 7C651B78 		mr 5,3
 4748 195c 4BFFF198 		b .L305
 4749              	.LVL396:
 4750              	.L341:
 4751              	.LBE1738:
 4752              	.LBE2044:
 4753              	.LBB2045:
 4754              	.LBB1751:
 4755              		.loc 5 208 0
 4756 1960 2F800008 		cmpwi 7,0,8
 4757 1964 419E0D08 		beq- 7,.L331
 4758 1968 2F800010 		cmpwi 7,0,16
 4759 196c 419E0CEC 		beq- 7,.L332
 4760 1970 2F800004 		cmpwi 7,0,4
 4761 1974 409EF1C8 		bne+ 7,.L723
 4762              		.loc 5 217 0
 4763 1978 3C600000 		lis 3,.LC44@ha
 4764 197c 38630330 		la 3,.LC44@l(3)
 4765 1980 48000001 		bl gettext
 4766              	.LVL397:
 4767 1984 7C651B78 		mr 5,3
 4768 1988 4BFFF1BC 		b .L326
 4769              	.LVL398:
 4770              	.L342:
 4771              		.loc 5 208 0
 4772 198c 2F800800 		cmpwi 7,0,2048
 4773 1990 419E0D04 		beq- 7,.L338
 4774 1994 2F801000 		cmpwi 7,0,4096
 4775 1998 419E0CE8 		beq- 7,.L339
 4776 199c 2F800400 		cmpwi 7,0,1024
 4777 19a0 409EF19C 		bne+ 7,.L723
 4778              		.loc 5 231 0
 4779 19a4 3C600000 		lis 3,.LC51@ha
 4780 19a8 386303B4 		la 3,.LC51@l(3)
 4781 19ac 48000001 		bl gettext
 4782              	.LVL399:
 4783 19b0 7C651B78 		mr 5,3
 4784 19b4 4BFFF190 		b .L326
 4785              	.LVL400:
 4786              	.L324:
 4787              	.LBE1751:
 4788              	.LBE2045:
 4789              	.LBB2046:
 4790              	.LBB1739:
 4791              		.loc 5 167 0
 4792 19b8 2F802000 		cmpwi 7,0,8192
 4793 19bc 419E12DC 		beq- 7,.L319
 4794 19c0 2B802000 		cmplwi 7,0,8192
 4795 19c4 409D17D4 		ble- 7,.L779
 4796 19c8 2F804000 		cmpwi 7,0,16384
 4797 19cc 419E198C 		beq- 7,.L320
 4798 19d0 6C09FFFF 		xoris 9,0,0xffff
 4799 19d4 2F898000 		cmpwi 7,9,-32768
 4800 19d8 409EFA38 		bne 7,.L722
 4801              		.loc 5 200 0
 4802 19dc 3C600000 		lis 3,.LC40@ha
 4803 19e0 386302D8 		la 3,.LC40@l(3)
 4804 19e4 48000001 		bl gettext
 4805              	.LVL401:
 4806 19e8 7C651B78 		mr 5,3
 4807 19ec 4BFFF108 		b .L305
 4808              	.LVL402:
 4809              	.L357:
 4810              	.LBE1739:
 4811              	.LBE2046:
 4812              	.LBB2047:
 4813              	.LBB1761:
 4814              		.loc 5 134 0
 4815 19f0 2F800004 		cmpwi 7,0,4
 4816 19f4 419E0840 		beq- 7,.L347
 4817 19f8 2F800008 		cmpwi 7,0,8
 4818 19fc 409EF190 		bne+ 7,.L724
 4819              		.loc 5 145 0
 4820 1a00 3C600000 		lis 3,.LC17@ha
 4821 1a04 386300B8 		la 3,.LC17@l(3)
 4822 1a08 48000001 		bl gettext
 4823              	.LVL403:
 4824 1a0c 7C651B78 		mr 5,3
 4825 1a10 4BFFF184 		b .L343
 4826              	.LVL404:
 4827              	.L378:
 4828              	.LBE1761:
 4829              	.LBE2047:
 4830              	.LBB2048:
 4831              	.LBB1771:
 4832              		.loc 5 167 0
 4833 1a14 2F802000 		cmpwi 7,0,8192
 4834 1a18 419E1320 		beq- 7,.L373
 4835 1a1c 2B802000 		cmplwi 7,0,8192
 4836 1a20 409D17B0 		ble- 7,.L780
 4837 1a24 2F804000 		cmpwi 7,0,16384
 4838 1a28 419E1944 		beq- 7,.L374
 4839 1a2c 6C09FFFF 		xoris 9,0,0xffff
 4840 1a30 2F898000 		cmpwi 7,9,-32768
 4841 1a34 409EFA8C 		bne 7,.L725
 4842              		.loc 5 200 0
 4843 1a38 3C600000 		lis 3,.LC40@ha
 4844 1a3c 386302D8 		la 3,.LC40@l(3)
 4845 1a40 48000001 		bl gettext
 4846              	.LVL405:
 4847 1a44 7C651B78 		mr 5,3
 4848 1a48 4BFFF1A4 		b .L359
 4849              	.LVL406:
 4850              	.L358:
 4851              	.LBE1771:
 4852              	.LBE2048:
 4853              	.LBB2049:
 4854              	.LBB1762:
 4855              		.loc 5 134 0
 4856 1a4c 2F800800 		cmpwi 7,0,2048
 4857 1a50 419E0834 		beq- 7,.L354
 4858 1a54 2F801000 		cmpwi 7,0,4096
 4859 1a58 419E0818 		beq- 7,.L355
 4860 1a5c 2F800400 		cmpwi 7,0,1024
 4861 1a60 409EF12C 		bne+ 7,.L724
 4862              		.loc 5 155 0
 4863 1a64 3C600000 		lis 3,.LC22@ha
 4864 1a68 38630118 		la 3,.LC22@l(3)
 4865 1a6c 48000001 		bl gettext
 4866              	.LVL407:
 4867 1a70 7C651B78 		mr 5,3
 4868 1a74 4BFFF120 		b .L343
 4869              	.LVL408:
 4870              	.L377:
 4871              	.LBE1762:
 4872              	.LBE2049:
 4873              	.LBB2050:
 4874              	.LBB1772:
 4875              		.loc 5 167 0
 4876 1a78 2F800010 		cmpwi 7,0,16
 4877 1a7c 419E12E4 		beq- 7,.L365
 4878 1a80 2F800020 		cmpwi 7,0,32
 4879 1a84 419E12C8 		beq- 7,.L366
 4880 1a88 2F800008 		cmpwi 7,0,8
 4881 1a8c 409EFA34 		bne+ 7,.L725
 4882              		.loc 5 178 0
 4883 1a90 3C600000 		lis 3,.LC29@ha
 4884 1a94 386301B8 		la 3,.LC29@l(3)
 4885 1a98 48000001 		bl gettext
 4886              	.LVL409:
 4887 1a9c 7C651B78 		mr 5,3
 4888 1aa0 4BFFF14C 		b .L359
 4889              	.LVL410:
 4890              	.L412:
 4891              	.LBE1772:
 4892              	.LBE2050:
 4893              	.LBB2051:
 4894              	.LBB1797:
 4895              		.loc 5 134 0
 4896 1aa4 2F800800 		cmpwi 7,0,2048
 4897 1aa8 419E0804 		beq- 7,.L408
 4898 1aac 2F801000 		cmpwi 7,0,4096
 4899 1ab0 419E07E8 		beq- 7,.L409
 4900 1ab4 2F800400 		cmpwi 7,0,1024
 4901 1ab8 409EF1CC 		bne+ 7,.L727
 4902              		.loc 5 155 0
 4903 1abc 3C600000 		lis 3,.LC22@ha
 4904 1ac0 38630118 		la 3,.LC22@l(3)
 4905 1ac4 48000001 		bl gettext
 4906              	.LVL411:
 4907 1ac8 7C651B78 		mr 5,3
 4908 1acc 4BFFF1C0 		b .L397
 4909              	.LVL412:
 4910              	.L411:
 4911              		.loc 5 134 0
 4912 1ad0 2F800004 		cmpwi 7,0,4
 4913 1ad4 419E0814 		beq- 7,.L401
 4914 1ad8 2F800008 		cmpwi 7,0,8
 4915 1adc 409EF1A8 		bne+ 7,.L727
 4916              		.loc 5 145 0
 4917 1ae0 3C600000 		lis 3,.LC17@ha
 4918 1ae4 386300B8 		la 3,.LC17@l(3)
 4919 1ae8 48000001 		bl gettext
 4920              	.LVL413:
 4921 1aec 7C651B78 		mr 5,3
 4922 1af0 4BFFF19C 		b .L397
 4923              	.LVL414:
 4924              	.L395:
 4925              	.LBE1797:
 4926              	.LBE2051:
 4927              	.LBB2052:
 4928              	.LBB1787:
 4929              		.loc 5 208 0
 4930 1af4 2F800008 		cmpwi 7,0,8
 4931 1af8 419E0C8C 		beq- 7,.L385
 4932 1afc 2F800010 		cmpwi 7,0,16
 4933 1b00 419E0C0C 		beq- 7,.L386
 4934 1b04 2F800004 		cmpwi 7,0,4
 4935 1b08 409EF12C 		bne+ 7,.L726
 4936              		.loc 5 217 0
 4937 1b0c 3C600000 		lis 3,.LC44@ha
 4938 1b10 38630330 		la 3,.LC44@l(3)
 4939 1b14 48000001 		bl gettext
 4940              	.LVL415:
 4941 1b18 7C651B78 		mr 5,3
 4942 1b1c 4BFFF120 		b .L380
 4943              	.LVL416:
 4944              	.L396:
 4945              		.loc 5 208 0
 4946 1b20 2F800800 		cmpwi 7,0,2048
 4947 1b24 419E0C4C 		beq- 7,.L392
 4948 1b28 2F801000 		cmpwi 7,0,4096
 4949 1b2c 419E0C30 		beq- 7,.L393
 4950 1b30 2F800400 		cmpwi 7,0,1024
 4951 1b34 409EF100 		bne+ 7,.L726
 4952              		.loc 5 231 0
 4953 1b38 3C600000 		lis 3,.LC51@ha
 4954 1b3c 386303B4 		la 3,.LC51@l(3)
 4955 1b40 48000001 		bl gettext
 4956              	.LVL417:
 4957 1b44 7C651B78 		mr 5,3
 4958 1b48 4BFFF0F4 		b .L380
 4959              	.LVL418:
 4960              	.L466:
 4961              	.LBE1787:
 4962              	.LBE2052:
 4963              	.LBB2053:
 4964              	.LBB1832:
 4965              		.loc 5 134 0
 4966 1b4c 2F800800 		cmpwi 7,0,2048
 4967 1b50 419E07E8 		beq- 7,.L462
 4968 1b54 2F801000 		cmpwi 7,0,4096
 4969 1b58 419E0808 		beq- 7,.L463
 4970 1b5c 2F800400 		cmpwi 7,0,1024
 4971 1b60 409EF21C 		bne+ 7,.L730
 4972              		.loc 5 155 0
 4973 1b64 3C600000 		lis 3,.LC22@ha
 4974 1b68 38630118 		la 3,.LC22@l(3)
 4975 1b6c 48000001 		bl gettext
 4976              	.LVL419:
 4977 1b70 7C651B78 		mr 5,3
 4978 1b74 4BFFF210 		b .L451
 4979              	.LVL420:
 4980              	.L450:
 4981              	.LBE1832:
 4982              	.LBE2053:
 4983              	.LBB2054:
 4984              	.LBB1821:
 4985              		.loc 5 208 0
 4986 1b78 2F800800 		cmpwi 7,0,2048
 4987 1b7c 419E0C94 		beq- 7,.L446
 4988 1b80 2F801000 		cmpwi 7,0,4096
 4989 1b84 419E0C78 		beq- 7,.L447
 4990 1b88 2F800400 		cmpwi 7,0,1024
 4991 1b8c 409EF1A0 		bne+ 7,.L729
 4992              		.loc 5 231 0
 4993 1b90 3C600000 		lis 3,.LC51@ha
 4994 1b94 386303B4 		la 3,.LC51@l(3)
 4995 1b98 48000001 		bl gettext
 4996              	.LVL421:
 4997 1b9c 7C651B78 		mr 5,3
 4998 1ba0 4BFFF194 		b .L434
 4999              	.LVL422:
 5000              	.L432:
 5001              	.LBE1821:
 5002              	.LBE2054:
 5003              	.LBB2055:
 5004              	.LBB1806:
 5005              		.loc 5 167 0
 5006 1ba4 2F802000 		cmpwi 7,0,8192
 5007 1ba8 419E1154 		beq- 7,.L427
 5008 1bac 2B802000 		cmplwi 7,0,8192
 5009 1bb0 409D16AC 		ble- 7,.L781
 5010 1bb4 2F804000 		cmpwi 7,0,16384
 5011 1bb8 419E17C8 		beq- 7,.L428
 5012 1bbc 6C09FFFF 		xoris 9,0,0xffff
 5013 1bc0 2F898000 		cmpwi 7,9,-32768
 5014 1bc4 409EF9AC 		bne 7,.L728
 5015              		.loc 5 200 0
 5016 1bc8 3C600000 		lis 3,.LC40@ha
 5017 1bcc 386302D8 		la 3,.LC40@l(3)
 5018 1bd0 48000001 		bl gettext
 5019              	.LVL423:
 5020 1bd4 7C651B78 		mr 5,3
 5021 1bd8 4BFFF10C 		b .L413
 5022              	.LVL424:
 5023              	.L449:
 5024              	.LBE1806:
 5025              	.LBE2055:
 5026              	.LBB2056:
 5027              	.LBB1822:
 5028              		.loc 5 208 0
 5029 1bdc 2F800008 		cmpwi 7,0,8
 5030 1be0 419E0BE0 		beq- 7,.L439
 5031 1be4 2F800010 		cmpwi 7,0,16
 5032 1be8 419E0BEC 		beq- 7,.L440
 5033 1bec 2F800004 		cmpwi 7,0,4
 5034 1bf0 409EF13C 		bne+ 7,.L729
 5035              		.loc 5 217 0
 5036 1bf4 3C600000 		lis 3,.LC44@ha
 5037 1bf8 38630330 		la 3,.LC44@l(3)
 5038 1bfc 48000001 		bl gettext
 5039              	.LVL425:
 5040 1c00 7C651B78 		mr 5,3
 5041 1c04 4BFFF130 		b .L434
 5042              	.LVL426:
 5043              	.L465:
 5044              	.LBE1822:
 5045              	.LBE2056:
 5046              	.LBB2057:
 5047              	.LBB1833:
 5048              		.loc 5 134 0
 5049 1c08 2F800004 		cmpwi 7,0,4
 5050 1c0c 419E077C 		beq- 7,.L455
 5051 1c10 2F800008 		cmpwi 7,0,8
 5052 1c14 409EF168 		bne+ 7,.L730
 5053              		.loc 5 145 0
 5054 1c18 3C600000 		lis 3,.LC17@ha
 5055 1c1c 386300B8 		la 3,.LC17@l(3)
 5056 1c20 48000001 		bl gettext
 5057              	.LVL427:
 5058 1c24 7C651B78 		mr 5,3
 5059 1c28 4BFFF15C 		b .L451
 5060              	.LVL428:
 5061              	.L431:
 5062              	.LBE1833:
 5063              	.LBE2057:
 5064              	.LBB2058:
 5065              	.LBB1807:
 5066              		.loc 5 167 0
 5067 1c2c 2F800010 		cmpwi 7,0,16
 5068 1c30 419E10F4 		beq- 7,.L419
 5069 1c34 2F800020 		cmpwi 7,0,32
 5070 1c38 419E10D8 		beq- 7,.L420
 5071 1c3c 2F800008 		cmpwi 7,0,8
 5072 1c40 409EF930 		bne+ 7,.L728
 5073              		.loc 5 178 0
 5074 1c44 3C600000 		lis 3,.LC29@ha
 5075 1c48 386301B8 		la 3,.LC29@l(3)
 5076 1c4c 48000001 		bl gettext
 5077              	.LVL429:
 5078 1c50 7C651B78 		mr 5,3
 5079 1c54 4BFFF090 		b .L413
 5080              	.LVL430:
 5081              	.L503:
 5082              	.LBE1807:
 5083              	.LBE2058:
 5084              	.LBB2059:
 5085              	.LBB1857:
 5086              		.loc 5 208 0
 5087 1c58 2F800008 		cmpwi 7,0,8
 5088 1c5c 419E0CA4 		beq- 7,.L493
 5089 1c60 2F800010 		cmpwi 7,0,16
 5090 1c64 419E0C24 		beq- 7,.L494
 5091 1c68 2F800004 		cmpwi 7,0,4
 5092 1c6c 409EF1B8 		bne+ 7,.L732
 5093              		.loc 5 217 0
 5094 1c70 3C600000 		lis 3,.LC44@ha
 5095 1c74 38630330 		la 3,.LC44@l(3)
 5096 1c78 48000001 		bl gettext
 5097              	.LVL431:
 5098 1c7c 7C651B78 		mr 5,3
 5099 1c80 4BFFF1AC 		b .L488
 5100              	.LVL432:
 5101              	.L504:
 5102              		.loc 5 208 0
 5103 1c84 2F800800 		cmpwi 7,0,2048
 5104 1c88 419E0C64 		beq- 7,.L500
 5105 1c8c 2F801000 		cmpwi 7,0,4096
 5106 1c90 419E0C48 		beq- 7,.L501
 5107 1c94 2F800400 		cmpwi 7,0,1024
 5108 1c98 409EF18C 		bne+ 7,.L732
 5109              		.loc 5 231 0
 5110 1c9c 3C600000 		lis 3,.LC51@ha
 5111 1ca0 386303B4 		la 3,.LC51@l(3)
 5112 1ca4 48000001 		bl gettext
 5113              	.LVL433:
 5114 1ca8 7C651B78 		mr 5,3
 5115 1cac 4BFFF180 		b .L488
 5116              	.LVL434:
 5117              	.L486:
 5118              	.LBE1857:
 5119              	.LBE2059:
 5120              	.LBB2060:
 5121              	.LBB1844:
 5122              		.loc 5 167 0
 5123 1cb0 2F802000 		cmpwi 7,0,8192
 5124 1cb4 419E1188 		beq- 7,.L481
 5125 1cb8 2B802000 		cmplwi 7,0,8192
 5126 1cbc 409D15D8 		ble- 7,.L782
 5127 1cc0 2F804000 		cmpwi 7,0,16384
 5128 1cc4 419E16D0 		beq- 7,.L482
 5129 1cc8 6C09FFFF 		xoris 9,0,0xffff
 5130 1ccc 2F898000 		cmpwi 7,9,-32768
 5131 1cd0 409EF950 		bne 7,.L731
 5132              		.loc 5 200 0
 5133 1cd4 3C600000 		lis 3,.LC40@ha
 5134 1cd8 386302D8 		la 3,.LC40@l(3)
 5135 1cdc 48000001 		bl gettext
 5136              	.LVL435:
 5137 1ce0 7C651B78 		mr 5,3
 5138 1ce4 4BFFF0F8 		b .L467
 5139              	.LVL436:
 5140              	.L485:
 5141              		.loc 5 167 0
 5142 1ce8 2F800010 		cmpwi 7,0,16
 5143 1cec 419E118C 		beq- 7,.L473
 5144 1cf0 2F800020 		cmpwi 7,0,32
 5145 1cf4 419E115C 		beq- 7,.L474
 5146 1cf8 2F800008 		cmpwi 7,0,8
 5147 1cfc 409EF924 		bne+ 7,.L731
 5148              		.loc 5 178 0
 5149 1d00 3C600000 		lis 3,.LC29@ha
 5150 1d04 386301B8 		la 3,.LC29@l(3)
 5151 1d08 48000001 		bl gettext
 5152              	.LVL437:
 5153 1d0c 7C651B78 		mr 5,3
 5154 1d10 4BFFF0CC 		b .L467
 5155              	.LVL438:
 5156              	.L519:
 5157              	.LBE1844:
 5158              	.LBE2060:
 5159              	.LBB2061:
 5160              	.LBB1867:
 5161              		.loc 5 134 0
 5162 1d14 2F800004 		cmpwi 7,0,4
 5163 1d18 419E0684 		beq- 7,.L509
 5164 1d1c 2F800008 		cmpwi 7,0,8
 5165 1d20 409EF154 		bne+ 7,.L733
 5166              		.loc 5 145 0
 5167 1d24 3C600000 		lis 3,.LC17@ha
 5168 1d28 386300B8 		la 3,.LC17@l(3)
 5169 1d2c 48000001 		bl gettext
 5170              	.LVL439:
 5171 1d30 7C651B78 		mr 5,3
 5172 1d34 4BFFF148 		b .L505
 5173              	.LVL440:
 5174              	.L520:
 5175              		.loc 5 134 0
 5176 1d38 2F800800 		cmpwi 7,0,2048
 5177 1d3c 419E0714 		beq- 7,.L516
 5178 1d40 2F801000 		cmpwi 7,0,4096
 5179 1d44 419E06F8 		beq- 7,.L517
 5180 1d48 2F800400 		cmpwi 7,0,1024
 5181 1d4c 409EF128 		bne+ 7,.L733
 5182              		.loc 5 155 0
 5183 1d50 3C600000 		lis 3,.LC22@ha
 5184 1d54 38630118 		la 3,.LC22@l(3)
 5185 1d58 48000001 		bl gettext
 5186              	.LVL441:
 5187 1d5c 7C651B78 		mr 5,3
 5188 1d60 4BFFF11C 		b .L505
 5189              	.LVL442:
 5190              	.L540:
 5191              	.LBE1867:
 5192              	.LBE2061:
 5193              	.LBB2062:
 5194              	.LBB1877:
 5195              		.loc 5 167 0
 5196 1d64 2F802000 		cmpwi 7,0,8192
 5197 1d68 419E123C 		beq- 7,.L535
 5198 1d6c 2B802000 		cmplwi 7,0,8192
 5199 1d70 409D1508 		ble- 7,.L783
 5200 1d74 2F804000 		cmpwi 7,0,16384
 5201 1d78 419E1630 		beq- 7,.L536
 5202 1d7c 6C09FFFF 		xoris 9,0,0xffff
 5203 1d80 2F898000 		cmpwi 7,9,-32768
 5204 1d84 409EF94C 		bne 7,.L734
 5205              		.loc 5 200 0
 5206 1d88 3C600000 		lis 3,.LC40@ha
 5207 1d8c 386302D8 		la 3,.LC40@l(3)
 5208 1d90 48000001 		bl gettext
 5209              	.LVL443:
 5210 1d94 7C651B78 		mr 5,3
 5211 1d98 4BFFF13C 		b .L521
 5212              	.LVL444:
 5213              	.L539:
 5214              		.loc 5 167 0
 5215 1d9c 2F800010 		cmpwi 7,0,16
 5216 1da0 419E1240 		beq- 7,.L527
 5217 1da4 2F800020 		cmpwi 7,0,32
 5218 1da8 419E1274 		beq- 7,.L528
 5219 1dac 2F800008 		cmpwi 7,0,8
 5220 1db0 409EF920 		bne+ 7,.L734
 5221              		.loc 5 178 0
 5222 1db4 3C600000 		lis 3,.LC29@ha
 5223 1db8 386301B8 		la 3,.LC29@l(3)
 5224 1dbc 48000001 		bl gettext
 5225              	.LVL445:
 5226 1dc0 7C651B78 		mr 5,3
 5227 1dc4 4BFFF110 		b .L521
 5228              	.LVL446:
 5229              	.L557:
 5230              	.LBE1877:
 5231              	.LBE2062:
 5232              	.LBB2063:
 5233              	.LBB1893:
 5234              		.loc 5 208 0
 5235 1dc8 2F800008 		cmpwi 7,0,8
 5236 1dcc 419E0C9C 		beq- 7,.L547
 5237 1dd0 2F800010 		cmpwi 7,0,16
 5238 1dd4 419E0C80 		beq- 7,.L548
 5239 1dd8 2F800004 		cmpwi 7,0,4
 5240 1ddc 409EF140 		bne+ 7,.L735
 5241              		.loc 5 217 0
 5242 1de0 3C600000 		lis 3,.LC44@ha
 5243 1de4 38630330 		la 3,.LC44@l(3)
 5244 1de8 48000001 		bl gettext
 5245              	.LVL447:
 5246 1dec 7C651B78 		mr 5,3
 5247 1df0 4BFFF134 		b .L542
 5248              	.LVL448:
 5249              	.L573:
 5250              	.LBE1893:
 5251              	.LBE2063:
 5252              	.LBB2064:
 5253              	.LBB1907:
 5254              		.loc 5 134 0
 5255 1df4 2F800004 		cmpwi 7,0,4
 5256 1df8 419E06E4 		beq- 7,.L563
 5257 1dfc 2F800008 		cmpwi 7,0,8
 5258 1e00 409EF16C 		bne+ 7,.L736
 5259              		.loc 5 145 0
 5260 1e04 3C600000 		lis 3,.LC17@ha
 5261 1e08 386300B8 		la 3,.LC17@l(3)
 5262 1e0c 48000001 		bl gettext
 5263              	.LVL449:
 5264 1e10 7C651B78 		mr 5,3
 5265 1e14 4BFFF160 		b .L559
 5266              	.LVL450:
 5267              	.L558:
 5268              	.LBE1907:
 5269              	.LBE2064:
 5270              	.LBB2065:
 5271              	.LBB1894:
 5272              		.loc 5 208 0
 5273 1e18 2F800800 		cmpwi 7,0,2048
 5274 1e1c 419E0BE8 		beq- 7,.L554
 5275 1e20 2F801000 		cmpwi 7,0,4096
 5276 1e24 419E0B04 		beq- 7,.L555
 5277 1e28 2F800400 		cmpwi 7,0,1024
 5278 1e2c 409EF0F0 		bne+ 7,.L735
 5279              		.loc 5 231 0
 5280 1e30 3C600000 		lis 3,.LC51@ha
 5281 1e34 386303B4 		la 3,.LC51@l(3)
 5282 1e38 48000001 		bl gettext
 5283              	.LVL451:
 5284 1e3c 7C651B78 		mr 5,3
 5285 1e40 4BFFF0E4 		b .L542
 5286              	.LVL452:
 5287              	.L574:
 5288              	.LBE1894:
 5289              	.LBE2065:
 5290              	.LBB2066:
 5291              	.LBB1908:
 5292              		.loc 5 134 0
 5293 1e44 2F800800 		cmpwi 7,0,2048
 5294 1e48 419E066C 		beq- 7,.L570
 5295 1e4c 2F801000 		cmpwi 7,0,4096
 5296 1e50 419E0650 		beq- 7,.L571
 5297 1e54 2F800400 		cmpwi 7,0,1024
 5298 1e58 409EF114 		bne+ 7,.L736
 5299              		.loc 5 155 0
 5300 1e5c 3C600000 		lis 3,.LC22@ha
 5301 1e60 38630118 		la 3,.LC22@l(3)
 5302 1e64 48000001 		bl gettext
 5303              	.LVL453:
 5304 1e68 7C651B78 		mr 5,3
 5305 1e6c 4BFFF108 		b .L559
 5306              	.LVL454:
 5307              	.L593:
 5308              	.LBE1908:
 5309              	.LBE2066:
 5310              	.LBB2067:
 5311              	.LBB1917:
 5312              		.loc 5 167 0
 5313 1e70 2F800010 		cmpwi 7,0,16
 5314 1e74 419E1054 		beq- 7,.L581
 5315 1e78 2F800020 		cmpwi 7,0,32
 5316 1e7c 419E10D8 		beq- 7,.L582
 5317 1e80 2F800008 		cmpwi 7,0,8
 5318 1e84 409EF8FC 		bne+ 7,.L737
 5319              		.loc 5 178 0
 5320 1e88 3C600000 		lis 3,.LC29@ha
 5321 1e8c 386301B8 		la 3,.LC29@l(3)
 5322 1e90 48000001 		bl gettext
 5323              	.LVL455:
 5324 1e94 7C651B78 		mr 5,3
 5325 1e98 4BFFF134 		b .L575
 5326              	.LVL456:
 5327              	.L612:
 5328              	.LBE1917:
 5329              	.LBE2067:
 5330              	.LBB2068:
 5331              	.LBB1934:
 5332              		.loc 5 208 0
 5333 1e9c 2F800800 		cmpwi 7,0,2048
 5334 1ea0 419E0BA0 		beq- 7,.L608
 5335 1ea4 2F801000 		cmpwi 7,0,4096
 5336 1ea8 419E0B84 		beq- 7,.L609
 5337 1eac 2F800400 		cmpwi 7,0,1024
 5338 1eb0 409EF164 		bne+ 7,.L738
 5339              		.loc 5 231 0
 5340 1eb4 3C600000 		lis 3,.LC51@ha
 5341 1eb8 386303B4 		la 3,.LC51@l(3)
 5342 1ebc 48000001 		bl gettext
 5343              	.LVL457:
 5344 1ec0 7C651B78 		mr 5,3
 5345 1ec4 4BFFF158 		b .L596
 5346              	.LVL458:
 5347              	.L611:
 5348              		.loc 5 208 0
 5349 1ec8 2F800008 		cmpwi 7,0,8
 5350 1ecc 419E0B10 		beq- 7,.L601
 5351 1ed0 2F800010 		cmpwi 7,0,16
 5352 1ed4 419E0A7C 		beq- 7,.L602
 5353 1ed8 2F800004 		cmpwi 7,0,4
 5354 1edc 409EF138 		bne+ 7,.L738
 5355              		.loc 5 217 0
 5356 1ee0 3C600000 		lis 3,.LC44@ha
 5357 1ee4 38630330 		la 3,.LC44@l(3)
 5358 1ee8 48000001 		bl gettext
 5359              	.LVL459:
 5360 1eec 7C651B78 		mr 5,3
 5361 1ef0 4BFFF12C 		b .L596
 5362              	.LVL460:
 5363              	.L594:
 5364              	.LBE1934:
 5365              	.LBE2068:
 5366              	.LBB2069:
 5367              	.LBB1918:
 5368              		.loc 5 167 0
 5369 1ef4 2F802000 		cmpwi 7,0,8192
 5370 1ef8 419E100C 		beq- 7,.L589
 5371 1efc 2B802000 		cmplwi 7,0,8192
 5372 1f00 409D1404 		ble- 7,.L784
 5373 1f04 2F804000 		cmpwi 7,0,16384
 5374 1f08 419E14B4 		beq- 7,.L590
 5375 1f0c 6C09FFFF 		xoris 9,0,0xffff
 5376 1f10 2F898000 		cmpwi 7,9,-32768
 5377 1f14 409EF86C 		bne 7,.L737
 5378              		.loc 5 200 0
 5379 1f18 3C600000 		lis 3,.LC40@ha
 5380 1f1c 386302D8 		la 3,.LC40@l(3)
 5381 1f20 48000001 		bl gettext
 5382              	.LVL461:
 5383 1f24 7C651B78 		mr 5,3
 5384 1f28 4BFFF0A4 		b .L575
 5385              	.LVL462:
 5386              	.L628:
 5387              	.LBE1918:
 5388              	.LBE2069:
 5389              	.LBB2070:
 5390              	.LBB1946:
 5391              		.loc 5 134 0
 5392 1f2c 2F800800 		cmpwi 7,0,2048
 5393 1f30 419E0610 		beq- 7,.L624
 5394 1f34 2F801000 		cmpwi 7,0,4096
 5395 1f38 419E05F4 		beq- 7,.L625
 5396 1f3c 2F800400 		cmpwi 7,0,1024
 5397 1f40 409EF124 		bne+ 7,.L739
 5398              		.loc 5 155 0
 5399 1f44 3C600000 		lis 3,.LC22@ha
 5400 1f48 38630118 		la 3,.LC22@l(3)
 5401 1f4c 48000001 		bl gettext
 5402              	.LVL463:
 5403 1f50 7C651B78 		mr 5,3
 5404 1f54 4BFFF118 		b .L613
 5405              	.LVL464:
 5406              	.L647:
 5407              	.LBE1946:
 5408              	.LBE2070:
 5409              	.LBB2071:
 5410              	.LBB1956:
 5411              		.loc 5 167 0
 5412 1f58 2F800010 		cmpwi 7,0,16
 5413 1f5c 419E10D4 		beq- 7,.L635
 5414 1f60 2F800020 		cmpwi 7,0,32
 5415 1f64 419E1130 		beq- 7,.L636
 5416 1f68 2F800008 		cmpwi 7,0,8
 5417 1f6c 409EF8C4 		bne+ 7,.L740
 5418              		.loc 5 178 0
 5419 1f70 3C600000 		lis 3,.LC29@ha
 5420 1f74 386301B8 		la 3,.LC29@l(3)
 5421 1f78 48000001 		bl gettext
 5422              	.LVL465:
 5423 1f7c 7C651B78 		mr 5,3
 5424 1f80 4BFFF144 		b .L629
 5425              	.LVL466:
 5426              	.L648:
 5427              		.loc 5 167 0
 5428 1f84 2F802000 		cmpwi 7,0,8192
 5429 1f88 419E10F8 		beq- 7,.L643
 5430 1f8c 2B802000 		cmplwi 7,0,8192
 5431 1f90 409D1358 		ble- 7,.L785
 5432 1f94 2F804000 		cmpwi 7,0,16384
 5433 1f98 419E1438 		beq- 7,.L644
 5434 1f9c 6C09FFFF 		xoris 9,0,0xffff
 5435 1fa0 2F898000 		cmpwi 7,9,-32768
 5436 1fa4 409EF88C 		bne 7,.L740
 5437              		.loc 5 200 0
 5438 1fa8 3C600000 		lis 3,.LC40@ha
 5439 1fac 386302D8 		la 3,.LC40@l(3)
 5440 1fb0 48000001 		bl gettext
 5441              	.LVL467:
 5442 1fb4 7C651B78 		mr 5,3
 5443 1fb8 4BFFF10C 		b .L629
 5444              	.LVL468:
 5445              	.L627:
 5446              	.LBE1956:
 5447              	.LBE2071:
 5448              	.LBB2072:
 5449              	.LBB1947:
 5450              		.loc 5 134 0
 5451 1fbc 2F800004 		cmpwi 7,0,4
 5452 1fc0 419E0558 		beq- 7,.L617
 5453 1fc4 2F800008 		cmpwi 7,0,8
 5454 1fc8 409EF09C 		bne+ 7,.L739
 5455              		.loc 5 145 0
 5456 1fcc 3C600000 		lis 3,.LC17@ha
 5457 1fd0 386300B8 		la 3,.LC17@l(3)
 5458 1fd4 48000001 		bl gettext
 5459              	.LVL469:
 5460 1fd8 7C651B78 		mr 5,3
 5461 1fdc 4BFFF090 		b .L613
 5462              	.LVL470:
 5463              	.L665:
 5464              	.LBE1947:
 5465              	.LBE2072:
 5466              	.LBB2073:
 5467              	.LBB1968:
 5468              		.loc 5 208 0
 5469 1fe0 2F800008 		cmpwi 7,0,8
 5470 1fe4 419E0B4C 		beq- 7,.L655
 5471 1fe8 2F800010 		cmpwi 7,0,16
 5472 1fec 419E0B30 		beq- 7,.L656
 5473 1ff0 2F800004 		cmpwi 7,0,4
 5474 1ff4 409EF118 		bne+ 7,.L741
 5475              		.loc 5 217 0
 5476 1ff8 3C600000 		lis 3,.LC44@ha
 5477 1ffc 38630330 		la 3,.LC44@l(3)
 5478 2000 48000001 		bl gettext
 5479              	.LVL471:
 5480 2004 7C651B78 		mr 5,3
 5481 2008 4BFFF10C 		b .L650
 5482              	.LVL472:
 5483              	.L701:
 5484              	.LBE1968:
 5485              	.LBE2073:
 5486              	.LBB2074:
 5487              	.LBB1989:
 5488              		.loc 5 167 0
 5489 200c 2F800010 		cmpwi 7,0,16
 5490 2010 419E1110 		beq- 7,.L689
 5491 2014 2F800020 		cmpwi 7,0,32
 5492 2018 419E10F4 		beq- 7,.L690
 5493 201c 2F800008 		cmpwi 7,0,8
 5494 2020 409EF8C0 		bne+ 7,.L743
 5495              		.loc 5 178 0
 5496 2024 3C600000 		lis 3,.LC29@ha
 5497 2028 386301B8 		la 3,.LC29@l(3)
 5498 202c 48000001 		bl gettext
 5499              	.LVL473:
 5500 2030 7C651B78 		mr 5,3
 5501 2034 4BFFF188 		b .L683
 5502              	.LVL474:
 5503              	.L681:
 5504              	.LBE1989:
 5505              	.LBE2074:
 5506              	.LBB2075:
 5507              	.LBB1979:
 5508              		.loc 5 134 0
 5509 2038 2F800004 		cmpwi 7,0,4
 5510 203c 419E05CC 		beq- 7,.L671
 5511 2040 2F800008 		cmpwi 7,0,8
 5512 2044 409EF118 		bne+ 7,.L742
 5513              		.loc 5 145 0
 5514 2048 3C600000 		lis 3,.LC17@ha
 5515 204c 386300B8 		la 3,.LC17@l(3)
 5516 2050 48000001 		bl gettext
 5517              	.LVL475:
 5518 2054 7C651B78 		mr 5,3
 5519 2058 4BFFF10C 		b .L667
 5520              	.LVL476:
 5521              	.L702:
 5522              	.LBE1979:
 5523              	.LBE2075:
 5524              	.LBB2076:
 5525              	.LBB1990:
 5526              		.loc 5 167 0
 5527 205c 2F802000 		cmpwi 7,0,8192
 5528 2060 419E1084 		beq- 7,.L697
 5529 2064 2B802000 		cmplwi 7,0,8192
 5530 2068 409D12D4 		ble- 7,.L786
 5531 206c 2F804000 		cmpwi 7,0,16384
 5532 2070 419E1374 		beq- 7,.L698
 5533 2074 6C09FFFF 		xoris 9,0,0xffff
 5534 2078 2F898000 		cmpwi 7,9,-32768
 5535 207c 409EF864 		bne 7,.L743
 5536              		.loc 5 200 0
 5537 2080 3C600000 		lis 3,.LC40@ha
 5538 2084 386302D8 		la 3,.LC40@l(3)
 5539 2088 48000001 		bl gettext
 5540              	.LVL477:
 5541 208c 7C651B78 		mr 5,3
 5542 2090 4BFFF12C 		b .L683
 5543              	.LVL478:
 5544              	.L682:
 5545              	.LBE1990:
 5546              	.LBE2076:
 5547              	.LBB2077:
 5548              	.LBB1980:
 5549              		.loc 5 134 0
 5550 2094 2F800800 		cmpwi 7,0,2048
 5551 2098 419E0548 		beq- 7,.L678
 5552 209c 2F801000 		cmpwi 7,0,4096
 5553 20a0 419E052C 		beq- 7,.L679
 5554 20a4 2F800400 		cmpwi 7,0,1024
 5555 20a8 409EF0B4 		bne+ 7,.L742
 5556              		.loc 5 155 0
 5557 20ac 3C600000 		lis 3,.LC22@ha
 5558 20b0 38630118 		la 3,.LC22@l(3)
 5559 20b4 48000001 		bl gettext
 5560              	.LVL479:
 5561 20b8 7C651B78 		mr 5,3
 5562 20bc 4BFFF0A8 		b .L667
 5563              	.LVL480:
 5564              	.L666:
 5565              	.LBE1980:
 5566              	.LBE2077:
 5567              	.LBB2078:
 5568              	.LBB1969:
 5569              		.loc 5 208 0
 5570 20c0 2F800800 		cmpwi 7,0,2048
 5571 20c4 419E0A30 		beq- 7,.L662
 5572 20c8 2F801000 		cmpwi 7,0,4096
 5573 20cc 419E0A14 		beq- 7,.L663
 5574 20d0 2F800400 		cmpwi 7,0,1024
 5575 20d4 409EF038 		bne+ 7,.L741
 5576              		.loc 5 231 0
 5577 20d8 3C600000 		lis 3,.LC51@ha
 5578 20dc 386303B4 		la 3,.LC51@l(3)
 5579 20e0 48000001 		bl gettext
 5580              	.LVL481:
 5581 20e4 7C651B78 		mr 5,3
 5582 20e8 4BFFF02C 		b .L650
 5583              	.LVL482:
 5584              	.L719:
 5585              	.LBE1969:
 5586              	.LBE2078:
 5587              	.LBB2079:
 5588              	.LBB2002:
 5589              		.loc 5 208 0
 5590 20ec 2F800008 		cmpwi 7,0,8
 5591 20f0 419E0AB8 		beq- 7,.L709
 5592 20f4 2F800010 		cmpwi 7,0,16
 5593 20f8 419E0A9C 		beq- 7,.L710
 5594 20fc 2F800004 		cmpwi 7,0,4
 5595 2100 409EF104 		bne+ 7,.L744
 5596              		.loc 5 217 0
 5597 2104 3C600000 		lis 3,.LC44@ha
 5598 2108 38630330 		la 3,.LC44@l(3)
 5599 210c 48000001 		bl gettext
 5600              	.LVL483:
 5601 2110 7C651B78 		mr 5,3
 5602 2114 4BFFF0F8 		b .L704
 5603              	.LVL484:
 5604              	.L720:
 5605              		.loc 5 208 0
 5606 2118 2F800800 		cmpwi 7,0,2048
 5607 211c 419E0A50 		beq- 7,.L716
 5608 2120 2F801000 		cmpwi 7,0,4096
 5609 2124 419E0A34 		beq- 7,.L717
 5610 2128 2F800400 		cmpwi 7,0,1024
 5611 212c 409EF0D8 		bne+ 7,.L744
 5612              		.loc 5 231 0
 5613 2130 3C600000 		lis 3,.LC51@ha
 5614 2134 386303B4 		la 3,.LC51@l(3)
 5615 2138 48000001 		bl gettext
 5616              	.LVL485:
 5617 213c 7C651B78 		mr 5,3
 5618 2140 4BFFF0CC 		b .L704
 5619              	.LVL486:
 5620              	.L293:
 5621              	.LBE2002:
 5622              	.LBE2079:
 5623              	.LBB2080:
 5624              	.LBB1729:
 5625              		.loc 5 143 0
 5626 2144 3C600000 		lis 3,.LC16@ha
 5627              	.LVL487:
 5628 2148 386300A8 		la 3,.LC16@l(3)
 5629 214c 48000001 		bl gettext
 5630              	.LVL488:
 5631 2150 7C651B78 		mr 5,3
 5632 2154 4BFFE948 		b .L289
 5633              	.LVL489:
 5634              	.L298:
 5635              		.loc 5 153 0
 5636 2158 3C600000 		lis 3,.LC21@ha
 5637 215c 38630104 		la 3,.LC21@l(3)
 5638 2160 48000001 		bl gettext
 5639              	.LVL490:
 5640 2164 7C651B78 		mr 5,3
 5641 2168 4BFFE934 		b .L289
 5642              	.LVL491:
 5643              	.L292:
 5644              		.loc 5 141 0
 5645 216c 3C600000 		lis 3,.LC15@ha
 5646 2170 38630098 		la 3,.LC15@l(3)
 5647 2174 48000001 		bl gettext
 5648              	.LVL492:
 5649 2178 7C651B78 		mr 5,3
 5650 217c 4BFFE920 		b .L289
 5651              	.LVL493:
 5652              	.L295:
 5653              		.loc 5 147 0
 5654 2180 3C600000 		lis 3,.LC18@ha
 5655 2184 386300C8 		la 3,.LC18@l(3)
 5656 2188 48000001 		bl gettext
 5657              	.LVL494:
 5658 218c 7C651B78 		mr 5,3
 5659 2190 4BFFE90C 		b .L289
 5660              	.LVL495:
 5661              	.L746:
 5662              		.loc 5 151 0
 5663 2194 3C600000 		lis 3,.LC20@ha
 5664 2198 386300F0 		la 3,.LC20@l(3)
 5665 219c 48000001 		bl gettext
 5666              	.LVL496:
 5667 21a0 7C651B78 		mr 5,3
 5668 21a4 4BFFE8F8 		b .L289
 5669              	.LVL497:
 5670              	.L296:
 5671              		.loc 5 149 0
 5672 21a8 3C600000 		lis 3,.LC19@ha
 5673 21ac 386300DC 		la 3,.LC19@l(3)
 5674 21b0 48000001 		bl gettext
 5675              	.LVL498:
 5676 21b4 7C651B78 		mr 5,3
 5677 21b8 4BFFE8E4 		b .L289
 5678              	.LVL499:
 5679              	.L301:
 5680              		.loc 5 159 0
 5681 21bc 3C600000 		lis 3,.LC24@ha
 5682 21c0 3863013C 		la 3,.LC24@l(3)
 5683 21c4 48000001 		bl gettext
 5684              	.LVL500:
 5685 21c8 7C651B78 		mr 5,3
 5686 21cc 4BFFE8D0 		b .L289
 5687              	.LVL501:
 5688              	.L300:
 5689              		.loc 5 157 0
 5690 21d0 3C600000 		lis 3,.LC23@ha
 5691 21d4 3863012C 		la 3,.LC23@l(3)
 5692 21d8 48000001 		bl gettext
 5693              	.LVL502:
 5694 21dc 7C651B78 		mr 5,3
 5695 21e0 4BFFE8BC 		b .L289
 5696              	.LVL503:
 5697              	.L290:
 5698              	.LBB1724:
 5699              	.LBB1725:
 5700              		.loc 5 137 0
 5701 21e4 3C600000 		lis 3,.LC13@ha
 5702 21e8 38630074 		la 3,.LC13@l(3)
 5703 21ec 48000001 		bl gettext
 5704              	.LVL504:
 5705 21f0 7C651B78 		mr 5,3
 5706 21f4 4BFFE8A8 		b .L289
 5707              	.LVL505:
 5708              	.L350:
 5709              	.LBE1725:
 5710              	.LBE1724:
 5711              	.LBE1729:
 5712              	.LBE2080:
 5713              	.LBB2081:
 5714              	.LBB1763:
 5715              		.loc 5 149 0
 5716 21f8 3C600000 		lis 3,.LC19@ha
 5717 21fc 386300DC 		la 3,.LC19@l(3)
 5718 2200 48000001 		bl gettext
 5719              	.LVL506:
 5720 2204 7C651B78 		mr 5,3
 5721 2208 4BFFE98C 		b .L343
 5722              	.LVL507:
 5723              	.L346:
 5724              		.loc 5 141 0
 5725 220c 3C600000 		lis 3,.LC15@ha
 5726 2210 38630098 		la 3,.LC15@l(3)
 5727 2214 48000001 		bl gettext
 5728              	.LVL508:
 5729 2218 7C651B78 		mr 5,3
 5730 221c 4BFFE978 		b .L343
 5731              	.LVL509:
 5732              	.L344:
 5733              	.LBB1756:
 5734              	.LBB1757:
 5735              		.loc 5 137 0
 5736 2220 3C600000 		lis 3,.LC13@ha
 5737 2224 38630074 		la 3,.LC13@l(3)
 5738 2228 48000001 		bl gettext
 5739              	.LVL510:
 5740 222c 7C651B78 		mr 5,3
 5741 2230 4BFFE964 		b .L343
 5742              	.LVL511:
 5743              	.L347:
 5744              	.LBE1757:
 5745              	.LBE1756:
 5746              		.loc 5 143 0
 5747 2234 3C600000 		lis 3,.LC16@ha
 5748 2238 386300A8 		la 3,.LC16@l(3)
 5749 223c 48000001 		bl gettext
 5750              	.LVL512:
 5751 2240 7C651B78 		mr 5,3
 5752 2244 4BFFE950 		b .L343
 5753              	.LVL513:
 5754              	.L352:
 5755              		.loc 5 153 0
 5756 2248 3C600000 		lis 3,.LC21@ha
 5757 224c 38630104 		la 3,.LC21@l(3)
 5758 2250 48000001 		bl gettext
 5759              	.LVL514:
 5760 2254 7C651B78 		mr 5,3
 5761 2258 4BFFE93C 		b .L343
 5762              	.LVL515:
 5763              	.L349:
 5764              		.loc 5 147 0
 5765 225c 3C600000 		lis 3,.LC18@ha
 5766 2260 386300C8 		la 3,.LC18@l(3)
 5767 2264 48000001 		bl gettext
 5768              	.LVL516:
 5769 2268 7C651B78 		mr 5,3
 5770 226c 4BFFE928 		b .L343
 5771              	.LVL517:
 5772              	.L355:
 5773              		.loc 5 159 0
 5774 2270 3C600000 		lis 3,.LC24@ha
 5775 2274 3863013C 		la 3,.LC24@l(3)
 5776 2278 48000001 		bl gettext
 5777              	.LVL518:
 5778 227c 7C651B78 		mr 5,3
 5779 2280 4BFFE914 		b .L343
 5780              	.LVL519:
 5781              	.L354:
 5782              		.loc 5 157 0
 5783 2284 3C600000 		lis 3,.LC23@ha
 5784 2288 3863012C 		la 3,.LC23@l(3)
 5785 228c 48000001 		bl gettext
 5786              	.LVL520:
 5787 2290 7C651B78 		mr 5,3
 5788 2294 4BFFE900 		b .L343
 5789              	.LVL521:
 5790              	.L409:
 5791              	.LBE1763:
 5792              	.LBE2081:
 5793              	.LBB2082:
 5794              	.LBB1798:
 5795              		.loc 5 159 0
 5796 2298 3C600000 		lis 3,.LC24@ha
 5797 229c 3863013C 		la 3,.LC24@l(3)
 5798 22a0 48000001 		bl gettext
 5799              	.LVL522:
 5800 22a4 7C651B78 		mr 5,3
 5801 22a8 4BFFE9E4 		b .L397
 5802              	.LVL523:
 5803              	.L408:
 5804              		.loc 5 157 0
 5805 22ac 3C600000 		lis 3,.LC23@ha
 5806 22b0 3863012C 		la 3,.LC23@l(3)
 5807 22b4 48000001 		bl gettext
 5808              	.LVL524:
 5809 22b8 7C651B78 		mr 5,3
 5810 22bc 4BFFE9D0 		b .L397
 5811              	.LVL525:
 5812              	.L398:
 5813              	.LBB1792:
 5814              	.LBB1793:
 5815              		.loc 5 137 0
 5816 22c0 3C600000 		lis 3,.LC13@ha
 5817 22c4 38630074 		la 3,.LC13@l(3)
 5818 22c8 48000001 		bl gettext
 5819              	.LVL526:
 5820 22cc 7C651B78 		mr 5,3
 5821 22d0 4BFFE9BC 		b .L397
 5822              	.LVL527:
 5823              	.L404:
 5824              	.LBE1793:
 5825              	.LBE1792:
 5826              		.loc 5 149 0
 5827 22d4 3C600000 		lis 3,.LC19@ha
 5828 22d8 386300DC 		la 3,.LC19@l(3)
 5829 22dc 48000001 		bl gettext
 5830              	.LVL528:
 5831 22e0 7C651B78 		mr 5,3
 5832 22e4 4BFFE9A8 		b .L397
 5833              	.LVL529:
 5834              	.L401:
 5835              		.loc 5 143 0
 5836 22e8 3C600000 		lis 3,.LC16@ha
 5837 22ec 386300A8 		la 3,.LC16@l(3)
 5838 22f0 48000001 		bl gettext
 5839              	.LVL530:
 5840 22f4 7C651B78 		mr 5,3
 5841 22f8 4BFFE994 		b .L397
 5842              	.LVL531:
 5843              	.L400:
 5844              		.loc 5 141 0
 5845 22fc 3C600000 		lis 3,.LC15@ha
 5846 2300 38630098 		la 3,.LC15@l(3)
 5847 2304 48000001 		bl gettext
 5848              	.LVL532:
 5849 2308 7C651B78 		mr 5,3
 5850 230c 4BFFE980 		b .L397
 5851              	.LVL533:
 5852              	.L406:
 5853              		.loc 5 153 0
 5854 2310 3C600000 		lis 3,.LC21@ha
 5855 2314 38630104 		la 3,.LC21@l(3)
 5856 2318 48000001 		bl gettext
 5857              	.LVL534:
 5858 231c 7C651B78 		mr 5,3
 5859 2320 4BFFE96C 		b .L397
 5860              	.LVL535:
 5861              	.L403:
 5862              		.loc 5 147 0
 5863 2324 3C600000 		lis 3,.LC18@ha
 5864 2328 386300C8 		la 3,.LC18@l(3)
 5865 232c 48000001 		bl gettext
 5866              	.LVL536:
 5867 2330 7C651B78 		mr 5,3
 5868 2334 4BFFE958 		b .L397
 5869              	.LVL537:
 5870              	.L462:
 5871              	.LBE1798:
 5872              	.LBE2082:
 5873              	.LBB2083:
 5874              	.LBB1834:
 5875              		.loc 5 157 0
 5876 2338 3C600000 		lis 3,.LC23@ha
 5877 233c 3863012C 		la 3,.LC23@l(3)
 5878 2340 48000001 		bl gettext
 5879              	.LVL538:
 5880 2344 7C651B78 		mr 5,3
 5881 2348 4BFFEA3C 		b .L451
 5882              	.LVL539:
 5883              	.L460:
 5884              		.loc 5 153 0
 5885 234c 3C600000 		lis 3,.LC21@ha
 5886 2350 38630104 		la 3,.LC21@l(3)
 5887 2354 48000001 		bl gettext
 5888              	.LVL540:
 5889 2358 7C651B78 		mr 5,3
 5890 235c 4BFFEA28 		b .L451
 5891              	.LVL541:
 5892              	.L463:
 5893              		.loc 5 159 0
 5894 2360 3C600000 		lis 3,.LC24@ha
 5895 2364 3863013C 		la 3,.LC24@l(3)
 5896 2368 48000001 		bl gettext
 5897              	.LVL542:
 5898 236c 7C651B78 		mr 5,3
 5899 2370 4BFFEA14 		b .L451
 5900              	.LVL543:
 5901              	.L454:
 5902              		.loc 5 141 0
 5903 2374 3C600000 		lis 3,.LC15@ha
 5904 2378 38630098 		la 3,.LC15@l(3)
 5905 237c 48000001 		bl gettext
 5906              	.LVL544:
 5907 2380 7C651B78 		mr 5,3
 5908 2384 4BFFEA00 		b .L451
 5909              	.LVL545:
 5910              	.L455:
 5911              		.loc 5 143 0
 5912 2388 3C600000 		lis 3,.LC16@ha
 5913 238c 386300A8 		la 3,.LC16@l(3)
 5914 2390 48000001 		bl gettext
 5915              	.LVL546:
 5916 2394 7C651B78 		mr 5,3
 5917 2398 4BFFE9EC 		b .L451
 5918              	.LVL547:
 5919              	.L509:
 5920              	.LBE1834:
 5921              	.LBE2083:
 5922              	.LBB2084:
 5923              	.LBB1868:
 5924 239c 3C600000 		lis 3,.LC16@ha
 5925 23a0 386300A8 		la 3,.LC16@l(3)
 5926 23a4 48000001 		bl gettext
 5927              	.LVL548:
 5928 23a8 7C651B78 		mr 5,3
 5929 23ac 4BFFEAD0 		b .L505
 5930              	.LVL549:
 5931              	.L512:
 5932              		.loc 5 149 0
 5933 23b0 3C600000 		lis 3,.LC19@ha
 5934 23b4 386300DC 		la 3,.LC19@l(3)
 5935 23b8 48000001 		bl gettext
 5936              	.LVL550:
 5937 23bc 7C651B78 		mr 5,3
 5938 23c0 4BFFEABC 		b .L505
 5939              	.LVL551:
 5940              	.L514:
 5941              		.loc 5 153 0
 5942 23c4 3C600000 		lis 3,.LC21@ha
 5943 23c8 38630104 		la 3,.LC21@l(3)
 5944 23cc 48000001 		bl gettext
 5945              	.LVL552:
 5946 23d0 7C651B78 		mr 5,3
 5947 23d4 4BFFEAA8 		b .L505
 5948              	.LVL553:
 5949              	.L511:
 5950              		.loc 5 147 0
 5951 23d8 3C600000 		lis 3,.LC18@ha
 5952 23dc 386300C8 		la 3,.LC18@l(3)
 5953 23e0 48000001 		bl gettext
 5954              	.LVL554:
 5955 23e4 7C651B78 		mr 5,3
 5956 23e8 4BFFEA94 		b .L505
 5957              	.LVL555:
 5958              	.L508:
 5959              		.loc 5 141 0
 5960 23ec 3C600000 		lis 3,.LC15@ha
 5961 23f0 38630098 		la 3,.LC15@l(3)
 5962 23f4 48000001 		bl gettext
 5963              	.LVL556:
 5964 23f8 7C651B78 		mr 5,3
 5965 23fc 4BFFEA80 		b .L505
 5966              	.LVL557:
 5967              	.L506:
 5968              	.LBB1862:
 5969              	.LBB1863:
 5970              		.loc 5 137 0
 5971 2400 3C600000 		lis 3,.LC13@ha
 5972 2404 38630074 		la 3,.LC13@l(3)
 5973 2408 48000001 		bl gettext
 5974              	.LVL558:
 5975 240c 7C651B78 		mr 5,3
 5976 2410 4BFFEA6C 		b .L505
 5977              	.LVL559:
 5978              	.L457:
 5979              	.LBE1863:
 5980              	.LBE1862:
 5981              	.LBE1868:
 5982              	.LBE2084:
 5983              	.LBB2085:
 5984              	.LBB1835:
 5985              		.loc 5 147 0
 5986 2414 3C600000 		lis 3,.LC18@ha
 5987 2418 386300C8 		la 3,.LC18@l(3)
 5988 241c 48000001 		bl gettext
 5989              	.LVL560:
 5990 2420 7C651B78 		mr 5,3
 5991 2424 4BFFE960 		b .L451
 5992              	.LVL561:
 5993              	.L458:
 5994              		.loc 5 149 0
 5995 2428 3C600000 		lis 3,.LC19@ha
 5996 242c 386300DC 		la 3,.LC19@l(3)
 5997 2430 48000001 		bl gettext
 5998              	.LVL562:
 5999 2434 7C651B78 		mr 5,3
 6000 2438 4BFFE94C 		b .L451
 6001              	.LVL563:
 6002              	.L517:
 6003              	.LBE1835:
 6004              	.LBE2085:
 6005              	.LBB2086:
 6006              	.LBB1869:
 6007              		.loc 5 159 0
 6008 243c 3C600000 		lis 3,.LC24@ha
 6009 2440 3863013C 		la 3,.LC24@l(3)
 6010 2444 48000001 		bl gettext
 6011              	.LVL564:
 6012 2448 7C651B78 		mr 5,3
 6013 244c 4BFFEA30 		b .L505
 6014              	.LVL565:
 6015              	.L516:
 6016              		.loc 5 157 0
 6017 2450 3C600000 		lis 3,.LC23@ha
 6018 2454 3863012C 		la 3,.LC23@l(3)
 6019 2458 48000001 		bl gettext
 6020              	.LVL566:
 6021 245c 7C651B78 		mr 5,3
 6022 2460 4BFFEA1C 		b .L505
 6023              	.LVL567:
 6024              	.L452:
 6025              	.LBE1869:
 6026              	.LBE2086:
 6027              	.LBB2087:
 6028              	.LBB1836:
 6029              	.LBB1827:
 6030              	.LBB1828:
 6031              		.loc 5 137 0
 6032 2464 3C600000 		lis 3,.LC13@ha
 6033 2468 38630074 		la 3,.LC13@l(3)
 6034 246c 48000001 		bl gettext
 6035              	.LVL568:
 6036 2470 7C651B78 		mr 5,3
 6037 2474 4BFFE910 		b .L451
 6038              	.LVL569:
 6039              	.L565:
 6040              	.LBE1828:
 6041              	.LBE1827:
 6042              	.LBE1836:
 6043              	.LBE2087:
 6044              	.LBB2088:
 6045              	.LBB1909:
 6046              		.loc 5 147 0
 6047 2478 3C600000 		lis 3,.LC18@ha
 6048 247c 386300C8 		la 3,.LC18@l(3)
 6049 2480 48000001 		bl gettext
 6050              	.LVL570:
 6051 2484 7C651B78 		mr 5,3
 6052 2488 4BFFEAEC 		b .L559
 6053              	.LVL571:
 6054              	.L566:
 6055              		.loc 5 149 0
 6056 248c 3C600000 		lis 3,.LC19@ha
 6057 2490 386300DC 		la 3,.LC19@l(3)
 6058 2494 48000001 		bl gettext
 6059              	.LVL572:
 6060 2498 7C651B78 		mr 5,3
 6061 249c 4BFFEAD8 		b .L559
 6062              	.LVL573:
 6063              	.L571:
 6064              		.loc 5 159 0
 6065 24a0 3C600000 		lis 3,.LC24@ha
 6066 24a4 3863013C 		la 3,.LC24@l(3)
 6067 24a8 48000001 		bl gettext
 6068              	.LVL574:
 6069 24ac 7C651B78 		mr 5,3
 6070 24b0 4BFFEAC4 		b .L559
 6071              	.LVL575:
 6072              	.L570:
 6073              		.loc 5 157 0
 6074 24b4 3C600000 		lis 3,.LC23@ha
 6075 24b8 3863012C 		la 3,.LC23@l(3)
 6076 24bc 48000001 		bl gettext
 6077              	.LVL576:
 6078 24c0 7C651B78 		mr 5,3
 6079 24c4 4BFFEAB0 		b .L559
 6080              	.LVL577:
 6081              	.L568:
 6082              		.loc 5 153 0
 6083 24c8 3C600000 		lis 3,.LC21@ha
 6084 24cc 38630104 		la 3,.LC21@l(3)
 6085 24d0 48000001 		bl gettext
 6086              	.LVL578:
 6087 24d4 7C651B78 		mr 5,3
 6088 24d8 4BFFEA9C 		b .L559
 6089              	.LVL579:
 6090              	.L563:
 6091              		.loc 5 143 0
 6092 24dc 3C600000 		lis 3,.LC16@ha
 6093 24e0 386300A8 		la 3,.LC16@l(3)
 6094 24e4 48000001 		bl gettext
 6095              	.LVL580:
 6096 24e8 7C651B78 		mr 5,3
 6097 24ec 4BFFEA88 		b .L559
 6098              	.LVL581:
 6099              	.L560:
 6100              	.LBB1902:
 6101              	.LBB1903:
 6102              		.loc 5 137 0
 6103 24f0 3C600000 		lis 3,.LC13@ha
 6104 24f4 38630074 		la 3,.LC13@l(3)
 6105 24f8 48000001 		bl gettext
 6106              	.LVL582:
 6107 24fc 7C651B78 		mr 5,3
 6108 2500 4BFFEA74 		b .L559
 6109              	.LVL583:
 6110              	.L562:
 6111              	.LBE1903:
 6112              	.LBE1902:
 6113              		.loc 5 141 0
 6114 2504 3C600000 		lis 3,.LC15@ha
 6115 2508 38630098 		la 3,.LC15@l(3)
 6116 250c 48000001 		bl gettext
 6117              	.LVL584:
 6118 2510 7C651B78 		mr 5,3
 6119 2514 4BFFEA60 		b .L559
 6120              	.LVL585:
 6121              	.L617:
 6122              	.LBE1909:
 6123              	.LBE2088:
 6124              	.LBB2089:
 6125              	.LBB1948:
 6126              		.loc 5 143 0
 6127 2518 3C600000 		lis 3,.LC16@ha
 6128 251c 386300A8 		la 3,.LC16@l(3)
 6129 2520 48000001 		bl gettext
 6130              	.LVL586:
 6131 2524 7C651B78 		mr 5,3
 6132 2528 4BFFEB44 		b .L613
 6133              	.LVL587:
 6134              	.L625:
 6135              		.loc 5 159 0
 6136 252c 3C600000 		lis 3,.LC24@ha
 6137 2530 3863013C 		la 3,.LC24@l(3)
 6138 2534 48000001 		bl gettext
 6139              	.LVL588:
 6140 2538 7C651B78 		mr 5,3
 6141 253c 4BFFEB30 		b .L613
 6142              	.LVL589:
 6143              	.L624:
 6144              		.loc 5 157 0
 6145 2540 3C600000 		lis 3,.LC23@ha
 6146 2544 3863012C 		la 3,.LC23@l(3)
 6147 2548 48000001 		bl gettext
 6148              	.LVL590:
 6149 254c 7C651B78 		mr 5,3
 6150 2550 4BFFEB1C 		b .L613
 6151              	.LVL591:
 6152              	.L614:
 6153              	.LBB1941:
 6154              	.LBB1942:
 6155              		.loc 5 137 0
 6156 2554 3C600000 		lis 3,.LC13@ha
 6157 2558 38630074 		la 3,.LC13@l(3)
 6158 255c 48000001 		bl gettext
 6159              	.LVL592:
 6160 2560 7C651B78 		mr 5,3
 6161 2564 4BFFEB08 		b .L613
 6162              	.LVL593:
 6163              	.L620:
 6164              	.LBE1942:
 6165              	.LBE1941:
 6166              		.loc 5 149 0
 6167 2568 3C600000 		lis 3,.LC19@ha
 6168 256c 386300DC 		la 3,.LC19@l(3)
 6169 2570 48000001 		bl gettext
 6170              	.LVL594:
 6171 2574 7C651B78 		mr 5,3
 6172 2578 4BFFEAF4 		b .L613
 6173              	.LVL595:
 6174              	.L622:
 6175              		.loc 5 153 0
 6176 257c 3C600000 		lis 3,.LC21@ha
 6177 2580 38630104 		la 3,.LC21@l(3)
 6178 2584 48000001 		bl gettext
 6179              	.LVL596:
 6180 2588 7C651B78 		mr 5,3
 6181 258c 4BFFEAE0 		b .L613
 6182              	.LVL597:
 6183              	.L619:
 6184              		.loc 5 147 0
 6185 2590 3C600000 		lis 3,.LC18@ha
 6186 2594 386300C8 		la 3,.LC18@l(3)
 6187 2598 48000001 		bl gettext
 6188              	.LVL598:
 6189 259c 7C651B78 		mr 5,3
 6190 25a0 4BFFEACC 		b .L613
 6191              	.LVL599:
 6192              	.L616:
 6193              		.loc 5 141 0
 6194 25a4 3C600000 		lis 3,.LC15@ha
 6195 25a8 38630098 		la 3,.LC15@l(3)
 6196 25ac 48000001 		bl gettext
 6197              	.LVL600:
 6198 25b0 7C651B78 		mr 5,3
 6199 25b4 4BFFEAB8 		b .L613
 6200              	.LVL601:
 6201              	.L670:
 6202              	.LBE1948:
 6203              	.LBE2089:
 6204              	.LBB2090:
 6205              	.LBB1981:
 6206 25b8 3C600000 		lis 3,.LC15@ha
 6207 25bc 38630098 		la 3,.LC15@l(3)
 6208 25c0 48000001 		bl gettext
 6209              	.LVL602:
 6210 25c4 7C651B78 		mr 5,3
 6211 25c8 4BFFEB9C 		b .L667
 6212              	.LVL603:
 6213              	.L679:
 6214              		.loc 5 159 0
 6215 25cc 3C600000 		lis 3,.LC24@ha
 6216 25d0 3863013C 		la 3,.LC24@l(3)
 6217 25d4 48000001 		bl gettext
 6218              	.LVL604:
 6219 25d8 7C651B78 		mr 5,3
 6220 25dc 4BFFEB88 		b .L667
 6221              	.LVL605:
 6222              	.L678:
 6223              		.loc 5 157 0
 6224 25e0 3C600000 		lis 3,.LC23@ha
 6225 25e4 3863012C 		la 3,.LC23@l(3)
 6226 25e8 48000001 		bl gettext
 6227              	.LVL606:
 6228 25ec 7C651B78 		mr 5,3
 6229 25f0 4BFFEB74 		b .L667
 6230              	.LVL607:
 6231              	.L676:
 6232              		.loc 5 153 0
 6233 25f4 3C600000 		lis 3,.LC21@ha
 6234 25f8 38630104 		la 3,.LC21@l(3)
 6235 25fc 48000001 		bl gettext
 6236              	.LVL608:
 6237 2600 7C651B78 		mr 5,3
 6238 2604 4BFFEB60 		b .L667
 6239              	.LVL609:
 6240              	.L671:
 6241              		.loc 5 143 0
 6242 2608 3C600000 		lis 3,.LC16@ha
 6243 260c 386300A8 		la 3,.LC16@l(3)
 6244 2610 48000001 		bl gettext
 6245              	.LVL610:
 6246 2614 7C651B78 		mr 5,3
 6247 2618 4BFFEB4C 		b .L667
 6248              	.LVL611:
 6249              	.L668:
 6250              	.LBB1974:
 6251              	.LBB1975:
 6252              		.loc 5 137 0
 6253 261c 3C600000 		lis 3,.LC13@ha
 6254 2620 38630074 		la 3,.LC13@l(3)
 6255 2624 48000001 		bl gettext
 6256              	.LVL612:
 6257 2628 7C651B78 		mr 5,3
 6258 262c 4BFFEB38 		b .L667
 6259              	.LVL613:
 6260              	.L673:
 6261              	.LBE1975:
 6262              	.LBE1974:
 6263              		.loc 5 147 0
 6264 2630 3C600000 		lis 3,.LC18@ha
 6265 2634 386300C8 		la 3,.LC18@l(3)
 6266 2638 48000001 		bl gettext
 6267              	.LVL614:
 6268 263c 7C651B78 		mr 5,3
 6269 2640 4BFFEB24 		b .L667
 6270              	.LVL615:
 6271              	.L674:
 6272              		.loc 5 149 0
 6273 2644 3C600000 		lis 3,.LC19@ha
 6274 2648 386300DC 		la 3,.LC19@l(3)
 6275 264c 48000001 		bl gettext
 6276              	.LVL616:
 6277 2650 7C651B78 		mr 5,3
 6278 2654 4BFFEB10 		b .L667
 6279              	.LVL617:
 6280              	.L332:
 6281              	.LBE1981:
 6282              	.LBE2090:
 6283              	.LBB2091:
 6284              	.LBB1752:
 6285              		.loc 5 221 0
 6286 2658 3C600000 		lis 3,.LC46@ha
 6287 265c 38630358 		la 3,.LC46@l(3)
 6288 2660 48000001 		bl gettext
 6289              	.LVL618:
 6290 2664 7C651B78 		mr 5,3
 6291 2668 4BFFE4DC 		b .L326
 6292              	.LVL619:
 6293              	.L331:
 6294              		.loc 5 219 0
 6295 266c 3C600000 		lis 3,.LC45@ha
 6296 2670 38630344 		la 3,.LC45@l(3)
 6297 2674 48000001 		bl gettext
 6298              	.LVL620:
 6299 2678 7C651B78 		mr 5,3
 6300 267c 4BFFE4C8 		b .L326
 6301              	.LVL621:
 6302              	.L339:
 6303              		.loc 5 235 0
 6304 2680 3C600000 		lis 3,.LC53@ha
 6305 2684 386303D4 		la 3,.LC53@l(3)
 6306 2688 48000001 		bl gettext
 6307              	.LVL622:
 6308 268c 7C651B78 		mr 5,3
 6309 2690 4BFFE4B4 		b .L326
 6310              	.LVL623:
 6311              	.L338:
 6312              		.loc 5 233 0
 6313 2694 3C600000 		lis 3,.LC52@ha
 6314 2698 386303C4 		la 3,.LC52@l(3)
 6315 269c 48000001 		bl gettext
 6316              	.LVL624:
 6317 26a0 7C651B78 		mr 5,3
 6318 26a4 4BFFE4A0 		b .L326
 6319              	.LVL625:
 6320              	.L336:
 6321              		.loc 5 229 0
 6322 26a8 3C600000 		lis 3,.LC50@ha
 6323 26ac 386303A4 		la 3,.LC50@l(3)
 6324 26b0 48000001 		bl gettext
 6325              	.LVL626:
 6326 26b4 7C651B78 		mr 5,3
 6327 26b8 4BFFE48C 		b .L326
 6328              	.LVL627:
 6329              	.L334:
 6330              		.loc 5 225 0
 6331 26bc 3C600000 		lis 3,.LC48@ha
 6332 26c0 38630380 		la 3,.LC48@l(3)
 6333 26c4 48000001 		bl gettext
 6334              	.LVL628:
 6335 26c8 7C651B78 		mr 5,3
 6336 26cc 4BFFE478 		b .L326
 6337              	.LVL629:
 6338              	.L327:
 6339              	.LBB1746:
 6340              	.LBB1747:
 6341              		.loc 5 211 0
 6342 26d0 3C600000 		lis 3,.LC41@ha
 6343 26d4 386302F4 		la 3,.LC41@l(3)
 6344 26d8 48000001 		bl gettext
 6345              	.LVL630:
 6346 26dc 7C651B78 		mr 5,3
 6347 26e0 4BFFE464 		b .L326
 6348              	.LVL631:
 6349              	.L329:
 6350              	.LBE1747:
 6351              	.LBE1746:
 6352              		.loc 5 215 0
 6353 26e4 3C600000 		lis 3,.LC43@ha
 6354 26e8 3863031C 		la 3,.LC43@l(3)
 6355 26ec 48000001 		bl gettext
 6356              	.LVL632:
 6357 26f0 7C651B78 		mr 5,3
 6358 26f4 4BFFE450 		b .L326
 6359              	.LVL633:
 6360              	.L333:
 6361              		.loc 5 223 0
 6362 26f8 3C600000 		lis 3,.LC47@ha
 6363 26fc 3863036C 		la 3,.LC47@l(3)
 6364 2700 48000001 		bl gettext
 6365              	.LVL634:
 6366 2704 7C651B78 		mr 5,3
 6367 2708 4BFFE43C 		b .L326
 6368              	.LVL635:
 6369              	.L386:
 6370              	.LBE1752:
 6371              	.LBE2091:
 6372              	.LBB2092:
 6373              	.LBB1788:
 6374              		.loc 5 221 0
 6375 270c 3C600000 		lis 3,.LC46@ha
 6376 2710 38630358 		la 3,.LC46@l(3)
 6377 2714 48000001 		bl gettext
 6378              	.LVL636:
 6379 2718 7C651B78 		mr 5,3
 6380 271c 4BFFE520 		b .L380
 6381              	.LVL637:
 6382              	.L388:
 6383              		.loc 5 225 0
 6384 2720 3C600000 		lis 3,.LC48@ha
 6385 2724 38630380 		la 3,.LC48@l(3)
 6386 2728 48000001 		bl gettext
 6387              	.LVL638:
 6388 272c 7C651B78 		mr 5,3
 6389 2730 4BFFE50C 		b .L380
 6390              	.LVL639:
 6391              	.L390:
 6392              		.loc 5 229 0
 6393 2734 3C600000 		lis 3,.LC50@ha
 6394 2738 386303A4 		la 3,.LC50@l(3)
 6395 273c 48000001 		bl gettext
 6396              	.LVL640:
 6397 2740 7C651B78 		mr 5,3
 6398 2744 4BFFE4F8 		b .L380
 6399              	.LVL641:
 6400              	.L387:
 6401              		.loc 5 223 0
 6402 2748 3C600000 		lis 3,.LC47@ha
 6403 274c 3863036C 		la 3,.LC47@l(3)
 6404 2750 48000001 		bl gettext
 6405              	.LVL642:
 6406 2754 7C651B78 		mr 5,3
 6407 2758 4BFFE4E4 		b .L380
 6408              	.LVL643:
 6409              	.L393:
 6410              		.loc 5 235 0
 6411 275c 3C600000 		lis 3,.LC53@ha
 6412 2760 386303D4 		la 3,.LC53@l(3)
 6413 2764 48000001 		bl gettext
 6414              	.LVL644:
 6415 2768 7C651B78 		mr 5,3
 6416 276c 4BFFE4D0 		b .L380
 6417              	.LVL645:
 6418              	.L392:
 6419              		.loc 5 233 0
 6420 2770 3C600000 		lis 3,.LC52@ha
 6421 2774 386303C4 		la 3,.LC52@l(3)
 6422 2778 48000001 		bl gettext
 6423              	.LVL646:
 6424 277c 7C651B78 		mr 5,3
 6425 2780 4BFFE4BC 		b .L380
 6426              	.LVL647:
 6427              	.L385:
 6428              		.loc 5 219 0
 6429 2784 3C600000 		lis 3,.LC45@ha
 6430 2788 38630344 		la 3,.LC45@l(3)
 6431 278c 48000001 		bl gettext
 6432              	.LVL648:
 6433 2790 7C651B78 		mr 5,3
 6434 2794 4BFFE4A8 		b .L380
 6435              	.LVL649:
 6436              	.L383:
 6437              		.loc 5 215 0
 6438 2798 3C600000 		lis 3,.LC43@ha
 6439 279c 3863031C 		la 3,.LC43@l(3)
 6440 27a0 48000001 		bl gettext
 6441              	.LVL650:
 6442 27a4 7C651B78 		mr 5,3
 6443 27a8 4BFFE494 		b .L380
 6444              	.LVL651:
 6445              	.L381:
 6446              	.LBB1782:
 6447              	.LBB1783:
 6448              		.loc 5 211 0
 6449 27ac 3C600000 		lis 3,.LC41@ha
 6450 27b0 386302F4 		la 3,.LC41@l(3)
 6451 27b4 48000001 		bl gettext
 6452              	.LVL652:
 6453 27b8 7C651B78 		mr 5,3
 6454 27bc 4BFFE480 		b .L380
 6455              	.LVL653:
 6456              	.L439:
 6457              	.LBE1783:
 6458              	.LBE1782:
 6459              	.LBE1788:
 6460              	.LBE2092:
 6461              	.LBB2093:
 6462              	.LBB1823:
 6463              		.loc 5 219 0
 6464 27c0 3C600000 		lis 3,.LC45@ha
 6465 27c4 38630344 		la 3,.LC45@l(3)
 6466 27c8 48000001 		bl gettext
 6467              	.LVL654:
 6468 27cc 7C651B78 		mr 5,3
 6469 27d0 4BFFE564 		b .L434
 6470              	.LVL655:
 6471              	.L440:
 6472              		.loc 5 221 0
 6473 27d4 3C600000 		lis 3,.LC46@ha
 6474 27d8 38630358 		la 3,.LC46@l(3)
 6475 27dc 48000001 		bl gettext
 6476              	.LVL656:
 6477 27e0 7C651B78 		mr 5,3
 6478 27e4 4BFFE550 		b .L434
 6479              	.LVL657:
 6480              	.L441:
 6481              		.loc 5 223 0
 6482 27e8 3C600000 		lis 3,.LC47@ha
 6483 27ec 3863036C 		la 3,.LC47@l(3)
 6484 27f0 48000001 		bl gettext
 6485              	.LVL658:
 6486 27f4 7C651B78 		mr 5,3
 6487 27f8 4BFFE53C 		b .L434
 6488              	.LVL659:
 6489              	.L447:
 6490              		.loc 5 235 0
 6491 27fc 3C600000 		lis 3,.LC53@ha
 6492 2800 386303D4 		la 3,.LC53@l(3)
 6493 2804 48000001 		bl gettext
 6494              	.LVL660:
 6495 2808 7C651B78 		mr 5,3
 6496 280c 4BFFE528 		b .L434
 6497              	.LVL661:
 6498              	.L446:
 6499              		.loc 5 233 0
 6500 2810 3C600000 		lis 3,.LC52@ha
 6501 2814 386303C4 		la 3,.LC52@l(3)
 6502 2818 48000001 		bl gettext
 6503              	.LVL662:
 6504 281c 7C651B78 		mr 5,3
 6505 2820 4BFFE514 		b .L434
 6506              	.LVL663:
 6507              	.L437:
 6508              		.loc 5 215 0
 6509 2824 3C600000 		lis 3,.LC43@ha
 6510 2828 3863031C 		la 3,.LC43@l(3)
 6511 282c 48000001 		bl gettext
 6512              	.LVL664:
 6513 2830 7C651B78 		mr 5,3
 6514 2834 4BFFE500 		b .L434
 6515              	.LVL665:
 6516              	.L435:
 6517              	.LBB1816:
 6518              	.LBB1817:
 6519              		.loc 5 211 0
 6520 2838 3C600000 		lis 3,.LC41@ha
 6521 283c 386302F4 		la 3,.LC41@l(3)
 6522 2840 48000001 		bl gettext
 6523              	.LVL666:
 6524 2844 7C651B78 		mr 5,3
 6525 2848 4BFFE4EC 		b .L434
 6526              	.LVL667:
 6527              	.L444:
 6528              	.LBE1817:
 6529              	.LBE1816:
 6530              		.loc 5 229 0
 6531 284c 3C600000 		lis 3,.LC50@ha
 6532 2850 386303A4 		la 3,.LC50@l(3)
 6533 2854 48000001 		bl gettext
 6534              	.LVL668:
 6535 2858 7C651B78 		mr 5,3
 6536 285c 4BFFE4D8 		b .L434
 6537              	.LVL669:
 6538              	.L442:
 6539              		.loc 5 225 0
 6540 2860 3C600000 		lis 3,.LC48@ha
 6541 2864 38630380 		la 3,.LC48@l(3)
 6542 2868 48000001 		bl gettext
 6543              	.LVL670:
 6544 286c 7C651B78 		mr 5,3
 6545 2870 4BFFE4C4 		b .L434
 6546              	.LVL671:
 6547              	.L489:
 6548              	.LBE1823:
 6549              	.LBE2093:
 6550              	.LBB2094:
 6551              	.LBB1858:
 6552              	.LBB1852:
 6553              	.LBB1853:
 6554              		.loc 5 211 0
 6555 2874 3C600000 		lis 3,.LC41@ha
 6556 2878 386302F4 		la 3,.LC41@l(3)
 6557 287c 48000001 		bl gettext
 6558              	.LVL672:
 6559 2880 7C651B78 		mr 5,3
 6560 2884 4BFFE5A8 		b .L488
 6561              	.LVL673:
 6562              	.L494:
 6563              	.LBE1853:
 6564              	.LBE1852:
 6565              		.loc 5 221 0
 6566 2888 3C600000 		lis 3,.LC46@ha
 6567 288c 38630358 		la 3,.LC46@l(3)
 6568 2890 48000001 		bl gettext
 6569              	.LVL674:
 6570 2894 7C651B78 		mr 5,3
 6571 2898 4BFFE594 		b .L488
 6572              	.LVL675:
 6573              	.L496:
 6574              		.loc 5 225 0
 6575 289c 3C600000 		lis 3,.LC48@ha
 6576 28a0 38630380 		la 3,.LC48@l(3)
 6577 28a4 48000001 		bl gettext
 6578              	.LVL676:
 6579 28a8 7C651B78 		mr 5,3
 6580 28ac 4BFFE580 		b .L488
 6581              	.LVL677:
 6582              	.L498:
 6583              		.loc 5 229 0
 6584 28b0 3C600000 		lis 3,.LC50@ha
 6585 28b4 386303A4 		la 3,.LC50@l(3)
 6586 28b8 48000001 		bl gettext
 6587              	.LVL678:
 6588 28bc 7C651B78 		mr 5,3
 6589 28c0 4BFFE56C 		b .L488
 6590              	.LVL679:
 6591              	.L495:
 6592              		.loc 5 223 0
 6593 28c4 3C600000 		lis 3,.LC47@ha
 6594 28c8 3863036C 		la 3,.LC47@l(3)
 6595 28cc 48000001 		bl gettext
 6596              	.LVL680:
 6597 28d0 7C651B78 		mr 5,3
 6598 28d4 4BFFE558 		b .L488
 6599              	.LVL681:
 6600              	.L501:
 6601              		.loc 5 235 0
 6602 28d8 3C600000 		lis 3,.LC53@ha
 6603 28dc 386303D4 		la 3,.LC53@l(3)
 6604 28e0 48000001 		bl gettext
 6605              	.LVL682:
 6606 28e4 7C651B78 		mr 5,3
 6607 28e8 4BFFE544 		b .L488
 6608              	.LVL683:
 6609              	.L500:
 6610              		.loc 5 233 0
 6611 28ec 3C600000 		lis 3,.LC52@ha
 6612 28f0 386303C4 		la 3,.LC52@l(3)
 6613 28f4 48000001 		bl gettext
 6614              	.LVL684:
 6615 28f8 7C651B78 		mr 5,3
 6616 28fc 4BFFE530 		b .L488
 6617              	.LVL685:
 6618              	.L493:
 6619              		.loc 5 219 0
 6620 2900 3C600000 		lis 3,.LC45@ha
 6621 2904 38630344 		la 3,.LC45@l(3)
 6622 2908 48000001 		bl gettext
 6623              	.LVL686:
 6624 290c 7C651B78 		mr 5,3
 6625 2910 4BFFE51C 		b .L488
 6626              	.LVL687:
 6627              	.L491:
 6628              		.loc 5 215 0
 6629 2914 3C600000 		lis 3,.LC43@ha
 6630 2918 3863031C 		la 3,.LC43@l(3)
 6631 291c 48000001 		bl gettext
 6632              	.LVL688:
 6633 2920 7C651B78 		mr 5,3
 6634 2924 4BFFE508 		b .L488
 6635              	.LVL689:
 6636              	.L555:
 6637              	.LBE1858:
 6638              	.LBE2094:
 6639              	.LBB2095:
 6640              	.LBB1895:
 6641              		.loc 5 235 0
 6642 2928 3C600000 		lis 3,.LC53@ha
 6643 292c 386303D4 		la 3,.LC53@l(3)
 6644 2930 48000001 		bl gettext
 6645              	.LVL690:
 6646 2934 7C651B78 		mr 5,3
 6647 2938 4BFFE5EC 		b .L542
 6648              	.LVL691:
 6649              	.L550:
 6650              		.loc 5 225 0
 6651 293c 3C600000 		lis 3,.LC48@ha
 6652 2940 38630380 		la 3,.LC48@l(3)
 6653 2944 48000001 		bl gettext
 6654              	.LVL692:
 6655 2948 7C651B78 		mr 5,3
 6656 294c 4BFFE5D8 		b .L542
 6657              	.LVL693:
 6658              	.L602:
 6659              	.LBE1895:
 6660              	.LBE2095:
 6661              	.LBB2096:
 6662              	.LBB1935:
 6663              		.loc 5 221 0
 6664 2950 3C600000 		lis 3,.LC46@ha
 6665 2954 38630358 		la 3,.LC46@l(3)
 6666 2958 48000001 		bl gettext
 6667              	.LVL694:
 6668 295c 7C651B78 		mr 5,3
 6669 2960 4BFFE6BC 		b .L596
 6670              	.LVL695:
 6671              	.L604:
 6672              		.loc 5 225 0
 6673 2964 3C600000 		lis 3,.LC48@ha
 6674 2968 38630380 		la 3,.LC48@l(3)
 6675 296c 48000001 		bl gettext
 6676              	.LVL696:
 6677 2970 7C651B78 		mr 5,3
 6678 2974 4BFFE6A8 		b .L596
 6679              	.LVL697:
 6680              	.L606:
 6681              		.loc 5 229 0
 6682 2978 3C600000 		lis 3,.LC50@ha
 6683 297c 386303A4 		la 3,.LC50@l(3)
 6684 2980 48000001 		bl gettext
 6685              	.LVL698:
 6686 2984 7C651B78 		mr 5,3
 6687 2988 4BFFE694 		b .L596
 6688              	.LVL699:
 6689              	.L603:
 6690              		.loc 5 223 0
 6691 298c 3C600000 		lis 3,.LC47@ha
 6692 2990 3863036C 		la 3,.LC47@l(3)
 6693 2994 48000001 		bl gettext
 6694              	.LVL700:
 6695 2998 7C651B78 		mr 5,3
 6696 299c 4BFFE680 		b .L596
 6697              	.LVL701:
 6698              	.L545:
 6699              	.LBE1935:
 6700              	.LBE2096:
 6701              	.LBB2097:
 6702              	.LBB1896:
 6703              		.loc 5 215 0
 6704 29a0 3C600000 		lis 3,.LC43@ha
 6705 29a4 3863031C 		la 3,.LC43@l(3)
 6706 29a8 48000001 		bl gettext
 6707              	.LVL702:
 6708 29ac 7C651B78 		mr 5,3
 6709 29b0 4BFFE574 		b .L542
 6710              	.LVL703:
 6711              	.L549:
 6712              		.loc 5 223 0
 6713 29b4 3C600000 		lis 3,.LC47@ha
 6714 29b8 3863036C 		la 3,.LC47@l(3)
 6715 29bc 48000001 		bl gettext
 6716              	.LVL704:
 6717 29c0 7C651B78 		mr 5,3
 6718 29c4 4BFFE560 		b .L542
 6719              	.LVL705:
 6720              	.L597:
 6721              	.LBE1896:
 6722              	.LBE2097:
 6723              	.LBB2098:
 6724              	.LBB1936:
 6725              	.LBB1929:
 6726              	.LBB1930:
 6727              		.loc 5 211 0
 6728 29c8 3C600000 		lis 3,.LC41@ha
 6729 29cc 386302F4 		la 3,.LC41@l(3)
 6730 29d0 48000001 		bl gettext
 6731              	.LVL706:
 6732 29d4 7C651B78 		mr 5,3
 6733 29d8 4BFFE644 		b .L596
 6734              	.LVL707:
 6735              	.L601:
 6736              	.LBE1930:
 6737              	.LBE1929:
 6738              		.loc 5 219 0
 6739 29dc 3C600000 		lis 3,.LC45@ha
 6740 29e0 38630344 		la 3,.LC45@l(3)
 6741 29e4 48000001 		bl gettext
 6742              	.LVL708:
 6743 29e8 7C651B78 		mr 5,3
 6744 29ec 4BFFE630 		b .L596
 6745              	.LVL709:
 6746              	.L599:
 6747              		.loc 5 215 0
 6748 29f0 3C600000 		lis 3,.LC43@ha
 6749 29f4 3863031C 		la 3,.LC43@l(3)
 6750 29f8 48000001 		bl gettext
 6751              	.LVL710:
 6752 29fc 7C651B78 		mr 5,3
 6753 2a00 4BFFE61C 		b .L596
 6754              	.LVL711:
 6755              	.L554:
 6756              	.LBE1936:
 6757              	.LBE2098:
 6758              	.LBB2099:
 6759              	.LBB1897:
 6760              		.loc 5 233 0
 6761 2a04 3C600000 		lis 3,.LC52@ha
 6762 2a08 386303C4 		la 3,.LC52@l(3)
 6763 2a0c 48000001 		bl gettext
 6764              	.LVL712:
 6765 2a10 7C651B78 		mr 5,3
 6766 2a14 4BFFE510 		b .L542
 6767              	.LVL713:
 6768              	.L552:
 6769              		.loc 5 229 0
 6770 2a18 3C600000 		lis 3,.LC50@ha
 6771 2a1c 386303A4 		la 3,.LC50@l(3)
 6772 2a20 48000001 		bl gettext
 6773              	.LVL714:
 6774 2a24 7C651B78 		mr 5,3
 6775 2a28 4BFFE4FC 		b .L542
 6776              	.LVL715:
 6777              	.L609:
 6778              	.LBE1897:
 6779              	.LBE2099:
 6780              	.LBB2100:
 6781              	.LBB1937:
 6782              		.loc 5 235 0
 6783 2a2c 3C600000 		lis 3,.LC53@ha
 6784 2a30 386303D4 		la 3,.LC53@l(3)
 6785 2a34 48000001 		bl gettext
 6786              	.LVL716:
 6787 2a38 7C651B78 		mr 5,3
 6788 2a3c 4BFFE5E0 		b .L596
 6789              	.LVL717:
 6790              	.L608:
 6791              		.loc 5 233 0
 6792 2a40 3C600000 		lis 3,.LC52@ha
 6793 2a44 386303C4 		la 3,.LC52@l(3)
 6794 2a48 48000001 		bl gettext
 6795              	.LVL718:
 6796 2a4c 7C651B78 		mr 5,3
 6797 2a50 4BFFE5CC 		b .L596
 6798              	.LVL719:
 6799              	.L548:
 6800              	.LBE1937:
 6801              	.LBE2100:
 6802              	.LBB2101:
 6803              	.LBB1898:
 6804              		.loc 5 221 0
 6805 2a54 3C600000 		lis 3,.LC46@ha
 6806 2a58 38630358 		la 3,.LC46@l(3)
 6807 2a5c 48000001 		bl gettext
 6808              	.LVL720:
 6809 2a60 7C651B78 		mr 5,3
 6810 2a64 4BFFE4C0 		b .L542
 6811              	.LVL721:
 6812              	.L547:
 6813              		.loc 5 219 0
 6814 2a68 3C600000 		lis 3,.LC45@ha
 6815 2a6c 38630344 		la 3,.LC45@l(3)
 6816 2a70 48000001 		bl gettext
 6817              	.LVL722:
 6818 2a74 7C651B78 		mr 5,3
 6819 2a78 4BFFE4AC 		b .L542
 6820              	.LVL723:
 6821              	.L543:
 6822              	.LBB1888:
 6823              	.LBB1889:
 6824              		.loc 5 211 0
 6825 2a7c 3C600000 		lis 3,.LC41@ha
 6826 2a80 386302F4 		la 3,.LC41@l(3)
 6827 2a84 48000001 		bl gettext
 6828              	.LVL724:
 6829 2a88 7C651B78 		mr 5,3
 6830 2a8c 4BFFE498 		b .L542
 6831              	.LVL725:
 6832              	.L658:
 6833              	.LBE1889:
 6834              	.LBE1888:
 6835              	.LBE1898:
 6836              	.LBE2101:
 6837              	.LBB2102:
 6838              	.LBB1970:
 6839              		.loc 5 225 0
 6840 2a90 3C600000 		lis 3,.LC48@ha
 6841 2a94 38630380 		la 3,.LC48@l(3)
 6842 2a98 48000001 		bl gettext
 6843              	.LVL726:
 6844 2a9c 7C651B78 		mr 5,3
 6845 2aa0 4BFFE674 		b .L650
 6846              	.LVL727:
 6847              	.L653:
 6848              		.loc 5 215 0
 6849 2aa4 3C600000 		lis 3,.LC43@ha
 6850 2aa8 3863031C 		la 3,.LC43@l(3)
 6851 2aac 48000001 		bl gettext
 6852              	.LVL728:
 6853 2ab0 7C651B78 		mr 5,3
 6854 2ab4 4BFFE660 		b .L650
 6855              	.LVL729:
 6856              	.L657:
 6857              		.loc 5 223 0
 6858 2ab8 3C600000 		lis 3,.LC47@ha
 6859 2abc 3863036C 		la 3,.LC47@l(3)
 6860 2ac0 48000001 		bl gettext
 6861              	.LVL730:
 6862 2ac4 7C651B78 		mr 5,3
 6863 2ac8 4BFFE64C 		b .L650
 6864              	.LVL731:
 6865              	.L651:
 6866              	.LBB1963:
 6867              	.LBB1964:
 6868              		.loc 5 211 0
 6869 2acc 3C600000 		lis 3,.LC41@ha
 6870 2ad0 386302F4 		la 3,.LC41@l(3)
 6871 2ad4 48000001 		bl gettext
 6872              	.LVL732:
 6873 2ad8 7C651B78 		mr 5,3
 6874 2adc 4BFFE638 		b .L650
 6875              	.LVL733:
 6876              	.L663:
 6877              	.LBE1964:
 6878              	.LBE1963:
 6879              		.loc 5 235 0
 6880 2ae0 3C600000 		lis 3,.LC53@ha
 6881 2ae4 386303D4 		la 3,.LC53@l(3)
 6882 2ae8 48000001 		bl gettext
 6883              	.LVL734:
 6884 2aec 7C651B78 		mr 5,3
 6885 2af0 4BFFE624 		b .L650
 6886              	.LVL735:
 6887              	.L662:
 6888              		.loc 5 233 0
 6889 2af4 3C600000 		lis 3,.LC52@ha
 6890 2af8 386303C4 		la 3,.LC52@l(3)
 6891 2afc 48000001 		bl gettext
 6892              	.LVL736:
 6893 2b00 7C651B78 		mr 5,3
 6894 2b04 4BFFE610 		b .L650
 6895              	.LVL737:
 6896              	.L660:
 6897              		.loc 5 229 0
 6898 2b08 3C600000 		lis 3,.LC50@ha
 6899 2b0c 386303A4 		la 3,.LC50@l(3)
 6900 2b10 48000001 		bl gettext
 6901              	.LVL738:
 6902 2b14 7C651B78 		mr 5,3
 6903 2b18 4BFFE5FC 		b .L650
 6904              	.LVL739:
 6905              	.L656:
 6906              		.loc 5 221 0
 6907 2b1c 3C600000 		lis 3,.LC46@ha
 6908 2b20 38630358 		la 3,.LC46@l(3)
 6909 2b24 48000001 		bl gettext
 6910              	.LVL740:
 6911 2b28 7C651B78 		mr 5,3
 6912 2b2c 4BFFE5E8 		b .L650
 6913              	.LVL741:
 6914              	.L655:
 6915              		.loc 5 219 0
 6916 2b30 3C600000 		lis 3,.LC45@ha
 6917 2b34 38630344 		la 3,.LC45@l(3)
 6918 2b38 48000001 		bl gettext
 6919              	.LVL742:
 6920 2b3c 7C651B78 		mr 5,3
 6921 2b40 4BFFE5D4 		b .L650
 6922              	.LVL743:
 6923              	.L707:
 6924              	.LBE1970:
 6925              	.LBE2102:
 6926              	.LBB2103:
 6927              	.LBB2003:
 6928              		.loc 5 215 0
 6929 2b44 3C600000 		lis 3,.LC43@ha
 6930 2b48 3863031C 		la 3,.LC43@l(3)
 6931 2b4c 48000001 		bl gettext
 6932              	.LVL744:
 6933 2b50 7C651B78 		mr 5,3
 6934 2b54 4BFFE6B8 		b .L704
 6935              	.LVL745:
 6936              	.L717:
 6937              		.loc 5 235 0
 6938 2b58 3C600000 		lis 3,.LC53@ha
 6939 2b5c 386303D4 		la 3,.LC53@l(3)
 6940 2b60 48000001 		bl gettext
 6941              	.LVL746:
 6942 2b64 7C651B78 		mr 5,3
 6943 2b68 4BFFE6A4 		b .L704
 6944              	.LVL747:
 6945              	.L716:
 6946              		.loc 5 233 0
 6947 2b6c 3C600000 		lis 3,.LC52@ha
 6948 2b70 386303C4 		la 3,.LC52@l(3)
 6949 2b74 48000001 		bl gettext
 6950              	.LVL748:
 6951 2b78 7C651B78 		mr 5,3
 6952 2b7c 4BFFE690 		b .L704
 6953              	.LVL749:
 6954              	.L712:
 6955              		.loc 5 225 0
 6956 2b80 3C600000 		lis 3,.LC48@ha
 6957 2b84 38630380 		la 3,.LC48@l(3)
 6958 2b88 48000001 		bl gettext
 6959              	.LVL750:
 6960 2b8c 7C651B78 		mr 5,3
 6961 2b90 4BFFE67C 		b .L704
 6962              	.LVL751:
 6963              	.L710:
 6964              		.loc 5 221 0
 6965 2b94 3C600000 		lis 3,.LC46@ha
 6966 2b98 38630358 		la 3,.LC46@l(3)
 6967 2b9c 48000001 		bl gettext
 6968              	.LVL752:
 6969 2ba0 7C651B78 		mr 5,3
 6970 2ba4 4BFFE668 		b .L704
 6971              	.LVL753:
 6972              	.L709:
 6973              		.loc 5 219 0
 6974 2ba8 3C600000 		lis 3,.LC45@ha
 6975 2bac 38630344 		la 3,.LC45@l(3)
 6976 2bb0 48000001 		bl gettext
 6977              	.LVL754:
 6978 2bb4 7C651B78 		mr 5,3
 6979 2bb8 4BFFE654 		b .L704
 6980              	.LVL755:
 6981              	.L705:
 6982              	.LBB1997:
 6983              	.LBB1998:
 6984              		.loc 5 211 0
 6985 2bbc 3C600000 		lis 3,.LC41@ha
 6986 2bc0 386302F4 		la 3,.LC41@l(3)
 6987 2bc4 48000001 		bl gettext
 6988              	.LVL756:
 6989 2bc8 7C651B78 		mr 5,3
 6990 2bcc 4BFFE640 		b .L704
 6991              	.LVL757:
 6992              	.L714:
 6993              	.LBE1998:
 6994              	.LBE1997:
 6995              		.loc 5 229 0
 6996 2bd0 3C600000 		lis 3,.LC50@ha
 6997 2bd4 386303A4 		la 3,.LC50@l(3)
 6998 2bd8 48000001 		bl gettext
 6999              	.LVL758:
 7000 2bdc 7C651B78 		mr 5,3
 7001 2be0 4BFFE62C 		b .L704
 7002              	.LVL759:
 7003              	.L711:
 7004              		.loc 5 223 0
 7005 2be4 3C600000 		lis 3,.LC47@ha
 7006 2be8 3863036C 		la 3,.LC47@l(3)
 7007 2bec 48000001 		bl gettext
 7008              	.LVL760:
 7009 2bf0 7C651B78 		mr 5,3
 7010 2bf4 4BFFE618 		b .L704
 7011              	.LVL761:
 7012              	.L315:
 7013              	.LBE2003:
 7014              	.LBE2103:
 7015              	.LBB2104:
 7016              	.LBB1740:
 7017              		.loc 5 188 0
 7018 2bf8 3C600000 		lis 3,.LC34@ha
 7019 2bfc 38630230 		la 3,.LC34@l(3)
 7020 2c00 48000001 		bl gettext
 7021              	.LVL762:
 7022 2c04 7C651B78 		mr 5,3
 7023 2c08 4BFFDEEC 		b .L305
 7024              	.LVL763:
 7025              	.L307:
 7026              		.loc 5 172 0
 7027 2c0c 3C600000 		lis 3,.LC26@ha
 7028 2c10 3863016C 		la 3,.LC26@l(3)
 7029 2c14 48000001 		bl gettext
 7030              	.LVL764:
 7031 2c18 7C651B78 		mr 5,3
 7032 2c1c 4BFFDED8 		b .L305
 7033              	.LVL765:
 7034              	.L311:
 7035              		.loc 5 180 0
 7036 2c20 3C600000 		lis 3,.LC30@ha
 7037 2c24 386301D0 		la 3,.LC30@l(3)
 7038 2c28 48000001 		bl gettext
 7039              	.LVL766:
 7040 2c2c 7C651B78 		mr 5,3
 7041 2c30 4BFFDEC4 		b .L305
 7042              	.LVL767:
 7043              	.L309:
 7044              		.loc 5 176 0
 7045 2c34 3C600000 		lis 3,.LC28@ha
 7046 2c38 386301A0 		la 3,.LC28@l(3)
 7047 2c3c 48000001 		bl gettext
 7048              	.LVL768:
 7049 2c40 7C651B78 		mr 5,3
 7050 2c44 4BFFDEB0 		b .L305
 7051              	.LVL769:
 7052              	.L317:
 7053              		.loc 5 192 0
 7054 2c48 3C600000 		lis 3,.LC36@ha
 7055 2c4c 38630268 		la 3,.LC36@l(3)
 7056 2c50 48000001 		bl gettext
 7057              	.LVL770:
 7058 2c54 7C651B78 		mr 5,3
 7059 2c58 4BFFDE9C 		b .L305
 7060              	.LVL771:
 7061              	.L313:
 7062              		.loc 5 184 0
 7063 2c5c 3C600000 		lis 3,.LC32@ha
 7064 2c60 38630200 		la 3,.LC32@l(3)
 7065 2c64 48000001 		bl gettext
 7066              	.LVL772:
 7067 2c68 7C651B78 		mr 5,3
 7068 2c6c 4BFFDE88 		b .L305
 7069              	.LVL773:
 7070              	.L312:
 7071              		.loc 5 182 0
 7072 2c70 3C600000 		lis 3,.LC31@ha
 7073 2c74 386301E8 		la 3,.LC31@l(3)
 7074 2c78 48000001 		bl gettext
 7075              	.LVL774:
 7076 2c7c 7C651B78 		mr 5,3
 7077 2c80 4BFFDE74 		b .L305
 7078              	.LVL775:
 7079              	.L316:
 7080              		.loc 5 190 0
 7081 2c84 3C600000 		lis 3,.LC35@ha
 7082 2c88 3863024C 		la 3,.LC35@l(3)
 7083 2c8c 48000001 		bl gettext
 7084              	.LVL776:
 7085 2c90 7C651B78 		mr 5,3
 7086 2c94 4BFFDE60 		b .L305
 7087              	.LVL777:
 7088              	.L319:
 7089              		.loc 5 196 0
 7090 2c98 3C600000 		lis 3,.LC38@ha
 7091 2c9c 386302A0 		la 3,.LC38@l(3)
 7092 2ca0 48000001 		bl gettext
 7093              	.LVL778:
 7094 2ca4 7C651B78 		mr 5,3
 7095 2ca8 4BFFDE4C 		b .L305
 7096              	.LVL779:
 7097              	.L371:
 7098              	.LBE1740:
 7099              	.LBE2104:
 7100              	.LBB2105:
 7101              	.LBB1773:
 7102              		.loc 5 192 0
 7103 2cac 3C600000 		lis 3,.LC36@ha
 7104 2cb0 38630268 		la 3,.LC36@l(3)
 7105 2cb4 48000001 		bl gettext
 7106              	.LVL780:
 7107 2cb8 7C651B78 		mr 5,3
 7108 2cbc 4BFFDF30 		b .L359
 7109              	.LVL781:
 7110              	.L370:
 7111              		.loc 5 190 0
 7112 2cc0 3C600000 		lis 3,.LC35@ha
 7113 2cc4 3863024C 		la 3,.LC35@l(3)
 7114 2cc8 48000001 		bl gettext
 7115              	.LVL782:
 7116 2ccc 7C651B78 		mr 5,3
 7117 2cd0 4BFFDF1C 		b .L359
 7118              	.LVL783:
 7119              	.L369:
 7120              		.loc 5 188 0
 7121 2cd4 3C600000 		lis 3,.LC34@ha
 7122 2cd8 38630230 		la 3,.LC34@l(3)
 7123 2cdc 48000001 		bl gettext
 7124              	.LVL784:
 7125 2ce0 7C651B78 		mr 5,3
 7126 2ce4 4BFFDF08 		b .L359
 7127              	.LVL785:
 7128              	.L417:
 7129              	.LBE1773:
 7130              	.LBE2105:
 7131              	.LBB2106:
 7132              	.LBB1808:
 7133              		.loc 5 176 0
 7134 2ce8 3C600000 		lis 3,.LC28@ha
 7135 2cec 386301A0 		la 3,.LC28@l(3)
 7136 2cf0 48000001 		bl gettext
 7137              	.LVL786:
 7138 2cf4 7C651B78 		mr 5,3
 7139 2cf8 4BFFDFEC 		b .L413
 7140              	.LVL787:
 7141              	.L427:
 7142              		.loc 5 196 0
 7143 2cfc 3C600000 		lis 3,.LC38@ha
 7144 2d00 386302A0 		la 3,.LC38@l(3)
 7145 2d04 48000001 		bl gettext
 7146              	.LVL788:
 7147 2d08 7C651B78 		mr 5,3
 7148 2d0c 4BFFDFD8 		b .L413
 7149              	.LVL789:
 7150              	.L420:
 7151              		.loc 5 182 0
 7152 2d10 3C600000 		lis 3,.LC31@ha
 7153 2d14 386301E8 		la 3,.LC31@l(3)
 7154 2d18 48000001 		bl gettext
 7155              	.LVL790:
 7156 2d1c 7C651B78 		mr 5,3
 7157 2d20 4BFFDFC4 		b .L413
 7158              	.LVL791:
 7159              	.L419:
 7160              		.loc 5 180 0
 7161 2d24 3C600000 		lis 3,.LC30@ha
 7162 2d28 386301D0 		la 3,.LC30@l(3)
 7163 2d2c 48000001 		bl gettext
 7164              	.LVL792:
 7165 2d30 7C651B78 		mr 5,3
 7166 2d34 4BFFDFB0 		b .L413
 7167              	.LVL793:
 7168              	.L373:
 7169              	.LBE1808:
 7170              	.LBE2106:
 7171              	.LBB2107:
 7172              	.LBB1774:
 7173              		.loc 5 196 0
 7174 2d38 3C600000 		lis 3,.LC38@ha
 7175 2d3c 386302A0 		la 3,.LC38@l(3)
 7176 2d40 48000001 		bl gettext
 7177              	.LVL794:
 7178 2d44 7C651B78 		mr 5,3
 7179 2d48 4BFFDEA4 		b .L359
 7180              	.LVL795:
 7181              	.L366:
 7182              		.loc 5 182 0
 7183 2d4c 3C600000 		lis 3,.LC31@ha
 7184 2d50 386301E8 		la 3,.LC31@l(3)
 7185 2d54 48000001 		bl gettext
 7186              	.LVL796:
 7187 2d58 7C651B78 		mr 5,3
 7188 2d5c 4BFFDE90 		b .L359
 7189              	.LVL797:
 7190              	.L365:
 7191              		.loc 5 180 0
 7192 2d60 3C600000 		lis 3,.LC30@ha
 7193 2d64 386301D0 		la 3,.LC30@l(3)
 7194 2d68 48000001 		bl gettext
 7195              	.LVL798:
 7196 2d6c 7C651B78 		mr 5,3
 7197 2d70 4BFFDE7C 		b .L359
 7198              	.LVL799:
 7199              	.L361:
 7200              		.loc 5 172 0
 7201 2d74 3C600000 		lis 3,.LC26@ha
 7202 2d78 3863016C 		la 3,.LC26@l(3)
 7203 2d7c 48000001 		bl gettext
 7204              	.LVL800:
 7205 2d80 7C651B78 		mr 5,3
 7206 2d84 4BFFDE68 		b .L359
 7207              	.LVL801:
 7208              	.L415:
 7209              	.LBE1774:
 7210              	.LBE2107:
 7211              	.LBB2108:
 7212              	.LBB1809:
 7213 2d88 3C600000 		lis 3,.LC26@ha
 7214 2d8c 3863016C 		la 3,.LC26@l(3)
 7215 2d90 48000001 		bl gettext
 7216              	.LVL802:
 7217 2d94 7C651B78 		mr 5,3
 7218 2d98 4BFFDF4C 		b .L413
 7219              	.LVL803:
 7220              	.L424:
 7221              		.loc 5 190 0
 7222 2d9c 3C600000 		lis 3,.LC35@ha
 7223 2da0 3863024C 		la 3,.LC35@l(3)
 7224 2da4 48000001 		bl gettext
 7225              	.LVL804:
 7226 2da8 7C651B78 		mr 5,3
 7227 2dac 4BFFDF38 		b .L413
 7228              	.LVL805:
 7229              	.L363:
 7230              	.LBE1809:
 7231              	.LBE2108:
 7232              	.LBB2109:
 7233              	.LBB1775:
 7234              		.loc 5 176 0
 7235 2db0 3C600000 		lis 3,.LC28@ha
 7236 2db4 386301A0 		la 3,.LC28@l(3)
 7237 2db8 48000001 		bl gettext
 7238              	.LVL806:
 7239 2dbc 7C651B78 		mr 5,3
 7240 2dc0 4BFFDE2C 		b .L359
 7241              	.LVL807:
 7242              	.L425:
 7243              	.LBE1775:
 7244              	.LBE2109:
 7245              	.LBB2110:
 7246              	.LBB1810:
 7247              		.loc 5 192 0
 7248 2dc4 3C600000 		lis 3,.LC36@ha
 7249 2dc8 38630268 		la 3,.LC36@l(3)
 7250 2dcc 48000001 		bl gettext
 7251              	.LVL808:
 7252 2dd0 7C651B78 		mr 5,3
 7253 2dd4 4BFFDF10 		b .L413
 7254              	.LVL809:
 7255              	.L421:
 7256              		.loc 5 184 0
 7257 2dd8 3C600000 		lis 3,.LC32@ha
 7258 2ddc 38630200 		la 3,.LC32@l(3)
 7259 2de0 48000001 		bl gettext
 7260              	.LVL810:
 7261 2de4 7C651B78 		mr 5,3
 7262 2de8 4BFFDEFC 		b .L413
 7263              	.LVL811:
 7264              	.L423:
 7265              		.loc 5 188 0
 7266 2dec 3C600000 		lis 3,.LC34@ha
 7267 2df0 38630230 		la 3,.LC34@l(3)
 7268 2df4 48000001 		bl gettext
 7269              	.LVL812:
 7270 2df8 7C651B78 		mr 5,3
 7271 2dfc 4BFFDEE8 		b .L413
 7272              	.LVL813:
 7273              	.L367:
 7274              	.LBE1810:
 7275              	.LBE2110:
 7276              	.LBB2111:
 7277              	.LBB1776:
 7278              		.loc 5 184 0
 7279 2e00 3C600000 		lis 3,.LC32@ha
 7280 2e04 38630200 		la 3,.LC32@l(3)
 7281 2e08 48000001 		bl gettext
 7282              	.LVL814:
 7283 2e0c 7C651B78 		mr 5,3
 7284 2e10 4BFFDDDC 		b .L359
 7285              	.LVL815:
 7286              	.L471:
 7287              	.LBE1776:
 7288              	.LBE2111:
 7289              	.LBB2112:
 7290              	.LBB1845:
 7291              		.loc 5 176 0
 7292 2e14 3C600000 		lis 3,.LC28@ha
 7293 2e18 386301A0 		la 3,.LC28@l(3)
 7294 2e1c 48000001 		bl gettext
 7295              	.LVL816:
 7296 2e20 7C651B78 		mr 5,3
 7297 2e24 4BFFDFB8 		b .L467
 7298              	.LVL817:
 7299              	.L469:
 7300              		.loc 5 172 0
 7301 2e28 3C600000 		lis 3,.LC26@ha
 7302 2e2c 3863016C 		la 3,.LC26@l(3)
 7303 2e30 48000001 		bl gettext
 7304              	.LVL818:
 7305 2e34 7C651B78 		mr 5,3
 7306 2e38 4BFFDFA4 		b .L467
 7307              	.LVL819:
 7308              	.L481:
 7309              		.loc 5 196 0
 7310 2e3c 3C600000 		lis 3,.LC38@ha
 7311 2e40 386302A0 		la 3,.LC38@l(3)
 7312 2e44 48000001 		bl gettext
 7313              	.LVL820:
 7314 2e48 7C651B78 		mr 5,3
 7315 2e4c 4BFFDF90 		b .L467
 7316              	.LVL821:
 7317              	.L474:
 7318              		.loc 5 182 0
 7319 2e50 3C600000 		lis 3,.LC31@ha
 7320 2e54 386301E8 		la 3,.LC31@l(3)
 7321 2e58 48000001 		bl gettext
 7322              	.LVL822:
 7323 2e5c 7C651B78 		mr 5,3
 7324 2e60 4BFFDF7C 		b .L467
 7325              	.LVL823:
 7326              	.L475:
 7327              		.loc 5 184 0
 7328 2e64 3C600000 		lis 3,.LC32@ha
 7329 2e68 38630200 		la 3,.LC32@l(3)
 7330 2e6c 48000001 		bl gettext
 7331              	.LVL824:
 7332 2e70 7C651B78 		mr 5,3
 7333 2e74 4BFFDF68 		b .L467
 7334              	.LVL825:
 7335              	.L473:
 7336              		.loc 5 180 0
 7337 2e78 3C600000 		lis 3,.LC30@ha
 7338 2e7c 386301D0 		la 3,.LC30@l(3)
 7339 2e80 48000001 		bl gettext
 7340              	.LVL826:
 7341 2e84 7C651B78 		mr 5,3
 7342 2e88 4BFFDF54 		b .L467
 7343              	.LVL827:
 7344              	.L479:
 7345              		.loc 5 192 0
 7346 2e8c 3C600000 		lis 3,.LC36@ha
 7347 2e90 38630268 		la 3,.LC36@l(3)
 7348 2e94 48000001 		bl gettext
 7349              	.LVL828:
 7350 2e98 7C651B78 		mr 5,3
 7351 2e9c 4BFFDF40 		b .L467
 7352              	.LVL829:
 7353              	.L478:
 7354              		.loc 5 190 0
 7355 2ea0 3C600000 		lis 3,.LC35@ha
 7356 2ea4 3863024C 		la 3,.LC35@l(3)
 7357 2ea8 48000001 		bl gettext
 7358              	.LVL830:
 7359 2eac 7C651B78 		mr 5,3
 7360 2eb0 4BFFDF2C 		b .L467
 7361              	.LVL831:
 7362              	.L477:
 7363              		.loc 5 188 0
 7364 2eb4 3C600000 		lis 3,.LC34@ha
 7365 2eb8 38630230 		la 3,.LC34@l(3)
 7366 2ebc 48000001 		bl gettext
 7367              	.LVL832:
 7368 2ec0 7C651B78 		mr 5,3
 7369 2ec4 4BFFDF18 		b .L467
 7370              	.LVL833:
 7371              	.L581:
 7372              	.LBE1845:
 7373              	.LBE2112:
 7374              	.LBB2113:
 7375              	.LBB1919:
 7376              		.loc 5 180 0
 7377 2ec8 3C600000 		lis 3,.LC30@ha
 7378 2ecc 386301D0 		la 3,.LC30@l(3)
 7379 2ed0 48000001 		bl gettext
 7380              	.LVL834:
 7381 2ed4 7C651B78 		mr 5,3
 7382 2ed8 4BFFE0F4 		b .L575
 7383              	.LVL835:
 7384              	.L577:
 7385              		.loc 5 172 0
 7386 2edc 3C600000 		lis 3,.LC26@ha
 7387 2ee0 3863016C 		la 3,.LC26@l(3)
 7388 2ee4 48000001 		bl gettext
 7389              	.LVL836:
 7390 2ee8 7C651B78 		mr 5,3
 7391 2eec 4BFFE0E0 		b .L575
 7392              	.LVL837:
 7393              	.L583:
 7394              		.loc 5 184 0
 7395 2ef0 3C600000 		lis 3,.LC32@ha
 7396 2ef4 38630200 		la 3,.LC32@l(3)
 7397 2ef8 48000001 		bl gettext
 7398              	.LVL838:
 7399 2efc 7C651B78 		mr 5,3
 7400 2f00 4BFFE0CC 		b .L575
 7401              	.LVL839:
 7402              	.L589:
