   1              		.file	"CreditsWindow.cpp"
   2              		.section	".text"
   3              	.Ltext0:
   4              		.section	.text._ZN7sigslot15single_threadedD2Ev,"axG",@progbits,_ZN7sigslot15single_threadedD5Ev,c
   5              		.align 2
   6              		.weak	_ZN7sigslot15single_threadedD2Ev
   7              		.type	_ZN7sigslot15single_threadedD2Ev, @function
   8              	_ZN7sigslot15single_threadedD2Ev:
   9              	.LFB1148:
  10              		.file 1 "d:/Projects/SaveGameManager/savegame-manager-gx/trunk/source/Prompts/../GUI/../sigslot.h"
  11              		.loc 1 104 0
  12              		.cfi_startproc
  13              	.LVL0:
  14              	.LBB2206:
  15              		.loc 1 105 0
  16 0000 3D200000 		lis 9,_ZTVN7sigslot15single_threadedE+8@ha
  17              	.LBE2206:
  18              		.loc 1 107 0
  19              	.LBB2207:
  20              		.loc 1 105 0
  21 0004 38090008 		la 0,_ZTVN7sigslot15single_threadedE+8@l(9)
  22 0008 90030000 		stw 0,0(3)
  23              	.LBE2207:
  24              		.loc 1 107 0
  25 000c 4E800020 		blr
  26              		.cfi_endproc
  27              	.LFE1148:
  28              		.size	_ZN7sigslot15single_threadedD2Ev, .-_ZN7sigslot15single_threadedD2Ev
  29              		.section	.text._ZN7sigslot15single_threaded4lockEv,"axG",@progbits,_ZN7sigslot15single_threaded4lo
  30              		.align 2
  31              		.weak	_ZN7sigslot15single_threaded4lockEv
  32              		.type	_ZN7sigslot15single_threaded4lockEv, @function
  33              	_ZN7sigslot15single_threaded4lockEv:
  34              	.LFB1151:
  35              		.loc 1 109 0
  36              		.cfi_startproc
  37              	.LVL1:
  38              		.loc 1 112 0
  39 0000 4E800020 		blr
  40              		.cfi_endproc
  41              	.LFE1151:
  42              		.size	_ZN7sigslot15single_threaded4lockEv, .-_ZN7sigslot15single_threaded4lockEv
  43              		.section	.text._ZN7sigslot15single_threaded6unlockEv,"axG",@progbits,_ZN7sigslot15single_threaded6
  44              		.align 2
  45              		.weak	_ZN7sigslot15single_threaded6unlockEv
  46              		.type	_ZN7sigslot15single_threaded6unlockEv, @function
  47              	_ZN7sigslot15single_threaded6unlockEv:
  48              	.LFB1152:
  49              		.loc 1 114 0
  50              		.cfi_startproc
  51              	.LVL2:
  52              		.loc 1 117 0
  53 0000 4E800020 		blr
  54              		.cfi_endproc
  55              	.LFE1152:
  56              		.size	_ZN7sigslot15single_threaded6unlockEv, .-_ZN7sigslot15single_threaded6unlockEv
  57              		.section	.text._ZN10GuiElement9SetParentEPS_,"axG",@progbits,_ZN10GuiElement9SetParentEPS_,comdat
  58              		.align 2
  59              		.weak	_ZN10GuiElement9SetParentEPS_
  60              		.type	_ZN10GuiElement9SetParentEPS_, @function
  61              	_ZN10GuiElement9SetParentEPS_:
  62              	.LFB1384:
  63              		.file 2 "d:/Projects/SaveGameManager/savegame-manager-gx/trunk/source/Prompts/../GUI/gui_element.h
  64              		.loc 2 92 0
  65              		.cfi_startproc
  66              	.LVL3:
  67              		.loc 2 92 0
  68 0000 90830060 		stw 4,96(3)
  69 0004 4E800020 		blr
  70              		.cfi_endproc
  71              	.LFE1384:
  72              		.size	_ZN10GuiElement9SetParentEPS_, .-_ZN10GuiElement9SetParentEPS_
  73              		.section	.text._ZN10GuiElement9GetParentEv,"axG",@progbits,_ZN10GuiElement9GetParentEv,comdat
  74              		.align 2
  75              		.weak	_ZN10GuiElement9GetParentEv
  76              		.type	_ZN10GuiElement9GetParentEv, @function
  77              	_ZN10GuiElement9GetParentEv:
  78              	.LFB1385:
  79              		.loc 2 95 0
  80              		.cfi_startproc
  81              	.LVL4:
  82              		.loc 2 95 0
  83 0000 80630060 		lwz 3,96(3)
  84              	.LVL5:
  85 0004 4E800020 		blr
  86              		.cfi_endproc
  87              	.LFE1385:
  88              		.size	_ZN10GuiElement9GetParentEv, .-_ZN10GuiElement9GetParentEv
  89              		.section	.text._ZN10GuiElement12GetZPositionEv,"axG",@progbits,_ZN10GuiElement12GetZPositionEv,com
  90              		.align 2
  91              		.weak	_ZN10GuiElement12GetZPositionEv
  92              		.type	_ZN10GuiElement12GetZPositionEv, @function
  93              	_ZN10GuiElement12GetZPositionEv:
  94              	.LFB1386:
  95              		.loc 2 106 0
  96              		.cfi_startproc
  97              	.LVL6:
  98 0000 7C0802A6 		mflr 0
  99 0004 9421FFF0 		stwu 1,-16(1)
 100              	.LCFI0:
 101              		.cfi_def_cfa_offset 16
 102              		.cfi_register 65, 0
 103 0008 93E1000C 		stw 31,12(1)
 104 000c 7C7F1B78 		mr 31,3
 105              		.cfi_offset 31, -4
 106 0010 90010014 		stw 0,20(1)
 107              	.LBB2208:
 108              		.loc 2 110 0
 109 0014 81630060 		lwz 11,96(3)
 110              		.loc 2 108 0
 111 0018 38600000 		li 3,0
 112              	.LVL7:
 113              		.loc 2 110 0
 114 001c 2F8B0000 		cmpwi 7,11,0
 115 0020 419E0018 		beq- 7,.L8
 116              		.cfi_offset 65, 4
 117              		.loc 2 111 0
 118 0024 812B0000 		lwz 9,0(11)
 119 0028 7D635B78 		mr 3,11
 120 002c 80090018 		lwz 0,24(9)
 121 0030 7C0903A6 		mtctr 0
 122 0034 4E800421 		bctrl
 123              	.LVL8:
 124              	.L8:
 125              		.loc 2 113 0
 126 0038 801F0034 		lwz 0,52(31)
 127              	.LBE2208:
 128              		.loc 2 114 0
 129 003c 83E1000C 		lwz 31,12(1)
 130              	.LVL9:
 131 0040 7C630214 		add 3,3,0
 132              	.LVL10:
 133 0044 80010014 		lwz 0,20(1)
 134 0048 38210010 		addi 1,1,16
 135              	.LCFI1:
 136              		.cfi_def_cfa_offset 0
 137              		.cfi_restore 31
 138 004c 7C0803A6 		mtlr 0
 139 0050 4E800020 		blr
 140              		.cfi_endproc
 141              	.LFE1386:
 142              		.size	_ZN10GuiElement12GetZPositionEv, .-_ZN10GuiElement12GetZPositionEv
 143              		.section	.text._ZN10GuiElement10GetLeftPosEv,"axG",@progbits,_ZN10GuiElement10GetLeftPosEv,comdat
 144              		.align 2
 145              		.weak	_ZN10GuiElement10GetLeftPosEv
 146              		.type	_ZN10GuiElement10GetLeftPosEv, @function
 147              	_ZN10GuiElement10GetLeftPosEv:
 148              	.LFB1387:
 149              		.loc 2 116 0
 150              		.cfi_startproc
 151              	.LVL11:
 152              		.loc 2 116 0
 153 0000 8063002C 		lwz 3,44(3)
 154              	.LVL12:
 155 0004 4E800020 		blr
 156              		.cfi_endproc
 157              	.LFE1387:
 158              		.size	_ZN10GuiElement10GetLeftPosEv, .-_ZN10GuiElement10GetLeftPosEv
 159              		.section	.text._ZN10GuiElement9GetTopPosEv,"axG",@progbits,_ZN10GuiElement9GetTopPosEv,comdat
 160              		.align 2
 161              		.weak	_ZN10GuiElement9GetTopPosEv
 162              		.type	_ZN10GuiElement9GetTopPosEv, @function
 163              	_ZN10GuiElement9GetTopPosEv:
 164              	.LFB1388:
 165              		.loc 2 118 0
 166              		.cfi_startproc
 167              	.LVL13:
 168              		.loc 2 118 0
 169 0000 80630030 		lwz 3,48(3)
 170              	.LVL14:
 171 0004 4E800020 		blr
 172              		.cfi_endproc
 173              	.LFE1388:
 174              		.size	_ZN10GuiElement9GetTopPosEv, .-_ZN10GuiElement9GetTopPosEv
 175              		.section	.text._ZN10GuiElement8GetWidthEv,"axG",@progbits,_ZN10GuiElement8GetWidthEv,comdat
 176              		.align 2
 177              		.weak	_ZN10GuiElement8GetWidthEv
 178              		.type	_ZN10GuiElement8GetWidthEv, @function
 179              	_ZN10GuiElement8GetWidthEv:
 180              	.LFB1389:
 181              		.loc 2 121 0
 182              		.cfi_startproc
 183              	.LVL15:
 184              		.loc 2 121 0
 185 0000 80630024 		lwz 3,36(3)
 186              	.LVL16:
 187 0004 4E800020 		blr
 188              		.cfi_endproc
 189              	.LFE1389:
 190              		.size	_ZN10GuiElement8GetWidthEv, .-_ZN10GuiElement8GetWidthEv
 191              		.section	.text._ZN10GuiElement9GetHeightEv,"axG",@progbits,_ZN10GuiElement9GetHeightEv,comdat
 192              		.align 2
 193              		.weak	_ZN10GuiElement9GetHeightEv
 194              		.type	_ZN10GuiElement9GetHeightEv, @function
 195              	_ZN10GuiElement9GetHeightEv:
 196              	.LFB1390:
 197              		.loc 2 124 0
 198              		.cfi_startproc
 199              	.LVL17:
 200              		.loc 2 124 0
 201 0000 80630028 		lwz 3,40(3)
 202              	.LVL18:
 203 0004 4E800020 		blr
 204              		.cfi_endproc
 205              	.LFE1390:
 206              		.size	_ZN10GuiElement9GetHeightEv, .-_ZN10GuiElement9GetHeightEv
 207              		.section	.text._ZN10GuiElement7SetSizeEii,"axG",@progbits,_ZN10GuiElement7SetSizeEii,comdat
 208              		.align 2
 209              		.weak	_ZN10GuiElement7SetSizeEii
 210              		.type	_ZN10GuiElement7SetSizeEii, @function
 211              	_ZN10GuiElement7SetSizeEii:
 212              	.LFB1391:
 213              		.loc 2 128 0
 214              		.cfi_startproc
 215              	.LVL19:
 216              		.loc 2 130 0
 217 0000 90830024 		stw 4,36(3)
 218              		.loc 2 132 0
 219              		.loc 2 131 0
 220 0004 90A30028 		stw 5,40(3)
 221              		.loc 2 132 0
 222 0008 4E800020 		blr
 223              		.cfi_endproc
 224              	.LFE1391:
 225              		.size	_ZN10GuiElement7SetSizeEii, .-_ZN10GuiElement7SetSizeEii
 226              		.section	.text._ZN10GuiElement9IsVisibleEv,"axG",@progbits,_ZN10GuiElement9IsVisibleEv,comdat
 227              		.align 2
 228              		.weak	_ZN10GuiElement9IsVisibleEv
 229              		.type	_ZN10GuiElement9IsVisibleEv, @function
 230              	_ZN10GuiElement9IsVisibleEv:
 231              	.LFB1393:
 232              		.loc 2 142 0
 233              		.cfi_startproc
 234              	.LVL20:
 235              		.loc 2 142 0
 236 0000 8863001D 		lbz 3,29(3)
 237              	.LVL21:
 238 0004 4E800020 		blr
 239              		.cfi_endproc
 240              	.LFE1393:
 241              		.size	_ZN10GuiElement9IsVisibleEv, .-_ZN10GuiElement9IsVisibleEv
 242              		.section	.text._ZN10GuiElement12IsSelectableEv,"axG",@progbits,_ZN10GuiElement12IsSelectableEv,com
 243              		.align 2
 244              		.weak	_ZN10GuiElement12IsSelectableEv
 245              		.type	_ZN10GuiElement12IsSelectableEv, @function
 246              	_ZN10GuiElement12IsSelectableEv:
 247              	.LFB1394:
 248              		.loc 2 145 0
 249              		.cfi_startproc
 250              	.LVL22:
 251              		.loc 2 149 0
 252 0000 80030048 		lwz 0,72(3)
 253 0004 39200000 		li 9,0
 254 0008 2F800004 		cmpwi 7,0,4
 255 000c 419E0010 		beq- 7,.L18
 256              		.loc 2 149 0 is_stmt 0 discriminator 1
 257 0010 2F800002 		cmpwi 7,0,2
 258 0014 419E0008 		beq- 7,.L18
 259              		.loc 2 149 0 discriminator 3
 260 0018 8923001E 		lbz 9,30(3)
 261              	.L18:
 262              		.loc 2 150 0 is_stmt 1 discriminator 5
 263 001c 7D234B78 		mr 3,9
 264              	.LVL23:
 265 0020 4E800020 		blr
 266              		.cfi_endproc
 267              	.LFE1394:
 268              		.size	_ZN10GuiElement12IsSelectableEv, .-_ZN10GuiElement12IsSelectableEv
 269              		.section	.text._ZN10GuiElement11IsClickableEv,"axG",@progbits,_ZN10GuiElement11IsClickableEv,comda
 270              		.align 2
 271              		.weak	_ZN10GuiElement11IsClickableEv
 272              		.type	_ZN10GuiElement11IsClickableEv, @function
 273              	_ZN10GuiElement11IsClickableEv:
 274              	.LFB1395:
 275              		.loc 2 153 0
 276              		.cfi_startproc
 277              	.LVL24:
 278              		.loc 2 158 0
 279 0000 80030048 		lwz 0,72(3)
 280 0004 39200000 		li 9,0
 281 0008 2F800004 		cmpwi 7,0,4
 282 000c 419E0018 		beq- 7,.L22
 283              		.loc 2 158 0 is_stmt 0 discriminator 1
 284 0010 2F800002 		cmpwi 7,0,2
 285 0014 419E0010 		beq- 7,.L22
 286              		.loc 2 158 0 discriminator 3
 287 0018 2F800003 		cmpwi 7,0,3
 288 001c 419E0008 		beq- 7,.L22
 289              		.loc 2 158 0 discriminator 4
 290 0020 8923001F 		lbz 9,31(3)
 291              	.L22:
 292              		.loc 2 159 0 is_stmt 1 discriminator 6
 293 0024 7D234B78 		mr 3,9
 294              	.LVL25:
 295 0028 4E800020 		blr
 296              		.cfi_endproc
 297              	.LFE1395:
 298              		.size	_ZN10GuiElement11IsClickableEv, .-_ZN10GuiElement11IsClickableEv
 299              		.section	.text._ZN10GuiElement10IsHoldableEv,"axG",@progbits,_ZN10GuiElement10IsHoldableEv,comdat
 300              		.align 2
 301              		.weak	_ZN10GuiElement10IsHoldableEv
 302              		.type	_ZN10GuiElement10IsHoldableEv, @function
 303              	_ZN10GuiElement10IsHoldableEv:
 304              	.LFB1396:
 305              		.loc 2 162 0
 306              		.cfi_startproc
 307              	.LVL26:
 308              		.loc 2 162 0
 309 0000 81230048 		lwz 9,72(3)
 310 0004 38000000 		li 0,0
 311 0008 2F890004 		cmpwi 7,9,4
 312 000c 419E0008 		beq- 7,.L27
 313              		.loc 2 162 0 is_stmt 0 discriminator 1
 314 0010 88030020 		lbz 0,32(3)
 315              	.L27:
 316              		.loc 2 162 0 discriminator 4
 317 0014 7C030378 		mr 3,0
 318              	.LVL27:
 319 0018 4E800020 		blr
 320              		.cfi_endproc
 321              	.LFE1396:
 322              		.size	_ZN10GuiElement10IsHoldableEv, .-_ZN10GuiElement10IsHoldableEv
 323              		.section	.text._ZN10GuiElement13SetSelectableEb,"axG",@progbits,_ZN10GuiElement13SetSelectableEb,c
 324              		.align 2
 325              		.weak	_ZN10GuiElement13SetSelectableEb
 326              		.type	_ZN10GuiElement13SetSelectableEb, @function
 327              	_ZN10GuiElement13SetSelectableEb:
 328              	.LFB1397:
 329              		.loc 2 165 0 is_stmt 1
 330              		.cfi_startproc
 331              	.LVL28:
 332              		.loc 2 165 0
 333 0000 9883001E 		stb 4,30(3)
 334 0004 4E800020 		blr
 335              		.cfi_endproc
 336              	.LFE1397:
 337              		.size	_ZN10GuiElement13SetSelectableEb, .-_ZN10GuiElement13SetSelectableEb
 338              		.section	.text._ZN10GuiElement12SetClickableEb,"axG",@progbits,_ZN10GuiElement12SetClickableEb,com
 339              		.align 2
 340              		.weak	_ZN10GuiElement12SetClickableEb
 341              		.type	_ZN10GuiElement12SetClickableEb, @function
 342              	_ZN10GuiElement12SetClickableEb:
 343              	.LFB1398:
 344              		.loc 2 168 0
 345              		.cfi_startproc
 346              	.LVL29:
 347              		.loc 2 168 0
 348 0000 9883001F 		stb 4,31(3)
 349 0004 4E800020 		blr
 350              		.cfi_endproc
 351              	.LFE1398:
 352              		.size	_ZN10GuiElement12SetClickableEb, .-_ZN10GuiElement12SetClickableEb
 353              		.section	.text._ZN10GuiElement11SetHoldableEb,"axG",@progbits,_ZN10GuiElement11SetHoldableEb,comda
 354              		.align 2
 355              		.weak	_ZN10GuiElement11SetHoldableEb
 356              		.type	_ZN10GuiElement11SetHoldableEb, @function
 357              	_ZN10GuiElement11SetHoldableEb:
 358              	.LFB1399:
 359              		.loc 2 171 0
 360              		.cfi_startproc
 361              	.LVL30:
 362              		.loc 2 171 0
 363 0000 98830020 		stb 4,32(3)
 364 0004 4E800020 		blr
 365              		.cfi_endproc
 366              	.LFE1399:
 367              		.size	_ZN10GuiElement11SetHoldableEb, .-_ZN10GuiElement11SetHoldableEb
 368              		.section	.text._ZN10GuiElement8GetStateEv,"axG",@progbits,_ZN10GuiElement8GetStateEv,comdat
 369              		.align 2
 370              		.weak	_ZN10GuiElement8GetStateEv
 371              		.type	_ZN10GuiElement8GetStateEv, @function
 372              	_ZN10GuiElement8GetStateEv:
 373              	.LFB1400:
 374              		.loc 2 178 0
 375              		.cfi_startproc
 376              	.LVL31:
 377              		.loc 2 178 0
 378 0000 80630048 		lwz 3,72(3)
 379              	.LVL32:
 380 0004 4E800020 		blr
 381              		.cfi_endproc
 382              	.LFE1400:
 383              		.size	_ZN10GuiElement8GetStateEv, .-_ZN10GuiElement8GetStateEv
 384              		.section	.text._ZN10GuiElement12GetStateChanEv,"axG",@progbits,_ZN10GuiElement12GetStateChanEv,com
 385              		.align 2
 386              		.weak	_ZN10GuiElement12GetStateChanEv
 387              		.type	_ZN10GuiElement12GetStateChanEv, @function
 388              	_ZN10GuiElement12GetStateChanEv:
 389              	.LFB1401:
 390              		.loc 2 181 0
 391              		.cfi_startproc
 392              	.LVL33:
 393              		.loc 2 181 0
 394 0000 8063004C 		lwz 3,76(3)
 395              	.LVL34:
 396 0004 4E800020 		blr
 397              		.cfi_endproc
 398              	.LFE1401:
 399              		.size	_ZN10GuiElement12GetStateChanEv, .-_ZN10GuiElement12GetStateChanEv
 400              		.section	.text._ZN10GuiElement8SetAlphaEi,"axG",@progbits,_ZN10GuiElement8SetAlphaEi,comdat
 401              		.align 2
 402              		.weak	_ZN10GuiElement8SetAlphaEi
 403              		.type	_ZN10GuiElement8SetAlphaEi, @function
 404              	_ZN10GuiElement8SetAlphaEi:
 405              	.LFB1403:
 406              		.loc 2 190 0
 407              		.cfi_startproc
 408              	.LVL35:
 409              		.loc 2 190 0
 410 0000 90830038 		stw 4,56(3)
 411 0004 4E800020 		blr
 412              		.cfi_endproc
 413              	.LFE1403:
 414              		.size	_ZN10GuiElement8SetAlphaEi, .-_ZN10GuiElement8SetAlphaEi
 415              		.section	.text._ZN10GuiElement8GetAlphaEv,"axG",@progbits,_ZN10GuiElement8GetAlphaEv,comdat
 416              		.align 2
 417              		.weak	_ZN10GuiElement8GetAlphaEv
 418              		.type	_ZN10GuiElement8GetAlphaEv, @function
 419              	_ZN10GuiElement8GetAlphaEv:
 420              	.LFB1404:
 421              		.loc 2 194 0
 422              		.cfi_startproc
 423              	.LVL36:
 424 0000 7C0802A6 		mflr 0
 425 0004 9421FFD8 		stwu 1,-40(1)
 426              	.LCFI2:
 427              		.cfi_def_cfa_offset 40
 428              		.cfi_register 65, 0
 429 0008 93E10024 		stw 31,36(1)
 430 000c 9001002C 		stw 0,44(1)
 431              	.LBB2209:
 432              		.loc 2 198 0
 433 0010 83E3006C 		lwz 31,108(3)
 434              		.cfi_offset 65, 4
 435              		.cfi_offset 31, -4
 436 0014 2F9F0000 		cmpwi 7,31,0
 437 0018 419C0094 		blt- 7,.L38
 438              	.L36:
 439              	.LVL37:
 440              		.loc 2 203 0
 441 001c 80630060 		lwz 3,96(3)
 442              	.LVL38:
 443 0020 2F830000 		cmpwi 7,3,0
 444 0024 419E0070 		beq- 7,.L37
 445              		.loc 2 204 0
 446 0028 81230000 		lwz 9,0(3)
 447 002c 6FFF8000 		xoris 31,31,0x8000
 448              	.LVL39:
 449 0030 80090064 		lwz 0,100(9)
 450 0034 7C0903A6 		mtctr 0
 451 0038 4E800421 		bctrl
 452 003c 3C004330 		lis 0,0x4330
 453 0040 6C638000 		xoris 3,3,0x8000
 454 0044 90010010 		stw 0,16(1)
 455 0048 90610014 		stw 3,20(1)
 456 004c 3D200000 		lis 9,.LC1@ha
 457 0050 C0090000 		lfs 0,.LC1@l(9)
 458 0054 3D200000 		lis 9,.LC2@ha
 459 0058 C9A10010 		lfd 13,16(1)
 460 005c C1890004 		lfs 12,.LC2@l(9)
 461 0060 39210018 		addi 9,1,24
 462 0064 FDAD0028 		fsub 13,13,0
 463 0068 93E1000C 		stw 31,12(1)
 464 006c 90010008 		stw 0,8(1)
 465 0070 FDA06818 		frsp 13,13
 466 0074 EDAD6024 		fdivs 13,13,12
 467 0078 C9810008 		lfd 12,8(1)
 468 007c FC0C0028 		fsub 0,12,0
 469 0080 FC000018 		frsp 0,0
 470 0084 EC000372 		fmuls 0,0,13
 471 0088 FC00001E 		fctiwz 0,0
 472 008c 7C004FAE 		stfiwx 0,0,9
 473 0090 83E10018 		lwz 31,24(1)
 474              	.LVL40:
 475              	.L37:
 476              	.LBE2209:
 477              		.loc 2 207 0
 478 0094 8001002C 		lwz 0,44(1)
 479 0098 7FE3FB78 		mr 3,31
 480 009c 83E10024 		lwz 31,36(1)
 481              	.LVL41:
 482 00a0 7C0803A6 		mtlr 0
 483 00a4 38210028 		addi 1,1,40
 484              		.cfi_remember_state
 485              	.LCFI3:
 486              		.cfi_def_cfa_offset 0
 487              		.cfi_restore 31
 488 00a8 4E800020 		blr
 489              	.LVL42:
 490              	.L38:
 491              	.LCFI4:
 492              		.cfi_restore_state
 493              	.LBB2210:
 494              		.loc 2 201 0
 495 00ac 83E30038 		lwz 31,56(3)
 496              	.LVL43:
 497 00b0 4BFFFF6C 		b .L36
 498              	.LBE2210:
 499              		.cfi_endproc
 500              	.LFE1404:
 501              		.size	_ZN10GuiElement8GetAlphaEv, .-_ZN10GuiElement8GetAlphaEv
 502              		.section	.text._ZN10GuiElement8SetScaleEf,"axG",@progbits,_ZN10GuiElement8SetScaleEf,comdat
 503              		.align 2
 504              		.weak	_ZN10GuiElement8SetScaleEf
 505              		.type	_ZN10GuiElement8SetScaleEf, @function
 506              	_ZN10GuiElement8SetScaleEf:
 507              	.LFB1405:
 508              		.loc 2 210 0
 509              		.cfi_startproc
 510              	.LVL44:
 511              		.loc 2 212 0
 512 0000 D023003C 		stfs 1,60(3)
 513              		.loc 2 214 0
 514              		.loc 2 213 0
 515 0004 D0230040 		stfs 1,64(3)
 516              		.loc 2 214 0
 517 0008 4E800020 		blr
 518              		.cfi_endproc
 519              	.LFE1405:
 520              		.size	_ZN10GuiElement8SetScaleEf, .-_ZN10GuiElement8SetScaleEf
 521              		.section	.text._ZN10GuiElement9SetScaleXEf,"axG",@progbits,_ZN10GuiElement9SetScaleXEf,comdat
 522              		.align 2
 523              		.weak	_ZN10GuiElement9SetScaleXEf
 524              		.type	_ZN10GuiElement9SetScaleXEf, @function
 525              	_ZN10GuiElement9SetScaleXEf:
 526              	.LFB1406:
 527              		.loc 2 217 0
 528              		.cfi_startproc
 529              	.LVL45:
 530              		.loc 2 217 0
 531 0000 D023003C 		stfs 1,60(3)
 532 0004 4E800020 		blr
 533              		.cfi_endproc
 534              	.LFE1406:
 535              		.size	_ZN10GuiElement9SetScaleXEf, .-_ZN10GuiElement9SetScaleXEf
 536              		.section	.text._ZN10GuiElement9SetScaleYEf,"axG",@progbits,_ZN10GuiElement9SetScaleYEf,comdat
 537              		.align 2
 538              		.weak	_ZN10GuiElement9SetScaleYEf
 539              		.type	_ZN10GuiElement9SetScaleYEf, @function
 540              	_ZN10GuiElement9SetScaleYEf:
 541              	.LFB1407:
 542              		.loc 2 220 0
 543              		.cfi_startproc
 544              	.LVL46:
 545              		.loc 2 220 0
 546 0000 D0230040 		stfs 1,64(3)
 547 0004 4E800020 		blr
 548              		.cfi_endproc
 549              	.LFE1407:
 550              		.size	_ZN10GuiElement9SetScaleYEf, .-_ZN10GuiElement9SetScaleYEf
 551              		.section	.text._ZN10GuiElement8GetScaleEv,"axG",@progbits,_ZN10GuiElement8GetScaleEv,comdat
 552              		.align 2
 553              		.weak	_ZN10GuiElement8GetScaleEv
 554              		.type	_ZN10GuiElement8GetScaleEv, @function
 555              	_ZN10GuiElement8GetScaleEv:
 556              	.LFB1408:
 557              		.loc 2 223 0
 558              		.cfi_startproc
 559              	.LVL47:
 560 0000 7C0802A6 		mflr 0
 561 0004 9421FFF0 		stwu 1,-16(1)
 562              	.LCFI5:
 563              		.cfi_def_cfa_offset 16
 564              		.cfi_register 65, 0
 565              	.LBB2211:
 566              		.loc 2 225 0
 567 0008 3D200000 		lis 9,.LC3@ha
 568              	.LBE2211:
 569              		.loc 2 223 0
 570 000c DBE10008 		stfd 31,8(1)
 571 0010 90010014 		stw 0,20(1)
 572              	.LBB2212:
 573              		.loc 2 225 0
 574 0014 C0030040 		lfs 0,64(3)
 575 0018 C3E3003C 		lfs 31,60(3)
 576              		.cfi_offset 65, 4
 577              		.cfi_offset 63, -8
 578              		.loc 2 227 0
 579 001c 81630060 		lwz 11,96(3)
 580              		.loc 2 225 0
 581 0020 EFFF002A 		fadds 31,31,0
 582 0024 C0090008 		lfs 0,.LC3@l(9)
 583              		.loc 2 227 0
 584 0028 2F8B0000 		cmpwi 7,11,0
 585              		.loc 2 225 0
 586 002c EFFF0032 		fmuls 31,31,0
 587 0030 C0030070 		lfs 0,112(3)
 588 0034 EFFF0032 		fmuls 31,31,0
 589              	.LVL48:
 590              		.loc 2 227 0
 591 0038 419E001C 		beq- 7,.L43
 592              		.loc 2 228 0
 593 003c 812B0000 		lwz 9,0(11)
 594 0040 7D635B78 		mr 3,11
 595              	.LVL49:
 596 0044 80090074 		lwz 0,116(9)
 597 0048 7C0903A6 		mtctr 0
 598 004c 4E800421 		bctrl
 599 0050 EFFF0072 		fmuls 31,31,1
 600              	.LVL50:
 601              	.L43:
 602              	.LBE2212:
 603              		.loc 2 231 0
 604 0054 80010014 		lwz 0,20(1)
 605 0058 FC20F890 		fmr 1,31
 606 005c CBE10008 		lfd 31,8(1)
 607              	.LVL51:
 608 0060 7C0803A6 		mtlr 0
 609 0064 38210010 		addi 1,1,16
 610              	.LCFI6:
 611              		.cfi_def_cfa_offset 0
 612              		.cfi_restore 63
 613 0068 4E800020 		blr
 614              		.cfi_endproc
 615              	.LFE1408:
 616              		.size	_ZN10GuiElement8GetScaleEv, .-_ZN10GuiElement8GetScaleEv
 617              		.section	.text._ZN10GuiElement9GetScaleXEv,"axG",@progbits,_ZN10GuiElement9GetScaleXEv,comdat
 618              		.align 2
 619              		.weak	_ZN10GuiElement9GetScaleXEv
 620              		.type	_ZN10GuiElement9GetScaleXEv, @function
 621              	_ZN10GuiElement9GetScaleXEv:
 622              	.LFB1409:
 623              		.loc 2 234 0
 624              		.cfi_startproc
 625              	.LVL52:
 626 0000 7C0802A6 		mflr 0
 627 0004 9421FFF0 		stwu 1,-16(1)
 628              	.LCFI7:
 629              		.cfi_def_cfa_offset 16
 630              		.cfi_register 65, 0
 631 0008 DBE10008 		stfd 31,8(1)
 632 000c 90010014 		stw 0,20(1)
 633              	.LBB2213:
 634              		.loc 2 238 0
 635 0010 81630060 		lwz 11,96(3)
 636              		.loc 2 236 0
 637 0014 C3E3003C 		lfs 31,60(3)
 638              		.cfi_offset 65, 4
 639              		.cfi_offset 63, -8
 640              		.loc 2 238 0
 641 0018 2F8B0000 		cmpwi 7,11,0
 642              		.loc 2 236 0
 643 001c C0030070 		lfs 0,112(3)
 644 0020 EFFF0032 		fmuls 31,31,0
 645              	.LVL53:
 646              		.loc 2 238 0
 647 0024 419E001C 		beq- 7,.L45
 648              		.loc 2 239 0
 649 0028 812B0000 		lwz 9,0(11)
 650 002c 7D635B78 		mr 3,11
 651              	.LVL54:
 652 0030 80090078 		lwz 0,120(9)
 653 0034 7C0903A6 		mtctr 0
 654 0038 4E800421 		bctrl
 655 003c EFFF0072 		fmuls 31,31,1
 656              	.LVL55:
 657              	.L45:
 658              	.LBE2213:
 659              		.loc 2 242 0
 660 0040 80010014 		lwz 0,20(1)
 661 0044 FC20F890 		fmr 1,31
 662 0048 CBE10008 		lfd 31,8(1)
 663              	.LVL56:
 664 004c 7C0803A6 		mtlr 0
 665 0050 38210010 		addi 1,1,16
 666              	.LCFI8:
 667              		.cfi_def_cfa_offset 0
 668              		.cfi_restore 63
 669 0054 4E800020 		blr
 670              		.cfi_endproc
 671              	.LFE1409:
 672              		.size	_ZN10GuiElement9GetScaleXEv, .-_ZN10GuiElement9GetScaleXEv
 673              		.section	.text._ZN10GuiElement9GetScaleYEv,"axG",@progbits,_ZN10GuiElement9GetScaleYEv,comdat
 674              		.align 2
 675              		.weak	_ZN10GuiElement9GetScaleYEv
 676              		.type	_ZN10GuiElement9GetScaleYEv, @function
 677              	_ZN10GuiElement9GetScaleYEv:
 678              	.LFB1410:
 679              		.loc 2 245 0
 680              		.cfi_startproc
 681              	.LVL57:
 682 0000 7C0802A6 		mflr 0
 683 0004 9421FFF0 		stwu 1,-16(1)
 684              	.LCFI9:
 685              		.cfi_def_cfa_offset 16
 686              		.cfi_register 65, 0
 687 0008 DBE10008 		stfd 31,8(1)
 688 000c 90010014 		stw 0,20(1)
 689              	.LBB2214:
 690              		.loc 2 249 0
 691 0010 81630060 		lwz 11,96(3)
 692              		.loc 2 247 0
 693 0014 C3E30040 		lfs 31,64(3)
 694              		.cfi_offset 65, 4
 695              		.cfi_offset 63, -8
 696              		.loc 2 249 0
 697 0018 2F8B0000 		cmpwi 7,11,0
 698              		.loc 2 247 0
 699 001c C0030070 		lfs 0,112(3)
 700 0020 EFFF0032 		fmuls 31,31,0
 701              	.LVL58:
 702              		.loc 2 249 0
 703 0024 419E001C 		beq- 7,.L47
 704              		.loc 2 250 0
 705 0028 812B0000 		lwz 9,0(11)
 706 002c 7D635B78 		mr 3,11
 707              	.LVL59:
 708 0030 8009007C 		lwz 0,124(9)
 709 0034 7C0903A6 		mtctr 0
 710 0038 4E800421 		bctrl
 711 003c EFFF0072 		fmuls 31,31,1
 712              	.LVL60:
 713              	.L47:
 714              	.LBE2214:
 715              		.loc 2 253 0
 716 0040 80010014 		lwz 0,20(1)
 717 0044 FC20F890 		fmr 1,31
 718 0048 CBE10008 		lfd 31,8(1)
 719              	.LVL61:
 720 004c 7C0803A6 		mtlr 0
 721 0050 38210010 		addi 1,1,16
 722              	.LCFI10:
 723              		.cfi_def_cfa_offset 0
 724              		.cfi_restore 63
 725 0054 4E800020 		blr
 726              		.cfi_endproc
 727              	.LFE1410:
 728              		.size	_ZN10GuiElement9GetScaleYEv, .-_ZN10GuiElement9GetScaleYEv
 729              		.section	.text._ZN10GuiElement6RumbleEv,"axG",@progbits,_ZN10GuiElement6RumbleEv,comdat
 730              		.align 2
 731              		.weak	_ZN10GuiElement6RumbleEv
 732              		.type	_ZN10GuiElement6RumbleEv, @function
 733              	_ZN10GuiElement6RumbleEv:
 734              	.LFB1411:
 735              		.loc 2 256 0
 736              		.cfi_startproc
 737              	.LVL62:
 738              		.loc 2 256 0
 739 0000 8863001C 		lbz 3,28(3)
 740              	.LVL63:
 741 0004 4E800020 		blr
 742              		.cfi_endproc
 743              	.LFE1411:
 744              		.size	_ZN10GuiElement6RumbleEv, .-_ZN10GuiElement6RumbleEv
 745              		.section	.text._ZN10GuiElement9SetRumbleEb,"axG",@progbits,_ZN10GuiElement9SetRumbleEb,comdat
 746              		.align 2
 747              		.weak	_ZN10GuiElement9SetRumbleEb
 748              		.type	_ZN10GuiElement9SetRumbleEb, @function
 749              	_ZN10GuiElement9SetRumbleEb:
 750              	.LFB1412:
 751              		.loc 2 259 0
 752              		.cfi_startproc
 753              	.LVL64:
 754              		.loc 2 259 0
 755 0000 9883001C 		stb 4,28(3)
 756 0004 4E800020 		blr
 757              		.cfi_endproc
 758              	.LFE1412:
 759              		.size	_ZN10GuiElement9SetRumbleEb, .-_ZN10GuiElement9SetRumbleEb
 760              		.section	.text._ZN10GuiElement13SetEffectGrowEv,"axG",@progbits,_ZN10GuiElement13SetEffectGrowEv,c
 761              		.align 2
 762              		.weak	_ZN10GuiElement13SetEffectGrowEv
 763              		.type	_ZN10GuiElement13SetEffectGrowEv, @function
 764              	_ZN10GuiElement13SetEffectGrowEv:
 765              	.LFB1413:
 766              		.loc 2 271 0
 767              		.cfi_startproc
 768              	.LVL65:
 769 0000 7C0802A6 		mflr 0
 770 0004 9421FFF8 		stwu 1,-8(1)
 771              	.LCFI11:
 772              		.cfi_def_cfa_offset 8
 773              		.cfi_register 65, 0
 774 0008 81230000 		lwz 9,0(3)
 775 000c 38800100 		li 4,256
 776 0010 38A00004 		li 5,4
 777 0014 38C0006E 		li 6,110
 778 0018 9001000C 		stw 0,12(1)
 779              		.loc 2 271 0
 780 001c 8009008C 		lwz 0,140(9)
 781              		.cfi_offset 65, 4
 782 0020 7C0903A6 		mtctr 0
 783 0024 4E800421 		bctrl
 784              	.LVL66:
 785 0028 8001000C 		lwz 0,12(1)
 786 002c 38210008 		addi 1,1,8
 787              	.LCFI12:
 788              		.cfi_def_cfa_offset 0
 789 0030 7C0803A6 		mtlr 0
 790 0034 4E800020 		blr
 791              		.cfi_endproc
 792              	.LFE1413:
 793              		.size	_ZN10GuiElement13SetEffectGrowEv, .-_ZN10GuiElement13SetEffectGrowEv
 794              		.section	.text._ZNK10GuiElement9GetEffectEv,"axG",@progbits,_ZNK10GuiElement9GetEffectEv,comdat
 795              		.align 2
 796              		.weak	_ZNK10GuiElement9GetEffectEv
 797              		.type	_ZNK10GuiElement9GetEffectEv, @function
 798              	_ZNK10GuiElement9GetEffectEv:
 799              	.LFB1414:
 800              		.loc 2 276 0
 801              		.cfi_startproc
 802              	.LVL67:
 803              		.loc 2 276 0
 804 0000 80630078 		lwz 3,120(3)
 805              	.LVL68:
 806 0004 4E800020 		blr
 807              		.cfi_endproc
 808              	.LFE1414:
 809              		.size	_ZNK10GuiElement9GetEffectEv, .-_ZNK10GuiElement9GetEffectEv
 810              		.section	.text._ZNK10GuiElement10IsAnimatedEv,"axG",@progbits,_ZNK10GuiElement10IsAnimatedEv,comda
 811              		.align 2
 812              		.weak	_ZNK10GuiElement10IsAnimatedEv
 813              		.type	_ZNK10GuiElement10IsAnimatedEv, @function
 814              	_ZNK10GuiElement10IsAnimatedEv:
 815              	.LFB1415:
 816              		.loc 2 278 0
 817              		.cfi_startproc
 818              	.LVL69:
 819 0000 7C0802A6 		mflr 0
 820 0004 9421FFF8 		stwu 1,-8(1)
 821              	.LCFI13:
 822              		.cfi_def_cfa_offset 8
 823              		.cfi_register 65, 0
 824 0008 9001000C 		stw 0,12(1)
 825              		.loc 2 278 0
 826 000c 81230000 		lwz 9,0(3)
 827 0010 80090098 		lwz 0,152(9)
 828              		.cfi_offset 65, 4
 829 0014 7C0903A6 		mtctr 0
 830 0018 4E800421 		bctrl
 831              	.LVL70:
 832 001c 7C60FE70 		srawi 0,3,31
 833 0020 7C630050 		subf 3,3,0
 834 0024 8001000C 		lwz 0,12(1)
 835 0028 54630FFE 		srwi 3,3,31
 836 002c 7C0803A6 		mtlr 0
 837 0030 38210008 		addi 1,1,8
 838              	.LCFI14:
 839              		.cfi_def_cfa_offset 0
 840 0034 4E800020 		blr
 841              		.cfi_endproc
 842              	.LFE1415:
 843              		.size	_ZNK10GuiElement10IsAnimatedEv, .-_ZNK10GuiElement10IsAnimatedEv
 844              		.section	.text._ZN10GuiElement8IsInsideEii,"axG",@progbits,_ZN10GuiElement8IsInsideEii,comdat
 845              		.align 2
 846              		.weak	_ZN10GuiElement8IsInsideEii
 847              		.type	_ZN10GuiElement8IsInsideEii, @function
 848              	_ZN10GuiElement8IsInsideEii:
 849              	.LFB1417:
 850              		.loc 2 285 0
 851              		.cfi_startproc
 852              	.LVL71:
 853 0000 7C0802A6 		mflr 0
 854 0004 9421FFE8 		stwu 1,-24(1)
 855              	.LCFI15:
 856              		.cfi_def_cfa_offset 24
 857              		.cfi_register 65, 0
 858 0008 93810008 		stw 28,8(1)
 859 000c 7CBC2B78 		mr 28,5
 860              		.cfi_offset 28, -16
 861 0010 9001001C 		stw 0,28(1)
 862 0014 93A1000C 		stw 29,12(1)
 863              		.loc 2 290 0
 864 0018 3BA00000 		li 29,0
 865              		.cfi_offset 29, -12
 866              		.cfi_offset 65, 4
 867              		.loc 2 287 0
 868 001c 81230000 		lwz 9,0(3)
 869              		.loc 2 285 0
 870 0020 93C10010 		stw 30,16(1)
 871 0024 7C9E2378 		mr 30,4
 872              		.cfi_offset 30, -8
 873              		.loc 2 287 0
 874 0028 80090010 		lwz 0,16(9)
 875              		.loc 2 285 0
 876 002c 93E10014 		stw 31,20(1)
 877              		.loc 2 285 0
 878 0030 7C7F1B78 		mr 31,3
 879              		.cfi_offset 31, -4
 880              		.loc 2 287 0
 881 0034 7C0903A6 		mtctr 0
 882 0038 4E800421 		bctrl
 883              	.LVL72:
 884              		.loc 2 290 0
 885 003c 7F83F000 		cmpw 7,3,30
 886 0040 419C0028 		blt- 7,.L58
 887              	.L54:
 888              		.loc 2 291 0 discriminator 6
 889 0044 8001001C 		lwz 0,28(1)
 890 0048 7FA3EB78 		mr 3,29
 891 004c 83810008 		lwz 28,8(1)
 892              	.LVL73:
 893 0050 7C0803A6 		mtlr 0
 894 0054 83A1000C 		lwz 29,12(1)
 895 0058 83C10010 		lwz 30,16(1)
 896              	.LVL74:
 897 005c 83E10014 		lwz 31,20(1)
 898              	.LVL75:
 899 0060 38210018 		addi 1,1,24
 900              		.cfi_remember_state
 901              	.LCFI16:
 902              		.cfi_def_cfa_offset 0
 903              		.cfi_restore 31
 904              		.cfi_restore 30
 905              		.cfi_restore 29
 906              		.cfi_restore 28
 907 0064 4E800020 		blr
 908              	.LVL76:
 909              	.L58:
 910              	.LCFI17:
 911              		.cfi_restore_state
 912              		.loc 2 288 0 discriminator 1
 913 0068 813F0000 		lwz 9,0(31)
 914 006c 7FE3FB78 		mr 3,31
 915 0070 80090010 		lwz 0,16(9)
 916 0074 7C0903A6 		mtctr 0
 917 0078 4E800421 		bctrl
 918              		.loc 2 290 0 discriminator 1
 919 007c 801F0024 		lwz 0,36(31)
 920 0080 7C030214 		add 0,3,0
 921 0084 7F9E0000 		cmpw 7,30,0
 922 0088 409CFFBC 		bge+ 7,.L54
 923              		.loc 2 289 0 discriminator 3
 924 008c 813F0000 		lwz 9,0(31)
 925 0090 7FE3FB78 		mr 3,31
 926 0094 80090014 		lwz 0,20(9)
 927 0098 7C0903A6 		mtctr 0
 928 009c 4E800421 		bctrl
 929              		.loc 2 290 0 discriminator 3
 930 00a0 7F83E000 		cmpw 7,3,28
 931 00a4 409CFFA0 		bge+ 7,.L54
 932              		.loc 2 290 0 is_stmt 0 discriminator 4
 933 00a8 813F0000 		lwz 9,0(31)
 934 00ac 7FE3FB78 		mr 3,31
 935 00b0 80090014 		lwz 0,20(9)
 936 00b4 7C0903A6 		mtctr 0
 937 00b8 4E800421 		bctrl
 938 00bc 801F0028 		lwz 0,40(31)
 939 00c0 7C030214 		add 0,3,0
 940              		.loc 2 285 0 is_stmt 1 discriminator 4
 941 00c4 7F9C0000 		cmpw 7,28,0
 942 00c8 7FA00026 		mfcr 29
 943 00cc 57BDEFFE 		rlwinm 29,29,29,1
 944 00d0 4BFFFF74 		b .L54
 945              		.cfi_endproc
 946              	.LFE1417:
 947              		.size	_ZN10GuiElement8IsInsideEii, .-_ZN10GuiElement8IsInsideEii
 948              		.section	.text._ZN10GuiElement11SetPositionEii,"axG",@progbits,_ZN10GuiElement11SetPositionEii,com
 949              		.align 2
 950              		.weak	_ZN10GuiElement11SetPositionEii
 951              		.type	_ZN10GuiElement11SetPositionEii, @function
 952              	_ZN10GuiElement11SetPositionEii:
 953              	.LFB1418:
 954              		.loc 2 295 0
 955              		.cfi_startproc
 956              	.LVL77:
 957              		.loc 2 297 0
 958 0000 9083002C 		stw 4,44(3)
 959              		.loc 2 299 0
 960              		.loc 2 298 0
 961 0004 90A30030 		stw 5,48(3)
 962              		.loc 2 299 0
 963 0008 4E800020 		blr
 964              		.cfi_endproc
 965              	.LFE1418:
 966              		.size	_ZN10GuiElement11SetPositionEii, .-_ZN10GuiElement11SetPositionEii
 967              		.section	.text._ZN10GuiElement11SetPositionEiii,"axG",@progbits,_ZN10GuiElement11SetPositionEiii,c
 968              		.align 2
 969              		.weak	_ZN10GuiElement11SetPositionEiii
 970              		.type	_ZN10GuiElement11SetPositionEiii, @function
 971              	_ZN10GuiElement11SetPositionEiii:
 972              	.LFB1419:
 973              		.loc 2 304 0
 974              		.cfi_startproc
 975              	.LVL78:
 976              		.loc 2 306 0
 977 0000 9083002C 		stw 4,44(3)
 978              		.loc 2 309 0
 979              		.loc 2 307 0
 980 0004 90A30030 		stw 5,48(3)
 981              		.loc 2 308 0
 982 0008 90C30034 		stw 6,52(3)
 983              		.loc 2 309 0
 984 000c 4E800020 		blr
 985              		.cfi_endproc
 986              	.LFE1419:
 987              		.size	_ZN10GuiElement11SetPositionEiii, .-_ZN10GuiElement11SetPositionEiii
 988              		.section	.text._ZN10GuiElement12SetAlignmentEi,"axG",@progbits,_ZN10GuiElement12SetAlignmentEi,com
 989              		.align 2
 990              		.weak	_ZN10GuiElement12SetAlignmentEi
 991              		.type	_ZN10GuiElement12SetAlignmentEi, @function
 992              	_ZN10GuiElement12SetAlignmentEi:
 993              	.LFB1421:
 994              		.loc 2 316 0
 995              		.cfi_startproc
 996              	.LVL79:
 997              		.loc 2 316 0
 998 0000 90830044 		stw 4,68(3)
 999 0004 4E800020 		blr
 1000              		.cfi_endproc
 1001              	.LFE1421:
 1002              		.size	_ZN10GuiElement12SetAlignmentEi, .-_ZN10GuiElement12SetAlignmentEi
 1003              		.section	.text._ZNK10GuiElement12GetAlignmentEv,"axG",@progbits,_ZNK10GuiElement12GetAlignmentEv,c
 1004              		.align 2
 1005              		.weak	_ZNK10GuiElement12GetAlignmentEv
 1006              		.type	_ZNK10GuiElement12GetAlignmentEv, @function
 1007              	_ZNK10GuiElement12GetAlignmentEv:
 1008              	.LFB1422:
 1009              		.loc 2 318 0
 1010              		.cfi_startproc
 1011              	.LVL80:
 1012              		.loc 2 318 0
 1013 0000 80630044 		lwz 3,68(3)
 1014              	.LVL81:
 1015 0004 4E800020 		blr
 1016              		.cfi_endproc
 1017              	.LFE1422:
 1018              		.size	_ZNK10GuiElement12GetAlignmentEv, .-_ZNK10GuiElement12GetAlignmentEv
 1019              		.section	.text._ZN8GuiFrame4showEv,"axG",@progbits,_ZN8GuiFrame4showEv,comdat
 1020              		.align 2
 1021              		.weak	_ZN8GuiFrame4showEv
 1022              		.type	_ZN8GuiFrame4showEv, @function
 1023              	_ZN8GuiFrame4showEv:
 1024              	.LFB1431:
 1025              		.file 3 "d:/Projects/SaveGameManager/savegame-manager-gx/trunk/source/Prompts/../GUI/gui_frame.h"
 1026              		.loc 3 79 0
 1027              		.cfi_startproc
 1028              	.LVL82:
 1029              		.loc 3 79 0
 1030 0000 4E800020 		blr
 1031              		.cfi_endproc
 1032              	.LFE1431:
 1033              		.size	_ZN8GuiFrame4showEv, .-_ZN8GuiFrame4showEv
 1034              		.section	.text._ZN8GuiFrame4hideEv,"axG",@progbits,_ZN8GuiFrame4hideEv,comdat
 1035              		.align 2
 1036              		.weak	_ZN8GuiFrame4hideEv
 1037              		.type	_ZN8GuiFrame4hideEv, @function
 1038              	_ZN8GuiFrame4hideEv:
 1039              	.LFB1432:
 1040              		.loc 3 81 0
 1041              		.cfi_startproc
 1042              	.LVL83:
 1043              		.loc 3 81 0
 1044 0000 4E800020 		blr
 1045              		.cfi_endproc
 1046              	.LFE1432:
 1047              		.size	_ZN8GuiFrame4hideEv, .-_ZN8GuiFrame4hideEv
 1048              		.section	.text._ZN8GuiFrame4execEv,"axG",@progbits,_ZN8GuiFrame4execEv,comdat
 1049              		.align 2
 1050              		.weak	_ZN8GuiFrame4execEv
 1051              		.type	_ZN8GuiFrame4execEv, @function
 1052              	_ZN8GuiFrame4execEv:
 1053              	.LFB1433:
 1054              		.loc 3 83 0
 1055              		.cfi_startproc
 1056              	.LVL84:
 1057              		.loc 3 83 0
 1058 0000 4E800020 		blr
 1059              		.cfi_endproc
 1060              	.LFE1433:
 1061              		.size	_ZN8GuiFrame4execEv, .-_ZN8GuiFrame4execEv
 1062              		.section	.text._ZN8GuiFrame12updateEventsEv,"axG",@progbits,_ZN8GuiFrame12updateEventsEv,comdat
 1063              		.align 2
 1064              		.weak	_ZN8GuiFrame12updateEventsEv
 1065              		.type	_ZN8GuiFrame12updateEventsEv, @function
 1066              	_ZN8GuiFrame12updateEventsEv:
 1067              	.LFB1434:
 1068              		.loc 3 85 0
 1069              		.cfi_startproc
 1070              	.LVL85:
 1071              		.loc 3 85 0
 1072 0000 4E800020 		blr
 1073              		.cfi_endproc
 1074              	.LFE1434:
 1075              		.size	_ZN8GuiFrame12updateEventsEv, .-_ZN8GuiFrame12updateEventsEv
 1076              		.section	.text._ZN7sigslot12_signal_baseINS_15single_threadedEED2Ev,"axG",@progbits,_ZN7sigslot12_
 1077              		.align 2
 1078              		.weak	_ZN7sigslot12_signal_baseINS_15single_threadedEED2Ev
 1079              		.type	_ZN7sigslot12_signal_baseINS_15single_threadedEED2Ev, @function
 1080              	_ZN7sigslot12_signal_baseINS_15single_threadedEED2Ev:
 1081              	.LFB1672:
 1082              		.loc 1 466 0
 1083              		.cfi_startproc
 1084              	.LVL86:
 1085              	.LBB2215:
 1086              	.LBB2216:
 1087              	.LBB2217:
 1088              	.LBB2218:
 1089              		.loc 1 105 0
 1090 0000 3D200000 		lis 9,_ZTVN7sigslot15single_threadedE+8@ha
 1091              	.LBE2218:
 1092              	.LBE2217:
 1093              	.LBE2216:
 1094              	.LBE2215:
 1095              		.loc 1 466 0
 1096              	.LBB2222:
 1097              	.LBB2221:
 1098              	.LBB2220:
 1099              	.LBB2219:
 1100              		.loc 1 105 0
 1101 0004 38090008 		la 0,_ZTVN7sigslot15single_threadedE+8@l(9)
 1102 0008 90030000 		stw 0,0(3)
 1103              	.LBE2219:
 1104              	.LBE2220:
 1105              	.LBE2221:
 1106              	.LBE2222:
 1107              		.loc 1 466 0
 1108 000c 4E800020 		blr
 1109              		.cfi_endproc
 1110              	.LFE1672:
 1111              		.size	_ZN7sigslot12_signal_baseINS_15single_threadedEED2Ev, .-_ZN7sigslot12_signal_baseINS_15singl
 1112              		.section	.text._ZN7sigslot13_signal_base1IP13CreditsWindowNS_15single_threadedEE14slot_duplicateEP
 1113              		.align 2
 1114              		.weak	_ZN7sigslot13_signal_base1IP13CreditsWindowNS_15single_threadedEE14slot_duplicateEPKNS_9has_
 1115              		.type	_ZN7sigslot13_signal_base1IP13CreditsWindowNS_15single_threadedEE14slot_duplicateEPKNS_9has_
 1116              	_ZN7sigslot13_signal_base1IP13CreditsWindowNS_15single_threadedEE14slot_duplicateEPKNS_9has_slotsIS
 1117              	.LFB2016:
 1118              		.loc 1 685 0
 1119              		.cfi_startproc
 1120              		.cfi_personality 0,__gxx_personality_v0
 1121              		.cfi_lsda 0,.LLSDA2016
 1122              	.LVL87:
 1123 0000 7C0802A6 		mflr 0
 1124 0004 9421FFE0 		stwu 1,-32(1)
 1125              	.LCFI18:
 1126              		.cfi_def_cfa_offset 32
 1127              		.cfi_register 65, 0
 1128 0008 93410008 		stw 26,8(1)
 1129 000c 7CBA2B78 		mr 26,5
 1130              		.cfi_offset 26, -24
 1131 0010 90010024 		stw 0,36(1)
 1132 0014 9361000C 		stw 27,12(1)
 1133 0018 7C7B1B78 		mr 27,3
 1134              		.cfi_offset 27, -20
 1135              		.cfi_offset 65, 4
 1136              	.LVL88:
 1137              	.LBB2223:
 1138              	.LBB2224:
 1139              	.LBB2225:
 1140              		.loc 1 338 0
 1141 001c 81230000 		lwz 9,0(3)
 1142              	.LBE2225:
 1143              	.LBE2224:
 1144              	.LBE2223:
 1145              		.loc 1 685 0
 1146 0020 93A10014 		stw 29,20(1)
 1147 0024 7C9D2378 		mr 29,4
 1148              		.cfi_offset 29, -12
 1149              	.LBB2254:
 1150              	.LBB2230:
 1151              	.LBB2226:
 1152              		.loc 1 338 0
 1153 0028 80090008 		lwz 0,8(9)
 1154              	.LBE2226:
 1155              	.LBE2230:
 1156              	.LBE2254:
 1157              		.loc 1 685 0
 1158 002c 93C10018 		stw 30,24(1)
 1159              	.LBB2255:
 1160              	.LBB2231:
 1161              	.LBB2227:
 1162              		.file 4 "d:/Projects/SaveGameManager/savegame-manager-gx/trunk/source/Prompts/CreditsWindow.cpp"
 1163              		.loc 4 251 0
 1164 0030 7F7EDB78 		mr 30,27
 1165              		.cfi_offset 30, -8
 1166              	.LBE2227:
 1167              	.LBE2231:
 1168              	.LBE2255:
 1169              		.loc 1 685 0
 1170 0034 93E1001C 		stw 31,28(1)
 1171              	.LBB2256:
 1172              	.LBB2232:
 1173              	.LBB2228:
 1174              		.loc 1 338 0
 1175 0038 7C0903A6 		mtctr 0
 1176              	.LBE2228:
 1177              	.LBE2232:
 1178              	.LBE2256:
 1179              		.loc 1 685 0
 1180 003c 93810010 		stw 28,16(1)
 1181              	.LEHB0:
 1182              	.LBB2257:
 1183              	.LBB2233:
 1184              	.LBB2229:
 1185              		.loc 1 338 0
 1186              		.cfi_offset 28, -16
 1187              		.cfi_offset 31, -4
 1188 0040 4E800421 		bctrl
 1189              	.LEHE0:
 1190              	.LVL89:
 1191              		.loc 4 251 0
 1192 0044 87FE0004 		lwzu 31,4(30)
 1193              	.LVL90:
 1194              	.LBE2229:
 1195              	.LBE2233:
 1196              		.loc 1 691 0
 1197 0048 7F9FF000 		cmpw 7,31,30
 1198 004c 40BE0014 		bne+ 7,.L80
 1199 0050 48000070 		b .L71
 1200              	.LVL91:
 1201              	.L72:
 1202              	.LBB2234:
 1203              	.LBB2235:
 1204              		.file 5 "d:\\devkitpro\\devkitppc\\bin\\../lib/gcc/powerpc-eabi/4.6.3/../../../../powerpc-eabi/inc
 1205              		.loc 5 154 0
 1206 0054 83FF0000 		lwz 31,0(31)
 1207              	.LVL92:
 1208              	.LBE2235:
 1209              	.LBE2234:
 1210              		.loc 1 691 0
 1211 0058 7F9EF800 		cmpw 7,30,31
 1212 005c 419E0064 		beq- 7,.L71
 1213              	.LVL93:
 1214              	.L80:
 1215              		.loc 1 693 0
 1216 0060 807F0008 		lwz 3,8(31)
 1217 0064 81230000 		lwz 9,0(3)
 1218 0068 80090008 		lwz 0,8(9)
 1219 006c 7C0903A6 		mtctr 0
 1220              	.LEHB1:
 1221 0070 4E800421 		bctrl
 1222 0074 7F9D1800 		cmpw 7,29,3
 1223 0078 409EFFDC 		bne+ 7,.L72
 1224              	.LVL94:
 1225              		.loc 1 695 0
 1226 007c 807F0008 		lwz 3,8(31)
 1227 0080 7F44D378 		mr 4,26
 1228 0084 81230000 		lwz 9,0(3)
 1229 0088 80090014 		lwz 0,20(9)
 1230 008c 7C0903A6 		mtctr 0
 1231 0090 4E800421 		bctrl
 1232 0094 7C7C1B78 		mr 28,3
 1233              	.LVL95:
 1234              	.LBB2237:
 1235              	.LBB2238:
 1236              	.LBB2239:
 1237              	.LBB2240:
 1238              	.LBB2241:
 1239              	.LBB2242:
 1240              	.LBB2243:
 1241              	.LBB2244:
 1242              		.file 6 "d:\\devkitpro\\devkitppc\\bin\\../lib/gcc/powerpc-eabi/4.6.3/../../../../powerpc-eabi/inc
 1243              		.loc 6 92 0
 1244 0098 3860000C 		li 3,12
 1245 009c 48000001 		bl _Znwj
 1246              	.LEHE1:
 1247              	.LVL96:
 1248              	.LBE2244:
 1249              	.LBE2243:
 1250              	.LBE2242:
 1251              	.LBB2245:
 1252              	.LBB2246:
 1253              		.loc 6 108 0 discriminator 1
 1254 00a0 2F83FFF8 		cmpwi 7,3,-8
 1255 00a4 419E0008 		beq- 7,.L74
 1256              		.loc 6 108 0 is_stmt 0
 1257 00a8 93830008 		stw 28,8(3)
 1258              	.L74:
 1259              	.LVL97:
 1260              	.LBE2246:
 1261              	.LBE2245:
 1262              	.LBE2241:
 1263              	.LBE2240:
 1264              		.loc 5 1516 0 is_stmt 1
 1265 00ac 7FC4F378 		mr 4,30
 1266 00b0 48000001 		bl _ZNSt8__detail15_List_node_base7_M_hookEPS0_
 1267              	.LVL98:
 1268              	.LBE2239:
 1269              	.LBE2238:
 1270              	.LBE2237:
 1271              	.LBB2247:
 1272              	.LBB2236:
 1273              		.loc 5 154 0
 1274 00b4 83FF0000 		lwz 31,0(31)
 1275              	.LVL99:
 1276              	.LBE2236:
 1277              	.LBE2247:
 1278              		.loc 1 691 0
 1279 00b8 7F9EF800 		cmpw 7,30,31
 1280 00bc 409EFFA4 		bne+ 7,.L80
 1281              	.LVL100:
 1282              	.L71:
 1283              	.LBB2248:
 1284              	.LBB2249:
 1285              	.LBB2250:
 1286              		.loc 1 343 0
 1287 00c0 813B0000 		lwz 9,0(27)
 1288 00c4 7F63DB78 		mr 3,27
 1289 00c8 8009000C 		lwz 0,12(9)
 1290 00cc 7C0903A6 		mtctr 0
 1291              	.LEHB2:
 1292 00d0 4E800421 		bctrl
 1293              	.LEHE2:
 1294              	.LBE2250:
 1295              	.LBE2249:
 1296              	.LBE2248:
 1297              	.LBE2257:
 1298              		.loc 1 700 0
 1299 00d4 80010024 		lwz 0,36(1)
 1300 00d8 83410008 		lwz 26,8(1)
 1301              	.LVL101:
 1302 00dc 7C0803A6 		mtlr 0
 1303 00e0 8361000C 		lwz 27,12(1)
 1304              	.LVL102:
 1305 00e4 83810010 		lwz 28,16(1)
 1306 00e8 83A10014 		lwz 29,20(1)
 1307              	.LVL103:
 1308 00ec 83C10018 		lwz 30,24(1)
 1309              	.LVL104:
 1310 00f0 83E1001C 		lwz 31,28(1)
 1311              	.LVL105:
 1312 00f4 38210020 		addi 1,1,32
 1313              		.cfi_remember_state
 1314              	.LCFI19:
 1315              		.cfi_def_cfa_offset 0
 1316              		.cfi_restore 31
 1317              		.cfi_restore 30
 1318              		.cfi_restore 29
 1319              		.cfi_restore 28
 1320              		.cfi_restore 27
 1321              		.cfi_restore 26
 1322 00f8 4E800020 		blr
 1323              	.LVL106:
 1324              	.L79:
 1325              	.LCFI20:
 1326              		.cfi_restore_state
 1327              	.LBB2258:
 1328              	.LBB2251:
 1329              	.LBB2252:
 1330              	.LBB2253:
 1331              		.loc 1 343 0
 1332 00fc 813B0000 		lwz 9,0(27)
 1333 0100 7C7F1B78 		mr 31,3
 1334              	.LVL107:
 1335 0104 7F63DB78 		mr 3,27
 1336 0108 8009000C 		lwz 0,12(9)
 1337 010c 7C0903A6 		mtctr 0
 1338 0110 4E800421 		bctrl
 1339 0114 7FE3FB78 		mr 3,31
 1340              	.LEHB3:
 1341 0118 48000001 		bl _Unwind_Resume
 1342              	.LEHE3:
 1343              	.LBE2253:
 1344              	.LBE2252:
 1345              	.LBE2251:
 1346              	.LBE2258:
 1347              		.cfi_endproc
 1348              	.LFE2016:
 1349              		.globl __gxx_personality_v0
 1350              		.section	.gcc_except_table,"a",@progbits
 1351              	.LLSDA2016:
 1352 0000 FF       		.byte	0xff
 1353 0001 FF       		.byte	0xff
 1354 0002 01       		.byte	0x1
 1355 0003 13       		.uleb128 .LLSDACSE2016-.LLSDACSB2016
 1356              	.LLSDACSB2016:
 1357 0004 40       		.uleb128 .LEHB0-.LFB2016
 1358 0005 04       		.uleb128 .LEHE0-.LEHB0
 1359 0006 00       		.uleb128 0
 1360 0007 00       		.uleb128 0
 1361 0008 70       		.uleb128 .LEHB1-.LFB2016
 1362 0009 30       		.uleb128 .LEHE1-.LEHB1
 1363 000a FC01     		.uleb128 .L79-.LFB2016
 1364 000c 00       		.uleb128 0
 1365 000d D001     		.uleb128 .LEHB2-.LFB2016
 1366 000f 04       		.uleb128 .LEHE2-.LEHB2
 1367 0010 00       		.uleb128 0
 1368 0011 00       		.uleb128 0
 1369 0012 9802     		.uleb128 .LEHB3-.LFB2016
 1370 0014 04       		.uleb128 .LEHE3-.LEHB3
 1371 0015 00       		.uleb128 0
 1372 0016 00       		.uleb128 0
 1373              	.LLSDACSE2016:
 1374              		.section	.text._ZN7sigslot13_signal_base1IP13CreditsWindowNS_15single_threadedEE14slot_duplicateEP
 1375              		.size	_ZN7sigslot13_signal_base1IP13CreditsWindowNS_15single_threadedEE14slot_duplicateEPKNS_9has_
 1376              		.section	.text._ZN7sigslot12_signal_baseINS_15single_threadedEED0Ev,"axG",@progbits,_ZN7sigslot12_
 1377              		.align 2
 1378              		.weak	_ZN7sigslot12_signal_baseINS_15single_threadedEED0Ev
 1379              		.type	_ZN7sigslot12_signal_baseINS_15single_threadedEED0Ev, @function
 1380              	_ZN7sigslot12_signal_baseINS_15single_threadedEED0Ev:
 1381              	.LFB1674:
 1382              		.loc 1 466 0
 1383              		.cfi_startproc
 1384              	.LVL108:
 1385 0000 7C0802A6 		mflr 0
 1386 0004 9421FFF8 		stwu 1,-8(1)
 1387              	.LCFI21:
 1388              		.cfi_def_cfa_offset 8
 1389              		.cfi_register 65, 0
 1390              	.LBB2259:
 1391              	.LBB2260:
 1392              	.LBB2261:
 1393              	.LBB2262:
 1394              	.LBB2263:
 1395              	.LBB2264:
 1396              		.loc 1 105 0
 1397 0008 3D200000 		lis 9,_ZTVN7sigslot15single_threadedE+8@ha
 1398              	.LBE2264:
 1399              	.LBE2263:
 1400              	.LBE2262:
 1401              	.LBE2261:
 1402              	.LBE2260:
 1403              	.LBE2259:
 1404              		.loc 1 466 0
 1405 000c 9001000C 		stw 0,12(1)
 1406              	.LBB2270:
 1407              	.LBB2269:
 1408              	.LBB2268:
 1409              	.LBB2267:
 1410              	.LBB2266:
 1411              	.LBB2265:
 1412              		.loc 1 105 0
 1413 0010 38090008 		la 0,_ZTVN7sigslot15single_threadedE+8@l(9)
 1414              		.cfi_offset 65, 4
 1415 0014 90030000 		stw 0,0(3)
 1416              	.LBE2265:
 1417              	.LBE2266:
 1418              	.LBE2267:
 1419              	.LBE2268:
 1420              	.LBE2269:
 1421              	.LBE2270:
 1422              		.loc 1 466 0
 1423 0018 48000001 		bl _ZdlPv
 1424              	.LVL109:
 1425 001c 8001000C 		lwz 0,12(1)
 1426 0020 38210008 		addi 1,1,8
 1427              	.LCFI22:
 1428              		.cfi_def_cfa_offset 0
 1429 0024 7C0803A6 		mtlr 0
 1430 0028 4E800020 		blr
 1431              		.cfi_endproc
 1432              	.LFE1674:
 1433              		.size	_ZN7sigslot12_signal_baseINS_15single_threadedEED0Ev, .-_ZN7sigslot12_signal_baseINS_15singl
 1434              		.section	.text._ZN7sigslot15single_threadedD0Ev,"axG",@progbits,_ZN7sigslot15single_threadedD5Ev,c
 1435              		.align 2
 1436              		.weak	_ZN7sigslot15single_threadedD0Ev
 1437              		.type	_ZN7sigslot15single_threadedD0Ev, @function
 1438              	_ZN7sigslot15single_threadedD0Ev:
 1439              	.LFB1150:
 1440              		.loc 1 104 0
 1441              		.cfi_startproc
 1442              	.LVL110:
 1443 0000 7C0802A6 		mflr 0
 1444 0004 9421FFF8 		stwu 1,-8(1)
 1445              	.LCFI23:
 1446              		.cfi_def_cfa_offset 8
 1447              		.cfi_register 65, 0
 1448              	.LBB2271:
 1449              	.LBB2272:
 1450              	.LBB2273:
 1451              		.loc 1 105 0
 1452 0008 3D200000 		lis 9,_ZTVN7sigslot15single_threadedE+8@ha
 1453              	.LBE2273:
 1454              	.LBE2272:
 1455              	.LBE2271:
 1456              		.loc 1 104 0
 1457 000c 9001000C 		stw 0,12(1)
 1458              	.LBB2276:
 1459              	.LBB2275:
 1460              	.LBB2274:
 1461              		.loc 1 105 0
 1462 0010 38090008 		la 0,_ZTVN7sigslot15single_threadedE+8@l(9)
 1463              		.cfi_offset 65, 4
 1464 0014 90030000 		stw 0,0(3)
 1465              	.LBE2274:
 1466              	.LBE2275:
 1467              	.LBE2276:
 1468              		.loc 1 107 0
 1469 0018 48000001 		bl _ZdlPv
 1470              	.LVL111:
 1471 001c 8001000C 		lwz 0,12(1)
 1472 0020 38210008 		addi 1,1,8
 1473              	.LCFI24:
 1474              		.cfi_def_cfa_offset 0
 1475 0024 7C0803A6 		mtlr 0
 1476 0028 4E800020 		blr
 1477              		.cfi_endproc
 1478              	.LFE1150:
 1479              		.size	_ZN7sigslot15single_threadedD0Ev, .-_ZN7sigslot15single_threadedD0Ev
 1480              		.section	.text._ZN7sigslot13_signal_base1IP13CreditsWindowNS_15single_threadedEE15slot_disconnectE
 1481              		.align 2
 1482              		.weak	_ZN7sigslot13_signal_base1IP13CreditsWindowNS_15single_threadedEE15slot_disconnectEPNS_9has_
 1483              		.type	_ZN7sigslot13_signal_base1IP13CreditsWindowNS_15single_threadedEE15slot_disconnectEPNS_9has_
 1484              	_ZN7sigslot13_signal_base1IP13CreditsWindowNS_15single_threadedEE15slot_disconnectEPNS_9has_slotsIS
 1485              	.LFB2015:
 1486              		.loc 1 749 0
 1487              		.cfi_startproc
 1488              		.cfi_personality 0,__gxx_personality_v0
 1489              		.cfi_lsda 0,.LLSDA2015
 1490              	.LVL112:
 1491 0000 7C0802A6 		mflr 0
 1492 0004 9421FFE0 		stwu 1,-32(1)
 1493              	.LCFI25:
 1494              		.cfi_def_cfa_offset 32
 1495              		.cfi_register 65, 0
 1496 0008 9361000C 		stw 27,12(1)
 1497 000c 7C7B1B78 		mr 27,3
 1498              		.cfi_offset 27, -20
 1499              	.LVL113:
 1500 0010 90010024 		stw 0,36(1)
 1501 0014 93810010 		stw 28,16(1)
 1502 0018 7C9C2378 		mr 28,4
 1503              		.cfi_offset 28, -16
 1504              		.cfi_offset 65, 4
 1505              	.LBB2277:
 1506              	.LBB2278:
 1507              	.LBB2279:
 1508              		.loc 1 338 0
 1509 001c 81230000 		lwz 9,0(3)
 1510              	.LBE2279:
 1511              	.LBE2278:
 1512              	.LBE2277:
 1513              		.loc 1 749 0
 1514 0020 93A10014 		stw 29,20(1)
 1515              	.LBB2300:
 1516              	.LBB2282:
 1517              	.LBB2280:
 1518              		.loc 4 251 0
 1519 0024 7F7DDB78 		mr 29,27
 1520              		.cfi_offset 29, -12
 1521              		.loc 1 338 0
 1522 0028 80090008 		lwz 0,8(9)
 1523              	.LBE2280:
 1524              	.LBE2282:
 1525              	.LBE2300:
 1526              		.loc 1 749 0
 1527 002c 93E1001C 		stw 31,28(1)
 1528 0030 93C10018 		stw 30,24(1)
 1529              	.LBB2301:
 1530              	.LBB2283:
 1531              	.LBB2281:
 1532              		.loc 1 338 0
 1533 0034 7C0903A6 		mtctr 0
 1534              	.LEHB4:
 1535              		.cfi_offset 30, -8
 1536              		.cfi_offset 31, -4
 1537 0038 4E800421 		bctrl
 1538              	.LEHE4:
 1539              	.LVL114:
 1540              		.loc 4 251 0
 1541 003c 87FD0004 		lwzu 31,4(29)
 1542              	.LVL115:
 1543              	.LBE2281:
 1544              	.LBE2283:
 1545              		.loc 1 755 0
 1546 0040 7F9FE800 		cmpw 7,31,29
 1547 0044 40BE0014 		bne+ 7,.L101
 1548 0048 48000064 		b .L90
 1549              	.LVL116:
 1550              	.L91:
 1551              		.loc 1 755 0 is_stmt 0 discriminator 1
 1552 004c 7F9DF000 		cmpw 7,29,30
 1553 0050 419E005C 		beq- 7,.L90
 1554              	.L99:
 1555              		.loc 1 755 0
 1556 0054 7FDFF378 		mr 31,30
 1557              	.LVL117:
 1558              	.L101:
 1559              	.LBB2284:
 1560              		.loc 1 760 0 is_stmt 1
 1561 0058 807F0008 		lwz 3,8(31)
 1562              	.LBB2285:
 1563              	.LBB2286:
 1564              		.loc 5 154 0
 1565 005c 83DF0000 		lwz 30,0(31)
 1566              	.LVL118:
 1567              	.LBE2286:
 1568              	.LBE2285:
 1569              		.loc 1 760 0
 1570 0060 81230000 		lwz 9,0(3)
 1571 0064 80090008 		lwz 0,8(9)
 1572 0068 7C0903A6 		mtctr 0
 1573              	.LEHB5:
 1574 006c 4E800421 		bctrl
 1575              	.LVL119:
 1576 0070 7F9C1800 		cmpw 7,28,3
 1577 0074 409EFFD8 		bne+ 7,.L91
 1578              	.LVL120:
 1579              		.loc 1 762 0
 1580 0078 807F0008 		lwz 3,8(31)
 1581 007c 2F830000 		cmpwi 7,3,0
 1582 0080 419E0014 		beq- 7,.L92
 1583              		.loc 1 762 0 is_stmt 0 discriminator 1
 1584 0084 81230000 		lwz 9,0(3)
 1585 0088 80090004 		lwz 0,4(9)
 1586 008c 7C0903A6 		mtctr 0
 1587 0090 4E800421 		bctrl
 1588              	.LEHE5:
 1589              	.L92:
 1590              	.LVL121:
 1591              	.LBB2287:
 1592              	.LBB2288:
 1593              	.LBB2289:
 1594              	.LBB2290:
 1595              		.loc 5 1532 0 is_stmt 1
 1596 0094 7FE3FB78 		mr 3,31
 1597 0098 48000001 		bl _ZNSt8__detail15_List_node_base9_M_unhookEv
 1598              	.LVL122:
 1599              	.LBB2291:
 1600              	.LBB2292:
 1601              	.LBB2293:
 1602              		.loc 6 98 0
 1603 009c 7FE3FB78 		mr 3,31
 1604 00a0 48000001 		bl _ZdlPv
 1605              	.LVL123:
 1606              	.LBE2293:
 1607              	.LBE2292:
 1608              	.LBE2291:
 1609              	.LBE2290:
 1610              	.LBE2289:
 1611              	.LBE2288:
 1612              	.LBE2287:
 1613              	.LBE2284:
 1614              		.loc 1 755 0
 1615 00a4 7F9DF000 		cmpw 7,29,30
 1616 00a8 409EFFAC 		bne+ 7,.L99
 1617              	.LVL124:
 1618              	.L90:
 1619              	.LBB2294:
 1620              	.LBB2295:
 1621              	.LBB2296:
 1622              		.loc 1 343 0
 1623 00ac 813B0000 		lwz 9,0(27)
 1624 00b0 7F63DB78 		mr 3,27
 1625 00b4 8009000C 		lwz 0,12(9)
 1626 00b8 7C0903A6 		mtctr 0
 1627              	.LEHB6:
 1628 00bc 4E800421 		bctrl
 1629              	.LEHE6:
 1630              	.LBE2296:
 1631              	.LBE2295:
 1632              	.LBE2294:
 1633              	.LBE2301:
 1634              		.loc 1 769 0
 1635 00c0 80010024 		lwz 0,36(1)
 1636 00c4 8361000C 		lwz 27,12(1)
 1637              	.LVL125:
 1638 00c8 7C0803A6 		mtlr 0
 1639 00cc 83810010 		lwz 28,16(1)
 1640              	.LVL126:
 1641 00d0 83A10014 		lwz 29,20(1)
 1642              	.LVL127:
 1643 00d4 83C10018 		lwz 30,24(1)
 1644 00d8 83E1001C 		lwz 31,28(1)
 1645 00dc 38210020 		addi 1,1,32
 1646              		.cfi_remember_state
 1647              	.LCFI26:
 1648              		.cfi_def_cfa_offset 0
 1649              		.cfi_restore 31
 1650              		.cfi_restore 30
 1651              		.cfi_restore 29
 1652              		.cfi_restore 28
 1653              		.cfi_restore 27
 1654 00e0 4E800020 		blr
 1655              	.LVL128:
 1656              	.L100:
 1657              	.LCFI27:
 1658              		.cfi_restore_state
 1659              	.LBB2302:
 1660              	.LBB2297:
 1661              	.LBB2298:
 1662              	.LBB2299:
 1663              		.loc 1 343 0
 1664 00e4 813B0000 		lwz 9,0(27)
 1665 00e8 7C7F1B78 		mr 31,3
 1666              	.LVL129:
 1667 00ec 7F63DB78 		mr 3,27
 1668 00f0 8009000C 		lwz 0,12(9)
 1669 00f4 7C0903A6 		mtctr 0
 1670 00f8 4E800421 		bctrl
 1671 00fc 7FE3FB78 		mr 3,31
 1672              	.LEHB7:
 1673 0100 48000001 		bl _Unwind_Resume
 1674              	.LEHE7:
 1675              	.LBE2299:
 1676              	.LBE2298:
 1677              	.LBE2297:
 1678              	.LBE2302:
 1679              		.cfi_endproc
 1680              	.LFE2015:
 1681              		.section	.gcc_except_table
 1682              	.LLSDA2015:
 1683 0017 FF       		.byte	0xff
 1684 0018 FF       		.byte	0xff
 1685 0019 01       		.byte	0x1
 1686 001a 13       		.uleb128 .LLSDACSE2015-.LLSDACSB2015
 1687              	.LLSDACSB2015:
 1688 001b 38       		.uleb128 .LEHB4-.LFB2015
 1689 001c 04       		.uleb128 .LEHE4-.LEHB4
 1690 001d 00       		.uleb128 0
 1691 001e 00       		.uleb128 0
 1692 001f 6C       		.uleb128 .LEHB5-.LFB2015
 1693 0020 28       		.uleb128 .LEHE5-.LEHB5
 1694 0021 E401     		.uleb128 .L100-.LFB2015
 1695 0023 00       		.uleb128 0
 1696 0024 BC01     		.uleb128 .LEHB6-.LFB2015
 1697 0026 04       		.uleb128 .LEHE6-.LEHB6
 1698 0027 00       		.uleb128 0
 1699 0028 00       		.uleb128 0
 1700 0029 8002     		.uleb128 .LEHB7-.LFB2015
 1701 002b 04       		.uleb128 .LEHE7-.LEHB7
 1702 002c 00       		.uleb128 0
 1703 002d 00       		.uleb128 0
 1704              	.LLSDACSE2015:
 1705              		.section	.text._ZN7sigslot13_signal_base1IP13CreditsWindowNS_15single_threadedEE15slot_disconnectE
 1706              		.size	_ZN7sigslot13_signal_base1IP13CreditsWindowNS_15single_threadedEE15slot_disconnectEPNS_9has_
 1707              		.section	".text"
 1708              		.align 2
 1709              		.globl _ZN13CreditsWindow6UpdateEP10GuiTrigger
 1710              		.type	_ZN13CreditsWindow6UpdateEP10GuiTrigger, @function
 1711              	_ZN13CreditsWindow6UpdateEP10GuiTrigger:
 1712              	.LFB1627:
 1713              		.loc 4 239 0
 1714              		.cfi_startproc
 1715              		.cfi_personality 0,__gxx_personality_v0
 1716              		.cfi_lsda 0,.LLSDA1627
 1717              	.LVL130:
 1718 0000 9421FFD8 		stwu 1,-40(1)
 1719              	.LCFI28:
 1720              		.cfi_def_cfa_offset 40
 1721 0004 7C0802A6 		mflr 0
 1722 0008 93810018 		stw 28,24(1)
 1723              		.loc 4 240 0
 1724 000c 7C9C2379 		mr. 28,4
 1725              		.cfi_offset 28, -16
 1726              		.cfi_register 65, 0
 1727              		.loc 4 239 0
 1728 0010 93C10020 		stw 30,32(1)
 1729 0014 7C7E1B78 		mr 30,3
 1730              		.cfi_offset 30, -8
 1731 0018 9001002C 		stw 0,44(1)
 1732 001c 93610014 		stw 27,20(1)
 1733 0020 93A1001C 		stw 29,28(1)
 1734 0024 93E10024 		stw 31,36(1)
 1735              		.loc 4 240 0
 1736 0028 418200DC 		beq- 0,.L102
 1737              		.cfi_offset 31, -4
 1738              		.cfi_offset 29, -12
 1739              		.cfi_offset 27, -20
 1740              		.cfi_offset 65, 4
 1741              		.loc 4 240 0 is_stmt 0 discriminator 1
 1742 002c 80030048 		lwz 0,72(3)
 1743 0030 2F800004 		cmpwi 7,0,4
 1744 0034 419E00D0 		beq- 7,.L102
 1745              		.loc 4 243 0 is_stmt 1
 1746 0038 812300C0 		lwz 9,192(3)
 1747 003c 2F890168 		cmpwi 7,9,360
 1748 0040 39290001 		addi 9,9,1
 1749 0044 912300C0 		stw 9,192(3)
 1750 0048 409D000C 		ble- 7,.L104
 1751              		.loc 4 243 0 is_stmt 0 discriminator 1
 1752 004c 38000000 		li 0,0
 1753 0050 900300C0 		stw 0,192(3)
 1754              	.L104:
 1755              		.loc 4 244 0 is_stmt 1
 1756 0054 38602EE0 		li 3,12000
 1757              	.LVL131:
 1758              	.LEHB8:
 1759 0058 48000001 		bl usleep
 1760              	.LVL132:
 1761              		.loc 4 245 0
 1762 005c 801E00C0 		lwz 0,192(30)
 1763 0060 3D200000 		lis 9,.LC1@ha
 1764 0064 6C008000 		xoris 0,0,0x8000
 1765 0068 C0090000 		lfs 0,.LC1@l(9)
 1766 006c 9001000C 		stw 0,12(1)
 1767 0070 3C004330 		lis 0,0x4330
 1768 0074 90010008 		stw 0,8(1)
 1769 0078 C8210008 		lfd 1,8(1)
 1770 007c 807E00D4 		lwz 3,212(30)
 1771 0080 FC210028 		fsub 1,1,0
 1772 0084 FC200818 		frsp 1,1
 1773 0088 48000001 		bl _ZN8GuiImage8SetAngleEf
 1774              		.loc 4 247 0
 1775 008c 48000001 		bl _Z13ButtonPressedv
 1776 0090 2F830000 		cmpwi 7,3,0
 1777 0094 419E0064 		beq- 7,.L105
 1778              	.LVL133:
 1779              	.LBB2303:
 1780              	.LBB2304:
 1781              	.LBB2305:
 1782              	.LBB2306:
 1783              		.loc 1 338 0
 1784 0098 813E00B0 		lwz 9,176(30)
 1785              	.LBE2306:
 1786              	.LBE2305:
 1787              		.loc 1 2203 0
 1788 009c 3B7E00B0 		addi 27,30,176
 1789              	.LVL134:
 1790              	.LBB2309:
 1791              	.LBB2307:
 1792              		.loc 1 338 0
 1793 00a0 7F63DB78 		mr 3,27
 1794              	.LBE2307:
 1795              	.LBE2309:
 1796              	.LBE2304:
 1797              		.loc 4 251 0
 1798 00a4 7FDDF378 		mr 29,30
 1799              	.LBB2319:
 1800              	.LBB2310:
 1801              	.LBB2308:
 1802              		.loc 1 338 0
 1803 00a8 80090008 		lwz 0,8(9)
 1804 00ac 7C0903A6 		mtctr 0
 1805 00b0 4E800421 		bctrl
 1806              	.LEHE8:
 1807              	.LVL135:
 1808              	.LBE2308:
 1809              	.LBE2310:
 1810              	.LBE2319:
 1811              		.loc 4 251 0
 1812 00b4 87FD00B4 		lwzu 31,180(29)
 1813              	.LVL136:
 1814              	.LBB2320:
 1815              		.loc 1 2207 0
 1816 00b8 7F9FE800 		cmpw 7,31,29
 1817 00bc 419E0028 		beq- 7,.L106
 1818              	.LVL137:
 1819              	.L112:
 1820              		.loc 1 2212 0
 1821 00c0 807F0008 		lwz 3,8(31)
 1822 00c4 7FC4F378 		mr 4,30
 1823              	.LBB2311:
 1824              	.LBB2312:
 1825              		.loc 5 234 0
 1826 00c8 83FF0000 		lwz 31,0(31)
 1827              	.LVL138:
 1828              	.LBE2312:
 1829              	.LBE2311:
 1830              		.loc 1 2212 0
 1831 00cc 81230000 		lwz 9,0(3)
 1832 00d0 8009000C 		lwz 0,12(9)
 1833 00d4 7C0903A6 		mtctr 0
 1834              	.LEHB9:
 1835 00d8 4E800421 		bctrl
 1836              	.LEHE9:
 1837              	.LVL139:
 1838              		.loc 1 2207 0
 1839 00dc 7F9DF800 		cmpw 7,29,31
 1840 00e0 409EFFE0 		bne+ 7,.L112
 1841              	.LVL140:
 1842              	.L106:
 1843              	.LBB2313:
 1844              	.LBB2314:
 1845              	.LBB2315:
 1846              		.loc 1 343 0
 1847 00e4 813E00B0 		lwz 9,176(30)
 1848 00e8 7F63DB78 		mr 3,27
 1849 00ec 8009000C 		lwz 0,12(9)
 1850 00f0 7C0903A6 		mtctr 0
 1851              	.LEHB10:
 1852 00f4 4E800421 		bctrl
 1853              	.LVL141:
 1854              	.L105:
 1855              	.LBE2315:
 1856              	.LBE2314:
 1857              	.LBE2313:
 1858              	.LBE2320:
 1859              	.LBE2303:
 1860              		.loc 4 250 0
 1861 00f8 7FC3F378 		mr 3,30
 1862 00fc 7F84E378 		mr 4,28
 1863 0100 48000001 		bl _ZN8GuiFrame6UpdateEP10GuiTrigger
 1864              	.LEHE10:
 1865              	.L102:
 1866              		.loc 4 251 0
 1867 0104 8001002C 		lwz 0,44(1)
 1868 0108 83610014 		lwz 27,20(1)
 1869 010c 7C0803A6 		mtlr 0
 1870 0110 83810018 		lwz 28,24(1)
 1871              	.LVL142:
 1872 0114 83A1001C 		lwz 29,28(1)
 1873 0118 83C10020 		lwz 30,32(1)
 1874              	.LVL143:
 1875 011c 83E10024 		lwz 31,36(1)
 1876 0120 38210028 		addi 1,1,40
 1877              		.cfi_remember_state
 1878              	.LCFI29:
 1879              		.cfi_def_cfa_offset 0
 1880              		.cfi_restore 31
 1881              		.cfi_restore 30
 1882              		.cfi_restore 29
 1883              		.cfi_restore 28
 1884              		.cfi_restore 27
 1885 0124 4E800020 		blr
 1886              	.LVL144:
 1887              	.L111:
 1888              	.LCFI30:
 1889              		.cfi_restore_state
 1890              	.LBB2322:
 1891              	.LBB2321:
 1892              	.LBB2316:
 1893              	.LBB2317:
 1894              	.LBB2318:
 1895              		.loc 1 343 0
 1896 0128 813E00B0 		lwz 9,176(30)
 1897 012c 7C7F1B78 		mr 31,3
 1898              	.LVL145:
 1899 0130 7F63DB78 		mr 3,27
 1900 0134 8009000C 		lwz 0,12(9)
 1901 0138 7C0903A6 		mtctr 0
 1902 013c 4E800421 		bctrl
 1903 0140 7FE3FB78 		mr 3,31
 1904              	.LEHB11:
 1905 0144 48000001 		bl _Unwind_Resume
 1906              	.LEHE11:
 1907              	.LBE2318:
 1908              	.LBE2317:
 1909              	.LBE2316:
 1910              	.LBE2321:
 1911              	.LBE2322:
 1912              		.cfi_endproc
 1913              	.LFE1627:
 1914              		.section	.gcc_except_table
 1915              	.LLSDA1627:
 1916 002e FF       		.byte	0xff
 1917 002f FF       		.byte	0xff
 1918 0030 01       		.byte	0x1
 1919 0031 14       		.uleb128 .LLSDACSE1627-.LLSDACSB1627
 1920              	.LLSDACSB1627:
 1921 0032 58       		.uleb128 .LEHB8-.LFB1627
 1922 0033 5C       		.uleb128 .LEHE8-.LEHB8
 1923 0034 00       		.uleb128 0
 1924 0035 00       		.uleb128 0
 1925 0036 D801     		.uleb128 .LEHB9-.LFB1627
 1926 0038 04       		.uleb128 .LEHE9-.LEHB9
 1927 0039 A802     		.uleb128 .L111-.LFB1627
 1928 003b 00       		.uleb128 0
 1929 003c F401     		.uleb128 .LEHB10-.LFB1627
 1930 003e 10       		.uleb128 .LEHE10-.LEHB10
 1931 003f 00       		.uleb128 0
 1932 0040 00       		.uleb128 0
 1933 0041 C402     		.uleb128 .LEHB11-.LFB1627
 1934 0043 04       		.uleb128 .LEHE11-.LEHB11
 1935 0044 00       		.uleb128 0
 1936 0045 00       		.uleb128 0
 1937              	.LLSDACSE1627:
 1938              		.section	".text"
 1939              		.size	_ZN13CreditsWindow6UpdateEP10GuiTrigger, .-_ZN13CreditsWindow6UpdateEP10GuiTrigger
 1940              		.section	.text._ZNSt6vectorIP10GuiElementSaIS1_EE13_M_insert_auxEN9__gnu_cxx17__normal_iteratorIPS
 1941              		.align 2
 1942              		.weak	_ZNSt6vectorIP10GuiElementSaIS1_EE13_M_insert_auxEN9__gnu_cxx17__normal_iteratorIPS1_S3_EERK
 1943              		.type	_ZNSt6vectorIP10GuiElementSaIS1_EE13_M_insert_auxEN9__gnu_cxx17__normal_iteratorIPS1_S3_EERK
 1944              	_ZNSt6vectorIP10GuiElementSaIS1_EE13_M_insert_auxEN9__gnu_cxx17__normal_iteratorIPS1_S3_EERKS1_:
 1945              	.LFB1707:
 1946              		.file 7 "d:\\devkitpro\\devkitppc\\bin\\../lib/gcc/powerpc-eabi/4.6.3/../../../../powerpc-eabi/inc
 1947              		.loc 7 300 0
 1948              		.cfi_startproc
 1949              	.LVL146:
 1950 0000 7C0802A6 		mflr 0
 1951 0004 9421FFD8 		stwu 1,-40(1)
 1952              	.LCFI31:
 1953              		.cfi_def_cfa_offset 40
 1954              		.cfi_register 65, 0
 1955 0008 93610014 		stw 27,20(1)
 1956 000c 9001002C 		stw 0,44(1)
 1957 0010 93C10020 		stw 30,32(1)
 1958              	.LBB2385:
 1959              		.loc 7 304 0
 1960 0014 83630004 		lwz 27,4(3)
 1961              		.cfi_offset 30, -8
 1962              		.cfi_offset 65, 4
 1963              		.cfi_offset 27, -20
 1964 0018 80030008 		lwz 0,8(3)
 1965              	.LBE2385:
 1966              		.loc 7 300 0
 1967 001c 93E10024 		stw 31,36(1)
 1968 0020 7C7F1B78 		mr 31,3
 1969              		.cfi_offset 31, -4
 1970              	.LBB2510:
 1971              		.loc 7 304 0
 1972 0024 7F9B0000 		cmpw 7,27,0
 1973              	.LBE2510:
 1974              		.loc 7 300 0
 1975 0028 93410010 		stw 26,16(1)
 1976 002c 93810018 		stw 28,24(1)
 1977 0030 93A1001C 		stw 29,28(1)
 1978              		.loc 7 300 0
 1979 0034 83C40000 		lwz 30,0(4)
 1980              	.LVL147:
 1981              	.LBB2511:
 1982              		.loc 7 304 0
 1983 0038 419E0078 		beq- 7,.L114
 1984              		.cfi_offset 29, -12
 1985              		.cfi_offset 28, -16
 1986              		.cfi_offset 26, -24
 1987              	.LVL148:
 1988              	.LBB2386:
 1989              	.LBB2387:
 1990              	.LBB2388:
 1991              		.loc 6 108 0
 1992 003c 2F9B0000 		cmpwi 7,27,0
 1993 0040 38600000 		li 3,0
 1994              	.LVL149:
 1995 0044 419E0010 		beq- 7,.L115
 1996 0048 801BFFFC 		lwz 0,-4(27)
 1997 004c 901B0000 		stw 0,0(27)
 1998 0050 807F0004 		lwz 3,4(31)
 1999              	.L115:
 2000              	.LBE2388:
 2001              	.LBE2387:
 2002              		.loc 7 313 0
 2003 0054 3803FFFC 		addi 0,3,-4
 2004              		.loc 7 309 0
 2005 0058 39230004 		addi 9,3,4
 2006              	.LBB2389:
 2007              	.LBB2390:
 2008              	.LBB2391:
 2009              	.LBB2392:
 2010              	.LBB2393:
 2011              	.LBB2394:
 2012              		.file 8 "d:\\devkitpro\\devkitppc\\bin\\../lib/gcc/powerpc-eabi/4.6.3/../../../../powerpc-eabi/inc
 2013              		.loc 8 559 0
 2014 005c 7C1E0050 		subf 0,30,0
 2015              	.LBE2394:
 2016              	.LBE2393:
 2017              	.LBE2392:
 2018              	.LBE2391:
 2019              	.LBE2390:
 2020              	.LBE2389:
 2021              		.loc 7 309 0
 2022 0060 913F0004 		stw 9,4(31)
 2023              	.LBB2410:
 2024              	.LBB2407:
 2025              	.LBB2404:
 2026              	.LBB2401:
 2027              	.LBB2398:
 2028              	.LBB2395:
 2029              		.loc 8 560 0
 2030 0064 7C001671 		srawi. 0,0,2
 2031              	.LBE2395:
 2032              	.LBE2398:
 2033              	.LBE2401:
 2034              	.LBE2404:
 2035              	.LBE2407:
 2036              	.LBE2410:
 2037              		.loc 7 311 0
 2038 0068 83E50000 		lwz 31,0(5)
 2039              	.LVL150:
 2040              	.LBB2411:
 2041              	.LBB2408:
 2042              	.LBB2405:
 2043              	.LBB2402:
 2044              	.LBB2399:
 2045              	.LBB2396:
 2046              		.loc 8 560 0
 2047 006c 40820030 		bne- 0,.L130
 2048              	.LVL151:
 2049              	.L116:
 2050              	.LBE2396:
 2051              	.LBE2399:
 2052              	.LBE2402:
 2053              	.LBE2405:
 2054              	.LBE2408:
 2055              	.LBE2411:
 2056              	.LBE2386:
 2057              	.LBE2511:
 2058              		.loc 7 373 0
 2059 0070 8001002C 		lwz 0,44(1)
 2060              	.LBB2512:
 2061              	.LBB2413:
 2062              		.loc 7 317 0
 2063 0074 93FE0000 		stw 31,0(30)
 2064              	.LBE2413:
 2065              	.LBE2512:
 2066              		.loc 7 373 0
 2067 0078 7C0803A6 		mtlr 0
 2068 007c 83410010 		lwz 26,16(1)
 2069 0080 83610014 		lwz 27,20(1)
 2070              	.LVL152:
 2071 0084 83810018 		lwz 28,24(1)
 2072 0088 83A1001C 		lwz 29,28(1)
 2073 008c 83C10020 		lwz 30,32(1)
 2074              	.LVL153:
 2075 0090 83E10024 		lwz 31,36(1)
 2076              	.LVL154:
 2077 0094 38210028 		addi 1,1,40
 2078              		.cfi_remember_state
 2079              	.LCFI32:
 2080              		.cfi_def_cfa_offset 0
 2081              		.cfi_restore 31
 2082              		.cfi_restore 30
 2083              		.cfi_restore 29
 2084              		.cfi_restore 28
 2085              		.cfi_restore 27
 2086              		.cfi_restore 26
 2087 0098 4E800020 		blr
 2088              	.LVL155:
 2089              	.L130:
 2090              	.LCFI33:
 2091              		.cfi_restore_state
 2092              	.LBB2513:
 2093              	.LBB2414:
 2094              	.LBB2412:
 2095              	.LBB2409:
 2096              	.LBB2406:
 2097              	.LBB2403:
 2098              	.LBB2400:
 2099              	.LBB2397:
 2100              		.loc 8 561 0
 2101 009c 5405103A 		slwi 5,0,2
 2102              	.LVL156:
 2103 00a0 7FC4F378 		mr 4,30
 2104 00a4 7C651850 		subf 3,5,3
 2105              	.LVL157:
 2106 00a8 48000001 		bl memmove
 2107              	.LVL158:
 2108 00ac 4BFFFFC4 		b .L116
 2109              	.LVL159:
 2110              	.L114:
 2111              	.LBE2397:
 2112              	.LBE2400:
 2113              	.LBE2403:
 2114              	.LBE2406:
 2115              	.LBE2409:
 2116              	.LBE2412:
 2117              	.LBE2414:
 2118              	.LBB2415:
 2119              	.LBB2416:
 2120              	.LBB2417:
 2121              	.LBB2418:
 2122              	.LBB2419:
 2123              		.file 9 "d:\\devkitpro\\devkitppc\\bin\\../lib/gcc/powerpc-eabi/4.6.3/../../../../powerpc-eabi/inc
 2124              		.loc 9 571 0
 2125 00b0 83830000 		lwz 28,0(3)
 2126 00b4 7F7CD850 		subf 27,28,27
 2127              	.LBE2419:
 2128              	.LBE2418:
 2129              	.LBB2420:
 2130              	.LBB2421:
 2131              		.loc 8 215 0
 2132 00b8 7F7B1671 		srawi. 27,27,2
 2133 00bc 418200E8 		beq- 0,.L118
 2134              	.LBE2421:
 2135              	.LBE2420:
 2136              		.loc 9 1244 0
 2137 00c0 5760083C 		slwi 0,27,1
 2138              	.LVL160:
 2139              		.loc 9 1245 0
 2140 00c4 7F9B0040 		cmplw 7,27,0
 2141 00c8 409D00EC 		ble- 7,.L131
 2142              	.L119:
 2143              	.LVL161:
 2144              	.LBE2417:
 2145              	.LBE2416:
 2146              	.LBB2424:
 2147              	.LBB2425:
 2148              		.file 10 "d:\\devkitpro\\devkitppc\\bin\\../lib/gcc/powerpc-eabi/4.6.3/../../../../powerpc-eabi/in
 2149              		.loc 10 892 0
 2150 00cc 7F9CF050 		subf 28,28,30
 2151              	.LBE2425:
 2152              	.LBE2424:
 2153              		.loc 7 326 0
 2154 00d0 3B60FFFC 		li 27,-4
 2155              	.LBB2431:
 2156              	.LBB2426:
 2157              		.loc 10 892 0
 2158 00d4 7F9C1670 		srawi 28,28,2
 2159              	.LVL162:
 2160              	.L125:
 2161              	.LBE2426:
 2162              	.LBE2431:
 2163              	.LBB2432:
 2164              	.LBB2433:
 2165              	.LBB2434:
 2166              	.LBB2435:
 2167              		.loc 6 92 0
 2168 00d8 7F63DB78 		mr 3,27
 2169              	.LVL163:
 2170 00dc 90A10008 		stw 5,8(1)
 2171 00e0 48000001 		bl _Znwj
 2172              	.LVL164:
 2173 00e4 80A10008 		lwz 5,8(1)
 2174 00e8 7C7D1B78 		mr 29,3
 2175              	.L120:
 2176              	.LVL165:
 2177              	.LBE2435:
 2178              	.LBE2434:
 2179              	.LBE2433:
 2180              	.LBE2432:
 2181              		.loc 7 335 0
 2182 00ec 579C103A 		slwi 28,28,2
 2183              	.LVL166:
 2184 00f0 7C1DE214 		add 0,29,28
 2185              	.LVL167:
 2186              	.LBB2438:
 2187              	.LBB2439:
 2188              		.loc 6 108 0
 2189 00f4 2F800000 		cmpwi 7,0,0
 2190 00f8 419E000C 		beq- 7,.L121
 2191 00fc 80050000 		lwz 0,0(5)
 2192              	.LVL168:
 2193 0100 7C1DE12E 		stwx 0,29,28
 2194              	.L121:
 2195              	.LVL169:
 2196              	.LBE2439:
 2197              	.LBE2438:
 2198              		.loc 7 343 0
 2199 0104 809F0000 		lwz 4,0(31)
 2200              	.LVL170:
 2201              	.LBB2440:
 2202              	.LBB2441:
 2203              	.LBB2442:
 2204              	.LBB2443:
 2205              	.LBB2444:
 2206              	.LBB2445:
 2207              	.LBB2446:
 2208              	.LBB2447:
 2209              	.LBB2448:
 2210              	.LBB2449:
 2211              	.LBB2450:
 2212              		.loc 8 365 0
 2213 0108 3B800000 		li 28,0
 2214              		.loc 8 364 0
 2215 010c 7C04F050 		subf 0,4,30
 2216              	.LVL171:
 2217              		.loc 8 365 0
 2218 0110 7C001671 		srawi. 0,0,2
 2219              	.LVL172:
 2220 0114 41A20014 		beq+ 0,.L122
 2221              		.loc 8 366 0
 2222 0118 541C103A 		slwi 28,0,2
 2223 011c 7FA3EB78 		mr 3,29
 2224 0120 7F85E378 		mr 5,28
 2225              	.LVL173:
 2226 0124 48000001 		bl memmove
 2227              	.LVL174:
 2228              	.L122:
 2229              	.LBE2450:
 2230              	.LBE2449:
 2231              	.LBE2448:
 2232              	.LBE2447:
 2233              	.LBE2446:
 2234              	.LBE2445:
 2235              	.LBE2444:
 2236              	.LBE2443:
 2237              	.LBE2442:
 2238              	.LBE2441:
 2239              	.LBE2440:
 2240              	.LBB2461:
 2241              	.LBB2462:
 2242              	.LBB2463:
 2243              	.LBB2464:
 2244              	.LBB2465:
 2245              	.LBB2466:
 2246              	.LBB2467:
 2247              	.LBB2468:
 2248              	.LBB2469:
 2249              	.LBB2470:
 2250              	.LBB2471:
 2251              		.loc 8 364 0
 2252 0128 801F0004 		lwz 0,4(31)
 2253              	.LBE2471:
 2254              	.LBE2470:
 2255              	.LBE2469:
 2256              	.LBE2468:
 2257              	.LBE2467:
 2258              	.LBE2466:
 2259              	.LBE2465:
 2260              	.LBE2464:
 2261              	.LBE2463:
 2262              	.LBE2462:
 2263              	.LBE2461:
 2264              	.LBB2492:
 2265              	.LBB2460:
 2266              	.LBB2459:
 2267              	.LBB2458:
 2268              	.LBB2457:
 2269              	.LBB2456:
 2270              	.LBB2455:
 2271              	.LBB2454:
 2272              	.LBB2453:
 2273              	.LBB2452:
 2274              	.LBB2451:
 2275              		.loc 8 367 0
 2276 012c 7F9DE214 		add 28,29,28
 2277              	.LVL175:
 2278              	.LBE2451:
 2279              	.LBE2452:
 2280              	.LBE2453:
 2281              	.LBE2454:
 2282              	.LBE2455:
 2283              	.LBE2456:
 2284              	.LBE2457:
 2285              	.LBE2458:
 2286              	.LBE2459:
 2287              	.LBE2460:
 2288              	.LBE2492:
 2289              		.loc 7 347 0
 2290 0130 3B5C0004 		addi 26,28,4
 2291              	.LBB2493:
 2292              	.LBB2490:
 2293              	.LBB2488:
 2294              	.LBB2486:
 2295              	.LBB2484:
 2296              	.LBB2482:
 2297              	.LBB2480:
 2298              	.LBB2478:
 2299              	.LBB2476:
 2300              	.LBB2474:
 2301              	.LBB2472:
 2302              		.loc 8 365 0
 2303 0134 3B800000 		li 28,0
 2304              		.loc 8 364 0
 2305 0138 7C1E0050 		subf 0,30,0
 2306              	.LVL176:
 2307              		.loc 8 365 0
 2308 013c 7C001671 		srawi. 0,0,2
 2309              	.LVL177:
 2310 0140 41A20018 		beq+ 0,.L123
 2311              		.loc 8 366 0
 2312 0144 541C103A 		slwi 28,0,2
 2313 0148 7F43D378 		mr 3,26
 2314 014c 7FC4F378 		mr 4,30
 2315 0150 7F85E378 		mr 5,28
 2316 0154 48000001 		bl memmove
 2317              	.LVL178:
 2318              	.L123:
 2319              	.LBE2472:
 2320              	.LBE2474:
 2321              	.LBE2476:
 2322              	.LBE2478:
 2323              	.LBE2480:
 2324              	.LBE2482:
 2325              	.LBE2484:
 2326              	.LBE2486:
 2327              	.LBE2488:
 2328              	.LBE2490:
 2329              	.LBE2493:
 2330              		.loc 7 366 0
 2331 0158 807F0000 		lwz 3,0(31)
 2332              	.LBB2494:
 2333              	.LBB2491:
 2334              	.LBB2489:
 2335              	.LBB2487:
 2336              	.LBB2485:
 2337              	.LBB2483:
 2338              	.LBB2481:
 2339              	.LBB2479:
 2340              	.LBB2477:
 2341              	.LBB2475:
 2342              	.LBB2473:
 2343              		.loc 8 367 0
 2344 015c 7F9AE214 		add 28,26,28
 2345              	.LVL179:
 2346              	.LBE2473:
 2347              	.LBE2475:
 2348              	.LBE2477:
 2349              	.LBE2479:
 2350              	.LBE2481:
 2351              	.LBE2483:
 2352              	.LBE2485:
 2353              	.LBE2487:
 2354              	.LBE2489:
 2355              	.LBE2491:
 2356              	.LBE2494:
 2357              	.LBB2495:
 2358              	.LBB2496:
 2359              		.loc 9 155 0
 2360 0160 2F830000 		cmpwi 7,3,0
 2361 0164 419E0008 		beq- 7,.L124
 2362              	.LVL180:
 2363              	.LBB2497:
 2364              	.LBB2498:
 2365              		.loc 6 98 0
 2366 0168 48000001 		bl _ZdlPv
 2367              	.LVL181:
 2368              	.L124:
 2369              	.LBE2498:
 2370              	.LBE2497:
 2371              	.LBE2496:
 2372              	.LBE2495:
 2373              	.LBE2415:
 2374              	.LBE2513:
 2375              		.loc 7 373 0
 2376 016c 8001002C 		lwz 0,44(1)
 2377              	.LBB2514:
 2378              	.LBB2507:
 2379              		.loc 7 371 0
 2380 0170 7F7DDA14 		add 27,29,27
 2381              		.loc 7 369 0
 2382 0174 93BF0000 		stw 29,0(31)
 2383              	.LBE2507:
 2384              	.LBE2514:
 2385              		.loc 7 373 0
 2386 0178 7C0803A6 		mtlr 0
 2387              	.LBB2515:
 2388              	.LBB2508:
 2389              		.loc 7 370 0
 2390 017c 939F0004 		stw 28,4(31)
 2391              		.loc 7 371 0
 2392 0180 937F0008 		stw 27,8(31)
 2393              	.LBE2508:
 2394              	.LBE2515:
 2395              		.loc 7 373 0
 2396 0184 83410010 		lwz 26,16(1)
 2397              	.LVL182:
 2398 0188 83610014 		lwz 27,20(1)
 2399 018c 83810018 		lwz 28,24(1)
 2400 0190 83A1001C 		lwz 29,28(1)
 2401              	.LVL183:
 2402 0194 83C10020 		lwz 30,32(1)
 2403              	.LVL184:
 2404 0198 83E10024 		lwz 31,36(1)
 2405              	.LVL185:
 2406 019c 38210028 		addi 1,1,40
 2407              		.cfi_remember_state
 2408              		.cfi_restore 26
 2409              		.cfi_restore 27
 2410              		.cfi_restore 28
 2411              		.cfi_restore 29
 2412              		.cfi_restore 30
 2413              		.cfi_restore 31
 2414              	.LCFI34:
 2415              		.cfi_def_cfa_offset 0
 2416 01a0 4E800020 		blr
 2417              	.LVL186:
 2418              	.L118:
 2419              	.LCFI35:
 2420              		.cfi_restore_state
 2421              	.LBB2516:
 2422              	.LBB2509:
 2423              	.LBB2499:
 2424              	.LBB2427:
 2425              		.loc 10 892 0
 2426 01a4 7F9CF050 		subf 28,28,30
 2427              	.LBE2427:
 2428              	.LBE2499:
 2429              		.loc 7 326 0
 2430 01a8 3B600004 		li 27,4
 2431              	.LBB2500:
 2432              	.LBB2428:
 2433              		.loc 10 892 0
 2434 01ac 7F9C1670 		srawi 28,28,2
 2435              	.LVL187:
 2436 01b0 4BFFFF28 		b .L125
 2437              	.LVL188:
 2438              	.L131:
 2439              	.LBE2428:
 2440              	.LBE2500:
 2441              	.LBB2501:
 2442              	.LBB2422:
 2443              		.loc 9 1245 0
 2444 01b4 3D203FFF 		lis 9,0x3fff
 2445 01b8 6129FFFF 		ori 9,9,65535
 2446 01bc 7F804840 		cmplw 7,0,9
 2447 01c0 419DFF0C 		bgt+ 7,.L119
 2448              	.LBE2422:
 2449              	.LBE2501:
 2450              	.LBB2502:
 2451              	.LBB2436:
 2452              		.loc 9 150 0
 2453 01c4 2F800000 		cmpwi 7,0,0
 2454              	.LBE2436:
 2455              	.LBE2502:
 2456              	.LBB2503:
 2457              	.LBB2429:
 2458              		.loc 10 892 0
 2459 01c8 7F9CF050 		subf 28,28,30
 2460              	.LBE2429:
 2461              	.LBE2503:
 2462              	.LBB2504:
 2463              	.LBB2423:
 2464              		.loc 9 1245 0
 2465 01cc 577B1838 		slwi 27,27,3
 2466              	.LVL189:
 2467              	.LBE2423:
 2468              	.LBE2504:
 2469              	.LBB2505:
 2470              	.LBB2430:
 2471              		.loc 10 892 0
 2472 01d0 7F9C1670 		srawi 28,28,2
 2473              	.LVL190:
 2474              	.LBE2430:
 2475              	.LBE2505:
 2476              	.LBB2506:
 2477              	.LBB2437:
 2478              		.loc 9 150 0
 2479 01d4 3BA00000 		li 29,0
 2480 01d8 419EFF14 		beq+ 7,.L120
 2481 01dc 4BFFFEFC 		b .L125
 2482              	.LBE2437:
 2483              	.LBE2506:
 2484              	.LBE2509:
 2485              	.LBE2516:
 2486              		.cfi_endproc
 2487              	.LFE1707:
 2488              		.size	_ZNSt6vectorIP10GuiElementSaIS1_EE13_M_insert_auxEN9__gnu_cxx17__normal_iteratorIPS1_S3_EERK
 2489              		.section	.text._ZNSt8_Rb_treeIPN7sigslot12_signal_baseINS0_15single_threadedEEES4_St9_IdentityIS4_
 2490              		.align 2
 2491              		.weak	_ZNSt8_Rb_treeIPN7sigslot12_signal_baseINS0_15single_threadedEEES4_St9_IdentityIS4_ESt4lessI
 2492              		.type	_ZNSt8_Rb_treeIPN7sigslot12_signal_baseINS0_15single_threadedEEES4_St9_IdentityIS4_ESt4lessI
 2493              	_ZNSt8_Rb_treeIPN7sigslot12_signal_baseINS0_15single_threadedEEES4_St9_IdentityIS4_ESt4lessIS4_ESaI
 2494              	.LFB1981:
 2495              		.file 11 "d:\\devkitpro\\devkitppc\\bin\\../lib/gcc/powerpc-eabi/4.6.3/../../../../powerpc-eabi/in
 2496              		.loc 11 1068 0
 2497              		.cfi_startproc
 2498              	.LVL191:
 2499 0000 9421FFC8 		stwu 1,-56(1)
 2500              	.LCFI36:
 2501              		.cfi_def_cfa_offset 56
 2502 0004 7C0802A6 		mflr 0
 2503 0008 92C10010 		stw 22,16(1)
 2504              	.LBB2633:
 2505              		.loc 11 1072 0
 2506 000c 7C962379 		mr. 22,4
 2507              		.cfi_offset 22, -40
 2508              		.cfi_register 65, 0
 2509              	.LBE2633:
 2510              		.loc 11 1068 0
 2511 0010 93C10030 		stw 30,48(1)
 2512 0014 7C7E1B78 		mr 30,3
 2513              		.cfi_offset 30, -8
 2514 0018 9001003C 		stw 0,60(1)
 2515 001c 92A1000C 		stw 21,12(1)
 2516 0020 92E10014 		stw 23,20(1)
 2517 0024 93010018 		stw 24,24(1)
 2518 0028 9321001C 		stw 25,28(1)
 2519 002c 93410020 		stw 26,32(1)
 2520 0030 93610024 		stw 27,36(1)
 2521 0034 93810028 		stw 28,40(1)
 2522 0038 93A1002C 		stw 29,44(1)
 2523 003c 93E10034 		stw 31,52(1)
 2524              	.LBB2718:
 2525              		.loc 11 1072 0
 2526 0040 41820168 		beq- 0,.L132
 2527              		.cfi_offset 31, -4
 2528              		.cfi_offset 29, -12
 2529              		.cfi_offset 28, -16
 2530              		.cfi_offset 27, -20
 2531              		.cfi_offset 26, -24
 2532              		.cfi_offset 25, -28
 2533              		.cfi_offset 24, -32
 2534              		.cfi_offset 23, -36
 2535              		.cfi_offset 21, -44
 2536              		.cfi_offset 65, 4
 2537              	.LVL192:
 2538              	.L178:
 2539              		.loc 4 251 0
 2540 0044 8376000C 		lwz 27,12(22)
 2541              	.LVL193:
 2542              	.LBB2634:
 2543              	.LBB2635:
 2544              	.LBB2636:
 2545              		.loc 11 1072 0
 2546 0048 2F9B0000 		cmpwi 7,27,0
 2547 004c 419E0140 		beq- 7,.L134
 2548              	.LVL194:
 2549              	.L179:
 2550              	.LBE2636:
 2551              		.loc 4 251 0
 2552 0050 835B000C 		lwz 26,12(27)
 2553              	.LVL195:
 2554              	.LBB2712:
 2555              	.LBB2637:
 2556              	.LBB2638:
 2557              	.LBB2639:
 2558              		.loc 11 1072 0
 2559 0054 2F9A0000 		cmpwi 7,26,0
 2560 0058 419E0118 		beq- 7,.L135
 2561              	.LVL196:
 2562              	.L180:
 2563              	.LBE2639:
 2564              		.loc 4 251 0
 2565 005c 833A000C 		lwz 25,12(26)
 2566              	.LVL197:
 2567              	.LBB2705:
 2568              	.LBB2640:
 2569              	.LBB2641:
 2570              	.LBB2642:
 2571              		.loc 11 1072 0
 2572 0060 2F990000 		cmpwi 7,25,0
 2573 0064 419E00F0 		beq- 7,.L136
 2574              	.LVL198:
 2575              	.L181:
 2576              	.LBE2642:
 2577              		.loc 4 251 0
 2578 0068 8319000C 		lwz 24,12(25)
 2579              	.LVL199:
 2580              	.LBB2698:
 2581              	.LBB2643:
 2582              	.LBB2644:
 2583              	.LBB2645:
 2584              		.loc 11 1072 0
 2585 006c 2F980000 		cmpwi 7,24,0
 2586 0070 419E00C8 		beq- 7,.L137
 2587              	.LVL200:
 2588              	.L182:
 2589              	.LBE2645:
 2590              		.loc 4 251 0
 2591 0074 82F8000C 		lwz 23,12(24)
 2592              	.LVL201:
 2593              	.LBB2691:
 2594              	.LBB2646:
 2595              	.LBB2647:
 2596              	.LBB2648:
 2597              		.loc 11 1072 0
 2598 0078 2F970000 		cmpwi 7,23,0
 2599 007c 419E00A0 		beq- 7,.L138
 2600              	.LVL202:
 2601              	.L183:
 2602              	.LBE2648:
 2603              		.loc 4 251 0
 2604 0080 8397000C 		lwz 28,12(23)
 2605              	.LVL203:
 2606              	.LBB2684:
 2607              	.LBB2649:
 2608              	.LBB2650:
 2609              	.LBB2651:
 2610              		.loc 11 1072 0
 2611 0084 2F9C0000 		cmpwi 7,28,0
 2612 0088 419E0078 		beq- 7,.L139
 2613              	.LVL204:
 2614              	.L184:
 2615              	.LBE2651:
 2616              		.loc 4 251 0
 2617 008c 83BC000C 		lwz 29,12(28)
 2618              	.LVL205:
 2619              	.LBB2677:
 2620              	.LBB2652:
 2621              	.LBB2653:
 2622              	.LBB2654:
 2623              		.loc 11 1072 0
 2624 0090 2F9D0000 		cmpwi 7,29,0
 2625 0094 419E0050 		beq- 7,.L140
 2626              	.LVL206:
 2627              	.L185:
 2628              	.LBE2654:
 2629              		.loc 4 251 0
 2630 0098 83FD000C 		lwz 31,12(29)
 2631              	.LVL207:
 2632              	.LBB2670:
 2633              	.LBB2655:
 2634              	.LBB2656:
 2635              	.LBB2657:
 2636              		.loc 11 1072 0
 2637 009c 2F9F0000 		cmpwi 7,31,0
 2638 00a0 419E0028 		beq- 7,.L141
 2639              	.LVL208:
 2640              	.L186:
 2641              	.LBB2658:
 2642              		.loc 11 1074 0
 2643 00a4 809F000C 		lwz 4,12(31)
 2644 00a8 7FC3F378 		mr 3,30
 2645 00ac 48000001 		bl _ZNSt8_Rb_treeIPN7sigslot12_signal_baseINS0_15single_threadedEEES4_St9_IdentityIS4_ESt4lessIS4_
 2646              	.LBE2658:
 2647              	.LBE2657:
 2648              		.loc 4 251 0
 2649 00b0 82BF0008 		lwz 21,8(31)
 2650              	.LVL209:
 2651              	.LBB2664:
 2652              	.LBB2663:
 2653              	.LBB2659:
 2654              	.LBB2660:
 2655              	.LBB2661:
 2656              	.LBB2662:
 2657              		.loc 6 98 0
 2658 00b4 7FE3FB78 		mr 3,31
 2659 00b8 48000001 		bl _ZdlPv
 2660              	.LVL210:
 2661              	.LBE2662:
 2662              	.LBE2661:
 2663              	.LBE2660:
 2664              	.LBE2659:
 2665              	.LBE2663:
 2666              		.loc 11 1072 0
 2667 00bc 2F950000 		cmpwi 7,21,0
 2668              		.loc 11 1077 0
 2669 00c0 7EBFAB78 		mr 31,21
 2670              	.LVL211:
 2671              		.loc 11 1072 0
 2672 00c4 409EFFE0 		bne+ 7,.L186
 2673              	.LVL212:
 2674              	.L141:
 2675              	.LBE2664:
 2676              	.LBE2656:
 2677              	.LBE2655:
 2678              	.LBE2670:
 2679              		.loc 4 251 0
 2680 00c8 83FD0008 		lwz 31,8(29)
 2681              	.LVL213:
 2682              	.LBB2671:
 2683              	.LBB2669:
 2684              	.LBB2665:
 2685              	.LBB2666:
 2686              	.LBB2667:
 2687              	.LBB2668:
 2688              		.loc 6 98 0
 2689 00cc 7FA3EB78 		mr 3,29
 2690 00d0 48000001 		bl _ZdlPv
 2691              	.LVL214:
 2692              	.LBE2668:
 2693              	.LBE2667:
 2694              	.LBE2666:
 2695              	.LBE2665:
 2696              	.LBE2669:
 2697              		.loc 11 1072 0
 2698 00d4 2F9F0000 		cmpwi 7,31,0
 2699 00d8 419E000C 		beq- 7,.L140
 2700              		.loc 11 1077 0
 2701 00dc 7FFDFB78 		mr 29,31
 2702              	.LVL215:
 2703 00e0 4BFFFFB8 		b .L185
 2704              	.LVL216:
 2705              	.L140:
 2706              	.LBE2671:
 2707              	.LBE2653:
 2708              	.LBE2652:
 2709              	.LBE2677:
 2710              		.loc 4 251 0
 2711 00e4 83FC0008 		lwz 31,8(28)
 2712              	.LVL217:
 2713              	.LBB2678:
 2714              	.LBB2676:
 2715              	.LBB2672:
 2716              	.LBB2673:
 2717              	.LBB2674:
 2718              	.LBB2675:
 2719              		.loc 6 98 0
 2720 00e8 7F83E378 		mr 3,28
 2721 00ec 48000001 		bl _ZdlPv
 2722              	.LVL218:
 2723              	.LBE2675:
 2724              	.LBE2674:
 2725              	.LBE2673:
 2726              	.LBE2672:
 2727              	.LBE2676:
 2728              		.loc 11 1072 0
 2729 00f0 2F9F0000 		cmpwi 7,31,0
 2730 00f4 419E000C 		beq- 7,.L139
 2731              		.loc 11 1077 0
 2732 00f8 7FFCFB78 		mr 28,31
 2733              	.LVL219:
 2734 00fc 4BFFFF90 		b .L184
 2735              	.LVL220:
 2736              	.L139:
 2737              	.LBE2678:
 2738              	.LBE2650:
 2739              	.LBE2649:
 2740              	.LBE2684:
 2741              		.loc 4 251 0
 2742 0100 83F70008 		lwz 31,8(23)
 2743              	.LVL221:
 2744              	.LBB2685:
 2745              	.LBB2683:
 2746              	.LBB2679:
 2747              	.LBB2680:
 2748              	.LBB2681:
 2749              	.LBB2682:
 2750              		.loc 6 98 0
 2751 0104 7EE3BB78 		mr 3,23
 2752 0108 48000001 		bl _ZdlPv
 2753              	.LVL222:
 2754              	.LBE2682:
 2755              	.LBE2681:
 2756              	.LBE2680:
 2757              	.LBE2679:
 2758              	.LBE2683:
 2759              		.loc 11 1072 0
 2760 010c 2F9F0000 		cmpwi 7,31,0
 2761 0110 419E000C 		beq- 7,.L138
 2762              		.loc 11 1077 0
 2763 0114 7FF7FB78 		mr 23,31
 2764              	.LVL223:
 2765 0118 4BFFFF68 		b .L183
 2766              	.LVL224:
 2767              	.L138:
 2768              	.LBE2685:
 2769              	.LBE2647:
 2770              	.LBE2646:
 2771              	.LBE2691:
 2772              		.loc 4 251 0
 2773 011c 83F80008 		lwz 31,8(24)
 2774              	.LVL225:
 2775              	.LBB2692:
 2776              	.LBB2690:
 2777              	.LBB2686:
 2778              	.LBB2687:
 2779              	.LBB2688:
 2780              	.LBB2689:
 2781              		.loc 6 98 0
 2782 0120 7F03C378 		mr 3,24
 2783 0124 48000001 		bl _ZdlPv
 2784              	.LVL226:
 2785              	.LBE2689:
 2786              	.LBE2688:
 2787              	.LBE2687:
 2788              	.LBE2686:
 2789              	.LBE2690:
 2790              		.loc 11 1072 0
 2791 0128 2F9F0000 		cmpwi 7,31,0
 2792 012c 419E000C 		beq- 7,.L137
 2793              		.loc 11 1077 0
 2794 0130 7FF8FB78 		mr 24,31
 2795              	.LVL227:
 2796 0134 4BFFFF40 		b .L182
 2797              	.LVL228:
 2798              	.L137:
 2799              	.LBE2692:
 2800              	.LBE2644:
 2801              	.LBE2643:
 2802              	.LBE2698:
 2803              		.loc 4 251 0
 2804 0138 83F90008 		lwz 31,8(25)
 2805              	.LVL229:
 2806              	.LBB2699:
 2807              	.LBB2697:
 2808              	.LBB2693:
 2809              	.LBB2694:
 2810              	.LBB2695:
 2811              	.LBB2696:
 2812              		.loc 6 98 0
 2813 013c 7F23CB78 		mr 3,25
 2814 0140 48000001 		bl _ZdlPv
 2815              	.LVL230:
 2816              	.LBE2696:
 2817              	.LBE2695:
 2818              	.LBE2694:
 2819              	.LBE2693:
 2820              	.LBE2697:
 2821              		.loc 11 1072 0
 2822 0144 2F9F0000 		cmpwi 7,31,0
 2823 0148 419E000C 		beq- 7,.L136
 2824              		.loc 11 1077 0
 2825 014c 7FF9FB78 		mr 25,31
 2826              	.LVL231:
 2827 0150 4BFFFF18 		b .L181
 2828              	.LVL232:
 2829              	.L136:
 2830              	.LBE2699:
 2831              	.LBE2641:
 2832              	.LBE2640:
 2833              	.LBE2705:
 2834              		.loc 4 251 0
 2835 0154 83FA0008 		lwz 31,8(26)
 2836              	.LVL233:
 2837              	.LBB2706:
 2838              	.LBB2704:
 2839              	.LBB2700:
 2840              	.LBB2701:
 2841              	.LBB2702:
 2842              	.LBB2703:
 2843              		.loc 6 98 0
 2844 0158 7F43D378 		mr 3,26
 2845 015c 48000001 		bl _ZdlPv
 2846              	.LVL234:
 2847              	.LBE2703:
 2848              	.LBE2702:
 2849              	.LBE2701:
 2850              	.LBE2700:
 2851              	.LBE2704:
 2852              		.loc 11 1072 0
 2853 0160 2F9F0000 		cmpwi 7,31,0
 2854 0164 419E000C 		beq- 7,.L135
 2855              		.loc 11 1077 0
 2856 0168 7FFAFB78 		mr 26,31
 2857              	.LVL235:
 2858 016c 4BFFFEF0 		b .L180
 2859              	.LVL236:
 2860              	.L135:
 2861              	.LBE2706:
 2862              	.LBE2638:
 2863              	.LBE2637:
 2864              	.LBE2712:
 2865              		.loc 4 251 0
 2866 0170 83FB0008 		lwz 31,8(27)
 2867              	.LVL237:
 2868              	.LBB2713:
 2869              	.LBB2711:
 2870              	.LBB2707:
 2871              	.LBB2708:
 2872              	.LBB2709:
 2873              	.LBB2710:
 2874              		.loc 6 98 0
 2875 0174 7F63DB78 		mr 3,27
 2876 0178 48000001 		bl _ZdlPv
 2877              	.LVL238:
 2878              	.LBE2710:
 2879              	.LBE2709:
 2880              	.LBE2708:
 2881              	.LBE2707:
 2882              	.LBE2711:
 2883              		.loc 11 1072 0
 2884 017c 2F9F0000 		cmpwi 7,31,0
 2885 0180 419E000C 		beq- 7,.L134
 2886              		.loc 11 1077 0
 2887 0184 7FFBFB78 		mr 27,31
 2888              	.LVL239:
 2889 0188 4BFFFEC8 		b .L179
 2890              	.LVL240:
 2891              	.L134:
 2892              		.loc 4 251 0
 2893 018c 83F60008 		lwz 31,8(22)
 2894              	.LVL241:
 2895              	.LBE2713:
 2896              	.LBE2635:
 2897              	.LBB2714:
 2898              	.LBB2715:
 2899              	.LBB2716:
 2900              	.LBB2717:
 2901              		.loc 6 98 0
 2902 0190 7EC3B378 		mr 3,22
 2903 0194 48000001 		bl _ZdlPv
 2904              	.LVL242:
 2905              	.LBE2717:
 2906              	.LBE2716:
 2907              	.LBE2715:
 2908              	.LBE2714:
 2909              	.LBE2634:
 2910              		.loc 11 1072 0
 2911 0198 2F9F0000 		cmpwi 7,31,0
 2912 019c 419E000C 		beq- 7,.L132
 2913              		.loc 11 1077 0
 2914 01a0 7FF6FB78 		mr 22,31
 2915              	.LVL243:
 2916 01a4 4BFFFEA0 		b .L178
 2917              	.LVL244:
 2918              	.L132:
 2919              	.LBE2718:
 2920              		.loc 11 1079 0
 2921 01a8 8001003C 		lwz 0,60(1)
 2922 01ac 82A1000C 		lwz 21,12(1)
 2923 01b0 7C0803A6 		mtlr 0
 2924 01b4 82C10010 		lwz 22,16(1)
 2925 01b8 82E10014 		lwz 23,20(1)
 2926 01bc 83010018 		lwz 24,24(1)
 2927 01c0 8321001C 		lwz 25,28(1)
 2928 01c4 83410020 		lwz 26,32(1)
 2929 01c8 83610024 		lwz 27,36(1)
 2930 01cc 83810028 		lwz 28,40(1)
 2931 01d0 83A1002C 		lwz 29,44(1)
 2932 01d4 83C10030 		lwz 30,48(1)
 2933              	.LVL245:
 2934 01d8 83E10034 		lwz 31,52(1)
 2935 01dc 38210038 		addi 1,1,56
 2936              	.LCFI37:
 2937              		.cfi_def_cfa_offset 0
 2938              		.cfi_restore 31
 2939              		.cfi_restore 30
 2940              		.cfi_restore 29
 2941              		.cfi_restore 28
 2942              		.cfi_restore 27
 2943              		.cfi_restore 26
 2944              		.cfi_restore 25
 2945              		.cfi_restore 24
 2946              		.cfi_restore 23
 2947              		.cfi_restore 22
 2948              		.cfi_restore 21
 2949 01e0 4E800020 		blr
 2950              		.cfi_endproc
 2951              	.LFE1981:
 2952              		.size	_ZNSt8_Rb_treeIPN7sigslot12_signal_baseINS0_15single_threadedEEES4_St9_IdentityIS4_ESt4lessI
 2953              		.section	.text._ZNSt8_Rb_treeIPN7sigslot12_signal_baseINS0_15single_threadedEEES4_St9_IdentityIS4_
 2954              		.align 2
 2955              		.weak	_ZNSt8_Rb_treeIPN7sigslot12_signal_baseINS0_15single_threadedEEES4_St9_IdentityIS4_ESt4lessI
 2956              		.type	_ZNSt8_Rb_treeIPN7sigslot12_signal_baseINS0_15single_threadedEEES4_St9_IdentityIS4_ESt4lessI
 2957              	_ZNSt8_Rb_treeIPN7sigslot12_signal_baseINS0_15single_threadedEEES4_St9_IdentityIS4_ESt4lessIS4_ESaI
 2958              	.LFB1897:
 2959              		.loc 11 1510 0
 2960              		.cfi_startproc
 2961              	.LVL246:
 2962 0000 7C0802A6 		mflr 0
 2963 0004 9421FFE0 		stwu 1,-32(1)
 2964              	.LCFI38:
 2965              		.cfi_def_cfa_offset 32
 2966              		.cfi_register 65, 0
 2967 0008 93810010 		stw 28,16(1)
 2968              	.LBB2719:
 2969              	.LBB2720:
 2970              		.loc 11 1155 0
 2971 000c 3B830004 		addi 28,3,4
 2972              		.cfi_offset 28, -16
 2973              	.LBE2720:
 2974              	.LBE2719:
 2975              		.loc 11 1510 0
 2976 0010 90010024 		stw 0,36(1)
 2977 0014 93410008 		stw 26,8(1)
 2978              	.LBB2776:
 2979              	.LBB2741:
 2980              	.LBB2721:
 2981              		.loc 11 1155 0
 2982 0018 7F9AE378 		mr 26,28
 2983              		.cfi_offset 26, -24
 2984              		.cfi_offset 65, 4
 2985              	.LBE2721:
 2986              		.loc 4 251 0
 2987 001c 80030008 		lwz 0,8(3)
 2988              	.LBE2741:
 2989              	.LBE2776:
 2990              		.loc 11 1510 0
 2991 0020 93A10014 		stw 29,20(1)
 2992              	.LBB2777:
 2993              	.LBB2742:
 2994              	.LBB2734:
 2995              		.loc 11 1155 0
 2996 0024 7F9DE378 		mr 29,28
 2997              		.cfi_offset 29, -12
 2998              		.loc 11 1156 0
 2999 0028 2F800000 		cmpwi 7,0,0
 3000              	.LBE2734:
 3001              	.LBE2742:
 3002              	.LBE2777:
 3003              		.loc 11 1510 0
 3004 002c 93C10018 		stw 30,24(1)
 3005 0030 9361000C 		stw 27,12(1)
 3006 0034 7C7E1B78 		mr 30,3
 3007              		.cfi_offset 27, -20
 3008              		.cfi_offset 30, -8
 3009              	.LVL247:
 3010 0038 93E1001C 		stw 31,28(1)
 3011              	.LBB2778:
 3012              	.LBB2743:
 3013              	.LBB2735:
 3014              		.loc 11 1156 0
 3015 003c 419E0040 		beq- 7,.L188
 3016              		.cfi_offset 31, -4
 3017 0040 81640000 		lwz 11,0(4)
 3018 0044 7C1A0378 		mr 26,0
 3019 0048 48000010 		b .L199
 3020              	.LVL248:
 3021              	.L218:
 3022              	.LBE2735:
 3023              		.loc 4 251 0
 3024 004c 835A000C 		lwz 26,12(26)
 3025              	.LVL249:
 3026              	.LBB2736:
 3027              		.loc 11 1156 0
 3028 0050 2F9A0000 		cmpwi 7,26,0
 3029 0054 419E0024 		beq- 7,.L217
 3030              	.L199:
 3031              	.LVL250:
 3032              	.LBE2736:
 3033              		.loc 4 251 0
 3034 0058 813A0010 		lwz 9,16(26)
 3035              	.LBB2737:
 3036              	.LBB2722:
 3037              		.loc 11 1158 0
 3038 005c 7F895840 		cmplw 7,9,11
 3039 0060 41BCFFEC 		blt- 7,.L218
 3040              	.LVL251:
 3041              	.LBB2723:
 3042              		.loc 11 1160 0
 3043 0064 409D0094 		ble- 7,.L191
 3044              	.LVL252:
 3045              	.LBE2723:
 3046              	.LBE2722:
 3047              	.LBE2737:
 3048              		.loc 4 251 0
 3049 0068 7F5DD378 		mr 29,26
 3050              		.loc 11 1161 0
 3051 006c 835A0008 		lwz 26,8(26)
 3052              	.LVL253:
 3053              	.LBB2738:
 3054              		.loc 11 1156 0
 3055 0070 2F9A0000 		cmpwi 7,26,0
 3056 0074 409EFFE4 		bne+ 7,.L199
 3057              	.LVL254:
 3058              	.L217:
 3059 0078 7FBAEB78 		mr 26,29
 3060              	.LVL255:
 3061              	.L188:
 3062              	.LBE2738:
 3063              	.LBE2743:
 3064              	.LBB2744:
 3065              	.LBB2745:
 3066              		.loc 4 251 0
 3067 007c 813E000C 		lwz 9,12(30)
 3068              	.LBE2745:
 3069              	.LBE2744:
 3070              	.LBB2772:
 3071              	.LBB2739:
 3072 0080 837E0014 		lwz 27,20(30)
 3073              	.LVL256:
 3074              	.LBE2739:
 3075              	.LBE2772:
 3076              	.LBB2773:
 3077              	.LBB2770:
 3078              	.LBB2746:
 3079              		.loc 11 1500 0
 3080 0084 7F89D000 		cmpw 7,9,26
 3081 0088 419E00DC 		beq- 7,.L200
 3082              	.L204:
 3083              	.LVL257:
 3084              		.loc 11 1503 0
 3085 008c 7F9AE800 		cmpw 7,26,29
 3086 0090 419E0100 		beq- 7,.L219
 3087              	.LVL258:
 3088              	.L215:
 3089              	.LBB2747:
 3090              	.LBB2748:
 3091              		.loc 11 277 0
 3092 0094 7F43D378 		mr 3,26
 3093 0098 48000001 		bl _ZSt18_Rb_tree_incrementPKSt18_Rb_tree_node_base
 3094              	.LBE2748:
 3095              	.LBE2747:
 3096              	.LBB2750:
 3097              	.LBB2751:
 3098              	.LBB2752:
 3099              		.loc 11 1489 0
 3100 009c 7F84E378 		mr 4,28
 3101              	.LBE2752:
 3102              	.LBE2751:
 3103              	.LBE2750:
 3104              	.LBB2763:
 3105              	.LBB2749:
 3106              		.loc 11 277 0
 3107 00a0 7C7F1B78 		mr 31,3
 3108              	.LVL259:
 3109              	.LBE2749:
 3110              	.LBE2763:
 3111              	.LBB2764:
 3112              	.LBB2760:
 3113              	.LBB2757:
 3114              		.loc 11 1489 0
 3115 00a4 7F43D378 		mr 3,26
 3116              	.LVL260:
 3117 00a8 48000001 		bl _ZSt28_Rb_tree_rebalance_for_erasePSt18_Rb_tree_node_baseRS_
 3118              	.LBE2757:
 3119              	.LBE2760:
 3120              	.LBE2764:
 3121              		.loc 11 277 0
 3122 00ac 7FFAFB78 		mr 26,31
 3123              	.LVL261:
 3124              	.LBB2765:
 3125              	.LBB2761:
 3126              	.LBB2758:
 3127              	.LBB2753:
 3128              	.LBB2754:
 3129              	.LBB2755:
 3130              	.LBB2756:
 3131              		.loc 6 98 0
 3132 00b0 48000001 		bl _ZdlPv
 3133              	.LBE2756:
 3134              	.LBE2755:
 3135              	.LBE2754:
 3136              	.LBE2753:
 3137              	.LBE2758:
 3138              	.LBE2761:
 3139              	.LBE2765:
 3140              		.loc 11 1503 0
 3141 00b4 7F9FE800 		cmpw 7,31,29
 3142              	.LBB2766:
 3143              	.LBB2762:
 3144              	.LBB2759:
 3145              		.loc 11 1491 0
 3146 00b8 813E0014 		lwz 9,20(30)
 3147 00bc 3809FFFF 		addi 0,9,-1
 3148 00c0 901E0014 		stw 0,20(30)
 3149              	.LBE2759:
 3150              	.LBE2762:
 3151              	.LBE2766:
 3152              		.loc 11 1503 0
 3153 00c4 409EFFD0 		bne+ 7,.L215
 3154 00c8 7F60D850 		subf 27,0,27
 3155              	.LVL262:
 3156              	.L202:
 3157              	.LBE2746:
 3158              	.LBE2770:
 3159              	.LBE2773:
 3160              	.LBE2778:
 3161              		.loc 11 1517 0
 3162 00cc 80010024 		lwz 0,36(1)
 3163 00d0 7F63DB78 		mr 3,27
 3164 00d4 83410008 		lwz 26,8(1)
 3165 00d8 7C0803A6 		mtlr 0
 3166 00dc 8361000C 		lwz 27,12(1)
 3167 00e0 83810010 		lwz 28,16(1)
 3168 00e4 83A10014 		lwz 29,20(1)
 3169              	.LVL263:
 3170 00e8 83C10018 		lwz 30,24(1)
 3171              	.LVL264:
 3172 00ec 83E1001C 		lwz 31,28(1)
 3173 00f0 38210020 		addi 1,1,32
 3174              		.cfi_remember_state
 3175              	.LCFI39:
 3176              		.cfi_def_cfa_offset 0
 3177              		.cfi_restore 31
 3178              		.cfi_restore 30
 3179              		.cfi_restore 29
 3180              		.cfi_restore 28
 3181              		.cfi_restore 27
 3182              		.cfi_restore 26
 3183 00f4 4E800020 		blr
 3184              	.LVL265:
 3185              	.L191:
 3186              	.LCFI40:
 3187              		.cfi_restore_state
 3188              	.LBB2779:
 3189              	.LBB2774:
 3190              		.loc 4 251 0
 3191 00f8 815A0008 		lwz 10,8(26)
 3192              	.LVL266:
 3193 00fc 813A000C 		lwz 9,12(26)
 3194              	.LVL267:
 3195              	.L216:
 3196              	.LBB2740:
 3197              	.LBB2733:
 3198              	.LBB2732:
 3199              	.LBB2724:
 3200              	.LBB2725:
 3201              	.LBB2726:
 3202              		.loc 11 1089 0
 3203 0100 2F8A0000 		cmpwi 7,10,0
 3204 0104 419E0020 		beq- 7,.L192
 3205              	.L220:
 3206              	.LVL268:
 3207              		.loc 11 1090 0
 3208 0108 810A0010 		lwz 8,16(10)
 3209 010c 7F885840 		cmplw 7,8,11
 3210 0110 419C004C 		blt- 7,.L193
 3211              	.LVL269:
 3212              	.LBE2726:
 3213              		.loc 4 251 0
 3214 0114 7D5A5378 		mr 26,10
 3215              		.loc 11 1091 0
 3216 0118 814A0008 		lwz 10,8(10)
 3217              	.LVL270:
 3218              	.LBB2727:
 3219              		.loc 11 1089 0
 3220 011c 2F8A0000 		cmpwi 7,10,0
 3221 0120 409EFFE8 		bne+ 7,.L220
 3222              	.LVL271:
 3223              	.L192:
 3224              	.LBE2727:
 3225              	.LBE2725:
 3226              	.LBB2728:
 3227              	.LBB2729:
 3228              		.loc 11 1121 0
 3229 0124 2F890000 		cmpwi 7,9,0
 3230 0128 41BEFF54 		beq- 7,.L188
 3231              	.LVL272:
 3232              		.loc 11 1122 0
 3233 012c 81490010 		lwz 10,16(9)
 3234 0130 7F8A5840 		cmplw 7,10,11
 3235 0134 409D0020 		ble- 7,.L196
 3236              	.LVL273:
 3237              	.L221:
 3238              	.LBE2729:
 3239              		.loc 4 251 0
 3240 0138 7D3D4B78 		mr 29,9
 3241              		.loc 11 1123 0
 3242 013c 81290008 		lwz 9,8(9)
 3243              	.LVL274:
 3244              	.LBB2730:
 3245              		.loc 11 1121 0
 3246 0140 2F890000 		cmpwi 7,9,0
 3247 0144 41BEFF38 		beq- 7,.L188
 3248              	.LVL275:
 3249              		.loc 11 1122 0
 3250 0148 81490010 		lwz 10,16(9)
 3251 014c 7F8A5840 		cmplw 7,10,11
 3252 0150 41BDFFE8 		bgt- 7,.L221
 3253              	.LVL276:
 3254              	.L196:
 3255              	.LBE2730:
 3256              		.loc 4 251 0
 3257 0154 8129000C 		lwz 9,12(9)
 3258              	.LVL277:
 3259 0158 4BFFFFCC 		b .L192
 3260              	.LVL278:
 3261              	.L193:
 3262              	.LBE2728:
 3263              	.LBB2731:
 3264 015c 814A000C 		lwz 10,12(10)
 3265              	.LVL279:
 3266 0160 4BFFFFA0 		b .L216
 3267              	.LVL280:
 3268              	.L200:
 3269              	.LBE2731:
 3270              	.LBE2724:
 3271              	.LBE2732:
 3272              	.LBE2733:
 3273              	.LBE2740:
 3274              	.LBE2774:
 3275              	.LBB2775:
 3276              	.LBB2771:
 3277              	.LBB2769:
 3278              		.loc 11 1500 0
 3279 0164 7F9CE800 		cmpw 7,28,29
 3280 0168 409EFF24 		bne+ 7,.L204
 3281              	.LVL281:
 3282              	.LBB2767:
 3283              	.LBB2768:
 3284              		.loc 11 809 0
 3285 016c 7C040378 		mr 4,0
 3286              	.LVL282:
 3287 0170 7FC3F378 		mr 3,30
 3288              	.LVL283:
 3289 0174 48000001 		bl _ZNSt8_Rb_treeIPN7sigslot12_signal_baseINS0_15single_threadedEEES4_St9_IdentityIS4_ESt4lessIS4_
 3290              	.LVL284:
 3291              		.loc 11 811 0
 3292 0178 38000000 		li 0,0
 3293              		.loc 11 810 0
 3294 017c 939E000C 		stw 28,12(30)
 3295              	.LVL285:
 3296              		.loc 11 811 0
 3297 0180 901E0008 		stw 0,8(30)
 3298              	.LVL286:
 3299              		.loc 11 812 0
 3300 0184 939E0010 		stw 28,16(30)
 3301              		.loc 11 813 0
 3302 0188 901E0014 		stw 0,20(30)
 3303 018c 4BFFFF40 		b .L202
 3304              	.LVL287:
 3305              	.L219:
 3306              	.LBE2768:
 3307              	.LBE2767:
 3308              		.loc 11 1503 0
 3309 0190 3B600000 		li 27,0
 3310 0194 4BFFFF38 		b .L202
 3311              	.LBE2769:
 3312              	.LBE2771:
 3313              	.LBE2775:
 3314              	.LBE2779:
 3315              		.cfi_endproc
 3316              	.LFE1897:
 3317              		.size	_ZNSt8_Rb_treeIPN7sigslot12_signal_baseINS0_15single_threadedEEES4_St9_IdentityIS4_ESt4lessI
 3318              		.section	.text._ZN7sigslot7signal1IP13CreditsWindowNS_15single_threadedEED2Ev,"axG",@progbits,_ZN7
 3319              		.align 2
 3320              		.weak	_ZN7sigslot7signal1IP13CreditsWindowNS_15single_threadedEED2Ev
 3321              		.type	_ZN7sigslot7signal1IP13CreditsWindowNS_15single_threadedEED2Ev, @function
 3322              	_ZN7sigslot7signal1IP13CreditsWindowNS_15single_threadedEED2Ev:
 3323              	.LFB1659:
 3324              		.loc 1 2169 0
 3325              		.cfi_startproc
 3326              		.cfi_personality 0,__gxx_personality_v0
 3327              		.cfi_lsda 0,.LLSDA1659
 3328              	.LVL288:
 3329 0000 7C0802A6 		mflr 0
 3330 0004 9421FFD8 		stwu 1,-40(1)
 3331              	.LCFI41:
 3332              		.cfi_def_cfa_offset 40
 3333              		.cfi_register 65, 0
 3334              	.LBB2877:
 3335              	.LBB2878:
 3336              	.LBB2879:
 3337              	.LBB2880:
 3338              		.loc 1 705 0
 3339 0008 3D200000 		lis 9,_ZTVN7sigslot13_signal_base1IP13CreditsWindowNS_15single_threadedEEE+8@ha
 3340              	.LBE2880:
 3341              	.LBE2879:
 3342              	.LBE2878:
 3343              	.LBE2877:
 3344              		.loc 1 2169 0
 3345 000c 93810018 		stw 28,24(1)
 3346 0010 7C7C1B78 		mr 28,3
 3347              		.cfi_offset 28, -16
 3348              	.LVL289:
 3349 0014 9001002C 		stw 0,44(1)
 3350              	.LBB2978:
 3351              	.LBB2973:
 3352              	.LBB2968:
 3353              	.LBB2963:
 3354              		.loc 1 705 0
 3355 0018 38090008 		la 0,_ZTVN7sigslot13_signal_base1IP13CreditsWindowNS_15single_threadedEEE+8@l(9)
 3356              		.cfi_offset 65, 4
 3357              	.LBE2963:
 3358              	.LBE2968:
 3359              	.LBE2973:
 3360              	.LBE2978:
 3361              		.loc 1 2169 0
 3362 001c 93A1001C 		stw 29,28(1)
 3363 0020 3BA30004 		addi 29,3,4
 3364              		.cfi_offset 29, -12
 3365 0024 93C10020 		stw 30,32(1)
 3366 0028 93E10024 		stw 31,36(1)
 3367              	.LBB2979:
 3368              	.LBB2974:
 3369              	.LBB2969:
 3370              	.LBB2964:
 3371              		.loc 1 705 0
 3372 002c 90030000 		stw 0,0(3)
 3373              	.LVL290:
 3374              	.LEHB12:
 3375              	.LBB2881:
 3376              	.LBB2882:
 3377              	.LBB2883:
 3378              	.LBB2884:
 3379              		.loc 1 338 0
 3380              		.cfi_offset 31, -4
 3381              		.cfi_offset 30, -8
 3382 0030 48000001 		bl _ZN7sigslot15single_threaded4lockEv
 3383              	.LEHE12:
 3384              	.LVL291:
 3385              	.LBE2884:
 3386              	.LBE2883:
 3387              	.LBE2882:
 3388              		.loc 4 251 0
 3389 0034 7F9DE378 		mr 29,28
 3390              	.LVL292:
 3391 0038 87FD0004 		lwzu 31,4(29)
 3392              	.LVL293:
 3393              	.LBB2915:
 3394              		.loc 1 713 0
 3395 003c 7F9FE800 		cmpw 7,31,29
 3396 0040 419E00A8 		beq- 7,.L223
 3397              	.LVL294:
 3398              	.L261:
 3399              		.loc 1 715 0
 3400 0044 807F0008 		lwz 3,8(31)
 3401 0048 81230000 		lwz 9,0(3)
 3402 004c 80090008 		lwz 0,8(9)
 3403 0050 7C0903A6 		mtctr 0
 3404              	.LEHB13:
 3405 0054 4E800421 		bctrl
 3406              	.LBB2885:
 3407              	.LBB2886:
 3408              	.LBB2887:
 3409              	.LBB2888:
 3410              		.loc 1 338 0
 3411 0058 81230000 		lwz 9,0(3)
 3412              	.LBE2888:
 3413              	.LBE2887:
 3414              	.LBE2886:
 3415              	.LBE2885:
 3416              		.loc 1 715 0
 3417 005c 7C7E1B78 		mr 30,3
 3418              	.LVL295:
 3419 0060 93810008 		stw 28,8(1)
 3420              	.LVL296:
 3421              	.LBB2897:
 3422              	.LBB2896:
 3423              	.LBB2890:
 3424              	.LBB2889:
 3425              		.loc 1 338 0
 3426 0064 80090008 		lwz 0,8(9)
 3427 0068 7C0903A6 		mtctr 0
 3428 006c 4E800421 		bctrl
 3429              	.LVL297:
 3430              	.LBE2889:
 3431              	.LBE2890:
 3432              	.LBB2891:
 3433              	.LBB2892:
 3434              		.file 12 "d:\\devkitpro\\devkitppc\\bin\\../lib/gcc/powerpc-eabi/4.6.3/../../../../powerpc-eabi/in
 3435              		.loc 12 528 0
 3436 0070 387E0004 		addi 3,30,4
 3437 0074 38810008 		addi 4,1,8
 3438 0078 48000001 		bl _ZNSt8_Rb_treeIPN7sigslot12_signal_baseINS0_15single_threadedEEES4_St9_IdentityIS4_ESt4lessIS4_
 3439              	.LVL298:
 3440              	.LBE2892:
 3441              	.LBE2891:
 3442              	.LBB2893:
 3443              	.LBB2894:
 3444              	.LBB2895:
 3445              		.loc 1 343 0
 3446 007c 813E0000 		lwz 9,0(30)
 3447 0080 7FC3F378 		mr 3,30
 3448 0084 8009000C 		lwz 0,12(9)
 3449 0088 7C0903A6 		mtctr 0
 3450 008c 4E800421 		bctrl
 3451              	.LVL299:
 3452              	.LBE2895:
 3453              	.LBE2894:
 3454              	.LBE2893:
 3455              	.LBE2896:
 3456              	.LBE2897:
 3457              		.loc 1 716 0
 3458 0090 807F0008 		lwz 3,8(31)
 3459 0094 2F830000 		cmpwi 7,3,0
 3460 0098 419E0014 		beq- 7,.L225
 3461 009c 81230000 		lwz 9,0(3)
 3462 00a0 80090004 		lwz 0,4(9)
 3463 00a4 7C0903A6 		mtctr 0
 3464 00a8 4E800421 		bctrl
 3465              	.LEHE13:
 3466              	.L225:
 3467              	.LVL300:
 3468              	.LBB2898:
 3469              	.LBB2899:
 3470              		.loc 5 234 0
 3471 00ac 83FF0000 		lwz 31,0(31)
 3472              	.LVL301:
 3473              	.LBE2899:
 3474              	.LBE2898:
 3475              		.loc 1 713 0
 3476 00b0 7F9DF800 		cmpw 7,29,31
 3477 00b4 409EFF90 		bne+ 7,.L261
 3478              	.LBE2915:
 3479              		.loc 4 251 0
 3480 00b8 83FC0004 		lwz 31,4(28)
 3481              	.LVL302:
 3482              	.LBB2916:
 3483              	.LBB2900:
 3484              	.LBB2901:
 3485              		.loc 5 1162 0
 3486 00bc 7F9DF800 		cmpw 7,29,31
 3487 00c0 40BE000C 		bne+ 7,.L263
 3488 00c4 48000024 		b .L223
 3489              	.LVL303:
 3490              	.L256:
 3491              		.loc 5 1163 0
 3492 00c8 7FDFF378 		mr 31,30
 3493              	.LVL304:
 3494              	.L263:
 3495              	.LBB2902:
 3496              	.LBB2903:
 3497              		.file 13 "d:\\devkitpro\\devkitppc\\bin\\../lib/gcc/powerpc-eabi/4.6.3/../../../../powerpc-eabi/in
 3498              		.loc 13 112 0
 3499 00cc 83DF0000 		lwz 30,0(31)
 3500              	.LVL305:
 3501              	.LBB2904:
 3502              	.LBB2905:
 3503              		.loc 5 1532 0
 3504 00d0 7FE3FB78 		mr 3,31
 3505 00d4 48000001 		bl _ZNSt8__detail15_List_node_base9_M_unhookEv
 3506              	.LVL306:
 3507              	.LBB2906:
 3508              	.LBB2907:
 3509              	.LBB2908:
 3510              		.loc 6 98 0
 3511 00d8 7FE3FB78 		mr 3,31
 3512 00dc 48000001 		bl _ZdlPv
 3513              	.LVL307:
 3514              	.LBE2908:
 3515              	.LBE2907:
 3516              	.LBE2906:
 3517              	.LBE2905:
 3518              	.LBE2904:
 3519              	.LBE2903:
 3520              	.LBE2902:
 3521              		.loc 5 1162 0
 3522 00e0 7F9DF000 		cmpw 7,29,30
 3523 00e4 409EFFE4 		bne+ 7,.L256
 3524              	.LVL308:
 3525              	.L223:
 3526              	.LBE2901:
 3527              	.LBE2900:
 3528              	.LBB2909:
 3529              	.LBB2910:
 3530              	.LBB2911:
 3531              		.loc 1 343 0
 3532 00e8 813C0000 		lwz 9,0(28)
 3533 00ec 7F83E378 		mr 3,28
 3534 00f0 8009000C 		lwz 0,12(9)
 3535 00f4 7C0903A6 		mtctr 0
 3536              	.LEHB14:
 3537 00f8 4E800421 		bctrl
 3538              	.LEHE14:
 3539              	.LBE2911:
 3540              	.LBE2910:
 3541              	.LBE2909:
 3542              	.LBE2916:
 3543              	.LBE2881:
 3544              	.LBB2918:
 3545              	.LBB2919:
 3546              	.LBB2920:
 3547              	.LBB2921:
 3548              	.LBB2922:
 3549              	.LBB2923:
 3550              		.loc 13 70 0
 3551 00fc 807C0004 		lwz 3,4(28)
 3552              	.LVL309:
 3553              		.loc 13 71 0
 3554 0100 7F83E800 		cmpw 7,3,29
 3555 0104 40BE000C 		bne+ 7,.L265
 3556 0108 48000018 		b .L241
 3557              	.LVL310:
 3558              	.L257:
 3559              		.loc 13 74 0
 3560 010c 7FE3FB78 		mr 3,31
 3561              	.LVL311:
 3562              	.L265:
 3563              	.LBB2924:
 3564 0110 83E30000 		lwz 31,0(3)
 3565              	.LVL312:
 3566              	.LBB2925:
 3567              	.LBB2926:
 3568              	.LBB2927:
 3569              		.loc 6 98 0
 3570 0114 48000001 		bl _ZdlPv
 3571              	.LVL313:
 3572              	.LBE2927:
 3573              	.LBE2926:
 3574              	.LBE2925:
 3575              	.LBE2924:
 3576              		.loc 13 71 0
 3577 0118 7F9FE800 		cmpw 7,31,29
 3578 011c 409EFFF0 		bne+ 7,.L257
 3579              	.LVL314:
 3580              	.L241:
 3581              	.LBE2923:
 3582              	.LBE2922:
 3583              	.LBE2921:
 3584              	.LBE2920:
 3585              	.LBE2919:
 3586              	.LBE2918:
 3587              	.LBB2928:
 3588              	.LBB2929:
 3589              	.LBB2930:
 3590              	.LBB2931:
 3591              	.LBB2932:
 3592              	.LBB2933:
 3593              		.loc 1 105 0
 3594 0120 3D200000 		lis 9,_ZTVN7sigslot15single_threadedE+8@ha
 3595              	.LBE2933:
 3596              	.LBE2932:
 3597              	.LBE2931:
 3598              	.LBE2930:
 3599              	.LBE2929:
 3600              	.LBE2928:
 3601              	.LBE2964:
 3602              	.LBE2969:
 3603              	.LBE2974:
 3604              	.LBE2979:
 3605              		.loc 1 2172 0
 3606 0124 83A1001C 		lwz 29,28(1)
 3607              	.LVL315:
 3608              	.LBB2980:
 3609              	.LBB2975:
 3610              	.LBB2970:
 3611              	.LBB2965:
 3612              	.LBB2944:
 3613              	.LBB2942:
 3614              	.LBB2940:
 3615              	.LBB2938:
 3616              	.LBB2936:
 3617              	.LBB2934:
 3618              		.loc 1 105 0
 3619 0128 38090008 		la 0,_ZTVN7sigslot15single_threadedE+8@l(9)
 3620              	.LBE2934:
 3621              	.LBE2936:
 3622              	.LBE2938:
 3623              	.LBE2940:
 3624              	.LBE2942:
 3625              	.LBE2944:
 3626              	.LBE2965:
 3627              	.LBE2970:
 3628              	.LBE2975:
 3629              	.LBE2980:
 3630              		.loc 1 2172 0
 3631 012c 83C10020 		lwz 30,32(1)
 3632              	.LBB2981:
 3633              	.LBB2976:
 3634              	.LBB2971:
 3635              	.LBB2966:
 3636              	.LBB2945:
 3637              	.LBB2943:
 3638              	.LBB2941:
 3639              	.LBB2939:
 3640              	.LBB2937:
 3641              	.LBB2935:
 3642              		.loc 1 105 0
 3643 0130 901C0000 		stw 0,0(28)
 3644              	.LBE2935:
 3645              	.LBE2937:
 3646              	.LBE2939:
 3647              	.LBE2941:
 3648              	.LBE2943:
 3649              	.LBE2945:
 3650              	.LBE2966:
 3651              	.LBE2971:
 3652              	.LBE2976:
 3653              	.LBE2981:
 3654              		.loc 1 2172 0
 3655 0134 8001002C 		lwz 0,44(1)
 3656 0138 83810018 		lwz 28,24(1)
 3657              	.LVL316:
 3658 013c 7C0803A6 		mtlr 0
 3659 0140 83E10024 		lwz 31,36(1)
 3660 0144 38210028 		addi 1,1,40
 3661              		.cfi_remember_state
 3662              	.LCFI42:
 3663              		.cfi_def_cfa_offset 0
 3664              		.cfi_restore 31
 3665              		.cfi_restore 30
 3666              		.cfi_restore 29
 3667              		.cfi_restore 28
 3668 0148 4E800020 		blr
 3669              	.LVL317:
 3670              	.L259:
 3671              	.LCFI43:
 3672              		.cfi_restore_state
 3673 014c 7C7F1B78 		mr 31,3
 3674              	.L233:
 3675              	.LBB2982:
 3676              	.LBB2977:
 3677              	.LBB2972:
 3678              	.LBB2967:
 3679              	.LBB2946:
 3680              	.LBB2947:
 3681              	.LBB2948:
 3682              	.LBB2949:
 3683              	.LBB2950:
 3684              	.LBB2951:
 3685              		.loc 13 70 0
 3686 0150 807C0004 		lwz 3,4(28)
 3687              	.LVL318:
 3688              		.loc 13 71 0
 3689 0154 7F83E800 		cmpw 7,3,29
 3690 0158 419E0038 		beq- 7,.L250
 3691              	.LVL319:
 3692              	.L266:
 3693              	.LBB2952:
 3694              		.loc 13 74 0
 3695 015c 83C30000 		lwz 30,0(3)
 3696              	.LVL320:
 3697              	.LBB2953:
 3698              	.LBB2954:
 3699              	.LBB2955:
 3700              		.loc 6 98 0
 3701 0160 48000001 		bl _ZdlPv
 3702              	.LVL321:
 3703              	.LBE2955:
 3704              	.LBE2954:
 3705              	.LBE2953:
 3706              	.LBE2952:
 3707              		.loc 13 71 0
 3708 0164 7F9EE800 		cmpw 7,30,29
 3709 0168 419E0028 		beq- 7,.L250
 3710              		.loc 13 74 0
 3711 016c 7FC3F378 		mr 3,30
 3712 0170 4BFFFFEC 		b .L266
 3713              	.LVL322:
 3714              	.L260:
 3715              	.LBE2951:
 3716              	.LBE2950:
 3717              	.LBE2949:
 3718              	.LBE2948:
 3719              	.LBE2947:
 3720              	.LBE2946:
 3721              	.LBB2956:
 3722              	.LBB2917:
 3723              	.LBB2912:
 3724              	.LBB2913:
 3725              	.LBB2914:
 3726              		.loc 1 343 0
 3727 0174 813C0000 		lwz 9,0(28)
 3728 0178 7C7F1B78 		mr 31,3
 3729              	.LVL323:
 3730 017c 7F83E378 		mr 3,28
 3731 0180 8009000C 		lwz 0,12(9)
 3732 0184 7C0903A6 		mtctr 0
 3733 0188 4E800421 		bctrl
 3734 018c 4BFFFFC4 		b .L233
 3735              	.LVL324:
 3736              	.L250:
 3737              	.LBE2914:
 3738              	.LBE2913:
 3739              	.LBE2912:
 3740              	.LBE2917:
 3741              	.LBE2956:
 3742              	.LBB2957:
 3743              	.LBB2958:
 3744              	.LBB2959:
 3745              	.LBB2960:
 3746              	.LBB2961:
 3747              	.LBB2962:
 3748              		.loc 1 105 0
 3749 0190 3D200000 		lis 9,_ZTVN7sigslot15single_threadedE+8@ha
 3750 0194 7FE3FB78 		mr 3,31
 3751 0198 38090008 		la 0,_ZTVN7sigslot15single_threadedE+8@l(9)
 3752 019c 901C0000 		stw 0,0(28)
 3753              	.LEHB15:
 3754 01a0 48000001 		bl _Unwind_Resume
 3755              	.LEHE15:
 3756              	.LBE2962:
 3757              	.LBE2961:
 3758              	.LBE2960:
 3759              	.LBE2959:
 3760              	.LBE2958:
 3761              	.LBE2957:
 3762              	.LBE2967:
 3763              	.LBE2972:
 3764              	.LBE2977:
 3765              	.LBE2982:
 3766              		.cfi_endproc
 3767              	.LFE1659:
 3768              		.section	.gcc_except_table
 3769              	.LLSDA1659:
 3770 0046 FF       		.byte	0xff
 3771 0047 FF       		.byte	0xff
 3772 0048 01       		.byte	0x1
 3773 0049 15       		.uleb128 .LLSDACSE1659-.LLSDACSB1659
 3774              	.LLSDACSB1659:
 3775 004a 30       		.uleb128 .LEHB12-.LFB1659
 3776 004b 04       		.uleb128 .LEHE12-.LEHB12
 3777 004c CC02     		.uleb128 .L259-.LFB1659
 3778 004e 00       		.uleb128 0
 3779 004f 54       		.uleb128 .LEHB13-.LFB1659
 3780 0050 58       		.uleb128 .LEHE13-.LEHB13
 3781 0051 F402     		.uleb128 .L260-.LFB1659
 3782 0053 00       		.uleb128 0
 3783 0054 F801     		.uleb128 .LEHB14-.LFB1659
 3784 0056 04       		.uleb128 .LEHE14-.LEHB14
 3785 0057 CC02     		.uleb128 .L259-.LFB1659
 3786 0059 00       		.uleb128 0
 3787 005a A003     		.uleb128 .LEHB15-.LFB1659
 3788 005c 04       		.uleb128 .LEHE15-.LEHB15
 3789 005d 00       		.uleb128 0
 3790 005e 00       		.uleb128 0
 3791              	.LLSDACSE1659:
 3792              		.section	.text._ZN7sigslot7signal1IP13CreditsWindowNS_15single_threadedEED2Ev,"axG",@progbits,_ZN7
 3793              		.size	_ZN7sigslot7signal1IP13CreditsWindowNS_15single_threadedEED2Ev, .-_ZN7sigslot7signal1IP13Cre
 3794              		.section	".text"
 3795              		.align 2
 3796              		.globl _ZN13CreditsWindowC2Ev
 3797              		.type	_ZN13CreditsWindowC2Ev, @function
 3798              	_ZN13CreditsWindowC2Ev:
 3799              	.LFB1621:
 3800              		.loc 4 36 0
 3801              		.cfi_startproc
 3802              		.cfi_personality 0,__gxx_personality_v0
 3803              		.cfi_lsda 0,.LLSDA1621
 3804              	.LVL325:
 3805              	.LBB3040:
 3806              		.loc 4 40 0
 3807 0148 3D200000 		lis 9,screenwidth@ha
 3808              	.LBE3040:
 3809              		.loc 4 36 0
 3810 014c 9421FEC0 		stwu 1,-320(1)
 3811              	.LCFI44:
 3812              		.cfi_def_cfa_offset 320
 3813 0150 7C0802A6 		mflr 0
 3814              	.LBB3133:
 3815              		.loc 4 40 0
 3816 0154 80890000 		lwz 4,screenwidth@l(9)
 3817 0158 3D200000 		lis 9,screenheight@ha
 3818              	.LBE3133:
 3819              		.loc 4 36 0
 3820 015c 7D800026 		mfcr 12
 3821              	.LBB3134:
 3822              		.loc 4 40 0
 3823 0160 80A90000 		lwz 5,screenheight@l(9)
 3824 0164 38C00000 		li 6,0
 3825              	.LBE3134:
 3826              		.loc 4 36 0
 3827 0168 93E1013C 		stw 31,316(1)
 3828 016c 7C7F1B78 		mr 31,3
 3829              		.cfi_offset 31, -4
 3830              		.cfi_register 70, 12
 3831              		.cfi_register 65, 0
 3832 0170 90010144 		stw 0,324(1)
 3833 0174 93A10134 		stw 29,308(1)
 3834              	.LBB3135:
 3835              	.LBB3041:
 3836              		.loc 4 44 0
 3837 0178 3FA00000 		lis 29,.LC5@ha
 3838              		.cfi_offset 29, -12
 3839              		.cfi_offset 65, 4
 3840              	.LBE3041:
 3841              	.LBE3135:
 3842              		.loc 4 36 0
 3843 017c 93C10138 		stw 30,312(1)
 3844              	.LBB3136:
 3845              		.loc 4 40 0
 3846 0180 3FC00000 		lis 30,Settings@ha
 3847              		.cfi_offset 30, -8
 3848              	.LBE3136:
 3849              		.loc 4 36 0
 3850 0184 93410128 		stw 26,296(1)
 3851              	.LBB3137:
 3852              		.loc 4 40 0
 3853 0188 3BDE0000 		la 30,Settings@l(30)
 3854              	.LBE3137:
 3855              		.loc 4 36 0
 3856 018c 9361012C 		stw 27,300(1)
 3857              	.LBB3138:
 3858              	.LBB3105:
 3859              		.loc 4 44 0
 3860 0190 3BBD0000 		la 29,.LC5@l(29)
 3861              	.LBE3105:
 3862              	.LBE3138:
 3863              		.loc 4 36 0
 3864 0194 93810130 		stw 28,304(1)
 3865 0198 91810124 		stw 12,292(1)
 3866              	.LEHB16:
 3867              	.LBB3139:
 3868              		.loc 4 40 0
 3869              		.cfi_offset 70, -28
 3870              		.cfi_offset 28, -16
 3871              		.cfi_offset 27, -20
 3872              		.cfi_offset 26, -24
 3873 019c 48000001 		bl _ZN8GuiFrameC2EiiPS_
 3874              	.LEHE16:
 3875              	.LVL326:
 3876              	.LBB3106:
 3877              	.LBB3107:
 3878              	.LBB3108:
 3879              	.LBB3109:
 3880              	.LBB3110:
 3881              	.LBB3111:
 3882              	.LBB3112:
 3883              	.LBB3113:
 3884              		.loc 5 380 0
 3885 01a0 393F00B4 		addi 9,31,180
 3886              	.LBE3113:
 3887              	.LBE3112:
 3888              	.LBB3116:
 3889              	.LBB3117:
 3890              		.loc 5 315 0
 3891 01a4 38000000 		li 0,0
 3892              	.LBE3117:
 3893              	.LBE3116:
 3894              	.LBB3118:
 3895              	.LBB3114:
 3896              		.loc 5 380 0
 3897 01a8 913F00B4 		stw 9,180(31)
 3898              	.LBE3114:
 3899              	.LBE3118:
 3900              	.LBE3111:
 3901              	.LBE3110:
 3902              	.LBE3109:
 3903              	.LBE3108:
 3904              	.LBE3107:
 3905              	.LBE3106:
 3906              		.loc 4 40 0
 3907 01ac 3D400000 		lis 10,_ZTV13CreditsWindow+8@ha
 3908              	.LBB3126:
 3909              	.LBB3124:
 3910              	.LBB3123:
 3911              	.LBB3122:
 3912              	.LBB3121:
 3913              	.LBB3120:
 3914              	.LBB3119:
 3915              	.LBB3115:
 3916              		.loc 5 381 0
 3917 01b0 913F00B8 		stw 9,184(31)
 3918              	.LBE3115:
 3919              	.LBE3119:
 3920              	.LBE3120:
 3921              	.LBE3121:
 3922              	.LBE3122:
 3923              	.LBE3123:
 3924              		.loc 1 2159 0
 3925 01b4 3D200000 		lis 9,_ZTVN7sigslot7signal1IP13CreditsWindowNS_15single_threadedEEE+8@ha
 3926 01b8 39290008 		la 9,_ZTVN7sigslot7signal1IP13CreditsWindowNS_15single_threadedEEE+8@l(9)
 3927              	.LBE3124:
 3928              	.LBE3126:
 3929              		.loc 4 40 0
 3930 01bc 817E0070 		lwz 11,112(30)
 3931              	.LBB3127:
 3932              	.LBB3125:
 3933              		.loc 1 2159 0
 3934 01c0 913F00B0 		stw 9,176(31)
 3935              	.LBE3125:
 3936              	.LBE3127:
 3937              	.LBB3128:
 3938              		.loc 4 42 0
 3939 01c4 3D200000 		lis 9,.LC4@ha
 3940              	.LBE3128:
 3941              		.loc 4 40 0
 3942 01c8 901F00BC 		stw 0,188(31)
 3943 01cc 394A0008 		la 10,_ZTV13CreditsWindow+8@l(10)
 3944 01d0 901F00C0 		stw 0,192(31)
 3945              	.LBB3129:
 3946              		.loc 4 44 0
 3947 01d4 7FA3EB78 		mr 3,29
 3948              		.loc 4 42 0
 3949 01d8 8009000C 		lwz 0,.LC4@l(9)
 3950              	.LBE3129:
 3951              		.loc 4 40 0
 3952 01dc 915F0000 		stw 10,0(31)
 3953              	.LVL327:
 3954 01e0 917F00C4 		stw 11,196(31)
 3955              	.LBB3130:
 3956              		.loc 4 42 0
 3957 01e4 901E0070 		stw 0,112(30)
 3958              	.LEHB17:
 3959              		.loc 4 44 0
 3960 01e8 48000001 		bl _ZN9Resources7GetFileEPKc
 3961 01ec 7C7B1B78 		mr 27,3
 3962 01f0 7FA3EB78 		mr 3,29
 3963 01f4 48000001 		bl _ZN9Resources11GetFileSizeEPKc
 3964              		.loc 4 44 0 is_stmt 0 discriminator 1
 3965 01f8 7C7C1B78 		mr 28,3
 3966 01fc 38600020 		li 3,32
 3967 0200 48000001 		bl _Znwj
 3968              	.LEHE17:
 3969 0204 7F64DB78 		mr 4,27
 3970 0208 7F85E378 		mr 5,28
 3971 020c 38C00000 		li 6,0
 3972 0210 38E0FFFF 		li 7,-1
 3973 0214 7C7D1B78 		mr 29,3
 3974              	.LEHB18:
 3975 0218 48000001 		bl _ZN8GuiSoundC1EPKhibi
 3976              	.LEHE18:
 3977 021c 93BF00D8 		stw 29,216(31)
 3978              		.loc 4 45 0 is_stmt 1 discriminator 1
 3979 0220 7FA3EB78 		mr 3,29
 3980 0224 809E04E4 		lwz 4,1252(30)
 3981              	.LEHB19:
 3982 0228 48000001 		bl _ZN8GuiSound9SetVolumeEi
 3983              		.loc 4 46 0
 3984 022c 807F00D8 		lwz 3,216(31)
 3985 0230 38800001 		li 4,1
 3986 0234 48000001 		bl _ZN8GuiSound7SetLoopEh
 3987              	.LBB3042:
 3988              	.LBB3043:
 3989              		.file 14 "d:/Projects/SaveGameManager/savegame-manager-gx/trunk/source/Prompts/../SoundOperations/
 3990              		.loc 14 38 0
 3991 0238 3FA00000 		lis 29,_ZN11MusicPlayer8instanceE@ha
 3992 023c 83DD0000 		lwz 30,_ZN11MusicPlayer8instanceE@l(29)
 3993 0240 2F9E0000 		cmpwi 7,30,0
 3994 0244 419E0A70 		beq- 7,.L351
 3995              	.L268:
 3996              	.LBE3043:
 3997              	.LBE3042:
 3998              		.loc 4 48 0
 3999 0248 881E00D9 		lbz 0,217(30)
 4000 024c 2F800000 		cmpwi 7,0,0
 4001 0250 409E0014 		bne- 7,.L270
 4002              	.LBB3045:
 4003              	.LBB3046:
 4004              		.loc 14 50 0
 4005 0254 807E00F0 		lwz 3,240(30)
 4006 0258 48000001 		bl _ZN8GuiSound5PauseEv
 4007 025c 38000001 		li 0,1
 4008 0260 981E00D8 		stb 0,216(30)
 4009              	.L270:
 4010              	.LBE3046:
 4011              	.LBE3045:
 4012              		.loc 4 50 0
 4013 0264 807F00D8 		lwz 3,216(31)
 4014 0268 48000001 		bl _ZN8GuiSound4PlayEv
 4015              		.loc 4 52 0
 4016 026c 3C600000 		lis 3,.LC6@ha
 4017 0270 38630014 		la 3,.LC6@l(3)
 4018 0274 48000001 		bl _ZN9Resources12GetImageDataEPKc
 4019 0278 907F00C8 		stw 3,200(31)
 4020              		.loc 4 53 0
 4021 027c 386000C4 		li 3,196
 4022 0280 48000001 		bl _Znwj
 4023              	.LEHE19:
 4024              		.loc 4 53 0 is_stmt 0 discriminator 1
 4025 0284 809F00C8 		lwz 4,200(31)
 4026 0288 7C7E1B78 		mr 30,3
 4027              	.LEHB20:
 4028 028c 48000001 		bl _ZN8GuiImageC1EP12GuiImageData
 4029              	.LEHE20:
 4030              		.loc 4 55 0 is_stmt 1 discriminator 1
 4031 0290 3C600000 		lis 3,.LC7@ha
 4032              		.loc 4 53 0 discriminator 1
 4033 0294 93DF00D0 		stw 30,208(31)
 4034              		.loc 4 55 0 discriminator 1
 4035 0298 38630024 		la 3,.LC7@l(3)
 4036              	.LEHB21:
 4037 029c 48000001 		bl _ZN9Resources12GetImageDataEPKc
 4038 02a0 907F00CC 		stw 3,204(31)
 4039              		.loc 4 56 0 discriminator 1
 4040 02a4 386000C4 		li 3,196
 4041 02a8 48000001 		bl _Znwj
 4042              	.LEHE21:
 4043 02ac 809F00CC 		lwz 4,204(31)
 4044 02b0 7C7E1B78 		mr 30,3
 4045              	.LEHB22:
 4046 02b4 48000001 		bl _ZN8GuiImageC1EP12GuiImageData
 4047              	.LEHE22:
 4048 02b8 93DF00D4 		stw 30,212(31)
 4049              		.loc 4 57 0 discriminator 1
 4050 02bc 7FC3F378 		mr 3,30
 4051 02c0 813E0000 		lwz 9,0(30)
 4052 02c4 388001F4 		li 4,500
 4053 02c8 38A00168 		li 5,360
 4054 02cc 800900A8 		lwz 0,168(9)
 4055 02d0 7C0903A6 		mtctr 0
 4056              	.LEHB23:
 4057 02d4 4E800421 		bctrl
 4058              	.LVL328:
 4059              		.loc 4 62 0
 4060 02d8 3C600000 		lis 3,.LC8@ha
 4061 02dc 3863003C 		la 3,.LC8@l(3)
 4062 02e0 48000001 		bl gettext
 4063 02e4 3FA00000 		lis 29,.LC9@ha
 4064 02e8 7C7B1B78 		mr 27,3
 4065 02ec 3BBD0044 		la 29,.LC9@l(29)
 4066 02f0 7FA3EB78 		mr 3,29
 4067 02f4 48000001 		bl getThemeColor
 4068              		.loc 4 62 0 is_stmt 0 discriminator 1
 4069 02f8 7C7A1B78 		mr 26,3
 4070 02fc 386000D0 		li 3,208
 4071 0300 48000001 		bl _Znwj
 4072              	.LEHE23:
 4073              		.loc 4 62 0 discriminator 2
 4074 0304 7C3E0B78 		mr 30,1
 4075 0308 7F64DB78 		mr 4,27
 4076 030c 975E0118 		stwu 26,280(30)
 4077 0310 38A0001C 		li 5,28
 4078 0314 7C7C1B78 		mr 28,3
 4079 0318 7FC6F378 		mr 6,30
 4080              	.LEHB24:
 4081 031c 48000001 		bl _ZN7GuiTextC1EPKci9_gx_color
 4082              	.LEHE24:
 4083              		.loc 4 62 0 discriminator 1
 4084 0320 939F00DC 		stw 28,220(31)
 4085              		.loc 4 63 0 is_stmt 1 discriminator 1
 4086 0324 7F83E378 		mr 3,28
 4087 0328 813C0000 		lwz 9,0(28)
 4088 032c 38800012 		li 4,18
 4089 0330 800900B4 		lwz 0,180(9)
 4090 0334 7C0903A6 		mtctr 0
 4091              	.LEHB25:
 4092 0338 4E800421 		bctrl
 4093              		.loc 4 64 0
 4094 033c 807F00DC 		lwz 3,220(31)
 4095 0340 38800000 		li 4,0
 4096 0344 38A00016 		li 5,22
 4097 0348 81230000 		lwz 9,0(3)
 4098 034c 800900A8 		lwz 0,168(9)
 4099 0350 7C0903A6 		mtctr 0
 4100 0354 4E800421 		bctrl
 4101              	.LVL329:
 4102              		.loc 4 68 0
 4103 0358 48000001 		bl GetRev
 4104 035c 7C7B1B78 		mr 27,3
 4105 0360 48000001 		bl IOS_GetVersion
 4106              		.loc 4 68 0 is_stmt 0 discriminator 1
 4107 0364 7C7C1B78 		mr 28,3
 4108 0368 48000001 		bl IOS_GetRevision
 4109              		.loc 4 68 0 discriminator 2
 4110 036c 3CA00000 		lis 5,.LC10@ha
 4111 0370 7C681B78 		mr 8,3
 4112 0374 38800064 		li 4,100
 4113 0378 386100AC 		addi 3,1,172
 4114 037c 38A5007C 		la 5,.LC10@l(5)
 4115 0380 7F66DB78 		mr 6,27
 4116 0384 7F87E378 		mr 7,28
 4117 0388 4CC63182 		crxor 6,6,6
 4118 038c 48000001 		bl snprintf
 4119              		.loc 4 70 0 is_stmt 1
 4120 0390 38000000 		li 0,0
 4121 0394 38610060 		addi 3,1,96
 4122 0398 38800000 		li 4,0
 4123 039c 38A0004C 		li 5,76
 4124 03a0 9001005C 		stw 0,92(1)
 4125 03a4 48000001 		bl memset
 4126              		.loc 4 71 0
 4127 03a8 48000001 		bl IOS_GetVersion
 4128 03ac 48000001 		bl _ZN9IosLoader10GetIOSInfoEi
 4129              	.LVL330:
 4130              		.loc 4 72 0 discriminator 1
 4131 03b0 2E030000 		cmpwi 4,3,0
 4132 03b4 7C681B78 		mr 8,3
 4133 03b8 4192002C 		beq- 4,.L273
 4134              		.loc 4 73 0
 4135 03bc 80E30008 		lwz 7,8(3)
 4136 03c0 3CA00000 		lis 5,.LC11@ha
 4137 03c4 8123000C 		lwz 9,12(3)
 4138 03c8 38C80010 		addi 6,8,16
 4139 03cc 3861005C 		addi 3,1,92
 4140              	.LVL331:
 4141 03d0 38800050 		li 4,80
 4142 03d4 38A50094 		la 5,.LC11@l(5)
 4143 03d8 39080020 		addi 8,8,32
 4144              	.LVL332:
 4145 03dc 4CC63182 		crxor 6,6,6
 4146 03e0 48000001 		bl snprintf
 4147              	.LVL333:
 4148              	.L273:
 4149              		.loc 4 75 0
 4150 03e4 7FA3EB78 		mr 3,29
 4151 03e8 48000001 		bl getThemeColor
 4152 03ec 7C7B1B78 		mr 27,3
 4153 03f0 386000D0 		li 3,208
 4154 03f4 48000001 		bl _Znwj
 4155              	.LEHE25:
 4156              		.loc 4 75 0 is_stmt 0 discriminator 1
 4157 03f8 388100AC 		addi 4,1,172
 4158 03fc 38A00010 		li 5,16
 4159 0400 7FC6F378 		mr 6,30
 4160 0404 7C7C1B78 		mr 28,3
 4161 0408 93610118 		stw 27,280(1)
 4162              	.LEHB26:
 4163 040c 48000001 		bl _ZN7GuiTextC1EPKci9_gx_color
 4164              	.LEHE26:
 4165 0410 939F00E0 		stw 28,224(31)
 4166              		.loc 4 76 0 is_stmt 1 discriminator 1
 4167 0414 7F83E378 		mr 3,28
 4168 0418 813C0000 		lwz 9,0(28)
 4169 041c 38800014 		li 4,20
 4170 0420 800900B4 		lwz 0,180(9)
 4171 0424 7C0903A6 		mtctr 0
 4172              	.LEHB27:
 4173 0428 4E800421 		bctrl
 4174              		.loc 4 77 0
 4175 042c 807F00E0 		lwz 3,224(31)
 4176 0430 81230000 		lwz 9,0(3)
 4177 0434 800900A8 		lwz 0,168(9)
 4178 0438 41920874 		beq- 4,.L312
 4179 043c 38A00014 		li 5,20
 4180              	.L274:
 4181              		.loc 4 77 0 is_stmt 0 discriminator 3
 4182 0440 38800000 		li 4,0
 4183 0444 7C0903A6 		mtctr 0
 4184 0448 4E800421 		bctrl
 4185              	.LVL334:
 4186              		.loc 4 80 0 is_stmt 1
 4187 044c 7FA3EB78 		mr 3,29
 4188 0450 48000001 		bl getThemeColor
 4189 0454 7C7B1B78 		mr 27,3
 4190 0458 386000D0 		li 3,208
 4191 045c 48000001 		bl _Znwj
 4192              	.LEHE27:
 4193              		.loc 4 80 0 is_stmt 0 discriminator 1
 4194 0460 3881005C 		addi 4,1,92
 4195 0464 38A00010 		li 5,16
 4196 0468 7FC6F378 		mr 6,30
 4197 046c 7C7C1B78 		mr 28,3
 4198 0470 93610118 		stw 27,280(1)
 4199              	.LEHB28:
 4200 0474 48000001 		bl _ZN7GuiTextC1EPKci9_gx_color
 4201              	.LEHE28:
 4202 0478 939F00E4 		stw 28,228(31)
 4203              		.loc 4 81 0 is_stmt 1 discriminator 1
 4204 047c 7F83E378 		mr 3,28
 4205 0480 813C0000 		lwz 9,0(28)
 4206 0484 38800014 		li 4,20
 4207 0488 800900B4 		lwz 0,180(9)
 4208 048c 7C0903A6 		mtctr 0
 4209              	.LEHB29:
 4210 0490 4E800421 		bctrl
 4211              		.loc 4 82 0
 4212 0494 807F00E4 		lwz 3,228(31)
 4213 0498 38800000 		li 4,0
 4214 049c 38A00024 		li 5,36
 4215 04a0 81230000 		lwz 9,0(3)
 4216 04a4 800900A8 		lwz 0,168(9)
 4217 04a8 7C0903A6 		mtctr 0
 4218 04ac 4E800421 		bctrl
 4219              	.LVL335:
 4220              		.loc 4 86 0
 4221 04b0 7FA3EB78 		mr 3,29
 4222 04b4 48000001 		bl getThemeColor
 4223 04b8 7C7B1B78 		mr 27,3
 4224 04bc 386000D0 		li 3,208
 4225 04c0 48000001 		bl _Znwj
 4226              	.LEHE29:
 4227              		.loc 4 86 0 is_stmt 0 discriminator 1
 4228 04c4 3C800000 		lis 4,.LC12@ha
 4229 04c8 38A0001C 		li 5,28
 4230 04cc 388400A8 		la 4,.LC12@l(4)
 4231 04d0 7FC6F378 		mr 6,30
 4232 04d4 7C7C1B78 		mr 28,3
 4233 04d8 93610118 		stw 27,280(1)
 4234              	.LEHB30:
 4235 04dc 48000001 		bl _ZN7GuiTextC1EPKci9_gx_color
 4236              	.LEHE30:
 4237 04e0 939F00E8 		stw 28,232(31)
 4238              		.loc 4 87 0 is_stmt 1 discriminator 1
 4239 04e4 7F83E378 		mr 3,28
 4240 04e8 813C0000 		lwz 9,0(28)
 4241 04ec 38800012 		li 4,18
 4242 04f0 800900B4 		lwz 0,180(9)
 4243 04f4 7C0903A6 		mtctr 0
 4244              	.LEHB31:
 4245 04f8 4E800421 		bctrl
 4246              		.loc 4 88 0
 4247 04fc 807F00E8 		lwz 3,232(31)
 4248 0500 38800000 		li 4,0
 4249 0504 38A0003E 		li 5,62
 4250 0508 81230000 		lwz 9,0(3)
 4251 050c 800900A8 		lwz 0,168(9)
 4252 0510 7C0903A6 		mtctr 0
 4253 0514 4E800421 		bctrl
 4254              	.LVL336:
 4255              		.loc 4 92 0
 4256 0518 3C600000 		lis 3,.LC13@ha
 4257 051c 386300BC 		la 3,.LC13@l(3)
 4258 0520 48000001 		bl gettext
 4259 0524 7C7A1B78 		mr 26,3
 4260 0528 7FA3EB78 		mr 3,29
 4261 052c 48000001 		bl getThemeColor
 4262              		.loc 4 92 0 is_stmt 0 discriminator 1
 4263 0530 7C7B1B78 		mr 27,3
 4264 0534 386000D0 		li 3,208
 4265 0538 48000001 		bl _Znwj
 4266              	.LEHE31:
 4267              		.loc 4 92 0 discriminator 2
 4268 053c 7F44D378 		mr 4,26
 4269 0540 38A00012 		li 5,18
 4270 0544 7FC6F378 		mr 6,30
 4271 0548 7C7C1B78 		mr 28,3
 4272 054c 93610118 		stw 27,280(1)
 4273              	.LEHB32:
 4274 0550 48000001 		bl _ZN7GuiTextC1EPKci9_gx_color
 4275              	.LEHE32:
 4276              		.loc 4 92 0 discriminator 1
 4277 0554 939F00EC 		stw 28,236(31)
 4278              		.loc 4 93 0 is_stmt 1 discriminator 1
 4279 0558 7F83E378 		mr 3,28
 4280 055c 813C0000 		lwz 9,0(28)
 4281 0560 38800011 		li 4,17
 4282 0564 800900B4 		lwz 0,180(9)
 4283 0568 7C0903A6 		mtctr 0
 4284              	.LEHB33:
 4285 056c 4E800421 		bctrl
 4286              		.loc 4 94 0
 4287 0570 807F00EC 		lwz 3,236(31)
 4288 0574 3880000A 		li 4,10
 4289 0578 38A0005C 		li 5,92
 4290 057c 81230000 		lwz 9,0(3)
 4291 0580 800900A8 		lwz 0,168(9)
 4292 0584 7C0903A6 		mtctr 0
 4293 0588 4E800421 		bctrl
 4294              	.LVL337:
 4295              		.loc 4 97 0
 4296 058c 7FA3EB78 		mr 3,29
 4297 0590 48000001 		bl getThemeColor
 4298 0594 7C7B1B78 		mr 27,3
 4299 0598 386000D0 		li 3,208
 4300 059c 48000001 		bl _Znwj
 4301              	.LEHE33:
 4302              		.loc 4 97 0 is_stmt 0 discriminator 1
 4303 05a0 3C800000 		lis 4,.LC14@ha
 4304 05a4 38A00014 		li 5,20
 4305 05a8 388400CC 		la 4,.LC14@l(4)
 4306 05ac 7FC6F378 		mr 6,30
 4307 05b0 7C7C1B78 		mr 28,3
 4308 05b4 93610118 		stw 27,280(1)
 4309              	.LEHB34:
 4310 05b8 48000001 		bl _ZN7GuiTextC1EPKci9_gx_color
 4311              	.LEHE34:
 4312 05bc 939F00F0 		stw 28,240(31)
 4313              		.loc 4 98 0 is_stmt 1 discriminator 1
 4314 05c0 7F83E378 		mr 3,28
 4315 05c4 813C0000 		lwz 9,0(28)
 4316 05c8 38800011 		li 4,17
 4317 05cc 800900B4 		lwz 0,180(9)
 4318 05d0 7C0903A6 		mtctr 0
 4319              	.LEHB35:
 4320 05d4 4E800421 		bctrl
 4321              		.loc 4 99 0
 4322 05d8 807F00F0 		lwz 3,240(31)
 4323 05dc 388000A0 		li 4,160
 4324 05e0 38A0005C 		li 5,92
 4325 05e4 81230000 		lwz 9,0(3)
 4326 05e8 800900A8 		lwz 0,168(9)
 4327 05ec 7C0903A6 		mtctr 0
 4328 05f0 4E800421 		bctrl
 4329              	.LVL338:
 4330              		.loc 4 103 0
 4331 05f4 7FA3EB78 		mr 3,29
 4332 05f8 48000001 		bl getThemeColor
 4333 05fc 90610118 		stw 3,280(1)
 4334 0600 7FC4F378 		mr 4,30
 4335 0604 38600012 		li 3,18
 4336 0608 38A00000 		li 5,0
 4337 060c 38C00011 		li 6,17
 4338 0610 48000001 		bl _ZN7GuiText10SetPresetsEi9_gx_colorii
 4339              		.loc 4 105 0
 4340 0614 3C600000 		lis 3,.LC15@ha
 4341 0618 386300E8 		la 3,.LC15@l(3)
 4342 061c 48000001 		bl gettext
 4343 0620 7C7D1B78 		mr 29,3
 4344 0624 386000D0 		li 3,208
 4345 0628 48000001 		bl _Znwj
 4346              	.LEHE35:
 4347              		.loc 4 105 0 is_stmt 0 discriminator 1
 4348 062c 7FA4EB78 		mr 4,29
 4349 0630 7C7E1B78 		mr 30,3
 4350              	.LEHB36:
 4351 0634 48000001 		bl _ZN7GuiTextC1EPKc
 4352              	.LEHE36:
 4353 0638 93DF00F4 		stw 30,244(31)
 4354              		.loc 4 106 0 is_stmt 1 discriminator 1
 4355 063c 7FC3F378 		mr 3,30
 4356 0640 813E0000 		lwz 9,0(30)
 4357 0644 3880000A 		li 4,10
 4358 0648 38A00076 		li 5,118
 4359 064c 800900A8 		lwz 0,168(9)
 4360 0650 7C0903A6 		mtctr 0
 4361              	.LEHB37:
 4362 0654 4E800421 		bctrl
 4363              	.LVL339:
 4364              		.loc 4 109 0
 4365 0658 386000D0 		li 3,208
 4366 065c 48000001 		bl _Znwj
 4367              	.LEHE37:
 4368 0660 3FA00000 		lis 29,.LC16@ha
 4369 0664 7C7E1B78 		mr 30,3
 4370 0668 3BBD00F0 		la 29,.LC16@l(29)
 4371 066c 7FA4EB78 		mr 4,29
 4372              	.LEHB38:
 4373 0670 48000001 		bl _ZN7GuiTextC1EPKc
 4374              	.LEHE38:
 4375              		.loc 4 109 0 is_stmt 0 discriminator 1
 4376 0674 93DF00F8 		stw 30,248(31)
 4377              		.loc 4 110 0 is_stmt 1 discriminator 1
 4378 0678 7FC3F378 		mr 3,30
 4379 067c 813E0000 		lwz 9,0(30)
 4380 0680 388000A0 		li 4,160
 4381 0684 38A00076 		li 5,118
 4382 0688 800900A8 		lwz 0,168(9)
 4383 068c 7C0903A6 		mtctr 0
 4384              	.LEHB39:
 4385 0690 4E800421 		bctrl
 4386              	.LVL340:
 4387              		.loc 4 114 0
 4388 0694 386000D0 		li 3,208
 4389 0698 48000001 		bl _Znwj
 4390              	.LEHE39:
 4391 069c 3C800000 		lis 4,.LC17@ha
 4392 06a0 7C7E1B78 		mr 30,3
 4393 06a4 388400FC 		la 4,.LC17@l(4)
 4394              	.LEHB40:
 4395 06a8 48000001 		bl _ZN7GuiTextC1EPKc
 4396              	.LEHE40:
 4397              		.loc 4 114 0 is_stmt 0 discriminator 1
 4398 06ac 93DF00FC 		stw 30,252(31)
 4399              		.loc 4 115 0 is_stmt 1 discriminator 1
 4400 06b0 7FC3F378 		mr 3,30
 4401 06b4 813E0000 		lwz 9,0(30)
 4402 06b8 388000A0 		li 4,160
 4403 06bc 38A0008C 		li 5,140
 4404 06c0 800900A8 		lwz 0,168(9)
 4405 06c4 7C0903A6 		mtctr 0
 4406              	.LEHB41:
 4407 06c8 4E800421 		bctrl
 4408              	.LVL341:
 4409              		.loc 4 119 0
 4410 06cc 3C600000 		lis 3,.LC18@ha
 4411 06d0 38630108 		la 3,.LC18@l(3)
 4412 06d4 48000001 		bl gettext
 4413 06d8 7C7C1B78 		mr 28,3
 4414 06dc 386000D0 		li 3,208
 4415 06e0 48000001 		bl _Znwj
 4416              	.LEHE41:
 4417              		.loc 4 119 0 is_stmt 0 discriminator 1
 4418 06e4 7F84E378 		mr 4,28
 4419 06e8 7C7E1B78 		mr 30,3
 4420              	.LEHB42:
 4421 06ec 48000001 		bl _ZN7GuiTextC1EPKc
 4422              	.LEHE42:
 4423 06f0 93DF0100 		stw 30,256(31)
 4424              		.loc 4 120 0 is_stmt 1 discriminator 1
 4425 06f4 7FC3F378 		mr 3,30
 4426 06f8 813E0000 		lwz 9,0(30)
 4427 06fc 3880000A 		li 4,10
 4428 0700 38A000A6 		li 5,166
 4429 0704 800900A8 		lwz 0,168(9)
 4430 0708 7C0903A6 		mtctr 0
 4431              	.LEHB43:
 4432 070c 4E800421 		bctrl
 4433              	.LVL342:
 4434              		.loc 4 123 0
 4435 0710 386000D0 		li 3,208
 4436 0714 48000001 		bl _Znwj
 4437              	.LEHE43:
 4438 0718 3C800000 		lis 4,.LC19@ha
 4439 071c 7C7E1B78 		mr 30,3
 4440 0720 38840110 		la 4,.LC19@l(4)
 4441              	.LEHB44:
 4442 0724 48000001 		bl _ZN7GuiTextC1EPKc
 4443              	.LEHE44:
 4444              		.loc 4 123 0 is_stmt 0 discriminator 1
 4445 0728 93DF0104 		stw 30,260(31)
 4446              		.loc 4 124 0 is_stmt 1 discriminator 1
 4447 072c 7FC3F378 		mr 3,30
 4448 0730 813E0000 		lwz 9,0(30)
 4449 0734 388000A0 		li 4,160
 4450 0738 38A000A6 		li 5,166
 4451 073c 800900A8 		lwz 0,168(9)
 4452 0740 7C0903A6 		mtctr 0
 4453              	.LEHB45:
 4454 0744 4E800421 		bctrl
 4455              	.LVL343:
 4456              		.loc 4 128 0
 4457 0748 386000D0 		li 3,208
 4458 074c 48000001 		bl _Znwj
 4459              	.LEHE45:
 4460 0750 3C800000 		lis 4,.LC20@ha
 4461 0754 7C7E1B78 		mr 30,3
 4462 0758 38840118 		la 4,.LC20@l(4)
 4463              	.LEHB46:
 4464 075c 48000001 		bl _ZN7GuiTextC1EPKc
 4465              	.LEHE46:
 4466              		.loc 4 128 0 is_stmt 0 discriminator 1
 4467 0760 93DF0108 		stw 30,264(31)
 4468              		.loc 4 129 0 is_stmt 1 discriminator 1
 4469 0764 7FC3F378 		mr 3,30
 4470 0768 813E0000 		lwz 9,0(30)
 4471 076c 388000A0 		li 4,160
 4472 0770 38A000BC 		li 5,188
 4473 0774 800900A8 		lwz 0,168(9)
 4474 0778 7C0903A6 		mtctr 0
 4475              	.LEHB47:
 4476 077c 4E800421 		bctrl
 4477              	.LVL344:
 4478              		.loc 4 133 0
 4479 0780 386000D0 		li 3,208
 4480 0784 48000001 		bl _Znwj
 4481              	.LEHE47:
 4482 0788 7FA4EB78 		mr 4,29
 4483 078c 7C7E1B78 		mr 30,3
 4484              	.LEHB48:
 4485 0790 48000001 		bl _ZN7GuiTextC1EPKc
 4486              	.LEHE48:
 4487              		.loc 4 133 0 is_stmt 0 discriminator 1
 4488 0794 93DF010C 		stw 30,268(31)
 4489              		.loc 4 134 0 is_stmt 1 discriminator 1
 4490 0798 7FC3F378 		mr 3,30
 4491 079c 813E0000 		lwz 9,0(30)
 4492 07a0 388000A0 		li 4,160
 4493 07a4 38A000D2 		li 5,210
 4494 07a8 800900A8 		lwz 0,168(9)
 4495 07ac 7C0903A6 		mtctr 0
 4496              	.LEHB49:
 4497 07b0 4E800421 		bctrl
 4498              	.LVL345:
 4499              		.loc 4 138 0
 4500 07b4 3C600000 		lis 3,.LC21@ha
 4501 07b8 38630120 		la 3,.LC21@l(3)
 4502 07bc 48000001 		bl gettext
 4503 07c0 7C7D1B78 		mr 29,3
 4504 07c4 386000D0 		li 3,208
 4505 07c8 48000001 		bl _Znwj
 4506              	.LEHE49:
 4507              		.loc 4 138 0 is_stmt 0 discriminator 1
 4508 07cc 7FA4EB78 		mr 4,29
 4509 07d0 7C7E1B78 		mr 30,3
 4510              	.LEHB50:
 4511 07d4 48000001 		bl _ZN7GuiTextC1EPKc
 4512              	.LEHE50:
 4513 07d8 93DF0110 		stw 30,272(31)
 4514              		.loc 4 139 0 is_stmt 1 discriminator 1
 4515 07dc 7FC3F378 		mr 3,30
 4516 07e0 813E0000 		lwz 9,0(30)
 4517 07e4 3880000A 		li 4,10
 4518 07e8 38A000EC 		li 5,236
 4519 07ec 800900A8 		lwz 0,168(9)
 4520 07f0 7C0903A6 		mtctr 0
 4521              	.LEHB51:
 4522 07f4 4E800421 		bctrl
 4523              	.LVL346:
 4524              		.loc 4 142 0
 4525 07f8 3C600000 		lis 3,.LC22@ha
 4526 07fc 38630130 		la 3,.LC22@l(3)
 4527 0800 48000001 		bl gettext
 4528 0804 7C7D1B78 		mr 29,3
 4529 0808 386000D0 		li 3,208
 4530 080c 48000001 		bl _Znwj
 4531              	.LEHE51:
 4532              		.loc 4 142 0 is_stmt 0 discriminator 1
 4533 0810 7FA4EB78 		mr 4,29
 4534 0814 7C7E1B78 		mr 30,3
 4535              	.LEHB52:
 4536 0818 48000001 		bl _ZN7GuiTextC1EPKc
 4537              	.LEHE52:
 4538 081c 93DF0114 		stw 30,276(31)
 4539              		.loc 4 143 0 is_stmt 1 discriminator 1
 4540 0820 7FC3F378 		mr 3,30
 4541 0824 813E0000 		lwz 9,0(30)
 4542 0828 388000A0 		li 4,160
 4543 082c 38A000EC 		li 5,236
 4544 0830 800900A8 		lwz 0,168(9)
 4545 0834 7C0903A6 		mtctr 0
 4546              	.LEHB53:
 4547 0838 4E800421 		bctrl
 4548              	.LVL347:
 4549              		.loc 4 148 0
 4550 083c 3C600000 		lis 3,.LC23@ha
 4551 0840 3863015C 		la 3,.LC23@l(3)
 4552 0844 48000001 		bl gettext
 4553 0848 3C800000 		lis 4,.LC24@ha
 4554 084c 7C651B78 		mr 5,3
 4555 0850 3884017C 		la 4,.LC24@l(4)
 4556 0854 3861000C 		addi 3,1,12
 4557 0858 4CC63182 		crxor 6,6,6
 4558 085c 48000001 		bl sprintf
 4559              		.loc 4 149 0
 4560 0860 386000D0 		li 3,208
 4561 0864 48000001 		bl _Znwj
 4562              	.LEHE53:
 4563              		.loc 4 149 0 is_stmt 0 discriminator 1
 4564 0868 3881000C 		addi 4,1,12
 4565 086c 7C7E1B78 		mr 30,3
 4566              	.LEHB54:
 4567 0870 48000001 		bl _ZN7GuiTextC1EPKc
 4568              	.LEHE54:
 4569 0874 93DF0118 		stw 30,280(31)
 4570              		.loc 4 150 0 is_stmt 1 discriminator 1
 4571 0878 7FC3F378 		mr 3,30
 4572 087c 813E0000 		lwz 9,0(30)
 4573 0880 388000A0 		li 4,160
 4574 0884 38A00102 		li 5,258
 4575 0888 800900A8 		lwz 0,168(9)
 4576 088c 7C0903A6 		mtctr 0
 4577              	.LEHB55:
 4578 0890 4E800421 		bctrl
 4579              	.LVL348:
 4580              		.loc 4 154 0
 4581 0894 3C600000 		lis 3,.LC25@ha
 4582 0898 38630188 		la 3,.LC25@l(3)
 4583 089c 48000001 		bl gettext
 4584 08a0 7C7D1B78 		mr 29,3
 4585 08a4 386000D0 		li 3,208
 4586 08a8 48000001 		bl _Znwj
 4587              	.LEHE55:
 4588              		.loc 4 154 0 is_stmt 0 discriminator 1
 4589 08ac 7FA4EB78 		mr 4,29
 4590 08b0 7C7E1B78 		mr 30,3
 4591              	.LEHB56:
 4592 08b4 48000001 		bl _ZN7GuiTextC1EPKc
 4593              	.LEHE56:
 4594 08b8 93DF011C 		stw 30,284(31)
 4595              		.loc 4 155 0 is_stmt 1 discriminator 1
 4596 08bc 7FC3F378 		mr 3,30
 4597 08c0 813E0000 		lwz 9,0(30)
 4598 08c4 3880000A 		li 4,10
 4599 08c8 38A0011C 		li 5,284
 4600 08cc 800900A8 		lwz 0,168(9)
 4601 08d0 7C0903A6 		mtctr 0
 4602              	.LEHB57:
 4603 08d4 4E800421 		bctrl
 4604              	.LVL349:
 4605              		.loc 4 159 0
 4606 08d8 3C600000 		lis 3,.LC26@ha
 4607 08dc 3863019C 		la 3,.LC26@l(3)
 4608 08e0 48000001 		bl gettext
 4609 08e4 3C800000 		lis 4,.LC27@ha
 4610 08e8 7C651B78 		mr 5,3
 4611 08ec 388401B4 		la 4,.LC27@l(4)
 4612 08f0 3861000C 		addi 3,1,12
 4613 08f4 4CC63182 		crxor 6,6,6
 4614 08f8 48000001 		bl sprintf
 4615              		.loc 4 160 0
 4616 08fc 386000D0 		li 3,208
 4617 0900 48000001 		bl _Znwj
 4618              	.LEHE57:
 4619              		.loc 4 160 0 is_stmt 0 discriminator 1
 4620 0904 3881000C 		addi 4,1,12
 4621 0908 7C7E1B78 		mr 30,3
 4622              	.LEHB58:
 4623 090c 48000001 		bl _ZN7GuiTextC1EPKc
 4624              	.LEHE58:
 4625 0910 93DF0120 		stw 30,288(31)
 4626              		.loc 4 161 0 is_stmt 1 discriminator 1
 4627 0914 7FC3F378 		mr 3,30
 4628 0918 813E0000 		lwz 9,0(30)
 4629 091c 38800050 		li 4,80
 4630 0920 38A00132 		li 5,306
 4631 0924 800900A8 		lwz 0,168(9)
 4632 0928 7C0903A6 		mtctr 0
 4633              	.LEHB59:
 4634 092c 4E800421 		bctrl
 4635              	.LVL350:
 4636              		.loc 4 165 0
 4637 0930 3C600000 		lis 3,.LC28@ha
 4638 0934 386301CC 		la 3,.LC28@l(3)
 4639 0938 48000001 		bl gettext
 4640 093c 3C800000 		lis 4,.LC29@ha
 4641 0940 7C651B78 		mr 5,3
 4642 0944 388401F0 		la 4,.LC29@l(4)
 4643 0948 3861000C 		addi 3,1,12
 4644 094c 4CC63182 		crxor 6,6,6
 4645 0950 48000001 		bl sprintf
 4646              		.loc 4 166 0
 4647 0954 386000D0 		li 3,208
 4648 0958 48000001 		bl _Znwj
 4649              	.LEHE59:
 4650              		.loc 4 166 0 is_stmt 0 discriminator 1
 4651 095c 3881000C 		addi 4,1,12
 4652 0960 7C7E1B78 		mr 30,3
 4653              	.LEHB60:
 4654 0964 48000001 		bl _ZN7GuiTextC1EPKc
 4655              	.LEHE60:
 4656 0968 93DF0124 		stw 30,292(31)
 4657              		.loc 4 167 0 is_stmt 1 discriminator 1
 4658 096c 7FC3F378 		mr 3,30
 4659 0970 813E0000 		lwz 9,0(30)
 4660 0974 38800050 		li 4,80
 4661 0978 38A00148 		li 5,328
 4662 097c 800900A8 		lwz 0,168(9)
 4663 0980 7C0903A6 		mtctr 0
 4664              	.LEHB61:
 4665 0984 4E800421 		bctrl
 4666              	.LVL351:
 4667              		.loc 4 171 0
 4668 0988 3C600000 		lis 3,.LC30@ha
 4669 098c 38630200 		la 3,.LC30@l(3)
 4670 0990 48000001 		bl gettext
 4671 0994 3C800000 		lis 4,.LC31@ha
 4672 0998 7C651B78 		mr 5,3
 4673 099c 38840220 		la 4,.LC31@l(4)
 4674 09a0 3861000C 		addi 3,1,12
 4675 09a4 4CC63182 		crxor 6,6,6
 4676 09a8 48000001 		bl sprintf
 4677              		.loc 4 172 0
 4678 09ac 386000D0 		li 3,208
 4679 09b0 48000001 		bl _Znwj
 4680              	.LEHE61:
 4681              		.loc 4 172 0 is_stmt 0 discriminator 1
 4682 09b4 3881000C 		addi 4,1,12
 4683 09b8 7C7E1B78 		mr 30,3
 4684              	.LEHB62:
 4685 09bc 48000001 		bl _ZN7GuiTextC1EPKc
 4686              	.LEHE62:
 4687 09c0 93DF0128 		stw 30,296(31)
 4688              		.loc 4 173 0 is_stmt 1 discriminator 1
 4689 09c4 7FC3F378 		mr 3,30
 4690 09c8 813E0000 		lwz 9,0(30)
 4691 09cc 38800050 		li 4,80
 4692 09d0 38A0015E 		li 5,350
 4693 09d4 800900A8 		lwz 0,168(9)
 4694 09d8 7C0903A6 		mtctr 0
 4695              	.LEHB63:
 4696 09dc 4E800421 		bctrl
 4697              	.LVL352:
 4698              		.loc 4 177 0
 4699 09e0 3C600000 		lis 3,.LC32@ha
 4700 09e4 3863022C 		la 3,.LC32@l(3)
 4701 09e8 48000001 		bl gettext
 4702 09ec 3C800000 		lis 4,.LC33@ha
 4703 09f0 7C651B78 		mr 5,3
 4704 09f4 38840240 		la 4,.LC33@l(4)
 4705 09f8 3861000C 		addi 3,1,12
 4706 09fc 4CC63182 		crxor 6,6,6
 4707 0a00 48000001 		bl sprintf
 4708              		.loc 4 178 0
 4709 0a04 386000D0 		li 3,208
 4710 0a08 48000001 		bl _Znwj
 4711              	.LEHE63:
 4712              		.loc 4 178 0 is_stmt 0 discriminator 1
 4713 0a0c 3881000C 		addi 4,1,12
 4714 0a10 7C7E1B78 		mr 30,3
 4715              	.LEHB64:
 4716 0a14 48000001 		bl _ZN7GuiTextC1EPKc
 4717              	.LEHE64:
 4718 0a18 93DF012C 		stw 30,300(31)
 4719              		.loc 4 179 0 is_stmt 1 discriminator 1
 4720 0a1c 7FC3F378 		mr 3,30
 4721 0a20 813E0000 		lwz 9,0(30)
 4722 0a24 38800050 		li 4,80
 4723 0a28 38A00174 		li 5,372
 4724 0a2c 800900A8 		lwz 0,168(9)
 4725 0a30 7C0903A6 		mtctr 0
 4726              	.LEHB65:
 4727 0a34 4E800421 		bctrl
 4728              	.LVL353:
 4729              		.loc 4 183 0
 4730 0a38 3C600000 		lis 3,.LC34@ha
 4731 0a3c 38630258 		la 3,.LC34@l(3)
 4732 0a40 48000001 		bl gettext
 4733 0a44 3C800000 		lis 4,.LC35@ha
 4734 0a48 7C651B78 		mr 5,3
 4735 0a4c 3884026C 		la 4,.LC35@l(4)
 4736 0a50 3861000C 		addi 3,1,12
 4737 0a54 4CC63182 		crxor 6,6,6
 4738 0a58 48000001 		bl sprintf
 4739              		.loc 4 184 0
 4740 0a5c 386000D0 		li 3,208
 4741 0a60 48000001 		bl _Znwj
 4742              	.LEHE65:
 4743              		.loc 4 184 0 is_stmt 0 discriminator 1
 4744 0a64 3881000C 		addi 4,1,12
 4745 0a68 7C7E1B78 		mr 30,3
 4746              	.LEHB66:
 4747 0a6c 48000001 		bl _ZN7GuiTextC1EPKc
 4748              	.LEHE66:
 4749 0a70 93DF0130 		stw 30,304(31)
 4750              		.loc 4 185 0 is_stmt 1 discriminator 1
 4751 0a74 7FC3F378 		mr 3,30
 4752 0a78 813E0000 		lwz 9,0(30)
 4753 0a7c 38800050 		li 4,80
 4754 0a80 38A0018A 		li 5,394
 4755 0a84 800900A8 		lwz 0,168(9)
 4756 0a88 7C0903A6 		mtctr 0
 4757              	.LEHB67:
 4758 0a8c 4E800421 		bctrl
 4759              	.LVL354:
 4760              		.loc 4 189 0
 4761 0a90 3C600000 		lis 3,.LC36@ha
 4762 0a94 38630280 		la 3,.LC36@l(3)
 4763 0a98 48000001 		bl gettext
 4764 0a9c 3C800000 		lis 4,.LC37@ha
 4765 0aa0 7C651B78 		mr 5,3
 4766 0aa4 3884028C 		la 4,.LC37@l(4)
 4767 0aa8 3861000C 		addi 3,1,12
 4768 0aac 4CC63182 		crxor 6,6,6
 4769 0ab0 48000001 		bl sprintf
 4770              		.loc 4 190 0
 4771 0ab4 386000D0 		li 3,208
 4772 0ab8 48000001 		bl _Znwj
 4773              	.LEHE67:
 4774              		.loc 4 190 0 is_stmt 0 discriminator 1
 4775 0abc 3881000C 		addi 4,1,12
 4776 0ac0 7C7E1B78 		mr 30,3
 4777              	.LEHB68:
 4778 0ac4 48000001 		bl _ZN7GuiTextC1EPKc
 4779              	.LEHE68:
 4780 0ac8 93DF0134 		stw 30,308(31)
 4781              		.loc 4 191 0 is_stmt 1 discriminator 1
 4782 0acc 7FC3F378 		mr 3,30
 4783 0ad0 813E0000 		lwz 9,0(30)
 4784 0ad4 38800050 		li 4,80
 4785 0ad8 38A001A0 		li 5,416
 4786 0adc 800900A8 		lwz 0,168(9)
 4787 0ae0 7C0903A6 		mtctr 0
 4788              	.LEHB69:
 4789 0ae4 4E800421 		bctrl
 4790              	.LVL355:
 4791              		.loc 4 197 0
 4792 0ae8 3FC00000 		lis 30,.LC38@ha
 4793              		.loc 4 195 0
 4794 0aec 38000017 		li 0,23
 4795              		.loc 4 197 0
 4796 0af0 3BDE02A0 		la 30,.LC38@l(30)
 4797              		.loc 4 195 0
 4798 0af4 901F00BC 		stw 0,188(31)
 4799              		.loc 4 197 0
 4800 0af8 7FC3F378 		mr 3,30
 4801 0afc 48000001 		bl _ZN9Resources7GetFileEPKc
 4802 0b00 7C7C1B78 		mr 28,3
 4803              	.LVL356:
 4804              		.loc 4 198 0
 4805 0b04 7FC3F378 		mr 3,30
 4806              	.LVL357:
 4807 0b08 48000001 		bl _ZN9Resources11GetFileSizeEPKc
 4808              		.loc 4 200 0 discriminator 1
 4809 0b0c 809F00D0 		lwz 4,208(31)
 4810              		.loc 4 198 0 discriminator 1
 4811 0b10 7C7B1B78 		mr 27,3
 4812              	.LVL358:
 4813              		.loc 4 200 0 discriminator 1
 4814 0b14 7FE3FB78 		mr 3,31
 4815              	.LVL359:
 4816 0b18 48000001 		bl _ZN8GuiFrame6AppendEP10GuiElement
 4817              	.LVL360:
 4818              	.LBB3047:
 4819              		.loc 4 201 0 discriminator 1
 4820 0b1c 801F00BC 		lwz 0,188(31)
 4821 0b20 2F800000 		cmpwi 7,0,0
 4822 0b24 409D0038 		ble- 7,.L275
 4823              		.loc 4 36 0
 4824 0b28 3BBF00D8 		addi 29,31,216
 4825              	.LBE3047:
 4826 0b2c 3BC00000 		li 30,0
 4827              	.LVL361:
 4828              	.L276:
 4829              	.LBB3048:
 4830              		.loc 4 203 0
 4831 0b30 847D0004 		lwzu 3,4(29)
 4832 0b34 7F84E378 		mr 4,28
 4833 0b38 7F65DB78 		mr 5,27
 4834 0b3c 48000001 		bl _ZN7GuiText7SetFontEPKhj
 4835              		.loc 4 204 0
 4836 0b40 809D0000 		lwz 4,0(29)
 4837 0b44 7FE3FB78 		mr 3,31
 4838 0b48 48000001 		bl _ZN8GuiFrame6AppendEP10GuiElement
 4839              		.loc 4 201 0
 4840 0b4c 801F00BC 		lwz 0,188(31)
 4841 0b50 3BDE0001 		addi 30,30,1
 4842              	.LVL362:
 4843 0b54 7F80F000 		cmpw 7,0,30
 4844 0b58 419DFFD8 		bgt+ 7,.L276
 4845              	.LVL363:
 4846              	.L275:
 4847              	.LBE3048:
 4848              		.loc 4 206 0
 4849 0b5c 809F00D4 		lwz 4,212(31)
 4850 0b60 7FE3FB78 		mr 3,31
 4851 0b64 48000001 		bl _ZN8GuiFrame6AppendEP10GuiElement
 4852              		.loc 4 208 0
 4853 0b68 7FE3FB78 		mr 3,31
 4854 0b6c 38800080 		li 4,128
 4855 0b70 38A00028 		li 5,40
 4856 0b74 38C00000 		li 6,0
 4857 0b78 48000001 		bl _ZN10GuiElement9SetEffectEiii
 4858              	.LBB3049:
 4859              	.LBB3050:
 4860              		.file 15 "d:/Projects/SaveGameManager/savegame-manager-gx/trunk/source/Prompts/../Controls/Applica
 4861              		.loc 15 27 0
 4862 0b7c 3FC00000 		lis 30,_ZN11Application8instanceE@ha
 4863 0b80 839E0000 		lwz 28,_ZN11Application8instanceE@l(30)
 4864              	.LVL364:
 4865 0b84 2F9C0000 		cmpwi 7,28,0
 4866 0b88 419E015C 		beq- 7,.L352
 4867              	.L277:
 4868              	.LVL365:
 4869              	.LBE3050:
 4870              	.LBE3049:
 4871              	.LBB3054:
 4872              	.LBB3055:
 4873              	.LBB3056:
 4874              		.loc 4 251 0
 4875 0b8c 813C025C 		lwz 9,604(28)
 4876              	.LBB3057:
 4877              		.loc 15 69 0
 4878 0b90 3BC00000 		li 30,0
 4879              	.LBE3057:
 4880              		.loc 4 251 0
 4881 0b94 817C0260 		lwz 11,608(28)
 4882              	.LBE3056:
 4883              	.LBE3055:
 4884              	.LBE3054:
 4885              	.LBB3098:
 4886              	.LBB3051:
 4887              		.loc 15 27 0
 4888 0b98 93E10008 		stw 31,8(1)
 4889              	.LVL366:
 4890              	.LBE3051:
 4891              	.LBE3098:
 4892              	.LBB3099:
 4893              	.LBB3095:
 4894              	.LBB3087:
 4895              	.LBB3085:
 4896              	.LBB3058:
 4897              	.LBB3059:
 4898              		.loc 9 571 0
 4899 0b9c 7C095850 		subf 0,9,11
 4900              	.LBE3059:
 4901              	.LBE3058:
 4902              		.loc 15 69 0
 4903 0ba0 540AF0BF 		srwi. 10,0,2
 4904 0ba4 7D204B78 		mr 0,9
 4905 0ba8 40A20020 		bne+ 0,.L346
 4906 0bac 48000090 		b .L279
 4907              	.LVL367:
 4908              	.L281:
 4909              	.LBB3063:
 4910              	.LBB3060:
 4911              		.loc 9 571 0
 4912 0bb0 7D205850 		subf 9,0,11
 4913              	.LBE3060:
 4914              	.LBE3063:
 4915              		.loc 15 69 0
 4916 0bb4 3BDE0001 		addi 30,30,1
 4917              	.LVL368:
 4918              	.LBB3064:
 4919              	.LBB3061:
 4920              		.loc 9 571 0
 4921 0bb8 7D291670 		srawi 9,9,2
 4922              	.LBE3061:
 4923              	.LBE3064:
 4924              		.loc 15 69 0
 4925 0bbc 7F9E4840 		cmplw 7,30,9
 4926 0bc0 409C007C 		bge- 7,.L279
 4927              	.LVL369:
 4928              	.L314:
 4929              		.loc 4 251 0
 4930 0bc4 7C090378 		mr 9,0
 4931              	.LVL370:
 4932              	.L346:
 4933              	.LBE3085:
 4934              	.LBE3087:
 4935              	.LBE3095:
 4936              	.LBE3099:
 4937              	.LBB3100:
 4938              	.LBB3052:
 4939              		.loc 4 36 0
 4940 0bc8 57DD103A 		slwi 29,30,2
 4941              	.LBE3052:
 4942              	.LBE3100:
 4943              	.LBB3101:
 4944              	.LBB3096:
 4945              	.LBB3088:
 4946              	.LBB3086:
 4947              		.loc 15 70 0
 4948 0bcc 7D29E82E 		lwzx 9,9,29
 4949 0bd0 7F9F4800 		cmpw 7,31,9
 4950 0bd4 409EFFDC 		bne+ 7,.L281
 4951              		.loc 15 71 0
 4952 0bd8 807C0274 		lwz 3,628(28)
 4953 0bdc 48000001 		bl LWP_MutexLock
 4954              	.LVL371:
 4955              	.LBB3065:
 4956              	.LBB3066:
 4957              		.loc 10 773 0
 4958 0be0 807C025C 		lwz 3,604(28)
 4959              	.LBE3066:
 4960              	.LBE3065:
 4961              	.LBB3068:
 4962              	.LBB3069:
 4963              	.LBB3070:
 4964              		.loc 4 251 0
 4965 0be4 813C0260 		lwz 9,608(28)
 4966              	.LBE3070:
 4967              	.LBE3069:
 4968              	.LBE3068:
 4969              	.LBB3081:
 4970              	.LBB3067:
 4971              		.loc 10 773 0
 4972 0be8 7C63EA14 		add 3,3,29
 4973              	.LVL372:
 4974              	.LBE3067:
 4975              	.LBE3081:
 4976              	.LBB3082:
 4977              	.LBB3079:
 4978              	.LBB3071:
 4979              	.LBB3072:
 4980 0bec 38830004 		addi 4,3,4
 4981              	.LVL373:
 4982              	.LBE3072:
 4983              	.LBE3071:
 4984              		.loc 7 138 0
 4985 0bf0 7F844800 		cmpw 7,4,9
 4986 0bf4 419E001C 		beq- 7,.L282
 4987              	.LVL374:
 4988              	.LBB3073:
 4989              	.LBB3074:
 4990              	.LBB3075:
 4991              	.LBB3076:
 4992              	.LBB3077:
 4993              	.LBB3078:
 4994              		.loc 8 364 0
 4995 0bf8 7CA44850 		subf 5,4,9
 4996              	.LVL375:
 4997              		.loc 8 365 0
 4998 0bfc 7CA51671 		srawi. 5,5,2
 4999              	.LVL376:
 5000 0c00 41A20010 		beq+ 0,.L282
 5001              		.loc 8 366 0
 5002 0c04 54A5103A 		slwi 5,5,2
 5003              	.LVL377:
 5004 0c08 48000001 		bl memmove
 5005              	.LVL378:
 5006 0c0c 813C0260 		lwz 9,608(28)
 5007              	.LVL379:
 5008              	.L282:
 5009              	.LBE3078:
 5010              	.LBE3077:
 5011              	.LBE3076:
 5012              	.LBE3075:
 5013              	.LBE3074:
 5014              	.LBE3073:
 5015              		.loc 7 140 0
 5016 0c10 3929FFFC 		addi 9,9,-4
 5017              	.LBE3079:
 5018              	.LBE3082:
 5019              		.loc 15 73 0
 5020 0c14 807C0274 		lwz 3,628(28)
 5021              	.LBB3083:
 5022              	.LBB3080:
 5023              		.loc 7 140 0
 5024 0c18 913C0260 		stw 9,608(28)
 5025              	.LBE3080:
 5026              	.LBE3083:
 5027              		.loc 15 73 0
 5028 0c1c 48000001 		bl LWP_MutexUnlock
 5029 0c20 801C025C 		lwz 0,604(28)
 5030              		.loc 15 69 0
 5031 0c24 3BDE0001 		addi 30,30,1
 5032              	.LVL380:
 5033              		.loc 15 73 0
 5034 0c28 817C0260 		lwz 11,608(28)
 5035              	.LBB3084:
 5036              	.LBB3062:
 5037              		.loc 9 571 0
 5038 0c2c 7D205850 		subf 9,0,11
 5039 0c30 7D291670 		srawi 9,9,2
 5040              	.LBE3062:
 5041              	.LBE3084:
 5042              		.loc 15 69 0
 5043 0c34 7F9E4840 		cmplw 7,30,9
 5044 0c38 419CFF8C 		blt+ 7,.L314
 5045              	.LVL381:
 5046              	.L279:
 5047              	.LBE3086:
 5048              	.LBE3088:
 5049              		.loc 15 62 0
 5050 0c3c 807C0274 		lwz 3,628(28)
 5051 0c40 48000001 		bl LWP_MutexLock
 5052              	.LVL382:
 5053              	.LBB3089:
 5054              	.LBB3090:
 5055              		.loc 9 828 0
 5056 0c44 813C0260 		lwz 9,608(28)
 5057 0c48 801C0264 		lwz 0,612(28)
 5058 0c4c 7F890000 		cmpw 7,9,0
 5059 0c50 419E007C 		beq- 7,.L283
 5060              	.LVL383:
 5061              	.LBB3091:
 5062              	.LBB3092:
 5063              		.loc 6 108 0
 5064 0c54 2F890000 		cmpwi 7,9,0
 5065 0c58 39600000 		li 11,0
 5066 0c5c 419E0010 		beq- 7,.L284
 5067 0c60 80010008 		lwz 0,8(1)
 5068 0c64 90090000 		stw 0,0(9)
 5069 0c68 817C0260 		lwz 11,608(28)
 5070              	.L284:
 5071              	.LBE3092:
 5072              	.LBE3091:
 5073              		.loc 9 831 0
 5074 0c6c 396B0004 		addi 11,11,4
 5075 0c70 917C0260 		stw 11,608(28)
 5076              	.LVL384:
 5077              	.L285:
 5078              	.LBE3090:
 5079              	.LBE3089:
 5080              		.loc 15 64 0
 5081 0c74 807C0274 		lwz 3,628(28)
 5082 0c78 48000001 		bl LWP_MutexUnlock
 5083              	.LBE3096:
 5084              	.LBE3101:
 5085              	.LBE3130:
 5086              	.LBE3139:
 5087              		.loc 4 210 0
 5088 0c7c 80010144 		lwz 0,324(1)
 5089 0c80 81810124 		lwz 12,292(1)
 5090 0c84 7C0803A6 		mtlr 0
 5091 0c88 83410128 		lwz 26,296(1)
 5092 0c8c 8361012C 		lwz 27,300(1)
 5093              	.LVL385:
 5094 0c90 7D808120 		mtcrf 8,12
 5095 0c94 83810130 		lwz 28,304(1)
 5096              	.LVL386:
 5097 0c98 83A10134 		lwz 29,308(1)
 5098 0c9c 83C10138 		lwz 30,312(1)
 5099 0ca0 83E1013C 		lwz 31,316(1)
 5100              	.LVL387:
 5101 0ca4 38210140 		addi 1,1,320
 5102              		.cfi_remember_state
 5103              	.LCFI45:
 5104              		.cfi_def_cfa_offset 0
 5105              		.cfi_restore 70
 5106              		.cfi_restore 31
 5107              		.cfi_restore 30
 5108              		.cfi_restore 29
 5109              		.cfi_restore 28
 5110              		.cfi_restore 27
 5111              		.cfi_restore 26
 5112 0ca8 4E800020 		blr
 5113              	.LVL388:
 5114              	.L312:
 5115              	.LCFI46:
 5116              		.cfi_restore_state
 5117              	.LBB3140:
 5118              	.LBB3131:
 5119              		.loc 4 77 0
 5120 0cac 38A0001E 		li 5,30
 5121 0cb0 4BFFF790 		b .L274
 5122              	.LVL389:
 5123              	.L351:
 5124              	.LBB3102:
 5125              	.LBB3044:
 5126              		.loc 14 38 0
 5127 0cb4 3860027C 		li 3,636
 5128 0cb8 48000001 		bl _Znwj
 5129              	.LEHE69:
 5130 0cbc 7C7E1B78 		mr 30,3
 5131              	.LEHB70:
 5132 0cc0 48000001 		bl _ZN11MusicPlayerC1Ev
 5133              	.LEHE70:
 5134 0cc4 93DD0000 		stw 30,_ZN11MusicPlayer8instanceE@l(29)
 5135 0cc8 4BFFF580 		b .L268
 5136              	.LVL390:
 5137              	.L283:
 5138              	.LBE3044:
 5139              	.LBE3102:
 5140              	.LBB3103:
 5141              	.LBB3097:
 5142              	.LBB3094:
 5143              	.LBB3093:
 5144              		.loc 9 834 0
 5145 0ccc 7C240B78 		mr 4,1
 5146 0cd0 387C025C 		addi 3,28,604
 5147 0cd4 9524011C 		stwu 9,284(4)
 5148 0cd8 38A10008 		addi 5,1,8
 5149              	.LEHB71:
 5150 0cdc 48000001 		bl _ZNSt6vectorIP10GuiElementSaIS1_EE13_M_insert_auxEN9__gnu_cxx17__normal_iteratorIPS1_S3_EERKS1_
 5151 0ce0 4BFFFF94 		b .L285
 5152              	.LVL391:
 5153              	.L352:
 5154              	.LBE3093:
 5155              	.LBE3094:
 5156              	.LBE3097:
 5157              	.LBE3103:
 5158              	.LBB3104:
 5159              	.LBB3053:
 5160              		.loc 15 27 0
 5161 0ce4 38600278 		li 3,632
 5162 0ce8 48000001 		bl _Znwj
 5163              	.LEHE71:
 5164 0cec 7C7C1B78 		mr 28,3
 5165              	.LEHB72:
 5166 0cf0 48000001 		bl _ZN11ApplicationC1Ev
 5167              	.LEHE72:
 5168 0cf4 939E0000 		stw 28,_ZN11Application8instanceE@l(30)
 5169 0cf8 4BFFFE94 		b .L277
 5170              	.LVL392:
 5171              	.L344:
 5172              	.L350:
 5173 0cfc 7C7D1B78 		mr 29,3
 5174              	.LBE3053:
 5175              	.LBE3104:
 5176              		.loc 4 109 0
 5177 0d00 7FC3F378 		mr 3,30
 5178 0d04 48000001 		bl _ZdlPv
 5179 0d08 7FBEEB78 		mr 30,29
 5180              	.LVL393:
 5181              	.L272:
 5182              	.LBE3131:
 5183              		.loc 4 40 0
 5184 0d0c 387F00B0 		addi 3,31,176
 5185 0d10 48000001 		bl _ZN7sigslot7signal1IP13CreditsWindowNS_15single_threadedEED1Ev
 5186 0d14 7FE3FB78 		mr 3,31
 5187 0d18 48000001 		bl _ZN8GuiFrameD2Ev
 5188 0d1c 7FC3F378 		mr 3,30
 5189              	.LEHB73:
 5190 0d20 48000001 		bl _Unwind_Resume
 5191              	.LEHE73:
 5192              	.LVL394:
 5193              	.L319:
 5194 0d24 4BFFFFD8 		b .L350
 5195              	.L318:
 5196 0d28 4BFFFFD4 		b .L350
 5197              	.LVL395:
 5198              	.L341:
 5199 0d2c 4BFFFFD0 		b .L350
 5200              	.LVL396:
 5201              	.L340:
 5202 0d30 4BFFFFCC 		b .L350
 5203              	.LVL397:
 5204              	.L339:
 5205 0d34 4BFFFFC8 		b .L350
 5206              	.LVL398:
 5207              	.L338:
 5208 0d38 4BFFFFC4 		b .L350
 5209              	.LVL399:
 5210              	.L337:
 5211 0d3c 4BFFFFC0 		b .L350
 5212              	.LVL400:
 5213              	.L336:
 5214 0d40 4BFFFFBC 		b .L350
 5215              	.LVL401:
 5216              	.L317:
 5217 0d44 7C7E1B78 		mr 30,3
 5218              	.LBB3132:
 5219              		.loc 4 44 0
 5220 0d48 7FA3EB78 		mr 3,29
 5221 0d4c 48000001 		bl _ZdlPv
 5222 0d50 4BFFFFBC 		b .L272
 5223              	.LVL402:
 5224              	.L316:
 5225 0d54 7C7E1B78 		mr 30,3
 5226 0d58 4BFFFFB4 		b .L272
 5227              	.LVL403:
 5228              	.L321:
 5229              	.L349:
 5230 0d5c 7C7E1B78 		mr 30,3
 5231              		.loc 4 97 0
 5232 0d60 7F83E378 		mr 3,28
 5233 0d64 48000001 		bl _ZdlPv
 5234 0d68 4BFFFFA4 		b .L272
 5235              	.LVL404:
 5236              	.L320:
 5237 0d6c 4BFFFFF0 		b .L349
 5238              	.LVL405:
 5239              	.L327:
 5240 0d70 4BFFFF8C 		b .L350
 5241              	.LVL406:
 5242              	.L326:
 5243 0d74 4BFFFF88 		b .L350
 5244              	.LVL407:
 5245              	.L325:
 5246 0d78 4BFFFFE4 		b .L349
 5247              	.LVL408:
 5248              	.L324:
 5249 0d7c 4BFFFFE0 		b .L349
 5250              	.LVL409:
 5251              	.L335:
 5252 0d80 4BFFFF7C 		b .L350
 5253              	.LVL410:
 5254              	.L334:
 5255 0d84 4BFFFF78 		b .L350
 5256              	.LVL411:
 5257              	.L333:
 5258 0d88 4BFFFF74 		b .L350
 5259              	.LVL412:
 5260              	.L332:
 5261 0d8c 4BFFFF70 		b .L350
 5262              	.LVL413:
 5263              	.L331:
 5264 0d90 4BFFFF6C 		b .L350
 5265              	.LVL414:
 5266              	.L330:
 5267 0d94 4BFFFF68 		b .L350
 5268              	.LVL415:
 5269              	.L329:
 5270 0d98 4BFFFF64 		b .L350
 5271              	.LVL416:
 5272              	.L328:
 5273 0d9c 4BFFFF60 		b .L350
 5274              	.LVL417:
 5275              	.L323:
 5276 0da0 4BFFFFBC 		b .L349
 5277              	.LVL418:
 5278              	.L322:
 5279 0da4 4BFFFFB8 		b .L349
 5280              	.LVL419:
 5281              	.L342:
 5282 0da8 4BFFFF54 		b .L350
 5283              	.LVL420:
 5284              	.L343:
 5285 0dac 4BFFFFB0 		b .L349
 5286              	.LBE3132:
 5287              	.LBE3140:
 5288              		.cfi_endproc
 5289              	.LFE1621:
 5290              		.section	.gcc_except_table
 5291              	.LLSDA1621:
 5292 005f FF       		.byte	0xff
 5293 0060 FF       		.byte	0xff
 5294 0061 01       		.byte	0x1
 5295 0062 DB02     		.uleb128 .LLSDACSE1621-.LLSDACSB1621
 5296              	.LLSDACSB1621:
 5297 0064 54       		.uleb128 .LEHB16-.LFB1621
 5298 0065 04       		.uleb128 .LEHE16-.LEHB16
 5299 0066 00       		.uleb128 0
 5300 0067 00       		.uleb128 0
 5301 0068 A001     		.uleb128 .LEHB17-.LFB1621
 5302 006a 1C       		.uleb128 .LEHE17-.LEHB17
 5303 006b 8C18     		.uleb128 .L316-.LFB1621
 5304 006d 00       		.uleb128 0
 5305 006e D001     		.uleb128 .LEHB18-.LFB1621
 5306 0070 04       		.uleb128 .LEHE18-.LEHB18
 5307 0071 FC17     		.uleb128 .L317-.LFB1621
 5308 0073 00       		.uleb128 0
 5309 0074 E001     		.uleb128 .LEHB19-.LFB1621
 5310 0076 5C       		.uleb128 .LEHE19-.LEHB19
 5311 0077 8C18     		.uleb128 .L316-.LFB1621
 5312 0079 00       		.uleb128 0
 5313 007a C402     		.uleb128 .LEHB20-.LFB1621
 5314 007c 04       		.uleb128 .LEHE20-.LEHB20
 5315 007d E017     		.uleb128 .L318-.LFB1621
 5316 007f 00       		.uleb128 0
 5317 0080 D402     		.uleb128 .LEHB21-.LFB1621
 5318 0082 10       		.uleb128 .LEHE21-.LEHB21
 5319 0083 8C18     		.uleb128 .L316-.LFB1621
 5320 0085 00       		.uleb128 0
 5321 0086 EC02     		.uleb128 .LEHB22-.LFB1621
 5322 0088 04       		.uleb128 .LEHE22-.LEHB22
 5323 0089 DC17     		.uleb128 .L319-.LFB1621
 5324 008b 00       		.uleb128 0
 5325 008c 8C03     		.uleb128 .LEHB23-.LFB1621
 5326 008e 30       		.uleb128 .LEHE23-.LEHB23
 5327 008f 8C18     		.uleb128 .L316-.LFB1621
 5328 0091 00       		.uleb128 0
 5329 0092 D403     		.uleb128 .LEHB24-.LFB1621
 5330 0094 04       		.uleb128 .LEHE24-.LEHB24
 5331 0095 A418     		.uleb128 .L320-.LFB1621
 5332 0097 00       		.uleb128 0
 5333 0098 F003     		.uleb128 .LEHB25-.LFB1621
 5334 009a C001     		.uleb128 .LEHE25-.LEHB25
 5335 009c 8C18     		.uleb128 .L316-.LFB1621
 5336 009e 00       		.uleb128 0
 5337 009f C405     		.uleb128 .LEHB26-.LFB1621
 5338 00a1 04       		.uleb128 .LEHE26-.LEHB26
 5339 00a2 9418     		.uleb128 .L321-.LFB1621
 5340 00a4 00       		.uleb128 0
 5341 00a5 E005     		.uleb128 .LEHB27-.LFB1621
 5342 00a7 38       		.uleb128 .LEHE27-.LEHB27
 5343 00a8 8C18     		.uleb128 .L316-.LFB1621
 5344 00aa 00       		.uleb128 0
 5345 00ab AC06     		.uleb128 .LEHB28-.LFB1621
 5346 00ad 04       		.uleb128 .LEHE28-.LEHB28
 5347 00ae DC18     		.uleb128 .L322-.LFB1621
 5348 00b0 00       		.uleb128 0
 5349 00b1 C806     		.uleb128 .LEHB29-.LFB1621
 5350 00b3 34       		.uleb128 .LEHE29-.LEHB29
 5351 00b4 8C18     		.uleb128 .L316-.LFB1621
 5352 00b6 00       		.uleb128 0
 5353 00b7 9407     		.uleb128 .LEHB30-.LFB1621
 5354 00b9 04       		.uleb128 .LEHE30-.LEHB30
 5355 00ba D818     		.uleb128 .L323-.LFB1621
 5356 00bc 00       		.uleb128 0
 5357 00bd B007     		.uleb128 .LEHB31-.LFB1621
 5358 00bf 44       		.uleb128 .LEHE31-.LEHB31
 5359 00c0 8C18     		.uleb128 .L316-.LFB1621
 5360 00c2 00       		.uleb128 0
 5361 00c3 8808     		.uleb128 .LEHB32-.LFB1621
 5362 00c5 04       		.uleb128 .LEHE32-.LEHB32
 5363 00c6 B418     		.uleb128 .L324-.LFB1621
 5364 00c8 00       		.uleb128 0
 5365 00c9 A408     		.uleb128 .LEHB33-.LFB1621
 5366 00cb 34       		.uleb128 .LEHE33-.LEHB33
 5367 00cc 8C18     		.uleb128 .L316-.LFB1621
 5368 00ce 00       		.uleb128 0
 5369 00cf F008     		.uleb128 .LEHB34-.LFB1621
 5370 00d1 04       		.uleb128 .LEHE34-.LEHB34
 5371 00d2 B018     		.uleb128 .L325-.LFB1621
 5372 00d4 00       		.uleb128 0
 5373 00d5 8C09     		.uleb128 .LEHB35-.LFB1621
 5374 00d7 58       		.uleb128 .LEHE35-.LEHB35
 5375 00d8 8C18     		.uleb128 .L316-.LFB1621
 5376 00da 00       		.uleb128 0
 5377 00db EC09     		.uleb128 .LEHB36-.LFB1621
 5378 00dd 04       		.uleb128 .LEHE36-.LEHB36
 5379 00de AC18     		.uleb128 .L326-.LFB1621
 5380 00e0 00       		.uleb128 0
 5381 00e1 8C0A     		.uleb128 .LEHB37-.LFB1621
 5382 00e3 0C       		.uleb128 .LEHE37-.LEHB37
 5383 00e4 8C18     		.uleb128 .L316-.LFB1621
 5384 00e6 00       		.uleb128 0
 5385 00e7 A80A     		.uleb128 .LEHB38-.LFB1621
 5386 00e9 04       		.uleb128 .LEHE38-.LEHB38
 5387 00ea A818     		.uleb128 .L327-.LFB1621
 5388 00ec 00       		.uleb128 0
 5389 00ed C80A     		.uleb128 .LEHB39-.LFB1621
 5390 00ef 0C       		.uleb128 .LEHE39-.LEHB39
 5391 00f0 8C18     		.uleb128 .L316-.LFB1621
 5392 00f2 00       		.uleb128 0
 5393 00f3 E00A     		.uleb128 .LEHB40-.LFB1621
 5394 00f5 04       		.uleb128 .LEHE40-.LEHB40
 5395 00f6 D418     		.uleb128 .L328-.LFB1621
 5396 00f8 00       		.uleb128 0
 5397 00f9 800B     		.uleb128 .LEHB41-.LFB1621
 5398 00fb 1C       		.uleb128 .LEHE41-.LEHB41
 5399 00fc 8C18     		.uleb128 .L316-.LFB1621
 5400 00fe 00       		.uleb128 0
 5401 00ff A40B     		.uleb128 .LEHB42-.LFB1621
 5402 0101 04       		.uleb128 .LEHE42-.LEHB42
 5403 0102 D018     		.uleb128 .L329-.LFB1621
 5404 0104 00       		.uleb128 0
 5405 0105 C40B     		.uleb128 .LEHB43-.LFB1621
 5406 0107 0C       		.uleb128 .LEHE43-.LEHB43
 5407 0108 8C18     		.uleb128 .L316-.LFB1621
 5408 010a 00       		.uleb128 0
 5409 010b DC0B     		.uleb128 .LEHB44-.LFB1621
 5410 010d 04       		.uleb128 .LEHE44-.LEHB44
 5411 010e CC18     		.uleb128 .L330-.LFB1621
 5412 0110 00       		.uleb128 0
 5413 0111 FC0B     		.uleb128 .LEHB45-.LFB1621
 5414 0113 0C       		.uleb128 .LEHE45-.LEHB45
 5415 0114 8C18     		.uleb128 .L316-.LFB1621
 5416 0116 00       		.uleb128 0
 5417 0117 940C     		.uleb128 .LEHB46-.LFB1621
 5418 0119 04       		.uleb128 .LEHE46-.LEHB46
 5419 011a C818     		.uleb128 .L331-.LFB1621
 5420 011c 00       		.uleb128 0
 5421 011d B40C     		.uleb128 .LEHB47-.LFB1621
 5422 011f 0C       		.uleb128 .LEHE47-.LEHB47
 5423 0120 8C18     		.uleb128 .L316-.LFB1621
 5424 0122 00       		.uleb128 0
 5425 0123 C80C     		.uleb128 .LEHB48-.LFB1621
 5426 0125 04       		.uleb128 .LEHE48-.LEHB48
 5427 0126 C418     		.uleb128 .L332-.LFB1621
 5428 0128 00       		.uleb128 0
 5429 0129 E80C     		.uleb128 .LEHB49-.LFB1621
 5430 012b 1C       		.uleb128 .LEHE49-.LEHB49
 5431 012c 8C18     		.uleb128 .L316-.LFB1621
 5432 012e 00       		.uleb128 0
 5433 012f 8C0D     		.uleb128 .LEHB50-.LFB1621
 5434 0131 04       		.uleb128 .LEHE50-.LEHB50
 5435 0132 C018     		.uleb128 .L333-.LFB1621
 5436 0134 00       		.uleb128 0
 5437 0135 AC0D     		.uleb128 .LEHB51-.LFB1621
 5438 0137 1C       		.uleb128 .LEHE51-.LEHB51
 5439 0138 8C18     		.uleb128 .L316-.LFB1621
 5440 013a 00       		.uleb128 0
 5441 013b D00D     		.uleb128 .LEHB52-.LFB1621
 5442 013d 04       		.uleb128 .LEHE52-.LEHB52
 5443 013e BC18     		.uleb128 .L334-.LFB1621
 5444 0140 00       		.uleb128 0
 5445 0141 F00D     		.uleb128 .LEHB53-.LFB1621
 5446 0143 30       		.uleb128 .LEHE53-.LEHB53
 5447 0144 8C18     		.uleb128 .L316-.LFB1621
 5448 0146 00       		.uleb128 0
 5449 0147 A80E     		.uleb128 .LEHB54-.LFB1621
 5450 0149 04       		.uleb128 .LEHE54-.LEHB54
 5451 014a B818     		.uleb128 .L335-.LFB1621
 5452 014c 00       		.uleb128 0
 5453 014d C80E     		.uleb128 .LEHB55-.LFB1621
 5454 014f 1C       		.uleb128 .LEHE55-.LEHB55
 5455 0150 8C18     		.uleb128 .L316-.LFB1621
 5456 0152 00       		.uleb128 0
 5457 0153 EC0E     		.uleb128 .LEHB56-.LFB1621
 5458 0155 04       		.uleb128 .LEHE56-.LEHB56
 5459 0156 F817     		.uleb128 .L336-.LFB1621
 5460 0158 00       		.uleb128 0
 5461 0159 8C0F     		.uleb128 .LEHB57-.LFB1621
 5462 015b 30       		.uleb128 .LEHE57-.LEHB57
 5463 015c 8C18     		.uleb128 .L316-.LFB1621
 5464 015e 00       		.uleb128 0
 5465 015f C40F     		.uleb128 .LEHB58-.LFB1621
 5466 0161 04       		.uleb128 .LEHE58-.LEHB58
 5467 0162 F417     		.uleb128 .L337-.LFB1621
 5468 0164 00       		.uleb128 0
 5469 0165 E40F     		.uleb128 .LEHB59-.LFB1621
 5470 0167 30       		.uleb128 .LEHE59-.LEHB59
 5471 0168 8C18     		.uleb128 .L316-.LFB1621
 5472 016a 00       		.uleb128 0
 5473 016b 9C10     		.uleb128 .LEHB60-.LFB1621
 5474 016d 04       		.uleb128 .LEHE60-.LEHB60
 5475 016e F017     		.uleb128 .L338-.LFB1621
 5476 0170 00       		.uleb128 0
 5477 0171 BC10     		.uleb128 .LEHB61-.LFB1621
 5478 0173 30       		.uleb128 .LEHE61-.LEHB61
 5479 0174 8C18     		.uleb128 .L316-.LFB1621
 5480 0176 00       		.uleb128 0
 5481 0177 F410     		.uleb128 .LEHB62-.LFB1621
 5482 0179 04       		.uleb128 .LEHE62-.LEHB62
 5483 017a EC17     		.uleb128 .L339-.LFB1621
 5484 017c 00       		.uleb128 0
 5485 017d 9411     		.uleb128 .LEHB63-.LFB1621
 5486 017f 30       		.uleb128 .LEHE63-.LEHB63
 5487 0180 8C18     		.uleb128 .L316-.LFB1621
 5488 0182 00       		.uleb128 0
 5489 0183 CC11     		.uleb128 .LEHB64-.LFB1621
 5490 0185 04       		.uleb128 .LEHE64-.LEHB64
 5491 0186 E817     		.uleb128 .L340-.LFB1621
 5492 0188 00       		.uleb128 0
 5493 0189 EC11     		.uleb128 .LEHB65-.LFB1621
 5494 018b 30       		.uleb128 .LEHE65-.LEHB65
 5495 018c 8C18     		.uleb128 .L316-.LFB1621
 5496 018e 00       		.uleb128 0
 5497 018f A412     		.uleb128 .LEHB66-.LFB1621
 5498 0191 04       		.uleb128 .LEHE66-.LEHB66
 5499 0192 E417     		.uleb128 .L341-.LFB1621
 5500 0194 00       		.uleb128 0
 5501 0195 C412     		.uleb128 .LEHB67-.LFB1621
 5502 0197 30       		.uleb128 .LEHE67-.LEHB67
 5503 0198 8C18     		.uleb128 .L316-.LFB1621
 5504 019a 00       		.uleb128 0
 5505 019b FC12     		.uleb128 .LEHB68-.LFB1621
 5506 019d 04       		.uleb128 .LEHE68-.LEHB68
 5507 019e E018     		.uleb128 .L342-.LFB1621
 5508 01a0 00       		.uleb128 0
 5509 01a1 9C13     		.uleb128 .LEHB69-.LFB1621
 5510 01a3 D803     		.uleb128 .LEHE69-.LEHB69
 5511 01a5 8C18     		.uleb128 .L316-.LFB1621
 5512 01a7 00       		.uleb128 0
 5513 01a8 F816     		.uleb128 .LEHB70-.LFB1621
 5514 01aa 04       		.uleb128 .LEHE70-.LEHB70
 5515 01ab B417     		.uleb128 .L344-.LFB1621
 5516 01ad 00       		.uleb128 0
 5517 01ae 9417     		.uleb128 .LEHB71-.LFB1621
 5518 01b0 10       		.uleb128 .LEHE71-.LEHB71
 5519 01b1 8C18     		.uleb128 .L316-.LFB1621
 5520 01b3 00       		.uleb128 0
 5521 01b4 A817     		.uleb128 .LEHB72-.LFB1621
 5522 01b6 04       		.uleb128 .LEHE72-.LEHB72
 5523 01b7 E418     		.uleb128 .L343-.LFB1621
 5524 01b9 00       		.uleb128 0
 5525 01ba D817     		.uleb128 .LEHB73-.LFB1621
 5526 01bc 04       		.uleb128 .LEHE73-.LEHB73
 5527 01bd 00       		.uleb128 0
 5528 01be 00       		.uleb128 0
 5529              	.LLSDACSE1621:
 5530              		.section	".text"
 5531              		.size	_ZN13CreditsWindowC2Ev, .-_ZN13CreditsWindowC2Ev
 5532              		.section	.text._ZN7sigslot7signal1IP13CreditsWindowNS_15single_threadedEED0Ev,"axG",@progbits,_ZN7
 5533              		.align 2
 5534              		.weak	_ZN7sigslot7signal1IP13CreditsWindowNS_15single_threadedEED0Ev
 5535              		.type	_ZN7sigslot7signal1IP13CreditsWindowNS_15single_threadedEED0Ev, @function
 5536              	_ZN7sigslot7signal1IP13CreditsWindowNS_15single_threadedEED0Ev:
 5537              	.LFB1661:
 5538              		.loc 1 2169 0
 5539              		.cfi_startproc
 5540              		.cfi_personality 0,__gxx_personality_v0
 5541              		.cfi_lsda 0,.LLSDA1661
 5542              	.LVL421:
 5543 0000 7C0802A6 		mflr 0
 5544 0004 9421FFD8 		stwu 1,-40(1)
 5545              	.LCFI47:
 5546              		.cfi_def_cfa_offset 40
 5547              		.cfi_register 65, 0
 5548              	.LBB3239:
 5549              	.LBB3240:
 5550              	.LBB3241:
 5551              	.LBB3242:
 5552              	.LBB3243:
 5553              	.LBB3244:
 5554              		.loc 1 705 0
 5555 0008 3D200000 		lis 9,_ZTVN7sigslot13_signal_base1IP13CreditsWindowNS_15single_threadedEEE+8@ha
 5556              	.LBE3244:
 5557              	.LBE3243:
 5558              	.LBE3242:
 5559              	.LBE3241:
 5560              	.LBE3240:
 5561              	.LBE3239:
 5562              		.loc 1 2169 0
 5563 000c 93810018 		stw 28,24(1)
 5564 0010 7C7C1B78 		mr 28,3
 5565              		.cfi_offset 28, -16
 5566              	.LVL422:
 5567 0014 9001002C 		stw 0,44(1)
 5568              	.LBB3341:
 5569              	.LBB3337:
 5570              	.LBB3333:
 5571              	.LBB3329:
 5572              	.LBB3325:
 5573              	.LBB3321:
 5574              		.loc 1 705 0
 5575 0018 38090008 		la 0,_ZTVN7sigslot13_signal_base1IP13CreditsWindowNS_15single_threadedEEE+8@l(9)
 5576              		.cfi_offset 65, 4
 5577              	.LBE3321:
 5578              	.LBE3325:
 5579              	.LBE3329:
 5580              	.LBE3333:
 5581              	.LBE3337:
 5582              	.LBE3341:
 5583              		.loc 1 2169 0
 5584 001c 93A1001C 		stw 29,28(1)
 5585 0020 3BA30004 		addi 29,3,4
 5586              		.cfi_offset 29, -12
 5587 0024 93C10020 		stw 30,32(1)
 5588 0028 93E10024 		stw 31,36(1)
 5589              	.LBB3342:
 5590              	.LBB3338:
 5591              	.LBB3334:
 5592              	.LBB3330:
 5593              	.LBB3326:
 5594              	.LBB3322:
 5595              		.loc 1 705 0
 5596 002c 90030000 		stw 0,0(3)
 5597              	.LVL423:
 5598              	.LEHB74:
 5599              	.LBB3245:
 5600              	.LBB3246:
 5601              	.LBB3247:
 5602              	.LBB3248:
 5603              		.loc 1 338 0
 5604              		.cfi_offset 31, -4
 5605              		.cfi_offset 30, -8
 5606 0030 48000001 		bl _ZN7sigslot15single_threaded4lockEv
 5607              	.LEHE74:
 5608              	.LVL424:
 5609              	.LBE3248:
 5610              	.LBE3247:
 5611              	.LBE3246:
 5612              		.loc 4 251 0
 5613 0034 7F9DE378 		mr 29,28
 5614              	.LVL425:
 5615 0038 87FD0004 		lwzu 31,4(29)
 5616              	.LVL426:
 5617              	.LBB3279:
 5618              		.loc 1 713 0
 5619 003c 7F9FE800 		cmpw 7,31,29
 5620 0040 419E00A8 		beq- 7,.L354
 5621              	.LVL427:
 5622              	.L393:
 5623              		.loc 1 715 0
 5624 0044 807F0008 		lwz 3,8(31)
 5625 0048 81230000 		lwz 9,0(3)
 5626 004c 80090008 		lwz 0,8(9)
 5627 0050 7C0903A6 		mtctr 0
 5628              	.LEHB75:
 5629 0054 4E800421 		bctrl
 5630              	.LBB3249:
 5631              	.LBB3250:
 5632              	.LBB3251:
 5633              	.LBB3252:
 5634              		.loc 1 338 0
 5635 0058 81230000 		lwz 9,0(3)
 5636              	.LBE3252:
 5637              	.LBE3251:
 5638              	.LBE3250:
 5639              	.LBE3249:
 5640              		.loc 1 715 0
 5641 005c 7C7E1B78 		mr 30,3
 5642              	.LVL428:
 5643 0060 93810008 		stw 28,8(1)
 5644              	.LVL429:
 5645              	.LBB3261:
 5646              	.LBB3260:
 5647              	.LBB3254:
 5648              	.LBB3253:
 5649              		.loc 1 338 0
 5650 0064 80090008 		lwz 0,8(9)
 5651 0068 7C0903A6 		mtctr 0
 5652 006c 4E800421 		bctrl
 5653              	.LVL430:
 5654              	.LBE3253:
 5655              	.LBE3254:
 5656              	.LBB3255:
 5657              	.LBB3256:
 5658              		.loc 12 528 0
 5659 0070 387E0004 		addi 3,30,4
 5660 0074 38810008 		addi 4,1,8
 5661 0078 48000001 		bl _ZNSt8_Rb_treeIPN7sigslot12_signal_baseINS0_15single_threadedEEES4_St9_IdentityIS4_ESt4lessIS4_
 5662              	.LVL431:
 5663              	.LBE3256:
 5664              	.LBE3255:
 5665              	.LBB3257:
 5666              	.LBB3258:
 5667              	.LBB3259:
 5668              		.loc 1 343 0
 5669 007c 813E0000 		lwz 9,0(30)
 5670 0080 7FC3F378 		mr 3,30
 5671 0084 8009000C 		lwz 0,12(9)
 5672 0088 7C0903A6 		mtctr 0
 5673 008c 4E800421 		bctrl
 5674              	.LVL432:
 5675              	.LBE3259:
 5676              	.LBE3258:
 5677              	.LBE3257:
 5678              	.LBE3260:
 5679              	.LBE3261:
 5680              		.loc 1 716 0
 5681 0090 807F0008 		lwz 3,8(31)
 5682 0094 2F830000 		cmpwi 7,3,0
 5683 0098 419E0014 		beq- 7,.L356
 5684 009c 81230000 		lwz 9,0(3)
 5685 00a0 80090004 		lwz 0,4(9)
 5686 00a4 7C0903A6 		mtctr 0
 5687 00a8 4E800421 		bctrl
 5688              	.LEHE75:
 5689              	.L356:
 5690              	.LVL433:
 5691              	.LBB3262:
 5692              	.LBB3263:
 5693              		.loc 5 234 0
 5694 00ac 83FF0000 		lwz 31,0(31)
 5695              	.LVL434:
 5696              	.LBE3263:
 5697              	.LBE3262:
 5698              		.loc 1 713 0
 5699 00b0 7F9DF800 		cmpw 7,29,31
 5700 00b4 409EFF90 		bne+ 7,.L393
 5701              	.LBE3279:
 5702              		.loc 4 251 0
 5703 00b8 83FC0004 		lwz 31,4(28)
 5704              	.LVL435:
 5705              	.LBB3280:
 5706              	.LBB3264:
 5707              	.LBB3265:
 5708              		.loc 5 1162 0
 5709 00bc 7F9DF800 		cmpw 7,29,31
 5710 00c0 40BE000C 		bne+ 7,.L395
 5711 00c4 48000024 		b .L354
 5712              	.LVL436:
 5713              	.L388:
 5714              		.loc 5 1163 0
 5715 00c8 7FDFF378 		mr 31,30
 5716              	.LVL437:
 5717              	.L395:
 5718              	.LBB3266:
 5719              	.LBB3267:
 5720              		.loc 13 112 0
 5721 00cc 83DF0000 		lwz 30,0(31)
 5722              	.LVL438:
 5723              	.LBB3268:
 5724              	.LBB3269:
 5725              		.loc 5 1532 0
 5726 00d0 7FE3FB78 		mr 3,31
 5727 00d4 48000001 		bl _ZNSt8__detail15_List_node_base9_M_unhookEv
 5728              	.LVL439:
 5729              	.LBB3270:
 5730              	.LBB3271:
 5731              	.LBB3272:
 5732              		.loc 6 98 0
 5733 00d8 7FE3FB78 		mr 3,31
 5734 00dc 48000001 		bl _ZdlPv
 5735              	.LVL440:
 5736              	.LBE3272:
 5737              	.LBE3271:
 5738              	.LBE3270:
 5739              	.LBE3269:
 5740              	.LBE3268:
 5741              	.LBE3267:
 5742              	.LBE3266:
 5743              		.loc 5 1162 0
 5744 00e0 7F9DF000 		cmpw 7,29,30
 5745 00e4 409EFFE4 		bne+ 7,.L388
 5746              	.LVL441:
 5747              	.L354:
 5748              	.LBE3265:
 5749              	.LBE3264:
 5750              	.LBB3273:
 5751              	.LBB3274:
 5752              	.LBB3275:
 5753              		.loc 1 343 0
 5754 00e8 813C0000 		lwz 9,0(28)
 5755 00ec 7F83E378 		mr 3,28
 5756 00f0 8009000C 		lwz 0,12(9)
 5757 00f4 7C0903A6 		mtctr 0
 5758              	.LEHB76:
 5759 00f8 4E800421 		bctrl
 5760              	.LEHE76:
 5761              	.LBE3275:
 5762              	.LBE3274:
 5763              	.LBE3273:
 5764              	.LBE3280:
 5765              	.LBE3245:
 5766              	.LBB3282:
 5767              	.LBB3283:
 5768              	.LBB3284:
 5769              	.LBB3285:
 5770              	.LBB3286:
 5771              	.LBB3287:
 5772              		.loc 13 70 0
 5773 00fc 807C0004 		lwz 3,4(28)
 5774              	.LVL442:
 5775              		.loc 13 71 0
 5776 0100 7F83E800 		cmpw 7,3,29
 5777 0104 40BE000C 		bne+ 7,.L397
 5778 0108 48000018 		b .L372
 5779              	.LVL443:
 5780              	.L389:
 5781              		.loc 13 74 0
 5782 010c 7FE3FB78 		mr 3,31
 5783              	.LVL444:
 5784              	.L397:
 5785              	.LBB3288:
 5786 0110 83E30000 		lwz 31,0(3)
 5787              	.LVL445:
 5788              	.LBB3289:
 5789              	.LBB3290:
 5790              	.LBB3291:
 5791              		.loc 6 98 0
 5792 0114 48000001 		bl _ZdlPv
 5793              	.LVL446:
 5794              	.LBE3291:
 5795              	.LBE3290:
 5796              	.LBE3289:
 5797              	.LBE3288:
 5798              		.loc 13 71 0
 5799 0118 7F9FE800 		cmpw 7,31,29
 5800 011c 409EFFF0 		bne+ 7,.L389
 5801              	.LVL447:
 5802              	.L372:
 5803              	.LBE3287:
 5804              	.LBE3286:
 5805              	.LBE3285:
 5806              	.LBE3284:
 5807              	.LBE3283:
 5808              	.LBE3282:
 5809              	.LBB3292:
 5810              	.LBB3293:
 5811              	.LBB3294:
 5812              	.LBB3295:
 5813              	.LBB3296:
 5814              	.LBB3297:
 5815              		.loc 1 105 0
 5816 0120 3D200000 		lis 9,_ZTVN7sigslot15single_threadedE+8@ha
 5817              	.LBE3297:
 5818              	.LBE3296:
 5819              	.LBE3295:
 5820              	.LBE3294:
 5821              	.LBE3293:
 5822              	.LBE3292:
 5823              	.LBE3322:
 5824              	.LBE3326:
 5825              	.LBE3330:
 5826              	.LBE3334:
 5827              	.LBE3338:
 5828              	.LBE3342:
 5829              		.loc 1 2172 0
 5830 0124 7F83E378 		mr 3,28
 5831              	.LBB3343:
 5832              	.LBB3339:
 5833              	.LBB3335:
 5834              	.LBB3331:
 5835              	.LBB3327:
 5836              	.LBB3323:
 5837              	.LBB3303:
 5838              	.LBB3302:
 5839              	.LBB3301:
 5840              	.LBB3300:
 5841              	.LBB3299:
 5842              	.LBB3298:
 5843              		.loc 1 105 0
 5844 0128 38090008 		la 0,_ZTVN7sigslot15single_threadedE+8@l(9)
 5845 012c 901C0000 		stw 0,0(28)
 5846              	.LBE3298:
 5847              	.LBE3299:
 5848              	.LBE3300:
 5849              	.LBE3301:
 5850              	.LBE3302:
 5851              	.LBE3303:
 5852              	.LBE3323:
 5853              	.LBE3327:
 5854              	.LBE3331:
 5855              	.LBE3335:
 5856              	.LBE3339:
 5857              	.LBE3343:
 5858              		.loc 1 2172 0
 5859 0130 48000001 		bl _ZdlPv
 5860 0134 8001002C 		lwz 0,44(1)
 5861 0138 83810018 		lwz 28,24(1)
 5862              	.LVL448:
 5863 013c 7C0803A6 		mtlr 0
 5864 0140 83A1001C 		lwz 29,28(1)
 5865              	.LVL449:
 5866 0144 83C10020 		lwz 30,32(1)
 5867 0148 83E10024 		lwz 31,36(1)
 5868 014c 38210028 		addi 1,1,40
 5869              		.cfi_remember_state
 5870              	.LCFI48:
 5871              		.cfi_def_cfa_offset 0
 5872              		.cfi_restore 31
 5873              		.cfi_restore 30
 5874              		.cfi_restore 29
 5875              		.cfi_restore 28
 5876 0150 4E800020 		blr
 5877              	.LVL450:
 5878              	.L391:
 5879              	.LCFI49:
 5880              		.cfi_restore_state
 5881 0154 7C7F1B78 		mr 31,3
 5882              	.L364:
 5883              	.LBB3344:
 5884              	.LBB3340:
 5885              	.LBB3336:
 5886              	.LBB3332:
 5887              	.LBB3328:
 5888              	.LBB3324:
 5889              	.LBB3304:
 5890              	.LBB3305:
 5891              	.LBB3306:
 5892              	.LBB3307:
 5893              	.LBB3308:
 5894              	.LBB3309:
 5895              		.loc 13 70 0
 5896 0158 807C0004 		lwz 3,4(28)
 5897              	.LVL451:
 5898              		.loc 13 71 0
 5899 015c 7F83E800 		cmpw 7,3,29
 5900 0160 419E0038 		beq- 7,.L381
 5901              	.LVL452:
 5902              	.L398:
 5903              	.LBB3310:
 5904              		.loc 13 74 0
 5905 0164 83C30000 		lwz 30,0(3)
 5906              	.LVL453:
 5907              	.LBB3311:
 5908              	.LBB3312:
 5909              	.LBB3313:
 5910              		.loc 6 98 0
 5911 0168 48000001 		bl _ZdlPv
 5912              	.LVL454:
 5913              	.LBE3313:
 5914              	.LBE3312:
 5915              	.LBE3311:
 5916              	.LBE3310:
 5917              		.loc 13 71 0
 5918 016c 7F9EE800 		cmpw 7,30,29
 5919 0170 419E0028 		beq- 7,.L381
 5920              		.loc 13 74 0
 5921 0174 7FC3F378 		mr 3,30
 5922 0178 4BFFFFEC 		b .L398
 5923              	.LVL455:
 5924              	.L392:
 5925              	.LBE3309:
 5926              	.LBE3308:
 5927              	.LBE3307:
 5928              	.LBE3306:
 5929              	.LBE3305:
 5930              	.LBE3304:
 5931              	.LBB3314:
 5932              	.LBB3281:
 5933              	.LBB3276:
 5934              	.LBB3277:
 5935              	.LBB3278:
 5936              		.loc 1 343 0
 5937 017c 813C0000 		lwz 9,0(28)
 5938 0180 7C7F1B78 		mr 31,3
 5939              	.LVL456:
 5940 0184 7F83E378 		mr 3,28
 5941 0188 8009000C 		lwz 0,12(9)
 5942 018c 7C0903A6 		mtctr 0
 5943 0190 4E800421 		bctrl
 5944 0194 4BFFFFC4 		b .L364
 5945              	.LVL457:
 5946              	.L381:
 5947              	.LBE3278:
 5948              	.LBE3277:
 5949              	.LBE3276:
 5950              	.LBE3281:
 5951              	.LBE3314:
 5952              	.LBB3315:
 5953              	.LBB3316:
 5954              	.LBB3317:
 5955              	.LBB3318:
 5956              	.LBB3319:
 5957              	.LBB3320:
 5958              		.loc 1 105 0
 5959 0198 3D200000 		lis 9,_ZTVN7sigslot15single_threadedE+8@ha
 5960 019c 7FE3FB78 		mr 3,31
 5961 01a0 38090008 		la 0,_ZTVN7sigslot15single_threadedE+8@l(9)
 5962 01a4 901C0000 		stw 0,0(28)
 5963              	.LEHB77:
 5964 01a8 48000001 		bl _Unwind_Resume
 5965              	.LEHE77:
 5966              	.LBE3320:
 5967              	.LBE3319:
 5968              	.LBE3318:
 5969              	.LBE3317:
 5970              	.LBE3316:
 5971              	.LBE3315:
 5972              	.LBE3324:
 5973              	.LBE3328:
 5974              	.LBE3332:
 5975              	.LBE3336:
 5976              	.LBE3340:
 5977              	.LBE3344:
 5978              		.cfi_endproc
 5979              	.LFE1661:
 5980              		.section	.gcc_except_table
 5981              	.LLSDA1661:
 5982 01bf FF       		.byte	0xff
 5983 01c0 FF       		.byte	0xff
 5984 01c1 01       		.byte	0x1
 5985 01c2 15       		.uleb128 .LLSDACSE1661-.LLSDACSB1661
 5986              	.LLSDACSB1661:
 5987 01c3 30       		.uleb128 .LEHB74-.LFB1661
 5988 01c4 04       		.uleb128 .LEHE74-.LEHB74
 5989 01c5 D402     		.uleb128 .L391-.LFB1661
 5990 01c7 00       		.uleb128 0
 5991 01c8 54       		.uleb128 .LEHB75-.LFB1661
 5992 01c9 58       		.uleb128 .LEHE75-.LEHB75
 5993 01ca FC02     		.uleb128 .L392-.LFB1661
 5994 01cc 00       		.uleb128 0
 5995 01cd F801     		.uleb128 .LEHB76-.LFB1661
 5996 01cf 04       		.uleb128 .LEHE76-.LEHB76
 5997 01d0 D402     		.uleb128 .L391-.LFB1661
 5998 01d2 00       		.uleb128 0
 5999 01d3 A803     		.uleb128 .LEHB77-.LFB1661
 6000 01d5 04       		.uleb128 .LEHE77-.LEHB77
 6001 01d6 00       		.uleb128 0
 6002 01d7 00       		.uleb128 0
 6003              	.LLSDACSE1661:
 6004              		.section	.text._ZN7sigslot7signal1IP13CreditsWindowNS_15single_threadedEED0Ev,"axG",@progbits,_ZN7
 6005              		.size	_ZN7sigslot7signal1IP13CreditsWindowNS_15single_threadedEED0Ev, .-_ZN7sigslot7signal1IP13Cre
 6006              		.section	".text"
 6007              		.align 2
 6008              		.globl _ZN13CreditsWindowD2Ev
 6009              		.type	_ZN13CreditsWindowD2Ev, @function
 6010              	_ZN13CreditsWindowD2Ev:
 6011              	.LFB1624:
 6012              		.loc 4 212 0
 6013              		.cfi_startproc
 6014              		.cfi_personality 0,__gxx_personality_v0
 6015              		.cfi_lsda 0,.LLSDA1624
 6016              	.LVL458:
 6017 0db0 7C0802A6 		mflr 0
 6018 0db4 9421FFD0 		stwu 1,-48(1)
 6019              	.LCFI50:
 6020              		.cfi_def_cfa_offset 48
 6021              		.cfi_register 65, 0
 6022              	.LBB3450:
 6023 0db8 3D200000 		lis 9,_ZTV13CreditsWindow+8@ha
 6024              	.LBE3450:
 6025 0dbc 9361001C 		stw 27,28(1)
 6026 0dc0 7C7B1B78 		mr 27,3
 6027              		.cfi_offset 27, -20
 6028 0dc4 90010034 		stw 0,52(1)
 6029              	.LBB3575:
 6030 0dc8 38090008 		la 0,_ZTV13CreditsWindow+8@l(9)
 6031              		.cfi_offset 65, 4
 6032              	.LBE3575:
 6033 0dcc 93810020 		stw 28,32(1)
 6034 0dd0 93A10024 		stw 29,36(1)
 6035 0dd4 93C10028 		stw 30,40(1)
 6036 0dd8 93E1002C 		stw 31,44(1)
 6037              	.LBB3576:
 6038              		.loc 4 212 0
 6039 0ddc 90030000 		stw 0,0(3)
 6040              	.LBB3451:
 6041              		.loc 4 214 0
 6042 0de0 806300D8 		lwz 3,216(3)
 6043              	.LVL459:
 6044              	.LEHB78:
 6045              		.cfi_offset 31, -4
 6046              		.cfi_offset 30, -8
 6047              		.cfi_offset 29, -12
 6048              		.cfi_offset 28, -16
 6049 0de4 48000001 		bl _ZN8GuiSound4StopEv
 6050              	.LBB3452:
 6051              	.LBB3453:
 6052              		.loc 14 38 0
 6053 0de8 3FC00000 		lis 30,_ZN11MusicPlayer8instanceE@ha
 6054 0dec 83FE0000 		lwz 31,_ZN11MusicPlayer8instanceE@l(30)
 6055 0df0 2F9F0000 		cmpwi 7,31,0
 6056 0df4 419E0218 		beq- 7,.L460
 6057              	.L400:
 6058              	.LBE3453:
 6059              	.LBE3452:
 6060              		.loc 4 216 0
 6061 0df8 881F00D9 		lbz 0,217(31)
 6062 0dfc 2F800000 		cmpwi 7,0,0
 6063 0e00 409E000C 		bne- 7,.L402
 6064              		.loc 4 217 0
 6065 0e04 7FE3FB78 		mr 3,31
 6066 0e08 48000001 		bl _ZN11MusicPlayer6ResumeEv
 6067              	.L402:
 6068              		.loc 4 219 0
 6069 0e0c 7F63DB78 		mr 3,27
 6070 0e10 48000001 		bl _ZN8GuiFrame9RemoveAllEv
 6071              		.loc 4 221 0
 6072 0e14 807B00D8 		lwz 3,216(27)
 6073 0e18 2F830000 		cmpwi 7,3,0
 6074 0e1c 419E0014 		beq- 7,.L405
 6075              		.loc 4 221 0 is_stmt 0 discriminator 1
 6076 0e20 81230000 		lwz 9,0(3)
 6077 0e24 80090004 		lwz 0,4(9)
 6078 0e28 7C0903A6 		mtctr 0
 6079 0e2c 4E800421 		bctrl
 6080              	.L405:
 6081              		.loc 4 223 0 is_stmt 1
 6082 0e30 807B00D0 		lwz 3,208(27)
 6083 0e34 2F830000 		cmpwi 7,3,0
 6084 0e38 419E0014 		beq- 7,.L406
 6085              		.loc 4 223 0 is_stmt 0 discriminator 1
 6086 0e3c 81230000 		lwz 9,0(3)
 6087 0e40 80090004 		lwz 0,4(9)
 6088 0e44 7C0903A6 		mtctr 0
 6089 0e48 4E800421 		bctrl
 6090              	.L406:
 6091              		.loc 4 224 0 is_stmt 1
 6092 0e4c 807B00D4 		lwz 3,212(27)
 6093 0e50 2F830000 		cmpwi 7,3,0
 6094 0e54 419E0014 		beq- 7,.L407
 6095              		.loc 4 224 0 is_stmt 0 discriminator 1
 6096 0e58 81230000 		lwz 9,0(3)
 6097 0e5c 80090004 		lwz 0,4(9)
 6098 0e60 7C0903A6 		mtctr 0
 6099 0e64 4E800421 		bctrl
 6100              	.L407:
 6101              		.loc 4 226 0 is_stmt 1
 6102 0e68 807B00C8 		lwz 3,200(27)
 6103 0e6c 48000001 		bl _ZN9Resources6RemoveEP12GuiImageData
 6104              		.loc 4 227 0
 6105 0e70 807B00CC 		lwz 3,204(27)
 6106 0e74 48000001 		bl _ZN9Resources6RemoveEP12GuiImageData
 6107              	.LVL460:
 6108              	.LBB3455:
 6109              		.loc 4 229 0 discriminator 1
 6110 0e78 813B00BC 		lwz 9,188(27)
 6111 0e7c 2F890000 		cmpwi 7,9,0
 6112 0e80 409D0040 		ble- 7,.L408
 6113              		.loc 4 212 0
 6114 0e84 3BFB00D8 		addi 31,27,216
 6115              	.LBE3455:
 6116              	.LBE3451:
 6117              	.LBE3576:
 6118 0e88 3BC00000 		li 30,0
 6119              	.LVL461:
 6120              	.L410:
 6121              	.LBB3577:
 6122              	.LBB3458:
 6123              	.LBB3456:
 6124              		.loc 4 231 0
 6125 0e8c 847F0004 		lwzu 3,4(31)
 6126 0e90 2F830000 		cmpwi 7,3,0
 6127 0e94 419E0018 		beq- 7,.L409
 6128              		.loc 4 231 0 is_stmt 0 discriminator 1
 6129 0e98 81230000 		lwz 9,0(3)
 6130 0e9c 80090004 		lwz 0,4(9)
 6131 0ea0 7C0903A6 		mtctr 0
 6132 0ea4 4E800421 		bctrl
 6133              	.LEHE78:
 6134              		.loc 4 231 0
 6135 0ea8 813B00BC 		lwz 9,188(27)
 6136              	.L409:
 6137              		.loc 4 229 0 is_stmt 1
 6138 0eac 3BDE0001 		addi 30,30,1
 6139              	.LVL462:
 6140              		.loc 4 232 0
 6141 0eb0 38000000 		li 0,0
 6142              		.loc 4 229 0
 6143 0eb4 7F89F000 		cmpw 7,9,30
 6144              		.loc 4 232 0
 6145 0eb8 901F0000 		stw 0,0(31)
 6146              		.loc 4 229 0
 6147 0ebc 419DFFD0 		bgt+ 7,.L410
 6148              	.LVL463:
 6149              	.L408:
 6150              	.LBE3456:
 6151              	.LBE3458:
 6152              	.LBB3459:
 6153              	.LBB3460:
 6154              	.LBB3461:
 6155              	.LBB3462:
 6156              	.LBB3463:
 6157              	.LBB3464:
 6158              		.loc 1 705 0
 6159 0ec0 3D200000 		lis 9,_ZTVN7sigslot13_signal_base1IP13CreditsWindowNS_15single_threadedEEE+8@ha
 6160              	.LBE3464:
 6161              	.LBE3463:
 6162              	.LBE3462:
 6163              	.LBE3461:
 6164              	.LBE3460:
 6165              	.LBE3459:
 6166              	.LBB3568:
 6167              		.loc 4 235 0
 6168 0ec4 801B00C4 		lwz 0,196(27)
 6169              	.LBE3568:
 6170              	.LBB3569:
 6171              	.LBB3564:
 6172              	.LBB3560:
 6173              	.LBB3555:
 6174              	.LBB3550:
 6175              	.LBB3545:
 6176              		.loc 1 705 0
 6177 0ec8 39290008 		la 9,_ZTVN7sigslot13_signal_base1IP13CreditsWindowNS_15single_threadedEEE+8@l(9)
 6178              	.LBE3545:
 6179              	.LBE3550:
 6180              	.LBE3555:
 6181              		.loc 1 2172 0
 6182 0ecc 3B9B00B0 		addi 28,27,176
 6183              	.LBB3556:
 6184              	.LBB3551:
 6185              	.LBB3546:
 6186              		.loc 1 705 0
 6187 0ed0 913B00B0 		stw 9,176(27)
 6188              	.LBB3465:
 6189              	.LBB3466:
 6190              	.LBB3467:
 6191              	.LBB3468:
 6192              		.loc 1 338 0
 6193 0ed4 7F83E378 		mr 3,28
 6194              	.LBE3468:
 6195              	.LBE3467:
 6196              	.LBE3466:
 6197              	.LBE3465:
 6198              	.LBE3546:
 6199              	.LBE3551:
 6200              	.LBE3556:
 6201              	.LBE3560:
 6202              	.LBE3564:
 6203              	.LBE3569:
 6204              	.LBB3570:
 6205              		.loc 4 235 0
 6206 0ed8 3D200000 		lis 9,Settings+112@ha
 6207 0edc 3BBB00B4 		addi 29,27,180
 6208 0ee0 90090070 		stw 0,Settings+112@l(9)
 6209              	.LVL464:
 6210              	.LEHB79:
 6211              	.LBE3570:
 6212              	.LBB3571:
 6213              	.LBB3565:
 6214              	.LBB3561:
 6215              	.LBB3557:
 6216              	.LBB3552:
 6217              	.LBB3547:
 6218              	.LBB3505:
 6219              	.LBB3501:
 6220              	.LBB3470:
 6221              	.LBB3469:
 6222              		.loc 1 338 0
 6223 0ee4 48000001 		bl _ZN7sigslot15single_threaded4lockEv
 6224              	.LEHE79:
 6225              	.LBE3469:
 6226              	.LBE3470:
 6227              	.LBE3501:
 6228              		.loc 4 251 0
 6229 0ee8 7F7DDB78 		mr 29,27
 6230 0eec 87FD00B4 		lwzu 31,180(29)
 6231              	.LVL465:
 6232              	.LBB3502:
 6233              		.loc 1 713 0
 6234 0ef0 7F9FE800 		cmpw 7,31,29
 6235 0ef4 419E00A8 		beq- 7,.L411
 6236              	.LVL466:
 6237              	.L453:
 6238              		.loc 1 715 0
 6239 0ef8 807F0008 		lwz 3,8(31)
 6240 0efc 81230000 		lwz 9,0(3)
 6241 0f00 80090008 		lwz 0,8(9)
 6242 0f04 7C0903A6 		mtctr 0
 6243              	.LEHB80:
 6244 0f08 4E800421 		bctrl
 6245              	.LBB3471:
 6246              	.LBB3472:
 6247              	.LBB3473:
 6248              	.LBB3474:
 6249              		.loc 1 338 0
 6250 0f0c 81230000 		lwz 9,0(3)
 6251              	.LBE3474:
 6252              	.LBE3473:
 6253              	.LBE3472:
 6254              	.LBE3471:
 6255              		.loc 1 715 0
 6256 0f10 7C7E1B78 		mr 30,3
 6257              	.LVL467:
 6258 0f14 93810008 		stw 28,8(1)
 6259              	.LVL468:
 6260              	.LBB3483:
 6261              	.LBB3482:
 6262              	.LBB3476:
 6263              	.LBB3475:
 6264              		.loc 1 338 0
 6265 0f18 80090008 		lwz 0,8(9)
 6266 0f1c 7C0903A6 		mtctr 0
 6267 0f20 4E800421 		bctrl
 6268              	.LVL469:
 6269              	.LBE3475:
 6270              	.LBE3476:
 6271              	.LBB3477:
 6272              	.LBB3478:
 6273              		.loc 12 528 0
 6274 0f24 387E0004 		addi 3,30,4
 6275 0f28 38810008 		addi 4,1,8
 6276 0f2c 48000001 		bl _ZNSt8_Rb_treeIPN7sigslot12_signal_baseINS0_15single_threadedEEES4_St9_IdentityIS4_ESt4lessIS4_
 6277              	.LVL470:
 6278              	.LBE3478:
 6279              	.LBE3477:
 6280              	.LBB3479:
 6281              	.LBB3480:
 6282              	.LBB3481:
 6283              		.loc 1 343 0
 6284 0f30 813E0000 		lwz 9,0(30)
 6285 0f34 7FC3F378 		mr 3,30
 6286 0f38 8009000C 		lwz 0,12(9)
 6287 0f3c 7C0903A6 		mtctr 0
 6288 0f40 4E800421 		bctrl
 6289              	.LVL471:
 6290              	.LBE3481:
 6291              	.LBE3480:
 6292              	.LBE3479:
 6293              	.LBE3482:
 6294              	.LBE3483:
 6295              		.loc 1 716 0
 6296 0f44 807F0008 		lwz 3,8(31)
 6297 0f48 2F830000 		cmpwi 7,3,0
 6298 0f4c 419E0014 		beq- 7,.L413
 6299 0f50 81230000 		lwz 9,0(3)
 6300 0f54 80090004 		lwz 0,4(9)
 6301 0f58 7C0903A6 		mtctr 0
 6302 0f5c 4E800421 		bctrl
 6303              	.LEHE80:
 6304              	.L413:
 6305              	.LVL472:
 6306              	.LBB3484:
 6307              	.LBB3485:
 6308              		.loc 5 234 0
 6309 0f60 83FF0000 		lwz 31,0(31)
 6310              	.LVL473:
 6311              	.LBE3485:
 6312              	.LBE3484:
 6313              		.loc 1 713 0
 6314 0f64 7F9DF800 		cmpw 7,29,31
 6315 0f68 409EFF90 		bne+ 7,.L453
 6316              	.LBE3502:
 6317              		.loc 4 251 0
 6318 0f6c 83FB00B4 		lwz 31,180(27)
 6319              	.LVL474:
 6320              	.LBB3503:
 6321              	.LBB3486:
 6322              	.LBB3487:
 6323              		.loc 5 1162 0
 6324 0f70 7F9DF800 		cmpw 7,29,31
 6325 0f74 40BE000C 		bne+ 7,.L456
 6326 0f78 48000024 		b .L411
 6327              	.LVL475:
 6328              	.L446:
 6329              		.loc 5 1163 0
 6330 0f7c 7FDFF378 		mr 31,30
 6331              	.LVL476:
 6332              	.L456:
 6333              	.LBB3488:
 6334              	.LBB3489:
 6335              		.loc 13 112 0
 6336 0f80 83DF0000 		lwz 30,0(31)
 6337              	.LVL477:
 6338              	.LBB3490:
 6339              	.LBB3491:
 6340              		.loc 5 1532 0
 6341 0f84 7FE3FB78 		mr 3,31
 6342 0f88 48000001 		bl _ZNSt8__detail15_List_node_base9_M_unhookEv
 6343              	.LVL478:
 6344              	.LBB3492:
 6345              	.LBB3493:
 6346              	.LBB3494:
 6347              		.loc 6 98 0
 6348 0f8c 7FE3FB78 		mr 3,31
 6349 0f90 48000001 		bl _ZdlPv
 6350              	.LVL479:
 6351              	.LBE3494:
 6352              	.LBE3493:
 6353              	.LBE3492:
 6354              	.LBE3491:
 6355              	.LBE3490:
 6356              	.LBE3489:
 6357              	.LBE3488:
 6358              		.loc 5 1162 0
 6359 0f94 7F9DF000 		cmpw 7,29,30
 6360 0f98 409EFFE4 		bne+ 7,.L446
 6361              	.LVL480:
 6362              	.L411:
 6363              	.LBE3487:
 6364              	.LBE3486:
 6365              	.LBB3495:
 6366              	.LBB3496:
 6367              	.LBB3497:
 6368              		.loc 1 343 0
 6369 0f9c 813B00B0 		lwz 9,176(27)
 6370 0fa0 7F83E378 		mr 3,28
 6371 0fa4 8009000C 		lwz 0,12(9)
 6372 0fa8 7C0903A6 		mtctr 0
 6373              	.LEHB81:
 6374 0fac 4E800421 		bctrl
 6375              	.LEHE81:
 6376              	.LBE3497:
 6377              	.LBE3496:
 6378              	.LBE3495:
 6379              	.LBE3503:
 6380              	.LBE3505:
 6381              	.LBB3506:
 6382              	.LBB3507:
 6383              	.LBB3508:
 6384              	.LBB3509:
 6385              	.LBB3510:
 6386              	.LBB3511:
 6387              		.loc 13 70 0
 6388 0fb0 807B00B4 		lwz 3,180(27)
 6389              	.LVL481:
 6390              		.loc 13 71 0
 6391 0fb4 7F83E800 		cmpw 7,3,29
 6392 0fb8 40BE000C 		bne+ 7,.L458
 6393 0fbc 48000018 		b .L429
 6394              	.LVL482:
 6395              	.L447:
 6396              		.loc 13 74 0
 6397 0fc0 7FE3FB78 		mr 3,31
 6398              	.LVL483:
 6399              	.L458:
 6400              	.LBB3512:
 6401 0fc4 83E30000 		lwz 31,0(3)
 6402              	.LVL484:
 6403              	.LBB3513:
 6404              	.LBB3514:
 6405              	.LBB3515:
 6406              		.loc 6 98 0
 6407 0fc8 48000001 		bl _ZdlPv
 6408              	.LVL485:
 6409              	.LBE3515:
 6410              	.LBE3514:
 6411              	.LBE3513:
 6412              	.LBE3512:
 6413              		.loc 13 71 0
 6414 0fcc 7F9FE800 		cmpw 7,31,29
 6415 0fd0 409EFFF0 		bne+ 7,.L447
 6416              	.LVL486:
 6417              	.L429:
 6418              	.LBE3511:
 6419              	.LBE3510:
 6420              	.LBE3509:
 6421              	.LBE3508:
 6422              	.LBE3507:
 6423              	.LBE3506:
 6424              	.LBB3516:
 6425              	.LBB3517:
 6426              	.LBB3518:
 6427              	.LBB3519:
 6428              	.LBB3520:
 6429              	.LBB3521:
 6430              		.loc 1 105 0
 6431 0fd4 3D200000 		lis 9,_ZTVN7sigslot15single_threadedE+8@ha
 6432              	.LBE3521:
 6433              	.LBE3520:
 6434              	.LBE3519:
 6435              	.LBE3518:
 6436              	.LBE3517:
 6437              	.LBE3516:
 6438              	.LBE3547:
 6439              	.LBE3552:
 6440              	.LBE3557:
 6441              	.LBE3561:
 6442              	.LBE3565:
 6443              	.LBE3571:
 6444              		.loc 4 212 0
 6445 0fd8 7F63DB78 		mr 3,27
 6446              	.LBB3572:
 6447              	.LBB3566:
 6448              	.LBB3562:
 6449              	.LBB3558:
 6450              	.LBB3553:
 6451              	.LBB3548:
 6452              	.LBB3527:
 6453              	.LBB3526:
 6454              	.LBB3525:
 6455              	.LBB3524:
 6456              	.LBB3523:
 6457              	.LBB3522:
 6458              		.loc 1 105 0
 6459 0fdc 38090008 		la 0,_ZTVN7sigslot15single_threadedE+8@l(9)
 6460 0fe0 901B00B0 		stw 0,176(27)
 6461              	.LEHB82:
 6462              	.LBE3522:
 6463              	.LBE3523:
 6464              	.LBE3524:
 6465              	.LBE3525:
 6466              	.LBE3526:
 6467              	.LBE3527:
 6468              	.LBE3548:
 6469              	.LBE3553:
 6470              	.LBE3558:
 6471              	.LBE3562:
 6472              	.LBE3566:
 6473              	.LBE3572:
 6474              		.loc 4 212 0
 6475 0fe4 48000001 		bl _ZN8GuiFrameD2Ev
 6476              	.LEHE82:
 6477              	.LBE3577:
 6478              		.loc 4 236 0
 6479 0fe8 80010034 		lwz 0,52(1)
 6480 0fec 8361001C 		lwz 27,28(1)
 6481              	.LVL487:
 6482 0ff0 7C0803A6 		mtlr 0
 6483 0ff4 83810020 		lwz 28,32(1)
 6484              	.LVL488:
 6485 0ff8 83A10024 		lwz 29,36(1)
 6486              	.LVL489:
 6487 0ffc 83C10028 		lwz 30,40(1)
 6488 1000 83E1002C 		lwz 31,44(1)
 6489 1004 38210030 		addi 1,1,48
 6490              		.cfi_remember_state
 6491              	.LCFI51:
 6492              		.cfi_def_cfa_offset 0
 6493              		.cfi_restore 31
 6494              		.cfi_restore 30
 6495              		.cfi_restore 29
 6496              		.cfi_restore 28
 6497              		.cfi_restore 27
 6498 1008 4E800020 		blr
 6499              	.LVL490:
 6500              	.L460:
 6501              	.LCFI52:
 6502              		.cfi_restore_state
 6503              	.LBB3578:
 6504              	.LBB3573:
 6505              	.LBB3457:
 6506              	.LBB3454:
 6507              		.loc 14 38 0
 6508 100c 3860027C 		li 3,636
 6509              	.LEHB83:
 6510 1010 48000001 		bl _Znwj
 6511              	.LEHE83:
 6512 1014 7C7F1B78 		mr 31,3
 6513              	.LEHB84:
 6514 1018 48000001 		bl _ZN11MusicPlayerC1Ev
 6515              	.LEHE84:
 6516 101c 93FE0000 		stw 31,_ZN11MusicPlayer8instanceE@l(30)
 6517 1020 4BFFFDD8 		b .L400
 6518              	.L450:
 6519 1024 7C7E1B78 		mr 30,3
 6520 1028 7FE3FB78 		mr 3,31
 6521 102c 48000001 		bl _ZdlPv
 6522 1030 7FDFF378 		mr 31,30
 6523              	.L404:
 6524              	.LBE3454:
 6525              	.LBE3457:
 6526              	.LBE3573:
 6527              		.loc 4 212 0
 6528 1034 387B00B0 		addi 3,27,176
 6529 1038 48000001 		bl _ZN7sigslot7signal1IP13CreditsWindowNS_15single_threadedEED1Ev
 6530              	.LVL491:
 6531              	.L441:
 6532 103c 7F63DB78 		mr 3,27
 6533 1040 48000001 		bl _ZN8GuiFrameD2Ev
 6534 1044 7FE3FB78 		mr 3,31
 6535              	.LEHB85:
 6536 1048 48000001 		bl _Unwind_Resume
 6537              	.LEHE85:
 6538              	.LVL492:
 6539              	.L449:
 6540 104c 7C7F1B78 		mr 31,3
 6541 1050 4BFFFFE4 		b .L404
 6542              	.LVL493:
 6543              	.L452:
 6544              	.LBB3574:
 6545              	.LBB3567:
 6546              	.LBB3563:
 6547              	.LBB3559:
 6548              	.LBB3554:
 6549              	.LBB3549:
 6550              	.LBB3528:
 6551              	.LBB3504:
 6552              	.LBB3498:
 6553              	.LBB3499:
 6554              	.LBB3500:
 6555              		.loc 1 343 0
 6556 1054 813B00B0 		lwz 9,176(27)
 6557 1058 7C7F1B78 		mr 31,3
 6558              	.LVL494:
 6559 105c 7F83E378 		mr 3,28
 6560 1060 8009000C 		lwz 0,12(9)
 6561 1064 7C0903A6 		mtctr 0
 6562 1068 4E800421 		bctrl
 6563              	.LVL495:
 6564              	.L421:
 6565              	.LBE3500:
 6566              	.LBE3499:
 6567              	.LBE3498:
 6568              	.LBE3504:
 6569              	.LBE3528:
 6570              	.LBB3529:
 6571              	.LBB3530:
 6572              	.LBB3531:
 6573              	.LBB3532:
 6574              	.LBB3533:
 6575              	.LBB3534:
 6576              		.loc 13 70 0
 6577 106c 807B00B4 		lwz 3,180(27)
 6578              	.LVL496:
 6579              		.loc 13 71 0
 6580 1070 7F83E800 		cmpw 7,3,29
 6581 1074 419E0024 		beq- 7,.L438
 6582              	.LVL497:
 6583              	.L459:
 6584              	.LBB3535:
 6585              		.loc 13 74 0
 6586 1078 83C30000 		lwz 30,0(3)
 6587              	.LVL498:
 6588              	.LBB3536:
 6589              	.LBB3537:
 6590              	.LBB3538:
 6591              		.loc 6 98 0
 6592 107c 48000001 		bl _ZdlPv
 6593              	.LVL499:
 6594              	.LBE3538:
 6595              	.LBE3537:
 6596              	.LBE3536:
 6597              	.LBE3535:
 6598              		.loc 13 71 0
 6599 1080 7F9EE800 		cmpw 7,30,29
 6600 1084 419E0014 		beq- 7,.L438
 6601              		.loc 13 74 0
 6602 1088 7FC3F378 		mr 3,30
 6603 108c 4BFFFFEC 		b .L459
 6604              	.LVL500:
 6605              	.L451:
 6606 1090 7C7F1B78 		mr 31,3
 6607 1094 4BFFFFD8 		b .L421
 6608              	.L438:
 6609              	.LBE3534:
 6610              	.LBE3533:
 6611              	.LBE3532:
 6612              	.LBE3531:
 6613              	.LBE3530:
 6614              	.LBE3529:
 6615              	.LBB3539:
 6616              	.LBB3540:
 6617              	.LBB3541:
 6618              	.LBB3542:
 6619              	.LBB3543:
 6620              	.LBB3544:
 6621              		.loc 1 105 0
 6622 1098 3D200000 		lis 9,_ZTVN7sigslot15single_threadedE+8@ha
 6623 109c 38090008 		la 0,_ZTVN7sigslot15single_threadedE+8@l(9)
 6624 10a0 901B00B0 		stw 0,176(27)
 6625 10a4 4BFFFF98 		b .L441
 6626              	.LBE3544:
 6627              	.LBE3543:
 6628              	.LBE3542:
 6629              	.LBE3541:
 6630              	.LBE3540:
 6631              	.LBE3539:
 6632              	.LBE3549:
 6633              	.LBE3554:
 6634              	.LBE3559:
 6635              	.LBE3563:
 6636              	.LBE3567:
 6637              	.LBE3574:
 6638              	.LBE3578:
 6639              		.cfi_endproc
 6640              	.LFE1624:
 6641              		.section	.gcc_except_table
 6642              	.LLSDA1624:
 6643 01d8 FF       		.byte	0xff
 6644 01d9 FF       		.byte	0xff
 6645 01da 01       		.byte	0x1
 6646 01db 2E       		.uleb128 .LLSDACSE1624-.LLSDACSB1624
 6647              	.LLSDACSB1624:
 6648 01dc 34       		.uleb128 .LEHB78-.LFB1624
 6649 01dd C401     		.uleb128 .LEHE78-.LEHB78
 6650 01df 9C05     		.uleb128 .L449-.LFB1624
 6651 01e1 00       		.uleb128 0
 6652 01e2 B402     		.uleb128 .LEHB79-.LFB1624
 6653 01e4 04       		.uleb128 .LEHE79-.LEHB79
 6654 01e5 E005     		.uleb128 .L451-.LFB1624
 6655 01e7 00       		.uleb128 0
 6656 01e8 D802     		.uleb128 .LEHB80-.LFB1624
 6657 01ea 58       		.uleb128 .LEHE80-.LEHB80
 6658 01eb A405     		.uleb128 .L452-.LFB1624
 6659 01ed 00       		.uleb128 0
 6660 01ee FC03     		.uleb128 .LEHB81-.LFB1624
 6661 01f0 04       		.uleb128 .LEHE81-.LEHB81
 6662 01f1 E005     		.uleb128 .L451-.LFB1624
 6663 01f3 00       		.uleb128 0
 6664 01f4 B404     		.uleb128 .LEHB82-.LFB1624
 6665 01f6 04       		.uleb128 .LEHE82-.LEHB82
 6666 01f7 00       		.uleb128 0
 6667 01f8 00       		.uleb128 0
 6668 01f9 E004     		.uleb128 .LEHB83-.LFB1624
 6669 01fb 04       		.uleb128 .LEHE83-.LEHB83
 6670 01fc 9C05     		.uleb128 .L449-.LFB1624
 6671 01fe 00       		.uleb128 0
 6672 01ff E804     		.uleb128 .LEHB84-.LFB1624
 6673 0201 04       		.uleb128 .LEHE84-.LEHB84
 6674 0202 F404     		.uleb128 .L450-.LFB1624
 6675 0204 00       		.uleb128 0
 6676 0205 9805     		.uleb128 .LEHB85-.LFB1624
 6677 0207 04       		.uleb128 .LEHE85-.LEHB85
 6678 0208 00       		.uleb128 0
 6679 0209 00       		.uleb128 0
 6680              	.LLSDACSE1624:
 6681              		.section	".text"
 6682              		.size	_ZN13CreditsWindowD2Ev, .-_ZN13CreditsWindowD2Ev
 6683              		.align 2
 6684              		.globl _ZN13CreditsWindowD0Ev
 6685              		.type	_ZN13CreditsWindowD0Ev, @function
 6686              	_ZN13CreditsWindowD0Ev:
 6687              	.LFB1626:
 6688              		.loc 4 212 0
 6689              		.cfi_startproc
 6690              	.LVL501:
 6691 10a8 9421FFF0 		stwu 1,-16(1)
 6692              	.LCFI53:
 6693              		.cfi_def_cfa_offset 16
 6694 10ac 7C0802A6 		mflr 0
 6695 10b0 93E1000C 		stw 31,12(1)
 6696 10b4 7C7F1B78 		mr 31,3
 6697              		.cfi_offset 31, -4
 6698              		.cfi_register 65, 0
 6699 10b8 90010014 		stw 0,20(1)
 6700              		.loc 4 236 0
 6701              		.cfi_offset 65, 4
 6702 10bc 48000001 		bl _ZN13CreditsWindowD1Ev
 6703              	.LVL502:
 6704 10c0 7FE3FB78 		mr 3,31
 6705 10c4 48000001 		bl _ZdlPv
 6706 10c8 80010014 		lwz 0,20(1)
 6707 10cc 83E1000C 		lwz 31,12(1)
 6708              	.LVL503:
 6709 10d0 7C0803A6 		mtlr 0
 6710 10d4 38210010 		addi 1,1,16
 6711              	.LCFI54:
 6712              		.cfi_def_cfa_offset 0
 6713              		.cfi_restore 31
 6714 10d8 4E800020 		blr
 6715              		.cfi_endproc
 6716              	.LFE1626:
 6717              		.size	_ZN13CreditsWindowD0Ev, .-_ZN13CreditsWindowD0Ev
 6718              		.section	.text._ZN7sigslot13_signal_base1IP13CreditsWindowNS_15single_threadedEED2Ev,"axG",@progbi
 6719              		.align 2
 6720              		.weak	_ZN7sigslot13_signal_base1IP13CreditsWindowNS_15single_threadedEED2Ev
 6721              		.type	_ZN7sigslot13_signal_base1IP13CreditsWindowNS_15single_threadedEED2Ev, @function
 6722              	_ZN7sigslot13_signal_base1IP13CreditsWindowNS_15single_threadedEED2Ev:
 6723              	.LFB1725:
 6724              		.loc 1 702 0
 6725              		.cfi_startproc
 6726              		.cfi_personality 0,__gxx_personality_v0
 6727              		.cfi_lsda 0,.LLSDA1725
 6728              	.LVL504:
 6729 0000 7C0802A6 		mflr 0
 6730 0004 9421FFD8 		stwu 1,-40(1)
 6731              	.LCFI55:
 6732              		.cfi_def_cfa_offset 40
 6733              		.cfi_register 65, 0
 6734              	.LBB3725:
 6735              		.loc 1 705 0
 6736 0008 3D200000 		lis 9,_ZTVN7sigslot13_signal_base1IP13CreditsWindowNS_15single_threadedEEE+8@ha
 6737              	.LBE3725:
 6738              		.loc 1 702 0
 6739 000c 93810018 		stw 28,24(1)
 6740 0010 7C7C1B78 		mr 28,3
 6741              		.cfi_offset 28, -16
 6742 0014 9001002C 		stw 0,44(1)
 6743              	.LBB3808:
 6744              		.loc 1 705 0
 6745 0018 38090008 		la 0,_ZTVN7sigslot13_signal_base1IP13CreditsWindowNS_15single_threadedEEE+8@l(9)
 6746              		.cfi_offset 65, 4
 6747              	.LBE3808:
 6748              		.loc 1 702 0
 6749 001c 93A1001C 		stw 29,28(1)
 6750 0020 3BA30004 		addi 29,3,4
 6751              		.cfi_offset 29, -12
 6752 0024 93C10020 		stw 30,32(1)
 6753 0028 93E10024 		stw 31,36(1)
 6754              	.LBB3809:
 6755              		.loc 1 705 0
 6756 002c 90030000 		stw 0,0(3)
 6757              	.LVL505:
 6758              	.LEHB86:
 6759              	.LBB3726:
 6760              	.LBB3727:
 6761              	.LBB3728:
 6762              	.LBB3729:
 6763              		.loc 1 338 0
 6764              		.cfi_offset 31, -4
 6765              		.cfi_offset 30, -8
 6766 0030 48000001 		bl _ZN7sigslot15single_threaded4lockEv
 6767              	.LEHE86:
 6768              	.LVL506:
 6769              	.LBE3729:
 6770              	.LBE3728:
 6771              	.LBE3727:
 6772              		.loc 4 251 0
 6773 0034 7F9DE378 		mr 29,28
 6774              	.LVL507:
 6775 0038 87FD0004 		lwzu 31,4(29)
 6776              	.LVL508:
 6777              	.LBB3760:
 6778              		.loc 1 713 0
 6779 003c 7F9FE800 		cmpw 7,31,29
 6780 0040 419E00A8 		beq- 7,.L464
 6781              	.LVL509:
 6782              	.L501:
 6783              		.loc 1 715 0
 6784 0044 807F0008 		lwz 3,8(31)
 6785 0048 81230000 		lwz 9,0(3)
 6786 004c 80090008 		lwz 0,8(9)
 6787 0050 7C0903A6 		mtctr 0
 6788              	.LEHB87:
 6789 0054 4E800421 		bctrl
 6790              	.LBB3730:
 6791              	.LBB3731:
 6792              	.LBB3732:
 6793              	.LBB3733:
 6794              		.loc 1 338 0
 6795 0058 81230000 		lwz 9,0(3)
 6796              	.LBE3733:
 6797              	.LBE3732:
 6798              	.LBE3731:
 6799              	.LBE3730:
 6800              		.loc 1 715 0
 6801 005c 7C7E1B78 		mr 30,3
 6802              	.LVL510:
 6803 0060 93810008 		stw 28,8(1)
 6804              	.LVL511:
 6805              	.LBB3742:
 6806              	.LBB3741:
 6807              	.LBB3735:
 6808              	.LBB3734:
 6809              		.loc 1 338 0
 6810 0064 80090008 		lwz 0,8(9)
 6811 0068 7C0903A6 		mtctr 0
 6812 006c 4E800421 		bctrl
 6813              	.LVL512:
 6814              	.LBE3734:
 6815              	.LBE3735:
 6816              	.LBB3736:
 6817              	.LBB3737:
 6818              		.loc 12 528 0
 6819 0070 387E0004 		addi 3,30,4
 6820 0074 38810008 		addi 4,1,8
 6821 0078 48000001 		bl _ZNSt8_Rb_treeIPN7sigslot12_signal_baseINS0_15single_threadedEEES4_St9_IdentityIS4_ESt4lessIS4_
 6822              	.LVL513:
 6823              	.LBE3737:
 6824              	.LBE3736:
 6825              	.LBB3738:
 6826              	.LBB3739:
 6827              	.LBB3740:
 6828              		.loc 1 343 0
 6829 007c 813E0000 		lwz 9,0(30)
 6830 0080 7FC3F378 		mr 3,30
 6831 0084 8009000C 		lwz 0,12(9)
 6832 0088 7C0903A6 		mtctr 0
 6833 008c 4E800421 		bctrl
 6834              	.LVL514:
 6835              	.LBE3740:
 6836              	.LBE3739:
 6837              	.LBE3738:
 6838              	.LBE3741:
 6839              	.LBE3742:
 6840              		.loc 1 716 0
 6841 0090 807F0008 		lwz 3,8(31)
 6842 0094 2F830000 		cmpwi 7,3,0
 6843 0098 419E0014 		beq- 7,.L466
 6844 009c 81230000 		lwz 9,0(3)
 6845 00a0 80090004 		lwz 0,4(9)
 6846 00a4 7C0903A6 		mtctr 0
 6847 00a8 4E800421 		bctrl
 6848              	.LEHE87:
 6849              	.L466:
 6850              	.LVL515:
 6851              	.LBB3743:
 6852              	.LBB3744:
 6853              		.loc 5 234 0
 6854 00ac 83FF0000 		lwz 31,0(31)
 6855              	.LVL516:
 6856              	.LBE3744:
 6857              	.LBE3743:
 6858              		.loc 1 713 0
 6859 00b0 7F9DF800 		cmpw 7,29,31
 6860 00b4 409EFF90 		bne+ 7,.L501
 6861              	.LBE3760:
 6862              		.loc 4 251 0
 6863 00b8 83FC0004 		lwz 31,4(28)
 6864              	.LVL517:
 6865              	.LBB3761:
 6866              	.LBB3745:
 6867              	.LBB3746:
 6868              		.loc 5 1162 0
 6869 00bc 7F9DF800 		cmpw 7,29,31
 6870 00c0 40BE000C 		bne+ 7,.L503
 6871 00c4 48000024 		b .L464
 6872              	.LVL518:
 6873              	.L496:
 6874              		.loc 5 1163 0
 6875 00c8 7FDFF378 		mr 31,30
 6876              	.LVL519:
 6877              	.L503:
 6878              	.LBB3747:
 6879              	.LBB3748:
 6880              		.loc 13 112 0
 6881 00cc 83DF0000 		lwz 30,0(31)
 6882              	.LVL520:
 6883              	.LBB3749:
 6884              	.LBB3750:
 6885              		.loc 5 1532 0
 6886 00d0 7FE3FB78 		mr 3,31
 6887 00d4 48000001 		bl _ZNSt8__detail15_List_node_base9_M_unhookEv
 6888              	.LVL521:
 6889              	.LBB3751:
 6890              	.LBB3752:
 6891              	.LBB3753:
 6892              		.loc 6 98 0
 6893 00d8 7FE3FB78 		mr 3,31
 6894 00dc 48000001 		bl _ZdlPv
 6895              	.LVL522:
 6896              	.LBE3753:
 6897              	.LBE3752:
 6898              	.LBE3751:
 6899              	.LBE3750:
 6900              	.LBE3749:
 6901              	.LBE3748:
 6902              	.LBE3747:
 6903              		.loc 5 1162 0
 6904 00e0 7F9DF000 		cmpw 7,29,30
 6905 00e4 409EFFE4 		bne+ 7,.L496
 6906              	.LVL523:
 6907              	.L464:
 6908              	.LBE3746:
 6909              	.LBE3745:
 6910              	.LBB3754:
 6911              	.LBB3755:
 6912              	.LBB3756:
 6913              		.loc 1 343 0
 6914 00e8 813C0000 		lwz 9,0(28)
 6915 00ec 7F83E378 		mr 3,28
 6916 00f0 8009000C 		lwz 0,12(9)
 6917 00f4 7C0903A6 		mtctr 0
 6918              	.LEHB88:
 6919 00f8 4E800421 		bctrl
 6920              	.LEHE88:
 6921              	.LVL524:
 6922              	.LBE3756:
 6923              	.LBE3755:
 6924              	.LBE3754:
 6925              	.LBE3761:
 6926              	.LBE3726:
 6927              	.LBB3763:
 6928              	.LBB3764:
 6929              	.LBB3765:
 6930              	.LBB3766:
 6931              	.LBB3767:
 6932              	.LBB3768:
 6933              		.loc 13 70 0
 6934 00fc 807C0004 		lwz 3,4(28)
 6935              	.LVL525:
 6936              		.loc 13 71 0
 6937 0100 7F83E800 		cmpw 7,3,29
 6938 0104 40BE000C 		bne+ 7,.L505
 6939 0108 48000018 		b .L482
 6940              	.LVL526:
 6941              	.L497:
 6942              		.loc 13 74 0
 6943 010c 7FE3FB78 		mr 3,31
 6944              	.LVL527:
 6945              	.L505:
 6946              	.LBB3769:
 6947 0110 83E30000 		lwz 31,0(3)
 6948              	.LVL528:
 6949              	.LBB3770:
 6950              	.LBB3771:
 6951              	.LBB3772:
 6952              		.loc 6 98 0
 6953 0114 48000001 		bl _ZdlPv
 6954              	.LVL529:
 6955              	.LBE3772:
 6956              	.LBE3771:
 6957              	.LBE3770:
 6958              	.LBE3769:
 6959              		.loc 13 71 0
 6960 0118 7F9FE800 		cmpw 7,31,29
 6961 011c 409EFFF0 		bne+ 7,.L497
 6962              	.LVL530:
 6963              	.L482:
 6964              	.LBE3768:
 6965              	.LBE3767:
 6966              	.LBE3766:
 6967              	.LBE3765:
 6968              	.LBE3764:
 6969              	.LBE3763:
 6970              	.LBB3773:
 6971              	.LBB3774:
 6972              	.LBB3775:
 6973              	.LBB3776:
 6974              	.LBB3777:
 6975              	.LBB3778:
 6976              		.loc 1 105 0
 6977 0120 3D200000 		lis 9,_ZTVN7sigslot15single_threadedE+8@ha
 6978              	.LBE3778:
 6979              	.LBE3777:
 6980              	.LBE3776:
 6981              	.LBE3775:
 6982              	.LBE3774:
 6983              	.LBE3773:
 6984              	.LBE3809:
 6985              		.loc 1 705 0
 6986 0124 83A1001C 		lwz 29,28(1)
 6987              	.LVL531:
 6988              	.LBB3810:
 6989              	.LBB3789:
 6990              	.LBB3787:
 6991              	.LBB3785:
 6992              	.LBB3783:
 6993              	.LBB3781:
 6994              	.LBB3779:
 6995              		.loc 1 105 0
 6996 0128 38090008 		la 0,_ZTVN7sigslot15single_threadedE+8@l(9)
 6997              	.LBE3779:
 6998              	.LBE3781:
 6999              	.LBE3783:
 7000              	.LBE3785:
 7001              	.LBE3787:
 7002              	.LBE3789:
 7003              	.LBE3810:
 7004              		.loc 1 705 0
 7005 012c 83C10020 		lwz 30,32(1)
 7006              	.LBB3811:
 7007              	.LBB3790:
 7008              	.LBB3788:
 7009              	.LBB3786:
 7010              	.LBB3784:
 7011              	.LBB3782:
 7012              	.LBB3780:
 7013              		.loc 1 105 0
 7014 0130 901C0000 		stw 0,0(28)
 7015              	.LBE3780:
 7016              	.LBE3782:
 7017              	.LBE3784:
 7018              	.LBE3786:
 7019              	.LBE3788:
 7020              	.LBE3790:
 7021              	.LBE3811:
 7022              		.loc 1 705 0
 7023 0134 8001002C 		lwz 0,44(1)
 7024 0138 83810018 		lwz 28,24(1)
 7025              	.LVL532:
 7026 013c 7C0803A6 		mtlr 0
 7027 0140 83E10024 		lwz 31,36(1)
 7028 0144 38210028 		addi 1,1,40
 7029              		.cfi_remember_state
 7030              	.LCFI56:
 7031              		.cfi_def_cfa_offset 0
 7032              		.cfi_restore 31
 7033              		.cfi_restore 30
 7034              		.cfi_restore 29
 7035              		.cfi_restore 28
 7036 0148 4E800020 		blr
 7037              	.LVL533:
 7038              	.L499:
 7039              	.LCFI57:
 7040              		.cfi_restore_state
 7041 014c 7C7F1B78 		mr 31,3
 7042              	.L474:
 7043              	.LVL534:
 7044              	.LBB3812:
 7045              	.LBB3791:
 7046              	.LBB3792:
 7047              	.LBB3793:
 7048              	.LBB3794:
 7049              	.LBB3795:
 7050              	.LBB3796:
 7051              		.loc 13 70 0
 7052 0150 807C0004 		lwz 3,4(28)
 7053              	.LVL535:
 7054              		.loc 13 71 0
 7055 0154 7F83E800 		cmpw 7,3,29
 7056 0158 419E0038 		beq- 7,.L493
 7057              	.LVL536:
 7058              	.L506:
 7059              	.LBB3797:
 7060              		.loc 13 74 0
 7061 015c 83C30000 		lwz 30,0(3)
 7062              	.LVL537:
 7063              	.LBB3798:
 7064              	.LBB3799:
 7065              	.LBB3800:
 7066              		.loc 6 98 0
 7067 0160 48000001 		bl _ZdlPv
 7068              	.LVL538:
 7069              	.LBE3800:
 7070              	.LBE3799:
 7071              	.LBE3798:
 7072              	.LBE3797:
 7073              		.loc 13 71 0
