   1              		.file	"CSettings.cpp"
   2              		.section	".text"
   3              	.Ltext0:
   4              		.section	.text.unlikely,"ax",@progbits
   5              		.align 2
   6              		.type	_ZL11GetLangCodePKc.part.0, @function
   7              	_ZL11GetLangCodePKc.part.0:
   8              	.LFB1887:
   9              		.file 1 "d:/Projects/SaveGameManager/savegame-manager-gx/trunk/source/Settings/CSettings.cpp"
  10              		.loc 1 686 0
  11              		.cfi_startproc
  12              	.LVL0:
  13 0000 7C0802A6 		mflr 0
  14 0004 9421FFF0 		stwu 1,-16(1)
  15              	.LCFI0:
  16              		.cfi_def_cfa_offset 16
  17              		.cfi_register 65, 0
  18              		.loc 1 703 0
  19 0008 3C800000 		lis 4,.LC5@ha
  20 000c 3884001C 		la 4,.LC5@l(4)
  21              		.loc 1 686 0
  22 0010 93E1000C 		stw 31,12(1)
  23 0014 90010014 		stw 0,20(1)
  24              		.loc 1 686 0
  25 0018 7C7F1B78 		mr 31,3
  26              		.cfi_offset 65, 4
  27              		.cfi_offset 31, -4
  28              		.loc 1 703 0
  29 001c 48000001 		bl strcasestr
  30              	.LVL1:
  31 0020 2F830000 		cmpwi 7,3,0
  32 0024 40BE0058 		bne+ 7,.L3
  33              		.loc 1 706 0
  34 0028 3C800000 		lis 4,.LC6@ha
  35 002c 7FE3FB78 		mr 3,31
  36 0030 38840024 		la 4,.LC6@l(4)
  37 0034 48000001 		bl strcasestr
  38 0038 2F830000 		cmpwi 7,3,0
  39 003c 40BE004C 		bne+ 7,.L4
  40              		.loc 1 709 0
  41 0040 3C800000 		lis 4,.LC7@ha
  42 0044 7FE3FB78 		mr 3,31
  43 0048 38840030 		la 4,.LC7@l(4)
  44 004c 48000001 		bl strcasestr
  45 0050 2F830000 		cmpwi 7,3,0
  46 0054 40BE0040 		bne+ 7,.L5
  47              		.loc 1 712 0
  48 0058 3C800000 		lis 4,.LC8@ha
  49 005c 7FE3FB78 		mr 3,31
  50 0060 3884003C 		la 4,.LC8@l(4)
  51 0064 48000001 		bl strcasestr
  52 0068 2F830000 		cmpwi 7,3,0
  53 006c 419E0034 		beq- 7,.L6
  54              		.loc 1 713 0
  55 0070 3C600000 		lis 3,.LC3@ha
  56 0074 38630014 		la 3,.LC3@l(3)
  57 0078 48000030 		b .L2
  58              	.L3:
  59              		.loc 1 704 0
  60 007c 3C600000 		lis 3,.LC0@ha
  61 0080 38630000 		la 3,.LC0@l(3)
  62 0084 48000024 		b .L2
  63              	.L4:
  64              		.loc 1 707 0
  65 0088 3C600000 		lis 3,.LC1@ha
  66 008c 38630004 		la 3,.LC1@l(3)
  67 0090 48000018 		b .L2
  68              	.L5:
  69              		.loc 1 710 0
  70 0094 3C600000 		lis 3,.LC2@ha
  71 0098 3863000C 		la 3,.LC2@l(3)
  72 009c 4800000C 		b .L2
  73              	.L6:
  74              		.loc 1 715 0
  75 00a0 3C600000 		lis 3,.LC4@ha
  76 00a4 38630018 		la 3,.LC4@l(3)
  77              	.L2:
  78              		.loc 1 716 0
  79 00a8 80010014 		lwz 0,20(1)
  80 00ac 83E1000C 		lwz 31,12(1)
  81              	.LVL2:
  82 00b0 7C0803A6 		mtlr 0
  83 00b4 38210010 		addi 1,1,16
  84              	.LCFI1:
  85              		.cfi_def_cfa_offset 0
  86              		.cfi_restore 31
  87 00b8 4E800020 		blr
  88              		.cfi_endproc
  89              	.LFE1887:
  90              		.size	_ZL11GetLangCodePKc.part.0, .-_ZL11GetLangCodePKc.part.0
  91              		.section	".text"
  92              		.align 2
  93              		.type	_ZN9CSettings12LoadLanguageEPKci.constprop.77, @function
  94              	_ZN9CSettings12LoadLanguageEPKci.constprop.77:
  95              	.LFB1961:
  96              		.loc 1 718 0
  97              		.cfi_startproc
  98              		.cfi_personality 0,__gxx_personality_v0
  99              		.cfi_lsda 0,.LLSDA1961
 100              	.LVL3:
 101 0000 7D800026 		mfcr 12
 102              	.LBB2077:
 103              	.LBB2078:
 104              		.loc 1 737 0
 105 0004 2E040000 		cmpwi 4,4,0
 106              	.LBE2078:
 107              	.LBE2077:
 108              		.loc 1 718 0
 109 0008 7C0802A6 		mflr 0
 110 000c 9421FFA8 		stwu 1,-88(1)
 111              	.LCFI2:
 112              		.cfi_def_cfa_offset 88
 113              		.cfi_register 65, 0
 114              		.cfi_register 70, 12
 115 0010 93C10050 		stw 30,80(1)
 116 0014 7C7E1B78 		mr 30,3
 117              		.cfi_offset 30, -8
 118 0018 93E10054 		stw 31,84(1)
 119              	.LBB2417:
 120              	.LBB2414:
 121              		.loc 1 737 0
 122 001c 7C9F2378 		mr 31,4
 123              		.cfi_offset 31, -4
 124              	.LBE2414:
 125              	.LBE2417:
 126              		.loc 1 718 0
 127 0020 9001005C 		stw 0,92(1)
 128 0024 93A1004C 		stw 29,76(1)
 129 0028 91810048 		stw 12,72(1)
 130              	.LBB2418:
 131              	.LBB2415:
 132              		.loc 1 737 0
 133 002c 41900124 		blt- 4,.L134
 134              		.cfi_offset 70, -16
 135              		.cfi_offset 29, -12
 136              		.cfi_offset 65, 4
 137              	.LVL4:
 138              	.LBB2079:
 139              		.loc 1 740 0
 140 0030 3BA30620 		addi 29,3,1568
 141              	.LBB2080:
 142              	.LBB2081:
 143              	.LBB2082:
 144              		.file 2 "d:\\devkitpro\\devkitppc\\bin\\../lib/gcc/powerpc-eabi/4.6.3/../../../../powerpc-eabi/inc
 145              		.loc 2 270 0
 146 0034 3D200000 		lis 9,_ZNSs4_Rep20_S_empty_rep_storageE+12@ha
 147 0038 3809000C 		la 0,_ZNSs4_Rep20_S_empty_rep_storageE+12@l(9)
 148              	.LBE2082:
 149              	.LBE2081:
 150              	.LBE2080:
 151              		.loc 1 740 0
 152 003c 38610040 		addi 3,1,64
 153              	.LVL5:
 154 0040 7FA4EB78 		mr 4,29
 155              	.LVL6:
 156 0044 38A10016 		addi 5,1,22
 157              	.LBB2085:
 158              	.LBB2084:
 159              	.LBB2083:
 160              		.loc 2 270 0
 161 0048 90010044 		stw 0,68(1)
 162              	.LEHB0:
 163              	.LBE2083:
 164              	.LBE2084:
 165              	.LBE2085:
 166              		.loc 1 740 0
 167 004c 48000001 		bl _ZNSsC1EPKcRKSaIcE
 168              	.LEHE0:
 169              		.loc 1 742 0
 170 0050 2F9F000A 		cmpwi 7,31,10
 171 0054 419E0190 		beq- 7,.L173
 172              		.loc 1 745 0
 173 0058 41920124 		beq- 4,.L174
 174              		.loc 1 746 0
 175 005c 2F9F0001 		cmpwi 7,31,1
 176 0060 419E0204 		beq- 7,.L175
 177              		.loc 1 747 0
 178 0064 2F9F0002 		cmpwi 7,31,2
 179 0068 419E0264 		beq- 7,.L176
 180              		.loc 1 748 0
 181 006c 2F9F0003 		cmpwi 7,31,3
 182 0070 419E032C 		beq- 7,.L177
 183              		.loc 1 749 0
 184 0074 2F9F0004 		cmpwi 7,31,4
 185 0078 419E038C 		beq- 7,.L178
 186              		.loc 1 750 0
 187 007c 2F9F0005 		cmpwi 7,31,5
 188 0080 419E03EC 		beq- 7,.L179
 189              		.loc 1 751 0
 190 0084 2F9F0006 		cmpwi 7,31,6
 191 0088 419E02AC 		beq- 7,.L180
 192              		.loc 1 752 0
 193 008c 2F9F0007 		cmpwi 7,31,7
 194 0090 419E0444 		beq- 7,.L181
 195              		.loc 1 753 0
 196 0094 2F9F0008 		cmpwi 7,31,8
 197 0098 419E04A4 		beq- 7,.L182
 198              		.loc 1 754 0
 199 009c 2F9F0009 		cmpwi 7,31,9
 200 00a0 419E0504 		beq- 7,.L183
 201              	.LVL7:
 202              	.L109:
 203              	.LBB2086:
 204              	.LBB2087:
 205              	.LBB2088:
 206              		.loc 2 288 0
 207 00a4 83E10044 		lwz 31,68(1)
 208              	.LVL8:
 209              	.LBE2088:
 210              	.LBE2087:
 211              	.LBE2086:
 212              	.LBB2089:
 213              	.LBB2090:
 214              		.loc 1 688 0
 215 00a8 3C800000 		lis 4,.LC24@ha
 216 00ac 388400F4 		la 4,.LC24@l(4)
 217 00b0 7FE3FB78 		mr 3,31
 218              	.LEHB1:
 219 00b4 48000001 		bl strcasestr
 220              	.LVL9:
 221 00b8 2F830000 		cmpwi 7,3,0
 222 00bc 419E0184 		beq- 7,.L184
 223              		.loc 1 689 0
 224 00c0 3C800000 		lis 4,.LC9@ha
 225 00c4 38840044 		la 4,.LC9@l(4)
 226              	.L110:
 227              	.LBE2090:
 228              	.LBE2089:
 229              		.loc 1 756 0
 230 00c8 387E0508 		addi 3,30,1288
 231 00cc 48000001 		bl strcpy
 232              	.LVL10:
 233              		.loc 1 757 0
 234 00d0 80610044 		lwz 3,68(1)
 235 00d4 48000001 		bl gettextLoadLanguage
 236              	.LVL11:
 237              		.loc 1 758 0
 238 00d8 7C7F1B79 		mr. 31,3
 239              	.LVL12:
 240 00dc 4182002C 		beq- 0,.L111
 241              	.LVL13:
 242              		.loc 1 760 0
 243 00e0 80A10044 		lwz 5,68(1)
 244 00e4 387E0526 		addi 3,30,1318
 245              	.LVL14:
 246 00e8 388000FA 		li 4,250
 247 00ec 4CC63182 		crxor 6,6,6
 248 00f0 48000001 		bl snprintf
 249              	.LVL15:
 250              		.loc 1 761 0
 251 00f4 80A10040 		lwz 5,64(1)
 252 00f8 7FA3EB78 		mr 3,29
 253 00fc 388000FA 		li 4,250
 254 0100 4CC63182 		crxor 6,6,6
 255 0104 48000001 		bl snprintf
 256              	.LVL16:
 257              	.L111:
 258              	.LBB2095:
 259              	.LBB2096:
 260              	.LBB2097:
 261              	.LBB2098:
 262              	.LBB2099:
 263              	.LBB2100:
 264              		.loc 2 288 0
 265 0108 81210040 		lwz 9,64(1)
 266              	.LBE2100:
 267              	.LBE2099:
 268              	.LBE2098:
 269              	.LBB2101:
 270              	.LBB2102:
 271              		.loc 2 235 0
 272 010c 3FC00000 		lis 30,_ZNSs4_Rep20_S_empty_rep_storageE@ha
 273              	.LVL17:
 274 0110 3BDE0000 		la 30,_ZNSs4_Rep20_S_empty_rep_storageE@l(30)
 275              	.LBE2102:
 276              	.LBE2101:
 277              		.loc 2 534 0
 278 0114 3869FFF4 		addi 3,9,-12
 279              	.LVL18:
 280              	.LBB2111:
 281              	.LBB2109:
 282              		.loc 2 235 0
 283 0118 7F83F000 		cmpw 7,3,30
 284 011c 409E0538 		bne- 7,.L185
 285              	.LVL19:
 286              	.L117:
 287              	.LBE2109:
 288              	.LBE2111:
 289              	.LBE2097:
 290              	.LBE2096:
 291              	.LBE2095:
 292              	.LBB2115:
 293              	.LBB2116:
 294              	.LBB2117:
 295              	.LBB2118:
 296              	.LBB2119:
 297              		.loc 2 288 0
 298 0120 81210044 		lwz 9,68(1)
 299              	.LBE2119:
 300              	.LBE2118:
 301              	.LBE2117:
 302              		.loc 2 534 0
 303 0124 3869FFF4 		addi 3,9,-12
 304              	.LVL20:
 305              	.LBB2120:
 306              	.LBB2121:
 307              		.loc 2 235 0
 308 0128 7F83F000 		cmpw 7,3,30
 309 012c 41BE0028 		beq+ 7,.L122
 310              	.LVL21:
 311              	.LBB2122:
 312              	.LBB2123:
 313              	.LBB2124:
 314              		.file 3 "d:\\devkitpro\\devkitppc\\bin\\../lib/gcc/powerpc-eabi/4.6.3/../../../../powerpc-eabi/inc
 315              		.loc 3 66 0
 316 0130 8169FFFC 		lwz 11,-4(9)
 317              	.LVL22:
 318              	.LBE2124:
 319              	.LBE2123:
 320              	.LBE2122:
 321              		.loc 2 240 0
 322 0134 2F8B0000 		cmpwi 7,11,0
 323              	.LBB2127:
 324              	.LBB2126:
 325              	.LBB2125:
 326              		.loc 3 67 0
 327 0138 396BFFFF 		addi 11,11,-1
 328 013c 9169FFFC 		stw 11,-4(9)
 329              	.LBE2125:
 330              	.LBE2126:
 331              	.LBE2127:
 332              		.loc 2 240 0
 333 0140 41BD0014 		bgt+ 7,.L122
 334              		.loc 2 244 0
 335 0144 38810008 		addi 4,1,8
 336 0148 48000001 		bl _ZNSs4_Rep10_M_destroyERKSaIcE
 337              	.LVL23:
 338 014c 48000008 		b .L122
 339              	.LVL24:
 340              	.L134:
 341              	.LBE2121:
 342              	.LBE2120:
 343              	.LBE2116:
 344              	.LBE2115:
 345              	.LBE2079:
 346              		.loc 1 720 0
 347 0150 3BE00000 		li 31,0
 348              	.LVL25:
 349              	.L122:
 350              	.LBE2415:
 351              	.LBE2418:
 352              		.loc 1 766 0
 353 0154 8001005C 		lwz 0,92(1)
 354 0158 7FE3FB78 		mr 3,31
 355 015c 81810048 		lwz 12,72(1)
 356 0160 7C0803A6 		mtlr 0
 357 0164 83A1004C 		lwz 29,76(1)
 358 0168 83C10050 		lwz 30,80(1)
 359 016c 7D808120 		mtcrf 8,12
 360 0170 83E10054 		lwz 31,84(1)
 361 0174 38210058 		addi 1,1,88
 362              		.cfi_remember_state
 363              	.LCFI3:
 364              		.cfi_def_cfa_offset 0
 365              		.cfi_restore 70
 366              		.cfi_restore 31
 367              		.cfi_restore 30
 368              		.cfi_restore 29
 369 0178 4E800020 		blr
 370              	.LVL26:
 371              	.L174:
 372              	.LCFI4:
 373              		.cfi_restore_state
 374              	.LBB2419:
 375              	.LBB2416:
 376              	.LBB2413:
 377              	.LBB2128:
 378              	.LBB2129:
 379              		.loc 2 2346 0
 380 017c 38610018 		addi 3,1,24
 381 0180 38810040 		addi 4,1,64
 382              	.LVL27:
 383 0184 48000001 		bl _ZNSsC1ERKSs
 384              	.LEHE1:
 385              	.LVL28:
 386              	.LBB2130:
 387              	.LBB2131:
 388              		.loc 2 1000 0
 389 0188 3C800000 		lis 4,.LC14@ha
 390 018c 38610018 		addi 3,1,24
 391              	.LVL29:
 392 0190 38840058 		la 4,.LC14@l(4)
 393 0194 38A0000E 		li 5,14
 394              	.LEHB2:
 395 0198 48000001 		bl _ZNSs6appendEPKcj
 396              	.LEHE2:
 397              	.LVL30:
 398              	.LBE2131:
 399              	.LBE2130:
 400              	.LBE2129:
 401              	.LBE2128:
 402              	.LBB2133:
 403              	.LBB2134:
 404              		.loc 1 745 0
 405 019c 3BE10044 		addi 31,1,68
 406              	.LVL31:
 407              		.loc 2 542 0
 408 01a0 38810018 		addi 4,1,24
 409              	.LVL32:
 410 01a4 7FE3FB78 		mr 3,31
 411              	.LEHB3:
 412 01a8 48000001 		bl _ZNSs6assignERKSs
 413              	.LEHE3:
 414              	.LVL33:
 415              	.LBE2134:
 416              	.LBE2133:
 417              	.LBB2135:
 418              	.LBB2136:
 419              	.LBB2137:
 420              	.LBB2138:
 421              	.LBB2139:
 422              	.LBB2140:
 423              		.loc 2 288 0
 424 01ac 81210018 		lwz 9,24(1)
 425              	.LBE2140:
 426              	.LBE2139:
 427              	.LBE2138:
 428              	.LBB2141:
 429              	.LBB2142:
 430              		.loc 2 235 0
 431 01b0 3D600000 		lis 11,_ZNSs4_Rep20_S_empty_rep_storageE@ha
 432 01b4 380B0000 		la 0,_ZNSs4_Rep20_S_empty_rep_storageE@l(11)
 433              	.LBE2142:
 434              	.LBE2141:
 435              		.loc 2 534 0
 436 01b8 3869FFF4 		addi 3,9,-12
 437              	.LVL34:
 438              	.LBB2150:
 439              	.LBB2149:
 440              		.loc 2 235 0
 441 01bc 7F830000 		cmpw 7,3,0
 442 01c0 419EFEE4 		beq+ 7,.L109
 443              	.LVL35:
 444              	.LBB2143:
 445              	.LBB2144:
 446              	.LBB2145:
 447              		.loc 3 66 0
 448 01c4 8169FFFC 		lwz 11,-4(9)
 449              	.LVL36:
 450              	.LBE2145:
 451              	.LBE2144:
 452              	.LBE2143:
 453              		.loc 2 240 0
 454 01c8 2F8B0000 		cmpwi 7,11,0
 455              	.LBB2148:
 456              	.LBB2147:
 457              	.LBB2146:
 458              		.loc 3 67 0
 459 01cc 396BFFFF 		addi 11,11,-1
 460 01d0 9169FFFC 		stw 11,-4(9)
 461              	.LBE2146:
 462              	.LBE2147:
 463              	.LBE2148:
 464              		.loc 2 240 0
 465 01d4 419DFED0 		bgt+ 7,.L109
 466              		.loc 2 244 0
 467 01d8 38810013 		addi 4,1,19
 468 01dc 48000001 		bl _ZNSs4_Rep10_M_destroyERKSaIcE
 469              	.LVL37:
 470 01e0 4BFFFEC4 		b .L109
 471              	.LVL38:
 472              	.L173:
 473              	.LEHB4:
 474              	.LBE2149:
 475              	.LBE2150:
 476              	.LBE2137:
 477              	.LBE2136:
 478              	.LBE2135:
 479              		.loc 1 743 0
 480 01e4 48000001 		bl CONF_GetLanguage
 481 01e8 7C641B78 		mr 4,3
 482 01ec 7FC3F378 		mr 3,30
 483 01f0 4BFFFE11 		bl _ZN9CSettings12LoadLanguageEPKci.constprop.77
 484              	.LBB2151:
 485              	.LBB2152:
 486              	.LBB2153:
 487              	.LBB2154:
 488              	.LBB2155:
 489              	.LBB2156:
 490              		.loc 2 288 0
 491 01f4 81210040 		lwz 9,64(1)
 492              	.LBE2156:
 493              	.LBE2155:
 494              	.LBE2154:
 495              	.LBB2157:
 496              	.LBB2158:
 497              		.loc 2 235 0
 498 01f8 3FC00000 		lis 30,_ZNSs4_Rep20_S_empty_rep_storageE@ha
 499              	.LVL39:
 500              	.LBE2158:
 501              	.LBE2157:
 502              	.LBE2153:
 503              	.LBE2152:
 504              	.LBE2151:
 505              		.loc 1 743 0
 506 01fc 7C7F1B78 		mr 31,3
 507              	.LVL40:
 508              	.LBB2175:
 509              	.LBB2173:
 510              	.LBB2171:
 511              	.LBB2168:
 512              	.LBB2165:
 513              		.loc 2 235 0
 514 0200 3BDE0000 		la 30,_ZNSs4_Rep20_S_empty_rep_storageE@l(30)
 515              	.LBE2165:
 516              	.LBE2168:
 517              		.loc 2 534 0
 518 0204 3869FFF4 		addi 3,9,-12
 519              	.LVL41:
 520              	.LBB2169:
 521              	.LBB2166:
 522              		.loc 2 235 0
 523 0208 7F83F000 		cmpw 7,3,30
 524 020c 409E060C 		bne- 7,.L186
 525              	.LVL42:
 526              	.L19:
 527              	.LBE2166:
 528              	.LBE2169:
 529              	.LBE2171:
 530              	.LBE2173:
 531              	.LBE2175:
 532              	.LBB2176:
 533              	.LBB2177:
 534              	.LBB2178:
 535              	.LBB2179:
 536              	.LBB2180:
 537              	.LBB2181:
 538              		.loc 2 288 0
 539 0210 81210044 		lwz 9,68(1)
 540              	.LBE2181:
 541              	.LBE2180:
 542              	.LBE2179:
 543              		.loc 2 534 0
 544 0214 3869FFF4 		addi 3,9,-12
 545              	.LVL43:
 546              	.LBB2182:
 547              	.LBB2183:
 548              		.loc 2 235 0
 549 0218 7F83F000 		cmpw 7,3,30
 550 021c 419EFF38 		beq+ 7,.L122
 551              	.LVL44:
 552              	.LBB2184:
 553              	.LBB2185:
 554              	.LBB2186:
 555              		.loc 3 66 0
 556 0220 8169FFFC 		lwz 11,-4(9)
 557              	.LVL45:
 558              	.LBE2186:
 559              	.LBE2185:
 560              	.LBE2184:
 561              		.loc 2 240 0
 562 0224 2F8B0000 		cmpwi 7,11,0
 563              	.LBB2189:
 564              	.LBB2188:
 565              	.LBB2187:
 566              		.loc 3 67 0
 567 0228 396BFFFF 		addi 11,11,-1
 568 022c 9169FFFC 		stw 11,-4(9)
 569              	.LBE2187:
 570              	.LBE2188:
 571              	.LBE2189:
 572              		.loc 2 240 0
 573 0230 419DFF24 		bgt+ 7,.L122
 574              		.loc 2 244 0
 575 0234 38810014 		addi 4,1,20
 576 0238 48000001 		bl _ZNSs4_Rep10_M_destroyERKSaIcE
 577              	.LVL46:
 578 023c 4BFFFF18 		b .L122
 579              	.LVL47:
 580              	.L184:
 581              	.LBE2183:
 582              	.LBE2182:
 583              	.LBE2178:
 584              	.LBE2177:
 585              	.LBE2176:
 586              	.LBB2190:
 587              	.LBB2091:
 588              		.loc 1 691 0
 589 0240 3C800000 		lis 4,.LC25@ha
 590 0244 7FE3FB78 		mr 3,31
 591 0248 38840100 		la 4,.LC25@l(4)
 592 024c 48000001 		bl strcasestr
 593 0250 2F830000 		cmpwi 7,3,0
 594 0254 419E03B8 		beq- 7,.L187
 595              		.loc 1 692 0
 596 0258 3C800000 		lis 4,.LC10@ha
 597 025c 38840048 		la 4,.LC10@l(4)
 598 0260 4BFFFE68 		b .L110
 599              	.LVL48:
 600              	.L175:
 601              	.LBE2091:
 602              	.LBE2190:
 603              	.LBB2191:
 604              	.LBB2192:
 605              		.loc 2 2346 0
 606 0264 3861001C 		addi 3,1,28
 607 0268 38810040 		addi 4,1,64
 608              	.LVL49:
 609 026c 48000001 		bl _ZNSsC1ERKSs
 610              	.LEHE4:
 611              	.LVL50:
 612              	.LBB2193:
 613              	.LBB2194:
 614              		.loc 2 1000 0
 615 0270 3C800000 		lis 4,.LC15@ha
 616 0274 3861001C 		addi 3,1,28
 617              	.LVL51:
 618 0278 38840068 		la 4,.LC15@l(4)
 619 027c 38A0000D 		li 5,13
 620              	.LEHB5:
 621 0280 48000001 		bl _ZNSs6appendEPKcj
 622              	.LEHE5:
 623              	.LVL52:
 624              	.LBE2194:
 625              	.LBE2193:
 626              	.LBE2192:
 627              	.LBE2191:
 628              	.LBB2196:
 629              	.LBB2197:
 630              		.loc 1 746 0
 631 0284 3BE10044 		addi 31,1,68
 632              	.LVL53:
 633              		.loc 2 542 0
 634 0288 3881001C 		addi 4,1,28
 635              	.LVL54:
 636 028c 7FE3FB78 		mr 3,31
 637              	.LEHB6:
 638 0290 48000001 		bl _ZNSs6assignERKSs
 639              	.LEHE6:
 640              	.LVL55:
 641              	.LBE2197:
 642              	.LBE2196:
 643              	.LBB2198:
 644              	.LBB2199:
 645              	.LBB2200:
 646              	.LBB2201:
 647              	.LBB2202:
 648              	.LBB2203:
 649              		.loc 2 288 0
 650 0294 8121001C 		lwz 9,28(1)
 651              	.LBE2203:
 652              	.LBE2202:
 653              	.LBE2201:
 654              	.LBB2204:
 655              	.LBB2205:
 656              		.loc 2 235 0
 657 0298 3D600000 		lis 11,_ZNSs4_Rep20_S_empty_rep_storageE@ha
 658 029c 380B0000 		la 0,_ZNSs4_Rep20_S_empty_rep_storageE@l(11)
 659              	.LBE2205:
 660              	.LBE2204:
 661              		.loc 2 534 0
 662 02a0 3869FFF4 		addi 3,9,-12
 663              	.LVL56:
 664              	.LBB2213:
 665              	.LBB2212:
 666              		.loc 2 235 0
 667 02a4 7F830000 		cmpw 7,3,0
 668 02a8 419EFDFC 		beq+ 7,.L109
 669              	.LVL57:
 670              	.LBB2206:
 671              	.LBB2207:
 672              	.LBB2208:
 673              		.loc 3 66 0
 674 02ac 8169FFFC 		lwz 11,-4(9)
 675              	.LVL58:
 676              	.LBE2208:
 677              	.LBE2207:
 678              	.LBE2206:
 679              		.loc 2 240 0
 680 02b0 2F8B0000 		cmpwi 7,11,0
 681              	.LBB2211:
 682              	.LBB2210:
 683              	.LBB2209:
 684              		.loc 3 67 0
 685 02b4 396BFFFF 		addi 11,11,-1
 686 02b8 9169FFFC 		stw 11,-4(9)
 687              	.LBE2209:
 688              	.LBE2210:
 689              	.LBE2211:
 690              		.loc 2 240 0
 691 02bc 419DFDE8 		bgt+ 7,.L109
 692              		.loc 2 244 0
 693 02c0 38810012 		addi 4,1,18
 694 02c4 48000001 		bl _ZNSs4_Rep10_M_destroyERKSaIcE
 695              	.LVL59:
 696 02c8 4BFFFDDC 		b .L109
 697              	.LVL60:
 698              	.L176:
 699              	.LBE2212:
 700              	.LBE2213:
 701              	.LBE2200:
 702              	.LBE2199:
 703              	.LBE2198:
 704              	.LBB2214:
 705              	.LBB2215:
 706              		.loc 2 2346 0
 707 02cc 38610020 		addi 3,1,32
 708 02d0 38810040 		addi 4,1,64
 709              	.LVL61:
 710              	.LEHB7:
 711 02d4 48000001 		bl _ZNSsC1ERKSs
 712              	.LEHE7:
 713              	.LVL62:
 714              	.LBB2216:
 715              	.LBB2217:
 716              		.loc 2 1000 0
 717 02d8 3C800000 		lis 4,.LC16@ha
 718 02dc 38610020 		addi 3,1,32
 719              	.LVL63:
 720 02e0 38840078 		la 4,.LC16@l(4)
 721 02e4 38A0000C 		li 5,12
 722              	.LEHB8:
 723 02e8 48000001 		bl _ZNSs6appendEPKcj
 724              	.LEHE8:
 725              	.LVL64:
 726              	.LBE2217:
 727              	.LBE2216:
 728              	.LBE2215:
 729              	.LBE2214:
 730              	.LBB2219:
 731              	.LBB2220:
 732              		.loc 1 747 0
 733 02ec 3BE10044 		addi 31,1,68
 734              	.LVL65:
 735              		.loc 2 542 0
 736 02f0 38810020 		addi 4,1,32
 737              	.LVL66:
 738 02f4 7FE3FB78 		mr 3,31
 739              	.LEHB9:
 740 02f8 48000001 		bl _ZNSs6assignERKSs
 741              	.LEHE9:
 742              	.LVL67:
 743              	.LBE2220:
 744              	.LBE2219:
 745              	.LBB2221:
 746              	.LBB2222:
 747              	.LBB2223:
 748              	.LBB2224:
 749              	.LBB2225:
 750              	.LBB2226:
 751              		.loc 2 288 0
 752 02fc 81210020 		lwz 9,32(1)
 753              	.LBE2226:
 754              	.LBE2225:
 755              	.LBE2224:
 756              	.LBB2227:
 757              	.LBB2228:
 758              		.loc 2 235 0
 759 0300 3D600000 		lis 11,_ZNSs4_Rep20_S_empty_rep_storageE@ha
 760 0304 380B0000 		la 0,_ZNSs4_Rep20_S_empty_rep_storageE@l(11)
 761              	.LBE2228:
 762              	.LBE2227:
 763              		.loc 2 534 0
 764 0308 3869FFF4 		addi 3,9,-12
 765              	.LVL68:
 766              	.LBB2236:
 767              	.LBB2235:
 768              		.loc 2 235 0
 769 030c 7F830000 		cmpw 7,3,0
 770 0310 419EFD94 		beq+ 7,.L109
 771              	.LVL69:
 772              	.LBB2229:
 773              	.LBB2230:
 774              	.LBB2231:
 775              		.loc 3 66 0
 776 0314 8169FFFC 		lwz 11,-4(9)
 777              	.LVL70:
 778              	.LBE2231:
 779              	.LBE2230:
 780              	.LBE2229:
 781              		.loc 2 240 0
 782 0318 2F8B0000 		cmpwi 7,11,0
 783              	.LBB2234:
 784              	.LBB2233:
 785              	.LBB2232:
 786              		.loc 3 67 0
 787 031c 396BFFFF 		addi 11,11,-1
 788 0320 9169FFFC 		stw 11,-4(9)
 789              	.LBE2232:
 790              	.LBE2233:
 791              	.LBE2234:
 792              		.loc 2 240 0
 793 0324 419DFD80 		bgt+ 7,.L109
 794              		.loc 2 244 0
 795 0328 38810011 		addi 4,1,17
 796 032c 48000001 		bl _ZNSs4_Rep10_M_destroyERKSaIcE
 797              	.LVL71:
 798 0330 4BFFFD74 		b .L109
 799              	.LVL72:
 800              	.L180:
 801              	.LBE2235:
 802              	.LBE2236:
 803              	.LBE2223:
 804              	.LBE2222:
 805              	.LBE2221:
 806              	.LBB2237:
 807              	.LBB2238:
 808              		.loc 2 2346 0
 809 0334 38610030 		addi 3,1,48
 810 0338 38810040 		addi 4,1,64
 811              	.LVL73:
 812              	.LEHB10:
 813 033c 48000001 		bl _ZNSsC1ERKSs
 814              	.LEHE10:
 815              	.LVL74:
 816              	.LBB2239:
 817              	.LBB2240:
 818              		.loc 2 1000 0
 819 0340 3C800000 		lis 4,.LC20@ha
 820 0344 38610030 		addi 3,1,48
 821              	.LVL75:
 822 0348 388400B8 		la 4,.LC20@l(4)
 823 034c 38A0000B 		li 5,11
 824              	.LEHB11:
 825 0350 48000001 		bl _ZNSs6appendEPKcj
 826              	.LEHE11:
 827              	.LVL76:
 828              	.LBE2240:
 829              	.LBE2239:
 830              	.LBE2238:
 831              	.LBE2237:
 832              	.LBB2242:
 833              	.LBB2243:
 834              		.loc 1 751 0
 835 0354 3BE10044 		addi 31,1,68
 836              	.LVL77:
 837              		.loc 2 542 0
 838 0358 38810030 		addi 4,1,48
 839              	.LVL78:
 840 035c 7FE3FB78 		mr 3,31
 841              	.LEHB12:
 842 0360 48000001 		bl _ZNSs6assignERKSs
 843              	.LEHE12:
 844              	.LVL79:
 845              	.LBE2243:
 846              	.LBE2242:
 847              	.LBB2244:
 848              	.LBB2245:
 849              	.LBB2246:
 850              	.LBB2247:
 851              	.LBB2248:
 852              	.LBB2249:
 853              		.loc 2 288 0
 854 0364 81210030 		lwz 9,48(1)
 855              	.LBE2249:
 856              	.LBE2248:
 857              	.LBE2247:
 858              	.LBB2250:
 859              	.LBB2251:
 860              		.loc 2 235 0
 861 0368 3D600000 		lis 11,_ZNSs4_Rep20_S_empty_rep_storageE@ha
 862 036c 380B0000 		la 0,_ZNSs4_Rep20_S_empty_rep_storageE@l(11)
 863              	.LBE2251:
 864              	.LBE2250:
 865              		.loc 2 534 0
 866 0370 3869FFF4 		addi 3,9,-12
 867              	.LVL80:
 868              	.LBB2259:
 869              	.LBB2258:
 870              		.loc 2 235 0
 871 0374 7F830000 		cmpw 7,3,0
 872 0378 419EFD2C 		beq+ 7,.L109
 873              	.LVL81:
 874              	.LBB2252:
 875              	.LBB2253:
 876              	.LBB2254:
 877              		.loc 3 66 0
 878 037c 8169FFFC 		lwz 11,-4(9)
 879              	.LVL82:
 880              	.LBE2254:
 881              	.LBE2253:
 882              	.LBE2252:
 883              		.loc 2 240 0
 884 0380 2F8B0000 		cmpwi 7,11,0
 885              	.LBB2257:
 886              	.LBB2256:
 887              	.LBB2255:
 888              		.loc 3 67 0
 889 0384 396BFFFF 		addi 11,11,-1
 890 0388 9169FFFC 		stw 11,-4(9)
 891              	.LBE2255:
 892              	.LBE2256:
 893              	.LBE2257:
 894              		.loc 2 240 0
 895 038c 419DFD18 		bgt+ 7,.L109
 896              		.loc 2 244 0
 897 0390 3881000D 		addi 4,1,13
 898 0394 48000001 		bl _ZNSs4_Rep10_M_destroyERKSaIcE
 899              	.LVL83:
 900 0398 4BFFFD0C 		b .L109
 901              	.LVL84:
 902              	.L177:
 903              	.LBE2258:
 904              	.LBE2259:
 905              	.LBE2246:
 906              	.LBE2245:
 907              	.LBE2244:
 908              	.LBB2260:
 909              	.LBB2261:
 910              		.loc 2 2346 0
 911 039c 38610024 		addi 3,1,36
 912 03a0 38810040 		addi 4,1,64
 913              	.LVL85:
 914              	.LEHB13:
 915 03a4 48000001 		bl _ZNSsC1ERKSs
 916              	.LEHE13:
 917              	.LVL86:
 918              	.LBB2262:
 919              	.LBB2263:
 920              		.loc 2 1000 0
 921 03a8 3C800000 		lis 4,.LC17@ha
 922 03ac 38610024 		addi 3,1,36
 923              	.LVL87:
 924 03b0 38840088 		la 4,.LC17@l(4)
 925 03b4 38A0000C 		li 5,12
 926              	.LEHB14:
 927 03b8 48000001 		bl _ZNSs6appendEPKcj
 928              	.LEHE14:
 929              	.LVL88:
 930              	.LBE2263:
 931              	.LBE2262:
 932              	.LBE2261:
 933              	.LBE2260:
 934              	.LBB2265:
 935              	.LBB2266:
 936              		.loc 1 748 0
 937 03bc 3BE10044 		addi 31,1,68
 938              	.LVL89:
 939              		.loc 2 542 0
 940 03c0 38810024 		addi 4,1,36
 941              	.LVL90:
 942 03c4 7FE3FB78 		mr 3,31
 943              	.LEHB15:
 944 03c8 48000001 		bl _ZNSs6assignERKSs
 945              	.LEHE15:
 946              	.LVL91:
 947              	.LBE2266:
 948              	.LBE2265:
 949              	.LBB2267:
 950              	.LBB2268:
 951              	.LBB2269:
 952              	.LBB2270:
 953              	.LBB2271:
 954              	.LBB2272:
 955              		.loc 2 288 0
 956 03cc 81210024 		lwz 9,36(1)
 957              	.LBE2272:
 958              	.LBE2271:
 959              	.LBE2270:
 960              	.LBB2273:
 961              	.LBB2274:
 962              		.loc 2 235 0
 963 03d0 3D600000 		lis 11,_ZNSs4_Rep20_S_empty_rep_storageE@ha
 964 03d4 380B0000 		la 0,_ZNSs4_Rep20_S_empty_rep_storageE@l(11)
 965              	.LBE2274:
 966              	.LBE2273:
 967              		.loc 2 534 0
 968 03d8 3869FFF4 		addi 3,9,-12
 969              	.LVL92:
 970              	.LBB2282:
 971              	.LBB2281:
 972              		.loc 2 235 0
 973 03dc 7F830000 		cmpw 7,3,0
 974 03e0 419EFCC4 		beq+ 7,.L109
 975              	.LVL93:
 976              	.LBB2275:
 977              	.LBB2276:
 978              	.LBB2277:
 979              		.loc 3 66 0
 980 03e4 8169FFFC 		lwz 11,-4(9)
 981              	.LVL94:
 982              	.LBE2277:
 983              	.LBE2276:
 984              	.LBE2275:
 985              		.loc 2 240 0
 986 03e8 2F8B0000 		cmpwi 7,11,0
 987              	.LBB2280:
 988              	.LBB2279:
 989              	.LBB2278:
 990              		.loc 3 67 0
 991 03ec 396BFFFF 		addi 11,11,-1
 992 03f0 9169FFFC 		stw 11,-4(9)
 993              	.LBE2278:
 994              	.LBE2279:
 995              	.LBE2280:
 996              		.loc 2 240 0
 997 03f4 419DFCB0 		bgt+ 7,.L109
 998              		.loc 2 244 0
 999 03f8 38810010 		addi 4,1,16
 1000 03fc 48000001 		bl _ZNSs4_Rep10_M_destroyERKSaIcE
 1001              	.LVL95:
 1002 0400 4BFFFCA4 		b .L109
 1003              	.LVL96:
 1004              	.L178:
 1005              	.LBE2281:
 1006              	.LBE2282:
 1007              	.LBE2269:
 1008              	.LBE2268:
 1009              	.LBE2267:
 1010              	.LBB2283:
 1011              	.LBB2284:
 1012              		.loc 2 2346 0
 1013 0404 38610028 		addi 3,1,40
 1014 0408 38810040 		addi 4,1,64
 1015              	.LVL97:
 1016              	.LEHB16:
 1017 040c 48000001 		bl _ZNSsC1ERKSs
 1018              	.LEHE16:
 1019              	.LVL98:
 1020              	.LBB2285:
 1021              	.LBB2286:
 1022              		.loc 2 1000 0
 1023 0410 3C800000 		lis 4,.LC18@ha
 1024 0414 38610028 		addi 3,1,40
 1025              	.LVL99:
 1026 0418 38840098 		la 4,.LC18@l(4)
 1027 041c 38A0000D 		li 5,13
 1028              	.LEHB17:
 1029 0420 48000001 		bl _ZNSs6appendEPKcj
 1030              	.LEHE17:
 1031              	.LVL100:
 1032              	.LBE2286:
 1033              	.LBE2285:
 1034              	.LBE2284:
 1035              	.LBE2283:
 1036              	.LBB2288:
 1037              	.LBB2289:
 1038              		.loc 1 749 0
 1039 0424 3BE10044 		addi 31,1,68
 1040              	.LVL101:
 1041              		.loc 2 542 0
 1042 0428 38810028 		addi 4,1,40
 1043              	.LVL102:
 1044 042c 7FE3FB78 		mr 3,31
 1045              	.LEHB18:
 1046 0430 48000001 		bl _ZNSs6assignERKSs
 1047              	.LEHE18:
 1048              	.LVL103:
 1049              	.LBE2289:
 1050              	.LBE2288:
 1051              	.LBB2290:
 1052              	.LBB2291:
 1053              	.LBB2292:
 1054              	.LBB2293:
 1055              	.LBB2294:
 1056              	.LBB2295:
 1057              		.loc 2 288 0
 1058 0434 81210028 		lwz 9,40(1)
 1059              	.LBE2295:
 1060              	.LBE2294:
 1061              	.LBE2293:
 1062              	.LBB2296:
 1063              	.LBB2297:
 1064              		.loc 2 235 0
 1065 0438 3D600000 		lis 11,_ZNSs4_Rep20_S_empty_rep_storageE@ha
 1066 043c 380B0000 		la 0,_ZNSs4_Rep20_S_empty_rep_storageE@l(11)
 1067              	.LBE2297:
 1068              	.LBE2296:
 1069              		.loc 2 534 0
 1070 0440 3869FFF4 		addi 3,9,-12
 1071              	.LVL104:
 1072              	.LBB2305:
 1073              	.LBB2304:
 1074              		.loc 2 235 0
 1075 0444 7F830000 		cmpw 7,3,0
 1076 0448 419EFC5C 		beq+ 7,.L109
 1077              	.LVL105:
 1078              	.LBB2298:
 1079              	.LBB2299:
 1080              	.LBB2300:
 1081              		.loc 3 66 0
 1082 044c 8169FFFC 		lwz 11,-4(9)
 1083              	.LVL106:
 1084              	.LBE2300:
 1085              	.LBE2299:
 1086              	.LBE2298:
 1087              		.loc 2 240 0
 1088 0450 2F8B0000 		cmpwi 7,11,0
 1089              	.LBB2303:
 1090              	.LBB2302:
 1091              	.LBB2301:
 1092              		.loc 3 67 0
 1093 0454 396BFFFF 		addi 11,11,-1
 1094 0458 9169FFFC 		stw 11,-4(9)
 1095              	.LBE2301:
 1096              	.LBE2302:
 1097              	.LBE2303:
 1098              		.loc 2 240 0
 1099 045c 419DFC48 		bgt+ 7,.L109
 1100              		.loc 2 244 0
 1101 0460 3881000F 		addi 4,1,15
 1102 0464 48000001 		bl _ZNSs4_Rep10_M_destroyERKSaIcE
 1103              	.LVL107:
 1104 0468 4BFFFC3C 		b .L109
 1105              	.LVL108:
 1106              	.L179:
 1107              	.LBE2304:
 1108              	.LBE2305:
 1109              	.LBE2292:
 1110              	.LBE2291:
 1111              	.LBE2290:
 1112              	.LBB2306:
 1113              	.LBB2307:
 1114              		.loc 2 2346 0
 1115 046c 3861002C 		addi 3,1,44
 1116 0470 38810040 		addi 4,1,64
 1117              	.LVL109:
 1118              	.LEHB19:
 1119 0474 48000001 		bl _ZNSsC1ERKSs
 1120              	.LEHE19:
 1121              	.LVL110:
 1122              	.LBB2308:
 1123              	.LBB2309:
 1124              		.loc 2 1000 0
 1125 0478 3C800000 		lis 4,.LC19@ha
 1126 047c 3861002C 		addi 3,1,44
 1127              	.LVL111:
 1128 0480 388400A8 		la 4,.LC19@l(4)
 1129 0484 38A0000D 		li 5,13
 1130              	.LEHB20:
 1131 0488 48000001 		bl _ZNSs6appendEPKcj
 1132              	.LEHE20:
 1133              	.LVL112:
 1134              	.LBE2309:
 1135              	.LBE2308:
 1136              	.LBE2307:
 1137              	.LBE2306:
 1138              	.LBB2311:
 1139              	.LBB2312:
 1140              		.loc 1 750 0
 1141 048c 3BE10044 		addi 31,1,68
 1142              	.LVL113:
 1143              		.loc 2 542 0
 1144 0490 3881002C 		addi 4,1,44
 1145              	.LVL114:
 1146 0494 7FE3FB78 		mr 3,31
 1147              	.LEHB21:
 1148 0498 48000001 		bl _ZNSs6assignERKSs
 1149              	.LEHE21:
 1150              	.LVL115:
 1151              	.LBE2312:
 1152              	.LBE2311:
 1153              	.LBB2313:
 1154              	.LBB2314:
 1155              	.LBB2315:
 1156              	.LBB2316:
 1157              	.LBB2317:
 1158              	.LBB2318:
 1159              		.loc 2 288 0
 1160 049c 8121002C 		lwz 9,44(1)
 1161              	.LBE2318:
 1162              	.LBE2317:
 1163              	.LBE2316:
 1164              	.LBB2319:
 1165              	.LBB2320:
 1166              		.loc 2 235 0
 1167 04a0 3D600000 		lis 11,_ZNSs4_Rep20_S_empty_rep_storageE@ha
 1168 04a4 380B0000 		la 0,_ZNSs4_Rep20_S_empty_rep_storageE@l(11)
 1169              	.LBE2320:
 1170              	.LBE2319:
 1171              		.loc 2 534 0
 1172 04a8 3869FFF4 		addi 3,9,-12
 1173              	.LVL116:
 1174              	.LBB2328:
 1175              	.LBB2327:
 1176              		.loc 2 235 0
 1177 04ac 7F830000 		cmpw 7,3,0
 1178 04b0 419EFBF4 		beq+ 7,.L109
 1179              	.LVL117:
 1180              	.LBB2321:
 1181              	.LBB2322:
 1182              	.LBB2323:
 1183              		.loc 3 66 0
 1184 04b4 8169FFFC 		lwz 11,-4(9)
 1185              	.LVL118:
 1186              	.LBE2323:
 1187              	.LBE2322:
 1188              	.LBE2321:
 1189              		.loc 2 240 0
 1190 04b8 2F8B0000 		cmpwi 7,11,0
 1191              	.LBB2326:
 1192              	.LBB2325:
 1193              	.LBB2324:
 1194              		.loc 3 67 0
 1195 04bc 396BFFFF 		addi 11,11,-1
 1196 04c0 9169FFFC 		stw 11,-4(9)
 1197              	.LBE2324:
 1198              	.LBE2325:
 1199              	.LBE2326:
 1200              		.loc 2 240 0
 1201 04c4 419DFBE0 		bgt+ 7,.L109
 1202              		.loc 2 244 0
 1203 04c8 3881000E 		addi 4,1,14
 1204 04cc 48000001 		bl _ZNSs4_Rep10_M_destroyERKSaIcE
 1205              	.LVL119:
 1206 04d0 4BFFFBD4 		b .L109
 1207              	.LVL120:
 1208              	.L181:
 1209              	.LBE2327:
 1210              	.LBE2328:
 1211              	.LBE2315:
 1212              	.LBE2314:
 1213              	.LBE2313:
 1214              	.LBB2329:
 1215              	.LBB2330:
 1216              		.loc 2 2346 0
 1217 04d4 38610034 		addi 3,1,52
 1218 04d8 38810040 		addi 4,1,64
 1219              	.LVL121:
 1220              	.LEHB22:
 1221 04dc 48000001 		bl _ZNSsC1ERKSs
 1222              	.LEHE22:
 1223              	.LVL122:
 1224              	.LBB2331:
 1225              	.LBB2332:
 1226              		.loc 2 1000 0
 1227 04e0 3C800000 		lis 4,.LC21@ha
 1228 04e4 38610034 		addi 3,1,52
 1229              	.LVL123:
 1230 04e8 388400C4 		la 4,.LC21@l(4)
 1231 04ec 38A0000E 		li 5,14
 1232              	.LEHB23:
 1233 04f0 48000001 		bl _ZNSs6appendEPKcj
 1234              	.LEHE23:
 1235              	.LVL124:
 1236              	.LBE2332:
 1237              	.LBE2331:
 1238              	.LBE2330:
 1239              	.LBE2329:
 1240              	.LBB2334:
 1241              	.LBB2335:
 1242              		.loc 1 752 0
 1243 04f4 3BE10044 		addi 31,1,68
 1244              	.LVL125:
 1245              		.loc 2 542 0
 1246 04f8 38810034 		addi 4,1,52
 1247              	.LVL126:
 1248 04fc 7FE3FB78 		mr 3,31
 1249              	.LEHB24:
 1250 0500 48000001 		bl _ZNSs6assignERKSs
 1251              	.LEHE24:
 1252              	.LVL127:
 1253              	.LBE2335:
 1254              	.LBE2334:
 1255              	.LBB2336:
 1256              	.LBB2337:
 1257              	.LBB2338:
 1258              	.LBB2339:
 1259              	.LBB2340:
 1260              	.LBB2341:
 1261              		.loc 2 288 0
 1262 0504 81210034 		lwz 9,52(1)
 1263              	.LBE2341:
 1264              	.LBE2340:
 1265              	.LBE2339:
 1266              	.LBB2342:
 1267              	.LBB2343:
 1268              		.loc 2 235 0
 1269 0508 3D600000 		lis 11,_ZNSs4_Rep20_S_empty_rep_storageE@ha
 1270 050c 380B0000 		la 0,_ZNSs4_Rep20_S_empty_rep_storageE@l(11)
 1271              	.LBE2343:
 1272              	.LBE2342:
 1273              		.loc 2 534 0
 1274 0510 3869FFF4 		addi 3,9,-12
 1275              	.LVL128:
 1276              	.LBB2351:
 1277              	.LBB2350:
 1278              		.loc 2 235 0
 1279 0514 7F830000 		cmpw 7,3,0
 1280 0518 419EFB8C 		beq+ 7,.L109
 1281              	.LVL129:
 1282              	.LBB2344:
 1283              	.LBB2345:
 1284              	.LBB2346:
 1285              		.loc 3 66 0
 1286 051c 8169FFFC 		lwz 11,-4(9)
 1287              	.LVL130:
 1288              	.LBE2346:
 1289              	.LBE2345:
 1290              	.LBE2344:
 1291              		.loc 2 240 0
 1292 0520 2F8B0000 		cmpwi 7,11,0
 1293              	.LBB2349:
 1294              	.LBB2348:
 1295              	.LBB2347:
 1296              		.loc 3 67 0
 1297 0524 396BFFFF 		addi 11,11,-1
 1298 0528 9169FFFC 		stw 11,-4(9)
 1299              	.LBE2347:
 1300              	.LBE2348:
 1301              	.LBE2349:
 1302              		.loc 2 240 0
 1303 052c 419DFB78 		bgt+ 7,.L109
 1304              		.loc 2 244 0
 1305 0530 3881000C 		addi 4,1,12
 1306 0534 48000001 		bl _ZNSs4_Rep10_M_destroyERKSaIcE
 1307              	.LVL131:
 1308 0538 4BFFFB6C 		b .L109
 1309              	.LVL132:
 1310              	.L182:
 1311              	.LBE2350:
 1312              	.LBE2351:
 1313              	.LBE2338:
 1314              	.LBE2337:
 1315              	.LBE2336:
 1316              	.LBB2352:
 1317              	.LBB2353:
 1318              		.loc 2 2346 0
 1319 053c 38610038 		addi 3,1,56
 1320 0540 38810040 		addi 4,1,64
 1321              	.LVL133:
 1322              	.LEHB25:
 1323 0544 48000001 		bl _ZNSsC1ERKSs
 1324              	.LEHE25:
 1325              	.LVL134:
 1326              	.LBB2354:
 1327              	.LBB2355:
 1328              		.loc 2 1000 0
 1329 0548 3C800000 		lis 4,.LC22@ha
 1330 054c 38610038 		addi 3,1,56
 1331              	.LVL135:
 1332 0550 388400D4 		la 4,.LC22@l(4)
 1333 0554 38A0000E 		li 5,14
 1334              	.LEHB26:
 1335 0558 48000001 		bl _ZNSs6appendEPKcj
 1336              	.LEHE26:
 1337              	.LVL136:
 1338              	.LBE2355:
 1339              	.LBE2354:
 1340              	.LBE2353:
 1341              	.LBE2352:
 1342              	.LBB2357:
 1343              	.LBB2358:
 1344              		.loc 1 753 0
 1345 055c 3BE10044 		addi 31,1,68
 1346              	.LVL137:
 1347              		.loc 2 542 0
 1348 0560 38810038 		addi 4,1,56
 1349              	.LVL138:
 1350 0564 7FE3FB78 		mr 3,31
 1351              	.LEHB27:
 1352 0568 48000001 		bl _ZNSs6assignERKSs
 1353              	.LEHE27:
 1354              	.LVL139:
 1355              	.LBE2358:
 1356              	.LBE2357:
 1357              	.LBB2359:
 1358              	.LBB2360:
 1359              	.LBB2361:
 1360              	.LBB2362:
 1361              	.LBB2363:
 1362              	.LBB2364:
 1363              		.loc 2 288 0
 1364 056c 81210038 		lwz 9,56(1)
 1365              	.LBE2364:
 1366              	.LBE2363:
 1367              	.LBE2362:
 1368              	.LBB2365:
 1369              	.LBB2366:
 1370              		.loc 2 235 0
 1371 0570 3D600000 		lis 11,_ZNSs4_Rep20_S_empty_rep_storageE@ha
 1372 0574 380B0000 		la 0,_ZNSs4_Rep20_S_empty_rep_storageE@l(11)
 1373              	.LBE2366:
 1374              	.LBE2365:
 1375              		.loc 2 534 0
 1376 0578 3869FFF4 		addi 3,9,-12
 1377              	.LVL140:
 1378              	.LBB2374:
 1379              	.LBB2373:
 1380              		.loc 2 235 0
 1381 057c 7F830000 		cmpw 7,3,0
 1382 0580 419EFB24 		beq+ 7,.L109
 1383              	.LVL141:
 1384              	.LBB2367:
 1385              	.LBB2368:
 1386              	.LBB2369:
 1387              		.loc 3 66 0
 1388 0584 8169FFFC 		lwz 11,-4(9)
 1389              	.LVL142:
 1390              	.LBE2369:
 1391              	.LBE2368:
 1392              	.LBE2367:
 1393              		.loc 2 240 0
 1394 0588 2F8B0000 		cmpwi 7,11,0
 1395              	.LBB2372:
 1396              	.LBB2371:
 1397              	.LBB2370:
 1398              		.loc 3 67 0
 1399 058c 396BFFFF 		addi 11,11,-1
 1400 0590 9169FFFC 		stw 11,-4(9)
 1401              	.LBE2370:
 1402              	.LBE2371:
 1403              	.LBE2372:
 1404              		.loc 2 240 0
 1405 0594 419DFB10 		bgt+ 7,.L109
 1406              		.loc 2 244 0
 1407 0598 3881000B 		addi 4,1,11
 1408 059c 48000001 		bl _ZNSs4_Rep10_M_destroyERKSaIcE
 1409              	.LVL143:
 1410 05a0 4BFFFB04 		b .L109
 1411              	.LVL144:
 1412              	.L183:
 1413              	.LBE2373:
 1414              	.LBE2374:
 1415              	.LBE2361:
 1416              	.LBE2360:
 1417              	.LBE2359:
 1418              	.LBB2375:
 1419              	.LBB2376:
 1420              		.loc 2 2346 0
 1421 05a4 3861003C 		addi 3,1,60
 1422 05a8 38810040 		addi 4,1,64
 1423              	.LVL145:
 1424              	.LEHB28:
 1425 05ac 48000001 		bl _ZNSsC1ERKSs
 1426              	.LEHE28:
 1427              	.LVL146:
 1428              	.LBB2377:
 1429              	.LBB2378:
 1430              		.loc 2 1000 0
 1431 05b0 3C800000 		lis 4,.LC23@ha
 1432 05b4 3861003C 		addi 3,1,60
 1433              	.LVL147:
 1434 05b8 388400E4 		la 4,.LC23@l(4)
 1435 05bc 38A0000C 		li 5,12
 1436              	.LEHB29:
 1437 05c0 48000001 		bl _ZNSs6appendEPKcj
 1438              	.LEHE29:
 1439              	.LVL148:
 1440              	.LBE2378:
 1441              	.LBE2377:
 1442              	.LBE2376:
 1443              	.LBE2375:
 1444              	.LBB2380:
 1445              	.LBB2381:
 1446              		.loc 1 754 0
 1447 05c4 3BE10044 		addi 31,1,68
 1448              	.LVL149:
 1449              		.loc 2 542 0
 1450 05c8 3881003C 		addi 4,1,60
 1451              	.LVL150:
 1452 05cc 7FE3FB78 		mr 3,31
 1453              	.LEHB30:
 1454 05d0 48000001 		bl _ZNSs6assignERKSs
 1455              	.LEHE30:
 1456              	.LVL151:
 1457              	.LBE2381:
 1458              	.LBE2380:
 1459              	.LBB2382:
 1460              	.LBB2383:
 1461              	.LBB2384:
 1462              	.LBB2385:
 1463              	.LBB2386:
 1464              	.LBB2387:
 1465              		.loc 2 288 0
 1466 05d4 8121003C 		lwz 9,60(1)
 1467              	.LBE2387:
 1468              	.LBE2386:
 1469              	.LBE2385:
 1470              	.LBB2388:
 1471              	.LBB2389:
 1472              		.loc 2 235 0
 1473 05d8 3D600000 		lis 11,_ZNSs4_Rep20_S_empty_rep_storageE@ha
 1474 05dc 380B0000 		la 0,_ZNSs4_Rep20_S_empty_rep_storageE@l(11)
 1475              	.LBE2389:
 1476              	.LBE2388:
 1477              		.loc 2 534 0
 1478 05e0 3869FFF4 		addi 3,9,-12
 1479              	.LVL152:
 1480              	.LBB2397:
 1481              	.LBB2396:
 1482              		.loc 2 235 0
 1483 05e4 7F830000 		cmpw 7,3,0
 1484 05e8 419EFABC 		beq+ 7,.L109
 1485              	.LVL153:
 1486              	.LBB2390:
 1487              	.LBB2391:
 1488              	.LBB2392:
 1489              		.loc 3 66 0
 1490 05ec 8169FFFC 		lwz 11,-4(9)
 1491              	.LVL154:
 1492              	.LBE2392:
 1493              	.LBE2391:
 1494              	.LBE2390:
 1495              		.loc 2 240 0
 1496 05f0 2F8B0000 		cmpwi 7,11,0
 1497              	.LBB2395:
 1498              	.LBB2394:
 1499              	.LBB2393:
 1500              		.loc 3 67 0
 1501 05f4 396BFFFF 		addi 11,11,-1
 1502 05f8 9169FFFC 		stw 11,-4(9)
 1503              	.LBE2393:
 1504              	.LBE2394:
 1505              	.LBE2395:
 1506              		.loc 2 240 0
 1507 05fc 419DFAA8 		bgt+ 7,.L109
 1508              		.loc 2 244 0
 1509 0600 3881000A 		addi 4,1,10
 1510 0604 48000001 		bl _ZNSs4_Rep10_M_destroyERKSaIcE
 1511              	.LVL155:
 1512 0608 4BFFFA9C 		b .L109
 1513              	.LVL156:
 1514              	.L187:
 1515              	.LBE2396:
 1516              	.LBE2397:
 1517              	.LBE2384:
 1518              	.LBE2383:
 1519              	.LBE2382:
 1520              	.LBB2398:
 1521              	.LBB2092:
 1522              		.loc 1 694 0
 1523 060c 3C800000 		lis 4,.LC26@ha
 1524 0610 7FE3FB78 		mr 3,31
 1525 0614 38840108 		la 4,.LC26@l(4)
 1526              	.LEHB31:
 1527 0618 48000001 		bl strcasestr
 1528 061c 2F830000 		cmpwi 7,3,0
 1529 0620 419E0010 		beq- 7,.L188
 1530              		.loc 1 695 0
 1531 0624 3C800000 		lis 4,.LC11@ha
 1532 0628 3884004C 		la 4,.LC11@l(4)
 1533 062c 4BFFFA9C 		b .L110
 1534              	.L188:
 1535              		.loc 1 697 0
 1536 0630 3C800000 		lis 4,.LC27@ha
 1537 0634 7FE3FB78 		mr 3,31
 1538 0638 38840110 		la 4,.LC27@l(4)
 1539 063c 48000001 		bl strcasestr
 1540 0640 2F830000 		cmpwi 7,3,0
 1541 0644 419E0030 		beq- 7,.L189
 1542              		.loc 1 698 0
 1543 0648 3C800000 		lis 4,.LC12@ha
 1544 064c 38840050 		la 4,.LC12@l(4)
 1545 0650 4BFFFA78 		b .L110
 1546              	.LVL157:
 1547              	.L185:
 1548              	.LBE2092:
 1549              	.LBE2398:
 1550              	.LBB2399:
 1551              	.LBB2114:
 1552              	.LBB2113:
 1553              	.LBB2112:
 1554              	.LBB2110:
 1555              	.LBB2103:
 1556              	.LBB2104:
 1557              	.LBB2105:
 1558              		.loc 3 66 0
 1559 0654 8169FFFC 		lwz 11,-4(9)
 1560              	.LVL158:
 1561              	.LBE2105:
 1562              	.LBE2104:
 1563              	.LBE2103:
 1564              		.loc 2 240 0
 1565 0658 2F8B0000 		cmpwi 7,11,0
 1566              	.LBB2108:
 1567              	.LBB2107:
 1568              	.LBB2106:
 1569              		.loc 3 67 0
 1570 065c 396BFFFF 		addi 11,11,-1
 1571 0660 9169FFFC 		stw 11,-4(9)
 1572              	.LBE2106:
 1573              	.LBE2107:
 1574              	.LBE2108:
 1575              		.loc 2 240 0
 1576 0664 419DFABC 		bgt+ 7,.L117
 1577              		.loc 2 244 0
 1578 0668 38810009 		addi 4,1,9
 1579 066c 48000001 		bl _ZNSs4_Rep10_M_destroyERKSaIcE
 1580              	.LVL159:
 1581 0670 4BFFFAB0 		b .L117
 1582              	.LVL160:
 1583              	.L189:
 1584              	.LBE2110:
 1585              	.LBE2112:
 1586              	.LBE2113:
 1587              	.LBE2114:
 1588              	.LBE2399:
 1589              	.LBB2400:
 1590              	.LBB2093:
 1591              		.loc 1 700 0
 1592 0674 3C800000 		lis 4,.LC28@ha
 1593 0678 7FE3FB78 		mr 3,31
 1594 067c 38840118 		la 4,.LC28@l(4)
 1595 0680 48000001 		bl strcasestr
 1596              	.LEHE31:
 1597 0684 2F830000 		cmpwi 7,3,0
 1598 0688 419E0048 		beq- 7,.L190
 1599              		.loc 1 701 0
 1600 068c 3C800000 		lis 4,.LC13@ha
 1601 0690 38840054 		la 4,.LC13@l(4)
 1602 0694 4BFFFA34 		b .L110
 1603              	.LVL161:
 1604              	.L143:
 1605 0698 7C7E1B78 		mr 30,3
 1606              	.LBE2093:
 1607              	.LBE2400:
 1608              		.loc 1 753 0
 1609 069c 38610038 		addi 3,1,56
 1610              	.LVL162:
 1611 06a0 48000001 		bl _ZNSsD1Ev
 1612              	.LVL163:
 1613              	.L23:
 1614              		.loc 1 762 0
 1615 06a4 38610040 		addi 3,1,64
 1616 06a8 48000001 		bl _ZNSsD1Ev
 1617              	.L133:
 1618 06ac 7FE3FB78 		mr 3,31
 1619 06b0 48000001 		bl _ZNSsD1Ev
 1620 06b4 7FC3F378 		mr 3,30
 1621              	.LEHB32:
 1622 06b8 48000001 		bl _Unwind_Resume
 1623              	.LEHE32:
 1624              	.LVL164:
 1625              	.L160:
 1626 06bc 7C7E1B78 		mr 30,3
 1627              	.LBB2401:
 1628              	.LBB2356:
 1629              		.loc 2 2348 0
 1630 06c0 38610038 		addi 3,1,56
 1631              	.LVL165:
 1632 06c4 48000001 		bl _ZNSsD1Ev
 1633              	.LVL166:
 1634 06c8 3BE10044 		addi 31,1,68
 1635              	.LVL167:
 1636 06cc 4BFFFFD8 		b .L23
 1637              	.LVL168:
 1638              	.L190:
 1639              	.LBE2356:
 1640              	.LBE2401:
 1641              	.LBB2402:
 1642              	.LBB2094:
 1643              		.loc 1 700 0
 1644 06d0 7FE3FB78 		mr 3,31
 1645              	.LEHB33:
 1646 06d4 48000001 		bl _ZL11GetLangCodePKc.part.0
 1647              	.LEHE33:
 1648 06d8 7C641B78 		mr 4,3
 1649 06dc 4BFFF9EC 		b .L110
 1650              	.LVL169:
 1651              	.L153:
 1652 06e0 7C7E1B78 		mr 30,3
 1653              	.LBE2094:
 1654              	.LBE2402:
 1655              	.LBB2403:
 1656              	.LBB2195:
 1657              		.loc 2 2348 0
 1658 06e4 3861001C 		addi 3,1,28
 1659              	.LVL170:
 1660 06e8 48000001 		bl _ZNSsD1Ev
 1661              	.LVL171:
 1662 06ec 3BE10044 		addi 31,1,68
 1663              	.LVL172:
 1664 06f0 4BFFFFB4 		b .L23
 1665              	.LVL173:
 1666              	.L141:
 1667 06f4 7C7E1B78 		mr 30,3
 1668 06f8 3BE10044 		addi 31,1,68
 1669 06fc 4BFFFFA8 		b .L23
 1670              	.LVL174:
 1671              	.L145:
 1672 0700 7C7E1B78 		mr 30,3
 1673              	.LBE2195:
 1674              	.LBE2403:
 1675              		.loc 1 751 0
 1676 0704 38610030 		addi 3,1,48
 1677              	.LVL175:
 1678 0708 48000001 		bl _ZNSsD1Ev
 1679              	.LVL176:
 1680 070c 4BFFFF98 		b .L23
 1681              	.LVL177:
 1682              	.L158:
 1683 0710 7C7E1B78 		mr 30,3
 1684              	.LBB2404:
 1685              	.LBB2241:
 1686              		.loc 2 2348 0
 1687 0714 38610030 		addi 3,1,48
 1688              	.LVL178:
 1689 0718 48000001 		bl _ZNSsD1Ev
 1690              	.LVL179:
 1691 071c 3BE10044 		addi 31,1,68
 1692              	.LVL180:
 1693 0720 4BFFFF84 		b .L23
 1694              	.LVL181:
 1695              	.L147:
 1696 0724 7C7E1B78 		mr 30,3
 1697              	.LBE2241:
 1698              	.LBE2404:
 1699              		.loc 1 749 0
 1700 0728 38610028 		addi 3,1,40
 1701              	.LVL182:
 1702 072c 48000001 		bl _ZNSsD1Ev
 1703              	.LVL183:
 1704 0730 4BFFFF74 		b .L23
 1705              	.LVL184:
 1706              	.L156:
 1707 0734 7C7E1B78 		mr 30,3
 1708              	.LBB2405:
 1709              	.LBB2287:
 1710              		.loc 2 2348 0
 1711 0738 38610028 		addi 3,1,40
 1712              	.LVL185:
 1713 073c 48000001 		bl _ZNSsD1Ev
 1714              	.LVL186:
 1715 0740 3BE10044 		addi 31,1,68
 1716              	.LVL187:
 1717 0744 4BFFFF60 		b .L23
 1718              	.LVL188:
 1719              	.L140:
 1720 0748 7C7E1B78 		mr 30,3
 1721 074c 3BE10044 		addi 31,1,68
 1722              	.LVL189:
 1723 0750 4BFFFF5C 		b .L133
 1724              	.LVL190:
 1725              	.L152:
 1726 0754 7C7E1B78 		mr 30,3
 1727              	.LBE2287:
 1728              	.LBE2405:
 1729              	.LBB2406:
 1730              	.LBB2132:
 1731 0758 38610018 		addi 3,1,24
 1732              	.LVL191:
 1733 075c 48000001 		bl _ZNSsD1Ev
 1734              	.LVL192:
 1735 0760 3BE10044 		addi 31,1,68
 1736              	.LVL193:
 1737 0764 4BFFFF40 		b .L23
 1738              	.LVL194:
 1739              	.L151:
 1740 0768 7C7E1B78 		mr 30,3
 1741              	.LBE2132:
 1742              	.LBE2406:
 1743              		.loc 1 745 0
 1744 076c 38610018 		addi 3,1,24
 1745              	.LVL195:
 1746 0770 48000001 		bl _ZNSsD1Ev
 1747              	.LVL196:
 1748 0774 4BFFFF30 		b .L23
 1749              	.LVL197:
 1750              	.L148:
 1751 0778 7C7E1B78 		mr 30,3
 1752              		.loc 1 748 0
 1753 077c 38610024 		addi 3,1,36
 1754              	.LVL198:
 1755 0780 48000001 		bl _ZNSsD1Ev
 1756              	.LVL199:
 1757 0784 4BFFFF20 		b .L23
 1758              	.LVL200:
 1759              	.L155:
 1760 0788 7C7E1B78 		mr 30,3
 1761              	.LBB2407:
 1762              	.LBB2264:
 1763              		.loc 2 2348 0
 1764 078c 38610024 		addi 3,1,36
 1765              	.LVL201:
 1766 0790 48000001 		bl _ZNSsD1Ev
 1767              	.LVL202:
 1768 0794 3BE10044 		addi 31,1,68
 1769              	.LVL203:
 1770 0798 4BFFFF0C 		b .L23
 1771              	.LVL204:
 1772              	.L146:
 1773 079c 7C7E1B78 		mr 30,3
 1774              	.LBE2264:
 1775              	.LBE2407:
 1776              		.loc 1 750 0
 1777 07a0 3861002C 		addi 3,1,44
 1778              	.LVL205:
 1779 07a4 48000001 		bl _ZNSsD1Ev
 1780              	.LVL206:
 1781 07a8 4BFFFEFC 		b .L23
 1782              	.LVL207:
 1783              	.L157:
 1784 07ac 7C7E1B78 		mr 30,3
 1785              	.LBB2408:
 1786              	.LBB2310:
 1787              		.loc 2 2348 0
 1788 07b0 3861002C 		addi 3,1,44
 1789              	.LVL208:
 1790 07b4 48000001 		bl _ZNSsD1Ev
 1791              	.LVL209:
 1792 07b8 3BE10044 		addi 31,1,68
 1793              	.LVL210:
 1794 07bc 4BFFFEE8 		b .L23
 1795              	.LVL211:
 1796              	.L144:
 1797 07c0 7C7E1B78 		mr 30,3
 1798              	.LBE2310:
 1799              	.LBE2408:
 1800              		.loc 1 752 0
 1801 07c4 38610034 		addi 3,1,52
 1802              	.LVL212:
 1803 07c8 48000001 		bl _ZNSsD1Ev
 1804              	.LVL213:
 1805 07cc 4BFFFED8 		b .L23
 1806              	.LVL214:
 1807              	.L159:
 1808 07d0 7C7E1B78 		mr 30,3
 1809              	.LBB2409:
 1810              	.LBB2333:
 1811              		.loc 2 2348 0
 1812 07d4 38610034 		addi 3,1,52
 1813              	.LVL215:
 1814 07d8 48000001 		bl _ZNSsD1Ev
 1815              	.LVL216:
 1816 07dc 3BE10044 		addi 31,1,68
 1817              	.LVL217:
 1818 07e0 4BFFFEC4 		b .L23
 1819              	.LVL218:
 1820              	.L149:
 1821 07e4 7C7E1B78 		mr 30,3
 1822              	.LBE2333:
 1823              	.LBE2409:
 1824              		.loc 1 747 0
 1825 07e8 38610020 		addi 3,1,32
 1826              	.LVL219:
 1827 07ec 48000001 		bl _ZNSsD1Ev
 1828              	.LVL220:
 1829 07f0 4BFFFEB4 		b .L23
 1830              	.LVL221:
 1831              	.L154:
 1832 07f4 7C7E1B78 		mr 30,3
 1833              	.LBB2410:
 1834              	.LBB2218:
 1835              		.loc 2 2348 0
 1836 07f8 38610020 		addi 3,1,32
 1837              	.LVL222:
 1838 07fc 48000001 		bl _ZNSsD1Ev
 1839              	.LVL223:
 1840 0800 3BE10044 		addi 31,1,68
 1841              	.LVL224:
 1842 0804 4BFFFEA0 		b .L23
 1843              	.LVL225:
 1844              	.L150:
 1845 0808 7C7E1B78 		mr 30,3
 1846              	.LBE2218:
 1847              	.LBE2410:
 1848              		.loc 1 746 0
 1849 080c 3861001C 		addi 3,1,28
 1850              	.LVL226:
 1851 0810 48000001 		bl _ZNSsD1Ev
 1852              	.LVL227:
 1853 0814 4BFFFE90 		b .L23
 1854              	.LVL228:
 1855              	.L186:
 1856              	.LBB2411:
 1857              	.LBB2174:
 1858              	.LBB2172:
 1859              	.LBB2170:
 1860              	.LBB2167:
 1861              	.LBB2159:
 1862              	.LBB2160:
 1863              	.LBB2161:
 1864              		.loc 3 66 0
 1865 0818 8169FFFC 		lwz 11,-4(9)
 1866              	.LVL229:
 1867              	.LBE2161:
 1868              	.LBE2160:
 1869              	.LBE2159:
 1870              		.loc 2 240 0
 1871 081c 2F8B0000 		cmpwi 7,11,0
 1872              	.LBB2164:
 1873              	.LBB2163:
 1874              	.LBB2162:
 1875              		.loc 3 67 0
 1876 0820 396BFFFF 		addi 11,11,-1
 1877 0824 9169FFFC 		stw 11,-4(9)
 1878              	.LBE2162:
 1879              	.LBE2163:
 1880              	.LBE2164:
 1881              		.loc 2 240 0
 1882 0828 419DF9E8 		bgt+ 7,.L19
 1883              		.loc 2 244 0
 1884 082c 38810015 		addi 4,1,21
 1885 0830 48000001 		bl _ZNSs4_Rep10_M_destroyERKSaIcE
 1886              	.LVL230:
 1887 0834 4BFFF9DC 		b .L19
 1888              	.LVL231:
 1889              	.L142:
 1890 0838 7C7E1B78 		mr 30,3
 1891              	.LBE2167:
 1892              	.LBE2170:
 1893              	.LBE2172:
 1894              	.LBE2174:
 1895              	.LBE2411:
 1896              		.loc 1 754 0
 1897 083c 3861003C 		addi 3,1,60
 1898              	.LVL232:
 1899 0840 48000001 		bl _ZNSsD1Ev
 1900              	.LVL233:
 1901 0844 4BFFFE60 		b .L23
 1902              	.LVL234:
 1903              	.L161:
 1904 0848 7C7E1B78 		mr 30,3
 1905              	.LBB2412:
 1906              	.LBB2379:
 1907              		.loc 2 2348 0
 1908 084c 3861003C 		addi 3,1,60
 1909              	.LVL235:
 1910 0850 48000001 		bl _ZNSsD1Ev
 1911              	.LVL236:
 1912 0854 3BE10044 		addi 31,1,68
 1913              	.LVL237:
 1914 0858 4BFFFE4C 		b .L23
 1915              	.LBE2379:
 1916              	.LBE2412:
 1917              	.LBE2413:
 1918              	.LBE2416:
 1919              	.LBE2419:
 1920              		.cfi_endproc
 1921              	.LFE1961:
 1922              		.globl __gxx_personality_v0
 1923              		.section	.gcc_except_table,"a",@progbits
 1924              	.LLSDA1961:
 1925 0000 FF       		.byte	0xff
 1926 0001 FF       		.byte	0xff
 1927 0002 01       		.byte	0x1
 1928 0003 CC01     		.uleb128 .LLSDACSE1961-.LLSDACSB1961
 1929              	.LLSDACSB1961:
 1930 0005 4C       		.uleb128 .LEHB0-.LFB1961
 1931 0006 04       		.uleb128 .LEHE0-.LEHB0
 1932 0007 C80E     		.uleb128 .L140-.LFB1961
 1933 0009 00       		.uleb128 0
 1934 000a B401     		.uleb128 .LEHB1-.LFB1961
 1935 000c D401     		.uleb128 .LEHE1-.LEHB1
 1936 000e F40D     		.uleb128 .L141-.LFB1961
 1937 0010 00       		.uleb128 0
 1938 0011 9803     		.uleb128 .LEHB2-.LFB1961
 1939 0013 04       		.uleb128 .LEHE2-.LEHB2
 1940 0014 D40E     		.uleb128 .L152-.LFB1961
 1941 0016 00       		.uleb128 0
 1942 0017 A803     		.uleb128 .LEHB3-.LFB1961
 1943 0019 04       		.uleb128 .LEHE3-.LEHB3
 1944 001a E80E     		.uleb128 .L151-.LFB1961
 1945 001c 00       		.uleb128 0
 1946 001d E403     		.uleb128 .LEHB4-.LFB1961
 1947 001f 8C01     		.uleb128 .LEHE4-.LEHB4
 1948 0021 F40D     		.uleb128 .L141-.LFB1961
 1949 0023 00       		.uleb128 0
 1950 0024 8005     		.uleb128 .LEHB5-.LFB1961
 1951 0026 04       		.uleb128 .LEHE5-.LEHB5
 1952 0027 E00D     		.uleb128 .L153-.LFB1961
 1953 0029 00       		.uleb128 0
 1954 002a 9005     		.uleb128 .LEHB6-.LFB1961
 1955 002c 04       		.uleb128 .LEHE6-.LEHB6
 1956 002d 8810     		.uleb128 .L150-.LFB1961
 1957 002f 00       		.uleb128 0
 1958 0030 D405     		.uleb128 .LEHB7-.LFB1961
 1959 0032 04       		.uleb128 .LEHE7-.LEHB7
 1960 0033 F40D     		.uleb128 .L141-.LFB1961
 1961 0035 00       		.uleb128 0
 1962 0036 E805     		.uleb128 .LEHB8-.LFB1961
 1963 0038 04       		.uleb128 .LEHE8-.LEHB8
 1964 0039 F40F     		.uleb128 .L154-.LFB1961
 1965 003b 00       		.uleb128 0
 1966 003c F805     		.uleb128 .LEHB9-.LFB1961
 1967 003e 04       		.uleb128 .LEHE9-.LEHB9
 1968 003f E40F     		.uleb128 .L149-.LFB1961
 1969 0041 00       		.uleb128 0
 1970 0042 BC06     		.uleb128 .LEHB10-.LFB1961
 1971 0044 04       		.uleb128 .LEHE10-.LEHB10
 1972 0045 F40D     		.uleb128 .L141-.LFB1961
 1973 0047 00       		.uleb128 0
 1974 0048 D006     		.uleb128 .LEHB11-.LFB1961
 1975 004a 04       		.uleb128 .LEHE11-.LEHB11
 1976 004b 900E     		.uleb128 .L158-.LFB1961
 1977 004d 00       		.uleb128 0
 1978 004e E006     		.uleb128 .LEHB12-.LFB1961
 1979 0050 04       		.uleb128 .LEHE12-.LEHB12
 1980 0051 800E     		.uleb128 .L145-.LFB1961
 1981 0053 00       		.uleb128 0
 1982 0054 A407     		.uleb128 .LEHB13-.LFB1961
 1983 0056 04       		.uleb128 .LEHE13-.LEHB13
 1984 0057 F40D     		.uleb128 .L141-.LFB1961
 1985 0059 00       		.uleb128 0
 1986 005a B807     		.uleb128 .LEHB14-.LFB1961
 1987 005c 04       		.uleb128 .LEHE14-.LEHB14
 1988 005d 880F     		.uleb128 .L155-.LFB1961
 1989 005f 00       		.uleb128 0
 1990 0060 C807     		.uleb128 .LEHB15-.LFB1961
 1991 0062 04       		.uleb128 .LEHE15-.LEHB15
 1992 0063 F80E     		.uleb128 .L148-.LFB1961
 1993 0065 00       		.uleb128 0
 1994 0066 8C08     		.uleb128 .LEHB16-.LFB1961
 1995 0068 04       		.uleb128 .LEHE16-.LEHB16
 1996 0069 F40D     		.uleb128 .L141-.LFB1961
 1997 006b 00       		.uleb128 0
 1998 006c A008     		.uleb128 .LEHB17-.LFB1961
 1999 006e 04       		.uleb128 .LEHE17-.LEHB17
 2000 006f B40E     		.uleb128 .L156-.LFB1961
 2001 0071 00       		.uleb128 0
 2002 0072 B008     		.uleb128 .LEHB18-.LFB1961
 2003 0074 04       		.uleb128 .LEHE18-.LEHB18
 2004 0075 A40E     		.uleb128 .L147-.LFB1961
 2005 0077 00       		.uleb128 0
 2006 0078 F408     		.uleb128 .LEHB19-.LFB1961
 2007 007a 04       		.uleb128 .LEHE19-.LEHB19
 2008 007b F40D     		.uleb128 .L141-.LFB1961
 2009 007d 00       		.uleb128 0
 2010 007e 8809     		.uleb128 .LEHB20-.LFB1961
 2011 0080 04       		.uleb128 .LEHE20-.LEHB20
 2012 0081 AC0F     		.uleb128 .L157-.LFB1961
 2013 0083 00       		.uleb128 0
 2014 0084 9809     		.uleb128 .LEHB21-.LFB1961
 2015 0086 04       		.uleb128 .LEHE21-.LEHB21
 2016 0087 9C0F     		.uleb128 .L146-.LFB1961
 2017 0089 00       		.uleb128 0
 2018 008a DC09     		.uleb128 .LEHB22-.LFB1961
 2019 008c 04       		.uleb128 .LEHE22-.LEHB22
 2020 008d F40D     		.uleb128 .L141-.LFB1961
 2021 008f 00       		.uleb128 0
 2022 0090 F009     		.uleb128 .LEHB23-.LFB1961
 2023 0092 04       		.uleb128 .LEHE23-.LEHB23
 2024 0093 D00F     		.uleb128 .L159-.LFB1961
 2025 0095 00       		.uleb128 0
 2026 0096 800A     		.uleb128 .LEHB24-.LFB1961
 2027 0098 04       		.uleb128 .LEHE24-.LEHB24
 2028 0099 C00F     		.uleb128 .L144-.LFB1961
 2029 009b 00       		.uleb128 0
 2030 009c C40A     		.uleb128 .LEHB25-.LFB1961
 2031 009e 04       		.uleb128 .LEHE25-.LEHB25
 2032 009f F40D     		.uleb128 .L141-.LFB1961
 2033 00a1 00       		.uleb128 0
 2034 00a2 D80A     		.uleb128 .LEHB26-.LFB1961
 2035 00a4 04       		.uleb128 .LEHE26-.LEHB26
 2036 00a5 BC0D     		.uleb128 .L160-.LFB1961
 2037 00a7 00       		.uleb128 0
 2038 00a8 E80A     		.uleb128 .LEHB27-.LFB1961
 2039 00aa 04       		.uleb128 .LEHE27-.LEHB27
 2040 00ab 980D     		.uleb128 .L143-.LFB1961
 2041 00ad 00       		.uleb128 0
 2042 00ae AC0B     		.uleb128 .LEHB28-.LFB1961
 2043 00b0 04       		.uleb128 .LEHE28-.LEHB28
 2044 00b1 F40D     		.uleb128 .L141-.LFB1961
 2045 00b3 00       		.uleb128 0
 2046 00b4 C00B     		.uleb128 .LEHB29-.LFB1961
 2047 00b6 04       		.uleb128 .LEHE29-.LEHB29
 2048 00b7 C810     		.uleb128 .L161-.LFB1961
 2049 00b9 00       		.uleb128 0
 2050 00ba D00B     		.uleb128 .LEHB30-.LFB1961
 2051 00bc 04       		.uleb128 .LEHE30-.LEHB30
 2052 00bd B810     		.uleb128 .L142-.LFB1961
 2053 00bf 00       		.uleb128 0
 2054 00c0 980C     		.uleb128 .LEHB31-.LFB1961
 2055 00c2 6C       		.uleb128 .LEHE31-.LEHB31
 2056 00c3 F40D     		.uleb128 .L141-.LFB1961
 2057 00c5 00       		.uleb128 0
 2058 00c6 B80D     		.uleb128 .LEHB32-.LFB1961
 2059 00c8 04       		.uleb128 .LEHE32-.LEHB32
 2060 00c9 00       		.uleb128 0
 2061 00ca 00       		.uleb128 0
 2062 00cb D40D     		.uleb128 .LEHB33-.LFB1961
 2063 00cd 04       		.uleb128 .LEHE33-.LEHB33
 2064 00ce F40D     		.uleb128 .L141-.LFB1961
 2065 00d0 00       		.uleb128 0
 2066              	.LLSDACSE1961:
 2067              		.section	".text"
 2068              		.size	_ZN9CSettings12LoadLanguageEPKci.constprop.77, .-_ZN9CSettings12LoadLanguageEPKci.constprop.
 2069              		.align 2
 2070              		.globl _ZN9CSettingsD2Ev
 2071              		.type	_ZN9CSettingsD2Ev, @function
 2072              	_ZN9CSettingsD2Ev:
 2073              	.LFB1571:
 2074              		.loc 1 53 0
 2075              		.cfi_startproc
 2076              		.cfi_personality 0,__gxx_personality_v0
 2077              		.cfi_lsda 0,.LLSDA1571
 2078              	.LVL238:
 2079 085c 9421FFE0 		stwu 1,-32(1)
 2080              	.LCFI5:
 2081              		.cfi_def_cfa_offset 32
 2082 0860 7C0802A6 		mflr 0
 2083 0864 93E1001C 		stw 31,28(1)
 2084 0868 7C7F1B78 		mr 31,3
 2085              		.cfi_offset 31, -4
 2086              		.cfi_register 65, 0
 2087              	.LBB2442:
 2088 086c 38630A38 		addi 3,3,2616
 2089              	.LVL239:
 2090              	.LBE2442:
 2091 0870 90010024 		stw 0,36(1)
 2092 0874 93C10018 		stw 30,24(1)
 2093              	.LEHB34:
 2094              	.LBB2464:
 2095              		.loc 1 53 0
 2096              		.cfi_offset 30, -8
 2097              		.cfi_offset 65, 4
 2098 0878 48000001 		bl _ZN11AppControlsD1Ev
 2099              	.LEHE34:
 2100              		.loc 1 53 0 is_stmt 0 discriminator 1
 2101 087c 387F0A14 		addi 3,31,2580
 2102              	.LEHB35:
 2103 0880 48000001 		bl _ZN16CFilesExtensionsD1Ev
 2104              	.LEHE35:
 2105              	.LVL240:
 2106              	.LBB2443:
 2107              	.LBB2444:
 2108              	.LBB2445:
 2109              	.LBB2446:
 2110              	.LBB2447:
 2111              	.LBB2448:
 2112              		.loc 2 288 0 is_stmt 1 discriminator 2
 2113 0884 813F0000 		lwz 9,0(31)
 2114              	.LBE2448:
 2115              	.LBE2447:
 2116              	.LBE2446:
 2117              	.LBB2449:
 2118              	.LBB2450:
 2119              		.loc 2 235 0 discriminator 2
 2120 0888 3D600000 		lis 11,_ZNSs4_Rep20_S_empty_rep_storageE@ha
 2121 088c 380B0000 		la 0,_ZNSs4_Rep20_S_empty_rep_storageE@l(11)
 2122              	.LBE2450:
 2123              	.LBE2449:
 2124              		.loc 2 534 0 discriminator 2
 2125 0890 3869FFF4 		addi 3,9,-12
 2126              	.LVL241:
 2127              	.LBB2459:
 2128              	.LBB2457:
 2129              		.loc 2 235 0 discriminator 2
 2130 0894 7F830000 		cmpw 7,3,0
 2131 0898 409E001C 		bne- 7,.L203
 2132              	.LVL242:
 2133              	.L191:
 2134              	.LBE2457:
 2135              	.LBE2459:
 2136              	.LBE2445:
 2137              	.LBE2444:
 2138              	.LBE2443:
 2139              	.LBE2464:
 2140              		.loc 1 55 0
 2141 089c 80010024 		lwz 0,36(1)
 2142 08a0 83C10018 		lwz 30,24(1)
 2143 08a4 7C0803A6 		mtlr 0
 2144 08a8 83E1001C 		lwz 31,28(1)
 2145              	.LVL243:
 2146 08ac 38210020 		addi 1,1,32
 2147              		.cfi_remember_state
 2148              	.LCFI6:
 2149              		.cfi_def_cfa_offset 0
 2150              		.cfi_restore 31
 2151              		.cfi_restore 30
 2152 08b0 4E800020 		blr
 2153              	.LVL244:
 2154              	.L203:
 2155              	.LCFI7:
 2156              		.cfi_restore_state
 2157              	.LBB2465:
 2158              	.LBB2463:
 2159              	.LBB2462:
 2160              	.LBB2461:
 2161              	.LBB2460:
 2162              	.LBB2458:
 2163              	.LBB2451:
 2164              	.LBB2452:
 2165              	.LBB2453:
 2166              		.loc 3 66 0
 2167 08b4 8169FFFC 		lwz 11,-4(9)
 2168              	.LVL245:
 2169              	.LBE2453:
 2170              	.LBE2452:
 2171              	.LBE2451:
 2172              		.loc 2 240 0
 2173 08b8 2F8B0000 		cmpwi 7,11,0
 2174              	.LBB2456:
 2175              	.LBB2455:
 2176              	.LBB2454:
 2177              		.loc 3 67 0
 2178 08bc 396BFFFF 		addi 11,11,-1
 2179 08c0 9169FFFC 		stw 11,-4(9)
 2180              	.LBE2454:
 2181              	.LBE2455:
 2182              	.LBE2456:
 2183              		.loc 2 240 0
 2184 08c4 419DFFD8 		bgt+ 7,.L191
 2185              		.loc 2 244 0
 2186 08c8 38810008 		addi 4,1,8
 2187 08cc 48000001 		bl _ZNSs4_Rep10_M_destroyERKSaIcE
 2188              	.LVL246:
 2189 08d0 4BFFFFCC 		b .L191
 2190              	.LVL247:
 2191              	.L202:
 2192 08d4 7C7E1B78 		mr 30,3
 2193              	.L200:
 2194              	.LBE2458:
 2195              	.LBE2460:
 2196              	.LBE2461:
 2197              	.LBE2462:
 2198              	.LBE2463:
 2199              		.loc 1 53 0
 2200 08d8 7FE3FB78 		mr 3,31
 2201 08dc 48000001 		bl _ZNSsD1Ev
 2202 08e0 7FC3F378 		mr 3,30
 2203              	.LEHB36:
 2204 08e4 48000001 		bl _Unwind_Resume
 2205              	.LEHE36:
 2206              	.L201:
 2207 08e8 7C7E1B78 		mr 30,3
 2208 08ec 387F0A14 		addi 3,31,2580
 2209 08f0 48000001 		bl _ZN16CFilesExtensionsD1Ev
 2210 08f4 4BFFFFE4 		b .L200
 2211              	.LBE2465:
 2212              		.cfi_endproc
 2213              	.LFE1571:
 2214              		.section	.gcc_except_table
 2215              	.LLSDA1571:
 2216 00d1 FF       		.byte	0xff
 2217 00d2 FF       		.byte	0xff
 2218 00d3 01       		.byte	0x1
 2219 00d4 0E       		.uleb128 .LLSDACSE1571-.LLSDACSB1571
 2220              	.LLSDACSB1571:
 2221 00d5 1C       		.uleb128 .LEHB34-.LFB1571
 2222 00d6 04       		.uleb128 .LEHE34-.LEHB34
 2223 00d7 8C01     		.uleb128 .L201-.LFB1571
 2224 00d9 00       		.uleb128 0
 2225 00da 24       		.uleb128 .LEHB35-.LFB1571
 2226 00db 04       		.uleb128 .LEHE35-.LEHB35
 2227 00dc 78       		.uleb128 .L202-.LFB1571
 2228 00dd 00       		.uleb128 0
 2229 00de 8801     		.uleb128 .LEHB36-.LFB1571
 2230 00e0 04       		.uleb128 .LEHE36-.LEHB36
 2231 00e1 00       		.uleb128 0
 2232 00e2 00       		.uleb128 0
 2233              	.LLSDACSE1571:
 2234              		.section	".text"
 2235              		.size	_ZN9CSettingsD2Ev, .-_ZN9CSettingsD2Ev
 2236              		.align 2
 2237              		.globl _ZN9CSettings10SetDefaultEv
 2238              		.type	_ZN9CSettings10SetDefaultEv, @function
 2239              	_ZN9CSettings10SetDefaultEv:
 2240              	.LFB1573:
 2241              		.loc 1 58 0
 2242              		.cfi_startproc
 2243              	.LVL248:
 2244 08f8 7C0802A6 		mflr 0
 2245 08fc 9421FFE0 		stwu 1,-32(1)
 2246              	.LCFI8:
 2247              		.cfi_def_cfa_offset 32
 2248              		.cfi_register 65, 0
 2249              		.loc 1 65 0
 2250 0900 3D200000 		lis 9,.LC29@ha
 2251              		.loc 1 62 0
 2252 0904 39600002 		li 11,2
 2253              		.loc 1 58 0
 2254 0908 93410008 		stw 26,8(1)
 2255              		.loc 1 82 0
 2256 090c 3CA00000 		lis 5,.LC31@ha
 2257              		.loc 1 58 0
 2258 0910 90010024 		stw 0,36(1)
 2259              		.loc 1 82 0
 2260 0914 3B430004 		addi 26,3,4
 2261              		.cfi_offset 65, 4
 2262              		.cfi_offset 26, -24
 2263              		.loc 1 65 0
 2264 0918 80090000 		lwz 0,.LC29@l(9)
 2265              		.loc 1 64 0
 2266 091c 39200002 		li 9,2
 2267              		.loc 1 58 0
 2268 0920 9361000C 		stw 27,12(1)
 2269              		.loc 1 82 0
 2270 0924 388000FA 		li 4,250
 2271              		.loc 1 58 0
 2272 0928 93810010 		stw 28,16(1)
 2273              		.loc 1 82 0
 2274 092c 38A50120 		la 5,.LC31@l(5)
 2275              		.loc 1 58 0
 2276 0930 93A10014 		stw 29,20(1)
 2277              		.loc 1 61 0
 2278 0934 3BA00001 		li 29,1
 2279              		.cfi_offset 29, -12
 2280              		.cfi_offset 28, -16
 2281              		.cfi_offset 27, -20
 2282              		.loc 1 58 0
 2283 0938 93C10018 		stw 30,24(1)
 2284              		.loc 1 59 0
 2285 093c 3BC00000 		li 30,0
 2286              		.cfi_offset 30, -8
 2287              		.loc 1 58 0
 2288 0940 93E1001C 		stw 31,28(1)
 2289              		.loc 1 82 0
 2290 0944 7F46D378 		mr 6,26
 2291              		.loc 1 62 0
 2292 0948 B1630066 		sth 11,102(3)
 2293              		.loc 1 67 0
 2294 094c 3D600000 		lis 11,.LC30@ha
 2295              		.loc 1 65 0
 2296 0950 90030070 		stw 0,112(3)
 2297              		.loc 1 58 0
 2298 0954 7C7F1B78 		mr 31,3
 2299              		.cfi_offset 31, -4
 2300              		.loc 1 66 0
 2301 0958 90030074 		stw 0,116(3)
 2302              		.loc 1 83 0
 2303 095c 3B9F000E 		addi 28,31,14
 2304              		.loc 1 67 0
 2305 0960 800B0004 		lwz 0,.LC30@l(11)
 2306              		.loc 1 84 0
 2307 0964 3B7F02E8 		addi 27,31,744
 2308              		.loc 1 64 0
 2309 0968 9123006C 		stw 9,108(3)
 2310              		.loc 1 67 0
 2311 096c 90030078 		stw 0,120(3)
 2312              		.loc 1 68 0
 2313 0970 38000005 		li 0,5
 2314 0974 B003007C 		sth 0,124(3)
 2315              		.loc 1 69 0
 2316 0978 3800000F 		li 0,15
 2317 097c B003007E 		sth 0,126(3)
 2318              		.loc 1 70 0
 2319 0980 38000020 		li 0,32
 2320 0984 B0030080 		sth 0,128(3)
 2321              		.loc 1 71 0
 2322 0988 38002000 		li 0,8192
 2323 098c 90030084 		stw 0,132(3)
 2324              		.loc 1 73 0
 2325 0990 380000F9 		li 0,249
 2326 0994 B0030A0A 		sth 0,2570(3)
 2327              		.loc 1 74 0
 2328 0998 38000003 		li 0,3
 2329 099c B003008A 		sth 0,138(3)
 2330              		.loc 1 80 0
 2331 09a0 3800FFFF 		li 0,-1
 2332              		.loc 1 75 0
 2333 09a4 B123008C 		sth 9,140(3)
 2334              		.loc 1 80 0
 2335 09a8 90030504 		stw 0,1284(3)
 2336              		.loc 1 59 0
 2337 09ac B3C30060 		sth 30,96(3)
 2338              		.loc 1 60 0
 2339 09b0 B3C30062 		sth 30,98(3)
 2340              		.loc 1 61 0
 2341 09b4 B3A30064 		sth 29,100(3)
 2342              		.loc 1 63 0
 2343 09b8 B3A30068 		sth 29,104(3)
 2344              		.loc 1 72 0
 2345 09bc B3C30088 		sth 30,136(3)
 2346              		.loc 1 76 0
 2347 09c0 B3C3008E 		sth 30,142(3)
 2348              		.loc 1 77 0
 2349 09c4 B3A304EA 		sth 29,1258(3)
 2350              		.loc 1 78 0
 2351 09c8 9BC304EC 		stb 30,1260(3)
 2352              		.loc 1 79 0
 2353 09cc B3A30500 		sth 29,1280(3)
 2354              		.loc 1 82 0
 2355 09d0 386301EE 		addi 3,3,494
 2356              	.LVL249:
 2357 09d4 4CC63182 		crxor 6,6,6
 2358 09d8 48000001 		bl snprintf
 2359              		.loc 1 83 0
 2360 09dc 3CA00000 		lis 5,.LC32@ha
 2361 09e0 388000FA 		li 4,250
 2362 09e4 38A5013C 		la 5,.LC32@l(5)
 2363 09e8 7F86E378 		mr 6,28
 2364 09ec 387F071A 		addi 3,31,1818
 2365 09f0 4CC63182 		crxor 6,6,6
 2366 09f4 48000001 		bl snprintf
 2367              		.loc 1 84 0
 2368 09f8 3CA00000 		lis 5,.LC33@ha
 2369 09fc 388000FA 		li 4,250
 2370 0a00 38A50148 		la 5,.LC33@l(5)
 2371 0a04 7F46D378 		mr 6,26
 2372 0a08 7F63DB78 		mr 3,27
 2373 0a0c 4CC63182 		crxor 6,6,6
 2374 0a10 48000001 		bl snprintf
 2375              		.loc 1 85 0
 2376 0a14 3CA00000 		lis 5,.LC34@ha
 2377 0a18 388000FA 		li 4,250
 2378 0a1c 38A50158 		la 5,.LC34@l(5)
 2379 0a20 7F86E378 		mr 6,28
 2380 0a24 387F0814 		addi 3,31,2068
 2381 0a28 4CC63182 		crxor 6,6,6
 2382 0a2c 48000001 		bl snprintf
 2383              		.loc 1 87 0
 2384 0a30 3CA00000 		lis 5,.LC35@ha
 2385 0a34 388000FA 		li 4,250
 2386 0a38 38A5015C 		la 5,.LC35@l(5)
 2387 0a3c 7F86E378 		mr 6,28
 2388 0a40 387F0620 		addi 3,31,1568
 2389 0a44 4CC63182 		crxor 6,6,6
 2390 0a48 48000001 		bl snprintf
 2391              		.loc 1 88 0
 2392 0a4c 9BDF0526 		stb 30,1318(31)
 2393              		.loc 1 90 0
 2394 0a50 B3DF0A08 		sth 30,2568(31)
 2395              		.loc 1 91 0
 2396 0a54 3CA00000 		lis 5,.LC36@ha
 2397 0a58 388000FA 		li 4,250
 2398 0a5c 38A5016C 		la 5,.LC36@l(5)
 2399 0a60 7F86E378 		mr 6,28
 2400 0a64 387F090E 		addi 3,31,2318
 2401 0a68 4CC63182 		crxor 6,6,6
 2402 0a6c 48000001 		bl snprintf
 2403              		.loc 1 93 0
 2404 0a70 3D200000 		lis 9,.LC4@ha
 2405 0a74 39490018 		la 10,.LC4@l(9)
 2406 0a78 A1690018 		lhz 11,.LC4@l(9)
 2407              		.loc 1 101 0
 2408 0a7c 38000050 		li 0,80
 2409              		.loc 1 93 0
 2410 0a80 892A0002 		lbz 9,2(10)
 2411              		.loc 1 101 0
 2412 0a84 901F04DC 		stw 0,1244(31)
 2413              		.loc 1 107 0
 2414 0a88 3CA00000 		lis 5,.LC37@ha
 2415              		.loc 1 102 0
 2416 0a8c 901F04E0 		stw 0,1248(31)
 2417              		.loc 1 103 0
 2418 0a90 38000032 		li 0,50
 2419              		.loc 1 93 0
 2420 0a94 B17F0508 		sth 11,1288(31)
 2421              		.loc 1 107 0
 2422 0a98 7F86E378 		mr 6,28
 2423              		.loc 1 93 0
 2424 0a9c 993F050A 		stb 9,1290(31)
 2425              		.loc 1 107 0
 2426 0aa0 388000FA 		li 4,250
 2427              		.loc 1 103 0
 2428 0aa4 901F04E4 		stw 0,1252(31)
 2429              		.loc 1 107 0
 2430 0aa8 38A5017C 		la 5,.LC37@l(5)
 2431              		.loc 1 95 0
 2432 0aac B3DF051C 		sth 30,1308(31)
 2433              		.loc 1 107 0
 2434 0ab0 387F0090 		addi 3,31,144
 2435              		.loc 1 96 0
 2436 0ab4 B3DF051E 		sth 30,1310(31)
 2437              		.loc 1 97 0
 2438 0ab8 B3DF0520 		sth 30,1312(31)
 2439              		.loc 1 98 0
 2440 0abc B3DF0522 		sth 30,1314(31)
 2441              		.loc 1 99 0
 2442 0ac0 B3BF0524 		sth 29,1316(31)
 2443              		.loc 1 104 0
 2444 0ac4 B3BF04E8 		sth 29,1256(31)
 2445              		.loc 1 105 0
 2446 0ac8 9BDF03E2 		stb 30,994(31)
 2447              		.loc 1 107 0
 2448 0acc 4CC63182 		crxor 6,6,6
 2449 0ad0 48000001 		bl snprintf
 2450              		.loc 1 108 0
 2451 0ad4 9BDF018A 		stb 30,394(31)
 2452              	.LVL250:
 2453              	.LBB2472:
 2454              	.LBB2473:
 2455              	.LBB2474:
 2456              	.LBB2475:
 2457              	.LBB2476:
 2458              		.file 4 "d:\\devkitpro\\devkitppc\\bin\\../lib/gcc/powerpc-eabi/4.6.3/../../../../powerpc-eabi/inc
 2459              		.loc 4 261 0
 2460 0ad8 7F63DB78 		mr 3,27
 2461 0adc 48000001 		bl strlen
 2462              	.LBE2476:
 2463              	.LBE2475:
 2464              		.loc 2 1121 0
 2465 0ae0 7F64DB78 		mr 4,27
 2466              	.LBB2478:
 2467              	.LBB2477:
 2468              		.loc 4 261 0
 2469 0ae4 7C651B78 		mr 5,3
 2470              	.LBE2477:
 2471              	.LBE2478:
 2472              		.loc 2 1121 0
 2473 0ae8 7FE3FB78 		mr 3,31
 2474 0aec 48000001 		bl _ZNSs6assignEPKcj
 2475              	.LBE2474:
 2476              	.LBE2473:
 2477              	.LBE2472:
 2478              		.loc 1 111 0
 2479 0af0 9BDF005E 		stb 30,94(31)
 2480              		.loc 1 135 0
 2481 0af4 48000001 		bl CONF_GetAspectRatio
 2482 0af8 68630001 		xori 3,3,1
 2483 0afc 7C630034 		cntlzw 3,3
 2484 0b00 5463D97E 		srwi 3,3,5
 2485 0b04 B07F0A0E 		sth 3,2574(31)
 2486              		.loc 1 136 0
 2487 0b08 48000001 		bl CONF_GetVideo
 2488 0b0c 2F830001 		cmpwi 7,3,1
 2489 0b10 38600000 		li 3,0
 2490 0b14 419E0044 		beq- 7,.L208
 2491              		.loc 1 136 0 is_stmt 0 discriminator 4
 2492 0b18 987F0A10 		stb 3,2576(31)
 2493              		.loc 1 138 0 is_stmt 1 discriminator 4
 2494 0b1c 3C600000 		lis 3,.LANCHOR0@ha
 2495 0b20 38630000 		la 3,.LANCHOR0@l(3)
 2496 0b24 48000001 		bl _ZN16CFilesExtensions10SetDefaultEv
 2497              		.loc 1 139 0 discriminator 4
 2498 0b28 387F0A38 		addi 3,31,2616
 2499 0b2c 48000001 		bl _ZN11AppControls10SetDefaultEv
 2500              		.loc 1 140 0 discriminator 4
 2501 0b30 80010024 		lwz 0,36(1)
 2502 0b34 83410008 		lwz 26,8(1)
 2503 0b38 7C0803A6 		mtlr 0
 2504 0b3c 8361000C 		lwz 27,12(1)
 2505              	.LVL251:
 2506 0b40 83810010 		lwz 28,16(1)
 2507 0b44 83A10014 		lwz 29,20(1)
 2508 0b48 83C10018 		lwz 30,24(1)
 2509 0b4c 83E1001C 		lwz 31,28(1)
 2510              	.LVL252:
 2511 0b50 38210020 		addi 1,1,32
 2512              		.cfi_remember_state
 2513              	.LCFI9:
 2514              		.cfi_def_cfa_offset 0
 2515              		.cfi_restore 31
 2516              		.cfi_restore 30
 2517              		.cfi_restore 29
 2518              		.cfi_restore 28
 2519              		.cfi_restore 27
 2520              		.cfi_restore 26
 2521 0b54 4E800020 		blr
 2522              	.LVL253:
 2523              	.L208:
 2524              	.LCFI10:
 2525              		.cfi_restore_state
 2526              		.loc 1 136 0 discriminator 1
 2527 0b58 48000001 		bl CONF_GetEuRGB60
 2528 0b5c 7C630034 		cntlzw 3,3
 2529 0b60 5463D97E 		srwi 3,3,5
 2530 0b64 987F0A10 		stb 3,2576(31)
 2531              		.loc 1 138 0 discriminator 1
 2532 0b68 3C600000 		lis 3,.LANCHOR0@ha
 2533 0b6c 38630000 		la 3,.LANCHOR0@l(3)
 2534 0b70 48000001 		bl _ZN16CFilesExtensions10SetDefaultEv
 2535              		.loc 1 139 0 discriminator 1
 2536 0b74 387F0A38 		addi 3,31,2616
 2537 0b78 48000001 		bl _ZN11AppControls10SetDefaultEv
 2538              		.loc 1 140 0 discriminator 1
 2539 0b7c 80010024 		lwz 0,36(1)
 2540 0b80 83410008 		lwz 26,8(1)
 2541 0b84 7C0803A6 		mtlr 0
 2542 0b88 8361000C 		lwz 27,12(1)
 2543              	.LVL254:
 2544 0b8c 83810010 		lwz 28,16(1)
 2545 0b90 83A10014 		lwz 29,20(1)
 2546 0b94 83C10018 		lwz 30,24(1)
 2547 0b98 83E1001C 		lwz 31,28(1)
 2548              	.LVL255:
 2549 0b9c 38210020 		addi 1,1,32
 2550              		.cfi_restore 26
 2551              		.cfi_restore 27
 2552              		.cfi_restore 28
 2553              		.cfi_restore 29
 2554              		.cfi_restore 30
 2555              		.cfi_restore 31
 2556              	.LCFI11:
 2557              		.cfi_def_cfa_offset 0
 2558 0ba0 4E800020 		blr
 2559              		.cfi_endproc
 2560              	.LFE1573:
 2561              		.size	_ZN9CSettings10SetDefaultEv, .-_ZN9CSettings10SetDefaultEv
 2562              		.align 2
 2563              		.globl _ZN9CSettingsC2Ev
 2564              		.type	_ZN9CSettingsC2Ev, @function
 2565              	_ZN9CSettingsC2Ev:
 2566              	.LFB1568:
 2567              		.loc 1 43 0
 2568              		.cfi_startproc
 2569              		.cfi_personality 0,__gxx_personality_v0
 2570              		.cfi_lsda 0,.LLSDA1568
 2571              	.LVL256:
 2572 0ba4 7C0802A6 		mflr 0
 2573 0ba8 9421FFE8 		stwu 1,-24(1)
 2574              	.LCFI12:
 2575              		.cfi_def_cfa_offset 24
 2576              		.cfi_register 65, 0
 2577              	.LBB2479:
 2578              	.LBB2480:
 2579              	.LBB2481:
 2580              	.LBB2482:
 2581              		.loc 2 270 0
 2582 0bac 3D200000 		lis 9,_ZNSs4_Rep20_S_empty_rep_storageE+12@ha
 2583              	.LBE2482:
 2584              	.LBE2481:
 2585              	.LBE2480:
 2586              	.LBE2479:
 2587              		.loc 1 43 0
 2588 0bb0 93C10010 		stw 30,16(1)
 2589              	.LBB2489:
 2590 0bb4 3BC30A14 		addi 30,3,2580
 2591              		.cfi_offset 30, -8
 2592              	.LBE2489:
 2593 0bb8 9001001C 		stw 0,28(1)
 2594              	.LBB2490:
 2595              	.LBB2487:
 2596              	.LBB2485:
 2597              	.LBB2483:
 2598              		.loc 2 270 0
 2599 0bbc 3809000C 		la 0,_ZNSs4_Rep20_S_empty_rep_storageE+12@l(9)
 2600              		.cfi_offset 65, 4
 2601              	.LBE2483:
 2602              	.LBE2485:
 2603              	.LBE2487:
 2604              	.LBE2490:
 2605              		.loc 1 43 0
 2606 0bc0 93E10014 		stw 31,20(1)
 2607 0bc4 7C7F1B78 		mr 31,3
 2608              		.cfi_offset 31, -4
 2609              	.LVL257:
 2610 0bc8 93810008 		stw 28,8(1)
 2611 0bcc 93A1000C 		stw 29,12(1)
 2612              	.LBB2491:
 2613              	.LBB2488:
 2614              	.LBB2486:
 2615              	.LBB2484:
 2616              		.loc 2 270 0
 2617 0bd0 90030000 		stw 0,0(3)
 2618              	.LBE2484:
 2619              	.LBE2486:
 2620              	.LBE2488:
 2621              		.loc 1 43 0
 2622 0bd4 7FC3F378 		mr 3,30
 2623              	.LVL258:
 2624              	.LEHB37:
 2625              		.cfi_offset 29, -12
 2626              		.cfi_offset 28, -16
 2627 0bd8 48000001 		bl _ZN16CFilesExtensionsC1Ev
 2628              	.LEHE37:
 2629              		.loc 1 43 0 is_stmt 0 discriminator 1
 2630 0bdc 3BBF0A38 		addi 29,31,2616
 2631 0be0 7FA3EB78 		mr 3,29
 2632              	.LEHB38:
 2633 0be4 48000001 		bl _ZN11AppControlsC1Ev
 2634              	.LEHE38:
 2635              	.LEHB39:
 2636              		.loc 1 45 0 is_stmt 1
 2637 0be8 48000001 		bl CONF_Init
 2638              		.loc 1 47 0
 2639 0bec 3C007364 		lis 0,0x7364
 2640              		.loc 1 48 0
 2641 0bf0 3CA00000 		lis 5,.LC31@ha
 2642              		.loc 1 47 0
 2643 0bf4 60003A00 		ori 0,0,14848
 2644              		.loc 1 48 0
 2645 0bf8 387F000E 		addi 3,31,14
 2646              		.loc 1 47 0
 2647 0bfc 901F0004 		stw 0,4(31)
 2648              		.loc 1 48 0
 2649 0c00 38800050 		li 4,80
 2650 0c04 38A50120 		la 5,.LC31@l(5)
 2651 0c08 38DF0004 		addi 6,31,4
 2652 0c0c 4CC63182 		crxor 6,6,6
 2653 0c10 48000001 		bl snprintf
 2654              		.loc 1 50 0
 2655 0c14 7FE3FB78 		mr 3,31
 2656 0c18 48000001 		bl _ZN9CSettings10SetDefaultEv
 2657              	.LEHE39:
 2658              	.LBE2491:
 2659              		.loc 1 51 0
 2660 0c1c 8001001C 		lwz 0,28(1)
 2661 0c20 83810008 		lwz 28,8(1)
 2662 0c24 7C0803A6 		mtlr 0
 2663 0c28 83A1000C 		lwz 29,12(1)
 2664 0c2c 83C10010 		lwz 30,16(1)
 2665 0c30 83E10014 		lwz 31,20(1)
 2666              	.LVL259:
 2667 0c34 38210018 		addi 1,1,24
 2668              		.cfi_remember_state
 2669              	.LCFI13:
 2670              		.cfi_def_cfa_offset 0
 2671              		.cfi_restore 31
 2672              		.cfi_restore 30
 2673              		.cfi_restore 29
 2674              		.cfi_restore 28
 2675 0c38 4E800020 		blr
 2676              	.LVL260:
 2677              	.L215:
 2678              	.LCFI14:
 2679              		.cfi_restore_state
 2680 0c3c 7C7E1B78 		mr 30,3
 2681              	.L214:
 2682              	.LBB2492:
 2683              		.loc 1 43 0
 2684 0c40 7FE3FB78 		mr 3,31
 2685 0c44 48000001 		bl _ZNSsD1Ev
 2686 0c48 7FC3F378 		mr 3,30
 2687              	.LEHB40:
 2688 0c4c 48000001 		bl _Unwind_Resume
 2689              	.LEHE40:
 2690              	.L217:
 2691 0c50 7C7C1B78 		mr 28,3
 2692 0c54 7FA3EB78 		mr 3,29
 2693 0c58 48000001 		bl _ZN11AppControlsD1Ev
 2694 0c5c 7F9DE378 		mr 29,28
 2695              	.L213:
 2696 0c60 7FC3F378 		mr 3,30
 2697 0c64 7FBEEB78 		mr 30,29
 2698 0c68 48000001 		bl _ZN16CFilesExtensionsD1Ev
 2699 0c6c 4BFFFFD4 		b .L214
 2700              	.L216:
 2701 0c70 7C7D1B78 		mr 29,3
 2702 0c74 4BFFFFEC 		b .L213
 2703              	.LBE2492:
 2704              		.cfi_endproc
 2705              	.LFE1568:
 2706              		.section	.gcc_except_table
 2707              	.LLSDA1568:
 2708 00e3 FF       		.byte	0xff
 2709 00e4 FF       		.byte	0xff
 2710 00e5 01       		.byte	0x1
 2711 00e6 14       		.uleb128 .LLSDACSE1568-.LLSDACSB1568
 2712              	.LLSDACSB1568:
 2713 00e7 34       		.uleb128 .LEHB37-.LFB1568
 2714 00e8 04       		.uleb128 .LEHE37-.LEHB37
 2715 00e9 9801     		.uleb128 .L215-.LFB1568
 2716 00eb 00       		.uleb128 0
 2717 00ec 40       		.uleb128 .LEHB38-.LFB1568
 2718 00ed 04       		.uleb128 .LEHE38-.LEHB38
 2719 00ee CC01     		.uleb128 .L216-.LFB1568
 2720 00f0 00       		.uleb128 0
 2721 00f1 44       		.uleb128 .LEHB39-.LFB1568
 2722 00f2 34       		.uleb128 .LEHE39-.LEHB39
 2723 00f3 AC01     		.uleb128 .L217-.LFB1568
 2724 00f5 00       		.uleb128 0
 2725 00f6 A801     		.uleb128 .LEHB40-.LFB1568
 2726 00f8 04       		.uleb128 .LEHE40-.LEHB40
 2727 00f9 00       		.uleb128 0
 2728 00fa 00       		.uleb128 0
 2729              	.LLSDACSE1568:
 2730              		.section	".text"
 2731              		.size	_ZN9CSettingsC2Ev, .-_ZN9CSettingsC2Ev
 2732              		.align 2
 2733              		.type	_Z41__static_initialization_and_destruction_0ii.constprop.74, @function
 2734              	_Z41__static_initialization_and_destruction_0ii.constprop.74:
 2735              	.LFB1964:
 2736              		.loc 1 766 0
 2737              		.cfi_startproc
 2738              	.LVL261:
 2739 0c78 2F830001 		cmpwi 7,3,1
 2740 0c7c 7C0802A6 		mflr 0
 2741 0c80 9421FFF0 		stwu 1,-16(1)
 2742              	.LCFI15:
 2743              		.cfi_def_cfa_offset 16
 2744              		.cfi_register 65, 0
 2745 0c84 90010014 		stw 0,20(1)
 2746 0c88 93E1000C 		stw 31,12(1)
 2747              		.loc 1 766 0
 2748 0c8c 419E0034 		beq- 7,.L222
 2749              		.cfi_offset 31, -4
 2750              		.cfi_offset 65, 4
 2751              		.loc 1 41 0
 2752 0c90 2F830000 		cmpwi 7,3,0
 2753 0c94 409E0044 		bne- 7,.L219
 2754              	.LBB2495:
 2755              	.LBB2496:
 2756 0c98 3FE00000 		lis 31,.LANCHOR0@ha
 2757 0c9c 3BFF0000 		la 31,.LANCHOR0@l(31)
 2758 0ca0 7FE3FB78 		mr 3,31
 2759              	.LVL262:
 2760 0ca4 48000001 		bl _ZN16CFilesExtensionsD1Ev
 2761              	.LBE2496:
 2762              	.LBE2495:
 2763              		.loc 1 766 0
 2764 0ca8 80010014 		lwz 0,20(1)
 2765              	.LBB2499:
 2766              	.LBB2497:
 2767              		.loc 1 40 0
 2768 0cac 387F0024 		addi 3,31,36
 2769              	.LBE2497:
 2770              	.LBE2499:
 2771              		.loc 1 766 0
 2772 0cb0 83E1000C 		lwz 31,12(1)
 2773 0cb4 7C0803A6 		mtlr 0
 2774 0cb8 38210010 		addi 1,1,16
 2775              		.cfi_remember_state
 2776              	.LCFI16:
 2777              		.cfi_def_cfa_offset 0
 2778              		.cfi_restore 31
 2779              	.LBB2500:
 2780              	.LBB2498:
 2781              		.loc 1 40 0
 2782 0cbc 48000000 		b _ZN9CSettingsD1Ev
 2783              	.LVL263:
 2784              	.L222:
 2785              	.LCFI17:
 2786              		.cfi_restore_state
 2787              	.LBE2498:
 2788              	.LBE2500:
 2789 0cc0 3FE00000 		lis 31,.LANCHOR0@ha
 2790 0cc4 3BFF0000 		la 31,.LANCHOR0@l(31)
 2791 0cc8 387F0024 		addi 3,31,36
 2792              	.LVL264:
 2793 0ccc 48000001 		bl _ZN9CSettingsC1Ev
 2794              		.loc 1 41 0
 2795 0cd0 7FE3FB78 		mr 3,31
 2796 0cd4 48000001 		bl _ZN16CFilesExtensionsC1Ev
 2797              	.L219:
 2798              		.loc 1 766 0
 2799 0cd8 80010014 		lwz 0,20(1)
 2800 0cdc 83E1000C 		lwz 31,12(1)
 2801 0ce0 7C0803A6 		mtlr 0
 2802 0ce4 38210010 		addi 1,1,16
 2803              	.LCFI18:
 2804              		.cfi_def_cfa_offset 0
 2805              		.cfi_restore 31
 2806 0ce8 4E800020 		blr
 2807              		.cfi_endproc
 2808              	.LFE1964:
 2809              		.size	_Z41__static_initialization_and_destruction_0ii.constprop.74, .-_Z41__static_initialization_
 2810              		.align 2
 2811              		.globl _ZN9CSettings12ValidVersionEP7__sFILE
 2812              		.type	_ZN9CSettings12ValidVersionEP7__sFILE, @function
 2813              	_ZN9CSettings12ValidVersionEP7__sFILE:
 2814              	.LFB1575:
 2815              		.loc 1 178 0
 2816              		.cfi_startproc
 2817              	.LVL265:
 2818 0cec 9421FEF0 		stwu 1,-272(1)
 2819              	.LCFI19:
 2820              		.cfi_def_cfa_offset 272
 2821 0cf0 7C0802A6 		mflr 0
 2822 0cf4 93E1010C 		stw 31,268(1)
 2823              	.LBB2503:
 2824              		.loc 1 179 0
 2825 0cf8 7C9F2379 		mr. 31,4
 2826              		.cfi_offset 31, -4
 2827              		.cfi_register 65, 0
 2828              	.LBE2503:
 2829              		.loc 1 178 0
 2830 0cfc 93C10108 		stw 30,264(1)
 2831              	.LBB2507:
 2832              		.loc 1 179 0
 2833 0d00 3BC00000 		li 30,0
 2834              		.cfi_offset 30, -8
 2835              	.LBE2507:
 2836              		.loc 1 178 0
 2837 0d04 90010114 		stw 0,276(1)
 2838              	.LBB2508:
 2839              		.loc 1 179 0
 2840 0d08 41820050 		beq- 0,.L224
 2841              		.cfi_offset 65, 4
 2842              	.LVL266:
 2843              	.L225:
 2844              		.loc 1 184 0 discriminator 1
 2845 0d0c 388000FF 		li 4,255
 2846 0d10 7FE5FB78 		mr 5,31
 2847 0d14 38610008 		addi 3,1,8
 2848 0d18 48000001 		bl fgets
 2849              	.LBB2504:
 2850              		.loc 1 186 0 discriminator 1
 2851 0d1c 3C800000 		lis 4,.LC38@ha
 2852              	.LBE2504:
 2853              		.loc 1 184 0 discriminator 1
 2854 0d20 2F830000 		cmpwi 7,3,0
 2855              	.LBB2505:
 2856              		.loc 1 186 0 discriminator 1
 2857 0d24 38840188 		la 4,.LC38@l(4)
 2858 0d28 38610008 		addi 3,1,8
 2859              	.LBE2505:
 2860              		.loc 1 184 0 discriminator 1
 2861 0d2c 419E0048 		beq- 7,.L230
 2862              	.LBB2506:
 2863              		.loc 1 186 0
 2864 0d30 48000001 		bl strcasestr
 2865              	.LVL267:
 2866              		.loc 1 187 0
 2867 0d34 2C030000 		cmpwi 0,3,0
 2868 0d38 4182FFD4 		beq+ 0,.L225
 2869              	.LVL268:
 2870              		.loc 1 190 0
 2871 0d3c 38630015 		addi 3,3,21
 2872              	.LVL269:
 2873 0d40 48000001 		bl atoi
 2874              	.LVL270:
 2875 0d44 2F83007E 		cmpwi 7,3,126
 2876 0d48 7FC00026 		mfcr 30
 2877 0d4c 57DEF7FE 		rlwinm 30,30,30,1
 2878              	.LVL271:
 2879              	.L226:
 2880              	.LBE2506:
 2881              		.loc 1 195 0
 2882 0d50 7FE3FB78 		mr 3,31
 2883 0d54 48000001 		bl rewind
 2884              	.L224:
 2885              	.LBE2508:
 2886              		.loc 1 198 0
 2887 0d58 80010114 		lwz 0,276(1)
 2888 0d5c 7FC3F378 		mr 3,30
 2889 0d60 83E1010C 		lwz 31,268(1)
 2890              	.LVL272:
 2891 0d64 7C0803A6 		mtlr 0
 2892 0d68 83C10108 		lwz 30,264(1)
 2893 0d6c 38210110 		addi 1,1,272
 2894              		.cfi_remember_state
 2895              	.LCFI20:
 2896              		.cfi_def_cfa_offset 0
 2897              		.cfi_restore 31
 2898              		.cfi_restore 30
 2899 0d70 4E800020 		blr
 2900              	.LVL273:
 2901              	.L230:
 2902              	.LCFI21:
 2903              		.cfi_restore_state
 2904              	.LBB2509:
 2905              		.loc 1 184 0
 2906 0d74 3BC00000 		li 30,0
 2907 0d78 4BFFFFD8 		b .L226
 2908              	.LBE2509:
 2909              		.cfi_endproc
 2910              	.LFE1575:
 2911              		.size	_ZN9CSettings12ValidVersionEP7__sFILE, .-_ZN9CSettings12ValidVersionEP7__sFILE
 2912              		.align 2
 2913              		.globl _ZN9CSettings10SetSettingEPcS0_
 2914              		.type	_ZN9CSettings10SetSettingEPcS0_, @function
 2915              	_ZN9CSettings10SetSettingEPcS0_:
 2916              	.LFB1578:
 2917              		.loc 1 298 0
 2918              		.cfi_startproc
 2919              	.LVL274:
 2920 0d7c 9421FFA8 		stwu 1,-88(1)
 2921              	.LCFI22:
 2922              		.cfi_def_cfa_offset 88
 2923 0d80 7C0802A6 		mflr 0
 2924 0d84 93C10050 		stw 30,80(1)
 2925 0d88 7C7E1B78 		mr 30,3
 2926              		.cfi_offset 30, -8
 2927              		.cfi_register 65, 0
 2928 0d8c 93E10054 		stw 31,84(1)
 2929              	.LBB2510:
 2930              		.loc 1 301 0
 2931 0d90 7C832378 		mr 3,4
 2932              	.LVL275:
 2933              	.LBE2510:
 2934              		.loc 1 298 0
 2935 0d94 7C9F2378 		mr 31,4
 2936              		.cfi_offset 31, -4
 2937              	.LBB2539:
 2938              		.loc 1 301 0
 2939 0d98 3C800000 		lis 4,.LC39@ha
 2940              	.LVL276:
 2941              	.LBE2539:
 2942              		.loc 1 298 0
 2943 0d9c 9001005C 		stw 0,92(1)
 2944              	.LBB2540:
 2945              		.loc 1 301 0
 2946 0da0 388401A0 		la 4,.LC39@l(4)
 2947              		.loc 1 299 0
 2948 0da4 38000000 		li 0,0
 2949              		.cfi_offset 65, 4
 2950              	.LBE2540:
 2951              		.loc 1 298 0
 2952 0da8 93810048 		stw 28,72(1)
 2953 0dac 93A1004C 		stw 29,76(1)
 2954              		.loc 1 298 0
 2955 0db0 7CBC2B78 		mr 28,5
 2956              		.cfi_offset 29, -12
 2957              		.cfi_offset 28, -16
 2958              	.LBB2541:
 2959              		.loc 1 299 0
 2960 0db4 90010008 		stw 0,8(1)
 2961              	.LVL277:
 2962              		.loc 1 301 0
 2963 0db8 48000001 		bl strcmp
 2964              	.LVL278:
 2965 0dbc 2F830000 		cmpwi 7,3,0
 2966 0dc0 419E040C 		beq- 7,.L302
 2967              		.loc 1 306 0
 2968 0dc4 3C800000 		lis 4,.LC41@ha
 2969 0dc8 7FE3FB78 		mr 3,31
 2970 0dcc 388401B0 		la 4,.LC41@l(4)
 2971 0dd0 48000001 		bl strcmp
 2972 0dd4 2F830000 		cmpwi 7,3,0
 2973 0dd8 419E049C 		beq- 7,.L303
 2974              		.loc 1 311 0
 2975 0ddc 3C800000 		lis 4,.LC42@ha
 2976 0de0 7FE3FB78 		mr 3,31
 2977 0de4 388401C0 		la 4,.LC42@l(4)
 2978 0de8 48000001 		bl strcmp
 2979 0dec 2F830000 		cmpwi 7,3,0
 2980 0df0 419E0424 		beq- 7,.L304
 2981              		.loc 1 316 0
 2982 0df4 3C800000 		lis 4,.LC43@ha
 2983 0df8 7FE3FB78 		mr 3,31
 2984 0dfc 388401D4 		la 4,.LC43@l(4)
 2985 0e00 48000001 		bl strcmp
 2986 0e04 2F830000 		cmpwi 7,3,0
 2987 0e08 419E04A4 		beq- 7,.L305
 2988              		.loc 1 321 0
 2989 0e0c 3C800000 		lis 4,.LC44@ha
 2990 0e10 7FE3FB78 		mr 3,31
 2991 0e14 388401E4 		la 4,.LC44@l(4)
 2992 0e18 48000001 		bl strcmp
 2993 0e1c 2F830000 		cmpwi 7,3,0
 2994 0e20 419E04BC 		beq- 7,.L306
 2995              		.loc 1 326 0
 2996 0e24 3C800000 		lis 4,.LC45@ha
 2997 0e28 7FE3FB78 		mr 3,31
 2998 0e2c 388401F4 		la 4,.LC45@l(4)
 2999 0e30 48000001 		bl strcmp
 3000 0e34 2F830000 		cmpwi 7,3,0
 3001 0e38 419E040C 		beq- 7,.L307
 3002              		.loc 1 331 0
 3003 0e3c 3C800000 		lis 4,.LC46@ha
 3004 0e40 7FE3FB78 		mr 3,31
 3005 0e44 388401FC 		la 4,.LC46@l(4)
 3006 0e48 48000001 		bl strcmp
 3007 0e4c 2F830000 		cmpwi 7,3,0
 3008 0e50 419E04DC 		beq- 7,.L308
 3009              		.loc 1 336 0
 3010 0e54 3C800000 		lis 4,.LC47@ha
 3011 0e58 7FE3FB78 		mr 3,31
 3012 0e5c 3884020C 		la 4,.LC47@l(4)
 3013 0e60 48000001 		bl strcmp
 3014 0e64 2F830000 		cmpwi 7,3,0
 3015 0e68 419E0508 		beq- 7,.L309
 3016              		.loc 1 341 0
 3017 0e6c 3C800000 		lis 4,.LC48@ha
 3018 0e70 7FE3FB78 		mr 3,31
 3019 0e74 3884021C 		la 4,.LC48@l(4)
 3020 0e78 48000001 		bl strcmp
 3021 0e7c 2F830000 		cmpwi 7,3,0
 3022 0e80 419E04C0 		beq- 7,.L310
 3023              		.loc 1 346 0
 3024 0e84 3C800000 		lis 4,.LC49@ha
 3025 0e88 7FE3FB78 		mr 3,31
 3026 0e8c 38840230 		la 4,.LC49@l(4)
 3027 0e90 48000001 		bl strcmp
 3028 0e94 2F830000 		cmpwi 7,3,0
 3029 0e98 419E04EC 		beq- 7,.L311
 3030              		.loc 1 351 0
 3031 0e9c 3C800000 		lis 4,.LC50@ha
 3032 0ea0 7FE3FB78 		mr 3,31
 3033 0ea4 38840240 		la 4,.LC50@l(4)
 3034 0ea8 48000001 		bl strcmp
 3035 0eac 2F830000 		cmpwi 7,3,0
 3036 0eb0 419E0468 		beq- 7,.L312
 3037              		.loc 1 356 0
 3038 0eb4 3C800000 		lis 4,.LC51@ha
 3039 0eb8 7FE3FB78 		mr 3,31
 3040 0ebc 38840254 		la 4,.LC51@l(4)
 3041 0ec0 48000001 		bl strcmp
 3042 0ec4 2F830000 		cmpwi 7,3,0
 3043 0ec8 419E0500 		beq- 7,.L313
 3044              		.loc 1 361 0
 3045 0ecc 3C800000 		lis 4,.LC52@ha
 3046 0ed0 7FE3FB78 		mr 3,31
 3047 0ed4 38840260 		la 4,.LC52@l(4)
 3048 0ed8 48000001 		bl strcmp
 3049 0edc 2F830000 		cmpwi 7,3,0
 3050 0ee0 419E04B8 		beq- 7,.L314
 3051              		.loc 1 366 0
 3052 0ee4 3C800000 		lis 4,.LC53@ha
 3053 0ee8 7FE3FB78 		mr 3,31
 3054 0eec 38840268 		la 4,.LC53@l(4)
 3055 0ef0 48000001 		bl strcmp
 3056 0ef4 2F830000 		cmpwi 7,3,0
 3057 0ef8 419E04E4 		beq- 7,.L315
 3058              		.loc 1 371 0
 3059 0efc 3C800000 		lis 4,.LC54@ha
 3060 0f00 7FE3FB78 		mr 3,31
 3061 0f04 38840270 		la 4,.LC54@l(4)
 3062 0f08 48000001 		bl strcmp
 3063 0f0c 2F830000 		cmpwi 7,3,0
 3064 0f10 419E052C 		beq- 7,.L316
 3065              		.loc 1 376 0
 3066 0f14 3C800000 		lis 4,.LC55@ha
 3067 0f18 7FE3FB78 		mr 3,31
 3068 0f1c 3884027C 		la 4,.LC55@l(4)
 3069 0f20 48000001 		bl strcmp
 3070 0f24 2F830000 		cmpwi 7,3,0
 3071 0f28 419E04E4 		beq- 7,.L317
 3072              		.loc 1 381 0
 3073 0f2c 3C800000 		lis 4,.LC56@ha
 3074 0f30 7FE3FB78 		mr 3,31
 3075 0f34 38840288 		la 4,.LC56@l(4)
 3076 0f38 48000001 		bl strcmp
 3077 0f3c 2F830000 		cmpwi 7,3,0
 3078 0f40 419E0510 		beq- 7,.L318
 3079              		.loc 1 386 0
 3080 0f44 3C800000 		lis 4,.LC57@ha
 3081 0f48 7FE3FB78 		mr 3,31
 3082 0f4c 38840294 		la 4,.LC57@l(4)
 3083 0f50 48000001 		bl strcmp
 3084 0f54 2F830000 		cmpwi 7,3,0
 3085 0f58 419E0558 		beq- 7,.L319
 3086              		.loc 1 391 0
 3087 0f5c 3C800000 		lis 4,.LC58@ha
 3088 0f60 7FE3FB78 		mr 3,31
 3089 0f64 388402A4 		la 4,.LC58@l(4)
 3090 0f68 48000001 		bl strcmp
 3091 0f6c 2F830000 		cmpwi 7,3,0
 3092 0f70 419E0510 		beq- 7,.L320
 3093              		.loc 1 396 0
 3094 0f74 3C800000 		lis 4,.LC59@ha
 3095 0f78 7FE3FB78 		mr 3,31
 3096 0f7c 388402B0 		la 4,.LC59@l(4)
 3097 0f80 48000001 		bl strcmp
 3098 0f84 2F830000 		cmpwi 7,3,0
 3099 0f88 419E053C 		beq- 7,.L321
 3100              		.loc 1 401 0
 3101 0f8c 3C800000 		lis 4,.LC60@ha
 3102 0f90 7FE3FB78 		mr 3,31
 3103 0f94 388402BC 		la 4,.LC60@l(4)
 3104 0f98 48000001 		bl strcmp
 3105 0f9c 2F830000 		cmpwi 7,3,0
 3106 0fa0 419E0554 		beq- 7,.L322
 3107              		.loc 1 406 0
 3108 0fa4 3C800000 		lis 4,.LC61@ha
 3109 0fa8 7FE3FB78 		mr 3,31
 3110 0fac 388402CC 		la 4,.LC61@l(4)
 3111 0fb0 48000001 		bl strcmp
 3112 0fb4 2F830000 		cmpwi 7,3,0
 3113 0fb8 419E056C 		beq- 7,.L323
 3114              		.loc 1 411 0
 3115 0fbc 3C800000 		lis 4,.LC62@ha
 3116 0fc0 7FE3FB78 		mr 3,31
 3117 0fc4 388402DC 		la 4,.LC62@l(4)
 3118 0fc8 48000001 		bl strcmp
 3119 0fcc 2F830000 		cmpwi 7,3,0
 3120 0fd0 419E0584 		beq- 7,.L324
 3121              		.loc 1 416 0
 3122 0fd4 3C800000 		lis 4,.LC63@ha
 3123 0fd8 7FE3FB78 		mr 3,31
 3124 0fdc 388402E4 		la 4,.LC63@l(4)
 3125 0fe0 48000001 		bl strcmp
 3126 0fe4 2F830000 		cmpwi 7,3,0
 3127 0fe8 419E05C4 		beq- 7,.L325
 3128              		.loc 1 421 0
 3129 0fec 3C800000 		lis 4,.LC64@ha
 3130 0ff0 7FE3FB78 		mr 3,31
 3131 0ff4 388402F0 		la 4,.LC64@l(4)
 3132 0ff8 48000001 		bl strcmp
 3133 0ffc 2F830000 		cmpwi 7,3,0
 3134 1000 419E0598 		beq- 7,.L326
 3135              	.LBB2511:
 3136              		.loc 1 426 0
 3137 1004 3C800000 		lis 4,.LC65@ha
 3138 1008 7FE3FB78 		mr 3,31
 3139 100c 38840300 		la 4,.LC65@l(4)
 3140 1010 48000001 		bl strcmp
 3141 1014 2F830000 		cmpwi 7,3,0
 3142 1018 419E0550 		beq- 7,.L327
 3143              	.LBB2512:
 3144              		.loc 1 431 0
 3145 101c 3C800000 		lis 4,.LC66@ha
 3146 1020 7FE3FB78 		mr 3,31
 3147 1024 3884030C 		la 4,.LC66@l(4)
 3148 1028 48000001 		bl strcmp
 3149 102c 2F830000 		cmpwi 7,3,0
 3150 1030 419E0590 		beq- 7,.L328
 3151              	.LBB2513:
 3152              		.loc 1 436 0
 3153 1034 3C800000 		lis 4,.LC67@ha
 3154 1038 7FE3FB78 		mr 3,31
 3155 103c 38840318 		la 4,.LC67@l(4)
 3156 1040 48000001 		bl strcmp
 3157 1044 2F830000 		cmpwi 7,3,0
 3158 1048 419E05BC 		beq- 7,.L329
 3159              	.LBB2514:
 3160              		.loc 1 441 0
 3161 104c 3C800000 		lis 4,.LC68@ha
 3162 1050 7FE3FB78 		mr 3,31
 3163 1054 38840320 		la 4,.LC68@l(4)
 3164 1058 48000001 		bl strcmp
 3165 105c 2F830000 		cmpwi 7,3,0
 3166 1060 419E0574 		beq- 7,.L330
 3167              	.LBB2515:
 3168              		.loc 1 446 0
 3169 1064 3C800000 		lis 4,.LC69@ha
 3170 1068 7FE3FB78 		mr 3,31
 3171 106c 3884032C 		la 4,.LC69@l(4)
 3172 1070 48000001 		bl strcmp
 3173 1074 2F830000 		cmpwi 7,3,0
 3174 1078 419E06F4 		beq- 7,.L331
 3175              	.LBB2516:
 3176              		.loc 1 451 0
 3177 107c 3C800000 		lis 4,.LC70@ha
 3178 1080 7FE3FB78 		mr 3,31
 3179 1084 3884033C 		la 4,.LC70@l(4)
 3180 1088 48000001 		bl strcmp
 3181 108c 2F830000 		cmpwi 7,3,0
 3182 1090 419E06C4 		beq- 7,.L332
 3183              	.LBB2517:
 3184              		.loc 1 456 0
 3185 1094 3C800000 		lis 4,.LC71@ha
 3186 1098 7FE3FB78 		mr 3,31
 3187 109c 3884034C 		la 4,.LC71@l(4)
 3188 10a0 48000001 		bl strcmp
 3189 10a4 2F830000 		cmpwi 7,3,0
 3190 10a8 419E0778 		beq- 7,.L333
 3191              	.LBB2518:
 3192              		.loc 1 461 0
 3193 10ac 3C800000 		lis 4,.LC72@ha
 3194 10b0 7FE3FB78 		mr 3,31
 3195 10b4 38840364 		la 4,.LC72@l(4)
 3196 10b8 48000001 		bl strcmp
 3197 10bc 2F830000 		cmpwi 7,3,0
 3198 10c0 419E0730 		beq- 7,.L334
 3199              	.LBB2519:
 3200              		.loc 1 466 0
 3201 10c4 3C800000 		lis 4,.LC73@ha
 3202 10c8 7FE3FB78 		mr 3,31
 3203 10cc 3884036C 		la 4,.LC73@l(4)
 3204 10d0 48000001 		bl strcmp
 3205 10d4 2F830000 		cmpwi 7,3,0
 3206 10d8 419E0704 		beq- 7,.L335
 3207              	.LBB2520:
 3208              		.loc 1 471 0
 3209 10dc 3C800000 		lis 4,.LC74@ha
 3210 10e0 7FE3FB78 		mr 3,31
 3211 10e4 3884037C 		la 4,.LC74@l(4)
 3212 10e8 48000001 		bl strcmp
 3213 10ec 2F830000 		cmpwi 7,3,0
 3214 10f0 419E0690 		beq- 7,.L336
 3215              		.loc 1 481 0
 3216 10f4 3C800000 		lis 4,.LC76@ha
 3217 10f8 7FE3FB78 		mr 3,31
 3218 10fc 38840390 		la 4,.LC76@l(4)
 3219 1100 48000001 		bl strcmp
 3220 1104 2F830000 		cmpwi 7,3,0
 3221 1108 419E05D0 		beq- 7,.L337
 3222              		.loc 1 486 0
 3223 110c 3C800000 		lis 4,.LC77@ha
 3224 1110 7FE3FB78 		mr 3,31
 3225 1114 388403A0 		la 4,.LC77@l(4)
 3226 1118 48000001 		bl strcmp
 3227 111c 2F830000 		cmpwi 7,3,0
 3228 1120 419E05A4 		beq- 7,.L338
 3229              		.loc 1 491 0
 3230 1124 3C800000 		lis 4,.LC78@ha
 3231 1128 7FE3FB78 		mr 3,31
 3232 112c 388403AC 		la 4,.LC78@l(4)
 3233 1130 48000001 		bl strcmp
 3234 1134 2F830000 		cmpwi 7,3,0
 3235 1138 419E055C 		beq- 7,.L339
 3236              		.loc 1 496 0
 3237 113c 3C800000 		lis 4,.LC79@ha
 3238 1140 7FE3FB78 		mr 3,31
 3239 1144 388403B8 		la 4,.LC79@l(4)
 3240 1148 48000001 		bl strcmp
 3241 114c 2F830000 		cmpwi 7,3,0
 3242 1150 419E0514 		beq- 7,.L340
 3243              		.loc 1 501 0
 3244 1154 3C800000 		lis 4,.LC80@ha
 3245 1158 7FE3FB78 		mr 3,31
 3246 115c 388403C4 		la 4,.LC80@l(4)
 3247 1160 48000001 		bl strcmp
 3248 1164 2F830000 		cmpwi 7,3,0
 3249 1168 419E05BC 		beq- 7,.L341
 3250              		.loc 1 506 0
 3251 116c 3C800000 		lis 4,.LC81@ha
 3252 1170 7FE3FB78 		mr 3,31
 3253 1174 388403D4 		la 4,.LC81@l(4)
 3254 1178 48000001 		bl strcmp
 3255 117c 2F830000 		cmpwi 7,3,0
 3256 1180 419E0574 		beq- 7,.L342
 3257              		.loc 1 511 0
 3258 1184 3C800000 		lis 4,.LC82@ha
 3259 1188 7FE3FB78 		mr 3,31
 3260 118c 388403E4 		la 4,.LC82@l(4)
 3261 1190 48000001 		bl strcmp
 3262 1194 2F830000 		cmpwi 7,3,0
 3263 1198 419E049C 		beq- 7,.L343
 3264              		.loc 1 516 0
 3265 119c 3C800000 		lis 4,.LC83@ha
 3266 11a0 7FE3FB78 		mr 3,31
 3267 11a4 388403EC 		la 4,.LC83@l(4)
 3268              		.loc 1 582 0
 3269 11a8 3BA00000 		li 29,0
 3270              		.loc 1 516 0
 3271 11ac 48000001 		bl strcmp
 3272 11b0 2F830000 		cmpwi 7,3,0
 3273 11b4 40BE003C 		bne+ 7,.L233
 3274              		.loc 1 518 0
 3275 11b8 387E0814 		addi 3,30,2068
 3276 11bc 7F84E378 		mr 4,28
 3277 11c0 48000001 		bl strcpy
 3278              		.loc 1 519 0
 3279 11c4 3BA00001 		li 29,1
 3280 11c8 48000028 		b .L233
 3281              	.L302:
 3282              	.LBE2520:
 3283              	.LBE2519:
 3284              	.LBE2518:
 3285              	.LBE2517:
 3286              	.LBE2516:
 3287              	.LBE2515:
 3288              	.LBE2514:
 3289              	.LBE2513:
 3290              	.LBE2512:
 3291              	.LBE2511:
 3292              		.loc 1 303 0
 3293 11cc 3C800000 		lis 4,.LC40@ha
 3294 11d0 7F83E378 		mr 3,28
 3295 11d4 388401AC 		la 4,.LC40@l(4)
 3296 11d8 38A10008 		addi 5,1,8
 3297 11dc 4CC63182 		crxor 6,6,6
 3298 11e0 48000001 		bl sscanf
 3299              		.loc 1 304 0
 3300 11e4 3BA00001 		li 29,1
 3301              		.loc 1 303 0
 3302 11e8 2F830001 		cmpwi 7,3,1
 3303 11ec 419E0120 		beq- 7,.L344
 3304              	.LVL279:
 3305              	.L233:
 3306              	.LBE2541:
 3307              		.loc 1 583 0
 3308 11f0 8001005C 		lwz 0,92(1)
 3309 11f4 7FA3EB78 		mr 3,29
 3310 11f8 83810048 		lwz 28,72(1)
 3311 11fc 7C0803A6 		mtlr 0
 3312 1200 83A1004C 		lwz 29,76(1)
 3313 1204 83C10050 		lwz 30,80(1)
 3314              	.LVL280:
 3315 1208 83E10054 		lwz 31,84(1)
 3316 120c 38210058 		addi 1,1,88
 3317              		.cfi_remember_state
 3318              	.LCFI23:
 3319              		.cfi_def_cfa_offset 0
 3320              		.cfi_restore 31
 3321              		.cfi_restore 30
 3322              		.cfi_restore 29
 3323              		.cfi_restore 28
 3324 1210 4E800020 		blr
 3325              	.LVL281:
 3326              	.L304:
 3327              	.LCFI24:
 3328              		.cfi_restore_state
 3329              	.LBB2542:
 3330              		.loc 1 313 0
 3331 1214 3C800000 		lis 4,.LC40@ha
 3332 1218 7F83E378 		mr 3,28
 3333 121c 388401AC 		la 4,.LC40@l(4)
 3334 1220 38A10008 		addi 5,1,8
 3335 1224 4CC63182 		crxor 6,6,6
 3336 1228 48000001 		bl sscanf
 3337              		.loc 1 314 0
 3338 122c 3BA00001 		li 29,1
 3339              		.loc 1 313 0
 3340 1230 2F830001 		cmpwi 7,3,1
 3341 1234 409EFFBC 		bne+ 7,.L233
 3342              		.loc 1 313 0 is_stmt 0 discriminator 1
 3343 1238 80010008 		lwz 0,8(1)
 3344 123c B01E007E 		sth 0,126(30)
 3345 1240 4BFFFFB0 		b .L233
 3346              	.L307:
 3347              		.loc 1 328 0 is_stmt 1
 3348 1244 3C800000 		lis 4,.LC40@ha
 3349 1248 7F83E378 		mr 3,28
 3350 124c 388401AC 		la 4,.LC40@l(4)
 3351 1250 38A10008 		addi 5,1,8
 3352 1254 4CC63182 		crxor 6,6,6
 3353 1258 48000001 		bl sscanf
 3354              		.loc 1 329 0
 3355 125c 3BA00001 		li 29,1
 3356              		.loc 1 328 0
 3357 1260 2F830001 		cmpwi 7,3,1
 3358 1264 409EFF8C 		bne+ 7,.L233
 3359              		.loc 1 328 0 is_stmt 0 discriminator 1
 3360 1268 80010008 		lwz 0,8(1)
 3361 126c B01E0088 		sth 0,136(30)
 3362 1270 4BFFFF80 		b .L233
 3363              	.L303:
 3364              		.loc 1 308 0 is_stmt 1
 3365 1274 7F83E378 		mr 3,28
 3366              		.loc 1 309 0
 3367 1278 3BA00001 		li 29,1
 3368              		.loc 1 308 0
 3369 127c 48000001 		bl atof
 3370              	.LBE2542:
 3371              		.loc 1 583 0
 3372 1280 8001005C 		lwz 0,92(1)
 3373              	.LBB2543:
 3374              		.loc 1 308 0
 3375 1284 FC200818 		frsp 1,1
 3376              	.LBE2543:
 3377              		.loc 1 583 0
 3378 1288 7FA3EB78 		mr 3,29
 3379 128c 7C0803A6 		mtlr 0
 3380 1290 83810048 		lwz 28,72(1)
 3381              	.LVL282:
 3382 1294 83A1004C 		lwz 29,76(1)
 3383              	.LBB2544:
 3384              		.loc 1 308 0
 3385 1298 D03E0078 		stfs 1,120(30)
 3386              	.LBE2544:
 3387              		.loc 1 583 0
 3388 129c 83E10054 		lwz 31,84(1)
 3389              	.LVL283:
 3390 12a0 83C10050 		lwz 30,80(1)
 3391              	.LVL284:
 3392 12a4 38210058 		addi 1,1,88
 3393              		.cfi_remember_state
 3394              		.cfi_restore 28
 3395              		.cfi_restore 29
 3396              		.cfi_restore 30
 3397              		.cfi_restore 31
 3398              	.LCFI25:
 3399              		.cfi_def_cfa_offset 0
 3400 12a8 4E800020 		blr
 3401              	.LVL285:
 3402              	.L305:
 3403              	.LCFI26:
 3404              		.cfi_restore_state
 3405              	.LBB2545:
 3406              		.loc 1 318 0
 3407 12ac 3C800000 		lis 4,.LC40@ha
 3408 12b0 7F83E378 		mr 3,28
 3409 12b4 388401AC 		la 4,.LC40@l(4)
 3410 12b8 38A10008 		addi 5,1,8
 3411 12bc 4CC63182 		crxor 6,6,6
 3412 12c0 48000001 		bl sscanf
 3413              		.loc 1 319 0
 3414 12c4 3BA00001 		li 29,1
 3415              		.loc 1 318 0
 3416 12c8 2F830001 		cmpwi 7,3,1
 3417 12cc 409EFF24 		bne+ 7,.L233
 3418              		.loc 1 318 0 is_stmt 0 discriminator 1
 3419 12d0 80010008 		lwz 0,8(1)
 3420 12d4 B01E0080 		sth 0,128(30)
 3421 12d8 4BFFFF18 		b .L233
 3422              	.L306:
 3423              		.loc 1 323 0 is_stmt 1
 3424 12dc 3C800000 		lis 4,.LC40@ha
 3425 12e0 7F83E378 		mr 3,28
 3426 12e4 388401AC 		la 4,.LC40@l(4)
 3427 12e8 38A10008 		addi 5,1,8
 3428 12ec 4CC63182 		crxor 6,6,6
 3429 12f0 48000001 		bl sscanf
 3430              		.loc 1 324 0
 3431 12f4 3BA00001 		li 29,1
 3432              		.loc 1 323 0
 3433 12f8 2F830001 		cmpwi 7,3,1
 3434 12fc 409EFEF4 		bne+ 7,.L233
 3435              		.loc 1 323 0 is_stmt 0 discriminator 1
 3436 1300 80010008 		lwz 0,8(1)
 3437 1304 901E0084 		stw 0,132(30)
 3438 1308 4BFFFEE8 		b .L233
 3439              	.L344:
 3440              		.loc 1 303 0 is_stmt 1 discriminator 1
 3441 130c 80010008 		lwz 0,8(1)
 3442 1310 B01E007C 		sth 0,124(30)
 3443 1314 4BFFFEDC 		b .L233
 3444              	.L312:
 3445              		.loc 1 353 0
 3446 1318 387E0508 		addi 3,30,1288
 3447 131c 7F84E378 		mr 4,28
 3448 1320 48000001 		bl strcpy
 3449              		.loc 1 354 0
 3450 1324 3BA00001 		li 29,1
 3451 1328 4BFFFEC8 		b .L233
 3452              	.L308:
 3453              		.loc 1 333 0
 3454 132c 387E0526 		addi 3,30,1318
 3455 1330 7F84E378 		mr 4,28
 3456 1334 48000001 		bl strcpy
 3457              		.loc 1 334 0
 3458 1338 3BA00001 		li 29,1
 3459 133c 4BFFFEB4 		b .L233
 3460              	.L310:
 3461              		.loc 1 343 0
 3462 1340 3C800000 		lis 4,.LC40@ha
 3463 1344 7F83E378 		mr 3,28
 3464 1348 388401AC 		la 4,.LC40@l(4)
 3465 134c 38A10008 		addi 5,1,8
 3466 1350 4CC63182 		crxor 6,6,6
 3467 1354 48000001 		bl sscanf
 3468              		.loc 1 344 0
 3469 1358 3BA00001 		li 29,1
 3470              		.loc 1 343 0
 3471 135c 2F830001 		cmpwi 7,3,1
 3472 1360 409EFE90 		bne+ 7,.L233
 3473              		.loc 1 343 0 is_stmt 0 discriminator 1
 3474 1364 80010008 		lwz 0,8(1)
 3475 1368 B01E0A08 		sth 0,2568(30)
 3476 136c 4BFFFE84 		b .L233
 3477              	.L309:
 3478              		.loc 1 338 0 is_stmt 1
 3479 1370 387E0620 		addi 3,30,1568
 3480 1374 7F84E378 		mr 4,28
 3481 1378 48000001 		bl strcpy
 3482              		.loc 1 339 0
 3483 137c 3BA00001 		li 29,1
 3484 1380 4BFFFE70 		b .L233
 3485              	.L311:
 3486              		.loc 1 348 0
 3487 1384 387E090E 		addi 3,30,2318
 3488 1388 7F84E378 		mr 4,28
 3489 138c 48000001 		bl strcpy
 3490              		.loc 1 349 0
 3491 1390 3BA00001 		li 29,1
 3492 1394 4BFFFE5C 		b .L233
 3493              	.L314:
 3494              		.loc 1 363 0
 3495 1398 3C800000 		lis 4,.LC40@ha
 3496 139c 7F83E378 		mr 3,28
 3497 13a0 388401AC 		la 4,.LC40@l(4)
 3498 13a4 38A10008 		addi 5,1,8
 3499 13a8 4CC63182 		crxor 6,6,6
 3500 13ac 48000001 		bl sscanf
 3501              		.loc 1 364 0
 3502 13b0 3BA00001 		li 29,1
 3503              		.loc 1 363 0
 3504 13b4 2F830001 		cmpwi 7,3,1
 3505 13b8 409EFE38 		bne+ 7,.L233
 3506              		.loc 1 363 0 is_stmt 0 discriminator 1
 3507 13bc 80010008 		lwz 0,8(1)
 3508 13c0 B01E0A0A 		sth 0,2570(30)
 3509 13c4 4BFFFE2C 		b .L233
 3510              	.L313:
 3511              		.loc 1 358 0 is_stmt 1
 3512 13c8 387E03E2 		addi 3,30,994
 3513 13cc 7F84E378 		mr 4,28
 3514 13d0 48000001 		bl strcpy
 3515              		.loc 1 359 0
 3516 13d4 3BA00001 		li 29,1
 3517 13d8 4BFFFE18 		b .L233
 3518              	.L315:
 3519              		.loc 1 368 0
 3520 13dc 3C800000 		lis 4,.LC40@ha
 3521 13e0 7F83E378 		mr 3,28
 3522 13e4 388401AC 		la 4,.LC40@l(4)
 3523 13e8 38A10008 		addi 5,1,8
 3524 13ec 4CC63182 		crxor 6,6,6
 3525 13f0 48000001 		bl sscanf
 3526              		.loc 1 369 0
 3527 13f4 3BA00001 		li 29,1
 3528              		.loc 1 368 0
 3529 13f8 2F830001 		cmpwi 7,3,1
 3530 13fc 409EFDF4 		bne+ 7,.L233
 3531              		.loc 1 368 0 is_stmt 0 discriminator 1
 3532 1400 80010008 		lwz 0,8(1)
 3533 1404 B01E0064 		sth 0,100(30)
 3534 1408 4BFFFDE8 		b .L233
 3535              	.L317:
 3536              		.loc 1 378 0 is_stmt 1
 3537 140c 3C800000 		lis 4,.LC40@ha
 3538 1410 7F83E378 		mr 3,28
 3539 1414 388401AC 		la 4,.LC40@l(4)
 3540 1418 38A10008 		addi 5,1,8
 3541 141c 4CC63182 		crxor 6,6,6
 3542 1420 48000001 		bl sscanf
 3543              		.loc 1 379 0
 3544 1424 3BA00001 		li 29,1
 3545              		.loc 1 378 0
 3546 1428 2F830001 		cmpwi 7,3,1
 3547 142c 409EFDC4 		bne+ 7,.L233
 3548              		.loc 1 378 0 is_stmt 0 discriminator 1
 3549 1430 80010008 		lwz 0,8(1)
 3550 1434 901E04DC 		stw 0,1244(30)
 3551 1438 4BFFFDB8 		b .L233
 3552              	.L316:
 3553              		.loc 1 373 0 is_stmt 1
 3554 143c 387E01EE 		addi 3,30,494
 3555 1440 7F84E378 		mr 4,28
 3556 1444 48000001 		bl strcpy
 3557              		.loc 1 374 0
 3558 1448 3BA00001 		li 29,1
 3559 144c 4BFFFDA4 		b .L233
 3560              	.L318:
 3561              		.loc 1 383 0
 3562 1450 3C800000 		lis 4,.LC40@ha
 3563 1454 7F83E378 		mr 3,28
 3564 1458 388401AC 		la 4,.LC40@l(4)
 3565 145c 38A10008 		addi 5,1,8
 3566 1460 4CC63182 		crxor 6,6,6
 3567 1464 48000001 		bl sscanf
 3568              		.loc 1 384 0
 3569 1468 3BA00001 		li 29,1
 3570              		.loc 1 383 0
 3571 146c 2F830001 		cmpwi 7,3,1
 3572 1470 409EFD80 		bne+ 7,.L233
 3573              		.loc 1 383 0 is_stmt 0 discriminator 1
 3574 1474 80010008 		lwz 0,8(1)
 3575 1478 B01E04E8 		sth 0,1256(30)
 3576 147c 4BFFFD74 		b .L233
 3577              	.L320:
 3578              		.loc 1 393 0 is_stmt 1
 3579 1480 3C800000 		lis 4,.LC40@ha
 3580 1484 7F83E378 		mr 3,28
 3581 1488 388401AC 		la 4,.LC40@l(4)
 3582 148c 38A10008 		addi 5,1,8
 3583 1490 4CC63182 		crxor 6,6,6
 3584 1494 48000001 		bl sscanf
 3585              		.loc 1 394 0
 3586 1498 3BA00001 		li 29,1
 3587              		.loc 1 393 0
 3588 149c 2F830001 		cmpwi 7,3,1
 3589 14a0 409EFD50 		bne+ 7,.L233
 3590              		.loc 1 393 0 is_stmt 0 discriminator 1
 3591 14a4 80010008 		lwz 0,8(1)
 3592 14a8 B01E008A 		sth 0,138(30)
 3593 14ac 4BFFFD44 		b .L233
 3594              	.L319:
 3595              		.loc 1 388 0 is_stmt 1
 3596 14b0 387E071A 		addi 3,30,1818
 3597 14b4 7F84E378 		mr 4,28
 3598 14b8 48000001 		bl strcpy
 3599              		.loc 1 389 0
 3600 14bc 3BA00001 		li 29,1
 3601 14c0 4BFFFD30 		b .L233
 3602              	.L321:
 3603              		.loc 1 398 0
 3604 14c4 3C800000 		lis 4,.LC40@ha
 3605 14c8 7F83E378 		mr 3,28
 3606 14cc 388401AC 		la 4,.LC40@l(4)
 3607 14d0 38A10008 		addi 5,1,8
 3608 14d4 4CC63182 		crxor 6,6,6
 3609 14d8 48000001 		bl sscanf
 3610              		.loc 1 399 0
 3611 14dc 3BA00001 		li 29,1
 3612              		.loc 1 398 0
 3613 14e0 2F830001 		cmpwi 7,3,1
 3614 14e4 409EFD0C 		bne+ 7,.L233
 3615              		.loc 1 398 0 is_stmt 0 discriminator 1
 3616 14e8 80010008 		lwz 0,8(1)
 3617 14ec 901E04E0 		stw 0,1248(30)
 3618 14f0 4BFFFD00 		b .L233
 3619              	.L322:
 3620              		.loc 1 403 0 is_stmt 1
 3621 14f4 3C800000 		lis 4,.LC40@ha
 3622 14f8 7F83E378 		mr 3,28
 3623 14fc 388401AC 		la 4,.LC40@l(4)
 3624 1500 38A10008 		addi 5,1,8
 3625 1504 4CC63182 		crxor 6,6,6
 3626 1508 48000001 		bl sscanf
 3627              		.loc 1 404 0
 3628 150c 3BA00001 		li 29,1
 3629              		.loc 1 403 0
 3630 1510 2F830001 		cmpwi 7,3,1
 3631 1514 409EFCDC 		bne+ 7,.L233
 3632              		.loc 1 403 0 is_stmt 0 discriminator 1
 3633 1518 80010008 		lwz 0,8(1)
 3634 151c 901E04E4 		stw 0,1252(30)
 3635 1520 4BFFFCD0 		b .L233
 3636              	.L323:
 3637              		.loc 1 408 0 is_stmt 1
 3638 1524 3C800000 		lis 4,.LC40@ha
 3639 1528 7F83E378 		mr 3,28
 3640 152c 388401AC 		la 4,.LC40@l(4)
 3641 1530 38A10008 		addi 5,1,8
 3642 1534 4CC63182 		crxor 6,6,6
 3643 1538 48000001 		bl sscanf
 3644              		.loc 1 409 0
 3645 153c 3BA00001 		li 29,1
 3646              		.loc 1 408 0
 3647 1540 2F830001 		cmpwi 7,3,1
 3648 1544 409EFCAC 		bne+ 7,.L233
 3649              		.loc 1 408 0 is_stmt 0 discriminator 1
 3650 1548 80010008 		lwz 0,8(1)
 3651 154c B01E008E 		sth 0,142(30)
 3652 1550 4BFFFCA0 		b .L233
 3653              	.L324:
 3654              		.loc 1 413 0 is_stmt 1
 3655 1554 387E018A 		addi 3,30,394
 3656 1558 7F84E378 		mr 4,28
 3657 155c 48000001 		bl strcpy
 3658              		.loc 1 414 0
 3659 1560 3BA00001 		li 29,1
 3660 1564 4BFFFC8C 		b .L233
 3661              	.L327:
 3662              	.LBB2537:
 3663              		.loc 1 428 0
 3664 1568 3C800000 		lis 4,.LC40@ha
 3665 156c 7F83E378 		mr 3,28
 3666 1570 388401AC 		la 4,.LC40@l(4)
 3667 1574 38A10008 		addi 5,1,8
 3668 1578 4CC63182 		crxor 6,6,6
 3669 157c 48000001 		bl sscanf
 3670              		.loc 1 429 0
 3671 1580 3BA00001 		li 29,1
 3672              		.loc 1 428 0
 3673 1584 2F830001 		cmpwi 7,3,1
 3674 1588 409EFC68 		bne+ 7,.L233
 3675              		.loc 1 428 0 is_stmt 0 discriminator 1
 3676 158c 80010008 		lwz 0,8(1)
 3677 1590 B01E0060 		sth 0,96(30)
 3678 1594 4BFFFC5C 		b .L233
 3679              	.L326:
 3680              	.LBE2537:
 3681              		.loc 1 423 0 is_stmt 1
 3682 1598 387E02E8 		addi 3,30,744
 3683 159c 7F84E378 		mr 4,28
 3684 15a0 48000001 		bl strcpy
 3685              		.loc 1 424 0
 3686 15a4 3BA00001 		li 29,1
 3687 15a8 4BFFFC48 		b .L233
 3688              	.L325:
 3689              		.loc 1 418 0
 3690 15ac 7F83E378 		mr 3,28
 3691              		.loc 1 419 0
 3692 15b0 3BA00001 		li 29,1
 3693              		.loc 1 418 0
 3694 15b4 48000001 		bl atoi
 3695 15b8 B07E008C 		sth 3,140(30)
 3696              		.loc 1 419 0
 3697 15bc 4BFFFC34 		b .L233
 3698              	.L328:
 3699              	.LBB2538:
 3700              	.LBB2536:
 3701              		.loc 1 433 0
 3702 15c0 7F83E378 		mr 3,28
 3703              		.loc 1 434 0
 3704 15c4 3BA00001 		li 29,1
 3705              		.loc 1 433 0
 3706 15c8 48000001 		bl atoi
 3707 15cc B07E0062 		sth 3,98(30)
 3708              		.loc 1 434 0
 3709 15d0 4BFFFC20 		b .L233
 3710              	.L330:
 3711              	.LBB2535:
 3712              	.LBB2533:
 3713              		.loc 1 443 0
 3714 15d4 3C800000 		lis 4,.LC40@ha
 3715 15d8 7F83E378 		mr 3,28
 3716 15dc 388401AC 		la 4,.LC40@l(4)
 3717 15e0 38A10008 		addi 5,1,8
 3718 15e4 4CC63182 		crxor 6,6,6
 3719 15e8 48000001 		bl sscanf
 3720              		.loc 1 444 0
 3721 15ec 3BA00001 		li 29,1
 3722              		.loc 1 443 0
 3723 15f0 2F830001 		cmpwi 7,3,1
 3724 15f4 409EFBFC 		bne+ 7,.L233
 3725              		.loc 1 443 0 is_stmt 0 discriminator 1
 3726 15f8 80010008 		lwz 0,8(1)
 3727 15fc B01E0068 		sth 0,104(30)
 3728 1600 4BFFFBF0 		b .L233
 3729              	.L329:
 3730              	.LBE2533:
 3731              		.loc 1 438 0 is_stmt 1
 3732 1604 3C800000 		lis 4,.LC40@ha
 3733 1608 7F83E378 		mr 3,28
 3734 160c 388401AC 		la 4,.LC40@l(4)
 3735 1610 38A10008 		addi 5,1,8
 3736 1614 4CC63182 		crxor 6,6,6
 3737 1618 48000001 		bl sscanf
 3738              		.loc 1 439 0
 3739 161c 3BA00001 		li 29,1
 3740              		.loc 1 438 0
 3741 1620 2F830001 		cmpwi 7,3,1
 3742 1624 409EFBCC 		bne+ 7,.L233
 3743              		.loc 1 438 0 is_stmt 0 discriminator 1
 3744 1628 80010008 		lwz 0,8(1)
 3745 162c B01E0066 		sth 0,102(30)
 3746 1630 4BFFFBC0 		b .L233
 3747              	.L343:
 3748              	.LBB2534:
 3749              	.LBB2532:
 3750              	.LBB2530:
 3751              	.LBB2528:
 3752              	.LBB2526:
 3753              	.LBB2524:
 3754              	.LBB2522:
 3755              		.loc 1 513 0 is_stmt 1
 3756 1634 3C800000 		lis 4,.LC40@ha
 3757 1638 7F83E378 		mr 3,28
 3758 163c 388401AC 		la 4,.LC40@l(4)
 3759 1640 38A10008 		addi 5,1,8
 3760 1644 4CC63182 		crxor 6,6,6
 3761 1648 48000001 		bl sscanf
 3762              		.loc 1 514 0
 3763 164c 3BA00001 		li 29,1
 3764              		.loc 1 513 0
 3765 1650 2F830001 		cmpwi 7,3,1
 3766 1654 409EFB9C 		bne+ 7,.L233
 3767              		.loc 1 513 0 is_stmt 0 discriminator 1
 3768 1658 80010008 		lwz 0,8(1)
 3769 165c B01E0524 		sth 0,1316(30)
 3770 1660 4BFFFB90 		b .L233
 3771              	.L340:
 3772              		.loc 1 498 0 is_stmt 1
 3773 1664 3C800000 		lis 4,.LC40@ha
 3774 1668 7F83E378 		mr 3,28
 3775 166c 388401AC 		la 4,.LC40@l(4)
 3776 1670 38A10008 		addi 5,1,8
 3777 1674 4CC63182 		crxor 6,6,6
 3778 1678 48000001 		bl sscanf
 3779              		.loc 1 499 0
 3780 167c 3BA00001 		li 29,1
 3781              		.loc 1 498 0
 3782 1680 2F830001 		cmpwi 7,3,1
 3783 1684 409EFB6C 		bne+ 7,.L233
 3784              		.loc 1 498 0 is_stmt 0 discriminator 1
 3785 1688 80010008 		lwz 0,8(1)
 3786 168c B01E051E 		sth 0,1310(30)
 3787 1690 4BFFFB60 		b .L233
 3788              	.L339:
 3789              		.loc 1 493 0 is_stmt 1
 3790 1694 3C800000 		lis 4,.LC40@ha
 3791 1698 7F83E378 		mr 3,28
 3792 169c 388401AC 		la 4,.LC40@l(4)
 3793 16a0 38A10008 		addi 5,1,8
 3794 16a4 4CC63182 		crxor 6,6,6
 3795 16a8 48000001 		bl sscanf
 3796              		.loc 1 494 0
 3797 16ac 3BA00001 		li 29,1
 3798              		.loc 1 493 0
 3799 16b0 2F830001 		cmpwi 7,3,1
 3800 16b4 409EFB3C 		bne+ 7,.L233
 3801              		.loc 1 493 0 is_stmt 0 discriminator 1
 3802 16b8 80010008 		lwz 0,8(1)
 3803 16bc B01E051C 		sth 0,1308(30)
 3804 16c0 4BFFFB30 		b .L233
 3805              	.L338:
 3806              		.loc 1 488 0 is_stmt 1
 3807 16c4 387E0090 		addi 3,30,144
 3808 16c8 7F84E378 		mr 4,28
 3809 16cc 48000001 		bl strcpy
 3810              		.loc 1 489 0
 3811 16d0 3BA00001 		li 29,1
 3812 16d4 4BFFFB1C 		b .L233
 3813              	.L337:
 3814              		.loc 1 483 0
 3815 16d8 7F83E378 		mr 3,28
 3816 16dc 38800000 		li 4,0
 3817 16e0 38A00010 		li 5,16
 3818              		.loc 1 484 0
 3819 16e4 3BA00001 		li 29,1
 3820              		.loc 1 483 0
 3821 16e8 48000001 		bl strtoul
 3822 16ec 907E0504 		stw 3,1284(30)
 3823              		.loc 1 484 0
 3824 16f0 4BFFFB00 		b .L233
 3825              	.L342:
 3826              		.loc 1 508 0
 3827 16f4 3C800000 		lis 4,.LC40@ha
 3828 16f8 7F83E378 		mr 3,28
 3829 16fc 388401AC 		la 4,.LC40@l(4)
 3830 1700 38A10008 		addi 5,1,8
 3831 1704 4CC63182 		crxor 6,6,6
 3832 1708 48000001 		bl sscanf
 3833              		.loc 1 509 0
 3834 170c 3BA00001 		li 29,1
 3835              		.loc 1 508 0
 3836 1710 2F830001 		cmpwi 7,3,1
 3837 1714 409EFADC 		bne+ 7,.L233
 3838              		.loc 1 508 0 is_stmt 0 discriminator 1
 3839 1718 80010008 		lwz 0,8(1)
 3840 171c B01E0522 		sth 0,1314(30)
 3841 1720 4BFFFAD0 		b .L233
 3842              	.L341:
 3843              		.loc 1 503 0 is_stmt 1
 3844 1724 3C800000 		lis 4,.LC40@ha
 3845 1728 7F83E378 		mr 3,28
 3846 172c 388401AC 		la 4,.LC40@l(4)
 3847 1730 38A10008 		addi 5,1,8
 3848 1734 4CC63182 		crxor 6,6,6
 3849 1738 48000001 		bl sscanf
 3850              		.loc 1 504 0
 3851 173c 3BA00001 		li 29,1
 3852              		.loc 1 503 0
 3853 1740 2F830001 		cmpwi 7,3,1
 3854 1744 409EFAAC 		bne+ 7,.L233
 3855              		.loc 1 503 0 is_stmt 0 discriminator 1
 3856 1748 80010008 		lwz 0,8(1)
 3857 174c B01E0520 		sth 0,1312(30)
 3858 1750 4BFFFAA0 		b .L233
 3859              	.L332:
 3860              	.LBE2522:
 3861              	.LBE2524:
 3862              	.LBE2526:
 3863              	.LBE2528:
 3864              		.loc 1 453 0 is_stmt 1
 3865 1754 7F83E378 		mr 3,28
 3866              		.loc 1 454 0
 3867 1758 3BA00001 		li 29,1
 3868              		.loc 1 453 0
 3869 175c 48000001 		bl atof
 3870 1760 FC200818 		frsp 1,1
 3871 1764 D03E0070 		stfs 1,112(30)
 3872              		.loc 1 454 0
 3873 1768 4BFFFA88 		b .L233
 3874              	.L331:
 3875              	.LBE2530:
 3876              		.loc 1 448 0
 3877 176c 7F83E378 		mr 3,28
 3878              		.loc 1 449 0
 3879 1770 3BA00001 		li 29,1
 3880              		.loc 1 448 0
 3881 1774 48000001 		bl atoi
 3882 1778 907E006C 		stw 3,108(30)
 3883              		.loc 1 449 0
 3884 177c 4BFFFA74 		b .L233
 3885              	.L336:
 3886              	.LBB2531:
 3887              	.LBB2529:
 3888              	.LBB2527:
 3889              	.LBB2525:
 3890              	.LBB2523:
 3891              	.LBB2521:
 3892              		.loc 1 474 0
 3893 1780 7F84E378 		mr 4,28
 3894 1784 38A00032 		li 5,50
 3895 1788 3861000C 		addi 3,1,12
 3896              		.loc 1 475 0
 3897 178c 3BFE04EC 		addi 31,30,1260
 3898              	.LVL286:
 3899              		.loc 1 474 0
 3900 1790 48000001 		bl strlcpy
 3901              		.loc 1 475 0
 3902 1794 3861000C 		addi 3,1,12
 3903 1798 7FE4FB78 		mr 4,31
 3904              		.loc 1 479 0
 3905 179c 3BA00001 		li 29,1
 3906              		.loc 1 475 0
 3907 17a0 48000001 		bl DecryptString
 3908              		.loc 1 477 0
 3909 17a4 A39E0500 		lhz 28,1280(30)
 3910              	.LVL287:
 3911 17a8 7380FFFF 		andi. 0,28,0xffff
 3912 17ac 40A2FA44 		bne- 0,.L233
 3913              		.loc 1 477 0 is_stmt 0 discriminator 1
 3914 17b0 881E04EC 		lbz 0,1260(30)
 3915 17b4 2F800000 		cmpwi 7,0,0
 3916 17b8 41BEFA38 		beq- 7,.L233
 3917              		.loc 1 477 0 discriminator 2
 3918 17bc 3C800000 		lis 4,.LC75@ha
 3919 17c0 7FE3FB78 		mr 3,31
 3920 17c4 38840388 		la 4,.LC75@l(4)
 3921 17c8 48000001 		bl strcmp
 3922 17cc 2F830000 		cmpwi 7,3,0
 3923 17d0 41BEFA20 		beq- 7,.L233
 3924              		.loc 1 478 0 is_stmt 1
 3925 17d4 B39E04EA 		sth 28,1258(30)
 3926 17d8 4BFFFA18 		b .L233
 3927              	.LVL288:
 3928              	.L335:
 3929              	.LBE2521:
 3930              	.LBE2523:
 3931              		.loc 1 468 0
 3932 17dc 7F83E378 		mr 3,28
 3933              		.loc 1 469 0
 3934 17e0 3BA00001 		li 29,1
 3935              		.loc 1 468 0
 3936 17e4 48000001 		bl atoi
 3937 17e8 B07E0500 		sth 3,1280(30)
 3938              		.loc 1 469 0
 3939 17ec 4BFFFA04 		b .L233
 3940              	.L334:
 3941              	.LBE2525:
 3942              		.loc 1 463 0
 3943 17f0 3C800000 		lis 4,.LC40@ha
 3944 17f4 7F83E378 		mr 3,28
 3945 17f8 388401AC 		la 4,.LC40@l(4)
 3946 17fc 38A10008 		addi 5,1,8
 3947 1800 4CC63182 		crxor 6,6,6
 3948 1804 48000001 		bl sscanf
 3949              		.loc 1 464 0
 3950 1808 3BA00001 		li 29,1
 3951              		.loc 1 463 0
 3952 180c 2F830001 		cmpwi 7,3,1
 3953 1810 409EF9E0 		bne+ 7,.L233
 3954              		.loc 1 463 0 is_stmt 0 discriminator 1
 3955 1814 80010008 		lwz 0,8(1)
 3956 1818 B01E04EA 		sth 0,1258(30)
 3957 181c 4BFFF9D4 		b .L233
 3958              	.L333:
 3959              	.LBE2527:
 3960              		.loc 1 458 0 is_stmt 1
 3961 1820 7F83E378 		mr 3,28
 3962              		.loc 1 459 0
 3963 1824 3BA00001 		li 29,1
 3964              		.loc 1 458 0
 3965 1828 48000001 		bl atof
 3966 182c FC200818 		frsp 1,1
 3967 1830 D03E0074 		stfs 1,116(30)
 3968              		.loc 1 459 0
 3969 1834 4BFFF9BC 		b .L233
 3970              	.LBE2529:
 3971              	.LBE2531:
 3972              	.LBE2532:
 3973              	.LBE2534:
 3974              	.LBE2535:
 3975              	.LBE2536:
 3976              	.LBE2538:
 3977              	.LBE2545:
 3978              		.cfi_endproc
 3979              	.LFE1578:
 3980              		.size	_ZN9CSettings10SetSettingEPcS0_, .-_ZN9CSettings10SetSettingEPcS0_
 3981              		.align 2
 3982              		.globl _ZN9CSettings10FindConfigEv
 3983              		.type	_ZN9CSettings10FindConfigEv, @function
 3984              	_ZN9CSettings10FindConfigEv:
 3985              	.LFB1579:
 3986              		.loc 1 586 0
 3987              		.cfi_startproc
 3988              		.cfi_personality 0,__gxx_personality_v0
 3989              		.cfi_lsda 0,.LLSDA1579
 3990              	.LVL289:
 3991 1838 9421FE68 		stwu 1,-408(1)
 3992              	.LCFI27:
 3993              		.cfi_def_cfa_offset 408
 3994 183c 7C0802A6 		mflr 0
 3995 1840 7D800026 		mfcr 12
 3996 1844 93810188 		stw 28,392(1)
 3997 1848 3F800000 		lis 28,.LC84@ha
 3998              		.cfi_offset 28, -16
 3999              		.cfi_register 70, 12
 4000              		.cfi_register 65, 0
 4001 184c 93A1018C 		stw 29,396(1)
 4002 1850 3FA00000 		lis 29,.LANCHOR1@ha
 4003              		.cfi_offset 29, -12
 4004 1854 93E10194 		stw 31,404(1)
 4005              		.loc 1 591 0
 4006 1858 3BE00000 		li 31,0
 4007              		.cfi_offset 31, -4
 4008              		.loc 1 586 0
 4009 185c 92C10170 		stw 22,368(1)
 4010 1860 2E1F0000 		cmpwi 4,31,0
 4011 1864 93010178 		stw 24,376(1)
 4012              		.loc 1 587 0
 4013 1868 3AC00000 		li 22,0
 4014              		.cfi_offset 24, -32
 4015              		.cfi_offset 22, -40
 4016              		.loc 1 586 0
 4017 186c 9001019C 		stw 0,412(1)
 4018 1870 7C781B78 		mr 24,3
 4019 1874 92A1016C 		stw 21,364(1)
 4020 1878 3B9C03F8 		la 28,.LC84@l(28)
 4021 187c 92E10174 		stw 23,372(1)
 4022 1880 3BBD0000 		la 29,.LANCHOR1@l(29)
 4023 1884 9321017C 		stw 25,380(1)
 4024 1888 93410180 		stw 26,384(1)
 4025 188c 93610184 		stw 27,388(1)
 4026 1890 93C10190 		stw 30,400(1)
 4027 1894 91810168 		stw 12,360(1)
 4028 1898 48000010 		b .L362
 4029              		.cfi_offset 70, -48
 4030              		.cfi_offset 30, -8
 4031              		.cfi_offset 27, -20
 4032              		.cfi_offset 26, -24
 4033              		.cfi_offset 25, -28
 4034              		.cfi_offset 23, -36
 4035              		.cfi_offset 21, -44
 4036              		.cfi_offset 65, 4
 4037              	.LVL290:
 4038              	.L361:
 4039              	.LBB2701:
 4040              	.LBB2702:
 4041              		.loc 1 591 0
 4042 189c 2F9F000A 		cmpwi 7,31,10
 4043 18a0 3BFF0001 		addi 31,31,1
 4044              	.LVL291:
 4045 18a4 419E0140 		beq- 7,.L417
 4046              	.LVL292:
 4047              	.L362:
 4048              		.loc 1 593 0
 4049 18a8 1CBF0006 		mulli 5,31,6
 4050 18ac 3861002C 		addi 3,1,44
 4051 18b0 7F84E378 		mr 4,28
 4052 18b4 7CBD2A14 		add 5,29,5
 4053 18b8 4CC63182 		crxor 6,6,6
 4054 18bc 48000001 		bl sprintf
 4055              		.loc 1 595 0
 4056 18c0 4092FFDC 		bne+ 4,.L361
 4057              		.loc 1 597 0
 4058 18c4 3B380004 		addi 25,24,4
 4059 18c8 3881002C 		addi 4,1,44
 4060 18cc 7F23CB78 		mr 3,25
 4061              		.loc 1 598 0
 4062 18d0 3B58000E 		addi 26,24,14
 4063              		.loc 1 597 0
 4064 18d4 48000001 		bl strcpy
 4065              		.loc 1 599 0
 4066 18d8 3EE00000 		lis 23,.LC85@ha
 4067              		.loc 1 598 0
 4068 18dc 3CA00000 		lis 5,.LC31@ha
 4069 18e0 38800050 		li 4,80
 4070 18e4 38A50120 		la 5,.LC31@l(5)
 4071 18e8 7F26CB78 		mr 6,25
 4072              		.loc 1 599 0
 4073 18ec 3BC10038 		addi 30,1,56
 4074              		.loc 1 598 0
 4075 18f0 7F43D378 		mr 3,26
 4076              		.loc 1 599 0
 4077 18f4 3AF703FC 		la 23,.LC85@l(23)
 4078              	.LEHB41:
 4079              		.loc 1 598 0
 4080 18f8 4CC63182 		crxor 6,6,6
 4081 18fc 48000001 		bl snprintf
 4082              		.loc 1 599 0
 4083 1900 3880012C 		li 4,300
 4084 1904 7EE5BB78 		mr 5,23
 4085 1908 7F46D378 		mr 6,26
 4086 190c 7FC3F378 		mr 3,30
 4087 1910 4CC63182 		crxor 6,6,6
 4088 1914 48000001 		bl snprintf
 4089              		.loc 1 600 0
 4090 1918 38610028 		addi 3,1,40
 4091 191c 7FC4F378 		mr 4,30
 4092 1920 38A10013 		addi 5,1,19
 4093 1924 48000001 		bl _ZNSsC1EPKcRKSaIcE
 4094              	.LEHE41:
 4095 1928 38610028 		addi 3,1,40
 4096              	.LEHB42:
 4097 192c 48000001 		bl _Z9CheckFileSs
 4098              	.LEHE42:
 4099              	.LBB2703:
 4100              	.LBB2704:
 4101              	.LBB2705:
 4102              	.LBB2706:
 4103              	.LBB2707:
 4104              	.LBB2708:
 4105              		.loc 2 288 0
 4106 1930 81210028 		lwz 9,40(1)
 4107              	.LBE2708:
 4108              	.LBE2707:
 4109              	.LBE2706:
 4110              	.LBB2709:
 4111              	.LBB2710:
 4112              		.loc 2 235 0
 4113 1934 3F600000 		lis 27,_ZNSs4_Rep20_S_empty_rep_storageE@ha
 4114              	.LBE2710:
 4115              	.LBE2709:
 4116              	.LBE2705:
 4117              	.LBE2704:
 4118              	.LBE2703:
 4119              		.loc 1 600 0
 4120 1938 7C761B78 		mr 22,3
 4121              	.LVL293:
 4122              	.LBB2727:
 4123              	.LBB2725:
 4124              	.LBB2723:
 4125              	.LBB2720:
 4126              	.LBB2717:
 4127              		.loc 2 235 0
 4128 193c 3B7B0000 		la 27,_ZNSs4_Rep20_S_empty_rep_storageE@l(27)
 4129              	.LBE2717:
 4130              	.LBE2720:
 4131              		.loc 2 534 0
 4132 1940 3869FFF4 		addi 3,9,-12
 4133              	.LVL294:
 4134              	.LBB2721:
 4135              	.LBB2718:
 4136              		.loc 2 235 0
 4137 1944 7F83D800 		cmpw 7,3,27
 4138 1948 409E0300 		bne- 7,.L418
 4139              	.LVL295:
 4140              	.L354:
 4141              	.LBE2718:
 4142              	.LBE2721:
 4143              	.LBE2723:
 4144              	.LBE2725:
 4145              	.LBE2727:
 4146              		.loc 1 602 0
 4147 194c 2E160000 		cmpwi 4,22,0
 4148 1950 40B2FF4C 		bne- 4,.L361
 4149              		.loc 1 604 0
 4150 1954 3881002C 		addi 4,1,44
 4151 1958 7F23CB78 		mr 3,25
 4152 195c 48000001 		bl strcpy
 4153              		.loc 1 605 0
 4154 1960 3CA00000 		lis 5,.LC86@ha
 4155 1964 38800050 		li 4,80
 4156 1968 38A50418 		la 5,.LC86@l(5)
 4157 196c 7F26CB78 		mr 6,25
 4158 1970 7F43D378 		mr 3,26
 4159              	.LEHB43:
 4160 1974 4CC63182 		crxor 6,6,6
 4161 1978 48000001 		bl snprintf
 4162              		.loc 1 606 0
 4163 197c 3880012C 		li 4,300
 4164 1980 7EE5BB78 		mr 5,23
 4165 1984 7F46D378 		mr 6,26
 4166 1988 7FC3F378 		mr 3,30
 4167 198c 4CC63182 		crxor 6,6,6
 4168 1990 48000001 		bl snprintf
 4169              		.loc 1 607 0
 4170 1994 38610024 		addi 3,1,36
 4171 1998 7FC4F378 		mr 4,30
 4172 199c 38A10012 		addi 5,1,18
 4173 19a0 48000001 		bl _ZNSsC1EPKcRKSaIcE
 4174              	.LEHE43:
 4175 19a4 38610024 		addi 3,1,36
 4176              	.LEHB44:
 4177 19a8 48000001 		bl _Z9CheckFileSs
 4178              	.LEHE44:
 4179              	.LVL296:
 4180              	.LBB2728:
 4181              	.LBB2729:
 4182              	.LBB2730:
 4183              	.LBB2731:
 4184              	.LBB2732:
 4185              	.LBB2733:
 4186              		.loc 2 288 0
 4187 19ac 81210024 		lwz 9,36(1)
 4188 19b0 7C761B78 		mr 22,3
 4189 19b4 2E030000 		cmpwi 4,3,0
 4190              	.LBE2733:
 4191              	.LBE2732:
 4192              	.LBE2731:
 4193              		.loc 2 534 0
 4194 19b8 3869FFF4 		addi 3,9,-12
 4195              	.LVL297:
 4196              	.LBB2734:
 4197              	.LBB2735:
 4198              		.loc 2 235 0
 4199 19bc 7F83D800 		cmpw 7,3,27
 4200 19c0 419EFEDC 		beq+ 7,.L361
 4201              	.LVL298:
 4202              	.LBB2736:
 4203              	.LBB2737:
 4204              	.LBB2738:
 4205              		.loc 3 66 0
 4206 19c4 8169FFFC 		lwz 11,-4(9)
 4207              	.LVL299:
 4208              	.LBE2738:
 4209              	.LBE2737:
 4210              	.LBE2736:
 4211              		.loc 2 240 0
 4212 19c8 2F8B0000 		cmpwi 7,11,0
 4213              	.LBB2741:
 4214              	.LBB2740:
 4215              	.LBB2739:
 4216              		.loc 3 67 0
 4217 19cc 396BFFFF 		addi 11,11,-1
 4218 19d0 9169FFFC 		stw 11,-4(9)
 4219              	.LBE2739:
 4220              	.LBE2740:
 4221              	.LBE2741:
 4222              		.loc 2 240 0
 4223 19d4 419DFEC8 		bgt+ 7,.L361
 4224              		.loc 2 244 0
 4225 19d8 3881000C 		addi 4,1,12
 4226 19dc 48000001 		bl _ZNSs4_Rep10_M_destroyERKSaIcE
 4227              	.LVL300:
 4228 19e0 4BFFFEBC 		b .L361
 4229              	.LVL301:
 4230              	.L417:
 4231              	.LBE2735:
 4232              	.LBE2734:
 4233              	.LBE2730:
 4234              	.LBE2729:
 4235              	.LBE2728:
 4236              		.loc 1 591 0
 4237 19e4 7ED7B378 		mr 23,22
 4238              	.LBE2702:
 4239              	.LBB2743:
 4240              		.loc 1 611 0
 4241 19e8 409201AC 		bne- 4,.L363
 4242 19ec 3BE00000 		li 31,0
 4243              	.LVL302:
 4244 19f0 48000010 		b .L398
 4245              	.L364:
 4246              	.LVL303:
 4247              	.LBB2744:
 4248              	.LBB2745:
 4249              		.loc 1 615 0
 4250 19f4 2F9F000A 		cmpwi 7,31,10
 4251 19f8 3BFF0001 		addi 31,31,1
 4252              	.LVL304:
 4253 19fc 419E0198 		beq- 7,.L363
 4254              	.LVL305:
 4255              	.L398:
 4256              		.loc 1 617 0
 4257 1a00 1CBF0006 		mulli 5,31,6
 4258 1a04 3861002C 		addi 3,1,44
 4259 1a08 7F84E378 		mr 4,28
 4260 1a0c 7CBD2A14 		add 5,29,5
 4261 1a10 4CC63182 		crxor 6,6,6
 4262 1a14 48000001 		bl sprintf
 4263              		.loc 1 619 0
 4264 1a18 2F970000 		cmpwi 7,23,0
 4265 1a1c 409EFFD8 		bne+ 7,.L364
 4266              		.loc 1 621 0
 4267 1a20 3B380004 		addi 25,24,4
 4268 1a24 3881002C 		addi 4,1,44
 4269 1a28 7F23CB78 		mr 3,25
 4270              		.loc 1 622 0
 4271 1a2c 3B58000E 		addi 26,24,14
 4272              		.loc 1 621 0
 4273 1a30 48000001 		bl strcpy
 4274              		.loc 1 623 0
 4275 1a34 3EC00000 		lis 22,.LC87@ha
 4276              		.loc 1 622 0
 4277 1a38 3CA00000 		lis 5,.LC31@ha
 4278 1a3c 38800050 		li 4,80
 4279 1a40 38A50120 		la 5,.LC31@l(5)
 4280 1a44 7F26CB78 		mr 6,25
 4281              		.loc 1 623 0
 4282 1a48 3BC10038 		addi 30,1,56
 4283              		.loc 1 622 0
 4284 1a4c 7F43D378 		mr 3,26
 4285              		.loc 1 623 0
 4286 1a50 3AD6042C 		la 22,.LC87@l(22)
 4287              	.LEHB45:
 4288              		.loc 1 622 0
 4289 1a54 4CC63182 		crxor 6,6,6
 4290 1a58 48000001 		bl snprintf
 4291              		.loc 1 623 0
 4292 1a5c 3880012C 		li 4,300
 4293 1a60 7EC5B378 		mr 5,22
 4294 1a64 7F46D378 		mr 6,26
 4295 1a68 7FC3F378 		mr 3,30
 4296 1a6c 4CC63182 		crxor 6,6,6
 4297 1a70 48000001 		bl snprintf
 4298              		.loc 1 624 0
 4299 1a74 38610020 		addi 3,1,32
 4300 1a78 7FC4F378 		mr 4,30
 4301 1a7c 38A10011 		addi 5,1,17
 4302 1a80 48000001 		bl _ZNSsC1EPKcRKSaIcE
 4303              	.LEHE45:
 4304 1a84 38610020 		addi 3,1,32
 4305              	.LEHB46:
 4306 1a88 48000001 		bl _Z9CheckFileSs
 4307              	.LEHE46:
 4308              	.LBB2746:
 4309              	.LBB2747:
 4310              	.LBB2748:
 4311              	.LBB2749:
 4312              	.LBB2750:
 4313              	.LBB2751:
 4314              		.loc 2 288 0
 4315 1a8c 81210020 		lwz 9,32(1)
 4316              	.LBE2751:
 4317              	.LBE2750:
 4318              	.LBE2749:
 4319              	.LBB2752:
 4320              	.LBB2753:
 4321              		.loc 2 235 0
 4322 1a90 3F600000 		lis 27,_ZNSs4_Rep20_S_empty_rep_storageE@ha
 4323              	.LBE2753:
 4324              	.LBE2752:
 4325              	.LBE2748:
 4326              	.LBE2747:
 4327              	.LBE2746:
 4328              		.loc 1 624 0
 4329 1a94 7C751B78 		mr 21,3
 4330              	.LVL306:
 4331              	.LBB2770:
 4332              	.LBB2768:
 4333              	.LBB2766:
 4334              	.LBB2763:
 4335              	.LBB2760:
 4336              		.loc 2 235 0
 4337 1a98 3B7B0000 		la 27,_ZNSs4_Rep20_S_empty_rep_storageE@l(27)
 4338              	.LBE2760:
 4339              	.LBE2763:
 4340              		.loc 2 534 0
 4341 1a9c 3869FFF4 		addi 3,9,-12
 4342              	.LVL307:
 4343              	.LBB2764:
 4344              	.LBB2761:
 4345              		.loc 2 235 0
 4346 1aa0 7F83D800 		cmpw 7,3,27
 4347 1aa4 409E01E4 		bne- 7,.L419
 4348              	.LVL308:
 4349              	.L372:
 4350              	.LBE2761:
 4351              	.LBE2764:
 4352              	.LBE2766:
 4353              	.LBE2768:
 4354              	.LBE2770:
 4355              		.loc 1 624 0 discriminator 1
 4356 1aa8 2F950000 		cmpwi 7,21,0
 4357 1aac 409E0130 		bne- 7,.L420
 4358              	.LVL309:
 4359              	.L373:
 4360              		.loc 1 635 0
 4361 1ab0 3881002C 		addi 4,1,44
 4362 1ab4 7F23CB78 		mr 3,25
 4363 1ab8 48000001 		bl strcpy
 4364              		.loc 1 636 0
 4365 1abc 3CA00000 		lis 5,.LC86@ha
 4366 1ac0 38800050 		li 4,80
 4367 1ac4 38A50418 		la 5,.LC86@l(5)
 4368 1ac8 7F26CB78 		mr 6,25
 4369 1acc 7F43D378 		mr 3,26
 4370              	.LEHB47:
 4371 1ad0 4CC63182 		crxor 6,6,6
 4372 1ad4 48000001 		bl snprintf
 4373              		.loc 1 637 0
 4374 1ad8 3880012C 		li 4,300
 4375 1adc 7EC5B378 		mr 5,22
 4376 1ae0 7F46D378 		mr 6,26
 4377 1ae4 7FC3F378 		mr 3,30
 4378 1ae8 4CC63182 		crxor 6,6,6
 4379 1aec 48000001 		bl snprintf
 4380              		.loc 1 638 0
 4381 1af0 38610018 		addi 3,1,24
 4382 1af4 7FC4F378 		mr 4,30
 4383 1af8 38A1000F 		addi 5,1,15
 4384 1afc 48000001 		bl _ZNSsC1EPKcRKSaIcE
 4385              	.LEHE47:
 4386 1b00 38610018 		addi 3,1,24
 4387              	.LEHB48:
 4388 1b04 48000001 		bl _Z9CheckFileSs
 4389              	.LEHE48:
 4390              	.LBB2771:
 4391              	.LBB2772:
 4392              	.LBB2773:
 4393              	.LBB2774:
 4394              	.LBB2775:
 4395              	.LBB2776:
 4396              		.loc 2 288 0
 4397 1b08 81210018 		lwz 9,24(1)
 4398              	.LBE2776:
 4399              	.LBE2775:
 4400              	.LBE2774:
 4401              	.LBE2773:
 4402              	.LBE2772:
 4403              	.LBE2771:
 4404              		.loc 1 638 0
 4405 1b0c 7C791B78 		mr 25,3
 4406              	.LVL310:
 4407              	.LBB2791:
 4408              	.LBB2789:
 4409              	.LBB2787:
 4410              		.loc 2 534 0
 4411 1b10 3869FFF4 		addi 3,9,-12
 4412              	.LVL311:
 4413              	.LBB2777:
 4414              	.LBB2778:
 4415              		.loc 2 235 0
 4416 1b14 7F83D800 		cmpw 7,3,27
 4417 1b18 409E0150 		bne- 7,.L421
 4418              	.LVL312:
 4419              	.L389:
 4420              	.LBE2778:
 4421              	.LBE2777:
 4422              	.LBE2787:
 4423              	.LBE2789:
 4424              	.LBE2791:
 4425              		.loc 1 638 0 discriminator 1
 4426 1b1c 2F990000 		cmpwi 7,25,0
 4427 1b20 419EFED4 		beq+ 7,.L364
 4428              		.loc 1 640 0
 4429 1b24 3CA00000 		lis 5,.LC85@ha
 4430 1b28 3880012C 		li 4,300
 4431 1b2c 38A503FC 		la 5,.LC85@l(5)
 4432 1b30 7F46D378 		mr 6,26
 4433 1b34 7FC3F378 		mr 3,30
 4434              	.LEHB49:
 4435 1b38 4CC63182 		crxor 6,6,6
 4436 1b3c 48000001 		bl snprintf
 4437              		.loc 1 641 0
 4438 1b40 38610014 		addi 3,1,20
 4439 1b44 7F44D378 		mr 4,26
 4440 1b48 38A1000E 		addi 5,1,14
 4441 1b4c 48000001 		bl _ZNSsC1EPKcRKSaIcE
 4442              	.LEHE49:
 4443 1b50 38610014 		addi 3,1,20
 4444              	.LEHB50:
 4445 1b54 48000001 		bl _Z15CreateSubfolderSs
 4446              	.LEHE50:
 4447              	.LVL313:
 4448              	.LBB2792:
 4449              	.LBB2793:
 4450              	.LBB2794:
 4451              	.LBB2795:
 4452              	.LBB2796:
 4453              	.LBB2797:
 4454              		.loc 2 288 0
 4455 1b58 81210014 		lwz 9,20(1)
 4456              	.LBE2797:
 4457              	.LBE2796:
 4458              	.LBE2795:
 4459              		.loc 2 534 0
 4460 1b5c 3869FFF4 		addi 3,9,-12
 4461              	.LVL314:
 4462              	.LBB2798:
 4463              	.LBB2799:
 4464              		.loc 2 235 0
 4465 1b60 7F83D800 		cmpw 7,3,27
 4466 1b64 409E01C8 		bne- 7,.L422
 4467              	.LVL315:
 4468              	.L397:
 4469              	.LBE2799:
 4470              	.LBE2798:
 4471              	.LBE2794:
 4472              	.LBE2793:
 4473              	.LBE2792:
 4474              		.loc 1 642 0 discriminator 1
 4475 1b68 3C800000 		lis 4,.LC88@ha
 4476 1b6c 7FC3F378 		mr 3,30
 4477 1b70 38840438 		la 4,.LC88@l(4)
 4478              	.LEHB51:
 4479 1b74 48000001 		bl fopen
 4480              	.LVL316:
 4481              		.loc 1 643 0 discriminator 1
 4482 1b78 7C770034 		cntlzw 23,3
 4483              		.loc 1 644 0 discriminator 1
 4484 1b7c 48000001 		bl fclose
 4485              	.LVL317:
 4486              		.loc 1 615 0 discriminator 1
 4487 1b80 2F9F000A 		cmpwi 7,31,10
 4488              		.loc 1 643 0 discriminator 1
 4489 1b84 56F7D97E 		srwi 23,23,5
 4490 1b88 6AF70001 		xori 23,23,1
 4491              	.LVL318:
 4492              		.loc 1 615 0 discriminator 1
 4493 1b8c 3BFF0001 		addi 31,31,1
 4494              	.LVL319:
 4495 1b90 409EFE70 		bne+ 7,.L398
 4496              	.LVL320:
 4497              	.L363:
 4498              	.LBE2745:
 4499              	.LBE2744:
 4500              	.LBE2743:
 4501              	.LBE2701:
 4502              		.loc 1 651 0
 4503 1b94 8001019C 		lwz 0,412(1)
 4504 1b98 7EE3BB78 		mr 3,23
 4505 1b9c 81810168 		lwz 12,360(1)
 4506 1ba0 7C0803A6 		mtlr 0
 4507 1ba4 82A1016C 		lwz 21,364(1)
 4508 1ba8 82C10170 		lwz 22,368(1)
 4509 1bac 7D808120 		mtcrf 8,12
 4510 1bb0 82E10174 		lwz 23,372(1)
 4511              	.LVL321:
 4512 1bb4 83010178 		lwz 24,376(1)
 4513              	.LVL322:
 4514 1bb8 8321017C 		lwz 25,380(1)
 4515 1bbc 83410180 		lwz 26,384(1)
 4516 1bc0 83610184 		lwz 27,388(1)
 4517 1bc4 83810188 		lwz 28,392(1)
 4518 1bc8 83A1018C 		lwz 29,396(1)
 4519 1bcc 83C10190 		lwz 30,400(1)
 4520 1bd0 83E10194 		lwz 31,404(1)
 4521 1bd4 38210198 		addi 1,1,408
 4522              		.cfi_remember_state
 4523              	.LCFI28:
 4524              		.cfi_def_cfa_offset 0
 4525              		.cfi_restore 70
 4526              		.cfi_restore 31
 4527              		.cfi_restore 30
 4528              		.cfi_restore 29
 4529              		.cfi_restore 28
 4530              		.cfi_restore 27
 4531              		.cfi_restore 26
 4532              		.cfi_restore 25
 4533              		.cfi_restore 24
 4534              		.cfi_restore 23
 4535              		.cfi_restore 22
 4536              		.cfi_restore 21
 4537 1bd8 4E800020 		blr
 4538              	.LVL323:
 4539              	.L420:
 4540              	.LCFI29:
 4541              		.cfi_restore_state
 4542              	.LBB2843:
 4543              	.LBB2838:
 4544              	.LBB2835:
 4545              	.LBB2832:
 4546              		.loc 1 626 0
 4547 1bdc 3CA00000 		lis 5,.LC85@ha
 4548 1be0 3880012C 		li 4,300
 4549 1be4 38A503FC 		la 5,.LC85@l(5)
 4550 1be8 7F46D378 		mr 6,26
 4551 1bec 7FC3F378 		mr 3,30
 4552 1bf0 4CC63182 		crxor 6,6,6
 4553 1bf4 48000001 		bl snprintf
 4554              		.loc 1 627 0
 4555 1bf8 3861001C 		addi 3,1,28
 4556 1bfc 7F44D378 		mr 4,26
 4557 1c00 38A10010 		addi 5,1,16
 4558 1c04 48000001 		bl _ZNSsC1EPKcRKSaIcE
 4559              	.LEHE51:
 4560 1c08 3861001C 		addi 3,1,28
 4561              	.LEHB52:
 4562 1c0c 48000001 		bl _Z15CreateSubfolderSs
 4563              	.LEHE52:
 4564              	.LVL324:
 4565              	.LBB2810:
 4566              	.LBB2811:
 4567              	.LBB2812:
 4568              	.LBB2813:
 4569              	.LBB2814:
 4570              	.LBB2815:
 4571              		.loc 2 288 0
 4572 1c10 8121001C 		lwz 9,28(1)
 4573              	.LBE2815:
 4574              	.LBE2814:
 4575              	.LBE2813:
 4576              		.loc 2 534 0
 4577 1c14 3869FFF4 		addi 3,9,-12
 4578              	.LVL325:
 4579              	.LBB2816:
 4580              	.LBB2817:
 4581              		.loc 2 235 0
 4582 1c18 7F83D800 		cmpw 7,3,27
 4583 1c1c 409E00DC 		bne- 7,.L423
 4584              	.LVL326:
 4585              	.L381:
 4586              	.LBE2817:
 4587              	.LBE2816:
 4588              	.LBE2812:
 4589              	.LBE2811:
 4590              	.LBE2810:
 4591              		.loc 1 628 0 discriminator 1
 4592 1c20 3C800000 		lis 4,.LC88@ha
 4593 1c24 7FC3F378 		mr 3,30
 4594 1c28 38840438 		la 4,.LC88@l(4)
 4595              	.LEHB53:
 4596 1c2c 48000001 		bl fopen
 4597 1c30 7C751B78 		mr 21,3
 4598              	.LVL327:
 4599              		.loc 1 630 0 discriminator 1
 4600 1c34 48000001 		bl fclose
 4601              	.LVL328:
 4602              		.loc 1 633 0 discriminator 1
 4603 1c38 2F950000 		cmpwi 7,21,0
 4604 1c3c 419EFE74 		beq+ 7,.L373
 4605              		.loc 1 633 0 is_stmt 0
 4606 1c40 3AE00001 		li 23,1
 4607 1c44 4BFFFDB0 		b .L364
 4608              	.LVL329:
 4609              	.L418:
 4610              	.LBE2832:
 4611              	.LBE2835:
 4612              	.LBE2838:
 4613              	.LBB2839:
 4614              	.LBB2742:
 4615              	.LBB2726:
 4616              	.LBB2724:
 4617              	.LBB2722:
 4618              	.LBB2719:
 4619              	.LBB2711:
 4620              	.LBB2712:
 4621              	.LBB2713:
 4622              		.loc 3 66 0 is_stmt 1
 4623 1c48 8169FFFC 		lwz 11,-4(9)
 4624              	.LVL330:
 4625              	.LBE2713:
 4626              	.LBE2712:
 4627              	.LBE2711:
 4628              		.loc 2 240 0
 4629 1c4c 2F8B0000 		cmpwi 7,11,0
 4630              	.LBB2716:
 4631              	.LBB2715:
 4632              	.LBB2714:
 4633              		.loc 3 67 0
 4634 1c50 396BFFFF 		addi 11,11,-1
 4635 1c54 9169FFFC 		stw 11,-4(9)
 4636              	.LBE2714:
 4637              	.LBE2715:
 4638              	.LBE2716:
 4639              		.loc 2 240 0
 4640 1c58 419DFCF4 		bgt+ 7,.L354
 4641              		.loc 2 244 0
 4642 1c5c 3881000D 		addi 4,1,13
 4643 1c60 48000001 		bl _ZNSs4_Rep10_M_destroyERKSaIcE
 4644              	.LVL331:
 4645 1c64 4BFFFCE8 		b .L354
 4646              	.LVL332:
 4647              	.L421:
 4648              	.LBE2719:
 4649              	.LBE2722:
 4650              	.LBE2724:
 4651              	.LBE2726:
 4652              	.LBE2742:
 4653              	.LBE2839:
 4654              	.LBB2840:
 4655              	.LBB2836:
 4656              	.LBB2833:
 4657              	.LBB2828:
 4658              	.LBB2790:
 4659              	.LBB2788:
 4660              	.LBB2786:
 4661              	.LBB2785:
 4662              	.LBB2779:
 4663              	.LBB2780:
 4664              	.LBB2781:
 4665              		.loc 3 66 0
 4666 1c68 8169FFFC 		lwz 11,-4(9)
 4667              	.LVL333:
 4668              	.LBE2781:
 4669              	.LBE2780:
 4670              	.LBE2779:
 4671              		.loc 2 240 0
 4672 1c6c 2F8B0000 		cmpwi 7,11,0
 4673              	.LBB2784:
 4674              	.LBB2783:
 4675              	.LBB2782:
 4676              		.loc 3 67 0
 4677 1c70 396BFFFF 		addi 11,11,-1
 4678 1c74 9169FFFC 		stw 11,-4(9)
 4679              	.LBE2782:
 4680              	.LBE2783:
 4681              	.LBE2784:
 4682              		.loc 2 240 0
 4683 1c78 419DFEA4 		bgt+ 7,.L389
 4684              		.loc 2 244 0
 4685 1c7c 38810009 		addi 4,1,9
 4686 1c80 48000001 		bl _ZNSs4_Rep10_M_destroyERKSaIcE
 4687              	.LVL334:
 4688 1c84 4BFFFE98 		b .L389
 4689              	.LVL335:
 4690              	.L419:
 4691              	.LBE2785:
 4692              	.LBE2786:
 4693              	.LBE2788:
 4694              	.LBE2790:
 4695              	.LBE2828:
 4696              	.LBB2829:
 4697              	.LBB2769:
 4698              	.LBB2767:
 4699              	.LBB2765:
 4700              	.LBB2762:
 4701              	.LBB2754:
 4702              	.LBB2755:
 4703              	.LBB2756:
 4704              		.loc 3 66 0
 4705 1c88 8169FFFC 		lwz 11,-4(9)
 4706              	.LVL336:
 4707              	.LBE2756:
 4708              	.LBE2755:
 4709              	.LBE2754:
 4710              		.loc 2 240 0
 4711 1c8c 2F8B0000 		cmpwi 7,11,0
 4712              	.LBB2759:
 4713              	.LBB2758:
 4714              	.LBB2757:
 4715              		.loc 3 67 0
 4716 1c90 396BFFFF 		addi 11,11,-1
 4717 1c94 9169FFFC 		stw 11,-4(9)
 4718              	.LBE2757:
 4719              	.LBE2758:
 4720              	.LBE2759:
 4721              		.loc 2 240 0
 4722 1c98 419DFE10 		bgt+ 7,.L372
 4723              		.loc 2 244 0
 4724 1c9c 3881000B 		addi 4,1,11
 4725 1ca0 48000001 		bl _ZNSs4_Rep10_M_destroyERKSaIcE
 4726              	.LVL337:
 4727 1ca4 4BFFFE04 		b .L372
 4728              	.LVL338:
 4729              	.L409:
 4730 1ca8 7C7F1B78 		mr 31,3
 4731              	.LBE2762:
 4732              	.LBE2765:
 4733              	.LBE2767:
 4734              	.LBE2769:
 4735              	.LBE2829:
 4736              		.loc 1 624 0
 4737 1cac 38610020 		addi 3,1,32
 4738 1cb0 48000001 		bl _ZNSsD1Ev
 4739 1cb4 7FE3FB78 		mr 3,31
 4740 1cb8 48000001 		bl _Unwind_Resume
 4741              	.L407:
 4742 1cbc 7C7F1B78 		mr 31,3
 4743              	.LBE2833:
 4744              	.LBE2836:
 4745              	.LBE2840:
 4746              	.LBB2841:
 4747              		.loc 1 600 0
 4748 1cc0 38610028 		addi 3,1,40
 4749 1cc4 48000001 		bl _ZNSsD1Ev
 4750 1cc8 7FE3FB78 		mr 3,31
 4751 1ccc 48000001 		bl _Unwind_Resume
 4752              	.LVL339:
 4753              	.L408:
 4754 1cd0 7C7F1B78 		mr 31,3
 4755              		.loc 1 607 0
 4756 1cd4 38610024 		addi 3,1,36
 4757 1cd8 48000001 		bl _ZNSsD1Ev
 4758 1cdc 7FE3FB78 		mr 3,31
 4759 1ce0 48000001 		bl _Unwind_Resume
 4760              	.LVL340:
 4761              	.L411:
 4762 1ce4 7C7F1B78 		mr 31,3
 4763              	.LBE2841:
 4764              	.LBB2842:
 4765              	.LBB2837:
 4766              	.LBB2834:
 4767              		.loc 1 638 0
 4768 1ce8 38610018 		addi 3,1,24
 4769 1cec 48000001 		bl _ZNSsD1Ev
 4770 1cf0 7FE3FB78 		mr 3,31
 4771 1cf4 48000001 		bl _Unwind_Resume
 4772              	.LVL341:
 4773              	.L423:
 4774              	.LBB2830:
 4775              	.LBB2827:
 4776              	.LBB2826:
 4777              	.LBB2825:
 4778              	.LBB2824:
 4779              	.LBB2818:
 4780              	.LBB2819:
 4781              	.LBB2820:
 4782              		.loc 3 66 0
 4783 1cf8 8169FFFC 		lwz 11,-4(9)
 4784              	.LVL342:
 4785              	.LBE2820:
 4786              	.LBE2819:
 4787              	.LBE2818:
 4788              		.loc 2 240 0
 4789 1cfc 2F8B0000 		cmpwi 7,11,0
 4790              	.LBB2823:
 4791              	.LBB2822:
 4792              	.LBB2821:
 4793              		.loc 3 67 0
 4794 1d00 396BFFFF 		addi 11,11,-1
 4795 1d04 9169FFFC 		stw 11,-4(9)
 4796              	.LBE2821:
 4797              	.LBE2822:
 4798              	.LBE2823:
 4799              		.loc 2 240 0
 4800 1d08 419DFF18 		bgt+ 7,.L381
 4801              		.loc 2 244 0
 4802 1d0c 3881000A 		addi 4,1,10
 4803 1d10 48000001 		bl _ZNSs4_Rep10_M_destroyERKSaIcE
 4804              	.LVL343:
 4805 1d14 4BFFFF0C 		b .L381
 4806              	.LVL344:
 4807              	.L410:
 4808 1d18 7C7F1B78 		mr 31,3
 4809              	.LBE2824:
 4810              	.LBE2825:
 4811              	.LBE2826:
 4812              	.LBE2827:
 4813              	.LBE2830:
 4814              		.loc 1 627 0
 4815 1d1c 3861001C 		addi 3,1,28
 4816 1d20 48000001 		bl _ZNSsD1Ev
 4817 1d24 7FE3FB78 		mr 3,31
 4818 1d28 48000001 		bl _Unwind_Resume
 4819              	.LVL345:
 4820              	.L422:
 4821              	.LBB2831:
 4822              	.LBB2809:
 4823              	.LBB2808:
 4824              	.LBB2807:
 4825              	.LBB2806:
 4826              	.LBB2800:
 4827              	.LBB2801:
 4828              	.LBB2802:
 4829              		.loc 3 66 0
 4830 1d2c 8169FFFC 		lwz 11,-4(9)
 4831              	.LVL346:
 4832              	.LBE2802:
 4833              	.LBE2801:
 4834              	.LBE2800:
 4835              		.loc 2 240 0
 4836 1d30 2F8B0000 		cmpwi 7,11,0
 4837              	.LBB2805:
 4838              	.LBB2804:
 4839              	.LBB2803:
 4840              		.loc 3 67 0
 4841 1d34 396BFFFF 		addi 11,11,-1
 4842 1d38 9169FFFC 		stw 11,-4(9)
 4843              	.LBE2803:
 4844              	.LBE2804:
 4845              	.LBE2805:
 4846              		.loc 2 240 0
 4847 1d3c 419DFE2C 		bgt+ 7,.L397
 4848              		.loc 2 244 0
 4849 1d40 38810008 		addi 4,1,8
 4850 1d44 48000001 		bl _ZNSs4_Rep10_M_destroyERKSaIcE
 4851              	.LVL347:
 4852 1d48 4BFFFE20 		b .L397
 4853              	.LVL348:
 4854              	.L412:
 4855 1d4c 7C7F1B78 		mr 31,3
 4856              	.LBE2806:
 4857              	.LBE2807:
 4858              	.LBE2808:
 4859              	.LBE2809:
 4860              	.LBE2831:
 4861              		.loc 1 641 0
 4862 1d50 38610014 		addi 3,1,20
 4863 1d54 48000001 		bl _ZNSsD1Ev
 4864 1d58 7FE3FB78 		mr 3,31
 4865 1d5c 48000001 		bl _Unwind_Resume
 4866              	.LEHE53:
 4867              	.LBE2834:
 4868              	.LBE2837:
 4869              	.LBE2842:
 4870              	.LBE2843:
 4871              		.cfi_endproc
 4872              	.LFE1579:
 4873              		.section	.gcc_except_table
 4874              	.LLSDA1579:
 4875 00fb FF       		.byte	0xff
 4876 00fc FF       		.byte	0xff
 4877 00fd 01       		.byte	0x1
 4878 00fe 49       		.uleb128 .LLSDACSE1579-.LLSDACSB1579
 4879              	.LLSDACSB1579:
 4880 00ff C001     		.uleb128 .LEHB41-.LFB1579
 4881 0101 30       		.uleb128 .LEHE41-.LEHB41
 4882 0102 00       		.uleb128 0
 4883 0103 00       		.uleb128 0
 4884 0104 F401     		.uleb128 .LEHB42-.LFB1579
 4885 0106 04       		.uleb128 .LEHE42-.LEHB42
 4886 0107 8409     		.uleb128 .L407-.LFB1579
 4887 0109 00       		.uleb128 0
 4888 010a BC02     		.uleb128 .LEHB43-.LFB1579
 4889 010c 30       		.uleb128 .LEHE43-.LEHB43
 4890 010d 00       		.uleb128 0
 4891 010e 00       		.uleb128 0
 4892 010f F002     		.uleb128 .LEHB44-.LFB1579
 4893 0111 04       		.uleb128 .LEHE44-.LEHB44
 4894 0112 9809     		.uleb128 .L408-.LFB1579
 4895 0114 00       		.uleb128 0
 4896 0115 9C04     		.uleb128 .LEHB45-.LFB1579
 4897 0117 30       		.uleb128 .LEHE45-.LEHB45
 4898 0118 00       		.uleb128 0
 4899 0119 00       		.uleb128 0
 4900 011a D004     		.uleb128 .LEHB46-.LFB1579
 4901 011c 04       		.uleb128 .LEHE46-.LEHB46
 4902 011d F008     		.uleb128 .L409-.LFB1579
 4903 011f 00       		.uleb128 0
 4904 0120 9805     		.uleb128 .LEHB47-.LFB1579
 4905 0122 30       		.uleb128 .LEHE47-.LEHB47
 4906 0123 00       		.uleb128 0
 4907 0124 00       		.uleb128 0
 4908 0125 CC05     		.uleb128 .LEHB48-.LFB1579
 4909 0127 04       		.uleb128 .LEHE48-.LEHB48
 4910 0128 AC09     		.uleb128 .L411-.LFB1579
 4911 012a 00       		.uleb128 0
 4912 012b 8006     		.uleb128 .LEHB49-.LFB1579
 4913 012d 18       		.uleb128 .LEHE49-.LEHB49
 4914 012e 00       		.uleb128 0
 4915 012f 00       		.uleb128 0
 4916 0130 9C06     		.uleb128 .LEHB50-.LFB1579
 4917 0132 04       		.uleb128 .LEHE50-.LEHB50
 4918 0133 940A     		.uleb128 .L412-.LFB1579
 4919 0135 00       		.uleb128 0
 4920 0136 BC06     		.uleb128 .LEHB51-.LFB1579
 4921 0138 9401     		.uleb128 .LEHE51-.LEHB51
 4922 013a 00       		.uleb128 0
 4923 013b 00       		.uleb128 0
 4924 013c D407     		.uleb128 .LEHB52-.LFB1579
 4925 013e 04       		.uleb128 .LEHE52-.LEHB52
 4926 013f E009     		.uleb128 .L410-.LFB1579
 4927 0141 00       		.uleb128 0
 4928 0142 F407     		.uleb128 .LEHB53-.LFB1579
 4929 0144 B402     		.uleb128 .LEHE53-.LEHB53
 4930 0146 00       		.uleb128 0
 4931 0147 00       		.uleb128 0
 4932              	.LLSDACSE1579:
 4933              		.section	".text"
 4934              		.size	_ZN9CSettings10FindConfigEv, .-_ZN9CSettings10FindConfigEv
 4935              		.align 2
 4936              		.globl _ZN9CSettings4SaveEv
 4937              		.type	_ZN9CSettings4SaveEv, @function
 4938              	_ZN9CSettings4SaveEv:
 4939              	.LFB1577:
 4940              		.loc 1 210 0
 4941              		.cfi_startproc
 4942              		.cfi_personality 0,__gxx_personality_v0
 4943              		.cfi_lsda 0,.LLSDA1577
 4944              	.LVL349:
 4945 1d60 7C0802A6 		mflr 0
 4946 1d64 9421FE78 		stwu 1,-392(1)
 4947              	.LCFI30:
 4948              		.cfi_def_cfa_offset 392
 4949              		.cfi_register 65, 0
 4950 1d68 93A1017C 		stw 29,380(1)
 4951              	.LBB2870:
 4952              		.loc 1 211 0
 4953 1d6c 3BA00000 		li 29,0
 4954              		.cfi_offset 29, -12
 4955              	.LBE2870:
 4956              		.loc 1 210 0
 4957 1d70 93E10184 		stw 31,388(1)
 4958 1d74 7C7F1B78 		mr 31,3
 4959              		.cfi_offset 31, -4
 4960 1d78 9001018C 		stw 0,396(1)
 4961 1d7c 93C10180 		stw 30,384(1)
 4962              	.LEHB54:
 4963              	.LBB2897:
 4964              		.loc 1 211 0
 4965              		.cfi_offset 30, -8
 4966              		.cfi_offset 65, 4
 4967 1d80 48000001 		bl _ZN9CSettings10FindConfigEv
 4968              	.LVL350:
 4969 1d84 2F830000 		cmpwi 7,3,0
 4970 1d88 409E0024 		bne- 7,.L439
 4971              	.L425:
 4972              	.LBE2897:
 4973              		.loc 1 295 0
 4974 1d8c 8001018C 		lwz 0,396(1)
 4975 1d90 7FA3EB78 		mr 3,29
 4976 1d94 83C10180 		lwz 30,384(1)
 4977 1d98 7C0803A6 		mtlr 0
 4978 1d9c 83A1017C 		lwz 29,380(1)
 4979 1da0 83E10184 		lwz 31,388(1)
 4980              	.LVL351:
 4981 1da4 38210188 		addi 1,1,392
 4982              		.cfi_remember_state
 4983              	.LCFI31:
 4984              		.cfi_def_cfa_offset 0
 4985              		.cfi_restore 31
 4986              		.cfi_restore 30
 4987              		.cfi_restore 29
 4988 1da8 4E800020 		blr
 4989              	.LVL352:
 4990              	.L439:
 4991              	.LCFI32:
 4992              		.cfi_restore_state
 4993              	.LBB2898:
 4994              		.loc 1 214 0
 4995 1dac 3BDF000E 		addi 30,31,14
 4996 1db0 3CA00000 		lis 5,.LC85@ha
 4997 1db4 3880012C 		li 4,300
 4998 1db8 38A503FC 		la 5,.LC85@l(5)
 4999 1dbc 7FC6F378 		mr 6,30
 5000 1dc0 38610044 		addi 3,1,68
 5001 1dc4 4CC63182 		crxor 6,6,6
 5002 1dc8 48000001 		bl snprintf
 5003              		.loc 1 216 0
 5004 1dcc 3861000C 		addi 3,1,12
 5005 1dd0 7FC4F378 		mr 4,30
 5006 1dd4 38A10009 		addi 5,1,9
 5007 1dd8 48000001 		bl _ZNSsC1EPKcRKSaIcE
 5008              	.LEHE54:
 5009 1ddc 3861000C 		addi 3,1,12
 5010              	.LEHB55:
 5011 1de0 48000001 		bl _Z15CreateSubfolderSs
 5012              	.LEHE55:
 5013              	.LBB2871:
 5014              	.LBB2872:
 5015              	.LBB2873:
 5016              	.LBB2874:
 5017              	.LBB2875:
 5018              	.LBB2876:
 5019              		.loc 2 288 0
 5020 1de4 8121000C 		lwz 9,12(1)
 5021              	.LBE2876:
 5022              	.LBE2875:
 5023              	.LBE2874:
 5024              	.LBB2877:
 5025              	.LBB2878:
 5026              		.loc 2 235 0
 5027 1de8 3D600000 		lis 11,_ZNSs4_Rep20_S_empty_rep_storageE@ha
 5028              	.LBE2878:
 5029              	.LBE2877:
 5030              	.LBE2873:
 5031              	.LBE2872:
 5032              	.LBE2871:
 5033              		.loc 1 216 0
 5034 1dec 7C7E1B78 		mr 30,3
 5035              	.LVL353:
 5036              	.LBB2895:
 5037              	.LBB2893:
 5038              	.LBB2891:
 5039              	.LBB2888:
 5040              	.LBB2885:
 5041              		.loc 2 235 0
 5042 1df0 380B0000 		la 0,_ZNSs4_Rep20_S_empty_rep_storageE@l(11)
 5043              	.LBE2885:
 5044              	.LBE2888:
 5045              		.loc 2 534 0
 5046 1df4 3869FFF4 		addi 3,9,-12
 5047              	.LVL354:
 5048              	.LBB2889:
 5049              	.LBB2886:
 5050              		.loc 2 235 0
 5051 1df8 7F830000 		cmpw 7,3,0
 5052 1dfc 409E04A4 		bne- 7,.L440
 5053              	.LVL355:
 5054              	.L433:
 5055              	.LBE2886:
 5056              	.LBE2889:
 5057              	.LBE2891:
 5058              	.LBE2893:
 5059              	.LBE2895:
 5060              		.loc 1 216 0 discriminator 2
 5061 1e00 2F9E0000 		cmpwi 7,30,0
 5062 1e04 3BA00000 		li 29,0
 5063 1e08 419EFF84 		beq+ 7,.L425
 5064              		.loc 1 218 0
 5065 1e0c 3C800000 		lis 4,.LC89@ha
 5066 1e10 38610044 		addi 3,1,68
 5067 1e14 3884043C 		la 4,.LC89@l(4)
 5068              	.LEHB56:
 5069 1e18 48000001 		bl fopen
 5070              	.LVL356:
 5071              		.loc 1 219 0
 5072 1e1c 7C7E1B79 		mr. 30,3
 5073 1e20 41A2FF6C 		beq- 0,.L425
 5074              		.loc 1 221 0
 5075 1e24 48000001 		bl GetRev
 5076              	.LVL357:
 5077 1e28 3C800000 		lis 4,.LC90@ha
 5078 1e2c 7C651B78 		mr 5,3
 5079 1e30 38840440 		la 4,.LC90@l(4)
 5080 1e34 7FC3F378 		mr 3,30
 5081              		.loc 1 294 0
 5082 1e38 3BA00001 		li 29,1
 5083              		.loc 1 221 0
 5084 1e3c 4CC63182 		crxor 6,6,6
 5085 1e40 48000001 		bl fprintf
 5086              		.loc 1 222 0
 5087 1e44 3C600000 		lis 3,.LC91@ha
 5088 1e48 7FC6F378 		mr 6,30
 5089 1e4c 38800001 		li 4,1
 5090 1e50 38A0002F 		li 5,47
 5091 1e54 38630470 		la 3,.LC91@l(3)
 5092 1e58 48000001 		bl fwrite
 5093              		.loc 1 224 0
 5094 1e5c A8BF0060 		lha 5,96(31)
 5095 1e60 3C800000 		lis 4,.LC92@ha
 5096 1e64 7FC3F378 		mr 3,30
 5097 1e68 388404A0 		la 4,.LC92@l(4)
 5098 1e6c 4CC63182 		crxor 6,6,6
 5099 1e70 48000001 		bl fprintf
 5100              		.loc 1 225 0
 5101 1e74 A8BF0062 		lha 5,98(31)
 5102 1e78 3C800000 		lis 4,.LC93@ha
 5103 1e7c 7FC3F378 		mr 3,30
 5104 1e80 388404B4 		la 4,.LC93@l(4)
 5105 1e84 4CC63182 		crxor 6,6,6
 5106 1e88 48000001 		bl fprintf
 5107              		.loc 1 226 0
 5108 1e8c A8BF0064 		lha 5,100(31)
 5109 1e90 3C800000 		lis 4,.LC94@ha
 5110 1e94 7FC3F378 		mr 3,30
 5111 1e98 388404C8 		la 4,.LC94@l(4)
 5112 1e9c 4CC63182 		crxor 6,6,6
 5113 1ea0 48000001 		bl fprintf
 5114              		.loc 1 227 0
 5115 1ea4 A8BF0066 		lha 5,102(31)
 5116 1ea8 3C800000 		lis 4,.LC95@ha
 5117 1eac 7FC3F378 		mr 3,30
 5118 1eb0 388404D8 		la 4,.LC95@l(4)
 5119 1eb4 4CC63182 		crxor 6,6,6
 5120 1eb8 48000001 		bl fprintf
 5121              		.loc 1 228 0
 5122 1ebc A8BF0068 		lha 5,104(31)
 5123 1ec0 3C800000 		lis 4,.LC96@ha
 5124 1ec4 7FC3F378 		mr 3,30
 5125 1ec8 388404E8 		la 4,.LC96@l(4)
 5126 1ecc 4CC63182 		crxor 6,6,6
 5127 1ed0 48000001 		bl fprintf
 5128              		.loc 1 229 0
 5129 1ed4 80BF006C 		lwz 5,108(31)
 5130 1ed8 3C800000 		lis 4,.LC97@ha
 5131 1edc 7FC3F378 		mr 3,30
 5132 1ee0 388404F8 		la 4,.LC97@l(4)
 5133 1ee4 4CC63182 		crxor 6,6,6
 5134 1ee8 48000001 		bl fprintf
 5135              		.loc 1 230 0
 5136 1eec C03F0070 		lfs 1,112(31)
 5137 1ef0 3C800000 		lis 4,.LC98@ha
 5138 1ef4 7FC3F378 		mr 3,30
 5139 1ef8 3884050C 		la 4,.LC98@l(4)
 5140 1efc 4CC63242 		creqv 6,6,6
 5141 1f00 48000001 		bl fprintf
 5142              		.loc 1 231 0
 5143 1f04 C03F0074 		lfs 1,116(31)
 5144 1f08 3C800000 		lis 4,.LC99@ha
 5145 1f0c 7FC3F378 		mr 3,30
 5146 1f10 38840528 		la 4,.LC99@l(4)
 5147 1f14 4CC63242 		creqv 6,6,6
 5148 1f18 48000001 		bl fprintf
 5149              		.loc 1 232 0
 5150 1f1c C03F0078 		lfs 1,120(31)
 5151 1f20 3C800000 		lis 4,.LC100@ha
 5152 1f24 7FC3F378 		mr 3,30
 5153 1f28 38840548 		la 4,.LC100@l(4)
 5154 1f2c 4CC63242 		creqv 6,6,6
 5155 1f30 48000001 		bl fprintf
 5156              		.loc 1 233 0
 5157 1f34 A8BF007C 		lha 5,124(31)
 5158 1f38 3C800000 		lis 4,.LC101@ha
 5159 1f3c 7FC3F378 		mr 3,30
 5160 1f40 38840560 		la 4,.LC101@l(4)
 5161 1f44 4CC63182 		crxor 6,6,6
 5162 1f48 48000001 		bl fprintf
 5163              		.loc 1 234 0
 5164 1f4c A8BF007E 		lha 5,126(31)
 5165 1f50 3C800000 		lis 4,.LC102@ha
 5166 1f54 7FC3F378 		mr 3,30
 5167 1f58 38840574 		la 4,.LC102@l(4)
 5168 1f5c 4CC63182 		crxor 6,6,6
 5169 1f60 48000001 		bl fprintf
 5170              		.loc 1 235 0
 5171 1f64 A8BF0080 		lha 5,128(31)
 5172 1f68 3C800000 		lis 4,.LC103@ha
 5173 1f6c 7FC3F378 		mr 3,30
 5174 1f70 38840590 		la 4,.LC103@l(4)
 5175 1f74 4CC63182 		crxor 6,6,6
 5176 1f78 48000001 		bl fprintf
 5177              		.loc 1 236 0
 5178 1f7c 80BF0084 		lwz 5,132(31)
 5179 1f80 3C800000 		lis 4,.LC104@ha
 5180 1f84 7FC3F378 		mr 3,30
 5181 1f88 388405A8 		la 4,.LC104@l(4)
 5182 1f8c 4CC63182 		crxor 6,6,6
 5183 1f90 48000001 		bl fprintf
 5184              		.loc 1 237 0
 5185 1f94 3C800000 		lis 4,.LC105@ha
 5186 1f98 38BF0526 		addi 5,31,1318
 5187 1f9c 388405C0 		la 4,.LC105@l(4)
 5188 1fa0 7FC3F378 		mr 3,30
 5189 1fa4 4CC63182 		crxor 6,6,6
 5190 1fa8 48000001 		bl fprintf
 5191              		.loc 1 238 0
 5192 1fac 3C800000 		lis 4,.LC106@ha
 5193 1fb0 38BF0620 		addi 5,31,1568
 5194 1fb4 388405D4 		la 4,.LC106@l(4)
 5195 1fb8 7FC3F378 		mr 3,30
 5196 1fbc 4CC63182 		crxor 6,6,6
 5197 1fc0 48000001 		bl fprintf
 5198              		.loc 1 239 0
 5199 1fc4 A8BF0A08 		lha 5,2568(31)
 5200 1fc8 3C800000 		lis 4,.LC107@ha
 5201 1fcc 7FC3F378 		mr 3,30
 5202 1fd0 388405E8 		la 4,.LC107@l(4)
 5203 1fd4 4CC63182 		crxor 6,6,6
 5204 1fd8 48000001 		bl fprintf
 5205              		.loc 1 240 0
 5206 1fdc 3C800000 		lis 4,.LC108@ha
 5207 1fe0 38BF090E 		addi 5,31,2318
 5208 1fe4 38840600 		la 4,.LC108@l(4)
 5209 1fe8 7FC3F378 		mr 3,30
 5210 1fec 4CC63182 		crxor 6,6,6
 5211 1ff0 48000001 		bl fprintf
 5212              		.loc 1 241 0
 5213 1ff4 A8BF0A0A 		lha 5,2570(31)
 5214 1ff8 3C800000 		lis 4,.LC109@ha
 5215 1ffc 7FC3F378 		mr 3,30
 5216 2000 38840618 		la 4,.LC109@l(4)
 5217 2004 4CC63182 		crxor 6,6,6
 5218 2008 48000001 		bl fprintf
 5219              		.loc 1 242 0
 5220 200c A8BF008A 		lha 5,138(31)
 5221 2010 3C800000 		lis 4,.LC110@ha
 5222 2014 7FC3F378 		mr 3,30
 5223 2018 38840624 		la 4,.LC110@l(4)
 5224 201c 4CC63182 		crxor 6,6,6
 5225 2020 48000001 		bl fprintf
 5226              		.loc 1 243 0
 5227 2024 A8BF008C 		lha 5,140(31)
 5228 2028 3C800000 		lis 4,.LC111@ha
 5229 202c 7FC3F378 		mr 3,30
 5230 2030 38840638 		la 4,.LC111@l(4)
 5231 2034 4CC63182 		crxor 6,6,6
 5232 2038 48000001 		bl fprintf
 5233              		.loc 1 244 0
 5234 203c A8BF008E 		lha 5,142(31)
 5235 2040 3C800000 		lis 4,.LC112@ha
 5236 2044 7FC3F378 		mr 3,30
 5237 2048 38840648 		la 4,.LC112@l(4)
 5238 204c 4CC63182 		crxor 6,6,6
 5239 2050 48000001 		bl fprintf
 5240              		.loc 1 245 0
 5241 2054 A8BF04EA 		lha 5,1258(31)
 5242 2058 3C800000 		lis 4,.LC113@ha
 5243 205c 7FC3F378 		mr 3,30
 5244 2060 38840660 		la 4,.LC113@l(4)
 5245 2064 4CC63182 		crxor 6,6,6
 5246 2068 48000001 		bl fprintf
 5247              		.loc 1 247 0
 5248 206c 387F04EC 		addi 3,31,1260
 5249 2070 38810010 		addi 4,1,16
 5250 2074 48000001 		bl EncryptString
 5251              		.loc 1 248 0
 5252 2078 3C800000 		lis 4,.LC114@ha
 5253 207c 38A10010 		addi 5,1,16
 5254 2080 38840670 		la 4,.LC114@l(4)
 5255 2084 7FC3F378 		mr 3,30
 5256 2088 4CC63182 		crxor 6,6,6
 5257 208c 48000001 		bl fprintf
 5258              		.loc 1 249 0
 5259 2090 A8BF0500 		lha 5,1280(31)
 5260 2094 3C800000 		lis 4,.LC115@ha
 5261 2098 7FC3F378 		mr 3,30
 5262 209c 38840680 		la 4,.LC115@l(4)
 5263 20a0 4CC63182 		crxor 6,6,6
 5264 20a4 48000001 		bl fprintf
 5265              		.loc 1 250 0
 5266 20a8 80BF0504 		lwz 5,1284(31)
 5267 20ac 3C800000 		lis 4,.LC116@ha
 5268 20b0 7FC3F378 		mr 3,30
 5269 20b4 38840698 		la 4,.LC116@l(4)
 5270 20b8 4CC63182 		crxor 6,6,6
 5271 20bc 48000001 		bl fprintf
 5272              		.loc 1 252 0
 5273 20c0 3C800000 		lis 4,.LC117@ha
 5274 20c4 38BF0814 		addi 5,31,2068
 5275 20c8 388406B0 		la 4,.LC117@l(4)
 5276 20cc 7FC3F378 		mr 3,30
 5277 20d0 4CC63182 		crxor 6,6,6
 5278 20d4 48000001 		bl fprintf
 5279              		.loc 1 253 0
 5280 20d8 3C800000 		lis 4,.LC118@ha
 5281 20dc 38BF0508 		addi 5,31,1288
 5282 20e0 388406C4 		la 4,.LC118@l(4)
 5283 20e4 7FC3F378 		mr 3,30
 5284 20e8 4CC63182 		crxor 6,6,6
 5285 20ec 48000001 		bl fprintf
 5286              		.loc 1 255 0
 5287 20f0 3C800000 		lis 4,.LC119@ha
 5288 20f4 38BF03E2 		addi 5,31,994
 5289 20f8 388406E0 		la 4,.LC119@l(4)
 5290 20fc 7FC3F378 		mr 3,30
 5291 2100 4CC63182 		crxor 6,6,6
 5292 2104 48000001 		bl fprintf
 5293              		.loc 1 256 0
 5294 2108 80BF04DC 		lwz 5,1244(31)
 5295 210c 3C800000 		lis 4,.LC120@ha
 5296 2110 7FC3F378 		mr 3,30
 5297 2114 388406F4 		la 4,.LC120@l(4)
 5298 2118 4CC63182 		crxor 6,6,6
 5299 211c 48000001 		bl fprintf
 5300              		.loc 1 257 0
 5301 2120 80BF04E0 		lwz 5,1248(31)
 5302 2124 3C800000 		lis 4,.LC121@ha
 5303 2128 7FC3F378 		mr 3,30
 5304 212c 38840708 		la 4,.LC121@l(4)
 5305 2130 4CC63182 		crxor 6,6,6
 5306 2134 48000001 		bl fprintf
 5307              		.loc 1 258 0
 5308 2138 80BF04E4 		lwz 5,1252(31)
 5309 213c 3C800000 		lis 4,.LC122@ha
 5310 2140 7FC3F378 		mr 3,30
 5311 2144 3884071C 		la 4,.LC122@l(4)
 5312 2148 4CC63182 		crxor 6,6,6
 5313 214c 48000001 		bl fprintf
 5314              		.loc 1 259 0
 5315 2150 A8BF04E8 		lha 5,1256(31)
 5316 2154 3C800000 		lis 4,.LC123@ha
 5317 2158 7FC3F378 		mr 3,30
 5318 215c 38840734 		la 4,.LC123@l(4)
 5319 2160 4CC63182 		crxor 6,6,6
 5320 2164 48000001 		bl fprintf
 5321              		.loc 1 261 0
 5322 2168 3C800000 		lis 4,.LC124@ha
 5323 216c 38BF01EE 		addi 5,31,494
 5324 2170 38840748 		la 4,.LC124@l(4)
 5325 2174 7FC3F378 		mr 3,30
 5326 2178 4CC63182 		crxor 6,6,6
 5327 217c 48000001 		bl fprintf
 5328              		.loc 1 262 0
 5329 2180 3C800000 		lis 4,.LC125@ha
 5330 2184 38BF071A 		addi 5,31,1818
 5331 2188 3884075C 		la 4,.LC125@l(4)
 5332 218c 7FC3F378 		mr 3,30
 5333 2190 4CC63182 		crxor 6,6,6
 5334 2194 48000001 		bl fprintf
 5335              		.loc 1 263 0
 5336 2198 3C800000 		lis 4,.LC126@ha
 5337 219c 38BF02E8 		addi 5,31,744
 5338 21a0 38840774 		la 4,.LC126@l(4)
 5339 21a4 7FC3F378 		mr 3,30
 5340 21a8 4CC63182 		crxor 6,6,6
 5341 21ac 48000001 		bl fprintf
 5342              		.loc 1 264 0
 5343 21b0 3C800000 		lis 4,.LC127@ha
 5344 21b4 38BF0090 		addi 5,31,144
 5345 21b8 38840788 		la 4,.LC127@l(4)
 5346 21bc 7FC3F378 		mr 3,30
 5347 21c0 4CC63182 		crxor 6,6,6
 5348 21c4 48000001 		bl fprintf
 5349              		.loc 1 265 0
 5350 21c8 3C800000 		lis 4,.LC128@ha
 5351 21cc 38BF018A 		addi 5,31,394
 5352 21d0 3884079C 		la 4,.LC128@l(4)
 5353 21d4 7FC3F378 		mr 3,30
 5354 21d8 4CC63182 		crxor 6,6,6
 5355 21dc 48000001 		bl fprintf
 5356              		.loc 1 267 0
 5357 21e0 A8BF051C 		lha 5,1308(31)
 5358 21e4 3C800000 		lis 4,.LC129@ha
 5359 21e8 7FC3F378 		mr 3,30
 5360 21ec 388407AC 		la 4,.LC129@l(4)
 5361 21f0 4CC63182 		crxor 6,6,6
 5362 21f4 48000001 		bl fprintf
 5363              		.loc 1 268 0
 5364 21f8 A8BF051E 		lha 5,1310(31)
 5365 21fc 3C800000 		lis 4,.LC130@ha
 5366 2200 7FC3F378 		mr 3,30
 5367 2204 388407C0 		la 4,.LC130@l(4)
 5368 2208 4CC63182 		crxor 6,6,6
 5369 220c 48000001 		bl fprintf
 5370              		.loc 1 269 0
 5371 2210 A8BF0520 		lha 5,1312(31)
 5372 2214 3C800000 		lis 4,.LC131@ha
 5373 2218 7FC3F378 		mr 3,30
 5374 221c 388407D4 		la 4,.LC131@l(4)
 5375 2220 4CC63182 		crxor 6,6,6
 5376 2224 48000001 		bl fprintf
 5377              		.loc 1 270 0
 5378 2228 A8BF0522 		lha 5,1314(31)
 5379 222c 3C800000 		lis 4,.LC132@ha
 5380 2230 7FC3F378 		mr 3,30
 5381 2234 388407EC 		la 4,.LC132@l(4)
 5382 2238 4CC63182 		crxor 6,6,6
 5383 223c 48000001 		bl fprintf
 5384              		.loc 1 271 0
 5385 2240 A8BF0524 		lha 5,1316(31)
 5386 2244 3C800000 		lis 4,.LC133@ha
 5387 2248 7FC3F378 		mr 3,30
 5388 224c 38840804 		la 4,.LC133@l(4)
 5389 2250 4CC63182 		crxor 6,6,6
 5390 2254 48000001 		bl fprintf
 5391              		.loc 1 289 0
 5392 2258 A8BF0088 		lha 5,136(31)
 5393 225c 3C800000 		lis 4,.LC134@ha
 5394 2260 7FC3F378 		mr 3,30
 5395 2264 38840814 		la 4,.LC134@l(4)
 5396 2268 4CC63182 		crxor 6,6,6
 5397 226c 48000001 		bl fprintf
 5398              		.loc 1 290 0
 5399 2270 7FC3F378 		mr 3,30
 5400 2274 48000001 		bl fclose
 5401              		.loc 1 292 0
 5402 2278 387F0A38 		addi 3,31,2616
 5403 227c 48000001 		bl _ZN11AppControls4SaveEv
 5404              	.LBE2898:
 5405              		.loc 1 295 0
 5406 2280 8001018C 		lwz 0,396(1)
 5407 2284 7FA3EB78 		mr 3,29
 5408 2288 83C10180 		lwz 30,384(1)
 5409              	.LVL358:
 5410 228c 7C0803A6 		mtlr 0
 5411 2290 83A1017C 		lwz 29,380(1)
 5412 2294 83E10184 		lwz 31,388(1)
 5413              	.LVL359:
 5414 2298 38210188 		addi 1,1,392
 5415              		.cfi_remember_state
 5416              		.cfi_restore 29
 5417              		.cfi_restore 30
 5418              		.cfi_restore 31
 5419              	.LCFI33:
 5420              		.cfi_def_cfa_offset 0
 5421 229c 4E800020 		blr
 5422              	.LVL360:
 5423              	.L440:
 5424              	.LCFI34:
 5425              		.cfi_restore_state
 5426              	.LBB2899:
 5427              	.LBB2896:
 5428              	.LBB2894:
 5429              	.LBB2892:
 5430              	.LBB2890:
 5431              	.LBB2887:
 5432              	.LBB2879:
 5433              	.LBB2880:
 5434              	.LBB2881:
 5435              		.loc 3 66 0
 5436 22a0 8169FFFC 		lwz 11,-4(9)
 5437              	.LVL361:
 5438              	.LBE2881:
 5439              	.LBE2880:
 5440              	.LBE2879:
 5441              		.loc 2 240 0
 5442 22a4 2F8B0000 		cmpwi 7,11,0
 5443              	.LBB2884:
 5444              	.LBB2883:
 5445              	.LBB2882:
 5446              		.loc 3 67 0
 5447 22a8 396BFFFF 		addi 11,11,-1
 5448 22ac 9169FFFC 		stw 11,-4(9)
 5449              	.LBE2882:
 5450              	.LBE2883:
 5451              	.LBE2884:
 5452              		.loc 2 240 0
 5453 22b0 419DFB50 		bgt+ 7,.L433
 5454              		.loc 2 244 0
 5455 22b4 38810008 		addi 4,1,8
 5456 22b8 48000001 		bl _ZNSs4_Rep10_M_destroyERKSaIcE
 5457              	.LVL362:
 5458 22bc 4BFFFB44 		b .L433
 5459              	.LVL363:
 5460              	.L438:
 5461 22c0 7C7F1B78 		mr 31,3
 5462              	.LVL364:
 5463              	.LBE2887:
 5464              	.LBE2890:
 5465              	.LBE2892:
 5466              	.LBE2894:
 5467              	.LBE2896:
 5468              		.loc 1 216 0
 5469 22c4 3861000C 		addi 3,1,12
 5470 22c8 48000001 		bl _ZNSsD1Ev
 5471 22cc 7FE3FB78 		mr 3,31
 5472 22d0 48000001 		bl _Unwind_Resume
 5473              	.LEHE56:
 5474              	.LBE2899:
 5475              		.cfi_endproc
 5476              	.LFE1577:
 5477              		.section	.gcc_except_table
 5478              	.LLSDA1577:
 5479 0148 FF       		.byte	0xff
 5480 0149 FF       		.byte	0xff
 5481 014a 01       		.byte	0x1
 5482 014b 10       		.uleb128 .LLSDACSE1577-.LLSDACSB1577
 5483              	.LLSDACSB1577:
 5484 014c 20       		.uleb128 .LEHB54-.LFB1577
 5485 014d 5C       		.uleb128 .LEHE54-.LEHB54
 5486 014e 00       		.uleb128 0
 5487 014f 00       		.uleb128 0
 5488 0150 8001     		.uleb128 .LEHB55-.LFB1577
 5489 0152 04       		.uleb128 .LEHE55-.LEHB55
 5490 0153 E00A     		.uleb128 .L438-.LFB1577
 5491 0155 00       		.uleb128 0
 5492 0156 B801     		.uleb128 .LEHB56-.LFB1577
 5493 0158 BC09     		.uleb128 .LEHE56-.LEHB56
 5494 015a 00       		.uleb128 0
 5495 015b 00       		.uleb128 0
 5496              	.LLSDACSE1577:
 5497              		.section	".text"
 5498              		.size	_ZN9CSettings4SaveEv, .-_ZN9CSettings4SaveEv
 5499              		.align 2
 5500              		.globl _ZN9CSettings5ResetEv
 5501              		.type	_ZN9CSettings5ResetEv, @function
 5502              	_ZN9CSettings5ResetEv:
 5503              	.LFB1576:
 5504              		.loc 1 201 0
 5505              		.cfi_startproc
 5506              	.LVL365:
 5507 22d4 7C0802A6 		mflr 0
 5508 22d8 9421FFF0 		stwu 1,-16(1)
 5509              	.LCFI35:
 5510              		.cfi_def_cfa_offset 16
 5511              		.cfi_register 65, 0
 5512 22dc 93E1000C 		stw 31,12(1)
 5513 22e0 7C7F1B78 		mr 31,3
 5514              		.cfi_offset 31, -4
 5515 22e4 90010014 		stw 0,20(1)
 5516              		.loc 1 202 0
 5517              		.cfi_offset 65, 4
 5518 22e8 48000001 		bl _ZN9CSettings10SetDefaultEv
 5519              	.LVL366:
 5520              		.loc 1 207 0
 5521 22ec 80010014 		lwz 0,20(1)
 5522              		.loc 1 204 0
 5523 22f0 7FE3FB78 		mr 3,31
 5524              		.loc 1 207 0
 5525 22f4 83E1000C 		lwz 31,12(1)
 5526              	.LVL367:
 5527 22f8 7C0803A6 		mtlr 0
 5528 22fc 38210010 		addi 1,1,16
 5529              	.LCFI36:
 5530              		.cfi_def_cfa_offset 0
 5531              		.cfi_restore 31
 5532              		.loc 1 204 0
 5533 2300 48000000 		b _ZN9CSettings4SaveEv
 5534              	.LVL368:
 5535              		.cfi_endproc
 5536              	.LFE1576:
 5537              		.size	_ZN9CSettings5ResetEv, .-_ZN9CSettings5ResetEv
 5538              		.align 2
 5539              		.globl _ZN9CSettings4LoadEv
 5540              		.type	_ZN9CSettings4LoadEv, @function
 5541              	_ZN9CSettings4LoadEv:
 5542              	.LFB1574:
 5543              		.loc 1 143 0
 5544              		.cfi_startproc
 5545              		.cfi_personality 0,__gxx_personality_v0
 5546              		.cfi_lsda 0,.LLSDA1574
 5547              	.LVL369:
 5548 2304 9421EE90 		stwu 1,-4464(1)
 5549              	.LCFI37:
 5550              		.cfi_def_cfa_offset 4464
 5551 2308 7C0802A6 		mflr 0
 5552 230c 93E1116C 		stw 31,4460(1)
 5553 2310 7C7F1B78 		mr 31,3
 5554              		.cfi_offset 31, -4
 5555              		.cfi_register 65, 0
 5556 2314 90011174 		stw 0,4468(1)
 5557 2318 93A11164 		stw 29,4452(1)
 5558 231c 93C11168 		stw 30,4456(1)
 5559              	.LBB2964:
 5560              		.loc 1 150 0
 5561 2320 3BDF000E 		addi 30,31,14
 5562              		.cfi_offset 30, -8
 5563              		.cfi_offset 29, -12
 5564              		.cfi_offset 65, 4
 5565              	.LBE2964:
 5566              		.loc 1 143 0
 5567 2324 93211154 		stw 25,4436(1)
 5568 2328 93411158 		stw 26,4440(1)
 5569 232c 9361115C 		stw 27,4444(1)
 5570 2330 93811160 		stw 28,4448(1)
 5571              	.LEHB57:
 5572              	.LBB3021:
 5573              		.loc 1 144 0
 5574              		.cfi_offset 28, -16
 5575              		.cfi_offset 27, -20
 5576              		.cfi_offset 26, -24
 5577              		.cfi_offset 25, -28
 5578 2334 48000001 		bl _ZN9CSettings10FindConfigEv
 5579              	.LVL370:
 5580              		.loc 1 147 0
 5581 2338 7FE3FB78 		mr 3,31
 5582 233c 48000001 		bl _ZN9CSettings10SetDefaultEv
 5583              		.loc 1 150 0
 5584 2340 3CA00000 		lis 5,.LC85@ha
 5585 2344 3880012C 		li 4,300
 5586 2348 38A503FC 		la 5,.LC85@l(5)
 5587 234c 7FC6F378 		mr 6,30
 5588 2350 38610014 		addi 3,1,20
 5589 2354 4CC63182 		crxor 6,6,6
 5590 2358 48000001 		bl snprintf
 5591              		.loc 1 152 0
 5592 235c 3C800000 		lis 4,.LC135@ha
 5593 2360 38610014 		addi 3,1,20
 5594 2364 38840824 		la 4,.LC135@l(4)
 5595 2368 48000001 		bl fopen
 5596              	.LVL371:
 5597              		.loc 1 153 0
 5598 236c 7C7D1B79 		mr. 29,3
 5599 2370 418202D8 		beq- 0,.L479
 5600              	.LVL372:
 5601              	.L444:
 5602              	.LBB2965:
 5603              	.LBB2966:
 5604              		.loc 1 184 0
 5605 2374 38610140 		addi 3,1,320
 5606 2378 388000FF 		li 4,255
 5607 237c 7FA5EB78 		mr 5,29
 5608 2380 48000001 		bl fgets
 5609 2384 2F830000 		cmpwi 7,3,0
 5610 2388 419E0258 		beq- 7,.L496
 5611              	.LBB2967:
 5612              		.loc 1 186 0
 5613 238c 3C800000 		lis 4,.LC38@ha
 5614 2390 38610140 		addi 3,1,320
 5615 2394 38840188 		la 4,.LC38@l(4)
 5616 2398 48000001 		bl strcasestr
 5617              	.LVL373:
 5618              		.loc 1 187 0
 5619 239c 2C030000 		cmpwi 0,3,0
 5620 23a0 4182FFD4 		beq+ 0,.L444
 5621              	.LVL374:
 5622              		.loc 1 190 0
 5623 23a4 38630015 		addi 3,3,21
 5624              	.LVL375:
 5625 23a8 48000001 		bl atoi
 5626              	.LVL376:
 5627 23ac 7C7C1B78 		mr 28,3
 5628              	.LVL377:
 5629              	.LBE2967:
 5630              		.loc 1 195 0
 5631 23b0 7FA3EB78 		mr 3,29
 5632              	.LVL378:
 5633 23b4 48000001 		bl rewind
 5634              	.LBE2966:
 5635              	.LBE2965:
 5636              		.loc 1 155 0
 5637 23b8 2F9C007E 		cmpwi 7,28,126
 5638 23bc 409D022C 		ble- 7,.L445
 5639              	.LVL379:
 5640              	.L494:
 5641              		.loc 1 164 0 discriminator 1
 5642 23c0 38610D40 		addi 3,1,3392
 5643 23c4 38800400 		li 4,1024
 5644 23c8 7FA5EB78 		mr 5,29
 5645 23cc 48000001 		bl fgets
 5646 23d0 2F830000 		cmpwi 7,3,0
 5647 23d4 419E019C 		beq- 7,.L497
 5648              	.L461:
 5649              		.loc 1 166 0
 5650 23d8 88010D40 		lbz 0,3392(1)
 5651 23dc 2F800023 		cmpwi 7,0,35
 5652 23e0 41BEFFE0 		beq- 7,.L494
 5653              	.LVL380:
 5654              	.LBB2969:
 5655              	.LBB2970:
 5656              		.loc 1 657 0
 5657 23e4 38800400 		li 4,1024
 5658 23e8 38A10D40 		addi 5,1,3392
 5659              	.LVL381:
 5660 23ec 38610940 		addi 3,1,2368
 5661 23f0 4CC63182 		crxor 6,6,6
 5662 23f4 48000001 		bl snprintf
 5663              	.LVL382:
 5664              		.loc 1 659 0
 5665 23f8 38610940 		addi 3,1,2368
 5666 23fc 3880003D 		li 4,61
 5667 2400 48000001 		bl strchr
 5668              	.LVL383:
 5669              		.loc 1 661 0
 5670 2404 7C7B1B79 		mr. 27,3
 5671 2408 41A2FFB8 		beq- 0,.L494
 5672              		.loc 1 663 0
 5673 240c 38000000 		li 0,0
 5674              	.LBB2971:
 5675              	.LBB2972:
 5676              	.LBB2973:
 5677              		.loc 1 674 0
 5678 2410 3B410940 		addi 26,1,2368
 5679              	.LBE2973:
 5680              	.LBE2972:
 5681              	.LBE2971:
 5682              		.loc 1 663 0
 5683 2414 981B0000 		stb 0,0(27)
 5684              	.LVL384:
 5685              	.LBB2978:
 5686              	.LBB2976:
 5687              	.LBB2974:
 5688              		.loc 1 674 0
 5689 2418 88010940 		lbz 0,2368(1)
 5690 241c 2F800020 		cmpwi 7,0,32
 5691 2420 409E0018 		bne- 7,.L451
 5692 2424 7F49D378 		mr 9,26
 5693              	.L452:
 5694 2428 8C090001 		lbzu 0,1(9)
 5695              		.loc 1 675 0
 5696 242c 3B5A0001 		addi 26,26,1
 5697              	.LVL385:
 5698              		.loc 1 674 0
 5699 2430 2F800020 		cmpwi 7,0,32
 5700 2434 419EFFF4 		beq+ 7,.L452
 5701              	.L451:
 5702              		.loc 1 676 0
 5703 2438 7F43D378 		mr 3,26
 5704              	.LVL386:
 5705 243c 48000001 		bl strlen
 5706              	.LVL387:
 5707              		.loc 1 677 0
 5708 2440 7C601B79 		mr. 0,3
 5709 2444 90011148 		stw 0,4424(1)
 5710 2448 40810034 		ble- 0,.L453
 5711 244c 3F800000 		lis 28,.LC136@ha
 5712              		.loc 1 142 0
 5713 2450 7F3A0214 		add 25,26,0
 5714 2454 3B9C0828 		la 28,.LC136@l(28)
 5715              	.LVL388:
 5716              	.L454:
 5717              		.loc 1 677 0
 5718 2458 8C99FFFF 		lbzu 4,-1(25)
 5719 245c 7F83E378 		mr 3,28
 5720 2460 48000001 		bl strchr
 5721 2464 2F830000 		cmpwi 7,3,0
 5722 2468 419E0014 		beq- 7,.L453
 5723              	.LVL389:
 5724 246c 80011148 		lwz 0,4424(1)
 5725 2470 3520FFFF 		addic. 9,0,-1
 5726 2474 91211148 		stw 9,4424(1)
 5727 2478 4082FFE0 		bne+ 0,.L454
 5728              	.LVL390:
 5729              	.L453:
 5730              		.loc 1 680 0
 5731 247c 83811148 		lwz 28,4424(1)
 5732 2480 2F9C03FF 		cmpwi 7,28,1023
 5733 2484 409D0008 		ble- 7,.L455
 5734 2488 3B8003FF 		li 28,1023
 5735              	.L455:
 5736 248c 7F44D378 		mr 4,26
 5737 2490 7F85E378 		mr 5,28
 5738 2494 38610540 		addi 3,1,1344
 5739              	.LBE2974:
 5740              	.LBE2976:
 5741              	.LBE2978:
 5742              		.loc 1 666 0
 5743 2498 3B5B0001 		addi 26,27,1
 5744              	.LVL391:
 5745              	.LBB2979:
 5746              	.LBB2977:
 5747              	.LBB2975:
 5748              		.loc 1 680 0
 5749 249c 48000001 		bl strncpy
 5750              	.LVL392:
 5751              		.loc 1 681 0
 5752 24a0 38010008 		addi 0,1,8
 5753 24a4 7F80E214 		add 28,0,28
 5754 24a8 38000000 		li 0,0
 5755 24ac 981C0538 		stb 0,1336(28)
 5756              	.LBE2975:
 5757              	.LBE2977:
 5758              	.LBE2979:
 5759              	.LBB2980:
 5760              	.LBB2981:
 5761              	.LBB2982:
 5762              		.loc 1 674 0
 5763 24b0 881B0001 		lbz 0,1(27)
 5764 24b4 2F800020 		cmpwi 7,0,32
 5765 24b8 409E001C 		bne- 7,.L456
 5766              		.loc 1 142 0
 5767 24bc 7F49D378 		mr 9,26
 5768              	.LVL393:
 5769              	.L457:
 5770 24c0 39290001 		addi 9,9,1
 5771              	.LVL394:
 5772              		.loc 1 674 0
 5773 24c4 88090000 		lbz 0,0(9)
 5774              		.loc 1 142 0
 5775 24c8 7D3A4B78 		mr 26,9
 5776              	.LVL395:
 5777              		.loc 1 674 0
 5778 24cc 2F800020 		cmpwi 7,0,32
 5779 24d0 419EFFF0 		beq+ 7,.L457
 5780              	.LVL396:
 5781              	.L456:
 5782              		.loc 1 676 0
 5783 24d4 7F43D378 		mr 3,26
 5784 24d8 48000001 		bl strlen
 5785              	.LVL397:
 5786              		.loc 1 677 0
 5787 24dc 7C691B79 		mr. 9,3
 5788 24e0 91211148 		stw 9,4424(1)
 5789 24e4 40810034 		ble- 0,.L458
 5790 24e8 3F800000 		lis 28,.LC136@ha
 5791              		.loc 1 142 0
 5792 24ec 7F7A4A14 		add 27,26,9
 5793              	.LVL398:
 5794 24f0 3B9C0828 		la 28,.LC136@l(28)
 5795              	.LVL399:
 5796              	.L459:
 5797              		.loc 1 677 0
 5798 24f4 8C9BFFFF 		lbzu 4,-1(27)
 5799 24f8 7F83E378 		mr 3,28
 5800 24fc 48000001 		bl strchr
 5801              	.LVL400:
 5802 2500 2F830000 		cmpwi 7,3,0
 5803 2504 419E0014 		beq- 7,.L458
 5804              	.LVL401:
 5805 2508 80011148 		lwz 0,4424(1)
 5806 250c 3520FFFF 		addic. 9,0,-1
 5807 2510 91211148 		stw 9,4424(1)
 5808 2514 4082FFE0 		bne+ 0,.L459
 5809              	.LVL402:
 5810              	.L458:
 5811              		.loc 1 680 0
 5812 2518 83811148 		lwz 28,4424(1)
 5813 251c 2F9C03FF 		cmpwi 7,28,1023
 5814 2520 409D0008 		ble- 7,.L460
 5815 2524 3B8003FF 		li 28,1023
 5816              	.L460:
 5817 2528 7F85E378 		mr 5,28
 5818 252c 7F44D378 		mr 4,26
 5819 2530 38610140 		addi 3,1,320
 5820              	.LVL403:
 5821 2534 48000001 		bl strncpy
 5822              	.LVL404:
 5823              		.loc 1 681 0
 5824 2538 38010008 		addi 0,1,8
 5825 253c 7F80E214 		add 28,0,28
 5826 2540 38000000 		li 0,0
 5827 2544 981C0138 		stb 0,312(28)
 5828              	.LBE2982:
 5829              	.LBE2981:
 5830              	.LBE2980:
 5831              		.loc 1 668 0
 5832 2548 38810540 		addi 4,1,1344
 5833 254c 38A10140 		addi 5,1,320
 5834              	.LVL405:
 5835 2550 7FE3FB78 		mr 3,31
 5836 2554 48000001 		bl _ZN9CSettings10SetSettingEPcS0_
 5837              	.LVL406:
 5838              	.LBE2970:
 5839              	.LBE2969:
 5840              		.loc 1 164 0
 5841 2558 38610D40 		addi 3,1,3392
 5842              	.LVL407:
 5843 255c 38800400 		li 4,1024
 5844 2560 7FA5EB78 		mr 5,29
 5845 2564 48000001 		bl fgets
 5846              	.LVL408:
 5847 2568 2F830000 		cmpwi 7,3,0
 5848 256c 409EFE6C 		bne+ 7,.L461
 5849              	.LVL409:
 5850              	.L497:
 5851              		.loc 1 170 0
 5852 2570 7FA3EB78 		mr 3,29
 5853 2574 48000001 		bl fclose
 5854              		.loc 1 172 0
 5855 2578 3861000C 		addi 3,1,12
 5856 257c 7FC4F378 		mr 4,30
 5857 2580 38A1000A 		addi 5,1,10
 5858 2584 48000001 		bl _ZNSsC1EPKcRKSaIcE
 5859              	.LEHE57:
 5860 2588 387F0A38 		addi 3,31,2616
 5861 258c 3881000C 		addi 4,1,12
 5862              	.LEHB58:
 5863 2590 48000001 		bl _ZN11AppControls4LoadESs
 5864              	.LEHE58:
 5865              	.LVL410:
 5866              	.LBB2983:
 5867              	.LBB2984:
 5868              	.LBB2985:
 5869              	.LBB2986:
 5870              	.LBB2987:
 5871              	.LBB2988:
 5872              		.loc 2 288 0
 5873 2594 8121000C 		lwz 9,12(1)
 5874              	.LBE2988:
 5875              	.LBE2987:
 5876              	.LBE2986:
 5877              	.LBB2989:
 5878              	.LBB2990:
 5879              		.loc 2 235 0
 5880 2598 3D600000 		lis 11,_ZNSs4_Rep20_S_empty_rep_storageE@ha
 5881 259c 380B0000 		la 0,_ZNSs4_Rep20_S_empty_rep_storageE@l(11)
 5882              		.loc 1 174 0
 5883 25a0 3BE00001 		li 31,1
 5884              	.LVL411:
 5885              	.LBE2990:
 5886              	.LBE2989:
 5887              		.loc 2 534 0
 5888 25a4 3869FFF4 		addi 3,9,-12
 5889              	.LVL412:
 5890              	.LBB2999:
 5891              	.LBB2997:
 5892              		.loc 2 235 0
 5893 25a8 7F830000 		cmpw 7,3,0
 5894 25ac 409E00D0 		bne- 7,.L498
 5895              	.LVL413:
 5896              	.L476:
 5897              	.LBE2997:
 5898              	.LBE2999:
 5899              	.LBE2985:
 5900              	.LBE2984:
 5901              	.LBE2983:
 5902              	.LBE3021:
 5903              		.loc 1 175 0
 5904 25b0 80011174 		lwz 0,4468(1)
 5905 25b4 7FE3FB78 		mr 3,31
 5906 25b8 83211154 		lwz 25,4436(1)
 5907 25bc 7C0803A6 		mtlr 0
 5908 25c0 83411158 		lwz 26,4440(1)
 5909 25c4 8361115C 		lwz 27,4444(1)
 5910 25c8 83811160 		lwz 28,4448(1)
 5911 25cc 83A11164 		lwz 29,4452(1)
 5912              	.LVL414:
 5913 25d0 83C11168 		lwz 30,4456(1)
 5914              	.LVL415:
 5915 25d4 83E1116C 		lwz 31,4460(1)
 5916 25d8 38211170 		addi 1,1,4464
 5917              		.cfi_remember_state
 5918              	.LCFI38:
 5919              		.cfi_def_cfa_offset 0
 5920              		.cfi_restore 31
 5921              		.cfi_restore 30
 5922              		.cfi_restore 29
 5923              		.cfi_restore 28
 5924              		.cfi_restore 27
 5925              		.cfi_restore 26
 5926              		.cfi_restore 25
 5927 25dc 4E800020 		blr
 5928              	.LVL416:
 5929              	.L496:
 5930              	.LCFI39:
 5931              		.cfi_restore_state
 5932              	.LBB3022:
 5933              	.LBB3003:
 5934              	.LBB2968:
 5935              		.loc 1 195 0
 5936 25e0 7FA3EB78 		mr 3,29
 5937              	.LEHB59:
 5938 25e4 48000001 		bl rewind
 5939              	.LVL417:
 5940              	.L445:
 5941              	.LBE2968:
 5942              	.LBE3003:
 5943              		.loc 1 157 0
 5944 25e8 7FA3EB78 		mr 3,29
 5945 25ec 48000001 		bl fclose
 5946              		.loc 1 158 0
 5947 25f0 38610010 		addi 3,1,16
 5948 25f4 7FC4F378 		mr 4,30
 5949 25f8 38A1000B 		addi 5,1,11
 5950 25fc 48000001 		bl _ZNSsC1EPKcRKSaIcE
 5951              	.LEHE59:
 5952 2600 387F0A38 		addi 3,31,2616
 5953 2604 38810010 		addi 4,1,16
 5954              	.LEHB60:
 5955 2608 48000001 		bl _ZN11AppControls4LoadESs
 5956              	.LEHE60:
 5957              	.LVL418:
 5958              	.LBB3004:
 5959              	.LBB3005:
 5960              	.LBB3006:
 5961              	.LBB3007:
 5962              	.LBB3008:
 5963              	.LBB3009:
 5964              		.loc 2 288 0
 5965 260c 81210010 		lwz 9,16(1)
 5966              	.LBE3009:
 5967              	.LBE3008:
 5968              	.LBE3007:
 5969              	.LBB3010:
 5970              	.LBB3011:
 5971              		.loc 2 235 0
 5972 2610 3D600000 		lis 11,_ZNSs4_Rep20_S_empty_rep_storageE@ha
 5973 2614 380B0000 		la 0,_ZNSs4_Rep20_S_empty_rep_storageE@l(11)
 5974              		.loc 1 159 0
 5975 2618 3BE00000 		li 31,0
 5976              	.LVL419:
 5977              	.LBE3011:
 5978              	.LBE3010:
 5979              		.loc 2 534 0
 5980 261c 3869FFF4 		addi 3,9,-12
 5981              	.LVL420:
 5982              	.LBB3019:
 5983              	.LBB3018:
 5984              		.loc 2 235 0
 5985 2620 7F830000 		cmpw 7,3,0
 5986 2624 419EFF8C 		beq+ 7,.L476
 5987              	.LVL421:
 5988              	.LBB3012:
 5989              	.LBB3013:
 5990              	.LBB3014:
 5991              		.loc 3 66 0
 5992 2628 8169FFFC 		lwz 11,-4(9)
 5993              	.LVL422:
 5994              	.LBE3014:
 5995              	.LBE3013:
 5996              	.LBE3012:
 5997              		.loc 2 240 0
 5998 262c 2F8B0000 		cmpwi 7,11,0
 5999              	.LBB3017:
 6000              	.LBB3016:
 6001              	.LBB3015:
 6002              		.loc 3 67 0
 6003 2630 396BFFFF 		addi 11,11,-1
 6004 2634 9169FFFC 		stw 11,-4(9)
 6005              	.LBE3015:
 6006              	.LBE3016:
 6007              	.LBE3017:
 6008              		.loc 2 240 0
 6009 2638 419DFF78 		bgt+ 7,.L476
 6010              		.loc 2 244 0
 6011 263c 38810009 		addi 4,1,9
 6012 2640 48000001 		bl _ZNSs4_Rep10_M_destroyERKSaIcE
 6013              	.LVL423:
 6014 2644 4BFFFF6C 		b .L476
 6015              	.LVL424:
 6016              	.L479:
 6017              	.LBE3018:
 6018              	.LBE3019:
 6019              	.LBE3006:
 6020              	.LBE3005:
 6021              	.LBE3004:
 6022              	.LBE3022:
 6023              		.loc 1 175 0
 6024 2648 80011174 		lwz 0,4468(1)
 6025              	.LBB3023:
 6026              		.loc 1 153 0
 6027 264c 3BE00000 		li 31,0
 6028              	.LBE3023:
 6029              		.loc 1 175 0
 6030 2650 7FE3FB78 		mr 3,31
 6031 2654 83211154 		lwz 25,4436(1)
 6032 2658 7C0803A6 		mtlr 0
 6033 265c 83411158 		lwz 26,4440(1)
 6034 2660 8361115C 		lwz 27,4444(1)
 6035 2664 83811160 		lwz 28,4448(1)
 6036 2668 83A11164 		lwz 29,4452(1)
 6037              	.LVL425:
 6038 266c 83C11168 		lwz 30,4456(1)
 6039              	.LVL426:
 6040 2670 83E1116C 		lwz 31,4460(1)
 6041 2674 38211170 		addi 1,1,4464
 6042              		.cfi_remember_state
 6043              		.cfi_restore 25
 6044              		.cfi_restore 26
 6045              		.cfi_restore 27
 6046              		.cfi_restore 28
 6047              		.cfi_restore 29
 6048              		.cfi_restore 30
 6049              		.cfi_restore 31
 6050              	.LCFI40:
 6051              		.cfi_def_cfa_offset 0
 6052 2678 4E800020 		blr
 6053              	.LVL427:
 6054              	.L498:
 6055              	.LCFI41:
 6056              		.cfi_restore_state
 6057              	.LBB3024:
 6058              	.LBB3020:
 6059              	.LBB3002:
 6060              	.LBB3001:
 6061              	.LBB3000:
 6062              	.LBB2998:
 6063              	.LBB2991:
 6064              	.LBB2992:
 6065              	.LBB2993:
 6066              		.loc 3 66 0
 6067 267c 8169FFFC 		lwz 11,-4(9)
 6068              	.LVL428:
 6069              	.LBE2993:
 6070              	.LBE2992:
 6071              	.LBE2991:
 6072              		.loc 2 240 0
 6073 2680 2F8B0000 		cmpwi 7,11,0
 6074              	.LBB2996:
 6075              	.LBB2995:
 6076              	.LBB2994:
 6077              		.loc 3 67 0
 6078 2684 396BFFFF 		addi 11,11,-1
 6079 2688 9169FFFC 		stw 11,-4(9)
 6080              	.LBE2994:
 6081              	.LBE2995:
 6082              	.LBE2996:
 6083              		.loc 2 240 0
 6084 268c 419DFF24 		bgt+ 7,.L476
 6085              		.loc 2 244 0
 6086 2690 38810008 		addi 4,1,8
 6087              	.LVL429:
 6088 2694 48000001 		bl _ZNSs4_Rep10_M_destroyERKSaIcE
 6089              	.LVL430:
 6090 2698 4BFFFF18 		b .L476
 6091              	.LVL431:
 6092              	.L486:
 6093 269c 7C7F1B78 		mr 31,3
 6094              	.LBE2998:
 6095              	.LBE3000:
 6096              	.LBE3001:
 6097              	.LBE3002:
 6098              	.LBE3020:
 6099              		.loc 1 172 0
 6100 26a0 3861000C 		addi 3,1,12
 6101 26a4 48000001 		bl _ZNSsD1Ev
 6102 26a8 7FE3FB78 		mr 3,31
 6103              	.LEHB61:
 6104 26ac 48000001 		bl _Unwind_Resume
 6105              	.L485:
 6106 26b0 7C7F1B78 		mr 31,3
 6107              		.loc 1 158 0
 6108 26b4 38610010 		addi 3,1,16
 6109 26b8 48000001 		bl _ZNSsD1Ev
 6110 26bc 7FE3FB78 		mr 3,31
 6111 26c0 48000001 		bl _Unwind_Resume
 6112              	.LEHE61:
 6113              	.LBE3024:
 6114              		.cfi_endproc
 6115              	.LFE1574:
 6116              		.section	.gcc_except_table
 6117              	.LLSDA1574:
 6118 015c FF       		.byte	0xff
 6119 015d FF       		.byte	0xff
 6120 015e 01       		.byte	0x1
 6121 015f 1B       		.uleb128 .LLSDACSE1574-.LLSDACSB1574
 6122              	.LLSDACSB1574:
 6123 0160 30       		.uleb128 .LEHB57-.LFB1574
 6124 0161 D404     		.uleb128 .LEHE57-.LEHB57
 6125 0163 00       		.uleb128 0
 6126 0164 00       		.uleb128 0
 6127 0165 8C05     		.uleb128 .LEHB58-.LFB1574
 6128 0167 04       		.uleb128 .LEHE58-.LEHB58
 6129 0168 9807     		.uleb128 .L486-.LFB1574
 6130 016a 00       		.uleb128 0
 6131 016b E005     		.uleb128 .LEHB59-.LFB1574
 6132 016d 1C       		.uleb128 .LEHE59-.LEHB59
 6133 016e 00       		.uleb128 0
 6134 016f 00       		.uleb128 0
 6135 0170 8406     		.uleb128 .LEHB60-.LFB1574
 6136 0172 04       		.uleb128 .LEHE60-.LEHB60
 6137 0173 AC07     		.uleb128 .L485-.LFB1574
 6138 0175 00       		.uleb128 0
 6139 0176 A807     		.uleb128 .LEHB61-.LFB1574
 6140 0178 18       		.uleb128 .LEHE61-.LEHB61
 6141 0179 00       		.uleb128 0
 6142 017a 00       		.uleb128 0
 6143              	.LLSDACSE1574:
 6144              		.section	".text"
 6145              		.size	_ZN9CSettings4LoadEv, .-_ZN9CSettings4LoadEv
 6146              		.align 2
 6147              		.globl _ZN9CSettings9ParseLineEPc
 6148              		.type	_ZN9CSettings9ParseLineEPc, @function
 6149              	_ZN9CSettings9ParseLineEPc:
 6150              	.LFB1580:
 6151              		.loc 1 654 0
 6152              		.cfi_startproc
 6153              	.LVL432:
 6154 26c4 9421F3D8 		stwu 1,-3112(1)
 6155              	.LCFI42:
 6156              		.cfi_def_cfa_offset 3112
 6157 26c8 7C0802A6 		mflr 0
 6158 26cc 7C852378 		mr 5,4
 6159              	.LBB3032:
 6160              		.loc 1 657 0
 6161 26d0 38800400 		li 4,1024
 6162              	.LVL433:
 6163              	.LBE3032:
 6164              		.loc 1 654 0
 6165 26d4 93A10C1C 		stw 29,3100(1)
 6166 26d8 7C7D1B78 		mr 29,3
 6167              		.cfi_offset 29, -12
 6168              		.cfi_register 65, 0
 6169              	.LBB3051:
 6170              		.loc 1 657 0
 6171 26dc 38610808 		addi 3,1,2056
 6172              	.LVL434:
 6173              	.LBE3051:
 6174              		.loc 1 654 0
 6175 26e0 90010C2C 		stw 0,3116(1)
 6176 26e4 93C10C20 		stw 30,3104(1)
 6177 26e8 93610C14 		stw 27,3092(1)
 6178 26ec 93810C18 		stw 28,3096(1)
 6179 26f0 93E10C24 		stw 31,3108(1)
 6180              	.LBB3052:
 6181              		.loc 1 657 0
 6182              		.cfi_offset 31, -4
 6183              		.cfi_offset 28, -16
 6184              		.cfi_offset 27, -20
 6185              		.cfi_offset 30, -8
 6186              		.cfi_offset 65, 4
 6187 26f4 4CC63182 		crxor 6,6,6
 6188 26f8 48000001 		bl snprintf
 6189              	.LVL435:
 6190              		.loc 1 659 0
 6191 26fc 38610808 		addi 3,1,2056
 6192 2700 3880003D 		li 4,61
 6193 2704 48000001 		bl strchr
 6194              	.LVL436:
 6195              		.loc 1 661 0
 6196 2708 7C7E1B79 		mr. 30,3
 6197 270c 41820144 		beq- 0,.L499
 6198              		.loc 1 663 0
 6199 2710 38000000 		li 0,0
 6200              	.LBB3033:
 6201              	.LBB3034:
 6202              	.LBB3035:
 6203              		.loc 1 674 0
 6204 2714 3B810808 		addi 28,1,2056
 6205              	.LBE3035:
 6206              	.LBE3034:
 6207              	.LBE3033:
 6208              		.loc 1 663 0
 6209 2718 981E0000 		stb 0,0(30)
 6210              	.LVL437:
 6211              	.LBB3042:
 6212              	.LBB3039:
 6213              	.LBB3036:
 6214              		.loc 1 674 0
 6215 271c 88010808 		lbz 0,2056(1)
 6216 2720 2F800020 		cmpwi 7,0,32
 6217 2724 409E0018 		bne- 7,.L501
 6218 2728 7F89E378 		mr 9,28
 6219              	.L502:
 6220 272c 8C090001 		lbzu 0,1(9)
 6221              		.loc 1 675 0
 6222 2730 3B9C0001 		addi 28,28,1
 6223              	.LVL438:
 6224              		.loc 1 674 0
 6225 2734 2F800020 		cmpwi 7,0,32
 6226 2738 419EFFF4 		beq+ 7,.L502
 6227              	.L501:
 6228              		.loc 1 676 0
 6229 273c 7F83E378 		mr 3,28
 6230              	.LVL439:
 6231 2740 48000001 		bl strlen
 6232              	.LVL440:
 6233              		.loc 1 677 0
 6234 2744 7C601B79 		mr. 0,3
 6235 2748 90010C08 		stw 0,3080(1)
 6236 274c 40810034 		ble- 0,.L503
 6237 2750 3FE00000 		lis 31,.LC136@ha
 6238              		.loc 1 653 0
 6239 2754 7F7C0214 		add 27,28,0
 6240 2758 3BFF0828 		la 31,.LC136@l(31)
 6241              	.LVL441:
 6242              	.L504:
 6243              		.loc 1 677 0
 6244 275c 8C9BFFFF 		lbzu 4,-1(27)
 6245 2760 7FE3FB78 		mr 3,31
 6246 2764 48000001 		bl strchr
 6247 2768 2F830000 		cmpwi 7,3,0
 6248 276c 419E0014 		beq- 7,.L503
 6249              	.LVL442:
 6250 2770 80010C08 		lwz 0,3080(1)
 6251 2774 3520FFFF 		addic. 9,0,-1
 6252 2778 91210C08 		stw 9,3080(1)
 6253 277c 4082FFE0 		bne+ 0,.L504
 6254              	.LVL443:
 6255              	.L503:
 6256              		.loc 1 680 0
 6257 2780 83E10C08 		lwz 31,3080(1)
 6258 2784 2F9F03FF 		cmpwi 7,31,1023
 6259 2788 419D00F4 		bgt- 7,.L516
 6260              	.L505:
 6261 278c 7F84E378 		mr 4,28
 6262 2790 7FE5FB78 		mr 5,31
 6263 2794 38610408 		addi 3,1,1032
 6264              	.LBE3036:
 6265              	.LBE3039:
 6266              	.LBE3042:
 6267              		.loc 1 666 0
 6268 2798 3B9E0001 		addi 28,30,1
 6269              	.LVL444:
 6270              	.LBB3043:
 6271              	.LBB3040:
 6272              	.LBB3037:
 6273              		.loc 1 680 0
 6274 279c 48000001 		bl strncpy
 6275              	.LVL445:
 6276              		.loc 1 681 0
 6277 27a0 38010008 		addi 0,1,8
 6278 27a4 7FE0FA14 		add 31,0,31
 6279 27a8 38000000 		li 0,0
 6280 27ac 981F0400 		stb 0,1024(31)
 6281              	.LBE3037:
 6282              	.LBE3040:
 6283              	.LBE3043:
 6284              	.LBB3044:
 6285              	.LBB3045:
 6286              	.LBB3046:
 6287              		.loc 1 674 0
 6288 27b0 881E0001 		lbz 0,1(30)
 6289 27b4 2F800020 		cmpwi 7,0,32
 6290 27b8 409E001C 		bne- 7,.L506
 6291              		.loc 1 653 0
 6292 27bc 7F89E378 		mr 9,28
 6293              	.LVL446:
 6294              	.L507:
 6295 27c0 39290001 		addi 9,9,1
 6296              	.LVL447:
 6297              		.loc 1 674 0
 6298 27c4 88090000 		lbz 0,0(9)
 6299              		.loc 1 653 0
 6300 27c8 7D3C4B78 		mr 28,9
 6301              	.LVL448:
 6302              		.loc 1 674 0
 6303 27cc 2F800020 		cmpwi 7,0,32
 6304 27d0 419EFFF0 		beq+ 7,.L507
 6305              	.LVL449:
 6306              	.L506:
 6307              		.loc 1 676 0
 6308 27d4 7F83E378 		mr 3,28
 6309 27d8 48000001 		bl strlen
 6310              	.LVL450:
 6311              		.loc 1 677 0
 6312 27dc 7C691B79 		mr. 9,3
 6313 27e0 91210C08 		stw 9,3080(1)
 6314 27e4 40810034 		ble- 0,.L508
 6315 27e8 3FE00000 		lis 31,.LC136@ha
 6316              		.loc 1 653 0
 6317 27ec 7FDC4A14 		add 30,28,9
 6318              	.LVL451:
 6319 27f0 3BFF0828 		la 31,.LC136@l(31)
 6320              	.LVL452:
 6321              	.L509:
 6322              		.loc 1 677 0
 6323 27f4 8C9EFFFF 		lbzu 4,-1(30)
 6324 27f8 7FE3FB78 		mr 3,31
 6325 27fc 48000001 		bl strchr
 6326              	.LVL453:
 6327 2800 2F830000 		cmpwi 7,3,0
 6328 2804 419E0014 		beq- 7,.L508
 6329              	.LVL454:
 6330 2808 80010C08 		lwz 0,3080(1)
 6331 280c 3520FFFF 		addic. 9,0,-1
 6332 2810 91210C08 		stw 9,3080(1)
 6333 2814 4082FFE0 		bne+ 0,.L509
 6334              	.LVL455:
 6335              	.L508:
 6336              		.loc 1 680 0
 6337 2818 83E10C08 		lwz 31,3080(1)
 6338 281c 2F9F03FF 		cmpwi 7,31,1023
 6339 2820 419D0054 		bgt- 7,.L517
 6340              	.L510:
 6341 2824 7FE5FB78 		mr 5,31
 6342 2828 7F84E378 		mr 4,28
 6343 282c 38610008 		addi 3,1,8
 6344              		.loc 1 681 0
 6345 2830 7FE1FA14 		add 31,1,31
 6346              		.loc 1 680 0
 6347 2834 48000001 		bl strncpy
 6348              		.loc 1 681 0
 6349 2838 38000000 		li 0,0
 6350 283c 981F0008 		stb 0,8(31)
 6351              	.LBE3046:
 6352              	.LBE3045:
 6353              	.LBE3044:
 6354              		.loc 1 668 0
 6355 2840 7FA3EB78 		mr 3,29
 6356 2844 38810408 		addi 4,1,1032
 6357 2848 38A10008 		addi 5,1,8
 6358 284c 48000001 		bl _ZN9CSettings10SetSettingEPcS0_
 6359              	.LVL456:
 6360              	.L499:
 6361              	.LBE3052:
 6362              		.loc 1 669 0
 6363 2850 80010C2C 		lwz 0,3116(1)
 6364 2854 83610C14 		lwz 27,3092(1)
 6365 2858 7C0803A6 		mtlr 0
 6366 285c 83810C18 		lwz 28,3096(1)
 6367 2860 83A10C1C 		lwz 29,3100(1)
 6368              	.LVL457:
 6369 2864 83C10C20 		lwz 30,3104(1)
 6370 2868 83E10C24 		lwz 31,3108(1)
 6371 286c 38210C28 		addi 1,1,3112
 6372              		.cfi_remember_state
 6373              	.LCFI43:
 6374              		.cfi_def_cfa_offset 0
 6375              		.cfi_restore 31
 6376              		.cfi_restore 30
 6377              		.cfi_restore 29
 6378              		.cfi_restore 28
 6379              		.cfi_restore 27
 6380 2870 4E800020 		blr
 6381              	.LVL458:
 6382              	.L517:
 6383              	.LCFI44:
 6384              		.cfi_restore_state
 6385              	.LBB3053:
 6386              	.LBB3049:
 6387              	.LBB3048:
 6388              	.LBB3047:
 6389              		.loc 1 680 0
 6390 2874 3BE003FF 		li 31,1023
 6391              	.LVL459:
 6392 2878 4BFFFFAC 		b .L510
 6393              	.LVL460:
 6394              	.L516:
 6395              	.LBE3047:
 6396              	.LBE3048:
 6397              	.LBE3049:
 6398              	.LBB3050:
 6399              	.LBB3041:
 6400              	.LBB3038:
 6401 287c 3BE003FF 		li 31,1023
 6402 2880 4BFFFF0C 		b .L505
 6403              	.LBE3038:
 6404              	.LBE3041:
 6405              	.LBE3050:
 6406              	.LBE3053:
 6407              		.cfi_endproc
 6408              	.LFE1580:
 6409              		.size	_ZN9CSettings9ParseLineEPc, .-_ZN9CSettings9ParseLineEPc
 6410              		.align 2
 6411              		.globl _ZN9CSettings8TrimLineEPcS0_i
 6412              		.type	_ZN9CSettings8TrimLineEPcS0_i, @function
 6413              	_ZN9CSettings8TrimLineEPcS0_i:
 6414              	.LFB1581:
 6415              		.loc 1 672 0
 6416              		.cfi_startproc
 6417              	.LVL461:
 6418 2884 7C0802A6 		mflr 0
 6419 2888 9421FFD8 		stwu 1,-40(1)
 6420              	.LCFI45:
 6421              		.cfi_def_cfa_offset 40
 6422              		.cfi_register 65, 0
 6423 288c 93610014 		stw 27,20(1)
 6424 2890 7CDB3378 		mr 27,6
 6425              		.cfi_offset 27, -20
 6426 2894 93C10020 		stw 30,32(1)
 6427 2898 7CBE2B78 		mr 30,5
 6428              		.cfi_offset 30, -8
 6429 289c 93E10024 		stw 31,36(1)
 6430 28a0 7C9F2378 		mr 31,4
 6431              		.cfi_offset 31, -4
 6432 28a4 9001002C 		stw 0,44(1)
 6433 28a8 93810018 		stw 28,24(1)
 6434 28ac 93A1001C 		stw 29,28(1)
 6435              	.LBB3054:
 6436              		.loc 1 674 0
 6437 28b0 88050000 		lbz 0,0(5)
 6438              		.cfi_offset 29, -12
 6439              		.cfi_offset 28, -16
 6440              		.cfi_offset 65, 4
 6441 28b4 2F800020 		cmpwi 7,0,32
 6442 28b8 409E0018 		bne- 7,.L519
 6443 28bc 7CA92B78 		mr 9,5
 6444              	.LVL462:
 6445              	.L520:
 6446 28c0 8C090001 		lbzu 0,1(9)
 6447              		.loc 1 675 0
 6448 28c4 3BDE0001 		addi 30,30,1
 6449              	.LVL463:
 6450              		.loc 1 674 0
 6451 28c8 2F800020 		cmpwi 7,0,32
 6452 28cc 419EFFF4 		beq+ 7,.L520
 6453              	.L519:
 6454              		.loc 1 676 0
 6455 28d0 7FC3F378 		mr 3,30
 6456              	.LVL464:
 6457 28d4 48000001 		bl strlen
 6458              	.LVL465:
 6459              		.loc 1 677 0
 6460 28d8 7C601B79 		mr. 0,3
 6461 28dc 90010008 		stw 0,8(1)
 6462 28e0 40810034 		ble- 0,.L521
 6463 28e4 3F800000 		lis 28,.LC136@ha
 6464              		.loc 1 671 0
 6465 28e8 7FBE0214 		add 29,30,0
 6466 28ec 3B9C0828 		la 28,.LC136@l(28)
 6467              	.LVL466:
 6468              	.L522:
 6469              		.loc 1 677 0 discriminator 2
 6470 28f0 8C9DFFFF 		lbzu 4,-1(29)
 6471 28f4 7F83E378 		mr 3,28
 6472 28f8 48000001 		bl strchr
 6473 28fc 2F830000 		cmpwi 7,3,0
 6474 2900 419E0014 		beq- 7,.L521
 6475              	.LVL467:
 6476              		.loc 1 677 0 is_stmt 0 discriminator 5
 6477 2904 80010008 		lwz 0,8(1)
 6478 2908 3520FFFF 		addic. 9,0,-1
 6479 290c 91210008 		stw 9,8(1)
 6480 2910 4082FFE0 		bne+ 0,.L522
 6481              	.LVL468:
 6482              	.L521:
 6483              		.loc 1 679 0 is_stmt 1
 6484 2914 80010008 		lwz 0,8(1)
 6485 2918 7F9B0000 		cmpw 7,27,0
 6486 291c 419D000C 		bgt- 7,.L523
 6487              		.loc 1 679 0 is_stmt 0 discriminator 1
 6488 2920 3B7BFFFF 		addi 27,27,-1
 6489              	.LVL469:
 6490 2924 93610008 		stw 27,8(1)
 6491              	.LVL470:
 6492              	.L523:
 6493              		.loc 1 680 0 is_stmt 1
 6494 2928 80A10008 		lwz 5,8(1)
 6495 292c 7FE3FB78 		mr 3,31
 6496 2930 7FC4F378 		mr 4,30
 6497 2934 48000001 		bl strncpy
 6498              		.loc 1 681 0
 6499 2938 81210008 		lwz 9,8(1)
 6500 293c 38000000 		li 0,0
 6501 2940 7C1F49AE 		stbx 0,31,9
 6502              	.LBE3054:
 6503              		.loc 1 682 0
 6504 2944 8001002C 		lwz 0,44(1)
 6505 2948 83610014 		lwz 27,20(1)
 6506 294c 7C0803A6 		mtlr 0
 6507 2950 83810018 		lwz 28,24(1)
 6508 2954 83A1001C 		lwz 29,28(1)
 6509 2958 83C10020 		lwz 30,32(1)
 6510              	.LVL471:
 6511 295c 83E10024 		lwz 31,36(1)
 6512              	.LVL472:
 6513 2960 38210028 		addi 1,1,40
 6514              	.LCFI46:
 6515              		.cfi_def_cfa_offset 0
 6516              		.cfi_restore 31
 6517              		.cfi_restore 30
 6518              		.cfi_restore 29
 6519              		.cfi_restore 28
 6520              		.cfi_restore 27
 6521 2964 4E800020 		blr
 6522              		.cfi_endproc
 6523              	.LFE1581:
 6524              		.size	_ZN9CSettings8TrimLineEPcS0_i, .-_ZN9CSettings8TrimLineEPcS0_i
 6525              		.align 2
 6526              		.globl _ZN9CSettings12LoadLanguageEPKci
 6527              		.type	_ZN9CSettings12LoadLanguageEPKci, @function
 6528              	_ZN9CSettings12LoadLanguageEPKci:
 6529              	.LFB1583:
 6530              		.loc 1 719 0
 6531              		.cfi_startproc
 6532              		.cfi_personality 0,__gxx_personality_v0
 6533              		.cfi_lsda 0,.LLSDA1583
 6534              	.LVL473:
 6535 2968 9421FF88 		stwu 1,-120(1)
 6536              	.LCFI47:
 6537              		.cfi_def_cfa_offset 120
 6538 296c 7D800026 		mfcr 12
 6539 2970 7C0802A6 		mflr 0
 6540 2974 93610064 		stw 27,100(1)
 6541              	.LBB3545:
 6542              	.LBB3546:
 6543              		.loc 1 722 0
 6544 2978 7C9B2379 		mr. 27,4
 6545              		.cfi_offset 27, -20
 6546              		.cfi_register 65, 0
 6547              		.cfi_register 70, 12
 6548              	.LBE3546:
 6549              	.LBE3545:
 6550              		.loc 1 719 0
 6551 297c 93C10070 		stw 30,112(1)
 6552 2980 7C7E1B78 		mr 30,3
 6553              		.cfi_offset 30, -8
 6554 2984 93E10074 		stw 31,116(1)
 6555 2988 7CBF2B78 		mr 31,5
 6556              		.cfi_offset 31, -4
 6557 298c 9001007C 		stw 0,124(1)
 6558 2990 93410060 		stw 26,96(1)
 6559 2994 93810068 		stw 28,104(1)
 6560 2998 93A1006C 		stw 29,108(1)
 6561 299c 9181005C 		stw 12,92(1)
 6562              	.LBB3974:
 6563              	.LBB3972:
 6564              		.loc 1 722 0
 6565 29a0 41820014 		beq- 0,.L527
 6566              		.cfi_offset 70, -28
 6567              		.cfi_offset 29, -12
 6568              		.cfi_offset 28, -16
 6569              		.cfi_offset 26, -24
 6570              		.cfi_offset 65, 4
 6571              		.loc 1 722 0 is_stmt 0 discriminator 1
 6572 29a4 7F63DB78 		mr 3,27
 6573              	.LVL474:
 6574 29a8 48000001 		bl strlen
 6575              	.LVL475:
 6576 29ac 2B830003 		cmplwi 7,3,3
 6577 29b0 419D012C 		bgt- 7,.L711
 6578              	.L527:
 6579              	.LBB3547:
 6580              		.loc 1 737 0 is_stmt 1
 6581 29b4 2E1F0000 		cmpwi 4,31,0
 6582 29b8 41900220 		blt- 4,.L671
 6583              	.LVL476:
 6584              	.LBB3548:
 6585              		.loc 1 740 0
 6586 29bc 3B7E0620 		addi 27,30,1568
 6587              	.LVL477:
 6588              	.LBB3549:
 6589              	.LBB3550:
 6590              	.LBB3551:
 6591              		.loc 2 270 0
 6592 29c0 3D200000 		lis 9,_ZNSs4_Rep20_S_empty_rep_storageE+12@ha
 6593 29c4 3809000C 		la 0,_ZNSs4_Rep20_S_empty_rep_storageE+12@l(9)
 6594              	.LBE3551:
 6595              	.LBE3550:
 6596              	.LBE3549:
 6597              		.loc 1 740 0
 6598 29c8 38610044 		addi 3,1,68
 6599 29cc 7F64DB78 		mr 4,27
 6600 29d0 38A10018 		addi 5,1,24
 6601              	.LBB3554:
 6602              	.LBB3553:
 6603              	.LBB3552:
 6604              		.loc 2 270 0
 6605 29d4 9001004C 		stw 0,76(1)
 6606              	.LEHB62:
 6607              	.LBE3552:
 6608              	.LBE3553:
 6609              	.LBE3554:
 6610              		.loc 1 740 0
 6611 29d8 48000001 		bl _ZNSsC1EPKcRKSaIcE
 6612              	.LEHE62:
 6613              		.loc 1 742 0 discriminator 1
 6614 29dc 2F9F000A 		cmpwi 7,31,10
 6615 29e0 419E0244 		beq- 7,.L712
 6616              		.loc 1 745 0
 6617 29e4 4192029C 		beq- 4,.L713
 6618              		.loc 1 746 0
 6619 29e8 2F9F0001 		cmpwi 7,31,1
 6620 29ec 419E0388 		beq- 7,.L714
 6621              		.loc 1 747 0
 6622 29f0 2F9F0002 		cmpwi 7,31,2
 6623 29f4 419E03E8 		beq- 7,.L715
 6624              		.loc 1 748 0
 6625 29f8 2F9F0003 		cmpwi 7,31,3
 6626 29fc 419E0448 		beq- 7,.L716
 6627              		.loc 1 749 0
 6628 2a00 2F9F0004 		cmpwi 7,31,4
 6629 2a04 419E02E4 		beq- 7,.L717
 6630              		.loc 1 750 0
 6631 2a08 2F9F0005 		cmpwi 7,31,5
 6632 2a0c 419E04A0 		beq- 7,.L718
 6633              		.loc 1 751 0
 6634 2a10 2F9F0006 		cmpwi 7,31,6
 6635 2a14 419E0500 		beq- 7,.L719
 6636              		.loc 1 752 0
 6637 2a18 2F9F0007 		cmpwi 7,31,7
 6638 2a1c 419E0560 		beq- 7,.L720
 6639              		.loc 1 753 0
 6640 2a20 2F9F0008 		cmpwi 7,31,8
 6641 2a24 419E05C0 		beq- 7,.L721
 6642              		.loc 1 754 0
 6643 2a28 2F9F0009 		cmpwi 7,31,9
 6644 2a2c 419E0644 		beq- 7,.L722
 6645              	.L639:
 6646              	.LVL478:
 6647              	.LBB3555:
 6648              	.LBB3556:
 6649              	.LBB3557:
 6650              		.loc 2 288 0
 6651 2a30 83E1004C 		lwz 31,76(1)
 6652              	.LVL479:
 6653              	.LBE3557:
 6654              	.LBE3556:
 6655              	.LBE3555:
 6656              	.LBB3558:
 6657              	.LBB3559:
 6658              		.loc 1 688 0
 6659 2a34 3C800000 		lis 4,.LC24@ha
 6660 2a38 388400F4 		la 4,.LC24@l(4)
 6661 2a3c 7FE3FB78 		mr 3,31
 6662              	.LEHB63:
 6663 2a40 48000001 		bl strcasestr
 6664              	.LVL480:
 6665 2a44 2F830000 		cmpwi 7,3,0
 6666 2a48 419E0308 		beq- 7,.L723
 6667              		.loc 1 689 0
 6668 2a4c 3C800000 		lis 4,.LC9@ha
 6669 2a50 38840044 		la 4,.LC9@l(4)
 6670              	.L640:
 6671              	.LBE3559:
 6672              	.LBE3558:
 6673              		.loc 1 756 0
 6674 2a54 387E0508 		addi 3,30,1288
 6675 2a58 48000001 		bl strcpy
 6676              	.LVL481:
 6677              		.loc 1 757 0
 6678 2a5c 8061004C 		lwz 3,76(1)
 6679 2a60 48000001 		bl gettextLoadLanguage
 6680              	.LVL482:
 6681              		.loc 1 758 0
 6682 2a64 7C7D1B79 		mr. 29,3
 6683 2a68 4182002C 		beq- 0,.L641
 6684              	.LVL483:
 6685              		.loc 1 760 0
 6686 2a6c 80A1004C 		lwz 5,76(1)
 6687 2a70 387E0526 		addi 3,30,1318
 6688              	.LVL484:
 6689 2a74 388000FA 		li 4,250
 6690 2a78 4CC63182 		crxor 6,6,6
 6691 2a7c 48000001 		bl snprintf
 6692              	.LVL485:
 6693              		.loc 1 761 0
 6694 2a80 80A10044 		lwz 5,68(1)
 6695 2a84 7F63DB78 		mr 3,27
 6696 2a88 388000FA 		li 4,250
 6697 2a8c 4CC63182 		crxor 6,6,6
 6698 2a90 48000001 		bl snprintf
 6699              	.LEHE63:
 6700              	.LVL486:
 6701              	.L641:
 6702              	.LBB3565:
 6703              	.LBB3566:
 6704              	.LBB3567:
 6705              	.LBB3568:
 6706              	.LBB3569:
 6707              	.LBB3570:
 6708              		.loc 2 288 0
 6709 2a94 81210044 		lwz 9,68(1)
 6710              	.LBE3570:
 6711              	.LBE3569:
 6712              	.LBE3568:
 6713              	.LBB3571:
 6714              	.LBB3572:
 6715              		.loc 2 235 0
 6716 2a98 3FE00000 		lis 31,_ZNSs4_Rep20_S_empty_rep_storageE@ha
 6717              	.LVL487:
 6718 2a9c 3BFF0000 		la 31,_ZNSs4_Rep20_S_empty_rep_storageE@l(31)
 6719              	.LBE3572:
 6720              	.LBE3571:
 6721              		.loc 2 534 0
 6722 2aa0 3869FFF4 		addi 3,9,-12
 6723              	.LVL488:
 6724              	.LBB3581:
 6725              	.LBB3579:
 6726              		.loc 2 235 0
 6727 2aa4 7F83F800 		cmpw 7,3,31
 6728 2aa8 409E06C0 		bne- 7,.L724
 6729              	.LVL489:
 6730              	.L647:
 6731              	.LBE3579:
 6732              	.LBE3581:
 6733              	.LBE3567:
 6734              	.LBE3566:
 6735              	.LBE3565:
 6736              	.LBB3585:
 6737              	.LBB3586:
 6738              	.LBB3587:
 6739              	.LBB3588:
 6740              	.LBB3589:
 6741              		.loc 2 288 0
 6742 2aac 8121004C 		lwz 9,76(1)
 6743              	.LBE3589:
 6744              	.LBE3588:
 6745              	.LBE3587:
 6746              		.loc 2 534 0
 6747 2ab0 3869FFF4 		addi 3,9,-12
 6748              	.LVL490:
 6749              	.LBB3590:
 6750              	.LBB3591:
 6751              		.loc 2 235 0
 6752 2ab4 7F83F800 		cmpw 7,3,31
 6753 2ab8 41BE0124 		beq+ 7,.L652
 6754              	.LVL491:
 6755              	.LBB3592:
 6756              	.LBB3593:
 6757              	.LBB3594:
 6758              		.loc 3 66 0
 6759 2abc 8169FFFC 		lwz 11,-4(9)
 6760              	.LVL492:
 6761              	.LBE3594:
 6762              	.LBE3593:
 6763              	.LBE3592:
 6764              		.loc 2 240 0
 6765 2ac0 2F8B0000 		cmpwi 7,11,0
 6766              	.LBB3597:
 6767              	.LBB3596:
 6768              	.LBB3595:
 6769              		.loc 3 67 0
 6770 2ac4 396BFFFF 		addi 11,11,-1
 6771 2ac8 9169FFFC 		stw 11,-4(9)
 6772              	.LBE3595:
 6773              	.LBE3596:
 6774              	.LBE3597:
 6775              		.loc 2 240 0
 6776 2acc 41BD0110 		bgt+ 7,.L652
 6777              		.loc 2 244 0
 6778 2ad0 38810008 		addi 4,1,8
 6779 2ad4 48000001 		bl _ZNSs4_Rep10_M_destroyERKSaIcE
 6780              	.LVL493:
 6781 2ad8 48000104 		b .L652
 6782              	.LVL494:
 6783              	.L711:
 6784              	.LBE3591:
 6785              	.LBE3590:
 6786              	.LBE3586:
 6787              	.LBE3585:
 6788              	.LBE3548:
 6789              	.LBE3547:
 6790              	.LBB3890:
 6791              		.loc 1 724 0
 6792 2adc 7F63DB78 		mr 3,27
 6793              	.LEHB64:
 6794 2ae0 48000001 		bl gettextLoadLanguage
 6795              	.LVL495:
 6796              	.LBB3891:
 6797              		.loc 1 725 0
 6798 2ae4 7C7D1B79 		mr. 29,3
 6799 2ae8 41820128 		beq- 0,.L528
 6800              	.LBB3892:
 6801              		.loc 1 727 0
 6802 2aec 3BFE0526 		addi 31,30,1318
 6803              	.LVL496:
 6804 2af0 388000FA 		li 4,250
 6805 2af4 7F65DB78 		mr 5,27
 6806 2af8 7FE3FB78 		mr 3,31
 6807              	.LVL497:
 6808 2afc 4CC63182 		crxor 6,6,6
 6809 2b00 48000001 		bl snprintf
 6810              	.LBB3893:
 6811              	.LBB3894:
 6812              		.loc 1 688 0
 6813 2b04 3C800000 		lis 4,.LC24@ha
 6814 2b08 7FE3FB78 		mr 3,31
 6815 2b0c 388400F4 		la 4,.LC24@l(4)
 6816 2b10 48000001 		bl strcasestr
 6817              	.LBE3894:
 6818              	.LBE3893:
 6819              		.loc 1 728 0
 6820 2b14 3B5E0508 		addi 26,30,1288
 6821              	.LVL498:
 6822              	.LBB3900:
 6823              	.LBB3895:
 6824              		.loc 1 688 0
 6825 2b18 2F830000 		cmpwi 7,3,0
 6826 2b1c 419E0530 		beq- 7,.L725
 6827              		.loc 1 689 0
 6828 2b20 3C800000 		lis 4,.LC9@ha
 6829 2b24 38840044 		la 4,.LC9@l(4)
 6830              	.L529:
 6831              	.LBE3895:
 6832              	.LBE3900:
 6833              		.loc 1 730 0
 6834 2b28 3B81004C 		addi 28,1,76
 6835              		.loc 1 728 0
 6836 2b2c 7F43D378 		mr 3,26
 6837 2b30 48000001 		bl strcpy
 6838              		.loc 1 730 0
 6839 2b34 7F83E378 		mr 3,28
 6840 2b38 7F64DB78 		mr 4,27
 6841 2b3c 38A10019 		addi 5,1,25
 6842 2b40 48000001 		bl _ZNSsC1EPKcRKSaIcE
 6843              	.LEHE64:
 6844              	.LVL499:
 6845              	.LBB3901:
 6846              	.LBB3902:
 6847              		.loc 2 2005 0
 6848 2b44 3C800000 		lis 4,.LC137@ha
 6849 2b48 7F83E378 		mr 3,28
 6850 2b4c 3884082C 		la 4,.LC137@l(4)
 6851 2b50 38A0FFFF 		li 5,-1
 6852 2b54 38C00001 		li 6,1
 6853              	.LEHB65:
 6854 2b58 48000001 		bl _ZNKSs12find_last_ofEPKcjj
 6855 2b5c 7C661B78 		mr 6,3
 6856              	.LVL500:
 6857              	.LBE3902:
 6858              	.LBE3901:
 6859              	.LBB3903:
 6860              	.LBB3904:
 6861              		.loc 2 2157 0
 6862 2b60 7F84E378 		mr 4,28
 6863 2b64 38610048 		addi 3,1,72
 6864              	.LVL501:
 6865 2b68 38A00000 		li 5,0
 6866 2b6c 48000001 		bl _ZNSsC1ERKSsjj
 6867              	.LEHE65:
 6868              	.LVL502:
 6869              	.LBE3904:
 6870              	.LBE3903:
 6871              	.LBB3905:
 6872              	.LBB3906:
 6873              		.loc 2 542 0
 6874 2b70 7F83E378 		mr 3,28
 6875 2b74 38810048 		addi 4,1,72
 6876              	.LVL503:
 6877              	.LEHB66:
 6878 2b78 48000001 		bl _ZNSs6assignERKSs
 6879              	.LEHE66:
 6880              	.LVL504:
 6881              	.LBE3906:
 6882              	.LBE3905:
 6883              	.LBB3907:
 6884              	.LBB3908:
 6885              	.LBB3909:
 6886              	.LBB3910:
 6887              	.LBB3911:
 6888              	.LBB3912:
 6889              		.loc 2 288 0
 6890 2b7c 81210048 		lwz 9,72(1)
 6891              	.LBE3912:
 6892              	.LBE3911:
 6893              	.LBE3910:
 6894              	.LBB3913:
 6895              	.LBB3914:
 6896              		.loc 2 235 0
 6897 2b80 3FE00000 		lis 31,_ZNSs4_Rep20_S_empty_rep_storageE@ha
 6898              	.LVL505:
 6899 2b84 3BFF0000 		la 31,_ZNSs4_Rep20_S_empty_rep_storageE@l(31)
 6900              	.LBE3914:
 6901              	.LBE3913:
 6902              		.loc 2 534 0
 6903 2b88 3869FFF4 		addi 3,9,-12
 6904              	.LVL506:
 6905              	.LBB3923:
 6906              	.LBB3921:
 6907              		.loc 2 235 0
 6908 2b8c 7F83F800 		cmpw 7,3,31
 6909 2b90 409E05F8 		bne- 7,.L726
 6910              	.LVL507:
 6911              	.L537:
 6912              	.LBE3921:
 6913              	.LBE3923:
 6914              	.LBE3909:
 6915              	.LBE3908:
 6916              	.LBE3907:
 6917              		.loc 1 732 0
 6918 2b94 80A1004C 		lwz 5,76(1)
 6919 2b98 387E0620 		addi 3,30,1568
 6920 2b9c 388000FA 		li 4,250
 6921              	.LEHB67:
 6922 2ba0 4CC63182 		crxor 6,6,6
 6923 2ba4 48000001 		bl snprintf
 6924              	.LEHE67:
 6925              	.LVL508:
 6926              	.LBB3927:
 6927              	.LBB3928:
 6928              	.LBB3929:
 6929              	.LBB3930:
 6930              	.LBB3931:
 6931              		.loc 2 288 0
 6932 2ba8 8121004C 		lwz 9,76(1)
 6933              	.LBE3931:
 6934              	.LBE3930:
 6935              	.LBE3929:
 6936              		.loc 2 534 0
 6937 2bac 3869FFF4 		addi 3,9,-12
 6938              	.LVL509:
 6939              	.LBB3932:
 6940              	.LBB3933:
 6941              		.loc 2 235 0
 6942 2bb0 7F83F800 		cmpw 7,3,31
 6943 2bb4 41BE0028 		beq+ 7,.L652
 6944              	.LVL510:
 6945              	.LBB3934:
 6946              	.LBB3935:
 6947              	.LBB3936:
 6948              		.loc 3 66 0
 6949 2bb8 8169FFFC 		lwz 11,-4(9)
 6950              	.LVL511:
 6951              	.LBE3936:
 6952              	.LBE3935:
 6953              	.LBE3934:
 6954              		.loc 2 240 0
 6955 2bbc 2F8B0000 		cmpwi 7,11,0
 6956              	.LBB3939:
 6957              	.LBB3938:
 6958              	.LBB3937:
 6959              		.loc 3 67 0
 6960 2bc0 396BFFFF 		addi 11,11,-1
 6961 2bc4 9169FFFC 		stw 11,-4(9)
 6962              	.LBE3937:
 6963              	.LBE3938:
 6964              	.LBE3939:
 6965              		.loc 2 240 0
 6966 2bc8 41BD0014 		bgt+ 7,.L652
 6967              		.loc 2 244 0
 6968 2bcc 38810016 		addi 4,1,22
 6969 2bd0 48000001 		bl _ZNSs4_Rep10_M_destroyERKSaIcE
 6970              	.LVL512:
 6971 2bd4 48000008 		b .L652
 6972              	.LVL513:
 6973              	.L671:
 6974              	.LBE3933:
 6975              	.LBE3932:
 6976              	.LBE3928:
 6977              	.LBE3927:
 6978              	.LBE3892:
 6979              	.LBE3891:
 6980              	.LBE3890:
 6981              	.LBB3958:
 6982              		.loc 1 720 0
 6983 2bd8 3BA00000 		li 29,0
 6984              	.LVL514:
 6985              	.L652:
 6986              	.LBE3958:
 6987              	.LBE3972:
 6988              	.LBE3974:
 6989              		.loc 1 766 0
 6990 2bdc 8001007C 		lwz 0,124(1)
 6991 2be0 7FA3EB78 		mr 3,29
 6992 2be4 8181005C 		lwz 12,92(1)
 6993 2be8 7C0803A6 		mtlr 0
 6994 2bec 83410060 		lwz 26,96(1)
 6995 2bf0 83610064 		lwz 27,100(1)
 6996 2bf4 7D808120 		mtcrf 8,12
 6997 2bf8 83810068 		lwz 28,104(1)
 6998 2bfc 83A1006C 		lwz 29,108(1)
 6999 2c00 83C10070 		lwz 30,112(1)
 7000              	.LVL515:
 7001 2c04 83E10074 		lwz 31,116(1)
 7002 2c08 38210078 		addi 1,1,120
 7003              		.cfi_remember_state
 7004              	.LCFI48:
 7005              		.cfi_def_cfa_offset 0
 7006              		.cfi_restore 70
 7007              		.cfi_restore 31
 7008              		.cfi_restore 30
 7009              		.cfi_restore 29
 7010              		.cfi_restore 28
 7011              		.cfi_restore 27
 7012              		.cfi_restore 26
 7013 2c0c 4E800020 		blr
 7014              	.LVL516:
 7015              	.L528:
 7016              	.LCFI49:
 7017              		.cfi_restore_state
 7018              	.LBB3975:
 7019              	.LBB3973:
 7020              	.LBB3959:
 7021              	.LBB3951:
 7022              		.loc 1 735 0
 7023 2c10 7FC3F378 		mr 3,30
 7024              	.LVL517:
 7025 2c14 3880000A 		li 4,10
 7026              	.LEHB68:
 7027 2c18 4BFFD3E9 		bl _ZN9CSettings12LoadLanguageEPKci.constprop.77
 7028              	.LEHE68:
 7029 2c1c 7C7D1B78 		mr 29,3
 7030 2c20 4BFFFFBC 		b .L652
 7031              	.LVL518:
 7032              	.L712:
 7033              	.LEHB69:
 7034              	.LBE3951:
 7035              	.LBE3959:
 7036              	.LBB3960:
 7037              	.LBB3884:
 7038              		.loc 1 743 0
 7039 2c24 48000001 		bl CONF_GetLanguage
 7040 2c28 7C641B78 		mr 4,3
 7041 2c2c 7FC3F378 		mr 3,30
 7042 2c30 4BFFD3D1 		bl _ZN9CSettings12LoadLanguageEPKci.constprop.77
 7043              	.LBB3598:
 7044              	.LBB3599:
 7045              	.LBB3600:
 7046              	.LBB3601:
 7047              	.LBB3602:
 7048              	.LBB3603:
 7049              		.loc 2 288 0 discriminator 1
 7050 2c34 81210044 		lwz 9,68(1)
 7051              	.LBE3603:
 7052              	.LBE3602:
 7053              	.LBE3601:
 7054              	.LBB3604:
 7055              	.LBB3605:
 7056              		.loc 2 235 0 discriminator 1
 7057 2c38 3FE00000 		lis 31,_ZNSs4_Rep20_S_empty_rep_storageE@ha
 7058              	.LVL519:
 7059              	.LBE3605:
 7060              	.LBE3604:
 7061              	.LBE3600:
 7062              	.LBE3599:
 7063              	.LBE3598:
 7064              		.loc 1 743 0 discriminator 1
 7065 2c3c 7C7D1B78 		mr 29,3
 7066              	.LVL520:
 7067              	.LBB3622:
 7068              	.LBB3620:
 7069              	.LBB3618:
 7070              	.LBB3615:
 7071              	.LBB3612:
 7072              		.loc 2 235 0 discriminator 1
 7073 2c40 3BFF0000 		la 31,_ZNSs4_Rep20_S_empty_rep_storageE@l(31)
 7074              	.LBE3612:
 7075              	.LBE3615:
 7076              		.loc 2 534 0 discriminator 1
 7077 2c44 3869FFF4 		addi 3,9,-12
 7078              	.LVL521:
 7079              	.LBB3616:
 7080              	.LBB3613:
 7081              		.loc 2 235 0 discriminator 1
 7082 2c48 7F83F800 		cmpw 7,3,31
 7083 2c4c 409E05C0 		bne- 7,.L727
 7084              	.LVL522:
 7085              	.L549:
 7086              	.LBE3613:
 7087              	.LBE3616:
 7088              	.LBE3618:
 7089              	.LBE3620:
 7090              	.LBE3622:
 7091              	.LBB3623:
 7092              	.LBB3624:
 7093              	.LBB3625:
 7094              	.LBB3626:
 7095              	.LBB3627:
 7096              	.LBB3628:
 7097              		.loc 2 288 0
 7098 2c50 8121004C 		lwz 9,76(1)
 7099              	.LBE3628:
 7100              	.LBE3627:
 7101              	.LBE3626:
 7102              		.loc 2 534 0
 7103 2c54 3869FFF4 		addi 3,9,-12
 7104              	.LVL523:
 7105              	.LBB3629:
 7106              	.LBB3630:
 7107              		.loc 2 235 0
 7108 2c58 7F83F800 		cmpw 7,3,31
 7109 2c5c 419EFF80 		beq+ 7,.L652
 7110              	.LVL524:
 7111              	.LBB3631:
 7112              	.LBB3632:
 7113              	.LBB3633:
 7114              		.loc 3 66 0
 7115 2c60 8169FFFC 		lwz 11,-4(9)
 7116              	.LVL525:
 7117              	.LBE3633:
 7118              	.LBE3632:
 7119              	.LBE3631:
 7120              		.loc 2 240 0
 7121 2c64 2F8B0000 		cmpwi 7,11,0
 7122              	.LBB3636:
 7123              	.LBB3635:
 7124              	.LBB3634:
 7125              		.loc 3 67 0
 7126 2c68 396BFFFF 		addi 11,11,-1
 7127 2c6c 9169FFFC 		stw 11,-4(9)
 7128              	.LBE3634:
 7129              	.LBE3635:
 7130              	.LBE3636:
 7131              		.loc 2 240 0
 7132 2c70 419DFF6C 		bgt+ 7,.L652
 7133              		.loc 2 244 0
 7134 2c74 38810014 		addi 4,1,20
 7135 2c78 48000001 		bl _ZNSs4_Rep10_M_destroyERKSaIcE
 7136              	.LVL526:
 7137 2c7c 4BFFFF60 		b .L652
 7138              	.LVL527:
 7139              	.L713:
 7140              	.LBE3630:
 7141              	.LBE3629:
 7142              	.LBE3625:
 7143              	.LBE3624:
 7144              	.LBE3623:
 7145              	.LBB3637:
 7146              	.LBB3638:
 7147              		.loc 2 2346 0
 7148 2c80 38610040 		addi 3,1,64
 7149 2c84 38810044 		addi 4,1,68
 7150              	.LVL528:
 7151 2c88 48000001 		bl _ZNSsC1ERKSs
 7152              	.LEHE69:
 7153              	.LVL529:
 7154              	.LBB3639:
 7155              	.LBB3640:
 7156              		.loc 2 1000 0
 7157 2c8c 3C800000 		lis 4,.LC14@ha
 7158 2c90 38610040 		addi 3,1,64
 7159              	.LVL530:
 7160 2c94 38840058 		la 4,.LC14@l(4)
 7161 2c98 38A0000E 		li 5,14
 7162              	.LEHB70:
 7163 2c9c 48000001 		bl _ZNSs6appendEPKcj
 7164              	.LEHE70:
 7165              	.LVL531:
 7166              	.LBE3640:
 7167              	.LBE3639:
 7168              	.LBE3638:
 7169              	.LBE3637:
 7170              	.LBB3642:
 7171              	.LBB3643:
 7172              		.loc 1 745 0
 7173 2ca0 3B81004C 		addi 28,1,76
 7174              		.loc 2 542 0
 7175 2ca4 38810040 		addi 4,1,64
 7176              	.LVL532:
 7177 2ca8 7F83E378 		mr 3,28
 7178              	.LEHB71:
 7179 2cac 48000001 		bl _ZNSs6assignERKSs
 7180              	.LEHE71:
 7181              	.LVL533:
 7182              	.LBE3643:
 7183              	.LBE3642:
 7184              	.LBB3644:
 7185              	.LBB3645:
 7186              	.LBB3646:
 7187              	.LBB3647:
 7188              	.LBB3648:
 7189              	.LBB3649:
 7190              		.loc 2 288 0
 7191 2cb0 81210040 		lwz 9,64(1)
 7192              	.LBE3649:
 7193              	.LBE3648:
 7194              	.LBE3647:
 7195              	.LBB3650:
 7196              	.LBB3651:
 7197              		.loc 2 235 0
 7198 2cb4 3D600000 		lis 11,_ZNSs4_Rep20_S_empty_rep_storageE@ha
 7199 2cb8 380B0000 		la 0,_ZNSs4_Rep20_S_empty_rep_storageE@l(11)
 7200              	.LBE3651:
 7201              	.LBE3650:
 7202              		.loc 2 534 0
 7203 2cbc 3869FFF4 		addi 3,9,-12
 7204              	.LVL534:
 7205              	.LBB3659:
 7206              	.LBB3658:
 7207              		.loc 2 235 0
 7208 2cc0 7F830000 		cmpw 7,3,0
 7209 2cc4 419EFD6C 		beq+ 7,.L639
 7210              	.LVL535:
 7211              	.LBB3652:
 7212              	.LBB3653:
 7213              	.LBB3654:
 7214              		.loc 3 66 0
 7215 2cc8 8169FFFC 		lwz 11,-4(9)
 7216              	.LVL536:
 7217              	.LBE3654:
 7218              	.LBE3653:
 7219              	.LBE3652:
 7220              		.loc 2 240 0
 7221 2ccc 2F8B0000 		cmpwi 7,11,0
 7222              	.LBB3657:
 7223              	.LBB3656:
 7224              	.LBB3655:
 7225              		.loc 3 67 0
 7226 2cd0 396BFFFF 		addi 11,11,-1
 7227 2cd4 9169FFFC 		stw 11,-4(9)
 7228              	.LBE3655:
 7229              	.LBE3656:
 7230              	.LBE3657:
 7231              		.loc 2 240 0
 7232 2cd8 419DFD58 		bgt+ 7,.L639
 7233              		.loc 2 244 0
 7234 2cdc 38810013 		addi 4,1,19
 7235 2ce0 48000001 		bl _ZNSs4_Rep10_M_destroyERKSaIcE
 7236              	.LVL537:
 7237 2ce4 4BFFFD4C 		b .L639
 7238              	.LVL538:
 7239              	.L717:
 7240              	.LBE3658:
 7241              	.LBE3659:
 7242              	.LBE3646:
 7243              	.LBE3645:
 7244              	.LBE3644:
 7245              	.LBB3660:
 7246              	.LBB3661:
 7247              		.loc 2 2346 0
 7248 2ce8 38610030 		addi 3,1,48
 7249 2cec 38810044 		addi 4,1,68
 7250              	.LVL539:
 7251              	.LEHB72:
 7252 2cf0 48000001 		bl _ZNSsC1ERKSs
 7253              	.LEHE72:
 7254              	.LVL540:
 7255              	.LBB3662:
 7256              	.LBB3663:
 7257              		.loc 2 1000 0
 7258 2cf4 3C800000 		lis 4,.LC18@ha
 7259 2cf8 38610030 		addi 3,1,48
 7260              	.LVL541:
 7261 2cfc 38840098 		la 4,.LC18@l(4)
 7262 2d00 38A0000D 		li 5,13
 7263              	.LEHB73:
 7264 2d04 48000001 		bl _ZNSs6appendEPKcj
 7265              	.LEHE73:
 7266              	.LVL542:
 7267              	.LBE3663:
 7268              	.LBE3662:
 7269              	.LBE3661:
 7270              	.LBE3660:
 7271              	.LBB3665:
 7272              	.LBB3666:
 7273              		.loc 1 749 0
 7274 2d08 3B81004C 		addi 28,1,76
 7275              		.loc 2 542 0
 7276 2d0c 38810030 		addi 4,1,48
 7277              	.LVL543:
 7278 2d10 7F83E378 		mr 3,28
 7279              	.LEHB74:
 7280 2d14 48000001 		bl _ZNSs6assignERKSs
 7281              	.LEHE74:
 7282              	.LVL544:
 7283              	.LBE3666:
 7284              	.LBE3665:
 7285              	.LBB3667:
 7286              	.LBB3668:
 7287              	.LBB3669:
 7288              	.LBB3670:
 7289              	.LBB3671:
 7290              	.LBB3672:
 7291              		.loc 2 288 0
 7292 2d18 81210030 		lwz 9,48(1)
 7293              	.LBE3672:
 7294              	.LBE3671:
 7295              	.LBE3670:
 7296              	.LBB3673:
 7297              	.LBB3674:
 7298              		.loc 2 235 0
 7299 2d1c 3D600000 		lis 11,_ZNSs4_Rep20_S_empty_rep_storageE@ha
 7300 2d20 380B0000 		la 0,_ZNSs4_Rep20_S_empty_rep_storageE@l(11)
 7301              	.LBE3674:
 7302              	.LBE3673:
 7303              		.loc 2 534 0
 7304 2d24 3869FFF4 		addi 3,9,-12
 7305              	.LVL545:
 7306              	.LBB3682:
 7307              	.LBB3681:
 7308              		.loc 2 235 0
 7309 2d28 7F830000 		cmpw 7,3,0
 7310 2d2c 419EFD04 		beq+ 7,.L639
 7311              	.LVL546:
 7312              	.LBB3675:
 7313              	.LBB3676:
 7314              	.LBB3677:
 7315              		.loc 3 66 0
 7316 2d30 8169FFFC 		lwz 11,-4(9)
 7317              	.LVL547:
 7318              	.LBE3677:
 7319              	.LBE3676:
 7320              	.LBE3675:
 7321              		.loc 2 240 0
 7322 2d34 2F8B0000 		cmpwi 7,11,0
 7323              	.LBB3680:
 7324              	.LBB3679:
 7325              	.LBB3678:
 7326              		.loc 3 67 0
 7327 2d38 396BFFFF 		addi 11,11,-1
 7328 2d3c 9169FFFC 		stw 11,-4(9)
 7329              	.LBE3678:
 7330              	.LBE3679:
 7331              	.LBE3680:
 7332              		.loc 2 240 0
 7333 2d40 419DFCF0 		bgt+ 7,.L639
 7334              		.loc 2 244 0
 7335 2d44 3881000F 		addi 4,1,15
 7336 2d48 48000001 		bl _ZNSs4_Rep10_M_destroyERKSaIcE
 7337              	.LVL548:
 7338 2d4c 4BFFFCE4 		b .L639
 7339              	.LVL549:
 7340              	.L723:
 7341              	.LBE3681:
 7342              	.LBE3682:
 7343              	.LBE3669:
 7344              	.LBE3668:
 7345              	.LBE3667:
 7346              	.LBB3683:
 7347              	.LBB3560:
 7348              		.loc 1 691 0
 7349 2d50 3C800000 		lis 4,.LC25@ha
 7350 2d54 7FE3FB78 		mr 3,31
 7351 2d58 38840100 		la 4,.LC25@l(4)
 7352              	.LEHB75:
 7353 2d5c 48000001 		bl strcasestr
 7354 2d60 2F830000 		cmpwi 7,3,0
 7355 2d64 419E0374 		beq- 7,.L728
 7356              		.loc 1 692 0
 7357 2d68 3C800000 		lis 4,.LC10@ha
 7358 2d6c 38840048 		la 4,.LC10@l(4)
 7359 2d70 4BFFFCE4 		b .L640
 7360              	.LVL550:
 7361              	.L714:
 7362              	.LBE3560:
 7363              	.LBE3683:
 7364              	.LBB3684:
 7365              	.LBB3685:
 7366              		.loc 2 2346 0
 7367 2d74 3861003C 		addi 3,1,60
 7368 2d78 38810044 		addi 4,1,68
 7369              	.LVL551:
 7370 2d7c 48000001 		bl _ZNSsC1ERKSs
 7371              	.LEHE75:
 7372              	.LVL552:
 7373              	.LBB3686:
 7374              	.LBB3687:
 7375              		.loc 2 1000 0
 7376 2d80 3C800000 		lis 4,.LC15@ha
 7377 2d84 3861003C 		addi 3,1,60
 7378              	.LVL553:
 7379 2d88 38840068 		la 4,.LC15@l(4)
 7380 2d8c 38A0000D 		li 5,13
 7381              	.LEHB76:
 7382 2d90 48000001 		bl _ZNSs6appendEPKcj
 7383              	.LEHE76:
 7384              	.LVL554:
 7385              	.LBE3687:
 7386              	.LBE3686:
 7387              	.LBE3685:
 7388              	.LBE3684:
 7389              	.LBB3689:
 7390              	.LBB3690:
 7391              		.loc 1 746 0
 7392 2d94 3B81004C 		addi 28,1,76
 7393              		.loc 2 542 0
 7394 2d98 3881003C 		addi 4,1,60
 7395              	.LVL555:
 7396 2d9c 7F83E378 		mr 3,28
 7397              	.LEHB77:
 7398 2da0 48000001 		bl _ZNSs6assignERKSs
 7399              	.LEHE77:
 7400              	.LVL556:
 7401              	.LBE3690:
 7402              	.LBE3689:
 7403              	.LBB3691:
 7404              	.LBB3692:
 7405              	.LBB3693:
 7406              	.LBB3694:
 7407              	.LBB3695:
 7408              	.LBB3696:
 7409              		.loc 2 288 0
 7410 2da4 8121003C 		lwz 9,60(1)
 7411              	.LBE3696:
 7412              	.LBE3695:
 7413              	.LBE3694:
 7414              	.LBB3697:
 7415              	.LBB3698:
 7416              		.loc 2 235 0
 7417 2da8 3D600000 		lis 11,_ZNSs4_Rep20_S_empty_rep_storageE@ha
 7418 2dac 380B0000 		la 0,_ZNSs4_Rep20_S_empty_rep_storageE@l(11)
 7419              	.LBE3698:
 7420              	.LBE3697:
 7421              		.loc 2 534 0
 7422 2db0 3869FFF4 		addi 3,9,-12
 7423              	.LVL557:
 7424              	.LBB3706:
