   1              		.file	"CTheme.cpp"
   2              		.section	".text"
   3              	.Ltext0:
   4              		.align 2
   5              		.globl _ZN5Theme7CleanUpEv
   6              		.type	_ZN5Theme7CleanUpEv, @function
   7              	_ZN5Theme7CleanUpEv:
   8              	.LFB1732:
   9              		.file 1 "d:/Projects/SaveGameManager/savegame-manager-gx/trunk/source/Themes/CTheme.cpp"
  10              		.loc 1 132 0
  11              		.cfi_startproc
  12 0000 9421FFF0 		stwu 1,-16(1)
  13              	.LCFI0:
  14              		.cfi_def_cfa_offset 16
  15 0004 7C0802A6 		mflr 0
  16 0008 93C10008 		stw 30,8(1)
  17              	.LBB1928:
  18              	.LBB1929:
  19              		.loc 1 334 0
  20 000c 3FC00000 		lis 30,fontSystem@ha
  21              		.cfi_offset 30, -8
  22              		.cfi_register 65, 0
  23              	.LBE1929:
  24              	.LBE1928:
  25              		.loc 1 132 0
  26 0010 90010014 		stw 0,20(1)
  27 0014 93E1000C 		stw 31,12(1)
  28              		.loc 1 133 0
  29              		.cfi_offset 31, -4
  30              		.cfi_offset 65, 4
  31 0018 48000001 		bl ThemeCleanUp
  32              		.loc 1 134 0
  33 001c 48000001 		bl _ZN9Resources15DestroyInstanceEv
  34              	.LBB1932:
  35              	.LBB1930:
  36              		.loc 1 334 0
  37 0020 83FE0000 		lwz 31,fontSystem@l(30)
  38 0024 2F9F0000 		cmpwi 7,31,0
  39 0028 419E0014 		beq- 7,.L2
  40              		.loc 1 335 0
  41 002c 7FE3FB78 		mr 3,31
  42 0030 48000001 		bl _ZN10FreeTypeGXD1Ev
  43 0034 7FE3FB78 		mr 3,31
  44 0038 48000001 		bl _ZdlPv
  45              	.L2:
  46              		.loc 1 338 0
  47 003c 3FE00000 		lis 31,.LANCHOR0@ha
  48              		.loc 1 336 0
  49 0040 38000000 		li 0,0
  50              		.loc 1 338 0
  51 0044 807F0000 		lwz 3,.LANCHOR0@l(31)
  52              		.loc 1 336 0
  53 0048 901E0000 		stw 0,fontSystem@l(30)
  54              		.loc 1 338 0
  55 004c 2F830000 		cmpwi 7,3,0
  56 0050 419E0008 		beq- 7,.L3
  57              		.loc 1 339 0
  58 0054 48000001 		bl _ZdaPv
  59              	.L3:
  60              		.loc 1 340 0
  61 0058 3BDF0000 		la 30,.LANCHOR0@l(31)
  62 005c 38000000 		li 0,0
  63              		.loc 1 342 0
  64 0060 807E0004 		lwz 3,4(30)
  65              		.loc 1 340 0
  66 0064 901F0000 		stw 0,.LANCHOR0@l(31)
  67              		.loc 1 342 0
  68 0068 2F830000 		cmpwi 7,3,0
  69 006c 419E0008 		beq- 7,.L4
  70              		.loc 1 343 0
  71 0070 48000001 		bl _ZdaPv
  72              	.L4:
  73              		.loc 1 344 0
  74 0074 38000000 		li 0,0
  75              	.LBE1930:
  76              	.LBE1932:
  77              		.loc 1 136 0
  78 0078 83E1000C 		lwz 31,12(1)
  79              	.LBB1933:
  80              	.LBB1931:
  81              		.loc 1 344 0
  82 007c 901E0004 		stw 0,4(30)
  83              	.LBE1931:
  84              	.LBE1933:
  85              		.loc 1 136 0
  86 0080 80010014 		lwz 0,20(1)
  87 0084 83C10008 		lwz 30,8(1)
  88 0088 7C0803A6 		mtlr 0
  89 008c 38210010 		addi 1,1,16
  90              	.LCFI1:
  91              		.cfi_def_cfa_offset 0
  92              		.cfi_restore 31
  93              		.cfi_restore 30
  94 0090 4E800020 		blr
  95              		.cfi_endproc
  96              	.LFE1732:
  97              		.size	_ZN5Theme7CleanUpEv, .-_ZN5Theme7CleanUpEv
  98              		.align 2
  99              		.globl _ZN5Theme14loadSystemFontEb
 100              		.type	_ZN5Theme14loadSystemFontEb, @function
 101              	_ZN5Theme14loadSystemFontEb:
 102              	.LFB1735:
 103              		.loc 1 218 0
 104              		.cfi_startproc
 105              		.cfi_personality 0,__gxx_personality_v0
 106              		.cfi_lsda 0,.LLSDA1735
 107              	.LVL0:
 108 0094 7C0802A6 		mflr 0
 109 0098 9421FFB0 		stwu 1,-80(1)
 110              	.LCFI2:
 111              		.cfi_def_cfa_offset 80
 112              		.cfi_register 65, 0
 113 009c 7D800026 		mfcr 12
 114              	.LBB1989:
 115              		.loc 1 219 0
 116 00a0 3D600000 		lis 11,.LC0@ha
 117              	.LBE1989:
 118              		.loc 1 218 0
 119 00a4 93810040 		stw 28,64(1)
 120              	.LBB2046:
 121              		.loc 1 219 0
 122 00a8 392B0030 		la 9,.LC0@l(11)
 123              	.LBE2046:
 124              		.loc 1 218 0
 125 00ac 90010054 		stw 0,84(1)
 126 00b0 80010000 		lwz 0,0(1)
 127              		.cfi_offset 65, 4
 128              		.cfi_offset 28, -16
 129              		.cfi_register 70, 12
 130 00b4 93A10044 		stw 29,68(1)
 131 00b8 7C7D1B78 		mr 29,3
 132              		.cfi_offset 29, -12
 133 00bc 93E1004C 		stw 31,76(1)
 134 00c0 7C3F0B78 		mr 31,1
 135              		.cfi_offset 31, -4
 136              	.LCFI3:
 137              		.cfi_def_cfa_register 31
 138 00c4 92E1002C 		stw 23,44(1)
 139              	.LBB2047:
 140              		.loc 1 223 0
 141 00c8 38BF000B 		addi 5,31,11
 142              	.LBE2047:
 143              		.loc 1 218 0
 144 00cc 93010030 		stw 24,48(1)
 145              	.LBB2048:
 146              		.loc 1 223 0
 147 00d0 387F0018 		addi 3,31,24
 148              	.LVL1:
 149              	.LBE2048:
 150              		.loc 1 218 0
 151 00d4 93210034 		stw 25,52(1)
 152 00d8 93410038 		stw 26,56(1)
 153 00dc 9361003C 		stw 27,60(1)
 154 00e0 93C10048 		stw 30,72(1)
 155 00e4 91810028 		stw 12,40(1)
 156              		.loc 1 218 0
 157 00e8 9401FFA0 		stwu 0,-96(1)
 158              	.LBB2049:
 159              		.loc 1 220 0
 160 00ec 38000000 		li 0,0
 161              		.loc 1 219 0
 162 00f0 80E90004 		lwz 7,4(9)
 163 00f4 81090008 		lwz 8,8(9)
 164              	.LBE2049:
 165              		.loc 1 218 0
 166 00f8 3B810027 		addi 28,1,39
 167              	.LBB2050:
 168              		.loc 1 219 0
 169 00fc 8149000C 		lwz 10,12(9)
 170              	.LBE2050:
 171              		.loc 1 218 0
 172 0100 579C0034 		rlwinm 28,28,0,0,26
 173              	.LBB2051:
 174              		.loc 1 219 0
 175 0104 80CB0030 		lwz 6,.LC0@l(11)
 176              		.loc 1 223 0
 177 0108 7F84E378 		mr 4,28
 178              		.loc 1 219 0
 179 010c 81690010 		lwz 11,16(9)
 180 0110 89290014 		lbz 9,20(9)
 181 0114 90DC0000 		stw 6,0(28)
 182 0118 90FC0004 		stw 7,4(28)
 183 011c 911C0008 		stw 8,8(28)
 184 0120 915C000C 		stw 10,12(28)
 185 0124 917C0010 		stw 11,16(28)
 186 0128 993C0014 		stb 9,20(28)
 187              		.loc 1 220 0
 188 012c 901F0020 		stw 0,32(31)
 189              	.LVL2:
 190              		.loc 1 221 0
 191 0130 901F001C 		stw 0,28(31)
 192              	.LVL3:
 193              	.LEHB0:
 194              		.loc 1 223 0
 195              		.cfi_offset 70, -40
 196              		.cfi_offset 30, -8
 197              		.cfi_offset 27, -20
 198              		.cfi_offset 26, -24
 199              		.cfi_offset 25, -28
 200              		.cfi_offset 24, -32
 201              		.cfi_offset 23, -36
 202 0134 48000001 		bl _ZNSsC1EPKcRKSaIcE
 203              	.LEHE0:
 204 0138 387F0018 		addi 3,31,24
 205 013c 389F0020 		addi 4,31,32
 206 0140 38BF001C 		addi 5,31,28
 207              	.LEHB1:
 208 0144 48000001 		bl _ZN4Nand8LoadFileESsPPhPj
 209              	.LEHE1:
 210              	.LVL4:
 211              	.LBB1990:
 212              	.LBB1991:
 213              	.LBB1992:
 214              	.LBB1993:
 215              	.LBB1994:
 216              	.LBB1995:
 217              		.file 2 "d:\\devkitpro\\devkitppc\\bin\\../lib/gcc/powerpc-eabi/4.6.3/../../../../powerpc-eabi/inc
 218              		.loc 2 288 0
 219 0148 813F0018 		lwz 9,24(31)
 220              	.LBE1995:
 221              	.LBE1994:
 222              	.LBE1993:
 223              	.LBB1996:
 224              	.LBB1997:
 225              		.loc 2 235 0
 226 014c 3F200000 		lis 25,_ZNSs4_Rep20_S_empty_rep_storageE@ha
 227 0150 3B390000 		la 25,_ZNSs4_Rep20_S_empty_rep_storageE@l(25)
 228              	.LBE1997:
 229              	.LBE1996:
 230              		.loc 2 534 0
 231 0154 3869FFF4 		addi 3,9,-12
 232              	.LVL5:
 233              	.LBB2006:
 234              	.LBB2004:
 235              		.loc 2 235 0
 236 0158 7F83C800 		cmpw 7,3,25
 237 015c 409E0284 		bne- 7,.L39
 238              	.LVL6:
 239              	.L14:
 240              	.LBE2004:
 241              	.LBE2006:
 242              	.LBE1992:
 243              	.LBE1991:
 244              	.LBE1990:
 245              		.loc 1 224 0 discriminator 1
 246 0160 83DF0020 		lwz 30,32(31)
 247 0164 2F9E0000 		cmpwi 7,30,0
 248 0168 419E0234 		beq- 7,.L33
 249              		.loc 1 227 0
 250 016c 837F001C 		lwz 27,28(31)
 251 0170 3C002492 		lis 0,0x2492
 252 0174 60004925 		ori 0,0,18725
 253 0178 577BF0BE 		srwi 27,27,2
 254 017c 7F7B0016 		mulhwu 27,27,0
 255              	.LVL7:
 256              	.LBB2010:
 257              		.loc 1 231 0
 258 0180 2F9B0000 		cmpwi 7,27,0
 259 0184 419E01CC 		beq- 7,.L16
 260 0188 3F400000 		lis 26,.LANCHOR1@ha
 261 018c 2E1D0000 		cmpwi 4,29,0
 262 0190 3B5A0000 		la 26,.LANCHOR1@l(26)
 263 0194 3BA00000 		li 29,0
 264 0198 48000028 		b .L30
 265              	.LVL8:
 266              	.L42:
 267              	.LBB2011:
 268              		.loc 1 233 0
 269 019c 7F44D378 		mr 4,26
 270 01a0 38A00014 		li 5,20
 271 01a4 48000001 		bl memcmp
 272 01a8 7C781B79 		mr. 24,3
 273 01ac 41820030 		beq- 0,.L40
 274              	.L18:
 275              	.LBE2011:
 276              		.loc 1 231 0
 277 01b0 3BBD0001 		addi 29,29,1
 278              	.LVL9:
 279 01b4 3BDE001C 		addi 30,30,28
 280 01b8 7F9BE800 		cmpw 7,27,29
 281 01bc 419E0190 		beq- 7,.L41
 282              	.LVL10:
 283              	.L30:
 284              	.LBB2037:
 285              		.loc 1 233 0
 286 01c0 387E0008 		addi 3,30,8
 287 01c4 40B2FFD8 		bne- 4,.L42
 288 01c8 389A0014 		addi 4,26,20
 289 01cc 38A00014 		li 5,20
 290 01d0 48000001 		bl memcmp
 291 01d4 7C781B79 		mr. 24,3
 292 01d8 4082FFD8 		bne+ 0,.L18
 293              	.L40:
 294              		.loc 1 238 0
 295 01dc 3AFC0020 		addi 23,28,32
 296 01e0 3CA00000 		lis 5,.LC1@ha
 297 01e4 38800020 		li 4,32
 298 01e8 38A50000 		la 5,.LC1@l(5)
 299 01ec 7FC6F378 		mr 6,30
 300 01f0 7EE3BB78 		mr 3,23
 301              	.LEHB2:
 302 01f4 4CC63182 		crxor 6,6,6
 303 01f8 48000001 		bl snprintf
 304              		.loc 1 243 0
 305 01fc 7EE4BB78 		mr 4,23
 306 0200 38BF000A 		addi 5,31,10
 307 0204 387F000C 		addi 3,31,12
 308              		.loc 1 240 0
 309 0208 931F0014 		stw 24,20(31)
 310              		.loc 1 241 0
 311 020c 931F0010 		stw 24,16(31)
 312              		.loc 1 243 0
 313 0210 48000001 		bl _ZNSsC1EPKcRKSaIcE
 314              	.LEHE2:
 315 0214 387F000C 		addi 3,31,12
 316 0218 389F0014 		addi 4,31,20
 317 021c 38BF0010 		addi 5,31,16
 318              	.LEHB3:
 319 0220 48000001 		bl _ZN4Nand8LoadFileESsPPhPj
 320              	.LEHE3:
 321              	.LVL11:
 322              	.LBB2012:
 323              	.LBB2013:
 324              	.LBB2014:
 325              	.LBB2015:
 326              	.LBB2016:
 327              	.LBB2017:
 328              		.loc 2 288 0
 329 0224 813F000C 		lwz 9,12(31)
 330              	.LBE2017:
 331              	.LBE2016:
 332              	.LBE2015:
 333              		.loc 2 534 0
 334 0228 3869FFF4 		addi 3,9,-12
 335              	.LVL12:
 336              	.LBB2018:
 337              	.LBB2019:
 338              		.loc 2 235 0
 339 022c 7F83C800 		cmpw 7,3,25
 340 0230 409E01D0 		bne- 7,.L43
 341              	.LVL13:
 342              	.L26:
 343              	.LBE2019:
 344              	.LBE2018:
 345              	.LBE2014:
 346              	.LBE2013:
 347              	.LBE2012:
 348              		.loc 1 244 0 discriminator 1
 349 0234 807F0014 		lwz 3,20(31)
 350 0238 2F830000 		cmpwi 7,3,0
 351 023c 41BEFF74 		beq- 7,.L18
 352              	.LVL14:
 353              		.loc 1 248 0
 354 0240 83030004 		lwz 24,4(3)
 355 0244 7F03C214 		add 24,3,24
 356              	.LVL15:
 357              		.loc 1 250 0
 358 0248 80180008 		lwz 0,8(24)
 359 024c 2F800000 		cmpwi 7,0,0
 360 0250 419E00E8 		beq- 7,.L38
 361              		.loc 1 256 0
 362 0254 3EE00000 		lis 23,.LANCHOR0@ha
 363 0258 3AF70000 		la 23,.LANCHOR0@l(23)
 364 025c 80770004 		lwz 3,4(23)
 365 0260 2F830000 		cmpwi 7,3,0
 366 0264 419E0008 		beq- 7,.L28
 367              		.loc 1 257 0 discriminator 1
 368 0268 48000001 		bl _ZdaPv
 369              	.LVL16:
 370              	.L28:
 371              		.loc 1 259 0
 372 026c 80180014 		lwz 0,20(24)
 373              		.loc 1 260 0
 374 0270 3C800000 		lis 4,_ZSt7nothrow@ha
 375 0274 38840000 		la 4,_ZSt7nothrow@l(4)
 376              		.loc 1 259 0
 377 0278 90170008 		stw 0,8(23)
 378              		.loc 1 260 0
 379 027c 7C030378 		mr 3,0
 380 0280 48000001 		bl _ZnajRKSt9nothrow_t
 381              		.loc 1 261 0
 382 0284 2F830000 		cmpwi 7,3,0
 383              		.loc 1 260 0
 384 0288 90770004 		stw 3,4(23)
 385              		.loc 1 261 0
 386 028c 419E00A8 		beq- 7,.L44
 387              		.loc 1 267 0
 388 0290 80180010 		lwz 0,16(24)
 389 0294 809F0014 		lwz 4,20(31)
 390 0298 80B70008 		lwz 5,8(23)
 391 029c 7C840214 		add 4,4,0
 392 02a0 48000001 		bl memcpy
 393              		.loc 1 269 0
 394 02a4 807F0014 		lwz 3,20(31)
 395 02a8 48000001 		bl free
 396              		.loc 1 270 0
 397 02ac 807F0020 		lwz 3,32(31)
 398 02b0 48000001 		bl free
 399              	.LVL17:
 400              	.LBB2030:
 401              	.LBB2031:
 402              		.loc 1 72 0
 403 02b4 8978000D 		lbz 11,13(24)
 404 02b8 8938000E 		lbz 9,14(24)
 405              	.LBE2031:
 406              	.LBE2030:
 407              		.loc 1 271 0
 408 02bc 3C600000 		lis 3,.LC2@ha
 409              	.LBB2034:
 410              	.LBB2032:
 411              		.loc 1 72 0
 412 02c0 80180008 		lwz 0,8(24)
 413 02c4 556B801E 		slwi 11,11,16
 414 02c8 8898000F 		lbz 4,15(24)
 415 02cc 5529402E 		slwi 9,9,8
 416 02d0 7D295B78 		or 9,9,11
 417 02d4 1C00000C 		mulli 0,0,12
 418 02d8 7C844B78 		or 4,4,9
 419              	.LBE2032:
 420              	.LBE2034:
 421              		.loc 1 271 0
 422 02dc 38630014 		la 3,.LC2@l(3)
 423              	.LBB2035:
 424              	.LBB2033:
 425              		.loc 1 72 0
 426 02e0 7C840214 		add 4,4,0
 427              	.LBE2033:
 428              	.LBE2035:
 429              		.loc 1 271 0
 430 02e4 7C982214 		add 4,24,4
 431              	.LEHB4:
 432 02e8 4CC63182 		crxor 6,6,6
 433 02ec 48000001 		bl gprintf
 434              	.LBE2037:
 435              	.LBE2010:
 436              	.LBE2051:
 437              		.loc 1 278 0
 438 02f0 397F0050 		addi 11,31,80
 439 02f4 800B0004 		lwz 0,4(11)
 440              	.LBB2052:
 441              	.LBB2042:
 442              	.LBB2038:
 443              		.loc 1 272 0
 444 02f8 38600001 		li 3,1
 445              	.LBE2038:
 446              	.LBE2042:
 447              	.LBE2052:
 448              		.loc 1 278 0
 449 02fc 818BFFD8 		lwz 12,-40(11)
 450 0300 7C0803A6 		mtlr 0
 451 0304 82EBFFDC 		lwz 23,-36(11)
 452 0308 830BFFE0 		lwz 24,-32(11)
 453              	.LVL18:
 454 030c 7D808120 		mtcrf 8,12
 455 0310 832BFFE4 		lwz 25,-28(11)
 456 0314 834BFFE8 		lwz 26,-24(11)
 457 0318 836BFFEC 		lwz 27,-20(11)
 458              	.LVL19:
 459 031c 838BFFF0 		lwz 28,-16(11)
 460 0320 83ABFFF4 		lwz 29,-12(11)
 461 0324 83CBFFF8 		lwz 30,-8(11)
 462 0328 83EBFFFC 		lwz 31,-4(11)
 463              		.cfi_remember_state
 464              	.LCFI4:
 465              		.cfi_def_cfa 11, 0
 466 032c 7D615B78 		mr 1,11
 467              	.LCFI5:
 468              		.cfi_def_cfa_register 1
 469              		.cfi_restore 70
 470              		.cfi_restore 31
 471              		.cfi_restore 30
 472              		.cfi_restore 29
 473              		.cfi_restore 28
 474              		.cfi_restore 27
 475              		.cfi_restore 26
 476              		.cfi_restore 25
 477              		.cfi_restore 24
 478              		.cfi_restore 23
 479 0330 4E800020 		blr
 480              	.LVL20:
 481              	.L44:
 482              	.LCFI6:
 483              		.cfi_restore_state
 484              	.LBB2053:
 485              	.LBB2043:
 486              	.LBB2039:
 487              		.loc 1 263 0
 488 0334 807F0014 		lwz 3,20(31)
 489              	.L38:
 490              	.LBE2039:
 491              		.loc 1 231 0
 492 0338 3BBD0001 		addi 29,29,1
 493              	.LBB2040:
 494              		.loc 1 263 0
 495 033c 48000001 		bl free
 496              	.LVL21:
 497              	.LBE2040:
 498              		.loc 1 231 0
 499 0340 7F9BE800 		cmpw 7,27,29
 500 0344 3BDE001C 		addi 30,30,28
 501 0348 409EFE78 		bne+ 7,.L30
 502              	.LVL22:
 503              	.L41:
 504 034c 83DF0020 		lwz 30,32(31)
 505              	.LVL23:
 506              	.L16:
 507              	.LBE2043:
 508              		.loc 1 275 0
 509 0350 7FC3F378 		mr 3,30
 510 0354 48000001 		bl free
 511              	.LBE2053:
 512              		.loc 1 278 0
 513 0358 397F0050 		addi 11,31,80
 514 035c 800B0004 		lwz 0,4(11)
 515              	.LBB2054:
 516              		.loc 1 277 0
 517 0360 38600000 		li 3,0
 518              	.LBE2054:
 519              		.loc 1 278 0
 520 0364 818BFFD8 		lwz 12,-40(11)
 521 0368 7C0803A6 		mtlr 0
 522 036c 82EBFFDC 		lwz 23,-36(11)
 523 0370 830BFFE0 		lwz 24,-32(11)
 524 0374 7D808120 		mtcrf 8,12
 525 0378 832BFFE4 		lwz 25,-28(11)
 526 037c 834BFFE8 		lwz 26,-24(11)
 527 0380 836BFFEC 		lwz 27,-20(11)
 528              	.LVL24:
 529 0384 838BFFF0 		lwz 28,-16(11)
 530 0388 83ABFFF4 		lwz 29,-12(11)
 531 038c 83CBFFF8 		lwz 30,-8(11)
 532 0390 83EBFFFC 		lwz 31,-4(11)
 533              		.cfi_remember_state
 534              	.LCFI7:
 535              		.cfi_def_cfa 11, 0
 536 0394 7D615B78 		mr 1,11
 537              		.cfi_restore 23
 538              		.cfi_restore 24
 539              		.cfi_restore 25
 540              		.cfi_restore 26
 541              		.cfi_restore 27
 542              		.cfi_restore 28
 543              		.cfi_restore 29
 544              		.cfi_restore 30
 545              		.cfi_restore 31
 546              		.cfi_restore 70
 547              	.LCFI8:
 548              		.cfi_def_cfa_register 1
 549 0398 4E800020 		blr
 550              	.LVL25:
 551              	.L33:
 552              	.LCFI9:
 553              		.cfi_restore_state
 554 039c 397F0050 		addi 11,31,80
 555              	.LBB2055:
 556              		.loc 1 225 0
 557 03a0 38600000 		li 3,0
 558              	.LBE2055:
 559              		.loc 1 278 0
 560 03a4 800B0004 		lwz 0,4(11)
 561 03a8 818BFFD8 		lwz 12,-40(11)
 562 03ac 7C0803A6 		mtlr 0
 563 03b0 82EBFFDC 		lwz 23,-36(11)
 564 03b4 830BFFE0 		lwz 24,-32(11)
 565 03b8 7D808120 		mtcrf 8,12
 566 03bc 832BFFE4 		lwz 25,-28(11)
 567 03c0 834BFFE8 		lwz 26,-24(11)
 568 03c4 836BFFEC 		lwz 27,-20(11)
 569 03c8 838BFFF0 		lwz 28,-16(11)
 570 03cc 83ABFFF4 		lwz 29,-12(11)
 571 03d0 83CBFFF8 		lwz 30,-8(11)
 572 03d4 83EBFFFC 		lwz 31,-4(11)
 573              		.cfi_remember_state
 574              	.LCFI10:
 575              		.cfi_def_cfa 11, 0
 576 03d8 7D615B78 		mr 1,11
 577              		.cfi_restore 23
 578              		.cfi_restore 24
 579              		.cfi_restore 25
 580              		.cfi_restore 26
 581              		.cfi_restore 27
 582              		.cfi_restore 28
 583              		.cfi_restore 29
 584              		.cfi_restore 30
 585              		.cfi_restore 31
 586              		.cfi_restore 70
 587              	.LCFI11:
 588              		.cfi_def_cfa_register 1
 589 03dc 4E800020 		blr
 590              	.LVL26:
 591              	.L39:
 592              	.LCFI12:
 593              		.cfi_restore_state
 594              	.LBB2056:
 595              	.LBB2044:
 596              	.LBB2009:
 597              	.LBB2008:
 598              	.LBB2007:
 599              	.LBB2005:
 600              	.LBB1998:
 601              	.LBB1999:
 602              	.LBB2000:
 603              		.file 3 "d:\\devkitpro\\devkitppc\\bin\\../lib/gcc/powerpc-eabi/4.6.3/../../../../powerpc-eabi/inc
 604              		.loc 3 66 0
 605 03e0 8169FFFC 		lwz 11,-4(9)
 606              	.LVL27:
 607              	.LBE2000:
 608              	.LBE1999:
 609              	.LBE1998:
 610              		.loc 2 240 0
 611 03e4 2F8B0000 		cmpwi 7,11,0
 612              	.LBB2003:
 613              	.LBB2002:
 614              	.LBB2001:
 615              		.loc 3 67 0
 616 03e8 396BFFFF 		addi 11,11,-1
 617 03ec 9169FFFC 		stw 11,-4(9)
 618              	.LBE2001:
 619              	.LBE2002:
 620              	.LBE2003:
 621              		.loc 2 240 0
 622 03f0 419DFD70 		bgt+ 7,.L14
 623              		.loc 2 244 0
 624 03f4 389F0009 		addi 4,31,9
 625 03f8 48000001 		bl _ZNSs4_Rep10_M_destroyERKSaIcE
 626              	.LVL28:
 627 03fc 4BFFFD64 		b .L14
 628              	.LVL29:
 629              	.L43:
 630              	.LBE2005:
 631              	.LBE2007:
 632              	.LBE2008:
 633              	.LBE2009:
 634              	.LBE2044:
 635              	.LBB2045:
 636              	.LBB2041:
 637              	.LBB2036:
 638              	.LBB2029:
 639              	.LBB2028:
 640              	.LBB2027:
 641              	.LBB2026:
 642              	.LBB2020:
 643              	.LBB2021:
 644              	.LBB2022:
 645              		.loc 3 66 0
 646 0400 8169FFFC 		lwz 11,-4(9)
 647              	.LVL30:
 648              	.LBE2022:
 649              	.LBE2021:
 650              	.LBE2020:
 651              		.loc 2 240 0
 652 0404 2F8B0000 		cmpwi 7,11,0
 653              	.LBB2025:
 654              	.LBB2024:
 655              	.LBB2023:
 656              		.loc 3 67 0
 657 0408 396BFFFF 		addi 11,11,-1
 658 040c 9169FFFC 		stw 11,-4(9)
 659              	.LBE2023:
 660              	.LBE2024:
 661              	.LBE2025:
 662              		.loc 2 240 0
 663 0410 419DFE24 		bgt+ 7,.L26
 664              		.loc 2 244 0
 665 0414 389F0008 		addi 4,31,8
 666 0418 48000001 		bl _ZNSs4_Rep10_M_destroyERKSaIcE
 667              	.LVL31:
 668 041c 4BFFFE18 		b .L26
 669              	.LVL32:
 670              	.L36:
 671 0420 7C7E1B78 		mr 30,3
 672              	.LBE2026:
 673              	.LBE2027:
 674              	.LBE2028:
 675              	.LBE2029:
 676              	.LBE2036:
 677              		.loc 1 243 0
 678 0424 387F000C 		addi 3,31,12
 679 0428 48000001 		bl _ZNSsD1Ev
 680 042c 7FC3F378 		mr 3,30
 681 0430 48000001 		bl _Unwind_Resume
 682              	.LVL33:
 683              	.L35:
 684 0434 7C7E1B78 		mr 30,3
 685              	.LBE2041:
 686              	.LBE2045:
 687              		.loc 1 223 0
 688 0438 387F0018 		addi 3,31,24
 689 043c 48000001 		bl _ZNSsD1Ev
 690 0440 7FC3F378 		mr 3,30
 691 0444 48000001 		bl _Unwind_Resume
 692              	.LEHE4:
 693              	.LBE2056:
 694              		.cfi_endproc
 695              	.LFE1735:
 696              		.globl __gxx_personality_v0
 697              		.section	.gcc_except_table,"a",@progbits
 698              	.LLSDA1735:
 699 0000 FF       		.byte	0xff
 700 0001 FF       		.byte	0xff
 701 0002 01       		.byte	0x1
 702 0003 1C       		.uleb128 .LLSDACSE1735-.LLSDACSB1735
 703              	.LLSDACSB1735:
 704 0004 A001     		.uleb128 .LEHB0-.LFB1735
 705 0006 04       		.uleb128 .LEHE0-.LEHB0
 706 0007 00       		.uleb128 0
 707 0008 00       		.uleb128 0
 708 0009 B001     		.uleb128 .LEHB1-.LFB1735
 709 000b 04       		.uleb128 .LEHE1-.LEHB1
 710 000c A007     		.uleb128 .L35-.LFB1735
 711 000e 00       		.uleb128 0
 712 000f E002     		.uleb128 .LEHB2-.LFB1735
 713 0011 20       		.uleb128 .LEHE2-.LEHB2
 714 0012 00       		.uleb128 0
 715 0013 00       		.uleb128 0
 716 0014 8C03     		.uleb128 .LEHB3-.LFB1735
 717 0016 04       		.uleb128 .LEHE3-.LEHB3
 718 0017 8C07     		.uleb128 .L36-.LFB1735
 719 0019 00       		.uleb128 0
 720 001a D404     		.uleb128 .LEHB4-.LFB1735
 721 001c E002     		.uleb128 .LEHE4-.LEHB4
 722 001e 00       		.uleb128 0
 723 001f 00       		.uleb128 0
 724              	.LLSDACSE1735:
 725              		.section	".text"
 726              		.size	_ZN5Theme14loadSystemFontEb, .-_ZN5Theme14loadSystemFontEb
 727              		.align 2
 728              		.globl _ZN5Theme8LoadFontEPKc
 729              		.type	_ZN5Theme8LoadFontEPKc, @function
 730              	_ZN5Theme8LoadFontEPKc:
 731              	.LFB1736:
 732              		.loc 1 281 0
 733              		.cfi_startproc
 734              		.cfi_personality 0,__gxx_personality_v0
 735              		.cfi_lsda 0,.LLSDA1736
 736              	.LVL34:
 737 0448 9421FFE0 		stwu 1,-32(1)
 738              	.LCFI13:
 739              		.cfi_def_cfa_offset 32
 740 044c 7C0802A6 		mflr 0
 741 0450 93E1001C 		stw 31,28(1)
 742              	.LBB2057:
 743              		.loc 1 285 0
 744 0454 3FE00000 		lis 31,.LANCHOR0@ha
 745              		.cfi_offset 31, -4
 746              		.cfi_register 65, 0
 747              	.LBE2057:
 748              		.loc 1 281 0
 749 0458 90010024 		stw 0,36(1)
 750              	.LBB2058:
 751              		.loc 1 285 0
 752 045c 801F0000 		lwz 0,.LANCHOR0@l(31)
 753              		.cfi_offset 65, 4
 754              	.LBE2058:
 755              		.loc 1 281 0
 756 0460 93C10018 		stw 30,24(1)
 757 0464 7C7E1B78 		mr 30,3
 758              		.cfi_offset 30, -8
 759              	.LBB2059:
 760              		.loc 1 285 0
 761 0468 2F800000 		cmpwi 7,0,0
 762              	.LBE2059:
 763              		.loc 1 281 0
 764 046c 93410008 		stw 26,8(1)
 765 0470 9361000C 		stw 27,12(1)
 766 0474 93810010 		stw 28,16(1)
 767 0478 93A10014 		stw 29,20(1)
 768              	.LBB2060:
 769              		.loc 1 285 0
 770 047c 419E000C 		beq- 7,.L46
 771              		.cfi_offset 29, -12
 772              		.cfi_offset 28, -16
 773              		.cfi_offset 27, -20
 774              		.cfi_offset 26, -24
 775              		.loc 1 285 0 is_stmt 0 discriminator 1
 776 0480 7C030378 		mr 3,0
 777              	.LVL35:
 778 0484 48000001 		bl _ZdaPv
 779              	.L46:
 780              		.loc 1 288 0 is_stmt 1
 781 0488 3C800000 		lis 4,.LC3@ha
 782 048c 7FC3F378 		mr 3,30
 783              		.loc 1 286 0
 784 0490 38000000 		li 0,0
 785              		.loc 1 288 0
 786 0494 38840048 		la 4,.LC3@l(4)
 787              		.loc 1 286 0
 788 0498 901F0000 		stw 0,.LANCHOR0@l(31)
 789              	.LEHB5:
 790              		.loc 1 288 0
 791 049c 48000001 		bl fopen
 792              	.LVL36:
 793              		.loc 1 290 0
 794 04a0 7C7D1B79 		mr. 29,3
 795              		.loc 1 286 0
 796 04a4 3B9F0000 		la 28,.LANCHOR0@l(31)
 797              		.loc 1 282 0
 798 04a8 3BC00000 		li 30,0
 799              	.LVL37:
 800              		.loc 1 290 0
 801 04ac 41820064 		beq- 0,.L47
 802              		.loc 1 292 0
 803 04b0 38A00000 		li 5,0
 804 04b4 38C00000 		li 6,0
 805 04b8 38E00002 		li 7,2
 806 04bc 48000001 		bl fseek
 807              	.LVL38:
 808              		.loc 1 293 0
 809 04c0 7FA3EB78 		mr 3,29
 810 04c4 48000001 		bl ftell
 811 04c8 907C000C 		stw 3,12(28)
 812              		.loc 1 294 0
 813 04cc 7FA3EB78 		mr 3,29
 814 04d0 48000001 		bl rewind
 815              		.loc 1 296 0
 816 04d4 807C000C 		lwz 3,12(28)
 817 04d8 3C800000 		lis 4,_ZSt7nothrow@ha
 818 04dc 38840000 		la 4,_ZSt7nothrow@l(4)
 819 04e0 48000001 		bl _ZnajRKSt9nothrow_t
 820 04e4 3D200000 		lis 9,.LANCHOR0@ha
 821              		.loc 1 297 0
 822 04e8 2F830000 		cmpwi 7,3,0
 823              		.loc 1 296 0
 824 04ec 90690000 		stw 3,.LANCHOR0@l(9)
 825              		.loc 1 297 0
 826 04f0 419E0018 		beq- 7,.L48
 827              		.loc 1 299 0
 828 04f4 80BC000C 		lwz 5,12(28)
 829 04f8 38800001 		li 4,1
 830 04fc 7FA6EB78 		mr 6,29
 831              		.loc 1 300 0
 832 0500 3BC00001 		li 30,1
 833              		.loc 1 299 0
 834 0504 48000001 		bl fread
 835              	.LVL39:
 836              	.L48:
 837              		.loc 1 302 0
 838 0508 7FA3EB78 		mr 3,29
 839 050c 48000001 		bl fclose
 840              	.LVL40:
 841              	.L47:
 842              		.loc 1 305 0
 843 0510 835F0000 		lwz 26,.LANCHOR0@l(31)
 844              	.LVL41:
 845              		.loc 1 306 0
 846 0514 837C000C 		lwz 27,12(28)
 847              	.LVL42:
 848              		.loc 1 308 0
 849 0518 2F9A0000 		cmpwi 7,26,0
 850 051c 419E007C 		beq- 7,.L57
 851              	.LVL43:
 852              	.L49:
 853              		.loc 1 325 0
 854 0520 3FE00000 		lis 31,fontSystem@ha
 855 0524 83BF0000 		lwz 29,fontSystem@l(31)
 856              	.LVL44:
 857 0528 2F9D0000 		cmpwi 7,29,0
 858 052c 419E0014 		beq- 7,.L52
 859              		.loc 1 325 0 is_stmt 0 discriminator 1
 860 0530 7FA3EB78 		mr 3,29
 861 0534 48000001 		bl _ZN10FreeTypeGXD1Ev
 862 0538 7FA3EB78 		mr 3,29
 863 053c 48000001 		bl _ZdlPv
 864              	.L52:
 865              		.loc 1 327 0 is_stmt 1
 866 0540 3860003C 		li 3,60
 867 0544 48000001 		bl _Znwj
 868              	.LEHE5:
 869 0548 80DC0004 		lwz 6,4(28)
 870 054c 7F44D378 		mr 4,26
 871 0550 7F65DB78 		mr 5,27
 872 0554 7CC6D278 		xor 6,6,26
 873 0558 7C7D1B78 		mr 29,3
 874 055c 7CC60034 		cntlzw 6,6
 875 0560 54C6D97E 		srwi 6,6,5
 876              	.LEHB6:
 877 0564 48000001 		bl _ZN10FreeTypeGXC1EPKhlb
 878              	.LEHE6:
 879              	.LBE2060:
 880              		.loc 1 330 0 discriminator 1
 881 0568 80010024 		lwz 0,36(1)
 882 056c 7FC3F378 		mr 3,30
 883              	.LBB2061:
 884              		.loc 1 327 0 discriminator 1
 885 0570 93BF0000 		stw 29,fontSystem@l(31)
 886              	.LBE2061:
 887              		.loc 1 330 0 discriminator 1
 888 0574 7C0803A6 		mtlr 0
 889 0578 83410008 		lwz 26,8(1)
 890              	.LVL45:
 891 057c 8361000C 		lwz 27,12(1)
 892              	.LVL46:
 893 0580 83810010 		lwz 28,16(1)
 894 0584 83A10014 		lwz 29,20(1)
 895 0588 83C10018 		lwz 30,24(1)
 896              	.LVL47:
 897 058c 83E1001C 		lwz 31,28(1)
 898 0590 38210020 		addi 1,1,32
 899              		.cfi_remember_state
 900              	.LCFI14:
 901              		.cfi_def_cfa_offset 0
 902              		.cfi_restore 31
 903              		.cfi_restore 30
 904              		.cfi_restore 29
 905              		.cfi_restore 28
 906              		.cfi_restore 27
 907              		.cfi_restore 26
 908 0594 4E800020 		blr
 909              	.LVL48:
 910              	.L57:
 911              	.LCFI15:
 912              		.cfi_restore_state
 913              	.LBB2062:
 914              		.loc 1 308 0 discriminator 1
 915 0598 3D200000 		lis 9,Settings+142@ha
 916 059c A809008E 		lha 0,Settings+142@l(9)
 917 05a0 2F800000 		cmpwi 7,0,0
 918 05a4 409E0028 		bne- 7,.L58
 919              	.L50:
 920              		.loc 1 321 0
 921 05a8 3FE00000 		lis 31,.LC4@ha
 922 05ac 3BFF004C 		la 31,.LC4@l(31)
 923 05b0 7FE3FB78 		mr 3,31
 924              	.LEHB7:
 925 05b4 48000001 		bl _ZN9Resources7GetFileEPKc
 926 05b8 7C7A1B78 		mr 26,3
 927              	.LVL49:
 928              		.loc 1 322 0
 929 05bc 7FE3FB78 		mr 3,31
 930              	.LVL50:
 931 05c0 48000001 		bl _ZN9Resources11GetFileSizeEPKc
 932 05c4 7C7B1B78 		mr 27,3
 933              	.LVL51:
 934 05c8 4BFFFF58 		b .L49
 935              	.LVL52:
 936              	.L58:
 937              		.loc 1 310 0
 938 05cc 835C0004 		lwz 26,4(28)
 939              	.LVL53:
 940 05d0 2F9A0000 		cmpwi 7,26,0
 941 05d4 419E000C 		beq- 7,.L59
 942              	.LVL54:
 943              	.L51:
 944              		.loc 1 317 0
 945 05d8 837C0008 		lwz 27,8(28)
 946              	.LVL55:
 947 05dc 4BFFFF44 		b .L49
 948              	.LVL56:
 949              	.L59:
 950              		.loc 1 311 0
 951 05e0 48000001 		bl CONF_GetLanguage
 952              	.LVL57:
 953 05e4 68630009 		xori 3,3,9
 954 05e8 7C630034 		cntlzw 3,3
 955 05ec 5463D97E 		srwi 3,3,5
 956 05f0 48000001 		bl _ZN5Theme14loadSystemFontEb
 957              		.loc 1 312 0
 958 05f4 835C0004 		lwz 26,4(28)
 959 05f8 2F9A0000 		cmpwi 7,26,0
 960 05fc 40BEFFDC 		bne- 7,.L51
 961              		.loc 1 313 0
 962 0600 48000001 		bl CONF_GetLanguage
 963 0604 68630009 		xori 3,3,9
 964 0608 7C630034 		cntlzw 3,3
 965 060c 5463D97E 		srwi 3,3,5
 966 0610 68630001 		xori 3,3,1
 967 0614 48000001 		bl _ZN5Theme14loadSystemFontEb
 968 0618 835C0004 		lwz 26,4(28)
 969              	.LVL58:
 970              		.loc 1 317 0
 971 061c 837C0008 		lwz 27,8(28)
 972              	.LVL59:
 973              		.loc 1 319 0
 974 0620 2F9A0000 		cmpwi 7,26,0
 975 0624 409EFEFC 		bne+ 7,.L49
 976 0628 4BFFFF80 		b .L50
 977              	.LVL60:
 978              	.L56:
 979 062c 7C7F1B78 		mr 31,3
 980              		.loc 1 327 0
 981 0630 7FA3EB78 		mr 3,29
 982 0634 48000001 		bl _ZdlPv
 983 0638 7FE3FB78 		mr 3,31
 984 063c 48000001 		bl _Unwind_Resume
 985              	.LEHE7:
 986              	.LBE2062:
 987              		.cfi_endproc
 988              	.LFE1736:
 989              		.section	.gcc_except_table
 990              	.LLSDA1736:
 991 0020 FF       		.byte	0xff
 992 0021 FF       		.byte	0xff
 993 0022 01       		.byte	0x1
 994 0023 11       		.uleb128 .LLSDACSE1736-.LLSDACSB1736
 995              	.LLSDACSB1736:
 996 0024 54       		.uleb128 .LEHB5-.LFB1736
 997 0025 AC01     		.uleb128 .LEHE5-.LEHB5
 998 0027 00       		.uleb128 0
 999 0028 00       		.uleb128 0
 1000 0029 9C02     		.uleb128 .LEHB6-.LFB1736
 1001 002b 04       		.uleb128 .LEHE6-.LEHB6
 1002 002c E403     		.uleb128 .L56-.LFB1736
 1003 002e 00       		.uleb128 0
 1004 002f EC02     		.uleb128 .LEHB7-.LFB1736
 1005 0031 8C01     		.uleb128 .LEHE7-.LEHB7
 1006 0033 00       		.uleb128 0
 1007 0034 00       		.uleb128 0
 1008              	.LLSDACSE1736:
 1009              		.section	".text"
 1010              		.size	_ZN5Theme8LoadFontEPKc, .-_ZN5Theme8LoadFontEPKc
 1011              		.align 2
 1012              		.globl _ZN5Theme10SetDefaultEv
 1013              		.type	_ZN5Theme10SetDefaultEv, @function
 1014              	_ZN5Theme10SetDefaultEv:
 1015              	.LFB1733:
 1016              		.loc 1 139 0
 1017              		.cfi_startproc
 1018 0640 7C0802A6 		mflr 0
 1019 0644 9421FFF0 		stwu 1,-16(1)
 1020              	.LCFI16:
 1021              		.cfi_def_cfa_offset 16
 1022              		.cfi_register 65, 0
 1023              		.loc 1 140 0
 1024 0648 3D200000 		lis 9,_ZN5Theme12ShowTooltipsE@ha
 1025              		.loc 1 139 0
 1026 064c 93C10008 		stw 30,8(1)
 1027              	.LBB2067:
 1028              	.LBB2068:
 1029              	.LBB2069:
 1030              	.LBB2070:
 1031              		.loc 1 334 0
 1032 0650 3FC00000 		lis 30,fontSystem@ha
 1033              		.cfi_offset 30, -8
 1034              	.LBE2070:
 1035              	.LBE2069:
 1036              	.LBE2068:
 1037              	.LBE2067:
 1038              		.loc 1 139 0
 1039 0654 90010014 		stw 0,20(1)
 1040              		.loc 1 140 0
 1041 0658 38000001 		li 0,1
 1042              		.cfi_offset 65, 4
 1043              		.loc 1 139 0
 1044 065c 93E1000C 		stw 31,12(1)
 1045              		.loc 1 140 0
 1046 0660 98090000 		stb 0,_ZN5Theme12ShowTooltipsE@l(9)
 1047              	.LBB2080:
 1048              	.LBB2077:
 1049              		.loc 1 133 0
 1050              		.cfi_offset 31, -4
 1051 0664 48000001 		bl ThemeCleanUp
 1052              		.loc 1 134 0
 1053 0668 48000001 		bl _ZN9Resources15DestroyInstanceEv
 1054              	.LBB2074:
 1055              	.LBB2071:
 1056              		.loc 1 334 0
 1057 066c 83FE0000 		lwz 31,fontSystem@l(30)
 1058 0670 2F9F0000 		cmpwi 7,31,0
 1059 0674 419E0014 		beq- 7,.L61
 1060              		.loc 1 335 0
 1061 0678 7FE3FB78 		mr 3,31
 1062 067c 48000001 		bl _ZN10FreeTypeGXD1Ev
 1063 0680 7FE3FB78 		mr 3,31
 1064 0684 48000001 		bl _ZdlPv
 1065              	.L61:
 1066              		.loc 1 338 0
 1067 0688 3FE00000 		lis 31,.LANCHOR0@ha
 1068              		.loc 1 336 0
 1069 068c 38000000 		li 0,0
 1070              		.loc 1 338 0
 1071 0690 807F0000 		lwz 3,.LANCHOR0@l(31)
 1072              		.loc 1 336 0
 1073 0694 901E0000 		stw 0,fontSystem@l(30)
 1074              		.loc 1 338 0
 1075 0698 2F830000 		cmpwi 7,3,0
 1076 069c 419E0008 		beq- 7,.L62
 1077              		.loc 1 339 0
 1078 06a0 48000001 		bl _ZdaPv
 1079              	.L62:
 1080              		.loc 1 340 0
 1081 06a4 3BDF0000 		la 30,.LANCHOR0@l(31)
 1082 06a8 38000000 		li 0,0
 1083              		.loc 1 342 0
 1084 06ac 807E0004 		lwz 3,4(30)
 1085              		.loc 1 340 0
 1086 06b0 901F0000 		stw 0,.LANCHOR0@l(31)
 1087              		.loc 1 342 0
 1088 06b4 2F830000 		cmpwi 7,3,0
 1089 06b8 419E0008 		beq- 7,.L63
 1090              		.loc 1 343 0
 1091 06bc 48000001 		bl _ZdaPv
 1092              	.L63:
 1093              	.LBE2071:
 1094              	.LBE2074:
 1095              	.LBE2077:
 1096              	.LBE2080:
 1097              		.loc 1 142 0
 1098 06c0 3D200000 		lis 9,Settings@ha
 1099              	.LBB2081:
 1100              	.LBB2078:
 1101              	.LBB2075:
 1102              	.LBB2072:
 1103              		.loc 1 344 0
 1104 06c4 38000000 		li 0,0
 1105              	.LBE2072:
 1106              	.LBE2075:
 1107              	.LBE2078:
 1108              	.LBE2081:
 1109              		.loc 1 142 0
 1110 06c8 39290000 		la 9,Settings@l(9)
 1111              	.LBB2082:
 1112              	.LBB2079:
 1113              	.LBB2076:
 1114              	.LBB2073:
 1115              		.loc 1 344 0
 1116 06cc 901E0004 		stw 0,4(30)
 1117              	.LBE2073:
 1118              	.LBE2076:
 1119              	.LBE2079:
 1120              	.LBE2082:
 1121              		.loc 1 142 0
 1122 06d0 9809018A 		stb 0,394(9)
 1123              		.loc 1 143 0
 1124 06d4 3869071A 		addi 3,9,1818
 1125              		.loc 1 144 0
 1126 06d8 80010014 		lwz 0,20(1)
 1127 06dc 83C10008 		lwz 30,8(1)
 1128 06e0 83E1000C 		lwz 31,12(1)
 1129 06e4 7C0803A6 		mtlr 0
 1130 06e8 38210010 		addi 1,1,16
 1131              	.LCFI17:
 1132              		.cfi_def_cfa_offset 0
 1133              		.cfi_restore 31
 1134              		.cfi_restore 30
 1135              		.loc 1 143 0
 1136 06ec 48000000 		b _ZN5Theme8LoadFontEPKc
 1137              		.cfi_endproc
 1138              	.LFE1733:
 1139              		.size	_ZN5Theme10SetDefaultEv, .-_ZN5Theme10SetDefaultEv
 1140              		.align 2
 1141              		.globl _ZN5Theme4LoadEPKc
 1142              		.type	_ZN5Theme4LoadEPKc, @function
 1143              	_ZN5Theme4LoadEPKc:
 1144              	.LFB1734:
 1145              		.loc 1 147 0
 1146              		.cfi_startproc
 1147              		.cfi_personality 0,__gxx_personality_v0
 1148              		.cfi_lsda 0,.LLSDA1734
 1149              	.LVL61:
 1150 06f0 7C0802A6 		mflr 0
 1151 06f4 9421FC80 		stwu 1,-896(1)
 1152              	.LCFI18:
 1153              		.cfi_def_cfa_offset 896
 1154              		.cfi_register 65, 0
 1155 06f8 93810370 		stw 28,880(1)
 1156 06fc 7C7C1B78 		mr 28,3
 1157              		.cfi_offset 28, -16
 1158 0700 93C10378 		stw 30,888(1)
 1159 0704 90010384 		stw 0,900(1)
 1160 0708 9361036C 		stw 27,876(1)
 1161 070c 93A10374 		stw 29,884(1)
 1162 0710 93E1037C 		stw 31,892(1)
 1163              	.LEHB8:
 1164              	.LBB2112:
 1165              		.loc 1 148 0
 1166              		.cfi_offset 31, -4
 1167              		.cfi_offset 29, -12
 1168              		.cfi_offset 27, -20
 1169              		.cfi_offset 65, 4
 1170              		.cfi_offset 30, -8
 1171 0714 48000001 		bl LoadTheme
 1172              	.LVL62:
 1173              		.loc 1 149 0
 1174 0718 7C7E1B79 		mr. 30,3
 1175 071c 4082002C 		bne- 0,.L96
 1176              	.LVL63:
 1177              	.L65:
 1178              	.LBE2112:
 1179              		.loc 1 215 0
 1180 0720 80010384 		lwz 0,900(1)
 1181 0724 7FC3F378 		mr 3,30
 1182 0728 8361036C 		lwz 27,876(1)
 1183 072c 7C0803A6 		mtlr 0
 1184 0730 83810370 		lwz 28,880(1)
 1185              	.LVL64:
 1186 0734 83A10374 		lwz 29,884(1)
 1187 0738 83C10378 		lwz 30,888(1)
 1188 073c 83E1037C 		lwz 31,892(1)
 1189 0740 38210380 		addi 1,1,896
 1190              		.cfi_remember_state
 1191              	.LCFI19:
 1192              		.cfi_def_cfa_offset 0
 1193              		.cfi_restore 31
 1194              		.cfi_restore 30
 1195              		.cfi_restore 29
 1196              		.cfi_restore 28
 1197              		.cfi_restore 27
 1198 0744 4E800020 		blr
 1199              	.LVL65:
 1200              	.L96:
 1201              	.LCFI20:
 1202              		.cfi_restore_state
 1203              	.LBB2144:
 1204              		.loc 1 152 0
 1205 0748 3C600000 		lis 3,.LC5@ha
 1206              	.LVL66:
 1207 074c 38630058 		la 3,.LC5@l(3)
 1208 0750 48000001 		bl getThemeInt
 1209              		.loc 1 154 0
 1210 0754 3C800000 		lis 4,.LC3@ha
 1211              		.loc 1 152 0
 1212 0758 7C600034 		cntlzw 0,3
 1213 075c 3D200000 		lis 9,_ZN5Theme12ShowTooltipsE@ha
 1214 0760 5400D97E 		srwi 0,0,5
 1215              		.loc 1 154 0
 1216 0764 7F83E378 		mr 3,28
 1217              		.loc 1 152 0
 1218 0768 68000001 		xori 0,0,1
 1219              		.loc 1 154 0
 1220 076c 38840048 		la 4,.LC3@l(4)
 1221              		.loc 1 152 0
 1222 0770 98090000 		stb 0,_ZN5Theme12ShowTooltipsE@l(9)
 1223              		.loc 1 154 0
 1224 0774 48000001 		bl fopen
 1225              	.LVL67:
 1226              		.loc 1 155 0
 1227 0778 7C7F1B79 		mr. 31,3
 1228 077c 41820228 		beq- 0,.L87
 1229              	.LVL68:
 1230              	.L66:
 1231              		.loc 1 161 0 discriminator 1
 1232 0780 3861023C 		addi 3,1,572
 1233 0784 3880012C 		li 4,300
 1234 0788 7FE5FB78 		mr 5,31
 1235 078c 48000001 		bl fgets
 1236 0790 2F830000 		cmpwi 7,3,0
 1237 0794 419E0218 		beq- 7,.L97
 1238              	.LBB2113:
 1239              		.loc 1 163 0
 1240 0798 3C800000 		lis 4,.LC6@ha
 1241 079c 3861023C 		addi 3,1,572
 1242 07a0 38840084 		la 4,.LC6@l(4)
 1243 07a4 48000001 		bl strcasestr
 1244              	.LVL69:
 1245              		.loc 1 164 0
 1246 07a8 2C030000 		cmpwi 0,3,0
 1247 07ac 41A2FFD4 		beq- 0,.L66
 1248              		.loc 1 169 0
 1249 07b0 8803000D 		lbz 0,13(3)
 1250              		.loc 1 167 0
 1251 07b4 3BA3000D 		addi 29,3,13
 1252              	.LVL70:
 1253              		.loc 1 169 0
 1254 07b8 2F800020 		cmpwi 7,0,32
 1255 07bc 409E001C 		bne- 7,.L67
 1256              		.loc 1 146 0
 1257 07c0 7FA9EB78 		mr 9,29
 1258              	.LVL71:
 1259              	.L68:
 1260              		.loc 1 146 0 is_stmt 0 discriminator 2
 1261 07c4 39290001 		addi 9,9,1
 1262              	.LVL72:
 1263              		.loc 1 169 0 is_stmt 1 discriminator 2
 1264 07c8 88090000 		lbz 0,0(9)
 1265              		.loc 1 146 0 discriminator 2
 1266 07cc 7D3D4B78 		mr 29,9
 1267              	.LVL73:
 1268              		.loc 1 169 0 discriminator 2
 1269 07d0 2F800020 		cmpwi 7,0,32
 1270 07d4 419EFFF0 		beq+ 7,.L68
 1271              	.LVL74:
 1272              	.L67:
 1273              		.loc 1 173 0 discriminator 1
 1274 07d8 2F80005C 		cmpwi 7,0,92
 1275 07dc 7FA9EB78 		mr 9,29
 1276 07e0 419E0038 		beq- 7,.L69
 1277              	.LVL75:
 1278              		.loc 1 173 0 is_stmt 0
 1279 07e4 2F800022 		cmpwi 7,0,34
 1280 07e8 419E0030 		beq- 7,.L69
 1281 07ec 2F800000 		cmpwi 7,0,0
 1282 07f0 7FABEB78 		mr 11,29
 1283 07f4 419E0024 		beq- 7,.L69
 1284              	.L70:
 1285              		.loc 1 173 0 discriminator 6
 1286 07f8 8C0B0001 		lbzu 0,1(11)
 1287 07fc 39290001 		addi 9,9,1
 1288              	.LVL76:
 1289 0800 2F80005C 		cmpwi 7,0,92
 1290 0804 419E0014 		beq- 7,.L69
 1291              		.loc 1 173 0 discriminator 2
 1292 0808 2F800022 		cmpwi 7,0,34
 1293 080c 419E000C 		beq- 7,.L69
 1294              		.loc 1 173 0 discriminator 4
 1295 0810 2F800000 		cmpwi 7,0,0
 1296 0814 40BEFFE4 		bne- 7,.L70
 1297              	.L69:
 1298              		.loc 1 175 0 is_stmt 1
 1299 0818 3B600000 		li 27,0
 1300              	.LBE2113:
 1301              		.loc 1 179 0
 1302 081c 7FE3FB78 		mr 3,31
 1303              	.LBB2114:
 1304              		.loc 1 175 0
 1305 0820 9B690000 		stb 27,0(9)
 1306              	.LVL77:
 1307              	.LBE2114:
 1308              		.loc 1 179 0
 1309 0824 48000001 		bl fclose
 1310              	.LVL78:
 1311              		.loc 1 181 0
 1312 0828 2F9D0000 		cmpwi 7,29,0
 1313 082c 41BEFEF4 		beq- 7,.L65
 1314              		.loc 1 185 0
 1315 0830 3BE10110 		addi 31,1,272
 1316              	.LVL79:
 1317 0834 3880012C 		li 4,300
 1318 0838 7F85E378 		mr 5,28
 1319 083c 7FE3FB78 		mr 3,31
 1320 0840 4CC63182 		crxor 6,6,6
 1321 0844 48000001 		bl snprintf
 1322              		.loc 1 187 0
 1323 0848 7FE3FB78 		mr 3,31
 1324 084c 3880002F 		li 4,47
 1325 0850 48000001 		bl strrchr
 1326              	.LVL80:
 1327              		.loc 1 188 0
 1328 0854 2C030000 		cmpwi 0,3,0
 1329 0858 41820008 		beq- 0,.L75
 1330              		.loc 1 188 0 is_stmt 0 discriminator 1
 1331 085c 9B630000 		stb 27,0(3)
 1332              	.L75:
 1333              		.loc 1 190 0 is_stmt 1
 1334 0860 3F600000 		lis 27,.LC7@ha
 1335 0864 7FA4EB78 		mr 4,29
 1336 0868 3B7B0094 		la 27,.LC7@l(27)
 1337 086c 7F63DB78 		mr 3,27
 1338              	.LVL81:
 1339 0870 4CC63182 		crxor 6,6,6
 1340 0874 48000001 		bl _Z3fmtPKcz
 1341 0878 7C641B78 		mr 4,3
 1342 087c 7FE3FB78 		mr 3,31
 1343 0880 48000001 		bl strcat
 1344              	.LBB2115:
 1345              		.loc 1 192 0
 1346 0884 7FE3FB78 		mr 3,31
 1347 0888 48000001 		bl _ZN9Resources9LoadFilesEPKc
 1348 088c 7C7D1B79 		mr. 29,3
 1349              	.LVL82:
 1350 0890 418200A0 		beq- 0,.L98
 1351              	.L76:
 1352              	.LBE2115:
 1353              		.loc 1 209 0
 1354 0894 7FE3FB78 		mr 3,31
 1355 0898 48000001 		bl strlen
 1356 089c 3D600000 		lis 11,.LC8@ha
 1357 08a0 392B0098 		la 9,.LC8@l(11)
 1358 08a4 810B0098 		lwz 8,.LC8@l(11)
 1359 08a8 81490004 		lwz 10,4(9)
 1360 08ac 7C601B78 		mr 0,3
 1361 08b0 A1690008 		lhz 11,8(9)
 1362 08b4 7D3F1A14 		add 9,31,3
 1363 08b8 7D1F012E 		stwx 8,31,0
 1364              		.loc 1 211 0
 1365 08bc 3861000C 		addi 3,1,12
 1366              		.loc 1 209 0
 1367 08c0 91490004 		stw 10,4(9)
 1368              		.loc 1 211 0
 1369 08c4 7FE4FB78 		mr 4,31
 1370              		.loc 1 209 0
 1371 08c8 B1690008 		sth 11,8(9)
 1372              		.loc 1 211 0
 1373 08cc 38A10009 		addi 5,1,9
 1374 08d0 48000001 		bl _ZNSsC1EPKcRKSaIcE
 1375              	.LEHE8:
 1376 08d4 3861000C 		addi 3,1,12
 1377              	.LEHB9:
 1378 08d8 48000001 		bl _Z9CheckFileSs
 1379              	.LEHE9:
 1380              	.LBB2117:
 1381              	.LBB2118:
 1382              	.LBB2119:
 1383              	.LBB2120:
 1384              	.LBB2121:
 1385              	.LBB2122:
 1386              		.loc 2 288 0
 1387 08dc 8121000C 		lwz 9,12(1)
 1388              	.LBE2122:
 1389              	.LBE2121:
 1390              	.LBE2120:
 1391              	.LBB2123:
 1392              	.LBB2124:
 1393              		.loc 2 235 0
 1394 08e0 3D600000 		lis 11,_ZNSs4_Rep20_S_empty_rep_storageE@ha
 1395              	.LBE2124:
 1396              	.LBE2123:
 1397              	.LBE2119:
 1398              	.LBE2118:
 1399              	.LBE2117:
 1400              		.loc 1 211 0
 1401 08e4 7C7D1B78 		mr 29,3
 1402              	.LVL83:
 1403              	.LBB2141:
 1404              	.LBB2139:
 1405              	.LBB2137:
 1406              	.LBB2134:
 1407              	.LBB2131:
 1408              		.loc 2 235 0
 1409 08e8 380B0000 		la 0,_ZNSs4_Rep20_S_empty_rep_storageE@l(11)
 1410              	.LBE2131:
 1411              	.LBE2134:
 1412              		.loc 2 534 0
 1413 08ec 3869FFF4 		addi 3,9,-12
 1414              	.LVL84:
 1415              	.LBB2135:
 1416              	.LBB2132:
 1417              		.loc 2 235 0
 1418 08f0 7F830000 		cmpw 7,3,0
 1419 08f4 409E00D8 		bne- 7,.L99
 1420              	.LVL85:
 1421              	.L85:
 1422              	.LBE2132:
 1423              	.LBE2135:
 1424              	.LBE2137:
 1425              	.LBE2139:
 1426              	.LBE2141:
 1427              		.loc 1 211 0 discriminator 1
 1428 08f8 2F9D0000 		cmpwi 7,29,0
 1429 08fc 419EFE24 		beq+ 7,.L65
 1430              		.loc 1 212 0
 1431 0900 7FE3FB78 		mr 3,31
 1432              	.LEHB10:
 1433 0904 48000001 		bl _ZN5Theme8LoadFontEPKc
 1434              	.LBE2144:
 1435              		.loc 1 215 0
 1436 0908 80010384 		lwz 0,900(1)
 1437 090c 7FC3F378 		mr 3,30
 1438 0910 8361036C 		lwz 27,876(1)
 1439 0914 7C0803A6 		mtlr 0
 1440 0918 83810370 		lwz 28,880(1)
 1441              	.LVL86:
 1442 091c 83A10374 		lwz 29,884(1)
 1443 0920 83C10378 		lwz 30,888(1)
 1444 0924 83E1037C 		lwz 31,892(1)
 1445 0928 38210380 		addi 1,1,896
 1446              		.cfi_remember_state
 1447              		.cfi_restore 27
 1448              		.cfi_restore 28
 1449              		.cfi_restore 29
 1450              		.cfi_restore 30
 1451              		.cfi_restore 31
 1452              	.LCFI21:
 1453              		.cfi_def_cfa_offset 0
 1454 092c 4E800020 		blr
 1455              	.LVL87:
 1456              	.L98:
 1457              	.LCFI22:
 1458              		.cfi_restore_state
 1459              	.LBB2145:
 1460              	.LBB2142:
 1461              	.LBB2116:
 1462              		.loc 1 194 0
 1463 0930 3880002F 		li 4,47
 1464 0934 7F83E378 		mr 3,28
 1465 0938 48000001 		bl strrchr
 1466              	.LVL88:
 1467              		.loc 1 196 0
 1468 093c 388000FF 		li 4,255
 1469              		.loc 1 194 0
 1470 0940 38A30001 		addi 5,3,1
 1471              		.loc 1 196 0
 1472 0944 38610010 		addi 3,1,16
 1473              	.LVL89:
 1474 0948 4CC63182 		crxor 6,6,6
 1475 094c 48000001 		bl snprintf
 1476              	.LVL90:
 1477              		.loc 1 198 0
 1478 0950 38610010 		addi 3,1,16
 1479 0954 3880002E 		li 4,46
 1480 0958 48000001 		bl strrchr
 1481              	.LVL91:
 1482              		.loc 1 199 0
 1483 095c 2C030000 		cmpwi 0,3,0
 1484 0960 41820008 		beq- 0,.L77
 1485              		.loc 1 199 0 is_stmt 0 discriminator 1
 1486 0964 9BA30000 		stb 29,0(3)
 1487              	.L77:
 1488              		.loc 1 201 0 is_stmt 1
 1489 0968 3880002F 		li 4,47
 1490 096c 7FE3FB78 		mr 3,31
 1491              	.LVL92:
 1492 0970 48000001 		bl strrchr
 1493              	.LVL93:
 1494              		.loc 1 202 0
 1495 0974 38000000 		li 0,0
 1496 0978 98030000 		stb 0,0(3)
 1497              		.loc 1 204 0
 1498 097c 38810010 		addi 4,1,16
 1499 0980 7F63DB78 		mr 3,27
 1500              	.LVL94:
 1501 0984 4CC63182 		crxor 6,6,6
 1502 0988 48000001 		bl _Z3fmtPKcz
 1503 098c 7C641B78 		mr 4,3
 1504 0990 7FE3FB78 		mr 3,31
 1505 0994 48000001 		bl strcat
 1506              		.loc 1 205 0
 1507 0998 7FE3FB78 		mr 3,31
 1508 099c 48000001 		bl _ZN9Resources9LoadFilesEPKc
 1509 09a0 4BFFFEF4 		b .L76
 1510              	.LVL95:
 1511              	.L87:
 1512              	.LBE2116:
 1513              	.LBE2142:
 1514              		.loc 1 156 0
 1515 09a4 3BC00000 		li 30,0
 1516 09a8 4BFFFD78 		b .L65
 1517              	.LVL96:
 1518              	.L97:
 1519              		.loc 1 179 0
 1520 09ac 7FE3FB78 		mr 3,31
 1521 09b0 48000001 		bl fclose
 1522 09b4 4BFFFD6C 		b .L65
 1523              	.LVL97:
 1524              	.L91:
 1525 09b8 7C7F1B78 		mr 31,3
 1526              		.loc 1 211 0
 1527 09bc 3861000C 		addi 3,1,12
 1528 09c0 48000001 		bl _ZNSsD1Ev
 1529 09c4 7FE3FB78 		mr 3,31
 1530 09c8 48000001 		bl _Unwind_Resume
 1531              	.LEHE10:
 1532              	.LVL98:
 1533              	.L99:
 1534              	.LBB2143:
 1535              	.LBB2140:
 1536              	.LBB2138:
 1537              	.LBB2136:
 1538              	.LBB2133:
 1539              	.LBB2125:
 1540              	.LBB2126:
 1541              	.LBB2127:
 1542              		.loc 3 66 0
 1543 09cc 8169FFFC 		lwz 11,-4(9)
 1544              	.LVL99:
 1545              	.LBE2127:
 1546              	.LBE2126:
 1547              	.LBE2125:
 1548              		.loc 2 240 0
 1549 09d0 2F8B0000 		cmpwi 7,11,0
 1550              	.LBB2130:
 1551              	.LBB2129:
 1552              	.LBB2128:
 1553              		.loc 3 67 0
 1554 09d4 396BFFFF 		addi 11,11,-1
 1555 09d8 9169FFFC 		stw 11,-4(9)
 1556              	.LBE2128:
 1557              	.LBE2129:
 1558              	.LBE2130:
 1559              		.loc 2 240 0
 1560 09dc 419DFF1C 		bgt+ 7,.L85
 1561              		.loc 2 244 0
 1562 09e0 38810008 		addi 4,1,8
 1563 09e4 48000001 		bl _ZNSs4_Rep10_M_destroyERKSaIcE
 1564              	.LVL100:
 1565 09e8 4BFFFF10 		b .L85
 1566              	.LBE2133:
 1567              	.LBE2136:
 1568              	.LBE2138:
 1569              	.LBE2140:
 1570              	.LBE2143:
 1571              	.LBE2145:
 1572              		.cfi_endproc
 1573              	.LFE1734:
 1574              		.section	.gcc_except_table
 1575              	.LLSDA1734:
 1576 0035 FF       		.byte	0xff
 1577 0036 FF       		.byte	0xff
 1578 0037 01       		.byte	0x1
 1579 0038 11       		.uleb128 .LLSDACSE1734-.LLSDACSB1734
 1580              	.LLSDACSB1734:
 1581 0039 24       		.uleb128 .LEHB8-.LFB1734
 1582 003a C003     		.uleb128 .LEHE8-.LEHB8
 1583 003c 00       		.uleb128 0
 1584 003d 00       		.uleb128 0
 1585 003e E803     		.uleb128 .LEHB9-.LFB1734
 1586 0040 04       		.uleb128 .LEHE9-.LEHB9
 1587 0041 C805     		.uleb128 .L91-.LFB1734
 1588 0043 00       		.uleb128 0
 1589 0044 9404     		.uleb128 .LEHB10-.LFB1734
 1590 0046 C801     		.uleb128 .LEHE10-.LEHB10
 1591 0048 00       		.uleb128 0
 1592 0049 00       		.uleb128 0
 1593              	.LLSDACSE1734:
 1594              		.section	".text"
 1595              		.size	_ZN5Theme4LoadEPKc, .-_ZN5Theme4LoadEPKc
 1596              		.align 2
 1597              		.type	_ZN5Theme4LoadEPKc.constprop.104, @function
 1598              	_ZN5Theme4LoadEPKc.constprop.104:
 1599              	.LFB2394:
 1600              		.loc 1 146 0
 1601              		.cfi_startproc
 1602              		.cfi_personality 0,__gxx_personality_v0
 1603              		.cfi_lsda 0,.LLSDA2394
 1604              	.LVL101:
 1605 09ec 9421FC80 		stwu 1,-896(1)
 1606              	.LCFI23:
 1607              		.cfi_def_cfa_offset 896
 1608 09f0 7C0802A6 		mflr 0
 1609 09f4 93810370 		stw 28,880(1)
 1610              	.LBB2175:
 1611              		.loc 1 148 0
 1612 09f8 3F800000 		lis 28,Settings+394@ha
 1613              		.cfi_offset 28, -16
 1614              		.cfi_register 65, 0
 1615 09fc 3B9C018A 		la 28,Settings+394@l(28)
 1616              	.LBE2175:
 1617              		.loc 1 146 0
 1618 0a00 93C10378 		stw 30,888(1)
 1619              	.LBB2207:
 1620              		.loc 1 148 0
 1621 0a04 7F83E378 		mr 3,28
 1622              	.LBE2207:
 1623              		.loc 1 146 0
 1624 0a08 90010384 		stw 0,900(1)
 1625 0a0c 9361036C 		stw 27,876(1)
 1626 0a10 93A10374 		stw 29,884(1)
 1627 0a14 93E1037C 		stw 31,892(1)
 1628              	.LEHB11:
 1629              	.LBB2208:
 1630              		.loc 1 148 0
 1631              		.cfi_offset 31, -4
 1632              		.cfi_offset 29, -12
 1633              		.cfi_offset 27, -20
 1634              		.cfi_offset 65, 4
 1635              		.cfi_offset 30, -8
 1636 0a18 48000001 		bl LoadTheme
 1637              	.LVL102:
 1638              		.loc 1 149 0
 1639 0a1c 7C7E1B79 		mr. 30,3
 1640 0a20 4082002C 		bne- 0,.L132
 1641              	.LVL103:
 1642              	.L101:
 1643              	.LBE2208:
 1644              		.loc 1 215 0
 1645 0a24 80010384 		lwz 0,900(1)
 1646 0a28 7FC3F378 		mr 3,30
 1647 0a2c 8361036C 		lwz 27,876(1)
 1648 0a30 7C0803A6 		mtlr 0
 1649 0a34 83810370 		lwz 28,880(1)
 1650 0a38 83A10374 		lwz 29,884(1)
 1651 0a3c 83C10378 		lwz 30,888(1)
 1652 0a40 83E1037C 		lwz 31,892(1)
 1653 0a44 38210380 		addi 1,1,896
 1654              		.cfi_remember_state
 1655              	.LCFI24:
 1656              		.cfi_def_cfa_offset 0
 1657              		.cfi_restore 31
 1658              		.cfi_restore 30
 1659              		.cfi_restore 29
 1660              		.cfi_restore 28
 1661              		.cfi_restore 27
 1662 0a48 4E800020 		blr
 1663              	.LVL104:
 1664              	.L132:
 1665              	.LCFI25:
 1666              		.cfi_restore_state
 1667              	.LBB2209:
 1668              		.loc 1 152 0
 1669 0a4c 3C600000 		lis 3,.LC5@ha
 1670              	.LVL105:
 1671 0a50 38630058 		la 3,.LC5@l(3)
 1672 0a54 48000001 		bl getThemeInt
 1673              		.loc 1 154 0
 1674 0a58 3C800000 		lis 4,.LC3@ha
 1675              		.loc 1 152 0
 1676 0a5c 7C600034 		cntlzw 0,3
 1677 0a60 3D200000 		lis 9,_ZN5Theme12ShowTooltipsE@ha
 1678 0a64 5400D97E 		srwi 0,0,5
 1679              		.loc 1 154 0
 1680 0a68 7F83E378 		mr 3,28
 1681              		.loc 1 152 0
 1682 0a6c 68000001 		xori 0,0,1
 1683              		.loc 1 154 0
 1684 0a70 38840048 		la 4,.LC3@l(4)
 1685              		.loc 1 152 0
 1686 0a74 98090000 		stb 0,_ZN5Theme12ShowTooltipsE@l(9)
 1687              		.loc 1 154 0
 1688 0a78 48000001 		bl fopen
 1689              	.LVL106:
 1690              		.loc 1 155 0
 1691 0a7c 7C7F1B79 		mr. 31,3
 1692 0a80 41820228 		beq- 0,.L123
 1693              	.LVL107:
 1694              	.L102:
 1695              		.loc 1 161 0
 1696 0a84 3861023C 		addi 3,1,572
 1697 0a88 3880012C 		li 4,300
 1698 0a8c 7FE5FB78 		mr 5,31
 1699 0a90 48000001 		bl fgets
 1700 0a94 2F830000 		cmpwi 7,3,0
 1701 0a98 419E0218 		beq- 7,.L133
 1702              	.LBB2176:
 1703              		.loc 1 163 0
 1704 0a9c 3C800000 		lis 4,.LC6@ha
 1705 0aa0 3861023C 		addi 3,1,572
 1706 0aa4 38840084 		la 4,.LC6@l(4)
 1707 0aa8 48000001 		bl strcasestr
 1708              	.LVL108:
 1709              		.loc 1 164 0
 1710 0aac 2C030000 		cmpwi 0,3,0
 1711 0ab0 41A2FFD4 		beq- 0,.L102
 1712              		.loc 1 169 0
 1713 0ab4 8803000D 		lbz 0,13(3)
 1714              		.loc 1 167 0
 1715 0ab8 3BA3000D 		addi 29,3,13
 1716              	.LVL109:
 1717              		.loc 1 169 0
 1718 0abc 2F800020 		cmpwi 7,0,32
 1719 0ac0 409E001C 		bne- 7,.L103
 1720              		.loc 1 146 0
 1721 0ac4 7FA9EB78 		mr 9,29
 1722              	.LVL110:
 1723              	.L104:
 1724 0ac8 39290001 		addi 9,9,1
 1725              	.LVL111:
 1726              		.loc 1 169 0
 1727 0acc 88090000 		lbz 0,0(9)
 1728              		.loc 1 146 0
 1729 0ad0 7D3D4B78 		mr 29,9
 1730              	.LVL112:
 1731              		.loc 1 169 0
 1732 0ad4 2F800020 		cmpwi 7,0,32
 1733 0ad8 419EFFF0 		beq+ 7,.L104
 1734              	.LVL113:
 1735              	.L103:
 1736              		.loc 1 173 0
 1737 0adc 2F80005C 		cmpwi 7,0,92
 1738 0ae0 7FA9EB78 		mr 9,29
 1739 0ae4 419E0038 		beq- 7,.L105
 1740              	.LVL114:
 1741 0ae8 2F800022 		cmpwi 7,0,34
 1742 0aec 419E0030 		beq- 7,.L105
 1743 0af0 2F800000 		cmpwi 7,0,0
 1744 0af4 7FABEB78 		mr 11,29
 1745 0af8 419E0024 		beq- 7,.L105
 1746              	.L106:
 1747 0afc 8C0B0001 		lbzu 0,1(11)
 1748 0b00 39290001 		addi 9,9,1
 1749              	.LVL115:
 1750 0b04 2F80005C 		cmpwi 7,0,92
 1751 0b08 419E0014 		beq- 7,.L105
 1752 0b0c 2F800022 		cmpwi 7,0,34
 1753 0b10 419E000C 		beq- 7,.L105
 1754 0b14 2F800000 		cmpwi 7,0,0
 1755 0b18 40BEFFE4 		bne- 7,.L106
 1756              	.L105:
 1757              		.loc 1 175 0
 1758 0b1c 3B600000 		li 27,0
 1759              	.LBE2176:
 1760              		.loc 1 179 0
 1761 0b20 7FE3FB78 		mr 3,31
 1762              	.LBB2177:
 1763              		.loc 1 175 0
 1764 0b24 9B690000 		stb 27,0(9)
 1765              	.LVL116:
 1766              	.LBE2177:
 1767              		.loc 1 179 0
 1768 0b28 48000001 		bl fclose
 1769              	.LVL117:
 1770              		.loc 1 181 0
 1771 0b2c 2F9D0000 		cmpwi 7,29,0
 1772 0b30 41BEFEF4 		beq- 7,.L101
 1773              		.loc 1 185 0
 1774 0b34 3BE10110 		addi 31,1,272
 1775              	.LVL118:
 1776 0b38 3880012C 		li 4,300
 1777 0b3c 7F85E378 		mr 5,28
 1778 0b40 7FE3FB78 		mr 3,31
 1779 0b44 4CC63182 		crxor 6,6,6
 1780 0b48 48000001 		bl snprintf
 1781              		.loc 1 187 0
 1782 0b4c 7FE3FB78 		mr 3,31
 1783 0b50 3880002F 		li 4,47
 1784 0b54 48000001 		bl strrchr
 1785              	.LVL119:
 1786              		.loc 1 188 0
 1787 0b58 2C030000 		cmpwi 0,3,0
 1788 0b5c 41820008 		beq- 0,.L111
 1789 0b60 9B630000 		stb 27,0(3)
 1790              	.L111:
 1791              		.loc 1 190 0
 1792 0b64 3F600000 		lis 27,.LC7@ha
 1793 0b68 7FA4EB78 		mr 4,29
 1794 0b6c 3B7B0094 		la 27,.LC7@l(27)
 1795 0b70 7F63DB78 		mr 3,27
 1796              	.LVL120:
 1797 0b74 4CC63182 		crxor 6,6,6
 1798 0b78 48000001 		bl _Z3fmtPKcz
 1799 0b7c 7C641B78 		mr 4,3
 1800 0b80 7FE3FB78 		mr 3,31
 1801 0b84 48000001 		bl strcat
 1802              	.LBB2178:
 1803              		.loc 1 192 0
 1804 0b88 7FE3FB78 		mr 3,31
 1805 0b8c 48000001 		bl _ZN9Resources9LoadFilesEPKc
 1806 0b90 7C7D1B79 		mr. 29,3
 1807              	.LVL121:
 1808 0b94 418200A0 		beq- 0,.L134
 1809              	.L112:
 1810              	.LBE2178:
 1811              		.loc 1 209 0
 1812 0b98 7FE3FB78 		mr 3,31
 1813 0b9c 48000001 		bl strlen
 1814 0ba0 3D600000 		lis 11,.LC8@ha
 1815 0ba4 392B0098 		la 9,.LC8@l(11)
 1816 0ba8 810B0098 		lwz 8,.LC8@l(11)
 1817 0bac 81490004 		lwz 10,4(9)
 1818 0bb0 7C601B78 		mr 0,3
 1819 0bb4 A1690008 		lhz 11,8(9)
 1820 0bb8 7D3F1A14 		add 9,31,3
 1821 0bbc 7D1F012E 		stwx 8,31,0
 1822              		.loc 1 211 0
 1823 0bc0 3861000C 		addi 3,1,12
 1824              		.loc 1 209 0
 1825 0bc4 91490004 		stw 10,4(9)
 1826              		.loc 1 211 0
 1827 0bc8 7FE4FB78 		mr 4,31
 1828              		.loc 1 209 0
 1829 0bcc B1690008 		sth 11,8(9)
 1830              		.loc 1 211 0
 1831 0bd0 38A10009 		addi 5,1,9
 1832 0bd4 48000001 		bl _ZNSsC1EPKcRKSaIcE
 1833              	.LEHE11:
 1834 0bd8 3861000C 		addi 3,1,12
 1835              	.LEHB12:
 1836 0bdc 48000001 		bl _Z9CheckFileSs
 1837              	.LEHE12:
 1838              	.LBB2180:
 1839              	.LBB2181:
 1840              	.LBB2182:
 1841              	.LBB2183:
 1842              	.LBB2184:
 1843              	.LBB2185:
 1844              		.loc 2 288 0
 1845 0be0 8121000C 		lwz 9,12(1)
 1846              	.LBE2185:
 1847              	.LBE2184:
 1848              	.LBE2183:
 1849              	.LBB2186:
 1850              	.LBB2187:
 1851              		.loc 2 235 0
 1852 0be4 3D600000 		lis 11,_ZNSs4_Rep20_S_empty_rep_storageE@ha
 1853              	.LBE2187:
 1854              	.LBE2186:
 1855              	.LBE2182:
 1856              	.LBE2181:
 1857              	.LBE2180:
 1858              		.loc 1 211 0
 1859 0be8 7C7D1B78 		mr 29,3
 1860              	.LVL122:
 1861              	.LBB2204:
 1862              	.LBB2202:
 1863              	.LBB2200:
 1864              	.LBB2197:
 1865              	.LBB2194:
 1866              		.loc 2 235 0
 1867 0bec 380B0000 		la 0,_ZNSs4_Rep20_S_empty_rep_storageE@l(11)
 1868              	.LBE2194:
 1869              	.LBE2197:
 1870              		.loc 2 534 0
 1871 0bf0 3869FFF4 		addi 3,9,-12
 1872              	.LVL123:
 1873              	.LBB2198:
 1874              	.LBB2195:
 1875              		.loc 2 235 0
 1876 0bf4 7F830000 		cmpw 7,3,0
 1877 0bf8 409E00D8 		bne- 7,.L135
 1878              	.LVL124:
 1879              	.L121:
 1880              	.LBE2195:
 1881              	.LBE2198:
 1882              	.LBE2200:
 1883              	.LBE2202:
 1884              	.LBE2204:
 1885              		.loc 1 211 0
 1886 0bfc 2F9D0000 		cmpwi 7,29,0
 1887 0c00 419EFE24 		beq+ 7,.L101
 1888              		.loc 1 212 0
 1889 0c04 7FE3FB78 		mr 3,31
 1890              	.LEHB13:
 1891 0c08 48000001 		bl _ZN5Theme8LoadFontEPKc
 1892              	.LBE2209:
 1893              		.loc 1 215 0
 1894 0c0c 80010384 		lwz 0,900(1)
 1895 0c10 7FC3F378 		mr 3,30
 1896 0c14 8361036C 		lwz 27,876(1)
 1897 0c18 7C0803A6 		mtlr 0
 1898 0c1c 83810370 		lwz 28,880(1)
 1899 0c20 83A10374 		lwz 29,884(1)
 1900 0c24 83C10378 		lwz 30,888(1)
 1901 0c28 83E1037C 		lwz 31,892(1)
 1902 0c2c 38210380 		addi 1,1,896
 1903              		.cfi_remember_state
 1904              		.cfi_restore 27
 1905              		.cfi_restore 28
 1906              		.cfi_restore 29
 1907              		.cfi_restore 30
 1908              		.cfi_restore 31
 1909              	.LCFI26:
 1910              		.cfi_def_cfa_offset 0
 1911 0c30 4E800020 		blr
 1912              	.LVL125:
 1913              	.L134:
 1914              	.LCFI27:
 1915              		.cfi_restore_state
 1916              	.LBB2210:
 1917              	.LBB2205:
 1918              	.LBB2179:
 1919              		.loc 1 194 0
 1920 0c34 3880002F 		li 4,47
 1921 0c38 7F83E378 		mr 3,28
 1922 0c3c 48000001 		bl strrchr
 1923              	.LVL126:
 1924              		.loc 1 196 0
 1925 0c40 388000FF 		li 4,255
 1926              		.loc 1 194 0
 1927 0c44 38A30001 		addi 5,3,1
 1928              		.loc 1 196 0
 1929 0c48 38610010 		addi 3,1,16
 1930              	.LVL127:
 1931 0c4c 4CC63182 		crxor 6,6,6
 1932 0c50 48000001 		bl snprintf
 1933              	.LVL128:
 1934              		.loc 1 198 0
 1935 0c54 38610010 		addi 3,1,16
 1936 0c58 3880002E 		li 4,46
 1937 0c5c 48000001 		bl strrchr
 1938              	.LVL129:
 1939              		.loc 1 199 0
 1940 0c60 2C030000 		cmpwi 0,3,0
 1941 0c64 41820008 		beq- 0,.L113
 1942 0c68 9BA30000 		stb 29,0(3)
 1943              	.L113:
 1944              		.loc 1 201 0
 1945 0c6c 3880002F 		li 4,47
 1946 0c70 7FE3FB78 		mr 3,31
 1947              	.LVL130:
 1948 0c74 48000001 		bl strrchr
 1949              	.LVL131:
 1950              		.loc 1 202 0
 1951 0c78 38000000 		li 0,0
 1952 0c7c 98030000 		stb 0,0(3)
 1953              		.loc 1 204 0
 1954 0c80 38810010 		addi 4,1,16
 1955 0c84 7F63DB78 		mr 3,27
 1956              	.LVL132:
 1957 0c88 4CC63182 		crxor 6,6,6
 1958 0c8c 48000001 		bl _Z3fmtPKcz
 1959 0c90 7C641B78 		mr 4,3
 1960 0c94 7FE3FB78 		mr 3,31
 1961 0c98 48000001 		bl strcat
 1962              		.loc 1 205 0
 1963 0c9c 7FE3FB78 		mr 3,31
 1964 0ca0 48000001 		bl _ZN9Resources9LoadFilesEPKc
 1965 0ca4 4BFFFEF4 		b .L112
 1966              	.LVL133:
 1967              	.L123:
 1968              	.LBE2179:
 1969              	.LBE2205:
 1970              		.loc 1 156 0
 1971 0ca8 3BC00000 		li 30,0
 1972 0cac 4BFFFD78 		b .L101
 1973              	.LVL134:
 1974              	.L133:
 1975              		.loc 1 179 0
 1976 0cb0 7FE3FB78 		mr 3,31
 1977 0cb4 48000001 		bl fclose
 1978 0cb8 4BFFFD6C 		b .L101
 1979              	.LVL135:
 1980              	.L127:
 1981 0cbc 7C7F1B78 		mr 31,3
 1982              		.loc 1 211 0
 1983 0cc0 3861000C 		addi 3,1,12
 1984 0cc4 48000001 		bl _ZNSsD1Ev
 1985 0cc8 7FE3FB78 		mr 3,31
 1986 0ccc 48000001 		bl _Unwind_Resume
 1987              	.LEHE13:
 1988              	.LVL136:
 1989              	.L135:
 1990              	.LBB2206:
 1991              	.LBB2203:
 1992              	.LBB2201:
 1993              	.LBB2199:
 1994              	.LBB2196:
 1995              	.LBB2188:
 1996              	.LBB2189:
 1997              	.LBB2190:
 1998              		.loc 3 66 0
 1999 0cd0 8169FFFC 		lwz 11,-4(9)
 2000              	.LVL137:
 2001              	.LBE2190:
 2002              	.LBE2189:
 2003              	.LBE2188:
 2004              		.loc 2 240 0
 2005 0cd4 2F8B0000 		cmpwi 7,11,0
 2006              	.LBB2193:
 2007              	.LBB2192:
 2008              	.LBB2191:
 2009              		.loc 3 67 0
 2010 0cd8 396BFFFF 		addi 11,11,-1
 2011 0cdc 9169FFFC 		stw 11,-4(9)
 2012              	.LBE2191:
 2013              	.LBE2192:
 2014              	.LBE2193:
 2015              		.loc 2 240 0
 2016 0ce0 419DFF1C 		bgt+ 7,.L121
 2017              		.loc 2 244 0
 2018 0ce4 38810008 		addi 4,1,8
 2019 0ce8 48000001 		bl _ZNSs4_Rep10_M_destroyERKSaIcE
 2020              	.LVL138:
 2021 0cec 4BFFFF10 		b .L121
 2022              	.LBE2196:
 2023              	.LBE2199:
 2024              	.LBE2201:
 2025              	.LBE2203:
 2026              	.LBE2206:
 2027              	.LBE2210:
 2028              		.cfi_endproc
 2029              	.LFE2394:
 2030              		.section	.gcc_except_table
 2031              	.LLSDA2394:
 2032 004a FF       		.byte	0xff
 2033 004b FF       		.byte	0xff
 2034 004c 01       		.byte	0x1
 2035 004d 11       		.uleb128 .LLSDACSE2394-.LLSDACSB2394
 2036              	.LLSDACSB2394:
 2037 004e 2C       		.uleb128 .LEHB11-.LFB2394
 2038 004f C003     		.uleb128 .LEHE11-.LEHB11
 2039 0051 00       		.uleb128 0
 2040 0052 00       		.uleb128 0
 2041 0053 F003     		.uleb128 .LEHB12-.LFB2394
 2042 0055 04       		.uleb128 .LEHE12-.LEHB12
 2043 0056 D005     		.uleb128 .L127-.LFB2394
 2044 0058 00       		.uleb128 0
 2045 0059 9C04     		.uleb128 .LEHB13-.LFB2394
 2046 005b C801     		.uleb128 .LEHE13-.LEHB13
 2047 005d 00       		.uleb128 0
 2048 005e 00       		.uleb128 0
 2049              	.LLSDACSE2394:
 2050              		.section	".text"
 2051              		.size	_ZN5Theme4LoadEPKc.constprop.104, .-_ZN5Theme4LoadEPKc.constprop.104
 2052              		.align 2
 2053              		.globl _ZN5Theme6ReloadEbs
 2054              		.type	_ZN5Theme6ReloadEbs, @function
 2055              	_ZN5Theme6ReloadEbs:
 2056              	.LFB1731:
 2057              		.loc 1 87 0
 2058              		.cfi_startproc
 2059              		.cfi_personality 0,__gxx_personality_v0
 2060              		.cfi_lsda 0,.LLSDA1731
 2061              	.LVL139:
 2062 0cf0 9421FFD0 		stwu 1,-48(1)
 2063              	.LCFI28:
 2064              		.cfi_def_cfa_offset 48
 2065 0cf4 7C0802A6 		mflr 0
 2066 0cf8 93210014 		stw 25,20(1)
 2067              	.LBB2271:
 2068              	.LBB2272:
 2069              	.LBB2273:
 2070              		.file 4 "d:/Projects/SaveGameManager/savegame-manager-gx/trunk/source/Themes/../Settings/menus/Set
 2071              		.loc 4 46 0
 2072 0cfc 3F200000 		lis 25,_ZN12SettingsMenu8instanceE@ha
 2073              		.cfi_offset 25, -28
 2074              		.cfi_register 65, 0
 2075              	.LBE2273:
 2076              	.LBE2272:
 2077              	.LBE2271:
 2078              		.loc 1 87 0
 2079 0d00 93E1002C 		stw 31,44(1)
 2080              	.LBB2455:
 2081              	.LBB2278:
 2082              	.LBB2274:
 2083              		.loc 4 46 0
 2084 0d04 83F90000 		lwz 31,_ZN12SettingsMenu8instanceE@l(25)
 2085              		.cfi_offset 31, -4
 2086              	.LBE2274:
 2087              	.LBE2278:
 2088              	.LBE2455:
 2089              		.loc 1 87 0
 2090 0d08 92E1000C 		stw 23,12(1)
 2091 0d0c 7C972378 		mr 23,4
 2092              		.cfi_offset 23, -36
 2093              	.LBB2456:
 2094              	.LBB2279:
 2095              	.LBB2275:
 2096              		.loc 4 46 0
 2097 0d10 2F9F0000 		cmpwi 7,31,0
 2098              	.LBE2275:
 2099              	.LBE2279:
 2100              	.LBE2456:
 2101              		.loc 1 87 0
 2102 0d14 9361001C 		stw 27,28(1)
 2103 0d18 90010034 		stw 0,52(1)
 2104 0d1c 7C7B1B78 		mr 27,3
 2105              		.cfi_offset 65, 4
 2106              		.cfi_offset 27, -20
 2107 0d20 93010010 		stw 24,16(1)
 2108 0d24 93410018 		stw 26,24(1)
 2109 0d28 93810020 		stw 28,32(1)
 2110 0d2c 93A10024 		stw 29,36(1)
 2111 0d30 93C10028 		stw 30,40(1)
 2112              	.LBB2457:
 2113              	.LBB2280:
 2114              	.LBB2276:
 2115              		.loc 4 46 0
 2116 0d34 419E06E0 		beq- 7,.L258
 2117              		.cfi_offset 30, -8
 2118              		.cfi_offset 29, -12
 2119              		.cfi_offset 28, -16
 2120              		.cfi_offset 26, -24
 2121              		.cfi_offset 24, -32
 2122              	.LBE2276:
 2123              	.LBE2280:
 2124              		.loc 1 88 0
 2125 0d38 7FE3FB78 		mr 3,31
 2126              	.LVL140:
 2127              	.LBB2281:
 2128              	.LBB2282:
 2129              		.file 5 "d:/Projects/SaveGameManager/savegame-manager-gx/trunk/source/Themes/../Controls/Applicati
 2130              		.loc 5 27 0
 2131 0d3c 3FE00000 		lis 31,_ZN11Application8instanceE@ha
 2132              	.LEHB14:
 2133              	.LBE2282:
 2134              	.LBE2281:
 2135              		.loc 1 88 0
 2136 0d40 48000001 		bl _ZN12SettingsMenu5trashEv
 2137              	.LVL141:
 2138              	.LBB2287:
 2139              	.LBB2283:
 2140              		.loc 5 27 0
 2141 0d44 83DF0000 		lwz 30,_ZN11Application8instanceE@l(31)
 2142 0d48 2F9E0000 		cmpwi 7,30,0
 2143 0d4c 419E06F4 		beq- 7,.L259
 2144              	.L139:
 2145              	.LBE2283:
 2146              	.LBE2287:
 2147              		.loc 1 90 0
 2148 0d50 813E0000 		lwz 9,0(30)
 2149 0d54 7FC3F378 		mr 3,30
 2150 0d58 800900D0 		lwz 0,208(9)
 2151 0d5c 7C0903A6 		mtctr 0
 2152 0d60 4E800421 		bctrl
 2153              	.LBB2288:
 2154              	.LBB2289:
 2155              		.loc 5 27 0
 2156 0d64 83DF0000 		lwz 30,_ZN11Application8instanceE@l(31)
 2157 0d68 2F9E0000 		cmpwi 7,30,0
 2158 0d6c 419E0708 		beq- 7,.L260
 2159              	.L142:
 2160              	.LBE2289:
 2161              	.LBE2288:
 2162              		.loc 1 91 0
 2163 0d70 813E0000 		lwz 9,0(30)
 2164 0d74 7FC3F378 		mr 3,30
 2165              	.LBB2292:
 2166              	.LBB2293:
 2167              		.file 6 "d:/Projects/SaveGameManager/savegame-manager-gx/trunk/source/Themes/../Menu/MainMenu.h"
 2168              		.loc 6 48 0
 2169 0d78 3F800000 		lis 28,_ZN8MainMenu8instanceE@ha
 2170              	.LBE2293:
 2171              	.LBE2292:
 2172              		.loc 1 91 0
 2173 0d7c 800900D8 		lwz 0,216(9)
 2174 0d80 7C0903A6 		mtctr 0
 2175 0d84 4E800421 		bctrl
 2176              	.LBB2297:
 2177              	.LBB2294:
 2178              		.loc 6 48 0
 2179 0d88 807C0000 		lwz 3,_ZN8MainMenu8instanceE@l(28)
 2180 0d8c 2F830000 		cmpwi 7,3,0
 2181 0d90 419E0014 		beq- 7,.L145
 2182 0d94 81230000 		lwz 9,0(3)
 2183 0d98 80090004 		lwz 0,4(9)
 2184 0d9c 7C0903A6 		mtctr 0
 2185 0da0 4E800421 		bctrl
 2186              	.L145:
 2187              	.LBE2294:
 2188              	.LBE2297:
 2189              	.LBB2298:
 2190              	.LBB2299:
 2191              		.file 7 "d:/Projects/SaveGameManager/savegame-manager-gx/trunk/source/Themes/../SoundOperations/Mu
 2192              		.loc 7 39 0
 2193 0da4 3FC00000 		lis 30,_ZN11MusicPlayer8instanceE@ha
 2194              	.LBE2299:
 2195              	.LBE2298:
 2196              	.LBB2303:
 2197              	.LBB2295:
 2198              		.loc 6 48 0
 2199 0da8 38000000 		li 0,0
 2200              	.LBE2295:
 2201              	.LBE2303:
 2202              	.LBB2304:
 2203              	.LBB2300:
 2204              		.loc 7 39 0
 2205 0dac 807E0000 		lwz 3,_ZN11MusicPlayer8instanceE@l(30)
 2206              	.LBE2300:
 2207              	.LBE2304:
 2208              	.LBB2305:
 2209              	.LBB2296:
 2210              		.loc 6 48 0
 2211 0db0 901C0000 		stw 0,_ZN8MainMenu8instanceE@l(28)
 2212              	.LBE2296:
 2213              	.LBE2305:
 2214              	.LBB2306:
 2215              	.LBB2301:
 2216              		.loc 7 39 0
 2217 0db4 2F830000 		cmpwi 7,3,0
 2218 0db8 419E0014 		beq- 7,.L147
 2219 0dbc 81230000 		lwz 9,0(3)
 2220 0dc0 80090004 		lwz 0,4(9)
 2221 0dc4 7C0903A6 		mtctr 0
 2222 0dc8 4E800421 		bctrl
 2223              	.L147:
 2224              	.LBE2301:
 2225              	.LBE2306:
 2226              	.LBB2307:
 2227              	.LBB2308:
 2228              		.loc 5 27 0
 2229 0dcc 83BF0000 		lwz 29,_ZN11Application8instanceE@l(31)
 2230              	.LBE2308:
 2231              	.LBE2307:
 2232              	.LBB2311:
 2233              	.LBB2302:
 2234              		.loc 7 39 0
 2235 0dd0 38000000 		li 0,0
 2236 0dd4 901E0000 		stw 0,_ZN11MusicPlayer8instanceE@l(30)
 2237              	.LBE2302:
 2238              	.LBE2311:
 2239              	.LBB2312:
 2240              	.LBB2309:
 2241              		.loc 5 27 0
 2242 0dd8 2F9D0000 		cmpwi 7,29,0
 2243 0ddc 419E06B0 		beq- 7,.L261
 2244              	.L148:
 2245              	.LBE2309:
 2246              	.LBE2312:
 2247              		.loc 1 96 0
 2248 0de0 807D00CC 		lwz 3,204(29)
 2249 0de4 2F830000 		cmpwi 7,3,0
 2250 0de8 419E0018 		beq- 7,.L150
 2251              		.loc 1 96 0 is_stmt 0 discriminator 1
 2252 0dec 81230000 		lwz 9,0(3)
 2253 0df0 80090004 		lwz 0,4(9)
 2254 0df4 7C0903A6 		mtctr 0
 2255 0df8 4E800421 		bctrl
 2256 0dfc 83BF0000 		lwz 29,_ZN11Application8instanceE@l(31)
 2257              	.L150:
 2258              	.LBB2313:
 2259              	.LBB2314:
 2260              		.loc 5 27 0 is_stmt 1
 2261 0e00 2F9D0000 		cmpwi 7,29,0
 2262 0e04 419E06A0 		beq- 7,.L262
 2263              	.L152:
 2264              	.LBE2314:
 2265              	.LBE2313:
 2266              		.loc 1 98 0
 2267 0e08 807D00E0 		lwz 3,224(29)
 2268 0e0c 2F830000 		cmpwi 7,3,0
 2269 0e10 419E0018 		beq- 7,.L154
 2270              		.loc 1 98 0 is_stmt 0 discriminator 1
 2271 0e14 81230000 		lwz 9,0(3)
 2272 0e18 80090004 		lwz 0,4(9)
 2273 0e1c 7C0903A6 		mtctr 0
 2274 0e20 4E800421 		bctrl
 2275 0e24 83BF0000 		lwz 29,_ZN11Application8instanceE@l(31)
 2276              	.L154:
 2277              	.LBB2317:
 2278              	.LBB2318:
 2279              		.loc 5 27 0 is_stmt 1
 2280 0e28 2F9D0000 		cmpwi 7,29,0
 2281 0e2c 419E0690 		beq- 7,.L263
 2282              	.LBE2318:
 2283              	.LBE2317:
 2284              		.loc 1 99 0
 2285 0e30 807D00E4 		lwz 3,228(29)
 2286 0e34 48000001 		bl _ZN9Resources6RemoveEP12GuiImageData
 2287              	.LVL142:
 2288              	.LBB2321:
 2289              	.LBB2322:
 2290              	.LBB2323:
 2291              		.loc 5 27 0
 2292 0e38 83BF0000 		lwz 29,_ZN11Application8instanceE@l(31)
 2293 0e3c 2F9D0000 		cmpwi 7,29,0
 2294 0e40 419E06A4 		beq- 7,.L264
 2295              	.L157:
 2296              	.LBE2323:
 2297              	.LBE2322:
 2298              		.loc 1 102 0
 2299 0e44 807D00D0 		lwz 3,208(29)
 2300 0e48 2F830000 		cmpwi 7,3,0
 2301 0e4c 419E0014 		beq- 7,.L158
 2302 0e50 81230000 		lwz 9,0(3)
 2303 0e54 80090004 		lwz 0,4(9)
 2304 0e58 7C0903A6 		mtctr 0
 2305 0e5c 4E800421 		bctrl
 2306              	.L158:
 2307              	.LVL143:
 2308              	.LBB2329:
 2309              	.LBB2324:
 2310              		.loc 5 27 0
 2311 0e60 83BF0000 		lwz 29,_ZN11Application8instanceE@l(31)
 2312 0e64 2F9D0000 		cmpwi 7,29,0
 2313 0e68 419E0694 		beq- 7,.L265
 2314              	.L159:
 2315              	.LBE2324:
 2316              	.LBE2329:
 2317              		.loc 1 102 0
 2318 0e6c 807D00D4 		lwz 3,212(29)
 2319 0e70 2F830000 		cmpwi 7,3,0
 2320 0e74 419E0014 		beq- 7,.L160
 2321 0e78 81230000 		lwz 9,0(3)
 2322 0e7c 80090004 		lwz 0,4(9)
 2323 0e80 7C0903A6 		mtctr 0
 2324 0e84 4E800421 		bctrl
 2325              	.L160:
 2326              	.LVL144:
 2327              	.LBB2330:
 2328              	.LBB2325:
 2329              		.loc 5 27 0
 2330 0e88 83BF0000 		lwz 29,_ZN11Application8instanceE@l(31)
 2331 0e8c 2F9D0000 		cmpwi 7,29,0
 2332 0e90 419E0554 		beq- 7,.L266
 2333              	.L161:
 2334              	.LBE2325:
 2335              	.LBE2330:
 2336              		.loc 1 102 0
 2337 0e94 807D00D8 		lwz 3,216(29)
 2338 0e98 2F830000 		cmpwi 7,3,0
 2339 0e9c 419E0014 		beq- 7,.L162
 2340 0ea0 81230000 		lwz 9,0(3)
 2341 0ea4 80090004 		lwz 0,4(9)
 2342 0ea8 7C0903A6 		mtctr 0
 2343 0eac 4E800421 		bctrl
 2344              	.L162:
 2345              	.LVL145:
 2346              	.LBB2331:
 2347              	.LBB2326:
 2348              		.loc 5 27 0
 2349 0eb0 83BF0000 		lwz 29,_ZN11Application8instanceE@l(31)
 2350 0eb4 2F9D0000 		cmpwi 7,29,0
 2351 0eb8 419E0544 		beq- 7,.L267
 2352              	.L164:
 2353              	.LBE2326:
 2354              	.LBE2331:
 2355              		.loc 1 102 0
 2356 0ebc 807D00DC 		lwz 3,220(29)
 2357 0ec0 2F830000 		cmpwi 7,3,0
 2358 0ec4 419E0014 		beq- 7,.L167
 2359              		.loc 1 102 0 is_stmt 0 discriminator 1
 2360 0ec8 81230000 		lwz 9,0(3)
 2361 0ecc 80090004 		lwz 0,4(9)
 2362 0ed0 7C0903A6 		mtctr 0
 2363 0ed4 4E800421 		bctrl
 2364              	.L167:
 2365              	.LVL146:
 2366              	.LBE2321:
 2367              		.loc 1 104 0 is_stmt 1
 2368 0ed8 2F9B0000 		cmpwi 7,27,0
 2369 0edc 419E02B0 		beq- 7,.L169
 2370              	.LBB2334:
 2371              	.LBB2335:
 2372              		.loc 1 140 0
 2373 0ee0 38000001 		li 0,1
 2374 0ee4 3D200000 		lis 9,_ZN5Theme12ShowTooltipsE@ha
 2375              	.LBB2336:
 2376              	.LBB2337:
 2377              	.LBB2338:
 2378              	.LBB2339:
 2379              		.loc 1 334 0
 2380 0ee8 3F600000 		lis 27,fontSystem@ha
 2381              	.LBE2339:
 2382              	.LBE2338:
 2383              	.LBE2337:
 2384              	.LBE2336:
 2385              		.loc 1 140 0
 2386 0eec 98090000 		stb 0,_ZN5Theme12ShowTooltipsE@l(9)
 2387              	.LBB2349:
 2388              	.LBB2346:
 2389              		.loc 1 133 0
 2390 0ef0 48000001 		bl ThemeCleanUp
 2391              		.loc 1 134 0
 2392 0ef4 48000001 		bl _ZN9Resources15DestroyInstanceEv
 2393              	.LBB2343:
 2394              	.LBB2340:
 2395              		.loc 1 334 0
 2396 0ef8 83BB0000 		lwz 29,fontSystem@l(27)
 2397 0efc 2F9D0000 		cmpwi 7,29,0
 2398 0f00 419E0014 		beq- 7,.L170
 2399              		.loc 1 335 0
 2400 0f04 7FA3EB78 		mr 3,29
 2401 0f08 48000001 		bl _ZN10FreeTypeGXD1Ev
 2402 0f0c 7FA3EB78 		mr 3,29
 2403 0f10 48000001 		bl _ZdlPv
 2404              	.L170:
 2405              		.loc 1 338 0
 2406 0f14 3FA00000 		lis 29,.LANCHOR0@ha
 2407              		.loc 1 336 0
 2408 0f18 38000000 		li 0,0
 2409              		.loc 1 338 0
 2410 0f1c 807D0000 		lwz 3,.LANCHOR0@l(29)
 2411              		.loc 1 336 0
 2412 0f20 901B0000 		stw 0,fontSystem@l(27)
 2413              		.loc 1 338 0
 2414 0f24 2F830000 		cmpwi 7,3,0
 2415 0f28 419E0008 		beq- 7,.L171
 2416              		.loc 1 339 0
 2417 0f2c 48000001 		bl _ZdaPv
 2418              	.L171:
 2419              		.loc 1 340 0
 2420 0f30 3B7D0000 		la 27,.LANCHOR0@l(29)
 2421 0f34 38000000 		li 0,0
 2422              		.loc 1 342 0
 2423 0f38 807B0004 		lwz 3,4(27)
 2424              		.loc 1 340 0
 2425 0f3c 901D0000 		stw 0,.LANCHOR0@l(29)
 2426              		.loc 1 342 0
 2427 0f40 2F830000 		cmpwi 7,3,0
 2428 0f44 419E0008 		beq- 7,.L172
 2429              		.loc 1 343 0
 2430 0f48 48000001 		bl _ZdaPv
 2431              	.L172:
 2432              	.LBE2340:
 2433              	.LBE2343:
 2434              	.LBE2346:
 2435              	.LBE2349:
 2436              		.loc 1 142 0
 2437 0f4c 3D200000 		lis 9,Settings@ha
 2438              	.LBB2350:
 2439              	.LBB2347:
 2440              	.LBB2344:
 2441              	.LBB2341:
 2442              		.loc 1 344 0
 2443 0f50 38000000 		li 0,0
 2444              	.LBE2341:
 2445              	.LBE2344:
 2446              	.LBE2347:
 2447              	.LBE2350:
 2448              		.loc 1 142 0
 2449 0f54 39290000 		la 9,Settings@l(9)
 2450              	.LBB2351:
 2451              	.LBB2348:
 2452              	.LBB2345:
 2453              	.LBB2342:
 2454              		.loc 1 344 0
 2455 0f58 901B0004 		stw 0,4(27)
 2456              	.LBE2342:
 2457              	.LBE2345:
 2458              	.LBE2348:
 2459              	.LBE2351:
 2460              		.loc 1 142 0
 2461 0f5c 9809018A 		stb 0,394(9)
 2462              		.loc 1 143 0
 2463 0f60 3869071A 		addi 3,9,1818
 2464 0f64 48000001 		bl _ZN5Theme8LoadFontEPKc
 2465              	.L173:
 2466              	.LBE2335:
 2467              	.LBE2334:
 2468              		.loc 1 109 0
 2469 0f68 38600020 		li 3,32
 2470 0f6c 48000001 		bl _Znwj
 2471              	.LEHE14:
 2472 0f70 3C800000 		lis 4,.LC11@ha
 2473 0f74 388400D0 		la 4,.LC11@l(4)
 2474 0f78 7C7B1B78 		mr 27,3
 2475              	.LEHB15:
 2476 0f7c 48000001 		bl _ZN10WiiPointerC1EPKc
 2477              	.LEHE15:
 2478              	.LBB2352:
 2479              	.LBB2353:
 2480              		.loc 5 27 0
 2481 0f80 83BF0000 		lwz 29,_ZN11Application8instanceE@l(31)
 2482 0f84 2F9D0000 		cmpwi 7,29,0
 2483 0f88 419E03E4 		beq- 7,.L268
 2484              	.L174:
 2485              	.LBE2353:
 2486              	.LBE2352:
 2487              		.loc 1 109 0
 2488 0f8c 937D00D0 		stw 27,208(29)
 2489              		.loc 1 110 0
 2490 0f90 38600020 		li 3,32
 2491              	.LEHB16:
 2492 0f94 48000001 		bl _Znwj
 2493              	.LEHE16:
 2494 0f98 3C800000 		lis 4,.LC12@ha
 2495 0f9c 388400E4 		la 4,.LC12@l(4)
 2496 0fa0 7C7B1B78 		mr 27,3
 2497              	.LEHB17:
 2498 0fa4 48000001 		bl _ZN10WiiPointerC1EPKc
 2499              	.LEHE17:
 2500              	.LBB2355:
 2501              	.LBB2356:
 2502              		.loc 5 27 0
 2503 0fa8 83BF0000 		lwz 29,_ZN11Application8instanceE@l(31)
 2504 0fac 2F9D0000 		cmpwi 7,29,0
 2505 0fb0 419E03D4 		beq- 7,.L269
 2506              	.L177:
 2507              	.LBE2356:
 2508              	.LBE2355:
 2509              		.loc 1 110 0
 2510 0fb4 937D00D4 		stw 27,212(29)
 2511              		.loc 1 111 0
 2512 0fb8 38600020 		li 3,32
 2513              	.LEHB18:
 2514 0fbc 48000001 		bl _Znwj
 2515              	.LEHE18:
 2516 0fc0 3C800000 		lis 4,.LC13@ha
 2517 0fc4 388400F8 		la 4,.LC13@l(4)
 2518 0fc8 7C7B1B78 		mr 27,3
 2519              	.LEHB19:
 2520 0fcc 48000001 		bl _ZN10WiiPointerC1EPKc
 2521              	.LEHE19:
 2522              	.LBB2358:
 2523              	.LBB2359:
 2524              		.loc 5 27 0
 2525 0fd0 83BF0000 		lwz 29,_ZN11Application8instanceE@l(31)
 2526 0fd4 2F9D0000 		cmpwi 7,29,0
 2527 0fd8 419E03C4 		beq- 7,.L270
 2528              	.L180:
 2529              	.LBE2359:
 2530              	.LBE2358:
 2531              		.loc 1 111 0
 2532 0fdc 937D00D8 		stw 27,216(29)
 2533              		.loc 1 112 0
 2534 0fe0 38600020 		li 3,32
 2535              	.LEHB20:
 2536 0fe4 48000001 		bl _Znwj
 2537              	.LEHE20:
 2538 0fe8 3C800000 		lis 4,.LC14@ha
 2539 0fec 3884010C 		la 4,.LC14@l(4)
 2540 0ff0 7C7A1B78 		mr 26,3
 2541              	.LEHB21:
 2542 0ff4 48000001 		bl _ZN10WiiPointerC1EPKc
 2543              	.LEHE21:
 2544              	.LBB2361:
 2545              	.LBB2362:
 2546              		.loc 5 27 0
 2547 0ff8 83BF0000 		lwz 29,_ZN11Application8instanceE@l(31)
 2548 0ffc 2F9D0000 		cmpwi 7,29,0
 2549 1000 419E03B4 		beq- 7,.L271
 2550              	.L183:
 2551              	.LBE2362:
 2552              	.LBE2361:
 2553              		.loc 1 114 0
 2554 1004 3F600000 		lis 27,Settings@ha
 2555 1008 3B7B0000 		la 27,Settings@l(27)
 2556 100c A81B0A0E 		lha 0,2574(27)
 2557              		.loc 1 112 0
 2558 1010 935D00DC 		stw 26,220(29)
 2559              		.loc 1 114 0
 2560 1014 2F800000 		cmpwi 7,0,0
 2561 1018 419E017C 		beq- 7,.L220
 2562 101c 3C600000 		lis 3,.LC9@ha
 2563 1020 386300A4 		la 3,.LC9@l(3)
 2564              	.LEHB22:
 2565 1024 48000001 		bl _ZN9Resources12GetImageDataEPKc
 2566              	.LBB2364:
 2567              	.LBB2365:
 2568              		.loc 5 27 0
 2569 1028 835F0000 		lwz 26,_ZN11Application8instanceE@l(31)
 2570              	.LBE2365:
 2571              	.LBE2364:
 2572              		.loc 1 114 0
 2573 102c 907D00E4 		stw 3,228(29)
 2574              	.LBB2369:
 2575              	.LBB2366:
 2576              		.loc 5 27 0
 2577 1030 2F9A0000 		cmpwi 7,26,0
 2578 1034 419E017C 		beq- 7,.L272
 2579              	.L186:
 2580              	.LBE2366:
 2581              	.LBE2369:
 2582              		.loc 1 115 0
 2583 1038 83BA00E4 		lwz 29,228(26)
 2584 103c 386000C4 		li 3,196
 2585 1040 48000001 		bl _Znwj
 2586              	.LEHE22:
 2587 1044 7FA4EB78 		mr 4,29
 2588 1048 7C7A1B78 		mr 26,3
 2589              	.LEHB23:
 2590 104c 48000001 		bl _ZN8GuiImageC1EP12GuiImageData
 2591              	.LEHE23:
 2592              	.LBB2370:
 2593              	.LBB2371:
 2594              		.loc 5 27 0
 2595 1050 83BF0000 		lwz 29,_ZN11Application8instanceE@l(31)
 2596 1054 2F9D0000 		cmpwi 7,29,0
 2597 1058 419E0374 		beq- 7,.L273
 2598              	.L189:
 2599              	.LBE2371:
 2600              	.LBE2370:
 2601              		.loc 1 115 0
 2602 105c 935D00E0 		stw 26,224(29)
 2603              		.loc 1 117 0
 2604 1060 386000B8 		li 3,184
 2605              	.LEHB24:
 2606 1064 48000001 		bl _Znwj
 2607              	.LEHE24:
 2608 1068 7C781B78 		mr 24,3
 2609              	.LEHB25:
 2610 106c 48000001 		bl _ZN5ClockC1Ev
 2611              	.LEHE25:
 2612              	.LBB2373:
 2613              	.LBB2374:
 2614              		.loc 5 27 0
 2615 1070 835F0000 		lwz 26,_ZN11Application8instanceE@l(31)
 2616 1074 2F9A0000 		cmpwi 7,26,0
 2617 1078 419E02DC 		beq- 7,.L274
 2618              	.L192:
 2619              	.LBE2374:
 2620              	.LBE2373:
 2621              	.LBB2376:
 2622              	.LBB2377:
 2623              		.loc 6 47 0
 2624 107c 83BC0000 		lwz 29,_ZN8MainMenu8instanceE@l(28)
 2625              	.LBE2377:
 2626              	.LBE2376:
 2627              		.loc 1 117 0
 2628 1080 931A00CC 		stw 24,204(26)
 2629              	.LBB2381:
 2630              	.LBB2378:
 2631              		.loc 6 47 0
 2632 1084 2F9D0000 		cmpwi 7,29,0
 2633 1088 419E0140 		beq- 7,.L275
 2634              	.LBE2378:
 2635              	.LBE2381:
 2636              		.loc 1 119 0
 2637 108c 813D0000 		lwz 9,0(29)
 2638 1090 7FA3EB78 		mr 3,29
 2639 1094 800900CC 		lwz 0,204(9)
 2640 1098 7C0903A6 		mtctr 0
 2641              	.LEHB26:
 2642 109c 4E800421 		bctrl
 2643              	.LBB2382:
 2644              	.LBB2383:
 2645              		.loc 7 38 0
 2646 10a0 83BE0000 		lwz 29,_ZN11MusicPlayer8instanceE@l(30)
 2647 10a4 2F9D0000 		cmpwi 7,29,0
 2648 10a8 419E0154 		beq- 7,.L276
 2649              	.L196:
 2650              	.LVL147:
 2651              	.LBE2383:
 2652              	.LBE2382:
 2653              	.LBB2386:
 2654              	.LBB2387:
 2655              		.loc 7 53 0
 2656 10ac 807D00F0 		lwz 3,240(29)
 2657 10b0 809B04DC 		lwz 4,1244(27)
 2658 10b4 48000001 		bl _ZN8GuiSound9SetVolumeEi
 2659              	.LVL148:
 2660              	.LBE2387:
 2661              	.LBE2386:
 2662              	.LBB2390:
 2663              	.LBB2391:
 2664              		.loc 7 38 0
 2665 10b8 83BE0000 		lwz 29,_ZN11MusicPlayer8instanceE@l(30)
 2666 10bc 2F9D0000 		cmpwi 7,29,0
 2667 10c0 419E0168 		beq- 7,.L277
 2668              	.L198:
 2669              	.LBE2391:
 2670              	.LBE2390:
 2671              		.loc 1 122 0
 2672 10c4 889B04E9 		lbz 4,1257(27)
 2673              		.loc 1 345 0
 2674 10c8 807D00F0 		lwz 3,240(29)
 2675              	.LVL149:
 2676              	.LBB2394:
 2677              	.LBB2395:
 2678              		.loc 7 52 0
 2679 10cc 989D00F4 		stb 4,244(29)
 2680 10d0 48000001 		bl _ZN8GuiSound7SetLoopEh
 2681              	.LVL150:
 2682              	.LBE2395:
 2683              	.LBE2394:
 2684              	.LBB2398:
 2685              	.LBB2399:
 2686              		.loc 7 38 0
 2687 10d4 83BE0000 		lwz 29,_ZN11MusicPlayer8instanceE@l(30)
 2688 10d8 2F9D0000 		cmpwi 7,29,0
 2689 10dc 419E017C 		beq- 7,.L278
 2690              	.L201:
 2691              	.LBE2399:
 2692              	.LBE2398:
 2693              		.loc 1 123 0
 2694 10e0 813D0000 		lwz 9,0(29)
 2695 10e4 7FA3EB78 		mr 3,29
 2696 10e8 38800014 		li 4,20
 2697 10ec 800900B4 		lwz 0,180(9)
 2698 10f0 7C0903A6 		mtctr 0
 2699 10f4 4E800421 		bctrl
 2700              	.LBB2402:
 2701              	.LBB2403:
 2702              		.loc 7 38 0
 2703 10f8 83BE0000 		lwz 29,_ZN11MusicPlayer8instanceE@l(30)
 2704 10fc 2F9D0000 		cmpwi 7,29,0
 2705 1100 419E0190 		beq- 7,.L279
 2706              	.L204:
 2707              	.LBE2403:
 2708              	.LBE2402:
 2709              		.loc 1 124 0
 2710 1104 813D0000 		lwz 9,0(29)
 2711 1108 7FA3EB78 		mr 3,29
 2712 110c 3880001E 		li 4,30
 2713 1110 38A000E6 		li 5,230
 2714 1114 800900A8 		lwz 0,168(9)
 2715 1118 7C0903A6 		mtctr 0
 2716 111c 4E800421 		bctrl
 2717              	.LBB2406:
 2718              	.LBB2407:
 2719              		.loc 5 27 0
 2720 1120 83DF0000 		lwz 30,_ZN11Application8instanceE@l(31)
 2721 1124 2F9E0000 		cmpwi 7,30,0
 2722 1128 419E01A4 		beq- 7,.L280
 2723              	.L207:
 2724              	.LBE2407:
 2725              	.LBE2406:
 2726              		.loc 1 126 0
 2727 112c 813E0000 		lwz 9,0(30)
 2728 1130 7FC3F378 		mr 3,30
 2729 1134 800900CC 		lwz 0,204(9)
 2730 1138 7C0903A6 		mtctr 0
 2731 113c 4E800421 		bctrl
 2732              	.LBB2410:
 2733              	.LBB2411:
 2734              		.loc 4 46 0
 2735 1140 83F90000 		lwz 31,_ZN12SettingsMenu8instanceE@l(25)
 2736 1144 2F9F0000 		cmpwi 7,31,0
 2737 1148 419E01B8 		beq- 7,.L281
 2738              	.L210:
 2739              	.LBE2411:
 2740              	.LBE2410:
 2741              		.loc 1 128 0
 2742 114c 7FE3FB78 		mr 3,31
 2743 1150 7EE4BB78 		mr 4,23
 2744 1154 48000001 		bl _ZN12SettingsMenu4showEs
 2745              	.LBE2457:
 2746              		.loc 1 129 0
 2747 1158 80010034 		lwz 0,52(1)
 2748 115c 82E1000C 		lwz 23,12(1)
 2749 1160 7C0803A6 		mtlr 0
 2750 1164 83010010 		lwz 24,16(1)
 2751 1168 83210014 		lwz 25,20(1)
 2752 116c 83410018 		lwz 26,24(1)
 2753 1170 8361001C 		lwz 27,28(1)
 2754 1174 83810020 		lwz 28,32(1)
 2755 1178 83A10024 		lwz 29,36(1)
 2756 117c 83C10028 		lwz 30,40(1)
 2757 1180 83E1002C 		lwz 31,44(1)
 2758 1184 38210030 		addi 1,1,48
 2759              		.cfi_remember_state
 2760              	.LCFI29:
 2761              		.cfi_def_cfa_offset 0
 2762              		.cfi_restore 31
 2763              		.cfi_restore 30
 2764              		.cfi_restore 29
 2765              		.cfi_restore 28
 2766              		.cfi_restore 27
 2767              		.cfi_restore 26
 2768              		.cfi_restore 25
 2769              		.cfi_restore 24
 2770              		.cfi_restore 23
 2771 1188 4E800020 		blr
 2772              	.L169:
 2773              	.LCFI30:
 2774              		.cfi_restore_state
 2775              	.LBB2458:
 2776              		.loc 1 107 0
 2777 118c 4BFFF861 		bl _ZN5Theme4LoadEPKc.constprop.104
 2778 1190 4BFFFDD8 		b .L173
 2779              	.L220:
 2780              		.loc 1 114 0
 2781 1194 3C600000 		lis 3,.LC10@ha
 2782 1198 386300BC 		la 3,.LC10@l(3)
 2783 119c 48000001 		bl _ZN9Resources12GetImageDataEPKc
 2784              	.LBB2415:
 2785              	.LBB2367:
 2786              		.loc 5 27 0
 2787 11a0 835F0000 		lwz 26,_ZN11Application8instanceE@l(31)
 2788              	.LBE2367:
 2789              	.LBE2415:
 2790              		.loc 1 114 0
 2791 11a4 907D00E4 		stw 3,228(29)
 2792              	.LBB2416:
 2793              	.LBB2368:
 2794              		.loc 5 27 0
 2795 11a8 2F9A0000 		cmpwi 7,26,0
 2796 11ac 409EFE8C 		bne+ 7,.L186
 2797              	.L272:
 2798 11b0 38600278 		li 3,632
 2799 11b4 48000001 		bl _Znwj
 2800              	.LEHE26:
 2801 11b8 7C7A1B78 		mr 26,3
 2802              	.LEHB27:
 2803 11bc 48000001 		bl _ZN11ApplicationC1Ev
 2804              	.LEHE27:
 2805 11c0 935F0000 		stw 26,_ZN11Application8instanceE@l(31)
 2806 11c4 4BFFFE74 		b .L186
 2807              	.L275:
 2808              	.LBE2368:
 2809              	.LBE2416:
 2810              	.LBB2417:
 2811              	.LBB2379:
 2812              		.loc 6 47 0
 2813 11c8 386002A8 		li 3,680
 2814              	.LEHB28:
 2815 11cc 48000001 		bl _Znwj
 2816              	.LEHE28:
 2817 11d0 7C7D1B78 		mr 29,3
 2818              	.LEHB29:
 2819 11d4 48000001 		bl _ZN8MainMenuC1Ev
 2820              	.LEHE29:
 2821              	.LBE2379:
 2822              	.LBE2417:
 2823              		.loc 1 119 0
 2824 11d8 813D0000 		lwz 9,0(29)
 2825 11dc 7FA3EB78 		mr 3,29
 2826              	.LBB2418:
 2827              	.LBB2380:
 2828              		.loc 6 47 0
 2829 11e0 93BC0000 		stw 29,_ZN8MainMenu8instanceE@l(28)
 2830              	.LBE2380:
 2831              	.LBE2418:
 2832              		.loc 1 119 0
 2833 11e4 800900CC 		lwz 0,204(9)
 2834 11e8 7C0903A6 		mtctr 0
 2835              	.LEHB30:
 2836 11ec 4E800421 		bctrl
 2837              	.LBB2419:
 2838              	.LBB2384:
 2839              		.loc 7 38 0
 2840 11f0 83BE0000 		lwz 29,_ZN11MusicPlayer8instanceE@l(30)
 2841 11f4 2F9D0000 		cmpwi 7,29,0
 2842 11f8 409EFEB4 		bne+ 7,.L196
 2843              	.L276:
 2844 11fc 3860027C 		li 3,636
 2845 1200 48000001 		bl _Znwj
 2846              	.LEHE30:
 2847 1204 7C7D1B78 		mr 29,3
 2848              	.LEHB31:
 2849 1208 48000001 		bl _ZN11MusicPlayerC1Ev
 2850              	.LEHE31:
 2851              	.LBE2384:
 2852              	.LBE2419:
 2853              	.LBB2420:
 2854              	.LBB2388:
 2855              		.loc 7 53 0
 2856 120c 807D00F0 		lwz 3,240(29)
 2857 1210 809B04DC 		lwz 4,1244(27)
 2858              	.LBE2388:
 2859              	.LBE2420:
 2860              	.LBB2421:
 2861              	.LBB2385:
 2862              		.loc 7 38 0
 2863 1214 93BE0000 		stw 29,_ZN11MusicPlayer8instanceE@l(30)
 2864              	.LVL151:
 2865              	.LEHB32:
 2866              	.LBE2385:
 2867              	.LBE2421:
 2868              	.LBB2422:
 2869              	.LBB2389:
 2870              		.loc 7 53 0
 2871 1218 48000001 		bl _ZN8GuiSound9SetVolumeEi
 2872              	.LVL152:
 2873              	.LBE2389:
 2874              	.LBE2422:
 2875              	.LBB2423:
 2876              	.LBB2392:
 2877              		.loc 7 38 0
 2878 121c 83BE0000 		lwz 29,_ZN11MusicPlayer8instanceE@l(30)
 2879 1220 2F9D0000 		cmpwi 7,29,0
 2880 1224 409EFEA0 		bne+ 7,.L198
 2881              	.L277:
 2882 1228 3860027C 		li 3,636
 2883 122c 48000001 		bl _Znwj
 2884              	.LEHE32:
 2885 1230 7C7D1B78 		mr 29,3
 2886              	.LEHB33:
 2887 1234 48000001 		bl _ZN11MusicPlayerC1Ev
 2888              	.LEHE33:
 2889              	.LBE2392:
 2890              	.LBE2423:
 2891              		.loc 1 122 0
 2892 1238 889B04E9 		lbz 4,1257(27)
 2893              		.loc 1 345 0
 2894 123c 807D00F0 		lwz 3,240(29)
 2895              	.LVL153:
 2896              	.LBB2424:
 2897              	.LBB2396:
 2898              		.loc 7 52 0
 2899 1240 989D00F4 		stb 4,244(29)
 2900              	.LBE2396:
 2901              	.LBE2424:
 2902              	.LBB2425:
 2903              	.LBB2393:
 2904              		.loc 7 38 0
 2905 1244 93BE0000 		stw 29,_ZN11MusicPlayer8instanceE@l(30)
 2906              	.LEHB34:
 2907              	.LBE2393:
 2908              	.LBE2425:
 2909              	.LBB2426:
 2910              	.LBB2397:
 2911              		.loc 7 52 0
 2912 1248 48000001 		bl _ZN8GuiSound7SetLoopEh
 2913              	.LVL154:
 2914              	.LBE2397:
 2915              	.LBE2426:
 2916              	.LBB2427:
 2917              	.LBB2400:
 2918              		.loc 7 38 0
 2919 124c 83BE0000 		lwz 29,_ZN11MusicPlayer8instanceE@l(30)
 2920 1250 2F9D0000 		cmpwi 7,29,0
 2921 1254 409EFE8C 		bne+ 7,.L201
 2922              	.L278:
 2923 1258 3860027C 		li 3,636
 2924 125c 48000001 		bl _Znwj
 2925              	.LEHE34:
 2926 1260 7C7D1B78 		mr 29,3
 2927              	.LEHB35:
 2928 1264 48000001 		bl _ZN11MusicPlayerC1Ev
 2929              	.LEHE35:
 2930              	.LBE2400:
 2931              	.LBE2427:
 2932              		.loc 1 123 0
 2933 1268 813D0000 		lwz 9,0(29)
 2934 126c 7FA3EB78 		mr 3,29
 2935              	.LBB2428:
 2936              	.LBB2401:
 2937              		.loc 7 38 0
 2938 1270 93BE0000 		stw 29,_ZN11MusicPlayer8instanceE@l(30)
 2939              	.LBE2401:
 2940              	.LBE2428:
 2941              		.loc 1 123 0
 2942 1274 38800014 		li 4,20
 2943 1278 800900B4 		lwz 0,180(9)
 2944 127c 7C0903A6 		mtctr 0
 2945              	.LEHB36:
 2946 1280 4E800421 		bctrl
 2947              	.LBB2429:
 2948              	.LBB2404:
 2949              		.loc 7 38 0
 2950 1284 83BE0000 		lwz 29,_ZN11MusicPlayer8instanceE@l(30)
 2951 1288 2F9D0000 		cmpwi 7,29,0
 2952 128c 409EFE78 		bne+ 7,.L204
 2953              	.L279:
 2954 1290 3860027C 		li 3,636
 2955 1294 48000001 		bl _Znwj
 2956              	.LEHE36:
 2957 1298 7C7D1B78 		mr 29,3
 2958              	.LEHB37:
 2959 129c 48000001 		bl _ZN11MusicPlayerC1Ev
 2960              	.LEHE37:
 2961              	.LBE2404:
 2962              	.LBE2429:
 2963              		.loc 1 124 0
 2964 12a0 813D0000 		lwz 9,0(29)
 2965 12a4 7FA3EB78 		mr 3,29
 2966              	.LBB2430:
 2967              	.LBB2405:
 2968              		.loc 7 38 0
 2969 12a8 93BE0000 		stw 29,_ZN11MusicPlayer8instanceE@l(30)
 2970              	.LBE2405:
 2971              	.LBE2430:
 2972              		.loc 1 124 0
 2973 12ac 3880001E 		li 4,30
 2974 12b0 800900A8 		lwz 0,168(9)
 2975 12b4 38A000E6 		li 5,230
 2976 12b8 7C0903A6 		mtctr 0
 2977              	.LEHB38:
 2978 12bc 4E800421 		bctrl
 2979              	.LBB2431:
 2980              	.LBB2408:
 2981              		.loc 5 27 0
 2982 12c0 83DF0000 		lwz 30,_ZN11Application8instanceE@l(31)
 2983 12c4 2F9E0000 		cmpwi 7,30,0
 2984 12c8 409EFE64 		bne+ 7,.L207
 2985              	.L280:
 2986 12cc 38600278 		li 3,632
 2987 12d0 48000001 		bl _Znwj
 2988              	.LEHE38:
 2989 12d4 7C7E1B78 		mr 30,3
 2990              	.LEHB39:
 2991 12d8 48000001 		bl _ZN11ApplicationC1Ev
 2992              	.LEHE39:
 2993              	.LBE2408:
 2994              	.LBE2431:
 2995              		.loc 1 126 0
 2996 12dc 813E0000 		lwz 9,0(30)
 2997 12e0 7FC3F378 		mr 3,30
 2998              	.LBB2432:
 2999              	.LBB2409:
 3000              		.loc 5 27 0
 3001 12e4 93DF0000 		stw 30,_ZN11Application8instanceE@l(31)
 3002              	.LBE2409:
 3003              	.LBE2432:
 3004              		.loc 1 126 0
 3005 12e8 800900CC 		lwz 0,204(9)
 3006 12ec 7C0903A6 		mtctr 0
 3007              	.LEHB40:
 3008 12f0 4E800421 		bctrl
 3009              	.LBB2433:
 3010              	.LBB2412:
 3011              		.loc 4 46 0
 3012 12f4 83F90000 		lwz 31,_ZN12SettingsMenu8instanceE@l(25)
 3013 12f8 2F9F0000 		cmpwi 7,31,0
 3014 12fc 409EFE50 		bne+ 7,.L210
 3015              	.L281:
 3016 1300 386003D4 		li 3,980
 3017 1304 48000001 		bl _Znwj
 3018              	.LEHE40:
 3019 1308 7C7F1B78 		mr 31,3
 3020              	.LEHB41:
 3021 130c 48000001 		bl _ZN12SettingsMenuC1Ev
 3022              	.LEHE41:
 3023              	.LBE2412:
 3024              	.LBE2433:
 3025              		.loc 1 128 0
 3026 1310 7FE3FB78 		mr 3,31
 3027 1314 7EE4BB78 		mr 4,23
 3028              	.LBB2434:
 3029              	.LBB2413:
 3030              		.loc 4 46 0
 3031 1318 93F90000 		stw 31,_ZN12SettingsMenu8instanceE@l(25)
 3032              	.LEHB42:
 3033              	.LBE2413:
 3034              	.LBE2434:
 3035              		.loc 1 128 0
 3036 131c 48000001 		bl _ZN12SettingsMenu4showEs
 3037              	.LBE2458:
 3038              		.loc 1 129 0
 3039 1320 80010034 		lwz 0,52(1)
 3040 1324 82E1000C 		lwz 23,12(1)
 3041 1328 7C0803A6 		mtlr 0
 3042 132c 83010010 		lwz 24,16(1)
 3043 1330 83210014 		lwz 25,20(1)
 3044 1334 83410018 		lwz 26,24(1)
 3045 1338 8361001C 		lwz 27,28(1)
 3046 133c 83810020 		lwz 28,32(1)
 3047 1340 83A10024 		lwz 29,36(1)
 3048 1344 83C10028 		lwz 30,40(1)
 3049 1348 83E1002C 		lwz 31,44(1)
 3050 134c 38210030 		addi 1,1,48
 3051              		.cfi_remember_state
 3052              		.cfi_restore 23
 3053              		.cfi_restore 24
 3054              		.cfi_restore 25
 3055              		.cfi_restore 26
 3056              		.cfi_restore 27
 3057              		.cfi_restore 28
 3058              		.cfi_restore 29
 3059              		.cfi_restore 30
 3060              		.cfi_restore 31
 3061              	.LCFI31:
 3062              		.cfi_def_cfa_offset 0
 3063 1350 4E800020 		blr
 3064              	.L274:
 3065              	.LCFI32:
 3066              		.cfi_restore_state
 3067              	.LBB2459:
 3068              	.LBB2435:
 3069              	.LBB2375:
 3070              		.loc 5 27 0
 3071 1354 38600278 		li 3,632
 3072 1358 48000001 		bl _Znwj
 3073              	.LEHE42:
 3074 135c 7C7A1B78 		mr 26,3
 3075              	.LEHB43:
 3076 1360 48000001 		bl _ZN11ApplicationC1Ev
 3077              	.LEHE43:
 3078 1364 935F0000 		stw 26,_ZN11Application8instanceE@l(31)
 3079 1368 4BFFFD14 		b .L192
 3080              	.L268:
 3081              	.LBE2375:
 3082              	.LBE2435:
 3083              	.LBB2436:
 3084              	.LBB2354:
 3085 136c 38600278 		li 3,632
 3086              	.LEHB44:
 3087 1370 48000001 		bl _Znwj
 3088              	.LEHE44:
 3089 1374 7C7D1B78 		mr 29,3
 3090              	.LEHB45:
 3091 1378 48000001 		bl _ZN11ApplicationC1Ev
 3092              	.LEHE45:
 3093 137c 93BF0000 		stw 29,_ZN11Application8instanceE@l(31)
 3094 1380 4BFFFC0C 		b .L174
 3095              	.L269:
 3096              	.LBE2354:
 3097              	.LBE2436:
 3098              	.LBB2437:
 3099              	.LBB2357:
 3100 1384 38600278 		li 3,632
 3101              	.LEHB46:
 3102 1388 48000001 		bl _Znwj
 3103              	.LEHE46:
 3104 138c 7C7D1B78 		mr 29,3
 3105              	.LEHB47:
 3106 1390 48000001 		bl _ZN11ApplicationC1Ev
 3107              	.LEHE47:
 3108 1394 93BF0000 		stw 29,_ZN11Application8instanceE@l(31)
 3109 1398 4BFFFC1C 		b .L177
 3110              	.L270:
 3111              	.LBE2357:
 3112              	.LBE2437:
 3113              	.LBB2438:
 3114              	.LBB2360:
 3115 139c 38600278 		li 3,632
 3116              	.LEHB48:
 3117 13a0 48000001 		bl _Znwj
 3118              	.LEHE48:
 3119 13a4 7C7D1B78 		mr 29,3
 3120              	.LEHB49:
 3121 13a8 48000001 		bl _ZN11ApplicationC1Ev
 3122              	.LEHE49:
 3123 13ac 93BF0000 		stw 29,_ZN11Application8instanceE@l(31)
 3124 13b0 4BFFFC2C 		b .L180
 3125              	.L271:
 3126              	.LBE2360:
 3127              	.LBE2438:
 3128              	.LBB2439:
 3129              	.LBB2363:
 3130 13b4 38600278 		li 3,632
 3131              	.LEHB50:
 3132 13b8 48000001 		bl _Znwj
 3133              	.LEHE50:
 3134 13bc 7C7D1B78 		mr 29,3
 3135              	.LEHB51:
 3136 13c0 48000001 		bl _ZN11ApplicationC1Ev
 3137              	.LEHE51:
 3138 13c4 93BF0000 		stw 29,_ZN11Application8instanceE@l(31)
 3139 13c8 4BFFFC3C 		b .L183
 3140              	.L273:
 3141              	.LBE2363:
 3142              	.LBE2439:
 3143              	.LBB2440:
 3144              	.LBB2372:
 3145 13cc 38600278 		li 3,632
 3146              	.LEHB52:
 3147 13d0 48000001 		bl _Znwj
 3148              	.LEHE52:
 3149 13d4 7C7D1B78 		mr 29,3
 3150              	.LEHB53:
 3151 13d8 48000001 		bl _ZN11ApplicationC1Ev
 3152              	.LEHE53:
 3153 13dc 93BF0000 		stw 29,_ZN11Application8instanceE@l(31)
 3154 13e0 4BFFFC7C 		b .L189
 3155              	.LVL155:
 3156              	.L266:
 3157              	.LBE2372:
 3158              	.LBE2440:
 3159              	.LBB2441:
 3160              	.LBB2332:
 3161              	.LBB2327:
 3162 13e4 38600278 		li 3,632
 3163              	.LEHB54:
 3164 13e8 48000001 		bl _Znwj
 3165              	.LEHE54:
 3166 13ec 7C7D1B78 		mr 29,3
 3167              	.LEHB55:
 3168 13f0 48000001 		bl _ZN11ApplicationC1Ev
 3169              	.LEHE55:
 3170 13f4 93BF0000 		stw 29,_ZN11Application8instanceE@l(31)
 3171 13f8 4BFFFA9C 		b .L161
 3172              	.LVL156:
 3173              	.L267:
 3174 13fc 38600278 		li 3,632
 3175              	.LEHB56:
 3176 1400 48000001 		bl _Znwj
 3177              	.LEHE56:
 3178 1404 7C7D1B78 		mr 29,3
 3179              	.LEHB57:
 3180 1408 48000001 		bl _ZN11ApplicationC1Ev
 3181              	.LEHE57:
 3182 140c 93BF0000 		stw 29,_ZN11Application8instanceE@l(31)
 3183 1410 4BFFFAAC 		b .L164
 3184              	.LVL157:
 3185              	.L258:
 3186              	.LBE2327:
 3187              	.LBE2332:
 3188              	.LBE2441:
 3189              	.LBB2442:
 3190              	.LBB2277:
 3191              		.loc 4 46 0
 3192 1414 386003D4 		li 3,980
 3193              	.LVL158:
 3194              	.LEHB58:
 3195 1418 48000001 		bl _Znwj
 3196              	.LEHE58:
 3197              	.LVL159:
 3198 141c 7C7F1B78 		mr 31,3
 3199              	.LEHB59:
 3200 1420 48000001 		bl _ZN12SettingsMenuC1Ev
 3201              	.LEHE59:
 3202 1424 93F90000 		stw 31,_ZN12SettingsMenu8instanceE@l(25)
 3203              	.LBE2277:
 3204              	.LBE2442:
 3205              		.loc 1 88 0
 3206 1428 7FE3FB78 		mr 3,31
 3207              	.LBB2443:
 3208              	.LBB2284:
 3209              		.loc 5 27 0
 3210 142c 3FE00000 		lis 31,_ZN11Application8instanceE@ha
 3211              	.LEHB60:
 3212              	.LBE2284:
 3213              	.LBE2443:
 3214              		.loc 1 88 0
 3215 1430 48000001 		bl _ZN12SettingsMenu5trashEv
 3216              	.LBB2444:
 3217              	.LBB2285:
 3218              		.loc 5 27 0
 3219 1434 83DF0000 		lwz 30,_ZN11Application8instanceE@l(31)
 3220 1438 2F9E0000 		cmpwi 7,30,0
 3221 143c 409EF914 		bne+ 7,.L139
 3222              	.L259:
 3223 1440 38600278 		li 3,632
 3224 1444 48000001 		bl _Znwj
 3225              	.LEHE60:
 3226 1448 7C7E1B78 		mr 30,3
 3227              	.LEHB61:
 3228 144c 48000001 		bl _ZN11ApplicationC1Ev
 3229              	.LEHE61:
 3230              	.LBE2285:
 3231              	.LBE2444:
 3232              		.loc 1 90 0
 3233 1450 813E0000 		lwz 9,0(30)
 3234 1454 7FC3F378 		mr 3,30
 3235              	.LBB2445:
 3236              	.LBB2286:
 3237              		.loc 5 27 0
 3238 1458 93DF0000 		stw 30,_ZN11Application8instanceE@l(31)
 3239              	.LBE2286:
 3240              	.LBE2445:
 3241              		.loc 1 90 0
 3242 145c 800900D0 		lwz 0,208(9)
 3243 1460 7C0903A6 		mtctr 0
 3244              	.LEHB62:
 3245 1464 4E800421 		bctrl
 3246              	.LBB2446:
 3247              	.LBB2290:
 3248              		.loc 5 27 0
 3249 1468 83DF0000 		lwz 30,_ZN11Application8instanceE@l(31)
 3250 146c 2F9E0000 		cmpwi 7,30,0
 3251 1470 409EF900 		bne+ 7,.L142
 3252              	.L260:
 3253 1474 38600278 		li 3,632
 3254 1478 48000001 		bl _Znwj
 3255              	.LEHE62:
 3256 147c 7C7E1B78 		mr 30,3
 3257              	.LEHB63:
 3258 1480 48000001 		bl _ZN11ApplicationC1Ev
 3259              	.LEHE63:
 3260 1484 93DF0000 		stw 30,_ZN11Application8instanceE@l(31)
 3261 1488 4BFFF8E8 		b .L142
 3262              	.L261:
 3263              	.LBE2290:
 3264              	.LBE2446:
 3265              	.LBB2447:
 3266              	.LBB2310:
 3267 148c 38600278 		li 3,632
 3268              	.LEHB64:
 3269 1490 48000001 		bl _Znwj
 3270              	.LEHE64:
 3271 1494 7C7D1B78 		mr 29,3
 3272              	.LEHB65:
 3273 1498 48000001 		bl _ZN11ApplicationC1Ev
 3274              	.LEHE65:
 3275 149c 93BF0000 		stw 29,_ZN11Application8instanceE@l(31)
 3276 14a0 4BFFF940 		b .L148
 3277              	.L262:
 3278              	.LBE2310:
 3279              	.LBE2447:
 3280              	.LBB2448:
 3281              	.LBB2315:
 3282 14a4 38600278 		li 3,632
 3283              	.LEHB66:
 3284 14a8 48000001 		bl _Znwj
 3285              	.LEHE66:
 3286 14ac 7C7D1B78 		mr 29,3
 3287              	.LEHB67:
 3288 14b0 48000001 		bl _ZN11ApplicationC1Ev
 3289              	.LEHE67:
 3290 14b4 93BF0000 		stw 29,_ZN11Application8instanceE@l(31)
 3291 14b8 4BFFF950 		b .L152
 3292              	.L263:
 3293              	.LBE2315:
 3294              	.LBE2448:
 3295              	.LBB2449:
 3296              	.LBB2319:
 3297 14bc 38600278 		li 3,632
 3298              	.LEHB68:
 3299 14c0 48000001 		bl _Znwj
 3300              	.LEHE68:
 3301 14c4 7C7D1B78 		mr 29,3
 3302              	.LEHB69:
 3303 14c8 48000001 		bl _ZN11ApplicationC1Ev
 3304              	.LEHE69:
 3305              	.LBE2319:
 3306              	.LBE2449:
 3307              		.loc 1 99 0
 3308 14cc 807D00E4 		lwz 3,228(29)
 3309              	.LBB2450:
 3310              	.LBB2320:
 3311              		.loc 5 27 0
 3312 14d0 93BF0000 		stw 29,_ZN11Application8instanceE@l(31)
 3313              	.LEHB70:
 3314              	.LBE2320:
 3315              	.LBE2450:
 3316              		.loc 1 99 0
 3317 14d4 48000001 		bl _ZN9Resources6RemoveEP12GuiImageData
 3318              	.LVL160:
 3319              	.LBB2451:
 3320              	.LBB2333:
 3321              	.LBB2328:
 3322              		.loc 5 27 0
 3323 14d8 83BF0000 		lwz 29,_ZN11Application8instanceE@l(31)
 3324 14dc 2F9D0000 		cmpwi 7,29,0
 3325 14e0 409EF964 		bne+ 7,.L157
 3326              	.L264:
 3327 14e4 38600278 		li 3,632
 3328 14e8 48000001 		bl _Znwj
 3329              	.LEHE70:
 3330 14ec 7C7D1B78 		mr 29,3
 3331              	.LEHB71:
 3332 14f0 48000001 		bl _ZN11ApplicationC1Ev
 3333              	.LEHE71:
 3334 14f4 93BF0000 		stw 29,_ZN11Application8instanceE@l(31)
 3335 14f8 4BFFF94C 		b .L157
 3336              	.LVL161:
 3337              	.L265:
 3338 14fc 38600278 		li 3,632
 3339              	.LEHB72:
 3340 1500 48000001 		bl _Znwj
 3341              	.LEHE72:
 3342 1504 7C7D1B78 		mr 29,3
 3343              	.LEHB73:
 3344 1508 48000001 		bl _ZN11ApplicationC1Ev
 3345              	.LEHE73:
 3346 150c 93BF0000 		stw 29,_ZN11Application8instanceE@l(31)
 3347 1510 4BFFF95C 		b .L159
 3348              	.LVL162:
 3349              	.L241:
 3350              	.L256:
 3351 1514 7C7F1B78 		mr 31,3
 3352              	.LBE2328:
 3353              	.LBE2333:
 3354              	.LBE2451:
 3355              		.loc 1 115 0
 3356 1518 7F43D378 		mr 3,26
 3357 151c 48000001 		bl _ZdlPv
 3358 1520 7FE3FB78 		mr 3,31
 3359              	.LEHB74:
 3360 1524 48000001 		bl _Unwind_Resume
 3361              	.L224:
 3362 1528 4BFFFFEC 		b .L256
 3363              	.L223:
 3364              	.L257:
 3365 152c 7C7F1B78 		mr 31,3
 3366              		.loc 1 111 0
 3367 1530 7F63DB78 		mr 3,27
 3368 1534 48000001 		bl _ZdlPv
 3369 1538 7FE3FB78 		mr 3,31
 3370 153c 48000001 		bl _Unwind_Resume
 3371              	.L226:
 3372 1540 7C7F1B78 		mr 31,3
 3373              		.loc 1 117 0
 3374 1544 7F03C378 		mr 3,24
 3375 1548 48000001 		bl _ZdlPv
 3376 154c 7FE3FB78 		mr 3,31
 3377 1550 48000001 		bl _Unwind_Resume
 3378              	.L225:
 3379 1554 4BFFFFC0 		b .L256
 3380              	.L222:
 3381 1558 4BFFFFD4 		b .L257
 3382              	.L221:
 3383 155c 4BFFFFD0 		b .L257
 3384              	.L227:
 3385              	.LVL163:
 3386              	.L255:
 3387 1560 7C7F1B78 		mr 31,3
 3388              	.LBB2452:
 3389              	.LBB2316:
 3390              		.loc 5 27 0
 3391 1564 7FA3EB78 		mr 3,29
 3392 1568 48000001 		bl _ZdlPv
 3393 156c 7FE3FB78 		mr 3,31
 3394 1570 48000001 		bl _Unwind_Resume
 3395              	.L233:
 3396 1574 4BFFFFEC 		b .L255
 3397              	.L232:
 3398 1578 4BFFFFE8 		b .L255
 3399              	.L231:
 3400 157c 4BFFFFE4 		b .L255
 3401              	.L230:
 3402              	.L254:
 3403 1580 7C7F1B78 		mr 31,3
 3404              	.LBE2316:
 3405              	.LBE2452:
 3406              	.LBB2453:
 3407              	.LBB2291:
 3408 1584 7FC3F378 		mr 3,30
 3409 1588 48000001 		bl _ZdlPv
 3410 158c 7FE3FB78 		mr 3,31
 3411 1590 48000001 		bl _Unwind_Resume
 3412              	.L229:
 3413 1594 4BFFFFEC 		b .L254
 3414              	.L228:
 3415              	.L253:
 3416 1598 7C7E1B78 		mr 30,3
 3417              	.LBE2291:
 3418              	.LBE2453:
 3419              	.LBB2454:
 3420              	.LBB2414:
 3421              		.loc 4 46 0
 3422 159c 7FE3FB78 		mr 3,31
 3423 15a0 48000001 		bl _ZdlPv
 3424 15a4 7FC3F378 		mr 3,30
 3425 15a8 48000001 		bl _Unwind_Resume
 3426              	.LEHE74:
 3427              	.LVL164:
 3428              	.L247:
 3429 15ac 4BFFFFEC 		b .L253
 3430              	.L246:
 3431 15b0 4BFFFFD0 		b .L254
 3432              	.L245:
 3433 15b4 4BFFFFAC 		b .L255
 3434              	.L244:
 3435 15b8 4BFFFFA8 		b .L255
 3436              	.LVL165:
 3437              	.L234:
 3438 15bc 4BFFFFA4 		b .L255
 3439              	.LVL166:
 3440              	.L243:
 3441 15c0 4BFFFFA0 		b .L255
 3442              	.L242:
 3443 15c4 4BFFFF9C 		b .L255
 3444              	.L240:
 3445 15c8 4BFFFF98 		b .L255
 3446              	.L239:
 3447 15cc 4BFFFF48 		b .L256
 3448              	.L238:
 3449 15d0 4BFFFF90 		b .L255
 3450              	.L237:
 3451 15d4 4BFFFF8C 		b .L255
 3452              	.L236:
 3453 15d8 4BFFFF88 		b .L255
 3454              	.L235:
 3455 15dc 4BFFFF84 		b .L255
 3456              	.LBE2414:
 3457              	.LBE2454:
 3458              	.LBE2459:
 3459              		.cfi_endproc
 3460              	.LFE1731:
 3461              		.section	.gcc_except_table
 3462              	.LLSDA1731:
 3463 005f FF       		.byte	0xff
 3464 0060 FF       		.byte	0xff
 3465 0061 01       		.byte	0x1
 3466 0062 D102     		.uleb128 .LLSDACSE1731-.LLSDACSB1731
 3467              	.LLSDACSB1731:
 3468 0064 50       		.uleb128 .LEHB14-.LFB1731
 3469 0065 B004     		.uleb128 .LEHE14-.LEHB14
 3470 0067 00       		.uleb128 0
 3471 0068 00       		.uleb128 0
 3472 0069 8C05     		.uleb128 .LEHB15-.LFB1731
 3473 006b 04       		.uleb128 .LEHE15-.LEHB15
 3474 006c EC10     		.uleb128 .L221-.LFB1731
 3475 006e 00       		.uleb128 0
 3476 006f A405     		.uleb128 .LEHB16-.LFB1731
 3477 0071 04       		.uleb128 .LEHE16-.LEHB16
 3478 0072 00       		.uleb128 0
 3479 0073 00       		.uleb128 0
 3480 0074 B405     		.uleb128 .LEHB17-.LFB1731
 3481 0076 04       		.uleb128 .LEHE17-.LEHB17
 3482 0077 E810     		.uleb128 .L222-.LFB1731
 3483 0079 00       		.uleb128 0
 3484 007a CC05     		.uleb128 .LEHB18-.LFB1731
 3485 007c 04       		.uleb128 .LEHE18-.LEHB18
 3486 007d 00       		.uleb128 0
 3487 007e 00       		.uleb128 0
 3488 007f DC05     		.uleb128 .LEHB19-.LFB1731
 3489 0081 04       		.uleb128 .LEHE19-.LEHB19
 3490 0082 BC10     		.uleb128 .L223-.LFB1731
 3491 0084 00       		.uleb128 0
 3492 0085 F405     		.uleb128 .LEHB20-.LFB1731
 3493 0087 04       		.uleb128 .LEHE20-.LEHB20
 3494 0088 00       		.uleb128 0
 3495 0089 00       		.uleb128 0
 3496 008a 8406     		.uleb128 .LEHB21-.LFB1731
 3497 008c 04       		.uleb128 .LEHE21-.LEHB21
 3498 008d B810     		.uleb128 .L224-.LFB1731
 3499 008f 00       		.uleb128 0
 3500 0090 B406     		.uleb128 .LEHB22-.LFB1731
 3501 0092 20       		.uleb128 .LEHE22-.LEHB22
 3502 0093 00       		.uleb128 0
 3503 0094 00       		.uleb128 0
 3504 0095 DC06     		.uleb128 .LEHB23-.LFB1731
 3505 0097 04       		.uleb128 .LEHE23-.LEHB23
 3506 0098 E410     		.uleb128 .L225-.LFB1731
 3507 009a 00       		.uleb128 0
 3508 009b F406     		.uleb128 .LEHB24-.LFB1731
 3509 009d 04       		.uleb128 .LEHE24-.LEHB24
 3510 009e 00       		.uleb128 0
 3511 009f 00       		.uleb128 0
 3512 00a0 FC06     		.uleb128 .LEHB25-.LFB1731
 3513 00a2 04       		.uleb128 .LEHE25-.LEHB25
 3514 00a3 D010     		.uleb128 .L226-.LFB1731
 3515 00a5 00       		.uleb128 0
 3516 00a6 AC07     		.uleb128 .LEHB26-.LFB1731
 3517 00a8 9C02     		.uleb128 .LEHE26-.LEHB26
 3518 00aa 00       		.uleb128 0
 3519 00ab 00       		.uleb128 0
 3520 00ac CC09     		.uleb128 .LEHB27-.LFB1731
 3521 00ae 04       		.uleb128 .LEHE27-.LEHB27
 3522 00af DC11     		.uleb128 .L239-.LFB1731
 3523 00b1 00       		.uleb128 0
 3524 00b2 DC09     		.uleb128 .LEHB28-.LFB1731
 3525 00b4 04       		.uleb128 .LEHE28-.LEHB28
 3526 00b5 00       		.uleb128 0
 3527 00b6 00       		.uleb128 0
 3528 00b7 E409     		.uleb128 .LEHB29-.LFB1731
 3529 00b9 04       		.uleb128 .LEHE29-.LEHB29
 3530 00ba F010     		.uleb128 .L227-.LFB1731
 3531 00bc 00       		.uleb128 0
 3532 00bd FC09     		.uleb128 .LEHB30-.LFB1731
 3533 00bf 18       		.uleb128 .LEHE30-.LEHB30
 3534 00c0 00       		.uleb128 0
 3535 00c1 00       		.uleb128 0
 3536 00c2 980A     		.uleb128 .LEHB31-.LFB1731
 3537 00c4 04       		.uleb128 .LEHE31-.LEHB31
 3538 00c5 D411     		.uleb128 .L242-.LFB1731
 3539 00c7 00       		.uleb128 0
 3540 00c8 A80A     		.uleb128 .LEHB32-.LFB1731
 3541 00ca 18       		.uleb128 .LEHE32-.LEHB32
 3542 00cb 00       		.uleb128 0
 3543 00cc 00       		.uleb128 0
 3544 00cd C40A     		.uleb128 .LEHB33-.LFB1731
 3545 00cf 04       		.uleb128 .LEHE33-.LEHB33
 3546 00d0 D011     		.uleb128 .L243-.LFB1731
 3547 00d2 00       		.uleb128 0
 3548 00d3 D80A     		.uleb128 .LEHB34-.LFB1731
 3549 00d5 18       		.uleb128 .LEHE34-.LEHB34
 3550 00d6 00       		.uleb128 0
 3551 00d7 00       		.uleb128 0
 3552 00d8 F40A     		.uleb128 .LEHB35-.LFB1731
 3553 00da 04       		.uleb128 .LEHE35-.LEHB35
 3554 00db C811     		.uleb128 .L244-.LFB1731
 3555 00dd 00       		.uleb128 0
 3556 00de 900B     		.uleb128 .LEHB36-.LFB1731
 3557 00e0 18       		.uleb128 .LEHE36-.LEHB36
 3558 00e1 00       		.uleb128 0
 3559 00e2 00       		.uleb128 0
 3560 00e3 AC0B     		.uleb128 .LEHB37-.LFB1731
 3561 00e5 04       		.uleb128 .LEHE37-.LEHB37
 3562 00e6 C411     		.uleb128 .L245-.LFB1731
 3563 00e8 00       		.uleb128 0
 3564 00e9 CC0B     		.uleb128 .LEHB38-.LFB1731
 3565 00eb 18       		.uleb128 .LEHE38-.LEHB38
 3566 00ec 00       		.uleb128 0
 3567 00ed 00       		.uleb128 0
 3568 00ee E80B     		.uleb128 .LEHB39-.LFB1731
 3569 00f0 04       		.uleb128 .LEHE39-.LEHB39
 3570 00f1 C011     		.uleb128 .L246-.LFB1731
 3571 00f3 00       		.uleb128 0
 3572 00f4 800C     		.uleb128 .LEHB40-.LFB1731
 3573 00f6 18       		.uleb128 .LEHE40-.LEHB40
 3574 00f7 00       		.uleb128 0
 3575 00f8 00       		.uleb128 0
 3576 00f9 9C0C     		.uleb128 .LEHB41-.LFB1731
 3577 00fb 04       		.uleb128 .LEHE41-.LEHB41
 3578 00fc BC11     		.uleb128 .L247-.LFB1731
 3579 00fe 00       		.uleb128 0
 3580 00ff AC0C     		.uleb128 .LEHB42-.LFB1731
 3581 0101 40       		.uleb128 .LEHE42-.LEHB42
 3582 0102 00       		.uleb128 0
 3583 0103 00       		.uleb128 0
 3584 0104 F00C     		.uleb128 .LEHB43-.LFB1731
 3585 0106 04       		.uleb128 .LEHE43-.LEHB43
 3586 0107 A410     		.uleb128 .L241-.LFB1731
 3587 0109 00       		.uleb128 0
 3588 010a 800D     		.uleb128 .LEHB44-.LFB1731
 3589 010c 04       		.uleb128 .LEHE44-.LEHB44
 3590 010d 00       		.uleb128 0
 3591 010e 00       		.uleb128 0
 3592 010f 880D     		.uleb128 .LEHB45-.LFB1731
 3593 0111 04       		.uleb128 .LEHE45-.LEHB45
 3594 0112 EC11     		.uleb128 .L235-.LFB1731
 3595 0114 00       		.uleb128 0
 3596 0115 980D     		.uleb128 .LEHB46-.LFB1731
 3597 0117 04       		.uleb128 .LEHE46-.LEHB46
 3598 0118 00       		.uleb128 0
 3599 0119 00       		.uleb128 0
 3600 011a A00D     		.uleb128 .LEHB47-.LFB1731
 3601 011c 04       		.uleb128 .LEHE47-.LEHB47
 3602 011d E811     		.uleb128 .L236-.LFB1731
 3603 011f 00       		.uleb128 0
 3604 0120 B00D     		.uleb128 .LEHB48-.LFB1731
 3605 0122 04       		.uleb128 .LEHE48-.LEHB48
 3606 0123 00       		.uleb128 0
 3607 0124 00       		.uleb128 0
 3608 0125 B80D     		.uleb128 .LEHB49-.LFB1731
 3609 0127 04       		.uleb128 .LEHE49-.LEHB49
 3610 0128 E411     		.uleb128 .L237-.LFB1731
 3611 012a 00       		.uleb128 0
 3612 012b C80D     		.uleb128 .LEHB50-.LFB1731
 3613 012d 04       		.uleb128 .LEHE50-.LEHB50
 3614 012e 00       		.uleb128 0
 3615 012f 00       		.uleb128 0
 3616 0130 D00D     		.uleb128 .LEHB51-.LFB1731
 3617 0132 04       		.uleb128 .LEHE51-.LEHB51
 3618 0133 E011     		.uleb128 .L238-.LFB1731
 3619 0135 00       		.uleb128 0
 3620 0136 E00D     		.uleb128 .LEHB52-.LFB1731
 3621 0138 04       		.uleb128 .LEHE52-.LEHB52
 3622 0139 00       		.uleb128 0
 3623 013a 00       		.uleb128 0
 3624 013b E80D     		.uleb128 .LEHB53-.LFB1731
 3625 013d 04       		.uleb128 .LEHE53-.LEHB53
 3626 013e D811     		.uleb128 .L240-.LFB1731
 3627 0140 00       		.uleb128 0
 3628 0141 F80D     		.uleb128 .LEHB54-.LFB1731
 3629 0143 04       		.uleb128 .LEHE54-.LEHB54
 3630 0144 00       		.uleb128 0
 3631 0145 00       		.uleb128 0
 3632 0146 800E     		.uleb128 .LEHB55-.LFB1731
 3633 0148 04       		.uleb128 .LEHE55-.LEHB55
 3634 0149 CC11     		.uleb128 .L234-.LFB1731
 3635 014b 00       		.uleb128 0
 3636 014c 900E     		.uleb128 .LEHB56-.LFB1731
 3637 014e 04       		.uleb128 .LEHE56-.LEHB56
 3638 014f 00       		.uleb128 0
 3639 0150 00       		.uleb128 0
 3640 0151 980E     		.uleb128 .LEHB57-.LFB1731
 3641 0153 04       		.uleb128 .LEHE57-.LEHB57
 3642 0154 CC11     		.uleb128 .L234-.LFB1731
 3643 0156 00       		.uleb128 0
 3644 0157 A80E     		.uleb128 .LEHB58-.LFB1731
 3645 0159 04       		.uleb128 .LEHE58-.LEHB58
 3646 015a 00       		.uleb128 0
 3647 015b 00       		.uleb128 0
 3648 015c B00E     		.uleb128 .LEHB59-.LFB1731
 3649 015e 04       		.uleb128 .LEHE59-.LEHB59
 3650 015f A811     		.uleb128 .L228-.LFB1731
 3651 0161 00       		.uleb128 0
 3652 0162 C00E     		.uleb128 .LEHB60-.LFB1731
 3653 0164 18       		.uleb128 .LEHE60-.LEHB60
 3654 0165 00       		.uleb128 0
 3655 0166 00       		.uleb128 0
 3656 0167 DC0E     		.uleb128 .LEHB61-.LFB1731
 3657 0169 04       		.uleb128 .LEHE61-.LEHB61
 3658 016a A411     		.uleb128 .L229-.LFB1731
 3659 016c 00       		.uleb128 0
 3660 016d F40E     		.uleb128 .LEHB62-.LFB1731
 3661 016f 18       		.uleb128 .LEHE62-.LEHB62
 3662 0170 00       		.uleb128 0
 3663 0171 00       		.uleb128 0
 3664 0172 900F     		.uleb128 .LEHB63-.LFB1731
 3665 0174 04       		.uleb128 .LEHE63-.LEHB63
 3666 0175 9011     		.uleb128 .L230-.LFB1731
 3667 0177 00       		.uleb128 0
 3668 0178 A00F     		.uleb128 .LEHB64-.LFB1731
 3669 017a 04       		.uleb128 .LEHE64-.LEHB64
 3670 017b 00       		.uleb128 0
 3671 017c 00       		.uleb128 0
 3672 017d A80F     		.uleb128 .LEHB65-.LFB1731
 3673 017f 04       		.uleb128 .LEHE65-.LEHB65
 3674 0180 8C11     		.uleb128 .L231-.LFB1731
 3675 0182 00       		.uleb128 0
 3676 0183 B80F     		.uleb128 .LEHB66-.LFB1731
 3677 0185 04       		.uleb128 .LEHE66-.LEHB66
 3678 0186 00       		.uleb128 0
 3679 0187 00       		.uleb128 0
 3680 0188 C00F     		.uleb128 .LEHB67-.LFB1731
 3681 018a 04       		.uleb128 .LEHE67-.LEHB67
 3682 018b 8811     		.uleb128 .L232-.LFB1731
 3683 018d 00       		.uleb128 0
 3684 018e D00F     		.uleb128 .LEHB68-.LFB1731
 3685 0190 04       		.uleb128 .LEHE68-.LEHB68
 3686 0191 00       		.uleb128 0
 3687 0192 00       		.uleb128 0
 3688 0193 D80F     		.uleb128 .LEHB69-.LFB1731
 3689 0195 04       		.uleb128 .LEHE69-.LEHB69
 3690 0196 8411     		.uleb128 .L233-.LFB1731
 3691 0198 00       		.uleb128 0
 3692 0199 E40F     		.uleb128 .LEHB70-.LFB1731
 3693 019b 18       		.uleb128 .LEHE70-.LEHB70
 3694 019c 00       		.uleb128 0
 3695 019d 00       		.uleb128 0
 3696 019e 8010     		.uleb128 .LEHB71-.LFB1731
 3697 01a0 04       		.uleb128 .LEHE71-.LEHB71
 3698 01a1 CC11     		.uleb128 .L234-.LFB1731
 3699 01a3 00       		.uleb128 0
 3700 01a4 9010     		.uleb128 .LEHB72-.LFB1731
 3701 01a6 04       		.uleb128 .LEHE72-.LEHB72
 3702 01a7 00       		.uleb128 0
 3703 01a8 00       		.uleb128 0
 3704 01a9 9810     		.uleb128 .LEHB73-.LFB1731
 3705 01ab 04       		.uleb128 .LEHE73-.LEHB73
 3706 01ac CC11     		.uleb128 .L234-.LFB1731
 3707 01ae 00       		.uleb128 0
 3708 01af B410     		.uleb128 .LEHB74-.LFB1731
 3709 01b1 8801     		.uleb128 .LEHE74-.LEHB74
 3710 01b3 00       		.uleb128 0
 3711 01b4 00       		.uleb128 0
 3712              	.LLSDACSE1731:
 3713              		.section	".text"
 3714              		.size	_ZN5Theme6ReloadEbs, .-_ZN5Theme6ReloadEbs
 3715              		.align 2
 3716              		.globl _ZN5Theme13ClearFontDataEv
 3717              		.type	_ZN5Theme13ClearFontDataEv, @function
 3718              	_ZN5Theme13ClearFontDataEv:
 3719              	.LFB1737:
 3720              		.loc 1 333 0
 3721              		.cfi_startproc
 3722 15e0 9421FFF0 		stwu 1,-16(1)
 3723              	.LCFI33:
 3724              		.cfi_def_cfa_offset 16
 3725 15e4 7C0802A6 		mflr 0
 3726 15e8 93C10008 		stw 30,8(1)
 3727              		.loc 1 334 0
 3728 15ec 3FC00000 		lis 30,fontSystem@ha
 3729              		.cfi_offset 30, -8
 3730              		.cfi_register 65, 0
 3731              		.loc 1 333 0
 3732 15f0 93E1000C 		stw 31,12(1)
 3733              		.loc 1 334 0
 3734 15f4 83FE0000 		lwz 31,fontSystem@l(30)
 3735              		.cfi_offset 31, -4
 3736              		.loc 1 333 0
 3737 15f8 90010014 		stw 0,20(1)
 3738              		.loc 1 334 0
 3739 15fc 2F9F0000 		cmpwi 7,31,0
 3740 1600 419E0014 		beq- 7,.L283
 3741              		.cfi_offset 65, 4
 3742              		.loc 1 335 0
 3743 1604 7FE3FB78 		mr 3,31
 3744 1608 48000001 		bl _ZN10FreeTypeGXD1Ev
 3745 160c 7FE3FB78 		mr 3,31
 3746 1610 48000001 		bl _ZdlPv
 3747              	.L283:
 3748              		.loc 1 338 0
 3749 1614 3FE00000 		lis 31,.LANCHOR0@ha
 3750              		.loc 1 336 0
 3751 1618 38000000 		li 0,0
 3752              		.loc 1 338 0
 3753 161c 807F0000 		lwz 3,.LANCHOR0@l(31)
 3754              		.loc 1 336 0
 3755 1620 901E0000 		stw 0,fontSystem@l(30)
 3756              		.loc 1 338 0
 3757 1624 2F830000 		cmpwi 7,3,0
 3758 1628 419E0008 		beq- 7,.L284
 3759              		.loc 1 339 0 discriminator 1
 3760 162c 48000001 		bl _ZdaPv
 3761              	.L284:
 3762              		.loc 1 340 0
 3763 1630 3BDF0000 		la 30,.LANCHOR0@l(31)
 3764 1634 38000000 		li 0,0
 3765              		.loc 1 342 0
 3766 1638 807E0004 		lwz 3,4(30)
 3767              		.loc 1 340 0
 3768 163c 901F0000 		stw 0,.LANCHOR0@l(31)
 3769              		.loc 1 342 0
 3770 1640 2F830000 		cmpwi 7,3,0
 3771 1644 419E0008 		beq- 7,.L285
 3772              		.loc 1 343 0 discriminator 1
 3773 1648 48000001 		bl _ZdaPv
 3774              	.L285:
 3775              		.loc 1 344 0
 3776 164c 38000000 		li 0,0
 3777              		.loc 1 345 0
 3778 1650 83E1000C 		lwz 31,12(1)
 3779              		.loc 1 344 0
 3780 1654 901E0004 		stw 0,4(30)
 3781              		.loc 1 345 0
 3782 1658 80010014 		lwz 0,20(1)
 3783 165c 83C10008 		lwz 30,8(1)
 3784 1660 7C0803A6 		mtlr 0
 3785 1664 38210010 		addi 1,1,16
 3786              	.LCFI34:
 3787              		.cfi_def_cfa_offset 0
 3788              		.cfi_restore 31
 3789              		.cfi_restore 30
 3790 1668 4E800020 		blr
 3791              		.cfi_endproc
 3792              	.LFE1737:
 3793              		.size	_ZN5Theme13ClearFontDataEv, .-_ZN5Theme13ClearFontDataEv
 3794              		.section	.text.startup,"ax",@progbits
 3795              		.align 2
 3796              		.type	_GLOBAL__sub_I_fontSystem, @function
 3797              	_GLOBAL__sub_I_fontSystem:
 3798              	.LFB2289:
 3799              		.loc 1 345 0
 3800              		.cfi_startproc
 3801              	.LVL167:
 3802              	.LBB2460:
 3803              	.LBB2461:
 3804              		.file 8 "d:/Projects/SaveGameManager/savegame-manager-gx/trunk/source/Themes/../TextOperations/Fre
 3805              		.loc 8 92 0
 3806 0000 3D200000 		lis 9,.LANCHOR0@ha
 3807 0004 3800FFFF 		li 0,-1
 3808 0008 39290000 		la 9,.LANCHOR0@l(9)
 3809 000c 98090010 		stb 0,16(9)
 3810 0010 98090011 		stb 0,17(9)
 3811 0014 98090012 		stb 0,18(9)
 3812 0018 98090013 		stb 0,19(9)
 3813              	.LBE2461:
 3814              	.LBE2460:
 3815              		.loc 1 345 0
 3816 001c 4E800020 		blr
 3817              		.cfi_endproc
 3818              	.LFE2289:
 3819              		.size	_GLOBAL__sub_I_fontSystem, .-_GLOBAL__sub_I_fontSystem
 3820              		.section	.ctors,"aw",@progbits
 3821              		.align 2
 3822 0000 00000000 		.long	_GLOBAL__sub_I_fontSystem
 3823              		.globl _ZN5Theme12ShowTooltipsE
 3824              		.globl fontSystem
 3825              		.section	.rodata
 3826              		.align 2
 3827              		.set	.LANCHOR1,. + 0
 3828              		.type	_ZL16WIIFONT_HASH_KOR, @object
 3829              		.size	_ZL16WIIFONT_HASH_KOR, 20
 3830              	_ZL16WIIFONT_HASH_KOR:
 3831 0000 B7       		.byte	-73
 3832 0001 15       		.byte	21
 3833 0002 6D       		.byte	109
 3834 0003 F0       		.byte	-16
 3835 0004 F4       		.byte	-12
 3836 0005 AE       		.byte	-82
 3837 0006 07       		.byte	7
 3838 0007 8F       		.byte	-113
 3839 0008 D1       		.byte	-47
 3840 0009 53       		.byte	83
 3841 000a 58       		.byte	88
 3842 000b 3E       		.byte	62
 3843 000c 93       		.byte	-109
 3844 000d 6E       		.byte	110
 3845 000e 07       		.byte	7
 3846 000f C0       		.byte	-64
 3847 0010 98       		.byte	-104
 3848 0011 77       		.byte	119
 3849 0012 49       		.byte	73
 3850 0013 0E       		.byte	14
 3851              		.type	_ZL12WIIFONT_HASH, @object
 3852              		.size	_ZL12WIIFONT_HASH, 20
 3853              	_ZL12WIIFONT_HASH:
 3854 0014 32       		.byte	50
 3855 0015 B3       		.byte	-77
 3856 0016 39       		.byte	57
 3857 0017 CB       		.byte	-53
 3858 0018 BB       		.byte	-69
 3859 0019 50       		.byte	80
 3860 001a 7D       		.byte	125
 3861 001b 50       		.byte	80
 3862 001c 27       		.byte	39
 3863 001d 79       		.byte	121
 3864 001e 25       		.byte	37
 3865 001f 9A       		.byte	-102
 3866 0020 78       		.byte	120
 3867 0021 66       		.byte	102
 3868 0022 99       		.byte	-103
 3869 0023 5D       		.byte	93
 3870 0024 03       		.byte	3
 3871 0025 0B       		.byte	11
 3872 0026 1D       		.byte	29
 3873 0027 88       		.byte	-120
 3874              		.section	.rodata.str1.4,"aMS",@progbits,1
 3875              		.align 2
 3876              	.LC1:
 3877 0000 2F736861 		.string	"/shared1/%.8s.app"
 3877      72656431 
 3877      2F252E38 
 3877      732E6170 
 3877      7000
 3878 0012 0000     		.zero	2
 3879              	.LC2:
 3880 0014 4C6F6164 		.string	"Loaded Wii System Font: %s\n"
 3880      65642057 
 3880      69692053 
 3880      79737465 
 3880      6D20466F 
 3881              	.LC0:
 3882 0030 2F736861 		.string	"/shared1/content.map"
 3882      72656431 
 3882      2F636F6E 
 3882      74656E74 
 3882      2E6D6170 
 3883 0045 000000   		.zero	3
 3884              	.LC3:
 3885 0048 726200   		.string	"rb"
 3886 004b 00       		.zero	1
 3887              	.LC4:
 3888 004c 666F6E74 		.string	"font.ttf"
 3888      2E747466 
 3888      00
 3889 0055 000000   		.zero	3
 3890              	.LC5:
 3891 0058 31202D20 		.string	"1 - Enable tooltips: 0 for off and 1 for on"
 3891      456E6162 
 3891      6C652074 
 3891      6F6F6C74 
 3891      6970733A 
 3892              	.LC6:
 3893 0084 496D6167 		.string	"Image-Folder:"
 3893      652D466F 
 3893      6C646572 
 3893      3A00
 3894 0092 0000     		.zero	2
 3895              	.LC7:
 3896 0094 2F257300 		.string	"/%s"
 3897              	.LC8:
 3898 0098 2F666F6E 		.string	"/font.ttf"
 3898      742E7474 
 3898      6600
 3899 00a2 0000     		.zero	2
 3900              	.LC9:
 3901 00a4 6D656E75 		.string	"menu_wbackground.png"
 3901      5F776261 
 3901      636B6772 
 3901      6F756E64 
 3901      2E706E67 
 3902 00b9 000000   		.zero	3
 3903              	.LC10:
 3904 00bc 6D656E75 		.string	"menu_background.png"
 3904      5F626163 
 3904      6B67726F 
 3904      756E642E 
 3904      706E6700 
 3905              	.LC11:
 3906 00d0 706C6179 		.string	"player1_point.png"
 3906      6572315F 
 3906      706F696E 
 3906      742E706E 
 3906      6700
 3907 00e2 0000     		.zero	2
 3908              	.LC12:
 3909 00e4 706C6179 		.string	"player2_point.png"
 3909      6572325F 
 3909      706F696E 
 3909      742E706E 
 3909      6700
 3910 00f6 0000     		.zero	2
 3911              	.LC13:
 3912 00f8 706C6179 		.string	"player3_point.png"
 3912      6572335F 
 3912      706F696E 
 3912      742E706E 
 3912      6700
 3913 010a 0000     		.zero	2
 3914              	.LC14:
 3915 010c 706C6179 		.string	"player4_point.png"
 3915      6572345F 
 3915      706F696E 
 3915      742E706E 
 3915      6700
 3916              		.section	.sbss,"aw",@nobits
 3917              		.align 2
 3918              		.type	fontSystem, @object
 3919              		.size	fontSystem, 4
 3920              	fontSystem:
 3921 0000 00000000 		.zero	4
 3922              		.section	.sdata,"aw",@progbits
 3923              		.type	_ZN5Theme12ShowTooltipsE, @object
 3924              		.size	_ZN5Theme12ShowTooltipsE, 1
 3925              	_ZN5Theme12ShowTooltipsE:
 3926 0000 01       		.byte	1
 3927              		.section	".bss"
 3928              		.align 2
 3929              		.set	.LANCHOR0,. + 0
 3930              		.type	_ZL10customFont, @object
 3931              		.size	_ZL10customFont, 4
 3932              	_ZL10customFont:
 3933 0000 00000000 		.zero	4
 3934              		.type	_ZL10systemFont, @object
 3935              		.size	_ZL10systemFont, 4
 3936              	_ZL10systemFont:
 3937 0004 00000000 		.zero	4
 3938              		.type	_ZL14systemFontSize, @object
 3939              		.size	_ZL14systemFontSize, 4
 3940              	_ZL14systemFontSize:
 3941 0008 00000000 		.zero	4
 3942              		.type	_ZL14customFontSize, @object
 3943              		.size	_ZL14customFontSize, 4
 3944              	_ZL14customFontSize:
 3945 000c 00000000 		.zero	4
 3946              		.type	_ZL9ftgxWhite, @object
 3947              		.size	_ZL9ftgxWhite, 4
 3948              	_ZL9ftgxWhite:
 3949 0010 00000000 		.zero	4
 3950              		.section	".text"
 3951              	.Letext0:
 3952              		.file 9 "d:\\devkitpro\\devkitppc\\bin\\../lib/gcc/powerpc-eabi/4.6.3/../../../../powerpc-eabi/inc
 3953              		.file 10 "d:/devkitPro/libogc/include/gctypes.h"
 3954              		.file 11 "d:/devkitPro/libogc/include/ogc/lwp.h"
 3955              		.file 12 "d:/devkitPro/libogc/include/ogc/gx.h"
 3956              		.file 13 "d:\\devkitpro\\devkitppc\\bin\\../lib/gcc/powerpc-eabi/4.6.3/../../../../powerpc-eabi/in
 3957              		.file 14 "d:\\devkitpro\\devkitppc\\bin\\../lib/gcc/powerpc-eabi/4.6.3/../../../../powerpc-eabi/in
 3958              		.file 15 "d:\\devkitpro\\devkitppc\\bin\\../lib/gcc/powerpc-eabi/4.6.3/include/stddef.h"
 3959              		.file 16 "d:\\devkitpro\\devkitppc\\bin\\../lib/gcc/powerpc-eabi/4.6.3/../../../../powerpc-eabi/in
 3960              		.file 17 "d:\\devkitpro\\devkitppc\\bin\\../lib/gcc/powerpc-eabi/4.6.3/../../../../powerpc-eabi/in
 3961              		.file 18 "d:\\devkitpro\\devkitppc\\bin\\../lib/gcc/powerpc-eabi/4.6.3/../../../../powerpc-eabi/in
 3962              		.file 19 "<built-in>"
 3963              		.file 20 "d:\\devkitpro\\devkitppc\\bin\\../lib/gcc/powerpc-eabi/4.6.3/../../../../powerpc-eabi/in
 3964              		.file 21 "d:\\devkitpro\\devkitppc\\bin\\../lib/gcc/powerpc-eabi/4.6.3/../../../../powerpc-eabi/in
 3965              		.file 22 "d:\\devkitpro\\devkitppc\\bin\\../lib/gcc/powerpc-eabi/4.6.3/../../../../powerpc-eabi/in
 3966              		.file 23 "d:\\devkitpro\\devkitppc\\bin\\../lib/gcc/powerpc-eabi/4.6.3/../../../../powerpc-eabi/in
 3967              		.file 24 "d:\\devkitpro\\devkitppc\\bin\\../lib/gcc/powerpc-eabi/4.6.3/../../../../powerpc-eabi/in
 3968              		.file 25 "d:\\devkitpro\\devkitppc\\bin\\../lib/gcc/powerpc-eabi/4.6.3/../../../../powerpc-eabi/in
 3969              		.file 26 "d:\\devkitpro\\devkitppc\\bin\\../lib/gcc/powerpc-eabi/4.6.3/../../../../powerpc-eabi/in
 3970              		.file 27 "d:\\devkitpro\\devkitppc\\bin\\../lib/gcc/powerpc-eabi/4.6.3/../../../../powerpc-eabi/in
 3971              		.file 28 "d:\\devkitpro\\devkitppc\\bin\\../lib/gcc/powerpc-eabi/4.6.3/../../../../powerpc-eabi/in
 3972              		.file 29 "d:\\devkitpro\\devkitppc\\bin\\../lib/gcc/powerpc-eabi/4.6.3/../../../../powerpc-eabi/in
 3973              		.file 30 "d:\\devkitpro\\devkitppc\\bin\\../lib/gcc/powerpc-eabi/4.6.3/../../../../powerpc-eabi/in
 3974              		.file 31 "d:\\devkitpro\\devkitppc\\bin\\../lib/gcc/powerpc-eabi/4.6.3/../../../../powerpc-eabi/in
 3975              		.file 32 "d:\\devkitpro\\devkitppc\\bin\\../lib/gcc/powerpc-eabi/4.6.3/../../../../powerpc-eabi/in
 3976              		.file 33 "d:\\devkitpro\\devkitppc\\bin\\../lib/gcc/powerpc-eabi/4.6.3/../../../../powerpc-eabi/in
 3977              		.file 34 "d:\\devkitpro\\devkitppc\\bin\\../lib/gcc/powerpc-eabi/4.6.3/../../../../powerpc-eabi/in
 3978              		.file 35 "d:\\devkitpro\\devkitppc\\bin\\../lib/gcc/powerpc-eabi/4.6.3/../../../../powerpc-eabi/in
 3979              		.file 36 "d:\\devkitpro\\devkitppc\\bin\\../lib/gcc/powerpc-eabi/4.6.3/../../../../powerpc-eabi/in
 3980              		.file 37 "d:\\devkitpro\\devkitppc\\bin\\../lib/gcc/powerpc-eabi/4.6.3/../../../../powerpc-eabi/in
 3981              		.file 38 "d:\\devkitpro\\devkitppc\\bin\\../lib/gcc/powerpc-eabi/4.6.3/../../../../powerpc-eabi/in
 3982              		.file 39 "d:\\devkitpro\\devkitppc\\bin\\../lib/gcc/powerpc-eabi/4.6.3/../../../../powerpc-eabi/in
 3983              		.file 40 "d:\\devkitpro\\devkitppc\\bin\\../lib/gcc/powerpc-eabi/4.6.3/../../../../powerpc-eabi/in
 3984              		.file 41 "d:/Projects/SaveGameManager/savegame-manager-gx/trunk/source/GUI/../Settings/../FileOper
 3985              		.file 42 "d:/Projects/SaveGameManager/savegame-manager-gx/trunk/source/GUI/../Settings/../Controls
 3986              		.file 43 "d:/Projects/SaveGameManager/savegame-manager-gx/trunk/source/GUI/../Settings/CSettings.h
 3987              		.file 44 "d:/Projects/SaveGameManager/savegame-manager-gx/trunk/source/GUI/../Tools/Rect.h"
 3988              		.file 45 "d:/devkitPro/libogc/include/ogc/conf.h"
 3989              		.file 46 "d:/Projects/SaveGameManager/savegame-manager-gx/trunk/source/GUI/gui_element.h"
 3990              		.file 47 "d:/Projects/SaveGameManager/savegame-manager-gx/trunk/source/GUI/../sigslot.h"
 3991              		.file 48 "d:\\devkitpro\\devkitppc\\bin\\../lib/gcc/powerpc-eabi/4.6.3/../../../../powerpc-eabi/in
 3992              		.file 49 "d:/Projects/SaveGameManager/savegame-manager-gx/trunk/source/Themes/CTheme.h"
 3993              		.file 50 "d:/devkitPro/libogc/include/freetype/config/ftconfig.h"
 3994              		.file 51 "d:/devkitPro/libogc/include/freetype/ftsystem.h"
 3995              		.file 52 "d:/devkitPro/libogc/include/freetype/ftimage.h"
 3996              		.file 53 "d:/devkitPro/libogc/include/freetype/fttypes.h"
 3997              		.file 54 "d:/devkitPro/libogc/include/freetype/freetype.h"
 3998              		.file 55 "d:\\devkitpro\\devkitppc\\bin\\../lib/gcc/powerpc-eabi/4.6.3/../../../../powerpc-eabi/in
 3999              		.file 56 "d:\\devkitpro\\devkitppc\\bin\\../lib/gcc/powerpc-eabi/4.6.3/../../../../powerpc-eabi/in
 4000              		.file 57 "d:\\devkitpro\\devkitppc\\bin\\../lib/gcc/powerpc-eabi/4.6.3/../../../../powerpc-eabi/in
 4001              		.file 58 "d:/Projects/SaveGameManager/savegame-manager-gx/trunk/source/Themes/../Menu/../Files/fil
 4002              		.file 59 "d:\\devkitpro\\devkitppc\\bin\\../lib/gcc/powerpc-eabi/4.6.3/../../../../powerpc-eabi/in
 4003              		.file 60 "d:\\devkitpro\\devkitppc\\bin\\../lib/gcc/powerpc-eabi/4.6.3/../../../../powerpc-eabi/in
 4004              		.file 61 "d:/Projects/SaveGameManager/savegame-manager-gx/trunk/source/Themes/../Menu/../Files/Bro
 4005              		.file 62 "d:/Projects/SaveGameManager/savegame-manager-gx/trunk/source/Themes/../SoundOperations/.
 4006              		.file 63 "d:\\devkitpro\\devkitppc\\bin\\../lib/gcc/powerpc-eabi/4.6.3/../../../../powerpc-eabi/in
 4007              		.file 64 "d:/Projects/SaveGameManager/savegame-manager-gx/trunk/source/Themes/../Menu/../Prompts/.