   1              		.file	"CustomPathsSM.cpp"
   2              		.section	".text"
   3              	.Ltext0:
   4              		.section	.text._ZN7sigslot15single_threaded4lockEv,"axG",@progbits,_ZN7sigslot15single_threaded4lo
   5              		.align 2
   6              		.weak	_ZN7sigslot15single_threaded4lockEv
   7              		.type	_ZN7sigslot15single_threaded4lockEv, @function
   8              	_ZN7sigslot15single_threaded4lockEv:
   9              	.LFB1151:
  10              		.file 1 "d:/Projects/SaveGameManager/savegame-manager-gx/trunk/source/Settings/menus/../../GUI/../
  11              		.loc 1 109 0
  12              		.cfi_startproc
  13              	.LVL0:
  14              		.loc 1 112 0
  15 0000 4E800020 		blr
  16              		.cfi_endproc
  17              	.LFE1151:
  18              		.size	_ZN7sigslot15single_threaded4lockEv, .-_ZN7sigslot15single_threaded4lockEv
  19              		.section	.text._ZN7sigslot15single_threaded6unlockEv,"axG",@progbits,_ZN7sigslot15single_threaded6
  20              		.align 2
  21              		.weak	_ZN7sigslot15single_threaded6unlockEv
  22              		.type	_ZN7sigslot15single_threaded6unlockEv, @function
  23              	_ZN7sigslot15single_threaded6unlockEv:
  24              	.LFB1152:
  25              		.loc 1 114 0
  26              		.cfi_startproc
  27              	.LVL1:
  28              		.loc 1 117 0
  29 0000 4E800020 		blr
  30              		.cfi_endproc
  31              	.LFE1152:
  32              		.size	_ZN7sigslot15single_threaded6unlockEv, .-_ZN7sigslot15single_threaded6unlockEv
  33              		.section	.text._ZN10GuiElement9SetParentEPS_,"axG",@progbits,_ZN10GuiElement9SetParentEPS_,comdat
  34              		.align 2
  35              		.weak	_ZN10GuiElement9SetParentEPS_
  36              		.type	_ZN10GuiElement9SetParentEPS_, @function
  37              	_ZN10GuiElement9SetParentEPS_:
  38              	.LFB1384:
  39              		.file 2 "d:/Projects/SaveGameManager/savegame-manager-gx/trunk/source/Settings/menus/../../GUI/gui
  40              		.loc 2 92 0
  41              		.cfi_startproc
  42              	.LVL2:
  43              		.loc 2 92 0
  44 0000 90830060 		stw 4,96(3)
  45 0004 4E800020 		blr
  46              		.cfi_endproc
  47              	.LFE1384:
  48              		.size	_ZN10GuiElement9SetParentEPS_, .-_ZN10GuiElement9SetParentEPS_
  49              		.section	.text._ZN10GuiElement9GetParentEv,"axG",@progbits,_ZN10GuiElement9GetParentEv,comdat
  50              		.align 2
  51              		.weak	_ZN10GuiElement9GetParentEv
  52              		.type	_ZN10GuiElement9GetParentEv, @function
  53              	_ZN10GuiElement9GetParentEv:
  54              	.LFB1385:
  55              		.loc 2 95 0
  56              		.cfi_startproc
  57              	.LVL3:
  58              		.loc 2 95 0
  59 0000 80630060 		lwz 3,96(3)
  60              	.LVL4:
  61 0004 4E800020 		blr
  62              		.cfi_endproc
  63              	.LFE1385:
  64              		.size	_ZN10GuiElement9GetParentEv, .-_ZN10GuiElement9GetParentEv
  65              		.section	.text._ZN10GuiElement12GetZPositionEv,"axG",@progbits,_ZN10GuiElement12GetZPositionEv,com
  66              		.align 2
  67              		.weak	_ZN10GuiElement12GetZPositionEv
  68              		.type	_ZN10GuiElement12GetZPositionEv, @function
  69              	_ZN10GuiElement12GetZPositionEv:
  70              	.LFB1386:
  71              		.loc 2 106 0
  72              		.cfi_startproc
  73              	.LVL5:
  74 0000 7C0802A6 		mflr 0
  75 0004 9421FFF0 		stwu 1,-16(1)
  76              	.LCFI0:
  77              		.cfi_def_cfa_offset 16
  78              		.cfi_register 65, 0
  79 0008 93E1000C 		stw 31,12(1)
  80 000c 7C7F1B78 		mr 31,3
  81              		.cfi_offset 31, -4
  82 0010 90010014 		stw 0,20(1)
  83              	.LBB2307:
  84              		.loc 2 110 0
  85 0014 81630060 		lwz 11,96(3)
  86              		.loc 2 108 0
  87 0018 38600000 		li 3,0
  88              	.LVL6:
  89              		.loc 2 110 0
  90 001c 2F8B0000 		cmpwi 7,11,0
  91 0020 419E0018 		beq- 7,.L6
  92              		.cfi_offset 65, 4
  93              		.loc 2 111 0
  94 0024 812B0000 		lwz 9,0(11)
  95 0028 7D635B78 		mr 3,11
  96 002c 80090018 		lwz 0,24(9)
  97 0030 7C0903A6 		mtctr 0
  98 0034 4E800421 		bctrl
  99              	.LVL7:
 100              	.L6:
 101              		.loc 2 113 0
 102 0038 801F0034 		lwz 0,52(31)
 103              	.LBE2307:
 104              		.loc 2 114 0
 105 003c 83E1000C 		lwz 31,12(1)
 106              	.LVL8:
 107 0040 7C630214 		add 3,3,0
 108              	.LVL9:
 109 0044 80010014 		lwz 0,20(1)
 110 0048 38210010 		addi 1,1,16
 111              	.LCFI1:
 112              		.cfi_def_cfa_offset 0
 113              		.cfi_restore 31
 114 004c 7C0803A6 		mtlr 0
 115 0050 4E800020 		blr
 116              		.cfi_endproc
 117              	.LFE1386:
 118              		.size	_ZN10GuiElement12GetZPositionEv, .-_ZN10GuiElement12GetZPositionEv
 119              		.section	.text._ZN10GuiElement10GetLeftPosEv,"axG",@progbits,_ZN10GuiElement10GetLeftPosEv,comdat
 120              		.align 2
 121              		.weak	_ZN10GuiElement10GetLeftPosEv
 122              		.type	_ZN10GuiElement10GetLeftPosEv, @function
 123              	_ZN10GuiElement10GetLeftPosEv:
 124              	.LFB1387:
 125              		.loc 2 116 0
 126              		.cfi_startproc
 127              	.LVL10:
 128              		.loc 2 116 0
 129 0000 8063002C 		lwz 3,44(3)
 130              	.LVL11:
 131 0004 4E800020 		blr
 132              		.cfi_endproc
 133              	.LFE1387:
 134              		.size	_ZN10GuiElement10GetLeftPosEv, .-_ZN10GuiElement10GetLeftPosEv
 135              		.section	.text._ZN10GuiElement9GetTopPosEv,"axG",@progbits,_ZN10GuiElement9GetTopPosEv,comdat
 136              		.align 2
 137              		.weak	_ZN10GuiElement9GetTopPosEv
 138              		.type	_ZN10GuiElement9GetTopPosEv, @function
 139              	_ZN10GuiElement9GetTopPosEv:
 140              	.LFB1388:
 141              		.loc 2 118 0
 142              		.cfi_startproc
 143              	.LVL12:
 144              		.loc 2 118 0
 145 0000 80630030 		lwz 3,48(3)
 146              	.LVL13:
 147 0004 4E800020 		blr
 148              		.cfi_endproc
 149              	.LFE1388:
 150              		.size	_ZN10GuiElement9GetTopPosEv, .-_ZN10GuiElement9GetTopPosEv
 151              		.section	.text._ZN10GuiElement8GetWidthEv,"axG",@progbits,_ZN10GuiElement8GetWidthEv,comdat
 152              		.align 2
 153              		.weak	_ZN10GuiElement8GetWidthEv
 154              		.type	_ZN10GuiElement8GetWidthEv, @function
 155              	_ZN10GuiElement8GetWidthEv:
 156              	.LFB1389:
 157              		.loc 2 121 0
 158              		.cfi_startproc
 159              	.LVL14:
 160              		.loc 2 121 0
 161 0000 80630024 		lwz 3,36(3)
 162              	.LVL15:
 163 0004 4E800020 		blr
 164              		.cfi_endproc
 165              	.LFE1389:
 166              		.size	_ZN10GuiElement8GetWidthEv, .-_ZN10GuiElement8GetWidthEv
 167              		.section	.text._ZN10GuiElement9GetHeightEv,"axG",@progbits,_ZN10GuiElement9GetHeightEv,comdat
 168              		.align 2
 169              		.weak	_ZN10GuiElement9GetHeightEv
 170              		.type	_ZN10GuiElement9GetHeightEv, @function
 171              	_ZN10GuiElement9GetHeightEv:
 172              	.LFB1390:
 173              		.loc 2 124 0
 174              		.cfi_startproc
 175              	.LVL16:
 176              		.loc 2 124 0
 177 0000 80630028 		lwz 3,40(3)
 178              	.LVL17:
 179 0004 4E800020 		blr
 180              		.cfi_endproc
 181              	.LFE1390:
 182              		.size	_ZN10GuiElement9GetHeightEv, .-_ZN10GuiElement9GetHeightEv
 183              		.section	.text._ZN10GuiElement7SetSizeEii,"axG",@progbits,_ZN10GuiElement7SetSizeEii,comdat
 184              		.align 2
 185              		.weak	_ZN10GuiElement7SetSizeEii
 186              		.type	_ZN10GuiElement7SetSizeEii, @function
 187              	_ZN10GuiElement7SetSizeEii:
 188              	.LFB1391:
 189              		.loc 2 128 0
 190              		.cfi_startproc
 191              	.LVL18:
 192              		.loc 2 130 0
 193 0000 90830024 		stw 4,36(3)
 194              		.loc 2 132 0
 195              		.loc 2 131 0
 196 0004 90A30028 		stw 5,40(3)
 197              		.loc 2 132 0
 198 0008 4E800020 		blr
 199              		.cfi_endproc
 200              	.LFE1391:
 201              		.size	_ZN10GuiElement7SetSizeEii, .-_ZN10GuiElement7SetSizeEii
 202              		.section	.text._ZN10GuiElement9IsVisibleEv,"axG",@progbits,_ZN10GuiElement9IsVisibleEv,comdat
 203              		.align 2
 204              		.weak	_ZN10GuiElement9IsVisibleEv
 205              		.type	_ZN10GuiElement9IsVisibleEv, @function
 206              	_ZN10GuiElement9IsVisibleEv:
 207              	.LFB1393:
 208              		.loc 2 142 0
 209              		.cfi_startproc
 210              	.LVL19:
 211              		.loc 2 142 0
 212 0000 8863001D 		lbz 3,29(3)
 213              	.LVL20:
 214 0004 4E800020 		blr
 215              		.cfi_endproc
 216              	.LFE1393:
 217              		.size	_ZN10GuiElement9IsVisibleEv, .-_ZN10GuiElement9IsVisibleEv
 218              		.section	.text._ZN10GuiElement12IsSelectableEv,"axG",@progbits,_ZN10GuiElement12IsSelectableEv,com
 219              		.align 2
 220              		.weak	_ZN10GuiElement12IsSelectableEv
 221              		.type	_ZN10GuiElement12IsSelectableEv, @function
 222              	_ZN10GuiElement12IsSelectableEv:
 223              	.LFB1394:
 224              		.loc 2 145 0
 225              		.cfi_startproc
 226              	.LVL21:
 227              		.loc 2 149 0
 228 0000 80030048 		lwz 0,72(3)
 229 0004 39200000 		li 9,0
 230 0008 2F800004 		cmpwi 7,0,4
 231 000c 419E0010 		beq- 7,.L16
 232              		.loc 2 149 0 is_stmt 0 discriminator 1
 233 0010 2F800002 		cmpwi 7,0,2
 234 0014 419E0008 		beq- 7,.L16
 235              		.loc 2 149 0 discriminator 3
 236 0018 8923001E 		lbz 9,30(3)
 237              	.L16:
 238              		.loc 2 150 0 is_stmt 1 discriminator 5
 239 001c 7D234B78 		mr 3,9
 240              	.LVL22:
 241 0020 4E800020 		blr
 242              		.cfi_endproc
 243              	.LFE1394:
 244              		.size	_ZN10GuiElement12IsSelectableEv, .-_ZN10GuiElement12IsSelectableEv
 245              		.section	.text._ZN10GuiElement11IsClickableEv,"axG",@progbits,_ZN10GuiElement11IsClickableEv,comda
 246              		.align 2
 247              		.weak	_ZN10GuiElement11IsClickableEv
 248              		.type	_ZN10GuiElement11IsClickableEv, @function
 249              	_ZN10GuiElement11IsClickableEv:
 250              	.LFB1395:
 251              		.loc 2 153 0
 252              		.cfi_startproc
 253              	.LVL23:
 254              		.loc 2 158 0
 255 0000 80030048 		lwz 0,72(3)
 256 0004 39200000 		li 9,0
 257 0008 2F800004 		cmpwi 7,0,4
 258 000c 419E0018 		beq- 7,.L20
 259              		.loc 2 158 0 is_stmt 0 discriminator 1
 260 0010 2F800002 		cmpwi 7,0,2
 261 0014 419E0010 		beq- 7,.L20
 262              		.loc 2 158 0 discriminator 3
 263 0018 2F800003 		cmpwi 7,0,3
 264 001c 419E0008 		beq- 7,.L20
 265              		.loc 2 158 0 discriminator 4
 266 0020 8923001F 		lbz 9,31(3)
 267              	.L20:
 268              		.loc 2 159 0 is_stmt 1 discriminator 6
 269 0024 7D234B78 		mr 3,9
 270              	.LVL24:
 271 0028 4E800020 		blr
 272              		.cfi_endproc
 273              	.LFE1395:
 274              		.size	_ZN10GuiElement11IsClickableEv, .-_ZN10GuiElement11IsClickableEv
 275              		.section	.text._ZN10GuiElement10IsHoldableEv,"axG",@progbits,_ZN10GuiElement10IsHoldableEv,comdat
 276              		.align 2
 277              		.weak	_ZN10GuiElement10IsHoldableEv
 278              		.type	_ZN10GuiElement10IsHoldableEv, @function
 279              	_ZN10GuiElement10IsHoldableEv:
 280              	.LFB1396:
 281              		.loc 2 162 0
 282              		.cfi_startproc
 283              	.LVL25:
 284              		.loc 2 162 0
 285 0000 81230048 		lwz 9,72(3)
 286 0004 38000000 		li 0,0
 287 0008 2F890004 		cmpwi 7,9,4
 288 000c 419E0008 		beq- 7,.L25
 289              		.loc 2 162 0 is_stmt 0 discriminator 1
 290 0010 88030020 		lbz 0,32(3)
 291              	.L25:
 292              		.loc 2 162 0 discriminator 4
 293 0014 7C030378 		mr 3,0
 294              	.LVL26:
 295 0018 4E800020 		blr
 296              		.cfi_endproc
 297              	.LFE1396:
 298              		.size	_ZN10GuiElement10IsHoldableEv, .-_ZN10GuiElement10IsHoldableEv
 299              		.section	.text._ZN10GuiElement13SetSelectableEb,"axG",@progbits,_ZN10GuiElement13SetSelectableEb,c
 300              		.align 2
 301              		.weak	_ZN10GuiElement13SetSelectableEb
 302              		.type	_ZN10GuiElement13SetSelectableEb, @function
 303              	_ZN10GuiElement13SetSelectableEb:
 304              	.LFB1397:
 305              		.loc 2 165 0 is_stmt 1
 306              		.cfi_startproc
 307              	.LVL27:
 308              		.loc 2 165 0
 309 0000 9883001E 		stb 4,30(3)
 310 0004 4E800020 		blr
 311              		.cfi_endproc
 312              	.LFE1397:
 313              		.size	_ZN10GuiElement13SetSelectableEb, .-_ZN10GuiElement13SetSelectableEb
 314              		.section	.text._ZN10GuiElement12SetClickableEb,"axG",@progbits,_ZN10GuiElement12SetClickableEb,com
 315              		.align 2
 316              		.weak	_ZN10GuiElement12SetClickableEb
 317              		.type	_ZN10GuiElement12SetClickableEb, @function
 318              	_ZN10GuiElement12SetClickableEb:
 319              	.LFB1398:
 320              		.loc 2 168 0
 321              		.cfi_startproc
 322              	.LVL28:
 323              		.loc 2 168 0
 324 0000 9883001F 		stb 4,31(3)
 325 0004 4E800020 		blr
 326              		.cfi_endproc
 327              	.LFE1398:
 328              		.size	_ZN10GuiElement12SetClickableEb, .-_ZN10GuiElement12SetClickableEb
 329              		.section	.text._ZN10GuiElement11SetHoldableEb,"axG",@progbits,_ZN10GuiElement11SetHoldableEb,comda
 330              		.align 2
 331              		.weak	_ZN10GuiElement11SetHoldableEb
 332              		.type	_ZN10GuiElement11SetHoldableEb, @function
 333              	_ZN10GuiElement11SetHoldableEb:
 334              	.LFB1399:
 335              		.loc 2 171 0
 336              		.cfi_startproc
 337              	.LVL29:
 338              		.loc 2 171 0
 339 0000 98830020 		stb 4,32(3)
 340 0004 4E800020 		blr
 341              		.cfi_endproc
 342              	.LFE1399:
 343              		.size	_ZN10GuiElement11SetHoldableEb, .-_ZN10GuiElement11SetHoldableEb
 344              		.section	.text._ZN10GuiElement8GetStateEv,"axG",@progbits,_ZN10GuiElement8GetStateEv,comdat
 345              		.align 2
 346              		.weak	_ZN10GuiElement8GetStateEv
 347              		.type	_ZN10GuiElement8GetStateEv, @function
 348              	_ZN10GuiElement8GetStateEv:
 349              	.LFB1400:
 350              		.loc 2 178 0
 351              		.cfi_startproc
 352              	.LVL30:
 353              		.loc 2 178 0
 354 0000 80630048 		lwz 3,72(3)
 355              	.LVL31:
 356 0004 4E800020 		blr
 357              		.cfi_endproc
 358              	.LFE1400:
 359              		.size	_ZN10GuiElement8GetStateEv, .-_ZN10GuiElement8GetStateEv
 360              		.section	.text._ZN10GuiElement12GetStateChanEv,"axG",@progbits,_ZN10GuiElement12GetStateChanEv,com
 361              		.align 2
 362              		.weak	_ZN10GuiElement12GetStateChanEv
 363              		.type	_ZN10GuiElement12GetStateChanEv, @function
 364              	_ZN10GuiElement12GetStateChanEv:
 365              	.LFB1401:
 366              		.loc 2 181 0
 367              		.cfi_startproc
 368              	.LVL32:
 369              		.loc 2 181 0
 370 0000 8063004C 		lwz 3,76(3)
 371              	.LVL33:
 372 0004 4E800020 		blr
 373              		.cfi_endproc
 374              	.LFE1401:
 375              		.size	_ZN10GuiElement12GetStateChanEv, .-_ZN10GuiElement12GetStateChanEv
 376              		.section	.text._ZN10GuiElement8SetAlphaEi,"axG",@progbits,_ZN10GuiElement8SetAlphaEi,comdat
 377              		.align 2
 378              		.weak	_ZN10GuiElement8SetAlphaEi
 379              		.type	_ZN10GuiElement8SetAlphaEi, @function
 380              	_ZN10GuiElement8SetAlphaEi:
 381              	.LFB1403:
 382              		.loc 2 190 0
 383              		.cfi_startproc
 384              	.LVL34:
 385              		.loc 2 190 0
 386 0000 90830038 		stw 4,56(3)
 387 0004 4E800020 		blr
 388              		.cfi_endproc
 389              	.LFE1403:
 390              		.size	_ZN10GuiElement8SetAlphaEi, .-_ZN10GuiElement8SetAlphaEi
 391              		.section	.text._ZN10GuiElement8GetAlphaEv,"axG",@progbits,_ZN10GuiElement8GetAlphaEv,comdat
 392              		.align 2
 393              		.weak	_ZN10GuiElement8GetAlphaEv
 394              		.type	_ZN10GuiElement8GetAlphaEv, @function
 395              	_ZN10GuiElement8GetAlphaEv:
 396              	.LFB1404:
 397              		.loc 2 194 0
 398              		.cfi_startproc
 399              	.LVL35:
 400 0000 7C0802A6 		mflr 0
 401 0004 9421FFD8 		stwu 1,-40(1)
 402              	.LCFI2:
 403              		.cfi_def_cfa_offset 40
 404              		.cfi_register 65, 0
 405 0008 93E10024 		stw 31,36(1)
 406 000c 9001002C 		stw 0,44(1)
 407              	.LBB2308:
 408              		.loc 2 198 0
 409 0010 83E3006C 		lwz 31,108(3)
 410              		.cfi_offset 65, 4
 411              		.cfi_offset 31, -4
 412 0014 2F9F0000 		cmpwi 7,31,0
 413 0018 419C0094 		blt- 7,.L36
 414              	.L34:
 415              	.LVL36:
 416              		.loc 2 203 0
 417 001c 80630060 		lwz 3,96(3)
 418              	.LVL37:
 419 0020 2F830000 		cmpwi 7,3,0
 420 0024 419E0070 		beq- 7,.L35
 421              		.loc 2 204 0
 422 0028 81230000 		lwz 9,0(3)
 423 002c 6FFF8000 		xoris 31,31,0x8000
 424              	.LVL38:
 425 0030 80090064 		lwz 0,100(9)
 426 0034 7C0903A6 		mtctr 0
 427 0038 4E800421 		bctrl
 428 003c 3C004330 		lis 0,0x4330
 429 0040 6C638000 		xoris 3,3,0x8000
 430 0044 90010010 		stw 0,16(1)
 431 0048 90610014 		stw 3,20(1)
 432 004c 3D200000 		lis 9,.LC1@ha
 433 0050 C0090000 		lfs 0,.LC1@l(9)
 434 0054 3D200000 		lis 9,.LC2@ha
 435 0058 C9A10010 		lfd 13,16(1)
 436 005c C1890004 		lfs 12,.LC2@l(9)
 437 0060 39210018 		addi 9,1,24
 438 0064 FDAD0028 		fsub 13,13,0
 439 0068 93E1000C 		stw 31,12(1)
 440 006c 90010008 		stw 0,8(1)
 441 0070 FDA06818 		frsp 13,13
 442 0074 EDAD6024 		fdivs 13,13,12
 443 0078 C9810008 		lfd 12,8(1)
 444 007c FC0C0028 		fsub 0,12,0
 445 0080 FC000018 		frsp 0,0
 446 0084 EC000372 		fmuls 0,0,13
 447 0088 FC00001E 		fctiwz 0,0
 448 008c 7C004FAE 		stfiwx 0,0,9
 449 0090 83E10018 		lwz 31,24(1)
 450              	.LVL39:
 451              	.L35:
 452              	.LBE2308:
 453              		.loc 2 207 0
 454 0094 8001002C 		lwz 0,44(1)
 455 0098 7FE3FB78 		mr 3,31
 456 009c 83E10024 		lwz 31,36(1)
 457              	.LVL40:
 458 00a0 7C0803A6 		mtlr 0
 459 00a4 38210028 		addi 1,1,40
 460              		.cfi_remember_state
 461              	.LCFI3:
 462              		.cfi_def_cfa_offset 0
 463              		.cfi_restore 31
 464 00a8 4E800020 		blr
 465              	.LVL41:
 466              	.L36:
 467              	.LCFI4:
 468              		.cfi_restore_state
 469              	.LBB2309:
 470              		.loc 2 201 0
 471 00ac 83E30038 		lwz 31,56(3)
 472              	.LVL42:
 473 00b0 4BFFFF6C 		b .L34
 474              	.LBE2309:
 475              		.cfi_endproc
 476              	.LFE1404:
 477              		.size	_ZN10GuiElement8GetAlphaEv, .-_ZN10GuiElement8GetAlphaEv
 478              		.section	.text._ZN10GuiElement8SetScaleEf,"axG",@progbits,_ZN10GuiElement8SetScaleEf,comdat
 479              		.align 2
 480              		.weak	_ZN10GuiElement8SetScaleEf
 481              		.type	_ZN10GuiElement8SetScaleEf, @function
 482              	_ZN10GuiElement8SetScaleEf:
 483              	.LFB1405:
 484              		.loc 2 210 0
 485              		.cfi_startproc
 486              	.LVL43:
 487              		.loc 2 212 0
 488 0000 D023003C 		stfs 1,60(3)
 489              		.loc 2 214 0
 490              		.loc 2 213 0
 491 0004 D0230040 		stfs 1,64(3)
 492              		.loc 2 214 0
 493 0008 4E800020 		blr
 494              		.cfi_endproc
 495              	.LFE1405:
 496              		.size	_ZN10GuiElement8SetScaleEf, .-_ZN10GuiElement8SetScaleEf
 497              		.section	.text._ZN10GuiElement9SetScaleXEf,"axG",@progbits,_ZN10GuiElement9SetScaleXEf,comdat
 498              		.align 2
 499              		.weak	_ZN10GuiElement9SetScaleXEf
 500              		.type	_ZN10GuiElement9SetScaleXEf, @function
 501              	_ZN10GuiElement9SetScaleXEf:
 502              	.LFB1406:
 503              		.loc 2 217 0
 504              		.cfi_startproc
 505              	.LVL44:
 506              		.loc 2 217 0
 507 0000 D023003C 		stfs 1,60(3)
 508 0004 4E800020 		blr
 509              		.cfi_endproc
 510              	.LFE1406:
 511              		.size	_ZN10GuiElement9SetScaleXEf, .-_ZN10GuiElement9SetScaleXEf
 512              		.section	.text._ZN10GuiElement9SetScaleYEf,"axG",@progbits,_ZN10GuiElement9SetScaleYEf,comdat
 513              		.align 2
 514              		.weak	_ZN10GuiElement9SetScaleYEf
 515              		.type	_ZN10GuiElement9SetScaleYEf, @function
 516              	_ZN10GuiElement9SetScaleYEf:
 517              	.LFB1407:
 518              		.loc 2 220 0
 519              		.cfi_startproc
 520              	.LVL45:
 521              		.loc 2 220 0
 522 0000 D0230040 		stfs 1,64(3)
 523 0004 4E800020 		blr
 524              		.cfi_endproc
 525              	.LFE1407:
 526              		.size	_ZN10GuiElement9SetScaleYEf, .-_ZN10GuiElement9SetScaleYEf
 527              		.section	.text._ZN10GuiElement8GetScaleEv,"axG",@progbits,_ZN10GuiElement8GetScaleEv,comdat
 528              		.align 2
 529              		.weak	_ZN10GuiElement8GetScaleEv
 530              		.type	_ZN10GuiElement8GetScaleEv, @function
 531              	_ZN10GuiElement8GetScaleEv:
 532              	.LFB1408:
 533              		.loc 2 223 0
 534              		.cfi_startproc
 535              	.LVL46:
 536 0000 7C0802A6 		mflr 0
 537 0004 9421FFF0 		stwu 1,-16(1)
 538              	.LCFI5:
 539              		.cfi_def_cfa_offset 16
 540              		.cfi_register 65, 0
 541              	.LBB2310:
 542              		.loc 2 225 0
 543 0008 3D200000 		lis 9,.LC3@ha
 544              	.LBE2310:
 545              		.loc 2 223 0
 546 000c DBE10008 		stfd 31,8(1)
 547 0010 90010014 		stw 0,20(1)
 548              	.LBB2311:
 549              		.loc 2 225 0
 550 0014 C0030040 		lfs 0,64(3)
 551 0018 C3E3003C 		lfs 31,60(3)
 552              		.cfi_offset 65, 4
 553              		.cfi_offset 63, -8
 554              		.loc 2 227 0
 555 001c 81630060 		lwz 11,96(3)
 556              		.loc 2 225 0
 557 0020 EFFF002A 		fadds 31,31,0
 558 0024 C0090008 		lfs 0,.LC3@l(9)
 559              		.loc 2 227 0
 560 0028 2F8B0000 		cmpwi 7,11,0
 561              		.loc 2 225 0
 562 002c EFFF0032 		fmuls 31,31,0
 563 0030 C0030070 		lfs 0,112(3)
 564 0034 EFFF0032 		fmuls 31,31,0
 565              	.LVL47:
 566              		.loc 2 227 0
 567 0038 419E001C 		beq- 7,.L41
 568              		.loc 2 228 0
 569 003c 812B0000 		lwz 9,0(11)
 570 0040 7D635B78 		mr 3,11
 571              	.LVL48:
 572 0044 80090074 		lwz 0,116(9)
 573 0048 7C0903A6 		mtctr 0
 574 004c 4E800421 		bctrl
 575 0050 EFFF0072 		fmuls 31,31,1
 576              	.LVL49:
 577              	.L41:
 578              	.LBE2311:
 579              		.loc 2 231 0
 580 0054 80010014 		lwz 0,20(1)
 581 0058 FC20F890 		fmr 1,31
 582 005c CBE10008 		lfd 31,8(1)
 583              	.LVL50:
 584 0060 7C0803A6 		mtlr 0
 585 0064 38210010 		addi 1,1,16
 586              	.LCFI6:
 587              		.cfi_def_cfa_offset 0
 588              		.cfi_restore 63
 589 0068 4E800020 		blr
 590              		.cfi_endproc
 591              	.LFE1408:
 592              		.size	_ZN10GuiElement8GetScaleEv, .-_ZN10GuiElement8GetScaleEv
 593              		.section	.text._ZN10GuiElement9GetScaleXEv,"axG",@progbits,_ZN10GuiElement9GetScaleXEv,comdat
 594              		.align 2
 595              		.weak	_ZN10GuiElement9GetScaleXEv
 596              		.type	_ZN10GuiElement9GetScaleXEv, @function
 597              	_ZN10GuiElement9GetScaleXEv:
 598              	.LFB1409:
 599              		.loc 2 234 0
 600              		.cfi_startproc
 601              	.LVL51:
 602 0000 7C0802A6 		mflr 0
 603 0004 9421FFF0 		stwu 1,-16(1)
 604              	.LCFI7:
 605              		.cfi_def_cfa_offset 16
 606              		.cfi_register 65, 0
 607 0008 DBE10008 		stfd 31,8(1)
 608 000c 90010014 		stw 0,20(1)
 609              	.LBB2312:
 610              		.loc 2 238 0
 611 0010 81630060 		lwz 11,96(3)
 612              		.loc 2 236 0
 613 0014 C3E3003C 		lfs 31,60(3)
 614              		.cfi_offset 65, 4
 615              		.cfi_offset 63, -8
 616              		.loc 2 238 0
 617 0018 2F8B0000 		cmpwi 7,11,0
 618              		.loc 2 236 0
 619 001c C0030070 		lfs 0,112(3)
 620 0020 EFFF0032 		fmuls 31,31,0
 621              	.LVL52:
 622              		.loc 2 238 0
 623 0024 419E001C 		beq- 7,.L43
 624              		.loc 2 239 0
 625 0028 812B0000 		lwz 9,0(11)
 626 002c 7D635B78 		mr 3,11
 627              	.LVL53:
 628 0030 80090078 		lwz 0,120(9)
 629 0034 7C0903A6 		mtctr 0
 630 0038 4E800421 		bctrl
 631 003c EFFF0072 		fmuls 31,31,1
 632              	.LVL54:
 633              	.L43:
 634              	.LBE2312:
 635              		.loc 2 242 0
 636 0040 80010014 		lwz 0,20(1)
 637 0044 FC20F890 		fmr 1,31
 638 0048 CBE10008 		lfd 31,8(1)
 639              	.LVL55:
 640 004c 7C0803A6 		mtlr 0
 641 0050 38210010 		addi 1,1,16
 642              	.LCFI8:
 643              		.cfi_def_cfa_offset 0
 644              		.cfi_restore 63
 645 0054 4E800020 		blr
 646              		.cfi_endproc
 647              	.LFE1409:
 648              		.size	_ZN10GuiElement9GetScaleXEv, .-_ZN10GuiElement9GetScaleXEv
 649              		.section	.text._ZN10GuiElement9GetScaleYEv,"axG",@progbits,_ZN10GuiElement9GetScaleYEv,comdat
 650              		.align 2
 651              		.weak	_ZN10GuiElement9GetScaleYEv
 652              		.type	_ZN10GuiElement9GetScaleYEv, @function
 653              	_ZN10GuiElement9GetScaleYEv:
 654              	.LFB1410:
 655              		.loc 2 245 0
 656              		.cfi_startproc
 657              	.LVL56:
 658 0000 7C0802A6 		mflr 0
 659 0004 9421FFF0 		stwu 1,-16(1)
 660              	.LCFI9:
 661              		.cfi_def_cfa_offset 16
 662              		.cfi_register 65, 0
 663 0008 DBE10008 		stfd 31,8(1)
 664 000c 90010014 		stw 0,20(1)
 665              	.LBB2313:
 666              		.loc 2 249 0
 667 0010 81630060 		lwz 11,96(3)
 668              		.loc 2 247 0
 669 0014 C3E30040 		lfs 31,64(3)
 670              		.cfi_offset 65, 4
 671              		.cfi_offset 63, -8
 672              		.loc 2 249 0
 673 0018 2F8B0000 		cmpwi 7,11,0
 674              		.loc 2 247 0
 675 001c C0030070 		lfs 0,112(3)
 676 0020 EFFF0032 		fmuls 31,31,0
 677              	.LVL57:
 678              		.loc 2 249 0
 679 0024 419E001C 		beq- 7,.L45
 680              		.loc 2 250 0
 681 0028 812B0000 		lwz 9,0(11)
 682 002c 7D635B78 		mr 3,11
 683              	.LVL58:
 684 0030 8009007C 		lwz 0,124(9)
 685 0034 7C0903A6 		mtctr 0
 686 0038 4E800421 		bctrl
 687 003c EFFF0072 		fmuls 31,31,1
 688              	.LVL59:
 689              	.L45:
 690              	.LBE2313:
 691              		.loc 2 253 0
 692 0040 80010014 		lwz 0,20(1)
 693 0044 FC20F890 		fmr 1,31
 694 0048 CBE10008 		lfd 31,8(1)
 695              	.LVL60:
 696 004c 7C0803A6 		mtlr 0
 697 0050 38210010 		addi 1,1,16
 698              	.LCFI10:
 699              		.cfi_def_cfa_offset 0
 700              		.cfi_restore 63
 701 0054 4E800020 		blr
 702              		.cfi_endproc
 703              	.LFE1410:
 704              		.size	_ZN10GuiElement9GetScaleYEv, .-_ZN10GuiElement9GetScaleYEv
 705              		.section	.text._ZN10GuiElement6RumbleEv,"axG",@progbits,_ZN10GuiElement6RumbleEv,comdat
 706              		.align 2
 707              		.weak	_ZN10GuiElement6RumbleEv
 708              		.type	_ZN10GuiElement6RumbleEv, @function
 709              	_ZN10GuiElement6RumbleEv:
 710              	.LFB1411:
 711              		.loc 2 256 0
 712              		.cfi_startproc
 713              	.LVL61:
 714              		.loc 2 256 0
 715 0000 8863001C 		lbz 3,28(3)
 716              	.LVL62:
 717 0004 4E800020 		blr
 718              		.cfi_endproc
 719              	.LFE1411:
 720              		.size	_ZN10GuiElement6RumbleEv, .-_ZN10GuiElement6RumbleEv
 721              		.section	.text._ZN10GuiElement9SetRumbleEb,"axG",@progbits,_ZN10GuiElement9SetRumbleEb,comdat
 722              		.align 2
 723              		.weak	_ZN10GuiElement9SetRumbleEb
 724              		.type	_ZN10GuiElement9SetRumbleEb, @function
 725              	_ZN10GuiElement9SetRumbleEb:
 726              	.LFB1412:
 727              		.loc 2 259 0
 728              		.cfi_startproc
 729              	.LVL63:
 730              		.loc 2 259 0
 731 0000 9883001C 		stb 4,28(3)
 732 0004 4E800020 		blr
 733              		.cfi_endproc
 734              	.LFE1412:
 735              		.size	_ZN10GuiElement9SetRumbleEb, .-_ZN10GuiElement9SetRumbleEb
 736              		.section	.text._ZN10GuiElement13SetEffectGrowEv,"axG",@progbits,_ZN10GuiElement13SetEffectGrowEv,c
 737              		.align 2
 738              		.weak	_ZN10GuiElement13SetEffectGrowEv
 739              		.type	_ZN10GuiElement13SetEffectGrowEv, @function
 740              	_ZN10GuiElement13SetEffectGrowEv:
 741              	.LFB1413:
 742              		.loc 2 271 0
 743              		.cfi_startproc
 744              	.LVL64:
 745 0000 7C0802A6 		mflr 0
 746 0004 9421FFF8 		stwu 1,-8(1)
 747              	.LCFI11:
 748              		.cfi_def_cfa_offset 8
 749              		.cfi_register 65, 0
 750 0008 81230000 		lwz 9,0(3)
 751 000c 38800100 		li 4,256
 752 0010 38A00004 		li 5,4
 753 0014 38C0006E 		li 6,110
 754 0018 9001000C 		stw 0,12(1)
 755              		.loc 2 271 0
 756 001c 8009008C 		lwz 0,140(9)
 757              		.cfi_offset 65, 4
 758 0020 7C0903A6 		mtctr 0
 759 0024 4E800421 		bctrl
 760              	.LVL65:
 761 0028 8001000C 		lwz 0,12(1)
 762 002c 38210008 		addi 1,1,8
 763              	.LCFI12:
 764              		.cfi_def_cfa_offset 0
 765 0030 7C0803A6 		mtlr 0
 766 0034 4E800020 		blr
 767              		.cfi_endproc
 768              	.LFE1413:
 769              		.size	_ZN10GuiElement13SetEffectGrowEv, .-_ZN10GuiElement13SetEffectGrowEv
 770              		.section	.text._ZNK10GuiElement9GetEffectEv,"axG",@progbits,_ZNK10GuiElement9GetEffectEv,comdat
 771              		.align 2
 772              		.weak	_ZNK10GuiElement9GetEffectEv
 773              		.type	_ZNK10GuiElement9GetEffectEv, @function
 774              	_ZNK10GuiElement9GetEffectEv:
 775              	.LFB1414:
 776              		.loc 2 276 0
 777              		.cfi_startproc
 778              	.LVL66:
 779              		.loc 2 276 0
 780 0000 80630078 		lwz 3,120(3)
 781              	.LVL67:
 782 0004 4E800020 		blr
 783              		.cfi_endproc
 784              	.LFE1414:
 785              		.size	_ZNK10GuiElement9GetEffectEv, .-_ZNK10GuiElement9GetEffectEv
 786              		.section	.text._ZNK10GuiElement10IsAnimatedEv,"axG",@progbits,_ZNK10GuiElement10IsAnimatedEv,comda
 787              		.align 2
 788              		.weak	_ZNK10GuiElement10IsAnimatedEv
 789              		.type	_ZNK10GuiElement10IsAnimatedEv, @function
 790              	_ZNK10GuiElement10IsAnimatedEv:
 791              	.LFB1415:
 792              		.loc 2 278 0
 793              		.cfi_startproc
 794              	.LVL68:
 795 0000 7C0802A6 		mflr 0
 796 0004 9421FFF8 		stwu 1,-8(1)
 797              	.LCFI13:
 798              		.cfi_def_cfa_offset 8
 799              		.cfi_register 65, 0
 800 0008 9001000C 		stw 0,12(1)
 801              		.loc 2 278 0
 802 000c 81230000 		lwz 9,0(3)
 803 0010 80090098 		lwz 0,152(9)
 804              		.cfi_offset 65, 4
 805 0014 7C0903A6 		mtctr 0
 806 0018 4E800421 		bctrl
 807              	.LVL69:
 808 001c 7C60FE70 		srawi 0,3,31
 809 0020 7C630050 		subf 3,3,0
 810 0024 8001000C 		lwz 0,12(1)
 811 0028 54630FFE 		srwi 3,3,31
 812 002c 7C0803A6 		mtlr 0
 813 0030 38210008 		addi 1,1,8
 814              	.LCFI14:
 815              		.cfi_def_cfa_offset 0
 816 0034 4E800020 		blr
 817              		.cfi_endproc
 818              	.LFE1415:
 819              		.size	_ZNK10GuiElement10IsAnimatedEv, .-_ZNK10GuiElement10IsAnimatedEv
 820              		.section	.text._ZN10GuiElement8IsInsideEii,"axG",@progbits,_ZN10GuiElement8IsInsideEii,comdat
 821              		.align 2
 822              		.weak	_ZN10GuiElement8IsInsideEii
 823              		.type	_ZN10GuiElement8IsInsideEii, @function
 824              	_ZN10GuiElement8IsInsideEii:
 825              	.LFB1417:
 826              		.loc 2 285 0
 827              		.cfi_startproc
 828              	.LVL70:
 829 0000 7C0802A6 		mflr 0
 830 0004 9421FFE8 		stwu 1,-24(1)
 831              	.LCFI15:
 832              		.cfi_def_cfa_offset 24
 833              		.cfi_register 65, 0
 834 0008 93810008 		stw 28,8(1)
 835 000c 7CBC2B78 		mr 28,5
 836              		.cfi_offset 28, -16
 837 0010 9001001C 		stw 0,28(1)
 838 0014 93A1000C 		stw 29,12(1)
 839              		.loc 2 290 0
 840 0018 3BA00000 		li 29,0
 841              		.cfi_offset 29, -12
 842              		.cfi_offset 65, 4
 843              		.loc 2 287 0
 844 001c 81230000 		lwz 9,0(3)
 845              		.loc 2 285 0
 846 0020 93C10010 		stw 30,16(1)
 847 0024 7C9E2378 		mr 30,4
 848              		.cfi_offset 30, -8
 849              		.loc 2 287 0
 850 0028 80090010 		lwz 0,16(9)
 851              		.loc 2 285 0
 852 002c 93E10014 		stw 31,20(1)
 853              		.loc 2 285 0
 854 0030 7C7F1B78 		mr 31,3
 855              		.cfi_offset 31, -4
 856              		.loc 2 287 0
 857 0034 7C0903A6 		mtctr 0
 858 0038 4E800421 		bctrl
 859              	.LVL71:
 860              		.loc 2 290 0
 861 003c 7F83F000 		cmpw 7,3,30
 862 0040 419C0028 		blt- 7,.L56
 863              	.L52:
 864              		.loc 2 291 0 discriminator 6
 865 0044 8001001C 		lwz 0,28(1)
 866 0048 7FA3EB78 		mr 3,29
 867 004c 83810008 		lwz 28,8(1)
 868              	.LVL72:
 869 0050 7C0803A6 		mtlr 0
 870 0054 83A1000C 		lwz 29,12(1)
 871 0058 83C10010 		lwz 30,16(1)
 872              	.LVL73:
 873 005c 83E10014 		lwz 31,20(1)
 874              	.LVL74:
 875 0060 38210018 		addi 1,1,24
 876              		.cfi_remember_state
 877              	.LCFI16:
 878              		.cfi_def_cfa_offset 0
 879              		.cfi_restore 31
 880              		.cfi_restore 30
 881              		.cfi_restore 29
 882              		.cfi_restore 28
 883 0064 4E800020 		blr
 884              	.LVL75:
 885              	.L56:
 886              	.LCFI17:
 887              		.cfi_restore_state
 888              		.loc 2 288 0 discriminator 1
 889 0068 813F0000 		lwz 9,0(31)
 890 006c 7FE3FB78 		mr 3,31
 891 0070 80090010 		lwz 0,16(9)
 892 0074 7C0903A6 		mtctr 0
 893 0078 4E800421 		bctrl
 894              		.loc 2 290 0 discriminator 1
 895 007c 801F0024 		lwz 0,36(31)
 896 0080 7C030214 		add 0,3,0
 897 0084 7F9E0000 		cmpw 7,30,0
 898 0088 409CFFBC 		bge+ 7,.L52
 899              		.loc 2 289 0 discriminator 3
 900 008c 813F0000 		lwz 9,0(31)
 901 0090 7FE3FB78 		mr 3,31
 902 0094 80090014 		lwz 0,20(9)
 903 0098 7C0903A6 		mtctr 0
 904 009c 4E800421 		bctrl
 905              		.loc 2 290 0 discriminator 3
 906 00a0 7F83E000 		cmpw 7,3,28
 907 00a4 409CFFA0 		bge+ 7,.L52
 908              		.loc 2 290 0 is_stmt 0 discriminator 4
 909 00a8 813F0000 		lwz 9,0(31)
 910 00ac 7FE3FB78 		mr 3,31
 911 00b0 80090014 		lwz 0,20(9)
 912 00b4 7C0903A6 		mtctr 0
 913 00b8 4E800421 		bctrl
 914 00bc 801F0028 		lwz 0,40(31)
 915 00c0 7C030214 		add 0,3,0
 916              		.loc 2 285 0 is_stmt 1 discriminator 4
 917 00c4 7F9C0000 		cmpw 7,28,0
 918 00c8 7FA00026 		mfcr 29
 919 00cc 57BDEFFE 		rlwinm 29,29,29,1
 920 00d0 4BFFFF74 		b .L52
 921              		.cfi_endproc
 922              	.LFE1417:
 923              		.size	_ZN10GuiElement8IsInsideEii, .-_ZN10GuiElement8IsInsideEii
 924              		.section	.text._ZN10GuiElement11SetPositionEii,"axG",@progbits,_ZN10GuiElement11SetPositionEii,com
 925              		.align 2
 926              		.weak	_ZN10GuiElement11SetPositionEii
 927              		.type	_ZN10GuiElement11SetPositionEii, @function
 928              	_ZN10GuiElement11SetPositionEii:
 929              	.LFB1418:
 930              		.loc 2 295 0
 931              		.cfi_startproc
 932              	.LVL76:
 933              		.loc 2 297 0
 934 0000 9083002C 		stw 4,44(3)
 935              		.loc 2 299 0
 936              		.loc 2 298 0
 937 0004 90A30030 		stw 5,48(3)
 938              		.loc 2 299 0
 939 0008 4E800020 		blr
 940              		.cfi_endproc
 941              	.LFE1418:
 942              		.size	_ZN10GuiElement11SetPositionEii, .-_ZN10GuiElement11SetPositionEii
 943              		.section	.text._ZN10GuiElement11SetPositionEiii,"axG",@progbits,_ZN10GuiElement11SetPositionEiii,c
 944              		.align 2
 945              		.weak	_ZN10GuiElement11SetPositionEiii
 946              		.type	_ZN10GuiElement11SetPositionEiii, @function
 947              	_ZN10GuiElement11SetPositionEiii:
 948              	.LFB1419:
 949              		.loc 2 304 0
 950              		.cfi_startproc
 951              	.LVL77:
 952              		.loc 2 306 0
 953 0000 9083002C 		stw 4,44(3)
 954              		.loc 2 309 0
 955              		.loc 2 307 0
 956 0004 90A30030 		stw 5,48(3)
 957              		.loc 2 308 0
 958 0008 90C30034 		stw 6,52(3)
 959              		.loc 2 309 0
 960 000c 4E800020 		blr
 961              		.cfi_endproc
 962              	.LFE1419:
 963              		.size	_ZN10GuiElement11SetPositionEiii, .-_ZN10GuiElement11SetPositionEiii
 964              		.section	.text._ZN10GuiElement12SetAlignmentEi,"axG",@progbits,_ZN10GuiElement12SetAlignmentEi,com
 965              		.align 2
 966              		.weak	_ZN10GuiElement12SetAlignmentEi
 967              		.type	_ZN10GuiElement12SetAlignmentEi, @function
 968              	_ZN10GuiElement12SetAlignmentEi:
 969              	.LFB1421:
 970              		.loc 2 316 0
 971              		.cfi_startproc
 972              	.LVL78:
 973              		.loc 2 316 0
 974 0000 90830044 		stw 4,68(3)
 975 0004 4E800020 		blr
 976              		.cfi_endproc
 977              	.LFE1421:
 978              		.size	_ZN10GuiElement12SetAlignmentEi, .-_ZN10GuiElement12SetAlignmentEi
 979              		.section	.text._ZNK10GuiElement12GetAlignmentEv,"axG",@progbits,_ZNK10GuiElement12GetAlignmentEv,c
 980              		.align 2
 981              		.weak	_ZNK10GuiElement12GetAlignmentEv
 982              		.type	_ZNK10GuiElement12GetAlignmentEv, @function
 983              	_ZNK10GuiElement12GetAlignmentEv:
 984              	.LFB1422:
 985              		.loc 2 318 0
 986              		.cfi_startproc
 987              	.LVL79:
 988              		.loc 2 318 0
 989 0000 80630044 		lwz 3,68(3)
 990              	.LVL80:
 991 0004 4E800020 		blr
 992              		.cfi_endproc
 993              	.LFE1422:
 994              		.size	_ZNK10GuiElement12GetAlignmentEv, .-_ZNK10GuiElement12GetAlignmentEv
 995              		.section	.text._ZN8GuiFrame4hideEv,"axG",@progbits,_ZN8GuiFrame4hideEv,comdat
 996              		.align 2
 997              		.weak	_ZN8GuiFrame4hideEv
 998              		.type	_ZN8GuiFrame4hideEv, @function
 999              	_ZN8GuiFrame4hideEv:
 1000              	.LFB1432:
 1001              		.file 3 "d:/Projects/SaveGameManager/savegame-manager-gx/trunk/source/Settings/menus/../../GUI/gui
 1002              		.loc 3 81 0
 1003              		.cfi_startproc
 1004              	.LVL81:
 1005              		.loc 3 81 0
 1006 0000 4E800020 		blr
 1007              		.cfi_endproc
 1008              	.LFE1432:
 1009              		.size	_ZN8GuiFrame4hideEv, .-_ZN8GuiFrame4hideEv
 1010              		.section	.text._ZN8GuiFrame4execEv,"axG",@progbits,_ZN8GuiFrame4execEv,comdat
 1011              		.align 2
 1012              		.weak	_ZN8GuiFrame4execEv
 1013              		.type	_ZN8GuiFrame4execEv, @function
 1014              	_ZN8GuiFrame4execEv:
 1015              	.LFB1433:
 1016              		.loc 3 83 0
 1017              		.cfi_startproc
 1018              	.LVL82:
 1019              		.loc 3 83 0
 1020 0000 4E800020 		blr
 1021              		.cfi_endproc
 1022              	.LFE1433:
 1023              		.size	_ZN8GuiFrame4execEv, .-_ZN8GuiFrame4execEv
 1024              		.section	.text._ZN8GuiFrame12updateEventsEv,"axG",@progbits,_ZN8GuiFrame12updateEventsEv,comdat
 1025              		.align 2
 1026              		.weak	_ZN8GuiFrame12updateEventsEv
 1027              		.type	_ZN8GuiFrame12updateEventsEv, @function
 1028              	_ZN8GuiFrame12updateEventsEv:
 1029              	.LFB1434:
 1030              		.loc 3 85 0
 1031              		.cfi_startproc
 1032              	.LVL83:
 1033              		.loc 3 85 0
 1034 0000 4E800020 		blr
 1035              		.cfi_endproc
 1036              	.LFE1434:
 1037              		.size	_ZN8GuiFrame12updateEventsEv, .-_ZN8GuiFrame12updateEventsEv
 1038              		.section	.text._ZN7sigslot17_connection_base4IP11PathBrowserhbRKSsNS_15single_threadedEED2Ev,"axG"
 1039              		.align 2
 1040              		.weak	_ZN7sigslot17_connection_base4IP11PathBrowserhbRKSsNS_15single_threadedEED2Ev
 1041              		.type	_ZN7sigslot17_connection_base4IP11PathBrowserhbRKSsNS_15single_threadedEED2Ev, @function
 1042              	_ZN7sigslot17_connection_base4IP11PathBrowserhbRKSsNS_15single_threadedEED2Ev:
 1043              	.LFB1921:
 1044              		.loc 1 398 0
 1045              		.cfi_startproc
 1046              	.LVL84:
 1047              	.LBB2314:
 1048              		.loc 1 398 0
 1049 0000 3D200000 		lis 9,_ZTVN7sigslot17_connection_base4IP11PathBrowserhbRKSsNS_15single_threadedEEE+8@ha
 1050              	.LBE2314:
 1051              	.LBB2315:
 1052 0004 38090008 		la 0,_ZTVN7sigslot17_connection_base4IP11PathBrowserhbRKSsNS_15single_threadedEEE+8@l(9)
 1053 0008 90030000 		stw 0,0(3)
 1054              	.LBE2315:
 1055 000c 4E800020 		blr
 1056              		.cfi_endproc
 1057              	.LFE1921:
 1058              		.size	_ZN7sigslot17_connection_base4IP11PathBrowserhbRKSsNS_15single_threadedEED2Ev, .-_ZN7sigslot
 1059              		.section	.text._ZN7sigslot12_connection4I13CustomPathsSMP11PathBrowserhbRKSsNS_15single_threadedEE
 1060              		.align 2
 1061              		.weak	_ZN7sigslot12_connection4I13CustomPathsSMP11PathBrowserhbRKSsNS_15single_threadedEED2Ev
 1062              		.type	_ZN7sigslot12_connection4I13CustomPathsSMP11PathBrowserhbRKSsNS_15single_threadedEED2Ev, @fu
 1063              	_ZN7sigslot12_connection4I13CustomPathsSMP11PathBrowserhbRKSsNS_15single_threadedEED2Ev:
 1064              	.LFB2252:
 1065              		.loc 1 1833 0
 1066              		.cfi_startproc
 1067              	.LVL85:
 1068              	.LBB2316:
 1069              	.LBB2317:
 1070              	.LBB2318:
 1071              	.LBB2319:
 1072              		.loc 1 398 0
 1073 0000 3D200000 		lis 9,_ZTVN7sigslot17_connection_base4IP11PathBrowserhbRKSsNS_15single_threadedEEE+8@ha
 1074              	.LBE2319:
 1075              	.LBE2318:
 1076              	.LBE2317:
 1077              	.LBE2316:
 1078              		.loc 1 1836 0
 1079              	.LBB2323:
 1080              	.LBB2322:
 1081              	.LBB2321:
 1082              	.LBB2320:
 1083              		.loc 1 398 0
 1084 0004 38090008 		la 0,_ZTVN7sigslot17_connection_base4IP11PathBrowserhbRKSsNS_15single_threadedEEE+8@l(9)
 1085 0008 90030000 		stw 0,0(3)
 1086              	.LBE2320:
 1087              	.LBE2321:
 1088              	.LBE2322:
 1089              	.LBE2323:
 1090              		.loc 1 1836 0
 1091 000c 4E800020 		blr
 1092              		.cfi_endproc
 1093              	.LFE2252:
 1094              		.size	_ZN7sigslot12_connection4I13CustomPathsSMP11PathBrowserhbRKSsNS_15single_threadedEED2Ev, .-_
 1095              		.section	.text._ZNK7sigslot12_connection4I13CustomPathsSMP11PathBrowserhbRKSsNS_15single_threadedE
 1096              		.align 2
 1097              		.weak	_ZNK7sigslot12_connection4I13CustomPathsSMP11PathBrowserhbRKSsNS_15single_threadedEE7getdest
 1098              		.type	_ZNK7sigslot12_connection4I13CustomPathsSMP11PathBrowserhbRKSsNS_15single_threadedEE7getdest
 1099              	_ZNK7sigslot12_connection4I13CustomPathsSMP11PathBrowserhbRKSsNS_15single_threadedEE7getdestEv:
 1100              	.LFB2255:
 1101              		.loc 1 1854 0
 1102              		.cfi_startproc
 1103              	.LVL86:
 1104              		.loc 1 1856 0
 1105 0000 81230004 		lwz 9,4(3)
 1106 0004 38600000 		li 3,0
 1107              	.LVL87:
 1108 0008 2F890000 		cmpwi 7,9,0
 1109 000c 4D9E0020 		beqlr- 7
 1110              		.loc 1 1856 0 is_stmt 0 discriminator 1
 1111 0010 386900B0 		addi 3,9,176
 1112              		.loc 1 1857 0 is_stmt 1 discriminator 1
 1113 0014 4E800020 		blr
 1114              		.cfi_endproc
 1115              	.LFE2255:
 1116              		.size	_ZNK7sigslot12_connection4I13CustomPathsSMP11PathBrowserhbRKSsNS_15single_threadedEE7getdest
 1117              		.section	.text._ZN7sigslot12_connection4I13CustomPathsSMP11PathBrowserhbRKSsNS_15single_threadedEE
 1118              		.align 2
 1119              		.weak	_ZN7sigslot12_connection4I13CustomPathsSMP11PathBrowserhbRKSsNS_15single_threadedEE4emitES3_
 1120              		.type	_ZN7sigslot12_connection4I13CustomPathsSMP11PathBrowserhbRKSsNS_15single_threadedEE4emitES3_
 1121              	_ZN7sigslot12_connection4I13CustomPathsSMP11PathBrowserhbRKSsNS_15single_threadedEE4emitES3_hbS5_:
 1122              	.LFB2256:
 1123              		.loc 1 1848 0
 1124              		.cfi_startproc
 1125              	.LVL88:
 1126 0000 7C0802A6 		mflr 0
 1127 0004 9421FFF8 		stwu 1,-8(1)
 1128              	.LCFI18:
 1129              		.cfi_def_cfa_offset 8
 1130              		.cfi_register 65, 0
 1131 0008 9001000C 		stw 0,12(1)
 1132              		.loc 1 1851 0
 1133 000c 80030008 		lwz 0,8(3)
 1134              		.cfi_offset 65, 4
 1135 0010 81630004 		lwz 11,4(3)
 1136 0014 70090001 		andi. 9,0,1
 1137 0018 8123000C 		lwz 9,12(3)
 1138 001c 40820020 		bne- 0,.L73
 1139 0020 7C0903A6 		mtctr 0
 1140 0024 7C6B4A14 		add 3,11,9
 1141              	.LVL89:
 1142 0028 4E800421 		bctrl
 1143              	.LVL90:
 1144              		.loc 1 1852 0
 1145 002c 8001000C 		lwz 0,12(1)
 1146 0030 38210008 		addi 1,1,8
 1147              		.cfi_remember_state
 1148              	.LCFI19:
 1149              		.cfi_def_cfa_offset 0
 1150 0034 7C0803A6 		mtlr 0
 1151 0038 4E800020 		blr
 1152              	.LVL91:
 1153              	.L73:
 1154              	.LCFI20:
 1155              		.cfi_restore_state
 1156              		.loc 1 1851 0 discriminator 1
 1157 003c 7D4B482E 		lwzx 10,11,9
 1158 0040 7C6B4A14 		add 3,11,9
 1159              	.LVL92:
 1160 0044 7D2A0214 		add 9,10,0
 1161 0048 8009FFFF 		lwz 0,-1(9)
 1162 004c 7C0903A6 		mtctr 0
 1163 0050 4E800421 		bctrl
 1164              	.LVL93:
 1165              		.loc 1 1852 0 discriminator 1
 1166 0054 8001000C 		lwz 0,12(1)
 1167 0058 38210008 		addi 1,1,8
 1168              	.LCFI21:
 1169              		.cfi_def_cfa_offset 0
 1170 005c 7C0803A6 		mtlr 0
 1171 0060 4E800020 		blr
 1172              		.cfi_endproc
 1173              	.LFE2256:
 1174              		.size	_ZN7sigslot12_connection4I13CustomPathsSMP11PathBrowserhbRKSsNS_15single_threadedEE4emitES3_
 1175              		.section	.text._ZN13CustomPathsSMD1Ev,"axG",@progbits,_ZN13CustomPathsSMD1Ev,comdat
 1176              		.align 2
 1177              		.weak	_ZThn176_N13CustomPathsSMD1Ev
 1178              		.type	_ZThn176_N13CustomPathsSMD1Ev, @function
 1179              	_ZThn176_N13CustomPathsSMD1Ev:
 1180              	.LFB2422:
 1181              		.cfi_startproc
 1182 0000 3863FF50 		addi 3,3,-176
 1183 0004 48000000 		b .LTHUNK0
 1184              		.cfi_endproc
 1185              	.LFE2422:
 1186              		.size	_ZThn176_N13CustomPathsSMD1Ev, .-_ZThn176_N13CustomPathsSMD1Ev
 1187              		.section	.text._ZN13CustomPathsSMD2Ev,"axG",@progbits,_ZN13CustomPathsSMD5Ev,comdat
 1188              		.align 2
 1189              		.weak	_ZN13CustomPathsSMD2Ev
 1190              		.type	_ZN13CustomPathsSMD2Ev, @function
 1191              	_ZN13CustomPathsSMD2Ev:
 1192              	.LFB2244:
 1193              		.file 4 "d:/Projects/SaveGameManager/savegame-manager-gx/trunk/source/Settings/menus/CustomPathsSM
 1194              		.loc 4 30 0
 1195              		.cfi_startproc
 1196              	.LVL94:
 1197 0000 7C0802A6 		mflr 0
 1198 0004 9421FFF8 		stwu 1,-8(1)
 1199              	.LCFI22:
 1200              		.cfi_def_cfa_offset 8
 1201              		.cfi_register 65, 0
 1202              	.LBB2325:
 1203 0008 3D600000 		lis 11,_ZTV13CustomPathsSM+8@ha
 1204 000c 396B0008 		la 11,_ZTV13CustomPathsSM+8@l(11)
 1205              	.LBE2325:
 1206 0010 9001000C 		stw 0,12(1)
 1207              	.LBB2326:
 1208              		.loc 4 30 0
 1209 0014 380B00F0 		addi 0,11,240
 1210              		.cfi_offset 65, 4
 1211 0018 900300B0 		stw 0,176(3)
 1212 001c 91630000 		stw 11,0(3)
 1213 0020 48000001 		bl _ZN15SettingsBrowserD2Ev
 1214              	.LVL95:
 1215              	.LBE2326:
 1216 0024 8001000C 		lwz 0,12(1)
 1217 0028 38210008 		addi 1,1,8
 1218              	.LCFI23:
 1219              		.cfi_def_cfa_offset 0
 1220 002c 7C0803A6 		mtlr 0
 1221 0030 4E800020 		blr
 1222              		.cfi_endproc
 1223              	.LFE2244:
 1224              		.size	_ZN13CustomPathsSMD2Ev, .-_ZN13CustomPathsSMD2Ev
 1225              		.section	.text._ZN7sigslot12_connection4I13CustomPathsSMP11PathBrowserhbRKSsNS_15single_threadedEE
 1226              		.align 2
 1227              		.weak	_ZN7sigslot12_connection4I13CustomPathsSMP11PathBrowserhbRKSsNS_15single_threadedEED0Ev
 1228              		.type	_ZN7sigslot12_connection4I13CustomPathsSMP11PathBrowserhbRKSsNS_15single_threadedEED0Ev, @fu
 1229              	_ZN7sigslot12_connection4I13CustomPathsSMP11PathBrowserhbRKSsNS_15single_threadedEED0Ev:
 1230              	.LFB2254:
 1231              		.loc 1 1833 0
 1232              		.cfi_startproc
 1233              	.LVL96:
 1234 0000 7C0802A6 		mflr 0
 1235 0004 9421FFF8 		stwu 1,-8(1)
 1236              	.LCFI24:
 1237              		.cfi_def_cfa_offset 8
 1238              		.cfi_register 65, 0
 1239              	.LBB2327:
 1240              	.LBB2328:
 1241              	.LBB2329:
 1242              	.LBB2330:
 1243              	.LBB2331:
 1244              	.LBB2332:
 1245              		.loc 1 398 0
 1246 0008 3D200000 		lis 9,_ZTVN7sigslot17_connection_base4IP11PathBrowserhbRKSsNS_15single_threadedEEE+8@ha
 1247              	.LBE2332:
 1248              	.LBE2331:
 1249              	.LBE2330:
 1250              	.LBE2329:
 1251              	.LBE2328:
 1252              	.LBE2327:
 1253              		.loc 1 1833 0
 1254 000c 9001000C 		stw 0,12(1)
 1255              	.LBB2338:
 1256              	.LBB2337:
 1257              	.LBB2336:
 1258              	.LBB2335:
 1259              	.LBB2334:
 1260              	.LBB2333:
 1261              		.loc 1 398 0
 1262 0010 38090008 		la 0,_ZTVN7sigslot17_connection_base4IP11PathBrowserhbRKSsNS_15single_threadedEEE+8@l(9)
 1263              		.cfi_offset 65, 4
 1264 0014 90030000 		stw 0,0(3)
 1265              	.LBE2333:
 1266              	.LBE2334:
 1267              	.LBE2335:
 1268              	.LBE2336:
 1269              	.LBE2337:
 1270              	.LBE2338:
 1271              		.loc 1 1836 0
 1272 0018 48000001 		bl _ZdlPv
 1273              	.LVL97:
 1274 001c 8001000C 		lwz 0,12(1)
 1275 0020 38210008 		addi 1,1,8
 1276              	.LCFI25:
 1277              		.cfi_def_cfa_offset 0
 1278 0024 7C0803A6 		mtlr 0
 1279 0028 4E800020 		blr
 1280              		.cfi_endproc
 1281              	.LFE2254:
 1282              		.size	_ZN7sigslot12_connection4I13CustomPathsSMP11PathBrowserhbRKSsNS_15single_threadedEED0Ev, .-_
 1283              		.section	.text._ZN7sigslot17_connection_base4IP11PathBrowserhbRKSsNS_15single_threadedEED0Ev,"axG"
 1284              		.align 2
 1285              		.weak	_ZN7sigslot17_connection_base4IP11PathBrowserhbRKSsNS_15single_threadedEED0Ev
 1286              		.type	_ZN7sigslot17_connection_base4IP11PathBrowserhbRKSsNS_15single_threadedEED0Ev, @function
 1287              	_ZN7sigslot17_connection_base4IP11PathBrowserhbRKSsNS_15single_threadedEED0Ev:
 1288              	.LFB1923:
 1289              		.loc 1 398 0
 1290              		.cfi_startproc
 1291              	.LVL98:
 1292 0000 7C0802A6 		mflr 0
 1293 0004 9421FFF8 		stwu 1,-8(1)
 1294              	.LCFI26:
 1295              		.cfi_def_cfa_offset 8
 1296              		.cfi_register 65, 0
 1297              	.LBB2339:
 1298              	.LBB2340:
 1299              	.LBB2341:
 1300 0008 3D200000 		lis 9,_ZTVN7sigslot17_connection_base4IP11PathBrowserhbRKSsNS_15single_threadedEEE+8@ha
 1301              	.LBE2341:
 1302              	.LBE2340:
 1303              	.LBE2339:
 1304 000c 9001000C 		stw 0,12(1)
 1305              	.LBB2344:
 1306              	.LBB2343:
 1307              	.LBB2342:
 1308              		.loc 1 398 0
 1309 0010 38090008 		la 0,_ZTVN7sigslot17_connection_base4IP11PathBrowserhbRKSsNS_15single_threadedEEE+8@l(9)
 1310              		.cfi_offset 65, 4
 1311 0014 90030000 		stw 0,0(3)
 1312              	.LBE2342:
 1313              	.LBE2343:
 1314              	.LBE2344:
 1315 0018 48000001 		bl _ZdlPv
 1316              	.LVL99:
 1317 001c 8001000C 		lwz 0,12(1)
 1318 0020 38210008 		addi 1,1,8
 1319              	.LCFI27:
 1320              		.cfi_def_cfa_offset 0
 1321 0024 7C0803A6 		mtlr 0
 1322 0028 4E800020 		blr
 1323              		.cfi_endproc
 1324              	.LFE1923:
 1325              		.size	_ZN7sigslot17_connection_base4IP11PathBrowserhbRKSsNS_15single_threadedEED0Ev, .-_ZN7sigslot
 1326              		.section	.text._ZN7sigslot12_connection4I13CustomPathsSMP11PathBrowserhbRKSsNS_15single_threadedEE
 1327              		.align 2
 1328              		.weak	_ZN7sigslot12_connection4I13CustomPathsSMP11PathBrowserhbRKSsNS_15single_threadedEE9duplicat
 1329              		.type	_ZN7sigslot12_connection4I13CustomPathsSMP11PathBrowserhbRKSsNS_15single_threadedEE9duplicat
 1330              	_ZN7sigslot12_connection4I13CustomPathsSMP11PathBrowserhbRKSsNS_15single_threadedEE9duplicateEPNS_9
 1331              	.LFB2264:
 1332              		.loc 1 1843 0
 1333              		.cfi_startproc
 1334              	.LVL100:
 1335 0000 9421FFF0 		stwu 1,-16(1)
 1336              	.LCFI28:
 1337              		.cfi_def_cfa_offset 16
 1338 0004 7C0802A6 		mflr 0
 1339 0008 93C10008 		stw 30,8(1)
 1340 000c 7C9E2378 		mr 30,4
 1341              		.cfi_offset 30, -8
 1342              		.cfi_register 65, 0
 1343 0010 93E1000C 		stw 31,12(1)
 1344 0014 7C7F1B78 		mr 31,3
 1345              		.cfi_offset 31, -4
 1346              		.loc 1 1845 0
 1347 0018 38600010 		li 3,16
 1348              	.LVL101:
 1349              		.loc 1 1843 0
 1350 001c 90010014 		stw 0,20(1)
 1351              		.loc 1 1845 0
 1352              		.cfi_offset 65, 4
 1353 0020 48000001 		bl _Znwj
 1354              	.LVL102:
 1355 0024 2F9E0000 		cmpwi 7,30,0
 1356 0028 38000000 		li 0,0
 1357 002c 419E0008 		beq- 7,.L85
 1358              		.loc 1 1845 0 is_stmt 0 discriminator 1
 1359 0030 381EFF50 		addi 0,30,-176
 1360              	.L85:
 1361              	.LVL103:
 1362              		.loc 1 1845 0 discriminator 3
 1363 0034 817F0008 		lwz 11,8(31)
 1364              	.LVL104:
 1365              	.LBB2345:
 1366              	.LBB2346:
 1367              		.loc 1 1828 0 is_stmt 1 discriminator 3
 1368 0038 3D400000 		lis 10,_ZTVN7sigslot12_connection4I13CustomPathsSMP11PathBrowserhbRKSsNS_15single_threadedEEE+8@ha
 1369              	.LBE2346:
 1370              	.LBE2345:
 1371              		.loc 1 1845 0 discriminator 3
 1372 003c 813F000C 		lwz 9,12(31)
 1373              	.LVL105:
 1374              	.LBB2349:
 1375              	.LBB2347:
 1376              		.loc 1 1828 0 discriminator 3
 1377 0040 394A0008 		la 10,_ZTVN7sigslot12_connection4I13CustomPathsSMP11PathBrowserhbRKSsNS_15single_threadedEEE+8@l(1
 1378              		.loc 1 1830 0 discriminator 3
 1379 0044 91630008 		stw 11,8(3)
 1380 0048 9123000C 		stw 9,12(3)
 1381              		.loc 1 1829 0 discriminator 3
 1382 004c 90030004 		stw 0,4(3)
 1383              	.LBE2347:
 1384              	.LBE2349:
 1385              		.loc 1 1846 0 discriminator 3
 1386 0050 80010014 		lwz 0,20(1)
 1387              	.LVL106:
 1388 0054 83C10008 		lwz 30,8(1)
 1389              	.LVL107:
 1390 0058 7C0803A6 		mtlr 0
 1391 005c 83E1000C 		lwz 31,12(1)
 1392              	.LVL108:
 1393              	.LBB2350:
 1394              	.LBB2348:
 1395              		.loc 1 1828 0 discriminator 3
 1396 0060 91430000 		stw 10,0(3)
 1397              	.LBE2348:
 1398              	.LBE2350:
 1399              		.loc 1 1846 0 discriminator 3
 1400 0064 38210010 		addi 1,1,16
 1401              	.LCFI29:
 1402              		.cfi_def_cfa_offset 0
 1403              		.cfi_restore 31
 1404              		.cfi_restore 30
 1405 0068 4E800020 		blr
 1406              		.cfi_endproc
 1407              	.LFE2264:
 1408              		.size	_ZN7sigslot12_connection4I13CustomPathsSMP11PathBrowserhbRKSsNS_15single_threadedEE9duplicat
 1409              		.section	.text._ZN7sigslot12_connection4I13CustomPathsSMP11PathBrowserhbRKSsNS_15single_threadedEE
 1410              		.align 2
 1411              		.weak	_ZN7sigslot12_connection4I13CustomPathsSMP11PathBrowserhbRKSsNS_15single_threadedEE5cloneEv
 1412              		.type	_ZN7sigslot12_connection4I13CustomPathsSMP11PathBrowserhbRKSsNS_15single_threadedEE5cloneEv,
 1413              	_ZN7sigslot12_connection4I13CustomPathsSMP11PathBrowserhbRKSsNS_15single_threadedEE5cloneEv:
 1414              	.LFB2257:
 1415              		.loc 1 1838 0
 1416              		.cfi_startproc
 1417              	.LVL109:
 1418 0000 9421FFF0 		stwu 1,-16(1)
 1419              	.LCFI30:
 1420              		.cfi_def_cfa_offset 16
 1421 0004 7C0802A6 		mflr 0
 1422 0008 93E1000C 		stw 31,12(1)
 1423 000c 7C7F1B78 		mr 31,3
 1424              		.cfi_offset 31, -4
 1425              		.cfi_register 65, 0
 1426              		.loc 1 1840 0
 1427 0010 38600010 		li 3,16
 1428              	.LVL110:
 1429              		.loc 1 1838 0
 1430 0014 90010014 		stw 0,20(1)
 1431              		.loc 1 1840 0
 1432              		.cfi_offset 65, 4
 1433 0018 48000001 		bl _Znwj
 1434              		.file 5 "d:/Projects/SaveGameManager/savegame-manager-gx/trunk/source/Settings/menus/CustomPathsSM
 1435              		.loc 5 227 0
 1436 001c 801F0004 		lwz 0,4(31)
 1437              	.LVL111:
 1438              	.LBB2351:
 1439              	.LBB2352:
 1440              		.loc 1 1816 0
 1441 0020 3D600000 		lis 11,_ZTVN7sigslot12_connection4I13CustomPathsSMP11PathBrowserhbRKSsNS_15single_threadedEEE+8@ha
 1442 0024 396B0008 		la 11,_ZTVN7sigslot12_connection4I13CustomPathsSMP11PathBrowserhbRKSsNS_15single_threadedEEE+8@l(1
 1443 0028 90030004 		stw 0,4(3)
 1444 002c 91630000 		stw 11,0(3)
 1445 0030 815F0008 		lwz 10,8(31)
 1446 0034 817F000C 		lwz 11,12(31)
 1447 0038 91430008 		stw 10,8(3)
 1448 003c 9163000C 		stw 11,12(3)
 1449              	.LBE2352:
 1450              	.LBE2351:
 1451              		.loc 1 1841 0
 1452 0040 80010014 		lwz 0,20(1)
 1453 0044 83E1000C 		lwz 31,12(1)
 1454              	.LVL112:
 1455 0048 7C0803A6 		mtlr 0
 1456 004c 38210010 		addi 1,1,16
 1457              	.LCFI31:
 1458              		.cfi_def_cfa_offset 0
 1459              		.cfi_restore 31
 1460 0050 4E800020 		blr
 1461              		.cfi_endproc
 1462              	.LFE2257:
 1463              		.size	_ZN7sigslot12_connection4I13CustomPathsSMP11PathBrowserhbRKSsNS_15single_threadedEE5cloneEv,
 1464              		.section	".text"
 1465              		.align 2
 1466              		.globl _ZN13CustomPathsSM15SetOptionValuesEv
 1467              		.type	_ZN13CustomPathsSM15SetOptionValuesEv, @function
 1468              	_ZN13CustomPathsSM15SetOptionValuesEv:
 1469              	.LFB1666:
 1470              		.loc 5 60 0
 1471              		.cfi_startproc
 1472              	.LVL113:
 1473 0000 7C0802A6 		mflr 0
 1474 0004 9421FFE8 		stwu 1,-24(1)
 1475              	.LCFI32:
 1476              		.cfi_def_cfa_offset 24
 1477              		.cfi_register 65, 0
 1478              	.LBB2353:
 1479              		.loc 5 64 0
 1480 0008 38800000 		li 4,0
 1481              	.LBE2353:
 1482              		.loc 5 60 0
 1483 000c 93C10010 		stw 30,16(1)
 1484              	.LBB2354:
 1485              		.loc 5 64 0
 1486 0010 3FC00000 		lis 30,Settings+744@ha
 1487              		.cfi_offset 30, -8
 1488              	.LBE2354:
 1489              		.loc 5 60 0
 1490 0014 9001001C 		stw 0,28(1)
 1491              	.LBB2355:
 1492              		.loc 5 64 0
 1493 0018 3BDE02E8 		la 30,Settings+744@l(30)
 1494              	.LBE2355:
 1495              		.loc 5 60 0
 1496 001c 93E10014 		stw 31,20(1)
 1497 0020 7C7F1B78 		mr 31,3
 1498              		.cfi_offset 31, -4
 1499              		.cfi_offset 65, 4
 1500              	.LBB2356:
 1501              		.loc 5 64 0
 1502 0024 806300CC 		lwz 3,204(3)
 1503              	.LVL114:
 1504 0028 7FC5F378 		mr 5,30
 1505              	.LBE2356:
 1506              		.loc 5 60 0
 1507 002c 93A1000C 		stw 29,12(1)
 1508              	.LBB2357:
 1509              		.loc 5 64 0
 1510              		.cfi_offset 29, -12
 1511 0030 4CC63182 		crxor 6,6,6
 1512 0034 48000001 		bl _ZN10OptionList8SetValueEiPKcz
 1513              	.LVL115:
 1514              		.loc 5 67 0
 1515 0038 807F00CC 		lwz 3,204(31)
 1516 003c 38BEFF06 		addi 5,30,-250
 1517 0040 38800001 		li 4,1
 1518 0044 4CC63182 		crxor 6,6,6
 1519 0048 48000001 		bl _ZN10OptionList8SetValueEiPKcz
 1520              		.loc 5 70 0
 1521 004c A81EFDA6 		lha 0,-602(30)
 1522 0050 83BF00CC 		lwz 29,204(31)
 1523              	.LVL116:
 1524 0054 38BE0432 		addi 5,30,1074
 1525 0058 2F800000 		cmpwi 7,0,0
 1526 005c 41BE0014 		beq+ 7,.L89
 1527              		.loc 5 70 0 is_stmt 0 discriminator 1
 1528 0060 3C600000 		lis 3,.LC4@ha
 1529 0064 38630000 		la 3,.LC4@l(3)
 1530 0068 48000001 		bl gettext
 1531 006c 7C651B78 		mr 5,3
 1532              	.L89:
 1533              		.loc 5 70 0 discriminator 3
 1534 0070 7FA3EB78 		mr 3,29
 1535 0074 38800002 		li 4,2
 1536              		.loc 5 73 0 is_stmt 1 discriminator 3
 1537 0078 3FC00000 		lis 30,Settings+994@ha
 1538              		.loc 5 70 0 discriminator 3
 1539 007c 4CC63182 		crxor 6,6,6
 1540 0080 48000001 		bl _ZN10OptionList8SetValueEiPKcz
 1541              	.LVL117:
 1542              		.loc 5 73 0 discriminator 3
 1543 0084 3BDE03E2 		la 30,Settings+994@l(30)
 1544 0088 807F00CC 		lwz 3,204(31)
 1545 008c 7FC5F378 		mr 5,30
 1546 0090 38800003 		li 4,3
 1547 0094 4CC63182 		crxor 6,6,6
 1548 0098 48000001 		bl _ZN10OptionList8SetValueEiPKcz
 1549              	.LVL118:
 1550              		.loc 5 76 0 discriminator 3
 1551 009c 807F00CC 		lwz 3,204(31)
 1552 00a0 38BE052C 		addi 5,30,1324
 1553 00a4 38800004 		li 4,4
 1554 00a8 4CC63182 		crxor 6,6,6
 1555 00ac 48000001 		bl _ZN10OptionList8SetValueEiPKcz
 1556              	.LVL119:
 1557              		.loc 5 79 0 discriminator 3
 1558 00b0 807F00CC 		lwz 3,204(31)
 1559 00b4 38BEFCAE 		addi 5,30,-850
 1560 00b8 38800005 		li 4,5
 1561 00bc 4CC63182 		crxor 6,6,6
 1562 00c0 48000001 		bl _ZN10OptionList8SetValueEiPKcz
 1563              	.LBE2357:
 1564              		.loc 5 96 0 discriminator 3
 1565 00c4 8001001C 		lwz 0,28(1)
 1566 00c8 83A1000C 		lwz 29,12(1)
 1567 00cc 7C0803A6 		mtlr 0
 1568 00d0 83C10010 		lwz 30,16(1)
 1569 00d4 83E10014 		lwz 31,20(1)
 1570              	.LVL120:
 1571 00d8 38210018 		addi 1,1,24
 1572              	.LCFI33:
 1573              		.cfi_def_cfa_offset 0
 1574              		.cfi_restore 31
 1575              		.cfi_restore 30
 1576              		.cfi_restore 29
 1577 00dc 4E800020 		blr
 1578              		.cfi_endproc
 1579              	.LFE1666:
 1580              		.size	_ZN13CustomPathsSM15SetOptionValuesEv, .-_ZN13CustomPathsSM15SetOptionValuesEv
 1581              		.align 2
 1582              		.globl _ZN13CustomPathsSM15SetupOptionNameEv
 1583              		.type	_ZN13CustomPathsSM15SetupOptionNameEv, @function
 1584              	_ZN13CustomPathsSM15SetupOptionNameEv:
 1585              	.LFB1665:
 1586              		.loc 5 41 0
 1587              		.cfi_startproc
 1588              	.LVL121:
 1589 00e0 7C0802A6 		mflr 0
 1590 00e4 9421FFF0 		stwu 1,-16(1)
 1591              	.LCFI34:
 1592              		.cfi_def_cfa_offset 16
 1593              		.cfi_register 65, 0
 1594 00e8 93C10008 		stw 30,8(1)
 1595 00ec 90010014 		stw 0,20(1)
 1596 00f0 93E1000C 		stw 31,12(1)
 1597              		.loc 5 41 0
 1598 00f4 7C7F1B78 		mr 31,3
 1599              		.cfi_offset 31, -4
 1600              		.cfi_offset 65, 4
 1601              		.cfi_offset 30, -8
 1602              	.LBB2358:
 1603              		.loc 5 44 0
 1604 00f8 83C300CC 		lwz 30,204(3)
 1605              	.LVL122:
 1606 00fc 3C600000 		lis 3,.LC5@ha
 1607              	.LVL123:
 1608 0100 3863000C 		la 3,.LC5@l(3)
 1609 0104 48000001 		bl gettext
 1610 0108 38800000 		li 4,0
 1611 010c 7C651B78 		mr 5,3
 1612 0110 7FC3F378 		mr 3,30
 1613 0114 4CC63182 		crxor 6,6,6
 1614 0118 48000001 		bl _ZN10OptionList7SetNameEiPKcz
 1615              		.loc 5 45 0
 1616 011c 3C600000 		lis 3,.LC6@ha
 1617 0120 83DF00CC 		lwz 30,204(31)
 1618              	.LVL124:
 1619 0124 38630018 		la 3,.LC6@l(3)
 1620 0128 48000001 		bl gettext
 1621 012c 38800001 		li 4,1
 1622 0130 7C651B78 		mr 5,3
 1623 0134 7FC3F378 		mr 3,30
 1624 0138 4CC63182 		crxor 6,6,6
 1625 013c 48000001 		bl _ZN10OptionList7SetNameEiPKcz
 1626              		.loc 5 46 0
 1627 0140 3C600000 		lis 3,.LC7@ha
 1628 0144 83DF00CC 		lwz 30,204(31)
 1629              	.LVL125:
 1630 0148 38630024 		la 3,.LC7@l(3)
 1631 014c 48000001 		bl gettext
 1632 0150 38800002 		li 4,2
 1633 0154 7C651B78 		mr 5,3
 1634 0158 7FC3F378 		mr 3,30
 1635 015c 4CC63182 		crxor 6,6,6
 1636 0160 48000001 		bl _ZN10OptionList7SetNameEiPKcz
 1637              		.loc 5 47 0
 1638 0164 3C600000 		lis 3,.LC8@ha
 1639 0168 83DF00CC 		lwz 30,204(31)
 1640              	.LVL126:
 1641 016c 38630030 		la 3,.LC8@l(3)
 1642 0170 48000001 		bl gettext
 1643 0174 38800003 		li 4,3
 1644 0178 7C651B78 		mr 5,3
 1645 017c 7FC3F378 		mr 3,30
 1646 0180 4CC63182 		crxor 6,6,6
 1647 0184 48000001 		bl _ZN10OptionList7SetNameEiPKcz
 1648              		.loc 5 48 0
 1649 0188 3C600000 		lis 3,.LC9@ha
 1650 018c 83DF00CC 		lwz 30,204(31)
 1651              	.LVL127:
 1652 0190 3863003C 		la 3,.LC9@l(3)
 1653 0194 48000001 		bl gettext
 1654 0198 38800004 		li 4,4
 1655 019c 7C651B78 		mr 5,3
 1656 01a0 7FC3F378 		mr 3,30
 1657 01a4 4CC63182 		crxor 6,6,6
 1658 01a8 48000001 		bl _ZN10OptionList7SetNameEiPKcz
 1659              		.loc 5 49 0
 1660 01ac 3C600000 		lis 3,.LC10@ha
 1661 01b0 83DF00CC 		lwz 30,204(31)
 1662              	.LVL128:
 1663 01b4 3863004C 		la 3,.LC10@l(3)
 1664 01b8 48000001 		bl gettext
 1665 01bc 38800005 		li 4,5
 1666 01c0 7C651B78 		mr 5,3
 1667 01c4 7FC3F378 		mr 3,30
 1668 01c8 4CC63182 		crxor 6,6,6
 1669 01cc 48000001 		bl _ZN10OptionList7SetNameEiPKcz
 1670              		.loc 5 56 0
 1671 01d0 813F0000 		lwz 9,0(31)
 1672 01d4 7FE3FB78 		mr 3,31
 1673 01d8 800900E0 		lwz 0,224(9)
 1674 01dc 7C0903A6 		mtctr 0
 1675 01e0 4E800421 		bctrl
 1676              	.LBE2358:
 1677              		.loc 5 57 0
 1678 01e4 80010014 		lwz 0,20(1)
 1679 01e8 83C10008 		lwz 30,8(1)
 1680 01ec 7C0803A6 		mtlr 0
 1681 01f0 83E1000C 		lwz 31,12(1)
 1682              	.LVL129:
 1683 01f4 38210010 		addi 1,1,16
 1684              	.LCFI35:
 1685              		.cfi_def_cfa_offset 0
 1686              		.cfi_restore 31
 1687              		.cfi_restore 30
 1688 01f8 4E800020 		blr
 1689              		.cfi_endproc
 1690              	.LFE1665:
 1691              		.size	_ZN13CustomPathsSM15SetupOptionNameEv, .-_ZN13CustomPathsSM15SetupOptionNameEv
 1692              		.section	.text._ZN13CustomPathsSMD0Ev,"axG",@progbits,_ZN13CustomPathsSMD0Ev,comdat
 1693              		.align 2
 1694              		.weak	_ZThn176_N13CustomPathsSMD0Ev
 1695              		.type	_ZThn176_N13CustomPathsSMD0Ev, @function
 1696              	_ZThn176_N13CustomPathsSMD0Ev:
 1697              	.LFB2424:
 1698              		.cfi_startproc
 1699 0000 3863FF50 		addi 3,3,-176
 1700 0004 48000004 		b .LTHUNK1
 1701              		.cfi_endproc
 1702              	.LFE2424:
 1703              		.size	_ZThn176_N13CustomPathsSMD0Ev, .-_ZThn176_N13CustomPathsSMD0Ev
 1704              		.align 2
 1705              		.weak	_ZN13CustomPathsSMD0Ev
 1706              		.type	_ZN13CustomPathsSMD0Ev, @function
 1707              	_ZN13CustomPathsSMD0Ev:
 1708              	.LFB2246:
 1709              		.loc 4 30 0
 1710              		.cfi_startproc
 1711              	.LVL130:
 1712 0008 7C0802A6 		mflr 0
 1713 000c 9421FFF0 		stwu 1,-16(1)
 1714              	.LCFI36:
 1715              		.cfi_def_cfa_offset 16
 1716              		.cfi_register 65, 0
 1717              	.LBB2362:
 1718              	.LBB2363:
 1719              	.LBB2364:
 1720 0010 3D200000 		lis 9,_ZTV13CustomPathsSM+8@ha
 1721 0014 39290008 		la 9,_ZTV13CustomPathsSM+8@l(9)
 1722              	.LBE2364:
 1723              	.LBE2363:
 1724              	.LBE2362:
 1725 0018 93E1000C 		stw 31,12(1)
 1726 001c 90010014 		stw 0,20(1)
 1727              	.LBB2369:
 1728              	.LBB2367:
 1729              	.LBB2365:
 1730              		.loc 4 30 0
 1731 0020 380900F0 		addi 0,9,240
 1732              		.cfi_offset 65, 4
 1733              		.cfi_offset 31, -4
 1734 0024 900300B0 		stw 0,176(3)
 1735              	.LBE2365:
 1736              	.LBE2367:
 1737              	.LBE2369:
 1738 0028 7C7F1B78 		mr 31,3
 1739              	.LVL131:
 1740              	.LBB2370:
 1741              	.LBB2368:
 1742              	.LBB2366:
 1743 002c 91230000 		stw 9,0(3)
 1744 0030 48000001 		bl _ZN15SettingsBrowserD2Ev
 1745              	.LVL132:
 1746              	.LBE2366:
 1747              	.LBE2368:
 1748              	.LBE2370:
 1749 0034 7FE3FB78 		mr 3,31
 1750 0038 48000001 		bl _ZdlPv
 1751 003c 80010014 		lwz 0,20(1)
 1752 0040 83E1000C 		lwz 31,12(1)
 1753              	.LVL133:
 1754 0044 7C0803A6 		mtlr 0
 1755 0048 38210010 		addi 1,1,16
 1756              	.LCFI37:
 1757              		.cfi_def_cfa_offset 0
 1758              		.cfi_restore 31
 1759 004c 4E800020 		blr
 1760              		.cfi_endproc
 1761              	.LFE2246:
 1762              		.size	_ZN13CustomPathsSMD0Ev, .-_ZN13CustomPathsSMD0Ev
 1763              		.section	".text"
 1764              		.align 2
 1765              		.globl _ZN13CustomPathsSM24OnPathBrowserButtonClickEP11PathBrowserhbRKSs
 1766              		.type	_ZN13CustomPathsSM24OnPathBrowserButtonClickEP11PathBrowserhbRKSs, @function
 1767              	_ZN13CustomPathsSM24OnPathBrowserButtonClickEP11PathBrowserhbRKSs:
 1768              	.LFB1669:
 1769              		.loc 5 201 0
 1770              		.cfi_startproc
 1771              		.cfi_personality 0,__gxx_personality_v0
 1772              		.cfi_lsda 0,.LLSDA1669
 1773              	.LVL134:
 1774 01fc 7C0802A6 		mflr 0
 1775 0200 9421FFD0 		stwu 1,-48(1)
 1776              	.LCFI38:
 1777              		.cfi_def_cfa_offset 48
 1778              		.cfi_register 65, 0
 1779 0204 9361001C 		stw 27,28(1)
 1780 0208 7CFB3B78 		mr 27,7
 1781              		.cfi_offset 27, -20
 1782 020c 90010034 		stw 0,52(1)
 1783 0210 93810020 		stw 28,32(1)
 1784 0214 7CBC2B78 		mr 28,5
 1785              		.cfi_offset 28, -16
 1786              		.cfi_offset 65, 4
 1787              	.LBB2474:
 1788              		.loc 5 202 0
 1789 0218 81240000 		lwz 9,0(4)
 1790 021c 38A0FFEC 		li 5,-20
 1791              	.LVL135:
 1792              	.LBE2474:
 1793              		.loc 5 201 0
 1794 0220 93A10024 		stw 29,36(1)
 1795 0224 7C7D1B78 		mr 29,3
 1796              		.cfi_offset 29, -12
 1797              	.LBB2550:
 1798              		.loc 5 202 0
 1799 0228 80090088 		lwz 0,136(9)
 1800 022c 7C832378 		mr 3,4
 1801              	.LVL136:
 1802              	.LBE2550:
 1803              		.loc 5 201 0
 1804 0230 93C10028 		stw 30,40(1)
 1805 0234 7C9E2378 		mr 30,4
 1806              		.cfi_offset 30, -8
 1807 0238 93E1002C 		stw 31,44(1)
 1808              	.LBB2551:
 1809              		.loc 5 202 0
 1810 023c 38800080 		li 4,128
 1811              	.LVL137:
 1812              	.LBE2551:
 1813              		.loc 5 201 0
 1814 0240 7CDF3378 		mr 31,6
 1815              		.cfi_offset 31, -4
 1816              	.LBB2552:
 1817              		.loc 5 202 0
 1818 0244 7C0903A6 		mtctr 0
 1819 0248 38C00000 		li 6,0
 1820              	.LVL138:
 1821              	.LEHB0:
 1822 024c 4E800421 		bctrl
 1823              	.LVL139:
 1824              	.LBB2475:
 1825              		.loc 5 204 0
 1826 0250 2F9F0000 		cmpwi 7,31,0
 1827 0254 419E0014 		beq- 7,.L108
 1828              	.LVL140:
 1829              	.LBB2476:
 1830              	.LBB2477:
 1831              	.LBB2478:
 1832              	.LBB2479:
 1833              	.LBB2480:
 1834              	.LBB2481:
 1835              		.file 6 "d:\\devkitpro\\devkitppc\\bin\\../lib/gcc/powerpc-eabi/4.6.3/../../../../powerpc-eabi/inc
 1836              		.loc 6 288 0
 1837 0258 80DB0000 		lwz 6,0(27)
 1838              	.LBE2481:
 1839              	.LBE2480:
 1840              	.LBE2479:
 1841              	.LBE2478:
 1842              	.LBE2477:
 1843              		.loc 5 206 0
 1844 025c 8006FFF4 		lwz 0,-12(6)
 1845 0260 2F800000 		cmpwi 7,0,0
 1846 0264 409E00D0 		bne- 7,.L123
 1847              	.LVL141:
 1848              	.L108:
 1849              	.LBE2476:
 1850              	.LBE2475:
 1851              		.loc 5 220 0
 1852 0268 813D0000 		lwz 9,0(29)
 1853 026c 7FA3EB78 		mr 3,29
 1854 0270 3F800000 		lis 28,_ZN11Application8instanceE@ha
 1855 0274 800900E0 		lwz 0,224(9)
 1856 0278 7C0903A6 		mtctr 0
 1857 027c 4E800421 		bctrl
 1858              		.loc 5 222 0
 1859 0280 48000018 		b .L109
 1860              	.L110:
 1861              		.loc 5 223 0
 1862 0284 813F0000 		lwz 9,0(31)
 1863 0288 7FE3FB78 		mr 3,31
 1864 028c 800900D8 		lwz 0,216(9)
 1865 0290 7C0903A6 		mtctr 0
 1866 0294 4E800421 		bctrl
 1867              	.L109:
 1868              		.loc 5 222 0 discriminator 1
 1869 0298 813E0000 		lwz 9,0(30)
 1870 029c 7FC3F378 		mr 3,30
 1871 02a0 8009009C 		lwz 0,156(9)
 1872 02a4 7C0903A6 		mtctr 0
 1873 02a8 4E800421 		bctrl
 1874 02ac 2F830000 		cmpwi 7,3,0
 1875 02b0 419E0028 		beq- 7,.L124
 1876              	.LBB2538:
 1877              	.LBB2539:
 1878              		.file 7 "d:/Projects/SaveGameManager/savegame-manager-gx/trunk/source/Settings/menus/../../Control
 1879              		.loc 7 27 0
 1880 02b4 83FC0000 		lwz 31,_ZN11Application8instanceE@l(28)
 1881 02b8 2F9F0000 		cmpwi 7,31,0
 1882 02bc 409EFFC8 		bne+ 7,.L110
 1883 02c0 38600278 		li 3,632
 1884 02c4 48000001 		bl _Znwj
 1885              	.LEHE0:
 1886 02c8 7C7F1B78 		mr 31,3
 1887              	.LEHB1:
 1888 02cc 48000001 		bl _ZN11ApplicationC1Ev
 1889              	.LEHE1:
 1890 02d0 93FC0000 		stw 31,_ZN11Application8instanceE@l(28)
 1891 02d4 4BFFFFB0 		b .L110
 1892              	.L124:
 1893              	.LBE2539:
 1894              	.LBE2538:
 1895              		.loc 5 225 0
 1896 02d8 813D0000 		lwz 9,0(29)
 1897 02dc 7FA3EB78 		mr 3,29
 1898 02e0 38800080 		li 4,128
 1899 02e4 38A00014 		li 5,20
 1900 02e8 80090088 		lwz 0,136(9)
 1901 02ec 38C00000 		li 6,0
 1902 02f0 7C0903A6 		mtctr 0
 1903              	.LEHB2:
 1904 02f4 4E800421 		bctrl
 1905              	.LBB2540:
 1906              	.LBB2541:
 1907              		.loc 7 27 0
 1908 02f8 83FC0000 		lwz 31,_ZN11Application8instanceE@l(28)
 1909 02fc 2F9F0000 		cmpwi 7,31,0
 1910 0300 419E013C 		beq- 7,.L125
 1911              	.LBE2541:
 1912              	.LBE2540:
 1913              		.loc 5 226 0
 1914 0304 7FE3FB78 		mr 3,31
 1915 0308 7FC4F378 		mr 4,30
 1916 030c 48000001 		bl _ZN11Application13PushForDeleteEP10GuiElement
 1917              	.LBE2552:
 1918              		.loc 5 227 0
 1919 0310 80010034 		lwz 0,52(1)
 1920 0314 8361001C 		lwz 27,28(1)
 1921              	.LVL142:
 1922 0318 7C0803A6 		mtlr 0
 1923 031c 83810020 		lwz 28,32(1)
 1924 0320 83A10024 		lwz 29,36(1)
 1925              	.LVL143:
 1926 0324 83C10028 		lwz 30,40(1)
 1927              	.LVL144:
 1928 0328 83E1002C 		lwz 31,44(1)
 1929 032c 38210030 		addi 1,1,48
 1930              		.cfi_remember_state
 1931              	.LCFI39:
 1932              		.cfi_def_cfa_offset 0
 1933              		.cfi_restore 31
 1934              		.cfi_restore 30
 1935              		.cfi_restore 29
 1936              		.cfi_restore 28
 1937              		.cfi_restore 27
 1938 0330 4E800020 		blr
 1939              	.LVL145:
 1940              	.L123:
 1941              	.LCFI40:
 1942              		.cfi_restore_state
 1943              	.LBB2553:
 1944              	.LBB2545:
 1945              	.LBB2536:
 1946              		.loc 5 206 0 discriminator 1
 1947 0334 73800001 		andi. 0,28,1
 1948 0338 41820090 		beq- 0,.L97
 1949              	.LBB2482:
 1950              		.loc 5 208 0 discriminator 4
 1951 033c 3861000C 		addi 3,1,12
 1952 0340 7F64DB78 		mr 4,27
 1953 0344 48000001 		bl _ZNSsC1ERKSs
 1954              	.LEHE2:
 1955              	.LVL146:
 1956              	.L98:
 1957              	.LBB2483:
 1958              	.LBB2484:
 1959              	.LBB2485:
 1960              	.LBB2486:
 1961              	.LBB2487:
 1962              		.loc 6 288 0 discriminator 1
 1963 0348 80C1000C 		lwz 6,12(1)
 1964              	.LBE2487:
 1965              	.LBE2486:
 1966              	.LBE2485:
 1967              	.LBE2484:
 1968              	.LBE2483:
 1969              	.LBB2489:
 1970              	.LBB2490:
 1971              	.LBB2491:
 1972              	.LBB2492:
 1973              		.loc 6 311 0 discriminator 1
 1974 034c 8006FFFC 		lwz 0,-4(6)
 1975              	.LBE2492:
 1976              	.LBE2491:
 1977              	.LBE2490:
 1978              	.LBE2489:
 1979              	.LBB2496:
 1980              	.LBB2488:
 1981              		.loc 6 711 0 discriminator 1
 1982 0350 83E6FFF4 		lwz 31,-12(6)
 1983              	.LVL147:
 1984              	.LBE2488:
 1985              	.LBE2496:
 1986              	.LBB2497:
 1987              	.LBB2495:
 1988              	.LBB2494:
 1989              	.LBB2493:
 1990              		.loc 6 311 0 discriminator 1
 1991 0354 2F800000 		cmpwi 7,0,0
 1992 0358 419C0010 		blt- 7,.L99
 1993              		.loc 6 312 0
 1994 035c 3861000C 		addi 3,1,12
 1995              	.LVL148:
 1996              	.LEHB3:
 1997 0360 48000001 		bl _ZNSs12_M_leak_hardEv
 1998              	.LVL149:
 1999 0364 80C1000C 		lwz 6,12(1)
 2000              	.L99:
 2001              	.LVL150:
 2002              	.LBE2493:
 2003              	.LBE2494:
 2004              	.LBE2495:
 2005              	.LBE2497:
 2006              		.loc 5 209 0
 2007 0368 7FE6FA14 		add 31,6,31
 2008              	.LVL151:
 2009 036c 881FFFFF 		lbz 0,-1(31)
 2010 0370 2F80002F 		cmpwi 7,0,47
 2011 0374 419E0078 		beq- 7,.L126
 2012              	.L100:
 2013              	.LVL152:
 2014              		.loc 5 212 0
 2015 0378 3CA00000 		lis 5,.LC12@ha
 2016 037c 807D00D4 		lwz 3,212(29)
 2017 0380 809D00D8 		lwz 4,216(29)
 2018 0384 38A5006C 		la 5,.LC12@l(5)
 2019 0388 4CC63182 		crxor 6,6,6
 2020 038c 48000001 		bl snprintf
 2021              	.LEHE3:
 2022              	.LVL153:
 2023              	.LBB2498:
 2024              	.LBB2499:
 2025              	.LBB2500:
 2026              	.LBB2501:
 2027              	.LBB2502:
 2028              	.LBB2503:
 2029              		.loc 6 288 0
 2030 0390 8121000C 		lwz 9,12(1)
 2031              	.LBE2503:
 2032              	.LBE2502:
 2033              	.LBE2501:
 2034              	.LBB2504:
 2035              	.LBB2505:
 2036              		.loc 6 235 0
 2037 0394 3D600000 		lis 11,_ZNSs4_Rep20_S_empty_rep_storageE@ha
 2038 0398 380B0000 		la 0,_ZNSs4_Rep20_S_empty_rep_storageE@l(11)
 2039              	.LBE2505:
 2040              	.LBE2504:
 2041              		.loc 6 534 0
 2042 039c 3869FFF4 		addi 3,9,-12
 2043              	.LVL154:
 2044              	.LBB2513:
 2045              	.LBB2512:
 2046              		.loc 6 235 0
 2047 03a0 7F830000 		cmpw 7,3,0
 2048 03a4 419EFEC4 		beq+ 7,.L108
 2049              	.LVL155:
 2050              	.LBB2506:
 2051              	.LBB2507:
 2052              	.LBB2508:
 2053              		.file 8 "d:\\devkitpro\\devkitppc\\bin\\../lib/gcc/powerpc-eabi/4.6.3/../../../../powerpc-eabi/inc
 2054              		.loc 8 66 0
 2055 03a8 8169FFFC 		lwz 11,-4(9)
 2056              	.LVL156:
 2057              	.LBE2508:
 2058              	.LBE2507:
 2059              	.LBE2506:
 2060              		.loc 6 240 0
 2061 03ac 2F8B0000 		cmpwi 7,11,0
 2062              	.LBB2511:
 2063              	.LBB2510:
 2064              	.LBB2509:
 2065              		.loc 8 67 0
 2066 03b0 396BFFFF 		addi 11,11,-1
 2067 03b4 9169FFFC 		stw 11,-4(9)
 2068              	.LBE2509:
 2069              	.LBE2510:
 2070              	.LBE2511:
 2071              		.loc 6 240 0
 2072 03b8 419DFEB0 		bgt+ 7,.L108
 2073              		.loc 6 244 0
 2074 03bc 38810008 		addi 4,1,8
 2075 03c0 48000001 		bl _ZNSs4_Rep10_M_destroyERKSaIcE
 2076              	.LVL157:
 2077 03c4 4BFFFEA4 		b .L108
 2078              	.LVL158:
 2079              	.L97:
 2080              	.LBE2512:
 2081              	.LBE2513:
 2082              	.LBE2500:
 2083              	.LBE2499:
 2084              	.LBE2498:
 2085              	.LBE2482:
 2086              		.loc 5 214 0 discriminator 1
 2087 03c8 73800002 		andi. 0,28,2
 2088 03cc 41A2FE9C 		beq- 0,.L108
 2089              		.loc 5 216 0 discriminator 4
 2090 03d0 807D00D4 		lwz 3,212(29)
 2091 03d4 3CA00000 		lis 5,.LC12@ha
 2092 03d8 809D00D8 		lwz 4,216(29)
 2093 03dc 38A5006C 		la 5,.LC12@l(5)
 2094              	.LEHB4:
 2095 03e0 4CC63182 		crxor 6,6,6
 2096 03e4 48000001 		bl snprintf
 2097              	.LEHE4:
 2098 03e8 4BFFFE80 		b .L108
 2099              	.LVL159:
 2100              	.L126:
 2101              	.LBB2534:
 2102              	.LBB2514:
 2103              	.LBB2515:
 2104              	.LBB2516:
 2105              	.LBB2517:
 2106              		.loc 6 311 0
 2107 03ec 8006FFFC 		lwz 0,-4(6)
 2108              	.LBE2517:
 2109              	.LBE2516:
 2110              	.LBE2515:
 2111              	.LBE2514:
 2112              	.LBB2521:
 2113              	.LBB2522:
 2114              		.loc 6 711 0
 2115 03f0 83E6FFF4 		lwz 31,-12(6)
 2116              	.LVL160:
 2117              	.LBE2522:
 2118              	.LBE2521:
 2119              	.LBB2523:
 2120              	.LBB2520:
 2121              	.LBB2519:
 2122              	.LBB2518:
 2123              		.loc 6 311 0
 2124 03f4 2F800000 		cmpwi 7,0,0
 2125 03f8 419C0010 		blt- 7,.L101
 2126              		.loc 6 312 0
 2127 03fc 3861000C 		addi 3,1,12
 2128              	.LVL161:
 2129              	.LEHB5:
 2130 0400 48000001 		bl _ZNSs12_M_leak_hardEv
 2131              	.LVL162:
 2132 0404 80C1000C 		lwz 6,12(1)
 2133              	.L101:
 2134              	.LVL163:
 2135              	.LBE2518:
 2136              	.LBE2519:
 2137              	.LBE2520:
 2138              	.LBE2523:
 2139              		.loc 5 209 0
 2140 0408 7FE6FA14 		add 31,6,31
 2141              	.LVL164:
 2142 040c 881FFFFE 		lbz 0,-2(31)
 2143 0410 2F80003A 		cmpwi 7,0,58
 2144 0414 41BEFF64 		beq- 7,.L100
 2145              	.LVL165:
 2146              	.LBB2524:
 2147              	.LBB2525:
 2148              		.loc 6 711 0 discriminator 5
 2149 0418 8126FFF4 		lwz 9,-12(6)
 2150              	.LBE2525:
 2151              	.LBE2524:
 2152              		.loc 5 210 0 discriminator 5
 2153 041c 3889FFFF 		addi 4,9,-1
 2154              	.LVL166:
 2155              	.LBB2526:
 2156              	.LBB2527:
 2157              	.LBB2528:
 2158              	.LBB2529:
 2159              		.loc 6 318 0 discriminator 5
 2160 0420 7F844840 		cmplw 7,4,9
 2161 0424 419D005C 		bgt- 7,.L127
 2162              	.LVL167:
 2163              	.LBE2529:
 2164              	.LBE2528:
 2165              		.loc 6 1349 0
 2166 0428 3861000C 		addi 3,1,12
 2167              	.LVL168:
 2168 042c 38A00001 		li 5,1
 2169 0430 38C00000 		li 6,0
 2170 0434 48000001 		bl _ZNSs9_M_mutateEjjj
 2171              	.LEHE5:
 2172              	.LVL169:
 2173 0438 4BFFFF10 		b .L98
 2174              	.LVL170:
 2175              	.L125:
 2176              	.LBE2527:
 2177              	.LBE2526:
 2178              	.LBE2534:
 2179              	.LBE2536:
 2180              	.LBE2545:
 2181              	.LBB2546:
 2182              	.LBB2542:
 2183              		.loc 7 27 0
 2184 043c 38600278 		li 3,632
 2185              	.LEHB6:
 2186 0440 48000001 		bl _Znwj
 2187              	.LEHE6:
 2188 0444 7C7F1B78 		mr 31,3
 2189              	.LEHB7:
 2190 0448 48000001 		bl _ZN11ApplicationC1Ev
 2191              	.LEHE7:
 2192              	.LBE2542:
 2193              	.LBE2546:
 2194              		.loc 5 226 0
 2195 044c 7FE3FB78 		mr 3,31
 2196 0450 7FC4F378 		mr 4,30
 2197              	.LBB2547:
 2198              	.LBB2543:
 2199              		.loc 7 27 0
 2200 0454 93FC0000 		stw 31,_ZN11Application8instanceE@l(28)
 2201              	.LEHB8:
 2202              	.LBE2543:
 2203              	.LBE2547:
 2204              		.loc 5 226 0
 2205 0458 48000001 		bl _ZN11Application13PushForDeleteEP10GuiElement
 2206              	.LEHE8:
 2207              	.LBE2553:
 2208              		.loc 5 227 0
 2209 045c 80010034 		lwz 0,52(1)
 2210 0460 8361001C 		lwz 27,28(1)
 2211              	.LVL171:
 2212 0464 7C0803A6 		mtlr 0
 2213 0468 83810020 		lwz 28,32(1)
 2214 046c 83A10024 		lwz 29,36(1)
 2215              	.LVL172:
 2216 0470 83C10028 		lwz 30,40(1)
 2217              	.LVL173:
 2218 0474 83E1002C 		lwz 31,44(1)
 2219 0478 38210030 		addi 1,1,48
 2220              		.cfi_remember_state
 2221              		.cfi_restore 27
 2222              		.cfi_restore 28
 2223              		.cfi_restore 29
 2224              		.cfi_restore 30
 2225              		.cfi_restore 31
 2226              	.LCFI41:
 2227              		.cfi_def_cfa_offset 0
 2228 047c 4E800020 		blr
 2229              	.LVL174:
 2230              	.L127:
 2231              	.LCFI42:
 2232              		.cfi_restore_state
 2233              	.LBB2554:
 2234              	.LBB2548:
 2235              	.LBB2537:
 2236              	.LBB2535:
 2237              	.LBB2533:
 2238              	.LBB2532:
 2239              	.LBB2531:
 2240              	.LBB2530:
 2241              		.loc 6 319 0
 2242 0480 3C600000 		lis 3,.LC11@ha
 2243 0484 38630058 		la 3,.LC11@l(3)
 2244              	.LEHB9:
 2245 0488 48000001 		bl _ZSt20__throw_out_of_rangePKc
 2246              	.LEHE9:
 2247              	.LVL175:
 2248              	.L117:
 2249 048c 7C7F1B78 		mr 31,3
 2250              	.LBE2530:
 2251              	.LBE2531:
 2252              	.LBE2532:
 2253              	.LBE2533:
 2254              		.loc 5 212 0
 2255 0490 3861000C 		addi 3,1,12
 2256              	.LVL176:
 2257 0494 48000001 		bl _ZNSsD1Ev
 2258              	.LVL177:
 2259 0498 7FE3FB78 		mr 3,31
 2260              	.LEHB10:
 2261 049c 48000001 		bl _Unwind_Resume
 2262              	.LVL178:
 2263              	.L118:
 2264              	.L122:
 2265 04a0 7C7E1B78 		mr 30,3
 2266              	.LVL179:
 2267              	.LBE2535:
 2268              	.LBE2537:
 2269              	.LBE2548:
 2270              	.LBB2549:
 2271              	.LBB2544:
 2272              		.loc 7 27 0
 2273 04a4 7FE3FB78 		mr 3,31
 2274 04a8 48000001 		bl _ZdlPv
 2275 04ac 7FC3F378 		mr 3,30
 2276 04b0 48000001 		bl _Unwind_Resume
 2277              	.LEHE10:
 2278              	.LVL180:
 2279              	.L119:
 2280 04b4 4BFFFFEC 		b .L122
 2281              	.LBE2544:
 2282              	.LBE2549:
 2283              	.LBE2554:
 2284              		.cfi_endproc
 2285              	.LFE1669:
 2286              		.globl __gxx_personality_v0
 2287              		.section	.gcc_except_table,"a",@progbits
 2288              	.LLSDA1669:
 2289 0000 FF       		.byte	0xff
 2290 0001 FF       		.byte	0xff
 2291 0002 01       		.byte	0x1
 2292 0003 3B       		.uleb128 .LLSDACSE1669-.LLSDACSB1669
 2293              	.LLSDACSB1669:
 2294 0004 50       		.uleb128 .LEHB0-.LFB1669
 2295 0005 7C       		.uleb128 .LEHE0-.LEHB0
 2296 0006 00       		.uleb128 0
 2297 0007 00       		.uleb128 0
 2298 0008 D001     		.uleb128 .LEHB1-.LFB1669
 2299 000a 04       		.uleb128 .LEHE1-.LEHB1
 2300 000b A405     		.uleb128 .L118-.LFB1669
 2301 000d 00       		.uleb128 0
 2302 000e F801     		.uleb128 .LEHB2-.LFB1669
 2303 0010 54       		.uleb128 .LEHE2-.LEHB2
 2304 0011 00       		.uleb128 0
 2305 0012 00       		.uleb128 0
 2306 0013 E402     		.uleb128 .LEHB3-.LFB1669
 2307 0015 30       		.uleb128 .LEHE3-.LEHB3
 2308 0016 9005     		.uleb128 .L117-.LFB1669
 2309 0018 00       		.uleb128 0
 2310 0019 E403     		.uleb128 .LEHB4-.LFB1669
 2311 001b 08       		.uleb128 .LEHE4-.LEHB4
 2312 001c 00       		.uleb128 0
 2313 001d 00       		.uleb128 0
 2314 001e 8404     		.uleb128 .LEHB5-.LFB1669
 2315 0020 38       		.uleb128 .LEHE5-.LEHB5
 2316 0021 9005     		.uleb128 .L117-.LFB1669
 2317 0023 00       		.uleb128 0
 2318 0024 C404     		.uleb128 .LEHB6-.LFB1669
 2319 0026 04       		.uleb128 .LEHE6-.LEHB6
 2320 0027 00       		.uleb128 0
 2321 0028 00       		.uleb128 0
 2322 0029 CC04     		.uleb128 .LEHB7-.LFB1669
 2323 002b 04       		.uleb128 .LEHE7-.LEHB7
 2324 002c B805     		.uleb128 .L119-.LFB1669
 2325 002e 00       		.uleb128 0
 2326 002f DC04     		.uleb128 .LEHB8-.LFB1669
 2327 0031 04       		.uleb128 .LEHE8-.LEHB8
 2328 0032 00       		.uleb128 0
 2329 0033 00       		.uleb128 0
 2330 0034 8C05     		.uleb128 .LEHB9-.LFB1669
 2331 0036 04       		.uleb128 .LEHE9-.LEHB9
 2332 0037 9005     		.uleb128 .L117-.LFB1669
 2333 0039 00       		.uleb128 0
 2334 003a A005     		.uleb128 .LEHB10-.LFB1669
 2335 003c 18       		.uleb128 .LEHE10-.LEHB10
 2336 003d 00       		.uleb128 0
 2337 003e 00       		.uleb128 0
 2338              	.LLSDACSE1669:
 2339              		.section	".text"
 2340              		.size	_ZN13CustomPathsSM24OnPathBrowserButtonClickEP11PathBrowserhbRKSs, .-_ZN13CustomPathsSM24OnP
 2341              		.align 2
 2342              		.globl _ZN13CustomPathsSMC2Ev
 2343              		.type	_ZN13CustomPathsSMC2Ev, @function
 2344              	_ZN13CustomPathsSMC2Ev:
 2345              	.LFB1663:
 2346              		.loc 5 29 0
 2347              		.cfi_startproc
 2348              		.cfi_personality 0,__gxx_personality_v0
 2349              		.cfi_lsda 0,.LLSDA1663
 2350              	.LVL181:
 2351 04b8 9421FFD8 		stwu 1,-40(1)
 2352              	.LCFI43:
 2353              		.cfi_def_cfa_offset 40
 2354 04bc 7C0802A6 		mflr 0
 2355 04c0 93A1001C 		stw 29,28(1)
 2356              	.LBB2610:
 2357              	.LBB2611:
 2358              	.LBB2612:
 2359              		.file 9 "d:/Projects/SaveGameManager/savegame-manager-gx/trunk/source/Settings/menus/SettingsMenu.
 2360              		.loc 9 46 0
 2361 04c4 3FA00000 		lis 29,_ZN12SettingsMenu8instanceE@ha
 2362              		.cfi_offset 29, -12
 2363              		.cfi_register 65, 0
 2364              	.LBE2612:
 2365              	.LBE2611:
 2366              	.LBE2610:
 2367              		.loc 5 29 0
 2368 04c8 9001002C 		stw 0,44(1)
 2369 04cc 93C10020 		stw 30,32(1)
 2370 04d0 93E10024 		stw 31,36(1)
 2371              		.loc 5 29 0
 2372 04d4 7C7F1B78 		mr 31,3
 2373              		.cfi_offset 31, -4
 2374              		.cfi_offset 30, -8
 2375              		.cfi_offset 65, 4
 2376              	.LEHB11:
 2377              	.LBB2669:
 2378              		.loc 5 32 0
 2379 04d8 48000001 		bl _ZN15SettingsBrowserC2Ev
 2380              	.LEHE11:
 2381              	.LVL182:
 2382              	.LBB2618:
 2383              	.LBB2613:
 2384              		.loc 9 46 0
 2385 04dc 83DD0000 		lwz 30,_ZN12SettingsMenu8instanceE@l(29)
 2386              	.LBE2613:
 2387              	.LBE2618:
 2388              		.loc 5 32 0
 2389 04e0 3D200000 		lis 9,_ZTV13CustomPathsSM+8@ha
 2390 04e4 38000000 		li 0,0
 2391              	.LBB2619:
 2392              	.LBB2614:
 2393              		.loc 9 46 0
 2394 04e8 2F9E0000 		cmpwi 7,30,0
 2395              	.LBE2614:
 2396              	.LBE2619:
 2397              		.loc 5 32 0
 2398 04ec 39290008 		la 9,_ZTV13CustomPathsSM+8@l(9)
 2399 04f0 396900F0 		addi 11,9,240
 2400 04f4 913F0000 		stw 9,0(31)
 2401 04f8 917F00B0 		stw 11,176(31)
 2402 04fc 901F00D4 		stw 0,212(31)
 2403 0500 901F00D8 		stw 0,216(31)
 2404              	.LBB2620:
 2405              	.LBB2615:
 2406              		.loc 9 46 0
 2407 0504 419E00A4 		beq- 7,.L162
 2408              	.L129:
 2409              	.LBE2615:
 2410              	.LBE2620:
 2411              		.loc 5 34 0
 2412 0508 3C600000 		lis 3,.LC13@ha
 2413 050c 38630070 		la 3,.LC13@l(3)
 2414              	.LEHB12:
 2415 0510 48000001 		bl gettext
 2416              	.LEHE12:
 2417 0514 7C641B78 		mr 4,3
 2418 0518 38A1000A 		addi 5,1,10
 2419 051c 38610010 		addi 3,1,16
 2420              	.LEHB13:
 2421 0520 48000001 		bl _ZNSsC1EPKcRKSaIcE
 2422              	.LEHE13:
 2423              		.loc 5 227 0 discriminator 3
 2424 0524 83DE00D8 		lwz 30,216(30)
 2425              	.LVL183:
 2426              	.LBB2621:
 2427              	.LBB2622:
 2428              		.loc 9 52 0 discriminator 3
 2429 0528 2F9E0000 		cmpwi 7,30,0
 2430 052c 419E0094 		beq- 7,.L163
 2431              		.loc 9 52 0 is_stmt 0
 2432 0530 813E0000 		lwz 9,0(30)
 2433 0534 3861000C 		addi 3,1,12
 2434 0538 38810010 		addi 4,1,16
 2435              	.LVL184:
 2436 053c 83A900CC 		lwz 29,204(9)
 2437              	.LEHB14:
 2438 0540 48000001 		bl _ZNSsC1ERKSs
 2439              	.LEHE14:
 2440              	.LVL185:
 2441 0544 7FC3F378 		mr 3,30
 2442 0548 3881000C 		addi 4,1,12
 2443 054c 7FA903A6 		mtctr 29
 2444              	.LEHB15:
 2445 0550 4E800421 		bctrl
 2446              	.LEHE15:
 2447              	.LVL186:
 2448              	.LBB2623:
 2449              	.LBB2624:
 2450              	.LBB2625:
 2451              	.LBB2626:
 2452              	.LBB2627:
 2453              	.LBB2628:
 2454              		.loc 6 288 0 is_stmt 1
 2455 0554 8121000C 		lwz 9,12(1)
 2456              	.LBE2628:
 2457              	.LBE2627:
 2458              	.LBE2626:
 2459              	.LBB2629:
 2460              	.LBB2630:
 2461              		.loc 6 235 0
 2462 0558 3FC00000 		lis 30,_ZNSs4_Rep20_S_empty_rep_storageE@ha
 2463 055c 3BDE0000 		la 30,_ZNSs4_Rep20_S_empty_rep_storageE@l(30)
 2464              	.LBE2630:
 2465              	.LBE2629:
 2466              		.loc 6 534 0
 2467 0560 3869FFF4 		addi 3,9,-12
 2468              	.LVL187:
 2469              	.LBB2639:
 2470              	.LBB2637:
 2471              		.loc 6 235 0
 2472 0564 7F83F000 		cmpw 7,3,30
 2473 0568 409E0084 		bne- 7,.L164
 2474              	.LVL188:
 2475              	.L140:
 2476              	.LBE2637:
 2477              	.LBE2639:
 2478              	.LBE2625:
 2479              	.LBE2624:
 2480              	.LBE2623:
 2481              	.LBE2622:
 2482              	.LBE2621:
 2483              	.LBB2646:
 2484              	.LBB2647:
 2485              	.LBB2648:
 2486              	.LBB2649:
 2487              	.LBB2650:
 2488              	.LBB2651:
 2489              		.loc 6 288 0 discriminator 1
 2490 056c 81210010 		lwz 9,16(1)
 2491              	.LBE2651:
 2492              	.LBE2650:
 2493              	.LBE2649:
 2494              		.loc 6 534 0 discriminator 1
 2495 0570 3869FFF4 		addi 3,9,-12
 2496              	.LVL189:
 2497              	.LBB2652:
 2498              	.LBB2653:
 2499              		.loc 6 235 0 discriminator 1
 2500 0574 7F83F000 		cmpw 7,3,30
 2501 0578 409E0054 		bne- 7,.L165
 2502              	.LVL190:
 2503              	.L148:
 2504              	.LBE2653:
 2505              	.LBE2652:
 2506              	.LBE2648:
 2507              	.LBE2647:
 2508              	.LBE2646:
 2509              		.loc 5 36 0 discriminator 1
 2510 057c 7FE3FB78 		mr 3,31
 2511              	.LEHB16:
 2512 0580 48000001 		bl _ZN13CustomPathsSM15SetupOptionNameEv
 2513              		.loc 5 37 0
 2514 0584 7FE3FB78 		mr 3,31
 2515 0588 48000001 		bl _ZN15SettingsBrowser4showEv
 2516              	.LBE2669:
 2517              		.loc 5 38 0
 2518 058c 8001002C 		lwz 0,44(1)
 2519 0590 83A1001C 		lwz 29,28(1)
 2520 0594 7C0803A6 		mtlr 0
 2521 0598 83C10020 		lwz 30,32(1)
 2522 059c 83E10024 		lwz 31,36(1)
 2523              	.LVL191:
 2524 05a0 38210028 		addi 1,1,40
 2525              		.cfi_remember_state
 2526              	.LCFI44:
 2527              		.cfi_def_cfa_offset 0
 2528              		.cfi_restore 31
 2529              		.cfi_restore 30
 2530              		.cfi_restore 29
 2531 05a4 4E800020 		blr
 2532              	.LVL192:
 2533              	.L162:
 2534              	.LCFI45:
 2535              		.cfi_restore_state
 2536              	.LBB2670:
 2537              	.LBB2664:
 2538              	.LBB2616:
 2539              		.loc 9 46 0
 2540 05a8 386003D4 		li 3,980
 2541 05ac 48000001 		bl _Znwj
 2542              	.LEHE16:
 2543 05b0 7C7E1B78 		mr 30,3
 2544              	.LEHB17:
 2545 05b4 48000001 		bl _ZN12SettingsMenuC1Ev
 2546              	.LEHE17:
 2547 05b8 93DD0000 		stw 30,_ZN12SettingsMenu8instanceE@l(29)
 2548 05bc 4BFFFF4C 		b .L129
 2549              	.LVL193:
 2550              	.L163:
 2551 05c0 3FC00000 		lis 30,_ZNSs4_Rep20_S_empty_rep_storageE@ha
 2552 05c4 3BDE0000 		la 30,_ZNSs4_Rep20_S_empty_rep_storageE@l(30)
 2553 05c8 4BFFFFA4 		b .L140
 2554              	.LVL194:
 2555              	.L165:
 2556              	.LBE2616:
 2557              	.LBE2664:
 2558              	.LBB2665:
 2559              	.LBB2663:
 2560              	.LBB2662:
 2561              	.LBB2661:
 2562              	.LBB2660:
 2563              	.LBB2654:
 2564              	.LBB2655:
 2565              	.LBB2656:
 2566              		.loc 8 66 0
 2567 05cc 8169FFFC 		lwz 11,-4(9)
 2568              	.LVL195:
 2569              	.LBE2656:
 2570              	.LBE2655:
 2571              	.LBE2654:
 2572              		.loc 6 240 0
 2573 05d0 2F8B0000 		cmpwi 7,11,0
 2574              	.LBB2659:
 2575              	.LBB2658:
 2576              	.LBB2657:
 2577              		.loc 8 67 0
 2578 05d4 396BFFFF 		addi 11,11,-1
 2579 05d8 9169FFFC 		stw 11,-4(9)
 2580              	.LBE2657:
 2581              	.LBE2658:
 2582              	.LBE2659:
 2583              		.loc 6 240 0
 2584 05dc 419DFFA0 		bgt+ 7,.L148
 2585              		.loc 6 244 0
 2586 05e0 38810008 		addi 4,1,8
 2587 05e4 48000001 		bl _ZNSs4_Rep10_M_destroyERKSaIcE
 2588              	.LVL196:
 2589 05e8 4BFFFF94 		b .L148
 2590              	.LVL197:
 2591              	.L164:
 2592              	.LBE2660:
 2593              	.LBE2661:
 2594              	.LBE2662:
 2595              	.LBE2663:
 2596              	.LBE2665:
 2597              	.LBB2666:
 2598              	.LBB2644:
 2599              	.LBB2643:
 2600              	.LBB2642:
 2601              	.LBB2641:
 2602              	.LBB2640:
 2603              	.LBB2638:
 2604              	.LBB2631:
 2605              	.LBB2632:
 2606              	.LBB2633:
 2607              		.loc 8 66 0
 2608 05ec 8169FFFC 		lwz 11,-4(9)
 2609              	.LVL198:
 2610              	.LBE2633:
 2611              	.LBE2632:
 2612              	.LBE2631:
 2613              		.loc 6 240 0
 2614 05f0 2F8B0000 		cmpwi 7,11,0
 2615              	.LBB2636:
 2616              	.LBB2635:
 2617              	.LBB2634:
 2618              		.loc 8 67 0
 2619 05f4 396BFFFF 		addi 11,11,-1
 2620 05f8 9169FFFC 		stw 11,-4(9)
 2621              	.LBE2634:
 2622              	.LBE2635:
 2623              	.LBE2636:
 2624              		.loc 6 240 0
 2625 05fc 419DFF70 		bgt+ 7,.L140
 2626              		.loc 6 244 0
 2627 0600 38810009 		addi 4,1,9
 2628 0604 48000001 		bl _ZNSs4_Rep10_M_destroyERKSaIcE
 2629              	.LVL199:
 2630 0608 4BFFFF64 		b .L140
 2631              	.LVL200:
 2632              	.L152:
 2633              	.L161:
 2634 060c 7C7E1B78 		mr 30,3
 2635              	.L132:
 2636              	.LBE2638:
 2637              	.LBE2640:
 2638              	.LBE2641:
 2639              	.LBE2642:
 2640              	.LBE2643:
 2641              	.LBE2644:
 2642              	.LBE2666:
 2643              		.loc 5 32 0
 2644 0610 7FE3FB78 		mr 3,31
 2645 0614 48000001 		bl _ZN15SettingsBrowserD2Ev
 2646 0618 7FC3F378 		mr 3,30
 2647              	.LEHB18:
 2648 061c 48000001 		bl _Unwind_Resume
 2649              	.LEHE18:
 2650              	.L155:
 2651 0620 7C7D1B78 		mr 29,3
 2652              	.LBB2667:
 2653              	.LBB2617:
 2654              		.loc 9 46 0
 2655 0624 7FC3F378 		mr 3,30
 2656 0628 48000001 		bl _ZdlPv
 2657 062c 7FBEEB78 		mr 30,29
 2658 0630 4BFFFFE0 		b .L132
 2659              	.LVL201:
 2660              	.L156:
 2661 0634 7C7E1B78 		mr 30,3
 2662              	.LBE2617:
 2663              	.LBE2667:
 2664              	.LBB2668:
 2665              	.LBB2645:
 2666              		.loc 9 52 0
 2667 0638 3861000C 		addi 3,1,12
 2668 063c 48000001 		bl _ZNSsD1Ev
 2669              	.L135:
 2670              	.LBE2645:
 2671              	.LBE2668:
 2672              		.loc 5 34 0
 2673 0640 38610010 		addi 3,1,16
 2674              	.LVL202:
 2675 0644 48000001 		bl _ZNSsD1Ev
 2676              	.LVL203:
 2677 0648 7FC3F378 		mr 3,30
 2678 064c 4BFFFFC0 		b .L161
 2679              	.LVL204:
 2680              	.L153:
 2681 0650 4BFFFFBC 		b .L161
 2682              	.LVL205:
 2683              	.L154:
 2684 0654 7C7E1B78 		mr 30,3
 2685 0658 4BFFFFE8 		b .L135
 2686              	.LBE2670:
 2687              		.cfi_endproc
 2688              	.LFE1663:
 2689              		.section	.gcc_except_table
 2690              	.LLSDA1663:
 2691 003f FF       		.byte	0xff
 2692 0040 FF       		.byte	0xff
 2693 0041 01       		.byte	0x1
 2694 0042 2B       		.uleb128 .LLSDACSE1663-.LLSDACSB1663
 2695              	.LLSDACSB1663:
 2696 0043 20       		.uleb128 .LEHB11-.LFB1663
 2697 0044 04       		.uleb128 .LEHE11-.LEHB11
 2698 0045 00       		.uleb128 0
 2699 0046 00       		.uleb128 0
 2700 0047 58       		.uleb128 .LEHB12-.LFB1663
 2701 0048 04       		.uleb128 .LEHE12-.LEHB12
 2702 0049 D402     		.uleb128 .L152-.LFB1663
 2703 004b 00       		.uleb128 0
 2704 004c 68       		.uleb128 .LEHB13-.LFB1663
 2705 004d 04       		.uleb128 .LEHE13-.LEHB13
 2706 004e 9803     		.uleb128 .L153-.LFB1663
 2707 0050 00       		.uleb128 0
 2708 0051 8801     		.uleb128 .LEHB14-.LFB1663
 2709 0053 04       		.uleb128 .LEHE14-.LEHB14
 2710 0054 9C03     		.uleb128 .L154-.LFB1663
 2711 0056 00       		.uleb128 0
 2712 0057 9801     		.uleb128 .LEHB15-.LFB1663
 2713 0059 04       		.uleb128 .LEHE15-.LEHB15
 2714 005a FC02     		.uleb128 .L156-.LFB1663
 2715 005c 00       		.uleb128 0
 2716 005d C801     		.uleb128 .LEHB16-.LFB1663
 2717 005f 30       		.uleb128 .LEHE16-.LEHB16
 2718 0060 D402     		.uleb128 .L152-.LFB1663
 2719 0062 00       		.uleb128 0
 2720 0063 FC01     		.uleb128 .LEHB17-.LFB1663
 2721 0065 04       		.uleb128 .LEHE17-.LEHB17
 2722 0066 E802     		.uleb128 .L155-.LFB1663
 2723 0068 00       		.uleb128 0
 2724 0069 E402     		.uleb128 .LEHB18-.LFB1663
 2725 006b 04       		.uleb128 .LEHE18-.LEHB18
 2726 006c 00       		.uleb128 0
 2727 006d 00       		.uleb128 0
 2728              	.LLSDACSE1663:
 2729              		.section	".text"
 2730              		.size	_ZN13CustomPathsSMC2Ev, .-_ZN13CustomPathsSMC2Ev
 2731              		.section	.text._ZNSt8_Rb_treeIPN7sigslot12_signal_baseINS0_15single_threadedEEES4_St9_IdentityIS4_
 2732              		.align 2
 2733              		.weak	_ZNSt8_Rb_treeIPN7sigslot12_signal_baseINS0_15single_threadedEEES4_St9_IdentityIS4_ESt4lessI
 2734              		.type	_ZNSt8_Rb_treeIPN7sigslot12_signal_baseINS0_15single_threadedEEES4_St9_IdentityIS4_ESt4lessI
 2735              	_ZNSt8_Rb_treeIPN7sigslot12_signal_baseINS0_15single_threadedEEES4_St9_IdentityIS4_ESt4lessIS4_ESaI
 2736              	.LFB2006:
 2737              		.file 10 "d:\\devkitpro\\devkitppc\\bin\\../lib/gcc/powerpc-eabi/4.6.3/../../../../powerpc-eabi/in
 2738              		.loc 10 1264 0
 2739              		.cfi_startproc
 2740              	.LVL206:
 2741 0000 7C0802A6 		mflr 0
 2742 0004 9421FFE0 		stwu 1,-32(1)
 2743              	.LCFI46:
 2744              		.cfi_def_cfa_offset 32
 2745              		.cfi_register 65, 0
 2746 0008 93810010 		stw 28,16(1)
 2747 000c 90010024 		stw 0,36(1)
 2748 0010 9361000C 		stw 27,12(1)
 2749 0014 7C9B2378 		mr 27,4
 2750              		.cfi_offset 27, -20
 2751              		.cfi_offset 65, 4
 2752              		.cfi_offset 28, -16
 2753              	.LBB2710:
 2754              	.LBB2711:
 2755              	.LBB2712:
 2756              		.loc 5 227 0
 2757 0018 83830008 		lwz 28,8(3)
 2758              	.LVL207:
 2759              	.LBE2712:
 2760              	.LBE2711:
 2761              	.LBE2710:
 2762              		.loc 10 1264 0
 2763 001c 93A10014 		stw 29,20(1)
 2764              	.LBB2737:
 2765              	.LBB2729:
 2766              	.LBB2725:
 2767              		.loc 10 1272 0
 2768 0020 3BA30004 		addi 29,3,4
 2769              		.cfi_offset 29, -12
 2770              	.LVL208:
 2771              	.LBE2725:
 2772              	.LBE2729:
 2773              		.loc 10 1274 0
 2774 0024 2F9C0000 		cmpwi 7,28,0
 2775              	.LBE2737:
 2776              		.loc 10 1264 0
 2777 0028 93E1001C 		stw 31,28(1)
 2778 002c 93410008 		stw 26,8(1)
 2779 0030 7C7F1B78 		mr 31,3
 2780              		.cfi_offset 26, -24
 2781              		.cfi_offset 31, -4
 2782 0034 93C10018 		stw 30,24(1)
 2783              	.LBB2738:
 2784              		.loc 10 1274 0
 2785 0038 419E0084 		beq- 7,.L181
 2786              		.cfi_offset 30, -8
 2787              	.LVL209:
 2788 003c 81440000 		lwz 10,0(4)
 2789 0040 48000014 		b .L170
 2790              	.LVL210:
 2791              	.L189:
 2792              		.loc 5 227 0 discriminator 1
 2793 0044 801C0008 		lwz 0,8(28)
 2794              	.LVL211:
 2795              		.loc 10 1274 0 discriminator 1
 2796 0048 2F800000 		cmpwi 7,0,0
 2797 004c 419E0028 		beq- 7,.L188
 2798              	.LVL212:
 2799              	.L182:
 2800              		.loc 10 1274 0 is_stmt 0
 2801 0050 7C1C0378 		mr 28,0
 2802              	.LVL213:
 2803              	.L170:
 2804              		.loc 5 227 0 is_stmt 1
 2805 0054 813C0010 		lwz 9,16(28)
 2806 0058 39600001 		li 11,1
 2807              		.loc 10 1278 0
 2808 005c 7F895040 		cmplw 7,9,10
 2809 0060 41BDFFE4 		bgt- 7,.L189
 2810              	.LVL214:
 2811              		.loc 5 227 0 discriminator 2
 2812 0064 801C000C 		lwz 0,12(28)
 2813 0068 39600000 		li 11,0
 2814              	.LVL215:
 2815              		.loc 10 1274 0 discriminator 2
 2816 006c 2F800000 		cmpwi 7,0,0
 2817 0070 409EFFE0 		bne+ 7,.L182
 2818              	.LVL216:
 2819              	.L188:
 2820              		.loc 10 1281 0
 2821 0074 2F8B0000 		cmpwi 7,11,0
 2822 0078 7F83E378 		mr 3,28
 2823              	.LVL217:
 2824 007c 409E0044 		bne- 7,.L167
 2825              	.LVL218:
 2826              		.loc 10 1289 0
 2827 0080 7F8A4840 		cmplw 7,10,9
 2828 0084 419D0060 		bgt- 7,.L190
 2829              	.LVL219:
 2830              	.L177:
 2831              		.loc 10 1292 0
 2832 0088 38000000 		li 0,0
 2833 008c 38800000 		li 4,0
 2834 0090 5004C00E 		rlwimi 4,0,24,0,7
 2835              	.LBE2738:
 2836              		.loc 10 1293 0
 2837 0094 80010024 		lwz 0,36(1)
 2838 0098 83410008 		lwz 26,8(1)
 2839 009c 7C0803A6 		mtlr 0
 2840 00a0 8361000C 		lwz 27,12(1)
 2841              	.LVL220:
 2842 00a4 83810010 		lwz 28,16(1)
 2843 00a8 83A10014 		lwz 29,20(1)
 2844 00ac 83C10018 		lwz 30,24(1)
 2845 00b0 83E1001C 		lwz 31,28(1)
 2846              	.LVL221:
 2847 00b4 38210020 		addi 1,1,32
 2848              		.cfi_remember_state
 2849              	.LCFI47:
 2850              		.cfi_def_cfa_offset 0
 2851              		.cfi_restore 31
 2852              		.cfi_restore 30
 2853              		.cfi_restore 29
 2854              		.cfi_restore 28
 2855              		.cfi_restore 27
 2856              		.cfi_restore 26
 2857 00b8 4E800020 		blr
 2858              	.LVL222:
 2859              	.L181:
 2860              	.LCFI48:
 2861              		.cfi_restore_state
 2862              	.LBB2739:
 2863              		.loc 10 1272 0
 2864 00bc 7FBCEB78 		mr 28,29
 2865              	.LVL223:
 2866              	.L167:
 2867              		.loc 10 1283 0
 2868 00c0 801F000C 		lwz 0,12(31)
 2869 00c4 7F9C0000 		cmpw 7,28,0
 2870 00c8 419E003C 		beq- 7,.L191
 2871              	.LVL224:
 2872              	.LBB2730:
 2873              	.LBB2731:
 2874              		.loc 10 203 0
 2875 00cc 7F83E378 		mr 3,28
 2876 00d0 48000001 		bl _ZSt18_Rb_tree_decrementPSt18_Rb_tree_node_base
 2877              	.LVL225:
 2878 00d4 815B0000 		lwz 10,0(27)
 2879 00d8 81230010 		lwz 9,16(3)
 2880              	.LVL226:
 2881              	.LBE2731:
 2882              	.LBE2730:
 2883              		.loc 10 1289 0
 2884 00dc 7F8A4840 		cmplw 7,10,9
 2885 00e0 409DFFA8 		ble+ 7,.L177
 2886              	.LVL227:
 2887              	.L190:
 2888              	.LBB2732:
 2889              	.LBB2726:
 2890              		.loc 10 969 0
 2891 00e4 7F9CE800 		cmpw 7,28,29
 2892 00e8 3B400001 		li 26,1
 2893 00ec 419E0038 		beq- 7,.L178
 2894              	.LVL228:
 2895              		.loc 10 1264 0
 2896 00f0 835C0010 		lwz 26,16(28)
 2897 00f4 7F5A5010 		subfc 26,26,10
 2898 00f8 7F5AD110 		subfe 26,26,26
 2899 00fc 7F5A00D0 		neg 26,26
 2900 0100 48000024 		b .L178
 2901              	.LVL229:
 2902              	.L191:
 2903              	.LBE2726:
 2904              	.LBE2732:
 2905              	.LBB2733:
 2906              	.LBB2734:
 2907              		.loc 10 969 0
 2908 0104 7F9CE800 		cmpw 7,28,29
 2909 0108 3B400001 		li 26,1
 2910 010c 419E0018 		beq- 7,.L178
 2911              	.LVL230:
 2912              		.loc 10 1264 0
 2913 0110 835B0000 		lwz 26,0(27)
 2914 0114 801C0010 		lwz 0,16(28)
 2915              	.LVL231:
 2916 0118 7F40D010 		subfc 26,0,26
 2917 011c 7F5AD110 		subfe 26,26,26
 2918 0120 7F5A00D0 		neg 26,26
 2919              	.LVL232:
 2920              	.L178:
 2921              	.LBE2734:
 2922              	.LBE2733:
 2923              	.LBB2735:
 2924              	.LBB2727:
 2925              	.LBB2713:
 2926              	.LBB2714:
 2927              	.LBB2715:
 2928              	.LBB2716:
 2929              	.LBB2717:
 2930              		.file 11 "d:\\devkitpro\\devkitppc\\bin\\../lib/gcc/powerpc-eabi/4.6.3/../../../../powerpc-eabi/in
 2931              		.loc 11 92 0
 2932 0124 38600014 		li 3,20
 2933 0128 48000001 		bl _Znwj
 2934              	.LBE2717:
 2935              	.LBE2716:
 2936              	.LBE2715:
 2937              	.LBB2720:
 2938              	.LBB2721:
 2939              		.loc 11 108 0
 2940 012c 2F83FFF0 		cmpwi 7,3,-16
 2941              	.LBE2721:
 2942              	.LBE2720:
 2943              	.LBB2723:
 2944              	.LBB2719:
 2945              	.LBB2718:
 2946              		.loc 11 92 0
 2947 0130 7C7E1B78 		mr 30,3
 2948              	.LVL233:
 2949              	.LBE2718:
 2950              	.LBE2719:
 2951              	.LBE2723:
 2952              	.LBB2724:
 2953              	.LBB2722:
 2954              		.loc 11 108 0
 2955 0134 419E000C 		beq- 7,.L180
 2956 0138 801B0000 		lwz 0,0(27)
 2957 013c 90030010 		stw 0,16(3)
 2958              	.L180:
 2959              	.LVL234:
 2960              	.LBE2722:
 2961              	.LBE2724:
 2962              	.LBE2714:
 2963              	.LBE2713:
 2964              		.loc 10 973 0
 2965 0140 7F43D378 		mr 3,26
 2966              	.LVL235:
 2967 0144 7FC4F378 		mr 4,30
 2968 0148 7F85E378 		mr 5,28
 2969 014c 7FA6EB78 		mr 6,29
 2970 0150 48000001 		bl _ZSt29_Rb_tree_insert_and_rebalancebPSt18_Rb_tree_node_baseS0_RS_
 2971              		.loc 10 976 0
 2972 0154 813F0014 		lwz 9,20(31)
 2973              		.loc 10 1291 0
 2974 0158 38800000 		li 4,0
 2975 015c 7FC3F378 		mr 3,30
 2976              		.loc 10 976 0
 2977 0160 38090001 		addi 0,9,1
 2978              	.LBE2727:
 2979              	.LBE2735:
 2980              	.LBE2739:
 2981              		.loc 10 1293 0
 2982 0164 83410008 		lwz 26,8(1)
 2983              	.LVL236:
 2984              	.LBB2740:
 2985              	.LBB2736:
 2986              	.LBB2728:
 2987              		.loc 10 976 0
 2988 0168 901F0014 		stw 0,20(31)
 2989              	.LVL237:
 2990              		.loc 10 1291 0
 2991 016c 38000001 		li 0,1
 2992 0170 5004C00E 		rlwimi 4,0,24,0,7
 2993              	.LBE2728:
 2994              	.LBE2736:
 2995              	.LBE2740:
 2996              		.loc 10 1293 0
 2997 0174 80010024 		lwz 0,36(1)
 2998 0178 8361000C 		lwz 27,12(1)
 2999              	.LVL238:
 3000 017c 7C0803A6 		mtlr 0
 3001 0180 83810010 		lwz 28,16(1)
 3002 0184 83A10014 		lwz 29,20(1)
 3003 0188 83C10018 		lwz 30,24(1)
 3004              	.LVL239:
 3005 018c 83E1001C 		lwz 31,28(1)
 3006              	.LVL240:
 3007 0190 38210020 		addi 1,1,32
 3008              		.cfi_restore 26
 3009              		.cfi_restore 27
 3010              		.cfi_restore 28
 3011              		.cfi_restore 29
 3012              		.cfi_restore 30
 3013              		.cfi_restore 31
 3014              	.LCFI49:
 3015              		.cfi_def_cfa_offset 0
 3016 0194 4E800020 		blr
 3017              		.cfi_endproc
 3018              	.LFE2006:
 3019              		.size	_ZNSt8_Rb_treeIPN7sigslot12_signal_baseINS0_15single_threadedEEES4_St9_IdentityIS4_ESt4lessI
 3020              		.section	.text._ZN7sigslot7signal4IP11PathBrowserhbRKSsNS_15single_threadedEE7connectI13CustomPath
 3021              		.align 2
 3022              		.weak	_ZN7sigslot7signal4IP11PathBrowserhbRKSsNS_15single_threadedEE7connectI13CustomPathsSMEEvPT_
 3023              		.type	_ZN7sigslot7signal4IP11PathBrowserhbRKSsNS_15single_threadedEE7connectI13CustomPathsSMEEvPT_
 3024              	_ZN7sigslot7signal4IP11PathBrowserhbRKSsNS_15single_threadedEE7connectI13CustomPathsSMEEvPT_MS9_FvS
 3025              	.LFB1745:
 3026              		.loc 1 2377 0
 3027              		.cfi_startproc
 3028              		.cfi_personality 0,__gxx_personality_v0
 3029              		.cfi_lsda 0,.LLSDA1745
 3030              	.LVL241:
 3031 0000 7C0802A6 		mflr 0
 3032 0004 9421FFD0 		stwu 1,-48(1)
 3033              	.LCFI50:
 3034              		.cfi_def_cfa_offset 48
 3035              		.cfi_register 65, 0
 3036 0008 9361001C 		stw 27,28(1)
 3037 000c 90010034 		stw 0,52(1)
 3038 0010 93C10028 		stw 30,40(1)
 3039 0014 7C9E2378 		mr 30,4
 3040              		.cfi_offset 30, -8
 3041              		.cfi_offset 65, 4
 3042              		.cfi_offset 27, -20
 3043              	.LBB2741:
 3044              	.LBB2742:
 3045              	.LBB2743:
 3046              		.loc 1 338 0
 3047 0018 81230000 		lwz 9,0(3)
 3048              	.LBE2743:
 3049              	.LBE2742:
 3050              	.LBE2741:
 3051              		.loc 1 2377 0
 3052 001c 93E1002C 		stw 31,44(1)
 3053 0020 7C7F1B78 		mr 31,3
 3054              		.cfi_offset 31, -4
 3055              	.LVL242:
 3056              	.LBB2796:
 3057              	.LBB2747:
 3058              	.LBB2744:
 3059              		.loc 1 338 0
 3060 0024 80090008 		lwz 0,8(9)
 3061              	.LBE2744:
 3062              	.LBE2747:
 3063              	.LBE2796:
 3064              		.loc 1 2377 0
 3065 0028 93810020 		stw 28,32(1)
 3066 002c 93A10024 		stw 29,36(1)
 3067              	.LBB2797:
 3068              	.LBB2748:
 3069              	.LBB2745:
 3070              		.loc 1 338 0
 3071 0030 7C0903A6 		mtctr 0
 3072              	.LBE2745:
 3073              	.LBE2748:
 3074              	.LBE2797:
 3075              		.loc 1 2377 0
 3076 0034 83650000 		lwz 27,0(5)
 3077 0038 83850004 		lwz 28,4(5)
 3078              		.cfi_offset 29, -12
 3079              		.cfi_offset 28, -16
 3080              	.LEHB19:
 3081              	.LBB2798:
 3082              	.LBB2749:
 3083              	.LBB2746:
 3084              		.loc 1 338 0
 3085 003c 4E800421 		bctrl
 3086              	.LEHE19:
 3087              	.LVL243:
 3088              	.LBE2746:
 3089              	.LBE2749:
 3090              		.loc 1 2383 0
 3091 0040 38600010 		li 3,16
 3092              	.LEHB20:
 3093 0044 48000001 		bl _Znwj
 3094              	.LBB2750:
 3095              	.LBB2751:
 3096              		.loc 1 1828 0
 3097 0048 3D200000 		lis 9,_ZTVN7sigslot12_connection4I13CustomPathsSMP11PathBrowserhbRKSsNS_15single_threadedEEE+8@ha
 3098              		.loc 1 1829 0
 3099 004c 93C30004 		stw 30,4(3)
 3100              		.loc 1 1828 0
 3101 0050 38090008 		la 0,_ZTVN7sigslot12_connection4I13CustomPathsSMP11PathBrowserhbRKSsNS_15single_threadedEEE+8@l(9)
 3102              		.loc 1 1830 0
 3103 0054 93630008 		stw 27,8(3)
 3104              		.loc 1 1828 0
 3105 0058 90030000 		stw 0,0(3)
 3106              	.LBE2751:
 3107              	.LBE2750:
 3108              		.loc 1 2383 0
 3109 005c 7C7D1B78 		mr 29,3
 3110              	.LVL244:
 3111              	.LBB2753:
 3112              	.LBB2752:
 3113              		.loc 1 1830 0
 3114 0060 9383000C 		stw 28,12(3)
 3115              	.LVL245:
 3116              	.LBE2752:
 3117              	.LBE2753:
 3118              	.LBB2754:
 3119              	.LBB2755:
 3120              	.LBB2756:
 3121              	.LBB2757:
 3122              	.LBB2758:
 3123              	.LBB2759:
 3124              	.LBB2760:
 3125              	.LBB2761:
 3126              		.loc 11 92 0
 3127 0064 3860000C 		li 3,12
 3128              	.LVL246:
 3129 0068 48000001 		bl _Znwj
 3130              	.LVL247:
 3131              	.LBE2761:
 3132              	.LBE2760:
 3133              	.LBE2759:
 3134              	.LBB2762:
 3135              	.LBB2763:
 3136              		.loc 11 108 0 discriminator 1
 3137 006c 2F83FFF8 		cmpwi 7,3,-8
 3138 0070 419E0008 		beq- 7,.L194
 3139              		.loc 11 108 0 is_stmt 0
 3140 0074 93A30008 		stw 29,8(3)
 3141              	.LVL248:
 3142              	.L194:
 3143              	.LBE2763:
 3144              	.LBE2762:
 3145              	.LBE2758:
 3146              	.LBE2757:
 3147              		.file 12 "d:\\devkitpro\\devkitppc\\bin\\../lib/gcc/powerpc-eabi/4.6.3/../../../../powerpc-eabi/in
 3148              		.loc 12 1516 0 is_stmt 1
 3149 0078 389F0004 		addi 4,31,4
 3150              	.LBE2756:
 3151              	.LBE2755:
 3152              	.LBE2754:
 3153              	.LBB2768:
 3154              	.LBB2769:
 3155              		.loc 1 503 0
 3156 007c 3BBE00B0 		addi 29,30,176
 3157              	.LVL249:
 3158              	.LBE2769:
 3159              	.LBE2768:
 3160              	.LBB2785:
 3161              	.LBB2766:
 3162              	.LBB2764:
 3163              		.loc 12 1516 0
 3164 0080 48000001 		bl _ZNSt8__detail15_List_node_base7_M_hookEPS0_
 3165              	.LVL250:
 3166              	.LBE2764:
 3167              	.LBE2766:
 3168              	.LBE2785:
 3169              	.LBB2786:
 3170              	.LBB2782:
 3171              	.LBB2770:
 3172              	.LBB2771:
 3173              		.loc 1 338 0
 3174 0084 813E00B0 		lwz 9,176(30)
 3175              	.LBE2771:
 3176              	.LBE2770:
 3177              	.LBE2782:
 3178              	.LBE2786:
 3179              	.LBB2787:
 3180              	.LBB2767:
 3181              	.LBB2765:
 3182              		.loc 12 1516 0
 3183 0088 93E10008 		stw 31,8(1)
 3184              	.LVL251:
 3185              	.LBE2765:
 3186              	.LBE2767:
 3187              	.LBE2787:
 3188              	.LBB2788:
 3189              	.LBB2783:
 3190              	.LBB2773:
 3191              	.LBB2772:
 3192              		.loc 1 338 0
 3193 008c 7FA3EB78 		mr 3,29
 3194 0090 80090008 		lwz 0,8(9)
 3195 0094 7C0903A6 		mtctr 0
 3196 0098 4E800421 		bctrl
 3197              	.LEHE20:
 3198              	.LVL252:
 3199              	.LBE2772:
 3200              	.LBE2773:
 3201              	.LBB2774:
 3202              	.LBB2775:
 3203              		.file 13 "d:\\devkitpro\\devkitppc\\bin\\../lib/gcc/powerpc-eabi/4.6.3/../../../../powerpc-eabi/in
 3204              		.loc 13 410 0
 3205 009c 387E00B4 		addi 3,30,180
 3206 00a0 38810008 		addi 4,1,8
 3207              	.LEHB21:
 3208 00a4 48000001 		bl _ZNSt8_Rb_treeIPN7sigslot12_signal_baseINS0_15single_threadedEEES4_St9_IdentityIS4_ESt4lessIS4_
 3209              	.LEHE21:
 3210              	.LVL253:
 3211              	.LBE2775:
 3212              	.LBE2774:
 3213              	.LBB2776:
 3214              	.LBB2777:
 3215              	.LBB2778:
 3216              		.loc 1 343 0
 3217 00a8 813E00B0 		lwz 9,176(30)
 3218 00ac 7FA3EB78 		mr 3,29
 3219 00b0 8009000C 		lwz 0,12(9)
 3220 00b4 7C0903A6 		mtctr 0
 3221              	.LEHB22:
 3222 00b8 4E800421 		bctrl
 3223              	.LEHE22:
 3224              	.LVL254:
 3225              	.LBE2778:
 3226              	.LBE2777:
 3227              	.LBE2776:
 3228              	.LBE2783:
 3229              	.LBE2788:
 3230              	.LBB2789:
 3231              	.LBB2790:
 3232              	.LBB2791:
 3233 00bc 813F0000 		lwz 9,0(31)
 3234 00c0 7FE3FB78 		mr 3,31
 3235 00c4 8009000C 		lwz 0,12(9)
 3236 00c8 7C0903A6 		mtctr 0
 3237              	.LEHB23:
 3238 00cc 4E800421 		bctrl
 3239              	.LEHE23:
 3240              	.LBE2791:
 3241              	.LBE2790:
 3242              	.LBE2789:
 3243              	.LBE2798:
 3244              		.loc 1 2386 0
 3245 00d0 80010034 		lwz 0,52(1)
 3246 00d4 8361001C 		lwz 27,28(1)
 3247              	.LVL255:
 3248 00d8 7C0803A6 		mtlr 0
 3249 00dc 83810020 		lwz 28,32(1)
 3250              	.LVL256:
 3251 00e0 83A10024 		lwz 29,36(1)
 3252              	.LVL257:
 3253 00e4 83C10028 		lwz 30,40(1)
 3254              	.LVL258:
 3255 00e8 83E1002C 		lwz 31,44(1)
 3256              	.LVL259:
 3257 00ec 38210030 		addi 1,1,48
 3258              		.cfi_remember_state
 3259              	.LCFI51:
 3260              		.cfi_def_cfa_offset 0
 3261              		.cfi_restore 31
 3262              		.cfi_restore 30
 3263              		.cfi_restore 29
 3264              		.cfi_restore 28
 3265              		.cfi_restore 27
 3266 00f0 4E800020 		blr
 3267              	.LVL260:
 3268              	.L201:
 3269              	.LCFI52:
 3270              		.cfi_restore_state
 3271 00f4 7C7E1B78 		mr 30,3
 3272              	.LVL261:
 3273              	.L198:
 3274              	.LBB2799:
 3275              	.LBB2792:
 3276              	.LBB2793:
 3277              	.LBB2794:
 3278              		.loc 1 343 0
 3279 00f8 813F0000 		lwz 9,0(31)
 3280 00fc 7FE3FB78 		mr 3,31
 3281 0100 8009000C 		lwz 0,12(9)
 3282 0104 7C0903A6 		mtctr 0
 3283 0108 4E800421 		bctrl
 3284 010c 7FC3F378 		mr 3,30
 3285              	.LEHB24:
 3286 0110 48000001 		bl _Unwind_Resume
 3287              	.LEHE24:
 3288              	.LVL262:
 3289              	.L202:
 3290              	.LBE2794:
 3291              	.LBE2793:
 3292              	.LBE2792:
 3293              	.LBB2795:
 3294              	.LBB2784:
 3295              	.LBB2779:
 3296              	.LBB2780:
 3297              	.LBB2781:
 3298 0114 813E00B0 		lwz 9,176(30)
 3299 0118 7C7E1B78 		mr 30,3
 3300              	.LVL263:
 3301 011c 7FA3EB78 		mr 3,29
 3302 0120 8009000C 		lwz 0,12(9)
 3303 0124 7C0903A6 		mtctr 0
 3304 0128 4E800421 		bctrl
 3305 012c 4BFFFFCC 		b .L198
 3306              	.LBE2781:
 3307              	.LBE2780:
 3308              	.LBE2779:
 3309              	.LBE2784:
 3310              	.LBE2795:
 3311              	.LBE2799:
 3312              		.cfi_endproc
 3313              	.LFE1745:
 3314              		.section	.gcc_except_table
 3315              	.LLSDA1745:
 3316 006e FF       		.byte	0xff
 3317 006f FF       		.byte	0xff
 3318 0070 01       		.byte	0x1
 3319 0071 1F       		.uleb128 .LLSDACSE1745-.LLSDACSB1745
 3320              	.LLSDACSB1745:
 3321 0072 3C       		.uleb128 .LEHB19-.LFB1745
 3322 0073 04       		.uleb128 .LEHE19-.LEHB19
 3323 0074 00       		.uleb128 0
 3324 0075 00       		.uleb128 0
 3325 0076 44       		.uleb128 .LEHB20-.LFB1745
 3326 0077 58       		.uleb128 .LEHE20-.LEHB20
 3327 0078 F401     		.uleb128 .L201-.LFB1745
 3328 007a 00       		.uleb128 0
 3329 007b A401     		.uleb128 .LEHB21-.LFB1745
 3330 007d 04       		.uleb128 .LEHE21-.LEHB21
 3331 007e 9402     		.uleb128 .L202-.LFB1745
 3332 0080 00       		.uleb128 0
 3333 0081 B801     		.uleb128 .LEHB22-.LFB1745
 3334 0083 04       		.uleb128 .LEHE22-.LEHB22
 3335 0084 F401     		.uleb128 .L201-.LFB1745
 3336 0086 00       		.uleb128 0
 3337 0087 CC01     		.uleb128 .LEHB23-.LFB1745
 3338 0089 04       		.uleb128 .LEHE23-.LEHB23
 3339 008a 00       		.uleb128 0
 3340 008b 00       		.uleb128 0
 3341 008c 9002     		.uleb128 .LEHB24-.LFB1745
 3342 008e 04       		.uleb128 .LEHE24-.LEHB24
 3343 008f 00       		.uleb128 0
 3344 0090 00       		.uleb128 0
 3345              	.LLSDACSE1745:
 3346              		.section	.text._ZN7sigslot7signal4IP11PathBrowserhbRKSsNS_15single_threadedEE7connectI13CustomPath
 3347              		.size	_ZN7sigslot7signal4IP11PathBrowserhbRKSsNS_15single_threadedEE7connectI13CustomPathsSMEEvPT_
 3348              		.section	".text"
 3349              		.align 2
 3350              		.globl _ZN13CustomPathsSM10ChangePathEPcih
 3351              		.type	_ZN13CustomPathsSM10ChangePathEPcih, @function
 3352              	_ZN13CustomPathsSM10ChangePathEPcih:
 3353              	.LFB1668:
 3354              		.loc 5 147 0
 3355              		.cfi_startproc
 3356              		.cfi_personality 0,__gxx_personality_v0
 3357              		.cfi_lsda 0,.LLSDA1668
 3358              	.LVL264:
 3359 065c 9421FB80 		stwu 1,-1152(1)
 3360              	.LCFI53:
 3361              		.cfi_def_cfa_offset 1152
 3362 0660 7C0802A6 		mflr 0
 3363 0664 93C10478 		stw 30,1144(1)
 3364 0668 7C7E1B78 		mr 30,3
 3365              		.cfi_offset 30, -8
 3366              		.cfi_register 65, 0
 3367              	.LBB2836:
 3368              		.loc 5 148 0
 3369 066c 3C600000 		lis 3,.LC14@ha
 3370              	.LVL265:
 3371              	.LBE2836:
 3372              		.loc 5 147 0
 3373 0670 90010484 		stw 0,1156(1)
 3374              	.LBB2879:
 3375              		.loc 5 148 0
 3376 0674 38630080 		la 3,.LC14@l(3)
 3377              	.LBE2879:
 3378              		.loc 5 147 0
 3379 0678 93210464 		stw 25,1124(1)
 3380 067c 93410468 		stw 26,1128(1)
 3381 0680 7CBA2B78 		mr 26,5
 3382              		.cfi_offset 26, -24
 3383              		.cfi_offset 25, -28
 3384              		.cfi_offset 65, 4
 3385 0684 9361046C 		stw 27,1132(1)
 3386 0688 7CDB3378 		mr 27,6
 3387              		.cfi_offset 27, -20
 3388 068c 93810470 		stw 28,1136(1)
 3389 0690 7C9C2378 		mr 28,4
 3390              		.cfi_offset 28, -16
 3391 0694 93A10474 		stw 29,1140(1)
 3392 0698 93E1047C 		stw 31,1148(1)
 3393              	.LEHB25:
 3394              	.LBB2880:
 3395              		.loc 5 148 0
 3396              		.cfi_offset 31, -4
 3397              		.cfi_offset 29, -12
 3398 069c 48000001 		bl gettext
 3399              	.LVL266:
 3400 06a0 7C791B78 		mr 25,3
 3401 06a4 3C600000 		lis 3,.LC15@ha
 3402 06a8 386300A4 		la 3,.LC15@l(3)
 3403 06ac 48000001 		bl gettext
 3404 06b0 7C7D1B78 		mr 29,3
 3405 06b4 3C600000 		lis 3,.LC16@ha
 3406 06b8 386300AC 		la 3,.LC16@l(3)
 3407 06bc 48000001 		bl gettext
 3408 06c0 7C7F1B78 		mr 31,3
 3409 06c4 3C600000 		lis 3,.LC17@ha
 3410 06c8 386300B4 		la 3,.LC17@l(3)
 3411 06cc 48000001 		bl gettext
 3412 06d0 38800000 		li 4,0
 3413 06d4 7C671B78 		mr 7,3
 3414 06d8 7FA5EB78 		mr 5,29
 3415 06dc 7F23CB78 		mr 3,25
 3416 06e0 7FE6FB78 		mr 6,31
 3417 06e4 39000000 		li 8,0
 3418 06e8 48000001 		bl _Z12WindowPromptPKcS0_S0_S0_S0_S0_
 3419              	.LVL267:
 3420              	.LBB2837:
 3421              		.loc 5 149 0
 3422 06ec 2F830001 		cmpwi 7,3,1
 3423 06f0 419E00F0 		beq- 7,.L230
 3424              	.LBB2838:
 3425              		.loc 5 161 0
 3426 06f4 2F830002 		cmpwi 7,3,2
 3427 06f8 419E0030 		beq- 7,.L231
 3428              	.LVL268:
 3429              	.L204:
 3430              	.LBE2838:
 3431              	.LBE2837:
 3432              	.LBE2880:
 3433              		.loc 5 198 0
 3434 06fc 80010484 		lwz 0,1156(1)
 3435 0700 83210464 		lwz 25,1124(1)
 3436 0704 7C0803A6 		mtlr 0
 3437 0708 83410468 		lwz 26,1128(1)
 3438              	.LVL269:
 3439 070c 8361046C 		lwz 27,1132(1)
 3440 0710 83810470 		lwz 28,1136(1)
 3441              	.LVL270:
 3442 0714 83A10474 		lwz 29,1140(1)
 3443 0718 83C10478 		lwz 30,1144(1)
 3444              	.LVL271:
 3445 071c 83E1047C 		lwz 31,1148(1)
 3446 0720 38210480 		addi 1,1,1152
 3447              		.cfi_remember_state
 3448              	.LCFI54:
 3449              		.cfi_def_cfa_offset 0
 3450              		.cfi_restore 31
 3451              		.cfi_restore 30
 3452              		.cfi_restore 29
 3453              		.cfi_restore 28
 3454              		.cfi_restore 27
 3455              		.cfi_restore 26
 3456              		.cfi_restore 25
 3457 0724 4E800020 		blr
 3458              	.LVL272:
 3459              	.L231:
 3460              	.LCFI55:
 3461              		.cfi_restore_state
 3462              	.LBB2881:
 3463              	.LBB2877:
 3464              	.LBB2848:
 3465              	.LBB2839:
 3466              		.loc 5 164 0
 3467 0728 3FE00000 		lis 31,.LC12@ha
 3468 072c 38800400 		li 4,1024
 3469 0730 3BFF006C 		la 31,.LC12@l(31)
 3470 0734 7F86E378 		mr 6,28
 3471 0738 7FE5FB78 		mr 5,31
 3472 073c 38610058 		addi 3,1,88
 3473              	.LVL273:
 3474 0740 4CC63182 		crxor 6,6,6
 3475 0744 48000001 		bl snprintf
 3476              	.LBB2840:
 3477              		.loc 5 165 0
 3478 0748 38610058 		addi 3,1,88
 3479 074c 38800400 		li 4,1024
 3480 0750 48000001 		bl _Z16OnScreenKeyboardPct
 3481 0754 2F830000 		cmpwi 7,3,0
 3482 0758 41BEFFA4 		beq- 7,.L204
 3483              	.L220:
 3484              	.LBB2841:
 3485              		.loc 5 167 0 discriminator 1
 3486 075c 38610058 		addi 3,1,88
 3487 0760 48000001 		bl strlen
 3488 0764 38010008 		addi 0,1,8
 3489 0768 3923FFFF 		addi 9,3,-1
 3490 076c 7D204A14 		add 9,0,9
 3491 0770 88090050 		lbz 0,80(9)
 3492 0774 2F80002F 		cmpwi 7,0,47
 3493 0778 419E0048 		beq- 7,.L232
 3494              	.L219:
 3495              		.loc 5 171 0
 3496 077c 38610058 		addi 3,1,88
 3497 0780 38810010 		addi 4,1,16
 3498 0784 48000001 		bl stat
 3499              	.LBB2842:
 3500              		.loc 5 172 0
 3501 0788 80010018 		lwz 0,24(1)
 3502 078c 70094000 		andi. 9,0,16384
 3503 0790 41820164 		beq- 0,.L233
 3504              		.loc 5 174 0
 3505 0794 73690001 		andi. 9,27,1
 3506 0798 4182FF64 		beq+ 0,.L204
 3507              		.loc 5 176 0
 3508 079c 7F44D378 		mr 4,26
 3509 07a0 7FE5FB78 		mr 5,31
 3510 07a4 38C10058 		addi 6,1,88
 3511 07a8 7F83E378 		mr 3,28
 3512 07ac 4CC63182 		crxor 6,6,6
 3513 07b0 48000001 		bl snprintf
 3514              		.loc 5 177 0
 3515 07b4 3C600000 		lis 3,.LC18@ha
 3516 07b8 386300BC 		la 3,.LC18@l(3)
 3517 07bc 48000188 		b .L229
 3518              	.L232:
 3519              	.LBE2842:
 3520              		.loc 5 167 0 discriminator 2
 3521 07c0 38010008 		addi 0,1,8
 3522 07c4 7C601A14 		add 3,0,3
 3523 07c8 8803004E 		lbz 0,78(3)
 3524 07cc 2F80003A 		cmpwi 7,0,58
 3525 07d0 41BEFFAC 		beq- 7,.L219
 3526              		.loc 5 168 0 discriminator 5
 3527 07d4 38000000 		li 0,0
 3528 07d8 98090050 		stb 0,80(9)
 3529 07dc 4BFFFF80 		b .L220
 3530              	.LVL274:
 3531              	.L230:
 3532              	.LBE2841:
 3533              	.LBE2840:
 3534              	.LBE2839:
 3535              	.LBE2848:
 3536              	.LBB2849:
 3537              		.loc 5 151 0
 3538 07e0 813E0000 		lwz 9,0(30)
 3539 07e4 7FC3F378 		mr 3,30
 3540              	.LVL275:
 3541 07e8 38800080 		li 4,128
 3542 07ec 38A0FFEC 		li 5,-20
 3543 07f0 80090088 		lwz 0,136(9)
 3544 07f4 38C00000 		li 6,0
 3545 07f8 7C0903A6 		mtctr 0
 3546 07fc 4E800421 		bctrl
 3547              		.loc 5 152 0
 3548 0800 48000018 		b .L206
 3549              	.L207:
 3550              		.loc 5 153 0
 3551 0804 813F0000 		lwz 9,0(31)
 3552 0808 7FE3FB78 		mr 3,31
 3553 080c 800900D8 		lwz 0,216(9)
 3554 0810 7C0903A6 		mtctr 0
 3555 0814 4E800421 		bctrl
 3556              	.L206:
 3557              		.loc 5 152 0 discriminator 1
 3558 0818 813E0000 		lwz 9,0(30)
 3559 081c 7FC3F378 		mr 3,30
 3560 0820 8009009C 		lwz 0,156(9)
 3561 0824 7C0903A6 		mtctr 0
 3562 0828 4E800421 		bctrl
 3563 082c 2F830000 		cmpwi 7,3,0
 3564 0830 419E002C 		beq- 7,.L234
 3565              	.LBB2850:
 3566              	.LBB2851:
 3567              		.loc 7 27 0
 3568 0834 3FA00000 		lis 29,_ZN11Application8instanceE@ha
 3569 0838 83FD0000 		lwz 31,_ZN11Application8instanceE@l(29)
 3570 083c 2F9F0000 		cmpwi 7,31,0
 3571 0840 409EFFC4 		bne+ 7,.L207
 3572 0844 38600278 		li 3,632
 3573 0848 48000001 		bl _Znwj
 3574              	.LEHE25:
 3575 084c 7C7F1B78 		mr 31,3
 3576              	.LEHB26:
 3577 0850 48000001 		bl _ZN11ApplicationC1Ev
 3578              	.LEHE26:
 3579 0854 93FD0000 		stw 31,_ZN11Application8instanceE@l(29)
 3580 0858 4BFFFFAC 		b .L207
 3581              	.L234:
 3582              	.LBE2851:
 3583              	.LBE2850:
 3584              		.loc 5 155 0
 3585 085c 939E00D4 		stw 28,212(30)
 3586              		.loc 5 158 0
 3587 0860 3861000C 		addi 3,1,12
 3588              		.loc 5 156 0
 3589 0864 935E00D8 		stw 26,216(30)
 3590              		.loc 5 158 0
 3591 0868 7F84E378 		mr 4,28
 3592 086c 38A10009 		addi 5,1,9
 3593              	.LEHB27:
 3594 0870 48000001 		bl _ZNSsC1EPKcRKSaIcE
 3595              	.LEHE27:
 3596 0874 38600418 		li 3,1048
 3597              	.LEHB28:
 3598 0878 48000001 		bl _Znwj
 3599              	.LEHE28:
 3600 087c 3881000C 		addi 4,1,12
 3601 0880 7F65DB78 		mr 5,27
 3602 0884 7C7F1B78 		mr 31,3
 3603              	.LEHB29:
 3604 0888 48000001 		bl _ZN11PathBrowserC1ERKSsh
 3605              	.LEHE29:
 3606              	.LVL276:
 3607              	.LBB2853:
 3608              	.LBB2854:
 3609              	.LBB2855:
 3610              	.LBB2856:
 3611              	.LBB2857:
 3612              	.LBB2858:
 3613              		.loc 6 288 0
 3614 088c 8121000C 		lwz 9,12(1)
 3615              	.LBE2858:
 3616              	.LBE2857:
 3617              	.LBE2856:
 3618              	.LBB2859:
 3619              	.LBB2860:
 3620              		.loc 6 235 0
 3621 0890 3D600000 		lis 11,_ZNSs4_Rep20_S_empty_rep_storageE@ha
 3622 0894 380B0000 		la 0,_ZNSs4_Rep20_S_empty_rep_storageE@l(11)
 3623              	.LBE2860:
 3624              	.LBE2859:
 3625              		.loc 6 534 0
 3626 0898 3869FFF4 		addi 3,9,-12
 3627              	.LVL277:
 3628              	.LBB2869:
 3629              	.LBB2867:
 3630              		.loc 6 235 0
 3631 089c 7F830000 		cmpw 7,3,0
 3632 08a0 409E00D8 		bne- 7,.L235
 3633              	.LVL278:
 3634              	.L217:
 3635              	.LBE2867:
 3636              	.LBE2869:
 3637              	.LBE2855:
 3638              	.LBE2854:
 3639              	.LBE2853:
 3640              		.loc 5 159 0 discriminator 3
 3641 08a4 3D200000 		lis 9,_ZN13CustomPathsSM24OnPathBrowserButtonClickEP11PathBrowserhbRKSs@ha
 3642 08a8 387F00CC 		addi 3,31,204
 3643 08ac 38090000 		la 0,_ZN13CustomPathsSM24OnPathBrowserButtonClickEP11PathBrowserhbRKSs@l(9)
 3644 08b0 7FC4F378 		mr 4,30
 3645 08b4 90010458 		stw 0,1112(1)
 3646 08b8 38A10458 		addi 5,1,1112
 3647 08bc 38000000 		li 0,0
 3648 08c0 9001045C 		stw 0,1116(1)
 3649              	.LEHB30:
 3650 08c4 48000001 		bl _ZN7sigslot7signal4IP11PathBrowserhbRKSsNS_15single_threadedEE7connectI13CustomPathsSMEEvPT_MS9
 3651              	.LBE2849:
 3652              	.LBE2877:
 3653              	.LBE2881:
 3654              		.loc 5 198 0 discriminator 3
 3655 08c8 80010484 		lwz 0,1156(1)
 3656 08cc 83210464 		lwz 25,1124(1)
 3657 08d0 7C0803A6 		mtlr 0
 3658 08d4 83410468 		lwz 26,1128(1)
 3659              	.LVL279:
 3660 08d8 8361046C 		lwz 27,1132(1)
 3661 08dc 83810470 		lwz 28,1136(1)
 3662              	.LVL280:
 3663 08e0 83A10474 		lwz 29,1140(1)
 3664 08e4 83C10478 		lwz 30,1144(1)
 3665              	.LVL281:
 3666 08e8 83E1047C 		lwz 31,1148(1)
 3667              	.LVL282:
 3668 08ec 38210480 		addi 1,1,1152
 3669              		.cfi_remember_state
 3670              		.cfi_restore 25
 3671              		.cfi_restore 26
 3672              		.cfi_restore 27
 3673              		.cfi_restore 28
 3674              		.cfi_restore 29
 3675              		.cfi_restore 30
 3676              		.cfi_restore 31
 3677              	.LCFI56:
 3678              		.cfi_def_cfa_offset 0
 3679 08f0 4E800020 		blr
 3680              	.LVL283:
 3681              	.L233:
 3682              	.LCFI57:
 3683              		.cfi_restore_state
 3684              	.LBB2882:
 3685              	.LBB2878:
 3686              	.LBB2875:
 3687              	.LBB2847:
 3688              	.LBB2846:
 3689              	.LBB2845:
 3690              	.LBB2844:
 3691              	.LBB2843:
 3692              		.loc 5 182 0
 3693 08f4 3880002E 		li 4,46
 3694 08f8 38610058 		addi 3,1,88
 3695 08fc 48000001 		bl strrchr
 3696              	.LVL284:
 3697              		.loc 5 183 0
 3698 0900 7C641B79 		mr. 4,3
 3699 0904 41A2FDF8 		beq- 0,.L204
 3700              		.loc 5 185 0
 3701 0908 73600002 		andi. 0,27,2
 3702 090c 4182FDF0 		beq+ 0,.L204
 3703              		.loc 5 185 0 is_stmt 0 discriminator 1
 3704 0910 3C600000 		lis 3,Settings+2580@ha
 3705              	.LVL285:
 3706 0914 38630A14 		la 3,Settings+2580@l(3)
 3707 0918 48000001 		bl _ZN16CFilesExtensions11CompareFontEPKc
 3708              	.LVL286:
 3709 091c 2F830000 		cmpwi 7,3,0
 3710 0920 40BEFDDC 		bne- 7,.L204
 3711              		.loc 5 187 0 is_stmt 1 discriminator 4
 3712 0924 7F44D378 		mr 4,26
 3713 0928 7FE5FB78 		mr 5,31
 3714 092c 38C10058 		addi 6,1,88
 3715 0930 7F83E378 		mr 3,28
 3716 0934 4CC63182 		crxor 6,6,6
 3717 0938 48000001 		bl snprintf
 3718              		.loc 5 188 0 discriminator 4
 3719 093c 3C600000 		lis 3,.LC20@ha
 3720 0940 386300D0 		la 3,.LC20@l(3)
 3721              	.L229:
 3722 0944 48000001 		bl gettext
 3723 0948 7C7F1B78 		mr 31,3
 3724 094c 3C600000 		lis 3,.LC19@ha
 3725 0950 386300CC 		la 3,.LC19@l(3)
 3726 0954 48000001 		bl gettext
 3727 0958 38800000 		li 4,0
 3728 095c 7C651B78 		mr 5,3
 3729 0960 38C00000 		li 6,0
 3730 0964 7FE3FB78 		mr 3,31
 3731 0968 38E00000 		li 7,0
 3732 096c 39000000 		li 8,0
 3733 0970 48000001 		bl _Z12WindowPromptPKcS0_S0_S0_S0_S0_
 3734 0974 4BFFFD88 		b .L204
 3735              	.LVL287:
 3736              	.L235:
 3737              	.LBE2843:
 3738              	.LBE2844:
 3739              	.LBE2845:
 3740              	.LBE2846:
 3741              	.LBE2847:
 3742              	.LBE2875:
 3743              	.LBB2876:
 3744              	.LBB2873:
 3745              	.LBB2872:
 3746              	.LBB2871:
 3747              	.LBB2870:
 3748              	.LBB2868:
 3749              	.LBB2861:
 3750              	.LBB2862:
 3751              	.LBB2863:
 3752              		.loc 8 66 0
 3753 0978 8169FFFC 		lwz 11,-4(9)
 3754              	.LVL288:
 3755              	.LBE2863:
 3756              	.LBE2862:
 3757              	.LBE2861:
 3758              		.loc 6 240 0
 3759 097c 2F8B0000 		cmpwi 7,11,0
 3760              	.LBB2866:
 3761              	.LBB2865:
 3762              	.LBB2864:
 3763              		.loc 8 67 0
 3764 0980 396BFFFF 		addi 11,11,-1
 3765 0984 9169FFFC 		stw 11,-4(9)
 3766              	.LBE2864:
 3767              	.LBE2865:
 3768              	.LBE2866:
 3769              		.loc 6 240 0
 3770 0988 419DFF1C 		bgt+ 7,.L217
 3771              		.loc 6 244 0
 3772 098c 38810008 		addi 4,1,8
 3773              	.LVL289:
 3774 0990 48000001 		bl _ZNSs4_Rep10_M_destroyERKSaIcE
 3775              	.LVL290:
 3776 0994 4BFFFF10 		b .L217
 3777              	.LVL291:
 3778              	.L227:
 3779 0998 7C7E1B78 		mr 30,3
 3780              	.LVL292:
 3781              	.LBE2868:
 3782              	.LBE2870:
 3783              	.LBE2871:
 3784              	.LBE2872:
 3785              	.LBE2873:
 3786              	.LBB2874:
 3787              	.LBB2852:
 3788              		.loc 7 27 0
 3789 099c 7FE3FB78 		mr 3,31
 3790 09a0 48000001 		bl _ZdlPv
 3791 09a4 7FC3F378 		mr 3,30
 3792 09a8 48000001 		bl _Unwind_Resume
 3793              	.LVL293:
 3794              	.L226:
 3795 09ac 7C7E1B78 		mr 30,3
 3796              	.LVL294:
 3797              	.LBE2852:
 3798              	.LBE2874:
 3799              		.loc 5 158 0
 3800 09b0 7FE3FB78 		mr 3,31
 3801 09b4 48000001 		bl _ZdlPv
 3802 09b8 7FDFF378 		mr 31,30
 3803              	.L222:
 3804 09bc 3861000C 		addi 3,1,12
 3805 09c0 48000001 		bl _ZNSsD1Ev
 3806 09c4 7FE3FB78 		mr 3,31
 3807 09c8 48000001 		bl _Unwind_Resume
 3808              	.LEHE30:
 3809              	.LVL295:
 3810              	.L225:
 3811 09cc 7C7F1B78 		mr 31,3
 3812 09d0 4BFFFFEC 		b .L222
 3813              	.LBE2876:
 3814              	.LBE2878:
 3815              	.LBE2882:
 3816              		.cfi_endproc
 3817              	.LFE1668:
 3818              		.section	.gcc_except_table
 3819              	.LLSDA1668:
 3820 0091 FF       		.byte	0xff
 3821 0092 FF       		.byte	0xff
 3822 0093 01       		.byte	0x1
 3823 0094 22       		.uleb128 .LLSDACSE1668-.LLSDACSB1668
 3824              	.LLSDACSB1668:
 3825 0095 40       		.uleb128 .LEHB25-.LFB1668
 3826 0096 B003     		.uleb128 .LEHE25-.LEHB25
 3827 0098 00       		.uleb128 0
 3828 0099 00       		.uleb128 0
 3829 009a F403     		.uleb128 .LEHB26-.LFB1668
 3830 009c 04       		.uleb128 .LEHE26-.LEHB26
 3831 009d BC06     		.uleb128 .L227-.LFB1668
 3832 009f 00       		.uleb128 0
 3833 00a0 9404     		.uleb128 .LEHB27-.LFB1668
 3834 00a2 04       		.uleb128 .LEHE27-.LEHB27
 3835 00a3 00       		.uleb128 0
 3836 00a4 00       		.uleb128 0
 3837 00a5 9C04     		.uleb128 .LEHB28-.LFB1668
 3838 00a7 04       		.uleb128 .LEHE28-.LEHB28
 3839 00a8 F006     		.uleb128 .L225-.LFB1668
 3840 00aa 00       		.uleb128 0
 3841 00ab AC04     		.uleb128 .LEHB29-.LFB1668
 3842 00ad 04       		.uleb128 .LEHE29-.LEHB29
 3843 00ae D006     		.uleb128 .L226-.LFB1668
 3844 00b0 00       		.uleb128 0
 3845 00b1 E804     		.uleb128 .LEHB30-.LFB1668
 3846 00b3 8802     		.uleb128 .LEHE30-.LEHB30
 3847 00b5 00       		.uleb128 0
 3848 00b6 00       		.uleb128 0
 3849              	.LLSDACSE1668:
 3850              		.section	".text"
 3851              		.size	_ZN13CustomPathsSM10ChangePathEPcih, .-_ZN13CustomPathsSM10ChangePathEPcih
 3852              		.align 2
 3853              		.type	_ZN13CustomPathsSM10ChangePathEPcih.constprop.123, @function
 3854              	_ZN13CustomPathsSM10ChangePathEPcih.constprop.123:
 3855              	.LFB2421:
 3856              		.loc 5 146 0
 3857              		.cfi_startproc
 3858              		.cfi_personality 0,__gxx_personality_v0
 3859              		.cfi_lsda 0,.LLSDA2421
 3860              	.LVL296:
 3861 09d4 9421FB88 		stwu 1,-1144(1)
 3862              	.LCFI58:
 3863              		.cfi_def_cfa_offset 1144
 3864 09d8 7C0802A6 		mflr 0
 3865 09dc 93C10470 		stw 30,1136(1)
 3866 09e0 7C7E1B78 		mr 30,3
 3867              		.cfi_offset 30, -8
 3868              		.cfi_register 65, 0
 3869              	.LBB2919:
 3870              		.loc 5 148 0
 3871 09e4 3C600000 		lis 3,.LC14@ha
 3872              	.LVL297:
 3873              	.LBE2919:
 3874              		.loc 5 146 0
 3875 09e8 9001047C 		stw 0,1148(1)
 3876              	.LBB2962:
 3877              		.loc 5 148 0
 3878 09ec 38630080 		la 3,.LC14@l(3)
 3879              	.LBE2962:
 3880              		.loc 5 146 0
 3881 09f0 93410460 		stw 26,1120(1)
 3882 09f4 93610464 		stw 27,1124(1)
 3883 09f8 7CBB2B78 		mr 27,5
 3884              		.cfi_offset 27, -20
 3885              		.cfi_offset 26, -24
 3886              		.cfi_offset 65, 4
 3887 09fc 93810468 		stw 28,1128(1)
 3888 0a00 7C9C2378 		mr 28,4
 3889              		.cfi_offset 28, -16
 3890 0a04 93A1046C 		stw 29,1132(1)
 3891 0a08 93E10474 		stw 31,1140(1)
 3892              	.LEHB31:
 3893              	.LBB2963:
 3894              		.loc 5 148 0
 3895              		.cfi_offset 31, -4
 3896              		.cfi_offset 29, -12
 3897 0a0c 48000001 		bl gettext
 3898              	.LVL298:
 3899 0a10 7C7A1B78 		mr 26,3
 3900 0a14 3C600000 		lis 3,.LC15@ha
 3901 0a18 386300A4 		la 3,.LC15@l(3)
 3902 0a1c 48000001 		bl gettext
 3903 0a20 7C7D1B78 		mr 29,3
 3904 0a24 3C600000 		lis 3,.LC16@ha
 3905 0a28 386300AC 		la 3,.LC16@l(3)
 3906 0a2c 48000001 		bl gettext
 3907 0a30 7C7F1B78 		mr 31,3
 3908 0a34 3C600000 		lis 3,.LC17@ha
 3909 0a38 386300B4 		la 3,.LC17@l(3)
 3910 0a3c 48000001 		bl gettext
 3911 0a40 38800000 		li 4,0
 3912 0a44 7C671B78 		mr 7,3
 3913 0a48 7FA5EB78 		mr 5,29
 3914 0a4c 7F43D378 		mr 3,26
 3915 0a50 7FE6FB78 		mr 6,31
 3916 0a54 39000000 		li 8,0
 3917 0a58 48000001 		bl _Z12WindowPromptPKcS0_S0_S0_S0_S0_
 3918              	.LVL299:
 3919              	.LBB2920:
 3920              		.loc 5 149 0
 3921 0a5c 2F830001 		cmpwi 7,3,1
 3922 0a60 419E00EC 		beq- 7,.L263
 3923              	.LBB2921:
 3924              		.loc 5 161 0
 3925 0a64 2F830002 		cmpwi 7,3,2
 3926 0a68 419E002C 		beq- 7,.L264
 3927              	.LVL300:
 3928              	.L236:
 3929              	.LBE2921:
 3930              	.LBE2920:
 3931              	.LBE2963:
 3932              		.loc 5 198 0
 3933 0a6c 8001047C 		lwz 0,1148(1)
 3934 0a70 83410460 		lwz 26,1120(1)
 3935 0a74 7C0803A6 		mtlr 0
 3936 0a78 83610464 		lwz 27,1124(1)
 3937 0a7c 83810468 		lwz 28,1128(1)
 3938              	.LVL301:
 3939 0a80 83A1046C 		lwz 29,1132(1)
 3940 0a84 83C10470 		lwz 30,1136(1)
 3941              	.LVL302:
 3942 0a88 83E10474 		lwz 31,1140(1)
 3943 0a8c 38210478 		addi 1,1,1144
 3944              		.cfi_remember_state
 3945              	.LCFI59:
 3946              		.cfi_def_cfa_offset 0
 3947              		.cfi_restore 31
 3948              		.cfi_restore 30
 3949              		.cfi_restore 29
 3950              		.cfi_restore 28
 3951              		.cfi_restore 27
 3952              		.cfi_restore 26
 3953 0a90 4E800020 		blr
 3954              	.LVL303:
 3955              	.L264:
 3956              	.LCFI60:
 3957              		.cfi_restore_state
 3958              	.LBB2964:
 3959              	.LBB2960:
 3960              	.LBB2931:
 3961              	.LBB2922:
 3962              		.loc 5 164 0
 3963 0a94 3FE00000 		lis 31,.LC12@ha
 3964 0a98 38800400 		li 4,1024
 3965 0a9c 3BFF006C 		la 31,.LC12@l(31)
 3966 0aa0 7F86E378 		mr 6,28
 3967 0aa4 7FE5FB78 		mr 5,31
 3968 0aa8 38610058 		addi 3,1,88
 3969              	.LVL304:
 3970 0aac 4CC63182 		crxor 6,6,6
 3971 0ab0 48000001 		bl snprintf
 3972              	.LBB2923:
 3973              		.loc 5 165 0
 3974 0ab4 38610058 		addi 3,1,88
 3975 0ab8 38800400 		li 4,1024
 3976 0abc 48000001 		bl _Z16OnScreenKeyboardPct
 3977 0ac0 2F830000 		cmpwi 7,3,0
 3978 0ac4 41BEFFA8 		beq- 7,.L236
 3979              	.L252:
 3980              	.LBB2924:
 3981              		.loc 5 167 0
 3982 0ac8 38610058 		addi 3,1,88
 3983 0acc 48000001 		bl strlen
 3984 0ad0 38010008 		addi 0,1,8
 3985 0ad4 3923FFFF 		addi 9,3,-1
 3986 0ad8 7D204A14 		add 9,0,9
 3987 0adc 88090050 		lbz 0,80(9)
 3988 0ae0 2F80002F 		cmpwi 7,0,47
 3989 0ae4 419E0048 		beq- 7,.L265
 3990              	.L251:
 3991              		.loc 5 171 0
 3992 0ae8 38610058 		addi 3,1,88
 3993 0aec 38810010 		addi 4,1,16
 3994 0af0 48000001 		bl stat
 3995              	.LBB2925:
 3996              		.loc 5 172 0
 3997 0af4 80010018 		lwz 0,24(1)
 3998 0af8 70094000 		andi. 9,0,16384
 3999 0afc 41820164 		beq- 0,.L266
 4000              		.loc 5 174 0
 4001 0b00 73690001 		andi. 9,27,1
 4002 0b04 4182FF68 		beq+ 0,.L236
 4003              		.loc 5 176 0
 4004 0b08 7FE5FB78 		mr 5,31
 4005 0b0c 38C10058 		addi 6,1,88
 4006 0b10 388000FA 		li 4,250
 4007 0b14 7F83E378 		mr 3,28
 4008 0b18 4CC63182 		crxor 6,6,6
 4009 0b1c 48000001 		bl snprintf
 4010              		.loc 5 177 0
 4011 0b20 3C600000 		lis 3,.LC18@ha
 4012 0b24 386300BC 		la 3,.LC18@l(3)
 4013 0b28 48000188 		b .L262
 4014              	.L265:
 4015              	.LBE2925:
 4016              		.loc 5 167 0
 4017 0b2c 38010008 		addi 0,1,8
 4018 0b30 7C601A14 		add 3,0,3
 4019 0b34 8803004E 		lbz 0,78(3)
 4020 0b38 2F80003A 		cmpwi 7,0,58
 4021 0b3c 41BEFFAC 		beq- 7,.L251
 4022              		.loc 5 168 0
 4023 0b40 38000000 		li 0,0
 4024 0b44 98090050 		stb 0,80(9)
 4025 0b48 4BFFFF80 		b .L252
 4026              	.LVL305:
 4027              	.L263:
 4028              	.LBE2924:
 4029              	.LBE2923:
 4030              	.LBE2922:
 4031              	.LBE2931:
 4032              	.LBB2932:
 4033              		.loc 5 151 0
 4034 0b4c 813E0000 		lwz 9,0(30)
 4035 0b50 7FC3F378 		mr 3,30
 4036              	.LVL306:
 4037 0b54 38800080 		li 4,128
 4038 0b58 38A0FFEC 		li 5,-20
 4039 0b5c 80090088 		lwz 0,136(9)
 4040 0b60 38C00000 		li 6,0
 4041 0b64 7C0903A6 		mtctr 0
 4042 0b68 4E800421 		bctrl
 4043 0b6c 48000018 		b .L238
 4044              	.L239:
 4045              		.loc 5 153 0
 4046 0b70 813F0000 		lwz 9,0(31)
 4047 0b74 7FE3FB78 		mr 3,31
 4048 0b78 800900D8 		lwz 0,216(9)
 4049 0b7c 7C0903A6 		mtctr 0
 4050 0b80 4E800421 		bctrl
 4051              	.L238:
 4052              		.loc 5 152 0
 4053 0b84 813E0000 		lwz 9,0(30)
 4054 0b88 7FC3F378 		mr 3,30
 4055 0b8c 8009009C 		lwz 0,156(9)
 4056 0b90 7C0903A6 		mtctr 0
 4057 0b94 4E800421 		bctrl
 4058 0b98 2F830000 		cmpwi 7,3,0
 4059 0b9c 419E002C 		beq- 7,.L267
 4060              	.LBB2933:
 4061              	.LBB2934:
 4062              		.loc 7 27 0
 4063 0ba0 3FA00000 		lis 29,_ZN11Application8instanceE@ha
 4064 0ba4 83FD0000 		lwz 31,_ZN11Application8instanceE@l(29)
 4065 0ba8 2F9F0000 		cmpwi 7,31,0
 4066 0bac 409EFFC4 		bne+ 7,.L239
 4067 0bb0 38600278 		li 3,632
 4068 0bb4 48000001 		bl _Znwj
 4069              	.LEHE31:
 4070 0bb8 7C7F1B78 		mr 31,3
 4071              	.LEHB32:
 4072 0bbc 48000001 		bl _ZN11ApplicationC1Ev
 4073              	.LEHE32:
 4074 0bc0 93FD0000 		stw 31,_ZN11Application8instanceE@l(29)
 4075 0bc4 4BFFFFAC 		b .L239
 4076              	.L267:
 4077              	.LBE2934:
 4078              	.LBE2933:
 4079              		.loc 5 156 0
 4080 0bc8 380000FA 		li 0,250
 4081              		.loc 5 155 0
 4082 0bcc 939E00D4 		stw 28,212(30)
 4083              		.loc 5 156 0
 4084 0bd0 901E00D8 		stw 0,216(30)
 4085              		.loc 5 158 0
 4086 0bd4 3861000C 		addi 3,1,12
 4087 0bd8 7F84E378 		mr 4,28
 4088 0bdc 38A10009 		addi 5,1,9
 4089              	.LEHB33:
 4090 0be0 48000001 		bl _ZNSsC1EPKcRKSaIcE
 4091              	.LEHE33:
 4092 0be4 38600418 		li 3,1048
 4093              	.LEHB34:
 4094 0be8 48000001 		bl _Znwj
 4095              	.LEHE34:
 4096 0bec 3881000C 		addi 4,1,12
 4097 0bf0 7F65DB78 		mr 5,27
 4098 0bf4 7C7F1B78 		mr 31,3
 4099              	.LEHB35:
 4100 0bf8 48000001 		bl _ZN11PathBrowserC1ERKSsh
 4101              	.LEHE35:
 4102              	.LVL307:
 4103              	.LBB2936:
 4104              	.LBB2937:
 4105              	.LBB2938:
 4106              	.LBB2939:
 4107              	.LBB2940:
 4108              	.LBB2941:
 4109              		.loc 6 288 0
 4110 0bfc 8121000C 		lwz 9,12(1)
 4111              	.LBE2941:
 4112              	.LBE2940:
 4113              	.LBE2939:
 4114              	.LBB2942:
 4115              	.LBB2943:
 4116              		.loc 6 235 0
 4117 0c00 3D600000 		lis 11,_ZNSs4_Rep20_S_empty_rep_storageE@ha
 4118 0c04 380B0000 		la 0,_ZNSs4_Rep20_S_empty_rep_storageE@l(11)
 4119              	.LBE2943:
 4120              	.LBE2942:
 4121              		.loc 6 534 0
 4122 0c08 3869FFF4 		addi 3,9,-12
 4123              	.LVL308:
 4124              	.LBB2952:
 4125              	.LBB2950:
 4126              		.loc 6 235 0
 4127 0c0c 7F830000 		cmpw 7,3,0
 4128 0c10 409E00D4 		bne- 7,.L268
 4129              	.LVL309:
 4130              	.L249:
 4131              	.LBE2950:
 4132              	.LBE2952:
 4133              	.LBE2938:
 4134              	.LBE2937:
 4135              	.LBE2936:
 4136              		.loc 5 159 0
 4137 0c14 3D200000 		lis 9,_ZN13CustomPathsSM24OnPathBrowserButtonClickEP11PathBrowserhbRKSs@ha
 4138 0c18 387F00CC 		addi 3,31,204
 4139 0c1c 38090000 		la 0,_ZN13CustomPathsSM24OnPathBrowserButtonClickEP11PathBrowserhbRKSs@l(9)
 4140 0c20 7FC4F378 		mr 4,30
 4141 0c24 90010458 		stw 0,1112(1)
 4142 0c28 38A10458 		addi 5,1,1112
 4143 0c2c 38000000 		li 0,0
 4144 0c30 9001045C 		stw 0,1116(1)
 4145              	.LEHB36:
 4146 0c34 48000001 		bl _ZN7sigslot7signal4IP11PathBrowserhbRKSsNS_15single_threadedEE7connectI13CustomPathsSMEEvPT_MS9
 4147              	.LBE2932:
 4148              	.LBE2960:
 4149              	.LBE2964:
 4150              		.loc 5 198 0
 4151 0c38 8001047C 		lwz 0,1148(1)
 4152 0c3c 83410460 		lwz 26,1120(1)
 4153 0c40 7C0803A6 		mtlr 0
 4154 0c44 83610464 		lwz 27,1124(1)
 4155 0c48 83810468 		lwz 28,1128(1)
 4156              	.LVL310:
 4157 0c4c 83A1046C 		lwz 29,1132(1)
 4158 0c50 83C10470 		lwz 30,1136(1)
 4159              	.LVL311:
 4160 0c54 83E10474 		lwz 31,1140(1)
 4161              	.LVL312:
 4162 0c58 38210478 		addi 1,1,1144
 4163              		.cfi_remember_state
 4164              		.cfi_restore 26
 4165              		.cfi_restore 27
 4166              		.cfi_restore 28
 4167              		.cfi_restore 29
 4168              		.cfi_restore 30
 4169              		.cfi_restore 31
 4170              	.LCFI61:
 4171              		.cfi_def_cfa_offset 0
 4172 0c5c 4E800020 		blr
 4173              	.LVL313:
 4174              	.L266:
 4175              	.LCFI62:
 4176              		.cfi_restore_state
 4177              	.LBB2965:
 4178              	.LBB2961:
 4179              	.LBB2958:
 4180              	.LBB2930:
 4181              	.LBB2929:
 4182              	.LBB2928:
 4183              	.LBB2927:
 4184              	.LBB2926:
 4185              		.loc 5 182 0
 4186 0c60 3880002E 		li 4,46
 4187 0c64 38610058 		addi 3,1,88
 4188 0c68 48000001 		bl strrchr
 4189              	.LVL314:
 4190              		.loc 5 183 0
 4191 0c6c 7C641B79 		mr. 4,3
 4192 0c70 41A2FDFC 		beq- 0,.L236
 4193              		.loc 5 185 0
 4194 0c74 73600002 		andi. 0,27,2
 4195 0c78 4182FDF4 		beq+ 0,.L236
 4196 0c7c 3C600000 		lis 3,Settings+2580@ha
 4197              	.LVL315:
 4198 0c80 38630A14 		la 3,Settings+2580@l(3)
 4199 0c84 48000001 		bl _ZN16CFilesExtensions11CompareFontEPKc
 4200              	.LVL316:
 4201 0c88 2F830000 		cmpwi 7,3,0
 4202 0c8c 40BEFDE0 		bne- 7,.L236
 4203              		.loc 5 187 0
 4204 0c90 388000FA 		li 4,250
 4205 0c94 7FE5FB78 		mr 5,31
 4206 0c98 38C10058 		addi 6,1,88
 4207 0c9c 7F83E378 		mr 3,28
 4208 0ca0 4CC63182 		crxor 6,6,6
 4209 0ca4 48000001 		bl snprintf
 4210              		.loc 5 188 0
 4211 0ca8 3C600000 		lis 3,.LC20@ha
 4212 0cac 386300D0 		la 3,.LC20@l(3)
 4213              	.L262:
 4214 0cb0 48000001 		bl gettext
 4215 0cb4 7C7F1B78 		mr 31,3
 4216 0cb8 3C600000 		lis 3,.LC19@ha
 4217 0cbc 386300CC 		la 3,.LC19@l(3)
 4218 0cc0 48000001 		bl gettext
 4219 0cc4 38800000 		li 4,0
 4220 0cc8 7C651B78 		mr 5,3
 4221 0ccc 38C00000 		li 6,0
 4222 0cd0 7FE3FB78 		mr 3,31
 4223 0cd4 38E00000 		li 7,0
 4224 0cd8 39000000 		li 8,0
 4225 0cdc 48000001 		bl _Z12WindowPromptPKcS0_S0_S0_S0_S0_
 4226 0ce0 4BFFFD8C 		b .L236
 4227              	.LVL317:
 4228              	.L268:
 4229              	.LBE2926:
 4230              	.LBE2927:
 4231              	.LBE2928:
 4232              	.LBE2929:
 4233              	.LBE2930:
 4234              	.LBE2958:
 4235              	.LBB2959:
 4236              	.LBB2956:
 4237              	.LBB2955:
 4238              	.LBB2954:
 4239              	.LBB2953:
 4240              	.LBB2951:
 4241              	.LBB2944:
 4242              	.LBB2945:
 4243              	.LBB2946:
 4244              		.loc 8 66 0
 4245 0ce4 8169FFFC 		lwz 11,-4(9)
 4246              	.LVL318:
 4247              	.LBE2946:
 4248              	.LBE2945:
 4249              	.LBE2944:
 4250              		.loc 6 240 0
 4251 0ce8 2F8B0000 		cmpwi 7,11,0
 4252              	.LBB2949:
 4253              	.LBB2948:
 4254              	.LBB2947:
 4255              		.loc 8 67 0
 4256 0cec 396BFFFF 		addi 11,11,-1
 4257 0cf0 9169FFFC 		stw 11,-4(9)
 4258              	.LBE2947:
 4259              	.LBE2948:
 4260              	.LBE2949:
 4261              		.loc 6 240 0
 4262 0cf4 419DFF20 		bgt+ 7,.L249
 4263              		.loc 6 244 0
 4264 0cf8 38810008 		addi 4,1,8
 4265              	.LVL319:
 4266 0cfc 48000001 		bl _ZNSs4_Rep10_M_destroyERKSaIcE
 4267              	.LVL320:
 4268 0d00 4BFFFF14 		b .L249
 4269              	.LVL321:
 4270              	.L260:
 4271 0d04 7C7E1B78 		mr 30,3
 4272              	.LVL322:
 4273              	.LBE2951:
 4274              	.LBE2953:
 4275              	.LBE2954:
 4276              	.LBE2955:
 4277              	.LBE2956:
 4278              	.LBB2957:
 4279              	.LBB2935:
 4280              		.loc 7 27 0
 4281 0d08 7FE3FB78 		mr 3,31
 4282 0d0c 48000001 		bl _ZdlPv
 4283 0d10 7FC3F378 		mr 3,30
 4284 0d14 48000001 		bl _Unwind_Resume
 4285              	.LVL323:
 4286              	.L259:
 4287 0d18 7C7E1B78 		mr 30,3
 4288              	.LVL324:
 4289              	.LBE2935:
 4290              	.LBE2957:
 4291              		.loc 5 158 0
 4292 0d1c 7FE3FB78 		mr 3,31
 4293 0d20 48000001 		bl _ZdlPv
 4294 0d24 7FDFF378 		mr 31,30
 4295              	.L255:
 4296 0d28 3861000C 		addi 3,1,12
 4297 0d2c 48000001 		bl _ZNSsD1Ev
 4298 0d30 7FE3FB78 		mr 3,31
 4299 0d34 48000001 		bl _Unwind_Resume
 4300              	.LEHE36:
 4301              	.LVL325:
 4302              	.L258:
 4303 0d38 7C7F1B78 		mr 31,3
 4304 0d3c 4BFFFFEC 		b .L255
 4305              	.LBE2959:
 4306              	.LBE2961:
 4307              	.LBE2965:
 4308              		.cfi_endproc
 4309              	.LFE2421:
 4310              		.section	.gcc_except_table
 4311              	.LLSDA2421:
 4312 00b7 FF       		.byte	0xff
 4313 00b8 FF       		.byte	0xff
 4314 00b9 01       		.byte	0x1
 4315 00ba 22       		.uleb128 .LLSDACSE2421-.LLSDACSB2421
 4316              	.LLSDACSB2421:
 4317 00bb 38       		.uleb128 .LEHB31-.LFB2421
 4318 00bc AC03     		.uleb128 .LEHE31-.LEHB31
 4319 00be 00       		.uleb128 0
 4320 00bf 00       		.uleb128 0
 4321 00c0 E803     		.uleb128 .LEHB32-.LFB2421
 4322 00c2 04       		.uleb128 .LEHE32-.LEHB32
 4323 00c3 B006     		.uleb128 .L260-.LFB2421
 4324 00c5 00       		.uleb128 0
 4325 00c6 8C04     		.uleb128 .LEHB33-.LFB2421
 4326 00c8 04       		.uleb128 .LEHE33-.LEHB33
 4327 00c9 00       		.uleb128 0
 4328 00ca 00       		.uleb128 0
 4329 00cb 9404     		.uleb128 .LEHB34-.LFB2421
 4330 00cd 04       		.uleb128 .LEHE34-.LEHB34
 4331 00ce E406     		.uleb128 .L258-.LFB2421
 4332 00d0 00       		.uleb128 0
 4333 00d1 A404     		.uleb128 .LEHB35-.LFB2421
 4334 00d3 04       		.uleb128 .LEHE35-.LEHB35
 4335 00d4 C406     		.uleb128 .L259-.LFB2421
 4336 00d6 00       		.uleb128 0
 4337 00d7 E004     		.uleb128 .LEHB36-.LFB2421
 4338 00d9 8402     		.uleb128 .LEHE36-.LEHB36
 4339 00db 00       		.uleb128 0
 4340 00dc 00       		.uleb128 0
 4341              	.LLSDACSE2421:
 4342              		.section	".text"
 4343              		.size	_ZN13CustomPathsSM10ChangePathEPcih.constprop.123, .-_ZN13CustomPathsSM10ChangePathEPcih.con
 4344              		.align 2
 4345              		.globl _ZN13CustomPathsSM14OnBrowserClickEP16GuiOptionBrowseri
 4346              		.type	_ZN13CustomPathsSM14OnBrowserClickEP16GuiOptionBrowseri, @function
 4347              	_ZN13CustomPathsSM14OnBrowserClickEP16GuiOptionBrowseri:
 4348              	.LFB1667:
 4349              		.loc 5 99 0
 4350              		.cfi_startproc
 4351              	.LVL326:
 4352              		.loc 5 100 0
 4353 0d40 2B850005 		cmplwi 7,5,5
 4354              		.loc 5 99 0
 4355 0d44 7C0802A6 		mflr 0
 4356 0d48 9421FFF0 		stwu 1,-16(1)
 4357              	.LCFI63:
 4358              		.cfi_def_cfa_offset 16
 4359              		.cfi_register 65, 0
 4360 0d4c 93E1000C 		stw 31,12(1)
 4361 0d50 7C7F1B78 		mr 31,3
 4362              		.cfi_offset 31, -4
 4363 0d54 90010014 		stw 0,20(1)
 4364 0d58 93C10008 		stw 30,8(1)
 4365              		.loc 5 100 0
 4366 0d5c 419D0030 		bgt- 7,.L270
 4367              		.cfi_offset 30, -8
 4368              		.cfi_offset 65, 4
 4369 0d60 3D200000 		lis 9,.L277@ha
 4370 0d64 54A5103A 		slwi 5,5,2
 4371              	.LVL327:
 4372 0d68 39290000 		la 9,.L277@l(9)
 4373 0d6c 7C09282E 		lwzx 0,9,5
 4374 0d70 7D204A14 		add 9,0,9
 4375 0d74 7D2903A6 		mtctr 9
 4376 0d78 4E800420 		bctr
 4377              		.section	.rodata
 4378              		.align 2
 4379              		.align 2
 4380              	.L277:
 4381 0000 00000D7C 		.long .L271-.L277
 4382 0004 00000E34 		.long .L272-.L277
 4383 0008 00000E74 		.long .L273-.L277
 4384 000c 00000EA8 		.long .L274-.L277
 4385 0010 00000DC8 		.long .L275-.L277
 4386 0014 00000E08 		.long .L276-.L277
 4387              		.section	".text"
 4388              	.L271:
 4389              		.loc 5 103 0
 4390 0d7c 3C800000 		lis 4,Settings+744@ha
 4391              	.LVL328:
 4392 0d80 38A00001 		li 5,1
 4393 0d84 388402E8 		la 4,Settings+744@l(4)
 4394 0d88 4BFFFC4D 		bl _ZN13CustomPathsSM10ChangePathEPcih.constprop.123
 4395              	.LVL329:
 4396              	.L270:
 4397              		.loc 5 143 0
 4398 0d8c 813F0000 		lwz 9,0(31)
 4399 0d90 7FE3FB78 		mr 3,31
 4400 0d94 800900E0 		lwz 0,224(9)
 4401 0d98 7C0903A6 		mtctr 0
 4402 0d9c 4E800421 		bctrl
 4403              		.loc 5 144 0
 4404 0da0 80010014 		lwz 0,20(1)
 4405 0da4 83C10008 		lwz 30,8(1)
 4406 0da8 7C0803A6 		mtlr 0
 4407 0dac 83E1000C 		lwz 31,12(1)
 4408              	.LVL330:
 4409 0db0 38210010 		addi 1,1,16
 4410              		.cfi_remember_state
 4411              	.LCFI64:
 4412              		.cfi_def_cfa_offset 0
 4413              		.cfi_restore 31
 4414              		.cfi_restore 30
 4415 0db4 4E800020 		blr
 4416              	.LVL331:
 4417              	.L275:
 4418              	.LCFI65:
 4419              		.cfi_restore_state
 4420              		.loc 5 119 0
 4421 0db8 3C800000 		lis 4,Settings+2318@ha
 4422              	.LVL332:
 4423 0dbc 38A00001 		li 5,1
 4424 0dc0 3884090E 		la 4,Settings+2318@l(4)
 4425 0dc4 4BFFFC11 		bl _ZN13CustomPathsSM10ChangePathEPcih.constprop.123
 4426              	.LVL333:
 4427              		.loc 5 143 0
 4428 0dc8 813F0000 		lwz 9,0(31)
 4429 0dcc 7FE3FB78 		mr 3,31
 4430 0dd0 800900E0 		lwz 0,224(9)
 4431 0dd4 7C0903A6 		mtctr 0
 4432 0dd8 4E800421 		bctrl
 4433              		.loc 5 144 0
 4434 0ddc 80010014 		lwz 0,20(1)
 4435 0de0 83C10008 		lwz 30,8(1)
 4436 0de4 7C0803A6 		mtlr 0
 4437 0de8 83E1000C 		lwz 31,12(1)
 4438              	.LVL334:
 4439 0dec 38210010 		addi 1,1,16
 4440              		.cfi_remember_state
 4441              		.cfi_restore 30
 4442              		.cfi_restore 31
 4443              	.LCFI66:
 4444              		.cfi_def_cfa_offset 0
 4445 0df0 4E800020 		blr
 4446              	.LVL335:
 4447              	.L276:
 4448              	.LCFI67:
 4449              		.cfi_restore_state
 4450              		.loc 5 122 0
 4451 0df4 3C800000 		lis 4,Settings+144@ha
 4452              	.LVL336:
 4453 0df8 38A00001 		li 5,1
 4454 0dfc 38840090 		la 4,Settings+144@l(4)
 4455 0e00 4BFFFBD5 		bl _ZN13CustomPathsSM10ChangePathEPcih.constprop.123
 4456              	.LVL337:
 4457              		.loc 5 143 0
 4458 0e04 813F0000 		lwz 9,0(31)
 4459 0e08 7FE3FB78 		mr 3,31
 4460 0e0c 800900E0 		lwz 0,224(9)
 4461 0e10 7C0903A6 		mtctr 0
 4462 0e14 4E800421 		bctrl
 4463              		.loc 5 144 0
 4464 0e18 80010014 		lwz 0,20(1)
 4465 0e1c 83C10008 		lwz 30,8(1)
 4466 0e20 7C0803A6 		mtlr 0
 4467 0e24 83E1000C 		lwz 31,12(1)
 4468              	.LVL338:
 4469 0e28 38210010 		addi 1,1,16
 4470              		.cfi_remember_state
 4471              		.cfi_restore 30
 4472              		.cfi_restore 31
 4473              	.LCFI68:
 4474              		.cfi_def_cfa_offset 0
 4475 0e2c 4E800020 		blr
 4476              	.LVL339:
 4477              	.L272:
 4478              	.LCFI69:
 4479              		.cfi_restore_state
 4480              		.loc 5 106 0
 4481 0e30 3C800000 		lis 4,Settings+494@ha
 4482              	.LVL340:
 4483 0e34 38A00001 		li 5,1
 4484 0e38 388401EE 		la 4,Settings+494@l(4)
 4485 0e3c 4BFFFB99 		bl _ZN13CustomPathsSM10ChangePathEPcih.constprop.123
 4486              	.LVL341:
 4487              		.loc 5 143 0
 4488 0e40 813F0000 		lwz 9,0(31)
 4489 0e44 7FE3FB78 		mr 3,31
 4490 0e48 800900E0 		lwz 0,224(9)
 4491 0e4c 7C0903A6 		mtctr 0
 4492 0e50 4E800421 		bctrl
 4493              		.loc 5 144 0
 4494 0e54 80010014 		lwz 0,20(1)
 4495 0e58 83C10008 		lwz 30,8(1)
 4496 0e5c 7C0803A6 		mtlr 0
 4497 0e60 83E1000C 		lwz 31,12(1)
 4498              	.LVL342:
 4499 0e64 38210010 		addi 1,1,16
 4500              		.cfi_remember_state
 4501              		.cfi_restore 30
 4502              		.cfi_restore 31
 4503              	.LCFI70:
 4504              		.cfi_def_cfa_offset 0
 4505 0e68 4E800020 		blr
 4506              	.LVL343:
 4507              	.L273:
 4508              	.LCFI71:
 4509              		.cfi_restore_state
 4510              		.loc 5 109 0
 4511 0e6c 3FC00000 		lis 30,Settings@ha
 4512 0e70 3BDE0000 		la 30,Settings@l(30)
 4513 0e74 A81E008E 		lha 0,142(30)
 4514 0e78 2F800000 		cmpwi 7,0,0
 4515 0e7c 409EFF10 		bne+ 7,.L270
 4516              		.loc 5 111 0
 4517 0e80 3BDE071A 		addi 30,30,1818
 4518 0e84 38A00002 		li 5,2
 4519 0e88 7FC4F378 		mr 4,30
 4520              	.LVL344:
 4521 0e8c 4BFFFB49 		bl _ZN13CustomPathsSM10ChangePathEPcih.constprop.123
 4522              	.LVL345:
 4523              		.loc 5 112 0
 4524 0e90 7FC3F378 		mr 3,30
 4525 0e94 48000001 		bl _ZN5Theme8LoadFontEPKc
 4526 0e98 4BFFFEF4 		b .L270
 4527              	.LVL346:
 4528              	.L274:
 4529              		.loc 5 116 0
 4530 0e9c 3C800000 		lis 4,Settings+994@ha
 4531              	.LVL347:
 4532 0ea0 38A00001 		li 5,1
 4533 0ea4 388403E2 		la 4,Settings+994@l(4)
 4534 0ea8 4BFFFB2D 		bl _ZN13CustomPathsSM10ChangePathEPcih.constprop.123
 4535              		.loc 5 143 0
 4536 0eac 813F0000 		lwz 9,0(31)
 4537 0eb0 7FE3FB78 		mr 3,31
 4538 0eb4 800900E0 		lwz 0,224(9)
 4539 0eb8 7C0903A6 		mtctr 0
 4540 0ebc 4E800421 		bctrl
 4541              		.loc 5 144 0
 4542 0ec0 80010014 		lwz 0,20(1)
 4543 0ec4 83C10008 		lwz 30,8(1)
 4544 0ec8 7C0803A6 		mtlr 0
 4545 0ecc 83E1000C 		lwz 31,12(1)
 4546              	.LVL348:
 4547 0ed0 38210010 		addi 1,1,16
 4548              		.cfi_restore 30
 4549              		.cfi_restore 31
 4550              	.LCFI72:
 4551              		.cfi_def_cfa_offset 0
 4552 0ed4 4E800020 		blr
 4553              		.cfi_endproc
 4554              	.LFE1667:
 4555              		.size	_ZN13CustomPathsSM14OnBrowserClickEP16GuiOptionBrowseri, .-_ZN13CustomPathsSM14OnBrowserClic
 4556              		.weak	_ZTS13CustomPathsSM
 4557              		.section	.rodata._ZTS13CustomPathsSM,"aG",@progbits,_ZTS13CustomPathsSM,comdat
 4558              		.align 2
 4559              		.type	_ZTS13CustomPathsSM, @object
 4560              		.size	_ZTS13CustomPathsSM, 16
 4561              	_ZTS13CustomPathsSM:
 4562 0000 31334375 		.string	"13CustomPathsSM"
 4562      73746F6D 
 4562      50617468 
 4562      73534D00 
 4563              		.weak	_ZTI13CustomPathsSM
 4564              		.section	.rodata._ZTI13CustomPathsSM,"aG",@progbits,_ZTI13CustomPathsSM,comdat
 4565              		.align 2
 4566              		.type	_ZTI13CustomPathsSM, @object
 4567              		.size	_ZTI13CustomPathsSM, 12
 4568              	_ZTI13CustomPathsSM:
 4569 0000 00000008 		.long	_ZTVN10__cxxabiv120__si_class_type_infoE+8
 4570 0004 00000000 		.long	_ZTS13CustomPathsSM
 4571 0008 00000000 		.long	_ZTI15SettingsBrowser
 4572              		.weak	_ZTV13CustomPathsSM
 4573              		.section	.rodata._ZTV13CustomPathsSM,"aG",@progbits,_ZTV13CustomPathsSM,comdat
 4574              		.align 3
 4575              		.type	_ZTV13CustomPathsSM, @object
 4576              		.size	_ZTV13CustomPathsSM, 264
 4577              	_ZTV13CustomPathsSM:
 4578 0000 00000000 		.long	0
 4579 0004 00000000 		.long	_ZTI13CustomPathsSM
 4580 0008 00000000 		.long	_ZN13CustomPathsSMD1Ev
 4581 000c 00000000 		.long	_ZN13CustomPathsSMD0Ev
 4582 0010 00000000 		.long	_ZN10GuiElement9SetParentEPS_
 4583 0014 00000000 		.long	_ZN10GuiElement9GetParentEv
 4584 0018 00000000 		.long	_ZN10GuiElement7GetLeftEv
 4585 001c 00000000 		.long	_ZN10GuiElement6GetTopEv
 4586 0020 00000000 		.long	_ZN10GuiElement12GetZPositionEv
 4587 0024 00000000 		.long	_ZN10GuiElement10GetLeftPosEv
 4588 0028 00000000 		.long	_ZN10GuiElement9GetTopPosEv
 4589 002c 00000000 		.long	_ZN10GuiElement8GetWidthEv
 4590 0030 00000000 		.long	_ZN10GuiElement9GetHeightEv
 4591 0034 00000000 		.long	_ZN10GuiElement7SetSizeEii
 4592 0038 00000000 		.long	_ZN8GuiFrame10SetVisibleEb
 4593 003c 00000000 		.long	_ZN10GuiElement9IsVisibleEv
 4594 0040 00000000 		.long	_ZN10GuiElement12IsSelectableEv
 4595 0044 00000000 		.long	_ZN10GuiElement11IsClickableEv
 4596 0048 00000000 		.long	_ZN10GuiElement10IsHoldableEv
 4597 004c 00000000 		.long	_ZN10GuiElement13SetSelectableEb
 4598 0050 00000000 		.long	_ZN10GuiElement12SetClickableEb
 4599 0054 00000000 		.long	_ZN10GuiElement11SetHoldableEb
 4600 0058 00000000 		.long	_ZN10GuiElement8SetStateEii
 4601 005c 00000000 		.long	_ZN10GuiElement8GetStateEv
 4602 0060 00000000 		.long	_ZN10GuiElement12GetStateChanEv
 4603 0064 00000000 		.long	_ZN8GuiFrame10ResetStateEv
 4604 0068 00000000 		.long	_ZN10GuiElement8SetAlphaEi
 4605 006c 00000000 		.long	_ZN10GuiElement8GetAlphaEv
 4606 0070 00000000 		.long	_ZN10GuiElement8SetScaleEf
 4607 0074 00000000 		.long	_ZN10GuiElement9SetScaleXEf
 4608 0078 00000000 		.long	_ZN10GuiElement9SetScaleYEf
 4609 007c 00000000 		.long	_ZN10GuiElement8GetScaleEv
 4610 0080 00000000 		.long	_ZN10GuiElement9GetScaleXEv
 4611 0084 00000000 		.long	_ZN10GuiElement9GetScaleYEv
 4612 0088 00000000 		.long	_ZN10GuiElement6RumbleEv
 4613 008c 00000000 		.long	_ZN10GuiElement9SetRumbleEb
 4614 0090 00000000 		.long	_ZN10GuiElement9SetEffectEiii
 4615 0094 00000000 		.long	_ZN10GuiElement15SetEffectOnOverEiii
 4616 0098 00000000 		.long	_ZN10GuiElement13SetEffectGrowEv
 4617 009c 00000000 		.long	_ZN10GuiElement12ResetEffectsEv
 4618 00a0 00000000 		.long	_ZNK10GuiElement9GetEffectEv
 4619 00a4 00000000 		.long	_ZNK10GuiElement10IsAnimatedEv
 4620 00a8 00000000 		.long	_ZN8GuiFrame9SetBoundsE4RectIiE
 4621 00ac 00000000 		.long	_ZN10GuiElement8IsInsideEii
 4622 00b0 00000000 		.long	_ZN10GuiElement11SetPositionEii
 4623 00b4 00000000 		.long	_ZN10GuiElement11SetPositionEiii
 4624 00b8 00000000 		.long	_ZN8GuiFrame11GetSelectedEv
 4625 00bc 00000000 		.long	_ZN10GuiElement12SetAlignmentEi
 4626 00c0 00000000 		.long	_ZNK10GuiElement12GetAlignmentEv
 4627 00c4 00000000 		.long	_ZN8GuiFrame6UpdateEP10GuiTrigger
 4628 00c8 00000000 		.long	_ZN8GuiFrame4DrawEv
 4629 00cc 00000000 		.long	_ZN10GuiElement13UpdateEffectsEv
 4630 00d0 00000000 		.long	_ZN8GuiFrame5CloseEv
 4631 00d4 00000000 		.long	_ZN15SettingsBrowser4showEv
 4632 00d8 00000000 		.long	_ZN8GuiFrame4hideEv
 4633 00dc 00000000 		.long	_ZN8GuiFrame4execEv
 4634 00e0 00000000 		.long	_ZN8GuiFrame12updateEventsEv
 4635 00e4 00000000 		.long	_ZN13CustomPathsSM15SetupOptionNameEv
 4636 00e8 00000000 		.long	_ZN13CustomPathsSM15SetOptionValuesEv
 4637 00ec 00000000 		.long	_ZN13CustomPathsSM14OnBrowserClickEP16GuiOptionBrowseri
 4638 00f0 FFFFFF50 		.long	-176
 4639 00f4 00000000 		.long	_ZTI13CustomPathsSM
 4640 00f8 00000000 		.long	_ZThn176_N13CustomPathsSMD1Ev
 4641 00fc 00000000 		.long	_ZThn176_N13CustomPathsSMD0Ev
 4642 0100 00000000 		.long	_ZN7sigslot15single_threaded4lockEv
 4643 0104 00000000 		.long	_ZN7sigslot15single_threaded6unlockEv
 4644              		.weak	_ZTVN7sigslot17_connection_base4IP11PathBrowserhbRKSsNS_15single_threadedEEE
 4645              		.section	.rodata._ZTVN7sigslot17_connection_base4IP11PathBrowserhbRKSsNS_15single_threadedEEE,"aG"
 4646              		.align 3
 4647              		.type	_ZTVN7sigslot17_connection_base4IP11PathBrowserhbRKSsNS_15single_threadedEEE, @object
 4648              		.size	_ZTVN7sigslot17_connection_base4IP11PathBrowserhbRKSsNS_15single_threadedEEE, 32
 4649              	_ZTVN7sigslot17_connection_base4IP11PathBrowserhbRKSsNS_15single_threadedEEE:
 4650 0000 00000000 		.long	0
 4651 0004 00000000 		.long	_ZTIN7sigslot17_connection_base4IP11PathBrowserhbRKSsNS_15single_threadedEEE
 4652 0008 00000000 		.long	_ZN7sigslot17_connection_base4IP11PathBrowserhbRKSsNS_15single_threadedEED1Ev
 4653 000c 00000000 		.long	_ZN7sigslot17_connection_base4IP11PathBrowserhbRKSsNS_15single_threadedEED0Ev
 4654 0010 00000000 		.long	__cxa_pure_virtual
 4655 0014 00000000 		.long	__cxa_pure_virtual
 4656 0018 00000000 		.long	__cxa_pure_virtual
 4657 001c 00000000 		.long	__cxa_pure_virtual
 4658              		.weak	_ZTVN7sigslot12_connection4I13CustomPathsSMP11PathBrowserhbRKSsNS_15single_threadedEEE
 4659              		.section	.rodata._ZTVN7sigslot12_connection4I13CustomPathsSMP11PathBrowserhbRKSsNS_15single_thread
 4660              		.align 3
 4661              		.type	_ZTVN7sigslot12_connection4I13CustomPathsSMP11PathBrowserhbRKSsNS_15single_threadedEEE, @obj
 4662              		.size	_ZTVN7sigslot12_connection4I13CustomPathsSMP11PathBrowserhbRKSsNS_15single_threadedEEE, 32
 4663              	_ZTVN7sigslot12_connection4I13CustomPathsSMP11PathBrowserhbRKSsNS_15single_threadedEEE:
 4664 0000 00000000 		.long	0
 4665 0004 00000000 		.long	_ZTIN7sigslot12_connection4I13CustomPathsSMP11PathBrowserhbRKSsNS_15single_threadedEEE
 4666 0008 00000000 		.long	_ZN7sigslot12_connection4I13CustomPathsSMP11PathBrowserhbRKSsNS_15single_threadedEED1Ev
 4667 000c 00000000 		.long	_ZN7sigslot12_connection4I13CustomPathsSMP11PathBrowserhbRKSsNS_15single_threadedEED0Ev
 4668 0010 00000000 		.long	_ZNK7sigslot12_connection4I13CustomPathsSMP11PathBrowserhbRKSsNS_15single_threadedEE7getdest
 4669 0014 00000000 		.long	_ZN7sigslot12_connection4I13CustomPathsSMP11PathBrowserhbRKSsNS_15single_threadedEE4emitES3_
 4670 0018 00000000 		.long	_ZN7sigslot12_connection4I13CustomPathsSMP11PathBrowserhbRKSsNS_15single_threadedEE5cloneEv
 4671 001c 00000000 		.long	_ZN7sigslot12_connection4I13CustomPathsSMP11PathBrowserhbRKSsNS_15single_threadedEE9duplicat
 4672              		.weak	_ZTIN7sigslot17_connection_base4IP11PathBrowserhbRKSsNS_15single_threadedEEE
 4673              		.section	.sdata._ZTIN7sigslot17_connection_base4IP11PathBrowserhbRKSsNS_15single_threadedEEE,"awG"
 4674              		.align 2
 4675              		.type	_ZTIN7sigslot17_connection_base4IP11PathBrowserhbRKSsNS_15single_threadedEEE, @object
 4676              		.size	_ZTIN7sigslot17_connection_base4IP11PathBrowserhbRKSsNS_15single_threadedEEE, 8
 4677              	_ZTIN7sigslot17_connection_base4IP11PathBrowserhbRKSsNS_15single_threadedEEE:
 4678 0000 00000008 		.long	_ZTVN10__cxxabiv117__class_type_infoE+8
 4679 0004 00000000 		.long	_ZTSN7sigslot17_connection_base4IP11PathBrowserhbRKSsNS_15single_threadedEEE
 4680              		.weak	_ZTIN7sigslot12_connection4I13CustomPathsSMP11PathBrowserhbRKSsNS_15single_threadedEEE
 4681              		.section	.rodata._ZTIN7sigslot12_connection4I13CustomPathsSMP11PathBrowserhbRKSsNS_15single_thread
 4682              		.align 2
 4683              		.type	_ZTIN7sigslot12_connection4I13CustomPathsSMP11PathBrowserhbRKSsNS_15single_threadedEEE, @obj
 4684              		.size	_ZTIN7sigslot12_connection4I13CustomPathsSMP11PathBrowserhbRKSsNS_15single_threadedEEE, 12
 4685              	_ZTIN7sigslot12_connection4I13CustomPathsSMP11PathBrowserhbRKSsNS_15single_threadedEEE:
 4686 0000 00000008 		.long	_ZTVN10__cxxabiv120__si_class_type_infoE+8
 4687 0004 00000000 		.long	_ZTSN7sigslot12_connection4I13CustomPathsSMP11PathBrowserhbRKSsNS_15single_threadedEEE
 4688 0008 00000000 		.long	_ZTIN7sigslot17_connection_base4IP11PathBrowserhbRKSsNS_15single_threadedEEE
 4689              		.weak	_ZTSN7sigslot17_connection_base4IP11PathBrowserhbRKSsNS_15single_threadedEEE
 4690              		.section	.rodata._ZTSN7sigslot17_connection_base4IP11PathBrowserhbRKSsNS_15single_threadedEEE,"aG"
 4691              		.align 2
 4692              		.type	_ZTSN7sigslot17_connection_base4IP11PathBrowserhbRKSsNS_15single_threadedEEE, @object
 4693              		.size	_ZTSN7sigslot17_connection_base4IP11PathBrowserhbRKSsNS_15single_threadedEEE, 73
 4694              	_ZTSN7sigslot17_connection_base4IP11PathBrowserhbRKSsNS_15single_threadedEEE:
 4695 0000 4E377369 		.string	"N7sigslot17_connection_base4IP11PathBrowserhbRKSsNS_15single_threadedEEE"
 4695      67736C6F 
 4695      7431375F 
 4695      636F6E6E 
 4695      65637469 
 4696              		.weak	_ZTSN7sigslot12_connection4I13CustomPathsSMP11PathBrowserhbRKSsNS_15single_threadedEEE
 4697              		.section	.rodata._ZTSN7sigslot12_connection4I13CustomPathsSMP11PathBrowserhbRKSsNS_15single_thread
 4698              		.align 2
 4699              		.type	_ZTSN7sigslot12_connection4I13CustomPathsSMP11PathBrowserhbRKSsNS_15single_threadedEEE, @obj
 4700              		.size	_ZTSN7sigslot12_connection4I13CustomPathsSMP11PathBrowserhbRKSsNS_15single_threadedEEE, 83
 4701              	_ZTSN7sigslot12_connection4I13CustomPathsSMP11PathBrowserhbRKSsNS_15single_threadedEEE:
 4702 0000 4E377369 		.string	"N7sigslot12_connection4I13CustomPathsSMP11PathBrowserhbRKSsNS_15single_threadedEEE"
 4702      67736C6F 
 4702      7431325F 
 4702      636F6E6E 
 4702      65637469 
 4703              		.weak	_ZN7sigslot17_connection_base4IP11PathBrowserhbRKSsNS_15single_threadedEED1Ev
 4704              		.set	_ZN7sigslot17_connection_base4IP11PathBrowserhbRKSsNS_15single_threadedEED1Ev,_ZN7sigslot17_c
 4705              		.weak	_ZN7sigslot12_connection4I13CustomPathsSMP11PathBrowserhbRKSsNS_15single_threadedEED1Ev
 4706              		.set	_ZN7sigslot12_connection4I13CustomPathsSMP11PathBrowserhbRKSsNS_15single_threadedEED1Ev,_ZN7s
 4707              		.weak	_ZN13CustomPathsSMD1Ev
 4708              		.set	_ZN13CustomPathsSMD1Ev,_ZN13CustomPathsSMD2Ev
 4709              		.set	.LTHUNK0,_ZN13CustomPathsSMD1Ev
 4710              		.set	.LTHUNK1,_ZN13CustomPathsSMD0Ev
 4711              		.globl _ZN13CustomPathsSMC1Ev
 4712              		.set	_ZN13CustomPathsSMC1Ev,_ZN13CustomPathsSMC2Ev
 4713              		.section	.rodata.cst4,"aM",@progbits,4
 4714              		.align 2
 4715              	.LC1:
 4716 0000 59800004 		.4byte	1501560836
 4717              	.LC2:
 4718 0004 437F0000 		.4byte	1132396544
 4719              	.LC3:
 4720 0008 3F000000 		.4byte	1056964608
 4721              		.section	.rodata.str1.4,"aMS",@progbits,1
 4722              		.align 2
 4723              	.LC4:
 4724 0000 44697361 		.string	"Disabled"
 4724      626C6564 
 4724      00
 4725 0009 000000   		.zero	3
 4726              	.LC5:
 4727 000c 53617665 		.string	"Saves Path"
 4727      73205061 
 4727      746800
 4728 0017 00       		.zero	1
 4729              	.LC6:
 4730 0018 55706461 		.string	"Update Path"
 4730      74652050 
 4730      61746800 
 4731              	.LC7:
 4732 0024 43757374 		.string	"Custom Font"
 4732      6F6D2046 
 4732      6F6E7400 
 4733              	.LC8:
 4734 0030 4D757369 		.string	"Music Path"
 4734      63205061 
 4734      746800
 4735 003b 00       		.zero	1
 4736              	.LC9:
 4737 003c 53637265 		.string	"Screenshot Path"
 4737      656E7368 
 4737      6F742050 
 4737      61746800 
 4738              	.LC10:
 4739 004c 5468656D 		.string	"Theme Path"
 4739      65205061 
 4739      746800
 4740 0057 00       		.zero	1
 4741              	.LC11:
 4742 0058 62617369 		.string	"basic_string::erase"
 4742      635F7374 
 4742      72696E67 
 4742      3A3A6572 
 4742      61736500 
 4743              	.LC12:
 4744 006c 257300   		.string	"%s"
 4745 006f 00       		.zero	1
 4746              	.LC13:
 4747 0070 43757374 		.string	"Custom Paths"
 4747      6F6D2050 
 4747      61746873 
 4747      00
 4748 007d 000000   		.zero	3
 4749              	.LC14:
 4750 0080 486F7720 		.string	"How do you want to change the path?"
 4750      646F2079 
 4750      6F752077 
 4750      616E7420 
 4750      746F2063 
 4751              	.LC15:
 4752 00a4 42726F77 		.string	"Browse"
 4752      736500
 4753 00ab 00       		.zero	1
 4754              	.LC16:
 4755 00ac 456E7465 		.string	"Enter"
 4755      7200
 4756 00b2 0000     		.zero	2
 4757              	.LC17:
 4758 00b4 43616E63 		.string	"Cancel"
 4758      656C00
 4759 00bb 00       		.zero	1
 4760              	.LC18:
 4761 00bc 50617468 		.string	"Path changed."
 4761      20636861 
 4761      6E676564 
 4761      2E00
 4762 00ca 0000     		.zero	2
 4763              	.LC19:
 4764 00cc 4F4B00   		.string	"OK"
 4765 00cf 00       		.zero	1
 4766              	.LC20:
 4767 00d0 466F6E74 		.string	"Fontpath changed."
 4767      70617468 
 4767      20636861 
 4767      6E676564 
 4767      2E00
 4768              		.section	".text"
 4769              	.Letext0:
 4770              		.file 14 "d:\\devkitpro\\devkitppc\\bin\\../lib/gcc/powerpc-eabi/4.6.3/../../../../powerpc-eabi/in
 4771              		.file 15 "d:/devkitPro/libogc/include/gctypes.h"
 4772              		.file 16 "d:/devkitPro/libogc/include/ogc/gx.h"
 4773              		.file 17 "d:\\devkitpro\\devkitppc\\bin\\../lib/gcc/powerpc-eabi/4.6.3/../../../../powerpc-eabi/in
 4774              		.file 18 "d:\\devkitpro\\devkitppc\\bin\\../lib/gcc/powerpc-eabi/4.6.3/../../../../powerpc-eabi/in
 4775              		.file 19 "d:\\devkitpro\\devkitppc\\bin\\../lib/gcc/powerpc-eabi/4.6.3/../../../../powerpc-eabi/in
 4776              		.file 20 "d:\\devkitpro\\devkitppc\\bin\\../lib/gcc/powerpc-eabi/4.6.3/include/stddef.h"
 4777              		.file 21 "d:\\devkitpro\\devkitppc\\bin\\../lib/gcc/powerpc-eabi/4.6.3/../../../../powerpc-eabi/in
 4778              		.file 22 "d:\\devkitpro\\devkitppc\\bin\\../lib/gcc/powerpc-eabi/4.6.3/../../../../powerpc-eabi/in
 4779              		.file 23 "d:\\devkitpro\\devkitppc\\bin\\../lib/gcc/powerpc-eabi/4.6.3/../../../../powerpc-eabi/in
 4780              		.file 24 "<built-in>"
 4781              		.file 25 "d:\\devkitpro\\devkitppc\\bin\\../lib/gcc/powerpc-eabi/4.6.3/../../../../powerpc-eabi/in
 4782              		.file 26 "d:\\devkitpro\\devkitppc\\bin\\../lib/gcc/powerpc-eabi/4.6.3/../../../../powerpc-eabi/in
 4783              		.file 27 "d:\\devkitpro\\devkitppc\\bin\\../lib/gcc/powerpc-eabi/4.6.3/../../../../powerpc-eabi/in
 4784              		.file 28 "d:\\devkitpro\\devkitppc\\bin\\../lib/gcc/powerpc-eabi/4.6.3/../../../../powerpc-eabi/in
 4785              		.file 29 "d:\\devkitpro\\devkitppc\\bin\\../lib/gcc/powerpc-eabi/4.6.3/../../../../powerpc-eabi/in
 4786              		.file 30 "d:\\devkitpro\\devkitppc\\bin\\../lib/gcc/powerpc-eabi/4.6.3/../../../../powerpc-eabi/in
 4787              		.file 31 "d:\\devkitpro\\devkitppc\\bin\\../lib/gcc/powerpc-eabi/4.6.3/../../../../powerpc-eabi/in
 4788              		.file 32 "d:\\devkitpro\\devkitppc\\bin\\../lib/gcc/powerpc-eabi/4.6.3/../../../../powerpc-eabi/in
 4789              		.file 33 "d:\\devkitpro\\devkitppc\\bin\\../lib/gcc/powerpc-eabi/4.6.3/../../../../powerpc-eabi/in
 4790              		.file 34 "d:\\devkitpro\\devkitppc\\bin\\../lib/gcc/powerpc-eabi/4.6.3/../../../../powerpc-eabi/in
 4791              		.file 35 "d:\\devkitpro\\devkitppc\\bin\\../lib/gcc/powerpc-eabi/4.6.3/../../../../powerpc-eabi/in
 4792              		.file 36 "d:\\devkitpro\\devkitppc\\bin\\../lib/gcc/powerpc-eabi/4.6.3/../../../../powerpc-eabi/in
 4793              		.file 37 "d:\\devkitpro\\devkitppc\\bin\\../lib/gcc/powerpc-eabi/4.6.3/../../../../powerpc-eabi/in
 4794              		.file 38 "d:\\devkitpro\\devkitppc\\bin\\../lib/gcc/powerpc-eabi/4.6.3/../../../../powerpc-eabi/in
 4795              		.file 39 "d:\\devkitpro\\devkitppc\\bin\\../lib/gcc/powerpc-eabi/4.6.3/../../../../powerpc-eabi/in
 4796              		.file 40 "d:\\devkitpro\\devkitppc\\bin\\../lib/gcc/powerpc-eabi/4.6.3/../../../../powerpc-eabi/in
 4797              		.file 41 "d:\\devkitpro\\devkitppc\\bin\\../lib/gcc/powerpc-eabi/4.6.3/../../../../powerpc-eabi/in
 4798              		.file 42 "d:\\devkitpro\\devkitppc\\bin\\../lib/gcc/powerpc-eabi/4.6.3/../../../../powerpc-eabi/in
 4799              		.file 43 "d:/Projects/SaveGameManager/savegame-manager-gx/trunk/source/Settings/menus/../../GUI/..
 4800              		.file 44 "d:/Projects/SaveGameManager/savegame-manager-gx/trunk/source/Settings/menus/../../GUI/..
 4801              		.file 45 "d:/Projects/SaveGameManager/savegame-manager-gx/trunk/source/Settings/menus/../../GUI/..
 4802              		.file 46 "d:/Projects/SaveGameManager/savegame-manager-gx/trunk/source/Settings/menus/../../GUI/..
 4803              		.file 47 "d:\\devkitpro\\devkitppc\\bin\\../lib/gcc/powerpc-eabi/4.6.3/../../../../powerpc-eabi/in
 4804              		.file 48 "d:\\devkitpro\\devkitppc\\bin\\../lib/gcc/powerpc-eabi/4.6.3/../../../../powerpc-eabi/in
 4805              		.file 49 "d:\\devkitpro\\devkitppc\\bin\\../lib/gcc/powerpc-eabi/4.6.3/../../../../powerpc-eabi/in
 4806              		.file 50 "d:/Projects/SaveGameManager/savegame-manager-gx/trunk/source/Settings/menus/../../Prompt
 4807              		.file 51 "d:\\devkitpro\\devkitppc\\bin\\../lib/gcc/powerpc-eabi/4.6.3/../../../../powerpc-eabi/in
 4808              		.file 52 "d:\\devkitpro\\devkitppc\\bin\\../lib/gcc/powerpc-eabi/4.6.3/../../../../powerpc-eabi/in
 4809              		.file 53 "d:/Projects/SaveGameManager/savegame-manager-gx/trunk/source/Settings/menus/../../Prompt
 4810              		.file 54 "d:\\devkitpro\\devkitppc\\bin\\../lib/gcc/powerpc-eabi/4.6.3/../../../../powerpc-eabi/in