	.file	"CustomFileBrowser.cpp"
	.section	".text"
.Ltext0:
	.section	.text._ZN7sigslot15single_threadedD2Ev,"axG",@progbits,_ZN7sigslot15single_threadedD5Ev,comdat
	.align 2
	.weak	_ZN7sigslot15single_threadedD2Ev
	.type	_ZN7sigslot15single_threadedD2Ev, @function
_ZN7sigslot15single_threadedD2Ev:
.LFB1148:
	.file 1 "d:/Projects/SaveGameManager/savegame-manager-gx/trunk/source/Files/../GUI/../sigslot.h"
	.loc 1 104 0
	.cfi_startproc
.LVL0:
.LBB4705:
	.loc 1 105 0
	lis 9,_ZTVN7sigslot15single_threadedE+8@ha
.LBE4705:
	.loc 1 107 0
.LBB4706:
	.loc 1 105 0
	la 0,_ZTVN7sigslot15single_threadedE+8@l(9)
	stw 0,0(3)
.LBE4706:
	.loc 1 107 0
	blr
	.cfi_endproc
.LFE1148:
	.size	_ZN7sigslot15single_threadedD2Ev, .-_ZN7sigslot15single_threadedD2Ev
	.section	.text._ZN7sigslot15single_threaded4lockEv,"axG",@progbits,_ZN7sigslot15single_threaded4lockEv,comdat
	.align 2
	.weak	_ZN7sigslot15single_threaded4lockEv
	.type	_ZN7sigslot15single_threaded4lockEv, @function
_ZN7sigslot15single_threaded4lockEv:
.LFB1151:
	.loc 1 109 0
	.cfi_startproc
.LVL1:
	.loc 1 112 0
	blr
	.cfi_endproc
.LFE1151:
	.size	_ZN7sigslot15single_threaded4lockEv, .-_ZN7sigslot15single_threaded4lockEv
	.section	.text._ZN7sigslot15single_threaded6unlockEv,"axG",@progbits,_ZN7sigslot15single_threaded6unlockEv,comdat
	.align 2
	.weak	_ZN7sigslot15single_threaded6unlockEv
	.type	_ZN7sigslot15single_threaded6unlockEv, @function
_ZN7sigslot15single_threaded6unlockEv:
.LFB1152:
	.loc 1 114 0
	.cfi_startproc
.LVL2:
	.loc 1 117 0
	blr
	.cfi_endproc
.LFE1152:
	.size	_ZN7sigslot15single_threaded6unlockEv, .-_ZN7sigslot15single_threaded6unlockEv
	.section	.text._ZN10GuiElement9SetParentEPS_,"axG",@progbits,_ZN10GuiElement9SetParentEPS_,comdat
	.align 2
	.weak	_ZN10GuiElement9SetParentEPS_
	.type	_ZN10GuiElement9SetParentEPS_, @function
_ZN10GuiElement9SetParentEPS_:
.LFB1384:
	.file 2 "d:/Projects/SaveGameManager/savegame-manager-gx/trunk/source/Files/../GUI/gui_element.h"
	.loc 2 92 0
	.cfi_startproc
.LVL3:
	.loc 2 92 0
	stw 4,96(3)
	blr
	.cfi_endproc
.LFE1384:
	.size	_ZN10GuiElement9SetParentEPS_, .-_ZN10GuiElement9SetParentEPS_
	.section	.text._ZN10GuiElement9GetParentEv,"axG",@progbits,_ZN10GuiElement9GetParentEv,comdat
	.align 2
	.weak	_ZN10GuiElement9GetParentEv
	.type	_ZN10GuiElement9GetParentEv, @function
_ZN10GuiElement9GetParentEv:
.LFB1385:
	.loc 2 95 0
	.cfi_startproc
.LVL4:
	.loc 2 95 0
	lwz 3,96(3)
.LVL5:
	blr
	.cfi_endproc
.LFE1385:
	.size	_ZN10GuiElement9GetParentEv, .-_ZN10GuiElement9GetParentEv
	.section	.text._ZN10GuiElement12GetZPositionEv,"axG",@progbits,_ZN10GuiElement12GetZPositionEv,comdat
	.align 2
	.weak	_ZN10GuiElement12GetZPositionEv
	.type	_ZN10GuiElement12GetZPositionEv, @function
_ZN10GuiElement12GetZPositionEv:
.LFB1386:
	.loc 2 106 0
	.cfi_startproc
.LVL6:
	mflr 0
	stwu 1,-16(1)
.LCFI0:
	.cfi_def_cfa_offset 16
	.cfi_register 65, 0
	stw 31,12(1)
	mr 31,3
	.cfi_offset 31, -4
	stw 0,20(1)
.LBB4707:
	.loc 2 110 0
	lwz 11,96(3)
	.loc 2 108 0
	li 3,0
.LVL7:
	.loc 2 110 0
	cmpwi 7,11,0
	beq- 7,.L8
	.cfi_offset 65, 4
	.loc 2 111 0
	lwz 9,0(11)
	mr 3,11
	lwz 0,24(9)
	mtctr 0
	bctrl
.LVL8:
.L8:
	.loc 2 113 0
	lwz 0,52(31)
.LBE4707:
	.loc 2 114 0
	lwz 31,12(1)
.LVL9:
	add 3,3,0
.LVL10:
	lwz 0,20(1)
	addi 1,1,16
.LCFI1:
	.cfi_def_cfa_offset 0
	.cfi_restore 31
	mtlr 0
	blr
	.cfi_endproc
.LFE1386:
	.size	_ZN10GuiElement12GetZPositionEv, .-_ZN10GuiElement12GetZPositionEv
	.section	.text._ZN10GuiElement10GetLeftPosEv,"axG",@progbits,_ZN10GuiElement10GetLeftPosEv,comdat
	.align 2
	.weak	_ZN10GuiElement10GetLeftPosEv
	.type	_ZN10GuiElement10GetLeftPosEv, @function
_ZN10GuiElement10GetLeftPosEv:
.LFB1387:
	.loc 2 116 0
	.cfi_startproc
.LVL11:
	.loc 2 116 0
	lwz 3,44(3)
.LVL12:
	blr
	.cfi_endproc
.LFE1387:
	.size	_ZN10GuiElement10GetLeftPosEv, .-_ZN10GuiElement10GetLeftPosEv
	.section	.text._ZN10GuiElement9GetTopPosEv,"axG",@progbits,_ZN10GuiElement9GetTopPosEv,comdat
	.align 2
	.weak	_ZN10GuiElement9GetTopPosEv
	.type	_ZN10GuiElement9GetTopPosEv, @function
_ZN10GuiElement9GetTopPosEv:
.LFB1388:
	.loc 2 118 0
	.cfi_startproc
.LVL13:
	.loc 2 118 0
	lwz 3,48(3)
.LVL14:
	blr
	.cfi_endproc
.LFE1388:
	.size	_ZN10GuiElement9GetTopPosEv, .-_ZN10GuiElement9GetTopPosEv
	.section	.text._ZN10GuiElement8GetWidthEv,"axG",@progbits,_ZN10GuiElement8GetWidthEv,comdat
	.align 2
	.weak	_ZN10GuiElement8GetWidthEv
	.type	_ZN10GuiElement8GetWidthEv, @function
_ZN10GuiElement8GetWidthEv:
.LFB1389:
	.loc 2 121 0
	.cfi_startproc
.LVL15:
	.loc 2 121 0
	lwz 3,36(3)
.LVL16:
	blr
	.cfi_endproc
.LFE1389:
	.size	_ZN10GuiElement8GetWidthEv, .-_ZN10GuiElement8GetWidthEv
	.section	.text._ZN10GuiElement9GetHeightEv,"axG",@progbits,_ZN10GuiElement9GetHeightEv,comdat
	.align 2
	.weak	_ZN10GuiElement9GetHeightEv
	.type	_ZN10GuiElement9GetHeightEv, @function
_ZN10GuiElement9GetHeightEv:
.LFB1390:
	.loc 2 124 0
	.cfi_startproc
.LVL17:
	.loc 2 124 0
	lwz 3,40(3)
.LVL18:
	blr
	.cfi_endproc
.LFE1390:
	.size	_ZN10GuiElement9GetHeightEv, .-_ZN10GuiElement9GetHeightEv
	.section	.text._ZN10GuiElement7SetSizeEii,"axG",@progbits,_ZN10GuiElement7SetSizeEii,comdat
	.align 2
	.weak	_ZN10GuiElement7SetSizeEii
	.type	_ZN10GuiElement7SetSizeEii, @function
_ZN10GuiElement7SetSizeEii:
.LFB1391:
	.loc 2 128 0
	.cfi_startproc
.LVL19:
	.loc 2 130 0
	stw 4,36(3)
	.loc 2 132 0
	.loc 2 131 0
	stw 5,40(3)
	.loc 2 132 0
	blr
	.cfi_endproc
.LFE1391:
	.size	_ZN10GuiElement7SetSizeEii, .-_ZN10GuiElement7SetSizeEii
	.section	.text._ZN10GuiElement10SetVisibleEb,"axG",@progbits,_ZN10GuiElement10SetVisibleEb,comdat
	.align 2
	.weak	_ZN10GuiElement10SetVisibleEb
	.type	_ZN10GuiElement10SetVisibleEb, @function
_ZN10GuiElement10SetVisibleEb:
.LFB1392:
	.loc 2 135 0
	.cfi_startproc
	.cfi_personality 0,__gxx_personality_v0
	.cfi_lsda 0,.LLSDA1392
.LVL20:
	mflr 0
	stwu 1,-32(1)
.LCFI2:
	.cfi_def_cfa_offset 32
	.cfi_register 65, 0
	stw 27,12(1)
.LBB4708:
.LBB4709:
	.loc 1 2270 0
	addi 27,3,4
	.cfi_offset 27, -20
.LBE4709:
.LBE4708:
	.loc 2 135 0
	stw 0,36(1)
	stw 30,24(1)
	mr 30,3
	.cfi_offset 30, -8
	.cfi_offset 65, 4
.LBB4732:
.LBB4726:
.LBB4710:
.LBB4711:
	.loc 1 338 0
	lwz 9,4(3)
	mr 3,27
.LVL21:
.LBE4711:
.LBE4710:
.LBE4726:
.LBE4732:
	.loc 2 135 0
	stw 28,16(1)
	mr 28,4
	.cfi_offset 28, -16
.LBB4733:
.LBB4727:
.LBB4715:
.LBB4712:
	.loc 1 338 0
	lwz 0,8(9)
.LBE4712:
.LBE4715:
.LBE4727:
.LBE4733:
	.loc 2 135 0
	stw 29,20(1)
.LBB4734:
	.file 3 "d:/Projects/SaveGameManager/savegame-manager-gx/trunk/source/Files/CustomFileBrowser.cpp"
	.loc 3 326 0
	mr 29,30
	.cfi_offset 29, -12
.LBE4734:
	.loc 2 135 0
	stw 31,28(1)
.LBB4735:
.LBB4728:
.LBB4716:
.LBB4713:
	.loc 1 338 0
	mtctr 0
.LBE4713:
.LBE4716:
.LBE4728:
.LBE4735:
	.loc 2 137 0
	stb 4,29(30)
.LVL22:
.LEHB0:
.LBB4736:
.LBB4729:
.LBB4717:
.LBB4714:
	.loc 1 338 0
	.cfi_offset 31, -4
	bctrl
.LEHE0:
.LVL23:
.LBE4714:
.LBE4717:
.LBE4729:
	.loc 3 326 0
	lwzu 31,8(29)
.LVL24:
.LBB4730:
	.loc 1 2274 0
	cmpw 7,31,29
	beq- 7,.L17
.LVL25:
.L24:
	.loc 1 2279 0
	lwz 3,8(31)
	mr 4,30
	mr 5,28
.LBB4718:
.LBB4719:
	.file 4 "d:\\devkitpro\\devkitppc\\bin\\../lib/gcc/powerpc-eabi/4.6.3/../../../../powerpc-eabi/include/c++/4.6.3/bits/stl_list.h"
	.loc 4 234 0
	lwz 31,0(31)
.LVL26:
.LBE4719:
.LBE4718:
	.loc 1 2279 0
	lwz 9,0(3)
	lwz 0,12(9)
	mtctr 0
.LEHB1:
	bctrl
.LEHE1:
.LVL27:
	.loc 1 2274 0
	cmpw 7,29,31
	bne+ 7,.L24
.LVL28:
.L17:
.LBB4720:
.LBB4721:
.LBB4722:
	.loc 1 343 0
	lwz 9,4(30)
	mr 3,27
	lwz 0,12(9)
	mtctr 0
.LEHB2:
	bctrl
.LEHE2:
.LBE4722:
.LBE4721:
.LBE4720:
.LBE4730:
.LBE4736:
	.loc 2 139 0
	lwz 0,36(1)
	lwz 27,12(1)
.LVL29:
	mtlr 0
	lwz 28,16(1)
.LVL30:
	lwz 29,20(1)
	lwz 30,24(1)
.LVL31:
	lwz 31,28(1)
.LVL32:
	addi 1,1,32
	.cfi_remember_state
.LCFI3:
	.cfi_def_cfa_offset 0
	.cfi_restore 31
	.cfi_restore 30
	.cfi_restore 29
	.cfi_restore 28
	.cfi_restore 27
	blr
.LVL33:
.L23:
.LCFI4:
	.cfi_restore_state
.LBB4737:
.LBB4731:
.LBB4723:
.LBB4724:
.LBB4725:
	.loc 1 343 0
	lwz 9,4(30)
	mr 31,3
.LVL34:
	mr 3,27
	lwz 0,12(9)
	mtctr 0
	bctrl
	mr 3,31
.LEHB3:
	bl _Unwind_Resume
.LEHE3:
.LBE4725:
.LBE4724:
.LBE4723:
.LBE4731:
.LBE4737:
	.cfi_endproc
.LFE1392:
	.globl __gxx_personality_v0
	.section	.gcc_except_table,"a",@progbits
.LLSDA1392:
	.byte	0xff
	.byte	0xff
	.byte	0x1
	.uleb128 .LLSDACSE1392-.LLSDACSB1392
.LLSDACSB1392:
	.uleb128 .LEHB0-.LFB1392
	.uleb128 .LEHE0-.LEHB0
	.uleb128 0
	.uleb128 0
	.uleb128 .LEHB1-.LFB1392
	.uleb128 .LEHE1-.LEHB1
	.uleb128 .L23-.LFB1392
	.uleb128 0
	.uleb128 .LEHB2-.LFB1392
	.uleb128 .LEHE2-.LEHB2
	.uleb128 0
	.uleb128 0
	.uleb128 .LEHB3-.LFB1392
	.uleb128 .LEHE3-.LEHB3
	.uleb128 0
	.uleb128 0
.LLSDACSE1392:
	.section	.text._ZN10GuiElement10SetVisibleEb,"axG",@progbits,_ZN10GuiElement10SetVisibleEb,comdat
	.size	_ZN10GuiElement10SetVisibleEb, .-_ZN10GuiElement10SetVisibleEb
	.section	.text._ZN10GuiElement9IsVisibleEv,"axG",@progbits,_ZN10GuiElement9IsVisibleEv,comdat
	.align 2
	.weak	_ZN10GuiElement9IsVisibleEv
	.type	_ZN10GuiElement9IsVisibleEv, @function
_ZN10GuiElement9IsVisibleEv:
.LFB1393:
	.loc 2 142 0
	.cfi_startproc
.LVL35:
	.loc 2 142 0
	lbz 3,29(3)
.LVL36:
	blr
	.cfi_endproc
.LFE1393:
	.size	_ZN10GuiElement9IsVisibleEv, .-_ZN10GuiElement9IsVisibleEv
	.section	.text._ZN10GuiElement12IsSelectableEv,"axG",@progbits,_ZN10GuiElement12IsSelectableEv,comdat
	.align 2
	.weak	_ZN10GuiElement12IsSelectableEv
	.type	_ZN10GuiElement12IsSelectableEv, @function
_ZN10GuiElement12IsSelectableEv:
.LFB1394:
	.loc 2 145 0
	.cfi_startproc
.LVL37:
	.loc 2 149 0
	lwz 0,72(3)
	li 9,0
	cmpwi 7,0,4
	beq- 7,.L27
	.loc 2 149 0 is_stmt 0 discriminator 1
	cmpwi 7,0,2
	beq- 7,.L27
	.loc 2 149 0 discriminator 3
	lbz 9,30(3)
.L27:
	.loc 2 150 0 is_stmt 1 discriminator 5
	mr 3,9
.LVL38:
	blr
	.cfi_endproc
.LFE1394:
	.size	_ZN10GuiElement12IsSelectableEv, .-_ZN10GuiElement12IsSelectableEv
	.section	.text._ZN10GuiElement11IsClickableEv,"axG",@progbits,_ZN10GuiElement11IsClickableEv,comdat
	.align 2
	.weak	_ZN10GuiElement11IsClickableEv
	.type	_ZN10GuiElement11IsClickableEv, @function
_ZN10GuiElement11IsClickableEv:
.LFB1395:
	.loc 2 153 0
	.cfi_startproc
.LVL39:
	.loc 2 158 0
	lwz 0,72(3)
	li 9,0
	cmpwi 7,0,4
	beq- 7,.L31
	.loc 2 158 0 is_stmt 0 discriminator 1
	cmpwi 7,0,2
	beq- 7,.L31
	.loc 2 158 0 discriminator 3
	cmpwi 7,0,3
	beq- 7,.L31
	.loc 2 158 0 discriminator 4
	lbz 9,31(3)
.L31:
	.loc 2 159 0 is_stmt 1 discriminator 6
	mr 3,9
.LVL40:
	blr
	.cfi_endproc
.LFE1395:
	.size	_ZN10GuiElement11IsClickableEv, .-_ZN10GuiElement11IsClickableEv
	.section	.text._ZN10GuiElement10IsHoldableEv,"axG",@progbits,_ZN10GuiElement10IsHoldableEv,comdat
	.align 2
	.weak	_ZN10GuiElement10IsHoldableEv
	.type	_ZN10GuiElement10IsHoldableEv, @function
_ZN10GuiElement10IsHoldableEv:
.LFB1396:
	.loc 2 162 0
	.cfi_startproc
.LVL41:
	.loc 2 162 0
	lwz 9,72(3)
	li 0,0
	cmpwi 7,9,4
	beq- 7,.L36
	.loc 2 162 0 is_stmt 0 discriminator 1
	lbz 0,32(3)
.L36:
	.loc 2 162 0 discriminator 4
	mr 3,0
.LVL42:
	blr
	.cfi_endproc
.LFE1396:
	.size	_ZN10GuiElement10IsHoldableEv, .-_ZN10GuiElement10IsHoldableEv
	.section	.text._ZN10GuiElement13SetSelectableEb,"axG",@progbits,_ZN10GuiElement13SetSelectableEb,comdat
	.align 2
	.weak	_ZN10GuiElement13SetSelectableEb
	.type	_ZN10GuiElement13SetSelectableEb, @function
_ZN10GuiElement13SetSelectableEb:
.LFB1397:
	.loc 2 165 0 is_stmt 1
	.cfi_startproc
.LVL43:
	.loc 2 165 0
	stb 4,30(3)
	blr
	.cfi_endproc
.LFE1397:
	.size	_ZN10GuiElement13SetSelectableEb, .-_ZN10GuiElement13SetSelectableEb
	.section	.text._ZN10GuiElement12SetClickableEb,"axG",@progbits,_ZN10GuiElement12SetClickableEb,comdat
	.align 2
	.weak	_ZN10GuiElement12SetClickableEb
	.type	_ZN10GuiElement12SetClickableEb, @function
_ZN10GuiElement12SetClickableEb:
.LFB1398:
	.loc 2 168 0
	.cfi_startproc
.LVL44:
	.loc 2 168 0
	stb 4,31(3)
	blr
	.cfi_endproc
.LFE1398:
	.size	_ZN10GuiElement12SetClickableEb, .-_ZN10GuiElement12SetClickableEb
	.section	.text._ZN10GuiElement11SetHoldableEb,"axG",@progbits,_ZN10GuiElement11SetHoldableEb,comdat
	.align 2
	.weak	_ZN10GuiElement11SetHoldableEb
	.type	_ZN10GuiElement11SetHoldableEb, @function
_ZN10GuiElement11SetHoldableEb:
.LFB1399:
	.loc 2 171 0
	.cfi_startproc
.LVL45:
	.loc 2 171 0
	stb 4,32(3)
	blr
	.cfi_endproc
.LFE1399:
	.size	_ZN10GuiElement11SetHoldableEb, .-_ZN10GuiElement11SetHoldableEb
	.section	.text._ZN10GuiElement8GetStateEv,"axG",@progbits,_ZN10GuiElement8GetStateEv,comdat
	.align 2
	.weak	_ZN10GuiElement8GetStateEv
	.type	_ZN10GuiElement8GetStateEv, @function
_ZN10GuiElement8GetStateEv:
.LFB1400:
	.loc 2 178 0
	.cfi_startproc
.LVL46:
	.loc 2 178 0
	lwz 3,72(3)
.LVL47:
	blr
	.cfi_endproc
.LFE1400:
	.size	_ZN10GuiElement8GetStateEv, .-_ZN10GuiElement8GetStateEv
	.section	.text._ZN10GuiElement12GetStateChanEv,"axG",@progbits,_ZN10GuiElement12GetStateChanEv,comdat
	.align 2
	.weak	_ZN10GuiElement12GetStateChanEv
	.type	_ZN10GuiElement12GetStateChanEv, @function
_ZN10GuiElement12GetStateChanEv:
.LFB1401:
	.loc 2 181 0
	.cfi_startproc
.LVL48:
	.loc 2 181 0
	lwz 3,76(3)
.LVL49:
	blr
	.cfi_endproc
.LFE1401:
	.size	_ZN10GuiElement12GetStateChanEv, .-_ZN10GuiElement12GetStateChanEv
	.section	.text._ZN10GuiElement8SetAlphaEi,"axG",@progbits,_ZN10GuiElement8SetAlphaEi,comdat
	.align 2
	.weak	_ZN10GuiElement8SetAlphaEi
	.type	_ZN10GuiElement8SetAlphaEi, @function
_ZN10GuiElement8SetAlphaEi:
.LFB1403:
	.loc 2 190 0
	.cfi_startproc
.LVL50:
	.loc 2 190 0
	stw 4,56(3)
	blr
	.cfi_endproc
.LFE1403:
	.size	_ZN10GuiElement8SetAlphaEi, .-_ZN10GuiElement8SetAlphaEi
	.section	.text._ZN10GuiElement8GetAlphaEv,"axG",@progbits,_ZN10GuiElement8GetAlphaEv,comdat
	.align 2
	.weak	_ZN10GuiElement8GetAlphaEv
	.type	_ZN10GuiElement8GetAlphaEv, @function
_ZN10GuiElement8GetAlphaEv:
.LFB1404:
	.loc 2 194 0
	.cfi_startproc
.LVL51:
	mflr 0
	stwu 1,-40(1)
.LCFI5:
	.cfi_def_cfa_offset 40
	.cfi_register 65, 0
	stw 31,36(1)
	stw 0,44(1)
.LBB4738:
	.loc 2 198 0
	lwz 31,108(3)
	.cfi_offset 65, 4
	.cfi_offset 31, -4
	cmpwi 7,31,0
	blt- 7,.L47
.L45:
.LVL52:
	.loc 2 203 0
	lwz 3,96(3)
.LVL53:
	cmpwi 7,3,0
	beq- 7,.L46
	.loc 2 204 0
	lwz 9,0(3)
	xoris 31,31,0x8000
.LVL54:
	lwz 0,100(9)
	mtctr 0
	bctrl
	lis 0,0x4330
	xoris 3,3,0x8000
	stw 0,16(1)
	stw 3,20(1)
	lis 9,.LC1@ha
	lfs 0,.LC1@l(9)
	lis 9,.LC2@ha
	lfd 13,16(1)
	lfs 12,.LC2@l(9)
	addi 9,1,24
	fsub 13,13,0
	stw 31,12(1)
	stw 0,8(1)
	frsp 13,13
	fdivs 13,13,12
	lfd 12,8(1)
	fsub 0,12,0
	frsp 0,0
	fmuls 0,0,13
	fctiwz 0,0
	stfiwx 0,0,9
	lwz 31,24(1)
.LVL55:
.L46:
.LBE4738:
	.loc 2 207 0
	lwz 0,44(1)
	mr 3,31
	lwz 31,36(1)
.LVL56:
	mtlr 0
	addi 1,1,40
	.cfi_remember_state
.LCFI6:
	.cfi_def_cfa_offset 0
	.cfi_restore 31
	blr
.LVL57:
.L47:
.LCFI7:
	.cfi_restore_state
.LBB4739:
	.loc 2 201 0
	lwz 31,56(3)
.LVL58:
	b .L45
.LBE4739:
	.cfi_endproc
.LFE1404:
	.size	_ZN10GuiElement8GetAlphaEv, .-_ZN10GuiElement8GetAlphaEv
	.section	.text._ZN10GuiElement8SetScaleEf,"axG",@progbits,_ZN10GuiElement8SetScaleEf,comdat
	.align 2
	.weak	_ZN10GuiElement8SetScaleEf
	.type	_ZN10GuiElement8SetScaleEf, @function
_ZN10GuiElement8SetScaleEf:
.LFB1405:
	.loc 2 210 0
	.cfi_startproc
.LVL59:
	.loc 2 212 0
	stfs 1,60(3)
	.loc 2 214 0
	.loc 2 213 0
	stfs 1,64(3)
	.loc 2 214 0
	blr
	.cfi_endproc
.LFE1405:
	.size	_ZN10GuiElement8SetScaleEf, .-_ZN10GuiElement8SetScaleEf
	.section	.text._ZN10GuiElement9SetScaleXEf,"axG",@progbits,_ZN10GuiElement9SetScaleXEf,comdat
	.align 2
	.weak	_ZN10GuiElement9SetScaleXEf
	.type	_ZN10GuiElement9SetScaleXEf, @function
_ZN10GuiElement9SetScaleXEf:
.LFB1406:
	.loc 2 217 0
	.cfi_startproc
.LVL60:
	.loc 2 217 0
	stfs 1,60(3)
	blr
	.cfi_endproc
.LFE1406:
	.size	_ZN10GuiElement9SetScaleXEf, .-_ZN10GuiElement9SetScaleXEf
	.section	.text._ZN10GuiElement9SetScaleYEf,"axG",@progbits,_ZN10GuiElement9SetScaleYEf,comdat
	.align 2
	.weak	_ZN10GuiElement9SetScaleYEf
	.type	_ZN10GuiElement9SetScaleYEf, @function
_ZN10GuiElement9SetScaleYEf:
.LFB1407:
	.loc 2 220 0
	.cfi_startproc
.LVL61:
	.loc 2 220 0
	stfs 1,64(3)
	blr
	.cfi_endproc
.LFE1407:
	.size	_ZN10GuiElement9SetScaleYEf, .-_ZN10GuiElement9SetScaleYEf
	.section	.text._ZN10GuiElement8GetScaleEv,"axG",@progbits,_ZN10GuiElement8GetScaleEv,comdat
	.align 2
	.weak	_ZN10GuiElement8GetScaleEv
	.type	_ZN10GuiElement8GetScaleEv, @function
_ZN10GuiElement8GetScaleEv:
.LFB1408:
	.loc 2 223 0
	.cfi_startproc
.LVL62:
	mflr 0
	stwu 1,-16(1)
.LCFI8:
	.cfi_def_cfa_offset 16
	.cfi_register 65, 0
.LBB4740:
	.loc 2 225 0
	lis 9,.LC3@ha
.LBE4740:
	.loc 2 223 0
	stfd 31,8(1)
	stw 0,20(1)
.LBB4741:
	.loc 2 225 0
	lfs 0,64(3)
	lfs 31,60(3)
	.cfi_offset 65, 4
	.cfi_offset 63, -8
	.loc 2 227 0
	lwz 11,96(3)
	.loc 2 225 0
	fadds 31,31,0
	lfs 0,.LC3@l(9)
	.loc 2 227 0
	cmpwi 7,11,0
	.loc 2 225 0
	fmuls 31,31,0
	lfs 0,112(3)
	fmuls 31,31,0
.LVL63:
	.loc 2 227 0
	beq- 7,.L52
	.loc 2 228 0
	lwz 9,0(11)
	mr 3,11
.LVL64:
	lwz 0,116(9)
	mtctr 0
	bctrl
	fmuls 31,31,1
.LVL65:
.L52:
.LBE4741:
	.loc 2 231 0
	lwz 0,20(1)
	fmr 1,31
	lfd 31,8(1)
.LVL66:
	mtlr 0
	addi 1,1,16
.LCFI9:
	.cfi_def_cfa_offset 0
	.cfi_restore 63
	blr
	.cfi_endproc
.LFE1408:
	.size	_ZN10GuiElement8GetScaleEv, .-_ZN10GuiElement8GetScaleEv
	.section	.text._ZN10GuiElement9GetScaleXEv,"axG",@progbits,_ZN10GuiElement9GetScaleXEv,comdat
	.align 2
	.weak	_ZN10GuiElement9GetScaleXEv
	.type	_ZN10GuiElement9GetScaleXEv, @function
_ZN10GuiElement9GetScaleXEv:
.LFB1409:
	.loc 2 234 0
	.cfi_startproc
.LVL67:
	mflr 0
	stwu 1,-16(1)
.LCFI10:
	.cfi_def_cfa_offset 16
	.cfi_register 65, 0
	stfd 31,8(1)
	stw 0,20(1)
.LBB4742:
	.loc 2 238 0
	lwz 11,96(3)
	.loc 2 236 0
	lfs 31,60(3)
	.cfi_offset 65, 4
	.cfi_offset 63, -8
	.loc 2 238 0
	cmpwi 7,11,0
	.loc 2 236 0
	lfs 0,112(3)
	fmuls 31,31,0
.LVL68:
	.loc 2 238 0
	beq- 7,.L54
	.loc 2 239 0
	lwz 9,0(11)
	mr 3,11
.LVL69:
	lwz 0,120(9)
	mtctr 0
	bctrl
	fmuls 31,31,1
.LVL70:
.L54:
.LBE4742:
	.loc 2 242 0
	lwz 0,20(1)
	fmr 1,31
	lfd 31,8(1)
.LVL71:
	mtlr 0
	addi 1,1,16
.LCFI11:
	.cfi_def_cfa_offset 0
	.cfi_restore 63
	blr
	.cfi_endproc
.LFE1409:
	.size	_ZN10GuiElement9GetScaleXEv, .-_ZN10GuiElement9GetScaleXEv
	.section	.text._ZN10GuiElement9GetScaleYEv,"axG",@progbits,_ZN10GuiElement9GetScaleYEv,comdat
	.align 2
	.weak	_ZN10GuiElement9GetScaleYEv
	.type	_ZN10GuiElement9GetScaleYEv, @function
_ZN10GuiElement9GetScaleYEv:
.LFB1410:
	.loc 2 245 0
	.cfi_startproc
.LVL72:
	mflr 0
	stwu 1,-16(1)
.LCFI12:
	.cfi_def_cfa_offset 16
	.cfi_register 65, 0
	stfd 31,8(1)
	stw 0,20(1)
.LBB4743:
	.loc 2 249 0
	lwz 11,96(3)
	.loc 2 247 0
	lfs 31,64(3)
	.cfi_offset 65, 4
	.cfi_offset 63, -8
	.loc 2 249 0
	cmpwi 7,11,0
	.loc 2 247 0
	lfs 0,112(3)
	fmuls 31,31,0
.LVL73:
	.loc 2 249 0
	beq- 7,.L56
	.loc 2 250 0
	lwz 9,0(11)
	mr 3,11
.LVL74:
	lwz 0,124(9)
	mtctr 0
	bctrl
	fmuls 31,31,1
.LVL75:
.L56:
.LBE4743:
	.loc 2 253 0
	lwz 0,20(1)
	fmr 1,31
	lfd 31,8(1)
.LVL76:
	mtlr 0
	addi 1,1,16
.LCFI13:
	.cfi_def_cfa_offset 0
	.cfi_restore 63
	blr
	.cfi_endproc
.LFE1410:
	.size	_ZN10GuiElement9GetScaleYEv, .-_ZN10GuiElement9GetScaleYEv
	.section	.text._ZN10GuiElement6RumbleEv,"axG",@progbits,_ZN10GuiElement6RumbleEv,comdat
	.align 2
	.weak	_ZN10GuiElement6RumbleEv
	.type	_ZN10GuiElement6RumbleEv, @function
_ZN10GuiElement6RumbleEv:
.LFB1411:
	.loc 2 256 0
	.cfi_startproc
.LVL77:
	.loc 2 256 0
	lbz 3,28(3)
.LVL78:
	blr
	.cfi_endproc
.LFE1411:
	.size	_ZN10GuiElement6RumbleEv, .-_ZN10GuiElement6RumbleEv
	.section	.text._ZN10GuiElement9SetRumbleEb,"axG",@progbits,_ZN10GuiElement9SetRumbleEb,comdat
	.align 2
	.weak	_ZN10GuiElement9SetRumbleEb
	.type	_ZN10GuiElement9SetRumbleEb, @function
_ZN10GuiElement9SetRumbleEb:
.LFB1412:
	.loc 2 259 0
	.cfi_startproc
.LVL79:
	.loc 2 259 0
	stb 4,28(3)
	blr
	.cfi_endproc
.LFE1412:
	.size	_ZN10GuiElement9SetRumbleEb, .-_ZN10GuiElement9SetRumbleEb
	.section	.text._ZN10GuiElement13SetEffectGrowEv,"axG",@progbits,_ZN10GuiElement13SetEffectGrowEv,comdat
	.align 2
	.weak	_ZN10GuiElement13SetEffectGrowEv
	.type	_ZN10GuiElement13SetEffectGrowEv, @function
_ZN10GuiElement13SetEffectGrowEv:
.LFB1413:
	.loc 2 271 0
	.cfi_startproc
.LVL80:
	mflr 0
	stwu 1,-8(1)
.LCFI14:
	.cfi_def_cfa_offset 8
	.cfi_register 65, 0
	lwz 9,0(3)
	li 4,256
	li 5,4
	li 6,110
	stw 0,12(1)
	.loc 2 271 0
	lwz 0,140(9)
	.cfi_offset 65, 4
	mtctr 0
	bctrl
.LVL81:
	lwz 0,12(1)
	addi 1,1,8
.LCFI15:
	.cfi_def_cfa_offset 0
	mtlr 0
	blr
	.cfi_endproc
.LFE1413:
	.size	_ZN10GuiElement13SetEffectGrowEv, .-_ZN10GuiElement13SetEffectGrowEv
	.section	.text._ZNK10GuiElement9GetEffectEv,"axG",@progbits,_ZNK10GuiElement9GetEffectEv,comdat
	.align 2
	.weak	_ZNK10GuiElement9GetEffectEv
	.type	_ZNK10GuiElement9GetEffectEv, @function
_ZNK10GuiElement9GetEffectEv:
.LFB1414:
	.loc 2 276 0
	.cfi_startproc
.LVL82:
	.loc 2 276 0
	lwz 3,120(3)
.LVL83:
	blr
	.cfi_endproc
.LFE1414:
	.size	_ZNK10GuiElement9GetEffectEv, .-_ZNK10GuiElement9GetEffectEv
	.section	.text._ZNK10GuiElement10IsAnimatedEv,"axG",@progbits,_ZNK10GuiElement10IsAnimatedEv,comdat
	.align 2
	.weak	_ZNK10GuiElement10IsAnimatedEv
	.type	_ZNK10GuiElement10IsAnimatedEv, @function
_ZNK10GuiElement10IsAnimatedEv:
.LFB1415:
	.loc 2 278 0
	.cfi_startproc
.LVL84:
	mflr 0
	stwu 1,-8(1)
.LCFI16:
	.cfi_def_cfa_offset 8
	.cfi_register 65, 0
	stw 0,12(1)
	.loc 2 278 0
	lwz 9,0(3)
	lwz 0,152(9)
	.cfi_offset 65, 4
	mtctr 0
	bctrl
.LVL85:
	srawi 0,3,31
	subf 3,3,0
	lwz 0,12(1)
	srwi 3,3,31
	mtlr 0
	addi 1,1,8
.LCFI17:
	.cfi_def_cfa_offset 0
	blr
	.cfi_endproc
.LFE1415:
	.size	_ZNK10GuiElement10IsAnimatedEv, .-_ZNK10GuiElement10IsAnimatedEv
	.section	.text._ZN10GuiElement9SetBoundsE4RectIiE,"axG",@progbits,_ZN10GuiElement9SetBoundsE4RectIiE,comdat
	.align 2
	.weak	_ZN10GuiElement9SetBoundsE4RectIiE
	.type	_ZN10GuiElement9SetBoundsE4RectIiE, @function
_ZN10GuiElement9SetBoundsE4RectIiE:
.LFB1416:
	.loc 2 280 0
	.cfi_startproc
.LVL86:
.LBB4744:
.LBB4745:
	.file 5 "d:/Projects/SaveGameManager/savegame-manager-gx/trunk/source/Files/../GUI/../Tools/Rect.h"
	.loc 5 30 0
	lwz 10,0(4)
.LBE4745:
.LBE4744:
	.loc 2 280 0
.LBB4747:
.LBB4746:
	.loc 5 31 0
	lwz 11,8(4)
	.loc 5 32 0
	lwz 9,4(4)
	.loc 5 33 0
	lwz 0,12(4)
.LVL87:
	.loc 5 30 0
	stw 10,80(3)
	.loc 5 31 0
	stw 11,88(3)
	.loc 5 32 0
	stw 9,84(3)
	.loc 5 33 0
	stw 0,92(3)
.LBE4746:
.LBE4747:
	.loc 2 280 0
	blr
	.cfi_endproc
.LFE1416:
	.size	_ZN10GuiElement9SetBoundsE4RectIiE, .-_ZN10GuiElement9SetBoundsE4RectIiE
	.section	.text._ZN10GuiElement8IsInsideEii,"axG",@progbits,_ZN10GuiElement8IsInsideEii,comdat
	.align 2
	.weak	_ZN10GuiElement8IsInsideEii
	.type	_ZN10GuiElement8IsInsideEii, @function
_ZN10GuiElement8IsInsideEii:
.LFB1417:
	.loc 2 285 0
	.cfi_startproc
.LVL88:
	mflr 0
	stwu 1,-24(1)
.LCFI18:
	.cfi_def_cfa_offset 24
	.cfi_register 65, 0
	stw 28,8(1)
	mr 28,5
	.cfi_offset 28, -16
	stw 0,28(1)
	stw 29,12(1)
	.loc 2 290 0
	li 29,0
	.cfi_offset 29, -12
	.cfi_offset 65, 4
	.loc 2 287 0
	lwz 9,0(3)
	.loc 2 285 0
	stw 30,16(1)
	mr 30,4
	.cfi_offset 30, -8
	.loc 2 287 0
	lwz 0,16(9)
	.loc 2 285 0
	stw 31,20(1)
	.loc 2 285 0
	mr 31,3
	.cfi_offset 31, -4
	.loc 2 287 0
	mtctr 0
	bctrl
.LVL89:
	.loc 2 290 0
	cmpw 7,3,30
	blt- 7,.L68
.L64:
	.loc 2 291 0 discriminator 6
	lwz 0,28(1)
	mr 3,29
	lwz 28,8(1)
.LVL90:
	mtlr 0
	lwz 29,12(1)
	lwz 30,16(1)
.LVL91:
	lwz 31,20(1)
.LVL92:
	addi 1,1,24
	.cfi_remember_state
.LCFI19:
	.cfi_def_cfa_offset 0
	.cfi_restore 31
	.cfi_restore 30
	.cfi_restore 29
	.cfi_restore 28
	blr
.LVL93:
.L68:
.LCFI20:
	.cfi_restore_state
	.loc 2 288 0 discriminator 1
	lwz 9,0(31)
	mr 3,31
	lwz 0,16(9)
	mtctr 0
	bctrl
	.loc 2 290 0 discriminator 1
	lwz 0,36(31)
	add 0,3,0
	cmpw 7,30,0
	bge+ 7,.L64
	.loc 2 289 0 discriminator 3
	lwz 9,0(31)
	mr 3,31
	lwz 0,20(9)
	mtctr 0
	bctrl
	.loc 2 290 0 discriminator 3
	cmpw 7,3,28
	bge+ 7,.L64
	.loc 2 290 0 is_stmt 0 discriminator 4
	lwz 9,0(31)
	mr 3,31
	lwz 0,20(9)
	mtctr 0
	bctrl
	lwz 0,40(31)
	add 0,3,0
	.loc 2 285 0 is_stmt 1 discriminator 4
	cmpw 7,28,0
	mfcr 29
	rlwinm 29,29,29,1
	b .L64
	.cfi_endproc
.LFE1417:
	.size	_ZN10GuiElement8IsInsideEii, .-_ZN10GuiElement8IsInsideEii
	.section	.text._ZN10GuiElement11SetPositionEii,"axG",@progbits,_ZN10GuiElement11SetPositionEii,comdat
	.align 2
	.weak	_ZN10GuiElement11SetPositionEii
	.type	_ZN10GuiElement11SetPositionEii, @function
_ZN10GuiElement11SetPositionEii:
.LFB1418:
	.loc 2 295 0
	.cfi_startproc
.LVL94:
	.loc 2 297 0
	stw 4,44(3)
	.loc 2 299 0
	.loc 2 298 0
	stw 5,48(3)
	.loc 2 299 0
	blr
	.cfi_endproc
.LFE1418:
	.size	_ZN10GuiElement11SetPositionEii, .-_ZN10GuiElement11SetPositionEii
	.section	.text._ZN10GuiElement11SetPositionEiii,"axG",@progbits,_ZN10GuiElement11SetPositionEiii,comdat
	.align 2
	.weak	_ZN10GuiElement11SetPositionEiii
	.type	_ZN10GuiElement11SetPositionEiii, @function
_ZN10GuiElement11SetPositionEiii:
.LFB1419:
	.loc 2 304 0
	.cfi_startproc
.LVL95:
	.loc 2 306 0
	stw 4,44(3)
	.loc 2 309 0
	.loc 2 307 0
	stw 5,48(3)
	.loc 2 308 0
	stw 6,52(3)
	.loc 2 309 0
	blr
	.cfi_endproc
.LFE1419:
	.size	_ZN10GuiElement11SetPositionEiii, .-_ZN10GuiElement11SetPositionEiii
	.section	.text._ZN10GuiElement11GetSelectedEv,"axG",@progbits,_ZN10GuiElement11GetSelectedEv,comdat
	.align 2
	.weak	_ZN10GuiElement11GetSelectedEv
	.type	_ZN10GuiElement11GetSelectedEv, @function
_ZN10GuiElement11GetSelectedEv:
.LFB1420:
	.loc 2 312 0
	.cfi_startproc
.LVL96:
	.loc 2 312 0
	li 3,-1
.LVL97:
	blr
	.cfi_endproc
.LFE1420:
	.size	_ZN10GuiElement11GetSelectedEv, .-_ZN10GuiElement11GetSelectedEv
	.section	.text._ZN10GuiElement12SetAlignmentEi,"axG",@progbits,_ZN10GuiElement12SetAlignmentEi,comdat
	.align 2
	.weak	_ZN10GuiElement12SetAlignmentEi
	.type	_ZN10GuiElement12SetAlignmentEi, @function
_ZN10GuiElement12SetAlignmentEi:
.LFB1421:
	.loc 2 316 0
	.cfi_startproc
.LVL98:
	.loc 2 316 0
	stw 4,68(3)
	blr
	.cfi_endproc
.LFE1421:
	.size	_ZN10GuiElement12SetAlignmentEi, .-_ZN10GuiElement12SetAlignmentEi
	.section	.text._ZNK10GuiElement12GetAlignmentEv,"axG",@progbits,_ZNK10GuiElement12GetAlignmentEv,comdat
	.align 2
	.weak	_ZNK10GuiElement12GetAlignmentEv
	.type	_ZNK10GuiElement12GetAlignmentEv, @function
_ZNK10GuiElement12GetAlignmentEv:
.LFB1422:
	.loc 2 318 0
	.cfi_startproc
.LVL99:
	.loc 2 318 0
	lwz 3,68(3)
.LVL100:
	blr
	.cfi_endproc
.LFE1422:
	.size	_ZNK10GuiElement12GetAlignmentEv, .-_ZNK10GuiElement12GetAlignmentEv
	.section	.text._ZN10GuiElement6UpdateEP10GuiTrigger,"axG",@progbits,_ZN10GuiElement6UpdateEP10GuiTrigger,comdat
	.align 2
	.weak	_ZN10GuiElement6UpdateEP10GuiTrigger
	.type	_ZN10GuiElement6UpdateEP10GuiTrigger, @function
_ZN10GuiElement6UpdateEP10GuiTrigger:
.LFB1423:
	.loc 2 321 0
	.cfi_startproc
.LVL101:
	.loc 2 321 0
	blr
	.cfi_endproc
.LFE1423:
	.size	_ZN10GuiElement6UpdateEP10GuiTrigger, .-_ZN10GuiElement6UpdateEP10GuiTrigger
	.section	.text._ZN10GuiElement4DrawEv,"axG",@progbits,_ZN10GuiElement4DrawEv,comdat
	.align 2
	.weak	_ZN10GuiElement4DrawEv
	.type	_ZN10GuiElement4DrawEv, @function
_ZN10GuiElement4DrawEv:
.LFB1424:
	.loc 2 323 0
	.cfi_startproc
.LVL102:
	.loc 2 323 0
	blr
	.cfi_endproc
.LFE1424:
	.size	_ZN10GuiElement4DrawEv, .-_ZN10GuiElement4DrawEv
	.section	.text._ZN14GuiFileBrowser10SetBrowserEP7Browser,"axG",@progbits,_ZN14GuiFileBrowser10SetBrowserEP7Browser,comdat
	.align 2
	.weak	_ZN14GuiFileBrowser10SetBrowserEP7Browser
	.type	_ZN14GuiFileBrowser10SetBrowserEP7Browser, @function
_ZN14GuiFileBrowser10SetBrowserEP7Browser:
.LFB1467:
	.file 6 "d:/Projects/SaveGameManager/savegame-manager-gx/trunk/source/Files/GuiFileBrowser.hpp"
	.loc 6 38 0
	.cfi_startproc
.LVL103:
	mflr 0
	stwu 1,-8(1)
.LCFI21:
	.cfi_def_cfa_offset 8
	.cfi_register 65, 0
	stw 4,156(3)
	lwz 9,0(3)
	stw 0,12(1)
	.loc 6 38 0
	lwz 0,204(9)
	.cfi_offset 65, 4
	mtctr 0
	bctrl
.LVL104:
	lwz 0,12(1)
	addi 1,1,8
.LCFI22:
	.cfi_def_cfa_offset 0
	mtlr 0
	blr
	.cfi_endproc
.LFE1467:
	.size	_ZN14GuiFileBrowser10SetBrowserEP7Browser, .-_ZN14GuiFileBrowser10SetBrowserEP7Browser
	.section	.text._ZN14GuiFileBrowser7RefreshEv,"axG",@progbits,_ZN14GuiFileBrowser7RefreshEv,comdat
	.align 2
	.weak	_ZN14GuiFileBrowser7RefreshEv
	.type	_ZN14GuiFileBrowser7RefreshEv, @function
_ZN14GuiFileBrowser7RefreshEv:
.LFB1468:
	.loc 6 39 0
	.cfi_startproc
.LVL105:
	.loc 6 39 0
	blr
	.cfi_endproc
.LFE1468:
	.size	_ZN14GuiFileBrowser7RefreshEv, .-_ZN14GuiFileBrowser7RefreshEv
	.section	.text._ZN14GuiFileBrowser11SetSelectedEi,"axG",@progbits,_ZN14GuiFileBrowser11SetSelectedEi,comdat
	.align 2
	.weak	_ZN14GuiFileBrowser11SetSelectedEi
	.type	_ZN14GuiFileBrowser11SetSelectedEi, @function
_ZN14GuiFileBrowser11SetSelectedEi:
.LFB1469:
	.loc 6 40 0
	.cfi_startproc
.LVL106:
	.loc 6 40 0
	blr
	.cfi_endproc
.LFE1469:
	.size	_ZN14GuiFileBrowser11SetSelectedEi, .-_ZN14GuiFileBrowser11SetSelectedEi
	.section	".text"
	.align 2
	.globl _ZN17CustomFileBrowser9OnClickedEP9GuiButtoniRK6_POINT
	.type	_ZN17CustomFileBrowser9OnClickedEP9GuiButtoniRK6_POINT, @function
_ZN17CustomFileBrowser9OnClickedEP9GuiButtoniRK6_POINT:
.LFB1615:
	.loc 3 213 0
	.cfi_startproc
	.cfi_personality 0,__gxx_personality_v0
	.cfi_lsda 0,.LLSDA1615
.LVL107:
	mflr 0
	stwu 1,-32(1)
.LCFI23:
	.cfi_def_cfa_offset 32
	.cfi_register 65, 0
	stw 28,16(1)
	mr 28,3
	.cfi_offset 28, -16
	stw 0,36(1)
	stw 27,12(1)
.LBB4748:
	.loc 3 326 0
	lwz 9,248(3)
.LBB4749:
.LBB4750:
	.file 7 "d:\\devkitpro\\devkitppc\\bin\\../lib/gcc/powerpc-eabi/4.6.3/../../../../powerpc-eabi/include/c++/4.6.3/bits/stl_vector.h"
	.loc 7 571 0
	lwz 0,252(3)
	.cfi_offset 27, -20
	.cfi_offset 65, 4
.LBE4750:
.LBE4749:
.LBE4748:
	.loc 3 213 0
	stw 29,20(1)
.LBB4773:
.LBB4752:
.LBB4751:
	.loc 7 571 0
	subf 0,9,0
.LBE4751:
.LBE4752:
.LBE4773:
	.loc 3 213 0
	stw 30,24(1)
.LBB4774:
	.loc 3 214 0
	srawi. 0,0,2
.LBE4774:
	.loc 3 213 0
	stw 31,28(1)
.LBB4775:
	.loc 3 214 0
	beq- 0,.L79
	.cfi_offset 31, -4
	.cfi_offset 30, -8
	.cfi_offset 29, -12
.LVL108:
	.loc 3 216 0
	lwz 11,0(9)
	li 29,0
	.loc 3 214 0
	mtctr 0
	.loc 3 216 0
	cmpw 7,11,4
	bne+ 7,.L82
	b .L81
.LVL109:
.L87:
	slwi 0,29,2
	lwzx 0,9,0
	cmpw 7,0,4
	beq- 7,.L81
.LVL110:
.L82:
	.loc 3 214 0
	addi 29,29,1
.LVL111:
	bdnz .L87
.LVL112:
.L79:
.LBE4775:
	.loc 3 222 0
	lwz 0,36(1)
	lwz 27,12(1)
	mtlr 0
	lwz 28,16(1)
	lwz 29,20(1)
	lwz 30,24(1)
	lwz 31,28(1)
	addi 1,1,32
	.cfi_remember_state
.LCFI24:
	.cfi_def_cfa_offset 0
	.cfi_restore 31
	.cfi_restore 30
	.cfi_restore 29
	.cfi_restore 28
	.cfi_restore 27
	blr
.L81:
.LCFI25:
	.cfi_restore_state
.LVL113:
.LBB4776:
.LBB4753:
.LBB4754:
.LBB4755:
.LBB4756:
	.loc 1 338 0
	lwz 9,144(28)
.LBE4756:
.LBE4755:
	.loc 1 2203 0
	addi 27,28,144
.LVL114:
.LBB4759:
.LBB4757:
	.loc 1 338 0
	mr 3,27
.LVL115:
.LBE4757:
.LBE4759:
.LBE4754:
	.loc 3 326 0
	mr 30,28
.LBB4769:
.LBB4760:
.LBB4758:
	.loc 1 338 0
	lwz 0,8(9)
	mtctr 0
.LEHB4:
	bctrl
.LEHE4:
.LVL116:
.LBE4758:
.LBE4760:
.LBE4769:
	.loc 3 326 0
	lwzu 31,148(30)
.LVL117:
.LBB4770:
	.loc 1 2207 0
	cmpw 7,31,30
	beq- 7,.L83
.LVL118:
.L92:
	.loc 1 2212 0
	lwz 3,8(31)
	mr 4,29
.LBB4761:
.LBB4762:
	.loc 4 234 0
	lwz 31,0(31)
.LVL119:
.LBE4762:
.LBE4761:
	.loc 1 2212 0
	lwz 9,0(3)
	lwz 0,12(9)
	mtctr 0
.LEHB5:
	bctrl
.LEHE5:
.LVL120:
	.loc 1 2207 0
	cmpw 7,30,31
	bne+ 7,.L92
.LVL121:
.L83:
.LBB4763:
.LBB4764:
.LBB4765:
	.loc 1 343 0
	lwz 9,144(28)
	mr 3,27
	lwz 0,12(9)
	mtctr 0
.LEHB6:
	bctrl
.LEHE6:
.LBE4765:
.LBE4764:
.LBE4763:
.LBE4770:
.LBE4753:
.LBE4776:
	.loc 3 222 0
	lwz 0,36(1)
	lwz 27,12(1)
	mtlr 0
	lwz 28,16(1)
.LVL122:
	lwz 29,20(1)
.LVL123:
	lwz 30,24(1)
.LVL124:
	lwz 31,28(1)
.LVL125:
	addi 1,1,32
	.cfi_remember_state
	.cfi_restore 27
	.cfi_restore 28
	.cfi_restore 29
	.cfi_restore 30
	.cfi_restore 31
.LCFI26:
	.cfi_def_cfa_offset 0
	blr
.LVL126:
.L90:
.LCFI27:
	.cfi_restore_state
.LBB4777:
.LBB4772:
.LBB4771:
.LBB4766:
.LBB4767:
.LBB4768:
	.loc 1 343 0
	lwz 9,144(28)
	mr 31,3
.LVL127:
	mr 3,27
	lwz 0,12(9)
	mtctr 0
	bctrl
	mr 3,31
.LEHB7:
	bl _Unwind_Resume
.LEHE7:
.LBE4768:
.LBE4767:
.LBE4766:
.LBE4771:
.LBE4772:
.LBE4777:
	.cfi_endproc
.LFE1615:
	.section	.gcc_except_table
.LLSDA1615:
	.byte	0xff
	.byte	0xff
	.byte	0x1
	.uleb128 .LLSDACSE1615-.LLSDACSB1615
.LLSDACSB1615:
	.uleb128 .LEHB4-.LFB1615
	.uleb128 .LEHE4-.LEHB4
	.uleb128 0
	.uleb128 0
	.uleb128 .LEHB5-.LFB1615
	.uleb128 .LEHE5-.LEHB5
	.uleb128 .L90-.LFB1615
	.uleb128 0
	.uleb128 .LEHB6-.LFB1615
	.uleb128 .LEHE6-.LEHB6
	.uleb128 0
	.uleb128 0
	.uleb128 .LEHB7-.LFB1615
	.uleb128 .LEHE7-.LEHB7
	.uleb128 0
	.uleb128 0
.LLSDACSE1615:
	.section	".text"
	.size	_ZN17CustomFileBrowser9OnClickedEP9GuiButtoniRK6_POINT, .-_ZN17CustomFileBrowser9OnClickedEP9GuiButtoniRK6_POINT
	.align 2
	.globl _ZN17CustomFileBrowser10ResetStateEv
	.type	_ZN17CustomFileBrowser10ResetStateEv, @function
_ZN17CustomFileBrowser10ResetStateEv:
.LFB1617:
	.loc 3 234 0
	.cfi_startproc
.LVL128:
	mflr 0
	stwu 1,-16(1)
.LCFI28:
	.cfi_def_cfa_offset 16
	.cfi_register 65, 0
	stw 30,8(1)
	mr 30,3
	.cfi_offset 30, -8
	stw 0,20(1)
.LBB4778:
	.loc 3 235 0
	li 0,0
	.cfi_offset 65, 4
.LBE4778:
	.loc 3 234 0
	stw 31,12(1)
.LBB4789:
	.loc 3 326 0
	lwz 9,248(3)
.LBB4779:
.LBB4780:
.LBB4781:
	.loc 7 571 0
	lwz 11,252(3)
.LBE4781:
.LBE4780:
.LBE4779:
	.loc 3 235 0
	stw 0,72(3)
.LBB4786:
.LBB4784:
.LBB4782:
	.loc 7 571 0
	subf 11,9,11
.LBE4782:
.LBE4784:
.LBE4786:
	.loc 3 237 0
	stw 0,188(3)
.LVL129:
.LBB4787:
	.loc 3 239 0
	srwi. 10,11,2
.LBE4787:
	.loc 3 236 0
	li 11,-1
	stw 11,76(3)
.LBB4788:
	.loc 3 239 0
	beq- 0,.L93
	.cfi_offset 31, -4
	li 31,0
.LVL130:
.L95:
	.loc 3 241 0 discriminator 2
	slwi 0,31,2
	.loc 3 239 0 discriminator 2
	addi 31,31,1
.LVL131:
	.loc 3 241 0 discriminator 2
	lwzx 3,9,0
	lwz 9,0(3)
	lwz 0,92(9)
	mtctr 0
	bctrl
.LVL132:
	.loc 3 326 0 discriminator 2
	lwz 9,248(30)
.LBB4785:
.LBB4783:
	.loc 7 571 0 discriminator 2
	lwz 0,252(30)
	subf 0,9,0
	srawi 0,0,2
.LBE4783:
.LBE4785:
	.loc 3 239 0 discriminator 2
	cmplw 7,31,0
	blt+ 7,.L95
.LVL133:
.L93:
.LBE4788:
.LBE4789:
	.loc 3 243 0
	lwz 0,20(1)
	lwz 30,8(1)
.LVL134:
	mtlr 0
	lwz 31,12(1)
	addi 1,1,16
.LCFI29:
	.cfi_def_cfa_offset 0
	.cfi_restore 31
	.cfi_restore 30
	blr
	.cfi_endproc
.LFE1617:
	.size	_ZN17CustomFileBrowser10ResetStateEv, .-_ZN17CustomFileBrowser10ResetStateEv
	.section	.text._ZN7sigslot12_signal_baseINS_15single_threadedEED2Ev,"axG",@progbits,_ZN7sigslot12_signal_baseINS_15single_threadedEED5Ev,comdat
	.align 2
	.weak	_ZN7sigslot12_signal_baseINS_15single_threadedEED2Ev
	.type	_ZN7sigslot12_signal_baseINS_15single_threadedEED2Ev, @function
_ZN7sigslot12_signal_baseINS_15single_threadedEED2Ev:
.LFB1734:
	.loc 1 466 0
	.cfi_startproc
.LVL135:
.LBB4790:
.LBB4791:
.LBB4792:
.LBB4793:
	.loc 1 105 0
	lis 9,_ZTVN7sigslot15single_threadedE+8@ha
.LBE4793:
.LBE4792:
.LBE4791:
.LBE4790:
	.loc 1 466 0
.LBB4797:
.LBB4796:
.LBB4795:
.LBB4794:
	.loc 1 105 0
	la 0,_ZTVN7sigslot15single_threadedE+8@l(9)
	stw 0,0(3)
.LBE4794:
.LBE4795:
.LBE4796:
.LBE4797:
	.loc 1 466 0
	blr
	.cfi_endproc
.LFE1734:
	.size	_ZN7sigslot12_signal_baseINS_15single_threadedEED2Ev, .-_ZN7sigslot12_signal_baseINS_15single_threadedEED2Ev
	.section	.text._ZN7sigslot17_connection_base2IiiNS_15single_threadedEED2Ev,"axG",@progbits,_ZN7sigslot17_connection_base2IiiNS_15single_threadedEED5Ev,comdat
	.align 2
	.weak	_ZN7sigslot17_connection_base2IiiNS_15single_threadedEED2Ev
	.type	_ZN7sigslot17_connection_base2IiiNS_15single_threadedEED2Ev, @function
_ZN7sigslot17_connection_base2IiiNS_15single_threadedEED2Ev:
.LFB1976:
	.loc 1 376 0
	.cfi_startproc
.LVL136:
.LBB4798:
	.loc 1 376 0
	lis 9,_ZTVN7sigslot17_connection_base2IiiNS_15single_threadedEEE+8@ha
.LBE4798:
.LBB4799:
	la 0,_ZTVN7sigslot17_connection_base2IiiNS_15single_threadedEEE+8@l(9)
	stw 0,0(3)
.LBE4799:
	blr
	.cfi_endproc
.LFE1976:
	.size	_ZN7sigslot17_connection_base2IiiNS_15single_threadedEED2Ev, .-_ZN7sigslot17_connection_base2IiiNS_15single_threadedEED2Ev
	.section	.text._ZN7sigslot17_connection_base3IP9GuiButtoniRK6_POINTNS_15single_threadedEED2Ev,"axG",@progbits,_ZN7sigslot17_connection_base3IP9GuiButtoniRK6_POINTNS_15single_threadedEED5Ev,comdat
	.align 2
	.weak	_ZN7sigslot17_connection_base3IP9GuiButtoniRK6_POINTNS_15single_threadedEED2Ev
	.type	_ZN7sigslot17_connection_base3IP9GuiButtoniRK6_POINTNS_15single_threadedEED2Ev, @function
_ZN7sigslot17_connection_base3IP9GuiButtoniRK6_POINTNS_15single_threadedEED2Ev:
.LFB1990:
	.loc 1 387 0
	.cfi_startproc
.LVL137:
.LBB4800:
	.loc 1 387 0
	lis 9,_ZTVN7sigslot17_connection_base3IP9GuiButtoniRK6_POINTNS_15single_threadedEEE+8@ha
.LBE4800:
.LBB4801:
	la 0,_ZTVN7sigslot17_connection_base3IP9GuiButtoniRK6_POINTNS_15single_threadedEEE+8@l(9)
	stw 0,0(3)
.LBE4801:
	blr
	.cfi_endproc
.LFE1990:
	.size	_ZN7sigslot17_connection_base3IP9GuiButtoniRK6_POINTNS_15single_threadedEED2Ev, .-_ZN7sigslot17_connection_base3IP9GuiButtoniRK6_POINTNS_15single_threadedEED2Ev
	.section	.text._ZN7sigslot12_connection3I17CustomFileBrowserP9GuiButtoniRK6_POINTNS_15single_threadedEED2Ev,"axG",@progbits,_ZN7sigslot12_connection3I17CustomFileBrowserP9GuiButtoniRK6_POINTNS_15single_threadedEED5Ev,comdat
	.align 2
	.weak	_ZN7sigslot12_connection3I17CustomFileBrowserP9GuiButtoniRK6_POINTNS_15single_threadedEED2Ev
	.type	_ZN7sigslot12_connection3I17CustomFileBrowserP9GuiButtoniRK6_POINTNS_15single_threadedEED2Ev, @function
_ZN7sigslot12_connection3I17CustomFileBrowserP9GuiButtoniRK6_POINTNS_15single_threadedEED2Ev:
.LFB2447:
	.loc 1 1783 0
	.cfi_startproc
.LVL138:
.LBB4802:
.LBB4803:
.LBB4804:
.LBB4805:
	.loc 1 387 0
	lis 9,_ZTVN7sigslot17_connection_base3IP9GuiButtoniRK6_POINTNS_15single_threadedEEE+8@ha
.LBE4805:
.LBE4804:
.LBE4803:
.LBE4802:
	.loc 1 1786 0
.LBB4809:
.LBB4808:
.LBB4807:
.LBB4806:
	.loc 1 387 0
	la 0,_ZTVN7sigslot17_connection_base3IP9GuiButtoniRK6_POINTNS_15single_threadedEEE+8@l(9)
	stw 0,0(3)
.LBE4806:
.LBE4807:
.LBE4808:
.LBE4809:
	.loc 1 1786 0
	blr
	.cfi_endproc
.LFE2447:
	.size	_ZN7sigslot12_connection3I17CustomFileBrowserP9GuiButtoniRK6_POINTNS_15single_threadedEED2Ev, .-_ZN7sigslot12_connection3I17CustomFileBrowserP9GuiButtoniRK6_POINTNS_15single_threadedEED2Ev
	.section	.text._ZNK7sigslot12_connection3I17CustomFileBrowserP9GuiButtoniRK6_POINTNS_15single_threadedEE7getdestEv,"axG",@progbits,_ZNK7sigslot12_connection3I17CustomFileBrowserP9GuiButtoniRK6_POINTNS_15single_threadedEE7getdestEv,comdat
	.align 2
	.weak	_ZNK7sigslot12_connection3I17CustomFileBrowserP9GuiButtoniRK6_POINTNS_15single_threadedEE7getdestEv
	.type	_ZNK7sigslot12_connection3I17CustomFileBrowserP9GuiButtoniRK6_POINTNS_15single_threadedEE7getdestEv, @function
_ZNK7sigslot12_connection3I17CustomFileBrowserP9GuiButtoniRK6_POINTNS_15single_threadedEE7getdestEv:
.LFB2450:
	.loc 1 1804 0
	.cfi_startproc
.LVL139:
	.loc 1 1806 0
	lwz 9,4(3)
	li 3,0
.LVL140:
	cmpwi 7,9,0
	beqlr- 7
	.loc 1 1806 0 is_stmt 0 discriminator 1
	addi 3,9,160
	.loc 1 1807 0 is_stmt 1 discriminator 1
	blr
	.cfi_endproc
.LFE2450:
	.size	_ZNK7sigslot12_connection3I17CustomFileBrowserP9GuiButtoniRK6_POINTNS_15single_threadedEE7getdestEv, .-_ZNK7sigslot12_connection3I17CustomFileBrowserP9GuiButtoniRK6_POINTNS_15single_threadedEE7getdestEv
	.section	.text._ZN7sigslot12_connection3I17CustomFileBrowserP9GuiButtoniRK6_POINTNS_15single_threadedEE4emitES3_iS6_,"axG",@progbits,_ZN7sigslot12_connection3I17CustomFileBrowserP9GuiButtoniRK6_POINTNS_15single_threadedEE4emitES3_iS6_,comdat
	.align 2
	.weak	_ZN7sigslot12_connection3I17CustomFileBrowserP9GuiButtoniRK6_POINTNS_15single_threadedEE4emitES3_iS6_
	.type	_ZN7sigslot12_connection3I17CustomFileBrowserP9GuiButtoniRK6_POINTNS_15single_threadedEE4emitES3_iS6_, @function
_ZN7sigslot12_connection3I17CustomFileBrowserP9GuiButtoniRK6_POINTNS_15single_threadedEE4emitES3_iS6_:
.LFB2451:
	.loc 1 1799 0
	.cfi_startproc
.LVL141:
	mflr 0
	stwu 1,-8(1)
.LCFI30:
	.cfi_def_cfa_offset 8
	.cfi_register 65, 0
	stw 0,12(1)
	.loc 1 1801 0
	lwz 0,8(3)
	.cfi_offset 65, 4
	lwz 11,4(3)
	andi. 9,0,1
	lwz 9,12(3)
	bne- 0,.L111
	mtctr 0
	add 3,11,9
.LVL142:
	bctrl
.LVL143:
	.loc 1 1802 0
	lwz 0,12(1)
	addi 1,1,8
	.cfi_remember_state
.LCFI31:
	.cfi_def_cfa_offset 0
	mtlr 0
	blr
.LVL144:
.L111:
.LCFI32:
	.cfi_restore_state
	.loc 1 1801 0 discriminator 1
	lwzx 10,11,9
	add 3,11,9
.LVL145:
	add 9,10,0
	lwz 0,-1(9)
	mtctr 0
	bctrl
.LVL146:
	.loc 1 1802 0 discriminator 1
	lwz 0,12(1)
	addi 1,1,8
.LCFI33:
	.cfi_def_cfa_offset 0
	mtlr 0
	blr
	.cfi_endproc
.LFE2451:
	.size	_ZN7sigslot12_connection3I17CustomFileBrowserP9GuiButtoniRK6_POINTNS_15single_threadedEE4emitES3_iS6_, .-_ZN7sigslot12_connection3I17CustomFileBrowserP9GuiButtoniRK6_POINTNS_15single_threadedEE4emitES3_iS6_
	.section	.text._ZN7sigslot12_connection2I17CustomFileBrowseriiNS_15single_threadedEED2Ev,"axG",@progbits,_ZN7sigslot12_connection2I17CustomFileBrowseriiNS_15single_threadedEED5Ev,comdat
	.align 2
	.weak	_ZN7sigslot12_connection2I17CustomFileBrowseriiNS_15single_threadedEED2Ev
	.type	_ZN7sigslot12_connection2I17CustomFileBrowseriiNS_15single_threadedEED2Ev, @function
_ZN7sigslot12_connection2I17CustomFileBrowseriiNS_15single_threadedEED2Ev:
.LFB2461:
	.loc 1 1735 0
	.cfi_startproc
.LVL147:
.LBB4810:
.LBB4811:
.LBB4812:
.LBB4813:
	.loc 1 376 0
	lis 9,_ZTVN7sigslot17_connection_base2IiiNS_15single_threadedEEE+8@ha
.LBE4813:
.LBE4812:
.LBE4811:
.LBE4810:
	.loc 1 1738 0
.LBB4817:
.LBB4816:
.LBB4815:
.LBB4814:
	.loc 1 376 0
	la 0,_ZTVN7sigslot17_connection_base2IiiNS_15single_threadedEEE+8@l(9)
	stw 0,0(3)
.LBE4814:
.LBE4815:
.LBE4816:
.LBE4817:
	.loc 1 1738 0
	blr
	.cfi_endproc
.LFE2461:
	.size	_ZN7sigslot12_connection2I17CustomFileBrowseriiNS_15single_threadedEED2Ev, .-_ZN7sigslot12_connection2I17CustomFileBrowseriiNS_15single_threadedEED2Ev
	.section	.text._ZNK7sigslot12_connection2I17CustomFileBrowseriiNS_15single_threadedEE7getdestEv,"axG",@progbits,_ZNK7sigslot12_connection2I17CustomFileBrowseriiNS_15single_threadedEE7getdestEv,comdat
	.align 2
	.weak	_ZNK7sigslot12_connection2I17CustomFileBrowseriiNS_15single_threadedEE7getdestEv
	.type	_ZNK7sigslot12_connection2I17CustomFileBrowseriiNS_15single_threadedEE7getdestEv, @function
_ZNK7sigslot12_connection2I17CustomFileBrowseriiNS_15single_threadedEE7getdestEv:
.LFB2464:
	.loc 1 1756 0
	.cfi_startproc
.LVL148:
	.loc 1 1758 0
	lwz 9,4(3)
	li 3,0
.LVL149:
	cmpwi 7,9,0
	beqlr- 7
	.loc 1 1758 0 is_stmt 0 discriminator 1
	addi 3,9,160
	.loc 1 1759 0 is_stmt 1 discriminator 1
	blr
	.cfi_endproc
.LFE2464:
	.size	_ZNK7sigslot12_connection2I17CustomFileBrowseriiNS_15single_threadedEE7getdestEv, .-_ZNK7sigslot12_connection2I17CustomFileBrowseriiNS_15single_threadedEE7getdestEv
	.section	.text._ZN7sigslot12_connection2I17CustomFileBrowseriiNS_15single_threadedEE4emitEii,"axG",@progbits,_ZN7sigslot12_connection2I17CustomFileBrowseriiNS_15single_threadedEE4emitEii,comdat
	.align 2
	.weak	_ZN7sigslot12_connection2I17CustomFileBrowseriiNS_15single_threadedEE4emitEii
	.type	_ZN7sigslot12_connection2I17CustomFileBrowseriiNS_15single_threadedEE4emitEii, @function
_ZN7sigslot12_connection2I17CustomFileBrowseriiNS_15single_threadedEE4emitEii:
.LFB2465:
	.loc 1 1751 0
	.cfi_startproc
.LVL150:
	mflr 0
	stwu 1,-8(1)
.LCFI34:
	.cfi_def_cfa_offset 8
	.cfi_register 65, 0
	stw 0,12(1)
	.loc 1 1753 0
	lwz 0,8(3)
	.cfi_offset 65, 4
	lwz 11,4(3)
	andi. 9,0,1
	lwz 9,12(3)
	bne- 0,.L120
	mtctr 0
	add 3,11,9
.LVL151:
	bctrl
.LVL152:
	.loc 1 1754 0
	lwz 0,12(1)
	addi 1,1,8
	.cfi_remember_state
.LCFI35:
	.cfi_def_cfa_offset 0
	mtlr 0
	blr
.LVL153:
.L120:
.LCFI36:
	.cfi_restore_state
	.loc 1 1753 0 discriminator 1
	lwzx 10,11,9
	add 3,11,9
.LVL154:
	add 9,10,0
	lwz 0,-1(9)
	mtctr 0
	bctrl
.LVL155:
	.loc 1 1754 0 discriminator 1
	lwz 0,12(1)
	addi 1,1,8
.LCFI37:
	.cfi_def_cfa_offset 0
	mtlr 0
	blr
	.cfi_endproc
.LFE2465:
	.size	_ZN7sigslot12_connection2I17CustomFileBrowseriiNS_15single_threadedEE4emitEii, .-_ZN7sigslot12_connection2I17CustomFileBrowseriiNS_15single_threadedEE4emitEii
	.section	.text._ZN7sigslot12_connection2I17CustomFileBrowseriiNS_15single_threadedEE9duplicateEPNS_9has_slotsIS2_EE,"axG",@progbits,_ZN7sigslot12_connection2I17CustomFileBrowseriiNS_15single_threadedEE9duplicateEPNS_9has_slotsIS2_EE,comdat
	.align 2
	.weak	_ZN7sigslot12_connection2I17CustomFileBrowseriiNS_15single_threadedEE9duplicateEPNS_9has_slotsIS2_EE
	.type	_ZN7sigslot12_connection2I17CustomFileBrowseriiNS_15single_threadedEE9duplicateEPNS_9has_slotsIS2_EE, @function
_ZN7sigslot12_connection2I17CustomFileBrowseriiNS_15single_threadedEE9duplicateEPNS_9has_slotsIS2_EE:
.LFB2473:
	.loc 1 1746 0
	.cfi_startproc
.LVL156:
	stwu 1,-16(1)
.LCFI38:
	.cfi_def_cfa_offset 16
	mflr 0
	stw 30,8(1)
	mr 30,4
	.cfi_offset 30, -8
	.cfi_register 65, 0
	stw 31,12(1)
	mr 31,3
	.cfi_offset 31, -4
	.loc 1 1748 0
	li 3,16
.LVL157:
	.loc 1 1746 0
	stw 0,20(1)
	.loc 1 1748 0
	.cfi_offset 65, 4
	bl _Znwj
.LVL158:
	cmpwi 7,30,0
	li 0,0
	beq- 7,.L123
	.loc 1 1748 0 is_stmt 0 discriminator 1
	addi 0,30,-160
.L123:
.LVL159:
	.loc 1 1748 0 discriminator 3
	lwz 11,8(31)
.LVL160:
.LBB4818:
.LBB4819:
	.loc 1 1730 0 is_stmt 1 discriminator 3
	lis 10,_ZTVN7sigslot12_connection2I17CustomFileBrowseriiNS_15single_threadedEEE+8@ha
.LBE4819:
.LBE4818:
	.loc 1 1748 0 discriminator 3
	lwz 9,12(31)
.LVL161:
.LBB4822:
.LBB4820:
	.loc 1 1730 0 discriminator 3
	la 10,_ZTVN7sigslot12_connection2I17CustomFileBrowseriiNS_15single_threadedEEE+8@l(10)
	.loc 1 1732 0 discriminator 3
	stw 11,8(3)
	stw 9,12(3)
	.loc 1 1731 0 discriminator 3
	stw 0,4(3)
.LBE4820:
.LBE4822:
	.loc 1 1749 0 discriminator 3
	lwz 0,20(1)
.LVL162:
	lwz 30,8(1)
.LVL163:
	mtlr 0
	lwz 31,12(1)
.LVL164:
.LBB4823:
.LBB4821:
	.loc 1 1730 0 discriminator 3
	stw 10,0(3)
.LBE4821:
.LBE4823:
	.loc 1 1749 0 discriminator 3
	addi 1,1,16
.LCFI39:
	.cfi_def_cfa_offset 0
	.cfi_restore 31
	.cfi_restore 30
	blr
	.cfi_endproc
.LFE2473:
	.size	_ZN7sigslot12_connection2I17CustomFileBrowseriiNS_15single_threadedEE9duplicateEPNS_9has_slotsIS2_EE, .-_ZN7sigslot12_connection2I17CustomFileBrowseriiNS_15single_threadedEE9duplicateEPNS_9has_slotsIS2_EE
	.section	.text._ZN7sigslot12_connection3I17CustomFileBrowserP9GuiButtoniRK6_POINTNS_15single_threadedEE9duplicateEPNS_9has_slotsIS7_EE,"axG",@progbits,_ZN7sigslot12_connection3I17CustomFileBrowserP9GuiButtoniRK6_POINTNS_15single_threadedEE9duplicateEPNS_9has_slotsIS7_EE,comdat
	.align 2
	.weak	_ZN7sigslot12_connection3I17CustomFileBrowserP9GuiButtoniRK6_POINTNS_15single_threadedEE9duplicateEPNS_9has_slotsIS7_EE
	.type	_ZN7sigslot12_connection3I17CustomFileBrowserP9GuiButtoniRK6_POINTNS_15single_threadedEE9duplicateEPNS_9has_slotsIS7_EE, @function
_ZN7sigslot12_connection3I17CustomFileBrowserP9GuiButtoniRK6_POINTNS_15single_threadedEE9duplicateEPNS_9has_slotsIS7_EE:
.LFB2459:
	.loc 1 1794 0
	.cfi_startproc
.LVL165:
	stwu 1,-16(1)
.LCFI40:
	.cfi_def_cfa_offset 16
	mflr 0
	stw 30,8(1)
	mr 30,4
	.cfi_offset 30, -8
	.cfi_register 65, 0
	stw 31,12(1)
	mr 31,3
	.cfi_offset 31, -4
	.loc 1 1796 0
	li 3,16
.LVL166:
	.loc 1 1794 0
	stw 0,20(1)
	.loc 1 1796 0
	.cfi_offset 65, 4
	bl _Znwj
.LVL167:
	cmpwi 7,30,0
	li 0,0
	beq- 7,.L126
	.loc 1 1796 0 is_stmt 0 discriminator 1
	addi 0,30,-160
.L126:
.LVL168:
	.loc 1 1796 0 discriminator 3
	lwz 11,8(31)
.LVL169:
.LBB4824:
.LBB4825:
	.loc 1 1778 0 is_stmt 1 discriminator 3
	lis 10,_ZTVN7sigslot12_connection3I17CustomFileBrowserP9GuiButtoniRK6_POINTNS_15single_threadedEEE+8@ha
.LBE4825:
.LBE4824:
	.loc 1 1796 0 discriminator 3
	lwz 9,12(31)
.LVL170:
.LBB4828:
.LBB4826:
	.loc 1 1778 0 discriminator 3
	la 10,_ZTVN7sigslot12_connection3I17CustomFileBrowserP9GuiButtoniRK6_POINTNS_15single_threadedEEE+8@l(10)
	.loc 1 1780 0 discriminator 3
	stw 11,8(3)
	stw 9,12(3)
	.loc 1 1779 0 discriminator 3
	stw 0,4(3)
.LBE4826:
.LBE4828:
	.loc 1 1797 0 discriminator 3
	lwz 0,20(1)
.LVL171:
	lwz 30,8(1)
.LVL172:
	mtlr 0
	lwz 31,12(1)
.LVL173:
.LBB4829:
.LBB4827:
	.loc 1 1778 0 discriminator 3
	stw 10,0(3)
.LBE4827:
.LBE4829:
	.loc 1 1797 0 discriminator 3
	addi 1,1,16
.LCFI41:
	.cfi_def_cfa_offset 0
	.cfi_restore 31
	.cfi_restore 30
	blr
	.cfi_endproc
.LFE2459:
	.size	_ZN7sigslot12_connection3I17CustomFileBrowserP9GuiButtoniRK6_POINTNS_15single_threadedEE9duplicateEPNS_9has_slotsIS7_EE, .-_ZN7sigslot12_connection3I17CustomFileBrowserP9GuiButtoniRK6_POINTNS_15single_threadedEE9duplicateEPNS_9has_slotsIS7_EE
	.section	.text._ZN7sigslot12_connection3I17CustomFileBrowserP9GuiButtoniRK6_POINTNS_15single_threadedEE5cloneEv,"axG",@progbits,_ZN7sigslot12_connection3I17CustomFileBrowserP9GuiButtoniRK6_POINTNS_15single_threadedEE5cloneEv,comdat
	.align 2
	.weak	_ZN7sigslot12_connection3I17CustomFileBrowserP9GuiButtoniRK6_POINTNS_15single_threadedEE5cloneEv
	.type	_ZN7sigslot12_connection3I17CustomFileBrowserP9GuiButtoniRK6_POINTNS_15single_threadedEE5cloneEv, @function
_ZN7sigslot12_connection3I17CustomFileBrowserP9GuiButtoniRK6_POINTNS_15single_threadedEE5cloneEv:
.LFB2452:
	.loc 1 1789 0
	.cfi_startproc
.LVL174:
	stwu 1,-16(1)
.LCFI42:
	.cfi_def_cfa_offset 16
	mflr 0
	stw 31,12(1)
	mr 31,3
	.cfi_offset 31, -4
	.cfi_register 65, 0
	.loc 1 1791 0
	li 3,16
.LVL175:
	.loc 1 1789 0
	stw 0,20(1)
	.loc 1 1791 0
	.cfi_offset 65, 4
	bl _Znwj
	.loc 3 326 0
	lwz 0,4(31)
.LVL176:
.LBB4830:
.LBB4831:
	.loc 1 1767 0
	lis 11,_ZTVN7sigslot12_connection3I17CustomFileBrowserP9GuiButtoniRK6_POINTNS_15single_threadedEEE+8@ha
	la 11,_ZTVN7sigslot12_connection3I17CustomFileBrowserP9GuiButtoniRK6_POINTNS_15single_threadedEEE+8@l(11)
	stw 0,4(3)
	stw 11,0(3)
	lwz 10,8(31)
	lwz 11,12(31)
	stw 10,8(3)
	stw 11,12(3)
.LBE4831:
.LBE4830:
	.loc 1 1792 0
	lwz 0,20(1)
	lwz 31,12(1)
.LVL177:
	mtlr 0
	addi 1,1,16
.LCFI43:
	.cfi_def_cfa_offset 0
	.cfi_restore 31
	blr
	.cfi_endproc
.LFE2452:
	.size	_ZN7sigslot12_connection3I17CustomFileBrowserP9GuiButtoniRK6_POINTNS_15single_threadedEE5cloneEv, .-_ZN7sigslot12_connection3I17CustomFileBrowserP9GuiButtoniRK6_POINTNS_15single_threadedEE5cloneEv
	.section	.text._ZN7sigslot12_connection2I17CustomFileBrowseriiNS_15single_threadedEE5cloneEv,"axG",@progbits,_ZN7sigslot12_connection2I17CustomFileBrowseriiNS_15single_threadedEE5cloneEv,comdat
	.align 2
	.weak	_ZN7sigslot12_connection2I17CustomFileBrowseriiNS_15single_threadedEE5cloneEv
	.type	_ZN7sigslot12_connection2I17CustomFileBrowseriiNS_15single_threadedEE5cloneEv, @function
_ZN7sigslot12_connection2I17CustomFileBrowseriiNS_15single_threadedEE5cloneEv:
.LFB2466:
	.loc 1 1741 0
	.cfi_startproc
.LVL178:
	stwu 1,-16(1)
.LCFI44:
	.cfi_def_cfa_offset 16
	mflr 0
	stw 31,12(1)
	mr 31,3
	.cfi_offset 31, -4
	.cfi_register 65, 0
	.loc 1 1743 0
	li 3,16
.LVL179:
	.loc 1 1741 0
	stw 0,20(1)
	.loc 1 1743 0
	.cfi_offset 65, 4
	bl _Znwj
	.loc 3 326 0
	lwz 0,4(31)
.LVL180:
.LBB4832:
.LBB4833:
	.loc 1 1719 0
	lis 11,_ZTVN7sigslot12_connection2I17CustomFileBrowseriiNS_15single_threadedEEE+8@ha
	la 11,_ZTVN7sigslot12_connection2I17CustomFileBrowseriiNS_15single_threadedEEE+8@l(11)
	stw 0,4(3)
	stw 11,0(3)
	lwz 10,8(31)
	lwz 11,12(31)
	stw 10,8(3)
	stw 11,12(3)
.LBE4833:
.LBE4832:
	.loc 1 1744 0
	lwz 0,20(1)
	lwz 31,12(1)
.LVL181:
	mtlr 0
	addi 1,1,16
.LCFI45:
	.cfi_def_cfa_offset 0
	.cfi_restore 31
	blr
	.cfi_endproc
.LFE2466:
	.size	_ZN7sigslot12_connection2I17CustomFileBrowseriiNS_15single_threadedEE5cloneEv, .-_ZN7sigslot12_connection2I17CustomFileBrowseriiNS_15single_threadedEE5cloneEv
	.section	.text._ZN7sigslot13_signal_base1IiNS_15single_threadedEE14slot_duplicateEPKNS_9has_slotsIS1_EEPS4_,"axG",@progbits,_ZN7sigslot13_signal_base1IiNS_15single_threadedEE14slot_duplicateEPKNS_9has_slotsIS1_EEPS4_,comdat
	.align 2
	.weak	_ZN7sigslot13_signal_base1IiNS_15single_threadedEE14slot_duplicateEPKNS_9has_slotsIS1_EEPS4_
	.type	_ZN7sigslot13_signal_base1IiNS_15single_threadedEE14slot_duplicateEPKNS_9has_slotsIS1_EEPS4_, @function
_ZN7sigslot13_signal_base1IiNS_15single_threadedEE14slot_duplicateEPKNS_9has_slotsIS1_EEPS4_:
.LFB2475:
	.loc 1 685 0
	.cfi_startproc
	.cfi_personality 0,__gxx_personality_v0
	.cfi_lsda 0,.LLSDA2475
.LVL182:
	mflr 0
	stwu 1,-32(1)
.LCFI46:
	.cfi_def_cfa_offset 32
	.cfi_register 65, 0
	stw 26,8(1)
	mr 26,5
	.cfi_offset 26, -24
	stw 0,36(1)
	stw 27,12(1)
	mr 27,3
	.cfi_offset 27, -20
	.cfi_offset 65, 4
.LVL183:
.LBB4834:
.LBB4835:
.LBB4836:
	.loc 1 338 0
	lwz 9,0(3)
.LBE4836:
.LBE4835:
.LBE4834:
	.loc 1 685 0
	stw 29,20(1)
	mr 29,4
	.cfi_offset 29, -12
.LBB4865:
.LBB4841:
.LBB4837:
	.loc 1 338 0
	lwz 0,8(9)
.LBE4837:
.LBE4841:
.LBE4865:
	.loc 1 685 0
	stw 30,24(1)
.LBB4866:
.LBB4842:
.LBB4838:
	.loc 3 326 0
	mr 30,27
	.cfi_offset 30, -8
.LBE4838:
.LBE4842:
.LBE4866:
	.loc 1 685 0
	stw 31,28(1)
.LBB4867:
.LBB4843:
.LBB4839:
	.loc 1 338 0
	mtctr 0
.LBE4839:
.LBE4843:
.LBE4867:
	.loc 1 685 0
	stw 28,16(1)
.LEHB8:
.LBB4868:
.LBB4844:
.LBB4840:
	.loc 1 338 0
	.cfi_offset 28, -16
	.cfi_offset 31, -4
	bctrl
.LEHE8:
.LVL184:
	.loc 3 326 0
	lwzu 31,4(30)
.LVL185:
.LBE4840:
.LBE4844:
	.loc 1 691 0
	cmpw 7,31,30
	bne+ 7,.L140
	b .L131
.LVL186:
.L132:
.LBB4845:
.LBB4846:
	.loc 4 154 0
	lwz 31,0(31)
.LVL187:
.LBE4846:
.LBE4845:
	.loc 1 691 0
	cmpw 7,30,31
	beq- 7,.L131
.LVL188:
.L140:
	.loc 1 693 0
	lwz 3,8(31)
	lwz 9,0(3)
	lwz 0,8(9)
	mtctr 0
.LEHB9:
	bctrl
	cmpw 7,29,3
	bne+ 7,.L132
.LVL189:
	.loc 1 695 0
	lwz 3,8(31)
	mr 4,26
	lwz 9,0(3)
	lwz 0,20(9)
	mtctr 0
	bctrl
	mr 28,3
.LVL190:
.LBB4848:
.LBB4849:
.LBB4850:
.LBB4851:
.LBB4852:
.LBB4853:
.LBB4854:
.LBB4855:
	.file 8 "d:\\devkitpro\\devkitppc\\bin\\../lib/gcc/powerpc-eabi/4.6.3/../../../../powerpc-eabi/include/c++/4.6.3/ext/new_allocator.h"
	.loc 8 92 0
	li 3,12
	bl _Znwj
.LEHE9:
.LVL191:
.LBE4855:
.LBE4854:
.LBE4853:
.LBB4856:
.LBB4857:
	.loc 8 108 0 discriminator 1
	cmpwi 7,3,-8
	beq- 7,.L134
	.loc 8 108 0 is_stmt 0
	stw 28,8(3)
.L134:
.LVL192:
.LBE4857:
.LBE4856:
.LBE4852:
.LBE4851:
	.loc 4 1516 0 is_stmt 1
	mr 4,30
	bl _ZNSt8__detail15_List_node_base7_M_hookEPS0_
.LVL193:
.LBE4850:
.LBE4849:
.LBE4848:
.LBB4858:
.LBB4847:
	.loc 4 154 0
	lwz 31,0(31)
.LVL194:
.LBE4847:
.LBE4858:
	.loc 1 691 0
	cmpw 7,30,31
	bne+ 7,.L140
.LVL195:
.L131:
.LBB4859:
.LBB4860:
.LBB4861:
	.loc 1 343 0
	lwz 9,0(27)
	mr 3,27
	lwz 0,12(9)
	mtctr 0
.LEHB10:
	bctrl
.LEHE10:
.LBE4861:
.LBE4860:
.LBE4859:
.LBE4868:
	.loc 1 700 0
	lwz 0,36(1)
	lwz 26,8(1)
.LVL196:
	mtlr 0
	lwz 27,12(1)
.LVL197:
	lwz 28,16(1)
	lwz 29,20(1)
.LVL198:
	lwz 30,24(1)
.LVL199:
	lwz 31,28(1)
.LVL200:
	addi 1,1,32
	.cfi_remember_state
.LCFI47:
	.cfi_def_cfa_offset 0
	.cfi_restore 31
	.cfi_restore 30
	.cfi_restore 29
	.cfi_restore 28
	.cfi_restore 27
	.cfi_restore 26
	blr
.LVL201:
.L139:
.LCFI48:
	.cfi_restore_state
.LBB4869:
.LBB4862:
.LBB4863:
.LBB4864:
	.loc 1 343 0
	lwz 9,0(27)
	mr 31,3
.LVL202:
	mr 3,27
	lwz 0,12(9)
	mtctr 0
	bctrl
	mr 3,31
.LEHB11:
	bl _Unwind_Resume
.LEHE11:
.LBE4864:
.LBE4863:
.LBE4862:
.LBE4869:
	.cfi_endproc
.LFE2475:
	.section	.gcc_except_table
.LLSDA2475:
	.byte	0xff
	.byte	0xff
	.byte	0x1
	.uleb128 .LLSDACSE2475-.LLSDACSB2475
.LLSDACSB2475:
	.uleb128 .LEHB8-.LFB2475
	.uleb128 .LEHE8-.LEHB8
	.uleb128 0
	.uleb128 0
	.uleb128 .LEHB9-.LFB2475
	.uleb128 .LEHE9-.LEHB9
	.uleb128 .L139-.LFB2475
	.uleb128 0
	.uleb128 .LEHB10-.LFB2475
	.uleb128 .LEHE10-.LEHB10
	.uleb128 0
	.uleb128 0
	.uleb128 .LEHB11-.LFB2475
	.uleb128 .LEHE11-.LEHB11
	.uleb128 0
	.uleb128 0
.LLSDACSE2475:
	.section	.text._ZN7sigslot13_signal_base1IiNS_15single_threadedEE14slot_duplicateEPKNS_9has_slotsIS1_EEPS4_,"axG",@progbits,_ZN7sigslot13_signal_base1IiNS_15single_threadedEE14slot_duplicateEPKNS_9has_slotsIS1_EEPS4_,comdat
	.size	_ZN7sigslot13_signal_base1IiNS_15single_threadedEE14slot_duplicateEPKNS_9has_slotsIS1_EEPS4_, .-_ZN7sigslot13_signal_base1IiNS_15single_threadedEE14slot_duplicateEPKNS_9has_slotsIS1_EEPS4_
	.section	.text._ZN7sigslot13_signal_base3IP10GuiElementiiNS_15single_threadedEE14slot_duplicateEPKNS_9has_slotsIS3_EEPS6_,"axG",@progbits,_ZN7sigslot13_signal_base3IP10GuiElementiiNS_15single_threadedEE14slot_duplicateEPKNS_9has_slotsIS3_EEPS6_,comdat
	.align 2
	.weak	_ZN7sigslot13_signal_base3IP10GuiElementiiNS_15single_threadedEE14slot_duplicateEPKNS_9has_slotsIS3_EEPS6_
	.type	_ZN7sigslot13_signal_base3IP10GuiElementiiNS_15single_threadedEE14slot_duplicateEPKNS_9has_slotsIS3_EEPS6_, @function
_ZN7sigslot13_signal_base3IP10GuiElementiiNS_15single_threadedEE14slot_duplicateEPKNS_9has_slotsIS3_EEPS6_:
.LFB2477:
	.loc 1 926 0
	.cfi_startproc
	.cfi_personality 0,__gxx_personality_v0
	.cfi_lsda 0,.LLSDA2477
.LVL203:
	mflr 0
	stwu 1,-32(1)
.LCFI49:
	.cfi_def_cfa_offset 32
	.cfi_register 65, 0
	stw 26,8(1)
	mr 26,5
	.cfi_offset 26, -24
	stw 0,36(1)
	stw 27,12(1)
	mr 27,3
	.cfi_offset 27, -20
	.cfi_offset 65, 4
.LVL204:
.LBB4870:
.LBB4871:
.LBB4872:
	.loc 1 338 0
	lwz 9,0(3)
.LBE4872:
.LBE4871:
.LBE4870:
	.loc 1 926 0
	stw 29,20(1)
	mr 29,4
	.cfi_offset 29, -12
.LBB4901:
.LBB4877:
.LBB4873:
	.loc 1 338 0
	lwz 0,8(9)
.LBE4873:
.LBE4877:
.LBE4901:
	.loc 1 926 0
	stw 30,24(1)
.LBB4902:
.LBB4878:
.LBB4874:
	.loc 3 326 0
	mr 30,27
	.cfi_offset 30, -8
.LBE4874:
.LBE4878:
.LBE4902:
	.loc 1 926 0
	stw 31,28(1)
.LBB4903:
.LBB4879:
.LBB4875:
	.loc 1 338 0
	mtctr 0
.LBE4875:
.LBE4879:
.LBE4903:
	.loc 1 926 0
	stw 28,16(1)
.LEHB12:
.LBB4904:
.LBB4880:
.LBB4876:
	.loc 1 338 0
	.cfi_offset 28, -16
	.cfi_offset 31, -4
	bctrl
.LEHE12:
.LVL205:
	.loc 3 326 0
	lwzu 31,4(30)
.LVL206:
.LBE4876:
.LBE4880:
	.loc 1 932 0
	cmpw 7,31,30
	bne+ 7,.L152
	b .L143
.LVL207:
.L144:
.LBB4881:
.LBB4882:
	.loc 4 154 0
	lwz 31,0(31)
.LVL208:
.LBE4882:
.LBE4881:
	.loc 1 932 0
	cmpw 7,30,31
	beq- 7,.L143
.LVL209:
.L152:
	.loc 1 934 0
	lwz 3,8(31)
	lwz 9,0(3)
	lwz 0,8(9)
	mtctr 0
.LEHB13:
	bctrl
	cmpw 7,29,3
	bne+ 7,.L144
.LVL210:
	.loc 1 936 0
	lwz 3,8(31)
	mr 4,26
	lwz 9,0(3)
	lwz 0,20(9)
	mtctr 0
	bctrl
	mr 28,3
.LVL211:
.LBB4884:
.LBB4885:
.LBB4886:
.LBB4887:
.LBB4888:
.LBB4889:
.LBB4890:
.LBB4891:
	.loc 8 92 0
	li 3,12
	bl _Znwj
.LEHE13:
.LVL212:
.LBE4891:
.LBE4890:
.LBE4889:
.LBB4892:
.LBB4893:
	.loc 8 108 0 discriminator 1
	cmpwi 7,3,-8
	beq- 7,.L146
	.loc 8 108 0 is_stmt 0
	stw 28,8(3)
.L146:
.LVL213:
.LBE4893:
.LBE4892:
.LBE4888:
.LBE4887:
	.loc 4 1516 0 is_stmt 1
	mr 4,30
	bl _ZNSt8__detail15_List_node_base7_M_hookEPS0_
.LVL214:
.LBE4886:
.LBE4885:
.LBE4884:
.LBB4894:
.LBB4883:
	.loc 4 154 0
	lwz 31,0(31)
.LVL215:
.LBE4883:
.LBE4894:
	.loc 1 932 0
	cmpw 7,30,31
	bne+ 7,.L152
.LVL216:
.L143:
.LBB4895:
.LBB4896:
.LBB4897:
	.loc 1 343 0
	lwz 9,0(27)
	mr 3,27
	lwz 0,12(9)
	mtctr 0
.LEHB14:
	bctrl
.LEHE14:
.LBE4897:
.LBE4896:
.LBE4895:
.LBE4904:
	.loc 1 941 0
	lwz 0,36(1)
	lwz 26,8(1)
.LVL217:
	mtlr 0
	lwz 27,12(1)
.LVL218:
	lwz 28,16(1)
	lwz 29,20(1)
.LVL219:
	lwz 30,24(1)
.LVL220:
	lwz 31,28(1)
.LVL221:
	addi 1,1,32
	.cfi_remember_state
.LCFI50:
	.cfi_def_cfa_offset 0
	.cfi_restore 31
	.cfi_restore 30
	.cfi_restore 29
	.cfi_restore 28
	.cfi_restore 27
	.cfi_restore 26
	blr
.LVL222:
.L151:
.LCFI51:
	.cfi_restore_state
.LBB4905:
.LBB4898:
.LBB4899:
.LBB4900:
	.loc 1 343 0
	lwz 9,0(27)
	mr 31,3
.LVL223:
	mr 3,27
	lwz 0,12(9)
	mtctr 0
	bctrl
	mr 3,31
.LEHB15:
	bl _Unwind_Resume
.LEHE15:
.LBE4900:
.LBE4899:
.LBE4898:
.LBE4905:
	.cfi_endproc
.LFE2477:
	.section	.gcc_except_table
.LLSDA2477:
	.byte	0xff
	.byte	0xff
	.byte	0x1
	.uleb128 .LLSDACSE2477-.LLSDACSB2477
.LLSDACSB2477:
	.uleb128 .LEHB12-.LFB2477
	.uleb128 .LEHE12-.LEHB12
	.uleb128 0
	.uleb128 0
	.uleb128 .LEHB13-.LFB2477
	.uleb128 .LEHE13-.LEHB13
	.uleb128 .L151-.LFB2477
	.uleb128 0
	.uleb128 .LEHB14-.LFB2477
	.uleb128 .LEHE14-.LEHB14
	.uleb128 0
	.uleb128 0
	.uleb128 .LEHB15-.LFB2477
	.uleb128 .LEHE15-.LEHB15
	.uleb128 0
	.uleb128 0
.LLSDACSE2477:
	.section	.text._ZN7sigslot13_signal_base3IP10GuiElementiiNS_15single_threadedEE14slot_duplicateEPKNS_9has_slotsIS3_EEPS6_,"axG",@progbits,_ZN7sigslot13_signal_base3IP10GuiElementiiNS_15single_threadedEE14slot_duplicateEPKNS_9has_slotsIS3_EEPS6_,comdat
	.size	_ZN7sigslot13_signal_base3IP10GuiElementiiNS_15single_threadedEE14slot_duplicateEPKNS_9has_slotsIS3_EEPS6_, .-_ZN7sigslot13_signal_base3IP10GuiElementiiNS_15single_threadedEE14slot_duplicateEPKNS_9has_slotsIS3_EEPS6_
	.section	.text._ZN7sigslot13_signal_base2IP10GuiElementbNS_15single_threadedEE14slot_duplicateEPKNS_9has_slotsIS3_EEPS6_,"axG",@progbits,_ZN7sigslot13_signal_base2IP10GuiElementbNS_15single_threadedEE14slot_duplicateEPKNS_9has_slotsIS3_EEPS6_,comdat
	.align 2
	.weak	_ZN7sigslot13_signal_base2IP10GuiElementbNS_15single_threadedEE14slot_duplicateEPKNS_9has_slotsIS3_EEPS6_
	.type	_ZN7sigslot13_signal_base2IP10GuiElementbNS_15single_threadedEE14slot_duplicateEPKNS_9has_slotsIS3_EEPS6_, @function
_ZN7sigslot13_signal_base2IP10GuiElementbNS_15single_threadedEE14slot_duplicateEPKNS_9has_slotsIS3_EEPS6_:
.LFB2479:
	.loc 1 806 0
	.cfi_startproc
	.cfi_personality 0,__gxx_personality_v0
	.cfi_lsda 0,.LLSDA2479
.LVL224:
	mflr 0
	stwu 1,-32(1)
.LCFI52:
	.cfi_def_cfa_offset 32
	.cfi_register 65, 0
	stw 26,8(1)
	mr 26,5
	.cfi_offset 26, -24
	stw 0,36(1)
	stw 27,12(1)
	mr 27,3
	.cfi_offset 27, -20
	.cfi_offset 65, 4
.LVL225:
.LBB4906:
.LBB4907:
.LBB4908:
	.loc 1 338 0
	lwz 9,0(3)
.LBE4908:
.LBE4907:
.LBE4906:
	.loc 1 806 0
	stw 29,20(1)
	mr 29,4
	.cfi_offset 29, -12
.LBB4937:
.LBB4913:
.LBB4909:
	.loc 1 338 0
	lwz 0,8(9)
.LBE4909:
.LBE4913:
.LBE4937:
	.loc 1 806 0
	stw 30,24(1)
.LBB4938:
.LBB4914:
.LBB4910:
	.loc 3 326 0
	mr 30,27
	.cfi_offset 30, -8
.LBE4910:
.LBE4914:
.LBE4938:
	.loc 1 806 0
	stw 31,28(1)
.LBB4939:
.LBB4915:
.LBB4911:
	.loc 1 338 0
	mtctr 0
.LBE4911:
.LBE4915:
.LBE4939:
	.loc 1 806 0
	stw 28,16(1)
.LEHB16:
.LBB4940:
.LBB4916:
.LBB4912:
	.loc 1 338 0
	.cfi_offset 28, -16
	.cfi_offset 31, -4
	bctrl
.LEHE16:
.LVL226:
	.loc 3 326 0
	lwzu 31,4(30)
.LVL227:
.LBE4912:
.LBE4916:
	.loc 1 812 0
	cmpw 7,31,30
	bne+ 7,.L164
	b .L155
.LVL228:
.L156:
.LBB4917:
.LBB4918:
	.loc 4 154 0
	lwz 31,0(31)
.LVL229:
.LBE4918:
.LBE4917:
	.loc 1 812 0
	cmpw 7,30,31
	beq- 7,.L155
.LVL230:
.L164:
	.loc 1 814 0
	lwz 3,8(31)
	lwz 9,0(3)
	lwz 0,8(9)
	mtctr 0
.LEHB17:
	bctrl
	cmpw 7,29,3
	bne+ 7,.L156
.LVL231:
	.loc 1 816 0
	lwz 3,8(31)
	mr 4,26
	lwz 9,0(3)
	lwz 0,20(9)
	mtctr 0
	bctrl
	mr 28,3
.LVL232:
.LBB4920:
.LBB4921:
.LBB4922:
.LBB4923:
.LBB4924:
.LBB4925:
.LBB4926:
.LBB4927:
	.loc 8 92 0
	li 3,12
	bl _Znwj
.LEHE17:
.LVL233:
.LBE4927:
.LBE4926:
.LBE4925:
.LBB4928:
.LBB4929:
	.loc 8 108 0 discriminator 1
	cmpwi 7,3,-8
	beq- 7,.L158
	.loc 8 108 0 is_stmt 0
	stw 28,8(3)
.L158:
.LVL234:
.LBE4929:
.LBE4928:
.LBE4924:
.LBE4923:
	.loc 4 1516 0 is_stmt 1
	mr 4,30
	bl _ZNSt8__detail15_List_node_base7_M_hookEPS0_
.LVL235:
.LBE4922:
.LBE4921:
.LBE4920:
.LBB4930:
.LBB4919:
	.loc 4 154 0
	lwz 31,0(31)
.LVL236:
.LBE4919:
.LBE4930:
	.loc 1 812 0
	cmpw 7,30,31
	bne+ 7,.L164
.LVL237:
.L155:
.LBB4931:
.LBB4932:
.LBB4933:
	.loc 1 343 0
	lwz 9,0(27)
	mr 3,27
	lwz 0,12(9)
	mtctr 0
.LEHB18:
	bctrl
.LEHE18:
.LBE4933:
.LBE4932:
.LBE4931:
.LBE4940:
	.loc 1 821 0
	lwz 0,36(1)
	lwz 26,8(1)
.LVL238:
	mtlr 0
	lwz 27,12(1)
.LVL239:
	lwz 28,16(1)
	lwz 29,20(1)
.LVL240:
	lwz 30,24(1)
.LVL241:
	lwz 31,28(1)
.LVL242:
	addi 1,1,32
	.cfi_remember_state
.LCFI53:
	.cfi_def_cfa_offset 0
	.cfi_restore 31
	.cfi_restore 30
	.cfi_restore 29
	.cfi_restore 28
	.cfi_restore 27
	.cfi_restore 26
	blr
.LVL243:
.L163:
.LCFI54:
	.cfi_restore_state
.LBB4941:
.LBB4934:
.LBB4935:
.LBB4936:
	.loc 1 343 0
	lwz 9,0(27)
	mr 31,3
.LVL244:
	mr 3,27
	lwz 0,12(9)
	mtctr 0
	bctrl
	mr 3,31
.LEHB19:
	bl _Unwind_Resume
.LEHE19:
.LBE4936:
.LBE4935:
.LBE4934:
.LBE4941:
	.cfi_endproc
.LFE2479:
	.section	.gcc_except_table
.LLSDA2479:
	.byte	0xff
	.byte	0xff
	.byte	0x1
	.uleb128 .LLSDACSE2479-.LLSDACSB2479
.LLSDACSB2479:
	.uleb128 .LEHB16-.LFB2479
	.uleb128 .LEHE16-.LEHB16
	.uleb128 0
	.uleb128 0
	.uleb128 .LEHB17-.LFB2479
	.uleb128 .LEHE17-.LEHB17
	.uleb128 .L163-.LFB2479
	.uleb128 0
	.uleb128 .LEHB18-.LFB2479
	.uleb128 .LEHE18-.LEHB18
	.uleb128 0
	.uleb128 0
	.uleb128 .LEHB19-.LFB2479
	.uleb128 .LEHE19-.LEHB19
	.uleb128 0
	.uleb128 0
.LLSDACSE2479:
	.section	.text._ZN7sigslot13_signal_base2IP10GuiElementbNS_15single_threadedEE14slot_duplicateEPKNS_9has_slotsIS3_EEPS6_,"axG",@progbits,_ZN7sigslot13_signal_base2IP10GuiElementbNS_15single_threadedEE14slot_duplicateEPKNS_9has_slotsIS3_EEPS6_,comdat
	.size	_ZN7sigslot13_signal_base2IP10GuiElementbNS_15single_threadedEE14slot_duplicateEPKNS_9has_slotsIS3_EEPS6_, .-_ZN7sigslot13_signal_base2IP10GuiElementbNS_15single_threadedEE14slot_duplicateEPKNS_9has_slotsIS3_EEPS6_
	.section	.text._ZN7sigslot12_connection2I17CustomFileBrowseriiNS_15single_threadedEED0Ev,"axG",@progbits,_ZN7sigslot12_connection2I17CustomFileBrowseriiNS_15single_threadedEED5Ev,comdat
	.align 2
	.weak	_ZN7sigslot12_connection2I17CustomFileBrowseriiNS_15single_threadedEED0Ev
	.type	_ZN7sigslot12_connection2I17CustomFileBrowseriiNS_15single_threadedEED0Ev, @function
_ZN7sigslot12_connection2I17CustomFileBrowseriiNS_15single_threadedEED0Ev:
.LFB2463:
	.loc 1 1735 0
	.cfi_startproc
.LVL245:
	mflr 0
	stwu 1,-8(1)
.LCFI55:
	.cfi_def_cfa_offset 8
	.cfi_register 65, 0
.LBB4942:
.LBB4943:
.LBB4944:
.LBB4945:
.LBB4946:
.LBB4947:
	.loc 1 376 0
	lis 9,_ZTVN7sigslot17_connection_base2IiiNS_15single_threadedEEE+8@ha
.LBE4947:
.LBE4946:
.LBE4945:
.LBE4944:
.LBE4943:
.LBE4942:
	.loc 1 1735 0
	stw 0,12(1)
.LBB4953:
.LBB4952:
.LBB4951:
.LBB4950:
.LBB4949:
.LBB4948:
	.loc 1 376 0
	la 0,_ZTVN7sigslot17_connection_base2IiiNS_15single_threadedEEE+8@l(9)
	.cfi_offset 65, 4
	stw 0,0(3)
.LBE4948:
.LBE4949:
.LBE4950:
.LBE4951:
.LBE4952:
.LBE4953:
	.loc 1 1738 0
	bl _ZdlPv
.LVL246:
	lwz 0,12(1)
	addi 1,1,8
.LCFI56:
	.cfi_def_cfa_offset 0
	mtlr 0
	blr
	.cfi_endproc
.LFE2463:
	.size	_ZN7sigslot12_connection2I17CustomFileBrowseriiNS_15single_threadedEED0Ev, .-_ZN7sigslot12_connection2I17CustomFileBrowseriiNS_15single_threadedEED0Ev
	.section	.text._ZN7sigslot12_connection3I17CustomFileBrowserP9GuiButtoniRK6_POINTNS_15single_threadedEED0Ev,"axG",@progbits,_ZN7sigslot12_connection3I17CustomFileBrowserP9GuiButtoniRK6_POINTNS_15single_threadedEED5Ev,comdat
	.align 2
	.weak	_ZN7sigslot12_connection3I17CustomFileBrowserP9GuiButtoniRK6_POINTNS_15single_threadedEED0Ev
	.type	_ZN7sigslot12_connection3I17CustomFileBrowserP9GuiButtoniRK6_POINTNS_15single_threadedEED0Ev, @function
_ZN7sigslot12_connection3I17CustomFileBrowserP9GuiButtoniRK6_POINTNS_15single_threadedEED0Ev:
.LFB2449:
	.loc 1 1783 0
	.cfi_startproc
.LVL247:
	mflr 0
	stwu 1,-8(1)
.LCFI57:
	.cfi_def_cfa_offset 8
	.cfi_register 65, 0
.LBB4954:
.LBB4955:
.LBB4956:
.LBB4957:
.LBB4958:
.LBB4959:
	.loc 1 387 0
	lis 9,_ZTVN7sigslot17_connection_base3IP9GuiButtoniRK6_POINTNS_15single_threadedEEE+8@ha
.LBE4959:
.LBE4958:
.LBE4957:
.LBE4956:
.LBE4955:
.LBE4954:
	.loc 1 1783 0
	stw 0,12(1)
.LBB4965:
.LBB4964:
.LBB4963:
.LBB4962:
.LBB4961:
.LBB4960:
	.loc 1 387 0
	la 0,_ZTVN7sigslot17_connection_base3IP9GuiButtoniRK6_POINTNS_15single_threadedEEE+8@l(9)
	.cfi_offset 65, 4
	stw 0,0(3)
.LBE4960:
.LBE4961:
.LBE4962:
.LBE4963:
.LBE4964:
.LBE4965:
	.loc 1 1786 0
	bl _ZdlPv
.LVL248:
	lwz 0,12(1)
	addi 1,1,8
.LCFI58:
	.cfi_def_cfa_offset 0
	mtlr 0
	blr
	.cfi_endproc
.LFE2449:
	.size	_ZN7sigslot12_connection3I17CustomFileBrowserP9GuiButtoniRK6_POINTNS_15single_threadedEED0Ev, .-_ZN7sigslot12_connection3I17CustomFileBrowserP9GuiButtoniRK6_POINTNS_15single_threadedEED0Ev
	.section	.text._ZN7sigslot17_connection_base3IP9GuiButtoniRK6_POINTNS_15single_threadedEED0Ev,"axG",@progbits,_ZN7sigslot17_connection_base3IP9GuiButtoniRK6_POINTNS_15single_threadedEED5Ev,comdat
	.align 2
	.weak	_ZN7sigslot17_connection_base3IP9GuiButtoniRK6_POINTNS_15single_threadedEED0Ev
	.type	_ZN7sigslot17_connection_base3IP9GuiButtoniRK6_POINTNS_15single_threadedEED0Ev, @function
_ZN7sigslot17_connection_base3IP9GuiButtoniRK6_POINTNS_15single_threadedEED0Ev:
.LFB1992:
	.loc 1 387 0
	.cfi_startproc
.LVL249:
	mflr 0
	stwu 1,-8(1)
.LCFI59:
	.cfi_def_cfa_offset 8
	.cfi_register 65, 0
.LBB4966:
.LBB4967:
.LBB4968:
	lis 9,_ZTVN7sigslot17_connection_base3IP9GuiButtoniRK6_POINTNS_15single_threadedEEE+8@ha
.LBE4968:
.LBE4967:
.LBE4966:
	stw 0,12(1)
.LBB4971:
.LBB4970:
.LBB4969:
	.loc 1 387 0
	la 0,_ZTVN7sigslot17_connection_base3IP9GuiButtoniRK6_POINTNS_15single_threadedEEE+8@l(9)
	.cfi_offset 65, 4
	stw 0,0(3)
.LBE4969:
.LBE4970:
.LBE4971:
	bl _ZdlPv
.LVL250:
	lwz 0,12(1)
	addi 1,1,8
.LCFI60:
	.cfi_def_cfa_offset 0
	mtlr 0
	blr
	.cfi_endproc
.LFE1992:
	.size	_ZN7sigslot17_connection_base3IP9GuiButtoniRK6_POINTNS_15single_threadedEED0Ev, .-_ZN7sigslot17_connection_base3IP9GuiButtoniRK6_POINTNS_15single_threadedEED0Ev
	.section	.text._ZN7sigslot17_connection_base2IiiNS_15single_threadedEED0Ev,"axG",@progbits,_ZN7sigslot17_connection_base2IiiNS_15single_threadedEED5Ev,comdat
	.align 2
	.weak	_ZN7sigslot17_connection_base2IiiNS_15single_threadedEED0Ev
	.type	_ZN7sigslot17_connection_base2IiiNS_15single_threadedEED0Ev, @function
_ZN7sigslot17_connection_base2IiiNS_15single_threadedEED0Ev:
.LFB1978:
	.loc 1 376 0
	.cfi_startproc
.LVL251:
	mflr 0
	stwu 1,-8(1)
.LCFI61:
	.cfi_def_cfa_offset 8
	.cfi_register 65, 0
.LBB4972:
.LBB4973:
.LBB4974:
	lis 9,_ZTVN7sigslot17_connection_base2IiiNS_15single_threadedEEE+8@ha
.LBE4974:
.LBE4973:
.LBE4972:
	stw 0,12(1)
.LBB4977:
.LBB4976:
.LBB4975:
	.loc 1 376 0
	la 0,_ZTVN7sigslot17_connection_base2IiiNS_15single_threadedEEE+8@l(9)
	.cfi_offset 65, 4
	stw 0,0(3)
.LBE4975:
.LBE4976:
.LBE4977:
	bl _ZdlPv
.LVL252:
	lwz 0,12(1)
	addi 1,1,8
.LCFI62:
	.cfi_def_cfa_offset 0
	mtlr 0
	blr
	.cfi_endproc
.LFE1978:
	.size	_ZN7sigslot17_connection_base2IiiNS_15single_threadedEED0Ev, .-_ZN7sigslot17_connection_base2IiiNS_15single_threadedEED0Ev
	.section	.text._ZN7sigslot12_signal_baseINS_15single_threadedEED0Ev,"axG",@progbits,_ZN7sigslot12_signal_baseINS_15single_threadedEED5Ev,comdat
	.align 2
	.weak	_ZN7sigslot12_signal_baseINS_15single_threadedEED0Ev
	.type	_ZN7sigslot12_signal_baseINS_15single_threadedEED0Ev, @function
_ZN7sigslot12_signal_baseINS_15single_threadedEED0Ev:
.LFB1736:
	.loc 1 466 0
	.cfi_startproc
.LVL253:
	mflr 0
	stwu 1,-8(1)
.LCFI63:
	.cfi_def_cfa_offset 8
	.cfi_register 65, 0
.LBB4978:
.LBB4979:
.LBB4980:
.LBB4981:
.LBB4982:
.LBB4983:
	.loc 1 105 0
	lis 9,_ZTVN7sigslot15single_threadedE+8@ha
.LBE4983:
.LBE4982:
.LBE4981:
.LBE4980:
.LBE4979:
.LBE4978:
	.loc 1 466 0
	stw 0,12(1)
.LBB4989:
.LBB4988:
.LBB4987:
.LBB4986:
.LBB4985:
.LBB4984:
	.loc 1 105 0
	la 0,_ZTVN7sigslot15single_threadedE+8@l(9)
	.cfi_offset 65, 4
	stw 0,0(3)
.LBE4984:
.LBE4985:
.LBE4986:
.LBE4987:
.LBE4988:
.LBE4989:
	.loc 1 466 0
	bl _ZdlPv
.LVL254:
	lwz 0,12(1)
	addi 1,1,8
.LCFI64:
	.cfi_def_cfa_offset 0
	mtlr 0
	blr
	.cfi_endproc
.LFE1736:
	.size	_ZN7sigslot12_signal_baseINS_15single_threadedEED0Ev, .-_ZN7sigslot12_signal_baseINS_15single_threadedEED0Ev
	.section	.text._ZN7sigslot15single_threadedD0Ev,"axG",@progbits,_ZN7sigslot15single_threadedD5Ev,comdat
	.align 2
	.weak	_ZN7sigslot15single_threadedD0Ev
	.type	_ZN7sigslot15single_threadedD0Ev, @function
_ZN7sigslot15single_threadedD0Ev:
.LFB1150:
	.loc 1 104 0
	.cfi_startproc
.LVL255:
	mflr 0
	stwu 1,-8(1)
.LCFI65:
	.cfi_def_cfa_offset 8
	.cfi_register 65, 0
.LBB4990:
.LBB4991:
.LBB4992:
	.loc 1 105 0
	lis 9,_ZTVN7sigslot15single_threadedE+8@ha
.LBE4992:
.LBE4991:
.LBE4990:
	.loc 1 104 0
	stw 0,12(1)
.LBB4995:
.LBB4994:
.LBB4993:
	.loc 1 105 0
	la 0,_ZTVN7sigslot15single_threadedE+8@l(9)
	.cfi_offset 65, 4
	stw 0,0(3)
.LBE4993:
.LBE4994:
.LBE4995:
	.loc 1 107 0
	bl _ZdlPv
.LVL256:
	lwz 0,12(1)
	addi 1,1,8
.LCFI66:
	.cfi_def_cfa_offset 0
	mtlr 0
	blr
	.cfi_endproc
.LFE1150:
	.size	_ZN7sigslot15single_threadedD0Ev, .-_ZN7sigslot15single_threadedD0Ev
	.section	.text._ZN7sigslot13_signal_base1IiNS_15single_threadedEE15slot_disconnectEPNS_9has_slotsIS1_EE,"axG",@progbits,_ZN7sigslot13_signal_base1IiNS_15single_threadedEE15slot_disconnectEPNS_9has_slotsIS1_EE,comdat
	.align 2
	.weak	_ZN7sigslot13_signal_base1IiNS_15single_threadedEE15slot_disconnectEPNS_9has_slotsIS1_EE
	.type	_ZN7sigslot13_signal_base1IiNS_15single_threadedEE15slot_disconnectEPNS_9has_slotsIS1_EE, @function
_ZN7sigslot13_signal_base1IiNS_15single_threadedEE15slot_disconnectEPNS_9has_slotsIS1_EE:
.LFB2474:
	.loc 1 749 0
	.cfi_startproc
	.cfi_personality 0,__gxx_personality_v0
	.cfi_lsda 0,.LLSDA2474
.LVL257:
	mflr 0
	stwu 1,-32(1)
.LCFI67:
	.cfi_def_cfa_offset 32
	.cfi_register 65, 0
	stw 27,12(1)
	mr 27,3
	.cfi_offset 27, -20
.LVL258:
	stw 0,36(1)
	stw 28,16(1)
	mr 28,4
	.cfi_offset 28, -16
	.cfi_offset 65, 4
.LBB4996:
.LBB4997:
.LBB4998:
	.loc 1 338 0
	lwz 9,0(3)
.LBE4998:
.LBE4997:
.LBE4996:
	.loc 1 749 0
	stw 29,20(1)
.LBB5019:
.LBB5001:
.LBB4999:
	.loc 3 326 0
	mr 29,27
	.cfi_offset 29, -12
	.loc 1 338 0
	lwz 0,8(9)
.LBE4999:
.LBE5001:
.LBE5019:
	.loc 1 749 0
	stw 31,28(1)
	stw 30,24(1)
.LBB5020:
.LBB5002:
.LBB5000:
	.loc 1 338 0
	mtctr 0
.LEHB20:
	.cfi_offset 30, -8
	.cfi_offset 31, -4
	bctrl
.LEHE20:
.LVL259:
	.loc 3 326 0
	lwzu 31,4(29)
.LVL260:
.LBE5000:
.LBE5002:
	.loc 1 755 0
	cmpw 7,31,29
	bne+ 7,.L199
	b .L188
.LVL261:
.L189:
	.loc 1 755 0 is_stmt 0 discriminator 1
	cmpw 7,29,30
	beq- 7,.L188
.L197:
	.loc 1 755 0
	mr 31,30
.LVL262:
.L199:
.LBB5003:
	.loc 1 760 0 is_stmt 1
	lwz 3,8(31)
.LBB5004:
.LBB5005:
	.loc 4 154 0
	lwz 30,0(31)
.LVL263:
.LBE5005:
.LBE5004:
	.loc 1 760 0
	lwz 9,0(3)
	lwz 0,8(9)
	mtctr 0
.LEHB21:
	bctrl
.LVL264:
	cmpw 7,28,3
	bne+ 7,.L189
.LVL265:
	.loc 1 762 0
	lwz 3,8(31)
	cmpwi 7,3,0
	beq- 7,.L190
	.loc 1 762 0 is_stmt 0 discriminator 1
	lwz 9,0(3)
	lwz 0,4(9)
	mtctr 0
	bctrl
.LEHE21:
.L190:
.LVL266:
.LBB5006:
.LBB5007:
.LBB5008:
.LBB5009:
	.loc 4 1532 0 is_stmt 1
	mr 3,31
	bl _ZNSt8__detail15_List_node_base9_M_unhookEv
.LVL267:
.LBB5010:
.LBB5011:
.LBB5012:
	.loc 8 98 0
	mr 3,31
	bl _ZdlPv
.LVL268:
.LBE5012:
.LBE5011:
.LBE5010:
.LBE5009:
.LBE5008:
.LBE5007:
.LBE5006:
.LBE5003:
	.loc 1 755 0
	cmpw 7,29,30
	bne+ 7,.L197
.LVL269:
.L188:
.LBB5013:
.LBB5014:
.LBB5015:
	.loc 1 343 0
	lwz 9,0(27)
	mr 3,27
	lwz 0,12(9)
	mtctr 0
.LEHB22:
	bctrl
.LEHE22:
.LBE5015:
.LBE5014:
.LBE5013:
.LBE5020:
	.loc 1 769 0
	lwz 0,36(1)
	lwz 27,12(1)
.LVL270:
	mtlr 0
	lwz 28,16(1)
.LVL271:
	lwz 29,20(1)
.LVL272:
	lwz 30,24(1)
	lwz 31,28(1)
	addi 1,1,32
	.cfi_remember_state
.LCFI68:
	.cfi_def_cfa_offset 0
	.cfi_restore 31
	.cfi_restore 30
	.cfi_restore 29
	.cfi_restore 28
	.cfi_restore 27
	blr
.LVL273:
.L198:
.LCFI69:
	.cfi_restore_state
.LBB5021:
.LBB5016:
.LBB5017:
.LBB5018:
	.loc 1 343 0
	lwz 9,0(27)
	mr 31,3
.LVL274:
	mr 3,27
	lwz 0,12(9)
	mtctr 0
	bctrl
	mr 3,31
.LEHB23:
	bl _Unwind_Resume
.LEHE23:
.LBE5018:
.LBE5017:
.LBE5016:
.LBE5021:
	.cfi_endproc
.LFE2474:
	.section	.gcc_except_table
.LLSDA2474:
	.byte	0xff
	.byte	0xff
	.byte	0x1
	.uleb128 .LLSDACSE2474-.LLSDACSB2474
.LLSDACSB2474:
	.uleb128 .LEHB20-.LFB2474
	.uleb128 .LEHE20-.LEHB20
	.uleb128 0
	.uleb128 0
	.uleb128 .LEHB21-.LFB2474
	.uleb128 .LEHE21-.LEHB21
	.uleb128 .L198-.LFB2474
	.uleb128 0
	.uleb128 .LEHB22-.LFB2474
	.uleb128 .LEHE22-.LEHB22
	.uleb128 0
	.uleb128 0
	.uleb128 .LEHB23-.LFB2474
	.uleb128 .LEHE23-.LEHB23
	.uleb128 0
	.uleb128 0
.LLSDACSE2474:
	.section	.text._ZN7sigslot13_signal_base1IiNS_15single_threadedEE15slot_disconnectEPNS_9has_slotsIS1_EE,"axG",@progbits,_ZN7sigslot13_signal_base1IiNS_15single_threadedEE15slot_disconnectEPNS_9has_slotsIS1_EE,comdat
	.size	_ZN7sigslot13_signal_base1IiNS_15single_threadedEE15slot_disconnectEPNS_9has_slotsIS1_EE, .-_ZN7sigslot13_signal_base1IiNS_15single_threadedEE15slot_disconnectEPNS_9has_slotsIS1_EE
	.section	.text._ZN7sigslot13_signal_base3IP10GuiElementiiNS_15single_threadedEE15slot_disconnectEPNS_9has_slotsIS3_EE,"axG",@progbits,_ZN7sigslot13_signal_base3IP10GuiElementiiNS_15single_threadedEE15slot_disconnectEPNS_9has_slotsIS3_EE,comdat
	.align 2
	.weak	_ZN7sigslot13_signal_base3IP10GuiElementiiNS_15single_threadedEE15slot_disconnectEPNS_9has_slotsIS3_EE
	.type	_ZN7sigslot13_signal_base3IP10GuiElementiiNS_15single_threadedEE15slot_disconnectEPNS_9has_slotsIS3_EE, @function
_ZN7sigslot13_signal_base3IP10GuiElementiiNS_15single_threadedEE15slot_disconnectEPNS_9has_slotsIS3_EE:
.LFB2476:
	.loc 1 990 0
	.cfi_startproc
	.cfi_personality 0,__gxx_personality_v0
	.cfi_lsda 0,.LLSDA2476
.LVL275:
	mflr 0
	stwu 1,-32(1)
.LCFI70:
	.cfi_def_cfa_offset 32
	.cfi_register 65, 0
	stw 27,12(1)
	mr 27,3
	.cfi_offset 27, -20
.LVL276:
	stw 0,36(1)
	stw 28,16(1)
	mr 28,4
	.cfi_offset 28, -16
	.cfi_offset 65, 4
.LBB5022:
.LBB5023:
.LBB5024:
	.loc 1 338 0
	lwz 9,0(3)
.LBE5024:
.LBE5023:
.LBE5022:
	.loc 1 990 0
	stw 29,20(1)
.LBB5045:
.LBB5027:
.LBB5025:
	.loc 3 326 0
	mr 29,27
	.cfi_offset 29, -12
	.loc 1 338 0
	lwz 0,8(9)
.LBE5025:
.LBE5027:
.LBE5045:
	.loc 1 990 0
	stw 31,28(1)
	stw 30,24(1)
.LBB5046:
.LBB5028:
.LBB5026:
	.loc 1 338 0
	mtctr 0
.LEHB24:
	.cfi_offset 30, -8
	.cfi_offset 31, -4
	bctrl
.LEHE24:
.LVL277:
	.loc 3 326 0
	lwzu 31,4(29)
.LVL278:
.LBE5026:
.LBE5028:
	.loc 1 996 0
	cmpw 7,31,29
	bne+ 7,.L212
	b .L201
.LVL279:
.L202:
	.loc 1 996 0 is_stmt 0 discriminator 1
	cmpw 7,29,30
	beq- 7,.L201
.L210:
	.loc 1 996 0
	mr 31,30
.LVL280:
.L212:
.LBB5029:
	.loc 1 1001 0 is_stmt 1
	lwz 3,8(31)
.LBB5030:
.LBB5031:
	.loc 4 154 0
	lwz 30,0(31)
.LVL281:
.LBE5031:
.LBE5030:
	.loc 1 1001 0
	lwz 9,0(3)
	lwz 0,8(9)
	mtctr 0
.LEHB25:
	bctrl
.LVL282:
	cmpw 7,28,3
	bne+ 7,.L202
.LVL283:
	.loc 1 1003 0
	lwz 3,8(31)
	cmpwi 7,3,0
	beq- 7,.L203
	.loc 1 1003 0 is_stmt 0 discriminator 1
	lwz 9,0(3)
	lwz 0,4(9)
	mtctr 0
	bctrl
.LEHE25:
.L203:
.LVL284:
.LBB5032:
.LBB5033:
.LBB5034:
.LBB5035:
	.loc 4 1532 0 is_stmt 1
	mr 3,31
	bl _ZNSt8__detail15_List_node_base9_M_unhookEv
.LVL285:
.LBB5036:
.LBB5037:
.LBB5038:
	.loc 8 98 0
	mr 3,31
	bl _ZdlPv
.LVL286:
.LBE5038:
.LBE5037:
.LBE5036:
.LBE5035:
.LBE5034:
.LBE5033:
.LBE5032:
.LBE5029:
	.loc 1 996 0
	cmpw 7,29,30
	bne+ 7,.L210
.LVL287:
.L201:
.LBB5039:
.LBB5040:
.LBB5041:
	.loc 1 343 0
	lwz 9,0(27)
	mr 3,27
	lwz 0,12(9)
	mtctr 0
.LEHB26:
	bctrl
.LEHE26:
.LBE5041:
.LBE5040:
.LBE5039:
.LBE5046:
	.loc 1 1010 0
	lwz 0,36(1)
	lwz 27,12(1)
.LVL288:
	mtlr 0
	lwz 28,16(1)
.LVL289:
	lwz 29,20(1)
.LVL290:
	lwz 30,24(1)
	lwz 31,28(1)
	addi 1,1,32
	.cfi_remember_state
.LCFI71:
	.cfi_def_cfa_offset 0
	.cfi_restore 31
	.cfi_restore 30
	.cfi_restore 29
	.cfi_restore 28
	.cfi_restore 27
	blr
.LVL291:
.L211:
.LCFI72:
	.cfi_restore_state
.LBB5047:
.LBB5042:
.LBB5043:
.LBB5044:
	.loc 1 343 0
	lwz 9,0(27)
	mr 31,3
.LVL292:
	mr 3,27
	lwz 0,12(9)
	mtctr 0
	bctrl
	mr 3,31
.LEHB27:
	bl _Unwind_Resume
.LEHE27:
.LBE5044:
.LBE5043:
.LBE5042:
.LBE5047:
	.cfi_endproc
.LFE2476:
	.section	.gcc_except_table
.LLSDA2476:
	.byte	0xff
	.byte	0xff
	.byte	0x1
	.uleb128 .LLSDACSE2476-.LLSDACSB2476
.LLSDACSB2476:
	.uleb128 .LEHB24-.LFB2476
	.uleb128 .LEHE24-.LEHB24
	.uleb128 0
	.uleb128 0
	.uleb128 .LEHB25-.LFB2476
	.uleb128 .LEHE25-.LEHB25
	.uleb128 .L211-.LFB2476
	.uleb128 0
	.uleb128 .LEHB26-.LFB2476
	.uleb128 .LEHE26-.LEHB26
	.uleb128 0
	.uleb128 0
	.uleb128 .LEHB27-.LFB2476
	.uleb128 .LEHE27-.LEHB27
	.uleb128 0
	.uleb128 0
.LLSDACSE2476:
	.section	.text._ZN7sigslot13_signal_base3IP10GuiElementiiNS_15single_threadedEE15slot_disconnectEPNS_9has_slotsIS3_EE,"axG",@progbits,_ZN7sigslot13_signal_base3IP10GuiElementiiNS_15single_threadedEE15slot_disconnectEPNS_9has_slotsIS3_EE,comdat
	.size	_ZN7sigslot13_signal_base3IP10GuiElementiiNS_15single_threadedEE15slot_disconnectEPNS_9has_slotsIS3_EE, .-_ZN7sigslot13_signal_base3IP10GuiElementiiNS_15single_threadedEE15slot_disconnectEPNS_9has_slotsIS3_EE
	.section	.text._ZN7sigslot13_signal_base2IP10GuiElementbNS_15single_threadedEE15slot_disconnectEPNS_9has_slotsIS3_EE,"axG",@progbits,_ZN7sigslot13_signal_base2IP10GuiElementbNS_15single_threadedEE15slot_disconnectEPNS_9has_slotsIS3_EE,comdat
	.align 2
	.weak	_ZN7sigslot13_signal_base2IP10GuiElementbNS_15single_threadedEE15slot_disconnectEPNS_9has_slotsIS3_EE
	.type	_ZN7sigslot13_signal_base2IP10GuiElementbNS_15single_threadedEE15slot_disconnectEPNS_9has_slotsIS3_EE, @function
_ZN7sigslot13_signal_base2IP10GuiElementbNS_15single_threadedEE15slot_disconnectEPNS_9has_slotsIS3_EE:
.LFB2478:
	.loc 1 870 0
	.cfi_startproc
	.cfi_personality 0,__gxx_personality_v0
	.cfi_lsda 0,.LLSDA2478
.LVL293:
	mflr 0
	stwu 1,-32(1)
.LCFI73:
	.cfi_def_cfa_offset 32
	.cfi_register 65, 0
	stw 27,12(1)
	mr 27,3
	.cfi_offset 27, -20
.LVL294:
	stw 0,36(1)
	stw 28,16(1)
	mr 28,4
	.cfi_offset 28, -16
	.cfi_offset 65, 4
.LBB5048:
.LBB5049:
.LBB5050:
	.loc 1 338 0
	lwz 9,0(3)
.LBE5050:
.LBE5049:
.LBE5048:
	.loc 1 870 0
	stw 29,20(1)
.LBB5071:
.LBB5053:
.LBB5051:
	.loc 3 326 0
	mr 29,27
	.cfi_offset 29, -12
	.loc 1 338 0
	lwz 0,8(9)
.LBE5051:
.LBE5053:
.LBE5071:
	.loc 1 870 0
	stw 31,28(1)
	stw 30,24(1)
.LBB5072:
.LBB5054:
.LBB5052:
	.loc 1 338 0
	mtctr 0
.LEHB28:
	.cfi_offset 30, -8
	.cfi_offset 31, -4
	bctrl
.LEHE28:
.LVL295:
	.loc 3 326 0
	lwzu 31,4(29)
.LVL296:
.LBE5052:
.LBE5054:
	.loc 1 876 0
	cmpw 7,31,29
	bne+ 7,.L225
	b .L214
.LVL297:
.L215:
	.loc 1 876 0 is_stmt 0 discriminator 1
	cmpw 7,29,30
	beq- 7,.L214
.L223:
	.loc 1 876 0
	mr 31,30
.LVL298:
.L225:
.LBB5055:
	.loc 1 881 0 is_stmt 1
	lwz 3,8(31)
.LBB5056:
.LBB5057:
	.loc 4 154 0
	lwz 30,0(31)
.LVL299:
.LBE5057:
.LBE5056:
	.loc 1 881 0
	lwz 9,0(3)
	lwz 0,8(9)
	mtctr 0
.LEHB29:
	bctrl
.LVL300:
	cmpw 7,28,3
	bne+ 7,.L215
.LVL301:
	.loc 1 883 0
	lwz 3,8(31)
	cmpwi 7,3,0
	beq- 7,.L216
	.loc 1 883 0 is_stmt 0 discriminator 1
	lwz 9,0(3)
	lwz 0,4(9)
	mtctr 0
	bctrl
.LEHE29:
.L216:
.LVL302:
.LBB5058:
.LBB5059:
.LBB5060:
.LBB5061:
	.loc 4 1532 0 is_stmt 1
	mr 3,31
	bl _ZNSt8__detail15_List_node_base9_M_unhookEv
.LVL303:
.LBB5062:
.LBB5063:
.LBB5064:
	.loc 8 98 0
	mr 3,31
	bl _ZdlPv
.LVL304:
.LBE5064:
.LBE5063:
.LBE5062:
.LBE5061:
.LBE5060:
.LBE5059:
.LBE5058:
.LBE5055:
	.loc 1 876 0
	cmpw 7,29,30
	bne+ 7,.L223
.LVL305:
.L214:
.LBB5065:
.LBB5066:
.LBB5067:
	.loc 1 343 0
	lwz 9,0(27)
	mr 3,27
	lwz 0,12(9)
	mtctr 0
.LEHB30:
	bctrl
.LEHE30:
.LBE5067:
.LBE5066:
.LBE5065:
.LBE5072:
	.loc 1 890 0
	lwz 0,36(1)
	lwz 27,12(1)
.LVL306:
	mtlr 0
	lwz 28,16(1)
.LVL307:
	lwz 29,20(1)
.LVL308:
	lwz 30,24(1)
	lwz 31,28(1)
	addi 1,1,32
	.cfi_remember_state
.LCFI74:
	.cfi_def_cfa_offset 0
	.cfi_restore 31
	.cfi_restore 30
	.cfi_restore 29
	.cfi_restore 28
	.cfi_restore 27
	blr
.LVL309:
.L224:
.LCFI75:
	.cfi_restore_state
.LBB5073:
.LBB5068:
.LBB5069:
.LBB5070:
	.loc 1 343 0
	lwz 9,0(27)
	mr 31,3
.LVL310:
	mr 3,27
	lwz 0,12(9)
	mtctr 0
	bctrl
	mr 3,31
.LEHB31:
	bl _Unwind_Resume
.LEHE31:
.LBE5070:
.LBE5069:
.LBE5068:
.LBE5073:
	.cfi_endproc
.LFE2478:
	.section	.gcc_except_table
.LLSDA2478:
	.byte	0xff
	.byte	0xff
	.byte	0x1
	.uleb128 .LLSDACSE2478-.LLSDACSB2478
.LLSDACSB2478:
	.uleb128 .LEHB28-.LFB2478
	.uleb128 .LEHE28-.LEHB28
	.uleb128 0
	.uleb128 0
	.uleb128 .LEHB29-.LFB2478
	.uleb128 .LEHE29-.LEHB29
	.uleb128 .L224-.LFB2478
	.uleb128 0
	.uleb128 .LEHB30-.LFB2478
	.uleb128 .LEHE30-.LEHB30
	.uleb128 0
	.uleb128 0
	.uleb128 .LEHB31-.LFB2478
	.uleb128 .LEHE31-.LEHB31
	.uleb128 0
	.uleb128 0
.LLSDACSE2478:
	.section	.text._ZN7sigslot13_signal_base2IP10GuiElementbNS_15single_threadedEE15slot_disconnectEPNS_9has_slotsIS3_EE,"axG",@progbits,_ZN7sigslot13_signal_base2IP10GuiElementbNS_15single_threadedEE15slot_disconnectEPNS_9has_slotsIS3_EE,comdat
	.size	_ZN7sigslot13_signal_base2IP10GuiElementbNS_15single_threadedEE15slot_disconnectEPNS_9has_slotsIS3_EE, .-_ZN7sigslot13_signal_base2IP10GuiElementbNS_15single_threadedEE15slot_disconnectEPNS_9has_slotsIS3_EE
	.section	.text._ZN10GuiElement10ResetStateEv,"axG",@progbits,_ZN10GuiElement10ResetStateEv,comdat
	.align 2
	.weak	_ZN10GuiElement10ResetStateEv
	.type	_ZN10GuiElement10ResetStateEv, @function
_ZN10GuiElement10ResetStateEv:
.LFB1402:
	.loc 2 183 0
	.cfi_startproc
.LVL311:
	mflr 0
	stwu 1,-8(1)
.LCFI76:
	.cfi_def_cfa_offset 8
	.cfi_register 65, 0
	stw 0,12(1)
	.loc 2 185 0
	lwz 0,72(3)
	.cfi_offset 65, 4
	cmpwi 7,0,4
	beq- 7,.L226
.LVL312:
.LBB5076:
.LBB5077:
	.loc 2 186 0
	lwz 9,0(3)
	li 4,0
	li 5,-1
	lwz 0,80(9)
	mtctr 0
	bctrl
.LVL313:
.L226:
.LBE5077:
.LBE5076:
	.loc 2 187 0
	lwz 0,12(1)
	addi 1,1,8
.LCFI77:
	.cfi_def_cfa_offset 0
	mtlr 0
	blr
	.cfi_endproc
.LFE1402:
	.size	_ZN10GuiElement10ResetStateEv, .-_ZN10GuiElement10ResetStateEv
	.section	".text"
	.align 2
	.globl _ZN17CustomFileBrowser4DrawEv
	.type	_ZN17CustomFileBrowser4DrawEv, @function
_ZN17CustomFileBrowser4DrawEv:
.LFB1619:
	.loc 3 269 0
	.cfi_startproc
.LVL314:
	mflr 0
	stwu 1,-16(1)
.LCFI78:
	.cfi_def_cfa_offset 16
	.cfi_register 65, 0
	stw 30,8(1)
	mr 30,3
	.cfi_offset 30, -8
	stw 0,20(1)
	stw 31,12(1)
.LBB5087:
	.loc 3 270 0
	lwz 9,0(3)
	lwz 0,52(9)
	.cfi_offset 31, -4
	.cfi_offset 65, 4
	mtctr 0
	bctrl
.LVL315:
	cmpwi 7,3,0
	bne- 7,.L233
.LBE5087:
	.loc 3 279 0
	lwz 0,20(1)
	lwz 30,8(1)
.LVL316:
	mtlr 0
	lwz 31,12(1)
	addi 1,1,16
	.cfi_remember_state
.LCFI79:
	.cfi_def_cfa_offset 0
	.cfi_restore 31
	.cfi_restore 30
	blr
.LVL317:
.L233:
.LCFI80:
	.cfi_restore_state
.LBB5088:
.LBB5089:
	.loc 3 273 0
	lwz 3,260(30)
	lwz 9,0(3)
	lwz 0,192(9)
	mtctr 0
	bctrl
.LVL318:
.LBE5089:
	.loc 3 326 0
	lwz 9,248(30)
.LBB5096:
.LBB5090:
.LBB5091:
.LBB5092:
	.loc 7 571 0
	lwz 0,252(30)
	subf 0,9,0
.LBE5092:
.LBE5091:
	.loc 3 275 0
	srwi. 11,0,2
	beq- 0,.L230
	li 31,0
.LVL319:
.L231:
	.loc 3 276 0
	slwi 0,31,2
	.loc 3 275 0
	addi 31,31,1
.LVL320:
	.loc 3 276 0
	lwzx 3,9,0
	lwz 9,0(3)
	lwz 0,192(9)
	mtctr 0
	bctrl
.LVL321:
.LBE5090:
.LBE5096:
	.loc 3 326 0
	lwz 9,248(30)
.LBB5097:
.LBB5095:
.LBB5094:
.LBB5093:
	.loc 7 571 0
	lwz 0,252(30)
	subf 0,9,0
	srawi 0,0,2
.LBE5093:
.LBE5094:
	.loc 3 275 0
	cmplw 7,31,0
	blt+ 7,.L231
.LVL322:
.L230:
.LBE5095:
	.loc 3 278 0
	lwz 9,0(30)
	mr 3,30
	lwz 0,196(9)
	mtctr 0
	bctrl
.LBE5097:
.LBE5088:
	.loc 3 279 0
	lwz 0,20(1)
	lwz 30,8(1)
.LVL323:
	mtlr 0
	lwz 31,12(1)
	addi 1,1,16
	.cfi_restore 30
	.cfi_restore 31
.LCFI81:
	.cfi_def_cfa_offset 0
	blr
	.cfi_endproc
.LFE1619:
	.size	_ZN17CustomFileBrowser4DrawEv, .-_ZN17CustomFileBrowser4DrawEv
	.align 2
	.globl _ZN17CustomFileBrowser11SetSelectedEi
	.type	_ZN17CustomFileBrowser11SetSelectedEi, @function
_ZN17CustomFileBrowser11SetSelectedEi:
.LFB1616:
	.loc 3 225 0
	.cfi_startproc
.LVL324:
	.loc 3 226 0
	cmpwi 0,4,0
	.loc 3 225 0
	mflr 0
	stwu 1,-8(1)
.LCFI82:
	.cfi_def_cfa_offset 8
	.cfi_register 65, 0
	stw 0,12(1)
	.loc 3 226 0
	blt- 0,.L234
	.cfi_offset 65, 4
	.loc 3 326 0 discriminator 2
	lwz 9,248(3)
.LBB5106:
.LBB5107:
	.loc 7 571 0 discriminator 2
	lwz 0,252(3)
	subf 0,9,0
	srawi 0,0,2
.LBE5107:
.LBE5106:
	.loc 3 226 0 discriminator 2
	cmpw 7,4,0
	blt- 7,.L237
.L234:
	.loc 3 231 0
	lwz 0,12(1)
	addi 1,1,8
	.cfi_remember_state
.LCFI83:
	.cfi_def_cfa_offset 0
	mtlr 0
	blr
.L237:
.LCFI84:
	.cfi_restore_state
.LVL325:
.LBB5108:
.LBB5109:
	.loc 3 230 0
	slwi 0,4,2
	li 5,-1
	lwzx 11,9,0
	.loc 3 229 0
	stw 4,188(3)
.LVL326:
	.loc 3 230 0
	li 4,1
.LVL327:
	lwz 9,0(11)
	mr 3,11
.LVL328:
	lwz 0,80(9)
	mtctr 0
	bctrl
.LBE5109:
.LBE5108:
	.loc 3 231 0
	lwz 0,12(1)
	addi 1,1,8
.LCFI85:
	.cfi_def_cfa_offset 0
	mtlr 0
	blr
	.cfi_endproc
.LFE1616:
	.size	_ZN17CustomFileBrowser11SetSelectedEi, .-_ZN17CustomFileBrowser11SetSelectedEi
	.align 2
	.type	_ZN17CustomFileBrowser14GetIconFromExtESsb.constprop.250, @function
_ZN17CustomFileBrowser14GetIconFromExtESsb.constprop.250:
.LFB2753:
	.loc 3 192 0
	.cfi_startproc
	.cfi_personality 0,__gxx_personality_v0
	.cfi_lsda 0,.LLSDA2753
.LVL329:
	.loc 3 194 0
	cmpwi 7,5,0
	.loc 3 192 0
	mflr 0
	stwu 1,-24(1)
.LCFI86:
	.cfi_def_cfa_offset 24
	.cfi_register 65, 0
	stw 30,16(1)
	mr 30,3
	.cfi_offset 30, -8
	stw 31,20(1)
	mr 31,4
	.cfi_offset 31, -4
	stw 0,28(1)
	stw 29,12(1)
	.loc 3 194 0
	bne- 7,.L252
	.cfi_offset 29, -12
	.cfi_offset 65, 4
.LVL330:
.LBB5110:
.LBB5111:
.LBB5112:
.LBB5113:
.LBB5114:
.LBB5115:
	.file 9 "d:\\devkitpro\\devkitppc\\bin\\../lib/gcc/powerpc-eabi/4.6.3/../../../../powerpc-eabi/include/c++/4.6.3/bits/basic_string.h"
	.loc 9 288 0
	lwz 4,0(4)
.LVL331:
.LBE5115:
.LBE5114:
.LBE5113:
.LBE5112:
.LBE5111:
.LBE5110:
	.loc 3 197 0
	lwz 0,-12(4)
	cmpwi 7,0,0
	bne- 7,.L253
.LVL332:
.L241:
	.loc 3 209 0
	li 3,196
.LEHB32:
	bl _Znwj
.LEHE32:
	lwz 4,272(30)
	mr 31,3
.LVL333:
.LEHB33:
	bl _ZN8GuiImageC1EP12GuiImageData
.LEHE33:
.L240:
	.loc 3 210 0
	lwz 0,28(1)
	mr 3,31
	lwz 29,12(1)
	mtlr 0
	lwz 30,16(1)
.LVL334:
	lwz 31,20(1)
	addi 1,1,24
	.cfi_remember_state
.LCFI87:
	.cfi_def_cfa_offset 0
	.cfi_restore 31
	.cfi_restore 30
	.cfi_restore 29
	blr
.LVL335:
.L253:
.LCFI88:
	.cfi_restore_state
	.loc 3 199 0
	lis 29,Settings+2580@ha
	la 29,Settings+2580@l(29)
	mr 3,29
.LVL336:
.LEHB34:
	bl _ZN16CFilesExtensions11CompareFontEPKc
.LVL337:
	cmpwi 7,3,0
	beq- 7,.L254
.LVL338:
	.loc 3 203 0
	lwz 4,0(31)
	mr 3,29
	bl _ZN16CFilesExtensions20CompareLanguageFilesEPKc
	cmpwi 7,3,0
	bne+ 7,.L241
	.loc 3 205 0
	li 3,196
	bl _Znwj
.LEHE34:
	lwz 4,276(30)
	mr 31,3
.LVL339:
.LEHB35:
	bl _ZN8GuiImageC1EP12GuiImageData
.LEHE35:
	b .L240
.LVL340:
.L252:
	.loc 3 195 0
	li 3,196
.LEHB36:
	bl _Znwj
.LEHE36:
.LVL341:
	lwz 4,268(30)
	mr 31,3
.LVL342:
.LEHB37:
	bl _ZN8GuiImageC1EP12GuiImageData
.LEHE37:
	.loc 3 210 0
	lwz 0,28(1)
	mr 3,31
	lwz 29,12(1)
	mtlr 0
	lwz 30,16(1)
.LVL343:
	lwz 31,20(1)
	addi 1,1,24
	.cfi_remember_state
	.cfi_restore 29
	.cfi_restore 30
	.cfi_restore 31
.LCFI89:
	.cfi_def_cfa_offset 0
	blr
.LVL344:
.L254:
.LCFI90:
	.cfi_restore_state
	.loc 3 201 0
	li 3,196
.LEHB38:
	bl _Znwj
.LEHE38:
	lwz 4,272(30)
	mr 31,3
.LVL345:
.LEHB39:
	bl _ZN8GuiImageC1EP12GuiImageData
.LEHE39:
	.loc 3 210 0
	lwz 0,28(1)
	mr 3,31
	lwz 29,12(1)
	mtlr 0
	lwz 30,16(1)
.LVL346:
	lwz 31,20(1)
	addi 1,1,24
	.cfi_remember_state
	.cfi_restore 29
	.cfi_restore 30
	.cfi_restore 31
.LCFI91:
	.cfi_def_cfa_offset 0
	blr
.LVL347:
.L248:
.L251:
.LCFI92:
	.cfi_restore_state
	mr 30,3
.LVL348:
	.loc 3 201 0
	mr 3,31
	bl _ZdlPv
	mr 3,30
.LEHB40:
	bl _Unwind_Resume
.LEHE40:
.LVL349:
.L250:
	b .L251
.L247:
	b .L251
.L249:
	b .L251
	.cfi_endproc
.LFE2753:
	.section	.gcc_except_table
.LLSDA2753:
	.byte	0xff
	.byte	0xff
	.byte	0x1
	.uleb128 .LLSDACSE2753-.LLSDACSB2753
.LLSDACSB2753:
	.uleb128 .LEHB32-.LFB2753
	.uleb128 .LEHE32-.LEHB32
	.uleb128 0
	.uleb128 0
	.uleb128 .LEHB33-.LFB2753
	.uleb128 .LEHE33-.LEHB33
	.uleb128 .L247-.LFB2753
	.uleb128 0
	.uleb128 .LEHB34-.LFB2753
	.uleb128 .LEHE34-.LEHB34
	.uleb128 0
	.uleb128 0
	.uleb128 .LEHB35-.LFB2753
	.uleb128 .LEHE35-.LEHB35
	.uleb128 .L248-.LFB2753
	.uleb128 0
	.uleb128 .LEHB36-.LFB2753
	.uleb128 .LEHE36-.LEHB36
	.uleb128 0
	.uleb128 0
	.uleb128 .LEHB37-.LFB2753
	.uleb128 .LEHE37-.LEHB37
	.uleb128 .L250-.LFB2753
	.uleb128 0
	.uleb128 .LEHB38-.LFB2753
	.uleb128 .LEHE38-.LEHB38
	.uleb128 0
	.uleb128 0
	.uleb128 .LEHB39-.LFB2753
	.uleb128 .LEHE39-.LEHB39
	.uleb128 .L249-.LFB2753
	.uleb128 0
	.uleb128 .LEHB40-.LFB2753
	.uleb128 .LEHE40-.LEHB40
	.uleb128 0
	.uleb128 0
.LLSDACSE2753:
	.section	".text"
	.size	_ZN17CustomFileBrowser14GetIconFromExtESsb.constprop.250, .-_ZN17CustomFileBrowser14GetIconFromExtESsb.constprop.250
	.align 2
	.globl _ZN17CustomFileBrowser12RemoveButtonEi
	.type	_ZN17CustomFileBrowser12RemoveButtonEi, @function
_ZN17CustomFileBrowser12RemoveButtonEi:
.LFB1612:
	.loc 3 125 0
	.cfi_startproc
.LVL350:
	.loc 3 126 0
	cmpwi 0,4,0
	.loc 3 125 0
	mflr 0
	stwu 1,-16(1)
.LCFI93:
	.cfi_def_cfa_offset 16
	.cfi_register 65, 0
	stw 31,12(1)
	mr 31,3
	.cfi_offset 31, -4
	stw 0,20(1)
	stw 30,8(1)
	.loc 3 126 0
	blt- 0,.L255
	.cfi_offset 30, -8
	.cfi_offset 65, 4
.LBB5233:
.LBB5234:
	.loc 7 571 0 discriminator 2
	lwz 9,252(3)
	lwz 0,248(3)
	subf 0,0,9
	srawi 0,0,2
.LBE5234:
.LBE5233:
	.loc 3 126 0 discriminator 2
	cmpw 7,0,4
	ble- 7,.L255
.LVL351:
	.loc 3 129 0
	lwz 9,200(3)
.LBB5235:
.LBB5236:
	.loc 7 696 0
	slwi 30,4,2
.LBE5236:
.LBE5235:
	.loc 3 129 0
	lwzx 3,9,30
.LVL352:
	cmpwi 7,3,0
	beq- 7,.L268
	.loc 3 130 0
	lwz 9,0(3)
	lwz 0,4(9)
	mtctr 0
	bctrl
.LVL353:
.L268:
	.loc 3 131 0
	lwz 9,212(31)
	lwzx 3,9,30
	cmpwi 7,3,0
	beq- 7,.L258
	.loc 3 132 0
	lwz 9,0(3)
	lwz 0,4(9)
	mtctr 0
	bctrl
.L258:
	.loc 3 133 0
	lwz 9,224(31)
	lwzx 3,9,30
	cmpwi 7,3,0
	beq- 7,.L259
	.loc 3 134 0
	lwz 9,0(3)
	lwz 0,4(9)
	mtctr 0
	bctrl
.L259:
	.loc 3 135 0
	lwz 9,236(31)
	lwzx 3,9,30
	cmpwi 7,3,0
	beq- 7,.L260
	.loc 3 136 0
	lwz 9,0(3)
	lwz 0,4(9)
	mtctr 0
	bctrl
.L260:
	.loc 3 137 0
	lwz 9,248(31)
	lwzx 3,9,30
	cmpwi 7,3,0
	beq- 7,.L261
	.loc 3 138 0
	lwz 9,0(3)
	lwz 0,4(9)
	mtctr 0
	bctrl
.L261:
.LVL354:
.LBB5237:
.LBB5238:
	.file 10 "d:\\devkitpro\\devkitppc\\bin\\../lib/gcc/powerpc-eabi/4.6.3/../../../../powerpc-eabi/include/c++/4.6.3/bits/stl_iterator.h"
	.loc 10 773 0
	lwz 3,200(31)
.LBE5238:
.LBE5237:
.LBB5240:
.LBB5241:
.LBB5242:
	.loc 3 326 0
	lwz 11,204(31)
.LBE5242:
.LBE5241:
.LBE5240:
.LBB5254:
.LBB5239:
	.loc 10 773 0
	add 3,3,30
.LVL355:
.LBE5239:
.LBE5254:
.LBB5255:
.LBB5251:
.LBB5243:
.LBB5244:
	addi 4,3,4
.LVL356:
.LBE5244:
.LBE5243:
	.file 11 "d:\\devkitpro\\devkitppc\\bin\\../lib/gcc/powerpc-eabi/4.6.3/../../../../powerpc-eabi/include/c++/4.6.3/bits/vector.tcc"
	.loc 11 138 0
	cmpw 7,4,11
	beq- 7,.L262
.LVL357:
.LBB5245:
.LBB5246:
.LBB5247:
.LBB5248:
.LBB5249:
.LBB5250:
	.file 12 "d:\\devkitpro\\devkitppc\\bin\\../lib/gcc/powerpc-eabi/4.6.3/../../../../powerpc-eabi/include/c++/4.6.3/bits/stl_algobase.h"
	.loc 12 364 0
	subf 5,4,11
.LVL358:
	.loc 12 365 0
	srawi. 5,5,2
.LVL359:
	beq+ 0,.L262
	.loc 12 366 0
	slwi 5,5,2
.LVL360:
	bl memmove
.LVL361:
	lwz 11,204(31)
.LVL362:
.L262:
.LBE5250:
.LBE5249:
.LBE5248:
.LBE5247:
.LBE5246:
.LBE5245:
.LBE5251:
.LBE5255:
.LBB5256:
.LBB5257:
	.loc 10 773 0
	lwz 3,212(31)
.LBE5257:
.LBE5256:
.LBB5259:
.LBB5252:
	.loc 11 140 0
	addi 11,11,-4
.LBE5252:
.LBE5259:
.LBB5260:
.LBB5261:
.LBB5262:
	.loc 3 326 0
	lwz 9,216(31)
.LBE5262:
.LBE5261:
.LBE5260:
.LBB5274:
.LBB5258:
	.loc 10 773 0
	add 3,3,30
.LBE5258:
.LBE5274:
.LBB5275:
.LBB5253:
	.loc 11 140 0
	stw 11,204(31)
.LVL363:
.LBE5253:
.LBE5275:
.LBB5276:
.LBB5271:
.LBB5263:
.LBB5264:
	.loc 10 773 0
	addi 4,3,4
.LBE5264:
.LBE5263:
	.loc 11 138 0
	cmpw 7,4,9
	beq- 7,.L263
.LVL364:
.LBB5265:
.LBB5266:
.LBB5267:
.LBB5268:
.LBB5269:
.LBB5270:
	.loc 12 364 0
	subf 5,4,9
.LVL365:
	.loc 12 365 0
	srawi. 5,5,2
.LVL366:
	beq+ 0,.L263
	.loc 12 366 0
	slwi 5,5,2
.LVL367:
	bl memmove
.LVL368:
	lwz 9,216(31)
.LVL369:
.L263:
.LBE5270:
.LBE5269:
.LBE5268:
.LBE5267:
.LBE5266:
.LBE5265:
.LBE5271:
.LBE5276:
.LBB5277:
.LBB5278:
	.loc 10 773 0
	lwz 3,224(31)
.LBE5278:
.LBE5277:
.LBB5280:
.LBB5272:
	.loc 11 140 0
	addi 9,9,-4
.LBE5272:
.LBE5280:
.LBB5281:
.LBB5282:
.LBB5283:
	.loc 3 326 0
	lwz 11,228(31)
.LBE5283:
.LBE5282:
.LBE5281:
.LBB5295:
.LBB5279:
	.loc 10 773 0
	add 3,3,30
.LBE5279:
.LBE5295:
.LBB5296:
.LBB5273:
	.loc 11 140 0
	stw 9,216(31)
.LVL370:
.LBE5273:
.LBE5296:
.LBB5297:
.LBB5292:
.LBB5284:
.LBB5285:
	.loc 10 773 0
	addi 4,3,4
.LBE5285:
.LBE5284:
	.loc 11 138 0
	cmpw 7,4,11
	beq- 7,.L264
.LVL371:
.LBB5286:
.LBB5287:
.LBB5288:
.LBB5289:
.LBB5290:
.LBB5291:
	.loc 12 364 0
	subf 5,4,11
.LVL372:
	.loc 12 365 0
	srawi. 5,5,2
.LVL373:
	beq+ 0,.L264
	.loc 12 366 0
	slwi 5,5,2
.LVL374:
	bl memmove
.LVL375:
	lwz 11,228(31)
.LVL376:
.L264:
.LBE5291:
.LBE5290:
.LBE5289:
.LBE5288:
.LBE5287:
.LBE5286:
.LBE5292:
.LBE5297:
.LBB5298:
.LBB5299:
	.loc 10 773 0
	lwz 3,236(31)
.LBE5299:
.LBE5298:
.LBB5301:
.LBB5293:
	.loc 11 140 0
	addi 11,11,-4
.LBE5293:
.LBE5301:
.LBB5302:
.LBB5303:
.LBB5304:
	.loc 3 326 0
	lwz 9,240(31)
.LBE5304:
.LBE5303:
.LBE5302:
.LBB5316:
.LBB5300:
	.loc 10 773 0
	add 3,3,30
.LBE5300:
.LBE5316:
.LBB5317:
.LBB5294:
	.loc 11 140 0
	stw 11,228(31)
.LVL377:
.LBE5294:
.LBE5317:
.LBB5318:
.LBB5313:
.LBB5305:
.LBB5306:
	.loc 10 773 0
	addi 4,3,4
.LBE5306:
.LBE5305:
	.loc 11 138 0
	cmpw 7,4,9
	beq- 7,.L265
.LVL378:
.LBB5307:
.LBB5308:
.LBB5309:
.LBB5310:
.LBB5311:
.LBB5312:
	.loc 12 364 0
	subf 5,4,9
.LVL379:
	.loc 12 365 0
	srawi. 5,5,2
.LVL380:
	beq+ 0,.L265
	.loc 12 366 0
	slwi 5,5,2
.LVL381:
	bl memmove
.LVL382:
	lwz 9,240(31)
.LVL383:
.L265:
.LBE5312:
.LBE5311:
.LBE5310:
.LBE5309:
.LBE5308:
.LBE5307:
.LBE5313:
.LBE5318:
.LBB5319:
.LBB5320:
	.loc 10 773 0
	lwz 3,248(31)
.LBE5320:
.LBE5319:
.LBB5322:
.LBB5314:
	.loc 11 140 0
	addi 9,9,-4
.LBE5314:
.LBE5322:
.LBB5323:
.LBB5324:
.LBB5325:
	.loc 3 326 0
	lwz 11,252(31)
.LBE5325:
.LBE5324:
.LBE5323:
.LBB5335:
.LBB5321:
	.loc 10 773 0
	add 3,3,30
.LBE5321:
.LBE5335:
.LBB5336:
.LBB5315:
	.loc 11 140 0
	stw 9,240(31)
.LVL384:
.LBE5315:
.LBE5336:
.LBB5337:
.LBB5334:
.LBB5326:
.LBB5327:
	.loc 10 773 0
	addi 4,3,4
.LBE5327:
.LBE5326:
	.loc 11 138 0
	cmpw 7,4,11
	beq- 7,.L266
.LVL385:
.LBB5328:
.LBB5329:
.LBB5330:
.LBB5331:
.LBB5332:
.LBB5333:
	.loc 12 364 0
	subf 5,4,11
.LVL386:
	.loc 12 365 0
	srawi. 5,5,2
.LVL387:
	beq+ 0,.L266
	.loc 12 366 0
	slwi 5,5,2
.LVL388:
	bl memmove
.LVL389:
	lwz 11,252(31)
.LVL390:
.L266:
.LBE5333:
.LBE5332:
.LBE5331:
.LBE5330:
.LBE5329:
.LBE5328:
	.loc 11 140 0
	addi 11,11,-4
	stw 11,252(31)
.LVL391:
.L255:
.LBE5334:
.LBE5337:
	.loc 3 145 0
	lwz 0,20(1)
	lwz 30,8(1)
	mtlr 0
	lwz 31,12(1)
.LVL392:
	addi 1,1,16
.LCFI94:
	.cfi_def_cfa_offset 0
	.cfi_restore 31
	.cfi_restore 30
	blr
	.cfi_endproc
.LFE1612:
	.size	_ZN17CustomFileBrowser12RemoveButtonEi, .-_ZN17CustomFileBrowser12RemoveButtonEi
	.align 2
	.globl _ZN17CustomFileBrowser14GetIconFromExtESsb
	.type	_ZN17CustomFileBrowser14GetIconFromExtESsb, @function
_ZN17CustomFileBrowser14GetIconFromExtESsb:
.LFB1614:
	.loc 3 193 0
	.cfi_startproc
	.cfi_personality 0,__gxx_personality_v0
	.cfi_lsda 0,.LLSDA1614
.LVL393:
	.loc 3 194 0
	cmpwi 7,5,0
	.loc 3 193 0
	mflr 0
	stwu 1,-24(1)
.LCFI95:
	.cfi_def_cfa_offset 24
	.cfi_register 65, 0
	stw 30,16(1)
	mr 30,3
	.cfi_offset 30, -8
	stw 31,20(1)
	mr 31,4
	.cfi_offset 31, -4
	stw 0,28(1)
	stw 29,12(1)
	.loc 3 194 0
	bne- 7,.L284
	.cfi_offset 29, -12
	.cfi_offset 65, 4
.LVL394:
.LBB5338:
.LBB5339:
.LBB5340:
.LBB5341:
.LBB5342:
.LBB5343:
	.loc 9 288 0
	lwz 4,0(4)
.LVL395:
.LBE5343:
.LBE5342:
.LBE5341:
.LBE5340:
.LBE5339:
.LBE5338:
	.loc 3 197 0
	lwz 0,-12(4)
	cmpwi 7,0,0
	bne- 7,.L285
.LVL396:
.L273:
	.loc 3 209 0
	li 3,196
.LEHB41:
	bl _Znwj
.LEHE41:
	lwz 4,272(30)
	mr 31,3
.LVL397:
.LEHB42:
	bl _ZN8GuiImageC1EP12GuiImageData
.LEHE42:
.L272:
	.loc 3 210 0
	lwz 0,28(1)
	mr 3,31
	lwz 29,12(1)
	mtlr 0
	lwz 30,16(1)
.LVL398:
	lwz 31,20(1)
	addi 1,1,24
	.cfi_remember_state
.LCFI96:
	.cfi_def_cfa_offset 0
	.cfi_restore 31
	.cfi_restore 30
	.cfi_restore 29
	blr
.LVL399:
.L285:
.LCFI97:
	.cfi_restore_state
	.loc 3 199 0
	lis 29,Settings+2580@ha
	la 29,Settings+2580@l(29)
	mr 3,29
.LVL400:
.LEHB43:
	bl _ZN16CFilesExtensions11CompareFontEPKc
.LVL401:
	cmpwi 7,3,0
	beq- 7,.L286
.LVL402:
	.loc 3 203 0
	lwz 4,0(31)
	mr 3,29
	bl _ZN16CFilesExtensions20CompareLanguageFilesEPKc
	cmpwi 7,3,0
	bne+ 7,.L273
	.loc 3 205 0
	li 3,196
	bl _Znwj
.LEHE43:
	lwz 4,276(30)
	mr 31,3
.LVL403:
.LEHB44:
	bl _ZN8GuiImageC1EP12GuiImageData
.LEHE44:
	b .L272
.LVL404:
.L284:
	.loc 3 195 0
	li 3,196
.LEHB45:
	bl _Znwj
.LEHE45:
.LVL405:
	lwz 4,268(30)
	mr 31,3
.LVL406:
.LEHB46:
	bl _ZN8GuiImageC1EP12GuiImageData
.LEHE46:
	.loc 3 210 0
	lwz 0,28(1)
	mr 3,31
	lwz 29,12(1)
	mtlr 0
	lwz 30,16(1)
.LVL407:
	lwz 31,20(1)
	addi 1,1,24
	.cfi_remember_state
	.cfi_restore 29
	.cfi_restore 30
	.cfi_restore 31
.LCFI98:
	.cfi_def_cfa_offset 0
	blr
.LVL408:
.L286:
.LCFI99:
	.cfi_restore_state
	.loc 3 201 0
	li 3,196
.LEHB47:
	bl _Znwj
.LEHE47:
	lwz 4,272(30)
	mr 31,3
.LVL409:
.LEHB48:
	bl _ZN8GuiImageC1EP12GuiImageData
.LEHE48:
	.loc 3 210 0
	lwz 0,28(1)
	mr 3,31
	lwz 29,12(1)
	mtlr 0
	lwz 30,16(1)
.LVL410:
	lwz 31,20(1)
	addi 1,1,24
	.cfi_remember_state
	.cfi_restore 29
	.cfi_restore 30
	.cfi_restore 31
.LCFI100:
	.cfi_def_cfa_offset 0
	blr
.LVL411:
.L281:
.L283:
.LCFI101:
	.cfi_restore_state
	mr 30,3
.LVL412:
	.loc 3 201 0
	mr 3,31
	bl _ZdlPv
	mr 3,30
.LEHB49:
	bl _Unwind_Resume
.LEHE49:
.LVL413:
.L279:
	b .L283
.L282:
	b .L283
.L280:
	b .L283
	.cfi_endproc
.LFE1614:
	.section	.gcc_except_table
.LLSDA1614:
	.byte	0xff
	.byte	0xff
	.byte	0x1
	.uleb128 .LLSDACSE1614-.LLSDACSB1614
.LLSDACSB1614:
	.uleb128 .LEHB41-.LFB1614
	.uleb128 .LEHE41-.LEHB41
	.uleb128 0
	.uleb128 0
	.uleb128 .LEHB42-.LFB1614
	.uleb128 .LEHE42-.LEHB42
	.uleb128 .L282-.LFB1614
	.uleb128 0
	.uleb128 .LEHB43-.LFB1614
	.uleb128 .LEHE43-.LEHB43
	.uleb128 0
	.uleb128 0
	.uleb128 .LEHB44-.LFB1614
	.uleb128 .LEHE44-.LEHB44
	.uleb128 .L281-.LFB1614
	.uleb128 0
	.uleb128 .LEHB45-.LFB1614
	.uleb128 .LEHE45-.LEHB45
	.uleb128 0
	.uleb128 0
	.uleb128 .LEHB46-.LFB1614
	.uleb128 .LEHE46-.LEHB46
	.uleb128 .L279-.LFB1614
	.uleb128 0
	.uleb128 .LEHB47-.LFB1614
	.uleb128 .LEHE47-.LEHB47
	.uleb128 0
	.uleb128 0
	.uleb128 .LEHB48-.LFB1614
	.uleb128 .LEHE48-.LEHB48
	.uleb128 .L280-.LFB1614
	.uleb128 0
	.uleb128 .LEHB49-.LFB1614
	.uleb128 .LEHE49-.LEHB49
	.uleb128 0
	.uleb128 0
.LLSDACSE1614:
	.section	".text"
	.size	_ZN17CustomFileBrowser14GetIconFromExtESsb, .-_ZN17CustomFileBrowser14GetIconFromExtESsb
	.section	.text._ZNSt6vectorIP7GuiTextSaIS1_EED2Ev,"axG",@progbits,_ZNSt6vectorIP7GuiTextSaIS1_EED5Ev,comdat
	.align 2
	.weak	_ZNSt6vectorIP7GuiTextSaIS1_EED2Ev
	.type	_ZNSt6vectorIP7GuiTextSaIS1_EED2Ev, @function
_ZNSt6vectorIP7GuiTextSaIS1_EED2Ev:
.LFB1686:
	.loc 7 349 0
	.cfi_startproc
.LVL414:
	mflr 0
	stwu 1,-8(1)
.LCFI102:
	.cfi_def_cfa_offset 8
	.cfi_register 65, 0
	stw 0,12(1)
	.loc 3 326 0
	lwz 3,0(3)
.LVL415:
.LBB5356:
.LBB5357:
.LBB5358:
.LBB5359:
	.loc 7 155 0
	cmpwi 7,3,0
	beq- 7,.L287
	.cfi_offset 65, 4
.LVL416:
.LBB5360:
.LBB5361:
	.loc 8 98 0
	bl _ZdlPv
.LVL417:
.L287:
.LBE5361:
.LBE5360:
.LBE5359:
.LBE5358:
.LBE5357:
.LBE5356:
	.loc 7 351 0
	lwz 0,12(1)
	addi 1,1,8
.LCFI103:
	.cfi_def_cfa_offset 0
	mtlr 0
	blr
	.cfi_endproc
.LFE1686:
	.size	_ZNSt6vectorIP7GuiTextSaIS1_EED2Ev, .-_ZNSt6vectorIP7GuiTextSaIS1_EED2Ev
	.section	.text._ZNSt6vectorIP8GuiImageSaIS1_EED2Ev,"axG",@progbits,_ZNSt6vectorIP8GuiImageSaIS1_EED5Ev,comdat
	.align 2
	.weak	_ZNSt6vectorIP8GuiImageSaIS1_EED2Ev
	.type	_ZNSt6vectorIP8GuiImageSaIS1_EED2Ev, @function
_ZNSt6vectorIP8GuiImageSaIS1_EED2Ev:
.LFB1692:
	.loc 7 349 0
	.cfi_startproc
.LVL418:
	mflr 0
	stwu 1,-8(1)
.LCFI104:
	.cfi_def_cfa_offset 8
	.cfi_register 65, 0
	stw 0,12(1)
	.loc 3 326 0
	lwz 3,0(3)
.LVL419:
.LBB5374:
.LBB5375:
.LBB5376:
.LBB5377:
	.loc 7 155 0
	cmpwi 7,3,0
	beq- 7,.L293
	.cfi_offset 65, 4
.LVL420:
.LBB5378:
.LBB5379:
	.loc 8 98 0
	bl _ZdlPv
.LVL421:
.L293:
.LBE5379:
.LBE5378:
.LBE5377:
.LBE5376:
.LBE5375:
.LBE5374:
	.loc 7 351 0
	lwz 0,12(1)
	addi 1,1,8
.LCFI105:
	.cfi_def_cfa_offset 0
	mtlr 0
	blr
	.cfi_endproc
.LFE1692:
	.size	_ZNSt6vectorIP8GuiImageSaIS1_EED2Ev, .-_ZNSt6vectorIP8GuiImageSaIS1_EED2Ev
	.section	.text._ZNSt8_Rb_treeIPN7sigslot12_signal_baseINS0_15single_threadedEEES4_St9_IdentityIS4_ESt4lessIS4_ESaIS4_EE8_M_eraseEPSt13_Rb_tree_nodeIS4_E,"axG",@progbits,_ZNSt8_Rb_treeIPN7sigslot12_signal_baseINS0_15single_threadedEEES4_St9_IdentityIS4_ESt4lessIS4_ESaIS4_EE8_M_eraseEPSt13_Rb_tree_nodeIS4_E,comdat
	.align 2
	.weak	_ZNSt8_Rb_treeIPN7sigslot12_signal_baseINS0_15single_threadedEEES4_St9_IdentityIS4_ESt4lessIS4_ESaIS4_EE8_M_eraseEPSt13_Rb_tree_nodeIS4_E
	.type	_ZNSt8_Rb_treeIPN7sigslot12_signal_baseINS0_15single_threadedEEES4_St9_IdentityIS4_ESt4lessIS4_ESaIS4_EE8_M_eraseEPSt13_Rb_tree_nodeIS4_E, @function
_ZNSt8_Rb_treeIPN7sigslot12_signal_baseINS0_15single_threadedEEES4_St9_IdentityIS4_ESt4lessIS4_ESaIS4_EE8_M_eraseEPSt13_Rb_tree_nodeIS4_E:
.LFB1943:
	.file 13 "d:\\devkitpro\\devkitppc\\bin\\../lib/gcc/powerpc-eabi/4.6.3/../../../../powerpc-eabi/include/c++/4.6.3/bits/stl_tree.h"
	.loc 13 1068 0
	.cfi_startproc
.LVL422:
	stwu 1,-56(1)
.LCFI106:
	.cfi_def_cfa_offset 56
	mflr 0
	stw 22,16(1)
.LBB5496:
	.loc 13 1072 0
	mr. 22,4
	.cfi_offset 22, -40
	.cfi_register 65, 0
.LBE5496:
	.loc 13 1068 0
	stw 30,48(1)
	mr 30,3
	.cfi_offset 30, -8
	stw 0,60(1)
	stw 21,12(1)
	stw 23,20(1)
	stw 24,24(1)
	stw 25,28(1)
	stw 26,32(1)
	stw 27,36(1)
	stw 28,40(1)
	stw 29,44(1)
	stw 31,52(1)
.LBB5581:
	.loc 13 1072 0
	beq- 0,.L299
	.cfi_offset 31, -4
	.cfi_offset 29, -12
	.cfi_offset 28, -16
	.cfi_offset 27, -20
	.cfi_offset 26, -24
	.cfi_offset 25, -28
	.cfi_offset 24, -32
	.cfi_offset 23, -36
	.cfi_offset 21, -44
	.cfi_offset 65, 4
.LVL423:
.L345:
	.loc 3 326 0
	lwz 27,12(22)
.LVL424:
.LBB5497:
.LBB5498:
.LBB5499:
	.loc 13 1072 0
	cmpwi 7,27,0
	beq- 7,.L301
.LVL425:
.L346:
.LBE5499:
	.loc 3 326 0
	lwz 26,12(27)
.LVL426:
.LBB5575:
.LBB5500:
.LBB5501:
.LBB5502:
	.loc 13 1072 0
	cmpwi 7,26,0
	beq- 7,.L302
.LVL427:
.L347:
.LBE5502:
	.loc 3 326 0
	lwz 25,12(26)
.LVL428:
.LBB5568:
.LBB5503:
.LBB5504:
.LBB5505:
	.loc 13 1072 0
	cmpwi 7,25,0
	beq- 7,.L303
.LVL429:
.L348:
.LBE5505:
	.loc 3 326 0
	lwz 24,12(25)
.LVL430:
.LBB5561:
.LBB5506:
.LBB5507:
.LBB5508:
	.loc 13 1072 0
	cmpwi 7,24,0
	beq- 7,.L304
.LVL431:
.L349:
.LBE5508:
	.loc 3 326 0
	lwz 23,12(24)
.LVL432:
.LBB5554:
.LBB5509:
.LBB5510:
.LBB5511:
	.loc 13 1072 0
	cmpwi 7,23,0
	beq- 7,.L305
.LVL433:
.L350:
.LBE5511:
	.loc 3 326 0
	lwz 28,12(23)
.LVL434:
.LBB5547:
.LBB5512:
.LBB5513:
.LBB5514:
	.loc 13 1072 0
	cmpwi 7,28,0
	beq- 7,.L306
.LVL435:
.L351:
.LBE5514:
	.loc 3 326 0
	lwz 29,12(28)
.LVL436:
.LBB5540:
.LBB5515:
.LBB5516:
.LBB5517:
	.loc 13 1072 0
	cmpwi 7,29,0
	beq- 7,.L307
.LVL437:
.L352:
.LBE5517:
	.loc 3 326 0
	lwz 31,12(29)
.LVL438:
.LBB5533:
.LBB5518:
.LBB5519:
.LBB5520:
	.loc 13 1072 0
	cmpwi 7,31,0
	beq- 7,.L308
.LVL439:
.L353:
.LBB5521:
	.loc 13 1074 0
	lwz 4,12(31)
	mr 3,30
	bl _ZNSt8_Rb_treeIPN7sigslot12_signal_baseINS0_15single_threadedEEES4_St9_IdentityIS4_ESt4lessIS4_ESaIS4_EE8_M_eraseEPSt13_Rb_tree_nodeIS4_E
.LBE5521:
.LBE5520:
	.loc 3 326 0
	lwz 21,8(31)
.LVL440:
.LBB5527:
.LBB5526:
.LBB5522:
.LBB5523:
.LBB5524:
.LBB5525:
	.loc 8 98 0
	mr 3,31
	bl _ZdlPv
.LVL441:
.LBE5525:
.LBE5524:
.LBE5523:
.LBE5522:
.LBE5526:
	.loc 13 1072 0
	cmpwi 7,21,0
	.loc 13 1077 0
	mr 31,21
.LVL442:
	.loc 13 1072 0
	bne+ 7,.L353
.LVL443:
.L308:
.LBE5527:
.LBE5519:
.LBE5518:
.LBE5533:
	.loc 3 326 0
	lwz 31,8(29)
.LVL444:
.LBB5534:
.LBB5532:
.LBB5528:
.LBB5529:
.LBB5530:
.LBB5531:
	.loc 8 98 0
	mr 3,29
	bl _ZdlPv
.LVL445:
.LBE5531:
.LBE5530:
.LBE5529:
.LBE5528:
.LBE5532:
	.loc 13 1072 0
	cmpwi 7,31,0
	beq- 7,.L307
	.loc 13 1077 0
	mr 29,31
.LVL446:
	b .L352
.LVL447:
.L307:
.LBE5534:
.LBE5516:
.LBE5515:
.LBE5540:
	.loc 3 326 0
	lwz 31,8(28)
.LVL448:
.LBB5541:
.LBB5539:
.LBB5535:
.LBB5536:
.LBB5537:
.LBB5538:
	.loc 8 98 0
	mr 3,28
	bl _ZdlPv
.LVL449:
.LBE5538:
.LBE5537:
.LBE5536:
.LBE5535:
.LBE5539:
	.loc 13 1072 0
	cmpwi 7,31,0
	beq- 7,.L306
	.loc 13 1077 0
	mr 28,31
.LVL450:
	b .L351
.LVL451:
.L306:
.LBE5541:
.LBE5513:
.LBE5512:
.LBE5547:
	.loc 3 326 0
	lwz 31,8(23)
.LVL452:
.LBB5548:
.LBB5546:
.LBB5542:
.LBB5543:
.LBB5544:
.LBB5545:
	.loc 8 98 0
	mr 3,23
	bl _ZdlPv
.LVL453:
.LBE5545:
.LBE5544:
.LBE5543:
.LBE5542:
.LBE5546:
	.loc 13 1072 0
	cmpwi 7,31,0
	beq- 7,.L305
	.loc 13 1077 0
	mr 23,31
.LVL454:
	b .L350
.LVL455:
.L305:
.LBE5548:
.LBE5510:
.LBE5509:
.LBE5554:
	.loc 3 326 0
	lwz 31,8(24)
.LVL456:
.LBB5555:
.LBB5553:
.LBB5549:
.LBB5550:
.LBB5551:
.LBB5552:
	.loc 8 98 0
	mr 3,24
	bl _ZdlPv
.LVL457:
.LBE5552:
.LBE5551:
.LBE5550:
.LBE5549:
.LBE5553:
	.loc 13 1072 0
	cmpwi 7,31,0
	beq- 7,.L304
	.loc 13 1077 0
	mr 24,31
.LVL458:
	b .L349
.LVL459:
.L304:
.LBE5555:
.LBE5507:
.LBE5506:
.LBE5561:
	.loc 3 326 0
	lwz 31,8(25)
.LVL460:
.LBB5562:
.LBB5560:
.LBB5556:
.LBB5557:
.LBB5558:
.LBB5559:
	.loc 8 98 0
	mr 3,25
	bl _ZdlPv
.LVL461:
.LBE5559:
.LBE5558:
.LBE5557:
.LBE5556:
.LBE5560:
	.loc 13 1072 0
	cmpwi 7,31,0
	beq- 7,.L303
	.loc 13 1077 0
	mr 25,31
.LVL462:
	b .L348
.LVL463:
.L303:
.LBE5562:
.LBE5504:
.LBE5503:
.LBE5568:
	.loc 3 326 0
	lwz 31,8(26)
.LVL464:
.LBB5569:
.LBB5567:
.LBB5563:
.LBB5564:
.LBB5565:
.LBB5566:
	.loc 8 98 0
	mr 3,26
	bl _ZdlPv
.LVL465:
.LBE5566:
.LBE5565:
.LBE5564:
.LBE5563:
.LBE5567:
	.loc 13 1072 0
	cmpwi 7,31,0
	beq- 7,.L302
	.loc 13 1077 0
	mr 26,31
.LVL466:
	b .L347
.LVL467:
.L302:
.LBE5569:
.LBE5501:
.LBE5500:
.LBE5575:
	.loc 3 326 0
	lwz 31,8(27)
.LVL468:
.LBB5576:
.LBB5574:
.LBB5570:
.LBB5571:
.LBB5572:
.LBB5573:
	.loc 8 98 0
	mr 3,27
	bl _ZdlPv
.LVL469:
.LBE5573:
.LBE5572:
.LBE5571:
.LBE5570:
.LBE5574:
	.loc 13 1072 0
	cmpwi 7,31,0
	beq- 7,.L301
	.loc 13 1077 0
	mr 27,31
.LVL470:
	b .L346
.LVL471:
.L301:
	.loc 3 326 0
	lwz 31,8(22)
.LVL472:
.LBE5576:
.LBE5498:
.LBB5577:
.LBB5578:
.LBB5579:
.LBB5580:
	.loc 8 98 0
	mr 3,22
	bl _ZdlPv
.LVL473:
.LBE5580:
.LBE5579:
.LBE5578:
.LBE5577:
.LBE5497:
	.loc 13 1072 0
	cmpwi 7,31,0
	beq- 7,.L299
	.loc 13 1077 0
	mr 22,31
.LVL474:
	b .L345
.LVL475:
.L299:
.LBE5581:
	.loc 13 1079 0
	lwz 0,60(1)
	lwz 21,12(1)
	mtlr 0
	lwz 22,16(1)
	lwz 23,20(1)
	lwz 24,24(1)
	lwz 25,28(1)
	lwz 26,32(1)
	lwz 27,36(1)
	lwz 28,40(1)
	lwz 29,44(1)
	lwz 30,48(1)
.LVL476:
	lwz 31,52(1)
	addi 1,1,56
.LCFI107:
	.cfi_def_cfa_offset 0
	.cfi_restore 31
	.cfi_restore 30
	.cfi_restore 29
	.cfi_restore 28
	.cfi_restore 27
	.cfi_restore 26
	.cfi_restore 25
	.cfi_restore 24
	.cfi_restore 23
	.cfi_restore 22
	.cfi_restore 21
	blr
	.cfi_endproc
.LFE1943:
	.size	_ZNSt8_Rb_treeIPN7sigslot12_signal_baseINS0_15single_threadedEEES4_St9_IdentityIS4_ESt4lessIS4_ESaIS4_EE8_M_eraseEPSt13_Rb_tree_nodeIS4_E, .-_ZNSt8_Rb_treeIPN7sigslot12_signal_baseINS0_15single_threadedEEES4_St9_IdentityIS4_ESt4lessIS4_ESaIS4_EE8_M_eraseEPSt13_Rb_tree_nodeIS4_E
	.section	.text._ZN7sigslot9has_slotsINS_15single_threadedEED2Ev,"axG",@progbits,_ZN7sigslot9has_slotsINS_15single_threadedEED5Ev,comdat
	.align 2
	.weak	_ZN7sigslot9has_slotsINS_15single_threadedEED2Ev
	.type	_ZN7sigslot9has_slotsINS_15single_threadedEED2Ev, @function
_ZN7sigslot9has_slotsINS_15single_threadedEED2Ev:
.LFB1679:
	.loc 1 513 0
	.cfi_startproc
	.cfi_personality 0,__gxx_personality_v0
	.cfi_lsda 0,.LLSDA1679
.LVL477:
	mflr 0
	stwu 1,-32(1)
.LCFI108:
	.cfi_def_cfa_offset 32
	.cfi_register 65, 0
.LBB5728:
	.loc 1 516 0
	lis 9,_ZTVN7sigslot9has_slotsINS_15single_threadedEEE+8@ha
.LBE5728:
	.loc 1 513 0
	stw 28,16(1)
	addi 28,3,4
	.cfi_offset 28, -16
	stw 0,36(1)
.LBB5804:
	.loc 1 516 0
	la 0,_ZTVN7sigslot9has_slotsINS_15single_threadedEEE+8@l(9)
	.cfi_offset 65, 4
.LBE5804:
	.loc 1 513 0
	stw 29,20(1)
	mr 29,3
	.cfi_offset 29, -12
	stw 26,8(1)
	stw 27,12(1)
	stw 30,24(1)
	stw 31,28(1)
.LBB5805:
	.loc 1 516 0
	stw 0,0(3)
.LVL478:
.LEHB50:
.LBB5729:
.LBB5730:
.LBB5731:
.LBB5732:
	.loc 1 338 0
	.cfi_offset 31, -4
	.cfi_offset 30, -8
	.cfi_offset 27, -20
	.cfi_offset 26, -24
	bl _ZN7sigslot15single_threaded4lockEv
.LEHE50:
.LVL479:
.LBE5732:
.LBE5731:
.LBB5733:
	.loc 3 326 0
	lwz 31,16(29)
.LVL480:
.LBE5733:
.LBB5734:
.LBB5735:
.LBB5736:
	.loc 13 671 0
	addi 30,28,4
.LVL481:
.LBE5736:
.LBE5735:
.LBE5734:
	.loc 1 524 0
	cmpw 7,31,30
	beq- 7,.L355
.LVL482:
.L382:
	.loc 1 526 0
	lwz 3,16(31)
	mr 4,29
	lwz 9,0(3)
	lwz 0,16(9)
	mtctr 0
.LEHB51:
	bctrl
.LEHE51:
.LVL483:
.LBB5737:
.LBB5738:
	.loc 13 269 0
	mr 3,31
	bl _ZSt18_Rb_tree_incrementPKSt18_Rb_tree_node_base
.LBE5738:
.LBE5737:
	.loc 1 524 0
	cmpw 7,30,3
.LBB5740:
.LBB5739:
	.loc 13 269 0
	mr 31,3
.LVL484:
.LBE5739:
.LBE5740:
	.loc 1 524 0
	bne+ 7,.L382
	lwz 31,16(29)
.LVL485:
.L355:
.LBB5741:
.LBB5742:
.LBB5743:
.LBB5744:
.LBB5745:
.LBB5746:
.LBB5747:
	.loc 13 665 0
	addi 26,28,4
.LBE5747:
.LBE5746:
	.loc 13 1500 0
	cmpw 7,30,26
	beq- 7,.L357
.LVL486:
	.loc 13 1503 0
	cmpw 7,30,31
	bne+ 7,.L384
	b .L358
.LVL487:
.L379:
	.loc 13 277 0
	mr 31,27
.LVL488:
.L384:
.LBB5748:
.LBB5749:
	mr 3,31
	bl _ZSt18_Rb_tree_incrementPKSt18_Rb_tree_node_base
.LBE5749:
.LBE5748:
.LBB5751:
.LBB5752:
.LBB5753:
	.loc 13 1489 0
	mr 4,26
.LBE5753:
.LBE5752:
.LBE5751:
.LBB5762:
.LBB5750:
	.loc 13 277 0
	mr 27,3
.LVL489:
.LBE5750:
.LBE5762:
.LBB5763:
.LBB5760:
.LBB5758:
	.loc 13 1489 0
	mr 3,31
.LVL490:
	bl _ZSt28_Rb_tree_rebalance_for_erasePSt18_Rb_tree_node_baseRS_
.LBB5754:
.LBB5755:
.LBB5756:
.LBB5757:
	.loc 8 98 0
	bl _ZdlPv
.LBE5757:
.LBE5756:
.LBE5755:
.LBE5754:
.LBE5758:
.LBE5760:
.LBE5763:
	.loc 13 1503 0
	cmpw 7,30,27
.LBB5764:
.LBB5761:
.LBB5759:
	.loc 13 1491 0
	lwz 9,20(28)
	addi 0,9,-1
	stw 0,20(28)
.LBE5759:
.LBE5761:
.LBE5764:
	.loc 13 1503 0
	bne+ 7,.L379
.LVL491:
.L358:
.LBE5745:
.LBE5744:
.LBE5743:
.LBE5742:
.LBE5741:
.LBB5773:
.LBB5774:
.LBB5775:
	.loc 1 343 0
	lwz 9,0(29)
	mr 3,29
	lwz 0,12(9)
	mtctr 0
.LEHB52:
	bctrl
.LEHE52:
.LVL492:
.LBE5775:
.LBE5774:
.LBE5773:
.LBE5730:
.LBE5729:
.LBB5782:
.LBB5783:
.LBB5784:
.LBB5785:
.LBB5786:
	.loc 13 639 0
	lwz 4,12(29)
	mr 3,28
	bl _ZNSt8_Rb_treeIPN7sigslot12_signal_baseINS0_15single_threadedEEES4_St9_IdentityIS4_ESt4lessIS4_ESaIS4_EE8_M_eraseEPSt13_Rb_tree_nodeIS4_E
.LVL493:
.LBE5786:
.LBE5785:
.LBE5784:
.LBE5783:
.LBE5782:
.LBB5787:
.LBB5788:
.LBB5789:
	.loc 1 105 0
	lis 9,_ZTVN7sigslot15single_threadedE+8@ha
	la 0,_ZTVN7sigslot15single_threadedE+8@l(9)
.LBE5789:
.LBE5788:
.LBE5787:
.LBE5805:
	.loc 1 516 0
	lwz 26,8(1)
.LBB5806:
.LBB5792:
.LBB5791:
.LBB5790:
	.loc 1 105 0
	stw 0,0(29)
.LBE5790:
.LBE5791:
.LBE5792:
.LBE5806:
	.loc 1 516 0
	lwz 0,36(1)
	lwz 27,12(1)
	mtlr 0
	lwz 28,16(1)
.LVL494:
	lwz 29,20(1)
.LVL495:
	lwz 30,24(1)
.LVL496:
	lwz 31,28(1)
	addi 1,1,32
	.cfi_remember_state
.LCFI109:
	.cfi_def_cfa_offset 0
	.cfi_restore 31
	.cfi_restore 30
	.cfi_restore 29
	.cfi_restore 28
	.cfi_restore 27
	.cfi_restore 26
	blr
.LVL497:
.L357:
.LCFI110:
	.cfi_restore_state
.LBB5807:
.LBB5793:
.LBB5780:
.LBB5776:
.LBB5772:
.LBB5771:
.LBB5770:
.LBB5769:
.LBB5765:
.LBB5766:
.LBB5767:
.LBB5768:
	.loc 13 809 0
	lwz 4,12(29)
	mr 3,28
	bl _ZNSt8_Rb_treeIPN7sigslot12_signal_baseINS0_15single_threadedEEES4_St9_IdentityIS4_ESt4lessIS4_ESaIS4_EE8_M_eraseEPSt13_Rb_tree_nodeIS4_E
.LVL498:
	.loc 13 811 0
	li 0,0
	.loc 13 810 0
	stw 30,16(29)
.LVL499:
	.loc 13 811 0
	stw 0,12(29)
.LVL500:
	.loc 13 812 0
	stw 30,20(29)
	.loc 13 813 0
	stw 0,24(29)
	b .L358
.LVL501:
.L380:
	mr 31,3
.L365:
.LVL502:
.LBE5768:
.LBE5767:
.LBE5766:
.LBE5765:
.LBE5769:
.LBE5770:
.LBE5771:
.LBE5772:
.LBE5776:
.LBE5780:
.LBE5793:
.LBB5794:
.LBB5795:
.LBB5796:
.LBB5797:
.LBB5798:
.LBB5799:
	.loc 13 639 0
	lwz 4,12(29)
	mr 3,28
	bl _ZNSt8_Rb_treeIPN7sigslot12_signal_baseINS0_15single_threadedEEES4_St9_IdentityIS4_ESt4lessIS4_ESaIS4_EE8_M_eraseEPSt13_Rb_tree_nodeIS4_E
.LVL503:
.LBE5799:
.LBE5798:
.LBE5797:
.LBE5796:
.LBE5795:
.LBE5794:
.LBB5800:
.LBB5801:
.LBB5802:
	.loc 1 105 0
	lis 9,_ZTVN7sigslot15single_threadedE+8@ha
	la 0,_ZTVN7sigslot15single_threadedE+8@l(9)
	mr 3,31
	stw 0,0(29)
.LEHB53:
	bl _Unwind_Resume
.LEHE53:
.LVL504:
.L381:
.LBE5802:
.LBE5801:
.LBE5800:
.LBB5803:
.LBB5781:
.LBB5777:
.LBB5778:
.LBB5779:
	.loc 1 343 0
	lwz 9,0(29)
	mr 31,3
.LVL505:
	mr 3,29
	lwz 0,12(9)
	mtctr 0
	bctrl
	b .L365
.LBE5779:
.LBE5778:
.LBE5777:
.LBE5781:
.LBE5803:
.LBE5807:
	.cfi_endproc
.LFE1679:
	.section	.gcc_except_table
.LLSDA1679:
	.byte	0xff
	.byte	0xff
	.byte	0x1
	.uleb128 .LLSDACSE1679-.LLSDACSB1679
.LLSDACSB1679:
	.uleb128 .LEHB50-.LFB1679
	.uleb128 .LEHE50-.LEHB50
	.uleb128 .L380-.LFB1679
	.uleb128 0
	.uleb128 .LEHB51-.LFB1679
	.uleb128 .LEHE51-.LEHB51
	.uleb128 .L381-.LFB1679
	.uleb128 0
	.uleb128 .LEHB52-.LFB1679
	.uleb128 .LEHE52-.LEHB52
	.uleb128 .L380-.LFB1679
	.uleb128 0
	.uleb128 .LEHB53-.LFB1679
	.uleb128 .LEHE53-.LEHB53
	.uleb128 0
	.uleb128 0
.LLSDACSE1679:
	.section	.text._ZN7sigslot9has_slotsINS_15single_threadedEED2Ev,"axG",@progbits,_ZN7sigslot9has_slotsINS_15single_threadedEED5Ev,comdat
	.size	_ZN7sigslot9has_slotsINS_15single_threadedEED2Ev, .-_ZN7sigslot9has_slotsINS_15single_threadedEED2Ev
	.section	.text._ZN7sigslot9has_slotsINS_15single_threadedEED0Ev,"axG",@progbits,_ZN7sigslot9has_slotsINS_15single_threadedEED5Ev,comdat
	.align 2
	.weak	_ZN7sigslot9has_slotsINS_15single_threadedEED0Ev
	.type	_ZN7sigslot9has_slotsINS_15single_threadedEED0Ev, @function
_ZN7sigslot9has_slotsINS_15single_threadedEED0Ev:
.LFB1681:
	.loc 1 513 0
	.cfi_startproc
	.cfi_personality 0,__gxx_personality_v0
	.cfi_lsda 0,.LLSDA1681
.LVL506:
	mflr 0
	stwu 1,-32(1)
.LCFI111:
	.cfi_def_cfa_offset 32
	.cfi_register 65, 0
.LBB5901:
.LBB5902:
.LBB5903:
	.loc 1 516 0
	lis 9,_ZTVN7sigslot9has_slotsINS_15single_threadedEEE+8@ha
.LBE5903:
.LBE5902:
.LBE5901:
	.loc 1 513 0
	stw 28,16(1)
	addi 28,3,4
	.cfi_offset 28, -16
	stw 0,36(1)
.LBB5987:
.LBB5983:
.LBB5979:
	.loc 1 516 0
	la 0,_ZTVN7sigslot9has_slotsINS_15single_threadedEEE+8@l(9)
	.cfi_offset 65, 4
.LBE5979:
.LBE5983:
.LBE5987:
	.loc 1 513 0
	stw 29,20(1)
	mr 29,3
	.cfi_offset 29, -12
.LVL507:
	stw 26,8(1)
	stw 27,12(1)
	stw 30,24(1)
	stw 31,28(1)
.LBB5988:
.LBB5984:
.LBB5980:
	.loc 1 516 0
	stw 0,0(3)
.LVL508:
.LEHB54:
.LBB5904:
.LBB5905:
.LBB5906:
.LBB5907:
	.loc 1 338 0
	.cfi_offset 31, -4
	.cfi_offset 30, -8
	.cfi_offset 27, -20
	.cfi_offset 26, -24
	bl _ZN7sigslot15single_threaded4lockEv
.LEHE54:
.LVL509:
.LBE5907:
.LBE5906:
.LBB5908:
	.loc 3 326 0
	lwz 31,16(29)
.LVL510:
.LBE5908:
.LBB5909:
.LBB5910:
.LBB5911:
	.loc 13 671 0
	addi 30,28,4
.LVL511:
.LBE5911:
.LBE5910:
.LBE5909:
	.loc 1 524 0
	cmpw 7,31,30
	beq- 7,.L387
.LVL512:
.L415:
	.loc 1 526 0
	lwz 3,16(31)
	mr 4,29
	lwz 9,0(3)
	lwz 0,16(9)
	mtctr 0
.LEHB55:
	bctrl
.LEHE55:
.LVL513:
.LBB5912:
.LBB5913:
	.loc 13 269 0
	mr 3,31
	bl _ZSt18_Rb_tree_incrementPKSt18_Rb_tree_node_base
.LBE5913:
.LBE5912:
	.loc 1 524 0
	cmpw 7,30,3
.LBB5915:
.LBB5914:
	.loc 13 269 0
	mr 31,3
.LVL514:
.LBE5914:
.LBE5915:
	.loc 1 524 0
	bne+ 7,.L415
	lwz 31,16(29)
.LVL515:
.L387:
.LBB5916:
.LBB5917:
.LBB5918:
.LBB5919:
.LBB5920:
.LBB5921:
.LBB5922:
	.loc 13 665 0
	addi 26,28,4
.LBE5922:
.LBE5921:
	.loc 13 1500 0
	cmpw 7,30,26
	beq- 7,.L389
.LVL516:
	.loc 13 1503 0
	cmpw 7,30,31
	bne+ 7,.L417
	b .L390
.LVL517:
.L412:
	.loc 13 277 0
	mr 31,27
.LVL518:
.L417:
.LBB5923:
.LBB5924:
	mr 3,31
	bl _ZSt18_Rb_tree_incrementPKSt18_Rb_tree_node_base
.LBE5924:
.LBE5923:
.LBB5926:
.LBB5927:
.LBB5928:
	.loc 13 1489 0
	mr 4,26
.LBE5928:
.LBE5927:
.LBE5926:
.LBB5937:
.LBB5925:
	.loc 13 277 0
	mr 27,3
.LVL519:
.LBE5925:
.LBE5937:
.LBB5938:
.LBB5935:
.LBB5933:
	.loc 13 1489 0
	mr 3,31
.LVL520:
	bl _ZSt28_Rb_tree_rebalance_for_erasePSt18_Rb_tree_node_baseRS_
.LBB5929:
.LBB5930:
.LBB5931:
.LBB5932:
	.loc 8 98 0
	bl _ZdlPv
.LBE5932:
.LBE5931:
.LBE5930:
.LBE5929:
.LBE5933:
.LBE5935:
.LBE5938:
	.loc 13 1503 0
	cmpw 7,30,27
.LBB5939:
.LBB5936:
.LBB5934:
	.loc 13 1491 0
	lwz 9,20(28)
	addi 0,9,-1
	stw 0,20(28)
.LBE5934:
.LBE5936:
.LBE5939:
	.loc 13 1503 0
	bne+ 7,.L412
.LVL521:
.L390:
.LBE5920:
.LBE5919:
.LBE5918:
.LBE5917:
.LBE5916:
.LBB5948:
.LBB5949:
.LBB5950:
	.loc 1 343 0
	lwz 9,0(29)
	mr 3,29
	lwz 0,12(9)
	mtctr 0
.LEHB56:
	bctrl
.LEHE56:
.LVL522:
.LBE5950:
.LBE5949:
.LBE5948:
.LBE5905:
.LBE5904:
.LBB5957:
.LBB5958:
.LBB5959:
.LBB5960:
.LBB5961:
	.loc 13 639 0
	lwz 4,12(29)
	mr 3,28
	bl _ZNSt8_Rb_treeIPN7sigslot12_signal_baseINS0_15single_threadedEEES4_St9_IdentityIS4_ESt4lessIS4_ESaIS4_EE8_M_eraseEPSt13_Rb_tree_nodeIS4_E
.LVL523:
.LBE5961:
.LBE5960:
.LBE5959:
.LBE5958:
.LBE5957:
.LBB5962:
.LBB5963:
.LBB5964:
	.loc 1 105 0
	lis 9,_ZTVN7sigslot15single_threadedE+8@ha
	la 0,_ZTVN7sigslot15single_threadedE+8@l(9)
.LBE5964:
.LBE5963:
.LBE5962:
.LBE5980:
.LBE5984:
.LBE5988:
	.loc 1 516 0
	mr 3,29
.LBB5989:
.LBB5985:
.LBB5981:
.LBB5967:
.LBB5966:
.LBB5965:
	.loc 1 105 0
	stw 0,0(29)
.LBE5965:
.LBE5966:
.LBE5967:
.LBE5981:
.LBE5985:
.LBE5989:
	.loc 1 516 0
	bl _ZdlPv
	lwz 0,36(1)
	lwz 26,8(1)
	mtlr 0
	lwz 27,12(1)
	lwz 28,16(1)
.LVL524:
	lwz 29,20(1)
.LVL525:
	lwz 30,24(1)
.LVL526:
	lwz 31,28(1)
	addi 1,1,32
	.cfi_remember_state
.LCFI112:
	.cfi_def_cfa_offset 0
	.cfi_restore 31
	.cfi_restore 30
	.cfi_restore 29
	.cfi_restore 28
	.cfi_restore 27
	.cfi_restore 26
	blr
.LVL527:
.L389:
.LCFI113:
	.cfi_restore_state
.LBB5990:
.LBB5986:
.LBB5982:
.LBB5968:
.LBB5955:
.LBB5951:
.LBB5947:
.LBB5946:
.LBB5945:
.LBB5944:
.LBB5940:
.LBB5941:
.LBB5942:
.LBB5943:
	.loc 13 809 0
	lwz 4,12(29)
	mr 3,28
	bl _ZNSt8_Rb_treeIPN7sigslot12_signal_baseINS0_15single_threadedEEES4_St9_IdentityIS4_ESt4lessIS4_ESaIS4_EE8_M_eraseEPSt13_Rb_tree_nodeIS4_E
.LVL528:
	.loc 13 811 0
	li 0,0
	.loc 13 810 0
	stw 30,16(29)
.LVL529:
	.loc 13 811 0
	stw 0,12(29)
.LVL530:
	.loc 13 812 0
	stw 30,20(29)
	.loc 13 813 0
	stw 0,24(29)
	b .L390
.LVL531:
.L413:
	mr 31,3
.L397:
.LVL532:
.LBE5943:
.LBE5942:
.LBE5941:
.LBE5940:
.LBE5944:
.LBE5945:
.LBE5946:
.LBE5947:
.LBE5951:
.LBE5955:
.LBE5968:
.LBB5969:
.LBB5970:
.LBB5971:
.LBB5972:
.LBB5973:
.LBB5974:
	.loc 13 639 0
	lwz 4,12(29)
	mr 3,28
	bl _ZNSt8_Rb_treeIPN7sigslot12_signal_baseINS0_15single_threadedEEES4_St9_IdentityIS4_ESt4lessIS4_ESaIS4_EE8_M_eraseEPSt13_Rb_tree_nodeIS4_E
.LVL533:
.LBE5974:
.LBE5973:
.LBE5972:
.LBE5971:
.LBE5970:
.LBE5969:
.LBB5975:
.LBB5976:
.LBB5977:
	.loc 1 105 0
	lis 9,_ZTVN7sigslot15single_threadedE+8@ha
	la 0,_ZTVN7sigslot15single_threadedE+8@l(9)
	mr 3,31
	stw 0,0(29)
.LEHB57:
	bl _Unwind_Resume
.LEHE57:
.LVL534:
.L414:
.LBE5977:
.LBE5976:
.LBE5975:
.LBB5978:
.LBB5956:
.LBB5952:
.LBB5953:
.LBB5954:
	.loc 1 343 0
	lwz 9,0(29)
	mr 31,3
.LVL535:
	mr 3,29
	lwz 0,12(9)
	mtctr 0
	bctrl
	b .L397
.LBE5954:
.LBE5953:
.LBE5952:
.LBE5956:
.LBE5978:
.LBE5982:
.LBE5986:
.LBE5990:
	.cfi_endproc
.LFE1681:
	.section	.gcc_except_table
.LLSDA1681:
	.byte	0xff
	.byte	0xff
	.byte	0x1
	.uleb128 .LLSDACSE1681-.LLSDACSB1681
.LLSDACSB1681:
	.uleb128 .LEHB54-.LFB1681
	.uleb128 .LEHE54-.LEHB54
	.uleb128 .L413-.LFB1681
	.uleb128 0
	.uleb128 .LEHB55-.LFB1681
	.uleb128 .LEHE55-.LEHB55
	.uleb128 .L414-.LFB1681
	.uleb128 0
	.uleb128 .LEHB56-.LFB1681
	.uleb128 .LEHE56-.LEHB56
	.uleb128 .L413-.LFB1681
	.uleb128 0
	.uleb128 .LEHB57-.LFB1681
	.uleb128 .LEHE57-.LEHB57
	.uleb128 0
	.uleb128 0
.LLSDACSE1681:
	.section	.text._ZN7sigslot9has_slotsINS_15single_threadedEED0Ev,"axG",@progbits,_ZN7sigslot9has_slotsINS_15single_threadedEED5Ev,comdat
	.size	_ZN7sigslot9has_slotsINS_15single_threadedEED0Ev, .-_ZN7sigslot9has_slotsINS_15single_threadedEED0Ev
	.section	.text._ZNSt6vectorIP8GuiImageSaIS1_EE14_M_fill_insertEN9__gnu_cxx17__normal_iteratorIPS1_S3_EEjRKS1_,"axG",@progbits,_ZNSt6vectorIP8GuiImageSaIS1_EE14_M_fill_insertEN9__gnu_cxx17__normal_iteratorIPS1_S3_EEjRKS1_,comdat
	.align 2
	.weak	_ZNSt6vectorIP8GuiImageSaIS1_EE14_M_fill_insertEN9__gnu_cxx17__normal_iteratorIPS1_S3_EEjRKS1_
	.type	_ZNSt6vectorIP8GuiImageSaIS1_EE14_M_fill_insertEN9__gnu_cxx17__normal_iteratorIPS1_S3_EEjRKS1_, @function
_ZNSt6vectorIP8GuiImageSaIS1_EE14_M_fill_insertEN9__gnu_cxx17__normal_iteratorIPS1_S3_EEjRKS1_:
.LFB1986:
	.loc 11 377 0
	.cfi_startproc
.LVL536:
	stwu 1,-40(1)
.LCFI114:
	.cfi_def_cfa_offset 40
	mflr 0
	stw 30,32(1)
.LBB6101:
	.loc 11 380 0
	mr. 30,5
	.cfi_offset 30, -8
	.cfi_register 65, 0
.LBE6101:
	.loc 11 377 0
	stw 0,44(1)
	stw 29,28(1)
	stw 31,36(1)
	mr 31,3
	.cfi_offset 31, -4
	.cfi_offset 29, -12
	.cfi_offset 65, 4
	stw 26,16(1)
	stw 27,20(1)
	stw 28,24(1)
	.loc 11 377 0
	lwz 29,0(4)
.LBB6398:
	.loc 11 380 0
	beq- 0,.L419
	.cfi_offset 28, -16
	.cfi_offset 27, -20
	.cfi_offset 26, -24
.LBB6102:
	.loc 11 382 0
	lwz 27,4(3)
	lwz 0,8(3)
	subf 0,27,0
	srawi 0,0,2
	cmplw 7,30,0
	bgt- 7,.L421
.LBB6103:
.LBB6104:
.LBB6105:
	.loc 10 892 0
	subf 0,29,27
.LBE6105:
.LBE6104:
	.loc 11 385 0
	lwz 28,0(6)
.LVL537:
.LBB6107:
.LBB6106:
	.loc 10 892 0
	srawi 0,0,2
.LVL538:
.LBE6106:
.LBE6107:
	.loc 11 388 0
	cmplw 7,30,0
	blt- 7,.L449
.LVL539:
.LBB6108:
.LBB6109:
.LBB6110:
.LBB6111:
.LBB6112:
.LBB6113:
.LBB6114:
.LBB6115:
	.loc 12 743 0
	subf. 30,0,30
	.loc 11 382 0
	mr 9,27
	.loc 12 743 0
	beq- 0,.L426
.LBE6115:
.LBE6114:
.LBE6113:
.LBE6112:
.LBE6111:
.LBE6110:
.LBE6109:
.LBE6108:
.LBB6123:
.LBB6124:
.LBB6125:
.LBB6126:
.LBB6127:
.LBB6128:
.LBB6129:
.LBB6130:
.LBB6131:
.LBB6132:
.LBB6133:
	.loc 11 377 0
	mtctr 30
.LBE6133:
.LBE6132:
.LBE6131:
.LBE6130:
.LBE6129:
.LBE6128:
.LBE6127:
.LBE6126:
.LBE6125:
.LBE6124:
.LBE6123:
.LBB6144:
.LBB6122:
.LBB6121:
.LBB6120:
.LBB6119:
.LBB6118:
.LBB6117:
.LBB6116:
	addi 9,27,-4
.LVL540:
.L427:
	.loc 12 745 0
	stwu 28,4(9)
	.loc 12 743 0
	bdnz .L427
	lwz 9,4(31)
.L426:
.LBE6116:
.LBE6117:
.LBE6118:
.LBE6119:
.LBE6120:
.LBE6121:
.LBE6122:
.LBE6144:
.LBB6145:
.LBB6146:
.LBB6147:
.LBB6148:
.LBB6149:
.LBB6150:
.LBB6151:
.LBB6152:
.LBB6153:
.LBB6154:
.LBB6155:
	.loc 12 365 0
	cmpwi 7,0,0
.LBE6155:
.LBE6154:
.LBE6153:
.LBE6152:
.LBE6151:
.LBE6150:
.LBE6149:
.LBE6148:
.LBE6147:
.LBE6146:
.LBE6145:
	.loc 11 406 0
	slwi 30,30,2
	add 3,9,30
.LVL541:
	stw 3,4(31)
.LVL542:
.LBB6176:
.LBB6174:
.LBB6172:
.LBB6170:
.LBB6168:
.LBB6166:
.LBB6164:
.LBB6162:
.LBB6160:
.LBB6158:
.LBB6156:
	.loc 12 365 0
	bne- 7,.L428
	li 30,0
.LVL543:
.L429:
.LBE6156:
.LBE6158:
.LBE6160:
.LBE6162:
.LBE6164:
.LBE6166:
.LBE6168:
.LBE6170:
.LBE6172:
.LBE6174:
.LBE6176:
.LBB6177:
.LBB6178:
.LBB6179:
	.loc 12 686 0
	cmpw 7,27,29
.LBE6179:
.LBE6178:
.LBE6177:
	.loc 11 410 0
	add 3,3,30
	stw 3,4(31)
.LVL544:
.LBB6182:
.LBB6181:
.LBB6180:
	.loc 12 686 0
	beq- 7,.L419
.LVL545:
.L430:
	.loc 12 687 0
	stw 28,0(29)
	addi 29,29,4
	.loc 12 686 0
	cmpw 7,27,29
	bne+ 7,.L430
.LVL546:
.L419:
.LBE6180:
.LBE6181:
.LBE6182:
.LBE6103:
.LBE6102:
.LBE6398:
	.loc 11 464 0
	lwz 0,44(1)
	lwz 26,16(1)
	mtlr 0
	lwz 27,20(1)
	lwz 28,24(1)
	lwz 29,28(1)
	lwz 30,32(1)
	lwz 31,36(1)
.LVL547:
	addi 1,1,40
	.cfi_remember_state
.LCFI115:
	.cfi_def_cfa_offset 0
	.cfi_restore 31
	.cfi_restore 30
	.cfi_restore 29
	.cfi_restore 28
	.cfi_restore 27
	.cfi_restore 26
	blr
.LVL548:
.L421:
.LCFI116:
	.cfi_restore_state
.LBB6399:
.LBB6394:
.LBB6212:
.LBB6213:
.LBB6214:
.LBB6215:
.LBB6216:
	.loc 7 571 0
	lwz 9,0(3)
.LBE6216:
.LBE6215:
	.loc 7 1241 0
	lis 11,0x3fff
	ori 11,11,65535
.LBB6218:
.LBB6217:
	.loc 7 571 0
	subf 27,9,27
	srawi 0,27,2
.LBE6217:
.LBE6218:
	.loc 7 1241 0
	subf 11,0,11
	cmplw 7,30,11
	bgt- 7,.L450
.LVL549:
	.loc 7 1244 0
	cmplw 7,0,30
	mr 11,0
	blt- 7,.L451
	add 11,11,0
.LVL550:
	.loc 7 1245 0
	cmplw 7,0,11
	ble- 7,.L452
.L433:
.LVL551:
.LBE6214:
.LBE6213:
.LBB6221:
.LBB6222:
	.loc 10 892 0
	subf 27,9,29
.LBE6222:
.LBE6221:
	.loc 11 418 0
	li 26,-4
.LBB6225:
.LBB6223:
	.loc 10 892 0
	srawi 27,27,2
.LVL552:
.L439:
.LBE6223:
.LBE6225:
.LBB6226:
.LBB6227:
.LBB6228:
.LBB6229:
	.loc 8 92 0
	mr 3,26
.LVL553:
	stw 6,8(1)
	bl _Znwj
.LVL554:
	lwz 6,8(1)
	mr 28,3
.L434:
.LVL555:
.LBE6229:
.LBE6228:
.LBE6227:
.LBE6226:
	.loc 11 424 0
	slwi 27,27,2
.LVL556:
.LBB6238:
.LBB6234:
.LBB6232:
.LBB6230:
	.loc 3 326 0
	lwz 0,0(6)
.LVL557:
.LBE6230:
.LBE6232:
.LBE6234:
.LBE6238:
	.loc 11 424 0
	add 27,28,27
.LBB6239:
.LBB6235:
	.loc 11 377 0
	mtctr 30
.LBB6233:
.LBB6231:
	addi 27,27,-4
.LVL558:
.L435:
.LBE6231:
.LBE6233:
.LBE6235:
.LBE6239:
.LBB6240:
.LBB6241:
.LBB6242:
.LBB6243:
.LBB6244:
.LBB6245:
.LBB6246:
.LBB6247:
	.loc 12 745 0
	stwu 0,4(27)
	.loc 12 743 0
	bdnz .L435
.LVL559:
.LBE6247:
.LBE6246:
.LBE6245:
.LBE6244:
.LBE6243:
.LBE6242:
.LBE6241:
.LBE6240:
	.loc 11 429 0
	lwz 4,0(31)
.LVL560:
.LBB6248:
.LBB6249:
.LBB6250:
.LBB6251:
.LBB6252:
.LBB6253:
.LBB6254:
.LBB6255:
.LBB6256:
.LBB6257:
.LBB6258:
	.loc 12 365 0
	li 27,0
	.loc 12 364 0
	subf 0,4,29
.LVL561:
	.loc 12 365 0
	srawi. 0,0,2
.LVL562:
	bne- 0,.L453
.LBE6258:
.LBE6257:
.LBE6256:
.LBE6255:
.LBE6254:
.LBE6253:
.LBE6252:
.LBE6251:
.LBE6250:
.LBE6249:
.LBE6248:
.LBB6299:
.LBB6300:
.LBB6301:
.LBB6302:
.LBB6303:
.LBB6304:
.LBB6305:
.LBB6306:
.LBB6307:
.LBB6308:
.LBB6309:
	.loc 12 364 0
	lwz 0,4(31)
.LVL563:
.LBE6309:
.LBE6308:
.LBE6307:
.LBE6306:
.LBE6305:
.LBE6304:
.LBE6303:
.LBE6302:
.LBE6301:
.LBE6300:
.LBE6299:
.LBB6370:
.LBB6295:
.LBB6291:
.LBB6287:
.LBB6283:
.LBB6279:
.LBB6275:
.LBB6271:
.LBB6267:
.LBB6263:
.LBB6259:
	.loc 12 367 0
	add 27,28,27
.LVL564:
.LBE6259:
.LBE6263:
.LBE6267:
.LBE6271:
.LBE6275:
.LBE6279:
.LBE6283:
.LBE6287:
.LBE6291:
.LBE6295:
.LBE6370:
	.loc 11 434 0
	slwi 30,30,2
.LVL565:
.LBB6371:
.LBB6364:
.LBB6358:
.LBB6352:
.LBB6346:
.LBB6340:
.LBB6334:
.LBB6328:
.LBB6322:
.LBB6316:
.LBB6310:
	.loc 12 364 0
	subf 0,29,0
.LBE6310:
.LBE6316:
.LBE6322:
.LBE6328:
.LBE6334:
.LBE6340:
.LBE6346:
.LBE6352:
.LBE6358:
.LBE6364:
.LBE6371:
	.loc 11 434 0
	add 30,27,30
.LVL566:
.LBB6372:
.LBB6365:
.LBB6359:
.LBB6353:
.LBB6347:
.LBB6341:
.LBB6335:
.LBB6329:
.LBB6323:
.LBB6317:
.LBB6311:
	.loc 12 365 0
	srawi. 0,0,2
.LVL567:
	li 27,0
	bne- 0,.L454
.LVL568:
.L437:
.LBE6311:
.LBE6317:
.LBE6323:
.LBE6329:
.LBE6335:
.LBE6341:
.LBE6347:
.LBE6353:
.LBE6359:
.LBE6365:
.LBE6372:
	.loc 11 456 0
	lwz 3,0(31)
.LBB6373:
.LBB6366:
.LBB6360:
.LBB6354:
.LBB6348:
.LBB6342:
.LBB6336:
.LBB6330:
.LBB6324:
.LBB6318:
.LBB6312:
	.loc 12 367 0
	add 27,30,27
.LVL569:
.LBE6312:
.LBE6318:
.LBE6324:
.LBE6330:
.LBE6336:
.LBE6342:
.LBE6348:
.LBE6354:
.LBE6360:
.LBE6366:
.LBE6373:
.LBB6374:
.LBB6375:
	.loc 7 155 0
	cmpwi 7,3,0
	beq- 7,.L438
.LVL570:
.LBB6376:
.LBB6377:
	.loc 8 98 0
	bl _ZdlPv
.LVL571:
.L438:
.LBE6377:
.LBE6376:
.LBE6375:
.LBE6374:
.LBE6212:
.LBE6394:
.LBE6399:
	.loc 11 464 0
	lwz 0,44(1)
.LBB6400:
.LBB6395:
.LBB6389:
	.loc 11 461 0
	add 26,28,26
	.loc 11 459 0
	stw 28,0(31)
.LBE6389:
.LBE6395:
.LBE6400:
	.loc 11 464 0
	mtlr 0
.LBB6401:
.LBB6396:
.LBB6390:
	.loc 11 460 0
	stw 27,4(31)
	.loc 11 461 0
	stw 26,8(31)
.LBE6390:
.LBE6396:
.LBE6401:
	.loc 11 464 0
	lwz 27,20(1)
	lwz 26,16(1)
	lwz 28,24(1)
.LVL572:
	lwz 29,28(1)
.LVL573:
	lwz 30,32(1)
.LVL574:
	lwz 31,36(1)
.LVL575:
	addi 1,1,40
	.cfi_remember_state
	.cfi_restore 26
	.cfi_restore 27
	.cfi_restore 28
	.cfi_restore 29
	.cfi_restore 30
	.cfi_restore 31
.LCFI117:
	.cfi_def_cfa_offset 0
	blr
.LVL576:
.L451:
.LCFI118:
	.cfi_restore_state
.LBB6402:
.LBB6397:
.LBB6391:
.LBB6378:
.LBB6219:
	.loc 7 1244 0
	mr 11,30
	add 11,11,0
.LVL577:
	.loc 7 1245 0
	cmplw 7,0,11
	bgt- 7,.L433
.L452:
.LVL578:
	lis 0,0x3fff
	ori 0,0,65535
	cmplw 7,11,0
	bgt- 7,.L433
.LVL579:
.LBE6219:
.LBE6378:
.LBB6379:
.LBB6236:
	.loc 7 150 0
	cmpwi 7,11,0
.LBE6236:
.LBE6379:
.LBB6380:
.LBB6224:
	.loc 10 892 0
	subf 9,9,29
	srawi 27,9,2
.LVL580:
.LBE6224:
.LBE6380:
.LBB6381:
.LBB6237:
	.loc 7 150 0
	li 26,0
	li 28,0
	beq+ 7,.L434
	slwi 26,11,2
	b .L439
.LVL581:
.L453:
.LBE6237:
.LBE6381:
.LBB6382:
.LBB6296:
.LBB6292:
.LBB6288:
.LBB6284:
.LBB6280:
.LBB6276:
.LBB6272:
.LBB6268:
.LBB6264:
.LBB6260:
	.loc 12 366 0
	slwi 27,0,2
	mr 3,28
	mr 5,27
.LBE6260:
.LBE6264:
.LBE6268:
.LBE6272:
.LBE6276:
.LBE6280:
.LBE6284:
.LBE6288:
.LBE6292:
.LBE6296:
.LBE6382:
	.loc 11 434 0
	slwi 30,30,2
.LVL582:
.LBB6383:
.LBB6297:
.LBB6293:
.LBB6289:
.LBB6285:
.LBB6281:
.LBB6277:
.LBB6273:
.LBB6269:
.LBB6265:
.LBB6261:
	.loc 12 366 0
	bl memmove
.LVL583:
.LBE6261:
.LBE6265:
.LBE6269:
.LBE6273:
.LBE6277:
.LBE6281:
.LBE6285:
.LBE6289:
.LBE6293:
.LBE6297:
.LBE6383:
.LBB6384:
.LBB6367:
.LBB6361:
.LBB6355:
.LBB6349:
.LBB6343:
.LBB6337:
.LBB6331:
.LBB6325:
.LBB6319:
.LBB6313:
	.loc 12 364 0
	lwz 0,4(31)
.LBE6313:
.LBE6319:
.LBE6325:
.LBE6331:
.LBE6337:
.LBE6343:
.LBE6349:
.LBE6355:
.LBE6361:
.LBE6367:
.LBE6384:
.LBB6385:
.LBB6298:
.LBB6294:
.LBB6290:
.LBB6286:
.LBB6282:
.LBB6278:
.LBB6274:
.LBB6270:
.LBB6266:
.LBB6262:
	.loc 12 367 0
	add 27,28,27
.LVL584:
.LBE6262:
.LBE6266:
.LBE6270:
.LBE6274:
.LBE6278:
.LBE6282:
.LBE6286:
.LBE6290:
.LBE6294:
.LBE6298:
.LBE6385:
.LBB6386:
.LBB6368:
.LBB6362:
.LBB6356:
.LBB6350:
.LBB6344:
.LBB6338:
.LBB6332:
.LBB6326:
.LBB6320:
.LBB6314:
	.loc 12 364 0
	subf 0,29,0
.LBE6314:
.LBE6320:
.LBE6326:
.LBE6332:
.LBE6338:
.LBE6344:
.LBE6350:
.LBE6356:
.LBE6362:
.LBE6368:
.LBE6386:
	.loc 11 434 0
	add 30,27,30
.LVL585:
.LBB6387:
.LBB6369:
.LBB6363:
.LBB6357:
.LBB6351:
.LBB6345:
.LBB6339:
.LBB6333:
.LBB6327:
.LBB6321:
.LBB6315:
	.loc 12 365 0
	srawi. 0,0,2
.LVL586:
	li 27,0
	beq+ 0,.L437
.LVL587:
.L454:
	.loc 12 366 0
	slwi 27,0,2
	mr 3,30
	mr 4,29
	mr 5,27
	bl memmove
	b .L437
.LVL588:
.L428:
.LBE6315:
.LBE6321:
.LBE6327:
.LBE6333:
.LBE6339:
.LBE6345:
.LBE6351:
.LBE6357:
.LBE6363:
.LBE6369:
.LBE6387:
.LBE6391:
.LBB6392:
.LBB6183:
.LBB6175:
.LBB6173:
.LBB6171:
.LBB6169:
.LBB6167:
.LBB6165:
.LBB6163:
.LBB6161:
.LBB6159:
.LBB6157:
	slwi 30,0,2
	mr 4,29
	mr 5,30
.LVL589:
	bl memmove
.LVL590:
	lwz 3,4(31)
	b .L429
.LVL591:
.L449:
.LBE6157:
.LBE6159:
.LBE6161:
.LBE6163:
.LBE6165:
.LBE6167:
.LBE6169:
.LBE6171:
.LBE6173:
.LBE6175:
.LBE6183:
	.loc 11 390 0
	slwi 30,30,2
.LVL592:
.LBB6184:
.LBB6143:
.LBB6142:
.LBB6141:
.LBB6140:
.LBB6139:
.LBB6138:
.LBB6137:
.LBB6136:
.LBB6135:
.LBB6134:
	.loc 11 382 0
	mr 0,27
.LVL593:
	.loc 12 365 0
	srawi. 5,30,2
.LVL594:
	.loc 12 364 0
	subf 26,30,27
	.loc 12 365 0
	beq+ 0,.L423
	.loc 12 366 0
	mr 3,27
	mr 4,26
	slwi 5,5,2
	bl memmove
.LVL595:
	lwz 0,4(31)
.L423:
.LBE6134:
.LBE6135:
.LBE6136:
.LBE6137:
.LBE6138:
.LBE6139:
.LBE6140:
.LBE6141:
.LBE6142:
.LBE6143:
.LBE6184:
.LBB6185:
.LBB6186:
.LBB6187:
.LBB6188:
.LBB6189:
.LBB6190:
	.loc 12 559 0
	subf 26,29,26
.LBE6190:
.LBE6189:
.LBE6188:
.LBE6187:
.LBE6186:
.LBE6185:
	.loc 11 394 0
	add 0,0,30
.LBB6206:
.LBB6203:
.LBB6200:
.LBB6197:
.LBB6194:
.LBB6191:
	.loc 12 560 0
	srawi. 26,26,2
.LBE6191:
.LBE6194:
.LBE6197:
.LBE6200:
.LBE6203:
.LBE6206:
	.loc 11 394 0
	stw 0,4(31)
.LVL596:
.LBB6207:
.LBB6204:
.LBB6201:
.LBB6198:
.LBB6195:
.LBB6192:
	.loc 12 560 0
	bne- 0,.L455
.L424:
.LVL597:
.LBE6192:
.LBE6195:
.LBE6198:
.LBE6201:
.LBE6204:
.LBE6207:
	.loc 11 397 0
	add 30,29,30
.LVL598:
.LBB6208:
.LBB6209:
.LBB6210:
	.loc 12 686 0
	cmpw 7,30,29
	beq- 7,.L419
.LVL599:
.L425:
	.loc 12 687 0
	stw 28,0(29)
	addi 29,29,4
	.loc 12 686 0
	cmpw 7,30,29
	bne+ 7,.L425
	b .L419
.LVL600:
.L455:
.LBE6210:
.LBE6209:
.LBE6208:
.LBB6211:
.LBB6205:
.LBB6202:
.LBB6199:
.LBB6196:
.LBB6193:
	.loc 12 561 0
	slwi 5,26,2
	mr 4,29
	subf 3,5,27
	bl memmove
	b .L424
.LVL601:
.L450:
.LBE6193:
.LBE6196:
.LBE6199:
.LBE6202:
.LBE6205:
.LBE6211:
.LBE6392:
.LBB6393:
.LBB6388:
.LBB6220:
	.loc 7 1242 0
	lis 3,.LC4@ha
	la 3,.LC4@l(3)
	bl _ZSt20__throw_length_errorPKc
.LVL602:
.LVL603:
.LVL604:
.LBE6220:
.LBE6388:
.LBE6393:
.LBE6397:
.LBE6402:
	.cfi_endproc
.LFE1986:
	.size	_ZNSt6vectorIP8GuiImageSaIS1_EE14_M_fill_insertEN9__gnu_cxx17__normal_iteratorIPS1_S3_EEjRKS1_, .-_ZNSt6vectorIP8GuiImageSaIS1_EE14_M_fill_insertEN9__gnu_cxx17__normal_iteratorIPS1_S3_EEjRKS1_
	.section	.text._ZNSt6vectorIP7GuiTextSaIS1_EE14_M_fill_insertEN9__gnu_cxx17__normal_iteratorIPS1_S3_EEjRKS1_,"axG",@progbits,_ZNSt6vectorIP7GuiTextSaIS1_EE14_M_fill_insertEN9__gnu_cxx17__normal_iteratorIPS1_S3_EEjRKS1_,comdat
	.align 2
	.weak	_ZNSt6vectorIP7GuiTextSaIS1_EE14_M_fill_insertEN9__gnu_cxx17__normal_iteratorIPS1_S3_EEjRKS1_
	.type	_ZNSt6vectorIP7GuiTextSaIS1_EE14_M_fill_insertEN9__gnu_cxx17__normal_iteratorIPS1_S3_EEjRKS1_, @function
_ZNSt6vectorIP7GuiTextSaIS1_EE14_M_fill_insertEN9__gnu_cxx17__normal_iteratorIPS1_S3_EEjRKS1_:
.LFB1987:
	.loc 11 377 0
	.cfi_startproc
.LVL605:
	stwu 1,-40(1)
.LCFI119:
	.cfi_def_cfa_offset 40
	mflr 0
	stw 30,32(1)
.LBB6513:
	.loc 11 380 0
	mr. 30,5
	.cfi_offset 30, -8
	.cfi_register 65, 0
.LBE6513:
	.loc 11 377 0
	stw 0,44(1)
	stw 29,28(1)
	stw 31,36(1)
	mr 31,3
	.cfi_offset 31, -4
	.cfi_offset 29, -12
	.cfi_offset 65, 4
	stw 26,16(1)
	stw 27,20(1)
	stw 28,24(1)
	.loc 11 377 0
	lwz 29,0(4)
.LBB6810:
	.loc 11 380 0
	beq- 0,.L456
	.cfi_offset 28, -16
	.cfi_offset 27, -20
	.cfi_offset 26, -24
.LBB6514:
	.loc 11 382 0
	lwz 27,4(3)
	lwz 0,8(3)
	subf 0,27,0
	srawi 0,0,2
	cmplw 7,30,0
	bgt- 7,.L458
.LBB6515:
.LBB6516:
.LBB6517:
	.loc 10 892 0
	subf 0,29,27
.LBE6517:
.LBE6516:
	.loc 11 385 0
	lwz 28,0(6)
.LVL606:
.LBB6519:
.LBB6518:
	.loc 10 892 0
	srawi 0,0,2
.LVL607:
.LBE6518:
.LBE6519:
	.loc 11 388 0
	cmplw 7,30,0
	blt- 7,.L486
.LVL608:
.LBB6520:
.LBB6521:
.LBB6522:
.LBB6523:
.LBB6524:
.LBB6525:
.LBB6526:
.LBB6527:
	.loc 12 743 0
	subf. 30,0,30
	.loc 11 382 0
	mr 9,27
	.loc 12 743 0
	beq- 0,.L463
.LBE6527:
.LBE6526:
.LBE6525:
.LBE6524:
.LBE6523:
.LBE6522:
.LBE6521:
.LBE6520:
.LBB6535:
.LBB6536:
.LBB6537:
.LBB6538:
.LBB6539:
.LBB6540:
.LBB6541:
.LBB6542:
.LBB6543:
.LBB6544:
.LBB6545:
	.loc 11 377 0
	mtctr 30
.LBE6545:
.LBE6544:
.LBE6543:
.LBE6542:
.LBE6541:
.LBE6540:
.LBE6539:
.LBE6538:
.LBE6537:
.LBE6536:
.LBE6535:
.LBB6556:
.LBB6534:
.LBB6533:
.LBB6532:
.LBB6531:
.LBB6530:
.LBB6529:
.LBB6528:
	addi 9,27,-4
.LVL609:
.L464:
	.loc 12 745 0
	stwu 28,4(9)
	.loc 12 743 0
	bdnz .L464
	lwz 9,4(31)
.L463:
.LBE6528:
.LBE6529:
.LBE6530:
.LBE6531:
.LBE6532:
.LBE6533:
.LBE6534:
.LBE6556:
.LBB6557:
.LBB6558:
.LBB6559:
.LBB6560:
.LBB6561:
.LBB6562:
.LBB6563:
.LBB6564:
.LBB6565:
.LBB6566:
.LBB6567:
	.loc 12 365 0
	cmpwi 7,0,0
.LBE6567:
.LBE6566:
.LBE6565:
.LBE6564:
.LBE6563:
.LBE6562:
.LBE6561:
.LBE6560:
.LBE6559:
.LBE6558:
.LBE6557:
	.loc 11 406 0
	slwi 30,30,2
	add 3,9,30
.LVL610:
	stw 3,4(31)
.LVL611:
.LBB6588:
.LBB6586:
.LBB6584:
.LBB6582:
.LBB6580:
.LBB6578:
.LBB6576:
.LBB6574:
.LBB6572:
.LBB6570:
.LBB6568:
	.loc 12 365 0
	bne- 7,.L465
	li 30,0
.LVL612:
.L466:
.LBE6568:
.LBE6570:
.LBE6572:
.LBE6574:
.LBE6576:
.LBE6578:
.LBE6580:
.LBE6582:
.LBE6584:
.LBE6586:
.LBE6588:
.LBB6589:
.LBB6590:
.LBB6591:
	.loc 12 686 0
	cmpw 7,27,29
.LBE6591:
.LBE6590:
.LBE6589:
	.loc 11 410 0
	add 3,3,30
	stw 3,4(31)
.LVL613:
.LBB6594:
.LBB6593:
.LBB6592:
	.loc 12 686 0
	beq- 7,.L456
.LVL614:
.L467:
	.loc 12 687 0
	stw 28,0(29)
	addi 29,29,4
	.loc 12 686 0
	cmpw 7,27,29
	bne+ 7,.L467
.LVL615:
.L456:
.LBE6592:
.LBE6593:
.LBE6594:
.LBE6515:
.LBE6514:
.LBE6810:
	.loc 11 464 0
	lwz 0,44(1)
	lwz 26,16(1)
	mtlr 0
	lwz 27,20(1)
	lwz 28,24(1)
	lwz 29,28(1)
	lwz 30,32(1)
	lwz 31,36(1)
.LVL616:
	addi 1,1,40
	.cfi_remember_state
.LCFI120:
	.cfi_def_cfa_offset 0
	.cfi_restore 31
	.cfi_restore 30
	.cfi_restore 29
	.cfi_restore 28
	.cfi_restore 27
	.cfi_restore 26
	blr
.LVL617:
.L458:
.LCFI121:
	.cfi_restore_state
.LBB6811:
.LBB6806:
.LBB6624:
.LBB6625:
.LBB6626:
.LBB6627:
.LBB6628:
	.loc 7 571 0
	lwz 9,0(3)
.LBE6628:
.LBE6627:
	.loc 7 1241 0
	lis 11,0x3fff
	ori 11,11,65535
.LBB6630:
.LBB6629:
	.loc 7 571 0
	subf 27,9,27
	srawi 0,27,2
.LBE6629:
.LBE6630:
	.loc 7 1241 0
	subf 11,0,11
	cmplw 7,30,11
	bgt- 7,.L487
.LVL618:
	.loc 7 1244 0
	cmplw 7,0,30
	mr 11,0
	blt- 7,.L488
	add 11,11,0
.LVL619:
	.loc 7 1245 0
	cmplw 7,0,11
	ble- 7,.L489
.L470:
.LVL620:
.LBE6626:
.LBE6625:
.LBB6633:
.LBB6634:
	.loc 10 892 0
	subf 27,9,29
.LBE6634:
.LBE6633:
	.loc 11 418 0
	li 26,-4
.LBB6637:
.LBB6635:
	.loc 10 892 0
	srawi 27,27,2
.LVL621:
.L476:
.LBE6635:
.LBE6637:
.LBB6638:
.LBB6639:
.LBB6640:
.LBB6641:
	.loc 8 92 0
	mr 3,26
.LVL622:
	stw 6,8(1)
	bl _Znwj
.LVL623:
	lwz 6,8(1)
	mr 28,3
.L471:
.LVL624:
.LBE6641:
.LBE6640:
.LBE6639:
.LBE6638:
	.loc 11 424 0
	slwi 27,27,2
.LVL625:
.LBB6650:
.LBB6646:
.LBB6644:
.LBB6642:
	.loc 3 326 0
	lwz 0,0(6)
.LVL626:
.LBE6642:
.LBE6644:
.LBE6646:
.LBE6650:
	.loc 11 424 0
	add 27,28,27
.LBB6651:
.LBB6647:
	.loc 11 377 0
	mtctr 30
.LBB6645:
.LBB6643:
	addi 27,27,-4
.LVL627:
.L472:
.LBE6643:
.LBE6645:
.LBE6647:
.LBE6651:
.LBB6652:
.LBB6653:
.LBB6654:
.LBB6655:
.LBB6656:
.LBB6657:
.LBB6658:
.LBB6659:
	.loc 12 745 0
	stwu 0,4(27)
	.loc 12 743 0
	bdnz .L472
.LVL628:
.LBE6659:
.LBE6658:
.LBE6657:
.LBE6656:
.LBE6655:
.LBE6654:
.LBE6653:
.LBE6652:
	.loc 11 429 0
	lwz 4,0(31)
.LVL629:
.LBB6660:
.LBB6661:
.LBB6662:
.LBB6663:
.LBB6664:
.LBB6665:
.LBB6666:
.LBB6667:
.LBB6668:
.LBB6669:
.LBB6670:
	.loc 12 365 0
	li 27,0
	.loc 12 364 0
	subf 0,4,29
.LVL630:
	.loc 12 365 0
	srawi. 0,0,2
.LVL631:
	bne- 0,.L490
.LBE6670:
.LBE6669:
.LBE6668:
.LBE6667:
.LBE6666:
.LBE6665:
.LBE6664:
.LBE6663:
.LBE6662:
.LBE6661:
.LBE6660:
.LBB6711:
.LBB6712:
.LBB6713:
.LBB6714:
.LBB6715:
.LBB6716:
.LBB6717:
.LBB6718:
.LBB6719:
.LBB6720:
.LBB6721:
	.loc 12 364 0
	lwz 0,4(31)
.LVL632:
.LBE6721:
.LBE6720:
.LBE6719:
.LBE6718:
.LBE6717:
.LBE6716:
.LBE6715:
.LBE6714:
.LBE6713:
.LBE6712:
.LBE6711:
.LBB6782:
.LBB6707:
.LBB6703:
.LBB6699:
.LBB6695:
.LBB6691:
.LBB6687:
.LBB6683:
.LBB6679:
.LBB6675:
.LBB6671:
	.loc 12 367 0
	add 27,28,27
.LVL633:
.LBE6671:
.LBE6675:
.LBE6679:
.LBE6683:
.LBE6687:
.LBE6691:
.LBE6695:
.LBE6699:
.LBE6703:
.LBE6707:
.LBE6782:
	.loc 11 434 0
	slwi 30,30,2
.LVL634:
.LBB6783:
.LBB6776:
.LBB6770:
.LBB6764:
.LBB6758:
.LBB6752:
.LBB6746:
.LBB6740:
.LBB6734:
.LBB6728:
.LBB6722:
	.loc 12 364 0
	subf 0,29,0
.LBE6722:
.LBE6728:
.LBE6734:
.LBE6740:
.LBE6746:
.LBE6752:
.LBE6758:
.LBE6764:
.LBE6770:
.LBE6776:
.LBE6783:
	.loc 11 434 0
	add 30,27,30
.LVL635:
.LBB6784:
.LBB6777:
.LBB6771:
.LBB6765:
.LBB6759:
.LBB6753:
.LBB6747:
.LBB6741:
.LBB6735:
.LBB6729:
.LBB6723:
	.loc 12 365 0
	srawi. 0,0,2
.LVL636:
	li 27,0
	bne- 0,.L491
.LVL637:
.L474:
.LBE6723:
.LBE6729:
.LBE6735:
.LBE6741:
.LBE6747:
.LBE6753:
.LBE6759:
.LBE6765:
.LBE6771:
.LBE6777:
.LBE6784:
	.loc 11 456 0
	lwz 3,0(31)
.LBB6785:
.LBB6778:
.LBB6772:
.LBB6766:
.LBB6760:
.LBB6754:
.LBB6748:
.LBB6742:
.LBB6736:
.LBB6730:
.LBB6724:
	.loc 12 367 0
	add 27,30,27
.LVL638:
.LBE6724:
.LBE6730:
.LBE6736:
.LBE6742:
.LBE6748:
.LBE6754:
.LBE6760:
.LBE6766:
.LBE6772:
.LBE6778:
.LBE6785:
.LBB6786:
.LBB6787:
	.loc 7 155 0
	cmpwi 7,3,0
	beq- 7,.L475
.LVL639:
.LBB6788:
.LBB6789:
	.loc 8 98 0
	bl _ZdlPv
.LVL640:
.L475:
.LBE6789:
.LBE6788:
.LBE6787:
.LBE6786:
.LBE6624:
.LBE6806:
.LBE6811:
	.loc 11 464 0
	lwz 0,44(1)
.LBB6812:
.LBB6807:
.LBB6801:
	.loc 11 461 0
	add 26,28,26
	.loc 11 459 0
	stw 28,0(31)
.LBE6801:
.LBE6807:
.LBE6812:
	.loc 11 464 0
	mtlr 0
.LBB6813:
.LBB6808:
.LBB6802:
	.loc 11 460 0
	stw 27,4(31)
	.loc 11 461 0
	stw 26,8(31)
.LBE6802:
.LBE6808:
.LBE6813:
	.loc 11 464 0
	lwz 27,20(1)
	lwz 26,16(1)
	lwz 28,24(1)
.LVL641:
	lwz 29,28(1)
.LVL642:
	lwz 30,32(1)
.LVL643:
	lwz 31,36(1)
.LVL644:
	addi 1,1,40
	.cfi_remember_state
	.cfi_restore 26
	.cfi_restore 27
	.cfi_restore 28
	.cfi_restore 29
	.cfi_restore 30
	.cfi_restore 31
.LCFI122:
	.cfi_def_cfa_offset 0
	blr
.LVL645:
.L488:
.LCFI123:
	.cfi_restore_state
.LBB6814:
.LBB6809:
.LBB6803:
.LBB6790:
.LBB6631:
	.loc 7 1244 0
	mr 11,30
	add 11,11,0
.LVL646:
	.loc 7 1245 0
	cmplw 7,0,11
	bgt- 7,.L470
.L489:
.LVL647:
	lis 0,0x3fff
	ori 0,0,65535
	cmplw 7,11,0
	bgt- 7,.L470
.LVL648:
.LBE6631:
.LBE6790:
.LBB6791:
.LBB6648:
	.loc 7 150 0
	cmpwi 7,11,0
.LBE6648:
.LBE6791:
.LBB6792:
.LBB6636:
	.loc 10 892 0
	subf 9,9,29
	srawi 27,9,2
.LVL649:
.LBE6636:
.LBE6792:
.LBB6793:
.LBB6649:
	.loc 7 150 0
	li 26,0
	li 28,0
	beq+ 7,.L471
	slwi 26,11,2
	b .L476
.LVL650:
.L490:
.LBE6649:
.LBE6793:
.LBB6794:
.LBB6708:
.LBB6704:
.LBB6700:
.LBB6696:
.LBB6692:
.LBB6688:
.LBB6684:
.LBB6680:
.LBB6676:
.LBB6672:
	.loc 12 366 0
	slwi 27,0,2
	mr 3,28
	mr 5,27
.LBE6672:
.LBE6676:
.LBE6680:
.LBE6684:
.LBE6688:
.LBE6692:
.LBE6696:
.LBE6700:
.LBE6704:
.LBE6708:
.LBE6794:
	.loc 11 434 0
	slwi 30,30,2
.LVL651:
.LBB6795:
.LBB6709:
.LBB6705:
.LBB6701:
.LBB6697:
.LBB6693:
.LBB6689:
.LBB6685:
.LBB6681:
.LBB6677:
.LBB6673:
	.loc 12 366 0
	bl memmove
.LVL652:
.LBE6673:
.LBE6677:
.LBE6681:
.LBE6685:
.LBE6689:
.LBE6693:
.LBE6697:
.LBE6701:
.LBE6705:
.LBE6709:
.LBE6795:
.LBB6796:
.LBB6779:
.LBB6773:
.LBB6767:
.LBB6761:
.LBB6755:
.LBB6749:
.LBB6743:
.LBB6737:
.LBB6731:
.LBB6725:
	.loc 12 364 0
	lwz 0,4(31)
.LBE6725:
.LBE6731:
.LBE6737:
.LBE6743:
.LBE6749:
.LBE6755:
.LBE6761:
.LBE6767:
.LBE6773:
.LBE6779:
.LBE6796:
.LBB6797:
.LBB6710:
.LBB6706:
.LBB6702:
.LBB6698:
.LBB6694:
.LBB6690:
.LBB6686:
.LBB6682:
.LBB6678:
.LBB6674:
	.loc 12 367 0
	add 27,28,27
.LVL653:
.LBE6674:
.LBE6678:
.LBE6682:
.LBE6686:
.LBE6690:
.LBE6694:
.LBE6698:
.LBE6702:
.LBE6706:
.LBE6710:
.LBE6797:
.LBB6798:
.LBB6780:
.LBB6774:
.LBB6768:
.LBB6762:
.LBB6756:
.LBB6750:
.LBB6744:
.LBB6738:
.LBB6732:
.LBB6726:
	.loc 12 364 0
	subf 0,29,0
.LBE6726:
.LBE6732:
.LBE6738:
.LBE6744:
.LBE6750:
.LBE6756:
.LBE6762:
.LBE6768:
.LBE6774:
.LBE6780:
.LBE6798:
	.loc 11 434 0
	add 30,27,30
.LVL654:
.LBB6799:
.LBB6781:
.LBB6775:
.LBB6769:
.LBB6763:
.LBB6757:
.LBB6751:
.LBB6745:
.LBB6739:
.LBB6733:
.LBB6727:
	.loc 12 365 0
	srawi. 0,0,2
.LVL655:
	li 27,0
	beq+ 0,.L474
.LVL656:
.L491:
	.loc 12 366 0
	slwi 27,0,2
	mr 3,30
	mr 4,29
	mr 5,27
	bl memmove
	b .L474
.LVL657:
.L465:
.LBE6727:
.LBE6733:
.LBE6739:
.LBE6745:
.LBE6751:
.LBE6757:
.LBE6763:
.LBE6769:
.LBE6775:
.LBE6781:
.LBE6799:
.LBE6803:
.LBB6804:
.LBB6595:
.LBB6587:
.LBB6585:
.LBB6583:
.LBB6581:
.LBB6579:
.LBB6577:
.LBB6575:
.LBB6573:
.LBB6571:
.LBB6569:
	slwi 30,0,2
	mr 4,29
	mr 5,30
.LVL658:
	bl memmove
.LVL659:
	lwz 3,4(31)
	b .L466
.LVL660:
.L486:
.LBE6569:
.LBE6571:
.LBE6573:
.LBE6575:
.LBE6577:
.LBE6579:
.LBE6581:
.LBE6583:
.LBE6585:
.LBE6587:
.LBE6595:
	.loc 11 390 0
	slwi 30,30,2
.LVL661:
.LBB6596:
.LBB6555:
.LBB6554:
.LBB6553:
.LBB6552:
.LBB6551:
.LBB6550:
.LBB6549:
.LBB6548:
.LBB6547:
.LBB6546:
	.loc 11 382 0
	mr 0,27
.LVL662:
	.loc 12 365 0
	srawi. 5,30,2
.LVL663:
	.loc 12 364 0
	subf 26,30,27
	.loc 12 365 0
	beq+ 0,.L460
	.loc 12 366 0
	mr 3,27
	mr 4,26
	slwi 5,5,2
	bl memmove
.LVL664:
	lwz 0,4(31)
.L460:
.LBE6546:
.LBE6547:
.LBE6548:
.LBE6549:
.LBE6550:
.LBE6551:
.LBE6552:
.LBE6553:
.LBE6554:
.LBE6555:
.LBE6596:
.LBB6597:
.LBB6598:
.LBB6599:
.LBB6600:
.LBB6601:
.LBB6602:
	.loc 12 559 0
	subf 26,29,26
.LBE6602:
.LBE6601:
.LBE6600:
.LBE6599:
.LBE6598:
.LBE6597:
	.loc 11 394 0
	add 0,0,30
.LBB6618:
.LBB6615:
.LBB6612:
.LBB6609:
.LBB6606:
.LBB6603:
	.loc 12 560 0
	srawi. 26,26,2
.LBE6603:
.LBE6606:
.LBE6609:
.LBE6612:
.LBE6615:
.LBE6618:
	.loc 11 394 0
	stw 0,4(31)
.LVL665:
.LBB6619:
.LBB6616:
.LBB6613:
.LBB6610:
.LBB6607:
.LBB6604:
	.loc 12 560 0
	bne- 0,.L492
.L461:
.LVL666:
.LBE6604:
.LBE6607:
.LBE6610:
.LBE6613:
.LBE6616:
.LBE6619:
	.loc 11 397 0
	add 30,29,30
.LVL667:
.LBB6620:
.LBB6621:
.LBB6622:
	.loc 12 686 0
	cmpw 7,30,29
	beq- 7,.L456
.LVL668:
.L462:
	.loc 12 687 0
	stw 28,0(29)
	addi 29,29,4
	.loc 12 686 0
	cmpw 7,30,29
	bne+ 7,.L462
	b .L456
.LVL669:
.L492:
.LBE6622:
.LBE6621:
.LBE6620:
.LBB6623:
.LBB6617:
.LBB6614:
.LBB6611:
.LBB6608:
.LBB6605:
	.loc 12 561 0
	slwi 5,26,2
	mr 4,29
	subf 3,5,27
	bl memmove
	b .L461
.LVL670:
.L487:
.LBE6605:
.LBE6608:
.LBE6611:
.LBE6614:
.LBE6617:
.LBE6623:
.LBE6804:
.LBB6805:
.LBB6800:
.LBB6632:
	.loc 7 1242 0
	lis 3,.LC4@ha
	la 3,.LC4@l(3)
	bl _ZSt20__throw_length_errorPKc
.LVL671:
.LVL672:
.LVL673:
.LBE6632:
.LBE6800:
.LBE6805:
.LBE6809:
.LBE6814:
	.cfi_endproc
.LFE1987:
	.size	_ZNSt6vectorIP7GuiTextSaIS1_EE14_M_fill_insertEN9__gnu_cxx17__normal_iteratorIPS1_S3_EEjRKS1_, .-_ZNSt6vectorIP7GuiTextSaIS1_EE14_M_fill_insertEN9__gnu_cxx17__normal_iteratorIPS1_S3_EEjRKS1_
	.section	.text._ZNSt6vectorIP9GuiButtonSaIS1_EE14_M_fill_insertEN9__gnu_cxx17__normal_iteratorIPS1_S3_EEjRKS1_,"axG",@progbits,_ZNSt6vectorIP9GuiButtonSaIS1_EE14_M_fill_insertEN9__gnu_cxx17__normal_iteratorIPS1_S3_EEjRKS1_,comdat
	.align 2
	.weak	_ZNSt6vectorIP9GuiButtonSaIS1_EE14_M_fill_insertEN9__gnu_cxx17__normal_iteratorIPS1_S3_EEjRKS1_
	.type	_ZNSt6vectorIP9GuiButtonSaIS1_EE14_M_fill_insertEN9__gnu_cxx17__normal_iteratorIPS1_S3_EEjRKS1_, @function
_ZNSt6vectorIP9GuiButtonSaIS1_EE14_M_fill_insertEN9__gnu_cxx17__normal_iteratorIPS1_S3_EEjRKS1_:
.LFB1988:
	.loc 11 377 0
	.cfi_startproc
.LVL674:
	stwu 1,-40(1)
.LCFI124:
	.cfi_def_cfa_offset 40
	mflr 0
	stw 30,32(1)
.LBB6925:
	.loc 11 380 0
	mr. 30,5
	.cfi_offset 30, -8
	.cfi_register 65, 0
.LBE6925:
	.loc 11 377 0
	stw 0,44(1)
	stw 29,28(1)
	stw 31,36(1)
	mr 31,3
	.cfi_offset 31, -4
	.cfi_offset 29, -12
	.cfi_offset 65, 4
	stw 26,16(1)
	stw 27,20(1)
	stw 28,24(1)
	.loc 11 377 0
	lwz 29,0(4)
.LBB7222:
	.loc 11 380 0
	beq- 0,.L493
	.cfi_offset 28, -16
	.cfi_offset 27, -20
	.cfi_offset 26, -24
.LBB6926:
	.loc 11 382 0
	lwz 27,4(3)
	lwz 0,8(3)
	subf 0,27,0
	srawi 0,0,2
	cmplw 7,30,0
	bgt- 7,.L495
.LBB6927:
.LBB6928:
.LBB6929:
	.loc 10 892 0
	subf 0,29,27
.LBE6929:
.LBE6928:
	.loc 11 385 0
	lwz 28,0(6)
.LVL675:
.LBB6931:
.LBB6930:
	.loc 10 892 0
	srawi 0,0,2
.LVL676:
.LBE6930:
.LBE6931:
	.loc 11 388 0
	cmplw 7,30,0
	blt- 7,.L523
.LVL677:
.LBB6932:
.LBB6933:
.LBB6934:
.LBB6935:
.LBB6936:
.LBB6937:
.LBB6938:
.LBB6939:
	.loc 12 743 0
	subf. 30,0,30
	.loc 11 382 0
	mr 9,27
	.loc 12 743 0
	beq- 0,.L500
.LBE6939:
.LBE6938:
.LBE6937:
.LBE6936:
.LBE6935:
.LBE6934:
.LBE6933:
.LBE6932:
.LBB6947:
.LBB6948:
.LBB6949:
.LBB6950:
.LBB6951:
.LBB6952:
.LBB6953:
.LBB6954:
.LBB6955:
.LBB6956:
.LBB6957:
	.loc 11 377 0
	mtctr 30
.LBE6957:
.LBE6956:
.LBE6955:
.LBE6954:
.LBE6953:
.LBE6952:
.LBE6951:
.LBE6950:
.LBE6949:
.LBE6948:
.LBE6947:
.LBB6968:
.LBB6946:
.LBB6945:
.LBB6944:
.LBB6943:
.LBB6942:
.LBB6941:
.LBB6940:
	addi 9,27,-4
.LVL678:
.L501:
	.loc 12 745 0
	stwu 28,4(9)
	.loc 12 743 0
	bdnz .L501
	lwz 9,4(31)
.L500:
.LBE6940:
.LBE6941:
.LBE6942:
.LBE6943:
.LBE6944:
.LBE6945:
.LBE6946:
.LBE6968:
.LBB6969:
.LBB6970:
.LBB6971:
.LBB6972:
.LBB6973:
.LBB6974:
.LBB6975:
.LBB6976:
.LBB6977:
.LBB6978:
.LBB6979:
	.loc 12 365 0
	cmpwi 7,0,0
.LBE6979:
.LBE6978:
.LBE6977:
.LBE6976:
.LBE6975:
.LBE6974:
.LBE6973:
.LBE6972:
.LBE6971:
.LBE6970:
.LBE6969:
	.loc 11 406 0
	slwi 30,30,2
	add 3,9,30
.LVL679:
	stw 3,4(31)
.LVL680:
.LBB7000:
.LBB6998:
.LBB6996:
.LBB6994:
.LBB6992:
.LBB6990:
.LBB6988:
.LBB6986:
.LBB6984:
.LBB6982:
.LBB6980:
	.loc 12 365 0
	bne- 7,.L502
	li 30,0
.LVL681:
.L503:
.LBE6980:
.LBE6982:
.LBE6984:
.LBE6986:
.LBE6988:
.LBE6990:
.LBE6992:
.LBE6994:
.LBE6996:
.LBE6998:
.LBE7000:
.LBB7001:
.LBB7002:
.LBB7003:
	.loc 12 686 0
	cmpw 7,27,29
.LBE7003:
.LBE7002:
.LBE7001:
	.loc 11 410 0
	add 3,3,30
	stw 3,4(31)
.LVL682:
.LBB7006:
.LBB7005:
.LBB7004:
	.loc 12 686 0
	beq- 7,.L493
.LVL683:
.L504:
	.loc 12 687 0
	stw 28,0(29)
	addi 29,29,4
	.loc 12 686 0
	cmpw 7,27,29
	bne+ 7,.L504
.LVL684:
.L493:
.LBE7004:
.LBE7005:
.LBE7006:
.LBE6927:
.LBE6926:
.LBE7222:
	.loc 11 464 0
	lwz 0,44(1)
	lwz 26,16(1)
	mtlr 0
	lwz 27,20(1)
	lwz 28,24(1)
	lwz 29,28(1)
	lwz 30,32(1)
	lwz 31,36(1)
.LVL685:
	addi 1,1,40
	.cfi_remember_state
.LCFI125:
	.cfi_def_cfa_offset 0
	.cfi_restore 31
	.cfi_restore 30
	.cfi_restore 29
	.cfi_restore 28
	.cfi_restore 27
	.cfi_restore 26
	blr
.LVL686:
.L495:
.LCFI126:
	.cfi_restore_state
.LBB7223:
.LBB7218:
.LBB7036:
.LBB7037:
.LBB7038:
.LBB7039:
.LBB7040:
	.loc 7 571 0
	lwz 9,0(3)
.LBE7040:
.LBE7039:
	.loc 7 1241 0
	lis 11,0x3fff
	ori 11,11,65535
.LBB7042:
.LBB7041:
	.loc 7 571 0
	subf 27,9,27
	srawi 0,27,2
.LBE7041:
.LBE7042:
	.loc 7 1241 0
	subf 11,0,11
	cmplw 7,30,11
	bgt- 7,.L524
.LVL687:
	.loc 7 1244 0
	cmplw 7,0,30
	mr 11,0
	blt- 7,.L525
	add 11,11,0
.LVL688:
	.loc 7 1245 0
	cmplw 7,0,11
	ble- 7,.L526
.L507:
.LVL689:
.LBE7038:
.LBE7037:
.LBB7045:
.LBB7046:
	.loc 10 892 0
	subf 27,9,29
.LBE7046:
.LBE7045:
	.loc 11 418 0
	li 26,-4
.LBB7049:
.LBB7047:
	.loc 10 892 0
	srawi 27,27,2
.LVL690:
.L513:
.LBE7047:
.LBE7049:
.LBB7050:
.LBB7051:
.LBB7052:
.LBB7053:
	.loc 8 92 0
	mr 3,26
.LVL691:
	stw 6,8(1)
	bl _Znwj
.LVL692:
	lwz 6,8(1)
	mr 28,3
.L508:
.LVL693:
.LBE7053:
.LBE7052:
.LBE7051:
.LBE7050:
	.loc 11 424 0
	slwi 27,27,2
.LVL694:
.LBB7062:
.LBB7058:
.LBB7056:
.LBB7054:
	.loc 3 326 0
	lwz 0,0(6)
.LVL695:
.LBE7054:
.LBE7056:
.LBE7058:
.LBE7062:
	.loc 11 424 0
	add 27,28,27
.LBB7063:
.LBB7059:
	.loc 11 377 0
	mtctr 30
.LBB7057:
.LBB7055:
	addi 27,27,-4
.LVL696:
.L509:
.LBE7055:
.LBE7057:
.LBE7059:
.LBE7063:
.LBB7064:
.LBB7065:
.LBB7066:
.LBB7067:
.LBB7068:
.LBB7069:
.LBB7070:
.LBB7071:
	.loc 12 745 0
	stwu 0,4(27)
	.loc 12 743 0
	bdnz .L509
.LVL697:
.LBE7071:
.LBE7070:
.LBE7069:
.LBE7068:
.LBE7067:
.LBE7066:
.LBE7065:
.LBE7064:
	.loc 11 429 0
	lwz 4,0(31)
.LVL698:
.LBB7072:
.LBB7073:
.LBB7074:
.LBB7075:
.LBB7076:
.LBB7077:
.LBB7078:
.LBB7079:
.LBB7080:
.LBB7081:
.LBB7082:
	.loc 12 365 0
	li 27,0
	.loc 12 364 0
	subf 0,4,29
.LVL699:
	.loc 12 365 0
	srawi. 0,0,2
.LVL700:
	bne- 0,.L527
.LBE7082:
.LBE7081:
.LBE7080:
.LBE7079:
.LBE7078:
.LBE7077:
.LBE7076:
.LBE7075:
.LBE7074:
.LBE7073:
.LBE7072:
.LBB7123:
.LBB7124:
.LBB7125:
.LBB7126:
.LBB7127:
.LBB7128:
.LBB7129:
.LBB7130:
.LBB7131:
.LBB7132:
.LBB7133:
	.loc 12 364 0
	lwz 0,4(31)
.LVL701:
.LBE7133:
.LBE7132:
.LBE7131:
.LBE7130:
.LBE7129:
.LBE7128:
.LBE7127:
.LBE7126:
.LBE7125:
.LBE7124:
.LBE7123:
.LBB7194:
.LBB7119:
.LBB7115:
.LBB7111:
.LBB7107:
.LBB7103:
.LBB7099:
.LBB7095:
.LBB7091:
.LBB7087:
.LBB7083:
	.loc 12 367 0
	add 27,28,27
.LVL702:
.LBE7083:
.LBE7087:
.LBE7091:
.LBE7095:
.LBE7099:
.LBE7103:
.LBE7107:
.LBE7111:
.LBE7115:
.LBE7119:
.LBE7194:
	.loc 11 434 0
	slwi 30,30,2
.LVL703:
.LBB7195:
.LBB7188:
.LBB7182:
.LBB7176:
.LBB7170:
.LBB7164:
.LBB7158:
.LBB7152:
.LBB7146:
.LBB7140:
.LBB7134:
	.loc 12 364 0
	subf 0,29,0
.LBE7134:
.LBE7140:
.LBE7146:
.LBE7152:
.LBE7158:
.LBE7164:
.LBE7170:
.LBE7176:
.LBE7182:
.LBE7188:
.LBE7195:
	.loc 11 434 0
	add 30,27,30
.LVL704:
.LBB7196:
.LBB7189:
.LBB7183:
.LBB7177:
.LBB7171:
.LBB7165:
.LBB7159:
.LBB7153:
.LBB7147:
.LBB7141:
.LBB7135:
	.loc 12 365 0
	srawi. 0,0,2
.LVL705:
	li 27,0
	bne- 0,.L528
.LVL706:
.L511:
.LBE7135:
.LBE7141:
.LBE7147:
.LBE7153:
.LBE7159:
.LBE7165:
.LBE7171:
.LBE7177:
.LBE7183:
.LBE7189:
.LBE7196:
	.loc 11 456 0
	lwz 3,0(31)
.LBB7197:
.LBB7190:
.LBB7184:
.LBB7178:
.LBB7172:
.LBB7166:
.LBB7160:
.LBB7154:
.LBB7148:
.LBB7142:
.LBB7136:
	.loc 12 367 0
	add 27,30,27
.LVL707:
.LBE7136:
.LBE7142:
.LBE7148:
.LBE7154:
.LBE7160:
.LBE7166:
.LBE7172:
.LBE7178:
.LBE7184:
.LBE7190:
.LBE7197:
.LBB7198:
.LBB7199:
	.loc 7 155 0
	cmpwi 7,3,0
	beq- 7,.L512
.LVL708:
.LBB7200:
.LBB7201:
	.loc 8 98 0
	bl _ZdlPv
.LVL709:
.L512:
.LBE7201:
.LBE7200:
.LBE7199:
.LBE7198:
.LBE7036:
.LBE7218:
.LBE7223:
	.loc 11 464 0
	lwz 0,44(1)
.LBB7224:
.LBB7219:
.LBB7213:
	.loc 11 461 0
	add 26,28,26
	.loc 11 459 0
	stw 28,0(31)
.LBE7213:
.LBE7219:
.LBE7224:
	.loc 11 464 0
	mtlr 0
.LBB7225:
.LBB7220:
.LBB7214:
	.loc 11 460 0
	stw 27,4(31)
	.loc 11 461 0
	stw 26,8(31)
.LBE7214:
.LBE7220:
.LBE7225:
	.loc 11 464 0
	lwz 27,20(1)
	lwz 26,16(1)
	lwz 28,24(1)
.LVL710:
	lwz 29,28(1)
.LVL711:
	lwz 30,32(1)
.LVL712:
	lwz 31,36(1)
.LVL713:
	addi 1,1,40
	.cfi_remember_state
	.cfi_restore 26
	.cfi_restore 27
	.cfi_restore 28
	.cfi_restore 29
	.cfi_restore 30
	.cfi_restore 31
.LCFI127:
	.cfi_def_cfa_offset 0
	blr
.LVL714:
.L525:
.LCFI128:
	.cfi_restore_state
.LBB7226:
.LBB7221:
.LBB7215:
.LBB7202:
.LBB7043:
	.loc 7 1244 0
	mr 11,30
	add 11,11,0
.LVL715:
	.loc 7 1245 0
	cmplw 7,0,11
	bgt- 7,.L507
.L526:
.LVL716:
	lis 0,0x3fff
	ori 0,0,65535
	cmplw 7,11,0
	bgt- 7,.L507
.LVL717:
.LBE7043:
.LBE7202:
.LBB7203:
.LBB7060:
	.loc 7 150 0
	cmpwi 7,11,0
.LBE7060:
.LBE7203:
.LBB7204:
.LBB7048:
	.loc 10 892 0
	subf 9,9,29
	srawi 27,9,2
.LVL718:
.LBE7048:
.LBE7204:
.LBB7205:
.LBB7061:
	.loc 7 150 0
	li 26,0
	li 28,0
	beq+ 7,.L508
	slwi 26,11,2
	b .L513
.LVL719:
.L527:
.LBE7061:
.LBE7205:
.LBB7206:
.LBB7120:
.LBB7116:
.LBB7112:
.LBB7108:
.LBB7104:
.LBB7100:
.LBB7096:
.LBB7092:
.LBB7088:
.LBB7084:
	.loc 12 366 0
	slwi 27,0,2
	mr 3,28
	mr 5,27
.LBE7084:
.LBE7088:
.LBE7092:
.LBE7096:
.LBE7100:
.LBE7104:
.LBE7108:
.LBE7112:
.LBE7116:
.LBE7120:
.LBE7206:
	.loc 11 434 0
	slwi 30,30,2
.LVL720:
.LBB7207:
.LBB7121:
.LBB7117:
.LBB7113:
.LBB7109:
.LBB7105:
.LBB7101:
.LBB7097:
.LBB7093:
.LBB7089:
.LBB7085:
	.loc 12 366 0
	bl memmove
.LVL721:
.LBE7085:
.LBE7089:
.LBE7093:
.LBE7097:
.LBE7101:
.LBE7105:
.LBE7109:
.LBE7113:
.LBE7117:
.LBE7121:
.LBE7207:
.LBB7208:
.LBB7191:
.LBB7185:
.LBB7179:
.LBB7173:
.LBB7167:
.LBB7161:
.LBB7155:
.LBB7149:
.LBB7143:
.LBB7137:
	.loc 12 364 0
	lwz 0,4(31)
.LBE7137:
.LBE7143:
.LBE7149:
.LBE7155:
.LBE7161:
.LBE7167:
.LBE7173:
.LBE7179:
.LBE7185:
.LBE7191:
.LBE7208:
.LBB7209:
.LBB7122:
.LBB7118:
.LBB7114:
.LBB7110:
.LBB7106:
.LBB7102:
.LBB7098:
.LBB7094:
.LBB7090:
.LBB7086:
	.loc 12 367 0
	add 27,28,27
.LVL722:
.LBE7086:
.LBE7090:
.LBE7094:
.LBE7098:
.LBE7102:
.LBE7106:
.LBE7110:
.LBE7114:
.LBE7118:
.LBE7122:
.LBE7209:
.LBB7210:
.LBB7192:
.LBB7186:
.LBB7180:
.LBB7174:
.LBB7168:
.LBB7162:
.LBB7156:
.LBB7150:
.LBB7144:
.LBB7138:
	.loc 12 364 0
	subf 0,29,0
.LBE7138:
.LBE7144:
.LBE7150:
.LBE7156:
.LBE7162:
.LBE7168:
.LBE7174:
.LBE7180:
.LBE7186:
.LBE7192:
.LBE7210:
	.loc 11 434 0
	add 30,27,30
.LVL723:
.LBB7211:
.LBB7193:
.LBB7187:
.LBB7181:
.LBB7175:
.LBB7169:
.LBB7163:
.LBB7157:
.LBB7151:
.LBB7145:
.LBB7139:
	.loc 12 365 0
	srawi. 0,0,2
.LVL724:
	li 27,0
	beq+ 0,.L511
.LVL725:
.L528:
	.loc 12 366 0
	slwi 27,0,2
	mr 3,30
	mr 4,29
	mr 5,27
	bl memmove
	b .L511
.LVL726:
.L502:
.LBE7139:
.LBE7145:
.LBE7151:
.LBE7157:
.LBE7163:
.LBE7169:
.LBE7175:
.LBE7181:
.LBE7187:
.LBE7193:
.LBE7211:
.LBE7215:
.LBB7216:
.LBB7007:
.LBB6999:
.LBB6997:
.LBB6995:
.LBB6993:
.LBB6991:
.LBB6989:
.LBB6987:
.LBB6985:
.LBB6983:
.LBB6981:
	slwi 30,0,2
	mr 4,29
	mr 5,30
.LVL727:
	bl memmove
.LVL728:
	lwz 3,4(31)
	b .L503
.LVL729:
.L523:
.LBE6981:
.LBE6983:
.LBE6985:
.LBE6987:
.LBE6989:
.LBE6991:
.LBE6993:
.LBE6995:
.LBE6997:
.LBE6999:
.LBE7007:
	.loc 11 390 0
	slwi 30,30,2
.LVL730:
.LBB7008:
.LBB6967:
.LBB6966:
.LBB6965:
.LBB6964:
.LBB6963:
.LBB6962:
.LBB6961:
.LBB6960:
.LBB6959:
.LBB6958:
	.loc 11 382 0
	mr 0,27
.LVL731:
	.loc 12 365 0
	srawi. 5,30,2
.LVL732:
	.loc 12 364 0
	subf 26,30,27
	.loc 12 365 0
	beq+ 0,.L497
	.loc 12 366 0
	mr 3,27
	mr 4,26
	slwi 5,5,2
	bl memmove
.LVL733:
	lwz 0,4(31)
.L497:
.LBE6958:
.LBE6959:
.LBE6960:
.LBE6961:
.LBE6962:
.LBE6963:
.LBE6964:
.LBE6965:
.LBE6966:
.LBE6967:
.LBE7008:
.LBB7009:
.LBB7010:
.LBB7011:
.LBB7012:
.LBB7013:
.LBB7014:
	.loc 12 559 0
	subf 26,29,26
.LBE7014:
.LBE7013:
.LBE7012:
.LBE7011:
.LBE7010:
.LBE7009:
	.loc 11 394 0
	add 0,0,30
.LBB7030:
.LBB7027:
.LBB7024:
.LBB7021:
.LBB7018:
.LBB7015:
	.loc 12 560 0
	srawi. 26,26,2
.LBE7015:
.LBE7018:
.LBE7021:
.LBE7024:
.LBE7027:
.LBE7030:
	.loc 11 394 0
	stw 0,4(31)
.LVL734:
.LBB7031:
.LBB7028:
.LBB7025:
.LBB7022:
.LBB7019:
.LBB7016:
	.loc 12 560 0
	bne- 0,.L529
.L498:
.LVL735:
.LBE7016:
.LBE7019:
.LBE7022:
.LBE7025:
.LBE7028:
.LBE7031:
	.loc 11 397 0
	add 30,29,30
.LVL736:
.LBB7032:
.LBB7033:
.LBB7034:
	.loc 12 686 0
	cmpw 7,30,29
	beq- 7,.L493
.LVL737:
.L499:
	.loc 12 687 0
	stw 28,0(29)
	addi 29,29,4
	.loc 12 686 0
	cmpw 7,30,29
	bne+ 7,.L499
	b .L493
.LVL738:
.L529:
.LBE7034:
.LBE7033:
.LBE7032:
.LBB7035:
.LBB7029:
.LBB7026:
.LBB7023:
.LBB7020:
.LBB7017:
	.loc 12 561 0
	slwi 5,26,2
	mr 4,29
	subf 3,5,27
	bl memmove
	b .L498
.LVL739:
.L524:
.LBE7017:
.LBE7020:
.LBE7023:
.LBE7026:
.LBE7029:
.LBE7035:
.LBE7216:
.LBB7217:
.LBB7212:
.LBB7044:
	.loc 7 1242 0
	lis 3,.LC4@ha
	la 3,.LC4@l(3)
	bl _ZSt20__throw_length_errorPKc
.LVL740:
.LVL741:
.LVL742:
.LBE7044:
.LBE7212:
.LBE7217:
.LBE7221:
.LBE7226:
	.cfi_endproc
.LFE1988:
	.size	_ZNSt6vectorIP9GuiButtonSaIS1_EE14_M_fill_insertEN9__gnu_cxx17__normal_iteratorIPS1_S3_EEjRKS1_, .-_ZNSt6vectorIP9GuiButtonSaIS1_EE14_M_fill_insertEN9__gnu_cxx17__normal_iteratorIPS1_S3_EEjRKS1_
	.section	.text._ZNSt8_Rb_treeIPN7sigslot12_signal_baseINS0_15single_threadedEEES4_St9_IdentityIS4_ESt4lessIS4_ESaIS4_EE16_M_insert_uniqueERKS4_,"axG",@progbits,_ZNSt8_Rb_treeIPN7sigslot12_signal_baseINS0_15single_threadedEEES4_St9_IdentityIS4_ESt4lessIS4_ESaIS4_EE16_M_insert_uniqueERKS4_,comdat
	.align 2
	.weak	_ZNSt8_Rb_treeIPN7sigslot12_signal_baseINS0_15single_threadedEEES4_St9_IdentityIS4_ESt4lessIS4_ESaIS4_EE16_M_insert_uniqueERKS4_
	.type	_ZNSt8_Rb_treeIPN7sigslot12_signal_baseINS0_15single_threadedEEES4_St9_IdentityIS4_ESt4lessIS4_ESaIS4_EE16_M_insert_uniqueERKS4_, @function
_ZNSt8_Rb_treeIPN7sigslot12_signal_baseINS0_15single_threadedEEES4_St9_IdentityIS4_ESt4lessIS4_ESaIS4_EE16_M_insert_uniqueERKS4_:
.LFB2092:
	.loc 13 1264 0
	.cfi_startproc
.LVL743:
	mflr 0
	stwu 1,-32(1)
.LCFI129:
	.cfi_def_cfa_offset 32
	.cfi_register 65, 0
	stw 28,16(1)
	stw 0,36(1)
	stw 27,12(1)
	mr 27,4
	.cfi_offset 27, -20
	.cfi_offset 65, 4
	.cfi_offset 28, -16
.LBB7266:
.LBB7267:
.LBB7268:
	.loc 3 326 0
	lwz 28,8(3)
.LVL744:
.LBE7268:
.LBE7267:
.LBE7266:
	.loc 13 1264 0
	stw 29,20(1)
.LBB7293:
.LBB7285:
.LBB7281:
	.loc 13 1272 0
	addi 29,3,4
	.cfi_offset 29, -12
.LVL745:
.LBE7281:
.LBE7285:
	.loc 13 1274 0
	cmpwi 7,28,0
.LBE7293:
	.loc 13 1264 0
	stw 31,28(1)
	stw 26,8(1)
	mr 31,3
	.cfi_offset 26, -24
	.cfi_offset 31, -4
	stw 30,24(1)
.LBB7294:
	.loc 13 1274 0
	beq- 7,.L545
	.cfi_offset 30, -8
.LVL746:
	lwz 10,0(4)
	b .L534
.LVL747:
.L553:
	.loc 3 326 0 discriminator 1
	lwz 0,8(28)
.LVL748:
	.loc 13 1274 0 discriminator 1
	cmpwi 7,0,0
	beq- 7,.L552
.LVL749:
.L546:
	.loc 13 1274 0 is_stmt 0
	mr 28,0
.LVL750:
.L534:
	.loc 3 326 0 is_stmt 1
	lwz 9,16(28)
	li 11,1
	.loc 13 1278 0
	cmplw 7,9,10
	bgt- 7,.L553
.LVL751:
	.loc 3 326 0 discriminator 2
	lwz 0,12(28)
	li 11,0
.LVL752:
	.loc 13 1274 0 discriminator 2
	cmpwi 7,0,0
	bne+ 7,.L546
.LVL753:
.L552:
	.loc 13 1281 0
	cmpwi 7,11,0
	mr 3,28
.LVL754:
	bne- 7,.L531
.LVL755:
	.loc 13 1289 0
	cmplw 7,10,9
	bgt- 7,.L554
.LVL756:
.L541:
	.loc 13 1292 0
	li 0,0
	li 4,0
	rlwimi 4,0,24,0,7
.LBE7294:
	.loc 13 1293 0
	lwz 0,36(1)
	lwz 26,8(1)
	mtlr 0
	lwz 27,12(1)
.LVL757:
	lwz 28,16(1)
	lwz 29,20(1)
	lwz 30,24(1)
	lwz 31,28(1)
.LVL758:
	addi 1,1,32
	.cfi_remember_state
.LCFI130:
	.cfi_def_cfa_offset 0
	.cfi_restore 31
	.cfi_restore 30
	.cfi_restore 29
	.cfi_restore 28
	.cfi_restore 27
	.cfi_restore 26
	blr
.LVL759:
.L545:
.LCFI131:
	.cfi_restore_state
.LBB7295:
	.loc 13 1272 0
	mr 28,29
.LVL760:
.L531:
	.loc 13 1283 0
	lwz 0,12(31)
	cmpw 7,28,0
	beq- 7,.L555
.LVL761:
.LBB7286:
.LBB7287:
	.loc 13 203 0
	mr 3,28
	bl _ZSt18_Rb_tree_decrementPSt18_Rb_tree_node_base
.LVL762:
	lwz 10,0(27)
	lwz 9,16(3)
.LVL763:
.LBE7287:
.LBE7286:
	.loc 13 1289 0
	cmplw 7,10,9
	ble+ 7,.L541
.LVL764:
.L554:
.LBB7288:
.LBB7282:
	.loc 13 969 0
	cmpw 7,28,29
	li 26,1
	beq- 7,.L542
.LVL765:
	.loc 13 1264 0
	lwz 26,16(28)
	subfc 26,26,10
	subfe 26,26,26
	neg 26,26
	b .L542
.LVL766:
.L555:
.LBE7282:
.LBE7288:
.LBB7289:
.LBB7290:
	.loc 13 969 0
	cmpw 7,28,29
	li 26,1
	beq- 7,.L542
.LVL767:
	.loc 13 1264 0
	lwz 26,0(27)
	lwz 0,16(28)
.LVL768:
	subfc 26,0,26
	subfe 26,26,26
	neg 26,26
.LVL769:
.L542:
.LBE7290:
.LBE7289:
.LBB7291:
.LBB7283:
.LBB7269:
.LBB7270:
.LBB7271:
.LBB7272:
.LBB7273:
	.loc 8 92 0
	li 3,20
	bl _Znwj
.LBE7273:
.LBE7272:
.LBE7271:
.LBB7276:
.LBB7277:
	.loc 8 108 0
	cmpwi 7,3,-16
.LBE7277:
.LBE7276:
.LBB7279:
.LBB7275:
.LBB7274:
	.loc 8 92 0
	mr 30,3
.LVL770:
.LBE7274:
.LBE7275:
.LBE7279:
.LBB7280:
.LBB7278:
	.loc 8 108 0
	beq- 7,.L544
	lwz 0,0(27)
	stw 0,16(3)
.L544:
.LVL771:
.LBE7278:
.LBE7280:
.LBE7270:
.LBE7269:
	.loc 13 973 0
	mr 3,26
.LVL772:
	mr 4,30
	mr 5,28
	mr 6,29
	bl _ZSt29_Rb_tree_insert_and_rebalancebPSt18_Rb_tree_node_baseS0_RS_
	.loc 13 976 0
	lwz 9,20(31)
	.loc 13 1291 0
	li 4,0
	mr 3,30
	.loc 13 976 0
	addi 0,9,1
.LBE7283:
.LBE7291:
.LBE7295:
	.loc 13 1293 0
	lwz 26,8(1)
.LVL773:
.LBB7296:
.LBB7292:
.LBB7284:
	.loc 13 976 0
	stw 0,20(31)
.LVL774:
	.loc 13 1291 0
	li 0,1
	rlwimi 4,0,24,0,7
.LBE7284:
.LBE7292:
.LBE7296:
	.loc 13 1293 0
	lwz 0,36(1)
	lwz 27,12(1)
.LVL775:
	mtlr 0
	lwz 28,16(1)
	lwz 29,20(1)
	lwz 30,24(1)
.LVL776:
	lwz 31,28(1)
.LVL777:
	addi 1,1,32
	.cfi_restore 26
	.cfi_restore 27
	.cfi_restore 28
	.cfi_restore 29
	.cfi_restore 30
	.cfi_restore 31
.LCFI132:
	.cfi_def_cfa_offset 0
	blr
	.cfi_endproc
.LFE2092:
	.size	_ZNSt8_Rb_treeIPN7sigslot12_signal_baseINS0_15single_threadedEEES4_St9_IdentityIS4_ESt4lessIS4_ESaIS4_EE16_M_insert_uniqueERKS4_, .-_ZNSt8_Rb_treeIPN7sigslot12_signal_baseINS0_15single_threadedEEES4_St9_IdentityIS4_ESt4lessIS4_ESaIS4_EE16_M_insert_uniqueERKS4_
	.section	.text._ZN7sigslot7signal3IP9GuiButtoniRK6_POINTNS_15single_threadedEE7connectI17CustomFileBrowserEEvPT_MSA_FvS2_iS5_E,"axG",@progbits,_ZN7sigslot7signal3IP9GuiButtoniRK6_POINTNS_15single_threadedEE7connectI17CustomFileBrowserEEvPT_MSA_FvS2_iS5_E,comdat
	.align 2
	.weak	_ZN7sigslot7signal3IP9GuiButtoniRK6_POINTNS_15single_threadedEE7connectI17CustomFileBrowserEEvPT_MSA_FvS2_iS5_E
	.type	_ZN7sigslot7signal3IP9GuiButtoniRK6_POINTNS_15single_threadedEE7connectI17CustomFileBrowserEEvPT_MSA_FvS2_iS5_E, @function
_ZN7sigslot7signal3IP9GuiButtoniRK6_POINTNS_15single_threadedEE7connectI17CustomFileBrowserEEvPT_MSA_FvS2_iS5_E:
.LFB1709:
	.loc 1 2308 0
	.cfi_startproc
	.cfi_personality 0,__gxx_personality_v0
	.cfi_lsda 0,.LLSDA1709
.LVL778:
	mflr 0
	stwu 1,-48(1)
.LCFI133:
	.cfi_def_cfa_offset 48
	.cfi_register 65, 0
	stw 27,28(1)
	stw 0,52(1)
	stw 30,40(1)
	mr 30,4
	.cfi_offset 30, -8
	.cfi_offset 65, 4
	.cfi_offset 27, -20
.LBB7339:
.LBB7340:
.LBB7341:
	.loc 1 338 0
	lwz 9,0(3)
.LBE7341:
.LBE7340:
.LBE7339:
	.loc 1 2308 0
	stw 31,44(1)
	mr 31,3
	.cfi_offset 31, -4
.LVL779:
.LBB7394:
.LBB7345:
.LBB7342:
	.loc 1 338 0
	lwz 0,8(9)
.LBE7342:
.LBE7345:
.LBE7394:
	.loc 1 2308 0
	stw 28,32(1)
	stw 29,36(1)
.LBB7395:
.LBB7346:
.LBB7343:
	.loc 1 338 0
	mtctr 0
.LBE7343:
.LBE7346:
.LBE7395:
	.loc 1 2308 0
	lwz 27,0(5)
	lwz 28,4(5)
	.cfi_offset 29, -12
	.cfi_offset 28, -16
.LEHB58:
.LBB7396:
.LBB7347:
.LBB7344:
	.loc 1 338 0
	bctrl
.LEHE58:
.LVL780:
.LBE7344:
.LBE7347:
	.loc 1 2314 0
	li 3,16
.LEHB59:
	bl _Znwj
.LBB7348:
.LBB7349:
	.loc 1 1778 0
	lis 9,_ZTVN7sigslot12_connection3I17CustomFileBrowserP9GuiButtoniRK6_POINTNS_15single_threadedEEE+8@ha
	.loc 1 1779 0
	stw 30,4(3)
	.loc 1 1778 0
	la 0,_ZTVN7sigslot12_connection3I17CustomFileBrowserP9GuiButtoniRK6_POINTNS_15single_threadedEEE+8@l(9)
	.loc 1 1780 0
	stw 27,8(3)
	.loc 1 1778 0
	stw 0,0(3)
.LBE7349:
.LBE7348:
	.loc 1 2314 0
	mr 29,3
.LVL781:
.LBB7351:
.LBB7350:
	.loc 1 1780 0
	stw 28,12(3)
.LVL782:
.LBE7350:
.LBE7351:
.LBB7352:
.LBB7353:
.LBB7354:
.LBB7355:
.LBB7356:
.LBB7357:
.LBB7358:
.LBB7359:
	.loc 8 92 0
	li 3,12
.LVL783:
	bl _Znwj
.LVL784:
.LBE7359:
.LBE7358:
.LBE7357:
.LBB7360:
.LBB7361:
	.loc 8 108 0 discriminator 1
	cmpwi 7,3,-8
	beq- 7,.L558
	.loc 8 108 0 is_stmt 0
	stw 29,8(3)
.LVL785:
.L558:
.LBE7361:
.LBE7360:
.LBE7356:
.LBE7355:
	.loc 4 1516 0 is_stmt 1
	addi 4,31,4
.LBE7354:
.LBE7353:
.LBE7352:
.LBB7366:
.LBB7367:
	.loc 1 503 0
	addi 29,30,160
.LVL786:
.LBE7367:
.LBE7366:
.LBB7383:
.LBB7364:
.LBB7362:
	.loc 4 1516 0
	bl _ZNSt8__detail15_List_node_base7_M_hookEPS0_
.LVL787:
.LBE7362:
.LBE7364:
.LBE7383:
.LBB7384:
.LBB7380:
.LBB7368:
.LBB7369:
	.loc 1 338 0
	lwz 9,160(30)
.LBE7369:
.LBE7368:
.LBE7380:
.LBE7384:
.LBB7385:
.LBB7365:
.LBB7363:
	.loc 4 1516 0
	stw 31,8(1)
.LVL788:
.LBE7363:
.LBE7365:
.LBE7385:
.LBB7386:
.LBB7381:
.LBB7371:
.LBB7370:
	.loc 1 338 0
	mr 3,29
	lwz 0,8(9)
	mtctr 0
	bctrl
.LEHE59:
.LVL789:
.LBE7370:
.LBE7371:
.LBB7372:
.LBB7373:
	.file 14 "d:\\devkitpro\\devkitppc\\bin\\../lib/gcc/powerpc-eabi/4.6.3/../../../../powerpc-eabi/include/c++/4.6.3/bits/stl_set.h"
	.loc 14 410 0
	addi 3,30,164
	addi 4,1,8
.LEHB60:
	bl _ZNSt8_Rb_treeIPN7sigslot12_signal_baseINS0_15single_threadedEEES4_St9_IdentityIS4_ESt4lessIS4_ESaIS4_EE16_M_insert_uniqueERKS4_
.LEHE60:
.LVL790:
.LBE7373:
.LBE7372:
.LBB7374:
.LBB7375:
.LBB7376:
	.loc 1 343 0
	lwz 9,160(30)
	mr 3,29
	lwz 0,12(9)
	mtctr 0
.LEHB61:
	bctrl
.LEHE61:
.LVL791:
.LBE7376:
.LBE7375:
.LBE7374:
.LBE7381:
.LBE7386:
.LBB7387:
.LBB7388:
.LBB7389:
	lwz 9,0(31)
	mr 3,31
	lwz 0,12(9)
	mtctr 0
.LEHB62:
	bctrl
.LEHE62:
.LBE7389:
.LBE7388:
.LBE7387:
.LBE7396:
	.loc 1 2317 0
	lwz 0,52(1)
	lwz 27,28(1)
.LVL792:
	mtlr 0
	lwz 28,32(1)
.LVL793:
	lwz 29,36(1)
.LVL794:
	lwz 30,40(1)
.LVL795:
	lwz 31,44(1)
.LVL796:
	addi 1,1,48
	.cfi_remember_state
.LCFI134:
	.cfi_def_cfa_offset 0
	.cfi_restore 31
	.cfi_restore 30
	.cfi_restore 29
	.cfi_restore 28
	.cfi_restore 27
	blr
.LVL797:
.L565:
.LCFI135:
	.cfi_restore_state
	mr 30,3
.LVL798:
.L562:
.LBB7397:
.LBB7390:
.LBB7391:
.LBB7392:
	.loc 1 343 0
	lwz 9,0(31)
	mr 3,31
	lwz 0,12(9)
	mtctr 0
	bctrl
	mr 3,30
.LEHB63:
	bl _Unwind_Resume
.LEHE63:
.LVL799:
.L566:
.LBE7392:
.LBE7391:
.LBE7390:
.LBB7393:
.LBB7382:
.LBB7377:
.LBB7378:
.LBB7379:
	lwz 9,160(30)
	mr 30,3
.LVL800:
	mr 3,29
	lwz 0,12(9)
	mtctr 0
	bctrl
	b .L562
.LBE7379:
.LBE7378:
.LBE7377:
.LBE7382:
.LBE7393:
.LBE7397:
	.cfi_endproc
.LFE1709:
	.section	.gcc_except_table
.LLSDA1709:
	.byte	0xff
	.byte	0xff
	.byte	0x1
	.uleb128 .LLSDACSE1709-.LLSDACSB1709
.LLSDACSB1709:
	.uleb128 .LEHB58-.LFB1709
	.uleb128 .LEHE58-.LEHB58
	.uleb128 0
	.uleb128 0
	.uleb128 .LEHB59-.LFB1709
	.uleb128 .LEHE59-.LEHB59
	.uleb128 .L565-.LFB1709
	.uleb128 0
	.uleb128 .LEHB60-.LFB1709
	.uleb128 .LEHE60-.LEHB60
	.uleb128 .L566-.LFB1709
	.uleb128 0
	.uleb128 .LEHB61-.LFB1709
	.uleb128 .LEHE61-.LEHB61
	.uleb128 .L565-.LFB1709
	.uleb128 0
	.uleb128 .LEHB62-.LFB1709
	.uleb128 .LEHE62-.LEHB62
	.uleb128 0
	.uleb128 0
	.uleb128 .LEHB63-.LFB1709
	.uleb128 .LEHE63-.LEHB63
	.uleb128 0
	.uleb128 0
.LLSDACSE1709:
	.section	.text._ZN7sigslot7signal3IP9GuiButtoniRK6_POINTNS_15single_threadedEE7connectI17CustomFileBrowserEEvPT_MSA_FvS2_iS5_E,"axG",@progbits,_ZN7sigslot7signal3IP9GuiButtoniRK6_POINTNS_15single_threadedEE7connectI17CustomFileBrowserEEvPT_MSA_FvS2_iS5_E,comdat
	.size	_ZN7sigslot7signal3IP9GuiButtoniRK6_POINTNS_15single_threadedEE7connectI17CustomFileBrowserEEvPT_MSA_FvS2_iS5_E, .-_ZN7sigslot7signal3IP9GuiButtoniRK6_POINTNS_15single_threadedEE7connectI17CustomFileBrowserEEvPT_MSA_FvS2_iS5_E
	.section	".text"
	.align 2
	.globl _ZN17CustomFileBrowser9AddButtonEv
	.type	_ZN17CustomFileBrowser9AddButtonEv, @function
_ZN17CustomFileBrowser9AddButtonEv:
.LFB1611:
	.loc 3 89 0
	.cfi_startproc
	.cfi_personality 0,__gxx_personality_v0
	.cfi_lsda 0,.LLSDA1611
.LVL801:
	mflr 0
	stwu 1,-80(1)
.LCFI136:
	.cfi_def_cfa_offset 80
	.cfi_register 65, 0
	stw 27,60(1)
	stw 0,84(1)
	stw 29,68(1)
.LBB7518:
.LBB7519:
.LBB7520:
	.loc 7 571 0
	lwz 11,248(3)
	lwz 27,252(3)
	.cfi_offset 29, -12
	.cfi_offset 65, 4
	.cfi_offset 27, -20
.LBE7520:
.LBE7519:
.LBB7522:
	.loc 3 326 0
	lwz 0,224(3)
	lwz 9,228(3)
.LBE7522:
.LBB7536:
.LBB7521:
	.loc 7 571 0
	subf 27,11,27
	srawi 27,27,2
.LVL802:
.LBE7521:
.LBE7536:
	.loc 3 92 0
	li 11,0
.LBB7537:
.LBB7523:
.LBB7524:
.LBB7525:
	.loc 7 571 0
	subf 5,0,9
.LBE7525:
.LBE7524:
.LBE7523:
.LBE7537:
	.loc 3 92 0
	addi 29,27,1
.LVL803:
.LBB7538:
.LBB7532:
.LBB7527:
.LBB7526:
	.loc 7 571 0
	srawi 5,5,2
.LBE7526:
.LBE7527:
.LBE7532:
.LBE7538:
.LBE7518:
	.loc 3 89 0
	stw 31,76(1)
.LBB7587:
.LBB7539:
.LBB7533:
	.loc 7 631 0
	cmplw 7,29,5
.LBE7533:
.LBE7539:
.LBE7587:
	.loc 3 89 0
	stw 24,48(1)
	stw 25,52(1)
	mr 31,3
	.cfi_offset 25, -28
	.cfi_offset 24, -32
	.cfi_offset 31, -4
	stw 26,56(1)
	stw 28,64(1)
	stw 30,72(1)
.LBB7588:
	.loc 3 92 0
	stw 11,8(1)
.LVL804:
.LBB7540:
.LBB7534:
	.loc 7 631 0
	bgt- 7,.L587
	.cfi_offset 30, -8
	.cfi_offset 28, -16
	.cfi_offset 26, -24
	.loc 7 633 0
	bge- 7,.L570
.LVL805:
	.loc 7 634 0
	slwi 9,29,2
	add 0,0,9
.LBB7528:
.LBB7529:
	.loc 7 1256 0
	stw 0,228(3)
.LVL806:
.L570:
.LBE7529:
.LBE7528:
.LBE7534:
.LBE7540:
	.loc 3 93 0
	li 3,196
.LEHB64:
	bl _Znwj
.LEHE64:
	lwz 4,264(31)
	mr 28,3
.LEHB65:
	bl _ZN8GuiImageC1EP12GuiImageData
.LEHE65:
.LVL807:
	.loc 3 93 0 is_stmt 0 discriminator 1
	lwz 9,224(31)
.LBB7541:
.LBB7542:
	.loc 7 696 0 is_stmt 1 discriminator 1
	slwi 30,27,2
.LBE7542:
.LBE7541:
	.loc 3 94 0 discriminator 1
	lis 11,.LC5@ha
	.loc 3 93 0 discriminator 1
	stwx 28,9,30
.LVL808:
	.loc 3 94 0 discriminator 1
	lfs 1,.LC5@l(11)
	lwz 9,224(31)
	lwzx 3,9,30
	lwz 9,0(3)
	lwz 0,108(9)
	mtctr 0
.LEHB66:
	bctrl
.LVL809:
	.loc 3 95 0 discriminator 1
	lwz 9,224(31)
	li 5,0
	li 4,-36
	lwzx 3,9,30
	lwz 9,0(3)
	lwz 0,168(9)
	mtctr 0
	bctrl
.LVL810:
.LBB7543:
	.loc 3 326 0 discriminator 1
	lwz 0,200(31)
	lwz 9,204(31)
.LBE7543:
	.loc 3 95 0 discriminator 1
	li 11,0
	stw 11,8(1)
.LVL811:
.LBB7552:
.LBB7544:
.LBB7545:
.LBB7546:
	.loc 7 571 0 discriminator 1
	subf 5,0,9
	srawi 5,5,2
.LBE7546:
.LBE7545:
	.loc 7 631 0 discriminator 1
	cmplw 7,29,5
	bgt- 7,.L588
	.loc 7 633 0
	bge- 7,.L572
.LVL812:
	.loc 7 634 0
	slwi 9,29,2
	add 0,0,9
.LBB7547:
.LBB7548:
	.loc 7 1256 0
	stw 0,204(31)
.LVL813:
.L572:
.LBE7548:
.LBE7547:
.LBE7544:
.LBE7552:
	.loc 3 98 0 discriminator 1
	lis 26,.LC6@ha
	mr 28,1
	la 26,.LC6@l(26)
	mr 3,26
	bl getThemeColor
	mr 24,3
	li 3,208
	bl _Znwj
.LEHE66:
	stwu 24,32(28)
	li 4,0
	li 5,20
	mr 6,28
	mr 25,3
.LEHB67:
	bl _ZN7GuiTextC1EPKci9_gx_color
.LEHE67:
.LVL814:
	lwz 9,200(31)
	.loc 3 99 0 discriminator 1
	li 4,33
	.loc 3 98 0 discriminator 1
	stwx 25,9,30
.LVL815:
	.loc 3 99 0 discriminator 1
	lwz 9,200(31)
	lwzx 3,9,30
	lwz 9,0(3)
	lwz 0,180(9)
	mtctr 0
.LEHB68:
	bctrl
.LVL816:
	.loc 3 100 0 discriminator 1
	lwz 9,200(31)
	li 4,30
	li 5,0
	lwzx 3,9,30
	lwz 9,0(3)
	lwz 0,168(9)
	mtctr 0
	bctrl
.LVL817:
	.loc 3 101 0 discriminator 1
	lwz 9,200(31)
	lwz 4,36(31)
	li 5,1
	lwzx 3,9,30
	addi 4,4,-30
	bl _ZN7GuiText11SetMaxWidthEii
.LVL818:
.LBB7553:
	.loc 3 326 0 discriminator 1
	lwz 0,212(31)
	lwz 9,216(31)
.LBE7553:
	.loc 3 101 0 discriminator 1
	li 11,0
	stw 11,8(1)
.LVL819:
.LBB7562:
.LBB7554:
.LBB7555:
.LBB7556:
	.loc 7 571 0 discriminator 1
	subf 5,0,9
	srawi 5,5,2
.LBE7556:
.LBE7555:
	.loc 7 631 0 discriminator 1
	cmplw 7,29,5
	bgt- 7,.L589
	.loc 7 633 0
	bge- 7,.L574
.LVL820:
	.loc 7 634 0
	slwi 9,29,2
	add 0,0,9
.LBB7557:
.LBB7558:
	.loc 7 1256 0
	stw 0,216(31)
.LVL821:
.L574:
.LBE7558:
.LBE7557:
.LBE7554:
.LBE7562:
	.loc 3 104 0 discriminator 1
	mr 3,26
	bl getThemeColor
	mr 25,3
	li 3,208
	bl _Znwj
.LEHE68:
	li 4,0
	li 5,20
	mr 6,28
	mr 26,3
	stw 25,32(1)
.LEHB69:
	bl _ZN7GuiTextC1EPKci9_gx_color
.LEHE69:
.LVL822:
	lwz 9,212(31)
	.loc 3 105 0 discriminator 1
	li 4,33
	.loc 3 104 0 discriminator 1
	stwx 26,9,30
.LVL823:
	.loc 3 105 0 discriminator 1
	lwz 9,212(31)
	lwzx 3,9,30
	lwz 9,0(3)
	lwz 0,180(9)
	mtctr 0
.LEHB70:
	bctrl
.LVL824:
	.loc 3 106 0 discriminator 1
	lwz 9,212(31)
	li 4,30
	li 5,0
	lwzx 3,9,30
	lwz 9,0(3)
	lwz 0,168(9)
	mtctr 0
	bctrl
.LVL825:
	.loc 3 107 0 discriminator 1
	lwz 9,212(31)
	lwz 4,36(31)
	li 5,2
	lwzx 3,9,30
	addi 4,4,-40
	bl _ZN7GuiText11SetMaxWidthEii
.LVL826:
.LBB7563:
	.loc 3 326 0 discriminator 1
	lwz 9,236(31)
	lwz 0,240(31)
.LBE7563:
	.loc 3 107 0 discriminator 1
	li 11,0
	stw 11,8(1)
.LVL827:
.LBB7572:
.LBB7564:
.LBB7565:
.LBB7566:
	.loc 7 571 0 discriminator 1
	subf 5,9,0
	srawi 5,5,2
.LBE7566:
.LBE7565:
	.loc 7 631 0 discriminator 1
	cmplw 7,29,5
	bgt- 7,.L590
	.loc 7 633 0
	bge- 7,.L576
.LVL828:
	.loc 7 634 0
	slwi 0,29,2
	add 0,9,0
.LBB7567:
.LBB7568:
	.loc 7 1256 0
	stw 0,240(31)
.LVL829:
.L576:
.LBE7568:
.LBE7567:
.LBE7564:
.LBE7572:
	.loc 3 110 0 discriminator 1
	li 0,0
	stwx 0,9,30
.LVL830:
	stw 0,8(1)
.LVL831:
.LBB7573:
	.loc 3 326 0 discriminator 1
	lwz 9,252(31)
	lwz 0,248(31)
.LBB7574:
.LBB7575:
.LBB7576:
	.loc 7 571 0 discriminator 1
	subf 5,0,9
	srawi 5,5,2
.LBE7576:
.LBE7575:
	.loc 7 631 0 discriminator 1
	cmplw 7,29,5
	bgt- 7,.L591
	.loc 7 633 0
	blt- 7,.L592
.LVL832:
.L578:
.LBE7574:
.LBE7573:
	.loc 3 113 0 discriminator 1
	li 3,312
	bl _Znwj
.LEHE70:
	lwz 4,36(31)
	li 5,30
	mr 29,3
.LEHB71:
	bl _ZN9GuiButtonC1Eii
.LEHE71:
.LVL833:
	lwz 9,248(31)
	.loc 3 114 0 discriminator 1
	mr 4,31
	.loc 3 113 0 discriminator 1
	stwx 29,9,30
.LVL834:
	.loc 3 114 0 discriminator 1
	lwz 9,248(31)
	lwzx 3,9,30
	lwz 9,0(3)
	lwz 0,8(9)
	mtctr 0
.LEHB72:
	bctrl
.LVL835:
	.loc 3 115 0 discriminator 1
	lwz 11,248(31)
	lwz 9,200(31)
	li 5,0
	lwzx 3,11,30
	lwzx 4,9,30
	bl _ZN9GuiButton8SetLabelEP7GuiTexti
.LVL836:
	.loc 3 116 0 discriminator 1
	lwz 11,248(31)
	lwz 9,212(31)
	li 5,0
	lwzx 3,11,30
	lwzx 4,9,30
	bl _ZN9GuiButton12SetLabelOverEP7GuiTexti
.LVL837:
	.loc 3 117 0 discriminator 1
	lwz 11,248(31)
	lwz 9,224(31)
	lwzx 3,11,30
	lwzx 4,9,30
	bl _ZN9GuiButton12SetImageOverEP8GuiImage
.LVL838:
	.loc 3 118 0 discriminator 1
	lwz 9,248(31)
	mulli 5,27,30
	li 4,0
	lwzx 3,9,30
	addi 5,5,1
	lwz 9,0(3)
	lwz 0,168(9)
	mtctr 0
	bctrl
.LVL839:
	.loc 3 119 0 discriminator 1
	lwz 9,248(31)
	lwz 4,288(31)
	lwzx 3,9,30
	bl _ZN9GuiButton10SetTriggerEP10GuiTrigger
.LVL840:
	.loc 3 120 0 discriminator 1
	lwz 9,248(31)
	lwz 4,284(31)
	lwzx 3,9,30
	bl _ZN9GuiButton13SetSoundClickEP8GuiSound
.LVL841:
	.loc 3 121 0 discriminator 1
	lwz 9,248(31)
	mr 4,31
	addi 5,1,40
	lwzx 3,9,30
	lis 9,_ZN17CustomFileBrowser9OnClickedEP9GuiButtoniRK6_POINT@ha
	la 0,_ZN17CustomFileBrowser9OnClickedEP9GuiButtoniRK6_POINT@l(9)
	stw 0,40(1)
	addi 3,3,144
	li 0,0
	stw 0,44(1)
	bl _ZN7sigslot7signal3IP9GuiButtoniRK6_POINTNS_15single_threadedEE7connectI17CustomFileBrowserEEvPT_MSA_FvS2_iS5_E
.LBE7588:
	.loc 3 122 0 discriminator 1
	lwz 0,84(1)
	lwz 24,48(1)
	mtlr 0
	lwz 25,52(1)
	lwz 26,56(1)
	lwz 27,60(1)
.LVL842:
	lwz 28,64(1)
	lwz 29,68(1)
	lwz 30,72(1)
	lwz 31,76(1)
.LVL843:
	addi 1,1,80
	.cfi_remember_state
.LCFI137:
	.cfi_def_cfa_offset 0
	.cfi_restore 31
	.cfi_restore 30
	.cfi_restore 29
	.cfi_restore 28
	.cfi_restore 27
	.cfi_restore 26
	.cfi_restore 25
	.cfi_restore 24
	blr
.LVL844:
.L592:
.LCFI138:
	.cfi_restore_state
.LBB7589:
.LBB7582:
.LBB7581:
	.loc 7 634 0
	slwi 29,29,2
.LVL845:
	add 0,0,29
.LBB7577:
.LBB7578:
	.loc 7 1256 0
	stw 0,252(31)
	b .L578
.LVL846:
.L591:
.LBE7578:
.LBE7577:
.LBB7579:
.LBB7580:
	.loc 7 944 0
	mr 4,1
	addi 3,31,248
	stwu 9,36(4)
	subf 5,5,29
.LVL847:
	addi 6,1,8
	bl _ZNSt6vectorIP9GuiButtonSaIS1_EE14_M_fill_insertEN9__gnu_cxx17__normal_iteratorIPS1_S3_EEjRKS1_
.LVL848:
	b .L578
.LVL849:
.L588:
.LBE7580:
.LBE7579:
.LBE7581:
.LBE7582:
.LBB7583:
.LBB7551:
.LBB7549:
.LBB7550:
	mr 4,1
	addi 3,31,200
	stwu 9,28(4)
	subf 5,5,29
.LVL850:
	addi 6,1,8
.LVL851:
	bl _ZNSt6vectorIP7GuiTextSaIS1_EE14_M_fill_insertEN9__gnu_cxx17__normal_iteratorIPS1_S3_EEjRKS1_
.LVL852:
	b .L572
.LVL853:
.L587:
.LBE7550:
.LBE7549:
.LBE7551:
.LBE7583:
.LBB7584:
.LBB7535:
.LBB7530:
.LBB7531:
	mr 4,1
	addi 3,3,224
	stwu 9,24(4)
	subf 5,5,29
.LVL854:
	addi 6,1,8
.LVL855:
	bl _ZNSt6vectorIP8GuiImageSaIS1_EE14_M_fill_insertEN9__gnu_cxx17__normal_iteratorIPS1_S3_EEjRKS1_
.LVL856:
	b .L570
.LVL857:
.L590:
.LBE7531:
.LBE7530:
.LBE7535:
.LBE7584:
.LBB7585:
.LBB7571:
.LBB7569:
.LBB7570:
	mr 4,1
	addi 3,31,236
	stwu 0,24(4)
	subf 5,5,29
.LVL858:
	addi 6,1,8
.LVL859:
	bl _ZNSt6vectorIP8GuiImageSaIS1_EE14_M_fill_insertEN9__gnu_cxx17__normal_iteratorIPS1_S3_EEjRKS1_
.LVL860:
	lwz 9,236(31)
	b .L576
.LVL861:
.L589:
.LBE7570:
.LBE7569:
.LBE7571:
.LBE7585:
.LBB7586:
.LBB7561:
.LBB7559:
.LBB7560:
	mr 4,1
	addi 3,31,212
	stwu 9,28(4)
	subf 5,5,29
.LVL862:
	addi 6,1,8
.LVL863:
	bl _ZNSt6vectorIP7GuiTextSaIS1_EE14_M_fill_insertEN9__gnu_cxx17__normal_iteratorIPS1_S3_EEjRKS1_
.LVL864:
	b .L574
.LVL865:
.L585:
	mr 31,3
.LVL866:
.LBE7560:
.LBE7559:
.LBE7561:
.LBE7586:
	.loc 3 104 0
	mr 3,26
	bl _ZdlPv
	mr 3,31
	bl _Unwind_Resume
.LVL867:
.L584:
	mr 31,3
.LVL868:
	.loc 3 98 0
	mr 3,25
	bl _ZdlPv
	mr 3,31
	bl _Unwind_Resume
.LVL869:
.L583:
	mr 31,3
.LVL870:
	.loc 3 93 0
	mr 3,28
	bl _ZdlPv
	mr 3,31
	bl _Unwind_Resume
.LVL871:
.L586:
	mr 31,3
.LVL872:
	.loc 3 113 0
	mr 3,29
	bl _ZdlPv
	mr 3,31
	bl _Unwind_Resume
.LEHE72:
.LBE7589:
	.cfi_endproc
.LFE1611:
	.section	.gcc_except_table
.LLSDA1611:
	.byte	0xff
	.byte	0xff
	.byte	0x1
	.uleb128 .LLSDACSE1611-.LLSDACSB1611
.LLSDACSB1611:
	.uleb128 .LEHB64-.LFB1611
	.uleb128 .LEHE64-.LEHB64
	.uleb128 0
	.uleb128 0
	.uleb128 .LEHB65-.LFB1611
	.uleb128 .LEHE65-.LEHB65
	.uleb128 .L583-.LFB1611
	.uleb128 0
	.uleb128 .LEHB66-.LFB1611
	.uleb128 .LEHE66-.LEHB66
	.uleb128 0
	.uleb128 0
	.uleb128 .LEHB67-.LFB1611
	.uleb128 .LEHE67-.LEHB67
	.uleb128 .L584-.LFB1611
	.uleb128 0
	.uleb128 .LEHB68-.LFB1611
	.uleb128 .LEHE68-.LEHB68
	.uleb128 0
	.uleb128 0
	.uleb128 .LEHB69-.LFB1611
	.uleb128 .LEHE69-.LEHB69
	.uleb128 .L585-.LFB1611
	.uleb128 0
	.uleb128 .LEHB70-.LFB1611
	.uleb128 .LEHE70-.LEHB70
	.uleb128 0
	.uleb128 0
	.uleb128 .LEHB71-.LFB1611
	.uleb128 .LEHE71-.LEHB71
	.uleb128 .L586-.LFB1611
	.uleb128 0
	.uleb128 .LEHB72-.LFB1611
	.uleb128 .LEHE72-.LEHB72
	.uleb128 0
	.uleb128 0
.LLSDACSE1611:
	.section	".text"
	.size	_ZN17CustomFileBrowser9AddButtonEv, .-_ZN17CustomFileBrowser9AddButtonEv
	.align 2
	.globl _ZN17CustomFileBrowser9SetButtonEiSbIwSt11char_traitsIwESaIwEEbb
	.type	_ZN17CustomFileBrowser9SetButtonEiSbIwSt11char_traitsIwESaIwEEbb, @function
_ZN17CustomFileBrowser9SetButtonEiSbIwSt11char_traitsIwESaIwEEbb:
.LFB1613:
	.loc 3 148 0
	.cfi_startproc
	.cfi_personality 0,__gxx_personality_v0
	.cfi_lsda 0,.LLSDA1613
.LVL873:
	stwu 1,-80(1)
.LCFI139:
	.cfi_def_cfa_offset 80
	mflr 0
	stw 30,72(1)
.LBB7772:
	.loc 3 149 0
	mr. 30,4
	.cfi_offset 30, -8
	.cfi_register 65, 0
.LBE7772:
	.loc 3 148 0
	stw 27,60(1)
	mr 27,6
	.cfi_offset 27, -20
	stw 29,68(1)
	mr 29,5
	.cfi_offset 29, -12
	stw 31,76(1)
	mr 31,3
	.cfi_offset 31, -4
	stw 0,84(1)
	stw 25,52(1)
	stw 26,56(1)
	stw 28,64(1)
.LBB7919:
	.loc 3 149 0
	blt- 0,.L593
	.cfi_offset 28, -16
	.cfi_offset 26, -24
	.cfi_offset 25, -28
	.cfi_offset 65, 4
.LBB7773:
.LBB7774:
	.loc 7 571 0
	lwz 9,252(3)
	lwz 0,248(3)
	subf 0,0,9
	srawi 0,0,2
.LBE7774:
.LBE7773:
	.loc 3 152 0
	cmpw 7,30,0
	bge- 7,.L650
	.loc 3 157 0
	cmpwi 7,7,0
	beq- 7,.L651
.LVL874:
.L596:
	.loc 3 164 0
	lwz 9,236(31)
.LBB7775:
.LBB7776:
	.loc 7 696 0
	slwi 30,30,2
.LVL875:
.LBE7776:
.LBE7775:
	.loc 3 164 0
	lwzx 3,9,30
	cmpwi 7,3,0
	beq- 7,.L597
	.loc 3 165 0
	lwz 9,0(3)
	lwz 0,4(9)
	mtctr 0
.LEHB73:
	bctrl
.LVL876:
.L597:
	.loc 3 167 0
	addi 3,1,32
	mr 4,29
	bl _ZNSbIwSt11char_traitsIwESaIwEEC1ERKS2_
.LEHE73:
	addi 3,1,36
	addi 4,1,32
.LEHB74:
	bl _Z8wstr2strSbIwSt11char_traitsIwESaIwEE
.LEHE74:
.LVL877:
.LBB7777:
.LBB7778:
.LBB7779:
.LBB7780:
.LBB7781:
.LBB7782:
	.loc 9 288 0
	lwz 9,32(1)
.LBE7782:
.LBE7781:
.LBE7780:
.LBB7783:
.LBB7784:
	.loc 9 235 0
	lis 28,_ZNSbIwSt11char_traitsIwESaIwEE4_Rep20_S_empty_rep_storageE@ha
	la 28,_ZNSbIwSt11char_traitsIwESaIwEE4_Rep20_S_empty_rep_storageE@l(28)
.LBE7784:
.LBE7783:
	.loc 9 534 0
	addi 3,9,-12
.LVL878:
.LBB7793:
.LBB7791:
	.loc 9 235 0
	cmpw 7,3,28
	bne- 7,.L652
.LVL879:
.L603:
.LBE7791:
.LBE7793:
.LBE7779:
.LBE7778:
.LBE7777:
.LBB7797:
.LBB7798:
	.loc 9 2022 0 discriminator 1
	addi 3,1,36
.LVL880:
	li 4,46
	li 5,-1
.LEHB75:
	bl _ZNKSs5rfindEcj
.LVL881:
.LBE7798:
.LBE7797:
	.loc 3 169 0 discriminator 1
	mr. 5,3
	ble- 0,.L604
.LVL882:
.LBB7799:
.LBB7800:
.LBB7801:
.LBB7802:
.LBB7803:
.LBB7804:
	.loc 9 711 0
	lwz 9,36(1)
.LBE7804:
.LBE7803:
	.loc 9 318 0
	lwz 0,-12(9)
	cmplw 7,5,0
	bgt- 7,.L653
.LBE7802:
.LBE7801:
	.loc 9 2157 0
	addi 3,1,28
.LVL883:
	addi 4,1,36
.LVL884:
	li 6,-1
	bl _ZNSsC1ERKSsjj
.LEHE75:
.LVL885:
.LBE7800:
.LBE7799:
.LBB7808:
.LBB7809:
	.loc 9 542 0
	addi 3,1,36
.LVL886:
	addi 4,1,28
.LVL887:
.LEHB76:
	bl _ZNSs6assignERKSs
.LEHE76:
.LVL888:
.LBE7809:
.LBE7808:
.LBB7810:
.LBB7811:
.LBB7812:
.LBB7813:
.LBB7814:
.LBB7815:
	.loc 9 288 0
	lwz 9,28(1)
.LBE7815:
.LBE7814:
.LBE7813:
.LBB7816:
.LBB7817:
	.loc 9 235 0
	lis 11,_ZNSs4_Rep20_S_empty_rep_storageE@ha
	la 0,_ZNSs4_Rep20_S_empty_rep_storageE@l(11)
.LBE7817:
.LBE7816:
	.loc 9 534 0
	addi 3,9,-12
.LVL889:
.LBB7826:
.LBB7824:
	.loc 9 235 0
	cmpw 7,3,0
	bne- 7,.L654
.LVL890:
.L611:
.LBE7824:
.LBE7826:
.LBE7812:
.LBE7811:
.LBE7810:
	.loc 3 172 0
	lis 4,.LC8@ha
	addi 3,1,36
.LVL891:
	la 4,.LC8@l(4)
.LEHB77:
	bl _ZNKSs7compareEPKc
.LVL892:
	cmpwi 7,3,0
	beq- 7,.L604
.LVL893:
.L612:
	.loc 3 178 0
	addi 3,1,24
	addi 4,1,36
.LVL894:
.LBB7830:
.LBB7831:
.LBB7832:
	.loc 3 326 0
	lwz 26,236(31)
.LBE7832:
.LBE7831:
.LBE7830:
	.loc 3 178 0
	bl _ZNSsC1ERKSs
.LEHE77:
.LVL895:
	.loc 3 178 0 is_stmt 0 discriminator 1
	mr 3,31
	addi 4,1,24
	mr 5,27
.LEHB78:
	bl _ZN17CustomFileBrowser14GetIconFromExtESsb.constprop.250
.LEHE78:
	stwx 3,26,30
.LVL896:
.LBB7835:
.LBB7836:
.LBB7837:
.LBB7838:
.LBB7839:
	.loc 9 235 0 is_stmt 1 discriminator 1
	lis 27,_ZNSs4_Rep20_S_empty_rep_storageE@ha
	la 27,_ZNSs4_Rep20_S_empty_rep_storageE@l(27)
.LBE7839:
.LBE7838:
.LBB7848:
.LBB7849:
.LBB7850:
	.loc 9 288 0 discriminator 1
	lwz 9,24(1)
.LBE7850:
.LBE7849:
.LBE7848:
	.loc 9 534 0 discriminator 1
	addi 3,9,-12
.LVL897:
.LBB7851:
.LBB7846:
	.loc 9 235 0 discriminator 1
	cmpw 7,3,27
	bne- 7,.L655
.LVL898:
.L618:
.LBE7846:
.LBE7851:
.LBE7837:
.LBE7836:
.LBE7835:
	.loc 3 179 0 discriminator 2
	lwz 9,236(31)
	lwzx 3,9,30
	lis 9,.LC10@ha
	lfs 1,.LC10@l(9)
	lwz 9,0(3)
	lwz 0,104(9)
	mtctr 0
.LEHB79:
	bctrl
	.loc 3 180 0
	lwz 9,236(31)
	li 4,-7
	li 5,-7
	lwzx 3,9,30
	lwz 9,0(3)
	lwz 0,168(9)
	mtctr 0
	bctrl
	.loc 3 182 0
	lwz 9,200(31)
	addi 3,1,20
	mr 4,29
	lwzx 26,9,30
	lwz 9,0(26)
	lwz 25,212(9)
	bl _ZNSbIwSt11char_traitsIwESaIwEEC1ERKS2_
.LEHE79:
	.loc 3 182 0 is_stmt 0 discriminator 1
	mr 3,26
	addi 4,1,20
	mtctr 25
.LEHB80:
	bctrl
.LEHE80:
.LVL899:
.LBB7855:
.LBB7856:
.LBB7857:
.LBB7858:
.LBB7859:
.LBB7860:
	.loc 9 288 0 is_stmt 1
	lwz 9,20(1)
.LBE7860:
.LBE7859:
.LBE7858:
	.loc 9 534 0
	addi 3,9,-12
.LVL900:
.LBB7861:
.LBB7862:
	.loc 9 235 0
	cmpw 7,3,28
	bne- 7,.L656
.LVL901:
.L624:
.LBE7862:
.LBE7861:
.LBE7857:
.LBE7856:
.LBE7855:
	.loc 3 183 0 discriminator 1
	lwz 9,212(31)
	mr 4,29
	addi 3,1,16
	lwzx 26,9,30
	lwz 9,0(26)
	lwz 29,212(9)
.LVL902:
.LEHB81:
	bl _ZNSbIwSt11char_traitsIwESaIwEEC1ERKS2_
.LEHE81:
.LVL903:
	mr 3,26
	addi 4,1,16
	mtctr 29
.LEHB82:
	bctrl
.LEHE82:
.LVL904:
.LBB7873:
.LBB7874:
.LBB7875:
.LBB7876:
.LBB7877:
.LBB7878:
	.loc 9 288 0
	lwz 9,16(1)
.LBE7878:
.LBE7877:
.LBE7876:
	.loc 9 534 0
	addi 3,9,-12
.LVL905:
.LBB7879:
.LBB7880:
	.loc 9 235 0
	cmpw 7,3,28
	bne- 7,.L657
.LVL906:
.L630:
.LBE7880:
.LBE7879:
.LBE7875:
.LBE7874:
.LBE7873:
	.loc 3 185 0 discriminator 1
	lwz 11,248(31)
	lwz 9,236(31)
	lwzx 3,11,30
	lwzx 4,9,30
.LEHB83:
	bl _ZN9GuiButton7SetIconEP8GuiImage
	.loc 3 186 0
	lwz 9,248(31)
	li 4,1
	lwzx 3,9,30
	lwz 9,0(3)
	lwz 0,48(9)
	mtctr 0
	bctrl
	.loc 3 188 0
	lwz 9,248(31)
	lwzx 3,9,30
	lwz 9,0(3)
	lwz 0,84(9)
	mtctr 0
	bctrl
	cmpwi 7,3,4
	beq- 7,.L658
.L631:
.LVL907:
.LBB7891:
.LBB7892:
.LBB7893:
.LBB7894:
.LBB7895:
.LBB7896:
	.loc 9 288 0
	lwz 9,36(1)
.LBE7896:
.LBE7895:
.LBE7894:
	.loc 9 534 0
	addi 3,9,-12
.LVL908:
.LBB7897:
.LBB7898:
	.loc 9 235 0
	cmpw 7,3,27
	bne- 7,.L659
.LVL909:
.L593:
.LBE7898:
.LBE7897:
.LBE7893:
.LBE7892:
.LBE7891:
.LBE7919:
	.loc 3 190 0
	lwz 0,84(1)
	lwz 25,52(1)
	mtlr 0
	lwz 26,56(1)
	lwz 27,60(1)
	lwz 28,64(1)
	lwz 29,68(1)
	lwz 30,72(1)
	lwz 31,76(1)
.LVL910:
	addi 1,1,80
	.cfi_remember_state
.LCFI140:
	.cfi_def_cfa_offset 0
	.cfi_restore 31
	.cfi_restore 30
	.cfi_restore 29
	.cfi_restore 28
	.cfi_restore 27
	.cfi_restore 26
	.cfi_restore 25
	blr
.LVL911:
.L604:
.LCFI141:
	.cfi_restore_state
.LBB7920:
.LBB7909:
.LBB7834:
.LBB7833:
	.loc 9 1121 0
	lis 4,.LC9@ha
	addi 3,1,36
.LVL912:
	la 4,.LC9@l(4)
	li 5,0
	bl _ZNSs6assignEPKcj
.LEHE83:
.LVL913:
	b .L612
.LVL914:
.L650:
.LBE7833:
.LBE7834:
.LBE7909:
	.loc 3 154 0
	stw 7,40(1)
.LEHB84:
	bl _ZN17CustomFileBrowser9AddButtonEv
.LVL915:
	lwz 7,40(1)
	.loc 3 157 0
	cmpwi 7,7,0
	bne+ 7,.L596
.L651:
.LVL916:
	.loc 3 159 0
	lwz 9,248(31)
.LBB7910:
.LBB7911:
	.loc 7 696 0
	slwi 30,30,2
.LVL917:
.LBE7911:
.LBE7910:
	.loc 3 159 0
	li 4,0
	lwzx 3,9,30
	lwz 9,0(3)
	lwz 0,48(9)
	mtctr 0
	bctrl
	.loc 3 160 0
	lwz 9,248(31)
	li 4,4
	li 5,-1
	lwzx 3,9,30
	lwz 9,0(3)
	lwz 0,80(9)
	mtctr 0
	bctrl
.LEHE84:
.LBE7920:
	.loc 3 190 0
	lwz 0,84(1)
	lwz 25,52(1)
	mtlr 0
	lwz 26,56(1)
	lwz 27,60(1)
	lwz 28,64(1)
	lwz 29,68(1)
.LVL918:
	lwz 30,72(1)
	lwz 31,76(1)
.LVL919:
	addi 1,1,80
	.cfi_remember_state
	.cfi_restore 25
	.cfi_restore 26
	.cfi_restore 27
	.cfi_restore 28
	.cfi_restore 29
	.cfi_restore 30
	.cfi_restore 31
.LCFI142:
	.cfi_def_cfa_offset 0
	blr
.LVL920:
.L658:
.LCFI143:
	.cfi_restore_state
.LBB7921:
	.loc 3 189 0
	lwz 9,248(31)
	li 4,0
	li 5,-1
	lwzx 3,9,30
	lwz 9,0(3)
	lwz 0,80(9)
	mtctr 0
.LEHB85:
	bctrl
	b .L631
.LVL921:
.L659:
.LBB7912:
.LBB7908:
.LBB7907:
.LBB7906:
.LBB7905:
.LBB7899:
.LBB7900:
.LBB7901:
	.file 15 "d:\\devkitpro\\devkitppc\\bin\\../lib/gcc/powerpc-eabi/4.6.3/../../../../powerpc-eabi/include/c++/4.6.3/ext/atomicity.h"
	.loc 15 66 0
	lwz 11,-4(9)
.LVL922:
.LBE7901:
.LBE7900:
.LBE7899:
	.loc 9 240 0
	cmpwi 7,11,0
.LBB7904:
.LBB7903:
.LBB7902:
	.loc 15 67 0
	addi 11,11,-1
	stw 11,-4(9)
.LBE7902:
.LBE7903:
.LBE7904:
	.loc 9 240 0
	bgt+ 7,.L593
	.loc 9 244 0
	addi 4,1,8
	bl _ZNSs4_Rep10_M_destroyERKSaIcE
.LVL923:
	b .L593
.LVL924:
.L652:
.LBE7905:
.LBE7906:
.LBE7907:
.LBE7908:
.LBE7912:
.LBB7913:
.LBB7796:
.LBB7795:
.LBB7794:
.LBB7792:
.LBB7785:
.LBB7786:
.LBB7787:
	.loc 15 66 0
	lwz 11,-4(9)
.LVL925:
.LBE7787:
.LBE7786:
.LBE7785:
	.loc 9 240 0
	cmpwi 7,11,0
.LBB7790:
.LBB7789:
.LBB7788:
	.loc 15 67 0
	addi 11,11,-1
	stw 11,-4(9)
.LBE7788:
.LBE7789:
.LBE7790:
	.loc 9 240 0
	bgt+ 7,.L603
	.loc 9 244 0
	addi 4,1,13
	bl _ZNSbIwSt11char_traitsIwESaIwEE4_Rep10_M_destroyERKS1_
.LVL926:
	b .L603
.LVL927:
.L657:
.LBE7792:
.LBE7794:
.LBE7795:
.LBE7796:
.LBE7913:
.LBB7914:
.LBB7890:
.LBB7889:
.LBB7888:
.LBB7887:
.LBB7881:
.LBB7882:
.LBB7883:
	.loc 15 66 0
	lwz 11,-4(9)
.LVL928:
.LBE7883:
.LBE7882:
.LBE7881:
	.loc 9 240 0
	cmpwi 7,11,0
.LBB7886:
.LBB7885:
.LBB7884:
	.loc 15 67 0
	addi 11,11,-1
	stw 11,-4(9)
.LBE7884:
.LBE7885:
.LBE7886:
	.loc 9 240 0
	bgt+ 7,.L630
	.loc 9 244 0
	addi 4,1,9
	bl _ZNSbIwSt11char_traitsIwESaIwEE4_Rep10_M_destroyERKS1_
.LVL929:
	b .L630
.LVL930:
.L655:
.LBE7887:
.LBE7888:
.LBE7889:
.LBE7890:
.LBE7914:
.LBB7915:
.LBB7854:
.LBB7853:
.LBB7852:
.LBB7847:
.LBB7840:
.LBB7841:
.LBB7842:
	.loc 15 66 0
	lwz 11,-4(9)
.LVL931:
.LBE7842:
.LBE7841:
.LBE7840:
	.loc 9 240 0
	cmpwi 7,11,0
.LBB7845:
.LBB7844:
.LBB7843:
	.loc 15 67 0
	addi 11,11,-1
	stw 11,-4(9)
.LBE7843:
.LBE7844:
.LBE7845:
	.loc 9 240 0
	bgt+ 7,.L618
	.loc 9 244 0
	addi 4,1,11
	bl _ZNSs4_Rep10_M_destroyERKSaIcE
.LVL932:
	b .L618
.LVL933:
.L656:
.LBE7847:
.LBE7852:
.LBE7853:
.LBE7854:
.LBE7915:
.LBB7916:
.LBB7872:
.LBB7871:
.LBB7870:
.LBB7869:
.LBB7863:
.LBB7864:
.LBB7865:
	.loc 15 66 0
	lwz 11,-4(9)
.LVL934:
.LBE7865:
.LBE7864:
.LBE7863:
	.loc 9 240 0
	cmpwi 7,11,0
.LBB7868:
.LBB7867:
.LBB7866:
	.loc 15 67 0
	addi 11,11,-1
	stw 11,-4(9)
.LBE7866:
.LBE7867:
.LBE7868:
	.loc 9 240 0
	bgt+ 7,.L624
	.loc 9 244 0
	addi 4,1,10
	bl _ZNSbIwSt11char_traitsIwESaIwEE4_Rep10_M_destroyERKS1_
.LVL935:
	b .L624
.LVL936:
.L653:
.LBE7869:
.LBE7870:
.LBE7871:
.LBE7872:
.LBE7916:
.LBB7917:
.LBB7807:
.LBB7806:
.LBB7805:
	.loc 9 319 0
	lis 3,.LC7@ha
.LVL937:
	la 3,.LC7@l(3)
	bl _ZSt20__throw_out_of_rangePKc
.LEHE85:
.LVL938:
.L644:
	mr 31,3
.LVL939:
.L639:
.LBE7805:
.LBE7806:
.LBE7807:
.LBE7917:
	.loc 3 189 0
	addi 3,1,36
.LVL940:
	bl _ZNSsD1Ev
.LVL941:
	mr 3,31
.LEHB86:
	bl _Unwind_Resume
.LVL942:
.L654:
.LBB7918:
.LBB7829:
.LBB7828:
.LBB7827:
.LBB7825:
.LBB7818:
.LBB7819:
.LBB7820:
	.loc 15 66 0
	lwz 11,-4(9)
.LVL943:
.LBE7820:
.LBE7819:
.LBE7818:
	.loc 9 240 0
	cmpwi 7,11,0
.LBB7823:
.LBB7822:
.LBB7821:
	.loc 15 67 0
	addi 11,11,-1
	stw 11,-4(9)
.LBE7821:
.LBE7822:
.LBE7823:
	.loc 9 240 0
	bgt+ 7,.L611
	.loc 9 244 0
	addi 4,1,12
	bl _ZNSs4_Rep10_M_destroyERKSaIcE
.LVL944:
	b .L611
.LVL945:
.L643:
	mr 31,3
.LVL946:
.LBE7825:
.LBE7827:
.LBE7828:
.LBE7829:
.LBE7918:
	.loc 3 167 0
	addi 3,1,32
	bl _ZNSbIwSt11char_traitsIwESaIwEED1Ev
	mr 3,31
	bl _Unwind_Resume
.LEHE86:
.LVL947:
.L645:
	mr 31,3
.LVL948:
	.loc 3 171 0
	addi 3,1,28
.LVL949:
	bl _ZNSsD1Ev
.LVL950:
	b .L639
.LVL951:
.L646:
	mr 31,3
.LVL952:
	.loc 3 178 0
	addi 3,1,24
	bl _ZNSsD1Ev
	b .L639
.LVL953:
.L647:
	mr 31,3
.LVL954:
	.loc 3 182 0
	addi 3,1,20
	bl _ZNSbIwSt11char_traitsIwESaIwEED1Ev
	b .L639
.LVL955:
.L648:
	mr 31,3
.LVL956:
	.loc 3 183 0
	addi 3,1,16
	bl _ZNSbIwSt11char_traitsIwESaIwEED1Ev
	b .L639
.LBE7921:
	.cfi_endproc
.LFE1613:
	.section	.gcc_except_table
.LLSDA1613:
	.byte	0xff
	.byte	0xff
	.byte	0x1
	.uleb128 .LLSDACSE1613-.LLSDACSB1613
.LLSDACSB1613:
	.uleb128 .LEHB73-.LFB1613
	.uleb128 .LEHE73-.LEHB73
	.uleb128 0
	.uleb128 0
	.uleb128 .LEHB74-.LFB1613
	.uleb128 .LEHE74-.LEHB74
	.uleb128 .L643-.LFB1613
	.uleb128 0
	.uleb128 .LEHB75-.LFB1613
	.uleb128 .LEHE75-.LEHB75
	.uleb128 .L644-.LFB1613
	.uleb128 0
	.uleb128 .LEHB76-.LFB1613
	.uleb128 .LEHE76-.LEHB76
	.uleb128 .L645-.LFB1613
	.uleb128 0
	.uleb128 .LEHB77-.LFB1613
	.uleb128 .LEHE77-.LEHB77
	.uleb128 .L644-.LFB1613
	.uleb128 0
	.uleb128 .LEHB78-.LFB1613
	.uleb128 .LEHE78-.LEHB78
	.uleb128 .L646-.LFB1613
	.uleb128 0
	.uleb128 .LEHB79-.LFB1613
	.uleb128 .LEHE79-.LEHB79
	.uleb128 .L644-.LFB1613
	.uleb128 0
	.uleb128 .LEHB80-.LFB1613
	.uleb128 .LEHE80-.LEHB80
	.uleb128 .L647-.LFB1613
	.uleb128 0
	.uleb128 .LEHB81-.LFB1613
	.uleb128 .LEHE81-.LEHB81
	.uleb128 .L644-.LFB1613
	.uleb128 0
	.uleb128 .LEHB82-.LFB1613
	.uleb128 .LEHE82-.LEHB82
	.uleb128 .L648-.LFB1613
	.uleb128 0
	.uleb128 .LEHB83-.LFB1613
	.uleb128 .LEHE83-.LEHB83
	.uleb128 .L644-.LFB1613
	.uleb128 0
	.uleb128 .LEHB84-.LFB1613
	.uleb128 .LEHE84-.LEHB84
	.uleb128 0
	.uleb128 0
	.uleb128 .LEHB85-.LFB1613
	.uleb128 .LEHE85-.LEHB85
	.uleb128 .L644-.LFB1613
	.uleb128 0
	.uleb128 .LEHB86-.LFB1613
	.uleb128 .LEHE86-.LEHB86
	.uleb128 0
	.uleb128 0
.LLSDACSE1613:
	.section	".text"
	.size	_ZN17CustomFileBrowser9SetButtonEiSbIwSt11char_traitsIwESaIwEEbb, .-_ZN17CustomFileBrowser9SetButtonEiSbIwSt11char_traitsIwESaIwEEbb
	.align 2
	.type	_ZN17CustomFileBrowser9SetButtonEiSbIwSt11char_traitsIwESaIwEEbb.constprop.246, @function
_ZN17CustomFileBrowser9SetButtonEiSbIwSt11char_traitsIwESaIwEEbb.constprop.246:
.LFB2757:
	.loc 3 147 0
	.cfi_startproc
	.cfi_personality 0,__gxx_personality_v0
	.cfi_lsda 0,.LLSDA2757
.LVL957:
	stwu 1,-80(1)
.LCFI144:
	.cfi_def_cfa_offset 80
	mflr 0
	stw 30,72(1)
.LBB8104:
	.loc 3 149 0
	mr. 30,4
	.cfi_offset 30, -8
	.cfi_register 65, 0
.LBE8104:
	.loc 3 147 0
	stw 27,60(1)
	mr 27,6
	.cfi_offset 27, -20
	stw 29,68(1)
	mr 29,5
	.cfi_offset 29, -12
	stw 31,76(1)
	mr 31,3
	.cfi_offset 31, -4
	stw 0,84(1)
	stw 25,52(1)
	stw 26,56(1)
	stw 28,64(1)
.LBB8251:
	.loc 3 149 0
	blt- 0,.L660
	.cfi_offset 28, -16
	.cfi_offset 26, -24
	.cfi_offset 25, -28
	.cfi_offset 65, 4
.LBB8105:
.LBB8106:
	.loc 7 571 0
	lwz 9,252(3)
	lwz 0,248(3)
	subf 0,0,9
	srawi 0,0,2
.LBE8106:
.LBE8105:
	.loc 3 152 0
	cmpw 7,30,0
	bge- 7,.L717
	.loc 3 157 0
	cmpwi 7,7,0
	beq- 7,.L718
.LVL958:
.L663:
	.loc 3 164 0
	lwz 9,236(31)
.LBB8107:
.LBB8108:
	.loc 7 696 0
	slwi 30,30,2
.LVL959:
.LBE8108:
.LBE8107:
	.loc 3 164 0
	lwzx 3,9,30
	cmpwi 7,3,0
	beq- 7,.L664
	.loc 3 165 0
	lwz 9,0(3)
	lwz 0,4(9)
	mtctr 0
.LEHB87:
	bctrl
.LVL960:
.L664:
	.loc 3 167 0
	addi 3,1,16
	mr 4,29
	bl _ZNSbIwSt11char_traitsIwESaIwEEC1ERKS2_
.LEHE87:
	addi 3,1,36
	addi 4,1,16
.LEHB88:
	bl _Z8wstr2strSbIwSt11char_traitsIwESaIwEE
.LEHE88:
.LVL961:
.LBB8109:
.LBB8110:
.LBB8111:
.LBB8112:
.LBB8113:
.LBB8114:
	.loc 9 288 0
	lwz 9,16(1)
.LBE8114:
.LBE8113:
.LBE8112:
.LBB8115:
.LBB8116:
	.loc 9 235 0
	lis 28,_ZNSbIwSt11char_traitsIwESaIwEE4_Rep20_S_empty_rep_storageE@ha
	la 28,_ZNSbIwSt11char_traitsIwESaIwEE4_Rep20_S_empty_rep_storageE@l(28)
.LBE8116:
.LBE8115:
	.loc 9 534 0
	addi 3,9,-12
.LVL962:
.LBB8125:
.LBB8123:
	.loc 9 235 0
	cmpw 7,3,28
	bne- 7,.L719
.LVL963:
.L670:
.LBE8123:
.LBE8125:
.LBE8111:
.LBE8110:
.LBE8109:
.LBB8129:
.LBB8130:
	.loc 9 2022 0
	addi 3,1,36
.LVL964:
	li 4,46
	li 5,-1
.LEHB89:
	bl _ZNKSs5rfindEcj
.LVL965:
.LBE8130:
.LBE8129:
	.loc 3 169 0
	mr. 5,3
	ble- 0,.L671
.LVL966:
.LBB8131:
.LBB8132:
.LBB8133:
.LBB8134:
.LBB8135:
.LBB8136:
	.loc 9 711 0
	lwz 9,36(1)
.LBE8136:
.LBE8135:
	.loc 9 318 0
	lwz 0,-12(9)
	cmplw 7,5,0
	bgt- 7,.L720
.LBE8134:
.LBE8133:
	.loc 9 2157 0
	addi 3,1,20
.LVL967:
	addi 4,1,36
.LVL968:
	li 6,-1
	bl _ZNSsC1ERKSsjj
.LEHE89:
.LVL969:
.LBE8132:
.LBE8131:
.LBB8140:
.LBB8141:
	.loc 9 542 0
	addi 3,1,36
.LVL970:
	addi 4,1,20
.LVL971:
.LEHB90:
	bl _ZNSs6assignERKSs
.LEHE90:
.LVL972:
.LBE8141:
.LBE8140:
.LBB8142:
.LBB8143:
.LBB8144:
.LBB8145:
.LBB8146:
.LBB8147:
	.loc 9 288 0
	lwz 9,20(1)
.LBE8147:
.LBE8146:
.LBE8145:
.LBB8148:
.LBB8149:
	.loc 9 235 0
	lis 11,_ZNSs4_Rep20_S_empty_rep_storageE@ha
	la 0,_ZNSs4_Rep20_S_empty_rep_storageE@l(11)
.LBE8149:
.LBE8148:
	.loc 9 534 0
	addi 3,9,-12
.LVL973:
.LBB8158:
.LBB8156:
	.loc 9 235 0
	cmpw 7,3,0
	bne- 7,.L721
.LVL974:
.L678:
.LBE8156:
.LBE8158:
.LBE8144:
.LBE8143:
.LBE8142:
	.loc 3 172 0
	lis 4,.LC8@ha
	addi 3,1,36
.LVL975:
	la 4,.LC8@l(4)
.LEHB91:
	bl _ZNKSs7compareEPKc
.LVL976:
	cmpwi 7,3,0
	beq- 7,.L671
.LVL977:
.L679:
	.loc 3 178 0
	addi 3,1,24
	addi 4,1,36
.LVL978:
.LBB8162:
.LBB8163:
.LBB8164:
	.loc 3 326 0
	lwz 26,236(31)
.LBE8164:
.LBE8163:
.LBE8162:
	.loc 3 178 0
	bl _ZNSsC1ERKSs
.LEHE91:
.LVL979:
	mr 3,31
	addi 4,1,24
	mr 5,27
.LEHB92:
	bl _ZN17CustomFileBrowser14GetIconFromExtESsb.constprop.250
.LEHE92:
	stwx 3,26,30
.LVL980:
.LBB8167:
.LBB8168:
.LBB8169:
.LBB8170:
.LBB8171:
	.loc 9 235 0
	lis 27,_ZNSs4_Rep20_S_empty_rep_storageE@ha
	la 27,_ZNSs4_Rep20_S_empty_rep_storageE@l(27)
.LBE8171:
.LBE8170:
.LBB8180:
.LBB8181:
.LBB8182:
	.loc 9 288 0
	lwz 9,24(1)
.LBE8182:
.LBE8181:
.LBE8180:
	.loc 9 534 0
	addi 3,9,-12
.LVL981:
.LBB8183:
.LBB8178:
	.loc 9 235 0
	cmpw 7,3,27
	bne- 7,.L722
.LVL982:
.L685:
.LBE8178:
.LBE8183:
.LBE8169:
.LBE8168:
.LBE8167:
	.loc 3 179 0
	lwz 9,236(31)
	lwzx 3,9,30
	lis 9,.LC10@ha
	lfs 1,.LC10@l(9)
	lwz 9,0(3)
	lwz 0,104(9)
	mtctr 0
.LEHB93:
	bctrl
	.loc 3 180 0
	lwz 9,236(31)
	li 4,-7
	li 5,-7
	lwzx 3,9,30
	lwz 9,0(3)
	lwz 0,168(9)
	mtctr 0
	bctrl
	.loc 3 182 0
	lwz 9,200(31)
	addi 3,1,28
	mr 4,29
	lwzx 26,9,30
	lwz 9,0(26)
	lwz 25,212(9)
	bl _ZNSbIwSt11char_traitsIwESaIwEEC1ERKS2_
.LEHE93:
	mr 3,26
	addi 4,1,28
	mtctr 25
.LEHB94:
	bctrl
.LEHE94:
.LVL983:
.LBB8187:
.LBB8188:
.LBB8189:
.LBB8190:
.LBB8191:
.LBB8192:
	.loc 9 288 0
	lwz 9,28(1)
.LBE8192:
.LBE8191:
.LBE8190:
	.loc 9 534 0
	addi 3,9,-12
.LVL984:
.LBB8193:
.LBB8194:
	.loc 9 235 0
	cmpw 7,3,28
	bne- 7,.L723
.LVL985:
.L691:
.LBE8194:
.LBE8193:
.LBE8189:
.LBE8188:
.LBE8187:
	.loc 3 183 0
	lwz 9,212(31)
	mr 4,29
	addi 3,1,32
	lwzx 26,9,30
	lwz 9,0(26)
	lwz 29,212(9)
.LVL986:
.LEHB95:
	bl _ZNSbIwSt11char_traitsIwESaIwEEC1ERKS2_
.LEHE95:
.LVL987:
	mr 3,26
	addi 4,1,32
	mtctr 29
.LEHB96:
	bctrl
.LEHE96:
.LVL988:
.LBB8205:
.LBB8206:
.LBB8207:
.LBB8208:
.LBB8209:
.LBB8210:
	.loc 9 288 0
	lwz 9,32(1)
.LBE8210:
.LBE8209:
.LBE8208:
	.loc 9 534 0
	addi 3,9,-12
.LVL989:
.LBB8211:
.LBB8212:
	.loc 9 235 0
	cmpw 7,3,28
	bne- 7,.L724
.LVL990:
.L697:
.LBE8212:
.LBE8211:
.LBE8207:
.LBE8206:
.LBE8205:
	.loc 3 185 0
	lwz 11,248(31)
	lwz 9,236(31)
	lwzx 3,11,30
	lwzx 4,9,30
.LEHB97:
	bl _ZN9GuiButton7SetIconEP8GuiImage
	.loc 3 186 0
	lwz 9,248(31)
	li 4,1
	lwzx 3,9,30
	lwz 9,0(3)
	lwz 0,48(9)
	mtctr 0
	bctrl
	.loc 3 188 0
	lwz 9,248(31)
	lwzx 3,9,30
	lwz 9,0(3)
	lwz 0,84(9)
	mtctr 0
	bctrl
	cmpwi 7,3,4
	beq- 7,.L725
.L698:
.LVL991:
.LBB8223:
.LBB8224:
.LBB8225:
.LBB8226:
.LBB8227:
.LBB8228:
	.loc 9 288 0
	lwz 9,36(1)
.LBE8228:
.LBE8227:
.LBE8226:
	.loc 9 534 0
	addi 3,9,-12
.LVL992:
.LBB8229:
.LBB8230:
	.loc 9 235 0
	cmpw 7,3,27
	bne- 7,.L726
.LVL993:
.L660:
.LBE8230:
.LBE8229:
.LBE8225:
.LBE8224:
.LBE8223:
.LBE8251:
	.loc 3 190 0
	lwz 0,84(1)
	lwz 25,52(1)
	mtlr 0
	lwz 26,56(1)
	lwz 27,60(1)
	lwz 28,64(1)
	lwz 29,68(1)
	lwz 30,72(1)
	lwz 31,76(1)
.LVL994:
	addi 1,1,80
	.cfi_remember_state
.LCFI145:
	.cfi_def_cfa_offset 0
	.cfi_restore 31
	.cfi_restore 30
	.cfi_restore 29
	.cfi_restore 28
	.cfi_restore 27
	.cfi_restore 26
	.cfi_restore 25
	blr
.LVL995:
.L671:
.LCFI146:
	.cfi_restore_state
.LBB8252:
.LBB8241:
.LBB8166:
.LBB8165:
	.loc 9 1121 0
	lis 4,.LC9@ha
	addi 3,1,36
.LVL996:
	la 4,.LC9@l(4)
	li 5,0
	bl _ZNSs6assignEPKcj
.LEHE97:
.LVL997:
	b .L679
.LVL998:
.L717:
.LBE8165:
.LBE8166:
.LBE8241:
	.loc 3 154 0
	stw 7,40(1)
.LEHB98:
	bl _ZN17CustomFileBrowser9AddButtonEv
.LVL999:
	lwz 7,40(1)
	.loc 3 157 0
	cmpwi 7,7,0
	bne+ 7,.L663
.L718:
.LVL1000:
	.loc 3 159 0
	lwz 9,248(31)
.LBB8242:
.LBB8243:
	.loc 7 696 0
	slwi 30,30,2
.LVL1001:
.LBE8243:
.LBE8242:
	.loc 3 159 0
	li 4,0
	lwzx 3,9,30
	lwz 9,0(3)
	lwz 0,48(9)
	mtctr 0
	bctrl
	.loc 3 160 0
	lwz 9,248(31)
	li 4,4
	li 5,-1
	lwzx 3,9,30
	lwz 9,0(3)
	lwz 0,80(9)
	mtctr 0
	bctrl
.LEHE98:
.LBE8252:
	.loc 3 190 0
	lwz 0,84(1)
	lwz 25,52(1)
	mtlr 0
	lwz 26,56(1)
	lwz 27,60(1)
	lwz 28,64(1)
	lwz 29,68(1)
.LVL1002:
	lwz 30,72(1)
	lwz 31,76(1)
.LVL1003:
	addi 1,1,80
	.cfi_remember_state
	.cfi_restore 25
	.cfi_restore 26
	.cfi_restore 27
	.cfi_restore 28
	.cfi_restore 29
	.cfi_restore 30
	.cfi_restore 31
.LCFI147:
	.cfi_def_cfa_offset 0
	blr
.LVL1004:
.L725:
.LCFI148:
	.cfi_restore_state
.LBB8253:
	.loc 3 189 0
	lwz 9,248(31)
	li 4,0
	li 5,-1
	lwzx 3,9,30
	lwz 9,0(3)
	lwz 0,80(9)
	mtctr 0
.LEHB99:
	bctrl
	b .L698
.LVL1005:
.L726:
.LBB8244:
.LBB8240:
.LBB8239:
.LBB8238:
.LBB8237:
.LBB8231:
.LBB8232:
.LBB8233:
	.loc 15 66 0
	lwz 11,-4(9)
.LVL1006:
.LBE8233:
.LBE8232:
.LBE8231:
	.loc 9 240 0
	cmpwi 7,11,0
.LBB8236:
.LBB8235:
.LBB8234:
	.loc 15 67 0
	addi 11,11,-1
	stw 11,-4(9)
.LBE8234:
.LBE8235:
.LBE8236:
	.loc 9 240 0
	bgt+ 7,.L660
	.loc 9 244 0
	addi 4,1,8
	bl _ZNSs4_Rep10_M_destroyERKSaIcE
.LVL1007:
	b .L660
.LVL1008:
.L719:
.LBE8237:
.LBE8238:
.LBE8239:
.LBE8240:
.LBE8244:
.LBB8245:
.LBB8128:
.LBB8127:
.LBB8126:
.LBB8124:
.LBB8117:
.LBB8118:
.LBB8119:
	.loc 15 66 0
	lwz 11,-4(9)
.LVL1009:
.LBE8119:
.LBE8118:
.LBE8117:
	.loc 9 240 0
	cmpwi 7,11,0
.LBB8122:
.LBB8121:
.LBB8120:
	.loc 15 67 0
	addi 11,11,-1
	stw 11,-4(9)
.LBE8120:
.LBE8121:
.LBE8122:
	.loc 9 240 0
	bgt+ 7,.L670
	.loc 9 244 0
	addi 4,1,13
	bl _ZNSbIwSt11char_traitsIwESaIwEE4_Rep10_M_destroyERKS1_
.LVL1010:
	b .L670
.LVL1011:
.L724:
.LBE8124:
.LBE8126:
.LBE8127:
.LBE8128:
.LBE8245:
.LBB8246:
.LBB8222:
.LBB8221:
.LBB8220:
.LBB8219:
.LBB8213:
.LBB8214:
.LBB8215:
	.loc 15 66 0
	lwz 11,-4(9)
.LVL1012:
.LBE8215:
.LBE8214:
.LBE8213:
	.loc 9 240 0
	cmpwi 7,11,0
.LBB8218:
.LBB8217:
.LBB8216:
	.loc 15 67 0
	addi 11,11,-1
	stw 11,-4(9)
.LBE8216:
.LBE8217:
.LBE8218:
	.loc 9 240 0
	bgt+ 7,.L697
	.loc 9 244 0
	addi 4,1,9
	bl _ZNSbIwSt11char_traitsIwESaIwEE4_Rep10_M_destroyERKS1_
.LVL1013:
	b .L697
.LVL1014:
.L722:
.LBE8219:
.LBE8220:
.LBE8221:
.LBE8222:
.LBE8246:
.LBB8247:
.LBB8186:
.LBB8185:
.LBB8184:
.LBB8179:
.LBB8172:
.LBB8173:
.LBB8174:
	.loc 15 66 0
	lwz 11,-4(9)
.LVL1015:
.LBE8174:
.LBE8173:
.LBE8172:
	.loc 9 240 0
	cmpwi 7,11,0
.LBB8177:
.LBB8176:
.LBB8175:
	.loc 15 67 0
	addi 11,11,-1
	stw 11,-4(9)
.LBE8175:
.LBE8176:
.LBE8177:
	.loc 9 240 0
	bgt+ 7,.L685
	.loc 9 244 0
	addi 4,1,11
	bl _ZNSs4_Rep10_M_destroyERKSaIcE
.LVL1016:
	b .L685
.LVL1017:
.L723:
.LBE8179:
.LBE8184:
.LBE8185:
.LBE8186:
.LBE8247:
.LBB8248:
.LBB8204:
.LBB8203:
.LBB8202:
.LBB8201:
.LBB8195:
.LBB8196:
.LBB8197:
	.loc 15 66 0
	lwz 11,-4(9)
.LVL1018:
.LBE8197:
.LBE8196:
.LBE8195:
	.loc 9 240 0
	cmpwi 7,11,0
.LBB8200:
.LBB8199:
.LBB8198:
	.loc 15 67 0
	addi 11,11,-1
	stw 11,-4(9)
.LBE8198:
.LBE8199:
.LBE8200:
	.loc 9 240 0
	bgt+ 7,.L691
	.loc 9 244 0
	addi 4,1,10
	bl _ZNSbIwSt11char_traitsIwESaIwEE4_Rep10_M_destroyERKS1_
.LVL1019:
	b .L691
.LVL1020:
.L720:
.LBE8201:
.LBE8202:
.LBE8203:
.LBE8204:
.LBE8248:
.LBB8249:
.LBB8139:
.LBB8138:
.LBB8137:
	.loc 9 319 0
	lis 3,.LC7@ha
.LVL1021:
	la 3,.LC7@l(3)
	bl _ZSt20__throw_out_of_rangePKc
.LEHE99:
.LVL1022:
.L710:
	mr 31,3
.LVL1023:
.L706:
.LBE8137:
.LBE8138:
.LBE8139:
.LBE8249:
	.loc 3 189 0
	addi 3,1,36
.LVL1024:
	bl _ZNSsD1Ev
.LVL1025:
	mr 3,31
.LEHB100:
	bl _Unwind_Resume
.LVL1026:
.L721:
.LBB8250:
.LBB8161:
.LBB8160:
.LBB8159:
.LBB8157:
.LBB8150:
.LBB8151:
.LBB8152:
	.loc 15 66 0
	lwz 11,-4(9)
.LVL1027:
.LBE8152:
.LBE8151:
.LBE8150:
	.loc 9 240 0
	cmpwi 7,11,0
.LBB8155:
.LBB8154:
.LBB8153:
	.loc 15 67 0
	addi 11,11,-1
	stw 11,-4(9)
.LBE8153:
.LBE8154:
.LBE8155:
	.loc 9 240 0
	bgt+ 7,.L678
	.loc 9 244 0
	addi 4,1,12
	bl _ZNSs4_Rep10_M_destroyERKSaIcE
.LVL1028:
	b .L678
.LVL1029:
.L715:
	mr 31,3
.LVL1030:
.LBE8157:
.LBE8159:
.LBE8160:
.LBE8161:
.LBE8250:
	.loc 3 167 0
	addi 3,1,16
	bl _ZNSbIwSt11char_traitsIwESaIwEED1Ev
	mr 3,31
	bl _Unwind_Resume
.LEHE100:
.LVL1031:
.L714:
	mr 31,3
.LVL1032:
	.loc 3 171 0
	addi 3,1,20
.LVL1033:
	bl _ZNSsD1Ev
.LVL1034:
	b .L706
.LVL1035:
.L713:
	mr 31,3
.LVL1036:
	.loc 3 178 0
	addi 3,1,24
	bl _ZNSsD1Ev
	b .L706
.LVL1037:
.L712:
	mr 31,3
.LVL1038:
	.loc 3 182 0
	addi 3,1,28
	bl _ZNSbIwSt11char_traitsIwESaIwEED1Ev
	b .L706
.LVL1039:
.L711:
	mr 31,3
.LVL1040:
	.loc 3 183 0
	addi 3,1,32
	bl _ZNSbIwSt11char_traitsIwESaIwEED1Ev
	b .L706
.LBE8253:
	.cfi_endproc
.LFE2757:
	.section	.gcc_except_table
.LLSDA2757:
	.byte	0xff
	.byte	0xff
	.byte	0x1
	.uleb128 .LLSDACSE2757-.LLSDACSB2757
.LLSDACSB2757:
	.uleb128 .LEHB87-.LFB2757
	.uleb128 .LEHE87-.LEHB87
	.uleb128 0
	.uleb128 0
	.uleb128 .LEHB88-.LFB2757
	.uleb128 .LEHE88-.LEHB88
	.uleb128 .L715-.LFB2757
	.uleb128 0
	.uleb128 .LEHB89-.LFB2757
	.uleb128 .LEHE89-.LEHB89
	.uleb128 .L710-.LFB2757
	.uleb128 0
	.uleb128 .LEHB90-.LFB2757
	.uleb128 .LEHE90-.LEHB90
	.uleb128 .L714-.LFB2757
	.uleb128 0
	.uleb128 .LEHB91-.LFB2757
	.uleb128 .LEHE91-.LEHB91
	.uleb128 .L710-.LFB2757
	.uleb128 0
	.uleb128 .LEHB92-.LFB2757
	.uleb128 .LEHE92-.LEHB92
	.uleb128 .L713-.LFB2757
	.uleb128 0
	.uleb128 .LEHB93-.LFB2757
	.uleb128 .LEHE93-.LEHB93
	.uleb128 .L710-.LFB2757
	.uleb128 0
	.uleb128 .LEHB94-.LFB2757
	.uleb128 .LEHE94-.LEHB94
	.uleb128 .L712-.LFB2757
	.uleb128 0
	.uleb128 .LEHB95-.LFB2757
	.uleb128 .LEHE95-.LEHB95
	.uleb128 .L710-.LFB2757
	.uleb128 0
	.uleb128 .LEHB96-.LFB2757
	.uleb128 .LEHE96-.LEHB96
	.uleb128 .L711-.LFB2757
	.uleb128 0
	.uleb128 .LEHB97-.LFB2757
	.uleb128 .LEHE97-.LEHB97
	.uleb128 .L710-.LFB2757
	.uleb128 0
	.uleb128 .LEHB98-.LFB2757
	.uleb128 .LEHE98-.LEHB98
	.uleb128 0
	.uleb128 0
	.uleb128 .LEHB99-.LFB2757
	.uleb128 .LEHE99-.LEHB99
	.uleb128 .L710-.LFB2757
	.uleb128 0
	.uleb128 .LEHB100-.LFB2757
	.uleb128 .LEHE100-.LEHB100
	.uleb128 0
	.uleb128 0
.LLSDACSE2757:
	.section	".text"
	.size	_ZN17CustomFileBrowser9SetButtonEiSbIwSt11char_traitsIwESaIwEEbb.constprop.246, .-_ZN17CustomFileBrowser9SetButtonEiSbIwSt11char_traitsIwESaIwEEbb.constprop.246
	.align 2
	.globl _ZN17CustomFileBrowser12OnListChangeEii
	.type	_ZN17CustomFileBrowser12OnListChangeEii, @function
_ZN17CustomFileBrowser12OnListChangeEii:
.LFB1618:
	.loc 3 246 0
	.cfi_startproc
	.cfi_personality 0,__gxx_personality_v0
	.cfi_lsda 0,.LLSDA1618
.LVL1041:
	mflr 0
	stwu 1,-40(1)
.LCFI149:
	.cfi_def_cfa_offset 40
	.cfi_register 65, 0
	stw 30,32(1)
	mr 30,3
	.cfi_offset 30, -8
	stw 0,44(1)
	stw 29,28(1)
	mr 29,5
	.cfi_offset 29, -12
	.cfi_offset 65, 4
.LBB8325:
	.loc 3 247 0
	lwz 3,260(3)
.LVL1042:
.LBE8325:
	.loc 3 246 0
	stw 31,36(1)
	mr 31,4
	.cfi_offset 31, -4
	stw 28,24(1)
.LEHB101:
.LBB8391:
	.loc 3 247 0
	.cfi_offset 28, -16
	bl _ZN9Scrollbar11SetSelectedEii
.LVL1043:
	.loc 3 249 0
	lwz 3,156(30)
	mr 4,29
	.loc 3 248 0
	stw 31,188(30)
	.loc 3 249 0
	lwz 9,0(3)
	lwz 0,20(9)
	mtctr 0
	bctrl
.LVL1044:
.LBB8326:
	.loc 3 251 0
	lwz 0,196(30)
	cmpwi 7,0,0
	ble- 7,.L727
	li 31,0
.LVL1045:
	b .L750
.LVL1046:
.L760:
.LBB8327:
.LBB8328:
	.loc 3 255 0
	lwz 4,156(30)
	addi 3,1,20
	mr 5,28
	lwz 9,0(4)
	lwz 0,68(9)
	mtctr 0
	bctrl
.LEHE101:
	.loc 3 256 0
	lwz 3,156(30)
	mr 4,28
	lwz 9,0(3)
	lwz 0,44(9)
	mtctr 0
.LEHB102:
	bctrl
	mr 28,3
.LVL1047:
	.loc 3 258 0
	addi 4,1,20
	addi 3,1,16
.LVL1048:
	bl _ZNSbIwSt11char_traitsIwESaIwEEC1ERKS2_
.LEHE102:
	.loc 3 258 0 is_stmt 0 discriminator 1
	mr 3,30
	mr 4,31
	addi 5,1,16
	mr 6,28
	li 7,1
.LEHB103:
	bl _ZN17CustomFileBrowser9SetButtonEiSbIwSt11char_traitsIwESaIwEEbb.constprop.246
.LEHE103:
.LVL1049:
.LBB8329:
.LBB8330:
.LBB8331:
.LBB8332:
.LBB8333:
.LBB8334:
	.loc 9 288 0 is_stmt 1
	lwz 9,16(1)
.LBE8334:
.LBE8333:
.LBE8332:
.LBB8335:
.LBB8336:
	.loc 9 235 0
	lis 28,_ZNSbIwSt11char_traitsIwESaIwEE4_Rep20_S_empty_rep_storageE@ha
.LVL1050:
	la 28,_ZNSbIwSt11char_traitsIwESaIwEE4_Rep20_S_empty_rep_storageE@l(28)
.LBE8336:
.LBE8335:
	.loc 9 534 0
	addi 3,9,-12
.LVL1051:
.LBB8345:
.LBB8343:
	.loc 9 235 0
	cmpw 7,3,28
	bne- 7,.L758
.LVL1052:
.L735:
.LBE8343:
.LBE8345:
.LBE8331:
.LBE8330:
.LBE8329:
.LBB8349:
.LBB8350:
.LBB8351:
.LBB8352:
.LBB8353:
.LBB8354:
	.loc 9 288 0
	lwz 9,20(1)
.LBE8354:
.LBE8353:
.LBE8352:
	.loc 9 534 0
	addi 3,9,-12
.LVL1053:
.LBB8355:
.LBB8356:
	.loc 9 235 0
	cmpw 7,3,28
	bne- 7,.L759
.LVL1054:
.L749:
.LBE8356:
.LBE8355:
.LBE8351:
.LBE8350:
.LBE8349:
.LBE8328:
.LBE8327:
	.loc 3 251 0
	lwz 0,196(30)
	addi 31,31,1
.LVL1055:
	cmpw 7,0,31
	ble- 7,.L727
.LVL1056:
.L750:
.LBB8387:
	.loc 3 253 0
	lwz 3,156(30)
.LBE8387:
	.loc 3 245 0
	add 28,31,29
.LBB8388:
	.loc 3 253 0
	lwz 9,0(3)
	lwz 0,28(9)
	mtctr 0
.LEHB104:
	bctrl
	cmpw 7,3,28
	bgt- 7,.L760
	.loc 3 261 0
	lis 4,.LC11@ha
	addi 3,1,12
	la 4,.LC11@l(4)
	addi 5,1,11
	bl _ZNSbIwSt11char_traitsIwESaIwEEC1EPKwRKS1_
.LEHE104:
	mr 3,30
	mr 4,31
	addi 5,1,12
	li 6,0
	li 7,0
.LEHB105:
	bl _ZN17CustomFileBrowser9SetButtonEiSbIwSt11char_traitsIwESaIwEEbb.constprop.246
.LEHE105:
.LVL1057:
.LBB8369:
.LBB8370:
.LBB8371:
.LBB8372:
.LBB8373:
.LBB8374:
	.loc 9 288 0
	lwz 9,12(1)
.LBE8374:
.LBE8373:
.LBE8372:
.LBB8375:
.LBB8376:
	.loc 9 235 0
	lis 11,_ZNSbIwSt11char_traitsIwESaIwEE4_Rep20_S_empty_rep_storageE@ha
	la 0,_ZNSbIwSt11char_traitsIwESaIwEE4_Rep20_S_empty_rep_storageE@l(11)
.LBE8376:
.LBE8375:
	.loc 9 534 0
	addi 3,9,-12
.LVL1058:
.LBB8384:
.LBB8383:
	.loc 9 235 0
	cmpw 7,3,0
	beq+ 7,.L749
.LVL1059:
.LBB8377:
.LBB8378:
.LBB8379:
	.loc 15 66 0
	lwz 11,-4(9)
.LVL1060:
.LBE8379:
.LBE8378:
.LBE8377:
	.loc 9 240 0
	cmpwi 7,11,0
.LBB8382:
.LBB8381:
.LBB8380:
	.loc 15 67 0
	addi 11,11,-1
	stw 11,-4(9)
.LBE8380:
.LBE8381:
.LBE8382:
	.loc 9 240 0
	bgt+ 7,.L749
	.loc 9 244 0
	addi 4,1,8
	bl _ZNSbIwSt11char_traitsIwESaIwEE4_Rep10_M_destroyERKS1_
.LVL1061:
	b .L749
.LVL1062:
.L727:
.LBE8383:
.LBE8384:
.LBE8371:
.LBE8370:
.LBE8369:
.LBE8388:
.LBE8326:
.LBE8391:
	.loc 3 263 0
	lwz 0,44(1)
	lwz 28,24(1)
	mtlr 0
	lwz 29,28(1)
.LVL1063:
	lwz 30,32(1)
.LVL1064:
	lwz 31,36(1)
	addi 1,1,40
	.cfi_remember_state
.LCFI150:
	.cfi_def_cfa_offset 0
	.cfi_restore 31
	.cfi_restore 30
	.cfi_restore 29
	.cfi_restore 28
	blr
.LVL1065:
.L759:
.LCFI151:
	.cfi_restore_state
.LBB8392:
.LBB8390:
.LBB8389:
.LBB8385:
.LBB8367:
.LBB8366:
.LBB8365:
.LBB8364:
.LBB8363:
.LBB8357:
.LBB8358:
.LBB8359:
	.loc 15 66 0
	lwz 11,-4(9)
.LVL1066:
.LBE8359:
.LBE8358:
.LBE8357:
	.loc 9 240 0
	cmpwi 7,11,0
.LBB8362:
.LBB8361:
.LBB8360:
	.loc 15 67 0
	addi 11,11,-1
	stw 11,-4(9)
.LBE8360:
.LBE8361:
.LBE8362:
	.loc 9 240 0
	bgt+ 7,.L749
	.loc 9 244 0
	addi 4,1,9
	bl _ZNSbIwSt11char_traitsIwESaIwEE4_Rep10_M_destroyERKS1_
.LVL1067:
	b .L749
.LVL1068:
.L758:
.LBE8363:
.LBE8364:
.LBE8365:
.LBE8366:
.LBE8367:
.LBB8368:
.LBB8348:
.LBB8347:
.LBB8346:
.LBB8344:
.LBB8337:
.LBB8338:
.LBB8339:
	.loc 15 66 0
	lwz 11,-4(9)
.LVL1069:
.LBE8339:
.LBE8338:
.LBE8337:
	.loc 9 240 0
	cmpwi 7,11,0
.LBB8342:
.LBB8341:
.LBB8340:
	.loc 15 67 0
	addi 11,11,-1
	stw 11,-4(9)
.LBE8340:
.LBE8341:
.LBE8342:
	.loc 9 240 0
	bgt+ 7,.L735
	.loc 9 244 0
	addi 4,1,10
	bl _ZNSbIwSt11char_traitsIwESaIwEE4_Rep10_M_destroyERKS1_
.LVL1070:
	b .L735
.LVL1071:
.L756:
	mr 31,3
.LBE8344:
.LBE8346:
.LBE8347:
.LBE8348:
.LBE8368:
.LBE8385:
	.loc 3 261 0
	addi 3,1,12
	bl _ZNSbIwSt11char_traitsIwESaIwEED1Ev
	mr 3,31
.LEHB106:
	bl _Unwind_Resume
.LVL1072:
.L755:
	mr 31,3
.LBB8386:
	.loc 3 258 0
	addi 3,1,16
	bl _ZNSbIwSt11char_traitsIwESaIwEED1Ev
.LVL1073:
.L752:
	addi 3,1,20
	bl _ZNSbIwSt11char_traitsIwESaIwEED1Ev
	mr 3,31
	bl _Unwind_Resume
.LEHE106:
.L754:
	mr 31,3
	b .L752
.LBE8386:
.LBE8389:
.LBE8390:
.LBE8392:
	.cfi_endproc
.LFE1618:
	.section	.gcc_except_table
.LLSDA1618:
	.byte	0xff
	.byte	0xff
	.byte	0x1
	.uleb128 .LLSDACSE1618-.LLSDACSB1618
.LLSDACSB1618:
	.uleb128 .LEHB101-.LFB1618
	.uleb128 .LEHE101-.LEHB101
	.uleb128 0
	.uleb128 0
	.uleb128 .LEHB102-.LFB1618
	.uleb128 .LEHE102-.LEHB102
	.uleb128 .L754-.LFB1618
	.uleb128 0
	.uleb128 .LEHB103-.LFB1618
	.uleb128 .LEHE103-.LEHB103
	.uleb128 .L755-.LFB1618
	.uleb128 0
	.uleb128 .LEHB104-.LFB1618
	.uleb128 .LEHE104-.LEHB104
	.uleb128 0
	.uleb128 0
	.uleb128 .LEHB105-.LFB1618
	.uleb128 .LEHE105-.LEHB105
	.uleb128 .L756-.LFB1618
	.uleb128 0
	.uleb128 .LEHB106-.LFB1618
	.uleb128 .LEHE106-.LEHB106
	.uleb128 0
	.uleb128 0
.LLSDACSE1618:
	.section	".text"
	.size	_ZN17CustomFileBrowser12OnListChangeEii, .-_ZN17CustomFileBrowser12OnListChangeEii
	.align 2
	.globl _ZN17CustomFileBrowser6UpdateEP10GuiTrigger
	.type	_ZN17CustomFileBrowser6UpdateEP10GuiTrigger, @function
_ZN17CustomFileBrowser6UpdateEP10GuiTrigger:
.LFB1620:
	.loc 3 282 0
	.cfi_startproc
.LVL1074:
	mflr 0
	stwu 1,-40(1)
.LCFI152:
	.cfi_def_cfa_offset 40
	.cfi_register 65, 0
	stw 29,28(1)
	mr 29,4
	.cfi_offset 29, -12
	stw 0,44(1)
	stw 31,36(1)
	mr 31,3
	.cfi_offset 31, -4
	.cfi_offset 65, 4
.LBB8417:
	.loc 3 283 0
	lwz 0,72(3)
.LBE8417:
	.loc 3 282 0
	stw 26,16(1)
.LBB8418:
	.loc 3 283 0
	cmpwi 7,0,4
.LBE8418:
	.loc 3 282 0
	stw 27,20(1)
	stw 28,24(1)
	stw 30,32(1)
.LBB8419:
	.loc 3 283 0
	beq- 7,.L761
	.cfi_offset 30, -8
	.cfi_offset 28, -16
	.cfi_offset 27, -20
	.cfi_offset 26, -24
	.loc 3 283 0 is_stmt 0 discriminator 2
	cmpwi 7,4,0
	beq- 7,.L761
	.loc 3 283 0 discriminator 3
	lwz 3,156(3)
.LVL1075:
	lwz 9,0(3)
	lwz 0,32(9)
	mtctr 0
	bctrl
.LVL1076:
	cmpwi 7,3,0
	beq- 7,.L781
.L761:
.LBE8419:
	.loc 3 326 0 is_stmt 1
	lwz 0,44(1)
	lwz 26,16(1)
	mtlr 0
	lwz 27,20(1)
	lwz 28,24(1)
	lwz 29,28(1)
.LVL1077:
	lwz 30,32(1)
	lwz 31,36(1)
.LVL1078:
	addi 1,1,40
	.cfi_remember_state
.LCFI153:
	.cfi_def_cfa_offset 0
	.cfi_restore 31
	.cfi_restore 30
	.cfi_restore 29
	.cfi_restore 28
	.cfi_restore 27
	.cfi_restore 26
	blr
.LVL1079:
.L781:
.LCFI154:
	.cfi_restore_state
.LBB8420:
	.loc 3 286 0
	lwz 3,260(31)
	mr 4,29
	lwz 9,0(3)
	lwz 0,188(9)
	mtctr 0
	bctrl
	.loc 3 289 0
	lwz 3,156(31)
	cmpwi 7,3,0
	beq- 7,.L761
.LVL1080:
.LBE8420:
.LBB8421:
.LBB8422:
	.loc 3 292 0
	lwz 9,0(3)
	lwz 30,192(31)
	lwz 0,28(9)
	mtctr 0
	bctrl
	cmpw 7,30,3
	beq- 7,.L764
	.loc 3 294 0
	lwz 3,156(31)
	lwz 9,0(3)
	lwz 0,28(9)
	mtctr 0
	bctrl
	mr 4,3
	stw 3,192(31)
	.loc 3 295 0
	lwz 3,260(31)
	bl _ZN9Scrollbar14SetEntrieCountEi
.L764:
	.loc 3 298 0
	lwz 3,156(31)
	lwz 9,0(3)
	lwz 0,36(9)
	mtctr 0
	bctrl
	cmpwi 7,3,0
	bne- 7,.L782
.L765:
.LVL1081:
.LBE8422:
	.loc 3 326 0
	lwz 9,248(31)
.LBB8444:
.LBB8423:
.LBB8424:
.LBB8425:
	.loc 7 571 0
	lwz 4,252(31)
	subf 4,9,4
	srawi 4,4,2
.LBE8425:
.LBE8424:
	.loc 3 301 0
	cmpwi 7,4,0
	ble- 7,.L766
.LBB8429:
	.loc 3 303 0
	lwz 0,188(31)
.LBE8429:
	.loc 3 301 0
	li 28,0
	mr 11,9
	li 30,0
.LBB8432:
	.loc 3 303 0
	cmpw 7,0,28
	bne- 7,.L783
.LVL1082:
.L767:
	.loc 3 305 0
	lwzx 3,11,30
	lwz 9,0(3)
	lwz 0,84(9)
	mtctr 0
	bctrl
	cmpwi 7,3,0
	beq- 7,.L770
.LVL1083:
.L776:
	.loc 3 310 0
	lwz 9,12(29)
	.loc 3 308 0
	lwz 27,8(29)
.LVL1084:
	.loc 3 310 0
	lwz 0,172(9)
	cmpwi 7,0,0
	bne- 7,.L784
.LVL1085:
.L777:
	.loc 3 313 0
	lwz 9,248(31)
	mr 4,29
	lwzx 3,9,30
	lwz 9,0(3)
	lwz 0,188(9)
	mtctr 0
	bctrl
	.loc 3 316 0
	lwz 9,248(31)
	.loc 3 314 0
	stw 27,8(29)
	.loc 3 316 0
	lwzx 3,9,30
	lwz 9,0(3)
	lwz 0,84(9)
	mtctr 0
	bctrl
	cmpwi 7,3,1
	beq- 7,.L785
.L773:
.LBE8432:
.LBE8423:
.LBE8444:
	.loc 3 326 0
	lwz 9,248(31)
.LBB8445:
.LBB8441:
	.loc 3 301 0
	addi 28,28,1
.LVL1086:
.LBB8433:
.LBB8426:
	.loc 7 571 0
	lwz 4,252(31)
	addi 30,30,4
	subf 4,9,4
	srawi 4,4,2
.LBE8426:
.LBE8433:
	.loc 3 301 0
	cmpw 7,28,4
	bge- 7,.L766
.LVL1087:
.L778:
.LBB8434:
	.loc 3 303 0
	lwz 0,188(31)
.LBE8434:
	.loc 3 301 0
	mr 11,9
.LBB8435:
	.loc 3 303 0
	cmpw 7,0,28
	beq- 7,.L767
.LVL1088:
.L783:
	lwzx 3,9,30
	lwz 9,0(3)
	lwz 0,84(9)
	mtctr 0
	bctrl
	cmpwi 7,3,1
	beq- 7,.L768
	.loc 3 305 0
	lwz 0,188(31)
	cmpw 7,28,0
	bne+ 7,.L776
	lwz 11,248(31)
	b .L767
.LVL1089:
.L784:
	.loc 3 310 0
	lwz 11,248(31)
	lfs 13,176(9)
	lwzx 3,11,30
	lfs 0,180(9)
	fctiwz 13,13
	lwz 9,0(3)
	fctiwz 0,0
	lwz 0,164(9)
	addi 9,1,8
	stfiwx 13,0,9
	addi 9,1,12
	stfiwx 0,0,9
	mtctr 0
	lwz 4,8(1)
	lwz 5,12(1)
	bctrl
	cmpwi 7,3,0
	bne- 7,.L777
	.loc 3 313 0
	lwz 9,248(31)
	.loc 3 311 0
	li 0,-1
	stw 0,8(29)
	.loc 3 313 0
	mr 4,29
	lwzx 3,9,30
	lwz 9,0(3)
	lwz 0,188(9)
	mtctr 0
	bctrl
	.loc 3 316 0
	lwz 9,248(31)
	.loc 3 314 0
	stw 27,8(29)
	.loc 3 316 0
	lwzx 3,9,30
	lwz 9,0(3)
	lwz 0,84(9)
	mtctr 0
	bctrl
	cmpwi 7,3,1
	bne+ 7,.L773
.L785:
	.loc 3 319 0
	lwz 27,156(31)
.LVL1090:
.LBE8435:
.LBB8436:
.LBB8427:
	.loc 7 571 0
	addi 30,30,4
.LBE8427:
.LBE8436:
.LBB8437:
	.loc 3 318 0
	stw 28,188(31)
	.loc 3 319 0
	lwz 9,0(27)
	mr 3,27
	lwz 0,12(9)
	lwz 26,24(9)
	mtctr 0
	bctrl
	mtctr 26
	add 4,28,3
	mr 3,27
.LBE8437:
	.loc 3 301 0
	addi 28,28,1
.LBB8438:
	.loc 3 319 0
	bctrl
.LVL1091:
.LBE8438:
.LBE8441:
.LBE8445:
	.loc 3 326 0
	lwz 9,248(31)
.LBB8446:
.LBB8442:
.LBB8439:
.LBB8428:
	.loc 7 571 0
	lwz 4,252(31)
	subf 4,9,4
	srawi 4,4,2
.LBE8428:
.LBE8439:
	.loc 3 301 0
	cmpw 7,28,4
	blt+ 7,.L778
.LVL1092:
.L766:
.LBE8442:
	.loc 3 323 0
	lwz 3,260(31)
	bl _ZN9Scrollbar11SetPageSizeEi
	.loc 3 324 0
	lwz 3,260(31)
	li 4,0
	bl _ZN9Scrollbar10SetRowSizeEi
	.loc 3 325 0
	lwz 3,156(31)
	lwz 30,260(31)
	lwz 9,0(3)
	lwz 31,188(31)
.LVL1093:
	lwz 0,12(9)
	mtctr 0
	bctrl
	mr 4,31
	mr 5,3
	mr 3,30
	bl _ZN9Scrollbar11SetSelectedEii
.LBE8446:
.LBE8421:
	.loc 3 326 0
	lwz 0,44(1)
	lwz 26,16(1)
	mtlr 0
	lwz 27,20(1)
	lwz 28,24(1)
	lwz 29,28(1)
.LVL1094:
	lwz 30,32(1)
	lwz 31,36(1)
	addi 1,1,40
	.cfi_remember_state
	.cfi_restore 26
	.cfi_restore 27
	.cfi_restore 28
	.cfi_restore 29
	.cfi_restore 30
	.cfi_restore 31
.LCFI155:
	.cfi_def_cfa_offset 0
	blr
.LVL1095:
.L768:
.LCFI156:
	.cfi_restore_state
.LBB8448:
.LBB8447:
.LBB8443:
.LBB8440:
	.loc 3 304 0
	lwz 9,248(31)
	lwzx 3,9,30
	lwz 9,0(3)
	lwz 0,92(9)
	mtctr 0
	bctrl
	b .L776
.LVL1096:
.L770:
.LBB8430:
.LBB8431:
	.loc 7 696 0
	lwz 0,188(31)
.LBE8431:
.LBE8430:
	.loc 3 306 0
	li 4,1
	lwz 9,248(31)
	slwi 0,0,2
	lwz 5,8(29)
	lwzx 3,9,0
	lwz 9,0(3)
	lwz 0,80(9)
	mtctr 0
	bctrl
.LVL1097:
	b .L776
.LVL1098:
.L782:
.LBE8440:
.LBE8443:
	.loc 3 299 0
	lwz 3,156(31)
	lwz 9,0(3)
	lwz 0,16(9)
	mtctr 0
	bctrl
	mr 30,3
	lwz 3,156(31)
	lwz 9,0(3)
	lwz 0,12(9)
	mtctr 0
	bctrl
	mr 4,30
	mr 5,3
	mr 3,31
	bl _ZN17CustomFileBrowser12OnListChangeEii
	b .L765
.LBE8447:
.LBE8448:
	.cfi_endproc
.LFE1620:
	.size	_ZN17CustomFileBrowser6UpdateEP10GuiTrigger, .-_ZN17CustomFileBrowser6UpdateEP10GuiTrigger
	.section	.text._ZN17CustomFileBrowser7RefreshEv,"axG",@progbits,_ZN17CustomFileBrowser7RefreshEv,comdat
	.align 2
	.weak	_ZN17CustomFileBrowser7RefreshEv
	.type	_ZN17CustomFileBrowser7RefreshEv, @function
_ZN17CustomFileBrowser7RefreshEv:
.LFB1508:
	.file 16 "d:/Projects/SaveGameManager/savegame-manager-gx/trunk/source/Files/CustomFileBrowser.hpp"
	.loc 16 41 0
	.cfi_startproc
.LVL1099:
	mflr 0
	stwu 1,-16(1)
.LCFI157:
	.cfi_def_cfa_offset 16
	.cfi_register 65, 0
	stw 31,12(1)
	mr 31,3
	.cfi_offset 31, -4
	stw 0,20(1)
	.loc 16 41 0
	lwz 3,156(3)
.LVL1100:
	cmpwi 7,3,0
	beq- 7,.L787
	.cfi_offset 65, 4
	.loc 16 41 0 is_stmt 0 discriminator 1
	lwz 9,0(3)
	lwz 0,40(9)
	mtctr 0
	bctrl
.L787:
	.loc 16 41 0 discriminator 2
	lwz 0,20(1)
	mr 3,31
	lwz 31,12(1)
.LVL1101:
	li 4,0
	mtlr 0
	li 5,0
	addi 1,1,16
.LCFI158:
	.cfi_def_cfa_offset 0
	.cfi_restore 31
	b _ZN17CustomFileBrowser12OnListChangeEii
.LVL1102:
	.cfi_endproc
.LFE1508:
	.size	_ZN17CustomFileBrowser7RefreshEv, .-_ZN17CustomFileBrowser7RefreshEv
	.section	.text._ZNSt8_Rb_treeIPN7sigslot12_signal_baseINS0_15single_threadedEEES4_St9_IdentityIS4_ESt4lessIS4_ESaIS4_EE5eraseERKS4_,"axG",@progbits,_ZNSt8_Rb_treeIPN7sigslot12_signal_baseINS0_15single_threadedEEES4_St9_IdentityIS4_ESt4lessIS4_ESaIS4_EE5eraseERKS4_,comdat
	.align 2
	.weak	_ZNSt8_Rb_treeIPN7sigslot12_signal_baseINS0_15single_threadedEEES4_St9_IdentityIS4_ESt4lessIS4_ESaIS4_EE5eraseERKS4_
	.type	_ZNSt8_Rb_treeIPN7sigslot12_signal_baseINS0_15single_threadedEEES4_St9_IdentityIS4_ESt4lessIS4_ESaIS4_EE5eraseERKS4_, @function
_ZNSt8_Rb_treeIPN7sigslot12_signal_baseINS0_15single_threadedEEES4_St9_IdentityIS4_ESt4lessIS4_ESaIS4_EE5eraseERKS4_:
.LFB2274:
	.loc 13 1510 0 is_stmt 1
	.cfi_startproc
.LVL1103:
	mflr 0
	stwu 1,-32(1)
.LCFI159:
	.cfi_def_cfa_offset 32
	.cfi_register 65, 0
	stw 28,16(1)
.LBB8501:
.LBB8502:
	.loc 13 1155 0
	addi 28,3,4
	.cfi_offset 28, -16
.LBE8502:
.LBE8501:
	.loc 13 1510 0
	stw 0,36(1)
	stw 26,8(1)
.LBB8561:
.LBB8523:
.LBB8503:
	.loc 13 1155 0
	mr 26,28
	.cfi_offset 26, -24
	.cfi_offset 65, 4
.LBE8503:
	.loc 3 326 0
	lwz 0,8(3)
.LBE8523:
.LBE8561:
	.loc 13 1510 0
	stw 29,20(1)
.LBB8562:
.LBB8524:
.LBB8516:
	.loc 13 1155 0
	mr 29,28
	.cfi_offset 29, -12
	.loc 13 1156 0
	cmpwi 7,0,0
.LBE8516:
.LBE8524:
.LBE8562:
	.loc 13 1510 0
	stw 30,24(1)
	stw 27,12(1)
	mr 30,3
	.cfi_offset 27, -20
	.cfi_offset 30, -8
.LVL1104:
	stw 31,28(1)
.LBB8563:
.LBB8525:
.LBB8517:
	.loc 13 1156 0
	beq- 7,.L789
	.cfi_offset 31, -4
.LVL1105:
	lwz 11,0(4)
	mr 26,0
	b .L800
.LVL1106:
.L818:
.LBE8517:
	.loc 3 326 0
	lwz 26,12(26)
.LVL1107:
.LBB8518:
	.loc 13 1156 0
	cmpwi 7,26,0
	beq- 7,.L817
.L800:
.LVL1108:
.LBE8518:
	.loc 3 326 0
	lwz 9,16(26)
.LBB8519:
.LBB8504:
	.loc 13 1158 0
	cmplw 7,9,11
	blt- 7,.L818
.LVL1109:
.LBB8505:
	.loc 13 1160 0
	ble- 7,.L792
.LVL1110:
.LBE8505:
.LBE8504:
.LBE8519:
	.loc 3 326 0
	mr 29,26
	.loc 13 1161 0
	lwz 26,8(26)
.LVL1111:
.LBB8520:
	.loc 13 1156 0
	cmpwi 7,26,0
	bne+ 7,.L800
.LVL1112:
.L817:
	mr 26,29
.LVL1113:
.L789:
.LBE8520:
.LBE8525:
.LBB8526:
.LBB8527:
.LBB8528:
	.loc 13 1500 0
	lwz 9,12(30)
.LBE8528:
.LBE8527:
.LBE8526:
.LBB8557:
.LBB8521:
	.loc 3 326 0
	lwz 27,20(30)
.LVL1114:
.LBE8521:
.LBE8557:
.LBB8558:
.LBB8555:
.LBB8553:
	.loc 13 1500 0
	cmpw 7,26,9
	beq- 7,.L819
.L801:
.LVL1115:
	.loc 13 1503 0
	cmpw 7,29,26
	beq- 7,.L808
.LVL1116:
.L815:
.LBB8529:
.LBB8530:
	.loc 13 277 0
	mr 3,26
	bl _ZSt18_Rb_tree_incrementPKSt18_Rb_tree_node_base
.LBE8530:
.LBE8529:
.LBB8532:
.LBB8533:
.LBB8534:
	.loc 13 1489 0
	mr 4,28
.LBE8534:
.LBE8533:
.LBE8532:
.LBB8545:
.LBB8531:
	.loc 13 277 0
	mr 31,3
.LVL1117:
.LBE8531:
.LBE8545:
.LBB8546:
.LBB8542:
.LBB8539:
	.loc 13 1489 0
	mr 3,26
.LVL1118:
	bl _ZSt28_Rb_tree_rebalance_for_erasePSt18_Rb_tree_node_baseRS_
.LBE8539:
.LBE8542:
.LBE8546:
	.loc 13 277 0
	mr 26,31
.LVL1119:
.LBB8547:
.LBB8543:
.LBB8540:
.LBB8535:
.LBB8536:
.LBB8537:
.LBB8538:
	.loc 8 98 0
	bl _ZdlPv
.LBE8538:
.LBE8537:
.LBE8536:
.LBE8535:
.LBE8540:
.LBE8543:
.LBE8547:
	.loc 13 1503 0
	cmpw 7,29,31
.LBB8548:
.LBB8544:
.LBB8541:
	.loc 13 1491 0
	lwz 9,20(30)
	addi 0,9,-1
	stw 0,20(30)
.LBE8541:
.LBE8544:
.LBE8548:
	.loc 13 1503 0
	bne+ 7,.L815
	subf 27,0,27
.LVL1120:
.L803:
.LBE8553:
.LBE8555:
.LBE8558:
.LBE8563:
	.loc 13 1517 0
	lwz 0,36(1)
	mr 3,27
	lwz 26,8(1)
	mtlr 0
	lwz 27,12(1)
	lwz 28,16(1)
	lwz 29,20(1)
.LVL1121:
	lwz 30,24(1)
.LVL1122:
	lwz 31,28(1)
	addi 1,1,32
	.cfi_remember_state
.LCFI160:
	.cfi_def_cfa_offset 0
	.cfi_restore 31
	.cfi_restore 30
	.cfi_restore 29
	.cfi_restore 28
	.cfi_restore 27
	.cfi_restore 26
	blr
.LVL1123:
.L792:
.LCFI161:
	.cfi_restore_state
.LBB8564:
.LBB8559:
	.loc 3 326 0
	lwz 10,8(26)
.LVL1124:
	lwz 9,12(26)
.LVL1125:
.L816:
.LBB8522:
.LBB8515:
.LBB8514:
.LBB8506:
.LBB8507:
.LBB8508:
	.loc 13 1089 0
	cmpwi 7,10,0
	beq- 7,.L793
.L820:
.LVL1126:
	.loc 13 1090 0
	lwz 8,16(10)
	cmplw 7,8,11
	blt- 7,.L794
.LVL1127:
.LBE8508:
	.loc 3 326 0
	mr 26,10
	.loc 13 1091 0
	lwz 10,8(10)
.LVL1128:
.LBB8509:
	.loc 13 1089 0
	cmpwi 7,10,0
	bne+ 7,.L820
.LVL1129:
.L793:
.LBE8509:
.LBE8507:
.LBB8510:
.LBB8511:
	.loc 13 1121 0
	cmpwi 7,9,0
	beq- 7,.L789
.LVL1130:
	.loc 13 1122 0
	lwz 10,16(9)
	cmplw 7,10,11
	ble- 7,.L797
.LVL1131:
.L821:
.LBE8511:
	.loc 3 326 0
	mr 29,9
	.loc 13 1123 0
	lwz 9,8(9)
.LVL1132:
.LBB8512:
	.loc 13 1121 0
	cmpwi 7,9,0
	beq- 7,.L789
.LVL1133:
	.loc 13 1122 0
	lwz 10,16(9)
	cmplw 7,10,11
	bgt- 7,.L821
.LVL1134:
.L797:
.LBE8512:
	.loc 3 326 0
	lwz 9,12(9)
.LVL1135:
	b .L793
.LVL1136:
.L794:
.LBE8510:
.LBB8513:
	lwz 10,12(10)
.LVL1137:
	b .L816
.LVL1138:
.L819:
.LBE8513:
.LBE8506:
.LBE8514:
.LBE8515:
.LBE8522:
.LBE8559:
.LBB8560:
.LBB8556:
.LBB8554:
	.loc 13 1500 0
	cmpw 7,28,29
	bne+ 7,.L801
.LVL1139:
.LBB8549:
.LBB8550:
.LBB8551:
.LBB8552:
	.loc 13 809 0
	mr 4,0
.LVL1140:
	mr 3,30
.LVL1141:
	bl _ZNSt8_Rb_treeIPN7sigslot12_signal_baseINS0_15single_threadedEEES4_St9_IdentityIS4_ESt4lessIS4_ESaIS4_EE8_M_eraseEPSt13_Rb_tree_nodeIS4_E
.LVL1142:
	.loc 13 811 0
	li 0,0
	.loc 13 810 0
	stw 28,12(30)
.LVL1143:
	.loc 13 811 0
	stw 0,8(30)
.LVL1144:
	.loc 13 812 0
	stw 28,16(30)
	.loc 13 813 0
	stw 0,20(30)
	b .L803
.LVL1145:
.L808:
.LBE8552:
.LBE8551:
.LBE8550:
.LBE8549:
	.loc 13 1503 0
	li 27,0
	b .L803
.LBE8554:
.LBE8556:
.LBE8560:
.LBE8564:
	.cfi_endproc
.LFE2274:
	.size	_ZNSt8_Rb_treeIPN7sigslot12_signal_baseINS0_15single_threadedEEES4_St9_IdentityIS4_ESt4lessIS4_ESaIS4_EE5eraseERKS4_, .-_ZNSt8_Rb_treeIPN7sigslot12_signal_baseINS0_15single_threadedEEES4_St9_IdentityIS4_ESt4lessIS4_ESaIS4_EE5eraseERKS4_
	.section	.text._ZN7sigslot7signal3IP10GuiElementiiNS_15single_threadedEED2Ev,"axG",@progbits,_ZN7sigslot7signal3IP10GuiElementiiNS_15single_threadedEED5Ev,comdat
	.align 2
	.weak	_ZN7sigslot7signal3IP10GuiElementiiNS_15single_threadedEED2Ev
	.type	_ZN7sigslot7signal3IP10GuiElementiiNS_15single_threadedEED2Ev, @function
_ZN7sigslot7signal3IP10GuiElementiiNS_15single_threadedEED2Ev:
.LFB1630:
	.loc 1 2302 0
	.cfi_startproc
	.cfi_personality 0,__gxx_personality_v0
	.cfi_lsda 0,.LLSDA1630
.LVL1146:
	mflr 0
	stwu 1,-40(1)
.LCFI162:
	.cfi_def_cfa_offset 40
	.cfi_register 65, 0
.LBB8662:
.LBB8663:
.LBB8664:
.LBB8665:
	.loc 1 946 0
	lis 9,_ZTVN7sigslot13_signal_base3IP10GuiElementiiNS_15single_threadedEEE+8@ha
.LBE8665:
.LBE8664:
.LBE8663:
.LBE8662:
	.loc 1 2302 0
	stw 28,24(1)
	mr 28,3
	.cfi_offset 28, -16
.LVL1147:
	stw 0,44(1)
.LBB8763:
.LBB8758:
.LBB8753:
.LBB8748:
	.loc 1 946 0
	la 0,_ZTVN7sigslot13_signal_base3IP10GuiElementiiNS_15single_threadedEEE+8@l(9)
	.cfi_offset 65, 4
.LBE8748:
.LBE8753:
.LBE8758:
.LBE8763:
	.loc 1 2302 0
	stw 29,28(1)
	addi 29,3,4
	.cfi_offset 29, -12
	stw 30,32(1)
	stw 31,36(1)
.LBB8764:
.LBB8759:
.LBB8754:
.LBB8749:
	.loc 1 946 0
	stw 0,0(3)
.LVL1148:
.LEHB107:
.LBB8666:
.LBB8667:
.LBB8668:
.LBB8669:
	.loc 1 338 0
	.cfi_offset 31, -4
	.cfi_offset 30, -8
	bl _ZN7sigslot15single_threaded4lockEv
.LEHE107:
.LVL1149:
.LBE8669:
.LBE8668:
.LBE8667:
	.loc 3 326 0
	mr 29,28
.LVL1150:
	lwzu 31,4(29)
.LVL1151:
.LBB8700:
	.loc 1 954 0
	cmpw 7,31,29
	beq- 7,.L823
.LVL1152:
.L861:
	.loc 1 956 0
	lwz 3,8(31)
	lwz 9,0(3)
	lwz 0,8(9)
	mtctr 0
.LEHB108:
	bctrl
.LBB8670:
.LBB8671:
.LBB8672:
.LBB8673:
	.loc 1 338 0
	lwz 9,0(3)
.LBE8673:
.LBE8672:
.LBE8671:
.LBE8670:
	.loc 1 956 0
	mr 30,3
.LVL1153:
	stw 28,8(1)
.LVL1154:
.LBB8682:
.LBB8681:
.LBB8675:
.LBB8674:
	.loc 1 338 0
	lwz 0,8(9)
	mtctr 0
	bctrl
.LVL1155:
.LBE8674:
.LBE8675:
.LBB8676:
.LBB8677:
	.loc 14 528 0
	addi 3,30,4
	addi 4,1,8
	bl _ZNSt8_Rb_treeIPN7sigslot12_signal_baseINS0_15single_threadedEEES4_St9_IdentityIS4_ESt4lessIS4_ESaIS4_EE5eraseERKS4_
.LVL1156:
.LBE8677:
.LBE8676:
.LBB8678:
.LBB8679:
.LBB8680:
	.loc 1 343 0
	lwz 9,0(30)
	mr 3,30
	lwz 0,12(9)
	mtctr 0
	bctrl
.LVL1157:
.LBE8680:
.LBE8679:
.LBE8678:
.LBE8681:
.LBE8682:
	.loc 1 957 0
	lwz 3,8(31)
	cmpwi 7,3,0
	beq- 7,.L825
	lwz 9,0(3)
	lwz 0,4(9)
	mtctr 0
	bctrl
.LEHE108:
.L825:
.LVL1158:
.LBB8683:
.LBB8684:
	.loc 4 234 0
	lwz 31,0(31)
.LVL1159:
.LBE8684:
.LBE8683:
	.loc 1 954 0
	cmpw 7,29,31
	bne+ 7,.L861
.LBE8700:
	.loc 3 326 0
	lwz 31,4(28)
.LVL1160:
.LBB8701:
.LBB8685:
.LBB8686:
	.loc 4 1162 0
	cmpw 7,29,31
	bne+ 7,.L863
	b .L823
.LVL1161:
.L856:
	.loc 4 1163 0
	mr 31,30
.LVL1162:
.L863:
.LBB8687:
.LBB8688:
	.file 17 "d:\\devkitpro\\devkitppc\\bin\\../lib/gcc/powerpc-eabi/4.6.3/../../../../powerpc-eabi/include/c++/4.6.3/bits/list.tcc"
	.loc 17 112 0
	lwz 30,0(31)
.LVL1163:
.LBB8689:
.LBB8690:
	.loc 4 1532 0
	mr 3,31
	bl _ZNSt8__detail15_List_node_base9_M_unhookEv
.LVL1164:
.LBB8691:
.LBB8692:
.LBB8693:
	.loc 8 98 0
	mr 3,31
	bl _ZdlPv
.LVL1165:
.LBE8693:
.LBE8692:
.LBE8691:
.LBE8690:
.LBE8689:
.LBE8688:
.LBE8687:
	.loc 4 1162 0
	cmpw 7,29,30
	bne+ 7,.L856
.LVL1166:
.L823:
.LBE8686:
.LBE8685:
.LBB8694:
.LBB8695:
.LBB8696:
	.loc 1 343 0
	lwz 9,0(28)
	mr 3,28
	lwz 0,12(9)
	mtctr 0
.LEHB109:
	bctrl
.LEHE109:
.LBE8696:
.LBE8695:
.LBE8694:
.LBE8701:
.LBE8666:
.LBB8703:
.LBB8704:
.LBB8705:
.LBB8706:
.LBB8707:
.LBB8708:
	.loc 17 70 0
	lwz 3,4(28)
.LVL1167:
	.loc 17 71 0
	cmpw 7,3,29
	bne+ 7,.L865
	b .L841
.LVL1168:
.L857:
	.loc 17 74 0
	mr 3,31
.LVL1169:
.L865:
.LBB8709:
	lwz 31,0(3)
.LVL1170:
.LBB8710:
.LBB8711:
.LBB8712:
	.loc 8 98 0
	bl _ZdlPv
.LVL1171:
.LBE8712:
.LBE8711:
.LBE8710:
.LBE8709:
	.loc 17 71 0
	cmpw 7,31,29
	bne+ 7,.L857
.LVL1172:
.L841:
.LBE8708:
.LBE8707:
.LBE8706:
.LBE8705:
.LBE8704:
.LBE8703:
.LBB8713:
.LBB8714:
.LBB8715:
.LBB8716:
.LBB8717:
.LBB8718:
	.loc 1 105 0
	lis 9,_ZTVN7sigslot15single_threadedE+8@ha
.LBE8718:
.LBE8717:
.LBE8716:
.LBE8715:
.LBE8714:
.LBE8713:
.LBE8749:
.LBE8754:
.LBE8759:
.LBE8764:
	.loc 1 2305 0
	lwz 29,28(1)
.LVL1173:
.LBB8765:
.LBB8760:
.LBB8755:
.LBB8750:
.LBB8729:
.LBB8727:
.LBB8725:
.LBB8723:
.LBB8721:
.LBB8719:
	.loc 1 105 0
	la 0,_ZTVN7sigslot15single_threadedE+8@l(9)
.LBE8719:
.LBE8721:
.LBE8723:
.LBE8725:
.LBE8727:
.LBE8729:
.LBE8750:
.LBE8755:
.LBE8760:
.LBE8765:
	.loc 1 2305 0
	lwz 30,32(1)
.LBB8766:
.LBB8761:
.LBB8756:
.LBB8751:
.LBB8730:
.LBB8728:
.LBB8726:
.LBB8724:
.LBB8722:
.LBB8720:
	.loc 1 105 0
	stw 0,0(28)
.LBE8720:
.LBE8722:
.LBE8724:
.LBE8726:
.LBE8728:
.LBE8730:
.LBE8751:
.LBE8756:
.LBE8761:
.LBE8766:
	.loc 1 2305 0
	lwz 0,44(1)
	lwz 28,24(1)
.LVL1174:
	mtlr 0
	lwz 31,36(1)
	addi 1,1,40
	.cfi_remember_state
.LCFI163:
	.cfi_def_cfa_offset 0
	.cfi_restore 31
	.cfi_restore 30
	.cfi_restore 29
	.cfi_restore 28
	blr
.LVL1175:
.L859:
.LCFI164:
	.cfi_restore_state
	mr 31,3
.L833:
.LBB8767:
.LBB8762:
.LBB8757:
.LBB8752:
.LBB8731:
.LBB8732:
.LBB8733:
.LBB8734:
.LBB8735:
.LBB8736:
	.loc 17 70 0
	lwz 3,4(28)
.LVL1176:
	.loc 17 71 0
	cmpw 7,3,29
	beq- 7,.L850
.LVL1177:
.L866:
.LBB8737:
	.loc 17 74 0
	lwz 30,0(3)
.LVL1178:
.LBB8738:
.LBB8739:
.LBB8740:
	.loc 8 98 0
	bl _ZdlPv
.LVL1179:
.LBE8740:
.LBE8739:
.LBE8738:
.LBE8737:
	.loc 17 71 0
	cmpw 7,30,29
	beq- 7,.L850
	.loc 17 74 0
	mr 3,30
	b .L866
.LVL1180:
.L860:
.LBE8736:
.LBE8735:
.LBE8734:
.LBE8733:
.LBE8732:
.LBE8731:
.LBB8741:
.LBB8702:
.LBB8697:
.LBB8698:
.LBB8699:
	.loc 1 343 0
	lwz 9,0(28)
	mr 31,3
.LVL1181:
	mr 3,28
	lwz 0,12(9)
	mtctr 0
	bctrl
	b .L833
.LVL1182:
.L850:
.LBE8699:
.LBE8698:
.LBE8697:
.LBE8702:
.LBE8741:
.LBB8742:
.LBB8743:
.LBB8744:
.LBB8745:
.LBB8746:
.LBB8747:
	.loc 1 105 0
	lis 9,_ZTVN7sigslot15single_threadedE+8@ha
	mr 3,31
	la 0,_ZTVN7sigslot15single_threadedE+8@l(9)
	stw 0,0(28)
.LEHB110:
	bl _Unwind_Resume
.LEHE110:
.LBE8747:
.LBE8746:
.LBE8745:
.LBE8744:
.LBE8743:
.LBE8742:
.LBE8752:
.LBE8757:
.LBE8762:
.LBE8767:
	.cfi_endproc
.LFE1630:
	.section	.gcc_except_table
.LLSDA1630:
	.byte	0xff
	.byte	0xff
	.byte	0x1
	.uleb128 .LLSDACSE1630-.LLSDACSB1630
.LLSDACSB1630:
	.uleb128 .LEHB107-.LFB1630
	.uleb128 .LEHE107-.LEHB107
	.uleb128 .L859-.LFB1630
	.uleb128 0
	.uleb128 .LEHB108-.LFB1630
	.uleb128 .LEHE108-.LEHB108
	.uleb128 .L860-.LFB1630
	.uleb128 0
	.uleb128 .LEHB109-.LFB1630
	.uleb128 .LEHE109-.LEHB109
	.uleb128 .L859-.LFB1630
	.uleb128 0
	.uleb128 .LEHB110-.LFB1630
	.uleb128 .LEHE110-.LEHB110
	.uleb128 0
	.uleb128 0
.LLSDACSE1630:
	.section	.text._ZN7sigslot7signal3IP10GuiElementiiNS_15single_threadedEED2Ev,"axG",@progbits,_ZN7sigslot7signal3IP10GuiElementiiNS_15single_threadedEED5Ev,comdat
	.size	_ZN7sigslot7signal3IP10GuiElementiiNS_15single_threadedEED2Ev, .-_ZN7sigslot7signal3IP10GuiElementiiNS_15single_threadedEED2Ev
	.section	.text._ZN7sigslot13_signal_base1IiNS_15single_threadedEED2Ev,"axG",@progbits,_ZN7sigslot13_signal_base1IiNS_15single_threadedEED5Ev,comdat
	.align 2
	.weak	_ZN7sigslot13_signal_base1IiNS_15single_threadedEED2Ev
	.type	_ZN7sigslot13_signal_base1IiNS_15single_threadedEED2Ev, @function
_ZN7sigslot13_signal_base1IiNS_15single_threadedEED2Ev:
.LFB1794:
	.loc 1 702 0
	.cfi_startproc
	.cfi_personality 0,__gxx_personality_v0
	.cfi_lsda 0,.LLSDA1794
.LVL1183:
	mflr 0
	stwu 1,-40(1)
.LCFI165:
	.cfi_def_cfa_offset 40
	.cfi_register 65, 0
.LBB8914:
	.loc 1 705 0
	lis 9,_ZTVN7sigslot13_signal_base1IiNS_15single_threadedEEE+8@ha
.LBE8914:
	.loc 1 702 0
	stw 28,24(1)
	mr 28,3
	.cfi_offset 28, -16
	stw 0,44(1)
.LBB8997:
	.loc 1 705 0
	la 0,_ZTVN7sigslot13_signal_base1IiNS_15single_threadedEEE+8@l(9)
	.cfi_offset 65, 4
.LBE8997:
	.loc 1 702 0
	stw 29,28(1)
	addi 29,3,4
	.cfi_offset 29, -12
	stw 30,32(1)
	stw 31,36(1)
.LBB8998:
	.loc 1 705 0
	stw 0,0(3)
.LVL1184:
.LEHB111:
.LBB8915:
.LBB8916:
.LBB8917:
.LBB8918:
	.loc 1 338 0
	.cfi_offset 31, -4
	.cfi_offset 30, -8
	bl _ZN7sigslot15single_threaded4lockEv
.LEHE111:
.LVL1185:
.LBE8918:
.LBE8917:
.LBE8916:
	.loc 3 326 0
	mr 29,28
	lwzu 31,4(29)
.LVL1186:
.LBB8949:
	.loc 1 713 0
	cmpw 7,31,29
	beq- 7,.L868
.LVL1187:
.L905:
	.loc 1 715 0
	lwz 3,8(31)
	lwz 9,0(3)
	lwz 0,8(9)
	mtctr 0
.LEHB112:
	bctrl
.LBB8919:
.LBB8920:
.LBB8921:
.LBB8922:
	.loc 1 338 0
	lwz 9,0(3)
.LBE8922:
.LBE8921:
.LBE8920:
.LBE8919:
	.loc 1 715 0
	mr 30,3
.LVL1188:
	stw 28,8(1)
.LVL1189:
.LBB8931:
.LBB8930:
.LBB8924:
.LBB8923:
	.loc 1 338 0
	lwz 0,8(9)
	mtctr 0
	bctrl
.LVL1190:
.LBE8923:
.LBE8924:
.LBB8925:
.LBB8926:
	.loc 14 528 0
	addi 3,30,4
	addi 4,1,8
	bl _ZNSt8_Rb_treeIPN7sigslot12_signal_baseINS0_15single_threadedEEES4_St9_IdentityIS4_ESt4lessIS4_ESaIS4_EE5eraseERKS4_
.LVL1191:
.LBE8926:
.LBE8925:
.LBB8927:
.LBB8928:
.LBB8929:
	.loc 1 343 0
	lwz 9,0(30)
	mr 3,30
	lwz 0,12(9)
	mtctr 0
	bctrl
.LVL1192:
.LBE8929:
.LBE8928:
.LBE8927:
.LBE8930:
.LBE8931:
	.loc 1 716 0
	lwz 3,8(31)
	cmpwi 7,3,0
	beq- 7,.L870
	lwz 9,0(3)
	lwz 0,4(9)
	mtctr 0
	bctrl
.LEHE112:
.L870:
.LVL1193:
.LBB8932:
.LBB8933:
	.loc 4 234 0
	lwz 31,0(31)
.LVL1194:
.LBE8933:
.LBE8932:
	.loc 1 713 0
	cmpw 7,29,31
	bne+ 7,.L905
.LBE8949:
	.loc 3 326 0
	lwz 31,4(28)
.LVL1195:
.LBB8950:
.LBB8934:
.LBB8935:
	.loc 4 1162 0
	cmpw 7,29,31
	bne+ 7,.L907
	b .L868
.LVL1196:
.L900:
	.loc 4 1163 0
	mr 31,30
.LVL1197:
.L907:
.LBB8936:
.LBB8937:
	.loc 17 112 0
	lwz 30,0(31)
.LVL1198:
.LBB8938:
.LBB8939:
	.loc 4 1532 0
	mr 3,31
	bl _ZNSt8__detail15_List_node_base9_M_unhookEv
.LVL1199:
.LBB8940:
.LBB8941:
.LBB8942:
	.loc 8 98 0
	mr 3,31
	bl _ZdlPv
.LVL1200:
.LBE8942:
.LBE8941:
.LBE8940:
.LBE8939:
.LBE8938:
.LBE8937:
.LBE8936:
	.loc 4 1162 0
	cmpw 7,29,30
	bne+ 7,.L900
.LVL1201:
.L868:
.LBE8935:
.LBE8934:
.LBB8943:
.LBB8944:
.LBB8945:
	.loc 1 343 0
	lwz 9,0(28)
	mr 3,28
	lwz 0,12(9)
	mtctr 0
.LEHB113:
	bctrl
.LEHE113:
.LVL1202:
.LBE8945:
.LBE8944:
.LBE8943:
.LBE8950:
.LBE8915:
.LBB8952:
.LBB8953:
.LBB8954:
.LBB8955:
.LBB8956:
.LBB8957:
	.loc 17 70 0
	lwz 3,4(28)
.LVL1203:
	.loc 17 71 0
	cmpw 7,3,29
	bne+ 7,.L909
	b .L886
.LVL1204:
.L901:
	.loc 17 74 0
	mr 3,31
.LVL1205:
.L909:
.LBB8958:
	lwz 31,0(3)
.LVL1206:
.LBB8959:
.LBB8960:
.LBB8961:
	.loc 8 98 0
	bl _ZdlPv
.LVL1207:
.LBE8961:
.LBE8960:
.LBE8959:
.LBE8958:
	.loc 17 71 0
	cmpw 7,31,29
	bne+ 7,.L901
.LVL1208:
.L886:
.LBE8957:
.LBE8956:
.LBE8955:
.LBE8954:
.LBE8953:
.LBE8952:
.LBB8962:
.LBB8963:
.LBB8964:
.LBB8965:
.LBB8966:
.LBB8967:
	.loc 1 105 0
	lis 9,_ZTVN7sigslot15single_threadedE+8@ha
.LBE8967:
.LBE8966:
.LBE8965:
.LBE8964:
.LBE8963:
.LBE8962:
.LBE8998:
	.loc 1 705 0
	lwz 29,28(1)
.LVL1209:
.LBB8999:
.LBB8978:
.LBB8976:
.LBB8974:
.LBB8972:
.LBB8970:
.LBB8968:
	.loc 1 105 0
	la 0,_ZTVN7sigslot15single_threadedE+8@l(9)
.LBE8968:
.LBE8970:
.LBE8972:
.LBE8974:
.LBE8976:
.LBE8978:
.LBE8999:
	.loc 1 705 0
	lwz 30,32(1)
.LBB9000:
.LBB8979:
.LBB8977:
.LBB8975:
.LBB8973:
.LBB8971:
.LBB8969:
	.loc 1 105 0
	stw 0,0(28)
.LBE8969:
.LBE8971:
.LBE8973:
.LBE8975:
.LBE8977:
.LBE8979:
.LBE9000:
	.loc 1 705 0
	lwz 0,44(1)
	lwz 28,24(1)
.LVL1210:
	mtlr 0
	lwz 31,36(1)
	addi 1,1,40
	.cfi_remember_state
.LCFI166:
	.cfi_def_cfa_offset 0
	.cfi_restore 31
	.cfi_restore 30
	.cfi_restore 29
	.cfi_restore 28
	blr
.LVL1211:
.L903:
.LCFI167:
	.cfi_restore_state
	mr 31,3
.L878:
.LVL1212:
.LBB9001:
.LBB8980:
.LBB8981:
.LBB8982:
.LBB8983:
.LBB8984:
.LBB8985:
	.loc 17 70 0
	lwz 3,4(28)
.LVL1213:
	.loc 17 71 0
	cmpw 7,3,29
	beq- 7,.L897
.LVL1214:
.L910:
.LBB8986:
	.loc 17 74 0
	lwz 30,0(3)
.LVL1215:
.LBB8987:
.LBB8988:
.LBB8989:
	.loc 8 98 0
	bl _ZdlPv
.LVL1216:
.LBE8989:
.LBE8988:
.LBE8987:
.LBE8986:
	.loc 17 71 0
	cmpw 7,30,29
	beq- 7,.L897
	.loc 17 74 0
	mr 3,30
	b .L910
.LVL1217:
.L904:
.LBE8985:
.LBE8984:
.LBE8983:
.LBE8982:
.LBE8981:
.LBE8980:
.LBB8990:
.LBB8951:
.LBB8946:
.LBB8947:
.LBB8948:
	.loc 1 343 0
	lwz 9,0(28)
	mr 31,3
.LVL1218:
	mr 3,28
	lwz 0,12(9)
	mtctr 0
	bctrl
	b .L878
.LVL1219:
.L897:
.LBE8948:
.LBE8947:
.LBE8946:
.LBE8951:
.LBE8990:
.LBB8991:
.LBB8992:
.LBB8993:
.LBB8994:
.LBB8995:
.LBB8996:
	.loc 1 105 0
	lis 9,_ZTVN7sigslot15single_threadedE+8@ha
	mr 3,31
	la 0,_ZTVN7sigslot15single_threadedE+8@l(9)
	stw 0,0(28)
.LEHB114:
	bl _Unwind_Resume
.LEHE114:
.LBE8996:
.LBE8995:
.LBE8994:
.LBE8993:
.LBE8992:
.LBE8991:
.LBE9001:
	.cfi_endproc
.LFE1794:
	.section	.gcc_except_table
.LLSDA1794:
	.byte	0xff
	.byte	0xff
	.byte	0x1
	.uleb128 .LLSDACSE1794-.LLSDACSB1794
.LLSDACSB1794:
	.uleb128 .LEHB111-.LFB1794
	.uleb128 .LEHE111-.LEHB111
	.uleb128 .L903-.LFB1794
	.uleb128 0
	.uleb128 .LEHB112-.LFB1794
	.uleb128 .LEHE112-.LEHB112
	.uleb128 .L904-.LFB1794
	.uleb128 0
	.uleb128 .LEHB113-.LFB1794
	.uleb128 .LEHE113-.LEHB113
	.uleb128 .L903-.LFB1794
	.uleb128 0
	.uleb128 .LEHB114-.LFB1794
	.uleb128 .LEHE114-.LEHB114
	.uleb128 0
	.uleb128 0
.LLSDACSE1794:
	.section	.text._ZN7sigslot13_signal_base1IiNS_15single_threadedEED2Ev,"axG",@progbits,_ZN7sigslot13_signal_base1IiNS_15single_threadedEED5Ev,comdat
	.size	_ZN7sigslot13_signal_base1IiNS_15single_threadedEED2Ev, .-_ZN7sigslot13_signal_base1IiNS_15single_threadedEED2Ev
	.section	.text._ZN7sigslot7signal2IP10GuiElementbNS_15single_threadedEED0Ev,"axG",@progbits,_ZN7sigslot7signal2IP10GuiElementbNS_15single_threadedEED5Ev,comdat
	.align 2
	.weak	_ZN7sigslot7signal2IP10GuiElementbNS_15single_threadedEED0Ev
	.type	_ZN7sigslot7signal2IP10GuiElementbNS_15single_threadedEED0Ev, @function
_ZN7sigslot7signal2IP10GuiElementbNS_15single_threadedEED0Ev:
.LFB1628:
	.loc 1 2235 0
	.cfi_startproc
	.cfi_personality 0,__gxx_personality_v0
	.cfi_lsda 0,.LLSDA1628
.LVL1220:
	mflr 0
	stwu 1,-40(1)
.LCFI168:
	.cfi_def_cfa_offset 40
	.cfi_register 65, 0
.LBB9100:
.LBB9101:
.LBB9102:
.LBB9103:
.LBB9104:
.LBB9105:
	.loc 1 826 0
	lis 9,_ZTVN7sigslot13_signal_base2IP10GuiElementbNS_15single_threadedEEE+8@ha
.LBE9105:
.LBE9104:
.LBE9103:
.LBE9102:
.LBE9101:
.LBE9100:
	.loc 1 2235 0
	stw 28,24(1)
	mr 28,3
	.cfi_offset 28, -16
.LVL1221:
	stw 0,44(1)
.LBB9202:
.LBB9198:
.LBB9194:
.LBB9190:
.LBB9186:
.LBB9182:
	.loc 1 826 0
	la 0,_ZTVN7sigslot13_signal_base2IP10GuiElementbNS_15single_threadedEEE+8@l(9)
	.cfi_offset 65, 4
.LBE9182:
.LBE9186:
.LBE9190:
.LBE9194:
.LBE9198:
.LBE9202:
	.loc 1 2235 0
	stw 29,28(1)
	addi 29,3,4
	.cfi_offset 29, -12
	stw 30,32(1)
	stw 31,36(1)
.LBB9203:
.LBB9199:
.LBB9195:
.LBB9191:
.LBB9187:
.LBB9183:
	.loc 1 826 0
	stw 0,0(3)
.LVL1222:
.LEHB115:
.LBB9106:
.LBB9107:
.LBB9108:
.LBB9109:
	.loc 1 338 0
	.cfi_offset 31, -4
	.cfi_offset 30, -8
	bl _ZN7sigslot15single_threaded4lockEv
.LEHE115:
.LVL1223:
.LBE9109:
.LBE9108:
.LBE9107:
	.loc 3 326 0
	mr 29,28
.LVL1224:
	lwzu 31,4(29)
.LVL1225:
.LBB9140:
	.loc 1 834 0
	cmpw 7,31,29
	beq- 7,.L912
.LVL1226:
.L951:
	.loc 1 836 0
	lwz 3,8(31)
	lwz 9,0(3)
	lwz 0,8(9)
	mtctr 0
.LEHB116:
	bctrl
.LBB9110:
.LBB9111:
.LBB9112:
.LBB9113:
	.loc 1 338 0
	lwz 9,0(3)
.LBE9113:
.LBE9112:
.LBE9111:
.LBE9110:
	.loc 1 836 0
	mr 30,3
.LVL1227:
	stw 28,8(1)
.LVL1228:
.LBB9122:
.LBB9121:
.LBB9115:
.LBB9114:
	.loc 1 338 0
	lwz 0,8(9)
	mtctr 0
	bctrl
.LVL1229:
.LBE9114:
.LBE9115:
.LBB9116:
.LBB9117:
	.loc 14 528 0
	addi 3,30,4
	addi 4,1,8
	bl _ZNSt8_Rb_treeIPN7sigslot12_signal_baseINS0_15single_threadedEEES4_St9_IdentityIS4_ESt4lessIS4_ESaIS4_EE5eraseERKS4_
.LVL1230:
.LBE9117:
.LBE9116:
.LBB9118:
.LBB9119:
.LBB9120:
	.loc 1 343 0
	lwz 9,0(30)
	mr 3,30
	lwz 0,12(9)
	mtctr 0
	bctrl
.LVL1231:
.LBE9120:
.LBE9119:
.LBE9118:
.LBE9121:
.LBE9122:
	.loc 1 837 0
	lwz 3,8(31)
	cmpwi 7,3,0
	beq- 7,.L914
	lwz 9,0(3)
	lwz 0,4(9)
	mtctr 0
	bctrl
.LEHE116:
.L914:
.LVL1232:
.LBB9123:
.LBB9124:
	.loc 4 234 0
	lwz 31,0(31)
.LVL1233:
.LBE9124:
.LBE9123:
	.loc 1 834 0
	cmpw 7,29,31
	bne+ 7,.L951
.LBE9140:
	.loc 3 326 0
	lwz 31,4(28)
.LVL1234:
.LBB9141:
.LBB9125:
.LBB9126:
	.loc 4 1162 0
	cmpw 7,29,31
	bne+ 7,.L953
	b .L912
.LVL1235:
.L946:
	.loc 4 1163 0
	mr 31,30
.LVL1236:
.L953:
.LBB9127:
.LBB9128:
	.loc 17 112 0
	lwz 30,0(31)
.LVL1237:
.LBB9129:
.LBB9130:
	.loc 4 1532 0
	mr 3,31
	bl _ZNSt8__detail15_List_node_base9_M_unhookEv
.LVL1238:
.LBB9131:
.LBB9132:
.LBB9133:
	.loc 8 98 0
	mr 3,31
	bl _ZdlPv
.LVL1239:
.LBE9133:
.LBE9132:
.LBE9131:
.LBE9130:
.LBE9129:
.LBE9128:
.LBE9127:
	.loc 4 1162 0
	cmpw 7,29,30
	bne+ 7,.L946
.LVL1240:
.L912:
.LBE9126:
.LBE9125:
.LBB9134:
.LBB9135:
.LBB9136:
	.loc 1 343 0
	lwz 9,0(28)
	mr 3,28
	lwz 0,12(9)
	mtctr 0
.LEHB117:
	bctrl
.LEHE117:
.LBE9136:
.LBE9135:
.LBE9134:
.LBE9141:
.LBE9106:
.LBB9143:
.LBB9144:
.LBB9145:
.LBB9146:
.LBB9147:
.LBB9148:
	.loc 17 70 0
	lwz 3,4(28)
.LVL1241:
	.loc 17 71 0
	cmpw 7,3,29
	bne+ 7,.L955
	b .L930
.LVL1242:
.L947:
	.loc 17 74 0
	mr 3,31
.LVL1243:
.L955:
.LBB9149:
	lwz 31,0(3)
.LVL1244:
.LBB9150:
.LBB9151:
.LBB9152:
	.loc 8 98 0
	bl _ZdlPv
.LVL1245:
.LBE9152:
.LBE9151:
.LBE9150:
.LBE9149:
	.loc 17 71 0
	cmpw 7,31,29
	bne+ 7,.L947
.LVL1246:
.L930:
.LBE9148:
.LBE9147:
.LBE9146:
.LBE9145:
.LBE9144:
.LBE9143:
.LBB9153:
.LBB9154:
.LBB9155:
.LBB9156:
.LBB9157:
.LBB9158:
	.loc 1 105 0
	lis 9,_ZTVN7sigslot15single_threadedE+8@ha
.LBE9158:
.LBE9157:
.LBE9156:
.LBE9155:
.LBE9154:
.LBE9153:
.LBE9183:
.LBE9187:
.LBE9191:
.LBE9195:
.LBE9199:
.LBE9203:
	.loc 1 2238 0
	mr 3,28
.LBB9204:
.LBB9200:
.LBB9196:
.LBB9192:
.LBB9188:
.LBB9184:
.LBB9164:
.LBB9163:
.LBB9162:
.LBB9161:
.LBB9160:
.LBB9159:
	.loc 1 105 0
	la 0,_ZTVN7sigslot15single_threadedE+8@l(9)
	stw 0,0(28)
.LBE9159:
.LBE9160:
.LBE9161:
.LBE9162:
.LBE9163:
.LBE9164:
.LBE9184:
.LBE9188:
.LBE9192:
.LBE9196:
.LBE9200:
.LBE9204:
	.loc 1 2238 0
	bl _ZdlPv
	lwz 0,44(1)
	lwz 28,24(1)
.LVL1247:
	mtlr 0
	lwz 29,28(1)
.LVL1248:
	lwz 30,32(1)
	lwz 31,36(1)
	addi 1,1,40
	.cfi_remember_state
.LCFI169:
	.cfi_def_cfa_offset 0
	.cfi_restore 31
	.cfi_restore 30
	.cfi_restore 29
	.cfi_restore 28
	blr
.LVL1249:
.L949:
.LCFI170:
	.cfi_restore_state
	mr 31,3
.L922:
.LBB9205:
.LBB9201:
.LBB9197:
.LBB9193:
.LBB9189:
.LBB9185:
.LBB9165:
.LBB9166:
.LBB9167:
.LBB9168:
.LBB9169:
.LBB9170:
	.loc 17 70 0
	lwz 3,4(28)
.LVL1250:
	.loc 17 71 0
	cmpw 7,3,29
	beq- 7,.L939
.LVL1251:
.L956:
.LBB9171:
	.loc 17 74 0
	lwz 30,0(3)
.LVL1252:
.LBB9172:
.LBB9173:
.LBB9174:
	.loc 8 98 0
	bl _ZdlPv
.LVL1253:
.LBE9174:
.LBE9173:
.LBE9172:
.LBE9171:
	.loc 17 71 0
	cmpw 7,30,29
	beq- 7,.L939
	.loc 17 74 0
	mr 3,30
	b .L956
.LVL1254:
.L950:
.LBE9170:
.LBE9169:
.LBE9168:
.LBE9167:
.LBE9166:
.LBE9165:
.LBB9175:
.LBB9142:
.LBB9137:
.LBB9138:
.LBB9139:
	.loc 1 343 0
	lwz 9,0(28)
	mr 31,3
.LVL1255:
	mr 3,28
	lwz 0,12(9)
	mtctr 0
	bctrl
	b .L922
.LVL1256:
.L939:
.LBE9139:
.LBE9138:
.LBE9137:
.LBE9142:
.LBE9175:
.LBB9176:
.LBB9177:
.LBB9178:
.LBB9179:
.LBB9180:
.LBB9181:
	.loc 1 105 0
	lis 9,_ZTVN7sigslot15single_threadedE+8@ha
	mr 3,31
	la 0,_ZTVN7sigslot15single_threadedE+8@l(9)
	stw 0,0(28)
.LEHB118:
	bl _Unwind_Resume
.LEHE118:
.LBE9181:
.LBE9180:
.LBE9179:
.LBE9178:
.LBE9177:
.LBE9176:
.LBE9185:
.LBE9189:
.LBE9193:
.LBE9197:
.LBE9201:
.LBE9205:
	.cfi_endproc
.LFE1628:
	.section	.gcc_except_table
.LLSDA1628:
	.byte	0xff
	.byte	0xff
	.byte	0x1
	.uleb128 .LLSDACSE1628-.LLSDACSB1628
.LLSDACSB1628:
	.uleb128 .LEHB115-.LFB1628
	.uleb128 .LEHE115-.LEHB115
	.uleb128 .L949-.LFB1628
	.uleb128 0
	.uleb128 .LEHB116-.LFB1628
	.uleb128 .LEHE116-.LEHB116
	.uleb128 .L950-.LFB1628
	.uleb128 0
	.uleb128 .LEHB117-.LFB1628
	.uleb128 .LEHE117-.LEHB117
	.uleb128 .L949-.LFB1628
	.uleb128 0
	.uleb128 .LEHB118-.LFB1628
	.uleb128 .LEHE118-.LEHB118
	.uleb128 0
	.uleb128 0
.LLSDACSE1628:
	.section	.text._ZN7sigslot7signal2IP10GuiElementbNS_15single_threadedEED0Ev,"axG",@progbits,_ZN7sigslot7signal2IP10GuiElementbNS_15single_threadedEED5Ev,comdat
	.size	_ZN7sigslot7signal2IP10GuiElementbNS_15single_threadedEED0Ev, .-_ZN7sigslot7signal2IP10GuiElementbNS_15single_threadedEED0Ev
	.section	.text._ZN7sigslot13_signal_base1IiNS_15single_threadedEED0Ev,"axG",@progbits,_ZN7sigslot13_signal_base1IiNS_15single_threadedEED5Ev,comdat
	.align 2
	.weak	_ZN7sigslot13_signal_base1IiNS_15single_threadedEED0Ev
	.type	_ZN7sigslot13_signal_base1IiNS_15single_threadedEED0Ev, @function
_ZN7sigslot13_signal_base1IiNS_15single_threadedEED0Ev:
.LFB1796:
	.loc 1 702 0
	.cfi_startproc
	.cfi_personality 0,__gxx_personality_v0
	.cfi_lsda 0,.LLSDA1796
.LVL1257:
	mflr 0
	stwu 1,-40(1)
.LCFI171:
	.cfi_def_cfa_offset 40
	.cfi_register 65, 0
.LBB9301:
.LBB9302:
.LBB9303:
	.loc 1 705 0
	lis 9,_ZTVN7sigslot13_signal_base1IiNS_15single_threadedEEE+8@ha
.LBE9303:
.LBE9302:
.LBE9301:
	.loc 1 702 0
	stw 28,24(1)
	mr 28,3
	.cfi_offset 28, -16
.LVL1258:
	stw 0,44(1)
.LBB9388:
.LBB9384:
.LBB9380:
	.loc 1 705 0
	la 0,_ZTVN7sigslot13_signal_base1IiNS_15single_threadedEEE+8@l(9)
	.cfi_offset 65, 4
.LBE9380:
.LBE9384:
.LBE9388:
	.loc 1 702 0
	stw 29,28(1)
	addi 29,3,4
	.cfi_offset 29, -12
	stw 30,32(1)
	stw 31,36(1)
.LBB9389:
.LBB9385:
.LBB9381:
	.loc 1 705 0
	stw 0,0(3)
.LVL1259:
.LEHB119:
.LBB9304:
.LBB9305:
.LBB9306:
.LBB9307:
	.loc 1 338 0
	.cfi_offset 31, -4
	.cfi_offset 30, -8
	bl _ZN7sigslot15single_threaded4lockEv
.LEHE119:
.LVL1260:
.LBE9307:
.LBE9306:
.LBE9305:
	.loc 3 326 0
	mr 29,28
	lwzu 31,4(29)
.LVL1261:
.LBB9338:
	.loc 1 713 0
	cmpw 7,31,29
	beq- 7,.L958
.LVL1262:
.L996:
	.loc 1 715 0
	lwz 3,8(31)
	lwz 9,0(3)
	lwz 0,8(9)
	mtctr 0
.LEHB120:
	bctrl
.LBB9308:
.LBB9309:
.LBB9310:
.LBB9311:
	.loc 1 338 0
	lwz 9,0(3)
.LBE9311:
.LBE9310:
.LBE9309:
.LBE9308:
	.loc 1 715 0
	mr 30,3
.LVL1263:
	stw 28,8(1)
.LVL1264:
.LBB9320:
.LBB9319:
.LBB9313:
.LBB9312:
	.loc 1 338 0
	lwz 0,8(9)
	mtctr 0
	bctrl
.LVL1265:
.LBE9312:
.LBE9313:
.LBB9314:
.LBB9315:
	.loc 14 528 0
	addi 3,30,4
	addi 4,1,8
	bl _ZNSt8_Rb_treeIPN7sigslot12_signal_baseINS0_15single_threadedEEES4_St9_IdentityIS4_ESt4lessIS4_ESaIS4_EE5eraseERKS4_
.LVL1266:
.LBE9315:
.LBE9314:
.LBB9316:
.LBB9317:
.LBB9318:
	.loc 1 343 0
	lwz 9,0(30)
	mr 3,30
	lwz 0,12(9)
	mtctr 0
	bctrl
.LVL1267:
.LBE9318:
.LBE9317:
.LBE9316:
.LBE9319:
.LBE9320:
	.loc 1 716 0
	lwz 3,8(31)
	cmpwi 7,3,0
	beq- 7,.L960
	lwz 9,0(3)
	lwz 0,4(9)
	mtctr 0
	bctrl
.LEHE120:
.L960:
.LVL1268:
.LBB9321:
.LBB9322:
	.loc 4 234 0
	lwz 31,0(31)
.LVL1269:
.LBE9322:
.LBE9321:
	.loc 1 713 0
	cmpw 7,29,31
	bne+ 7,.L996
.LBE9338:
	.loc 3 326 0
	lwz 31,4(28)
.LVL1270:
.LBB9339:
.LBB9323:
.LBB9324:
	.loc 4 1162 0
	cmpw 7,29,31
	bne+ 7,.L998
	b .L958
.LVL1271:
.L991:
	.loc 4 1163 0
	mr 31,30
.LVL1272:
.L998:
.LBB9325:
.LBB9326:
	.loc 17 112 0
	lwz 30,0(31)
.LVL1273:
.LBB9327:
.LBB9328:
	.loc 4 1532 0
	mr 3,31
	bl _ZNSt8__detail15_List_node_base9_M_unhookEv
.LVL1274:
.LBB9329:
.LBB9330:
.LBB9331:
	.loc 8 98 0
	mr 3,31
	bl _ZdlPv
.LVL1275:
.LBE9331:
.LBE9330:
.LBE9329:
.LBE9328:
.LBE9327:
.LBE9326:
.LBE9325:
	.loc 4 1162 0
	cmpw 7,29,30
	bne+ 7,.L991
.LVL1276:
.L958:
.LBE9324:
.LBE9323:
.LBB9332:
.LBB9333:
.LBB9334:
	.loc 1 343 0
	lwz 9,0(28)
	mr 3,28
	lwz 0,12(9)
	mtctr 0
.LEHB121:
	bctrl
.LEHE121:
.LVL1277:
.LBE9334:
.LBE9333:
.LBE9332:
.LBE9339:
.LBE9304:
.LBB9341:
.LBB9342:
.LBB9343:
.LBB9344:
.LBB9345:
.LBB9346:
	.loc 17 70 0
	lwz 3,4(28)
.LVL1278:
	.loc 17 71 0
	cmpw 7,3,29
	bne+ 7,.L1000
	b .L976
.LVL1279:
.L992:
	.loc 17 74 0
	mr 3,31
.LVL1280:
.L1000:
.LBB9347:
	lwz 31,0(3)
.LVL1281:
.LBB9348:
.LBB9349:
.LBB9350:
	.loc 8 98 0
	bl _ZdlPv
.LVL1282:
.LBE9350:
.LBE9349:
.LBE9348:
.LBE9347:
	.loc 17 71 0
	cmpw 7,31,29
	bne+ 7,.L992
.LVL1283:
.L976:
.LBE9346:
.LBE9345:
.LBE9344:
.LBE9343:
.LBE9342:
.LBE9341:
.LBB9351:
.LBB9352:
.LBB9353:
.LBB9354:
.LBB9355:
.LBB9356:
	.loc 1 105 0
	lis 9,_ZTVN7sigslot15single_threadedE+8@ha
.LBE9356:
.LBE9355:
.LBE9354:
.LBE9353:
.LBE9352:
.LBE9351:
.LBE9381:
.LBE9385:
.LBE9389:
	.loc 1 705 0
	mr 3,28
.LBB9390:
.LBB9386:
.LBB9382:
.LBB9362:
.LBB9361:
.LBB9360:
.LBB9359:
.LBB9358:
.LBB9357:
	.loc 1 105 0
	la 0,_ZTVN7sigslot15single_threadedE+8@l(9)
	stw 0,0(28)
.LBE9357:
.LBE9358:
.LBE9359:
.LBE9360:
.LBE9361:
.LBE9362:
.LBE9382:
.LBE9386:
.LBE9390:
	.loc 1 705 0
	bl _ZdlPv
	lwz 0,44(1)
	lwz 28,24(1)
.LVL1284:
	mtlr 0
	lwz 29,28(1)
.LVL1285:
	lwz 30,32(1)
	lwz 31,36(1)
	addi 1,1,40
	.cfi_remember_state
.LCFI172:
	.cfi_def_cfa_offset 0
	.cfi_restore 31
	.cfi_restore 30
	.cfi_restore 29
	.cfi_restore 28
	blr
.LVL1286:
.L994:
.LCFI173:
	.cfi_restore_state
	mr 31,3
.L968:
.LVL1287:
.LBB9391:
.LBB9387:
.LBB9383:
.LBB9363:
.LBB9364:
.LBB9365:
.LBB9366:
.LBB9367:
.LBB9368:
	.loc 17 70 0
	lwz 3,4(28)
.LVL1288:
	.loc 17 71 0
	cmpw 7,3,29
	beq- 7,.L985
.LVL1289:
.L1001:
.LBB9369:
	.loc 17 74 0
	lwz 30,0(3)
.LVL1290:
.LBB9370:
.LBB9371:
.LBB9372:
	.loc 8 98 0
	bl _ZdlPv
.LVL1291:
.LBE9372:
.LBE9371:
.LBE9370:
.LBE9369:
	.loc 17 71 0
	cmpw 7,30,29
	beq- 7,.L985
	.loc 17 74 0
	mr 3,30
	b .L1001
.LVL1292:
.L995:
.LBE9368:
.LBE9367:
.LBE9366:
.LBE9365:
.LBE9364:
.LBE9363:
.LBB9373:
.LBB9340:
.LBB9335:
.LBB9336:
.LBB9337:
	.loc 1 343 0
	lwz 9,0(28)
	mr 31,3
.LVL1293:
	mr 3,28
	lwz 0,12(9)
	mtctr 0
	bctrl
	b .L968
.LVL1294:
.L985:
.LBE9337:
.LBE9336:
.LBE9335:
.LBE9340:
.LBE9373:
.LBB9374:
.LBB9375:
.LBB9376:
.LBB9377:
.LBB9378:
.LBB9379:
	.loc 1 105 0
	lis 9,_ZTVN7sigslot15single_threadedE+8@ha
	mr 3,31
	la 0,_ZTVN7sigslot15single_threadedE+8@l(9)
	stw 0,0(28)
.LEHB122:
	bl _Unwind_Resume
.LEHE122:
.LBE9379:
.LBE9378:
.LBE9377:
.LBE9376:
.LBE9375:
.LBE9374:
.LBE9383:
.LBE9387:
.LBE9391:
	.cfi_endproc
.LFE1796:
	.section	.gcc_except_table
.LLSDA1796:
	.byte	0xff
	.byte	0xff
	.byte	0x1
	.uleb128 .LLSDACSE1796-.LLSDACSB1796
.LLSDACSB1796:
	.uleb128 .LEHB119-.LFB1796
	.uleb128 .LEHE119-.LEHB119
	.uleb128 .L994-.LFB1796
	.uleb128 0
	.uleb128 .LEHB120-.LFB1796
	.uleb128 .LEHE120-.LEHB120
	.uleb128 .L995-.LFB1796
	.uleb128 0
	.uleb128 .LEHB121-.LFB1796
	.uleb128 .LEHE121-.LEHB121
	.uleb128 .L994-.LFB1796
	.uleb128 0
	.uleb128 .LEHB122-.LFB1796
	.uleb128 .LEHE122-.LEHB122
	.uleb128 0
	.uleb128 0
.LLSDACSE1796:
	.section	.text._ZN7sigslot13_signal_base1IiNS_15single_threadedEED0Ev,"axG",@progbits,_ZN7sigslot13_signal_base1IiNS_15single_threadedEED5Ev,comdat
	.size	_ZN7sigslot13_signal_base1IiNS_15single_threadedEED0Ev, .-_ZN7sigslot13_signal_base1IiNS_15single_threadedEED0Ev
	.section	.text._ZN7sigslot7signal1IiNS_15single_threadedEED0Ev,"axG",@progbits,_ZN7sigslot7signal1IiNS_15single_threadedEED5Ev,comdat
	.align 2
	.weak	_ZN7sigslot7signal1IiNS_15single_threadedEED0Ev
	.type	_ZN7sigslot7signal1IiNS_15single_threadedEED0Ev, @function
_ZN7sigslot7signal1IiNS_15single_threadedEED0Ev:
.LFB1668:
	.loc 1 2169 0
	.cfi_startproc
	.cfi_personality 0,__gxx_personality_v0
	.cfi_lsda 0,.LLSDA1668
.LVL1295:
	mflr 0
	stwu 1,-40(1)
.LCFI174:
	.cfi_def_cfa_offset 40
	.cfi_register 65, 0
.LBB9490:
.LBB9491:
.LBB9492:
.LBB9493:
.LBB9494:
.LBB9495:
	.loc 1 705 0
	lis 9,_ZTVN7sigslot13_signal_base1IiNS_15single_threadedEEE+8@ha
.LBE9495:
.LBE9494:
.LBE9493:
.LBE9492:
.LBE9491:
.LBE9490:
	.loc 1 2169 0
	stw 28,24(1)
	mr 28,3
	.cfi_offset 28, -16
.LVL1296:
	stw 0,44(1)
.LBB9592:
.LBB9588:
.LBB9584:
.LBB9580:
.LBB9576:
.LBB9572:
	.loc 1 705 0
	la 0,_ZTVN7sigslot13_signal_base1IiNS_15single_threadedEEE+8@l(9)
	.cfi_offset 65, 4
.LBE9572:
.LBE9576:
.LBE9580:
.LBE9584:
.LBE9588:
.LBE9592:
	.loc 1 2169 0
	stw 29,28(1)
	addi 29,3,4
	.cfi_offset 29, -12
	stw 30,32(1)
	stw 31,36(1)
.LBB9593:
.LBB9589:
.LBB9585:
.LBB9581:
.LBB9577:
.LBB9573:
	.loc 1 705 0
	stw 0,0(3)
.LVL1297:
.LEHB123:
.LBB9496:
.LBB9497:
.LBB9498:
.LBB9499:
	.loc 1 338 0
	.cfi_offset 31, -4
	.cfi_offset 30, -8
	bl _ZN7sigslot15single_threaded4lockEv
.LEHE123:
.LVL1298:
.LBE9499:
.LBE9498:
.LBE9497:
	.loc 3 326 0
	mr 29,28
.LVL1299:
	lwzu 31,4(29)
.LVL1300:
.LBB9530:
	.loc 1 713 0
	cmpw 7,31,29
	beq- 7,.L1003
.LVL1301:
.L1042:
	.loc 1 715 0
	lwz 3,8(31)
	lwz 9,0(3)
	lwz 0,8(9)
	mtctr 0
.LEHB124:
	bctrl
.LBB9500:
.LBB9501:
.LBB9502:
.LBB9503:
	.loc 1 338 0
	lwz 9,0(3)
.LBE9503:
.LBE9502:
.LBE9501:
.LBE9500:
	.loc 1 715 0
	mr 30,3
.LVL1302:
	stw 28,8(1)
.LVL1303:
.LBB9512:
.LBB9511:
.LBB9505:
.LBB9504:
	.loc 1 338 0
	lwz 0,8(9)
	mtctr 0
	bctrl
.LVL1304:
.LBE9504:
.LBE9505:
.LBB9506:
.LBB9507:
	.loc 14 528 0
	addi 3,30,4
	addi 4,1,8
	bl _ZNSt8_Rb_treeIPN7sigslot12_signal_baseINS0_15single_threadedEEES4_St9_IdentityIS4_ESt4lessIS4_ESaIS4_EE5eraseERKS4_
.LVL1305:
.LBE9507:
.LBE9506:
.LBB9508:
.LBB9509:
.LBB9510:
	.loc 1 343 0
	lwz 9,0(30)
	mr 3,30
	lwz 0,12(9)
	mtctr 0
	bctrl
.LVL1306:
.LBE9510:
.LBE9509:
.LBE9508:
.LBE9511:
.LBE9512:
	.loc 1 716 0
	lwz 3,8(31)
	cmpwi 7,3,0
	beq- 7,.L1005
	lwz 9,0(3)
	lwz 0,4(9)
	mtctr 0
	bctrl
.LEHE124:
.L1005:
.LVL1307:
.LBB9513:
.LBB9514:
	.loc 4 234 0
	lwz 31,0(31)
.LVL1308:
.LBE9514:
.LBE9513:
	.loc 1 713 0
	cmpw 7,29,31
	bne+ 7,.L1042
.LBE9530:
	.loc 3 326 0
	lwz 31,4(28)
.LVL1309:
.LBB9531:
.LBB9515:
.LBB9516:
	.loc 4 1162 0
	cmpw 7,29,31
	bne+ 7,.L1044
	b .L1003
.LVL1310:
.L1037:
	.loc 4 1163 0
	mr 31,30
.LVL1311:
.L1044:
.LBB9517:
.LBB9518:
	.loc 17 112 0
	lwz 30,0(31)
.LVL1312:
.LBB9519:
.LBB9520:
	.loc 4 1532 0
	mr 3,31
	bl _ZNSt8__detail15_List_node_base9_M_unhookEv
.LVL1313:
.LBB9521:
.LBB9522:
.LBB9523:
	.loc 8 98 0
	mr 3,31
	bl _ZdlPv
.LVL1314:
.LBE9523:
.LBE9522:
.LBE9521:
.LBE9520:
.LBE9519:
.LBE9518:
.LBE9517:
	.loc 4 1162 0
	cmpw 7,29,30
	bne+ 7,.L1037
.LVL1315:
.L1003:
.LBE9516:
.LBE9515:
.LBB9524:
.LBB9525:
.LBB9526:
	.loc 1 343 0
	lwz 9,0(28)
	mr 3,28
	lwz 0,12(9)
	mtctr 0
.LEHB125:
	bctrl
.LEHE125:
.LBE9526:
.LBE9525:
.LBE9524:
.LBE9531:
.LBE9496:
.LBB9533:
.LBB9534:
.LBB9535:
.LBB9536:
.LBB9537:
.LBB9538:
	.loc 17 70 0
	lwz 3,4(28)
.LVL1316:
	.loc 17 71 0
	cmpw 7,3,29
	bne+ 7,.L1046
	b .L1021
.LVL1317:
.L1038:
	.loc 17 74 0
	mr 3,31
.LVL1318:
.L1046:
.LBB9539:
	lwz 31,0(3)
.LVL1319:
.LBB9540:
.LBB9541:
.LBB9542:
	.loc 8 98 0
	bl _ZdlPv
