	.file	"DeviceHandler.cpp"
	.section	".text"
.Ltext0:
	.align 2
	.globl _ZN13DeviceHandler8InstanceEv
	.type	_ZN13DeviceHandler8InstanceEv, @function
_ZN13DeviceHandler8InstanceEv:
.LFB880:
	.file 1 "d:/Projects/SaveGameManager/savegame-manager-gx/trunk/source/DeviceControls/DeviceHandler.cpp"
	.loc 1 52 0
	.cfi_startproc
	stwu 1,-16(1)
.LCFI0:
	.cfi_def_cfa_offset 16
	mflr 0
	stw 31,12(1)
	.loc 1 53 0
	lis 31,_ZN13DeviceHandler8instanceE@ha
	.cfi_offset 31, -4
	.cfi_register 65, 0
	lwz 3,_ZN13DeviceHandler8instanceE@l(31)
	.loc 1 52 0
	stw 0,20(1)
	.loc 1 53 0
	cmpwi 7,3,0
	beq- 7,.L4
	.cfi_offset 65, 4
	.loc 1 58 0
	lwz 0,20(1)
	lwz 31,12(1)
	mtlr 0
	addi 1,1,16
	.cfi_remember_state
.LCFI1:
	.cfi_def_cfa_offset 0
	.cfi_restore 31
	blr
.L4:
.LCFI2:
	.cfi_restore_state
	.loc 1 55 0
	li 3,12
	bl _Znwj
.LVL0:
.LBB151:
.LBB152:
	.file 2 "d:/Projects/SaveGameManager/savegame-manager-gx/trunk/source/DeviceControls/DeviceHandler.hpp"
	.loc 2 174 0
	li 0,0
	stw 0,0(3)
	stw 0,4(3)
	stw 0,8(3)
.LBE152:
.LBE151:
	.loc 1 58 0
	lwz 0,20(1)
	.loc 1 55 0
	stw 3,_ZN13DeviceHandler8instanceE@l(31)
	.loc 1 58 0
	mtlr 0
	lwz 31,12(1)
	addi 1,1,16
	.cfi_restore 31
.LCFI3:
	.cfi_def_cfa_offset 0
	blr
	.cfi_endproc
.LFE880:
	.size	_ZN13DeviceHandler8InstanceEv, .-_ZN13DeviceHandler8InstanceEv
	.align 2
	.globl _ZN13DeviceHandler10IsInsertedEi
	.type	_ZN13DeviceHandler10IsInsertedEi, @function
_ZN13DeviceHandler10IsInsertedEi:
.LFB885:
	.loc 1 139 0
	.cfi_startproc
.LVL1:
	.loc 1 140 0
	cmpwi 0,4,0
	.loc 1 139 0
	mflr 0
	stwu 1,-16(1)
.LCFI4:
	.cfi_def_cfa_offset 16
	.cfi_register 65, 0
	stw 30,8(1)
	mr 30,3
	.cfi_offset 30, -8
	stw 0,20(1)
	stw 31,12(1)
	.loc 1 140 0
	bne- 0,.L6
	.cfi_offset 31, -4
	.cfi_offset 65, 4
	.loc 1 441 0
	lwz 9,0(3)
.LBB185:
.LBB186:
	.loc 1 141 0
	li 31,0
	.loc 2 149 0
	cmpwi 7,9,0
	beq- 7,.L7
.LBE186:
	.loc 1 441 0
	lwz 9,0(9)
.LBB189:
.LBB187:
.LBB188:
	.file 3 "d:/Projects/SaveGameManager/savegame-manager-gx/trunk/source/DeviceControls/PartitionHandle.h"
	.loc 3 124 0
	cmpwi 7,9,0
	beq- 7,.L7
	lwz 0,12(9)
	mtctr 0
	bctrl
.LVL2:
.LBE188:
.LBE187:
.LBE189:
.LBE185:
	.loc 1 141 0
	cmpwi 7,3,0
	bne- 7,.L23
.L7:
	.loc 1 168 0
	lwz 0,20(1)
	mr 3,31
	lwz 30,8(1)
.LVL3:
	mtlr 0
	lwz 31,12(1)
	addi 1,1,16
	.cfi_remember_state
.LCFI5:
	.cfi_def_cfa_offset 0
	.cfi_restore 31
	.cfi_restore 30
	blr
.LVL4:
.L6:
.LCFI6:
	.cfi_restore_state
	.loc 1 149 0
	addi 0,4,-1
	.loc 1 167 0
	li 31,0
	.loc 1 149 0
	cmplwi 7,0,7
	bgt- 7,.L7
.LVL5:
.LBB190:
.LBB191:
	.loc 1 421 0
	lwz 3,4(3)
.LVL6:
	cmpwi 6,3,0
	beq- 6,.L8
.LVL7:
.LBB192:
.LBB193:
.LBB194:
	.file 4 "d:\\devkitpro\\devkitppc\\bin\\../lib/gcc/powerpc-eabi/4.6.3/../../../../powerpc-eabi/include/c++/4.6.3/bits/stl_vector.h"
	.loc 4 571 0
	lwz 11,8(3)
	lwz 9,4(3)
	subf 9,9,11
	lis 11,0x684b
	ori 11,11,55827
	mullw 9,9,11
.LBE194:
.LBE193:
.LBE192:
	.loc 1 421 0
	cmpw 7,4,9
	ble- 7,.L9
.LVL8:
.L8:
.LBE191:
.LBE190:
	.loc 1 150 0
	lwz 11,8(30)
	li 31,0
	cmpwi 7,11,0
	beq- 7,.L7
	lwz 9,4(3)
	lwz 10,8(3)
	subf 10,9,10
	lis 9,0x684b
	ori 9,9,55827
	mullw 9,10,9
.LVL9:
.LBB195:
.LBB196:
	.loc 1 421 0
	beq- 6,.L10
	cmpw 7,4,9
.LVL10:
.L9:
	ble- 7,.L22
	.loc 1 422 0
	lwz 3,8(30)
.L22:
.LBE196:
.LBE195:
.LBB198:
.LBB199:
	.loc 1 429 0
	cmpw 7,9,0
.LBE199:
.LBE198:
	.loc 1 150 0
	mr 4,0
.LVL11:
.LBB206:
.LBB204:
	.loc 1 429 0
	bgt- 7,.L14
.LVL12:
.LBB200:
.LBB201:
	.loc 1 430 0
	subf 4,9,0
.LVL13:
.L14:
.LBE201:
.LBE200:
.LBE204:
.LBE206:
	.loc 1 150 0
	bl _ZN15PartitionHandle9IsMountedEi
.LVL14:
	.loc 1 168 0
	lwz 0,20(1)
	.loc 1 150 0
	mr 31,3
	.loc 1 168 0
	lwz 30,8(1)
.LVL15:
	mtlr 0
	mr 3,31
	lwz 31,12(1)
	addi 1,1,16
	.cfi_remember_state
	.cfi_restore 30
	.cfi_restore 31
.LCFI7:
	.cfi_def_cfa_offset 0
	blr
.LVL16:
.L23:
.LCFI8:
	.cfi_restore_state
	.loc 1 141 0 discriminator 1
	lwz 3,0(30)
	li 4,0
	bl _ZN15PartitionHandle9IsMountedEi
	.loc 1 168 0 discriminator 1
	lwz 0,20(1)
	.loc 1 141 0 discriminator 1
	mr 31,3
	.loc 1 168 0 discriminator 1
	lwz 30,8(1)
.LVL17:
	mtlr 0
	mr 3,31
	lwz 31,12(1)
	addi 1,1,16
	.cfi_remember_state
	.cfi_restore 30
	.cfi_restore 31
.LCFI9:
	.cfi_def_cfa_offset 0
	blr
.LVL18:
.L10:
.LCFI10:
	.cfi_restore_state
.LBB207:
.LBB197:
	.loc 1 422 0
	mr 3,11
.LVL19:
.LBE197:
.LBE207:
.LBB208:
.LBB205:
.LBB203:
.LBB202:
	.loc 1 430 0
	subf 4,9,0
.LVL20:
	b .L14
.LBE202:
.LBE203:
.LBE205:
.LBE208:
	.cfi_endproc
.LFE885:
	.size	_ZN13DeviceHandler10IsInsertedEi, .-_ZN13DeviceHandler10IsInsertedEi
	.align 2
	.globl _ZN13DeviceHandler7MountSDEv
	.type	_ZN13DeviceHandler7MountSDEv, @function
_ZN13DeviceHandler7MountSDEv:
.LFB887:
	.loc 1 201 0
	.cfi_startproc
	.cfi_personality 0,__gxx_personality_v0
	.cfi_lsda 0,.LLSDA887
.LVL21:
	mflr 0
	stwu 1,-16(1)
.LCFI11:
	.cfi_def_cfa_offset 16
	.cfi_register 65, 0
	stw 31,12(1)
	stw 0,20(1)
	stw 30,8(1)
	.loc 1 201 0
	mr 30,3
	.cfi_offset 30, -8
	.cfi_offset 65, 4
	.cfi_offset 31, -4
	.loc 1 202 0
	lwz 31,0(3)
	cmpwi 7,31,0
	beq- 7,.L30
.LVL22:
.L25:
.LBB213:
.LBB214:
.LBB215:
	.loc 4 571 0
	lwz 9,8(31)
.LBE215:
.LBE214:
.LBE213:
	.loc 1 207 0
	mr 3,31
.LBB218:
.LBB217:
.LBB216:
	.loc 4 571 0
	lwz 0,4(31)
	subf 0,0,9
.LBE216:
.LBE217:
.LBE218:
	.loc 1 205 0
	cmpwi 7,0,26
	ble- 7,.L31
	.loc 1 213 0
	lis 5,.LANCHOR0@ha
	li 4,0
	la 5,.LANCHOR0@l(5)
.LEHB0:
	bl _ZN15PartitionHandle5MountEiPKc
	.loc 1 214 0
	lwz 0,20(1)
	lwz 30,8(1)
.LVL23:
	mtlr 0
	lwz 31,12(1)
.LVL24:
	addi 1,1,16
	.cfi_remember_state
.LCFI12:
	.cfi_def_cfa_offset 0
	.cfi_restore 31
	.cfi_restore 30
	blr
.LVL25:
.L31:
.LCFI13:
	.cfi_restore_state
	.loc 1 207 0
	bl _ZN15PartitionHandleD1Ev
.LVL26:
	mr 3,31
	bl _ZdlPv
	.loc 1 208 0
	li 0,0
	stw 0,0(30)
	.loc 1 209 0
	li 3,0
	.loc 1 214 0
	lwz 0,20(1)
	lwz 30,8(1)
.LVL27:
	mtlr 0
	lwz 31,12(1)
.LVL28:
	addi 1,1,16
	.cfi_remember_state
	.cfi_restore 30
	.cfi_restore 31
.LCFI14:
	.cfi_def_cfa_offset 0
	blr
.LVL29:
.L30:
.LCFI15:
	.cfi_restore_state
	.loc 1 203 0
	li 3,32
.LVL30:
	bl _Znwj
.LEHE0:
	lis 4,__io_wiisd@ha
	la 4,__io_wiisd@l(4)
	mr 31,3
.LEHB1:
	bl _ZN15PartitionHandleC1EPK21DISC_INTERFACE_STRUCT
.LEHE1:
	.loc 1 203 0 is_stmt 0 discriminator 1
	stw 31,0(30)
	b .L25
.L29:
	mr 30,3
.LVL31:
	.loc 1 203 0
	mr 3,31
	bl _ZdlPv
	mr 3,30
.LEHB2:
	bl _Unwind_Resume
.LEHE2:
	.cfi_endproc
.LFE887:
	.globl __gxx_personality_v0
	.section	.gcc_except_table,"a",@progbits
.LLSDA887:
	.byte	0xff
	.byte	0xff
	.byte	0x1
	.uleb128 .LLSDACSE887-.LLSDACSB887
.LLSDACSB887:
	.uleb128 .LEHB0-.LFB887
	.uleb128 .LEHE0-.LEHB0
	.uleb128 0
	.uleb128 0
	.uleb128 .LEHB1-.LFB887
	.uleb128 .LEHE1-.LEHB1
	.uleb128 .L29-.LFB887
	.uleb128 0
	.uleb128 .LEHB2-.LFB887
	.uleb128 .LEHE2-.LEHB2
	.uleb128 0
	.uleb128 0
.LLSDACSE887:
	.section	".text"
	.size	_ZN13DeviceHandler7MountSDEv, .-_ZN13DeviceHandler7MountSDEv
	.align 2
	.globl _ZN13DeviceHandler8MountUSBEi
	.type	_ZN13DeviceHandler8MountUSBEi, @function
_ZN13DeviceHandler8MountUSBEi:
.LFB888:
	.loc 1 249 0 is_stmt 1
	.cfi_startproc
	.cfi_personality 0,__gxx_personality_v0
	.cfi_lsda 0,.LLSDA888
.LVL32:
	mflr 0
	stwu 1,-24(1)
.LCFI16:
	.cfi_def_cfa_offset 24
	.cfi_register 65, 0
	stw 31,20(1)
	stw 0,28(1)
	stw 28,8(1)
	mr 28,3
	.cfi_offset 28, -16
	.cfi_offset 65, 4
	.cfi_offset 31, -4
.LBB250:
	.loc 1 250 0
	lwz 31,4(3)
.LBE250:
	.loc 1 249 0
	stw 29,12(1)
	mr 29,4
	.cfi_offset 29, -12
.LBB262:
	.loc 1 250 0
	cmpwi 7,31,0
.LBE262:
	.loc 1 249 0
	stw 30,16(1)
.LBB263:
	.loc 1 250 0
	beq- 7,.L52
	.cfi_offset 30, -8
.LVL33:
.L33:
	.loc 1 252 0
	lwz 30,8(28)
	cmpwi 7,30,0
	beq- 7,.L53
.L45:
.LVL34:
	.loc 1 256 0
	cmpwi 6,31,0
	.loc 1 255 0
	li 0,0
	.loc 1 256 0
	beq- 6,.L37
.LVL35:
.LBB251:
.LBB252:
.LBB253:
	.loc 4 571 0
	lwz 9,8(31)
	lwz 0,4(31)
	subf 0,0,9
	lis 9,0x684b
	ori 9,9,55827
	mullw 0,0,9
.LVL36:
.L37:
.LBE253:
.LBE252:
.LBE251:
	.loc 1 258 0
	beq- 7,.L38
.LVL37:
.LBB254:
.LBB255:
.LBB256:
	.loc 4 571 0
	lwz 11,8(30)
	lwz 9,4(30)
	subf 9,9,11
	lis 11,0x684b
	ori 11,11,55827
	mullw 9,9,11
.LBE256:
.LBE255:
.LBE254:
	.loc 1 259 0
	add 0,0,9
.LVL38:
.L38:
	.loc 1 261 0
	cmpw 7,0,29
	.loc 1 262 0
	li 3,0
	.loc 1 261 0
	ble- 7,.L39
.LVL39:
.LBB257:
.LBB258:
	.loc 1 421 0
	lwz 9,8(31)
	lwz 0,4(31)
.LVL40:
	subf 0,0,9
	lis 9,0x684b
	ori 9,9,55827
	mullw 0,0,9
	beq- 6,.L41
.LVL41:
	cmpw 7,29,0
	mr 4,29
	bge- 7,.L41
.LVL42:
.L42:
.LBE258:
.LBE257:
	.loc 1 264 0
	addi 29,29,1
.LVL43:
	lis 5,.LANCHOR0@ha
	mulli 29,29,6
.LVL44:
	la 5,.LANCHOR0@l(5)
	mr 3,31
	add 5,5,29
.LEHB3:
	bl _ZN15PartitionHandle5MountEiPKc
.L39:
.LBE263:
	.loc 1 265 0
	lwz 0,28(1)
	lwz 28,8(1)
.LVL45:
	mtlr 0
	lwz 29,12(1)
	lwz 30,16(1)
	lwz 31,20(1)
	addi 1,1,24
	.cfi_remember_state
.LCFI17:
	.cfi_def_cfa_offset 0
	.cfi_restore 31
	.cfi_restore 30
	.cfi_restore 29
	.cfi_restore 28
	blr
.LVL46:
.L41:
.LCFI18:
	.cfi_restore_state
.LBB264:
.LBB259:
.LBB260:
.LBB261:
	.loc 1 430 0
	subf 4,0,29
	mr 31,30
	b .L42
.LVL47:
.L53:
.LBE261:
.LBE260:
.LBE259:
	.loc 1 252 0 discriminator 1
	lis 9,Settings+136@ha
	lha 0,Settings+136@l(9)
	cmpwi 6,0,1
	bne+ 6,.L45
	.loc 1 252 0 is_stmt 0 discriminator 3
	bl IOS_GetVersion
	cmpwi 7,3,200
	bgt- 7,.L36
	.loc 1 252 0
	lwz 30,8(28)
	lwz 31,4(28)
	cmpwi 7,30,0
	b .L45
.L52:
	.loc 1 251 0 is_stmt 1
	bl IOS_GetVersion
	cmpwi 7,3,200
	bgt- 7,.L54
	lis 30,__io_usbstorage@ha
	la 30,__io_usbstorage@l(30)
.L34:
	.loc 1 251 0 is_stmt 0 discriminator 3
	li 3,32
	bl _Znwj
.LEHE3:
	mr 4,30
	mr 31,3
.LEHB4:
	bl _ZN15PartitionHandleC1EPK21DISC_INTERFACE_STRUCT
.LEHE4:
	.loc 1 251 0 discriminator 1
	stw 31,4(28)
	b .L33
.L54:
	.loc 1 251 0
	lis 30,__io_usbstorage2_port0@ha
	la 30,__io_usbstorage2_port0@l(30)
	b .L34
.L36:
	.loc 1 253 0 is_stmt 1 discriminator 5
	li 3,32
.LEHB5:
	bl _Znwj
.LEHE5:
	lis 4,__io_usbstorage2_port1@ha
	la 4,__io_usbstorage2_port1@l(4)
	mr 30,3
.LEHB6:
	bl _ZN15PartitionHandleC1EPK21DISC_INTERFACE_STRUCT
.LEHE6:
	.loc 1 253 0 is_stmt 0 discriminator 1
	stw 30,8(28)
	cmpwi 7,30,0
	lwz 31,4(28)
	b .L45
.L50:
	mr 30,3
	.loc 1 251 0 is_stmt 1
	mr 3,31
	bl _ZdlPv
	mr 3,30
.LEHB7:
	bl _Unwind_Resume
.L51:
	mr 31,3
	.loc 1 253 0
	mr 3,30
	bl _ZdlPv
	mr 3,31
	bl _Unwind_Resume
.LEHE7:
.LBE264:
	.cfi_endproc
.LFE888:
	.section	.gcc_except_table
.LLSDA888:
	.byte	0xff
	.byte	0xff
	.byte	0x1
	.uleb128 .LLSDACSE888-.LLSDACSB888
.LLSDACSB888:
	.uleb128 .LEHB3-.LFB888
	.uleb128 .LEHE3-.LEHB3
	.uleb128 0
	.uleb128 0
	.uleb128 .LEHB4-.LFB888
	.uleb128 .LEHE4-.LEHB4
	.uleb128 .L50-.LFB888
	.uleb128 0
	.uleb128 .LEHB5-.LFB888
	.uleb128 .LEHE5-.LEHB5
	.uleb128 0
	.uleb128 0
	.uleb128 .LEHB6-.LFB888
	.uleb128 .LEHE6-.LEHB6
	.uleb128 .L51-.LFB888
	.uleb128 0
	.uleb128 .LEHB7-.LFB888
	.uleb128 .LEHE7-.LEHB7
	.uleb128 0
	.uleb128 0
.LLSDACSE888:
	.section	".text"
	.size	_ZN13DeviceHandler8MountUSBEi, .-_ZN13DeviceHandler8MountUSBEi
	.align 2
	.globl _ZN13DeviceHandler5MountEi
	.type	_ZN13DeviceHandler5MountEi, @function
_ZN13DeviceHandler5MountEi:
.LFB884:
	.loc 1 107 0
	.cfi_startproc
	.cfi_personality 0,__gxx_personality_v0
	.cfi_lsda 0,.LLSDA884
.LVL48:
	.loc 1 108 0
	cmpwi 0,4,0
	.loc 1 107 0
	mflr 0
	stwu 1,-16(1)
.LCFI19:
	.cfi_def_cfa_offset 16
	.cfi_register 65, 0
	stw 31,12(1)
	mr 31,3
	.cfi_offset 31, -4
	stw 0,20(1)
	stw 30,8(1)
	.loc 1 108 0
	beq- 0,.L64
	.cfi_offset 30, -8
	.cfi_offset 65, 4
	.loc 1 117 0
	addi 4,4,-1
.LVL49:
	.loc 1 135 0
	li 0,0
	.loc 1 117 0
	cmplwi 7,4,9
	ble- 7,.L65
.LVL50:
.L60:
	.loc 1 136 0
	mr 3,0
	lwz 0,20(1)
	lwz 30,8(1)
	mtlr 0
	lwz 31,12(1)
.LVL51:
	addi 1,1,16
	.cfi_remember_state
.LCFI20:
	.cfi_def_cfa_offset 0
	.cfi_restore 31
	.cfi_restore 30
	blr
.LVL52:
.L65:
.LCFI21:
	.cfi_restore_state
	lwz 0,20(1)
	lwz 30,8(1)
	lwz 31,12(1)
	mtlr 0
	addi 1,1,16
	.cfi_remember_state
.LCFI22:
	.cfi_def_cfa_offset 0
	.cfi_restore 31
	.cfi_restore 30
.LEHB8:
	.loc 1 118 0
	b _ZN13DeviceHandler8MountUSBEi
.LVL53:
.L64:
.LCFI23:
	.cfi_restore_state
.LBB271:
.LBB272:
	.loc 1 202 0
	lwz 30,0(3)
	cmpwi 7,30,0
	beq- 7,.L66
.LVL54:
.L57:
.LBB273:
.LBB274:
.LBB275:
	.loc 4 571 0
	lwz 9,8(30)
.LBE275:
.LBE274:
.LBE273:
	.loc 1 207 0
	mr 3,30
.LBB278:
.LBB277:
.LBB276:
	.loc 4 571 0
	lwz 0,4(30)
	subf 0,0,9
.LBE276:
.LBE277:
.LBE278:
	.loc 1 205 0
	cmpwi 7,0,26
	ble- 7,.L67
	.loc 1 213 0
	lis 5,.LANCHOR0@ha
	li 4,0
	la 5,.LANCHOR0@l(5)
	bl _ZN15PartitionHandle5MountEiPKc
.LBE272:
.LBE271:
	.loc 1 136 0
	lwz 30,8(1)
.LVL55:
.LBB281:
.LBB279:
	.loc 1 213 0
	mr 0,3
.LBE279:
.LBE281:
	.loc 1 136 0
	lwz 31,12(1)
.LVL56:
	mr 3,0
	lwz 0,20(1)
	addi 1,1,16
	.cfi_remember_state
	.cfi_restore 30
	.cfi_restore 31
.LCFI24:
	.cfi_def_cfa_offset 0
	mtlr 0
	blr
.LVL57:
.L67:
.LCFI25:
	.cfi_restore_state
.LBB282:
.LBB280:
	.loc 1 207 0
	bl _ZN15PartitionHandleD1Ev
.LVL58:
	mr 3,30
	bl _ZdlPv
	.loc 1 208 0
	li 0,0
	stw 0,0(31)
	b .L60
.LVL59:
.L66:
	.loc 1 203 0
	li 3,32
	bl _Znwj
.LEHE8:
.LVL60:
	lis 4,__io_wiisd@ha
	la 4,__io_wiisd@l(4)
	mr 30,3
.LEHB9:
	bl _ZN15PartitionHandleC1EPK21DISC_INTERFACE_STRUCT
.LEHE9:
	stw 30,0(31)
	b .L57
.L63:
	mr 31,3
.LVL61:
	mr 3,30
	bl _ZdlPv
	mr 3,31
.LEHB10:
	bl _Unwind_Resume
.LEHE10:
.LBE280:
.LBE282:
	.cfi_endproc
.LFE884:
	.section	.gcc_except_table
.LLSDA884:
	.byte	0xff
	.byte	0xff
	.byte	0x1
	.uleb128 .LLSDACSE884-.LLSDACSB884
.LLSDACSB884:
	.uleb128 .LEHB8-.LFB884
	.uleb128 .LEHE8-.LEHB8
	.uleb128 0
	.uleb128 0
	.uleb128 .LEHB9-.LFB884
	.uleb128 .LEHE9-.LEHB9
	.uleb128 .L63-.LFB884
	.uleb128 0
	.uleb128 .LEHB10-.LFB884
	.uleb128 .LEHE10-.LEHB10
	.uleb128 0
	.uleb128 0
.LLSDACSE884:
	.section	".text"
	.size	_ZN13DeviceHandler5MountEi, .-_ZN13DeviceHandler5MountEi
	.align 2
	.globl _ZN13DeviceHandler8MountAllEv
	.type	_ZN13DeviceHandler8MountAllEv, @function
_ZN13DeviceHandler8MountAllEv:
.LFB882:
	.loc 1 70 0
	.cfi_startproc
	.cfi_personality 0,__gxx_personality_v0
	.cfi_lsda 0,.LLSDA882
.LVL62:
	mflr 0
	stwu 1,-16(1)
.LCFI26:
	.cfi_def_cfa_offset 16
	.cfi_register 65, 0
	stw 30,8(1)
	stw 0,20(1)
	stw 31,12(1)
	.loc 1 70 0
	mr 31,3
	.cfi_offset 31, -4
	.cfi_offset 65, 4
	.cfi_offset 30, -8
.LVL63:
.LBB293:
.LBB294:
.LBB295:
.LBB296:
.LBB297:
.LBB298:
	.loc 1 202 0
	lwz 30,0(3)
	cmpwi 7,30,0
	beq- 7,.L98
.LVL64:
.L70:
.LBB299:
.LBB300:
.LBB301:
	.loc 4 571 0
	lwz 9,8(30)
.LBE301:
.LBE300:
.LBE299:
	.loc 1 207 0
	mr 3,30
.LBB304:
.LBB303:
.LBB302:
	.loc 4 571 0
	lwz 0,4(30)
	subf 0,0,9
.LBE302:
.LBE303:
.LBE304:
	.loc 1 205 0
	cmpwi 7,0,26
	ble- 7,.L72
	.loc 1 213 0
	lis 5,.LANCHOR0@ha
	li 4,0
	la 5,.LANCHOR0@l(5)
.LBE298:
.LBE297:
.LBE296:
.LBE295:
	.loc 1 76 0
	li 30,1
.LVL65:
.LEHB11:
.LBB324:
.LBB311:
.LBB308:
.LBB305:
	.loc 1 213 0
	bl _ZN15PartitionHandle5MountEiPKc
.LVL66:
.LBE305:
.LBE308:
.LBE311:
.LBE324:
	.loc 1 75 0
	cmpwi 7,3,0
	beq- 7,.L73
.L71:
.LVL67:
.LBB325:
.LBB312:
	.loc 1 118 0
	mr 3,31
	li 4,0
	bl _ZN13DeviceHandler8MountUSBEi
.LBE312:
.LBE325:
	.loc 1 75 0
	cmpwi 7,3,0
	beq- 7,.L74
	.loc 1 76 0
	li 30,1
.LVL68:
.L74:
.LBB326:
.LBB313:
	.loc 1 118 0
	mr 3,31
	li 4,1
	bl _ZN13DeviceHandler8MountUSBEi
.LBE313:
.LBE326:
	.loc 1 75 0
	cmpwi 7,3,0
	beq- 7,.L75
	.loc 1 76 0
	li 30,1
.LVL69:
.L75:
.LBB327:
.LBB314:
	.loc 1 118 0
	mr 3,31
	li 4,2
	bl _ZN13DeviceHandler8MountUSBEi
.LBE314:
.LBE327:
	.loc 1 75 0
	cmpwi 7,3,0
	beq- 7,.L76
	.loc 1 76 0
	li 30,1
.LVL70:
.L76:
.LBB328:
.LBB315:
	.loc 1 118 0
	mr 3,31
	li 4,3
	bl _ZN13DeviceHandler8MountUSBEi
.LBE315:
.LBE328:
	.loc 1 75 0
	cmpwi 7,3,0
	beq- 7,.L77
	.loc 1 76 0
	li 30,1
.LVL71:
.L77:
.LBB329:
.LBB316:
	.loc 1 118 0
	mr 3,31
	li 4,4
	bl _ZN13DeviceHandler8MountUSBEi
.LBE316:
.LBE329:
	.loc 1 75 0
	cmpwi 7,3,0
	beq- 7,.L78
	.loc 1 76 0
	li 30,1
.LVL72:
.L78:
.LBB330:
.LBB317:
	.loc 1 118 0
	mr 3,31
	li 4,5
	bl _ZN13DeviceHandler8MountUSBEi
.LBE317:
.LBE330:
	.loc 1 75 0
	cmpwi 7,3,0
	beq- 7,.L79
	.loc 1 76 0
	li 30,1
.LVL73:
.L79:
.LBB331:
.LBB318:
	.loc 1 118 0
	mr 3,31
	li 4,6
	bl _ZN13DeviceHandler8MountUSBEi
.LBE318:
.LBE331:
	.loc 1 75 0
	cmpwi 7,3,0
	beq- 7,.L80
	.loc 1 76 0
	li 30,1
.LVL74:
.L80:
.LBB332:
.LBB319:
	.loc 1 118 0
	mr 3,31
	li 4,7
	bl _ZN13DeviceHandler8MountUSBEi
.LBE319:
.LBE332:
	.loc 1 75 0
	cmpwi 7,3,0
	beq- 7,.L81
	.loc 1 76 0
	li 30,1
.LVL75:
.L81:
.LBB333:
.LBB320:
	.loc 1 118 0
	mr 3,31
	li 4,8
	bl _ZN13DeviceHandler8MountUSBEi
.LBE320:
.LBE333:
	.loc 1 75 0
	cmpwi 7,3,0
	beq- 7,.L82
	.loc 1 76 0
	li 30,1
.LVL76:
.L82:
.LBB334:
.LBB321:
	.loc 1 118 0
	mr 3,31
	li 4,9
	bl _ZN13DeviceHandler8MountUSBEi
.LBE321:
.LBE334:
	.loc 1 75 0
	cmpwi 7,3,0
	beq- 7,.L83
	.loc 1 76 0
	li 30,1
.LVL77:
.L83:
.LBE294:
.LBE293:
	.loc 1 80 0
	lwz 0,20(1)
	mr 3,30
	lwz 31,12(1)
.LVL78:
	mtlr 0
	lwz 30,8(1)
.LVL79:
	addi 1,1,16
	.cfi_remember_state
.LCFI27:
	.cfi_def_cfa_offset 0
	.cfi_restore 31
	.cfi_restore 30
	blr
.LVL80:
.L72:
.LCFI28:
	.cfi_restore_state
.LBB338:
.LBB337:
.LBB335:
.LBB322:
.LBB309:
.LBB306:
	.loc 1 207 0
	bl _ZN15PartitionHandleD1Ev
.LVL81:
	mr 3,30
	bl _ZdlPv
	.loc 1 208 0
	li 0,0
	stw 0,0(31)
.LVL82:
.L73:
.LBE306:
.LBE309:
.LBE322:
.LBE335:
	.loc 1 71 0
	li 30,0
	b .L71
.L98:
.LBB336:
.LBB323:
.LBB310:
.LBB307:
	.loc 1 203 0
	li 3,32
	bl _Znwj
.LEHE11:
	lis 4,__io_wiisd@ha
	la 4,__io_wiisd@l(4)
	mr 30,3
.LEHB12:
	bl _ZN15PartitionHandleC1EPK21DISC_INTERFACE_STRUCT
.LEHE12:
	stw 30,0(31)
	b .L70
.L97:
	mr 31,3
.LVL83:
	mr 3,30
	bl _ZdlPv
	mr 3,31
.LEHB13:
	bl _Unwind_Resume
.LEHE13:
.LBE307:
.LBE310:
.LBE323:
.LBE336:
.LBE337:
.LBE338:
	.cfi_endproc
.LFE882:
	.section	.gcc_except_table
.LLSDA882:
	.byte	0xff
	.byte	0xff
	.byte	0x1
	.uleb128 .LLSDACSE882-.LLSDACSB882
.LLSDACSB882:
	.uleb128 .LEHB11-.LFB882
	.uleb128 .LEHE11-.LEHB11
	.uleb128 0
	.uleb128 0
	.uleb128 .LEHB12-.LFB882
	.uleb128 .LEHE12-.LEHB12
	.uleb128 .L97-.LFB882
	.uleb128 0
	.uleb128 .LEHB13-.LFB882
	.uleb128 .LEHE13-.LEHB13
	.uleb128 0
	.uleb128 0
.LLSDACSE882:
	.section	".text"
	.size	_ZN13DeviceHandler8MountAllEv, .-_ZN13DeviceHandler8MountAllEv
	.align 2
	.globl _ZN13DeviceHandler11MountAllUSBEv
	.type	_ZN13DeviceHandler11MountAllUSBEv, @function
_ZN13DeviceHandler11MountAllUSBEv:
.LFB889:
	.loc 1 268 0
	.cfi_startproc
	.cfi_personality 0,__gxx_personality_v0
	.cfi_lsda 0,.LLSDA889
.LVL84:
	mflr 0
	stwu 1,-24(1)
.LCFI29:
	.cfi_def_cfa_offset 24
	.cfi_register 65, 0
	stw 30,16(1)
	stw 0,28(1)
	stw 31,20(1)
	mr 31,3
	.cfi_offset 31, -4
	.cfi_offset 65, 4
	.cfi_offset 30, -8
.LBB339:
	.loc 1 269 0
	lwz 30,4(3)
.LBE339:
	.loc 1 268 0
	stw 28,8(1)
.LBB347:
	.loc 1 269 0
	cmpwi 7,30,0
.LBE347:
	.loc 1 268 0
	stw 29,12(1)
.LBB348:
	.loc 1 269 0
	beq- 7,.L119
	.cfi_offset 29, -12
	.cfi_offset 28, -16
.LVL85:
.L100:
	.loc 1 271 0
	lwz 29,8(31)
	cmpwi 7,29,0
	beq- 7,.L120
.L111:
.LVL86:
	.loc 1 276 0
	cmpwi 6,30,0
	.loc 1 275 0
	li 28,0
	.loc 1 276 0
	beq- 6,.L104
.LVL87:
.LBB340:
.LBB341:
.LBB342:
	.loc 4 571 0
	lwz 0,4(30)
	lwz 28,8(30)
	subf 28,0,28
	lis 0,0x684b
	ori 0,0,55827
	mullw 28,28,0
.LVL88:
.L104:
.LBE342:
.LBE341:
.LBE340:
	.loc 1 278 0
	beq- 7,.L105
.LVL89:
.LBB343:
.LBB344:
.LBB345:
	.loc 4 571 0
	lwz 9,8(29)
	lwz 0,4(29)
	subf 0,0,9
	lis 9,0x684b
	ori 9,9,55827
	mullw 0,0,9
.LBE345:
.LBE344:
.LBE343:
	.loc 1 279 0
	add 28,28,0
.LVL90:
.L105:
.LBB346:
	.loc 1 281 0
	cmpwi 7,28,0
	.loc 1 274 0
	li 29,0
	.loc 1 281 0
	ble- 7,.L106
	li 30,0
.LVL91:
.L108:
	.loc 1 283 0
	mr 3,31
	mr 4,30
.LEHB14:
	bl _ZN13DeviceHandler8MountUSBEi
	cmpwi 7,3,0
	beq- 7,.L107
	.loc 1 284 0
	li 29,1
.L107:
	.loc 1 281 0
	addi 30,30,1
.LVL92:
	cmpw 7,30,28
	bne+ 7,.L108
.LVL93:
.L106:
.LBE346:
.LBE348:
	.loc 1 288 0
	lwz 0,28(1)
	mr 3,29
	lwz 28,8(1)
.LVL94:
	mtlr 0
	lwz 29,12(1)
	lwz 30,16(1)
	lwz 31,20(1)
.LVL95:
	addi 1,1,24
	.cfi_remember_state
.LCFI30:
	.cfi_def_cfa_offset 0
	.cfi_restore 31
	.cfi_restore 30
	.cfi_restore 29
	.cfi_restore 28
	blr
.LVL96:
.L120:
.LCFI31:
	.cfi_restore_state
.LBB349:
	.loc 1 271 0 discriminator 1
	lis 9,Settings+136@ha
	lha 0,Settings+136@l(9)
	cmpwi 6,0,1
	bne+ 6,.L111
	.loc 1 271 0 is_stmt 0 discriminator 3
	bl IOS_GetVersion
	cmpwi 7,3,200
	bgt- 7,.L103
	.loc 1 271 0
	lwz 29,8(31)
	lwz 30,4(31)
	cmpwi 7,29,0
	b .L111
.L119:
	.loc 1 270 0 is_stmt 1
	bl IOS_GetVersion
	cmpwi 7,3,200
	bgt- 7,.L121
	lis 29,__io_usbstorage@ha
	la 29,__io_usbstorage@l(29)
.L101:
	.loc 1 270 0 is_stmt 0 discriminator 3
	li 3,32
	bl _Znwj
.LEHE14:
	mr 4,29
	mr 30,3
.LEHB15:
	bl _ZN15PartitionHandleC1EPK21DISC_INTERFACE_STRUCT
.LEHE15:
	.loc 1 270 0 discriminator 1
	stw 30,4(31)
	b .L100
.L121:
	.loc 1 270 0
	lis 29,__io_usbstorage2_port0@ha
	la 29,__io_usbstorage2_port0@l(29)
	b .L101
.L103:
	.loc 1 272 0 is_stmt 1 discriminator 5
	li 3,32
.LEHB16:
	bl _Znwj
.LEHE16:
	lis 4,__io_usbstorage2_port1@ha
	la 4,__io_usbstorage2_port1@l(4)
	mr 29,3
.LEHB17:
	bl _ZN15PartitionHandleC1EPK21DISC_INTERFACE_STRUCT
.LEHE17:
	.loc 1 272 0 is_stmt 0 discriminator 1
	stw 29,8(31)
	cmpwi 7,29,0
	lwz 30,4(31)
	b .L111
.L116:
	mr 31,3
.LVL97:
	.loc 1 270 0 is_stmt 1
	mr 3,30
	bl _ZdlPv
	mr 3,31
.LEHB18:
	bl _Unwind_Resume
.LVL98:
.L117:
	mr 31,3
.LVL99:
	.loc 1 272 0
	mr 3,29
	bl _ZdlPv
	mr 3,31
	bl _Unwind_Resume
.LEHE18:
.LBE349:
	.cfi_endproc
.LFE889:
	.section	.gcc_except_table
.LLSDA889:
	.byte	0xff
	.byte	0xff
	.byte	0x1
	.uleb128 .LLSDACSE889-.LLSDACSB889
.LLSDACSB889:
	.uleb128 .LEHB14-.LFB889
	.uleb128 .LEHE14-.LEHB14
	.uleb128 0
	.uleb128 0
	.uleb128 .LEHB15-.LFB889
	.uleb128 .LEHE15-.LEHB15
	.uleb128 .L116-.LFB889
	.uleb128 0
	.uleb128 .LEHB16-.LFB889
	.uleb128 .LEHE16-.LEHB16
	.uleb128 0
	.uleb128 0
	.uleb128 .LEHB17-.LFB889
	.uleb128 .LEHE17-.LEHB17
	.uleb128 .L117-.LFB889
	.uleb128 0
	.uleb128 .LEHB18-.LFB889
	.uleb128 .LEHE18-.LEHB18
	.uleb128 0
	.uleb128 0
.LLSDACSE889:
	.section	".text"
	.size	_ZN13DeviceHandler11MountAllUSBEv, .-_ZN13DeviceHandler11MountAllUSBEv
	.align 2
	.globl _ZN13DeviceHandler10UnMountUSBEi
	.type	_ZN13DeviceHandler10UnMountUSBEi, @function
_ZN13DeviceHandler10UnMountUSBEi:
.LFB890:
	.loc 1 291 0
	.cfi_startproc
.LVL100:
	mflr 0
	stwu 1,-8(1)
.LCFI32:
	.cfi_def_cfa_offset 8
	.cfi_register 65, 0
	stw 0,12(1)
.LBB378:
.LBB379:
	.loc 1 421 0
	lwz 9,4(3)
.LVL101:
	cmpwi 6,9,0
	beq- 6,.L123
	.cfi_offset 65, 4
.LVL102:
.LBB380:
.LBB381:
.LBB382:
	.loc 4 571 0
	lwz 11,8(9)
	lwz 0,4(9)
	subf 0,0,11
	lis 11,0x684b
	ori 11,11,55827
	mullw 0,0,11
.LBE382:
.LBE381:
.LBE380:
	.loc 1 421 0
	cmpw 7,4,0
	blt- 7,.L124
.LVL103:
.L123:
.LBE379:
.LBE378:
	.loc 1 292 0
	lwz 11,8(3)
	cmpwi 7,11,0
	beq- 7,.L122
	lwz 10,8(9)
	lwz 0,4(9)
	subf 0,0,10
	lis 10,0x684b
	ori 10,10,55827
	mullw 0,0,10
.LVL104:
.LBB383:
.LBB384:
	.loc 1 421 0
	beq- 6,.L126
	cmpw 7,4,0
.LVL105:
.L124:
	bge- 7,.L127
.LVL106:
.L128:
.LBE384:
.LBE383:
	.loc 1 293 0
	mr 3,9
.LVL107:
	bl _ZN15PartitionHandle7UnMountEi
.L122:
	.loc 1 294 0
	lwz 0,12(1)
	addi 1,1,8
	.cfi_remember_state
.LCFI33:
	.cfi_def_cfa_offset 0
	mtlr 0
	blr
.LVL108:
.L127:
.LCFI34:
	.cfi_restore_state
.LBB387:
.LBB385:
	.loc 1 422 0
	lwz 9,8(3)
.LVL109:
.LBE385:
.LBE387:
.LBB388:
.LBB389:
.LBB390:
.LBB391:
	.loc 1 430 0
	subf 4,0,4
.LVL110:
	b .L128
.LVL111:
.L126:
.LBE391:
.LBE390:
.LBE389:
.LBE388:
.LBB395:
.LBB386:
	.loc 1 422 0
	mr 9,11
.LVL112:
.LBE386:
.LBE395:
.LBB396:
.LBB394:
.LBB393:
.LBB392:
	.loc 1 430 0
	subf 4,0,4
.LVL113:
	b .L128
.LBE392:
.LBE393:
.LBE394:
.LBE396:
	.cfi_endproc
.LFE890:
	.size	_ZN13DeviceHandler10UnMountUSBEi, .-_ZN13DeviceHandler10UnMountUSBEi
	.align 2
	.globl _ZN13DeviceHandler7UnMountEi
	.type	_ZN13DeviceHandler7UnMountEi, @function
_ZN13DeviceHandler7UnMountEi:
.LFB886:
	.loc 1 171 0
	.cfi_startproc
.LVL114:
	.loc 1 172 0
	cmpwi 0,4,0
	.loc 1 171 0
	mflr 0
	stwu 1,-16(1)
.LCFI35:
	.cfi_def_cfa_offset 16
	.cfi_register 65, 0
	stw 31,12(1)
	mr 31,3
	.cfi_offset 31, -4
	stw 0,20(1)
	stw 30,8(1)
	.loc 1 172 0
	bne- 0,.L131
	.cfi_offset 30, -8
	.cfi_offset 65, 4
.LBB399:
.LBB400:
	.loc 2 155 0
	lwz 30,0(3)
	cmpwi 7,30,0
	beq- 7,.L132
	mr 3,30
.LVL115:
	bl _ZN15PartitionHandleD1Ev
.LVL116:
	mr 3,30
	bl _ZdlPv
.L132:
	li 0,0
	stw 0,0(31)
.L130:
.LBE400:
.LBE399:
	.loc 1 198 0
	lwz 0,20(1)
	lwz 30,8(1)
	mtlr 0
	lwz 31,12(1)
.LVL117:
	addi 1,1,16
	.cfi_remember_state
.LCFI36:
	.cfi_def_cfa_offset 0
	.cfi_restore 31
	.cfi_restore 30
	blr
.LVL118:
.L131:
.LCFI37:
	.cfi_restore_state
	.loc 1 181 0
	addi 4,4,-1
.LVL119:
	cmplwi 7,4,7
	bgt+ 7,.L130
	.loc 1 198 0
	lwz 0,20(1)
	lwz 30,8(1)
	lwz 31,12(1)
	mtlr 0
	addi 1,1,16
.LCFI38:
	.cfi_def_cfa_offset 0
	.cfi_restore 31
	.cfi_restore 30
	.loc 1 182 0
	b _ZN13DeviceHandler10UnMountUSBEi
.LVL120:
.LVL121:
	.cfi_endproc
.LFE886:
	.size	_ZN13DeviceHandler7UnMountEi, .-_ZN13DeviceHandler7UnMountEi
	.align 2
	.globl _ZN13DeviceHandler10UnMountAllEv
	.type	_ZN13DeviceHandler10UnMountAllEv, @function
_ZN13DeviceHandler10UnMountAllEv:
.LFB883:
	.loc 1 83 0
	.cfi_startproc
.LVL122:
	mflr 0
	stwu 1,-16(1)
.LCFI39:
	.cfi_def_cfa_offset 16
	.cfi_register 65, 0
	stw 30,8(1)
	stw 0,20(1)
	stw 31,12(1)
	.loc 1 83 0
	mr 31,3
	.cfi_offset 31, -4
	.cfi_offset 65, 4
	.cfi_offset 30, -8
.LVL123:
.LBB407:
.LBB408:
.LBB409:
.LBB410:
.LBB411:
.LBB412:
	.loc 2 155 0
	lwz 30,0(3)
	cmpwi 7,30,0
	beq- 7,.L138
.LVL124:
	mr 3,30
.LVL125:
	bl _ZN15PartitionHandleD1Ev
	mr 3,30
	bl _ZdlPv
.L138:
	li 0,0
.LBE412:
.LBE411:
	.loc 1 182 0
	li 4,0
.LBB414:
.LBB413:
	.loc 2 155 0
	stw 0,0(31)
.LVL126:
.LBE413:
.LBE414:
	.loc 1 182 0
	mr 3,31
	bl _ZN13DeviceHandler10UnMountUSBEi
.LVL127:
	mr 3,31
	li 4,1
	bl _ZN13DeviceHandler10UnMountUSBEi
.LVL128:
	mr 3,31
	li 4,2
	bl _ZN13DeviceHandler10UnMountUSBEi
.LVL129:
	mr 3,31
	li 4,3
	bl _ZN13DeviceHandler10UnMountUSBEi
.LVL130:
	mr 3,31
	li 4,4
	bl _ZN13DeviceHandler10UnMountUSBEi
.LVL131:
	mr 3,31
	li 4,5
	bl _ZN13DeviceHandler10UnMountUSBEi
.LVL132:
	mr 3,31
	li 4,6
	bl _ZN13DeviceHandler10UnMountUSBEi
.LVL133:
	mr 3,31
	li 4,7
	bl _ZN13DeviceHandler10UnMountUSBEi
.LVL134:
.LBE410:
.LBE409:
.LBE408:
	.loc 1 87 0
	lwz 30,0(31)
	cmpwi 7,30,0
	beq- 7,.L137
	.loc 1 88 0
	mr 3,30
	bl _ZN15PartitionHandleD1Ev
	mr 3,30
	bl _ZdlPv
.L137:
	.loc 1 93 0
	lwz 30,4(31)
	cmpwi 7,30,0
	beq- 7,.L139
	.loc 1 94 0
	mr 3,30
	bl _ZN15PartitionHandleD1Ev
	mr 3,30
	bl _ZdlPv
.L139:
	.loc 1 95 0
	lwz 30,8(31)
	cmpwi 7,30,0
	beq- 7,.L140
	.loc 1 96 0
	mr 3,30
	bl _ZN15PartitionHandleD1Ev
	mr 3,30
	bl _ZdlPv
.L140:
	.loc 1 98 0
	li 0,0
	stw 0,0(31)
	.loc 1 101 0
	stw 0,4(31)
	.loc 1 102 0
	stw 0,8(31)
	.loc 1 103 0
	bl USBStorage2_Deinit
.LBE407:
	.loc 1 104 0
	lwz 0,20(1)
	lwz 30,8(1)
	mtlr 0
	lwz 31,12(1)
.LVL135:
	addi 1,1,16
.LCFI40:
	.cfi_def_cfa_offset 0
	.cfi_restore 31
	.cfi_restore 30
	blr
	.cfi_endproc
.LFE883:
	.size	_ZN13DeviceHandler10UnMountAllEv, .-_ZN13DeviceHandler10UnMountAllEv
	.align 2
	.globl _ZN13DeviceHandlerD2Ev
	.type	_ZN13DeviceHandlerD2Ev, @function
_ZN13DeviceHandlerD2Ev:
.LFB878:
	.loc 1 46 0
	.cfi_startproc
.LVL136:
	.loc 1 49 0
.LBB415:
	.loc 1 48 0
	b _ZN13DeviceHandler10UnMountAllEv
.LVL137:
.LBE415:
	.cfi_endproc
.LFE878:
	.size	_ZN13DeviceHandlerD2Ev, .-_ZN13DeviceHandlerD2Ev
	.align 2
	.globl _ZN13DeviceHandler15DestroyInstanceEv
	.type	_ZN13DeviceHandler15DestroyInstanceEv, @function
_ZN13DeviceHandler15DestroyInstanceEv:
.LFB881:
	.loc 1 61 0
	.cfi_startproc
	stwu 1,-16(1)
.LCFI41:
	.cfi_def_cfa_offset 16
	mflr 0
	stw 30,8(1)
	.loc 1 62 0
	lis 30,_ZN13DeviceHandler8instanceE@ha
	.cfi_offset 30, -8
	.cfi_register 65, 0
	.loc 1 61 0
	stw 31,12(1)
	.loc 1 62 0
	lwz 31,_ZN13DeviceHandler8instanceE@l(30)
	.cfi_offset 31, -4
	.loc 1 61 0
	stw 0,20(1)
	.loc 1 62 0
	cmpwi 7,31,0
	beq- 7,.L144
	.cfi_offset 65, 4
.LVL138:
.LBB416:
.LBB417:
.LBB418:
	.loc 1 48 0
	mr 3,31
	bl _ZN13DeviceHandler10UnMountAllEv
.LVL139:
.LBE418:
.LBE417:
.LBE416:
	.loc 1 64 0
	mr 3,31
	bl _ZdlPv
.LVL140:
.L144:
	.loc 1 66 0
	li 0,0
	.loc 1 67 0
	lwz 31,12(1)
	.loc 1 66 0
	stw 0,_ZN13DeviceHandler8instanceE@l(30)
	.loc 1 67 0
	lwz 0,20(1)
	lwz 30,8(1)
	mtlr 0
	addi 1,1,16
.LCFI42:
	.cfi_def_cfa_offset 0
	.cfi_restore 31
	.cfi_restore 30
	blr
	.cfi_endproc
.LFE881:
	.size	_ZN13DeviceHandler15DestroyInstanceEv, .-_ZN13DeviceHandler15DestroyInstanceEv
	.align 2
	.globl _ZN13DeviceHandler13UnMountAllUSBEv
	.type	_ZN13DeviceHandler13UnMountAllUSBEv, @function
_ZN13DeviceHandler13UnMountAllUSBEv:
.LFB891:
	.loc 1 297 0
	.cfi_startproc
.LVL141:
	mflr 0
	stwu 1,-24(1)
.LCFI43:
	.cfi_def_cfa_offset 24
	.cfi_register 65, 0
	stw 31,20(1)
	stw 0,28(1)
	stw 29,12(1)
.LBB419:
	.loc 1 298 0
	li 29,0
	.cfi_offset 29, -12
	.cfi_offset 65, 4
	.cfi_offset 31, -4
	.loc 1 299 0
	lwz 31,4(3)
.LBE419:
	.loc 1 297 0
	stw 30,16(1)
	.loc 1 297 0
	mr 30,3
	.cfi_offset 30, -8
.LBB427:
	.loc 1 299 0
	cmpwi 7,31,0
	beq- 7,.L147
.LVL142:
.LBB420:
.LBB421:
.LBB422:
	.loc 4 571 0
	lwz 0,4(31)
	lwz 29,8(31)
	subf 29,0,29
	lis 0,0x684b
	ori 0,0,55827
	mullw 29,29,0
.LVL143:
.L147:
.LBE422:
.LBE421:
.LBE420:
	.loc 1 301 0
	lwz 9,8(30)
	cmpwi 6,9,0
	beq- 6,.L148
.LVL144:
.LBB423:
.LBB424:
.LBB425:
	.loc 4 571 0
	lwz 11,8(9)
	lwz 0,4(9)
	lis 9,0x684b
	ori 9,9,55827
	subf 0,0,11
	mullw 0,0,9
.LBE425:
.LBE424:
.LBE423:
	.loc 1 302 0
	add 29,29,0
.LVL145:
.L148:
.LBB426:
	.loc 1 304 0
	cmpwi 6,29,0
	ble- 6,.L149
	li 31,0
.LVL146:
.L150:
	.loc 1 305 0 discriminator 2
	mr 4,31
	mr 3,30
	.loc 1 304 0 discriminator 2
	addi 31,31,1
	.loc 1 305 0 discriminator 2
	bl _ZN13DeviceHandler10UnMountUSBEi
.LVL147:
	.loc 1 304 0 discriminator 2
	cmpw 7,31,29
	bne+ 7,.L150
	.loc 1 304 0 is_stmt 0
	lwz 31,4(30)
.LVL148:
	cmpwi 7,31,0
.L149:
.LBE426:
	.loc 1 307 0 is_stmt 1
	beq- 7,.L151
	.loc 1 307 0 is_stmt 0 discriminator 1
	mr 3,31
	bl _ZN15PartitionHandleD1Ev
	mr 3,31
	bl _ZdlPv
.L151:
	.loc 1 308 0 is_stmt 1
	lwz 31,8(30)
	cmpwi 7,31,0
	beq- 7,.L152
	.loc 1 308 0 is_stmt 0 discriminator 1
	mr 3,31
	bl _ZN15PartitionHandleD1Ev
	mr 3,31
	bl _ZdlPv
.L152:
	.loc 1 309 0 is_stmt 1
	li 0,0
	stw 0,4(30)
	.loc 1 310 0
	stw 0,8(30)
	.loc 1 311 0
	bl USBStorage2_Deinit
.LBE427:
	.loc 1 312 0
	lwz 0,28(1)
	lwz 29,12(1)
.LVL149:
	mtlr 0
	lwz 30,16(1)
.LVL150:
	lwz 31,20(1)
	addi 1,1,24
.LCFI44:
	.cfi_def_cfa_offset 0
	.cfi_restore 31
	.cfi_restore 30
	.cfi_restore 29
	blr
	.cfi_endproc
.LFE891:
	.size	_ZN13DeviceHandler13UnMountAllUSBEv, .-_ZN13DeviceHandler13UnMountAllUSBEv
	.align 2
	.globl _ZN13DeviceHandler15PathToDriveTypeEPKc
	.type	_ZN13DeviceHandler15PathToDriveTypeEPKc, @function
_ZN13DeviceHandler15PathToDriveTypeEPKc:
.LFB892:
	.loc 1 382 0
	.cfi_startproc
.LVL151:
	stwu 1,-24(1)
.LCFI45:
	.cfi_def_cfa_offset 24
	mflr 0
	stw 30,16(1)
.LBB428:
	.loc 1 383 0
	mr. 30,3
	.cfi_offset 30, -8
	.cfi_register 65, 0
.LBE428:
	.loc 1 382 0
	stw 0,28(1)
.LBB431:
	.loc 1 384 0
	li 3,-1
.LVL152:
.LBE431:
	.loc 1 382 0
	stw 29,12(1)
	stw 31,20(1)
.LBB432:
	.loc 1 383 0
	beq- 0,.L156
	.cfi_offset 31, -4
	.cfi_offset 29, -12
	.cfi_offset 65, 4
.LBB429:
	.loc 1 388 0
	lis 31,.LANCHOR0@ha
	la 31,.LANCHOR0@l(31)
	mr 3,31
	bl strlen
	mr 4,31
	mr 5,3
	mr 3,30
	bl strncmp
	cmpwi 7,3,0
	li 3,0
	beq- 7,.L156
.LVL153:
	addi 29,31,6
	mr 3,29
	bl strlen
	mr 4,29
	mr 5,3
	mr 3,30
	bl strncmp
	cmpwi 7,3,0
	.loc 1 386 0
	li 3,1
	.loc 1 388 0
	beq- 7,.L156
.LVL154:
	addi 29,31,12
	mr 3,29
	bl strlen
	mr 4,29
	mr 5,3
	mr 3,30
	bl strncmp
	cmpwi 7,3,0
	.loc 1 386 0
	li 3,2
	.loc 1 388 0
	beq- 7,.L156
.LVL155:
	addi 29,31,18
	mr 3,29
	bl strlen
	mr 4,29
	mr 5,3
	mr 3,30
	bl strncmp
	cmpwi 7,3,0
	.loc 1 386 0
	li 3,3
	.loc 1 388 0
	beq- 7,.L156
.LVL156:
	addi 29,31,24
	mr 3,29
	bl strlen
	mr 4,29
	mr 5,3
	mr 3,30
	bl strncmp
	cmpwi 7,3,0
	.loc 1 386 0
	li 3,4
	.loc 1 388 0
	beq- 7,.L156
.LVL157:
	addi 29,31,30
	mr 3,29
	bl strlen
	mr 4,29
	mr 5,3
	mr 3,30
	bl strncmp
	cmpwi 7,3,0
	.loc 1 386 0
	li 3,5
	.loc 1 388 0
	beq- 7,.L156
.LVL158:
	addi 29,31,36
	mr 3,29
	bl strlen
	mr 4,29
	mr 5,3
	mr 3,30
	bl strncmp
	cmpwi 7,3,0
	.loc 1 386 0
	li 3,6
	.loc 1 388 0
	beq- 7,.L156
.LVL159:
	addi 29,31,42
	mr 3,29
	bl strlen
	mr 4,29
	mr 5,3
	mr 3,30
	bl strncmp
	cmpwi 7,3,0
	.loc 1 386 0
	li 3,7
	.loc 1 388 0
	beq- 7,.L156
.LVL160:
	addi 29,31,48
	mr 3,29
	bl strlen
	mr 4,29
	mr 5,3
	mr 3,30
	bl strncmp
	cmpwi 7,3,0
	.loc 1 386 0
	li 3,8
	.loc 1 388 0
	beq- 7,.L156
.LVL161:
	addi 29,31,54
	mr 3,29
	bl strlen
	mr 4,29
	mr 5,3
	mr 3,30
	bl strncmp
	cmpwi 7,3,0
	.loc 1 386 0
	li 3,9
	.loc 1 388 0
	beq- 7,.L156
.LVL162:
	addi 31,31,60
	mr 3,31
	bl strlen
	mr 4,31
	mr 5,3
	mr 3,30
	bl strncmp
	cmpwi 7,3,0
	.loc 1 392 0
	li 3,-1
	.loc 1 388 0
	beq- 7,.L170
.LVL163:
.L156:
.LBE429:
.LBE432:
	.loc 1 393 0
	lwz 0,28(1)
	lwz 29,12(1)
	mtlr 0
	lwz 30,16(1)
.LVL164:
	lwz 31,20(1)
	addi 1,1,24
	.cfi_remember_state
.LCFI46:
	.cfi_def_cfa_offset 0
	.cfi_restore 31
	.cfi_restore 30
	.cfi_restore 29
	blr
.LVL165:
.L170:
.LCFI47:
	.cfi_restore_state
.LBB433:
.LBB430:
	.loc 1 388 0
	li 3,10
	b .L156
.LBE430:
.LBE433:
	.cfi_endproc
.LFE892:
	.size	_ZN13DeviceHandler15PathToDriveTypeEPKc, .-_ZN13DeviceHandler15PathToDriveTypeEPKc
	.align 2
	.globl _ZN13DeviceHandler9GetFSNameEi
	.type	_ZN13DeviceHandler9GetFSNameEi, @function
_ZN13DeviceHandler9GetFSNameEi:
.LFB893:
	.loc 1 396 0
	.cfi_startproc
.LVL166:
	.loc 1 397 0
	mr. 11,3
	bne- 0,.L172
	.loc 1 397 0 is_stmt 0 discriminator 1
	lis 9,_ZN13DeviceHandler8instanceE@ha
	lwz 9,_ZN13DeviceHandler8instanceE@l(9)
	lwz 9,0(9)
	cmpwi 7,9,0
	beqlr- 7
.LVL167:
.LBB476:
.LBB477:
.LBB478:
	.loc 1 441 0 is_stmt 1
	lwz 11,4(9)
.LBB479:
.LBB480:
.LBB481:
	.loc 4 571 0
	lwz 0,8(9)
	subf 0,11,0
.LBE481:
.LBE480:
	.loc 3 159 0
	cmpwi 7,0,26
	blelr- 7
.LVL168:
.LBE479:
.LBE478:
	.loc 3 136 0
	lwz 3,0(11)
.LVL169:
	blr
.LVL170:
.L172:
.LBE477:
.LBE476:
	.loc 1 409 0
	addi 0,11,-1
	.loc 1 414 0
	li 3,0
.LVL171:
	.loc 1 409 0
	cmplwi 7,0,7
	bgtlr- 7
	.loc 1 409 0 is_stmt 0 discriminator 1
	lis 9,_ZN13DeviceHandler8instanceE@ha
	lwz 8,_ZN13DeviceHandler8instanceE@l(9)
.LVL172:
.LBB482:
.LBB483:
	.loc 1 421 0 is_stmt 1 discriminator 1
	lwz 9,4(8)
	cmpwi 6,9,0
	beq- 6,.L174
.LVL173:
.LBB484:
.LBB485:
.LBB486:
	.loc 4 571 0
	lwz 7,8(9)
	lwz 10,4(9)
	subf 10,10,7
	lis 7,0x684b
	ori 7,7,55827
	mullw 10,10,7
.LBE486:
.LBE485:
.LBE484:
	.loc 1 421 0
	cmpw 7,11,10
	bgt- 7,.L174
.LVL174:
.L175:
.LBE483:
.LBE482:
.LBB487:
.LBB488:
	ble- 7,.L189
	.loc 1 422 0
	lwz 9,8(8)
.L189:
.LBE488:
.LBE487:
.LBB490:
.LBB491:
	.loc 1 429 0
	cmpw 7,0,10
.LBE491:
.LBE490:
	.loc 1 411 0
	mr 11,0
.LVL175:
.LBB493:
.LBB492:
	.loc 1 429 0
	blt- 7,.L180
.LVL176:
.L179:
.LBE492:
.LBE493:
.LBB494:
.LBB495:
.LBB496:
.LBB497:
	.loc 3 159 0
	subf. 11,10,0
	.loc 3 136 0
	li 3,0
	.loc 3 159 0
	bltlr- 0
.LVL177:
.L180:
.LBE497:
	.loc 1 441 0
	lwz 10,4(9)
.LBB502:
.LBB498:
.LBB499:
	.loc 4 571 0
	lis 0,0x684b
.LVL178:
	lwz 9,8(9)
	ori 0,0,55827
.LBE499:
.LBE498:
	.loc 3 136 0
	li 3,0
.LBB501:
.LBB500:
	.loc 4 571 0
	subf 9,10,9
	mullw 0,9,0
.LBE500:
.LBE501:
	.loc 3 159 0
	cmpw 7,0,11
	blelr- 7
.LVL179:
.LBE502:
.LBE496:
	.loc 3 136 0
	mulli 11,11,27
.LVL180:
	lwzx 3,10,11
.LBE495:
.LBE494:
	.loc 1 415 0
	blr
.LVL181:
.L174:
	.loc 1 409 0
	lwz 7,8(8)
	.loc 1 414 0
	li 3,0
	.loc 1 409 0
	cmpwi 7,7,0
	beqlr- 7
	lwz 10,4(9)
	lwz 6,8(9)
	subf 6,10,6
	lis 10,0x684b
	ori 10,10,55827
	mullw 10,6,10
.LVL182:
.LBB503:
.LBB489:
	.loc 1 421 0
	beq- 6,.L176
	cmpw 7,11,10
	b .L175
.L176:
	.loc 1 422 0
	mr 9,7
.LVL183:
	b .L179
.LBE489:
.LBE503:
	.cfi_endproc
.LFE893:
	.size	_ZN13DeviceHandler9GetFSNameEi, .-_ZN13DeviceHandler9GetFSNameEi
	.align 2
	.globl _ZN13DeviceHandler13GetUSBFromDevEi
	.type	_ZN13DeviceHandler13GetUSBFromDevEi, @function
_ZN13DeviceHandler13GetUSBFromDevEi:
.LFB894:
	.loc 1 418 0
	.cfi_startproc
.LVL184:
.LBB504:
	.loc 1 421 0
	lwz 9,4(3)
.LVL185:
	cmpwi 7,9,0
	beq- 7,.L191
.LVL186:
.LBB505:
.LBB506:
.LBB507:
	.loc 4 571 0 discriminator 2
	lwz 11,8(9)
	lwz 0,4(9)
	subf 0,0,11
	lis 11,0x684b
	ori 11,11,55827
	mullw 0,0,11
.LBE507:
.LBE506:
.LBE505:
	.loc 1 421 0 discriminator 2
	cmpw 7,4,0
	ble- 7,.L192
.LVL187:
.L191:
	.loc 1 422 0 discriminator 4
	lwz 9,8(3)
.L192:
.LBE504:
	.loc 1 425 0
	mr 3,9
.LVL188:
	blr
	.cfi_endproc
.LFE894:
	.size	_ZN13DeviceHandler13GetUSBFromDevEi, .-_ZN13DeviceHandler13GetUSBFromDevEi
	.align 2
	.globl _ZN13DeviceHandler14PartToPortPartEi
	.type	_ZN13DeviceHandler14PartToPortPartEi, @function
_ZN13DeviceHandler14PartToPortPartEi:
.LFB895:
	.loc 1 428 0
	.cfi_startproc
.LVL189:
	.loc 1 429 0
	lwz 9,4(3)
	cmpwi 7,9,0
	lwz 11,8(9)
	lwz 0,4(9)
	lis 9,0x684b
	ori 9,9,55827
	subf 0,0,11
	mullw 0,0,9
	beq- 7,.L195
	.loc 1 429 0 is_stmt 0 discriminator 2
	cmpw 7,4,0
	blt- 7,.L196
.L195:
.LVL190:
.LBB522:
.LBB523:
	.loc 1 430 0 is_stmt 1 discriminator 4
	subf 4,0,4
.LVL191:
.L196:
.LBE523:
.LBE522:
	.loc 1 433 0
	mr 3,4
.LVL192:
	blr
	.cfi_endproc
.LFE895:
	.size	_ZN13DeviceHandler14PartToPortPartEi, .-_ZN13DeviceHandler14PartToPortPartEi
	.align 2
	.globl _ZN13DeviceHandler10PartToPortEi
	.type	_ZN13DeviceHandler10PartToPortEi, @function
_ZN13DeviceHandler10PartToPortEi:
.LFB896:
	.loc 1 436 0
	.cfi_startproc
.LVL193:
	.loc 1 437 0
	lwz 9,4(3)
	.loc 1 438 0
	li 3,1
.LVL194:
	.loc 1 437 0
	cmpwi 7,9,0
	beqlr- 7
.LVL195:
.LBB524:
.LBB525:
.LBB526:
	.loc 4 571 0 discriminator 2
	lwz 11,8(9)
	lwz 0,4(9)
	lis 9,0x684b
.LVL196:
	ori 9,9,55827
	subf 0,0,11
	mullw 0,0,9
.LBE526:
.LBE525:
.LBE524:
	.loc 1 438 0 discriminator 2
	cmpw 7,4,0
	crnot 30,28
	mfcr 3
	rlwinm 3,3,31,1
	.loc 1 441 0 discriminator 2
	blr
	.cfi_endproc
.LFE896:
	.size	_ZN13DeviceHandler10PartToPortEi, .-_ZN13DeviceHandler10PartToPortEi
	.globl _ZN13DeviceHandler8instanceE
	.globl _ZN13DeviceHandlerD1Ev
	.set	_ZN13DeviceHandlerD1Ev,_ZN13DeviceHandlerD2Ev
	.section	.rodata
	.align 2
	.set	.LANCHOR0,. + 0
	.type	_ZL10DeviceName, @object
	.size	_ZL10DeviceName, 66
_ZL10DeviceName:
	.string	"sd"
	.zero	3
	.string	"usb1"
	.zero	1
	.string	"usb2"
	.zero	1
	.string	"usb3"
	.zero	1
	.string	"usb4"
	.zero	1
	.string	"usb5"
	.zero	1
	.string	"usb6"
	.zero	1
	.string	"usb7"
	.zero	1
	.string	"usb8"
	.zero	1
	.string	"usb9"
	.zero	1
	.string	"usb10"
	.section	.sbss,"aw",@nobits
	.align 2
	.type	_ZN13DeviceHandler8instanceE, @object
	.size	_ZN13DeviceHandler8instanceE, 4
_ZN13DeviceHandler8instanceE:
	.zero	4
	.section	".text"
.Letext0:
	.file 5 "d:\\devkitpro\\devkitppc\\bin\\../lib/gcc/powerpc-eabi/4.6.3/../../../../powerpc-eabi/include/machine/_types.h"
	.file 6 "d:\\devkitpro\\devkitppc\\bin\\../lib/gcc/powerpc-eabi/4.6.3/../../../../powerpc-eabi/include/sys/lock.h"
	.file 7 "d:\\devkitpro\\devkitppc\\bin\\../lib/gcc/powerpc-eabi/4.6.3/include/stddef.h"
	.file 8 "d:\\devkitpro\\devkitppc\\bin\\../lib/gcc/powerpc-eabi/4.6.3/../../../../powerpc-eabi/include/sys/_types.h"
	.file 9 "d:\\devkitpro\\devkitppc\\bin\\../lib/gcc/powerpc-eabi/4.6.3/../../../../powerpc-eabi/include/sys/reent.h"
	.file 10 "d:\\devkitpro\\devkitppc\\bin\\../lib/gcc/powerpc-eabi/4.6.3/../../../../powerpc-eabi/include/stdint.h"
	.file 11 "d:/devkitPro/libogc/include/gctypes.h"
	.file 12 "d:\\devkitpro\\devkitppc\\bin\\../lib/gcc/powerpc-eabi/4.6.3/../../../../powerpc-eabi/include/time.h"
	.file 13 "d:/devkitPro/libogc/include/ogc/disc_io.h"
	.file 14 "d:/devkitPro/libogc/include/ogc/gx.h"
	.file 15 "d:\\devkitpro\\devkitppc\\bin\\../lib/gcc/powerpc-eabi/4.6.3/../../../../powerpc-eabi/include/c++/4.6.3/cwchar"
	.file 16 "d:\\devkitpro\\devkitppc\\bin\\../lib/gcc/powerpc-eabi/4.6.3/../../../../powerpc-eabi/include/c++/4.6.3/powerpc-eabi/bits/c++config.h"
	.file 17 "d:\\devkitpro\\devkitppc\\bin\\../lib/gcc/powerpc-eabi/4.6.3/../../../../powerpc-eabi/include/c++/4.6.3/clocale"
	.file 18 "d:\\devkitpro\\devkitppc\\bin\\../lib/gcc/powerpc-eabi/4.6.3/../../../../powerpc-eabi/include/c++/4.6.3/bits/basic_string.h"
	.file 19 "d:\\devkitpro\\devkitppc\\bin\\../lib/gcc/powerpc-eabi/4.6.3/../../../../powerpc-eabi/include/c++/4.6.3/bits/stringfwd.h"
	.file 20 "d:\\devkitpro\\devkitppc\\bin\\../lib/gcc/powerpc-eabi/4.6.3/../../../../powerpc-eabi/include/c++/4.6.3/ext/new_allocator.h"
	.file 21 "d:\\devkitpro\\devkitppc\\bin\\../lib/gcc/powerpc-eabi/4.6.3/../../../../powerpc-eabi/include/c++/4.6.3/bits/cpp_type_traits.h"
	.file 22 "d:\\devkitpro\\devkitppc\\bin\\../lib/gcc/powerpc-eabi/4.6.3/../../../../powerpc-eabi/include/c++/4.6.3/debug/debug.h"
	.file 23 "<built-in>"
	.file 24 "d:\\devkitpro\\devkitppc\\bin\\../lib/gcc/powerpc-eabi/4.6.3/../../../../powerpc-eabi/include/wchar.h"
	.file 25 "d:\\devkitpro\\devkitppc\\bin\\../lib/gcc/powerpc-eabi/4.6.3/../../../../powerpc-eabi/include/c++/4.6.3/bits/char_traits.h"
	.file 26 "d:\\devkitpro\\devkitppc\\bin\\../lib/gcc/powerpc-eabi/4.6.3/../../../../powerpc-eabi/include/c++/4.6.3/bits/allocator.h"
	.file 27 "d:\\devkitpro\\devkitppc\\bin\\../lib/gcc/powerpc-eabi/4.6.3/../../../../powerpc-eabi/include/locale.h"
	.file 28 "d:\\devkitpro\\devkitppc\\bin\\../lib/gcc/powerpc-eabi/4.6.3/../../../../powerpc-eabi/include/c++/4.6.3/powerpc-eabi/bits/atomic_word.h"
	.file 29 "d:\\devkitpro\\devkitppc\\bin\\../lib/gcc/powerpc-eabi/4.6.3/../../../../powerpc-eabi/include/c++/4.6.3/ext/numeric_traits.h"
	.file 30 "d:\\devkitpro\\devkitppc\\bin\\../lib/gcc/powerpc-eabi/4.6.3/../../../../powerpc-eabi/include/c++/4.6.3/bits/basic_string.tcc"
	.file 31 "d:\\devkitpro\\devkitppc\\bin\\../lib/gcc/powerpc-eabi/4.6.3/../../../../powerpc-eabi/include/c++/4.6.3/bits/vector.tcc"
	.file 32 "d:\\devkitpro\\devkitppc\\bin\\../lib/gcc/powerpc-eabi/4.6.3/../../../../powerpc-eabi/include/stdio.h"
	.file 33 "d:/Projects/SaveGameManager/savegame-manager-gx/trunk/source/DeviceControls/../Settings/../FileOperations/FileExtensions.h"
	.file 34 "d:/Projects/SaveGameManager/savegame-manager-gx/trunk/source/DeviceControls/../Settings/../Controls/AppControls.hpp"
	.file 35 "d:/Projects/SaveGameManager/savegame-manager-gx/trunk/source/DeviceControls/../Settings/CSettings.h"
	.file 36 "d:/devkitPro/libogc/include/sdcard/wiisd_io.h"
	.file 37 "d:/devkitPro/libogc/include/ogc/usbstorage.h"
	.file 38 "d:/Projects/SaveGameManager/savegame-manager-gx/trunk/source/DeviceControls/usb2storage.h"