   1              		.file	"DeviceMenu.cpp"
   2              		.section	".text"
   3              	.Ltext0:
   4              		.section	.text._ZN7sigslot15single_threadedD2Ev,"axG",@progbits,_ZN7sigslot15single_threadedD5Ev,c
   5              		.align 2
   6              		.weak	_ZN7sigslot15single_threadedD2Ev
   7              		.type	_ZN7sigslot15single_threadedD2Ev, @function
   8              	_ZN7sigslot15single_threadedD2Ev:
   9              	.LFB1148:
  10              		.file 1 "d:/Projects/SaveGameManager/savegame-manager-gx/trunk/source/Prompts/../GUI/../sigslot.h"
  11              		.loc 1 104 0
  12              		.cfi_startproc
  13              	.LVL0:
  14              	.LBB2287:
  15              		.loc 1 105 0
  16 0000 3D200000 		lis 9,_ZTVN7sigslot15single_threadedE+8@ha
  17              	.LBE2287:
  18              		.loc 1 107 0
  19              	.LBB2288:
  20              		.loc 1 105 0
  21 0004 38090008 		la 0,_ZTVN7sigslot15single_threadedE+8@l(9)
  22 0008 90030000 		stw 0,0(3)
  23              	.LBE2288:
  24              		.loc 1 107 0
  25 000c 4E800020 		blr
  26              		.cfi_endproc
  27              	.LFE1148:
  28              		.size	_ZN7sigslot15single_threadedD2Ev, .-_ZN7sigslot15single_threadedD2Ev
  29              		.section	.text._ZN7sigslot15single_threaded4lockEv,"axG",@progbits,_ZN7sigslot15single_threaded4lo
  30              		.align 2
  31              		.weak	_ZN7sigslot15single_threaded4lockEv
  32              		.type	_ZN7sigslot15single_threaded4lockEv, @function
  33              	_ZN7sigslot15single_threaded4lockEv:
  34              	.LFB1151:
  35              		.loc 1 109 0
  36              		.cfi_startproc
  37              	.LVL1:
  38              		.loc 1 112 0
  39 0000 4E800020 		blr
  40              		.cfi_endproc
  41              	.LFE1151:
  42              		.size	_ZN7sigslot15single_threaded4lockEv, .-_ZN7sigslot15single_threaded4lockEv
  43              		.section	.text._ZN7sigslot15single_threaded6unlockEv,"axG",@progbits,_ZN7sigslot15single_threaded6
  44              		.align 2
  45              		.weak	_ZN7sigslot15single_threaded6unlockEv
  46              		.type	_ZN7sigslot15single_threaded6unlockEv, @function
  47              	_ZN7sigslot15single_threaded6unlockEv:
  48              	.LFB1152:
  49              		.loc 1 114 0
  50              		.cfi_startproc
  51              	.LVL2:
  52              		.loc 1 117 0
  53 0000 4E800020 		blr
  54              		.cfi_endproc
  55              	.LFE1152:
  56              		.size	_ZN7sigslot15single_threaded6unlockEv, .-_ZN7sigslot15single_threaded6unlockEv
  57              		.section	.text._ZN10GuiElement9SetParentEPS_,"axG",@progbits,_ZN10GuiElement9SetParentEPS_,comdat
  58              		.align 2
  59              		.weak	_ZN10GuiElement9SetParentEPS_
  60              		.type	_ZN10GuiElement9SetParentEPS_, @function
  61              	_ZN10GuiElement9SetParentEPS_:
  62              	.LFB1384:
  63              		.file 2 "d:/Projects/SaveGameManager/savegame-manager-gx/trunk/source/Prompts/../GUI/gui_element.h
  64              		.loc 2 92 0
  65              		.cfi_startproc
  66              	.LVL3:
  67              		.loc 2 92 0
  68 0000 90830060 		stw 4,96(3)
  69 0004 4E800020 		blr
  70              		.cfi_endproc
  71              	.LFE1384:
  72              		.size	_ZN10GuiElement9SetParentEPS_, .-_ZN10GuiElement9SetParentEPS_
  73              		.section	.text._ZN10GuiElement9GetParentEv,"axG",@progbits,_ZN10GuiElement9GetParentEv,comdat
  74              		.align 2
  75              		.weak	_ZN10GuiElement9GetParentEv
  76              		.type	_ZN10GuiElement9GetParentEv, @function
  77              	_ZN10GuiElement9GetParentEv:
  78              	.LFB1385:
  79              		.loc 2 95 0
  80              		.cfi_startproc
  81              	.LVL4:
  82              		.loc 2 95 0
  83 0000 80630060 		lwz 3,96(3)
  84              	.LVL5:
  85 0004 4E800020 		blr
  86              		.cfi_endproc
  87              	.LFE1385:
  88              		.size	_ZN10GuiElement9GetParentEv, .-_ZN10GuiElement9GetParentEv
  89              		.section	.text._ZN10GuiElement12GetZPositionEv,"axG",@progbits,_ZN10GuiElement12GetZPositionEv,com
  90              		.align 2
  91              		.weak	_ZN10GuiElement12GetZPositionEv
  92              		.type	_ZN10GuiElement12GetZPositionEv, @function
  93              	_ZN10GuiElement12GetZPositionEv:
  94              	.LFB1386:
  95              		.loc 2 106 0
  96              		.cfi_startproc
  97              	.LVL6:
  98 0000 7C0802A6 		mflr 0
  99 0004 9421FFF0 		stwu 1,-16(1)
 100              	.LCFI0:
 101              		.cfi_def_cfa_offset 16
 102              		.cfi_register 65, 0
 103 0008 93E1000C 		stw 31,12(1)
 104 000c 7C7F1B78 		mr 31,3
 105              		.cfi_offset 31, -4
 106 0010 90010014 		stw 0,20(1)
 107              	.LBB2289:
 108              		.loc 2 110 0
 109 0014 81630060 		lwz 11,96(3)
 110              		.loc 2 108 0
 111 0018 38600000 		li 3,0
 112              	.LVL7:
 113              		.loc 2 110 0
 114 001c 2F8B0000 		cmpwi 7,11,0
 115 0020 419E0018 		beq- 7,.L8
 116              		.cfi_offset 65, 4
 117              		.loc 2 111 0
 118 0024 812B0000 		lwz 9,0(11)
 119 0028 7D635B78 		mr 3,11
 120 002c 80090018 		lwz 0,24(9)
 121 0030 7C0903A6 		mtctr 0
 122 0034 4E800421 		bctrl
 123              	.LVL8:
 124              	.L8:
 125              		.loc 2 113 0
 126 0038 801F0034 		lwz 0,52(31)
 127              	.LBE2289:
 128              		.loc 2 114 0
 129 003c 83E1000C 		lwz 31,12(1)
 130              	.LVL9:
 131 0040 7C630214 		add 3,3,0
 132              	.LVL10:
 133 0044 80010014 		lwz 0,20(1)
 134 0048 38210010 		addi 1,1,16
 135              	.LCFI1:
 136              		.cfi_def_cfa_offset 0
 137              		.cfi_restore 31
 138 004c 7C0803A6 		mtlr 0
 139 0050 4E800020 		blr
 140              		.cfi_endproc
 141              	.LFE1386:
 142              		.size	_ZN10GuiElement12GetZPositionEv, .-_ZN10GuiElement12GetZPositionEv
 143              		.section	.text._ZN10GuiElement10GetLeftPosEv,"axG",@progbits,_ZN10GuiElement10GetLeftPosEv,comdat
 144              		.align 2
 145              		.weak	_ZN10GuiElement10GetLeftPosEv
 146              		.type	_ZN10GuiElement10GetLeftPosEv, @function
 147              	_ZN10GuiElement10GetLeftPosEv:
 148              	.LFB1387:
 149              		.loc 2 116 0
 150              		.cfi_startproc
 151              	.LVL11:
 152              		.loc 2 116 0
 153 0000 8063002C 		lwz 3,44(3)
 154              	.LVL12:
 155 0004 4E800020 		blr
 156              		.cfi_endproc
 157              	.LFE1387:
 158              		.size	_ZN10GuiElement10GetLeftPosEv, .-_ZN10GuiElement10GetLeftPosEv
 159              		.section	.text._ZN10GuiElement9GetTopPosEv,"axG",@progbits,_ZN10GuiElement9GetTopPosEv,comdat
 160              		.align 2
 161              		.weak	_ZN10GuiElement9GetTopPosEv
 162              		.type	_ZN10GuiElement9GetTopPosEv, @function
 163              	_ZN10GuiElement9GetTopPosEv:
 164              	.LFB1388:
 165              		.loc 2 118 0
 166              		.cfi_startproc
 167              	.LVL13:
 168              		.loc 2 118 0
 169 0000 80630030 		lwz 3,48(3)
 170              	.LVL14:
 171 0004 4E800020 		blr
 172              		.cfi_endproc
 173              	.LFE1388:
 174              		.size	_ZN10GuiElement9GetTopPosEv, .-_ZN10GuiElement9GetTopPosEv
 175              		.section	.text._ZN10GuiElement8GetWidthEv,"axG",@progbits,_ZN10GuiElement8GetWidthEv,comdat
 176              		.align 2
 177              		.weak	_ZN10GuiElement8GetWidthEv
 178              		.type	_ZN10GuiElement8GetWidthEv, @function
 179              	_ZN10GuiElement8GetWidthEv:
 180              	.LFB1389:
 181              		.loc 2 121 0
 182              		.cfi_startproc
 183              	.LVL15:
 184              		.loc 2 121 0
 185 0000 80630024 		lwz 3,36(3)
 186              	.LVL16:
 187 0004 4E800020 		blr
 188              		.cfi_endproc
 189              	.LFE1389:
 190              		.size	_ZN10GuiElement8GetWidthEv, .-_ZN10GuiElement8GetWidthEv
 191              		.section	.text._ZN10GuiElement9GetHeightEv,"axG",@progbits,_ZN10GuiElement9GetHeightEv,comdat
 192              		.align 2
 193              		.weak	_ZN10GuiElement9GetHeightEv
 194              		.type	_ZN10GuiElement9GetHeightEv, @function
 195              	_ZN10GuiElement9GetHeightEv:
 196              	.LFB1390:
 197              		.loc 2 124 0
 198              		.cfi_startproc
 199              	.LVL17:
 200              		.loc 2 124 0
 201 0000 80630028 		lwz 3,40(3)
 202              	.LVL18:
 203 0004 4E800020 		blr
 204              		.cfi_endproc
 205              	.LFE1390:
 206              		.size	_ZN10GuiElement9GetHeightEv, .-_ZN10GuiElement9GetHeightEv
 207              		.section	.text._ZN10GuiElement7SetSizeEii,"axG",@progbits,_ZN10GuiElement7SetSizeEii,comdat
 208              		.align 2
 209              		.weak	_ZN10GuiElement7SetSizeEii
 210              		.type	_ZN10GuiElement7SetSizeEii, @function
 211              	_ZN10GuiElement7SetSizeEii:
 212              	.LFB1391:
 213              		.loc 2 128 0
 214              		.cfi_startproc
 215              	.LVL19:
 216              		.loc 2 130 0
 217 0000 90830024 		stw 4,36(3)
 218              		.loc 2 132 0
 219              		.loc 2 131 0
 220 0004 90A30028 		stw 5,40(3)
 221              		.loc 2 132 0
 222 0008 4E800020 		blr
 223              		.cfi_endproc
 224              	.LFE1391:
 225              		.size	_ZN10GuiElement7SetSizeEii, .-_ZN10GuiElement7SetSizeEii
 226              		.section	.text._ZN10GuiElement9IsVisibleEv,"axG",@progbits,_ZN10GuiElement9IsVisibleEv,comdat
 227              		.align 2
 228              		.weak	_ZN10GuiElement9IsVisibleEv
 229              		.type	_ZN10GuiElement9IsVisibleEv, @function
 230              	_ZN10GuiElement9IsVisibleEv:
 231              	.LFB1393:
 232              		.loc 2 142 0
 233              		.cfi_startproc
 234              	.LVL20:
 235              		.loc 2 142 0
 236 0000 8863001D 		lbz 3,29(3)
 237              	.LVL21:
 238 0004 4E800020 		blr
 239              		.cfi_endproc
 240              	.LFE1393:
 241              		.size	_ZN10GuiElement9IsVisibleEv, .-_ZN10GuiElement9IsVisibleEv
 242              		.section	.text._ZN10GuiElement12IsSelectableEv,"axG",@progbits,_ZN10GuiElement12IsSelectableEv,com
 243              		.align 2
 244              		.weak	_ZN10GuiElement12IsSelectableEv
 245              		.type	_ZN10GuiElement12IsSelectableEv, @function
 246              	_ZN10GuiElement12IsSelectableEv:
 247              	.LFB1394:
 248              		.loc 2 145 0
 249              		.cfi_startproc
 250              	.LVL22:
 251              		.loc 2 149 0
 252 0000 80030048 		lwz 0,72(3)
 253 0004 39200000 		li 9,0
 254 0008 2F800004 		cmpwi 7,0,4
 255 000c 419E0010 		beq- 7,.L18
 256              		.loc 2 149 0 is_stmt 0 discriminator 1
 257 0010 2F800002 		cmpwi 7,0,2
 258 0014 419E0008 		beq- 7,.L18
 259              		.loc 2 149 0 discriminator 3
 260 0018 8923001E 		lbz 9,30(3)
 261              	.L18:
 262              		.loc 2 150 0 is_stmt 1 discriminator 5
 263 001c 7D234B78 		mr 3,9
 264              	.LVL23:
 265 0020 4E800020 		blr
 266              		.cfi_endproc
 267              	.LFE1394:
 268              		.size	_ZN10GuiElement12IsSelectableEv, .-_ZN10GuiElement12IsSelectableEv
 269              		.section	.text._ZN10GuiElement11IsClickableEv,"axG",@progbits,_ZN10GuiElement11IsClickableEv,comda
 270              		.align 2
 271              		.weak	_ZN10GuiElement11IsClickableEv
 272              		.type	_ZN10GuiElement11IsClickableEv, @function
 273              	_ZN10GuiElement11IsClickableEv:
 274              	.LFB1395:
 275              		.loc 2 153 0
 276              		.cfi_startproc
 277              	.LVL24:
 278              		.loc 2 158 0
 279 0000 80030048 		lwz 0,72(3)
 280 0004 39200000 		li 9,0
 281 0008 2F800004 		cmpwi 7,0,4
 282 000c 419E0018 		beq- 7,.L22
 283              		.loc 2 158 0 is_stmt 0 discriminator 1
 284 0010 2F800002 		cmpwi 7,0,2
 285 0014 419E0010 		beq- 7,.L22
 286              		.loc 2 158 0 discriminator 3
 287 0018 2F800003 		cmpwi 7,0,3
 288 001c 419E0008 		beq- 7,.L22
 289              		.loc 2 158 0 discriminator 4
 290 0020 8923001F 		lbz 9,31(3)
 291              	.L22:
 292              		.loc 2 159 0 is_stmt 1 discriminator 6
 293 0024 7D234B78 		mr 3,9
 294              	.LVL25:
 295 0028 4E800020 		blr
 296              		.cfi_endproc
 297              	.LFE1395:
 298              		.size	_ZN10GuiElement11IsClickableEv, .-_ZN10GuiElement11IsClickableEv
 299              		.section	.text._ZN10GuiElement10IsHoldableEv,"axG",@progbits,_ZN10GuiElement10IsHoldableEv,comdat
 300              		.align 2
 301              		.weak	_ZN10GuiElement10IsHoldableEv
 302              		.type	_ZN10GuiElement10IsHoldableEv, @function
 303              	_ZN10GuiElement10IsHoldableEv:
 304              	.LFB1396:
 305              		.loc 2 162 0
 306              		.cfi_startproc
 307              	.LVL26:
 308              		.loc 2 162 0
 309 0000 81230048 		lwz 9,72(3)
 310 0004 38000000 		li 0,0
 311 0008 2F890004 		cmpwi 7,9,4
 312 000c 419E0008 		beq- 7,.L27
 313              		.loc 2 162 0 is_stmt 0 discriminator 1
 314 0010 88030020 		lbz 0,32(3)
 315              	.L27:
 316              		.loc 2 162 0 discriminator 4
 317 0014 7C030378 		mr 3,0
 318              	.LVL27:
 319 0018 4E800020 		blr
 320              		.cfi_endproc
 321              	.LFE1396:
 322              		.size	_ZN10GuiElement10IsHoldableEv, .-_ZN10GuiElement10IsHoldableEv
 323              		.section	.text._ZN10GuiElement13SetSelectableEb,"axG",@progbits,_ZN10GuiElement13SetSelectableEb,c
 324              		.align 2
 325              		.weak	_ZN10GuiElement13SetSelectableEb
 326              		.type	_ZN10GuiElement13SetSelectableEb, @function
 327              	_ZN10GuiElement13SetSelectableEb:
 328              	.LFB1397:
 329              		.loc 2 165 0 is_stmt 1
 330              		.cfi_startproc
 331              	.LVL28:
 332              		.loc 2 165 0
 333 0000 9883001E 		stb 4,30(3)
 334 0004 4E800020 		blr
 335              		.cfi_endproc
 336              	.LFE1397:
 337              		.size	_ZN10GuiElement13SetSelectableEb, .-_ZN10GuiElement13SetSelectableEb
 338              		.section	.text._ZN10GuiElement12SetClickableEb,"axG",@progbits,_ZN10GuiElement12SetClickableEb,com
 339              		.align 2
 340              		.weak	_ZN10GuiElement12SetClickableEb
 341              		.type	_ZN10GuiElement12SetClickableEb, @function
 342              	_ZN10GuiElement12SetClickableEb:
 343              	.LFB1398:
 344              		.loc 2 168 0
 345              		.cfi_startproc
 346              	.LVL29:
 347              		.loc 2 168 0
 348 0000 9883001F 		stb 4,31(3)
 349 0004 4E800020 		blr
 350              		.cfi_endproc
 351              	.LFE1398:
 352              		.size	_ZN10GuiElement12SetClickableEb, .-_ZN10GuiElement12SetClickableEb
 353              		.section	.text._ZN10GuiElement11SetHoldableEb,"axG",@progbits,_ZN10GuiElement11SetHoldableEb,comda
 354              		.align 2
 355              		.weak	_ZN10GuiElement11SetHoldableEb
 356              		.type	_ZN10GuiElement11SetHoldableEb, @function
 357              	_ZN10GuiElement11SetHoldableEb:
 358              	.LFB1399:
 359              		.loc 2 171 0
 360              		.cfi_startproc
 361              	.LVL30:
 362              		.loc 2 171 0
 363 0000 98830020 		stb 4,32(3)
 364 0004 4E800020 		blr
 365              		.cfi_endproc
 366              	.LFE1399:
 367              		.size	_ZN10GuiElement11SetHoldableEb, .-_ZN10GuiElement11SetHoldableEb
 368              		.section	.text._ZN10GuiElement8GetStateEv,"axG",@progbits,_ZN10GuiElement8GetStateEv,comdat
 369              		.align 2
 370              		.weak	_ZN10GuiElement8GetStateEv
 371              		.type	_ZN10GuiElement8GetStateEv, @function
 372              	_ZN10GuiElement8GetStateEv:
 373              	.LFB1400:
 374              		.loc 2 178 0
 375              		.cfi_startproc
 376              	.LVL31:
 377              		.loc 2 178 0
 378 0000 80630048 		lwz 3,72(3)
 379              	.LVL32:
 380 0004 4E800020 		blr
 381              		.cfi_endproc
 382              	.LFE1400:
 383              		.size	_ZN10GuiElement8GetStateEv, .-_ZN10GuiElement8GetStateEv
 384              		.section	.text._ZN10GuiElement12GetStateChanEv,"axG",@progbits,_ZN10GuiElement12GetStateChanEv,com
 385              		.align 2
 386              		.weak	_ZN10GuiElement12GetStateChanEv
 387              		.type	_ZN10GuiElement12GetStateChanEv, @function
 388              	_ZN10GuiElement12GetStateChanEv:
 389              	.LFB1401:
 390              		.loc 2 181 0
 391              		.cfi_startproc
 392              	.LVL33:
 393              		.loc 2 181 0
 394 0000 8063004C 		lwz 3,76(3)
 395              	.LVL34:
 396 0004 4E800020 		blr
 397              		.cfi_endproc
 398              	.LFE1401:
 399              		.size	_ZN10GuiElement12GetStateChanEv, .-_ZN10GuiElement12GetStateChanEv
 400              		.section	.text._ZN10GuiElement8SetAlphaEi,"axG",@progbits,_ZN10GuiElement8SetAlphaEi,comdat
 401              		.align 2
 402              		.weak	_ZN10GuiElement8SetAlphaEi
 403              		.type	_ZN10GuiElement8SetAlphaEi, @function
 404              	_ZN10GuiElement8SetAlphaEi:
 405              	.LFB1403:
 406              		.loc 2 190 0
 407              		.cfi_startproc
 408              	.LVL35:
 409              		.loc 2 190 0
 410 0000 90830038 		stw 4,56(3)
 411 0004 4E800020 		blr
 412              		.cfi_endproc
 413              	.LFE1403:
 414              		.size	_ZN10GuiElement8SetAlphaEi, .-_ZN10GuiElement8SetAlphaEi
 415              		.section	.text._ZN10GuiElement8GetAlphaEv,"axG",@progbits,_ZN10GuiElement8GetAlphaEv,comdat
 416              		.align 2
 417              		.weak	_ZN10GuiElement8GetAlphaEv
 418              		.type	_ZN10GuiElement8GetAlphaEv, @function
 419              	_ZN10GuiElement8GetAlphaEv:
 420              	.LFB1404:
 421              		.loc 2 194 0
 422              		.cfi_startproc
 423              	.LVL36:
 424 0000 7C0802A6 		mflr 0
 425 0004 9421FFD8 		stwu 1,-40(1)
 426              	.LCFI2:
 427              		.cfi_def_cfa_offset 40
 428              		.cfi_register 65, 0
 429 0008 93E10024 		stw 31,36(1)
 430 000c 9001002C 		stw 0,44(1)
 431              	.LBB2290:
 432              		.loc 2 198 0
 433 0010 83E3006C 		lwz 31,108(3)
 434              		.cfi_offset 65, 4
 435              		.cfi_offset 31, -4
 436 0014 2F9F0000 		cmpwi 7,31,0
 437 0018 419C0094 		blt- 7,.L38
 438              	.L36:
 439              	.LVL37:
 440              		.loc 2 203 0
 441 001c 80630060 		lwz 3,96(3)
 442              	.LVL38:
 443 0020 2F830000 		cmpwi 7,3,0
 444 0024 419E0070 		beq- 7,.L37
 445              		.loc 2 204 0
 446 0028 81230000 		lwz 9,0(3)
 447 002c 6FFF8000 		xoris 31,31,0x8000
 448              	.LVL39:
 449 0030 80090064 		lwz 0,100(9)
 450 0034 7C0903A6 		mtctr 0
 451 0038 4E800421 		bctrl
 452 003c 3C004330 		lis 0,0x4330
 453 0040 6C638000 		xoris 3,3,0x8000
 454 0044 90010010 		stw 0,16(1)
 455 0048 90610014 		stw 3,20(1)
 456 004c 3D200000 		lis 9,.LC1@ha
 457 0050 C0090000 		lfs 0,.LC1@l(9)
 458 0054 3D200000 		lis 9,.LC2@ha
 459 0058 C9A10010 		lfd 13,16(1)
 460 005c C1890004 		lfs 12,.LC2@l(9)
 461 0060 39210018 		addi 9,1,24
 462 0064 FDAD0028 		fsub 13,13,0
 463 0068 93E1000C 		stw 31,12(1)
 464 006c 90010008 		stw 0,8(1)
 465 0070 FDA06818 		frsp 13,13
 466 0074 EDAD6024 		fdivs 13,13,12
 467 0078 C9810008 		lfd 12,8(1)
 468 007c FC0C0028 		fsub 0,12,0
 469 0080 FC000018 		frsp 0,0
 470 0084 EC000372 		fmuls 0,0,13
 471 0088 FC00001E 		fctiwz 0,0
 472 008c 7C004FAE 		stfiwx 0,0,9
 473 0090 83E10018 		lwz 31,24(1)
 474              	.LVL40:
 475              	.L37:
 476              	.LBE2290:
 477              		.loc 2 207 0
 478 0094 8001002C 		lwz 0,44(1)
 479 0098 7FE3FB78 		mr 3,31
 480 009c 83E10024 		lwz 31,36(1)
 481              	.LVL41:
 482 00a0 7C0803A6 		mtlr 0
 483 00a4 38210028 		addi 1,1,40
 484              		.cfi_remember_state
 485              	.LCFI3:
 486              		.cfi_def_cfa_offset 0
 487              		.cfi_restore 31
 488 00a8 4E800020 		blr
 489              	.LVL42:
 490              	.L38:
 491              	.LCFI4:
 492              		.cfi_restore_state
 493              	.LBB2291:
 494              		.loc 2 201 0
 495 00ac 83E30038 		lwz 31,56(3)
 496              	.LVL43:
 497 00b0 4BFFFF6C 		b .L36
 498              	.LBE2291:
 499              		.cfi_endproc
 500              	.LFE1404:
 501              		.size	_ZN10GuiElement8GetAlphaEv, .-_ZN10GuiElement8GetAlphaEv
 502              		.section	.text._ZN10GuiElement8SetScaleEf,"axG",@progbits,_ZN10GuiElement8SetScaleEf,comdat
 503              		.align 2
 504              		.weak	_ZN10GuiElement8SetScaleEf
 505              		.type	_ZN10GuiElement8SetScaleEf, @function
 506              	_ZN10GuiElement8SetScaleEf:
 507              	.LFB1405:
 508              		.loc 2 210 0
 509              		.cfi_startproc
 510              	.LVL44:
 511              		.loc 2 212 0
 512 0000 D023003C 		stfs 1,60(3)
 513              		.loc 2 214 0
 514              		.loc 2 213 0
 515 0004 D0230040 		stfs 1,64(3)
 516              		.loc 2 214 0
 517 0008 4E800020 		blr
 518              		.cfi_endproc
 519              	.LFE1405:
 520              		.size	_ZN10GuiElement8SetScaleEf, .-_ZN10GuiElement8SetScaleEf
 521              		.section	.text._ZN10GuiElement9SetScaleXEf,"axG",@progbits,_ZN10GuiElement9SetScaleXEf,comdat
 522              		.align 2
 523              		.weak	_ZN10GuiElement9SetScaleXEf
 524              		.type	_ZN10GuiElement9SetScaleXEf, @function
 525              	_ZN10GuiElement9SetScaleXEf:
 526              	.LFB1406:
 527              		.loc 2 217 0
 528              		.cfi_startproc
 529              	.LVL45:
 530              		.loc 2 217 0
 531 0000 D023003C 		stfs 1,60(3)
 532 0004 4E800020 		blr
 533              		.cfi_endproc
 534              	.LFE1406:
 535              		.size	_ZN10GuiElement9SetScaleXEf, .-_ZN10GuiElement9SetScaleXEf
 536              		.section	.text._ZN10GuiElement9SetScaleYEf,"axG",@progbits,_ZN10GuiElement9SetScaleYEf,comdat
 537              		.align 2
 538              		.weak	_ZN10GuiElement9SetScaleYEf
 539              		.type	_ZN10GuiElement9SetScaleYEf, @function
 540              	_ZN10GuiElement9SetScaleYEf:
 541              	.LFB1407:
 542              		.loc 2 220 0
 543              		.cfi_startproc
 544              	.LVL46:
 545              		.loc 2 220 0
 546 0000 D0230040 		stfs 1,64(3)
 547 0004 4E800020 		blr
 548              		.cfi_endproc
 549              	.LFE1407:
 550              		.size	_ZN10GuiElement9SetScaleYEf, .-_ZN10GuiElement9SetScaleYEf
 551              		.section	.text._ZN10GuiElement8GetScaleEv,"axG",@progbits,_ZN10GuiElement8GetScaleEv,comdat
 552              		.align 2
 553              		.weak	_ZN10GuiElement8GetScaleEv
 554              		.type	_ZN10GuiElement8GetScaleEv, @function
 555              	_ZN10GuiElement8GetScaleEv:
 556              	.LFB1408:
 557              		.loc 2 223 0
 558              		.cfi_startproc
 559              	.LVL47:
 560 0000 7C0802A6 		mflr 0
 561 0004 9421FFF0 		stwu 1,-16(1)
 562              	.LCFI5:
 563              		.cfi_def_cfa_offset 16
 564              		.cfi_register 65, 0
 565              	.LBB2292:
 566              		.loc 2 225 0
 567 0008 3D200000 		lis 9,.LC3@ha
 568              	.LBE2292:
 569              		.loc 2 223 0
 570 000c DBE10008 		stfd 31,8(1)
 571 0010 90010014 		stw 0,20(1)
 572              	.LBB2293:
 573              		.loc 2 225 0
 574 0014 C0030040 		lfs 0,64(3)
 575 0018 C3E3003C 		lfs 31,60(3)
 576              		.cfi_offset 65, 4
 577              		.cfi_offset 63, -8
 578              		.loc 2 227 0
 579 001c 81630060 		lwz 11,96(3)
 580              		.loc 2 225 0
 581 0020 EFFF002A 		fadds 31,31,0
 582 0024 C0090008 		lfs 0,.LC3@l(9)
 583              		.loc 2 227 0
 584 0028 2F8B0000 		cmpwi 7,11,0
 585              		.loc 2 225 0
 586 002c EFFF0032 		fmuls 31,31,0
 587 0030 C0030070 		lfs 0,112(3)
 588 0034 EFFF0032 		fmuls 31,31,0
 589              	.LVL48:
 590              		.loc 2 227 0
 591 0038 419E001C 		beq- 7,.L43
 592              		.loc 2 228 0
 593 003c 812B0000 		lwz 9,0(11)
 594 0040 7D635B78 		mr 3,11
 595              	.LVL49:
 596 0044 80090074 		lwz 0,116(9)
 597 0048 7C0903A6 		mtctr 0
 598 004c 4E800421 		bctrl
 599 0050 EFFF0072 		fmuls 31,31,1
 600              	.LVL50:
 601              	.L43:
 602              	.LBE2293:
 603              		.loc 2 231 0
 604 0054 80010014 		lwz 0,20(1)
 605 0058 FC20F890 		fmr 1,31
 606 005c CBE10008 		lfd 31,8(1)
 607              	.LVL51:
 608 0060 7C0803A6 		mtlr 0
 609 0064 38210010 		addi 1,1,16
 610              	.LCFI6:
 611              		.cfi_def_cfa_offset 0
 612              		.cfi_restore 63
 613 0068 4E800020 		blr
 614              		.cfi_endproc
 615              	.LFE1408:
 616              		.size	_ZN10GuiElement8GetScaleEv, .-_ZN10GuiElement8GetScaleEv
 617              		.section	.text._ZN10GuiElement9GetScaleXEv,"axG",@progbits,_ZN10GuiElement9GetScaleXEv,comdat
 618              		.align 2
 619              		.weak	_ZN10GuiElement9GetScaleXEv
 620              		.type	_ZN10GuiElement9GetScaleXEv, @function
 621              	_ZN10GuiElement9GetScaleXEv:
 622              	.LFB1409:
 623              		.loc 2 234 0
 624              		.cfi_startproc
 625              	.LVL52:
 626 0000 7C0802A6 		mflr 0
 627 0004 9421FFF0 		stwu 1,-16(1)
 628              	.LCFI7:
 629              		.cfi_def_cfa_offset 16
 630              		.cfi_register 65, 0
 631 0008 DBE10008 		stfd 31,8(1)
 632 000c 90010014 		stw 0,20(1)
 633              	.LBB2294:
 634              		.loc 2 238 0
 635 0010 81630060 		lwz 11,96(3)
 636              		.loc 2 236 0
 637 0014 C3E3003C 		lfs 31,60(3)
 638              		.cfi_offset 65, 4
 639              		.cfi_offset 63, -8
 640              		.loc 2 238 0
 641 0018 2F8B0000 		cmpwi 7,11,0
 642              		.loc 2 236 0
 643 001c C0030070 		lfs 0,112(3)
 644 0020 EFFF0032 		fmuls 31,31,0
 645              	.LVL53:
 646              		.loc 2 238 0
 647 0024 419E001C 		beq- 7,.L45
 648              		.loc 2 239 0
 649 0028 812B0000 		lwz 9,0(11)
 650 002c 7D635B78 		mr 3,11
 651              	.LVL54:
 652 0030 80090078 		lwz 0,120(9)
 653 0034 7C0903A6 		mtctr 0
 654 0038 4E800421 		bctrl
 655 003c EFFF0072 		fmuls 31,31,1
 656              	.LVL55:
 657              	.L45:
 658              	.LBE2294:
 659              		.loc 2 242 0
 660 0040 80010014 		lwz 0,20(1)
 661 0044 FC20F890 		fmr 1,31
 662 0048 CBE10008 		lfd 31,8(1)
 663              	.LVL56:
 664 004c 7C0803A6 		mtlr 0
 665 0050 38210010 		addi 1,1,16
 666              	.LCFI8:
 667              		.cfi_def_cfa_offset 0
 668              		.cfi_restore 63
 669 0054 4E800020 		blr
 670              		.cfi_endproc
 671              	.LFE1409:
 672              		.size	_ZN10GuiElement9GetScaleXEv, .-_ZN10GuiElement9GetScaleXEv
 673              		.section	.text._ZN10GuiElement9GetScaleYEv,"axG",@progbits,_ZN10GuiElement9GetScaleYEv,comdat
 674              		.align 2
 675              		.weak	_ZN10GuiElement9GetScaleYEv
 676              		.type	_ZN10GuiElement9GetScaleYEv, @function
 677              	_ZN10GuiElement9GetScaleYEv:
 678              	.LFB1410:
 679              		.loc 2 245 0
 680              		.cfi_startproc
 681              	.LVL57:
 682 0000 7C0802A6 		mflr 0
 683 0004 9421FFF0 		stwu 1,-16(1)
 684              	.LCFI9:
 685              		.cfi_def_cfa_offset 16
 686              		.cfi_register 65, 0
 687 0008 DBE10008 		stfd 31,8(1)
 688 000c 90010014 		stw 0,20(1)
 689              	.LBB2295:
 690              		.loc 2 249 0
 691 0010 81630060 		lwz 11,96(3)
 692              		.loc 2 247 0
 693 0014 C3E30040 		lfs 31,64(3)
 694              		.cfi_offset 65, 4
 695              		.cfi_offset 63, -8
 696              		.loc 2 249 0
 697 0018 2F8B0000 		cmpwi 7,11,0
 698              		.loc 2 247 0
 699 001c C0030070 		lfs 0,112(3)
 700 0020 EFFF0032 		fmuls 31,31,0
 701              	.LVL58:
 702              		.loc 2 249 0
 703 0024 419E001C 		beq- 7,.L47
 704              		.loc 2 250 0
 705 0028 812B0000 		lwz 9,0(11)
 706 002c 7D635B78 		mr 3,11
 707              	.LVL59:
 708 0030 8009007C 		lwz 0,124(9)
 709 0034 7C0903A6 		mtctr 0
 710 0038 4E800421 		bctrl
 711 003c EFFF0072 		fmuls 31,31,1
 712              	.LVL60:
 713              	.L47:
 714              	.LBE2295:
 715              		.loc 2 253 0
 716 0040 80010014 		lwz 0,20(1)
 717 0044 FC20F890 		fmr 1,31
 718 0048 CBE10008 		lfd 31,8(1)
 719              	.LVL61:
 720 004c 7C0803A6 		mtlr 0
 721 0050 38210010 		addi 1,1,16
 722              	.LCFI10:
 723              		.cfi_def_cfa_offset 0
 724              		.cfi_restore 63
 725 0054 4E800020 		blr
 726              		.cfi_endproc
 727              	.LFE1410:
 728              		.size	_ZN10GuiElement9GetScaleYEv, .-_ZN10GuiElement9GetScaleYEv
 729              		.section	.text._ZN10GuiElement6RumbleEv,"axG",@progbits,_ZN10GuiElement6RumbleEv,comdat
 730              		.align 2
 731              		.weak	_ZN10GuiElement6RumbleEv
 732              		.type	_ZN10GuiElement6RumbleEv, @function
 733              	_ZN10GuiElement6RumbleEv:
 734              	.LFB1411:
 735              		.loc 2 256 0
 736              		.cfi_startproc
 737              	.LVL62:
 738              		.loc 2 256 0
 739 0000 8863001C 		lbz 3,28(3)
 740              	.LVL63:
 741 0004 4E800020 		blr
 742              		.cfi_endproc
 743              	.LFE1411:
 744              		.size	_ZN10GuiElement6RumbleEv, .-_ZN10GuiElement6RumbleEv
 745              		.section	.text._ZN10GuiElement9SetRumbleEb,"axG",@progbits,_ZN10GuiElement9SetRumbleEb,comdat
 746              		.align 2
 747              		.weak	_ZN10GuiElement9SetRumbleEb
 748              		.type	_ZN10GuiElement9SetRumbleEb, @function
 749              	_ZN10GuiElement9SetRumbleEb:
 750              	.LFB1412:
 751              		.loc 2 259 0
 752              		.cfi_startproc
 753              	.LVL64:
 754              		.loc 2 259 0
 755 0000 9883001C 		stb 4,28(3)
 756 0004 4E800020 		blr
 757              		.cfi_endproc
 758              	.LFE1412:
 759              		.size	_ZN10GuiElement9SetRumbleEb, .-_ZN10GuiElement9SetRumbleEb
 760              		.section	.text._ZN10GuiElement13SetEffectGrowEv,"axG",@progbits,_ZN10GuiElement13SetEffectGrowEv,c
 761              		.align 2
 762              		.weak	_ZN10GuiElement13SetEffectGrowEv
 763              		.type	_ZN10GuiElement13SetEffectGrowEv, @function
 764              	_ZN10GuiElement13SetEffectGrowEv:
 765              	.LFB1413:
 766              		.loc 2 271 0
 767              		.cfi_startproc
 768              	.LVL65:
 769 0000 7C0802A6 		mflr 0
 770 0004 9421FFF8 		stwu 1,-8(1)
 771              	.LCFI11:
 772              		.cfi_def_cfa_offset 8
 773              		.cfi_register 65, 0
 774 0008 81230000 		lwz 9,0(3)
 775 000c 38800100 		li 4,256
 776 0010 38A00004 		li 5,4
 777 0014 38C0006E 		li 6,110
 778 0018 9001000C 		stw 0,12(1)
 779              		.loc 2 271 0
 780 001c 8009008C 		lwz 0,140(9)
 781              		.cfi_offset 65, 4
 782 0020 7C0903A6 		mtctr 0
 783 0024 4E800421 		bctrl
 784              	.LVL66:
 785 0028 8001000C 		lwz 0,12(1)
 786 002c 38210008 		addi 1,1,8
 787              	.LCFI12:
 788              		.cfi_def_cfa_offset 0
 789 0030 7C0803A6 		mtlr 0
 790 0034 4E800020 		blr
 791              		.cfi_endproc
 792              	.LFE1413:
 793              		.size	_ZN10GuiElement13SetEffectGrowEv, .-_ZN10GuiElement13SetEffectGrowEv
 794              		.section	.text._ZNK10GuiElement9GetEffectEv,"axG",@progbits,_ZNK10GuiElement9GetEffectEv,comdat
 795              		.align 2
 796              		.weak	_ZNK10GuiElement9GetEffectEv
 797              		.type	_ZNK10GuiElement9GetEffectEv, @function
 798              	_ZNK10GuiElement9GetEffectEv:
 799              	.LFB1414:
 800              		.loc 2 276 0
 801              		.cfi_startproc
 802              	.LVL67:
 803              		.loc 2 276 0
 804 0000 80630078 		lwz 3,120(3)
 805              	.LVL68:
 806 0004 4E800020 		blr
 807              		.cfi_endproc
 808              	.LFE1414:
 809              		.size	_ZNK10GuiElement9GetEffectEv, .-_ZNK10GuiElement9GetEffectEv
 810              		.section	.text._ZNK10GuiElement10IsAnimatedEv,"axG",@progbits,_ZNK10GuiElement10IsAnimatedEv,comda
 811              		.align 2
 812              		.weak	_ZNK10GuiElement10IsAnimatedEv
 813              		.type	_ZNK10GuiElement10IsAnimatedEv, @function
 814              	_ZNK10GuiElement10IsAnimatedEv:
 815              	.LFB1415:
 816              		.loc 2 278 0
 817              		.cfi_startproc
 818              	.LVL69:
 819 0000 7C0802A6 		mflr 0
 820 0004 9421FFF8 		stwu 1,-8(1)
 821              	.LCFI13:
 822              		.cfi_def_cfa_offset 8
 823              		.cfi_register 65, 0
 824 0008 9001000C 		stw 0,12(1)
 825              		.loc 2 278 0
 826 000c 81230000 		lwz 9,0(3)
 827 0010 80090098 		lwz 0,152(9)
 828              		.cfi_offset 65, 4
 829 0014 7C0903A6 		mtctr 0
 830 0018 4E800421 		bctrl
 831              	.LVL70:
 832 001c 7C60FE70 		srawi 0,3,31
 833 0020 7C630050 		subf 3,3,0
 834 0024 8001000C 		lwz 0,12(1)
 835 0028 54630FFE 		srwi 3,3,31
 836 002c 7C0803A6 		mtlr 0
 837 0030 38210008 		addi 1,1,8
 838              	.LCFI14:
 839              		.cfi_def_cfa_offset 0
 840 0034 4E800020 		blr
 841              		.cfi_endproc
 842              	.LFE1415:
 843              		.size	_ZNK10GuiElement10IsAnimatedEv, .-_ZNK10GuiElement10IsAnimatedEv
 844              		.section	.text._ZN10GuiElement8IsInsideEii,"axG",@progbits,_ZN10GuiElement8IsInsideEii,comdat
 845              		.align 2
 846              		.weak	_ZN10GuiElement8IsInsideEii
 847              		.type	_ZN10GuiElement8IsInsideEii, @function
 848              	_ZN10GuiElement8IsInsideEii:
 849              	.LFB1417:
 850              		.loc 2 285 0
 851              		.cfi_startproc
 852              	.LVL71:
 853 0000 7C0802A6 		mflr 0
 854 0004 9421FFE8 		stwu 1,-24(1)
 855              	.LCFI15:
 856              		.cfi_def_cfa_offset 24
 857              		.cfi_register 65, 0
 858 0008 93810008 		stw 28,8(1)
 859 000c 7CBC2B78 		mr 28,5
 860              		.cfi_offset 28, -16
 861 0010 9001001C 		stw 0,28(1)
 862 0014 93A1000C 		stw 29,12(1)
 863              		.loc 2 290 0
 864 0018 3BA00000 		li 29,0
 865              		.cfi_offset 29, -12
 866              		.cfi_offset 65, 4
 867              		.loc 2 287 0
 868 001c 81230000 		lwz 9,0(3)
 869              		.loc 2 285 0
 870 0020 93C10010 		stw 30,16(1)
 871 0024 7C9E2378 		mr 30,4
 872              		.cfi_offset 30, -8
 873              		.loc 2 287 0
 874 0028 80090010 		lwz 0,16(9)
 875              		.loc 2 285 0
 876 002c 93E10014 		stw 31,20(1)
 877              		.loc 2 285 0
 878 0030 7C7F1B78 		mr 31,3
 879              		.cfi_offset 31, -4
 880              		.loc 2 287 0
 881 0034 7C0903A6 		mtctr 0
 882 0038 4E800421 		bctrl
 883              	.LVL72:
 884              		.loc 2 290 0
 885 003c 7F83F000 		cmpw 7,3,30
 886 0040 419C0028 		blt- 7,.L58
 887              	.L54:
 888              		.loc 2 291 0 discriminator 6
 889 0044 8001001C 		lwz 0,28(1)
 890 0048 7FA3EB78 		mr 3,29
 891 004c 83810008 		lwz 28,8(1)
 892              	.LVL73:
 893 0050 7C0803A6 		mtlr 0
 894 0054 83A1000C 		lwz 29,12(1)
 895 0058 83C10010 		lwz 30,16(1)
 896              	.LVL74:
 897 005c 83E10014 		lwz 31,20(1)
 898              	.LVL75:
 899 0060 38210018 		addi 1,1,24
 900              		.cfi_remember_state
 901              	.LCFI16:
 902              		.cfi_def_cfa_offset 0
 903              		.cfi_restore 31
 904              		.cfi_restore 30
 905              		.cfi_restore 29
 906              		.cfi_restore 28
 907 0064 4E800020 		blr
 908              	.LVL76:
 909              	.L58:
 910              	.LCFI17:
 911              		.cfi_restore_state
 912              		.loc 2 288 0 discriminator 1
 913 0068 813F0000 		lwz 9,0(31)
 914 006c 7FE3FB78 		mr 3,31
 915 0070 80090010 		lwz 0,16(9)
 916 0074 7C0903A6 		mtctr 0
 917 0078 4E800421 		bctrl
 918              		.loc 2 290 0 discriminator 1
 919 007c 801F0024 		lwz 0,36(31)
 920 0080 7C030214 		add 0,3,0
 921 0084 7F9E0000 		cmpw 7,30,0
 922 0088 409CFFBC 		bge+ 7,.L54
 923              		.loc 2 289 0 discriminator 3
 924 008c 813F0000 		lwz 9,0(31)
 925 0090 7FE3FB78 		mr 3,31
 926 0094 80090014 		lwz 0,20(9)
 927 0098 7C0903A6 		mtctr 0
 928 009c 4E800421 		bctrl
 929              		.loc 2 290 0 discriminator 3
 930 00a0 7F83E000 		cmpw 7,3,28
 931 00a4 409CFFA0 		bge+ 7,.L54
 932              		.loc 2 290 0 is_stmt 0 discriminator 4
 933 00a8 813F0000 		lwz 9,0(31)
 934 00ac 7FE3FB78 		mr 3,31
 935 00b0 80090014 		lwz 0,20(9)
 936 00b4 7C0903A6 		mtctr 0
 937 00b8 4E800421 		bctrl
 938 00bc 801F0028 		lwz 0,40(31)
 939 00c0 7C030214 		add 0,3,0
 940              		.loc 2 285 0 is_stmt 1 discriminator 4
 941 00c4 7F9C0000 		cmpw 7,28,0
 942 00c8 7FA00026 		mfcr 29
 943 00cc 57BDEFFE 		rlwinm 29,29,29,1
 944 00d0 4BFFFF74 		b .L54
 945              		.cfi_endproc
 946              	.LFE1417:
 947              		.size	_ZN10GuiElement8IsInsideEii, .-_ZN10GuiElement8IsInsideEii
 948              		.section	.text._ZN10GuiElement11SetPositionEii,"axG",@progbits,_ZN10GuiElement11SetPositionEii,com
 949              		.align 2
 950              		.weak	_ZN10GuiElement11SetPositionEii
 951              		.type	_ZN10GuiElement11SetPositionEii, @function
 952              	_ZN10GuiElement11SetPositionEii:
 953              	.LFB1418:
 954              		.loc 2 295 0
 955              		.cfi_startproc
 956              	.LVL77:
 957              		.loc 2 297 0
 958 0000 9083002C 		stw 4,44(3)
 959              		.loc 2 299 0
 960              		.loc 2 298 0
 961 0004 90A30030 		stw 5,48(3)
 962              		.loc 2 299 0
 963 0008 4E800020 		blr
 964              		.cfi_endproc
 965              	.LFE1418:
 966              		.size	_ZN10GuiElement11SetPositionEii, .-_ZN10GuiElement11SetPositionEii
 967              		.section	.text._ZN10GuiElement11SetPositionEiii,"axG",@progbits,_ZN10GuiElement11SetPositionEiii,c
 968              		.align 2
 969              		.weak	_ZN10GuiElement11SetPositionEiii
 970              		.type	_ZN10GuiElement11SetPositionEiii, @function
 971              	_ZN10GuiElement11SetPositionEiii:
 972              	.LFB1419:
 973              		.loc 2 304 0
 974              		.cfi_startproc
 975              	.LVL78:
 976              		.loc 2 306 0
 977 0000 9083002C 		stw 4,44(3)
 978              		.loc 2 309 0
 979              		.loc 2 307 0
 980 0004 90A30030 		stw 5,48(3)
 981              		.loc 2 308 0
 982 0008 90C30034 		stw 6,52(3)
 983              		.loc 2 309 0
 984 000c 4E800020 		blr
 985              		.cfi_endproc
 986              	.LFE1419:
 987              		.size	_ZN10GuiElement11SetPositionEiii, .-_ZN10GuiElement11SetPositionEiii
 988              		.section	.text._ZN10GuiElement12SetAlignmentEi,"axG",@progbits,_ZN10GuiElement12SetAlignmentEi,com
 989              		.align 2
 990              		.weak	_ZN10GuiElement12SetAlignmentEi
 991              		.type	_ZN10GuiElement12SetAlignmentEi, @function
 992              	_ZN10GuiElement12SetAlignmentEi:
 993              	.LFB1421:
 994              		.loc 2 316 0
 995              		.cfi_startproc
 996              	.LVL79:
 997              		.loc 2 316 0
 998 0000 90830044 		stw 4,68(3)
 999 0004 4E800020 		blr
 1000              		.cfi_endproc
 1001              	.LFE1421:
 1002              		.size	_ZN10GuiElement12SetAlignmentEi, .-_ZN10GuiElement12SetAlignmentEi
 1003              		.section	.text._ZNK10GuiElement12GetAlignmentEv,"axG",@progbits,_ZNK10GuiElement12GetAlignmentEv,c
 1004              		.align 2
 1005              		.weak	_ZNK10GuiElement12GetAlignmentEv
 1006              		.type	_ZNK10GuiElement12GetAlignmentEv, @function
 1007              	_ZNK10GuiElement12GetAlignmentEv:
 1008              	.LFB1422:
 1009              		.loc 2 318 0
 1010              		.cfi_startproc
 1011              	.LVL80:
 1012              		.loc 2 318 0
 1013 0000 80630044 		lwz 3,68(3)
 1014              	.LVL81:
 1015 0004 4E800020 		blr
 1016              		.cfi_endproc
 1017              	.LFE1422:
 1018              		.size	_ZNK10GuiElement12GetAlignmentEv, .-_ZNK10GuiElement12GetAlignmentEv
 1019              		.section	.text._ZN8GuiFrame4showEv,"axG",@progbits,_ZN8GuiFrame4showEv,comdat
 1020              		.align 2
 1021              		.weak	_ZN8GuiFrame4showEv
 1022              		.type	_ZN8GuiFrame4showEv, @function
 1023              	_ZN8GuiFrame4showEv:
 1024              	.LFB1431:
 1025              		.file 3 "d:/Projects/SaveGameManager/savegame-manager-gx/trunk/source/Prompts/../GUI/gui_frame.h"
 1026              		.loc 3 79 0
 1027              		.cfi_startproc
 1028              	.LVL82:
 1029              		.loc 3 79 0
 1030 0000 4E800020 		blr
 1031              		.cfi_endproc
 1032              	.LFE1431:
 1033              		.size	_ZN8GuiFrame4showEv, .-_ZN8GuiFrame4showEv
 1034              		.section	.text._ZN8GuiFrame4hideEv,"axG",@progbits,_ZN8GuiFrame4hideEv,comdat
 1035              		.align 2
 1036              		.weak	_ZN8GuiFrame4hideEv
 1037              		.type	_ZN8GuiFrame4hideEv, @function
 1038              	_ZN8GuiFrame4hideEv:
 1039              	.LFB1432:
 1040              		.loc 3 81 0
 1041              		.cfi_startproc
 1042              	.LVL83:
 1043              		.loc 3 81 0
 1044 0000 4E800020 		blr
 1045              		.cfi_endproc
 1046              	.LFE1432:
 1047              		.size	_ZN8GuiFrame4hideEv, .-_ZN8GuiFrame4hideEv
 1048              		.section	.text._ZN8GuiFrame4execEv,"axG",@progbits,_ZN8GuiFrame4execEv,comdat
 1049              		.align 2
 1050              		.weak	_ZN8GuiFrame4execEv
 1051              		.type	_ZN8GuiFrame4execEv, @function
 1052              	_ZN8GuiFrame4execEv:
 1053              	.LFB1433:
 1054              		.loc 3 83 0
 1055              		.cfi_startproc
 1056              	.LVL84:
 1057              		.loc 3 83 0
 1058 0000 4E800020 		blr
 1059              		.cfi_endproc
 1060              	.LFE1433:
 1061              		.size	_ZN8GuiFrame4execEv, .-_ZN8GuiFrame4execEv
 1062              		.section	.text._ZN8GuiFrame12updateEventsEv,"axG",@progbits,_ZN8GuiFrame12updateEventsEv,comdat
 1063              		.align 2
 1064              		.weak	_ZN8GuiFrame12updateEventsEv
 1065              		.type	_ZN8GuiFrame12updateEventsEv, @function
 1066              	_ZN8GuiFrame12updateEventsEv:
 1067              	.LFB1434:
 1068              		.loc 3 85 0
 1069              		.cfi_startproc
 1070              	.LVL85:
 1071              		.loc 3 85 0
 1072 0000 4E800020 		blr
 1073              		.cfi_endproc
 1074              	.LFE1434:
 1075              		.size	_ZN8GuiFrame12updateEventsEv, .-_ZN8GuiFrame12updateEventsEv
 1076              		.section	.text._ZN7sigslot12_signal_baseINS_15single_threadedEED2Ev,"axG",@progbits,_ZN7sigslot12_
 1077              		.align 2
 1078              		.weak	_ZN7sigslot12_signal_baseINS_15single_threadedEED2Ev
 1079              		.type	_ZN7sigslot12_signal_baseINS_15single_threadedEED2Ev, @function
 1080              	_ZN7sigslot12_signal_baseINS_15single_threadedEED2Ev:
 1081              	.LFB1655:
 1082              		.loc 1 466 0
 1083              		.cfi_startproc
 1084              	.LVL86:
 1085              	.LBB2296:
 1086              	.LBB2297:
 1087              	.LBB2298:
 1088              	.LBB2299:
 1089              		.loc 1 105 0
 1090 0000 3D200000 		lis 9,_ZTVN7sigslot15single_threadedE+8@ha
 1091              	.LBE2299:
 1092              	.LBE2298:
 1093              	.LBE2297:
 1094              	.LBE2296:
 1095              		.loc 1 466 0
 1096              	.LBB2303:
 1097              	.LBB2302:
 1098              	.LBB2301:
 1099              	.LBB2300:
 1100              		.loc 1 105 0
 1101 0004 38090008 		la 0,_ZTVN7sigslot15single_threadedE+8@l(9)
 1102 0008 90030000 		stw 0,0(3)
 1103              	.LBE2300:
 1104              	.LBE2301:
 1105              	.LBE2302:
 1106              	.LBE2303:
 1107              		.loc 1 466 0
 1108 000c 4E800020 		blr
 1109              		.cfi_endproc
 1110              	.LFE1655:
 1111              		.size	_ZN7sigslot12_signal_baseINS_15single_threadedEED2Ev, .-_ZN7sigslot12_signal_baseINS_15singl
 1112              		.section	.text._ZN7sigslot17_connection_base3IP9GuiButtoniRK6_POINTNS_15single_threadedEED2Ev,"axG
 1113              		.align 2
 1114              		.weak	_ZN7sigslot17_connection_base3IP9GuiButtoniRK6_POINTNS_15single_threadedEED2Ev
 1115              		.type	_ZN7sigslot17_connection_base3IP9GuiButtoniRK6_POINTNS_15single_threadedEED2Ev, @function
 1116              	_ZN7sigslot17_connection_base3IP9GuiButtoniRK6_POINTNS_15single_threadedEED2Ev:
 1117              	.LFB1775:
 1118              		.loc 1 387 0
 1119              		.cfi_startproc
 1120              	.LVL87:
 1121              	.LBB2304:
 1122              		.loc 1 387 0
 1123 0000 3D200000 		lis 9,_ZTVN7sigslot17_connection_base3IP9GuiButtoniRK6_POINTNS_15single_threadedEEE+8@ha
 1124              	.LBE2304:
 1125              	.LBB2305:
 1126 0004 38090008 		la 0,_ZTVN7sigslot17_connection_base3IP9GuiButtoniRK6_POINTNS_15single_threadedEEE+8@l(9)
 1127 0008 90030000 		stw 0,0(3)
 1128              	.LBE2305:
 1129 000c 4E800020 		blr
 1130              		.cfi_endproc
 1131              	.LFE1775:
 1132              		.size	_ZN7sigslot17_connection_base3IP9GuiButtoniRK6_POINTNS_15single_threadedEED2Ev, .-_ZN7sigslo
 1133              		.section	.text._ZN7sigslot12_connection3I10DeviceMenuP9GuiButtoniRK6_POINTNS_15single_threadedEED2
 1134              		.align 2
 1135              		.weak	_ZN7sigslot12_connection3I10DeviceMenuP9GuiButtoniRK6_POINTNS_15single_threadedEED2Ev
 1136              		.type	_ZN7sigslot12_connection3I10DeviceMenuP9GuiButtoniRK6_POINTNS_15single_threadedEED2Ev, @func
 1137              	_ZN7sigslot12_connection3I10DeviceMenuP9GuiButtoniRK6_POINTNS_15single_threadedEED2Ev:
 1138              	.LFB2053:
 1139              		.loc 1 1783 0
 1140              		.cfi_startproc
 1141              	.LVL88:
 1142              	.LBB2306:
 1143              	.LBB2307:
 1144              	.LBB2308:
 1145              	.LBB2309:
 1146              		.loc 1 387 0
 1147 0000 3D200000 		lis 9,_ZTVN7sigslot17_connection_base3IP9GuiButtoniRK6_POINTNS_15single_threadedEEE+8@ha
 1148              	.LBE2309:
 1149              	.LBE2308:
 1150              	.LBE2307:
 1151              	.LBE2306:
 1152              		.loc 1 1786 0
 1153              	.LBB2313:
 1154              	.LBB2312:
 1155              	.LBB2311:
 1156              	.LBB2310:
 1157              		.loc 1 387 0
 1158 0004 38090008 		la 0,_ZTVN7sigslot17_connection_base3IP9GuiButtoniRK6_POINTNS_15single_threadedEEE+8@l(9)
 1159 0008 90030000 		stw 0,0(3)
 1160              	.LBE2310:
 1161              	.LBE2311:
 1162              	.LBE2312:
 1163              	.LBE2313:
 1164              		.loc 1 1786 0
 1165 000c 4E800020 		blr
 1166              		.cfi_endproc
 1167              	.LFE2053:
 1168              		.size	_ZN7sigslot12_connection3I10DeviceMenuP9GuiButtoniRK6_POINTNS_15single_threadedEED2Ev, .-_ZN
 1169              		.section	.text._ZNK7sigslot12_connection3I10DeviceMenuP9GuiButtoniRK6_POINTNS_15single_threadedEE7
 1170              		.align 2
 1171              		.weak	_ZNK7sigslot12_connection3I10DeviceMenuP9GuiButtoniRK6_POINTNS_15single_threadedEE7getdestEv
 1172              		.type	_ZNK7sigslot12_connection3I10DeviceMenuP9GuiButtoniRK6_POINTNS_15single_threadedEE7getdestEv
 1173              	_ZNK7sigslot12_connection3I10DeviceMenuP9GuiButtoniRK6_POINTNS_15single_threadedEE7getdestEv:
 1174              	.LFB2056:
 1175              		.loc 1 1804 0
 1176              		.cfi_startproc
 1177              	.LVL89:
 1178              		.loc 1 1806 0
 1179 0000 81230004 		lwz 9,4(3)
 1180 0004 38600000 		li 3,0
 1181              	.LVL90:
 1182 0008 2F890000 		cmpwi 7,9,0
 1183 000c 4D9E0020 		beqlr- 7
 1184              		.loc 1 1806 0 is_stmt 0 discriminator 1
 1185 0010 386900B0 		addi 3,9,176
 1186              		.loc 1 1807 0 is_stmt 1 discriminator 1
 1187 0014 4E800020 		blr
 1188              		.cfi_endproc
 1189              	.LFE2056:
 1190              		.size	_ZNK7sigslot12_connection3I10DeviceMenuP9GuiButtoniRK6_POINTNS_15single_threadedEE7getdestEv
 1191              		.section	.text._ZN7sigslot12_connection3I10DeviceMenuP9GuiButtoniRK6_POINTNS_15single_threadedEE4e
 1192              		.align 2
 1193              		.weak	_ZN7sigslot12_connection3I10DeviceMenuP9GuiButtoniRK6_POINTNS_15single_threadedEE4emitES3_iS
 1194              		.type	_ZN7sigslot12_connection3I10DeviceMenuP9GuiButtoniRK6_POINTNS_15single_threadedEE4emitES3_iS
 1195              	_ZN7sigslot12_connection3I10DeviceMenuP9GuiButtoniRK6_POINTNS_15single_threadedEE4emitES3_iS6_:
 1196              	.LFB2057:
 1197              		.loc 1 1799 0
 1198              		.cfi_startproc
 1199              	.LVL91:
 1200 0000 7C0802A6 		mflr 0
 1201 0004 9421FFF8 		stwu 1,-8(1)
 1202              	.LCFI18:
 1203              		.cfi_def_cfa_offset 8
 1204              		.cfi_register 65, 0
 1205 0008 9001000C 		stw 0,12(1)
 1206              		.loc 1 1801 0
 1207 000c 80030008 		lwz 0,8(3)
 1208              		.cfi_offset 65, 4
 1209 0010 81630004 		lwz 11,4(3)
 1210 0014 70090001 		andi. 9,0,1
 1211 0018 8123000C 		lwz 9,12(3)
 1212 001c 40820020 		bne- 0,.L79
 1213 0020 7C0903A6 		mtctr 0
 1214 0024 7C6B4A14 		add 3,11,9
 1215              	.LVL92:
 1216 0028 4E800421 		bctrl
 1217              	.LVL93:
 1218              		.loc 1 1802 0
 1219 002c 8001000C 		lwz 0,12(1)
 1220 0030 38210008 		addi 1,1,8
 1221              		.cfi_remember_state
 1222              	.LCFI19:
 1223              		.cfi_def_cfa_offset 0
 1224 0034 7C0803A6 		mtlr 0
 1225 0038 4E800020 		blr
 1226              	.LVL94:
 1227              	.L79:
 1228              	.LCFI20:
 1229              		.cfi_restore_state
 1230              		.loc 1 1801 0 discriminator 1
 1231 003c 7D4B482E 		lwzx 10,11,9
 1232 0040 7C6B4A14 		add 3,11,9
 1233              	.LVL95:
 1234 0044 7D2A0214 		add 9,10,0
 1235 0048 8009FFFF 		lwz 0,-1(9)
 1236 004c 7C0903A6 		mtctr 0
 1237 0050 4E800421 		bctrl
 1238              	.LVL96:
 1239              		.loc 1 1802 0 discriminator 1
 1240 0054 8001000C 		lwz 0,12(1)
 1241 0058 38210008 		addi 1,1,8
 1242              	.LCFI21:
 1243              		.cfi_def_cfa_offset 0
 1244 005c 7C0803A6 		mtlr 0
 1245 0060 4E800020 		blr
 1246              		.cfi_endproc
 1247              	.LFE2057:
 1248              		.size	_ZN7sigslot12_connection3I10DeviceMenuP9GuiButtoniRK6_POINTNS_15single_threadedEE4emitES3_iS
 1249              		.section	.text._ZN7sigslot12_connection3I10DeviceMenuP9GuiButtoniRK6_POINTNS_15single_threadedEE9d
 1250              		.align 2
 1251              		.weak	_ZN7sigslot12_connection3I10DeviceMenuP9GuiButtoniRK6_POINTNS_15single_threadedEE9duplicateE
 1252              		.type	_ZN7sigslot12_connection3I10DeviceMenuP9GuiButtoniRK6_POINTNS_15single_threadedEE9duplicateE
 1253              	_ZN7sigslot12_connection3I10DeviceMenuP9GuiButtoniRK6_POINTNS_15single_threadedEE9duplicateEPNS_9ha
 1254              	.LFB2065:
 1255              		.loc 1 1794 0
 1256              		.cfi_startproc
 1257              	.LVL97:
 1258 0000 9421FFF0 		stwu 1,-16(1)
 1259              	.LCFI22:
 1260              		.cfi_def_cfa_offset 16
 1261 0004 7C0802A6 		mflr 0
 1262 0008 93C10008 		stw 30,8(1)
 1263 000c 7C9E2378 		mr 30,4
 1264              		.cfi_offset 30, -8
 1265              		.cfi_register 65, 0
 1266 0010 93E1000C 		stw 31,12(1)
 1267 0014 7C7F1B78 		mr 31,3
 1268              		.cfi_offset 31, -4
 1269              		.loc 1 1796 0
 1270 0018 38600010 		li 3,16
 1271              	.LVL98:
 1272              		.loc 1 1794 0
 1273 001c 90010014 		stw 0,20(1)
 1274              		.loc 1 1796 0
 1275              		.cfi_offset 65, 4
 1276 0020 48000001 		bl _Znwj
 1277              	.LVL99:
 1278 0024 2F9E0000 		cmpwi 7,30,0
 1279 0028 38000000 		li 0,0
 1280 002c 419E0008 		beq- 7,.L82
 1281              		.loc 1 1796 0 is_stmt 0 discriminator 1
 1282 0030 381EFF50 		addi 0,30,-176
 1283              	.L82:
 1284              	.LVL100:
 1285              		.loc 1 1796 0 discriminator 3
 1286 0034 817F0008 		lwz 11,8(31)
 1287              	.LVL101:
 1288              	.LBB2314:
 1289              	.LBB2315:
 1290              		.loc 1 1778 0 is_stmt 1 discriminator 3
 1291 0038 3D400000 		lis 10,_ZTVN7sigslot12_connection3I10DeviceMenuP9GuiButtoniRK6_POINTNS_15single_threadedEEE+8@ha
 1292              	.LBE2315:
 1293              	.LBE2314:
 1294              		.loc 1 1796 0 discriminator 3
 1295 003c 813F000C 		lwz 9,12(31)
 1296              	.LVL102:
 1297              	.LBB2318:
 1298              	.LBB2316:
 1299              		.loc 1 1778 0 discriminator 3
 1300 0040 394A0008 		la 10,_ZTVN7sigslot12_connection3I10DeviceMenuP9GuiButtoniRK6_POINTNS_15single_threadedEEE+8@l(10)
 1301              		.loc 1 1780 0 discriminator 3
 1302 0044 91630008 		stw 11,8(3)
 1303 0048 9123000C 		stw 9,12(3)
 1304              		.loc 1 1779 0 discriminator 3
 1305 004c 90030004 		stw 0,4(3)
 1306              	.LBE2316:
 1307              	.LBE2318:
 1308              		.loc 1 1797 0 discriminator 3
 1309 0050 80010014 		lwz 0,20(1)
 1310              	.LVL103:
 1311 0054 83C10008 		lwz 30,8(1)
 1312              	.LVL104:
 1313 0058 7C0803A6 		mtlr 0
 1314 005c 83E1000C 		lwz 31,12(1)
 1315              	.LVL105:
 1316              	.LBB2319:
 1317              	.LBB2317:
 1318              		.loc 1 1778 0 discriminator 3
 1319 0060 91430000 		stw 10,0(3)
 1320              	.LBE2317:
 1321              	.LBE2319:
 1322              		.loc 1 1797 0 discriminator 3
 1323 0064 38210010 		addi 1,1,16
 1324              	.LCFI23:
 1325              		.cfi_def_cfa_offset 0
 1326              		.cfi_restore 31
 1327              		.cfi_restore 30
 1328 0068 4E800020 		blr
 1329              		.cfi_endproc
 1330              	.LFE2065:
 1331              		.size	_ZN7sigslot12_connection3I10DeviceMenuP9GuiButtoniRK6_POINTNS_15single_threadedEE9duplicateE
 1332              		.section	.text._ZN7sigslot12_connection3I10DeviceMenuP9GuiButtoniRK6_POINTNS_15single_threadedEE5c
 1333              		.align 2
 1334              		.weak	_ZN7sigslot12_connection3I10DeviceMenuP9GuiButtoniRK6_POINTNS_15single_threadedEE5cloneEv
 1335              		.type	_ZN7sigslot12_connection3I10DeviceMenuP9GuiButtoniRK6_POINTNS_15single_threadedEE5cloneEv, @
 1336              	_ZN7sigslot12_connection3I10DeviceMenuP9GuiButtoniRK6_POINTNS_15single_threadedEE5cloneEv:
 1337              	.LFB2058:
 1338              		.loc 1 1789 0
 1339              		.cfi_startproc
 1340              	.LVL106:
 1341 0000 9421FFF0 		stwu 1,-16(1)
 1342              	.LCFI24:
 1343              		.cfi_def_cfa_offset 16
 1344 0004 7C0802A6 		mflr 0
 1345 0008 93E1000C 		stw 31,12(1)
 1346 000c 7C7F1B78 		mr 31,3
 1347              		.cfi_offset 31, -4
 1348              		.cfi_register 65, 0
 1349              		.loc 1 1791 0
 1350 0010 38600010 		li 3,16
 1351              	.LVL107:
 1352              		.loc 1 1789 0
 1353 0014 90010014 		stw 0,20(1)
 1354              		.loc 1 1791 0
 1355              		.cfi_offset 65, 4
 1356 0018 48000001 		bl _Znwj
 1357              		.file 4 "d:/Projects/SaveGameManager/savegame-manager-gx/trunk/source/Prompts/DeviceMenu.cpp"
 1358              		.loc 4 354 0
 1359 001c 801F0004 		lwz 0,4(31)
 1360              	.LVL108:
 1361              	.LBB2320:
 1362              	.LBB2321:
 1363              		.loc 1 1767 0
 1364 0020 3D600000 		lis 11,_ZTVN7sigslot12_connection3I10DeviceMenuP9GuiButtoniRK6_POINTNS_15single_threadedEEE+8@ha
 1365 0024 396B0008 		la 11,_ZTVN7sigslot12_connection3I10DeviceMenuP9GuiButtoniRK6_POINTNS_15single_threadedEEE+8@l(11)
 1366 0028 90030004 		stw 0,4(3)
 1367 002c 91630000 		stw 11,0(3)
 1368 0030 815F0008 		lwz 10,8(31)
 1369 0034 817F000C 		lwz 11,12(31)
 1370 0038 91430008 		stw 10,8(3)
 1371 003c 9163000C 		stw 11,12(3)
 1372              	.LBE2321:
 1373              	.LBE2320:
 1374              		.loc 1 1792 0
 1375 0040 80010014 		lwz 0,20(1)
 1376 0044 83E1000C 		lwz 31,12(1)
 1377              	.LVL109:
 1378 0048 7C0803A6 		mtlr 0
 1379 004c 38210010 		addi 1,1,16
 1380              	.LCFI25:
 1381              		.cfi_def_cfa_offset 0
 1382              		.cfi_restore 31
 1383 0050 4E800020 		blr
 1384              		.cfi_endproc
 1385              	.LFE2058:
 1386              		.size	_ZN7sigslot12_connection3I10DeviceMenuP9GuiButtoniRK6_POINTNS_15single_threadedEE5cloneEv, .
 1387              		.section	.text._ZN7sigslot13_signal_base2IP10DeviceMenuiNS_15single_threadedEE14slot_duplicateEPKN
 1388              		.align 2
 1389              		.weak	_ZN7sigslot13_signal_base2IP10DeviceMenuiNS_15single_threadedEE14slot_duplicateEPKNS_9has_sl
 1390              		.type	_ZN7sigslot13_signal_base2IP10DeviceMenuiNS_15single_threadedEE14slot_duplicateEPKNS_9has_sl
 1391              	_ZN7sigslot13_signal_base2IP10DeviceMenuiNS_15single_threadedEE14slot_duplicateEPKNS_9has_slotsIS3_
 1392              	.LFB2067:
 1393              		.loc 1 806 0
 1394              		.cfi_startproc
 1395              		.cfi_personality 0,__gxx_personality_v0
 1396              		.cfi_lsda 0,.LLSDA2067
 1397              	.LVL110:
 1398 0000 7C0802A6 		mflr 0
 1399 0004 9421FFE0 		stwu 1,-32(1)
 1400              	.LCFI26:
 1401              		.cfi_def_cfa_offset 32
 1402              		.cfi_register 65, 0
 1403 0008 93410008 		stw 26,8(1)
 1404 000c 7CBA2B78 		mr 26,5
 1405              		.cfi_offset 26, -24
 1406 0010 90010024 		stw 0,36(1)
 1407 0014 9361000C 		stw 27,12(1)
 1408 0018 7C7B1B78 		mr 27,3
 1409              		.cfi_offset 27, -20
 1410              		.cfi_offset 65, 4
 1411              	.LVL111:
 1412              	.LBB2322:
 1413              	.LBB2323:
 1414              	.LBB2324:
 1415              		.loc 1 338 0
 1416 001c 81230000 		lwz 9,0(3)
 1417              	.LBE2324:
 1418              	.LBE2323:
 1419              	.LBE2322:
 1420              		.loc 1 806 0
 1421 0020 93A10014 		stw 29,20(1)
 1422 0024 7C9D2378 		mr 29,4
 1423              		.cfi_offset 29, -12
 1424              	.LBB2353:
 1425              	.LBB2329:
 1426              	.LBB2325:
 1427              		.loc 1 338 0
 1428 0028 80090008 		lwz 0,8(9)
 1429              	.LBE2325:
 1430              	.LBE2329:
 1431              	.LBE2353:
 1432              		.loc 1 806 0
 1433 002c 93C10018 		stw 30,24(1)
 1434              	.LBB2354:
 1435              	.LBB2330:
 1436              	.LBB2326:
 1437              		.loc 4 354 0
 1438 0030 7F7EDB78 		mr 30,27
 1439              		.cfi_offset 30, -8
 1440              	.LBE2326:
 1441              	.LBE2330:
 1442              	.LBE2354:
 1443              		.loc 1 806 0
 1444 0034 93E1001C 		stw 31,28(1)
 1445              	.LBB2355:
 1446              	.LBB2331:
 1447              	.LBB2327:
 1448              		.loc 1 338 0
 1449 0038 7C0903A6 		mtctr 0
 1450              	.LBE2327:
 1451              	.LBE2331:
 1452              	.LBE2355:
 1453              		.loc 1 806 0
 1454 003c 93810010 		stw 28,16(1)
 1455              	.LEHB0:
 1456              	.LBB2356:
 1457              	.LBB2332:
 1458              	.LBB2328:
 1459              		.loc 1 338 0
 1460              		.cfi_offset 28, -16
 1461              		.cfi_offset 31, -4
 1462 0040 4E800421 		bctrl
 1463              	.LEHE0:
 1464              	.LVL112:
 1465              		.loc 4 354 0
 1466 0044 87FE0004 		lwzu 31,4(30)
 1467              	.LVL113:
 1468              	.LBE2328:
 1469              	.LBE2332:
 1470              		.loc 1 812 0
 1471 0048 7F9FF000 		cmpw 7,31,30
 1472 004c 40BE0014 		bne+ 7,.L95
 1473 0050 48000070 		b .L86
 1474              	.LVL114:
 1475              	.L87:
 1476              	.LBB2333:
 1477              	.LBB2334:
 1478              		.file 5 "d:\\devkitpro\\devkitppc\\bin\\../lib/gcc/powerpc-eabi/4.6.3/../../../../powerpc-eabi/inc
 1479              		.loc 5 154 0
 1480 0054 83FF0000 		lwz 31,0(31)
 1481              	.LVL115:
 1482              	.LBE2334:
 1483              	.LBE2333:
 1484              		.loc 1 812 0
 1485 0058 7F9EF800 		cmpw 7,30,31
 1486 005c 419E0064 		beq- 7,.L86
 1487              	.LVL116:
 1488              	.L95:
 1489              		.loc 1 814 0
 1490 0060 807F0008 		lwz 3,8(31)
 1491 0064 81230000 		lwz 9,0(3)
 1492 0068 80090008 		lwz 0,8(9)
 1493 006c 7C0903A6 		mtctr 0
 1494              	.LEHB1:
 1495 0070 4E800421 		bctrl
 1496 0074 7F9D1800 		cmpw 7,29,3
 1497 0078 409EFFDC 		bne+ 7,.L87
 1498              	.LVL117:
 1499              		.loc 1 816 0
 1500 007c 807F0008 		lwz 3,8(31)
 1501 0080 7F44D378 		mr 4,26
 1502 0084 81230000 		lwz 9,0(3)
 1503 0088 80090014 		lwz 0,20(9)
 1504 008c 7C0903A6 		mtctr 0
 1505 0090 4E800421 		bctrl
 1506 0094 7C7C1B78 		mr 28,3
 1507              	.LVL118:
 1508              	.LBB2336:
 1509              	.LBB2337:
 1510              	.LBB2338:
 1511              	.LBB2339:
 1512              	.LBB2340:
 1513              	.LBB2341:
 1514              	.LBB2342:
 1515              	.LBB2343:
 1516              		.file 6 "d:\\devkitpro\\devkitppc\\bin\\../lib/gcc/powerpc-eabi/4.6.3/../../../../powerpc-eabi/inc
 1517              		.loc 6 92 0
 1518 0098 3860000C 		li 3,12
 1519 009c 48000001 		bl _Znwj
 1520              	.LEHE1:
 1521              	.LVL119:
 1522              	.LBE2343:
 1523              	.LBE2342:
 1524              	.LBE2341:
 1525              	.LBB2344:
 1526              	.LBB2345:
 1527              		.loc 6 108 0 discriminator 1
 1528 00a0 2F83FFF8 		cmpwi 7,3,-8
 1529 00a4 419E0008 		beq- 7,.L89
 1530              		.loc 6 108 0 is_stmt 0
 1531 00a8 93830008 		stw 28,8(3)
 1532              	.L89:
 1533              	.LVL120:
 1534              	.LBE2345:
 1535              	.LBE2344:
 1536              	.LBE2340:
 1537              	.LBE2339:
 1538              		.loc 5 1516 0 is_stmt 1
 1539 00ac 7FC4F378 		mr 4,30
 1540 00b0 48000001 		bl _ZNSt8__detail15_List_node_base7_M_hookEPS0_
 1541              	.LVL121:
 1542              	.LBE2338:
 1543              	.LBE2337:
 1544              	.LBE2336:
 1545              	.LBB2346:
 1546              	.LBB2335:
 1547              		.loc 5 154 0
 1548 00b4 83FF0000 		lwz 31,0(31)
 1549              	.LVL122:
 1550              	.LBE2335:
 1551              	.LBE2346:
 1552              		.loc 1 812 0
 1553 00b8 7F9EF800 		cmpw 7,30,31
 1554 00bc 409EFFA4 		bne+ 7,.L95
 1555              	.LVL123:
 1556              	.L86:
 1557              	.LBB2347:
 1558              	.LBB2348:
 1559              	.LBB2349:
 1560              		.loc 1 343 0
 1561 00c0 813B0000 		lwz 9,0(27)
 1562 00c4 7F63DB78 		mr 3,27
 1563 00c8 8009000C 		lwz 0,12(9)
 1564 00cc 7C0903A6 		mtctr 0
 1565              	.LEHB2:
 1566 00d0 4E800421 		bctrl
 1567              	.LEHE2:
 1568              	.LBE2349:
 1569              	.LBE2348:
 1570              	.LBE2347:
 1571              	.LBE2356:
 1572              		.loc 1 821 0
 1573 00d4 80010024 		lwz 0,36(1)
 1574 00d8 83410008 		lwz 26,8(1)
 1575              	.LVL124:
 1576 00dc 7C0803A6 		mtlr 0
 1577 00e0 8361000C 		lwz 27,12(1)
 1578              	.LVL125:
 1579 00e4 83810010 		lwz 28,16(1)
 1580 00e8 83A10014 		lwz 29,20(1)
 1581              	.LVL126:
 1582 00ec 83C10018 		lwz 30,24(1)
 1583              	.LVL127:
 1584 00f0 83E1001C 		lwz 31,28(1)
 1585              	.LVL128:
 1586 00f4 38210020 		addi 1,1,32
 1587              		.cfi_remember_state
 1588              	.LCFI27:
 1589              		.cfi_def_cfa_offset 0
 1590              		.cfi_restore 31
 1591              		.cfi_restore 30
 1592              		.cfi_restore 29
 1593              		.cfi_restore 28
 1594              		.cfi_restore 27
 1595              		.cfi_restore 26
 1596 00f8 4E800020 		blr
 1597              	.LVL129:
 1598              	.L94:
 1599              	.LCFI28:
 1600              		.cfi_restore_state
 1601              	.LBB2357:
 1602              	.LBB2350:
 1603              	.LBB2351:
 1604              	.LBB2352:
 1605              		.loc 1 343 0
 1606 00fc 813B0000 		lwz 9,0(27)
 1607 0100 7C7F1B78 		mr 31,3
 1608              	.LVL130:
 1609 0104 7F63DB78 		mr 3,27
 1610 0108 8009000C 		lwz 0,12(9)
 1611 010c 7C0903A6 		mtctr 0
 1612 0110 4E800421 		bctrl
 1613 0114 7FE3FB78 		mr 3,31
 1614              	.LEHB3:
 1615 0118 48000001 		bl _Unwind_Resume
 1616              	.LEHE3:
 1617              	.LBE2352:
 1618              	.LBE2351:
 1619              	.LBE2350:
 1620              	.LBE2357:
 1621              		.cfi_endproc
 1622              	.LFE2067:
 1623              		.globl __gxx_personality_v0
 1624              		.section	.gcc_except_table,"a",@progbits
 1625              	.LLSDA2067:
 1626 0000 FF       		.byte	0xff
 1627 0001 FF       		.byte	0xff
 1628 0002 01       		.byte	0x1
 1629 0003 13       		.uleb128 .LLSDACSE2067-.LLSDACSB2067
 1630              	.LLSDACSB2067:
 1631 0004 40       		.uleb128 .LEHB0-.LFB2067
 1632 0005 04       		.uleb128 .LEHE0-.LEHB0
 1633 0006 00       		.uleb128 0
 1634 0007 00       		.uleb128 0
 1635 0008 70       		.uleb128 .LEHB1-.LFB2067
 1636 0009 30       		.uleb128 .LEHE1-.LEHB1
 1637 000a FC01     		.uleb128 .L94-.LFB2067
 1638 000c 00       		.uleb128 0
 1639 000d D001     		.uleb128 .LEHB2-.LFB2067
 1640 000f 04       		.uleb128 .LEHE2-.LEHB2
 1641 0010 00       		.uleb128 0
 1642 0011 00       		.uleb128 0
 1643 0012 9802     		.uleb128 .LEHB3-.LFB2067
 1644 0014 04       		.uleb128 .LEHE3-.LEHB3
 1645 0015 00       		.uleb128 0
 1646 0016 00       		.uleb128 0
 1647              	.LLSDACSE2067:
 1648              		.section	.text._ZN7sigslot13_signal_base2IP10DeviceMenuiNS_15single_threadedEE14slot_duplicateEPKN
 1649              		.size	_ZN7sigslot13_signal_base2IP10DeviceMenuiNS_15single_threadedEE14slot_duplicateEPKNS_9has_sl
 1650              		.section	.text._ZN7sigslot12_connection3I10DeviceMenuP9GuiButtoniRK6_POINTNS_15single_threadedEED0
 1651              		.align 2
 1652              		.weak	_ZN7sigslot12_connection3I10DeviceMenuP9GuiButtoniRK6_POINTNS_15single_threadedEED0Ev
 1653              		.type	_ZN7sigslot12_connection3I10DeviceMenuP9GuiButtoniRK6_POINTNS_15single_threadedEED0Ev, @func
 1654              	_ZN7sigslot12_connection3I10DeviceMenuP9GuiButtoniRK6_POINTNS_15single_threadedEED0Ev:
 1655              	.LFB2055:
 1656              		.loc 1 1783 0
 1657              		.cfi_startproc
 1658              	.LVL131:
 1659 0000 7C0802A6 		mflr 0
 1660 0004 9421FFF8 		stwu 1,-8(1)
 1661              	.LCFI29:
 1662              		.cfi_def_cfa_offset 8
 1663              		.cfi_register 65, 0
 1664              	.LBB2358:
 1665              	.LBB2359:
 1666              	.LBB2360:
 1667              	.LBB2361:
 1668              	.LBB2362:
 1669              	.LBB2363:
 1670              		.loc 1 387 0
 1671 0008 3D200000 		lis 9,_ZTVN7sigslot17_connection_base3IP9GuiButtoniRK6_POINTNS_15single_threadedEEE+8@ha
 1672              	.LBE2363:
 1673              	.LBE2362:
 1674              	.LBE2361:
 1675              	.LBE2360:
 1676              	.LBE2359:
 1677              	.LBE2358:
 1678              		.loc 1 1783 0
 1679 000c 9001000C 		stw 0,12(1)
 1680              	.LBB2369:
 1681              	.LBB2368:
 1682              	.LBB2367:
 1683              	.LBB2366:
 1684              	.LBB2365:
 1685              	.LBB2364:
 1686              		.loc 1 387 0
 1687 0010 38090008 		la 0,_ZTVN7sigslot17_connection_base3IP9GuiButtoniRK6_POINTNS_15single_threadedEEE+8@l(9)
 1688              		.cfi_offset 65, 4
 1689 0014 90030000 		stw 0,0(3)
 1690              	.LBE2364:
 1691              	.LBE2365:
 1692              	.LBE2366:
 1693              	.LBE2367:
 1694              	.LBE2368:
 1695              	.LBE2369:
 1696              		.loc 1 1786 0
 1697 0018 48000001 		bl _ZdlPv
 1698              	.LVL132:
 1699 001c 8001000C 		lwz 0,12(1)
 1700 0020 38210008 		addi 1,1,8
 1701              	.LCFI30:
 1702              		.cfi_def_cfa_offset 0
 1703 0024 7C0803A6 		mtlr 0
 1704 0028 4E800020 		blr
 1705              		.cfi_endproc
 1706              	.LFE2055:
 1707              		.size	_ZN7sigslot12_connection3I10DeviceMenuP9GuiButtoniRK6_POINTNS_15single_threadedEED0Ev, .-_ZN
 1708              		.section	.text._ZN7sigslot17_connection_base3IP9GuiButtoniRK6_POINTNS_15single_threadedEED0Ev,"axG
 1709              		.align 2
 1710              		.weak	_ZN7sigslot17_connection_base3IP9GuiButtoniRK6_POINTNS_15single_threadedEED0Ev
 1711              		.type	_ZN7sigslot17_connection_base3IP9GuiButtoniRK6_POINTNS_15single_threadedEED0Ev, @function
 1712              	_ZN7sigslot17_connection_base3IP9GuiButtoniRK6_POINTNS_15single_threadedEED0Ev:
 1713              	.LFB1777:
 1714              		.loc 1 387 0
 1715              		.cfi_startproc
 1716              	.LVL133:
 1717 0000 7C0802A6 		mflr 0
 1718 0004 9421FFF8 		stwu 1,-8(1)
 1719              	.LCFI31:
 1720              		.cfi_def_cfa_offset 8
 1721              		.cfi_register 65, 0
 1722              	.LBB2370:
 1723              	.LBB2371:
 1724              	.LBB2372:
 1725 0008 3D200000 		lis 9,_ZTVN7sigslot17_connection_base3IP9GuiButtoniRK6_POINTNS_15single_threadedEEE+8@ha
 1726              	.LBE2372:
 1727              	.LBE2371:
 1728              	.LBE2370:
 1729 000c 9001000C 		stw 0,12(1)
 1730              	.LBB2375:
 1731              	.LBB2374:
 1732              	.LBB2373:
 1733              		.loc 1 387 0
 1734 0010 38090008 		la 0,_ZTVN7sigslot17_connection_base3IP9GuiButtoniRK6_POINTNS_15single_threadedEEE+8@l(9)
 1735              		.cfi_offset 65, 4
 1736 0014 90030000 		stw 0,0(3)
 1737              	.LBE2373:
 1738              	.LBE2374:
 1739              	.LBE2375:
 1740 0018 48000001 		bl _ZdlPv
 1741              	.LVL134:
 1742 001c 8001000C 		lwz 0,12(1)
 1743 0020 38210008 		addi 1,1,8
 1744              	.LCFI32:
 1745              		.cfi_def_cfa_offset 0
 1746 0024 7C0803A6 		mtlr 0
 1747 0028 4E800020 		blr
 1748              		.cfi_endproc
 1749              	.LFE1777:
 1750              		.size	_ZN7sigslot17_connection_base3IP9GuiButtoniRK6_POINTNS_15single_threadedEED0Ev, .-_ZN7sigslo
 1751              		.section	.text._ZN7sigslot12_signal_baseINS_15single_threadedEED0Ev,"axG",@progbits,_ZN7sigslot12_
 1752              		.align 2
 1753              		.weak	_ZN7sigslot12_signal_baseINS_15single_threadedEED0Ev
 1754              		.type	_ZN7sigslot12_signal_baseINS_15single_threadedEED0Ev, @function
 1755              	_ZN7sigslot12_signal_baseINS_15single_threadedEED0Ev:
 1756              	.LFB1657:
 1757              		.loc 1 466 0
 1758              		.cfi_startproc
 1759              	.LVL135:
 1760 0000 7C0802A6 		mflr 0
 1761 0004 9421FFF8 		stwu 1,-8(1)
 1762              	.LCFI33:
 1763              		.cfi_def_cfa_offset 8
 1764              		.cfi_register 65, 0
 1765              	.LBB2376:
 1766              	.LBB2377:
 1767              	.LBB2378:
 1768              	.LBB2379:
 1769              	.LBB2380:
 1770              	.LBB2381:
 1771              		.loc 1 105 0
 1772 0008 3D200000 		lis 9,_ZTVN7sigslot15single_threadedE+8@ha
 1773              	.LBE2381:
 1774              	.LBE2380:
 1775              	.LBE2379:
 1776              	.LBE2378:
 1777              	.LBE2377:
 1778              	.LBE2376:
 1779              		.loc 1 466 0
 1780 000c 9001000C 		stw 0,12(1)
 1781              	.LBB2387:
 1782              	.LBB2386:
 1783              	.LBB2385:
 1784              	.LBB2384:
 1785              	.LBB2383:
 1786              	.LBB2382:
 1787              		.loc 1 105 0
 1788 0010 38090008 		la 0,_ZTVN7sigslot15single_threadedE+8@l(9)
 1789              		.cfi_offset 65, 4
 1790 0014 90030000 		stw 0,0(3)
 1791              	.LBE2382:
 1792              	.LBE2383:
 1793              	.LBE2384:
 1794              	.LBE2385:
 1795              	.LBE2386:
 1796              	.LBE2387:
 1797              		.loc 1 466 0
 1798 0018 48000001 		bl _ZdlPv
 1799              	.LVL136:
 1800 001c 8001000C 		lwz 0,12(1)
 1801 0020 38210008 		addi 1,1,8
 1802              	.LCFI34:
 1803              		.cfi_def_cfa_offset 0
 1804 0024 7C0803A6 		mtlr 0
 1805 0028 4E800020 		blr
 1806              		.cfi_endproc
 1807              	.LFE1657:
 1808              		.size	_ZN7sigslot12_signal_baseINS_15single_threadedEED0Ev, .-_ZN7sigslot12_signal_baseINS_15singl
 1809              		.section	.text._ZN7sigslot15single_threadedD0Ev,"axG",@progbits,_ZN7sigslot15single_threadedD5Ev,c
 1810              		.align 2
 1811              		.weak	_ZN7sigslot15single_threadedD0Ev
 1812              		.type	_ZN7sigslot15single_threadedD0Ev, @function
 1813              	_ZN7sigslot15single_threadedD0Ev:
 1814              	.LFB1150:
 1815              		.loc 1 104 0
 1816              		.cfi_startproc
 1817              	.LVL137:
 1818 0000 7C0802A6 		mflr 0
 1819 0004 9421FFF8 		stwu 1,-8(1)
 1820              	.LCFI35:
 1821              		.cfi_def_cfa_offset 8
 1822              		.cfi_register 65, 0
 1823              	.LBB2388:
 1824              	.LBB2389:
 1825              	.LBB2390:
 1826              		.loc 1 105 0
 1827 0008 3D200000 		lis 9,_ZTVN7sigslot15single_threadedE+8@ha
 1828              	.LBE2390:
 1829              	.LBE2389:
 1830              	.LBE2388:
 1831              		.loc 1 104 0
 1832 000c 9001000C 		stw 0,12(1)
 1833              	.LBB2393:
 1834              	.LBB2392:
 1835              	.LBB2391:
 1836              		.loc 1 105 0
 1837 0010 38090008 		la 0,_ZTVN7sigslot15single_threadedE+8@l(9)
 1838              		.cfi_offset 65, 4
 1839 0014 90030000 		stw 0,0(3)
 1840              	.LBE2391:
 1841              	.LBE2392:
 1842              	.LBE2393:
 1843              		.loc 1 107 0
 1844 0018 48000001 		bl _ZdlPv
 1845              	.LVL138:
 1846 001c 8001000C 		lwz 0,12(1)
 1847 0020 38210008 		addi 1,1,8
 1848              	.LCFI36:
 1849              		.cfi_def_cfa_offset 0
 1850 0024 7C0803A6 		mtlr 0
 1851 0028 4E800020 		blr
 1852              		.cfi_endproc
 1853              	.LFE1150:
 1854              		.size	_ZN7sigslot15single_threadedD0Ev, .-_ZN7sigslot15single_threadedD0Ev
 1855              		.section	.text._ZN7sigslot13_signal_base2IP10DeviceMenuiNS_15single_threadedEE15slot_disconnectEPN
 1856              		.align 2
 1857              		.weak	_ZN7sigslot13_signal_base2IP10DeviceMenuiNS_15single_threadedEE15slot_disconnectEPNS_9has_sl
 1858              		.type	_ZN7sigslot13_signal_base2IP10DeviceMenuiNS_15single_threadedEE15slot_disconnectEPNS_9has_sl
 1859              	_ZN7sigslot13_signal_base2IP10DeviceMenuiNS_15single_threadedEE15slot_disconnectEPNS_9has_slotsIS3_
 1860              	.LFB2066:
 1861              		.loc 1 870 0
 1862              		.cfi_startproc
 1863              		.cfi_personality 0,__gxx_personality_v0
 1864              		.cfi_lsda 0,.LLSDA2066
 1865              	.LVL139:
 1866 0000 7C0802A6 		mflr 0
 1867 0004 9421FFE0 		stwu 1,-32(1)
 1868              	.LCFI37:
 1869              		.cfi_def_cfa_offset 32
 1870              		.cfi_register 65, 0
 1871 0008 9361000C 		stw 27,12(1)
 1872 000c 7C7B1B78 		mr 27,3
 1873              		.cfi_offset 27, -20
 1874              	.LVL140:
 1875 0010 90010024 		stw 0,36(1)
 1876 0014 93810010 		stw 28,16(1)
 1877 0018 7C9C2378 		mr 28,4
 1878              		.cfi_offset 28, -16
 1879              		.cfi_offset 65, 4
 1880              	.LBB2394:
 1881              	.LBB2395:
 1882              	.LBB2396:
 1883              		.loc 1 338 0
 1884 001c 81230000 		lwz 9,0(3)
 1885              	.LBE2396:
 1886              	.LBE2395:
 1887              	.LBE2394:
 1888              		.loc 1 870 0
 1889 0020 93A10014 		stw 29,20(1)
 1890              	.LBB2417:
 1891              	.LBB2399:
 1892              	.LBB2397:
 1893              		.loc 4 354 0
 1894 0024 7F7DDB78 		mr 29,27
 1895              		.cfi_offset 29, -12
 1896              		.loc 1 338 0
 1897 0028 80090008 		lwz 0,8(9)
 1898              	.LBE2397:
 1899              	.LBE2399:
 1900              	.LBE2417:
 1901              		.loc 1 870 0
 1902 002c 93E1001C 		stw 31,28(1)
 1903 0030 93C10018 		stw 30,24(1)
 1904              	.LBB2418:
 1905              	.LBB2400:
 1906              	.LBB2398:
 1907              		.loc 1 338 0
 1908 0034 7C0903A6 		mtctr 0
 1909              	.LEHB4:
 1910              		.cfi_offset 30, -8
 1911              		.cfi_offset 31, -4
 1912 0038 4E800421 		bctrl
 1913              	.LEHE4:
 1914              	.LVL141:
 1915              		.loc 4 354 0
 1916 003c 87FD0004 		lwzu 31,4(29)
 1917              	.LVL142:
 1918              	.LBE2398:
 1919              	.LBE2400:
 1920              		.loc 1 876 0
 1921 0040 7F9FE800 		cmpw 7,31,29
 1922 0044 40BE0014 		bne+ 7,.L123
 1923 0048 48000064 		b .L112
 1924              	.LVL143:
 1925              	.L113:
 1926              		.loc 1 876 0 is_stmt 0 discriminator 1
 1927 004c 7F9DF000 		cmpw 7,29,30
 1928 0050 419E005C 		beq- 7,.L112
 1929              	.L121:
 1930              		.loc 1 876 0
 1931 0054 7FDFF378 		mr 31,30
 1932              	.LVL144:
 1933              	.L123:
 1934              	.LBB2401:
 1935              		.loc 1 881 0 is_stmt 1
 1936 0058 807F0008 		lwz 3,8(31)
 1937              	.LBB2402:
 1938              	.LBB2403:
 1939              		.loc 5 154 0
 1940 005c 83DF0000 		lwz 30,0(31)
 1941              	.LVL145:
 1942              	.LBE2403:
 1943              	.LBE2402:
 1944              		.loc 1 881 0
 1945 0060 81230000 		lwz 9,0(3)
 1946 0064 80090008 		lwz 0,8(9)
 1947 0068 7C0903A6 		mtctr 0
 1948              	.LEHB5:
 1949 006c 4E800421 		bctrl
 1950              	.LVL146:
 1951 0070 7F9C1800 		cmpw 7,28,3
 1952 0074 409EFFD8 		bne+ 7,.L113
 1953              	.LVL147:
 1954              		.loc 1 883 0
 1955 0078 807F0008 		lwz 3,8(31)
 1956 007c 2F830000 		cmpwi 7,3,0
 1957 0080 419E0014 		beq- 7,.L114
 1958              		.loc 1 883 0 is_stmt 0 discriminator 1
 1959 0084 81230000 		lwz 9,0(3)
 1960 0088 80090004 		lwz 0,4(9)
 1961 008c 7C0903A6 		mtctr 0
 1962 0090 4E800421 		bctrl
 1963              	.LEHE5:
 1964              	.L114:
 1965              	.LVL148:
 1966              	.LBB2404:
 1967              	.LBB2405:
 1968              	.LBB2406:
 1969              	.LBB2407:
 1970              		.loc 5 1532 0 is_stmt 1
 1971 0094 7FE3FB78 		mr 3,31
 1972 0098 48000001 		bl _ZNSt8__detail15_List_node_base9_M_unhookEv
 1973              	.LVL149:
 1974              	.LBB2408:
 1975              	.LBB2409:
 1976              	.LBB2410:
 1977              		.loc 6 98 0
 1978 009c 7FE3FB78 		mr 3,31
 1979 00a0 48000001 		bl _ZdlPv
 1980              	.LVL150:
 1981              	.LBE2410:
 1982              	.LBE2409:
 1983              	.LBE2408:
 1984              	.LBE2407:
 1985              	.LBE2406:
 1986              	.LBE2405:
 1987              	.LBE2404:
 1988              	.LBE2401:
 1989              		.loc 1 876 0
 1990 00a4 7F9DF000 		cmpw 7,29,30
 1991 00a8 409EFFAC 		bne+ 7,.L121
 1992              	.LVL151:
 1993              	.L112:
 1994              	.LBB2411:
 1995              	.LBB2412:
 1996              	.LBB2413:
 1997              		.loc 1 343 0
 1998 00ac 813B0000 		lwz 9,0(27)
 1999 00b0 7F63DB78 		mr 3,27
 2000 00b4 8009000C 		lwz 0,12(9)
 2001 00b8 7C0903A6 		mtctr 0
 2002              	.LEHB6:
 2003 00bc 4E800421 		bctrl
 2004              	.LEHE6:
 2005              	.LBE2413:
 2006              	.LBE2412:
 2007              	.LBE2411:
 2008              	.LBE2418:
 2009              		.loc 1 890 0
 2010 00c0 80010024 		lwz 0,36(1)
 2011 00c4 8361000C 		lwz 27,12(1)
 2012              	.LVL152:
 2013 00c8 7C0803A6 		mtlr 0
 2014 00cc 83810010 		lwz 28,16(1)
 2015              	.LVL153:
 2016 00d0 83A10014 		lwz 29,20(1)
 2017              	.LVL154:
 2018 00d4 83C10018 		lwz 30,24(1)
 2019 00d8 83E1001C 		lwz 31,28(1)
 2020 00dc 38210020 		addi 1,1,32
 2021              		.cfi_remember_state
 2022              	.LCFI38:
 2023              		.cfi_def_cfa_offset 0
 2024              		.cfi_restore 31
 2025              		.cfi_restore 30
 2026              		.cfi_restore 29
 2027              		.cfi_restore 28
 2028              		.cfi_restore 27
 2029 00e0 4E800020 		blr
 2030              	.LVL155:
 2031              	.L122:
 2032              	.LCFI39:
 2033              		.cfi_restore_state
 2034              	.LBB2419:
 2035              	.LBB2414:
 2036              	.LBB2415:
 2037              	.LBB2416:
 2038              		.loc 1 343 0
 2039 00e4 813B0000 		lwz 9,0(27)
 2040 00e8 7C7F1B78 		mr 31,3
 2041              	.LVL156:
 2042 00ec 7F63DB78 		mr 3,27
 2043 00f0 8009000C 		lwz 0,12(9)
 2044 00f4 7C0903A6 		mtctr 0
 2045 00f8 4E800421 		bctrl
 2046 00fc 7FE3FB78 		mr 3,31
 2047              	.LEHB7:
 2048 0100 48000001 		bl _Unwind_Resume
 2049              	.LEHE7:
 2050              	.LBE2416:
 2051              	.LBE2415:
 2052              	.LBE2414:
 2053              	.LBE2419:
 2054              		.cfi_endproc
 2055              	.LFE2066:
 2056              		.section	.gcc_except_table
 2057              	.LLSDA2066:
 2058 0017 FF       		.byte	0xff
 2059 0018 FF       		.byte	0xff
 2060 0019 01       		.byte	0x1
 2061 001a 13       		.uleb128 .LLSDACSE2066-.LLSDACSB2066
 2062              	.LLSDACSB2066:
 2063 001b 38       		.uleb128 .LEHB4-.LFB2066
 2064 001c 04       		.uleb128 .LEHE4-.LEHB4
 2065 001d 00       		.uleb128 0
 2066 001e 00       		.uleb128 0
 2067 001f 6C       		.uleb128 .LEHB5-.LFB2066
 2068 0020 28       		.uleb128 .LEHE5-.LEHB5
 2069 0021 E401     		.uleb128 .L122-.LFB2066
 2070 0023 00       		.uleb128 0
 2071 0024 BC01     		.uleb128 .LEHB6-.LFB2066
 2072 0026 04       		.uleb128 .LEHE6-.LEHB6
 2073 0027 00       		.uleb128 0
 2074 0028 00       		.uleb128 0
 2075 0029 8002     		.uleb128 .LEHB7-.LFB2066
 2076 002b 04       		.uleb128 .LEHE7-.LEHB7
 2077 002c 00       		.uleb128 0
 2078 002d 00       		.uleb128 0
 2079              	.LLSDACSE2066:
 2080              		.section	.text._ZN7sigslot13_signal_base2IP10DeviceMenuiNS_15single_threadedEE15slot_disconnectEPN
 2081              		.size	_ZN7sigslot13_signal_base2IP10DeviceMenuiNS_15single_threadedEE15slot_disconnectEPNS_9has_sl
 2082              		.section	.text._ZN16SimpleGuiTriggerD2Ev,"axG",@progbits,_ZN16SimpleGuiTriggerD5Ev,comdat
 2083              		.align 2
 2084              		.weak	_ZN16SimpleGuiTriggerD2Ev
 2085              		.type	_ZN16SimpleGuiTriggerD2Ev, @function
 2086              	_ZN16SimpleGuiTriggerD2Ev:
 2087              	.LFB1596:
 2088              		.file 7 "d:/Projects/SaveGameManager/savegame-manager-gx/trunk/source/Prompts/../GUI/gui_trigger.h
 2089              		.loc 7 91 0
 2090              		.cfi_startproc
 2091              	.LVL157:
 2092 0000 7C0802A6 		mflr 0
 2093 0004 9421FFF8 		stwu 1,-8(1)
 2094              	.LCFI40:
 2095              		.cfi_def_cfa_offset 8
 2096              		.cfi_register 65, 0
 2097              	.LBB2421:
 2098 0008 3D200000 		lis 9,_ZTV16SimpleGuiTrigger+8@ha
 2099              	.LBE2421:
 2100 000c 9001000C 		stw 0,12(1)
 2101              	.LBB2422:
 2102              		.loc 7 91 0
 2103 0010 38090008 		la 0,_ZTV16SimpleGuiTrigger+8@l(9)
 2104              		.cfi_offset 65, 4
 2105 0014 90030000 		stw 0,0(3)
 2106 0018 48000001 		bl _ZN10GuiTriggerD2Ev
 2107              	.LVL158:
 2108              	.LBE2422:
 2109 001c 8001000C 		lwz 0,12(1)
 2110 0020 38210008 		addi 1,1,8
 2111              	.LCFI41:
 2112              		.cfi_def_cfa_offset 0
 2113 0024 7C0803A6 		mtlr 0
 2114 0028 4E800020 		blr
 2115              		.cfi_endproc
 2116              	.LFE1596:
 2117              		.size	_ZN16SimpleGuiTriggerD2Ev, .-_ZN16SimpleGuiTriggerD2Ev
 2118              		.section	.text._ZN16SimpleGuiTriggerD0Ev,"axG",@progbits,_ZN16SimpleGuiTriggerD5Ev,comdat
 2119              		.align 2
 2120              		.weak	_ZN16SimpleGuiTriggerD0Ev
 2121              		.type	_ZN16SimpleGuiTriggerD0Ev, @function
 2122              	_ZN16SimpleGuiTriggerD0Ev:
 2123              	.LFB1598:
 2124              		.loc 7 91 0
 2125              		.cfi_startproc
 2126              	.LVL159:
 2127 0000 7C0802A6 		mflr 0
 2128 0004 9421FFF0 		stwu 1,-16(1)
 2129              	.LCFI42:
 2130              		.cfi_def_cfa_offset 16
 2131              		.cfi_register 65, 0
 2132              	.LBB2426:
 2133              	.LBB2427:
 2134              	.LBB2428:
 2135 0008 3D200000 		lis 9,_ZTV16SimpleGuiTrigger+8@ha
 2136              	.LBE2428:
 2137              	.LBE2427:
 2138              	.LBE2426:
 2139 000c 93E1000C 		stw 31,12(1)
 2140 0010 7C7F1B78 		mr 31,3
 2141              		.cfi_offset 31, -4
 2142              	.LVL160:
 2143 0014 90010014 		stw 0,20(1)
 2144              	.LBB2431:
 2145              	.LBB2430:
 2146              	.LBB2429:
 2147              		.loc 7 91 0
 2148 0018 38090008 		la 0,_ZTV16SimpleGuiTrigger+8@l(9)
 2149              		.cfi_offset 65, 4
 2150 001c 90030000 		stw 0,0(3)
 2151 0020 48000001 		bl _ZN10GuiTriggerD2Ev
 2152              	.LVL161:
 2153              	.LBE2429:
 2154              	.LBE2430:
 2155              	.LBE2431:
 2156 0024 7FE3FB78 		mr 3,31
 2157 0028 48000001 		bl _ZdlPv
 2158 002c 80010014 		lwz 0,20(1)
 2159 0030 83E1000C 		lwz 31,12(1)
 2160              	.LVL162:
 2161 0034 7C0803A6 		mtlr 0
 2162 0038 38210010 		addi 1,1,16
 2163              	.LCFI43:
 2164              		.cfi_def_cfa_offset 0
 2165              		.cfi_restore 31
 2166 003c 4E800020 		blr
 2167              		.cfi_endproc
 2168              	.LFE1598:
 2169              		.size	_ZN16SimpleGuiTriggerD0Ev, .-_ZN16SimpleGuiTriggerD0Ev
 2170              		.section	".text"
 2171              		.align 2
 2172              		.globl _ZN10DeviceMenu13OnButtonClickEP9GuiButtoniRK6_POINT
 2173              		.type	_ZN10DeviceMenu13OnButtonClickEP9GuiButtoniRK6_POINT, @function
 2174              	_ZN10DeviceMenu13OnButtonClickEP9GuiButtoniRK6_POINT:
 2175              	.LFB1602:
 2176              		.loc 4 326 0
 2177              		.cfi_startproc
 2178              		.cfi_personality 0,__gxx_personality_v0
 2179              		.cfi_lsda 0,.LLSDA1602
 2180              	.LVL163:
 2181 0000 7C0802A6 		mflr 0
 2182 0004 9421FFE0 		stwu 1,-32(1)
 2183              	.LCFI44:
 2184              		.cfi_def_cfa_offset 32
 2185              		.cfi_register 65, 0
 2186 0008 93C10018 		stw 30,24(1)
 2187 000c 7C7E1B78 		mr 30,3
 2188              		.cfi_offset 30, -8
 2189 0010 90010024 		stw 0,36(1)
 2190 0014 9361000C 		stw 27,12(1)
 2191              	.LBB2478:
 2192              		.loc 4 327 0
 2193 0018 800301B4 		lwz 0,436(3)
 2194              		.cfi_offset 27, -20
 2195              		.cfi_offset 65, 4
 2196              	.LBE2478:
 2197              		.loc 4 326 0
 2198 001c 93810010 		stw 28,16(1)
 2199              	.LBB2548:
 2200              		.loc 4 327 0
 2201 0020 7F802000 		cmpw 7,0,4
 2202              	.LBE2548:
 2203              		.loc 4 326 0
 2204 0024 93A10014 		stw 29,20(1)
 2205 0028 93E1001C 		stw 31,28(1)
 2206              	.LBB2549:
 2207              		.loc 4 327 0
 2208 002c 419E010C 		beq- 7,.L164
 2209              		.cfi_offset 31, -4
 2210              		.cfi_offset 29, -12
 2211              		.cfi_offset 28, -16
 2212              		.loc 4 336 0
 2213 0030 800301B8 		lwz 0,440(3)
 2214 0034 7F802000 		cmpw 7,0,4
 2215 0038 419E0188 		beq- 7,.L137
 2216              	.LVL164:
 2217              		.loc 4 344 0 discriminator 1
 2218 003c 800300D8 		lwz 0,216(3)
 2219 0040 2F800000 		cmpwi 7,0,0
 2220 0044 409D0034 		ble- 7,.L138
 2221              		.loc 4 346 0
 2222 0048 812301BC 		lwz 9,444(3)
 2223 004c 7F892000 		cmpw 7,9,4
 2224 0050 419E006C 		beq- 7,.L165
 2225              	.LBB2479:
 2226              	.LBB2480:
 2227              	.LBB2481:
 2228              	.LBB2482:
 2229              	.LBB2483:
 2230              		.loc 4 325 0
 2231 0054 396301BC 		addi 11,3,444
 2232              	.LBE2483:
 2233              	.LBE2482:
 2234              	.LBE2481:
 2235 0058 39200000 		li 9,0
 2236 005c 7C0903A6 		mtctr 0
 2237 0060 48000010 		b .L146
 2238              	.LVL165:
 2239              	.L151:
 2240              	.LBE2480:
 2241              	.LBE2479:
 2242              		.loc 4 346 0
 2243 0064 840B0004 		lwzu 0,4(11)
 2244 0068 7F802000 		cmpw 7,0,4
 2245 006c 419E0054 		beq- 7,.L139
 2246              	.LVL166:
 2247              	.L146:
 2248              		.loc 4 344 0
 2249 0070 39290001 		addi 9,9,1
 2250              	.LVL167:
 2251 0074 4200FFF0 		bdnz .L151
 2252              	.LVL168:
 2253              	.L138:
 2254              		.loc 4 353 0
 2255 0078 813E0000 		lwz 9,0(30)
 2256 007c 7FC3F378 		mr 3,30
 2257 0080 38800080 		li 4,128
 2258 0084 38A0FFE2 		li 5,-30
 2259 0088 80090088 		lwz 0,136(9)
 2260 008c 38C00000 		li 6,0
 2261 0090 7C0903A6 		mtctr 0
 2262              	.LEHB8:
 2263 0094 4E800421 		bctrl
 2264              	.L129:
 2265              	.LBE2549:
 2266              		.loc 4 354 0
 2267 0098 80010024 		lwz 0,36(1)
 2268 009c 8361000C 		lwz 27,12(1)
 2269 00a0 7C0803A6 		mtlr 0
 2270 00a4 83810010 		lwz 28,16(1)
 2271 00a8 83A10014 		lwz 29,20(1)
 2272 00ac 83C10018 		lwz 30,24(1)
 2273              	.LVL169:
 2274 00b0 83E1001C 		lwz 31,28(1)
 2275 00b4 38210020 		addi 1,1,32
 2276              		.cfi_remember_state
 2277              	.LCFI45:
 2278              		.cfi_def_cfa_offset 0
 2279              		.cfi_restore 31
 2280              		.cfi_restore 30
 2281              		.cfi_restore 29
 2282              		.cfi_restore 28
 2283              		.cfi_restore 27
 2284 00b8 4E800020 		blr
 2285              	.LVL170:
 2286              	.L165:
 2287              	.LCFI46:
 2288              		.cfi_restore_state
 2289              	.LBB2550:
 2290              		.loc 4 346 0
 2291 00bc 39200000 		li 9,0
 2292              	.LVL171:
 2293              	.L139:
 2294              	.LBB2508:
 2295              	.LBB2502:
 2296              	.LBB2486:
 2297              	.LBB2487:
 2298              		.loc 1 338 0
 2299 00c0 817E00CC 		lwz 11,204(30)
 2300              	.LBE2487:
 2301              	.LBE2486:
 2302              		.loc 1 2270 0
 2303 00c4 3B7E00CC 		addi 27,30,204
 2304              	.LBB2492:
 2305              	.LBB2488:
 2306              		.loc 1 338 0
 2307 00c8 7F63DB78 		mr 3,27
 2308              	.LVL172:
 2309              	.LBE2488:
 2310              	.LBE2492:
 2311              	.LBE2502:
 2312              	.LBE2508:
 2313              		.loc 4 348 0
 2314 00cc 39290034 		addi 9,9,52
 2315              	.LBB2509:
 2316              	.LBB2503:
 2317              	.LBB2493:
 2318              	.LBB2489:
 2319              		.loc 1 338 0
 2320 00d0 800B0008 		lwz 0,8(11)
 2321              	.LBE2489:
 2322              	.LBE2493:
 2323              	.LBE2503:
 2324              	.LBE2509:
 2325              		.loc 4 348 0
 2326 00d4 5529103A 		slwi 9,9,2
 2327 00d8 7D3E4A14 		add 9,30,9
 2328              	.LBB2510:
 2329              		.loc 4 354 0
 2330 00dc 7FDDF378 		mr 29,30
 2331              	.LBB2504:
 2332              	.LBB2494:
 2333              	.LBB2490:
 2334              		.loc 1 338 0
 2335 00e0 7C0903A6 		mtctr 0
 2336              	.LBE2490:
 2337              	.LBE2494:
 2338              	.LBE2504:
 2339              	.LBE2510:
 2340              		.loc 4 348 0
 2341 00e4 8389000C 		lwz 28,12(9)
 2342              	.LVL173:
 2343              	.LBB2511:
 2344              	.LBB2505:
 2345              	.LBB2495:
 2346              	.LBB2491:
 2347              		.loc 1 338 0
 2348 00e8 4E800421 		bctrl
 2349              	.LEHE8:
 2350              	.LVL174:
 2351              	.LBE2491:
 2352              	.LBE2495:
 2353              	.LBE2505:
 2354              		.loc 4 354 0
 2355 00ec 87FD00D0 		lwzu 31,208(29)
 2356              	.LVL175:
 2357              	.LBB2506:
 2358              		.loc 1 2274 0
 2359 00f0 7F9FE800 		cmpw 7,31,29
 2360 00f4 419E002C 		beq- 7,.L147
 2361              	.LVL176:
 2362              	.L163:
 2363              		.loc 1 2279 0
 2364 00f8 807F0008 		lwz 3,8(31)
 2365 00fc 7FC4F378 		mr 4,30
 2366 0100 7F85E378 		mr 5,28
 2367              	.LBB2496:
 2368              	.LBB2497:
 2369              		.loc 5 234 0
 2370 0104 83FF0000 		lwz 31,0(31)
 2371              	.LVL177:
 2372              	.LBE2497:
 2373              	.LBE2496:
 2374              		.loc 1 2279 0
 2375 0108 81230000 		lwz 9,0(3)
 2376 010c 8009000C 		lwz 0,12(9)
 2377 0110 7C0903A6 		mtctr 0
 2378              	.LEHB9:
 2379 0114 4E800421 		bctrl
 2380              	.LEHE9:
 2381              	.LVL178:
 2382              		.loc 1 2274 0
 2383 0118 7F9DF800 		cmpw 7,29,31
 2384 011c 409EFFDC 		bne+ 7,.L163
 2385              	.LVL179:
 2386              	.L147:
 2387              	.LBB2498:
 2388              	.LBB2499:
 2389              	.LBB2500:
 2390              		.loc 1 343 0
 2391 0120 813E00CC 		lwz 9,204(30)
 2392 0124 7F63DB78 		mr 3,27
 2393 0128 8009000C 		lwz 0,12(9)
 2394 012c 7C0903A6 		mtctr 0
 2395              	.LEHB10:
 2396 0130 4E800421 		bctrl
 2397 0134 4BFFFF44 		b .L138
 2398              	.LVL180:
 2399              	.L164:
 2400              	.LBE2500:
 2401              	.LBE2499:
 2402              	.LBE2498:
 2403              	.LBE2506:
 2404              	.LBE2511:
 2405              		.loc 4 329 0
 2406 0138 81230000 		lwz 9,0(3)
 2407 013c 80860000 		lwz 4,0(6)
 2408              	.LVL181:
 2409 0140 800900A4 		lwz 0,164(9)
 2410 0144 80A60004 		lwz 5,4(6)
 2411              	.LVL182:
 2412 0148 7C0903A6 		mtctr 0
 2413 014c 4E800421 		bctrl
 2414              	.LVL183:
 2415 0150 2F830000 		cmpwi 7,3,0
 2416 0154 409EFF44 		bne+ 7,.L129
 2417              	.LVL184:
 2418              	.LBB2512:
 2419              	.LBB2513:
 2420              	.LBB2514:
 2421              	.LBB2515:
 2422              		.loc 1 338 0
 2423 0158 813E00CC 		lwz 9,204(30)
 2424              	.LBE2515:
 2425              	.LBE2514:
 2426              		.loc 1 2270 0
 2427 015c 3B9E00CC 		addi 28,30,204
 2428              	.LVL185:
 2429              	.LBB2518:
 2430              	.LBB2516:
 2431              		.loc 1 338 0
 2432 0160 7F83E378 		mr 3,28
 2433              	.LBE2516:
 2434              	.LBE2518:
 2435              	.LBE2513:
 2436              		.loc 4 354 0
 2437 0164 7FDDF378 		mr 29,30
 2438              	.LBB2525:
 2439              	.LBB2519:
 2440              	.LBB2517:
 2441              		.loc 1 338 0
 2442 0168 80090008 		lwz 0,8(9)
 2443 016c 7C0903A6 		mtctr 0
 2444 0170 4E800421 		bctrl
 2445              	.LEHE10:
 2446              	.LVL186:
 2447              	.LBE2517:
 2448              	.LBE2519:
 2449              	.LBE2525:
 2450              		.loc 4 354 0
 2451 0174 87FD00D0 		lwzu 31,208(29)
 2452              	.LVL187:
 2453              	.LBB2526:
 2454              		.loc 1 2274 0
 2455 0178 7F9FE800 		cmpw 7,31,29
 2456 017c 419E002C 		beq- 7,.L141
 2457              	.LVL188:
 2458              	.L160:
 2459              		.loc 1 2279 0
 2460 0180 807F0008 		lwz 3,8(31)
 2461 0184 7FC4F378 		mr 4,30
 2462 0188 38A0FFFF 		li 5,-1
 2463              	.LBB2520:
 2464              	.LBB2521:
 2465              		.loc 5 234 0
 2466 018c 83FF0000 		lwz 31,0(31)
 2467              	.LVL189:
 2468              	.LBE2521:
 2469              	.LBE2520:
 2470              		.loc 1 2279 0
 2471 0190 81230000 		lwz 9,0(3)
 2472 0194 8009000C 		lwz 0,12(9)
 2473 0198 7C0903A6 		mtctr 0
 2474              	.LEHB11:
 2475 019c 4E800421 		bctrl
 2476              	.LEHE11:
 2477              	.LVL190:
 2478              		.loc 1 2274 0
 2479 01a0 7F9DF800 		cmpw 7,29,31
 2480 01a4 409EFFDC 		bne+ 7,.L160
 2481              	.LVL191:
 2482              	.L141:
 2483              	.LBE2526:
 2484              	.LBE2512:
 2485              	.LBB2528:
 2486              	.LBB2529:
 2487              	.LBB2530:
 2488              	.LBB2531:
 2489              	.LBB2532:
 2490              		.loc 1 343 0
 2491 01a8 813E00CC 		lwz 9,204(30)
 2492 01ac 7F83E378 		mr 3,28
 2493 01b0 8009000C 		lwz 0,12(9)
 2494 01b4 7C0903A6 		mtctr 0
 2495              	.LEHB12:
 2496 01b8 4E800421 		bctrl
 2497 01bc 4BFFFEBC 		b .L138
 2498              	.LVL192:
 2499              	.L137:
 2500              	.LBE2532:
 2501              	.LBE2531:
 2502              	.LBE2530:
 2503              	.LBB2533:
 2504              	.LBB2534:
 2505              		.loc 1 338 0
 2506 01c0 812300CC 		lwz 9,204(3)
 2507              	.LBE2534:
 2508              	.LBE2533:
 2509              		.loc 1 2270 0
 2510 01c4 3B8300CC 		addi 28,3,204
 2511              	.LVL193:
 2512              	.LBB2537:
 2513              	.LBB2535:
 2514              		.loc 1 338 0
 2515 01c8 7F83E378 		mr 3,28
 2516              	.LBE2535:
 2517              	.LBE2537:
 2518              	.LBE2529:
 2519              		.loc 4 354 0
 2520 01cc 7FDDF378 		mr 29,30
 2521              	.LBB2544:
 2522              	.LBB2538:
 2523              	.LBB2536:
 2524              		.loc 1 338 0
 2525 01d0 80090008 		lwz 0,8(9)
 2526 01d4 7C0903A6 		mtctr 0
 2527 01d8 4E800421 		bctrl
 2528              	.LEHE12:
 2529              	.LVL194:
 2530              	.LBE2536:
 2531              	.LBE2538:
 2532              	.LBE2544:
 2533              		.loc 4 354 0
 2534 01dc 87FD00D0 		lwzu 31,208(29)
 2535              	.LVL195:
 2536              	.LBB2545:
 2537              		.loc 1 2274 0
 2538 01e0 7F9FE800 		cmpw 7,31,29
 2539 01e4 41BEFFC4 		beq- 7,.L141
 2540              	.LVL196:
 2541              	.L162:
 2542              		.loc 1 2279 0
 2543 01e8 807F0008 		lwz 3,8(31)
 2544 01ec 7FC4F378 		mr 4,30
 2545 01f0 38A0FFFF 		li 5,-1
 2546              	.LBB2539:
 2547              	.LBB2540:
 2548              		.loc 5 234 0
 2549 01f4 83FF0000 		lwz 31,0(31)
 2550              	.LVL197:
 2551              	.LBE2540:
 2552              	.LBE2539:
 2553              		.loc 1 2279 0
 2554 01f8 81230000 		lwz 9,0(3)
 2555 01fc 8009000C 		lwz 0,12(9)
 2556 0200 7C0903A6 		mtctr 0
 2557              	.LEHB13:
 2558 0204 4E800421 		bctrl
 2559              	.LEHE13:
 2560              	.LVL198:
 2561              		.loc 1 2274 0
 2562 0208 7F9DF800 		cmpw 7,29,31
 2563 020c 409EFFDC 		bne+ 7,.L162
 2564 0210 4BFFFF98 		b .L141
 2565              	.LVL199:
 2566              	.L157:
 2567              	.LBB2541:
 2568              	.LBB2542:
 2569              	.LBB2543:
 2570              		.loc 1 343 0
 2571 0214 813E00CC 		lwz 9,204(30)
 2572 0218 7C7F1B78 		mr 31,3
 2573              	.LVL200:
 2574 021c 7F83E378 		mr 3,28
 2575 0220 8009000C 		lwz 0,12(9)
 2576 0224 7C0903A6 		mtctr 0
 2577 0228 4E800421 		bctrl
 2578 022c 7FE3FB78 		mr 3,31
 2579              	.LEHB14:
 2580 0230 48000001 		bl _Unwind_Resume
 2581              	.LEHE14:
 2582              	.LVL201:
 2583              	.L158:
 2584              	.LBE2543:
 2585              	.LBE2542:
 2586              	.LBE2541:
 2587              	.LBE2545:
 2588              	.LBE2528:
 2589              	.LBB2546:
 2590              	.LBB2507:
 2591              	.LBB2501:
 2592              	.LBB2485:
 2593              	.LBB2484:
 2594 0234 813E00CC 		lwz 9,204(30)
 2595 0238 7C7F1B78 		mr 31,3
 2596              	.LVL202:
 2597 023c 7F63DB78 		mr 3,27
 2598 0240 8009000C 		lwz 0,12(9)
 2599 0244 7C0903A6 		mtctr 0
 2600 0248 4E800421 		bctrl
 2601 024c 7FE3FB78 		mr 3,31
 2602              	.LEHB15:
 2603 0250 48000001 		bl _Unwind_Resume
 2604              	.LEHE15:
 2605              	.LVL203:
 2606              	.L156:
 2607              	.LBE2484:
 2608              	.LBE2485:
 2609              	.LBE2501:
 2610              	.LBE2507:
 2611              	.LBE2546:
 2612              	.LBB2547:
 2613              	.LBB2527:
 2614              	.LBB2522:
 2615              	.LBB2523:
 2616              	.LBB2524:
 2617 0254 813E00CC 		lwz 9,204(30)
 2618 0258 7C7F1B78 		mr 31,3
 2619              	.LVL204:
 2620 025c 7F83E378 		mr 3,28
 2621 0260 8009000C 		lwz 0,12(9)
 2622 0264 7C0903A6 		mtctr 0
 2623 0268 4E800421 		bctrl
 2624 026c 7FE3FB78 		mr 3,31
 2625              	.LEHB16:
 2626 0270 48000001 		bl _Unwind_Resume
 2627              	.LEHE16:
 2628              	.LBE2524:
 2629              	.LBE2523:
 2630              	.LBE2522:
 2631              	.LBE2527:
 2632              	.LBE2547:
 2633              	.LBE2550:
 2634              		.cfi_endproc
 2635              	.LFE1602:
 2636              		.section	.gcc_except_table
 2637              	.LLSDA1602:
 2638 002e FF       		.byte	0xff
 2639 002f FF       		.byte	0xff
 2640 0030 01       		.byte	0x1
 2641 0031 30       		.uleb128 .LLSDACSE1602-.LLSDACSB1602
 2642              	.LLSDACSB1602:
 2643 0032 9401     		.uleb128 .LEHB8-.LFB1602
 2644 0034 58       		.uleb128 .LEHE8-.LEHB8
 2645 0035 00       		.uleb128 0
 2646 0036 00       		.uleb128 0
 2647 0037 9402     		.uleb128 .LEHB9-.LFB1602
 2648 0039 04       		.uleb128 .LEHE9-.LEHB9
 2649 003a B404     		.uleb128 .L158-.LFB1602
 2650 003c 00       		.uleb128 0
 2651 003d B002     		.uleb128 .LEHB10-.LFB1602
 2652 003f 44       		.uleb128 .LEHE10-.LEHB10
 2653 0040 00       		.uleb128 0
 2654 0041 00       		.uleb128 0
 2655 0042 9C03     		.uleb128 .LEHB11-.LFB1602
 2656 0044 04       		.uleb128 .LEHE11-.LEHB11
 2657 0045 D404     		.uleb128 .L156-.LFB1602
 2658 0047 00       		.uleb128 0
 2659 0048 B803     		.uleb128 .LEHB12-.LFB1602
 2660 004a 24       		.uleb128 .LEHE12-.LEHB12
 2661 004b 00       		.uleb128 0
 2662 004c 00       		.uleb128 0
 2663 004d 8404     		.uleb128 .LEHB13-.LFB1602
 2664 004f 04       		.uleb128 .LEHE13-.LEHB13
 2665 0050 9404     		.uleb128 .L157-.LFB1602
 2666 0052 00       		.uleb128 0
 2667 0053 B004     		.uleb128 .LEHB14-.LFB1602
 2668 0055 04       		.uleb128 .LEHE14-.LEHB14
 2669 0056 00       		.uleb128 0
 2670 0057 00       		.uleb128 0
 2671 0058 D004     		.uleb128 .LEHB15-.LFB1602
 2672 005a 04       		.uleb128 .LEHE15-.LEHB15
 2673 005b 00       		.uleb128 0
 2674 005c 00       		.uleb128 0
 2675 005d F004     		.uleb128 .LEHB16-.LFB1602
 2676 005f 04       		.uleb128 .LEHE16-.LEHB16
 2677 0060 00       		.uleb128 0
 2678 0061 00       		.uleb128 0
 2679              	.LLSDACSE1602:
 2680              		.section	".text"
 2681              		.size	_ZN10DeviceMenu13OnButtonClickEP9GuiButtoniRK6_POINT, .-_ZN10DeviceMenu13OnButtonClickEP9Gui
 2682              		.section	.text._ZNSt8_Rb_treeIPN7sigslot12_signal_baseINS0_15single_threadedEEES4_St9_IdentityIS4_
 2683              		.align 2
 2684              		.weak	_ZNSt8_Rb_treeIPN7sigslot12_signal_baseINS0_15single_threadedEEES4_St9_IdentityIS4_ESt4lessI
 2685              		.type	_ZNSt8_Rb_treeIPN7sigslot12_signal_baseINS0_15single_threadedEEES4_St9_IdentityIS4_ESt4lessI
 2686              	_ZNSt8_Rb_treeIPN7sigslot12_signal_baseINS0_15single_threadedEEES4_St9_IdentityIS4_ESt4lessIS4_ESaI
 2687              	.LFB1756:
 2688              		.file 8 "d:\\devkitpro\\devkitppc\\bin\\../lib/gcc/powerpc-eabi/4.6.3/../../../../powerpc-eabi/inc
 2689              		.loc 8 1068 0
 2690              		.cfi_startproc
 2691              	.LVL205:
 2692 0000 9421FFC8 		stwu 1,-56(1)
 2693              	.LCFI47:
 2694              		.cfi_def_cfa_offset 56
 2695 0004 7C0802A6 		mflr 0
 2696 0008 92C10010 		stw 22,16(1)
 2697              	.LBB2667:
 2698              		.loc 8 1072 0
 2699 000c 7C962379 		mr. 22,4
 2700              		.cfi_offset 22, -40
 2701              		.cfi_register 65, 0
 2702              	.LBE2667:
 2703              		.loc 8 1068 0
 2704 0010 93C10030 		stw 30,48(1)
 2705 0014 7C7E1B78 		mr 30,3
 2706              		.cfi_offset 30, -8
 2707 0018 9001003C 		stw 0,60(1)
 2708 001c 92A1000C 		stw 21,12(1)
 2709 0020 92E10014 		stw 23,20(1)
 2710 0024 93010018 		stw 24,24(1)
 2711 0028 9321001C 		stw 25,28(1)
 2712 002c 93410020 		stw 26,32(1)
 2713 0030 93610024 		stw 27,36(1)
 2714 0034 93810028 		stw 28,40(1)
 2715 0038 93A1002C 		stw 29,44(1)
 2716 003c 93E10034 		stw 31,52(1)
 2717              	.LBB2752:
 2718              		.loc 8 1072 0
 2719 0040 41820168 		beq- 0,.L166
 2720              		.cfi_offset 31, -4
 2721              		.cfi_offset 29, -12
 2722              		.cfi_offset 28, -16
 2723              		.cfi_offset 27, -20
 2724              		.cfi_offset 26, -24
 2725              		.cfi_offset 25, -28
 2726              		.cfi_offset 24, -32
 2727              		.cfi_offset 23, -36
 2728              		.cfi_offset 21, -44
 2729              		.cfi_offset 65, 4
 2730              	.LVL206:
 2731              	.L212:
 2732              		.loc 4 354 0
 2733 0044 8376000C 		lwz 27,12(22)
 2734              	.LVL207:
 2735              	.LBB2668:
 2736              	.LBB2669:
 2737              	.LBB2670:
 2738              		.loc 8 1072 0
 2739 0048 2F9B0000 		cmpwi 7,27,0
 2740 004c 419E0140 		beq- 7,.L168
 2741              	.LVL208:
 2742              	.L213:
 2743              	.LBE2670:
 2744              		.loc 4 354 0
 2745 0050 835B000C 		lwz 26,12(27)
 2746              	.LVL209:
 2747              	.LBB2746:
 2748              	.LBB2671:
 2749              	.LBB2672:
 2750              	.LBB2673:
 2751              		.loc 8 1072 0
 2752 0054 2F9A0000 		cmpwi 7,26,0
 2753 0058 419E0118 		beq- 7,.L169
 2754              	.LVL210:
 2755              	.L214:
 2756              	.LBE2673:
 2757              		.loc 4 354 0
 2758 005c 833A000C 		lwz 25,12(26)
 2759              	.LVL211:
 2760              	.LBB2739:
 2761              	.LBB2674:
 2762              	.LBB2675:
 2763              	.LBB2676:
 2764              		.loc 8 1072 0
 2765 0060 2F990000 		cmpwi 7,25,0
 2766 0064 419E00F0 		beq- 7,.L170
 2767              	.LVL212:
 2768              	.L215:
 2769              	.LBE2676:
 2770              		.loc 4 354 0
 2771 0068 8319000C 		lwz 24,12(25)
 2772              	.LVL213:
 2773              	.LBB2732:
 2774              	.LBB2677:
 2775              	.LBB2678:
 2776              	.LBB2679:
 2777              		.loc 8 1072 0
 2778 006c 2F980000 		cmpwi 7,24,0
 2779 0070 419E00C8 		beq- 7,.L171
 2780              	.LVL214:
 2781              	.L216:
 2782              	.LBE2679:
 2783              		.loc 4 354 0
 2784 0074 82F8000C 		lwz 23,12(24)
 2785              	.LVL215:
 2786              	.LBB2725:
 2787              	.LBB2680:
 2788              	.LBB2681:
 2789              	.LBB2682:
 2790              		.loc 8 1072 0
 2791 0078 2F970000 		cmpwi 7,23,0
 2792 007c 419E00A0 		beq- 7,.L172
 2793              	.LVL216:
 2794              	.L217:
 2795              	.LBE2682:
 2796              		.loc 4 354 0
 2797 0080 8397000C 		lwz 28,12(23)
 2798              	.LVL217:
 2799              	.LBB2718:
 2800              	.LBB2683:
 2801              	.LBB2684:
 2802              	.LBB2685:
 2803              		.loc 8 1072 0
 2804 0084 2F9C0000 		cmpwi 7,28,0
 2805 0088 419E0078 		beq- 7,.L173
 2806              	.LVL218:
 2807              	.L218:
 2808              	.LBE2685:
 2809              		.loc 4 354 0
 2810 008c 83BC000C 		lwz 29,12(28)
 2811              	.LVL219:
 2812              	.LBB2711:
 2813              	.LBB2686:
 2814              	.LBB2687:
 2815              	.LBB2688:
 2816              		.loc 8 1072 0
 2817 0090 2F9D0000 		cmpwi 7,29,0
 2818 0094 419E0050 		beq- 7,.L174
 2819              	.LVL220:
 2820              	.L219:
 2821              	.LBE2688:
 2822              		.loc 4 354 0
 2823 0098 83FD000C 		lwz 31,12(29)
 2824              	.LVL221:
 2825              	.LBB2704:
 2826              	.LBB2689:
 2827              	.LBB2690:
 2828              	.LBB2691:
 2829              		.loc 8 1072 0
 2830 009c 2F9F0000 		cmpwi 7,31,0
 2831 00a0 419E0028 		beq- 7,.L175
 2832              	.LVL222:
 2833              	.L220:
 2834              	.LBB2692:
 2835              		.loc 8 1074 0
 2836 00a4 809F000C 		lwz 4,12(31)
 2837 00a8 7FC3F378 		mr 3,30
 2838 00ac 48000001 		bl _ZNSt8_Rb_treeIPN7sigslot12_signal_baseINS0_15single_threadedEEES4_St9_IdentityIS4_ESt4lessIS4_
 2839              	.LBE2692:
 2840              	.LBE2691:
 2841              		.loc 4 354 0
 2842 00b0 82BF0008 		lwz 21,8(31)
 2843              	.LVL223:
 2844              	.LBB2698:
 2845              	.LBB2697:
 2846              	.LBB2693:
 2847              	.LBB2694:
 2848              	.LBB2695:
 2849              	.LBB2696:
 2850              		.loc 6 98 0
 2851 00b4 7FE3FB78 		mr 3,31
 2852 00b8 48000001 		bl _ZdlPv
 2853              	.LVL224:
 2854              	.LBE2696:
 2855              	.LBE2695:
 2856              	.LBE2694:
 2857              	.LBE2693:
 2858              	.LBE2697:
 2859              		.loc 8 1072 0
 2860 00bc 2F950000 		cmpwi 7,21,0
 2861              		.loc 8 1077 0
 2862 00c0 7EBFAB78 		mr 31,21
 2863              	.LVL225:
 2864              		.loc 8 1072 0
 2865 00c4 409EFFE0 		bne+ 7,.L220
 2866              	.LVL226:
 2867              	.L175:
 2868              	.LBE2698:
 2869              	.LBE2690:
 2870              	.LBE2689:
 2871              	.LBE2704:
 2872              		.loc 4 354 0
 2873 00c8 83FD0008 		lwz 31,8(29)
 2874              	.LVL227:
 2875              	.LBB2705:
 2876              	.LBB2703:
 2877              	.LBB2699:
 2878              	.LBB2700:
 2879              	.LBB2701:
 2880              	.LBB2702:
 2881              		.loc 6 98 0
 2882 00cc 7FA3EB78 		mr 3,29
 2883 00d0 48000001 		bl _ZdlPv
 2884              	.LVL228:
 2885              	.LBE2702:
 2886              	.LBE2701:
 2887              	.LBE2700:
 2888              	.LBE2699:
 2889              	.LBE2703:
 2890              		.loc 8 1072 0
 2891 00d4 2F9F0000 		cmpwi 7,31,0
 2892 00d8 419E000C 		beq- 7,.L174
 2893              		.loc 8 1077 0
 2894 00dc 7FFDFB78 		mr 29,31
 2895              	.LVL229:
 2896 00e0 4BFFFFB8 		b .L219
 2897              	.LVL230:
 2898              	.L174:
 2899              	.LBE2705:
 2900              	.LBE2687:
 2901              	.LBE2686:
 2902              	.LBE2711:
 2903              		.loc 4 354 0
 2904 00e4 83FC0008 		lwz 31,8(28)
 2905              	.LVL231:
 2906              	.LBB2712:
 2907              	.LBB2710:
 2908              	.LBB2706:
 2909              	.LBB2707:
 2910              	.LBB2708:
 2911              	.LBB2709:
 2912              		.loc 6 98 0
 2913 00e8 7F83E378 		mr 3,28
 2914 00ec 48000001 		bl _ZdlPv
 2915              	.LVL232:
 2916              	.LBE2709:
 2917              	.LBE2708:
 2918              	.LBE2707:
 2919              	.LBE2706:
 2920              	.LBE2710:
 2921              		.loc 8 1072 0
 2922 00f0 2F9F0000 		cmpwi 7,31,0
 2923 00f4 419E000C 		beq- 7,.L173
 2924              		.loc 8 1077 0
 2925 00f8 7FFCFB78 		mr 28,31
 2926              	.LVL233:
 2927 00fc 4BFFFF90 		b .L218
 2928              	.LVL234:
 2929              	.L173:
 2930              	.LBE2712:
 2931              	.LBE2684:
 2932              	.LBE2683:
 2933              	.LBE2718:
 2934              		.loc 4 354 0
 2935 0100 83F70008 		lwz 31,8(23)
 2936              	.LVL235:
 2937              	.LBB2719:
 2938              	.LBB2717:
 2939              	.LBB2713:
 2940              	.LBB2714:
 2941              	.LBB2715:
 2942              	.LBB2716:
 2943              		.loc 6 98 0
 2944 0104 7EE3BB78 		mr 3,23
 2945 0108 48000001 		bl _ZdlPv
 2946              	.LVL236:
 2947              	.LBE2716:
 2948              	.LBE2715:
 2949              	.LBE2714:
 2950              	.LBE2713:
 2951              	.LBE2717:
 2952              		.loc 8 1072 0
 2953 010c 2F9F0000 		cmpwi 7,31,0
 2954 0110 419E000C 		beq- 7,.L172
 2955              		.loc 8 1077 0
 2956 0114 7FF7FB78 		mr 23,31
 2957              	.LVL237:
 2958 0118 4BFFFF68 		b .L217
 2959              	.LVL238:
 2960              	.L172:
 2961              	.LBE2719:
 2962              	.LBE2681:
 2963              	.LBE2680:
 2964              	.LBE2725:
 2965              		.loc 4 354 0
 2966 011c 83F80008 		lwz 31,8(24)
 2967              	.LVL239:
 2968              	.LBB2726:
 2969              	.LBB2724:
 2970              	.LBB2720:
 2971              	.LBB2721:
 2972              	.LBB2722:
 2973              	.LBB2723:
 2974              		.loc 6 98 0
 2975 0120 7F03C378 		mr 3,24
 2976 0124 48000001 		bl _ZdlPv
 2977              	.LVL240:
 2978              	.LBE2723:
 2979              	.LBE2722:
 2980              	.LBE2721:
 2981              	.LBE2720:
 2982              	.LBE2724:
 2983              		.loc 8 1072 0
 2984 0128 2F9F0000 		cmpwi 7,31,0
 2985 012c 419E000C 		beq- 7,.L171
 2986              		.loc 8 1077 0
 2987 0130 7FF8FB78 		mr 24,31
 2988              	.LVL241:
 2989 0134 4BFFFF40 		b .L216
 2990              	.LVL242:
 2991              	.L171:
 2992              	.LBE2726:
 2993              	.LBE2678:
 2994              	.LBE2677:
 2995              	.LBE2732:
 2996              		.loc 4 354 0
 2997 0138 83F90008 		lwz 31,8(25)
 2998              	.LVL243:
 2999              	.LBB2733:
 3000              	.LBB2731:
 3001              	.LBB2727:
 3002              	.LBB2728:
 3003              	.LBB2729:
 3004              	.LBB2730:
 3005              		.loc 6 98 0
 3006 013c 7F23CB78 		mr 3,25
 3007 0140 48000001 		bl _ZdlPv
 3008              	.LVL244:
 3009              	.LBE2730:
 3010              	.LBE2729:
 3011              	.LBE2728:
 3012              	.LBE2727:
 3013              	.LBE2731:
 3014              		.loc 8 1072 0
 3015 0144 2F9F0000 		cmpwi 7,31,0
 3016 0148 419E000C 		beq- 7,.L170
 3017              		.loc 8 1077 0
 3018 014c 7FF9FB78 		mr 25,31
 3019              	.LVL245:
 3020 0150 4BFFFF18 		b .L215
 3021              	.LVL246:
 3022              	.L170:
 3023              	.LBE2733:
 3024              	.LBE2675:
 3025              	.LBE2674:
 3026              	.LBE2739:
 3027              		.loc 4 354 0
 3028 0154 83FA0008 		lwz 31,8(26)
 3029              	.LVL247:
 3030              	.LBB2740:
 3031              	.LBB2738:
 3032              	.LBB2734:
 3033              	.LBB2735:
 3034              	.LBB2736:
 3035              	.LBB2737:
 3036              		.loc 6 98 0
 3037 0158 7F43D378 		mr 3,26
 3038 015c 48000001 		bl _ZdlPv
 3039              	.LVL248:
 3040              	.LBE2737:
 3041              	.LBE2736:
 3042              	.LBE2735:
 3043              	.LBE2734:
 3044              	.LBE2738:
 3045              		.loc 8 1072 0
 3046 0160 2F9F0000 		cmpwi 7,31,0
 3047 0164 419E000C 		beq- 7,.L169
 3048              		.loc 8 1077 0
 3049 0168 7FFAFB78 		mr 26,31
 3050              	.LVL249:
 3051 016c 4BFFFEF0 		b .L214
 3052              	.LVL250:
 3053              	.L169:
 3054              	.LBE2740:
 3055              	.LBE2672:
 3056              	.LBE2671:
 3057              	.LBE2746:
 3058              		.loc 4 354 0
 3059 0170 83FB0008 		lwz 31,8(27)
 3060              	.LVL251:
 3061              	.LBB2747:
 3062              	.LBB2745:
 3063              	.LBB2741:
 3064              	.LBB2742:
 3065              	.LBB2743:
 3066              	.LBB2744:
 3067              		.loc 6 98 0
 3068 0174 7F63DB78 		mr 3,27
 3069 0178 48000001 		bl _ZdlPv
 3070              	.LVL252:
 3071              	.LBE2744:
 3072              	.LBE2743:
 3073              	.LBE2742:
 3074              	.LBE2741:
 3075              	.LBE2745:
 3076              		.loc 8 1072 0
 3077 017c 2F9F0000 		cmpwi 7,31,0
 3078 0180 419E000C 		beq- 7,.L168
 3079              		.loc 8 1077 0
 3080 0184 7FFBFB78 		mr 27,31
 3081              	.LVL253:
 3082 0188 4BFFFEC8 		b .L213
 3083              	.LVL254:
 3084              	.L168:
 3085              		.loc 4 354 0
 3086 018c 83F60008 		lwz 31,8(22)
 3087              	.LVL255:
 3088              	.LBE2747:
 3089              	.LBE2669:
 3090              	.LBB2748:
 3091              	.LBB2749:
 3092              	.LBB2750:
 3093              	.LBB2751:
 3094              		.loc 6 98 0
 3095 0190 7EC3B378 		mr 3,22
 3096 0194 48000001 		bl _ZdlPv
 3097              	.LVL256:
 3098              	.LBE2751:
 3099              	.LBE2750:
 3100              	.LBE2749:
 3101              	.LBE2748:
 3102              	.LBE2668:
 3103              		.loc 8 1072 0
 3104 0198 2F9F0000 		cmpwi 7,31,0
 3105 019c 419E000C 		beq- 7,.L166
 3106              		.loc 8 1077 0
 3107 01a0 7FF6FB78 		mr 22,31
 3108              	.LVL257:
 3109 01a4 4BFFFEA0 		b .L212
 3110              	.LVL258:
 3111              	.L166:
 3112              	.LBE2752:
 3113              		.loc 8 1079 0
 3114 01a8 8001003C 		lwz 0,60(1)
 3115 01ac 82A1000C 		lwz 21,12(1)
 3116 01b0 7C0803A6 		mtlr 0
 3117 01b4 82C10010 		lwz 22,16(1)
 3118 01b8 82E10014 		lwz 23,20(1)
 3119 01bc 83010018 		lwz 24,24(1)
 3120 01c0 8321001C 		lwz 25,28(1)
 3121 01c4 83410020 		lwz 26,32(1)
 3122 01c8 83610024 		lwz 27,36(1)
 3123 01cc 83810028 		lwz 28,40(1)
 3124 01d0 83A1002C 		lwz 29,44(1)
 3125 01d4 83C10030 		lwz 30,48(1)
 3126              	.LVL259:
 3127 01d8 83E10034 		lwz 31,52(1)
 3128 01dc 38210038 		addi 1,1,56
 3129              	.LCFI48:
 3130              		.cfi_def_cfa_offset 0
 3131              		.cfi_restore 31
 3132              		.cfi_restore 30
 3133              		.cfi_restore 29
 3134              		.cfi_restore 28
 3135              		.cfi_restore 27
 3136              		.cfi_restore 26
 3137              		.cfi_restore 25
 3138              		.cfi_restore 24
 3139              		.cfi_restore 23
 3140              		.cfi_restore 22
 3141              		.cfi_restore 21
 3142 01e0 4E800020 		blr
 3143              		.cfi_endproc
 3144              	.LFE1756:
 3145              		.size	_ZNSt8_Rb_treeIPN7sigslot12_signal_baseINS0_15single_threadedEEES4_St9_IdentityIS4_ESt4lessI
 3146              		.section	.text._ZN7sigslot9has_slotsINS_15single_threadedEED2Ev,"axG",@progbits,_ZN7sigslot9has_sl
 3147              		.align 2
 3148              		.weak	_ZN7sigslot9has_slotsINS_15single_threadedEED2Ev
 3149              		.type	_ZN7sigslot9has_slotsINS_15single_threadedEED2Ev, @function
 3150              	_ZN7sigslot9has_slotsINS_15single_threadedEED2Ev:
 3151              	.LFB1634:
 3152              		.loc 1 513 0
 3153              		.cfi_startproc
 3154              		.cfi_personality 0,__gxx_personality_v0
 3155              		.cfi_lsda 0,.LLSDA1634
 3156              	.LVL260:
 3157 0000 7C0802A6 		mflr 0
 3158 0004 9421FFE0 		stwu 1,-32(1)
 3159              	.LCFI49:
 3160              		.cfi_def_cfa_offset 32
 3161              		.cfi_register 65, 0
 3162              	.LBB2899:
 3163              		.loc 1 516 0
 3164 0008 3D200000 		lis 9,_ZTVN7sigslot9has_slotsINS_15single_threadedEEE+8@ha
 3165              	.LBE2899:
 3166              		.loc 1 513 0
 3167 000c 93810010 		stw 28,16(1)
 3168 0010 3B830004 		addi 28,3,4
 3169              		.cfi_offset 28, -16
 3170 0014 90010024 		stw 0,36(1)
 3171              	.LBB2975:
 3172              		.loc 1 516 0
 3173 0018 38090008 		la 0,_ZTVN7sigslot9has_slotsINS_15single_threadedEEE+8@l(9)
 3174              		.cfi_offset 65, 4
 3175              	.LBE2975:
 3176              		.loc 1 513 0
 3177 001c 93A10014 		stw 29,20(1)
 3178 0020 7C7D1B78 		mr 29,3
 3179              		.cfi_offset 29, -12
 3180 0024 93410008 		stw 26,8(1)
 3181 0028 9361000C 		stw 27,12(1)
 3182 002c 93C10018 		stw 30,24(1)
 3183 0030 93E1001C 		stw 31,28(1)
 3184              	.LBB2976:
 3185              		.loc 1 516 0
 3186 0034 90030000 		stw 0,0(3)
 3187              	.LVL261:
 3188              	.LEHB17:
 3189              	.LBB2900:
 3190              	.LBB2901:
 3191              	.LBB2902:
 3192              	.LBB2903:
 3193              		.loc 1 338 0
 3194              		.cfi_offset 31, -4
 3195              		.cfi_offset 30, -8
 3196              		.cfi_offset 27, -20
 3197              		.cfi_offset 26, -24
 3198 0038 48000001 		bl _ZN7sigslot15single_threaded4lockEv
 3199              	.LEHE17:
 3200              	.LVL262:
 3201              	.LBE2903:
 3202              	.LBE2902:
 3203              	.LBB2904:
 3204              		.loc 4 354 0
 3205 003c 83FD0010 		lwz 31,16(29)
 3206              	.LVL263:
 3207              	.LBE2904:
 3208              	.LBB2905:
 3209              	.LBB2906:
 3210              	.LBB2907:
 3211              		.loc 8 671 0
 3212 0040 3BDC0004 		addi 30,28,4
 3213              	.LVL264:
 3214              	.LBE2907:
 3215              	.LBE2906:
 3216              	.LBE2905:
 3217              		.loc 1 524 0
 3218 0044 7F9FF000 		cmpw 7,31,30
 3219 0048 419E0034 		beq- 7,.L222
 3220              	.LVL265:
 3221              	.L249:
 3222              		.loc 1 526 0
 3223 004c 807F0010 		lwz 3,16(31)
 3224 0050 7FA4EB78 		mr 4,29
 3225 0054 81230000 		lwz 9,0(3)
 3226 0058 80090010 		lwz 0,16(9)
 3227 005c 7C0903A6 		mtctr 0
 3228              	.LEHB18:
 3229 0060 4E800421 		bctrl
 3230              	.LEHE18:
 3231              	.LVL266:
 3232              	.LBB2908:
 3233              	.LBB2909:
 3234              		.loc 8 269 0
 3235 0064 7FE3FB78 		mr 3,31
 3236 0068 48000001 		bl _ZSt18_Rb_tree_incrementPKSt18_Rb_tree_node_base
 3237              	.LBE2909:
 3238              	.LBE2908:
 3239              		.loc 1 524 0
 3240 006c 7F9E1800 		cmpw 7,30,3
 3241              	.LBB2911:
 3242              	.LBB2910:
 3243              		.loc 8 269 0
 3244 0070 7C7F1B78 		mr 31,3
 3245              	.LVL267:
 3246              	.LBE2910:
 3247              	.LBE2911:
 3248              		.loc 1 524 0
 3249 0074 409EFFD8 		bne+ 7,.L249
 3250 0078 83FD0010 		lwz 31,16(29)
 3251              	.LVL268:
 3252              	.L222:
 3253              	.LBB2912:
 3254              	.LBB2913:
 3255              	.LBB2914:
 3256              	.LBB2915:
 3257              	.LBB2916:
 3258              	.LBB2917:
 3259              	.LBB2918:
 3260              		.loc 8 665 0
 3261 007c 3B5C0004 		addi 26,28,4
 3262              	.LBE2918:
 3263              	.LBE2917:
 3264              		.loc 8 1500 0
 3265 0080 7F9ED000 		cmpw 7,30,26
 3266 0084 419E0098 		beq- 7,.L224
 3267              	.LVL269:
 3268              		.loc 8 1503 0
 3269 0088 7F9EF800 		cmpw 7,30,31
 3270 008c 40BE000C 		bne+ 7,.L251
 3271 0090 48000038 		b .L225
 3272              	.LVL270:
 3273              	.L246:
 3274              		.loc 8 277 0
 3275 0094 7F7FDB78 		mr 31,27
 3276              	.LVL271:
 3277              	.L251:
 3278              	.LBB2919:
 3279              	.LBB2920:
 3280 0098 7FE3FB78 		mr 3,31
 3281 009c 48000001 		bl _ZSt18_Rb_tree_incrementPKSt18_Rb_tree_node_base
 3282              	.LBE2920:
 3283              	.LBE2919:
 3284              	.LBB2922:
 3285              	.LBB2923:
 3286              	.LBB2924:
 3287              		.loc 8 1489 0
 3288 00a0 7F44D378 		mr 4,26
 3289              	.LBE2924:
 3290              	.LBE2923:
 3291              	.LBE2922:
 3292              	.LBB2933:
 3293              	.LBB2921:
 3294              		.loc 8 277 0
 3295 00a4 7C7B1B78 		mr 27,3
 3296              	.LVL272:
 3297              	.LBE2921:
 3298              	.LBE2933:
 3299              	.LBB2934:
 3300              	.LBB2931:
 3301              	.LBB2929:
 3302              		.loc 8 1489 0
 3303 00a8 7FE3FB78 		mr 3,31
 3304              	.LVL273:
 3305 00ac 48000001 		bl _ZSt28_Rb_tree_rebalance_for_erasePSt18_Rb_tree_node_baseRS_
 3306              	.LBB2925:
 3307              	.LBB2926:
 3308              	.LBB2927:
 3309              	.LBB2928:
 3310              		.loc 6 98 0
 3311 00b0 48000001 		bl _ZdlPv
 3312              	.LBE2928:
 3313              	.LBE2927:
 3314              	.LBE2926:
 3315              	.LBE2925:
 3316              	.LBE2929:
 3317              	.LBE2931:
 3318              	.LBE2934:
 3319              		.loc 8 1503 0
 3320 00b4 7F9ED800 		cmpw 7,30,27
 3321              	.LBB2935:
 3322              	.LBB2932:
 3323              	.LBB2930:
 3324              		.loc 8 1491 0
 3325 00b8 813C0014 		lwz 9,20(28)
 3326 00bc 3809FFFF 		addi 0,9,-1
 3327 00c0 901C0014 		stw 0,20(28)
 3328              	.LBE2930:
 3329              	.LBE2932:
 3330              	.LBE2935:
 3331              		.loc 8 1503 0
 3332 00c4 409EFFD0 		bne+ 7,.L246
 3333              	.LVL274:
 3334              	.L225:
 3335              	.LBE2916:
 3336              	.LBE2915:
 3337              	.LBE2914:
 3338              	.LBE2913:
 3339              	.LBE2912:
 3340              	.LBB2944:
 3341              	.LBB2945:
 3342              	.LBB2946:
 3343              		.loc 1 343 0
 3344 00c8 813D0000 		lwz 9,0(29)
 3345 00cc 7FA3EB78 		mr 3,29
 3346 00d0 8009000C 		lwz 0,12(9)
 3347 00d4 7C0903A6 		mtctr 0
 3348              	.LEHB19:
 3349 00d8 4E800421 		bctrl
 3350              	.LEHE19:
 3351              	.LVL275:
 3352              	.LBE2946:
 3353              	.LBE2945:
 3354              	.LBE2944:
 3355              	.LBE2901:
 3356              	.LBE2900:
 3357              	.LBB2953:
 3358              	.LBB2954:
 3359              	.LBB2955:
 3360              	.LBB2956:
 3361              	.LBB2957:
 3362              		.loc 8 639 0
 3363 00dc 809D000C 		lwz 4,12(29)
 3364 00e0 7F83E378 		mr 3,28
 3365 00e4 48000001 		bl _ZNSt8_Rb_treeIPN7sigslot12_signal_baseINS0_15single_threadedEEES4_St9_IdentityIS4_ESt4lessIS4_
 3366              	.LVL276:
 3367              	.LBE2957:
 3368              	.LBE2956:
 3369              	.LBE2955:
 3370              	.LBE2954:
 3371              	.LBE2953:
 3372              	.LBB2958:
 3373              	.LBB2959:
 3374              	.LBB2960:
 3375              		.loc 1 105 0
 3376 00e8 3D200000 		lis 9,_ZTVN7sigslot15single_threadedE+8@ha
 3377 00ec 38090008 		la 0,_ZTVN7sigslot15single_threadedE+8@l(9)
 3378              	.LBE2960:
 3379              	.LBE2959:
 3380              	.LBE2958:
 3381              	.LBE2976:
 3382              		.loc 1 516 0
 3383 00f0 83410008 		lwz 26,8(1)
 3384              	.LBB2977:
 3385              	.LBB2963:
 3386              	.LBB2962:
 3387              	.LBB2961:
 3388              		.loc 1 105 0
 3389 00f4 901D0000 		stw 0,0(29)
 3390              	.LBE2961:
 3391              	.LBE2962:
 3392              	.LBE2963:
 3393              	.LBE2977:
 3394              		.loc 1 516 0
 3395 00f8 80010024 		lwz 0,36(1)
 3396 00fc 8361000C 		lwz 27,12(1)
 3397 0100 7C0803A6 		mtlr 0
 3398 0104 83810010 		lwz 28,16(1)
 3399              	.LVL277:
 3400 0108 83A10014 		lwz 29,20(1)
 3401              	.LVL278:
 3402 010c 83C10018 		lwz 30,24(1)
 3403              	.LVL279:
 3404 0110 83E1001C 		lwz 31,28(1)
 3405 0114 38210020 		addi 1,1,32
 3406              		.cfi_remember_state
 3407              	.LCFI50:
 3408              		.cfi_def_cfa_offset 0
 3409              		.cfi_restore 31
 3410              		.cfi_restore 30
 3411              		.cfi_restore 29
 3412              		.cfi_restore 28
 3413              		.cfi_restore 27
 3414              		.cfi_restore 26
 3415 0118 4E800020 		blr
 3416              	.LVL280:
 3417              	.L224:
 3418              	.LCFI51:
 3419              		.cfi_restore_state
 3420              	.LBB2978:
 3421              	.LBB2964:
 3422              	.LBB2951:
 3423              	.LBB2947:
 3424              	.LBB2943:
 3425              	.LBB2942:
 3426              	.LBB2941:
 3427              	.LBB2940:
 3428              	.LBB2936:
 3429              	.LBB2937:
 3430              	.LBB2938:
 3431              	.LBB2939:
 3432              		.loc 8 809 0
 3433 011c 809D000C 		lwz 4,12(29)
 3434 0120 7F83E378 		mr 3,28
 3435 0124 48000001 		bl _ZNSt8_Rb_treeIPN7sigslot12_signal_baseINS0_15single_threadedEEES4_St9_IdentityIS4_ESt4lessIS4_
 3436              	.LVL281:
 3437              		.loc 8 811 0
 3438 0128 38000000 		li 0,0
 3439              		.loc 8 810 0
 3440 012c 93DD0010 		stw 30,16(29)
 3441              	.LVL282:
 3442              		.loc 8 811 0
 3443 0130 901D000C 		stw 0,12(29)
 3444              	.LVL283:
 3445              		.loc 8 812 0
 3446 0134 93DD0014 		stw 30,20(29)
 3447              		.loc 8 813 0
 3448 0138 901D0018 		stw 0,24(29)
 3449 013c 4BFFFF8C 		b .L225
 3450              	.LVL284:
 3451              	.L247:
 3452 0140 7C7F1B78 		mr 31,3
 3453              	.L232:
 3454              	.LVL285:
 3455              	.LBE2939:
 3456              	.LBE2938:
 3457              	.LBE2937:
 3458              	.LBE2936:
 3459              	.LBE2940:
 3460              	.LBE2941:
 3461              	.LBE2942:
 3462              	.LBE2943:
 3463              	.LBE2947:
 3464              	.LBE2951:
 3465              	.LBE2964:
 3466              	.LBB2965:
 3467              	.LBB2966:
 3468              	.LBB2967:
 3469              	.LBB2968:
 3470              	.LBB2969:
 3471              	.LBB2970:
 3472              		.loc 8 639 0
 3473 0144 809D000C 		lwz 4,12(29)
 3474 0148 7F83E378 		mr 3,28
 3475 014c 48000001 		bl _ZNSt8_Rb_treeIPN7sigslot12_signal_baseINS0_15single_threadedEEES4_St9_IdentityIS4_ESt4lessIS4_
 3476              	.LVL286:
 3477              	.LBE2970:
 3478              	.LBE2969:
 3479              	.LBE2968:
 3480              	.LBE2967:
 3481              	.LBE2966:
 3482              	.LBE2965:
 3483              	.LBB2971:
 3484              	.LBB2972:
 3485              	.LBB2973:
 3486              		.loc 1 105 0
 3487 0150 3D200000 		lis 9,_ZTVN7sigslot15single_threadedE+8@ha
 3488 0154 38090008 		la 0,_ZTVN7sigslot15single_threadedE+8@l(9)
 3489 0158 7FE3FB78 		mr 3,31
 3490 015c 901D0000 		stw 0,0(29)
 3491              	.LEHB20:
 3492 0160 48000001 		bl _Unwind_Resume
 3493              	.LEHE20:
 3494              	.LVL287:
 3495              	.L248:
 3496              	.LBE2973:
 3497              	.LBE2972:
 3498              	.LBE2971:
 3499              	.LBB2974:
 3500              	.LBB2952:
 3501              	.LBB2948:
 3502              	.LBB2949:
 3503              	.LBB2950:
 3504              		.loc 1 343 0
 3505 0164 813D0000 		lwz 9,0(29)
 3506 0168 7C7F1B78 		mr 31,3
 3507              	.LVL288:
 3508 016c 7FA3EB78 		mr 3,29
 3509 0170 8009000C 		lwz 0,12(9)
 3510 0174 7C0903A6 		mtctr 0
 3511 0178 4E800421 		bctrl
 3512 017c 4BFFFFC8 		b .L232
 3513              	.LBE2950:
 3514              	.LBE2949:
 3515              	.LBE2948:
 3516              	.LBE2952:
 3517              	.LBE2974:
 3518              	.LBE2978:
 3519              		.cfi_endproc
 3520              	.LFE1634:
 3521              		.section	.gcc_except_table
 3522              	.LLSDA1634:
 3523 0062 FF       		.byte	0xff
 3524 0063 FF       		.byte	0xff
 3525 0064 01       		.byte	0x1
 3526 0065 15       		.uleb128 .LLSDACSE1634-.LLSDACSB1634
 3527              	.LLSDACSB1634:
 3528 0066 38       		.uleb128 .LEHB17-.LFB1634
 3529 0067 04       		.uleb128 .LEHE17-.LEHB17
 3530 0068 C002     		.uleb128 .L247-.LFB1634
 3531 006a 00       		.uleb128 0
 3532 006b 60       		.uleb128 .LEHB18-.LFB1634
 3533 006c 04       		.uleb128 .LEHE18-.LEHB18
 3534 006d E402     		.uleb128 .L248-.LFB1634
 3535 006f 00       		.uleb128 0
 3536 0070 D801     		.uleb128 .LEHB19-.LFB1634
 3537 0072 04       		.uleb128 .LEHE19-.LEHB19
 3538 0073 C002     		.uleb128 .L247-.LFB1634
 3539 0075 00       		.uleb128 0
 3540 0076 E002     		.uleb128 .LEHB20-.LFB1634
 3541 0078 04       		.uleb128 .LEHE20-.LEHB20
 3542 0079 00       		.uleb128 0
 3543 007a 00       		.uleb128 0
 3544              	.LLSDACSE1634:
 3545              		.section	.text._ZN7sigslot9has_slotsINS_15single_threadedEED2Ev,"axG",@progbits,_ZN7sigslot9has_sl
 3546              		.size	_ZN7sigslot9has_slotsINS_15single_threadedEED2Ev, .-_ZN7sigslot9has_slotsINS_15single_thread
 3547              		.section	.text._ZN7sigslot9has_slotsINS_15single_threadedEED0Ev,"axG",@progbits,_ZN7sigslot9has_sl
 3548              		.align 2
 3549              		.weak	_ZN7sigslot9has_slotsINS_15single_threadedEED0Ev
 3550              		.type	_ZN7sigslot9has_slotsINS_15single_threadedEED0Ev, @function
 3551              	_ZN7sigslot9has_slotsINS_15single_threadedEED0Ev:
 3552              	.LFB1636:
 3553              		.loc 1 513 0
 3554              		.cfi_startproc
 3555              		.cfi_personality 0,__gxx_personality_v0
 3556              		.cfi_lsda 0,.LLSDA1636
 3557              	.LVL289:
 3558 0000 7C0802A6 		mflr 0
 3559 0004 9421FFE0 		stwu 1,-32(1)
 3560              	.LCFI52:
 3561              		.cfi_def_cfa_offset 32
 3562              		.cfi_register 65, 0
 3563              	.LBB3072:
 3564              	.LBB3073:
 3565              	.LBB3074:
 3566              		.loc 1 516 0
 3567 0008 3D200000 		lis 9,_ZTVN7sigslot9has_slotsINS_15single_threadedEEE+8@ha
 3568              	.LBE3074:
 3569              	.LBE3073:
 3570              	.LBE3072:
 3571              		.loc 1 513 0
 3572 000c 93810010 		stw 28,16(1)
 3573 0010 3B830004 		addi 28,3,4
 3574              		.cfi_offset 28, -16
 3575 0014 90010024 		stw 0,36(1)
 3576              	.LBB3158:
 3577              	.LBB3154:
 3578              	.LBB3150:
 3579              		.loc 1 516 0
 3580 0018 38090008 		la 0,_ZTVN7sigslot9has_slotsINS_15single_threadedEEE+8@l(9)
 3581              		.cfi_offset 65, 4
 3582              	.LBE3150:
 3583              	.LBE3154:
 3584              	.LBE3158:
 3585              		.loc 1 513 0
 3586 001c 93A10014 		stw 29,20(1)
 3587 0020 7C7D1B78 		mr 29,3
 3588              		.cfi_offset 29, -12
 3589              	.LVL290:
 3590 0024 93410008 		stw 26,8(1)
 3591 0028 9361000C 		stw 27,12(1)
 3592 002c 93C10018 		stw 30,24(1)
 3593 0030 93E1001C 		stw 31,28(1)
 3594              	.LBB3159:
 3595              	.LBB3155:
 3596              	.LBB3151:
 3597              		.loc 1 516 0
 3598 0034 90030000 		stw 0,0(3)
 3599              	.LVL291:
 3600              	.LEHB21:
 3601              	.LBB3075:
 3602              	.LBB3076:
 3603              	.LBB3077:
 3604              	.LBB3078:
 3605              		.loc 1 338 0
 3606              		.cfi_offset 31, -4
 3607              		.cfi_offset 30, -8
 3608              		.cfi_offset 27, -20
 3609              		.cfi_offset 26, -24
 3610 0038 48000001 		bl _ZN7sigslot15single_threaded4lockEv
 3611              	.LEHE21:
 3612              	.LVL292:
 3613              	.LBE3078:
 3614              	.LBE3077:
 3615              	.LBB3079:
 3616              		.loc 4 354 0
 3617 003c 83FD0010 		lwz 31,16(29)
 3618              	.LVL293:
 3619              	.LBE3079:
 3620              	.LBB3080:
 3621              	.LBB3081:
 3622              	.LBB3082:
 3623              		.loc 8 671 0
 3624 0040 3BDC0004 		addi 30,28,4
 3625              	.LVL294:
 3626              	.LBE3082:
 3627              	.LBE3081:
 3628              	.LBE3080:
 3629              		.loc 1 524 0
 3630 0044 7F9FF000 		cmpw 7,31,30
 3631 0048 419E0034 		beq- 7,.L254
 3632              	.LVL295:
 3633              	.L282:
 3634              		.loc 1 526 0
 3635 004c 807F0010 		lwz 3,16(31)
 3636 0050 7FA4EB78 		mr 4,29
 3637 0054 81230000 		lwz 9,0(3)
 3638 0058 80090010 		lwz 0,16(9)
 3639 005c 7C0903A6 		mtctr 0
 3640              	.LEHB22:
 3641 0060 4E800421 		bctrl
 3642              	.LEHE22:
 3643              	.LVL296:
 3644              	.LBB3083:
 3645              	.LBB3084:
 3646              		.loc 8 269 0
 3647 0064 7FE3FB78 		mr 3,31
 3648 0068 48000001 		bl _ZSt18_Rb_tree_incrementPKSt18_Rb_tree_node_base
 3649              	.LBE3084:
 3650              	.LBE3083:
 3651              		.loc 1 524 0
 3652 006c 7F9E1800 		cmpw 7,30,3
 3653              	.LBB3086:
 3654              	.LBB3085:
 3655              		.loc 8 269 0
 3656 0070 7C7F1B78 		mr 31,3
 3657              	.LVL297:
 3658              	.LBE3085:
 3659              	.LBE3086:
 3660              		.loc 1 524 0
 3661 0074 409EFFD8 		bne+ 7,.L282
 3662 0078 83FD0010 		lwz 31,16(29)
 3663              	.LVL298:
 3664              	.L254:
 3665              	.LBB3087:
 3666              	.LBB3088:
 3667              	.LBB3089:
 3668              	.LBB3090:
 3669              	.LBB3091:
 3670              	.LBB3092:
 3671              	.LBB3093:
 3672              		.loc 8 665 0
 3673 007c 3B5C0004 		addi 26,28,4
 3674              	.LBE3093:
 3675              	.LBE3092:
 3676              		.loc 8 1500 0
 3677 0080 7F9ED000 		cmpw 7,30,26
 3678 0084 419E00A0 		beq- 7,.L256
 3679              	.LVL299:
 3680              		.loc 8 1503 0
 3681 0088 7F9EF800 		cmpw 7,30,31
 3682 008c 40BE000C 		bne+ 7,.L284
 3683 0090 48000038 		b .L257
 3684              	.LVL300:
 3685              	.L279:
 3686              		.loc 8 277 0
 3687 0094 7F7FDB78 		mr 31,27
 3688              	.LVL301:
 3689              	.L284:
 3690              	.LBB3094:
 3691              	.LBB3095:
 3692 0098 7FE3FB78 		mr 3,31
 3693 009c 48000001 		bl _ZSt18_Rb_tree_incrementPKSt18_Rb_tree_node_base
 3694              	.LBE3095:
 3695              	.LBE3094:
 3696              	.LBB3097:
 3697              	.LBB3098:
 3698              	.LBB3099:
 3699              		.loc 8 1489 0
 3700 00a0 7F44D378 		mr 4,26
 3701              	.LBE3099:
 3702              	.LBE3098:
 3703              	.LBE3097:
 3704              	.LBB3108:
 3705              	.LBB3096:
 3706              		.loc 8 277 0
 3707 00a4 7C7B1B78 		mr 27,3
 3708              	.LVL302:
 3709              	.LBE3096:
 3710              	.LBE3108:
 3711              	.LBB3109:
 3712              	.LBB3106:
 3713              	.LBB3104:
 3714              		.loc 8 1489 0
 3715 00a8 7FE3FB78 		mr 3,31
 3716              	.LVL303:
 3717 00ac 48000001 		bl _ZSt28_Rb_tree_rebalance_for_erasePSt18_Rb_tree_node_baseRS_
 3718              	.LBB3100:
 3719              	.LBB3101:
 3720              	.LBB3102:
 3721              	.LBB3103:
 3722              		.loc 6 98 0
 3723 00b0 48000001 		bl _ZdlPv
 3724              	.LBE3103:
 3725              	.LBE3102:
 3726              	.LBE3101:
 3727              	.LBE3100:
 3728              	.LBE3104:
 3729              	.LBE3106:
 3730              	.LBE3109:
 3731              		.loc 8 1503 0
 3732 00b4 7F9ED800 		cmpw 7,30,27
 3733              	.LBB3110:
 3734              	.LBB3107:
 3735              	.LBB3105:
 3736              		.loc 8 1491 0
 3737 00b8 813C0014 		lwz 9,20(28)
 3738 00bc 3809FFFF 		addi 0,9,-1
 3739 00c0 901C0014 		stw 0,20(28)
 3740              	.LBE3105:
 3741              	.LBE3107:
 3742              	.LBE3110:
 3743              		.loc 8 1503 0
 3744 00c4 409EFFD0 		bne+ 7,.L279
 3745              	.LVL304:
 3746              	.L257:
 3747              	.LBE3091:
 3748              	.LBE3090:
 3749              	.LBE3089:
 3750              	.LBE3088:
 3751              	.LBE3087:
 3752              	.LBB3119:
 3753              	.LBB3120:
 3754              	.LBB3121:
 3755              		.loc 1 343 0
 3756 00c8 813D0000 		lwz 9,0(29)
 3757 00cc 7FA3EB78 		mr 3,29
 3758 00d0 8009000C 		lwz 0,12(9)
 3759 00d4 7C0903A6 		mtctr 0
 3760              	.LEHB23:
 3761 00d8 4E800421 		bctrl
 3762              	.LEHE23:
 3763              	.LVL305:
 3764              	.LBE3121:
 3765              	.LBE3120:
 3766              	.LBE3119:
 3767              	.LBE3076:
 3768              	.LBE3075:
 3769              	.LBB3128:
 3770              	.LBB3129:
 3771              	.LBB3130:
 3772              	.LBB3131:
 3773              	.LBB3132:
 3774              		.loc 8 639 0
 3775 00dc 809D000C 		lwz 4,12(29)
 3776 00e0 7F83E378 		mr 3,28
 3777 00e4 48000001 		bl _ZNSt8_Rb_treeIPN7sigslot12_signal_baseINS0_15single_threadedEEES4_St9_IdentityIS4_ESt4lessIS4_
 3778              	.LVL306:
 3779              	.LBE3132:
 3780              	.LBE3131:
 3781              	.LBE3130:
 3782              	.LBE3129:
 3783              	.LBE3128:
 3784              	.LBB3133:
 3785              	.LBB3134:
 3786              	.LBB3135:
 3787              		.loc 1 105 0
 3788 00e8 3D200000 		lis 9,_ZTVN7sigslot15single_threadedE+8@ha
 3789 00ec 38090008 		la 0,_ZTVN7sigslot15single_threadedE+8@l(9)
 3790              	.LBE3135:
 3791              	.LBE3134:
 3792              	.LBE3133:
 3793              	.LBE3151:
 3794              	.LBE3155:
 3795              	.LBE3159:
 3796              		.loc 1 516 0
 3797 00f0 7FA3EB78 		mr 3,29
 3798              	.LBB3160:
 3799              	.LBB3156:
 3800              	.LBB3152:
 3801              	.LBB3138:
 3802              	.LBB3137:
 3803              	.LBB3136:
 3804              		.loc 1 105 0
 3805 00f4 901D0000 		stw 0,0(29)
 3806              	.LBE3136:
 3807              	.LBE3137:
 3808              	.LBE3138:
 3809              	.LBE3152:
 3810              	.LBE3156:
 3811              	.LBE3160:
 3812              		.loc 1 516 0
 3813 00f8 48000001 		bl _ZdlPv
 3814 00fc 80010024 		lwz 0,36(1)
 3815 0100 83410008 		lwz 26,8(1)
 3816 0104 7C0803A6 		mtlr 0
 3817 0108 8361000C 		lwz 27,12(1)
 3818 010c 83810010 		lwz 28,16(1)
 3819              	.LVL307:
 3820 0110 83A10014 		lwz 29,20(1)
 3821              	.LVL308:
 3822 0114 83C10018 		lwz 30,24(1)
 3823              	.LVL309:
 3824 0118 83E1001C 		lwz 31,28(1)
 3825 011c 38210020 		addi 1,1,32
 3826              		.cfi_remember_state
 3827              	.LCFI53:
 3828              		.cfi_def_cfa_offset 0
 3829              		.cfi_restore 31
 3830              		.cfi_restore 30
 3831              		.cfi_restore 29
 3832              		.cfi_restore 28
 3833              		.cfi_restore 27
 3834              		.cfi_restore 26
 3835 0120 4E800020 		blr
 3836              	.LVL310:
 3837              	.L256:
 3838              	.LCFI54:
 3839              		.cfi_restore_state
 3840              	.LBB3161:
 3841              	.LBB3157:
 3842              	.LBB3153:
 3843              	.LBB3139:
 3844              	.LBB3126:
 3845              	.LBB3122:
 3846              	.LBB3118:
 3847              	.LBB3117:
 3848              	.LBB3116:
 3849              	.LBB3115:
 3850              	.LBB3111:
 3851              	.LBB3112:
 3852              	.LBB3113:
 3853              	.LBB3114:
 3854              		.loc 8 809 0
 3855 0124 809D000C 		lwz 4,12(29)
 3856 0128 7F83E378 		mr 3,28
 3857 012c 48000001 		bl _ZNSt8_Rb_treeIPN7sigslot12_signal_baseINS0_15single_threadedEEES4_St9_IdentityIS4_ESt4lessIS4_
 3858              	.LVL311:
 3859              		.loc 8 811 0
 3860 0130 38000000 		li 0,0
 3861              		.loc 8 810 0
 3862 0134 93DD0010 		stw 30,16(29)
 3863              	.LVL312:
 3864              		.loc 8 811 0
 3865 0138 901D000C 		stw 0,12(29)
 3866              	.LVL313:
 3867              		.loc 8 812 0
 3868 013c 93DD0014 		stw 30,20(29)
 3869              		.loc 8 813 0
 3870 0140 901D0018 		stw 0,24(29)
 3871 0144 4BFFFF84 		b .L257
 3872              	.LVL314:
 3873              	.L280:
 3874 0148 7C7F1B78 		mr 31,3
 3875              	.L264:
 3876              	.LVL315:
 3877              	.LBE3114:
 3878              	.LBE3113:
 3879              	.LBE3112:
 3880              	.LBE3111:
 3881              	.LBE3115:
 3882              	.LBE3116:
 3883              	.LBE3117:
 3884              	.LBE3118:
 3885              	.LBE3122:
 3886              	.LBE3126:
 3887              	.LBE3139:
 3888              	.LBB3140:
 3889              	.LBB3141:
 3890              	.LBB3142:
 3891              	.LBB3143:
 3892              	.LBB3144:
 3893              	.LBB3145:
 3894              		.loc 8 639 0
 3895 014c 809D000C 		lwz 4,12(29)
 3896 0150 7F83E378 		mr 3,28
 3897 0154 48000001 		bl _ZNSt8_Rb_treeIPN7sigslot12_signal_baseINS0_15single_threadedEEES4_St9_IdentityIS4_ESt4lessIS4_
 3898              	.LVL316:
 3899              	.LBE3145:
 3900              	.LBE3144:
 3901              	.LBE3143:
 3902              	.LBE3142:
 3903              	.LBE3141:
 3904              	.LBE3140:
 3905              	.LBB3146:
 3906              	.LBB3147:
 3907              	.LBB3148:
 3908              		.loc 1 105 0
 3909 0158 3D200000 		lis 9,_ZTVN7sigslot15single_threadedE+8@ha
 3910 015c 38090008 		la 0,_ZTVN7sigslot15single_threadedE+8@l(9)
 3911 0160 7FE3FB78 		mr 3,31
 3912 0164 901D0000 		stw 0,0(29)
 3913              	.LEHB24:
 3914 0168 48000001 		bl _Unwind_Resume
 3915              	.LEHE24:
 3916              	.LVL317:
 3917              	.L281:
 3918              	.LBE3148:
 3919              	.LBE3147:
 3920              	.LBE3146:
 3921              	.LBB3149:
 3922              	.LBB3127:
 3923              	.LBB3123:
 3924              	.LBB3124:
 3925              	.LBB3125:
 3926              		.loc 1 343 0
 3927 016c 813D0000 		lwz 9,0(29)
 3928 0170 7C7F1B78 		mr 31,3
 3929              	.LVL318:
 3930 0174 7FA3EB78 		mr 3,29
 3931 0178 8009000C 		lwz 0,12(9)
 3932 017c 7C0903A6 		mtctr 0
 3933 0180 4E800421 		bctrl
 3934 0184 4BFFFFC8 		b .L264
 3935              	.LBE3125:
 3936              	.LBE3124:
 3937              	.LBE3123:
 3938              	.LBE3127:
 3939              	.LBE3149:
 3940              	.LBE3153:
 3941              	.LBE3157:
 3942              	.LBE3161:
 3943              		.cfi_endproc
 3944              	.LFE1636:
 3945              		.section	.gcc_except_table
 3946              	.LLSDA1636:
 3947 007b FF       		.byte	0xff
 3948 007c FF       		.byte	0xff
 3949 007d 01       		.byte	0x1
 3950 007e 15       		.uleb128 .LLSDACSE1636-.LLSDACSB1636
 3951              	.LLSDACSB1636:
 3952 007f 38       		.uleb128 .LEHB21-.LFB1636
 3953 0080 04       		.uleb128 .LEHE21-.LEHB21
 3954 0081 C802     		.uleb128 .L280-.LFB1636
 3955 0083 00       		.uleb128 0
 3956 0084 60       		.uleb128 .LEHB22-.LFB1636
 3957 0085 04       		.uleb128 .LEHE22-.LEHB22
 3958 0086 EC02     		.uleb128 .L281-.LFB1636
 3959 0088 00       		.uleb128 0
 3960 0089 D801     		.uleb128 .LEHB23-.LFB1636
 3961 008b 04       		.uleb128 .LEHE23-.LEHB23
 3962 008c C802     		.uleb128 .L280-.LFB1636
 3963 008e 00       		.uleb128 0
 3964 008f E802     		.uleb128 .LEHB24-.LFB1636
 3965 0091 04       		.uleb128 .LEHE24-.LEHB24
 3966 0092 00       		.uleb128 0
 3967 0093 00       		.uleb128 0
 3968              	.LLSDACSE1636:
 3969              		.section	.text._ZN7sigslot9has_slotsINS_15single_threadedEED0Ev,"axG",@progbits,_ZN7sigslot9has_sl
 3970              		.size	_ZN7sigslot9has_slotsINS_15single_threadedEED0Ev, .-_ZN7sigslot9has_slotsINS_15single_thread
 3971              		.section	.text._ZNSt8_Rb_treeIPN7sigslot12_signal_baseINS0_15single_threadedEEES4_St9_IdentityIS4_
 3972              		.align 2
 3973              		.weak	_ZNSt8_Rb_treeIPN7sigslot12_signal_baseINS0_15single_threadedEEES4_St9_IdentityIS4_ESt4lessI
 3974              		.type	_ZNSt8_Rb_treeIPN7sigslot12_signal_baseINS0_15single_threadedEEES4_St9_IdentityIS4_ESt4lessI
 3975              	_ZNSt8_Rb_treeIPN7sigslot12_signal_baseINS0_15single_threadedEEES4_St9_IdentityIS4_ESt4lessIS4_ESaI
 3976              	.LFB1839:
 3977              		.loc 8 1264 0
 3978              		.cfi_startproc
 3979              	.LVL319:
 3980 0000 7C0802A6 		mflr 0
 3981 0004 9421FFE0 		stwu 1,-32(1)
 3982              	.LCFI55:
 3983              		.cfi_def_cfa_offset 32
 3984              		.cfi_register 65, 0
 3985 0008 93810010 		stw 28,16(1)
 3986 000c 90010024 		stw 0,36(1)
 3987 0010 9361000C 		stw 27,12(1)
 3988 0014 7C9B2378 		mr 27,4
 3989              		.cfi_offset 27, -20
 3990              		.cfi_offset 65, 4
 3991              		.cfi_offset 28, -16
 3992              	.LBB3201:
 3993              	.LBB3202:
 3994              	.LBB3203:
 3995              		.loc 4 354 0
 3996 0018 83830008 		lwz 28,8(3)
 3997              	.LVL320:
 3998              	.LBE3203:
 3999              	.LBE3202:
 4000              	.LBE3201:
 4001              		.loc 8 1264 0
 4002 001c 93A10014 		stw 29,20(1)
 4003              	.LBB3228:
 4004              	.LBB3220:
 4005              	.LBB3216:
 4006              		.loc 8 1272 0
 4007 0020 3BA30004 		addi 29,3,4
 4008              		.cfi_offset 29, -12
 4009              	.LVL321:
 4010              	.LBE3216:
 4011              	.LBE3220:
 4012              		.loc 8 1274 0
 4013 0024 2F9C0000 		cmpwi 7,28,0
 4014              	.LBE3228:
 4015              		.loc 8 1264 0
 4016 0028 93E1001C 		stw 31,28(1)
 4017 002c 93410008 		stw 26,8(1)
 4018 0030 7C7F1B78 		mr 31,3
 4019              		.cfi_offset 26, -24
 4020              		.cfi_offset 31, -4
 4021 0034 93C10018 		stw 30,24(1)
 4022              	.LBB3229:
 4023              		.loc 8 1274 0
 4024 0038 419E0084 		beq- 7,.L301
 4025              		.cfi_offset 30, -8
 4026 003c 81440000 		lwz 10,0(4)
 4027 0040 48000014 		b .L290
 4028              	.LVL322:
 4029              	.L309:
 4030              		.loc 4 354 0 discriminator 1
 4031 0044 801C0008 		lwz 0,8(28)
 4032              	.LVL323:
 4033              		.loc 8 1274 0 discriminator 1
 4034 0048 2F800000 		cmpwi 7,0,0
 4035 004c 419E0028 		beq- 7,.L308
 4036              	.LVL324:
 4037              	.L302:
 4038              		.loc 8 1274 0 is_stmt 0
 4039 0050 7C1C0378 		mr 28,0
 4040              	.LVL325:
 4041              	.L290:
 4042              		.loc 4 354 0 is_stmt 1
 4043 0054 813C0010 		lwz 9,16(28)
 4044 0058 39600001 		li 11,1
 4045              		.loc 8 1278 0
 4046 005c 7F895040 		cmplw 7,9,10
 4047 0060 41BDFFE4 		bgt- 7,.L309
 4048              		.loc 4 354 0 discriminator 2
 4049 0064 801C000C 		lwz 0,12(28)
 4050 0068 39600000 		li 11,0
 4051              	.LVL326:
 4052              		.loc 8 1274 0 discriminator 2
 4053 006c 2F800000 		cmpwi 7,0,0
 4054 0070 409EFFE0 		bne+ 7,.L302
 4055              	.LVL327:
 4056              	.L308:
 4057              		.loc 8 1281 0
 4058 0074 2F8B0000 		cmpwi 7,11,0
 4059 0078 7F83E378 		mr 3,28
 4060              	.LVL328:
 4061 007c 409E0044 		bne- 7,.L287
 4062              	.LVL329:
 4063              		.loc 8 1289 0
 4064 0080 7F8A4840 		cmplw 7,10,9
 4065 0084 419D0060 		bgt- 7,.L310
 4066              	.LVL330:
 4067              	.L297:
 4068              		.loc 8 1292 0
 4069 0088 38000000 		li 0,0
 4070 008c 38800000 		li 4,0
 4071 0090 5004C00E 		rlwimi 4,0,24,0,7
 4072              	.LBE3229:
 4073              		.loc 8 1293 0
 4074 0094 80010024 		lwz 0,36(1)
 4075 0098 83410008 		lwz 26,8(1)
 4076 009c 7C0803A6 		mtlr 0
 4077 00a0 8361000C 		lwz 27,12(1)
 4078              	.LVL331:
 4079 00a4 83810010 		lwz 28,16(1)
 4080 00a8 83A10014 		lwz 29,20(1)
 4081 00ac 83C10018 		lwz 30,24(1)
 4082 00b0 83E1001C 		lwz 31,28(1)
 4083              	.LVL332:
 4084 00b4 38210020 		addi 1,1,32
 4085              		.cfi_remember_state
 4086              	.LCFI56:
 4087              		.cfi_def_cfa_offset 0
 4088              		.cfi_restore 31
 4089              		.cfi_restore 30
 4090              		.cfi_restore 29
 4091              		.cfi_restore 28
 4092              		.cfi_restore 27
 4093              		.cfi_restore 26
 4094 00b8 4E800020 		blr
 4095              	.LVL333:
 4096              	.L301:
 4097              	.LCFI57:
 4098              		.cfi_restore_state
 4099              	.LBB3230:
 4100              		.loc 8 1272 0
 4101 00bc 7FBCEB78 		mr 28,29
 4102              	.LVL334:
 4103              	.L287:
 4104              		.loc 8 1283 0
 4105 00c0 801F000C 		lwz 0,12(31)
 4106 00c4 7F9C0000 		cmpw 7,28,0
 4107 00c8 419E003C 		beq- 7,.L311
 4108              	.LVL335:
 4109              	.LBB3221:
 4110              	.LBB3222:
 4111              		.loc 8 203 0
 4112 00cc 7F83E378 		mr 3,28
 4113 00d0 48000001 		bl _ZSt18_Rb_tree_decrementPSt18_Rb_tree_node_base
 4114              	.LVL336:
 4115 00d4 815B0000 		lwz 10,0(27)
 4116 00d8 81230010 		lwz 9,16(3)
 4117              	.LVL337:
 4118              	.LBE3222:
 4119              	.LBE3221:
 4120              		.loc 8 1289 0
 4121 00dc 7F8A4840 		cmplw 7,10,9
 4122 00e0 409DFFA8 		ble+ 7,.L297
 4123              	.LVL338:
 4124              	.L310:
 4125              	.LBB3223:
 4126              	.LBB3217:
 4127              		.loc 8 969 0
 4128 00e4 7F9CE800 		cmpw 7,28,29
 4129 00e8 3B400001 		li 26,1
 4130 00ec 419E0038 		beq- 7,.L298
 4131              	.LVL339:
 4132              		.loc 8 1264 0
 4133 00f0 835C0010 		lwz 26,16(28)
 4134 00f4 7F5A5010 		subfc 26,26,10
 4135 00f8 7F5AD110 		subfe 26,26,26
 4136 00fc 7F5A00D0 		neg 26,26
 4137 0100 48000024 		b .L298
 4138              	.LVL340:
 4139              	.L311:
 4140              	.LBE3217:
 4141              	.LBE3223:
 4142              	.LBB3224:
 4143              	.LBB3225:
 4144              		.loc 8 969 0
 4145 0104 7F9CE800 		cmpw 7,28,29
 4146 0108 3B400001 		li 26,1
 4147 010c 419E0018 		beq- 7,.L298
 4148              	.LVL341:
 4149              		.loc 8 1264 0
 4150 0110 835B0000 		lwz 26,0(27)
 4151 0114 801C0010 		lwz 0,16(28)
 4152              	.LVL342:
 4153 0118 7F40D010 		subfc 26,0,26
 4154 011c 7F5AD110 		subfe 26,26,26
 4155 0120 7F5A00D0 		neg 26,26
 4156              	.LVL343:
 4157              	.L298:
 4158              	.LBE3225:
 4159              	.LBE3224:
 4160              	.LBB3226:
 4161              	.LBB3218:
 4162              	.LBB3204:
 4163              	.LBB3205:
 4164              	.LBB3206:
 4165              	.LBB3207:
 4166              	.LBB3208:
 4167              		.loc 6 92 0
 4168 0124 38600014 		li 3,20
 4169 0128 48000001 		bl _Znwj
 4170              	.LBE3208:
 4171              	.LBE3207:
 4172              	.LBE3206:
 4173              	.LBB3211:
 4174              	.LBB3212:
 4175              		.loc 6 108 0
 4176 012c 2F83FFF0 		cmpwi 7,3,-16
 4177              	.LBE3212:
 4178              	.LBE3211:
 4179              	.LBB3214:
 4180              	.LBB3210:
 4181              	.LBB3209:
 4182              		.loc 6 92 0
 4183 0130 7C7E1B78 		mr 30,3
 4184              	.LVL344:
 4185              	.LBE3209:
 4186              	.LBE3210:
 4187              	.LBE3214:
 4188              	.LBB3215:
 4189              	.LBB3213:
 4190              		.loc 6 108 0
 4191 0134 419E000C 		beq- 7,.L300
 4192 0138 801B0000 		lwz 0,0(27)
 4193 013c 90030010 		stw 0,16(3)
 4194              	.L300:
 4195              	.LVL345:
 4196              	.LBE3213:
 4197              	.LBE3215:
 4198              	.LBE3205:
 4199              	.LBE3204:
 4200              		.loc 8 973 0
 4201 0140 7F43D378 		mr 3,26
 4202              	.LVL346:
 4203 0144 7FC4F378 		mr 4,30
 4204 0148 7F85E378 		mr 5,28
 4205 014c 7FA6EB78 		mr 6,29
 4206 0150 48000001 		bl _ZSt29_Rb_tree_insert_and_rebalancebPSt18_Rb_tree_node_baseS0_RS_
 4207              		.loc 8 976 0
 4208 0154 813F0014 		lwz 9,20(31)
 4209              		.loc 8 1291 0
 4210 0158 38800000 		li 4,0
 4211 015c 7FC3F378 		mr 3,30
 4212              		.loc 8 976 0
 4213 0160 38090001 		addi 0,9,1
 4214              	.LBE3218:
 4215              	.LBE3226:
 4216              	.LBE3230:
 4217              		.loc 8 1293 0
 4218 0164 83410008 		lwz 26,8(1)
 4219              	.LVL347:
 4220              	.LBB3231:
 4221              	.LBB3227:
 4222              	.LBB3219:
 4223              		.loc 8 976 0
 4224 0168 901F0014 		stw 0,20(31)
 4225              	.LVL348:
 4226              		.loc 8 1291 0
 4227 016c 38000001 		li 0,1
 4228 0170 5004C00E 		rlwimi 4,0,24,0,7
 4229              	.LBE3219:
 4230              	.LBE3227:
 4231              	.LBE3231:
 4232              		.loc 8 1293 0
 4233 0174 80010024 		lwz 0,36(1)
 4234 0178 8361000C 		lwz 27,12(1)
 4235              	.LVL349:
 4236 017c 7C0803A6 		mtlr 0
 4237 0180 83810010 		lwz 28,16(1)
 4238 0184 83A10014 		lwz 29,20(1)
 4239 0188 83C10018 		lwz 30,24(1)
 4240              	.LVL350:
 4241 018c 83E1001C 		lwz 31,28(1)
 4242              	.LVL351:
 4243 0190 38210020 		addi 1,1,32
 4244              		.cfi_restore 26
 4245              		.cfi_restore 27
 4246              		.cfi_restore 28
 4247              		.cfi_restore 29
 4248              		.cfi_restore 30
 4249              		.cfi_restore 31
 4250              	.LCFI58:
 4251              		.cfi_def_cfa_offset 0
 4252 0194 4E800020 		blr
 4253              		.cfi_endproc
 4254              	.LFE1839:
 4255              		.size	_ZNSt8_Rb_treeIPN7sigslot12_signal_baseINS0_15single_threadedEEES4_St9_IdentityIS4_ESt4lessI
 4256              		.section	.text._ZN7sigslot7signal3IP9GuiButtoniRK6_POINTNS_15single_threadedEE7connectI10DeviceMen
 4257              		.align 2
 4258              		.weak	_ZN7sigslot7signal3IP9GuiButtoniRK6_POINTNS_15single_threadedEE7connectI10DeviceMenuEEvPT_MS
 4259              		.type	_ZN7sigslot7signal3IP9GuiButtoniRK6_POINTNS_15single_threadedEE7connectI10DeviceMenuEEvPT_MS
 4260              	_ZN7sigslot7signal3IP9GuiButtoniRK6_POINTNS_15single_threadedEE7connectI10DeviceMenuEEvPT_MSA_FvS2_
 4261              	.LFB1644:
 4262              		.loc 1 2308 0
 4263              		.cfi_startproc
 4264              		.cfi_personality 0,__gxx_personality_v0
 4265              		.cfi_lsda 0,.LLSDA1644
 4266              	.LVL352:
 4267 0000 7C0802A6 		mflr 0
 4268 0004 9421FFD0 		stwu 1,-48(1)
 4269              	.LCFI59:
 4270              		.cfi_def_cfa_offset 48
 4271              		.cfi_register 65, 0
 4272 0008 9361001C 		stw 27,28(1)
 4273 000c 90010034 		stw 0,52(1)
 4274 0010 93C10028 		stw 30,40(1)
 4275 0014 7C9E2378 		mr 30,4
 4276              		.cfi_offset 30, -8
 4277              		.cfi_offset 65, 4
 4278              		.cfi_offset 27, -20
 4279              	.LBB3232:
 4280              	.LBB3233:
 4281              	.LBB3234:
 4282              		.loc 1 338 0
 4283 0018 81230000 		lwz 9,0(3)
 4284              	.LBE3234:
 4285              	.LBE3233:
 4286              	.LBE3232:
 4287              		.loc 1 2308 0
 4288 001c 93E1002C 		stw 31,44(1)
 4289 0020 7C7F1B78 		mr 31,3
 4290              		.cfi_offset 31, -4
 4291              	.LVL353:
 4292              	.LBB3287:
 4293              	.LBB3238:
 4294              	.LBB3235:
 4295              		.loc 1 338 0
 4296 0024 80090008 		lwz 0,8(9)
 4297              	.LBE3235:
 4298              	.LBE3238:
 4299              	.LBE3287:
 4300              		.loc 1 2308 0
 4301 0028 93810020 		stw 28,32(1)
 4302 002c 93A10024 		stw 29,36(1)
 4303              	.LBB3288:
 4304              	.LBB3239:
 4305              	.LBB3236:
 4306              		.loc 1 338 0
 4307 0030 7C0903A6 		mtctr 0
 4308              	.LBE3236:
 4309              	.LBE3239:
 4310              	.LBE3288:
 4311              		.loc 1 2308 0
 4312 0034 83650000 		lwz 27,0(5)
 4313 0038 83850004 		lwz 28,4(5)
 4314              		.cfi_offset 29, -12
 4315              		.cfi_offset 28, -16
 4316              	.LEHB25:
 4317              	.LBB3289:
 4318              	.LBB3240:
 4319              	.LBB3237:
 4320              		.loc 1 338 0
 4321 003c 4E800421 		bctrl
 4322              	.LEHE25:
 4323              	.LVL354:
 4324              	.LBE3237:
 4325              	.LBE3240:
 4326              		.loc 1 2314 0
 4327 0040 38600010 		li 3,16
 4328              	.LEHB26:
 4329 0044 48000001 		bl _Znwj
 4330              	.LBB3241:
 4331              	.LBB3242:
 4332              		.loc 1 1778 0
 4333 0048 3D200000 		lis 9,_ZTVN7sigslot12_connection3I10DeviceMenuP9GuiButtoniRK6_POINTNS_15single_threadedEEE+8@ha
 4334              		.loc 1 1779 0
 4335 004c 93C30004 		stw 30,4(3)
 4336              		.loc 1 1778 0
 4337 0050 38090008 		la 0,_ZTVN7sigslot12_connection3I10DeviceMenuP9GuiButtoniRK6_POINTNS_15single_threadedEEE+8@l(9)
 4338              		.loc 1 1780 0
 4339 0054 93630008 		stw 27,8(3)
 4340              		.loc 1 1778 0
 4341 0058 90030000 		stw 0,0(3)
 4342              	.LBE3242:
 4343              	.LBE3241:
 4344              		.loc 1 2314 0
 4345 005c 7C7D1B78 		mr 29,3
 4346              	.LVL355:
 4347              	.LBB3244:
 4348              	.LBB3243:
 4349              		.loc 1 1780 0
 4350 0060 9383000C 		stw 28,12(3)
 4351              	.LVL356:
 4352              	.LBE3243:
 4353              	.LBE3244:
 4354              	.LBB3245:
 4355              	.LBB3246:
 4356              	.LBB3247:
 4357              	.LBB3248:
 4358              	.LBB3249:
 4359              	.LBB3250:
 4360              	.LBB3251:
 4361              	.LBB3252:
 4362              		.loc 6 92 0
 4363 0064 3860000C 		li 3,12
 4364              	.LVL357:
 4365 0068 48000001 		bl _Znwj
 4366              	.LVL358:
 4367              	.LBE3252:
 4368              	.LBE3251:
 4369              	.LBE3250:
 4370              	.LBB3253:
 4371              	.LBB3254:
 4372              		.loc 6 108 0 discriminator 1
 4373 006c 2F83FFF8 		cmpwi 7,3,-8
 4374 0070 419E0008 		beq- 7,.L314
 4375              		.loc 6 108 0 is_stmt 0
 4376 0074 93A30008 		stw 29,8(3)
 4377              	.LVL359:
 4378              	.L314:
 4379              	.LBE3254:
 4380              	.LBE3253:
 4381              	.LBE3249:
 4382              	.LBE3248:
 4383              		.loc 5 1516 0 is_stmt 1
 4384 0078 389F0004 		addi 4,31,4
 4385              	.LBE3247:
 4386              	.LBE3246:
 4387              	.LBE3245:
 4388              	.LBB3259:
 4389              	.LBB3260:
 4390              		.loc 1 503 0
 4391 007c 3BBE00B0 		addi 29,30,176
 4392              	.LVL360:
 4393              	.LBE3260:
 4394              	.LBE3259:
 4395              	.LBB3276:
 4396              	.LBB3257:
 4397              	.LBB3255:
 4398              		.loc 5 1516 0
 4399 0080 48000001 		bl _ZNSt8__detail15_List_node_base7_M_hookEPS0_
 4400              	.LVL361:
 4401              	.LBE3255:
 4402              	.LBE3257:
 4403              	.LBE3276:
 4404              	.LBB3277:
 4405              	.LBB3273:
 4406              	.LBB3261:
 4407              	.LBB3262:
 4408              		.loc 1 338 0
 4409 0084 813E00B0 		lwz 9,176(30)
 4410              	.LBE3262:
 4411              	.LBE3261:
 4412              	.LBE3273:
 4413              	.LBE3277:
 4414              	.LBB3278:
 4415              	.LBB3258:
 4416              	.LBB3256:
 4417              		.loc 5 1516 0
 4418 0088 93E10008 		stw 31,8(1)
 4419              	.LVL362:
 4420              	.LBE3256:
 4421              	.LBE3258:
 4422              	.LBE3278:
 4423              	.LBB3279:
 4424              	.LBB3274:
 4425              	.LBB3264:
 4426              	.LBB3263:
 4427              		.loc 1 338 0
 4428 008c 7FA3EB78 		mr 3,29
 4429 0090 80090008 		lwz 0,8(9)
 4430 0094 7C0903A6 		mtctr 0
 4431 0098 4E800421 		bctrl
 4432              	.LEHE26:
 4433              	.LVL363:
 4434              	.LBE3263:
 4435              	.LBE3264:
 4436              	.LBB3265:
 4437              	.LBB3266:
 4438              		.file 9 "d:\\devkitpro\\devkitppc\\bin\\../lib/gcc/powerpc-eabi/4.6.3/../../../../powerpc-eabi/inc
 4439              		.loc 9 410 0
 4440 009c 387E00B4 		addi 3,30,180
 4441 00a0 38810008 		addi 4,1,8
 4442              	.LEHB27:
 4443 00a4 48000001 		bl _ZNSt8_Rb_treeIPN7sigslot12_signal_baseINS0_15single_threadedEEES4_St9_IdentityIS4_ESt4lessIS4_
 4444              	.LEHE27:
 4445              	.LVL364:
 4446              	.LBE3266:
 4447              	.LBE3265:
 4448              	.LBB3267:
 4449              	.LBB3268:
 4450              	.LBB3269:
 4451              		.loc 1 343 0
 4452 00a8 813E00B0 		lwz 9,176(30)
 4453 00ac 7FA3EB78 		mr 3,29
 4454 00b0 8009000C 		lwz 0,12(9)
 4455 00b4 7C0903A6 		mtctr 0
 4456              	.LEHB28:
 4457 00b8 4E800421 		bctrl
 4458              	.LEHE28:
 4459              	.LVL365:
 4460              	.LBE3269:
 4461              	.LBE3268:
 4462              	.LBE3267:
 4463              	.LBE3274:
 4464              	.LBE3279:
 4465              	.LBB3280:
 4466              	.LBB3281:
 4467              	.LBB3282:
 4468 00bc 813F0000 		lwz 9,0(31)
 4469 00c0 7FE3FB78 		mr 3,31
 4470 00c4 8009000C 		lwz 0,12(9)
 4471 00c8 7C0903A6 		mtctr 0
 4472              	.LEHB29:
 4473 00cc 4E800421 		bctrl
 4474              	.LEHE29:
 4475              	.LBE3282:
 4476              	.LBE3281:
 4477              	.LBE3280:
 4478              	.LBE3289:
 4479              		.loc 1 2317 0
 4480 00d0 80010034 		lwz 0,52(1)
 4481 00d4 8361001C 		lwz 27,28(1)
 4482              	.LVL366:
 4483 00d8 7C0803A6 		mtlr 0
 4484 00dc 83810020 		lwz 28,32(1)
 4485              	.LVL367:
 4486 00e0 83A10024 		lwz 29,36(1)
 4487              	.LVL368:
 4488 00e4 83C10028 		lwz 30,40(1)
 4489              	.LVL369:
 4490 00e8 83E1002C 		lwz 31,44(1)
 4491              	.LVL370:
 4492 00ec 38210030 		addi 1,1,48
 4493              		.cfi_remember_state
 4494              	.LCFI60:
 4495              		.cfi_def_cfa_offset 0
 4496              		.cfi_restore 31
 4497              		.cfi_restore 30
 4498              		.cfi_restore 29
 4499              		.cfi_restore 28
 4500              		.cfi_restore 27
 4501 00f0 4E800020 		blr
 4502              	.LVL371:
 4503              	.L321:
 4504              	.LCFI61:
 4505              		.cfi_restore_state
 4506 00f4 7C7E1B78 		mr 30,3
 4507              	.LVL372:
 4508              	.L318:
 4509              	.LBB3290:
 4510              	.LBB3283:
 4511              	.LBB3284:
 4512              	.LBB3285:
 4513              		.loc 1 343 0
 4514 00f8 813F0000 		lwz 9,0(31)
 4515 00fc 7FE3FB78 		mr 3,31
 4516 0100 8009000C 		lwz 0,12(9)
 4517 0104 7C0903A6 		mtctr 0
 4518 0108 4E800421 		bctrl
 4519 010c 7FC3F378 		mr 3,30
 4520              	.LEHB30:
 4521 0110 48000001 		bl _Unwind_Resume
 4522              	.LEHE30:
 4523              	.LVL373:
 4524              	.L322:
 4525              	.LBE3285:
 4526              	.LBE3284:
 4527              	.LBE3283:
 4528              	.LBB3286:
 4529              	.LBB3275:
 4530              	.LBB3270:
 4531              	.LBB3271:
 4532              	.LBB3272:
 4533 0114 813E00B0 		lwz 9,176(30)
 4534 0118 7C7E1B78 		mr 30,3
 4535              	.LVL374:
 4536 011c 7FA3EB78 		mr 3,29
 4537 0120 8009000C 		lwz 0,12(9)
 4538 0124 7C0903A6 		mtctr 0
 4539 0128 4E800421 		bctrl
 4540 012c 4BFFFFCC 		b .L318
 4541              	.LBE3272:
 4542              	.LBE3271:
 4543              	.LBE3270:
 4544              	.LBE3275:
 4545              	.LBE3286:
 4546              	.LBE3290:
 4547              		.cfi_endproc
 4548              	.LFE1644:
 4549              		.section	.gcc_except_table
 4550              	.LLSDA1644:
 4551 0094 FF       		.byte	0xff
 4552 0095 FF       		.byte	0xff
 4553 0096 01       		.byte	0x1
 4554 0097 1F       		.uleb128 .LLSDACSE1644-.LLSDACSB1644
 4555              	.LLSDACSB1644:
 4556 0098 3C       		.uleb128 .LEHB25-.LFB1644
 4557 0099 04       		.uleb128 .LEHE25-.LEHB25
 4558 009a 00       		.uleb128 0
 4559 009b 00       		.uleb128 0
 4560 009c 44       		.uleb128 .LEHB26-.LFB1644
 4561 009d 58       		.uleb128 .LEHE26-.LEHB26
 4562 009e F401     		.uleb128 .L321-.LFB1644
 4563 00a0 00       		.uleb128 0
 4564 00a1 A401     		.uleb128 .LEHB27-.LFB1644
 4565 00a3 04       		.uleb128 .LEHE27-.LEHB27
 4566 00a4 9402     		.uleb128 .L322-.LFB1644
 4567 00a6 00       		.uleb128 0
 4568 00a7 B801     		.uleb128 .LEHB28-.LFB1644
 4569 00a9 04       		.uleb128 .LEHE28-.LEHB28
 4570 00aa F401     		.uleb128 .L321-.LFB1644
 4571 00ac 00       		.uleb128 0
 4572 00ad CC01     		.uleb128 .LEHB29-.LFB1644
 4573 00af 04       		.uleb128 .LEHE29-.LEHB29
 4574 00b0 00       		.uleb128 0
 4575 00b1 00       		.uleb128 0
 4576 00b2 9002     		.uleb128 .LEHB30-.LFB1644
 4577 00b4 04       		.uleb128 .LEHE30-.LEHB30
 4578 00b5 00       		.uleb128 0
 4579 00b6 00       		.uleb128 0
 4580              	.LLSDACSE1644:
 4581              		.section	.text._ZN7sigslot7signal3IP9GuiButtoniRK6_POINTNS_15single_threadedEE7connectI10DeviceMen
 4582              		.size	_ZN7sigslot7signal3IP9GuiButtoniRK6_POINTNS_15single_threadedEE7connectI10DeviceMenuEEvPT_MS
 4583              		.section	.text._ZNSt8_Rb_treeIPN7sigslot12_signal_baseINS0_15single_threadedEEES4_St9_IdentityIS4_
 4584              		.align 2
 4585              		.weak	_ZNSt8_Rb_treeIPN7sigslot12_signal_baseINS0_15single_threadedEEES4_St9_IdentityIS4_ESt4lessI
 4586              		.type	_ZNSt8_Rb_treeIPN7sigslot12_signal_baseINS0_15single_threadedEEES4_St9_IdentityIS4_ESt4lessI
 4587              	_ZNSt8_Rb_treeIPN7sigslot12_signal_baseINS0_15single_threadedEEES4_St9_IdentityIS4_ESt4lessIS4_ESaI
 4588              	.LFB1939:
 4589              		.loc 8 1510 0
 4590              		.cfi_startproc
 4591              	.LVL375:
 4592 0000 7C0802A6 		mflr 0
 4593 0004 9421FFE0 		stwu 1,-32(1)
 4594              	.LCFI62:
 4595              		.cfi_def_cfa_offset 32
 4596              		.cfi_register 65, 0
 4597 0008 93810010 		stw 28,16(1)
 4598              	.LBB3343:
 4599              	.LBB3344:
 4600              		.loc 8 1155 0
 4601 000c 3B830004 		addi 28,3,4
 4602              		.cfi_offset 28, -16
 4603              	.LBE3344:
 4604              	.LBE3343:
 4605              		.loc 8 1510 0
 4606 0010 90010024 		stw 0,36(1)
 4607 0014 93410008 		stw 26,8(1)
 4608              	.LBB3403:
 4609              	.LBB3365:
 4610              	.LBB3345:
 4611              		.loc 8 1155 0
 4612 0018 7F9AE378 		mr 26,28
 4613              		.cfi_offset 26, -24
 4614              		.cfi_offset 65, 4
 4615              	.LBE3345:
 4616              		.loc 4 354 0
 4617 001c 80030008 		lwz 0,8(3)
 4618              	.LBE3365:
 4619              	.LBE3403:
 4620              		.loc 8 1510 0
 4621 0020 93A10014 		stw 29,20(1)
 4622              	.LBB3404:
 4623              	.LBB3366:
 4624              	.LBB3358:
 4625              		.loc 8 1155 0
 4626 0024 7F9DE378 		mr 29,28
 4627              		.cfi_offset 29, -12
 4628              		.loc 8 1156 0
 4629 0028 2F800000 		cmpwi 7,0,0
 4630              	.LBE3358:
 4631              	.LBE3366:
 4632              	.LBE3404:
 4633              		.loc 8 1510 0
 4634 002c 93C10018 		stw 30,24(1)
 4635 0030 9361000C 		stw 27,12(1)
 4636 0034 7C7E1B78 		mr 30,3
 4637              		.cfi_offset 27, -20
 4638              		.cfi_offset 30, -8
 4639              	.LVL376:
 4640 0038 93E1001C 		stw 31,28(1)
 4641              	.LBB3405:
 4642              	.LBB3367:
 4643              	.LBB3359:
 4644              		.loc 8 1156 0
 4645 003c 419E0040 		beq- 7,.L325
 4646              		.cfi_offset 31, -4
 4647              	.LVL377:
 4648 0040 81640000 		lwz 11,0(4)
 4649 0044 7C1A0378 		mr 26,0
 4650 0048 48000010 		b .L336
 4651              	.LVL378:
 4652              	.L354:
 4653              	.LBE3359:
 4654              		.loc 4 354 0
 4655 004c 835A000C 		lwz 26,12(26)
 4656              	.LVL379:
 4657              	.LBB3360:
 4658              		.loc 8 1156 0
 4659 0050 2F9A0000 		cmpwi 7,26,0
 4660 0054 419E0024 		beq- 7,.L353
 4661              	.L336:
 4662              	.LVL380:
 4663              	.LBE3360:
 4664              		.loc 4 354 0
 4665 0058 813A0010 		lwz 9,16(26)
 4666              	.LBB3361:
 4667              	.LBB3346:
 4668              		.loc 8 1158 0
 4669 005c 7F895840 		cmplw 7,9,11
 4670 0060 41BCFFEC 		blt- 7,.L354
 4671              	.LVL381:
 4672              	.LBB3347:
 4673              		.loc 8 1160 0
 4674 0064 409D0094 		ble- 7,.L328
 4675              	.LVL382:
 4676              	.LBE3347:
 4677              	.LBE3346:
 4678              	.LBE3361:
 4679              		.loc 4 354 0
 4680 0068 7F5DD378 		mr 29,26
 4681              		.loc 8 1161 0
 4682 006c 835A0008 		lwz 26,8(26)
 4683              	.LVL383:
 4684              	.LBB3362:
 4685              		.loc 8 1156 0
 4686 0070 2F9A0000 		cmpwi 7,26,0
 4687 0074 409EFFE4 		bne+ 7,.L336
 4688              	.LVL384:
 4689              	.L353:
 4690 0078 7FBAEB78 		mr 26,29
 4691              	.LVL385:
 4692              	.L325:
 4693              	.LBE3362:
 4694              	.LBE3367:
 4695              	.LBB3368:
 4696              	.LBB3369:
 4697              	.LBB3370:
 4698              		.loc 8 1500 0
 4699 007c 813E000C 		lwz 9,12(30)
 4700              	.LBE3370:
 4701              	.LBE3369:
 4702              	.LBE3368:
 4703              	.LBB3399:
 4704              	.LBB3363:
 4705              		.loc 4 354 0
 4706 0080 837E0014 		lwz 27,20(30)
 4707              	.LVL386:
 4708              	.LBE3363:
 4709              	.LBE3399:
 4710              	.LBB3400:
 4711              	.LBB3397:
 4712              	.LBB3395:
 4713              		.loc 8 1500 0
 4714 0084 7F9A4800 		cmpw 7,26,9
 4715 0088 419E00DC 		beq- 7,.L355
 4716              	.L337:
 4717              	.LVL387:
 4718              		.loc 8 1503 0
 4719 008c 7F9DD000 		cmpw 7,29,26
 4720 0090 419E0100 		beq- 7,.L344
 4721              	.LVL388:
 4722              	.L351:
 4723              	.LBB3371:
 4724              	.LBB3372:
 4725              		.loc 8 277 0
 4726 0094 7F43D378 		mr 3,26
 4727 0098 48000001 		bl _ZSt18_Rb_tree_incrementPKSt18_Rb_tree_node_base
 4728              	.LBE3372:
 4729              	.LBE3371:
 4730              	.LBB3374:
 4731              	.LBB3375:
 4732              	.LBB3376:
 4733              		.loc 8 1489 0
 4734 009c 7F84E378 		mr 4,28
 4735              	.LBE3376:
 4736              	.LBE3375:
 4737              	.LBE3374:
 4738              	.LBB3387:
 4739              	.LBB3373:
 4740              		.loc 8 277 0
 4741 00a0 7C7F1B78 		mr 31,3
 4742              	.LVL389:
 4743              	.LBE3373:
 4744              	.LBE3387:
 4745              	.LBB3388:
 4746              	.LBB3384:
 4747              	.LBB3381:
 4748              		.loc 8 1489 0
 4749 00a4 7F43D378 		mr 3,26
 4750              	.LVL390:
 4751 00a8 48000001 		bl _ZSt28_Rb_tree_rebalance_for_erasePSt18_Rb_tree_node_baseRS_
 4752              	.LBE3381:
 4753              	.LBE3384:
 4754              	.LBE3388:
 4755              		.loc 8 277 0
 4756 00ac 7FFAFB78 		mr 26,31
 4757              	.LVL391:
 4758              	.LBB3389:
 4759              	.LBB3385:
 4760              	.LBB3382:
 4761              	.LBB3377:
 4762              	.LBB3378:
 4763              	.LBB3379:
 4764              	.LBB3380:
 4765              		.loc 6 98 0
 4766 00b0 48000001 		bl _ZdlPv
 4767              	.LBE3380:
 4768              	.LBE3379:
 4769              	.LBE3378:
 4770              	.LBE3377:
 4771              	.LBE3382:
 4772              	.LBE3385:
 4773              	.LBE3389:
 4774              		.loc 8 1503 0
 4775 00b4 7F9DF800 		cmpw 7,29,31
 4776              	.LBB3390:
 4777              	.LBB3386:
 4778              	.LBB3383:
 4779              		.loc 8 1491 0
 4780 00b8 813E0014 		lwz 9,20(30)
 4781 00bc 3809FFFF 		addi 0,9,-1
 4782 00c0 901E0014 		stw 0,20(30)
 4783              	.LBE3383:
 4784              	.LBE3386:
 4785              	.LBE3390:
 4786              		.loc 8 1503 0
 4787 00c4 409EFFD0 		bne+ 7,.L351
 4788 00c8 7F60D850 		subf 27,0,27
 4789              	.LVL392:
 4790              	.L339:
 4791              	.LBE3395:
 4792              	.LBE3397:
 4793              	.LBE3400:
 4794              	.LBE3405:
 4795              		.loc 8 1517 0
 4796 00cc 80010024 		lwz 0,36(1)
 4797 00d0 7F63DB78 		mr 3,27
 4798 00d4 83410008 		lwz 26,8(1)
 4799 00d8 7C0803A6 		mtlr 0
 4800 00dc 8361000C 		lwz 27,12(1)
 4801 00e0 83810010 		lwz 28,16(1)
 4802 00e4 83A10014 		lwz 29,20(1)
 4803              	.LVL393:
 4804 00e8 83C10018 		lwz 30,24(1)
 4805              	.LVL394:
 4806 00ec 83E1001C 		lwz 31,28(1)
 4807 00f0 38210020 		addi 1,1,32
 4808              		.cfi_remember_state
 4809              	.LCFI63:
 4810              		.cfi_def_cfa_offset 0
 4811              		.cfi_restore 31
 4812              		.cfi_restore 30
 4813              		.cfi_restore 29
 4814              		.cfi_restore 28
 4815              		.cfi_restore 27
 4816              		.cfi_restore 26
 4817 00f4 4E800020 		blr
 4818              	.LVL395:
 4819              	.L328:
 4820              	.LCFI64:
 4821              		.cfi_restore_state
 4822              	.LBB3406:
 4823              	.LBB3401:
 4824              		.loc 4 354 0
 4825 00f8 815A0008 		lwz 10,8(26)
 4826              	.LVL396:
 4827 00fc 813A000C 		lwz 9,12(26)
 4828              	.LVL397:
 4829              	.L352:
 4830              	.LBB3364:
 4831              	.LBB3357:
 4832              	.LBB3356:
 4833              	.LBB3348:
 4834              	.LBB3349:
 4835              	.LBB3350:
 4836              		.loc 8 1089 0
 4837 0100 2F8A0000 		cmpwi 7,10,0
 4838 0104 419E0020 		beq- 7,.L329
 4839              	.L356:
 4840              	.LVL398:
 4841              		.loc 8 1090 0
 4842 0108 810A0010 		lwz 8,16(10)
 4843 010c 7F885840 		cmplw 7,8,11
 4844 0110 419C004C 		blt- 7,.L330
 4845              	.LVL399:
 4846              	.LBE3350:
 4847              		.loc 4 354 0
 4848 0114 7D5A5378 		mr 26,10
 4849              		.loc 8 1091 0
 4850 0118 814A0008 		lwz 10,8(10)
 4851              	.LVL400:
 4852              	.LBB3351:
 4853              		.loc 8 1089 0
 4854 011c 2F8A0000 		cmpwi 7,10,0
 4855 0120 409EFFE8 		bne+ 7,.L356
 4856              	.LVL401:
 4857              	.L329:
 4858              	.LBE3351:
 4859              	.LBE3349:
 4860              	.LBB3352:
 4861              	.LBB3353:
 4862              		.loc 8 1121 0
 4863 0124 2F890000 		cmpwi 7,9,0
 4864 0128 41BEFF54 		beq- 7,.L325
 4865              	.LVL402:
 4866              		.loc 8 1122 0
 4867 012c 81490010 		lwz 10,16(9)
 4868 0130 7F8A5840 		cmplw 7,10,11
 4869 0134 409D0020 		ble- 7,.L333
 4870              	.LVL403:
 4871              	.L357:
 4872              	.LBE3353:
 4873              		.loc 4 354 0
 4874 0138 7D3D4B78 		mr 29,9
 4875              		.loc 8 1123 0
 4876 013c 81290008 		lwz 9,8(9)
 4877              	.LVL404:
 4878              	.LBB3354:
 4879              		.loc 8 1121 0
 4880 0140 2F890000 		cmpwi 7,9,0
 4881 0144 41BEFF38 		beq- 7,.L325
 4882              	.LVL405:
 4883              		.loc 8 1122 0
 4884 0148 81490010 		lwz 10,16(9)
 4885 014c 7F8A5840 		cmplw 7,10,11
 4886 0150 41BDFFE8 		bgt- 7,.L357
 4887              	.LVL406:
 4888              	.L333:
 4889              	.LBE3354:
 4890              		.loc 4 354 0
 4891 0154 8129000C 		lwz 9,12(9)
 4892              	.LVL407:
 4893 0158 4BFFFFCC 		b .L329
 4894              	.LVL408:
 4895              	.L330:
 4896              	.LBE3352:
 4897              	.LBB3355:
 4898 015c 814A000C 		lwz 10,12(10)
 4899              	.LVL409:
 4900 0160 4BFFFFA0 		b .L352
 4901              	.LVL410:
 4902              	.L355:
 4903              	.LBE3355:
 4904              	.LBE3348:
 4905              	.LBE3356:
 4906              	.LBE3357:
 4907              	.LBE3364:
 4908              	.LBE3401:
 4909              	.LBB3402:
 4910              	.LBB3398:
 4911              	.LBB3396:
 4912              		.loc 8 1500 0
 4913 0164 7F9CE800 		cmpw 7,28,29
 4914 0168 409EFF24 		bne+ 7,.L337
 4915              	.LVL411:
 4916              	.LBB3391:
 4917              	.LBB3392:
 4918              	.LBB3393:
 4919              	.LBB3394:
 4920              		.loc 8 809 0
 4921 016c 7C040378 		mr 4,0
 4922              	.LVL412:
 4923 0170 7FC3F378 		mr 3,30
 4924              	.LVL413:
 4925 0174 48000001 		bl _ZNSt8_Rb_treeIPN7sigslot12_signal_baseINS0_15single_threadedEEES4_St9_IdentityIS4_ESt4lessIS4_
 4926              	.LVL414:
 4927              		.loc 8 811 0
 4928 0178 38000000 		li 0,0
 4929              		.loc 8 810 0
 4930 017c 939E000C 		stw 28,12(30)
 4931              	.LVL415:
 4932              		.loc 8 811 0
 4933 0180 901E0008 		stw 0,8(30)
 4934              	.LVL416:
 4935              		.loc 8 812 0
 4936 0184 939E0010 		stw 28,16(30)
 4937              		.loc 8 813 0
 4938 0188 901E0014 		stw 0,20(30)
 4939 018c 4BFFFF40 		b .L339
 4940              	.LVL417:
 4941              	.L344:
 4942              	.LBE3394:
 4943              	.LBE3393:
 4944              	.LBE3392:
 4945              	.LBE3391:
 4946              		.loc 8 1503 0
 4947 0190 3B600000 		li 27,0
 4948 0194 4BFFFF38 		b .L339
 4949              	.LBE3396:
 4950              	.LBE3398:
 4951              	.LBE3402:
 4952              	.LBE3406:
 4953              		.cfi_endproc
 4954              	.LFE1939:
 4955              		.size	_ZNSt8_Rb_treeIPN7sigslot12_signal_baseINS0_15single_threadedEEES4_St9_IdentityIS4_ESt4lessI
 4956              		.section	.text._ZN7sigslot7signal2IP10DeviceMenuiNS_15single_threadedEED0Ev,"axG",@progbits,_ZN7si
 4957              		.align 2
 4958              		.weak	_ZN7sigslot7signal2IP10DeviceMenuiNS_15single_threadedEED0Ev
 4959              		.type	_ZN7sigslot7signal2IP10DeviceMenuiNS_15single_threadedEED0Ev, @function
 4960              	_ZN7sigslot7signal2IP10DeviceMenuiNS_15single_threadedEED0Ev:
 4961              	.LFB1643:
 4962              		.loc 1 2235 0
 4963              		.cfi_startproc
 4964              		.cfi_personality 0,__gxx_personality_v0
 4965              		.cfi_lsda 0,.LLSDA1643
 4966              	.LVL418:
 4967 0000 7C0802A6 		mflr 0
 4968 0004 9421FFD8 		stwu 1,-40(1)
 4969              	.LCFI65:
 4970              		.cfi_def_cfa_offset 40
 4971              		.cfi_register 65, 0
 4972              	.LBB3505:
 4973              	.LBB3506:
 4974              	.LBB3507:
 4975              	.LBB3508:
 4976              	.LBB3509:
 4977              	.LBB3510:
 4978              		.loc 1 826 0
 4979 0008 3D200000 		lis 9,_ZTVN7sigslot13_signal_base2IP10DeviceMenuiNS_15single_threadedEEE+8@ha
 4980              	.LBE3510:
 4981              	.LBE3509:
 4982              	.LBE3508:
 4983              	.LBE3507:
 4984              	.LBE3506:
 4985              	.LBE3505:
 4986              		.loc 1 2235 0
 4987 000c 93810018 		stw 28,24(1)
 4988 0010 7C7C1B78 		mr 28,3
 4989              		.cfi_offset 28, -16
 4990              	.LVL419:
 4991 0014 9001002C 		stw 0,44(1)
 4992              	.LBB3607:
 4993              	.LBB3603:
 4994              	.LBB3599:
 4995              	.LBB3595:
 4996              	.LBB3591:
 4997              	.LBB3587:
 4998              		.loc 1 826 0
 4999 0018 38090008 		la 0,_ZTVN7sigslot13_signal_base2IP10DeviceMenuiNS_15single_threadedEEE+8@l(9)
 5000              		.cfi_offset 65, 4
 5001              	.LBE3587:
 5002              	.LBE3591:
 5003              	.LBE3595:
 5004              	.LBE3599:
 5005              	.LBE3603:
 5006              	.LBE3607:
 5007              		.loc 1 2235 0
 5008 001c 93A1001C 		stw 29,28(1)
 5009 0020 3BA30004 		addi 29,3,4
 5010              		.cfi_offset 29, -12
 5011 0024 93C10020 		stw 30,32(1)
 5012 0028 93E10024 		stw 31,36(1)
 5013              	.LBB3608:
 5014              	.LBB3604:
 5015              	.LBB3600:
 5016              	.LBB3596:
 5017              	.LBB3592:
 5018              	.LBB3588:
 5019              		.loc 1 826 0
 5020 002c 90030000 		stw 0,0(3)
 5021              	.LVL420:
 5022              	.LEHB31:
 5023              	.LBB3511:
 5024              	.LBB3512:
 5025              	.LBB3513:
 5026              	.LBB3514:
 5027              		.loc 1 338 0
 5028              		.cfi_offset 31, -4
 5029              		.cfi_offset 30, -8
 5030 0030 48000001 		bl _ZN7sigslot15single_threaded4lockEv
 5031              	.LEHE31:
 5032              	.LVL421:
 5033              	.LBE3514:
 5034              	.LBE3513:
 5035              	.LBE3512:
 5036              		.loc 4 354 0
 5037 0034 7F9DE378 		mr 29,28
 5038              	.LVL422:
 5039 0038 87FD0004 		lwzu 31,4(29)
 5040              	.LVL423:
 5041              	.LBB3545:
 5042              		.loc 1 834 0
 5043 003c 7F9FE800 		cmpw 7,31,29
 5044 0040 419E00A8 		beq- 7,.L359
 5045              	.LVL424:
 5046              	.L398:
 5047              		.loc 1 836 0
 5048 0044 807F0008 		lwz 3,8(31)
 5049 0048 81230000 		lwz 9,0(3)
 5050 004c 80090008 		lwz 0,8(9)
 5051 0050 7C0903A6 		mtctr 0
 5052              	.LEHB32:
 5053 0054 4E800421 		bctrl
 5054              	.LBB3515:
 5055              	.LBB3516:
 5056              	.LBB3517:
 5057              	.LBB3518:
 5058              		.loc 1 338 0
 5059 0058 81230000 		lwz 9,0(3)
 5060              	.LBE3518:
 5061              	.LBE3517:
 5062              	.LBE3516:
 5063              	.LBE3515:
 5064              		.loc 1 836 0
 5065 005c 7C7E1B78 		mr 30,3
 5066              	.LVL425:
 5067 0060 93810008 		stw 28,8(1)
 5068              	.LVL426:
 5069              	.LBB3527:
 5070              	.LBB3526:
 5071              	.LBB3520:
 5072              	.LBB3519:
 5073              		.loc 1 338 0
 5074 0064 80090008 		lwz 0,8(9)
 5075 0068 7C0903A6 		mtctr 0
 5076 006c 4E800421 		bctrl
 5077              	.LVL427:
 5078              	.LBE3519:
 5079              	.LBE3520:
 5080              	.LBB3521:
 5081              	.LBB3522:
 5082              		.loc 9 528 0
 5083 0070 387E0004 		addi 3,30,4
 5084 0074 38810008 		addi 4,1,8
 5085 0078 48000001 		bl _ZNSt8_Rb_treeIPN7sigslot12_signal_baseINS0_15single_threadedEEES4_St9_IdentityIS4_ESt4lessIS4_
 5086              	.LVL428:
 5087              	.LBE3522:
 5088              	.LBE3521:
 5089              	.LBB3523:
 5090              	.LBB3524:
 5091              	.LBB3525:
 5092              		.loc 1 343 0
 5093 007c 813E0000 		lwz 9,0(30)
 5094 0080 7FC3F378 		mr 3,30
 5095 0084 8009000C 		lwz 0,12(9)
 5096 0088 7C0903A6 		mtctr 0
 5097 008c 4E800421 		bctrl
 5098              	.LVL429:
 5099              	.LBE3525:
 5100              	.LBE3524:
 5101              	.LBE3523:
 5102              	.LBE3526:
 5103              	.LBE3527:
 5104              		.loc 1 837 0
 5105 0090 807F0008 		lwz 3,8(31)
 5106 0094 2F830000 		cmpwi 7,3,0
 5107 0098 419E0014 		beq- 7,.L361
 5108 009c 81230000 		lwz 9,0(3)
 5109 00a0 80090004 		lwz 0,4(9)
 5110 00a4 7C0903A6 		mtctr 0
 5111 00a8 4E800421 		bctrl
 5112              	.LEHE32:
 5113              	.L361:
 5114              	.LVL430:
 5115              	.LBB3528:
 5116              	.LBB3529:
 5117              		.loc 5 234 0
 5118 00ac 83FF0000 		lwz 31,0(31)
 5119              	.LVL431:
 5120              	.LBE3529:
 5121              	.LBE3528:
 5122              		.loc 1 834 0
 5123 00b0 7F9DF800 		cmpw 7,29,31
 5124 00b4 409EFF90 		bne+ 7,.L398
 5125              	.LBE3545:
 5126              		.loc 4 354 0
 5127 00b8 83FC0004 		lwz 31,4(28)
 5128              	.LVL432:
 5129              	.LBB3546:
 5130              	.LBB3530:
 5131              	.LBB3531:
 5132              		.loc 5 1162 0
 5133 00bc 7F9DF800 		cmpw 7,29,31
 5134 00c0 40BE000C 		bne+ 7,.L400
 5135 00c4 48000024 		b .L359
 5136              	.LVL433:
 5137              	.L393:
 5138              		.loc 5 1163 0
 5139 00c8 7FDFF378 		mr 31,30
 5140              	.LVL434:
 5141              	.L400:
 5142              	.LBB3532:
 5143              	.LBB3533:
 5144              		.file 10 "d:\\devkitpro\\devkitppc\\bin\\../lib/gcc/powerpc-eabi/4.6.3/../../../../powerpc-eabi/in
 5145              		.loc 10 112 0
 5146 00cc 83DF0000 		lwz 30,0(31)
 5147              	.LVL435:
 5148              	.LBB3534:
 5149              	.LBB3535:
 5150              		.loc 5 1532 0
 5151 00d0 7FE3FB78 		mr 3,31
 5152 00d4 48000001 		bl _ZNSt8__detail15_List_node_base9_M_unhookEv
 5153              	.LVL436:
 5154              	.LBB3536:
 5155              	.LBB3537:
 5156              	.LBB3538:
 5157              		.loc 6 98 0
 5158 00d8 7FE3FB78 		mr 3,31
 5159 00dc 48000001 		bl _ZdlPv
 5160              	.LVL437:
 5161              	.LBE3538:
 5162              	.LBE3537:
 5163              	.LBE3536:
 5164              	.LBE3535:
 5165              	.LBE3534:
 5166              	.LBE3533:
 5167              	.LBE3532:
 5168              		.loc 5 1162 0
 5169 00e0 7F9DF000 		cmpw 7,29,30
 5170 00e4 409EFFE4 		bne+ 7,.L393
 5171              	.LVL438:
 5172              	.L359:
 5173              	.LBE3531:
 5174              	.LBE3530:
 5175              	.LBB3539:
 5176              	.LBB3540:
 5177              	.LBB3541:
 5178              		.loc 1 343 0
 5179 00e8 813C0000 		lwz 9,0(28)
 5180 00ec 7F83E378 		mr 3,28
 5181 00f0 8009000C 		lwz 0,12(9)
 5182 00f4 7C0903A6 		mtctr 0
 5183              	.LEHB33:
 5184 00f8 4E800421 		bctrl
 5185              	.LEHE33:
 5186              	.LBE3541:
 5187              	.LBE3540:
 5188              	.LBE3539:
 5189              	.LBE3546:
 5190              	.LBE3511:
 5191              	.LBB3548:
 5192              	.LBB3549:
 5193              	.LBB3550:
 5194              	.LBB3551:
 5195              	.LBB3552:
 5196              	.LBB3553:
 5197              		.loc 10 70 0
 5198 00fc 807C0004 		lwz 3,4(28)
 5199              	.LVL439:
 5200              		.loc 10 71 0
 5201 0100 7F83E800 		cmpw 7,3,29
 5202 0104 40BE000C 		bne+ 7,.L402
 5203 0108 48000018 		b .L377
 5204              	.LVL440:
 5205              	.L394:
 5206              		.loc 10 74 0
 5207 010c 7FE3FB78 		mr 3,31
 5208              	.LVL441:
 5209              	.L402:
 5210              	.LBB3554:
 5211 0110 83E30000 		lwz 31,0(3)
 5212              	.LVL442:
 5213              	.LBB3555:
 5214              	.LBB3556:
 5215              	.LBB3557:
 5216              		.loc 6 98 0
 5217 0114 48000001 		bl _ZdlPv
 5218              	.LVL443:
 5219              	.LBE3557:
 5220              	.LBE3556:
 5221              	.LBE3555:
 5222              	.LBE3554:
 5223              		.loc 10 71 0
 5224 0118 7F9FE800 		cmpw 7,31,29
 5225 011c 409EFFF0 		bne+ 7,.L394
 5226              	.LVL444:
 5227              	.L377:
 5228              	.LBE3553:
 5229              	.LBE3552:
 5230              	.LBE3551:
 5231              	.LBE3550:
 5232              	.LBE3549:
 5233              	.LBE3548:
 5234              	.LBB3558:
 5235              	.LBB3559:
 5236              	.LBB3560:
 5237              	.LBB3561:
 5238              	.LBB3562:
 5239              	.LBB3563:
 5240              		.loc 1 105 0
 5241 0120 3D200000 		lis 9,_ZTVN7sigslot15single_threadedE+8@ha
 5242              	.LBE3563:
 5243              	.LBE3562:
 5244              	.LBE3561:
 5245              	.LBE3560:
 5246              	.LBE3559:
 5247              	.LBE3558:
 5248              	.LBE3588:
 5249              	.LBE3592:
 5250              	.LBE3596:
 5251              	.LBE3600:
 5252              	.LBE3604:
 5253              	.LBE3608:
 5254              		.loc 1 2238 0
 5255 0124 7F83E378 		mr 3,28
 5256              	.LBB3609:
 5257              	.LBB3605:
 5258              	.LBB3601:
 5259              	.LBB3597:
 5260              	.LBB3593:
 5261              	.LBB3589:
 5262              	.LBB3569:
 5263              	.LBB3568:
 5264              	.LBB3567:
 5265              	.LBB3566:
 5266              	.LBB3565:
 5267              	.LBB3564:
 5268              		.loc 1 105 0
 5269 0128 38090008 		la 0,_ZTVN7sigslot15single_threadedE+8@l(9)
 5270 012c 901C0000 		stw 0,0(28)
 5271              	.LBE3564:
 5272              	.LBE3565:
 5273              	.LBE3566:
 5274              	.LBE3567:
 5275              	.LBE3568:
 5276              	.LBE3569:
 5277              	.LBE3589:
 5278              	.LBE3593:
 5279              	.LBE3597:
 5280              	.LBE3601:
 5281              	.LBE3605:
 5282              	.LBE3609:
 5283              		.loc 1 2238 0
 5284 0130 48000001 		bl _ZdlPv
 5285 0134 8001002C 		lwz 0,44(1)
 5286 0138 83810018 		lwz 28,24(1)
 5287              	.LVL445:
 5288 013c 7C0803A6 		mtlr 0
 5289 0140 83A1001C 		lwz 29,28(1)
 5290              	.LVL446:
 5291 0144 83C10020 		lwz 30,32(1)
 5292 0148 83E10024 		lwz 31,36(1)
 5293 014c 38210028 		addi 1,1,40
 5294              		.cfi_remember_state
 5295              	.LCFI66:
 5296              		.cfi_def_cfa_offset 0
 5297              		.cfi_restore 31
 5298              		.cfi_restore 30
 5299              		.cfi_restore 29
 5300              		.cfi_restore 28
 5301 0150 4E800020 		blr
 5302              	.LVL447:
 5303              	.L396:
 5304              	.LCFI67:
 5305              		.cfi_restore_state
 5306 0154 7C7F1B78 		mr 31,3
 5307              	.L369:
 5308              	.LBB3610:
 5309              	.LBB3606:
 5310              	.LBB3602:
 5311              	.LBB3598:
 5312              	.LBB3594:
 5313              	.LBB3590:
 5314              	.LBB3570:
 5315              	.LBB3571:
 5316              	.LBB3572:
 5317              	.LBB3573:
 5318              	.LBB3574:
 5319              	.LBB3575:
 5320              		.loc 10 70 0
 5321 0158 807C0004 		lwz 3,4(28)
 5322              	.LVL448:
 5323              		.loc 10 71 0
 5324 015c 7F83E800 		cmpw 7,3,29
 5325 0160 419E0038 		beq- 7,.L386
 5326              	.LVL449:
 5327              	.L403:
 5328              	.LBB3576:
 5329              		.loc 10 74 0
 5330 0164 83C30000 		lwz 30,0(3)
 5331              	.LVL450:
 5332              	.LBB3577:
 5333              	.LBB3578:
 5334              	.LBB3579:
 5335              		.loc 6 98 0
 5336 0168 48000001 		bl _ZdlPv
 5337              	.LVL451:
 5338              	.LBE3579:
 5339              	.LBE3578:
 5340              	.LBE3577:
 5341              	.LBE3576:
 5342              		.loc 10 71 0
 5343 016c 7F9EE800 		cmpw 7,30,29
 5344 0170 419E0028 		beq- 7,.L386
 5345              		.loc 10 74 0
 5346 0174 7FC3F378 		mr 3,30
 5347 0178 4BFFFFEC 		b .L403
 5348              	.LVL452:
 5349              	.L397:
 5350              	.LBE3575:
 5351              	.LBE3574:
 5352              	.LBE3573:
 5353              	.LBE3572:
 5354              	.LBE3571:
 5355              	.LBE3570:
 5356              	.LBB3580:
 5357              	.LBB3547:
 5358              	.LBB3542:
 5359              	.LBB3543:
 5360              	.LBB3544:
 5361              		.loc 1 343 0
 5362 017c 813C0000 		lwz 9,0(28)
 5363 0180 7C7F1B78 		mr 31,3
 5364              	.LVL453:
 5365 0184 7F83E378 		mr 3,28
 5366 0188 8009000C 		lwz 0,12(9)
 5367 018c 7C0903A6 		mtctr 0
 5368 0190 4E800421 		bctrl
 5369 0194 4BFFFFC4 		b .L369
 5370              	.LVL454:
 5371              	.L386:
 5372              	.LBE3544:
 5373              	.LBE3543:
 5374              	.LBE3542:
 5375              	.LBE3547:
 5376              	.LBE3580:
 5377              	.LBB3581:
 5378              	.LBB3582:
 5379              	.LBB3583:
 5380              	.LBB3584:
 5381              	.LBB3585:
 5382              	.LBB3586:
 5383              		.loc 1 105 0
 5384 0198 3D200000 		lis 9,_ZTVN7sigslot15single_threadedE+8@ha
 5385 019c 7FE3FB78 		mr 3,31
 5386 01a0 38090008 		la 0,_ZTVN7sigslot15single_threadedE+8@l(9)
 5387 01a4 901C0000 		stw 0,0(28)
 5388              	.LEHB34:
 5389 01a8 48000001 		bl _Unwind_Resume
 5390              	.LEHE34:
 5391              	.LBE3586:
 5392              	.LBE3585:
 5393              	.LBE3584:
 5394              	.LBE3583:
 5395              	.LBE3582:
 5396              	.LBE3581:
 5397              	.LBE3590:
 5398              	.LBE3594:
 5399              	.LBE3598:
 5400              	.LBE3602:
 5401              	.LBE3606:
 5402              	.LBE3610:
 5403              		.cfi_endproc
 5404              	.LFE1643:
 5405              		.section	.gcc_except_table
 5406              	.LLSDA1643:
 5407 00b7 FF       		.byte	0xff
 5408 00b8 FF       		.byte	0xff
 5409 00b9 01       		.byte	0x1
 5410 00ba 15       		.uleb128 .LLSDACSE1643-.LLSDACSB1643
 5411              	.LLSDACSB1643:
 5412 00bb 30       		.uleb128 .LEHB31-.LFB1643
 5413 00bc 04       		.uleb128 .LEHE31-.LEHB31
 5414 00bd D402     		.uleb128 .L396-.LFB1643
 5415 00bf 00       		.uleb128 0
 5416 00c0 54       		.uleb128 .LEHB32-.LFB1643
 5417 00c1 58       		.uleb128 .LEHE32-.LEHB32
 5418 00c2 FC02     		.uleb128 .L397-.LFB1643
 5419 00c4 00       		.uleb128 0
 5420 00c5 F801     		.uleb128 .LEHB33-.LFB1643
 5421 00c7 04       		.uleb128 .LEHE33-.LEHB33
 5422 00c8 D402     		.uleb128 .L396-.LFB1643
 5423 00ca 00       		.uleb128 0
 5424 00cb A803     		.uleb128 .LEHB34-.LFB1643
 5425 00cd 04       		.uleb128 .LEHE34-.LEHB34
 5426 00ce 00       		.uleb128 0
 5427 00cf 00       		.uleb128 0
 5428              	.LLSDACSE1643:
 5429              		.section	.text._ZN7sigslot7signal2IP10DeviceMenuiNS_15single_threadedEED0Ev,"axG",@progbits,_ZN7si
 5430              		.size	_ZN7sigslot7signal2IP10DeviceMenuiNS_15single_threadedEED0Ev, .-_ZN7sigslot7signal2IP10Devic
 5431              		.section	.text._ZN7sigslot7signal2IP10DeviceMenuiNS_15single_threadedEED2Ev,"axG",@progbits,_ZN7si
 5432              		.align 2
 5433              		.weak	_ZN7sigslot7signal2IP10DeviceMenuiNS_15single_threadedEED2Ev
 5434              		.type	_ZN7sigslot7signal2IP10DeviceMenuiNS_15single_threadedEED2Ev, @function
 5435              	_ZN7sigslot7signal2IP10DeviceMenuiNS_15single_threadedEED2Ev:
 5436              	.LFB1641:
 5437              		.loc 1 2235 0
 5438              		.cfi_startproc
 5439              		.cfi_personality 0,__gxx_personality_v0
 5440              		.cfi_lsda 0,.LLSDA1641
 5441              	.LVL455:
 5442 0000 7C0802A6 		mflr 0
 5443 0004 9421FFD8 		stwu 1,-40(1)
 5444              	.LCFI68:
 5445              		.cfi_def_cfa_offset 40
 5446              		.cfi_register 65, 0
 5447              	.LBB3708:
 5448              	.LBB3709:
 5449              	.LBB3710:
 5450              	.LBB3711:
 5451              		.loc 1 826 0
 5452 0008 3D200000 		lis 9,_ZTVN7sigslot13_signal_base2IP10DeviceMenuiNS_15single_threadedEEE+8@ha
 5453              	.LBE3711:
 5454              	.LBE3710:
 5455              	.LBE3709:
 5456              	.LBE3708:
 5457              		.loc 1 2235 0
 5458 000c 93810018 		stw 28,24(1)
 5459 0010 7C7C1B78 		mr 28,3
 5460              		.cfi_offset 28, -16
 5461              	.LVL456:
 5462 0014 9001002C 		stw 0,44(1)
 5463              	.LBB3809:
 5464              	.LBB3804:
 5465              	.LBB3799:
 5466              	.LBB3794:
 5467              		.loc 1 826 0
 5468 0018 38090008 		la 0,_ZTVN7sigslot13_signal_base2IP10DeviceMenuiNS_15single_threadedEEE+8@l(9)
 5469              		.cfi_offset 65, 4
 5470              	.LBE3794:
 5471              	.LBE3799:
 5472              	.LBE3804:
 5473              	.LBE3809:
 5474              		.loc 1 2235 0
 5475 001c 93A1001C 		stw 29,28(1)
 5476 0020 3BA30004 		addi 29,3,4
 5477              		.cfi_offset 29, -12
 5478 0024 93C10020 		stw 30,32(1)
 5479 0028 93E10024 		stw 31,36(1)
 5480              	.LBB3810:
 5481              	.LBB3805:
 5482              	.LBB3800:
 5483              	.LBB3795:
 5484              		.loc 1 826 0
 5485 002c 90030000 		stw 0,0(3)
 5486              	.LVL457:
 5487              	.LEHB35:
 5488              	.LBB3712:
 5489              	.LBB3713:
 5490              	.LBB3714:
 5491              	.LBB3715:
 5492              		.loc 1 338 0
 5493              		.cfi_offset 31, -4
 5494              		.cfi_offset 30, -8
 5495 0030 48000001 		bl _ZN7sigslot15single_threaded4lockEv
 5496              	.LEHE35:
 5497              	.LVL458:
 5498              	.LBE3715:
 5499              	.LBE3714:
 5500              	.LBE3713:
 5501              		.loc 4 354 0
 5502 0034 7F9DE378 		mr 29,28
 5503              	.LVL459:
 5504 0038 87FD0004 		lwzu 31,4(29)
 5505              	.LVL460:
 5506              	.LBB3746:
 5507              		.loc 1 834 0
 5508 003c 7F9FE800 		cmpw 7,31,29
 5509 0040 419E00A8 		beq- 7,.L405
 5510              	.LVL461:
 5511              	.L443:
 5512              		.loc 1 836 0
 5513 0044 807F0008 		lwz 3,8(31)
 5514 0048 81230000 		lwz 9,0(3)
 5515 004c 80090008 		lwz 0,8(9)
 5516 0050 7C0903A6 		mtctr 0
 5517              	.LEHB36:
 5518 0054 4E800421 		bctrl
 5519              	.LBB3716:
 5520              	.LBB3717:
 5521              	.LBB3718:
 5522              	.LBB3719:
 5523              		.loc 1 338 0
 5524 0058 81230000 		lwz 9,0(3)
 5525              	.LBE3719:
 5526              	.LBE3718:
 5527              	.LBE3717:
 5528              	.LBE3716:
 5529              		.loc 1 836 0
 5530 005c 7C7E1B78 		mr 30,3
 5531              	.LVL462:
 5532 0060 93810008 		stw 28,8(1)
 5533              	.LVL463:
 5534              	.LBB3728:
 5535              	.LBB3727:
 5536              	.LBB3721:
 5537              	.LBB3720:
 5538              		.loc 1 338 0
 5539 0064 80090008 		lwz 0,8(9)
 5540 0068 7C0903A6 		mtctr 0
 5541 006c 4E800421 		bctrl
 5542              	.LVL464:
 5543              	.LBE3720:
 5544              	.LBE3721:
 5545              	.LBB3722:
 5546              	.LBB3723:
 5547              		.loc 9 528 0
 5548 0070 387E0004 		addi 3,30,4
 5549 0074 38810008 		addi 4,1,8
 5550 0078 48000001 		bl _ZNSt8_Rb_treeIPN7sigslot12_signal_baseINS0_15single_threadedEEES4_St9_IdentityIS4_ESt4lessIS4_
 5551              	.LVL465:
 5552              	.LBE3723:
 5553              	.LBE3722:
 5554              	.LBB3724:
 5555              	.LBB3725:
 5556              	.LBB3726:
 5557              		.loc 1 343 0
 5558 007c 813E0000 		lwz 9,0(30)
 5559 0080 7FC3F378 		mr 3,30
 5560 0084 8009000C 		lwz 0,12(9)
 5561 0088 7C0903A6 		mtctr 0
 5562 008c 4E800421 		bctrl
 5563              	.LVL466:
 5564              	.LBE3726:
 5565              	.LBE3725:
 5566              	.LBE3724:
 5567              	.LBE3727:
 5568              	.LBE3728:
 5569              		.loc 1 837 0
 5570 0090 807F0008 		lwz 3,8(31)
 5571 0094 2F830000 		cmpwi 7,3,0
 5572 0098 419E0014 		beq- 7,.L407
 5573 009c 81230000 		lwz 9,0(3)
 5574 00a0 80090004 		lwz 0,4(9)
 5575 00a4 7C0903A6 		mtctr 0
 5576 00a8 4E800421 		bctrl
 5577              	.LEHE36:
 5578              	.L407:
 5579              	.LVL467:
 5580              	.LBB3729:
 5581              	.LBB3730:
 5582              		.loc 5 234 0
 5583 00ac 83FF0000 		lwz 31,0(31)
 5584              	.LVL468:
 5585              	.LBE3730:
 5586              	.LBE3729:
 5587              		.loc 1 834 0
 5588 00b0 7F9DF800 		cmpw 7,29,31
 5589 00b4 409EFF90 		bne+ 7,.L443
 5590              	.LBE3746:
 5591              		.loc 4 354 0
 5592 00b8 83FC0004 		lwz 31,4(28)
 5593              	.LVL469:
 5594              	.LBB3747:
 5595              	.LBB3731:
 5596              	.LBB3732:
 5597              		.loc 5 1162 0
 5598 00bc 7F9DF800 		cmpw 7,29,31
 5599 00c0 40BE000C 		bne+ 7,.L445
 5600 00c4 48000024 		b .L405
 5601              	.LVL470:
 5602              	.L438:
 5603              		.loc 5 1163 0
 5604 00c8 7FDFF378 		mr 31,30
 5605              	.LVL471:
 5606              	.L445:
 5607              	.LBB3733:
 5608              	.LBB3734:
 5609              		.loc 10 112 0
 5610 00cc 83DF0000 		lwz 30,0(31)
 5611              	.LVL472:
 5612              	.LBB3735:
 5613              	.LBB3736:
 5614              		.loc 5 1532 0
 5615 00d0 7FE3FB78 		mr 3,31
 5616 00d4 48000001 		bl _ZNSt8__detail15_List_node_base9_M_unhookEv
 5617              	.LVL473:
 5618              	.LBB3737:
 5619              	.LBB3738:
 5620              	.LBB3739:
 5621              		.loc 6 98 0
 5622 00d8 7FE3FB78 		mr 3,31
 5623 00dc 48000001 		bl _ZdlPv
 5624              	.LVL474:
 5625              	.LBE3739:
 5626              	.LBE3738:
 5627              	.LBE3737:
 5628              	.LBE3736:
 5629              	.LBE3735:
 5630              	.LBE3734:
 5631              	.LBE3733:
 5632              		.loc 5 1162 0
 5633 00e0 7F9DF000 		cmpw 7,29,30
 5634 00e4 409EFFE4 		bne+ 7,.L438
 5635              	.LVL475:
 5636              	.L405:
 5637              	.LBE3732:
 5638              	.LBE3731:
 5639              	.LBB3740:
 5640              	.LBB3741:
 5641              	.LBB3742:
 5642              		.loc 1 343 0
 5643 00e8 813C0000 		lwz 9,0(28)
 5644 00ec 7F83E378 		mr 3,28
 5645 00f0 8009000C 		lwz 0,12(9)
 5646 00f4 7C0903A6 		mtctr 0
 5647              	.LEHB37:
 5648 00f8 4E800421 		bctrl
 5649              	.LEHE37:
 5650              	.LBE3742:
 5651              	.LBE3741:
 5652              	.LBE3740:
 5653              	.LBE3747:
 5654              	.LBE3712:
 5655              	.LBB3749:
 5656              	.LBB3750:
 5657              	.LBB3751:
 5658              	.LBB3752:
 5659              	.LBB3753:
 5660              	.LBB3754:
 5661              		.loc 10 70 0
 5662 00fc 807C0004 		lwz 3,4(28)
 5663              	.LVL476:
 5664              		.loc 10 71 0
 5665 0100 7F83E800 		cmpw 7,3,29
 5666 0104 40BE000C 		bne+ 7,.L447
 5667 0108 48000018 		b .L423
 5668              	.LVL477:
 5669              	.L439:
 5670              		.loc 10 74 0
 5671 010c 7FE3FB78 		mr 3,31
 5672              	.LVL478:
 5673              	.L447:
 5674              	.LBB3755:
 5675 0110 83E30000 		lwz 31,0(3)
 5676              	.LVL479:
 5677              	.LBB3756:
 5678              	.LBB3757:
 5679              	.LBB3758:
 5680              		.loc 6 98 0
 5681 0114 48000001 		bl _ZdlPv
 5682              	.LVL480:
 5683              	.LBE3758:
 5684              	.LBE3757:
 5685              	.LBE3756:
 5686              	.LBE3755:
 5687              		.loc 10 71 0
 5688 0118 7F9FE800 		cmpw 7,31,29
 5689 011c 409EFFF0 		bne+ 7,.L439
 5690              	.LVL481:
 5691              	.L423:
 5692              	.LBE3754:
 5693              	.LBE3753:
 5694              	.LBE3752:
 5695              	.LBE3751:
 5696              	.LBE3750:
 5697              	.LBE3749:
 5698              	.LBB3759:
 5699              	.LBB3760:
 5700              	.LBB3761:
 5701              	.LBB3762:
 5702              	.LBB3763:
 5703              	.LBB3764:
 5704              		.loc 1 105 0
 5705 0120 3D200000 		lis 9,_ZTVN7sigslot15single_threadedE+8@ha
 5706              	.LBE3764:
 5707              	.LBE3763:
 5708              	.LBE3762:
 5709              	.LBE3761:
 5710              	.LBE3760:
 5711              	.LBE3759:
 5712              	.LBE3795:
 5713              	.LBE3800:
 5714              	.LBE3805:
 5715              	.LBE3810:
 5716              		.loc 1 2238 0
 5717 0124 83A1001C 		lwz 29,28(1)
 5718              	.LVL482:
 5719              	.LBB3811:
 5720              	.LBB3806:
 5721              	.LBB3801:
 5722              	.LBB3796:
 5723              	.LBB3775:
 5724              	.LBB3773:
 5725              	.LBB3771:
 5726              	.LBB3769:
 5727              	.LBB3767:
 5728              	.LBB3765:
 5729              		.loc 1 105 0
 5730 0128 38090008 		la 0,_ZTVN7sigslot15single_threadedE+8@l(9)
 5731              	.LBE3765:
 5732              	.LBE3767:
 5733              	.LBE3769:
 5734              	.LBE3771:
 5735              	.LBE3773:
 5736              	.LBE3775:
 5737              	.LBE3796:
 5738              	.LBE3801:
 5739              	.LBE3806:
 5740              	.LBE3811:
 5741              		.loc 1 2238 0
 5742 012c 83C10020 		lwz 30,32(1)
 5743              	.LBB3812:
 5744              	.LBB3807:
 5745              	.LBB3802:
 5746              	.LBB3797:
 5747              	.LBB3776:
 5748              	.LBB3774:
 5749              	.LBB3772:
 5750              	.LBB3770:
 5751              	.LBB3768:
 5752              	.LBB3766:
 5753              		.loc 1 105 0
 5754 0130 901C0000 		stw 0,0(28)
 5755              	.LBE3766:
 5756              	.LBE3768:
 5757              	.LBE3770:
 5758              	.LBE3772:
 5759              	.LBE3774:
 5760              	.LBE3776:
 5761              	.LBE3797:
 5762              	.LBE3802:
 5763              	.LBE3807:
 5764              	.LBE3812:
 5765              		.loc 1 2238 0
 5766 0134 8001002C 		lwz 0,44(1)
 5767 0138 83810018 		lwz 28,24(1)
 5768              	.LVL483:
 5769 013c 7C0803A6 		mtlr 0
 5770 0140 83E10024 		lwz 31,36(1)
 5771 0144 38210028 		addi 1,1,40
 5772              		.cfi_remember_state
 5773              	.LCFI69:
 5774              		.cfi_def_cfa_offset 0
 5775              		.cfi_restore 31
 5776              		.cfi_restore 30
 5777              		.cfi_restore 29
 5778              		.cfi_restore 28
 5779 0148 4E800020 		blr
 5780              	.LVL484:
 5781              	.L441:
 5782              	.LCFI70:
 5783              		.cfi_restore_state
 5784 014c 7C7F1B78 		mr 31,3
 5785              	.L415:
 5786              	.LBB3813:
 5787              	.LBB3808:
 5788              	.LBB3803:
 5789              	.LBB3798:
 5790              	.LBB3777:
 5791              	.LBB3778:
 5792              	.LBB3779:
 5793              	.LBB3780:
 5794              	.LBB3781:
 5795              	.LBB3782:
 5796              		.loc 10 70 0
 5797 0150 807C0004 		lwz 3,4(28)
 5798              	.LVL485:
 5799              		.loc 10 71 0
 5800 0154 7F83E800 		cmpw 7,3,29
 5801 0158 419E0038 		beq- 7,.L432
 5802              	.LVL486:
 5803              	.L448:
 5804              	.LBB3783:
 5805              		.loc 10 74 0
 5806 015c 83C30000 		lwz 30,0(3)
 5807              	.LVL487:
 5808              	.LBB3784:
 5809              	.LBB3785:
 5810              	.LBB3786:
 5811              		.loc 6 98 0
 5812 0160 48000001 		bl _ZdlPv
 5813              	.LVL488:
 5814              	.LBE3786:
 5815              	.LBE3785:
 5816              	.LBE3784:
 5817              	.LBE3783:
 5818              		.loc 10 71 0
 5819 0164 7F9EE800 		cmpw 7,30,29
 5820 0168 419E0028 		beq- 7,.L432
 5821              		.loc 10 74 0
 5822 016c 7FC3F378 		mr 3,30
 5823 0170 4BFFFFEC 		b .L448
 5824              	.LVL489:
 5825              	.L442:
 5826              	.LBE3782:
 5827              	.LBE3781:
 5828              	.LBE3780:
 5829              	.LBE3779:
 5830              	.LBE3778:
 5831              	.LBE3777:
 5832              	.LBB3787:
 5833              	.LBB3748:
 5834              	.LBB3743:
 5835              	.LBB3744:
 5836              	.LBB3745:
 5837              		.loc 1 343 0
 5838 0174 813C0000 		lwz 9,0(28)
 5839 0178 7C7F1B78 		mr 31,3
 5840              	.LVL490:
 5841 017c 7F83E378 		mr 3,28
 5842 0180 8009000C 		lwz 0,12(9)
 5843 0184 7C0903A6 		mtctr 0
 5844 0188 4E800421 		bctrl
 5845 018c 4BFFFFC4 		b .L415
 5846              	.LVL491:
 5847              	.L432:
 5848              	.LBE3745:
 5849              	.LBE3744:
 5850              	.LBE3743:
 5851              	.LBE3748:
 5852              	.LBE3787:
 5853              	.LBB3788:
 5854              	.LBB3789:
 5855              	.LBB3790:
 5856              	.LBB3791:
 5857              	.LBB3792:
 5858              	.LBB3793:
 5859              		.loc 1 105 0
 5860 0190 3D200000 		lis 9,_ZTVN7sigslot15single_threadedE+8@ha
 5861 0194 7FE3FB78 		mr 3,31
 5862 0198 38090008 		la 0,_ZTVN7sigslot15single_threadedE+8@l(9)
 5863 019c 901C0000 		stw 0,0(28)
 5864              	.LEHB38:
 5865 01a0 48000001 		bl _Unwind_Resume
 5866              	.LEHE38:
 5867              	.LBE3793:
 5868              	.LBE3792:
 5869              	.LBE3791:
 5870              	.LBE3790:
 5871              	.LBE3789:
 5872              	.LBE3788:
 5873              	.LBE3798:
 5874              	.LBE3803:
 5875              	.LBE3808:
 5876              	.LBE3813:
 5877              		.cfi_endproc
 5878              	.LFE1641:
 5879              		.section	.gcc_except_table
 5880              	.LLSDA1641:
 5881 00d0 FF       		.byte	0xff
 5882 00d1 FF       		.byte	0xff
 5883 00d2 01       		.byte	0x1
 5884 00d3 15       		.uleb128 .LLSDACSE1641-.LLSDACSB1641
 5885              	.LLSDACSB1641:
 5886 00d4 30       		.uleb128 .LEHB35-.LFB1641
 5887 00d5 04       		.uleb128 .LEHE35-.LEHB35
 5888 00d6 CC02     		.uleb128 .L441-.LFB1641
 5889 00d8 00       		.uleb128 0
 5890 00d9 54       		.uleb128 .LEHB36-.LFB1641
 5891 00da 58       		.uleb128 .LEHE36-.LEHB36
 5892 00db F402     		.uleb128 .L442-.LFB1641
 5893 00dd 00       		.uleb128 0
 5894 00de F801     		.uleb128 .LEHB37-.LFB1641
 5895 00e0 04       		.uleb128 .LEHE37-.LEHB37
 5896 00e1 CC02     		.uleb128 .L441-.LFB1641
 5897 00e3 00       		.uleb128 0
 5898 00e4 A003     		.uleb128 .LEHB38-.LFB1641
 5899 00e6 04       		.uleb128 .LEHE38-.LEHB38
 5900 00e7 00       		.uleb128 0
 5901 00e8 00       		.uleb128 0
 5902              	.LLSDACSE1641:
 5903              		.section	.text._ZN7sigslot7signal2IP10DeviceMenuiNS_15single_threadedEED2Ev,"axG",@progbits,_ZN7si
 5904              		.size	_ZN7sigslot7signal2IP10DeviceMenuiNS_15single_threadedEED2Ev, .-_ZN7sigslot7signal2IP10Devic
 5905              		.section	".text"
 5906              		.align 2
 5907              		.globl _ZN10DeviceMenuC2Ev
 5908              		.type	_ZN10DeviceMenuC2Ev, @function
 5909              	_ZN10DeviceMenuC2Ev:
 5910              	.LFB1592:
 5911              		.loc 4 33 0
 5912              		.cfi_startproc
 5913              		.cfi_personality 0,__gxx_personality_v0
 5914              		.cfi_lsda 0,.LLSDA1592
 5915              	.LVL492:
 5916 0274 9421FFC8 		stwu 1,-56(1)
 5917              	.LCFI71:
 5918              		.cfi_def_cfa_offset 56
 5919 0278 7C0802A6 		mflr 0
 5920              	.LBB3861:
 5921              		.loc 4 34 0
 5922 027c 38800000 		li 4,0
 5923 0280 38A00000 		li 5,0
 5924              	.LBE3861:
 5925              		.loc 4 33 0
 5926 0284 93E10034 		stw 31,52(1)
 5927              	.LBB3981:
 5928              		.loc 4 34 0
 5929 0288 38C00000 		li 6,0
 5930              	.LBE3981:
 5931              		.loc 4 33 0
 5932 028c 7C7F1B78 		mr 31,3
 5933              		.cfi_offset 31, -4
 5934              		.cfi_register 65, 0
 5935 0290 9001003C 		stw 0,60(1)
 5936 0294 9321001C 		stw 25,28(1)
 5937 0298 93410020 		stw 26,32(1)
 5938 029c 93610024 		stw 27,36(1)
 5939 02a0 93810028 		stw 28,40(1)
 5940 02a4 93A1002C 		stw 29,44(1)
 5941 02a8 93C10030 		stw 30,48(1)
 5942              	.LEHB39:
 5943              	.LBB3982:
 5944              		.loc 4 34 0
 5945              		.cfi_offset 30, -8
 5946              		.cfi_offset 29, -12
 5947              		.cfi_offset 28, -16
 5948              		.cfi_offset 27, -20
 5949              		.cfi_offset 26, -24
 5950              		.cfi_offset 25, -28
 5951              		.cfi_offset 65, 4
 5952 02ac 48000001 		bl _ZN8GuiFrameC2EiiPS_
 5953              	.LEHE39:
 5954              	.LVL493:
 5955              	.LBB3862:
 5956              	.LBB3863:
 5957              	.LBB3864:
 5958              	.LBB3865:
 5959              	.LBB3866:
 5960              	.LBB3867:
 5961              	.LBB3868:
 5962              	.LBB3869:
 5963              		.loc 5 380 0
 5964 02b0 393F00D0 		addi 9,31,208
 5965              	.LBE3869:
 5966              	.LBE3868:
 5967              	.LBE3867:
 5968              	.LBE3866:
 5969              	.LBE3865:
 5970              	.LBE3864:
 5971              	.LBE3863:
 5972              	.LBE3862:
 5973              		.loc 4 34 0
 5974 02b4 3D600000 		lis 11,_ZTV10DeviceMenu+8@ha
 5975              	.LBB3886:
 5976              	.LBB3887:
 5977              	.LBB3888:
 5978              	.LBB3889:
 5979              	.LBB3890:
 5980              	.LBB3891:
 5981              		.loc 8 445 0
 5982 02b8 38000000 		li 0,0
 5983              	.LBE3891:
 5984              	.LBE3890:
 5985              	.LBE3889:
 5986              	.LBE3888:
 5987              	.LBE3887:
 5988              	.LBE3886:
 5989              		.loc 4 34 0
 5990 02bc 396B0008 		la 11,_ZTV10DeviceMenu+8@l(11)
 5991              	.LBB3923:
 5992              	.LBB3882:
 5993              	.LBB3880:
 5994              	.LBB3878:
 5995              	.LBB3876:
 5996              	.LBB3874:
 5997              	.LBB3872:
 5998              	.LBB3870:
 5999              		.loc 5 380 0
 6000 02c0 913F00D0 		stw 9,208(31)
 6001              	.LBE3870:
 6002              	.LBE3872:
 6003              	.LBE3874:
 6004              	.LBE3876:
 6005              	.LBE3878:
 6006              	.LBE3880:
 6007              	.LBE3882:
 6008              	.LBE3923:
 6009              	.LBB3924:
 6010              	.LBB3918:
 6011              	.LBB3913:
 6012              	.LBB3908:
 6013              	.LBB3903:
 6014              	.LBB3898:
 6015              	.LBB3892:
 6016              	.LBB3893:
 6017              		.loc 8 459 0
 6018 02c4 395F00B8 		addi 10,31,184
 6019              	.LBE3893:
 6020              	.LBE3892:
 6021              	.LBE3898:
 6022              	.LBE3903:
 6023              	.LBE3908:
 6024              	.LBE3913:
 6025              	.LBE3918:
 6026              	.LBE3924:
 6027              	.LBB3925:
 6028              	.LBB3883:
 6029              	.LBB3881:
 6030              	.LBB3879:
 6031              	.LBB3877:
 6032              	.LBB3875:
 6033              	.LBB3873:
 6034              	.LBB3871:
 6035              		.loc 5 381 0
 6036 02c8 913F00D4 		stw 9,212(31)
 6037              	.LBE3871:
 6038              	.LBE3873:
 6039              	.LBE3875:
 6040              	.LBE3877:
 6041              	.LBE3879:
 6042              	.LBE3881:
 6043              		.loc 1 2225 0
 6044 02cc 3D200000 		lis 9,_ZTVN7sigslot7signal2IP10DeviceMenuiNS_15single_threadedEEE+8@ha
 6045              	.LBE3883:
 6046              	.LBE3925:
 6047              		.loc 4 34 0
 6048 02d0 390B00E4 		addi 8,11,228
 6049              	.LBB3926:
 6050              	.LBB3919:
 6051              	.LBB3914:
 6052              	.LBB3909:
 6053              	.LBB3904:
 6054              	.LBB3899:
 6055              		.loc 8 445 0
 6056 02d4 901F00B8 		stw 0,184(31)
 6057 02d8 901F00BC 		stw 0,188(31)
 6058              	.LBE3899:
 6059              	.LBE3904:
 6060              	.LBE3909:
 6061              	.LBE3914:
 6062              	.LBE3919:
 6063              	.LBE3926:
 6064              	.LBB3927:
 6065              		.loc 4 37 0
 6066 02dc 3C600000 		lis 3,.LC4@ha
 6067              	.LBE3927:
 6068              	.LBB3969:
 6069              	.LBB3920:
 6070              	.LBB3915:
 6071              	.LBB3910:
 6072              	.LBB3905:
 6073              	.LBB3900:
 6074              		.loc 8 445 0
 6075 02e0 901F00C8 		stw 0,200(31)
 6076              	.LVL494:
 6077              	.LBE3900:
 6078              	.LBE3905:
 6079              	.LBE3910:
 6080              	.LBE3915:
 6081              	.LBE3920:
 6082              	.LBE3969:
 6083              	.LBB3970:
 6084              	.LBB3884:
 6085              		.loc 1 2225 0
 6086 02e4 38090008 		la 0,_ZTVN7sigslot7signal2IP10DeviceMenuiNS_15single_threadedEEE+8@l(9)
 6087              	.LBE3884:
 6088              	.LBE3970:
 6089              	.LBB3971:
 6090              	.LBB3921:
 6091              	.LBB3916:
 6092              	.LBB3911:
 6093              	.LBB3906:
 6094              	.LBB3901:
 6095              	.LBB3896:
 6096              	.LBB3894:
 6097              		.loc 8 459 0
 6098 02e8 915F00C0 		stw 10,192(31)
 6099              	.LBE3894:
 6100              	.LBE3896:
 6101              	.LBE3901:
 6102              	.LBE3906:
 6103              	.LBE3911:
 6104              	.LBE3916:
 6105              	.LBE3921:
 6106              	.LBE3971:
 6107              	.LBB3972:
 6108              		.loc 4 37 0
 6109 02ec 38630000 		la 3,.LC4@l(3)
 6110              	.LBE3972:
 6111              	.LBB3973:
 6112              	.LBB3922:
 6113              	.LBB3917:
 6114              	.LBB3912:
 6115              	.LBB3907:
 6116              	.LBB3902:
 6117              	.LBB3897:
 6118              	.LBB3895:
 6119              		.loc 8 460 0
 6120 02f0 915F00C4 		stw 10,196(31)
 6121              	.LBE3895:
 6122              	.LBE3897:
 6123              	.LBE3902:
 6124              	.LBE3907:
 6125              	.LBE3912:
 6126              	.LBE3917:
 6127              	.LBE3922:
 6128              	.LBE3973:
 6129              		.loc 4 34 0
 6130 02f4 917F0000 		stw 11,0(31)
 6131 02f8 911F00B0 		stw 8,176(31)
 6132              	.LVL495:
 6133              	.LBB3974:
 6134              	.LBB3885:
 6135              		.loc 1 2225 0
 6136 02fc 901F00CC 		stw 0,204(31)
 6137              	.LVL496:
 6138              	.LEHB40:
 6139              	.LBE3885:
 6140              	.LBE3974:
 6141              	.LBB3975:
 6142              		.loc 4 37 0
 6143 0300 48000001 		bl getThemeInt
 6144              		.loc 4 38 0
 6145 0304 38000000 		li 0,0
 6146              		.loc 4 37 0
 6147 0308 7C7B1B78 		mr 27,3
 6148              	.LVL497:
 6149              		.loc 4 38 0
 6150 030c 901F00D8 		stw 0,216(31)
 6151              		.loc 4 40 0
 6152 0310 3C600000 		lis 3,.LC5@ha
 6153              	.LVL498:
 6154 0314 3863001C 		la 3,.LC5@l(3)
 6155 0318 48000001 		bl _ZN9Resources8GetSoundEPKc
 6156              		.loc 4 40 0 is_stmt 0 discriminator 1
 6157 031c 907F01E8 		stw 3,488(31)
 6158              		.loc 4 41 0 is_stmt 1 discriminator 1
 6159 0320 3C600000 		lis 3,.LC6@ha
 6160 0324 38630030 		la 3,.LC6@l(3)
 6161 0328 48000001 		bl _ZN9Resources8GetSoundEPKc
 6162              		.loc 4 42 0 discriminator 1
 6163 032c 3FC00000 		lis 30,Settings@ha
 6164              		.loc 4 41 0 discriminator 1
 6165 0330 907F01EC 		stw 3,492(31)
 6166              		.loc 4 42 0 discriminator 1
 6167 0334 3BDE0000 		la 30,Settings@l(30)
 6168 0338 807F01E8 		lwz 3,488(31)
 6169 033c 809E04E0 		lwz 4,1248(30)
 6170 0340 48000001 		bl _ZN8GuiSound9SetVolumeEi
 6171              		.loc 4 43 0
 6172 0344 807F01EC 		lwz 3,492(31)
 6173 0348 809E04E0 		lwz 4,1248(30)
 6174 034c 48000001 		bl _ZN8GuiSound9SetVolumeEi
 6175              		.loc 4 46 0
 6176 0350 3C600000 		lis 3,.LC7@ha
 6177 0354 38630040 		la 3,.LC7@l(3)
 6178 0358 48000001 		bl _ZN9Resources12GetImageDataEPKc
 6179 035c 907F0170 		stw 3,368(31)
 6180              		.loc 4 47 0
 6181 0360 3C600000 		lis 3,.LC8@ha
 6182 0364 38630058 		la 3,.LC8@l(3)
 6183 0368 48000001 		bl _ZN9Resources12GetImageDataEPKc
 6184              		.loc 4 47 0 is_stmt 0 discriminator 1
 6185 036c 907F0174 		stw 3,372(31)
 6186              		.loc 4 48 0 is_stmt 1 discriminator 1
 6187 0370 3C600000 		lis 3,.LC9@ha
 6188 0374 38630070 		la 3,.LC9@l(3)
 6189 0378 48000001 		bl _ZN9Resources12GetImageDataEPKc
 6190 037c 907F0178 		stw 3,376(31)
 6191              		.loc 4 49 0 discriminator 1
 6192 0380 3C600000 		lis 3,.LC10@ha
 6193 0384 3863008C 		la 3,.LC10@l(3)
 6194 0388 48000001 		bl _ZN9Resources12GetImageDataEPKc
 6195 038c 907F017C 		stw 3,380(31)
 6196              		.loc 4 52 0 discriminator 1
 6197 0390 3C600000 		lis 3,.LC11@ha
 6198 0394 386300A0 		la 3,.LC11@l(3)
 6199 0398 48000001 		bl _ZN9Resources12GetImageDataEPKc
 6200 039c 907F0180 		stw 3,384(31)
 6201              		.loc 4 53 0 discriminator 1
 6202 03a0 3C600000 		lis 3,.LC12@ha
 6203 03a4 386300B8 		la 3,.LC12@l(3)
 6204 03a8 48000001 		bl _ZN9Resources12GetImageDataEPKc
 6205 03ac 907F0184 		stw 3,388(31)
 6206              		.loc 4 60 0 discriminator 1
 6207 03b0 386000C4 		li 3,196
 6208 03b4 48000001 		bl _Znwj
 6209              	.LEHE40:
 6210 03b8 809F0178 		lwz 4,376(31)
 6211 03bc 7C7D1B78 		mr 29,3
 6212              	.LEHB41:
 6213 03c0 48000001 		bl _ZN8GuiImageC1EP12GuiImageData
 6214              	.LEHE41:
 6215 03c4 93BF010C 		stw 29,268(31)
 6216              		.loc 4 61 0 discriminator 1
 6217 03c8 386000C4 		li 3,196
 6218              	.LEHB42:
 6219 03cc 48000001 		bl _Znwj
 6220              	.LEHE42:
 6221 03d0 809F0174 		lwz 4,372(31)
 6222 03d4 7C7D1B78 		mr 29,3
 6223              	.LEHB43:
 6224 03d8 48000001 		bl _ZN8GuiImageC1EP12GuiImageData
 6225              	.LEHE43:
 6226 03dc 93BF0110 		stw 29,272(31)
 6227              		.loc 4 62 0 discriminator 1
 6228 03e0 386000C4 		li 3,196
 6229              	.LEHB44:
 6230 03e4 48000001 		bl _Znwj
 6231              	.LEHE44:
 6232 03e8 809F0170 		lwz 4,368(31)
 6233 03ec 7C7D1B78 		mr 29,3
 6234              	.LEHB45:
 6235 03f0 48000001 		bl _ZN8GuiImageC1EP12GuiImageData
 6236              	.LEHE45:
 6237 03f4 93BF0114 		stw 29,276(31)
 6238              		.loc 4 64 0 discriminator 1
 6239 03f8 38600170 		li 3,368
 6240              	.LEHB46:
 6241 03fc 48000001 		bl _Znwj
 6242              	.LEHE46:
 6243 0400 7C7D1B78 		mr 29,3
 6244 0404 A35E0A38 		lhz 26,2616(30)
 6245 0408 A33E0A54 		lhz 25,2644(30)
 6246 040c A39E0A70 		lhz 28,2672(30)
 6247              	.LVL499:
 6248              	.LEHB47:
 6249              	.LBB3928:
 6250              	.LBB3929:
 6251              		.loc 7 95 0 discriminator 1
 6252 0410 48000001 		bl _ZN10GuiTriggerC2Ev
 6253              	.LEHE47:
 6254              	.LVL500:
 6255              		.loc 7 95 0 is_stmt 0
 6256 0414 3D200000 		lis 9,_ZTV16SimpleGuiTrigger+8@ha
 6257              	.LBE3929:
 6258              	.LBE3928:
 6259              		.loc 4 64 0 is_stmt 1
 6260 0418 5725801E 		slwi 5,25,16
 6261              	.LBB3932:
 6262              	.LBB3930:
 6263              		.loc 7 95 0
 6264 041c 38090008 		la 0,_ZTV16SimpleGuiTrigger+8@l(9)
 6265              		.loc 7 96 0
 6266 0420 7FA3EB78 		mr 3,29
 6267              		.loc 7 95 0
 6268 0424 901D0000 		stw 0,0(29)
 6269              		.loc 7 96 0
 6270 0428 3880FFFF 		li 4,-1
 6271 042c 7CA5D378 		or 5,5,26
 6272 0430 7F86E378 		mr 6,28
 6273              	.LEHB48:
 6274 0434 48000001 		bl _ZN10GuiTrigger16SetSimpleTriggerEijt
 6275              	.LEHE48:
 6276              	.LBE3930:
 6277              	.LBE3932:
 6278              		.loc 4 64 0 discriminator 1
 6279 0438 93BF01F0 		stw 29,496(31)
 6280              		.loc 4 65 0 discriminator 1
 6281 043c 38600170 		li 3,368
 6282              	.LEHB49:
 6283 0440 48000001 		bl _Znwj
 6284              	.LEHE49:
 6285 0444 7C7D1B78 		mr 29,3
 6286              	.LVL501:
 6287              	.LEHB50:
 6288 0448 48000001 		bl _ZN10GuiTriggerC1Ev
 6289              	.LEHE50:
 6290              		.loc 4 66 0 discriminator 2
 6291 044c A0BE0A56 		lhz 5,2646(30)
 6292 0450 7FA3EB78 		mr 3,29
 6293 0454 A01E0A3A 		lhz 0,2618(30)
 6294 0458 3880FFFF 		li 4,-1
 6295 045c 54A5801E 		slwi 5,5,16
 6296              		.loc 4 65 0 discriminator 2
 6297 0460 93BF01F4 		stw 29,500(31)
 6298              		.loc 4 66 0 discriminator 2
 6299 0464 A0DE0A72 		lhz 6,2674(30)
 6300 0468 7CA50378 		or 5,5,0
 6301              	.LEHB51:
 6302 046c 48000001 		bl _ZN10GuiTrigger20SetButtonOnlyTriggerEijt
 6303              		.loc 4 66 0 is_stmt 0
 6304 0470 38800000 		li 4,0
 6305 0474 38A0002C 		li 5,44
 6306 0478 387F01BC 		addi 3,31,444
 6307 047c 48000001 		bl memset
 6308 0480 38800000 		li 4,0
 6309 0484 38A0002C 		li 5,44
 6310 0488 387F0118 		addi 3,31,280
 6311 048c 48000001 		bl memset
 6312 0490 38800000 		li 4,0
 6313 0494 38A0002C 		li 5,44
 6314 0498 387F0144 		addi 3,31,324
 6315 049c 48000001 		bl memset
 6316 04a0 387F0188 		addi 3,31,392
 6317 04a4 38800000 		li 4,0
 6318 04a8 38A0002C 		li 5,44
 6319 04ac 48000001 		bl memset
 6320              		.loc 4 77 0 is_stmt 1
 6321 04b0 807F0110 		lwz 3,272(31)
 6322              	.LBB3933:
 6323              		.loc 4 74 0
 6324 04b4 3800FFFF 		li 0,-1
 6325              	.LBE3933:
 6326              		.loc 4 77 0
 6327 04b8 81230000 		lwz 9,0(3)
 6328              	.LBB3934:
 6329              		.loc 4 74 0
 6330 04bc 901F00DC 		stw 0,220(31)
 6331              	.LVL502:
 6332 04c0 901F00E0 		stw 0,224(31)
 6333              	.LVL503:
 6334 04c4 901F00E4 		stw 0,228(31)
 6335              	.LVL504:
 6336 04c8 901F00E8 		stw 0,232(31)
 6337              	.LVL505:
 6338 04cc 901F00EC 		stw 0,236(31)
 6339              	.LVL506:
 6340 04d0 901F00F0 		stw 0,240(31)
 6341              	.LVL507:
 6342 04d4 901F00F4 		stw 0,244(31)
 6343              	.LVL508:
 6344 04d8 901F00F8 		stw 0,248(31)
 6345              	.LVL509:
 6346 04dc 901F00FC 		stw 0,252(31)
 6347              	.LVL510:
 6348 04e0 901F0100 		stw 0,256(31)
 6349              	.LVL511:
 6350 04e4 901F0104 		stw 0,260(31)
 6351              	.LVL512:
 6352              	.LBE3934:
 6353              		.loc 4 77 0
 6354 04e8 80090024 		lwz 0,36(9)
 6355 04ec 7C0903A6 		mtctr 0
 6356 04f0 4E800421 		bctrl
 6357 04f4 7C7C1B78 		mr 28,3
 6358              	.LVL513:
 6359              		.loc 4 79 0
 6360 04f8 48000001 		bl _ZN13DeviceHandler8InstanceEv
 6361              	.LVL514:
 6362              		.loc 4 79 0 is_stmt 0 discriminator 1
 6363 04fc 38800000 		li 4,0
 6364 0500 48000001 		bl _ZN13DeviceHandler10IsInsertedEi
 6365 0504 2F830000 		cmpwi 7,3,0
 6366 0508 409E06E0 		bne- 7,.L513
 6367              	.LVL515:
 6368              	.LBE3975:
 6369              	.LBE3982:
 6370              		.loc 4 33 0 is_stmt 1 discriminator 1
 6371 050c 3BC00001 		li 30,1
 6372              	.LVL516:
 6373              	.L455:
 6374              	.LBB3983:
 6375              	.LBB3976:
 6376              	.LBB3935:
 6377              		.loc 4 108 0
 6378 0510 48000001 		bl _ZN13DeviceHandler8InstanceEv
 6379 0514 7FC4F378 		mr 4,30
 6380 0518 48000001 		bl _ZN13DeviceHandler10IsInsertedEi
 6381              		.loc 4 108 0 is_stmt 0 discriminator 1
 6382 051c 2F830000 		cmpwi 7,3,0
 6383 0520 409E03BC 		bne- 7,.L514
 6384              	.L454:
 6385              	.LVL517:
 6386              		.loc 4 106 0 is_stmt 1
 6387 0524 2F9E000A 		cmpwi 7,30,10
 6388 0528 3BDE0001 		addi 30,30,1
 6389              	.LVL518:
 6390 052c 409EFFE4 		bne+ 7,.L455
 6391              	.LBE3935:
 6392              		.loc 4 236 0
 6393 0530 807F0110 		lwz 3,272(31)
 6394 0534 81230000 		lwz 9,0(3)
 6395 0538 80090024 		lwz 0,36(9)
 6396 053c 7C0903A6 		mtctr 0
 6397 0540 4E800421 		bctrl
 6398 0544 7C7E1B78 		mr 30,3
 6399              	.LVL519:
 6400 0548 807F010C 		lwz 3,268(31)
 6401 054c 81230000 		lwz 9,0(3)
 6402 0550 80090024 		lwz 0,36(9)
 6403 0554 7C0903A6 		mtctr 0
 6404 0558 4E800421 		bctrl
 6405              		.loc 4 236 0 is_stmt 0 discriminator 1
 6406 055c 7FDEE050 		subf 30,30,28
 6407              		.loc 4 238 0 is_stmt 1 discriminator 1
 6408 0560 38800011 		li 4,17
 6409              		.loc 4 236 0 discriminator 1
 6410 0564 7FDE1BD6 		divw 30,30,3
 6411              		.loc 4 238 0 discriminator 1
 6412 0568 807F0110 		lwz 3,272(31)
 6413 056c 81230000 		lwz 9,0(3)
 6414 0570 800900B4 		lwz 0,180(9)
 6415 0574 7C0903A6 		mtctr 0
 6416              		.loc 4 236 0 discriminator 1
 6417 0578 93DF0108 		stw 30,264(31)
 6418              		.loc 4 238 0 discriminator 1
 6419 057c 4E800421 		bctrl
 6420              		.loc 4 239 0
 6421 0580 807F0110 		lwz 3,272(31)
 6422 0584 38800000 		li 4,0
 6423 0588 38A00000 		li 5,0
 6424 058c 81230000 		lwz 9,0(3)
 6425 0590 800900A8 		lwz 0,168(9)
 6426 0594 7C0903A6 		mtctr 0
 6427 0598 4E800421 		bctrl
 6428              		.loc 4 241 0
 6429 059c 807F010C 		lwz 3,268(31)
 6430 05a0 38800011 		li 4,17
 6431 05a4 81230000 		lwz 9,0(3)
 6432 05a8 800900B4 		lwz 0,180(9)
 6433 05ac 7C0903A6 		mtctr 0
 6434 05b0 4E800421 		bctrl
 6435              		.loc 4 242 0
 6436 05b4 807F0110 		lwz 3,272(31)
 6437 05b8 83DF010C 		lwz 30,268(31)
 6438 05bc 81230000 		lwz 9,0(3)
 6439 05c0 80090010 		lwz 0,16(9)
 6440 05c4 813E0000 		lwz 9,0(30)
 6441 05c8 7C0903A6 		mtctr 0
 6442 05cc 83A900A8 		lwz 29,168(9)
 6443 05d0 4E800421 		bctrl
 6444 05d4 7C7C1B78 		mr 28,3
 6445              	.LVL520:
 6446 05d8 807F0110 		lwz 3,272(31)
 6447 05dc 81230000 		lwz 9,0(3)
 6448 05e0 80090024 		lwz 0,36(9)
 6449 05e4 7C0903A6 		mtctr 0
 6450 05e8 4E800421 		bctrl
 6451              		.loc 4 242 0 is_stmt 0 discriminator 1
 6452 05ec 7C9C1A14 		add 4,28,3
 6453 05f0 38A00000 		li 5,0
 6454 05f4 7FC3F378 		mr 3,30
 6455 05f8 7FA903A6 		mtctr 29
 6456 05fc 4E800421 		bctrl
 6457              		.loc 4 243 0 is_stmt 1
 6458 0600 807F010C 		lwz 3,268(31)
 6459 0604 809F0108 		lwz 4,264(31)
 6460 0608 48000001 		bl _ZN8GuiImage17SetTileHorizontalEi
 6461              		.loc 4 245 0
 6462 060c 807F0114 		lwz 3,276(31)
 6463 0610 38800011 		li 4,17
 6464 0614 81230000 		lwz 9,0(3)
 6465 0618 800900B4 		lwz 0,180(9)
 6466 061c 7C0903A6 		mtctr 0
 6467 0620 4E800421 		bctrl
 6468              		.loc 4 246 0
 6469 0624 807F0110 		lwz 3,272(31)
 6470 0628 83DF0114 		lwz 30,276(31)
 6471 062c 81230000 		lwz 9,0(3)
 6472 0630 80090024 		lwz 0,36(9)
 6473 0634 813E0000 		lwz 9,0(30)
 6474 0638 7C0903A6 		mtctr 0
 6475 063c 83A900A8 		lwz 29,168(9)
 6476 0640 4E800421 		bctrl
 6477 0644 7C7C1B78 		mr 28,3
 6478 0648 807F010C 		lwz 3,268(31)
 6479 064c 837F0108 		lwz 27,264(31)
 6480              	.LVL521:
 6481 0650 81230000 		lwz 9,0(3)
 6482 0654 80090024 		lwz 0,36(9)
 6483 0658 7C0903A6 		mtctr 0
 6484 065c 4E800421 		bctrl
 6485              		.loc 4 246 0 is_stmt 0 discriminator 1
 6486 0660 7C9B19D6 		mullw 4,27,3
 6487 0664 38A00000 		li 5,0
 6488 0668 7FC3F378 		mr 3,30
 6489 066c 7FA903A6 		mtctr 29
 6490 0670 7C9C2214 		add 4,28,4
 6491 0674 4E800421 		bctrl
 6492              		.loc 4 248 0 is_stmt 1
 6493 0678 807F0110 		lwz 3,272(31)
 6494 067c 81230000 		lwz 9,0(3)
 6495 0680 80090024 		lwz 0,36(9)
 6496 0684 7C0903A6 		mtctr 0
 6497 0688 4E800421 		bctrl
 6498 068c 7C7E1B78 		mr 30,3
 6499 0690 807F010C 		lwz 3,268(31)
 6500 0694 839F0108 		lwz 28,264(31)
 6501 0698 81230000 		lwz 9,0(3)
 6502 069c 80090024 		lwz 0,36(9)
 6503 06a0 7C0903A6 		mtctr 0
 6504 06a4 4E800421 		bctrl
 6505              		.loc 4 248 0 is_stmt 0 discriminator 1
 6506 06a8 7C7D1B78 		mr 29,3
 6507 06ac 807F0114 		lwz 3,276(31)
 6508 06b0 81230000 		lwz 9,0(3)
 6509 06b4 80090024 		lwz 0,36(9)
 6510 06b8 7C0903A6 		mtctr 0
 6511 06bc 4E800421 		bctrl
 6512              		.loc 4 249 0 is_stmt 1 discriminator 1
 6513 06c0 813F0110 		lwz 9,272(31)
 6514              		.loc 4 248 0 discriminator 1
 6515 06c4 7FBCE9D6 		mullw 29,28,29
 6516              		.loc 4 249 0 discriminator 1
 6517 06c8 81690000 		lwz 11,0(9)
 6518              		.loc 4 248 0 discriminator 1
 6519 06cc 7FDEEA14 		add 30,30,29
 6520              		.loc 4 249 0 discriminator 1
 6521 06d0 800B0028 		lwz 0,40(11)
 6522              		.loc 4 248 0 discriminator 1
 6523 06d4 7FDE1A14 		add 30,30,3
 6524              		.loc 4 249 0 discriminator 1
 6525 06d8 7D234B78 		mr 3,9
 6526              		.loc 4 248 0 discriminator 1
 6527 06dc 93DF0024 		stw 30,36(31)
 6528              		.loc 4 249 0 discriminator 1
 6529 06e0 7C0903A6 		mtctr 0
 6530 06e4 4E800421 		bctrl
 6531              	.LBB3936:
 6532              	.LBB3937:
 6533              		.file 11 "d:/Projects/SaveGameManager/savegame-manager-gx/trunk/source/Prompts/../Menu/TaskBar.hpp
 6534              		.loc 11 37 0 discriminator 1
 6535 06e8 3FC00000 		lis 30,_ZN7TaskBar8instanceE@ha
 6536              	.LBE3937:
 6537              	.LBE3936:
 6538              		.loc 4 249 0 discriminator 1
 6539 06ec 907F0028 		stw 3,40(31)
 6540              	.LBB3940:
 6541              	.LBB3938:
 6542              		.loc 11 37 0 discriminator 1
 6543 06f0 83BE0000 		lwz 29,_ZN7TaskBar8instanceE@l(30)
 6544 06f4 2F9D0000 		cmpwi 7,29,0
 6545 06f8 419E0814 		beq- 7,.L515
 6546              	.L456:
 6547              	.LBE3938:
 6548              	.LBE3940:
 6549              		.loc 4 251 0
 6550 06fc 813D0000 		lwz 9,0(29)
 6551 0700 7FA3EB78 		mr 3,29
 6552 0704 80090010 		lwz 0,16(9)
 6553 0708 7C0903A6 		mtctr 0
 6554 070c 4E800421 		bctrl
 6555              	.LBB3941:
 6556              	.LBB3942:
 6557              		.loc 11 37 0
 6558 0710 83BE0000 		lwz 29,_ZN7TaskBar8instanceE@l(30)
 6559              	.LBE3942:
 6560              	.LBE3941:
 6561              		.loc 4 251 0
 6562 0714 7C7B1B78 		mr 27,3
 6563              	.LVL522:
 6564              	.LBB3945:
 6565              	.LBB3943:
 6566              		.loc 11 37 0
 6567 0718 2F9D0000 		cmpwi 7,29,0
 6568 071c 419E0808 		beq- 7,.L516
 6569              	.LVL523:
 6570              	.L460:
 6571              	.LBE3943:
 6572              	.LBE3945:
 6573              		.loc 4 252 0
 6574 0720 813D0000 		lwz 9,0(29)
 6575 0724 7FA3EB78 		mr 3,29
 6576 0728 80090014 		lwz 0,20(9)
 6577 072c 7C0903A6 		mtctr 0
 6578 0730 4E800421 		bctrl
 6579              	.LBB3946:
 6580              	.LBB3947:
 6581              		.loc 11 37 0
 6582 0734 83BE0000 		lwz 29,_ZN7TaskBar8instanceE@l(30)
 6583              	.LBE3947:
 6584              	.LBE3946:
 6585              		.loc 4 252 0
 6586 0738 7C7C1B78 		mr 28,3
 6587              	.LBB3951:
 6588              	.LBB3948:
 6589              		.loc 11 37 0
 6590 073c 2F9D0000 		cmpwi 7,29,0
 6591 0740 419E07B4 		beq- 7,.L517
 6592              	.L463:
 6593              	.LBE3948:
 6594              	.LBE3951:
 6595              		.loc 4 252 0
 6596 0744 813D0000 		lwz 9,0(29)
 6597 0748 7FA3EB78 		mr 3,29
 6598 074c 80090028 		lwz 0,40(9)
 6599 0750 7C0903A6 		mtctr 0
 6600 0754 4E800421 		bctrl
 6601 0758 7C7D1B78 		mr 29,3
 6602              	.LVL524:
 6603              		.loc 4 254 0
 6604 075c 38600138 		li 3,312
 6605              	.LVL525:
 6606 0760 48000001 		bl _Znwj
 6607              	.LEHE51:
 6608              		.loc 4 254 0 is_stmt 0 discriminator 1
 6609 0764 3D200000 		lis 9,screenwidth@ha
 6610 0768 7C7E1B78 		mr 30,3
 6611 076c 80890000 		lwz 4,screenwidth@l(9)
 6612 0770 3D200000 		lis 9,screenheight@ha
 6613 0774 80A90000 		lwz 5,screenheight@l(9)
 6614              	.LEHB52:
 6615 0778 48000001 		bl _ZN9GuiButtonC1Eii
 6616              	.LEHE52:
 6617 077c 93DF01B4 		stw 30,436(31)
 6618              		.loc 4 251 0 is_stmt 1 discriminator 1
 6619 0780 3B7BFFFB 		addi 27,27,-5
 6620              	.LVL526:
 6621              		.loc 4 255 0 discriminator 1
 6622 0784 813E0000 		lwz 9,0(30)
 6623              		.loc 4 252 0 discriminator 1
 6624 0788 7F9CEA14 		add 28,28,29
 6625              	.LVL527:
 6626              		.loc 4 255 0 discriminator 1
 6627 078c 7FC3F378 		mr 3,30
 6628 0790 7C9B00D0 		neg 4,27
 6629 0794 800900A8 		lwz 0,168(9)
 6630 0798 7CBC00D0 		neg 5,28
 6631 079c 7C0903A6 		mtctr 0
 6632              	.LEHB53:
 6633 07a0 4E800421 		bctrl
 6634              		.loc 4 256 0
 6635 07a4 807F01B4 		lwz 3,436(31)
 6636 07a8 809F01F0 		lwz 4,496(31)
 6637 07ac 48000001 		bl _ZN9GuiButton10SetTriggerEP10GuiTrigger
 6638              		.loc 4 257 0
 6639 07b0 807F01B4 		lwz 3,436(31)
 6640 07b4 3FA00000 		lis 29,_ZN10DeviceMenu13OnButtonClickEP9GuiButtoniRK6_POINT@ha
 6641 07b8 3BBD0000 		la 29,_ZN10DeviceMenu13OnButtonClickEP9GuiButtoniRK6_POINT@l(29)
 6642 07bc 38000000 		li 0,0
 6643 07c0 38630090 		addi 3,3,144
 6644 07c4 7FE4FB78 		mr 4,31
 6645 07c8 38A10010 		addi 5,1,16
 6646 07cc 93A10010 		stw 29,16(1)
 6647 07d0 90010014 		stw 0,20(1)
 6648 07d4 48000001 		bl _ZN7sigslot7signal3IP9GuiButtoniRK6_POINTNS_15single_threadedEE7connectI10DeviceMenuEEvPT_MSA_F
 6649              		.loc 4 259 0
 6650 07d8 38600138 		li 3,312
 6651 07dc 48000001 		bl _Znwj
 6652              	.LEHE53:
 6653 07e0 38800000 		li 4,0
 6654 07e4 38A00000 		li 5,0
 6655 07e8 7C7E1B78 		mr 30,3
 6656              	.LEHB54:
 6657 07ec 48000001 		bl _ZN9GuiButtonC1Eii
 6658              	.LEHE54:
 6659              		.loc 4 259 0 is_stmt 0 discriminator 1
 6660 07f0 93DF01B8 		stw 30,440(31)
 6661              		.loc 4 260 0 is_stmt 1 discriminator 1
 6662 07f4 7FC3F378 		mr 3,30
 6663 07f8 809F01F4 		lwz 4,500(31)
 6664              	.LEHB55:
 6665 07fc 48000001 		bl _ZN9GuiButton10SetTriggerEP10GuiTrigger
 6666              		.loc 4 261 0
 6667 0800 807F01B8 		lwz 3,440(31)
 6668 0804 38000000 		li 0,0
 6669 0808 7FE4FB78 		mr 4,31
 6670 080c 38A10010 		addi 5,1,16
 6671 0810 38630090 		addi 3,3,144
 6672 0814 93A10010 		stw 29,16(1)
 6673 0818 90010014 		stw 0,20(1)
 6674 081c 48000001 		bl _ZN7sigslot7signal3IP9GuiButtoniRK6_POINTNS_15single_threadedEE7connectI10DeviceMenuEEvPT_MSA_F
 6675              		.loc 4 263 0
 6676 0820 809F01B4 		lwz 4,436(31)
 6677 0824 7FE3FB78 		mr 3,31
 6678 0828 48000001 		bl _ZN8GuiFrame6AppendEP10GuiElement
 6679              		.loc 4 264 0
 6680 082c 809F01B8 		lwz 4,440(31)
 6681 0830 7FE3FB78 		mr 3,31
 6682 0834 48000001 		bl _ZN8GuiFrame6AppendEP10GuiElement
 6683              		.loc 4 265 0
 6684 0838 809F0110 		lwz 4,272(31)
 6685 083c 7FE3FB78 		mr 3,31
 6686 0840 48000001 		bl _ZN8GuiFrame6AppendEP10GuiElement
 6687              		.loc 4 266 0
 6688 0844 809F010C 		lwz 4,268(31)
 6689 0848 7FE3FB78 		mr 3,31
 6690 084c 48000001 		bl _ZN8GuiFrame6AppendEP10GuiElement
 6691              		.loc 4 267 0
 6692 0850 809F0114 		lwz 4,276(31)
 6693 0854 7FE3FB78 		mr 3,31
 6694 0858 48000001 		bl _ZN8GuiFrame6AppendEP10GuiElement
 6695              	.LVL528:
 6696              	.LBB3952:
 6697              		.loc 4 268 0 discriminator 1
 6698 085c 801F00D8 		lwz 0,216(31)
 6699 0860 2F800000 		cmpwi 7,0,0
 6700 0864 409D0028 		ble- 7,.L466
 6701              		.loc 4 33 0
 6702 0868 3BBF01B8 		addi 29,31,440
 6703              	.LBE3952:
 6704              	.LBE3976:
 6705              	.LBE3983:
 6706 086c 3BC00000 		li 30,0
 6707              	.LVL529:
 6708              	.L467:
 6709              	.LBB3984:
 6710              	.LBB3977:
 6711              	.LBB3953:
 6712              		.loc 4 269 0
 6713 0870 849D0004 		lwzu 4,4(29)
 6714 0874 7FE3FB78 		mr 3,31
 6715 0878 48000001 		bl _ZN8GuiFrame6AppendEP10GuiElement
 6716              		.loc 4 268 0
 6717 087c 801F00D8 		lwz 0,216(31)
 6718 0880 3BDE0001 		addi 30,30,1
 6719              	.LVL530:
 6720 0884 7F80F000 		cmpw 7,0,30
 6721 0888 419DFFE8 		bgt+ 7,.L467
 6722              	.LVL531:
 6723              	.L466:
 6724              	.LBE3953:
 6725              	.LBB3954:
 6726              	.LBB3955:
 6727              		.loc 2 316 0
 6728 088c 38000011 		li 0,17
 6729              	.LBE3955:
 6730              	.LBE3954:
 6731              	.LBB3957:
 6732              	.LBB3958:
 6733              		.loc 2 297 0
 6734 0890 937F002C 		stw 27,44(31)
 6735              	.LBE3958:
 6736              	.LBE3957:
 6737              	.LBB3960:
 6738              	.LBB3956:
 6739              		.loc 2 316 0
 6740 0894 901F0044 		stw 0,68(31)
 6741              	.LVL532:
 6742              	.LBE3956:
 6743              	.LBE3960:
 6744              		.loc 4 273 0
 6745 0898 7FE3FB78 		mr 3,31
 6746              	.LBB3961:
 6747              	.LBB3959:
 6748              		.loc 2 298 0
 6749 089c 939F0030 		stw 28,48(31)
 6750              	.LBE3959:
 6751              	.LBE3961:
 6752              		.loc 4 273 0
 6753 08a0 38800080 		li 4,128
 6754 08a4 38A00019 		li 5,25
 6755 08a8 38C00000 		li 6,0
 6756 08ac 48000001 		bl _ZN10GuiElement9SetEffectEiii
 6757              	.LBE3977:
 6758              	.LBE3984:
 6759              		.loc 4 274 0
 6760 08b0 8001003C 		lwz 0,60(1)
 6761 08b4 8321001C 		lwz 25,28(1)
 6762 08b8 7C0803A6 		mtlr 0
 6763 08bc 83410020 		lwz 26,32(1)
 6764 08c0 83610024 		lwz 27,36(1)
 6765              	.LVL533:
 6766 08c4 83810028 		lwz 28,40(1)
 6767              	.LVL534:
 6768 08c8 83A1002C 		lwz 29,44(1)
 6769 08cc 83C10030 		lwz 30,48(1)
 6770 08d0 83E10034 		lwz 31,52(1)
 6771              	.LVL535:
 6772 08d4 38210038 		addi 1,1,56
 6773              		.cfi_remember_state
 6774              	.LCFI72:
 6775              		.cfi_def_cfa_offset 0
 6776              		.cfi_restore 31
 6777              		.cfi_restore 30
 6778              		.cfi_restore 29
 6779              		.cfi_restore 28
 6780              		.cfi_restore 27
 6781              		.cfi_restore 26
 6782              		.cfi_restore 25
 6783 08d8 4E800020 		blr
 6784              	.LVL536:
 6785              	.L514:
 6786              	.LCFI73:
 6787              		.cfi_restore_state
 6788              	.LBB3985:
 6789              	.LBB3978:
 6790              	.LBB3962:
 6791              		.loc 4 110 0
 6792 08dc 3C600000 		lis 3,.LC13@ha
 6793 08e0 386300D0 		la 3,.LC13@l(3)
 6794 08e4 48000001 		bl getThemeColor
 6795 08e8 7C7A1B78 		mr 26,3
 6796 08ec 386000D0 		li 3,208
 6797 08f0 48000001 		bl _Znwj
 6798              	.LEHE55:
 6799              		.loc 4 110 0 is_stmt 0 discriminator 1
 6800 08f4 7C260B78 		mr 6,1
 6801 08f8 1C1E0006 		mulli 0,30,6
 6802 08fc 3C800000 		lis 4,.LANCHOR0@ha
 6803 0900 97460008 		stwu 26,8(6)
 6804 0904 38840000 		la 4,.LANCHOR0@l(4)
 6805 0908 7F65DB78 		mr 5,27
 6806 090c 7C840214 		add 4,4,0
 6807 0910 7C7D1B78 		mr 29,3
 6808              	.LEHB56:
 6809 0914 48000001 		bl _ZN7GuiTextC1EPKci9_gx_color
 6810              	.LEHE56:
 6811 0918 813F00D8 		lwz 9,216(31)
 6812              		.loc 4 111 0 is_stmt 1 discriminator 1
 6813 091c 7FA3EB78 		mr 3,29
 6814 0920 38800042 		li 4,66
 6815              		.loc 4 110 0 discriminator 1
 6816 0924 39290060 		addi 9,9,96
 6817 0928 5529103A 		slwi 9,9,2
 6818 092c 7D3F4A14 		add 9,31,9
 6819 0930 93A90008 		stw 29,8(9)
 6820              		.loc 4 111 0 discriminator 1
 6821 0934 813D0000 		lwz 9,0(29)
 6822 0938 800900B4 		lwz 0,180(9)
 6823 093c 7C0903A6 		mtctr 0
 6824              	.LEHB57:
 6825 0940 4E800421 		bctrl
 6826              		.loc 4 112 0
 6827 0944 813F00D8 		lwz 9,216(31)
 6828 0948 38800000 		li 4,0
 6829 094c 38A00002 		li 5,2
 6830 0950 39290060 		addi 9,9,96
 6831 0954 5529103A 		slwi 9,9,2
 6832 0958 7D3F4A14 		add 9,31,9
 6833 095c 80690008 		lwz 3,8(9)
 6834 0960 81230000 		lwz 9,0(3)
 6835 0964 800900A8 		lwz 0,168(9)
 6836 0968 7C0903A6 		mtctr 0
 6837 096c 4E800421 		bctrl
 6838              		.loc 4 114 0
 6839 0970 386000C4 		li 3,196
 6840 0974 48000001 		bl _Znwj
 6841              	.LEHE57:
 6842 0978 809F0184 		lwz 4,388(31)
 6843 097c 7C7D1B78 		mr 29,3
 6844              	.LEHB58:
 6845 0980 48000001 		bl _ZN8GuiImageC1EP12GuiImageData
 6846              	.LEHE58:
 6847              		.loc 4 114 0 is_stmt 0 discriminator 1
 6848 0984 813F00D8 		lwz 9,216(31)
 6849              		.loc 4 115 0 is_stmt 1 discriminator 1
 6850 0988 7FA3EB78 		mr 3,29
 6851 098c 38800012 		li 4,18
 6852              		.loc 4 114 0 discriminator 1
 6853 0990 39290044 		addi 9,9,68
 6854 0994 5529103A 		slwi 9,9,2
 6855 0998 7D3F4A14 		add 9,31,9
 6856 099c 93A90008 		stw 29,8(9)
 6857              		.loc 4 115 0 discriminator 1
 6858 09a0 813D0000 		lwz 9,0(29)
 6859 09a4 800900B4 		lwz 0,180(9)
 6860 09a8 7C0903A6 		mtctr 0
 6861              	.LEHB59:
 6862 09ac 4E800421 		bctrl
 6863              		.loc 4 116 0
 6864 09b0 386000C4 		li 3,196
 6865 09b4 48000001 		bl _Znwj
 6866              	.LEHE59:
 6867 09b8 809F017C 		lwz 4,380(31)
 6868 09bc 7C7D1B78 		mr 29,3
 6869              	.LEHB60:
 6870 09c0 48000001 		bl _ZN8GuiImageC1EP12GuiImageData
 6871              	.LEHE60:
 6872              		.loc 4 116 0 is_stmt 0 discriminator 1
 6873 09c4 813F00D8 		lwz 9,216(31)
 6874              		.loc 4 117 0 is_stmt 1 discriminator 1
 6875 09c8 7FA3EB78 		mr 3,29
 6876 09cc 38800022 		li 4,34
 6877              		.loc 4 116 0 discriminator 1
 6878 09d0 39290050 		addi 9,9,80
 6879 09d4 5529103A 		slwi 9,9,2
 6880 09d8 7D3F4A14 		add 9,31,9
 6881 09dc 93A90004 		stw 29,4(9)
 6882              		.loc 4 117 0 discriminator 1
 6883 09e0 813D0000 		lwz 9,0(29)
 6884 09e4 800900B4 		lwz 0,180(9)
 6885 09e8 7C0903A6 		mtctr 0
 6886              	.LEHB61:
 6887 09ec 4E800421 		bctrl
 6888              		.loc 4 119 0
 6889 09f0 813F00D8 		lwz 9,216(31)
 6890 09f4 39290044 		addi 9,9,68
 6891 09f8 5529103A 		slwi 9,9,2
 6892 09fc 7D3F4A14 		add 9,31,9
 6893 0a00 80690008 		lwz 3,8(9)
 6894 0a04 81230000 		lwz 9,0(3)
 6895 0a08 80090024 		lwz 0,36(9)
 6896 0a0c 7C0903A6 		mtctr 0
 6897 0a10 4E800421 		bctrl
 6898 0a14 813F00D8 		lwz 9,216(31)
 6899 0a18 7C791B78 		mr 25,3
 6900 0a1c 39290044 		addi 9,9,68
 6901 0a20 5529103A 		slwi 9,9,2
 6902 0a24 7D3F4A14 		add 9,31,9
 6903 0a28 80690008 		lwz 3,8(9)
 6904 0a2c 81230000 		lwz 9,0(3)
 6905 0a30 80090028 		lwz 0,40(9)
 6906 0a34 7C0903A6 		mtctr 0
 6907 0a38 4E800421 		bctrl
 6908              		.loc 4 119 0 is_stmt 0 discriminator 1
 6909 0a3c 7C7A1B78 		mr 26,3
 6910 0a40 38600138 		li 3,312
 6911 0a44 48000001 		bl _Znwj
 6912              	.LEHE61:
 6913 0a48 7F24CB78 		mr 4,25
 6914 0a4c 7CBBD214 		add 5,27,26
 6915 0a50 7C7D1B78 		mr 29,3
 6916              	.LEHB62:
 6917 0a54 48000001 		bl _ZN9GuiButtonC1Eii
 6918              	.LEHE62:
 6919 0a58 813F00D8 		lwz 9,216(31)
 6920              		.loc 4 120 0 is_stmt 1 discriminator 1
 6921 0a5c 7FA3EB78 		mr 3,29
 6922 0a60 38A00000 		li 5,0
 6923              		.loc 4 119 0 discriminator 1
 6924 0a64 3969006C 		addi 11,9,108
 6925              		.loc 4 120 0 discriminator 1
 6926 0a68 39290060 		addi 9,9,96
 6927              		.loc 4 119 0 discriminator 1
 6928 0a6c 556B103A 		slwi 11,11,2
 6929              		.loc 4 120 0 discriminator 1
 6930 0a70 5529103A 		slwi 9,9,2
 6931              		.loc 4 119 0 discriminator 1
 6932 0a74 7D7F5A14 		add 11,31,11
