	.file	"DirList.cpp"
	.section	".text"
.Ltext0:
	.align 2
	.type	_ZL12SortCallbackRK9FileInfosS1_, @function
_ZL12SortCallbackRK9FileInfosS1_:
.LFB986:
	.file 1 "d:/Projects/SaveGameManager/savegame-manager-gx/trunk/source/FileOperations/DirList.cpp"
	.loc 1 194 0
	.cfi_startproc
.LVL0:
	mflr 0
	stwu 1,-8(1)
.LCFI0:
	.cfi_def_cfa_offset 8
	.cfi_register 65, 0
	mr 9,3
	stw 0,12(1)
	.loc 1 195 0
	lbz 0,16(3)
	.cfi_offset 65, 4
	cmpwi 7,0,0
	lbz 0,16(4)
	bne- 7,.L10
	.loc 1 196 0 discriminator 1
	cmpwi 7,0,0
	li 3,0
.LVL1:
	bne- 7,.L3
.L4:
	.loc 1 198 0
	lwz 0,0(9)
	.loc 1 199 0
	li 3,0
	.loc 1 198 0
	cmpwi 7,0,0
	beq- 7,.L3
	.loc 1 198 0 is_stmt 0 discriminator 1
	lwz 4,0(4)
.LVL2:
	li 3,1
	cmpwi 7,4,0
	beq- 7,.L3
.LBB1816:
.LBB1817:
	.loc 1 201 0 is_stmt 1
	mr 3,0
	bl strcasecmp
.LVL3:
	.loc 1 193 0
	addi 0,3,-1
	or 3,0,3
	srwi 3,3,31
.L3:
.LBE1817:
.LBE1816:
	.loc 1 205 0
	lwz 0,12(1)
	addi 1,1,8
	.cfi_remember_state
.LCFI1:
	.cfi_def_cfa_offset 0
	mtlr 0
	blr
.LVL4:
.L10:
.LCFI2:
	.cfi_restore_state
	.loc 1 195 0 discriminator 1
	cmpwi 7,0,0
	li 3,1
.LVL5:
	bne+ 7,.L4
	.loc 1 205 0
	lwz 0,12(1)
	addi 1,1,8
.LCFI3:
	.cfi_def_cfa_offset 0
	mtlr 0
	blr
	.cfi_endproc
.LFE986:
	.size	_ZL12SortCallbackRK9FileInfosS1_, .-_ZL12SortCallbackRK9FileInfosS1_
	.align 2
	.globl _ZN7DirList9AddEntrieEPKcS1_yb
	.type	_ZN7DirList9AddEntrieEPKcS1_yb, @function
_ZN7DirList9AddEntrieEPKcS1_yb:
.LFB982:
	.loc 1 147 0
	.cfi_startproc
	.cfi_personality 0,__gxx_personality_v0
	.cfi_lsda 0,.LLSDA982
.LVL6:
	stwu 1,-96(1)
.LCFI4:
	.cfi_def_cfa_offset 96
	mflr 0
	stw 25,68(1)
.LBB2032:
	.loc 1 148 0
	mr. 25,4
	.cfi_offset 25, -28
	.cfi_register 65, 0
.LBE2032:
	.loc 1 147 0
	stw 26,72(1)
	mr 26,7
	.cfi_offset 26, -24
	stw 27,76(1)
	mr 27,8
	.cfi_offset 27, -20
	stw 28,80(1)
	mr 28,9
	.cfi_offset 28, -16
	stw 30,88(1)
	mr 30,5
	.cfi_offset 30, -8
	stw 31,92(1)
	mr 31,3
	.cfi_offset 31, -4
	stw 0,100(1)
	stw 19,44(1)
	stw 20,48(1)
	stw 21,52(1)
	stw 22,56(1)
	stw 23,60(1)
	stw 24,64(1)
	stw 29,84(1)
.LBB2229:
	.loc 1 148 0
	beq- 0,.L11
	.cfi_offset 29, -12
	.cfi_offset 24, -32
	.cfi_offset 23, -36
	.cfi_offset 22, -40
	.cfi_offset 21, -44
	.cfi_offset 20, -48
	.cfi_offset 19, -52
	.cfi_offset 65, 4
	.loc 1 148 0 is_stmt 0 discriminator 1
	cmpwi 7,5,0
	beq- 7,.L11
	.loc 1 231 0 is_stmt 1
	lwz 4,0(3)
.LVL7:
.LBB2033:
.LBB2034:
	.file 2 "d:\\devkitpro\\devkitppc\\bin\\../lib/gcc/powerpc-eabi/4.6.3/../../../../powerpc-eabi/include/c++/4.6.3/bits/stl_vector.h"
	.loc 2 571 0
	lis 9,0xaaaa
.LVL8:
.LBE2034:
.LBE2033:
	.loc 1 231 0
	lwz 24,4(3)
.LBB2037:
.LBB2035:
	.loc 2 571 0
	ori 9,9,43691
	subf 29,4,24
	srawi 29,29,3
	mullw 19,29,9
.LBE2035:
.LBE2037:
	.loc 1 153 0
	addi 0,19,1
.LBB2038:
.LBB2036:
	.loc 2 571 0
	mr 23,19
.LVL9:
.LBE2036:
.LBE2038:
.LBB2039:
.LBB2040:
	.loc 2 631 0
	cmplw 7,0,19
	bgt- 7,.L50
	.loc 2 633 0
	blt- 7,.L27
	slwi 29,29,3
	add 23,4,29
.LVL10:
.L15:
.LBE2040:
.LBE2039:
	.loc 1 155 0
	mr 3,25
	bl strlen
	mr 24,3
	mr 3,30
	bl strlen
	lis 4,_ZSt7nothrow@ha
	add 3,24,3
	la 4,_ZSt7nothrow@l(4)
	addi 3,3,2
	bl _ZnajRKSt9nothrow_t
	.loc 1 231 0
	lwz 9,0(31)
	.loc 1 155 0
	stw 3,0(23)
.LBB2170:
	.loc 1 156 0
	lwzx 0,9,29
	cmpwi 7,0,0
	beq- 7,.L40
.LBB2171:
	.loc 1 158 0
	mr 4,25
	addi 5,1,9
	addi 3,1,12
.LEHB0:
	bl _ZNSsC1EPKcRKSaIcE
.LEHE0:
.LVL11:
.LBB2172:
.LBB2173:
.LBB2174:
.LBB2175:
.LBB2176:
	.file 3 "d:\\devkitpro\\devkitppc\\bin\\../lib/gcc/powerpc-eabi/4.6.3/../../../../powerpc-eabi/include/c++/4.6.3/bits/basic_string.h"
	.loc 3 288 0
	lwz 5,12(1)
.LBE2176:
.LBE2175:
.LBE2174:
.LBE2173:
.LBE2172:
.LBB2178:
.LBB2179:
.LBB2180:
.LBB2181:
	.loc 3 311 0
	lwz 0,-4(5)
.LBE2181:
.LBE2180:
.LBE2179:
.LBE2178:
.LBB2185:
.LBB2177:
	.loc 3 711 0
	lwz 25,-12(5)
.LVL12:
.LBE2177:
.LBE2185:
.LBB2186:
.LBB2184:
.LBB2183:
.LBB2182:
	.loc 3 311 0
	cmpwi 7,0,0
	blt- 7,.L31
	.loc 3 312 0
	addi 3,1,12
.LVL13:
.LEHB1:
	bl _ZNSs12_M_leak_hardEv
.LVL14:
	lwz 5,12(1)
.L31:
.LVL15:
.LBE2182:
.LBE2183:
.LBE2184:
.LBE2186:
	.loc 1 159 0
	add 25,5,25
.LVL16:
	lbz 0,-1(25)
	cmpwi 7,0,47
	beq- 7,.L51
.L32:
.LVL17:
	.loc 1 162 0
	lwz 9,0(31)
	lis 4,.LC2@ha
	la 4,.LC2@l(4)
	mr 6,30
	lwzx 3,9,29
	crxor 6,6,6
	bl sprintf
.LVL18:
.LBB2187:
.LBB2188:
.LBB2189:
.LBB2190:
.LBB2191:
.LBB2192:
	.loc 3 288 0
	lwz 9,12(1)
.LBE2192:
.LBE2191:
.LBE2190:
.LBB2193:
.LBB2194:
	.loc 3 235 0
	lis 11,_ZNSs4_Rep20_S_empty_rep_storageE@ha
.LBE2194:
.LBE2193:
	.loc 3 534 0
	addi 3,9,-12
.LVL19:
.LBB2203:
.LBB2201:
	.loc 3 235 0
	la 0,_ZNSs4_Rep20_S_empty_rep_storageE@l(11)
	cmpw 7,3,0
	bne- 7,.L34
.LVL20:
.L49:
	.loc 3 244 0
	lwz 9,0(31)
.LVL21:
.L40:
.LBE2201:
.LBE2203:
.LBE2189:
.LBE2188:
.LBE2187:
.LBE2171:
.LBE2170:
.LBB2220:
.LBB2221:
	.loc 2 696 0
	add 29,9,29
.LBE2221:
.LBE2220:
	.loc 1 164 0
	stw 26,8(29)
	stw 27,12(29)
	.loc 1 165 0
	stb 28,16(29)
.LVL22:
.L11:
.LBE2229:
	.loc 1 166 0
	lwz 0,100(1)
	lwz 19,44(1)
	mtlr 0
	lwz 20,48(1)
	lwz 21,52(1)
	lwz 22,56(1)
	lwz 23,60(1)
	lwz 24,64(1)
	lwz 25,68(1)
	lwz 26,72(1)
	lwz 27,76(1)
	lwz 28,80(1)
	lwz 29,84(1)
	lwz 30,88(1)
.LVL23:
	lwz 31,92(1)
.LVL24:
	addi 1,1,96
	.cfi_remember_state
.LCFI5:
	.cfi_def_cfa_offset 0
	.cfi_restore 31
	.cfi_restore 30
	.cfi_restore 29
	.cfi_restore 28
	.cfi_restore 27
	.cfi_restore 26
	.cfi_restore 25
	.cfi_restore 24
	.cfi_restore 23
	.cfi_restore 22
	.cfi_restore 21
	.cfi_restore 20
	.cfi_restore 19
	blr
.LVL25:
.L27:
.LCFI6:
	.cfi_restore_state
.LBB2230:
.LBB2222:
.LBB2165:
	.loc 2 634 0
	mulli 0,0,24
.LVL26:
.LBB2041:
.LBB2042:
	.loc 2 1256 0
	slwi 29,29,3
	add 23,4,29
.LBE2042:
.LBE2041:
	.loc 2 634 0
	add 0,4,0
.LVL27:
.LBB2044:
.LBB2043:
	.loc 2 1256 0
	stw 0,4(3)
	b .L15
.LVL28:
.L50:
.LBE2043:
.LBE2044:
.LBB2045:
.LBB2046:
.LBB2047:
.LBB2048:
	.file 4 "d:\\devkitpro\\devkitppc\\bin\\../lib/gcc/powerpc-eabi/4.6.3/../../../../powerpc-eabi/include/c++/4.6.3/bits/vector.tcc"
	.loc 4 382 0
	lwz 0,8(3)
.LVL29:
	subf 0,24,0
	srawi 0,0,3
	mullw. 11,0,9
	beq- 0,.L16
	.loc 4 385 0
	li 0,0
	li 10,0
	stb 0,32(1)
.LVL30:
	li 11,0
	stw 0,16(1)
.LBE2048:
.LBE2047:
.LBE2046:
.LBE2045:
.LBE2165:
.LBE2222:
.LBE2230:
	li 0,1
.LBB2231:
.LBB2223:
.LBB2166:
.LBB2161:
.LBB2157:
.LBB2153:
.LBB2149:
	stw 10,24(1)
.LBE2149:
.LBE2153:
.LBE2157:
.LBE2161:
.LBE2166:
.LBE2223:
.LBE2231:
	mtctr 0
.LBB2232:
.LBB2224:
.LBB2167:
.LBB2162:
.LBB2158:
.LBB2154:
.LBB2150:
	stw 11,28(1)
	mr 9,24
	lwz 6,20(1)
.LBB2049:
.LBB2050:
.LBB2051:
.LBB2052:
.LBB2053:
.LBB2054:
.LBB2055:
.LBB2056:
	.file 5 "d:\\devkitpro\\devkitppc\\bin\\../lib/gcc/powerpc-eabi/4.6.3/../../../../powerpc-eabi/include/c++/4.6.3/bits/stl_algobase.h"
	.loc 5 733 0
	li 0,0
	lwz 7,32(1)
.LVL31:
	lwz 8,36(1)
.LVL32:
.L17:
	stw 7,16(9)
	stw 6,4(9)
	stw 8,20(9)
	stw 0,0(9)
	stw 10,8(9)
	stw 11,12(9)
	stb 0,16(9)
	.loc 5 731 0
	addi 9,9,24
	bdnz .L17
.LVL33:
.LBE2056:
.LBE2055:
.LBE2054:
.LBE2053:
.LBE2052:
.LBE2051:
.LBE2050:
	.loc 4 406 0
	mulli 29,19,24
	addi 24,24,24
.LVL34:
	stw 24,4(31)
.LVL35:
	add 23,4,29
	b .L15
.LVL36:
.L16:
.LBE2049:
.LBB2057:
.LBB2058:
.LBB2059:
	.loc 2 1241 0
	lis 0,0xaaa
	li 9,1
	ori 0,0,43690
	subf 0,19,0
	cmplw 7,9,0
	bgt- 7,.L52
.LVL37:
	.loc 2 1244 0
	li 0,1
	cmplw 7,0,19
	blt- 7,.L53
.L19:
	add 0,0,19
.LVL38:
	.loc 2 1245 0
	li 20,-16
	cmplw 7,19,0
	bgt- 7,.L20
.LVL39:
	lis 9,0xaaa
	ori 9,9,43690
	cmplw 7,0,9
	bgt- 7,.L20
.LVL40:
.LBE2059:
.LBE2058:
.LBB2062:
.LBB2063:
	.loc 2 150 0
	cmpwi 7,0,0
	li 20,0
	li 22,0
	bne- 7,.L54
.LVL41:
.L21:
.LBE2063:
.LBE2062:
	.loc 4 424 0
	mulli 29,23,24
	li 11,1
	mtctr 11
	.loc 5 733 0
	li 0,0
	.loc 4 424 0
	add 23,22,29
.LVL42:
	.loc 5 733 0
	li 10,0
	.loc 4 424 0
	mr 9,23
	.loc 5 733 0
	li 11,0
.LVL43:
.L22:
	stw 0,0(9)
	stw 10,8(9)
	stw 11,12(9)
	stb 0,16(9)
.LBB2067:
.LBB2068:
.LBB2069:
.LBB2070:
.LBB2071:
.LBB2072:
.LBB2073:
	.loc 5 731 0
	addi 9,9,24
.LVL44:
	bdnz .L22
.LVL45:
.LBE2073:
.LBE2072:
.LBE2071:
.LBE2070:
.LBE2069:
.LBE2068:
.LBE2067:
.LBB2074:
.LBB2075:
.LBB2076:
.LBB2077:
.LBB2078:
.LBB2079:
.LBB2080:
.LBB2081:
.LBB2082:
.LBB2083:
.LBB2084:
	.loc 5 365 0
	cmpwi 7,19,0
	beq+ 7,.L24
	.loc 5 366 0
	mulli 19,19,24
.LVL46:
	mr 3,22
	mr 5,19
	bl memmove
.LVL47:
.L24:
.LBE2084:
.LBE2083:
.LBE2082:
.LBE2081:
.LBE2080:
.LBE2079:
.LBE2078:
.LBE2077:
.LBE2076:
.LBE2075:
.LBE2074:
.LBB2095:
.LBB2096:
.LBB2097:
.LBB2098:
.LBB2099:
.LBB2100:
.LBB2101:
.LBB2102:
.LBB2103:
.LBB2104:
.LBB2105:
	.loc 5 364 0
	lwz 0,4(31)
	lis 9,0xaaaa
	ori 9,9,43691
.LBE2105:
.LBE2104:
.LBE2103:
.LBE2102:
.LBE2101:
.LBE2100:
.LBE2099:
.LBE2098:
.LBE2097:
.LBE2096:
.LBE2095:
.LBB2136:
.LBB2094:
.LBB2093:
.LBB2092:
.LBB2091:
.LBB2090:
.LBB2089:
.LBB2088:
.LBB2087:
.LBB2086:
.LBB2085:
	.loc 5 367 0
	add 19,22,19
.LVL48:
.LBE2085:
.LBE2086:
.LBE2087:
.LBE2088:
.LBE2089:
.LBE2090:
.LBE2091:
.LBE2092:
.LBE2093:
.LBE2094:
.LBE2136:
.LBB2137:
.LBB2133:
.LBB2130:
.LBB2127:
.LBB2124:
.LBB2121:
.LBB2118:
.LBB2115:
.LBB2112:
.LBB2109:
.LBB2106:
	.loc 5 364 0
	subf 0,24,0
.LBE2106:
.LBE2109:
.LBE2112:
.LBE2115:
.LBE2118:
.LBE2121:
.LBE2124:
.LBE2127:
.LBE2130:
.LBE2133:
.LBE2137:
	.loc 4 434 0
	addi 19,19,24
.LVL49:
.LBB2138:
.LBB2134:
.LBB2131:
.LBB2128:
.LBB2125:
.LBB2122:
.LBB2119:
.LBB2116:
.LBB2113:
.LBB2110:
.LBB2107:
	.loc 5 364 0
	srawi 0,0,3
.LVL50:
	.loc 5 365 0
	li 21,0
	mullw. 11,0,9
	beq+ 0,.L25
	.loc 5 366 0
	slwi 21,0,3
	mr 3,19
	mr 4,24
	mr 5,21
	bl memmove
.LVL51:
.L25:
.LBE2107:
.LBE2110:
.LBE2113:
.LBE2116:
.LBE2119:
.LBE2122:
.LBE2125:
.LBE2128:
.LBE2131:
.LBE2134:
.LBE2138:
	.loc 4 456 0
	lwz 3,0(31)
.LBB2139:
.LBB2135:
.LBB2132:
.LBB2129:
.LBB2126:
.LBB2123:
.LBB2120:
.LBB2117:
.LBB2114:
.LBB2111:
.LBB2108:
	.loc 5 367 0
	add 21,19,21
.LVL52:
.LBE2108:
.LBE2111:
.LBE2114:
.LBE2117:
.LBE2120:
.LBE2123:
.LBE2126:
.LBE2129:
.LBE2132:
.LBE2135:
.LBE2139:
.LBB2140:
.LBB2141:
	.loc 2 155 0
	cmpwi 7,3,0
	beq- 7,.L26
.LVL53:
.LBB2142:
.LBB2143:
	.file 6 "d:\\devkitpro\\devkitppc\\bin\\../lib/gcc/powerpc-eabi/4.6.3/../../../../powerpc-eabi/include/c++/4.6.3/ext/new_allocator.h"
	.loc 6 98 0
	bl _ZdlPv
.LVL54:
.L26:
.LBE2143:
.LBE2142:
.LBE2141:
.LBE2140:
	.loc 4 461 0
	add 20,22,20
	.loc 4 459 0
	stw 22,0(31)
	.loc 4 460 0
	stw 21,4(31)
	.loc 4 461 0
	stw 20,8(31)
	b .L15
.LVL55:
.L51:
.LBE2057:
.LBE2150:
.LBE2154:
.LBE2158:
.LBE2162:
.LBE2167:
.LBE2224:
.LBB2225:
.LBB2218:
.LBB2207:
.LBB2208:
	.loc 3 711 0
	lwz 9,-12(5)
.LBE2208:
.LBE2207:
	.loc 1 160 0
	addi 4,9,-1
.LVL56:
.LBB2209:
.LBB2210:
.LBB2211:
.LBB2212:
	.loc 3 318 0
	cmplw 7,4,9
	bgt- 7,.L55
.LVL57:
.LBE2212:
.LBE2211:
	.loc 3 1349 0
	addi 3,1,12
.LVL58:
	li 5,1
	li 6,0
	bl _ZNSs9_M_mutateEjjj
.LEHE1:
.LVL59:
	lwz 5,12(1)
	b .L32
.LVL60:
.L53:
.LBE2210:
.LBE2209:
.LBE2218:
.LBE2225:
.LBB2226:
.LBB2168:
.LBB2163:
.LBB2159:
.LBB2155:
.LBB2151:
.LBB2147:
.LBB2144:
.LBB2060:
	.loc 2 1244 0
	mr 0,19
	b .L19
.LVL61:
.L54:
.LBE2060:
.LBE2144:
.LBB2145:
.LBB2066:
	.loc 2 150 0
	mulli 20,0,24
.LVL62:
.L20:
.LBB2064:
.LBB2065:
	.loc 6 92 0
	mr 3,20
.LEHB2:
	bl _Znwj
.LEHE2:
.LVL63:
	lwz 4,0(31)
	lis 0,0xaaaa
	mr 22,3
	subf 19,4,24
.LVL64:
	ori 0,0,43691
	srawi 19,19,3
	mullw 19,19,0
	b .L21
.LVL65:
.L34:
.LBE2065:
.LBE2064:
.LBE2066:
.LBE2145:
.LBE2147:
.LBE2151:
.LBE2155:
.LBE2159:
.LBE2163:
.LBE2168:
.LBE2226:
.LBB2227:
.LBB2219:
.LBB2216:
.LBB2206:
.LBB2205:
.LBB2204:
.LBB2202:
.LBB2195:
.LBB2196:
.LBB2197:
	.file 7 "d:\\devkitpro\\devkitppc\\bin\\../lib/gcc/powerpc-eabi/4.6.3/../../../../powerpc-eabi/include/c++/4.6.3/ext/atomicity.h"
	.loc 7 66 0
	lwz 11,-4(9)
.LVL66:
.LBE2197:
.LBE2196:
.LBE2195:
	.loc 3 240 0
	cmpwi 7,11,0
.LBB2200:
.LBB2199:
.LBB2198:
	.loc 7 67 0
	addi 11,11,-1
	stw 11,-4(9)
.LBE2198:
.LBE2199:
.LBE2200:
	.loc 3 240 0
	bgt+ 7,.L49
	.loc 3 244 0
	addi 4,1,8
	bl _ZNSs4_Rep10_M_destroyERKSaIcE
.LVL67:
	b .L49
.LVL68:
.L55:
.LBE2202:
.LBE2204:
.LBE2205:
.LBE2206:
.LBE2216:
.LBB2217:
.LBB2215:
.LBB2214:
.LBB2213:
	.loc 3 319 0
	lis 3,.LC1@ha
	la 3,.LC1@l(3)
.LEHB3:
	bl _ZSt20__throw_out_of_rangePKc
.LEHE3:
.LVL69:
.L46:
	mr 31,3
.LVL70:
.LBE2213:
.LBE2214:
.LBE2215:
.LBE2217:
	.loc 1 162 0
	addi 3,1,12
.LVL71:
	bl _ZNSsD1Ev
.LVL72:
	mr 3,31
.LEHB4:
	bl _Unwind_Resume
.LVL73:
.L52:
.LBE2219:
.LBE2227:
.LBB2228:
.LBB2169:
.LBB2164:
.LBB2160:
.LBB2156:
.LBB2152:
.LBB2148:
.LBB2146:
.LBB2061:
	.loc 2 1242 0
	lis 3,.LC0@ha
.LVL74:
	la 3,.LC0@l(3)
	bl _ZSt20__throw_length_errorPKc
.LEHE4:
.LVL75:
.LBE2061:
.LBE2146:
.LBE2148:
.LBE2152:
.LBE2156:
.LBE2160:
.LBE2164:
.LBE2169:
.LBE2228:
.LBE2232:
	.cfi_endproc
.LFE982:
	.globl __gxx_personality_v0
	.section	.gcc_except_table,"a",@progbits
.LLSDA982:
	.byte	0xff
	.byte	0xff
	.byte	0x1
	.uleb128 .LLSDACSE982-.LLSDACSB982
.LLSDACSB982:
	.uleb128 .LEHB0-.LFB982
	.uleb128 .LEHE0-.LEHB0
	.uleb128 0
	.uleb128 0
	.uleb128 .LEHB1-.LFB982
	.uleb128 .LEHE1-.LEHB1
	.uleb128 .L46-.LFB982
	.uleb128 0
	.uleb128 .LEHB2-.LFB982
	.uleb128 .LEHE2-.LEHB2
	.uleb128 0
	.uleb128 0
	.uleb128 .LEHB3-.LFB982
	.uleb128 .LEHE3-.LEHB3
	.uleb128 .L46-.LFB982
	.uleb128 0
	.uleb128 .LEHB4-.LFB982
	.uleb128 .LEHE4-.LEHB4
	.uleb128 0
	.uleb128 0
.LLSDACSE982:
	.section	".text"
	.size	_ZN7DirList9AddEntrieEPKcS1_yb, .-_ZN7DirList9AddEntrieEPKcS1_yb
	.align 2
	.globl _ZN7DirList8LoadPathERSsPKcj
	.type	_ZN7DirList8LoadPathERSsPKcj, @function
_ZN7DirList8LoadPathERSsPKcj:
.LFB981:
	.loc 1 51 0
	.cfi_startproc
	.cfi_personality 0,__gxx_personality_v0
	.cfi_lsda 0,.LLSDA981
.LVL76:
	mflr 0
	stwu 1,-120(1)
.LCFI7:
	.cfi_def_cfa_offset 120
	.cfi_register 65, 0
	mfcr 12
	stw 30,112(1)
	stw 0,124(1)
	stw 23,84(1)
	mr 23,3
	.cfi_offset 23, -36
	.cfi_offset 65, 4
	.cfi_offset 30, -8
	.cfi_register 70, 12
.LBB2675:
.LBB2676:
.LBB2677:
.LBB2678:
.LBB2679:
.LBB2680:
	.loc 3 288 0
	lwz 9,0(4)
.LBE2680:
.LBE2679:
.LBE2678:
.LBE2677:
.LBE2676:
.LBE2675:
	.loc 1 51 0
	stw 24,88(1)
	mr 24,6
	.cfi_offset 24, -32
.LBB3031:
.LBB2682:
.LBB2681:
	.loc 3 711 0
	lwz 30,-12(9)
.LBE2681:
.LBE2682:
.LBE3031:
	.loc 1 51 0
	stw 26,96(1)
	mr 26,5
	.cfi_offset 26, -24
.LBB3032:
	.loc 1 52 0
	cmplwi 7,30,2
.LBE3032:
	.loc 1 51 0
	stw 31,116(1)
	stw 14,48(1)
	mr 31,4
	.cfi_offset 14, -72
	.cfi_offset 31, -4
.LVL77:
	stw 15,52(1)
	stw 16,56(1)
	stw 17,60(1)
	stw 18,64(1)
	stw 19,68(1)
	stw 20,72(1)
	stw 21,76(1)
	stw 22,80(1)
	stw 25,92(1)
	stw 27,100(1)
	stw 28,104(1)
	stw 29,108(1)
	stw 12,44(1)
.LBB3033:
	.loc 1 52 0
	bgt+ 7,.L184
	.cfi_offset 70, -76
	.cfi_offset 29, -12
	.cfi_offset 28, -16
	.cfi_offset 27, -20
	.cfi_offset 25, -28
	.cfi_offset 22, -40
	.cfi_offset 21, -44
	.cfi_offset 20, -48
	.cfi_offset 19, -52
	.cfi_offset 18, -56
	.cfi_offset 17, -60
	.cfi_offset 16, -64
	.cfi_offset 15, -68
.LVL78:
	b .L154
.LVL79:
.L66:
.LBB2683:
.LBB2684:
	.loc 3 711 0
	lwz 9,-12(9)
.LBE2684:
.LBE2683:
	.loc 1 61 0
	addi 4,9,-1
.LVL80:
.LBB2685:
.LBB2686:
.LBB2687:
.LBB2688:
	.loc 3 318 0
	cmplw 7,4,9
	bgt- 7,.L194
.LVL81:
.LBE2688:
.LBE2687:
	.loc 3 1349 0
	mr 3,31
	li 5,1
	li 6,0
.LEHB5:
	bl _ZNSs9_M_mutateEjjj
.LEHE5:
.LVL82:
	lwz 9,0(31)
	lwz 30,-12(9)
.LVL83:
.L184:
.LBE2686:
.LBE2685:
.LBB2692:
.LBB2693:
.LBB2694:
.LBB2695:
	.loc 3 311 0 discriminator 1
	lwz 0,-4(9)
	cmpwi 7,0,0
	blt- 7,.L63
	.loc 3 312 0
	mr 3,31
.LEHB6:
	bl _ZNSs12_M_leak_hardEv
.LEHE6:
	lwz 9,0(31)
.L63:
.LBE2695:
.LBE2694:
.LBE2693:
.LBE2692:
	.loc 1 60 0
	add 30,9,30
.LVL84:
	lbz 0,-1(30)
	cmpwi 7,0,47
	beq+ 7,.L66
	.loc 1 63 0
	mr 3,31
	li 4,47
	li 5,0
.LEHB7:
	bl _ZNKSs4findEcj
.LEHE7:
	addi 3,3,1
	cntlzw 3,3
	srwi 3,3,5
	.loc 1 64 0
	cmpwi 4,3,0
	beq- 4,.L192
.LVL85:
.LBB2696:
.LBB2697:
.LBB2698:
.LBB2699:
.LBB2700:
.LBB2701:
.LBB2702:
.LBB2703:
	.loc 3 288 0
	lwz 9,0(31)
.LBE2703:
.LBE2702:
.LBE2701:
	.loc 3 711 0
	lwz 11,-12(9)
.LBE2700:
.LBE2699:
	.loc 3 1046 0
	lwz 0,-8(9)
	.loc 3 1045 0
	addi 30,11,1
.LVL86:
	.loc 3 1046 0
	cmplw 7,30,0
	bgt- 7,.L71
.LVL87:
	lwz 0,-4(9)
	cmpwi 7,0,0
	ble- 7,.L72
.LVL88:
.L71:
	.loc 3 1047 0
	mr 3,31
	mr 4,30
.LEHB8:
	bl _ZNSs7reserveEj
.LEHE8:
	lwz 9,0(31)
	lwz 11,-12(9)
.L72:
.LVL89:
.LBB2704:
.LBB2705:
	.file 8 "d:\\devkitpro\\devkitppc\\bin\\../lib/gcc/powerpc-eabi/4.6.3/../../../../powerpc-eabi/include/c++/4.6.3/bits/char_traits.h"
	.loc 8 245 0
	li 0,47
	stbx 0,9,11
.LVL90:
.LBE2705:
.LBE2704:
.LBB2706:
.LBB2707:
	.loc 3 205 0
	lis 9,_ZNSs4_Rep20_S_empty_rep_storageE@ha
.LVL91:
	la 0,_ZNSs4_Rep20_S_empty_rep_storageE@l(9)
.LBE2707:
.LBE2706:
.LBB2716:
.LBB2717:
.LBB2718:
	.loc 3 288 0
	lwz 3,0(31)
.LVL92:
.LBE2718:
.LBE2717:
.LBE2716:
	.loc 3 1049 0
	addi 9,3,-12
.LBB2719:
.LBB2714:
	.loc 3 205 0
	cmpw 7,9,0
	bne- 7,.L195
.LVL93:
.L70:
.LEHB9:
.LBE2714:
.LBE2719:
.LBE2698:
.LBE2697:
.LBE2696:
	.loc 1 67 0
	bl opendir
.LEHE9:
.LVL94:
	.loc 1 68 0
	mr. 27,3
	beq- 0,.L154
	.loc 1 71 0
	lis 29,_ZSt7nothrow@ha
	li 3,1024
.LVL95:
	la 29,_ZSt7nothrow@l(29)
	mr 4,29
	bl _ZnajRKSt9nothrow_t
	.loc 1 72 0
	mr 4,29
	.loc 1 71 0
	mr 30,3
.LVL96:
	.loc 1 72 0
	li 3,72
.LVL97:
	bl _ZnwjRKSt9nothrow_t
	.loc 1 73 0
	cmpwi 7,30,0
	.loc 1 72 0
	mr 28,3
.LVL98:
	.loc 1 73 0
	beq- 7,.L78
	.loc 1 73 0 is_stmt 0 discriminator 1
	cmpwi 7,3,0
	beq- 7,.L79
.LBB2725:
.LBB2726:
.LBB2727:
.LBB2728:
	.loc 1 98 0 is_stmt 1 discriminator 1
	rlwinm 19,24,0,28,28
.LBE2728:
	.loc 1 107 0 discriminator 1
	rlwinm 20,24,0,30,30
.LBE2727:
	.loc 1 112 0 discriminator 1
	rlwinm 21,24,0,31,31
	li 18,0
	li 22,0
	li 25,0
	li 17,0
.LVL99:
.L183:
.LBE2726:
.LBE2725:
	.loc 1 81 0 discriminator 1
	mr 3,27
.LEHB10:
	bl readdir
.LVL100:
	mr. 29,3
	beq- 0,.L196
.LBB2915:
	.loc 1 83 0
	addi 29,29,5
	.loc 1 86 0
	beq- 4,.L157
	lis 5,.LC3@ha
	la 5,.LC3@l(5)
.L83:
.LVL101:
	.loc 1 86 0 is_stmt 0 discriminator 3
	lwz 6,0(31)
	mr 3,30
.LVL102:
	li 4,1024
	mr 7,29
	crxor 6,6,6
	bl snprintf
	.loc 1 88 0 is_stmt 1
	mr 3,30
	mr 4,28
	bl stat
	cmpwi 7,3,0
	bne+ 7,.L183
	.loc 1 91 0
	mr 3,30
	li 4,1024
	mr 5,29
	crxor 6,6,6
	bl snprintf
.LBB2905:
	.loc 1 93 0
	lwz 0,8(28)
	andi. 9,0,16384
	beq- 0,.L85
.LBB2899:
	.loc 1 95 0
	lis 4,.LC4@ha
	mr 3,30
	la 4,.LC4@l(4)
	bl strcmp
	cmpwi 7,3,0
	beq- 7,.L183
	.loc 1 95 0 is_stmt 0 discriminator 1
	lis 4,.LC5@ha
	mr 3,30
	la 4,.LC5@l(4)
	bl strcmp
	cmpwi 7,3,0
	beq- 7,.L183
.LBB2893:
	.loc 1 98 0 is_stmt 1
	cmpwi 7,19,0
	beq- 7,.L86
.LVL103:
.LBB2729:
.LBB2730:
.LBB2731:
.LBB2732:
.LBB2733:
.LBB2734:
	.loc 3 288 0
	lwz 9,0(31)
.LBE2734:
.LBE2733:
.LBE2732:
	.loc 3 711 0
	lwz 29,-12(9)
.LVL104:
.LBE2731:
.LBE2730:
	.loc 1 101 0
	bne- 4,.L87
.LVL105:
.LBB2735:
.LBB2736:
.LBB2737:
	.loc 3 1046 0
	lwz 0,-8(9)
	.loc 3 1045 0
	addi 16,29,1
.LVL106:
	.loc 3 1046 0
	cmplw 7,16,0
	bgt- 7,.L88
	lwz 0,-4(9)
	cmpwi 7,0,0
	ble- 7,.L158
.L88:
	.loc 3 1047 0
	mr 3,31
	mr 4,16
	bl _ZNSs7reserveEj
.LVL107:
	lwz 9,0(31)
	lwz 11,-12(9)
.L89:
.LVL108:
.LBB2738:
.LBB2739:
	.loc 8 245 0
	li 0,47
	stbx 0,9,11
.LVL109:
.LBE2739:
.LBE2738:
.LBB2740:
.LBB2741:
	.loc 3 205 0
	lis 9,_ZNSs4_Rep20_S_empty_rep_storageE@ha
.LVL110:
	la 0,_ZNSs4_Rep20_S_empty_rep_storageE@l(9)
.LBE2741:
.LBE2740:
.LBB2750:
.LBB2751:
.LBB2752:
	.loc 3 288 0
	lwz 11,0(31)
.LVL111:
.LBE2752:
.LBE2751:
.LBE2750:
	.loc 3 1049 0
	addi 9,11,-12
.LBB2753:
.LBB2748:
	.loc 3 205 0
	cmpw 7,9,0
	bne- 7,.L197
.LVL112:
.L87:
.LBE2748:
.LBE2753:
.LBE2737:
.LBE2736:
.LBE2735:
.LBB2759:
.LBB2760:
.LBB2761:
.LBB2762:
.LBB2763:
	.loc 8 261 0
	mr 3,30
	bl strlen
.LBE2763:
.LBE2762:
	.loc 3 1000 0
	mr 4,30
.LBB2765:
.LBB2764:
	.loc 8 261 0
	mr 5,3
.LBE2764:
.LBE2765:
	.loc 3 1000 0
	mr 3,31
	bl _ZNSs6appendEPKcj
.LVL113:
.LBE2761:
.LBE2760:
.LBE2759:
.LBB2766:
.LBB2767:
	.loc 2 828 0
	cmpw 7,18,22
	beq- 7,.L90
.LVL114:
.LBB2768:
.LBB2769:
	.loc 6 108 0
	cmpwi 7,22,0
	beq- 7,.L91
	mr 3,22
	mr 4,31
	bl _ZNSsC1ERKSs
.L91:
.LBE2769:
.LBE2768:
	.loc 2 831 0
	addi 22,22,4
.LVL115:
.L121:
.LBE2767:
.LBE2766:
.LBB2871:
.LBB2872:
.LBB2873:
.LBB2874:
.LBB2875:
.LBB2876:
	.loc 3 711 0
	lwz 9,0(31)
	lwz 5,-12(9)
.LBE2876:
.LBE2875:
	.loc 3 318 0
	cmplw 7,29,5
	bgt- 7,.L198
.LVL116:
.LBE2874:
.LBE2873:
	.loc 3 1349 0
	mr 4,29
	mr 3,31
	subf 5,29,5
	li 6,0
	bl _ZNSs9_M_mutateEjjj
.LVL117:
.L86:
.LBE2872:
.LBE2871:
.LBE2729:
.LBE2893:
	.loc 1 107 0
	cmpwi 7,20,0
	beq- 7,.L183
.L123:
.LBE2899:
.LBE2905:
.LBB2906:
	.loc 1 116 0
	cmpwi 7,26,0
	beq- 7,.L124
.LBB2907:
	.loc 1 118 0
	mr 3,30
	li 4,46
	bl strrchr
.LVL118:
	.loc 1 119 0
	cmpwi 7,3,0
	beq- 7,.L183
	.loc 1 122 0
	lis 5,.LC6@ha
	mr 4,26
	la 5,.LC6@l(5)
	bl _Z9strtokcmpPKcS0_S0_
.LVL119:
	cmpwi 7,3,0
	bne+ 7,.L183
.LVL120:
	.loc 1 124 0
	lwz 9,8(28)
	mr 3,23
	lwz 4,0(31)
	mr 5,30
	lwz 7,24(28)
	rlwinm 9,9,18,31,31
	lwz 8,28(28)
	bl _ZN7DirList9AddEntrieEPKcS1_yb
.LEHE10:
	.loc 1 125 0
	lis 3,.LC7@ha
	mr 4,26
	la 3,.LC7@l(3)
	bl strcmp
	cmpwi 7,3,0
	bne- 7,.L183
	.loc 1 126 0
	li 17,1
	b .L183
.LVL121:
.L79:
.LBE2907:
.LBE2906:
.LBE2915:
	.loc 1 75 0 discriminator 1
	mr 3,30
	bl _ZdaPv
.L78:
	.loc 1 76 0
	mr 3,28
	bl _ZdlPv
	.loc 1 77 0
	mr 3,27
.LEHB11:
	bl closedir
.LEHE11:
.LVL122:
.L154:
	.loc 1 53 0
	li 31,0
.LVL123:
.L139:
.LBE3033:
	.loc 1 144 0
	lwz 0,124(1)
	mr 3,31
	lwz 12,44(1)
	mtlr 0
	lwz 14,48(1)
	lwz 15,52(1)
	mtcrf 8,12
	lwz 16,56(1)
	lwz 17,60(1)
	lwz 18,64(1)
	lwz 19,68(1)
	lwz 20,72(1)
	lwz 21,76(1)
	lwz 22,80(1)
	lwz 23,84(1)
.LVL124:
	lwz 24,88(1)
.LVL125:
	lwz 25,92(1)
	lwz 26,96(1)
.LVL126:
	lwz 27,100(1)
	lwz 28,104(1)
	lwz 29,108(1)
	lwz 30,112(1)
	lwz 31,116(1)
	addi 1,1,120
	.cfi_remember_state
.LCFI8:
	.cfi_def_cfa_offset 0
	.cfi_restore 70
	.cfi_restore 31
	.cfi_restore 30
	.cfi_restore 29
	.cfi_restore 28
	.cfi_restore 27
	.cfi_restore 26
	.cfi_restore 25
	.cfi_restore 24
	.cfi_restore 23
	.cfi_restore 22
	.cfi_restore 21
	.cfi_restore 20
	.cfi_restore 19
	.cfi_restore 18
	.cfi_restore 17
	.cfi_restore 16
	.cfi_restore 15
	.cfi_restore 14
	blr
.LVL127:
.L195:
.LCFI9:
	.cfi_restore_state
.LBB3034:
.LBB2916:
.LBB2723:
.LBB2721:
.LBB2720:
.LBB2715:
.LBB2708:
.LBB2709:
	.loc 3 199 0
	li 0,0
.LBE2709:
.LBE2708:
	.loc 3 209 0
	stw 30,-12(3)
.LVL128:
.LBB2711:
.LBB2710:
	.loc 3 199 0
	stw 0,-4(3)
.LBE2710:
.LBE2711:
.LBB2712:
.LBB2713:
	.loc 8 245 0
	stbx 0,3,30
.LVL129:
.L192:
	lwz 3,0(31)
	b .L70
.LVL130:
.L157:
.LBE2713:
.LBE2712:
.LBE2715:
.LBE2720:
.LBE2721:
.LBE2723:
.LBE2916:
.LBB2917:
	.loc 1 86 0
	lis 5,.LC2@ha
	la 5,.LC2@l(5)
	b .L83
.LVL131:
.L85:
.LBB2908:
	.loc 1 112 0
	cmpwi 7,21,0
	beq- 7,.L183
	b .L123
.LVL132:
.L196:
.LBE2908:
.LBE2917:
	.loc 1 134 0
	mr 3,27
.LVL133:
.LEHB12:
	bl closedir
	.loc 1 135 0 discriminator 1
	mr 3,30
.LBB2918:
.LBB2919:
.LBB2920:
	.loc 2 571 0 discriminator 1
	subf 31,25,22
.LVL134:
.LBE2920:
.LBE2919:
.LBE2918:
	.loc 1 135 0 discriminator 1
	bl _ZdaPv
	.loc 1 136 0 discriminator 1
	mr 3,28
	bl _ZdlPv
.LVL135:
.LBB2924:
	.loc 1 138 0 discriminator 1
	srawi. 31,31,2
	beq- 0,.L126
	.loc 1 138 0 is_stmt 0
	cmpwi 7,17,0
	bne- 7,.L126
.LBE2924:
	.loc 1 50 0 is_stmt 1
	li 30,0
.LVL136:
.L127:
.LBB2925:
.LBB2921:
.LBB2922:
.LBB2923:
	slwi 4,30,2
.LBE2923:
.LBE2922:
.LBE2921:
	.loc 1 139 0
	mr 3,23
	add 4,25,4
	mr 5,26
	mr 6,24
	bl _ZN7DirList8LoadPathERSsPKcj
	.loc 1 138 0
	addi 30,30,1
.LVL137:
	cmpw 7,30,31
	bne- 7,.L127
.LVL138:
.L126:
.LBE2925:
.LBB2926:
.LBB2927:
.LBB2928:
.LBB2929:
.LBB2930:
.LBB2931:
.LBB2932:
	.file 9 "d:\\devkitpro\\devkitppc\\bin\\../lib/gcc/powerpc-eabi/4.6.3/../../../../powerpc-eabi/include/c++/4.6.3/bits/stl_construct.h"
	.loc 9 103 0
	cmpw 7,22,25
	beq- 7,.L128
	lis 9,_ZNSs4_Rep20_S_empty_rep_storageE@ha
	mr 31,25
	la 0,_ZNSs4_Rep20_S_empty_rep_storageE@l(9)
.LVL139:
.L135:
.LBB2933:
.LBB2934:
.LBB2935:
.LBB2936:
.LBB2937:
.LBB2938:
.LBB2939:
	.loc 3 288 0
	lwz 9,0(31)
.LBE2939:
.LBE2938:
.LBE2937:
	.loc 3 534 0
	addi 3,9,-12
.LVL140:
.LBB2940:
.LBB2941:
	.loc 3 235 0
	cmpw 7,3,0
	bne- 7,.L199
.LVL141:
.L134:
	.loc 3 244 0
	addi 31,31,4
.LBE2941:
.LBE2940:
.LBE2936:
.LBE2935:
.LBE2934:
.LBE2933:
	.loc 9 103 0
	cmpw 7,22,31
	bne+ 7,.L135
.LVL142:
.L128:
.LBE2932:
.LBE2931:
.LBE2930:
.LBE2929:
.LBE2928:
.LBE2927:
.LBE2926:
.LBB2960:
.LBB2961:
.LBB2962:
.LBB2963:
.LBB2964:
.LBB2965:
	.loc 2 155 0
	cmpwi 7,25,0
.LBE2965:
.LBE2964:
.LBE2963:
.LBE2962:
.LBE2961:
.LBE2960:
.LBB2973:
.LBB2724:
.LBB2722:
	.loc 1 143 0
	li 31,1
.LVL143:
.LBE2722:
.LBE2724:
.LBE2973:
.LBB2974:
.LBB2972:
.LBB2971:
.LBB2970:
.LBB2969:
.LBB2968:
	.loc 2 155 0
	beq- 7,.L139
.LVL144:
.LBB2966:
.LBB2967:
	.loc 6 98 0
	mr 3,25
	bl _ZdlPv
	b .L139
.LVL145:
.L124:
.LBE2967:
.LBE2966:
.LBE2968:
.LBE2969:
.LBE2970:
.LBE2971:
.LBE2972:
.LBE2974:
.LBB2975:
.LBB2909:
	.loc 1 131 0
	lwz 9,8(28)
	mr 3,23
	lwz 4,0(31)
	mr 5,30
	lwz 7,24(28)
	rlwinm 9,9,18,31,31
	lwz 8,28(28)
	bl _ZN7DirList9AddEntrieEPKcS1_yb
.LEHE12:
	b .L183
.LVL146:
.L158:
.LBE2909:
.LBB2910:
.LBB2900:
.LBB2894:
.LBB2888:
.LBB2880:
.LBB2757:
.LBB2755:
	.loc 3 711 0
	mr 11,29
	b .L89
.LVL147:
.L90:
.LBE2755:
.LBE2757:
.LBE2880:
.LBB2881:
.LBB2866:
.LBB2770:
.LBB2771:
.LBB2772:
.LBB2773:
.LBB2774:
.LBB2775:
	.loc 2 571 0
	subf 22,25,18
.LBE2775:
.LBE2774:
.LBB2776:
.LBB2777:
	.loc 2 1244 0
	li 0,1
	.loc 5 215 0
	srawi. 22,22,2
	beq- 0,.L93
.LBE2777:
.LBE2776:
	.loc 2 1244 0
	slwi 0,22,1
.LVL148:
	.loc 2 1245 0
	lis 9,0x3fff
	cmplw 7,22,0
	ori 9,9,65535
	li 3,-4
	stw 9,24(1)
	ble- 7,.L200
.LVL149:
.L94:
.LEHB13:
.LBE2773:
.LBE2772:
.LBB2779:
.LBB2780:
.LBB2781:
	.loc 6 92 0
	bl _Znwj
.LEHE13:
.LBE2781:
.LBE2780:
.LBE2779:
	.loc 4 335 0
	slwi 22,22,2
.LBB2786:
.LBB2784:
.LBB2782:
	.loc 6 92 0
	mr 15,3
.LVL150:
.LBE2782:
.LBE2784:
.LBE2786:
.LBB2787:
.LBB2788:
	.loc 6 108 0
	add. 0,3,22
	stw 0,28(1)
	beq- 0,.L95
	mr 3,0
.LVL151:
	mr 4,31
.LEHB14:
	bl _ZNSsC1ERKSs
.LEHE14:
.L95:
.LVL152:
.LBE2788:
.LBE2787:
.LBB2789:
.LBB2790:
.LBB2791:
.LBB2792:
.LBB2793:
.LBB2794:
	.file 10 "d:\\devkitpro\\devkitppc\\bin\\../lib/gcc/powerpc-eabi/4.6.3/../../../../powerpc-eabi/include/c++/4.6.3/bits/stl_uninitialized.h"
	.loc 10 76 0
	cmpw 7,25,18
	beq- 7,.L96
	mr 14,25
	mr 16,25
	mr 22,15
.LVL153:
.L98:
.LBB2795:
.LBB2796:
	.loc 9 84 0
	cmpwi 7,22,0
	beq- 7,.L97
.LVL154:
	mr 3,22
	mr 4,16
.LEHB15:
	bl _ZNSsC1ERKSs
.LEHE15:
.LVL155:
.L97:
.LBE2796:
.LBE2795:
	.loc 10 76 0
	addi 16,16,4
.LVL156:
	addi 22,22,4
.LVL157:
	cmpw 7,18,16
	bne+ 7,.L98
.LVL158:
	lis 9,_ZNSs4_Rep20_S_empty_rep_storageE@ha
.LBE2794:
.LBE2793:
.LBE2792:
.LBE2791:
.LBE2790:
.LBE2789:
	.loc 4 347 0
	addi 22,22,4
.LVL159:
	la 0,_ZNSs4_Rep20_S_empty_rep_storageE@l(9)
.LVL160:
.L99:
.LBB2813:
.LBB2814:
.LBB2815:
.LBB2816:
.LBB2817:
.LBB2818:
.LBB2819:
.LBB2820:
.LBB2821:
.LBB2822:
.LBB2823:
.LBB2824:
	.loc 3 288 0
	lwz 9,0(14)
.LBE2824:
.LBE2823:
.LBE2822:
	.loc 3 534 0
	addi 3,9,-12
.LVL161:
.LBB2825:
.LBB2826:
	.loc 3 235 0
	cmpw 7,3,0
	bne- 7,.L201
.LVL162:
.L110:
	.loc 3 244 0
	addi 14,14,4
.LBE2826:
.LBE2825:
.LBE2821:
.LBE2820:
.LBE2819:
.LBE2818:
	.loc 9 103 0
	cmpw 7,18,14
	bne+ 7,.L99
.LVL163:
.L153:
.LBE2817:
.LBE2816:
.LBE2815:
.LBE2814:
.LBE2813:
.LBB2843:
.LBB2844:
	.loc 2 155 0
	cmpwi 7,25,0
	beq- 7,.L111
.LVL164:
.LBB2845:
.LBB2846:
	.loc 6 98 0
	mr 3,25
	bl _ZdlPv
.LVL165:
.L111:
.LBE2846:
.LBE2845:
.LBE2844:
.LBE2843:
	.loc 4 371 0
	lwz 9,24(1)
	mr 25,15
.LVL166:
	slwi 18,9,2
.LVL167:
	add 18,15,18
.LVL168:
	b .L121
.LVL169:
.L194:
.LBE2771:
.LBE2770:
.LBE2866:
.LBE2881:
.LBE2888:
.LBE2894:
.LBE2900:
.LBE2910:
.LBE2975:
.LBB2976:
.LBB2691:
.LBB2690:
.LBB2689:
	.loc 3 319 0
	lis 3,.LC1@ha
	la 3,.LC1@l(3)
.LEHB16:
	bl _ZSt20__throw_out_of_rangePKc
.LEHE16:
.LVL170:
.L199:
.LBE2689:
.LBE2690:
.LBE2691:
.LBE2976:
.LBB2977:
.LBB2959:
.LBB2958:
.LBB2957:
.LBB2956:
.LBB2955:
.LBB2954:
.LBB2953:
.LBB2952:
.LBB2951:
.LBB2950:
.LBB2949:
.LBB2948:
.LBB2942:
.LBB2943:
.LBB2944:
	.loc 7 66 0
	lwz 11,-4(9)
.LVL171:
.LBE2944:
.LBE2943:
.LBE2942:
	.loc 3 240 0
	cmpwi 7,11,0
.LBB2947:
.LBB2946:
.LBB2945:
	.loc 7 67 0
	addi 11,11,-1
	stw 11,-4(9)
.LBE2945:
.LBE2946:
.LBE2947:
	.loc 3 240 0
	bgt+ 7,.L134
	.loc 3 244 0
	addi 4,1,9
	stw 0,32(1)
	bl _ZNSs4_Rep10_M_destroyERKSaIcE
.LVL172:
	lwz 0,32(1)
	b .L134
.LVL173:
.L201:
.LBE2948:
.LBE2949:
.LBE2950:
.LBE2951:
.LBE2952:
.LBE2953:
.LBE2954:
.LBE2955:
.LBE2956:
.LBE2957:
.LBE2958:
.LBE2959:
.LBE2977:
.LBB2978:
.LBB2911:
.LBB2901:
.LBB2895:
.LBB2889:
.LBB2882:
.LBB2867:
.LBB2862:
.LBB2858:
.LBB2847:
.LBB2842:
.LBB2841:
.LBB2840:
.LBB2839:
.LBB2838:
.LBB2837:
.LBB2836:
.LBB2835:
.LBB2834:
.LBB2833:
.LBB2827:
.LBB2828:
.LBB2829:
	.loc 7 66 0
	lwz 11,-4(9)
.LVL174:
.LBE2829:
.LBE2828:
.LBE2827:
	.loc 3 240 0
	cmpwi 7,11,0
.LBB2832:
.LBB2831:
.LBB2830:
	.loc 7 67 0
	addi 11,11,-1
	stw 11,-4(9)
.LBE2830:
.LBE2831:
.LBE2832:
	.loc 3 240 0
	bgt+ 7,.L110
	.loc 3 244 0
	addi 4,1,10
	stw 0,32(1)
	bl _ZNSs4_Rep10_M_destroyERKSaIcE
.LVL175:
	lwz 0,32(1)
	b .L110
.LVL176:
.L96:
.LBE2833:
.LBE2834:
.LBE2835:
.LBE2836:
.LBE2837:
.LBE2838:
.LBE2839:
.LBE2840:
.LBE2841:
.LBE2842:
.LBE2847:
	.loc 4 347 0
	addi 22,15,4
.LVL177:
	b .L153
.LVL178:
.L166:
.LBB2848:
.LBB2811:
.LBB2809:
.LBB2807:
.LBB2805:
.LBB2803:
	.loc 10 80 0
	bl __cxa_begin_catch
.LVL179:
.LBB2797:
.LBB2798:
.LBB2799:
.LBB2800:
	.loc 9 103 0
	cmpw 7,22,15
	beq- 7,.L103
	mr 31,15
.LVL180:
.L104:
.LBB2801:
.LBB2802:
	.loc 9 94 0
	mr 3,31
	addi 31,31,4
.LVL181:
	bl _ZNSsD1Ev
.LVL182:
.LBE2802:
.LBE2801:
	.loc 9 103 0
	cmpw 7,22,31
	bne+ 7,.L104
.LVL183:
.L103:
.LEHB17:
.LBE2800:
.LBE2799:
.LBE2798:
.LBE2797:
	.loc 10 83 0
	bl __cxa_rethrow
.LEHE17:
.LVL184:
.L169:
	mr 31,3
.LVL185:
.LBE2803:
.LBE2805:
.LBE2807:
.LBE2809:
.LBE2811:
.LBE2848:
.LBB2849:
.LBB2785:
.LBB2783:
	.loc 6 92 0
	mr 22,18
.LVL186:
.L113:
.LBE2783:
.LBE2785:
.LBE2849:
.LBE2858:
.LBE2862:
.LBE2867:
.LBE2882:
.LBE2889:
.LBE2895:
.LBE2901:
.LBE2911:
.LBE2978:
.LBB2979:
.LBB2980:
.LBB2981:
.LBB2982:
.LBB2983:
.LBB2984:
.LBB2985:
	.loc 9 103 0
	cmpw 7,25,22
	beq- 7,.L62
	lis 9,_ZNSs4_Rep20_S_empty_rep_storageE@ha
	mr 30,25
	la 0,_ZNSs4_Rep20_S_empty_rep_storageE@l(9)
.LVL187:
.L147:
.LBB2986:
.LBB2987:
.LBB2988:
.LBB2989:
.LBB2990:
.LBB2991:
.LBB2992:
	.loc 3 288 0
	lwz 9,0(30)
.LBE2992:
.LBE2991:
.LBE2990:
	.loc 3 534 0
	addi 3,9,-12
.LVL188:
.LBB2993:
.LBB2994:
	.loc 3 235 0
	cmpw 7,3,0
	bne- 7,.L202
.LVL189:
.L146:
	.loc 3 244 0
	addi 30,30,4
.LBE2994:
.LBE2993:
.LBE2989:
.LBE2988:
.LBE2987:
.LBE2986:
	.loc 9 103 0
	cmpw 7,22,30
	bne+ 7,.L147
.LVL190:
.L62:
.LBE2985:
.LBE2984:
.LBE2983:
.LBE2982:
.LBE2981:
.LBB3011:
.LBB3012:
.LBB3013:
.LBB3014:
	.loc 2 155 0
	cmpwi 7,25,0
	beq- 7,.L152
.LVL191:
.LBB3015:
.LBB3016:
	.loc 6 98 0
	mr 3,25
	bl _ZdlPv
	b .L152
.LVL192:
.L164:
.LBE3016:
.LBE3015:
.LBE3014:
.LBE3013:
.LBE3012:
.LBE3011:
.LBE2980:
.LBE2979:
.LBB3026:
.LBB2912:
.LBB2902:
.LBB2896:
.LBB2890:
.LBB2883:
.LBB2868:
.LBB2863:
.LBB2859:
	.loc 4 355 0
	bl __cxa_begin_catch
	.loc 4 357 0
	cmpwi 7,15,0
	beq- 7,.L101
.LVL193:
.L115:
.LBB2850:
.LBB2851:
	.loc 2 155 0
	beq- 7,.L116
.LVL194:
.LBB2852:
.LBB2853:
	.loc 6 98 0
	mr 3,15
	bl _ZdlPv
.LVL195:
.L116:
.LEHB18:
.LBE2853:
.LBE2852:
.LBE2851:
.LBE2850:
	.loc 4 362 0
	bl __cxa_rethrow
.LEHE18:
.LVL196:
.L167:
.LBB2854:
.LBB2812:
.LBB2810:
.LBB2808:
.LBB2806:
.LBB2804:
	.loc 10 80 0
	stw 3,32(1)
	bl __cxa_end_catch
.LBE2804:
.LBE2806:
.LBE2808:
.LBE2810:
.LBE2812:
.LBE2854:
	.loc 4 355 0
	lwz 3,32(1)
	bl __cxa_begin_catch
.LVL197:
.L101:
.LBB2855:
.LBB2856:
	.loc 6 118 0
	lwz 3,28(1)
	bl _ZNSsD1Ev
	cmpwi 7,15,0
	b .L115
.LVL198:
.L174:
.L193:
	mr 31,3
.LVL199:
.L152:
.LBE2856:
.LBE2855:
.LBE2859:
.LBE2863:
.LBE2868:
.LBE2883:
.LBE2890:
.LBE2896:
.LBE2902:
.LBE2912:
.LBE3026:
.LBB3027:
.LBB3024:
.LBB3022:
.LBB3021:
.LBB3020:
.LBB3019:
.LBB3018:
.LBB3017:
	.loc 6 98 0
	mr 3,31
.LEHB19:
	bl _Unwind_Resume
.LEHE19:
.LVL200:
.L200:
.LBE3017:
.LBE3018:
.LBE3019:
.LBE3020:
.LBE3021:
.LBE3022:
.LBE3024:
.LBE3027:
.LBB3028:
.LBB2913:
.LBB2903:
.LBB2897:
.LBB2891:
.LBB2884:
.LBB2869:
.LBB2864:
.LBB2860:
.LBB2857:
.LBB2778:
	.loc 2 1245 0
	cmplw 7,0,9
	bgt+ 7,.L94
.LVL201:
.L93:
	slwi 3,0,2
	stw 0,24(1)
	b .L94
.LVL202:
.L171:
	b .L193
.LVL203:
.L197:
.LBE2778:
.LBE2857:
.LBE2860:
.LBE2864:
.LBE2869:
.LBE2884:
.LBB2885:
.LBB2758:
.LBB2756:
.LBB2754:
.LBB2749:
.LBB2742:
.LBB2743:
	.loc 3 199 0
	li 0,0
.LBE2743:
.LBE2742:
	.loc 3 209 0
	stw 16,-12(11)
.LVL204:
.LBB2745:
.LBB2744:
	.loc 3 199 0
	stw 0,-4(11)
.LBE2744:
.LBE2745:
.LBB2746:
.LBB2747:
	.loc 8 245 0
	stbx 0,11,16
	b .L87
.LVL205:
.L198:
.LBE2747:
.LBE2746:
.LBE2749:
.LBE2754:
.LBE2756:
.LBE2758:
.LBE2885:
.LBB2886:
.LBB2879:
.LBB2878:
.LBB2877:
	.loc 3 319 0
	lis 3,.LC1@ha
	la 3,.LC1@l(3)
.LEHB20:
	bl _ZSt20__throw_out_of_rangePKc
.LEHE20:
.LVL206:
.L173:
	b .L193
.LVL207:
.L168:
	b .L193
.LVL208:
.L172:
	b .L193
.LVL209:
.L170:
	b .L193
.LVL210:
.L163:
	mr 31,3
	b .L113
.LVL211:
.L202:
.LBE2877:
.LBE2878:
.LBE2879:
.LBE2886:
.LBE2891:
.LBE2897:
.LBE2903:
.LBE2913:
.LBE3028:
.LBB3029:
.LBB3025:
.LBB3023:
.LBB3010:
.LBB3009:
.LBB3008:
.LBB3007:
.LBB3006:
.LBB3005:
.LBB3004:
.LBB3003:
.LBB3002:
.LBB3001:
.LBB2995:
.LBB2996:
.LBB2997:
	.loc 7 66 0
	lwz 11,-4(9)
.LVL212:
.LBE2997:
.LBE2996:
.LBE2995:
	.loc 3 240 0
	cmpwi 7,11,0
.LBB3000:
.LBB2999:
.LBB2998:
	.loc 7 67 0
	addi 11,11,-1
	stw 11,-4(9)
.LBE2998:
.LBE2999:
.LBE3000:
	.loc 3 240 0
	bgt+ 7,.L146
	.loc 3 244 0
	addi 4,1,8
	stw 0,32(1)
	bl _ZNSs4_Rep10_M_destroyERKSaIcE
.LVL213:
	lwz 0,32(1)
	b .L146
.LVL214:
.L165:
	mr 31,3
.LBE3001:
.LBE3002:
.LBE3003:
.LBE3004:
.LBE3005:
.LBE3006:
.LBE3007:
.LBE3008:
.LBE3009:
.LBE3010:
.LBE3023:
.LBE3025:
.LBE3029:
.LBB3030:
.LBB2914:
.LBB2904:
.LBB2898:
.LBB2892:
.LBB2887:
.LBB2870:
.LBB2865:
.LBB2861:
	.loc 4 355 0
	mr 22,18
	bl __cxa_end_catch
	b .L113
.LBE2861:
.LBE2865:
.LBE2870:
.LBE2887:
.LBE2892:
.LBE2898:
.LBE2904:
.LBE2914:
.LBE3030:
.LBE3034:
	.cfi_endproc
.LFE981:
	.section	.gcc_except_table
	.align 2
.LLSDA981:
	.byte	0xff
	.byte	0
	.uleb128 .LLSDATT981-.LLSDATTD981
.LLSDATTD981:
	.byte	0x1
	.uleb128 .LLSDACSE981-.LLSDACSB981
.LLSDACSB981:
	.uleb128 .LEHB5-.LFB981
	.uleb128 .LEHE5-.LEHB5
	.uleb128 .L172-.LFB981
	.uleb128 0
	.uleb128 .LEHB6-.LFB981
	.uleb128 .LEHE6-.LEHB6
	.uleb128 .L173-.LFB981
	.uleb128 0
	.uleb128 .LEHB7-.LFB981
	.uleb128 .LEHE7-.LEHB7
	.uleb128 .L174-.LFB981
	.uleb128 0
	.uleb128 .LEHB8-.LFB981
	.uleb128 .LEHE8-.LEHB8
	.uleb128 .L168-.LFB981
	.uleb128 0
	.uleb128 .LEHB9-.LFB981
	.uleb128 .LEHE9-.LEHB9
	.uleb128 .L170-.LFB981
	.uleb128 0
	.uleb128 .LEHB10-.LFB981
	.uleb128 .LEHE10-.LEHB10
	.uleb128 .L163-.LFB981
	.uleb128 0
	.uleb128 .LEHB11-.LFB981
	.uleb128 .LEHE11-.LEHB11
	.uleb128 .L171-.LFB981
	.uleb128 0
	.uleb128 .LEHB12-.LFB981
	.uleb128 .LEHE12-.LEHB12
	.uleb128 .L163-.LFB981
	.uleb128 0
	.uleb128 .LEHB13-.LFB981
	.uleb128 .LEHE13-.LEHB13
	.uleb128 .L169-.LFB981
	.uleb128 0
	.uleb128 .LEHB14-.LFB981
	.uleb128 .LEHE14-.LEHB14
	.uleb128 .L164-.LFB981
	.uleb128 0x1
	.uleb128 .LEHB15-.LFB981
	.uleb128 .LEHE15-.LEHB15
	.uleb128 .L166-.LFB981
	.uleb128 0x1
	.uleb128 .LEHB16-.LFB981
	.uleb128 .LEHE16-.LEHB16
	.uleb128 0
	.uleb128 0
	.uleb128 .LEHB17-.LFB981
	.uleb128 .LEHE17-.LEHB17
	.uleb128 .L167-.LFB981
	.uleb128 0x1
	.uleb128 .LEHB18-.LFB981
	.uleb128 .LEHE18-.LEHB18
	.uleb128 .L165-.LFB981
	.uleb128 0
	.uleb128 .LEHB19-.LFB981
	.uleb128 .LEHE19-.LEHB19
	.uleb128 0
	.uleb128 0
	.uleb128 .LEHB20-.LFB981
	.uleb128 .LEHE20-.LEHB20
	.uleb128 .L163-.LFB981
	.uleb128 0
.LLSDACSE981:
	.byte	0x1
	.byte	0
	.align 2
	.long	0
.LLSDATT981:
	.section	".text"
	.size	_ZN7DirList8LoadPathERSsPKcj, .-_ZN7DirList8LoadPathERSsPKcj
	.align 2
	.globl _ZN7DirList12RemoveEntrieEi
	.type	_ZN7DirList12RemoveEntrieEi, @function
_ZN7DirList12RemoveEntrieEi:
.LFB983:
	.loc 1 169 0
	.cfi_startproc
.LVL215:
	mflr 0
	stwu 1,-16(1)
.LCFI10:
	.cfi_def_cfa_offset 16
	.cfi_register 65, 0
.LBB3057:
.LBB3058:
	.file 11 "d:\\devkitpro\\devkitppc\\bin\\../lib/gcc/powerpc-eabi/4.6.3/../../../../powerpc-eabi/include/c++/4.6.3/bits/stl_iterator.h"
	.loc 11 773 0
	mulli 4,4,24
.LVL216:
.LBE3058:
.LBE3057:
	.loc 1 169 0
	stw 31,12(1)
	mr 31,3
	.cfi_offset 31, -4
.LVL217:
	stw 0,20(1)
.LBB3061:
.LBB3059:
	.loc 11 773 0
	lwz 3,0(3)
.LVL218:
.LBE3059:
.LBE3061:
.LBB3062:
.LBB3063:
.LBB3064:
	.loc 1 231 0
	lwz 9,4(31)
.LBE3064:
.LBE3063:
.LBE3062:
.LBB3090:
.LBB3060:
	.loc 11 773 0
	add 3,3,4
.LVL219:
.LBE3060:
.LBE3090:
.LBB3091:
.LBB3085:
.LBB3065:
.LBB3066:
	addi 4,3,24
.LVL220:
.LBE3066:
.LBE3065:
	.loc 4 138 0
	cmpw 7,4,9
	beq- 7,.L204
	.cfi_offset 65, 4
.LVL221:
.LBB3067:
.LBB3068:
.LBB3069:
.LBB3070:
.LBB3071:
.LBB3072:
	.loc 5 364 0
	subf 5,4,9
	lis 0,0xaaaa
	srawi 5,5,3
	ori 0,0,43691
.LVL222:
	.loc 5 365 0
	mullw. 11,5,0
	bne- 0,.L206
.LVL223:
.L204:
.LBE3072:
.LBE3071:
.LBE3070:
.LBE3069:
.LBE3068:
.LBE3067:
.LBE3085:
.LBE3091:
	.loc 1 171 0
	lwz 0,20(1)
.LBB3092:
.LBB3086:
	.loc 4 140 0
	addi 9,9,-24
	stw 9,4(31)
.LBE3086:
.LBE3092:
	.loc 1 171 0
	mtlr 0
	lwz 31,12(1)
.LVL224:
	addi 1,1,16
	.cfi_remember_state
.LCFI11:
	.cfi_def_cfa_offset 0
	.cfi_restore 31
	blr
.LVL225:
.L206:
.LCFI12:
	.cfi_restore_state
.LBB3093:
.LBB3087:
.LBB3083:
.LBB3081:
.LBB3079:
.LBB3077:
.LBB3075:
.LBB3073:
	.loc 5 366 0
	slwi 5,5,3
.LVL226:
	bl memmove
.LVL227:
.LBE3073:
.LBE3075:
.LBE3077:
.LBE3079:
.LBE3081:
.LBE3083:
.LBE3087:
.LBE3093:
	.loc 1 171 0
	lwz 0,20(1)
.LBB3094:
.LBB3088:
.LBB3084:
.LBB3082:
.LBB3080:
.LBB3078:
.LBB3076:
.LBB3074:
	.loc 5 366 0
	lwz 9,4(31)
.LBE3074:
.LBE3076:
.LBE3078:
.LBE3080:
.LBE3082:
.LBE3084:
.LBE3088:
.LBE3094:
	.loc 1 171 0
	mtlr 0
.LBB3095:
.LBB3089:
	.loc 4 140 0
	addi 9,9,-24
	stw 9,4(31)
.LBE3089:
.LBE3095:
	.loc 1 171 0
	lwz 31,12(1)
.LVL228:
	addi 1,1,16
	.cfi_restore 31
.LCFI13:
	.cfi_def_cfa_offset 0
	blr
	.cfi_endproc
.LFE983:
	.size	_ZN7DirList12RemoveEntrieEi, .-_ZN7DirList12RemoveEntrieEi
	.align 2
	.globl _ZN7DirList9ClearListEv
	.type	_ZN7DirList9ClearListEv, @function
_ZN7DirList9ClearListEv:
.LFB984:
	.loc 1 174 0
	.cfi_startproc
.LVL229:
	mflr 0
	stwu 1,-24(1)
.LCFI14:
	.cfi_def_cfa_offset 24
	.cfi_register 65, 0
	stw 29,12(1)
	mr 29,3
	.cfi_offset 29, -12
	stw 0,28(1)
.LBB3133:
.LBB3134:
.LBB3135:
	.loc 2 571 0
	lis 0,0xaaaa
	.cfi_offset 65, 4
	ori 0,0,43691
.LBE3135:
.LBE3134:
.LBE3133:
	.loc 1 174 0
	stw 30,16(1)
.LBB3140:
	.loc 1 231 0
	lwz 11,0(3)
	lwz 9,4(3)
.LBE3140:
	.loc 1 174 0
	stw 31,20(1)
.LBB3141:
.LBB3138:
.LBB3136:
	.loc 2 571 0
	subf 10,11,9
	srawi 10,10,3
.LBE3136:
.LBE3138:
	.loc 1 175 0
	mullw. 8,10,0
	.loc 1 231 0
	mr 0,11
	.loc 1 175 0
	beq- 0,.L208
	.cfi_offset 31, -4
	.cfi_offset 30, -8
	li 30,0
	li 31,0
.LVL230:
.L210:
	.loc 1 177 0
	lwzx 3,11,30
	.loc 1 175 0
	addi 31,31,1
.LVL231:
	addi 30,30,24
	.loc 1 177 0
	cmpwi 7,3,0
	beq- 7,.L209
.LVL232:
	.loc 1 178 0
	bl _ZdaPv
	lwz 0,0(29)
	lwz 9,4(29)
.LVL233:
.L209:
.LBB3139:
.LBB3137:
	.loc 2 571 0
	subf 10,0,9
	lis 11,0xaaaa
	ori 11,11,43691
	srawi 10,10,3
	mullw 10,10,11
.LBE3137:
.LBE3139:
	.loc 1 231 0
	mr 11,0
	.loc 1 175 0
	cmplw 7,31,10
	blt+ 7,.L210
.LVL234:
.L208:
.LBE3141:
.LBB3142:
.LBB3143:
.LBB3144:
.LBB3145:
.LBB3146:
.LBB3147:
	.loc 2 155 0
	cmpwi 7,0,0
.LBE3147:
.LBE3146:
.LBE3145:
.LBE3144:
.LBE3143:
.LBE3142:
.LBB3155:
.LBB3156:
.LBB3157:
	.file 12 "d:\\devkitpro\\devkitppc\\bin\\../lib/gcc/powerpc-eabi/4.6.3/../../../../powerpc-eabi/include/c++/4.6.3/bits/move.h"
	.loc 12 129 0
	li 9,0
	stw 9,0(29)
.LVL235:
.LBE3157:
.LBE3156:
.LBB3158:
.LBB3159:
	stw 9,4(29)
.LVL236:
.LBE3159:
.LBE3158:
.LBB3160:
.LBB3161:
	stw 9,8(29)
.LVL237:
.LBE3161:
.LBE3160:
.LBE3155:
.LBB3162:
.LBB3154:
.LBB3153:
.LBB3152:
.LBB3151:
.LBB3150:
	.loc 2 155 0
	beq- 7,.L207
.LVL238:
.LBB3148:
.LBB3149:
	.loc 6 98 0
	mr 3,0
	bl _ZdlPv
.LVL239:
.L207:
.LBE3149:
.LBE3148:
.LBE3150:
.LBE3151:
.LBE3152:
.LBE3153:
.LBE3154:
.LBE3162:
	.loc 1 183 0
	lwz 0,28(1)
	lwz 29,12(1)
.LVL240:
	mtlr 0
	lwz 30,16(1)
	lwz 31,20(1)
	addi 1,1,24
.LCFI15:
	.cfi_def_cfa_offset 0
	.cfi_restore 31
	.cfi_restore 30
	.cfi_restore 29
	blr
	.cfi_endproc
.LFE984:
	.size	_ZN7DirList9ClearListEv, .-_ZN7DirList9ClearListEv
	.align 2
	.globl _ZN7DirListD2Ev
	.type	_ZN7DirListD2Ev, @function
_ZN7DirListD2Ev:
.LFB979:
	.loc 1 45 0
	.cfi_startproc
.LVL241:
	stwu 1,-16(1)
.LCFI16:
	.cfi_def_cfa_offset 16
	mflr 0
	stw 31,12(1)
	mr 31,3
	.cfi_offset 31, -4
	.cfi_register 65, 0
	stw 0,20(1)
.LBB3178:
	.loc 1 47 0
	.cfi_offset 65, 4
	bl _ZN7DirList9ClearListEv
.LVL242:
.LBB3179:
	.loc 1 231 0
	lwz 3,0(31)
.LVL243:
.LBB3180:
.LBB3181:
.LBB3182:
.LBB3183:
.LBB3184:
	.loc 2 155 0
	cmpwi 7,3,0
	beq- 7,.L218
.LVL244:
.LBB3185:
.LBB3186:
	.loc 6 98 0
	bl _ZdlPv
.LVL245:
.L218:
.LBE3186:
.LBE3185:
.LBE3184:
.LBE3183:
.LBE3182:
.LBE3181:
.LBE3180:
.LBE3179:
.LBE3178:
	.loc 1 48 0
	lwz 0,20(1)
	lwz 31,12(1)
.LVL246:
	mtlr 0
	addi 1,1,16
.LCFI17:
	.cfi_def_cfa_offset 0
	.cfi_restore 31
	blr
	.cfi_endproc
.LFE979:
	.size	_ZN7DirListD2Ev, .-_ZN7DirListD2Ev
	.align 2
	.globl _ZN7DirList11GetFilenameEi
	.type	_ZN7DirList11GetFilenameEi, @function
_ZN7DirList11GetFilenameEi:
.LFB985:
	.loc 1 186 0
	.cfi_startproc
.LVL247:
.LBB3195:
.LBB3196:
	.file 13 "d:/Projects/SaveGameManager/savegame-manager-gx/trunk/source/FileOperations/DirList.h"
	.loc 13 90 0
	cmpwi 0,4,0
.LVL248:
	.loc 1 188 0
	li 10,0
	.loc 13 90 0
	blt- 0,.L226
.LBE3196:
	.loc 1 231 0
	lwz 9,0(3)
.LBB3199:
.LBB3197:
.LBB3198:
	.loc 2 571 0
	lis 0,0xaaaa
	lwz 11,4(3)
	ori 0,0,43691
	subf 11,9,11
	srawi 11,11,3
	mullw 0,11,0
.LBE3198:
.LBE3197:
	.loc 13 90 0
	cmpw 7,4,0
	bge- 7,.L226
.LVL249:
.LBE3199:
.LBE3195:
	.loc 1 190 0
	mulli 4,4,24
.LVL250:
	lwzx 10,9,4
.LVL251:
.LBB3200:
.LBB3201:
	.file 14 "d:/Projects/SaveGameManager/savegame-manager-gx/trunk/source/FileOperations/../Tools/StringTools.h"
	.loc 14 43 0
	cmpwi 7,10,0
	beq- 7,.L226
.LVL252:
	.loc 14 48 0
	lbz 0,0(10)
	cmpwi 7,0,0
	beq- 7,.L226
	.loc 1 185 0
	addi 11,10,1
	.loc 14 48 0
	mr 9,10
.LVL253:
.L234:
	.loc 14 50 0
	cmpwi 7,0,47
	beq- 7,.L228
	lbzu 0,1(9)
.LVL254:
	addi 11,11,1
.LVL255:
	.loc 14 48 0
	cmpwi 7,0,0
	bne+ 7,.L234
.LVL256:
.L226:
.LBE3201:
.LBE3200:
	.loc 1 191 0
	mr 3,10
.LVL257:
	blr
.LVL258:
.L228:
.LBB3203:
.LBB3202:
	.loc 14 50 0
	lbz 0,1(9)
	.loc 14 51 0
	addi 9,9,1
	.loc 14 50 0
	cmpwi 7,0,0
	beq- 7,.L226
	.loc 14 51 0
	mr 10,11
.LVL259:
	addi 11,11,1
.LVL260:
	b .L234
.LBE3202:
.LBE3203:
	.cfi_endproc
.LFE985:
	.size	_ZN7DirList11GetFilenameEi, .-_ZN7DirList11GetFilenameEi
	.align 2
	.globl _ZN7DirList12GetFileIndexEPKc
	.type	_ZN7DirList12GetFileIndexEPKc, @function
_ZN7DirList12GetFileIndexEPKc:
.LFB989:
	.loc 1 220 0
	.cfi_startproc
.LVL261:
	stwu 1,-32(1)
.LCFI18:
	.cfi_def_cfa_offset 32
	mflr 0
	stw 27,12(1)
.LBB3218:
	.loc 1 221 0
	mr. 27,4
	.cfi_offset 27, -20
	.cfi_register 65, 0
.LBE3218:
	.loc 1 220 0
	stw 28,16(1)
.LBB3237:
	.loc 1 222 0
	li 28,-1
	.cfi_offset 28, -16
.LBE3237:
	.loc 1 220 0
	stw 0,36(1)
	stw 26,8(1)
	stw 29,20(1)
	stw 30,24(1)
	stw 31,28(1)
.LBB3238:
	.loc 1 221 0
	beq- 0,.L236
	.cfi_offset 31, -4
	.cfi_offset 30, -8
	.cfi_offset 29, -12
	.cfi_offset 26, -24
	.cfi_offset 65, 4
.LVL262:
	.loc 1 231 0 discriminator 1
	lwz 26,0(3)
.LBB3219:
.LBB3220:
.LBB3221:
	.loc 2 571 0 discriminator 1
	lis 0,0xaaaa
	lwz 29,4(3)
	ori 0,0,43691
	subf 29,26,29
	srawi 29,29,3
.LBE3221:
.LBE3220:
	.loc 1 224 0 discriminator 1
	mullw. 29,29,0
	beq- 0,.L236
	.loc 1 224 0 is_stmt 0
	li 30,0
	li 31,0
.LVL263:
.L241:
.LBB3222:
.LBB3223:
.LBB3224:
.LBB3225:
	.loc 13 90 0 is_stmt 1
	cmpwi 7,31,0
.LBE3225:
.LBE3224:
.LBE3223:
.LBE3222:
	.loc 1 226 0
	mr 28,31
.LVL264:
.LBB3234:
.LBB3232:
.LBB3227:
.LBB3226:
	.loc 1 188 0
	li 3,0
	.loc 13 90 0
	blt- 7,.L237
	cmpw 7,31,29
	bge- 7,.L237
.LVL265:
.LBE3226:
.LBE3227:
	.loc 1 190 0
	lwzx 3,26,30
.LVL266:
.LBB3228:
.LBB3229:
	.loc 14 43 0
	cmpwi 7,3,0
	beq- 7,.L237
.LVL267:
	.loc 14 48 0
	lbz 0,0(3)
	cmpwi 7,0,0
	beq- 7,.L237
	.loc 1 219 0
	addi 11,3,1
	.loc 14 48 0
	mr 9,3
.LVL268:
.L249:
	.loc 14 50 0
	cmpwi 7,0,47
	beq- 7,.L239
	lbzu 0,1(9)
.LVL269:
	addi 11,11,1
.LVL270:
	.loc 14 48 0
	cmpwi 7,0,0
	bne+ 7,.L249
.LVL271:
.L237:
.LBE3229:
.LBE3228:
.LBE3232:
.LBE3234:
	.loc 1 226 0
	mr 4,27
	bl strcasecmp
	cmpwi 7,3,0
	beq- 7,.L236
	.loc 1 224 0
	addi 31,31,1
.LVL272:
	addi 30,30,24
	cmpw 7,31,29
	bne+ 7,.L241
	.loc 1 230 0
	li 28,-1
.LVL273:
.L236:
.LBE3219:
.LBE3238:
	.loc 1 231 0
	lwz 0,36(1)
	mr 3,28
	lwz 26,8(1)
	mtlr 0
	lwz 27,12(1)
.LVL274:
	lwz 28,16(1)
	lwz 29,20(1)
	lwz 30,24(1)
	lwz 31,28(1)
	addi 1,1,32
	.cfi_remember_state
.LCFI19:
	.cfi_def_cfa_offset 0
	.cfi_restore 31
	.cfi_restore 30
	.cfi_restore 29
	.cfi_restore 28
	.cfi_restore 27
	.cfi_restore 26
	blr
.LVL275:
.L239:
.LCFI20:
	.cfi_restore_state
.LBB3239:
.LBB3236:
.LBB3235:
.LBB3233:
.LBB3231:
.LBB3230:
	.loc 14 50 0
	lbz 0,1(9)
	.loc 14 51 0
	addi 9,9,1
	.loc 14 50 0
	cmpwi 7,0,0
	beq- 7,.L237
	.loc 14 51 0
	mr 3,11
.LVL276:
	addi 11,11,1
.LVL277:
	b .L249
.LBE3230:
.LBE3231:
.LBE3233:
.LBE3235:
.LBE3236:
.LBE3239:
	.cfi_endproc
.LFE989:
	.size	_ZN7DirList12GetFileIndexEPKc, .-_ZN7DirList12GetFileIndexEPKc
	.section	.text._ZSt16__insertion_sortIN9__gnu_cxx17__normal_iteratorIP9FileInfosSt6vectorIS2_SaIS2_EEEEPFbRKS2_S9_EEvT_SC_T0_,"axG",@progbits,_ZSt16__insertion_sortIN9__gnu_cxx17__normal_iteratorIP9FileInfosSt6vectorIS2_SaIS2_EEEEPFbRKS2_S9_EEvT_SC_T0_,comdat
	.align 2
	.weak	_ZSt16__insertion_sortIN9__gnu_cxx17__normal_iteratorIP9FileInfosSt6vectorIS2_SaIS2_EEEEPFbRKS2_S9_EEvT_SC_T0_
	.type	_ZSt16__insertion_sortIN9__gnu_cxx17__normal_iteratorIP9FileInfosSt6vectorIS2_SaIS2_EEEEPFbRKS2_S9_EEvT_SC_T0_, @function
_ZSt16__insertion_sortIN9__gnu_cxx17__normal_iteratorIP9FileInfosSt6vectorIS2_SaIS2_EEEEPFbRKS2_S9_EEvT_SC_T0_:
.LFB1140:
	.file 15 "d:\\devkitpro\\devkitppc\\bin\\../lib/gcc/powerpc-eabi/4.6.3/../../../../powerpc-eabi/include/c++/4.6.3/bits/stl_algo.h"
	.loc 15 2122 0
	.cfi_startproc
.LVL278:
	mflr 0
	stwu 1,-72(1)
.LCFI21:
	.cfi_def_cfa_offset 72
	.cfi_register 65, 0
	stw 27,52(1)
	stw 0,76(1)
	stw 30,64(1)
	lwz 27,0(4)
	.cfi_offset 30, -8
	.cfi_offset 65, 4
	.cfi_offset 27, -20
	lwz 30,0(3)
.LVL279:
	stw 26,48(1)
.LBB3265:
	.loc 15 2125 0
	cmpw 7,27,30
.LBE3265:
	.loc 15 2122 0
	stw 28,56(1)
	stw 29,60(1)
	stw 31,68(1)
	.loc 15 2122 0
	stw 5,40(1)
.LBB3298:
	.loc 15 2125 0
	beq- 7,.L250
	.cfi_offset 31, -4
	.cfi_offset 29, -12
	.cfi_offset 28, -16
	.cfi_offset 26, -24
.LVL280:
.LBB3266:
.LBB3267:
.LBB3268:
	.loc 11 773 0
	addi 31,30,24
.LVL281:
.LBE3268:
.LBE3267:
	.loc 15 2127 0
	cmpw 7,31,27
	beq- 7,.L250
	.loc 15 2122 0
	addi 29,30,48
	b .L257
.LVL282:
.L259:
.LBB3269:
.LBB3270:
.LBB3271:
.LBB3272:
.LBB3273:
.LBB3274:
.LBB3275:
.LBB3276:
	.loc 5 559 0
	subf 5,30,31
	lis 0,0xaaaa
	ori 0,0,43691
	srawi 5,5,3
	.loc 5 560 0
	mullw. 9,5,0
.LBE3276:
.LBE3275:
.LBE3274:
.LBE3273:
.LBE3272:
.LBE3271:
	.loc 15 2132 0
	lwz 7,0(31)
	lwz 8,4(31)
.LBB3282:
.LBB3283:
	.loc 11 773 0
	mr 28,29
.LBE3283:
.LBE3282:
	.loc 15 2132 0
	lwz 10,8(31)
	lwz 11,12(31)
	lwz 9,16(31)
	lwz 0,20(31)
	stw 7,8(1)
	stw 8,12(1)
	stw 10,16(1)
	stw 11,20(1)
	stw 9,24(1)
	stw 0,28(1)
.LVL283:
.LBB3284:
.LBB3281:
.LBB3280:
.LBB3279:
.LBB3278:
.LBB3277:
	.loc 5 560 0
	beq+ 0,.L253
	.loc 5 561 0
	slwi 5,5,3
.LVL284:
	mr 4,30
	subf 3,5,29
	bl memmove
.L253:
.LVL285:
.LBE3277:
.LBE3278:
.LBE3279:
.LBE3280:
.LBE3281:
.LBE3284:
	.loc 15 2134 0
	lwz 0,8(1)
.LBE3270:
.LBE3269:
	.loc 15 2127 0
	cmpw 7,27,28
.LBB3294:
.LBB3285:
.LBB3286:
	.loc 15 2093 0
	addi 31,31,24
	addi 29,29,24
.LVL286:
.LBE3286:
.LBE3285:
.LBB3291:
	.loc 15 2134 0
	stw 0,0(30)
	lwz 0,12(1)
	stw 0,4(30)
	lwz 0,16(1)
	stw 0,8(30)
	lwz 0,20(1)
	stw 0,12(30)
	lwz 0,24(1)
	stw 0,16(30)
	lwz 0,28(1)
	stw 0,20(30)
.LVL287:
.LBE3291:
.LBE3294:
	.loc 15 2127 0
	beq- 7,.L250
.LVL288:
.L257:
.LBB3295:
	.loc 15 2129 0
	lwz 0,40(1)
	mr 3,31
	mr 4,30
.LBE3295:
	.loc 15 2127 0
	mr 26,31
.LVL289:
.LBB3296:
	.loc 15 2129 0
	mtctr 0
	bctrl
	cmpwi 7,3,0
	bne- 7,.L259
.LVL290:
.LBB3292:
.LBB3289:
	.loc 15 2084 0
	lwz 7,0(31)
	.loc 15 2122 0
	addi 28,31,-24
	.loc 15 2084 0
	lwz 8,4(31)
	lwz 10,8(31)
	lwz 11,12(31)
	lwz 9,16(31)
	lwz 0,20(31)
	stw 7,8(1)
	stw 8,12(1)
	stw 10,16(1)
	stw 11,20(1)
	stw 9,24(1)
	stw 0,28(1)
.LVL291:
	b .L255
.LVL292:
.L256:
	.loc 15 2089 0
	lwz 9,8(28)
	lwz 0,12(28)
	lwz 10,0(28)
	lwz 11,4(28)
	stw 10,0(26)
	stw 11,4(26)
	stw 9,8(26)
	stw 0,12(26)
	lwz 9,16(28)
	lwz 0,20(28)
	stw 9,16(26)
	stw 0,20(26)
.LVL293:
.LBB3287:
.LBB3288:
	.loc 11 754 0
	mr 26,28
	addi 28,28,-24
.LVL294:
.L255:
.LBE3288:
.LBE3287:
	.loc 15 2087 0
	lwz 0,40(1)
	mr 4,28
	addi 3,1,8
	mtctr 0
	bctrl
	cmpwi 7,3,0
	bne+ 7,.L256
.LVL295:
	.loc 15 2093 0
	lwz 0,8(1)
	mr 28,29
.LVL296:
.LBE3289:
.LBE3292:
.LBE3296:
	.loc 15 2127 0
	cmpw 7,27,28
.LBB3297:
.LBB3293:
.LBB3290:
	.loc 15 2093 0
	addi 31,31,24
	stw 0,0(26)
	addi 29,29,24
.LVL297:
	lwz 0,12(1)
	stw 0,4(26)
	lwz 0,16(1)
	stw 0,8(26)
	lwz 0,20(1)
	stw 0,12(26)
	lwz 0,24(1)
	stw 0,16(26)
	lwz 0,28(1)
	stw 0,20(26)
.LBE3290:
.LBE3293:
.LBE3297:
	.loc 15 2127 0
	bne+ 7,.L257
.LVL298:
.L250:
.LBE3266:
.LBE3298:
	.loc 15 2139 0
	lwz 0,76(1)
	lwz 26,48(1)
	mtlr 0
	lwz 27,52(1)
	lwz 28,56(1)
	lwz 29,60(1)
	lwz 30,64(1)
.LVL299:
	lwz 31,68(1)
	addi 1,1,72
.LCFI22:
	.cfi_def_cfa_offset 0
	.cfi_restore 31
	.cfi_restore 30
	.cfi_restore 29
	.cfi_restore 28
	.cfi_restore 27
	.cfi_restore 26
	blr
	.cfi_endproc
.LFE1140:
	.size	_ZSt16__insertion_sortIN9__gnu_cxx17__normal_iteratorIP9FileInfosSt6vectorIS2_SaIS2_EEEEPFbRKS2_S9_EEvT_SC_T0_, .-_ZSt16__insertion_sortIN9__gnu_cxx17__normal_iteratorIP9FileInfosSt6vectorIS2_SaIS2_EEEEPFbRKS2_S9_EEvT_SC_T0_
	.section	.text._ZSt19__move_median_firstIN9__gnu_cxx17__normal_iteratorIP9FileInfosSt6vectorIS2_SaIS2_EEEEPFbRKS2_S9_EEvT_SC_SC_T0_,"axG",@progbits,_ZSt19__move_median_firstIN9__gnu_cxx17__normal_iteratorIP9FileInfosSt6vectorIS2_SaIS2_EEEEPFbRKS2_S9_EEvT_SC_SC_T0_,comdat
	.align 2
	.weak	_ZSt19__move_median_firstIN9__gnu_cxx17__normal_iteratorIP9FileInfosSt6vectorIS2_SaIS2_EEEEPFbRKS2_S9_EEvT_SC_SC_T0_
	.type	_ZSt19__move_median_firstIN9__gnu_cxx17__normal_iteratorIP9FileInfosSt6vectorIS2_SaIS2_EEEEPFbRKS2_S9_EEvT_SC_SC_T0_, @function
_ZSt19__move_median_firstIN9__gnu_cxx17__normal_iteratorIP9FileInfosSt6vectorIS2_SaIS2_EEEEPFbRKS2_S9_EEvT_SC_SC_T0_:
.LFB1181:
	.loc 15 104 0
	.cfi_startproc
.LVL300:
	mflr 0
	stwu 1,-64(1)
.LCFI23:
	.cfi_def_cfa_offset 64
	.cfi_register 65, 0
	stw 30,56(1)
	.loc 15 112 0
	mtctr 6
	.loc 15 104 0
	stw 0,68(1)
	stw 31,60(1)
	lwz 30,0(4)
	.cfi_offset 31, -4
	.cfi_offset 65, 4
	.cfi_offset 30, -8
	lwz 31,0(3)
.LVL301:
	stw 29,52(1)
	.loc 15 112 0
	mr 4,30
.LVL302:
	.loc 15 104 0
	stw 6,40(1)
	.loc 15 112 0
	mr 3,31
.LVL303:
	.loc 15 104 0
	lwz 29,0(5)
	.cfi_offset 29, -12
.LVL304:
	.loc 15 112 0
	bctrl
.LVL305:
	cmpwi 7,3,0
	beq- 7,.L261
.LVL306:
	.loc 15 114 0
	lwz 0,40(1)
	mr 3,30
	mr 4,29
	mtctr 0
	bctrl
	cmpwi 7,3,0
	bne- 7,.L264
.LVL307:
	.loc 15 116 0
	lwz 0,40(1)
	mr 3,31
	mr 4,29
	mtctr 0
	bctrl
	cmpwi 7,3,0
	bne- 7,.L265
.LVL308:
.L260:
	.loc 15 125 0
	lwz 0,68(1)
	lwz 29,52(1)
.LVL309:
	mtlr 0
	lwz 30,56(1)
.LVL310:
	lwz 31,60(1)
.LVL311:
	addi 1,1,64
	.cfi_remember_state
.LCFI24:
	.cfi_def_cfa_offset 0
	.cfi_restore 31
	.cfi_restore 30
	.cfi_restore 29
	blr
.LVL312:
.L261:
.LCFI25:
	.cfi_restore_state
	.loc 15 119 0
	lwz 0,40(1)
	mr 3,31
	mr 4,29
	mtctr 0
	bctrl
	cmpwi 7,3,0
	bne+ 7,.L260
.LVL313:
	.loc 15 121 0
	lwz 0,40(1)
	mr 3,30
	mr 4,29
	mtctr 0
	bctrl
	cmpwi 7,3,0
	beq+ 7,.L264
.LVL314:
.L265:
.LBB3359:
.LBB3360:
.LBB3361:
.LBB3362:
.LBB3363:
	.loc 12 128 0
	lwz 5,0(29)
	lwz 6,4(29)
	lwz 9,8(29)
	lwz 0,12(29)
	.loc 12 127 0
	lwz 7,0(31)
	lwz 8,4(31)
	.loc 12 128 0
	stw 5,0(31)
	stw 6,4(31)
	.loc 12 127 0
	lwz 10,8(31)
	lwz 11,12(31)
	.loc 12 128 0
	stw 9,8(31)
	stw 0,12(31)
	.loc 12 127 0
	lwz 9,16(31)
	lwz 0,20(31)
	.loc 12 128 0
	lwz 5,16(29)
	lwz 6,20(29)
	.loc 12 127 0
	stw 7,8(1)
	.loc 12 128 0
	stw 5,16(31)
	stw 6,20(31)
	.loc 12 127 0
	stw 0,28(1)
	stw 8,12(1)
	stw 10,16(1)
	stw 11,20(1)
	stw 9,24(1)
	.loc 12 129 0
	stw 0,20(29)
.LBE3363:
.LBE3362:
.LBE3361:
.LBE3360:
.LBE3359:
	.loc 15 125 0
	lwz 0,68(1)
.LBB3372:
.LBB3370:
.LBB3368:
.LBB3366:
.LBB3364:
	.loc 12 129 0
	stw 7,0(29)
.LBE3364:
.LBE3366:
.LBE3368:
.LBE3370:
.LBE3372:
	.loc 15 125 0
	mtlr 0
.LBB3373:
.LBB3371:
.LBB3369:
.LBB3367:
.LBB3365:
	.loc 12 129 0
	stw 8,4(29)
	stw 10,8(29)
	stw 11,12(29)
	stw 9,16(29)
.LBE3365:
.LBE3367:
.LBE3369:
.LBE3371:
.LBE3373:
	.loc 15 125 0
	lwz 30,56(1)
.LVL315:
	lwz 29,52(1)
.LVL316:
	lwz 31,60(1)
.LVL317:
	addi 1,1,64
	.cfi_remember_state
	.cfi_restore 29
	.cfi_restore 30
	.cfi_restore 31
.LCFI26:
	.cfi_def_cfa_offset 0
	blr
.LVL318:
.L264:
.LCFI27:
	.cfi_restore_state
.LBB3374:
.LBB3375:
.LBB3376:
.LBB3377:
.LBB3378:
	.loc 12 128 0
	lwz 5,0(30)
	lwz 6,4(30)
	lwz 9,8(30)
	lwz 0,12(30)
	.loc 12 127 0
	lwz 7,0(31)
	lwz 8,4(31)
	.loc 12 128 0
	stw 5,0(31)
	stw 6,4(31)
	.loc 12 127 0
	lwz 10,8(31)
	lwz 11,12(31)
	.loc 12 128 0
	stw 9,8(31)
	stw 0,12(31)
	.loc 12 127 0
	lwz 9,16(31)
	lwz 0,20(31)
	.loc 12 128 0
	lwz 5,16(30)
	lwz 6,20(30)
	.loc 12 127 0
	stw 7,8(1)
	.loc 12 128 0
	stw 5,16(31)
	stw 6,20(31)
	.loc 12 127 0
	stw 0,28(1)
	stw 8,12(1)
	stw 10,16(1)
	stw 11,20(1)
	stw 9,24(1)
	.loc 12 129 0
	stw 0,20(30)
.LBE3378:
.LBE3377:
.LBE3376:
.LBE3375:
.LBE3374:
	.loc 15 125 0
	lwz 0,68(1)
.LBB3387:
.LBB3385:
.LBB3383:
.LBB3381:
.LBB3379:
	.loc 12 129 0
	stw 7,0(30)
.LBE3379:
.LBE3381:
.LBE3383:
.LBE3385:
.LBE3387:
	.loc 15 125 0
	mtlr 0
.LBB3388:
.LBB3386:
.LBB3384:
.LBB3382:
.LBB3380:
	.loc 12 129 0
	stw 8,4(30)
	stw 10,8(30)
	stw 11,12(30)
	stw 9,16(30)
.LBE3380:
.LBE3382:
.LBE3384:
.LBE3386:
.LBE3388:
	.loc 15 125 0
	lwz 29,52(1)
.LVL319:
	lwz 30,56(1)
.LVL320:
	lwz 31,60(1)
.LVL321:
	addi 1,1,64
	.cfi_restore 29
	.cfi_restore 30
	.cfi_restore 31
.LCFI28:
	.cfi_def_cfa_offset 0
	blr
	.cfi_endproc
.LFE1181:
	.size	_ZSt19__move_median_firstIN9__gnu_cxx17__normal_iteratorIP9FileInfosSt6vectorIS2_SaIS2_EEEEPFbRKS2_S9_EEvT_SC_SC_T0_, .-_ZSt19__move_median_firstIN9__gnu_cxx17__normal_iteratorIP9FileInfosSt6vectorIS2_SaIS2_EEEEPFbRKS2_S9_EEvT_SC_SC_T0_
	.section	.text._ZSt11__push_heapIN9__gnu_cxx17__normal_iteratorIP9FileInfosSt6vectorIS2_SaIS2_EEEEiS2_PFbRKS2_S9_EEvT_T0_SD_T1_T2_,"axG",@progbits,_ZSt11__push_heapIN9__gnu_cxx17__normal_iteratorIP9FileInfosSt6vectorIS2_SaIS2_EEEEiS2_PFbRKS2_S9_EEvT_T0_SD_T1_T2_,comdat
	.align 2
	.weak	_ZSt11__push_heapIN9__gnu_cxx17__normal_iteratorIP9FileInfosSt6vectorIS2_SaIS2_EEEEiS2_PFbRKS2_S9_EEvT_T0_SD_T1_T2_
	.type	_ZSt11__push_heapIN9__gnu_cxx17__normal_iteratorIP9FileInfosSt6vectorIS2_SaIS2_EEEEiS2_PFbRKS2_S9_EEvT_T0_SD_T1_T2_, @function
_ZSt11__push_heapIN9__gnu_cxx17__normal_iteratorIP9FileInfosSt6vectorIS2_SaIS2_EEEEiS2_PFbRKS2_S9_EEvT_T0_SD_T1_T2_:
.LFB1232:
	.file 16 "d:\\devkitpro\\devkitppc\\bin\\../lib/gcc/powerpc-eabi/4.6.3/../../../../powerpc-eabi/include/c++/4.6.3/bits/stl_heap.h"
	.loc 16 178 0
	.cfi_startproc
.LVL322:
	mflr 0
	stwu 1,-48(1)
.LCFI29:
	.cfi_def_cfa_offset 48
	.cfi_register 65, 0
.LBB3389:
	.loc 16 182 0
	cmpw 7,5,4
.LBE3389:
	.loc 16 178 0
	stw 28,32(1)
	mr 28,6
	.cfi_offset 28, -16
	stw 0,52(1)
	stw 29,36(1)
	mr 29,5
	.cfi_offset 29, -12
	.cfi_offset 65, 4
	stw 30,40(1)
	stw 31,44(1)
	mr 31,4
	.cfi_offset 31, -4
	.cfi_offset 30, -8
	stw 25,20(1)
	stw 26,24(1)
	stw 27,28(1)
	.loc 16 178 0
	lwz 30,0(3)
.LVL323:
	stw 7,8(1)
.LBB3394:
	.loc 16 182 0
	blt- 7,.L267
	.cfi_offset 27, -20
	.cfi_offset 26, -24
	.cfi_offset 25, -28
	mulli 31,4,24
	add 27,30,31
.LVL324:
.L268:
	.loc 16 189 0
	lwz 0,20(28)
	lwz 7,0(28)
	stw 0,20(27)
.LBE3394:
	.loc 16 190 0
	lwz 0,52(1)
.LBB3395:
	.loc 16 189 0
	lwz 8,4(28)
.LBE3395:
	.loc 16 190 0
	mtlr 0
.LBB3396:
	.loc 16 189 0
	lwz 10,8(28)
	lwz 11,12(28)
	lwz 9,16(28)
	stw 7,0(27)
	stw 8,4(27)
	stw 10,8(27)
	stw 11,12(27)
	stw 9,16(27)
.LBE3396:
	.loc 16 190 0
	lwz 25,20(1)
	lwz 26,24(1)
	lwz 27,28(1)
	lwz 28,32(1)
	lwz 29,36(1)
.LVL325:
	lwz 30,40(1)
.LVL326:
	lwz 31,44(1)
	addi 1,1,48
	.cfi_remember_state
.LCFI30:
	.cfi_def_cfa_offset 0
	.cfi_restore 31
	.cfi_restore 30
	.cfi_restore 29
	.cfi_restore 28
	.cfi_restore 27
	.cfi_restore 26
	.cfi_restore 25
	blr
.LVL327:
.L267:
.LCFI31:
	.cfi_restore_state
.LBB3397:
	.loc 16 181 0
	addi 26,4,-1
	srawi 26,26,1
	addze 26,26
.LVL328:
.L270:
.LBB3390:
.LBB3391:
	.loc 11 773 0 discriminator 2
	mulli 25,26,24
.LBE3391:
.LBE3390:
	.loc 16 182 0 discriminator 2
	lwz 0,8(1)
	mr 4,28
.LBB3393:
.LBB3392:
	.loc 11 773 0 discriminator 2
	add 27,30,25
.LVL329:
.LBE3392:
.LBE3393:
	.loc 16 182 0 discriminator 2
	mtctr 0
	mr 3,27
	bctrl
	.loc 16 185 0 discriminator 2
	mulli 9,31,24
	.loc 16 182 0 discriminator 2
	cmpwi 7,3,0
	cmpw 6,29,26
	.loc 16 185 0 discriminator 2
	add 11,30,9
	.loc 16 187 0 discriminator 2
	addi 0,26,-1
	.loc 16 182 0 discriminator 2
	bne- 7,.L269
	.loc 16 182 0 is_stmt 0
	mr 27,11
	b .L268
.L269:
.LVL330:
	.loc 16 185 0 is_stmt 1 discriminator 5
	lwz 10,12(27)
	.loc 16 187 0 discriminator 5
	srawi 0,0,1
	addze 0,0
	.loc 16 185 0 discriminator 5
	lwzx 6,30,25
	lwz 7,4(27)
	lwz 8,8(27)
	stwx 6,30,9
	stw 7,4(11)
	stw 8,8(11)
	stw 10,12(11)
	lwz 10,16(27)
	lwz 9,20(27)
	stw 10,16(11)
	stw 9,20(11)
.LVL331:
	.loc 16 182 0 discriminator 5
	bge+ 6,.L268
	.loc 16 182 0 is_stmt 0
	mr 31,26
	.loc 16 187 0 is_stmt 1
	mr 26,0
.LVL332:
	b .L270
.LBE3397:
	.cfi_endproc
.LFE1232:
	.size	_ZSt11__push_heapIN9__gnu_cxx17__normal_iteratorIP9FileInfosSt6vectorIS2_SaIS2_EEEEiS2_PFbRKS2_S9_EEvT_T0_SD_T1_T2_, .-_ZSt11__push_heapIN9__gnu_cxx17__normal_iteratorIP9FileInfosSt6vectorIS2_SaIS2_EEEEiS2_PFbRKS2_S9_EEvT_T0_SD_T1_T2_
	.section	.text._ZSt13__adjust_heapIN9__gnu_cxx17__normal_iteratorIP9FileInfosSt6vectorIS2_SaIS2_EEEEiS2_PFbRKS2_S9_EEvT_T0_SD_T1_T2_,"axG",@progbits,_ZSt13__adjust_heapIN9__gnu_cxx17__normal_iteratorIP9FileInfosSt6vectorIS2_SaIS2_EEEEiS2_PFbRKS2_S9_EEvT_T0_SD_T1_T2_,comdat
	.align 2
	.weak	_ZSt13__adjust_heapIN9__gnu_cxx17__normal_iteratorIP9FileInfosSt6vectorIS2_SaIS2_EEEEiS2_PFbRKS2_S9_EEvT_T0_SD_T1_T2_
	.type	_ZSt13__adjust_heapIN9__gnu_cxx17__normal_iteratorIP9FileInfosSt6vectorIS2_SaIS2_EEEEiS2_PFbRKS2_S9_EEvT_T0_SD_T1_T2_, @function
_ZSt13__adjust_heapIN9__gnu_cxx17__normal_iteratorIP9FileInfosSt6vectorIS2_SaIS2_EEEEiS2_PFbRKS2_S9_EEvT_T0_SD_T1_T2_:
.LFB1226:
	.loc 16 297 0
	.cfi_startproc
.LVL333:
	stwu 1,-104(1)
.LCFI32:
	.cfi_def_cfa_offset 104
	mflr 0
	stw 30,96(1)
.LBB3398:
	.loc 16 302 0
	addi 30,5,-1
	.cfi_offset 30, -8
	.cfi_register 65, 0
	srawi 30,30,1
	addze 30,30
.LBE3398:
	.loc 16 297 0
	stw 0,108(1)
.LBB3407:
	.loc 16 302 0
	cmpw 7,4,30
.LBE3407:
	.loc 16 297 0
	stw 27,84(1)
	stw 28,88(1)
	mr 27,6
	.cfi_offset 28, -16
	.cfi_offset 27, -20
	.cfi_offset 65, 4
	stw 29,92(1)
	mr 28,5
	stw 31,100(1)
	mr 29,4
	.cfi_offset 31, -4
	.cfi_offset 29, -12
	stw 22,64(1)
	stw 23,68(1)
	stw 24,72(1)
	stw 25,76(1)
	stw 26,80(1)
	.loc 16 297 0
	lwz 31,0(3)
.LVL334:
	stw 7,48(1)
.LBB3408:
	.loc 16 302 0
	bge- 7,.L273
	.cfi_offset 26, -24
	.cfi_offset 25, -28
	.cfi_offset 24, -32
	.cfi_offset 23, -36
	.cfi_offset 22, -40
	mr 23,29
.LVL335:
.L275:
	.loc 16 304 0
	addi 24,23,1
	.loc 16 305 0
	lwz 0,48(1)
	.loc 16 304 0
	slwi 24,24,1
.LVL336:
	.loc 16 308 0
	mulli 23,23,24
.LVL337:
	.loc 16 305 0
	addi 25,24,-1
.LBB3399:
.LBB3400:
	.loc 11 773 0
	mulli 22,24,24
.LBE3400:
.LBE3399:
.LBB3402:
.LBB3403:
	mulli 26,25,24
.LBE3403:
.LBE3402:
	.loc 16 305 0
	mtctr 0
.LBB3405:
.LBB3401:
	.loc 11 773 0
	add 22,31,22
.LVL338:
.LBE3401:
.LBE3405:
.LBB3406:
.LBB3404:
	add 26,31,26
.LBE3404:
.LBE3406:
	.loc 16 305 0
	mr 3,22
	mr 4,26
	bctrl
	.loc 16 308 0
	add 9,31,23
	.loc 16 305 0
	cmpwi 7,3,0
	bne- 7,.L274
	mr 26,22
	.loc 16 304 0
	mr 25,24
.L274:
.LVL339:
	.loc 16 308 0
	lwz 11,8(26)
	.loc 16 302 0
	cmpw 7,25,30
	.loc 16 308 0
	lwz 0,12(26)
	lwz 8,0(26)
	lwz 10,4(26)
	stwx 8,31,23
	.loc 16 302 0
	mr 23,25
	.loc 16 308 0
	stw 10,4(9)
	stw 11,8(9)
	stw 0,12(9)
	lwz 11,16(26)
	lwz 0,20(26)
	stw 11,16(9)
	stw 0,20(9)
.LVL340:
	.loc 16 302 0
	blt+ 7,.L275
	mr 4,25
.LVL341:
.L273:
	.loc 16 311 0
	andi. 0,28,1
	bne- 0,.L276
	.loc 16 311 0 is_stmt 0 discriminator 1
	addi 28,28,-2
.LVL342:
	srawi 28,28,1
	addze 28,28
.LVL343:
	cmpw 7,28,4
	beq- 7,.L279
.LVL344:
.L276:
	.loc 16 318 0 is_stmt 1
	lwz 0,20(27)
	addi 3,1,8
	lwz 12,0(27)
	mr 5,29
	lwz 8,4(27)
	addi 6,1,16
	lwz 10,8(27)
	lwz 11,12(27)
	lwz 9,16(27)
	lwz 7,48(1)
	stw 31,8(1)
	stw 0,36(1)
	stw 12,16(1)
	stw 8,20(1)
	stw 10,24(1)
	stw 11,28(1)
	stw 9,32(1)
	bl _ZSt11__push_heapIN9__gnu_cxx17__normal_iteratorIP9FileInfosSt6vectorIS2_SaIS2_EEEEiS2_PFbRKS2_S9_EEvT_T0_SD_T1_T2_
.LVL345:
.LBE3408:
	.loc 16 320 0
	lwz 0,108(1)
	lwz 22,64(1)
	mtlr 0
	lwz 23,68(1)
	lwz 24,72(1)
	lwz 25,76(1)
	lwz 26,80(1)
	lwz 27,84(1)
	lwz 28,88(1)
	lwz 29,92(1)
.LVL346:
	lwz 30,96(1)
	lwz 31,100(1)
.LVL347:
	addi 1,1,104
	.cfi_remember_state
.LCFI33:
	.cfi_def_cfa_offset 0
	.cfi_restore 31
	.cfi_restore 30
	.cfi_restore 29
	.cfi_restore 28
	.cfi_restore 27
	.cfi_restore 26
	.cfi_restore 25
	.cfi_restore 24
	.cfi_restore 23
	.cfi_restore 22
	blr
.LVL348:
.L279:
.LCFI34:
	.cfi_restore_state
.LBB3409:
	.loc 16 313 0
	slwi 4,4,1
.LVL349:
	.loc 16 314 0
	mulli 28,28,24
	addi 4,4,1
.LVL350:
	mulli 9,4,24
	add 11,31,9
	lwzx 7,31,9
	lwz 10,8(11)
	add 9,31,28
	lwz 0,12(11)
	lwz 8,4(11)
	stwx 7,31,28
	stw 8,4(9)
	stw 10,8(9)
	stw 0,12(9)
	lwz 10,16(11)
	lwz 0,20(11)
	stw 10,16(9)
	stw 0,20(9)
.LVL351:
	b .L276
.LBE3409:
	.cfi_endproc
.LFE1226:
	.size	_ZSt13__adjust_heapIN9__gnu_cxx17__normal_iteratorIP9FileInfosSt6vectorIS2_SaIS2_EEEEiS2_PFbRKS2_S9_EEvT_T0_SD_T1_T2_, .-_ZSt13__adjust_heapIN9__gnu_cxx17__normal_iteratorIP9FileInfosSt6vectorIS2_SaIS2_EEEEiS2_PFbRKS2_S9_EEvT_T0_SD_T1_T2_
	.section	.text._ZSt13__heap_selectIN9__gnu_cxx17__normal_iteratorIP9FileInfosSt6vectorIS2_SaIS2_EEEEPFbRKS2_S9_EEvT_SC_SC_T0_,"axG",@progbits,_ZSt13__heap_selectIN9__gnu_cxx17__normal_iteratorIP9FileInfosSt6vectorIS2_SaIS2_EEEEPFbRKS2_S9_EEvT_SC_SC_T0_,comdat
	.align 2
	.weak	_ZSt13__heap_selectIN9__gnu_cxx17__normal_iteratorIP9FileInfosSt6vectorIS2_SaIS2_EEEEPFbRKS2_S9_EEvT_SC_SC_T0_
	.type	_ZSt13__heap_selectIN9__gnu_cxx17__normal_iteratorIP9FileInfosSt6vectorIS2_SaIS2_EEEEPFbRKS2_S9_EEvT_SC_SC_T0_, @function
_ZSt13__heap_selectIN9__gnu_cxx17__normal_iteratorIP9FileInfosSt6vectorIS2_SaIS2_EEEEPFbRKS2_S9_EEvT_SC_SC_T0_:
.LFB1178:
	.loc 15 1912 0
	.cfi_startproc
.LVL352:
	mflr 0
	stwu 1,-128(1)
.LCFI35:
	.cfi_def_cfa_offset 128
	.cfi_register 65, 0
	stw 29,116(1)
	stw 0,132(1)
	stw 31,124(1)
	lwz 29,0(3)
	.cfi_offset 31, -4
	.cfi_offset 65, 4
	.cfi_offset 29, -12
	lwz 31,0(4)
	stw 25,100(1)
.LBB3437:
.LBB3438:
.LBB3439:
.LBB3440:
	.loc 11 892 0
	subf 25,29,31
	.cfi_offset 25, -28
.LBE3440:
.LBE3439:
.LBE3438:
.LBE3437:
	.loc 15 1912 0
	stw 27,108(1)
.LBB3446:
.LBB3444:
	.loc 16 428 0
	cmpwi 7,25,47
.LBE3444:
.LBE3446:
	.loc 15 1912 0
	stw 26,104(1)
	stw 28,112(1)
	stw 30,120(1)
	.loc 15 1912 0
	lwz 27,0(5)
	.cfi_offset 30, -8
	.cfi_offset 28, -16
	.cfi_offset 26, -24
	.cfi_offset 27, -20
	stw 6,80(1)
.LVL353:
.LBB3447:
.LBB3445:
	.loc 16 428 0
	ble- 7,.L281
.LVL354:
.LBB3441:
.LBB3442:
	.loc 11 892 0
	lis 0,0xaaaa
	srawi 26,25,3
	ori 0,0,43691
	mullw 26,26,0
.LVL355:
.LBE3442:
.LBE3441:
	.loc 16 432 0
	addi 28,26,-2
	srawi 28,28,1
.LVL356:
	.loc 15 1912 0
	mulli 30,28,24
	add 30,29,30
.LVL357:
.L282:
.LBB3443:
	.loc 16 435 0
	lwz 12,0(30)
	.loc 16 436 0
	mr 4,28
	.loc 16 435 0
	lwz 8,4(30)
	.loc 16 436 0
	addi 3,1,40
	.loc 16 435 0
	lwz 10,8(30)
	.loc 16 436 0
	mr 5,26
	.loc 16 435 0
	lwz 11,12(30)
	.loc 16 436 0
	addi 6,1,48
	.loc 16 435 0
	lwz 9,16(30)
	lwz 0,20(30)
	.loc 16 436 0
	addi 30,30,-24
	lwz 7,80(1)
	.loc 16 435 0
	stw 12,8(1)
	stw 8,12(1)
	stw 10,16(1)
	stw 11,20(1)
	stw 9,24(1)
	stw 0,28(1)
	.loc 16 436 0
	stw 29,40(1)
	stw 12,48(1)
	stw 8,52(1)
	stw 10,56(1)
	stw 11,60(1)
	stw 9,64(1)
	stw 0,68(1)
	bl _ZSt13__adjust_heapIN9__gnu_cxx17__normal_iteratorIP9FileInfosSt6vectorIS2_SaIS2_EEEEiS2_PFbRKS2_S9_EEvT_T0_SD_T1_T2_
	.loc 16 438 0
	cmpwi 7,28,0
	.loc 16 440 0
	addi 28,28,-1
.LVL358:
	.loc 16 438 0
	bne+ 7,.L282
.LVL359:
.L281:
.LBE3443:
.LBE3445:
.LBE3447:
.LBB3448:
	.loc 15 1917 0
	cmplw 7,31,27
	bge- 7,.L280
.LBB3449:
.LBB3450:
.LBB3451:
.LBB3452:
	.loc 11 892 0
	lis 0,0xaaaa
	srawi 25,25,3
	ori 0,0,43691
	mullw 28,25,0
	b .L285
.LVL360:
.L284:
.LBE3452:
.LBE3451:
	.loc 16 334 0
	addi 31,31,24
.LBE3450:
.LBE3449:
	.loc 15 1917 0
	cmplw 7,27,31
	ble- 7,.L280
.LVL361:
.L285:
	.loc 15 1918 0
	lwz 0,80(1)
	mr 3,31
	mr 4,29
	mtctr 0
	bctrl
	cmpwi 7,3,0
	beq+ 7,.L284
.LVL362:
.LBB3454:
.LBB3453:
	.loc 16 333 0
	lwz 6,0(29)
	.loc 16 334 0
	addi 3,1,40
	.loc 16 333 0
	lwz 7,4(29)
	.loc 16 334 0
	li 4,0
	.loc 16 333 0
	lwz 9,8(29)
	.loc 16 334 0
	mr 5,28
	.loc 16 333 0
	lwz 0,12(29)
	.loc 16 332 0
	lwz 30,0(31)
	lwz 8,4(31)
	lwz 10,8(31)
	lwz 11,12(31)
	.loc 16 333 0
	stw 9,8(31)
	stw 0,12(31)
	stw 6,0(31)
	stw 7,4(31)
	.loc 16 332 0
	lwz 9,16(31)
	.loc 16 333 0
	lwz 6,16(29)
	lwz 7,20(29)
	.loc 16 332 0
	lwz 0,20(31)
	.loc 16 333 0
	stw 6,16(31)
	.loc 16 334 0
	addi 6,1,48
	.loc 16 333 0
	stw 7,20(31)
	.loc 16 334 0
	addi 31,31,24
.LVL363:
	lwz 7,80(1)
	.loc 16 332 0
	stw 30,8(1)
	stw 8,12(1)
	stw 10,16(1)
	stw 11,20(1)
	stw 9,24(1)
	stw 0,28(1)
.LVL364:
	.loc 16 334 0
	stw 29,40(1)
	stw 30,48(1)
	stw 8,52(1)
	stw 10,56(1)
	stw 11,60(1)
	stw 9,64(1)
	stw 0,68(1)
	bl _ZSt13__adjust_heapIN9__gnu_cxx17__normal_iteratorIP9FileInfosSt6vectorIS2_SaIS2_EEEEiS2_PFbRKS2_S9_EEvT_T0_SD_T1_T2_
.LVL365:
.LBE3453:
.LBE3454:
	.loc 15 1917 0
	cmplw 7,27,31
	bgt+ 7,.L285
.LVL366:
.L280:
.LBE3448:
	.loc 15 1920 0
	lwz 0,132(1)
	lwz 25,100(1)
	mtlr 0
	lwz 26,104(1)
	lwz 27,108(1)
	lwz 28,112(1)
	lwz 29,116(1)
	lwz 30,120(1)
	lwz 31,124(1)
	addi 1,1,128
.LCFI36:
	.cfi_def_cfa_offset 0
	.cfi_restore 31
	.cfi_restore 30
	.cfi_restore 29
	.cfi_restore 28
	.cfi_restore 27
	.cfi_restore 26
	.cfi_restore 25
	blr
	.cfi_endproc
.LFE1178:
	.size	_ZSt13__heap_selectIN9__gnu_cxx17__normal_iteratorIP9FileInfosSt6vectorIS2_SaIS2_EEEEPFbRKS2_S9_EEvT_SC_SC_T0_, .-_ZSt13__heap_selectIN9__gnu_cxx17__normal_iteratorIP9FileInfosSt6vectorIS2_SaIS2_EEEEPFbRKS2_S9_EEvT_SC_SC_T0_
	.section	.text._ZSt16__introsort_loopIN9__gnu_cxx17__normal_iteratorIP9FileInfosSt6vectorIS2_SaIS2_EEEEiPFbRKS2_S9_EEvT_SC_T0_T1_,"axG",@progbits,_ZSt16__introsort_loopIN9__gnu_cxx17__normal_iteratorIP9FileInfosSt6vectorIS2_SaIS2_EEEEiPFbRKS2_S9_EEvT_SC_T0_T1_,comdat
	.align 2
	.weak	_ZSt16__introsort_loopIN9__gnu_cxx17__normal_iteratorIP9FileInfosSt6vectorIS2_SaIS2_EEEEiPFbRKS2_S9_EEvT_SC_T0_T1_
	.type	_ZSt16__introsort_loopIN9__gnu_cxx17__normal_iteratorIP9FileInfosSt6vectorIS2_SaIS2_EEEEiPFbRKS2_S9_EEvT_SC_T0_T1_, @function
_ZSt16__introsort_loopIN9__gnu_cxx17__normal_iteratorIP9FileInfosSt6vectorIS2_SaIS2_EEEEiPFbRKS2_S9_EEvT_SC_T0_T1_:
.LFB1094:
	.loc 15 2293 0
	.cfi_startproc
.LVL367:
	mflr 0
	stwu 1,-152(1)
.LCFI37:
	.cfi_def_cfa_offset 152
	.cfi_register 65, 0
	stw 29,140(1)
	stw 0,156(1)
	stw 31,148(1)
	lwz 29,0(4)
	.cfi_offset 31, -4
	.cfi_offset 65, 4
	.cfi_offset 29, -12
	lwz 31,0(3)
	stw 28,136(1)
	mr 28,5
	.cfi_offset 28, -16
.LVL368:
.LBB3508:
.LBB3509:
.LBB3510:
	.loc 11 892 0
	subf 0,31,29
.LBE3510:
.LBE3509:
.LBE3508:
	.loc 15 2293 0
	stw 22,112(1)
.LBB3559:
	.loc 15 2297 0
	cmpwi 7,0,407
.LBE3559:
	.loc 15 2293 0
	stw 23,116(1)
	stw 24,120(1)
	stw 25,124(1)
	stw 26,128(1)
	stw 27,132(1)
	stw 30,144(1)
	.loc 15 2293 0
	stw 6,96(1)
.LBB3560:
	.loc 15 2297 0
	ble- 7,.L287
	.cfi_offset 30, -8
	.cfi_offset 27, -20
	.cfi_offset 26, -24
	.cfi_offset 25, -28
	.cfi_offset 24, -32
	.cfi_offset 23, -36
	.cfi_offset 22, -40
.LBB3512:
	.loc 15 2299 0
	cmpwi 7,5,0
	beq- 7,.L299
	addi 24,31,24
	mr 27,29
	addi 30,1,40
	addi 26,1,44
	addi 25,1,48
.LVL369:
.L290:
.LBB3513:
.LBB3514:
.LBB3515:
.LBB3516:
	.loc 11 892 0
	lis 9,0xaaaa
	srawi 0,0,3
	ori 9,9,43691
.LBE3516:
.LBE3515:
	.loc 15 2264 0
	lwz 6,96(1)
.LBB3518:
.LBB3517:
	.loc 11 892 0
	mullw 9,0,9
.LBE3517:
.LBE3518:
	.loc 15 2264 0
	mr 3,30
.LBB3519:
.LBB3520:
	.loc 11 781 0
	addi 0,27,-24
.LBE3520:
.LBE3519:
	.loc 15 2264 0
	stw 31,40(1)
	mr 4,26
	stw 0,48(1)
	mr 5,25
	.loc 15 2263 0
	srawi 9,9,1
.LBE3514:
.LBE3513:
	.loc 15 2304 0
	addi 28,28,-1
.LVL370:
.LBB3542:
.LBB3541:
.LBB3521:
.LBB3522:
	.loc 11 773 0
	mulli 9,9,24
.LBE3522:
.LBE3521:
	.loc 15 2264 0
	mr 22,27
.LBB3524:
.LBB3523:
	.loc 11 773 0
	add 9,31,9
.LBE3523:
.LBE3524:
	.loc 15 2264 0
	stw 9,44(1)
	bl _ZSt19__move_median_firstIN9__gnu_cxx17__normal_iteratorIP9FileInfosSt6vectorIS2_SaIS2_EEEEPFbRKS2_S9_EEvT_SC_SC_T0_
.LVL371:
	mr 0,24
.LVL372:
.L292:
	mr 29,0
.LVL373:
.LBB3525:
.LBB3526:
	.loc 15 2233 0
	mr 3,0
	lwz 0,96(1)
.LVL374:
	mr 4,31
	mtctr 0
	bctrl
.LVL375:
	addi 0,29,24
	cmpwi 7,3,0
	bne+ 7,.L292
.LVL376:
.LBB3527:
.LBB3528:
	.loc 11 754 0
	addi 23,22,-24
.LVL377:
.L293:
.LBE3528:
.LBE3527:
	.loc 15 2236 0
	lwz 0,96(1)
	mr 4,23
	mr 3,31
	.loc 15 2233 0
	mr 22,23
.LVL378:
	.loc 15 2236 0
	mtctr 0
	addi 23,23,-24
.LVL379:
	bctrl
.LVL380:
	cmpwi 7,3,0
	bne+ 7,.L293
.LVL381:
	.loc 15 2238 0
	cmplw 7,29,22
	bge- 7,.L303
.LVL382:
.LBB3529:
.LBB3530:
.LBB3531:
.LBB3532:
.LBB3533:
	.loc 12 128 0
	lwz 5,0(22)
	lwz 6,4(22)
	lwz 9,8(22)
	lwz 0,12(22)
	.loc 12 127 0
	lwz 7,0(29)
	lwz 8,4(29)
	lwz 10,8(29)
	lwz 11,12(29)
	.loc 12 128 0
	stw 9,8(29)
	stw 0,12(29)
	stw 5,0(29)
	stw 6,4(29)
	.loc 12 127 0
	lwz 0,20(29)
	lwz 9,16(29)
	.loc 12 128 0
	lwz 5,16(22)
	lwz 6,20(22)
	.loc 12 127 0
	stw 0,28(1)
	.loc 12 128 0
	stw 5,16(29)
	stw 6,20(29)
	.loc 12 127 0
	stw 7,8(1)
	.loc 12 129 0
	stw 0,20(22)
.LVL383:
.LBE3533:
.LBE3532:
.LBE3531:
.LBE3530:
.LBE3529:
.LBB3538:
.LBB3539:
	.loc 11 742 0
	addi 0,29,24
.LVL384:
.LBE3539:
.LBE3538:
.LBB3540:
.LBB3537:
.LBB3536:
.LBB3535:
.LBB3534:
	.loc 12 127 0
	stw 8,12(1)
	stw 10,16(1)
	stw 11,20(1)
	stw 9,24(1)
	.loc 12 129 0
	stw 7,0(22)
	stw 8,4(22)
	stw 10,8(22)
	stw 11,12(22)
	stw 9,16(22)
	b .L292
.LVL385:
.L303:
.LBE3534:
.LBE3535:
.LBE3536:
.LBE3537:
.LBE3540:
.LBE3526:
.LBE3525:
.LBE3541:
.LBE3542:
	.loc 15 2307 0
	lwz 6,96(1)
	mr 3,30
	mr 4,26
	mr 5,28
	stw 29,40(1)
	stw 27,44(1)
	bl _ZSt16__introsort_loopIN9__gnu_cxx17__normal_iteratorIP9FileInfosSt6vectorIS2_SaIS2_EEEEiPFbRKS2_S9_EEvT_SC_T0_T1_
.LVL386:
.LBE3512:
.LBB3557:
.LBB3511:
	.loc 11 892 0
	subf 0,31,29
.LBE3511:
.LBE3557:
	.loc 15 2297 0
	cmpwi 7,0,407
	ble- 7,.L287
.LBB3558:
	.loc 15 2299 0
	cmpwi 7,28,0
	beq- 7,.L297
	mr 27,29
.LVL387:
	b .L290
.LVL388:
.L299:
	addi 30,1,40
	addi 26,1,44
	addi 25,1,48
.LVL389:
.L297:
.LBB3543:
.LBB3544:
	.loc 15 5295 0
	lwz 6,96(1)
	mr 3,30
	mr 4,26
	mr 5,25
	stw 31,40(1)
	stw 29,44(1)
	stw 29,48(1)
	bl _ZSt13__heap_selectIN9__gnu_cxx17__normal_iteratorIP9FileInfosSt6vectorIS2_SaIS2_EEEEPFbRKS2_S9_EEvT_SC_SC_T0_
.LVL390:
	mr 7,29
.LVL391:
.L291:
.LBB3545:
.LBB3546:
.LBB3547:
.LBB3548:
	.loc 16 333 0
	lwz 5,0(31)
.LBB3549:
.LBB3550:
	.loc 15 2293 0
	addi 29,7,-24
.LBE3550:
.LBE3549:
	.loc 16 333 0
	lwz 6,4(31)
.LBB3553:
.LBB3551:
	.loc 11 892 0
	subf 28,31,29
.LBE3551:
.LBE3553:
	.loc 16 333 0
	lwz 9,8(31)
	.loc 16 334 0
	mr 3,30
	.loc 16 333 0
	lwz 0,12(31)
	.loc 16 332 0
	lwz 12,-24(7)
	lwz 8,-20(7)
	.loc 16 333 0
	stw 5,-24(7)
.LBB3554:
.LBB3552:
	.loc 11 892 0
	srawi 5,28,3
.LBE3552:
.LBE3554:
	.loc 16 332 0
	lwz 10,-16(7)
	lwz 11,-12(7)
	.loc 16 333 0
	stw 9,-16(7)
	stw 0,-12(7)
	.loc 16 334 0
	lis 0,0xaaaa
	.loc 16 333 0
	stw 6,-20(7)
	.loc 16 334 0
	ori 0,0,43691
	mullw 5,5,0
	.loc 16 332 0
	lwz 9,-8(7)
	.loc 16 333 0
	lwz 4,16(31)
	lwz 6,20(31)
	.loc 16 332 0
	lwz 0,-4(7)
	.loc 16 333 0
	stw 4,-8(7)
	.loc 16 334 0
	li 4,0
	.loc 16 333 0
	stw 6,-4(7)
	.loc 16 334 0
	addi 6,1,64
	lwz 7,96(1)
	.loc 16 332 0
	stw 12,8(1)
	stw 8,12(1)
	stw 10,16(1)
	stw 11,20(1)
	stw 9,24(1)
	stw 0,28(1)
.LVL392:
	.loc 16 334 0
	stw 31,40(1)
	stw 12,64(1)
	stw 8,68(1)
	stw 10,72(1)
	stw 11,76(1)
	stw 9,80(1)
	stw 0,84(1)
	bl _ZSt13__adjust_heapIN9__gnu_cxx17__normal_iteratorIP9FileInfosSt6vectorIS2_SaIS2_EEEEiS2_PFbRKS2_S9_EEvT_T0_SD_T1_T2_
.LVL393:
.LBE3548:
.LBE3547:
	.loc 16 492 0
	cmpwi 7,28,47
.LBB3556:
.LBB3555:
	.loc 16 334 0
	mr 7,29
.LBE3555:
.LBE3556:
	.loc 16 492 0
	bgt+ 7,.L291
.LVL394:
.L287:
.LBE3546:
.LBE3545:
.LBE3544:
.LBE3543:
.LBE3558:
.LBE3560:
	.loc 15 2310 0
	lwz 0,156(1)
	lwz 22,112(1)
	mtlr 0
	lwz 23,116(1)
	lwz 24,120(1)
	lwz 25,124(1)
	lwz 26,128(1)
	lwz 27,132(1)
	lwz 28,136(1)
	lwz 29,140(1)
	lwz 30,144(1)
	lwz 31,148(1)
	addi 1,1,152
.LCFI38:
	.cfi_def_cfa_offset 0
	.cfi_restore 31
	.cfi_restore 30
	.cfi_restore 29
	.cfi_restore 28
	.cfi_restore 27
	.cfi_restore 26
	.cfi_restore 25
	.cfi_restore 24
	.cfi_restore 23
	.cfi_restore 22
	blr
	.cfi_endproc
.LFE1094:
	.size	_ZSt16__introsort_loopIN9__gnu_cxx17__normal_iteratorIP9FileInfosSt6vectorIS2_SaIS2_EEEEiPFbRKS2_S9_EEvT_SC_T0_T1_, .-_ZSt16__introsort_loopIN9__gnu_cxx17__normal_iteratorIP9FileInfosSt6vectorIS2_SaIS2_EEEEiPFbRKS2_S9_EEvT_SC_T0_T1_
	.section	".text"
	.align 2
	.globl _ZN7DirList8SortListEPFbRK9FileInfosS2_E
	.type	_ZN7DirList8SortListEPFbRK9FileInfosS2_E, @function
_ZN7DirList8SortListEPFbRK9FileInfosS2_E:
.LFB988:
	.loc 1 214 0
	.cfi_startproc
.LVL395:
	mflr 0
	stwu 1,-72(1)
.LCFI39:
	.cfi_def_cfa_offset 72
	.cfi_register 65, 0
	stw 30,64(1)
	stw 0,76(1)
.LBB3594:
.LBB3595:
	.loc 2 571 0
	lis 0,0xaaaa
	.cfi_offset 65, 4
	.cfi_offset 30, -8
.LBE3595:
.LBE3594:
	.loc 1 214 0
	stw 31,68(1)
.LBB3600:
.LBB3596:
	.loc 2 571 0
	ori 0,0,43691
.LBE3596:
.LBE3600:
.LBB3601:
.LBB3602:
.LBB3603:
.LBB3604:
.LBB3605:
.LBB3606:
.LBB3607:
.LBB3608:
.LBB3609:
.LBB3610:
.LBB3611:
	.loc 1 231 0
	lwz 30,0(3)
	lwz 31,4(3)
	.cfi_offset 31, -4
.LBE3611:
.LBE3610:
.LBE3609:
.LBE3608:
.LBE3607:
.LBE3606:
.LBE3605:
.LBE3604:
.LBE3603:
.LBE3602:
.LBE3601:
	.loc 1 214 0
	stw 29,60(1)
.LBB3635:
.LBB3597:
	.loc 2 571 0
	subf 29,30,31
	.cfi_offset 29, -12
.LBE3597:
.LBE3635:
	.loc 1 214 0
	stw 28,56(1)
.LBB3636:
.LBB3598:
	.loc 2 571 0
	srawi 5,29,3
.LBE3598:
.LBE3636:
	.loc 1 214 0
	stw 4,48(1)
.LBB3637:
.LBB3599:
	.loc 2 571 0
	mullw 5,5,0
.LBE3599:
.LBE3637:
	.loc 1 215 0
	cmplwi 7,5,1
	ble- 7,.L304
	.cfi_offset 28, -16
.LVL396:
.LBB3638:
.LBB3633:
	.loc 15 5443 0
	cmpw 7,30,31
	beq- 7,.L304
.LVL397:
.LBB3627:
.LBB3628:
	.loc 5 982 0
	cntlzw 5,5
.LBE3628:
.LBE3627:
	.loc 15 5445 0
	lwz 6,48(1)
.LBB3630:
.LBB3629:
	.loc 5 982 0
	subfic 5,5,31
.LBE3629:
.LBE3630:
	.loc 15 5445 0
	addi 3,1,40
.LVL398:
	addi 4,1,44
.LVL399:
	slwi 5,5,1
	stw 30,40(1)
	stw 31,44(1)
	bl _ZSt16__introsort_loopIN9__gnu_cxx17__normal_iteratorIP9FileInfosSt6vectorIS2_SaIS2_EEEEiPFbRKS2_S9_EEvT_SC_T0_T1_
.LVL400:
.LBB3631:
.LBB3625:
	.loc 15 2194 0
	cmpwi 7,29,407
	ble- 7,.L306
.LVL401:
	.loc 15 2196 0
	lwz 5,48(1)
.LBB3622:
.LBB3623:
	.loc 11 773 0
	addi 29,30,384
.LVL402:
.LBE3623:
.LBE3622:
	.loc 15 2196 0
	addi 3,1,40
	addi 4,1,44
	stw 30,40(1)
	stw 29,44(1)
	bl _ZSt16__insertion_sortIN9__gnu_cxx17__normal_iteratorIP9FileInfosSt6vectorIS2_SaIS2_EEEEPFbRKS2_S9_EEvT_SC_T0_
.LVL403:
.LBB3624:
.LBB3621:
.LBB3620:
	.loc 15 2163 0
	cmpw 7,31,29
	beq- 7,.L304
.LVL404:
.L309:
.LBB3617:
.LBB3614:
	.loc 15 2084 0
	lwz 9,8(29)
.LBE3614:
.LBE3617:
	.loc 15 2163 0
	mr 28,29
.LVL405:
.LBB3618:
.LBB3615:
	.loc 15 2084 0
	lwz 0,12(29)
	.loc 1 213 0
	addi 30,29,-24
	.loc 15 2084 0
	lwz 10,0(29)
	lwz 11,4(29)
	stw 10,8(1)
	stw 11,12(1)
	stw 9,16(1)
	stw 0,20(1)
	lwz 9,16(29)
	lwz 0,20(29)
	stw 9,24(1)
	stw 0,28(1)
.LVL406:
	b .L307
.LVL407:
.L308:
	.loc 15 2089 0
	lwz 9,8(30)
	lwz 0,12(30)
	lwz 10,0(30)
	lwz 11,4(30)
	stw 10,0(28)
	stw 11,4(28)
	stw 9,8(28)
	stw 0,12(28)
	lwz 9,16(30)
	lwz 0,20(30)
	stw 9,16(28)
	stw 0,20(28)
.LVL408:
.LBB3613:
.LBB3612:
	.loc 11 754 0
	mr 28,30
	addi 30,30,-24
.LVL409:
.L307:
.LBE3612:
.LBE3613:
	.loc 15 2087 0
	lwz 0,48(1)
	mr 4,30
	addi 3,1,8
	mtctr 0
	bctrl
	cmpwi 7,3,0
	bne+ 7,.L308
.LVL410:
	.loc 15 2093 0
	lwz 9,16(1)
	addi 29,29,24
	lwz 0,20(1)
.LBE3615:
.LBE3618:
	.loc 15 2163 0
	cmpw 7,31,29
.LBB3619:
.LBB3616:
	.loc 15 2093 0
	lwz 11,12(1)
	lwz 10,8(1)
	stw 11,4(28)
	stw 10,0(28)
	stw 9,8(28)
	stw 0,12(28)
	lwz 0,28(1)
	lwz 9,24(1)
	stw 0,20(28)
	stw 9,16(28)
.LVL411:
.LBE3616:
.LBE3619:
	.loc 15 2163 0
	bne+ 7,.L309
.LVL412:
.L304:
.LBE3620:
.LBE3621:
.LBE3624:
.LBE3625:
.LBE3631:
.LBE3633:
.LBE3638:
	.loc 1 217 0
	lwz 0,76(1)
	lwz 28,56(1)
	mtlr 0
	lwz 29,60(1)
	lwz 30,64(1)
	lwz 31,68(1)
	addi 1,1,72
	.cfi_remember_state
.LCFI40:
	.cfi_def_cfa_offset 0
	.cfi_restore 31
	.cfi_restore 30
	.cfi_restore 29
	.cfi_restore 28
	blr
.LVL413:
.L306:
.LCFI41:
	.cfi_restore_state
.LBB3639:
.LBB3634:
.LBB3632:
.LBB3626:
	.loc 15 2201 0
	lwz 5,48(1)
	addi 3,1,40
	addi 4,1,44
	stw 30,40(1)
	stw 31,44(1)
	bl _ZSt16__insertion_sortIN9__gnu_cxx17__normal_iteratorIP9FileInfosSt6vectorIS2_SaIS2_EEEEPFbRKS2_S9_EEvT_SC_T0_
.LBE3626:
.LBE3632:
.LBE3634:
.LBE3639:
	.loc 1 217 0
	lwz 0,76(1)
	lwz 28,56(1)
	mtlr 0
	lwz 29,60(1)
.LVL414:
	lwz 30,64(1)
.LVL415:
	lwz 31,68(1)
	addi 1,1,72
	.cfi_restore 28
	.cfi_restore 29
	.cfi_restore 30
	.cfi_restore 31
.LCFI42:
	.cfi_def_cfa_offset 0
	blr
	.cfi_endproc
.LFE988:
	.size	_ZN7DirList8SortListEPFbRK9FileInfosS2_E, .-_ZN7DirList8SortListEPFbRK9FileInfosS2_E
	.align 2
	.globl _ZN7DirList8SortListEv
	.type	_ZN7DirList8SortListEv, @function
_ZN7DirList8SortListEv:
.LFB987:
	.loc 1 208 0
	.cfi_startproc
.LVL416:
	mflr 0
	stwu 1,-80(1)
.LCFI43:
	.cfi_def_cfa_offset 80
	.cfi_register 65, 0
	stw 30,72(1)
	stw 0,84(1)
.LBB3683:
.LBB3684:
	.loc 2 571 0
	lis 0,0xaaaa
	.cfi_offset 65, 4
	.cfi_offset 30, -8
.LBE3684:
.LBE3683:
	.loc 1 208 0
	stw 31,76(1)
.LBB3689:
.LBB3685:
	.loc 2 571 0
	ori 0,0,43691
.LBE3685:
.LBE3689:
.LBB3690:
.LBB3691:
.LBB3692:
.LBB3693:
.LBB3694:
.LBB3695:
.LBB3696:
.LBB3697:
.LBB3698:
	.loc 1 231 0
	lwz 30,0(3)
	lwz 31,4(3)
	.cfi_offset 31, -4
.LBE3698:
.LBE3697:
.LBE3696:
.LBE3695:
.LBE3694:
.LBE3693:
.LBE3692:
.LBE3691:
.LBE3690:
	.loc 1 208 0
	stw 29,68(1)
.LBB3763:
.LBB3686:
	.loc 2 571 0
	subf 29,30,31
	.cfi_offset 29, -12
.LBE3686:
.LBE3763:
	.loc 1 208 0
	stw 24,48(1)
.LBB3764:
.LBB3687:
	.loc 2 571 0
	srawi 5,29,3
.LBE3687:
.LBE3764:
	.loc 1 208 0
	stw 25,52(1)
.LBB3765:
.LBB3688:
	.loc 2 571 0
	mullw 5,5,0
.LBE3688:
.LBE3765:
	.loc 1 208 0
	stw 26,56(1)
	stw 27,60(1)
	stw 28,64(1)
	.loc 1 209 0
	cmplwi 7,5,1
	ble- 7,.L311
	.cfi_offset 28, -16
	.cfi_offset 27, -20
	.cfi_offset 26, -24
	.cfi_offset 25, -28
	.cfi_offset 24, -32
.LVL417:
.LBB3766:
.LBB3761:
	.loc 15 5443 0
	cmpw 7,30,31
	beq- 7,.L311
.LVL418:
.LBB3755:
.LBB3756:
	.loc 5 982 0
	cntlzw 5,5
.LBE3756:
.LBE3755:
	.loc 15 5445 0
	lis 28,_ZL12SortCallbackRK9FileInfosS1_@ha
.LBB3758:
.LBB3757:
	.loc 5 982 0
	subfic 5,5,31
.LBE3757:
.LBE3758:
	.loc 15 5445 0
	la 28,_ZL12SortCallbackRK9FileInfosS1_@l(28)
	addi 3,1,40
.LVL419:
	addi 4,1,44
	slwi 5,5,1
	mr 6,28
	stw 30,40(1)
	stw 31,44(1)
	bl _ZSt16__introsort_loopIN9__gnu_cxx17__normal_iteratorIP9FileInfosSt6vectorIS2_SaIS2_EEEEiPFbRKS2_S9_EEvT_SC_T0_T1_
.LVL420:
.LBB3759:
.LBB3753:
	.loc 15 2194 0
	cmpwi 7,29,407
	ble- 7,.L313
.LVL421:
.LBB3749:
.LBB3750:
	.loc 11 773 0
	addi 29,30,384
.LVL422:
.LBE3750:
.LBE3749:
	.loc 15 2196 0
	addi 3,1,40
	addi 4,1,44
	mr 5,28
	stw 30,40(1)
	stw 29,44(1)
	bl _ZSt16__insertion_sortIN9__gnu_cxx17__normal_iteratorIP9FileInfosSt6vectorIS2_SaIS2_EEEEPFbRKS2_S9_EEvT_SC_T0_
.LVL423:
.LBB3751:
.LBB3747:
.LBB3745:
	.loc 15 2163 0
	cmpw 7,31,29
	beq- 7,.L311
	.loc 1 207 0
	addi 25,30,360
.LVL424:
.L325:
.LBB3740:
.LBB3735:
	.loc 15 2084 0
	lbz 24,16(29)
.LBE3735:
.LBE3740:
	.loc 15 2163 0
	mr 28,29
.LVL425:
.LBB3741:
.LBB3736:
	.loc 15 2084 0
	lwz 9,16(29)
.LBB3699:
.LBB3700:
	.loc 11 754 0
	cmpwi 7,24,0
.LBE3700:
.LBE3699:
	.loc 15 2084 0
	lwz 27,0(29)
	lwz 8,4(29)
	lwz 10,8(29)
	lwz 11,12(29)
	lwz 0,20(29)
	stw 9,24(1)
.LBB3704:
.LBB3701:
	.loc 11 754 0
	mr 9,25
.LBE3701:
.LBE3704:
	.loc 15 2084 0
	stw 27,8(1)
	stw 8,12(1)
	stw 10,16(1)
	stw 11,20(1)
	stw 0,28(1)
.LVL426:
.LBB3705:
.LBB3702:
	.loc 11 754 0
	beq- 7,.L314
	cmpwi 7,27,0
	mr 30,25
	bne+ 7,.L329
	b .L331
.LVL427:
.L322:
.LBE3702:
.LBE3705:
	.loc 15 2089 0
	lwz 9,8(30)
	lwz 0,12(30)
	lwz 10,0(30)
	lwz 11,4(30)
	stw 10,0(28)
	stw 11,4(28)
	stw 9,8(28)
	stw 0,12(28)
	lwz 9,16(30)
	lwz 0,20(30)
	addi 30,30,-24
	stw 9,16(28)
	stw 0,20(28)
.LVL428:
	mr 28,26
.LVL429:
.L329:
.LBB3706:
.LBB3707:
	.loc 1 195 0
	lbz 0,16(30)
.LBB3708:
.LBB3709:
	.loc 1 201 0
	mr 3,27
.LBE3709:
.LBE3708:
.LBE3707:
.LBE3706:
	.loc 15 2089 0
	mr 26,30
.LVL430:
.LBB3724:
.LBB3720:
	.loc 1 195 0
	cmpwi 7,0,0
	beq- 7,.L322
	.loc 1 198 0
	lwz 0,0(30)
	cmpwi 7,0,0
.LBB3715:
.LBB3710:
	.loc 1 201 0
	mr 4,0
.LBE3710:
.LBE3715:
	.loc 1 198 0
	beq- 7,.L322
.LVL431:
.LBB3716:
.LBB3711:
	.loc 1 201 0
	bl strcasecmp
.LBE3711:
.LBE3716:
.LBE3720:
.LBE3724:
	.loc 15 2087 0
	cmpwi 7,3,0
	ble+ 7,.L322
	b .L324
.LVL432:
.L313:
.LBE3736:
.LBE3741:
.LBE3745:
.LBE3747:
.LBE3751:
	.loc 15 2201 0
	addi 3,1,40
	addi 4,1,44
	mr 5,28
	stw 30,40(1)
	stw 31,44(1)
	bl _ZSt16__insertion_sortIN9__gnu_cxx17__normal_iteratorIP9FileInfosSt6vectorIS2_SaIS2_EEEEPFbRKS2_S9_EEvT_SC_T0_
.LVL433:
.L311:
.LBE3753:
.LBE3759:
.LBE3761:
.LBE3766:
	.loc 1 211 0
	lwz 0,84(1)
	lwz 24,48(1)
	mtlr 0
	lwz 25,52(1)
	lwz 26,56(1)
	lwz 27,60(1)
	lwz 28,64(1)
	lwz 29,68(1)
	lwz 30,72(1)
	lwz 31,76(1)
	addi 1,1,80
	.cfi_remember_state
.LCFI44:
	.cfi_def_cfa_offset 0
	.cfi_restore 31
	.cfi_restore 30
	.cfi_restore 29
	.cfi_restore 28
	.cfi_restore 27
	.cfi_restore 26
	.cfi_restore 25
	.cfi_restore 24
	blr
.LVL434:
.L332:
.LCFI45:
	.cfi_restore_state
.LBB3767:
.LBB3762:
.LBB3760:
.LBB3754:
.LBB3752:
.LBB3748:
.LBB3746:
.LBB3742:
.LBB3737:
	.loc 15 2089 0
	lwz 11,8(9)
	lwz 0,12(9)
	lwz 8,0(9)
	lwz 10,4(9)
	stw 8,0(28)
	stw 10,4(28)
	stw 11,8(28)
	stw 0,12(28)
	lwz 11,16(9)
	lwz 0,20(9)
	stw 11,16(28)
	stw 0,20(28)
.LVL435:
.LBB3725:
.LBB3726:
	.loc 11 754 0
	mr 28,9
	addi 9,9,-24
.LVL436:
.L331:
.LBE3726:
.LBE3725:
.LBB3729:
.LBB3721:
	.loc 1 195 0
	lbz 0,16(9)
	cmpwi 7,0,0
	beq- 7,.L332
.LVL437:
.L324:
.LBE3721:
.LBE3729:
	.loc 15 2093 0
	lwz 0,24(1)
	addi 29,29,24
.LBE3737:
.LBE3742:
	.loc 15 2163 0
	cmpw 7,31,29
.LBB3743:
.LBB3738:
	.loc 15 2093 0
	stw 27,0(28)
	stw 0,16(28)
	addi 25,25,24
	lwz 0,12(1)
	stb 24,16(28)
.LVL438:
	stw 0,4(28)
	lwz 0,16(1)
	stw 0,8(28)
	lwz 0,20(1)
	stw 0,12(28)
	lwz 0,28(1)
	stw 0,20(28)
.LBE3738:
.LBE3743:
	.loc 15 2163 0
	bne+ 7,.L325
.LVL439:
	b .L311
.LVL440:
.L314:
.LBB3744:
.LBB3739:
.LBB3730:
.LBB3727:
	.loc 11 754 0
	cmpwi 7,27,0
.LBE3727:
.LBE3730:
.LBB3731:
.LBB3703:
	mr 30,25
.LBE3703:
.LBE3731:
.LBB3732:
.LBB3728:
	bne+ 7,.L330
	b .L324
.LVL441:
.L333:
.LBE3728:
.LBE3732:
.LBB3733:
.LBB3722:
	.loc 1 198 0
	lwz 0,0(30)
	cmpwi 7,0,0
.LBB3717:
.LBB3712:
	.loc 1 201 0
	mr 4,0
.LBE3712:
.LBE3717:
	.loc 1 198 0
	beq- 7,.L320
.LVL442:
.LBB3718:
.LBB3713:
	.loc 1 201 0
	bl strcasecmp
.LBE3713:
.LBE3718:
.LBE3722:
.LBE3733:
	.loc 15 2087 0
	cmpwi 7,3,0
	bgt- 7,.L324
.LVL443:
.L320:
	.loc 15 2089 0
	lwz 9,8(30)
	lwz 0,12(30)
	lwz 10,0(30)
	lwz 11,4(30)
	stw 10,0(28)
	stw 11,4(28)
	stw 9,8(28)
	stw 0,12(28)
	lwz 9,16(30)
	lwz 0,20(30)
	addi 30,30,-24
	stw 9,16(28)
	stw 0,20(28)
.LVL444:
	mr 28,26
.LVL445:
.L330:
.LBB3734:
.LBB3723:
	.loc 1 196 0
	lbz 0,16(30)
.LBB3719:
.LBB3714:
	.loc 1 201 0
	mr 3,27
.LBE3714:
.LBE3719:
	.loc 1 196 0
	mr 26,30
.LVL446:
	cmpwi 7,0,0
	beq+ 7,.L333
	b .L324
.LBE3723:
.LBE3734:
.LBE3739:
.LBE3744:
.LBE3746:
.LBE3748:
.LBE3752:
.LBE3754:
.LBE3760:
.LBE3762:
.LBE3767:
	.cfi_endproc
.LFE987:
	.size	_ZN7DirList8SortListEv, .-_ZN7DirList8SortListEv
	.align 2
	.globl _ZN7DirListC2ESsPKcj
	.type	_ZN7DirListC2ESsPKcj, @function
_ZN7DirListC2ESsPKcj:
.LFB976:
	.loc 1 39 0
	.cfi_startproc
	.cfi_personality 0,__gxx_personality_v0
	.cfi_lsda 0,.LLSDA976
.LVL447:
	mflr 0
	stwu 1,-88(1)
.LCFI46:
	.cfi_def_cfa_offset 88
	.cfi_register 65, 0
	stw 23,52(1)
	mr 23,3
	.cfi_offset 23, -36
.LVL448:
	stw 0,92(1)
.LBB3826:
.LBB3827:
.LBB3828:
.LBB3829:
.LBB3830:
	.loc 2 83 0
	li 0,0
	.cfi_offset 65, 4
.LBE3830:
.LBE3829:
.LBE3828:
.LBE3827:
.LBE3826:
	.loc 1 39 0
	stw 24,56(1)
	stw 25,60(1)
	stw 26,64(1)
	stw 27,68(1)
	stw 28,72(1)
	stw 29,76(1)
	stw 30,80(1)
	stw 31,84(1)
.LBB3910:
.LBB3834:
.LBB3833:
.LBB3832:
.LBB3831:
	.loc 2 83 0
	stw 0,0(3)
	stw 0,4(3)
	stw 0,8(3)
.LEHB21:
.LBE3831:
.LBE3832:
.LBE3833:
.LBE3834:
	.loc 1 41 0
	.cfi_offset 31, -4
	.cfi_offset 30, -8
	.cfi_offset 29, -12
	.cfi_offset 28, -16
	.cfi_offset 27, -20
	.cfi_offset 26, -24
	.cfi_offset 25, -28
	.cfi_offset 24, -32
	bl _ZN7DirList8LoadPathERSsPKcj
.LVL449:
.LBB3835:
	.loc 1 231 0
	lwz 27,0(23)
.LBB3836:
.LBB3837:
.LBB3838:
	.loc 2 571 0
	lis 0,0xaaaa
.LBE3838:
.LBE3837:
.LBE3836:
	.loc 1 231 0
	lwz 24,4(23)
.LBB3899:
.LBB3840:
.LBB3839:
	.loc 2 571 0
	ori 0,0,43691
	subf 31,27,24
	srawi 5,31,3
	mullw 5,5,0
.LBE3839:
.LBE3840:
	.loc 1 209 0
	cmplwi 7,5,1
	ble- 7,.L334
.LVL450:
.LBB3841:
.LBB3842:
	.loc 15 5443 0
	cmpw 7,27,24
	beq- 7,.L334
.LVL451:
.LBB3843:
.LBB3844:
	.loc 5 982 0
	cntlzw 5,5
.LBE3844:
.LBE3843:
	.loc 15 5445 0
	lis 30,_ZL12SortCallbackRK9FileInfosS1_@ha
.LBB3846:
.LBB3845:
	.loc 5 982 0
	subfic 5,5,31
.LBE3845:
.LBE3846:
	.loc 15 5445 0
	la 30,_ZL12SortCallbackRK9FileInfosS1_@l(30)
	addi 3,1,40
	addi 4,1,44
	slwi 5,5,1
	mr 6,30
	stw 27,40(1)
	stw 24,44(1)
	bl _ZSt16__introsort_loopIN9__gnu_cxx17__normal_iteratorIP9FileInfosSt6vectorIS2_SaIS2_EEEEiPFbRKS2_S9_EEvT_SC_T0_T1_
.LVL452:
.LBB3847:
.LBB3848:
	.loc 15 2194 0
	cmpwi 7,31,407
	ble- 7,.L336
.LVL453:
.LBB3849:
.LBB3850:
	.loc 11 773 0
	addi 29,27,384
.LBE3850:
.LBE3849:
	.loc 15 2196 0
	addi 3,1,40
	addi 4,1,44
	mr 5,30
	stw 27,40(1)
	stw 29,44(1)
	bl _ZSt16__insertion_sortIN9__gnu_cxx17__normal_iteratorIP9FileInfosSt6vectorIS2_SaIS2_EEEEPFbRKS2_S9_EEvT_SC_T0_
.LVL454:
.LBB3851:
.LBB3852:
.LBB3853:
	.loc 15 2163 0
	cmpw 7,24,29
	beq- 7,.L334
	.loc 1 39 0
	addi 27,27,360
.LVL455:
.L348:
.LBB3854:
.LBB3855:
	.loc 15 2084 0
	lbz 26,16(29)
.LBE3855:
.LBE3854:
	.loc 15 2163 0
	mr 31,29
.LVL456:
.LBB3888:
.LBB3884:
	.loc 15 2084 0
	lwz 9,16(29)
.LBB3856:
.LBB3857:
	.loc 11 754 0
	cmpwi 7,26,0
.LBE3857:
.LBE3856:
	.loc 15 2084 0
	lwz 28,0(29)
	lwz 8,4(29)
	lwz 10,8(29)
	lwz 11,12(29)
	lwz 0,20(29)
	stw 9,24(1)
.LBB3861:
.LBB3858:
	.loc 11 754 0
	mr 9,27
.LBE3858:
.LBE3861:
	.loc 15 2084 0
	stw 28,8(1)
	stw 8,12(1)
	stw 10,16(1)
	stw 11,20(1)
	stw 0,28(1)
.LVL457:
.LBB3862:
.LBB3859:
	.loc 11 754 0
	beq- 7,.L337
	cmpwi 7,28,0
	mr 30,27
	bne+ 7,.L359
	b .L361
.LVL458:
.L345:
.LBE3859:
.LBE3862:
	.loc 15 2089 0
	lwz 9,8(30)
	lwz 0,12(30)
	lwz 10,0(30)
	lwz 11,4(30)
	stw 10,0(31)
	stw 11,4(31)
	stw 9,8(31)
	stw 0,12(31)
	lwz 9,16(30)
	lwz 0,20(30)
	addi 30,30,-24
	stw 9,16(31)
	stw 0,20(31)
.LVL459:
	mr 31,25
.LVL460:
.L359:
.LBB3863:
.LBB3864:
	.loc 1 195 0
	lbz 0,16(30)
.LBE3864:
.LBE3863:
	.loc 15 2089 0
	mr 25,30
.LVL461:
.LBB3873:
.LBB3869:
	.loc 1 195 0
	cmpwi 7,0,0
	beq- 7,.L345
	.loc 1 198 0
	lwz 4,0(30)
	cmpwi 7,4,0
	beq- 7,.L345
.LVL462:
.LBB3865:
.LBB3866:
	.loc 1 201 0
	mr 3,28
	bl strcasecmp
.LBE3866:
.LBE3865:
.LBE3869:
.LBE3873:
	.loc 15 2087 0
	cmpwi 7,3,0
	ble+ 7,.L345
	b .L347
.LVL463:
.L336:
.LBE3884:
.LBE3888:
.LBE3853:
.LBE3852:
.LBE3851:
	.loc 15 2201 0
	addi 3,1,40
	addi 4,1,44
	mr 5,30
	stw 27,40(1)
	stw 24,44(1)
	bl _ZSt16__insertion_sortIN9__gnu_cxx17__normal_iteratorIP9FileInfosSt6vectorIS2_SaIS2_EEEEPFbRKS2_S9_EEvT_SC_T0_
.LVL464:
.L334:
.LBE3848:
.LBE3847:
.LBE3842:
.LBE3841:
.LBE3899:
.LBE3835:
.LBE3910:
	.loc 1 43 0
	lwz 0,92(1)
	lwz 23,52(1)
.LVL465:
	mtlr 0
	lwz 24,56(1)
	lwz 25,60(1)
	lwz 26,64(1)
	lwz 27,68(1)
	lwz 28,72(1)
	lwz 29,76(1)
	lwz 30,80(1)
	lwz 31,84(1)
	addi 1,1,88
	.cfi_remember_state
.LCFI47:
	.cfi_def_cfa_offset 0
	.cfi_restore 31
	.cfi_restore 30
	.cfi_restore 29
	.cfi_restore 28
	.cfi_restore 27
	.cfi_restore 26
	.cfi_restore 25
	.cfi_restore 24
	.cfi_restore 23
	blr
.LVL466:
.L362:
.LCFI48:
	.cfi_restore_state
.LBB3911:
.LBB3901:
.LBB3900:
.LBB3898:
.LBB3897:
.LBB3896:
.LBB3895:
.LBB3894:
.LBB3893:
.LBB3892:
.LBB3889:
.LBB3885:
	.loc 15 2089 0
	lwz 11,8(9)
	lwz 0,12(9)
	lwz 8,0(9)
	lwz 10,4(9)
	stw 8,0(31)
	stw 10,4(31)
	stw 11,8(31)
	stw 0,12(31)
	lwz 11,16(9)
	lwz 0,20(9)
	stw 11,16(31)
	stw 0,20(31)
.LVL467:
.LBB3874:
.LBB3875:
	.loc 11 754 0
	mr 31,9
	addi 9,9,-24
.LVL468:
.L361:
.LBE3875:
.LBE3874:
.LBB3878:
.LBB3870:
	.loc 1 195 0
	lbz 0,16(9)
	cmpwi 7,0,0
	beq- 7,.L362
.LVL469:
.L347:
.LBE3870:
.LBE3878:
	.loc 15 2093 0
	lwz 0,24(1)
	addi 29,29,24
.LBE3885:
.LBE3889:
	.loc 15 2163 0
	cmpw 7,24,29
.LBB3890:
.LBB3886:
	.loc 15 2093 0
	stw 28,0(31)
	stw 0,16(31)
	addi 27,27,24
	lwz 0,12(1)
	stb 26,16(31)
.LVL470:
	stw 0,4(31)
	lwz 0,16(1)
	stw 0,8(31)
	lwz 0,20(1)
	stw 0,12(31)
	lwz 0,28(1)
	stw 0,20(31)
.LBE3886:
.LBE3890:
	.loc 15 2163 0
	bne+ 7,.L348
.LVL471:
	b .L334
.LVL472:
.L337:
.LBB3891:
.LBB3887:
.LBB3879:
.LBB3876:
	.loc 11 754 0
	cmpwi 7,28,0
.LBE3876:
.LBE3879:
.LBB3880:
.LBB3860:
	mr 30,27
.LBE3860:
.LBE3880:
.LBB3881:
.LBB3877:
	bne+ 7,.L360
	b .L347
.LVL473:
.L363:
.LBE3877:
.LBE3881:
.LBB3882:
.LBB3871:
	.loc 1 198 0
	lwz 4,0(30)
	cmpwi 7,4,0
	beq- 7,.L343
.LVL474:
.LBB3868:
.LBB3867:
	.loc 1 201 0
	mr 3,28
	bl strcasecmp
.LEHE21:
.LBE3867:
.LBE3868:
.LBE3871:
.LBE3882:
	.loc 15 2087 0
	cmpwi 7,3,0
	bgt- 7,.L347
.LVL475:
.L343:
	.loc 15 2089 0
	lwz 9,8(30)
	lwz 0,12(30)
	lwz 10,0(30)
	lwz 11,4(30)
	stw 10,0(31)
	stw 11,4(31)
	stw 9,8(31)
	stw 0,12(31)
	lwz 9,16(30)
	lwz 0,20(30)
	addi 30,30,-24
	stw 9,16(31)
	stw 0,20(31)
.LVL476:
	mr 31,25
.LVL477:
.L360:
.LBB3883:
.LBB3872:
	.loc 1 196 0
	lbz 0,16(30)
	mr 25,30
.LVL478:
	cmpwi 7,0,0
	beq+ 7,.L363
	b .L347
.LVL479:
.L357:
.LBE3872:
.LBE3883:
.LBE3887:
.LBE3891:
.LBE3892:
.LBE3893:
.LBE3894:
.LBE3895:
.LBE3896:
.LBE3897:
.LBE3898:
.LBE3900:
.LBE3901:
.LBB3902:
	.loc 1 231 0
	lwz 0,0(23)
	mr 31,3
.LVL480:
.LBB3903:
.LBB3904:
.LBB3905:
.LBB3906:
.LBB3907:
	.loc 2 155 0
	cmpwi 7,0,0
	beq- 7,.L354
.LVL481:
.LBB3908:
.LBB3909:
	.loc 6 98 0
	mr 3,0
	bl _ZdlPv
.LVL482:
.L354:
	mr 3,31
.LEHB22:
	bl _Unwind_Resume
.LEHE22:
.LBE3909:
.LBE3908:
.LBE3907:
.LBE3906:
.LBE3905:
.LBE3904:
.LBE3903:
.LBE3902:
.LBE3911:
	.cfi_endproc
.LFE976:
	.section	.gcc_except_table
.LLSDA976:
	.byte	0xff
	.byte	0xff
	.byte	0x1
	.uleb128 .LLSDACSE976-.LLSDACSB976
.LLSDACSB976:
	.uleb128 .LEHB21-.LFB976
	.uleb128 .LEHE21-.LEHB21
	.uleb128 .L357-.LFB976
	.uleb128 0
	.uleb128 .LEHB22-.LFB976
	.uleb128 .LEHE22-.LEHB22
	.uleb128 0
	.uleb128 0
.LLSDACSE976:
	.section	".text"
	.size	_ZN7DirListC2ESsPKcj, .-_ZN7DirListC2ESsPKcj
	.globl _ZN7DirListD1Ev
	.set	_ZN7DirListD1Ev,_ZN7DirListD2Ev
	.globl _ZN7DirListC1ESsPKcj
	.set	_ZN7DirListC1ESsPKcj,_ZN7DirListC2ESsPKcj
	.section	.rodata.str1.4,"aMS",@progbits,1
	.align 2
.LC0:
	.string	"vector::_M_fill_insert"
	.zero	1
.LC1:
	.string	"basic_string::erase"
.LC2:
	.string	"%s/%s"
	.zero	2
.LC3:
	.string	"%s%s"
	.zero	3
.LC4:
	.string	"."
	.zero	2
.LC5:
	.string	".."
	.zero	1
.LC6:
	.string	","
	.zero	2
.LC7:
	.string	".dol,.elf"
	.section	".text"
.Letext0:
	.file 17 "<built-in>"
	.file 18 "d:\\devkitpro\\devkitppc\\bin\\../lib/gcc/powerpc-eabi/4.6.3/include/stddef.h"
	.file 19 "d:\\devkitpro\\devkitppc\\bin\\../lib/gcc/powerpc-eabi/4.6.3/../../../../powerpc-eabi/include/machine/_types.h"
	.file 20 "d:\\devkitpro\\devkitppc\\bin\\../lib/gcc/powerpc-eabi/4.6.3/../../../../powerpc-eabi/include/sys/lock.h"
	.file 21 "d:\\devkitpro\\devkitppc\\bin\\../lib/gcc/powerpc-eabi/4.6.3/../../../../powerpc-eabi/include/sys/_types.h"
	.file 22 "d:\\devkitpro\\devkitppc\\bin\\../lib/gcc/powerpc-eabi/4.6.3/../../../../powerpc-eabi/include/sys/reent.h"
	.file 23 "d:\\devkitpro\\devkitppc\\bin\\../lib/gcc/powerpc-eabi/4.6.3/../../../../powerpc-eabi/include/sys/types.h"
	.file 24 "d:\\devkitpro\\devkitppc\\bin\\../lib/gcc/powerpc-eabi/4.6.3/../../../../powerpc-eabi/include/stdlib.h"
	.file 25 "d:\\devkitpro\\devkitppc\\bin\\../lib/gcc/powerpc-eabi/4.6.3/../../../../powerpc-eabi/include/c++/4.6.3/cstdlib"
	.file 26 "d:\\devkitpro\\devkitppc\\bin\\../lib/gcc/powerpc-eabi/4.6.3/../../../../powerpc-eabi/include/c++/4.6.3/cwchar"
	.file 27 "d:\\devkitpro\\devkitppc\\bin\\../lib/gcc/powerpc-eabi/4.6.3/../../../../powerpc-eabi/include/c++/4.6.3/powerpc-eabi/bits/c++config.h"
	.file 28 "d:\\devkitpro\\devkitppc\\bin\\../lib/gcc/powerpc-eabi/4.6.3/../../../../powerpc-eabi/include/c++/4.6.3/clocale"
	.file 29 "d:\\devkitpro\\devkitppc\\bin\\../lib/gcc/powerpc-eabi/4.6.3/../../../../powerpc-eabi/include/c++/4.6.3/bits/stringfwd.h"
	.file 30 "d:\\devkitpro\\devkitppc\\bin\\../lib/gcc/powerpc-eabi/4.6.3/../../../../powerpc-eabi/include/c++/4.6.3/bits/cpp_type_traits.h"
	.file 31 "d:\\devkitpro\\devkitppc\\bin\\../lib/gcc/powerpc-eabi/4.6.3/../../../../powerpc-eabi/include/c++/4.6.3/debug/debug.h"
	.file 32 "d:\\devkitpro\\devkitppc\\bin\\../lib/gcc/powerpc-eabi/4.6.3/../../../../powerpc-eabi/include/c++/4.6.3/ext/numeric_traits.h"
	.file 33 "d:\\devkitpro\\devkitppc\\bin\\../lib/gcc/powerpc-eabi/4.6.3/../../../../powerpc-eabi/include/time.h"
	.file 34 "d:\\devkitpro\\devkitppc\\bin\\../lib/gcc/powerpc-eabi/4.6.3/../../../../powerpc-eabi/include/sys/stat.h"
	.file 35 "d:\\devkitpro\\devkitppc\\bin\\../lib/gcc/powerpc-eabi/4.6.3/../../../../powerpc-eabi/include/sys/iosupport.h"
	.file 36 "d:\\devkitpro\\devkitppc\\bin\\../lib/gcc/powerpc-eabi/4.6.3/../../../../powerpc-eabi/include/sys/dirent.h"
	.file 37 "d:\\devkitpro\\devkitppc\\bin\\../lib/gcc/powerpc-eabi/4.6.3/../../../../powerpc-eabi/include/stdint.h"
	.file 38 "d:/devkitPro/libogc/include/gctypes.h"
	.file 39 "d:\\devkitpro\\devkitppc\\bin\\../lib/gcc/powerpc-eabi/4.6.3/../../../../powerpc-eabi/include/wchar.h"
	.file 40 "d:\\devkitpro\\devkitppc\\bin\\../lib/gcc/powerpc-eabi/4.6.3/../../../../powerpc-eabi/include/c++/4.6.3/bits/allocator.h"
	.file 41 "d:\\devkitpro\\devkitppc\\bin\\../lib/gcc/powerpc-eabi/4.6.3/../../../../powerpc-eabi/include/locale.h"
	.file 42 "d:\\devkitpro\\devkitppc\\bin\\../lib/gcc/powerpc-eabi/4.6.3/../../../../powerpc-eabi/include/c++/4.6.3/powerpc-eabi/bits/atomic_word.h"
	.file 43 "d:\\devkitpro\\devkitppc\\bin\\../lib/gcc/powerpc-eabi/4.6.3/../../../../powerpc-eabi/include/c++/4.6.3/bits/basic_string.tcc"
	.file 44 "d:\\devkitpro\\devkitppc\\bin\\../lib/gcc/powerpc-eabi/4.6.3/../../../../powerpc-eabi/include/c++/4.6.3/bits/stl_iterator_base_types.h"
	.file 45 "d:\\devkitpro\\devkitppc\\bin\\../lib/gcc/powerpc-eabi/4.6.3/../../../../powerpc-eabi/include/c++/4.6.3/ext/type_traits.h"
	.file 46 "d:\\devkitpro\\devkitppc\\bin\\../lib/gcc/powerpc-eabi/4.6.3/../../../../powerpc-eabi/include/c++/4.6.3/new"