	.file	"FeaturesSettingsMenu.cpp"
	.section	".text"
.Ltext0:
	.section	.text._ZN7sigslot15single_threaded4lockEv,"axG",@progbits,_ZN7sigslot15single_threaded4lockEv,comdat
	.align 2
	.weak	_ZN7sigslot15single_threaded4lockEv
	.type	_ZN7sigslot15single_threaded4lockEv, @function
_ZN7sigslot15single_threaded4lockEv:
.LFB1151:
	.file 1 "d:/Projects/SaveGameManager/savegame-manager-gx/trunk/source/Settings/menus/../../GUI/../sigslot.h"
	.loc 1 109 0
	.cfi_startproc
.LVL0:
	.loc 1 112 0
	blr
	.cfi_endproc
.LFE1151:
	.size	_ZN7sigslot15single_threaded4lockEv, .-_ZN7sigslot15single_threaded4lockEv
	.section	.text._ZN7sigslot15single_threaded6unlockEv,"axG",@progbits,_ZN7sigslot15single_threaded6unlockEv,comdat
	.align 2
	.weak	_ZN7sigslot15single_threaded6unlockEv
	.type	_ZN7sigslot15single_threaded6unlockEv, @function
_ZN7sigslot15single_threaded6unlockEv:
.LFB1152:
	.loc 1 114 0
	.cfi_startproc
.LVL1:
	.loc 1 117 0
	blr
	.cfi_endproc
.LFE1152:
	.size	_ZN7sigslot15single_threaded6unlockEv, .-_ZN7sigslot15single_threaded6unlockEv
	.section	.text._ZN10GuiElement9SetParentEPS_,"axG",@progbits,_ZN10GuiElement9SetParentEPS_,comdat
	.align 2
	.weak	_ZN10GuiElement9SetParentEPS_
	.type	_ZN10GuiElement9SetParentEPS_, @function
_ZN10GuiElement9SetParentEPS_:
.LFB1384:
	.file 2 "d:/Projects/SaveGameManager/savegame-manager-gx/trunk/source/Settings/menus/../../GUI/gui_element.h"
	.loc 2 92 0
	.cfi_startproc
.LVL2:
	.loc 2 92 0
	stw 4,96(3)
	blr
	.cfi_endproc
.LFE1384:
	.size	_ZN10GuiElement9SetParentEPS_, .-_ZN10GuiElement9SetParentEPS_
	.section	.text._ZN10GuiElement9GetParentEv,"axG",@progbits,_ZN10GuiElement9GetParentEv,comdat
	.align 2
	.weak	_ZN10GuiElement9GetParentEv
	.type	_ZN10GuiElement9GetParentEv, @function
_ZN10GuiElement9GetParentEv:
.LFB1385:
	.loc 2 95 0
	.cfi_startproc
.LVL3:
	.loc 2 95 0
	lwz 3,96(3)
.LVL4:
	blr
	.cfi_endproc
.LFE1385:
	.size	_ZN10GuiElement9GetParentEv, .-_ZN10GuiElement9GetParentEv
	.section	.text._ZN10GuiElement12GetZPositionEv,"axG",@progbits,_ZN10GuiElement12GetZPositionEv,comdat
	.align 2
	.weak	_ZN10GuiElement12GetZPositionEv
	.type	_ZN10GuiElement12GetZPositionEv, @function
_ZN10GuiElement12GetZPositionEv:
.LFB1386:
	.loc 2 106 0
	.cfi_startproc
.LVL5:
	mflr 0
	stwu 1,-16(1)
.LCFI0:
	.cfi_def_cfa_offset 16
	.cfi_register 65, 0
	stw 31,12(1)
	mr 31,3
	.cfi_offset 31, -4
	stw 0,20(1)
.LBB1315:
	.loc 2 110 0
	lwz 11,96(3)
	.loc 2 108 0
	li 3,0
.LVL6:
	.loc 2 110 0
	cmpwi 7,11,0
	beq- 7,.L6
	.cfi_offset 65, 4
	.loc 2 111 0
	lwz 9,0(11)
	mr 3,11
	lwz 0,24(9)
	mtctr 0
	bctrl
.LVL7:
.L6:
	.loc 2 113 0
	lwz 0,52(31)
.LBE1315:
	.loc 2 114 0
	lwz 31,12(1)
.LVL8:
	add 3,3,0
.LVL9:
	lwz 0,20(1)
	addi 1,1,16
.LCFI1:
	.cfi_def_cfa_offset 0
	.cfi_restore 31
	mtlr 0
	blr
	.cfi_endproc
.LFE1386:
	.size	_ZN10GuiElement12GetZPositionEv, .-_ZN10GuiElement12GetZPositionEv
	.section	.text._ZN10GuiElement10GetLeftPosEv,"axG",@progbits,_ZN10GuiElement10GetLeftPosEv,comdat
	.align 2
	.weak	_ZN10GuiElement10GetLeftPosEv
	.type	_ZN10GuiElement10GetLeftPosEv, @function
_ZN10GuiElement10GetLeftPosEv:
.LFB1387:
	.loc 2 116 0
	.cfi_startproc
.LVL10:
	.loc 2 116 0
	lwz 3,44(3)
.LVL11:
	blr
	.cfi_endproc
.LFE1387:
	.size	_ZN10GuiElement10GetLeftPosEv, .-_ZN10GuiElement10GetLeftPosEv
	.section	.text._ZN10GuiElement9GetTopPosEv,"axG",@progbits,_ZN10GuiElement9GetTopPosEv,comdat
	.align 2
	.weak	_ZN10GuiElement9GetTopPosEv
	.type	_ZN10GuiElement9GetTopPosEv, @function
_ZN10GuiElement9GetTopPosEv:
.LFB1388:
	.loc 2 118 0
	.cfi_startproc
.LVL12:
	.loc 2 118 0
	lwz 3,48(3)
.LVL13:
	blr
	.cfi_endproc
.LFE1388:
	.size	_ZN10GuiElement9GetTopPosEv, .-_ZN10GuiElement9GetTopPosEv
	.section	.text._ZN10GuiElement8GetWidthEv,"axG",@progbits,_ZN10GuiElement8GetWidthEv,comdat
	.align 2
	.weak	_ZN10GuiElement8GetWidthEv
	.type	_ZN10GuiElement8GetWidthEv, @function
_ZN10GuiElement8GetWidthEv:
.LFB1389:
	.loc 2 121 0
	.cfi_startproc
.LVL14:
	.loc 2 121 0
	lwz 3,36(3)
.LVL15:
	blr
	.cfi_endproc
.LFE1389:
	.size	_ZN10GuiElement8GetWidthEv, .-_ZN10GuiElement8GetWidthEv
	.section	.text._ZN10GuiElement9GetHeightEv,"axG",@progbits,_ZN10GuiElement9GetHeightEv,comdat
	.align 2
	.weak	_ZN10GuiElement9GetHeightEv
	.type	_ZN10GuiElement9GetHeightEv, @function
_ZN10GuiElement9GetHeightEv:
.LFB1390:
	.loc 2 124 0
	.cfi_startproc
.LVL16:
	.loc 2 124 0
	lwz 3,40(3)
.LVL17:
	blr
	.cfi_endproc
.LFE1390:
	.size	_ZN10GuiElement9GetHeightEv, .-_ZN10GuiElement9GetHeightEv
	.section	.text._ZN10GuiElement7SetSizeEii,"axG",@progbits,_ZN10GuiElement7SetSizeEii,comdat
	.align 2
	.weak	_ZN10GuiElement7SetSizeEii
	.type	_ZN10GuiElement7SetSizeEii, @function
_ZN10GuiElement7SetSizeEii:
.LFB1391:
	.loc 2 128 0
	.cfi_startproc
.LVL18:
	.loc 2 130 0
	stw 4,36(3)
	.loc 2 132 0
	.loc 2 131 0
	stw 5,40(3)
	.loc 2 132 0
	blr
	.cfi_endproc
.LFE1391:
	.size	_ZN10GuiElement7SetSizeEii, .-_ZN10GuiElement7SetSizeEii
	.section	.text._ZN10GuiElement9IsVisibleEv,"axG",@progbits,_ZN10GuiElement9IsVisibleEv,comdat
	.align 2
	.weak	_ZN10GuiElement9IsVisibleEv
	.type	_ZN10GuiElement9IsVisibleEv, @function
_ZN10GuiElement9IsVisibleEv:
.LFB1393:
	.loc 2 142 0
	.cfi_startproc
.LVL19:
	.loc 2 142 0
	lbz 3,29(3)
.LVL20:
	blr
	.cfi_endproc
.LFE1393:
	.size	_ZN10GuiElement9IsVisibleEv, .-_ZN10GuiElement9IsVisibleEv
	.section	.text._ZN10GuiElement12IsSelectableEv,"axG",@progbits,_ZN10GuiElement12IsSelectableEv,comdat
	.align 2
	.weak	_ZN10GuiElement12IsSelectableEv
	.type	_ZN10GuiElement12IsSelectableEv, @function
_ZN10GuiElement12IsSelectableEv:
.LFB1394:
	.loc 2 145 0
	.cfi_startproc
.LVL21:
	.loc 2 149 0
	lwz 0,72(3)
	li 9,0
	cmpwi 7,0,4
	beq- 7,.L16
	.loc 2 149 0 is_stmt 0 discriminator 1
	cmpwi 7,0,2
	beq- 7,.L16
	.loc 2 149 0 discriminator 3
	lbz 9,30(3)
.L16:
	.loc 2 150 0 is_stmt 1 discriminator 5
	mr 3,9
.LVL22:
	blr
	.cfi_endproc
.LFE1394:
	.size	_ZN10GuiElement12IsSelectableEv, .-_ZN10GuiElement12IsSelectableEv
	.section	.text._ZN10GuiElement11IsClickableEv,"axG",@progbits,_ZN10GuiElement11IsClickableEv,comdat
	.align 2
	.weak	_ZN10GuiElement11IsClickableEv
	.type	_ZN10GuiElement11IsClickableEv, @function
_ZN10GuiElement11IsClickableEv:
.LFB1395:
	.loc 2 153 0
	.cfi_startproc
.LVL23:
	.loc 2 158 0
	lwz 0,72(3)
	li 9,0
	cmpwi 7,0,4
	beq- 7,.L20
	.loc 2 158 0 is_stmt 0 discriminator 1
	cmpwi 7,0,2
	beq- 7,.L20
	.loc 2 158 0 discriminator 3
	cmpwi 7,0,3
	beq- 7,.L20
	.loc 2 158 0 discriminator 4
	lbz 9,31(3)
.L20:
	.loc 2 159 0 is_stmt 1 discriminator 6
	mr 3,9
.LVL24:
	blr
	.cfi_endproc
.LFE1395:
	.size	_ZN10GuiElement11IsClickableEv, .-_ZN10GuiElement11IsClickableEv
	.section	.text._ZN10GuiElement10IsHoldableEv,"axG",@progbits,_ZN10GuiElement10IsHoldableEv,comdat
	.align 2
	.weak	_ZN10GuiElement10IsHoldableEv
	.type	_ZN10GuiElement10IsHoldableEv, @function
_ZN10GuiElement10IsHoldableEv:
.LFB1396:
	.loc 2 162 0
	.cfi_startproc
.LVL25:
	.loc 2 162 0
	lwz 9,72(3)
	li 0,0
	cmpwi 7,9,4
	beq- 7,.L25
	.loc 2 162 0 is_stmt 0 discriminator 1
	lbz 0,32(3)
.L25:
	.loc 2 162 0 discriminator 4
	mr 3,0
.LVL26:
	blr
	.cfi_endproc
.LFE1396:
	.size	_ZN10GuiElement10IsHoldableEv, .-_ZN10GuiElement10IsHoldableEv
	.section	.text._ZN10GuiElement13SetSelectableEb,"axG",@progbits,_ZN10GuiElement13SetSelectableEb,comdat
	.align 2
	.weak	_ZN10GuiElement13SetSelectableEb
	.type	_ZN10GuiElement13SetSelectableEb, @function
_ZN10GuiElement13SetSelectableEb:
.LFB1397:
	.loc 2 165 0 is_stmt 1
	.cfi_startproc
.LVL27:
	.loc 2 165 0
	stb 4,30(3)
	blr
	.cfi_endproc
.LFE1397:
	.size	_ZN10GuiElement13SetSelectableEb, .-_ZN10GuiElement13SetSelectableEb
	.section	.text._ZN10GuiElement12SetClickableEb,"axG",@progbits,_ZN10GuiElement12SetClickableEb,comdat
	.align 2
	.weak	_ZN10GuiElement12SetClickableEb
	.type	_ZN10GuiElement12SetClickableEb, @function
_ZN10GuiElement12SetClickableEb:
.LFB1398:
	.loc 2 168 0
	.cfi_startproc
.LVL28:
	.loc 2 168 0
	stb 4,31(3)
	blr
	.cfi_endproc
.LFE1398:
	.size	_ZN10GuiElement12SetClickableEb, .-_ZN10GuiElement12SetClickableEb
	.section	.text._ZN10GuiElement11SetHoldableEb,"axG",@progbits,_ZN10GuiElement11SetHoldableEb,comdat
	.align 2
	.weak	_ZN10GuiElement11SetHoldableEb
	.type	_ZN10GuiElement11SetHoldableEb, @function
_ZN10GuiElement11SetHoldableEb:
.LFB1399:
	.loc 2 171 0
	.cfi_startproc
.LVL29:
	.loc 2 171 0
	stb 4,32(3)
	blr
	.cfi_endproc
.LFE1399:
	.size	_ZN10GuiElement11SetHoldableEb, .-_ZN10GuiElement11SetHoldableEb
	.section	.text._ZN10GuiElement8GetStateEv,"axG",@progbits,_ZN10GuiElement8GetStateEv,comdat
	.align 2
	.weak	_ZN10GuiElement8GetStateEv
	.type	_ZN10GuiElement8GetStateEv, @function
_ZN10GuiElement8GetStateEv:
.LFB1400:
	.loc 2 178 0
	.cfi_startproc
.LVL30:
	.loc 2 178 0
	lwz 3,72(3)
.LVL31:
	blr
	.cfi_endproc
.LFE1400:
	.size	_ZN10GuiElement8GetStateEv, .-_ZN10GuiElement8GetStateEv
	.section	.text._ZN10GuiElement12GetStateChanEv,"axG",@progbits,_ZN10GuiElement12GetStateChanEv,comdat
	.align 2
	.weak	_ZN10GuiElement12GetStateChanEv
	.type	_ZN10GuiElement12GetStateChanEv, @function
_ZN10GuiElement12GetStateChanEv:
.LFB1401:
	.loc 2 181 0
	.cfi_startproc
.LVL32:
	.loc 2 181 0
	lwz 3,76(3)
.LVL33:
	blr
	.cfi_endproc
.LFE1401:
	.size	_ZN10GuiElement12GetStateChanEv, .-_ZN10GuiElement12GetStateChanEv
	.section	.text._ZN10GuiElement8SetAlphaEi,"axG",@progbits,_ZN10GuiElement8SetAlphaEi,comdat
	.align 2
	.weak	_ZN10GuiElement8SetAlphaEi
	.type	_ZN10GuiElement8SetAlphaEi, @function
_ZN10GuiElement8SetAlphaEi:
.LFB1403:
	.loc 2 190 0
	.cfi_startproc
.LVL34:
	.loc 2 190 0
	stw 4,56(3)
	blr
	.cfi_endproc
.LFE1403:
	.size	_ZN10GuiElement8SetAlphaEi, .-_ZN10GuiElement8SetAlphaEi
	.section	.text._ZN10GuiElement8GetAlphaEv,"axG",@progbits,_ZN10GuiElement8GetAlphaEv,comdat
	.align 2
	.weak	_ZN10GuiElement8GetAlphaEv
	.type	_ZN10GuiElement8GetAlphaEv, @function
_ZN10GuiElement8GetAlphaEv:
.LFB1404:
	.loc 2 194 0
	.cfi_startproc
.LVL35:
	mflr 0
	stwu 1,-40(1)
.LCFI2:
	.cfi_def_cfa_offset 40
	.cfi_register 65, 0
	stw 31,36(1)
	stw 0,44(1)
.LBB1316:
	.loc 2 198 0
	lwz 31,108(3)
	.cfi_offset 65, 4
	.cfi_offset 31, -4
	cmpwi 7,31,0
	blt- 7,.L36
.L34:
.LVL36:
	.loc 2 203 0
	lwz 3,96(3)
.LVL37:
	cmpwi 7,3,0
	beq- 7,.L35
	.loc 2 204 0
	lwz 9,0(3)
	xoris 31,31,0x8000
.LVL38:
	lwz 0,100(9)
	mtctr 0
	bctrl
	lis 0,0x4330
	xoris 3,3,0x8000
	stw 0,16(1)
	stw 3,20(1)
	lis 9,.LC1@ha
	lfs 0,.LC1@l(9)
	lis 9,.LC2@ha
	lfd 13,16(1)
	lfs 12,.LC2@l(9)
	addi 9,1,24
	fsub 13,13,0
	stw 31,12(1)
	stw 0,8(1)
	frsp 13,13
	fdivs 13,13,12
	lfd 12,8(1)
	fsub 0,12,0
	frsp 0,0
	fmuls 0,0,13
	fctiwz 0,0
	stfiwx 0,0,9
	lwz 31,24(1)
.LVL39:
.L35:
.LBE1316:
	.loc 2 207 0
	lwz 0,44(1)
	mr 3,31
	lwz 31,36(1)
.LVL40:
	mtlr 0
	addi 1,1,40
	.cfi_remember_state
.LCFI3:
	.cfi_def_cfa_offset 0
	.cfi_restore 31
	blr
.LVL41:
.L36:
.LCFI4:
	.cfi_restore_state
.LBB1317:
	.loc 2 201 0
	lwz 31,56(3)
.LVL42:
	b .L34
.LBE1317:
	.cfi_endproc
.LFE1404:
	.size	_ZN10GuiElement8GetAlphaEv, .-_ZN10GuiElement8GetAlphaEv
	.section	.text._ZN10GuiElement8SetScaleEf,"axG",@progbits,_ZN10GuiElement8SetScaleEf,comdat
	.align 2
	.weak	_ZN10GuiElement8SetScaleEf
	.type	_ZN10GuiElement8SetScaleEf, @function
_ZN10GuiElement8SetScaleEf:
.LFB1405:
	.loc 2 210 0
	.cfi_startproc
.LVL43:
	.loc 2 212 0
	stfs 1,60(3)
	.loc 2 214 0
	.loc 2 213 0
	stfs 1,64(3)
	.loc 2 214 0
	blr
	.cfi_endproc
.LFE1405:
	.size	_ZN10GuiElement8SetScaleEf, .-_ZN10GuiElement8SetScaleEf
	.section	.text._ZN10GuiElement9SetScaleXEf,"axG",@progbits,_ZN10GuiElement9SetScaleXEf,comdat
	.align 2
	.weak	_ZN10GuiElement9SetScaleXEf
	.type	_ZN10GuiElement9SetScaleXEf, @function
_ZN10GuiElement9SetScaleXEf:
.LFB1406:
	.loc 2 217 0
	.cfi_startproc
.LVL44:
	.loc 2 217 0
	stfs 1,60(3)
	blr
	.cfi_endproc
.LFE1406:
	.size	_ZN10GuiElement9SetScaleXEf, .-_ZN10GuiElement9SetScaleXEf
	.section	.text._ZN10GuiElement9SetScaleYEf,"axG",@progbits,_ZN10GuiElement9SetScaleYEf,comdat
	.align 2
	.weak	_ZN10GuiElement9SetScaleYEf
	.type	_ZN10GuiElement9SetScaleYEf, @function
_ZN10GuiElement9SetScaleYEf:
.LFB1407:
	.loc 2 220 0
	.cfi_startproc
.LVL45:
	.loc 2 220 0
	stfs 1,64(3)
	blr
	.cfi_endproc
.LFE1407:
	.size	_ZN10GuiElement9SetScaleYEf, .-_ZN10GuiElement9SetScaleYEf
	.section	.text._ZN10GuiElement8GetScaleEv,"axG",@progbits,_ZN10GuiElement8GetScaleEv,comdat
	.align 2
	.weak	_ZN10GuiElement8GetScaleEv
	.type	_ZN10GuiElement8GetScaleEv, @function
_ZN10GuiElement8GetScaleEv:
.LFB1408:
	.loc 2 223 0
	.cfi_startproc
.LVL46:
	mflr 0
	stwu 1,-16(1)
.LCFI5:
	.cfi_def_cfa_offset 16
	.cfi_register 65, 0
.LBB1318:
	.loc 2 225 0
	lis 9,.LC3@ha
.LBE1318:
	.loc 2 223 0
	stfd 31,8(1)
	stw 0,20(1)
.LBB1319:
	.loc 2 225 0
	lfs 0,64(3)
	lfs 31,60(3)
	.cfi_offset 65, 4
	.cfi_offset 63, -8
	.loc 2 227 0
	lwz 11,96(3)
	.loc 2 225 0
	fadds 31,31,0
	lfs 0,.LC3@l(9)
	.loc 2 227 0
	cmpwi 7,11,0
	.loc 2 225 0
	fmuls 31,31,0
	lfs 0,112(3)
	fmuls 31,31,0
.LVL47:
	.loc 2 227 0
	beq- 7,.L41
	.loc 2 228 0
	lwz 9,0(11)
	mr 3,11
.LVL48:
	lwz 0,116(9)
	mtctr 0
	bctrl
	fmuls 31,31,1
.LVL49:
.L41:
.LBE1319:
	.loc 2 231 0
	lwz 0,20(1)
	fmr 1,31
	lfd 31,8(1)
.LVL50:
	mtlr 0
	addi 1,1,16
.LCFI6:
	.cfi_def_cfa_offset 0
	.cfi_restore 63
	blr
	.cfi_endproc
.LFE1408:
	.size	_ZN10GuiElement8GetScaleEv, .-_ZN10GuiElement8GetScaleEv
	.section	.text._ZN10GuiElement9GetScaleXEv,"axG",@progbits,_ZN10GuiElement9GetScaleXEv,comdat
	.align 2
	.weak	_ZN10GuiElement9GetScaleXEv
	.type	_ZN10GuiElement9GetScaleXEv, @function
_ZN10GuiElement9GetScaleXEv:
.LFB1409:
	.loc 2 234 0
	.cfi_startproc
.LVL51:
	mflr 0
	stwu 1,-16(1)
.LCFI7:
	.cfi_def_cfa_offset 16
	.cfi_register 65, 0
	stfd 31,8(1)
	stw 0,20(1)
.LBB1320:
	.loc 2 238 0
	lwz 11,96(3)
	.loc 2 236 0
	lfs 31,60(3)
	.cfi_offset 65, 4
	.cfi_offset 63, -8
	.loc 2 238 0
	cmpwi 7,11,0
	.loc 2 236 0
	lfs 0,112(3)
	fmuls 31,31,0
.LVL52:
	.loc 2 238 0
	beq- 7,.L43
	.loc 2 239 0
	lwz 9,0(11)
	mr 3,11
.LVL53:
	lwz 0,120(9)
	mtctr 0
	bctrl
	fmuls 31,31,1
.LVL54:
.L43:
.LBE1320:
	.loc 2 242 0
	lwz 0,20(1)
	fmr 1,31
	lfd 31,8(1)
.LVL55:
	mtlr 0
	addi 1,1,16
.LCFI8:
	.cfi_def_cfa_offset 0
	.cfi_restore 63
	blr
	.cfi_endproc
.LFE1409:
	.size	_ZN10GuiElement9GetScaleXEv, .-_ZN10GuiElement9GetScaleXEv
	.section	.text._ZN10GuiElement9GetScaleYEv,"axG",@progbits,_ZN10GuiElement9GetScaleYEv,comdat
	.align 2
	.weak	_ZN10GuiElement9GetScaleYEv
	.type	_ZN10GuiElement9GetScaleYEv, @function
_ZN10GuiElement9GetScaleYEv:
.LFB1410:
	.loc 2 245 0
	.cfi_startproc
.LVL56:
	mflr 0
	stwu 1,-16(1)
.LCFI9:
	.cfi_def_cfa_offset 16
	.cfi_register 65, 0
	stfd 31,8(1)
	stw 0,20(1)
.LBB1321:
	.loc 2 249 0
	lwz 11,96(3)
	.loc 2 247 0
	lfs 31,64(3)
	.cfi_offset 65, 4
	.cfi_offset 63, -8
	.loc 2 249 0
	cmpwi 7,11,0
	.loc 2 247 0
	lfs 0,112(3)
	fmuls 31,31,0
.LVL57:
	.loc 2 249 0
	beq- 7,.L45
	.loc 2 250 0
	lwz 9,0(11)
	mr 3,11
.LVL58:
	lwz 0,124(9)
	mtctr 0
	bctrl
	fmuls 31,31,1
.LVL59:
.L45:
.LBE1321:
	.loc 2 253 0
	lwz 0,20(1)
	fmr 1,31
	lfd 31,8(1)
.LVL60:
	mtlr 0
	addi 1,1,16
.LCFI10:
	.cfi_def_cfa_offset 0
	.cfi_restore 63
	blr
	.cfi_endproc
.LFE1410:
	.size	_ZN10GuiElement9GetScaleYEv, .-_ZN10GuiElement9GetScaleYEv
	.section	.text._ZN10GuiElement6RumbleEv,"axG",@progbits,_ZN10GuiElement6RumbleEv,comdat
	.align 2
	.weak	_ZN10GuiElement6RumbleEv
	.type	_ZN10GuiElement6RumbleEv, @function
_ZN10GuiElement6RumbleEv:
.LFB1411:
	.loc 2 256 0
	.cfi_startproc
.LVL61:
	.loc 2 256 0
	lbz 3,28(3)
.LVL62:
	blr
	.cfi_endproc
.LFE1411:
	.size	_ZN10GuiElement6RumbleEv, .-_ZN10GuiElement6RumbleEv
	.section	.text._ZN10GuiElement9SetRumbleEb,"axG",@progbits,_ZN10GuiElement9SetRumbleEb,comdat
	.align 2
	.weak	_ZN10GuiElement9SetRumbleEb
	.type	_ZN10GuiElement9SetRumbleEb, @function
_ZN10GuiElement9SetRumbleEb:
.LFB1412:
	.loc 2 259 0
	.cfi_startproc
.LVL63:
	.loc 2 259 0
	stb 4,28(3)
	blr
	.cfi_endproc
.LFE1412:
	.size	_ZN10GuiElement9SetRumbleEb, .-_ZN10GuiElement9SetRumbleEb
	.section	.text._ZN10GuiElement13SetEffectGrowEv,"axG",@progbits,_ZN10GuiElement13SetEffectGrowEv,comdat
	.align 2
	.weak	_ZN10GuiElement13SetEffectGrowEv
	.type	_ZN10GuiElement13SetEffectGrowEv, @function
_ZN10GuiElement13SetEffectGrowEv:
.LFB1413:
	.loc 2 271 0
	.cfi_startproc
.LVL64:
	mflr 0
	stwu 1,-8(1)
.LCFI11:
	.cfi_def_cfa_offset 8
	.cfi_register 65, 0
	lwz 9,0(3)
	li 4,256
	li 5,4
	li 6,110
	stw 0,12(1)
	.loc 2 271 0
	lwz 0,140(9)
	.cfi_offset 65, 4
	mtctr 0
	bctrl
.LVL65:
	lwz 0,12(1)
	addi 1,1,8
.LCFI12:
	.cfi_def_cfa_offset 0
	mtlr 0
	blr
	.cfi_endproc
.LFE1413:
	.size	_ZN10GuiElement13SetEffectGrowEv, .-_ZN10GuiElement13SetEffectGrowEv
	.section	.text._ZNK10GuiElement9GetEffectEv,"axG",@progbits,_ZNK10GuiElement9GetEffectEv,comdat
	.align 2
	.weak	_ZNK10GuiElement9GetEffectEv
	.type	_ZNK10GuiElement9GetEffectEv, @function
_ZNK10GuiElement9GetEffectEv:
.LFB1414:
	.loc 2 276 0
	.cfi_startproc
.LVL66:
	.loc 2 276 0
	lwz 3,120(3)
.LVL67:
	blr
	.cfi_endproc
.LFE1414:
	.size	_ZNK10GuiElement9GetEffectEv, .-_ZNK10GuiElement9GetEffectEv
	.section	.text._ZNK10GuiElement10IsAnimatedEv,"axG",@progbits,_ZNK10GuiElement10IsAnimatedEv,comdat
	.align 2
	.weak	_ZNK10GuiElement10IsAnimatedEv
	.type	_ZNK10GuiElement10IsAnimatedEv, @function
_ZNK10GuiElement10IsAnimatedEv:
.LFB1415:
	.loc 2 278 0
	.cfi_startproc
.LVL68:
	mflr 0
	stwu 1,-8(1)
.LCFI13:
	.cfi_def_cfa_offset 8
	.cfi_register 65, 0
	stw 0,12(1)
	.loc 2 278 0
	lwz 9,0(3)
	lwz 0,152(9)
	.cfi_offset 65, 4
	mtctr 0
	bctrl
.LVL69:
	srawi 0,3,31
	subf 3,3,0
	lwz 0,12(1)
	srwi 3,3,31
	mtlr 0
	addi 1,1,8
.LCFI14:
	.cfi_def_cfa_offset 0
	blr
	.cfi_endproc
.LFE1415:
	.size	_ZNK10GuiElement10IsAnimatedEv, .-_ZNK10GuiElement10IsAnimatedEv
	.section	.text._ZN10GuiElement8IsInsideEii,"axG",@progbits,_ZN10GuiElement8IsInsideEii,comdat
	.align 2
	.weak	_ZN10GuiElement8IsInsideEii
	.type	_ZN10GuiElement8IsInsideEii, @function
_ZN10GuiElement8IsInsideEii:
.LFB1417:
	.loc 2 285 0
	.cfi_startproc
.LVL70:
	mflr 0
	stwu 1,-24(1)
.LCFI15:
	.cfi_def_cfa_offset 24
	.cfi_register 65, 0
	stw 28,8(1)
	mr 28,5
	.cfi_offset 28, -16
	stw 0,28(1)
	stw 29,12(1)
	.loc 2 290 0
	li 29,0
	.cfi_offset 29, -12
	.cfi_offset 65, 4
	.loc 2 287 0
	lwz 9,0(3)
	.loc 2 285 0
	stw 30,16(1)
	mr 30,4
	.cfi_offset 30, -8
	.loc 2 287 0
	lwz 0,16(9)
	.loc 2 285 0
	stw 31,20(1)
	.loc 2 285 0
	mr 31,3
	.cfi_offset 31, -4
	.loc 2 287 0
	mtctr 0
	bctrl
.LVL71:
	.loc 2 290 0
	cmpw 7,3,30
	blt- 7,.L56
.L52:
	.loc 2 291 0 discriminator 6
	lwz 0,28(1)
	mr 3,29
	lwz 28,8(1)
.LVL72:
	mtlr 0
	lwz 29,12(1)
	lwz 30,16(1)
.LVL73:
	lwz 31,20(1)
.LVL74:
	addi 1,1,24
	.cfi_remember_state
.LCFI16:
	.cfi_def_cfa_offset 0
	.cfi_restore 31
	.cfi_restore 30
	.cfi_restore 29
	.cfi_restore 28
	blr
.LVL75:
.L56:
.LCFI17:
	.cfi_restore_state
	.loc 2 288 0 discriminator 1
	lwz 9,0(31)
	mr 3,31
	lwz 0,16(9)
	mtctr 0
	bctrl
	.loc 2 290 0 discriminator 1
	lwz 0,36(31)
	add 0,3,0
	cmpw 7,30,0
	bge+ 7,.L52
	.loc 2 289 0 discriminator 3
	lwz 9,0(31)
	mr 3,31
	lwz 0,20(9)
	mtctr 0
	bctrl
	.loc 2 290 0 discriminator 3
	cmpw 7,3,28
	bge+ 7,.L52
	.loc 2 290 0 is_stmt 0 discriminator 4
	lwz 9,0(31)
	mr 3,31
	lwz 0,20(9)
	mtctr 0
	bctrl
	lwz 0,40(31)
	add 0,3,0
	.loc 2 285 0 is_stmt 1 discriminator 4
	cmpw 7,28,0
	mfcr 29
	rlwinm 29,29,29,1
	b .L52
	.cfi_endproc
.LFE1417:
	.size	_ZN10GuiElement8IsInsideEii, .-_ZN10GuiElement8IsInsideEii
	.section	.text._ZN10GuiElement11SetPositionEii,"axG",@progbits,_ZN10GuiElement11SetPositionEii,comdat
	.align 2
	.weak	_ZN10GuiElement11SetPositionEii
	.type	_ZN10GuiElement11SetPositionEii, @function
_ZN10GuiElement11SetPositionEii:
.LFB1418:
	.loc 2 295 0
	.cfi_startproc
.LVL76:
	.loc 2 297 0
	stw 4,44(3)
	.loc 2 299 0
	.loc 2 298 0
	stw 5,48(3)
	.loc 2 299 0
	blr
	.cfi_endproc
.LFE1418:
	.size	_ZN10GuiElement11SetPositionEii, .-_ZN10GuiElement11SetPositionEii
	.section	.text._ZN10GuiElement11SetPositionEiii,"axG",@progbits,_ZN10GuiElement11SetPositionEiii,comdat
	.align 2
	.weak	_ZN10GuiElement11SetPositionEiii
	.type	_ZN10GuiElement11SetPositionEiii, @function
_ZN10GuiElement11SetPositionEiii:
.LFB1419:
	.loc 2 304 0
	.cfi_startproc
.LVL77:
	.loc 2 306 0
	stw 4,44(3)
	.loc 2 309 0
	.loc 2 307 0
	stw 5,48(3)
	.loc 2 308 0
	stw 6,52(3)
	.loc 2 309 0
	blr
	.cfi_endproc
.LFE1419:
	.size	_ZN10GuiElement11SetPositionEiii, .-_ZN10GuiElement11SetPositionEiii
	.section	.text._ZN10GuiElement12SetAlignmentEi,"axG",@progbits,_ZN10GuiElement12SetAlignmentEi,comdat
	.align 2
	.weak	_ZN10GuiElement12SetAlignmentEi
	.type	_ZN10GuiElement12SetAlignmentEi, @function
_ZN10GuiElement12SetAlignmentEi:
.LFB1421:
	.loc 2 316 0
	.cfi_startproc
.LVL78:
	.loc 2 316 0
	stw 4,68(3)
	blr
	.cfi_endproc
.LFE1421:
	.size	_ZN10GuiElement12SetAlignmentEi, .-_ZN10GuiElement12SetAlignmentEi
	.section	.text._ZNK10GuiElement12GetAlignmentEv,"axG",@progbits,_ZNK10GuiElement12GetAlignmentEv,comdat
	.align 2
	.weak	_ZNK10GuiElement12GetAlignmentEv
	.type	_ZNK10GuiElement12GetAlignmentEv, @function
_ZNK10GuiElement12GetAlignmentEv:
.LFB1422:
	.loc 2 318 0
	.cfi_startproc
.LVL79:
	.loc 2 318 0
	lwz 3,68(3)
.LVL80:
	blr
	.cfi_endproc
.LFE1422:
	.size	_ZNK10GuiElement12GetAlignmentEv, .-_ZNK10GuiElement12GetAlignmentEv
	.section	.text._ZN8GuiFrame4hideEv,"axG",@progbits,_ZN8GuiFrame4hideEv,comdat
	.align 2
	.weak	_ZN8GuiFrame4hideEv
	.type	_ZN8GuiFrame4hideEv, @function
_ZN8GuiFrame4hideEv:
.LFB1432:
	.file 3 "d:/Projects/SaveGameManager/savegame-manager-gx/trunk/source/Settings/menus/../../GUI/gui_frame.h"
	.loc 3 81 0
	.cfi_startproc
.LVL81:
	.loc 3 81 0
	blr
	.cfi_endproc
.LFE1432:
	.size	_ZN8GuiFrame4hideEv, .-_ZN8GuiFrame4hideEv
	.section	.text._ZN8GuiFrame4execEv,"axG",@progbits,_ZN8GuiFrame4execEv,comdat
	.align 2
	.weak	_ZN8GuiFrame4execEv
	.type	_ZN8GuiFrame4execEv, @function
_ZN8GuiFrame4execEv:
.LFB1433:
	.loc 3 83 0
	.cfi_startproc
.LVL82:
	.loc 3 83 0
	blr
	.cfi_endproc
.LFE1433:
	.size	_ZN8GuiFrame4execEv, .-_ZN8GuiFrame4execEv
	.section	.text._ZN8GuiFrame12updateEventsEv,"axG",@progbits,_ZN8GuiFrame12updateEventsEv,comdat
	.align 2
	.weak	_ZN8GuiFrame12updateEventsEv
	.type	_ZN8GuiFrame12updateEventsEv, @function
_ZN8GuiFrame12updateEventsEv:
.LFB1434:
	.loc 3 85 0
	.cfi_startproc
.LVL83:
	.loc 3 85 0
	blr
	.cfi_endproc
.LFE1434:
	.size	_ZN8GuiFrame12updateEventsEv, .-_ZN8GuiFrame12updateEventsEv
	.section	".text"
	.align 2
	.globl _ZN20FeaturesSettingsMenu14OnBrowserClickEP16GuiOptionBrowseri
	.type	_ZN20FeaturesSettingsMenu14OnBrowserClickEP16GuiOptionBrowseri, @function
_ZN20FeaturesSettingsMenu14OnBrowserClickEP16GuiOptionBrowseri:
.LFB1585:
	.file 4 "d:/Projects/SaveGameManager/savegame-manager-gx/trunk/source/Settings/menus/FeaturesSettingsMenu.cpp"
	.loc 4 82 0
	.cfi_startproc
.LVL84:
	.loc 4 83 0
	cmpwi 0,5,0
	.loc 4 82 0
	mflr 0
	stwu 1,-8(1)
.LCFI18:
	.cfi_def_cfa_offset 8
	.cfi_register 65, 0
	stw 0,12(1)
	.loc 4 83 0
	bne- 0,.L65
	.cfi_offset 65, 4
	.loc 4 113 0
	lis 9,Settings@ha
	la 9,Settings@l(9)
	lhz 11,2568(9)
	addi 0,11,1
	extsh 0,0
	cmpwi 7,0,6
	sth 0,2568(9)
	ble- 7,.L65
	.loc 4 113 0 is_stmt 0 discriminator 1
	sth 5,2568(9)
.L65:
	.loc 4 122 0 is_stmt 1
	lwz 9,0(3)
	lwz 0,224(9)
	mtctr 0
	bctrl
.LVL85:
	.loc 4 123 0
	lwz 0,12(1)
	addi 1,1,8
.LCFI19:
	.cfi_def_cfa_offset 0
	mtlr 0
	blr
	.cfi_endproc
.LFE1585:
	.size	_ZN20FeaturesSettingsMenu14OnBrowserClickEP16GuiOptionBrowseri, .-_ZN20FeaturesSettingsMenu14OnBrowserClickEP16GuiOptionBrowseri
	.section	.text._ZN20FeaturesSettingsMenuD1Ev,"axG",@progbits,_ZN20FeaturesSettingsMenuD1Ev,comdat
	.align 2
	.weak	_ZThn176_N20FeaturesSettingsMenuD1Ev
	.type	_ZThn176_N20FeaturesSettingsMenuD1Ev, @function
_ZThn176_N20FeaturesSettingsMenuD1Ev:
.LFB1951:
	.cfi_startproc
	addi 3,3,-176
	b .LTHUNK0
	.cfi_endproc
.LFE1951:
	.size	_ZThn176_N20FeaturesSettingsMenuD1Ev, .-_ZThn176_N20FeaturesSettingsMenuD1Ev
	.section	.text._ZN20FeaturesSettingsMenuD2Ev,"axG",@progbits,_ZN20FeaturesSettingsMenuD5Ev,comdat
	.align 2
	.weak	_ZN20FeaturesSettingsMenuD2Ev
	.type	_ZN20FeaturesSettingsMenuD2Ev, @function
_ZN20FeaturesSettingsMenuD2Ev:
.LFB1850:
	.file 5 "d:/Projects/SaveGameManager/savegame-manager-gx/trunk/source/Settings/menus/FeaturesSettingsMenu.hpp"
	.loc 5 31 0
	.cfi_startproc
.LVL86:
	mflr 0
	stwu 1,-8(1)
.LCFI20:
	.cfi_def_cfa_offset 8
	.cfi_register 65, 0
.LBB1323:
	lis 11,_ZTV20FeaturesSettingsMenu+8@ha
	la 11,_ZTV20FeaturesSettingsMenu+8@l(11)
.LBE1323:
	stw 0,12(1)
.LBB1324:
	.loc 5 31 0
	addi 0,11,240
	.cfi_offset 65, 4
	stw 0,176(3)
	stw 11,0(3)
	bl _ZN15SettingsBrowserD2Ev
.LVL87:
.LBE1324:
	lwz 0,12(1)
	addi 1,1,8
.LCFI21:
	.cfi_def_cfa_offset 0
	mtlr 0
	blr
	.cfi_endproc
.LFE1850:
	.size	_ZN20FeaturesSettingsMenuD2Ev, .-_ZN20FeaturesSettingsMenuD2Ev
	.section	".text"
	.align 2
	.globl _ZN20FeaturesSettingsMenu15SetOptionValuesEv
	.type	_ZN20FeaturesSettingsMenu15SetOptionValuesEv, @function
_ZN20FeaturesSettingsMenu15SetOptionValuesEv:
.LFB1584:
	.loc 4 68 0
	.cfi_startproc
.LVL88:
	mflr 0
	stwu 1,-8(1)
.LCFI22:
	.cfi_def_cfa_offset 8
	.cfi_register 65, 0
.LBB1325:
	.loc 4 75 0
	lis 9,Settings+2568@ha
	li 4,0
.LBE1325:
	.loc 4 68 0
	stw 0,12(1)
.LBB1326:
	.loc 4 75 0
	lha 0,Settings+2568@l(9)
	.cfi_offset 65, 4
	lis 9,.LANCHOR0@ha
	la 9,.LANCHOR0@l(9)
	lwz 3,204(3)
.LVL89:
	slwi 0,0,2
	lwzx 5,9,0
	crxor 6,6,6
	bl _ZN10OptionList8SetValueEiPKcz
.LBE1326:
	.loc 4 79 0
	lwz 0,12(1)
	addi 1,1,8
.LCFI23:
	.cfi_def_cfa_offset 0
	mtlr 0
	blr
	.cfi_endproc
.LFE1584:
	.size	_ZN20FeaturesSettingsMenu15SetOptionValuesEv, .-_ZN20FeaturesSettingsMenu15SetOptionValuesEv
	.align 2
	.globl _ZN20FeaturesSettingsMenu15SetupOptionNameEv
	.type	_ZN20FeaturesSettingsMenu15SetupOptionNameEv, @function
_ZN20FeaturesSettingsMenu15SetupOptionNameEv:
.LFB1583:
	.loc 4 56 0
	.cfi_startproc
.LVL90:
	mflr 0
	stwu 1,-16(1)
.LCFI24:
	.cfi_def_cfa_offset 16
	.cfi_register 65, 0
	stw 30,8(1)
	stw 0,20(1)
	stw 31,12(1)
	.loc 4 56 0
	mr 31,3
	.cfi_offset 31, -4
	.cfi_offset 65, 4
	.cfi_offset 30, -8
.LBB1328:
	.loc 4 60 0
	lwz 30,204(3)
.LVL91:
	lis 3,.LC4@ha
.LVL92:
	la 3,.LC4@l(3)
	bl gettext
	li 4,0
	mr 5,3
	mr 3,30
	crxor 6,6,6
	bl _ZN10OptionList7SetNameEiPKcz
	.loc 4 64 0
	lwz 9,0(31)
	mr 3,31
	lwz 0,224(9)
	mtctr 0
	bctrl
.LBE1328:
	.loc 4 65 0
	lwz 0,20(1)
	lwz 30,8(1)
	mtlr 0
	lwz 31,12(1)
.LVL93:
	addi 1,1,16
.LCFI25:
	.cfi_def_cfa_offset 0
	.cfi_restore 31
	.cfi_restore 30
	blr
	.cfi_endproc
.LFE1583:
	.size	_ZN20FeaturesSettingsMenu15SetupOptionNameEv, .-_ZN20FeaturesSettingsMenu15SetupOptionNameEv
	.section	.text._ZN20FeaturesSettingsMenuD0Ev,"axG",@progbits,_ZN20FeaturesSettingsMenuD0Ev,comdat
	.align 2
	.weak	_ZThn176_N20FeaturesSettingsMenuD0Ev
	.type	_ZThn176_N20FeaturesSettingsMenuD0Ev, @function
_ZThn176_N20FeaturesSettingsMenuD0Ev:
.LFB1954:
	.cfi_startproc
	addi 3,3,-176
	b .LTHUNK1
	.cfi_endproc
.LFE1954:
	.size	_ZThn176_N20FeaturesSettingsMenuD0Ev, .-_ZThn176_N20FeaturesSettingsMenuD0Ev
	.align 2
	.weak	_ZN20FeaturesSettingsMenuD0Ev
	.type	_ZN20FeaturesSettingsMenuD0Ev, @function
_ZN20FeaturesSettingsMenuD0Ev:
.LFB1852:
	.loc 5 31 0
	.cfi_startproc
.LVL94:
	mflr 0
	stwu 1,-16(1)
.LCFI26:
	.cfi_def_cfa_offset 16
	.cfi_register 65, 0
.LBB1332:
.LBB1333:
.LBB1334:
	lis 9,_ZTV20FeaturesSettingsMenu+8@ha
	la 9,_ZTV20FeaturesSettingsMenu+8@l(9)
.LBE1334:
.LBE1333:
.LBE1332:
	stw 31,12(1)
	stw 0,20(1)
.LBB1339:
.LBB1337:
.LBB1335:
	.loc 5 31 0
	addi 0,9,240
	.cfi_offset 65, 4
	.cfi_offset 31, -4
	stw 0,176(3)
.LBE1335:
.LBE1337:
.LBE1339:
	mr 31,3
.LVL95:
.LBB1340:
.LBB1338:
.LBB1336:
	stw 9,0(3)
	bl _ZN15SettingsBrowserD2Ev
.LVL96:
.LBE1336:
.LBE1338:
.LBE1340:
	mr 3,31
	bl _ZdlPv
	lwz 0,20(1)
	lwz 31,12(1)
.LVL97:
	mtlr 0
	addi 1,1,16
.LCFI27:
	.cfi_def_cfa_offset 0
	.cfi_restore 31
	blr
	.cfi_endproc
.LFE1852:
	.size	_ZN20FeaturesSettingsMenuD0Ev, .-_ZN20FeaturesSettingsMenuD0Ev
	.section	".text"
	.align 2
	.globl _ZN20FeaturesSettingsMenuC2Ev
	.type	_ZN20FeaturesSettingsMenuC2Ev, @function
_ZN20FeaturesSettingsMenuC2Ev:
.LFB1581:
	.loc 4 46 0
	.cfi_startproc
	.cfi_personality 0,__gxx_personality_v0
	.cfi_lsda 0,.LLSDA1581
.LVL98:
	stwu 1,-40(1)
.LCFI28:
	.cfi_def_cfa_offset 40
	mflr 0
	stw 29,28(1)
.LBB1399:
.LBB1400:
.LBB1401:
	.file 6 "d:/Projects/SaveGameManager/savegame-manager-gx/trunk/source/Settings/menus/SettingsMenu.h"
	.loc 6 46 0
	lis 29,_ZN12SettingsMenu8instanceE@ha
	.cfi_offset 29, -12
	.cfi_register 65, 0
.LBE1401:
.LBE1400:
.LBE1399:
	.loc 4 46 0
	stw 0,44(1)
	stw 30,32(1)
	stw 31,36(1)
	.loc 4 46 0
	mr 31,3
	.cfi_offset 31, -4
	.cfi_offset 30, -8
	.cfi_offset 65, 4
.LEHB0:
.LBB1460:
	.loc 4 47 0
	bl _ZN15SettingsBrowserC2Ev
.LEHE0:
.LVL99:
.LBB1407:
.LBB1402:
	.loc 6 46 0
	lwz 30,_ZN12SettingsMenu8instanceE@l(29)
.LBE1402:
.LBE1407:
	.loc 4 47 0
	lis 9,_ZTV20FeaturesSettingsMenu+8@ha
.LBB1408:
.LBB1403:
	.loc 6 46 0
	cmpwi 7,30,0
.LBE1403:
.LBE1408:
	.loc 4 47 0
	la 9,_ZTV20FeaturesSettingsMenu+8@l(9)
	addi 0,9,240
	stw 9,0(31)
	stw 0,176(31)
.LBB1409:
.LBB1404:
	.loc 6 46 0
	beq- 7,.L108
.L75:
.LBE1404:
.LBE1409:
	.loc 4 49 0
	lis 3,.LC5@ha
	la 3,.LC5@l(3)
.LEHB1:
	bl gettext
.LEHE1:
	mr 4,3
	addi 5,1,10
	addi 3,1,16
.LEHB2:
	bl _ZNSsC1EPKcRKSaIcE
.LEHE2:
	.loc 4 123 0 discriminator 3
	lwz 30,216(30)
.LVL100:
.LBB1410:
.LBB1411:
	.loc 6 52 0 discriminator 3
	cmpwi 7,30,0
	beq- 7,.L109
	.loc 6 52 0 is_stmt 0
	lwz 9,0(30)
	addi 3,1,12
	addi 4,1,16
.LVL101:
	lwz 29,204(9)
.LEHB3:
	bl _ZNSsC1ERKSs
.LEHE3:
.LVL102:
	mr 3,30
	addi 4,1,12
	mtctr 29
.LEHB4:
	bctrl
.LEHE4:
.LVL103:
.LBB1412:
.LBB1413:
.LBB1414:
.LBB1415:
.LBB1416:
.LBB1417:
	.file 7 "d:\\devkitpro\\devkitppc\\bin\\../lib/gcc/powerpc-eabi/4.6.3/../../../../powerpc-eabi/include/c++/4.6.3/bits/basic_string.h"
	.loc 7 288 0 is_stmt 1
	lwz 9,12(1)
.LBE1417:
.LBE1416:
.LBE1415:
.LBB1418:
.LBB1419:
	.loc 7 235 0
	lis 30,_ZNSs4_Rep20_S_empty_rep_storageE@ha
	la 30,_ZNSs4_Rep20_S_empty_rep_storageE@l(30)
.LBE1419:
.LBE1418:
	.loc 7 534 0
	addi 3,9,-12
.LVL104:
.LBB1428:
.LBB1426:
	.loc 7 235 0
	cmpw 7,3,30
	bne- 7,.L110
.LVL105:
.L86:
.LBE1426:
.LBE1428:
.LBE1414:
.LBE1413:
.LBE1412:
.LBE1411:
.LBE1410:
.LBB1435:
.LBB1436:
.LBB1437:
.LBB1438:
.LBB1439:
.LBB1440:
	.loc 7 288 0 discriminator 1
	lwz 9,16(1)
.LBE1440:
.LBE1439:
.LBE1438:
	.loc 7 534 0 discriminator 1
	addi 3,9,-12
.LVL106:
.LBB1441:
.LBB1442:
	.loc 7 235 0 discriminator 1
	cmpw 7,3,30
	bne- 7,.L111
.LVL107:
.L94:
.LBE1442:
.LBE1441:
.LBE1437:
.LBE1436:
.LBE1435:
.LBB1453:
.LBB1454:
	.loc 4 60 0
	lis 3,.LC4@ha
	lwz 30,204(31)
.LVL108:
	la 3,.LC4@l(3)
.LEHB5:
	bl gettext
	mr 5,3
	li 4,0
	mr 3,30
	crxor 6,6,6
	bl _ZN10OptionList7SetNameEiPKcz
	.loc 4 64 0
	lwz 9,0(31)
	mr 3,31
	lwz 0,224(9)
	mtctr 0
	bctrl
.LBE1454:
.LBE1453:
	.loc 4 52 0
	mr 3,31
	bl _ZN15SettingsBrowser4showEv
.LBE1460:
	.loc 4 53 0
	lwz 0,44(1)
	lwz 29,28(1)
	mtlr 0
	lwz 30,32(1)
	lwz 31,36(1)
.LVL109:
	addi 1,1,40
	.cfi_remember_state
.LCFI29:
	.cfi_def_cfa_offset 0
	.cfi_restore 31
	.cfi_restore 30
	.cfi_restore 29
	blr
.LVL110:
.L108:
.LCFI30:
	.cfi_restore_state
.LBB1461:
.LBB1455:
.LBB1405:
	.loc 6 46 0
	li 3,980
	bl _Znwj
.LEHE5:
	mr 30,3
.LEHB6:
	bl _ZN12SettingsMenuC1Ev
.LEHE6:
	stw 30,_ZN12SettingsMenu8instanceE@l(29)
	b .L75
.LVL111:
.L109:
	lis 30,_ZNSs4_Rep20_S_empty_rep_storageE@ha
	la 30,_ZNSs4_Rep20_S_empty_rep_storageE@l(30)
	b .L86
.LVL112:
.L111:
.LBE1405:
.LBE1455:
.LBB1456:
.LBB1452:
.LBB1451:
.LBB1450:
.LBB1449:
.LBB1443:
.LBB1444:
.LBB1445:
	.file 8 "d:\\devkitpro\\devkitppc\\bin\\../lib/gcc/powerpc-eabi/4.6.3/../../../../powerpc-eabi/include/c++/4.6.3/ext/atomicity.h"
	.loc 8 66 0
	lwz 11,-4(9)
.LVL113:
.LBE1445:
.LBE1444:
.LBE1443:
	.loc 7 240 0
	cmpwi 7,11,0
.LBB1448:
.LBB1447:
.LBB1446:
	.loc 8 67 0
	addi 11,11,-1
	stw 11,-4(9)
.LBE1446:
.LBE1447:
.LBE1448:
	.loc 7 240 0
	bgt+ 7,.L94
	.loc 7 244 0
	addi 4,1,8
	bl _ZNSs4_Rep10_M_destroyERKSaIcE
.LVL114:
	b .L94
.LVL115:
.L110:
.LBE1449:
.LBE1450:
.LBE1451:
.LBE1452:
.LBE1456:
.LBB1457:
.LBB1433:
.LBB1432:
.LBB1431:
.LBB1430:
.LBB1429:
.LBB1427:
.LBB1420:
.LBB1421:
.LBB1422:
	.loc 8 66 0
	lwz 11,-4(9)
.LVL116:
.LBE1422:
.LBE1421:
.LBE1420:
	.loc 7 240 0
	cmpwi 7,11,0
.LBB1425:
.LBB1424:
.LBB1423:
	.loc 8 67 0
	addi 11,11,-1
	stw 11,-4(9)
.LBE1423:
.LBE1424:
.LBE1425:
	.loc 7 240 0
	bgt+ 7,.L86
	.loc 7 244 0
	addi 4,1,9
	bl _ZNSs4_Rep10_M_destroyERKSaIcE
.LVL117:
	b .L86
.LVL118:
.L98:
.L107:
	mr 30,3
.L78:
.LBE1427:
.LBE1429:
.LBE1430:
.LBE1431:
.LBE1432:
.LBE1433:
.LBE1457:
	.loc 4 47 0
	mr 3,31
	bl _ZN15SettingsBrowserD2Ev
	mr 3,30
.LEHB7:
	bl _Unwind_Resume
.LEHE7:
.L101:
	mr 29,3
.LBB1458:
.LBB1406:
	.loc 6 46 0
	mr 3,30
	bl _ZdlPv
	mr 30,29
	b .L78
.LVL119:
.L102:
	mr 30,3
.LBE1406:
.LBE1458:
.LBB1459:
.LBB1434:
	.loc 6 52 0
	addi 3,1,12
	bl _ZNSsD1Ev
.L81:
.LBE1434:
.LBE1459:
	.loc 4 49 0
	addi 3,1,16
.LVL120:
	bl _ZNSsD1Ev
.LVL121:
	mr 3,30
	b .L107
.LVL122:
.L99:
	b .L107
.LVL123:
.L100:
	mr 30,3
	b .L81
.LBE1461:
	.cfi_endproc
.LFE1581:
	.globl __gxx_personality_v0
	.section	.gcc_except_table,"a",@progbits
.LLSDA1581:
	.byte	0xff
	.byte	0xff
	.byte	0x1
	.uleb128 .LLSDACSE1581-.LLSDACSB1581
.LLSDACSB1581:
	.uleb128 .LEHB0-.LFB1581
	.uleb128 .LEHE0-.LEHB0
	.uleb128 0
	.uleb128 0
	.uleb128 .LEHB1-.LFB1581
	.uleb128 .LEHE1-.LEHB1
	.uleb128 .L98-.LFB1581
	.uleb128 0
	.uleb128 .LEHB2-.LFB1581
	.uleb128 .LEHE2-.LEHB2
	.uleb128 .L99-.LFB1581
	.uleb128 0
	.uleb128 .LEHB3-.LFB1581
	.uleb128 .LEHE3-.LEHB3
	.uleb128 .L100-.LFB1581
	.uleb128 0
	.uleb128 .LEHB4-.LFB1581
	.uleb128 .LEHE4-.LEHB4
	.uleb128 .L102-.LFB1581
	.uleb128 0
	.uleb128 .LEHB5-.LFB1581
	.uleb128 .LEHE5-.LEHB5
	.uleb128 .L98-.LFB1581
	.uleb128 0
	.uleb128 .LEHB6-.LFB1581
	.uleb128 .LEHE6-.LEHB6
	.uleb128 .L101-.LFB1581
	.uleb128 0
	.uleb128 .LEHB7-.LFB1581
	.uleb128 .LEHE7-.LEHB7
	.uleb128 0
	.uleb128 0
.LLSDACSE1581:
	.section	".text"
	.size	_ZN20FeaturesSettingsMenuC2Ev, .-_ZN20FeaturesSettingsMenuC2Ev
	.weak	_ZTS20FeaturesSettingsMenu
	.section	.rodata._ZTS20FeaturesSettingsMenu,"aG",@progbits,_ZTS20FeaturesSettingsMenu,comdat
	.align 2
	.type	_ZTS20FeaturesSettingsMenu, @object
	.size	_ZTS20FeaturesSettingsMenu, 23
_ZTS20FeaturesSettingsMenu:
	.string	"20FeaturesSettingsMenu"
	.weak	_ZTI20FeaturesSettingsMenu
	.section	.rodata._ZTI20FeaturesSettingsMenu,"aG",@progbits,_ZTI20FeaturesSettingsMenu,comdat
	.align 2
	.type	_ZTI20FeaturesSettingsMenu, @object
	.size	_ZTI20FeaturesSettingsMenu, 12
_ZTI20FeaturesSettingsMenu:
	.long	_ZTVN10__cxxabiv120__si_class_type_infoE+8
	.long	_ZTS20FeaturesSettingsMenu
	.long	_ZTI15SettingsBrowser
	.weak	_ZTV20FeaturesSettingsMenu
	.section	.rodata._ZTV20FeaturesSettingsMenu,"aG",@progbits,_ZTV20FeaturesSettingsMenu,comdat
	.align 3
	.type	_ZTV20FeaturesSettingsMenu, @object
	.size	_ZTV20FeaturesSettingsMenu, 264
_ZTV20FeaturesSettingsMenu:
	.long	0
	.long	_ZTI20FeaturesSettingsMenu
	.long	_ZN20FeaturesSettingsMenuD1Ev
	.long	_ZN20FeaturesSettingsMenuD0Ev
	.long	_ZN10GuiElement9SetParentEPS_
	.long	_ZN10GuiElement9GetParentEv
	.long	_ZN10GuiElement7GetLeftEv
	.long	_ZN10GuiElement6GetTopEv
	.long	_ZN10GuiElement12GetZPositionEv
	.long	_ZN10GuiElement10GetLeftPosEv
	.long	_ZN10GuiElement9GetTopPosEv
	.long	_ZN10GuiElement8GetWidthEv
	.long	_ZN10GuiElement9GetHeightEv
	.long	_ZN10GuiElement7SetSizeEii
	.long	_ZN8GuiFrame10SetVisibleEb
	.long	_ZN10GuiElement9IsVisibleEv
	.long	_ZN10GuiElement12IsSelectableEv
	.long	_ZN10GuiElement11IsClickableEv
	.long	_ZN10GuiElement10IsHoldableEv
	.long	_ZN10GuiElement13SetSelectableEb
	.long	_ZN10GuiElement12SetClickableEb
	.long	_ZN10GuiElement11SetHoldableEb
	.long	_ZN10GuiElement8SetStateEii
	.long	_ZN10GuiElement8GetStateEv
	.long	_ZN10GuiElement12GetStateChanEv
	.long	_ZN8GuiFrame10ResetStateEv
	.long	_ZN10GuiElement8SetAlphaEi
	.long	_ZN10GuiElement8GetAlphaEv
	.long	_ZN10GuiElement8SetScaleEf
	.long	_ZN10GuiElement9SetScaleXEf
	.long	_ZN10GuiElement9SetScaleYEf
	.long	_ZN10GuiElement8GetScaleEv
	.long	_ZN10GuiElement9GetScaleXEv
	.long	_ZN10GuiElement9GetScaleYEv
	.long	_ZN10GuiElement6RumbleEv
	.long	_ZN10GuiElement9SetRumbleEb
	.long	_ZN10GuiElement9SetEffectEiii
	.long	_ZN10GuiElement15SetEffectOnOverEiii
	.long	_ZN10GuiElement13SetEffectGrowEv
	.long	_ZN10GuiElement12ResetEffectsEv
	.long	_ZNK10GuiElement9GetEffectEv
	.long	_ZNK10GuiElement10IsAnimatedEv
	.long	_ZN8GuiFrame9SetBoundsE4RectIiE
	.long	_ZN10GuiElement8IsInsideEii
	.long	_ZN10GuiElement11SetPositionEii
	.long	_ZN10GuiElement11SetPositionEiii
	.long	_ZN8GuiFrame11GetSelectedEv
	.long	_ZN10GuiElement12SetAlignmentEi
	.long	_ZNK10GuiElement12GetAlignmentEv
	.long	_ZN8GuiFrame6UpdateEP10GuiTrigger
	.long	_ZN8GuiFrame4DrawEv
	.long	_ZN10GuiElement13UpdateEffectsEv
	.long	_ZN8GuiFrame5CloseEv
	.long	_ZN15SettingsBrowser4showEv
	.long	_ZN8GuiFrame4hideEv
	.long	_ZN8GuiFrame4execEv
	.long	_ZN8GuiFrame12updateEventsEv
	.long	_ZN20FeaturesSettingsMenu15SetupOptionNameEv
	.long	_ZN20FeaturesSettingsMenu15SetOptionValuesEv
	.long	_ZN20FeaturesSettingsMenu14OnBrowserClickEP16GuiOptionBrowseri
	.long	-176
	.long	_ZTI20FeaturesSettingsMenu
	.long	_ZThn176_N20FeaturesSettingsMenuD1Ev
	.long	_ZThn176_N20FeaturesSettingsMenuD0Ev
	.long	_ZN7sigslot15single_threaded4lockEv
	.long	_ZN7sigslot15single_threaded6unlockEv
	.weak	_ZN20FeaturesSettingsMenuD1Ev
	.set	_ZN20FeaturesSettingsMenuD1Ev,_ZN20FeaturesSettingsMenuD2Ev
	.set	.LTHUNK0,_ZN20FeaturesSettingsMenuD1Ev
	.set	.LTHUNK1,_ZN20FeaturesSettingsMenuD0Ev
	.globl _ZN20FeaturesSettingsMenuC1Ev
	.set	_ZN20FeaturesSettingsMenuC1Ev,_ZN20FeaturesSettingsMenuC2Ev
	.section	.rodata
	.align 2
	.set	.LANCHOR0,. + 0
	.type	_ZL18ScreenshotTypeText, @object
	.size	_ZL18ScreenshotTypeText, 28
_ZL18ScreenshotTypeText:
	.long	.LC6
	.long	.LC7
	.long	.LC8
	.long	.LC9
	.long	.LC10
	.long	.LC11
	.long	.LC12
	.section	.rodata.cst4,"aM",@progbits,4
	.align 2
.LC1:
	.4byte	1501560836
.LC2:
	.4byte	1132396544
.LC3:
	.4byte	1056964608
	.section	.rodata.str1.4,"aMS",@progbits,1
	.align 2
.LC4:
	.string	"Screenshot Format"
	.zero	2
.LC5:
	.string	"Features Menu"
	.zero	2
.LC6:
	.string	"PNG"
.LC7:
	.string	"JPEG"
	.zero	3
.LC8:
	.string	"GIF"
.LC9:
	.string	"TIFF"
	.zero	3
.LC10:
	.string	"BMP"
.LC11:
	.string	"GD"
	.zero	1
.LC12:
	.string	"GD2"
	.section	".text"
.Letext0:
	.file 9 "d:\\devkitpro\\devkitppc\\bin\\../lib/gcc/powerpc-eabi/4.6.3/../../../../powerpc-eabi/include/stdint.h"
	.file 10 "d:/devkitPro/libogc/include/gctypes.h"
	.file 11 "d:/devkitPro/libogc/include/ogc/gx.h"
	.file 12 "d:\\devkitpro\\devkitppc\\bin\\../lib/gcc/powerpc-eabi/4.6.3/../../../../powerpc-eabi/include/machine/_types.h"
	.file 13 "d:\\devkitpro\\devkitppc\\bin\\../lib/gcc/powerpc-eabi/4.6.3/../../../../powerpc-eabi/include/sys/lock.h"
	.file 14 "d:\\devkitpro\\devkitppc\\bin\\../lib/gcc/powerpc-eabi/4.6.3/include/stddef.h"
	.file 15 "d:\\devkitpro\\devkitppc\\bin\\../lib/gcc/powerpc-eabi/4.6.3/../../../../powerpc-eabi/include/sys/_types.h"
	.file 16 "d:\\devkitpro\\devkitppc\\bin\\../lib/gcc/powerpc-eabi/4.6.3/../../../../powerpc-eabi/include/sys/reent.h"
	.file 17 "d:\\devkitpro\\devkitppc\\bin\\../lib/gcc/powerpc-eabi/4.6.3/../../../../powerpc-eabi/include/time.h"
	.file 18 "<built-in>"
	.file 19 "d:\\devkitpro\\devkitppc\\bin\\../lib/gcc/powerpc-eabi/4.6.3/../../../../powerpc-eabi/include/stdio.h"
	.file 20 "d:\\devkitpro\\devkitppc\\bin\\../lib/gcc/powerpc-eabi/4.6.3/../../../../powerpc-eabi/include/wchar.h"
	.file 21 "d:\\devkitpro\\devkitppc\\bin\\../lib/gcc/powerpc-eabi/4.6.3/../../../../powerpc-eabi/include/c++/4.6.3/cwchar"
	.file 22 "d:\\devkitpro\\devkitppc\\bin\\../lib/gcc/powerpc-eabi/4.6.3/../../../../powerpc-eabi/include/c++/4.6.3/powerpc-eabi/bits/c++config.h"
	.file 23 "d:\\devkitpro\\devkitppc\\bin\\../lib/gcc/powerpc-eabi/4.6.3/../../../../powerpc-eabi/include/c++/4.6.3/clocale"
	.file 24 "d:\\devkitpro\\devkitppc\\bin\\../lib/gcc/powerpc-eabi/4.6.3/../../../../powerpc-eabi/include/c++/4.6.3/bits/stringfwd.h"
	.file 25 "d:\\devkitpro\\devkitppc\\bin\\../lib/gcc/powerpc-eabi/4.6.3/../../../../powerpc-eabi/include/c++/4.6.3/bits/stl_list.h"
	.file 26 "d:\\devkitpro\\devkitppc\\bin\\../lib/gcc/powerpc-eabi/4.6.3/../../../../powerpc-eabi/include/c++/4.6.3/bits/stl_tree.h"
	.file 27 "d:\\devkitpro\\devkitppc\\bin\\../lib/gcc/powerpc-eabi/4.6.3/../../../../powerpc-eabi/include/c++/4.6.3/bits/move.h"
	.file 28 "d:\\devkitpro\\devkitppc\\bin\\../lib/gcc/powerpc-eabi/4.6.3/../../../../powerpc-eabi/include/c++/4.6.3/bits/cpp_type_traits.h"
	.file 29 "d:\\devkitpro\\devkitppc\\bin\\../lib/gcc/powerpc-eabi/4.6.3/../../../../powerpc-eabi/include/c++/4.6.3/ext/new_allocator.h"
	.file 30 "d:\\devkitpro\\devkitppc\\bin\\../lib/gcc/powerpc-eabi/4.6.3/../../../../powerpc-eabi/include/c++/4.6.3/debug/debug.h"
	.file 31 "d:\\devkitpro\\devkitppc\\bin\\../lib/gcc/powerpc-eabi/4.6.3/../../../../powerpc-eabi/include/c++/4.6.3/bits/char_traits.h"
	.file 32 "d:\\devkitpro\\devkitppc\\bin\\../lib/gcc/powerpc-eabi/4.6.3/../../../../powerpc-eabi/include/c++/4.6.3/bits/allocator.h"
	.file 33 "d:\\devkitpro\\devkitppc\\bin\\../lib/gcc/powerpc-eabi/4.6.3/../../../../powerpc-eabi/include/locale.h"
	.file 34 "d:\\devkitpro\\devkitppc\\bin\\../lib/gcc/powerpc-eabi/4.6.3/../../../../powerpc-eabi/include/c++/4.6.3/powerpc-eabi/bits/atomic_word.h"
	.file 35 "d:\\devkitpro\\devkitppc\\bin\\../lib/gcc/powerpc-eabi/4.6.3/../../../../powerpc-eabi/include/c++/4.6.3/ext/numeric_traits.h"
	.file 36 "d:\\devkitpro\\devkitppc\\bin\\../lib/gcc/powerpc-eabi/4.6.3/../../../../powerpc-eabi/include/c++/4.6.3/bits/basic_string.tcc"
	.file 37 "d:\\devkitpro\\devkitppc\\bin\\../lib/gcc/powerpc-eabi/4.6.3/../../../../powerpc-eabi/include/c++/4.6.3/bits/stl_iterator_base_types.h"
	.file 38 "d:\\devkitpro\\devkitppc\\bin\\../lib/gcc/powerpc-eabi/4.6.3/../../../../powerpc-eabi/include/c++/4.6.3/bits/stl_iterator.h"
	.file 39 "d:/Projects/SaveGameManager/savegame-manager-gx/trunk/source/Settings/menus/../../GUI/../Settings/../FileOperations/FileExtensions.h"
	.file 40 "d:/Projects/SaveGameManager/savegame-manager-gx/trunk/source/Settings/menus/../../GUI/../Settings/../Controls/AppControls.hpp"
	.file 41 "d:/Projects/SaveGameManager/savegame-manager-gx/trunk/source/Settings/menus/../../GUI/../Settings/CSettings.h"
	.file 42 "d:/Projects/SaveGameManager/savegame-manager-gx/trunk/source/Settings/menus/../../GUI/../Tools/Rect.h"
	.file 43 "d:/Projects/SaveGameManager/savegame-manager-gx/trunk/source/Settings/menus/../../GUI/../Settings/SettingsEnums.h"
	.file 44 "d:\\devkitpro\\devkitppc\\bin\\../lib/gcc/powerpc-eabi/4.6.3/../../../../powerpc-eabi/include/c++/4.6.3/bits/list.tcc"
	.file 45 "d:\\devkitpro\\devkitppc\\bin\\../lib/gcc/powerpc-eabi/4.6.3/../../../../powerpc-eabi/include/c++/4.6.3/bits/stl_function.h"
	.file 46 "d:\\devkitpro\\devkitppc\\bin\\../lib/gcc/powerpc-eabi/4.6.3/../../../../powerpc-eabi/include/c++/4.6.3/bits/stl_set.h"
	.file 47 "d:\\devkitpro\\devkitppc\\bin\\../lib/gcc/powerpc-eabi/4.6.3/../../../../powerpc-eabi/include/c++/4.6.3/bits/stl_pair.h"
	.file 48 "d:\\devkitpro\\devkitppc\\bin\\../lib/gcc/powerpc-eabi/4.6.3/../../../../powerpc-eabi/include/c++/4.6.3/new"