   1              		.file	"fileops.cpp"
   2              		.section	".text"
   3              	.Ltext0:
   4              		.align 2
   5              		.type	_Z9CheckFileSs.constprop.19, @function
   6              	_Z9CheckFileSs.constprop.19:
   7              	.LFB917:
   8              		.file 1 "d:/Projects/SaveGameManager/savegame-manager-gx/trunk/source/FileOperations/fileops.cpp"
   9              		.loc 1 114 0
  10              		.cfi_startproc
  11              	.LVL0:
  12 0000 7C0802A6 		mflr 0
  13 0004 9421FFA0 		stwu 1,-96(1)
  14              	.LCFI0:
  15              		.cfi_def_cfa_offset 96
  16              		.cfi_register 65, 0
  17 0008 93C10058 		stw 30,88(1)
  18 000c 90010064 		stw 0,100(1)
  19 0010 93E1005C 		stw 31,92(1)
  20              		.loc 1 114 0
  21 0014 7C7F1B78 		mr 31,3
  22              		.cfi_offset 31, -4
  23              		.cfi_offset 65, 4
  24              		.cfi_offset 30, -8
  25              	.LVL1:
  26              	.LBB1133:
  27              	.LBB1134:
  28              	.LBB1135:
  29              	.LBB1136:
  30              	.LBB1137:
  31              	.LBB1138:
  32              	.LBB1139:
  33              		.file 2 "d:\\devkitpro\\devkitppc\\bin\\../lib/gcc/powerpc-eabi/4.6.3/../../../../powerpc-eabi/inc
  34              		.loc 2 288 0
  35 0018 81230000 		lwz 9,0(3)
  36              	.LBE1139:
  37              	.LBE1138:
  38              	.LBE1137:
  39              		.loc 2 711 0
  40 001c 83C9FFF4 		lwz 30,-12(9)
  41              	.LBE1136:
  42              	.LBE1135:
  43              	.LBE1134:
  44              		.loc 1 116 0
  45 0020 2F9E0000 		cmpwi 7,30,0
  46 0024 40BE0030 		bne+ 7,.L12
  47 0028 48000098 		b .L17
  48              	.LVL2:
  49              	.L6:
  50              	.LBB1140:
  51              	.LBB1141:
  52              		.loc 2 711 0
  53 002c 8129FFF4 		lwz 9,-12(9)
  54              	.LBE1141:
  55              	.LBE1140:
  56              		.loc 1 122 0
  57 0030 3889FFFF 		addi 4,9,-1
  58              	.LVL3:
  59              	.LBB1142:
  60              	.LBB1143:
  61              	.LBB1144:
  62              	.LBB1145:
  63              		.loc 2 318 0
  64 0034 7F892040 		cmplw 7,9,4
  65 0038 419C0110 		blt- 7,.L16
  66              	.LVL4:
  67              	.LBE1145:
  68              	.LBE1144:
  69              		.loc 2 1349 0
  70 003c 7FE3FB78 		mr 3,31
  71 0040 38A00001 		li 5,1
  72 0044 38C00000 		li 6,0
  73 0048 48000001 		bl _ZNSs9_M_mutateEjjj
  74              	.LVL5:
  75 004c 813F0000 		lwz 9,0(31)
  76 0050 83C9FFF4 		lwz 30,-12(9)
  77              	.LVL6:
  78              	.L12:
  79              	.LBE1143:
  80              	.LBE1142:
  81              	.LBB1149:
  82              	.LBB1150:
  83              	.LBB1151:
  84              	.LBB1152:
  85              		.loc 2 311 0
  86 0054 8009FFFC 		lwz 0,-4(9)
  87              	.LBE1152:
  88              	.LBE1151:
  89              	.LBE1150:
  90              	.LBE1149:
  91              		.loc 1 121 0
  92 0058 3BDEFFFF 		addi 30,30,-1
  93              	.LVL7:
  94              	.LBB1156:
  95              	.LBB1155:
  96              	.LBB1154:
  97              	.LBB1153:
  98              		.loc 2 311 0
  99 005c 2F800000 		cmpwi 7,0,0
 100 0060 419C0010 		blt- 7,.L5
 101              		.loc 2 312 0
 102 0064 7FE3FB78 		mr 3,31
 103 0068 48000001 		bl _ZNSs12_M_leak_hardEv
 104 006c 813F0000 		lwz 9,0(31)
 105              	.L5:
 106              	.LBE1153:
 107              	.LBE1154:
 108              	.LBE1155:
 109              	.LBE1156:
 110              		.loc 1 121 0
 111 0070 7C09F0AE 		lbzx 0,9,30
 112 0074 2F80002F 		cmpwi 7,0,47
 113 0078 419EFFB4 		beq+ 7,.L6
 114              		.loc 1 124 0
 115 007c 7FE3FB78 		mr 3,31
 116 0080 3880002F 		li 4,47
 117 0084 38A00000 		li 5,0
 118 0088 48000001 		bl _ZNKSs4findEcj
 119              	.LVL8:
 120              		.loc 1 125 0
 121 008c 2F83FFFF 		cmpwi 7,3,-1
 122 0090 419E004C 		beq- 7,.L7
 123              	.LVL9:
 124              	.L13:
 125              	.LBB1157:
 126              	.LBB1158:
 127              	.LBB1159:
 128              	.LBB1160:
 129              	.LBB1161:
 130              	.LBB1162:
 131              	.LBB1163:
 132              		.file 3 "d:\\devkitpro\\devkitppc\\bin\\../lib/gcc/powerpc-eabi/4.6.3/../../../../powerpc-eabi/inc
 133              		.loc 3 245 0
 134 0094 807F0000 		lwz 3,0(31)
 135              	.L8:
 136              	.LBE1163:
 137              	.LBE1162:
 138              	.LBE1161:
 139              	.LBE1160:
 140              	.LBE1159:
 141              	.LBE1158:
 142              	.LBE1157:
 143              		.loc 1 128 0
 144 0098 38810008 		addi 4,1,8
 145 009c 48000001 		bl stat
 146              	.LBE1133:
 147              		.loc 1 132 0
 148 00a0 80010064 		lwz 0,100(1)
 149              	.LBB1188:
 150              		.loc 1 114 0
 151 00a4 7C630034 		cntlzw 3,3
 152              	.LBE1188:
 153              		.loc 1 132 0
 154 00a8 83C10058 		lwz 30,88(1)
 155 00ac 7C0803A6 		mtlr 0
 156 00b0 83E1005C 		lwz 31,92(1)
 157              	.LVL10:
 158              	.LBB1189:
 159              		.loc 1 114 0
 160 00b4 5463D97E 		srwi 3,3,5
 161              	.LBE1189:
 162              		.loc 1 132 0
 163 00b8 38210060 		addi 1,1,96
 164              		.cfi_remember_state
 165              	.LCFI1:
 166              		.cfi_def_cfa_offset 0
 167              		.cfi_restore 31
 168              		.cfi_restore 30
 169 00bc 4E800020 		blr
 170              	.LVL11:
 171              	.L17:
 172              	.LCFI2:
 173              		.cfi_restore_state
 174 00c0 80010064 		lwz 0,100(1)
 175              	.LBB1190:
 176              		.loc 1 117 0
 177 00c4 38600000 		li 3,0
 178              	.LVL12:
 179              	.LBE1190:
 180              		.loc 1 132 0
 181 00c8 83C10058 		lwz 30,88(1)
 182 00cc 7C0803A6 		mtlr 0
 183 00d0 83E1005C 		lwz 31,92(1)
 184              	.LVL13:
 185 00d4 38210060 		addi 1,1,96
 186              		.cfi_remember_state
 187              		.cfi_restore 30
 188              		.cfi_restore 31
 189              	.LCFI3:
 190              		.cfi_def_cfa_offset 0
 191 00d8 4E800020 		blr
 192              	.LVL14:
 193              	.L7:
 194              	.LCFI4:
 195              		.cfi_restore_state
 196              	.LBB1191:
 197              	.LBB1186:
 198              	.LBB1185:
 199              	.LBB1184:
 200              	.LBB1172:
 201              	.LBB1173:
 202              	.LBB1174:
 203              	.LBB1175:
 204              	.LBB1176:
 205              		.loc 2 288 0
 206 00dc 813F0000 		lwz 9,0(31)
 207              	.LBE1176:
 208              	.LBE1175:
 209              	.LBE1174:
 210              		.loc 2 711 0
 211 00e0 8169FFF4 		lwz 11,-12(9)
 212              	.LBE1173:
 213              	.LBE1172:
 214              		.loc 2 1046 0
 215 00e4 8009FFF8 		lwz 0,-8(9)
 216              		.loc 2 1045 0
 217 00e8 3BCB0001 		addi 30,11,1
 218              	.LVL15:
 219              		.loc 2 1046 0
 220 00ec 7F9E0040 		cmplw 7,30,0
 221 00f0 419D0010 		bgt- 7,.L9
 222              	.LVL16:
 223 00f4 8009FFFC 		lwz 0,-4(9)
 224 00f8 2F800000 		cmpwi 7,0,0
 225 00fc 409D0018 		ble- 7,.L10
 226              	.LVL17:
 227              	.L9:
 228              		.loc 2 1047 0
 229 0100 7FE3FB78 		mr 3,31
 230              	.LVL18:
 231 0104 7FC4F378 		mr 4,30
 232 0108 48000001 		bl _ZNSs7reserveEj
 233 010c 813F0000 		lwz 9,0(31)
 234 0110 8169FFF4 		lwz 11,-12(9)
 235              	.L10:
 236              	.LVL19:
 237              	.LBB1177:
 238              	.LBB1178:
 239              		.loc 3 245 0
 240 0114 3800002F 		li 0,47
 241 0118 7C0959AE 		stbx 0,9,11
 242              	.LVL20:
 243              	.LBE1178:
 244              	.LBE1177:
 245              	.LBB1179:
 246              	.LBB1170:
 247              		.loc 2 205 0
 248 011c 3D600000 		lis 11,_ZNSs4_Rep20_S_empty_rep_storageE@ha
 249              	.LVL21:
 250 0120 380B0000 		la 0,_ZNSs4_Rep20_S_empty_rep_storageE@l(11)
 251              	.LBE1170:
 252              	.LBE1179:
 253              	.LBB1180:
 254              	.LBB1181:
 255              	.LBB1182:
 256              		.loc 2 288 0
 257 0124 807F0000 		lwz 3,0(31)
 258              	.LVL22:
 259              	.LBE1182:
 260              	.LBE1181:
 261              	.LBE1180:
 262              		.loc 2 1049 0
 263 0128 3923FFF4 		addi 9,3,-12
 264              	.LBB1183:
 265              	.LBB1171:
 266              		.loc 2 205 0
 267 012c 7F890000 		cmpw 7,9,0
 268 0130 419EFF68 		beq+ 7,.L8
 269              	.LBB1165:
 270              	.LBB1166:
 271              		.loc 2 199 0
 272 0134 38000000 		li 0,0
 273              	.LBE1166:
 274              	.LBE1165:
 275              		.loc 2 209 0
 276 0138 93C3FFF4 		stw 30,-12(3)
 277              	.LVL23:
 278              	.LBB1168:
 279              	.LBB1167:
 280              		.loc 2 199 0
 281 013c 9003FFFC 		stw 0,-4(3)
 282              	.LBE1167:
 283              	.LBE1168:
 284              	.LBB1169:
 285              	.LBB1164:
 286              		.loc 3 245 0
 287 0140 7C03F1AE 		stbx 0,3,30
 288 0144 4BFFFF50 		b .L13
 289              	.LVL24:
 290              	.L16:
 291              	.LBE1164:
 292              	.LBE1169:
 293              	.LBE1171:
 294              	.LBE1183:
 295              	.LBE1184:
 296              	.LBE1185:
 297              	.LBE1186:
 298              	.LBB1187:
 299              	.LBB1148:
 300              	.LBB1147:
 301              	.LBB1146:
 302              		.loc 2 319 0
 303 0148 3C600000 		lis 3,.LC0@ha
 304 014c 38630000 		la 3,.LC0@l(3)
 305 0150 48000001 		bl _ZSt20__throw_out_of_rangePKc
 306              	.LVL25:
 307              	.LVL26:
 308              	.LBE1146:
 309              	.LBE1147:
 310              	.LBE1148:
 311              	.LBE1187:
 312              	.LBE1191:
 313              		.cfi_endproc
 314              	.LFE917:
 315              		.size	_Z9CheckFileSs.constprop.19, .-_Z9CheckFileSs.constprop.19
 316              		.align 2
 317              		.type	_Z15RemoveDirectorySs.constprop.16, @function
 318              	_Z15RemoveDirectorySs.constprop.16:
 319              	.LFB920:
 320              		.loc 1 508 0
 321              		.cfi_startproc
 322              		.cfi_personality 0,__gxx_personality_v0
 323              		.cfi_lsda 0,.LLSDA920
 324              	.LVL27:
 325 0154 7C0802A6 		mflr 0
 326 0158 9421FFC0 		stwu 1,-64(1)
 327              	.LCFI5:
 328              		.cfi_def_cfa_offset 64
 329              		.cfi_register 65, 0
 330 015c 93810030 		stw 28,48(1)
 331 0160 7C7C1B78 		mr 28,3
 332              		.cfi_offset 28, -16
 333              	.LVL28:
 334 0164 90010044 		stw 0,68(1)
 335 0168 9361002C 		stw 27,44(1)
 336              	.LBB1349:
 337              	.LBB1350:
 338              	.LBB1351:
 339              	.LBB1352:
 340              		.loc 2 711 0
 341 016c 81230000 		lwz 9,0(3)
 342              	.LBE1352:
 343              	.LBE1351:
 344              	.LBE1350:
 345              	.LBE1349:
 346              		.loc 1 508 0
 347 0170 93A10034 		stw 29,52(1)
 348              	.LBB1454:
 349              		.loc 1 510 0
 350 0174 8009FFF4 		lwz 0,-12(9)
 351              		.cfi_offset 29, -12
 352              		.cfi_offset 27, -20
 353              		.cfi_offset 65, 4
 354              	.LBE1454:
 355              		.loc 1 508 0
 356 0178 93C10038 		stw 30,56(1)
 357              	.LBB1455:
 358              		.loc 1 510 0
 359 017c 2F800000 		cmpwi 7,0,0
 360              	.LBE1455:
 361              		.loc 1 508 0
 362 0180 93E1003C 		stw 31,60(1)
 363              	.LBB1456:
 364              		.loc 1 510 0
 365 0184 419E01C4 		beq- 7,.L49
 366              		.cfi_offset 31, -4
 367              		.cfi_offset 30, -8
 368              	.LVL29:
 369              		.loc 1 513 0
 370 0188 38610010 		addi 3,1,16
 371              	.LVL30:
 372 018c 7F84E378 		mr 4,28
 373              	.LEHB0:
 374 0190 48000001 		bl _ZNSsC1ERKSs
 375              	.LEHE0:
 376 0194 3860000C 		li 3,12
 377              	.LEHB1:
 378 0198 48000001 		bl _Znwj
 379              	.LEHE1:
 380 019c 38810010 		addi 4,1,16
 381 01a0 38A00000 		li 5,0
 382 01a4 38C00003 		li 6,3
 383 01a8 7C7D1B78 		mr 29,3
 384              	.LEHB2:
 385 01ac 48000001 		bl _ZN7DirListC1ESsPKcj
 386              	.LEHE2:
 387              	.LVL31:
 388              	.LBB1353:
 389              	.LBB1354:
 390              	.LBB1355:
 391              	.LBB1356:
 392              	.LBB1357:
 393              		.loc 2 288 0
 394 01b0 81210010 		lwz 9,16(1)
 395              	.LBE1357:
 396              	.LBE1356:
 397              	.LBE1355:
 398              	.LBB1358:
 399              	.LBB1359:
 400              		.loc 2 235 0
 401 01b4 3F600000 		lis 27,_ZNSs4_Rep20_S_empty_rep_storageE@ha
 402 01b8 3B7B0000 		la 27,_ZNSs4_Rep20_S_empty_rep_storageE@l(27)
 403              	.LBE1359:
 404              	.LBE1358:
 405              		.loc 2 534 0
 406 01bc 3869FFF4 		addi 3,9,-12
 407              	.LVL32:
 408              	.LBB1368:
 409              	.LBB1366:
 410              		.loc 2 235 0
 411 01c0 7F83D800 		cmpw 7,3,27
 412 01c4 41BE0028 		beq+ 7,.L57
 413 01c8 480001B4 		b .L62
 414              	.LVL33:
 415              	.L24:
 416              	.LBE1366:
 417              	.LBE1368:
 418              	.LBE1354:
 419              	.LBE1353:
 420              	.LBB1371:
 421              	.LBB1372:
 422              		.loc 2 711 0
 423 01cc 8129FFF4 		lwz 9,-12(9)
 424              	.LBE1372:
 425              	.LBE1371:
 426              		.loc 1 516 0
 427 01d0 3889FFFF 		addi 4,9,-1
 428              	.LVL34:
 429              	.LBB1373:
 430              	.LBB1374:
 431              	.LBB1375:
 432              	.LBB1376:
 433              		.loc 2 318 0
 434 01d4 7F892040 		cmplw 7,9,4
 435 01d8 419C0198 		blt- 7,.L59
 436              	.LVL35:
 437              	.LBE1376:
 438              	.LBE1375:
 439              		.loc 2 1349 0
 440 01dc 7F83E378 		mr 3,28
 441 01e0 38A00001 		li 5,1
 442 01e4 38C00000 		li 6,0
 443              	.LEHB3:
 444 01e8 48000001 		bl _ZNSs9_M_mutateEjjj
 445              	.LVL36:
 446              	.L57:
 447              	.LBE1374:
 448              	.LBE1373:
 449              	.LBB1380:
 450              	.LBB1381:
 451              	.LBB1382:
 452              	.LBB1383:
 453              	.LBB1384:
 454              		.loc 2 288 0
 455 01ec 813C0000 		lwz 9,0(28)
 456              	.LBE1384:
 457              	.LBE1383:
 458              	.LBE1382:
 459              	.LBE1381:
 460              	.LBE1380:
 461              	.LBB1385:
 462              	.LBB1386:
 463              	.LBB1387:
 464              	.LBB1388:
 465              		.loc 2 311 0
 466 01f0 8009FFFC 		lwz 0,-4(9)
 467              	.LBE1388:
 468              	.LBE1387:
 469              	.LBE1386:
 470              	.LBE1385:
 471              		.loc 1 515 0
 472 01f4 83E9FFF4 		lwz 31,-12(9)
 473              	.LBB1395:
 474              	.LBB1393:
 475              	.LBB1391:
 476              	.LBB1389:
 477              		.loc 2 311 0
 478 01f8 2F800000 		cmpwi 7,0,0
 479              	.LBE1389:
 480              	.LBE1391:
 481              	.LBE1393:
 482              	.LBE1395:
 483              		.loc 1 515 0
 484 01fc 3BFFFFFF 		addi 31,31,-1
 485              	.LVL37:
 486              	.LBB1396:
 487              	.LBB1394:
 488              	.LBB1392:
 489              	.LBB1390:
 490              		.loc 2 311 0
 491 0200 419C0010 		blt- 7,.L23
 492              		.loc 2 312 0
 493 0204 7F83E378 		mr 3,28
 494 0208 48000001 		bl _ZNSs12_M_leak_hardEv
 495 020c 813C0000 		lwz 9,0(28)
 496              	.L23:
 497              	.LBE1390:
 498              	.LBE1392:
 499              	.LBE1394:
 500              	.LBE1396:
 501              		.loc 1 515 0
 502 0210 7C09F8AE 		lbzx 0,9,31
 503 0214 2F80002F 		cmpwi 7,0,47
 504 0218 419EFFB4 		beq+ 7,.L24
 505              	.LVL38:
 506              	.LBB1397:
 507              	.LBB1398:
 508              		.loc 1 654 0
 509 021c 813D0000 		lwz 9,0(29)
 510              	.LBB1399:
 511              	.LBB1400:
 512              		.file 4 "d:\\devkitpro\\devkitppc\\bin\\../lib/gcc/powerpc-eabi/4.6.3/../../../../powerpc-eabi/inc
 513              		.loc 4 571 0
 514 0220 3C00AAAA 		lis 0,0xaaaa
 515 0224 817D0004 		lwz 11,4(29)
 516 0228 6000AAAB 		ori 0,0,43691
 517 022c 7D695850 		subf 11,9,11
 518 0230 7D6B1E70 		srawi 11,11,3
 519              	.LBE1400:
 520              	.LBE1399:
 521              	.LBE1398:
 522              		.loc 1 518 0
 523 0234 7C0B01D7 		mullw. 0,11,0
 524 0238 408100C4 		ble- 0,.L25
 525 023c 3BC00000 		li 30,0
 526 0240 3BE00000 		li 31,0
 527              	.LVL39:
 528 0244 48000068 		b .L44
 529              	.LVL40:
 530              	.L61:
 531              	.LBB1405:
 532              	.LBB1406:
 533              	.LBB1407:
 534              	.LBB1408:
 535              		.loc 4 696 0
 536 0248 7D69F214 		add 11,9,30
 537              	.LBE1408:
 538              	.LBE1407:
 539              	.LBE1406:
 540              	.LBE1405:
 541              		.loc 1 527 0
 542 024c 7C89F02E 		lwzx 4,9,30
 543              		.loc 1 526 0
 544 0250 880B0010 		lbz 0,16(11)
 545 0254 2F800000 		cmpwi 7,0,0
 546 0258 419E0060 		beq- 7,.L26
 547              	.LVL41:
 548              		.loc 1 527 0
 549 025c 38610014 		addi 3,1,20
 550 0260 38A1000B 		addi 5,1,11
 551 0264 48000001 		bl _ZNSsC1EPKcRKSaIcE
 552              	.LEHE3:
 553 0268 38610014 		addi 3,1,20
 554              	.LEHB4:
 555 026c 4BFFFEE9 		bl _Z15RemoveDirectorySs.constprop.16
 556              	.LEHE4:
 557              	.LVL42:
 558              	.LBB1412:
 559              	.LBB1413:
 560              	.LBB1414:
 561              	.LBB1415:
 562              	.LBB1416:
 563              	.LBB1417:
 564              		.loc 2 288 0
 565 0270 81210014 		lwz 9,20(1)
 566              	.LBE1417:
 567              	.LBE1416:
 568              	.LBE1415:
 569              		.loc 2 534 0
 570 0274 3869FFF4 		addi 3,9,-12
 571              	.LVL43:
 572              	.LBB1418:
 573              	.LBB1419:
 574              		.loc 2 235 0
 575 0278 7F83D800 		cmpw 7,3,27
 576 027c 409E00D4 		bne- 7,.L60
 577              	.LVL44:
 578              	.L43:
 579              	.LBE1419:
 580              	.LBE1418:
 581              	.LBE1414:
 582              	.LBE1413:
 583              	.LBE1412:
 584              	.LBB1430:
 585              		.loc 1 654 0
 586 0280 813D0000 		lwz 9,0(29)
 587              	.LBB1403:
 588              	.LBB1401:
 589              		.loc 4 571 0
 590 0284 3C00AAAA 		lis 0,0xaaaa
 591 0288 817D0004 		lwz 11,4(29)
 592 028c 6000AAAB 		ori 0,0,43691
 593              	.LBE1401:
 594              	.LBE1403:
 595              	.LBE1430:
 596              		.loc 1 518 0
 597 0290 3BFF0001 		addi 31,31,1
 598              	.LVL45:
 599              	.LBB1431:
 600              	.LBB1404:
 601              	.LBB1402:
 602              		.loc 4 571 0
 603 0294 3BDE0018 		addi 30,30,24
 604 0298 7D695850 		subf 11,9,11
 605 029c 7D6B1E70 		srawi 11,11,3
 606 02a0 7C0B01D6 		mullw 0,11,0
 607              	.LBE1402:
 608              	.LBE1404:
 609              	.LBE1431:
 610              		.loc 1 518 0
 611 02a4 7F9F0000 		cmpw 7,31,0
 612 02a8 409C0054 		bge- 7,.L25
 613              	.LVL46:
 614              	.L44:
 615              	.LBB1432:
 616              	.LBB1411:
 617              	.LBB1409:
 618              	.LBB1410:
 619              		.file 5 "d:/Projects/SaveGameManager/savegame-manager-gx/trunk/source/FileOperations/DirList.h"
 620              		.loc 5 90 0
 621 02ac 7F80F800 		cmpw 7,0,31
 622              		.loc 5 60 0
 623 02b0 38800000 		li 4,0
 624              		.loc 5 90 0
 625 02b4 41BDFF94 		bgt- 7,.L61
 626              	.L26:
 627              	.LBE1410:
 628              	.LBE1409:
 629              	.LBE1411:
 630              	.LBE1432:
 631              		.loc 1 529 0
 632 02b8 38610018 		addi 3,1,24
 633 02bc 38A1000C 		addi 5,1,12
 634              	.LEHB5:
 635 02c0 48000001 		bl _ZNSsC1EPKcRKSaIcE
 636              	.LEHE5:
 637              	.LVL47:
 638              	.LBB1433:
 639              	.LBB1434:
 640              		.loc 1 546 0
 641 02c4 80610018 		lwz 3,24(1)
 642              	.LEHB6:
 643 02c8 48000001 		bl remove
 644              	.LEHE6:
 645              	.LVL48:
 646              	.LBE1434:
 647              	.LBE1433:
 648              	.LBB1435:
 649              	.LBB1436:
 650              	.LBB1437:
 651              	.LBB1438:
 652              	.LBB1439:
 653              	.LBB1440:
 654              		.loc 2 288 0
 655 02cc 81210018 		lwz 9,24(1)
 656              	.LBE1440:
 657              	.LBE1439:
 658              	.LBE1438:
 659              		.loc 2 534 0
 660 02d0 3869FFF4 		addi 3,9,-12
 661              	.LVL49:
 662              	.LBB1441:
 663              	.LBB1442:
 664              		.loc 2 235 0
 665 02d4 7F83D800 		cmpw 7,3,27
 666 02d8 419EFFA8 		beq+ 7,.L43
 667              	.LVL50:
 668              	.LBB1443:
 669              	.LBB1444:
 670              	.LBB1445:
 671              		.file 6 "d:\\devkitpro\\devkitppc\\bin\\../lib/gcc/powerpc-eabi/4.6.3/../../../../powerpc-eabi/inc
 672              		.loc 6 66 0
 673 02dc 8169FFFC 		lwz 11,-4(9)
 674              	.LVL51:
 675              	.LBE1445:
 676              	.LBE1444:
 677              	.LBE1443:
 678              		.loc 2 240 0
 679 02e0 2F8B0000 		cmpwi 7,11,0
 680              	.LBB1448:
 681              	.LBB1447:
 682              	.LBB1446:
 683              		.loc 6 67 0
 684 02e4 396BFFFF 		addi 11,11,-1
 685 02e8 9169FFFC 		stw 11,-4(9)
 686              	.LBE1446:
 687              	.LBE1447:
 688              	.LBE1448:
 689              		.loc 2 240 0
 690 02ec 419DFF94 		bgt+ 7,.L43
 691              		.loc 2 244 0
 692 02f0 38810008 		addi 4,1,8
 693 02f4 48000001 		bl _ZNSs4_Rep10_M_destroyERKSaIcE
 694              	.LVL52:
 695 02f8 4BFFFF88 		b .L43
 696              	.LVL53:
 697              	.L25:
 698              	.LBE1442:
 699              	.LBE1441:
 700              	.LBE1437:
 701              	.LBE1436:
 702              	.LBE1435:
 703              	.LBE1397:
 704              		.loc 1 531 0
 705 02fc 7FA3EB78 		mr 3,29
 706              	.LEHB7:
 707 0300 48000001 		bl _ZN7DirListD1Ev
 708 0304 7FA3EB78 		mr 3,29
 709 0308 48000001 		bl _ZdlPv
 710              	.LVL54:
 711              		.loc 1 533 0
 712 030c 807C0000 		lwz 3,0(28)
 713 0310 48000001 		bl remove
 714 0314 2F830000 		cmpwi 7,3,0
 715              		.loc 1 536 0
 716 0318 3860FFFF 		li 3,-1
 717              		.loc 1 533 0
 718 031c 409E0008 		bne- 7,.L19
 719              		.loc 1 534 0
 720 0320 38600001 		li 3,1
 721              	.LVL55:
 722              	.L19:
 723              	.LBE1456:
 724              		.loc 1 537 0
 725 0324 80010044 		lwz 0,68(1)
 726 0328 8361002C 		lwz 27,44(1)
 727 032c 7C0803A6 		mtlr 0
 728 0330 83810030 		lwz 28,48(1)
 729              	.LVL56:
 730 0334 83A10034 		lwz 29,52(1)
 731 0338 83C10038 		lwz 30,56(1)
 732 033c 83E1003C 		lwz 31,60(1)
 733 0340 38210040 		addi 1,1,64
 734              		.cfi_remember_state
 735              	.LCFI6:
 736              		.cfi_def_cfa_offset 0
 737              		.cfi_restore 31
 738              		.cfi_restore 30
 739              		.cfi_restore 29
 740              		.cfi_restore 28
 741              		.cfi_restore 27
 742 0344 4E800020 		blr
 743              	.LVL57:
 744              	.L49:
 745              	.LCFI7:
 746              		.cfi_restore_state
 747              	.LBB1457:
 748              		.loc 1 511 0
 749 0348 3860FFFF 		li 3,-1
 750              	.LVL58:
 751 034c 4BFFFFD8 		b .L19
 752              	.LVL59:
 753              	.L60:
 754              	.LBB1450:
 755              	.LBB1449:
 756              	.LBB1429:
 757              	.LBB1428:
 758              	.LBB1427:
 759              	.LBB1426:
 760              	.LBB1420:
 761              	.LBB1421:
 762              	.LBB1422:
 763              		.loc 6 66 0
 764 0350 8169FFFC 		lwz 11,-4(9)
 765              	.LVL60:
 766              	.LBE1422:
 767              	.LBE1421:
 768              	.LBE1420:
 769              		.loc 2 240 0
 770 0354 2F8B0000 		cmpwi 7,11,0
 771              	.LBB1425:
 772              	.LBB1424:
 773              	.LBB1423:
 774              		.loc 6 67 0
 775 0358 396BFFFF 		addi 11,11,-1
 776 035c 9169FFFC 		stw 11,-4(9)
 777              	.LBE1423:
 778              	.LBE1424:
 779              	.LBE1425:
 780              		.loc 2 240 0
 781 0360 419DFF20 		bgt+ 7,.L43
 782              		.loc 2 244 0
 783 0364 38810009 		addi 4,1,9
 784 0368 48000001 		bl _ZNSs4_Rep10_M_destroyERKSaIcE
 785              	.LVL61:
 786 036c 4BFFFF14 		b .L43
 787              	.LVL62:
 788              	.L59:
 789              	.LBE1426:
 790              	.LBE1427:
 791              	.LBE1428:
 792              	.LBE1429:
 793              	.LBE1449:
 794              	.LBE1450:
 795              	.LBB1451:
 796              	.LBB1379:
 797              	.LBB1378:
 798              	.LBB1377:
 799              		.loc 2 319 0
 800 0370 3C600000 		lis 3,.LC0@ha
 801 0374 38630000 		la 3,.LC0@l(3)
 802 0378 48000001 		bl _ZSt20__throw_out_of_rangePKc
 803              	.LVL63:
 804              	.L62:
 805              	.LBE1377:
 806              	.LBE1378:
 807              	.LBE1379:
 808              	.LBE1451:
 809              	.LBB1452:
 810              	.LBB1370:
 811              	.LBB1369:
 812              	.LBB1367:
 813              	.LBB1360:
 814              	.LBB1361:
 815              	.LBB1362:
 816              		.loc 6 66 0
 817 037c 8169FFFC 		lwz 11,-4(9)
 818              	.LVL64:
 819              	.LBE1362:
 820              	.LBE1361:
 821              	.LBE1360:
 822              		.loc 2 240 0
 823 0380 2F8B0000 		cmpwi 7,11,0
 824              	.LBB1365:
 825              	.LBB1364:
 826              	.LBB1363:
 827              		.loc 6 67 0
 828 0384 396BFFFF 		addi 11,11,-1
 829 0388 9169FFFC 		stw 11,-4(9)
 830              	.LBE1363:
 831              	.LBE1364:
 832              	.LBE1365:
 833              		.loc 2 240 0
 834 038c 419DFE60 		bgt+ 7,.L57
 835              		.loc 2 244 0
 836 0390 3881000A 		addi 4,1,10
 837 0394 48000001 		bl _ZNSs4_Rep10_M_destroyERKSaIcE
 838              	.LVL65:
 839 0398 4BFFFE54 		b .L57
 840              	.LVL66:
 841              	.L55:
 842 039c 7C7F1B78 		mr 31,3
 843              	.LBE1367:
 844              	.LBE1369:
 845              	.LBE1370:
 846              	.LBE1452:
 847              		.loc 1 513 0
 848 03a0 7FA3EB78 		mr 3,29
 849 03a4 48000001 		bl _ZdlPv
 850              	.L46:
 851 03a8 38610010 		addi 3,1,16
 852 03ac 48000001 		bl _ZNSsD1Ev
 853 03b0 7FE3FB78 		mr 3,31
 854 03b4 48000001 		bl _Unwind_Resume
 855              	.L54:
 856 03b8 7C7F1B78 		mr 31,3
 857 03bc 4BFFFFEC 		b .L46
 858              	.LVL67:
 859              	.L52:
 860 03c0 7C7F1B78 		mr 31,3
 861              	.LVL68:
 862              	.LBB1453:
 863              		.loc 1 529 0
 864 03c4 38610018 		addi 3,1,24
 865              	.LVL69:
 866 03c8 48000001 		bl _ZNSsD1Ev
 867              	.LVL70:
 868 03cc 7FE3FB78 		mr 3,31
 869 03d0 48000001 		bl _Unwind_Resume
 870              	.LVL71:
 871              	.L53:
 872 03d4 7C7F1B78 		mr 31,3
 873              	.LVL72:
 874              		.loc 1 527 0
 875 03d8 38610014 		addi 3,1,20
 876 03dc 48000001 		bl _ZNSsD1Ev
 877 03e0 7FE3FB78 		mr 3,31
 878 03e4 48000001 		bl _Unwind_Resume
 879              	.LEHE7:
 880              	.LBE1453:
 881              	.LBE1457:
 882              		.cfi_endproc
 883              	.LFE920:
 884              		.globl __gxx_personality_v0
 885              		.section	.gcc_except_table,"a",@progbits
 886              	.LLSDA920:
 887 0000 FF       		.byte	0xff
 888 0001 FF       		.byte	0xff
 889 0002 01       		.byte	0x1
 890 0003 2B       		.uleb128 .LLSDACSE920-.LLSDACSB920
 891              	.LLSDACSB920:
 892 0004 3C       		.uleb128 .LEHB0-.LFB920
 893 0005 04       		.uleb128 .LEHE0-.LEHB0
 894 0006 00       		.uleb128 0
 895 0007 00       		.uleb128 0
 896 0008 44       		.uleb128 .LEHB1-.LFB920
 897 0009 04       		.uleb128 .LEHE1-.LEHB1
 898 000a E404     		.uleb128 .L54-.LFB920
 899 000c 00       		.uleb128 0
 900 000d 58       		.uleb128 .LEHB2-.LFB920
 901 000e 04       		.uleb128 .LEHE2-.LEHB2
 902 000f C804     		.uleb128 .L55-.LFB920
 903 0011 00       		.uleb128 0
 904 0012 9401     		.uleb128 .LEHB3-.LFB920
 905 0014 8001     		.uleb128 .LEHE3-.LEHB3
 906 0016 00       		.uleb128 0
 907 0017 00       		.uleb128 0
 908 0018 9802     		.uleb128 .LEHB4-.LFB920
 909 001a 04       		.uleb128 .LEHE4-.LEHB4
 910 001b 8005     		.uleb128 .L53-.LFB920
 911 001d 00       		.uleb128 0
 912 001e EC02     		.uleb128 .LEHB5-.LFB920
 913 0020 04       		.uleb128 .LEHE5-.LEHB5
 914 0021 00       		.uleb128 0
 915 0022 00       		.uleb128 0
 916 0023 F402     		.uleb128 .LEHB6-.LFB920
 917 0025 04       		.uleb128 .LEHE6-.LEHB6
 918 0026 EC04     		.uleb128 .L52-.LFB920
 919 0028 00       		.uleb128 0
 920 0029 AC03     		.uleb128 .LEHB7-.LFB920
 921 002b E801     		.uleb128 .LEHE7-.LEHB7
 922 002d 00       		.uleb128 0
 923 002e 00       		.uleb128 0
 924              	.LLSDACSE920:
 925              		.section	".text"
 926              		.size	_Z15RemoveDirectorySs.constprop.16, .-_Z15RemoveDirectorySs.constprop.16
 927              		.align 2
 928              		.type	_Z15CreateSubfolderSs.constprop.18, @function
 929              	_Z15CreateSubfolderSs.constprop.18:
 930              	.LFB918:
 931              		.loc 1 242 0
 932              		.cfi_startproc
 933              		.cfi_personality 0,__gxx_personality_v0
 934              		.cfi_lsda 0,.LLSDA918
 935              	.LVL73:
 936 03e8 7C0802A6 		mflr 0
 937 03ec 9421FFD8 		stwu 1,-40(1)
 938              	.LCFI8:
 939              		.cfi_def_cfa_offset 40
 940              		.cfi_register 65, 0
 941 03f0 93A1001C 		stw 29,28(1)
 942              	.LBB1594:
 943              		.loc 1 245 0
 944 03f4 3BA00000 		li 29,0
 945              		.cfi_offset 29, -12
 946              	.LBE1594:
 947              		.loc 1 242 0
 948 03f8 9001002C 		stw 0,44(1)
 949 03fc 93E10024 		stw 31,36(1)
 950 0400 7C7F1B78 		mr 31,3
 951              		.cfi_offset 31, -4
 952              		.cfi_offset 65, 4
 953              	.LVL74:
 954              	.LBB1689:
 955              	.LBB1595:
 956              	.LBB1596:
 957              	.LBB1597:
 958              		.loc 2 711 0
 959 0404 81230000 		lwz 9,0(3)
 960              	.LBE1597:
 961              	.LBE1596:
 962              	.LBE1595:
 963              	.LBE1689:
 964              		.loc 1 242 0
 965 0408 93C10020 		stw 30,32(1)
 966              	.LBB1690:
 967              		.loc 1 244 0
 968 040c 8009FFF4 		lwz 0,-12(9)
 969 0410 2F800000 		cmpwi 7,0,0
 970 0414 409E0024 		bne- 7,.L99
 971              		.cfi_offset 30, -8
 972              	.LVL75:
 973              	.L88:
 974              	.LBE1690:
 975              		.loc 1 270 0
 976 0418 8001002C 		lwz 0,44(1)
 977 041c 7FA3EB78 		mr 3,29
 978 0420 83C10020 		lwz 30,32(1)
 979 0424 7C0803A6 		mtlr 0
 980 0428 83A1001C 		lwz 29,28(1)
 981 042c 83E10024 		lwz 31,36(1)
 982              	.LVL76:
 983 0430 38210028 		addi 1,1,40
 984              		.cfi_remember_state
 985              	.LCFI9:
 986              		.cfi_def_cfa_offset 0
 987              		.cfi_restore 31
 988              		.cfi_restore 30
 989              		.cfi_restore 29
 990 0434 4E800020 		blr
 991              	.LVL77:
 992              	.L99:
 993              	.LCFI10:
 994              		.cfi_restore_state
 995              	.LBB1691:
 996              		.loc 1 247 0
 997 0438 3861000C 		addi 3,1,12
 998              	.LVL78:
 999 043c 7FE4FB78 		mr 4,31
 1000              	.LEHB8:
 1001 0440 48000001 		bl _ZNSsC1ERKSs
 1002              	.LEHE8:
 1003 0444 3861000C 		addi 3,1,12
 1004              	.LEHB9:
 1005 0448 4BFFFBB9 		bl _Z9CheckFileSs.constprop.19
 1006              	.LEHE9:
 1007              	.LBB1598:
 1008              	.LBB1599:
 1009              	.LBB1600:
 1010              	.LBB1601:
 1011              	.LBB1602:
 1012              	.LBB1603:
 1013              		.loc 2 288 0
 1014 044c 8121000C 		lwz 9,12(1)
 1015              	.LBE1603:
 1016              	.LBE1602:
 1017              	.LBE1601:
 1018              	.LBB1604:
 1019              	.LBB1605:
 1020              		.loc 2 235 0
 1021 0450 3FC00000 		lis 30,_ZNSs4_Rep20_S_empty_rep_storageE@ha
 1022              	.LBE1605:
 1023              	.LBE1604:
 1024              	.LBE1600:
 1025              	.LBE1599:
 1026              	.LBE1598:
 1027              		.loc 1 247 0
 1028 0454 7C7D1B78 		mr 29,3
 1029              	.LVL79:
 1030              	.LBB1622:
 1031              	.LBB1620:
 1032              	.LBB1618:
 1033              	.LBB1615:
 1034              	.LBB1612:
 1035              		.loc 2 235 0
 1036 0458 3BDE0000 		la 30,_ZNSs4_Rep20_S_empty_rep_storageE@l(30)
 1037              	.LBE1612:
 1038              	.LBE1615:
 1039              		.loc 2 534 0
 1040 045c 3869FFF4 		addi 3,9,-12
 1041              	.LVL80:
 1042              	.LBB1616:
 1043              	.LBB1613:
 1044              		.loc 2 235 0
 1045 0460 7F83F000 		cmpw 7,3,30
 1046 0464 409E017C 		bne- 7,.L100
 1047              	.LVL81:
 1048              	.L70:
 1049              	.LBE1613:
 1050              	.LBE1616:
 1051              	.LBE1618:
 1052              	.LBE1620:
 1053              	.LBE1622:
 1054              		.loc 1 247 0
 1055 0468 2F9D0000 		cmpwi 7,29,0
 1056 046c 409E013C 		bne- 7,.L93
 1057              	.LVL82:
 1058              	.LBB1623:
 1059              	.LBB1624:
 1060              	.LBB1625:
 1061              	.LBB1626:
 1062              	.LBB1627:
 1063              		.loc 2 288 0
 1064 0470 813F0000 		lwz 9,0(31)
 1065              	.LBE1627:
 1066              	.LBE1626:
 1067              	.LBE1625:
 1068              	.LBE1624:
 1069              	.LBE1623:
 1070              		.loc 1 250 0
 1071 0474 83A9FFF4 		lwz 29,-12(9)
 1072 0478 3BBDFFFF 		addi 29,29,-1
 1073              	.LVL83:
 1074 047c 4800002C 		b .L71
 1075              	.LVL84:
 1076              	.L74:
 1077              	.LBB1628:
 1078              	.LBB1629:
 1079              	.LBB1630:
 1080              	.LBB1631:
 1081              	.LBB1632:
 1082              	.LBB1633:
 1083              		.loc 2 711 0
 1084 0480 80A9FFF4 		lwz 5,-12(9)
 1085              	.LBE1633:
 1086              	.LBE1632:
 1087              		.loc 2 318 0
 1088 0484 7F9D2840 		cmplw 7,29,5
 1089 0488 419D014C 		bgt- 7,.L101
 1090              	.LVL85:
 1091              	.LBE1631:
 1092              	.LBE1630:
 1093              		.loc 2 1349 0
 1094 048c 7FA4EB78 		mr 4,29
 1095 0490 7CBD2850 		subf 5,29,5
 1096 0494 7FE3FB78 		mr 3,31
 1097 0498 38C00000 		li 6,0
 1098              	.LEHB10:
 1099 049c 48000001 		bl _ZNSs9_M_mutateEjjj
 1100              	.LVL86:
 1101              	.LBE1629:
 1102              	.LBE1628:
 1103              		.loc 1 254 0
 1104 04a0 813F0000 		lwz 9,0(31)
 1105 04a4 3BBDFFFF 		addi 29,29,-1
 1106              	.LVL87:
 1107              	.L71:
 1108              	.LBB1637:
 1109              	.LBB1638:
 1110              	.LBB1639:
 1111              	.LBB1640:
 1112              		.loc 2 311 0
 1113 04a8 8009FFFC 		lwz 0,-4(9)
 1114 04ac 2F800000 		cmpwi 7,0,0
 1115 04b0 419C0010 		blt- 7,.L73
 1116              		.loc 2 312 0
 1117 04b4 7FE3FB78 		mr 3,31
 1118 04b8 48000001 		bl _ZNSs12_M_leak_hardEv
 1119 04bc 813F0000 		lwz 9,0(31)
 1120              	.L73:
 1121              	.LBE1640:
 1122              	.LBE1639:
 1123              	.LBE1638:
 1124              	.LBE1637:
 1125              		.loc 1 251 0
 1126 04c0 7C09E8AE 		lbzx 0,9,29
 1127 04c4 2F80002F 		cmpwi 7,0,47
 1128 04c8 419EFFB8 		beq+ 7,.L74
 1129              		.loc 1 257 0
 1130 04cc 7FE4FB78 		mr 4,31
 1131 04d0 38610014 		addi 3,1,20
 1132 04d4 48000001 		bl _ZNSsC1ERKSs
 1133              	.LEHE10:
 1134              		.loc 1 258 0
 1135 04d8 38610014 		addi 3,1,20
 1136 04dc 3880002F 		li 4,47
 1137 04e0 38A0FFFF 		li 5,-1
 1138              	.LEHB11:
 1139 04e4 48000001 		bl _ZNKSs5rfindEcj
 1140              	.LVL88:
 1141              		.loc 1 259 0
 1142 04e8 2F83FFFF 		cmpwi 7,3,-1
 1143 04ec 419E00E0 		beq- 7,.L94
 1144              	.LVL89:
 1145              	.LBB1641:
 1146              	.LBB1642:
 1147              		.loc 2 711 0
 1148 04f0 81210014 		lwz 9,20(1)
 1149 04f4 80A9FFF4 		lwz 5,-12(9)
 1150              	.LBE1642:
 1151              	.LBE1641:
 1152              		.loc 1 262 0
 1153 04f8 3805FFFF 		addi 0,5,-1
 1154 04fc 7F830040 		cmplw 7,3,0
 1155 0500 419C0068 		blt- 7,.L102
 1156              	.LVL90:
 1157              	.L76:
 1158              		.loc 1 265 0
 1159 0504 38610010 		addi 3,1,16
 1160 0508 38810014 		addi 4,1,20
 1161              	.LVL91:
 1162 050c 48000001 		bl _ZNSsC1ERKSs
 1163              	.LEHE11:
 1164              	.LVL92:
 1165 0510 38610010 		addi 3,1,16
 1166              	.LEHB12:
 1167 0514 4BFFFED5 		bl _Z15CreateSubfolderSs.constprop.18
 1168              	.LEHE12:
 1169              	.LBB1643:
 1170              	.LBB1644:
 1171              	.LBB1645:
 1172              	.LBB1646:
 1173              	.LBB1647:
 1174              	.LBB1648:
 1175              		.loc 2 288 0
 1176 0518 81210010 		lwz 9,16(1)
 1177              	.LBE1648:
 1178              	.LBE1647:
 1179              	.LBE1646:
 1180              	.LBE1645:
 1181              	.LBE1644:
 1182              	.LBE1643:
 1183              		.loc 1 265 0
 1184 051c 7C7D1B78 		mr 29,3
 1185              	.LVL93:
 1186              	.LBB1663:
 1187              	.LBB1661:
 1188              	.LBB1659:
 1189              		.loc 2 534 0
 1190 0520 3869FFF4 		addi 3,9,-12
 1191              	.LVL94:
 1192              	.LBB1649:
 1193              	.LBB1650:
 1194              		.loc 2 235 0
 1195 0524 7F83F000 		cmpw 7,3,30
 1196 0528 409E00D8 		bne- 7,.L103
 1197              	.LVL95:
 1198              	.L83:
 1199              	.LBE1650:
 1200              	.LBE1649:
 1201              	.LBE1659:
 1202              	.LBE1661:
 1203              	.LBE1663:
 1204              		.loc 1 266 0
 1205 052c 2F9D0000 		cmpwi 7,29,0
 1206              		.loc 1 267 0
 1207 0530 3BA00000 		li 29,0
 1208              	.LVL96:
 1209              		.loc 1 266 0
 1210 0534 409E0054 		bne- 7,.L104
 1211              	.LVL97:
 1212              	.L75:
 1213              	.LBB1664:
 1214              	.LBB1665:
 1215              	.LBB1666:
 1216              	.LBB1667:
 1217              	.LBB1668:
 1218              	.LBB1669:
 1219              		.loc 2 288 0
 1220 0538 81210014 		lwz 9,20(1)
 1221              	.LBE1669:
 1222              	.LBE1668:
 1223              	.LBE1667:
 1224              		.loc 2 534 0
 1225 053c 3869FFF4 		addi 3,9,-12
 1226              	.LVL98:
 1227              	.LBB1670:
 1228              	.LBB1671:
 1229              		.loc 2 235 0
 1230 0540 7F83F000 		cmpw 7,3,30
 1231 0544 419EFED4 		beq+ 7,.L88
 1232              	.LVL99:
 1233              	.LBB1672:
 1234              	.LBB1673:
 1235              	.LBB1674:
 1236              		.loc 6 66 0
 1237 0548 8169FFFC 		lwz 11,-4(9)
 1238              	.LVL100:
 1239              	.LBE1674:
 1240              	.LBE1673:
 1241              	.LBE1672:
 1242              		.loc 2 240 0
 1243 054c 2F8B0000 		cmpwi 7,11,0
 1244              	.LBB1677:
 1245              	.LBB1676:
 1246              	.LBB1675:
 1247              		.loc 6 67 0
 1248 0550 396BFFFF 		addi 11,11,-1
 1249 0554 9169FFFC 		stw 11,-4(9)
 1250              	.LBE1675:
 1251              	.LBE1676:
 1252              	.LBE1677:
 1253              		.loc 2 240 0
 1254 0558 419DFEC0 		bgt+ 7,.L88
 1255              		.loc 2 244 0
 1256 055c 38810008 		addi 4,1,8
 1257 0560 48000001 		bl _ZNSs4_Rep10_M_destroyERKSaIcE
 1258              	.LVL101:
 1259 0564 4BFFFEB4 		b .L88
 1260              	.LVL102:
 1261              	.L102:
 1262              	.LBE1671:
 1263              	.LBE1670:
 1264              	.LBE1666:
 1265              	.LBE1665:
 1266              	.LBE1664:
 1267              		.loc 1 263 0
 1268 0568 38830001 		addi 4,3,1
 1269              	.LVL103:
 1270              	.LBB1678:
 1271              	.LBB1679:
 1272              	.LBB1680:
 1273              	.LBB1681:
 1274              		.loc 2 318 0
 1275 056c 7F852040 		cmplw 7,5,4
 1276 0570 419C00C4 		blt- 7,.L105
 1277              	.LVL104:
 1278              	.LBE1681:
 1279              	.LBE1680:
 1280              		.loc 2 1349 0
 1281 0574 38610014 		addi 3,1,20
 1282              	.LVL105:
 1283 0578 7CA42850 		subf 5,4,5
 1284 057c 38C00000 		li 6,0
 1285              	.LEHB13:
 1286 0580 48000001 		bl _ZNSs9_M_mutateEjjj
 1287              	.LVL106:
 1288 0584 4BFFFF80 		b .L76
 1289              	.LVL107:
 1290              	.L104:
 1291              	.LBE1679:
 1292              	.LBE1678:
 1293              		.loc 1 269 0
 1294 0588 807F0000 		lwz 3,0(31)
 1295 058c 388001FF 		li 4,511
 1296 0590 48000001 		bl mkdir
 1297              	.LEHE13:
 1298 0594 38630001 		addi 3,3,1
 1299 0598 7C630034 		cntlzw 3,3
 1300 059c 5463D97E 		srwi 3,3,5
 1301 05a0 687D0001 		xori 29,3,1
 1302 05a4 4BFFFF94 		b .L75
 1303              	.LVL108:
 1304              	.L93:
 1305              	.LBE1691:
 1306              		.loc 1 270 0
 1307 05a8 8001002C 		lwz 0,44(1)
 1308              	.LBB1692:
 1309              		.loc 1 248 0
 1310 05ac 3BA00001 		li 29,1
 1311              	.LBE1692:
 1312              		.loc 1 270 0
 1313 05b0 7FA3EB78 		mr 3,29
 1314 05b4 83C10020 		lwz 30,32(1)
 1315 05b8 7C0803A6 		mtlr 0
 1316 05bc 83A1001C 		lwz 29,28(1)
 1317 05c0 83E10024 		lwz 31,36(1)
 1318              	.LVL109:
 1319 05c4 38210028 		addi 1,1,40
 1320              		.cfi_remember_state
 1321              		.cfi_restore 29
 1322              		.cfi_restore 30
 1323              		.cfi_restore 31
 1324              	.LCFI11:
 1325              		.cfi_def_cfa_offset 0
 1326 05c8 4E800020 		blr
 1327              	.LVL110:
 1328              	.L94:
 1329              	.LCFI12:
 1330              		.cfi_restore_state
 1331              	.LBB1693:
 1332              		.loc 1 260 0
 1333 05cc 3BA00000 		li 29,0
 1334              	.LVL111:
 1335 05d0 4BFFFF68 		b .L75
 1336              	.LVL112:
 1337              	.L101:
 1338              	.LBB1685:
 1339              	.LBB1636:
 1340              	.LBB1635:
 1341              	.LBB1634:
 1342              		.loc 2 319 0
 1343 05d4 3C600000 		lis 3,.LC0@ha
 1344 05d8 38630000 		la 3,.LC0@l(3)
 1345              	.LEHB14:
 1346 05dc 48000001 		bl _ZSt20__throw_out_of_rangePKc
 1347              	.LVL113:
 1348              	.L100:
 1349              	.LBE1634:
 1350              	.LBE1635:
 1351              	.LBE1636:
 1352              	.LBE1685:
 1353              	.LBB1686:
 1354              	.LBB1621:
 1355              	.LBB1619:
 1356              	.LBB1617:
 1357              	.LBB1614:
 1358              	.LBB1606:
 1359              	.LBB1607:
 1360              	.LBB1608:
 1361              		.loc 6 66 0
 1362 05e0 8169FFFC 		lwz 11,-4(9)
 1363              	.LVL114:
 1364              	.LBE1608:
 1365              	.LBE1607:
 1366              	.LBE1606:
 1367              		.loc 2 240 0
 1368 05e4 2F8B0000 		cmpwi 7,11,0
 1369              	.LBB1611:
 1370              	.LBB1610:
 1371              	.LBB1609:
 1372              		.loc 6 67 0
 1373 05e8 396BFFFF 		addi 11,11,-1
 1374 05ec 9169FFFC 		stw 11,-4(9)
 1375              	.LBE1609:
 1376              	.LBE1610:
 1377              	.LBE1611:
 1378              		.loc 2 240 0
 1379 05f0 419DFE78 		bgt+ 7,.L70
 1380              		.loc 2 244 0
 1381 05f4 3881000A 		addi 4,1,10
 1382 05f8 48000001 		bl _ZNSs4_Rep10_M_destroyERKSaIcE
 1383              	.LVL115:
 1384 05fc 4BFFFE6C 		b .L70
 1385              	.LVL116:
 1386              	.L103:
 1387              	.LBE1614:
 1388              	.LBE1617:
 1389              	.LBE1619:
 1390              	.LBE1621:
 1391              	.LBE1686:
 1392              	.LBB1687:
 1393              	.LBB1662:
 1394              	.LBB1660:
 1395              	.LBB1658:
 1396              	.LBB1657:
 1397              	.LBB1651:
 1398              	.LBB1652:
 1399              	.LBB1653:
 1400              		.loc 6 66 0
 1401 0600 8169FFFC 		lwz 11,-4(9)
 1402              	.LVL117:
 1403              	.LBE1653:
 1404              	.LBE1652:
 1405              	.LBE1651:
 1406              		.loc 2 240 0
 1407 0604 2F8B0000 		cmpwi 7,11,0
 1408              	.LBB1656:
 1409              	.LBB1655:
 1410              	.LBB1654:
 1411              		.loc 6 67 0
 1412 0608 396BFFFF 		addi 11,11,-1
 1413 060c 9169FFFC 		stw 11,-4(9)
 1414              	.LBE1654:
 1415              	.LBE1655:
 1416              	.LBE1656:
 1417              		.loc 2 240 0
 1418 0610 419DFF1C 		bgt+ 7,.L83
 1419              		.loc 2 244 0
 1420 0614 38810009 		addi 4,1,9
 1421 0618 48000001 		bl _ZNSs4_Rep10_M_destroyERKSaIcE
 1422              	.LVL118:
 1423 061c 4BFFFF10 		b .L83
 1424              	.LVL119:
 1425              	.L98:
 1426 0620 7C7F1B78 		mr 31,3
 1427              	.LVL120:
 1428              	.LBE1657:
 1429              	.LBE1658:
 1430              	.LBE1660:
 1431              	.LBE1662:
 1432              	.LBE1687:
 1433              		.loc 1 247 0
 1434 0624 3861000C 		addi 3,1,12
 1435 0628 48000001 		bl _ZNSsD1Ev
 1436 062c 7FE3FB78 		mr 3,31
 1437 0630 48000001 		bl _Unwind_Resume
 1438              	.LEHE14:
 1439              	.LVL121:
 1440              	.L105:
 1441              	.LBB1688:
 1442              	.LBB1684:
 1443              	.LBB1683:
 1444              	.LBB1682:
 1445              		.loc 2 319 0
 1446 0634 3C600000 		lis 3,.LC0@ha
 1447              	.LVL122:
 1448 0638 38630000 		la 3,.LC0@l(3)
 1449              	.LEHB15:
 1450 063c 48000001 		bl _ZSt20__throw_out_of_rangePKc
 1451              	.LEHE15:
 1452              	.LVL123:
 1453              	.L96:
 1454 0640 7C7F1B78 		mr 31,3
 1455              	.LVL124:
 1456              	.L91:
 1457              	.LBE1682:
 1458              	.LBE1683:
 1459              	.LBE1684:
 1460              	.LBE1688:
 1461              		.loc 1 269 0
 1462 0644 38610014 		addi 3,1,20
 1463 0648 48000001 		bl _ZNSsD1Ev
 1464 064c 7FE3FB78 		mr 3,31
 1465              	.LEHB16:
 1466 0650 48000001 		bl _Unwind_Resume
 1467              	.LEHE16:
 1468              	.LVL125:
 1469              	.L97:
 1470 0654 7C7F1B78 		mr 31,3
 1471              	.LVL126:
 1472              		.loc 1 265 0
 1473 0658 38610010 		addi 3,1,16
 1474 065c 48000001 		bl _ZNSsD1Ev
 1475 0660 4BFFFFE4 		b .L91
 1476              	.LBE1693:
 1477              		.cfi_endproc
 1478              	.LFE918:
 1479              		.section	.gcc_except_table
 1480              	.LLSDA918:
 1481 002f FF       		.byte	0xff
 1482 0030 FF       		.byte	0xff
 1483 0031 01       		.byte	0x1
 1484 0032 30       		.uleb128 .LLSDACSE918-.LLSDACSB918
 1485              	.LLSDACSB918:
 1486 0033 58       		.uleb128 .LEHB8-.LFB918
 1487 0034 04       		.uleb128 .LEHE8-.LEHB8
 1488 0035 00       		.uleb128 0
 1489 0036 00       		.uleb128 0
 1490 0037 60       		.uleb128 .LEHB9-.LFB918
 1491 0038 04       		.uleb128 .LEHE9-.LEHB9
 1492 0039 B804     		.uleb128 .L98-.LFB918
 1493 003b 00       		.uleb128 0
 1494 003c B401     		.uleb128 .LEHB10-.LFB918
 1495 003e 3C       		.uleb128 .LEHE10-.LEHB10
 1496 003f 00       		.uleb128 0
 1497 0040 00       		.uleb128 0
 1498 0041 FC01     		.uleb128 .LEHB11-.LFB918
 1499 0043 2C       		.uleb128 .LEHE11-.LEHB11
 1500 0044 D804     		.uleb128 .L96-.LFB918
 1501 0046 00       		.uleb128 0
 1502 0047 AC02     		.uleb128 .LEHB12-.LFB918
 1503 0049 04       		.uleb128 .LEHE12-.LEHB12
 1504 004a EC04     		.uleb128 .L97-.LFB918
 1505 004c 00       		.uleb128 0
 1506 004d 9803     		.uleb128 .LEHB13-.LFB918
 1507 004f 14       		.uleb128 .LEHE13-.LEHB13
 1508 0050 D804     		.uleb128 .L96-.LFB918
 1509 0052 00       		.uleb128 0
 1510 0053 F403     		.uleb128 .LEHB14-.LFB918
 1511 0055 58       		.uleb128 .LEHE14-.LEHB14
 1512 0056 00       		.uleb128 0
 1513 0057 00       		.uleb128 0
 1514 0058 D404     		.uleb128 .LEHB15-.LFB918
 1515 005a 04       		.uleb128 .LEHE15-.LEHB15
 1516 005b D804     		.uleb128 .L96-.LFB918
 1517 005d 00       		.uleb128 0
 1518 005e E804     		.uleb128 .LEHB16-.LFB918
 1519 0060 04       		.uleb128 .LEHE16-.LEHB16
 1520 0061 00       		.uleb128 0
 1521 0062 00       		.uleb128 0
 1522              	.LLSDACSE918:
 1523              		.section	".text"
 1524              		.size	_Z15CreateSubfolderSs.constprop.18, .-_Z15CreateSubfolderSs.constprop.18
 1525              		.align 2
 1526              		.globl _Z8FindFileSsSs
 1527              		.type	_Z8FindFileSsSs, @function
 1528              	_Z8FindFileSsSs:
 1529              	.LFB789:
 1530              		.loc 1 52 0
 1531              		.cfi_startproc
 1532              		.cfi_personality 0,__gxx_personality_v0
 1533              		.cfi_lsda 0,.LLSDA789
 1534              	.LVL127:
 1535 0664 7C0802A6 		mflr 0
 1536 0668 9421FFD8 		stwu 1,-40(1)
 1537              	.LCFI13:
 1538              		.cfi_def_cfa_offset 40
 1539              		.cfi_register 65, 0
 1540 066c 93C10020 		stw 30,32(1)
 1541 0670 7C7E1B78 		mr 30,3
 1542              		.cfi_offset 30, -8
 1543              	.LVL128:
 1544 0674 9001002C 		stw 0,44(1)
 1545 0678 93A1001C 		stw 29,28(1)
 1546              	.LBB1733:
 1547              	.LBB1734:
 1548              	.LBB1735:
 1549              	.LBB1736:
 1550              		.loc 2 711 0
 1551 067c 81230000 		lwz 9,0(3)
 1552              	.LBE1736:
 1553              	.LBE1735:
 1554              	.LBE1734:
 1555              		.loc 1 54 0
 1556 0680 38600000 		li 3,0
 1557              	.LVL129:
 1558              	.LBE1733:
 1559              		.loc 1 52 0
 1560 0684 93E10024 		stw 31,36(1)
 1561              	.LBB1769:
 1562              		.loc 1 53 0
 1563 0688 8009FFF4 		lwz 0,-12(9)
 1564              		.cfi_offset 31, -4
 1565              		.cfi_offset 29, -12
 1566              		.cfi_offset 65, 4
 1567 068c 2F800000 		cmpwi 7,0,0
 1568 0690 419E00C8 		beq- 7,.L107
 1569              	.LVL130:
 1570              	.LBB1737:
 1571              	.LBB1738:
 1572              	.LBB1739:
 1573              		.loc 2 711 0
 1574 0694 81240000 		lwz 9,0(4)
 1575              	.LBE1739:
 1576              	.LBE1738:
 1577              	.LBE1737:
 1578              		.loc 1 53 0
 1579 0698 8009FFF4 		lwz 0,-12(9)
 1580 069c 2F800000 		cmpwi 7,0,0
 1581 06a0 419E00B8 		beq- 7,.L107
 1582              	.LVL131:
 1583              		.loc 1 56 0
 1584 06a4 3861000C 		addi 3,1,12
 1585              	.LEHB17:
 1586 06a8 48000001 		bl _ZNSsC1ERKSs
 1587              	.LEHE17:
 1588              	.LVL132:
 1589 06ac 3860000C 		li 3,12
 1590              	.LEHB18:
 1591 06b0 48000001 		bl _Znwj
 1592              	.LEHE18:
 1593 06b4 3881000C 		addi 4,1,12
 1594 06b8 38A00000 		li 5,0
 1595 06bc 38C00001 		li 6,1
 1596 06c0 7C7F1B78 		mr 31,3
 1597              	.LEHB19:
 1598 06c4 48000001 		bl _ZN7DirListC1ESsPKcj
 1599              	.LEHE19:
 1600              	.LVL133:
 1601              	.LBB1740:
 1602              	.LBB1741:
 1603              	.LBB1742:
 1604              	.LBB1743:
 1605              	.LBB1744:
 1606              		.loc 2 288 0
 1607 06c8 8121000C 		lwz 9,12(1)
 1608              	.LBE1744:
 1609              	.LBE1743:
 1610              	.LBE1742:
 1611              	.LBB1745:
 1612              	.LBB1746:
 1613              		.loc 2 235 0
 1614 06cc 3D600000 		lis 11,_ZNSs4_Rep20_S_empty_rep_storageE@ha
 1615 06d0 380B0000 		la 0,_ZNSs4_Rep20_S_empty_rep_storageE@l(11)
 1616              	.LBE1746:
 1617              	.LBE1745:
 1618              		.loc 2 534 0
 1619 06d4 3869FFF4 		addi 3,9,-12
 1620              	.LVL134:
 1621              	.LBB1755:
 1622              	.LBB1753:
 1623              		.loc 2 235 0
 1624 06d8 7F830000 		cmpw 7,3,0
 1625 06dc 409E00C8 		bne- 7,.L123
 1626              	.LVL135:
 1627              	.L109:
 1628              	.LBE1753:
 1629              	.LBE1755:
 1630              	.LBE1741:
 1631              	.LBE1740:
 1632              	.LBB1758:
 1633              	.LBB1759:
 1634              	.LBB1760:
 1635              	.LBB1761:
 1636              		.loc 4 571 0 discriminator 1
 1637 06e0 813F0004 		lwz 9,4(31)
 1638 06e4 801F0000 		lwz 0,0(31)
 1639 06e8 7C004850 		subf 0,0,9
 1640              	.LBE1761:
 1641              	.LBE1760:
 1642              	.LBE1759:
 1643              		.loc 1 58 0 discriminator 1
 1644 06ec 2F800017 		cmpwi 7,0,23
 1645 06f0 409D0084 		ble- 7,.L110
 1646              		.loc 1 58 0 is_stmt 0
 1647 06f4 3BA00000 		li 29,0
 1648 06f8 4800002C 		b .L112
 1649              	.LVL136:
 1650              	.L111:
 1651              	.LBB1766:
 1652              	.LBB1764:
 1653              	.LBB1762:
 1654              		.loc 4 571 0 is_stmt 1
 1655 06fc 801F0000 		lwz 0,0(31)
 1656              	.LBE1762:
 1657              	.LBE1764:
 1658              	.LBE1766:
 1659              		.loc 1 58 0
 1660 0700 3BBD0001 		addi 29,29,1
 1661              	.LVL137:
 1662              	.LBB1767:
 1663              	.LBB1765:
 1664              	.LBB1763:
 1665              		.loc 4 571 0
 1666 0704 813F0004 		lwz 9,4(31)
 1667 0708 7D204850 		subf 9,0,9
 1668 070c 3C00AAAA 		lis 0,0xaaaa
 1669 0710 7D291E70 		srawi 9,9,3
 1670 0714 6000AAAB 		ori 0,0,43691
 1671 0718 7C0901D6 		mullw 0,9,0
 1672              	.LBE1763:
 1673              	.LBE1765:
 1674              	.LBE1767:
 1675              		.loc 1 58 0
 1676 071c 7F9D0000 		cmpw 7,29,0
 1677 0720 409C0054 		bge- 7,.L110
 1678              	.LVL138:
 1679              	.L112:
 1680              		.loc 1 60 0
 1681 0724 7FA4EB78 		mr 4,29
 1682 0728 7FE3FB78 		mr 3,31
 1683              	.LEHB20:
 1684 072c 48000001 		bl _ZN7DirList11GetFilenameEi
 1685 0730 7C641B78 		mr 4,3
 1686 0734 7FC3F378 		mr 3,30
 1687 0738 48000001 		bl _ZNKSs7compareEPKc
 1688 073c 2F830000 		cmpwi 7,3,0
 1689 0740 409EFFBC 		bne+ 7,.L111
 1690              		.loc 1 62 0 discriminator 1
 1691 0744 7FE3FB78 		mr 3,31
 1692 0748 48000001 		bl _ZN7DirListD1Ev
 1693 074c 7FE3FB78 		mr 3,31
 1694 0750 48000001 		bl _ZdlPv
 1695              		.loc 1 63 0 discriminator 1
 1696 0754 38600001 		li 3,1
 1697              	.LVL139:
 1698              	.L107:
 1699              	.LBE1758:
 1700              	.LBE1769:
 1701              		.loc 1 69 0
 1702 0758 8001002C 		lwz 0,44(1)
 1703 075c 83A1001C 		lwz 29,28(1)
 1704 0760 7C0803A6 		mtlr 0
 1705 0764 83C10020 		lwz 30,32(1)
 1706              	.LVL140:
 1707 0768 83E10024 		lwz 31,36(1)
 1708 076c 38210028 		addi 1,1,40
 1709              		.cfi_remember_state
 1710              	.LCFI14:
 1711              		.cfi_def_cfa_offset 0
 1712              		.cfi_restore 31
 1713              		.cfi_restore 30
 1714              		.cfi_restore 29
 1715 0770 4E800020 		blr
 1716              	.LVL141:
 1717              	.L110:
 1718              	.LCFI15:
 1719              		.cfi_restore_state
 1720              	.LBB1770:
 1721              		.loc 1 66 0 discriminator 1
 1722 0774 7FE3FB78 		mr 3,31
 1723 0778 48000001 		bl _ZN7DirListD1Ev
 1724 077c 7FE3FB78 		mr 3,31
 1725 0780 48000001 		bl _ZdlPv
 1726              	.LBE1770:
 1727              		.loc 1 69 0 discriminator 1
 1728 0784 8001002C 		lwz 0,44(1)
 1729 0788 83A1001C 		lwz 29,28(1)
 1730              	.LBB1771:
 1731              		.loc 1 68 0 discriminator 1
 1732 078c 38600000 		li 3,0
 1733              	.LBE1771:
 1734              		.loc 1 69 0 discriminator 1
 1735 0790 7C0803A6 		mtlr 0
 1736 0794 83C10020 		lwz 30,32(1)
 1737              	.LVL142:
 1738 0798 83E10024 		lwz 31,36(1)
 1739              	.LVL143:
 1740 079c 38210028 		addi 1,1,40
 1741              		.cfi_remember_state
 1742              		.cfi_restore 29
 1743              		.cfi_restore 30
 1744              		.cfi_restore 31
 1745              	.LCFI16:
 1746              		.cfi_def_cfa_offset 0
 1747 07a0 4E800020 		blr
 1748              	.LVL144:
 1749              	.L123:
 1750              	.LCFI17:
 1751              		.cfi_restore_state
 1752              	.LBB1772:
 1753              	.LBB1768:
 1754              	.LBB1757:
 1755              	.LBB1756:
 1756              	.LBB1754:
 1757              	.LBB1747:
 1758              	.LBB1748:
 1759              	.LBB1749:
 1760              		.loc 6 66 0
 1761 07a4 8169FFFC 		lwz 11,-4(9)
 1762              	.LVL145:
 1763              	.LBE1749:
 1764              	.LBE1748:
 1765              	.LBE1747:
 1766              		.loc 2 240 0
 1767 07a8 2F8B0000 		cmpwi 7,11,0
 1768              	.LBB1752:
 1769              	.LBB1751:
 1770              	.LBB1750:
 1771              		.loc 6 67 0
 1772 07ac 396BFFFF 		addi 11,11,-1
 1773 07b0 9169FFFC 		stw 11,-4(9)
 1774              	.LBE1750:
 1775              	.LBE1751:
 1776              	.LBE1752:
 1777              		.loc 2 240 0
 1778 07b4 419DFF2C 		bgt+ 7,.L109
 1779              		.loc 2 244 0
 1780 07b8 38810008 		addi 4,1,8
 1781 07bc 48000001 		bl _ZNSs4_Rep10_M_destroyERKSaIcE
 1782              	.LVL146:
 1783 07c0 4BFFFF20 		b .L109
 1784              	.LVL147:
 1785              	.L118:
 1786 07c4 7C7F1B78 		mr 31,3
 1787              	.LVL148:
 1788              	.L114:
 1789              	.LBE1754:
 1790              	.LBE1756:
 1791              	.LBE1757:
 1792              	.LBE1768:
 1793              		.loc 1 56 0
 1794 07c8 3861000C 		addi 3,1,12
 1795 07cc 48000001 		bl _ZNSsD1Ev
 1796 07d0 7FE3FB78 		mr 3,31
 1797 07d4 48000001 		bl _Unwind_Resume
 1798              	.LEHE20:
 1799              	.LVL149:
 1800              	.L119:
 1801 07d8 7C7E1B78 		mr 30,3
 1802              	.LVL150:
 1803 07dc 7FE3FB78 		mr 3,31
 1804 07e0 48000001 		bl _ZdlPv
 1805 07e4 7FDFF378 		mr 31,30
 1806 07e8 4BFFFFE0 		b .L114
 1807              	.LBE1772:
 1808              		.cfi_endproc
 1809              	.LFE789:
 1810              		.section	.gcc_except_table
 1811              	.LLSDA789:
 1812 0063 FF       		.byte	0xff
 1813 0064 FF       		.byte	0xff
 1814 0065 01       		.byte	0x1
 1815 0066 14       		.uleb128 .LLSDACSE789-.LLSDACSB789
 1816              	.LLSDACSB789:
 1817 0067 44       		.uleb128 .LEHB17-.LFB789
 1818 0068 04       		.uleb128 .LEHE17-.LEHB17
 1819 0069 00       		.uleb128 0
 1820 006a 00       		.uleb128 0
 1821 006b 4C       		.uleb128 .LEHB18-.LFB789
 1822 006c 04       		.uleb128 .LEHE18-.LEHB18
 1823 006d E002     		.uleb128 .L118-.LFB789
 1824 006f 00       		.uleb128 0
 1825 0070 60       		.uleb128 .LEHB19-.LFB789
 1826 0071 04       		.uleb128 .LEHE19-.LEHB19
 1827 0072 F402     		.uleb128 .L119-.LFB789
 1828 0074 00       		.uleb128 0
 1829 0075 C801     		.uleb128 .LEHB20-.LFB789
 1830 0077 AC01     		.uleb128 .LEHE20-.LEHB20
 1831 0079 00       		.uleb128 0
 1832 007a 00       		.uleb128 0
 1833              	.LLSDACSE789:
 1834              		.section	".text"
 1835              		.size	_Z8FindFileSsSs, .-_Z8FindFileSsSs
 1836              		.align 2
 1837              		.globl _Z10SearchFilePKcS0_Pc
 1838              		.type	_Z10SearchFilePKcS0_Pc, @function
 1839              	_Z10SearchFilePKcS0_Pc:
 1840              	.LFB790:
 1841              		.loc 1 77 0
 1842              		.cfi_startproc
 1843              		.cfi_personality 0,__gxx_personality_v0
 1844              		.cfi_lsda 0,.LLSDA790
 1845              	.LVL151:
 1846 07ec 7C0802A6 		mflr 0
 1847 07f0 9421FFD0 		stwu 1,-48(1)
 1848              	.LCFI18:
 1849              		.cfi_def_cfa_offset 48
 1850              		.cfi_register 65, 0
 1851 07f4 93A10024 		stw 29,36(1)
 1852 07f8 7CBD2B78 		mr 29,5
 1853              		.cfi_offset 29, -12
 1854 07fc 90010034 		stw 0,52(1)
 1855              	.LBB1828:
 1856              		.loc 1 78 0
 1857 0800 7C601B79 		mr. 0,3
 1858              		.cfi_offset 65, 4
 1859              	.LBE1828:
 1860              		.loc 1 77 0
 1861 0804 93C10028 		stw 30,40(1)
 1862 0808 7C9E2378 		mr 30,4
 1863              		.cfi_offset 30, -8
 1864 080c 9361001C 		stw 27,28(1)
 1865 0810 93810020 		stw 28,32(1)
 1866 0814 93E1002C 		stw 31,44(1)
 1867              	.LBB1874:
 1868              		.loc 1 78 0
 1869 0818 4182012C 		beq- 0,.L135
 1870              		.cfi_offset 31, -4
 1871              		.cfi_offset 28, -16
 1872              		.cfi_offset 27, -20
 1873              	.LVL152:
 1874              		.loc 1 78 0 is_stmt 0 discriminator 1
 1875 081c 2F840000 		cmpwi 7,4,0
 1876 0820 419E0124 		beq- 7,.L135
 1877              		.loc 1 81 0 is_stmt 1
 1878 0824 3861000C 		addi 3,1,12
 1879 0828 7C040378 		mr 4,0
 1880              	.LVL153:
 1881 082c 38A10009 		addi 5,1,9
 1882              	.LVL154:
 1883              	.LEHB21:
 1884 0830 48000001 		bl _ZNSsC1EPKcRKSaIcE
 1885              	.LEHE21:
 1886              	.LVL155:
 1887 0834 3860000C 		li 3,12
 1888              	.LEHB22:
 1889 0838 48000001 		bl _Znwj
 1890              	.LEHE22:
 1891 083c 3881000C 		addi 4,1,12
 1892 0840 38A00000 		li 5,0
 1893 0844 38C00003 		li 6,3
 1894 0848 7C7F1B78 		mr 31,3
 1895              	.LEHB23:
 1896 084c 48000001 		bl _ZN7DirListC1ESsPKcj
 1897              	.LEHE23:
 1898              	.LVL156:
 1899              	.LBB1829:
 1900              	.LBB1830:
 1901              	.LBB1831:
 1902              	.LBB1832:
 1903              	.LBB1833:
 1904              		.loc 2 288 0
 1905 0850 8121000C 		lwz 9,12(1)
 1906              	.LBE1833:
 1907              	.LBE1832:
 1908              	.LBE1831:
 1909              	.LBB1834:
 1910              	.LBB1835:
 1911              		.loc 2 235 0
 1912 0854 3D600000 		lis 11,_ZNSs4_Rep20_S_empty_rep_storageE@ha
 1913 0858 380B0000 		la 0,_ZNSs4_Rep20_S_empty_rep_storageE@l(11)
 1914              	.LBE1835:
 1915              	.LBE1834:
 1916              		.loc 2 534 0
 1917 085c 3869FFF4 		addi 3,9,-12
 1918              	.LVL157:
 1919              	.LBB1844:
 1920              	.LBB1842:
 1921              		.loc 2 235 0
 1922 0860 7F830000 		cmpw 7,3,0
 1923 0864 409E01A4 		bne- 7,.L141
 1924              	.LVL158:
 1925              	.L126:
 1926              	.LBE1842:
 1927              	.LBE1844:
 1928              	.LBE1830:
 1929              	.LBE1829:
 1930              	.LBB1847:
 1931              	.LBB1848:
 1932              		.loc 1 654 0 discriminator 1
 1933 0868 813F0000 		lwz 9,0(31)
 1934              	.LBB1849:
 1935              	.LBB1850:
 1936              		.loc 4 571 0 discriminator 1
 1937 086c 3C00AAAA 		lis 0,0xaaaa
 1938 0870 817F0004 		lwz 11,4(31)
 1939 0874 6000AAAB 		ori 0,0,43691
 1940 0878 7D695850 		subf 11,9,11
 1941 087c 7D6B1E70 		srawi 11,11,3
 1942              	.LBE1850:
 1943              	.LBE1849:
 1944              	.LBE1848:
 1945              		.loc 1 83 0 discriminator 1
 1946 0880 7C0B01D7 		mullw. 0,11,0
 1947 0884 408100E8 		ble- 0,.L127
 1948              		.loc 1 83 0 is_stmt 0
 1949 0888 3B600000 		li 27,0
 1950 088c 3B800000 		li 28,0
 1951 0890 4800004C 		b .L131
 1952              	.LVL159:
 1953              	.L128:
 1954              		.loc 1 95 0 is_stmt 1
 1955 0894 7F84E378 		mr 4,28
 1956 0898 7FE3FB78 		mr 3,31
 1957              	.LEHB24:
 1958 089c 48000001 		bl _ZN7DirList11GetFilenameEi
 1959 08a0 7FC4F378 		mr 4,30
 1960 08a4 48000001 		bl strcasecmp
 1961 08a8 2F830000 		cmpwi 7,3,0
 1962 08ac 419E00F8 		beq- 7,.L142
 1963              	.L129:
 1964              	.LBB1855:
 1965              		.loc 1 654 0
 1966 08b0 813F0000 		lwz 9,0(31)
 1967              	.LBB1853:
 1968              	.LBB1851:
 1969              		.loc 4 571 0
 1970 08b4 3C00AAAA 		lis 0,0xaaaa
 1971 08b8 817F0004 		lwz 11,4(31)
 1972 08bc 6000AAAB 		ori 0,0,43691
 1973              	.LBE1851:
 1974              	.LBE1853:
 1975              	.LBE1855:
 1976              		.loc 1 83 0
 1977 08c0 3B9C0001 		addi 28,28,1
 1978              	.LVL160:
 1979              	.LBB1856:
 1980              	.LBB1854:
 1981              	.LBB1852:
 1982              		.loc 4 571 0
 1983 08c4 3B7B0018 		addi 27,27,24
 1984 08c8 7D695850 		subf 11,9,11
 1985 08cc 7D6B1E70 		srawi 11,11,3
 1986 08d0 7C0B01D6 		mullw 0,11,0
 1987              	.LBE1852:
 1988              	.LBE1854:
 1989              	.LBE1856:
 1990              		.loc 1 83 0
 1991 08d4 7F9C0000 		cmpw 7,28,0
 1992 08d8 409C0094 		bge- 7,.L127
 1993              	.LVL161:
 1994              	.L131:
 1995              	.LBB1857:
 1996              	.LBB1858:
 1997              	.LBB1859:
 1998              	.LBB1860:
 1999              		.loc 5 90 0
 2000 08dc 7F80E000 		cmpw 7,0,28
 2001 08e0 40BDFFB4 		ble- 7,.L128
 2002              	.LVL162:
 2003              	.LBE1860:
 2004              	.LBE1859:
 2005              	.LBB1861:
 2006              	.LBB1862:
 2007              		.loc 4 696 0
 2008 08e4 7D69DA14 		add 11,9,27
 2009              	.LBE1862:
 2010              	.LBE1861:
 2011              	.LBE1858:
 2012              	.LBE1857:
 2013              		.loc 1 85 0
 2014 08e8 880B0010 		lbz 0,16(11)
 2015 08ec 2F800000 		cmpwi 7,0,0
 2016 08f0 41BEFFA4 		beq- 7,.L128
 2017              	.LVL163:
 2018              		.loc 1 87 0
 2019 08f4 7C69D82E 		lwzx 3,9,27
 2020 08f8 7FC4F378 		mr 4,30
 2021 08fc 7FA5EB78 		mr 5,29
 2022 0900 48000001 		bl _Z10SearchFilePKcS0_Pc
 2023 0904 2F830000 		cmpwi 7,3,0
 2024 0908 419EFFA8 		beq+ 7,.L129
 2025              	.LVL164:
 2026              	.L140:
 2027              		.loc 1 99 0
 2028 090c 7FE3FB78 		mr 3,31
 2029 0910 48000001 		bl _ZN7DirListD1Ev
 2030 0914 7FE3FB78 		mr 3,31
 2031 0918 48000001 		bl _ZdlPv
 2032              	.LBE1847:
 2033              	.LBE1874:
 2034              		.loc 1 107 0
 2035 091c 80010034 		lwz 0,52(1)
 2036 0920 8361001C 		lwz 27,28(1)
 2037              	.LBB1875:
 2038              	.LBB1871:
 2039              		.loc 1 100 0
 2040 0924 38600001 		li 3,1
 2041              	.LBE1871:
 2042              	.LBE1875:
 2043              		.loc 1 107 0
 2044 0928 7C0803A6 		mtlr 0
 2045 092c 83810020 		lwz 28,32(1)
 2046 0930 83A10024 		lwz 29,36(1)
 2047              	.LVL165:
 2048 0934 83C10028 		lwz 30,40(1)
 2049              	.LVL166:
 2050 0938 83E1002C 		lwz 31,44(1)
 2051              	.LVL167:
 2052 093c 38210030 		addi 1,1,48
 2053              		.cfi_remember_state
 2054              	.LCFI19:
 2055              		.cfi_def_cfa_offset 0
 2056              		.cfi_restore 31
 2057              		.cfi_restore 30
 2058              		.cfi_restore 29
 2059              		.cfi_restore 28
 2060              		.cfi_restore 27
 2061 0940 4E800020 		blr
 2062              	.LVL168:
 2063              	.L135:
 2064              	.LCFI20:
 2065              		.cfi_restore_state
 2066 0944 80010034 		lwz 0,52(1)
 2067              	.LVL169:
 2068              	.LBB1876:
 2069              		.loc 1 79 0
 2070 0948 38600000 		li 3,0
 2071              	.LVL170:
 2072              	.LBE1876:
 2073              		.loc 1 107 0
 2074 094c 8361001C 		lwz 27,28(1)
 2075 0950 7C0803A6 		mtlr 0
 2076 0954 83810020 		lwz 28,32(1)
 2077 0958 83A10024 		lwz 29,36(1)
 2078 095c 83C10028 		lwz 30,40(1)
 2079 0960 83E1002C 		lwz 31,44(1)
 2080 0964 38210030 		addi 1,1,48
 2081              		.cfi_remember_state
 2082              		.cfi_restore 27
 2083              		.cfi_restore 28
 2084              		.cfi_restore 29
 2085              		.cfi_restore 30
 2086              		.cfi_restore 31
 2087              	.LCFI21:
 2088              		.cfi_def_cfa_offset 0
 2089 0968 4E800020 		blr
 2090              	.LVL171:
 2091              	.L127:
 2092              	.LCFI22:
 2093              		.cfi_restore_state
 2094              	.LBB1877:
 2095              		.loc 1 104 0 discriminator 1
 2096 096c 7FE3FB78 		mr 3,31
 2097 0970 48000001 		bl _ZN7DirListD1Ev
 2098 0974 7FE3FB78 		mr 3,31
 2099 0978 48000001 		bl _ZdlPv
 2100              	.LBE1877:
 2101              		.loc 1 107 0 discriminator 1
 2102 097c 80010034 		lwz 0,52(1)
 2103 0980 8361001C 		lwz 27,28(1)
 2104              	.LBB1878:
 2105              		.loc 1 106 0 discriminator 1
 2106 0984 38600000 		li 3,0
 2107              	.LBE1878:
 2108              		.loc 1 107 0 discriminator 1
 2109 0988 7C0803A6 		mtlr 0
 2110 098c 83810020 		lwz 28,32(1)
 2111 0990 83A10024 		lwz 29,36(1)
 2112              	.LVL172:
 2113 0994 83C10028 		lwz 30,40(1)
 2114              	.LVL173:
 2115 0998 83E1002C 		lwz 31,44(1)
 2116              	.LVL174:
 2117 099c 38210030 		addi 1,1,48
 2118              		.cfi_remember_state
 2119              		.cfi_restore 27
 2120              		.cfi_restore 28
 2121              		.cfi_restore 29
 2122              		.cfi_restore 30
 2123              		.cfi_restore 31
 2124              	.LCFI23:
 2125              		.cfi_def_cfa_offset 0
 2126 09a0 4E800020 		blr
 2127              	.LVL175:
 2128              	.L142:
 2129              	.LCFI24:
 2130              		.cfi_restore_state
 2131              	.LBB1879:
 2132              	.LBB1872:
 2133              	.LBB1863:
 2134              	.LBB1864:
 2135              	.LBB1865:
 2136              		.loc 1 654 0
 2137 09a4 813F0000 		lwz 9,0(31)
 2138              	.LBB1866:
 2139              	.LBB1867:
 2140              	.LBB1868:
 2141              		.loc 4 571 0
 2142 09a8 3C00AAAA 		lis 0,0xaaaa
 2143 09ac 817F0004 		lwz 11,4(31)
 2144 09b0 6000AAAB 		ori 0,0,43691
 2145              	.LBE1868:
 2146              	.LBE1867:
 2147              		.loc 5 60 0
 2148 09b4 38800000 		li 4,0
 2149              	.LBB1870:
 2150              	.LBB1869:
 2151              		.loc 4 571 0
 2152 09b8 7D695850 		subf 11,9,11
 2153 09bc 7D6B1E70 		srawi 11,11,3
 2154 09c0 7C0B01D6 		mullw 0,11,0
 2155              	.LBE1869:
 2156              	.LBE1870:
 2157              		.loc 5 90 0
 2158 09c4 7F80E000 		cmpw 7,0,28
 2159 09c8 409D000C 		ble- 7,.L130
 2160              	.LVL176:
 2161              	.LBE1866:
 2162              	.LBE1865:
 2163              		.loc 5 60 0
 2164 09cc 1F9C0018 		mulli 28,28,24
 2165              	.LVL177:
 2166 09d0 7C89E02E 		lwzx 4,9,28
 2167              	.L130:
 2168              	.LBE1864:
 2169              	.LBE1863:
 2170              		.loc 1 97 0
 2171 09d4 7FA3EB78 		mr 3,29
 2172 09d8 48000001 		bl strcpy
 2173 09dc 4BFFFF30 		b .L140
 2174              	.LVL178:
 2175              	.L138:
 2176 09e0 7C7E1B78 		mr 30,3
 2177              	.LVL179:
 2178              	.LBE1872:
 2179              		.loc 1 81 0
 2180 09e4 7FE3FB78 		mr 3,31
 2181 09e8 48000001 		bl _ZdlPv
 2182 09ec 7FDFF378 		mr 31,30
 2183              	.L133:
 2184 09f0 3861000C 		addi 3,1,12
 2185 09f4 48000001 		bl _ZNSsD1Ev
 2186 09f8 7FE3FB78 		mr 3,31
 2187 09fc 48000001 		bl _Unwind_Resume
 2188              	.LEHE24:
 2189              	.LVL180:
 2190              	.L137:
 2191 0a00 7C7F1B78 		mr 31,3
 2192 0a04 4BFFFFEC 		b .L133
 2193              	.LVL181:
 2194              	.L141:
 2195              	.LBB1873:
 2196              	.LBB1846:
 2197              	.LBB1845:
 2198              	.LBB1843:
 2199              	.LBB1836:
 2200              	.LBB1837:
 2201              	.LBB1838:
 2202              		.loc 6 66 0
 2203 0a08 8169FFFC 		lwz 11,-4(9)
 2204              	.LVL182:
 2205              	.LBE1838:
 2206              	.LBE1837:
 2207              	.LBE1836:
 2208              		.loc 2 240 0
 2209 0a0c 2F8B0000 		cmpwi 7,11,0
 2210              	.LBB1841:
 2211              	.LBB1840:
 2212              	.LBB1839:
 2213              		.loc 6 67 0
 2214 0a10 396BFFFF 		addi 11,11,-1
 2215 0a14 9169FFFC 		stw 11,-4(9)
 2216              	.LBE1839:
 2217              	.LBE1840:
 2218              	.LBE1841:
 2219              		.loc 2 240 0
 2220 0a18 419DFE50 		bgt+ 7,.L126
 2221              		.loc 2 244 0
 2222 0a1c 38810008 		addi 4,1,8
 2223 0a20 48000001 		bl _ZNSs4_Rep10_M_destroyERKSaIcE
 2224              	.LVL183:
 2225 0a24 4BFFFE44 		b .L126
 2226              	.LBE1843:
 2227              	.LBE1845:
 2228              	.LBE1846:
 2229              	.LBE1873:
 2230              	.LBE1879:
 2231              		.cfi_endproc
 2232              	.LFE790:
 2233              		.section	.gcc_except_table
 2234              	.LLSDA790:
 2235 007b FF       		.byte	0xff
 2236 007c FF       		.byte	0xff
 2237 007d 01       		.byte	0x1
 2238 007e 14       		.uleb128 .LLSDACSE790-.LLSDACSB790
 2239              	.LLSDACSB790:
 2240 007f 44       		.uleb128 .LEHB21-.LFB790
 2241 0080 04       		.uleb128 .LEHE21-.LEHB21
 2242 0081 00       		.uleb128 0
 2243 0082 00       		.uleb128 0
 2244 0083 4C       		.uleb128 .LEHB22-.LFB790
 2245 0084 04       		.uleb128 .LEHE22-.LEHB22
 2246 0085 9404     		.uleb128 .L137-.LFB790
 2247 0087 00       		.uleb128 0
 2248 0088 60       		.uleb128 .LEHB23-.LFB790
 2249 0089 04       		.uleb128 .LEHE23-.LEHB23
 2250 008a F403     		.uleb128 .L138-.LFB790
 2251 008c 00       		.uleb128 0
 2252 008d B001     		.uleb128 .LEHB24-.LFB790
 2253 008f E402     		.uleb128 .LEHE24-.LEHB24
 2254 0091 00       		.uleb128 0
 2255 0092 00       		.uleb128 0
 2256              	.LLSDACSE790:
 2257              		.section	".text"
 2258              		.size	_Z10SearchFilePKcS0_Pc, .-_Z10SearchFilePKcS0_Pc
 2259              		.align 2
 2260              		.globl _Z9CheckFileSs
 2261              		.type	_Z9CheckFileSs, @function
 2262              	_Z9CheckFileSs:
 2263              	.LFB791:
 2264              		.loc 1 115 0
 2265              		.cfi_startproc
 2266              	.LVL184:
 2267 0a28 7C0802A6 		mflr 0
 2268 0a2c 9421FFA0 		stwu 1,-96(1)
 2269              	.LCFI25:
 2270              		.cfi_def_cfa_offset 96
 2271              		.cfi_register 65, 0
 2272 0a30 93C10058 		stw 30,88(1)
 2273 0a34 90010064 		stw 0,100(1)
 2274 0a38 93E1005C 		stw 31,92(1)
 2275              		.loc 1 115 0
 2276 0a3c 7C7F1B78 		mr 31,3
 2277              		.cfi_offset 31, -4
 2278              		.cfi_offset 65, 4
 2279              		.cfi_offset 30, -8
 2280              	.LVL185:
 2281              	.LBB1968:
 2282              	.LBB1969:
 2283              	.LBB1970:
 2284              	.LBB1971:
 2285              	.LBB1972:
 2286              	.LBB1973:
 2287              	.LBB1974:
 2288              		.loc 2 288 0
 2289 0a40 81230000 		lwz 9,0(3)
 2290              	.LBE1974:
 2291              	.LBE1973:
 2292              	.LBE1972:
 2293              		.loc 2 711 0
 2294 0a44 83C9FFF4 		lwz 30,-12(9)
 2295              	.LBE1971:
 2296              	.LBE1970:
 2297              	.LBE1969:
 2298              		.loc 1 116 0
 2299 0a48 2F9E0000 		cmpwi 7,30,0
 2300 0a4c 40BE0030 		bne+ 7,.L154
 2301              	.LVL186:
 2302 0a50 48000098 		b .L158
 2303              	.LVL187:
 2304              	.L148:
 2305              	.LBB1975:
 2306              	.LBB1976:
 2307              		.loc 2 711 0
 2308 0a54 8129FFF4 		lwz 9,-12(9)
 2309              	.LBE1976:
 2310              	.LBE1975:
 2311              		.loc 1 122 0
 2312 0a58 3889FFFF 		addi 4,9,-1
 2313              	.LVL188:
 2314              	.LBB1977:
 2315              	.LBB1978:
 2316              	.LBB1979:
 2317              	.LBB1980:
 2318              		.loc 2 318 0
 2319 0a5c 7F844840 		cmplw 7,4,9
 2320 0a60 419D0110 		bgt- 7,.L157
 2321              	.LVL189:
 2322              	.LBE1980:
 2323              	.LBE1979:
 2324              		.loc 2 1349 0
 2325 0a64 7FE3FB78 		mr 3,31
 2326 0a68 38A00001 		li 5,1
 2327 0a6c 38C00000 		li 6,0
 2328 0a70 48000001 		bl _ZNSs9_M_mutateEjjj
 2329              	.LVL190:
 2330 0a74 813F0000 		lwz 9,0(31)
 2331 0a78 83C9FFF4 		lwz 30,-12(9)
 2332              	.LVL191:
 2333              	.L154:
 2334              	.LBE1978:
 2335              	.LBE1977:
 2336              	.LBB1984:
 2337              	.LBB1985:
 2338              	.LBB1986:
 2339              	.LBB1987:
 2340              		.loc 2 311 0 discriminator 1
 2341 0a7c 8009FFFC 		lwz 0,-4(9)
 2342              	.LBE1987:
 2343              	.LBE1986:
 2344              	.LBE1985:
 2345              	.LBE1984:
 2346              		.loc 1 121 0 discriminator 1
 2347 0a80 3BDEFFFF 		addi 30,30,-1
 2348              	.LVL192:
 2349              	.LBB1991:
 2350              	.LBB1990:
 2351              	.LBB1989:
 2352              	.LBB1988:
 2353              		.loc 2 311 0 discriminator 1
 2354 0a84 2F800000 		cmpwi 7,0,0
 2355 0a88 419C0010 		blt- 7,.L147
 2356              		.loc 2 312 0
 2357 0a8c 7FE3FB78 		mr 3,31
 2358 0a90 48000001 		bl _ZNSs12_M_leak_hardEv
 2359 0a94 813F0000 		lwz 9,0(31)
 2360              	.L147:
 2361              	.LBE1988:
 2362              	.LBE1989:
 2363              	.LBE1990:
 2364              	.LBE1991:
 2365              		.loc 1 121 0 discriminator 1
 2366 0a98 7C09F0AE 		lbzx 0,9,30
 2367 0a9c 2F80002F 		cmpwi 7,0,47
 2368 0aa0 419EFFB4 		beq+ 7,.L148
 2369              		.loc 1 124 0
 2370 0aa4 7FE3FB78 		mr 3,31
 2371 0aa8 3880002F 		li 4,47
 2372 0aac 38A00000 		li 5,0
 2373 0ab0 48000001 		bl _ZNKSs4findEcj
 2374              	.LVL193:
 2375              		.loc 1 125 0
 2376 0ab4 2F83FFFF 		cmpwi 7,3,-1
 2377 0ab8 419E004C 		beq- 7,.L149
 2378              	.LVL194:
 2379              	.L155:
 2380              	.LBB1992:
 2381              	.LBB1993:
 2382              	.LBB1994:
 2383              	.LBB1995:
 2384              	.LBB1996:
 2385              	.LBB1997:
 2386              	.LBB1998:
 2387              		.loc 3 245 0
 2388 0abc 807F0000 		lwz 3,0(31)
 2389              	.L150:
 2390              	.LBE1998:
 2391              	.LBE1997:
 2392              	.LBE1996:
 2393              	.LBE1995:
 2394              	.LBE1994:
 2395              	.LBE1993:
 2396              	.LBE1992:
 2397              		.loc 1 128 0
 2398 0ac0 38810008 		addi 4,1,8
 2399 0ac4 48000001 		bl stat
 2400              	.LBE1968:
 2401              		.loc 1 132 0
 2402 0ac8 80010064 		lwz 0,100(1)
 2403              	.LBB2023:
 2404              		.loc 1 114 0
 2405 0acc 7C630034 		cntlzw 3,3
 2406              	.LBE2023:
 2407              		.loc 1 132 0
 2408 0ad0 83C10058 		lwz 30,88(1)
 2409 0ad4 7C0803A6 		mtlr 0
 2410 0ad8 83E1005C 		lwz 31,92(1)
 2411              	.LVL195:
 2412              	.LBB2024:
 2413              		.loc 1 114 0
 2414 0adc 5463D97E 		srwi 3,3,5
 2415              	.LBE2024:
 2416              		.loc 1 132 0
 2417 0ae0 38210060 		addi 1,1,96
 2418              		.cfi_remember_state
 2419              	.LCFI26:
 2420              		.cfi_def_cfa_offset 0
 2421              		.cfi_restore 31
 2422              		.cfi_restore 30
 2423 0ae4 4E800020 		blr
 2424              	.LVL196:
 2425              	.L158:
 2426              	.LCFI27:
 2427              		.cfi_restore_state
 2428 0ae8 80010064 		lwz 0,100(1)
 2429              	.LBB2025:
 2430              		.loc 1 117 0
 2431 0aec 38600000 		li 3,0
 2432              	.LVL197:
 2433              	.LBE2025:
 2434              		.loc 1 132 0
 2435 0af0 83C10058 		lwz 30,88(1)
 2436 0af4 7C0803A6 		mtlr 0
 2437 0af8 83E1005C 		lwz 31,92(1)
 2438              	.LVL198:
 2439 0afc 38210060 		addi 1,1,96
 2440              		.cfi_remember_state
 2441              		.cfi_restore 30
 2442              		.cfi_restore 31
 2443              	.LCFI28:
 2444              		.cfi_def_cfa_offset 0
 2445 0b00 4E800020 		blr
 2446              	.LVL199:
 2447              	.L149:
 2448              	.LCFI29:
 2449              		.cfi_restore_state
 2450              	.LBB2026:
 2451              	.LBB2021:
 2452              	.LBB2020:
 2453              	.LBB2019:
 2454              	.LBB2007:
 2455              	.LBB2008:
 2456              	.LBB2009:
 2457              	.LBB2010:
 2458              	.LBB2011:
 2459              		.loc 2 288 0
 2460 0b04 813F0000 		lwz 9,0(31)
 2461              	.LBE2011:
 2462              	.LBE2010:
 2463              	.LBE2009:
 2464              		.loc 2 711 0
 2465 0b08 8169FFF4 		lwz 11,-12(9)
 2466              	.LBE2008:
 2467              	.LBE2007:
 2468              		.loc 2 1046 0
 2469 0b0c 8009FFF8 		lwz 0,-8(9)
 2470              		.loc 2 1045 0
 2471 0b10 3BCB0001 		addi 30,11,1
 2472              	.LVL200:
 2473              		.loc 2 1046 0
 2474 0b14 7F9E0040 		cmplw 7,30,0
 2475 0b18 419D0010 		bgt- 7,.L151
 2476              	.LVL201:
 2477 0b1c 8009FFFC 		lwz 0,-4(9)
 2478 0b20 2F800000 		cmpwi 7,0,0
 2479 0b24 409D0018 		ble- 7,.L152
 2480              	.LVL202:
 2481              	.L151:
 2482              		.loc 2 1047 0
 2483 0b28 7FE3FB78 		mr 3,31
 2484              	.LVL203:
 2485 0b2c 7FC4F378 		mr 4,30
 2486 0b30 48000001 		bl _ZNSs7reserveEj
 2487 0b34 813F0000 		lwz 9,0(31)
 2488 0b38 8169FFF4 		lwz 11,-12(9)
 2489              	.L152:
 2490              	.LVL204:
 2491              	.LBB2012:
 2492              	.LBB2013:
 2493              		.loc 3 245 0
 2494 0b3c 3800002F 		li 0,47
 2495 0b40 7C0959AE 		stbx 0,9,11
 2496              	.LVL205:
 2497              	.LBE2013:
 2498              	.LBE2012:
 2499              	.LBB2014:
 2500              	.LBB2005:
 2501              		.loc 2 205 0
 2502 0b44 3D600000 		lis 11,_ZNSs4_Rep20_S_empty_rep_storageE@ha
 2503              	.LVL206:
 2504 0b48 380B0000 		la 0,_ZNSs4_Rep20_S_empty_rep_storageE@l(11)
 2505              	.LBE2005:
 2506              	.LBE2014:
 2507              	.LBB2015:
 2508              	.LBB2016:
 2509              	.LBB2017:
 2510              		.loc 2 288 0
 2511 0b4c 807F0000 		lwz 3,0(31)
 2512              	.LVL207:
 2513              	.LBE2017:
 2514              	.LBE2016:
 2515              	.LBE2015:
 2516              		.loc 2 1049 0
 2517 0b50 3923FFF4 		addi 9,3,-12
 2518              	.LBB2018:
 2519              	.LBB2006:
 2520              		.loc 2 205 0
 2521 0b54 7F890000 		cmpw 7,9,0
 2522 0b58 419EFF68 		beq+ 7,.L150
 2523              	.LBB2000:
 2524              	.LBB2001:
 2525              		.loc 2 199 0
 2526 0b5c 38000000 		li 0,0
 2527              	.LBE2001:
 2528              	.LBE2000:
 2529              		.loc 2 209 0
 2530 0b60 93C3FFF4 		stw 30,-12(3)
 2531              	.LVL208:
 2532              	.LBB2003:
 2533              	.LBB2002:
 2534              		.loc 2 199 0
 2535 0b64 9003FFFC 		stw 0,-4(3)
 2536              	.LBE2002:
 2537              	.LBE2003:
 2538              	.LBB2004:
 2539              	.LBB1999:
 2540              		.loc 3 245 0
 2541 0b68 7C03F1AE 		stbx 0,3,30
 2542 0b6c 4BFFFF50 		b .L155
 2543              	.LVL209:
 2544              	.L157:
 2545              	.LBE1999:
 2546              	.LBE2004:
 2547              	.LBE2006:
 2548              	.LBE2018:
 2549              	.LBE2019:
 2550              	.LBE2020:
 2551              	.LBE2021:
 2552              	.LBB2022:
 2553              	.LBB1983:
 2554              	.LBB1982:
 2555              	.LBB1981:
 2556              		.loc 2 319 0
 2557 0b70 3C600000 		lis 3,.LC0@ha
 2558 0b74 38630000 		la 3,.LC0@l(3)
 2559 0b78 48000001 		bl _ZSt20__throw_out_of_rangePKc
 2560              	.LVL210:
 2561              	.LVL211:
 2562              	.LBE1981:
 2563              	.LBE1982:
 2564              	.LBE1983:
 2565              	.LBE2022:
 2566              	.LBE2026:
 2567              		.cfi_endproc
 2568              	.LFE791:
 2569              		.size	_Z9CheckFileSs, .-_Z9CheckFileSs
 2570              		.align 2
 2571              		.globl _Z8FileSizeSs
 2572              		.type	_Z8FileSizeSs, @function
 2573              	_Z8FileSizeSs:
 2574              	.LFB792:
 2575              		.loc 1 140 0
 2576              		.cfi_startproc
 2577              	.LVL212:
 2578 0b7c 7C0802A6 		mflr 0
 2579 0b80 9421FFA8 		stwu 1,-88(1)
 2580              	.LCFI30:
 2581              		.cfi_def_cfa_offset 88
 2582              		.cfi_register 65, 0
 2583              	.LBB2027:
 2584              		.loc 1 144 0
 2585 0b84 39400000 		li 10,0
 2586 0b88 39600000 		li 11,0
 2587              	.LBE2027:
 2588              		.loc 1 140 0
 2589 0b8c 9001005C 		stw 0,92(1)
 2590              	.LBB2034:
 2591              	.LBB2028:
 2592              	.LBB2029:
 2593              	.LBB2030:
 2594              	.LBB2031:
 2595              	.LBB2032:
 2596              	.LBB2033:
 2597              		.loc 2 288 0
 2598 0b90 80630000 		lwz 3,0(3)
 2599              	.LVL213:
 2600              	.LBE2033:
 2601              	.LBE2032:
 2602              	.LBE2031:
 2603              	.LBE2030:
 2604              	.LBE2029:
 2605              	.LBE2028:
 2606              		.loc 1 143 0
 2607 0b94 8003FFF4 		lwz 0,-12(3)
 2608              		.cfi_offset 65, 4
 2609 0b98 2F800000 		cmpwi 7,0,0
 2610 0b9c 409E001C 		bne- 7,.L163
 2611              	.LBE2034:
 2612              		.loc 1 147 0
 2613 0ba0 8001005C 		lwz 0,92(1)
 2614 0ba4 7D435378 		mr 3,10
 2615 0ba8 7D645B78 		mr 4,11
 2616 0bac 7C0803A6 		mtlr 0
 2617 0bb0 38210058 		addi 1,1,88
 2618              		.cfi_remember_state
 2619              	.LCFI31:
 2620              		.cfi_def_cfa_offset 0
 2621 0bb4 4E800020 		blr
 2622              	.L163:
 2623              	.LCFI32:
 2624              		.cfi_restore_state
 2625              	.LBB2035:
 2626              		.loc 1 143 0
 2627 0bb8 38810008 		addi 4,1,8
 2628 0bbc 48000001 		bl stat
 2629              	.LBE2035:
 2630              		.loc 1 147 0
 2631 0bc0 8001005C 		lwz 0,92(1)
 2632              	.LBB2036:
 2633              		.loc 1 144 0
 2634 0bc4 7C690034 		cntlzw 9,3
 2635              		.loc 1 146 0
 2636 0bc8 81410020 		lwz 10,32(1)
 2637 0bcc 81610024 		lwz 11,36(1)
 2638              		.loc 1 144 0
 2639 0bd0 5529D97E 		srwi 9,9,5
 2640 0bd4 39000000 		li 8,0
 2641              	.LBE2036:
 2642              		.loc 1 147 0
 2643 0bd8 7C0803A6 		mtlr 0
 2644              	.LBB2037:
 2645              		.loc 1 144 0
 2646 0bdc 21290000 		subfic 9,9,0
 2647 0be0 7D080190 		subfze 8,8
 2648              	.LBE2037:
 2649              		.loc 1 147 0
 2650              	.LBB2038:
 2651              		.loc 1 144 0
 2652 0be4 7D464038 		and 6,10,8
 2653 0be8 7D674838 		and 7,11,9
 2654 0bec 7CCA3378 		mr 10,6
 2655 0bf0 7CEB3B78 		mr 11,7
 2656              	.LBE2038:
 2657              		.loc 1 147 0
 2658 0bf4 7D435378 		mr 3,10
 2659 0bf8 7D645B78 		mr 4,11
 2660 0bfc 38210058 		addi 1,1,88
 2661              	.LCFI33:
 2662              		.cfi_def_cfa_offset 0
 2663 0c00 4E800020 		blr
 2664              		.cfi_endproc
 2665              	.LFE792:
 2666              		.size	_Z8FileSizeSs, .-_Z8FileSizeSs
 2667              		.align 2
 2668              		.globl _Z13LoadFileToMemSsPPhPy
 2669              		.type	_Z13LoadFileToMemSsPPhPy, @function
 2670              	_Z13LoadFileToMemSsPPhPy:
 2671              	.LFB793:
 2672              		.loc 1 155 0
 2673              		.cfi_startproc
 2674              		.cfi_personality 0,__gxx_personality_v0
 2675              		.cfi_lsda 0,.LLSDA793
 2676              	.LVL214:
 2677 0c04 7C0802A6 		mflr 0
 2678 0c08 9421FF78 		stwu 1,-136(1)
 2679              	.LCFI34:
 2680              		.cfi_def_cfa_offset 136
 2681              		.cfi_register 65, 0
 2682 0c0c 92810058 		stw 20,88(1)
 2683 0c10 7C942378 		mr 20,4
 2684              		.cfi_offset 20, -48
 2685 0c14 9001008C 		stw 0,140(1)
 2686 0c18 93C10080 		stw 30,128(1)
 2687 0c1c 7CBE2B78 		mr 30,5
 2688              		.cfi_offset 30, -8
 2689              		.cfi_offset 65, 4
 2690              	.LBB2124:
 2691              	.LBB2125:
 2692              	.LBB2126:
 2693              	.LBB2127:
 2694              	.LBB2128:
 2695              	.LBB2129:
 2696              	.LBB2130:
 2697              		.loc 2 288 0
 2698 0c20 81230000 		lwz 9,0(3)
 2699              	.LBE2130:
 2700              	.LBE2129:
 2701              	.LBE2128:
 2702              	.LBE2127:
 2703              	.LBE2126:
 2704              	.LBE2125:
 2705              	.LBE2124:
 2706              		.loc 1 155 0
 2707 0c24 93E10084 		stw 31,132(1)
 2708 0c28 7C7F1B78 		mr 31,3
 2709              		.cfi_offset 31, -4
 2710              	.LVL215:
 2711              	.LBB2180:
 2712              	.LBB2133:
 2713              	.LBB2132:
 2714              	.LBB2131:
 2715              		.loc 2 711 0
 2716 0c2c 8169FFF4 		lwz 11,-12(9)
 2717              	.LBE2131:
 2718              	.LBE2132:
 2719              	.LBE2133:
 2720              	.LBE2180:
 2721              		.loc 1 155 0
 2722 0c30 92A1005C 		stw 21,92(1)
 2723              	.LBB2181:
 2724              		.loc 1 156 0
 2725 0c34 2F8B0000 		cmpwi 7,11,0
 2726              	.LBE2181:
 2727              		.loc 1 155 0
 2728 0c38 92C10060 		stw 22,96(1)
 2729 0c3c 92E10064 		stw 23,100(1)
 2730 0c40 93010068 		stw 24,104(1)
 2731 0c44 9321006C 		stw 25,108(1)
 2732 0c48 93410070 		stw 26,112(1)
 2733 0c4c 93610074 		stw 27,116(1)
 2734 0c50 93810078 		stw 28,120(1)
 2735 0c54 93A1007C 		stw 29,124(1)
 2736              	.LBB2182:
 2737              		.loc 1 156 0
 2738 0c58 40BE0030 		bne+ 7,.L198
 2739              		.cfi_offset 29, -12
 2740              		.cfi_offset 28, -16
 2741              		.cfi_offset 27, -20
 2742              		.cfi_offset 26, -24
 2743              		.cfi_offset 25, -28
 2744              		.cfi_offset 24, -32
 2745              		.cfi_offset 23, -36
 2746              		.cfi_offset 22, -40
 2747              		.cfi_offset 21, -44
 2748 0c5c 4800022C 		b .L206
 2749              	.LVL216:
 2750              	.L169:
 2751              	.LBB2134:
 2752              	.LBB2135:
 2753              		.loc 2 711 0
 2754 0c60 8129FFF4 		lwz 9,-12(9)
 2755              	.LBE2135:
 2756              	.LBE2134:
 2757              		.loc 1 160 0
 2758 0c64 3889FFFF 		addi 4,9,-1
 2759              	.LVL217:
 2760              	.LBB2136:
 2761              	.LBB2137:
 2762              	.LBB2138:
 2763              	.LBB2139:
 2764              		.loc 2 318 0
 2765 0c68 7F844840 		cmplw 7,4,9
 2766 0c6c 419D0234 		bgt- 7,.L201
 2767              	.LVL218:
 2768              	.LBE2139:
 2769              	.LBE2138:
 2770              		.loc 2 1349 0
 2771 0c70 7FE3FB78 		mr 3,31
 2772 0c74 38A00001 		li 5,1
 2773 0c78 38C00000 		li 6,0
 2774              	.LEHB25:
 2775 0c7c 48000001 		bl _ZNSs9_M_mutateEjjj
 2776              	.LVL219:
 2777 0c80 813F0000 		lwz 9,0(31)
 2778 0c84 8169FFF4 		lwz 11,-12(9)
 2779              	.LVL220:
 2780              	.L198:
 2781              	.LBE2137:
 2782              	.LBE2136:
 2783              	.LBB2143:
 2784              	.LBB2144:
 2785              	.LBB2145:
 2786              	.LBB2146:
 2787              		.loc 2 311 0 discriminator 1
 2788 0c88 8009FFFC 		lwz 0,-4(9)
 2789              	.LBE2146:
 2790              	.LBE2145:
 2791              	.LBE2144:
 2792              	.LBE2143:
 2793              		.loc 1 159 0 discriminator 1
 2794 0c8c 3B4BFFFF 		addi 26,11,-1
 2795              	.LVL221:
 2796              	.LBB2150:
 2797              	.LBB2149:
 2798              	.LBB2148:
 2799              	.LBB2147:
 2800              		.loc 2 311 0 discriminator 1
 2801 0c90 2F800000 		cmpwi 7,0,0
 2802 0c94 419C0010 		blt- 7,.L168
 2803              		.loc 2 312 0
 2804 0c98 7FE3FB78 		mr 3,31
 2805 0c9c 48000001 		bl _ZNSs12_M_leak_hardEv
 2806 0ca0 813F0000 		lwz 9,0(31)
 2807              	.L168:
 2808              	.LBE2147:
 2809              	.LBE2148:
 2810              	.LBE2149:
 2811              	.LBE2150:
 2812              		.loc 1 159 0 discriminator 1
 2813 0ca4 7C09D0AE 		lbzx 0,9,26
 2814 0ca8 2F80002F 		cmpwi 7,0,47
 2815 0cac 419EFFB4 		beq+ 7,.L169
 2816              	.LVL222:
 2817              		.loc 1 163 0
 2818 0cb0 3861000C 		addi 3,1,12
 2819 0cb4 7FE4FB78 		mr 4,31
 2820 0cb8 48000001 		bl _ZNSsC1ERKSs
 2821              	.LVL223:
 2822              	.LBB2151:
 2823              	.LBB2152:
 2824              	.LBB2153:
 2825              	.LBB2154:
 2826              	.LBB2155:
 2827              	.LBB2156:
 2828              	.LBB2157:
 2829              	.LBB2158:
 2830              		.loc 2 288 0
 2831 0cbc 8061000C 		lwz 3,12(1)
 2832              	.LBE2158:
 2833              	.LBE2157:
 2834              	.LBE2156:
 2835              	.LBE2155:
 2836              	.LBE2154:
 2837              	.LBE2153:
 2838              		.loc 1 143 0
 2839 0cc0 8003FFF4 		lwz 0,-12(3)
 2840 0cc4 2F800000 		cmpwi 7,0,0
 2841 0cc8 409E0144 		bne- 7,.L202
 2842              	.L170:
 2843              	.LBE2152:
 2844              	.LBE2151:
 2845              	.LBE2182:
 2846              		.loc 1 144 0
 2847 0ccc 3B400000 		li 26,0
 2848              	.LVL224:
 2849 0cd0 3B600000 		li 27,0
 2850              	.L187:
 2851              	.LVL225:
 2852              	.LBB2183:
 2853              	.LBB2160:
 2854              	.LBB2161:
 2855              	.LBB2162:
 2856              	.LBB2163:
 2857              	.LBB2164:
 2858              		.loc 2 235 0
 2859 0cd4 3D200000 		lis 9,_ZNSs4_Rep20_S_empty_rep_storageE@ha
 2860              	.LBE2164:
 2861              	.LBE2163:
 2862              		.loc 2 534 0
 2863 0cd8 3803FFF4 		addi 0,3,-12
 2864              	.LVL226:
 2865              	.LBB2173:
 2866              	.LBB2171:
 2867              		.loc 2 235 0
 2868 0cdc 39290000 		la 9,_ZNSs4_Rep20_S_empty_rep_storageE@l(9)
 2869 0ce0 7F804800 		cmpw 7,0,9
 2870 0ce4 409E01D8 		bne- 7,.L203
 2871              	.LVL227:
 2872              	.L177:
 2873              	.LBE2171:
 2874              	.LBE2173:
 2875              	.LBE2162:
 2876              	.LBE2161:
 2877              	.LBE2160:
 2878              		.loc 1 165 0 discriminator 1
 2879 0ce8 38000000 		li 0,0
 2880              		.loc 1 166 0 discriminator 1
 2881 0cec 39400000 		li 10,0
 2882              		.loc 1 165 0 discriminator 1
 2883 0cf0 90140000 		stw 0,0(20)
 2884              		.loc 1 166 0 discriminator 1
 2885 0cf4 39600000 		li 11,0
 2886 0cf8 915E0000 		stw 10,0(30)
 2887              		.loc 1 168 0 discriminator 1
 2888 0cfc 3C800000 		lis 4,.LC1@ha
 2889              		.loc 1 166 0 discriminator 1
 2890 0d00 917E0004 		stw 11,4(30)
 2891              	.LVL228:
 2892              		.loc 1 168 0 discriminator 1
 2893 0d04 38840014 		la 4,.LC1@l(4)
 2894 0d08 807F0000 		lwz 3,0(31)
 2895 0d0c 48000001 		bl fopen
 2896              	.LVL229:
 2897              		.loc 1 170 0 discriminator 1
 2898 0d10 7C771B79 		mr. 23,3
 2899              		.loc 1 171 0 discriminator 1
 2900 0d14 3860FFFF 		li 3,-1
 2901              	.LVL230:
 2902              		.loc 1 170 0 discriminator 1
 2903 0d18 418200B4 		beq- 0,.L165
 2904              		.loc 1 173 0
 2905 0d1c 7F63DB78 		mr 3,27
 2906              		.loc 1 174 0
 2907 0d20 3FE00001 		lis 31,0x1
 2908              	.LVL231:
 2909              		.loc 1 173 0
 2910 0d24 48000001 		bl malloc
 2911              	.LVL232:
 2912 0d28 7F75DB78 		mr 21,27
 2913              		.loc 1 174 0
 2914 0d2c 7C761B79 		mr. 22,3
 2915 0d30 63FF1800 		ori 31,31,6144
 2916 0d34 3B000000 		li 24,0
 2917 0d38 3B200000 		li 25,0
 2918 0d3c 41820170 		beq- 0,.L204
 2919              	.LVL233:
 2920              	.L197:
 2921              		.loc 1 192 0
 2922 0d40 7D79D810 		subfc 11,25,27
 2923 0d44 7D58D110 		subfe 10,24,26
 2924 0d48 2F8A0000 		cmpwi 7,10,0
 2925 0d4c 409E0010 		bne- 7,.L179
 2926 0d50 7F9F5840 		cmplw 7,31,11
 2927 0d54 409D0008 		ble- 7,.L179
 2928              		.loc 1 193 0
 2929 0d58 7FF9A850 		subf 31,25,21
 2930              	.LVL234:
 2931              	.L179:
 2932              		.loc 1 195 0
 2933 0d5c 7C76CA14 		add 3,22,25
 2934 0d60 38800001 		li 4,1
 2935 0d64 7FE5FB78 		mr 5,31
 2936 0d68 7EE6BB78 		mr 6,23
 2937 0d6c 48000001 		bl fread
 2938              	.LVL235:
 2939              		.loc 1 196 0
 2940 0d70 2C030000 		cmpwi 0,3,0
 2941 0d74 418000C0 		blt- 0,.L205
 2942              		.loc 1 202 0
 2943 0d78 4182002C 		beq- 0,.L182
 2944              		.loc 1 208 0
 2945 0d7c 7C7D1B78 		mr 29,3
 2946 0d80 7C7CFE70 		srawi 28,3,31
 2947 0d84 7F39E814 		addc 25,25,29
 2948 0d88 7F18E114 		adde 24,24,28
 2949              	.LVL236:
 2950              		.loc 1 183 0
 2951 0d8c 7F9AC040 		cmplw 7,26,24
 2952 0d90 419DFFB0 		bgt+ 7,.L197
 2953 0d94 7F9AC000 		cmpw 7,26,24
 2954 0d98 409E000C 		bne- 7,.L182
 2955 0d9c 7F9BC840 		cmplw 7,27,25
 2956 0da0 419DFFA0 		bgt+ 7,.L197
 2957              	.L182:
 2958              		.loc 1 213 0
 2959 0da4 7EE3BB78 		mr 3,23
 2960              	.LVL237:
 2961 0da8 48000001 		bl fclose
 2962              	.LEHE25:
 2963              		.loc 1 215 0
 2964 0dac 7F98D000 		cmpw 7,24,26
 2965 0db0 409E00E0 		bne- 7,.L193
 2966 0db4 7F99D800 		cmpw 7,25,27
 2967 0db8 409E00D8 		bne- 7,.L193
 2968              		.loc 1 221 0
 2969 0dbc 92D40000 		stw 22,0(20)
 2970              		.loc 1 224 0
 2971 0dc0 38600001 		li 3,1
 2972              		.loc 1 222 0
 2973 0dc4 931E0000 		stw 24,0(30)
 2974 0dc8 933E0004 		stw 25,4(30)
 2975              	.LVL238:
 2976              	.L165:
 2977              	.LBE2183:
 2978              		.loc 1 225 0
 2979 0dcc 8001008C 		lwz 0,140(1)
 2980 0dd0 82810058 		lwz 20,88(1)
 2981              	.LVL239:
 2982 0dd4 7C0803A6 		mtlr 0
 2983 0dd8 82A1005C 		lwz 21,92(1)
 2984 0ddc 82C10060 		lwz 22,96(1)
 2985 0de0 82E10064 		lwz 23,100(1)
 2986 0de4 83010068 		lwz 24,104(1)
 2987 0de8 8321006C 		lwz 25,108(1)
 2988 0dec 83410070 		lwz 26,112(1)
 2989 0df0 83610074 		lwz 27,116(1)
 2990 0df4 83810078 		lwz 28,120(1)
 2991 0df8 83A1007C 		lwz 29,124(1)
 2992 0dfc 83C10080 		lwz 30,128(1)
 2993              	.LVL240:
 2994 0e00 83E10084 		lwz 31,132(1)
 2995 0e04 38210088 		addi 1,1,136
 2996              		.cfi_remember_state
 2997              	.LCFI35:
 2998              		.cfi_def_cfa_offset 0
 2999              		.cfi_restore 31
 3000              		.cfi_restore 30
 3001              		.cfi_restore 29
 3002              		.cfi_restore 28
 3003              		.cfi_restore 27
 3004              		.cfi_restore 26
 3005              		.cfi_restore 25
 3006              		.cfi_restore 24
 3007              		.cfi_restore 23
 3008              		.cfi_restore 22
 3009              		.cfi_restore 21
 3010              		.cfi_restore 20
 3011 0e08 4E800020 		blr
 3012              	.LVL241:
 3013              	.L202:
 3014              	.LCFI36:
 3015              		.cfi_restore_state
 3016              	.LBB2184:
 3017              	.LBB2177:
 3018              	.LBB2159:
 3019              		.loc 1 143 0
 3020 0e0c 38810010 		addi 4,1,16
 3021              	.LEHB26:
 3022 0e10 48000001 		bl stat
 3023              	.LEHE26:
 3024 0e14 2F830000 		cmpwi 7,3,0
 3025 0e18 419E000C 		beq- 7,.L171
 3026 0e1c 8061000C 		lwz 3,12(1)
 3027 0e20 4BFFFEAC 		b .L170
 3028              	.L171:
 3029              		.loc 1 146 0
 3030 0e24 83410028 		lwz 26,40(1)
 3031              	.LVL242:
 3032 0e28 8361002C 		lwz 27,44(1)
 3033 0e2c 8061000C 		lwz 3,12(1)
 3034 0e30 4BFFFEA4 		b .L187
 3035              	.LVL243:
 3036              	.L205:
 3037              	.LBE2159:
 3038              	.LBE2177:
 3039              		.loc 1 198 0
 3040 0e34 7EC3B378 		mr 3,22
 3041              	.LVL244:
 3042 0e38 48000001 		bl free
 3043              		.loc 1 199 0
 3044 0e3c 7EE3BB78 		mr 3,23
 3045              	.LEHB27:
 3046 0e40 48000001 		bl fclose
 3047              	.LBE2184:
 3048              		.loc 1 225 0
 3049 0e44 8001008C 		lwz 0,140(1)
 3050 0e48 82810058 		lwz 20,88(1)
 3051              	.LVL245:
 3052              	.LBB2185:
 3053              		.loc 1 200 0
 3054 0e4c 3860FFFD 		li 3,-3
 3055              	.LBE2185:
 3056              		.loc 1 225 0
 3057 0e50 7C0803A6 		mtlr 0
 3058 0e54 82A1005C 		lwz 21,92(1)
 3059 0e58 82C10060 		lwz 22,96(1)
 3060              	.LVL246:
 3061 0e5c 82E10064 		lwz 23,100(1)
 3062              	.LVL247:
 3063 0e60 83010068 		lwz 24,104(1)
 3064              	.LVL248:
 3065 0e64 8321006C 		lwz 25,108(1)
 3066 0e68 83410070 		lwz 26,112(1)
 3067 0e6c 83610074 		lwz 27,116(1)
 3068 0e70 83810078 		lwz 28,120(1)
 3069 0e74 83A1007C 		lwz 29,124(1)
 3070 0e78 83C10080 		lwz 30,128(1)
 3071              	.LVL249:
 3072 0e7c 83E10084 		lwz 31,132(1)
 3073              	.LVL250:
 3074 0e80 38210088 		addi 1,1,136
 3075              		.cfi_remember_state
 3076              		.cfi_restore 20
 3077              		.cfi_restore 21
 3078              		.cfi_restore 22
 3079              		.cfi_restore 23
 3080              		.cfi_restore 24
 3081              		.cfi_restore 25
 3082              		.cfi_restore 26
 3083              		.cfi_restore 27
 3084              		.cfi_restore 28
 3085              		.cfi_restore 29
 3086              		.cfi_restore 30
 3087              		.cfi_restore 31
 3088              	.LCFI37:
 3089              		.cfi_def_cfa_offset 0
 3090 0e84 4E800020 		blr
 3091              	.LVL251:
 3092              	.L206:
 3093              	.LCFI38:
 3094              		.cfi_restore_state
 3095              	.LBB2186:
 3096              		.loc 1 157 0
 3097 0e88 3860FFFF 		li 3,-1
 3098              	.LVL252:
 3099 0e8c 4BFFFF40 		b .L165
 3100              	.LVL253:
 3101              	.L193:
 3102              		.loc 1 217 0
 3103 0e90 7EC3B378 		mr 3,22
 3104 0e94 48000001 		bl free
 3105              		.loc 1 218 0
 3106 0e98 3860FFFD 		li 3,-3
 3107 0e9c 4BFFFF30 		b .L165
 3108              	.LVL254:
 3109              	.L201:
 3110              	.LBB2178:
 3111              	.LBB2142:
 3112              	.LBB2141:
 3113              	.LBB2140:
 3114              		.loc 2 319 0
 3115 0ea0 3C600000 		lis 3,.LC0@ha
 3116 0ea4 38630000 		la 3,.LC0@l(3)
 3117 0ea8 48000001 		bl _ZSt20__throw_out_of_rangePKc
 3118              	.LVL255:
 3119              	.L204:
 3120              	.LBE2140:
 3121              	.LBE2141:
 3122              	.LBE2142:
 3123              	.LBE2178:
 3124              		.loc 1 176 0
 3125 0eac 7EE3BB78 		mr 3,23
 3126              	.LVL256:
 3127 0eb0 48000001 		bl fclose
 3128              		.loc 1 177 0
 3129 0eb4 3860FFFE 		li 3,-2
 3130 0eb8 4BFFFF14 		b .L165
 3131              	.LVL257:
 3132              	.L203:
 3133              	.LBB2179:
 3134              	.LBB2176:
 3135              	.LBB2175:
 3136              	.LBB2174:
 3137              	.LBB2172:
 3138              	.LBB2165:
 3139              	.LBB2166:
 3140              	.LBB2167:
 3141              		.loc 6 66 0
 3142 0ebc 8123FFFC 		lwz 9,-4(3)
 3143              	.LVL258:
 3144              	.LBE2167:
 3145              	.LBE2166:
 3146              	.LBE2165:
 3147              		.loc 2 240 0
 3148 0ec0 2F890000 		cmpwi 7,9,0
 3149              	.LBB2170:
 3150              	.LBB2169:
 3151              	.LBB2168:
 3152              		.loc 6 67 0
 3153 0ec4 3929FFFF 		addi 9,9,-1
 3154 0ec8 9123FFFC 		stw 9,-4(3)
 3155              	.LBE2168:
 3156              	.LBE2169:
 3157              	.LBE2170:
 3158              		.loc 2 240 0
 3159 0ecc 419DFE1C 		bgt+ 7,.L177
 3160              		.loc 2 244 0
 3161 0ed0 7C030378 		mr 3,0
 3162              	.LVL259:
 3163 0ed4 38810008 		addi 4,1,8
 3164 0ed8 48000001 		bl _ZNSs4_Rep10_M_destroyERKSaIcE
 3165              	.LVL260:
 3166 0edc 4BFFFE0C 		b .L177
 3167              	.LVL261:
 3168              	.L191:
 3169 0ee0 7C7F1B78 		mr 31,3
 3170              	.LVL262:
 3171              	.LBE2172:
 3172              	.LBE2174:
 3173              	.LBE2175:
 3174              	.LBE2176:
 3175              	.LBE2179:
 3176              		.loc 1 163 0
 3177 0ee4 3861000C 		addi 3,1,12
 3178              	.LVL263:
 3179 0ee8 48000001 		bl _ZNSsD1Ev
 3180              	.LVL264:
 3181 0eec 7FE3FB78 		mr 3,31
 3182 0ef0 48000001 		bl _Unwind_Resume
 3183              	.LEHE27:
 3184              	.LBE2186:
 3185              		.cfi_endproc
 3186              	.LFE793:
 3187              		.section	.gcc_except_table
 3188              	.LLSDA793:
 3189 0093 FF       		.byte	0xff
 3190 0094 FF       		.byte	0xff
 3191 0095 01       		.byte	0x1
 3192 0096 11       		.uleb128 .LLSDACSE793-.LLSDACSB793
 3193              	.LLSDACSB793:
 3194 0097 78       		.uleb128 .LEHB25-.LFB793
 3195 0098 B002     		.uleb128 .LEHE25-.LEHB25
 3196 009a 00       		.uleb128 0
 3197 009b 00       		.uleb128 0
 3198 009c 8C04     		.uleb128 .LEHB26-.LFB793
 3199 009e 04       		.uleb128 .LEHE26-.LEHB26
 3200 009f DC05     		.uleb128 .L191-.LFB793
 3201 00a1 00       		.uleb128 0
 3202 00a2 BC04     		.uleb128 .LEHB27-.LFB793
 3203 00a4 B401     		.uleb128 .LEHE27-.LEHB27
 3204 00a6 00       		.uleb128 0
 3205 00a7 00       		.uleb128 0
 3206              	.LLSDACSE793:
 3207              		.section	".text"
 3208              		.size	_Z13LoadFileToMemSsPPhPy, .-_Z13LoadFileToMemSsPPhPy
 3209              		.align 2
 3210              		.globl _Z25LoadFileToMemWithProgressPKcSsPPhPy
 3211              		.type	_Z25LoadFileToMemWithProgressPKcSsPPhPy, @function
 3212              	_Z25LoadFileToMemWithProgressPKcSsPPhPy:
 3213              	.LFB794:
 3214              		.loc 1 233 0
 3215              		.cfi_startproc
 3216              		.cfi_personality 0,__gxx_personality_v0
 3217              		.cfi_lsda 0,.LLSDA794
 3218              	.LVL265:
 3219 0ef4 9421FF60 		stwu 1,-160(1)
 3220              	.LCFI39:
 3221              		.cfi_def_cfa_offset 160
 3222 0ef8 7C0802A6 		mflr 0
 3223              		.loc 1 234 0
 3224 0efc 38610010 		addi 3,1,16
 3225              	.LVL266:
 3226              		.loc 1 233 0
 3227 0f00 9261006C 		stw 19,108(1)
 3228 0f04 92810070 		stw 20,112(1)
 3229 0f08 7CB32B78 		mr 19,5
 3230              		.cfi_offset 20, -48
 3231              		.cfi_offset 19, -52
 3232              		.cfi_register 65, 0
 3233 0f0c 93E1009C 		stw 31,156(1)
 3234 0f10 7CD43378 		mr 20,6
 3235 0f14 900100A4 		stw 0,164(1)
 3236 0f18 92A10074 		stw 21,116(1)
 3237 0f1c 92C10078 		stw 22,120(1)
 3238 0f20 92E1007C 		stw 23,124(1)
 3239 0f24 93010080 		stw 24,128(1)
 3240 0f28 93210084 		stw 25,132(1)
 3241 0f2c 93410088 		stw 26,136(1)
 3242 0f30 9361008C 		stw 27,140(1)
 3243 0f34 93810090 		stw 28,144(1)
 3244 0f38 93A10094 		stw 29,148(1)
 3245 0f3c 93C10098 		stw 30,152(1)
 3246              	.LEHB28:
 3247              		.loc 1 234 0
 3248              		.cfi_offset 30, -8
 3249              		.cfi_offset 29, -12
 3250              		.cfi_offset 28, -16
 3251              		.cfi_offset 27, -20
 3252              		.cfi_offset 26, -24
 3253              		.cfi_offset 25, -28
 3254              		.cfi_offset 24, -32
 3255              		.cfi_offset 23, -36
 3256              		.cfi_offset 22, -40
 3257              		.cfi_offset 21, -44
 3258              		.cfi_offset 65, 4
 3259              		.cfi_offset 31, -4
 3260 0f40 48000001 		bl _ZNSsC1ERKSs
 3261              	.LEHE28:
 3262              	.LVL267:
 3263              	.LBB2295:
 3264              	.LBB2296:
 3265              	.LBB2297:
 3266              	.LBB2298:
 3267              	.LBB2299:
 3268              	.LBB2300:
 3269              	.LBB2301:
 3270              	.LBB2302:
 3271              		.loc 2 288 0
 3272 0f44 81210010 		lwz 9,16(1)
 3273              	.LBE2302:
 3274              	.LBE2301:
 3275              	.LBE2300:
 3276              		.loc 2 711 0
 3277 0f48 83E9FFF4 		lwz 31,-12(9)
 3278              	.LBE2299:
 3279              	.LBE2298:
 3280              	.LBE2297:
 3281              		.loc 1 156 0
 3282 0f4c 2F9F0000 		cmpwi 7,31,0
 3283 0f50 40BE0030 		bne+ 7,.L250
 3284 0f54 48000208 		b .L261
 3285              	.LVL268:
 3286              	.L212:
 3287              	.LBB2303:
 3288              	.LBB2304:
 3289              		.loc 2 711 0
 3290 0f58 8129FFF4 		lwz 9,-12(9)
 3291              	.LBE2304:
 3292              	.LBE2303:
 3293              		.loc 1 160 0
 3294 0f5c 3889FFFF 		addi 4,9,-1
 3295              	.LVL269:
 3296              	.LBB2305:
 3297              	.LBB2306:
 3298              	.LBB2307:
 3299              	.LBB2308:
 3300              		.loc 2 318 0
 3301 0f60 7F892040 		cmplw 7,9,4
 3302 0f64 419C0220 		blt- 7,.L254
 3303              	.LVL270:
 3304              	.LBE2308:
 3305              	.LBE2307:
 3306              		.loc 2 1349 0
 3307 0f68 38610010 		addi 3,1,16
 3308              	.LVL271:
 3309 0f6c 38A00001 		li 5,1
 3310 0f70 38C00000 		li 6,0
 3311              	.LEHB29:
 3312 0f74 48000001 		bl _ZNSs9_M_mutateEjjj
 3313              	.LVL272:
 3314 0f78 81210010 		lwz 9,16(1)
 3315 0f7c 83E9FFF4 		lwz 31,-12(9)
 3316              	.LVL273:
 3317              	.L250:
 3318              	.LBE2306:
 3319              	.LBE2305:
 3320              	.LBB2312:
 3321              	.LBB2313:
 3322              	.LBB2314:
 3323              	.LBB2315:
 3324              		.loc 2 311 0
 3325 0f80 8009FFFC 		lwz 0,-4(9)
 3326 0f84 2F800000 		cmpwi 7,0,0
 3327 0f88 419C0010 		blt- 7,.L211
 3328              		.loc 2 312 0
 3329 0f8c 38610010 		addi 3,1,16
 3330              	.LVL274:
 3331 0f90 48000001 		bl _ZNSs12_M_leak_hardEv
 3332              	.LVL275:
 3333 0f94 81210010 		lwz 9,16(1)
 3334              	.L211:
 3335              	.LVL276:
 3336              	.LBE2315:
 3337              	.LBE2314:
 3338              	.LBE2313:
 3339              	.LBE2312:
 3340              		.loc 1 159 0
 3341 0f98 7FE9FA14 		add 31,9,31
 3342              	.LVL277:
 3343 0f9c 881FFFFF 		lbz 0,-1(31)
 3344 0fa0 2F80002F 		cmpwi 7,0,47
 3345 0fa4 419EFFB4 		beq+ 7,.L212
 3346              	.LVL278:
 3347              		.loc 1 163 0
 3348 0fa8 3861000C 		addi 3,1,12
 3349 0fac 38810010 		addi 4,1,16
 3350              	.LVL279:
 3351 0fb0 48000001 		bl _ZNSsC1ERKSs
 3352              	.LVL280:
 3353              	.LBB2316:
 3354              	.LBB2317:
 3355              	.LBB2318:
 3356              	.LBB2319:
 3357              	.LBB2320:
 3358              	.LBB2321:
 3359              	.LBB2322:
 3360              	.LBB2323:
 3361              		.loc 2 288 0
 3362 0fb4 8061000C 		lwz 3,12(1)
 3363              	.LBE2323:
 3364              	.LBE2322:
 3365              	.LBE2321:
 3366              	.LBE2320:
 3367              	.LBE2319:
 3368              	.LBE2318:
 3369              		.loc 1 143 0
 3370 0fb8 8003FFF4 		lwz 0,-12(3)
 3371 0fbc 2F800000 		cmpwi 7,0,0
 3372 0fc0 409E0158 		bne- 7,.L255
 3373              	.L213:
 3374              	.LBE2317:
 3375              	.LBE2316:
 3376              	.LBE2296:
 3377              	.LBE2295:
 3378              		.loc 1 144 0
 3379 0fc4 3B400000 		li 26,0
 3380 0fc8 3B600000 		li 27,0
 3381              	.L239:
 3382              	.LVL281:
 3383              	.LBB2349:
 3384              	.LBB2345:
 3385              	.LBB2325:
 3386              	.LBB2326:
 3387              	.LBB2327:
 3388              	.LBB2328:
 3389              	.LBB2329:
 3390              		.loc 2 235 0
 3391 0fcc 3EA00000 		lis 21,_ZNSs4_Rep20_S_empty_rep_storageE@ha
 3392              	.LBE2329:
 3393              	.LBE2328:
 3394              		.loc 2 534 0
 3395 0fd0 3803FFF4 		addi 0,3,-12
 3396              	.LVL282:
 3397              	.LBB2338:
 3398              	.LBB2336:
 3399              		.loc 2 235 0
 3400 0fd4 3AB50000 		la 21,_ZNSs4_Rep20_S_empty_rep_storageE@l(21)
 3401 0fd8 7F80A800 		cmpw 7,0,21
 3402 0fdc 409E01DC 		bne- 7,.L256
 3403              	.LVL283:
 3404              	.L220:
 3405              	.LBE2336:
 3406              	.LBE2338:
 3407              	.LBE2327:
 3408              	.LBE2326:
 3409              	.LBE2325:
 3410              		.loc 1 165 0
 3411 0fe0 38000000 		li 0,0
 3412              		.loc 1 166 0
 3413 0fe4 39400000 		li 10,0
 3414 0fe8 39600000 		li 11,0
 3415              		.loc 1 165 0
 3416 0fec 90130000 		stw 0,0(19)
 3417              		.loc 1 168 0
 3418 0ff0 3C800000 		lis 4,.LC1@ha
 3419              		.loc 1 166 0
 3420 0ff4 91540000 		stw 10,0(20)
 3421 0ff8 91740004 		stw 11,4(20)
 3422              	.LVL284:
 3423              		.loc 1 168 0
 3424 0ffc 38840014 		la 4,.LC1@l(4)
 3425 1000 80610010 		lwz 3,16(1)
 3426 1004 48000001 		bl fopen
 3427              	.LVL285:
 3428              		.loc 1 170 0
 3429 1008 7C7E1B79 		mr. 30,3
 3430 100c 4182016C 		beq- 0,.L257
 3431              		.loc 1 173 0
 3432 1010 7F63DB78 		mr 3,27
 3433              	.LVL286:
 3434              		.loc 1 174 0
 3435 1014 3FE00001 		lis 31,0x1
 3436              		.loc 1 173 0
 3437 1018 48000001 		bl malloc
 3438              	.LVL287:
 3439 101c 7F76DB78 		mr 22,27
 3440              		.loc 1 174 0
 3441 1020 7C771B79 		mr. 23,3
 3442 1024 63FF1800 		ori 31,31,6144
 3443 1028 3B800000 		li 28,0
 3444 102c 3BA00000 		li 29,0
 3445 1030 41820174 		beq- 0,.L258
 3446              	.LVL288:
 3447              	.L249:
 3448              		.loc 1 192 0
 3449 1034 7D7DD810 		subfc 11,29,27
 3450 1038 7D5CD110 		subfe 10,28,26
 3451 103c 2F8A0000 		cmpwi 7,10,0
 3452 1040 409E0010 		bne- 7,.L223
 3453 1044 7F9F5840 		cmplw 7,31,11
 3454 1048 409D0008 		ble- 7,.L223
 3455              		.loc 1 193 0
 3456 104c 7FFDB050 		subf 31,29,22
 3457              	.LVL289:
 3458              	.L223:
 3459              		.loc 1 195 0
 3460 1050 7C77EA14 		add 3,23,29
 3461 1054 38800001 		li 4,1
 3462 1058 7FE5FB78 		mr 5,31
 3463 105c 7FC6F378 		mr 6,30
 3464 1060 48000001 		bl fread
 3465              	.LVL290:
 3466              		.loc 1 196 0
 3467 1064 2C030000 		cmpwi 0,3,0
 3468 1068 418000D8 		blt- 0,.L259
 3469              		.loc 1 202 0
 3470 106c 4182002C 		beq- 0,.L226
 3471              		.loc 1 208 0
 3472 1070 7C791B78 		mr 25,3
 3473 1074 7C78FE70 		srawi 24,3,31
 3474 1078 7FBDC814 		addc 29,29,25
 3475 107c 7F9CC114 		adde 28,28,24
 3476              	.LVL291:
 3477              		.loc 1 183 0
 3478 1080 7F9AE040 		cmplw 7,26,28
 3479 1084 419DFFB0 		bgt+ 7,.L249
 3480 1088 7F9AE000 		cmpw 7,26,28
 3481 108c 409E000C 		bne- 7,.L226
 3482 1090 7F9BE840 		cmplw 7,27,29
 3483 1094 419DFFA0 		bgt+ 7,.L249
 3484              	.L226:
 3485              		.loc 1 213 0
 3486 1098 7FC3F378 		mr 3,30
 3487              	.LVL292:
 3488 109c 48000001 		bl fclose
 3489              	.LEHE29:
 3490              		.loc 1 215 0
 3491 10a0 7F9CD000 		cmpw 7,28,26
 3492 10a4 409E00C8 		bne- 7,.L245
 3493 10a8 7F9DD800 		cmpw 7,29,27
 3494 10ac 409E00C0 		bne- 7,.L245
 3495              		.loc 1 221 0
 3496 10b0 92F30000 		stw 23,0(19)
 3497              		.loc 1 224 0
 3498 10b4 3BE00001 		li 31,1
 3499              	.LVL293:
 3500              		.loc 1 222 0
 3501 10b8 81210010 		lwz 9,16(1)
 3502 10bc 93940000 		stw 28,0(20)
 3503 10c0 93B40004 		stw 29,4(20)
 3504              	.LVL294:
 3505              	.L208:
 3506              	.LBE2345:
 3507              	.LBE2349:
 3508              	.LBB2350:
 3509              	.LBB2351:
 3510              	.LBB2352:
 3511              		.loc 2 534 0
 3512 10c4 3869FFF4 		addi 3,9,-12
 3513              	.LVL295:
 3514              	.LBB2353:
 3515              	.LBB2354:
 3516              		.loc 2 235 0
 3517 10c8 7F83A800 		cmpw 7,3,21
 3518 10cc 409E0110 		bne- 7,.L260
 3519              	.LVL296:
 3520              	.L238:
 3521              	.LBE2354:
 3522              	.LBE2353:
 3523              	.LBE2352:
 3524              	.LBE2351:
 3525              	.LBE2350:
 3526              		.loc 1 235 0 discriminator 1
 3527 10d0 800100A4 		lwz 0,164(1)
 3528 10d4 7FE3FB78 		mr 3,31
 3529 10d8 8261006C 		lwz 19,108(1)
 3530              	.LVL297:
 3531 10dc 7C0803A6 		mtlr 0
 3532 10e0 82810070 		lwz 20,112(1)
 3533              	.LVL298:
 3534 10e4 82A10074 		lwz 21,116(1)
 3535 10e8 82C10078 		lwz 22,120(1)
 3536 10ec 82E1007C 		lwz 23,124(1)
 3537 10f0 83010080 		lwz 24,128(1)
 3538 10f4 83210084 		lwz 25,132(1)
 3539 10f8 83410088 		lwz 26,136(1)
 3540 10fc 8361008C 		lwz 27,140(1)
 3541 1100 83810090 		lwz 28,144(1)
 3542 1104 83A10094 		lwz 29,148(1)
 3543 1108 83C10098 		lwz 30,152(1)
 3544 110c 83E1009C 		lwz 31,156(1)
 3545 1110 382100A0 		addi 1,1,160
 3546              		.cfi_remember_state
 3547              	.LCFI40:
 3548              		.cfi_def_cfa_offset 0
 3549              		.cfi_restore 31
 3550              		.cfi_restore 30
 3551              		.cfi_restore 29
 3552              		.cfi_restore 28
 3553              		.cfi_restore 27
 3554              		.cfi_restore 26
 3555              		.cfi_restore 25
 3556              		.cfi_restore 24
 3557              		.cfi_restore 23
 3558              		.cfi_restore 22
 3559              		.cfi_restore 21
 3560              		.cfi_restore 20
 3561              		.cfi_restore 19
 3562 1114 4E800020 		blr
 3563              	.LVL299:
 3564              	.L255:
 3565              	.LCFI41:
 3566              		.cfi_restore_state
 3567              	.LBB2365:
 3568              	.LBB2346:
 3569              	.LBB2342:
 3570              	.LBB2324:
 3571              		.loc 1 143 0
 3572 1118 38810018 		addi 4,1,24
 3573              	.LEHB30:
 3574 111c 48000001 		bl stat
 3575              	.LEHE30:
 3576 1120 2F830000 		cmpwi 7,3,0
 3577 1124 419E000C 		beq- 7,.L214
 3578 1128 8061000C 		lwz 3,12(1)
 3579 112c 4BFFFE98 		b .L213
 3580              	.L214:
 3581              		.loc 1 146 0
 3582 1130 83410030 		lwz 26,48(1)
 3583 1134 83610034 		lwz 27,52(1)
 3584 1138 8061000C 		lwz 3,12(1)
 3585 113c 4BFFFE90 		b .L239
 3586              	.LVL300:
 3587              	.L259:
 3588              	.LBE2324:
 3589              	.LBE2342:
 3590              		.loc 1 198 0
 3591 1140 7EE3BB78 		mr 3,23
 3592              	.LVL301:
 3593 1144 48000001 		bl free
 3594              		.loc 1 199 0
 3595 1148 7FC3F378 		mr 3,30
 3596              	.LEHB31:
 3597 114c 48000001 		bl fclose
 3598              	.L252:
 3599              		.loc 1 217 0
 3600 1150 81210010 		lwz 9,16(1)
 3601              		.loc 1 218 0
 3602 1154 3BE0FFFD 		li 31,-3
 3603              	.LVL302:
 3604 1158 4BFFFF6C 		b .L208
 3605              	.LVL303:
 3606              	.L261:
 3607 115c 3EA00000 		lis 21,_ZNSs4_Rep20_S_empty_rep_storageE@ha
 3608              		.loc 1 157 0
 3609 1160 3BE0FFFF 		li 31,-1
 3610 1164 3AB50000 		la 21,_ZNSs4_Rep20_S_empty_rep_storageE@l(21)
 3611 1168 4BFFFF5C 		b .L208
 3612              	.LVL304:
 3613              	.L245:
 3614              		.loc 1 217 0
 3615 116c 7EE3BB78 		mr 3,23
 3616 1170 48000001 		bl free
 3617 1174 4BFFFFDC 		b .L252
 3618              	.LVL305:
 3619              	.L257:
 3620              		.loc 1 170 0
 3621 1178 81210010 		lwz 9,16(1)
 3622              		.loc 1 171 0
 3623 117c 3BE0FFFF 		li 31,-1
 3624 1180 4BFFFF44 		b .L208
 3625              	.LVL306:
 3626              	.L254:
 3627              	.LBB2343:
 3628              	.LBB2311:
 3629              	.LBB2310:
 3630              	.LBB2309:
 3631              		.loc 2 319 0
 3632 1184 3C600000 		lis 3,.LC0@ha
 3633 1188 38630000 		la 3,.LC0@l(3)
 3634 118c 48000001 		bl _ZSt20__throw_out_of_rangePKc
 3635              	.LEHE31:
 3636              	.LVL307:
 3637              	.L242:
 3638 1190 7C7F1B78 		mr 31,3
 3639              	.L233:
 3640              	.LBE2309:
 3641              	.LBE2310:
 3642              	.LBE2311:
 3643              	.LBE2343:
 3644              	.LBE2346:
 3645              	.LBE2365:
 3646              		.loc 1 234 0
 3647 1194 38610010 		addi 3,1,16
 3648              	.LVL308:
 3649 1198 48000001 		bl _ZNSsD1Ev
 3650              	.LVL309:
 3651 119c 7FE3FB78 		mr 3,31
 3652              	.LEHB32:
 3653 11a0 48000001 		bl _Unwind_Resume
 3654              	.LEHE32:
 3655              	.LVL310:
 3656              	.L258:
 3657              	.LBB2366:
 3658              	.LBB2347:
 3659              		.loc 1 176 0
 3660 11a4 7FC3F378 		mr 3,30
 3661              	.LVL311:
 3662              	.LEHB33:
 3663 11a8 48000001 		bl fclose
 3664              	.LEHE33:
 3665 11ac 81210010 		lwz 9,16(1)
 3666              		.loc 1 177 0
 3667 11b0 3BE0FFFE 		li 31,-2
 3668 11b4 4BFFFF10 		b .L208
 3669              	.LVL312:
 3670              	.L256:
 3671              	.LBB2344:
 3672              	.LBB2341:
 3673              	.LBB2340:
 3674              	.LBB2339:
 3675              	.LBB2337:
 3676              	.LBB2330:
 3677              	.LBB2331:
 3678              	.LBB2332:
 3679              		.loc 6 66 0
 3680 11b8 8123FFFC 		lwz 9,-4(3)
 3681              	.LVL313:
 3682              	.LBE2332:
 3683              	.LBE2331:
 3684              	.LBE2330:
 3685              		.loc 2 240 0
 3686 11bc 2F890000 		cmpwi 7,9,0
 3687              	.LBB2335:
 3688              	.LBB2334:
 3689              	.LBB2333:
 3690              		.loc 6 67 0
 3691 11c0 3929FFFF 		addi 9,9,-1
 3692 11c4 9123FFFC 		stw 9,-4(3)
 3693              	.LBE2333:
 3694              	.LBE2334:
 3695              	.LBE2335:
 3696              		.loc 2 240 0
 3697 11c8 419DFE18 		bgt+ 7,.L220
 3698              		.loc 2 244 0
 3699 11cc 7C030378 		mr 3,0
 3700              	.LVL314:
 3701 11d0 38810009 		addi 4,1,9
 3702 11d4 48000001 		bl _ZNSs4_Rep10_M_destroyERKSaIcE
 3703              	.LVL315:
 3704 11d8 4BFFFE08 		b .L220
 3705              	.LVL316:
 3706              	.L260:
 3707              	.LBE2337:
 3708              	.LBE2339:
 3709              	.LBE2340:
 3710              	.LBE2341:
 3711              	.LBE2344:
 3712              	.LBE2347:
 3713              	.LBE2366:
 3714              	.LBB2367:
 3715              	.LBB2364:
 3716              	.LBB2363:
 3717              	.LBB2362:
 3718              	.LBB2361:
 3719              	.LBB2355:
 3720              	.LBB2356:
 3721              	.LBB2357:
 3722              		.loc 6 66 0
 3723 11dc 8169FFFC 		lwz 11,-4(9)
 3724              	.LVL317:
 3725              	.LBE2357:
 3726              	.LBE2356:
 3727              	.LBE2355:
 3728              		.loc 2 240 0
 3729 11e0 2F8B0000 		cmpwi 7,11,0
 3730              	.LBB2360:
 3731              	.LBB2359:
 3732              	.LBB2358:
 3733              		.loc 6 67 0
 3734 11e4 396BFFFF 		addi 11,11,-1
 3735 11e8 9169FFFC 		stw 11,-4(9)
 3736              	.LBE2358:
 3737              	.LBE2359:
 3738              	.LBE2360:
 3739              		.loc 2 240 0
 3740 11ec 419DFEE4 		bgt+ 7,.L238
 3741              		.loc 2 244 0
 3742 11f0 38810008 		addi 4,1,8
 3743 11f4 48000001 		bl _ZNSs4_Rep10_M_destroyERKSaIcE
 3744              	.LVL318:
 3745 11f8 4BFFFED8 		b .L238
 3746              	.LVL319:
 3747              	.L243:
 3748 11fc 7C7F1B78 		mr 31,3
 3749              	.LBE2361:
 3750              	.LBE2362:
 3751              	.LBE2363:
 3752              	.LBE2364:
 3753              	.LBE2367:
 3754              	.LBB2368:
 3755              	.LBB2348:
 3756              		.loc 1 163 0
 3757 1200 3861000C 		addi 3,1,12
 3758              	.LVL320:
 3759 1204 48000001 		bl _ZNSsD1Ev
 3760              	.LVL321:
 3761 1208 4BFFFF8C 		b .L233
 3762              	.LBE2348:
 3763              	.LBE2368:
 3764              		.cfi_endproc
 3765              	.LFE794:
 3766              		.section	.gcc_except_table
 3767              	.LLSDA794:
 3768 00a8 FF       		.byte	0xff
 3769 00a9 FF       		.byte	0xff
 3770 00aa 01       		.byte	0x1
 3771 00ab 22       		.uleb128 .LLSDACSE794-.LLSDACSB794
 3772              	.LLSDACSB794:
 3773 00ac 4C       		.uleb128 .LEHB28-.LFB794
 3774 00ad 04       		.uleb128 .LEHE28-.LEHB28
 3775 00ae 00       		.uleb128 0
 3776 00af 00       		.uleb128 0
 3777 00b0 8001     		.uleb128 .LEHB29-.LFB794
 3778 00b2 AC02     		.uleb128 .LEHE29-.LEHB29
 3779 00b4 9C05     		.uleb128 .L242-.LFB794
 3780 00b6 00       		.uleb128 0
 3781 00b7 A804     		.uleb128 .LEHB30-.LFB794
 3782 00b9 04       		.uleb128 .LEHE30-.LEHB30
 3783 00ba 8806     		.uleb128 .L243-.LFB794
 3784 00bc 00       		.uleb128 0
 3785 00bd D804     		.uleb128 .LEHB31-.LFB794
 3786 00bf 44       		.uleb128 .LEHE31-.LEHB31
 3787 00c0 9C05     		.uleb128 .L242-.LFB794
 3788 00c2 00       		.uleb128 0
 3789 00c3 AC05     		.uleb128 .LEHB32-.LFB794
 3790 00c5 04       		.uleb128 .LEHE32-.LEHB32
 3791 00c6 00       		.uleb128 0
 3792 00c7 00       		.uleb128 0
 3793 00c8 B405     		.uleb128 .LEHB33-.LFB794
 3794 00ca 04       		.uleb128 .LEHE33-.LEHB33
 3795 00cb 9C05     		.uleb128 .L242-.LFB794
 3796 00cd 00       		.uleb128 0
 3797              	.LLSDACSE794:
 3798              		.section	".text"
 3799              		.size	_Z25LoadFileToMemWithProgressPKcSsPPhPy, .-_Z25LoadFileToMemWithProgressPKcSsPPhPy
 3800              		.align 2
 3801              		.globl _Z15CreateSubfolderSs
 3802              		.type	_Z15CreateSubfolderSs, @function
 3803              	_Z15CreateSubfolderSs:
 3804              	.LFB795:
 3805              		.loc 1 243 0
 3806              		.cfi_startproc
 3807              		.cfi_personality 0,__gxx_personality_v0
 3808              		.cfi_lsda 0,.LLSDA795
 3809              	.LVL322:
 3810 120c 7C0802A6 		mflr 0
 3811 1210 9421FFD8 		stwu 1,-40(1)
 3812              	.LCFI42:
 3813              		.cfi_def_cfa_offset 40
 3814              		.cfi_register 65, 0
 3815 1214 93A1001C 		stw 29,28(1)
 3816              	.LBB2505:
 3817              		.loc 1 245 0
 3818 1218 3BA00000 		li 29,0
 3819              		.cfi_offset 29, -12
 3820              	.LBE2505:
 3821              		.loc 1 243 0
 3822 121c 9001002C 		stw 0,44(1)
 3823 1220 93E10024 		stw 31,36(1)
 3824 1224 7C7F1B78 		mr 31,3
 3825              		.cfi_offset 31, -4
 3826              		.cfi_offset 65, 4
 3827              	.LVL323:
 3828              	.LBB2600:
 3829              	.LBB2506:
 3830              	.LBB2507:
 3831              	.LBB2508:
 3832              		.loc 2 711 0
 3833 1228 81230000 		lwz 9,0(3)
 3834              	.LBE2508:
 3835              	.LBE2507:
 3836              	.LBE2506:
 3837              	.LBE2600:
 3838              		.loc 1 243 0
 3839 122c 93C10020 		stw 30,32(1)
 3840              	.LBB2601:
 3841              		.loc 1 244 0
 3842 1230 8009FFF4 		lwz 0,-12(9)
 3843 1234 2F800000 		cmpwi 7,0,0
 3844 1238 409E0024 		bne- 7,.L298
 3845              		.cfi_offset 30, -8
 3846              	.LVL324:
 3847              	.L287:
 3848              	.LBE2601:
 3849              		.loc 1 270 0
 3850 123c 8001002C 		lwz 0,44(1)
 3851 1240 7FA3EB78 		mr 3,29
 3852 1244 83C10020 		lwz 30,32(1)
 3853 1248 7C0803A6 		mtlr 0
 3854 124c 83A1001C 		lwz 29,28(1)
 3855 1250 83E10024 		lwz 31,36(1)
 3856              	.LVL325:
 3857 1254 38210028 		addi 1,1,40
 3858              		.cfi_remember_state
 3859              	.LCFI43:
 3860              		.cfi_def_cfa_offset 0
 3861              		.cfi_restore 31
 3862              		.cfi_restore 30
 3863              		.cfi_restore 29
 3864 1258 4E800020 		blr
 3865              	.LVL326:
 3866              	.L298:
 3867              	.LCFI44:
 3868              		.cfi_restore_state
 3869              	.LBB2602:
 3870              		.loc 1 247 0
 3871 125c 38610014 		addi 3,1,20
 3872              	.LVL327:
 3873 1260 7FE4FB78 		mr 4,31
 3874              	.LEHB34:
 3875 1264 48000001 		bl _ZNSsC1ERKSs
 3876              	.LEHE34:
 3877 1268 38610014 		addi 3,1,20
 3878              	.LEHB35:
 3879 126c 4BFFED95 		bl _Z9CheckFileSs.constprop.19
 3880              	.LEHE35:
 3881              	.LBB2509:
 3882              	.LBB2510:
 3883              	.LBB2511:
 3884              	.LBB2512:
 3885              	.LBB2513:
 3886              	.LBB2514:
 3887              		.loc 2 288 0
 3888 1270 81210014 		lwz 9,20(1)
 3889              	.LBE2514:
 3890              	.LBE2513:
 3891              	.LBE2512:
 3892              	.LBB2515:
 3893              	.LBB2516:
 3894              		.loc 2 235 0
 3895 1274 3FC00000 		lis 30,_ZNSs4_Rep20_S_empty_rep_storageE@ha
 3896              	.LBE2516:
 3897              	.LBE2515:
 3898              	.LBE2511:
 3899              	.LBE2510:
 3900              	.LBE2509:
 3901              		.loc 1 247 0
 3902 1278 7C7D1B78 		mr 29,3
 3903              	.LVL328:
 3904              	.LBB2533:
 3905              	.LBB2531:
 3906              	.LBB2529:
 3907              	.LBB2526:
 3908              	.LBB2523:
 3909              		.loc 2 235 0
 3910 127c 3BDE0000 		la 30,_ZNSs4_Rep20_S_empty_rep_storageE@l(30)
 3911              	.LBE2523:
 3912              	.LBE2526:
 3913              		.loc 2 534 0
 3914 1280 3869FFF4 		addi 3,9,-12
 3915              	.LVL329:
 3916              	.LBB2527:
 3917              	.LBB2524:
 3918              		.loc 2 235 0
 3919 1284 7F83F000 		cmpw 7,3,30
 3920 1288 409E017C 		bne- 7,.L299
 3921              	.LVL330:
 3922              	.L269:
 3923              	.LBE2524:
 3924              	.LBE2527:
 3925              	.LBE2529:
 3926              	.LBE2531:
 3927              	.LBE2533:
 3928              		.loc 1 247 0 discriminator 1
 3929 128c 2F9D0000 		cmpwi 7,29,0
 3930 1290 409E013C 		bne- 7,.L292
 3931              	.LVL331:
 3932              	.LBB2534:
 3933              	.LBB2535:
 3934              	.LBB2536:
 3935              	.LBB2537:
 3936              	.LBB2538:
 3937              		.loc 2 288 0
 3938 1294 813F0000 		lwz 9,0(31)
 3939              	.LBE2538:
 3940              	.LBE2537:
 3941              	.LBE2536:
 3942              	.LBE2535:
 3943              	.LBE2534:
 3944              		.loc 1 250 0
 3945 1298 83A9FFF4 		lwz 29,-12(9)
 3946 129c 3BBDFFFF 		addi 29,29,-1
 3947              	.LVL332:
 3948              		.loc 1 251 0
 3949 12a0 4800002C 		b .L270
 3950              	.LVL333:
 3951              	.L273:
 3952              	.LBB2539:
 3953              	.LBB2540:
 3954              	.LBB2541:
 3955              	.LBB2542:
 3956              	.LBB2543:
 3957              	.LBB2544:
 3958              		.loc 2 711 0
 3959 12a4 80A9FFF4 		lwz 5,-12(9)
 3960              	.LBE2544:
 3961              	.LBE2543:
 3962              		.loc 2 318 0
 3963 12a8 7F9D2840 		cmplw 7,29,5
 3964 12ac 419D014C 		bgt- 7,.L300
 3965              	.LVL334:
 3966              	.LBE2542:
 3967              	.LBE2541:
 3968              		.loc 2 1349 0
 3969 12b0 7FA4EB78 		mr 4,29
 3970 12b4 7CBD2850 		subf 5,29,5
 3971 12b8 7FE3FB78 		mr 3,31
 3972 12bc 38C00000 		li 6,0
 3973              	.LEHB36:
 3974 12c0 48000001 		bl _ZNSs9_M_mutateEjjj
 3975              	.LVL335:
 3976              	.LBE2540:
 3977              	.LBE2539:
 3978              		.loc 1 254 0
 3979 12c4 813F0000 		lwz 9,0(31)
 3980 12c8 3BBDFFFF 		addi 29,29,-1
 3981              	.LVL336:
 3982              	.L270:
 3983              	.LBB2548:
 3984              	.LBB2549:
 3985              	.LBB2550:
 3986              	.LBB2551:
 3987              		.loc 2 311 0 discriminator 1
 3988 12cc 8009FFFC 		lwz 0,-4(9)
 3989 12d0 2F800000 		cmpwi 7,0,0
 3990 12d4 419C0010 		blt- 7,.L272
 3991              		.loc 2 312 0
 3992 12d8 7FE3FB78 		mr 3,31
 3993 12dc 48000001 		bl _ZNSs12_M_leak_hardEv
 3994 12e0 813F0000 		lwz 9,0(31)
 3995              	.L272:
 3996              	.LBE2551:
 3997              	.LBE2550:
 3998              	.LBE2549:
 3999              	.LBE2548:
 4000              		.loc 1 251 0 discriminator 1
 4001 12e4 7C09E8AE 		lbzx 0,9,29
 4002 12e8 2F80002F 		cmpwi 7,0,47
 4003 12ec 419EFFB8 		beq+ 7,.L273
 4004              		.loc 1 257 0
 4005 12f0 7FE4FB78 		mr 4,31
 4006 12f4 38610010 		addi 3,1,16
 4007 12f8 48000001 		bl _ZNSsC1ERKSs
 4008              	.LEHE36:
 4009              		.loc 1 258 0
 4010 12fc 38610010 		addi 3,1,16
 4011 1300 3880002F 		li 4,47
 4012 1304 38A0FFFF 		li 5,-1
 4013              	.LEHB37:
 4014 1308 48000001 		bl _ZNKSs5rfindEcj
 4015              	.LVL337:
 4016              		.loc 1 259 0
 4017 130c 2F83FFFF 		cmpwi 7,3,-1
 4018 1310 419E00E0 		beq- 7,.L293
 4019              	.LVL338:
 4020              	.LBB2552:
 4021              	.LBB2553:
 4022              		.loc 2 711 0
 4023 1314 81210010 		lwz 9,16(1)
 4024 1318 80A9FFF4 		lwz 5,-12(9)
 4025              	.LBE2553:
 4026              	.LBE2552:
 4027              		.loc 1 262 0
 4028 131c 3805FFFF 		addi 0,5,-1
 4029 1320 7F830040 		cmplw 7,3,0
 4030 1324 419C0068 		blt- 7,.L301
 4031              	.LVL339:
 4032              	.L275:
 4033              		.loc 1 265 0
 4034 1328 3861000C 		addi 3,1,12
 4035 132c 38810010 		addi 4,1,16
 4036              	.LVL340:
 4037 1330 48000001 		bl _ZNSsC1ERKSs
 4038              	.LEHE37:
 4039              	.LVL341:
 4040              		.loc 1 265 0 is_stmt 0 discriminator 1
 4041 1334 3861000C 		addi 3,1,12
 4042              	.LEHB38:
 4043 1338 4BFFF0B1 		bl _Z15CreateSubfolderSs.constprop.18
 4044              	.LEHE38:
 4045              	.LBB2554:
 4046              	.LBB2555:
 4047              	.LBB2556:
 4048              	.LBB2557:
 4049              	.LBB2558:
 4050              	.LBB2559:
 4051              		.loc 2 288 0 is_stmt 1 discriminator 1
 4052 133c 8121000C 		lwz 9,12(1)
 4053              	.LBE2559:
 4054              	.LBE2558:
 4055              	.LBE2557:
 4056              	.LBE2556:
 4057              	.LBE2555:
 4058              	.LBE2554:
 4059              		.loc 1 265 0 discriminator 1
 4060 1340 7C7D1B78 		mr 29,3
 4061              	.LVL342:
 4062              	.LBB2574:
 4063              	.LBB2572:
 4064              	.LBB2570:
 4065              		.loc 2 534 0 discriminator 1
 4066 1344 3869FFF4 		addi 3,9,-12
 4067              	.LVL343:
 4068              	.LBB2560:
 4069              	.LBB2561:
 4070              		.loc 2 235 0 discriminator 1
 4071 1348 7F83F000 		cmpw 7,3,30
 4072 134c 409E00D8 		bne- 7,.L302
 4073              	.LVL344:
 4074              	.L282:
 4075              	.LBE2561:
 4076              	.LBE2560:
 4077              	.LBE2570:
 4078              	.LBE2572:
 4079              	.LBE2574:
 4080              		.loc 1 266 0 discriminator 2
 4081 1350 2F9D0000 		cmpwi 7,29,0
 4082              		.loc 1 267 0 discriminator 2
 4083 1354 3BA00000 		li 29,0
 4084              	.LVL345:
 4085              		.loc 1 266 0 discriminator 2
 4086 1358 409E0054 		bne- 7,.L303
 4087              	.LVL346:
 4088              	.L274:
 4089              	.LBB2575:
 4090              	.LBB2576:
 4091              	.LBB2577:
 4092              	.LBB2578:
 4093              	.LBB2579:
 4094              	.LBB2580:
 4095              		.loc 2 288 0
 4096 135c 81210010 		lwz 9,16(1)
 4097              	.LBE2580:
 4098              	.LBE2579:
 4099              	.LBE2578:
 4100              		.loc 2 534 0
 4101 1360 3869FFF4 		addi 3,9,-12
 4102              	.LVL347:
 4103              	.LBB2581:
 4104              	.LBB2582:
 4105              		.loc 2 235 0
 4106 1364 7F83F000 		cmpw 7,3,30
 4107 1368 419EFED4 		beq+ 7,.L287
 4108              	.LVL348:
 4109              	.LBB2583:
 4110              	.LBB2584:
 4111              	.LBB2585:
 4112              		.loc 6 66 0
 4113 136c 8169FFFC 		lwz 11,-4(9)
 4114              	.LVL349:
 4115              	.LBE2585:
 4116              	.LBE2584:
 4117              	.LBE2583:
 4118              		.loc 2 240 0
 4119 1370 2F8B0000 		cmpwi 7,11,0
 4120              	.LBB2588:
 4121              	.LBB2587:
 4122              	.LBB2586:
 4123              		.loc 6 67 0
 4124 1374 396BFFFF 		addi 11,11,-1
 4125 1378 9169FFFC 		stw 11,-4(9)
 4126              	.LBE2586:
 4127              	.LBE2587:
 4128              	.LBE2588:
 4129              		.loc 2 240 0
 4130 137c 419DFEC0 		bgt+ 7,.L287
 4131              		.loc 2 244 0
 4132 1380 38810008 		addi 4,1,8
 4133 1384 48000001 		bl _ZNSs4_Rep10_M_destroyERKSaIcE
 4134              	.LVL350:
 4135 1388 4BFFFEB4 		b .L287
 4136              	.LVL351:
 4137              	.L301:
 4138              	.LBE2582:
 4139              	.LBE2581:
 4140              	.LBE2577:
 4141              	.LBE2576:
 4142              	.LBE2575:
 4143              		.loc 1 263 0
 4144 138c 38830001 		addi 4,3,1
 4145              	.LVL352:
 4146              	.LBB2589:
 4147              	.LBB2590:
 4148              	.LBB2591:
 4149              	.LBB2592:
 4150              		.loc 2 318 0
 4151 1390 7F842840 		cmplw 7,4,5
 4152 1394 419D00C4 		bgt- 7,.L304
 4153              	.LVL353:
 4154              	.LBE2592:
 4155              	.LBE2591:
 4156              		.loc 2 1349 0
 4157 1398 38610010 		addi 3,1,16
 4158              	.LVL354:
 4159 139c 7CA42850 		subf 5,4,5
 4160 13a0 38C00000 		li 6,0
 4161              	.LEHB39:
 4162 13a4 48000001 		bl _ZNSs9_M_mutateEjjj
 4163              	.LVL355:
 4164 13a8 4BFFFF80 		b .L275
 4165              	.LVL356:
 4166              	.L303:
 4167              	.LBE2590:
 4168              	.LBE2589:
 4169              		.loc 1 269 0
 4170 13ac 807F0000 		lwz 3,0(31)
 4171 13b0 388001FF 		li 4,511
 4172 13b4 48000001 		bl mkdir
 4173              	.LEHE39:
 4174 13b8 38630001 		addi 3,3,1
 4175 13bc 7C630034 		cntlzw 3,3
 4176 13c0 5463D97E 		srwi 3,3,5
 4177 13c4 687D0001 		xori 29,3,1
 4178 13c8 4BFFFF94 		b .L274
 4179              	.LVL357:
 4180              	.L292:
 4181              	.LBE2602:
 4182              		.loc 1 270 0
 4183 13cc 8001002C 		lwz 0,44(1)
 4184              	.LBB2603:
 4185              		.loc 1 248 0
 4186 13d0 3BA00001 		li 29,1
 4187              	.LBE2603:
 4188              		.loc 1 270 0
 4189 13d4 7FA3EB78 		mr 3,29
 4190 13d8 83C10020 		lwz 30,32(1)
 4191 13dc 7C0803A6 		mtlr 0
 4192 13e0 83A1001C 		lwz 29,28(1)
 4193 13e4 83E10024 		lwz 31,36(1)
 4194              	.LVL358:
 4195 13e8 38210028 		addi 1,1,40
 4196              		.cfi_remember_state
 4197              		.cfi_restore 29
 4198              		.cfi_restore 30
 4199              		.cfi_restore 31
 4200              	.LCFI45:
 4201              		.cfi_def_cfa_offset 0
 4202 13ec 4E800020 		blr
 4203              	.LVL359:
 4204              	.L293:
 4205              	.LCFI46:
 4206              		.cfi_restore_state
 4207              	.LBB2604:
 4208              		.loc 1 260 0
 4209 13f0 3BA00000 		li 29,0
 4210              	.LVL360:
 4211 13f4 4BFFFF68 		b .L274
 4212              	.LVL361:
 4213              	.L300:
 4214              	.LBB2596:
 4215              	.LBB2547:
 4216              	.LBB2546:
 4217              	.LBB2545:
 4218              		.loc 2 319 0
 4219 13f8 3C600000 		lis 3,.LC0@ha
 4220 13fc 38630000 		la 3,.LC0@l(3)
 4221              	.LEHB40:
 4222 1400 48000001 		bl _ZSt20__throw_out_of_rangePKc
 4223              	.LVL362:
 4224              	.L299:
 4225              	.LBE2545:
 4226              	.LBE2546:
 4227              	.LBE2547:
 4228              	.LBE2596:
 4229              	.LBB2597:
 4230              	.LBB2532:
 4231              	.LBB2530:
 4232              	.LBB2528:
 4233              	.LBB2525:
 4234              	.LBB2517:
 4235              	.LBB2518:
 4236              	.LBB2519:
 4237              		.loc 6 66 0
 4238 1404 8169FFFC 		lwz 11,-4(9)
 4239              	.LVL363:
 4240              	.LBE2519:
 4241              	.LBE2518:
 4242              	.LBE2517:
 4243              		.loc 2 240 0
 4244 1408 2F8B0000 		cmpwi 7,11,0
 4245              	.LBB2522:
 4246              	.LBB2521:
 4247              	.LBB2520:
 4248              		.loc 6 67 0
 4249 140c 396BFFFF 		addi 11,11,-1
 4250 1410 9169FFFC 		stw 11,-4(9)
 4251              	.LBE2520:
 4252              	.LBE2521:
 4253              	.LBE2522:
 4254              		.loc 2 240 0
 4255 1414 419DFE78 		bgt+ 7,.L269
 4256              		.loc 2 244 0
 4257 1418 3881000A 		addi 4,1,10
 4258 141c 48000001 		bl _ZNSs4_Rep10_M_destroyERKSaIcE
 4259              	.LVL364:
 4260 1420 4BFFFE6C 		b .L269
 4261              	.LVL365:
 4262              	.L302:
 4263              	.LBE2525:
 4264              	.LBE2528:
 4265              	.LBE2530:
 4266              	.LBE2532:
 4267              	.LBE2597:
 4268              	.LBB2598:
 4269              	.LBB2573:
 4270              	.LBB2571:
 4271              	.LBB2569:
 4272              	.LBB2568:
 4273              	.LBB2562:
 4274              	.LBB2563:
 4275              	.LBB2564:
 4276              		.loc 6 66 0
 4277 1424 8169FFFC 		lwz 11,-4(9)
 4278              	.LVL366:
 4279              	.LBE2564:
 4280              	.LBE2563:
 4281              	.LBE2562:
 4282              		.loc 2 240 0
 4283 1428 2F8B0000 		cmpwi 7,11,0
 4284              	.LBB2567:
 4285              	.LBB2566:
 4286              	.LBB2565:
 4287              		.loc 6 67 0
 4288 142c 396BFFFF 		addi 11,11,-1
 4289 1430 9169FFFC 		stw 11,-4(9)
 4290              	.LBE2565:
 4291              	.LBE2566:
 4292              	.LBE2567:
 4293              		.loc 2 240 0
 4294 1434 419DFF1C 		bgt+ 7,.L282
 4295              		.loc 2 244 0
 4296 1438 38810009 		addi 4,1,9
 4297 143c 48000001 		bl _ZNSs4_Rep10_M_destroyERKSaIcE
 4298              	.LVL367:
 4299 1440 4BFFFF10 		b .L282
 4300              	.LVL368:
 4301              	.L295:
 4302 1444 7C7F1B78 		mr 31,3
 4303              	.LVL369:
 4304              	.LBE2568:
 4305              	.LBE2569:
 4306              	.LBE2571:
 4307              	.LBE2573:
 4308              	.LBE2598:
 4309              		.loc 1 247 0
 4310 1448 38610014 		addi 3,1,20
 4311 144c 48000001 		bl _ZNSsD1Ev
 4312 1450 7FE3FB78 		mr 3,31
 4313 1454 48000001 		bl _Unwind_Resume
 4314              	.LEHE40:
 4315              	.LVL370:
 4316              	.L304:
 4317              	.LBB2599:
 4318              	.LBB2595:
 4319              	.LBB2594:
 4320              	.LBB2593:
 4321              		.loc 2 319 0
 4322 1458 3C600000 		lis 3,.LC0@ha
 4323              	.LVL371:
 4324 145c 38630000 		la 3,.LC0@l(3)
 4325              	.LEHB41:
 4326 1460 48000001 		bl _ZSt20__throw_out_of_rangePKc
 4327              	.LEHE41:
 4328              	.LVL372:
 4329              	.L296:
 4330 1464 7C7F1B78 		mr 31,3
 4331              	.LVL373:
 4332              	.L290:
 4333              	.LBE2593:
 4334              	.LBE2594:
 4335              	.LBE2595:
 4336              	.LBE2599:
 4337              		.loc 1 269 0
 4338 1468 38610010 		addi 3,1,16
 4339 146c 48000001 		bl _ZNSsD1Ev
 4340 1470 7FE3FB78 		mr 3,31
 4341              	.LEHB42:
 4342 1474 48000001 		bl _Unwind_Resume
 4343              	.LEHE42:
 4344              	.LVL374:
 4345              	.L297:
 4346 1478 7C7F1B78 		mr 31,3
 4347              	.LVL375:
 4348              		.loc 1 265 0
 4349 147c 3861000C 		addi 3,1,12
 4350 1480 48000001 		bl _ZNSsD1Ev
 4351 1484 4BFFFFE4 		b .L290
 4352              	.LBE2604:
 4353              		.cfi_endproc
 4354              	.LFE795:
 4355              		.section	.gcc_except_table
 4356              	.LLSDA795:
 4357 00ce FF       		.byte	0xff
 4358 00cf FF       		.byte	0xff
 4359 00d0 01       		.byte	0x1
 4360 00d1 30       		.uleb128 .LLSDACSE795-.LLSDACSB795
 4361              	.LLSDACSB795:
 4362 00d2 58       		.uleb128 .LEHB34-.LFB795
 4363 00d3 04       		.uleb128 .LEHE34-.LEHB34
 4364 00d4 00       		.uleb128 0
 4365 00d5 00       		.uleb128 0
 4366 00d6 60       		.uleb128 .LEHB35-.LFB795
 4367 00d7 04       		.uleb128 .LEHE35-.LEHB35
 4368 00d8 B804     		.uleb128 .L295-.LFB795
 4369 00da 00       		.uleb128 0
 4370 00db B401     		.uleb128 .LEHB36-.LFB795
 4371 00dd 3C       		.uleb128 .LEHE36-.LEHB36
 4372 00de 00       		.uleb128 0
 4373 00df 00       		.uleb128 0
 4374 00e0 FC01     		.uleb128 .LEHB37-.LFB795
 4375 00e2 2C       		.uleb128 .LEHE37-.LEHB37
 4376 00e3 D804     		.uleb128 .L296-.LFB795
 4377 00e5 00       		.uleb128 0
 4378 00e6 AC02     		.uleb128 .LEHB38-.LFB795
 4379 00e8 04       		.uleb128 .LEHE38-.LEHB38
 4380 00e9 EC04     		.uleb128 .L297-.LFB795
 4381 00eb 00       		.uleb128 0
 4382 00ec 9803     		.uleb128 .LEHB39-.LFB795
 4383 00ee 14       		.uleb128 .LEHE39-.LEHB39
 4384 00ef D804     		.uleb128 .L296-.LFB795
 4385 00f1 00       		.uleb128 0
 4386 00f2 F403     		.uleb128 .LEHB40-.LFB795
 4387 00f4 58       		.uleb128 .LEHE40-.LEHB40
 4388 00f5 00       		.uleb128 0
 4389 00f6 00       		.uleb128 0
 4390 00f7 D404     		.uleb128 .LEHB41-.LFB795
 4391 00f9 04       		.uleb128 .LEHE41-.LEHB41
 4392 00fa D804     		.uleb128 .L296-.LFB795
 4393 00fc 00       		.uleb128 0
 4394 00fd E804     		.uleb128 .LEHB42-.LFB795
 4395 00ff 04       		.uleb128 .LEHE42-.LEHB42
 4396 0100 00       		.uleb128 0
 4397 0101 00       		.uleb128 0
 4398              	.LLSDACSE795:
 4399              		.section	".text"
 4400              		.size	_Z15CreateSubfolderSs, .-_Z15CreateSubfolderSs
 4401              		.align 2
 4402              		.globl _Z8CopyFilePKcS0_
 4403              		.type	_Z8CopyFilePKcS0_, @function
 4404              	_Z8CopyFilePKcS0_:
 4405              	.LFB796:
 4406              		.loc 1 278 0
 4407              		.cfi_startproc
 4408              		.cfi_personality 0,__gxx_personality_v0
 4409              		.cfi_lsda 0,.LLSDA796
 4410              	.LVL376:
 4411 1488 9421FF60 		stwu 1,-160(1)
 4412              	.LCFI47:
 4413              		.cfi_def_cfa_offset 160
 4414 148c 7C0802A6 		mflr 0
 4415 1490 7D800026 		mfcr 12
 4416 1494 92810070 		stw 20,112(1)
 4417 1498 7C942378 		mr 20,4
 4418              		.cfi_offset 20, -48
 4419              		.cfi_register 70, 12
 4420              		.cfi_register 65, 0
 4421              	.LBB2733:
 4422              		.loc 1 282 0
 4423 149c 3880002F 		li 4,47
 4424              	.LVL377:
 4425              	.LBE2733:
 4426              		.loc 1 278 0
 4427 14a0 93A10094 		stw 29,148(1)
 4428 14a4 900100A4 		stw 0,164(1)
 4429 14a8 7C7D1B78 		mr 29,3
 4430              		.cfi_offset 65, 4
 4431              		.cfi_offset 29, -12
 4432 14ac 92A10074 		stw 21,116(1)
 4433 14b0 92C10078 		stw 22,120(1)
 4434 14b4 92E1007C 		stw 23,124(1)
 4435 14b8 93010080 		stw 24,128(1)
 4436 14bc 93210084 		stw 25,132(1)
 4437 14c0 93410088 		stw 26,136(1)
 4438 14c4 9361008C 		stw 27,140(1)
 4439 14c8 93810090 		stw 28,144(1)
 4440 14cc 93C10098 		stw 30,152(1)
 4441 14d0 93E1009C 		stw 31,156(1)
 4442 14d4 9181006C 		stw 12,108(1)
 4443              	.LBB2798:
 4444              		.loc 1 282 0
 4445              		.cfi_offset 70, -52
 4446              		.cfi_offset 31, -4
 4447              		.cfi_offset 30, -8
 4448              		.cfi_offset 28, -16
 4449              		.cfi_offset 27, -20
 4450              		.cfi_offset 26, -24
 4451              		.cfi_offset 25, -28
 4452              		.cfi_offset 24, -32
 4453              		.cfi_offset 23, -36
 4454              		.cfi_offset 22, -40
 4455              		.cfi_offset 21, -44
 4456 14d8 48000001 		bl strrchr
 4457              	.LVL378:
 4458              		.loc 1 283 0
 4459 14dc 2F830000 		cmpwi 7,3,0
 4460 14e0 419E026C 		beq- 7,.L351
 4461              	.LVL379:
 4462              		.loc 1 288 0
 4463 14e4 38610018 		addi 3,1,24
 4464 14e8 7FA4EB78 		mr 4,29
 4465 14ec 38A1000D 		addi 5,1,13
 4466              	.LEHB43:
 4467 14f0 48000001 		bl _ZNSsC1EPKcRKSaIcE
 4468              	.LVL380:
 4469              	.LBB2734:
 4470              	.LBB2735:
 4471              	.LBB2736:
 4472              	.LBB2737:
 4473              	.LBB2738:
 4474              	.LBB2739:
 4475              	.LBB2740:
 4476              	.LBB2741:
 4477              		.loc 2 288 0
 4478 14f4 80610018 		lwz 3,24(1)
 4479              	.LBE2741:
 4480              	.LBE2740:
 4481              	.LBE2739:
 4482              	.LBE2738:
 4483              	.LBE2737:
 4484              	.LBE2736:
 4485              		.loc 1 143 0
 4486 14f8 8003FFF4 		lwz 0,-12(3)
 4487 14fc 2F800000 		cmpwi 7,0,0
 4488 1500 409E0154 		bne- 7,.L367
 4489              	.L307:
 4490              	.LBE2735:
 4491              	.LBE2734:
 4492              	.LBE2798:
 4493              		.loc 1 144 0
 4494 1504 3B400000 		li 26,0
 4495 1508 3B600000 		li 27,0
 4496              	.L350:
 4497              	.LVL381:
 4498              	.LBB2799:
 4499              	.LBB2743:
 4500              	.LBB2744:
 4501              	.LBB2745:
 4502              	.LBB2746:
 4503              	.LBB2747:
 4504              		.loc 2 235 0
 4505 150c 3F800000 		lis 28,_ZNSs4_Rep20_S_empty_rep_storageE@ha
 4506              	.LBE2747:
 4507              	.LBE2746:
 4508              		.loc 2 534 0
 4509 1510 3803FFF4 		addi 0,3,-12
 4510              	.LVL382:
 4511              	.LBB2756:
 4512              	.LBB2754:
 4513              		.loc 2 235 0
 4514 1514 3B9C0000 		la 28,_ZNSs4_Rep20_S_empty_rep_storageE@l(28)
 4515 1518 7F80E000 		cmpw 7,0,28
 4516 151c 409E0268 		bne- 7,.L368
 4517              	.LVL383:
 4518              	.L316:
 4519              	.LBE2754:
 4520              	.LBE2756:
 4521              	.LBE2745:
 4522              	.LBE2744:
 4523              	.LBE2743:
 4524              		.loc 1 290 0 discriminator 2
 4525 1520 3C800000 		lis 4,.LC1@ha
 4526 1524 7FA3EB78 		mr 3,29
 4527 1528 38840014 		la 4,.LC1@l(4)
 4528 152c 48000001 		bl fopen
 4529              	.LVL384:
 4530              		.loc 1 292 0 discriminator 2
 4531 1530 7C761B79 		mr. 22,3
 4532 1534 41820220 		beq- 0,.L352
 4533              	.LVL385:
 4534              		.loc 1 297 0
 4535 1538 3C600001 		lis 3,0x1
 4536              	.LVL386:
 4537 153c 60631800 		ori 3,3,6144
 4538 1540 48000001 		bl malloc
 4539              	.LVL387:
 4540              		.loc 1 298 0
 4541 1544 7C7D1B79 		mr. 29,3
 4542              	.LVL388:
 4543 1548 41820214 		beq- 0,.L369
 4544              		.loc 1 305 0
 4545 154c 3C800000 		lis 4,.LC2@ha
 4546 1550 7E83A378 		mr 3,20
 4547              	.LVL389:
 4548 1554 38840018 		la 4,.LC2@l(4)
 4549              		.loc 1 306 0
 4550 1558 3EE00001 		lis 23,0x1
 4551              		.loc 1 305 0
 4552 155c 48000001 		bl fopen
 4553              	.LVL390:
 4554              		.loc 1 306 0
 4555 1560 3B000000 		li 24,0
 4556 1564 7C751B79 		mr. 21,3
 4557 1568 3B200000 		li 25,0
 4558 156c 62F71800 		ori 23,23,6144
 4559 1570 418201FC 		beq- 0,.L370
 4560              	.LVL391:
 4561              	.L364:
 4562              		.loc 1 326 0
 4563 1574 7D79D810 		subfc 11,25,27
 4564 1578 7D58D110 		subfe 10,24,26
 4565 157c 2F8A0000 		cmpwi 7,10,0
 4566 1580 409E0010 		bne- 7,.L319
 4567 1584 7F975840 		cmplw 7,23,11
 4568 1588 409D0008 		ble- 7,.L319
 4569              		.loc 1 327 0
 4570 158c 7EF9D850 		subf 23,25,27
 4571              	.LVL392:
 4572              	.L319:
 4573              		.loc 1 329 0
 4574 1590 7EE5BB78 		mr 5,23
 4575 1594 7FA3EB78 		mr 3,29
 4576 1598 38800001 		li 4,1
 4577 159c 7EC6B378 		mr 6,22
 4578 15a0 48000001 		bl fread
 4579              	.LVL393:
 4580              		.loc 1 330 0
 4581 15a4 2E030000 		cmpwi 4,3,0
 4582 15a8 7C651B78 		mr 5,3
 4583 15ac 419000D0 		blt- 4,.L371
 4584              		.loc 1 339 0
 4585 15b0 7FA3EB78 		mr 3,29
 4586              	.LVL394:
 4587 15b4 38800001 		li 4,1
 4588 15b8 7EA6AB78 		mr 6,21
 4589 15bc 48000001 		bl fwrite
 4590              	.LVL395:
 4591              		.loc 1 340 0
 4592 15c0 2C030000 		cmpwi 0,3,0
 4593 15c4 4180011C 		blt- 0,.L372
 4594              		.loc 1 349 0
 4595 15c8 7C7F1B78 		mr 31,3
 4596 15cc 7C7EFE70 		srawi 30,3,31
 4597 15d0 7F39F814 		addc 25,25,31
 4598 15d4 7F18F114 		adde 24,24,30
 4599              	.LVL396:
 4600              		.loc 1 315 0
 4601 15d8 4092FF9C 		bne+ 4,.L364
 4602              		.loc 1 353 0
 4603 15dc 7FA3EB78 		mr 3,29
 4604              	.LVL397:
 4605 15e0 48000001 		bl free
 4606              		.loc 1 354 0
 4607 15e4 7EC3B378 		mr 3,22
 4608 15e8 48000001 		bl fclose
 4609              		.loc 1 355 0
 4610 15ec 7EA3AB78 		mr 3,21
 4611 15f0 48000001 		bl fclose
 4612              	.LEHE43:
 4613              		.loc 1 357 0
 4614 15f4 7F9AC000 		cmpw 7,26,24
 4615 15f8 409E014C 		bne- 7,.L363
 4616 15fc 7F9BC800 		cmpw 7,27,25
 4617              		.loc 1 360 0
 4618 1600 3BC00001 		li 30,1
 4619              		.loc 1 357 0
 4620 1604 409E0140 		bne- 7,.L363
 4621              	.LVL398:
 4622              	.L346:
 4623              	.LBE2799:
 4624              		.loc 1 361 0
 4625 1608 800100A4 		lwz 0,164(1)
 4626 160c 7FC3F378 		mr 3,30
 4627 1610 8181006C 		lwz 12,108(1)
 4628 1614 7C0803A6 		mtlr 0
 4629 1618 82810070 		lwz 20,112(1)
 4630              	.LVL399:
 4631 161c 82A10074 		lwz 21,116(1)
 4632 1620 7D808120 		mtcrf 8,12
 4633 1624 82C10078 		lwz 22,120(1)
 4634 1628 82E1007C 		lwz 23,124(1)
 4635 162c 83010080 		lwz 24,128(1)
 4636 1630 83210084 		lwz 25,132(1)
 4637 1634 83410088 		lwz 26,136(1)
 4638 1638 8361008C 		lwz 27,140(1)
 4639 163c 83810090 		lwz 28,144(1)
 4640 1640 83A10094 		lwz 29,148(1)
 4641 1644 83C10098 		lwz 30,152(1)
 4642 1648 83E1009C 		lwz 31,156(1)
 4643 164c 382100A0 		addi 1,1,160
 4644              		.cfi_remember_state
 4645              	.LCFI48:
 4646              		.cfi_def_cfa_offset 0
 4647              		.cfi_restore 70
 4648              		.cfi_restore 31
 4649              		.cfi_restore 30
 4650              		.cfi_restore 29
 4651              		.cfi_restore 28
 4652              		.cfi_restore 27
 4653              		.cfi_restore 26
 4654              		.cfi_restore 25
 4655              		.cfi_restore 24
 4656              		.cfi_restore 23
 4657              		.cfi_restore 22
 4658              		.cfi_restore 21
 4659              		.cfi_restore 20
 4660 1650 4E800020 		blr
 4661              	.LVL400:
 4662              	.L367:
 4663              	.LCFI49:
 4664              		.cfi_restore_state
 4665              	.LBB2800:
 4666              	.LBB2760:
 4667              	.LBB2742:
 4668              		.loc 1 143 0
 4669 1654 38810020 		addi 4,1,32
 4670              	.LEHB44:
 4671 1658 48000001 		bl stat
 4672              	.LEHE44:
 4673 165c 2F830000 		cmpwi 7,3,0
 4674 1660 419E000C 		beq- 7,.L308
 4675 1664 80610018 		lwz 3,24(1)
 4676 1668 4BFFFE9C 		b .L307
 4677              	.L308:
 4678              		.loc 1 146 0
 4679 166c 83410038 		lwz 26,56(1)
 4680 1670 8361003C 		lwz 27,60(1)
 4681 1674 80610018 		lwz 3,24(1)
 4682 1678 4BFFFE94 		b .L350
 4683              	.LVL401:
 4684              	.L371:
 4685              	.LBE2742:
 4686              	.LBE2760:
 4687              		.loc 1 332 0
 4688 167c 7EC3B378 		mr 3,22
 4689              	.LVL402:
 4690              	.LEHB45:
 4691 1680 48000001 		bl fclose
 4692              	.LVL403:
 4693              		.loc 1 333 0
 4694 1684 7EA3AB78 		mr 3,21
 4695 1688 48000001 		bl fclose
 4696              		.loc 1 334 0
 4697 168c 7FA3EB78 		mr 3,29
 4698 1690 48000001 		bl free
 4699              		.loc 1 335 0
 4700 1694 38610014 		addi 3,1,20
 4701 1698 7E84A378 		mr 4,20
 4702 169c 38A1000C 		addi 5,1,12
 4703 16a0 48000001 		bl _ZNSsC1EPKcRKSaIcE
 4704              	.LEHE45:
 4705              	.LVL404:
 4706              	.LBB2761:
 4707              	.LBB2762:
 4708              		.loc 1 546 0
 4709 16a4 80610014 		lwz 3,20(1)
 4710              	.LEHB46:
 4711 16a8 48000001 		bl remove
 4712              	.LEHE46:
 4713              	.LVL405:
 4714              	.LBE2762:
 4715              	.LBE2761:
 4716              	.LBB2763:
 4717              	.LBB2764:
 4718              	.LBB2765:
 4719              	.LBB2766:
 4720              	.LBB2767:
 4721              	.LBB2768:
 4722              		.loc 2 288 0
 4723 16ac 81210014 		lwz 9,20(1)
 4724              	.LBE2768:
 4725              	.LBE2767:
 4726              	.LBE2766:
 4727              	.LBB2769:
 4728              	.LBB2770:
 4729              		.loc 1 336 0
 4730 16b0 3BC0FFFD 		li 30,-3
 4731              	.LBE2770:
 4732              	.LBE2769:
 4733              		.loc 2 534 0
 4734 16b4 3869FFF4 		addi 3,9,-12
 4735              	.LVL406:
 4736              	.LBB2778:
 4737              	.LBB2777:
 4738              		.loc 2 235 0
 4739 16b8 7F83E000 		cmpw 7,3,28
 4740 16bc 419EFF4C 		beq+ 7,.L346
 4741              	.LVL407:
 4742              	.LBB2771:
 4743              	.LBB2772:
 4744              	.LBB2773:
 4745              		.loc 6 66 0
 4746 16c0 8169FFFC 		lwz 11,-4(9)
 4747              	.LVL408:
 4748              	.LBE2773:
 4749              	.LBE2772:
 4750              	.LBE2771:
 4751              		.loc 2 240 0
 4752 16c4 2F8B0000 		cmpwi 7,11,0
 4753              	.LBB2776:
 4754              	.LBB2775:
 4755              	.LBB2774:
 4756              		.loc 6 67 0
 4757 16c8 396BFFFF 		addi 11,11,-1
 4758 16cc 9169FFFC 		stw 11,-4(9)
 4759              	.LBE2774:
 4760              	.LBE2775:
 4761              	.LBE2776:
 4762              		.loc 2 240 0
 4763 16d0 419DFF38 		bgt+ 7,.L346
 4764              		.loc 2 244 0
 4765 16d4 38810009 		addi 4,1,9
 4766 16d8 48000001 		bl _ZNSs4_Rep10_M_destroyERKSaIcE
 4767              	.LVL409:
 4768 16dc 4BFFFF2C 		b .L346
 4769              	.LVL410:
 4770              	.L372:
 4771              	.LBE2777:
 4772              	.LBE2778:
 4773              	.LBE2765:
 4774              	.LBE2764:
 4775              	.LBE2763:
 4776              		.loc 1 342 0
 4777 16e0 7EC3B378 		mr 3,22
 4778              	.LVL411:
 4779              	.LEHB47:
 4780 16e4 48000001 		bl fclose
 4781              		.loc 1 343 0
 4782 16e8 7EA3AB78 		mr 3,21
 4783 16ec 48000001 		bl fclose
 4784              		.loc 1 344 0
 4785 16f0 7FA3EB78 		mr 3,29
 4786 16f4 48000001 		bl free
 4787              		.loc 1 345 0
 4788 16f8 38610010 		addi 3,1,16
 4789 16fc 7E84A378 		mr 4,20
 4790 1700 38A1000B 		addi 5,1,11
 4791 1704 48000001 		bl _ZNSsC1EPKcRKSaIcE
 4792              	.LEHE47:
 4793              	.LVL412:
 4794              	.LBB2779:
 4795              	.LBB2780:
 4796              		.loc 1 546 0
 4797 1708 80610010 		lwz 3,16(1)
 4798              	.LEHB48:
 4799 170c 48000001 		bl remove
 4800              	.LEHE48:
 4801              	.LVL413:
 4802              	.LBE2780:
 4803              	.LBE2779:
 4804              	.LBB2781:
 4805              	.LBB2782:
 4806              	.LBB2783:
 4807              	.LBB2784:
 4808              	.LBB2785:
 4809              	.LBB2786:
 4810              		.loc 2 288 0
 4811 1710 81210010 		lwz 9,16(1)
 4812              	.LBE2786:
 4813              	.LBE2785:
 4814              	.LBE2784:
 4815              	.LBB2787:
 4816              	.LBB2788:
 4817              		.loc 1 346 0
 4818 1714 3BC0FFFC 		li 30,-4
 4819              	.LBE2788:
 4820              	.LBE2787:
 4821              		.loc 2 534 0
 4822 1718 3869FFF4 		addi 3,9,-12
 4823              	.LVL414:
 4824              	.LBB2796:
 4825              	.LBB2795:
 4826              		.loc 2 235 0
 4827 171c 7F83E000 		cmpw 7,3,28
 4828 1720 419EFEE8 		beq+ 7,.L346
 4829              	.LVL415:
 4830              	.LBB2789:
 4831              	.LBB2790:
 4832              	.LBB2791:
 4833              		.loc 6 66 0
 4834 1724 8169FFFC 		lwz 11,-4(9)
 4835              	.LVL416:
 4836              	.LBE2791:
 4837              	.LBE2790:
 4838              	.LBE2789:
 4839              		.loc 2 240 0
 4840 1728 2F8B0000 		cmpwi 7,11,0
 4841              	.LBB2794:
 4842              	.LBB2793:
 4843              	.LBB2792:
 4844              		.loc 6 67 0
 4845 172c 396BFFFF 		addi 11,11,-1
 4846 1730 9169FFFC 		stw 11,-4(9)
 4847              	.LBE2792:
 4848              	.LBE2793:
 4849              	.LBE2794:
 4850              		.loc 2 240 0
 4851 1734 419DFED4 		bgt+ 7,.L346
 4852              		.loc 2 244 0
 4853 1738 38810008 		addi 4,1,8
 4854 173c 48000001 		bl _ZNSs4_Rep10_M_destroyERKSaIcE
 4855              	.LVL417:
 4856 1740 4BFFFEC8 		b .L346
 4857              	.LVL418:
 4858              	.L363:
 4859              	.LBE2795:
 4860              	.LBE2796:
 4861              	.LBE2783:
 4862              	.LBE2782:
 4863              	.LBE2781:
 4864              		.loc 1 358 0
 4865 1744 3BC0FFFB 		li 30,-5
 4866 1748 4BFFFEC0 		b .L346
 4867              	.LVL419:
 4868              	.L351:
 4869              		.loc 1 286 0
 4870 174c 3BC0FFFF 		li 30,-1
 4871 1750 4BFFFEB8 		b .L346
 4872              	.LVL420:
 4873              	.L352:
 4874              		.loc 1 293 0
 4875 1754 3BC0FFFE 		li 30,-2
 4876 1758 4BFFFEB0 		b .L346
 4877              	.LVL421:
 4878              	.L369:
 4879              		.loc 1 301 0
 4880 175c 7EC3B378 		mr 3,22
 4881              	.LVL422:
 4882              		.loc 1 302 0
 4883 1760 3BC0FFFF 		li 30,-1
 4884              	.LEHB49:
 4885              		.loc 1 301 0
 4886 1764 48000001 		bl fclose
 4887              		.loc 1 302 0
 4888 1768 4BFFFEA0 		b .L346
 4889              	.LVL423:
 4890              	.L370:
 4891              		.loc 1 308 0
 4892 176c 7FA3EB78 		mr 3,29
 4893              	.LVL424:
 4894              		.loc 1 310 0
 4895 1770 3BC0FFFE 		li 30,-2
 4896              		.loc 1 308 0
 4897 1774 48000001 		bl free
 4898              		.loc 1 309 0
 4899 1778 7EC3B378 		mr 3,22
 4900 177c 48000001 		bl fclose
 4901              		.loc 1 310 0
 4902 1780 4BFFFE88 		b .L346
 4903              	.LVL425:
 4904              	.L368:
 4905              	.LBB2797:
 4906              	.LBB2759:
 4907              	.LBB2758:
 4908              	.LBB2757:
 4909              	.LBB2755:
 4910              	.LBB2748:
 4911              	.LBB2749:
 4912              	.LBB2750:
 4913              		.loc 6 66 0
 4914 1784 8123FFFC 		lwz 9,-4(3)
 4915              	.LVL426:
 4916              	.LBE2750:
 4917              	.LBE2749:
 4918              	.LBE2748:
 4919              		.loc 2 240 0
 4920 1788 2F890000 		cmpwi 7,9,0
 4921              	.LBB2753:
 4922              	.LBB2752:
 4923              	.LBB2751:
 4924              		.loc 6 67 0
 4925 178c 3929FFFF 		addi 9,9,-1
 4926 1790 9123FFFC 		stw 9,-4(3)
 4927              	.LBE2751:
 4928              	.LBE2752:
 4929              	.LBE2753:
 4930              		.loc 2 240 0
 4931 1794 419DFD8C 		bgt+ 7,.L316
 4932              		.loc 2 244 0
 4933 1798 7C030378 		mr 3,0
 4934              	.LVL427:
 4935 179c 3881000A 		addi 4,1,10
 4936 17a0 48000001 		bl _ZNSs4_Rep10_M_destroyERKSaIcE
 4937              	.LVL428:
 4938 17a4 4BFFFD7C 		b .L316
 4939              	.LVL429:
 4940              	.L361:
 4941 17a8 7C7E1B78 		mr 30,3
 4942              	.LBE2755:
 4943              	.LBE2757:
 4944              	.LBE2758:
 4945              	.LBE2759:
 4946              	.LBE2797:
 4947              		.loc 1 345 0
 4948 17ac 38610010 		addi 3,1,16
 4949              	.LVL430:
 4950 17b0 48000001 		bl _ZNSsD1Ev
 4951              	.LVL431:
 4952 17b4 7FC3F378 		mr 3,30
 4953 17b8 48000001 		bl _Unwind_Resume
 4954              	.LVL432:
 4955              	.L360:
 4956 17bc 7C7E1B78 		mr 30,3
 4957              		.loc 1 335 0
 4958 17c0 38610014 		addi 3,1,20
 4959              	.LVL433:
 4960 17c4 48000001 		bl _ZNSsD1Ev
 4961              	.LVL434:
 4962 17c8 7FC3F378 		mr 3,30
 4963 17cc 48000001 		bl _Unwind_Resume
 4964              	.LVL435:
 4965              	.L359:
 4966 17d0 7C7E1B78 		mr 30,3
 4967              		.loc 1 288 0
 4968 17d4 38610018 		addi 3,1,24
 4969              	.LVL436:
 4970 17d8 48000001 		bl _ZNSsD1Ev
 4971              	.LVL437:
 4972 17dc 7FC3F378 		mr 3,30
 4973 17e0 48000001 		bl _Unwind_Resume
 4974              	.LEHE49:
 4975              	.LBE2800:
 4976              		.cfi_endproc
 4977              	.LFE796:
 4978              		.section	.gcc_except_table
 4979              	.LLSDA796:
 4980 0102 FF       		.byte	0xff
 4981 0103 FF       		.byte	0xff
 4982 0104 01       		.byte	0x1
 4983 0105 27       		.uleb128 .LLSDACSE796-.LLSDACSB796
 4984              	.LLSDACSB796:
 4985 0106 68       		.uleb128 .LEHB43-.LFB796
 4986 0107 8402     		.uleb128 .LEHE43-.LEHB43
 4987 0109 00       		.uleb128 0
 4988 010a 00       		.uleb128 0
 4989 010b D003     		.uleb128 .LEHB44-.LFB796
 4990 010d 04       		.uleb128 .LEHE44-.LEHB44
 4991 010e C806     		.uleb128 .L359-.LFB796
 4992 0110 00       		.uleb128 0
 4993 0111 F803     		.uleb128 .LEHB45-.LFB796
 4994 0113 24       		.uleb128 .LEHE45-.LEHB45
 4995 0114 00       		.uleb128 0
 4996 0115 00       		.uleb128 0
 4997 0116 A004     		.uleb128 .LEHB46-.LFB796
 4998 0118 04       		.uleb128 .LEHE46-.LEHB46
 4999 0119 B406     		.uleb128 .L360-.LFB796
 5000 011b 00       		.uleb128 0
 5001 011c DC04     		.uleb128 .LEHB47-.LFB796
 5002 011e 24       		.uleb128 .LEHE47-.LEHB47
 5003 011f 00       		.uleb128 0
 5004 0120 00       		.uleb128 0
 5005 0121 8405     		.uleb128 .LEHB48-.LFB796
 5006 0123 04       		.uleb128 .LEHE48-.LEHB48
 5007 0124 A006     		.uleb128 .L361-.LFB796
 5008 0126 00       		.uleb128 0
 5009 0127 DC05     		.uleb128 .LEHB49-.LFB796
 5010 0129 8001     		.uleb128 .LEHE49-.LEHB49
 5011 012b 00       		.uleb128 0
 5012 012c 00       		.uleb128 0
 5013              	.LLSDACSE796:
 5014              		.section	".text"
 5015              		.size	_Z8CopyFilePKcS0_, .-_Z8CopyFilePKcS0_
 5016              		.align 2
 5017              		.globl _Z13CopyDirectoryPKcS0_
 5018              		.type	_Z13CopyDirectoryPKcS0_, @function
 5019              	_Z13CopyDirectoryPKcS0_:
 5020              	.LFB797:
 5021              		.loc 1 369 0
 5022              		.cfi_startproc
 5023              		.cfi_personality 0,__gxx_personality_v0
 5024              		.cfi_lsda 0,.LLSDA797
 5025              	.LVL438:
 5026 17e4 9421FFB8 		stwu 1,-72(1)
 5027              	.LCFI50:
 5028              		.cfi_def_cfa_offset 72
 5029 17e8 7C0802A6 		mflr 0
 5030 17ec 93C10040 		stw 30,64(1)
 5031              	.LBB3175:
 5032              		.loc 1 370 0
 5033 17f0 7C7E1B79 		mr. 30,3
 5034              		.cfi_offset 30, -8
 5035              		.cfi_register 65, 0
 5036              	.LBE3175:
 5037              		.loc 1 369 0
 5038 17f4 93E10044 		stw 31,68(1)
 5039 17f8 7C9F2378 		mr 31,4
 5040              		.cfi_offset 31, -4
 5041 17fc 9001004C 		stw 0,76(1)
 5042 1800 93810038 		stw 28,56(1)
 5043 1804 93A1003C 		stw 29,60(1)
 5044              	.LBB3390:
 5045              		.loc 1 370 0
 5046 1808 41820350 		beq- 0,.L438
 5047              		.cfi_offset 29, -12
 5048              		.cfi_offset 28, -16
 5049              		.cfi_offset 65, 4
 5050              		.loc 1 370 0 is_stmt 0 discriminator 1
 5051 180c 2F840000 		cmpwi 7,4,0
 5052 1810 419E0348 		beq- 7,.L438
 5053              		.loc 1 373 0 is_stmt 1
 5054 1814 38610028 		addi 3,1,40
 5055              	.LVL439:
 5056 1818 7FC4F378 		mr 4,30
 5057              	.LVL440:
 5058 181c 38A10012 		addi 5,1,18
 5059              	.LEHB50:
 5060 1820 48000001 		bl _ZNSsC1EPKcRKSaIcE
 5061              	.LEHE50:
 5062 1824 3860000C 		li 3,12
 5063              	.LEHB51:
 5064 1828 48000001 		bl _Znwj
 5065              	.LEHE51:
 5066 182c 38810028 		addi 4,1,40
 5067 1830 38A00000 		li 5,0
 5068 1834 38C00003 		li 6,3
 5069 1838 7C7D1B78 		mr 29,3
 5070              	.LEHB52:
 5071 183c 48000001 		bl _ZN7DirListC1ESsPKcj
 5072              	.LEHE52:
 5073              	.LVL441:
 5074              	.LBB3176:
 5075              	.LBB3177:
 5076              	.LBB3178:
 5077              	.LBB3179:
 5078              	.LBB3180:
 5079              	.LBB3181:
 5080              		.loc 2 288 0
 5081 1840 81210028 		lwz 9,40(1)
 5082              	.LBE3181:
 5083              	.LBE3180:
 5084              	.LBE3179:
 5085              	.LBB3182:
 5086              	.LBB3183:
 5087              		.loc 2 235 0
 5088 1844 3F800000 		lis 28,_ZNSs4_Rep20_S_empty_rep_storageE@ha
 5089 1848 3B9C0000 		la 28,_ZNSs4_Rep20_S_empty_rep_storageE@l(28)
 5090              	.LBE3183:
 5091              	.LBE3182:
 5092              		.loc 2 534 0
 5093 184c 3869FFF4 		addi 3,9,-12
 5094              	.LVL442:
 5095              	.LBB3192:
 5096              	.LBB3190:
 5097              		.loc 2 235 0
 5098 1850 7F83E000 		cmpw 7,3,28
 5099 1854 409E0374 		bne- 7,.L455
 5100              	.LVL443:
 5101              	.L382:
 5102              	.LBE3190:
 5103              	.LBE3192:
 5104              	.LBE3178:
 5105              	.LBE3177:
 5106              	.LBE3176:
 5107              		.loc 1 375 0 discriminator 3
 5108 1858 38610024 		addi 3,1,36
 5109 185c 7FC4F378 		mr 4,30
 5110 1860 38A10011 		addi 5,1,17
 5111              	.LEHB53:
 5112 1864 48000001 		bl _ZNSsC1EPKcRKSaIcE
 5113              	.LEHE53:
 5114              		.loc 1 376 0 discriminator 3
 5115 1868 38610020 		addi 3,1,32
 5116 186c 7FE4FB78 		mr 4,31
 5117 1870 38A10010 		addi 5,1,16
 5118              	.LEHB54:
 5119 1874 48000001 		bl _ZNSsC1EPKcRKSaIcE
 5120              	.LEHE54:
 5121 1878 48000024 		b .L452
 5122              	.LVL444:
 5123              	.L388:
 5124              	.LBB3196:
 5125              	.LBB3197:
 5126              		.loc 2 711 0
 5127 187c 8129FFF4 		lwz 9,-12(9)
 5128              	.LBE3197:
 5129              	.LBE3196:
 5130              		.loc 1 379 0
 5131 1880 3889FFFF 		addi 4,9,-1
 5132              	.LVL445:
 5133              	.LBB3198:
 5134              	.LBB3199:
 5135              	.LBB3200:
 5136              	.LBB3201:
 5137              		.loc 2 318 0
 5138 1884 7F844840 		cmplw 7,4,9
 5139 1888 419D0300 		bgt- 7,.L456
 5140              	.LVL446:
 5141              	.LBE3201:
 5142              	.LBE3200:
 5143              		.loc 2 1349 0
 5144 188c 38610024 		addi 3,1,36
 5145              	.LVL447:
 5146 1890 38A00001 		li 5,1
 5147 1894 38C00000 		li 6,0
 5148              	.LEHB55:
 5149 1898 48000001 		bl _ZNSs9_M_mutateEjjj
 5150              	.LVL448:
 5151              	.L452:
 5152              	.LBE3199:
 5153              	.LBE3198:
 5154              	.LBB3205:
 5155              	.LBB3206:
 5156              	.LBB3207:
 5157              	.LBB3208:
 5158              	.LBB3209:
 5159              		.loc 2 288 0 discriminator 1
 5160 189c 81210024 		lwz 9,36(1)
 5161              	.LBE3209:
 5162              	.LBE3208:
 5163              	.LBE3207:
 5164              	.LBE3206:
 5165              	.LBE3205:
 5166              	.LBB3211:
 5167              	.LBB3212:
 5168              	.LBB3213:
 5169              	.LBB3214:
 5170              		.loc 2 311 0 discriminator 1
 5171 18a0 8009FFFC 		lwz 0,-4(9)
 5172              	.LBE3214:
 5173              	.LBE3213:
 5174              	.LBE3212:
 5175              	.LBE3211:
 5176              	.LBB3218:
 5177              	.LBB3210:
 5178              		.loc 2 711 0 discriminator 1
 5179 18a4 83E9FFF4 		lwz 31,-12(9)
 5180              	.LVL449:
 5181              	.LBE3210:
 5182              	.LBE3218:
 5183              	.LBB3219:
 5184              	.LBB3217:
 5185              	.LBB3216:
 5186              	.LBB3215:
 5187              		.loc 2 311 0 discriminator 1
 5188 18a8 2F800000 		cmpwi 7,0,0
 5189 18ac 419C0010 		blt- 7,.L387
 5190              		.loc 2 312 0
 5191 18b0 38610024 		addi 3,1,36
 5192              	.LVL450:
 5193 18b4 48000001 		bl _ZNSs12_M_leak_hardEv
 5194              	.LVL451:
 5195 18b8 81210024 		lwz 9,36(1)
 5196              	.L387:
 5197              	.LVL452:
 5198              	.LBE3215:
 5199              	.LBE3216:
 5200              	.LBE3217:
 5201              	.LBE3219:
 5202              		.loc 1 378 0
 5203 18bc 7FE9FA14 		add 31,9,31
 5204              	.LVL453:
 5205 18c0 881FFFFF 		lbz 0,-1(31)
 5206 18c4 2F80002F 		cmpwi 7,0,47
 5207 18c8 419EFFB4 		beq+ 7,.L388
 5208 18cc 48000024 		b .L453
 5209              	.LVL454:
 5210              	.L392:
 5211              	.LBB3220:
 5212              	.LBB3221:
 5213              		.loc 2 711 0
 5214 18d0 8129FFF4 		lwz 9,-12(9)
 5215              	.LBE3221:
 5216              	.LBE3220:
 5217              		.loc 1 381 0
 5218 18d4 3889FFFF 		addi 4,9,-1
 5219              	.LVL455:
 5220              	.LBB3222:
 5221              	.LBB3223:
 5222              	.LBB3224:
 5223              	.LBB3225:
 5224              		.loc 2 318 0
 5225 18d8 7F844840 		cmplw 7,4,9
 5226 18dc 419D0284 		bgt- 7,.L457
 5227              	.LVL456:
 5228              	.LBE3225:
 5229              	.LBE3224:
 5230              		.loc 2 1349 0
 5231 18e0 38610020 		addi 3,1,32
 5232              	.LVL457:
 5233 18e4 38A00001 		li 5,1
 5234 18e8 38C00000 		li 6,0
 5235 18ec 48000001 		bl _ZNSs9_M_mutateEjjj
 5236              	.LVL458:
 5237              	.L453:
 5238              	.LBE3223:
 5239              	.LBE3222:
 5240              	.LBB3229:
 5241              	.LBB3230:
 5242              	.LBB3231:
 5243              	.LBB3232:
 5244              	.LBB3233:
 5245              		.loc 2 288 0 discriminator 1
 5246 18f0 81210020 		lwz 9,32(1)
 5247              	.LBE3233:
 5248              	.LBE3232:
 5249              	.LBE3231:
 5250              	.LBE3230:
 5251              	.LBE3229:
 5252              	.LBB3235:
 5253              	.LBB3236:
 5254              	.LBB3237:
 5255              	.LBB3238:
 5256              		.loc 2 311 0 discriminator 1
 5257 18f4 8009FFFC 		lwz 0,-4(9)
 5258              	.LBE3238:
 5259              	.LBE3237:
 5260              	.LBE3236:
 5261              	.LBE3235:
 5262              	.LBB3242:
 5263              	.LBB3234:
 5264              		.loc 2 711 0 discriminator 1
 5265 18f8 83E9FFF4 		lwz 31,-12(9)
 5266              	.LVL459:
 5267              	.LBE3234:
 5268              	.LBE3242:
 5269              	.LBB3243:
 5270              	.LBB3241:
 5271              	.LBB3240:
 5272              	.LBB3239:
 5273              		.loc 2 311 0 discriminator 1
 5274 18fc 2F800000 		cmpwi 7,0,0
 5275 1900 419C0010 		blt- 7,.L391
 5276              		.loc 2 312 0
 5277 1904 38610020 		addi 3,1,32
 5278              	.LVL460:
 5279 1908 48000001 		bl _ZNSs12_M_leak_hardEv
 5280              	.LVL461:
 5281 190c 81210020 		lwz 9,32(1)
 5282              	.L391:
 5283              	.LVL462:
 5284              	.LBE3239:
 5285              	.LBE3240:
 5286              	.LBE3241:
 5287              	.LBE3243:
 5288              		.loc 1 380 0
 5289 1910 7FE9FA14 		add 31,9,31
 5290              	.LVL463:
 5291 1914 881FFFFF 		lbz 0,-1(31)
 5292 1918 2F80002F 		cmpwi 7,0,47
 5293 191c 419EFFB4 		beq+ 7,.L392
 5294              		.loc 1 383 0
 5295 1920 3861001C 		addi 3,1,28
 5296 1924 38810024 		addi 4,1,36
 5297              	.LVL464:
 5298 1928 48000001 		bl _ZNSsC1ERKSs
 5299              	.LEHE55:
 5300              	.LVL465:
 5301              		.loc 1 384 0
 5302 192c 3861001C 		addi 3,1,28
 5303 1930 3880002F 		li 4,47
 5304 1934 38A0FFFF 		li 5,-1
 5305              	.LEHB56:
 5306 1938 48000001 		bl _ZNKSs5rfindEcj
 5307              	.LVL466:
 5308              	.LBB3244:
 5309              	.LBB3245:
 5310              		.loc 2 711 0
 5311 193c 8121001C 		lwz 9,28(1)
 5312 1940 8129FFF4 		lwz 9,-12(9)
 5313              	.LBE3245:
 5314              	.LBE3244:
 5315              		.loc 1 385 0
 5316 1944 3809FFFF 		addi 0,9,-1
 5317 1948 7F830040 		cmplw 7,3,0
 5318 194c 419C01E8 		blt- 7,.L458
 5319              	.LVL467:
 5320              	.L393:
 5321              	.LBB3246:
 5322              	.LBB3247:
 5323              	.LBB3248:
 5324              		.loc 2 1000 0
 5325 1950 3C800000 		lis 4,.LC3@ha
 5326 1954 38610020 		addi 3,1,32
 5327              	.LVL468:
 5328 1958 3884001C 		la 4,.LC3@l(4)
 5329 195c 38A00001 		li 5,1
 5330 1960 48000001 		bl _ZNSs6appendEPKcj
 5331              	.LVL469:
 5332              	.LBE3248:
 5333              	.LBE3247:
 5334              	.LBE3246:
 5335              	.LBB3249:
 5336              	.LBB3250:
 5337              		.loc 2 925 0
 5338 1964 38610020 		addi 3,1,32
 5339              	.LVL470:
 5340 1968 3881001C 		addi 4,1,28
 5341              	.LVL471:
 5342 196c 48000001 		bl _ZNSs6appendERKSs
 5343              	.LEHE56:
 5344              	.LVL472:
 5345              	.LBE3250:
 5346              	.LBE3249:
 5347              		.loc 1 391 0
 5348 1970 80810020 		lwz 4,32(1)
 5349 1974 38610018 		addi 3,1,24
 5350 1978 38A1000F 		addi 5,1,15
 5351              	.LEHB57:
 5352 197c 48000001 		bl _ZNSsC1EPKcRKSaIcE
 5353              	.LEHE57:
 5354              		.loc 1 391 0 is_stmt 0 discriminator 2
 5355 1980 38610018 		addi 3,1,24
 5356              	.LEHB58:
 5357 1984 4BFFEA65 		bl _Z15CreateSubfolderSs.constprop.18
 5358              	.LEHE58:
 5359              	.LVL473:
 5360              	.LBB3251:
 5361              	.LBB3252:
 5362              	.LBB3253:
 5363              	.LBB3254:
 5364              	.LBB3255:
 5365              		.loc 2 288 0 is_stmt 1
 5366 1988 81210018 		lwz 9,24(1)
 5367              	.LBE3255:
 5368              	.LBE3254:
 5369              	.LBE3253:
 5370              		.loc 2 534 0
 5371 198c 3869FFF4 		addi 3,9,-12
 5372              	.LVL474:
 5373              	.LBB3256:
 5374              	.LBB3257:
 5375              		.loc 2 235 0
 5376 1990 7F83E000 		cmpw 7,3,28
 5377 1994 409E026C 		bne- 7,.L459
 5378              	.LVL475:
 5379              	.L395:
 5380              	.LBE3257:
 5381              	.LBE3256:
 5382              	.LBE3252:
 5383              	.LBE3251:
 5384              	.LBB3267:
 5385              	.LBB3268:
 5386              		.loc 1 654 0 discriminator 1
 5387 1998 813D0000 		lwz 9,0(29)
 5388              	.LBB3269:
 5389              	.LBB3270:
 5390              		.loc 4 571 0 discriminator 1
 5391 199c 3C00AAAA 		lis 0,0xaaaa
 5392 19a0 817D0004 		lwz 11,4(29)
 5393 19a4 6000AAAB 		ori 0,0,43691
 5394 19a8 7D695850 		subf 11,9,11
 5395 19ac 7D6B1E70 		srawi 11,11,3
 5396              	.LBE3270:
 5397              	.LBE3269:
 5398              	.LBE3268:
 5399              		.loc 1 393 0 discriminator 1
 5400 19b0 7C0B01D7 		mullw. 0,11,0
 5401 19b4 4081005C 		ble- 0,.L396
 5402              		.loc 1 393 0 is_stmt 0
 5403 19b8 3BC00000 		li 30,0
 5404              	.LVL476:
 5405 19bc 3BE00000 		li 31,0
 5406 19c0 7F9E0000 		cmpw 7,30,0
 5407              	.LVL477:
 5408              	.L409:
 5409              	.LBB3275:
 5410              	.LBB3276:
 5411              	.LBB3277:
 5412              	.LBB3278:
 5413              	.LBB3279:
 5414              		.loc 5 90 0 is_stmt 1
 5415 19c4 409C00B4 		bge- 7,.L439
 5416              	.LVL478:
 5417              	.LBE3279:
 5418              	.LBE3278:
 5419              	.LBB3281:
 5420              	.LBB3282:
 5421              		.loc 4 696 0
 5422 19c8 7D69F214 		add 11,9,30
 5423              	.LBE3282:
 5424              	.LBE3281:
 5425              	.LBE3277:
 5426              	.LBE3276:
 5427              		.loc 1 401 0
 5428 19cc 880B0010 		lbz 0,16(11)
 5429 19d0 2F800000 		cmpwi 7,0,0
 5430 19d4 419E0158 		beq- 7,.L398
 5431              	.LVL479:
 5432              		.loc 1 402 0
 5433 19d8 7C69F02E 		lwzx 3,9,30
 5434 19dc 80810020 		lwz 4,32(1)
 5435              	.LEHB59:
 5436 19e0 48000001 		bl _Z13CopyDirectoryPKcS0_
 5437              	.LVL480:
 5438              	.L408:
 5439              	.LBE3275:
 5440              	.LBB3319:
 5441              		.loc 1 654 0
 5442 19e4 813D0000 		lwz 9,0(29)
 5443              	.LBB3273:
 5444              	.LBB3271:
 5445              		.loc 4 571 0
 5446 19e8 3C00AAAA 		lis 0,0xaaaa
 5447 19ec 817D0004 		lwz 11,4(29)
 5448 19f0 6000AAAB 		ori 0,0,43691
 5449              	.LBE3271:
 5450              	.LBE3273:
 5451              	.LBE3319:
 5452              		.loc 1 393 0
 5453 19f4 3BFF0001 		addi 31,31,1
 5454              	.LVL481:
 5455              	.LBB3320:
 5456              	.LBB3274:
 5457              	.LBB3272:
 5458              		.loc 4 571 0
 5459 19f8 3BDE0018 		addi 30,30,24
 5460 19fc 7D695850 		subf 11,9,11
 5461 1a00 7D6B1E70 		srawi 11,11,3
 5462 1a04 7C0B01D6 		mullw 0,11,0
 5463              	.LBE3272:
 5464              	.LBE3274:
 5465              	.LBE3320:
 5466              		.loc 1 393 0
 5467 1a08 7F9F0000 		cmpw 7,31,0
 5468 1a0c 419CFFB8 		blt+ 7,.L409
 5469              	.LVL482:
 5470              	.L396:
 5471              	.LBE3267:
 5472              		.loc 1 412 0 discriminator 1
 5473 1a10 7FA3EB78 		mr 3,29
 5474 1a14 48000001 		bl _ZN7DirListD1Ev
 5475 1a18 7FA3EB78 		mr 3,29
 5476 1a1c 48000001 		bl _ZdlPv
 5477              	.LVL483:
 5478              	.LBB3323:
 5479              	.LBB3324:
 5480              	.LBB3325:
 5481              	.LBB3326:
 5482              	.LBB3327:
 5483              	.LBB3328:
 5484              		.loc 2 288 0 discriminator 1
 5485 1a20 8121001C 		lwz 9,28(1)
 5486              	.LBE3328:
 5487              	.LBE3327:
 5488              	.LBE3326:
 5489              		.loc 2 534 0 discriminator 1
 5490 1a24 3869FFF4 		addi 3,9,-12
 5491              	.LVL484:
 5492              	.LBB3329:
 5493              	.LBB3330:
 5494              		.loc 2 235 0 discriminator 1
 5495 1a28 7F83E000 		cmpw 7,3,28
 5496 1a2c 409E020C 		bne- 7,.L460
 5497              	.LVL485:
 5498              	.L415:
 5499              	.LBE3330:
 5500              	.LBE3329:
 5501              	.LBE3325:
 5502              	.LBE3324:
 5503              	.LBE3323:
 5504              	.LBB3341:
 5505              	.LBB3342:
 5506              	.LBB3343:
 5507              	.LBB3344:
 5508              	.LBB3345:
 5509              	.LBB3346:
 5510              		.loc 2 288 0
 5511 1a30 81210020 		lwz 9,32(1)
 5512              	.LBE3346:
 5513              	.LBE3345:
 5514              	.LBE3344:
 5515              		.loc 2 534 0
 5516 1a34 3869FFF4 		addi 3,9,-12
 5517              	.LVL486:
 5518              	.LBB3347:
 5519              	.LBB3348:
 5520              		.loc 2 235 0
 5521 1a38 7F83E000 		cmpw 7,3,28
 5522 1a3c 409E021C 		bne- 7,.L461
 5523              	.LVL487:
 5524              	.L421:
 5525              	.LBE3348:
 5526              	.LBE3347:
 5527              	.LBE3343:
 5528              	.LBE3342:
 5529              	.LBE3341:
 5530              	.LBB3359:
 5531              	.LBB3360:
 5532              	.LBB3361:
 5533              	.LBB3362:
 5534              	.LBB3363:
 5535              	.LBB3364:
 5536              		.loc 2 288 0
 5537 1a40 81210024 		lwz 9,36(1)
 5538              	.LBE3364:
 5539              	.LBE3363:
 5540              	.LBE3362:
 5541              	.LBB3365:
 5542              	.LBB3366:
 5543              		.loc 2 235 0
 5544 1a44 3BE00001 		li 31,1
 5545              	.LBE3366:
 5546              	.LBE3365:
 5547              		.loc 2 534 0
 5548 1a48 3869FFF4 		addi 3,9,-12
 5549              	.LVL488:
 5550              	.LBB3375:
 5551              	.LBB3373:
 5552              		.loc 2 235 0
 5553 1a4c 7F83E000 		cmpw 7,3,28
 5554 1a50 409E0228 		bne- 7,.L462
 5555              	.LVL489:
 5556              	.L426:
 5557              	.LBE3373:
 5558              	.LBE3375:
 5559              	.LBE3361:
 5560              	.LBE3360:
 5561              	.LBE3359:
 5562              	.LBE3390:
 5563              		.loc 1 415 0
 5564 1a54 8001004C 		lwz 0,76(1)
 5565 1a58 7FE3FB78 		mr 3,31
 5566 1a5c 83810038 		lwz 28,56(1)
 5567 1a60 7C0803A6 		mtlr 0
 5568 1a64 83A1003C 		lwz 29,60(1)
 5569 1a68 83C10040 		lwz 30,64(1)
 5570 1a6c 83E10044 		lwz 31,68(1)
 5571 1a70 38210048 		addi 1,1,72
 5572              		.cfi_remember_state
 5573              	.LCFI51:
 5574              		.cfi_def_cfa_offset 0
 5575              		.cfi_restore 31
 5576              		.cfi_restore 30
 5577              		.cfi_restore 29
 5578              		.cfi_restore 28
 5579 1a74 4E800020 		blr
 5580              	.LVL490:
 5581              	.L439:
 5582              	.LCFI52:
 5583              		.cfi_restore_state
 5584              	.LBB3391:
 5585              	.LBB3379:
 5586              	.LBB3321:
 5587              	.LBB3285:
 5588              	.LBB3284:
 5589              	.LBB3283:
 5590              	.LBB3280:
 5591              		.loc 5 60 0
 5592 1a78 38800000 		li 4,0
 5593              	.L397:
 5594              	.LBE3280:
 5595              	.LBE3283:
 5596              	.LBE3284:
 5597              	.LBE3285:
 5598              	.LBB3286:
 5599              		.loc 1 405 0
 5600 1a7c 38610014 		addi 3,1,20
 5601 1a80 38A1000E 		addi 5,1,14
 5602 1a84 48000001 		bl _ZNSsC1EPKcRKSaIcE
 5603              	.LEHE59:
 5604              	.LVL491:
 5605              	.LBB3287:
 5606              	.LBB3288:
 5607              		.loc 2 711 0
 5608 1a88 81210024 		lwz 9,36(1)
 5609 1a8c 8009FFF4 		lwz 0,-12(9)
 5610              	.LVL492:
 5611              	.LBE3288:
 5612              	.LBE3287:
 5613              	.LBB3289:
 5614              	.LBB3290:
 5615              		.loc 2 1349 0
 5616 1a90 81210014 		lwz 9,20(1)
 5617 1a94 80A9FFF4 		lwz 5,-12(9)
 5618 1a98 7F850040 		cmplw 7,5,0
 5619 1a9c 409D0008 		ble- 7,.L402
 5620 1aa0 7C050378 		mr 5,0
 5621              	.L402:
 5622 1aa4 38610014 		addi 3,1,20
 5623              	.LVL493:
 5624 1aa8 38800000 		li 4,0
 5625 1aac 38C00000 		li 6,0
 5626              	.LEHB60:
 5627 1ab0 48000001 		bl _ZNSs9_M_mutateEjjj
 5628              	.LVL494:
 5629              	.LBE3290:
 5630              	.LBE3289:
 5631              	.LBB3291:
 5632              	.LBB3292:
 5633              	.LBB3293:
 5634              		.loc 2 1246 0
 5635 1ab4 80A10020 		lwz 5,32(1)
 5636 1ab8 38610014 		addi 3,1,20
 5637              	.LVL495:
 5638 1abc 38800000 		li 4,0
 5639 1ac0 80C5FFF4 		lwz 6,-12(5)
 5640 1ac4 48000001 		bl _ZNSs6insertEjPKcj
 5641              	.LVL496:
 5642              	.LBE3293:
 5643              	.LBE3292:
 5644              	.LBE3291:
 5645              	.LBB3294:
 5646              	.LBB3295:
 5647              	.LBB3296:
 5648              		.loc 1 654 0
 5649 1ac8 813D0000 		lwz 9,0(29)
 5650              	.LBB3297:
 5651              	.LBB3298:
 5652              	.LBB3299:
 5653              		.loc 4 571 0
 5654 1acc 3C00AAAA 		lis 0,0xaaaa
 5655 1ad0 817D0004 		lwz 11,4(29)
 5656 1ad4 6000AAAB 		ori 0,0,43691
 5657              	.LBE3299:
 5658              	.LBE3298:
 5659              		.loc 5 60 0
 5660 1ad8 38600000 		li 3,0
 5661              	.LBB3301:
 5662              	.LBB3300:
 5663              		.loc 4 571 0
 5664 1adc 7D695850 		subf 11,9,11
 5665 1ae0 7D6B1E70 		srawi 11,11,3
 5666 1ae4 7C0B01D6 		mullw 0,11,0
 5667              	.LBE3300:
 5668              	.LBE3301:
 5669              		.loc 5 90 0
 5670 1ae8 7F9F0000 		cmpw 7,31,0
 5671 1aec 409C0008 		bge- 7,.L403
 5672              	.LVL497:
 5673              	.LBE3297:
 5674              	.LBE3296:
 5675              		.loc 5 60 0
 5676 1af0 7C69F02E 		lwzx 3,9,30
 5677              	.LVL498:
 5678              	.L403:
 5679              	.LBE3295:
 5680              	.LBE3294:
 5681              		.loc 1 409 0
 5682 1af4 80810014 		lwz 4,20(1)
 5683 1af8 48000001 		bl _Z8CopyFilePKcS0_
 5684              	.LEHE60:
 5685              	.LVL499:
 5686              	.LBB3302:
 5687              	.LBB3303:
 5688              	.LBB3304:
 5689              	.LBB3305:
 5690              	.LBB3306:
 5691              	.LBB3307:
 5692              		.loc 2 288 0
 5693 1afc 81210014 		lwz 9,20(1)
 5694              	.LBE3307:
 5695              	.LBE3306:
 5696              	.LBE3305:
 5697              		.loc 2 534 0
 5698 1b00 3869FFF4 		addi 3,9,-12
 5699              	.LVL500:
 5700              	.LBB3308:
 5701              	.LBB3309:
 5702              		.loc 2 235 0
 5703 1b04 7F83E000 		cmpw 7,3,28
 5704 1b08 419EFEDC 		beq+ 7,.L408
 5705              	.LVL501:
 5706              	.LBB3310:
 5707              	.LBB3311:
 5708              	.LBB3312:
 5709              		.loc 6 66 0
 5710 1b0c 8169FFFC 		lwz 11,-4(9)
 5711              	.LVL502:
 5712              	.LBE3312:
 5713              	.LBE3311:
 5714              	.LBE3310:
 5715              		.loc 2 240 0
 5716 1b10 2F8B0000 		cmpwi 7,11,0
 5717              	.LBB3315:
 5718              	.LBB3314:
 5719              	.LBB3313:
 5720              		.loc 6 67 0
 5721 1b14 396BFFFF 		addi 11,11,-1
 5722 1b18 9169FFFC 		stw 11,-4(9)
 5723              	.LBE3313:
 5724              	.LBE3314:
 5725              	.LBE3315:
 5726              		.loc 2 240 0
 5727 1b1c 419DFEC8 		bgt+ 7,.L408
 5728              		.loc 2 244 0
 5729 1b20 3881000B 		addi 4,1,11
 5730 1b24 48000001 		bl _ZNSs4_Rep10_M_destroyERKSaIcE
 5731              	.LVL503:
 5732 1b28 4BFFFEBC 		b .L408
 5733              	.LVL504:
 5734              	.L398:
 5735              	.LBE3309:
 5736              	.LBE3308:
 5737              	.LBE3304:
 5738              	.LBE3303:
 5739              	.LBE3302:
 5740              	.LBB3316:
 5741              	.LBB3317:
 5742              		.loc 5 60 0
 5743 1b2c 7C89F02E 		lwzx 4,9,30
 5744 1b30 4BFFFF4C 		b .L397
 5745              	.LVL505:
 5746              	.L458:
 5747              	.LBE3317:
 5748              	.LBE3316:
 5749              	.LBE3286:
 5750              	.LBE3321:
 5751              	.LBE3379:
 5752              		.loc 1 386 0
 5753 1b34 38A30001 		addi 5,3,1
 5754              	.LVL506:
 5755              	.LBB3380:
 5756              	.LBB3381:
 5757              		.loc 2 1349 0
 5758 1b38 7F854840 		cmplw 7,5,9
 5759 1b3c 409D0008 		ble- 7,.L394
 5760 1b40 7D254B78 		mr 5,9
 5761              	.LVL507:
 5762              	.L394:
 5763 1b44 3861001C 		addi 3,1,28
 5764              	.LVL508:
 5765 1b48 38800000 		li 4,0
 5766 1b4c 38C00000 		li 6,0
 5767              	.LEHB61:
 5768 1b50 48000001 		bl _ZNSs9_M_mutateEjjj
 5769              	.LEHE61:
 5770              	.LVL509:
 5771 1b54 4BFFFDFC 		b .L393
 5772              	.LVL510:
 5773              	.L438:
 5774              	.LBE3381:
 5775              	.LBE3380:
 5776              		.loc 1 371 0
 5777 1b58 3BE0FFFF 		li 31,-1
 5778 1b5c 4BFFFEF8 		b .L426
 5779              	.LVL511:
 5780              	.L457:
 5781              	.LBB3382:
 5782              	.LBB3228:
 5783              	.LBB3227:
 5784              	.LBB3226:
 5785              		.loc 2 319 0
 5786 1b60 3C600000 		lis 3,.LC0@ha
 5787 1b64 38630000 		la 3,.LC0@l(3)
 5788              	.LEHB62:
 5789 1b68 48000001 		bl _ZSt20__throw_out_of_rangePKc
 5790              	.LEHE62:
 5791              	.LVL512:
 5792              	.L446:
 5793 1b6c 7C7F1B78 		mr 31,3
 5794              	.LVL513:
 5795              	.L435:
 5796              	.LBE3226:
 5797              	.LBE3227:
 5798              	.LBE3228:
 5799              	.LBE3382:
 5800              		.loc 1 414 0
 5801 1b70 38610020 		addi 3,1,32
 5802 1b74 48000001 		bl _ZNSsD1Ev
 5803              	.LVL514:
 5804              	.L436:
 5805 1b78 38610024 		addi 3,1,36
 5806 1b7c 48000001 		bl _ZNSsD1Ev
 5807 1b80 7FE3FB78 		mr 3,31
 5808              	.LEHB63:
 5809 1b84 48000001 		bl _Unwind_Resume
 5810              	.LEHE63:
 5811              	.LVL515:
 5812              	.L456:
 5813              	.LBB3383:
 5814              	.LBB3204:
 5815              	.LBB3203:
 5816              	.LBB3202:
 5817              		.loc 2 319 0
 5818 1b88 3C600000 		lis 3,.LC0@ha
 5819 1b8c 38630000 		la 3,.LC0@l(3)
 5820              	.LEHB64:
 5821 1b90 48000001 		bl _ZSt20__throw_out_of_rangePKc
 5822              	.LEHE64:
 5823              	.LVL516:
 5824              	.L450:
 5825 1b94 7C7F1B78 		mr 31,3
 5826              	.LVL517:
 5827              	.LBE3202:
 5828              	.LBE3203:
 5829              	.LBE3204:
 5830              	.LBE3383:
 5831              	.LBB3384:
 5832              	.LBB3322:
 5833              	.LBB3318:
 5834              		.loc 1 409 0
 5835 1b98 38610014 		addi 3,1,20
 5836              	.LVL518:
 5837 1b9c 48000001 		bl _ZNSsD1Ev
 5838              	.LVL519:
 5839              	.L433:
 5840              	.LBE3318:
 5841              	.LBE3322:
 5842              	.LBE3384:
 5843              		.loc 1 414 0
 5844 1ba0 3861001C 		addi 3,1,28
 5845 1ba4 48000001 		bl _ZNSsD1Ev
 5846 1ba8 4BFFFFC8 		b .L435
 5847              	.LVL520:
 5848              	.L443:
 5849 1bac 7C7F1B78 		mr 31,3
 5850              	.LVL521:
 5851              	.L428:
 5852              		.loc 1 373 0
 5853 1bb0 38610028 		addi 3,1,40
 5854 1bb4 48000001 		bl _ZNSsD1Ev
 5855 1bb8 7FE3FB78 		mr 3,31
 5856              	.LEHB65:
 5857 1bbc 48000001 		bl _Unwind_Resume
 5858              	.LEHE65:
 5859              	.LVL522:
 5860              	.L445:
 5861 1bc0 7C7F1B78 		mr 31,3
 5862              	.LVL523:
 5863 1bc4 4BFFFFB4 		b .L436
 5864              	.LVL524:
 5865              	.L455:
 5866              	.LBB3385:
 5867              	.LBB3195:
 5868              	.LBB3194:
 5869              	.LBB3193:
 5870              	.LBB3191:
 5871              	.LBB3184:
 5872              	.LBB3185:
 5873              	.LBB3186:
 5874              		.loc 6 66 0
 5875 1bc8 8169FFFC 		lwz 11,-4(9)
 5876              	.LVL525:
 5877              	.LBE3186:
 5878              	.LBE3185:
 5879              	.LBE3184:
 5880              		.loc 2 240 0
 5881 1bcc 2F8B0000 		cmpwi 7,11,0
 5882              	.LBB3189:
 5883              	.LBB3188:
 5884              	.LBB3187:
 5885              		.loc 6 67 0
 5886 1bd0 396BFFFF 		addi 11,11,-1
 5887 1bd4 9169FFFC 		stw 11,-4(9)
 5888              	.LBE3187:
 5889              	.LBE3188:
 5890              	.LBE3189:
 5891              		.loc 2 240 0
 5892 1bd8 419DFC80 		bgt+ 7,.L382
 5893              		.loc 2 244 0
 5894 1bdc 3881000D 		addi 4,1,13
 5895 1be0 48000001 		bl _ZNSs4_Rep10_M_destroyERKSaIcE
 5896              	.LVL526:
 5897 1be4 4BFFFC74 		b .L382
 5898              	.LVL527:
 5899              	.L444:
 5900 1be8 7C7F1B78 		mr 31,3
 5901              	.LVL528:
 5902              	.LBE3191:
 5903              	.LBE3193:
 5904              	.LBE3194:
 5905              	.LBE3195:
 5906              	.LBE3385:
 5907              		.loc 1 373 0
 5908 1bec 7FA3EB78 		mr 3,29
 5909 1bf0 48000001 		bl _ZdlPv
 5910 1bf4 4BFFFFBC 		b .L428
 5911              	.LVL529:
 5912              	.L447:
 5913              	.L454:
 5914 1bf8 7C7F1B78 		mr 31,3
 5915 1bfc 4BFFFFA4 		b .L433
 5916              	.LVL530:
 5917              	.L459:
 5918              	.LBB3386:
 5919              	.LBB3266:
 5920              	.LBB3265:
 5921              	.LBB3264:
 5922              	.LBB3258:
 5923              	.LBB3259:
 5924              	.LBB3260:
 5925              		.loc 6 66 0
 5926 1c00 8169FFFC 		lwz 11,-4(9)
 5927              	.LVL531:
 5928              	.LBE3260:
 5929              	.LBE3259:
 5930              	.LBE3258:
 5931              		.loc 2 240 0
 5932 1c04 2F8B0000 		cmpwi 7,11,0
 5933              	.LBB3263:
 5934              	.LBB3262:
 5935              	.LBB3261:
 5936              		.loc 6 67 0
 5937 1c08 396BFFFF 		addi 11,11,-1
 5938 1c0c 9169FFFC 		stw 11,-4(9)
 5939              	.LBE3261:
 5940              	.LBE3262:
 5941              	.LBE3263:
 5942              		.loc 2 240 0
 5943 1c10 419DFD88 		bgt+ 7,.L395
 5944              		.loc 2 244 0
 5945 1c14 3881000C 		addi 4,1,12
 5946 1c18 48000001 		bl _ZNSs4_Rep10_M_destroyERKSaIcE
 5947              	.LVL532:
 5948 1c1c 4BFFFD7C 		b .L395
 5949              	.LVL533:
 5950              	.L449:
 5951 1c20 7C7F1B78 		mr 31,3
 5952              	.LBE3264:
 5953              	.LBE3265:
 5954              	.LBE3266:
 5955              	.LBE3386:
 5956              		.loc 1 391 0
 5957 1c24 38610018 		addi 3,1,24
 5958 1c28 48000001 		bl _ZNSsD1Ev
 5959 1c2c 7FE3FB78 		mr 3,31
 5960 1c30 4BFFFFC8 		b .L454
 5961              	.L448:
 5962 1c34 4BFFFFC4 		b .L454
 5963              	.LVL534:
 5964              	.L460:
 5965              	.LBB3387:
 5966              	.LBB3340:
 5967              	.LBB3339:
 5968              	.LBB3338:
 5969              	.LBB3337:
 5970              	.LBB3331:
 5971              	.LBB3332:
 5972              	.LBB3333:
 5973              		.loc 6 66 0
 5974 1c38 8169FFFC 		lwz 11,-4(9)
 5975              	.LVL535:
 5976              	.LBE3333:
 5977              	.LBE3332:
 5978              	.LBE3331:
 5979              		.loc 2 240 0
 5980 1c3c 2F8B0000 		cmpwi 7,11,0
 5981              	.LBB3336:
 5982              	.LBB3335:
 5983              	.LBB3334:
 5984              		.loc 6 67 0
 5985 1c40 396BFFFF 		addi 11,11,-1
 5986 1c44 9169FFFC 		stw 11,-4(9)
 5987              	.LBE3334:
 5988              	.LBE3335:
 5989              	.LBE3336:
 5990              		.loc 2 240 0
 5991 1c48 419DFDE8 		bgt+ 7,.L415
 5992              		.loc 2 244 0
 5993 1c4c 3881000A 		addi 4,1,10
 5994 1c50 48000001 		bl _ZNSs4_Rep10_M_destroyERKSaIcE
 5995              	.LVL536:
 5996 1c54 4BFFFDDC 		b .L415
 5997              	.LVL537:
 5998              	.L461:
 5999              	.LBE3337:
 6000              	.LBE3338:
 6001              	.LBE3339:
 6002              	.LBE3340:
 6003              	.LBE3387:
 6004              	.LBB3388:
 6005              	.LBB3358:
 6006              	.LBB3357:
 6007              	.LBB3356:
 6008              	.LBB3355:
 6009              	.LBB3349:
 6010              	.LBB3350:
 6011              	.LBB3351:
 6012              		.loc 6 66 0
 6013 1c58 8169FFFC 		lwz 11,-4(9)
 6014              	.LVL538:
 6015              	.LBE3351:
 6016              	.LBE3350:
 6017              	.LBE3349:
 6018              		.loc 2 240 0
 6019 1c5c 2F8B0000 		cmpwi 7,11,0
 6020              	.LBB3354:
 6021              	.LBB3353:
 6022              	.LBB3352:
 6023              		.loc 6 67 0
 6024 1c60 396BFFFF 		addi 11,11,-1
 6025 1c64 9169FFFC 		stw 11,-4(9)
 6026              	.LBE3352:
 6027              	.LBE3353:
 6028              	.LBE3354:
 6029              		.loc 2 240 0
 6030 1c68 419DFDD8 		bgt+ 7,.L421
 6031              		.loc 2 244 0
 6032 1c6c 38810009 		addi 4,1,9
 6033 1c70 48000001 		bl _ZNSs4_Rep10_M_destroyERKSaIcE
 6034              	.LVL539:
 6035 1c74 4BFFFDCC 		b .L421
 6036              	.LVL540:
 6037              	.L462:
 6038              	.LBE3355:
 6039              	.LBE3356:
 6040              	.LBE3357:
 6041              	.LBE3358:
 6042              	.LBE3388:
 6043              	.LBB3389:
 6044              	.LBB3378:
 6045              	.LBB3377:
 6046              	.LBB3376:
 6047              	.LBB3374:
 6048              	.LBB3367:
 6049              	.LBB3368:
 6050              	.LBB3369:
 6051              		.loc 6 66 0
 6052 1c78 8169FFFC 		lwz 11,-4(9)
 6053              	.LVL541:
 6054              	.LBE3369:
 6055              	.LBE3368:
 6056              	.LBE3367:
 6057              		.loc 2 240 0
 6058 1c7c 2F8B0000 		cmpwi 7,11,0
 6059              	.LBB3372:
 6060              	.LBB3371:
 6061              	.LBB3370:
 6062              		.loc 6 67 0
 6063 1c80 396BFFFF 		addi 11,11,-1
 6064 1c84 9169FFFC 		stw 11,-4(9)
 6065              	.LBE3370:
 6066              	.LBE3371:
 6067              	.LBE3372:
 6068              		.loc 2 240 0
 6069 1c88 419DFDCC 		bgt+ 7,.L426
 6070              		.loc 2 244 0
 6071 1c8c 38810008 		addi 4,1,8
 6072 1c90 48000001 		bl _ZNSs4_Rep10_M_destroyERKSaIcE
 6073              	.LVL542:
 6074 1c94 4BFFFDC0 		b .L426
 6075              	.LBE3374:
 6076              	.LBE3376:
 6077              	.LBE3377:
 6078              	.LBE3378:
 6079              	.LBE3389:
 6080              	.LBE3391:
 6081              		.cfi_endproc
 6082              	.LFE797:
 6083              		.section	.gcc_except_table
 6084              	.LLSDA797:
 6085 012d FF       		.byte	0xff
 6086 012e FF       		.byte	0xff
 6087 012f 01       		.byte	0x1
 6088 0130 5B       		.uleb128 .LLSDACSE797-.LLSDACSB797
 6089              	.LLSDACSB797:
 6090 0131 3C       		.uleb128 .LEHB50-.LFB797
 6091 0132 04       		.uleb128 .LEHE50-.LEHB50
 6092 0133 00       		.uleb128 0
 6093 0134 00       		.uleb128 0
 6094 0135 44       		.uleb128 .LEHB51-.LFB797
 6095 0136 04       		.uleb128 .LEHE51-.LEHB51
 6096 0137 C807     		.uleb128 .L443-.LFB797
 6097 0139 00       		.uleb128 0
 6098 013a 58       		.uleb128 .LEHB52-.LFB797
 6099 013b 04       		.uleb128 .LEHE52-.LEHB52
 6100 013c 8408     		.uleb128 .L444-.LFB797
 6101 013e 00       		.uleb128 0
 6102 013f 8001     		.uleb128 .LEHB53-.LFB797
 6103 0141 04       		.uleb128 .LEHE53-.LEHB53
 6104 0142 00       		.uleb128 0
 6105 0143 00       		.uleb128 0
 6106 0144 9001     		.uleb128 .LEHB54-.LFB797
 6107 0146 04       		.uleb128 .LEHE54-.LEHB54
 6108 0147 DC07     		.uleb128 .L445-.LFB797
 6109 0149 00       		.uleb128 0
 6110 014a B401     		.uleb128 .LEHB55-.LFB797
 6111 014c 9401     		.uleb128 .LEHE55-.LEHB55
 6112 014e 8807     		.uleb128 .L446-.LFB797
 6113 0150 00       		.uleb128 0
 6114 0151 D402     		.uleb128 .LEHB56-.LFB797
 6115 0153 38       		.uleb128 .LEHE56-.LEHB56
 6116 0154 9408     		.uleb128 .L447-.LFB797
 6117 0156 00       		.uleb128 0
 6118 0157 9803     		.uleb128 .LEHB57-.LFB797
 6119 0159 04       		.uleb128 .LEHE57-.LEHB57
 6120 015a D008     		.uleb128 .L448-.LFB797
 6121 015c 00       		.uleb128 0
 6122 015d A003     		.uleb128 .LEHB58-.LFB797
 6123 015f 04       		.uleb128 .LEHE58-.LEHB58
 6124 0160 BC08     		.uleb128 .L449-.LFB797
 6125 0162 00       		.uleb128 0
 6126 0163 FC03     		.uleb128 .LEHB59-.LFB797
 6127 0165 A801     		.uleb128 .LEHE59-.LEHB59
 6128 0167 9408     		.uleb128 .L447-.LFB797
 6129 0169 00       		.uleb128 0
 6130 016a CC05     		.uleb128 .LEHB60-.LFB797
 6131 016c 4C       		.uleb128 .LEHE60-.LEHB60
 6132 016d B007     		.uleb128 .L450-.LFB797
 6133 016f 00       		.uleb128 0
 6134 0170 EC06     		.uleb128 .LEHB61-.LFB797
 6135 0172 04       		.uleb128 .LEHE61-.LEHB61
 6136 0173 9408     		.uleb128 .L447-.LFB797
 6137 0175 00       		.uleb128 0
 6138 0176 8407     		.uleb128 .LEHB62-.LFB797
 6139 0178 04       		.uleb128 .LEHE62-.LEHB62
 6140 0179 8807     		.uleb128 .L446-.LFB797
 6141 017b 00       		.uleb128 0
 6142 017c A007     		.uleb128 .LEHB63-.LFB797
 6143 017e 04       		.uleb128 .LEHE63-.LEHB63
 6144 017f 00       		.uleb128 0
 6145 0180 00       		.uleb128 0
 6146 0181 AC07     		.uleb128 .LEHB64-.LFB797
 6147 0183 04       		.uleb128 .LEHE64-.LEHB64
 6148 0184 8807     		.uleb128 .L446-.LFB797
 6149 0186 00       		.uleb128 0
 6150 0187 D807     		.uleb128 .LEHB65-.LFB797
 6151 0189 04       		.uleb128 .LEHE65-.LEHB65
 6152 018a 00       		.uleb128 0
 6153 018b 00       		.uleb128 0
 6154              	.LLSDACSE797:
 6155              		.section	".text"
 6156              		.size	_Z13CopyDirectoryPKcS0_, .-_Z13CopyDirectoryPKcS0_
 6157              		.align 2
 6158              		.globl _Z15RemoveDirectorySs
 6159              		.type	_Z15RemoveDirectorySs, @function
 6160              	_Z15RemoveDirectorySs:
 6161              	.LFB800:
 6162              		.loc 1 509 0
 6163              		.cfi_startproc
 6164              		.cfi_personality 0,__gxx_personality_v0
 6165              		.cfi_lsda 0,.LLSDA800
 6166              	.LVL543:
 6167 1c98 7C0802A6 		mflr 0
 6168 1c9c 9421FFC0 		stwu 1,-64(1)
 6169              	.LCFI53:
 6170              		.cfi_def_cfa_offset 64
 6171              		.cfi_register 65, 0
 6172 1ca0 93810030 		stw 28,48(1)
 6173 1ca4 7C7C1B78 		mr 28,3
 6174              		.cfi_offset 28, -16
 6175              	.LVL544:
 6176 1ca8 90010044 		stw 0,68(1)
 6177 1cac 9361002C 		stw 27,44(1)
 6178              	.LBB3549:
 6179              	.LBB3550:
 6180              	.LBB3551:
 6181              	.LBB3552:
 6182              		.loc 2 711 0
 6183 1cb0 81230000 		lwz 9,0(3)
 6184              	.LBE3552:
 6185              	.LBE3551:
 6186              	.LBE3550:
 6187              	.LBE3549:
 6188              		.loc 1 509 0
 6189 1cb4 93A10034 		stw 29,52(1)
 6190              	.LBB3654:
 6191              		.loc 1 510 0
 6192 1cb8 8009FFF4 		lwz 0,-12(9)
 6193              		.cfi_offset 29, -12
 6194              		.cfi_offset 27, -20
 6195              		.cfi_offset 65, 4
 6196              	.LBE3654:
 6197              		.loc 1 509 0
 6198 1cbc 93C10038 		stw 30,56(1)
 6199              	.LBB3655:
 6200              		.loc 1 510 0
 6201 1cc0 2F800000 		cmpwi 7,0,0
 6202              	.LBE3655:
 6203              		.loc 1 509 0
 6204 1cc4 93E1003C 		stw 31,60(1)
 6205              	.LBB3656:
 6206              		.loc 1 510 0
 6207 1cc8 419E01C4 		beq- 7,.L494
 6208              		.cfi_offset 31, -4
 6209              		.cfi_offset 30, -8
 6210              		.loc 1 513 0
 6211 1ccc 38610018 		addi 3,1,24
 6212              	.LVL545:
 6213 1cd0 7F84E378 		mr 4,28
 6214              	.LEHB66:
 6215 1cd4 48000001 		bl _ZNSsC1ERKSs
 6216              	.LEHE66:
 6217 1cd8 3860000C 		li 3,12
 6218              	.LEHB67:
 6219 1cdc 48000001 		bl _Znwj
 6220              	.LEHE67:
 6221 1ce0 38810018 		addi 4,1,24
 6222 1ce4 38A00000 		li 5,0
 6223 1ce8 38C00003 		li 6,3
 6224 1cec 7C7D1B78 		mr 29,3
 6225              	.LEHB68:
 6226 1cf0 48000001 		bl _ZN7DirListC1ESsPKcj
 6227              	.LEHE68:
 6228              	.LVL546:
 6229              	.LBB3553:
 6230              	.LBB3554:
 6231              	.LBB3555:
 6232              	.LBB3556:
 6233              	.LBB3557:
 6234              		.loc 2 288 0
 6235 1cf4 81210018 		lwz 9,24(1)
 6236              	.LBE3557:
 6237              	.LBE3556:
 6238              	.LBE3555:
 6239              	.LBB3558:
 6240              	.LBB3559:
 6241              		.loc 2 235 0
 6242 1cf8 3F600000 		lis 27,_ZNSs4_Rep20_S_empty_rep_storageE@ha
 6243 1cfc 3B7B0000 		la 27,_ZNSs4_Rep20_S_empty_rep_storageE@l(27)
 6244              	.LBE3559:
 6245              	.LBE3558:
 6246              		.loc 2 534 0
 6247 1d00 3869FFF4 		addi 3,9,-12
 6248              	.LVL547:
 6249              	.LBB3568:
 6250              	.LBB3566:
 6251              		.loc 2 235 0
 6252 1d04 7F83D800 		cmpw 7,3,27
 6253 1d08 41BE0028 		beq+ 7,.L502
 6254 1d0c 480001B4 		b .L507
 6255              	.LVL548:
 6256              	.L469:
 6257              	.LBE3566:
 6258              	.LBE3568:
 6259              	.LBE3554:
 6260              	.LBE3553:
 6261              	.LBB3571:
 6262              	.LBB3572:
 6263              		.loc 2 711 0
 6264 1d10 8129FFF4 		lwz 9,-12(9)
 6265              	.LBE3572:
 6266              	.LBE3571:
 6267              		.loc 1 516 0
 6268 1d14 3889FFFF 		addi 4,9,-1
 6269              	.LVL549:
 6270              	.LBB3573:
 6271              	.LBB3574:
 6272              	.LBB3575:
 6273              	.LBB3576:
 6274              		.loc 2 318 0
 6275 1d18 7F844840 		cmplw 7,4,9
 6276 1d1c 419D0198 		bgt- 7,.L504
 6277              	.LVL550:
 6278              	.LBE3576:
 6279              	.LBE3575:
 6280              		.loc 2 1349 0
 6281 1d20 7F83E378 		mr 3,28
 6282 1d24 38A00001 		li 5,1
 6283 1d28 38C00000 		li 6,0
 6284              	.LEHB69:
 6285 1d2c 48000001 		bl _ZNSs9_M_mutateEjjj
 6286              	.LVL551:
 6287              	.L502:
 6288              	.LBE3574:
 6289              	.LBE3573:
 6290              	.LBB3580:
 6291              	.LBB3581:
 6292              	.LBB3582:
 6293              	.LBB3583:
 6294              	.LBB3584:
 6295              		.loc 2 288 0 discriminator 1
 6296 1d30 813C0000 		lwz 9,0(28)
 6297              	.LBE3584:
 6298              	.LBE3583:
 6299              	.LBE3582:
 6300              	.LBE3581:
 6301              	.LBE3580:
 6302              	.LBB3585:
 6303              	.LBB3586:
 6304              	.LBB3587:
 6305              	.LBB3588:
 6306              		.loc 2 311 0 discriminator 1
 6307 1d34 8009FFFC 		lwz 0,-4(9)
 6308              	.LBE3588:
 6309              	.LBE3587:
 6310              	.LBE3586:
 6311              	.LBE3585:
 6312              		.loc 1 515 0 discriminator 1
 6313 1d38 83E9FFF4 		lwz 31,-12(9)
 6314              	.LBB3595:
 6315              	.LBB3593:
 6316              	.LBB3591:
 6317              	.LBB3589:
 6318              		.loc 2 311 0 discriminator 1
 6319 1d3c 2F800000 		cmpwi 7,0,0
 6320              	.LBE3589:
 6321              	.LBE3591:
 6322              	.LBE3593:
 6323              	.LBE3595:
 6324              		.loc 1 515 0 discriminator 1
 6325 1d40 3BFFFFFF 		addi 31,31,-1
 6326              	.LVL552:
 6327              	.LBB3596:
 6328              	.LBB3594:
 6329              	.LBB3592:
 6330              	.LBB3590:
 6331              		.loc 2 311 0 discriminator 1
 6332 1d44 419C0010 		blt- 7,.L468
 6333              		.loc 2 312 0
 6334 1d48 7F83E378 		mr 3,28
 6335 1d4c 48000001 		bl _ZNSs12_M_leak_hardEv
 6336 1d50 813C0000 		lwz 9,0(28)
 6337              	.L468:
 6338              	.LBE3590:
 6339              	.LBE3592:
 6340              	.LBE3594:
 6341              	.LBE3596:
 6342              		.loc 1 515 0 discriminator 1
 6343 1d54 7C09F8AE 		lbzx 0,9,31
 6344 1d58 2F80002F 		cmpwi 7,0,47
 6345 1d5c 419EFFB4 		beq+ 7,.L469
 6346              	.LVL553:
 6347              	.LBB3597:
 6348              	.LBB3598:
 6349              		.loc 1 654 0 discriminator 1
 6350 1d60 813D0000 		lwz 9,0(29)
 6351              	.LBB3599:
 6352              	.LBB3600:
 6353              		.loc 4 571 0 discriminator 1
 6354 1d64 3C00AAAA 		lis 0,0xaaaa
 6355 1d68 817D0004 		lwz 11,4(29)
 6356 1d6c 6000AAAB 		ori 0,0,43691
 6357 1d70 7D695850 		subf 11,9,11
 6358 1d74 7D6B1E70 		srawi 11,11,3
 6359              	.LBE3600:
 6360              	.LBE3599:
 6361              	.LBE3598:
 6362              		.loc 1 518 0 discriminator 1
 6363 1d78 7C0B01D7 		mullw. 0,11,0
 6364 1d7c 408100C4 		ble- 0,.L470
 6365              		.loc 1 518 0 is_stmt 0
 6366 1d80 3BC00000 		li 30,0
 6367 1d84 3BE00000 		li 31,0
 6368              	.LVL554:
 6369 1d88 48000068 		b .L489
 6370              	.LVL555:
 6371              	.L506:
 6372              	.LBB3605:
 6373              	.LBB3606:
 6374              	.LBB3607:
 6375              	.LBB3608:
 6376              		.loc 4 696 0 is_stmt 1
 6377 1d8c 7D69F214 		add 11,9,30
 6378              	.LBE3608:
 6379              	.LBE3607:
 6380              	.LBE3606:
 6381              	.LBE3605:
 6382              		.loc 1 527 0
 6383 1d90 7C89F02E 		lwzx 4,9,30
 6384              		.loc 1 526 0
 6385 1d94 880B0010 		lbz 0,16(11)
 6386 1d98 2F800000 		cmpwi 7,0,0
 6387 1d9c 419E0060 		beq- 7,.L471
 6388              	.LVL556:
 6389              		.loc 1 527 0
 6390 1da0 38610014 		addi 3,1,20
 6391 1da4 38A1000C 		addi 5,1,12
 6392 1da8 48000001 		bl _ZNSsC1EPKcRKSaIcE
 6393              	.LEHE69:
 6394 1dac 38610014 		addi 3,1,20
 6395              	.LEHB70:
 6396 1db0 4BFFE3A5 		bl _Z15RemoveDirectorySs.constprop.16
 6397              	.LEHE70:
 6398              	.LVL557:
 6399              	.LBB3612:
 6400              	.LBB3613:
 6401              	.LBB3614:
 6402              	.LBB3615:
 6403              	.LBB3616:
 6404              	.LBB3617:
 6405              		.loc 2 288 0
 6406 1db4 81210014 		lwz 9,20(1)
 6407              	.LBE3617:
 6408              	.LBE3616:
 6409              	.LBE3615:
 6410              		.loc 2 534 0
 6411 1db8 3869FFF4 		addi 3,9,-12
 6412              	.LVL558:
 6413              	.LBB3618:
 6414              	.LBB3619:
 6415              		.loc 2 235 0
 6416 1dbc 7F83D800 		cmpw 7,3,27
 6417 1dc0 409E00D4 		bne- 7,.L505
 6418              	.LVL559:
 6419              	.L488:
 6420              	.LBE3619:
 6421              	.LBE3618:
 6422              	.LBE3614:
 6423              	.LBE3613:
 6424              	.LBE3612:
 6425              	.LBB3630:
 6426              		.loc 1 654 0
 6427 1dc4 813D0000 		lwz 9,0(29)
 6428              	.LBB3603:
 6429              	.LBB3601:
 6430              		.loc 4 571 0
 6431 1dc8 3C00AAAA 		lis 0,0xaaaa
 6432 1dcc 817D0004 		lwz 11,4(29)
 6433 1dd0 6000AAAB 		ori 0,0,43691
 6434              	.LBE3601:
 6435              	.LBE3603:
 6436              	.LBE3630:
 6437              		.loc 1 518 0
 6438 1dd4 3BFF0001 		addi 31,31,1
 6439              	.LVL560:
 6440              	.LBB3631:
 6441              	.LBB3604:
 6442              	.LBB3602:
 6443              		.loc 4 571 0
 6444 1dd8 3BDE0018 		addi 30,30,24
 6445 1ddc 7D695850 		subf 11,9,11
 6446 1de0 7D6B1E70 		srawi 11,11,3
 6447 1de4 7C0B01D6 		mullw 0,11,0
 6448              	.LBE3602:
 6449              	.LBE3604:
 6450              	.LBE3631:
 6451              		.loc 1 518 0
 6452 1de8 7F9F0000 		cmpw 7,31,0
 6453 1dec 409C0054 		bge- 7,.L470
 6454              	.LVL561:
 6455              	.L489:
 6456              	.LBB3632:
 6457              	.LBB3611:
 6458              	.LBB3609:
 6459              	.LBB3610:
 6460              		.loc 5 90 0
 6461 1df0 7F80F800 		cmpw 7,0,31
 6462              		.loc 5 60 0
 6463 1df4 38800000 		li 4,0
 6464              		.loc 5 90 0
 6465 1df8 41BDFF94 		bgt- 7,.L506
 6466              	.L471:
 6467              	.LBE3610:
 6468              	.LBE3609:
 6469              	.LBE3611:
 6470              	.LBE3632:
 6471              		.loc 1 529 0
 6472 1dfc 38610010 		addi 3,1,16
 6473 1e00 38A1000B 		addi 5,1,11
 6474              	.LEHB71:
 6475 1e04 48000001 		bl _ZNSsC1EPKcRKSaIcE
 6476              	.LEHE71:
 6477              	.LVL562:
 6478              	.LBB3633:
 6479              	.LBB3634:
 6480              		.loc 1 546 0
 6481 1e08 80610010 		lwz 3,16(1)
 6482              	.LEHB72:
 6483 1e0c 48000001 		bl remove
 6484              	.LEHE72:
 6485              	.LVL563:
 6486              	.LBE3634:
 6487              	.LBE3633:
 6488              	.LBB3635:
 6489              	.LBB3636:
 6490              	.LBB3637:
 6491              	.LBB3638:
 6492              	.LBB3639:
 6493              	.LBB3640:
 6494              		.loc 2 288 0
 6495 1e10 81210010 		lwz 9,16(1)
 6496              	.LBE3640:
 6497              	.LBE3639:
 6498              	.LBE3638:
 6499              		.loc 2 534 0
 6500 1e14 3869FFF4 		addi 3,9,-12
 6501              	.LVL564:
 6502              	.LBB3641:
 6503              	.LBB3642:
 6504              		.loc 2 235 0
 6505 1e18 7F83D800 		cmpw 7,3,27
 6506 1e1c 419EFFA8 		beq+ 7,.L488
 6507              	.LVL565:
 6508              	.LBB3643:
 6509              	.LBB3644:
 6510              	.LBB3645:
 6511              		.loc 6 66 0
 6512 1e20 8169FFFC 		lwz 11,-4(9)
 6513              	.LVL566:
 6514              	.LBE3645:
 6515              	.LBE3644:
 6516              	.LBE3643:
 6517              		.loc 2 240 0
 6518 1e24 2F8B0000 		cmpwi 7,11,0
 6519              	.LBB3648:
 6520              	.LBB3647:
 6521              	.LBB3646:
 6522              		.loc 6 67 0
 6523 1e28 396BFFFF 		addi 11,11,-1
 6524 1e2c 9169FFFC 		stw 11,-4(9)
 6525              	.LBE3646:
 6526              	.LBE3647:
 6527              	.LBE3648:
 6528              		.loc 2 240 0
 6529 1e30 419DFF94 		bgt+ 7,.L488
 6530              		.loc 2 244 0
 6531 1e34 38810008 		addi 4,1,8
 6532 1e38 48000001 		bl _ZNSs4_Rep10_M_destroyERKSaIcE
 6533              	.LVL567:
 6534 1e3c 4BFFFF88 		b .L488
 6535              	.LVL568:
 6536              	.L470:
 6537              	.LBE3642:
 6538              	.LBE3641:
 6539              	.LBE3637:
 6540              	.LBE3636:
 6541              	.LBE3635:
 6542              	.LBE3597:
 6543              		.loc 1 531 0 discriminator 1
 6544 1e40 7FA3EB78 		mr 3,29
 6545              	.LEHB73:
 6546 1e44 48000001 		bl _ZN7DirListD1Ev
 6547 1e48 7FA3EB78 		mr 3,29
 6548 1e4c 48000001 		bl _ZdlPv
 6549              	.LVL569:
 6550              		.loc 1 533 0 discriminator 1
 6551 1e50 807C0000 		lwz 3,0(28)
 6552 1e54 48000001 		bl remove
 6553 1e58 2F830000 		cmpwi 7,3,0
 6554              		.loc 1 536 0 discriminator 1
 6555 1e5c 3860FFFF 		li 3,-1
 6556              		.loc 1 533 0 discriminator 1
 6557 1e60 409E0008 		bne- 7,.L464
 6558              		.loc 1 534 0
 6559 1e64 38600001 		li 3,1
 6560              	.LVL570:
 6561              	.L464:
 6562              	.LBE3656:
 6563              		.loc 1 537 0
 6564 1e68 80010044 		lwz 0,68(1)
 6565 1e6c 8361002C 		lwz 27,44(1)
 6566 1e70 7C0803A6 		mtlr 0
 6567 1e74 83810030 		lwz 28,48(1)
 6568              	.LVL571:
 6569 1e78 83A10034 		lwz 29,52(1)
 6570 1e7c 83C10038 		lwz 30,56(1)
 6571 1e80 83E1003C 		lwz 31,60(1)
 6572 1e84 38210040 		addi 1,1,64
 6573              		.cfi_remember_state
 6574              	.LCFI54:
 6575              		.cfi_def_cfa_offset 0
 6576              		.cfi_restore 31
 6577              		.cfi_restore 30
 6578              		.cfi_restore 29
 6579              		.cfi_restore 28
 6580              		.cfi_restore 27
 6581 1e88 4E800020 		blr
 6582              	.LVL572:
 6583              	.L494:
 6584              	.LCFI55:
 6585              		.cfi_restore_state
 6586              	.LBB3657:
 6587              		.loc 1 511 0
 6588 1e8c 3860FFFF 		li 3,-1
 6589              	.LVL573:
 6590 1e90 4BFFFFD8 		b .L464
 6591              	.LVL574:
 6592              	.L505:
 6593              	.LBB3650:
 6594              	.LBB3649:
 6595              	.LBB3629:
 6596              	.LBB3628:
 6597              	.LBB3627:
 6598              	.LBB3626:
 6599              	.LBB3620:
 6600              	.LBB3621:
 6601              	.LBB3622:
 6602              		.loc 6 66 0
 6603 1e94 8169FFFC 		lwz 11,-4(9)
 6604              	.LVL575:
 6605              	.LBE3622:
 6606              	.LBE3621:
 6607              	.LBE3620:
 6608              		.loc 2 240 0
 6609 1e98 2F8B0000 		cmpwi 7,11,0
 6610              	.LBB3625:
 6611              	.LBB3624:
 6612              	.LBB3623:
 6613              		.loc 6 67 0
 6614 1e9c 396BFFFF 		addi 11,11,-1
 6615 1ea0 9169FFFC 		stw 11,-4(9)
 6616              	.LBE3623:
 6617              	.LBE3624:
 6618              	.LBE3625:
 6619              		.loc 2 240 0
 6620 1ea4 419DFF20 		bgt+ 7,.L488
 6621              		.loc 2 244 0
 6622 1ea8 38810009 		addi 4,1,9
 6623 1eac 48000001 		bl _ZNSs4_Rep10_M_destroyERKSaIcE
 6624              	.LVL576:
 6625 1eb0 4BFFFF14 		b .L488
 6626              	.LVL577:
 6627              	.L504:
 6628              	.LBE3626:
 6629              	.LBE3627:
 6630              	.LBE3628:
 6631              	.LBE3629:
 6632              	.LBE3649:
 6633              	.LBE3650:
 6634              	.LBB3651:
 6635              	.LBB3579:
 6636              	.LBB3578:
 6637              	.LBB3577:
 6638              		.loc 2 319 0
 6639 1eb4 3C600000 		lis 3,.LC0@ha
 6640 1eb8 38630000 		la 3,.LC0@l(3)
 6641 1ebc 48000001 		bl _ZSt20__throw_out_of_rangePKc
 6642              	.LVL578:
 6643              	.L507:
 6644              	.LBE3577:
 6645              	.LBE3578:
 6646              	.LBE3579:
 6647              	.LBE3651:
 6648              	.LBB3652:
 6649              	.LBB3570:
 6650              	.LBB3569:
 6651              	.LBB3567:
 6652              	.LBB3560:
 6653              	.LBB3561:
 6654              	.LBB3562:
 6655              		.loc 6 66 0
 6656 1ec0 8169FFFC 		lwz 11,-4(9)
 6657              	.LVL579:
 6658              	.LBE3562:
 6659              	.LBE3561:
 6660              	.LBE3560:
 6661              		.loc 2 240 0
 6662 1ec4 2F8B0000 		cmpwi 7,11,0
 6663              	.LBB3565:
 6664              	.LBB3564:
 6665              	.LBB3563:
 6666              		.loc 6 67 0
 6667 1ec8 396BFFFF 		addi 11,11,-1
 6668 1ecc 9169FFFC 		stw 11,-4(9)
 6669              	.LBE3563:
 6670              	.LBE3564:
 6671              	.LBE3565:
 6672              		.loc 2 240 0
 6673 1ed0 419DFE60 		bgt+ 7,.L502
 6674              		.loc 2 244 0
 6675 1ed4 3881000A 		addi 4,1,10
 6676 1ed8 48000001 		bl _ZNSs4_Rep10_M_destroyERKSaIcE
 6677              	.LVL580:
 6678 1edc 4BFFFE54 		b .L502
 6679              	.LVL581:
 6680              	.L498:
 6681 1ee0 7C7F1B78 		mr 31,3
 6682              	.LBE3567:
 6683              	.LBE3569:
 6684              	.LBE3570:
 6685              	.LBE3652:
 6686              		.loc 1 513 0
 6687 1ee4 7FA3EB78 		mr 3,29
 6688 1ee8 48000001 		bl _ZdlPv
 6689              	.L491:
 6690 1eec 38610018 		addi 3,1,24
 6691 1ef0 48000001 		bl _ZNSsD1Ev
 6692 1ef4 7FE3FB78 		mr 3,31
 6693 1ef8 48000001 		bl _Unwind_Resume
 6694              	.L497:
 6695 1efc 7C7F1B78 		mr 31,3
 6696 1f00 4BFFFFEC 		b .L491
 6697              	.LVL582:
 6698              	.L500:
 6699 1f04 7C7F1B78 		mr 31,3
 6700              	.LVL583:
 6701              	.LBB3653:
 6702              		.loc 1 529 0
 6703 1f08 38610010 		addi 3,1,16
 6704              	.LVL584:
 6705 1f0c 48000001 		bl _ZNSsD1Ev
 6706              	.LVL585:
 6707 1f10 7FE3FB78 		mr 3,31
 6708 1f14 48000001 		bl _Unwind_Resume
 6709              	.LVL586:
 6710              	.L499:
 6711 1f18 7C7F1B78 		mr 31,3
 6712              	.LVL587:
 6713              		.loc 1 527 0
 6714 1f1c 38610014 		addi 3,1,20
 6715 1f20 48000001 		bl _ZNSsD1Ev
 6716 1f24 7FE3FB78 		mr 3,31
 6717 1f28 48000001 		bl _Unwind_Resume
 6718              	.LEHE73:
 6719              	.LBE3653:
 6720              	.LBE3657:
 6721              		.cfi_endproc
 6722              	.LFE800:
 6723              		.section	.gcc_except_table
 6724              	.LLSDA800:
 6725 018c FF       		.byte	0xff
 6726 018d FF       		.byte	0xff
 6727 018e 01       		.byte	0x1
 6728 018f 2B       		.uleb128 .LLSDACSE800-.LLSDACSB800
 6729              	.LLSDACSB800:
 6730 0190 3C       		.uleb128 .LEHB66-.LFB800
 6731 0191 04       		.uleb128 .LEHE66-.LEHB66
 6732 0192 00       		.uleb128 0
 6733 0193 00       		.uleb128 0
 6734 0194 44       		.uleb128 .LEHB67-.LFB800
 6735 0195 04       		.uleb128 .LEHE67-.LEHB67
 6736 0196 E404     		.uleb128 .L497-.LFB800
 6737 0198 00       		.uleb128 0
 6738 0199 58       		.uleb128 .LEHB68-.LFB800
 6739 019a 04       		.uleb128 .LEHE68-.LEHB68
 6740 019b C804     		.uleb128 .L498-.LFB800
 6741 019d 00       		.uleb128 0
 6742 019e 9401     		.uleb128 .LEHB69-.LFB800
 6743 01a0 8001     		.uleb128 .LEHE69-.LEHB69
 6744 01a2 00       		.uleb128 0
 6745 01a3 00       		.uleb128 0
 6746 01a4 9802     		.uleb128 .LEHB70-.LFB800
 6747 01a6 04       		.uleb128 .LEHE70-.LEHB70
 6748 01a7 8005     		.uleb128 .L499-.LFB800
 6749 01a9 00       		.uleb128 0
 6750 01aa EC02     		.uleb128 .LEHB71-.LFB800
 6751 01ac 04       		.uleb128 .LEHE71-.LEHB71
 6752 01ad 00       		.uleb128 0
 6753 01ae 00       		.uleb128 0
 6754 01af F402     		.uleb128 .LEHB72-.LFB800
 6755 01b1 04       		.uleb128 .LEHE72-.LEHB72
 6756 01b2 EC04     		.uleb128 .L500-.LFB800
 6757 01b4 00       		.uleb128 0
 6758 01b5 AC03     		.uleb128 .LEHB73-.LFB800
 6759 01b7 E801     		.uleb128 .LEHE73-.LEHB73
 6760 01b9 00       		.uleb128 0
 6761 01ba 00       		.uleb128 0
 6762              	.LLSDACSE800:
 6763              		.section	".text"
 6764              		.size	_Z15RemoveDirectorySs, .-_Z15RemoveDirectorySs
 6765              		.align 2
 6766              		.globl _Z10RemoveFileSs
 6767              		.type	_Z10RemoveFileSs, @function
 6768              	_Z10RemoveFileSs:
 6769              	.LFB801:
 6770              		.loc 1 545 0
 6771              		.cfi_startproc
 6772              	.LVL588:
 6773 1f2c 7C0802A6 		mflr 0
 6774 1f30 9421FFF8 		stwu 1,-8(1)
 6775              	.LCFI56:
 6776              		.cfi_def_cfa_offset 8
 6777              		.cfi_register 65, 0
 6778 1f34 9001000C 		stw 0,12(1)
 6779              		.loc 1 546 0
 6780 1f38 80630000 		lwz 3,0(3)
 6781              	.LVL589:
 6782              		.cfi_offset 65, 4
 6783 1f3c 48000001 		bl remove
 6784              		.loc 1 547 0
 6785 1f40 8001000C 		lwz 0,12(1)
 6786 1f44 7C630034 		cntlzw 3,3
 6787 1f48 7C0803A6 		mtlr 0
 6788 1f4c 5463D97E 		srwi 3,3,5
 6789 1f50 38210008 		addi 1,1,8
 6790              	.LCFI57:
 6791              		.cfi_def_cfa_offset 0
 6792 1f54 4E800020 		blr
 6793              		.cfi_endproc
 6794              	.LFE801:
 6795              		.size	_Z10RemoveFileSs, .-_Z10RemoveFileSs
 6796              		.align 2
 6797              		.globl _Z10RenameFileSsSs
 6798              		.type	_Z10RenameFileSsSs, @function
 6799              	_Z10RenameFileSsSs:
 6800              	.LFB802:
 6801              		.loc 1 555 0
 6802              		.cfi_startproc
 6803              	.LVL590:
 6804 1f58 7C0802A6 		mflr 0
 6805 1f5c 9421FFF8 		stwu 1,-8(1)
 6806              	.LCFI58:
 6807              		.cfi_def_cfa_offset 8
 6808              		.cfi_register 65, 0
 6809 1f60 9001000C 		stw 0,12(1)
 6810              		.loc 1 556 0
 6811 1f64 80630000 		lwz 3,0(3)
 6812              	.LVL591:
 6813 1f68 80840000 		lwz 4,0(4)
 6814              	.LVL592:
 6815              		.cfi_offset 65, 4
 6816 1f6c 48000001 		bl rename
 6817              		.loc 1 557 0
 6818 1f70 8001000C 		lwz 0,12(1)
 6819 1f74 7C630034 		cntlzw 3,3
 6820 1f78 7C0803A6 		mtlr 0
 6821 1f7c 5463D97E 		srwi 3,3,5
 6822 1f80 38210008 		addi 1,1,8
 6823              	.LCFI59:
 6824              		.cfi_def_cfa_offset 0
 6825 1f84 4E800020 		blr
 6826              		.cfi_endproc
 6827              	.LFE802:
 6828              		.size	_Z10RenameFileSsSs, .-_Z10RenameFileSsSs
 6829              		.align 2
 6830              		.globl _Z13GetFolderSizeSsPyPj
 6831              		.type	_Z13GetFolderSizeSsPyPj, @function
 6832              	_Z13GetFolderSizeSsPyPj:
 6833              	.LFB803:
 6834              		.loc 1 566 0
 6835              		.cfi_startproc
 6836              		.cfi_personality 0,__gxx_personality_v0
 6837              		.cfi_lsda 0,.LLSDA803
 6838              	.LVL593:
 6839 1f88 7C0802A6 		mflr 0
 6840 1f8c 9421FF90 		stwu 1,-112(1)
 6841              	.LCFI60:
 6842              		.cfi_def_cfa_offset 112
 6843              		.cfi_register 65, 0
 6844 1f90 7C691B78 		mr 9,3
 6845              	.LVL594:
 6846 1f94 93C10068 		stw 30,104(1)
 6847 1f98 7C9E2378 		mr 30,4
 6848              		.cfi_offset 30, -8
 6849 1f9c 90010074 		stw 0,116(1)
 6850 1fa0 93E1006C 		stw 31,108(1)
 6851 1fa4 7CBF2B78 		mr 31,5
 6852              		.cfi_offset 31, -4
 6853              		.cfi_offset 65, 4
 6854              	.LBB3707:
 6855              	.LBB3708:
 6856              	.LBB3709:
 6857              	.LBB3710:
 6858              		.loc 2 711 0
 6859 1fa8 81630000 		lwz 11,0(3)
 6860              	.LBE3710:
 6861              	.LBE3709:
 6862              	.LBE3708:
 6863              	.LBE3707:
 6864              		.loc 1 566 0
 6865 1fac 9361005C 		stw 27,92(1)
 6866              	.LBB3821:
 6867              		.loc 1 567 0
 6868 1fb0 800BFFF4 		lwz 0,-12(11)
 6869              	.LBE3821:
 6870              		.loc 1 566 0
 6871 1fb4 93810060 		stw 28,96(1)
 6872              	.LBB3822:
 6873              		.loc 1 567 0
 6874 1fb8 2F800000 		cmpwi 7,0,0
 6875              	.LBE3822:
 6876              		.loc 1 566 0
 6877 1fbc 93A10064 		stw 29,100(1)
 6878              	.LBB3823:
 6879              		.loc 1 567 0
 6880 1fc0 409E0028 		bne- 7,.L541
 6881              		.cfi_offset 29, -12
 6882              		.cfi_offset 28, -16
 6883              		.cfi_offset 27, -20
 6884              	.LVL595:
 6885              	.LBE3823:
 6886              		.loc 1 585 0
 6887 1fc4 80010074 		lwz 0,116(1)
 6888 1fc8 8361005C 		lwz 27,92(1)
 6889 1fcc 7C0803A6 		mtlr 0
 6890 1fd0 83810060 		lwz 28,96(1)
 6891 1fd4 83A10064 		lwz 29,100(1)
 6892 1fd8 83C10068 		lwz 30,104(1)
 6893 1fdc 83E1006C 		lwz 31,108(1)
 6894 1fe0 38210070 		addi 1,1,112
 6895              		.cfi_remember_state
 6896              	.LCFI61:
 6897              		.cfi_def_cfa_offset 0
 6898              		.cfi_restore 31
 6899              		.cfi_restore 30
 6900              		.cfi_restore 29
 6901              		.cfi_restore 28
 6902              		.cfi_restore 27
 6903 1fe4 4E800020 		blr
 6904              	.L541:
 6905              	.LCFI62:
 6906              		.cfi_restore_state
 6907              	.LBB3824:
 6908              		.loc 1 570 0
 6909 1fe8 3861000C 		addi 3,1,12
 6910              	.LVL596:
 6911 1fec 7D244B78 		mr 4,9
 6912              	.LVL597:
 6913              	.LEHB74:
 6914 1ff0 48000001 		bl _ZNSsC1ERKSs
 6915              	.LEHE74:
 6916              	.LVL598:
 6917 1ff4 3860000C 		li 3,12
 6918              	.LEHB75:
 6919 1ff8 48000001 		bl _Znwj
 6920              	.LEHE75:
 6921 1ffc 3881000C 		addi 4,1,12
 6922 2000 38A00000 		li 5,0
 6923 2004 38C0000B 		li 6,11
 6924 2008 7C7D1B78 		mr 29,3
 6925              	.LEHB76:
 6926 200c 48000001 		bl _ZN7DirListC1ESsPKcj
 6927              	.LEHE76:
 6928              	.LVL599:
 6929              	.LBB3711:
 6930              	.LBB3712:
 6931              	.LBB3713:
 6932              	.LBB3714:
 6933              	.LBB3715:
 6934              		.loc 2 288 0
 6935 2010 8121000C 		lwz 9,12(1)
 6936              	.LBE3715:
 6937              	.LBE3714:
 6938              	.LBE3713:
 6939              	.LBB3716:
 6940              	.LBB3717:
 6941              		.loc 2 235 0
 6942 2014 3D600000 		lis 11,_ZNSs4_Rep20_S_empty_rep_storageE@ha
 6943 2018 380B0000 		la 0,_ZNSs4_Rep20_S_empty_rep_storageE@l(11)
 6944              	.LBE3717:
 6945              	.LBE3716:
 6946              		.loc 2 534 0
 6947 201c 3869FFF4 		addi 3,9,-12
 6948              	.LVL600:
 6949              	.LBB3726:
 6950              	.LBB3724:
 6951              		.loc 2 235 0
 6952 2020 7F830000 		cmpw 7,3,0
 6953 2024 409E02B4 		bne- 7,.L542
 6954              	.LVL601:
 6955              	.L512:
 6956              	.LBE3724:
 6957              	.LBE3726:
 6958              	.LBE3712:
 6959              	.LBE3711:
 6960              	.LBB3729:
 6961              	.LBB3730:
 6962              		.loc 1 654 0 discriminator 1
 6963 2028 817D0000 		lwz 11,0(29)
 6964              	.LBB3731:
 6965              	.LBB3732:
 6966              		.loc 4 571 0 discriminator 1
 6967 202c 3C00AAAA 		lis 0,0xaaaa
 6968              	.LBE3732:
 6969              	.LBE3731:
 6970              		.loc 1 654 0 discriminator 1
 6971 2030 815D0004 		lwz 10,4(29)
 6972              	.LBB3746:
 6973              	.LBB3733:
 6974              		.loc 4 571 0 discriminator 1
 6975 2034 6000AAAB 		ori 0,0,43691
 6976 2038 7D2B5050 		subf 9,11,10
 6977 203c 7D291E70 		srawi 9,9,3
 6978              	.LBE3733:
 6979              	.LBE3746:
 6980              	.LBE3730:
 6981              		.loc 1 574 0 discriminator 1
 6982 2040 7C0901D7 		mullw. 0,9,0
 6983 2044 408100C8 		ble- 0,.L513
 6984              		.loc 1 574 0 is_stmt 0
 6985 2048 2F9E0000 		cmpwi 7,30,0
 6986 204c 419E00FC 		beq- 7,.L543
 6987 2050 2F9F0000 		cmpwi 7,31,0
 6988 2054 419E01B8 		beq- 7,.L544
 6989 2058 3B600000 		li 27,0
 6990 205c 7D695B78 		mr 9,11
 6991 2060 7F9B0000 		cmpw 7,27,0
 6992 2064 3B800000 		li 28,0
 6993              	.LVL602:
 6994              	.LBB3759:
 6995              	.LBB3760:
 6996              	.LBB3761:
 6997              	.LBB3762:
 6998              		.loc 5 90 0 is_stmt 1
 6999 2068 409C0040 		bge- 7,.L537
 7000              	.LVL603:
 7001              	.L546:
 7002              	.LBE3762:
 7003              	.LBE3761:
 7004              	.LBB3770:
 7005              	.LBB3771:
 7006              		.loc 4 696 0
 7007 206c 7D0BDA14 		add 8,11,27
 7008              	.LBE3771:
 7009              	.LBE3770:
 7010              	.LBE3760:
 7011              	.LBE3759:
 7012              		.loc 1 576 0
 7013 2070 88080010 		lbz 0,16(8)
 7014 2074 2F800000 		cmpwi 7,0,0
 7015 2078 419E00C8 		beq- 7,.L545
 7016              	.LBB3792:
 7017              	.LBB3747:
 7018              	.LBB3734:
 7019              		.loc 4 571 0
 7020 207c 7D695050 		subf 11,9,10
 7021 2080 3C00AAAA 		lis 0,0xaaaa
 7022 2084 7D6B1E70 		srawi 11,11,3
 7023 2088 6000AAAB 		ori 0,0,43691
 7024 208c 7C0B01D6 		mullw 0,11,0
 7025              	.LBE3734:
 7026              	.LBE3747:
 7027              	.LBE3792:
 7028              		.loc 1 574 0
 7029 2090 3B9C0001 		addi 28,28,1
 7030              	.LVL604:
 7031              	.LBB3793:
 7032              	.LBB3748:
 7033              	.LBB3735:
 7034              		.loc 4 571 0
 7035 2094 3B7B0018 		addi 27,27,24
 7036              	.LBE3735:
 7037              	.LBE3748:
 7038              	.LBE3793:
 7039              		.loc 1 574 0
 7040 2098 7F9C0000 		cmpw 7,28,0
 7041 209c 409C0070 		bge- 7,.L513
 7042              	.LVL605:
 7043              	.L538:
 7044 20a0 7D2B4B78 		mr 11,9
 7045              	.LVL606:
 7046              	.LBB3794:
 7047              	.LBB3785:
 7048              	.LBB3775:
 7049              	.LBB3763:
 7050              		.loc 5 90 0
 7051 20a4 41BCFFC8 		blt- 7,.L546
 7052              	.LVL607:
 7053              	.L537:
 7054              		.loc 5 60 0
 7055 20a8 38600000 		li 3,0
 7056              	.L527:
 7057              	.LBE3763:
 7058              	.LBE3775:
 7059              	.LBE3785:
 7060              	.LBE3794:
 7061              		.loc 1 578 0
 7062 20ac 38810010 		addi 4,1,16
 7063              		.loc 1 574 0
 7064 20b0 3B9C0001 		addi 28,28,1
 7065              	.LVL608:
 7066              	.LEHB77:
 7067              		.loc 1 578 0
 7068 20b4 48000001 		bl stat
 7069              	.LVL609:
 7070              		.loc 1 580 0
 7071 20b8 813F0000 		lwz 9,0(31)
 7072              		.loc 1 581 0
 7073 20bc 815E0000 		lwz 10,0(30)
 7074              	.LBB3795:
 7075              	.LBB3749:
 7076              	.LBB3736:
 7077              		.loc 4 571 0
 7078 20c0 3B7B0018 		addi 27,27,24
 7079              	.LBE3736:
 7080              	.LBE3749:
 7081              	.LBE3795:
 7082              		.loc 1 581 0
 7083 20c4 817E0004 		lwz 11,4(30)
 7084              		.loc 1 580 0
 7085 20c8 38090001 		addi 0,9,1
 7086              		.loc 1 581 0
 7087 20cc 81010028 		lwz 8,40(1)
 7088 20d0 8121002C 		lwz 9,44(1)
 7089              		.loc 1 580 0
 7090 20d4 901F0000 		stw 0,0(31)
 7091              	.LBB3796:
 7092              	.LBB3750:
 7093              	.LBB3737:
 7094              		.loc 4 571 0
 7095 20d8 3C00AAAA 		lis 0,0xaaaa
 7096              	.LBE3737:
 7097              	.LBE3750:
 7098              	.LBE3796:
 7099              		.loc 1 581 0
 7100 20dc 7D6B4814 		addc 11,11,9
 7101 20e0 7D4A4114 		adde 10,10,8
 7102 20e4 813D0000 		lwz 9,0(29)
 7103 20e8 915E0000 		stw 10,0(30)
 7104              	.LBB3797:
 7105              	.LBB3751:
 7106              	.LBB3738:
 7107              		.loc 4 571 0
 7108 20ec 6000AAAB 		ori 0,0,43691
 7109              	.LBE3738:
 7110              	.LBE3751:
 7111              	.LBE3797:
 7112              		.loc 1 581 0
 7113 20f0 815D0004 		lwz 10,4(29)
 7114 20f4 917E0004 		stw 11,4(30)
 7115              	.LBB3798:
 7116              	.LBB3752:
 7117              	.LBB3739:
 7118              		.loc 4 571 0
 7119 20f8 7D695050 		subf 11,9,10
 7120 20fc 7D6B1E70 		srawi 11,11,3
 7121 2100 7C0B01D6 		mullw 0,11,0
 7122              	.LBE3739:
 7123              	.LBE3752:
 7124              	.LBE3798:
 7125              		.loc 1 574 0
 7126 2104 7F9C0000 		cmpw 7,28,0
 7127 2108 419CFF98 		blt+ 7,.L538
 7128              	.LVL610:
 7129              	.L513:
 7130              	.LBE3729:
 7131              		.loc 1 584 0 discriminator 1
 7132 210c 7FA3EB78 		mr 3,29
 7133 2110 48000001 		bl _ZN7DirListD1Ev
 7134 2114 7FA3EB78 		mr 3,29
 7135 2118 48000001 		bl _ZdlPv
 7136              	.LBE3824:
 7137              		.loc 1 585 0 discriminator 1
 7138 211c 80010074 		lwz 0,116(1)
 7139 2120 8361005C 		lwz 27,92(1)
 7140 2124 7C0803A6 		mtlr 0
 7141 2128 83810060 		lwz 28,96(1)
 7142 212c 83A10064 		lwz 29,100(1)
 7143              	.LVL611:
 7144 2130 83C10068 		lwz 30,104(1)
 7145 2134 83E1006C 		lwz 31,108(1)
 7146 2138 38210070 		addi 1,1,112
 7147              		.cfi_remember_state
 7148              		.cfi_restore 27
 7149              		.cfi_restore 28
 7150              		.cfi_restore 29
 7151              		.cfi_restore 30
 7152              		.cfi_restore 31
 7153              	.LCFI63:
 7154              		.cfi_def_cfa_offset 0
 7155 213c 4E800020 		blr
 7156              	.LVL612:
 7157              	.L545:
 7158              	.LCFI64:
 7159              		.cfi_restore_state
 7160              	.LBB3825:
 7161              	.LBB3819:
 7162              	.LBB3799:
 7163              	.LBB3800:
 7164              		.loc 5 60 0
 7165 2140 7C6BD82E 		lwzx 3,11,27
 7166 2144 4BFFFF68 		b .L527
 7167              	.LVL613:
 7168              	.L543:
 7169              	.LBE3800:
 7170              	.LBE3799:
 7171              		.loc 1 574 0
 7172 2148 2F9F0000 		cmpwi 7,31,0
 7173 214c 7D695B78 		mr 9,11
 7174 2150 419E0078 		beq- 7,.L547
 7175 2154 3B800000 		li 28,0
 7176 2158 3BC00000 		li 30,0
 7177              	.LVL614:
 7178 215c 4800004C 		b .L515
 7179              	.LVL615:
 7180              	.L548:
 7181              	.LBB3804:
 7182              	.LBB3786:
 7183              	.LBB3776:
 7184              	.LBB3764:
 7185              		.loc 5 60 0
 7186 2160 38600000 		li 3,0
 7187              	.L521:
 7188              	.LBE3764:
 7189              	.LBE3776:
 7190              	.LBE3786:
 7191              	.LBE3804:
 7192              		.loc 1 578 0
 7193 2164 38810010 		addi 4,1,16
 7194 2168 48000001 		bl stat
 7195              		.loc 1 580 0
 7196 216c 817F0000 		lwz 11,0(31)
 7197 2170 813D0000 		lwz 9,0(29)
 7198 2174 380B0001 		addi 0,11,1
 7199 2178 815D0004 		lwz 10,4(29)
 7200 217c 901F0000 		stw 0,0(31)
 7201              	.L520:
 7202              	.LBB3805:
 7203              	.LBB3753:
 7204              	.LBB3740:
 7205              		.loc 4 571 0
 7206 2180 7D695050 		subf 11,9,10
 7207 2184 3C00AAAA 		lis 0,0xaaaa
 7208 2188 7D6B1E70 		srawi 11,11,3
 7209 218c 6000AAAB 		ori 0,0,43691
 7210 2190 7C0B01D6 		mullw 0,11,0
 7211              	.LBE3740:
 7212              	.LBE3753:
 7213              	.LBE3805:
 7214              		.loc 1 574 0
 7215 2194 3BDE0001 		addi 30,30,1
 7216              	.LVL616:
 7217              	.LBB3806:
 7218              	.LBB3754:
 7219              	.LBB3741:
 7220              		.loc 4 571 0
 7221 2198 3B9C0018 		addi 28,28,24
 7222              	.LBE3741:
 7223              	.LBE3754:
 7224              	.LBE3806:
 7225              		.loc 1 574 0
 7226 219c 7F9E0000 		cmpw 7,30,0
 7227 21a0 40BCFF6C 		bge- 7,.L513
 7228 21a4 7D2B4B78 		mr 11,9
 7229              	.LVL617:
 7230              	.L515:
 7231              	.LBB3807:
 7232              	.LBB3787:
 7233              	.LBB3777:
 7234              	.LBB3765:
 7235              		.loc 5 90 0
 7236 21a8 7F80F000 		cmpw 7,0,30
 7237 21ac 40BDFFB4 		ble- 7,.L548
 7238              	.LVL618:
 7239              	.LBE3765:
 7240              	.LBE3777:
 7241              	.LBB3778:
 7242              	.LBB3772:
 7243              		.loc 4 696 0
 7244 21b0 7D0BE214 		add 8,11,28
 7245              	.LBE3772:
 7246              	.LBE3778:
 7247              	.LBE3787:
 7248              	.LBE3807:
 7249              		.loc 1 576 0
 7250 21b4 88080010 		lbz 0,16(8)
 7251 21b8 2F800000 		cmpwi 7,0,0
 7252 21bc 409EFFC4 		bne+ 7,.L520
 7253              	.LVL619:
 7254              	.LBB3808:
 7255              	.LBB3801:
 7256              		.loc 5 60 0
 7257 21c0 7C6BE02E 		lwzx 3,11,28
 7258 21c4 4BFFFFA0 		b .L521
 7259              	.LVL620:
 7260              	.L547:
 7261 21c8 7F9E0000 		cmpw 7,30,0
 7262              	.LVL621:
 7263              	.L518:
 7264              	.LBE3801:
 7265              	.LBE3808:
 7266              	.LBB3809:
 7267              	.LBB3788:
 7268              	.LBB3779:
 7269              	.LBB3766:
 7270              		.loc 5 90 0
 7271 21cc 409C00C8 		bge- 7,.L532
 7272              	.LVL622:
 7273              	.LBE3766:
 7274              	.LBE3779:
 7275              	.LBB3780:
 7276              	.LBB3773:
 7277              		.loc 4 696 0
 7278 21d0 7D0BF214 		add 8,11,30
 7279              	.LBE3773:
 7280              	.LBE3780:
 7281              	.LBE3788:
 7282              	.LBE3809:
 7283              		.loc 1 576 0
 7284 21d4 88080010 		lbz 0,16(8)
 7285 21d8 2F800000 		cmpwi 7,0,0
 7286 21dc 419E00D0 		beq- 7,.L549
 7287              	.LVL623:
 7288              	.L517:
 7289              	.LBB3810:
 7290              	.LBB3755:
 7291              	.LBB3742:
 7292              		.loc 4 571 0
 7293 21e0 7D695050 		subf 11,9,10
 7294 21e4 3C00AAAA 		lis 0,0xaaaa
 7295 21e8 7D6B1E70 		srawi 11,11,3
 7296 21ec 6000AAAB 		ori 0,0,43691
 7297 21f0 7C0B01D6 		mullw 0,11,0
 7298              	.LBE3742:
 7299              	.LBE3755:
 7300              	.LBE3810:
 7301              		.loc 1 574 0
 7302 21f4 3BFF0001 		addi 31,31,1
 7303              	.LVL624:
 7304              	.LBB3811:
 7305              	.LBB3756:
 7306              	.LBB3743:
 7307              		.loc 4 571 0
 7308 21f8 3BDE0018 		addi 30,30,24
 7309              	.LBE3743:
 7310              	.LBE3756:
 7311              	.LBE3811:
 7312              		.loc 1 574 0
 7313 21fc 7F9F0000 		cmpw 7,31,0
 7314 2200 40BCFF0C 		bge- 7,.L513
 7315 2204 7D2B4B78 		mr 11,9
 7316 2208 4BFFFFC4 		b .L518
 7317              	.LVL625:
 7318              	.L544:
 7319 220c 3B800000 		li 28,0
 7320 2210 7D675B78 		mr 7,11
 7321 2214 7F9C0000 		cmpw 7,28,0
 7322              	.LVL626:
 7323              	.LBB3812:
 7324              	.LBB3789:
 7325              	.LBB3781:
 7326              	.LBB3767:
 7327              		.loc 5 90 0
 7328 2218 419C0064 		blt- 7,.L523
 7329              	.LVL627:
 7330              	.L550:
 7331              		.loc 5 60 0
 7332 221c 38600000 		li 3,0
 7333              	.L525:
 7334              	.LBE3767:
 7335              	.LBE3781:
 7336              	.LBE3789:
 7337              	.LBE3812:
 7338              		.loc 1 578 0
 7339 2220 38810010 		addi 4,1,16
 7340 2224 48000001 		bl stat
 7341              		.loc 1 581 0
 7342 2228 815E0000 		lwz 10,0(30)
 7343 222c 817E0004 		lwz 11,4(30)
 7344 2230 81010028 		lwz 8,40(1)
 7345 2234 8121002C 		lwz 9,44(1)
 7346 2238 80FD0000 		lwz 7,0(29)
 7347 223c 7D6B4814 		addc 11,11,9
 7348 2240 7D4A4114 		adde 10,10,8
 7349 2244 915E0000 		stw 10,0(30)
 7350 2248 917E0004 		stw 11,4(30)
 7351 224c 815D0004 		lwz 10,4(29)
 7352              	.L524:
 7353              	.LBB3813:
 7354              	.LBB3757:
 7355              	.LBB3744:
 7356              		.loc 4 571 0
 7357 2250 7D275050 		subf 9,7,10
 7358 2254 3C00AAAA 		lis 0,0xaaaa
 7359 2258 7D291E70 		srawi 9,9,3
 7360 225c 6000AAAB 		ori 0,0,43691
 7361 2260 7C0901D6 		mullw 0,9,0
 7362              	.LBE3744:
 7363              	.LBE3757:
 7364              	.LBE3813:
 7365              		.loc 1 574 0
 7366 2264 3BFF0001 		addi 31,31,1
 7367              	.LVL628:
 7368              	.LBB3814:
 7369              	.LBB3758:
 7370              	.LBB3745:
 7371              		.loc 4 571 0
 7372 2268 3B9C0018 		addi 28,28,24
 7373              	.LBE3745:
 7374              	.LBE3758:
 7375              	.LBE3814:
 7376              		.loc 1 574 0
 7377 226c 7F9F0000 		cmpw 7,31,0
 7378 2270 40BCFE9C 		bge- 7,.L513
 7379 2274 7CEB3B78 		mr 11,7
 7380              	.LVL629:
 7381              	.LBB3815:
 7382              	.LBB3790:
 7383              	.LBB3782:
 7384              	.LBB3768:
 7385              		.loc 5 90 0
 7386 2278 40BCFFA4 		bge- 7,.L550
 7387              	.LVL630:
 7388              	.L523:
 7389              	.LBE3768:
 7390              	.LBE3782:
 7391              	.LBB3783:
 7392              	.LBB3774:
 7393              		.loc 4 696 0
 7394 227c 7D2BE214 		add 9,11,28
 7395              	.LBE3774:
 7396              	.LBE3783:
 7397              	.LBE3790:
 7398              	.LBE3815:
 7399              		.loc 1 576 0
 7400 2280 88090010 		lbz 0,16(9)
 7401 2284 2F800000 		cmpwi 7,0,0
 7402 2288 409EFFC8 		bne+ 7,.L524
 7403              	.LVL631:
 7404              	.LBB3816:
 7405              	.LBB3802:
 7406              		.loc 5 60 0
 7407 228c 7C6BE02E 		lwzx 3,11,28
 7408 2290 4BFFFF90 		b .L525
 7409              	.LVL632:
 7410              	.L532:
 7411              	.LBE3802:
 7412              	.LBE3816:
 7413              	.LBB3817:
 7414              	.LBB3791:
 7415              	.LBB3784:
 7416              	.LBB3769:
 7417 2294 38600000 		li 3,0
 7418              	.L516:
 7419              	.LBE3769:
 7420              	.LBE3784:
 7421              	.LBE3791:
 7422              	.LBE3817:
 7423              		.loc 1 578 0
 7424 2298 38810010 		addi 4,1,16
 7425 229c 48000001 		bl stat
 7426 22a0 813D0000 		lwz 9,0(29)
 7427 22a4 815D0004 		lwz 10,4(29)
 7428 22a8 4BFFFF38 		b .L517
 7429              	.LVL633:
 7430              	.L549:
 7431              	.LBB3818:
 7432              	.LBB3803:
 7433              		.loc 5 60 0
 7434 22ac 7C6BF02E 		lwzx 3,11,30
 7435 22b0 4BFFFFE8 		b .L516
 7436              	.LVL634:
 7437              	.L539:
 7438 22b4 7C7F1B78 		mr 31,3
 7439              	.LVL635:
 7440              	.L530:
 7441              	.LBE3803:
 7442              	.LBE3818:
 7443              	.LBE3819:
 7444              		.loc 1 570 0
 7445 22b8 3861000C 		addi 3,1,12
 7446 22bc 48000001 		bl _ZNSsD1Ev
 7447 22c0 7FE3FB78 		mr 3,31
 7448 22c4 48000001 		bl _Unwind_Resume
 7449              	.LEHE77:
 7450              	.LVL636:
 7451              	.L540:
 7452 22c8 7C7F1B78 		mr 31,3
 7453              	.LVL637:
 7454 22cc 7FA3EB78 		mr 3,29
 7455 22d0 48000001 		bl _ZdlPv
 7456 22d4 4BFFFFE4 		b .L530
 7457              	.LVL638:
 7458              	.L542:
 7459              	.LBB3820:
 7460              	.LBB3728:
 7461              	.LBB3727:
 7462              	.LBB3725:
 7463              	.LBB3718:
 7464              	.LBB3719:
 7465              	.LBB3720:
 7466              		.loc 6 66 0
 7467 22d8 8169FFFC 		lwz 11,-4(9)
 7468              	.LVL639:
 7469              	.LBE3720:
 7470              	.LBE3719:
 7471              	.LBE3718:
 7472              		.loc 2 240 0
 7473 22dc 2F8B0000 		cmpwi 7,11,0
 7474              	.LBB3723:
 7475              	.LBB3722:
 7476              	.LBB3721:
 7477              		.loc 6 67 0
 7478 22e0 396BFFFF 		addi 11,11,-1
 7479 22e4 9169FFFC 		stw 11,-4(9)
 7480              	.LBE3721:
 7481              	.LBE3722:
 7482              	.LBE3723:
 7483              		.loc 2 240 0
 7484 22e8 419DFD40 		bgt+ 7,.L512
 7485              		.loc 2 244 0
 7486 22ec 38810008 		addi 4,1,8
 7487 22f0 48000001 		bl _ZNSs4_Rep10_M_destroyERKSaIcE
 7488              	.LVL640:
 7489 22f4 4BFFFD34 		b .L512
 7490              	.LBE3725:
 7491              	.LBE3727:
 7492              	.LBE3728:
 7493              	.LBE3820:
 7494              	.LBE3825:
 7495              		.cfi_endproc
 7496              	.LFE803:
 7497              		.section	.gcc_except_table
 7498              	.LLSDA803:
 7499 01bb FF       		.byte	0xff
 7500 01bc FF       		.byte	0xff
 7501 01bd 01       		.byte	0x1
 7502 01be 15       		.uleb128 .LLSDACSE803-.LLSDACSB803
 7503              	.LLSDACSB803:
 7504 01bf 68       		.uleb128 .LEHB74-.LFB803
 7505 01c0 04       		.uleb128 .LEHE74-.LEHB74
 7506 01c1 00       		.uleb128 0
 7507 01c2 00       		.uleb128 0
 7508 01c3 70       		.uleb128 .LEHB75-.LFB803
 7509 01c4 04       		.uleb128 .LEHE75-.LEHB75
 7510 01c5 AC06     		.uleb128 .L539-.LFB803
 7511 01c7 00       		.uleb128 0
 7512 01c8 8401     		.uleb128 .LEHB76-.LFB803
 7513 01ca 04       		.uleb128 .LEHE76-.LEHB76
 7514 01cb C006     		.uleb128 .L540-.LFB803
 7515 01cd 00       		.uleb128 0
 7516 01ce AC02     		.uleb128 .LEHB77-.LFB803
 7517 01d0 9404     		.uleb128 .LEHE77-.LEHB77
 7518 01d2 00       		.uleb128 0
 7519 01d3 00       		.uleb128 0
 7520              	.LLSDACSE803:
 7521              		.section	".text"
 7522              		.size	_Z13GetFolderSizeSsPyPj, .-_Z13GetFolderSizeSsPyPj
 7523              		.align 2
 7524              		.globl _Z14CompareDevicesPKcS0_
 7525              		.type	_Z14CompareDevicesPKcS0_, @function
 7526              	_Z14CompareDevicesPKcS0_:
 7527              	.LFB804:
 7528              		.loc 1 593 0
 7529              		.cfi_startproc
 7530              	.LVL641:
 7531 22f8 9421FF70 		stwu 1,-144(1)
 7532              	.LCFI65:
 7533              		.cfi_def_cfa_offset 144
 7534 22fc 7C0802A6 		mflr 0
 7535 2300 93810080 		stw 28,128(1)
 7536              	.LBB3826:
 7537              		.loc 1 594 0
 7538 2304 7C7C1B79 		mr. 28,3
 7539              		.cfi_offset 28, -16
 7540              		.cfi_register 65, 0
 7541              	.LBE3826:
 7542              		.loc 1 593 0
 7543 2308 93A10084 		stw 29,132(1)
 7544              	.LBB3827:
 7545              		.loc 1 595 0
 7546 230c 3BA00000 		li 29,0
 7547              		.cfi_offset 29, -12
 7548              	.LBE3827:
 7549              		.loc 1 593 0
 7550 2310 93E1008C 		stw 31,140(1)
 7551 2314 7C9F2378 		mr 31,4
 7552              		.cfi_offset 31, -4
 7553 2318 90010094 		stw 0,148(1)
 7554 231c 9361007C 		stw 27,124(1)
 7555 2320 93C10088 		stw 30,136(1)
 7556              	.LBB3828:
 7557              		.loc 1 594 0
 7558 2324 4182008C 		beq- 0,.L552
 7559              		.cfi_offset 30, -8
 7560              		.cfi_offset 27, -20
 7561              		.cfi_offset 65, 4
 7562              		.loc 1 594 0 is_stmt 0 discriminator 1
