	.file	"FileExtensions.cpp"
	.section	".text"
.Ltext0:
	.align 2
	.globl _ZN16CFilesExtensions5ClearEv
	.type	_ZN16CFilesExtensions5ClearEv, @function
_ZN16CFilesExtensions5ClearEv:
.LFB549:
	.file 1 "d:/Projects/SaveGameManager/savegame-manager-gx/trunk/source/FileOperations/FileExtensions.cpp"
	.loc 1 52 0
	.cfi_startproc
.LVL0:
	mflr 0
	stwu 1,-16(1)
.LCFI0:
	.cfi_def_cfa_offset 16
	.cfi_register 65, 0
	stw 31,12(1)
	mr 31,3
	.cfi_offset 31, -4
	stw 0,20(1)
	.loc 1 53 0
	lwz 3,0(3)
.LVL1:
	cmpwi 7,3,0
	beq- 7,.L2
	.cfi_offset 65, 4
	.loc 1 54 0
	bl free
.L2:
	.loc 1 57 0
	lwz 3,4(31)
	.loc 1 55 0
	li 0,0
	stw 0,0(31)
	.loc 1 57 0
	cmpwi 7,3,0
	beq- 7,.L3
	.loc 1 58 0
	bl free
.L3:
	.loc 1 61 0
	lwz 3,8(31)
	.loc 1 59 0
	li 0,0
	stw 0,4(31)
	.loc 1 61 0
	cmpwi 7,3,0
	beq- 7,.L4
	.loc 1 62 0
	bl free
.L4:
	.loc 1 65 0
	lwz 3,12(31)
	.loc 1 63 0
	li 0,0
	stw 0,8(31)
	.loc 1 65 0
	cmpwi 7,3,0
	beq- 7,.L5
	.loc 1 66 0
	bl free
.L5:
	.loc 1 69 0
	lwz 3,16(31)
	.loc 1 67 0
	li 0,0
	stw 0,12(31)
	.loc 1 69 0
	cmpwi 7,3,0
	beq- 7,.L6
	.loc 1 70 0
	bl free
.L6:
	.loc 1 73 0
	lwz 3,20(31)
	.loc 1 71 0
	li 0,0
	stw 0,16(31)
	.loc 1 73 0
	cmpwi 7,3,0
	beq- 7,.L7
	.loc 1 74 0
	bl free
.L7:
	.loc 1 77 0
	lwz 3,24(31)
	.loc 1 75 0
	li 0,0
	stw 0,20(31)
	.loc 1 77 0
	cmpwi 7,3,0
	beq- 7,.L8
	.loc 1 78 0
	bl free
.L8:
	.loc 1 81 0
	lwz 3,28(31)
	.loc 1 79 0
	li 0,0
	stw 0,24(31)
	.loc 1 81 0
	cmpwi 7,3,0
	beq- 7,.L9
	.loc 1 82 0
	bl free
.L9:
	.loc 1 85 0
	lwz 3,32(31)
	.loc 1 83 0
	li 0,0
	stw 0,28(31)
	.loc 1 85 0
	cmpwi 7,3,0
	beq- 7,.L10
	.loc 1 86 0
	bl free
.L10:
	.loc 1 87 0
	li 0,0
	stw 0,32(31)
	.loc 1 88 0
	lwz 0,20(1)
	lwz 31,12(1)
.LVL2:
	mtlr 0
	addi 1,1,16
.LCFI1:
	.cfi_def_cfa_offset 0
	.cfi_restore 31
	blr
	.cfi_endproc
.LFE549:
	.size	_ZN16CFilesExtensions5ClearEv, .-_ZN16CFilesExtensions5ClearEv
	.align 2
	.globl _ZN16CFilesExtensionsD2Ev
	.type	_ZN16CFilesExtensionsD2Ev, @function
_ZN16CFilesExtensionsD2Ev:
.LFB547:
	.loc 1 46 0
	.cfi_startproc
.LVL3:
	.loc 1 49 0
.LBB2:
	.loc 1 48 0
	b _ZN16CFilesExtensions5ClearEv
.LVL4:
.LBE2:
	.cfi_endproc
.LFE547:
	.size	_ZN16CFilesExtensionsD2Ev, .-_ZN16CFilesExtensionsD2Ev
	.align 2
	.globl _ZN16CFilesExtensions10SetDefaultEv
	.type	_ZN16CFilesExtensions10SetDefaultEv, @function
_ZN16CFilesExtensions10SetDefaultEv:
.LFB550:
	.loc 1 91 0
	.cfi_startproc
.LVL5:
	mflr 0
	stwu 1,-16(1)
.LCFI2:
	.cfi_def_cfa_offset 16
	.cfi_register 65, 0
	stw 31,12(1)
	mr 31,3
	.cfi_offset 31, -4
	stw 0,20(1)
	.loc 1 92 0
	.cfi_offset 65, 4
	bl _ZN16CFilesExtensions5ClearEv
.LVL6:
	.loc 1 94 0
	lis 3,.LC0@ha
	la 3,.LC0@l(3)
	bl strdup
	stw 3,0(31)
	.loc 1 95 0
	lis 3,.LC1@ha
	la 3,.LC1@l(3)
	bl strdup
	stw 3,4(31)
	.loc 1 96 0
	lis 3,.LC2@ha
	la 3,.LC2@l(3)
	bl strdup
	stw 3,8(31)
	.loc 1 97 0
	lis 3,.LC3@ha
	la 3,.LC3@l(3)
	bl strdup
	stw 3,12(31)
	.loc 1 98 0
	lis 3,.LC4@ha
	la 3,.LC4@l(3)
	bl strdup
	stw 3,16(31)
	.loc 1 99 0
	lis 3,.LC5@ha
	la 3,.LC5@l(3)
	bl strdup
	stw 3,20(31)
	.loc 1 100 0
	lis 3,.LC6@ha
	la 3,.LC6@l(3)
	bl strdup
	stw 3,24(31)
	.loc 1 101 0
	lis 3,.LC7@ha
	la 3,.LC7@l(3)
	bl strdup
	stw 3,28(31)
	.loc 1 102 0
	lis 3,.LC8@ha
	la 3,.LC8@l(3)
	bl strdup
	.loc 1 103 0
	lwz 0,20(1)
	.loc 1 102 0
	stw 3,32(31)
	.loc 1 103 0
	mtlr 0
	lwz 31,12(1)
.LVL7:
	addi 1,1,16
.LCFI3:
	.cfi_def_cfa_offset 0
	.cfi_restore 31
	blr
	.cfi_endproc
.LFE550:
	.size	_ZN16CFilesExtensions10SetDefaultEv, .-_ZN16CFilesExtensions10SetDefaultEv
	.align 2
	.globl _ZN16CFilesExtensionsC2Ev
	.type	_ZN16CFilesExtensionsC2Ev, @function
_ZN16CFilesExtensionsC2Ev:
.LFB544:
	.loc 1 31 0
	.cfi_startproc
.LVL8:
.LBB3:
	.loc 1 33 0
	li 0,0
.LBE3:
	.loc 1 44 0
.LBB4:
	.loc 1 33 0
	stw 0,0(3)
	.loc 1 34 0
	stw 0,4(3)
	.loc 1 35 0
	stw 0,8(3)
	.loc 1 36 0
	stw 0,12(3)
	.loc 1 37 0
	stw 0,16(3)
	.loc 1 38 0
	stw 0,20(3)
	.loc 1 39 0
	stw 0,24(3)
	.loc 1 40 0
	stw 0,28(3)
	.loc 1 41 0
	stw 0,32(3)
	.loc 1 43 0
	b _ZN16CFilesExtensions10SetDefaultEv
.LVL9:
.LBE4:
	.cfi_endproc
.LFE544:
	.size	_ZN16CFilesExtensionsC2Ev, .-_ZN16CFilesExtensionsC2Ev
	.align 2
	.globl _ZN16CFilesExtensions8SetAudioEPKc
	.type	_ZN16CFilesExtensions8SetAudioEPKc, @function
_ZN16CFilesExtensions8SetAudioEPKc:
.LFB551:
	.loc 1 106 0
	.cfi_startproc
.LVL10:
	mflr 0
	stwu 1,-16(1)
.LCFI4:
	.cfi_def_cfa_offset 16
	.cfi_register 65, 0
	stw 31,12(1)
	mr 31,3
	.cfi_offset 31, -4
	stw 0,20(1)
	stw 30,8(1)
	.loc 1 106 0
	mr 30,4
	.cfi_offset 30, -8
	.cfi_offset 65, 4
	.loc 1 107 0
	lwz 3,0(3)
.LVL11:
	cmpwi 7,3,0
	beq- 7,.L17
	.loc 1 108 0
	bl free
.LVL12:
.L17:
	.loc 1 110 0
	cmpwi 7,30,0
	beq- 7,.L20
	.loc 1 116 0
	mr 3,30
	bl strdup
	.loc 1 117 0
	lwz 0,20(1)
	.loc 1 116 0
	stw 3,0(31)
	.loc 1 117 0
	mtlr 0
	lwz 30,8(1)
.LVL13:
	lwz 31,12(1)
.LVL14:
	addi 1,1,16
	.cfi_remember_state
.LCFI5:
	.cfi_def_cfa_offset 0
	.cfi_restore 31
	.cfi_restore 30
	blr
.LVL15:
.L20:
.LCFI6:
	.cfi_restore_state
	lwz 0,20(1)
	.loc 1 112 0
	stw 30,0(31)
	.loc 1 117 0
	mtlr 0
	lwz 30,8(1)
.LVL16:
	lwz 31,12(1)
.LVL17:
	addi 1,1,16
	.cfi_restore 30
	.cfi_restore 31
.LCFI7:
	.cfi_def_cfa_offset 0
	blr
	.cfi_endproc
.LFE551:
	.size	_ZN16CFilesExtensions8SetAudioEPKc, .-_ZN16CFilesExtensions8SetAudioEPKc
	.align 2
	.globl _ZN16CFilesExtensions8SetImageEPKc
	.type	_ZN16CFilesExtensions8SetImageEPKc, @function
_ZN16CFilesExtensions8SetImageEPKc:
.LFB552:
	.loc 1 120 0
	.cfi_startproc
.LVL18:
	mflr 0
	stwu 1,-16(1)
.LCFI8:
	.cfi_def_cfa_offset 16
	.cfi_register 65, 0
	stw 31,12(1)
	mr 31,3
	.cfi_offset 31, -4
	stw 0,20(1)
	stw 30,8(1)
	.loc 1 120 0
	mr 30,4
	.cfi_offset 30, -8
	.cfi_offset 65, 4
	.loc 1 121 0
	lwz 3,4(3)
.LVL19:
	cmpwi 7,3,0
	beq- 7,.L22
	.loc 1 122 0
	bl free
.LVL20:
.L22:
	.loc 1 124 0
	cmpwi 7,30,0
	beq- 7,.L25
	.loc 1 130 0
	mr 3,30
	bl strdup
	.loc 1 131 0
	lwz 0,20(1)
	.loc 1 130 0
	stw 3,4(31)
	.loc 1 131 0
	mtlr 0
	lwz 30,8(1)
.LVL21:
	lwz 31,12(1)
.LVL22:
	addi 1,1,16
	.cfi_remember_state
.LCFI9:
	.cfi_def_cfa_offset 0
	.cfi_restore 31
	.cfi_restore 30
	blr
.LVL23:
.L25:
.LCFI10:
	.cfi_restore_state
	lwz 0,20(1)
	.loc 1 126 0
	stw 30,4(31)
	.loc 1 131 0
	mtlr 0
	lwz 30,8(1)
.LVL24:
	lwz 31,12(1)
.LVL25:
	addi 1,1,16
	.cfi_restore 30
	.cfi_restore 31
.LCFI11:
	.cfi_def_cfa_offset 0
	blr
	.cfi_endproc
.LFE552:
	.size	_ZN16CFilesExtensions8SetImageEPKc, .-_ZN16CFilesExtensions8SetImageEPKc
	.align 2
	.globl _ZN16CFilesExtensions10SetArchiveEPKc
	.type	_ZN16CFilesExtensions10SetArchiveEPKc, @function
_ZN16CFilesExtensions10SetArchiveEPKc:
.LFB553:
	.loc 1 134 0
	.cfi_startproc
.LVL26:
	mflr 0
	stwu 1,-16(1)
.LCFI12:
	.cfi_def_cfa_offset 16
	.cfi_register 65, 0
	stw 31,12(1)
	mr 31,3
	.cfi_offset 31, -4
	stw 0,20(1)
	stw 30,8(1)
	.loc 1 134 0
	mr 30,4
	.cfi_offset 30, -8
	.cfi_offset 65, 4
	.loc 1 135 0
	lwz 3,8(3)
.LVL27:
	cmpwi 7,3,0
	beq- 7,.L27
	.loc 1 136 0
	bl free
.LVL28:
.L27:
	.loc 1 138 0
	cmpwi 7,30,0
	beq- 7,.L30
	.loc 1 144 0
	mr 3,30
	bl strdup
	.loc 1 145 0
	lwz 0,20(1)
	.loc 1 144 0
	stw 3,8(31)
	.loc 1 145 0
	mtlr 0
	lwz 30,8(1)
.LVL29:
	lwz 31,12(1)
.LVL30:
	addi 1,1,16
	.cfi_remember_state
.LCFI13:
	.cfi_def_cfa_offset 0
	.cfi_restore 31
	.cfi_restore 30
	blr
.LVL31:
.L30:
.LCFI14:
	.cfi_restore_state
	lwz 0,20(1)
	.loc 1 140 0
	stw 30,8(31)
	.loc 1 145 0
	mtlr 0
	lwz 30,8(1)
.LVL32:
	lwz 31,12(1)
.LVL33:
	addi 1,1,16
	.cfi_restore 30
	.cfi_restore 31
.LCFI15:
	.cfi_def_cfa_offset 0
	blr
	.cfi_endproc
.LFE553:
	.size	_ZN16CFilesExtensions10SetArchiveEPKc, .-_ZN16CFilesExtensions10SetArchiveEPKc
	.align 2
	.globl _ZN16CFilesExtensions11SetHomebrewEPKc
	.type	_ZN16CFilesExtensions11SetHomebrewEPKc, @function
_ZN16CFilesExtensions11SetHomebrewEPKc:
.LFB554:
	.loc 1 148 0
	.cfi_startproc
.LVL34:
	mflr 0
	stwu 1,-16(1)
.LCFI16:
	.cfi_def_cfa_offset 16
	.cfi_register 65, 0
	stw 31,12(1)
	mr 31,3
	.cfi_offset 31, -4
	stw 0,20(1)
	stw 30,8(1)
	.loc 1 148 0
	mr 30,4
	.cfi_offset 30, -8
	.cfi_offset 65, 4
	.loc 1 149 0
	lwz 3,12(3)
.LVL35:
	cmpwi 7,3,0
	beq- 7,.L32
	.loc 1 150 0
	bl free
.LVL36:
.L32:
	.loc 1 152 0
	cmpwi 7,30,0
	beq- 7,.L35
	.loc 1 158 0
	mr 3,30
	bl strdup
	.loc 1 159 0
	lwz 0,20(1)
	.loc 1 158 0
	stw 3,12(31)
	.loc 1 159 0
	mtlr 0
	lwz 30,8(1)
.LVL37:
	lwz 31,12(1)
.LVL38:
	addi 1,1,16
	.cfi_remember_state
.LCFI17:
	.cfi_def_cfa_offset 0
	.cfi_restore 31
	.cfi_restore 30
	blr
.LVL39:
.L35:
.LCFI18:
	.cfi_restore_state
	lwz 0,20(1)
	.loc 1 154 0
	stw 30,12(31)
	.loc 1 159 0
	mtlr 0
	lwz 30,8(1)
.LVL40:
	lwz 31,12(1)
.LVL41:
	addi 1,1,16
	.cfi_restore 30
	.cfi_restore 31
.LCFI19:
	.cfi_def_cfa_offset 0
	blr
	.cfi_endproc
.LFE554:
	.size	_ZN16CFilesExtensions11SetHomebrewEPKc, .-_ZN16CFilesExtensions11SetHomebrewEPKc
	.align 2
	.globl _ZN16CFilesExtensions7SetFontEPKc
	.type	_ZN16CFilesExtensions7SetFontEPKc, @function
_ZN16CFilesExtensions7SetFontEPKc:
.LFB555:
	.loc 1 162 0
	.cfi_startproc
.LVL42:
	mflr 0
	stwu 1,-16(1)
.LCFI20:
	.cfi_def_cfa_offset 16
	.cfi_register 65, 0
	stw 31,12(1)
	mr 31,3
	.cfi_offset 31, -4
	stw 0,20(1)
	stw 30,8(1)
	.loc 1 162 0
	mr 30,4
	.cfi_offset 30, -8
	.cfi_offset 65, 4
	.loc 1 163 0
	lwz 3,16(3)
.LVL43:
	cmpwi 7,3,0
	beq- 7,.L37
	.loc 1 164 0
	bl free
.LVL44:
.L37:
	.loc 1 166 0
	cmpwi 7,30,0
	beq- 7,.L40
	.loc 1 172 0
	mr 3,30
	bl strdup
	.loc 1 173 0
	lwz 0,20(1)
	.loc 1 172 0
	stw 3,16(31)
	.loc 1 173 0
	mtlr 0
	lwz 30,8(1)
.LVL45:
	lwz 31,12(1)
.LVL46:
	addi 1,1,16
	.cfi_remember_state
.LCFI21:
	.cfi_def_cfa_offset 0
	.cfi_restore 31
	.cfi_restore 30
	blr
.LVL47:
.L40:
.LCFI22:
	.cfi_restore_state
	lwz 0,20(1)
	.loc 1 168 0
	stw 30,16(31)
	.loc 1 173 0
	mtlr 0
	lwz 30,8(1)
.LVL48:
	lwz 31,12(1)
.LVL49:
	addi 1,1,16
	.cfi_restore 30
	.cfi_restore 31
.LCFI23:
	.cfi_def_cfa_offset 0
	blr
	.cfi_endproc
.LFE555:
	.size	_ZN16CFilesExtensions7SetFontEPKc, .-_ZN16CFilesExtensions7SetFontEPKc
	.align 2
	.globl _ZN16CFilesExtensions16SetLanguageFilesEPKc
	.type	_ZN16CFilesExtensions16SetLanguageFilesEPKc, @function
_ZN16CFilesExtensions16SetLanguageFilesEPKc:
.LFB556:
	.loc 1 176 0
	.cfi_startproc
.LVL50:
	mflr 0
	stwu 1,-16(1)
.LCFI24:
	.cfi_def_cfa_offset 16
	.cfi_register 65, 0
	stw 31,12(1)
	mr 31,3
	.cfi_offset 31, -4
	stw 0,20(1)
	stw 30,8(1)
	.loc 1 176 0
	mr 30,4
	.cfi_offset 30, -8
	.cfi_offset 65, 4
	.loc 1 177 0
	lwz 3,20(3)
.LVL51:
	cmpwi 7,3,0
	beq- 7,.L42
	.loc 1 178 0
	bl free
.LVL52:
.L42:
	.loc 1 180 0
	cmpwi 7,30,0
	beq- 7,.L45
	.loc 1 186 0
	mr 3,30
	bl strdup
	.loc 1 187 0
	lwz 0,20(1)
	.loc 1 186 0
	stw 3,20(31)
	.loc 1 187 0
	mtlr 0
	lwz 30,8(1)
.LVL53:
	lwz 31,12(1)
.LVL54:
	addi 1,1,16
	.cfi_remember_state
.LCFI25:
	.cfi_def_cfa_offset 0
	.cfi_restore 31
	.cfi_restore 30
	blr
.LVL55:
.L45:
.LCFI26:
	.cfi_restore_state
	lwz 0,20(1)
	.loc 1 182 0
	stw 30,20(31)
	.loc 1 187 0
	mtlr 0
	lwz 30,8(1)
.LVL56:
	lwz 31,12(1)
.LVL57:
	addi 1,1,16
	.cfi_restore 30
	.cfi_restore 31
.LCFI27:
	.cfi_def_cfa_offset 0
	blr
	.cfi_endproc
.LFE556:
	.size	_ZN16CFilesExtensions16SetLanguageFilesEPKc, .-_ZN16CFilesExtensions16SetLanguageFilesEPKc
	.align 2
	.globl _ZN16CFilesExtensions13SetThemeFilesEPKc
	.type	_ZN16CFilesExtensions13SetThemeFilesEPKc, @function
_ZN16CFilesExtensions13SetThemeFilesEPKc:
.LFB557:
	.loc 1 190 0
	.cfi_startproc
.LVL58:
	mflr 0
	stwu 1,-16(1)
.LCFI28:
	.cfi_def_cfa_offset 16
	.cfi_register 65, 0
	stw 31,12(1)
	mr 31,3
	.cfi_offset 31, -4
	stw 0,20(1)
	stw 30,8(1)
	.loc 1 190 0
	mr 30,4
	.cfi_offset 30, -8
	.cfi_offset 65, 4
	.loc 1 191 0
	lwz 3,24(3)
.LVL59:
	cmpwi 7,3,0
	beq- 7,.L47
	.loc 1 192 0
	bl free
.LVL60:
.L47:
	.loc 1 194 0
	cmpwi 7,30,0
	beq- 7,.L50
	.loc 1 200 0
	mr 3,30
	bl strdup
	.loc 1 201 0
	lwz 0,20(1)
	.loc 1 200 0
	stw 3,24(31)
	.loc 1 201 0
	mtlr 0
	lwz 30,8(1)
.LVL61:
	lwz 31,12(1)
.LVL62:
	addi 1,1,16
	.cfi_remember_state
.LCFI29:
	.cfi_def_cfa_offset 0
	.cfi_restore 31
	.cfi_restore 30
	blr
.LVL63:
.L50:
.LCFI30:
	.cfi_restore_state
	lwz 0,20(1)
	.loc 1 196 0
	stw 30,24(31)
	.loc 1 201 0
	mtlr 0
	lwz 30,8(1)
.LVL64:
	lwz 31,12(1)
.LVL65:
	addi 1,1,16
	.cfi_restore 30
	.cfi_restore 31
.LCFI31:
	.cfi_def_cfa_offset 0
	blr
	.cfi_endproc
.LFE557:
	.size	_ZN16CFilesExtensions13SetThemeFilesEPKc, .-_ZN16CFilesExtensions13SetThemeFilesEPKc
	.align 2
	.globl _ZN16CFilesExtensions11SetMiiFilesEPKc
	.type	_ZN16CFilesExtensions11SetMiiFilesEPKc, @function
_ZN16CFilesExtensions11SetMiiFilesEPKc:
.LFB558:
	.loc 1 204 0
	.cfi_startproc
.LVL66:
	mflr 0
	stwu 1,-16(1)
.LCFI32:
	.cfi_def_cfa_offset 16
	.cfi_register 65, 0
	stw 31,12(1)
	mr 31,3
	.cfi_offset 31, -4
	stw 0,20(1)
	stw 30,8(1)
	.loc 1 204 0
	mr 30,4
	.cfi_offset 30, -8
	.cfi_offset 65, 4
	.loc 1 205 0
	lwz 3,28(3)
.LVL67:
	cmpwi 7,3,0
	beq- 7,.L52
	.loc 1 206 0
	bl free
.LVL68:
.L52:
	.loc 1 208 0
	cmpwi 7,30,0
	beq- 7,.L55
	.loc 1 214 0
	mr 3,30
	bl strdup
	.loc 1 215 0
	lwz 0,20(1)
	.loc 1 214 0
	stw 3,28(31)
	.loc 1 215 0
	mtlr 0
	lwz 30,8(1)
.LVL69:
	lwz 31,12(1)
.LVL70:
	addi 1,1,16
	.cfi_remember_state
.LCFI33:
	.cfi_def_cfa_offset 0
	.cfi_restore 31
	.cfi_restore 30
	blr
.LVL71:
.L55:
.LCFI34:
	.cfi_restore_state
	lwz 0,20(1)
	.loc 1 210 0
	stw 30,28(31)
	.loc 1 215 0
	mtlr 0
	lwz 30,8(1)
.LVL72:
	lwz 31,12(1)
.LVL73:
	addi 1,1,16
	.cfi_restore 30
	.cfi_restore 31
.LCFI35:
	.cfi_def_cfa_offset 0
	blr
	.cfi_endproc
.LFE558:
	.size	_ZN16CFilesExtensions11SetMiiFilesEPKc, .-_ZN16CFilesExtensions11SetMiiFilesEPKc
	.align 2
	.globl _ZN16CFilesExtensions14SetBinaryFilesEPKc
	.type	_ZN16CFilesExtensions14SetBinaryFilesEPKc, @function
_ZN16CFilesExtensions14SetBinaryFilesEPKc:
.LFB559:
	.loc 1 218 0
	.cfi_startproc
.LVL74:
	mflr 0
	stwu 1,-16(1)
.LCFI36:
	.cfi_def_cfa_offset 16
	.cfi_register 65, 0
	stw 31,12(1)
	mr 31,3
	.cfi_offset 31, -4
	stw 0,20(1)
	stw 30,8(1)
	.loc 1 218 0
	mr 30,4
	.cfi_offset 30, -8
	.cfi_offset 65, 4
	.loc 1 219 0
	lwz 3,32(3)
.LVL75:
	cmpwi 7,3,0
	beq- 7,.L57
	.loc 1 220 0
	bl free
.LVL76:
.L57:
	.loc 1 222 0
	cmpwi 7,30,0
	beq- 7,.L60
	.loc 1 228 0
	mr 3,30
	bl strdup
	.loc 1 229 0
	lwz 0,20(1)
	.loc 1 228 0
	stw 3,32(31)
	.loc 1 229 0
	mtlr 0
	lwz 30,8(1)
.LVL77:
	lwz 31,12(1)
.LVL78:
	addi 1,1,16
	.cfi_remember_state
.LCFI37:
	.cfi_def_cfa_offset 0
	.cfi_restore 31
	.cfi_restore 30
	blr
.LVL79:
.L60:
.LCFI38:
	.cfi_restore_state
	lwz 0,20(1)
	.loc 1 224 0
	stw 30,32(31)
	.loc 1 229 0
	mtlr 0
	lwz 30,8(1)
.LVL80:
	lwz 31,12(1)
.LVL81:
	addi 1,1,16
	.cfi_restore 30
	.cfi_restore 31
.LCFI39:
	.cfi_def_cfa_offset 0
	blr
	.cfi_endproc
.LFE559:
	.size	_ZN16CFilesExtensions14SetBinaryFilesEPKc, .-_ZN16CFilesExtensions14SetBinaryFilesEPKc
	.align 2
	.globl _ZN16CFilesExtensions12CompareAudioEPKc
	.type	_ZN16CFilesExtensions12CompareAudioEPKc, @function
_ZN16CFilesExtensions12CompareAudioEPKc:
.LFB560:
	.loc 1 232 0
	.cfi_startproc
.LVL82:
	mflr 0
	stwu 1,-8(1)
.LCFI40:
	.cfi_def_cfa_offset 8
	.cfi_register 65, 0
	mr 9,3
	.loc 1 234 0
	li 3,-1
.LVL83:
	.loc 1 232 0
	stw 0,12(1)
	.loc 1 233 0
	mr. 0,4
	.cfi_offset 65, 4
	beq- 0,.L62
.LVL84:
	.loc 1 233 0 is_stmt 0 discriminator 1
	lwz 4,0(9)
	cmpwi 7,4,0
	beq- 7,.L62
	.loc 1 236 0 is_stmt 1
	lis 5,.LC9@ha
	mr 3,0
	la 5,.LC9@l(5)
	bl _Z9strtokcmpPKcS0_S0_
.LVL85:
.L62:
	.loc 1 237 0
	lwz 0,12(1)
	addi 1,1,8
.LCFI41:
	.cfi_def_cfa_offset 0
	mtlr 0
	blr
	.cfi_endproc
.LFE560:
	.size	_ZN16CFilesExtensions12CompareAudioEPKc, .-_ZN16CFilesExtensions12CompareAudioEPKc
	.align 2
	.globl _ZN16CFilesExtensions12CompareImageEPKc
	.type	_ZN16CFilesExtensions12CompareImageEPKc, @function
_ZN16CFilesExtensions12CompareImageEPKc:
.LFB561:
	.loc 1 240 0
	.cfi_startproc
.LVL86:
	mflr 0
	stwu 1,-8(1)
.LCFI42:
	.cfi_def_cfa_offset 8
	.cfi_register 65, 0
	mr 9,3
	.loc 1 242 0
	li 3,-1
.LVL87:
	.loc 1 240 0
	stw 0,12(1)
	.loc 1 241 0
	mr. 0,4
	.cfi_offset 65, 4
	beq- 0,.L66
.LVL88:
	.loc 1 241 0 is_stmt 0 discriminator 1
	lwz 4,4(9)
	cmpwi 7,4,0
	beq- 7,.L66
	.loc 1 244 0 is_stmt 1
	lis 5,.LC9@ha
	mr 3,0
	la 5,.LC9@l(5)
	bl _Z9strtokcmpPKcS0_S0_
.LVL89:
.L66:
	.loc 1 245 0
	lwz 0,12(1)
	addi 1,1,8
.LCFI43:
	.cfi_def_cfa_offset 0
	mtlr 0
	blr
	.cfi_endproc
.LFE561:
	.size	_ZN16CFilesExtensions12CompareImageEPKc, .-_ZN16CFilesExtensions12CompareImageEPKc
	.align 2
	.globl _ZN16CFilesExtensions14CompareArchiveEPKc
	.type	_ZN16CFilesExtensions14CompareArchiveEPKc, @function
_ZN16CFilesExtensions14CompareArchiveEPKc:
.LFB562:
	.loc 1 248 0
	.cfi_startproc
.LVL90:
	mflr 0
	stwu 1,-8(1)
.LCFI44:
	.cfi_def_cfa_offset 8
	.cfi_register 65, 0
	mr 9,3
	.loc 1 250 0
	li 3,-1
.LVL91:
	.loc 1 248 0
	stw 0,12(1)
	.loc 1 249 0
	mr. 0,4
	.cfi_offset 65, 4
	beq- 0,.L70
.LVL92:
	.loc 1 249 0 is_stmt 0 discriminator 1
	lwz 4,8(9)
	cmpwi 7,4,0
	beq- 7,.L70
	.loc 1 252 0 is_stmt 1
	lis 5,.LC9@ha
	mr 3,0
	la 5,.LC9@l(5)
	bl _Z9strtokcmpPKcS0_S0_
.LVL93:
.L70:
	.loc 1 253 0
	lwz 0,12(1)
	addi 1,1,8
.LCFI45:
	.cfi_def_cfa_offset 0
	mtlr 0
	blr
	.cfi_endproc
.LFE562:
	.size	_ZN16CFilesExtensions14CompareArchiveEPKc, .-_ZN16CFilesExtensions14CompareArchiveEPKc
	.align 2
	.globl _ZN16CFilesExtensions15CompareHomebrewEPKc
	.type	_ZN16CFilesExtensions15CompareHomebrewEPKc, @function
_ZN16CFilesExtensions15CompareHomebrewEPKc:
.LFB563:
	.loc 1 256 0
	.cfi_startproc
.LVL94:
	mflr 0
	stwu 1,-8(1)
.LCFI46:
	.cfi_def_cfa_offset 8
	.cfi_register 65, 0
	mr 9,3
	.loc 1 258 0
	li 3,-1
.LVL95:
	.loc 1 256 0
	stw 0,12(1)
	.loc 1 257 0
	mr. 0,4
	.cfi_offset 65, 4
	beq- 0,.L74
.LVL96:
	.loc 1 257 0 is_stmt 0 discriminator 1
	lwz 4,12(9)
	cmpwi 7,4,0
	beq- 7,.L74
	.loc 1 260 0 is_stmt 1
	lis 5,.LC9@ha
	mr 3,0
	la 5,.LC9@l(5)
	bl _Z9strtokcmpPKcS0_S0_
.LVL97:
.L74:
	.loc 1 261 0
	lwz 0,12(1)
	addi 1,1,8
.LCFI47:
	.cfi_def_cfa_offset 0
	mtlr 0
	blr
	.cfi_endproc
.LFE563:
	.size	_ZN16CFilesExtensions15CompareHomebrewEPKc, .-_ZN16CFilesExtensions15CompareHomebrewEPKc
	.align 2
	.globl _ZN16CFilesExtensions11CompareFontEPKc
	.type	_ZN16CFilesExtensions11CompareFontEPKc, @function
_ZN16CFilesExtensions11CompareFontEPKc:
.LFB564:
	.loc 1 264 0
	.cfi_startproc
.LVL98:
	mflr 0
	stwu 1,-8(1)
.LCFI48:
	.cfi_def_cfa_offset 8
	.cfi_register 65, 0
	mr 9,3
	.loc 1 266 0
	li 3,-1
.LVL99:
	.loc 1 264 0
	stw 0,12(1)
	.loc 1 265 0
	mr. 0,4
	.cfi_offset 65, 4
	beq- 0,.L78
.LVL100:
	.loc 1 265 0 is_stmt 0 discriminator 1
	lwz 4,16(9)
	cmpwi 7,4,0
	beq- 7,.L78
	.loc 1 268 0 is_stmt 1
	lis 5,.LC9@ha
	mr 3,0
	la 5,.LC9@l(5)
	bl _Z9strtokcmpPKcS0_S0_
.LVL101:
.L78:
	.loc 1 269 0
	lwz 0,12(1)
	addi 1,1,8
.LCFI49:
	.cfi_def_cfa_offset 0
	mtlr 0
	blr
	.cfi_endproc
.LFE564:
	.size	_ZN16CFilesExtensions11CompareFontEPKc, .-_ZN16CFilesExtensions11CompareFontEPKc
	.align 2
	.globl _ZN16CFilesExtensions20CompareLanguageFilesEPKc
	.type	_ZN16CFilesExtensions20CompareLanguageFilesEPKc, @function
_ZN16CFilesExtensions20CompareLanguageFilesEPKc:
.LFB565:
	.loc 1 272 0
	.cfi_startproc
.LVL102:
	mflr 0
	stwu 1,-8(1)
.LCFI50:
	.cfi_def_cfa_offset 8
	.cfi_register 65, 0
	mr 9,3
	.loc 1 274 0
	li 3,-1
.LVL103:
	.loc 1 272 0
	stw 0,12(1)
	.loc 1 273 0
	mr. 0,4
	.cfi_offset 65, 4
	beq- 0,.L82
.LVL104:
	.loc 1 273 0 is_stmt 0 discriminator 1
	lwz 4,20(9)
	cmpwi 7,4,0
	beq- 7,.L82
	.loc 1 276 0 is_stmt 1
	lis 5,.LC9@ha
	mr 3,0
	la 5,.LC9@l(5)
	bl _Z9strtokcmpPKcS0_S0_
.LVL105:
.L82:
	.loc 1 277 0
	lwz 0,12(1)
	addi 1,1,8
.LCFI51:
	.cfi_def_cfa_offset 0
	mtlr 0
	blr
	.cfi_endproc
.LFE565:
	.size	_ZN16CFilesExtensions20CompareLanguageFilesEPKc, .-_ZN16CFilesExtensions20CompareLanguageFilesEPKc
	.align 2
	.globl _ZN16CFilesExtensions17CompareThemeFilesEPKc
	.type	_ZN16CFilesExtensions17CompareThemeFilesEPKc, @function
_ZN16CFilesExtensions17CompareThemeFilesEPKc:
.LFB566:
	.loc 1 280 0
	.cfi_startproc
.LVL106:
	mflr 0
	stwu 1,-8(1)
.LCFI52:
	.cfi_def_cfa_offset 8
	.cfi_register 65, 0
	mr 9,3
	.loc 1 282 0
	li 3,-1
.LVL107:
	.loc 1 280 0
	stw 0,12(1)
	.loc 1 281 0
	mr. 0,4
	.cfi_offset 65, 4
	beq- 0,.L86
.LVL108:
	.loc 1 281 0 is_stmt 0 discriminator 1
	lwz 4,24(9)
	cmpwi 7,4,0
	beq- 7,.L86
	.loc 1 284 0 is_stmt 1
	lis 5,.LC9@ha
	mr 3,0
	la 5,.LC9@l(5)
	bl _Z9strtokcmpPKcS0_S0_
.LVL109:
.L86:
	.loc 1 285 0
	lwz 0,12(1)
	addi 1,1,8
.LCFI53:
	.cfi_def_cfa_offset 0
	mtlr 0
	blr
	.cfi_endproc
.LFE566:
	.size	_ZN16CFilesExtensions17CompareThemeFilesEPKc, .-_ZN16CFilesExtensions17CompareThemeFilesEPKc
	.align 2
	.globl _ZN16CFilesExtensions15CompareMiiFilesEPKc
	.type	_ZN16CFilesExtensions15CompareMiiFilesEPKc, @function
_ZN16CFilesExtensions15CompareMiiFilesEPKc:
.LFB567:
	.loc 1 288 0
	.cfi_startproc
.LVL110:
	mflr 0
	stwu 1,-8(1)
.LCFI54:
	.cfi_def_cfa_offset 8
	.cfi_register 65, 0
	mr 9,3
	.loc 1 290 0
	li 3,-1
.LVL111:
	.loc 1 288 0
	stw 0,12(1)
	.loc 1 289 0
	mr. 0,4
	.cfi_offset 65, 4
	beq- 0,.L90
.LVL112:
	.loc 1 289 0 is_stmt 0 discriminator 1
	lwz 4,28(9)
	cmpwi 7,4,0
	beq- 7,.L90
	.loc 1 292 0 is_stmt 1
	lis 5,.LC9@ha
	mr 3,0
	la 5,.LC9@l(5)
	bl _Z9strtokcmpPKcS0_S0_
.LVL113:
.L90:
	.loc 1 293 0
	lwz 0,12(1)
	addi 1,1,8
.LCFI55:
	.cfi_def_cfa_offset 0
	mtlr 0
	blr
	.cfi_endproc
.LFE567:
	.size	_ZN16CFilesExtensions15CompareMiiFilesEPKc, .-_ZN16CFilesExtensions15CompareMiiFilesEPKc
	.align 2
	.globl _ZN16CFilesExtensions18CompareBinaryFilesEPKc
	.type	_ZN16CFilesExtensions18CompareBinaryFilesEPKc, @function
_ZN16CFilesExtensions18CompareBinaryFilesEPKc:
.LFB568:
	.loc 1 296 0
	.cfi_startproc
.LVL114:
	mflr 0
	stwu 1,-8(1)
.LCFI56:
	.cfi_def_cfa_offset 8
	.cfi_register 65, 0
	mr 9,3
	.loc 1 298 0
	li 3,-1
.LVL115:
	.loc 1 296 0
	stw 0,12(1)
	.loc 1 297 0
	mr. 0,4
	.cfi_offset 65, 4
	beq- 0,.L94
.LVL116:
	.loc 1 297 0 is_stmt 0 discriminator 1
	lwz 4,32(9)
	cmpwi 7,4,0
	beq- 7,.L94
	.loc 1 300 0 is_stmt 1
	lis 5,.LC9@ha
	mr 3,0
	la 5,.LC9@l(5)
	bl _Z9strtokcmpPKcS0_S0_
.LVL117:
.L94:
	.loc 1 301 0
	lwz 0,12(1)
	addi 1,1,8
.LCFI57:
	.cfi_def_cfa_offset 0
	mtlr 0
	blr
	.cfi_endproc
.LFE568:
	.size	_ZN16CFilesExtensions18CompareBinaryFilesEPKc, .-_ZN16CFilesExtensions18CompareBinaryFilesEPKc
	.globl _ZN16CFilesExtensionsD1Ev
	.set	_ZN16CFilesExtensionsD1Ev,_ZN16CFilesExtensionsD2Ev
	.globl _ZN16CFilesExtensionsC1Ev
	.set	_ZN16CFilesExtensionsC1Ev,_ZN16CFilesExtensionsC2Ev
	.section	.rodata.str1.4,"aMS",@progbits,1
	.align 2
.LC0:
	.string	".mp3,.ogg,.wav,.pcm,.aif"
	.zero	3
.LC1:
	.string	".png,.jpg,.jpeg,.jpe,.jfif,.bmp,.gif,.tga,.tif,.gd,.tpl"
.LC2:
	.string	".7z,.zip,.rar"
	.zero	2
.LC3:
	.string	".elf,.dol"
	.zero	2
.LC4:
	.string	".ttf"
	.zero	3
.LC5:
	.string	".lang"
	.zero	2
.LC6:
	.string	".them"
	.zero	2
.LC7:
	.string	".miigx"
	.zero	1
.LC8:
	.string	".bin"
	.zero	3
.LC9:
	.string	","
	.section	".text"
.Letext0:
	.file 2 "d:\\devkitpro\\devkitppc\\bin\\../lib/gcc/powerpc-eabi/4.6.3/../../../../powerpc-eabi/include/machine/_types.h"
	.file 3 "d:\\devkitpro\\devkitppc\\bin\\../lib/gcc/powerpc-eabi/4.6.3/../../../../powerpc-eabi/include/sys/lock.h"
	.file 4 "d:\\devkitpro\\devkitppc\\bin\\../lib/gcc/powerpc-eabi/4.6.3/include/stddef.h"
	.file 5 "d:\\devkitpro\\devkitppc\\bin\\../lib/gcc/powerpc-eabi/4.6.3/../../../../powerpc-eabi/include/sys/_types.h"
	.file 6 "d:\\devkitpro\\devkitppc\\bin\\../lib/gcc/powerpc-eabi/4.6.3/../../../../powerpc-eabi/include/sys/reent.h"
	.file 7 "d:/Projects/SaveGameManager/savegame-manager-gx/trunk/source/FileOperations/FileExtensions.h"
	.file 8 "d:\\devkitpro\\devkitppc\\bin\\../lib/gcc/powerpc-eabi/4.6.3/../../../../powerpc-eabi/include/c++/4.6.3/cwchar"
	.file 9 "d:\\devkitpro\\devkitppc\\bin\\../lib/gcc/powerpc-eabi/4.6.3/../../../../powerpc-eabi/include/c++/4.6.3/powerpc-eabi/bits/c++config.h"
	.file 10 "d:\\devkitpro\\devkitppc\\bin\\../lib/gcc/powerpc-eabi/4.6.3/../../../../powerpc-eabi/include/c++/4.6.3/clocale"
	.file 11 "d:\\devkitpro\\devkitppc\\bin\\../lib/gcc/powerpc-eabi/4.6.3/../../../../powerpc-eabi/include/c++/4.6.3/ext/new_allocator.h"
	.file 12 "d:\\devkitpro\\devkitppc\\bin\\../lib/gcc/powerpc-eabi/4.6.3/../../../../powerpc-eabi/include/c++/4.6.3/bits/cpp_type_traits.h"
	.file 13 "d:\\devkitpro\\devkitppc\\bin\\../lib/gcc/powerpc-eabi/4.6.3/../../../../powerpc-eabi/include/c++/4.6.3/debug/debug.h"
	.file 14 "<built-in>"
	.file 15 "d:\\devkitpro\\devkitppc\\bin\\../lib/gcc/powerpc-eabi/4.6.3/../../../../powerpc-eabi/include/wchar.h"
	.file 16 "d:\\devkitpro\\devkitppc\\bin\\../lib/gcc/powerpc-eabi/4.6.3/../../../../powerpc-eabi/include/locale.h"
	.file 17 "d:\\devkitpro\\devkitppc\\bin\\../lib/gcc/powerpc-eabi/4.6.3/../../../../powerpc-eabi/include/c++/4.6.3/ext/numeric_traits.h"