   1              		.file	"filebrowser.cpp"
   2              		.section	".text"
   3              	.Ltext0:
   4              		.section	.text._ZN7BrowserD2Ev,"axG",@progbits,_ZN7BrowserD5Ev,comdat
   5              		.align 2
   6              		.weak	_ZN7BrowserD2Ev
   7              		.type	_ZN7BrowserD2Ev, @function
   8              	_ZN7BrowserD2Ev:
   9              	.LFB1561:
  10              		.file 1 "d:/Projects/SaveGameManager/savegame-manager-gx/trunk/source/Files/Browser.hpp"
  11              		.loc 1 43 0
  12              		.cfi_startproc
  13              	.LVL0:
  14              	.LBB2204:
  15              		.loc 1 43 0
  16 0000 3D200000 		lis 9,_ZTV7Browser+8@ha
  17              	.LBE2204:
  18              	.LBB2205:
  19 0004 38090008 		la 0,_ZTV7Browser+8@l(9)
  20 0008 90030000 		stw 0,0(3)
  21              	.LBE2205:
  22 000c 4E800020 		blr
  23              		.cfi_endproc
  24              	.LFE1561:
  25              		.size	_ZN7BrowserD2Ev, .-_ZN7BrowserD2Ev
  26              		.section	.text._ZN7Browser10BrowsePathESs,"axG",@progbits,_ZN7Browser10BrowsePathESs,comdat
  27              		.align 2
  28              		.weak	_ZN7Browser10BrowsePathESs
  29              		.type	_ZN7Browser10BrowsePathESs, @function
  30              	_ZN7Browser10BrowsePathESs:
  31              	.LFB1564:
  32              		.loc 1 44 0
  33              		.cfi_startproc
  34              	.LVL1:
  35              		.loc 1 44 0
  36 0000 38600000 		li 3,0
  37              	.LVL2:
  38 0004 4E800020 		blr
  39              		.cfi_endproc
  40              	.LFE1564:
  41              		.size	_ZN7Browser10BrowsePathESs, .-_ZN7Browser10BrowsePathESs
  42              		.section	.text._ZN7Browser12GetPageIndexEv,"axG",@progbits,_ZN7Browser12GetPageIndexEv,comdat
  43              		.align 2
  44              		.weak	_ZN7Browser12GetPageIndexEv
  45              		.type	_ZN7Browser12GetPageIndexEv, @function
  46              	_ZN7Browser12GetPageIndexEv:
  47              	.LFB1565:
  48              		.loc 1 45 0
  49              		.cfi_startproc
  50              	.LVL3:
  51              		.loc 1 45 0
  52 0000 38600000 		li 3,0
  53              	.LVL4:
  54 0004 4E800020 		blr
  55              		.cfi_endproc
  56              	.LFE1565:
  57              		.size	_ZN7Browser12GetPageIndexEv, .-_ZN7Browser12GetPageIndexEv
  58              		.section	.text._ZN7Browser11GetSelIndexEv,"axG",@progbits,_ZN7Browser11GetSelIndexEv,comdat
  59              		.align 2
  60              		.weak	_ZN7Browser11GetSelIndexEv
  61              		.type	_ZN7Browser11GetSelIndexEv, @function
  62              	_ZN7Browser11GetSelIndexEv:
  63              	.LFB1566:
  64              		.loc 1 46 0
  65              		.cfi_startproc
  66              	.LVL5:
  67              		.loc 1 46 0
  68 0000 38600000 		li 3,0
  69              	.LVL6:
  70 0004 4E800020 		blr
  71              		.cfi_endproc
  72              	.LFE1566:
  73              		.size	_ZN7Browser11GetSelIndexEv, .-_ZN7Browser11GetSelIndexEv
  74              		.section	.text._ZN7Browser12SetPageIndexEi,"axG",@progbits,_ZN7Browser12SetPageIndexEi,comdat
  75              		.align 2
  76              		.weak	_ZN7Browser12SetPageIndexEi
  77              		.type	_ZN7Browser12SetPageIndexEi, @function
  78              	_ZN7Browser12SetPageIndexEi:
  79              	.LFB1567:
  80              		.loc 1 47 0
  81              		.cfi_startproc
  82              	.LVL7:
  83              		.loc 1 47 0
  84 0000 4E800020 		blr
  85              		.cfi_endproc
  86              	.LFE1567:
  87              		.size	_ZN7Browser12SetPageIndexEi, .-_ZN7Browser12SetPageIndexEi
  88              		.section	.text._ZN7Browser16SetSelectedIndexEi,"axG",@progbits,_ZN7Browser16SetSelectedIndexEi,com
  89              		.align 2
  90              		.weak	_ZN7Browser16SetSelectedIndexEi
  91              		.type	_ZN7Browser16SetSelectedIndexEi, @function
  92              	_ZN7Browser16SetSelectedIndexEi:
  93              	.LFB1568:
  94              		.loc 1 48 0
  95              		.cfi_startproc
  96              	.LVL8:
  97              		.loc 1 48 0
  98 0000 4E800020 		blr
  99              		.cfi_endproc
 100              	.LFE1568:
 101              		.size	_ZN7Browser16SetSelectedIndexEi, .-_ZN7Browser16SetSelectedIndexEi
 102              		.section	.text._ZN7Browser14GetEntrieCountEv,"axG",@progbits,_ZN7Browser14GetEntrieCountEv,comdat
 103              		.align 2
 104              		.weak	_ZN7Browser14GetEntrieCountEv
 105              		.type	_ZN7Browser14GetEntrieCountEv, @function
 106              	_ZN7Browser14GetEntrieCountEv:
 107              	.LFB1569:
 108              		.loc 1 49 0
 109              		.cfi_startproc
 110              	.LVL9:
 111              		.loc 1 49 0
 112 0000 38600000 		li 3,0
 113              	.LVL10:
 114 0004 4E800020 		blr
 115              		.cfi_endproc
 116              	.LFE1569:
 117              		.size	_ZN7Browser14GetEntrieCountEv, .-_ZN7Browser14GetEntrieCountEv
 118              		.section	.text._ZN7Browser13IsGettingListEv,"axG",@progbits,_ZN7Browser13IsGettingListEv,comdat
 119              		.align 2
 120              		.weak	_ZN7Browser13IsGettingListEv
 121              		.type	_ZN7Browser13IsGettingListEv, @function
 122              	_ZN7Browser13IsGettingListEv:
 123              	.LFB1570:
 124              		.loc 1 50 0
 125              		.cfi_startproc
 126              	.LVL11:
 127              		.loc 1 50 0
 128 0000 38600000 		li 3,0
 129              	.LVL12:
 130 0004 4E800020 		blr
 131              		.cfi_endproc
 132              	.LFE1570:
 133              		.size	_ZN7Browser13IsGettingListEv, .-_ZN7Browser13IsGettingListEv
 134              		.section	.text._ZN7Browser11ListChangedEv,"axG",@progbits,_ZN7Browser11ListChangedEv,comdat
 135              		.align 2
 136              		.weak	_ZN7Browser11ListChangedEv
 137              		.type	_ZN7Browser11ListChangedEv, @function
 138              	_ZN7Browser11ListChangedEv:
 139              	.LFB1571:
 140              		.loc 1 51 0
 141              		.cfi_startproc
 142              	.LVL13:
 143              		.loc 1 51 0
 144 0000 38600000 		li 3,0
 145              	.LVL14:
 146 0004 4E800020 		blr
 147              		.cfi_endproc
 148              	.LFE1571:
 149              		.size	_ZN7Browser11ListChangedEv, .-_ZN7Browser11ListChangedEv
 150              		.section	.text._ZN7Browser7RefreshEv,"axG",@progbits,_ZN7Browser7RefreshEv,comdat
 151              		.align 2
 152              		.weak	_ZN7Browser7RefreshEv
 153              		.type	_ZN7Browser7RefreshEv, @function
 154              	_ZN7Browser7RefreshEv:
 155              	.LFB1572:
 156              		.loc 1 52 0
 157              		.cfi_startproc
 158              	.LVL15:
 159              		.loc 1 52 0
 160 0000 4E800020 		blr
 161              		.cfi_endproc
 162              	.LFE1572:
 163              		.size	_ZN7Browser7RefreshEv, .-_ZN7Browser7RefreshEv
 164              		.section	.text._ZN7Browser5IsDirEi,"axG",@progbits,_ZN7Browser5IsDirEi,comdat
 165              		.align 2
 166              		.weak	_ZN7Browser5IsDirEi
 167              		.type	_ZN7Browser5IsDirEi, @function
 168              	_ZN7Browser5IsDirEi:
 169              	.LFB1573:
 170              		.loc 1 53 0
 171              		.cfi_startproc
 172              	.LVL16:
 173              		.loc 1 53 0
 174 0000 38600001 		li 3,1
 175              	.LVL17:
 176 0004 4E800020 		blr
 177              		.cfi_endproc
 178              	.LFE1573:
 179              		.size	_ZN7Browser5IsDirEi, .-_ZN7Browser5IsDirEi
 180              		.section	.text._ZN7Browser6IsSaveEi,"axG",@progbits,_ZN7Browser6IsSaveEi,comdat
 181              		.align 2
 182              		.weak	_ZN7Browser6IsSaveEi
 183              		.type	_ZN7Browser6IsSaveEi, @function
 184              	_ZN7Browser6IsSaveEi:
 185              	.LFB1574:
 186              		.loc 1 54 0
 187              		.cfi_startproc
 188              	.LVL18:
 189              		.loc 1 54 0
 190 0000 38600001 		li 3,1
 191              	.LVL19:
 192 0004 4E800020 		blr
 193              		.cfi_endproc
 194              	.LFE1574:
 195              		.size	_ZN7Browser6IsSaveEi, .-_ZN7Browser6IsSaveEi
 196              		.section	.text._ZN7Browser9IsDataBinEi,"axG",@progbits,_ZN7Browser9IsDataBinEi,comdat
 197              		.align 2
 198              		.weak	_ZN7Browser9IsDataBinEi
 199              		.type	_ZN7Browser9IsDataBinEi, @function
 200              	_ZN7Browser9IsDataBinEi:
 201              	.LFB1575:
 202              		.loc 1 55 0
 203              		.cfi_startproc
 204              	.LVL20:
 205              		.loc 1 55 0
 206 0000 38600001 		li 3,1
 207              	.LVL21:
 208 0004 4E800020 		blr
 209              		.cfi_endproc
 210              	.LFE1575:
 211              		.size	_ZN7Browser9IsDataBinEi, .-_ZN7Browser9IsDataBinEi
 212              		.section	.text._ZN7Browser5IsMiiEi,"axG",@progbits,_ZN7Browser5IsMiiEi,comdat
 213              		.align 2
 214              		.weak	_ZN7Browser5IsMiiEi
 215              		.type	_ZN7Browser5IsMiiEi, @function
 216              	_ZN7Browser5IsMiiEi:
 217              	.LFB1576:
 218              		.loc 1 56 0
 219              		.cfi_startproc
 220              	.LVL22:
 221              		.loc 1 56 0
 222 0000 38600001 		li 3,1
 223              	.LVL23:
 224 0004 4E800020 		blr
 225              		.cfi_endproc
 226              	.LFE1576:
 227              		.size	_ZN7Browser5IsMiiEi, .-_ZN7Browser5IsMiiEi
 228              		.section	.text._ZN7Browser12IsCurrentDirEv,"axG",@progbits,_ZN7Browser12IsCurrentDirEv,comdat
 229              		.align 2
 230              		.weak	_ZN7Browser12IsCurrentDirEv
 231              		.type	_ZN7Browser12IsCurrentDirEv, @function
 232              	_ZN7Browser12IsCurrentDirEv:
 233              	.LFB1577:
 234              		.loc 1 57 0
 235              		.cfi_startproc
 236              	.LVL24:
 237 0000 7C0802A6 		mflr 0
 238 0004 9421FFF0 		stwu 1,-16(1)
 239              	.LCFI0:
 240              		.cfi_def_cfa_offset 16
 241              		.cfi_register 65, 0
 242 0008 93C10008 		stw 30,8(1)
 243 000c 7C7E1B78 		mr 30,3
 244              		.cfi_offset 30, -8
 245 0010 90010014 		stw 0,20(1)
 246 0014 93E1000C 		stw 31,12(1)
 247              		.loc 1 57 0
 248 0018 81230000 		lwz 9,0(3)
 249 001c 80090010 		lwz 0,16(9)
 250              		.cfi_offset 31, -4
 251              		.cfi_offset 65, 4
 252 0020 83E9002C 		lwz 31,44(9)
 253 0024 7C0903A6 		mtctr 0
 254 0028 4E800421 		bctrl
 255              	.LVL25:
 256 002c 7FE903A6 		mtctr 31
 257 0030 7C641B78 		mr 4,3
 258 0034 7FC3F378 		mr 3,30
 259 0038 4E800421 		bctrl
 260 003c 80010014 		lwz 0,20(1)
 261 0040 83C10008 		lwz 30,8(1)
 262              	.LVL26:
 263 0044 7C0803A6 		mtlr 0
 264 0048 83E1000C 		lwz 31,12(1)
 265 004c 38210010 		addi 1,1,16
 266              	.LCFI1:
 267              		.cfi_def_cfa_offset 0
 268              		.cfi_restore 31
 269              		.cfi_restore 30
 270 0050 4E800020 		blr
 271              		.cfi_endproc
 272              	.LFE1577:
 273              		.size	_ZN7Browser12IsCurrentDirEv, .-_ZN7Browser12IsCurrentDirEv
 274              		.section	.text._ZN7Browser11GetFilesizeEi,"axG",@progbits,_ZN7Browser11GetFilesizeEi,comdat
 275              		.align 2
 276              		.weak	_ZN7Browser11GetFilesizeEi
 277              		.type	_ZN7Browser11GetFilesizeEi, @function
 278              	_ZN7Browser11GetFilesizeEi:
 279              	.LFB1583:
 280              		.loc 1 63 0
 281              		.cfi_startproc
 282              	.LVL27:
 283              		.loc 1 63 0
 284 0000 38600000 		li 3,0
 285              	.LVL28:
 286 0004 38800000 		li 4,0
 287              	.LVL29:
 288 0008 4E800020 		blr
 289              		.cfi_endproc
 290              	.LFE1583:
 291              		.size	_ZN7Browser11GetFilesizeEi, .-_ZN7Browser11GetFilesizeEi
 292              		.section	.text._ZN7Browser15ChangeDirectoryEv,"axG",@progbits,_ZN7Browser15ChangeDirectoryEv,comda
 293              		.align 2
 294              		.weak	_ZN7Browser15ChangeDirectoryEv
 295              		.type	_ZN7Browser15ChangeDirectoryEv, @function
 296              	_ZN7Browser15ChangeDirectoryEv:
 297              	.LFB1584:
 298              		.loc 1 64 0
 299              		.cfi_startproc
 300              	.LVL30:
 301              		.loc 1 64 0
 302 0000 38600000 		li 3,0
 303              	.LVL31:
 304 0004 4E800020 		blr
 305              		.cfi_endproc
 306              	.LFE1584:
 307              		.size	_ZN7Browser15ChangeDirectoryEv, .-_ZN7Browser15ChangeDirectoryEv
 308              		.section	.text._ZN7Browser15BackInDirectoryEv,"axG",@progbits,_ZN7Browser15BackInDirectoryEv,comda
 309              		.align 2
 310              		.weak	_ZN7Browser15BackInDirectoryEv
 311              		.type	_ZN7Browser15BackInDirectoryEv, @function
 312              	_ZN7Browser15BackInDirectoryEv:
 313              	.LFB1585:
 314              		.loc 1 65 0
 315              		.cfi_startproc
 316              	.LVL32:
 317              		.loc 1 65 0
 318 0000 3860FFFF 		li 3,-1
 319              	.LVL33:
 320 0004 4E800020 		blr
 321              		.cfi_endproc
 322              	.LFE1585:
 323              		.size	_ZN7Browser15BackInDirectoryEv, .-_ZN7Browser15BackInDirectoryEv
 324              		.section	.text._ZN7Browser11ExecuteFileESs,"axG",@progbits,_ZN7Browser11ExecuteFileESs,comdat
 325              		.align 2
 326              		.weak	_ZN7Browser11ExecuteFileESs
 327              		.type	_ZN7Browser11ExecuteFileESs, @function
 328              	_ZN7Browser11ExecuteFileESs:
 329              	.LFB1586:
 330              		.loc 1 66 0
 331              		.cfi_startproc
 332              	.LVL34:
 333              		.loc 1 66 0
 334 0000 3860FFFF 		li 3,-1
 335              	.LVL35:
 336 0004 4E800020 		blr
 337              		.cfi_endproc
 338              	.LFE1586:
 339              		.size	_ZN7Browser11ExecuteFileESs, .-_ZN7Browser11ExecuteFileESs
 340              		.section	.text._ZN11FileBrowser14GetEntrieCountEv,"axG",@progbits,_ZN11FileBrowser14GetEntrieCount
 341              		.align 2
 342              		.weak	_ZN11FileBrowser14GetEntrieCountEv
 343              		.type	_ZN11FileBrowser14GetEntrieCountEv, @function
 344              	_ZN11FileBrowser14GetEntrieCountEv:
 345              	.LFB1590:
 346              		.file 2 "d:/Projects/SaveGameManager/savegame-manager-gx/trunk/source/Files/filebrowser.h"
 347              		.loc 2 65 0
 348              		.cfi_startproc
 349              	.LVL36:
 350              	.LBB2206:
 351              	.LBB2207:
 352              		.file 3 "d:\\devkitpro\\devkitppc\\bin\\../lib/gcc/powerpc-eabi/4.6.3/../../../../powerpc-eabi/inc
 353              		.loc 3 571 0
 354 0000 81230038 		lwz 9,56(3)
 355 0004 80030034 		lwz 0,52(3)
 356              	.LBE2207:
 357              	.LBE2206:
 358              		.loc 2 65 0
 359              	.LBB2209:
 360              	.LBB2208:
 361              		.loc 3 571 0
 362 0008 7C604850 		subf 3,0,9
 363              	.LVL37:
 364              	.LBE2208:
 365              	.LBE2209:
 366              		.loc 2 65 0
 367 000c 7C631670 		srawi 3,3,2
 368 0010 4E800020 		blr
 369              		.cfi_endproc
 370              	.LFE1590:
 371              		.size	_ZN11FileBrowser14GetEntrieCountEv, .-_ZN11FileBrowser14GetEntrieCountEv
 372              		.section	.text._ZN11FileBrowser12GetPageIndexEv,"axG",@progbits,_ZN11FileBrowser12GetPageIndexEv,c
 373              		.align 2
 374              		.weak	_ZN11FileBrowser12GetPageIndexEv
 375              		.type	_ZN11FileBrowser12GetPageIndexEv, @function
 376              	_ZN11FileBrowser12GetPageIndexEv:
 377              	.LFB1591:
 378              		.loc 2 66 0
 379              		.cfi_startproc
 380              	.LVL38:
 381              		.loc 2 66 0
 382 0000 80630030 		lwz 3,48(3)
 383              	.LVL39:
 384 0004 4E800020 		blr
 385              		.cfi_endproc
 386              	.LFE1591:
 387              		.size	_ZN11FileBrowser12GetPageIndexEv, .-_ZN11FileBrowser12GetPageIndexEv
 388              		.section	.text._ZN11FileBrowser11GetSelIndexEv,"axG",@progbits,_ZN11FileBrowser11GetSelIndexEv,com
 389              		.align 2
 390              		.weak	_ZN11FileBrowser11GetSelIndexEv
 391              		.type	_ZN11FileBrowser11GetSelIndexEv, @function
 392              	_ZN11FileBrowser11GetSelIndexEv:
 393              	.LFB1592:
 394              		.loc 2 67 0
 395              		.cfi_startproc
 396              	.LVL40:
 397              		.loc 2 67 0
 398 0000 8063002C 		lwz 3,44(3)
 399              	.LVL41:
 400 0004 4E800020 		blr
 401              		.cfi_endproc
 402              	.LFE1592:
 403              		.size	_ZN11FileBrowser11GetSelIndexEv, .-_ZN11FileBrowser11GetSelIndexEv
 404              		.section	.text._ZN11FileBrowser13IsGettingListEv,"axG",@progbits,_ZN11FileBrowser13IsGettingListEv
 405              		.align 2
 406              		.weak	_ZN11FileBrowser13IsGettingListEv
 407              		.type	_ZN11FileBrowser13IsGettingListEv, @function
 408              	_ZN11FileBrowser13IsGettingListEv:
 409              	.LFB1605:
 410              		.loc 2 84 0
 411              		.cfi_startproc
 412              	.LVL42:
 413              		.loc 2 84 0
 414 0000 88630048 		lbz 3,72(3)
 415              	.LVL43:
 416 0004 4E800020 		blr
 417              		.cfi_endproc
 418              	.LFE1605:
 419              		.size	_ZN11FileBrowser13IsGettingListEv, .-_ZN11FileBrowser13IsGettingListEv
 420              		.section	.text._ZN11FileBrowser11ListChangedEv,"axG",@progbits,_ZN11FileBrowser11ListChangedEv,com
 421              		.align 2
 422              		.weak	_ZN11FileBrowser11ListChangedEv
 423              		.type	_ZN11FileBrowser11ListChangedEv, @function
 424              	_ZN11FileBrowser11ListChangedEv:
 425              	.LFB1606:
 426              		.loc 2 85 0
 427              		.cfi_startproc
 428              	.LVL44:
 429              		.loc 2 85 0
 430 0000 7C691B78 		mr 9,3
 431              	.LBB2210:
 432 0004 38000000 		li 0,0
 433 0008 88630049 		lbz 3,73(3)
 434              	.LVL45:
 435 000c 98090049 		stb 0,73(9)
 436              	.LBE2210:
 437 0010 4E800020 		blr
 438              		.cfi_endproc
 439              	.LFE1606:
 440              		.size	_ZN11FileBrowser11ListChangedEv, .-_ZN11FileBrowser11ListChangedEv
 441              		.section	".text"
 442              		.align 2
 443              		.globl _ZN11FileBrowser12SetPageIndexEi
 444              		.type	_ZN11FileBrowser12SetPageIndexEi, @function
 445              	_ZN11FileBrowser12SetPageIndexEi:
 446              	.LFB1752:
 447              		.file 4 "d:/Projects/SaveGameManager/savegame-manager-gx/trunk/source/Files/filebrowser.cpp"
 448              		.loc 4 180 0
 449              		.cfi_startproc
 450              	.LVL46:
 451              		.loc 4 181 0
 452 0000 80030030 		lwz 0,48(3)
 453 0004 7F802000 		cmpw 7,0,4
 454 0008 4D9E0020 		beqlr- 7
 455              		.loc 4 184 0
 456 000c 90830030 		stw 4,48(3)
 457 0010 4E800020 		blr
 458              		.cfi_endproc
 459              	.LFE1752:
 460              		.size	_ZN11FileBrowser12SetPageIndexEi, .-_ZN11FileBrowser12SetPageIndexEi
 461              		.align 2
 462              		.globl _ZN11FileBrowser16SetSelectedIndexEi
 463              		.type	_ZN11FileBrowser16SetSelectedIndexEi, @function
 464              	_ZN11FileBrowser16SetSelectedIndexEi:
 465              	.LFB1753:
 466              		.loc 4 192 0
 467              		.cfi_startproc
 468              	.LVL47:
 469              		.loc 4 193 0
 470 0014 8003002C 		lwz 0,44(3)
 471 0018 7F802000 		cmpw 7,0,4
 472 001c 4D9E0020 		beqlr- 7
 473              		.loc 4 196 0
 474 0020 9083002C 		stw 4,44(3)
 475 0024 4E800020 		blr
 476              		.cfi_endproc
 477              	.LFE1753:
 478              		.size	_ZN11FileBrowser16SetSelectedIndexEi, .-_ZN11FileBrowser16SetSelectedIndexEi
 479              		.section	.text._ZN7BrowserD0Ev,"axG",@progbits,_ZN7BrowserD5Ev,comdat
 480              		.align 2
 481              		.weak	_ZN7BrowserD0Ev
 482              		.type	_ZN7BrowserD0Ev, @function
 483              	_ZN7BrowserD0Ev:
 484              	.LFB1563:
 485              		.loc 1 43 0
 486              		.cfi_startproc
 487              	.LVL48:
 488 0000 7C0802A6 		mflr 0
 489 0004 9421FFF8 		stwu 1,-8(1)
 490              	.LCFI2:
 491              		.cfi_def_cfa_offset 8
 492              		.cfi_register 65, 0
 493              	.LBB2211:
 494              	.LBB2212:
 495              	.LBB2213:
 496 0008 3D200000 		lis 9,_ZTV7Browser+8@ha
 497              	.LBE2213:
 498              	.LBE2212:
 499              	.LBE2211:
 500 000c 9001000C 		stw 0,12(1)
 501              	.LBB2216:
 502              	.LBB2215:
 503              	.LBB2214:
 504              		.loc 1 43 0
 505 0010 38090008 		la 0,_ZTV7Browser+8@l(9)
 506              		.cfi_offset 65, 4
 507 0014 90030000 		stw 0,0(3)
 508              	.LBE2214:
 509              	.LBE2215:
 510              	.LBE2216:
 511 0018 48000001 		bl _ZdlPv
 512              	.LVL49:
 513 001c 8001000C 		lwz 0,12(1)
 514 0020 38210008 		addi 1,1,8
 515              	.LCFI3:
 516              		.cfi_def_cfa_offset 0
 517 0024 7C0803A6 		mtlr 0
 518 0028 4E800020 		blr
 519              		.cfi_endproc
 520              	.LFE1563:
 521              		.size	_ZN7BrowserD0Ev, .-_ZN7BrowserD0Ev
 522              		.section	.text._ZN11FileBrowser10GetRootDirEv,"axG",@progbits,_ZN11FileBrowser10GetRootDirEv,comda
 523              		.align 2
 524              		.weak	_ZN11FileBrowser10GetRootDirEv
 525              		.type	_ZN11FileBrowser10GetRootDirEv, @function
 526              	_ZN11FileBrowser10GetRootDirEv:
 527              	.LFB1602:
 528              		.loc 2 77 0
 529              		.cfi_startproc
 530              	.LVL50:
 531 0000 7C0802A6 		mflr 0
 532 0004 9421FFF0 		stwu 1,-16(1)
 533              	.LCFI4:
 534              		.cfi_def_cfa_offset 16
 535              		.cfi_register 65, 0
 536 0008 38840024 		addi 4,4,36
 537              	.LVL51:
 538 000c 93E1000C 		stw 31,12(1)
 539 0010 7C7F1B78 		mr 31,3
 540              		.cfi_offset 31, -4
 541 0014 90010014 		stw 0,20(1)
 542              		.loc 2 77 0
 543              		.cfi_offset 65, 4
 544 0018 48000001 		bl _ZNSsC1ERKSs
 545              	.LVL52:
 546 001c 80010014 		lwz 0,20(1)
 547 0020 7FE3FB78 		mr 3,31
 548 0024 83E1000C 		lwz 31,12(1)
 549              	.LVL53:
 550 0028 7C0803A6 		mtlr 0
 551 002c 38210010 		addi 1,1,16
 552              	.LCFI5:
 553              		.cfi_def_cfa_offset 0
 554              		.cfi_restore 31
 555 0030 4E800020 		blr
 556              		.cfi_endproc
 557              	.LFE1602:
 558              		.size	_ZN11FileBrowser10GetRootDirEv, .-_ZN11FileBrowser10GetRootDirEv
 559              		.section	".text"
 560              		.align 2
 561              		.globl _ZN11FileBrowser14GetCurrentPathEv
 562              		.type	_ZN11FileBrowser14GetCurrentPathEv, @function
 563              	_ZN11FileBrowser14GetCurrentPathEv:
 564              	.LFB1754:
 565              		.loc 4 203 0
 566              		.cfi_startproc
 567              	.LVL54:
 568 0028 9421FFE8 		stwu 1,-24(1)
 569              	.LCFI6:
 570              		.cfi_def_cfa_offset 24
 571 002c 7C0802A6 		mflr 0
 572 0030 93E10014 		stw 31,20(1)
 573              		.loc 4 204 0
 574 0034 3BE40044 		addi 31,4,68
 575              		.cfi_offset 31, -4
 576              		.cfi_register 65, 0
 577              		.loc 4 203 0
 578 0038 93A1000C 		stw 29,12(1)
 579 003c 7C7D1B78 		mr 29,3
 580              		.cfi_offset 29, -12
 581 0040 93C10010 		stw 30,16(1)
 582              		.loc 4 204 0
 583 0044 7FE3FB78 		mr 3,31
 584              	.LVL55:
 585              		.loc 4 203 0
 586 0048 7C9E2378 		mr 30,4
 587              		.cfi_offset 30, -8
 588              		.loc 4 204 0
 589 004c 38840024 		addi 4,4,36
 590              	.LVL56:
 591              		.loc 4 203 0
 592 0050 9001001C 		stw 0,28(1)
 593              		.loc 4 204 0
 594              		.cfi_offset 65, 4
 595 0054 48000001 		bl _ZNSs6assignERKSs
 596              	.LVL57:
 597              	.LBB2217:
 598              	.LBB2218:
 599              		.file 5 "d:\\devkitpro\\devkitppc\\bin\\../lib/gcc/powerpc-eabi/4.6.3/../../../../powerpc-eabi/inc
 600              		.loc 5 925 0
 601 0058 389E0028 		addi 4,30,40
 602 005c 7FE3FB78 		mr 3,31
 603 0060 48000001 		bl _ZNSs6appendERKSs
 604              	.LBE2218:
 605              	.LBE2217:
 606              		.loc 4 207 0
 607 0064 7FA3EB78 		mr 3,29
 608 0068 7FE4FB78 		mr 4,31
 609 006c 48000001 		bl _ZNSsC1ERKSs
 610              		.loc 4 208 0
 611 0070 8001001C 		lwz 0,28(1)
 612 0074 7FA3EB78 		mr 3,29
 613 0078 83C10010 		lwz 30,16(1)
 614              	.LVL58:
 615 007c 7C0803A6 		mtlr 0
 616 0080 83A1000C 		lwz 29,12(1)
 617              	.LVL59:
 618 0084 83E10014 		lwz 31,20(1)
 619              	.LVL60:
 620 0088 38210018 		addi 1,1,24
 621              	.LCFI7:
 622              		.cfi_def_cfa_offset 0
 623              		.cfi_restore 31
 624              		.cfi_restore 30
 625              		.cfi_restore 29
 626 008c 4E800020 		blr
 627              		.cfi_endproc
 628              	.LFE1754:
 629              		.size	_ZN11FileBrowser14GetCurrentPathEv, .-_ZN11FileBrowser14GetCurrentPathEv
 630              		.section	.text._ZN7Browser18GetItemDisplayNameEi,"axG",@progbits,_ZN7Browser18GetItemDisplayNameEi
 631              		.align 2
 632              		.weak	_ZN7Browser18GetItemDisplayNameEi
 633              		.type	_ZN7Browser18GetItemDisplayNameEi, @function
 634              	_ZN7Browser18GetItemDisplayNameEi:
 635              	.LFB1579:
 636              		.loc 1 59 0
 637              		.cfi_startproc
 638              	.LVL61:
 639 0000 9421FFE0 		stwu 1,-32(1)
 640              	.LCFI8:
 641              		.cfi_def_cfa_offset 32
 642 0004 7C0802A6 		mflr 0
 643 0008 38800000 		li 4,0
 644              	.LVL62:
 645 000c 38A10008 		addi 5,1,8
 646              	.LVL63:
 647 0010 93E1001C 		stw 31,28(1)
 648 0014 90010024 		stw 0,36(1)
 649              		.loc 1 59 0
 650 0018 7C7F1B78 		mr 31,3
 651              		.cfi_offset 31, -4
 652              		.cfi_offset 65, 4
 653 001c 48000001 		bl _ZNSbIwSt11char_traitsIwESaIwEEC1EPKwRKS1_
 654              	.LVL64:
 655 0020 80010024 		lwz 0,36(1)
 656 0024 7FE3FB78 		mr 3,31
 657 0028 83E1001C 		lwz 31,28(1)
 658              	.LVL65:
 659 002c 7C0803A6 		mtlr 0
 660 0030 38210020 		addi 1,1,32
 661              	.LCFI9:
 662              		.cfi_def_cfa_offset 0
 663              		.cfi_restore 31
 664 0034 4E800020 		blr
 665              		.cfi_endproc
 666              	.LFE1579:
 667              		.size	_ZN7Browser18GetItemDisplayNameEi, .-_ZN7Browser18GetItemDisplayNameEi
 668              		.section	.text._ZN7Browser10GetRootDirEv,"axG",@progbits,_ZN7Browser10GetRootDirEv,comdat
 669              		.align 2
 670              		.weak	_ZN7Browser10GetRootDirEv
 671              		.type	_ZN7Browser10GetRootDirEv, @function
 672              	_ZN7Browser10GetRootDirEv:
 673              	.LFB1582:
 674              		.loc 1 62 0
 675              		.cfi_startproc
 676              	.LVL66:
 677 0000 9421FFE0 		stwu 1,-32(1)
 678              	.LCFI10:
 679              		.cfi_def_cfa_offset 32
 680 0004 7C0802A6 		mflr 0
 681 0008 38800000 		li 4,0
 682              	.LVL67:
 683 000c 38A10008 		addi 5,1,8
 684 0010 93E1001C 		stw 31,28(1)
 685 0014 90010024 		stw 0,36(1)
 686              		.loc 1 62 0
 687 0018 7C7F1B78 		mr 31,3
 688              		.cfi_offset 31, -4
 689              		.cfi_offset 65, 4
 690 001c 48000001 		bl _ZNSsC1EPKcRKSaIcE
 691              	.LVL68:
 692 0020 80010024 		lwz 0,36(1)
 693 0024 7FE3FB78 		mr 3,31
 694 0028 83E1001C 		lwz 31,28(1)
 695              	.LVL69:
 696 002c 7C0803A6 		mtlr 0
 697 0030 38210020 		addi 1,1,32
 698              	.LCFI11:
 699              		.cfi_def_cfa_offset 0
 700              		.cfi_restore 31
 701 0034 4E800020 		blr
 702              		.cfi_endproc
 703              	.LFE1582:
 704              		.size	_ZN7Browser10GetRootDirEv, .-_ZN7Browser10GetRootDirEv
 705              		.section	.text._ZN7Browser26GetCurrentSelectedFilepathEv,"axG",@progbits,_ZN7Browser26GetCurrentSe
 706              		.align 2
 707              		.weak	_ZN7Browser26GetCurrentSelectedFilepathEv
 708              		.type	_ZN7Browser26GetCurrentSelectedFilepathEv, @function
 709              	_ZN7Browser26GetCurrentSelectedFilepathEv:
 710              	.LFB1581:
 711              		.loc 1 61 0
 712              		.cfi_startproc
 713              	.LVL70:
 714 0000 9421FFE0 		stwu 1,-32(1)
 715              	.LCFI12:
 716              		.cfi_def_cfa_offset 32
 717 0004 7C0802A6 		mflr 0
 718 0008 38800000 		li 4,0
 719              	.LVL71:
 720 000c 38A10008 		addi 5,1,8
 721 0010 93E1001C 		stw 31,28(1)
 722 0014 90010024 		stw 0,36(1)
 723              		.loc 1 61 0
 724 0018 7C7F1B78 		mr 31,3
 725              		.cfi_offset 31, -4
 726              		.cfi_offset 65, 4
 727 001c 48000001 		bl _ZNSsC1EPKcRKSaIcE
 728              	.LVL72:
 729 0020 80010024 		lwz 0,36(1)
 730 0024 7FE3FB78 		mr 3,31
 731 0028 83E1001C 		lwz 31,28(1)
 732              	.LVL73:
 733 002c 7C0803A6 		mtlr 0
 734 0030 38210020 		addi 1,1,32
 735              	.LCFI13:
 736              		.cfi_def_cfa_offset 0
 737              		.cfi_restore 31
 738 0034 4E800020 		blr
 739              		.cfi_endproc
 740              	.LFE1581:
 741              		.size	_ZN7Browser26GetCurrentSelectedFilepathEv, .-_ZN7Browser26GetCurrentSelectedFilepathEv
 742              		.section	.text._ZN7Browser14GetCurrentPathEv,"axG",@progbits,_ZN7Browser14GetCurrentPathEv,comdat
 743              		.align 2
 744              		.weak	_ZN7Browser14GetCurrentPathEv
 745              		.type	_ZN7Browser14GetCurrentPathEv, @function
 746              	_ZN7Browser14GetCurrentPathEv:
 747              	.LFB1580:
 748              		.loc 1 60 0
 749              		.cfi_startproc
 750              	.LVL74:
 751 0000 9421FFE0 		stwu 1,-32(1)
 752              	.LCFI14:
 753              		.cfi_def_cfa_offset 32
 754 0004 7C0802A6 		mflr 0
 755 0008 38800000 		li 4,0
 756              	.LVL75:
 757 000c 38A10008 		addi 5,1,8
 758 0010 93E1001C 		stw 31,28(1)
 759 0014 90010024 		stw 0,36(1)
 760              		.loc 1 60 0
 761 0018 7C7F1B78 		mr 31,3
 762              		.cfi_offset 31, -4
 763              		.cfi_offset 65, 4
 764 001c 48000001 		bl _ZNSsC1EPKcRKSaIcE
 765              	.LVL76:
 766 0020 80010024 		lwz 0,36(1)
 767 0024 7FE3FB78 		mr 3,31
 768 0028 83E1001C 		lwz 31,28(1)
 769              	.LVL77:
 770 002c 7C0803A6 		mtlr 0
 771 0030 38210020 		addi 1,1,32
 772              	.LCFI15:
 773              		.cfi_def_cfa_offset 0
 774              		.cfi_restore 31
 775 0034 4E800020 		blr
 776              		.cfi_endproc
 777              	.LFE1580:
 778              		.size	_ZN7Browser14GetCurrentPathEv, .-_ZN7Browser14GetCurrentPathEv
 779              		.section	.text._ZN7Browser11GetItemNameEi,"axG",@progbits,_ZN7Browser11GetItemNameEi,comdat
 780              		.align 2
 781              		.weak	_ZN7Browser11GetItemNameEi
 782              		.type	_ZN7Browser11GetItemNameEi, @function
 783              	_ZN7Browser11GetItemNameEi:
 784              	.LFB1578:
 785              		.loc 1 58 0
 786              		.cfi_startproc
 787              	.LVL78:
 788 0000 9421FFE0 		stwu 1,-32(1)
 789              	.LCFI16:
 790              		.cfi_def_cfa_offset 32
 791 0004 7C0802A6 		mflr 0
 792 0008 38800000 		li 4,0
 793              	.LVL79:
 794 000c 38A10008 		addi 5,1,8
 795              	.LVL80:
 796 0010 93E1001C 		stw 31,28(1)
 797 0014 90010024 		stw 0,36(1)
 798              		.loc 1 58 0
 799 0018 7C7F1B78 		mr 31,3
 800              		.cfi_offset 31, -4
 801              		.cfi_offset 65, 4
 802 001c 48000001 		bl _ZNSsC1EPKcRKSaIcE
 803              	.LVL81:
 804 0020 80010024 		lwz 0,36(1)
 805 0024 7FE3FB78 		mr 3,31
 806 0028 83E1001C 		lwz 31,28(1)
 807              	.LVL82:
 808 002c 7C0803A6 		mtlr 0
 809 0030 38210020 		addi 1,1,32
 810              	.LCFI17:
 811              		.cfi_def_cfa_offset 0
 812              		.cfi_restore 31
 813 0034 4E800020 		blr
 814              		.cfi_endproc
 815              	.LFE1578:
 816              		.size	_ZN7Browser11GetItemNameEi, .-_ZN7Browser11GetItemNameEi
 817              		.section	.text._ZN11FileBrowser11GetItemNameEi,"axG",@progbits,_ZN11FileBrowser11GetItemNameEi,com
 818              		.align 2
 819              		.weak	_ZN11FileBrowser11GetItemNameEi
 820              		.type	_ZN11FileBrowser11GetItemNameEi, @function
 821              	_ZN11FileBrowser11GetItemNameEi:
 822              	.LFB1598:
 823              		.loc 2 73 0
 824              		.cfi_startproc
 825              	.LVL83:
 826 0000 7C0802A6 		mflr 0
 827 0004 9421FFE0 		stwu 1,-32(1)
 828              	.LCFI18:
 829              		.cfi_def_cfa_offset 32
 830              		.cfi_register 65, 0
 831 0008 93E1001C 		stw 31,28(1)
 832 000c 7C7F1B78 		mr 31,3
 833              		.cfi_offset 31, -4
 834 0010 90010024 		stw 0,36(1)
 835              	.LBB2245:
 836              	.LBB2246:
 837              		.loc 4 497 0
 838 0014 81240034 		lwz 9,52(4)
 839              	.LBB2247:
 840              	.LBB2248:
 841              	.LBB2249:
 842              		.loc 3 571 0
 843 0018 80040038 		lwz 0,56(4)
 844              		.cfi_offset 65, 4
 845              	.LVL84:
 846 001c 7C090050 		subf 0,9,0
 847 0020 7C001670 		srawi 0,0,2
 848              	.LBE2249:
 849              	.LBE2248:
 850              		.loc 3 718 0
 851 0024 7F850040 		cmplw 7,5,0
 852 0028 409C0060 		bge- 7,.L56
 853              	.LVL85:
 854              	.LBE2247:
 855              	.LBE2246:
 856              	.LBE2245:
 857              		.loc 2 73 0
 858 002c 54A5103A 		slwi 5,5,2
 859              	.LVL86:
 860 0030 7C89282E 		lwzx 4,9,5
 861              	.LVL87:
 862              	.LBB2252:
 863              	.LBB2253:
 864              	.LBB2254:
 865              		.loc 5 711 0
 866 0034 81240000 		lwz 9,0(4)
 867              	.LVL88:
 868              	.LBE2254:
 869              	.LBE2253:
 870              	.LBE2252:
 871              		.loc 2 73 0
 872 0038 8009FFF4 		lwz 0,-12(9)
 873 003c 2F800000 		cmpwi 7,0,0
 874 0040 409E002C 		bne- 7,.L57
 875              		.loc 2 73 0 is_stmt 0 discriminator 2
 876 0044 3C800000 		lis 4,.LC1@ha
 877              	.LVL89:
 878 0048 38A10008 		addi 5,1,8
 879 004c 38840018 		la 4,.LC1@l(4)
 880 0050 48000001 		bl _ZNSsC1EPKcRKSaIcE
 881              	.LVL90:
 882 0054 80010024 		lwz 0,36(1)
 883 0058 7FE3FB78 		mr 3,31
 884 005c 83E1001C 		lwz 31,28(1)
 885              	.LVL91:
 886 0060 7C0803A6 		mtlr 0
 887 0064 38210020 		addi 1,1,32
 888              		.cfi_remember_state
 889              	.LCFI19:
 890              		.cfi_def_cfa_offset 0
 891              		.cfi_restore 31
 892 0068 4E800020 		blr
 893              	.LVL92:
 894              	.L57:
 895              	.LCFI20:
 896              		.cfi_restore_state
 897              		.loc 2 73 0 discriminator 1
 898 006c 48000001 		bl _ZNSsC1ERKSs
 899              	.LVL93:
 900 0070 80010024 		lwz 0,36(1)
 901 0074 7FE3FB78 		mr 3,31
 902 0078 83E1001C 		lwz 31,28(1)
 903              	.LVL94:
 904 007c 7C0803A6 		mtlr 0
 905 0080 38210020 		addi 1,1,32
 906              		.cfi_remember_state
 907              		.cfi_restore 31
 908              	.LCFI21:
 909              		.cfi_def_cfa_offset 0
 910 0084 4E800020 		blr
 911              	.LVL95:
 912              	.L56:
 913              	.LCFI22:
 914              		.cfi_restore_state
 915              	.LBB2255:
 916              	.LBB2251:
 917              	.LBB2250:
 918              		.loc 3 719 0 is_stmt 1
 919 0088 3C600000 		lis 3,.LC0@ha
 920              	.LVL96:
 921 008c 38630000 		la 3,.LC0@l(3)
 922 0090 48000001 		bl _ZSt20__throw_out_of_rangePKc
 923              	.LVL97:
 924              	.LVL98:
 925              	.LVL99:
 926              	.LVL100:
 927              	.LVL101:
 928              	.LVL102:
 929              	.LBE2250:
 930              	.LBE2251:
 931              	.LBE2255:
 932              		.cfi_endproc
 933              	.LFE1598:
 934              		.size	_ZN11FileBrowser11GetItemNameEi, .-_ZN11FileBrowser11GetItemNameEi
 935              		.section	.text._ZN11FileBrowser5IsMiiEi,"axG",@progbits,_ZN11FileBrowser5IsMiiEi,comdat
 936              		.align 2
 937              		.weak	_ZN11FileBrowser5IsMiiEi
 938              		.type	_ZN11FileBrowser5IsMiiEi, @function
 939              	_ZN11FileBrowser5IsMiiEi:
 940              	.LFB1596:
 941              		.loc 2 71 0
 942              		.cfi_startproc
 943              	.LVL103:
 944 0000 7C0802A6 		mflr 0
 945 0004 9421FFF8 		stwu 1,-8(1)
 946              	.LCFI23:
 947              		.cfi_def_cfa_offset 8
 948              		.cfi_register 65, 0
 949 0008 9001000C 		stw 0,12(1)
 950              	.LBB2264:
 951              	.LBB2265:
 952              		.loc 4 497 0
 953 000c 81230034 		lwz 9,52(3)
 954              	.LBB2266:
 955              	.LBB2267:
 956              	.LBB2268:
 957              		.loc 3 571 0
 958 0010 80030038 		lwz 0,56(3)
 959              		.cfi_offset 65, 4
 960              	.LVL104:
 961 0014 7C090050 		subf 0,9,0
 962 0018 7C001670 		srawi 0,0,2
 963              	.LBE2268:
 964              	.LBE2267:
 965              		.loc 3 718 0
 966 001c 7F840040 		cmplw 7,4,0
 967 0020 409C0020 		bge- 7,.L60
 968              	.LVL105:
 969              	.LBE2266:
 970              	.LBE2265:
 971              	.LBE2264:
 972              		.loc 2 71 0
 973 0024 8001000C 		lwz 0,12(1)
 974 0028 5484103A 		slwi 4,4,2
 975              	.LVL106:
 976 002c 7D29202E 		lwzx 9,9,4
 977 0030 7C0803A6 		mtlr 0
 978 0034 88690009 		lbz 3,9(9)
 979              	.LVL107:
 980 0038 38210008 		addi 1,1,8
 981              		.cfi_remember_state
 982              	.LCFI24:
 983              		.cfi_def_cfa_offset 0
 984 003c 4E800020 		blr
 985              	.LVL108:
 986              	.L60:
 987              	.LCFI25:
 988              		.cfi_restore_state
 989              	.LBB2271:
 990              	.LBB2270:
 991              	.LBB2269:
 992              		.loc 3 719 0
 993 0040 3C600000 		lis 3,.LC0@ha
 994              	.LVL109:
 995 0044 38630000 		la 3,.LC0@l(3)
 996 0048 48000001 		bl _ZSt20__throw_out_of_rangePKc
 997              	.LVL110:
 998              	.LVL111:
 999              	.LVL112:
 1000              	.LBE2269:
 1001              	.LBE2270:
 1002              	.LBE2271:
 1003              		.cfi_endproc
 1004              	.LFE1596:
 1005              		.size	_ZN11FileBrowser5IsMiiEi, .-_ZN11FileBrowser5IsMiiEi
 1006              		.section	.text._ZN11FileBrowser9IsDataBinEi,"axG",@progbits,_ZN11FileBrowser9IsDataBinEi,comdat
 1007              		.align 2
 1008              		.weak	_ZN11FileBrowser9IsDataBinEi
 1009              		.type	_ZN11FileBrowser9IsDataBinEi, @function
 1010              	_ZN11FileBrowser9IsDataBinEi:
 1011              	.LFB1595:
 1012              		.loc 2 70 0
 1013              		.cfi_startproc
 1014              	.LVL113:
 1015 0000 7C0802A6 		mflr 0
 1016 0004 9421FFF8 		stwu 1,-8(1)
 1017              	.LCFI26:
 1018              		.cfi_def_cfa_offset 8
 1019              		.cfi_register 65, 0
 1020 0008 9001000C 		stw 0,12(1)
 1021              	.LBB2280:
 1022              	.LBB2281:
 1023              		.loc 4 497 0
 1024 000c 81230034 		lwz 9,52(3)
 1025              	.LBB2282:
 1026              	.LBB2283:
 1027              	.LBB2284:
 1028              		.loc 3 571 0
 1029 0010 80030038 		lwz 0,56(3)
 1030              		.cfi_offset 65, 4
 1031              	.LVL114:
 1032 0014 7C090050 		subf 0,9,0
 1033 0018 7C001670 		srawi 0,0,2
 1034              	.LBE2284:
 1035              	.LBE2283:
 1036              		.loc 3 718 0
 1037 001c 7F840040 		cmplw 7,4,0
 1038 0020 409C0020 		bge- 7,.L63
 1039              	.LVL115:
 1040              	.LBE2282:
 1041              	.LBE2281:
 1042              	.LBE2280:
 1043              		.loc 2 70 0
 1044 0024 8001000C 		lwz 0,12(1)
 1045 0028 5484103A 		slwi 4,4,2
 1046              	.LVL116:
 1047 002c 7D29202E 		lwzx 9,9,4
 1048 0030 7C0803A6 		mtlr 0
 1049 0034 8869000B 		lbz 3,11(9)
 1050              	.LVL117:
 1051 0038 38210008 		addi 1,1,8
 1052              		.cfi_remember_state
 1053              	.LCFI27:
 1054              		.cfi_def_cfa_offset 0
 1055 003c 4E800020 		blr
 1056              	.LVL118:
 1057              	.L63:
 1058              	.LCFI28:
 1059              		.cfi_restore_state
 1060              	.LBB2287:
 1061              	.LBB2286:
 1062              	.LBB2285:
 1063              		.loc 3 719 0
 1064 0040 3C600000 		lis 3,.LC0@ha
 1065              	.LVL119:
 1066 0044 38630000 		la 3,.LC0@l(3)
 1067 0048 48000001 		bl _ZSt20__throw_out_of_rangePKc
 1068              	.LVL120:
 1069              	.LVL121:
 1070              	.LVL122:
 1071              	.LBE2285:
 1072              	.LBE2286:
 1073              	.LBE2287:
 1074              		.cfi_endproc
 1075              	.LFE1595:
 1076              		.size	_ZN11FileBrowser9IsDataBinEi, .-_ZN11FileBrowser9IsDataBinEi
 1077              		.section	.text._ZN11FileBrowser6IsSaveEi,"axG",@progbits,_ZN11FileBrowser6IsSaveEi,comdat
 1078              		.align 2
 1079              		.weak	_ZN11FileBrowser6IsSaveEi
 1080              		.type	_ZN11FileBrowser6IsSaveEi, @function
 1081              	_ZN11FileBrowser6IsSaveEi:
 1082              	.LFB1594:
 1083              		.loc 2 69 0
 1084              		.cfi_startproc
 1085              	.LVL123:
 1086 0000 7C0802A6 		mflr 0
 1087 0004 9421FFF8 		stwu 1,-8(1)
 1088              	.LCFI29:
 1089              		.cfi_def_cfa_offset 8
 1090              		.cfi_register 65, 0
 1091 0008 9001000C 		stw 0,12(1)
 1092              	.LBB2296:
 1093              	.LBB2297:
 1094              		.loc 4 497 0
 1095 000c 81230034 		lwz 9,52(3)
 1096              	.LBB2298:
 1097              	.LBB2299:
 1098              	.LBB2300:
 1099              		.loc 3 571 0
 1100 0010 80030038 		lwz 0,56(3)
 1101              		.cfi_offset 65, 4
 1102              	.LVL124:
 1103 0014 7C090050 		subf 0,9,0
 1104 0018 7C001670 		srawi 0,0,2
 1105              	.LBE2300:
 1106              	.LBE2299:
 1107              		.loc 3 718 0
 1108 001c 7F840040 		cmplw 7,4,0
 1109 0020 409C0020 		bge- 7,.L66
 1110              	.LVL125:
 1111              	.LBE2298:
 1112              	.LBE2297:
 1113              	.LBE2296:
 1114              		.loc 2 69 0
 1115 0024 8001000C 		lwz 0,12(1)
 1116 0028 5484103A 		slwi 4,4,2
 1117              	.LVL126:
 1118 002c 7D29202E 		lwzx 9,9,4
 1119 0030 7C0803A6 		mtlr 0
 1120 0034 8869000A 		lbz 3,10(9)
 1121              	.LVL127:
 1122 0038 38210008 		addi 1,1,8
 1123              		.cfi_remember_state
 1124              	.LCFI30:
 1125              		.cfi_def_cfa_offset 0
 1126 003c 4E800020 		blr
 1127              	.LVL128:
 1128              	.L66:
 1129              	.LCFI31:
 1130              		.cfi_restore_state
 1131              	.LBB2303:
 1132              	.LBB2302:
 1133              	.LBB2301:
 1134              		.loc 3 719 0
 1135 0040 3C600000 		lis 3,.LC0@ha
 1136              	.LVL129:
 1137 0044 38630000 		la 3,.LC0@l(3)
 1138 0048 48000001 		bl _ZSt20__throw_out_of_rangePKc
 1139              	.LVL130:
 1140              	.LVL131:
 1141              	.LVL132:
 1142              	.LBE2301:
 1143              	.LBE2302:
 1144              	.LBE2303:
 1145              		.cfi_endproc
 1146              	.LFE1594:
 1147              		.size	_ZN11FileBrowser6IsSaveEi, .-_ZN11FileBrowser6IsSaveEi
 1148              		.section	.text._ZN11FileBrowser5IsDirEi,"axG",@progbits,_ZN11FileBrowser5IsDirEi,comdat
 1149              		.align 2
 1150              		.weak	_ZN11FileBrowser5IsDirEi
 1151              		.type	_ZN11FileBrowser5IsDirEi, @function
 1152              	_ZN11FileBrowser5IsDirEi:
 1153              	.LFB1593:
 1154              		.loc 2 68 0
 1155              		.cfi_startproc
 1156              	.LVL133:
 1157 0000 7C0802A6 		mflr 0
 1158 0004 9421FFF8 		stwu 1,-8(1)
 1159              	.LCFI32:
 1160              		.cfi_def_cfa_offset 8
 1161              		.cfi_register 65, 0
 1162 0008 9001000C 		stw 0,12(1)
 1163              	.LBB2312:
 1164              	.LBB2313:
 1165              		.loc 4 497 0
 1166 000c 81230034 		lwz 9,52(3)
 1167              	.LBB2314:
 1168              	.LBB2315:
 1169              	.LBB2316:
 1170              		.loc 3 571 0
 1171 0010 80030038 		lwz 0,56(3)
 1172              		.cfi_offset 65, 4
 1173              	.LVL134:
 1174 0014 7C090050 		subf 0,9,0
 1175 0018 7C001670 		srawi 0,0,2
 1176              	.LBE2316:
 1177              	.LBE2315:
 1178              		.loc 3 718 0
 1179 001c 7F840040 		cmplw 7,4,0
 1180 0020 409C0020 		bge- 7,.L69
 1181              	.LVL135:
 1182              	.LBE2314:
 1183              	.LBE2313:
 1184              	.LBE2312:
 1185              		.loc 2 68 0
 1186 0024 8001000C 		lwz 0,12(1)
 1187 0028 5484103A 		slwi 4,4,2
 1188              	.LVL136:
 1189 002c 7D29202E 		lwzx 9,9,4
 1190 0030 7C0803A6 		mtlr 0
 1191 0034 88690008 		lbz 3,8(9)
 1192              	.LVL137:
 1193 0038 38210008 		addi 1,1,8
 1194              		.cfi_remember_state
 1195              	.LCFI33:
 1196              		.cfi_def_cfa_offset 0
 1197 003c 4E800020 		blr
 1198              	.LVL138:
 1199              	.L69:
 1200              	.LCFI34:
 1201              		.cfi_restore_state
 1202              	.LBB2319:
 1203              	.LBB2318:
 1204              	.LBB2317:
 1205              		.loc 3 719 0
 1206 0040 3C600000 		lis 3,.LC0@ha
 1207              	.LVL139:
 1208 0044 38630000 		la 3,.LC0@l(3)
 1209 0048 48000001 		bl _ZSt20__throw_out_of_rangePKc
 1210              	.LVL140:
 1211              	.LVL141:
 1212              	.LVL142:
 1213              	.LBE2317:
 1214              	.LBE2318:
 1215              	.LBE2319:
 1216              		.cfi_endproc
 1217              	.LFE1593:
 1218              		.size	_ZN11FileBrowser5IsDirEi, .-_ZN11FileBrowser5IsDirEi
 1219              		.section	".text"
 1220              		.align 2
 1221              		.globl _ZN11FileBrowser26GetCurrentSelectedFilepathEv
 1222              		.type	_ZN11FileBrowser26GetCurrentSelectedFilepathEv, @function
 1223              	_ZN11FileBrowser26GetCurrentSelectedFilepathEv:
 1224              	.LFB1755:
 1225              		.loc 4 214 0
 1226              		.cfi_startproc
 1227              	.LVL143:
 1228 0090 7C0802A6 		mflr 0
 1229 0094 9421FFE8 		stwu 1,-24(1)
 1230              	.LCFI35:
 1231              		.cfi_def_cfa_offset 24
 1232              		.cfi_register 65, 0
 1233              	.LBB2358:
 1234              	.LBB2359:
 1235              		.loc 5 796 0
 1236 0098 38C00000 		li 6,0
 1237              	.LBE2359:
 1238              	.LBE2358:
 1239              		.loc 4 214 0
 1240 009c 93C10010 		stw 30,16(1)
 1241              		.loc 4 215 0
 1242 00a0 3BC40044 		addi 30,4,68
 1243              		.cfi_offset 30, -8
 1244              	.LVL144:
 1245              		.loc 4 214 0
 1246 00a4 9001001C 		stw 0,28(1)
 1247 00a8 93A1000C 		stw 29,12(1)
 1248 00ac 7C7D1B78 		mr 29,3
 1249              		.cfi_offset 29, -12
 1250              		.cfi_offset 65, 4
 1251              	.LBB2364:
 1252              	.LBB2362:
 1253              	.LBB2360:
 1254              	.LBB2361:
 1255              		.loc 5 711 0
 1256 00b0 81240044 		lwz 9,68(4)
 1257              	.LBE2361:
 1258              	.LBE2360:
 1259              		.loc 5 796 0
 1260 00b4 7FC3F378 		mr 3,30
 1261              	.LVL145:
 1262              	.LBE2362:
 1263              	.LBE2364:
 1264              		.loc 4 214 0
 1265 00b8 93E10014 		stw 31,20(1)
 1266              		.loc 4 214 0
 1267 00bc 7C9F2378 		mr 31,4
 1268              		.cfi_offset 31, -4
 1269              	.LBB2365:
 1270              	.LBB2363:
 1271              		.loc 5 796 0
 1272 00c0 80A9FFF4 		lwz 5,-12(9)
 1273 00c4 38800000 		li 4,0
 1274              	.LVL146:
 1275 00c8 48000001 		bl _ZNSs9_M_mutateEjjj
 1276              	.LBE2363:
 1277              	.LBE2365:
 1278              	.LBB2366:
 1279              	.LBB2367:
 1280              		.loc 4 497 0
 1281 00cc 813F0034 		lwz 9,52(31)
 1282              	.LBB2368:
 1283              	.LBB2369:
 1284              	.LBB2370:
 1285              		.loc 3 571 0
 1286 00d0 817F0038 		lwz 11,56(31)
 1287              	.LBE2370:
 1288              	.LBE2369:
 1289              	.LBE2368:
 1290              	.LBE2367:
 1291              	.LBE2366:
 1292              		.loc 4 217 0
 1293 00d4 801F002C 		lwz 0,44(31)
 1294              	.LVL147:
 1295              	.LBB2375:
 1296              	.LBB2374:
 1297              	.LBB2373:
 1298              	.LBB2372:
 1299              	.LBB2371:
 1300              		.loc 3 571 0
 1301 00d8 7D695850 		subf 11,9,11
 1302 00dc 7D6B1670 		srawi 11,11,2
 1303              	.LBE2371:
 1304              	.LBE2372:
 1305              		.loc 3 718 0
 1306 00e0 7F805840 		cmplw 7,0,11
 1307 00e4 409C00CC 		bge- 7,.L74
 1308              	.LVL148:
 1309              	.LBE2373:
 1310              	.LBE2374:
 1311              	.LBE2375:
 1312              		.loc 4 217 0
 1313 00e8 5400103A 		slwi 0,0,2
 1314              	.LBB2376:
 1315              	.LBB2377:
 1316              	.LBB2378:
 1317              	.LBB2379:
 1318              	.LBB2380:
 1319              		.loc 5 288 0
 1320 00ec 7D29002E 		lwzx 9,9,0
 1321              	.LBE2380:
 1322              	.LBE2379:
 1323              	.LBE2378:
 1324              		.loc 5 711 0
 1325 00f0 81290000 		lwz 9,0(9)
 1326              	.LBE2377:
 1327              	.LBE2376:
 1328              		.loc 4 217 0
 1329 00f4 8009FFF4 		lwz 0,-12(9)
 1330 00f8 2F800000 		cmpwi 7,0,0
 1331 00fc 409E0030 		bne- 7,.L75
 1332              		.loc 4 225 0
 1333 0100 7FA3EB78 		mr 3,29
 1334 0104 7FC4F378 		mr 4,30
 1335 0108 48000001 		bl _ZNSsC1ERKSs
 1336              	.LVL149:
 1337              		.loc 4 226 0
 1338 010c 8001001C 		lwz 0,28(1)
 1339 0110 7FA3EB78 		mr 3,29
 1340 0114 83C10010 		lwz 30,16(1)
 1341              	.LVL150:
 1342 0118 7C0803A6 		mtlr 0
 1343 011c 83A1000C 		lwz 29,12(1)
 1344              	.LVL151:
 1345 0120 83E10014 		lwz 31,20(1)
 1346              	.LVL152:
 1347 0124 38210018 		addi 1,1,24
 1348              		.cfi_remember_state
 1349              	.LCFI36:
 1350              		.cfi_def_cfa_offset 0
 1351              		.cfi_restore 31
 1352              		.cfi_restore 30
 1353              		.cfi_restore 29
 1354 0128 4E800020 		blr
 1355              	.LVL153:
 1356              	.L75:
 1357              	.LCFI37:
 1358              		.cfi_restore_state
 1359              		.loc 4 219 0
 1360 012c 389F0024 		addi 4,31,36
 1361 0130 7FC3F378 		mr 3,30
 1362 0134 48000001 		bl _ZNSs6assignERKSs
 1363              	.LVL154:
 1364              	.LBB2381:
 1365              	.LBB2382:
 1366              		.loc 5 925 0
 1367 0138 389F0028 		addi 4,31,40
 1368 013c 7FC3F378 		mr 3,30
 1369 0140 48000001 		bl _ZNSs6appendERKSs
 1370              	.LVL155:
 1371              	.LBE2382:
 1372              	.LBE2381:
 1373              	.LBB2383:
 1374              	.LBB2384:
 1375              	.LBB2385:
 1376              		.loc 5 1000 0
 1377 0144 3C800000 		lis 4,.LC2@ha
 1378 0148 7FC3F378 		mr 3,30
 1379 014c 3884001C 		la 4,.LC2@l(4)
 1380 0150 38A00001 		li 5,1
 1381 0154 48000001 		bl _ZNSs6appendEPKcj
 1382              	.LBE2385:
 1383              	.LBE2384:
 1384              	.LBE2383:
 1385              	.LBB2386:
 1386              	.LBB2387:
 1387              		.loc 4 497 0
 1388 0158 813F0034 		lwz 9,52(31)
 1389              	.LBB2388:
 1390              	.LBB2389:
 1391              	.LBB2390:
 1392              		.loc 3 571 0
 1393 015c 817F0038 		lwz 11,56(31)
 1394              	.LBE2390:
 1395              	.LBE2389:
 1396              	.LBE2388:
 1397              	.LBE2387:
 1398              	.LBE2386:
 1399              		.loc 4 222 0
 1400 0160 801F002C 		lwz 0,44(31)
 1401              	.LVL156:
 1402              	.LBB2397:
 1403              	.LBB2395:
 1404              	.LBB2393:
 1405              	.LBB2392:
 1406              	.LBB2391:
 1407              		.loc 3 571 0
 1408 0164 7D695850 		subf 11,9,11
 1409 0168 7D6B1670 		srawi 11,11,2
 1410              	.LBE2391:
 1411              	.LBE2392:
 1412              		.loc 3 718 0
 1413 016c 7F805840 		cmplw 7,0,11
 1414 0170 409C0040 		bge- 7,.L74
 1415              	.LVL157:
 1416              	.LBE2393:
 1417              	.LBE2395:
 1418              	.LBE2397:
 1419              		.loc 4 222 0
 1420 0174 5400103A 		slwi 0,0,2
 1421              	.LBB2398:
 1422              	.LBB2399:
 1423              		.loc 5 925 0
 1424 0178 7FC3F378 		mr 3,30
 1425 017c 7C89002E 		lwzx 4,9,0
 1426 0180 48000001 		bl _ZNSs6appendERKSs
 1427              	.LVL158:
 1428              	.LBE2399:
 1429              	.LBE2398:
 1430              		.loc 4 225 0
 1431 0184 7FA3EB78 		mr 3,29
 1432 0188 7FC4F378 		mr 4,30
 1433 018c 48000001 		bl _ZNSsC1ERKSs
 1434              		.loc 4 226 0
 1435 0190 8001001C 		lwz 0,28(1)
 1436 0194 7FA3EB78 		mr 3,29
 1437 0198 83C10010 		lwz 30,16(1)
 1438              	.LVL159:
 1439 019c 7C0803A6 		mtlr 0
 1440 01a0 83A1000C 		lwz 29,12(1)
 1441              	.LVL160:
 1442 01a4 83E10014 		lwz 31,20(1)
 1443              	.LVL161:
 1444 01a8 38210018 		addi 1,1,24
 1445              		.cfi_remember_state
 1446              		.cfi_restore 29
 1447              		.cfi_restore 30
 1448              		.cfi_restore 31
 1449              	.LCFI38:
 1450              		.cfi_def_cfa_offset 0
 1451 01ac 4E800020 		blr
 1452              	.LVL162:
 1453              	.L74:
 1454              	.LCFI39:
 1455              		.cfi_restore_state
 1456              	.LBB2400:
 1457              	.LBB2396:
 1458              	.LBB2394:
 1459              		.loc 3 719 0
 1460 01b0 3C600000 		lis 3,.LC0@ha
 1461 01b4 38630000 		la 3,.LC0@l(3)
 1462 01b8 48000001 		bl _ZSt20__throw_out_of_rangePKc
 1463              	.LVL163:
 1464              	.LBE2394:
 1465              	.LBE2396:
 1466              	.LBE2400:
 1467              		.cfi_endproc
 1468              	.LFE1755:
 1469              		.size	_ZN11FileBrowser26GetCurrentSelectedFilepathEv, .-_ZN11FileBrowser26GetCurrentSelectedFilepa
 1470              		.section	.text._ZN11FileBrowser18GetItemDisplayNameEi,"axG",@progbits,_ZN11FileBrowser18GetItemDis
 1471              		.align 2
 1472              		.weak	_ZN11FileBrowser18GetItemDisplayNameEi
 1473              		.type	_ZN11FileBrowser18GetItemDisplayNameEi, @function
 1474              	_ZN11FileBrowser18GetItemDisplayNameEi:
 1475              	.LFB1599:
 1476              		.loc 2 74 0
 1477              		.cfi_startproc
 1478              	.LVL164:
 1479 0000 7C0802A6 		mflr 0
 1480 0004 9421FFE0 		stwu 1,-32(1)
 1481              	.LCFI40:
 1482              		.cfi_def_cfa_offset 32
 1483              		.cfi_register 65, 0
 1484 0008 93E1001C 		stw 31,28(1)
 1485 000c 7C7F1B78 		mr 31,3
 1486              		.cfi_offset 31, -4
 1487 0010 90010024 		stw 0,36(1)
 1488              	.LBB2427:
 1489              	.LBB2428:
 1490              		.loc 4 497 0
 1491 0014 81240034 		lwz 9,52(4)
 1492              	.LBB2429:
 1493              	.LBB2430:
 1494              	.LBB2431:
 1495              		.loc 3 571 0
 1496 0018 80040038 		lwz 0,56(4)
 1497              		.cfi_offset 65, 4
 1498              	.LVL165:
 1499 001c 7C090050 		subf 0,9,0
 1500 0020 7C001670 		srawi 0,0,2
 1501              	.LBE2431:
 1502              	.LBE2430:
 1503              		.loc 3 718 0
 1504 0024 7F850040 		cmplw 7,5,0
 1505 0028 409C0064 		bge- 7,.L81
 1506              	.LVL166:
 1507              	.LBE2429:
 1508              	.LBE2428:
 1509              	.LBE2427:
 1510              		.loc 2 74 0
 1511 002c 54A5103A 		slwi 5,5,2
 1512              	.LVL167:
 1513 0030 7C89282E 		lwzx 4,9,5
 1514              	.LVL168:
 1515              	.LBB2434:
 1516              	.LBB2435:
 1517              	.LBB2436:
 1518              		.loc 5 711 0
 1519 0034 81240004 		lwz 9,4(4)
 1520              	.LVL169:
 1521              	.LBE2436:
 1522              	.LBE2435:
 1523              	.LBE2434:
 1524              		.loc 2 74 0
 1525 0038 8009FFF4 		lwz 0,-12(9)
 1526 003c 2F800000 		cmpwi 7,0,0
 1527 0040 409E002C 		bne- 7,.L82
 1528              		.loc 2 74 0 is_stmt 0 discriminator 2
 1529 0044 3C800000 		lis 4,.LC3@ha
 1530              	.LVL170:
 1531 0048 38A10008 		addi 5,1,8
 1532 004c 38840000 		la 4,.LC3@l(4)
 1533 0050 48000001 		bl _ZNSbIwSt11char_traitsIwESaIwEEC1EPKwRKS1_
 1534              	.LVL171:
 1535 0054 80010024 		lwz 0,36(1)
 1536 0058 7FE3FB78 		mr 3,31
 1537 005c 83E1001C 		lwz 31,28(1)
 1538              	.LVL172:
 1539 0060 7C0803A6 		mtlr 0
 1540 0064 38210020 		addi 1,1,32
 1541              		.cfi_remember_state
 1542              	.LCFI41:
 1543              		.cfi_def_cfa_offset 0
 1544              		.cfi_restore 31
 1545 0068 4E800020 		blr
 1546              	.LVL173:
 1547              	.L82:
 1548              	.LCFI42:
 1549              		.cfi_restore_state
 1550              		.loc 2 74 0 discriminator 1
 1551 006c 38840004 		addi 4,4,4
 1552              	.LVL174:
 1553 0070 48000001 		bl _ZNSbIwSt11char_traitsIwESaIwEEC1ERKS2_
 1554              	.LVL175:
 1555 0074 80010024 		lwz 0,36(1)
 1556 0078 7FE3FB78 		mr 3,31
 1557 007c 83E1001C 		lwz 31,28(1)
 1558              	.LVL176:
 1559 0080 7C0803A6 		mtlr 0
 1560 0084 38210020 		addi 1,1,32
 1561              		.cfi_remember_state
 1562              		.cfi_restore 31
 1563              	.LCFI43:
 1564              		.cfi_def_cfa_offset 0
 1565 0088 4E800020 		blr
 1566              	.LVL177:
 1567              	.L81:
 1568              	.LCFI44:
 1569              		.cfi_restore_state
 1570              	.LBB2437:
 1571              	.LBB2433:
 1572              	.LBB2432:
 1573              		.loc 3 719 0 is_stmt 1
 1574 008c 3C600000 		lis 3,.LC0@ha
 1575              	.LVL178:
 1576 0090 38630000 		la 3,.LC0@l(3)
 1577 0094 48000001 		bl _ZSt20__throw_out_of_rangePKc
 1578              	.LVL179:
 1579              	.LVL180:
 1580              	.LVL181:
 1581              	.LVL182:
 1582              	.LVL183:
 1583              	.LVL184:
 1584              	.LBE2432:
 1585              	.LBE2433:
 1586              	.LBE2437:
 1587              		.cfi_endproc
 1588              	.LFE1599:
 1589              		.size	_ZN11FileBrowser18GetItemDisplayNameEi, .-_ZN11FileBrowser18GetItemDisplayNameEi
 1590              		.section	".text"
 1591              		.align 2
 1592              		.type	_ZL16FileSortCallbackPK19_BrowserEntryStructS1_, @function
 1593              	_ZL16FileSortCallbackPK19_BrowserEntryStructS1_:
 1594              	.LFB1757:
 1595              		.loc 4 273 0
 1596              		.cfi_startproc
 1597              		.cfi_personality 0,__gxx_personality_v0
 1598              		.cfi_lsda 0,.LLSDA1757
 1599              	.LVL185:
 1600 01bc 7C0802A6 		mflr 0
 1601 01c0 9421FFC0 		stwu 1,-64(1)
 1602              	.LCFI45:
 1603              		.cfi_def_cfa_offset 64
 1604              		.cfi_register 65, 0
 1605 01c4 93A10034 		stw 29,52(1)
 1606              		.loc 4 275 0
 1607 01c8 3BA30004 		addi 29,3,4
 1608              		.cfi_offset 29, -12
 1609              	.LVL186:
 1610              		.loc 4 273 0
 1611 01cc 90010044 		stw 0,68(1)
 1612 01d0 93C10038 		stw 30,56(1)
 1613 01d4 7C7E1B78 		mr 30,3
 1614              		.cfi_offset 30, -8
 1615              		.cfi_offset 65, 4
 1616              	.LBB2550:
 1617              	.LBB2551:
 1618              	.LBB2552:
 1619              	.LBB2553:
 1620              	.LBB2554:
 1621              	.LBB2555:
 1622              		.loc 5 288 0
 1623 01d8 81230004 		lwz 9,4(3)
 1624              	.LBE2555:
 1625              	.LBE2554:
 1626              	.LBE2553:
 1627              	.LBE2552:
 1628              	.LBE2551:
 1629              	.LBE2550:
 1630              		.loc 4 273 0
 1631 01dc 93E1003C 		stw 31,60(1)
 1632 01e0 7C9F2378 		mr 31,4
 1633              		.cfi_offset 31, -4
 1634              	.LBB2562:
 1635              	.LBB2559:
 1636              	.LBB2556:
 1637              		.loc 5 311 0
 1638 01e4 8009FFFC 		lwz 0,-4(9)
 1639              	.LBE2556:
 1640              	.LBE2559:
 1641              	.LBE2562:
 1642              		.loc 4 273 0
 1643 01e8 93410028 		stw 26,40(1)
 1644              	.LBB2563:
 1645              	.LBB2560:
 1646              	.LBB2557:
 1647              		.loc 5 311 0
 1648 01ec 2F800000 		cmpwi 7,0,0
 1649              	.LBE2557:
 1650              	.LBE2560:
 1651              	.LBE2563:
 1652              		.loc 4 273 0
 1653 01f0 9361002C 		stw 27,44(1)
 1654 01f4 93810030 		stw 28,48(1)
 1655              	.LBB2564:
 1656              	.LBB2561:
 1657              	.LBB2558:
 1658              		.loc 5 311 0
 1659 01f8 419C0010 		blt- 7,.L84
 1660              		.cfi_offset 28, -16
 1661              		.cfi_offset 27, -20
 1662              		.cfi_offset 26, -24
 1663              		.loc 5 312 0
 1664 01fc 7FA3EB78 		mr 3,29
 1665              	.LVL187:
 1666              	.LEHB0:
 1667 0200 48000001 		bl _ZNSbIwSt11char_traitsIwESaIwEE12_M_leak_hardEv
 1668              	.LVL188:
 1669 0204 813E0004 		lwz 9,4(30)
 1670              	.L84:
 1671              	.LVL189:
 1672              	.LBE2558:
 1673              	.LBE2561:
 1674              	.LBE2564:
 1675              		.loc 4 275 0
 1676 0208 80090000 		lwz 0,0(9)
 1677 020c 2F80002E 		cmpwi 7,0,46
 1678 0210 419E013C 		beq- 7,.L85
 1679              	.LVL190:
 1680              	.LBB2565:
 1681              	.LBB2566:
 1682              	.LBB2567:
 1683              	.LBB2568:
 1684              	.LBB2569:
 1685              	.LBB2570:
 1686              		.loc 5 288 0 discriminator 2
 1687 0214 813F0004 		lwz 9,4(31)
 1688              	.LBE2570:
 1689              	.LBE2569:
 1690              	.LBE2568:
 1691              		.loc 5 311 0 discriminator 2
 1692 0218 8009FFFC 		lwz 0,-4(9)
 1693 021c 2F800000 		cmpwi 7,0,0
 1694 0220 419C0010 		blt- 7,.L86
 1695              		.loc 5 312 0
 1696 0224 387F0004 		addi 3,31,4
 1697 0228 48000001 		bl _ZNSbIwSt11char_traitsIwESaIwEE12_M_leak_hardEv
 1698 022c 813F0004 		lwz 9,4(31)
 1699              	.L86:
 1700              	.LVL191:
 1701              	.LBE2567:
 1702              	.LBE2566:
 1703              	.LBE2565:
 1704              		.loc 4 275 0 discriminator 2
 1705 0230 80090000 		lwz 0,0(9)
 1706 0234 2F80002E 		cmpwi 7,0,46
 1707 0238 419E0114 		beq- 7,.L85
 1708              	.LVL192:
 1709              	.L87:
 1710              		.loc 4 284 0
 1711 023c 881E0008 		lbz 0,8(30)
 1712 0240 2F800000 		cmpwi 7,0,0
 1713 0244 881F0008 		lbz 0,8(31)
 1714 0248 409E00CC 		bne- 7,.L128
 1715              		.loc 4 285 0 discriminator 1
 1716 024c 2F800000 		cmpwi 7,0,0
 1717 0250 409E016C 		bne- 7,.L123
 1718              	.L90:
 1719              		.loc 4 287 0
 1720 0254 38610018 		addi 3,1,24
 1721 0258 7FA4EB78 		mr 4,29
 1722 025c 48000001 		bl _ZNSbIwSt11char_traitsIwESaIwEEC1ERKS2_
 1723              	.LEHE0:
 1724 0260 38610014 		addi 3,1,20
 1725 0264 38810018 		addi 4,1,24
 1726              	.LEHB1:
 1727 0268 48000001 		bl _Z8wstr2strSbIwSt11char_traitsIwESaIwEE
 1728              	.LEHE1:
 1729              	.LVL193:
 1730 026c 38610010 		addi 3,1,16
 1731 0270 389F0004 		addi 4,31,4
 1732              	.LBB2571:
 1733              	.LBB2572:
 1734              	.LBB2573:
 1735              		.loc 5 288 0
 1736 0274 83C10014 		lwz 30,20(1)
 1737              	.LVL194:
 1738              	.LEHB2:
 1739              	.LBE2573:
 1740              	.LBE2572:
 1741              	.LBE2571:
 1742              		.loc 4 287 0
 1743 0278 48000001 		bl _ZNSbIwSt11char_traitsIwESaIwEEC1ERKS2_
 1744              	.LEHE2:
 1745              		.loc 4 287 0 is_stmt 0 discriminator 3
 1746 027c 3861000C 		addi 3,1,12
 1747 0280 38810010 		addi 4,1,16
 1748              	.LEHB3:
 1749 0284 48000001 		bl _Z8wstr2strSbIwSt11char_traitsIwESaIwEE
 1750              	.LEHE3:
 1751              	.LVL195:
 1752              	.LBB2574:
 1753              	.LBB2575:
 1754              	.LBB2576:
 1755              		.loc 5 288 0 is_stmt 1
 1756 0288 83E1000C 		lwz 31,12(1)
 1757              	.LVL196:
 1758              	.LBE2576:
 1759              	.LBE2575:
 1760              	.LBE2574:
 1761              		.loc 4 287 0
 1762 028c 7FC3F378 		mr 3,30
 1763 0290 7FE4FB78 		mr 4,31
 1764              	.LEHB4:
 1765 0294 48000001 		bl strcasecmp
 1766              	.LEHE4:
 1767              	.LBB2577:
 1768              	.LBB2578:
 1769              	.LBB2579:
 1770              	.LBB2580:
 1771              	.LBB2581:
 1772              		.loc 5 235 0
 1773 0298 3FC00000 		lis 30,_ZNSs4_Rep20_S_empty_rep_storageE@ha
 1774              	.LBE2581:
 1775              	.LBE2580:
 1776              		.loc 5 534 0
 1777 029c 381FFFF4 		addi 0,31,-12
 1778              	.LBB2591:
 1779              	.LBB2588:
 1780              		.loc 5 235 0
 1781 02a0 3BDE0000 		la 30,_ZNSs4_Rep20_S_empty_rep_storageE@l(30)
 1782              	.LBE2588:
 1783              	.LBE2591:
 1784              	.LBE2579:
 1785              	.LBE2578:
 1786              	.LBE2577:
 1787              		.loc 4 287 0
 1788 02a4 547C0FFE 		srwi 28,3,31
 1789              	.LVL197:
 1790              	.LBB2598:
 1791              	.LBB2596:
 1792              	.LBB2594:
 1793              	.LBB2592:
 1794              	.LBB2589:
 1795              		.loc 5 235 0
 1796 02a8 7F80F000 		cmpw 7,0,30
 1797 02ac 409E0140 		bne- 7,.L129
 1798              	.LVL198:
 1799              	.L96:
 1800              	.LBE2589:
 1801              	.LBE2592:
 1802              	.LBE2594:
 1803              	.LBE2596:
 1804              	.LBE2598:
 1805              	.LBB2599:
 1806              	.LBB2600:
 1807              	.LBB2601:
 1808              	.LBB2602:
 1809              	.LBB2603:
 1810              	.LBB2604:
 1811              		.loc 5 288 0
 1812 02b0 81210010 		lwz 9,16(1)
 1813              	.LBE2604:
 1814              	.LBE2603:
 1815              	.LBE2602:
 1816              	.LBB2605:
 1817              	.LBB2606:
 1818              		.loc 5 235 0
 1819 02b4 3FE00000 		lis 31,_ZNSbIwSt11char_traitsIwESaIwEE4_Rep20_S_empty_rep_storageE@ha
 1820 02b8 3BFF0000 		la 31,_ZNSbIwSt11char_traitsIwESaIwEE4_Rep20_S_empty_rep_storageE@l(31)
 1821              	.LBE2606:
 1822              	.LBE2605:
 1823              		.loc 5 534 0
 1824 02bc 3869FFF4 		addi 3,9,-12
 1825              	.LVL199:
 1826              	.LBB2615:
 1827              	.LBB2613:
 1828              		.loc 5 235 0
 1829 02c0 7F83F800 		cmpw 7,3,31
 1830 02c4 409E014C 		bne- 7,.L130
 1831              	.LVL200:
 1832              	.L102:
 1833              	.LBE2613:
 1834              	.LBE2615:
 1835              	.LBE2601:
 1836              	.LBE2600:
 1837              	.LBE2599:
 1838              	.LBB2619:
 1839              	.LBB2620:
 1840              	.LBB2621:
 1841              	.LBB2622:
 1842              	.LBB2623:
 1843              	.LBB2624:
 1844              		.loc 5 288 0
 1845 02c8 81210014 		lwz 9,20(1)
 1846              	.LBE2624:
 1847              	.LBE2623:
 1848              	.LBE2622:
 1849              		.loc 5 534 0
 1850 02cc 3869FFF4 		addi 3,9,-12
 1851              	.LVL201:
 1852              	.LBB2625:
 1853              	.LBB2626:
 1854              		.loc 5 235 0
 1855 02d0 7F83F000 		cmpw 7,3,30
 1856 02d4 409E015C 		bne- 7,.L131
 1857              	.LVL202:
 1858              	.L108:
 1859              	.LBE2626:
 1860              	.LBE2625:
 1861              	.LBE2621:
 1862              	.LBE2620:
 1863              	.LBE2619:
 1864              	.LBB2637:
 1865              	.LBB2638:
 1866              	.LBB2639:
 1867              	.LBB2640:
 1868              	.LBB2641:
 1869              	.LBB2642:
 1870              		.loc 5 288 0
 1871 02d8 81210018 		lwz 9,24(1)
 1872              	.LBE2642:
 1873              	.LBE2641:
 1874              	.LBE2640:
 1875              		.loc 5 534 0
 1876 02dc 3869FFF4 		addi 3,9,-12
 1877              	.LVL203:
 1878              	.LBB2643:
 1879              	.LBB2644:
 1880              		.loc 5 235 0
 1881 02e0 7F83F800 		cmpw 7,3,31
 1882 02e4 409E016C 		bne- 7,.L132
 1883              	.LVL204:
 1884              	.L113:
 1885              	.LBE2644:
 1886              	.LBE2643:
 1887              	.LBE2639:
 1888              	.LBE2638:
 1889              	.LBE2637:
 1890              		.loc 4 288 0
 1891 02e8 80010044 		lwz 0,68(1)
 1892 02ec 7F83E378 		mr 3,28
 1893 02f0 83410028 		lwz 26,40(1)
 1894 02f4 7C0803A6 		mtlr 0
 1895 02f8 8361002C 		lwz 27,44(1)
 1896 02fc 83810030 		lwz 28,48(1)
 1897 0300 83A10034 		lwz 29,52(1)
 1898              	.LVL205:
 1899 0304 83C10038 		lwz 30,56(1)
 1900 0308 83E1003C 		lwz 31,60(1)
 1901 030c 38210040 		addi 1,1,64
 1902              		.cfi_remember_state
 1903              	.LCFI46:
 1904              		.cfi_def_cfa_offset 0
 1905              		.cfi_restore 31
 1906              		.cfi_restore 30
 1907              		.cfi_restore 29
 1908              		.cfi_restore 28
 1909              		.cfi_restore 27
 1910              		.cfi_restore 26
 1911 0310 4E800020 		blr
 1912              	.LVL206:
 1913              	.L128:
 1914              	.LCFI47:
 1915              		.cfi_restore_state
 1916              		.loc 4 284 0 discriminator 1
 1917 0314 2F800000 		cmpwi 7,0,0
 1918 0318 409EFF3C 		bne+ 7,.L90
 1919              		.loc 4 288 0
 1920 031c 80010044 		lwz 0,68(1)
 1921              		.loc 4 284 0
 1922 0320 3B800001 		li 28,1
 1923              		.loc 4 288 0
 1924 0324 7F83E378 		mr 3,28
 1925 0328 83410028 		lwz 26,40(1)
 1926 032c 7C0803A6 		mtlr 0
 1927 0330 8361002C 		lwz 27,44(1)
 1928 0334 83810030 		lwz 28,48(1)
 1929 0338 83A10034 		lwz 29,52(1)
 1930              	.LVL207:
 1931 033c 83C10038 		lwz 30,56(1)
 1932              	.LVL208:
 1933 0340 83E1003C 		lwz 31,60(1)
 1934              	.LVL209:
 1935 0344 38210040 		addi 1,1,64
 1936              		.cfi_remember_state
 1937              		.cfi_restore 26
 1938              		.cfi_restore 27
 1939              		.cfi_restore 28
 1940              		.cfi_restore 29
 1941              		.cfi_restore 30
 1942              		.cfi_restore 31
 1943              	.LCFI48:
 1944              		.cfi_def_cfa_offset 0
 1945 0348 4E800020 		blr
 1946              	.LVL210:
 1947              	.L85:
 1948              	.LCFI49:
 1949              		.cfi_restore_state
 1950              		.loc 4 277 0 discriminator 4
 1951 034c 3F600000 		lis 27,.LC4@ha
 1952 0350 7FA3EB78 		mr 3,29
 1953 0354 3B7B0004 		la 27,.LC4@l(27)
 1954 0358 3B800001 		li 28,1
 1955 035c 7F64DB78 		mr 4,27
 1956              	.LEHB5:
 1957 0360 48000001 		bl _ZNKSbIwSt11char_traitsIwESaIwEE7compareEPKw
 1958 0364 2F830000 		cmpwi 7,3,0
 1959 0368 419EFF80 		beq+ 7,.L113
 1960              		.loc 4 278 0
 1961 036c 3B5F0004 		addi 26,31,4
 1962 0370 7F64DB78 		mr 4,27
 1963 0374 7F43D378 		mr 3,26
 1964 0378 3B800000 		li 28,0
 1965 037c 48000001 		bl _ZNKSbIwSt11char_traitsIwESaIwEE7compareEPKw
 1966 0380 2F830000 		cmpwi 7,3,0
 1967 0384 419EFF64 		beq+ 7,.L113
 1968              		.loc 4 279 0
 1969 0388 3F600000 		lis 27,.LC5@ha
 1970 038c 7FA3EB78 		mr 3,29
 1971 0390 3B7B000C 		la 27,.LC5@l(27)
 1972 0394 3B800001 		li 28,1
 1973 0398 7F64DB78 		mr 4,27
 1974 039c 48000001 		bl _ZNKSbIwSt11char_traitsIwESaIwEE7compareEPKw
 1975 03a0 2F830000 		cmpwi 7,3,0
 1976 03a4 419EFF44 		beq+ 7,.L113
 1977              		.loc 4 280 0
 1978 03a8 7F43D378 		mr 3,26
 1979 03ac 7F64DB78 		mr 4,27
 1980 03b0 48000001 		bl _ZNKSbIwSt11char_traitsIwESaIwEE7compareEPKw
 1981 03b4 2F830000 		cmpwi 7,3,0
 1982 03b8 409EFE84 		bne+ 7,.L87
 1983              	.L123:
 1984              		.loc 4 288 0
 1985 03bc 80010044 		lwz 0,68(1)
 1986              		.loc 4 285 0
 1987 03c0 3B800000 		li 28,0
 1988              		.loc 4 288 0
 1989 03c4 7F83E378 		mr 3,28
 1990 03c8 83410028 		lwz 26,40(1)
 1991 03cc 7C0803A6 		mtlr 0
 1992 03d0 8361002C 		lwz 27,44(1)
 1993 03d4 83810030 		lwz 28,48(1)
 1994 03d8 83A10034 		lwz 29,52(1)
 1995              	.LVL211:
 1996 03dc 83C10038 		lwz 30,56(1)
 1997              	.LVL212:
 1998 03e0 83E1003C 		lwz 31,60(1)
 1999              	.LVL213:
 2000 03e4 38210040 		addi 1,1,64
 2001              		.cfi_remember_state
 2002              		.cfi_restore 26
 2003              		.cfi_restore 27
 2004              		.cfi_restore 28
 2005              		.cfi_restore 29
 2006              		.cfi_restore 30
 2007              		.cfi_restore 31
 2008              	.LCFI50:
 2009              		.cfi_def_cfa_offset 0
 2010 03e8 4E800020 		blr
 2011              	.LVL214:
 2012              	.L129:
 2013              	.LCFI51:
 2014              		.cfi_restore_state
 2015              	.LBB2655:
 2016              	.LBB2597:
 2017              	.LBB2595:
 2018              	.LBB2593:
 2019              	.LBB2590:
 2020              	.LBB2582:
 2021              	.LBB2583:
 2022              	.LBB2584:
 2023              		.file 6 "d:\\devkitpro\\devkitppc\\bin\\../lib/gcc/powerpc-eabi/4.6.3/../../../../powerpc-eabi/inc
 2024              		.loc 6 66 0
 2025 03ec 813FFFFC 		lwz 9,-4(31)
 2026              	.LVL215:
 2027              	.LBE2584:
 2028              	.LBE2583:
 2029              	.LBE2582:
 2030              		.loc 5 240 0
 2031 03f0 2F890000 		cmpwi 7,9,0
 2032              	.LBB2587:
 2033              	.LBB2586:
 2034              	.LBB2585:
 2035              		.loc 6 67 0
 2036 03f4 3929FFFF 		addi 9,9,-1
 2037 03f8 913FFFFC 		stw 9,-4(31)
 2038              	.LBE2585:
 2039              	.LBE2586:
 2040              	.LBE2587:
 2041              		.loc 5 240 0
 2042 03fc 419DFEB4 		bgt+ 7,.L96
 2043              		.loc 5 244 0
 2044 0400 7C030378 		mr 3,0
 2045 0404 3881000B 		addi 4,1,11
 2046 0408 48000001 		bl _ZNSs4_Rep10_M_destroyERKSaIcE
 2047              	.LVL216:
 2048 040c 4BFFFEA4 		b .L96
 2049              	.LVL217:
 2050              	.L130:
 2051              	.LBE2590:
 2052              	.LBE2593:
 2053              	.LBE2595:
 2054              	.LBE2597:
 2055              	.LBE2655:
 2056              	.LBB2656:
 2057              	.LBB2618:
 2058              	.LBB2617:
 2059              	.LBB2616:
 2060              	.LBB2614:
 2061              	.LBB2607:
 2062              	.LBB2608:
 2063              	.LBB2609:
 2064              		.loc 6 66 0
 2065 0410 8169FFFC 		lwz 11,-4(9)
 2066              	.LVL218:
 2067              	.LBE2609:
 2068              	.LBE2608:
 2069              	.LBE2607:
 2070              		.loc 5 240 0
 2071 0414 2F8B0000 		cmpwi 7,11,0
 2072              	.LBB2612:
 2073              	.LBB2611:
 2074              	.LBB2610:
 2075              		.loc 6 67 0
 2076 0418 396BFFFF 		addi 11,11,-1
 2077 041c 9169FFFC 		stw 11,-4(9)
 2078              	.LBE2610:
 2079              	.LBE2611:
 2080              	.LBE2612:
 2081              		.loc 5 240 0
 2082 0420 419DFEA8 		bgt+ 7,.L102
 2083              		.loc 5 244 0
 2084 0424 3881000A 		addi 4,1,10
 2085 0428 48000001 		bl _ZNSbIwSt11char_traitsIwESaIwEE4_Rep10_M_destroyERKS1_
 2086              	.LVL219:
 2087 042c 4BFFFE9C 		b .L102
 2088              	.LVL220:
 2089              	.L131:
 2090              	.LBE2614:
 2091              	.LBE2616:
 2092              	.LBE2617:
 2093              	.LBE2618:
 2094              	.LBE2656:
 2095              	.LBB2657:
 2096              	.LBB2636:
 2097              	.LBB2635:
 2098              	.LBB2634:
 2099              	.LBB2633:
 2100              	.LBB2627:
 2101              	.LBB2628:
 2102              	.LBB2629:
 2103              		.loc 6 66 0
 2104 0430 8169FFFC 		lwz 11,-4(9)
 2105              	.LVL221:
 2106              	.LBE2629:
 2107              	.LBE2628:
 2108              	.LBE2627:
 2109              		.loc 5 240 0
 2110 0434 2F8B0000 		cmpwi 7,11,0
 2111              	.LBB2632:
 2112              	.LBB2631:
 2113              	.LBB2630:
 2114              		.loc 6 67 0
 2115 0438 396BFFFF 		addi 11,11,-1
 2116 043c 9169FFFC 		stw 11,-4(9)
 2117              	.LBE2630:
 2118              	.LBE2631:
 2119              	.LBE2632:
 2120              		.loc 5 240 0
 2121 0440 419DFE98 		bgt+ 7,.L108
 2122              		.loc 5 244 0
 2123 0444 38810009 		addi 4,1,9
 2124 0448 48000001 		bl _ZNSs4_Rep10_M_destroyERKSaIcE
 2125              	.LVL222:
 2126 044c 4BFFFE8C 		b .L108
 2127              	.LVL223:
 2128              	.L132:
 2129              	.LBE2633:
 2130              	.LBE2634:
 2131              	.LBE2635:
 2132              	.LBE2636:
 2133              	.LBE2657:
 2134              	.LBB2658:
 2135              	.LBB2654:
 2136              	.LBB2653:
 2137              	.LBB2652:
 2138              	.LBB2651:
 2139              	.LBB2645:
 2140              	.LBB2646:
 2141              	.LBB2647:
 2142              		.loc 6 66 0
 2143 0450 8169FFFC 		lwz 11,-4(9)
 2144              	.LVL224:
 2145              	.LBE2647:
 2146              	.LBE2646:
 2147              	.LBE2645:
 2148              		.loc 5 240 0
 2149 0454 2F8B0000 		cmpwi 7,11,0
 2150              	.LBB2650:
 2151              	.LBB2649:
 2152              	.LBB2648:
 2153              		.loc 6 67 0
 2154 0458 396BFFFF 		addi 11,11,-1
 2155 045c 9169FFFC 		stw 11,-4(9)
 2156              	.LBE2648:
 2157              	.LBE2649:
 2158              	.LBE2650:
 2159              		.loc 5 240 0
 2160 0460 419DFE88 		bgt+ 7,.L113
 2161              		.loc 5 244 0
 2162 0464 38810008 		addi 4,1,8
 2163 0468 48000001 		bl _ZNSbIwSt11char_traitsIwESaIwEE4_Rep10_M_destroyERKS1_
 2164              	.LVL225:
 2165 046c 4BFFFE7C 		b .L113
 2166              	.LVL226:
 2167              	.L125:
 2168 0470 7C7F1B78 		mr 31,3
 2169              	.LVL227:
 2170              	.L116:
 2171              	.LBE2651:
 2172              	.LBE2652:
 2173              	.LBE2653:
 2174              	.LBE2654:
 2175              	.LBE2658:
 2176              		.loc 4 287 0
 2177 0474 38610014 		addi 3,1,20
 2178              	.LVL228:
 2179 0478 48000001 		bl _ZNSsD1Ev
 2180              	.LVL229:
 2181              	.L117:
 2182 047c 38610018 		addi 3,1,24
 2183 0480 48000001 		bl _ZNSbIwSt11char_traitsIwESaIwEED1Ev
 2184 0484 7FE3FB78 		mr 3,31
 2185 0488 48000001 		bl _Unwind_Resume
 2186              	.LEHE5:
 2187              	.LVL230:
 2188              	.L126:
 2189 048c 7C7F1B78 		mr 31,3
 2190              	.LVL231:
 2191              	.L115:
 2192 0490 38610010 		addi 3,1,16
 2193 0494 48000001 		bl _ZNSbIwSt11char_traitsIwESaIwEED1Ev
 2194 0498 4BFFFFDC 		b .L116
 2195              	.LVL232:
 2196              	.L127:
 2197 049c 7C7F1B78 		mr 31,3
 2198 04a0 3861000C 		addi 3,1,12
 2199              	.LVL233:
 2200 04a4 48000001 		bl _ZNSsD1Ev
 2201              	.LVL234:
 2202 04a8 4BFFFFE8 		b .L115
 2203              	.LVL235:
 2204              	.L124:
 2205 04ac 7C7F1B78 		mr 31,3
 2206              	.LVL236:
 2207 04b0 4BFFFFCC 		b .L117
 2208              		.cfi_endproc
 2209              	.LFE1757:
 2210              		.globl __gxx_personality_v0
 2211              		.section	.gcc_except_table,"a",@progbits
 2212              	.LLSDA1757:
 2213 0000 FF       		.byte	0xff
 2214 0001 FF       		.byte	0xff
 2215 0002 01       		.byte	0x1
 2216 0003 22       		.uleb128 .LLSDACSE1757-.LLSDACSB1757
 2217              	.LLSDACSB1757:
 2218 0004 44       		.uleb128 .LEHB0-.LFB1757
 2219 0005 60       		.uleb128 .LEHE0-.LEHB0
 2220 0006 00       		.uleb128 0
 2221 0007 00       		.uleb128 0
 2222 0008 AC01     		.uleb128 .LEHB1-.LFB1757
 2223 000a 04       		.uleb128 .LEHE1-.LEHB1
 2224 000b F005     		.uleb128 .L124-.LFB1757
 2225 000d 00       		.uleb128 0
 2226 000e BC01     		.uleb128 .LEHB2-.LFB1757
 2227 0010 04       		.uleb128 .LEHE2-.LEHB2
 2228 0011 B405     		.uleb128 .L125-.LFB1757
 2229 0013 00       		.uleb128 0
 2230 0014 C801     		.uleb128 .LEHB3-.LFB1757
 2231 0016 04       		.uleb128 .LEHE3-.LEHB3
 2232 0017 D005     		.uleb128 .L126-.LFB1757
 2233 0019 00       		.uleb128 0
 2234 001a D801     		.uleb128 .LEHB4-.LFB1757
 2235 001c 04       		.uleb128 .LEHE4-.LEHB4
 2236 001d E005     		.uleb128 .L127-.LFB1757
 2237 001f 00       		.uleb128 0
 2238 0020 A403     		.uleb128 .LEHB5-.LFB1757
 2239 0022 AC02     		.uleb128 .LEHE5-.LEHB5
 2240 0024 00       		.uleb128 0
 2241 0025 00       		.uleb128 0
 2242              	.LLSDACSE1757:
 2243              		.section	".text"
 2244              		.size	_ZL16FileSortCallbackPK19_BrowserEntryStructS1_, .-_ZL16FileSortCallbackPK19_BrowserEntryStr
 2245              		.align 2
 2246              		.type	_ZSt16__insertion_sortIN9__gnu_cxx17__normal_iteratorIPP19_BrowserEntryStructSt6vectorIS3_Sa
 2247              	_ZSt16__insertion_sortIN9__gnu_cxx17__normal_iteratorIPP19_BrowserEntryStructSt6vectorIS3_SaIS3_EEE
 2248              	.LFB2187:
 2249              		.file 7 "d:\\devkitpro\\devkitppc\\bin\\../lib/gcc/powerpc-eabi/4.6.3/../../../../powerpc-eabi/inc
 2250              		.loc 7 2122 0
 2251              		.cfi_startproc
 2252              	.LVL237:
 2253 04b4 7C0802A6 		mflr 0
 2254 04b8 9421FFD8 		stwu 1,-40(1)
 2255              	.LCFI52:
 2256              		.cfi_def_cfa_offset 40
 2257              		.cfi_register 65, 0
 2258 04bc 93610014 		stw 27,20(1)
 2259 04c0 9001002C 		stw 0,44(1)
 2260 04c4 93A1001C 		stw 29,28(1)
 2261 04c8 83640000 		lwz 27,0(4)
 2262              		.cfi_offset 29, -12
 2263              		.cfi_offset 65, 4
 2264              		.cfi_offset 27, -20
 2265 04cc 83A30000 		lwz 29,0(3)
 2266              	.LVL238:
 2267 04d0 9321000C 		stw 25,12(1)
 2268              	.LBB2683:
 2269              		.loc 7 2125 0
 2270 04d4 7F9DD800 		cmpw 7,29,27
 2271              	.LBE2683:
 2272              		.loc 7 2122 0
 2273 04d8 93410010 		stw 26,16(1)
 2274 04dc 93810018 		stw 28,24(1)
 2275 04e0 93C10020 		stw 30,32(1)
 2276 04e4 93E10024 		stw 31,36(1)
 2277              	.LBB2723:
 2278              		.loc 7 2125 0
 2279 04e8 419E0074 		beq- 7,.L133
 2280              		.cfi_offset 31, -4
 2281              		.cfi_offset 30, -8
 2282              		.cfi_offset 28, -16
 2283              		.cfi_offset 26, -24
 2284              		.cfi_offset 25, -28
 2285              	.LVL239:
 2286              	.LBB2684:
 2287              	.LBB2685:
 2288              	.LBB2686:
 2289              		.file 8 "d:\\devkitpro\\devkitppc\\bin\\../lib/gcc/powerpc-eabi/4.6.3/../../../../powerpc-eabi/inc
 2290              		.loc 8 773 0
 2291 04ec 381D0004 		addi 0,29,4
 2292              	.LBE2686:
 2293              	.LBE2685:
 2294              		.loc 7 2127 0
 2295 04f0 7F9B0000 		cmpw 7,27,0
 2296 04f4 419E0068 		beq- 7,.L133
 2297 04f8 7FBFEB78 		mr 31,29
 2298              		.loc 7 2122 0
 2299 04fc 3BDD0008 		addi 30,29,8
 2300              	.LVL240:
 2301              	.L140:
 2302 0500 3BFF0004 		addi 31,31,4
 2303              	.LBB2687:
 2304              		.loc 7 2129 0
 2305 0504 809D0000 		lwz 4,0(29)
 2306 0508 807F0000 		lwz 3,0(31)
 2307              	.LBE2687:
 2308              		.loc 7 2122 0
 2309 050c 7FFAFB78 		mr 26,31
 2310              	.LVL241:
 2311              	.LBB2719:
 2312              		.loc 7 2129 0
 2313 0510 4BFFFCAD 		bl _ZL16FileSortCallbackPK19_BrowserEntryStructS1_
 2314 0514 2F830000 		cmpwi 7,3,0
 2315 0518 409E0070 		bne- 7,.L142
 2316              	.LVL242:
 2317              	.LBB2688:
 2318              	.LBB2689:
 2319              		.loc 7 2084 0
 2320 051c 833F0000 		lwz 25,0(31)
 2321              	.LVL243:
 2322 0520 7FFCFB78 		mr 28,31
 2323 0524 48000010 		b .L138
 2324              	.LVL244:
 2325              	.L139:
 2326              		.loc 7 2089 0
 2327 0528 801C0000 		lwz 0,0(28)
 2328 052c 901A0000 		stw 0,0(26)
 2329              	.LVL245:
 2330 0530 7F9AE378 		mr 26,28
 2331              	.LVL246:
 2332              	.L138:
 2333              		.loc 7 2087 0
 2334 0534 849CFFFC 		lwzu 4,-4(28)
 2335 0538 7F23CB78 		mr 3,25
 2336 053c 4BFFFC81 		bl _ZL16FileSortCallbackPK19_BrowserEntryStructS1_
 2337 0540 2F830000 		cmpwi 7,3,0
 2338 0544 409EFFE4 		bne+ 7,.L139
 2339              	.LVL247:
 2340              		.loc 7 2093 0
 2341 0548 933A0000 		stw 25,0(26)
 2342 054c 7FDCF378 		mr 28,30
 2343              	.LVL248:
 2344              	.L137:
 2345              	.LBE2689:
 2346              	.LBE2688:
 2347              	.LBE2719:
 2348              		.loc 7 2127 0
 2349 0550 7F9BE000 		cmpw 7,27,28
 2350              	.LBB2720:
 2351              	.LBB2691:
 2352              	.LBB2690:
 2353              		.loc 7 2093 0
 2354 0554 3BDE0004 		addi 30,30,4
 2355              	.LVL249:
 2356              	.LBE2690:
 2357              	.LBE2691:
 2358              	.LBE2720:
 2359              		.loc 7 2127 0
 2360 0558 409EFFA8 		bne+ 7,.L140
 2361              	.LVL250:
 2362              	.L133:
 2363              	.LBE2684:
 2364              	.LBE2723:
 2365              		.loc 7 2139 0
 2366 055c 8001002C 		lwz 0,44(1)
 2367 0560 8321000C 		lwz 25,12(1)
 2368 0564 7C0803A6 		mtlr 0
 2369 0568 83410010 		lwz 26,16(1)
 2370 056c 83610014 		lwz 27,20(1)
 2371 0570 83810018 		lwz 28,24(1)
 2372 0574 83A1001C 		lwz 29,28(1)
 2373              	.LVL251:
 2374 0578 83C10020 		lwz 30,32(1)
 2375 057c 83E10024 		lwz 31,36(1)
 2376 0580 38210028 		addi 1,1,40
 2377              		.cfi_remember_state
 2378              	.LCFI53:
 2379              		.cfi_def_cfa_offset 0
 2380              		.cfi_restore 31
 2381              		.cfi_restore 30
 2382              		.cfi_restore 29
 2383              		.cfi_restore 28
 2384              		.cfi_restore 27
 2385              		.cfi_restore 26
 2386              		.cfi_restore 25
 2387 0584 4E800020 		blr
 2388              	.LVL252:
 2389              	.L142:
 2390              	.LCFI54:
 2391              		.cfi_restore_state
 2392              	.LBB2724:
 2393              	.LBB2722:
 2394              	.LBB2721:
 2395              	.LBB2692:
 2396              	.LBB2693:
 2397              	.LBB2694:
 2398              	.LBB2695:
 2399              	.LBB2696:
 2400              	.LBB2697:
 2401              	.LBB2698:
 2402              		.file 9 "d:\\devkitpro\\devkitppc\\bin\\../lib/gcc/powerpc-eabi/4.6.3/../../../../powerpc-eabi/inc
 2403              		.loc 9 559 0
 2404 0588 7CBDF850 		subf 5,29,31
 2405              	.LBE2698:
 2406              	.LBE2697:
 2407              	.LBE2696:
 2408              	.LBE2695:
 2409              	.LBE2694:
 2410              	.LBE2693:
 2411              		.loc 7 2132 0
 2412 058c 835F0000 		lwz 26,0(31)
 2413              	.LVL253:
 2414              	.LBB2714:
 2415              	.LBB2711:
 2416              	.LBB2708:
 2417              	.LBB2705:
 2418              	.LBB2702:
 2419              	.LBB2699:
 2420              		.loc 9 560 0
 2421 0590 7CA51671 		srawi. 5,5,2
 2422              	.LBE2699:
 2423              	.LBE2702:
 2424              	.LBE2705:
 2425              	.LBE2708:
 2426              	.LBE2711:
 2427              	.LBE2714:
 2428              	.LBB2715:
 2429              	.LBB2716:
 2430              		.loc 8 773 0
 2431 0594 7FDCF378 		mr 28,30
 2432              	.LVL254:
 2433              	.LBE2716:
 2434              	.LBE2715:
 2435              	.LBB2717:
 2436              	.LBB2712:
 2437              	.LBB2709:
 2438              	.LBB2706:
 2439              	.LBB2703:
 2440              	.LBB2700:
 2441              		.loc 9 560 0
 2442 0598 4082000C 		bne- 0,.L143
 2443              	.LVL255:
 2444              	.LBE2700:
 2445              	.LBE2703:
 2446              	.LBE2706:
 2447              	.LBE2709:
 2448              	.LBE2712:
 2449              	.LBE2717:
 2450              		.loc 7 2134 0
 2451 059c 935D0000 		stw 26,0(29)
 2452 05a0 4BFFFFB0 		b .L137
 2453              	.LVL256:
 2454              	.L143:
 2455              	.LBB2718:
 2456              	.LBB2713:
 2457              	.LBB2710:
 2458              	.LBB2707:
 2459              	.LBB2704:
 2460              	.LBB2701:
 2461              		.loc 9 561 0
 2462 05a4 54A5103A 		slwi 5,5,2
 2463 05a8 7FA4EB78 		mr 4,29
 2464 05ac 7C65F050 		subf 3,5,30
 2465 05b0 48000001 		bl memmove
 2466              	.LVL257:
 2467              	.LBE2701:
 2468              	.LBE2704:
 2469              	.LBE2707:
 2470              	.LBE2710:
 2471              	.LBE2713:
 2472              	.LBE2718:
 2473              		.loc 7 2134 0
 2474 05b4 935D0000 		stw 26,0(29)
 2475 05b8 4BFFFF98 		b .L137
 2476              	.LBE2692:
 2477              	.LBE2721:
 2478              	.LBE2722:
 2479              	.LBE2724:
 2480              		.cfi_endproc
 2481              	.LFE2187:
 2482              		.size	_ZSt16__insertion_sortIN9__gnu_cxx17__normal_iteratorIPP19_BrowserEntryStructSt6vectorIS3_Sa
 2483              		.align 2
 2484              		.type	_ZSt13__adjust_heapIN9__gnu_cxx17__normal_iteratorIPP19_BrowserEntryStructSt6vectorIS3_SaIS3
 2485              	_ZSt13__adjust_heapIN9__gnu_cxx17__normal_iteratorIPP19_BrowserEntryStructSt6vectorIS3_SaIS3_EEEEiS
 2486              	.LFB2183:
 2487              		.file 10 "d:\\devkitpro\\devkitppc\\bin\\../lib/gcc/powerpc-eabi/4.6.3/../../../../powerpc-eabi/in
 2488              		.loc 10 297 0
 2489              		.cfi_startproc
 2490              	.LVL258:
 2491 05bc 9421FFD0 		stwu 1,-48(1)
 2492              	.LCFI55:
 2493              		.cfi_def_cfa_offset 48
 2494 05c0 7C0802A6 		mflr 0
 2495 05c4 93C10028 		stw 30,40(1)
 2496              	.LBB2725:
 2497              		.loc 10 302 0
 2498 05c8 3BC5FFFF 		addi 30,5,-1
 2499              		.cfi_offset 30, -8
 2500              		.cfi_register 65, 0
 2501 05cc 7FDE0E70 		srawi 30,30,1
 2502 05d0 7FDE0194 		addze 30,30
 2503              	.LBE2725:
 2504              		.loc 10 297 0
 2505 05d4 90010034 		stw 0,52(1)
 2506              	.LBB2750:
 2507              		.loc 10 302 0
 2508 05d8 7F84F000 		cmpw 7,4,30
 2509              	.LBE2750:
 2510              		.loc 10 297 0
 2511 05dc 92C10008 		stw 22,8(1)
 2512 05e0 93210014 		stw 25,20(1)
 2513 05e4 7CD63378 		mr 22,6
 2514              		.cfi_offset 25, -28
 2515              		.cfi_offset 22, -40
 2516              		.cfi_offset 65, 4
 2517 05e8 93810020 		stw 28,32(1)
 2518              	.LBB2751:
 2519              		.loc 10 302 0
 2520 05ec 7C992378 		mr 25,4
 2521              	.LBE2751:
 2522              		.loc 10 297 0
 2523 05f0 93A10024 		stw 29,36(1)
 2524 05f4 7CBC2B78 		mr 28,5
 2525              		.cfi_offset 29, -12
 2526              		.cfi_offset 28, -16
 2527 05f8 93E1002C 		stw 31,44(1)
 2528 05fc 7C9D2378 		mr 29,4
 2529 0600 92E1000C 		stw 23,12(1)
 2530 0604 93010010 		stw 24,16(1)
 2531 0608 93410018 		stw 26,24(1)
 2532 060c 9361001C 		stw 27,28(1)
 2533              		.loc 10 297 0
 2534 0610 83E30000 		lwz 31,0(3)
 2535              		.cfi_offset 27, -20
 2536              		.cfi_offset 26, -24
 2537              		.cfi_offset 24, -32
 2538              		.cfi_offset 23, -36
 2539              		.cfi_offset 31, -4
 2540              	.LVL259:
 2541              	.LBB2752:
 2542              		.loc 10 302 0
 2543 0614 409C0164 		bge- 7,.L156
 2544              	.LVL260:
 2545              	.L155:
 2546              		.loc 10 304 0
 2547 0618 39390001 		addi 9,25,1
 2548 061c 5538083C 		slwi 24,9,1
 2549              	.LVL261:
 2550              	.LBB2726:
 2551              	.LBB2727:
 2552              		.loc 8 773 0
 2553 0620 55291838 		slwi 9,9,3
 2554              	.LBE2727:
 2555              	.LBE2726:
 2556              		.loc 10 305 0
 2557 0624 3B78FFFF 		addi 27,24,-1
 2558 0628 7C7F482E 		lwzx 3,31,9
 2559              	.LBB2729:
 2560              	.LBB2730:
 2561              		.loc 8 773 0
 2562 062c 577A103A 		slwi 26,27,2
 2563              	.LBE2730:
 2564              	.LBE2729:
 2565              	.LBB2732:
 2566              	.LBB2728:
 2567 0630 7EFF4A14 		add 23,31,9
 2568              	.LVL262:
 2569              	.LBE2728:
 2570              	.LBE2732:
 2571              		.loc 10 305 0
 2572 0634 7C9FD02E 		lwzx 4,31,26
 2573              	.LBB2733:
 2574              	.LBB2731:
 2575              		.loc 8 773 0
 2576 0638 7F5FD214 		add 26,31,26
 2577              	.LBE2731:
 2578              	.LBE2733:
 2579              		.loc 10 305 0
 2580 063c 4BFFFB81 		bl _ZL16FileSortCallbackPK19_BrowserEntryStructS1_
 2581              		.loc 10 308 0
 2582 0640 5729103A 		slwi 9,25,2
 2583              		.loc 10 305 0
 2584 0644 2F830000 		cmpwi 7,3,0
 2585 0648 409E000C 		bne- 7,.L147
 2586              		.loc 10 304 0
 2587 064c 7F1BC378 		mr 27,24
 2588              		.loc 10 305 0
 2589 0650 7EFABB78 		mr 26,23
 2590              	.L147:
 2591              	.LVL263:
 2592              		.loc 10 302 0
 2593 0654 7F9BF000 		cmpw 7,27,30
 2594              		.loc 10 308 0
 2595 0658 801A0000 		lwz 0,0(26)
 2596              		.loc 10 302 0
 2597 065c 7F79DB78 		mr 25,27
 2598              	.LVL264:
 2599              		.loc 10 308 0
 2600 0660 7C1F492E 		stwx 0,31,9
 2601              	.LVL265:
 2602              		.loc 10 302 0
 2603 0664 419CFFB4 		blt+ 7,.L155
 2604              	.LVL266:
 2605              	.L146:
 2606              		.loc 10 311 0
 2607 0668 73800001 		andi. 0,28,1
 2608 066c 40820018 		bne- 0,.L149
 2609 0670 3B9CFFFE 		addi 28,28,-2
 2610              	.LVL267:
 2611 0674 7F9C0E70 		srawi 28,28,1
 2612 0678 7F9C0194 		addze 28,28
 2613              	.LVL268:
 2614 067c 7F9BE000 		cmpw 7,27,28
 2615 0680 419E00DC 		beq- 7,.L157
 2616              	.LVL269:
 2617              	.L149:
 2618              	.LBB2734:
 2619              	.LBB2735:
 2620              		.loc 10 182 0
 2621 0684 7F9BE800 		cmpw 7,27,29
 2622 0688 419D0040 		bgt- 7,.L158
 2623              	.LVL270:
 2624              	.L150:
 2625              	.LBE2735:
 2626              	.LBE2734:
 2627              	.LBE2752:
 2628              		.loc 10 320 0
 2629 068c 80010034 		lwz 0,52(1)
 2630              	.LBB2753:
 2631              	.LBB2744:
 2632              	.LBB2740:
 2633              		.loc 10 189 0
 2634 0690 92DA0000 		stw 22,0(26)
 2635              	.LBE2740:
 2636              	.LBE2744:
 2637              	.LBE2753:
 2638              		.loc 10 320 0
 2639 0694 7C0803A6 		mtlr 0
 2640 0698 82C10008 		lwz 22,8(1)
 2641              	.LVL271:
 2642 069c 82E1000C 		lwz 23,12(1)
 2643 06a0 83010010 		lwz 24,16(1)
 2644 06a4 83210014 		lwz 25,20(1)
 2645 06a8 83410018 		lwz 26,24(1)
 2646              	.LVL272:
 2647 06ac 8361001C 		lwz 27,28(1)
 2648 06b0 83810020 		lwz 28,32(1)
 2649 06b4 83A10024 		lwz 29,36(1)
 2650              	.LVL273:
 2651 06b8 83C10028 		lwz 30,40(1)
 2652 06bc 83E1002C 		lwz 31,44(1)
 2653              	.LVL274:
 2654 06c0 38210030 		addi 1,1,48
 2655              		.cfi_remember_state
 2656              	.LCFI56:
 2657              		.cfi_def_cfa_offset 0
 2658              		.cfi_restore 31
 2659              		.cfi_restore 30
 2660              		.cfi_restore 29
 2661              		.cfi_restore 28
 2662              		.cfi_restore 27
 2663              		.cfi_restore 26
 2664              		.cfi_restore 25
 2665              		.cfi_restore 24
 2666              		.cfi_restore 23
 2667              		.cfi_restore 22
 2668 06c4 4E800020 		blr
 2669              	.LVL275:
 2670              	.L158:
 2671              	.LCFI57:
 2672              		.cfi_restore_state
 2673              	.LBB2754:
 2674              	.LBB2745:
 2675              	.LBB2741:
 2676              		.loc 10 181 0
 2677 06c8 3B9BFFFF 		addi 28,27,-1
 2678 06cc 7F9C0E70 		srawi 28,28,1
 2679 06d0 7F9C0194 		addze 28,28
 2680              	.LVL276:
 2681              	.L152:
 2682              	.LBB2736:
 2683              	.LBB2737:
 2684              		.loc 8 773 0
 2685 06d4 579E103A 		slwi 30,28,2
 2686              	.LBE2737:
 2687              	.LBE2736:
 2688              		.loc 10 182 0
 2689 06d8 7EC4B378 		mr 4,22
 2690 06dc 7C7FF02E 		lwzx 3,31,30
 2691              	.LBB2739:
 2692              	.LBB2738:
 2693              		.loc 8 773 0
 2694 06e0 7F5FF214 		add 26,31,30
 2695              	.LBE2738:
 2696              	.LBE2739:
 2697              		.loc 10 182 0
 2698 06e4 4BFFFAD9 		bl _ZL16FileSortCallbackPK19_BrowserEntryStructS1_
 2699 06e8 7F1CE800 		cmpw 6,28,29
 2700 06ec 2F830000 		cmpwi 7,3,0
 2701              		.loc 10 185 0
 2702 06f0 5769103A 		slwi 9,27,2
 2703              		.loc 10 187 0
 2704 06f4 381CFFFF 		addi 0,28,-1
 2705              		.loc 10 182 0
 2706 06f8 409E0044 		bne- 7,.L151
 2707              	.LBE2741:
 2708              	.LBE2745:
 2709              	.LBE2754:
 2710              		.loc 10 320 0
 2711 06fc 80010034 		lwz 0,52(1)
 2712              	.LBB2755:
 2713              	.LBB2746:
 2714              	.LBB2742:
 2715              		.loc 10 182 0
 2716 0700 7F5F4A14 		add 26,31,9
 2717              		.loc 10 189 0
 2718 0704 92DA0000 		stw 22,0(26)
 2719              	.LBE2742:
 2720              	.LBE2746:
 2721              	.LBE2755:
 2722              		.loc 10 320 0
 2723 0708 7C0803A6 		mtlr 0
 2724 070c 82C10008 		lwz 22,8(1)
 2725              	.LVL277:
 2726 0710 82E1000C 		lwz 23,12(1)
 2727 0714 83010010 		lwz 24,16(1)
 2728 0718 83210014 		lwz 25,20(1)
 2729 071c 83410018 		lwz 26,24(1)
 2730              	.LVL278:
 2731 0720 8361001C 		lwz 27,28(1)
 2732              	.LVL279:
 2733 0724 83810020 		lwz 28,32(1)
 2734 0728 83A10024 		lwz 29,36(1)
 2735              	.LVL280:
 2736 072c 83C10028 		lwz 30,40(1)
 2737 0730 83E1002C 		lwz 31,44(1)
 2738              	.LVL281:
 2739 0734 38210030 		addi 1,1,48
 2740              		.cfi_remember_state
 2741              		.cfi_restore 22
 2742              		.cfi_restore 23
 2743              		.cfi_restore 24
 2744              		.cfi_restore 25
 2745              		.cfi_restore 26
 2746              		.cfi_restore 27
 2747              		.cfi_restore 28
 2748              		.cfi_restore 29
 2749              		.cfi_restore 30
 2750              		.cfi_restore 31
 2751              	.LCFI58:
 2752              		.cfi_def_cfa_offset 0
 2753 0738 4E800020 		blr
 2754              	.LVL282:
 2755              	.L151:
 2756              	.LCFI59:
 2757              		.cfi_restore_state
 2758              	.LBB2756:
 2759              	.LBB2747:
 2760              	.LBB2743:
 2761              		.loc 10 185 0
 2762 073c 7D7FF02E 		lwzx 11,31,30
 2763              		.loc 10 187 0
 2764 0740 7C000E70 		srawi 0,0,1
 2765 0744 7C000194 		addze 0,0
 2766              		.loc 10 185 0
 2767 0748 7D7F492E 		stwx 11,31,9
 2768              	.LVL283:
 2769              		.loc 10 182 0
 2770 074c 4099FF40 		ble+ 6,.L150
 2771 0750 7F9BE378 		mr 27,28
 2772              		.loc 10 187 0
 2773 0754 7C1C0378 		mr 28,0
 2774              	.LVL284:
 2775 0758 4BFFFF7C 		b .L152
 2776              	.LVL285:
 2777              	.L157:
 2778              	.LBE2743:
 2779              	.LBE2747:
 2780              		.loc 10 313 0
 2781 075c 577B083C 		slwi 27,27,1
 2782              	.LVL286:
 2783              		.loc 10 314 0
 2784 0760 3B7B0001 		addi 27,27,1
 2785              	.LVL287:
 2786              	.LBB2748:
 2787              	.LBB2749:
 2788              		.loc 8 773 0
 2789 0764 5769103A 		slwi 9,27,2
 2790              	.LBE2749:
 2791              	.LBE2748:
 2792              		.loc 10 314 0
 2793 0768 7C1F482E 		lwzx 0,31,9
 2794 076c 901A0000 		stw 0,0(26)
 2795              	.LVL288:
 2796 0770 7F5F4A14 		add 26,31,9
 2797 0774 4BFFFF10 		b .L149
 2798              	.LVL289:
 2799              	.L156:
 2800              		.loc 10 302 0
 2801 0778 549A103A 		slwi 26,4,2
 2802 077c 7C9B2378 		mr 27,4
 2803 0780 7F5FD214 		add 26,31,26
 2804 0784 4BFFFEE4 		b .L146
 2805              	.LBE2756:
 2806              		.cfi_endproc
 2807              	.LFE2183:
 2808              		.size	_ZSt13__adjust_heapIN9__gnu_cxx17__normal_iteratorIPP19_BrowserEntryStructSt6vectorIS3_SaIS3
 2809              		.align 2
 2810              		.type	_ZSt16__introsort_loopIN9__gnu_cxx17__normal_iteratorIPP19_BrowserEntryStructSt6vectorIS3_Sa
 2811              	_ZSt16__introsort_loopIN9__gnu_cxx17__normal_iteratorIPP19_BrowserEntryStructSt6vectorIS3_SaIS3_EEE
 2812              	.LFB2186:
 2813              		.loc 7 2293 0
 2814              		.cfi_startproc
 2815              	.LVL290:
 2816 0788 7C0802A6 		mflr 0
 2817 078c 9421FFD0 		stwu 1,-48(1)
 2818              	.LCFI60:
 2819              		.cfi_def_cfa_offset 48
 2820              		.cfi_register 65, 0
 2821 0790 93C10028 		stw 30,40(1)
 2822 0794 90010034 		stw 0,52(1)
 2823 0798 93E1002C 		stw 31,44(1)
 2824 079c 83C30000 		lwz 30,0(3)
 2825              		.cfi_offset 31, -4
 2826              		.cfi_offset 65, 4
 2827              		.cfi_offset 30, -8
 2828 07a0 83E40000 		lwz 31,0(4)
 2829 07a4 9361001C 		stw 27,28(1)
 2830 07a8 7CBB2B78 		mr 27,5
 2831              		.cfi_offset 27, -20
 2832              	.LBB2876:
 2833              	.LBB2877:
 2834              	.LBB2878:
 2835              		.loc 8 892 0
 2836 07ac 7C1EF850 		subf 0,30,31
 2837              	.LBE2878:
 2838              	.LBE2877:
 2839              	.LBE2876:
 2840              		.loc 7 2293 0
 2841 07b0 93810020 		stw 28,32(1)
 2842              	.LBB2979:
 2843              		.loc 7 2297 0
 2844 07b4 2F800043 		cmpwi 7,0,67
 2845              	.LBE2979:
 2846              		.loc 7 2293 0
 2847 07b8 93010010 		stw 24,16(1)
 2848 07bc 93210014 		stw 25,20(1)
 2849              	.LBB2980:
 2850              	.LBB2880:
 2851              	.LBB2881:
 2852              	.LBB2882:
 2853              	.LBB2883:
 2854              	.LBB2884:
 2855              		.loc 7 2238 0
 2856 07c0 7FFCFB78 		mr 28,31
 2857              		.cfi_offset 25, -28
 2858              		.cfi_offset 24, -32
 2859              		.cfi_offset 28, -16
 2860              	.LVL291:
 2861              	.LBE2884:
 2862              	.LBE2883:
 2863              	.LBE2882:
 2864              	.LBE2881:
 2865              	.LBE2880:
 2866              	.LBE2980:
 2867              		.loc 7 2293 0
 2868 07c4 93410018 		stw 26,24(1)
 2869 07c8 93A10024 		stw 29,36(1)
 2870              	.LBB2981:
 2871              		.loc 7 2297 0
 2872 07cc 409D01DC 		ble- 7,.L159
 2873              		.cfi_offset 29, -12
 2874              		.cfi_offset 26, -24
 2875              	.LBB2975:
 2876              		.loc 7 2299 0
 2877 07d0 2F850000 		cmpwi 7,5,0
 2878 07d4 3B5E0004 		addi 26,30,4
 2879 07d8 3BA10008 		addi 29,1,8
 2880 07dc 419E0160 		beq- 7,.L181
 2881              	.LBB2952:
 2882              	.LBB2945:
 2883              		.loc 7 2263 0
 2884 07e0 7C001E70 		srawi 0,0,3
 2885              	.LBB2898:
 2886              	.LBB2899:
 2887              		.loc 7 112 0
 2888 07e4 807E0000 		lwz 3,0(30)
 2889              	.LBE2899:
 2890              	.LBE2898:
 2891              	.LBB2935:
 2892              	.LBB2936:
 2893              		.loc 8 773 0
 2894 07e8 541F103A 		slwi 31,0,2
 2895              	.LBE2936:
 2896              	.LBE2935:
 2897              	.LBE2945:
 2898              	.LBE2952:
 2899              		.loc 7 2304 0
 2900 07ec 3B7BFFFF 		addi 27,27,-1
 2901              	.LVL292:
 2902              	.LBB2953:
 2903              	.LBB2946:
 2904              	.LBB2938:
 2905              	.LBB2930:
 2906              		.loc 7 112 0
 2907 07f0 7C9EF82E 		lwzx 4,30,31
 2908              	.LVL293:
 2909 07f4 4BFFF9C9 		bl _ZL16FileSortCallbackPK19_BrowserEntryStructS1_
 2910 07f8 2F830000 		cmpwi 7,3,0
 2911 07fc 419E00DC 		beq- 7,.L166
 2912              	.LVL294:
 2913              	.L183:
 2914              		.loc 7 114 0
 2915 0800 7C7EF82E 		lwzx 3,30,31
 2916 0804 809CFFFC 		lwz 4,-4(28)
 2917 0808 4BFFF9B5 		bl _ZL16FileSortCallbackPK19_BrowserEntryStructS1_
 2918 080c 2F830000 		cmpwi 7,3,0
 2919 0810 419E0104 		beq- 7,.L167
 2920              	.LVL295:
 2921              	.LBB2900:
 2922              	.LBB2901:
 2923              	.LBB2902:
 2924              	.LBB2903:
 2925              	.LBB2904:
 2926              		.file 11 "d:\\devkitpro\\devkitppc\\bin\\../lib/gcc/powerpc-eabi/4.6.3/../../../../powerpc-eabi/in
 2927              		.loc 11 127 0
 2928 0814 801E0000 		lwz 0,0(30)
 2929              	.LVL296:
 2930              		.loc 11 128 0
 2931 0818 7D3EF82E 		lwzx 9,30,31
 2932 081c 913E0000 		stw 9,0(30)
 2933              		.loc 11 129 0
 2934 0820 7C1EF92E 		stwx 0,30,31
 2935              	.LVL297:
 2936              	.L168:
 2937              	.LBE2904:
 2938              	.LBE2903:
 2939              	.LBE2902:
 2940              	.LBE2901:
 2941              	.LBE2900:
 2942              	.LBE2930:
 2943              	.LBE2938:
 2944              	.LBE2946:
 2945              	.LBE2953:
 2946              		.loc 7 2299 0
 2947 0824 7F98E378 		mr 24,28
 2948 0828 7F40D378 		mr 0,26
 2949              	.LVL298:
 2950              	.L170:
 2951              	.LBB2954:
 2952              	.LBB2947:
 2953              	.LBB2939:
 2954              	.LBB2931:
 2955              	.LBB2905:
 2956              	.LBB2906:
 2957              	.LBB2907:
 2958              	.LBB2908:
 2959              	.LBB2909:
 2960              		.loc 11 129 0
 2961 082c 7C1F0378 		mr 31,0
 2962              	.LVL299:
 2963              	.LBE2909:
 2964              	.LBE2908:
 2965              	.LBE2907:
 2966              	.LBE2906:
 2967              	.LBE2905:
 2968              	.LBE2931:
 2969              	.LBE2939:
 2970              	.LBB2940:
 2971              	.LBB2897:
 2972              		.loc 7 2233 0
 2973 0830 809E0000 		lwz 4,0(30)
 2974 0834 807F0000 		lwz 3,0(31)
 2975 0838 4BFFF985 		bl _ZL16FileSortCallbackPK19_BrowserEntryStructS1_
 2976              	.LVL300:
 2977 083c 381F0004 		addi 0,31,4
 2978 0840 2F830000 		cmpwi 7,3,0
 2979 0844 409EFFE8 		bne+ 7,.L170
 2980              	.LVL301:
 2981 0848 7F19C378 		mr 25,24
 2982              	.LVL302:
 2983              	.L171:
 2984              		.loc 7 2293 0
 2985 084c 3B39FFFC 		addi 25,25,-4
 2986              	.LVL303:
 2987              		.loc 7 2236 0
 2988 0850 807E0000 		lwz 3,0(30)
 2989 0854 80990000 		lwz 4,0(25)
 2990              		.loc 7 2293 0
 2991 0858 7F38CB78 		mr 24,25
 2992              		.loc 7 2236 0
 2993 085c 4BFFF961 		bl _ZL16FileSortCallbackPK19_BrowserEntryStructS1_
 2994 0860 2F830000 		cmpwi 7,3,0
 2995 0864 409EFFE8 		bne+ 7,.L171
 2996              	.LVL304:
 2997              		.loc 7 2238 0
 2998 0868 7F9FC840 		cmplw 7,31,25
 2999 086c 409C001C 		bge- 7,.L182
 3000              	.LVL305:
 3001              	.LBB2885:
 3002              	.LBB2886:
 3003              	.LBB2887:
 3004              	.LBB2888:
 3005              	.LBB2889:
 3006              		.loc 11 127 0
 3007 0870 813F0000 		lwz 9,0(31)
 3008              	.LVL306:
 3009              	.LBE2889:
 3010              	.LBE2888:
 3011              	.LBE2887:
 3012              	.LBE2886:
 3013              	.LBE2885:
 3014              	.LBB2894:
 3015              	.LBB2895:
 3016              		.loc 8 742 0
 3017 0874 381F0004 		addi 0,31,4
 3018              	.LBE2895:
 3019              	.LBE2894:
 3020              	.LBB2896:
 3021              	.LBB2893:
 3022              	.LBB2892:
 3023              	.LBB2891:
 3024              	.LBB2890:
 3025              		.loc 11 128 0
 3026 0878 81790000 		lwz 11,0(25)
 3027 087c 917F0000 		stw 11,0(31)
 3028              		.loc 11 129 0
 3029 0880 91390000 		stw 9,0(25)
 3030              	.LVL307:
 3031 0884 4BFFFFA8 		b .L170
 3032              	.LVL308:
 3033              	.L182:
 3034              	.LBE2890:
 3035              	.LBE2891:
 3036              	.LBE2892:
 3037              	.LBE2893:
 3038              	.LBE2896:
 3039              	.LBE2897:
 3040              	.LBE2940:
 3041              	.LBE2947:
 3042              	.LBE2954:
 3043              		.loc 7 2307 0
 3044 0888 7FA3EB78 		mr 3,29
 3045 088c 3881000C 		addi 4,1,12
 3046 0890 7F65DB78 		mr 5,27
 3047 0894 93E10008 		stw 31,8(1)
 3048 0898 9381000C 		stw 28,12(1)
 3049 089c 4BFFFEED 		bl _ZSt16__introsort_loopIN9__gnu_cxx17__normal_iteratorIPP19_BrowserEntryStructSt6vectorIS3_SaIS3
 3050              	.LVL309:
 3051              	.LBE2975:
 3052              	.LBB2976:
 3053              	.LBB2879:
 3054              		.loc 8 892 0
 3055 08a0 7C1EF850 		subf 0,30,31
 3056              	.LBE2879:
 3057              	.LBE2976:
 3058              		.loc 7 2297 0
 3059 08a4 2F800043 		cmpwi 7,0,67
 3060 08a8 409D0100 		ble- 7,.L159
 3061              	.LBB2977:
 3062              		.loc 7 2299 0
 3063 08ac 2F9B0000 		cmpwi 7,27,0
 3064 08b0 419E0090 		beq- 7,.L175
 3065              	.LBB2955:
 3066              	.LBB2948:
 3067              		.loc 7 2263 0
 3068 08b4 7C001E70 		srawi 0,0,3
 3069              	.LBE2948:
 3070              	.LBE2955:
 3071              		.loc 7 2299 0
 3072 08b8 7FFCFB78 		mr 28,31
 3073              	.LVL310:
 3074              	.LBB2956:
 3075              	.LBB2949:
 3076              	.LBB2941:
 3077              	.LBB2937:
 3078              		.loc 8 773 0
 3079 08bc 541F103A 		slwi 31,0,2
 3080              	.LVL311:
 3081              	.LBE2937:
 3082              	.LBE2941:
 3083              	.LBB2942:
 3084              	.LBB2932:
 3085              		.loc 7 112 0
 3086 08c0 807E0000 		lwz 3,0(30)
 3087 08c4 7C9EF82E 		lwzx 4,30,31
 3088              	.LBE2932:
 3089              	.LBE2942:
 3090              	.LBE2949:
 3091              	.LBE2956:
 3092              		.loc 7 2304 0
 3093 08c8 3B7BFFFF 		addi 27,27,-1
 3094              	.LVL312:
 3095              	.LBB2957:
 3096              	.LBB2950:
 3097              	.LBB2943:
 3098              	.LBB2933:
 3099              		.loc 7 112 0
 3100 08cc 4BFFF8F1 		bl _ZL16FileSortCallbackPK19_BrowserEntryStructS1_
 3101 08d0 2F830000 		cmpwi 7,3,0
 3102 08d4 40BEFF2C 		bne- 7,.L183
 3103              	.LVL313:
 3104              	.L166:
 3105              		.loc 7 119 0
 3106 08d8 807E0000 		lwz 3,0(30)
 3107 08dc 809CFFFC 		lwz 4,-4(28)
 3108 08e0 4BFFF8DD 		bl _ZL16FileSortCallbackPK19_BrowserEntryStructS1_
 3109 08e4 2F830000 		cmpwi 7,3,0
 3110 08e8 409EFF3C 		bne+ 7,.L168
 3111              	.LVL314:
 3112              		.loc 7 121 0
 3113 08ec 7C7EF82E 		lwzx 3,30,31
 3114 08f0 809CFFFC 		lwz 4,-4(28)
 3115 08f4 4BFFF8C9 		bl _ZL16FileSortCallbackPK19_BrowserEntryStructS1_
 3116              	.LBB2914:
 3117              	.LBB2915:
 3118              	.LBB2916:
 3119              	.LBB2917:
 3120              	.LBB2918:
 3121              		.loc 11 127 0
 3122 08f8 801E0000 		lwz 0,0(30)
 3123              	.LBE2918:
 3124              	.LBE2917:
 3125              	.LBE2916:
 3126              	.LBE2915:
 3127              	.LBE2914:
 3128              		.loc 7 121 0
 3129 08fc 2F830000 		cmpwi 7,3,0
 3130 0900 409E00D8 		bne- 7,.L184
 3131              	.LVL315:
 3132              	.LBB2923:
 3133              	.LBB2913:
 3134              	.LBB2912:
 3135              	.LBB2911:
 3136              	.LBB2910:
 3137              		.loc 11 128 0
 3138 0904 7D3EF82E 		lwzx 9,30,31
 3139 0908 913E0000 		stw 9,0(30)
 3140              		.loc 11 129 0
 3141 090c 7C1EF92E 		stwx 0,30,31
 3142 0910 4BFFFF14 		b .L168
 3143              	.LVL316:
 3144              	.L167:
 3145              	.LBE2910:
 3146              	.LBE2911:
 3147              	.LBE2912:
 3148              	.LBE2913:
 3149              	.LBE2923:
 3150              		.loc 7 116 0
 3151 0914 807E0000 		lwz 3,0(30)
 3152 0918 809CFFFC 		lwz 4,-4(28)
 3153 091c 4BFFF8A1 		bl _ZL16FileSortCallbackPK19_BrowserEntryStructS1_
 3154 0920 2F830000 		cmpwi 7,3,0
 3155 0924 41BEFF00 		beq- 7,.L168
 3156              	.LVL317:
 3157              	.LBB2924:
 3158              	.LBB2925:
 3159              	.LBB2926:
 3160              	.LBB2927:
 3161              	.LBB2928:
 3162              		.loc 11 127 0
 3163 0928 801E0000 		lwz 0,0(30)
 3164              	.LVL318:
 3165              		.loc 11 128 0
 3166 092c 813CFFFC 		lwz 9,-4(28)
 3167 0930 913E0000 		stw 9,0(30)
 3168              		.loc 11 129 0
 3169 0934 901CFFFC 		stw 0,-4(28)
 3170 0938 4BFFFEEC 		b .L168
 3171              	.LVL319:
 3172              	.L181:
 3173 093c 3BA10008 		addi 29,1,8
 3174              	.LVL320:
 3175              	.L175:
 3176              	.LBE2928:
 3177              	.LBE2927:
 3178              	.LBE2926:
 3179              	.LBE2925:
 3180              	.LBE2924:
 3181              	.LBE2933:
 3182              	.LBE2943:
 3183              	.LBE2950:
 3184              	.LBE2957:
 3185              	.LBB2958:
 3186              	.LBB2959:
 3187              	.LBB2960:
 3188              	.LBB2961:
 3189              	.LBB2962:
 3190              	.LBB2963:
 3191              	.LBB2964:
 3192              	.LBB2965:
 3193              		.loc 8 892 0
 3194 0940 7C1A1670 		srawi 26,0,2
 3195              	.LVL321:
 3196              	.LBE2965:
 3197              	.LBE2964:
 3198              		.loc 10 432 0
 3199 0944 3B9AFFFE 		addi 28,26,-2
 3200 0948 7F9C0E70 		srawi 28,28,1
 3201              	.LVL322:
 3202              		.loc 7 2293 0
 3203 094c 3B7C0001 		addi 27,28,1
 3204              	.LVL323:
 3205 0950 577B103A 		slwi 27,27,2
 3206 0954 7F7EDA14 		add 27,30,27
 3207              	.LVL324:
 3208              	.L164:
 3209              	.LBB2966:
 3210              		.loc 10 435 0
 3211 0958 84DBFFFC 		lwzu 6,-4(27)
 3212              	.LVL325:
 3213              		.loc 10 436 0
 3214 095c 7F84E378 		mr 4,28
 3215 0960 7FA3EB78 		mr 3,29
 3216 0964 7F45D378 		mr 5,26
 3217 0968 93C10008 		stw 30,8(1)
 3218 096c 4BFFFC51 		bl _ZSt13__adjust_heapIN9__gnu_cxx17__normal_iteratorIPP19_BrowserEntryStructSt6vectorIS3_SaIS3_EE
 3219              	.LVL326:
 3220              		.loc 10 438 0
 3221 0970 2F9C0000 		cmpwi 7,28,0
 3222              		.loc 10 440 0
 3223 0974 3B9CFFFF 		addi 28,28,-1
 3224              	.LVL327:
 3225              		.loc 10 438 0
 3226 0978 409EFFE0 		bne+ 7,.L164
 3227              	.LVL328:
 3228              	.L165:
 3229              	.LBE2966:
 3230              	.LBE2963:
 3231              	.LBE2962:
 3232              	.LBE2961:
 3233              	.LBE2960:
 3234              	.LBB2967:
 3235              	.LBB2968:
 3236              	.LBB2969:
 3237              	.LBB2970:
 3238              	.LBB2971:
 3239              		.loc 10 332 0
 3240 097c 84DFFFFC 		lwzu 6,-4(31)
 3241              	.LVL329:
 3242              		.loc 10 334 0
 3243 0980 7FA3EB78 		mr 3,29
 3244              		.loc 10 333 0
 3245 0984 801E0000 		lwz 0,0(30)
 3246              		.loc 10 334 0
 3247 0988 38800000 		li 4,0
 3248              	.LBB2972:
 3249              	.LBB2973:
 3250              		.loc 8 892 0
 3251 098c 7F9EF850 		subf 28,30,31
 3252              	.LBE2973:
 3253              	.LBE2972:
 3254              		.loc 10 333 0
 3255 0990 901F0000 		stw 0,0(31)
 3256              	.LVL330:
 3257              		.loc 10 334 0
 3258 0994 7F851670 		srawi 5,28,2
 3259 0998 93C10008 		stw 30,8(1)
 3260 099c 4BFFFC21 		bl _ZSt13__adjust_heapIN9__gnu_cxx17__normal_iteratorIPP19_BrowserEntryStructSt6vectorIS3_SaIS3_EE
 3261              	.LVL331:
 3262              	.LBE2971:
 3263              	.LBE2970:
 3264              	.LBE2969:
 3265              		.loc 10 492 0
 3266 09a0 2F9C0007 		cmpwi 7,28,7
 3267 09a4 419DFFD8 		bgt+ 7,.L165
 3268              	.LVL332:
 3269              	.L159:
 3270              	.LBE2968:
 3271              	.LBE2967:
 3272              	.LBE2959:
 3273              	.LBE2958:
 3274              	.LBE2977:
 3275              	.LBE2981:
 3276              		.loc 7 2310 0
 3277 09a8 80010034 		lwz 0,52(1)
 3278 09ac 83010010 		lwz 24,16(1)
 3279 09b0 7C0803A6 		mtlr 0
 3280 09b4 83210014 		lwz 25,20(1)
 3281 09b8 83410018 		lwz 26,24(1)
 3282 09bc 8361001C 		lwz 27,28(1)
 3283 09c0 83810020 		lwz 28,32(1)
 3284 09c4 83A10024 		lwz 29,36(1)
 3285 09c8 83C10028 		lwz 30,40(1)
 3286 09cc 83E1002C 		lwz 31,44(1)
 3287 09d0 38210030 		addi 1,1,48
 3288              		.cfi_remember_state
 3289              	.LCFI61:
 3290              		.cfi_def_cfa_offset 0
 3291              		.cfi_restore 31
 3292              		.cfi_restore 30
 3293              		.cfi_restore 29
 3294              		.cfi_restore 28
 3295              		.cfi_restore 27
 3296              		.cfi_restore 26
 3297              		.cfi_restore 25
 3298              		.cfi_restore 24
 3299 09d4 4E800020 		blr
 3300              	.LVL333:
 3301              	.L184:
 3302              	.LCFI62:
 3303              		.cfi_restore_state
 3304              	.LBB2982:
 3305              	.LBB2978:
 3306              	.LBB2974:
 3307              	.LBB2951:
 3308              	.LBB2944:
 3309              	.LBB2934:
 3310              	.LBB2929:
 3311              	.LBB2922:
 3312              	.LBB2921:
 3313              	.LBB2920:
 3314              	.LBB2919:
 3315              		.loc 11 128 0
 3316 09d8 813CFFFC 		lwz 9,-4(28)
 3317 09dc 913E0000 		stw 9,0(30)
 3318              		.loc 11 129 0
 3319 09e0 901CFFFC 		stw 0,-4(28)
 3320 09e4 4BFFFE40 		b .L168
 3321              	.LBE2919:
 3322              	.LBE2920:
 3323              	.LBE2921:
 3324              	.LBE2922:
 3325              	.LBE2929:
 3326              	.LBE2934:
 3327              	.LBE2944:
 3328              	.LBE2951:
 3329              	.LBE2974:
 3330              	.LBE2978:
 3331              	.LBE2982:
 3332              		.cfi_endproc
 3333              	.LFE2186:
 3334              		.size	_ZSt16__introsort_loopIN9__gnu_cxx17__normal_iteratorIPP19_BrowserEntryStructSt6vectorIS3_Sa
 3335              		.align 2
 3336              		.globl _ZN11FileBrowser11EnterSelDirEv
 3337              		.type	_ZN11FileBrowser11EnterSelDirEv, @function
 3338              	_ZN11FileBrowser11EnterSelDirEv:
 3339              	.LFB1749:
 3340              		.loc 4 125 0
 3341              		.cfi_startproc
 3342              	.LVL334:
 3343 09e8 7C0802A6 		mflr 0
 3344 09ec 9421FFF0 		stwu 1,-16(1)
 3345              	.LCFI63:
 3346              		.cfi_def_cfa_offset 16
 3347              		.cfi_register 65, 0
 3348 09f0 93E1000C 		stw 31,12(1)
 3349 09f4 7C7F1B78 		mr 31,3
 3350              		.cfi_offset 31, -4
 3351 09f8 90010014 		stw 0,20(1)
 3352 09fc 93C10008 		stw 30,8(1)
 3353              	.LBB3042:
 3354              	.LBB3043:
 3355              	.LBB3044:
 3356              		.loc 4 497 0
 3357 0a00 81230034 		lwz 9,52(3)
 3358              	.LBB3045:
 3359              	.LBB3046:
 3360              	.LBB3047:
 3361              		.loc 3 571 0
 3362 0a04 81630038 		lwz 11,56(3)
 3363              	.LBE3047:
 3364              	.LBE3046:
 3365              	.LBE3045:
 3366              	.LBE3044:
 3367              	.LBE3043:
 3368              		.loc 4 126 0
 3369 0a08 8003002C 		lwz 0,44(3)
 3370              		.cfi_offset 30, -8
 3371              		.cfi_offset 65, 4
 3372              	.LVL335:
 3373              	.LBB3054:
 3374              	.LBB3052:
 3375              	.LBB3050:
 3376              	.LBB3049:
 3377              	.LBB3048:
 3378              		.loc 3 571 0
 3379 0a0c 7D695850 		subf 11,9,11
 3380 0a10 7D6B1670 		srawi 11,11,2
 3381              	.LBE3048:
 3382              	.LBE3049:
 3383              		.loc 3 718 0
 3384 0a14 7F805840 		cmplw 7,0,11
 3385 0a18 409C0098 		bge- 7,.L192
 3386              	.LVL336:
 3387              	.LBE3050:
 3388              	.LBE3052:
 3389              	.LBE3054:
 3390              		.loc 4 126 0
 3391 0a1c 5400103A 		slwi 0,0,2
 3392              		.loc 4 127 0
 3393 0a20 3860FFFF 		li 3,-1
 3394              	.LVL337:
 3395              		.loc 4 126 0
 3396 0a24 7D29002E 		lwzx 9,9,0
 3397              	.LVL338:
 3398              	.LBB3055:
 3399              	.LBB3056:
 3400              	.LBB3057:
 3401              	.LBB3058:
 3402              	.LBB3059:
 3403              	.LBB3060:
 3404              		.loc 5 288 0
 3405 0a28 80A90000 		lwz 5,0(9)
 3406              	.LBE3060:
 3407              	.LBE3059:
 3408              	.LBE3058:
 3409              		.loc 5 711 0
 3410 0a2c 8005FFF4 		lwz 0,-12(5)
 3411              	.LVL339:
 3412              	.LBE3057:
 3413              	.LBE3056:
 3414              	.LBE3055:
 3415              		.loc 4 126 0
 3416 0a30 2F800000 		cmpwi 7,0,0
 3417 0a34 419E0054 		beq- 7,.L187
 3418              	.LVL340:
 3419              	.LBB3061:
 3420              	.LBB3062:
 3421              	.LBB3063:
 3422              	.LBB3064:
 3423              	.LBB3065:
 3424              		.loc 5 288 0
 3425 0a38 809F0028 		lwz 4,40(31)
 3426              	.LBE3065:
 3427              	.LBE3064:
 3428              	.LBE3063:
 3429              	.LBE3062:
 3430              	.LBE3061:
 3431              		.loc 4 129 0
 3432 0a3c 8164FFF4 		lwz 11,-12(4)
 3433              	.LVL341:
 3434              		.loc 4 131 0
 3435 0a40 7C0B0214 		add 0,11,0
 3436 0a44 2F8003FF 		cmpwi 7,0,1023
 3437 0a48 419D0040 		bgt- 7,.L187
 3438              		.loc 4 134 0
 3439 0a4c 2F8B0000 		cmpwi 7,11,0
 3440 0a50 419E0050 		beq- 7,.L193
 3441              	.LVL342:
 3442              		.loc 4 137 0
 3443 0a54 3C600000 		lis 3,.LC6@ha
 3444 0a58 38630020 		la 3,.LC6@l(3)
 3445 0a5c 4CC63182 		crxor 6,6,6
 3446 0a60 48000001 		bl _Z3fmtPKcz
 3447              	.LVL343:
 3448 0a64 7C7E1B78 		mr 30,3
 3449              	.LVL344:
 3450              	.LBB3066:
 3451              	.LBB3067:
 3452              	.LBB3068:
 3453              	.LBB3069:
 3454              		.file 12 "d:\\devkitpro\\devkitppc\\bin\\../lib/gcc/powerpc-eabi/4.6.3/../../../../powerpc-eabi/in
 3455              		.loc 12 261 0
 3456 0a68 48000001 		bl strlen
 3457              	.LVL345:
 3458 0a6c 7C651B78 		mr 5,3
 3459              	.LBE3069:
 3460              	.LBE3068:
 3461              		.loc 5 1121 0
 3462 0a70 7FC4F378 		mr 4,30
 3463 0a74 387F0028 		addi 3,31,40
 3464 0a78 48000001 		bl _ZNSs6assignEPKcj
 3465              	.LVL346:
 3466              	.L189:
 3467              	.LBE3067:
 3468              	.LBE3066:
 3469              		.loc 4 139 0
 3470 0a7c 38000001 		li 0,1
 3471              		.loc 4 141 0
 3472 0a80 38600001 		li 3,1
 3473              		.loc 4 139 0
 3474 0a84 981F0049 		stb 0,73(31)
 3475              	.LVL347:
 3476              	.L187:
 3477              	.LBE3042:
 3478              		.loc 4 142 0
 3479 0a88 80010014 		lwz 0,20(1)
 3480 0a8c 83C10008 		lwz 30,8(1)
 3481 0a90 7C0803A6 		mtlr 0
 3482 0a94 83E1000C 		lwz 31,12(1)
 3483              	.LVL348:
 3484 0a98 38210010 		addi 1,1,16
 3485              		.cfi_remember_state
 3486              	.LCFI64:
 3487              		.cfi_def_cfa_offset 0
 3488              		.cfi_restore 31
 3489              		.cfi_restore 30
 3490 0a9c 4E800020 		blr
 3491              	.LVL349:
 3492              	.L193:
 3493              	.LCFI65:
 3494              		.cfi_restore_state
 3495              	.LBB3071:
 3496              		.loc 4 135 0
 3497 0aa0 387F0028 		addi 3,31,40
 3498 0aa4 7D244B78 		mr 4,9
 3499 0aa8 48000001 		bl _ZNSs6assignERKSs
 3500              	.LVL350:
 3501 0aac 4BFFFFD0 		b .L189
 3502              	.LVL351:
 3503              	.L192:
 3504              	.LBB3070:
 3505              	.LBB3053:
 3506              	.LBB3051:
 3507              		.loc 3 719 0
 3508 0ab0 3C600000 		lis 3,.LC0@ha
 3509 0ab4 38630000 		la 3,.LC0@l(3)
 3510 0ab8 48000001 		bl _ZSt20__throw_out_of_rangePKc
 3511              	.LVL352:
 3512              	.LVL353:
 3513              	.LBE3051:
 3514              	.LBE3053:
 3515              	.LBE3070:
 3516              	.LBE3071:
 3517              		.cfi_endproc
 3518              	.LFE1749:
 3519              		.size	_ZN11FileBrowser11EnterSelDirEv, .-_ZN11FileBrowser11EnterSelDirEv
 3520              		.align 2
 3521              		.globl _ZN11FileBrowser11LeaveCurDirEv
 3522              		.type	_ZN11FileBrowser11LeaveCurDirEv, @function
 3523              	_ZN11FileBrowser11LeaveCurDirEv:
 3524              	.LFB1750:
 3525              		.loc 4 148 0
 3526              		.cfi_startproc
 3527              	.LVL354:
 3528 0abc 9421FFF0 		stwu 1,-16(1)
 3529              	.LCFI66:
 3530              		.cfi_def_cfa_offset 16
 3531 0ac0 7C0802A6 		mflr 0
 3532              	.LBB3105:
 3533              	.LBB3106:
 3534              	.LBB3107:
 3535              		.loc 5 2005 0
 3536 0ac4 3C800000 		lis 4,.LC2@ha
 3537 0ac8 38A0FFFF 		li 5,-1
 3538              	.LBE3107:
 3539              	.LBE3106:
 3540              	.LBE3105:
 3541              		.loc 4 148 0
 3542 0acc 93C10008 		stw 30,8(1)
 3543              	.LBB3132:
 3544              		.loc 4 149 0
 3545 0ad0 3BC30028 		addi 30,3,40
 3546              		.cfi_offset 30, -8
 3547              		.cfi_register 65, 0
 3548              	.LVL355:
 3549              	.LBE3132:
 3550              		.loc 4 148 0
 3551 0ad4 93E1000C 		stw 31,12(1)
 3552              	.LBB3133:
 3553              	.LBB3111:
 3554              	.LBB3108:
 3555              		.loc 5 2005 0
 3556 0ad8 3884001C 		la 4,.LC2@l(4)
 3557              	.LBE3108:
 3558              	.LBE3111:
 3559              	.LBE3133:
 3560              		.loc 4 148 0
 3561 0adc 7C7F1B78 		mr 31,3
 3562              		.cfi_offset 31, -4
 3563              	.LBB3134:
 3564              	.LBB3112:
 3565              	.LBB3109:
 3566              		.loc 5 2005 0
 3567 0ae0 38C00001 		li 6,1
 3568 0ae4 7FC3F378 		mr 3,30
 3569              	.LVL356:
 3570              	.LBE3109:
 3571              	.LBE3112:
 3572              	.LBE3134:
 3573              		.loc 4 148 0
 3574 0ae8 90010014 		stw 0,20(1)
 3575              	.LBB3135:
 3576              	.LBB3113:
 3577              	.LBB3110:
 3578              		.loc 5 2005 0
 3579              		.cfi_offset 65, 4
 3580 0aec 48000001 		bl _ZNKSs12find_last_ofEPKcjj
 3581              	.LVL357:
 3582              	.LBE3110:
 3583              	.LBE3113:
 3584              	.LBB3114:
 3585              	.LBB3115:
 3586              	.LBB3116:
 3587              	.LBB3117:
 3588              	.LBB3118:
 3589              	.LBB3119:
 3590              		.loc 5 711 0
 3591 0af0 813F0028 		lwz 9,40(31)
 3592              	.LBE3119:
 3593              	.LBE3118:
 3594              	.LBE3117:
 3595              	.LBE3116:
 3596              	.LBE3115:
 3597              	.LBE3114:
 3598              		.loc 4 150 0
 3599 0af4 2F83FFFF 		cmpwi 7,3,-1
 3600 0af8 419E0048 		beq- 7,.L195
 3601              	.LVL358:
 3602              	.LBB3128:
 3603              	.LBB3126:
 3604              	.LBB3124:
 3605              	.LBB3122:
 3606              	.LBB3121:
 3607              	.LBB3120:
 3608              		.loc 5 711 0
 3609 0afc 80A9FFF4 		lwz 5,-12(9)
 3610              	.LBE3120:
 3611              	.LBE3121:
 3612              		.loc 5 318 0
 3613 0b00 7F832840 		cmplw 7,3,5
 3614 0b04 419D0074 		bgt- 7,.L198
 3615              	.LVL359:
 3616              	.LBE3122:
 3617              	.LBE3124:
 3618              		.loc 5 1349 0
 3619 0b08 7C641B78 		mr 4,3
 3620 0b0c 38C00000 		li 6,0
 3621 0b10 7FC3F378 		mr 3,30
 3622              	.LVL360:
 3623 0b14 7CA42850 		subf 5,4,5
 3624 0b18 48000001 		bl _ZNSs9_M_mutateEjjj
 3625              	.LVL361:
 3626              	.LBE3126:
 3627              	.LBE3128:
 3628              		.loc 4 155 0
 3629 0b1c 38000001 		li 0,1
 3630 0b20 981F0049 		stb 0,73(31)
 3631              	.LBE3135:
 3632              		.loc 4 158 0
 3633 0b24 38600001 		li 3,1
 3634 0b28 80010014 		lwz 0,20(1)
 3635 0b2c 83C10008 		lwz 30,8(1)
 3636              	.LVL362:
 3637 0b30 7C0803A6 		mtlr 0
 3638 0b34 83E1000C 		lwz 31,12(1)
 3639              	.LVL363:
 3640 0b38 38210010 		addi 1,1,16
 3641              		.cfi_remember_state
 3642              	.LCFI67:
 3643              		.cfi_def_cfa_offset 0
 3644              		.cfi_restore 31
 3645              		.cfi_restore 30
 3646 0b3c 4E800020 		blr
 3647              	.LVL364:
 3648              	.L195:
 3649              	.LCFI68:
 3650              		.cfi_restore_state
 3651              	.LBB3136:
 3652              	.LBB3129:
 3653              	.LBB3130:
 3654              		.loc 5 796 0
 3655 0b40 80A9FFF4 		lwz 5,-12(9)
 3656 0b44 7FC3F378 		mr 3,30
 3657              	.LVL365:
 3658 0b48 38800000 		li 4,0
 3659 0b4c 38C00000 		li 6,0
 3660 0b50 48000001 		bl _ZNSs9_M_mutateEjjj
 3661              	.LBE3130:
 3662              	.LBE3129:
 3663              		.loc 4 155 0
 3664 0b54 38000001 		li 0,1
 3665 0b58 981F0049 		stb 0,73(31)
 3666              	.LBE3136:
 3667              		.loc 4 158 0
 3668 0b5c 38600001 		li 3,1
 3669 0b60 80010014 		lwz 0,20(1)
 3670 0b64 83C10008 		lwz 30,8(1)
 3671              	.LVL366:
 3672 0b68 7C0803A6 		mtlr 0
 3673 0b6c 83E1000C 		lwz 31,12(1)
 3674              	.LVL367:
 3675 0b70 38210010 		addi 1,1,16
 3676              		.cfi_remember_state
 3677              		.cfi_restore 30
 3678              		.cfi_restore 31
 3679              	.LCFI69:
 3680              		.cfi_def_cfa_offset 0
 3681 0b74 4E800020 		blr
 3682              	.LVL368:
 3683              	.L198:
 3684              	.LCFI70:
 3685              		.cfi_restore_state
 3686              	.LBB3137:
 3687              	.LBB3131:
 3688              	.LBB3127:
 3689              	.LBB3125:
 3690              	.LBB3123:
 3691              		.loc 5 319 0
 3692 0b78 3C600000 		lis 3,.LC7@ha
 3693              	.LVL369:
 3694 0b7c 38630028 		la 3,.LC7@l(3)
 3695 0b80 48000001 		bl _ZSt20__throw_out_of_rangePKc
 3696              	.LBE3123:
 3697              	.LBE3125:
 3698              	.LBE3127:
 3699              	.LBE3131:
 3700              	.LBE3137:
 3701              		.cfi_endproc
 3702              	.LFE1750:
 3703              		.size	_ZN11FileBrowser11LeaveCurDirEv, .-_ZN11FileBrowser11LeaveCurDirEv
 3704              		.section	.text._ZN11FileBrowser15BackInDirectoryEv,"axG",@progbits,_ZN11FileBrowser15BackInDirecto
 3705              		.align 2
 3706              		.weak	_ZN11FileBrowser15BackInDirectoryEv
 3707              		.type	_ZN11FileBrowser15BackInDirectoryEv, @function
 3708              	_ZN11FileBrowser15BackInDirectoryEv:
 3709              	.LFB1604:
 3710              		.loc 2 83 0
 3711              		.cfi_startproc
 3712              	.LVL370:
 3713              		.loc 2 83 0
 3714 0000 48000000 		b _ZN11FileBrowser11LeaveCurDirEv
 3715              	.LVL371:
 3716              		.cfi_endproc
 3717              	.LFE1604:
 3718              		.size	_ZN11FileBrowser15BackInDirectoryEv, .-_ZN11FileBrowser15BackInDirectoryEv
 3719              		.section	".text"
 3720              		.align 2
 3721              		.globl _ZN11FileBrowser13UpdateDirNameEv
 3722              		.type	_ZN11FileBrowser13UpdateDirNameEv, @function
 3723              	_ZN11FileBrowser13UpdateDirNameEv:
 3724              	.LFB1751:
 3725              		.loc 4 165 0
 3726              		.cfi_startproc
 3727              	.LVL372:
 3728 0b84 7C0802A6 		mflr 0
 3729 0b88 9421FFF0 		stwu 1,-16(1)
 3730              	.LCFI71:
 3731              		.cfi_def_cfa_offset 16
 3732              		.cfi_register 65, 0
 3733 0b8c 93E1000C 		stw 31,12(1)
 3734 0b90 7C7F1B78 		mr 31,3
 3735              		.cfi_offset 31, -4
 3736 0b94 90010014 		stw 0,20(1)
 3737              	.LBB3160:
 3738              	.LBB3161:
 3739              		.loc 4 497 0
 3740 0b98 81230034 		lwz 9,52(3)
 3741              	.LBB3162:
 3742              	.LBB3163:
 3743              	.LBB3164:
 3744              		.loc 3 571 0
 3745 0b9c 81630038 		lwz 11,56(3)
 3746              	.LBE3164:
 3747              	.LBE3163:
 3748              	.LBE3162:
 3749              	.LBE3161:
 3750              	.LBE3160:
 3751              		.loc 4 166 0
 3752 0ba0 8003002C 		lwz 0,44(3)
 3753              		.cfi_offset 65, 4
 3754              	.LVL373:
 3755              	.LBB3171:
 3756              	.LBB3169:
 3757              	.LBB3167:
 3758              	.LBB3166:
 3759              	.LBB3165:
 3760              		.loc 3 571 0
 3761 0ba4 7D695850 		subf 11,9,11
 3762 0ba8 7D6B1670 		srawi 11,11,2
 3763              	.LBE3165:
 3764              	.LBE3166:
 3765              		.loc 3 718 0
 3766 0bac 7F805840 		cmplw 7,0,11
 3767 0bb0 409C0074 		bge- 7,.L204
 3768              	.LVL374:
 3769              	.LBE3167:
 3770              	.LBE3169:
 3771              	.LBE3171:
 3772              		.loc 4 166 0
 3773 0bb4 5400103A 		slwi 0,0,2
 3774 0bb8 7C69002E 		lwzx 3,9,0
 3775              	.LVL375:
 3776              	.LBB3172:
 3777              	.LBB3173:
 3778              	.LBB3174:
 3779              		.loc 5 711 0
 3780 0bbc 81230000 		lwz 9,0(3)
 3781              	.LBE3174:
 3782              	.LBE3173:
 3783              	.LBE3172:
 3784              		.loc 4 166 0
 3785 0bc0 8009FFF4 		lwz 0,-12(9)
 3786              	.LVL376:
 3787 0bc4 2F800000 		cmpwi 7,0,0
 3788 0bc8 419E0044 		beq- 7,.L202
 3789              	.LVL377:
 3790              		.loc 4 169 0
 3791 0bcc 3C800000 		lis 4,.LC8@ha
 3792 0bd0 3884003C 		la 4,.LC8@l(4)
 3793 0bd4 48000001 		bl _ZNKSs7compareEPKc
 3794              	.LVL378:
 3795 0bd8 2F830000 		cmpwi 7,3,0
 3796              		.loc 4 170 0
 3797 0bdc 7FE3FB78 		mr 3,31
 3798              		.loc 4 169 0
 3799 0be0 419E0018 		beq- 7,.L205
 3800              		.loc 4 173 0
 3801 0be4 80010014 		lwz 0,20(1)
 3802 0be8 83E1000C 		lwz 31,12(1)
 3803              	.LVL379:
 3804 0bec 7C0803A6 		mtlr 0
 3805 0bf0 38210010 		addi 1,1,16
 3806              		.cfi_remember_state
 3807              	.LCFI72:
 3808              		.cfi_def_cfa_offset 0
 3809              		.cfi_restore 31
 3810              		.loc 4 172 0
 3811 0bf4 48000000 		b _ZN11FileBrowser11EnterSelDirEv
 3812              	.LVL380:
 3813              	.L205:
 3814              	.LCFI73:
 3815              		.cfi_restore_state
 3816              		.loc 4 173 0
 3817 0bf8 80010014 		lwz 0,20(1)
 3818 0bfc 83E1000C 		lwz 31,12(1)
 3819 0c00 7C0803A6 		mtlr 0
 3820 0c04 38210010 		addi 1,1,16
 3821              		.cfi_remember_state
 3822              	.LCFI74:
 3823              		.cfi_def_cfa_offset 0
 3824              		.cfi_restore 31
 3825              		.loc 4 170 0
 3826 0c08 48000000 		b _ZN11FileBrowser11LeaveCurDirEv
 3827              	.LVL381:
 3828              	.L202:
 3829              	.LCFI75:
 3830              		.cfi_restore_state
 3831              		.loc 4 173 0
 3832 0c0c 80010014 		lwz 0,20(1)
 3833 0c10 3860FFFF 		li 3,-1
 3834              	.LVL382:
 3835 0c14 83E1000C 		lwz 31,12(1)
 3836              	.LVL383:
 3837 0c18 7C0803A6 		mtlr 0
 3838 0c1c 38210010 		addi 1,1,16
 3839              		.cfi_remember_state
 3840              	.LCFI76:
 3841              		.cfi_def_cfa_offset 0
 3842              		.cfi_restore 31
 3843 0c20 4E800020 		blr
 3844              	.LVL384:
 3845              	.L204:
 3846              	.LCFI77:
 3847              		.cfi_restore_state
 3848              	.LBB3175:
 3849              	.LBB3170:
 3850              	.LBB3168:
 3851              		.loc 3 719 0
 3852 0c24 3C600000 		lis 3,.LC0@ha
 3853              	.LVL385:
 3854 0c28 38630000 		la 3,.LC0@l(3)
 3855 0c2c 48000001 		bl _ZSt20__throw_out_of_rangePKc
 3856              	.LVL386:
 3857              	.LVL387:
 3858              	.LBE3168:
 3859              	.LBE3170:
 3860              	.LBE3175:
 3861              		.cfi_endproc
 3862              	.LFE1751:
 3863              		.size	_ZN11FileBrowser13UpdateDirNameEv, .-_ZN11FileBrowser13UpdateDirNameEv
 3864              		.align 2
 3865              		.globl _ZN11FileBrowser12ResetBrowserEv
 3866              		.type	_ZN11FileBrowser12ResetBrowserEv, @function
 3867              	_ZN11FileBrowser12ResetBrowserEv:
 3868              	.LFB1756:
 3869              		.loc 4 253 0
 3870              		.cfi_startproc
 3871              	.LVL388:
 3872 0c30 7C0802A6 		mflr 0
 3873 0c34 9421FFD8 		stwu 1,-40(1)
 3874              	.LCFI78:
 3875              		.cfi_def_cfa_offset 40
 3876              		.cfi_register 65, 0
 3877 0c38 93A1001C 		stw 29,28(1)
 3878 0c3c 7C7D1B78 		mr 29,3
 3879              		.cfi_offset 29, -12
 3880 0c40 9001002C 		stw 0,44(1)
 3881 0c44 93C10020 		stw 30,32(1)
 3882              	.LBB3237:
 3883              	.LBB3238:
 3884              		.loc 4 497 0
 3885 0c48 81230034 		lwz 9,52(3)
 3886 0c4c 81430038 		lwz 10,56(3)
 3887              	.LBE3238:
 3888              	.LBE3237:
 3889              		.loc 4 253 0
 3890 0c50 93E10024 		stw 31,36(1)
 3891              	.LBB3296:
 3892              	.LBB3291:
 3893              		.loc 4 497 0
 3894 0c54 7D204B78 		mr 0,9
 3895              		.cfi_offset 31, -4
 3896              		.cfi_offset 30, -8
 3897              		.cfi_offset 65, 4
 3898              	.LBB3239:
 3899              	.LBB3240:
 3900              		.loc 3 571 0
 3901 0c58 7D695050 		subf 11,9,10
 3902              	.LBE3240:
 3903              	.LBE3239:
 3904              		.loc 4 254 0
 3905 0c5c 5568F0BF 		srwi. 8,11,2
 3906 0c60 41820070 		beq- 0,.L207
 3907 0c64 3BC00000 		li 30,0
 3908              	.LVL389:
 3909              	.L222:
 3910              		.loc 4 255 0
 3911 0c68 57CB103A 		slwi 11,30,2
 3912              		.loc 4 254 0
 3913 0c6c 3BDE0001 		addi 30,30,1
 3914              	.LVL390:
 3915              		.loc 4 255 0
 3916 0c70 7FE9582E 		lwzx 31,9,11
 3917 0c74 2F9F0000 		cmpwi 7,31,0
 3918 0c78 419E0044 		beq- 7,.L208
 3919              	.LVL391:
 3920              	.LBB3243:
 3921              	.LBB3244:
 3922              	.LBB3245:
 3923              	.LBB3246:
 3924              	.LBB3247:
 3925              	.LBB3248:
 3926              	.LBB3249:
 3927              	.LBB3250:
 3928              		.loc 5 288 0
 3929 0c7c 813F0004 		lwz 9,4(31)
 3930              	.LVL392:
 3931              	.LBE3250:
 3932              	.LBE3249:
 3933              	.LBE3248:
 3934              	.LBB3251:
 3935              	.LBB3252:
 3936              		.loc 5 235 0
 3937 0c80 3D600000 		lis 11,_ZNSbIwSt11char_traitsIwESaIwEE4_Rep20_S_empty_rep_storageE@ha
 3938 0c84 380B0000 		la 0,_ZNSbIwSt11char_traitsIwESaIwEE4_Rep20_S_empty_rep_storageE@l(11)
 3939              	.LBE3252:
 3940              	.LBE3251:
 3941              		.loc 5 534 0
 3942 0c88 3869FFF4 		addi 3,9,-12
 3943              	.LVL393:
 3944              	.LBB3261:
 3945              	.LBB3259:
 3946              		.loc 5 235 0
 3947 0c8c 7F830000 		cmpw 7,3,0
 3948 0c90 409E006C 		bne- 7,.L225
 3949              	.LVL394:
 3950              	.L214:
 3951              	.LBE3259:
 3952              	.LBE3261:
 3953              	.LBE3247:
 3954              	.LBE3246:
 3955              	.LBE3245:
 3956              	.LBB3265:
 3957              	.LBB3266:
 3958              	.LBB3267:
 3959              	.LBB3268:
 3960              	.LBB3269:
 3961              	.LBB3270:
 3962              		.loc 5 288 0
 3963 0c94 813F0000 		lwz 9,0(31)
 3964              	.LBE3270:
 3965              	.LBE3269:
 3966              	.LBE3268:
 3967              	.LBB3271:
 3968              	.LBB3272:
 3969              		.loc 5 235 0
 3970 0c98 3D600000 		lis 11,_ZNSs4_Rep20_S_empty_rep_storageE@ha
 3971 0c9c 380B0000 		la 0,_ZNSs4_Rep20_S_empty_rep_storageE@l(11)
 3972              	.LBE3272:
 3973              	.LBE3271:
 3974              		.loc 5 534 0
 3975 0ca0 3869FFF4 		addi 3,9,-12
 3976              	.LVL395:
 3977              	.LBB3281:
 3978              	.LBB3279:
 3979              		.loc 5 235 0
 3980 0ca4 7F830000 		cmpw 7,3,0
 3981 0ca8 409E0074 		bne- 7,.L226
 3982              	.LVL396:
 3983              	.L221:
 3984              	.LBE3279:
 3985              	.LBE3281:
 3986              	.LBE3267:
 3987              	.LBE3266:
 3988              	.LBE3265:
 3989              	.LBE3244:
 3990              	.LBE3243:
 3991              		.loc 4 255 0 discriminator 1
 3992 0cac 7FE3FB78 		mr 3,31
 3993 0cb0 48000001 		bl _ZdlPv
 3994 0cb4 801D0034 		lwz 0,52(29)
 3995 0cb8 815D0038 		lwz 10,56(29)
 3996              	.LVL397:
 3997              	.L208:
 3998              	.LBB3288:
 3999              	.LBB3241:
 4000              		.loc 3 571 0
 4001 0cbc 7D605050 		subf 11,0,10
 4002              	.LBE3241:
 4003              	.LBE3288:
 4004              		.loc 4 497 0
 4005 0cc0 7C090378 		mr 9,0
 4006              	.LBB3289:
 4007              	.LBB3242:
 4008              		.loc 3 571 0
 4009 0cc4 7D6B1670 		srawi 11,11,2
 4010              	.LBE3242:
 4011              	.LBE3289:
 4012              		.loc 4 254 0
 4013 0cc8 7F9E5840 		cmplw 7,30,11
 4014 0ccc 419CFF9C 		blt+ 7,.L222
 4015              	.LVL398:
 4016              	.L207:
 4017              	.LBE3291:
 4018              	.LBB3292:
 4019              	.LBB3293:
 4020              	.LBB3294:
 4021              		.loc 3 1256 0
 4022 0cd0 901D0038 		stw 0,56(29)
 4023              	.LBE3294:
 4024              	.LBE3293:
 4025              	.LBE3292:
 4026              		.loc 4 259 0
 4027 0cd4 39200000 		li 9,0
 4028              	.LBE3296:
 4029              		.loc 4 261 0
 4030 0cd8 8001002C 		lwz 0,44(1)
 4031              	.LVL399:
 4032              	.LBB3297:
 4033              		.loc 4 259 0
 4034 0cdc 913D002C 		stw 9,44(29)
 4035              	.LBE3297:
 4036              		.loc 4 261 0
 4037 0ce0 7C0803A6 		mtlr 0
 4038              	.LBB3298:
 4039              		.loc 4 260 0
 4040 0ce4 913D0030 		stw 9,48(29)
 4041              	.LBE3298:
 4042              		.loc 4 261 0
 4043 0ce8 83C10020 		lwz 30,32(1)
 4044 0cec 83A1001C 		lwz 29,28(1)
 4045              	.LVL400:
 4046 0cf0 83E10024 		lwz 31,36(1)
 4047 0cf4 38210028 		addi 1,1,40
 4048              		.cfi_remember_state
 4049              	.LCFI79:
 4050              		.cfi_def_cfa_offset 0
 4051              		.cfi_restore 31
 4052              		.cfi_restore 30
 4053              		.cfi_restore 29
 4054 0cf8 4E800020 		blr
 4055              	.LVL401:
 4056              	.L225:
 4057              	.LCFI80:
 4058              		.cfi_restore_state
 4059              	.LBB3299:
 4060              	.LBB3295:
 4061              	.LBB3290:
 4062              	.LBB3287:
 4063              	.LBB3285:
 4064              	.LBB3264:
 4065              	.LBB3263:
 4066              	.LBB3262:
 4067              	.LBB3260:
 4068              	.LBB3253:
 4069              	.LBB3254:
 4070              	.LBB3255:
 4071              		.loc 6 66 0
 4072 0cfc 8169FFFC 		lwz 11,-4(9)
 4073              	.LVL402:
 4074              	.LBE3255:
 4075              	.LBE3254:
 4076              	.LBE3253:
 4077              		.loc 5 240 0
 4078 0d00 2F8B0000 		cmpwi 7,11,0
 4079              	.LBB3258:
 4080              	.LBB3257:
 4081              	.LBB3256:
 4082              		.loc 6 67 0
 4083 0d04 396BFFFF 		addi 11,11,-1
 4084 0d08 9169FFFC 		stw 11,-4(9)
 4085              	.LBE3256:
 4086              	.LBE3257:
 4087              	.LBE3258:
 4088              		.loc 5 240 0
 4089 0d0c 419DFF88 		bgt+ 7,.L214
 4090              		.loc 5 244 0
 4091 0d10 38810009 		addi 4,1,9
 4092 0d14 48000001 		bl _ZNSbIwSt11char_traitsIwESaIwEE4_Rep10_M_destroyERKS1_
 4093              	.LVL403:
 4094 0d18 4BFFFF7C 		b .L214
 4095              	.LVL404:
 4096              	.L226:
 4097              	.LBE3260:
 4098              	.LBE3262:
 4099              	.LBE3263:
 4100              	.LBE3264:
 4101              	.LBE3285:
 4102              	.LBB3286:
 4103              	.LBB3284:
 4104              	.LBB3283:
 4105              	.LBB3282:
 4106              	.LBB3280:
 4107              	.LBB3273:
 4108              	.LBB3274:
 4109              	.LBB3275:
 4110              		.loc 6 66 0
 4111 0d1c 8169FFFC 		lwz 11,-4(9)
 4112              	.LVL405:
 4113              	.LBE3275:
 4114              	.LBE3274:
 4115              	.LBE3273:
 4116              		.loc 5 240 0
 4117 0d20 2F8B0000 		cmpwi 7,11,0
 4118              	.LBB3278:
 4119              	.LBB3277:
 4120              	.LBB3276:
 4121              		.loc 6 67 0
 4122 0d24 396BFFFF 		addi 11,11,-1
 4123 0d28 9169FFFC 		stw 11,-4(9)
 4124              	.LBE3276:
 4125              	.LBE3277:
 4126              	.LBE3278:
 4127              		.loc 5 240 0
 4128 0d2c 419DFF80 		bgt+ 7,.L221
 4129              		.loc 5 244 0
 4130 0d30 38810008 		addi 4,1,8
 4131 0d34 48000001 		bl _ZNSs4_Rep10_M_destroyERKSaIcE
 4132              	.LVL406:
 4133 0d38 4BFFFF74 		b .L221
 4134              	.LBE3280:
 4135              	.LBE3282:
 4136              	.LBE3283:
 4137              	.LBE3284:
 4138              	.LBE3286:
 4139              	.LBE3287:
 4140              	.LBE3290:
 4141              	.LBE3295:
 4142              	.LBE3299:
 4143              		.cfi_endproc
 4144              	.LFE1756:
 4145              		.size	_ZN11FileBrowser12ResetBrowserEv, .-_ZN11FileBrowser12ResetBrowserEv
 4146              		.section	.text._ZNSt8_Rb_treeIwwSt9_IdentityIwESt4lessIwESaIwEE8_M_eraseEPSt13_Rb_tree_nodeIwE,"ax
 4147              		.align 2
 4148              		.weak	_ZNSt8_Rb_treeIwwSt9_IdentityIwESt4lessIwESaIwEE8_M_eraseEPSt13_Rb_tree_nodeIwE
 4149              		.type	_ZNSt8_Rb_treeIwwSt9_IdentityIwESt4lessIwESaIwEE8_M_eraseEPSt13_Rb_tree_nodeIwE, @function
 4150              	_ZNSt8_Rb_treeIwwSt9_IdentityIwESt4lessIwESaIwEE8_M_eraseEPSt13_Rb_tree_nodeIwE:
 4151              	.LFB1889:
 4152              		.file 13 "d:\\devkitpro\\devkitppc\\bin\\../lib/gcc/powerpc-eabi/4.6.3/../../../../powerpc-eabi/in
 4153              		.loc 13 1068 0
 4154              		.cfi_startproc
 4155              	.LVL407:
 4156 0000 9421FFC8 		stwu 1,-56(1)
 4157              	.LCFI81:
 4158              		.cfi_def_cfa_offset 56
 4159 0004 7C0802A6 		mflr 0
 4160 0008 92C10010 		stw 22,16(1)
 4161              	.LBB3416:
 4162              		.loc 13 1072 0
 4163 000c 7C962379 		mr. 22,4
 4164              		.cfi_offset 22, -40
 4165              		.cfi_register 65, 0
 4166              	.LBE3416:
 4167              		.loc 13 1068 0
 4168 0010 93C10030 		stw 30,48(1)
 4169 0014 7C7E1B78 		mr 30,3
 4170              		.cfi_offset 30, -8
 4171 0018 9001003C 		stw 0,60(1)
 4172 001c 92A1000C 		stw 21,12(1)
 4173 0020 92E10014 		stw 23,20(1)
 4174 0024 93010018 		stw 24,24(1)
 4175 0028 9321001C 		stw 25,28(1)
 4176 002c 93410020 		stw 26,32(1)
 4177 0030 93610024 		stw 27,36(1)
 4178 0034 93810028 		stw 28,40(1)
 4179 0038 93A1002C 		stw 29,44(1)
 4180 003c 93E10034 		stw 31,52(1)
 4181              	.LBB3501:
 4182              		.loc 13 1072 0
 4183 0040 41820168 		beq- 0,.L227
 4184              		.cfi_offset 31, -4
 4185              		.cfi_offset 29, -12
 4186              		.cfi_offset 28, -16
 4187              		.cfi_offset 27, -20
 4188              		.cfi_offset 26, -24
 4189              		.cfi_offset 25, -28
 4190              		.cfi_offset 24, -32
 4191              		.cfi_offset 23, -36
 4192              		.cfi_offset 21, -44
 4193              		.cfi_offset 65, 4
 4194              	.LVL408:
 4195              	.L273:
 4196              		.loc 4 497 0
 4197 0044 8376000C 		lwz 27,12(22)
 4198              	.LVL409:
 4199              	.LBB3417:
 4200              	.LBB3418:
 4201              	.LBB3419:
 4202              		.loc 13 1072 0
 4203 0048 2F9B0000 		cmpwi 7,27,0
 4204 004c 419E0140 		beq- 7,.L229
 4205              	.LVL410:
 4206              	.L274:
 4207              	.LBE3419:
 4208              		.loc 4 497 0
 4209 0050 835B000C 		lwz 26,12(27)
 4210              	.LVL411:
 4211              	.LBB3495:
 4212              	.LBB3420:
 4213              	.LBB3421:
 4214              	.LBB3422:
 4215              		.loc 13 1072 0
 4216 0054 2F9A0000 		cmpwi 7,26,0
 4217 0058 419E0118 		beq- 7,.L230
 4218              	.LVL412:
 4219              	.L275:
 4220              	.LBE3422:
 4221              		.loc 4 497 0
 4222 005c 833A000C 		lwz 25,12(26)
 4223              	.LVL413:
 4224              	.LBB3488:
 4225              	.LBB3423:
 4226              	.LBB3424:
 4227              	.LBB3425:
 4228              		.loc 13 1072 0
 4229 0060 2F990000 		cmpwi 7,25,0
 4230 0064 419E00F0 		beq- 7,.L231
 4231              	.LVL414:
 4232              	.L276:
 4233              	.LBE3425:
 4234              		.loc 4 497 0
 4235 0068 8319000C 		lwz 24,12(25)
 4236              	.LVL415:
 4237              	.LBB3481:
 4238              	.LBB3426:
 4239              	.LBB3427:
 4240              	.LBB3428:
 4241              		.loc 13 1072 0
 4242 006c 2F980000 		cmpwi 7,24,0
 4243 0070 419E00C8 		beq- 7,.L232
 4244              	.LVL416:
 4245              	.L277:
 4246              	.LBE3428:
 4247              		.loc 4 497 0
 4248 0074 82F8000C 		lwz 23,12(24)
 4249              	.LVL417:
 4250              	.LBB3474:
 4251              	.LBB3429:
 4252              	.LBB3430:
 4253              	.LBB3431:
 4254              		.loc 13 1072 0
 4255 0078 2F970000 		cmpwi 7,23,0
 4256 007c 419E00A0 		beq- 7,.L233
 4257              	.LVL418:
 4258              	.L278:
 4259              	.LBE3431:
 4260              		.loc 4 497 0
 4261 0080 8397000C 		lwz 28,12(23)
 4262              	.LVL419:
 4263              	.LBB3467:
 4264              	.LBB3432:
 4265              	.LBB3433:
 4266              	.LBB3434:
 4267              		.loc 13 1072 0
 4268 0084 2F9C0000 		cmpwi 7,28,0
 4269 0088 419E0078 		beq- 7,.L234
 4270              	.LVL420:
 4271              	.L279:
 4272              	.LBE3434:
 4273              		.loc 4 497 0
 4274 008c 83BC000C 		lwz 29,12(28)
 4275              	.LVL421:
 4276              	.LBB3460:
 4277              	.LBB3435:
 4278              	.LBB3436:
 4279              	.LBB3437:
 4280              		.loc 13 1072 0
 4281 0090 2F9D0000 		cmpwi 7,29,0
 4282 0094 419E0050 		beq- 7,.L235
 4283              	.LVL422:
 4284              	.L280:
 4285              	.LBE3437:
 4286              		.loc 4 497 0
 4287 0098 83FD000C 		lwz 31,12(29)
 4288              	.LVL423:
 4289              	.LBB3453:
 4290              	.LBB3438:
 4291              	.LBB3439:
 4292              	.LBB3440:
 4293              		.loc 13 1072 0
 4294 009c 2F9F0000 		cmpwi 7,31,0
 4295 00a0 419E0028 		beq- 7,.L236
 4296              	.LVL424:
 4297              	.L281:
 4298              	.LBB3441:
 4299              		.loc 13 1074 0
 4300 00a4 809F000C 		lwz 4,12(31)
 4301 00a8 7FC3F378 		mr 3,30
 4302 00ac 48000001 		bl _ZNSt8_Rb_treeIwwSt9_IdentityIwESt4lessIwESaIwEE8_M_eraseEPSt13_Rb_tree_nodeIwE
 4303              	.LBE3441:
 4304              	.LBE3440:
 4305              		.loc 4 497 0
 4306 00b0 82BF0008 		lwz 21,8(31)
 4307              	.LVL425:
 4308              	.LBB3447:
 4309              	.LBB3446:
 4310              	.LBB3442:
 4311              	.LBB3443:
 4312              	.LBB3444:
 4313              	.LBB3445:
 4314              		.file 14 "d:\\devkitpro\\devkitppc\\bin\\../lib/gcc/powerpc-eabi/4.6.3/../../../../powerpc-eabi/in
 4315              		.loc 14 98 0
 4316 00b4 7FE3FB78 		mr 3,31
 4317 00b8 48000001 		bl _ZdlPv
 4318              	.LVL426:
 4319              	.LBE3445:
 4320              	.LBE3444:
 4321              	.LBE3443:
 4322              	.LBE3442:
 4323              	.LBE3446:
 4324              		.loc 13 1072 0
 4325 00bc 2F950000 		cmpwi 7,21,0
 4326              		.loc 13 1077 0
 4327 00c0 7EBFAB78 		mr 31,21
 4328              	.LVL427:
 4329              		.loc 13 1072 0
 4330 00c4 409EFFE0 		bne+ 7,.L281
 4331              	.LVL428:
 4332              	.L236:
 4333              	.LBE3447:
 4334              	.LBE3439:
 4335              	.LBE3438:
 4336              	.LBE3453:
 4337              		.loc 4 497 0
 4338 00c8 83FD0008 		lwz 31,8(29)
 4339              	.LVL429:
 4340              	.LBB3454:
 4341              	.LBB3452:
 4342              	.LBB3448:
 4343              	.LBB3449:
 4344              	.LBB3450:
 4345              	.LBB3451:
 4346              		.loc 14 98 0
 4347 00cc 7FA3EB78 		mr 3,29
 4348 00d0 48000001 		bl _ZdlPv
 4349              	.LVL430:
 4350              	.LBE3451:
 4351              	.LBE3450:
 4352              	.LBE3449:
 4353              	.LBE3448:
 4354              	.LBE3452:
 4355              		.loc 13 1072 0
 4356 00d4 2F9F0000 		cmpwi 7,31,0
 4357 00d8 419E000C 		beq- 7,.L235
 4358              		.loc 13 1077 0
 4359 00dc 7FFDFB78 		mr 29,31
 4360              	.LVL431:
 4361 00e0 4BFFFFB8 		b .L280
 4362              	.LVL432:
 4363              	.L235:
 4364              	.LBE3454:
 4365              	.LBE3436:
 4366              	.LBE3435:
 4367              	.LBE3460:
 4368              		.loc 4 497 0
 4369 00e4 83FC0008 		lwz 31,8(28)
 4370              	.LVL433:
 4371              	.LBB3461:
 4372              	.LBB3459:
 4373              	.LBB3455:
 4374              	.LBB3456:
 4375              	.LBB3457:
 4376              	.LBB3458:
 4377              		.loc 14 98 0
 4378 00e8 7F83E378 		mr 3,28
 4379 00ec 48000001 		bl _ZdlPv
 4380              	.LVL434:
 4381              	.LBE3458:
 4382              	.LBE3457:
 4383              	.LBE3456:
 4384              	.LBE3455:
 4385              	.LBE3459:
 4386              		.loc 13 1072 0
 4387 00f0 2F9F0000 		cmpwi 7,31,0
 4388 00f4 419E000C 		beq- 7,.L234
 4389              		.loc 13 1077 0
 4390 00f8 7FFCFB78 		mr 28,31
 4391              	.LVL435:
 4392 00fc 4BFFFF90 		b .L279
 4393              	.LVL436:
 4394              	.L234:
 4395              	.LBE3461:
 4396              	.LBE3433:
 4397              	.LBE3432:
 4398              	.LBE3467:
 4399              		.loc 4 497 0
 4400 0100 83F70008 		lwz 31,8(23)
 4401              	.LVL437:
 4402              	.LBB3468:
 4403              	.LBB3466:
 4404              	.LBB3462:
 4405              	.LBB3463:
 4406              	.LBB3464:
 4407              	.LBB3465:
 4408              		.loc 14 98 0
 4409 0104 7EE3BB78 		mr 3,23
 4410 0108 48000001 		bl _ZdlPv
 4411              	.LVL438:
 4412              	.LBE3465:
 4413              	.LBE3464:
 4414              	.LBE3463:
 4415              	.LBE3462:
 4416              	.LBE3466:
 4417              		.loc 13 1072 0
 4418 010c 2F9F0000 		cmpwi 7,31,0
 4419 0110 419E000C 		beq- 7,.L233
 4420              		.loc 13 1077 0
 4421 0114 7FF7FB78 		mr 23,31
 4422              	.LVL439:
 4423 0118 4BFFFF68 		b .L278
 4424              	.LVL440:
 4425              	.L233:
 4426              	.LBE3468:
 4427              	.LBE3430:
 4428              	.LBE3429:
 4429              	.LBE3474:
 4430              		.loc 4 497 0
 4431 011c 83F80008 		lwz 31,8(24)
 4432              	.LVL441:
 4433              	.LBB3475:
 4434              	.LBB3473:
 4435              	.LBB3469:
 4436              	.LBB3470:
 4437              	.LBB3471:
 4438              	.LBB3472:
 4439              		.loc 14 98 0
 4440 0120 7F03C378 		mr 3,24
 4441 0124 48000001 		bl _ZdlPv
 4442              	.LVL442:
 4443              	.LBE3472:
 4444              	.LBE3471:
 4445              	.LBE3470:
 4446              	.LBE3469:
 4447              	.LBE3473:
 4448              		.loc 13 1072 0
 4449 0128 2F9F0000 		cmpwi 7,31,0
 4450 012c 419E000C 		beq- 7,.L232
 4451              		.loc 13 1077 0
 4452 0130 7FF8FB78 		mr 24,31
 4453              	.LVL443:
 4454 0134 4BFFFF40 		b .L277
 4455              	.LVL444:
 4456              	.L232:
 4457              	.LBE3475:
 4458              	.LBE3427:
 4459              	.LBE3426:
 4460              	.LBE3481:
 4461              		.loc 4 497 0
 4462 0138 83F90008 		lwz 31,8(25)
 4463              	.LVL445:
 4464              	.LBB3482:
 4465              	.LBB3480:
 4466              	.LBB3476:
 4467              	.LBB3477:
 4468              	.LBB3478:
 4469              	.LBB3479:
 4470              		.loc 14 98 0
 4471 013c 7F23CB78 		mr 3,25
 4472 0140 48000001 		bl _ZdlPv
 4473              	.LVL446:
 4474              	.LBE3479:
 4475              	.LBE3478:
 4476              	.LBE3477:
 4477              	.LBE3476:
 4478              	.LBE3480:
 4479              		.loc 13 1072 0
 4480 0144 2F9F0000 		cmpwi 7,31,0
 4481 0148 419E000C 		beq- 7,.L231
 4482              		.loc 13 1077 0
 4483 014c 7FF9FB78 		mr 25,31
 4484              	.LVL447:
 4485 0150 4BFFFF18 		b .L276
 4486              	.LVL448:
 4487              	.L231:
 4488              	.LBE3482:
 4489              	.LBE3424:
 4490              	.LBE3423:
 4491              	.LBE3488:
 4492              		.loc 4 497 0
 4493 0154 83FA0008 		lwz 31,8(26)
 4494              	.LVL449:
 4495              	.LBB3489:
 4496              	.LBB3487:
 4497              	.LBB3483:
 4498              	.LBB3484:
 4499              	.LBB3485:
 4500              	.LBB3486:
 4501              		.loc 14 98 0
 4502 0158 7F43D378 		mr 3,26
 4503 015c 48000001 		bl _ZdlPv
 4504              	.LVL450:
 4505              	.LBE3486:
 4506              	.LBE3485:
 4507              	.LBE3484:
 4508              	.LBE3483:
 4509              	.LBE3487:
 4510              		.loc 13 1072 0
 4511 0160 2F9F0000 		cmpwi 7,31,0
 4512 0164 419E000C 		beq- 7,.L230
 4513              		.loc 13 1077 0
 4514 0168 7FFAFB78 		mr 26,31
 4515              	.LVL451:
 4516 016c 4BFFFEF0 		b .L275
 4517              	.LVL452:
 4518              	.L230:
 4519              	.LBE3489:
 4520              	.LBE3421:
 4521              	.LBE3420:
 4522              	.LBE3495:
 4523              		.loc 4 497 0
 4524 0170 83FB0008 		lwz 31,8(27)
 4525              	.LVL453:
 4526              	.LBB3496:
 4527              	.LBB3494:
 4528              	.LBB3490:
 4529              	.LBB3491:
 4530              	.LBB3492:
 4531              	.LBB3493:
 4532              		.loc 14 98 0
 4533 0174 7F63DB78 		mr 3,27
 4534 0178 48000001 		bl _ZdlPv
 4535              	.LVL454:
 4536              	.LBE3493:
 4537              	.LBE3492:
 4538              	.LBE3491:
 4539              	.LBE3490:
 4540              	.LBE3494:
 4541              		.loc 13 1072 0
 4542 017c 2F9F0000 		cmpwi 7,31,0
 4543 0180 419E000C 		beq- 7,.L229
 4544              		.loc 13 1077 0
 4545 0184 7FFBFB78 		mr 27,31
 4546              	.LVL455:
 4547 0188 4BFFFEC8 		b .L274
 4548              	.LVL456:
 4549              	.L229:
 4550              		.loc 4 497 0
 4551 018c 83F60008 		lwz 31,8(22)
 4552              	.LVL457:
 4553              	.LBE3496:
 4554              	.LBE3418:
 4555              	.LBB3497:
 4556              	.LBB3498:
 4557              	.LBB3499:
 4558              	.LBB3500:
 4559              		.loc 14 98 0
 4560 0190 7EC3B378 		mr 3,22
 4561 0194 48000001 		bl _ZdlPv
 4562              	.LVL458:
 4563              	.LBE3500:
 4564              	.LBE3499:
 4565              	.LBE3498:
 4566              	.LBE3497:
 4567              	.LBE3417:
 4568              		.loc 13 1072 0
 4569 0198 2F9F0000 		cmpwi 7,31,0
 4570 019c 419E000C 		beq- 7,.L227
 4571              		.loc 13 1077 0
 4572 01a0 7FF6FB78 		mr 22,31
 4573              	.LVL459:
 4574 01a4 4BFFFEA0 		b .L273
 4575              	.LVL460:
 4576              	.L227:
 4577              	.LBE3501:
 4578              		.loc 13 1079 0
 4579 01a8 8001003C 		lwz 0,60(1)
 4580 01ac 82A1000C 		lwz 21,12(1)
 4581 01b0 7C0803A6 		mtlr 0
 4582 01b4 82C10010 		lwz 22,16(1)
 4583 01b8 82E10014 		lwz 23,20(1)
 4584 01bc 83010018 		lwz 24,24(1)
 4585 01c0 8321001C 		lwz 25,28(1)
 4586 01c4 83410020 		lwz 26,32(1)
 4587 01c8 83610024 		lwz 27,36(1)
 4588 01cc 83810028 		lwz 28,40(1)
 4589 01d0 83A1002C 		lwz 29,44(1)
 4590 01d4 83C10030 		lwz 30,48(1)
 4591              	.LVL461:
 4592 01d8 83E10034 		lwz 31,52(1)
 4593 01dc 38210038 		addi 1,1,56
 4594              	.LCFI82:
 4595              		.cfi_def_cfa_offset 0
 4596              		.cfi_restore 31
 4597              		.cfi_restore 30
 4598              		.cfi_restore 29
 4599              		.cfi_restore 28
 4600              		.cfi_restore 27
 4601              		.cfi_restore 26
 4602              		.cfi_restore 25
 4603              		.cfi_restore 24
 4604              		.cfi_restore 23
 4605              		.cfi_restore 22
 4606              		.cfi_restore 21
 4607 01e0 4E800020 		blr
 4608              		.cfi_endproc
 4609              	.LFE1889:
 4610              		.size	_ZNSt8_Rb_treeIwwSt9_IdentityIwESt4lessIwESaIwEE8_M_eraseEPSt13_Rb_tree_nodeIwE, .-_ZNSt8_Rb
 4611              		.section	".text"
 4612              		.align 2
 4613              		.globl _ZN11FileBrowserD2Ev
 4614              		.type	_ZN11FileBrowserD2Ev, @function
 4615              	_ZN11FileBrowserD2Ev:
 4616              	.LFB1740:
 4617              		.loc 4 59 0
 4618              		.cfi_startproc
 4619              		.cfi_personality 0,__gxx_personality_v0
 4620              		.cfi_lsda 0,.LLSDA1740
 4621              	.LVL462:
 4622 0d3c 7C0802A6 		mflr 0
 4623 0d40 9421FFD8 		stwu 1,-40(1)
 4624              	.LCFI83:
 4625              		.cfi_def_cfa_offset 40
 4626              		.cfi_register 65, 0
 4627              	.LBB3713:
 4628 0d44 3D400000 		lis 10,_ZTV11FileBrowser+8@ha
 4629              	.LBE3713:
 4630 0d48 93E10024 		stw 31,36(1)
 4631 0d4c 7C7F1B78 		mr 31,3
 4632              		.cfi_offset 31, -4
 4633 0d50 9001002C 		stw 0,44(1)
 4634 0d54 93A1001C 		stw 29,28(1)
 4635              	.LBB3896:
 4636              		.loc 4 497 0
 4637 0d58 81230034 		lwz 9,52(3)
 4638 0d5c 81630038 		lwz 11,56(3)
 4639              	.LBE3896:
 4640              		.loc 4 59 0
 4641 0d60 93C10020 		stw 30,32(1)
 4642              	.LBB3897:
 4643              	.LBB3714:
 4644              	.LBB3715:
 4645              	.LBB3716:
 4646              	.LBB3717:
 4647              		.loc 3 571 0
 4648 0d64 7D695850 		subf 11,9,11
 4649              	.LBE3717:
 4650              	.LBE3716:
 4651              		.loc 4 61 0
 4652 0d68 5560F0BF 		srwi. 0,11,2
 4653              		.cfi_offset 30, -8
 4654              		.cfi_offset 29, -12
 4655              		.cfi_offset 65, 4
 4656              	.LBE3715:
 4657              	.LBE3714:
 4658              		.loc 4 59 0
 4659 0d6c 380A0008 		la 0,_ZTV11FileBrowser+8@l(10)
 4660 0d70 90030000 		stw 0,0(3)
 4661              	.LVL463:
 4662              	.LBB3777:
 4663              	.LBB3766:
 4664              		.loc 4 61 0
 4665 0d74 4182006C 		beq- 0,.L283
 4666 0d78 3BA00000 		li 29,0
 4667              	.LVL464:
 4668              	.L298:
 4669              		.loc 4 62 0
 4670 0d7c 57A0103A 		slwi 0,29,2
 4671 0d80 7FC9002E 		lwzx 30,9,0
 4672 0d84 2F9E0000 		cmpwi 7,30,0
 4673 0d88 419E0048 		beq- 7,.L284
 4674              	.LVL465:
 4675              	.LBB3719:
 4676              	.LBB3720:
 4677              	.LBB3721:
 4678              	.LBB3722:
 4679              	.LBB3723:
 4680              	.LBB3724:
 4681              	.LBB3725:
 4682              	.LBB3726:
 4683              		.loc 5 288 0
 4684 0d8c 813E0004 		lwz 9,4(30)
 4685              	.LVL466:
 4686              	.LBE3726:
 4687              	.LBE3725:
 4688              	.LBE3724:
 4689              	.LBB3727:
 4690              	.LBB3728:
 4691              		.loc 5 235 0
 4692 0d90 3D600000 		lis 11,_ZNSbIwSt11char_traitsIwESaIwEE4_Rep20_S_empty_rep_storageE@ha
 4693 0d94 380B0000 		la 0,_ZNSbIwSt11char_traitsIwESaIwEE4_Rep20_S_empty_rep_storageE@l(11)
 4694              	.LBE3728:
 4695              	.LBE3727:
 4696              		.loc 5 534 0
 4697 0d98 3869FFF4 		addi 3,9,-12
 4698              	.LVL467:
 4699              	.LBB3737:
 4700              	.LBB3735:
 4701              		.loc 5 235 0
 4702 0d9c 7F830000 		cmpw 7,3,0
 4703 0da0 409E00F4 		bne- 7,.L350
 4704              	.LVL468:
 4705              	.L290:
 4706              	.LBE3735:
 4707              	.LBE3737:
 4708              	.LBE3723:
 4709              	.LBE3722:
 4710              	.LBE3721:
 4711              	.LBB3741:
 4712              	.LBB3742:
 4713              	.LBB3743:
 4714              	.LBB3744:
 4715              	.LBB3745:
 4716              	.LBB3746:
 4717              		.loc 5 288 0
 4718 0da4 813E0000 		lwz 9,0(30)
 4719              	.LBE3746:
 4720              	.LBE3745:
 4721              	.LBE3744:
 4722              	.LBB3747:
 4723              	.LBB3748:
 4724              		.loc 5 235 0
 4725 0da8 3D600000 		lis 11,_ZNSs4_Rep20_S_empty_rep_storageE@ha
 4726 0dac 380B0000 		la 0,_ZNSs4_Rep20_S_empty_rep_storageE@l(11)
 4727              	.LBE3748:
 4728              	.LBE3747:
 4729              		.loc 5 534 0
 4730 0db0 3869FFF4 		addi 3,9,-12
 4731              	.LVL469:
 4732              	.LBB3757:
 4733              	.LBB3755:
 4734              		.loc 5 235 0
 4735 0db4 7F830000 		cmpw 7,3,0
 4736 0db8 409E00FC 		bne- 7,.L351
 4737              	.LVL470:
 4738              	.L297:
 4739              	.LBE3755:
 4740              	.LBE3757:
 4741              	.LBE3743:
 4742              	.LBE3742:
 4743              	.LBE3741:
 4744              	.LBE3720:
 4745              	.LBE3719:
 4746              		.loc 4 62 0 discriminator 1
 4747 0dbc 7FC3F378 		mr 3,30
 4748 0dc0 48000001 		bl _ZdlPv
 4749 0dc4 813F0034 		lwz 9,52(31)
 4750 0dc8 817F0038 		lwz 11,56(31)
 4751 0dcc 7D695850 		subf 11,9,11
 4752              	.LVL471:
 4753              	.L284:
 4754              		.loc 4 61 0
 4755 0dd0 3BBD0001 		addi 29,29,1
 4756              	.LVL472:
 4757              	.LBB3764:
 4758              	.LBB3718:
 4759              		.loc 3 571 0
 4760 0dd4 7D601670 		srawi 0,11,2
 4761              	.LBE3718:
 4762              	.LBE3764:
 4763              		.loc 4 61 0
 4764 0dd8 7F9D0040 		cmplw 7,29,0
 4765 0ddc 419CFFA0 		blt+ 7,.L298
 4766              	.LVL473:
 4767              	.L283:
 4768              	.LBE3766:
 4769              	.LBB3767:
 4770              	.LBB3768:
 4771              	.LBB3769:
 4772              	.LBB3770:
 4773              		.loc 5 711 0
 4774 0de0 817F0020 		lwz 11,32(31)
 4775              	.LBE3770:
 4776              	.LBE3769:
 4777              	.LBE3768:
 4778              	.LBE3767:
 4779              		.loc 4 65 0
 4780 0de4 3BDF0020 		addi 30,31,32
 4781              	.LVL474:
 4782              	.LBB3772:
 4783              	.LBB3773:
 4784              	.LBB3774:
 4785              		.loc 3 1256 0
 4786 0de8 913F0038 		stw 9,56(31)
 4787              	.LBE3774:
 4788              	.LBE3773:
 4789              	.LBE3772:
 4790              	.LBB3775:
 4791              	.LBB3771:
 4792              		.loc 5 796 0
 4793 0dec 7FC3F378 		mr 3,30
 4794 0df0 80ABFFF4 		lwz 5,-12(11)
 4795 0df4 38800000 		li 4,0
 4796 0df8 38C00000 		li 6,0
 4797              	.LEHB6:
 4798 0dfc 48000001 		bl _ZNSbIwSt11char_traitsIwESaIwEE9_M_mutateEjjj
 4799              	.LEHE6:
 4800              	.LVL475:
 4801              	.LBE3771:
 4802              	.LBE3775:
 4803              	.LBE3777:
 4804              	.LBB3778:
 4805              	.LBB3779:
 4806              	.LBB3780:
 4807              	.LBB3781:
 4808              	.LBB3782:
 4809              	.LBB3783:
 4810              		.loc 5 288 0
 4811 0e00 813F0044 		lwz 9,68(31)
 4812              	.LBE3783:
 4813              	.LBE3782:
 4814              	.LBE3781:
 4815              	.LBB3784:
 4816              	.LBB3785:
 4817              		.loc 5 235 0
 4818 0e04 3FC00000 		lis 30,_ZNSs4_Rep20_S_empty_rep_storageE@ha
 4819 0e08 3BDE0000 		la 30,_ZNSs4_Rep20_S_empty_rep_storageE@l(30)
 4820              	.LBE3785:
 4821              	.LBE3784:
 4822              		.loc 5 534 0
 4823 0e0c 3869FFF4 		addi 3,9,-12
 4824              	.LVL476:
 4825              	.LBB3794:
 4826              	.LBB3792:
 4827              		.loc 5 235 0
 4828 0e10 7F83F000 		cmpw 7,3,30
 4829 0e14 409E0174 		bne- 7,.L352
 4830              	.LVL477:
 4831              	.L304:
 4832              	.LBE3792:
 4833              	.LBE3794:
 4834              	.LBE3780:
 4835              	.LBE3779:
 4836              	.LBE3778:
 4837              	.LBB3798:
 4838              		.loc 4 497 0
 4839 0e18 807F0034 		lwz 3,52(31)
 4840              	.LVL478:
 4841              	.LBB3799:
 4842              	.LBB3800:
 4843              	.LBB3801:
 4844              	.LBB3802:
 4845              	.LBB3803:
 4846              		.loc 3 155 0
 4847 0e1c 2F830000 		cmpwi 7,3,0
 4848 0e20 419E0008 		beq- 7,.L309
 4849              	.LVL479:
 4850              	.LBB3804:
 4851              	.LBB3805:
 4852              		.loc 14 98 0
 4853 0e24 48000001 		bl _ZdlPv
 4854              	.LVL480:
 4855              	.L309:
 4856              	.LBE3805:
 4857              	.LBE3804:
 4858              	.LBE3803:
 4859              	.LBE3802:
 4860              	.LBE3801:
 4861              	.LBE3800:
 4862              	.LBE3799:
 4863              	.LBE3798:
 4864              	.LBB3806:
 4865              	.LBB3807:
 4866              	.LBB3808:
 4867              	.LBB3809:
 4868              	.LBB3810:
 4869              	.LBB3811:
 4870              		.loc 5 288 0
 4871 0e28 813F0028 		lwz 9,40(31)
 4872              	.LBE3811:
 4873              	.LBE3810:
 4874              	.LBE3809:
 4875              		.loc 5 534 0
 4876 0e2c 3869FFF4 		addi 3,9,-12
 4877              	.LVL481:
 4878              	.LBB3812:
 4879              	.LBB3813:
 4880              		.loc 5 235 0
 4881 0e30 7F83F000 		cmpw 7,3,30
 4882 0e34 409E0134 		bne- 7,.L353
 4883              	.LVL482:
 4884              	.L315:
 4885              	.LBE3813:
 4886              	.LBE3812:
 4887              	.LBE3808:
 4888              	.LBE3807:
 4889              	.LBE3806:
 4890              	.LBB3824:
 4891              	.LBB3825:
 4892              	.LBB3826:
 4893              	.LBB3827:
 4894              	.LBB3828:
 4895              	.LBB3829:
 4896              		.loc 5 288 0
 4897 0e38 813F0024 		lwz 9,36(31)
 4898              	.LBE3829:
 4899              	.LBE3828:
 4900              	.LBE3827:
 4901              		.loc 5 534 0
 4902 0e3c 3869FFF4 		addi 3,9,-12
 4903              	.LVL483:
 4904              	.LBB3830:
 4905              	.LBB3831:
 4906              		.loc 5 235 0
 4907 0e40 7F83F000 		cmpw 7,3,30
 4908 0e44 409E0104 		bne- 7,.L354
 4909              	.LVL484:
 4910              	.L321:
 4911              	.LBE3831:
 4912              	.LBE3830:
 4913              	.LBE3826:
 4914              	.LBE3825:
 4915              	.LBE3824:
 4916              	.LBB3842:
 4917              	.LBB3843:
 4918              	.LBB3844:
 4919              	.LBB3845:
 4920              	.LBB3846:
 4921              	.LBB3847:
 4922              		.loc 5 288 0
 4923 0e48 813F0020 		lwz 9,32(31)
 4924              	.LBE3847:
 4925              	.LBE3846:
 4926              	.LBE3845:
 4927              	.LBB3848:
 4928              	.LBB3849:
 4929              		.loc 5 235 0
 4930 0e4c 3D600000 		lis 11,_ZNSbIwSt11char_traitsIwESaIwEE4_Rep20_S_empty_rep_storageE@ha
 4931 0e50 380B0000 		la 0,_ZNSbIwSt11char_traitsIwESaIwEE4_Rep20_S_empty_rep_storageE@l(11)
 4932              	.LBE3849:
 4933              	.LBE3848:
 4934              		.loc 5 534 0
 4935 0e54 3869FFF4 		addi 3,9,-12
 4936              	.LVL485:
 4937              	.LBB3858:
 4938              	.LBB3856:
 4939              		.loc 5 235 0
 4940 0e58 7F830000 		cmpw 7,3,0
 4941 0e5c 409E00CC 		bne- 7,.L355
 4942              	.LVL486:
 4943              	.L327:
 4944              	.LBE3856:
 4945              	.LBE3858:
 4946              	.LBE3844:
 4947              	.LBE3843:
 4948              	.LBE3842:
 4949              	.LBB3862:
 4950              	.LBB3863:
 4951              	.LBB3864:
 4952              	.LBB3865:
 4953              	.LBB3866:
 4954              	.LBB3867:
 4955              		.loc 13 639 0
 4956 0e60 809F0010 		lwz 4,16(31)
 4957 0e64 387F0008 		addi 3,31,8
 4958 0e68 48000001 		bl _ZNSt8_Rb_treeIwwSt9_IdentityIwESt4lessIwESaIwEE8_M_eraseEPSt13_Rb_tree_nodeIwE
 4959              	.LVL487:
 4960              	.LBE3867:
 4961              	.LBE3866:
 4962              	.LBE3865:
 4963              	.LBE3864:
 4964              	.LBE3863:
 4965              	.LBE3862:
 4966              	.LBB3868:
 4967              	.LBB3869:
 4968              	.LBB3870:
 4969              		.loc 1 43 0
 4970 0e6c 3D200000 		lis 9,_ZTV7Browser+8@ha
 4971 0e70 38090008 		la 0,_ZTV7Browser+8@l(9)
 4972              	.LBE3870:
 4973              	.LBE3869:
 4974              	.LBE3868:
 4975              	.LBE3897:
 4976              		.loc 4 66 0
 4977 0e74 83A1001C 		lwz 29,28(1)
 4978              	.LBB3898:
 4979              	.LBB3873:
 4980              	.LBB3872:
 4981              	.LBB3871:
 4982              		.loc 1 43 0
 4983 0e78 901F0000 		stw 0,0(31)
 4984              	.LBE3871:
 4985              	.LBE3872:
 4986              	.LBE3873:
 4987              	.LBE3898:
 4988              		.loc 4 66 0
 4989 0e7c 8001002C 		lwz 0,44(1)
 4990 0e80 83C10020 		lwz 30,32(1)
 4991 0e84 7C0803A6 		mtlr 0
 4992 0e88 83E10024 		lwz 31,36(1)
 4993              	.LVL488:
 4994 0e8c 38210028 		addi 1,1,40
 4995              		.cfi_remember_state
 4996              	.LCFI84:
 4997              		.cfi_def_cfa_offset 0
 4998              		.cfi_restore 31
 4999              		.cfi_restore 30
 5000              		.cfi_restore 29
 5001 0e90 4E800020 		blr
 5002              	.LVL489:
 5003              	.L350:
 5004              	.LCFI85:
 5005              		.cfi_restore_state
 5006              	.LBB3899:
 5007              	.LBB3874:
 5008              	.LBB3776:
 5009              	.LBB3765:
 5010              	.LBB3763:
 5011              	.LBB3761:
 5012              	.LBB3740:
 5013              	.LBB3739:
 5014              	.LBB3738:
 5015              	.LBB3736:
 5016              	.LBB3729:
 5017              	.LBB3730:
 5018              	.LBB3731:
 5019              		.loc 6 66 0
 5020 0e94 8169FFFC 		lwz 11,-4(9)
 5021              	.LVL490:
 5022              	.LBE3731:
 5023              	.LBE3730:
 5024              	.LBE3729:
 5025              		.loc 5 240 0
 5026 0e98 2F8B0000 		cmpwi 7,11,0
 5027              	.LBB3734:
 5028              	.LBB3733:
 5029              	.LBB3732:
 5030              		.loc 6 67 0
 5031 0e9c 396BFFFF 		addi 11,11,-1
 5032 0ea0 9169FFFC 		stw 11,-4(9)
 5033              	.LBE3732:
 5034              	.LBE3733:
 5035              	.LBE3734:
 5036              		.loc 5 240 0
 5037 0ea4 419DFF00 		bgt+ 7,.L290
 5038              		.loc 5 244 0
 5039 0ea8 3881000D 		addi 4,1,13
 5040 0eac 48000001 		bl _ZNSbIwSt11char_traitsIwESaIwEE4_Rep10_M_destroyERKS1_
 5041              	.LVL491:
 5042 0eb0 4BFFFEF4 		b .L290
 5043              	.LVL492:
 5044              	.L351:
 5045              	.LBE3736:
 5046              	.LBE3738:
 5047              	.LBE3739:
 5048              	.LBE3740:
 5049              	.LBE3761:
 5050              	.LBB3762:
 5051              	.LBB3760:
 5052              	.LBB3759:
 5053              	.LBB3758:
 5054              	.LBB3756:
 5055              	.LBB3749:
 5056              	.LBB3750:
 5057              	.LBB3751:
 5058              		.loc 6 66 0
 5059 0eb4 8169FFFC 		lwz 11,-4(9)
 5060              	.LVL493:
 5061              	.LBE3751:
 5062              	.LBE3750:
 5063              	.LBE3749:
 5064              		.loc 5 240 0
 5065 0eb8 2F8B0000 		cmpwi 7,11,0
 5066              	.LBB3754:
 5067              	.LBB3753:
 5068              	.LBB3752:
 5069              		.loc 6 67 0
 5070 0ebc 396BFFFF 		addi 11,11,-1
 5071 0ec0 9169FFFC 		stw 11,-4(9)
 5072              	.LBE3752:
 5073              	.LBE3753:
 5074              	.LBE3754:
 5075              		.loc 5 240 0
 5076 0ec4 419DFEF8 		bgt+ 7,.L297
 5077              		.loc 5 244 0
 5078 0ec8 3881000C 		addi 4,1,12
 5079 0ecc 48000001 		bl _ZNSs4_Rep10_M_destroyERKSaIcE
 5080              	.LVL494:
 5081 0ed0 4BFFFEEC 		b .L297
 5082              	.LVL495:
 5083              	.L348:
 5084 0ed4 7C7D1B78 		mr 29,3
 5085              	.LBE3756:
 5086              	.LBE3758:
 5087              	.LBE3759:
 5088              	.LBE3760:
 5089              	.LBE3762:
 5090              	.LBE3763:
 5091              	.LBE3765:
 5092              	.LBE3776:
 5093              	.LBE3874:
 5094              		.loc 4 59 0
 5095 0ed8 387F0044 		addi 3,31,68
 5096 0edc 48000001 		bl _ZNSsD1Ev
 5097              	.LVL496:
 5098              	.LBB3875:
 5099              		.loc 4 497 0
 5100 0ee0 807F0034 		lwz 3,52(31)
 5101              	.LVL497:
 5102              	.LBB3876:
 5103              	.LBB3877:
 5104              	.LBB3878:
 5105              	.LBB3879:
 5106              	.LBB3880:
 5107              		.loc 3 155 0
 5108 0ee4 2F830000 		cmpwi 7,3,0
 5109 0ee8 419E0008 		beq- 7,.L340
 5110              	.LVL498:
 5111              	.LBB3881:
 5112              	.LBB3882:
 5113              		.loc 14 98 0
 5114 0eec 48000001 		bl _ZdlPv
 5115              	.LVL499:
 5116              	.L340:
 5117              	.LBE3882:
 5118              	.LBE3881:
 5119              	.LBE3880:
 5120              	.LBE3879:
 5121              	.LBE3878:
 5122              	.LBE3877:
 5123              	.LBE3876:
 5124              	.LBE3875:
 5125              		.loc 4 59 0
 5126 0ef0 387F0028 		addi 3,31,40
 5127 0ef4 48000001 		bl _ZNSsD1Ev
 5128 0ef8 387F0024 		addi 3,31,36
 5129 0efc 48000001 		bl _ZNSsD1Ev
 5130 0f00 7FC3F378 		mr 3,30
 5131 0f04 48000001 		bl _ZNSbIwSt11char_traitsIwESaIwEED1Ev
 5132              	.LVL500:
 5133              	.LBB3883:
 5134              	.LBB3884:
 5135              	.LBB3885:
 5136              	.LBB3886:
 5137              	.LBB3887:
 5138              	.LBB3888:
 5139              		.loc 13 639 0
 5140 0f08 809F0010 		lwz 4,16(31)
 5141 0f0c 387F0008 		addi 3,31,8
 5142 0f10 48000001 		bl _ZNSt8_Rb_treeIwwSt9_IdentityIwESt4lessIwESaIwEE8_M_eraseEPSt13_Rb_tree_nodeIwE
 5143              	.LVL501:
 5144              	.LBE3888:
 5145              	.LBE3887:
 5146              	.LBE3886:
 5147              	.LBE3885:
 5148              	.LBE3884:
 5149              	.LBE3883:
 5150              	.LBB3889:
 5151              	.LBB3890:
 5152              	.LBB3891:
 5153              		.loc 1 43 0
 5154 0f14 3D200000 		lis 9,_ZTV7Browser+8@ha
 5155 0f18 38090008 		la 0,_ZTV7Browser+8@l(9)
 5156 0f1c 7FA3EB78 		mr 3,29
 5157 0f20 901F0000 		stw 0,0(31)
 5158              	.LEHB7:
 5159 0f24 48000001 		bl _Unwind_Resume
 5160              	.LEHE7:
 5161              	.LVL502:
 5162              	.L355:
 5163              	.LBE3891:
 5164              	.LBE3890:
 5165              	.LBE3889:
 5166              	.LBB3892:
 5167              	.LBB3861:
 5168              	.LBB3860:
 5169              	.LBB3859:
 5170              	.LBB3857:
 5171              	.LBB3850:
 5172              	.LBB3851:
 5173              	.LBB3852:
 5174              		.loc 6 66 0
 5175 0f28 8169FFFC 		lwz 11,-4(9)
 5176              	.LVL503:
 5177              	.LBE3852:
 5178              	.LBE3851:
 5179              	.LBE3850:
 5180              		.loc 5 240 0
 5181 0f2c 2F8B0000 		cmpwi 7,11,0
 5182              	.LBB3855:
 5183              	.LBB3854:
 5184              	.LBB3853:
 5185              		.loc 6 67 0
 5186 0f30 396BFFFF 		addi 11,11,-1
 5187 0f34 9169FFFC 		stw 11,-4(9)
 5188              	.LBE3853:
 5189              	.LBE3854:
 5190              	.LBE3855:
 5191              		.loc 5 240 0
 5192 0f38 419DFF28 		bgt+ 7,.L327
 5193              		.loc 5 244 0
 5194 0f3c 38810008 		addi 4,1,8
 5195 0f40 48000001 		bl _ZNSbIwSt11char_traitsIwESaIwEE4_Rep10_M_destroyERKS1_
 5196              	.LVL504:
 5197 0f44 4BFFFF1C 		b .L327
 5198              	.LVL505:
 5199              	.L354:
 5200              	.LBE3857:
 5201              	.LBE3859:
 5202              	.LBE3860:
 5203              	.LBE3861:
 5204              	.LBE3892:
 5205              	.LBB3893:
 5206              	.LBB3841:
 5207              	.LBB3840:
 5208              	.LBB3839:
 5209              	.LBB3838:
 5210              	.LBB3832:
 5211              	.LBB3833:
 5212              	.LBB3834:
 5213              		.loc 6 66 0
 5214 0f48 8169FFFC 		lwz 11,-4(9)
 5215              	.LVL506:
 5216              	.LBE3834:
 5217              	.LBE3833:
 5218              	.LBE3832:
 5219              		.loc 5 240 0
 5220 0f4c 2F8B0000 		cmpwi 7,11,0
 5221              	.LBB3837:
 5222              	.LBB3836:
 5223              	.LBB3835:
 5224              		.loc 6 67 0
 5225 0f50 396BFFFF 		addi 11,11,-1
 5226 0f54 9169FFFC 		stw 11,-4(9)
 5227              	.LBE3835:
 5228              	.LBE3836:
 5229              	.LBE3837:
 5230              		.loc 5 240 0
 5231 0f58 419DFEF0 		bgt+ 7,.L321
 5232              		.loc 5 244 0
 5233 0f5c 38810009 		addi 4,1,9
 5234 0f60 48000001 		bl _ZNSs4_Rep10_M_destroyERKSaIcE
 5235              	.LVL507:
 5236 0f64 4BFFFEE4 		b .L321
 5237              	.LVL508:
 5238              	.L353:
 5239              	.LBE3838:
 5240              	.LBE3839:
 5241              	.LBE3840:
 5242              	.LBE3841:
 5243              	.LBE3893:
 5244              	.LBB3894:
 5245              	.LBB3823:
 5246              	.LBB3822:
 5247              	.LBB3821:
 5248              	.LBB3820:
 5249              	.LBB3814:
 5250              	.LBB3815:
 5251              	.LBB3816:
 5252              		.loc 6 66 0
 5253 0f68 8169FFFC 		lwz 11,-4(9)
 5254              	.LVL509:
 5255              	.LBE3816:
 5256              	.LBE3815:
 5257              	.LBE3814:
 5258              		.loc 5 240 0
 5259 0f6c 2F8B0000 		cmpwi 7,11,0
 5260              	.LBB3819:
 5261              	.LBB3818:
 5262              	.LBB3817:
 5263              		.loc 6 67 0
 5264 0f70 396BFFFF 		addi 11,11,-1
 5265 0f74 9169FFFC 		stw 11,-4(9)
 5266              	.LBE3817:
 5267              	.LBE3818:
 5268              	.LBE3819:
 5269              		.loc 5 240 0
 5270 0f78 419DFEC0 		bgt+ 7,.L315
 5271              		.loc 5 244 0
 5272 0f7c 3881000A 		addi 4,1,10
 5273 0f80 48000001 		bl _ZNSs4_Rep10_M_destroyERKSaIcE
 5274              	.LVL510:
 5275 0f84 4BFFFEB4 		b .L315
 5276              	.LVL511:
 5277              	.L352:
 5278              	.LBE3820:
 5279              	.LBE3821:
 5280              	.LBE3822:
 5281              	.LBE3823:
 5282              	.LBE3894:
 5283              	.LBB3895:
 5284              	.LBB3797:
 5285              	.LBB3796:
 5286              	.LBB3795:
 5287              	.LBB3793:
 5288              	.LBB3786:
 5289              	.LBB3787:
 5290              	.LBB3788:
 5291              		.loc 6 66 0
 5292 0f88 8169FFFC 		lwz 11,-4(9)
 5293              	.LVL512:
 5294              	.LBE3788:
 5295              	.LBE3787:
 5296              	.LBE3786:
 5297              		.loc 5 240 0
 5298 0f8c 2F8B0000 		cmpwi 7,11,0
 5299              	.LBB3791:
 5300              	.LBB3790:
 5301              	.LBB3789:
 5302              		.loc 6 67 0
 5303 0f90 396BFFFF 		addi 11,11,-1
 5304 0f94 9169FFFC 		stw 11,-4(9)
 5305              	.LBE3789:
 5306              	.LBE3790:
 5307              	.LBE3791:
 5308              		.loc 5 240 0
 5309 0f98 419DFE80 		bgt+ 7,.L304
 5310              		.loc 5 244 0
 5311 0f9c 3881000B 		addi 4,1,11
 5312 0fa0 48000001 		bl _ZNSs4_Rep10_M_destroyERKSaIcE
 5313              	.LVL513:
 5314 0fa4 4BFFFE74 		b .L304
 5315              	.LBE3793:
 5316              	.LBE3795:
 5317              	.LBE3796:
 5318              	.LBE3797:
 5319              	.LBE3895:
 5320              	.LBE3899:
 5321              		.cfi_endproc
 5322              	.LFE1740:
 5323              		.section	.gcc_except_table
 5324              	.LLSDA1740:
 5325 0026 FF       		.byte	0xff
 5326 0027 FF       		.byte	0xff
 5327 0028 01       		.byte	0x1
 5328 0029 0B       		.uleb128 .LLSDACSE1740-.LLSDACSB1740
 5329              	.LLSDACSB1740:
 5330 002a C001     		.uleb128 .LEHB6-.LFB1740
 5331 002c 04       		.uleb128 .LEHE6-.LEHB6
 5332 002d 9803     		.uleb128 .L348-.LFB1740
 5333 002f 00       		.uleb128 0
 5334 0030 E803     		.uleb128 .LEHB7-.LFB1740
 5335 0032 04       		.uleb128 .LEHE7-.LEHB7
 5336 0033 00       		.uleb128 0
 5337 0034 00       		.uleb128 0
 5338              	.LLSDACSE1740:
 5339              		.section	".text"
 5340              		.size	_ZN11FileBrowserD2Ev, .-_ZN11FileBrowserD2Ev
 5341              		.align 2
 5342              		.globl _ZN11FileBrowserD0Ev
 5343              		.type	_ZN11FileBrowserD0Ev, @function
 5344              	_ZN11FileBrowserD0Ev:
 5345              	.LFB1742:
 5346              		.loc 4 59 0
 5347              		.cfi_startproc
 5348              	.LVL514:
 5349 0fa8 9421FFF0 		stwu 1,-16(1)
 5350              	.LCFI86:
 5351              		.cfi_def_cfa_offset 16
 5352 0fac 7C0802A6 		mflr 0
 5353 0fb0 93E1000C 		stw 31,12(1)
 5354 0fb4 7C7F1B78 		mr 31,3
 5355              		.cfi_offset 31, -4
 5356              		.cfi_register 65, 0
 5357 0fb8 90010014 		stw 0,20(1)
 5358              		.loc 4 66 0
 5359              		.cfi_offset 65, 4
 5360 0fbc 48000001 		bl _ZN11FileBrowserD1Ev
 5361              	.LVL515:
 5362 0fc0 7FE3FB78 		mr 3,31
 5363 0fc4 48000001 		bl _ZdlPv
 5364 0fc8 80010014 		lwz 0,20(1)
 5365 0fcc 83E1000C 		lwz 31,12(1)
 5366              	.LVL516:
 5367 0fd0 7C0803A6 		mtlr 0
 5368 0fd4 38210010 		addi 1,1,16
 5369              	.LCFI87:
 5370              		.cfi_def_cfa_offset 0
 5371              		.cfi_restore 31
 5372 0fd8 4E800020 		blr
 5373              		.cfi_endproc
 5374              	.LFE1742:
 5375              		.size	_ZN11FileBrowserD0Ev, .-_ZN11FileBrowserD0Ev
 5376              		.align 2
 5377              		.globl _ZN11FileBrowserC2Ev
 5378              		.type	_ZN11FileBrowserC2Ev, @function
 5379              	_ZN11FileBrowserC2Ev:
 5380              	.LFB1734:
 5381              		.loc 4 43 0
 5382              		.cfi_startproc
 5383              		.cfi_personality 0,__gxx_personality_v0
 5384              		.cfi_lsda 0,.LLSDA1734
 5385              	.LVL517:
 5386 0fdc 7C0802A6 		mflr 0
 5387 0fe0 9421FFE8 		stwu 1,-24(1)
 5388              	.LCFI88:
 5389              		.cfi_def_cfa_offset 24
 5390              		.cfi_register 65, 0
 5391              	.LBB3981:
 5392              	.LBB3982:
 5393              	.LBB3983:
 5394              	.LBB3984:
 5395              		.loc 5 270 0
 5396 0fe4 3D200000 		lis 9,_ZNSs4_Rep20_S_empty_rep_storageE+12@ha
 5397              	.LBE3984:
 5398              	.LBE3983:
 5399              	.LBE3982:
 5400              	.LBB3989:
 5401              	.LBB3990:
 5402              	.LBB3991:
 5403 0fe8 3D600000 		lis 11,_ZNSbIwSt11char_traitsIwESaIwEE4_Rep20_S_empty_rep_storageE+12@ha
 5404              	.LBE3991:
 5405              	.LBE3990:
 5406              	.LBE3989:
 5407              	.LBE3981:
 5408              		.loc 4 43 0
 5409 0fec 93C10010 		stw 30,16(1)
 5410              	.LBB4067:
 5411              		.loc 4 44 0
 5412 0ff0 3D000000 		lis 8,_ZTV11FileBrowser+8@ha
 5413              	.LBE4067:
 5414              		.loc 4 43 0
 5415 0ff4 9001001C 		stw 0,28(1)
 5416              	.LBB4068:
 5417              	.LBB3996:
 5418              	.LBB3997:
 5419              		.loc 1 42 0
 5420 0ff8 38000000 		li 0,0
 5421              		.cfi_offset 65, 4
 5422              		.cfi_offset 30, -8
 5423              	.LBE3997:
 5424              	.LBE3996:
 5425              	.LBE4068:
 5426              		.loc 4 43 0
 5427 0ffc 93E10014 		stw 31,20(1)
 5428              	.LBB4069:
 5429              	.LBB3999:
 5430              	.LBB3987:
 5431              	.LBB3985:
 5432              		.loc 5 270 0
 5433 1000 3929000C 		la 9,_ZNSs4_Rep20_S_empty_rep_storageE+12@l(9)
 5434              	.LBE3985:
 5435              	.LBE3987:
 5436              	.LBE3999:
 5437              	.LBE4069:
 5438              		.loc 4 43 0
 5439 1004 93A1000C 		stw 29,12(1)
 5440              	.LBB4070:
 5441              	.LBB4000:
 5442              	.LBB4001:
 5443              	.LBB4002:
 5444              	.LBB4003:
 5445              	.LBB4004:
 5446              	.LBB4005:
 5447              		.loc 13 459 0
 5448 1008 3943000C 		addi 10,3,12
 5449              	.LBE4005:
 5450              	.LBE4004:
 5451              	.LBE4003:
 5452              	.LBE4002:
 5453              	.LBE4001:
 5454              	.LBE4000:
 5455              	.LBB4025:
 5456              	.LBB3998:
 5457              		.loc 1 42 0
 5458 100c 90030004 		stw 0,4(3)
 5459              	.LBE3998:
 5460              	.LBE4025:
 5461              	.LBB4026:
 5462              	.LBB3994:
 5463              	.LBB3992:
 5464              		.loc 5 270 0
 5465 1010 396B000C 		la 11,_ZNSbIwSt11char_traitsIwESaIwEE4_Rep20_S_empty_rep_storageE+12@l(11)
 5466              	.LBE3992:
 5467              	.LBE3994:
 5468              	.LBE4026:
 5469              	.LBB4027:
 5470              	.LBB4020:
 5471              	.LBB4015:
 5472              	.LBB4010:
 5473              		.loc 13 445 0
 5474 1014 9003001C 		stw 0,28(3)
 5475              	.LBE4010:
 5476              	.LBE4015:
 5477              	.LBE4020:
 5478              	.LBE4027:
 5479              		.loc 4 44 0
 5480 1018 39080008 		la 8,_ZTV11FileBrowser+8@l(8)
 5481              		.loc 4 47 0
 5482 101c 3BC30020 		addi 30,3,32
 5483              		.loc 4 44 0
 5484 1020 91030000 		stw 8,0(3)
 5485              	.LBB4028:
 5486              	.LBB4021:
 5487              	.LBB4016:
 5488              	.LBB4011:
 5489              		.loc 13 445 0
 5490 1024 9003000C 		stw 0,12(3)
 5491              	.LBE4011:
 5492              	.LBE4016:
 5493              	.LBE4021:
 5494              	.LBE4028:
 5495              	.LBE4070:
 5496              		.loc 4 43 0
 5497 1028 7C7F1B78 		mr 31,3
 5498              		.cfi_offset 29, -12
 5499              		.cfi_offset 31, -4
 5500              	.LVL518:
 5501              	.LBB4071:
 5502              	.LBB4029:
 5503              	.LBB4022:
 5504              	.LBB4017:
 5505              	.LBB4012:
 5506              		.loc 13 445 0
 5507 102c 90030010 		stw 0,16(3)
 5508              	.LBE4012:
 5509              	.LBE4017:
 5510              	.LBE4022:
 5511              	.LBE4029:
 5512              	.LBB4030:
 5513              	.LBB4031:
 5514              		.loc 5 796 0
 5515 1030 38800000 		li 4,0
 5516              	.LBE4031:
 5517              	.LBE4030:
 5518              	.LBB4034:
 5519              	.LBB4023:
 5520              	.LBB4018:
 5521              	.LBB4013:
 5522              	.LBB4008:
 5523              	.LBB4006:
 5524              		.loc 13 459 0
 5525 1034 91430014 		stw 10,20(3)
 5526              	.LBE4006:
 5527              	.LBE4008:
 5528              	.LBE4013:
 5529              	.LBE4018:
 5530              	.LBE4023:
 5531              	.LBE4034:
 5532              	.LBB4035:
 5533              	.LBB4032:
 5534              		.loc 5 796 0
 5535 1038 38C00000 		li 6,0
 5536              	.LBE4032:
 5537              	.LBE4035:
 5538              	.LBB4036:
 5539              	.LBB4024:
 5540              	.LBB4019:
 5541              	.LBB4014:
 5542              	.LBB4009:
 5543              	.LBB4007:
 5544              		.loc 13 460 0
 5545 103c 91430018 		stw 10,24(3)
 5546              	.LVL519:
 5547              	.LBE4007:
 5548              	.LBE4009:
 5549              	.LBE4014:
 5550              	.LBE4019:
 5551              	.LBE4024:
 5552              	.LBE4036:
 5553              	.LBB4037:
 5554              	.LBB3995:
 5555              	.LBB3993:
 5556              		.loc 5 270 0
 5557 1040 91630020 		stw 11,32(3)
 5558              	.LVL520:
 5559              	.LBE3993:
 5560              	.LBE3995:
 5561              	.LBE4037:
 5562              	.LBB4038:
 5563              	.LBB3988:
 5564              	.LBB3986:
 5565 1044 91230024 		stw 9,36(3)
 5566              	.LVL521:
 5567              	.LBE3986:
 5568              	.LBE3988:
 5569              	.LBE4038:
 5570              	.LBB4039:
 5571              	.LBB4040:
 5572              	.LBB4041:
 5573 1048 91230028 		stw 9,40(3)
 5574              	.LVL522:
 5575              	.LBE4041:
 5576              	.LBE4040:
 5577              	.LBE4039:
 5578              	.LBB4042:
 5579              	.LBB4043:
 5580              	.LBB4044:
 5581              	.LBB4045:
 5582              		.loc 3 83 0
 5583 104c 90030034 		stw 0,52(3)
 5584 1050 90030038 		stw 0,56(3)
 5585 1054 9003003C 		stw 0,60(3)
 5586              	.LVL523:
 5587              	.LBE4045:
 5588              	.LBE4044:
 5589              	.LBE4043:
 5590              	.LBE4042:
 5591              	.LBB4046:
 5592              	.LBB4047:
 5593              	.LBB4048:
 5594              		.loc 5 270 0
 5595 1058 91230044 		stw 9,68(3)
 5596              	.LVL524:
 5597              	.LBE4048:
 5598              	.LBE4047:
 5599              	.LBE4046:
 5600              	.LBB4049:
 5601              	.LBB4033:
 5602              		.loc 5 796 0
 5603 105c 7FC3F378 		mr 3,30
 5604              	.LVL525:
 5605 1060 80ABFFF4 		lwz 5,-12(11)
 5606              	.LEHB8:
 5607 1064 48000001 		bl _ZNSbIwSt11char_traitsIwESaIwEE9_M_mutateEjjj
 5608              	.LEHE8:
 5609              	.LVL526:
 5610              	.LBE4033:
 5611              	.LBE4049:
 5612              		.loc 4 48 0
 5613 1068 38000000 		li 0,0
 5614              	.LBE4071:
 5615              		.loc 4 54 0
 5616 106c 83A1000C 		lwz 29,12(1)
 5617              	.LBB4072:
 5618              		.loc 4 48 0
 5619 1070 981F0048 		stb 0,72(31)
 5620              		.loc 4 53 0
 5621 1074 7FE3FB78 		mr 3,31
 5622              		.loc 4 49 0
 5623 1078 981F0049 		stb 0,73(31)
 5624              		.loc 4 50 0
 5625 107c 38000000 		li 0,0
 5626 1080 901F0040 		stw 0,64(31)
 5627              	.LBE4072:
 5628              		.loc 4 54 0
 5629 1084 8001001C 		lwz 0,28(1)
 5630 1088 83C10010 		lwz 30,16(1)
 5631              	.LVL527:
 5632 108c 83E10014 		lwz 31,20(1)
 5633              	.LVL528:
 5634 1090 7C0803A6 		mtlr 0
 5635 1094 38210018 		addi 1,1,24
 5636              		.cfi_remember_state
 5637              	.LCFI89:
 5638              		.cfi_def_cfa_offset 0
 5639              		.cfi_restore 31
 5640              		.cfi_restore 30
 5641              		.cfi_restore 29
 5642              	.LBB4073:
 5643              		.loc 4 53 0
 5644 1098 48000000 		b _ZN11FileBrowser12ResetBrowserEv
 5645              	.LVL529:
 5646              	.L379:
 5647              	.LCFI90:
 5648              		.cfi_restore_state
 5649 109c 7C7D1B78 		mr 29,3
 5650              		.loc 4 44 0
 5651 10a0 387F0044 		addi 3,31,68
 5652 10a4 48000001 		bl _ZNSsD1Ev
 5653              	.LVL530:
 5654              	.LBB4050:
 5655              		.loc 4 497 0
 5656 10a8 807F0034 		lwz 3,52(31)
 5657              	.LVL531:
 5658              	.LBB4051:
 5659              	.LBB4052:
 5660              	.LBB4053:
 5661              	.LBB4054:
 5662              	.LBB4055:
 5663              		.loc 3 155 0
 5664 10ac 2F830000 		cmpwi 7,3,0
 5665 10b0 419E0008 		beq- 7,.L372
 5666              	.LVL532:
 5667              	.LBB4056:
 5668              	.LBB4057:
 5669              		.loc 14 98 0
 5670 10b4 48000001 		bl _ZdlPv
 5671              	.LVL533:
 5672              	.L372:
 5673              	.LBE4057:
 5674              	.LBE4056:
 5675              	.LBE4055:
 5676              	.LBE4054:
 5677              	.LBE4053:
 5678              	.LBE4052:
 5679              	.LBE4051:
 5680              	.LBE4050:
 5681              		.loc 4 44 0
 5682 10b8 387F0028 		addi 3,31,40
 5683 10bc 48000001 		bl _ZNSsD1Ev
 5684 10c0 387F0024 		addi 3,31,36
 5685 10c4 48000001 		bl _ZNSsD1Ev
 5686 10c8 7FC3F378 		mr 3,30
 5687 10cc 48000001 		bl _ZNSbIwSt11char_traitsIwESaIwEED1Ev
 5688              	.LVL534:
 5689              	.LBB4058:
 5690              	.LBB4059:
 5691              	.LBB4060:
 5692              	.LBB4061:
 5693              	.LBB4062:
 5694              	.LBB4063:
 5695              		.loc 13 639 0
 5696 10d0 809F0010 		lwz 4,16(31)
 5697 10d4 387F0008 		addi 3,31,8
 5698 10d8 48000001 		bl _ZNSt8_Rb_treeIwwSt9_IdentityIwESt4lessIwESaIwEE8_M_eraseEPSt13_Rb_tree_nodeIwE
 5699              	.LVL535:
 5700              	.LBE4063:
 5701              	.LBE4062:
 5702              	.LBE4061:
 5703              	.LBE4060:
 5704              	.LBE4059:
 5705              	.LBE4058:
 5706              	.LBB4064:
 5707              	.LBB4065:
 5708              	.LBB4066:
 5709              		.loc 1 43 0
 5710 10dc 3D200000 		lis 9,_ZTV7Browser+8@ha
 5711 10e0 38090008 		la 0,_ZTV7Browser+8@l(9)
 5712 10e4 7FA3EB78 		mr 3,29
 5713 10e8 901F0000 		stw 0,0(31)
 5714              	.LEHB9:
 5715 10ec 48000001 		bl _Unwind_Resume
 5716              	.LEHE9:
 5717              	.LBE4066:
 5718              	.LBE4065:
 5719              	.LBE4064:
 5720              	.LBE4073:
 5721              		.cfi_endproc
 5722              	.LFE1734:
 5723              		.section	.gcc_except_table
 5724              	.LLSDA1734:
 5725 0035 FF       		.byte	0xff
 5726 0036 FF       		.byte	0xff
 5727 0037 01       		.byte	0x1
 5728 0038 0B       		.uleb128 .LLSDACSE1734-.LLSDACSB1734
 5729              	.LLSDACSB1734:
 5730 0039 8801     		.uleb128 .LEHB8-.LFB1734
 5731 003b 04       		.uleb128 .LEHE8-.LEHB8
 5732 003c C001     		.uleb128 .L379-.LFB1734
 5733 003e 00       		.uleb128 0
 5734 003f 9002     		.uleb128 .LEHB9-.LFB1734
 5735 0041 04       		.uleb128 .LEHE9-.LEHB9
 5736 0042 00       		.uleb128 0
 5737 0043 00       		.uleb128 0
 5738              	.LLSDACSE1734:
 5739              		.section	".text"
 5740              		.size	_ZN11FileBrowserC2Ev, .-_ZN11FileBrowserC2Ev
 5741              		.section	.text._ZNSt6vectorIP19_BrowserEntryStructSaIS1_EE13_M_insert_auxEN9__gnu_cxx17__normal_it
 5742              		.align 2
 5743              		.weak	_ZNSt6vectorIP19_BrowserEntryStructSaIS1_EE13_M_insert_auxEN9__gnu_cxx17__normal_iteratorIPS
 5744              		.type	_ZNSt6vectorIP19_BrowserEntryStructSaIS1_EE13_M_insert_auxEN9__gnu_cxx17__normal_iteratorIPS
 5745              	_ZNSt6vectorIP19_BrowserEntryStructSaIS1_EE13_M_insert_auxEN9__gnu_cxx17__normal_iteratorIPS1_S3_EE
 5746              	.LFB1912:
 5747              		.file 15 "d:\\devkitpro\\devkitppc\\bin\\../lib/gcc/powerpc-eabi/4.6.3/../../../../powerpc-eabi/in
 5748              		.loc 15 300 0
 5749              		.cfi_startproc
 5750              	.LVL536:
 5751 0000 7C0802A6 		mflr 0
 5752 0004 9421FFD8 		stwu 1,-40(1)
 5753              	.LCFI91:
 5754              		.cfi_def_cfa_offset 40
 5755              		.cfi_register 65, 0
 5756 0008 93610014 		stw 27,20(1)
 5757 000c 9001002C 		stw 0,44(1)
 5758 0010 93C10020 		stw 30,32(1)
 5759              	.LBB4138:
 5760              		.loc 15 304 0
 5761 0014 83630004 		lwz 27,4(3)
 5762              		.cfi_offset 30, -8
 5763              		.cfi_offset 65, 4
 5764              		.cfi_offset 27, -20
 5765 0018 80030008 		lwz 0,8(3)
 5766              	.LBE4138:
 5767              		.loc 15 300 0
 5768 001c 93E10024 		stw 31,36(1)
 5769 0020 7C7F1B78 		mr 31,3
 5770              		.cfi_offset 31, -4
 5771              	.LBB4263:
 5772              		.loc 15 304 0
 5773 0024 7F9B0000 		cmpw 7,27,0
 5774              	.LBE4263:
 5775              		.loc 15 300 0
 5776 0028 93410010 		stw 26,16(1)
 5777 002c 93810018 		stw 28,24(1)
 5778 0030 93A1001C 		stw 29,28(1)
 5779              		.loc 15 300 0
 5780 0034 83C40000 		lwz 30,0(4)
 5781              	.LVL537:
 5782              	.LBB4264:
 5783              		.loc 15 304 0
 5784 0038 419E0078 		beq- 7,.L381
 5785              		.cfi_offset 29, -12
 5786              		.cfi_offset 28, -16
 5787              		.cfi_offset 26, -24
 5788              	.LVL538:
 5789              	.LBB4139:
 5790              	.LBB4140:
 5791              	.LBB4141:
 5792              		.loc 14 108 0
 5793 003c 2F9B0000 		cmpwi 7,27,0
 5794 0040 38600000 		li 3,0
 5795              	.LVL539:
 5796 0044 419E0010 		beq- 7,.L382
 5797 0048 801BFFFC 		lwz 0,-4(27)
 5798 004c 901B0000 		stw 0,0(27)
 5799 0050 807F0004 		lwz 3,4(31)
 5800              	.L382:
 5801              	.LBE4141:
 5802              	.LBE4140:
 5803              		.loc 15 313 0
 5804 0054 3803FFFC 		addi 0,3,-4
 5805              		.loc 15 309 0
 5806 0058 39230004 		addi 9,3,4
 5807              	.LBB4142:
 5808              	.LBB4143:
 5809              	.LBB4144:
 5810              	.LBB4145:
 5811              	.LBB4146:
 5812              	.LBB4147:
 5813              		.loc 9 559 0
 5814 005c 7C1E0050 		subf 0,30,0
 5815              	.LBE4147:
 5816              	.LBE4146:
 5817              	.LBE4145:
 5818              	.LBE4144:
 5819              	.LBE4143:
 5820              	.LBE4142:
 5821              		.loc 15 309 0
 5822 0060 913F0004 		stw 9,4(31)
 5823              	.LBB4163:
 5824              	.LBB4160:
 5825              	.LBB4157:
 5826              	.LBB4154:
 5827              	.LBB4151:
 5828              	.LBB4148:
 5829              		.loc 9 560 0
 5830 0064 7C001671 		srawi. 0,0,2
 5831              	.LBE4148:
 5832              	.LBE4151:
 5833              	.LBE4154:
 5834              	.LBE4157:
 5835              	.LBE4160:
 5836              	.LBE4163:
 5837              		.loc 15 311 0
 5838 0068 83E50000 		lwz 31,0(5)
 5839              	.LVL540:
 5840              	.LBB4164:
 5841              	.LBB4161:
 5842              	.LBB4158:
 5843              	.LBB4155:
 5844              	.LBB4152:
 5845              	.LBB4149:
 5846              		.loc 9 560 0
 5847 006c 40820030 		bne- 0,.L397
 5848              	.LVL541:
 5849              	.L383:
 5850              	.LBE4149:
 5851              	.LBE4152:
 5852              	.LBE4155:
 5853              	.LBE4158:
 5854              	.LBE4161:
 5855              	.LBE4164:
 5856              	.LBE4139:
 5857              	.LBE4264:
 5858              		.loc 15 373 0
 5859 0070 8001002C 		lwz 0,44(1)
 5860              	.LBB4265:
 5861              	.LBB4166:
 5862              		.loc 15 317 0
 5863 0074 93FE0000 		stw 31,0(30)
 5864              	.LBE4166:
 5865              	.LBE4265:
 5866              		.loc 15 373 0
 5867 0078 7C0803A6 		mtlr 0
 5868 007c 83410010 		lwz 26,16(1)
 5869 0080 83610014 		lwz 27,20(1)
 5870              	.LVL542:
 5871 0084 83810018 		lwz 28,24(1)
 5872 0088 83A1001C 		lwz 29,28(1)
 5873 008c 83C10020 		lwz 30,32(1)
 5874              	.LVL543:
 5875 0090 83E10024 		lwz 31,36(1)
 5876              	.LVL544:
 5877 0094 38210028 		addi 1,1,40
 5878              		.cfi_remember_state
 5879              	.LCFI92:
 5880              		.cfi_def_cfa_offset 0
 5881              		.cfi_restore 31
 5882              		.cfi_restore 30
 5883              		.cfi_restore 29
 5884              		.cfi_restore 28
 5885              		.cfi_restore 27
 5886              		.cfi_restore 26
 5887 0098 4E800020 		blr
 5888              	.LVL545:
 5889              	.L397:
 5890              	.LCFI93:
 5891              		.cfi_restore_state
 5892              	.LBB4266:
 5893              	.LBB4167:
 5894              	.LBB4165:
 5895              	.LBB4162:
 5896              	.LBB4159:
 5897              	.LBB4156:
 5898              	.LBB4153:
 5899              	.LBB4150:
 5900              		.loc 9 561 0
 5901 009c 5405103A 		slwi 5,0,2
 5902              	.LVL546:
 5903 00a0 7FC4F378 		mr 4,30
 5904 00a4 7C651850 		subf 3,5,3
 5905              	.LVL547:
 5906 00a8 48000001 		bl memmove
 5907              	.LVL548:
 5908 00ac 4BFFFFC4 		b .L383
 5909              	.LVL549:
 5910              	.L381:
 5911              	.LBE4150:
 5912              	.LBE4153:
 5913              	.LBE4156:
 5914              	.LBE4159:
 5915              	.LBE4162:
 5916              	.LBE4165:
 5917              	.LBE4167:
 5918              	.LBB4168:
 5919              	.LBB4169:
 5920              	.LBB4170:
 5921              	.LBB4171:
 5922              	.LBB4172:
 5923              		.loc 3 571 0
 5924 00b0 83830000 		lwz 28,0(3)
 5925 00b4 7F7CD850 		subf 27,28,27
 5926              	.LBE4172:
 5927              	.LBE4171:
 5928              	.LBB4173:
 5929              	.LBB4174:
 5930              		.loc 9 215 0
 5931 00b8 7F7B1671 		srawi. 27,27,2
 5932 00bc 418200E8 		beq- 0,.L385
 5933              	.LBE4174:
 5934              	.LBE4173:
 5935              		.loc 3 1244 0
 5936 00c0 5760083C 		slwi 0,27,1
 5937              	.LVL550:
 5938              		.loc 3 1245 0
 5939 00c4 7F9B0040 		cmplw 7,27,0
 5940 00c8 409D00EC 		ble- 7,.L398
 5941              	.L386:
 5942              	.LVL551:
 5943              	.LBE4170:
 5944              	.LBE4169:
 5945              	.LBB4177:
 5946              	.LBB4178:
 5947              		.loc 8 892 0
 5948 00cc 7F9CF050 		subf 28,28,30
 5949              	.LBE4178:
 5950              	.LBE4177:
 5951              		.loc 15 326 0
 5952 00d0 3B60FFFC 		li 27,-4
 5953              	.LBB4184:
 5954              	.LBB4179:
 5955              		.loc 8 892 0
 5956 00d4 7F9C1670 		srawi 28,28,2
 5957              	.LVL552:
 5958              	.L392:
 5959              	.LBE4179:
 5960              	.LBE4184:
 5961              	.LBB4185:
 5962              	.LBB4186:
 5963              	.LBB4187:
 5964              	.LBB4188:
 5965              		.loc 14 92 0
 5966 00d8 7F63DB78 		mr 3,27
 5967              	.LVL553:
 5968 00dc 90A10008 		stw 5,8(1)
 5969 00e0 48000001 		bl _Znwj
 5970              	.LVL554:
 5971 00e4 80A10008 		lwz 5,8(1)
 5972 00e8 7C7D1B78 		mr 29,3
 5973              	.L387:
 5974              	.LVL555:
 5975              	.LBE4188:
 5976              	.LBE4187:
 5977              	.LBE4186:
 5978              	.LBE4185:
 5979              		.loc 15 335 0
 5980 00ec 579C103A 		slwi 28,28,2
 5981              	.LVL556:
 5982 00f0 7C1DE214 		add 0,29,28
 5983              	.LVL557:
 5984              	.LBB4191:
 5985              	.LBB4192:
 5986              		.loc 14 108 0
 5987 00f4 2F800000 		cmpwi 7,0,0
 5988 00f8 419E000C 		beq- 7,.L388
 5989 00fc 80050000 		lwz 0,0(5)
 5990              	.LVL558:
 5991 0100 7C1DE12E 		stwx 0,29,28
 5992              	.L388:
 5993              	.LVL559:
 5994              	.LBE4192:
 5995              	.LBE4191:
 5996              		.loc 15 343 0
 5997 0104 809F0000 		lwz 4,0(31)
 5998              	.LVL560:
 5999              	.LBB4193:
 6000              	.LBB4194:
 6001              	.LBB4195:
 6002              	.LBB4196:
 6003              	.LBB4197:
 6004              	.LBB4198:
 6005              	.LBB4199:
 6006              	.LBB4200:
 6007              	.LBB4201:
 6008              	.LBB4202:
 6009              	.LBB4203:
 6010              		.loc 9 365 0
 6011 0108 3B800000 		li 28,0
 6012              		.loc 9 364 0
 6013 010c 7C04F050 		subf 0,4,30
 6014              	.LVL561:
 6015              		.loc 9 365 0
 6016 0110 7C001671 		srawi. 0,0,2
 6017              	.LVL562:
 6018 0114 41A20014 		beq+ 0,.L389
 6019              		.loc 9 366 0
 6020 0118 541C103A 		slwi 28,0,2
 6021 011c 7FA3EB78 		mr 3,29
 6022 0120 7F85E378 		mr 5,28
 6023              	.LVL563:
 6024 0124 48000001 		bl memmove
 6025              	.LVL564:
 6026              	.L389:
 6027              	.LBE4203:
 6028              	.LBE4202:
 6029              	.LBE4201:
 6030              	.LBE4200:
 6031              	.LBE4199:
 6032              	.LBE4198:
 6033              	.LBE4197:
 6034              	.LBE4196:
 6035              	.LBE4195:
 6036              	.LBE4194:
 6037              	.LBE4193:
 6038              	.LBB4214:
 6039              	.LBB4215:
 6040              	.LBB4216:
 6041              	.LBB4217:
 6042              	.LBB4218:
 6043              	.LBB4219:
 6044              	.LBB4220:
 6045              	.LBB4221:
 6046              	.LBB4222:
 6047              	.LBB4223:
 6048              	.LBB4224:
 6049              		.loc 9 364 0
 6050 0128 801F0004 		lwz 0,4(31)
 6051              	.LBE4224:
 6052              	.LBE4223:
 6053              	.LBE4222:
 6054              	.LBE4221:
 6055              	.LBE4220:
 6056              	.LBE4219:
 6057              	.LBE4218:
 6058              	.LBE4217:
 6059              	.LBE4216:
 6060              	.LBE4215:
 6061              	.LBE4214:
 6062              	.LBB4245:
 6063              	.LBB4213:
 6064              	.LBB4212:
 6065              	.LBB4211:
 6066              	.LBB4210:
 6067              	.LBB4209:
 6068              	.LBB4208:
 6069              	.LBB4207:
 6070              	.LBB4206:
 6071              	.LBB4205:
 6072              	.LBB4204:
 6073              		.loc 9 367 0
 6074 012c 7F9DE214 		add 28,29,28
 6075              	.LVL565:
 6076              	.LBE4204:
 6077              	.LBE4205:
 6078              	.LBE4206:
 6079              	.LBE4207:
 6080              	.LBE4208:
 6081              	.LBE4209:
 6082              	.LBE4210:
 6083              	.LBE4211:
 6084              	.LBE4212:
 6085              	.LBE4213:
 6086              	.LBE4245:
 6087              		.loc 15 347 0
 6088 0130 3B5C0004 		addi 26,28,4
 6089              	.LBB4246:
 6090              	.LBB4243:
 6091              	.LBB4241:
 6092              	.LBB4239:
 6093              	.LBB4237:
 6094              	.LBB4235:
 6095              	.LBB4233:
 6096              	.LBB4231:
 6097              	.LBB4229:
 6098              	.LBB4227:
 6099              	.LBB4225:
 6100              		.loc 9 365 0
 6101 0134 3B800000 		li 28,0
 6102              		.loc 9 364 0
 6103 0138 7C1E0050 		subf 0,30,0
 6104              	.LVL566:
 6105              		.loc 9 365 0
 6106 013c 7C001671 		srawi. 0,0,2
 6107              	.LVL567:
 6108 0140 41A20018 		beq+ 0,.L390
 6109              		.loc 9 366 0
 6110 0144 541C103A 		slwi 28,0,2
 6111 0148 7F43D378 		mr 3,26
 6112 014c 7FC4F378 		mr 4,30
 6113 0150 7F85E378 		mr 5,28
 6114 0154 48000001 		bl memmove
 6115              	.LVL568:
 6116              	.L390:
 6117              	.LBE4225:
 6118              	.LBE4227:
 6119              	.LBE4229:
 6120              	.LBE4231:
 6121              	.LBE4233:
 6122              	.LBE4235:
 6123              	.LBE4237:
 6124              	.LBE4239:
 6125              	.LBE4241:
 6126              	.LBE4243:
 6127              	.LBE4246:
 6128              		.loc 15 366 0
 6129 0158 807F0000 		lwz 3,0(31)
 6130              	.LBB4247:
 6131              	.LBB4244:
 6132              	.LBB4242:
 6133              	.LBB4240:
 6134              	.LBB4238:
 6135              	.LBB4236:
 6136              	.LBB4234:
 6137              	.LBB4232:
 6138              	.LBB4230:
 6139              	.LBB4228:
 6140              	.LBB4226:
 6141              		.loc 9 367 0
 6142 015c 7F9AE214 		add 28,26,28
 6143              	.LVL569:
 6144              	.LBE4226:
 6145              	.LBE4228:
 6146              	.LBE4230:
 6147              	.LBE4232:
 6148              	.LBE4234:
 6149              	.LBE4236:
 6150              	.LBE4238:
 6151              	.LBE4240:
 6152              	.LBE4242:
 6153              	.LBE4244:
 6154              	.LBE4247:
 6155              	.LBB4248:
 6156              	.LBB4249:
 6157              		.loc 3 155 0
 6158 0160 2F830000 		cmpwi 7,3,0
 6159 0164 419E0008 		beq- 7,.L391
 6160              	.LVL570:
 6161              	.LBB4250:
 6162              	.LBB4251:
 6163              		.loc 14 98 0
 6164 0168 48000001 		bl _ZdlPv
 6165              	.LVL571:
 6166              	.L391:
 6167              	.LBE4251:
 6168              	.LBE4250:
 6169              	.LBE4249:
 6170              	.LBE4248:
 6171              	.LBE4168:
 6172              	.LBE4266:
 6173              		.loc 15 373 0
 6174 016c 8001002C 		lwz 0,44(1)
 6175              	.LBB4267:
 6176              	.LBB4260:
 6177              		.loc 15 371 0
 6178 0170 7F7DDA14 		add 27,29,27
 6179              		.loc 15 369 0
 6180 0174 93BF0000 		stw 29,0(31)
 6181              	.LBE4260:
 6182              	.LBE4267:
 6183              		.loc 15 373 0
 6184 0178 7C0803A6 		mtlr 0
 6185              	.LBB4268:
 6186              	.LBB4261:
 6187              		.loc 15 370 0
 6188 017c 939F0004 		stw 28,4(31)
 6189              		.loc 15 371 0
 6190 0180 937F0008 		stw 27,8(31)
 6191              	.LBE4261:
 6192              	.LBE4268:
 6193              		.loc 15 373 0
 6194 0184 83410010 		lwz 26,16(1)
 6195              	.LVL572:
 6196 0188 83610014 		lwz 27,20(1)
 6197 018c 83810018 		lwz 28,24(1)
 6198 0190 83A1001C 		lwz 29,28(1)
 6199              	.LVL573:
 6200 0194 83C10020 		lwz 30,32(1)
 6201              	.LVL574:
 6202 0198 83E10024 		lwz 31,36(1)
 6203              	.LVL575:
 6204 019c 38210028 		addi 1,1,40
 6205              		.cfi_remember_state
 6206              		.cfi_restore 26
 6207              		.cfi_restore 27
 6208              		.cfi_restore 28
 6209              		.cfi_restore 29
 6210              		.cfi_restore 30
 6211              		.cfi_restore 31
 6212              	.LCFI94:
 6213              		.cfi_def_cfa_offset 0
 6214 01a0 4E800020 		blr
 6215              	.LVL576:
 6216              	.L385:
 6217              	.LCFI95:
 6218              		.cfi_restore_state
 6219              	.LBB4269:
 6220              	.LBB4262:
 6221              	.LBB4252:
 6222              	.LBB4180:
 6223              		.loc 8 892 0
 6224 01a4 7F9CF050 		subf 28,28,30
 6225              	.LBE4180:
 6226              	.LBE4252:
 6227              		.loc 15 326 0
 6228 01a8 3B600004 		li 27,4
 6229              	.LBB4253:
 6230              	.LBB4181:
 6231              		.loc 8 892 0
 6232 01ac 7F9C1670 		srawi 28,28,2
 6233              	.LVL577:
 6234 01b0 4BFFFF28 		b .L392
 6235              	.LVL578:
 6236              	.L398:
 6237              	.LBE4181:
 6238              	.LBE4253:
 6239              	.LBB4254:
 6240              	.LBB4175:
 6241              		.loc 3 1245 0
 6242 01b4 3D203FFF 		lis 9,0x3fff
 6243 01b8 6129FFFF 		ori 9,9,65535
 6244 01bc 7F804840 		cmplw 7,0,9
 6245 01c0 419DFF0C 		bgt+ 7,.L386
 6246              	.LBE4175:
 6247              	.LBE4254:
 6248              	.LBB4255:
 6249              	.LBB4189:
 6250              		.loc 3 150 0
 6251 01c4 2F800000 		cmpwi 7,0,0
 6252              	.LBE4189:
 6253              	.LBE4255:
 6254              	.LBB4256:
 6255              	.LBB4182:
 6256              		.loc 8 892 0
 6257 01c8 7F9CF050 		subf 28,28,30
 6258              	.LBE4182:
 6259              	.LBE4256:
 6260              	.LBB4257:
 6261              	.LBB4176:
 6262              		.loc 3 1245 0
 6263 01cc 577B1838 		slwi 27,27,3
 6264              	.LVL579:
 6265              	.LBE4176:
 6266              	.LBE4257:
 6267              	.LBB4258:
 6268              	.LBB4183:
 6269              		.loc 8 892 0
 6270 01d0 7F9C1670 		srawi 28,28,2
 6271              	.LVL580:
 6272              	.LBE4183:
 6273              	.LBE4258:
 6274              	.LBB4259:
 6275              	.LBB4190:
 6276              		.loc 3 150 0
 6277 01d4 3BA00000 		li 29,0
 6278 01d8 419EFF14 		beq+ 7,.L387
 6279 01dc 4BFFFEFC 		b .L392
 6280              	.LBE4190:
 6281              	.LBE4259:
 6282              	.LBE4262:
 6283              	.LBE4269:
 6284              		.cfi_endproc
 6285              	.LFE1912:
 6286              		.size	_ZNSt6vectorIP19_BrowserEntryStructSaIS1_EE13_M_insert_auxEN9__gnu_cxx17__normal_iteratorIPS
 6287              		.section	".text"
 6288              		.align 2
 6289              		.globl _ZN11FileBrowser8AddEntryEv
 6290              		.type	_ZN11FileBrowser8AddEntryEv, @function
 6291              	_ZN11FileBrowser8AddEntryEv:
 6292              	.LFB1743:
 6293              		.loc 4 69 0
 6294              		.cfi_startproc
 6295              	.LVL581:
 6296 10f0 9421FFD0 		stwu 1,-48(1)
 6297              	.LCFI96:
 6298              		.cfi_def_cfa_offset 48
 6299 10f4 7C0802A6 		mflr 0
 6300 10f8 93E1002C 		stw 31,44(1)
 6301 10fc 7C7F1B78 		mr 31,3
 6302              		.cfi_offset 31, -4
 6303              		.cfi_register 65, 0
 6304              	.LBB4303:
 6305              		.loc 4 70 0
 6306 1100 38600010 		li 3,16
 6307              	.LVL582:
 6308              	.LBE4303:
 6309              		.loc 4 69 0
 6310 1104 90010034 		stw 0,52(1)
 6311 1108 93A10024 		stw 29,36(1)
 6312 110c 93C10028 		stw 30,40(1)
 6313              	.LBB4355:
 6314              		.loc 4 70 0
 6315              		.cfi_offset 30, -8
 6316              		.cfi_offset 29, -12
 6317              		.cfi_offset 65, 4
 6318 1110 48000001 		bl _Znwj
 6319              	.LVL583:
 6320              	.LBB4304:
 6321              	.LBB4305:
 6322              	.LBB4306:
 6323              	.LBB4307:
 6324              		.loc 5 270 0
 6325 1114 3D600000 		lis 11,_ZNSs4_Rep20_S_empty_rep_storageE+12@ha
 6326              	.LBE4307:
 6327              	.LBE4306:
 6328              	.LBE4305:
 6329              	.LBE4304:
 6330              	.LBB4320:
 6331              	.LBB4321:
 6332              	.LBB4322:
 6333              		.loc 5 1121 0
 6334 1118 3C800000 		lis 4,.LC1@ha
 6335              	.LBE4322:
 6336              	.LBE4321:
 6337              	.LBE4320:
 6338              	.LBB4327:
 6339              	.LBB4312:
 6340              	.LBB4310:
 6341              	.LBB4308:
 6342              		.loc 5 270 0
 6343 111c 380B000C 		la 0,_ZNSs4_Rep20_S_empty_rep_storageE+12@l(11)
 6344              	.LBE4308:
 6345              	.LBE4310:
 6346              	.LBE4312:
 6347              	.LBB4313:
 6348              	.LBB4314:
 6349              	.LBB4315:
 6350 1120 3D600000 		lis 11,_ZNSbIwSt11char_traitsIwESaIwEE4_Rep20_S_empty_rep_storageE+12@ha
 6351              	.LBE4315:
 6352              	.LBE4314:
 6353              	.LBE4313:
 6354              	.LBB4318:
 6355              	.LBB4311:
 6356              	.LBB4309:
 6357 1124 90030000 		stw 0,0(3)
 6358              	.LVL584:
 6359              	.LBE4309:
 6360              	.LBE4311:
 6361              	.LBE4318:
 6362              	.LBB4319:
 6363              	.LBB4317:
 6364              	.LBB4316:
 6365 1128 380B000C 		la 0,_ZNSbIwSt11char_traitsIwESaIwEE4_Rep20_S_empty_rep_storageE+12@l(11)
 6366 112c 90030004 		stw 0,4(3)
 6367              	.LBE4316:
 6368              	.LBE4317:
 6369              	.LBE4319:
 6370              	.LBE4327:
 6371              	.LBB4328:
 6372              	.LBB4325:
 6373              	.LBB4323:
 6374              		.loc 5 1121 0
 6375 1130 38840018 		la 4,.LC1@l(4)
 6376 1134 38A00000 		li 5,0
 6377              	.LBE4323:
 6378              	.LBE4325:
 6379              	.LBE4328:
 6380              	.LBB4329:
 6381              	.LBB4330:
 6382              	.LBB4331:
 6383              	.LBB4332:
 6384              	.LBB4333:
 6385              		.loc 12 332 0
 6386 1138 3FC00000 		lis 30,.LC3@ha
 6387 113c 3BDE0000 		la 30,.LC3@l(30)
 6388              	.LBE4333:
 6389              	.LBE4332:
 6390              	.LBE4331:
 6391              	.LBE4330:
 6392              	.LBE4329:
 6393              		.loc 4 70 0
 6394 1140 90610008 		stw 3,8(1)
 6395              	.LVL585:
 6396              	.LBB4342:
 6397              	.LBB4326:
 6398              	.LBB4324:
 6399              		.loc 5 1121 0
 6400 1144 48000001 		bl _ZNSs6assignEPKcj
 6401              	.LVL586:
 6402              	.LBE4324:
 6403              	.LBE4326:
 6404              	.LBE4342:
 6405              		.loc 4 72 0
 6406 1148 83A10008 		lwz 29,8(1)
 6407              	.LBB4343:
 6408              	.LBB4340:
 6409              	.LBB4338:
 6410              	.LBB4336:
 6411              	.LBB4334:
 6412              		.loc 12 332 0
 6413 114c 7FC3F378 		mr 3,30
 6414 1150 48000001 		bl wcslen
 6415              	.LBE4334:
 6416              	.LBE4336:
 6417              	.LBE4338:
 6418              	.LBE4340:
 6419              	.LBE4343:
 6420              		.loc 4 72 0
 6421 1154 3BBD0004 		addi 29,29,4
 6422              	.LVL587:
 6423              	.LBB4344:
 6424              	.LBB4341:
 6425              	.LBB4339:
 6426              	.LBB4337:
 6427              	.LBB4335:
 6428              		.loc 12 332 0
 6429 1158 7C651B78 		mr 5,3
 6430              	.LBE4335:
 6431              	.LBE4337:
 6432              		.loc 5 1121 0
 6433 115c 7FC4F378 		mr 4,30
 6434 1160 7FA3EB78 		mr 3,29
 6435 1164 48000001 		bl _ZNSbIwSt11char_traitsIwESaIwEE6assignEPKwj
 6436              	.LBE4339:
 6437              	.LBE4341:
 6438              	.LBE4344:
 6439              	.LBB4345:
 6440              	.LBB4346:
 6441              		.loc 3 828 0
 6442 1168 801F003C 		lwz 0,60(31)
 6443 116c 817F0038 		lwz 11,56(31)
 6444              	.LBE4346:
 6445              	.LBE4345:
 6446              		.loc 4 73 0
 6447 1170 81210008 		lwz 9,8(1)
 6448              	.LBB4352:
 6449              	.LBB4349:
 6450              		.loc 3 828 0
 6451 1174 7F8B0000 		cmpw 7,11,0
 6452              	.LBE4349:
 6453              	.LBE4352:
 6454              		.loc 4 73 0
 6455 1178 38000000 		li 0,0
 6456 117c 98090008 		stb 0,8(9)
 6457              		.loc 4 74 0
 6458 1180 98090009 		stb 0,9(9)
 6459              		.loc 4 75 0
 6460 1184 9809000A 		stb 0,10(9)
 6461              		.loc 4 76 0
 6462 1188 9809000B 		stb 0,11(9)
 6463              		.loc 4 77 0
 6464 118c 9809000C 		stb 0,12(9)
 6465              	.LVL588:
 6466              	.LBB4353:
 6467              	.LBB4350:
 6468              		.loc 3 828 0
 6469 1190 419E003C 		beq- 7,.L404
 6470              	.LVL589:
 6471              	.LBB4347:
 6472              	.LBB4348:
 6473              		.loc 14 108 0
 6474 1194 2F8B0000 		cmpwi 7,11,0
 6475 1198 39400000 		li 10,0
 6476 119c 419E000C 		beq- 7,.L405
 6477 11a0 912B0000 		stw 9,0(11)
 6478 11a4 815F0038 		lwz 10,56(31)
 6479              	.L405:
 6480              	.LBE4348:
 6481              	.LBE4347:
 6482              		.loc 3 831 0
 6483 11a8 394A0004 		addi 10,10,4
 6484 11ac 915F0038 		stw 10,56(31)
 6485              	.LVL590:
 6486              	.L399:
 6487              	.LBE4350:
 6488              	.LBE4353:
 6489              	.LBE4355:
 6490              		.loc 4 80 0
 6491 11b0 80010034 		lwz 0,52(1)
 6492 11b4 83A10024 		lwz 29,36(1)
 6493              	.LVL591:
 6494 11b8 7C0803A6 		mtlr 0
 6495 11bc 83C10028 		lwz 30,40(1)
 6496 11c0 83E1002C 		lwz 31,44(1)
 6497              	.LVL592:
 6498 11c4 38210030 		addi 1,1,48
 6499              		.cfi_remember_state
 6500              	.LCFI97:
 6501              		.cfi_def_cfa_offset 0
 6502              		.cfi_restore 31
 6503              		.cfi_restore 30
 6504              		.cfi_restore 29
 6505 11c8 4E800020 		blr
 6506              	.LVL593:
 6507              	.L404:
 6508              	.LCFI98:
 6509              		.cfi_restore_state
 6510              	.LBB4356:
 6511              	.LBB4354:
 6512              	.LBB4351:
 6513              		.loc 3 834 0
 6514 11cc 7C240B78 		mr 4,1
 6515 11d0 387F0034 		addi 3,31,52
 6516 11d4 95640018 		stwu 11,24(4)
 6517 11d8 38A10008 		addi 5,1,8
 6518 11dc 48000001 		bl _ZNSt6vectorIP19_BrowserEntryStructSaIS1_EE13_M_insert_auxEN9__gnu_cxx17__normal_iteratorIPS1_S
 6519 11e0 4BFFFFD0 		b .L399
 6520              	.LBE4351:
 6521              	.LBE4354:
 6522              	.LBE4356:
 6523              		.cfi_endproc
 6524              	.LFE1743:
 6525              		.size	_ZN11FileBrowser8AddEntryEv, .-_ZN11FileBrowser8AddEntryEv
 6526              		.align 2
 6527              		.globl _ZN11FileBrowser15ParseDirEntriesEv
 6528              		.type	_ZN11FileBrowser15ParseDirEntriesEv, @function
 6529              	_ZN11FileBrowser15ParseDirEntriesEv:
 6530              	.LFB1758:
 6531              		.loc 4 296 0
 6532              		.cfi_startproc
 6533              		.cfi_personality 0,__gxx_personality_v0
 6534              		.cfi_lsda 0,.LLSDA1758
 6535              	.LVL594:
 6536 11e4 7C0802A6 		mflr 0
 6537 11e8 9421FB88 		stwu 1,-1144(1)
 6538              	.LCFI99:
 6539              		.cfi_def_cfa_offset 1144
 6540              		.cfi_register 65, 0
 6541 11ec 93C10470 		stw 30,1136(1)
 6542 11f0 7C7E1B78 		mr 30,3
 6543              		.cfi_offset 30, -8
 6544 11f4 9001047C 		stw 0,1148(1)
 6545 11f8 93410460 		stw 26,1120(1)
 6546              	.LBB4519:
 6547              		.loc 4 297 0
 6548 11fc 80030040 		lwz 0,64(3)
 6549              		.cfi_offset 26, -24
 6550              		.cfi_offset 65, 4
 6551              	.LBE4519:
 6552              		.loc 4 296 0
 6553 1200 93610464 		stw 27,1124(1)
 6554              	.LBB4652:
 6555              		.loc 4 297 0
 6556 1204 2F800000 		cmpwi 7,0,0
 6557              	.LBE4652:
 6558              		.loc 4 296 0
 6559 1208 93810468 		stw 28,1128(1)
 6560 120c 93A1046C 		stw 29,1132(1)
 6561 1210 93E10474 		stw 31,1140(1)
 6562              	.LBB4653:
 6563              		.loc 4 297 0
 6564 1214 419E02A0 		beq- 7,.L408
 6565              		.cfi_offset 31, -4
 6566              		.cfi_offset 29, -12
 6567              		.cfi_offset 28, -16
 6568              		.cfi_offset 27, -20
 6569              	.LVL595:
 6570              		.loc 4 306 0
 6571 1218 3861000C 		addi 3,1,12
 6572              	.LVL596:
 6573 121c 389E0044 		addi 4,30,68
 6574              	.LEHB10:
 6575 1220 48000001 		bl _ZNSsC1ERKSs
 6576              	.LEHE10:
 6577              	.LVL597:
 6578              	.LBB4520:
 6579              	.LBB4521:
 6580              	.LBB4522:
 6581              	.LBB4523:
 6582              	.LBB4524:
 6583              		.loc 5 288 0
 6584 1224 8121000C 		lwz 9,12(1)
 6585              	.LBE4524:
 6586              	.LBE4523:
 6587              	.LBE4522:
 6588              	.LBE4521:
 6589              	.LBE4520:
 6590              	.LBB4526:
 6591              	.LBB4527:
 6592              	.LBB4528:
 6593              	.LBB4529:
 6594              		.loc 5 311 0
 6595 1228 8009FFFC 		lwz 0,-4(9)
 6596              	.LBE4529:
 6597              	.LBE4528:
 6598              	.LBE4527:
 6599              	.LBE4526:
 6600              	.LBB4533:
 6601              	.LBB4525:
 6602              		.loc 5 711 0
 6603 122c 83E9FFF4 		lwz 31,-12(9)
 6604              	.LVL598:
 6605              	.LBE4525:
 6606              	.LBE4533:
 6607              	.LBB4534:
 6608              	.LBB4532:
 6609              	.LBB4531:
 6610              	.LBB4530:
 6611              		.loc 5 311 0
 6612 1230 2F800000 		cmpwi 7,0,0
 6613 1234 419C0010 		blt- 7,.L410
 6614              		.loc 5 312 0
 6615 1238 3861000C 		addi 3,1,12
 6616              	.LVL599:
 6617              	.LEHB11:
 6618 123c 48000001 		bl _ZNSs12_M_leak_hardEv
 6619              	.LVL600:
 6620 1240 8121000C 		lwz 9,12(1)
 6621              	.L410:
 6622              	.LVL601:
 6623              	.LBE4530:
 6624              	.LBE4531:
 6625              	.LBE4532:
 6626              	.LBE4534:
 6627              		.loc 4 307 0
 6628 1244 7FE9FA14 		add 31,9,31
 6629              	.LVL602:
 6630 1248 881FFFFF 		lbz 0,-1(31)
 6631 124c 2F80002F 		cmpwi 7,0,47
 6632 1250 419E0344 		beq- 7,.L411
 6633              	.L414:
 6634              	.LBB4535:
 6635              		.loc 4 337 0 discriminator 1
 6636 1254 3BA00000 		li 29,0
 6637              	.LVL603:
 6638              	.L444:
 6639              	.LBE4535:
 6640              		.loc 4 310 0 discriminator 1
 6641 1258 807E0040 		lwz 3,64(30)
 6642 125c 48000001 		bl readdir
 6643              	.LVL604:
 6644 1260 2C030000 		cmpwi 0,3,0
 6645 1264 418201B8 		beq- 0,.L446
 6646              	.LVL605:
 6647              	.LBB4588:
 6648              		.loc 4 312 0
 6649 1268 3BE30005 		addi 31,3,5
 6650 126c 3CA00000 		lis 5,.LC6@ha
 6651 1270 80C1000C 		lwz 6,12(1)
 6652 1274 38610058 		addi 3,1,88
 6653              	.LVL606:
 6654 1278 38800400 		li 4,1024
 6655 127c 38A50020 		la 5,.LC6@l(5)
 6656 1280 7FE7FB78 		mr 7,31
 6657 1284 4CC63182 		crxor 6,6,6
 6658 1288 48000001 		bl snprintf
 6659              		.loc 4 314 0
 6660 128c 38610058 		addi 3,1,88
 6661 1290 38810010 		addi 4,1,16
 6662 1294 48000001 		bl stat
 6663 1298 2F830000 		cmpwi 7,3,0
 6664 129c 409EFFBC 		bne+ 7,.L444
 6665              		.loc 4 317 0
 6666 12a0 38610058 		addi 3,1,88
 6667 12a4 38800400 		li 4,1024
 6668 12a8 7FE5FB78 		mr 5,31
 6669 12ac 4CC63182 		crxor 6,6,6
 6670 12b0 48000001 		bl snprintf
 6671              		.loc 4 319 0
 6672 12b4 3C800000 		lis 4,.LC9@ha
 6673 12b8 38610058 		addi 3,1,88
 6674 12bc 38840040 		la 4,.LC9@l(4)
 6675 12c0 48000001 		bl strcmp
 6676 12c4 2F830000 		cmpwi 7,3,0
 6677 12c8 41BEFF90 		beq- 7,.L444
 6678              		.loc 4 323 0
 6679 12cc 88010058 		lbz 0,88(1)
 6680 12d0 2F80002E 		cmpwi 7,0,46
 6681 12d4 419E012C 		beq- 7,.L447
 6682              		.loc 4 325 0
 6683 12d8 2F800024 		cmpwi 7,0,36
 6684 12dc 41BEFF7C 		beq- 7,.L444
 6685              	.L418:
 6686              		.loc 4 327 0
 6687 12e0 3C800000 		lis 4,.LC10@ha
 6688 12e4 38610058 		addi 3,1,88
 6689 12e8 38840044 		la 4,.LC10@l(4)
 6690 12ec 48000001 		bl strcasecmp
 6691 12f0 2F830000 		cmpwi 7,3,0
 6692 12f4 41BEFF64 		beq- 7,.L444
 6693              		.loc 4 330 0
 6694 12f8 38610058 		addi 3,1,88
 6695 12fc 3880002E 		li 4,46
 6696 1300 48000001 		bl strrchr
 6697              		.loc 4 497 0
 6698 1304 839E0034 		lwz 28,52(30)
 6699              	.LBB4536:
 6700              	.LBB4537:
 6701              		.loc 3 571 0
 6702 1308 801E0038 		lwz 0,56(30)
 6703              	.LBE4537:
 6704              	.LBE4536:
 6705              		.loc 4 330 0
 6706 130c 7C7B1B78 		mr 27,3
 6707              	.LVL607:
 6708              	.LBB4539:
 6709              	.LBB4538:
 6710              		.loc 3 571 0
 6711 1310 7C1C0050 		subf 0,28,0
 6712 1314 7C001670 		srawi 0,0,2
 6713              	.LBE4538:
 6714              	.LBE4539:
 6715              		.loc 4 332 0
 6716 1318 7F9D0000 		cmpw 7,29,0
 6717 131c 419C001C 		blt- 7,.L419
 6718              		.loc 4 333 0
 6719 1320 7FC3F378 		mr 3,30
 6720              	.LVL608:
 6721 1324 48000001 		bl _ZN11FileBrowser8AddEntryEv
 6722 1328 839E0034 		lwz 28,52(30)
 6723 132c 801E0038 		lwz 0,56(30)
 6724 1330 7C1C0050 		subf 0,28,0
 6725 1334 7C001670 		srawi 0,0,2
 6726              	.L419:
 6727              	.LVL609:
 6728              	.LBB4540:
 6729              	.LBB4541:
 6730              	.LBB4542:
 6731              		.loc 3 718 0
 6732 1338 7F9D0040 		cmplw 7,29,0
 6733 133c 409C02B4 		bge- 7,.L448
 6734              	.LVL610:
 6735              	.LBE4542:
 6736              	.LBE4541:
 6737              	.LBE4540:
 6738              	.LBB4547:
 6739              	.LBB4548:
 6740              	.LBB4549:
 6741              	.LBB4550:
 6742              		.loc 12 261 0
 6743 1340 38610058 		addi 3,1,88
 6744              	.LBE4550:
 6745              	.LBE4549:
 6746              	.LBE4548:
 6747              	.LBE4547:
 6748              	.LBB4556:
 6749              	.LBB4544:
 6750              	.LBB4545:
 6751              		.loc 3 696 0
 6752 1344 57BF103A 		slwi 31,29,2
 6753              	.LVL611:
 6754              	.LBE4545:
 6755              	.LBE4544:
 6756              	.LBE4556:
 6757              	.LBB4557:
 6758              	.LBB4555:
 6759              	.LBB4553:
 6760              	.LBB4551:
 6761              		.loc 12 261 0
 6762 1348 48000001 		bl strlen
 6763              	.LVL612:
 6764              	.LBE4551:
 6765              	.LBE4553:
 6766              		.loc 5 1121 0
 6767 134c 38810058 		addi 4,1,88
 6768              	.LVL613:
 6769              	.LBB4554:
 6770              	.LBB4552:
 6771              		.loc 12 261 0
 6772 1350 7C651B78 		mr 5,3
 6773              	.LBE4552:
 6774              	.LBE4554:
 6775              		.loc 5 1121 0
 6776 1354 7C7CF82E 		lwzx 3,28,31
 6777              	.LVL614:
 6778 1358 48000001 		bl _ZNSs6assignEPKcj
 6779              	.LVL615:
 6780              	.LBE4555:
 6781              	.LBE4557:
 6782              	.LBB4558:
 6783              	.LBB4559:
 6784              		.loc 4 497 0
 6785 135c 813E0034 		lwz 9,52(30)
 6786              	.LBB4560:
 6787              	.LBB4561:
 6788              	.LBB4562:
 6789              		.loc 3 571 0
 6790 1360 801E0038 		lwz 0,56(30)
 6791 1364 7C090050 		subf 0,9,0
 6792 1368 7C001670 		srawi 0,0,2
 6793              	.LBE4562:
 6794              	.LBE4561:
 6795              		.loc 3 718 0
 6796 136c 7F9D0040 		cmplw 7,29,0
 6797 1370 409C0274 		bge- 7,.L449
 6798              	.LBE4560:
 6799              	.LBE4559:
 6800              	.LBE4558:
 6801              		.loc 4 336 0
 6802 1374 38610058 		addi 3,1,88
 6803              	.LVL616:
 6804 1378 7F89F82E 		lwzx 28,9,31
 6805 137c 48000001 		bl _Z14charToWideCharPKc
 6806              	.LVL617:
 6807 1380 7C7A1B78 		mr 26,3
 6808              	.LVL618:
 6809              	.LBB4565:
 6810              	.LBB4566:
 6811              	.LBB4567:
 6812              	.LBB4568:
 6813              		.loc 12 332 0
 6814 1384 48000001 		bl wcslen
 6815              	.LVL619:
 6816 1388 7C651B78 		mr 5,3
 6817              	.LBE4568:
 6818              	.LBE4567:
 6819              		.loc 5 1121 0
 6820 138c 7F44D378 		mr 4,26
 6821 1390 387C0004 		addi 3,28,4
 6822 1394 48000001 		bl _ZNSbIwSt11char_traitsIwESaIwEE6assignEPKwj
 6823              	.LVL620:
 6824              	.LBE4566:
 6825              	.LBE4565:
 6826              	.LBB4569:
 6827              	.LBB4570:
 6828              		.loc 4 497 0
 6829 1398 813E0034 		lwz 9,52(30)
 6830              	.LBB4571:
 6831              	.LBB4572:
 6832              	.LBB4573:
 6833              		.loc 3 571 0
 6834 139c 801E0038 		lwz 0,56(30)
 6835 13a0 7C090050 		subf 0,9,0
 6836 13a4 7C001670 		srawi 0,0,2
 6837              	.LBE4573:
 6838              	.LBE4572:
 6839              		.loc 3 718 0
 6840 13a8 7F9D0040 		cmplw 7,29,0
 6841 13ac 409C022C 		bge- 7,.L450
 6842              	.LBE4571:
 6843              	.LBE4570:
 6844              	.LBE4569:
 6845              		.loc 4 337 0
 6846 13b0 81610018 		lwz 11,24(1)
 6847 13b4 7F89F82E 		lwzx 28,9,31
 6848              	.LVL621:
 6849 13b8 71604000 		andi. 0,11,16384
 6850 13bc 40820120 		bne- 0,.L423
 6851              		.loc 4 337 0 is_stmt 0 discriminator 1
 6852 13c0 3C600000 		lis 3,Settings+2580@ha
 6853 13c4 7F64DB78 		mr 4,27
 6854 13c8 38630A14 		la 3,Settings+2580@l(3)
 6855 13cc 48000001 		bl _ZN16CFilesExtensions15CompareMiiFilesEPKc
 6856 13d0 2F830000 		cmpwi 7,3,0
 6857 13d4 813E0034 		lwz 9,52(30)
 6858 13d8 817E0038 		lwz 11,56(30)
 6859 13dc 419E012C 		beq- 7,.L451
 6860              		.loc 4 337 0
 6861 13e0 7D695850 		subf 11,9,11
 6862 13e4 38000000 		li 0,0
 6863 13e8 7D6B1670 		srawi 11,11,2
 6864              	.L425:
 6865              	.LBB4576:
 6866              	.LBB4577:
 6867              	.LBB4578:
 6868              		.loc 3 718 0 is_stmt 1 discriminator 4
 6869 13ec 7F9D5840 		cmplw 7,29,11
 6870              	.LBE4578:
 6871              	.LBE4577:
 6872              	.LBE4576:
 6873              		.loc 4 337 0 discriminator 4
 6874 13f0 981C0009 		stb 0,9(28)
 6875              	.LVL622:
 6876              	.LBB4583:
 6877              	.LBB4581:
 6878              	.LBB4579:
 6879              		.loc 3 718 0 discriminator 4
 6880 13f4 409C0208 		bge- 7,.L445
 6881 13f8 81610018 		lwz 11,24(1)
 6882 13fc 480000E8 		b .L426
 6883              	.LVL623:
 6884              	.L447:
 6885              	.LBE4579:
 6886              	.LBE4581:
 6887              	.LBE4583:
 6888              		.loc 4 323 0 discriminator 1
 6889 1400 3C800000 		lis 4,.LC8@ha
 6890 1404 38610058 		addi 3,1,88
 6891 1408 3884003C 		la 4,.LC8@l(4)
 6892 140c 48000001 		bl strcmp
 6893 1410 2F830000 		cmpwi 7,3,0
 6894 1414 40BEFE44 		bne- 7,.L444
 6895 1418 4BFFFEC8 		b .L418
 6896              	.LVL624:
 6897              	.L446:
 6898              	.LBE4588:
 6899              		.loc 4 346 0
 6900 141c 807E0040 		lwz 3,64(30)
 6901              	.LVL625:
 6902 1420 48000001 		bl closedir
 6903              	.LBB4589:
 6904              		.loc 4 497 0
 6905 1424 83FE0034 		lwz 31,52(30)
 6906              	.LBE4589:
 6907              		.loc 4 347 0
 6908 1428 38000000 		li 0,0
 6909              	.LBB4590:
 6910              		.loc 4 497 0
 6911 142c 837E0038 		lwz 27,56(30)
 6912              	.LBE4590:
 6913              		.loc 4 347 0
 6914 1430 901E0040 		stw 0,64(30)
 6915              	.LBB4591:
 6916              	.LBB4592:
 6917              	.LBB4593:
 6918              		.loc 7 5443 0
 6919 1434 7F9FD800 		cmpw 7,31,27
 6920              	.LVL626:
 6921 1438 419E0048 		beq- 7,.L428
 6922              	.LVL627:
 6923              	.LBB4594:
 6924              	.LBB4595:
 6925              		.loc 8 892 0
 6926 143c 7FDFD850 		subf 30,31,27
 6927              	.LVL628:
 6928              	.LBE4595:
 6929              	.LBE4594:
 6930              		.loc 7 5445 0
 6931 1440 38610458 		addi 3,1,1112
 6932              	.LBB4597:
 6933              	.LBB4596:
 6934              		.loc 8 892 0
 6935 1444 7FC51670 		srawi 5,30,2
 6936              	.LBE4596:
 6937              	.LBE4597:
 6938              		.loc 7 5445 0
 6939 1448 3881045C 		addi 4,1,1116
 6940              	.LBB4598:
 6941              	.LBB4599:
 6942              		.loc 9 982 0
 6943 144c 7CA50034 		cntlzw 5,5
 6944              	.LBE4599:
 6945              	.LBE4598:
 6946              		.loc 7 5445 0
 6947 1450 93E10458 		stw 31,1112(1)
 6948              	.LBB4601:
 6949              	.LBB4600:
 6950              		.loc 9 982 0
 6951 1454 20A5001F 		subfic 5,5,31
 6952              	.LBE4600:
 6953              	.LBE4601:
 6954              		.loc 7 5445 0
 6955 1458 9361045C 		stw 27,1116(1)
 6956 145c 54A5083C 		slwi 5,5,1
 6957 1460 4BFFF329 		bl _ZSt16__introsort_loopIN9__gnu_cxx17__normal_iteratorIPP19_BrowserEntryStructSt6vectorIS3_SaIS3
 6958              	.LVL629:
 6959              	.LBB4602:
 6960              	.LBB4603:
 6961              		.loc 7 2194 0
 6962 1464 2F9E0043 		cmpwi 7,30,67
 6963 1468 419D00B0 		bgt- 7,.L452
 6964              		.loc 7 2201 0
 6965 146c 38610458 		addi 3,1,1112
 6966 1470 3881045C 		addi 4,1,1116
 6967 1474 93E10458 		stw 31,1112(1)
 6968 1478 9361045C 		stw 27,1116(1)
 6969 147c 4BFFF039 		bl _ZSt16__insertion_sortIN9__gnu_cxx17__normal_iteratorIPP19_BrowserEntryStructSt6vectorIS3_SaIS3
 6970              	.LVL630:
 6971              	.L428:
 6972              	.LBE4603:
 6973              	.LBE4602:
 6974              	.LBE4593:
 6975              	.LBE4592:
 6976              	.LBE4591:
 6977              	.LBB4615:
 6978              	.LBB4616:
 6979              	.LBB4617:
 6980              	.LBB4618:
 6981              	.LBB4619:
 6982              	.LBB4620:
 6983              		.loc 5 288 0
 6984 1480 8121000C 		lwz 9,12(1)
 6985              	.LBE4620:
 6986              	.LBE4619:
 6987              	.LBE4618:
 6988              	.LBB4623:
 6989              	.LBB4624:
 6990              		.loc 5 235 0
 6991 1484 3D600000 		lis 11,_ZNSs4_Rep20_S_empty_rep_storageE@ha
 6992 1488 380B0000 		la 0,_ZNSs4_Rep20_S_empty_rep_storageE@l(11)
 6993              	.LBE4624:
 6994              	.LBE4623:
 6995              		.loc 5 534 0
 6996 148c 3869FFF4 		addi 3,9,-12
 6997              	.LVL631:
 6998              	.LBB4634:
 6999              	.LBB4631:
 7000              		.loc 5 235 0
 7001 1490 7F830000 		cmpw 7,3,0
 7002 1494 41BE0020 		beq+ 7,.L408
 7003              	.LVL632:
 7004              	.L453:
 7005              	.LBB4625:
 7006              	.LBB4626:
 7007              	.LBB4627:
 7008              		.loc 6 66 0
 7009 1498 8169FFFC 		lwz 11,-4(9)
 7010              	.LVL633:
 7011              	.LBE4627:
 7012              	.LBE4626:
 7013              	.LBE4625:
 7014              		.loc 5 240 0
 7015 149c 2F8B0000 		cmpwi 7,11,0
 7016              	.LBB4630:
 7017              	.LBB4629:
 7018              	.LBB4628:
 7019              		.loc 6 67 0
 7020 14a0 396BFFFF 		addi 11,11,-1
 7021 14a4 9169FFFC 		stw 11,-4(9)
 7022              	.LBE4628:
 7023              	.LBE4629:
 7024              	.LBE4630:
 7025              		.loc 5 240 0
 7026 14a8 41BD000C 		bgt+ 7,.L408
 7027              	.LVL634:
 7028              		.loc 5 244 0
 7029 14ac 38810008 		addi 4,1,8
 7030              	.LVL635:
 7031 14b0 48000001 		bl _ZNSs4_Rep10_M_destroyERKSaIcE
 7032              	.LVL636:
 7033              	.L408:
 7034              	.LBE4631:
 7035              	.LBE4634:
 7036              	.LBE4617:
 7037              	.LBE4616:
 7038              	.LBE4615:
 7039              	.LBE4653:
 7040              		.loc 4 350 0
 7041 14b4 8001047C 		lwz 0,1148(1)
 7042 14b8 83410460 		lwz 26,1120(1)
 7043 14bc 7C0803A6 		mtlr 0
 7044 14c0 83610464 		lwz 27,1124(1)
 7045 14c4 83810468 		lwz 28,1128(1)
 7046 14c8 83A1046C 		lwz 29,1132(1)
 7047 14cc 83C10470 		lwz 30,1136(1)
 7048 14d0 83E10474 		lwz 31,1140(1)
 7049 14d4 38210478 		addi 1,1,1144
 7050              		.cfi_remember_state
 7051              	.LCFI100:
 7052              		.cfi_def_cfa_offset 0
 7053              		.cfi_restore 31
 7054              		.cfi_restore 30
 7055              		.cfi_restore 29
 7056              		.cfi_restore 28
 7057              		.cfi_restore 27
 7058              		.cfi_restore 26
 7059 14d8 4E800020 		blr
 7060              	.LVL637:
 7061              	.L423:
 7062              	.LCFI101:
 7063              		.cfi_restore_state
 7064              	.LBB4654:
 7065              	.LBB4640:
 7066              		.loc 4 337 0
 7067 14dc 38000000 		li 0,0
 7068 14e0 981C0009 		stb 0,9(28)
 7069              	.LVL638:
 7070              	.L426:
 7071              		.loc 4 338 0
 7072 14e4 7D29F82E 		lwzx 9,9,31
 7073 14e8 38000000 		li 0,0
 7074              		.loc 4 341 0
 7075 14ec 556B97FE 		rlwinm 11,11,18,31,31
 7076              		.loc 4 343 0
 7077 14f0 3BBD0001 		addi 29,29,1
 7078              	.LVL639:
 7079              		.loc 4 338 0
 7080 14f4 9809000A 		stb 0,10(9)
 7081              		.loc 4 339 0
 7082 14f8 9809000B 		stb 0,11(9)
 7083              		.loc 4 340 0
 7084 14fc 9809000C 		stb 0,12(9)
 7085              	.LVL640:
 7086              		.loc 4 341 0
 7087 1500 99690008 		stb 11,8(9)
 7088 1504 4BFFFD54 		b .L444
 7089              	.LVL641:
 7090              	.L451:
 7091              		.loc 4 337 0
 7092 1508 7D695850 		subf 11,9,11
 7093 150c 38000001 		li 0,1
 7094 1510 7D6B1670 		srawi 11,11,2
 7095 1514 4BFFFED8 		b .L425
 7096              	.LVL642:
 7097              	.L452:
 7098              	.LBE4640:
 7099              	.LBB4641:
 7100              	.LBB4614:
 7101              	.LBB4613:
 7102              	.LBB4612:
 7103              	.LBB4611:
 7104              	.LBB4604:
 7105              	.LBB4605:
 7106              		.loc 8 773 0
 7107 1518 3B9F0040 		addi 28,31,64
 7108              	.LBE4605:
 7109              	.LBE4604:
 7110              		.loc 7 2196 0
 7111 151c 38610458 		addi 3,1,1112
 7112 1520 3881045C 		addi 4,1,1116
 7113 1524 93E10458 		stw 31,1112(1)
 7114 1528 9381045C 		stw 28,1116(1)
 7115 152c 4BFFEF89 		bl _ZSt16__insertion_sortIN9__gnu_cxx17__normal_iteratorIPP19_BrowserEntryStructSt6vectorIS3_SaIS3
 7116              	.LVL643:
 7117              	.LBB4606:
 7118              	.LBB4607:
 7119              	.LBB4608:
 7120              		.loc 7 2163 0
 7121 1530 7F9BE000 		cmpw 7,27,28
 7122 1534 41BEFF4C 		beq- 7,.L428
 7123              	.LVL644:
 7124              	.L432:
 7125 1538 7F9EE378 		mr 30,28
 7126              	.LVL645:
 7127              	.LBB4609:
 7128              	.LBB4610:
 7129              		.loc 7 2084 0
 7130 153c 83BC0000 		lwz 29,0(28)
 7131              	.LVL646:
 7132 1540 7F9FE378 		mr 31,28
 7133 1544 48000010 		b .L430
 7134              	.LVL647:
 7135              	.L431:
 7136              		.loc 7 2089 0
 7137 1548 801F0000 		lwz 0,0(31)
 7138 154c 901E0000 		stw 0,0(30)
 7139              	.LVL648:
 7140 1550 7FFEFB78 		mr 30,31
 7141              	.LVL649:
 7142              	.L430:
 7143              		.loc 7 2087 0
 7144 1554 849FFFFC 		lwzu 4,-4(31)
 7145 1558 7FA3EB78 		mr 3,29
 7146 155c 4BFFEC61 		bl _ZL16FileSortCallbackPK19_BrowserEntryStructS1_
 7147 1560 2F830000 		cmpwi 7,3,0
 7148 1564 409EFFE4 		bne+ 7,.L431
 7149              	.LVL650:
 7150              		.loc 7 2093 0
 7151 1568 3B9C0004 		addi 28,28,4
 7152              	.LVL651:
 7153 156c 93BE0000 		stw 29,0(30)
 7154              	.LVL652:
 7155              	.LBE4610:
 7156              	.LBE4609:
 7157              		.loc 7 2163 0
 7158 1570 7F9BE000 		cmpw 7,27,28
 7159 1574 409EFFC4 		bne+ 7,.L432
 7160              	.LVL653:
 7161              	.LBE4608:
 7162              	.LBE4607:
 7163              	.LBE4606:
 7164              	.LBE4611:
 7165              	.LBE4612:
 7166              	.LBE4613:
 7167              	.LBE4614:
 7168              	.LBE4641:
 7169              	.LBB4642:
 7170              	.LBB4639:
 7171              	.LBB4638:
 7172              	.LBB4635:
 7173              	.LBB4622:
 7174              	.LBB4621:
 7175              		.loc 5 288 0
 7176 1578 8121000C 		lwz 9,12(1)
 7177              	.LBE4621:
 7178              	.LBE4622:
 7179              	.LBE4635:
 7180              	.LBB4636:
 7181              	.LBB4632:
 7182              		.loc 5 235 0
 7183 157c 3D600000 		lis 11,_ZNSs4_Rep20_S_empty_rep_storageE@ha
 7184 1580 380B0000 		la 0,_ZNSs4_Rep20_S_empty_rep_storageE@l(11)
 7185              	.LBE4632:
 7186              	.LBE4636:
 7187              		.loc 5 534 0
 7188 1584 3869FFF4 		addi 3,9,-12
 7189              	.LVL654:
 7190              	.LBB4637:
 7191              	.LBB4633:
 7192              		.loc 5 235 0
 7193 1588 7F830000 		cmpw 7,3,0
 7194 158c 419EFF28 		beq+ 7,.L408
 7195 1590 4BFFFF08 		b .L453
 7196              	.LVL655:
 7197              	.L411:
 7198              	.LBE4633:
 7199              	.LBE4637:
 7200              	.LBE4638:
 7201              	.LBE4639:
 7202              	.LBE4642:
 7203              	.LBB4643:
 7204              	.LBB4644:
 7205              		.loc 5 711 0
 7206 1594 8129FFF4 		lwz 9,-12(9)
 7207              	.LBE4644:
 7208              	.LBE4643:
 7209              		.loc 4 308 0
 7210 1598 3889FFFF 		addi 4,9,-1
 7211              	.LVL656:
 7212              	.LBB4645:
 7213              	.LBB4646:
 7214              	.LBB4647:
 7215              	.LBB4648:
 7216              		.loc 5 318 0
 7217 159c 7F844840 		cmplw 7,4,9
 7218 15a0 419D0018 		bgt- 7,.L454
 7219              	.LVL657:
 7220              	.LBE4648:
 7221              	.LBE4647:
 7222              		.loc 5 1349 0
 7223 15a4 3861000C 		addi 3,1,12
 7224              	.LVL658:
 7225 15a8 38A00001 		li 5,1
 7226 15ac 38C00000 		li 6,0
 7227 15b0 48000001 		bl _ZNSs9_M_mutateEjjj
 7228              	.LVL659:
 7229 15b4 4BFFFCA0 		b .L414
 7230              	.LVL660:
 7231              	.L454:
 7232              	.LBB4650:
 7233              	.LBB4649:
 7234              		.loc 5 319 0
 7235 15b8 3C600000 		lis 3,.LC7@ha
 7236 15bc 38630028 		la 3,.LC7@l(3)
 7237 15c0 48000001 		bl _ZSt20__throw_out_of_rangePKc
 7238              	.LEHE11:
 7239              	.LVL661:
 7240              	.L439:
 7241 15c4 7C7F1B78 		mr 31,3
 7242              	.LBE4649:
 7243              	.LBE4650:
 7244              	.LBE4646:
 7245              	.LBE4645:
 7246              		.loc 4 349 0
 7247 15c8 3861000C 		addi 3,1,12
 7248              	.LVL662:
 7249 15cc 48000001 		bl _ZNSsD1Ev
 7250              	.LVL663:
 7251 15d0 7FE3FB78 		mr 3,31
 7252              	.LEHB12:
 7253 15d4 48000001 		bl _Unwind_Resume
 7254              	.LEHE12:
 7255              	.LVL664:
 7256              	.L450:
 7257              	.LBB4651:
 7258              	.LBB4584:
 7259              	.LBB4575:
 7260              	.LBB4574:
 7261              		.loc 3 719 0
 7262 15d8 3C600000 		lis 3,.LC0@ha
 7263 15dc 38630000 		la 3,.LC0@l(3)
 7264              	.LEHB13:
 7265 15e0 48000001 		bl _ZSt20__throw_out_of_rangePKc
 7266              	.LVL665:
 7267              	.L449:
 7268              	.LBE4574:
 7269              	.LBE4575:
