   1              		.file	"FileDownloader.cpp"
   2              		.section	".text"
   3              	.Ltext0:
   4              		.align 2
   5              		.globl _Z17DownloadFileToMemPKcPPhPj
   6              		.type	_Z17DownloadFileToMemPKcPPhPj, @function
   7              	_Z17DownloadFileToMemPKcPPhPj:
   8              	.LFB1570:
   9              		.file 1 "d:/Projects/SaveGameManager/savegame-manager-gx/trunk/source/Network/FileDownloader.cpp"
  10              		.loc 1 37 0
  11              		.cfi_startproc
  12              		.cfi_personality 0,__gxx_personality_v0
  13              		.cfi_lsda 0,.LLSDA1570
  14              	.LVL0:
  15 0000 9421FAA0 		stwu 1,-1376(1)
  16              	.LCFI0:
  17              		.cfi_def_cfa_offset 1376
  18 0004 7C0802A6 		mflr 0
  19 0008 92E1053C 		stw 23,1340(1)
  20 000c 7C972378 		mr 23,4
  21              		.cfi_offset 23, -36
  22              		.cfi_register 65, 0
  23              	.LBB1324:
  24              		.loc 1 38 0
  25 0010 3C800000 		lis 4,.LC0@ha
  26              	.LVL1:
  27              	.LBE1324:
  28              		.loc 1 37 0
  29 0014 92C10538 		stw 22,1336(1)
  30 0018 93E1055C 		stw 31,1372(1)
  31 001c 7CB62B78 		mr 22,5
  32              		.cfi_offset 31, -4
  33              		.cfi_offset 22, -40
  34 0020 7C3F0B78 		mr 31,1
  35              	.LCFI1:
  36              		.cfi_def_cfa_register 31
  37              	.LBB1348:
  38              		.loc 1 38 0
  39 0024 38840000 		la 4,.LC0@l(4)
  40 0028 38A00007 		li 5,7
  41              	.LVL2:
  42              	.LBE1348:
  43              		.loc 1 37 0
  44 002c 93C10558 		stw 30,1368(1)
  45 0030 90010564 		stw 0,1380(1)
  46 0034 7C7E1B78 		mr 30,3
  47              		.cfi_offset 65, 4
  48              		.cfi_offset 30, -8
  49 0038 91E1051C 		stw 15,1308(1)
  50 003c 92010520 		stw 16,1312(1)
  51 0040 92210524 		stw 17,1316(1)
  52 0044 92410528 		stw 18,1320(1)
  53 0048 9261052C 		stw 19,1324(1)
  54 004c 92810530 		stw 20,1328(1)
  55 0050 92A10534 		stw 21,1332(1)
  56 0054 93010540 		stw 24,1344(1)
  57 0058 93210544 		stw 25,1348(1)
  58 005c 93410548 		stw 26,1352(1)
  59 0060 9361054C 		stw 27,1356(1)
  60 0064 93810550 		stw 28,1360(1)
  61 0068 93A10554 		stw 29,1364(1)
  62              	.LEHB0:
  63              	.LBB1349:
  64              		.loc 1 38 0
  65              		.cfi_offset 29, -12
  66              		.cfi_offset 28, -16
  67              		.cfi_offset 27, -20
  68              		.cfi_offset 26, -24
  69              		.cfi_offset 25, -28
  70              		.cfi_offset 24, -32
  71              		.cfi_offset 21, -44
  72              		.cfi_offset 20, -48
  73              		.cfi_offset 19, -52
  74              		.cfi_offset 18, -56
  75              		.cfi_offset 17, -60
  76              		.cfi_offset 16, -64
  77              		.cfi_offset 15, -68
  78 006c 48000001 		bl strncasecmp
  79              	.LVL3:
  80 0070 7C7C1B79 		mr. 28,3
  81 0074 40820310 		bne- 0,.L53
  82              		.loc 1 43 0
  83 0078 3B5E0007 		addi 26,30,7
  84 007c 3880002F 		li 4,47
  85 0080 7F43D378 		mr 3,26
  86 0084 48000001 		bl strchr
  87              	.LVL4:
  88              		.loc 1 45 0
  89 0088 7C7D1B79 		mr. 29,3
  90 008c 418203B0 		beq- 0,.L54
  91              		.loc 1 51 0
  92 0090 7FDEE850 		subf 30,30,29
  93              	.LVL5:
  94              		.loc 1 53 0
  95 0094 377EFFF9 		addic. 27,30,-7
  96 0098 40820078 		bne- 0,.L5
  97              		.loc 1 55 0
  98 009c 3C600000 		lis 3,.LC3@ha
  99              	.LVL6:
 100 00a0 38630030 		la 3,.LC3@l(3)
 101 00a4 48000001 		bl gettext
 102 00a8 4CC63182 		crxor 6,6,6
 103 00ac 48000001 		bl ShowError
 104              		.loc 1 56 0
 105 00b0 3BC0FFFD 		li 30,-3
 106              	.LVL7:
 107              	.L3:
 108              	.LBE1349:
 109              		.loc 1 149 0
 110 00b4 397F0560 		addi 11,31,1376
 111 00b8 7FC3F378 		mr 3,30
 112 00bc 800B0004 		lwz 0,4(11)
 113 00c0 81EBFFBC 		lwz 15,-68(11)
 114 00c4 7D615B78 		mr 1,11
 115              		.cfi_remember_state
 116              	.LCFI2:
 117              		.cfi_def_cfa 1, 0
 118              		.cfi_restore 31
 119              		.cfi_restore 30
 120              		.cfi_restore 29
 121              		.cfi_restore 28
 122              		.cfi_restore 27
 123              		.cfi_restore 26
 124              		.cfi_restore 25
 125              		.cfi_restore 24
 126              		.cfi_restore 23
 127              		.cfi_restore 22
 128              		.cfi_restore 21
 129              		.cfi_restore 20
 130              		.cfi_restore 19
 131              		.cfi_restore 18
 132              		.cfi_restore 17
 133              		.cfi_restore 16
 134              		.cfi_restore 15
 135 00c8 7C0803A6 		mtlr 0
 136 00cc 820BFFC0 		lwz 16,-64(11)
 137 00d0 822BFFC4 		lwz 17,-60(11)
 138 00d4 824BFFC8 		lwz 18,-56(11)
 139 00d8 826BFFCC 		lwz 19,-52(11)
 140 00dc 828BFFD0 		lwz 20,-48(11)
 141 00e0 82ABFFD4 		lwz 21,-44(11)
 142 00e4 82CBFFD8 		lwz 22,-40(11)
 143              	.LVL8:
 144 00e8 82EBFFDC 		lwz 23,-36(11)
 145              	.LVL9:
 146 00ec 830BFFE0 		lwz 24,-32(11)
 147 00f0 832BFFE4 		lwz 25,-28(11)
 148 00f4 834BFFE8 		lwz 26,-24(11)
 149 00f8 836BFFEC 		lwz 27,-20(11)
 150 00fc 838BFFF0 		lwz 28,-16(11)
 151 0100 83ABFFF4 		lwz 29,-12(11)
 152 0104 83CBFFF8 		lwz 30,-8(11)
 153 0108 83EBFFFC 		lwz 31,-4(11)
 154              	.LCFI3:
 155              		.cfi_def_cfa_register 11
 156 010c 4E800020 		blr
 157              	.LVL10:
 158              	.L5:
 159              	.LCFI4:
 160              		.cfi_restore_state
 161              	.LBB1350:
 162              		.loc 1 59 0
 163 0110 3BDE0018 		addi 30,30,24
 164 0114 80010000 		lwz 0,0(1)
 165 0118 57DE0036 		rlwinm 30,30,0,0,27
 166              		.loc 1 60 0
 167 011c 7F44D378 		mr 4,26
 168              		.loc 1 59 0
 169 0120 7FDE00D0 		neg 30,30
 170              		.loc 1 60 0
 171 0124 7F65DB78 		mr 5,27
 172              		.loc 1 59 0
 173 0128 7C01F16E 		stwux 0,1,30
 174 012c 3BC10017 		addi 30,1,23
 175 0130 57DE0036 		rlwinm 30,30,0,0,27
 176              	.LVL11:
 177              		.loc 1 60 0
 178 0134 7FC3F378 		mr 3,30
 179              	.LVL12:
 180 0138 48000001 		bl strncpy
 181              		.loc 1 61 0
 182 013c 7F9ED9AE 		stbx 28,30,27
 183              		.loc 1 63 0
 184 0140 7FC3F378 		mr 3,30
 185 0144 48000001 		bl GetConnection
 186              	.LVL13:
 187              		.loc 1 65 0
 188 0148 7C7A1B79 		mr. 26,3
 189              	.LVL14:
 190 014c 418002D4 		blt- 0,.L55
 191              	.LVL15:
 192              		.loc 1 73 0
 193 0150 3C800000 		lis 4,.LC5@ha
 194 0154 7FA5EB78 		mr 5,29
 195 0158 38840068 		la 4,.LC5@l(4)
 196 015c 387F0118 		addi 3,31,280
 197              	.LVL16:
 198 0160 4CC63182 		crxor 6,6,6
 199 0164 48000001 		bl sprintf
 200 0168 381F0118 		addi 0,31,280
 201 016c 7FA01A14 		add 29,0,3
 202              	.LVL17:
 203              		.loc 1 74 0
 204 0170 3C800000 		lis 4,.LC6@ha
 205 0174 7FC5F378 		mr 5,30
 206 0178 3884007C 		la 4,.LC6@l(4)
 207 017c 7FA3EB78 		mr 3,29
 208 0180 4CC63182 		crxor 6,6,6
 209 0184 48000001 		bl sprintf
 210              		.loc 1 75 0
 211 0188 3C800000 		lis 4,.LC7@ha
 212              		.loc 1 74 0
 213 018c 7FBD1A14 		add 29,29,3
 214              	.LVL18:
 215              		.loc 1 75 0
 216 0190 7FC5F378 		mr 5,30
 217 0194 38840088 		la 4,.LC7@l(4)
 218 0198 7FA3EB78 		mr 3,29
 219 019c 4CC63182 		crxor 6,6,6
 220 01a0 48000001 		bl sprintf
 221              		.loc 1 76 0
 222 01a4 3CA00000 		lis 5,.LC8@ha
 223 01a8 83650098 		lwz 27,.LC8@l(5)
 224              	.LVL19:
 225              		.loc 1 77 0
 226 01ac 3CC00000 		lis 6,.LC9@ha
 227              		.loc 1 78 0
 228 01b0 3CE00000 		lis 7,.LC10@ha
 229              		.loc 1 76 0
 230 01b4 39650098 		la 11,.LC8@l(5)
 231              		.loc 1 78 0
 232 01b8 394700C8 		la 10,.LC10@l(7)
 233              		.loc 1 77 0
 234 01bc 390600B4 		la 8,.LC9@l(6)
 235 01c0 838600B4 		lwz 28,.LC9@l(6)
 236              		.loc 1 75 0
 237 01c4 7D3D1A14 		add 9,29,3
 238              	.LVL20:
 239              		.loc 1 77 0
 240 01c8 81880008 		lwz 12,8(8)
 241              		.loc 1 78 0
 242 01cc 83CA0004 		lwz 30,4(10)
 243              	.LVL21:
 244 01d0 808A0008 		lwz 4,8(10)
 245 01d4 80CA000C 		lwz 6,12(10)
 246 01d8 800A0010 		lwz 0,16(10)
 247              		.loc 1 76 0
 248 01dc 81EB0004 		lwz 15,4(11)
 249 01e0 820B0008 		lwz 16,8(11)
 250 01e4 822B000C 		lwz 17,12(11)
 251 01e8 824B0010 		lwz 18,16(11)
 252 01ec 826B0014 		lwz 19,20(11)
 253              		.loc 1 77 0
 254 01f0 82880004 		lwz 20,4(8)
 255 01f4 82A8000C 		lwz 21,12(8)
 256 01f8 A3080010 		lhz 24,16(8)
 257              		.loc 1 78 0
 258 01fc 832700C8 		lwz 25,.LC10@l(7)
 259              		.loc 1 79 0
 260 0200 3CE00000 		lis 7,.LC11@ha
 261              		.loc 1 76 0
 262 0204 7F7D192E 		stwx 27,29,3
 263              		.loc 1 79 0
 264 0208 38A700E4 		la 5,.LC11@l(7)
 265              		.loc 1 82 0
 266 020c 387F0018 		addi 3,31,24
 267              		.loc 1 78 0
 268 0210 836A0014 		lwz 27,20(10)
 269              		.loc 1 76 0
 270 0214 91E90004 		stw 15,4(9)
 271 0218 92090008 		stw 16,8(9)
 272 021c 9229000C 		stw 17,12(9)
 273 0220 92490010 		stw 18,16(9)
 274 0224 92690014 		stw 19,20(9)
 275              	.LVL22:
 276              		.loc 1 77 0
 277 0228 93890018 		stw 28,24(9)
 278              		.loc 1 78 0
 279 022c A38A0018 		lhz 28,24(10)
 280 0230 93C9002E 		stw 30,46(9)
 281 0234 90890032 		stw 4,50(9)
 282              		.loc 1 82 0
 283 0238 38800000 		li 4,0
 284              		.loc 1 78 0
 285 023c 90C90036 		stw 6,54(9)
 286              		.loc 1 77 0
 287 0240 9289001C 		stw 20,28(9)
 288 0244 91890020 		stw 12,32(9)
 289 0248 92A90024 		stw 21,36(9)
 290 024c B3090028 		sth 24,40(9)
 291              	.LVL23:
 292              		.loc 1 78 0
 293 0250 9329002A 		stw 25,42(9)
 294 0254 9009003A 		stw 0,58(9)
 295              		.loc 1 79 0
 296 0258 83A700E4 		lwz 29,.LC11@l(7)
 297 025c 83C50004 		lwz 30,4(5)
 298 0260 80C50008 		lwz 6,8(5)
 299 0264 80E5000C 		lwz 7,12(5)
 300 0268 81050010 		lwz 8,16(5)
 301 026c A0050014 		lhz 0,20(5)
 302              		.loc 1 82 0
 303 0270 38A000FF 		li 5,255
 304              		.loc 1 78 0
 305 0274 B3890042 		sth 28,66(9)
 306              	.LVL24:
 307 0278 9369003E 		stw 27,62(9)
 308              		.loc 1 79 0
 309 027c 93A90043 		stw 29,67(9)
 310 0280 93C90047 		stw 30,71(9)
 311 0284 90C9004B 		stw 6,75(9)
 312 0288 90E9004F 		stw 7,79(9)
 313 028c 91090053 		stw 8,83(9)
 314 0290 B0090057 		sth 0,87(9)
 315              	.LVL25:
 316              		.loc 1 82 0
 317 0294 48000001 		bl memset
 318              	.LVL26:
 319              		.loc 1 84 0
 320 0298 7F43D378 		mr 3,26
 321 029c 389F0118 		addi 4,31,280
 322 02a0 38BF0018 		addi 5,31,24
 323 02a4 48000001 		bl _Z15network_requestiPKcPc
 324              	.LVL27:
 325              		.loc 1 86 0
 326 02a8 7C7D1B79 		mr. 29,3
 327 02ac 408100F4 		ble- 0,.L56
 328              	.LVL28:
 329              		.loc 1 95 0
 330 02b0 48000001 		bl malloc
 331              	.LVL29:
 332              		.loc 1 96 0
 333 02b4 7C781B79 		mr. 24,3
 334 02b8 418201A0 		beq- 0,.L57
 335              	.LBB1325:
 336              	.LBB1326:
 337              		.file 2 "d:/Projects/SaveGameManager/savegame-manager-gx/trunk/source/Network/../Prompts/ProgressW
 338              		.loc 2 26 0
 339 02bc 3EA00000 		lis 21,_ZN14ProgressWindow8instanceE@ha
 340 02c0 83D50000 		lwz 30,_ZN14ProgressWindow8instanceE@l(21)
 341 02c4 2F9E0000 		cmpwi 7,30,0
 342 02c8 419E01E4 		beq- 7,.L58
 343              	.LVL30:
 344              	.L9:
 345              	.LBE1326:
 346              	.LBE1325:
 347              		.loc 1 103 0
 348 02cc 3C600000 		lis 3,.LC14@ha
 349 02d0 38630124 		la 3,.LC14@l(3)
 350 02d4 48000001 		bl gettext
 351 02d8 7C641B78 		mr 4,3
 352 02dc 38A00000 		li 5,0
 353 02e0 7FC3F378 		mr 3,30
 354 02e4 48000001 		bl _ZN14ProgressWindow13StartProgressEPKcS1_
 355 02e8 3F200000 		lis 25,_ZN14ProgressWindow8instanceE@ha
 356 02ec 3BC00000 		li 30,0
 357 02f0 3B601000 		li 27,4096
 358 02f4 3B390000 		la 25,_ZN14ProgressWindow8instanceE@l(25)
 359 02f8 48000068 		b .L19
 360              	.LVL31:
 361              	.L13:
 362              	.LBB1329:
 363              		.loc 1 115 0
 364 02fc 7FC9FE70 		srawi 9,30,31
 365 0300 7FA0FE70 		srawi 0,29,31
 366 0304 7F83E378 		mr 3,28
 367 0308 389F0010 		addi 4,31,16
 368 030c 38BF0008 		addi 5,31,8
 369 0310 38DF0018 		addi 6,31,24
 370 0314 93DF0014 		stw 30,20(31)
 371 0318 913F0010 		stw 9,16(31)
 372 031c 93BF000C 		stw 29,12(31)
 373 0320 901F0008 		stw 0,8(31)
 374 0324 48000001 		bl _ZN14ProgressWindow12ShowProgressERKyS1_PKc
 375              		.loc 1 117 0
 376 0328 7C1EE850 		subf 0,30,29
 377              	.LBB1330:
 378              	.LBB1331:
 379              		.loc 2 26 0
 380 032c 7F9B0000 		cmpw 7,27,0
 381 0330 409D0008 		ble- 7,.L16
 382 0334 7C1B0378 		mr 27,0
 383              	.L16:
 384              	.LVL32:
 385              	.LBE1331:
 386              	.LBE1330:
 387              		.loc 1 120 0
 388 0338 7F43D378 		mr 3,26
 389 033c 7C98F214 		add 4,24,30
 390 0340 7F65DB78 		mr 5,27
 391 0344 48000001 		bl _Z12network_readiPhj
 392              	.LVL33:
 393              		.loc 1 122 0
 394 0348 2C030000 		cmpwi 0,3,0
 395 034c 41800078 		blt- 0,.L59
 396              		.loc 1 128 0
 397 0350 4182008C 		beq- 0,.L18
 398              		.loc 1 131 0
 399 0354 7FDE1A14 		add 30,30,3
 400              	.LVL34:
 401              	.LBE1329:
 402              		.loc 1 107 0
 403 0358 7F9DF000 		cmpw 7,29,30
 404 035c 409D0080 		ble- 7,.L18
 405              	.LVL35:
 406              	.L19:
 407              	.LBB1334:
 408              	.LBB1333:
 409              	.LBB1332:
 410              		.loc 2 26 0
 411 0360 83990000 		lwz 28,0(25)
 412 0364 2F9C0000 		cmpwi 7,28,0
 413 0368 409EFF94 		bne+ 7,.L13
 414 036c 386001B8 		li 3,440
 415 0370 48000001 		bl _Znwj
 416              	.LEHE0:
 417 0374 7C7C1B78 		mr 28,3
 418              	.LEHB1:
 419 0378 48000001 		bl _ZN14ProgressWindowC1Ev
 420              	.LEHE1:
 421 037c 93990000 		stw 28,0(25)
 422 0380 4BFFFF7C 		b .L13
 423              	.LVL36:
 424              	.L53:
 425              	.LBE1332:
 426              	.LBE1333:
 427              	.LBE1334:
 428              		.loc 1 40 0
 429 0384 3C600000 		lis 3,.LC1@ha
 430 0388 38630008 		la 3,.LC1@l(3)
 431              	.LEHB2:
 432 038c 48000001 		bl gettext
 433 0390 4CC63182 		crxor 6,6,6
 434 0394 48000001 		bl ShowError
 435              		.loc 1 41 0
 436 0398 3BC0FFFF 		li 30,-1
 437              	.LVL37:
 438 039c 4BFFFD18 		b .L3
 439              	.LVL38:
 440              	.L56:
 441              		.loc 1 88 0
 442 03a0 7F43D378 		mr 3,26
 443              	.LVL39:
 444 03a4 48000001 		bl net_close
 445              		.loc 1 89 0
 446 03a8 3C600000 		lis 3,.LC12@ha
 447 03ac 386300FC 		la 3,.LC12@l(3)
 448 03b0 48000001 		bl gettext
 449 03b4 4CC63182 		crxor 6,6,6
 450 03b8 48000001 		bl ShowError
 451              		.loc 1 90 0
 452 03bc 3BC0FFFB 		li 30,-5
 453 03c0 4BFFFCF4 		b .L3
 454              	.LVL40:
 455              	.L59:
 456              	.LBB1335:
 457              		.loc 1 124 0
 458 03c4 3C600000 		lis 3,.LC15@ha
 459              	.LVL41:
 460 03c8 38630138 		la 3,.LC15@l(3)
 461 03cc 48000001 		bl gettext
 462 03d0 4CC63182 		crxor 6,6,6
 463 03d4 48000001 		bl ShowError
 464              		.loc 1 125 0
 465 03d8 3BC0FFF8 		li 30,-8
 466              	.L18:
 467              	.LVL42:
 468              	.LBE1335:
 469              		.loc 1 134 0
 470 03dc 7F43D378 		mr 3,26
 471 03e0 48000001 		bl net_close
 472              	.LBB1336:
 473              	.LBB1337:
 474              		.loc 2 26 0
 475 03e4 83950000 		lwz 28,_ZN14ProgressWindow8instanceE@l(21)
 476 03e8 2F9C0000 		cmpwi 7,28,0
 477 03ec 419E00A8 		beq- 7,.L60
 478              	.L20:
 479              	.LBE1337:
 480              	.LBE1336:
 481              		.loc 1 136 0
 482 03f0 7F83E378 		mr 3,28
 483 03f4 48000001 		bl _ZN14ProgressWindow14FinishProgressEv
 484              	.LBB1340:
 485              	.LBB1341:
 486              		.loc 2 26 0
 487 03f8 83950000 		lwz 28,_ZN14ProgressWindow8instanceE@l(21)
 488 03fc 2F9C0000 		cmpwi 7,28,0
 489 0400 419E007C 		beq- 7,.L61
 490              	.L23:
 491              	.LBE1341:
 492              	.LBE1340:
 493              		.loc 1 137 0
 494 0404 7F83E378 		mr 3,28
 495 0408 48000001 		bl _ZN14ProgressWindow12StopProgressEv
 496              		.loc 1 139 0
 497 040c 2F9E0000 		cmpwi 7,30,0
 498 0410 419C00B4 		blt- 7,.L62
 499              		.loc 1 145 0
 500 0414 93170000 		stw 24,0(23)
 501              		.loc 1 146 0
 502 0418 93B60000 		stw 29,0(22)
 503 041c 4BFFFC98 		b .L3
 504              	.LVL43:
 505              	.L55:
 506              		.loc 1 67 0
 507 0420 3C600000 		lis 3,.LC4@ha
 508 0424 38630044 		la 3,.LC4@l(3)
 509 0428 48000001 		bl gettext
 510 042c 4CC63182 		crxor 6,6,6
 511 0430 48000001 		bl ShowError
 512              		.loc 1 68 0
 513 0434 3BC0FFFC 		li 30,-4
 514              	.LVL44:
 515 0438 4BFFFC7C 		b .L3
 516              	.LVL45:
 517              	.L54:
 518              		.loc 1 47 0
 519 043c 3C600000 		lis 3,.LC2@ha
 520 0440 38630018 		la 3,.LC2@l(3)
 521 0444 48000001 		bl gettext
 522 0448 4CC63182 		crxor 6,6,6
 523 044c 48000001 		bl ShowError
 524              		.loc 1 48 0
 525 0450 3BC0FFFE 		li 30,-2
 526              	.LVL46:
 527 0454 4BFFFC60 		b .L3
 528              	.LVL47:
 529              	.L57:
 530              		.loc 1 98 0
 531 0458 7F43D378 		mr 3,26
 532              	.LVL48:
 533 045c 48000001 		bl net_close
 534              		.loc 1 99 0
 535 0460 3C600000 		lis 3,.LC13@ha
 536 0464 38630110 		la 3,.LC13@l(3)
 537 0468 48000001 		bl gettext
 538 046c 4CC63182 		crxor 6,6,6
 539 0470 48000001 		bl ShowError
 540              		.loc 1 100 0
 541 0474 3BC0FFFA 		li 30,-6
 542 0478 4BFFFC3C 		b .L3
 543              	.LVL49:
 544              	.L61:
 545              	.LBB1343:
 546              	.LBB1342:
 547              		.loc 2 26 0
 548 047c 386001B8 		li 3,440
 549 0480 48000001 		bl _Znwj
 550              	.LEHE2:
 551 0484 7C7C1B78 		mr 28,3
 552              	.LEHB3:
 553 0488 48000001 		bl _ZN14ProgressWindowC1Ev
 554              	.LEHE3:
 555 048c 93950000 		stw 28,_ZN14ProgressWindow8instanceE@l(21)
 556 0490 4BFFFF74 		b .L23
 557              	.L60:
 558              	.LBE1342:
 559              	.LBE1343:
 560              	.LBB1344:
 561              	.LBB1338:
 562 0494 386001B8 		li 3,440
 563              	.LEHB4:
 564 0498 48000001 		bl _Znwj
 565              	.LEHE4:
 566 049c 7C7C1B78 		mr 28,3
 567              	.LEHB5:
 568 04a0 48000001 		bl _ZN14ProgressWindowC1Ev
 569              	.LEHE5:
 570 04a4 93950000 		stw 28,_ZN14ProgressWindow8instanceE@l(21)
 571 04a8 4BFFFF48 		b .L20
 572              	.LVL50:
 573              	.L58:
 574              	.LBE1338:
 575              	.LBE1344:
 576              	.LBB1345:
 577              	.LBB1327:
 578 04ac 386001B8 		li 3,440
 579              	.LEHB6:
 580 04b0 48000001 		bl _Znwj
 581              	.LEHE6:
 582 04b4 7C7E1B78 		mr 30,3
 583              	.LEHB7:
 584 04b8 48000001 		bl _ZN14ProgressWindowC1Ev
 585              	.LEHE7:
 586 04bc 93D50000 		stw 30,_ZN14ProgressWindow8instanceE@l(21)
 587 04c0 4BFFFE0C 		b .L9
 588              	.LVL51:
 589              	.L62:
 590              	.LBE1327:
 591              	.LBE1345:
 592              		.loc 1 141 0
 593 04c4 7F03C378 		mr 3,24
 594 04c8 48000001 		bl free
 595 04cc 4BFFFBE8 		b .L3
 596              	.L38:
 597              	.LVL52:
 598              	.L51:
 599 04d0 7C7E1B78 		mr 30,3
 600              	.LBB1346:
 601              	.LBB1339:
 602              		.loc 2 26 0
 603 04d4 7F83E378 		mr 3,28
 604 04d8 48000001 		bl _ZdlPv
 605 04dc 7FC3F378 		mr 3,30
 606              	.LVL53:
 607              	.L12:
 608              	.LEHB8:
 609              	.LBE1339:
 610              	.LBE1346:
 611              		.loc 1 146 0
 612 04e0 48000001 		bl _Unwind_Resume
 613              	.LEHE8:
 614              	.LVL54:
 615              	.L36:
 616 04e4 4BFFFFEC 		b .L51
 617              	.LVL55:
 618              	.L37:
 619 04e8 4BFFFFE8 		b .L51
 620              	.LVL56:
 621              	.L34:
 622 04ec 4BFFFFF4 		b .L12
 623              	.LVL57:
 624              	.L35:
 625 04f0 7C7D1B78 		mr 29,3
 626              	.LVL58:
 627              	.LBB1347:
 628              	.LBB1328:
 629              		.loc 2 26 0
 630 04f4 7FC3F378 		mr 3,30
 631 04f8 48000001 		bl _ZdlPv
 632 04fc 7FA3EB78 		mr 3,29
 633 0500 4BFFFFE0 		b .L12
 634              	.LBE1328:
 635              	.LBE1347:
 636              	.LBE1350:
 637              		.cfi_endproc
 638              	.LFE1570:
 639              		.globl __gxx_personality_v0
 640              		.section	.gcc_except_table,"a",@progbits
 641              	.LLSDA1570:
 642 0000 FF       		.byte	0xff
 643 0001 FF       		.byte	0xff
 644 0002 01       		.byte	0x1
 645 0003 36       		.uleb128 .LLSDACSE1570-.LLSDACSB1570
 646              	.LLSDACSB1570:
 647 0004 6C       		.uleb128 .LEHB0-.LFB1570
 648 0005 8806     		.uleb128 .LEHE0-.LEHB0
 649 0007 EC09     		.uleb128 .L34-.LFB1570
 650 0009 00       		.uleb128 0
 651 000a F806     		.uleb128 .LEHB1-.LFB1570
 652 000c 04       		.uleb128 .LEHE1-.LEHB1
 653 000d E409     		.uleb128 .L36-.LFB1570
 654 000f 00       		.uleb128 0
 655 0010 8C07     		.uleb128 .LEHB2-.LFB1570
 656 0012 F801     		.uleb128 .LEHE2-.LEHB2
 657 0014 EC09     		.uleb128 .L34-.LFB1570
 658 0016 00       		.uleb128 0
 659 0017 8809     		.uleb128 .LEHB3-.LFB1570
 660 0019 04       		.uleb128 .LEHE3-.LEHB3
 661 001a D009     		.uleb128 .L38-.LFB1570
 662 001c 00       		.uleb128 0
 663 001d 9809     		.uleb128 .LEHB4-.LFB1570
 664 001f 04       		.uleb128 .LEHE4-.LEHB4
 665 0020 EC09     		.uleb128 .L34-.LFB1570
 666 0022 00       		.uleb128 0
 667 0023 A009     		.uleb128 .LEHB5-.LFB1570
 668 0025 04       		.uleb128 .LEHE5-.LEHB5
 669 0026 E809     		.uleb128 .L37-.LFB1570
 670 0028 00       		.uleb128 0
 671 0029 B009     		.uleb128 .LEHB6-.LFB1570
 672 002b 04       		.uleb128 .LEHE6-.LEHB6
 673 002c EC09     		.uleb128 .L34-.LFB1570
 674 002e 00       		.uleb128 0
 675 002f B809     		.uleb128 .LEHB7-.LFB1570
 676 0031 04       		.uleb128 .LEHE7-.LEHB7
 677 0032 F009     		.uleb128 .L35-.LFB1570
 678 0034 00       		.uleb128 0
 679 0035 E009     		.uleb128 .LEHB8-.LFB1570
 680 0037 04       		.uleb128 .LEHE8-.LEHB8
 681 0038 00       		.uleb128 0
 682 0039 00       		.uleb128 0
 683              	.LLSDACSE1570:
 684              		.section	".text"
 685              		.size	_Z17DownloadFileToMemPKcPPhPj, .-_Z17DownloadFileToMemPKcPPhPj
 686              		.align 2
 687              		.globl _Z18DownloadFileToPathPKcS0_b
 688              		.type	_Z18DownloadFileToPathPKcS0_b, @function
 689              	_Z18DownloadFileToPathPKcS0_b:
 690              	.LFB1571:
 691              		.loc 1 155 0
 692              		.cfi_startproc
 693              		.cfi_personality 0,__gxx_personality_v0
 694              		.cfi_lsda 0,.LLSDA1571
 695              	.LVL59:
 696 0504 9421FA90 		stwu 1,-1392(1)
 697              	.LCFI5:
 698              		.cfi_def_cfa_offset 1392
 699 0508 7C0802A6 		mflr 0
 700 050c 93A10564 		stw 29,1380(1)
 701              	.LBB1392:
 702              		.loc 1 156 0
 703 0510 7C7D1B79 		mr. 29,3
 704              		.cfi_offset 29, -12
 705              		.cfi_register 65, 0
 706              	.LBE1392:
 707              		.loc 1 155 0
 708 0514 9361055C 		stw 27,1372(1)
 709 0518 7CBB2B78 		mr 27,5
 710              		.cfi_offset 27, -20
 711 051c 93810560 		stw 28,1376(1)
 712 0520 7C9C2378 		mr 28,4
 713              		.cfi_offset 28, -16
 714 0524 93E1056C 		stw 31,1388(1)
 715 0528 7C3F0B78 		mr 31,1
 716              		.cfi_offset 31, -4
 717              	.LCFI6:
 718              		.cfi_def_cfa_register 31
 719 052c 90010574 		stw 0,1396(1)
 720 0530 91E1052C 		stw 15,1324(1)
 721 0534 92010530 		stw 16,1328(1)
 722 0538 92210534 		stw 17,1332(1)
 723 053c 92410538 		stw 18,1336(1)
 724 0540 9261053C 		stw 19,1340(1)
 725 0544 92810540 		stw 20,1344(1)
 726 0548 92A10544 		stw 21,1348(1)
 727 054c 92C10548 		stw 22,1352(1)
 728 0550 92E1054C 		stw 23,1356(1)
 729 0554 93010550 		stw 24,1360(1)
 730 0558 93210554 		stw 25,1364(1)
 731 055c 93410558 		stw 26,1368(1)
 732 0560 93C10568 		stw 30,1384(1)
 733              	.LBB1442:
 734              		.loc 1 156 0
 735 0564 4182043C 		beq- 0,.L64
 736              		.cfi_offset 30, -8
 737              		.cfi_offset 26, -24
 738              		.cfi_offset 25, -28
 739              		.cfi_offset 24, -32
 740              		.cfi_offset 23, -36
 741              		.cfi_offset 22, -40
 742              		.cfi_offset 21, -44
 743              		.cfi_offset 20, -48
 744              		.cfi_offset 19, -52
 745              		.cfi_offset 18, -56
 746              		.cfi_offset 17, -60
 747              		.cfi_offset 16, -64
 748              		.cfi_offset 15, -68
 749              		.cfi_offset 65, 4
 750              		.loc 1 156 0 is_stmt 0 discriminator 1
 751 0568 2F840000 		cmpwi 7,4,0
 752 056c 419E0434 		beq- 7,.L64
 753              	.LVL60:
 754              		.loc 1 164 0 is_stmt 1
 755 0570 3C800000 		lis 4,.LC0@ha
 756              	.LVL61:
 757 0574 38A00007 		li 5,7
 758              	.LVL62:
 759 0578 38840000 		la 4,.LC0@l(4)
 760              	.LEHB9:
 761 057c 48000001 		bl strncasecmp
 762              	.LVL63:
 763 0580 2F830000 		cmpwi 7,3,0
 764              		.loc 1 169 0
 765 0584 7FA3EB78 		mr 3,29
 766              		.loc 1 164 0
 767 0588 409E00C8 		bne- 7,.L67
 768              		.loc 1 169 0
 769 058c 48000001 		bl strlen
 770              	.LVL64:
 771 0590 81210000 		lwz 9,0(1)
 772 0594 3803001F 		addi 0,3,31
 773              		.loc 1 174 0
 774 0598 7FA4EB78 		mr 4,29
 775              		.loc 1 169 0
 776 059c 54000036 		rlwinm 0,0,0,0,27
 777 05a0 7C0000D0 		neg 0,0
 778 05a4 7D21016E 		stwux 9,1,0
 779 05a8 3BC10017 		addi 30,1,23
 780 05ac 57DE0036 		rlwinm 30,30,0,0,27
 781              	.LVL65:
 782              		.loc 1 174 0
 783 05b0 7FC3F378 		mr 3,30
 784              	.LVL66:
 785 05b4 48000001 		bl strcpy
 786              	.LVL67:
 787              	.L106:
 788              		.loc 1 176 0
 789 05b8 3B3E0007 		addi 25,30,7
 790 05bc 3880002F 		li 4,47
 791 05c0 7F23CB78 		mr 3,25
 792 05c4 48000001 		bl strchr
 793              	.LVL68:
 794              		.loc 1 178 0
 795 05c8 7C7D1B79 		mr. 29,3
 796              	.LVL69:
 797 05cc 418204D4 		beq- 0,.L138
 798              		.loc 1 184 0
 799 05d0 7FDEE850 		subf 30,30,29
 800              	.LVL70:
 801              		.loc 1 186 0
 802 05d4 375EFFF9 		addic. 26,30,-7
 803 05d8 408200BC 		bne- 0,.L69
 804              		.loc 1 188 0
 805 05dc 3C600000 		lis 3,.LC3@ha
 806              	.LVL71:
 807 05e0 38630030 		la 3,.LC3@l(3)
 808 05e4 48000001 		bl gettext
 809 05e8 4CC63182 		crxor 6,6,6
 810 05ec 48000001 		bl ShowError
 811              		.loc 1 189 0
 812 05f0 3BC0FFFD 		li 30,-3
 813              	.LVL72:
 814              	.L66:
 815              	.LBE1442:
 816              		.loc 1 305 0
 817 05f4 397F0570 		addi 11,31,1392
 818 05f8 7FC3F378 		mr 3,30
 819 05fc 800B0004 		lwz 0,4(11)
 820 0600 81EBFFBC 		lwz 15,-68(11)
 821 0604 7C0803A6 		mtlr 0
 822 0608 820BFFC0 		lwz 16,-64(11)
 823 060c 822BFFC4 		lwz 17,-60(11)
 824 0610 824BFFC8 		lwz 18,-56(11)
 825 0614 826BFFCC 		lwz 19,-52(11)
 826 0618 828BFFD0 		lwz 20,-48(11)
 827 061c 82ABFFD4 		lwz 21,-44(11)
 828 0620 82CBFFD8 		lwz 22,-40(11)
 829 0624 82EBFFDC 		lwz 23,-36(11)
 830 0628 830BFFE0 		lwz 24,-32(11)
 831 062c 832BFFE4 		lwz 25,-28(11)
 832 0630 834BFFE8 		lwz 26,-24(11)
 833 0634 836BFFEC 		lwz 27,-20(11)
 834 0638 838BFFF0 		lwz 28,-16(11)
 835 063c 83ABFFF4 		lwz 29,-12(11)
 836 0640 83CBFFF8 		lwz 30,-8(11)
 837 0644 83EBFFFC 		lwz 31,-4(11)
 838              		.cfi_remember_state
 839              	.LCFI7:
 840              		.cfi_def_cfa 11, 0
 841 0648 7D615B78 		mr 1,11
 842              	.LCFI8:
 843              		.cfi_def_cfa_register 1
 844              		.cfi_restore 31
 845              		.cfi_restore 30
 846              		.cfi_restore 29
 847              		.cfi_restore 28
 848              		.cfi_restore 27
 849              		.cfi_restore 26
 850              		.cfi_restore 25
 851              		.cfi_restore 24
 852              		.cfi_restore 23
 853              		.cfi_restore 22
 854              		.cfi_restore 21
 855              		.cfi_restore 20
 856              		.cfi_restore 19
 857              		.cfi_restore 18
 858              		.cfi_restore 17
 859              		.cfi_restore 16
 860              		.cfi_restore 15
 861 064c 4E800020 		blr
 862              	.LVL73:
 863              	.L67:
 864              	.LCFI9:
 865              		.cfi_restore_state
 866              	.LBB1443:
 867              		.loc 1 169 0
 868 0650 48000001 		bl strlen
 869              	.LVL74:
 870 0654 81210000 		lwz 9,0(1)
 871 0658 38030026 		addi 0,3,38
 872 065c 7C641B78 		mr 4,3
 873              	.LVL75:
 874 0660 54000036 		rlwinm 0,0,0,0,27
 875              		.loc 1 172 0
 876 0664 3CA00000 		lis 5,.LC21@ha
 877              		.loc 1 169 0
 878 0668 7C0000D0 		neg 0,0
 879              		.loc 1 172 0
 880 066c 38840008 		addi 4,4,8
 881              		.loc 1 169 0
 882 0670 7D21016E 		stwux 9,1,0
 883              		.loc 1 172 0
 884 0674 38A501A4 		la 5,.LC21@l(5)
 885 0678 7FA6EB78 		mr 6,29
 886              		.loc 1 169 0
 887 067c 3BC10017 		addi 30,1,23
 888 0680 57DE0036 		rlwinm 30,30,0,0,27
 889              	.LVL76:
 890              		.loc 1 172 0
 891 0684 7FC3F378 		mr 3,30
 892              	.LVL77:
 893 0688 4CC63182 		crxor 6,6,6
 894 068c 48000001 		bl snprintf
 895              	.LVL78:
 896 0690 4BFFFF28 		b .L106
 897              	.LVL79:
 898              	.L69:
 899              		.loc 1 192 0
 900 0694 3BDE0018 		addi 30,30,24
 901 0698 80010000 		lwz 0,0(1)
 902 069c 57DE0036 		rlwinm 30,30,0,0,27
 903              		.loc 1 193 0
 904 06a0 7F24CB78 		mr 4,25
 905              		.loc 1 192 0
 906 06a4 7FDE00D0 		neg 30,30
 907              		.loc 1 193 0
 908 06a8 7F45D378 		mr 5,26
 909              		.loc 1 192 0
 910 06ac 7C01F16E 		stwux 0,1,30
 911 06b0 3BC10017 		addi 30,1,23
 912 06b4 57DE0036 		rlwinm 30,30,0,0,27
 913              	.LVL80:
 914              		.loc 1 193 0
 915 06b8 7FC3F378 		mr 3,30
 916              	.LVL81:
 917 06bc 48000001 		bl strncpy
 918              		.loc 1 194 0
 919 06c0 38000000 		li 0,0
 920 06c4 7C1ED1AE 		stbx 0,30,26
 921              		.loc 1 196 0
 922 06c8 7FC3F378 		mr 3,30
 923 06cc 48000001 		bl GetConnection
 924              	.LVL82:
 925              		.loc 1 198 0
 926 06d0 7C791B79 		mr. 25,3
 927              	.LVL83:
 928 06d4 4180036C 		blt- 0,.L139
 929              	.LVL84:
 930              		.loc 1 206 0
 931 06d8 3C800000 		lis 4,.LC5@ha
 932 06dc 7FA5EB78 		mr 5,29
 933 06e0 38840068 		la 4,.LC5@l(4)
 934 06e4 387F0120 		addi 3,31,288
 935              	.LVL85:
 936 06e8 4CC63182 		crxor 6,6,6
 937 06ec 48000001 		bl sprintf
 938 06f0 381F0120 		addi 0,31,288
 939 06f4 7FA01A14 		add 29,0,3
 940              	.LVL86:
 941              		.loc 1 207 0
 942 06f8 3C800000 		lis 4,.LC6@ha
 943 06fc 7FC5F378 		mr 5,30
 944 0700 3884007C 		la 4,.LC6@l(4)
 945 0704 7FA3EB78 		mr 3,29
 946 0708 4CC63182 		crxor 6,6,6
 947 070c 48000001 		bl sprintf
 948              		.loc 1 208 0
 949 0710 3C800000 		lis 4,.LC7@ha
 950              		.loc 1 207 0
 951 0714 7FBD1A14 		add 29,29,3
 952              	.LVL87:
 953              		.loc 1 208 0
 954 0718 7FC5F378 		mr 5,30
 955 071c 38840088 		la 4,.LC7@l(4)
 956 0720 7FA3EB78 		mr 3,29
 957 0724 4CC63182 		crxor 6,6,6
 958 0728 48000001 		bl sprintf
 959              		.loc 1 209 0
 960 072c 3CA00000 		lis 5,.LC8@ha
 961 0730 83050098 		lwz 24,.LC8@l(5)
 962              		.loc 1 210 0
 963 0734 3CC00000 		lis 6,.LC9@ha
 964              		.loc 1 211 0
 965 0738 3CE00000 		lis 7,.LC10@ha
 966              		.loc 1 209 0
 967 073c 39650098 		la 11,.LC8@l(5)
 968              		.loc 1 211 0
 969 0740 394700C8 		la 10,.LC10@l(7)
 970              		.loc 1 210 0
 971 0744 390600B4 		la 8,.LC9@l(6)
 972 0748 834600B4 		lwz 26,.LC9@l(6)
 973              	.LVL88:
 974              		.loc 1 208 0
 975 074c 7D3D1A14 		add 9,29,3
 976              	.LVL89:
 977              		.loc 1 210 0
 978 0750 8188000C 		lwz 12,12(8)
 979              		.loc 1 211 0
 980 0754 83CA0004 		lwz 30,4(10)
 981              	.LVL90:
 982 0758 808A0008 		lwz 4,8(10)
 983 075c 80CA000C 		lwz 6,12(10)
 984 0760 800A0010 		lwz 0,16(10)
 985              		.loc 1 209 0
 986 0764 81EB0004 		lwz 15,4(11)
 987 0768 820B0008 		lwz 16,8(11)
 988 076c 822B000C 		lwz 17,12(11)
 989 0770 824B0010 		lwz 18,16(11)
 990 0774 826B0014 		lwz 19,20(11)
 991              		.loc 1 210 0
 992 0778 82880004 		lwz 20,4(8)
 993 077c 82A80008 		lwz 21,8(8)
 994 0780 A2C80010 		lhz 22,16(8)
 995              		.loc 1 211 0
 996 0784 82E700C8 		lwz 23,.LC10@l(7)
 997              		.loc 1 212 0
 998 0788 3CE00000 		lis 7,.LC11@ha
 999              		.loc 1 209 0
 1000 078c 7F1D192E 		stwx 24,29,3
 1001              		.loc 1 212 0
 1002 0790 38A700E4 		la 5,.LC11@l(7)
 1003              		.loc 1 215 0
 1004 0794 387F0020 		addi 3,31,32
 1005              		.loc 1 211 0
 1006 0798 830A0014 		lwz 24,20(10)
 1007              		.loc 1 209 0
 1008 079c 91E90004 		stw 15,4(9)
 1009 07a0 92090008 		stw 16,8(9)
 1010 07a4 9229000C 		stw 17,12(9)
 1011 07a8 92490010 		stw 18,16(9)
 1012 07ac 92690014 		stw 19,20(9)
 1013              	.LVL91:
 1014              		.loc 1 210 0
 1015 07b0 93490018 		stw 26,24(9)
 1016              		.loc 1 211 0
 1017 07b4 A34A0018 		lhz 26,24(10)
 1018 07b8 93C9002E 		stw 30,46(9)
 1019 07bc 90890032 		stw 4,50(9)
 1020              		.loc 1 215 0
 1021 07c0 38800000 		li 4,0
 1022              		.loc 1 211 0
 1023 07c4 90C90036 		stw 6,54(9)
 1024              		.loc 1 210 0
 1025 07c8 9289001C 		stw 20,28(9)
 1026 07cc 92A90020 		stw 21,32(9)
 1027 07d0 91890024 		stw 12,36(9)
 1028 07d4 B2C90028 		sth 22,40(9)
 1029              	.LVL92:
 1030              		.loc 1 211 0
 1031 07d8 92E9002A 		stw 23,42(9)
 1032 07dc 9009003A 		stw 0,58(9)
 1033              		.loc 1 212 0
 1034 07e0 83A700E4 		lwz 29,.LC11@l(7)
 1035 07e4 83C50004 		lwz 30,4(5)
 1036 07e8 80C50008 		lwz 6,8(5)
 1037 07ec 80E5000C 		lwz 7,12(5)
 1038 07f0 81050010 		lwz 8,16(5)
 1039 07f4 A0050014 		lhz 0,20(5)
 1040              		.loc 1 215 0
 1041 07f8 38A000FF 		li 5,255
 1042              		.loc 1 211 0
 1043 07fc B3490042 		sth 26,66(9)
 1044              	.LVL93:
 1045 0800 9309003E 		stw 24,62(9)
 1046              		.loc 1 212 0
 1047 0804 93A90043 		stw 29,67(9)
 1048 0808 93C90047 		stw 30,71(9)
 1049 080c 90C9004B 		stw 6,75(9)
 1050 0810 90E9004F 		stw 7,79(9)
 1051 0814 91090053 		stw 8,83(9)
 1052 0818 B0090057 		sth 0,87(9)
 1053              	.LVL94:
 1054              		.loc 1 215 0
 1055 081c 48000001 		bl memset
 1056              	.LVL95:
 1057              		.loc 1 217 0
 1058 0820 7F23CB78 		mr 3,25
 1059 0824 389F0120 		addi 4,31,288
 1060 0828 38BF0020 		addi 5,31,32
 1061 082c 48000001 		bl _Z15network_requestiPKcPc
 1062              	.LEHE9:
 1063              	.LVL96:
 1064              		.loc 1 219 0
 1065 0830 7C7D1B79 		mr. 29,3
 1066 0834 40810188 		ble- 0,.L140
 1067              	.LVL97:
 1068              		.loc 1 228 0
 1069 0838 38601000 		li 3,4096
 1070              	.LVL98:
 1071 083c 48000001 		bl malloc
 1072              	.LVL99:
 1073              		.loc 1 229 0
 1074 0840 7C7A1B79 		mr. 26,3
 1075 0844 418202E0 		beq- 0,.L141
 1076              		.loc 1 236 0
 1077 0848 2F9B0000 		cmpwi 7,27,0
 1078 084c 419E0210 		beq- 7,.L73
 1079              		.loc 1 238 0
 1080 0850 7F83E378 		mr 3,28
 1081              	.LVL100:
 1082 0854 48000001 		bl strlen
 1083 0858 7D3C1A14 		add 9,28,3
 1084 085c 8809FFFF 		lbz 0,-1(9)
 1085 0860 2F80002F 		cmpwi 7,0,47
 1086 0864 419E000C 		beq- 7,.L74
 1087              		.loc 1 239 0
 1088 0868 38002F00 		li 0,12032
 1089 086c 7C1C1B2E 		sthx 0,28,3
 1090              	.L74:
 1091              		.loc 1 241 0
 1092 0870 387F000C 		addi 3,31,12
 1093 0874 7F84E378 		mr 4,28
 1094 0878 38BF0009 		addi 5,31,9
 1095              	.LEHB10:
 1096 087c 48000001 		bl _ZNSsC1EPKcRKSaIcE
 1097              	.LEHE10:
 1098              		.loc 1 241 0 is_stmt 0 discriminator 1
 1099 0880 387F000C 		addi 3,31,12
 1100              	.LEHB11:
 1101 0884 48000001 		bl _Z15CreateSubfolderSs
 1102              	.LEHE11:
 1103              	.LVL101:
 1104              	.LBB1393:
 1105              	.LBB1394:
 1106              	.LBB1395:
 1107              	.LBB1396:
 1108              	.LBB1397:
 1109              	.LBB1398:
 1110              		.file 3 "d:\\devkitpro\\devkitppc\\bin\\../lib/gcc/powerpc-eabi/4.6.3/../../../../powerpc-eabi/inc
 1111              		.loc 3 288 0 is_stmt 1
 1112 0888 813F000C 		lwz 9,12(31)
 1113              	.LBE1398:
 1114              	.LBE1397:
 1115              	.LBE1396:
 1116              	.LBB1399:
 1117              	.LBB1400:
 1118              		.loc 3 235 0
 1119 088c 3D600000 		lis 11,_ZNSs4_Rep20_S_empty_rep_storageE@ha
 1120 0890 380B0000 		la 0,_ZNSs4_Rep20_S_empty_rep_storageE@l(11)
 1121              	.LBE1400:
 1122              	.LBE1399:
 1123              		.loc 3 534 0
 1124 0894 3869FFF4 		addi 3,9,-12
 1125              	.LVL102:
 1126              	.LBB1409:
 1127              	.LBB1407:
 1128              		.loc 3 235 0
 1129 0898 7F830000 		cmpw 7,3,0
 1130 089c 409E02AC 		bne- 7,.L142
 1131              	.LVL103:
 1132              	.L82:
 1133              	.LBE1407:
 1134              	.LBE1409:
 1135              	.LBE1395:
 1136              	.LBE1394:
 1137              	.LBE1393:
 1138              		.loc 1 243 0 discriminator 1
 1139 08a0 7F83E378 		mr 3,28
 1140 08a4 389F0020 		addi 4,31,32
 1141 08a8 48000001 		bl strcat
 1142              	.LVL104:
 1143              	.L83:
 1144              		.loc 1 255 0
 1145 08ac 3C800000 		lis 4,.LC19@ha
 1146 08b0 7F83E378 		mr 3,28
 1147 08b4 38840180 		la 4,.LC19@l(4)
 1148              	.LEHB12:
 1149 08b8 48000001 		bl fopen
 1150              	.LVL105:
 1151              		.loc 1 256 0
 1152 08bc 7C771B79 		mr. 23,3
 1153 08c0 418201F0 		beq- 0,.L143
 1154              	.LBB1413:
 1155              	.LBB1414:
 1156              		.loc 2 26 0
 1157 08c4 3EC00000 		lis 22,_ZN14ProgressWindow8instanceE@ha
 1158 08c8 83D60000 		lwz 30,_ZN14ProgressWindow8instanceE@l(22)
 1159 08cc 2F9E0000 		cmpwi 7,30,0
 1160 08d0 419E023C 		beq- 7,.L144
 1161              	.LVL106:
 1162              	.L86:
 1163              	.LBE1414:
 1164              	.LBE1413:
 1165              		.loc 1 264 0
 1166 08d4 3C600000 		lis 3,.LC14@ha
 1167 08d8 38630124 		la 3,.LC14@l(3)
 1168 08dc 48000001 		bl gettext
 1169 08e0 7C641B78 		mr 4,3
 1170 08e4 38A00000 		li 5,0
 1171 08e8 7FC3F378 		mr 3,30
 1172 08ec 48000001 		bl _ZN14ProgressWindow13StartProgressEPKcS1_
 1173 08f0 3F000000 		lis 24,_ZN14ProgressWindow8instanceE@ha
 1174 08f4 3BC00000 		li 30,0
 1175 08f8 3B601000 		li 27,4096
 1176 08fc 3B180000 		la 24,_ZN14ProgressWindow8instanceE@l(24)
 1177 0900 4800007C 		b .L96
 1178              	.LVL107:
 1179              	.L90:
 1180              	.LBB1417:
 1181              		.loc 1 276 0
 1182 0904 7FC9FE70 		srawi 9,30,31
 1183 0908 7FA0FE70 		srawi 0,29,31
 1184 090c 7F83E378 		mr 3,28
 1185 0910 389F0018 		addi 4,31,24
 1186 0914 38BF0010 		addi 5,31,16
 1187 0918 38DF0020 		addi 6,31,32
 1188 091c 93DF001C 		stw 30,28(31)
 1189 0920 913F0018 		stw 9,24(31)
 1190 0924 93BF0014 		stw 29,20(31)
 1191 0928 901F0010 		stw 0,16(31)
 1192 092c 48000001 		bl _ZN14ProgressWindow12ShowProgressERKyS1_PKc
 1193              		.loc 1 278 0
 1194 0930 7C1EE850 		subf 0,30,29
 1195              	.LBB1418:
 1196              	.LBB1419:
 1197              		.loc 2 26 0
 1198 0934 7F9B0000 		cmpw 7,27,0
 1199 0938 409D0008 		ble- 7,.L93
 1200 093c 7C1B0378 		mr 27,0
 1201              	.L93:
 1202              	.LVL108:
 1203              	.LBE1419:
 1204              	.LBE1418:
 1205              		.loc 1 281 0
 1206 0940 7F23CB78 		mr 3,25
 1207 0944 7F44D378 		mr 4,26
 1208 0948 7F65DB78 		mr 5,27
 1209 094c 48000001 		bl _Z12network_readiPhj
 1210              	.LVL109:
 1211              		.loc 1 283 0
 1212 0950 7C7C1B79 		mr. 28,3
 1213 0954 41800090 		blt- 0,.L145
 1214              		.loc 1 289 0
 1215 0958 418200A4 		beq- 0,.L95
 1216              		.loc 1 292 0
 1217 095c 7F43D378 		mr 3,26
 1218              	.LVL110:
 1219 0960 38800001 		li 4,1
 1220 0964 7F85E378 		mr 5,28
 1221 0968 7EE6BB78 		mr 6,23
 1222 096c 48000001 		bl fwrite
 1223              		.loc 1 294 0
 1224 0970 7FDEE214 		add 30,30,28
 1225              	.LVL111:
 1226              	.LBE1417:
 1227              		.loc 1 268 0
 1228 0974 7F9DF000 		cmpw 7,29,30
 1229 0978 409D0084 		ble- 7,.L95
 1230              	.LVL112:
 1231              	.L96:
 1232              	.LBB1424:
 1233              	.LBB1422:
 1234              	.LBB1420:
 1235              		.loc 2 26 0
 1236 097c 83980000 		lwz 28,0(24)
 1237 0980 2F9C0000 		cmpwi 7,28,0
 1238 0984 409EFF80 		bne+ 7,.L90
 1239 0988 386001B8 		li 3,440
 1240 098c 48000001 		bl _Znwj
 1241              	.LEHE12:
 1242 0990 7C7C1B78 		mr 28,3
 1243              	.LEHB13:
 1244 0994 48000001 		bl _ZN14ProgressWindowC1Ev
 1245              	.LEHE13:
 1246 0998 93980000 		stw 28,0(24)
 1247 099c 4BFFFF68 		b .L90
 1248              	.LVL113:
 1249              	.L64:
 1250              	.LBE1420:
 1251              	.LBE1422:
 1252              	.LBE1424:
 1253              		.loc 1 158 0
 1254 09a0 3C600000 		lis 3,.LC16@ha
 1255              	.LVL114:
 1256 09a4 38630148 		la 3,.LC16@l(3)
 1257              	.LEHB14:
 1258 09a8 48000001 		bl gettext
 1259              	.LVL115:
 1260              	.L137:
 1261              		.loc 1 180 0
 1262 09ac 4CC63182 		crxor 6,6,6
 1263 09b0 48000001 		bl ShowError
 1264              		.loc 1 181 0
 1265 09b4 3BC0FFFE 		li 30,-2
 1266 09b8 4BFFFC3C 		b .L66
 1267              	.LVL116:
 1268              	.L140:
 1269              		.loc 1 221 0
 1270 09bc 7F23CB78 		mr 3,25
 1271              	.LVL117:
 1272 09c0 48000001 		bl net_close
 1273              		.loc 1 222 0
 1274 09c4 3C600000 		lis 3,.LC17@ha
 1275 09c8 38630164 		la 3,.LC17@l(3)
 1276 09cc 48000001 		bl gettext
 1277 09d0 7FA4EB78 		mr 4,29
 1278 09d4 4CC63182 		crxor 6,6,6
 1279 09d8 48000001 		bl ShowError
 1280              		.loc 1 223 0
 1281 09dc 3BC0FFFB 		li 30,-5
 1282 09e0 4BFFFC14 		b .L66
 1283              	.LVL118:
 1284              	.L145:
 1285              	.LBB1425:
 1286              		.loc 1 286 0
 1287 09e4 3C600000 		lis 3,.LC15@ha
 1288              	.LVL119:
 1289 09e8 38630138 		la 3,.LC15@l(3)
 1290 09ec 48000001 		bl gettext
 1291 09f0 4CC63182 		crxor 6,6,6
 1292 09f4 48000001 		bl ShowError
 1293              		.loc 1 285 0
 1294 09f8 3BC0FFF8 		li 30,-8
 1295              	.LVL120:
 1296              	.L95:
 1297              	.LBE1425:
 1298              		.loc 1 297 0
 1299 09fc 7F43D378 		mr 3,26
 1300 0a00 48000001 		bl free
 1301              		.loc 1 298 0
 1302 0a04 7F23CB78 		mr 3,25
 1303 0a08 48000001 		bl net_close
 1304              		.loc 1 299 0
 1305 0a0c 7EE3BB78 		mr 3,23
 1306 0a10 48000001 		bl fclose
 1307              	.LBB1426:
 1308              	.LBB1427:
 1309              		.loc 2 26 0
 1310 0a14 83B60000 		lwz 29,_ZN14ProgressWindow8instanceE@l(22)
 1311              	.LVL121:
 1312 0a18 2F9D0000 		cmpwi 7,29,0
 1313 0a1c 419E00D8 		beq- 7,.L146
 1314              	.L97:
 1315              	.LBE1427:
 1316              	.LBE1426:
 1317              		.loc 1 301 0
 1318 0a20 7FA3EB78 		mr 3,29
 1319 0a24 48000001 		bl _ZN14ProgressWindow14FinishProgressEv
 1320              	.LBB1429:
 1321              	.LBB1430:
 1322              		.loc 2 26 0
 1323 0a28 83B60000 		lwz 29,_ZN14ProgressWindow8instanceE@l(22)
 1324 0a2c 2F9D0000 		cmpwi 7,29,0
 1325 0a30 419E00AC 		beq- 7,.L147
 1326              	.L100:
 1327              	.LBE1430:
 1328              	.LBE1429:
 1329              		.loc 1 302 0
 1330 0a34 7FA3EB78 		mr 3,29
 1331 0a38 48000001 		bl _ZN14ProgressWindow12StopProgressEv
 1332 0a3c 4BFFFBB8 		b .L66
 1333              	.LVL122:
 1334              	.L139:
 1335              		.loc 1 200 0
 1336 0a40 3C600000 		lis 3,.LC4@ha
 1337 0a44 38630044 		la 3,.LC4@l(3)
 1338 0a48 48000001 		bl gettext
 1339 0a4c 4CC63182 		crxor 6,6,6
 1340 0a50 48000001 		bl ShowError
 1341              		.loc 1 201 0
 1342 0a54 3BC0FFFC 		li 30,-4
 1343              	.LVL123:
 1344 0a58 4BFFFB9C 		b .L66
 1345              	.LVL124:
 1346              	.L73:
 1347              	.LBB1433:
 1348              		.loc 1 246 0
 1349 0a5c 881F0020 		lbz 0,32(31)
 1350 0a60 2F800000 		cmpwi 7,0,0
 1351 0a64 40BEFE48 		bne- 7,.L83
 1352              	.LBB1434:
 1353              		.loc 1 248 0
 1354 0a68 7F83E378 		mr 3,28
 1355              	.LVL125:
 1356 0a6c 3880002F 		li 4,47
 1357 0a70 48000001 		bl strrchr
 1358              	.LVL126:
 1359              		.loc 1 249 0
 1360 0a74 7F86E378 		mr 6,28
 1361 0a78 2C030000 		cmpwi 0,3,0
 1362 0a7c 41820008 		beq- 0,.L84
 1363              		.loc 1 249 0 is_stmt 0 discriminator 1
 1364 0a80 38C30001 		addi 6,3,1
 1365              	.LVL127:
 1366              	.L84:
 1367              		.loc 1 252 0 is_stmt 1
 1368 0a84 3CA00000 		lis 5,.LC18@ha
 1369 0a88 387F0020 		addi 3,31,32
 1370 0a8c 388000FF 		li 4,255
 1371 0a90 38A5017C 		la 5,.LC18@l(5)
 1372 0a94 4CC63182 		crxor 6,6,6
 1373 0a98 48000001 		bl snprintf
 1374              	.LVL128:
 1375 0a9c 4BFFFE10 		b .L83
 1376              	.LVL129:
 1377              	.L138:
 1378              	.LBE1434:
 1379              	.LBE1433:
 1380              		.loc 1 180 0
 1381 0aa0 3C600000 		lis 3,.LC2@ha
 1382              	.LVL130:
 1383 0aa4 38630018 		la 3,.LC2@l(3)
 1384 0aa8 48000001 		bl gettext
 1385 0aac 4BFFFF00 		b .L137
 1386              	.LVL131:
 1387              	.L143:
 1388              		.loc 1 258 0
 1389 0ab0 7F23CB78 		mr 3,25
 1390              	.LVL132:
 1391 0ab4 48000001 		bl net_close
 1392              		.loc 1 259 0
 1393 0ab8 7F43D378 		mr 3,26
 1394 0abc 48000001 		bl free
 1395              		.loc 1 260 0
 1396 0ac0 3C600000 		lis 3,.LC20@ha
 1397 0ac4 38630184 		la 3,.LC20@l(3)
 1398 0ac8 48000001 		bl gettext
 1399 0acc 4CC63182 		crxor 6,6,6
 1400 0ad0 48000001 		bl ShowError
 1401              		.loc 1 261 0
 1402 0ad4 3BC0FFF9 		li 30,-7
 1403 0ad8 4BFFFB1C 		b .L66
 1404              	.LVL133:
 1405              	.L147:
 1406              	.LBB1435:
 1407              	.LBB1431:
 1408              		.loc 2 26 0
 1409 0adc 386001B8 		li 3,440
 1410 0ae0 48000001 		bl _Znwj
 1411              	.LEHE14:
 1412 0ae4 7C7D1B78 		mr 29,3
 1413              	.LEHB15:
 1414 0ae8 48000001 		bl _ZN14ProgressWindowC1Ev
 1415              	.LEHE15:
 1416 0aec 93B60000 		stw 29,_ZN14ProgressWindow8instanceE@l(22)
 1417 0af0 4BFFFF44 		b .L100
 1418              	.L146:
 1419              	.LBE1431:
 1420              	.LBE1435:
 1421              	.LBB1436:
 1422              	.LBB1428:
 1423 0af4 386001B8 		li 3,440
 1424              	.LEHB16:
 1425 0af8 48000001 		bl _Znwj
 1426              	.LEHE16:
 1427 0afc 7C7D1B78 		mr 29,3
 1428              	.LEHB17:
 1429 0b00 48000001 		bl _ZN14ProgressWindowC1Ev
 1430              	.LEHE17:
 1431 0b04 93B60000 		stw 29,_ZN14ProgressWindow8instanceE@l(22)
 1432 0b08 4BFFFF18 		b .L97
 1433              	.LVL134:
 1434              	.L144:
 1435              	.LBE1428:
 1436              	.LBE1436:
 1437              	.LBB1437:
 1438              	.LBB1415:
 1439 0b0c 386001B8 		li 3,440
 1440              	.LEHB18:
 1441 0b10 48000001 		bl _Znwj
 1442              	.LEHE18:
 1443 0b14 7C7E1B78 		mr 30,3
 1444              	.LEHB19:
 1445 0b18 48000001 		bl _ZN14ProgressWindowC1Ev
 1446              	.LEHE19:
 1447 0b1c 93D60000 		stw 30,_ZN14ProgressWindow8instanceE@l(22)
 1448 0b20 4BFFFDB4 		b .L86
 1449              	.LVL135:
 1450              	.L141:
 1451              	.LBE1415:
 1452              	.LBE1437:
 1453              		.loc 1 231 0
 1454 0b24 7F23CB78 		mr 3,25
 1455              	.LEHB20:
 1456 0b28 48000001 		bl net_close
 1457              		.loc 1 232 0
 1458 0b2c 3C600000 		lis 3,.LC13@ha
 1459 0b30 38630110 		la 3,.LC13@l(3)
 1460 0b34 48000001 		bl gettext
 1461 0b38 4CC63182 		crxor 6,6,6
 1462 0b3c 48000001 		bl ShowError
 1463              	.LEHE20:
 1464              		.loc 1 233 0
 1465 0b40 3BC0FFFA 		li 30,-6
 1466 0b44 4BFFFAB0 		b .L66
 1467              	.LVL136:
 1468              	.L142:
 1469              	.LBB1438:
 1470              	.LBB1412:
 1471              	.LBB1411:
 1472              	.LBB1410:
 1473              	.LBB1408:
 1474              	.LBB1401:
 1475              	.LBB1402:
 1476              	.LBB1403:
 1477              		.file 4 "d:\\devkitpro\\devkitppc\\bin\\../lib/gcc/powerpc-eabi/4.6.3/../../../../powerpc-eabi/inc
 1478              		.loc 4 66 0
 1479 0b48 8169FFFC 		lwz 11,-4(9)
 1480              	.LVL137:
 1481              	.LBE1403:
 1482              	.LBE1402:
 1483              	.LBE1401:
 1484              		.loc 3 240 0
 1485 0b4c 2F8B0000 		cmpwi 7,11,0
 1486              	.LBB1406:
 1487              	.LBB1405:
 1488              	.LBB1404:
 1489              		.loc 4 67 0
 1490 0b50 396BFFFF 		addi 11,11,-1
 1491 0b54 9169FFFC 		stw 11,-4(9)
 1492              	.LBE1404:
 1493              	.LBE1405:
 1494              	.LBE1406:
 1495              		.loc 3 240 0
 1496 0b58 419DFD48 		bgt+ 7,.L82
 1497              		.loc 3 244 0
 1498 0b5c 389F0008 		addi 4,31,8
 1499 0b60 48000001 		bl _ZNSs4_Rep10_M_destroyERKSaIcE
 1500              	.LVL138:
 1501 0b64 4BFFFD3C 		b .L82
 1502              	.LVL139:
 1503              	.L122:
 1504              	.L135:
 1505 0b68 7C7E1B78 		mr 30,3
 1506              	.LVL140:
 1507              	.LBE1408:
 1508              	.LBE1410:
 1509              	.LBE1411:
 1510              	.LBE1412:
 1511              	.LBE1438:
 1512              	.LBB1439:
 1513              	.LBB1432:
 1514              		.loc 2 26 0
 1515 0b6c 7FA3EB78 		mr 3,29
 1516 0b70 48000001 		bl _ZdlPv
 1517 0b74 7FC3F378 		mr 3,30
 1518              	.LVL141:
 1519              	.L89:
 1520              	.LEHB21:
 1521              	.LBE1432:
 1522              	.LBE1439:
 1523              		.loc 1 241 0
 1524 0b78 48000001 		bl _Unwind_Resume
 1525              	.LEHE21:
 1526              	.LVL142:
 1527              	.L120:
 1528 0b7c 7C7E1B78 		mr 30,3
 1529              	.LBB1440:
 1530              	.LBB1423:
 1531              	.LBB1421:
 1532              		.loc 2 26 0
 1533 0b80 7F83E378 		mr 3,28
 1534 0b84 48000001 		bl _ZdlPv
 1535 0b88 7FC3F378 		mr 3,30
 1536 0b8c 4BFFFFEC 		b .L89
 1537              	.LVL143:
 1538              	.L121:
 1539 0b90 4BFFFFD8 		b .L135
 1540              	.LVL144:
 1541              	.L118:
 1542 0b94 7C7E1B78 		mr 30,3
 1543              	.LBE1421:
 1544              	.LBE1423:
 1545              	.LBE1440:
 1546              		.loc 1 241 0
 1547 0b98 387F000C 		addi 3,31,12
 1548 0b9c 48000001 		bl _ZNSsD1Ev
 1549 0ba0 7FC3F378 		mr 3,30
 1550 0ba4 4BFFFFD4 		b .L89
 1551              	.L117:
 1552 0ba8 4BFFFFD0 		b .L89
 1553              	.LVL145:
 1554              	.L116:
 1555 0bac 4BFFFFCC 		b .L89
 1556              	.LVL146:
 1557              	.L119:
 1558 0bb0 7C7D1B78 		mr 29,3
 1559              	.LVL147:
 1560              	.LBB1441:
 1561              	.LBB1416:
 1562              		.loc 2 26 0
 1563 0bb4 7FC3F378 		mr 3,30
 1564 0bb8 48000001 		bl _ZdlPv
 1565 0bbc 7FA3EB78 		mr 3,29
 1566 0bc0 4BFFFFB8 		b .L89
 1567              	.LBE1416:
 1568              	.LBE1441:
 1569              	.LBE1443:
 1570              		.cfi_endproc
 1571              	.LFE1571:
 1572              		.section	.gcc_except_table
 1573              	.LLSDA1571:
 1574 003a FF       		.byte	0xff
 1575 003b FF       		.byte	0xff
 1576 003c 01       		.byte	0x1
 1577 003d 4F       		.uleb128 .LLSDACSE1571-.LLSDACSB1571
 1578              	.LLSDACSB1571:
 1579 003e 78       		.uleb128 .LEHB9-.LFB1571
 1580 003f B405     		.uleb128 .LEHE9-.LEHB9
 1581 0041 A80D     		.uleb128 .L116-.LFB1571
 1582 0043 00       		.uleb128 0
 1583 0044 F806     		.uleb128 .LEHB10-.LFB1571
 1584 0046 04       		.uleb128 .LEHE10-.LEHB10
 1585 0047 A40D     		.uleb128 .L117-.LFB1571
 1586 0049 00       		.uleb128 0
 1587 004a 8007     		.uleb128 .LEHB11-.LFB1571
 1588 004c 04       		.uleb128 .LEHE11-.LEHB11
 1589 004d 900D     		.uleb128 .L118-.LFB1571
 1590 004f 00       		.uleb128 0
 1591 0050 B407     		.uleb128 .LEHB12-.LFB1571
 1592 0052 D801     		.uleb128 .LEHE12-.LEHB12
 1593 0054 A80D     		.uleb128 .L116-.LFB1571
 1594 0056 00       		.uleb128 0
 1595 0057 9009     		.uleb128 .LEHB13-.LFB1571
 1596 0059 04       		.uleb128 .LEHE13-.LEHB13
 1597 005a F80C     		.uleb128 .L120-.LFB1571
 1598 005c 00       		.uleb128 0
 1599 005d A409     		.uleb128 .LEHB14-.LFB1571
 1600 005f BC02     		.uleb128 .LEHE14-.LEHB14
 1601 0061 A80D     		.uleb128 .L116-.LFB1571
 1602 0063 00       		.uleb128 0
 1603 0064 E40B     		.uleb128 .LEHB15-.LFB1571
 1604 0066 04       		.uleb128 .LEHE15-.LEHB15
 1605 0067 E40C     		.uleb128 .L122-.LFB1571
 1606 0069 00       		.uleb128 0
 1607 006a F40B     		.uleb128 .LEHB16-.LFB1571
 1608 006c 04       		.uleb128 .LEHE16-.LEHB16
 1609 006d A80D     		.uleb128 .L116-.LFB1571
 1610 006f 00       		.uleb128 0
 1611 0070 FC0B     		.uleb128 .LEHB17-.LFB1571
 1612 0072 04       		.uleb128 .LEHE17-.LEHB17
 1613 0073 8C0D     		.uleb128 .L121-.LFB1571
 1614 0075 00       		.uleb128 0
 1615 0076 8C0C     		.uleb128 .LEHB18-.LFB1571
 1616 0078 04       		.uleb128 .LEHE18-.LEHB18
 1617 0079 A80D     		.uleb128 .L116-.LFB1571
 1618 007b 00       		.uleb128 0
 1619 007c 940C     		.uleb128 .LEHB19-.LFB1571
 1620 007e 04       		.uleb128 .LEHE19-.LEHB19
 1621 007f AC0D     		.uleb128 .L119-.LFB1571
 1622 0081 00       		.uleb128 0
 1623 0082 A40C     		.uleb128 .LEHB20-.LFB1571
 1624 0084 18       		.uleb128 .LEHE20-.LEHB20
 1625 0085 A80D     		.uleb128 .L116-.LFB1571
 1626 0087 00       		.uleb128 0
 1627 0088 F40C     		.uleb128 .LEHB21-.LFB1571
 1628 008a 04       		.uleb128 .LEHE21-.LEHB21
 1629 008b 00       		.uleb128 0
 1630 008c 00       		.uleb128 0
 1631              	.LLSDACSE1571:
 1632              		.section	".text"
 1633              		.size	_Z18DownloadFileToPathPKcS0_b, .-_Z18DownloadFileToPathPKcS0_b
 1634              		.section	.rodata.str1.4,"aMS",@progbits,1
 1635              		.align 2
 1636              	.LC0:
 1637 0000 68747470 		.string	"http://"
 1637      3A2F2F00 
 1638              	.LC1:
 1639 0008 4E6F7420 		.string	"Not a valid URL"
 1639      61207661 
 1639      6C696420 
 1639      55524C00 
 1640              	.LC2:
 1641 0018 4E6F7420 		.string	"Not a valid URL path"
 1641      61207661 
 1641      6C696420 
 1641      55524C20 
 1641      70617468 
 1642 002d 000000   		.zero	3
 1643              	.LC3:
 1644 0030 4E6F7420 		.string	"Not a valid domain"
 1644      61207661 
 1644      6C696420 
 1644      646F6D61 
 1644      696E00
 1645 0043 00       		.zero	1
 1646              	.LC4:
 1647 0044 436F756C 		.string	"Could not connect to the server."
 1647      64206E6F 
 1647      7420636F 
 1647      6E6E6563 
 1647      7420746F 
 1648 0065 000000   		.zero	3
 1649              	.LC5:
 1650 0068 47455420 		.string	"GET %s HTTP/1.1\r\n"
 1650      25732048 
 1650      5454502F 
 1650      312E310D 
 1650      0A00
 1651 007a 0000     		.zero	2
 1652              	.LC6:
 1653 007c 486F7374 		.string	"Host: %s\r\n"
 1653      3A202573 
 1653      0D0A00
 1654 0087 00       		.zero	1
 1655              	.LC7:
 1656 0088 52656665 		.string	"Referer: %s\r\n"
 1656      7265723A 
 1656      2025730D 
 1656      0A00
 1657 0096 0000     		.zero	2
 1658              	.LC8:
 1659 0098 55736572 		.string	"User-Agent: SaveGameGX\r\n"
 1659      2D416765 
 1659      6E743A20 
 1659      53617665 
 1659      47616D65 
 1660 00b1 000000   		.zero	3
 1661              	.LC9:
 1662 00b4 50726167 		.string	"Pragma: no-cache\r\n"
 1662      6D613A20 
 1662      6E6F2D63 
 1662      61636865 
 1662      0D0A00
 1663 00c7 00       		.zero	1
 1664              	.LC10:
 1665 00c8 43616368 		.string	"Cache-Control: no-cache\r\n"
 1665      652D436F 
 1665      6E74726F 
 1665      6C3A206E 
 1665      6F2D6361 
 1666 00e2 0000     		.zero	2
 1667              	.LC11:
 1668 00e4 436F6E6E 		.string	"Connection: close\r\n\r\n"
 1668      65637469 
 1668      6F6E3A20 
 1668      636C6F73 
 1668      650D0A0D 
 1669 00fa 0000     		.zero	2
 1670              	.LC12:
 1671 00fc 46696C65 		.string	"Filesize is 0 Byte."
 1671      73697A65 
 1671      20697320 
 1671      30204279 
 1671      74652E00 
 1672              	.LC13:
 1673 0110 4E6F7420 		.string	"Not enough memory."
 1673      656E6F75 
 1673      6768206D 
 1673      656D6F72 
 1673      792E00
 1674 0123 00       		.zero	1
 1675              	.LC14:
 1676 0124 446F776E 		.string	"Downloading file..."
 1676      6C6F6164 
 1676      696E6720 
 1676      66696C65 
 1676      2E2E2E00 
 1677              	.LC15:
 1678 0138 5472616E 		.string	"Transfer failed"
 1678      73666572 
 1678      20666169 
 1678      6C656400 
 1679              	.LC16:
 1680 0148 4E6F2055 		.string	"No URL or Path specified."
 1680      524C206F 
 1680      72205061 
 1680      74682073 
 1680      70656369 
 1681 0162 0000     		.zero	2
 1682              	.LC17:
 1683 0164 46696C65 		.string	"Filesize is %i Byte."
 1683      73697A65 
 1683      20697320 
 1683      25692042 
 1683      7974652E 
 1684 0179 000000   		.zero	3
 1685              	.LC18:
 1686 017c 257300   		.string	"%s"
 1687 017f 00       		.zero	1
 1688              	.LC19:
 1689 0180 776200   		.string	"wb"
 1690 0183 00       		.zero	1
 1691              	.LC20:
 1692 0184 43616E6E 		.string	"Cannot write to destination."
 1692      6F742077 
 1692      72697465 
 1692      20746F20 
 1692      64657374 
 1693 01a1 000000   		.zero	3
 1694              	.LC21:
 1695 01a4 68747470 		.string	"http://%s"
 1695      3A2F2F25 
 1695      7300
 1696              		.section	".text"
 1697              	.Letext0:
 1698              		.file 5 "d:\\devkitpro\\devkitppc\\bin\\../lib/gcc/powerpc-eabi/4.6.3/../../../../powerpc-eabi/inc
 1699              		.file 6 "d:/devkitPro/libogc/include/gctypes.h"
 1700              		.file 7 "d:/devkitPro/libogc/include/ogc/gx.h"
 1701              		.file 8 "d:\\devkitpro\\devkitppc\\bin\\../lib/gcc/powerpc-eabi/4.6.3/../../../../powerpc-eabi/inc
 1702              		.file 9 "d:\\devkitpro\\devkitppc\\bin\\../lib/gcc/powerpc-eabi/4.6.3/../../../../powerpc-eabi/inc
 1703              		.file 10 "d:\\devkitpro\\devkitppc\\bin\\../lib/gcc/powerpc-eabi/4.6.3/include/stddef.h"
 1704              		.file 11 "d:\\devkitpro\\devkitppc\\bin\\../lib/gcc/powerpc-eabi/4.6.3/../../../../powerpc-eabi/in
 1705              		.file 12 "d:\\devkitpro\\devkitppc\\bin\\../lib/gcc/powerpc-eabi/4.6.3/../../../../powerpc-eabi/in
 1706              		.file 13 "d:\\devkitpro\\devkitppc\\bin\\../lib/gcc/powerpc-eabi/4.6.3/../../../../powerpc-eabi/in
 1707              		.file 14 "<built-in>"
 1708              		.file 15 "d:\\devkitpro\\devkitppc\\bin\\../lib/gcc/powerpc-eabi/4.6.3/../../../../powerpc-eabi/in
 1709              		.file 16 "d:\\devkitpro\\devkitppc\\bin\\../lib/gcc/powerpc-eabi/4.6.3/../../../../powerpc-eabi/in
 1710              		.file 17 "d:\\devkitpro\\devkitppc\\bin\\../lib/gcc/powerpc-eabi/4.6.3/../../../../powerpc-eabi/in
 1711              		.file 18 "d:\\devkitpro\\devkitppc\\bin\\../lib/gcc/powerpc-eabi/4.6.3/../../../../powerpc-eabi/in
 1712              		.file 19 "d:\\devkitpro\\devkitppc\\bin\\../lib/gcc/powerpc-eabi/4.6.3/../../../../powerpc-eabi/in
 1713              		.file 20 "d:\\devkitpro\\devkitppc\\bin\\../lib/gcc/powerpc-eabi/4.6.3/../../../../powerpc-eabi/in
 1714              		.file 21 "d:\\devkitpro\\devkitppc\\bin\\../lib/gcc/powerpc-eabi/4.6.3/../../../../powerpc-eabi/in
 1715              		.file 22 "d:\\devkitpro\\devkitppc\\bin\\../lib/gcc/powerpc-eabi/4.6.3/../../../../powerpc-eabi/in
 1716              		.file 23 "d:\\devkitpro\\devkitppc\\bin\\../lib/gcc/powerpc-eabi/4.6.3/../../../../powerpc-eabi/in
 1717              		.file 24 "d:\\devkitpro\\devkitppc\\bin\\../lib/gcc/powerpc-eabi/4.6.3/../../../../powerpc-eabi/in
 1718              		.file 25 "d:\\devkitpro\\devkitppc\\bin\\../lib/gcc/powerpc-eabi/4.6.3/../../../../powerpc-eabi/in
 1719              		.file 26 "d:\\devkitpro\\devkitppc\\bin\\../lib/gcc/powerpc-eabi/4.6.3/../../../../powerpc-eabi/in
 1720              		.file 27 "d:\\devkitpro\\devkitppc\\bin\\../lib/gcc/powerpc-eabi/4.6.3/../../../../powerpc-eabi/in
 1721              		.file 28 "d:\\devkitpro\\devkitppc\\bin\\../lib/gcc/powerpc-eabi/4.6.3/../../../../powerpc-eabi/in
 1722              		.file 29 "d:\\devkitpro\\devkitppc\\bin\\../lib/gcc/powerpc-eabi/4.6.3/../../../../powerpc-eabi/in
 1723              		.file 30 "d:\\devkitpro\\devkitppc\\bin\\../lib/gcc/powerpc-eabi/4.6.3/../../../../powerpc-eabi/in
 1724              		.file 31 "d:\\devkitpro\\devkitppc\\bin\\../lib/gcc/powerpc-eabi/4.6.3/../../../../powerpc-eabi/in
 1725              		.file 32 "d:\\devkitpro\\devkitppc\\bin\\../lib/gcc/powerpc-eabi/4.6.3/../../../../powerpc-eabi/in
 1726              		.file 33 "d:\\devkitpro\\devkitppc\\bin\\../lib/gcc/powerpc-eabi/4.6.3/../../../../powerpc-eabi/in
 1727              		.file 34 "d:/Projects/SaveGameManager/savegame-manager-gx/trunk/source/Network/../Prompts/../GUI/.
 1728              		.file 35 "d:/Projects/SaveGameManager/savegame-manager-gx/trunk/source/Network/../Prompts/../GUI/.
 1729              		.file 36 "d:\\devkitpro\\devkitppc\\bin\\../lib/gcc/powerpc-eabi/4.6.3/../../../../powerpc-eabi/in
 1730              		.file 37 "d:/Projects/SaveGameManager/savegame-manager-gx/trunk/source/Network/../Prompts/../GUI/g
 1731              		.file 38 "d:\\devkitpro\\devkitppc\\bin\\../lib/gcc/powerpc-eabi/4.6.3/../../../../powerpc-eabi/in
 1732              		.file 39 "d:\\devkitpro\\devkitppc\\bin\\../lib/gcc/powerpc-eabi/4.6.3/../../../../powerpc-eabi/in
 1733              		.file 40 "d:\\devkitpro\\devkitppc\\bin\\../lib/gcc/powerpc-eabi/4.6.3/../../../../powerpc-eabi/in
 1734              		.file 41 "d:\\devkitpro\\devkitppc\\bin\\../lib/gcc/powerpc-eabi/4.6.3/../../../../powerpc-eabi/in