	.file	"File.cpp"
	.section	".text"
.Ltext0:
	.align 2
	.type	_ZN5CFile4seekEli.constprop.0, @function
_ZN5CFile4seekEli.constprop.0:
.LFB26:
	.file 1 "d:/Projects/SaveGameManager/savegame-manager-gx/trunk/source/FileOperations/File.cpp"
	.loc 1 106 0
	.cfi_startproc
.LVL0:
	mflr 0
	stwu 1,-16(1)
.LCFI0:
	.cfi_def_cfa_offset 16
	.cfi_register 65, 0
.LBB8:
	.loc 1 112 0
	li 9,0
.LBE8:
	.loc 1 106 0
	stw 31,12(1)
	mr 31,3
	.cfi_offset 31, -4
	stw 0,20(1)
.LBB9:
	.loc 1 112 0
	stw 9,16(3)
	.loc 1 128 0
	lwz 0,0(3)
	.cfi_offset 65, 4
	.loc 1 108 0
	li 3,0
.LVL1:
	.loc 1 128 0
	cmpwi 7,0,0
	beq- 7,.L2
	.loc 1 129 0
	mr 3,0
	li 5,0
	li 6,0
	li 7,0
	bl fseek
.LVL2:
.L2:
	.loc 1 131 0
	lwz 0,4(31)
	cmpwi 7,0,0
	beq- 7,.L3
	.loc 1 133 0
	lwz 0,12(31)
	lwz 9,16(31)
	cmpw 7,9,0
	bgt- 7,.L6
.LVL3:
.L3:
.LBE9:
	.loc 1 141 0
	lwz 0,20(1)
	lwz 31,12(1)
.LVL4:
	mtlr 0
	addi 1,1,16
	.cfi_remember_state
.LCFI1:
	.cfi_def_cfa_offset 0
	.cfi_restore 31
	blr
.LVL5:
.L6:
.LCFI2:
	.cfi_restore_state
.LBB10:
	.loc 1 135 0
	stw 0,16(31)
	.loc 1 136 0
	li 3,-1
.LVL6:
	b .L3
.LBE10:
	.cfi_endproc
.LFE26:
	.size	_ZN5CFile4seekEli.constprop.0, .-_ZN5CFile4seekEli.constprop.0
	.align 2
	.globl _ZN5CFileC2Ev
	.type	_ZN5CFileC2Ev, @function
_ZN5CFileC2Ev:
.LFB9:
	.loc 1 4 0
	.cfi_startproc
.LVL7:
.LBB11:
	.loc 1 6 0
	li 0,0
	.loc 1 8 0
	li 10,0
	li 11,0
	.loc 1 6 0
	stw 0,0(3)
	.loc 1 7 0
	stw 0,4(3)
.LBE11:
	.loc 1 10 0
.LBB12:
	.loc 1 8 0
	stw 10,8(3)
	stw 11,12(3)
	.loc 1 9 0
	stw 0,16(3)
.LBE12:
	.loc 1 10 0
	blr
	.cfi_endproc
.LFE9:
	.size	_ZN5CFileC2Ev, .-_ZN5CFileC2Ev
	.align 2
	.globl _ZN5CFileC2EPKcS1_
	.type	_ZN5CFileC2EPKcS1_, @function
_ZN5CFileC2EPKcS1_:
.LFB12:
	.loc 1 12 0
	.cfi_startproc
.LVL8:
	mflr 0
	stwu 1,-16(1)
.LCFI3:
	.cfi_def_cfa_offset 16
	.cfi_register 65, 0
.LBB20:
.LBB21:
.LBB22:
.LBB23:
.LBB24:
	.loc 1 61 0
	li 10,0
	li 11,0
.LBE24:
.LBE23:
.LBE22:
.LBE21:
.LBE20:
	.loc 1 12 0
	stw 31,12(1)
	mr 31,3
	.cfi_offset 31, -4
	stw 0,20(1)
.LBB35:
	.loc 1 14 0
	li 0,0
	.cfi_offset 65, 4
	stw 0,0(3)
.LVL9:
.LBB33:
.LBB31:
.LBB26:
.LBB25:
	.loc 1 60 0
	stw 0,4(3)
	.loc 1 61 0
	stw 10,8(3)
	stw 11,12(3)
	.loc 1 62 0
	stw 0,16(3)
.LBE25:
.LBE26:
	.loc 1 33 0
	mr 3,4
.LVL10:
	mr 4,5
.LVL11:
	bl fopen
.LVL12:
	.loc 1 34 0
	cmpwi 7,3,0
	.loc 1 33 0
	stw 3,0(31)
	.loc 1 34 0
	beq- 7,.L8
	.loc 1 37 0
	li 5,0
	li 6,0
	li 7,2
	bl fseek
	.loc 1 38 0
	lwz 3,0(31)
	bl ftell
	srawi 0,3,31
	stw 3,12(31)
	stw 0,8(31)
.LVL13:
.LBB27:
.LBB28:
	.file 2 "d:/Projects/SaveGameManager/savegame-manager-gx/trunk/source/FileOperations/File.hpp"
	.loc 2 22 0
	mr 3,31
.LBE28:
.LBE27:
.LBE31:
.LBE33:
.LBE35:
	.loc 1 16 0
	lwz 0,20(1)
	lwz 31,12(1)
.LVL14:
	mtlr 0
	addi 1,1,16
	.cfi_remember_state
.LCFI4:
	.cfi_def_cfa_offset 0
	.cfi_restore 31
.LBB36:
.LBB34:
.LBB32:
.LBB30:
.LBB29:
	.loc 2 22 0
	b _ZN5CFile4seekEli.constprop.0
.LVL15:
.L8:
.LCFI5:
	.cfi_restore_state
.LBE29:
.LBE30:
.LBE32:
.LBE34:
.LBE36:
	.loc 1 16 0
	lwz 0,20(1)
	lwz 31,12(1)
.LVL16:
	mtlr 0
	addi 1,1,16
.LCFI6:
	.cfi_def_cfa_offset 0
	.cfi_restore 31
	blr
	.cfi_endproc
.LFE12:
	.size	_ZN5CFileC2EPKcS1_, .-_ZN5CFileC2EPKcS1_
	.align 2
	.globl _ZN5CFileC2EPKhi
	.type	_ZN5CFileC2EPKhi, @function
_ZN5CFileC2EPKhi:
.LFB15:
	.loc 1 18 0
	.cfi_startproc
.LVL17:
.LBB42:
	.loc 1 20 0
	li 0,0
.LBB43:
.LBB44:
	.loc 1 49 0
	srawi 9,5,31
.LBE44:
.LBE43:
	.loc 1 20 0
	stw 0,0(3)
.LVL18:
.LBE42:
	.loc 1 22 0
.LBB49:
.LBB48:
.LBB47:
.LBB45:
.LBB46:
	.loc 1 62 0
	stw 0,16(3)
.LBE46:
.LBE45:
	.loc 1 48 0
	stw 4,4(3)
	.loc 1 49 0
	stw 5,12(3)
	stw 9,8(3)
.LBE47:
.LBE48:
.LBE49:
	.loc 1 22 0
	blr
	.cfi_endproc
.LFE15:
	.size	_ZN5CFileC2EPKhi, .-_ZN5CFileC2EPKhi
	.align 2
	.globl _ZN5CFileD2Ev
	.type	_ZN5CFileD2Ev, @function
_ZN5CFileD2Ev:
.LFB18:
	.loc 1 24 0
	.cfi_startproc
.LVL19:
	mflr 0
	stwu 1,-16(1)
.LCFI7:
	.cfi_def_cfa_offset 16
	.cfi_register 65, 0
	stw 31,12(1)
	mr 31,3
	.cfi_offset 31, -4
.LVL20:
	stw 0,20(1)
.LBB53:
.LBB54:
	.loc 1 56 0
	lwz 3,0(3)
.LVL21:
	cmpwi 7,3,0
	beq- 7,.L12
	.cfi_offset 65, 4
	.loc 1 57 0
	bl fclose
.LVL22:
.L12:
	.loc 1 59 0
	li 0,0
	.loc 1 61 0
	li 10,0
	.loc 1 59 0
	stw 0,0(31)
	.loc 1 61 0
	li 11,0
	.loc 1 60 0
	stw 0,4(31)
	.loc 1 62 0
	stw 0,16(31)
.LBE54:
.LBE53:
	.loc 1 27 0
	lwz 0,20(1)
.LBB57:
.LBB55:
	.loc 1 61 0
	stw 10,8(31)
.LBE55:
.LBE57:
	.loc 1 27 0
	mtlr 0
.LBB58:
.LBB56:
	.loc 1 61 0
	stw 11,12(31)
.LBE56:
.LBE58:
	.loc 1 27 0
	lwz 31,12(1)
.LVL23:
	addi 1,1,16
.LCFI8:
	.cfi_def_cfa_offset 0
	.cfi_restore 31
	blr
	.cfi_endproc
.LFE18:
	.size	_ZN5CFileD2Ev, .-_ZN5CFileD2Ev
	.align 2
	.globl _ZN5CFile4openEPKcS1_
	.type	_ZN5CFile4openEPKcS1_, @function
_ZN5CFile4openEPKcS1_:
.LFB20:
	.loc 1 30 0
	.cfi_startproc
.LVL24:
	mflr 0
	stwu 1,-24(1)
.LCFI9:
	.cfi_def_cfa_offset 24
	.cfi_register 65, 0
	stw 29,12(1)
	mr 29,5
	.cfi_offset 29, -12
	stw 0,28(1)
	stw 30,16(1)
	mr 30,4
	.cfi_offset 30, -8
	.cfi_offset 65, 4
.LBB63:
.LBB64:
	.loc 1 56 0
	lwz 0,0(3)
.LBE64:
.LBE63:
	.loc 1 30 0
	stw 31,20(1)
	.loc 1 30 0
	mr 31,3
	.cfi_offset 31, -4
.LVL25:
.LBB68:
.LBB65:
	.loc 1 56 0
	cmpwi 7,0,0
	beq- 7,.L15
	.loc 1 57 0
	mr 3,0
.LVL26:
	bl fclose
.LVL27:
.L15:
	.loc 1 59 0
	li 0,0
	.loc 1 61 0
	li 10,0
	li 11,0
	.loc 1 59 0
	stw 0,0(31)
	.loc 1 60 0
	stw 0,4(31)
.LBE65:
.LBE68:
	.loc 1 33 0
	mr 3,30
.LBB69:
.LBB66:
	.loc 1 62 0
	stw 0,16(31)
.LBE66:
.LBE69:
	.loc 1 33 0
	mr 4,29
.LBB70:
.LBB67:
	.loc 1 61 0
	stw 10,8(31)
	stw 11,12(31)
.LBE67:
.LBE70:
	.loc 1 33 0
	bl fopen
	.loc 1 35 0
	li 0,-1
	.loc 1 34 0
	cmpwi 7,3,0
	.loc 1 33 0
	stw 3,0(31)
	.loc 1 34 0
	beq- 7,.L16
	.loc 1 37 0
	li 5,0
	li 6,0
	li 7,2
	bl fseek
	.loc 1 38 0
	lwz 3,0(31)
	bl ftell
	srawi 0,3,31
	stw 3,12(31)
	stw 0,8(31)
.LVL28:
.LBB71:
.LBB72:
	.loc 2 22 0
	mr 3,31
	bl _ZN5CFile4seekEli.constprop.0
.LBE72:
.LBE71:
	.loc 1 41 0
	li 0,0
.LVL29:
.L16:
	.loc 1 42 0
	mr 3,0
	lwz 0,28(1)
	lwz 29,12(1)
.LVL30:
	mtlr 0
	lwz 30,16(1)
.LVL31:
	lwz 31,20(1)
.LVL32:
	addi 1,1,24
.LCFI10:
	.cfi_def_cfa_offset 0
	.cfi_restore 31
	.cfi_restore 30
	.cfi_restore 29
	blr
	.cfi_endproc
.LFE20:
	.size	_ZN5CFile4openEPKcS1_, .-_ZN5CFile4openEPKcS1_
	.align 2
	.globl _ZN5CFile4openEPKhi
	.type	_ZN5CFile4openEPKhi, @function
_ZN5CFile4openEPKhi:
.LFB21:
	.loc 1 45 0
	.cfi_startproc
.LVL33:
	mflr 0
	stwu 1,-24(1)
.LCFI11:
	.cfi_def_cfa_offset 24
	.cfi_register 65, 0
	stw 31,20(1)
	mr 31,3
	.cfi_offset 31, -4
.LVL34:
	stw 0,28(1)
	stw 29,12(1)
	mr 29,5
	.cfi_offset 29, -12
	.cfi_offset 65, 4
.LBB75:
.LBB76:
	.loc 1 56 0
	lwz 3,0(3)
.LVL35:
.LBE76:
.LBE75:
	.loc 1 45 0
	stw 30,16(1)
	.loc 1 45 0
	mr 30,4
	.cfi_offset 30, -8
.LBB80:
.LBB77:
	.loc 1 56 0
	cmpwi 7,3,0
	beq- 7,.L19
	.loc 1 57 0
	bl fclose
.LVL36:
.L19:
	.loc 1 59 0
	li 0,0
.LBE77:
.LBE80:
	.loc 1 49 0
	srawi 9,29,31
.LBB81:
.LBB78:
	.loc 1 59 0
	stw 0,0(31)
.LBE78:
.LBE81:
	.loc 1 52 0
	li 3,0
.LBB82:
.LBB79:
	.loc 1 62 0
	stw 0,16(31)
.LBE79:
.LBE82:
	.loc 1 52 0
	lwz 0,28(1)
	.loc 1 48 0
	stw 30,4(31)
	.loc 1 52 0
	mtlr 0
	.loc 1 49 0
	stw 29,12(31)
	stw 9,8(31)
	.loc 1 52 0
	lwz 29,12(1)
.LVL37:
	lwz 30,16(1)
.LVL38:
	lwz 31,20(1)
.LVL39:
	addi 1,1,24
.LCFI12:
	.cfi_def_cfa_offset 0
	.cfi_restore 31
	.cfi_restore 30
	.cfi_restore 29
	blr
	.cfi_endproc
.LFE21:
	.size	_ZN5CFile4openEPKhi, .-_ZN5CFile4openEPKhi
	.align 2
	.globl _ZN5CFile5closeEv
	.type	_ZN5CFile5closeEv, @function
_ZN5CFile5closeEv:
.LFB22:
	.loc 1 55 0
	.cfi_startproc
.LVL40:
	mflr 0
	stwu 1,-16(1)
.LCFI13:
	.cfi_def_cfa_offset 16
	.cfi_register 65, 0
	stw 31,12(1)
	mr 31,3
	.cfi_offset 31, -4
	stw 0,20(1)
	.loc 1 56 0
	lwz 3,0(3)
.LVL41:
	cmpwi 7,3,0
	beq- 7,.L21
	.cfi_offset 65, 4
	.loc 1 57 0
	bl fclose
.L21:
	.loc 1 59 0
	li 0,0
	.loc 1 61 0
	li 10,0
	.loc 1 59 0
	stw 0,0(31)
	.loc 1 61 0
	li 11,0
	.loc 1 60 0
	stw 0,4(31)
	.loc 1 62 0
	stw 0,16(31)
	.loc 1 63 0
	lwz 0,20(1)
	.loc 1 61 0
	stw 10,8(31)
	.loc 1 63 0
	mtlr 0
	.loc 1 61 0
	stw 11,12(31)
	.loc 1 63 0
	lwz 31,12(1)
.LVL42:
	addi 1,1,16
.LCFI14:
	.cfi_def_cfa_offset 0
	.cfi_restore 31
	blr
	.cfi_endproc
.LFE22:
	.size	_ZN5CFile5closeEv, .-_ZN5CFile5closeEv
	.align 2
	.globl _ZN5CFile4readEPhj
	.type	_ZN5CFile4readEPhj, @function
_ZN5CFile4readEPhj:
.LFB23:
	.loc 1 66 0
	.cfi_startproc
.LVL43:
	mflr 0
	stwu 1,-16(1)
.LCFI15:
	.cfi_def_cfa_offset 16
	.cfi_register 65, 0
	stw 30,8(1)
	mr 30,5
	.cfi_offset 30, -8
	stw 0,20(1)
	stw 31,12(1)
	.loc 1 66 0
	mr 31,3
	.cfi_offset 31, -4
	.cfi_offset 65, 4
.LBB83:
.LBB84:
	.loc 1 67 0
	lwz 6,0(3)
	cmpwi 7,6,0
	beq- 7,.L23
.LBB85:
	.loc 1 69 0
	mr 3,4
.LVL44:
	li 4,1
.LVL45:
	bl fread
.LVL46:
	.loc 1 70 0
	cmpwi 0,3,0
	ble- 0,.L24
	.loc 1 71 0
	lwz 0,16(31)
	add 0,0,3
	stw 0,16(31)
.LVL47:
.L24:
.LBE85:
.LBE84:
.LBE83:
	.loc 1 91 0
	lwz 0,20(1)
	lwz 30,8(1)
	mtlr 0
	lwz 31,12(1)
.LVL48:
	addi 1,1,16
	.cfi_remember_state
.LCFI16:
	.cfi_def_cfa_offset 0
	.cfi_restore 31
	.cfi_restore 30
	blr
.LVL49:
.L23:
.LCFI17:
	.cfi_restore_state
.LBB86:
	.loc 1 77 0
	lwz 9,12(3)
	lwz 0,16(3)
.LVL50:
	subf 9,0,9
	cmpw 7,5,9
	bgt- 7,.L28
.LVL51:
.L25:
	.loc 1 80 0
	mr. 3,30
.LVL52:
	ble- 0,.L24
.LVL53:
	.loc 1 83 0
	lwz 9,4(31)
	.loc 1 90 0
	li 3,-1
.LVL54:
	.loc 1 83 0
	cmpwi 7,9,0
	beq- 7,.L24
	.loc 1 85 0
	mr 3,4
	mr 5,30
.LVL55:
	add 4,9,0
.LVL56:
	bl memcpy
.LVL57:
	.loc 1 86 0
	lwz 0,16(31)
	.loc 1 87 0
	mr 3,30
	.loc 1 86 0
	add 30,0,30
.LVL58:
.LBE86:
	.loc 1 91 0
	lwz 0,20(1)
.LBB87:
	.loc 1 86 0
	stw 30,16(31)
.LBE87:
	.loc 1 91 0
	mtlr 0
	lwz 30,8(1)
	lwz 31,12(1)
.LVL59:
	addi 1,1,16
	.cfi_remember_state
	.cfi_restore 30
	.cfi_restore 31
.LCFI18:
	.cfi_def_cfa_offset 0
	blr
.LVL60:
.L28:
.LCFI19:
	.cfi_restore_state
.LBB88:
	.loc 1 78 0
	mr 30,9
.LVL61:
	b .L25
.LBE88:
	.cfi_endproc
.LFE23:
	.size	_ZN5CFile4readEPhj, .-_ZN5CFile4readEPhj
	.align 2
	.globl _ZN5CFile5writeEPKhj
	.type	_ZN5CFile5writeEPKhj, @function
_ZN5CFile5writeEPKhj:
.LFB24:
	.loc 1 94 0
	.cfi_startproc
.LVL62:
	mflr 0
	stwu 1,-16(1)
.LCFI20:
	.cfi_def_cfa_offset 16
	.cfi_register 65, 0
	stw 31,12(1)
	mr 31,3
	.cfi_offset 31, -4
	stw 0,20(1)
.LBB89:
	.loc 1 95 0
	lwz 6,0(3)
	.loc 1 103 0
	li 3,-1
.LVL63:
	.loc 1 95 0
	cmpwi 7,6,0
	beq- 7,.L30
	.cfi_offset 65, 4
.LBB90:
	.loc 1 97 0
	mr 3,4
	li 4,1
.LVL64:
	bl fwrite
.LVL65:
	.loc 1 98 0
	cmpwi 0,3,0
	ble- 0,.L30
	.loc 1 99 0
	lwz 0,16(31)
	add 0,0,3
	stw 0,16(31)
.LVL66:
.L30:
.LBE90:
.LBE89:
	.loc 1 104 0
	lwz 0,20(1)
	lwz 31,12(1)
.LVL67:
	mtlr 0
	addi 1,1,16
.LCFI21:
	.cfi_def_cfa_offset 0
	.cfi_restore 31
	blr
	.cfi_endproc
.LFE24:
	.size	_ZN5CFile5writeEPKhj, .-_ZN5CFile5writeEPKhj
	.align 2
	.globl _ZN5CFile4seekEli
	.type	_ZN5CFile4seekEli, @function
_ZN5CFile4seekEli:
.LFB25:
	.loc 1 107 0
	.cfi_startproc
.LVL68:
.LBB91:
	.loc 1 110 0
	cmpwi 0,5,0
.LBE91:
	.loc 1 107 0
	mflr 0
	stwu 1,-16(1)
.LCFI22:
	.cfi_def_cfa_offset 16
	.cfi_register 65, 0
	stw 31,12(1)
	mr 31,3
	.cfi_offset 31, -4
	stw 0,20(1)
.LBB92:
	.loc 1 110 0
	beq- 0,.L41
	.cfi_offset 65, 4
	.loc 1 114 0
	cmpwi 7,5,1
	beq- 7,.L42
	.loc 1 118 0
	cmpwi 7,5,2
	beq- 7,.L36
	lwz 4,16(3)
.LVL69:
	b .L34
.LVL70:
.L36:
	.loc 1 120 0
	lwz 0,12(3)
	add 4,4,0
.LVL71:
.L41:
	stw 4,16(31)
.L34:
	.loc 1 122 0
	cmpwi 7,4,0
	blt- 7,.L43
	.loc 1 128 0
	lwz 0,0(31)
	.loc 1 108 0
	li 3,0
.LVL72:
	.loc 1 128 0
	cmpwi 7,0,0
	beq- 7,.L39
	.loc 1 129 0
	mr 3,0
	srawi 5,4,31
.LVL73:
	mr 6,4
	li 7,0
	bl fseek
.LVL74:
.L39:
	.loc 1 131 0
	lwz 0,4(31)
	cmpwi 7,0,0
	beq- 7,.L38
	.loc 1 133 0
	lwz 0,12(31)
	lwz 9,16(31)
	cmpw 7,9,0
	bgt- 7,.L44
.LVL75:
.L38:
.LBE92:
	.loc 1 141 0
	lwz 0,20(1)
	lwz 31,12(1)
.LVL76:
	mtlr 0
	addi 1,1,16
	.cfi_remember_state
.LCFI23:
	.cfi_def_cfa_offset 0
	.cfi_restore 31
	blr
.LVL77:
.L42:
.LCFI24:
	.cfi_restore_state
.LBB93:
	.loc 1 116 0
	lwz 0,16(3)
	add 4,4,0
.LVL78:
	stw 4,16(3)
	b .L34
.LVL79:
.L44:
	.loc 1 135 0
	stw 0,16(31)
	.loc 1 136 0
	li 3,-1
.LVL80:
	b .L38
.LVL81:
.L43:
	.loc 1 124 0
	li 0,0
	.loc 1 125 0
	li 3,-1
	.loc 1 124 0
	stw 0,16(31)
	.loc 1 125 0
	b .L38
.LBE93:
	.cfi_endproc
.LFE25:
	.size	_ZN5CFile4seekEli, .-_ZN5CFile4seekEli
	.globl _ZN5CFileC1Ev
	.set	_ZN5CFileC1Ev,_ZN5CFileC2Ev
	.globl _ZN5CFileC1EPKcS1_
	.set	_ZN5CFileC1EPKcS1_,_ZN5CFileC2EPKcS1_
	.globl _ZN5CFileC1EPKhi
	.set	_ZN5CFileC1EPKhi,_ZN5CFileC2EPKhi
	.globl _ZN5CFileD1Ev
	.set	_ZN5CFileD1Ev,_ZN5CFileD2Ev
.Letext0:
	.file 3 "d:\\devkitpro\\devkitppc\\bin\\../lib/gcc/powerpc-eabi/4.6.3/../../../../powerpc-eabi/include/machine/_types.h"
	.file 4 "d:\\devkitpro\\devkitppc\\bin\\../lib/gcc/powerpc-eabi/4.6.3/../../../../powerpc-eabi/include/sys/lock.h"
	.file 5 "d:\\devkitpro\\devkitppc\\bin\\../lib/gcc/powerpc-eabi/4.6.3/include/stddef.h"
	.file 6 "d:\\devkitpro\\devkitppc\\bin\\../lib/gcc/powerpc-eabi/4.6.3/../../../../powerpc-eabi/include/sys/_types.h"
	.file 7 "d:\\devkitpro\\devkitppc\\bin\\../lib/gcc/powerpc-eabi/4.6.3/../../../../powerpc-eabi/include/sys/reent.h"
	.file 8 "d:\\devkitpro\\devkitppc\\bin\\../lib/gcc/powerpc-eabi/4.6.3/../../../../powerpc-eabi/include/c++/4.6.3/cstring"
	.file 9 "d:\\devkitpro\\devkitppc\\bin\\../lib/gcc/powerpc-eabi/4.6.3/../../../../powerpc-eabi/include/string.h"
	.file 10 "d:\\devkitpro\\devkitppc\\bin\\../lib/gcc/powerpc-eabi/4.6.3/../../../../powerpc-eabi/include/stdio.h"
	.file 11 "d:\\devkitpro\\devkitppc\\bin\\../lib/gcc/powerpc-eabi/4.6.3/../../../../powerpc-eabi/include/stdint.h"
	.file 12 "d:/devkitPro/libogc/include/gctypes.h"
	.file 13 "<built-in>"