   1              		.file	"FlyingButtonsMenu.cpp"
   2              		.section	".text"
   3              	.Ltext0:
   4              		.section	.text._ZN7sigslot15single_threadedD2Ev,"axG",@progbits,_ZN7sigslot15single_threadedD5Ev,c
   5              		.align 2
   6              		.weak	_ZN7sigslot15single_threadedD2Ev
   7              		.type	_ZN7sigslot15single_threadedD2Ev, @function
   8              	_ZN7sigslot15single_threadedD2Ev:
   9              	.LFB1148:
  10              		.file 1 "d:/Projects/SaveGameManager/savegame-manager-gx/trunk/source/Settings/menus/../../GUI/../
  11              		.loc 1 104 0
  12              		.cfi_startproc
  13              	.LVL0:
  14              	.LBB4143:
  15              		.loc 1 105 0
  16 0000 3D200000 		lis 9,_ZTVN7sigslot15single_threadedE+8@ha
  17              	.LBE4143:
  18              		.loc 1 107 0
  19              	.LBB4144:
  20              		.loc 1 105 0
  21 0004 38090008 		la 0,_ZTVN7sigslot15single_threadedE+8@l(9)
  22 0008 90030000 		stw 0,0(3)
  23              	.LBE4144:
  24              		.loc 1 107 0
  25 000c 4E800020 		blr
  26              		.cfi_endproc
  27              	.LFE1148:
  28              		.size	_ZN7sigslot15single_threadedD2Ev, .-_ZN7sigslot15single_threadedD2Ev
  29              		.section	.text._ZN7sigslot15single_threaded4lockEv,"axG",@progbits,_ZN7sigslot15single_threaded4lo
  30              		.align 2
  31              		.weak	_ZN7sigslot15single_threaded4lockEv
  32              		.type	_ZN7sigslot15single_threaded4lockEv, @function
  33              	_ZN7sigslot15single_threaded4lockEv:
  34              	.LFB1151:
  35              		.loc 1 109 0
  36              		.cfi_startproc
  37              	.LVL1:
  38              		.loc 1 112 0
  39 0000 4E800020 		blr
  40              		.cfi_endproc
  41              	.LFE1151:
  42              		.size	_ZN7sigslot15single_threaded4lockEv, .-_ZN7sigslot15single_threaded4lockEv
  43              		.section	.text._ZN7sigslot15single_threaded6unlockEv,"axG",@progbits,_ZN7sigslot15single_threaded6
  44              		.align 2
  45              		.weak	_ZN7sigslot15single_threaded6unlockEv
  46              		.type	_ZN7sigslot15single_threaded6unlockEv, @function
  47              	_ZN7sigslot15single_threaded6unlockEv:
  48              	.LFB1152:
  49              		.loc 1 114 0
  50              		.cfi_startproc
  51              	.LVL2:
  52              		.loc 1 117 0
  53 0000 4E800020 		blr
  54              		.cfi_endproc
  55              	.LFE1152:
  56              		.size	_ZN7sigslot15single_threaded6unlockEv, .-_ZN7sigslot15single_threaded6unlockEv
  57              		.section	.text._ZN10GuiElement9SetParentEPS_,"axG",@progbits,_ZN10GuiElement9SetParentEPS_,comdat
  58              		.align 2
  59              		.weak	_ZN10GuiElement9SetParentEPS_
  60              		.type	_ZN10GuiElement9SetParentEPS_, @function
  61              	_ZN10GuiElement9SetParentEPS_:
  62              	.LFB1384:
  63              		.file 2 "d:/Projects/SaveGameManager/savegame-manager-gx/trunk/source/Settings/menus/../../GUI/gui
  64              		.loc 2 92 0
  65              		.cfi_startproc
  66              	.LVL3:
  67              		.loc 2 92 0
  68 0000 90830060 		stw 4,96(3)
  69 0004 4E800020 		blr
  70              		.cfi_endproc
  71              	.LFE1384:
  72              		.size	_ZN10GuiElement9SetParentEPS_, .-_ZN10GuiElement9SetParentEPS_
  73              		.section	.text._ZN10GuiElement9GetParentEv,"axG",@progbits,_ZN10GuiElement9GetParentEv,comdat
  74              		.align 2
  75              		.weak	_ZN10GuiElement9GetParentEv
  76              		.type	_ZN10GuiElement9GetParentEv, @function
  77              	_ZN10GuiElement9GetParentEv:
  78              	.LFB1385:
  79              		.loc 2 95 0
  80              		.cfi_startproc
  81              	.LVL4:
  82              		.loc 2 95 0
  83 0000 80630060 		lwz 3,96(3)
  84              	.LVL5:
  85 0004 4E800020 		blr
  86              		.cfi_endproc
  87              	.LFE1385:
  88              		.size	_ZN10GuiElement9GetParentEv, .-_ZN10GuiElement9GetParentEv
  89              		.section	.text._ZN10GuiElement12GetZPositionEv,"axG",@progbits,_ZN10GuiElement12GetZPositionEv,com
  90              		.align 2
  91              		.weak	_ZN10GuiElement12GetZPositionEv
  92              		.type	_ZN10GuiElement12GetZPositionEv, @function
  93              	_ZN10GuiElement12GetZPositionEv:
  94              	.LFB1386:
  95              		.loc 2 106 0
  96              		.cfi_startproc
  97              	.LVL6:
  98 0000 7C0802A6 		mflr 0
  99 0004 9421FFF0 		stwu 1,-16(1)
 100              	.LCFI0:
 101              		.cfi_def_cfa_offset 16
 102              		.cfi_register 65, 0
 103 0008 93E1000C 		stw 31,12(1)
 104 000c 7C7F1B78 		mr 31,3
 105              		.cfi_offset 31, -4
 106 0010 90010014 		stw 0,20(1)
 107              	.LBB4145:
 108              		.loc 2 110 0
 109 0014 81630060 		lwz 11,96(3)
 110              		.loc 2 108 0
 111 0018 38600000 		li 3,0
 112              	.LVL7:
 113              		.loc 2 110 0
 114 001c 2F8B0000 		cmpwi 7,11,0
 115 0020 419E0018 		beq- 7,.L8
 116              		.cfi_offset 65, 4
 117              		.loc 2 111 0
 118 0024 812B0000 		lwz 9,0(11)
 119 0028 7D635B78 		mr 3,11
 120 002c 80090018 		lwz 0,24(9)
 121 0030 7C0903A6 		mtctr 0
 122 0034 4E800421 		bctrl
 123              	.LVL8:
 124              	.L8:
 125              		.loc 2 113 0
 126 0038 801F0034 		lwz 0,52(31)
 127              	.LBE4145:
 128              		.loc 2 114 0
 129 003c 83E1000C 		lwz 31,12(1)
 130              	.LVL9:
 131 0040 7C630214 		add 3,3,0
 132              	.LVL10:
 133 0044 80010014 		lwz 0,20(1)
 134 0048 38210010 		addi 1,1,16
 135              	.LCFI1:
 136              		.cfi_def_cfa_offset 0
 137              		.cfi_restore 31
 138 004c 7C0803A6 		mtlr 0
 139 0050 4E800020 		blr
 140              		.cfi_endproc
 141              	.LFE1386:
 142              		.size	_ZN10GuiElement12GetZPositionEv, .-_ZN10GuiElement12GetZPositionEv
 143              		.section	.text._ZN10GuiElement10GetLeftPosEv,"axG",@progbits,_ZN10GuiElement10GetLeftPosEv,comdat
 144              		.align 2
 145              		.weak	_ZN10GuiElement10GetLeftPosEv
 146              		.type	_ZN10GuiElement10GetLeftPosEv, @function
 147              	_ZN10GuiElement10GetLeftPosEv:
 148              	.LFB1387:
 149              		.loc 2 116 0
 150              		.cfi_startproc
 151              	.LVL11:
 152              		.loc 2 116 0
 153 0000 8063002C 		lwz 3,44(3)
 154              	.LVL12:
 155 0004 4E800020 		blr
 156              		.cfi_endproc
 157              	.LFE1387:
 158              		.size	_ZN10GuiElement10GetLeftPosEv, .-_ZN10GuiElement10GetLeftPosEv
 159              		.section	.text._ZN10GuiElement9GetTopPosEv,"axG",@progbits,_ZN10GuiElement9GetTopPosEv,comdat
 160              		.align 2
 161              		.weak	_ZN10GuiElement9GetTopPosEv
 162              		.type	_ZN10GuiElement9GetTopPosEv, @function
 163              	_ZN10GuiElement9GetTopPosEv:
 164              	.LFB1388:
 165              		.loc 2 118 0
 166              		.cfi_startproc
 167              	.LVL13:
 168              		.loc 2 118 0
 169 0000 80630030 		lwz 3,48(3)
 170              	.LVL14:
 171 0004 4E800020 		blr
 172              		.cfi_endproc
 173              	.LFE1388:
 174              		.size	_ZN10GuiElement9GetTopPosEv, .-_ZN10GuiElement9GetTopPosEv
 175              		.section	.text._ZN10GuiElement8GetWidthEv,"axG",@progbits,_ZN10GuiElement8GetWidthEv,comdat
 176              		.align 2
 177              		.weak	_ZN10GuiElement8GetWidthEv
 178              		.type	_ZN10GuiElement8GetWidthEv, @function
 179              	_ZN10GuiElement8GetWidthEv:
 180              	.LFB1389:
 181              		.loc 2 121 0
 182              		.cfi_startproc
 183              	.LVL15:
 184              		.loc 2 121 0
 185 0000 80630024 		lwz 3,36(3)
 186              	.LVL16:
 187 0004 4E800020 		blr
 188              		.cfi_endproc
 189              	.LFE1389:
 190              		.size	_ZN10GuiElement8GetWidthEv, .-_ZN10GuiElement8GetWidthEv
 191              		.section	.text._ZN10GuiElement9GetHeightEv,"axG",@progbits,_ZN10GuiElement9GetHeightEv,comdat
 192              		.align 2
 193              		.weak	_ZN10GuiElement9GetHeightEv
 194              		.type	_ZN10GuiElement9GetHeightEv, @function
 195              	_ZN10GuiElement9GetHeightEv:
 196              	.LFB1390:
 197              		.loc 2 124 0
 198              		.cfi_startproc
 199              	.LVL17:
 200              		.loc 2 124 0
 201 0000 80630028 		lwz 3,40(3)
 202              	.LVL18:
 203 0004 4E800020 		blr
 204              		.cfi_endproc
 205              	.LFE1390:
 206              		.size	_ZN10GuiElement9GetHeightEv, .-_ZN10GuiElement9GetHeightEv
 207              		.section	.text._ZN10GuiElement7SetSizeEii,"axG",@progbits,_ZN10GuiElement7SetSizeEii,comdat
 208              		.align 2
 209              		.weak	_ZN10GuiElement7SetSizeEii
 210              		.type	_ZN10GuiElement7SetSizeEii, @function
 211              	_ZN10GuiElement7SetSizeEii:
 212              	.LFB1391:
 213              		.loc 2 128 0
 214              		.cfi_startproc
 215              	.LVL19:
 216              		.loc 2 130 0
 217 0000 90830024 		stw 4,36(3)
 218              		.loc 2 132 0
 219              		.loc 2 131 0
 220 0004 90A30028 		stw 5,40(3)
 221              		.loc 2 132 0
 222 0008 4E800020 		blr
 223              		.cfi_endproc
 224              	.LFE1391:
 225              		.size	_ZN10GuiElement7SetSizeEii, .-_ZN10GuiElement7SetSizeEii
 226              		.section	.text._ZN10GuiElement9IsVisibleEv,"axG",@progbits,_ZN10GuiElement9IsVisibleEv,comdat
 227              		.align 2
 228              		.weak	_ZN10GuiElement9IsVisibleEv
 229              		.type	_ZN10GuiElement9IsVisibleEv, @function
 230              	_ZN10GuiElement9IsVisibleEv:
 231              	.LFB1393:
 232              		.loc 2 142 0
 233              		.cfi_startproc
 234              	.LVL20:
 235              		.loc 2 142 0
 236 0000 8863001D 		lbz 3,29(3)
 237              	.LVL21:
 238 0004 4E800020 		blr
 239              		.cfi_endproc
 240              	.LFE1393:
 241              		.size	_ZN10GuiElement9IsVisibleEv, .-_ZN10GuiElement9IsVisibleEv
 242              		.section	.text._ZN10GuiElement12IsSelectableEv,"axG",@progbits,_ZN10GuiElement12IsSelectableEv,com
 243              		.align 2
 244              		.weak	_ZN10GuiElement12IsSelectableEv
 245              		.type	_ZN10GuiElement12IsSelectableEv, @function
 246              	_ZN10GuiElement12IsSelectableEv:
 247              	.LFB1394:
 248              		.loc 2 145 0
 249              		.cfi_startproc
 250              	.LVL22:
 251              		.loc 2 149 0
 252 0000 80030048 		lwz 0,72(3)
 253 0004 39200000 		li 9,0
 254 0008 2F800004 		cmpwi 7,0,4
 255 000c 419E0010 		beq- 7,.L18
 256              		.loc 2 149 0 is_stmt 0 discriminator 1
 257 0010 2F800002 		cmpwi 7,0,2
 258 0014 419E0008 		beq- 7,.L18
 259              		.loc 2 149 0 discriminator 3
 260 0018 8923001E 		lbz 9,30(3)
 261              	.L18:
 262              		.loc 2 150 0 is_stmt 1 discriminator 5
 263 001c 7D234B78 		mr 3,9
 264              	.LVL23:
 265 0020 4E800020 		blr
 266              		.cfi_endproc
 267              	.LFE1394:
 268              		.size	_ZN10GuiElement12IsSelectableEv, .-_ZN10GuiElement12IsSelectableEv
 269              		.section	.text._ZN10GuiElement11IsClickableEv,"axG",@progbits,_ZN10GuiElement11IsClickableEv,comda
 270              		.align 2
 271              		.weak	_ZN10GuiElement11IsClickableEv
 272              		.type	_ZN10GuiElement11IsClickableEv, @function
 273              	_ZN10GuiElement11IsClickableEv:
 274              	.LFB1395:
 275              		.loc 2 153 0
 276              		.cfi_startproc
 277              	.LVL24:
 278              		.loc 2 158 0
 279 0000 80030048 		lwz 0,72(3)
 280 0004 39200000 		li 9,0
 281 0008 2F800004 		cmpwi 7,0,4
 282 000c 419E0018 		beq- 7,.L22
 283              		.loc 2 158 0 is_stmt 0 discriminator 1
 284 0010 2F800002 		cmpwi 7,0,2
 285 0014 419E0010 		beq- 7,.L22
 286              		.loc 2 158 0 discriminator 3
 287 0018 2F800003 		cmpwi 7,0,3
 288 001c 419E0008 		beq- 7,.L22
 289              		.loc 2 158 0 discriminator 4
 290 0020 8923001F 		lbz 9,31(3)
 291              	.L22:
 292              		.loc 2 159 0 is_stmt 1 discriminator 6
 293 0024 7D234B78 		mr 3,9
 294              	.LVL25:
 295 0028 4E800020 		blr
 296              		.cfi_endproc
 297              	.LFE1395:
 298              		.size	_ZN10GuiElement11IsClickableEv, .-_ZN10GuiElement11IsClickableEv
 299              		.section	.text._ZN10GuiElement10IsHoldableEv,"axG",@progbits,_ZN10GuiElement10IsHoldableEv,comdat
 300              		.align 2
 301              		.weak	_ZN10GuiElement10IsHoldableEv
 302              		.type	_ZN10GuiElement10IsHoldableEv, @function
 303              	_ZN10GuiElement10IsHoldableEv:
 304              	.LFB1396:
 305              		.loc 2 162 0
 306              		.cfi_startproc
 307              	.LVL26:
 308              		.loc 2 162 0
 309 0000 81230048 		lwz 9,72(3)
 310 0004 38000000 		li 0,0
 311 0008 2F890004 		cmpwi 7,9,4
 312 000c 419E0008 		beq- 7,.L27
 313              		.loc 2 162 0 is_stmt 0 discriminator 1
 314 0010 88030020 		lbz 0,32(3)
 315              	.L27:
 316              		.loc 2 162 0 discriminator 4
 317 0014 7C030378 		mr 3,0
 318              	.LVL27:
 319 0018 4E800020 		blr
 320              		.cfi_endproc
 321              	.LFE1396:
 322              		.size	_ZN10GuiElement10IsHoldableEv, .-_ZN10GuiElement10IsHoldableEv
 323              		.section	.text._ZN10GuiElement13SetSelectableEb,"axG",@progbits,_ZN10GuiElement13SetSelectableEb,c
 324              		.align 2
 325              		.weak	_ZN10GuiElement13SetSelectableEb
 326              		.type	_ZN10GuiElement13SetSelectableEb, @function
 327              	_ZN10GuiElement13SetSelectableEb:
 328              	.LFB1397:
 329              		.loc 2 165 0 is_stmt 1
 330              		.cfi_startproc
 331              	.LVL28:
 332              		.loc 2 165 0
 333 0000 9883001E 		stb 4,30(3)
 334 0004 4E800020 		blr
 335              		.cfi_endproc
 336              	.LFE1397:
 337              		.size	_ZN10GuiElement13SetSelectableEb, .-_ZN10GuiElement13SetSelectableEb
 338              		.section	.text._ZN10GuiElement12SetClickableEb,"axG",@progbits,_ZN10GuiElement12SetClickableEb,com
 339              		.align 2
 340              		.weak	_ZN10GuiElement12SetClickableEb
 341              		.type	_ZN10GuiElement12SetClickableEb, @function
 342              	_ZN10GuiElement12SetClickableEb:
 343              	.LFB1398:
 344              		.loc 2 168 0
 345              		.cfi_startproc
 346              	.LVL29:
 347              		.loc 2 168 0
 348 0000 9883001F 		stb 4,31(3)
 349 0004 4E800020 		blr
 350              		.cfi_endproc
 351              	.LFE1398:
 352              		.size	_ZN10GuiElement12SetClickableEb, .-_ZN10GuiElement12SetClickableEb
 353              		.section	.text._ZN10GuiElement11SetHoldableEb,"axG",@progbits,_ZN10GuiElement11SetHoldableEb,comda
 354              		.align 2
 355              		.weak	_ZN10GuiElement11SetHoldableEb
 356              		.type	_ZN10GuiElement11SetHoldableEb, @function
 357              	_ZN10GuiElement11SetHoldableEb:
 358              	.LFB1399:
 359              		.loc 2 171 0
 360              		.cfi_startproc
 361              	.LVL30:
 362              		.loc 2 171 0
 363 0000 98830020 		stb 4,32(3)
 364 0004 4E800020 		blr
 365              		.cfi_endproc
 366              	.LFE1399:
 367              		.size	_ZN10GuiElement11SetHoldableEb, .-_ZN10GuiElement11SetHoldableEb
 368              		.section	.text._ZN10GuiElement8GetStateEv,"axG",@progbits,_ZN10GuiElement8GetStateEv,comdat
 369              		.align 2
 370              		.weak	_ZN10GuiElement8GetStateEv
 371              		.type	_ZN10GuiElement8GetStateEv, @function
 372              	_ZN10GuiElement8GetStateEv:
 373              	.LFB1400:
 374              		.loc 2 178 0
 375              		.cfi_startproc
 376              	.LVL31:
 377              		.loc 2 178 0
 378 0000 80630048 		lwz 3,72(3)
 379              	.LVL32:
 380 0004 4E800020 		blr
 381              		.cfi_endproc
 382              	.LFE1400:
 383              		.size	_ZN10GuiElement8GetStateEv, .-_ZN10GuiElement8GetStateEv
 384              		.section	.text._ZN10GuiElement12GetStateChanEv,"axG",@progbits,_ZN10GuiElement12GetStateChanEv,com
 385              		.align 2
 386              		.weak	_ZN10GuiElement12GetStateChanEv
 387              		.type	_ZN10GuiElement12GetStateChanEv, @function
 388              	_ZN10GuiElement12GetStateChanEv:
 389              	.LFB1401:
 390              		.loc 2 181 0
 391              		.cfi_startproc
 392              	.LVL33:
 393              		.loc 2 181 0
 394 0000 8063004C 		lwz 3,76(3)
 395              	.LVL34:
 396 0004 4E800020 		blr
 397              		.cfi_endproc
 398              	.LFE1401:
 399              		.size	_ZN10GuiElement12GetStateChanEv, .-_ZN10GuiElement12GetStateChanEv
 400              		.section	.text._ZN10GuiElement8SetAlphaEi,"axG",@progbits,_ZN10GuiElement8SetAlphaEi,comdat
 401              		.align 2
 402              		.weak	_ZN10GuiElement8SetAlphaEi
 403              		.type	_ZN10GuiElement8SetAlphaEi, @function
 404              	_ZN10GuiElement8SetAlphaEi:
 405              	.LFB1403:
 406              		.loc 2 190 0
 407              		.cfi_startproc
 408              	.LVL35:
 409              		.loc 2 190 0
 410 0000 90830038 		stw 4,56(3)
 411 0004 4E800020 		blr
 412              		.cfi_endproc
 413              	.LFE1403:
 414              		.size	_ZN10GuiElement8SetAlphaEi, .-_ZN10GuiElement8SetAlphaEi
 415              		.section	.text._ZN10GuiElement8GetAlphaEv,"axG",@progbits,_ZN10GuiElement8GetAlphaEv,comdat
 416              		.align 2
 417              		.weak	_ZN10GuiElement8GetAlphaEv
 418              		.type	_ZN10GuiElement8GetAlphaEv, @function
 419              	_ZN10GuiElement8GetAlphaEv:
 420              	.LFB1404:
 421              		.loc 2 194 0
 422              		.cfi_startproc
 423              	.LVL36:
 424 0000 7C0802A6 		mflr 0
 425 0004 9421FFD8 		stwu 1,-40(1)
 426              	.LCFI2:
 427              		.cfi_def_cfa_offset 40
 428              		.cfi_register 65, 0
 429 0008 93E10024 		stw 31,36(1)
 430 000c 9001002C 		stw 0,44(1)
 431              	.LBB4146:
 432              		.loc 2 198 0
 433 0010 83E3006C 		lwz 31,108(3)
 434              		.cfi_offset 65, 4
 435              		.cfi_offset 31, -4
 436 0014 2F9F0000 		cmpwi 7,31,0
 437 0018 419C0094 		blt- 7,.L38
 438              	.L36:
 439              	.LVL37:
 440              		.loc 2 203 0
 441 001c 80630060 		lwz 3,96(3)
 442              	.LVL38:
 443 0020 2F830000 		cmpwi 7,3,0
 444 0024 419E0070 		beq- 7,.L37
 445              		.loc 2 204 0
 446 0028 81230000 		lwz 9,0(3)
 447 002c 6FFF8000 		xoris 31,31,0x8000
 448              	.LVL39:
 449 0030 80090064 		lwz 0,100(9)
 450 0034 7C0903A6 		mtctr 0
 451 0038 4E800421 		bctrl
 452 003c 3C004330 		lis 0,0x4330
 453 0040 6C638000 		xoris 3,3,0x8000
 454 0044 90010010 		stw 0,16(1)
 455 0048 90610014 		stw 3,20(1)
 456 004c 3D200000 		lis 9,.LC1@ha
 457 0050 C0090000 		lfs 0,.LC1@l(9)
 458 0054 3D200000 		lis 9,.LC2@ha
 459 0058 C9A10010 		lfd 13,16(1)
 460 005c C1890004 		lfs 12,.LC2@l(9)
 461 0060 39210018 		addi 9,1,24
 462 0064 FDAD0028 		fsub 13,13,0
 463 0068 93E1000C 		stw 31,12(1)
 464 006c 90010008 		stw 0,8(1)
 465 0070 FDA06818 		frsp 13,13
 466 0074 EDAD6024 		fdivs 13,13,12
 467 0078 C9810008 		lfd 12,8(1)
 468 007c FC0C0028 		fsub 0,12,0
 469 0080 FC000018 		frsp 0,0
 470 0084 EC000372 		fmuls 0,0,13
 471 0088 FC00001E 		fctiwz 0,0
 472 008c 7C004FAE 		stfiwx 0,0,9
 473 0090 83E10018 		lwz 31,24(1)
 474              	.LVL40:
 475              	.L37:
 476              	.LBE4146:
 477              		.loc 2 207 0
 478 0094 8001002C 		lwz 0,44(1)
 479 0098 7FE3FB78 		mr 3,31
 480 009c 83E10024 		lwz 31,36(1)
 481              	.LVL41:
 482 00a0 7C0803A6 		mtlr 0
 483 00a4 38210028 		addi 1,1,40
 484              		.cfi_remember_state
 485              	.LCFI3:
 486              		.cfi_def_cfa_offset 0
 487              		.cfi_restore 31
 488 00a8 4E800020 		blr
 489              	.LVL42:
 490              	.L38:
 491              	.LCFI4:
 492              		.cfi_restore_state
 493              	.LBB4147:
 494              		.loc 2 201 0
 495 00ac 83E30038 		lwz 31,56(3)
 496              	.LVL43:
 497 00b0 4BFFFF6C 		b .L36
 498              	.LBE4147:
 499              		.cfi_endproc
 500              	.LFE1404:
 501              		.size	_ZN10GuiElement8GetAlphaEv, .-_ZN10GuiElement8GetAlphaEv
 502              		.section	.text._ZN10GuiElement8SetScaleEf,"axG",@progbits,_ZN10GuiElement8SetScaleEf,comdat
 503              		.align 2
 504              		.weak	_ZN10GuiElement8SetScaleEf
 505              		.type	_ZN10GuiElement8SetScaleEf, @function
 506              	_ZN10GuiElement8SetScaleEf:
 507              	.LFB1405:
 508              		.loc 2 210 0
 509              		.cfi_startproc
 510              	.LVL44:
 511              		.loc 2 212 0
 512 0000 D023003C 		stfs 1,60(3)
 513              		.loc 2 214 0
 514              		.loc 2 213 0
 515 0004 D0230040 		stfs 1,64(3)
 516              		.loc 2 214 0
 517 0008 4E800020 		blr
 518              		.cfi_endproc
 519              	.LFE1405:
 520              		.size	_ZN10GuiElement8SetScaleEf, .-_ZN10GuiElement8SetScaleEf
 521              		.section	.text._ZN10GuiElement9SetScaleXEf,"axG",@progbits,_ZN10GuiElement9SetScaleXEf,comdat
 522              		.align 2
 523              		.weak	_ZN10GuiElement9SetScaleXEf
 524              		.type	_ZN10GuiElement9SetScaleXEf, @function
 525              	_ZN10GuiElement9SetScaleXEf:
 526              	.LFB1406:
 527              		.loc 2 217 0
 528              		.cfi_startproc
 529              	.LVL45:
 530              		.loc 2 217 0
 531 0000 D023003C 		stfs 1,60(3)
 532 0004 4E800020 		blr
 533              		.cfi_endproc
 534              	.LFE1406:
 535              		.size	_ZN10GuiElement9SetScaleXEf, .-_ZN10GuiElement9SetScaleXEf
 536              		.section	.text._ZN10GuiElement9SetScaleYEf,"axG",@progbits,_ZN10GuiElement9SetScaleYEf,comdat
 537              		.align 2
 538              		.weak	_ZN10GuiElement9SetScaleYEf
 539              		.type	_ZN10GuiElement9SetScaleYEf, @function
 540              	_ZN10GuiElement9SetScaleYEf:
 541              	.LFB1407:
 542              		.loc 2 220 0
 543              		.cfi_startproc
 544              	.LVL46:
 545              		.loc 2 220 0
 546 0000 D0230040 		stfs 1,64(3)
 547 0004 4E800020 		blr
 548              		.cfi_endproc
 549              	.LFE1407:
 550              		.size	_ZN10GuiElement9SetScaleYEf, .-_ZN10GuiElement9SetScaleYEf
 551              		.section	.text._ZN10GuiElement8GetScaleEv,"axG",@progbits,_ZN10GuiElement8GetScaleEv,comdat
 552              		.align 2
 553              		.weak	_ZN10GuiElement8GetScaleEv
 554              		.type	_ZN10GuiElement8GetScaleEv, @function
 555              	_ZN10GuiElement8GetScaleEv:
 556              	.LFB1408:
 557              		.loc 2 223 0
 558              		.cfi_startproc
 559              	.LVL47:
 560 0000 7C0802A6 		mflr 0
 561 0004 9421FFF0 		stwu 1,-16(1)
 562              	.LCFI5:
 563              		.cfi_def_cfa_offset 16
 564              		.cfi_register 65, 0
 565              	.LBB4148:
 566              		.loc 2 225 0
 567 0008 3D200000 		lis 9,.LC3@ha
 568              	.LBE4148:
 569              		.loc 2 223 0
 570 000c DBE10008 		stfd 31,8(1)
 571 0010 90010014 		stw 0,20(1)
 572              	.LBB4149:
 573              		.loc 2 225 0
 574 0014 C0030040 		lfs 0,64(3)
 575 0018 C3E3003C 		lfs 31,60(3)
 576              		.cfi_offset 65, 4
 577              		.cfi_offset 63, -8
 578              		.loc 2 227 0
 579 001c 81630060 		lwz 11,96(3)
 580              		.loc 2 225 0
 581 0020 EFFF002A 		fadds 31,31,0
 582 0024 C0090008 		lfs 0,.LC3@l(9)
 583              		.loc 2 227 0
 584 0028 2F8B0000 		cmpwi 7,11,0
 585              		.loc 2 225 0
 586 002c EFFF0032 		fmuls 31,31,0
 587 0030 C0030070 		lfs 0,112(3)
 588 0034 EFFF0032 		fmuls 31,31,0
 589              	.LVL48:
 590              		.loc 2 227 0
 591 0038 419E001C 		beq- 7,.L43
 592              		.loc 2 228 0
 593 003c 812B0000 		lwz 9,0(11)
 594 0040 7D635B78 		mr 3,11
 595              	.LVL49:
 596 0044 80090074 		lwz 0,116(9)
 597 0048 7C0903A6 		mtctr 0
 598 004c 4E800421 		bctrl
 599 0050 EFFF0072 		fmuls 31,31,1
 600              	.LVL50:
 601              	.L43:
 602              	.LBE4149:
 603              		.loc 2 231 0
 604 0054 80010014 		lwz 0,20(1)
 605 0058 FC20F890 		fmr 1,31
 606 005c CBE10008 		lfd 31,8(1)
 607              	.LVL51:
 608 0060 7C0803A6 		mtlr 0
 609 0064 38210010 		addi 1,1,16
 610              	.LCFI6:
 611              		.cfi_def_cfa_offset 0
 612              		.cfi_restore 63
 613 0068 4E800020 		blr
 614              		.cfi_endproc
 615              	.LFE1408:
 616              		.size	_ZN10GuiElement8GetScaleEv, .-_ZN10GuiElement8GetScaleEv
 617              		.section	.text._ZN10GuiElement9GetScaleXEv,"axG",@progbits,_ZN10GuiElement9GetScaleXEv,comdat
 618              		.align 2
 619              		.weak	_ZN10GuiElement9GetScaleXEv
 620              		.type	_ZN10GuiElement9GetScaleXEv, @function
 621              	_ZN10GuiElement9GetScaleXEv:
 622              	.LFB1409:
 623              		.loc 2 234 0
 624              		.cfi_startproc
 625              	.LVL52:
 626 0000 7C0802A6 		mflr 0
 627 0004 9421FFF0 		stwu 1,-16(1)
 628              	.LCFI7:
 629              		.cfi_def_cfa_offset 16
 630              		.cfi_register 65, 0
 631 0008 DBE10008 		stfd 31,8(1)
 632 000c 90010014 		stw 0,20(1)
 633              	.LBB4150:
 634              		.loc 2 238 0
 635 0010 81630060 		lwz 11,96(3)
 636              		.loc 2 236 0
 637 0014 C3E3003C 		lfs 31,60(3)
 638              		.cfi_offset 65, 4
 639              		.cfi_offset 63, -8
 640              		.loc 2 238 0
 641 0018 2F8B0000 		cmpwi 7,11,0
 642              		.loc 2 236 0
 643 001c C0030070 		lfs 0,112(3)
 644 0020 EFFF0032 		fmuls 31,31,0
 645              	.LVL53:
 646              		.loc 2 238 0
 647 0024 419E001C 		beq- 7,.L45
 648              		.loc 2 239 0
 649 0028 812B0000 		lwz 9,0(11)
 650 002c 7D635B78 		mr 3,11
 651              	.LVL54:
 652 0030 80090078 		lwz 0,120(9)
 653 0034 7C0903A6 		mtctr 0
 654 0038 4E800421 		bctrl
 655 003c EFFF0072 		fmuls 31,31,1
 656              	.LVL55:
 657              	.L45:
 658              	.LBE4150:
 659              		.loc 2 242 0
 660 0040 80010014 		lwz 0,20(1)
 661 0044 FC20F890 		fmr 1,31
 662 0048 CBE10008 		lfd 31,8(1)
 663              	.LVL56:
 664 004c 7C0803A6 		mtlr 0
 665 0050 38210010 		addi 1,1,16
 666              	.LCFI8:
 667              		.cfi_def_cfa_offset 0
 668              		.cfi_restore 63
 669 0054 4E800020 		blr
 670              		.cfi_endproc
 671              	.LFE1409:
 672              		.size	_ZN10GuiElement9GetScaleXEv, .-_ZN10GuiElement9GetScaleXEv
 673              		.section	.text._ZN10GuiElement9GetScaleYEv,"axG",@progbits,_ZN10GuiElement9GetScaleYEv,comdat
 674              		.align 2
 675              		.weak	_ZN10GuiElement9GetScaleYEv
 676              		.type	_ZN10GuiElement9GetScaleYEv, @function
 677              	_ZN10GuiElement9GetScaleYEv:
 678              	.LFB1410:
 679              		.loc 2 245 0
 680              		.cfi_startproc
 681              	.LVL57:
 682 0000 7C0802A6 		mflr 0
 683 0004 9421FFF0 		stwu 1,-16(1)
 684              	.LCFI9:
 685              		.cfi_def_cfa_offset 16
 686              		.cfi_register 65, 0
 687 0008 DBE10008 		stfd 31,8(1)
 688 000c 90010014 		stw 0,20(1)
 689              	.LBB4151:
 690              		.loc 2 249 0
 691 0010 81630060 		lwz 11,96(3)
 692              		.loc 2 247 0
 693 0014 C3E30040 		lfs 31,64(3)
 694              		.cfi_offset 65, 4
 695              		.cfi_offset 63, -8
 696              		.loc 2 249 0
 697 0018 2F8B0000 		cmpwi 7,11,0
 698              		.loc 2 247 0
 699 001c C0030070 		lfs 0,112(3)
 700 0020 EFFF0032 		fmuls 31,31,0
 701              	.LVL58:
 702              		.loc 2 249 0
 703 0024 419E001C 		beq- 7,.L47
 704              		.loc 2 250 0
 705 0028 812B0000 		lwz 9,0(11)
 706 002c 7D635B78 		mr 3,11
 707              	.LVL59:
 708 0030 8009007C 		lwz 0,124(9)
 709 0034 7C0903A6 		mtctr 0
 710 0038 4E800421 		bctrl
 711 003c EFFF0072 		fmuls 31,31,1
 712              	.LVL60:
 713              	.L47:
 714              	.LBE4151:
 715              		.loc 2 253 0
 716 0040 80010014 		lwz 0,20(1)
 717 0044 FC20F890 		fmr 1,31
 718 0048 CBE10008 		lfd 31,8(1)
 719              	.LVL61:
 720 004c 7C0803A6 		mtlr 0
 721 0050 38210010 		addi 1,1,16
 722              	.LCFI10:
 723              		.cfi_def_cfa_offset 0
 724              		.cfi_restore 63
 725 0054 4E800020 		blr
 726              		.cfi_endproc
 727              	.LFE1410:
 728              		.size	_ZN10GuiElement9GetScaleYEv, .-_ZN10GuiElement9GetScaleYEv
 729              		.section	.text._ZN10GuiElement6RumbleEv,"axG",@progbits,_ZN10GuiElement6RumbleEv,comdat
 730              		.align 2
 731              		.weak	_ZN10GuiElement6RumbleEv
 732              		.type	_ZN10GuiElement6RumbleEv, @function
 733              	_ZN10GuiElement6RumbleEv:
 734              	.LFB1411:
 735              		.loc 2 256 0
 736              		.cfi_startproc
 737              	.LVL62:
 738              		.loc 2 256 0
 739 0000 8863001C 		lbz 3,28(3)
 740              	.LVL63:
 741 0004 4E800020 		blr
 742              		.cfi_endproc
 743              	.LFE1411:
 744              		.size	_ZN10GuiElement6RumbleEv, .-_ZN10GuiElement6RumbleEv
 745              		.section	.text._ZN10GuiElement9SetRumbleEb,"axG",@progbits,_ZN10GuiElement9SetRumbleEb,comdat
 746              		.align 2
 747              		.weak	_ZN10GuiElement9SetRumbleEb
 748              		.type	_ZN10GuiElement9SetRumbleEb, @function
 749              	_ZN10GuiElement9SetRumbleEb:
 750              	.LFB1412:
 751              		.loc 2 259 0
 752              		.cfi_startproc
 753              	.LVL64:
 754              		.loc 2 259 0
 755 0000 9883001C 		stb 4,28(3)
 756 0004 4E800020 		blr
 757              		.cfi_endproc
 758              	.LFE1412:
 759              		.size	_ZN10GuiElement9SetRumbleEb, .-_ZN10GuiElement9SetRumbleEb
 760              		.section	.text._ZN10GuiElement13SetEffectGrowEv,"axG",@progbits,_ZN10GuiElement13SetEffectGrowEv,c
 761              		.align 2
 762              		.weak	_ZN10GuiElement13SetEffectGrowEv
 763              		.type	_ZN10GuiElement13SetEffectGrowEv, @function
 764              	_ZN10GuiElement13SetEffectGrowEv:
 765              	.LFB1413:
 766              		.loc 2 271 0
 767              		.cfi_startproc
 768              	.LVL65:
 769 0000 7C0802A6 		mflr 0
 770 0004 9421FFF8 		stwu 1,-8(1)
 771              	.LCFI11:
 772              		.cfi_def_cfa_offset 8
 773              		.cfi_register 65, 0
 774 0008 81230000 		lwz 9,0(3)
 775 000c 38800100 		li 4,256
 776 0010 38A00004 		li 5,4
 777 0014 38C0006E 		li 6,110
 778 0018 9001000C 		stw 0,12(1)
 779              		.loc 2 271 0
 780 001c 8009008C 		lwz 0,140(9)
 781              		.cfi_offset 65, 4
 782 0020 7C0903A6 		mtctr 0
 783 0024 4E800421 		bctrl
 784              	.LVL66:
 785 0028 8001000C 		lwz 0,12(1)
 786 002c 38210008 		addi 1,1,8
 787              	.LCFI12:
 788              		.cfi_def_cfa_offset 0
 789 0030 7C0803A6 		mtlr 0
 790 0034 4E800020 		blr
 791              		.cfi_endproc
 792              	.LFE1413:
 793              		.size	_ZN10GuiElement13SetEffectGrowEv, .-_ZN10GuiElement13SetEffectGrowEv
 794              		.section	.text._ZNK10GuiElement9GetEffectEv,"axG",@progbits,_ZNK10GuiElement9GetEffectEv,comdat
 795              		.align 2
 796              		.weak	_ZNK10GuiElement9GetEffectEv
 797              		.type	_ZNK10GuiElement9GetEffectEv, @function
 798              	_ZNK10GuiElement9GetEffectEv:
 799              	.LFB1414:
 800              		.loc 2 276 0
 801              		.cfi_startproc
 802              	.LVL67:
 803              		.loc 2 276 0
 804 0000 80630078 		lwz 3,120(3)
 805              	.LVL68:
 806 0004 4E800020 		blr
 807              		.cfi_endproc
 808              	.LFE1414:
 809              		.size	_ZNK10GuiElement9GetEffectEv, .-_ZNK10GuiElement9GetEffectEv
 810              		.section	.text._ZNK10GuiElement10IsAnimatedEv,"axG",@progbits,_ZNK10GuiElement10IsAnimatedEv,comda
 811              		.align 2
 812              		.weak	_ZNK10GuiElement10IsAnimatedEv
 813              		.type	_ZNK10GuiElement10IsAnimatedEv, @function
 814              	_ZNK10GuiElement10IsAnimatedEv:
 815              	.LFB1415:
 816              		.loc 2 278 0
 817              		.cfi_startproc
 818              	.LVL69:
 819 0000 7C0802A6 		mflr 0
 820 0004 9421FFF8 		stwu 1,-8(1)
 821              	.LCFI13:
 822              		.cfi_def_cfa_offset 8
 823              		.cfi_register 65, 0
 824 0008 9001000C 		stw 0,12(1)
 825              		.loc 2 278 0
 826 000c 81230000 		lwz 9,0(3)
 827 0010 80090098 		lwz 0,152(9)
 828              		.cfi_offset 65, 4
 829 0014 7C0903A6 		mtctr 0
 830 0018 4E800421 		bctrl
 831              	.LVL70:
 832 001c 7C60FE70 		srawi 0,3,31
 833 0020 7C630050 		subf 3,3,0
 834 0024 8001000C 		lwz 0,12(1)
 835 0028 54630FFE 		srwi 3,3,31
 836 002c 7C0803A6 		mtlr 0
 837 0030 38210008 		addi 1,1,8
 838              	.LCFI14:
 839              		.cfi_def_cfa_offset 0
 840 0034 4E800020 		blr
 841              		.cfi_endproc
 842              	.LFE1415:
 843              		.size	_ZNK10GuiElement10IsAnimatedEv, .-_ZNK10GuiElement10IsAnimatedEv
 844              		.section	.text._ZN10GuiElement8IsInsideEii,"axG",@progbits,_ZN10GuiElement8IsInsideEii,comdat
 845              		.align 2
 846              		.weak	_ZN10GuiElement8IsInsideEii
 847              		.type	_ZN10GuiElement8IsInsideEii, @function
 848              	_ZN10GuiElement8IsInsideEii:
 849              	.LFB1417:
 850              		.loc 2 285 0
 851              		.cfi_startproc
 852              	.LVL71:
 853 0000 7C0802A6 		mflr 0
 854 0004 9421FFE8 		stwu 1,-24(1)
 855              	.LCFI15:
 856              		.cfi_def_cfa_offset 24
 857              		.cfi_register 65, 0
 858 0008 93810008 		stw 28,8(1)
 859 000c 7CBC2B78 		mr 28,5
 860              		.cfi_offset 28, -16
 861 0010 9001001C 		stw 0,28(1)
 862 0014 93A1000C 		stw 29,12(1)
 863              		.loc 2 290 0
 864 0018 3BA00000 		li 29,0
 865              		.cfi_offset 29, -12
 866              		.cfi_offset 65, 4
 867              		.loc 2 287 0
 868 001c 81230000 		lwz 9,0(3)
 869              		.loc 2 285 0
 870 0020 93C10010 		stw 30,16(1)
 871 0024 7C9E2378 		mr 30,4
 872              		.cfi_offset 30, -8
 873              		.loc 2 287 0
 874 0028 80090010 		lwz 0,16(9)
 875              		.loc 2 285 0
 876 002c 93E10014 		stw 31,20(1)
 877              		.loc 2 285 0
 878 0030 7C7F1B78 		mr 31,3
 879              		.cfi_offset 31, -4
 880              		.loc 2 287 0
 881 0034 7C0903A6 		mtctr 0
 882 0038 4E800421 		bctrl
 883              	.LVL72:
 884              		.loc 2 290 0
 885 003c 7F83F000 		cmpw 7,3,30
 886 0040 419C0028 		blt- 7,.L58
 887              	.L54:
 888              		.loc 2 291 0 discriminator 6
 889 0044 8001001C 		lwz 0,28(1)
 890 0048 7FA3EB78 		mr 3,29
 891 004c 83810008 		lwz 28,8(1)
 892              	.LVL73:
 893 0050 7C0803A6 		mtlr 0
 894 0054 83A1000C 		lwz 29,12(1)
 895 0058 83C10010 		lwz 30,16(1)
 896              	.LVL74:
 897 005c 83E10014 		lwz 31,20(1)
 898              	.LVL75:
 899 0060 38210018 		addi 1,1,24
 900              		.cfi_remember_state
 901              	.LCFI16:
 902              		.cfi_def_cfa_offset 0
 903              		.cfi_restore 31
 904              		.cfi_restore 30
 905              		.cfi_restore 29
 906              		.cfi_restore 28
 907 0064 4E800020 		blr
 908              	.LVL76:
 909              	.L58:
 910              	.LCFI17:
 911              		.cfi_restore_state
 912              		.loc 2 288 0 discriminator 1
 913 0068 813F0000 		lwz 9,0(31)
 914 006c 7FE3FB78 		mr 3,31
 915 0070 80090010 		lwz 0,16(9)
 916 0074 7C0903A6 		mtctr 0
 917 0078 4E800421 		bctrl
 918              		.loc 2 290 0 discriminator 1
 919 007c 801F0024 		lwz 0,36(31)
 920 0080 7C030214 		add 0,3,0
 921 0084 7F9E0000 		cmpw 7,30,0
 922 0088 409CFFBC 		bge+ 7,.L54
 923              		.loc 2 289 0 discriminator 3
 924 008c 813F0000 		lwz 9,0(31)
 925 0090 7FE3FB78 		mr 3,31
 926 0094 80090014 		lwz 0,20(9)
 927 0098 7C0903A6 		mtctr 0
 928 009c 4E800421 		bctrl
 929              		.loc 2 290 0 discriminator 3
 930 00a0 7F83E000 		cmpw 7,3,28
 931 00a4 409CFFA0 		bge+ 7,.L54
 932              		.loc 2 290 0 is_stmt 0 discriminator 4
 933 00a8 813F0000 		lwz 9,0(31)
 934 00ac 7FE3FB78 		mr 3,31
 935 00b0 80090014 		lwz 0,20(9)
 936 00b4 7C0903A6 		mtctr 0
 937 00b8 4E800421 		bctrl
 938 00bc 801F0028 		lwz 0,40(31)
 939 00c0 7C030214 		add 0,3,0
 940              		.loc 2 285 0 is_stmt 1 discriminator 4
 941 00c4 7F9C0000 		cmpw 7,28,0
 942 00c8 7FA00026 		mfcr 29
 943 00cc 57BDEFFE 		rlwinm 29,29,29,1
 944 00d0 4BFFFF74 		b .L54
 945              		.cfi_endproc
 946              	.LFE1417:
 947              		.size	_ZN10GuiElement8IsInsideEii, .-_ZN10GuiElement8IsInsideEii
 948              		.section	.text._ZN10GuiElement11SetPositionEii,"axG",@progbits,_ZN10GuiElement11SetPositionEii,com
 949              		.align 2
 950              		.weak	_ZN10GuiElement11SetPositionEii
 951              		.type	_ZN10GuiElement11SetPositionEii, @function
 952              	_ZN10GuiElement11SetPositionEii:
 953              	.LFB1418:
 954              		.loc 2 295 0
 955              		.cfi_startproc
 956              	.LVL77:
 957              		.loc 2 297 0
 958 0000 9083002C 		stw 4,44(3)
 959              		.loc 2 299 0
 960              		.loc 2 298 0
 961 0004 90A30030 		stw 5,48(3)
 962              		.loc 2 299 0
 963 0008 4E800020 		blr
 964              		.cfi_endproc
 965              	.LFE1418:
 966              		.size	_ZN10GuiElement11SetPositionEii, .-_ZN10GuiElement11SetPositionEii
 967              		.section	.text._ZN10GuiElement11SetPositionEiii,"axG",@progbits,_ZN10GuiElement11SetPositionEiii,c
 968              		.align 2
 969              		.weak	_ZN10GuiElement11SetPositionEiii
 970              		.type	_ZN10GuiElement11SetPositionEiii, @function
 971              	_ZN10GuiElement11SetPositionEiii:
 972              	.LFB1419:
 973              		.loc 2 304 0
 974              		.cfi_startproc
 975              	.LVL78:
 976              		.loc 2 306 0
 977 0000 9083002C 		stw 4,44(3)
 978              		.loc 2 309 0
 979              		.loc 2 307 0
 980 0004 90A30030 		stw 5,48(3)
 981              		.loc 2 308 0
 982 0008 90C30034 		stw 6,52(3)
 983              		.loc 2 309 0
 984 000c 4E800020 		blr
 985              		.cfi_endproc
 986              	.LFE1419:
 987              		.size	_ZN10GuiElement11SetPositionEiii, .-_ZN10GuiElement11SetPositionEiii
 988              		.section	.text._ZN10GuiElement12SetAlignmentEi,"axG",@progbits,_ZN10GuiElement12SetAlignmentEi,com
 989              		.align 2
 990              		.weak	_ZN10GuiElement12SetAlignmentEi
 991              		.type	_ZN10GuiElement12SetAlignmentEi, @function
 992              	_ZN10GuiElement12SetAlignmentEi:
 993              	.LFB1421:
 994              		.loc 2 316 0
 995              		.cfi_startproc
 996              	.LVL79:
 997              		.loc 2 316 0
 998 0000 90830044 		stw 4,68(3)
 999 0004 4E800020 		blr
 1000              		.cfi_endproc
 1001              	.LFE1421:
 1002              		.size	_ZN10GuiElement12SetAlignmentEi, .-_ZN10GuiElement12SetAlignmentEi
 1003              		.section	.text._ZNK10GuiElement12GetAlignmentEv,"axG",@progbits,_ZNK10GuiElement12GetAlignmentEv,c
 1004              		.align 2
 1005              		.weak	_ZNK10GuiElement12GetAlignmentEv
 1006              		.type	_ZNK10GuiElement12GetAlignmentEv, @function
 1007              	_ZNK10GuiElement12GetAlignmentEv:
 1008              	.LFB1422:
 1009              		.loc 2 318 0
 1010              		.cfi_startproc
 1011              	.LVL80:
 1012              		.loc 2 318 0
 1013 0000 80630044 		lwz 3,68(3)
 1014              	.LVL81:
 1015 0004 4E800020 		blr
 1016              		.cfi_endproc
 1017              	.LFE1422:
 1018              		.size	_ZNK10GuiElement12GetAlignmentEv, .-_ZNK10GuiElement12GetAlignmentEv
 1019              		.section	.text._ZN8GuiFrame4execEv,"axG",@progbits,_ZN8GuiFrame4execEv,comdat
 1020              		.align 2
 1021              		.weak	_ZN8GuiFrame4execEv
 1022              		.type	_ZN8GuiFrame4execEv, @function
 1023              	_ZN8GuiFrame4execEv:
 1024              	.LFB1433:
 1025              		.file 3 "d:/Projects/SaveGameManager/savegame-manager-gx/trunk/source/Settings/menus/../../GUI/gui
 1026              		.loc 3 83 0
 1027              		.cfi_startproc
 1028              	.LVL82:
 1029              		.loc 3 83 0
 1030 0000 4E800020 		blr
 1031              		.cfi_endproc
 1032              	.LFE1433:
 1033              		.size	_ZN8GuiFrame4execEv, .-_ZN8GuiFrame4execEv
 1034              		.section	.text._ZN8GuiFrame12updateEventsEv,"axG",@progbits,_ZN8GuiFrame12updateEventsEv,comdat
 1035              		.align 2
 1036              		.weak	_ZN8GuiFrame12updateEventsEv
 1037              		.type	_ZN8GuiFrame12updateEventsEv, @function
 1038              	_ZN8GuiFrame12updateEventsEv:
 1039              	.LFB1434:
 1040              		.loc 3 85 0
 1041              		.cfi_startproc
 1042              	.LVL83:
 1043              		.loc 3 85 0
 1044 0000 4E800020 		blr
 1045              		.cfi_endproc
 1046              	.LFE1434:
 1047              		.size	_ZN8GuiFrame12updateEventsEv, .-_ZN8GuiFrame12updateEventsEv
 1048              		.section	.text._ZN17FlyingButtonsMenu16SetupMainButtonsEv,"axG",@progbits,_ZN17FlyingButtonsMenu16
 1049              		.align 2
 1050              		.weak	_ZN17FlyingButtonsMenu16SetupMainButtonsEv
 1051              		.type	_ZN17FlyingButtonsMenu16SetupMainButtonsEv, @function
 1052              	_ZN17FlyingButtonsMenu16SetupMainButtonsEv:
 1053              	.LFB1467:
 1054              		.file 4 "d:/Projects/SaveGameManager/savegame-manager-gx/trunk/source/Settings/menus/FlyingButtons
 1055              		.loc 4 45 0
 1056              		.cfi_startproc
 1057              	.LVL84:
 1058              		.loc 4 45 0
 1059 0000 4E800020 		blr
 1060              		.cfi_endproc
 1061              	.LFE1467:
 1062              		.size	_ZN17FlyingButtonsMenu16SetupMainButtonsEv, .-_ZN17FlyingButtonsMenu16SetupMainButtonsEv
 1063              		.section	".text"
 1064              		.align 2
 1065              		.globl _ZN17FlyingButtonsMenu6FadeInEv
 1066              		.type	_ZN17FlyingButtonsMenu6FadeInEv, @function
 1067              	_ZN17FlyingButtonsMenu6FadeInEv:
 1068              	.LFB1584:
 1069              		.file 5 "d:/Projects/SaveGameManager/savegame-manager-gx/trunk/source/Settings/menus/FlyingButtons
 1070              		.loc 5 166 0
 1071              		.cfi_startproc
 1072              	.LVL85:
 1073 0000 7C0802A6 		mflr 0
 1074 0004 9421FFF0 		stwu 1,-16(1)
 1075              	.LCFI18:
 1076              		.cfi_def_cfa_offset 16
 1077              		.cfi_register 65, 0
 1078              		.loc 5 167 0
 1079 0008 38800080 		li 4,128
 1080 000c 38A00014 		li 5,20
 1081              		.loc 5 166 0
 1082 0010 93E1000C 		stw 31,12(1)
 1083              		.loc 5 167 0
 1084 0014 38C00000 		li 6,0
 1085              		.loc 5 166 0
 1086 0018 90010014 		stw 0,20(1)
 1087              		.loc 5 166 0
 1088 001c 7C7F1B78 		mr 31,3
 1089              		.cfi_offset 65, 4
 1090              		.cfi_offset 31, -4
 1091              		.loc 5 167 0
 1092 0020 81230000 		lwz 9,0(3)
 1093 0024 80090088 		lwz 0,136(9)
 1094 0028 7C0903A6 		mtctr 0
 1095 002c 4E800421 		bctrl
 1096              	.LVL86:
 1097              		.loc 5 169 0
 1098 0030 813F0000 		lwz 9,0(31)
 1099 0034 7FE3FB78 		mr 3,31
 1100 0038 800900CC 		lwz 0,204(9)
 1101 003c 7C0903A6 		mtctr 0
 1102 0040 4E800421 		bctrl
 1103              		.loc 5 170 0
 1104 0044 80010014 		lwz 0,20(1)
 1105 0048 83E1000C 		lwz 31,12(1)
 1106              	.LVL87:
 1107 004c 7C0803A6 		mtlr 0
 1108 0050 38210010 		addi 1,1,16
 1109              	.LCFI19:
 1110              		.cfi_def_cfa_offset 0
 1111              		.cfi_restore 31
 1112 0054 4E800020 		blr
 1113              		.cfi_endproc
 1114              	.LFE1584:
 1115              		.size	_ZN17FlyingButtonsMenu6FadeInEv, .-_ZN17FlyingButtonsMenu6FadeInEv
 1116              		.align 2
 1117              		.globl _ZN17FlyingButtonsMenu13OnButtonClickEP9GuiButtoniRK6_POINT
 1118              		.type	_ZN17FlyingButtonsMenu13OnButtonClickEP9GuiButtoniRK6_POINT, @function
 1119              	_ZN17FlyingButtonsMenu13OnButtonClickEP9GuiButtoniRK6_POINT:
 1120              	.LFB1591:
 1121              		.loc 5 331 0
 1122              		.cfi_startproc
 1123              		.cfi_personality 0,__gxx_personality_v0
 1124              		.cfi_lsda 0,.LLSDA1591
 1125              	.LVL88:
 1126 0058 7C0802A6 		mflr 0
 1127 005c 9421FFE0 		stwu 1,-32(1)
 1128              	.LCFI20:
 1129              		.cfi_def_cfa_offset 32
 1130              		.cfi_register 65, 0
 1131 0060 93A10014 		stw 29,20(1)
 1132 0064 7C9D2378 		mr 29,4
 1133              		.cfi_offset 29, -12
 1134 0068 90010024 		stw 0,36(1)
 1135 006c 93C10018 		stw 30,24(1)
 1136 0070 7C7E1B78 		mr 30,3
 1137              		.cfi_offset 30, -8
 1138              		.cfi_offset 65, 4
 1139              	.LBB4152:
 1140              		.loc 5 332 0
 1141 0074 81240000 		lwz 9,0(4)
 1142 0078 7C832378 		mr 3,4
 1143              	.LVL89:
 1144              	.LBE4152:
 1145              		.loc 5 331 0
 1146 007c 9361000C 		stw 27,12(1)
 1147              	.LBB4188:
 1148              		.loc 5 332 0
 1149 0080 8009005C 		lwz 0,92(9)
 1150              	.LBE4188:
 1151              		.loc 5 331 0
 1152 0084 93810010 		stw 28,16(1)
 1153              	.LBB4189:
 1154              		.loc 5 332 0
 1155 0088 7C0903A6 		mtctr 0
 1156              	.LBE4189:
 1157              		.loc 5 331 0
 1158 008c 93E1001C 		stw 31,28(1)
 1159              	.LEHB0:
 1160              	.LBB4190:
 1161              		.loc 5 332 0
 1162              		.cfi_offset 31, -4
 1163              		.cfi_offset 28, -16
 1164              		.cfi_offset 27, -20
 1165 0090 4E800421 		bctrl
 1166              	.LVL90:
 1167              		.loc 5 334 0
 1168 0094 801E0110 		lwz 0,272(30)
 1169 0098 7F80E800 		cmpw 7,0,29
 1170 009c 419E01F8 		beq- 7,.L93
 1171              		.loc 5 336 0
 1172 00a0 801E010C 		lwz 0,268(30)
 1173 00a4 7F80E800 		cmpw 7,0,29
 1174 00a8 419E0208 		beq- 7,.L94
 1175              	.L71:
 1176              	.LVL91:
 1177              		.loc 5 368 0 discriminator 1
 1178 00ac 813E0134 		lwz 9,308(30)
 1179              	.LBB4153:
 1180              		.loc 5 339 0 discriminator 1
 1181 00b0 3BE00000 		li 31,0
 1182              	.LBE4153:
 1183              		.loc 5 368 0 discriminator 1
 1184 00b4 815E0138 		lwz 10,312(30)
 1185              	.LBB4162:
 1186              		.loc 5 339 0 discriminator 1
 1187 00b8 7D204B78 		mr 0,9
 1188              	.LBB4154:
 1189              	.LBB4155:
 1190              		.file 6 "d:\\devkitpro\\devkitppc\\bin\\../lib/gcc/powerpc-eabi/4.6.3/../../../../powerpc-eabi/inc
 1191              		.loc 6 571 0 discriminator 1
 1192 00bc 7D695050 		subf 11,9,10
 1193              	.LBE4155:
 1194              	.LBE4154:
 1195              		.loc 5 339 0 discriminator 1
 1196 00c0 5568F0BF 		srwi. 8,11,2
 1197 00c4 40A20020 		bne+ 0,.L89
 1198 00c8 480000B8 		b .L70
 1199              	.LVL92:
 1200              	.L72:
 1201              	.LBB4159:
 1202              	.LBB4156:
 1203              		.loc 6 571 0
 1204 00cc 7D205050 		subf 9,0,10
 1205              	.LBE4156:
 1206              	.LBE4159:
 1207              		.loc 5 339 0
 1208 00d0 3BFF0001 		addi 31,31,1
 1209              	.LVL93:
 1210              	.LBB4160:
 1211              	.LBB4157:
 1212              		.loc 6 571 0
 1213 00d4 7D291670 		srawi 9,9,2
 1214              	.LBE4157:
 1215              	.LBE4160:
 1216              		.loc 5 339 0
 1217 00d8 7F9F4840 		cmplw 7,31,9
 1218 00dc 409C00A4 		bge- 7,.L70
 1219              	.LVL94:
 1220              	.L85:
 1221              		.loc 5 368 0
 1222 00e0 7C090378 		mr 9,0
 1223              	.LVL95:
 1224              	.L89:
 1225              		.loc 5 341 0
 1226 00e4 57EB103A 		slwi 11,31,2
 1227 00e8 7D29582E 		lwzx 9,9,11
 1228 00ec 7F9D4800 		cmpw 7,29,9
 1229 00f0 409EFFDC 		bne+ 7,.L72
 1230              		.loc 5 344 0
 1231 00f4 817E00DC 		lwz 11,220(30)
 1232 00f8 813E00D8 		lwz 9,216(30)
 1233 00fc 7D7F5A14 		add 11,31,11
 1234 0100 7F8B4840 		cmplw 7,11,9
 1235 0104 419C0140 		blt- 7,.L95
 1236              		.loc 5 351 0
 1237 0108 409DFFC4 		ble+ 7,.L72
 1238              		.loc 5 353 0
 1239 010c 813E0000 		lwz 9,0(30)
 1240 0110 38800028 		li 4,40
 1241 0114 38A00023 		li 5,35
 1242 0118 7FC3F378 		mr 3,30
 1243 011c 800900EC 		lwz 0,236(9)
 1244 0120 7C0903A6 		mtctr 0
 1245 0124 4E800421 		bctrl
 1246              		.loc 5 355 0
 1247 0128 817E0000 		lwz 11,0(30)
 1248              		.loc 5 354 0
 1249 012c 813E00DC 		lwz 9,220(30)
 1250              		.loc 5 355 0
 1251 0130 7FC3F378 		mr 3,30
 1252 0134 800B00E8 		lwz 0,232(11)
 1253              		.loc 5 354 0
 1254 0138 7D3F4A14 		add 9,31,9
 1255 013c 913E00D8 		stw 9,216(30)
 1256              		.loc 5 355 0
 1257 0140 7C0903A6 		mtctr 0
 1258 0144 4E800421 		bctrl
 1259              		.loc 5 356 0
 1260 0148 813E0000 		lwz 9,0(30)
 1261 014c 7FC3F378 		mr 3,30
 1262 0150 38800014 		li 4,20
 1263 0154 800900EC 		lwz 0,236(9)
 1264              	.L92:
 1265 0158 7C0903A6 		mtctr 0
 1266 015c 38A00023 		li 5,35
 1267              		.loc 5 339 0
 1268 0160 3BFF0001 		addi 31,31,1
 1269              	.LVL96:
 1270              		.loc 5 356 0
 1271 0164 4E800421 		bctrl
 1272              	.LVL97:
 1273 0168 801E0134 		lwz 0,308(30)
 1274 016c 815E0138 		lwz 10,312(30)
 1275              	.LBB4161:
 1276              	.LBB4158:
 1277              		.loc 6 571 0
 1278 0170 7D205050 		subf 9,0,10
 1279 0174 7D291670 		srawi 9,9,2
 1280              	.LBE4158:
 1281              	.LBE4161:
 1282              		.loc 5 339 0
 1283 0178 7F9F4840 		cmplw 7,31,9
 1284 017c 419CFF64 		blt+ 7,.L85
 1285              	.LVL98:
 1286              	.L70:
 1287              		.loc 5 368 0 discriminator 1
 1288 0180 813E0164 		lwz 9,356(30)
 1289              	.LBE4162:
 1290              	.LBB4163:
 1291              	.LBB4164:
 1292              	.LBB4165:
 1293              		.loc 6 571 0 discriminator 1
 1294 0184 801E0168 		lwz 0,360(30)
 1295 0188 7C090050 		subf 0,9,0
 1296              	.LBE4165:
 1297              	.LBE4164:
 1298              		.loc 5 360 0 discriminator 1
 1299 018c 7C001671 		srawi. 0,0,2
 1300 0190 41820090 		beq- 0,.L67
 1301              	.LVL99:
 1302              		.loc 5 362 0
 1303 0194 81690000 		lwz 11,0(9)
 1304 0198 3B800000 		li 28,0
 1305 019c 7C0903A6 		mtctr 0
 1306 01a0 7F9D5800 		cmpw 7,29,11
 1307 01a4 419E001C 		beq- 7,.L83
 1308              	.LVL100:
 1309              	.L90:
 1310              		.loc 5 360 0
 1311 01a8 3B9C0001 		addi 28,28,1
 1312              	.LVL101:
 1313 01ac 42400074 		bdz .L67
 1314              	.LVL102:
 1315              		.loc 5 362 0
 1316 01b0 5780103A 		slwi 0,28,2
 1317 01b4 7C09002E 		lwzx 0,9,0
 1318 01b8 7F9D0000 		cmpw 7,29,0
 1319 01bc 409EFFEC 		bne+ 7,.L90
 1320              	.LVL103:
 1321              	.L83:
 1322              	.LBB4166:
 1323              	.LBB4167:
 1324              	.LBB4168:
 1325              	.LBB4169:
 1326              		.loc 1 338 0
 1327 01c0 813E00CC 		lwz 9,204(30)
 1328              	.LBE4169:
 1329              	.LBE4168:
 1330              		.loc 1 2203 0
 1331 01c4 3B7E00CC 		addi 27,30,204
 1332              	.LVL104:
 1333              	.LBB4172:
 1334              	.LBB4170:
 1335              		.loc 1 338 0
 1336 01c8 7F63DB78 		mr 3,27
 1337              	.LBE4170:
 1338              	.LBE4172:
 1339              	.LBE4167:
 1340              		.loc 5 368 0
 1341 01cc 7FDDF378 		mr 29,30
 1342              	.LVL105:
 1343              	.LBB4182:
 1344              	.LBB4173:
 1345              	.LBB4171:
 1346              		.loc 1 338 0
 1347 01d0 80090008 		lwz 0,8(9)
 1348 01d4 7C0903A6 		mtctr 0
 1349 01d8 4E800421 		bctrl
 1350              	.LEHE0:
 1351              	.LVL106:
 1352              	.LBE4171:
 1353              	.LBE4173:
 1354              	.LBE4182:
 1355              		.loc 5 368 0
 1356 01dc 87FD00D0 		lwzu 31,208(29)
 1357              	.LVL107:
 1358              	.LBB4183:
 1359              		.loc 1 2207 0
 1360 01e0 7F9FE800 		cmpw 7,31,29
 1361 01e4 419E0028 		beq- 7,.L78
 1362              	.LVL108:
 1363              	.L91:
 1364              		.loc 1 2212 0
 1365 01e8 807F0008 		lwz 3,8(31)
 1366 01ec 7F84E378 		mr 4,28
 1367              	.LBB4174:
 1368              	.LBB4175:
 1369              		.file 7 "d:\\devkitpro\\devkitppc\\bin\\../lib/gcc/powerpc-eabi/4.6.3/../../../../powerpc-eabi/inc
 1370              		.loc 7 234 0
 1371 01f0 83FF0000 		lwz 31,0(31)
 1372              	.LVL109:
 1373              	.LBE4175:
 1374              	.LBE4174:
 1375              		.loc 1 2212 0
 1376 01f4 81230000 		lwz 9,0(3)
 1377 01f8 8009000C 		lwz 0,12(9)
 1378 01fc 7C0903A6 		mtctr 0
 1379              	.LEHB1:
 1380 0200 4E800421 		bctrl
 1381              	.LEHE1:
 1382              	.LVL110:
 1383              		.loc 1 2207 0
 1384 0204 7F9DF800 		cmpw 7,29,31
 1385 0208 409EFFE0 		bne+ 7,.L91
 1386              	.LVL111:
 1387              	.L78:
 1388              	.LBB4176:
 1389              	.LBB4177:
 1390              	.LBB4178:
 1391              		.loc 1 343 0
 1392 020c 813E00CC 		lwz 9,204(30)
 1393 0210 7F63DB78 		mr 3,27
 1394 0214 8009000C 		lwz 0,12(9)
 1395 0218 7C0903A6 		mtctr 0
 1396              	.LEHB2:
 1397 021c 4E800421 		bctrl
 1398              	.LVL112:
 1399              	.L67:
 1400              	.LBE4178:
 1401              	.LBE4177:
 1402              	.LBE4176:
 1403              	.LBE4183:
 1404              	.LBE4166:
 1405              	.LBE4163:
 1406              	.LBE4190:
 1407              		.loc 5 368 0
 1408 0220 80010024 		lwz 0,36(1)
 1409 0224 8361000C 		lwz 27,12(1)
 1410 0228 7C0803A6 		mtlr 0
 1411 022c 83810010 		lwz 28,16(1)
 1412 0230 83A10014 		lwz 29,20(1)
 1413 0234 83C10018 		lwz 30,24(1)
 1414              	.LVL113:
 1415 0238 83E1001C 		lwz 31,28(1)
 1416 023c 38210020 		addi 1,1,32
 1417              		.cfi_remember_state
 1418              	.LCFI21:
 1419              		.cfi_def_cfa_offset 0
 1420              		.cfi_restore 31
 1421              		.cfi_restore 30
 1422              		.cfi_restore 29
 1423              		.cfi_restore 28
 1424              		.cfi_restore 27
 1425 0240 4E800020 		blr
 1426              	.LVL114:
 1427              	.L95:
 1428              	.LCFI22:
 1429              		.cfi_restore_state
 1430              	.LBB4191:
 1431              	.LBB4186:
 1432              		.loc 5 346 0
 1433 0244 813E0000 		lwz 9,0(30)
 1434 0248 38800024 		li 4,36
 1435 024c 38A00023 		li 5,35
 1436 0250 7FC3F378 		mr 3,30
 1437 0254 800900EC 		lwz 0,236(9)
 1438 0258 7C0903A6 		mtctr 0
 1439 025c 4E800421 		bctrl
 1440              		.loc 5 348 0
 1441 0260 817E0000 		lwz 11,0(30)
 1442              		.loc 5 347 0
 1443 0264 813E00DC 		lwz 9,220(30)
 1444              		.loc 5 348 0
 1445 0268 7FC3F378 		mr 3,30
 1446 026c 800B00E8 		lwz 0,232(11)
 1447              		.loc 5 347 0
 1448 0270 7D3F4A14 		add 9,31,9
 1449 0274 913E00D8 		stw 9,216(30)
 1450              		.loc 5 348 0
 1451 0278 7C0903A6 		mtctr 0
 1452 027c 4E800421 		bctrl
 1453              		.loc 5 349 0
 1454 0280 813E0000 		lwz 9,0(30)
 1455 0284 7FC3F378 		mr 3,30
 1456 0288 38800018 		li 4,24
 1457 028c 800900EC 		lwz 0,236(9)
 1458 0290 4BFFFEC8 		b .L92
 1459              	.LVL115:
 1460              	.L93:
 1461              	.LBE4186:
 1462              		.loc 5 335 0
 1463 0294 813E0000 		lwz 9,0(30)
 1464 0298 7FC3F378 		mr 3,30
 1465 029c 38800001 		li 4,1
 1466 02a0 800900F0 		lwz 0,240(9)
 1467 02a4 7C0903A6 		mtctr 0
 1468 02a8 4E800421 		bctrl
 1469 02ac 4BFFFE00 		b .L71
 1470              	.L94:
 1471              		.loc 5 337 0
 1472 02b0 813E0000 		lwz 9,0(30)
 1473 02b4 7FC3F378 		mr 3,30
 1474 02b8 38800000 		li 4,0
 1475 02bc 800900F0 		lwz 0,240(9)
 1476 02c0 7C0903A6 		mtctr 0
 1477 02c4 4E800421 		bctrl
 1478              	.LEHE2:
 1479 02c8 4BFFFDE4 		b .L71
 1480              	.LVL116:
 1481              	.L88:
 1482              	.LBB4187:
 1483              	.LBB4185:
 1484              	.LBB4184:
 1485              	.LBB4179:
 1486              	.LBB4180:
 1487              	.LBB4181:
 1488              		.loc 1 343 0
 1489 02cc 813E00CC 		lwz 9,204(30)
 1490 02d0 7C7F1B78 		mr 31,3
 1491              	.LVL117:
 1492 02d4 7F63DB78 		mr 3,27
 1493 02d8 8009000C 		lwz 0,12(9)
 1494 02dc 7C0903A6 		mtctr 0
 1495 02e0 4E800421 		bctrl
 1496 02e4 7FE3FB78 		mr 3,31
 1497              	.LEHB3:
 1498 02e8 48000001 		bl _Unwind_Resume
 1499              	.LEHE3:
 1500              	.LBE4181:
 1501              	.LBE4180:
 1502              	.LBE4179:
 1503              	.LBE4184:
 1504              	.LBE4185:
 1505              	.LBE4187:
 1506              	.LBE4191:
 1507              		.cfi_endproc
 1508              	.LFE1591:
 1509              		.globl __gxx_personality_v0
 1510              		.section	.gcc_except_table,"a",@progbits
 1511              	.LLSDA1591:
 1512 0000 FF       		.byte	0xff
 1513 0001 FF       		.byte	0xff
 1514 0002 01       		.byte	0x1
 1515 0003 16       		.uleb128 .LLSDACSE1591-.LLSDACSB1591
 1516              	.LLSDACSB1591:
 1517 0004 38       		.uleb128 .LEHB0-.LFB1591
 1518 0005 CC02     		.uleb128 .LEHE0-.LEHB0
 1519 0007 00       		.uleb128 0
 1520 0008 00       		.uleb128 0
 1521 0009 A803     		.uleb128 .LEHB1-.LFB1591
 1522 000b 04       		.uleb128 .LEHE1-.LEHB1
 1523 000c F404     		.uleb128 .L88-.LFB1591
 1524 000e 00       		.uleb128 0
 1525 000f C403     		.uleb128 .LEHB2-.LFB1591
 1526 0011 AC01     		.uleb128 .LEHE2-.LEHB2
 1527 0013 00       		.uleb128 0
 1528 0014 00       		.uleb128 0
 1529 0015 9005     		.uleb128 .LEHB3-.LFB1591
 1530 0017 04       		.uleb128 .LEHE3-.LEHB3
 1531 0018 00       		.uleb128 0
 1532 0019 00       		.uleb128 0
 1533              	.LLSDACSE1591:
 1534              		.section	".text"
 1535              		.size	_ZN17FlyingButtonsMenu13OnButtonClickEP9GuiButtoniRK6_POINT, .-_ZN17FlyingButtonsMenu13OnBut
 1536              		.section	.text._ZN7sigslot12_signal_baseINS_15single_threadedEED2Ev,"axG",@progbits,_ZN7sigslot12_
 1537              		.align 2
 1538              		.weak	_ZN7sigslot12_signal_baseINS_15single_threadedEED2Ev
 1539              		.type	_ZN7sigslot12_signal_baseINS_15single_threadedEED2Ev, @function
 1540              	_ZN7sigslot12_signal_baseINS_15single_threadedEED2Ev:
 1541              	.LFB1678:
 1542              		.loc 1 466 0
 1543              		.cfi_startproc
 1544              	.LVL118:
 1545              	.LBB4192:
 1546              	.LBB4193:
 1547              	.LBB4194:
 1548              	.LBB4195:
 1549              		.loc 1 105 0
 1550 0000 3D200000 		lis 9,_ZTVN7sigslot15single_threadedE+8@ha
 1551              	.LBE4195:
 1552              	.LBE4194:
 1553              	.LBE4193:
 1554              	.LBE4192:
 1555              		.loc 1 466 0
 1556              	.LBB4199:
 1557              	.LBB4198:
 1558              	.LBB4197:
 1559              	.LBB4196:
 1560              		.loc 1 105 0
 1561 0004 38090008 		la 0,_ZTVN7sigslot15single_threadedE+8@l(9)
 1562 0008 90030000 		stw 0,0(3)
 1563              	.LBE4196:
 1564              	.LBE4197:
 1565              	.LBE4198:
 1566              	.LBE4199:
 1567              		.loc 1 466 0
 1568 000c 4E800020 		blr
 1569              		.cfi_endproc
 1570              	.LFE1678:
 1571              		.size	_ZN7sigslot12_signal_baseINS_15single_threadedEED2Ev, .-_ZN7sigslot12_signal_baseINS_15singl
 1572              		.section	.text._ZN7sigslot17_connection_base3IP9GuiButtoniRK6_POINTNS_15single_threadedEED2Ev,"axG
 1573              		.align 2
 1574              		.weak	_ZN7sigslot17_connection_base3IP9GuiButtoniRK6_POINTNS_15single_threadedEED2Ev
 1575              		.type	_ZN7sigslot17_connection_base3IP9GuiButtoniRK6_POINTNS_15single_threadedEED2Ev, @function
 1576              	_ZN7sigslot17_connection_base3IP9GuiButtoniRK6_POINTNS_15single_threadedEED2Ev:
 1577              	.LFB1896:
 1578              		.loc 1 387 0
 1579              		.cfi_startproc
 1580              	.LVL119:
 1581              	.LBB4200:
 1582              		.loc 1 387 0
 1583 0000 3D200000 		lis 9,_ZTVN7sigslot17_connection_base3IP9GuiButtoniRK6_POINTNS_15single_threadedEEE+8@ha
 1584              	.LBE4200:
 1585              	.LBB4201:
 1586 0004 38090008 		la 0,_ZTVN7sigslot17_connection_base3IP9GuiButtoniRK6_POINTNS_15single_threadedEEE+8@l(9)
 1587 0008 90030000 		stw 0,0(3)
 1588              	.LBE4201:
 1589 000c 4E800020 		blr
 1590              		.cfi_endproc
 1591              	.LFE1896:
 1592              		.size	_ZN7sigslot17_connection_base3IP9GuiButtoniRK6_POINTNS_15single_threadedEED2Ev, .-_ZN7sigslo
 1593              		.section	.text._ZN7sigslot12_connection3I17FlyingButtonsMenuP9GuiButtoniRK6_POINTNS_15single_threa
 1594              		.align 2
 1595              		.weak	_ZN7sigslot12_connection3I17FlyingButtonsMenuP9GuiButtoniRK6_POINTNS_15single_threadedEED2Ev
 1596              		.type	_ZN7sigslot12_connection3I17FlyingButtonsMenuP9GuiButtoniRK6_POINTNS_15single_threadedEED2Ev
 1597              	_ZN7sigslot12_connection3I17FlyingButtonsMenuP9GuiButtoniRK6_POINTNS_15single_threadedEED2Ev:
 1598              	.LFB2350:
 1599              		.loc 1 1783 0
 1600              		.cfi_startproc
 1601              	.LVL120:
 1602              	.LBB4202:
 1603              	.LBB4203:
 1604              	.LBB4204:
 1605              	.LBB4205:
 1606              		.loc 1 387 0
 1607 0000 3D200000 		lis 9,_ZTVN7sigslot17_connection_base3IP9GuiButtoniRK6_POINTNS_15single_threadedEEE+8@ha
 1608              	.LBE4205:
 1609              	.LBE4204:
 1610              	.LBE4203:
 1611              	.LBE4202:
 1612              		.loc 1 1786 0
 1613              	.LBB4209:
 1614              	.LBB4208:
 1615              	.LBB4207:
 1616              	.LBB4206:
 1617              		.loc 1 387 0
 1618 0004 38090008 		la 0,_ZTVN7sigslot17_connection_base3IP9GuiButtoniRK6_POINTNS_15single_threadedEEE+8@l(9)
 1619 0008 90030000 		stw 0,0(3)
 1620              	.LBE4206:
 1621              	.LBE4207:
 1622              	.LBE4208:
 1623              	.LBE4209:
 1624              		.loc 1 1786 0
 1625 000c 4E800020 		blr
 1626              		.cfi_endproc
 1627              	.LFE2350:
 1628              		.size	_ZN7sigslot12_connection3I17FlyingButtonsMenuP9GuiButtoniRK6_POINTNS_15single_threadedEED2Ev
 1629              		.section	.text._ZNK7sigslot12_connection3I17FlyingButtonsMenuP9GuiButtoniRK6_POINTNS_15single_thre
 1630              		.align 2
 1631              		.weak	_ZNK7sigslot12_connection3I17FlyingButtonsMenuP9GuiButtoniRK6_POINTNS_15single_threadedEE7ge
 1632              		.type	_ZNK7sigslot12_connection3I17FlyingButtonsMenuP9GuiButtoniRK6_POINTNS_15single_threadedEE7ge
 1633              	_ZNK7sigslot12_connection3I17FlyingButtonsMenuP9GuiButtoniRK6_POINTNS_15single_threadedEE7getdestEv
 1634              	.LFB2353:
 1635              		.loc 1 1804 0
 1636              		.cfi_startproc
 1637              	.LVL121:
 1638              		.loc 1 1806 0
 1639 0000 81230004 		lwz 9,4(3)
 1640 0004 38600000 		li 3,0
 1641              	.LVL122:
 1642 0008 2F890000 		cmpwi 7,9,0
 1643 000c 4D9E0020 		beqlr- 7
 1644              		.loc 1 1806 0 is_stmt 0 discriminator 1
 1645 0010 386900B0 		addi 3,9,176
 1646              		.loc 1 1807 0 is_stmt 1 discriminator 1
 1647 0014 4E800020 		blr
 1648              		.cfi_endproc
 1649              	.LFE2353:
 1650              		.size	_ZNK7sigslot12_connection3I17FlyingButtonsMenuP9GuiButtoniRK6_POINTNS_15single_threadedEE7ge
 1651              		.section	.text._ZN7sigslot12_connection3I17FlyingButtonsMenuP9GuiButtoniRK6_POINTNS_15single_threa
 1652              		.align 2
 1653              		.weak	_ZN7sigslot12_connection3I17FlyingButtonsMenuP9GuiButtoniRK6_POINTNS_15single_threadedEE4emi
 1654              		.type	_ZN7sigslot12_connection3I17FlyingButtonsMenuP9GuiButtoniRK6_POINTNS_15single_threadedEE4emi
 1655              	_ZN7sigslot12_connection3I17FlyingButtonsMenuP9GuiButtoniRK6_POINTNS_15single_threadedEE4emitES3_iS
 1656              	.LFB2354:
 1657              		.loc 1 1799 0
 1658              		.cfi_startproc
 1659              	.LVL123:
 1660 0000 7C0802A6 		mflr 0
 1661 0004 9421FFF8 		stwu 1,-8(1)
 1662              	.LCFI23:
 1663              		.cfi_def_cfa_offset 8
 1664              		.cfi_register 65, 0
 1665 0008 9001000C 		stw 0,12(1)
 1666              		.loc 1 1801 0
 1667 000c 80030008 		lwz 0,8(3)
 1668              		.cfi_offset 65, 4
 1669 0010 81630004 		lwz 11,4(3)
 1670 0014 70090001 		andi. 9,0,1
 1671 0018 8123000C 		lwz 9,12(3)
 1672 001c 40820020 		bne- 0,.L108
 1673 0020 7C0903A6 		mtctr 0
 1674 0024 7C6B4A14 		add 3,11,9
 1675              	.LVL124:
 1676 0028 4E800421 		bctrl
 1677              	.LVL125:
 1678              		.loc 1 1802 0
 1679 002c 8001000C 		lwz 0,12(1)
 1680 0030 38210008 		addi 1,1,8
 1681              		.cfi_remember_state
 1682              	.LCFI24:
 1683              		.cfi_def_cfa_offset 0
 1684 0034 7C0803A6 		mtlr 0
 1685 0038 4E800020 		blr
 1686              	.LVL126:
 1687              	.L108:
 1688              	.LCFI25:
 1689              		.cfi_restore_state
 1690              		.loc 1 1801 0 discriminator 1
 1691 003c 7D4B482E 		lwzx 10,11,9
 1692 0040 7C6B4A14 		add 3,11,9
 1693              	.LVL127:
 1694 0044 7D2A0214 		add 9,10,0
 1695 0048 8009FFFF 		lwz 0,-1(9)
 1696 004c 7C0903A6 		mtctr 0
 1697 0050 4E800421 		bctrl
 1698              	.LVL128:
 1699              		.loc 1 1802 0 discriminator 1
 1700 0054 8001000C 		lwz 0,12(1)
 1701 0058 38210008 		addi 1,1,8
 1702              	.LCFI26:
 1703              		.cfi_def_cfa_offset 0
 1704 005c 7C0803A6 		mtlr 0
 1705 0060 4E800020 		blr
 1706              		.cfi_endproc
 1707              	.LFE2354:
 1708              		.size	_ZN7sigslot12_connection3I17FlyingButtonsMenuP9GuiButtoniRK6_POINTNS_15single_threadedEE4emi
 1709              		.section	.text._ZN7sigslot12_connection3I17FlyingButtonsMenuP9GuiButtoniRK6_POINTNS_15single_threa
 1710              		.align 2
 1711              		.weak	_ZN7sigslot12_connection3I17FlyingButtonsMenuP9GuiButtoniRK6_POINTNS_15single_threadedEE9dup
 1712              		.type	_ZN7sigslot12_connection3I17FlyingButtonsMenuP9GuiButtoniRK6_POINTNS_15single_threadedEE9dup
 1713              	_ZN7sigslot12_connection3I17FlyingButtonsMenuP9GuiButtoniRK6_POINTNS_15single_threadedEE9duplicateE
 1714              	.LFB2362:
 1715              		.loc 1 1794 0
 1716              		.cfi_startproc
 1717              	.LVL129:
 1718 0000 9421FFF0 		stwu 1,-16(1)
 1719              	.LCFI27:
 1720              		.cfi_def_cfa_offset 16
 1721 0004 7C0802A6 		mflr 0
 1722 0008 93C10008 		stw 30,8(1)
 1723 000c 7C9E2378 		mr 30,4
 1724              		.cfi_offset 30, -8
 1725              		.cfi_register 65, 0
 1726 0010 93E1000C 		stw 31,12(1)
 1727 0014 7C7F1B78 		mr 31,3
 1728              		.cfi_offset 31, -4
 1729              		.loc 1 1796 0
 1730 0018 38600010 		li 3,16
 1731              	.LVL130:
 1732              		.loc 1 1794 0
 1733 001c 90010014 		stw 0,20(1)
 1734              		.loc 1 1796 0
 1735              		.cfi_offset 65, 4
 1736 0020 48000001 		bl _Znwj
 1737              	.LVL131:
 1738 0024 2F9E0000 		cmpwi 7,30,0
 1739 0028 38000000 		li 0,0
 1740 002c 419E0008 		beq- 7,.L111
 1741              		.loc 1 1796 0 is_stmt 0 discriminator 1
 1742 0030 381EFF50 		addi 0,30,-176
 1743              	.L111:
 1744              	.LVL132:
 1745              		.loc 1 1796 0 discriminator 3
 1746 0034 817F0008 		lwz 11,8(31)
 1747              	.LVL133:
 1748              	.LBB4210:
 1749              	.LBB4211:
 1750              		.loc 1 1778 0 is_stmt 1 discriminator 3
 1751 0038 3D400000 		lis 10,_ZTVN7sigslot12_connection3I17FlyingButtonsMenuP9GuiButtoniRK6_POINTNS_15single_threadedEEE
 1752              	.LBE4211:
 1753              	.LBE4210:
 1754              		.loc 1 1796 0 discriminator 3
 1755 003c 813F000C 		lwz 9,12(31)
 1756              	.LVL134:
 1757              	.LBB4214:
 1758              	.LBB4212:
 1759              		.loc 1 1778 0 discriminator 3
 1760 0040 394A0008 		la 10,_ZTVN7sigslot12_connection3I17FlyingButtonsMenuP9GuiButtoniRK6_POINTNS_15single_threadedEEE+
 1761              		.loc 1 1780 0 discriminator 3
 1762 0044 91630008 		stw 11,8(3)
 1763 0048 9123000C 		stw 9,12(3)
 1764              		.loc 1 1779 0 discriminator 3
 1765 004c 90030004 		stw 0,4(3)
 1766              	.LBE4212:
 1767              	.LBE4214:
 1768              		.loc 1 1797 0 discriminator 3
 1769 0050 80010014 		lwz 0,20(1)
 1770              	.LVL135:
 1771 0054 83C10008 		lwz 30,8(1)
 1772              	.LVL136:
 1773 0058 7C0803A6 		mtlr 0
 1774 005c 83E1000C 		lwz 31,12(1)
 1775              	.LVL137:
 1776              	.LBB4215:
 1777              	.LBB4213:
 1778              		.loc 1 1778 0 discriminator 3
 1779 0060 91430000 		stw 10,0(3)
 1780              	.LBE4213:
 1781              	.LBE4215:
 1782              		.loc 1 1797 0 discriminator 3
 1783 0064 38210010 		addi 1,1,16
 1784              	.LCFI28:
 1785              		.cfi_def_cfa_offset 0
 1786              		.cfi_restore 31
 1787              		.cfi_restore 30
 1788 0068 4E800020 		blr
 1789              		.cfi_endproc
 1790              	.LFE2362:
 1791              		.size	_ZN7sigslot12_connection3I17FlyingButtonsMenuP9GuiButtoniRK6_POINTNS_15single_threadedEE9dup
 1792              		.section	.text._ZN7sigslot12_connection3I17FlyingButtonsMenuP9GuiButtoniRK6_POINTNS_15single_threa
 1793              		.align 2
 1794              		.weak	_ZN7sigslot12_connection3I17FlyingButtonsMenuP9GuiButtoniRK6_POINTNS_15single_threadedEE5clo
 1795              		.type	_ZN7sigslot12_connection3I17FlyingButtonsMenuP9GuiButtoniRK6_POINTNS_15single_threadedEE5clo
 1796              	_ZN7sigslot12_connection3I17FlyingButtonsMenuP9GuiButtoniRK6_POINTNS_15single_threadedEE5cloneEv:
 1797              	.LFB2355:
 1798              		.loc 1 1789 0
 1799              		.cfi_startproc
 1800              	.LVL138:
 1801 0000 9421FFF0 		stwu 1,-16(1)
 1802              	.LCFI29:
 1803              		.cfi_def_cfa_offset 16
 1804 0004 7C0802A6 		mflr 0
 1805 0008 93E1000C 		stw 31,12(1)
 1806 000c 7C7F1B78 		mr 31,3
 1807              		.cfi_offset 31, -4
 1808              		.cfi_register 65, 0
 1809              		.loc 1 1791 0
 1810 0010 38600010 		li 3,16
 1811              	.LVL139:
 1812              		.loc 1 1789 0
 1813 0014 90010014 		stw 0,20(1)
 1814              		.loc 1 1791 0
 1815              		.cfi_offset 65, 4
 1816 0018 48000001 		bl _Znwj
 1817              		.loc 5 368 0
 1818 001c 801F0004 		lwz 0,4(31)
 1819              	.LVL140:
 1820              	.LBB4216:
 1821              	.LBB4217:
 1822              		.loc 1 1767 0
 1823 0020 3D600000 		lis 11,_ZTVN7sigslot12_connection3I17FlyingButtonsMenuP9GuiButtoniRK6_POINTNS_15single_threadedEEE
 1824 0024 396B0008 		la 11,_ZTVN7sigslot12_connection3I17FlyingButtonsMenuP9GuiButtoniRK6_POINTNS_15single_threadedEEE+
 1825 0028 90030004 		stw 0,4(3)
 1826 002c 91630000 		stw 11,0(3)
 1827 0030 815F0008 		lwz 10,8(31)
 1828 0034 817F000C 		lwz 11,12(31)
 1829 0038 91430008 		stw 10,8(3)
 1830 003c 9163000C 		stw 11,12(3)
 1831              	.LBE4217:
 1832              	.LBE4216:
 1833              		.loc 1 1792 0
 1834 0040 80010014 		lwz 0,20(1)
 1835 0044 83E1000C 		lwz 31,12(1)
 1836              	.LVL141:
 1837 0048 7C0803A6 		mtlr 0
 1838 004c 38210010 		addi 1,1,16
 1839              	.LCFI30:
 1840              		.cfi_def_cfa_offset 0
 1841              		.cfi_restore 31
 1842 0050 4E800020 		blr
 1843              		.cfi_endproc
 1844              	.LFE2355:
 1845              		.size	_ZN7sigslot12_connection3I17FlyingButtonsMenuP9GuiButtoniRK6_POINTNS_15single_threadedEE5clo
 1846              		.section	.text._ZN7sigslot13_signal_base1IiNS_15single_threadedEE14slot_duplicateEPKNS_9has_slotsI
 1847              		.align 2
 1848              		.weak	_ZN7sigslot13_signal_base1IiNS_15single_threadedEE14slot_duplicateEPKNS_9has_slotsIS1_EEPS4_
 1849              		.type	_ZN7sigslot13_signal_base1IiNS_15single_threadedEE14slot_duplicateEPKNS_9has_slotsIS1_EEPS4_
 1850              	_ZN7sigslot13_signal_base1IiNS_15single_threadedEE14slot_duplicateEPKNS_9has_slotsIS1_EEPS4_:
 1851              	.LFB2364:
 1852              		.loc 1 685 0
 1853              		.cfi_startproc
 1854              		.cfi_personality 0,__gxx_personality_v0
 1855              		.cfi_lsda 0,.LLSDA2364
 1856              	.LVL142:
 1857 0000 7C0802A6 		mflr 0
 1858 0004 9421FFE0 		stwu 1,-32(1)
 1859              	.LCFI31:
 1860              		.cfi_def_cfa_offset 32
 1861              		.cfi_register 65, 0
 1862 0008 93410008 		stw 26,8(1)
 1863 000c 7CBA2B78 		mr 26,5
 1864              		.cfi_offset 26, -24
 1865 0010 90010024 		stw 0,36(1)
 1866 0014 9361000C 		stw 27,12(1)
 1867 0018 7C7B1B78 		mr 27,3
 1868              		.cfi_offset 27, -20
 1869              		.cfi_offset 65, 4
 1870              	.LVL143:
 1871              	.LBB4218:
 1872              	.LBB4219:
 1873              	.LBB4220:
 1874              		.loc 1 338 0
 1875 001c 81230000 		lwz 9,0(3)
 1876              	.LBE4220:
 1877              	.LBE4219:
 1878              	.LBE4218:
 1879              		.loc 1 685 0
 1880 0020 93A10014 		stw 29,20(1)
 1881 0024 7C9D2378 		mr 29,4
 1882              		.cfi_offset 29, -12
 1883              	.LBB4249:
 1884              	.LBB4225:
 1885              	.LBB4221:
 1886              		.loc 1 338 0
 1887 0028 80090008 		lwz 0,8(9)
 1888              	.LBE4221:
 1889              	.LBE4225:
 1890              	.LBE4249:
 1891              		.loc 1 685 0
 1892 002c 93C10018 		stw 30,24(1)
 1893              	.LBB4250:
 1894              	.LBB4226:
 1895              	.LBB4222:
 1896              		.loc 5 368 0
 1897 0030 7F7EDB78 		mr 30,27
 1898              		.cfi_offset 30, -8
 1899              	.LBE4222:
 1900              	.LBE4226:
 1901              	.LBE4250:
 1902              		.loc 1 685 0
 1903 0034 93E1001C 		stw 31,28(1)
 1904              	.LBB4251:
 1905              	.LBB4227:
 1906              	.LBB4223:
 1907              		.loc 1 338 0
 1908 0038 7C0903A6 		mtctr 0
 1909              	.LBE4223:
 1910              	.LBE4227:
 1911              	.LBE4251:
 1912              		.loc 1 685 0
 1913 003c 93810010 		stw 28,16(1)
 1914              	.LEHB4:
 1915              	.LBB4252:
 1916              	.LBB4228:
 1917              	.LBB4224:
 1918              		.loc 1 338 0
 1919              		.cfi_offset 28, -16
 1920              		.cfi_offset 31, -4
 1921 0040 4E800421 		bctrl
 1922              	.LEHE4:
 1923              	.LVL144:
 1924              		.loc 5 368 0
 1925 0044 87FE0004 		lwzu 31,4(30)
 1926              	.LVL145:
 1927              	.LBE4224:
 1928              	.LBE4228:
 1929              		.loc 1 691 0
 1930 0048 7F9FF000 		cmpw 7,31,30
 1931 004c 40BE0014 		bne+ 7,.L124
 1932 0050 48000070 		b .L115
 1933              	.LVL146:
 1934              	.L116:
 1935              	.LBB4229:
 1936              	.LBB4230:
 1937              		.loc 7 154 0
 1938 0054 83FF0000 		lwz 31,0(31)
 1939              	.LVL147:
 1940              	.LBE4230:
 1941              	.LBE4229:
 1942              		.loc 1 691 0
 1943 0058 7F9EF800 		cmpw 7,30,31
 1944 005c 419E0064 		beq- 7,.L115
 1945              	.LVL148:
 1946              	.L124:
 1947              		.loc 1 693 0
 1948 0060 807F0008 		lwz 3,8(31)
 1949 0064 81230000 		lwz 9,0(3)
 1950 0068 80090008 		lwz 0,8(9)
 1951 006c 7C0903A6 		mtctr 0
 1952              	.LEHB5:
 1953 0070 4E800421 		bctrl
 1954 0074 7F9D1800 		cmpw 7,29,3
 1955 0078 409EFFDC 		bne+ 7,.L116
 1956              	.LVL149:
 1957              		.loc 1 695 0
 1958 007c 807F0008 		lwz 3,8(31)
 1959 0080 7F44D378 		mr 4,26
 1960 0084 81230000 		lwz 9,0(3)
 1961 0088 80090014 		lwz 0,20(9)
 1962 008c 7C0903A6 		mtctr 0
 1963 0090 4E800421 		bctrl
 1964 0094 7C7C1B78 		mr 28,3
 1965              	.LVL150:
 1966              	.LBB4232:
 1967              	.LBB4233:
 1968              	.LBB4234:
 1969              	.LBB4235:
 1970              	.LBB4236:
 1971              	.LBB4237:
 1972              	.LBB4238:
 1973              	.LBB4239:
 1974              		.file 8 "d:\\devkitpro\\devkitppc\\bin\\../lib/gcc/powerpc-eabi/4.6.3/../../../../powerpc-eabi/inc
 1975              		.loc 8 92 0
 1976 0098 3860000C 		li 3,12
 1977 009c 48000001 		bl _Znwj
 1978              	.LEHE5:
 1979              	.LVL151:
 1980              	.LBE4239:
 1981              	.LBE4238:
 1982              	.LBE4237:
 1983              	.LBB4240:
 1984              	.LBB4241:
 1985              		.loc 8 108 0 discriminator 1
 1986 00a0 2F83FFF8 		cmpwi 7,3,-8
 1987 00a4 419E0008 		beq- 7,.L118
 1988              		.loc 8 108 0 is_stmt 0
 1989 00a8 93830008 		stw 28,8(3)
 1990              	.L118:
 1991              	.LVL152:
 1992              	.LBE4241:
 1993              	.LBE4240:
 1994              	.LBE4236:
 1995              	.LBE4235:
 1996              		.loc 7 1516 0 is_stmt 1
 1997 00ac 7FC4F378 		mr 4,30
 1998 00b0 48000001 		bl _ZNSt8__detail15_List_node_base7_M_hookEPS0_
 1999              	.LVL153:
 2000              	.LBE4234:
 2001              	.LBE4233:
 2002              	.LBE4232:
 2003              	.LBB4242:
 2004              	.LBB4231:
 2005              		.loc 7 154 0
 2006 00b4 83FF0000 		lwz 31,0(31)
 2007              	.LVL154:
 2008              	.LBE4231:
 2009              	.LBE4242:
 2010              		.loc 1 691 0
 2011 00b8 7F9EF800 		cmpw 7,30,31
 2012 00bc 409EFFA4 		bne+ 7,.L124
 2013              	.LVL155:
 2014              	.L115:
 2015              	.LBB4243:
 2016              	.LBB4244:
 2017              	.LBB4245:
 2018              		.loc 1 343 0
 2019 00c0 813B0000 		lwz 9,0(27)
 2020 00c4 7F63DB78 		mr 3,27
 2021 00c8 8009000C 		lwz 0,12(9)
 2022 00cc 7C0903A6 		mtctr 0
 2023              	.LEHB6:
 2024 00d0 4E800421 		bctrl
 2025              	.LEHE6:
 2026              	.LBE4245:
 2027              	.LBE4244:
 2028              	.LBE4243:
 2029              	.LBE4252:
 2030              		.loc 1 700 0
 2031 00d4 80010024 		lwz 0,36(1)
 2032 00d8 83410008 		lwz 26,8(1)
 2033              	.LVL156:
 2034 00dc 7C0803A6 		mtlr 0
 2035 00e0 8361000C 		lwz 27,12(1)
 2036              	.LVL157:
 2037 00e4 83810010 		lwz 28,16(1)
 2038 00e8 83A10014 		lwz 29,20(1)
 2039              	.LVL158:
 2040 00ec 83C10018 		lwz 30,24(1)
 2041              	.LVL159:
 2042 00f0 83E1001C 		lwz 31,28(1)
 2043              	.LVL160:
 2044 00f4 38210020 		addi 1,1,32
 2045              		.cfi_remember_state
 2046              	.LCFI32:
 2047              		.cfi_def_cfa_offset 0
 2048              		.cfi_restore 31
 2049              		.cfi_restore 30
 2050              		.cfi_restore 29
 2051              		.cfi_restore 28
 2052              		.cfi_restore 27
 2053              		.cfi_restore 26
 2054 00f8 4E800020 		blr
 2055              	.LVL161:
 2056              	.L123:
 2057              	.LCFI33:
 2058              		.cfi_restore_state
 2059              	.LBB4253:
 2060              	.LBB4246:
 2061              	.LBB4247:
 2062              	.LBB4248:
 2063              		.loc 1 343 0
 2064 00fc 813B0000 		lwz 9,0(27)
 2065 0100 7C7F1B78 		mr 31,3
 2066              	.LVL162:
 2067 0104 7F63DB78 		mr 3,27
 2068 0108 8009000C 		lwz 0,12(9)
 2069 010c 7C0903A6 		mtctr 0
 2070 0110 4E800421 		bctrl
 2071 0114 7FE3FB78 		mr 3,31
 2072              	.LEHB7:
 2073 0118 48000001 		bl _Unwind_Resume
 2074              	.LEHE7:
 2075              	.LBE4248:
 2076              	.LBE4247:
 2077              	.LBE4246:
 2078              	.LBE4253:
 2079              		.cfi_endproc
 2080              	.LFE2364:
 2081              		.section	.gcc_except_table
 2082              	.LLSDA2364:
 2083 001a FF       		.byte	0xff
 2084 001b FF       		.byte	0xff
 2085 001c 01       		.byte	0x1
 2086 001d 13       		.uleb128 .LLSDACSE2364-.LLSDACSB2364
 2087              	.LLSDACSB2364:
 2088 001e 40       		.uleb128 .LEHB4-.LFB2364
 2089 001f 04       		.uleb128 .LEHE4-.LEHB4
 2090 0020 00       		.uleb128 0
 2091 0021 00       		.uleb128 0
 2092 0022 70       		.uleb128 .LEHB5-.LFB2364
 2093 0023 30       		.uleb128 .LEHE5-.LEHB5
 2094 0024 FC01     		.uleb128 .L123-.LFB2364
 2095 0026 00       		.uleb128 0
 2096 0027 D001     		.uleb128 .LEHB6-.LFB2364
 2097 0029 04       		.uleb128 .LEHE6-.LEHB6
 2098 002a 00       		.uleb128 0
 2099 002b 00       		.uleb128 0
 2100 002c 9802     		.uleb128 .LEHB7-.LFB2364
 2101 002e 04       		.uleb128 .LEHE7-.LEHB7
 2102 002f 00       		.uleb128 0
 2103 0030 00       		.uleb128 0
 2104              	.LLSDACSE2364:
 2105              		.section	.text._ZN7sigslot13_signal_base1IiNS_15single_threadedEE14slot_duplicateEPKNS_9has_slotsI
 2106              		.size	_ZN7sigslot13_signal_base1IiNS_15single_threadedEE14slot_duplicateEPKNS_9has_slotsIS1_EEPS4_
 2107              		.section	.text._ZN7sigslot12_connection3I17FlyingButtonsMenuP9GuiButtoniRK6_POINTNS_15single_threa
 2108              		.align 2
 2109              		.weak	_ZN7sigslot12_connection3I17FlyingButtonsMenuP9GuiButtoniRK6_POINTNS_15single_threadedEED0Ev
 2110              		.type	_ZN7sigslot12_connection3I17FlyingButtonsMenuP9GuiButtoniRK6_POINTNS_15single_threadedEED0Ev
 2111              	_ZN7sigslot12_connection3I17FlyingButtonsMenuP9GuiButtoniRK6_POINTNS_15single_threadedEED0Ev:
 2112              	.LFB2352:
 2113              		.loc 1 1783 0
 2114              		.cfi_startproc
 2115              	.LVL163:
 2116 0000 7C0802A6 		mflr 0
 2117 0004 9421FFF8 		stwu 1,-8(1)
 2118              	.LCFI34:
 2119              		.cfi_def_cfa_offset 8
 2120              		.cfi_register 65, 0
 2121              	.LBB4254:
 2122              	.LBB4255:
 2123              	.LBB4256:
 2124              	.LBB4257:
 2125              	.LBB4258:
 2126              	.LBB4259:
 2127              		.loc 1 387 0
 2128 0008 3D200000 		lis 9,_ZTVN7sigslot17_connection_base3IP9GuiButtoniRK6_POINTNS_15single_threadedEEE+8@ha
 2129              	.LBE4259:
 2130              	.LBE4258:
 2131              	.LBE4257:
 2132              	.LBE4256:
 2133              	.LBE4255:
 2134              	.LBE4254:
 2135              		.loc 1 1783 0
 2136 000c 9001000C 		stw 0,12(1)
 2137              	.LBB4265:
 2138              	.LBB4264:
 2139              	.LBB4263:
 2140              	.LBB4262:
 2141              	.LBB4261:
 2142              	.LBB4260:
 2143              		.loc 1 387 0
 2144 0010 38090008 		la 0,_ZTVN7sigslot17_connection_base3IP9GuiButtoniRK6_POINTNS_15single_threadedEEE+8@l(9)
 2145              		.cfi_offset 65, 4
 2146 0014 90030000 		stw 0,0(3)
 2147              	.LBE4260:
 2148              	.LBE4261:
 2149              	.LBE4262:
 2150              	.LBE4263:
 2151              	.LBE4264:
 2152              	.LBE4265:
 2153              		.loc 1 1786 0
 2154 0018 48000001 		bl _ZdlPv
 2155              	.LVL164:
 2156 001c 8001000C 		lwz 0,12(1)
 2157 0020 38210008 		addi 1,1,8
 2158              	.LCFI35:
 2159              		.cfi_def_cfa_offset 0
 2160 0024 7C0803A6 		mtlr 0
 2161 0028 4E800020 		blr
 2162              		.cfi_endproc
 2163              	.LFE2352:
 2164              		.size	_ZN7sigslot12_connection3I17FlyingButtonsMenuP9GuiButtoniRK6_POINTNS_15single_threadedEED0Ev
 2165              		.section	.text._ZN7sigslot17_connection_base3IP9GuiButtoniRK6_POINTNS_15single_threadedEED0Ev,"axG
 2166              		.align 2
 2167              		.weak	_ZN7sigslot17_connection_base3IP9GuiButtoniRK6_POINTNS_15single_threadedEED0Ev
 2168              		.type	_ZN7sigslot17_connection_base3IP9GuiButtoniRK6_POINTNS_15single_threadedEED0Ev, @function
 2169              	_ZN7sigslot17_connection_base3IP9GuiButtoniRK6_POINTNS_15single_threadedEED0Ev:
 2170              	.LFB1898:
 2171              		.loc 1 387 0
 2172              		.cfi_startproc
 2173              	.LVL165:
 2174 0000 7C0802A6 		mflr 0
 2175 0004 9421FFF8 		stwu 1,-8(1)
 2176              	.LCFI36:
 2177              		.cfi_def_cfa_offset 8
 2178              		.cfi_register 65, 0
 2179              	.LBB4266:
 2180              	.LBB4267:
 2181              	.LBB4268:
 2182 0008 3D200000 		lis 9,_ZTVN7sigslot17_connection_base3IP9GuiButtoniRK6_POINTNS_15single_threadedEEE+8@ha
 2183              	.LBE4268:
 2184              	.LBE4267:
 2185              	.LBE4266:
 2186 000c 9001000C 		stw 0,12(1)
 2187              	.LBB4271:
 2188              	.LBB4270:
 2189              	.LBB4269:
 2190              		.loc 1 387 0
 2191 0010 38090008 		la 0,_ZTVN7sigslot17_connection_base3IP9GuiButtoniRK6_POINTNS_15single_threadedEEE+8@l(9)
 2192              		.cfi_offset 65, 4
 2193 0014 90030000 		stw 0,0(3)
 2194              	.LBE4269:
 2195              	.LBE4270:
 2196              	.LBE4271:
 2197 0018 48000001 		bl _ZdlPv
 2198              	.LVL166:
 2199 001c 8001000C 		lwz 0,12(1)
 2200 0020 38210008 		addi 1,1,8
 2201              	.LCFI37:
 2202              		.cfi_def_cfa_offset 0
 2203 0024 7C0803A6 		mtlr 0
 2204 0028 4E800020 		blr
 2205              		.cfi_endproc
 2206              	.LFE1898:
 2207              		.size	_ZN7sigslot17_connection_base3IP9GuiButtoniRK6_POINTNS_15single_threadedEED0Ev, .-_ZN7sigslo
 2208              		.section	.text._ZN7sigslot12_signal_baseINS_15single_threadedEED0Ev,"axG",@progbits,_ZN7sigslot12_
 2209              		.align 2
 2210              		.weak	_ZN7sigslot12_signal_baseINS_15single_threadedEED0Ev
 2211              		.type	_ZN7sigslot12_signal_baseINS_15single_threadedEED0Ev, @function
 2212              	_ZN7sigslot12_signal_baseINS_15single_threadedEED0Ev:
 2213              	.LFB1680:
 2214              		.loc 1 466 0
 2215              		.cfi_startproc
 2216              	.LVL167:
 2217 0000 7C0802A6 		mflr 0
 2218 0004 9421FFF8 		stwu 1,-8(1)
 2219              	.LCFI38:
 2220              		.cfi_def_cfa_offset 8
 2221              		.cfi_register 65, 0
 2222              	.LBB4272:
 2223              	.LBB4273:
 2224              	.LBB4274:
 2225              	.LBB4275:
 2226              	.LBB4276:
 2227              	.LBB4277:
 2228              		.loc 1 105 0
 2229 0008 3D200000 		lis 9,_ZTVN7sigslot15single_threadedE+8@ha
 2230              	.LBE4277:
 2231              	.LBE4276:
 2232              	.LBE4275:
 2233              	.LBE4274:
 2234              	.LBE4273:
 2235              	.LBE4272:
 2236              		.loc 1 466 0
 2237 000c 9001000C 		stw 0,12(1)
 2238              	.LBB4283:
 2239              	.LBB4282:
 2240              	.LBB4281:
 2241              	.LBB4280:
 2242              	.LBB4279:
 2243              	.LBB4278:
 2244              		.loc 1 105 0
 2245 0010 38090008 		la 0,_ZTVN7sigslot15single_threadedE+8@l(9)
 2246              		.cfi_offset 65, 4
 2247 0014 90030000 		stw 0,0(3)
 2248              	.LBE4278:
 2249              	.LBE4279:
 2250              	.LBE4280:
 2251              	.LBE4281:
 2252              	.LBE4282:
 2253              	.LBE4283:
 2254              		.loc 1 466 0
 2255 0018 48000001 		bl _ZdlPv
 2256              	.LVL168:
 2257 001c 8001000C 		lwz 0,12(1)
 2258 0020 38210008 		addi 1,1,8
 2259              	.LCFI39:
 2260              		.cfi_def_cfa_offset 0
 2261 0024 7C0803A6 		mtlr 0
 2262 0028 4E800020 		blr
 2263              		.cfi_endproc
 2264              	.LFE1680:
 2265              		.size	_ZN7sigslot12_signal_baseINS_15single_threadedEED0Ev, .-_ZN7sigslot12_signal_baseINS_15singl
 2266              		.section	.text._ZN7sigslot15single_threadedD0Ev,"axG",@progbits,_ZN7sigslot15single_threadedD5Ev,c
 2267              		.align 2
 2268              		.weak	_ZN7sigslot15single_threadedD0Ev
 2269              		.type	_ZN7sigslot15single_threadedD0Ev, @function
 2270              	_ZN7sigslot15single_threadedD0Ev:
 2271              	.LFB1150:
 2272              		.loc 1 104 0
 2273              		.cfi_startproc
 2274              	.LVL169:
 2275 0000 7C0802A6 		mflr 0
 2276 0004 9421FFF8 		stwu 1,-8(1)
 2277              	.LCFI40:
 2278              		.cfi_def_cfa_offset 8
 2279              		.cfi_register 65, 0
 2280              	.LBB4284:
 2281              	.LBB4285:
 2282              	.LBB4286:
 2283              		.loc 1 105 0
 2284 0008 3D200000 		lis 9,_ZTVN7sigslot15single_threadedE+8@ha
 2285              	.LBE4286:
 2286              	.LBE4285:
 2287              	.LBE4284:
 2288              		.loc 1 104 0
 2289 000c 9001000C 		stw 0,12(1)
 2290              	.LBB4289:
 2291              	.LBB4288:
 2292              	.LBB4287:
 2293              		.loc 1 105 0
 2294 0010 38090008 		la 0,_ZTVN7sigslot15single_threadedE+8@l(9)
 2295              		.cfi_offset 65, 4
 2296 0014 90030000 		stw 0,0(3)
 2297              	.LBE4287:
 2298              	.LBE4288:
 2299              	.LBE4289:
 2300              		.loc 1 107 0
 2301 0018 48000001 		bl _ZdlPv
 2302              	.LVL170:
 2303 001c 8001000C 		lwz 0,12(1)
 2304 0020 38210008 		addi 1,1,8
 2305              	.LCFI41:
 2306              		.cfi_def_cfa_offset 0
 2307 0024 7C0803A6 		mtlr 0
 2308 0028 4E800020 		blr
 2309              		.cfi_endproc
 2310              	.LFE1150:
 2311              		.size	_ZN7sigslot15single_threadedD0Ev, .-_ZN7sigslot15single_threadedD0Ev
 2312              		.section	.text._ZN7sigslot13_signal_base1IiNS_15single_threadedEE15slot_disconnectEPNS_9has_slotsI
 2313              		.align 2
 2314              		.weak	_ZN7sigslot13_signal_base1IiNS_15single_threadedEE15slot_disconnectEPNS_9has_slotsIS1_EE
 2315              		.type	_ZN7sigslot13_signal_base1IiNS_15single_threadedEE15slot_disconnectEPNS_9has_slotsIS1_EE, @f
 2316              	_ZN7sigslot13_signal_base1IiNS_15single_threadedEE15slot_disconnectEPNS_9has_slotsIS1_EE:
 2317              	.LFB2363:
 2318              		.loc 1 749 0
 2319              		.cfi_startproc
 2320              		.cfi_personality 0,__gxx_personality_v0
 2321              		.cfi_lsda 0,.LLSDA2363
 2322              	.LVL171:
 2323 0000 7C0802A6 		mflr 0
 2324 0004 9421FFE0 		stwu 1,-32(1)
 2325              	.LCFI42:
 2326              		.cfi_def_cfa_offset 32
 2327              		.cfi_register 65, 0
 2328 0008 9361000C 		stw 27,12(1)
 2329 000c 7C7B1B78 		mr 27,3
 2330              		.cfi_offset 27, -20
 2331              	.LVL172:
 2332 0010 90010024 		stw 0,36(1)
 2333 0014 93810010 		stw 28,16(1)
 2334 0018 7C9C2378 		mr 28,4
 2335              		.cfi_offset 28, -16
 2336              		.cfi_offset 65, 4
 2337              	.LBB4290:
 2338              	.LBB4291:
 2339              	.LBB4292:
 2340              		.loc 1 338 0
 2341 001c 81230000 		lwz 9,0(3)
 2342              	.LBE4292:
 2343              	.LBE4291:
 2344              	.LBE4290:
 2345              		.loc 1 749 0
 2346 0020 93A10014 		stw 29,20(1)
 2347              	.LBB4313:
 2348              	.LBB4295:
 2349              	.LBB4293:
 2350              		.loc 5 368 0
 2351 0024 7F7DDB78 		mr 29,27
 2352              		.cfi_offset 29, -12
 2353              		.loc 1 338 0
 2354 0028 80090008 		lwz 0,8(9)
 2355              	.LBE4293:
 2356              	.LBE4295:
 2357              	.LBE4313:
 2358              		.loc 1 749 0
 2359 002c 93E1001C 		stw 31,28(1)
 2360 0030 93C10018 		stw 30,24(1)
 2361              	.LBB4314:
 2362              	.LBB4296:
 2363              	.LBB4294:
 2364              		.loc 1 338 0
 2365 0034 7C0903A6 		mtctr 0
 2366              	.LEHB8:
 2367              		.cfi_offset 30, -8
 2368              		.cfi_offset 31, -4
 2369 0038 4E800421 		bctrl
 2370              	.LEHE8:
 2371              	.LVL173:
 2372              		.loc 5 368 0
 2373 003c 87FD0004 		lwzu 31,4(29)
 2374              	.LVL174:
 2375              	.LBE4294:
 2376              	.LBE4296:
 2377              		.loc 1 755 0
 2378 0040 7F9FE800 		cmpw 7,31,29
 2379 0044 40BE0014 		bne+ 7,.L152
 2380 0048 48000064 		b .L141
 2381              	.LVL175:
 2382              	.L142:
 2383              		.loc 1 755 0 is_stmt 0 discriminator 1
 2384 004c 7F9DF000 		cmpw 7,29,30
 2385 0050 419E005C 		beq- 7,.L141
 2386              	.L150:
 2387              		.loc 1 755 0
 2388 0054 7FDFF378 		mr 31,30
 2389              	.LVL176:
 2390              	.L152:
 2391              	.LBB4297:
 2392              		.loc 1 760 0 is_stmt 1
 2393 0058 807F0008 		lwz 3,8(31)
 2394              	.LBB4298:
 2395              	.LBB4299:
 2396              		.loc 7 154 0
 2397 005c 83DF0000 		lwz 30,0(31)
 2398              	.LVL177:
 2399              	.LBE4299:
 2400              	.LBE4298:
 2401              		.loc 1 760 0
 2402 0060 81230000 		lwz 9,0(3)
 2403 0064 80090008 		lwz 0,8(9)
 2404 0068 7C0903A6 		mtctr 0
 2405              	.LEHB9:
 2406 006c 4E800421 		bctrl
 2407              	.LVL178:
 2408 0070 7F9C1800 		cmpw 7,28,3
 2409 0074 409EFFD8 		bne+ 7,.L142
 2410              	.LVL179:
 2411              		.loc 1 762 0
 2412 0078 807F0008 		lwz 3,8(31)
 2413 007c 2F830000 		cmpwi 7,3,0
 2414 0080 419E0014 		beq- 7,.L143
 2415              		.loc 1 762 0 is_stmt 0 discriminator 1
 2416 0084 81230000 		lwz 9,0(3)
 2417 0088 80090004 		lwz 0,4(9)
 2418 008c 7C0903A6 		mtctr 0
 2419 0090 4E800421 		bctrl
 2420              	.LEHE9:
 2421              	.L143:
 2422              	.LVL180:
 2423              	.LBB4300:
 2424              	.LBB4301:
 2425              	.LBB4302:
 2426              	.LBB4303:
 2427              		.loc 7 1532 0 is_stmt 1
 2428 0094 7FE3FB78 		mr 3,31
 2429 0098 48000001 		bl _ZNSt8__detail15_List_node_base9_M_unhookEv
 2430              	.LVL181:
 2431              	.LBB4304:
 2432              	.LBB4305:
 2433              	.LBB4306:
 2434              		.loc 8 98 0
 2435 009c 7FE3FB78 		mr 3,31
 2436 00a0 48000001 		bl _ZdlPv
 2437              	.LVL182:
 2438              	.LBE4306:
 2439              	.LBE4305:
 2440              	.LBE4304:
 2441              	.LBE4303:
 2442              	.LBE4302:
 2443              	.LBE4301:
 2444              	.LBE4300:
 2445              	.LBE4297:
 2446              		.loc 1 755 0
 2447 00a4 7F9DF000 		cmpw 7,29,30
 2448 00a8 409EFFAC 		bne+ 7,.L150
 2449              	.LVL183:
 2450              	.L141:
 2451              	.LBB4307:
 2452              	.LBB4308:
 2453              	.LBB4309:
 2454              		.loc 1 343 0
 2455 00ac 813B0000 		lwz 9,0(27)
 2456 00b0 7F63DB78 		mr 3,27
 2457 00b4 8009000C 		lwz 0,12(9)
 2458 00b8 7C0903A6 		mtctr 0
 2459              	.LEHB10:
 2460 00bc 4E800421 		bctrl
 2461              	.LEHE10:
 2462              	.LBE4309:
 2463              	.LBE4308:
 2464              	.LBE4307:
 2465              	.LBE4314:
 2466              		.loc 1 769 0
 2467 00c0 80010024 		lwz 0,36(1)
 2468 00c4 8361000C 		lwz 27,12(1)
 2469              	.LVL184:
 2470 00c8 7C0803A6 		mtlr 0
 2471 00cc 83810010 		lwz 28,16(1)
 2472              	.LVL185:
 2473 00d0 83A10014 		lwz 29,20(1)
 2474              	.LVL186:
 2475 00d4 83C10018 		lwz 30,24(1)
 2476 00d8 83E1001C 		lwz 31,28(1)
 2477 00dc 38210020 		addi 1,1,32
 2478              		.cfi_remember_state
 2479              	.LCFI43:
 2480              		.cfi_def_cfa_offset 0
 2481              		.cfi_restore 31
 2482              		.cfi_restore 30
 2483              		.cfi_restore 29
 2484              		.cfi_restore 28
 2485              		.cfi_restore 27
 2486 00e0 4E800020 		blr
 2487              	.LVL187:
 2488              	.L151:
 2489              	.LCFI44:
 2490              		.cfi_restore_state
 2491              	.LBB4315:
 2492              	.LBB4310:
 2493              	.LBB4311:
 2494              	.LBB4312:
 2495              		.loc 1 343 0
 2496 00e4 813B0000 		lwz 9,0(27)
 2497 00e8 7C7F1B78 		mr 31,3
 2498              	.LVL188:
 2499 00ec 7F63DB78 		mr 3,27
 2500 00f0 8009000C 		lwz 0,12(9)
 2501 00f4 7C0903A6 		mtctr 0
 2502 00f8 4E800421 		bctrl
 2503 00fc 7FE3FB78 		mr 3,31
 2504              	.LEHB11:
 2505 0100 48000001 		bl _Unwind_Resume
 2506              	.LEHE11:
 2507              	.LBE4312:
 2508              	.LBE4311:
 2509              	.LBE4310:
 2510              	.LBE4315:
 2511              		.cfi_endproc
 2512              	.LFE2363:
 2513              		.section	.gcc_except_table
 2514              	.LLSDA2363:
 2515 0031 FF       		.byte	0xff
 2516 0032 FF       		.byte	0xff
 2517 0033 01       		.byte	0x1
 2518 0034 13       		.uleb128 .LLSDACSE2363-.LLSDACSB2363
 2519              	.LLSDACSB2363:
 2520 0035 38       		.uleb128 .LEHB8-.LFB2363
 2521 0036 04       		.uleb128 .LEHE8-.LEHB8
 2522 0037 00       		.uleb128 0
 2523 0038 00       		.uleb128 0
 2524 0039 6C       		.uleb128 .LEHB9-.LFB2363
 2525 003a 28       		.uleb128 .LEHE9-.LEHB9
 2526 003b E401     		.uleb128 .L151-.LFB2363
 2527 003d 00       		.uleb128 0
 2528 003e BC01     		.uleb128 .LEHB10-.LFB2363
 2529 0040 04       		.uleb128 .LEHE10-.LEHB10
 2530 0041 00       		.uleb128 0
 2531 0042 00       		.uleb128 0
 2532 0043 8002     		.uleb128 .LEHB11-.LFB2363
 2533 0045 04       		.uleb128 .LEHE11-.LEHB11
 2534 0046 00       		.uleb128 0
 2535 0047 00       		.uleb128 0
 2536              	.LLSDACSE2363:
 2537              		.section	.text._ZN7sigslot13_signal_base1IiNS_15single_threadedEE15slot_disconnectEPNS_9has_slotsI
 2538              		.size	_ZN7sigslot13_signal_base1IiNS_15single_threadedEE15slot_disconnectEPNS_9has_slotsIS1_EE, .-
 2539              		.section	".text"
 2540              		.align 2
 2541              		.globl _ZN17FlyingButtonsMenu12SlideButtonsEi
 2542              		.type	_ZN17FlyingButtonsMenu12SlideButtonsEi, @function
 2543              	_ZN17FlyingButtonsMenu12SlideButtonsEi:
 2544              	.LFB1590:
 2545              		.loc 5 301 0
 2546              		.cfi_startproc
 2547              	.LVL189:
 2548 02ec 7C0802A6 		mflr 0
 2549 02f0 9421FFC8 		stwu 1,-56(1)
 2550              	.LCFI45:
 2551              		.cfi_def_cfa_offset 56
 2552              		.cfi_register 65, 0
 2553              	.LBB4316:
 2554              		.loc 5 304 0
 2555 02f4 2F840000 		cmpwi 7,4,0
 2556              	.LBE4316:
 2557              		.loc 5 301 0
 2558 02f8 93E10034 		stw 31,52(1)
 2559 02fc 7C7F1B78 		mr 31,3
 2560              		.cfi_offset 31, -4
 2561 0300 9001003C 		stw 0,60(1)
 2562 0304 93A1002C 		stw 29,44(1)
 2563 0308 93C10030 		stw 30,48(1)
 2564              	.LBB4329:
 2565              		.loc 5 306 0
 2566 030c 81230000 		lwz 9,0(3)
 2567              		.loc 5 304 0
 2568 0310 409E007C 		bne- 7,.L154
 2569              		.cfi_offset 30, -8
 2570              		.cfi_offset 29, -12
 2571              		.cfi_offset 65, 4
 2572              		.loc 5 306 0
 2573 0314 800900EC 		lwz 0,236(9)
 2574 0318 38800024 		li 4,36
 2575              	.LVL190:
 2576 031c 38A00023 		li 5,35
 2577              		.loc 5 307 0
 2578 0320 3BC00018 		li 30,24
 2579              		.loc 5 306 0
 2580 0324 7C0903A6 		mtctr 0
 2581 0328 4E800421 		bctrl
 2582              	.LVL191:
 2583              		.loc 5 309 0
 2584 032c 813F00D8 		lwz 9,216(31)
 2585 0330 3809FFFF 		addi 0,9,-1
 2586              		.loc 5 311 0
 2587 0334 2F800000 		cmpwi 7,0,0
 2588              		.loc 5 309 0
 2589 0338 901F00D8 		stw 0,216(31)
 2590              		.loc 5 311 0
 2591 033c 419C00F0 		blt- 7,.L163
 2592              	.LVL192:
 2593              	.L155:
 2594              		.loc 5 325 0
 2595 0340 813F0000 		lwz 9,0(31)
 2596 0344 7FE3FB78 		mr 3,31
 2597 0348 800900E8 		lwz 0,232(9)
 2598 034c 7C0903A6 		mtctr 0
 2599 0350 4E800421 		bctrl
 2600              		.loc 5 327 0
 2601 0354 813F0000 		lwz 9,0(31)
 2602 0358 7FE3FB78 		mr 3,31
 2603 035c 7FC4F378 		mr 4,30
 2604 0360 800900EC 		lwz 0,236(9)
 2605 0364 38A00023 		li 5,35
 2606 0368 7C0903A6 		mtctr 0
 2607 036c 4E800421 		bctrl
 2608              	.LBE4329:
 2609              		.loc 5 328 0
 2610 0370 8001003C 		lwz 0,60(1)
 2611 0374 83A1002C 		lwz 29,44(1)
 2612 0378 7C0803A6 		mtlr 0
 2613 037c 83C10030 		lwz 30,48(1)
 2614              	.LVL193:
 2615 0380 83E10034 		lwz 31,52(1)
 2616              	.LVL194:
 2617 0384 38210038 		addi 1,1,56
 2618              		.cfi_remember_state
 2619              	.LCFI46:
 2620              		.cfi_def_cfa_offset 0
 2621              		.cfi_restore 31
 2622              		.cfi_restore 30
 2623              		.cfi_restore 29
 2624 0388 4E800020 		blr
 2625              	.LVL195:
 2626              	.L154:
 2627              	.LCFI47:
 2628              		.cfi_restore_state
 2629              	.LBB4330:
 2630              		.loc 5 316 0
 2631 038c 800900EC 		lwz 0,236(9)
 2632 0390 38800028 		li 4,40
 2633              	.LVL196:
 2634 0394 38A00023 		li 5,35
 2635              		.loc 5 321 0
 2636 0398 3FC04330 		lis 30,0x4330
 2637              		.loc 5 316 0
 2638 039c 7C0903A6 		mtctr 0
 2639 03a0 4E800421 		bctrl
 2640              	.LVL197:
 2641              	.LBB4317:
 2642              	.LBB4318:
 2643              		.loc 6 571 0
 2644 03a4 813F0168 		lwz 9,360(31)
 2645 03a8 801F0164 		lwz 0,356(31)
 2646              	.LBE4318:
 2647              	.LBE4317:
 2648              		.loc 5 321 0
 2649 03ac 93C10010 		stw 30,16(1)
 2650              	.LBB4321:
 2651              	.LBB4319:
 2652              		.loc 6 571 0
 2653 03b0 7C004850 		subf 0,0,9
 2654              	.LBE4319:
 2655              	.LBE4321:
 2656              		.loc 5 321 0
 2657 03b4 3D200000 		lis 9,.LC5@ha
 2658              	.LBB4322:
 2659              	.LBB4320:
 2660              		.loc 6 571 0
 2661 03b8 7C001670 		srawi 0,0,2
 2662              	.LBE4320:
 2663              	.LBE4322:
 2664              		.loc 5 321 0
 2665 03bc C009000C 		lfs 0,.LC5@l(9)
 2666 03c0 90010014 		stw 0,20(1)
 2667 03c4 3D200000 		lis 9,.LC6@ha
 2668 03c8 C8210010 		lfd 1,16(1)
 2669              		.loc 5 319 0
 2670 03cc 83BF00D8 		lwz 29,216(31)
 2671              		.loc 5 321 0
 2672 03d0 FC210028 		fsub 1,1,0
 2673 03d4 C0090010 		lfs 0,.LC6@l(9)
 2674              		.loc 5 319 0
 2675 03d8 3BBD0001 		addi 29,29,1
 2676 03dc 93BF00D8 		stw 29,216(31)
 2677              		.loc 5 321 0
 2678 03e0 6FBD8000 		xoris 29,29,0x8000
 2679 03e4 FC200818 		frsp 1,1
 2680 03e8 EC210032 		fmuls 1,1,0
 2681 03ec 48000001 		bl ceil
 2682 03f0 93A1001C 		stw 29,28(1)
 2683 03f4 93C10018 		stw 30,24(1)
 2684 03f8 3D200000 		lis 9,.LC1@ha
 2685 03fc C0090000 		lfs 0,.LC1@l(9)
 2686 0400 C9A10018 		lfd 13,24(1)
 2687 0404 FC0D0028 		fsub 0,13,0
 2688 0408 FF800800 		fcmpu 7,0,1
 2689 040c 4FDDF382 		cror 30,29,30
 2690 0410 409E0014 		bne- 7,.L162
 2691              		.loc 5 322 0
 2692 0414 38000000 		li 0,0
 2693              		.loc 5 317 0
 2694 0418 3BC00014 		li 30,20
 2695              		.loc 5 322 0
 2696 041c 901F00D8 		stw 0,216(31)
 2697 0420 4BFFFF20 		b .L155
 2698              	.L162:
 2699              		.loc 5 317 0
 2700 0424 3BC00014 		li 30,20
 2701 0428 4BFFFF18 		b .L155
 2702              	.LVL198:
 2703              	.L163:
 2704              	.LBB4323:
 2705              		.loc 5 368 0
 2706 042c 813F0164 		lwz 9,356(31)
 2707              	.LBE4323:
 2708              		.loc 5 312 0
 2709 0430 38000000 		li 0,0
 2710              	.LBB4324:
 2711              		.loc 5 368 0
 2712 0434 817F0168 		lwz 11,360(31)
 2713              	.LVL199:
 2714              	.LBE4324:
 2715              		.loc 5 312 0
 2716 0438 7F895800 		cmpw 7,9,11
 2717 043c 419E0058 		beq- 7,.L156
 2718              	.LBB4325:
 2719              	.LBB4326:
 2720              		.loc 6 571 0 discriminator 1
 2721 0440 7D295850 		subf 9,9,11
 2722              	.LBE4326:
 2723              	.LBE4325:
 2724              		.loc 5 312 0 discriminator 1
 2725 0444 3C004330 		lis 0,0x4330
 2726              	.LBB4328:
 2727              	.LBB4327:
 2728              		.loc 6 571 0 discriminator 1
 2729 0448 7D291670 		srawi 9,9,2
 2730              	.LBE4327:
 2731              	.LBE4328:
 2732              		.loc 5 312 0 discriminator 1
 2733 044c 90010008 		stw 0,8(1)
 2734 0450 9121000C 		stw 9,12(1)
 2735 0454 3D200000 		lis 9,.LC5@ha
 2736 0458 C009000C 		lfs 0,.LC5@l(9)
 2737 045c 3D200000 		lis 9,.LC6@ha
 2738 0460 C8210008 		lfd 1,8(1)
 2739 0464 FC210028 		fsub 1,1,0
 2740 0468 C0090010 		lfs 0,.LC6@l(9)
 2741 046c FC200818 		frsp 1,1
 2742 0470 EC210032 		fmuls 1,1,0
 2743 0474 48000001 		bl ceil
 2744 0478 3D200000 		lis 9,.LC8@ha
 2745 047c C0090014 		lfs 0,.LC8@l(9)
 2746 0480 39210020 		addi 9,1,32
 2747 0484 FC010028 		fsub 0,1,0
 2748 0488 FC00001E 		fctiwz 0,0
 2749 048c 7C004FAE 		stfiwx 0,0,9
 2750 0490 80010020 		lwz 0,32(1)
 2751              	.L156:
 2752              		.loc 5 312 0 is_stmt 0 discriminator 3
 2753 0494 901F00D8 		stw 0,216(31)
 2754              		.loc 5 307 0 is_stmt 1 discriminator 3
 2755 0498 3BC00018 		li 30,24
 2756 049c 4BFFFEA4 		b .L155
 2757              	.LBE4330:
 2758              		.cfi_endproc
 2759              	.LFE1590:
 2760              		.size	_ZN17FlyingButtonsMenu12SlideButtonsEi, .-_ZN17FlyingButtonsMenu12SlideButtonsEi
 2761              		.align 2
 2762              		.globl _ZN17FlyingButtonsMenu18ShowButtonsEffectsEii
 2763              		.type	_ZN17FlyingButtonsMenu18ShowButtonsEffectsEii, @function
 2764              	_ZN17FlyingButtonsMenu18ShowButtonsEffectsEii:
 2765              	.LFB1589:
 2766              		.loc 5 278 0
 2767              		.cfi_startproc
 2768              		.cfi_personality 0,__gxx_personality_v0
 2769              		.cfi_lsda 0,.LLSDA1589
 2770              	.LVL200:
 2771 04a0 7C0802A6 		mflr 0
 2772 04a4 9421FFD8 		stwu 1,-40(1)
 2773              	.LCFI48:
 2774              		.cfi_def_cfa_offset 40
 2775              		.cfi_register 65, 0
 2776 04a8 93810018 		stw 28,24(1)
 2777 04ac 9001002C 		stw 0,44(1)
 2778 04b0 93010008 		stw 24,8(1)
 2779 04b4 7CB82B78 		mr 24,5
 2780              		.cfi_offset 24, -32
 2781              		.cfi_offset 65, 4
 2782              		.cfi_offset 28, -16
 2783              	.LBB4350:
 2784              		.loc 5 279 0
 2785 04b8 838300D8 		lwz 28,216(3)
 2786              		.loc 5 368 0
 2787 04bc 81230164 		lwz 9,356(3)
 2788              		.loc 5 279 0
 2789 04c0 579C103A 		slwi 28,28,2
 2790              	.LBB4351:
 2791              	.LBB4352:
 2792              	.LBB4353:
 2793              		.loc 6 571 0
 2794 04c4 80030168 		lwz 0,360(3)
 2795              	.LBE4353:
 2796              	.LBE4352:
 2797              	.LBE4351:
 2798              		.loc 5 279 0
 2799 04c8 7F8BE0F8 		nor 11,28,28
 2800              	.LBE4350:
 2801              		.loc 5 278 0
 2802 04cc 9321000C 		stw 25,12(1)
 2803              	.LBB4377:
 2804              		.loc 5 279 0
 2805 04d0 7D6BFE70 		srawi 11,11,31
 2806              	.LBB4360:
 2807              	.LBB4357:
 2808              	.LBB4354:
 2809              		.loc 6 571 0
 2810 04d4 7C090050 		subf 0,9,0
 2811              	.LBE4354:
 2812              	.LBE4357:
 2813              	.LBE4360:
 2814              		.loc 5 279 0
 2815 04d8 7F9C5838 		and 28,28,11
 2816              	.LVL201:
 2817              	.LBB4361:
 2818              	.LBB4358:
 2819              	.LBB4355:
 2820              		.loc 6 571 0
 2821 04dc 7C001670 		srawi 0,0,2
 2822              	.LBE4355:
 2823              	.LBE4358:
 2824              		.loc 5 283 0
 2825 04e0 7F9C0000 		cmpw 7,28,0
 2826              	.LBE4361:
 2827              	.LBE4377:
 2828              		.loc 5 278 0
 2829 04e4 93E10024 		stw 31,36(1)
 2830 04e8 93410010 		stw 26,16(1)
 2831 04ec 7C7F1B78 		mr 31,3
 2832              		.cfi_offset 26, -24
 2833              		.cfi_offset 31, -4
 2834              		.cfi_offset 25, -28
 2835 04f0 93610014 		stw 27,20(1)
 2836 04f4 7C992378 		mr 25,4
 2837 04f8 93A1001C 		stw 29,28(1)
 2838 04fc 93C10020 		stw 30,32(1)
 2839              	.LBB4378:
 2840              	.LBB4362:
 2841              		.loc 5 283 0
 2842 0500 409C00A4 		bge- 7,.L164
 2843              		.cfi_offset 30, -8
 2844              		.cfi_offset 29, -12
 2845              		.cfi_offset 27, -20
 2846 0504 579B103A 		slwi 27,28,2
 2847 0508 3B5C0003 		addi 26,28,3
 2848              	.LBE4362:
 2849              	.LBE4378:
 2850              		.loc 5 277 0
 2851 050c 7F7EDB78 		mr 30,27
 2852 0510 7F9DE378 		mr 29,28
 2853              	.LVL202:
 2854              	.L167:
 2855              	.LBB4379:
 2856              	.LBB4363:
 2857              		.loc 5 285 0 discriminator 5
 2858 0514 7C69F02E 		lwzx 3,9,30
 2859              		.loc 5 283 0 discriminator 5
 2860 0518 3BBD0001 		addi 29,29,1
 2861              	.LVL203:
 2862              		.loc 5 285 0 discriminator 5
 2863 051c 81230000 		lwz 9,0(3)
 2864 0520 80090094 		lwz 0,148(9)
 2865 0524 7C0903A6 		mtctr 0
 2866              	.LEHB12:
 2867 0528 4E800421 		bctrl
 2868              	.LVL204:
 2869              		.loc 5 286 0 discriminator 5
 2870 052c 813F0164 		lwz 9,356(31)
 2871 0530 7F24CB78 		mr 4,25
 2872 0534 7F05C378 		mr 5,24
 2873 0538 7C69F02E 		lwzx 3,9,30
 2874 053c 38C00000 		li 6,0
 2875 0540 81230000 		lwz 9,0(3)
 2876 0544 80090088 		lwz 0,136(9)
 2877 0548 7C0903A6 		mtctr 0
 2878 054c 4E800421 		bctrl
 2879              	.LVL205:
 2880              		.loc 5 368 0 discriminator 5
 2881 0550 813F0164 		lwz 9,356(31)
 2882              	.LBB4359:
 2883              	.LBB4356:
 2884              		.loc 6 571 0 discriminator 5
 2885 0554 801F0168 		lwz 0,360(31)
 2886 0558 7C090050 		subf 0,9,0
 2887 055c 7C001670 		srawi 0,0,2
 2888              	.LBE4356:
 2889              	.LBE4359:
 2890              		.loc 5 283 0 discriminator 5
 2891 0560 7F9D0000 		cmpw 7,29,0
 2892 0564 419C0138 		blt- 7,.L169
 2893              	.L168:
 2894              	.LBE4363:
 2895              		.loc 5 289 0
 2896 0568 7F9C0000 		cmpw 7,28,0
 2897 056c 409C0038 		bge- 7,.L164
 2898              	.LVL206:
 2899              		.loc 5 292 0
 2900 0570 7C69D82E 		lwzx 3,9,27
 2901 0574 81230000 		lwz 9,0(3)
 2902 0578 8009009C 		lwz 0,156(9)
 2903 057c 7C0903A6 		mtctr 0
 2904 0580 4E800421 		bctrl
 2905 0584 2F830000 		cmpwi 7,3,0
 2906 0588 40BE0094 		bne+ 7,.L173
 2907              	.LVL207:
 2908              	.L182:
 2909              		.loc 5 368 0 discriminator 1
 2910 058c 813F0164 		lwz 9,356(31)
 2911              	.LBB4364:
 2912              	.LBB4365:
 2913              	.LBB4366:
 2914              		.loc 6 571 0 discriminator 1
 2915 0590 801F0168 		lwz 0,360(31)
 2916 0594 7C090050 		subf 0,9,0
 2917 0598 7C001670 		srawi 0,0,2
 2918              	.LBE4366:
 2919              	.LBE4365:
 2920              		.loc 5 296 0 discriminator 1
 2921 059c 7F9C0000 		cmpw 7,28,0
 2922 05a0 419C0090 		blt- 7,.L178
 2923              	.LVL208:
 2924              	.L164:
 2925              	.LBE4364:
 2926              	.LBE4379:
 2927              		.loc 5 298 0
 2928 05a4 8001002C 		lwz 0,44(1)
 2929 05a8 83010008 		lwz 24,8(1)
 2930              	.LVL209:
 2931 05ac 7C0803A6 		mtlr 0
 2932 05b0 8321000C 		lwz 25,12(1)
 2933              	.LVL210:
 2934 05b4 83410010 		lwz 26,16(1)
 2935 05b8 83610014 		lwz 27,20(1)
 2936 05bc 83810018 		lwz 28,24(1)
 2937 05c0 83A1001C 		lwz 29,28(1)
 2938 05c4 83C10020 		lwz 30,32(1)
 2939 05c8 83E10024 		lwz 31,36(1)
 2940              	.LVL211:
 2941 05cc 38210028 		addi 1,1,40
 2942              		.cfi_remember_state
 2943              	.LCFI49:
 2944              		.cfi_def_cfa_offset 0
 2945              		.cfi_restore 31
 2946              		.cfi_restore 30
 2947              		.cfi_restore 29
 2948              		.cfi_restore 28
 2949              		.cfi_restore 27
 2950              		.cfi_restore 26
 2951              		.cfi_restore 25
 2952              		.cfi_restore 24
 2953 05d0 4E800020 		blr
 2954              	.LVL212:
 2955              	.L184:
 2956              	.LCFI50:
 2957              		.cfi_restore_state
 2958              	.LBB4380:
 2959              	.LBB4369:
 2960              	.LBB4370:
 2961              		.file 9 "d:/Projects/SaveGameManager/savegame-manager-gx/trunk/source/Settings/menus/../../Control
 2962              		.loc 9 27 0
 2963 05d4 38600278 		li 3,632
 2964 05d8 48000001 		bl _Znwj
 2965              	.LEHE12:
 2966 05dc 7C7E1B78 		mr 30,3
 2967              	.LEHB13:
 2968 05e0 48000001 		bl _ZN11ApplicationC1Ev
 2969              	.LEHE13:
 2970 05e4 93DD0000 		stw 30,_ZN11Application8instanceE@l(29)
 2971              	.L171:
 2972              	.LBE4370:
 2973              	.LBE4369:
 2974              		.loc 5 293 0
 2975 05e8 813E0000 		lwz 9,0(30)
 2976 05ec 7FC3F378 		mr 3,30
 2977 05f0 800900D8 		lwz 0,216(9)
 2978 05f4 7C0903A6 		mtctr 0
 2979              	.LEHB14:
 2980 05f8 4E800421 		bctrl
 2981              	.LVL213:
 2982 05fc 813F0164 		lwz 9,356(31)
 2983              		.loc 5 292 0
 2984 0600 7C69D82E 		lwzx 3,9,27
 2985 0604 81230000 		lwz 9,0(3)
 2986 0608 8009009C 		lwz 0,156(9)
 2987 060c 7C0903A6 		mtctr 0
 2988 0610 4E800421 		bctrl
 2989 0614 2F830000 		cmpwi 7,3,0
 2990 0618 41BEFF74 		beq- 7,.L182
 2991              	.LVL214:
 2992              	.L173:
 2993              	.LBB4373:
 2994              	.LBB4371:
 2995              		.loc 9 27 0
 2996 061c 3FA00000 		lis 29,_ZN11Application8instanceE@ha
 2997 0620 83DD0000 		lwz 30,_ZN11Application8instanceE@l(29)
 2998 0624 2F9E0000 		cmpwi 7,30,0
 2999 0628 409EFFC0 		bne+ 7,.L171
 3000 062c 4BFFFFA8 		b .L184
 3001              	.LVL215:
 3002              	.L178:
 3003              	.LBE4371:
 3004              	.LBE4373:
 3005              	.LBB4374:
 3006              		.loc 5 297 0 discriminator 5
 3007 0630 7C69D82E 		lwzx 3,9,27
 3008              		.loc 5 296 0 discriminator 5
 3009 0634 3B9C0001 		addi 28,28,1
 3010              	.LVL216:
 3011              		.loc 5 297 0 discriminator 5
 3012 0638 81230000 		lwz 9,0(3)
 3013 063c 80090090 		lwz 0,144(9)
 3014 0640 7C0903A6 		mtctr 0
 3015 0644 4E800421 		bctrl
 3016              	.LVL217:
 3017              		.loc 5 368 0 discriminator 5
 3018 0648 813F0164 		lwz 9,356(31)
 3019              	.LBB4368:
 3020              	.LBB4367:
 3021              		.loc 6 571 0 discriminator 5
 3022 064c 801F0168 		lwz 0,360(31)
 3023 0650 7C090050 		subf 0,9,0
 3024 0654 7C001670 		srawi 0,0,2
 3025              	.LBE4367:
 3026              	.LBE4368:
 3027              		.loc 5 296 0 discriminator 5
 3028 0658 7F9C0000 		cmpw 7,28,0
 3029 065c 40BCFF48 		bge- 7,.L164
 3030              		.loc 5 296 0 is_stmt 0 discriminator 2
 3031 0660 7F9CD000 		cmpw 7,28,26
 3032 0664 3B7B0004 		addi 27,27,4
 3033 0668 40BDFFC8 		ble- 7,.L178
 3034              	.LBE4374:
 3035              	.LBE4380:
 3036              		.loc 5 298 0 is_stmt 1
 3037 066c 8001002C 		lwz 0,44(1)
 3038 0670 83010008 		lwz 24,8(1)
 3039              	.LVL218:
 3040 0674 7C0803A6 		mtlr 0
 3041 0678 8321000C 		lwz 25,12(1)
 3042              	.LVL219:
 3043 067c 83410010 		lwz 26,16(1)
 3044              	.LVL220:
 3045 0680 83610014 		lwz 27,20(1)
 3046 0684 83810018 		lwz 28,24(1)
 3047              	.LVL221:
 3048 0688 83A1001C 		lwz 29,28(1)
 3049 068c 83C10020 		lwz 30,32(1)
 3050 0690 83E10024 		lwz 31,36(1)
 3051              	.LVL222:
 3052 0694 38210028 		addi 1,1,40
 3053              		.cfi_remember_state
 3054              		.cfi_restore 24
 3055              		.cfi_restore 25
 3056              		.cfi_restore 26
 3057              		.cfi_restore 27
 3058              		.cfi_restore 28
 3059              		.cfi_restore 29
 3060              		.cfi_restore 30
 3061              		.cfi_restore 31
 3062              	.LCFI51:
 3063              		.cfi_def_cfa_offset 0
 3064 0698 4E800020 		blr
 3065              	.LVL223:
 3066              	.L169:
 3067              	.LCFI52:
 3068              		.cfi_restore_state
 3069              	.LBB4381:
 3070              	.LBB4375:
 3071              		.loc 5 283 0 discriminator 2
 3072 069c 7F9DD000 		cmpw 7,29,26
 3073 06a0 3BDE0004 		addi 30,30,4
 3074 06a4 41BDFEC4 		bgt- 7,.L168
 3075 06a8 4BFFFE6C 		b .L167
 3076              	.LVL224:
 3077              	.L177:
 3078 06ac 7C7F1B78 		mr 31,3
 3079              	.LVL225:
 3080              	.LBE4375:
 3081              	.LBB4376:
 3082              	.LBB4372:
 3083              		.loc 9 27 0
 3084 06b0 7FC3F378 		mr 3,30
 3085 06b4 48000001 		bl _ZdlPv
 3086 06b8 7FE3FB78 		mr 3,31
 3087 06bc 48000001 		bl _Unwind_Resume
 3088              	.LEHE14:
 3089              	.LBE4372:
 3090              	.LBE4376:
 3091              	.LBE4381:
 3092              		.cfi_endproc
 3093              	.LFE1589:
 3094              		.section	.gcc_except_table
 3095              	.LLSDA1589:
 3096 0048 FF       		.byte	0xff
 3097 0049 FF       		.byte	0xff
 3098 004a 01       		.byte	0x1
 3099 004b 12       		.uleb128 .LLSDACSE1589-.LLSDACSB1589
 3100              	.LLSDACSB1589:
 3101 004c 8801     		.uleb128 .LEHB12-.LFB1589
 3102 004e B401     		.uleb128 .LEHE12-.LEHB12
 3103 0050 00       		.uleb128 0
 3104 0051 00       		.uleb128 0
 3105 0052 C002     		.uleb128 .LEHB13-.LFB1589
 3106 0054 04       		.uleb128 .LEHE13-.LEHB13
 3107 0055 8C04     		.uleb128 .L177-.LFB1589
 3108 0057 00       		.uleb128 0
 3109 0058 D802     		.uleb128 .LEHB14-.LFB1589
 3110 005a C801     		.uleb128 .LEHE14-.LEHB14
 3111 005c 00       		.uleb128 0
 3112 005d 00       		.uleb128 0
 3113              	.LLSDACSE1589:
 3114              		.section	".text"
 3115              		.size	_ZN17FlyingButtonsMenu18ShowButtonsEffectsEii, .-_ZN17FlyingButtonsMenu18ShowButtonsEffectsE
 3116              		.align 2
 3117              		.globl _ZN17FlyingButtonsMenu14AddMainButtonsEv
 3118              		.type	_ZN17FlyingButtonsMenu14AddMainButtonsEv, @function
 3119              	_ZN17FlyingButtonsMenu14AddMainButtonsEv:
 3120              	.LFB1588:
 3121              		.loc 5 265 0
 3122              		.cfi_startproc
 3123              	.LVL226:
 3124 06c0 7C0802A6 		mflr 0
 3125 06c4 9421FFE8 		stwu 1,-24(1)
 3126              	.LCFI53:
 3127              		.cfi_def_cfa_offset 24
 3128              		.cfi_register 65, 0
 3129 06c8 93E10014 		stw 31,20(1)
 3130 06cc 7C7F1B78 		mr 31,3
 3131              		.cfi_offset 31, -4
 3132 06d0 9001001C 		stw 0,28(1)
 3133              	.LBB4382:
 3134              	.LBB4383:
 3135              		.loc 5 266 0
 3136 06d4 38000000 		li 0,0
 3137              		.cfi_offset 65, 4
 3138              	.LBE4383:
 3139              	.LBE4382:
 3140              		.loc 5 265 0
 3141 06d8 93810008 		stw 28,8(1)
 3142              	.LBB4398:
 3143              	.LBB4390:
 3144              		.loc 5 368 0
 3145 06dc 81230164 		lwz 9,356(3)
 3146              	.LBB4384:
 3147              	.LBB4385:
 3148              		.loc 6 571 0
 3149 06e0 81630168 		lwz 11,360(3)
 3150              	.LBE4385:
 3151              	.LBE4384:
 3152              	.LBE4390:
 3153              	.LBE4398:
 3154              		.loc 5 265 0
 3155 06e4 93A1000C 		stw 29,12(1)
 3156              	.LBB4399:
 3157              	.LBB4391:
 3158              	.LBB4388:
 3159              	.LBB4386:
 3160              		.loc 6 571 0
 3161 06e8 7D695850 		subf 11,9,11
 3162              	.LBE4386:
 3163              	.LBE4388:
 3164              	.LBE4391:
 3165              	.LBE4399:
 3166              		.loc 5 265 0
 3167 06ec 93C10010 		stw 30,16(1)
 3168              	.LBB4400:
 3169              	.LBB4392:
 3170              		.loc 5 266 0
 3171 06f0 556AF0BF 		srwi. 10,11,2
 3172 06f4 41820034 		beq- 0,.L186
 3173              		.cfi_offset 30, -8
 3174              		.cfi_offset 29, -12
 3175              		.cfi_offset 28, -16
 3176 06f8 3BC00000 		li 30,0
 3177              	.LVL227:
 3178              	.L187:
 3179              		.loc 5 267 0 discriminator 2
 3180 06fc 57C0103A 		slwi 0,30,2
 3181 0700 7FE3FB78 		mr 3,31
 3182 0704 7C89002E 		lwzx 4,9,0
 3183              		.loc 5 266 0 discriminator 2
 3184 0708 3BDE0001 		addi 30,30,1
 3185              	.LVL228:
 3186              		.loc 5 267 0 discriminator 2
 3187 070c 48000001 		bl _ZN8GuiFrame6RemoveEP10GuiElement
 3188              	.LVL229:
 3189              		.loc 5 368 0 discriminator 2
 3190 0710 813F0164 		lwz 9,356(31)
 3191              	.LBB4389:
 3192              	.LBB4387:
 3193              		.loc 6 571 0 discriminator 2
 3194 0714 801F0168 		lwz 0,360(31)
 3195 0718 7C090050 		subf 0,9,0
 3196 071c 7C001670 		srawi 0,0,2
 3197              	.LBE4387:
 3198              	.LBE4389:
 3199              		.loc 5 266 0 discriminator 2
 3200 0720 7F9E0040 		cmplw 7,30,0
 3201 0724 419CFFD8 		blt+ 7,.L187
 3202              	.LVL230:
 3203              	.L186:
 3204              	.LBE4392:
 3205              		.loc 5 269 0
 3206 0728 83BF00D8 		lwz 29,216(31)
 3207 072c 57BE103A 		slwi 30,29,2
 3208              	.LVL231:
 3209              	.LBB4393:
 3210              		.loc 5 271 0
 3211 0730 57BD2036 		slwi 29,29,4
 3212 0734 7F9E0000 		cmpw 7,30,0
 3213 0738 3B9E0003 		addi 28,30,3
 3214 073c 409C0038 		bge- 7,.L188
 3215              	.LVL232:
 3216              	.L189:
 3217              		.loc 5 272 0 discriminator 5
 3218 0740 7C89E82E 		lwzx 4,9,29
 3219 0744 7FE3FB78 		mr 3,31
 3220              		.loc 5 271 0 discriminator 5
 3221 0748 3BDE0001 		addi 30,30,1
 3222              	.LVL233:
 3223 074c 3BBD0004 		addi 29,29,4
 3224              		.loc 5 272 0 discriminator 5
 3225 0750 48000001 		bl _ZN8GuiFrame6AppendEP10GuiElement
 3226              	.LVL234:
 3227              		.loc 5 368 0 discriminator 5
 3228 0754 813F0164 		lwz 9,356(31)
 3229              	.LBB4394:
 3230              	.LBB4395:
 3231              		.loc 6 571 0 discriminator 5
 3232 0758 801F0168 		lwz 0,360(31)
 3233              	.LBE4395:
 3234              	.LBE4394:
 3235              		.loc 5 271 0 discriminator 5
 3236 075c 7F9EE000 		cmpw 7,30,28
 3237              	.LBB4397:
 3238              	.LBB4396:
 3239              		.loc 6 571 0 discriminator 5
 3240 0760 7C090050 		subf 0,9,0
 3241 0764 7C001670 		srawi 0,0,2
 3242              	.LBE4396:
 3243              	.LBE4397:
 3244              		.loc 5 271 0 discriminator 5
 3245 0768 7F1E0000 		cmpw 6,30,0
 3246 076c 40980008 		bge- 6,.L188
 3247              		.loc 5 271 0 is_stmt 0 discriminator 2
 3248 0770 40BDFFD0 		ble- 7,.L189
 3249              	.LVL235:
 3250              	.L188:
 3251              	.LBE4393:
 3252              		.loc 5 274 0 is_stmt 1
 3253 0774 813F0000 		lwz 9,0(31)
 3254 0778 7FE3FB78 		mr 3,31
 3255 077c 800900F4 		lwz 0,244(9)
 3256 0780 7C0903A6 		mtctr 0
 3257 0784 4E800421 		bctrl
 3258              	.LBE4400:
 3259              		.loc 5 275 0
 3260 0788 8001001C 		lwz 0,28(1)
 3261 078c 83810008 		lwz 28,8(1)
 3262              	.LVL236:
 3263 0790 7C0803A6 		mtlr 0
 3264 0794 83A1000C 		lwz 29,12(1)
 3265 0798 83C10010 		lwz 30,16(1)
 3266              	.LVL237:
 3267 079c 83E10014 		lwz 31,20(1)
 3268              	.LVL238:
 3269 07a0 38210018 		addi 1,1,24
 3270              	.LCFI54:
 3271              		.cfi_def_cfa_offset 0
 3272              		.cfi_restore 31
 3273              		.cfi_restore 30
 3274              		.cfi_restore 29
 3275              		.cfi_restore 28
 3276 07a4 4E800020 		blr
 3277              		.cfi_endproc
 3278              	.LFE1588:
 3279              		.size	_ZN17FlyingButtonsMenu14AddMainButtonsEv, .-_ZN17FlyingButtonsMenu14AddMainButtonsEv
 3280              		.align 2
 3281              		.globl _ZN17FlyingButtonsMenu4showEv
 3282              		.type	_ZN17FlyingButtonsMenu4showEv, @function
 3283              	_ZN17FlyingButtonsMenu4showEv:
 3284              	.LFB1583:
 3285              		.loc 5 157 0
 3286              		.cfi_startproc
 3287              	.LVL239:
 3288 07a8 9421FFF0 		stwu 1,-16(1)
 3289              	.LCFI55:
 3290              		.cfi_def_cfa_offset 16
 3291 07ac 7C0802A6 		mflr 0
 3292              		.loc 5 158 0
 3293 07b0 38800000 		li 4,0
 3294              		.loc 5 157 0
 3295 07b4 93E1000C 		stw 31,12(1)
 3296 07b8 7C7F1B78 		mr 31,3
 3297              		.cfi_offset 31, -4
 3298              		.cfi_register 65, 0
 3299 07bc 90010014 		stw 0,20(1)
 3300              		.loc 5 158 0
 3301              		.cfi_offset 65, 4
 3302 07c0 48000001 		bl _ZN8GuiFrame8SetStateEi
 3303              	.LVL240:
 3304              		.loc 5 160 0
 3305 07c4 809F010C 		lwz 4,268(31)
 3306 07c8 7FE3FB78 		mr 3,31
 3307 07cc 48000001 		bl _ZN8GuiFrame6AppendEP10GuiElement
 3308              		.loc 5 161 0
 3309 07d0 809F0110 		lwz 4,272(31)
 3310 07d4 7FE3FB78 		mr 3,31
 3311 07d8 48000001 		bl _ZN8GuiFrame6AppendEP10GuiElement
 3312              		.loc 5 162 0
 3313 07dc 813F0000 		lwz 9,0(31)
 3314 07e0 7FE3FB78 		mr 3,31
 3315 07e4 800900E8 		lwz 0,232(9)
 3316 07e8 7C0903A6 		mtctr 0
 3317 07ec 4E800421 		bctrl
 3318              		.loc 5 163 0
 3319 07f0 80010014 		lwz 0,20(1)
 3320 07f4 83E1000C 		lwz 31,12(1)
 3321              	.LVL241:
 3322 07f8 7C0803A6 		mtlr 0
 3323 07fc 38210010 		addi 1,1,16
 3324              	.LCFI56:
 3325              		.cfi_def_cfa_offset 0
 3326              		.cfi_restore 31
 3327 0800 4E800020 		blr
 3328              		.cfi_endproc
 3329              	.LFE1583:
 3330              		.size	_ZN17FlyingButtonsMenu4showEv, .-_ZN17FlyingButtonsMenu4showEv
 3331              		.align 2
 3332              		.type	_ZNSt12_Vector_baseIP8GuiImageSaIS1_EE13_M_deallocateEPS1_j.isra.34, @function
 3333              	_ZNSt12_Vector_baseIP8GuiImageSaIS1_EE13_M_deallocateEPS1_j.isra.34:
 3334              	.LFB2430:
 3335              		.loc 6 153 0
 3336              		.cfi_startproc
 3337              	.LVL242:
 3338              		.loc 6 155 0
 3339 0804 2F830000 		cmpwi 7,3,0
 3340              		.loc 6 153 0
 3341 0808 7C0802A6 		mflr 0
 3342 080c 9421FFF8 		stwu 1,-8(1)
 3343              	.LCFI57:
 3344              		.cfi_def_cfa_offset 8
 3345              		.cfi_register 65, 0
 3346 0810 9001000C 		stw 0,12(1)
 3347              		.loc 6 155 0
 3348 0814 419E0008 		beq- 7,.L194
 3349              		.cfi_offset 65, 4
 3350              	.LBB4403:
 3351              	.LBB4404:
 3352              		.loc 8 98 0
 3353 0818 48000001 		bl _ZdlPv
 3354              	.LVL243:
 3355              	.L194:
 3356              	.LBE4404:
 3357              	.LBE4403:
 3358              		.loc 6 157 0
 3359 081c 8001000C 		lwz 0,12(1)
 3360 0820 38210008 		addi 1,1,8
 3361              	.LCFI58:
 3362              		.cfi_def_cfa_offset 0
 3363 0824 7C0803A6 		mtlr 0
 3364 0828 4E800020 		blr
 3365              		.cfi_endproc
 3366              	.LFE2430:
 3367              		.size	_ZNSt12_Vector_baseIP8GuiImageSaIS1_EE13_M_deallocateEPS1_j.isra.34, .-_ZNSt12_Vector_baseIP
 3368              		.align 2
 3369              		.type	_ZNSt12_Vector_baseIP7GuiTextSaIS1_EE13_M_deallocateEPS1_j.isra.44, @function
 3370              	_ZNSt12_Vector_baseIP7GuiTextSaIS1_EE13_M_deallocateEPS1_j.isra.44:
 3371              	.LFB2440:
 3372              		.loc 6 153 0
 3373              		.cfi_startproc
 3374              	.LVL244:
 3375              		.loc 6 155 0
 3376 082c 2F830000 		cmpwi 7,3,0
 3377              		.loc 6 153 0
 3378 0830 7C0802A6 		mflr 0
 3379 0834 9421FFF8 		stwu 1,-8(1)
 3380              	.LCFI59:
 3381              		.cfi_def_cfa_offset 8
 3382              		.cfi_register 65, 0
 3383 0838 9001000C 		stw 0,12(1)
 3384              		.loc 6 155 0
 3385 083c 419E0008 		beq- 7,.L196
 3386              		.cfi_offset 65, 4
 3387              	.LBB4407:
 3388              	.LBB4408:
 3389              		.loc 8 98 0
 3390 0840 48000001 		bl _ZdlPv
 3391              	.LVL245:
 3392              	.L196:
 3393              	.LBE4408:
 3394              	.LBE4407:
 3395              		.loc 6 157 0
 3396 0844 8001000C 		lwz 0,12(1)
 3397 0848 38210008 		addi 1,1,8
 3398              	.LCFI60:
 3399              		.cfi_def_cfa_offset 0
 3400 084c 7C0803A6 		mtlr 0
 3401 0850 4E800020 		blr
 3402              		.cfi_endproc
 3403              	.LFE2440:
 3404              		.size	_ZNSt12_Vector_baseIP7GuiTextSaIS1_EE13_M_deallocateEPS1_j.isra.44, .-_ZNSt12_Vector_baseIP7
 3405              		.align 2
 3406              		.type	_ZNSt12_Vector_baseIP9GuiButtonSaIS1_EE13_M_deallocateEPS1_j.isra.54, @function
 3407              	_ZNSt12_Vector_baseIP9GuiButtonSaIS1_EE13_M_deallocateEPS1_j.isra.54:
 3408              	.LFB2450:
 3409              		.loc 6 153 0
 3410              		.cfi_startproc
 3411              	.LVL246:
 3412              		.loc 6 155 0
 3413 0854 2F830000 		cmpwi 7,3,0
 3414              		.loc 6 153 0
 3415 0858 7C0802A6 		mflr 0
 3416 085c 9421FFF8 		stwu 1,-8(1)
 3417              	.LCFI61:
 3418              		.cfi_def_cfa_offset 8
 3419              		.cfi_register 65, 0
 3420 0860 9001000C 		stw 0,12(1)
 3421              		.loc 6 155 0
 3422 0864 419E0008 		beq- 7,.L198
 3423              		.cfi_offset 65, 4
 3424              	.LBB4411:
 3425              	.LBB4412:
 3426              		.loc 8 98 0
 3427 0868 48000001 		bl _ZdlPv
 3428              	.LVL247:
 3429              	.L198:
 3430              	.LBE4412:
 3431              	.LBE4411:
 3432              		.loc 6 157 0
 3433 086c 8001000C 		lwz 0,12(1)
 3434 0870 38210008 		addi 1,1,8
 3435              	.LCFI62:
 3436              		.cfi_def_cfa_offset 0
 3437 0874 7C0803A6 		mtlr 0
 3438 0878 4E800020 		blr
 3439              		.cfi_endproc
 3440              	.LFE2450:
 3441              		.size	_ZNSt12_Vector_baseIP9GuiButtonSaIS1_EE13_M_deallocateEPS1_j.isra.54, .-_ZNSt12_Vector_baseI
 3442              		.align 2
 3443              		.globl _ZN17FlyingButtonsMenu7FadeOutEv
 3444              		.type	_ZN17FlyingButtonsMenu7FadeOutEv, @function
 3445              	_ZN17FlyingButtonsMenu7FadeOutEv:
 3446              	.LFB1585:
 3447              		.loc 5 173 0
 3448              		.cfi_startproc
 3449              		.cfi_personality 0,__gxx_personality_v0
 3450              		.cfi_lsda 0,.LLSDA1585
 3451              	.LVL248:
 3452 087c 7C0802A6 		mflr 0
 3453 0880 9421FFE8 		stwu 1,-24(1)
 3454              	.LCFI63:
 3455              		.cfi_def_cfa_offset 24
 3456              		.cfi_register 65, 0
 3457              		.loc 5 174 0
 3458 0884 38800080 		li 4,128
 3459 0888 38A0FFEC 		li 5,-20
 3460              		.loc 5 173 0
 3461 088c 93C10010 		stw 30,16(1)
 3462              		.loc 5 174 0
 3463 0890 38C00000 		li 6,0
 3464              		.loc 5 173 0
 3465 0894 9001001C 		stw 0,28(1)
 3466 0898 7C7E1B78 		mr 30,3
 3467              		.cfi_offset 65, 4
 3468              		.cfi_offset 30, -8
 3469 089c 93A1000C 		stw 29,12(1)
 3470              		.loc 5 174 0
 3471 08a0 81230000 		lwz 9,0(3)
 3472              		.loc 5 173 0
 3473 08a4 93E10014 		stw 31,20(1)
 3474              		.loc 5 174 0
 3475 08a8 80090088 		lwz 0,136(9)
 3476 08ac 7C0903A6 		mtctr 0
 3477              	.LEHB15:
 3478              		.cfi_offset 31, -4
 3479              		.cfi_offset 29, -12
 3480 08b0 4E800421 		bctrl
 3481              	.LVL249:
 3482              		.loc 5 175 0
 3483 08b4 48000018 		b .L201
 3484              	.L202:
 3485              		.loc 5 176 0
 3486 08b8 813F0000 		lwz 9,0(31)
 3487 08bc 7FE3FB78 		mr 3,31
 3488 08c0 800900D8 		lwz 0,216(9)
 3489 08c4 7C0903A6 		mtctr 0
 3490 08c8 4E800421 		bctrl
 3491              	.L201:
 3492              		.loc 5 175 0 discriminator 1
 3493 08cc 813E0000 		lwz 9,0(30)
 3494 08d0 7FC3F378 		mr 3,30
 3495 08d4 8009009C 		lwz 0,156(9)
 3496 08d8 7C0903A6 		mtctr 0
 3497 08dc 4E800421 		bctrl
 3498 08e0 2F830000 		cmpwi 7,3,0
 3499 08e4 419E002C 		beq- 7,.L206
 3500              	.LBB4415:
 3501              	.LBB4416:
 3502              		.loc 9 27 0
 3503 08e8 3FA00000 		lis 29,_ZN11Application8instanceE@ha
 3504 08ec 83FD0000 		lwz 31,_ZN11Application8instanceE@l(29)
 3505 08f0 2F9F0000 		cmpwi 7,31,0
 3506 08f4 409EFFC4 		bne+ 7,.L202
 3507 08f8 38600278 		li 3,632
 3508 08fc 48000001 		bl _Znwj
 3509              	.LEHE15:
 3510 0900 7C7F1B78 		mr 31,3
 3511              	.LEHB16:
 3512 0904 48000001 		bl _ZN11ApplicationC1Ev
 3513              	.LEHE16:
 3514 0908 93FD0000 		stw 31,_ZN11Application8instanceE@l(29)
 3515 090c 4BFFFFAC 		b .L202
 3516              	.L206:
 3517              	.LBE4416:
 3518              	.LBE4415:
 3519              		.loc 5 178 0
 3520 0910 813E0000 		lwz 9,0(30)
 3521 0914 7FC3F378 		mr 3,30
 3522 0918 800900D0 		lwz 0,208(9)
 3523 091c 7C0903A6 		mtctr 0
 3524              	.LEHB17:
 3525 0920 4E800421 		bctrl
 3526              		.loc 5 179 0
 3527 0924 8001001C 		lwz 0,28(1)
 3528 0928 83A1000C 		lwz 29,12(1)
 3529 092c 7C0803A6 		mtlr 0
 3530 0930 83C10010 		lwz 30,16(1)
 3531              	.LVL250:
 3532 0934 83E10014 		lwz 31,20(1)
 3533 0938 38210018 		addi 1,1,24
 3534              		.cfi_remember_state
 3535              	.LCFI64:
 3536              		.cfi_def_cfa_offset 0
 3537              		.cfi_restore 31
 3538              		.cfi_restore 30
 3539              		.cfi_restore 29
 3540 093c 4E800020 		blr
 3541              	.LVL251:
 3542              	.L205:
 3543              	.LCFI65:
 3544              		.cfi_restore_state
 3545 0940 7C7E1B78 		mr 30,3
 3546              	.LVL252:
 3547              	.LBB4418:
 3548              	.LBB4417:
 3549              		.loc 9 27 0
 3550 0944 7FE3FB78 		mr 3,31
 3551 0948 48000001 		bl _ZdlPv
 3552 094c 7FC3F378 		mr 3,30
 3553 0950 48000001 		bl _Unwind_Resume
 3554              	.LEHE17:
 3555              	.LBE4417:
 3556              	.LBE4418:
 3557              		.cfi_endproc
 3558              	.LFE1585:
 3559              		.section	.gcc_except_table
 3560              	.LLSDA1585:
 3561 005e FF       		.byte	0xff
 3562 005f FF       		.byte	0xff
 3563 0060 01       		.byte	0x1
 3564 0061 0F       		.uleb128 .LLSDACSE1585-.LLSDACSB1585
 3565              	.LLSDACSB1585:
 3566 0062 34       		.uleb128 .LEHB15-.LFB1585
 3567 0063 50       		.uleb128 .LEHE15-.LEHB15
 3568 0064 00       		.uleb128 0
 3569 0065 00       		.uleb128 0
 3570 0066 8801     		.uleb128 .LEHB16-.LFB1585
 3571 0068 04       		.uleb128 .LEHE16-.LEHB16
 3572 0069 C401     		.uleb128 .L205-.LFB1585
 3573 006b 00       		.uleb128 0
 3574 006c A401     		.uleb128 .LEHB17-.LFB1585
 3575 006e 34       		.uleb128 .LEHE17-.LEHB17
 3576 006f 00       		.uleb128 0
 3577 0070 00       		.uleb128 0
 3578              	.LLSDACSE1585:
 3579              		.section	".text"
 3580              		.size	_ZN17FlyingButtonsMenu7FadeOutEv, .-_ZN17FlyingButtonsMenu7FadeOutEv
 3581              		.align 2
 3582              		.globl _ZN17FlyingButtonsMenu4hideEv
 3583              		.type	_ZN17FlyingButtonsMenu4hideEv, @function
 3584              	_ZN17FlyingButtonsMenu4hideEv:
 3585              	.LFB1582:
 3586              		.loc 5 149 0
 3587              		.cfi_startproc
 3588              		.cfi_personality 0,__gxx_personality_v0
 3589              		.cfi_lsda 0,.LLSDA1582
 3590              	.LVL253:
 3591 0954 9421FFE8 		stwu 1,-24(1)
 3592              	.LCFI66:
 3593              		.cfi_def_cfa_offset 24
 3594 0958 7C0802A6 		mflr 0
 3595 095c 93A1000C 		stw 29,12(1)
 3596              	.LBB4421:
 3597              	.LBB4422:
 3598              		.loc 9 27 0
 3599 0960 3FA00000 		lis 29,_ZN11Application8instanceE@ha
 3600              		.cfi_offset 29, -12
 3601              		.cfi_register 65, 0
 3602              	.LBE4422:
 3603              	.LBE4421:
 3604              		.loc 5 149 0
 3605 0964 93C10010 		stw 30,16(1)
 3606              	.LBB4429:
 3607              	.LBB4423:
 3608              		.loc 9 27 0
 3609 0968 83DD0000 		lwz 30,_ZN11Application8instanceE@l(29)
 3610              		.cfi_offset 30, -8
 3611              	.LBE4423:
 3612              	.LBE4429:
 3613              		.loc 5 149 0
 3614 096c 93E10014 		stw 31,20(1)
 3615 0970 7C7F1B78 		mr 31,3
 3616              		.cfi_offset 31, -4
 3617              	.LBB4430:
 3618              	.LBB4424:
 3619              		.loc 9 27 0
 3620 0974 2F9E0000 		cmpwi 7,30,0
 3621              	.LBE4424:
 3622              	.LBE4430:
 3623              		.loc 5 149 0
 3624 0978 9001001C 		stw 0,28(1)
 3625              	.LBB4431:
 3626              	.LBB4425:
 3627              		.loc 9 27 0
 3628 097c 419E0040 		beq- 7,.L211
 3629              		.cfi_offset 65, 4
 3630              	.LBE4425:
 3631              	.LBE4431:
 3632              		.loc 5 150 0
 3633 0980 7FE4FB78 		mr 4,31
 3634 0984 7FC3F378 		mr 3,30
 3635              	.LVL254:
 3636              	.LEHB18:
 3637 0988 48000001 		bl _ZN8GuiFrame6RemoveEP10GuiElement
 3638              	.LVL255:
 3639              		.loc 5 151 0
 3640 098c 7FE3FB78 		mr 3,31
 3641 0990 48000001 		bl _ZN8GuiFrame9RemoveAllEv
 3642              		.loc 5 153 0
 3643 0994 7FE3FB78 		mr 3,31
 3644 0998 38800004 		li 4,4
 3645 099c 48000001 		bl _ZN8GuiFrame8SetStateEi
 3646              		.loc 5 154 0
 3647 09a0 8001001C 		lwz 0,28(1)
 3648 09a4 83A1000C 		lwz 29,12(1)
 3649 09a8 7C0803A6 		mtlr 0
 3650 09ac 83C10010 		lwz 30,16(1)
 3651 09b0 83E10014 		lwz 31,20(1)
 3652              	.LVL256:
 3653 09b4 38210018 		addi 1,1,24
 3654              		.cfi_remember_state
 3655              	.LCFI67:
 3656              		.cfi_def_cfa_offset 0
 3657              		.cfi_restore 31
 3658              		.cfi_restore 30
 3659              		.cfi_restore 29
 3660 09b8 4E800020 		blr
 3661              	.LVL257:
 3662              	.L211:
 3663              	.LCFI68:
 3664              		.cfi_restore_state
 3665              	.LBB4432:
 3666              	.LBB4426:
 3667              		.loc 9 27 0
 3668 09bc 38600278 		li 3,632
 3669              	.LVL258:
 3670 09c0 48000001 		bl _Znwj
 3671              	.LEHE18:
 3672 09c4 7C7E1B78 		mr 30,3
 3673              	.LEHB19:
 3674 09c8 48000001 		bl _ZN11ApplicationC1Ev
 3675              	.LEHE19:
 3676              	.LBE4426:
 3677              	.LBE4432:
 3678              		.loc 5 150 0
 3679 09cc 7FE4FB78 		mr 4,31
 3680 09d0 7FC3F378 		mr 3,30
 3681              	.LBB4433:
 3682              	.LBB4427:
 3683              		.loc 9 27 0
 3684 09d4 93DD0000 		stw 30,_ZN11Application8instanceE@l(29)
 3685              	.LEHB20:
 3686              	.LBE4427:
 3687              	.LBE4433:
 3688              		.loc 5 150 0
 3689 09d8 48000001 		bl _ZN8GuiFrame6RemoveEP10GuiElement
 3690              		.loc 5 151 0
 3691 09dc 7FE3FB78 		mr 3,31
 3692 09e0 48000001 		bl _ZN8GuiFrame9RemoveAllEv
 3693              		.loc 5 153 0
 3694 09e4 7FE3FB78 		mr 3,31
 3695 09e8 38800004 		li 4,4
 3696 09ec 48000001 		bl _ZN8GuiFrame8SetStateEi
 3697              		.loc 5 154 0
 3698 09f0 8001001C 		lwz 0,28(1)
 3699 09f4 83A1000C 		lwz 29,12(1)
 3700 09f8 7C0803A6 		mtlr 0
 3701 09fc 83C10010 		lwz 30,16(1)
 3702 0a00 83E10014 		lwz 31,20(1)
 3703              	.LVL259:
 3704 0a04 38210018 		addi 1,1,24
 3705              		.cfi_remember_state
 3706              		.cfi_restore 29
 3707              		.cfi_restore 30
 3708              		.cfi_restore 31
 3709              	.LCFI69:
 3710              		.cfi_def_cfa_offset 0
 3711 0a08 4E800020 		blr
 3712              	.LVL260:
 3713              	.L210:
 3714              	.LCFI70:
 3715              		.cfi_restore_state
 3716 0a0c 7C7F1B78 		mr 31,3
 3717              	.LVL261:
 3718              	.LBB4434:
 3719              	.LBB4428:
 3720              		.loc 9 27 0
 3721 0a10 7FC3F378 		mr 3,30
 3722 0a14 48000001 		bl _ZdlPv
 3723 0a18 7FE3FB78 		mr 3,31
 3724 0a1c 48000001 		bl _Unwind_Resume
 3725              	.LEHE20:
 3726              	.LBE4428:
 3727              	.LBE4434:
 3728              		.cfi_endproc
 3729              	.LFE1582:
 3730              		.section	.gcc_except_table
 3731              	.LLSDA1582:
 3732 0071 FF       		.byte	0xff
 3733 0072 FF       		.byte	0xff
 3734 0073 01       		.byte	0x1
 3735 0074 0E       		.uleb128 .LLSDACSE1582-.LLSDACSB1582
 3736              	.LLSDACSB1582:
 3737 0075 34       		.uleb128 .LEHB18-.LFB1582
 3738 0076 3C       		.uleb128 .LEHE18-.LEHB18
 3739 0077 00       		.uleb128 0
 3740 0078 00       		.uleb128 0
 3741 0079 74       		.uleb128 .LEHB19-.LFB1582
 3742 007a 04       		.uleb128 .LEHE19-.LEHB19
 3743 007b B801     		.uleb128 .L210-.LFB1582
 3744 007d 00       		.uleb128 0
 3745 007e 8401     		.uleb128 .LEHB20-.LFB1582
 3746 0080 48       		.uleb128 .LEHE20-.LEHB20
 3747 0081 00       		.uleb128 0
 3748 0082 00       		.uleb128 0
 3749              	.LLSDACSE1582:
 3750              		.section	".text"
 3751              		.size	_ZN17FlyingButtonsMenu4hideEv, .-_ZN17FlyingButtonsMenu4hideEv
 3752              		.section	.text._ZNSt6vectorIP8GuiImageSaIS1_EE13_M_insert_auxEN9__gnu_cxx17__normal_iteratorIPS1_S
 3753              		.align 2
 3754              		.weak	_ZNSt6vectorIP8GuiImageSaIS1_EE13_M_insert_auxEN9__gnu_cxx17__normal_iteratorIPS1_S3_EERKS1_
 3755              		.type	_ZNSt6vectorIP8GuiImageSaIS1_EE13_M_insert_auxEN9__gnu_cxx17__normal_iteratorIPS1_S3_EERKS1_
 3756              	_ZNSt6vectorIP8GuiImageSaIS1_EE13_M_insert_auxEN9__gnu_cxx17__normal_iteratorIPS1_S3_EERKS1_:
 3757              	.LFB1789:
 3758              		.file 10 "d:\\devkitpro\\devkitppc\\bin\\../lib/gcc/powerpc-eabi/4.6.3/../../../../powerpc-eabi/in
 3759              		.loc 10 300 0
 3760              		.cfi_startproc
 3761              	.LVL262:
 3762 0000 7C0802A6 		mflr 0
 3763 0004 9421FFD8 		stwu 1,-40(1)
 3764              	.LCFI71:
 3765              		.cfi_def_cfa_offset 40
 3766              		.cfi_register 65, 0
 3767 0008 93810018 		stw 28,24(1)
 3768 000c 9001002C 		stw 0,44(1)
 3769 0010 93C10020 		stw 30,32(1)
 3770              	.LBB4497:
 3771              		.loc 10 304 0
 3772 0014 83830004 		lwz 28,4(3)
 3773              		.cfi_offset 30, -8
 3774              		.cfi_offset 65, 4
 3775              		.cfi_offset 28, -16
 3776 0018 80030008 		lwz 0,8(3)
 3777              	.LBE4497:
 3778              		.loc 10 300 0
 3779 001c 93E10024 		stw 31,36(1)
 3780 0020 7C7F1B78 		mr 31,3
 3781              		.cfi_offset 31, -4
 3782              	.LBB4618:
 3783              		.loc 10 304 0
 3784 0024 7F9C0000 		cmpw 7,28,0
 3785              	.LBE4618:
 3786              		.loc 10 300 0
 3787 0028 93410010 		stw 26,16(1)
 3788 002c 93610014 		stw 27,20(1)
 3789 0030 93A1001C 		stw 29,28(1)
 3790              		.loc 10 300 0
 3791 0034 83C40000 		lwz 30,0(4)
 3792              	.LVL263:
 3793              	.LBB4619:
 3794              		.loc 10 304 0
 3795 0038 419E0078 		beq- 7,.L213
 3796              		.cfi_offset 29, -12
 3797              		.cfi_offset 27, -20
 3798              		.cfi_offset 26, -24
 3799              	.LVL264:
 3800              	.LBB4498:
 3801              	.LBB4499:
 3802              	.LBB4500:
 3803              		.loc 8 108 0
 3804 003c 2F9C0000 		cmpwi 7,28,0
 3805 0040 38600000 		li 3,0
 3806              	.LVL265:
 3807 0044 419E0010 		beq- 7,.L214
 3808 0048 801CFFFC 		lwz 0,-4(28)
 3809 004c 901C0000 		stw 0,0(28)
 3810 0050 807F0004 		lwz 3,4(31)
 3811              	.L214:
 3812              	.LBE4500:
 3813              	.LBE4499:
 3814              		.loc 10 313 0
 3815 0054 3803FFFC 		addi 0,3,-4
 3816              		.loc 10 309 0
 3817 0058 39230004 		addi 9,3,4
 3818              	.LBB4501:
 3819              	.LBB4502:
 3820              	.LBB4503:
 3821              	.LBB4504:
 3822              	.LBB4505:
 3823              	.LBB4506:
 3824              		.file 11 "d:\\devkitpro\\devkitppc\\bin\\../lib/gcc/powerpc-eabi/4.6.3/../../../../powerpc-eabi/in
 3825              		.loc 11 559 0
 3826 005c 7C1E0050 		subf 0,30,0
 3827              	.LBE4506:
 3828              	.LBE4505:
 3829              	.LBE4504:
 3830              	.LBE4503:
 3831              	.LBE4502:
 3832              	.LBE4501:
 3833              		.loc 10 309 0
 3834 0060 913F0004 		stw 9,4(31)
 3835              	.LBB4522:
 3836              	.LBB4519:
 3837              	.LBB4516:
 3838              	.LBB4513:
 3839              	.LBB4510:
 3840              	.LBB4507:
 3841              		.loc 11 560 0
 3842 0064 7C001671 		srawi. 0,0,2
 3843              	.LBE4507:
 3844              	.LBE4510:
 3845              	.LBE4513:
 3846              	.LBE4516:
 3847              	.LBE4519:
 3848              	.LBE4522:
 3849              		.loc 10 311 0
 3850 0068 83E50000 		lwz 31,0(5)
 3851              	.LVL266:
 3852              	.LBB4523:
 3853              	.LBB4520:
 3854              	.LBB4517:
 3855              	.LBB4514:
 3856              	.LBB4511:
 3857              	.LBB4508:
 3858              		.loc 11 560 0
 3859 006c 40820030 		bne- 0,.L229
 3860              	.LVL267:
 3861              	.L215:
 3862              	.LBE4508:
 3863              	.LBE4511:
 3864              	.LBE4514:
 3865              	.LBE4517:
 3866              	.LBE4520:
 3867              	.LBE4523:
 3868              		.loc 10 317 0
 3869 0070 93FE0000 		stw 31,0(30)
 3870              	.LVL268:
 3871              	.L212:
 3872              	.LBE4498:
 3873              	.LBE4619:
 3874              		.loc 10 373 0
 3875 0074 8001002C 		lwz 0,44(1)
 3876 0078 83410010 		lwz 26,16(1)
 3877 007c 7C0803A6 		mtlr 0
 3878 0080 83610014 		lwz 27,20(1)
 3879 0084 83810018 		lwz 28,24(1)
 3880 0088 83A1001C 		lwz 29,28(1)
 3881 008c 83C10020 		lwz 30,32(1)
 3882              	.LVL269:
 3883 0090 83E10024 		lwz 31,36(1)
 3884 0094 38210028 		addi 1,1,40
 3885              		.cfi_remember_state
 3886              	.LCFI72:
 3887              		.cfi_def_cfa_offset 0
 3888              		.cfi_restore 31
 3889              		.cfi_restore 30
 3890              		.cfi_restore 29
 3891              		.cfi_restore 28
 3892              		.cfi_restore 27
 3893              		.cfi_restore 26
 3894 0098 4E800020 		blr
 3895              	.LVL270:
 3896              	.L229:
 3897              	.LCFI73:
 3898              		.cfi_restore_state
 3899              	.LBB4620:
 3900              	.LBB4525:
 3901              	.LBB4524:
 3902              	.LBB4521:
 3903              	.LBB4518:
 3904              	.LBB4515:
 3905              	.LBB4512:
 3906              	.LBB4509:
 3907              		.loc 11 561 0
 3908 009c 5405103A 		slwi 5,0,2
 3909              	.LVL271:
 3910 00a0 7FC4F378 		mr 4,30
 3911 00a4 7C651850 		subf 3,5,3
 3912              	.LVL272:
 3913 00a8 48000001 		bl memmove
 3914              	.LVL273:
 3915 00ac 4BFFFFC4 		b .L215
 3916              	.LVL274:
 3917              	.L213:
 3918              	.LBE4509:
 3919              	.LBE4512:
 3920              	.LBE4515:
 3921              	.LBE4518:
 3922              	.LBE4521:
 3923              	.LBE4524:
 3924              	.LBE4525:
 3925              	.LBB4526:
 3926              	.LBB4527:
 3927              	.LBB4528:
 3928              	.LBB4529:
 3929              	.LBB4530:
 3930              		.loc 6 571 0
 3931 00b0 83630000 		lwz 27,0(3)
 3932 00b4 7F9BE050 		subf 28,27,28
 3933              	.LBE4530:
 3934              	.LBE4529:
 3935              	.LBB4531:
 3936              	.LBB4532:
 3937              		.loc 11 215 0
 3938 00b8 7F9C1671 		srawi. 28,28,2
 3939 00bc 418200C4 		beq- 0,.L217
 3940              	.LBE4532:
 3941              	.LBE4531:
 3942              		.loc 6 1244 0
 3943 00c0 5780083C 		slwi 0,28,1
 3944              	.LVL275:
 3945              		.loc 6 1245 0
 3946 00c4 7F9C0040 		cmplw 7,28,0
 3947 00c8 409D00C8 		ble- 7,.L230
 3948              	.L218:
 3949              	.LVL276:
 3950              	.LBE4528:
 3951              	.LBE4527:
 3952              	.LBB4535:
 3953              	.LBB4536:
 3954              		.file 12 "d:\\devkitpro\\devkitppc\\bin\\../lib/gcc/powerpc-eabi/4.6.3/../../../../powerpc-eabi/in
 3955              		.loc 12 892 0
 3956 00cc 7F7BF050 		subf 27,27,30
 3957              	.LBE4536:
 3958              	.LBE4535:
 3959              		.loc 10 326 0
 3960 00d0 3B80FFFC 		li 28,-4
 3961              	.LBB4542:
 3962              	.LBB4537:
 3963              		.loc 12 892 0
 3964 00d4 7F7B1670 		srawi 27,27,2
 3965              	.LVL277:
 3966              	.L224:
 3967              	.LBE4537:
 3968              	.LBE4542:
 3969              	.LBB4543:
 3970              	.LBB4544:
 3971              	.LBB4545:
 3972              	.LBB4546:
 3973              		.loc 8 92 0
 3974 00d8 7F83E378 		mr 3,28
 3975              	.LVL278:
 3976 00dc 90A10008 		stw 5,8(1)
 3977 00e0 48000001 		bl _Znwj
 3978              	.LVL279:
 3979 00e4 80A10008 		lwz 5,8(1)
 3980 00e8 7C7D1B78 		mr 29,3
 3981              	.L219:
 3982              	.LVL280:
 3983              	.LBE4546:
 3984              	.LBE4545:
 3985              	.LBE4544:
 3986              	.LBE4543:
 3987              		.loc 10 335 0
 3988 00ec 577B103A 		slwi 27,27,2
 3989              	.LVL281:
 3990 00f0 7C1DDA14 		add 0,29,27
 3991              	.LVL282:
 3992              	.LBB4549:
 3993              	.LBB4550:
 3994              		.loc 8 108 0
 3995 00f4 2F800000 		cmpwi 7,0,0
 3996 00f8 419E000C 		beq- 7,.L220
 3997 00fc 80050000 		lwz 0,0(5)
 3998              	.LVL283:
 3999 0100 7C1DD92E 		stwx 0,29,27
 4000              	.L220:
 4001              	.LVL284:
 4002              	.LBE4550:
 4003              	.LBE4549:
 4004              		.loc 10 343 0
 4005 0104 809F0000 		lwz 4,0(31)
 4006              	.LVL285:
 4007              	.LBB4551:
 4008              	.LBB4552:
 4009              	.LBB4553:
 4010              	.LBB4554:
 4011              	.LBB4555:
 4012              	.LBB4556:
 4013              	.LBB4557:
 4014              	.LBB4558:
 4015              	.LBB4559:
 4016              	.LBB4560:
 4017              	.LBB4561:
 4018              		.loc 11 365 0
 4019 0108 3B600000 		li 27,0
 4020              		.loc 11 364 0
 4021 010c 7C04F050 		subf 0,4,30
 4022              	.LVL286:
 4023              		.loc 11 365 0
 4024 0110 7C001671 		srawi. 0,0,2
 4025              	.LVL287:
 4026 0114 41A20014 		beq+ 0,.L221
 4027              		.loc 11 366 0
 4028 0118 541B103A 		slwi 27,0,2
 4029 011c 7FA3EB78 		mr 3,29
 4030 0120 7F65DB78 		mr 5,27
 4031              	.LVL288:
 4032 0124 48000001 		bl memmove
 4033              	.LVL289:
 4034              	.L221:
 4035              	.LBE4561:
 4036              	.LBE4560:
 4037              	.LBE4559:
 4038              	.LBE4558:
 4039              	.LBE4557:
 4040              	.LBE4556:
 4041              	.LBE4555:
 4042              	.LBE4554:
 4043              	.LBE4553:
 4044              	.LBE4552:
 4045              	.LBE4551:
 4046              	.LBB4572:
 4047              	.LBB4573:
 4048              	.LBB4574:
 4049              	.LBB4575:
 4050              	.LBB4576:
 4051              	.LBB4577:
 4052              	.LBB4578:
 4053              	.LBB4579:
 4054              	.LBB4580:
 4055              	.LBB4581:
 4056              	.LBB4582:
 4057              		.loc 11 364 0
 4058 0128 801F0004 		lwz 0,4(31)
 4059              	.LBE4582:
 4060              	.LBE4581:
 4061              	.LBE4580:
 4062              	.LBE4579:
 4063              	.LBE4578:
 4064              	.LBE4577:
 4065              	.LBE4576:
 4066              	.LBE4575:
 4067              	.LBE4574:
 4068              	.LBE4573:
 4069              	.LBE4572:
 4070              	.LBB4603:
 4071              	.LBB4571:
 4072              	.LBB4570:
 4073              	.LBB4569:
 4074              	.LBB4568:
 4075              	.LBB4567:
 4076              	.LBB4566:
 4077              	.LBB4565:
 4078              	.LBB4564:
 4079              	.LBB4563:
 4080              	.LBB4562:
 4081              		.loc 11 367 0
 4082 012c 7F7DDA14 		add 27,29,27
 4083              	.LVL290:
 4084              	.LBE4562:
 4085              	.LBE4563:
 4086              	.LBE4564:
 4087              	.LBE4565:
 4088              	.LBE4566:
 4089              	.LBE4567:
 4090              	.LBE4568:
 4091              	.LBE4569:
 4092              	.LBE4570:
 4093              	.LBE4571:
 4094              	.LBE4603:
 4095              		.loc 10 347 0
 4096 0130 3B5B0004 		addi 26,27,4
 4097              	.LBB4604:
 4098              	.LBB4601:
 4099              	.LBB4599:
 4100              	.LBB4597:
 4101              	.LBB4595:
 4102              	.LBB4593:
 4103              	.LBB4591:
 4104              	.LBB4589:
 4105              	.LBB4587:
 4106              	.LBB4585:
 4107              	.LBB4583:
 4108              		.loc 11 365 0
 4109 0134 3B600000 		li 27,0
 4110              		.loc 11 364 0
 4111 0138 7C1E0050 		subf 0,30,0
 4112              	.LVL291:
 4113              		.loc 11 365 0
 4114 013c 7C001671 		srawi. 0,0,2
 4115              	.LVL292:
 4116 0140 41A20018 		beq+ 0,.L222
 4117              		.loc 11 366 0
 4118 0144 541B103A 		slwi 27,0,2
 4119 0148 7F43D378 		mr 3,26
 4120 014c 7FC4F378 		mr 4,30
 4121 0150 7F65DB78 		mr 5,27
 4122 0154 48000001 		bl memmove
 4123              	.LVL293:
 4124              	.L222:
 4125              	.LBE4583:
 4126              	.LBE4585:
 4127              	.LBE4587:
 4128              	.LBE4589:
 4129              	.LBE4591:
 4130              	.LBE4593:
 4131              	.LBE4595:
 4132              	.LBE4597:
 4133              	.LBE4599:
 4134              	.LBE4601:
 4135              	.LBE4604:
 4136              		.loc 10 366 0
 4137 0158 807F0000 		lwz 3,0(31)
 4138              	.LBB4605:
 4139              	.LBB4602:
 4140              	.LBB4600:
 4141              	.LBB4598:
 4142              	.LBB4596:
 4143              	.LBB4594:
 4144              	.LBB4592:
 4145              	.LBB4590:
 4146              	.LBB4588:
 4147              	.LBB4586:
 4148              	.LBB4584:
 4149              		.loc 11 367 0
 4150 015c 7F7ADA14 		add 27,26,27
 4151              	.LVL294:
 4152              	.LBE4584:
 4153              	.LBE4586:
 4154              	.LBE4588:
 4155              	.LBE4590:
 4156              	.LBE4592:
 4157              	.LBE4594:
 4158              	.LBE4596:
 4159              	.LBE4598:
 4160              	.LBE4600:
 4161              	.LBE4602:
 4162              	.LBE4605:
 4163              	.LBB4606:
 4164              	.LBB4607:
 4165              		.loc 6 155 0
 4166 0160 2F830000 		cmpwi 7,3,0
 4167 0164 419E0008 		beq- 7,.L223
 4168              	.LVL295:
 4169              	.LBB4608:
 4170              	.LBB4609:
 4171              		.loc 8 98 0
 4172 0168 48000001 		bl _ZdlPv
 4173              	.LVL296:
 4174              	.L223:
 4175              	.LBE4609:
 4176              	.LBE4608:
 4177              	.LBE4607:
 4178              	.LBE4606:
 4179              		.loc 10 371 0
 4180 016c 7F9DE214 		add 28,29,28
 4181              		.loc 10 369 0
 4182 0170 93BF0000 		stw 29,0(31)
 4183              		.loc 10 370 0
 4184 0174 937F0004 		stw 27,4(31)
 4185              		.loc 10 371 0
 4186 0178 939F0008 		stw 28,8(31)
 4187 017c 4BFFFEF8 		b .L212
 4188              	.LVL297:
 4189              	.L217:
 4190              	.LBB4610:
 4191              	.LBB4538:
 4192              		.loc 12 892 0
 4193 0180 7F7BF050 		subf 27,27,30
 4194              	.LBE4538:
 4195              	.LBE4610:
 4196              		.loc 10 326 0
 4197 0184 3B800004 		li 28,4
 4198              	.LBB4611:
 4199              	.LBB4539:
 4200              		.loc 12 892 0
 4201 0188 7F7B1670 		srawi 27,27,2
 4202              	.LVL298:
 4203 018c 4BFFFF4C 		b .L224
 4204              	.LVL299:
 4205              	.L230:
 4206              	.LBE4539:
 4207              	.LBE4611:
 4208              	.LBB4612:
 4209              	.LBB4533:
 4210              		.loc 6 1245 0
 4211 0190 3D203FFF 		lis 9,0x3fff
 4212 0194 6129FFFF 		ori 9,9,65535
 4213 0198 7F804840 		cmplw 7,0,9
 4214 019c 419DFF30 		bgt+ 7,.L218
 4215              	.LBE4533:
 4216              	.LBE4612:
 4217              	.LBB4613:
 4218              	.LBB4547:
 4219              		.loc 6 150 0
 4220 01a0 2F800000 		cmpwi 7,0,0
 4221              	.LBE4547:
 4222              	.LBE4613:
 4223              	.LBB4614:
 4224              	.LBB4540:
 4225              		.loc 12 892 0
 4226 01a4 7F7BF050 		subf 27,27,30
 4227              	.LBE4540:
 4228              	.LBE4614:
 4229              	.LBB4615:
 4230              	.LBB4534:
 4231              		.loc 6 1245 0
 4232 01a8 579C1838 		slwi 28,28,3
 4233              	.LVL300:
 4234              	.LBE4534:
 4235              	.LBE4615:
 4236              	.LBB4616:
 4237              	.LBB4541:
 4238              		.loc 12 892 0
 4239 01ac 7F7B1670 		srawi 27,27,2
 4240              	.LVL301:
 4241              	.LBE4541:
 4242              	.LBE4616:
 4243              	.LBB4617:
 4244              	.LBB4548:
 4245              		.loc 6 150 0
 4246 01b0 3BA00000 		li 29,0
 4247 01b4 419EFF38 		beq+ 7,.L219
 4248 01b8 4BFFFF20 		b .L224
 4249              	.LBE4548:
 4250              	.LBE4617:
 4251              	.LBE4526:
 4252              	.LBE4620:
 4253              		.cfi_endproc
 4254              	.LFE1789:
 4255              		.size	_ZNSt6vectorIP8GuiImageSaIS1_EE13_M_insert_auxEN9__gnu_cxx17__normal_iteratorIPS1_S3_EERKS1_
 4256              		.section	.text._ZNSt6vectorIP7GuiTextSaIS1_EE13_M_insert_auxEN9__gnu_cxx17__normal_iteratorIPS1_S3
 4257              		.align 2
 4258              		.weak	_ZNSt6vectorIP7GuiTextSaIS1_EE13_M_insert_auxEN9__gnu_cxx17__normal_iteratorIPS1_S3_EERKS1_
 4259              		.type	_ZNSt6vectorIP7GuiTextSaIS1_EE13_M_insert_auxEN9__gnu_cxx17__normal_iteratorIPS1_S3_EERKS1_,
 4260              	_ZNSt6vectorIP7GuiTextSaIS1_EE13_M_insert_auxEN9__gnu_cxx17__normal_iteratorIPS1_S3_EERKS1_:
 4261              	.LFB1792:
 4262              		.loc 10 300 0
 4263              		.cfi_startproc
 4264              	.LVL302:
 4265 0000 7C0802A6 		mflr 0
 4266 0004 9421FFD8 		stwu 1,-40(1)
 4267              	.LCFI74:
 4268              		.cfi_def_cfa_offset 40
 4269              		.cfi_register 65, 0
 4270 0008 93810018 		stw 28,24(1)
 4271 000c 9001002C 		stw 0,44(1)
 4272 0010 93C10020 		stw 30,32(1)
 4273              	.LBB4683:
 4274              		.loc 10 304 0
 4275 0014 83830004 		lwz 28,4(3)
 4276              		.cfi_offset 30, -8
 4277              		.cfi_offset 65, 4
 4278              		.cfi_offset 28, -16
 4279 0018 80030008 		lwz 0,8(3)
 4280              	.LBE4683:
 4281              		.loc 10 300 0
 4282 001c 93E10024 		stw 31,36(1)
 4283 0020 7C7F1B78 		mr 31,3
 4284              		.cfi_offset 31, -4
 4285              	.LBB4804:
 4286              		.loc 10 304 0
 4287 0024 7F9C0000 		cmpw 7,28,0
 4288              	.LBE4804:
 4289              		.loc 10 300 0
 4290 0028 93410010 		stw 26,16(1)
 4291 002c 93610014 		stw 27,20(1)
 4292 0030 93A1001C 		stw 29,28(1)
 4293              		.loc 10 300 0
 4294 0034 83C40000 		lwz 30,0(4)
 4295              	.LVL303:
 4296              	.LBB4805:
 4297              		.loc 10 304 0
 4298 0038 419E0078 		beq- 7,.L232
 4299              		.cfi_offset 29, -12
 4300              		.cfi_offset 27, -20
 4301              		.cfi_offset 26, -24
 4302              	.LVL304:
 4303              	.LBB4684:
 4304              	.LBB4685:
 4305              	.LBB4686:
 4306              		.loc 8 108 0
 4307 003c 2F9C0000 		cmpwi 7,28,0
 4308 0040 38600000 		li 3,0
 4309              	.LVL305:
 4310 0044 419E0010 		beq- 7,.L233
 4311 0048 801CFFFC 		lwz 0,-4(28)
 4312 004c 901C0000 		stw 0,0(28)
 4313 0050 807F0004 		lwz 3,4(31)
 4314              	.L233:
 4315              	.LBE4686:
 4316              	.LBE4685:
 4317              		.loc 10 313 0
 4318 0054 3803FFFC 		addi 0,3,-4
 4319              		.loc 10 309 0
 4320 0058 39230004 		addi 9,3,4
 4321              	.LBB4687:
 4322              	.LBB4688:
 4323              	.LBB4689:
 4324              	.LBB4690:
 4325              	.LBB4691:
 4326              	.LBB4692:
 4327              		.loc 11 559 0
 4328 005c 7C1E0050 		subf 0,30,0
 4329              	.LBE4692:
 4330              	.LBE4691:
 4331              	.LBE4690:
 4332              	.LBE4689:
 4333              	.LBE4688:
 4334              	.LBE4687:
 4335              		.loc 10 309 0
 4336 0060 913F0004 		stw 9,4(31)
 4337              	.LBB4708:
 4338              	.LBB4705:
 4339              	.LBB4702:
 4340              	.LBB4699:
 4341              	.LBB4696:
 4342              	.LBB4693:
 4343              		.loc 11 560 0
 4344 0064 7C001671 		srawi. 0,0,2
 4345              	.LBE4693:
 4346              	.LBE4696:
 4347              	.LBE4699:
 4348              	.LBE4702:
 4349              	.LBE4705:
 4350              	.LBE4708:
 4351              		.loc 10 311 0
 4352 0068 83E50000 		lwz 31,0(5)
 4353              	.LVL306:
 4354              	.LBB4709:
 4355              	.LBB4706:
 4356              	.LBB4703:
 4357              	.LBB4700:
 4358              	.LBB4697:
 4359              	.LBB4694:
 4360              		.loc 11 560 0
 4361 006c 40820030 		bne- 0,.L248
 4362              	.LVL307:
 4363              	.L234:
 4364              	.LBE4694:
 4365              	.LBE4697:
 4366              	.LBE4700:
 4367              	.LBE4703:
 4368              	.LBE4706:
 4369              	.LBE4709:
 4370              		.loc 10 317 0
 4371 0070 93FE0000 		stw 31,0(30)
 4372              	.LVL308:
 4373              	.L231:
 4374              	.LBE4684:
 4375              	.LBE4805:
 4376              		.loc 10 373 0
 4377 0074 8001002C 		lwz 0,44(1)
 4378 0078 83410010 		lwz 26,16(1)
 4379 007c 7C0803A6 		mtlr 0
 4380 0080 83610014 		lwz 27,20(1)
 4381 0084 83810018 		lwz 28,24(1)
 4382 0088 83A1001C 		lwz 29,28(1)
 4383 008c 83C10020 		lwz 30,32(1)
 4384              	.LVL309:
 4385 0090 83E10024 		lwz 31,36(1)
 4386 0094 38210028 		addi 1,1,40
 4387              		.cfi_remember_state
 4388              	.LCFI75:
 4389              		.cfi_def_cfa_offset 0
 4390              		.cfi_restore 31
 4391              		.cfi_restore 30
 4392              		.cfi_restore 29
 4393              		.cfi_restore 28
 4394              		.cfi_restore 27
 4395              		.cfi_restore 26
 4396 0098 4E800020 		blr
 4397              	.LVL310:
 4398              	.L248:
 4399              	.LCFI76:
 4400              		.cfi_restore_state
 4401              	.LBB4806:
 4402              	.LBB4711:
 4403              	.LBB4710:
 4404              	.LBB4707:
 4405              	.LBB4704:
 4406              	.LBB4701:
 4407              	.LBB4698:
 4408              	.LBB4695:
 4409              		.loc 11 561 0
 4410 009c 5405103A 		slwi 5,0,2
 4411              	.LVL311:
 4412 00a0 7FC4F378 		mr 4,30
 4413 00a4 7C651850 		subf 3,5,3
 4414              	.LVL312:
 4415 00a8 48000001 		bl memmove
 4416              	.LVL313:
 4417 00ac 4BFFFFC4 		b .L234
 4418              	.LVL314:
 4419              	.L232:
 4420              	.LBE4695:
 4421              	.LBE4698:
 4422              	.LBE4701:
 4423              	.LBE4704:
 4424              	.LBE4707:
 4425              	.LBE4710:
 4426              	.LBE4711:
 4427              	.LBB4712:
 4428              	.LBB4713:
 4429              	.LBB4714:
 4430              	.LBB4715:
 4431              	.LBB4716:
 4432              		.loc 6 571 0
 4433 00b0 83630000 		lwz 27,0(3)
 4434 00b4 7F9BE050 		subf 28,27,28
 4435              	.LBE4716:
 4436              	.LBE4715:
 4437              	.LBB4717:
 4438              	.LBB4718:
 4439              		.loc 11 215 0
 4440 00b8 7F9C1671 		srawi. 28,28,2
 4441 00bc 418200C4 		beq- 0,.L236
 4442              	.LBE4718:
 4443              	.LBE4717:
 4444              		.loc 6 1244 0
 4445 00c0 5780083C 		slwi 0,28,1
 4446              	.LVL315:
 4447              		.loc 6 1245 0
 4448 00c4 7F9C0040 		cmplw 7,28,0
 4449 00c8 409D00C8 		ble- 7,.L249
 4450              	.L237:
 4451              	.LVL316:
 4452              	.LBE4714:
 4453              	.LBE4713:
 4454              	.LBB4721:
 4455              	.LBB4722:
 4456              		.loc 12 892 0
 4457 00cc 7F7BF050 		subf 27,27,30
 4458              	.LBE4722:
 4459              	.LBE4721:
 4460              		.loc 10 326 0
 4461 00d0 3B80FFFC 		li 28,-4
 4462              	.LBB4728:
 4463              	.LBB4723:
 4464              		.loc 12 892 0
 4465 00d4 7F7B1670 		srawi 27,27,2
 4466              	.LVL317:
 4467              	.L243:
 4468              	.LBE4723:
 4469              	.LBE4728:
 4470              	.LBB4729:
 4471              	.LBB4730:
 4472              	.LBB4731:
 4473              	.LBB4732:
 4474              		.loc 8 92 0
 4475 00d8 7F83E378 		mr 3,28
 4476              	.LVL318:
 4477 00dc 90A10008 		stw 5,8(1)
 4478 00e0 48000001 		bl _Znwj
 4479              	.LVL319:
 4480 00e4 80A10008 		lwz 5,8(1)
 4481 00e8 7C7D1B78 		mr 29,3
 4482              	.L238:
 4483              	.LVL320:
 4484              	.LBE4732:
 4485              	.LBE4731:
 4486              	.LBE4730:
 4487              	.LBE4729:
 4488              		.loc 10 335 0
 4489 00ec 577B103A 		slwi 27,27,2
 4490              	.LVL321:
 4491 00f0 7C1DDA14 		add 0,29,27
 4492              	.LVL322:
 4493              	.LBB4735:
 4494              	.LBB4736:
 4495              		.loc 8 108 0
 4496 00f4 2F800000 		cmpwi 7,0,0
 4497 00f8 419E000C 		beq- 7,.L239
 4498 00fc 80050000 		lwz 0,0(5)
 4499              	.LVL323:
 4500 0100 7C1DD92E 		stwx 0,29,27
 4501              	.L239:
 4502              	.LVL324:
 4503              	.LBE4736:
 4504              	.LBE4735:
 4505              		.loc 10 343 0
 4506 0104 809F0000 		lwz 4,0(31)
 4507              	.LVL325:
 4508              	.LBB4737:
 4509              	.LBB4738:
 4510              	.LBB4739:
 4511              	.LBB4740:
 4512              	.LBB4741:
 4513              	.LBB4742:
 4514              	.LBB4743:
 4515              	.LBB4744:
 4516              	.LBB4745:
 4517              	.LBB4746:
 4518              	.LBB4747:
 4519              		.loc 11 365 0
 4520 0108 3B600000 		li 27,0
 4521              		.loc 11 364 0
 4522 010c 7C04F050 		subf 0,4,30
 4523              	.LVL326:
 4524              		.loc 11 365 0
 4525 0110 7C001671 		srawi. 0,0,2
 4526              	.LVL327:
 4527 0114 41A20014 		beq+ 0,.L240
 4528              		.loc 11 366 0
 4529 0118 541B103A 		slwi 27,0,2
 4530 011c 7FA3EB78 		mr 3,29
 4531 0120 7F65DB78 		mr 5,27
 4532              	.LVL328:
 4533 0124 48000001 		bl memmove
 4534              	.LVL329:
 4535              	.L240:
 4536              	.LBE4747:
 4537              	.LBE4746:
 4538              	.LBE4745:
 4539              	.LBE4744:
 4540              	.LBE4743:
 4541              	.LBE4742:
 4542              	.LBE4741:
 4543              	.LBE4740:
 4544              	.LBE4739:
 4545              	.LBE4738:
 4546              	.LBE4737:
 4547              	.LBB4758:
 4548              	.LBB4759:
 4549              	.LBB4760:
 4550              	.LBB4761:
 4551              	.LBB4762:
 4552              	.LBB4763:
 4553              	.LBB4764:
 4554              	.LBB4765:
 4555              	.LBB4766:
 4556              	.LBB4767:
 4557              	.LBB4768:
 4558              		.loc 11 364 0
 4559 0128 801F0004 		lwz 0,4(31)
 4560              	.LBE4768:
 4561              	.LBE4767:
 4562              	.LBE4766:
 4563              	.LBE4765:
 4564              	.LBE4764:
 4565              	.LBE4763:
 4566              	.LBE4762:
 4567              	.LBE4761:
 4568              	.LBE4760:
 4569              	.LBE4759:
 4570              	.LBE4758:
 4571              	.LBB4789:
 4572              	.LBB4757:
 4573              	.LBB4756:
 4574              	.LBB4755:
 4575              	.LBB4754:
 4576              	.LBB4753:
 4577              	.LBB4752:
 4578              	.LBB4751:
 4579              	.LBB4750:
 4580              	.LBB4749:
 4581              	.LBB4748:
 4582              		.loc 11 367 0
 4583 012c 7F7DDA14 		add 27,29,27
 4584              	.LVL330:
 4585              	.LBE4748:
 4586              	.LBE4749:
 4587              	.LBE4750:
 4588              	.LBE4751:
 4589              	.LBE4752:
 4590              	.LBE4753:
 4591              	.LBE4754:
 4592              	.LBE4755:
 4593              	.LBE4756:
 4594              	.LBE4757:
 4595              	.LBE4789:
 4596              		.loc 10 347 0
 4597 0130 3B5B0004 		addi 26,27,4
 4598              	.LBB4790:
 4599              	.LBB4787:
 4600              	.LBB4785:
 4601              	.LBB4783:
 4602              	.LBB4781:
 4603              	.LBB4779:
 4604              	.LBB4777:
 4605              	.LBB4775:
 4606              	.LBB4773:
 4607              	.LBB4771:
 4608              	.LBB4769:
 4609              		.loc 11 365 0
 4610 0134 3B600000 		li 27,0
 4611              		.loc 11 364 0
 4612 0138 7C1E0050 		subf 0,30,0
 4613              	.LVL331:
 4614              		.loc 11 365 0
 4615 013c 7C001671 		srawi. 0,0,2
 4616              	.LVL332:
 4617 0140 41A20018 		beq+ 0,.L241
 4618              		.loc 11 366 0
 4619 0144 541B103A 		slwi 27,0,2
 4620 0148 7F43D378 		mr 3,26
 4621 014c 7FC4F378 		mr 4,30
 4622 0150 7F65DB78 		mr 5,27
 4623 0154 48000001 		bl memmove
 4624              	.LVL333:
 4625              	.L241:
 4626              	.LBE4769:
 4627              	.LBE4771:
 4628              	.LBE4773:
 4629              	.LBE4775:
 4630              	.LBE4777:
 4631              	.LBE4779:
 4632              	.LBE4781:
 4633              	.LBE4783:
 4634              	.LBE4785:
 4635              	.LBE4787:
 4636              	.LBE4790:
 4637              		.loc 10 366 0
 4638 0158 807F0000 		lwz 3,0(31)
 4639              	.LBB4791:
 4640              	.LBB4788:
 4641              	.LBB4786:
 4642              	.LBB4784:
 4643              	.LBB4782:
 4644              	.LBB4780:
 4645              	.LBB4778:
 4646              	.LBB4776:
 4647              	.LBB4774:
 4648              	.LBB4772:
 4649              	.LBB4770:
 4650              		.loc 11 367 0
 4651 015c 7F7ADA14 		add 27,26,27
 4652              	.LVL334:
 4653              	.LBE4770:
 4654              	.LBE4772:
 4655              	.LBE4774:
 4656              	.LBE4776:
 4657              	.LBE4778:
 4658              	.LBE4780:
 4659              	.LBE4782:
 4660              	.LBE4784:
 4661              	.LBE4786:
 4662              	.LBE4788:
 4663              	.LBE4791:
 4664              	.LBB4792:
 4665              	.LBB4793:
 4666              		.loc 6 155 0
 4667 0160 2F830000 		cmpwi 7,3,0
 4668 0164 419E0008 		beq- 7,.L242
 4669              	.LVL335:
 4670              	.LBB4794:
 4671              	.LBB4795:
 4672              		.loc 8 98 0
 4673 0168 48000001 		bl _ZdlPv
 4674              	.LVL336:
 4675              	.L242:
 4676              	.LBE4795:
 4677              	.LBE4794:
 4678              	.LBE4793:
 4679              	.LBE4792:
 4680              		.loc 10 371 0
 4681 016c 7F9DE214 		add 28,29,28
 4682              		.loc 10 369 0
 4683 0170 93BF0000 		stw 29,0(31)
 4684              		.loc 10 370 0
 4685 0174 937F0004 		stw 27,4(31)
 4686              		.loc 10 371 0
 4687 0178 939F0008 		stw 28,8(31)
 4688 017c 4BFFFEF8 		b .L231
 4689              	.LVL337:
 4690              	.L236:
 4691              	.LBB4796:
 4692              	.LBB4724:
 4693              		.loc 12 892 0
 4694 0180 7F7BF050 		subf 27,27,30
 4695              	.LBE4724:
 4696              	.LBE4796:
 4697              		.loc 10 326 0
 4698 0184 3B800004 		li 28,4
 4699              	.LBB4797:
 4700              	.LBB4725:
 4701              		.loc 12 892 0
 4702 0188 7F7B1670 		srawi 27,27,2
 4703              	.LVL338:
 4704 018c 4BFFFF4C 		b .L243
 4705              	.LVL339:
 4706              	.L249:
 4707              	.LBE4725:
 4708              	.LBE4797:
 4709              	.LBB4798:
 4710              	.LBB4719:
 4711              		.loc 6 1245 0
 4712 0190 3D203FFF 		lis 9,0x3fff
 4713 0194 6129FFFF 		ori 9,9,65535
 4714 0198 7F804840 		cmplw 7,0,9
 4715 019c 419DFF30 		bgt+ 7,.L237
 4716              	.LBE4719:
 4717              	.LBE4798:
 4718              	.LBB4799:
 4719              	.LBB4733:
 4720              		.loc 6 150 0
 4721 01a0 2F800000 		cmpwi 7,0,0
 4722              	.LBE4733:
 4723              	.LBE4799:
 4724              	.LBB4800:
 4725              	.LBB4726:
 4726              		.loc 12 892 0
 4727 01a4 7F7BF050 		subf 27,27,30
 4728              	.LBE4726:
 4729              	.LBE4800:
 4730              	.LBB4801:
 4731              	.LBB4720:
 4732              		.loc 6 1245 0
 4733 01a8 579C1838 		slwi 28,28,3
 4734              	.LVL340:
 4735              	.LBE4720:
 4736              	.LBE4801:
 4737              	.LBB4802:
 4738              	.LBB4727:
 4739              		.loc 12 892 0
 4740 01ac 7F7B1670 		srawi 27,27,2
 4741              	.LVL341:
 4742              	.LBE4727:
 4743              	.LBE4802:
 4744              	.LBB4803:
 4745              	.LBB4734:
 4746              		.loc 6 150 0
 4747 01b0 3BA00000 		li 29,0
 4748 01b4 419EFF38 		beq+ 7,.L238
 4749 01b8 4BFFFF20 		b .L243
 4750              	.LBE4734:
 4751              	.LBE4803:
 4752              	.LBE4712:
 4753              	.LBE4806:
 4754              		.cfi_endproc
 4755              	.LFE1792:
 4756              		.size	_ZNSt6vectorIP7GuiTextSaIS1_EE13_M_insert_auxEN9__gnu_cxx17__normal_iteratorIPS1_S3_EERKS1_,
 4757              		.section	.text._ZNSt6vectorIP9GuiButtonSaIS1_EE13_M_insert_auxEN9__gnu_cxx17__normal_iteratorIPS1_
 4758              		.align 2
 4759              		.weak	_ZNSt6vectorIP9GuiButtonSaIS1_EE13_M_insert_auxEN9__gnu_cxx17__normal_iteratorIPS1_S3_EERKS1
 4760              		.type	_ZNSt6vectorIP9GuiButtonSaIS1_EE13_M_insert_auxEN9__gnu_cxx17__normal_iteratorIPS1_S3_EERKS1
 4761              	_ZNSt6vectorIP9GuiButtonSaIS1_EE13_M_insert_auxEN9__gnu_cxx17__normal_iteratorIPS1_S3_EERKS1_:
 4762              	.LFB1795:
 4763              		.loc 10 300 0
 4764              		.cfi_startproc
 4765              	.LVL342:
 4766 0000 7C0802A6 		mflr 0
 4767 0004 9421FFD8 		stwu 1,-40(1)
 4768              	.LCFI77:
 4769              		.cfi_def_cfa_offset 40
 4770              		.cfi_register 65, 0
 4771 0008 93810018 		stw 28,24(1)
 4772 000c 9001002C 		stw 0,44(1)
 4773 0010 93C10020 		stw 30,32(1)
 4774              	.LBB4869:
 4775              		.loc 10 304 0
 4776 0014 83830004 		lwz 28,4(3)
 4777              		.cfi_offset 30, -8
 4778              		.cfi_offset 65, 4
 4779              		.cfi_offset 28, -16
 4780 0018 80030008 		lwz 0,8(3)
 4781              	.LBE4869:
 4782              		.loc 10 300 0
 4783 001c 93E10024 		stw 31,36(1)
 4784 0020 7C7F1B78 		mr 31,3
 4785              		.cfi_offset 31, -4
 4786              	.LBB4990:
 4787              		.loc 10 304 0
 4788 0024 7F9C0000 		cmpw 7,28,0
 4789              	.LBE4990:
 4790              		.loc 10 300 0
 4791 0028 93410010 		stw 26,16(1)
 4792 002c 93610014 		stw 27,20(1)
 4793 0030 93A1001C 		stw 29,28(1)
 4794              		.loc 10 300 0
 4795 0034 83C40000 		lwz 30,0(4)
 4796              	.LVL343:
 4797              	.LBB4991:
 4798              		.loc 10 304 0
 4799 0038 419E0078 		beq- 7,.L251
 4800              		.cfi_offset 29, -12
 4801              		.cfi_offset 27, -20
 4802              		.cfi_offset 26, -24
 4803              	.LVL344:
 4804              	.LBB4870:
 4805              	.LBB4871:
 4806              	.LBB4872:
 4807              		.loc 8 108 0
 4808 003c 2F9C0000 		cmpwi 7,28,0
 4809 0040 38600000 		li 3,0
 4810              	.LVL345:
 4811 0044 419E0010 		beq- 7,.L252
 4812 0048 801CFFFC 		lwz 0,-4(28)
 4813 004c 901C0000 		stw 0,0(28)
 4814 0050 807F0004 		lwz 3,4(31)
 4815              	.L252:
 4816              	.LBE4872:
 4817              	.LBE4871:
 4818              		.loc 10 313 0
 4819 0054 3803FFFC 		addi 0,3,-4
 4820              		.loc 10 309 0
 4821 0058 39230004 		addi 9,3,4
 4822              	.LBB4873:
 4823              	.LBB4874:
 4824              	.LBB4875:
 4825              	.LBB4876:
 4826              	.LBB4877:
 4827              	.LBB4878:
 4828              		.loc 11 559 0
 4829 005c 7C1E0050 		subf 0,30,0
 4830              	.LBE4878:
 4831              	.LBE4877:
 4832              	.LBE4876:
 4833              	.LBE4875:
 4834              	.LBE4874:
 4835              	.LBE4873:
 4836              		.loc 10 309 0
 4837 0060 913F0004 		stw 9,4(31)
 4838              	.LBB4894:
 4839              	.LBB4891:
 4840              	.LBB4888:
 4841              	.LBB4885:
 4842              	.LBB4882:
 4843              	.LBB4879:
 4844              		.loc 11 560 0
 4845 0064 7C001671 		srawi. 0,0,2
 4846              	.LBE4879:
 4847              	.LBE4882:
 4848              	.LBE4885:
 4849              	.LBE4888:
 4850              	.LBE4891:
 4851              	.LBE4894:
 4852              		.loc 10 311 0
 4853 0068 83E50000 		lwz 31,0(5)
 4854              	.LVL346:
 4855              	.LBB4895:
 4856              	.LBB4892:
 4857              	.LBB4889:
 4858              	.LBB4886:
 4859              	.LBB4883:
 4860              	.LBB4880:
 4861              		.loc 11 560 0
 4862 006c 40820030 		bne- 0,.L267
 4863              	.LVL347:
 4864              	.L253:
 4865              	.LBE4880:
 4866              	.LBE4883:
 4867              	.LBE4886:
 4868              	.LBE4889:
 4869              	.LBE4892:
 4870              	.LBE4895:
 4871              		.loc 10 317 0
 4872 0070 93FE0000 		stw 31,0(30)
 4873              	.LVL348:
 4874              	.L250:
 4875              	.LBE4870:
 4876              	.LBE4991:
 4877              		.loc 10 373 0
 4878 0074 8001002C 		lwz 0,44(1)
 4879 0078 83410010 		lwz 26,16(1)
 4880 007c 7C0803A6 		mtlr 0
 4881 0080 83610014 		lwz 27,20(1)
 4882 0084 83810018 		lwz 28,24(1)
 4883 0088 83A1001C 		lwz 29,28(1)
 4884 008c 83C10020 		lwz 30,32(1)
 4885              	.LVL349:
 4886 0090 83E10024 		lwz 31,36(1)
 4887 0094 38210028 		addi 1,1,40
 4888              		.cfi_remember_state
 4889              	.LCFI78:
 4890              		.cfi_def_cfa_offset 0
 4891              		.cfi_restore 31
 4892              		.cfi_restore 30
 4893              		.cfi_restore 29
 4894              		.cfi_restore 28
 4895              		.cfi_restore 27
 4896              		.cfi_restore 26
 4897 0098 4E800020 		blr
 4898              	.LVL350:
 4899              	.L267:
 4900              	.LCFI79:
 4901              		.cfi_restore_state
 4902              	.LBB4992:
 4903              	.LBB4897:
 4904              	.LBB4896:
 4905              	.LBB4893:
 4906              	.LBB4890:
 4907              	.LBB4887:
 4908              	.LBB4884:
 4909              	.LBB4881:
 4910              		.loc 11 561 0
 4911 009c 5405103A 		slwi 5,0,2
 4912              	.LVL351:
 4913 00a0 7FC4F378 		mr 4,30
 4914 00a4 7C651850 		subf 3,5,3
 4915              	.LVL352:
 4916 00a8 48000001 		bl memmove
 4917              	.LVL353:
 4918 00ac 4BFFFFC4 		b .L253
 4919              	.LVL354:
 4920              	.L251:
 4921              	.LBE4881:
 4922              	.LBE4884:
 4923              	.LBE4887:
 4924              	.LBE4890:
 4925              	.LBE4893:
 4926              	.LBE4896:
 4927              	.LBE4897:
 4928              	.LBB4898:
 4929              	.LBB4899:
 4930              	.LBB4900:
 4931              	.LBB4901:
 4932              	.LBB4902:
 4933              		.loc 6 571 0
 4934 00b0 83630000 		lwz 27,0(3)
 4935 00b4 7F9BE050 		subf 28,27,28
 4936              	.LBE4902:
 4937              	.LBE4901:
 4938              	.LBB4903:
 4939              	.LBB4904:
 4940              		.loc 11 215 0
 4941 00b8 7F9C1671 		srawi. 28,28,2
 4942 00bc 418200C4 		beq- 0,.L255
 4943              	.LBE4904:
 4944              	.LBE4903:
 4945              		.loc 6 1244 0
 4946 00c0 5780083C 		slwi 0,28,1
 4947              	.LVL355:
 4948              		.loc 6 1245 0
 4949 00c4 7F9C0040 		cmplw 7,28,0
 4950 00c8 409D00C8 		ble- 7,.L268
 4951              	.L256:
 4952              	.LVL356:
 4953              	.LBE4900:
 4954              	.LBE4899:
 4955              	.LBB4907:
 4956              	.LBB4908:
 4957              		.loc 12 892 0
 4958 00cc 7F7BF050 		subf 27,27,30
 4959              	.LBE4908:
 4960              	.LBE4907:
 4961              		.loc 10 326 0
 4962 00d0 3B80FFFC 		li 28,-4
 4963              	.LBB4914:
 4964              	.LBB4909:
 4965              		.loc 12 892 0
 4966 00d4 7F7B1670 		srawi 27,27,2
 4967              	.LVL357:
 4968              	.L262:
 4969              	.LBE4909:
 4970              	.LBE4914:
 4971              	.LBB4915:
 4972              	.LBB4916:
 4973              	.LBB4917:
 4974              	.LBB4918:
 4975              		.loc 8 92 0
 4976 00d8 7F83E378 		mr 3,28
 4977              	.LVL358:
 4978 00dc 90A10008 		stw 5,8(1)
 4979 00e0 48000001 		bl _Znwj
 4980              	.LVL359:
 4981 00e4 80A10008 		lwz 5,8(1)
 4982 00e8 7C7D1B78 		mr 29,3
 4983              	.L257:
 4984              	.LVL360:
 4985              	.LBE4918:
 4986              	.LBE4917:
 4987              	.LBE4916:
 4988              	.LBE4915:
 4989              		.loc 10 335 0
 4990 00ec 577B103A 		slwi 27,27,2
 4991              	.LVL361:
 4992 00f0 7C1DDA14 		add 0,29,27
 4993              	.LVL362:
 4994              	.LBB4921:
 4995              	.LBB4922:
 4996              		.loc 8 108 0
 4997 00f4 2F800000 		cmpwi 7,0,0
 4998 00f8 419E000C 		beq- 7,.L258
 4999 00fc 80050000 		lwz 0,0(5)
 5000              	.LVL363:
 5001 0100 7C1DD92E 		stwx 0,29,27
 5002              	.L258:
 5003              	.LVL364:
 5004              	.LBE4922:
 5005              	.LBE4921:
 5006              		.loc 10 343 0
 5007 0104 809F0000 		lwz 4,0(31)
 5008              	.LVL365:
 5009              	.LBB4923:
 5010              	.LBB4924:
 5011              	.LBB4925:
 5012              	.LBB4926:
 5013              	.LBB4927:
 5014              	.LBB4928:
 5015              	.LBB4929:
 5016              	.LBB4930:
 5017              	.LBB4931:
 5018              	.LBB4932:
 5019              	.LBB4933:
 5020              		.loc 11 365 0
 5021 0108 3B600000 		li 27,0
 5022              		.loc 11 364 0
 5023 010c 7C04F050 		subf 0,4,30
 5024              	.LVL366:
 5025              		.loc 11 365 0
 5026 0110 7C001671 		srawi. 0,0,2
 5027              	.LVL367:
 5028 0114 41A20014 		beq+ 0,.L259
 5029              		.loc 11 366 0
 5030 0118 541B103A 		slwi 27,0,2
 5031 011c 7FA3EB78 		mr 3,29
 5032 0120 7F65DB78 		mr 5,27
 5033              	.LVL368:
 5034 0124 48000001 		bl memmove
 5035              	.LVL369:
 5036              	.L259:
 5037              	.LBE4933:
 5038              	.LBE4932:
 5039              	.LBE4931:
 5040              	.LBE4930:
 5041              	.LBE4929:
 5042              	.LBE4928:
 5043              	.LBE4927:
 5044              	.LBE4926:
 5045              	.LBE4925:
 5046              	.LBE4924:
 5047              	.LBE4923:
 5048              	.LBB4944:
 5049              	.LBB4945:
 5050              	.LBB4946:
 5051              	.LBB4947:
 5052              	.LBB4948:
 5053              	.LBB4949:
 5054              	.LBB4950:
 5055              	.LBB4951:
 5056              	.LBB4952:
 5057              	.LBB4953:
 5058              	.LBB4954:
 5059              		.loc 11 364 0
 5060 0128 801F0004 		lwz 0,4(31)
 5061              	.LBE4954:
 5062              	.LBE4953:
 5063              	.LBE4952:
 5064              	.LBE4951:
 5065              	.LBE4950:
 5066              	.LBE4949:
 5067              	.LBE4948:
 5068              	.LBE4947:
 5069              	.LBE4946:
 5070              	.LBE4945:
 5071              	.LBE4944:
 5072              	.LBB4975:
 5073              	.LBB4943:
 5074              	.LBB4942:
 5075              	.LBB4941:
 5076              	.LBB4940:
 5077              	.LBB4939:
 5078              	.LBB4938:
 5079              	.LBB4937:
 5080              	.LBB4936:
 5081              	.LBB4935:
 5082              	.LBB4934:
 5083              		.loc 11 367 0
 5084 012c 7F7DDA14 		add 27,29,27
 5085              	.LVL370:
 5086              	.LBE4934:
 5087              	.LBE4935:
 5088              	.LBE4936:
 5089              	.LBE4937:
 5090              	.LBE4938:
 5091              	.LBE4939:
 5092              	.LBE4940:
 5093              	.LBE4941:
 5094              	.LBE4942:
 5095              	.LBE4943:
 5096              	.LBE4975:
 5097              		.loc 10 347 0
 5098 0130 3B5B0004 		addi 26,27,4
 5099              	.LBB4976:
 5100              	.LBB4973:
 5101              	.LBB4971:
 5102              	.LBB4969:
 5103              	.LBB4967:
 5104              	.LBB4965:
 5105              	.LBB4963:
 5106              	.LBB4961:
 5107              	.LBB4959:
 5108              	.LBB4957:
 5109              	.LBB4955:
 5110              		.loc 11 365 0
 5111 0134 3B600000 		li 27,0
 5112              		.loc 11 364 0
 5113 0138 7C1E0050 		subf 0,30,0
 5114              	.LVL371:
 5115              		.loc 11 365 0
 5116 013c 7C001671 		srawi. 0,0,2
 5117              	.LVL372:
 5118 0140 41A20018 		beq+ 0,.L260
 5119              		.loc 11 366 0
 5120 0144 541B103A 		slwi 27,0,2
 5121 0148 7F43D378 		mr 3,26
 5122 014c 7FC4F378 		mr 4,30
 5123 0150 7F65DB78 		mr 5,27
 5124 0154 48000001 		bl memmove
 5125              	.LVL373:
 5126              	.L260:
 5127              	.LBE4955:
 5128              	.LBE4957:
 5129              	.LBE4959:
 5130              	.LBE4961:
 5131              	.LBE4963:
 5132              	.LBE4965:
 5133              	.LBE4967:
 5134              	.LBE4969:
 5135              	.LBE4971:
 5136              	.LBE4973:
 5137              	.LBE4976:
 5138              		.loc 10 366 0
 5139 0158 807F0000 		lwz 3,0(31)
 5140              	.LBB4977:
 5141              	.LBB4974:
 5142              	.LBB4972:
 5143              	.LBB4970:
 5144              	.LBB4968:
 5145              	.LBB4966:
 5146              	.LBB4964:
 5147              	.LBB4962:
 5148              	.LBB4960:
 5149              	.LBB4958:
 5150              	.LBB4956:
 5151              		.loc 11 367 0
 5152 015c 7F7ADA14 		add 27,26,27
 5153              	.LVL374:
 5154              	.LBE4956:
 5155              	.LBE4958:
 5156              	.LBE4960:
 5157              	.LBE4962:
 5158              	.LBE4964:
 5159              	.LBE4966:
 5160              	.LBE4968:
 5161              	.LBE4970:
 5162              	.LBE4972:
 5163              	.LBE4974:
 5164              	.LBE4977:
 5165              	.LBB4978:
 5166              	.LBB4979:
 5167              		.loc 6 155 0
 5168 0160 2F830000 		cmpwi 7,3,0
 5169 0164 419E0008 		beq- 7,.L261
 5170              	.LVL375:
 5171              	.LBB4980:
 5172              	.LBB4981:
 5173              		.loc 8 98 0
 5174 0168 48000001 		bl _ZdlPv
 5175              	.LVL376:
 5176              	.L261:
 5177              	.LBE4981:
 5178              	.LBE4980:
 5179              	.LBE4979:
 5180              	.LBE4978:
 5181              		.loc 10 371 0
 5182 016c 7F9DE214 		add 28,29,28
 5183              		.loc 10 369 0
 5184 0170 93BF0000 		stw 29,0(31)
 5185              		.loc 10 370 0
 5186 0174 937F0004 		stw 27,4(31)
 5187              		.loc 10 371 0
 5188 0178 939F0008 		stw 28,8(31)
 5189 017c 4BFFFEF8 		b .L250
 5190              	.LVL377:
 5191              	.L255:
 5192              	.LBB4982:
 5193              	.LBB4910:
 5194              		.loc 12 892 0
 5195 0180 7F7BF050 		subf 27,27,30
 5196              	.LBE4910:
 5197              	.LBE4982:
 5198              		.loc 10 326 0
 5199 0184 3B800004 		li 28,4
 5200              	.LBB4983:
 5201              	.LBB4911:
 5202              		.loc 12 892 0
 5203 0188 7F7B1670 		srawi 27,27,2
 5204              	.LVL378:
 5205 018c 4BFFFF4C 		b .L262
 5206              	.LVL379:
 5207              	.L268:
 5208              	.LBE4911:
 5209              	.LBE4983:
 5210              	.LBB4984:
 5211              	.LBB4905:
 5212              		.loc 6 1245 0
 5213 0190 3D203FFF 		lis 9,0x3fff
 5214 0194 6129FFFF 		ori 9,9,65535
 5215 0198 7F804840 		cmplw 7,0,9
 5216 019c 419DFF30 		bgt+ 7,.L256
 5217              	.LBE4905:
 5218              	.LBE4984:
 5219              	.LBB4985:
 5220              	.LBB4919:
 5221              		.loc 6 150 0
 5222 01a0 2F800000 		cmpwi 7,0,0
 5223              	.LBE4919:
 5224              	.LBE4985:
 5225              	.LBB4986:
 5226              	.LBB4912:
 5227              		.loc 12 892 0
 5228 01a4 7F7BF050 		subf 27,27,30
 5229              	.LBE4912:
 5230              	.LBE4986:
 5231              	.LBB4987:
 5232              	.LBB4906:
 5233              		.loc 6 1245 0
 5234 01a8 579C1838 		slwi 28,28,3
 5235              	.LVL380:
 5236              	.LBE4906:
 5237              	.LBE4987:
 5238              	.LBB4988:
 5239              	.LBB4913:
 5240              		.loc 12 892 0
 5241 01ac 7F7B1670 		srawi 27,27,2
 5242              	.LVL381:
 5243              	.LBE4913:
 5244              	.LBE4988:
 5245              	.LBB4989:
 5246              	.LBB4920:
 5247              		.loc 6 150 0
 5248 01b0 3BA00000 		li 29,0
 5249 01b4 419EFF38 		beq+ 7,.L257
 5250 01b8 4BFFFF20 		b .L262
 5251              	.LBE4920:
 5252              	.LBE4989:
 5253              	.LBE4898:
 5254              	.LBE4992:
 5255              		.cfi_endproc
 5256              	.LFE1795:
 5257              		.size	_ZNSt6vectorIP9GuiButtonSaIS1_EE13_M_insert_auxEN9__gnu_cxx17__normal_iteratorIPS1_S3_EERKS1
 5258              		.section	.text._ZNSt8_Rb_treeIPN7sigslot12_signal_baseINS0_15single_threadedEEES4_St9_IdentityIS4_
 5259              		.align 2
 5260              		.weak	_ZNSt8_Rb_treeIPN7sigslot12_signal_baseINS0_15single_threadedEEES4_St9_IdentityIS4_ESt4lessI
 5261              		.type	_ZNSt8_Rb_treeIPN7sigslot12_signal_baseINS0_15single_threadedEEES4_St9_IdentityIS4_ESt4lessI
 5262              	_ZNSt8_Rb_treeIPN7sigslot12_signal_baseINS0_15single_threadedEEES4_St9_IdentityIS4_ESt4lessIS4_ESaI
 5263              	.LFB1853:
 5264              		.file 13 "d:\\devkitpro\\devkitppc\\bin\\../lib/gcc/powerpc-eabi/4.6.3/../../../../powerpc-eabi/in
 5265              		.loc 13 1068 0
 5266              		.cfi_startproc
 5267              	.LVL382:
 5268 0000 9421FFC8 		stwu 1,-56(1)
 5269              	.LCFI80:
 5270              		.cfi_def_cfa_offset 56
 5271 0004 7C0802A6 		mflr 0
 5272 0008 92C10010 		stw 22,16(1)
 5273              	.LBB5109:
 5274              		.loc 13 1072 0
 5275 000c 7C962379 		mr. 22,4
 5276              		.cfi_offset 22, -40
 5277              		.cfi_register 65, 0
 5278              	.LBE5109:
 5279              		.loc 13 1068 0
 5280 0010 93C10030 		stw 30,48(1)
 5281 0014 7C7E1B78 		mr 30,3
 5282              		.cfi_offset 30, -8
 5283 0018 9001003C 		stw 0,60(1)
 5284 001c 92A1000C 		stw 21,12(1)
 5285 0020 92E10014 		stw 23,20(1)
 5286 0024 93010018 		stw 24,24(1)
 5287 0028 9321001C 		stw 25,28(1)
 5288 002c 93410020 		stw 26,32(1)
 5289 0030 93610024 		stw 27,36(1)
 5290 0034 93810028 		stw 28,40(1)
 5291 0038 93A1002C 		stw 29,44(1)
 5292 003c 93E10034 		stw 31,52(1)
 5293              	.LBB5194:
 5294              		.loc 13 1072 0
 5295 0040 41820168 		beq- 0,.L269
 5296              		.cfi_offset 31, -4
 5297              		.cfi_offset 29, -12
 5298              		.cfi_offset 28, -16
 5299              		.cfi_offset 27, -20
 5300              		.cfi_offset 26, -24
 5301              		.cfi_offset 25, -28
 5302              		.cfi_offset 24, -32
 5303              		.cfi_offset 23, -36
 5304              		.cfi_offset 21, -44
 5305              		.cfi_offset 65, 4
 5306              	.LVL383:
 5307              	.L315:
 5308              		.loc 5 368 0
 5309 0044 8376000C 		lwz 27,12(22)
 5310              	.LVL384:
 5311              	.LBB5110:
 5312              	.LBB5111:
 5313              	.LBB5112:
 5314              		.loc 13 1072 0
 5315 0048 2F9B0000 		cmpwi 7,27,0
 5316 004c 419E0140 		beq- 7,.L271
 5317              	.LVL385:
 5318              	.L316:
 5319              	.LBE5112:
 5320              		.loc 5 368 0
 5321 0050 835B000C 		lwz 26,12(27)
 5322              	.LVL386:
 5323              	.LBB5188:
 5324              	.LBB5113:
 5325              	.LBB5114:
 5326              	.LBB5115:
 5327              		.loc 13 1072 0
 5328 0054 2F9A0000 		cmpwi 7,26,0
 5329 0058 419E0118 		beq- 7,.L272
 5330              	.LVL387:
 5331              	.L317:
 5332              	.LBE5115:
 5333              		.loc 5 368 0
 5334 005c 833A000C 		lwz 25,12(26)
 5335              	.LVL388:
 5336              	.LBB5181:
 5337              	.LBB5116:
 5338              	.LBB5117:
 5339              	.LBB5118:
 5340              		.loc 13 1072 0
 5341 0060 2F990000 		cmpwi 7,25,0
 5342 0064 419E00F0 		beq- 7,.L273
 5343              	.LVL389:
 5344              	.L318:
 5345              	.LBE5118:
 5346              		.loc 5 368 0
 5347 0068 8319000C 		lwz 24,12(25)
 5348              	.LVL390:
 5349              	.LBB5174:
 5350              	.LBB5119:
 5351              	.LBB5120:
 5352              	.LBB5121:
 5353              		.loc 13 1072 0
 5354 006c 2F980000 		cmpwi 7,24,0
 5355 0070 419E00C8 		beq- 7,.L274
 5356              	.LVL391:
 5357              	.L319:
 5358              	.LBE5121:
 5359              		.loc 5 368 0
 5360 0074 82F8000C 		lwz 23,12(24)
 5361              	.LVL392:
 5362              	.LBB5167:
 5363              	.LBB5122:
 5364              	.LBB5123:
 5365              	.LBB5124:
 5366              		.loc 13 1072 0
 5367 0078 2F970000 		cmpwi 7,23,0
 5368 007c 419E00A0 		beq- 7,.L275
 5369              	.LVL393:
 5370              	.L320:
 5371              	.LBE5124:
 5372              		.loc 5 368 0
 5373 0080 8397000C 		lwz 28,12(23)
 5374              	.LVL394:
 5375              	.LBB5160:
 5376              	.LBB5125:
 5377              	.LBB5126:
 5378              	.LBB5127:
 5379              		.loc 13 1072 0
 5380 0084 2F9C0000 		cmpwi 7,28,0
 5381 0088 419E0078 		beq- 7,.L276
 5382              	.LVL395:
 5383              	.L321:
 5384              	.LBE5127:
 5385              		.loc 5 368 0
 5386 008c 83BC000C 		lwz 29,12(28)
 5387              	.LVL396:
 5388              	.LBB5153:
 5389              	.LBB5128:
 5390              	.LBB5129:
 5391              	.LBB5130:
 5392              		.loc 13 1072 0
 5393 0090 2F9D0000 		cmpwi 7,29,0
 5394 0094 419E0050 		beq- 7,.L277
 5395              	.LVL397:
 5396              	.L322:
 5397              	.LBE5130:
 5398              		.loc 5 368 0
 5399 0098 83FD000C 		lwz 31,12(29)
 5400              	.LVL398:
 5401              	.LBB5146:
 5402              	.LBB5131:
 5403              	.LBB5132:
 5404              	.LBB5133:
 5405              		.loc 13 1072 0
 5406 009c 2F9F0000 		cmpwi 7,31,0
 5407 00a0 419E0028 		beq- 7,.L278
 5408              	.LVL399:
 5409              	.L323:
 5410              	.LBB5134:
 5411              		.loc 13 1074 0
 5412 00a4 809F000C 		lwz 4,12(31)
 5413 00a8 7FC3F378 		mr 3,30
 5414 00ac 48000001 		bl _ZNSt8_Rb_treeIPN7sigslot12_signal_baseINS0_15single_threadedEEES4_St9_IdentityIS4_ESt4lessIS4_
 5415              	.LBE5134:
 5416              	.LBE5133:
 5417              		.loc 5 368 0
 5418 00b0 82BF0008 		lwz 21,8(31)
 5419              	.LVL400:
 5420              	.LBB5140:
 5421              	.LBB5139:
 5422              	.LBB5135:
 5423              	.LBB5136:
 5424              	.LBB5137:
 5425              	.LBB5138:
 5426              		.loc 8 98 0
 5427 00b4 7FE3FB78 		mr 3,31
 5428 00b8 48000001 		bl _ZdlPv
 5429              	.LVL401:
 5430              	.LBE5138:
 5431              	.LBE5137:
 5432              	.LBE5136:
 5433              	.LBE5135:
 5434              	.LBE5139:
 5435              		.loc 13 1072 0
 5436 00bc 2F950000 		cmpwi 7,21,0
 5437              		.loc 13 1077 0
 5438 00c0 7EBFAB78 		mr 31,21
 5439              	.LVL402:
 5440              		.loc 13 1072 0
 5441 00c4 409EFFE0 		bne+ 7,.L323
 5442              	.LVL403:
 5443              	.L278:
 5444              	.LBE5140:
 5445              	.LBE5132:
 5446              	.LBE5131:
 5447              	.LBE5146:
 5448              		.loc 5 368 0
 5449 00c8 83FD0008 		lwz 31,8(29)
 5450              	.LVL404:
 5451              	.LBB5147:
 5452              	.LBB5145:
 5453              	.LBB5141:
 5454              	.LBB5142:
 5455              	.LBB5143:
 5456              	.LBB5144:
 5457              		.loc 8 98 0
 5458 00cc 7FA3EB78 		mr 3,29
 5459 00d0 48000001 		bl _ZdlPv
 5460              	.LVL405:
 5461              	.LBE5144:
 5462              	.LBE5143:
 5463              	.LBE5142:
 5464              	.LBE5141:
 5465              	.LBE5145:
 5466              		.loc 13 1072 0
 5467 00d4 2F9F0000 		cmpwi 7,31,0
 5468 00d8 419E000C 		beq- 7,.L277
 5469              		.loc 13 1077 0
 5470 00dc 7FFDFB78 		mr 29,31
 5471              	.LVL406:
 5472 00e0 4BFFFFB8 		b .L322
 5473              	.LVL407:
 5474              	.L277:
 5475              	.LBE5147:
 5476              	.LBE5129:
 5477              	.LBE5128:
 5478              	.LBE5153:
 5479              		.loc 5 368 0
 5480 00e4 83FC0008 		lwz 31,8(28)
 5481              	.LVL408:
 5482              	.LBB5154:
 5483              	.LBB5152:
 5484              	.LBB5148:
 5485              	.LBB5149:
 5486              	.LBB5150:
 5487              	.LBB5151:
 5488              		.loc 8 98 0
 5489 00e8 7F83E378 		mr 3,28
 5490 00ec 48000001 		bl _ZdlPv
 5491              	.LVL409:
 5492              	.LBE5151:
 5493              	.LBE5150:
 5494              	.LBE5149:
 5495              	.LBE5148:
 5496              	.LBE5152:
 5497              		.loc 13 1072 0
 5498 00f0 2F9F0000 		cmpwi 7,31,0
 5499 00f4 419E000C 		beq- 7,.L276
 5500              		.loc 13 1077 0
 5501 00f8 7FFCFB78 		mr 28,31
 5502              	.LVL410:
 5503 00fc 4BFFFF90 		b .L321
 5504              	.LVL411:
 5505              	.L276:
 5506              	.LBE5154:
 5507              	.LBE5126:
 5508              	.LBE5125:
 5509              	.LBE5160:
 5510              		.loc 5 368 0
 5511 0100 83F70008 		lwz 31,8(23)
 5512              	.LVL412:
 5513              	.LBB5161:
 5514              	.LBB5159:
 5515              	.LBB5155:
 5516              	.LBB5156:
 5517              	.LBB5157:
 5518              	.LBB5158:
 5519              		.loc 8 98 0
 5520 0104 7EE3BB78 		mr 3,23
 5521 0108 48000001 		bl _ZdlPv
 5522              	.LVL413:
 5523              	.LBE5158:
 5524              	.LBE5157:
 5525              	.LBE5156:
 5526              	.LBE5155:
 5527              	.LBE5159:
 5528              		.loc 13 1072 0
 5529 010c 2F9F0000 		cmpwi 7,31,0
 5530 0110 419E000C 		beq- 7,.L275
 5531              		.loc 13 1077 0
 5532 0114 7FF7FB78 		mr 23,31
 5533              	.LVL414:
 5534 0118 4BFFFF68 		b .L320
 5535              	.LVL415:
 5536              	.L275:
 5537              	.LBE5161:
 5538              	.LBE5123:
 5539              	.LBE5122:
 5540              	.LBE5167:
 5541              		.loc 5 368 0
 5542 011c 83F80008 		lwz 31,8(24)
 5543              	.LVL416:
 5544              	.LBB5168:
 5545              	.LBB5166:
 5546              	.LBB5162:
 5547              	.LBB5163:
 5548              	.LBB5164:
 5549              	.LBB5165:
 5550              		.loc 8 98 0
 5551 0120 7F03C378 		mr 3,24
 5552 0124 48000001 		bl _ZdlPv
 5553              	.LVL417:
 5554              	.LBE5165:
 5555              	.LBE5164:
 5556              	.LBE5163:
 5557              	.LBE5162:
 5558              	.LBE5166:
 5559              		.loc 13 1072 0
 5560 0128 2F9F0000 		cmpwi 7,31,0
 5561 012c 419E000C 		beq- 7,.L274
 5562              		.loc 13 1077 0
 5563 0130 7FF8FB78 		mr 24,31
 5564              	.LVL418:
 5565 0134 4BFFFF40 		b .L319
 5566              	.LVL419:
 5567              	.L274:
 5568              	.LBE5168:
 5569              	.LBE5120:
 5570              	.LBE5119:
 5571              	.LBE5174:
 5572              		.loc 5 368 0
 5573 0138 83F90008 		lwz 31,8(25)
 5574              	.LVL420:
 5575              	.LBB5175:
 5576              	.LBB5173:
 5577              	.LBB5169:
 5578              	.LBB5170:
 5579              	.LBB5171:
 5580              	.LBB5172:
 5581              		.loc 8 98 0
 5582 013c 7F23CB78 		mr 3,25
 5583 0140 48000001 		bl _ZdlPv
 5584              	.LVL421:
 5585              	.LBE5172:
 5586              	.LBE5171:
 5587              	.LBE5170:
 5588              	.LBE5169:
 5589              	.LBE5173:
 5590              		.loc 13 1072 0
 5591 0144 2F9F0000 		cmpwi 7,31,0
 5592 0148 419E000C 		beq- 7,.L273
 5593              		.loc 13 1077 0
 5594 014c 7FF9FB78 		mr 25,31
 5595              	.LVL422:
 5596 0150 4BFFFF18 		b .L318
 5597              	.LVL423:
 5598              	.L273:
 5599              	.LBE5175:
 5600              	.LBE5117:
 5601              	.LBE5116:
 5602              	.LBE5181:
 5603              		.loc 5 368 0
 5604 0154 83FA0008 		lwz 31,8(26)
 5605              	.LVL424:
 5606              	.LBB5182:
 5607              	.LBB5180:
 5608              	.LBB5176:
 5609              	.LBB5177:
 5610              	.LBB5178:
 5611              	.LBB5179:
 5612              		.loc 8 98 0
 5613 0158 7F43D378 		mr 3,26
 5614 015c 48000001 		bl _ZdlPv
 5615              	.LVL425:
 5616              	.LBE5179:
 5617              	.LBE5178:
 5618              	.LBE5177:
 5619              	.LBE5176:
 5620              	.LBE5180:
 5621              		.loc 13 1072 0
 5622 0160 2F9F0000 		cmpwi 7,31,0
 5623 0164 419E000C 		beq- 7,.L272
 5624              		.loc 13 1077 0
 5625 0168 7FFAFB78 		mr 26,31
 5626              	.LVL426:
 5627 016c 4BFFFEF0 		b .L317
 5628              	.LVL427:
 5629              	.L272:
 5630              	.LBE5182:
 5631              	.LBE5114:
 5632              	.LBE5113:
 5633              	.LBE5188:
 5634              		.loc 5 368 0
 5635 0170 83FB0008 		lwz 31,8(27)
 5636              	.LVL428:
 5637              	.LBB5189:
 5638              	.LBB5187:
 5639              	.LBB5183:
 5640              	.LBB5184:
 5641              	.LBB5185:
 5642              	.LBB5186:
 5643              		.loc 8 98 0
 5644 0174 7F63DB78 		mr 3,27
 5645 0178 48000001 		bl _ZdlPv
 5646              	.LVL429:
 5647              	.LBE5186:
 5648              	.LBE5185:
 5649              	.LBE5184:
 5650              	.LBE5183:
 5651              	.LBE5187:
 5652              		.loc 13 1072 0
 5653 017c 2F9F0000 		cmpwi 7,31,0
 5654 0180 419E000C 		beq- 7,.L271
 5655              		.loc 13 1077 0
 5656 0184 7FFBFB78 		mr 27,31
 5657              	.LVL430:
 5658 0188 4BFFFEC8 		b .L316
 5659              	.LVL431:
 5660              	.L271:
 5661              		.loc 5 368 0
 5662 018c 83F60008 		lwz 31,8(22)
 5663              	.LVL432:
 5664              	.LBE5189:
 5665              	.LBE5111:
 5666              	.LBB5190:
 5667              	.LBB5191:
 5668              	.LBB5192:
 5669              	.LBB5193:
 5670              		.loc 8 98 0
 5671 0190 7EC3B378 		mr 3,22
 5672 0194 48000001 		bl _ZdlPv
 5673              	.LVL433:
 5674              	.LBE5193:
 5675              	.LBE5192:
 5676              	.LBE5191:
 5677              	.LBE5190:
 5678              	.LBE5110:
 5679              		.loc 13 1072 0
 5680 0198 2F9F0000 		cmpwi 7,31,0
 5681 019c 419E000C 		beq- 7,.L269
 5682              		.loc 13 1077 0
 5683 01a0 7FF6FB78 		mr 22,31
 5684              	.LVL434:
 5685 01a4 4BFFFEA0 		b .L315
 5686              	.LVL435:
 5687              	.L269:
 5688              	.LBE5194:
 5689              		.loc 13 1079 0
 5690 01a8 8001003C 		lwz 0,60(1)
 5691 01ac 82A1000C 		lwz 21,12(1)
 5692 01b0 7C0803A6 		mtlr 0
 5693 01b4 82C10010 		lwz 22,16(1)
 5694 01b8 82E10014 		lwz 23,20(1)
 5695 01bc 83010018 		lwz 24,24(1)
 5696 01c0 8321001C 		lwz 25,28(1)
 5697 01c4 83410020 		lwz 26,32(1)
 5698 01c8 83610024 		lwz 27,36(1)
 5699 01cc 83810028 		lwz 28,40(1)
 5700 01d0 83A1002C 		lwz 29,44(1)
 5701 01d4 83C10030 		lwz 30,48(1)
 5702              	.LVL436:
 5703 01d8 83E10034 		lwz 31,52(1)
 5704 01dc 38210038 		addi 1,1,56
 5705              	.LCFI81:
 5706              		.cfi_def_cfa_offset 0
 5707              		.cfi_restore 31
 5708              		.cfi_restore 30
 5709              		.cfi_restore 29
 5710              		.cfi_restore 28
 5711              		.cfi_restore 27
 5712              		.cfi_restore 26
 5713              		.cfi_restore 25
 5714              		.cfi_restore 24
 5715              		.cfi_restore 23
 5716              		.cfi_restore 22
 5717              		.cfi_restore 21
 5718 01e0 4E800020 		blr
 5719              		.cfi_endproc
 5720              	.LFE1853:
 5721              		.size	_ZNSt8_Rb_treeIPN7sigslot12_signal_baseINS0_15single_threadedEEES4_St9_IdentityIS4_ESt4lessI
 5722              		.section	.text._ZN7sigslot9has_slotsINS_15single_threadedEED2Ev,"axG",@progbits,_ZN7sigslot9has_sl
 5723              		.align 2
 5724              		.weak	_ZN7sigslot9has_slotsINS_15single_threadedEED2Ev
 5725              		.type	_ZN7sigslot9has_slotsINS_15single_threadedEED2Ev, @function
 5726              	_ZN7sigslot9has_slotsINS_15single_threadedEED2Ev:
 5727              	.LFB1625:
 5728              		.loc 1 513 0
 5729              		.cfi_startproc
 5730              		.cfi_personality 0,__gxx_personality_v0
 5731              		.cfi_lsda 0,.LLSDA1625
 5732              	.LVL437:
 5733 0000 7C0802A6 		mflr 0
 5734 0004 9421FFE0 		stwu 1,-32(1)
 5735              	.LCFI82:
 5736              		.cfi_def_cfa_offset 32
 5737              		.cfi_register 65, 0
 5738              	.LBB5341:
 5739              		.loc 1 516 0
 5740 0008 3D200000 		lis 9,_ZTVN7sigslot9has_slotsINS_15single_threadedEEE+8@ha
 5741              	.LBE5341:
 5742              		.loc 1 513 0
 5743 000c 93810010 		stw 28,16(1)
 5744 0010 3B830004 		addi 28,3,4
 5745              		.cfi_offset 28, -16
 5746 0014 90010024 		stw 0,36(1)
 5747              	.LBB5417:
 5748              		.loc 1 516 0
 5749 0018 38090008 		la 0,_ZTVN7sigslot9has_slotsINS_15single_threadedEEE+8@l(9)
 5750              		.cfi_offset 65, 4
 5751              	.LBE5417:
 5752              		.loc 1 513 0
 5753 001c 93A10014 		stw 29,20(1)
 5754 0020 7C7D1B78 		mr 29,3
 5755              		.cfi_offset 29, -12
 5756 0024 93410008 		stw 26,8(1)
 5757 0028 9361000C 		stw 27,12(1)
 5758 002c 93C10018 		stw 30,24(1)
 5759 0030 93E1001C 		stw 31,28(1)
 5760              	.LBB5418:
 5761              		.loc 1 516 0
 5762 0034 90030000 		stw 0,0(3)
 5763              	.LVL438:
 5764              	.LEHB21:
 5765              	.LBB5342:
 5766              	.LBB5343:
 5767              	.LBB5344:
 5768              	.LBB5345:
 5769              		.loc 1 338 0
 5770              		.cfi_offset 31, -4
 5771              		.cfi_offset 30, -8
 5772              		.cfi_offset 27, -20
 5773              		.cfi_offset 26, -24
 5774 0038 48000001 		bl _ZN7sigslot15single_threaded4lockEv
 5775              	.LEHE21:
 5776              	.LVL439:
 5777              	.LBE5345:
 5778              	.LBE5344:
 5779              	.LBB5346:
 5780              		.loc 5 368 0
 5781 003c 83FD0010 		lwz 31,16(29)
 5782              	.LVL440:
 5783              	.LBE5346:
 5784              	.LBB5347:
 5785              	.LBB5348:
 5786              	.LBB5349:
 5787              		.loc 13 671 0
 5788 0040 3BDC0004 		addi 30,28,4
 5789              	.LVL441:
 5790              	.LBE5349:
 5791              	.LBE5348:
 5792              	.LBE5347:
 5793              		.loc 1 524 0
 5794 0044 7F9FF000 		cmpw 7,31,30
 5795 0048 419E0034 		beq- 7,.L325
 5796              	.LVL442:
 5797              	.L352:
 5798              		.loc 1 526 0
 5799 004c 807F0010 		lwz 3,16(31)
 5800 0050 7FA4EB78 		mr 4,29
 5801 0054 81230000 		lwz 9,0(3)
 5802 0058 80090010 		lwz 0,16(9)
 5803 005c 7C0903A6 		mtctr 0
 5804              	.LEHB22:
 5805 0060 4E800421 		bctrl
 5806              	.LEHE22:
 5807              	.LVL443:
 5808              	.LBB5350:
 5809              	.LBB5351:
 5810              		.loc 13 269 0
 5811 0064 7FE3FB78 		mr 3,31
 5812 0068 48000001 		bl _ZSt18_Rb_tree_incrementPKSt18_Rb_tree_node_base
 5813              	.LBE5351:
 5814              	.LBE5350:
 5815              		.loc 1 524 0
 5816 006c 7F9E1800 		cmpw 7,30,3
 5817              	.LBB5353:
 5818              	.LBB5352:
 5819              		.loc 13 269 0
 5820 0070 7C7F1B78 		mr 31,3
 5821              	.LVL444:
 5822              	.LBE5352:
 5823              	.LBE5353:
 5824              		.loc 1 524 0
 5825 0074 409EFFD8 		bne+ 7,.L352
 5826 0078 83FD0010 		lwz 31,16(29)
 5827              	.LVL445:
 5828              	.L325:
 5829              	.LBB5354:
 5830              	.LBB5355:
 5831              	.LBB5356:
 5832              	.LBB5357:
 5833              	.LBB5358:
 5834              	.LBB5359:
 5835              	.LBB5360:
 5836              		.loc 13 665 0
 5837 007c 3B5C0004 		addi 26,28,4
 5838              	.LBE5360:
 5839              	.LBE5359:
 5840              		.loc 13 1500 0
 5841 0080 7F9ED000 		cmpw 7,30,26
 5842 0084 419E0098 		beq- 7,.L327
 5843              	.LVL446:
 5844              		.loc 13 1503 0
 5845 0088 7F9EF800 		cmpw 7,30,31
 5846 008c 40BE000C 		bne+ 7,.L354
 5847 0090 48000038 		b .L328
 5848              	.LVL447:
 5849              	.L349:
 5850              		.loc 13 277 0
 5851 0094 7F7FDB78 		mr 31,27
 5852              	.LVL448:
 5853              	.L354:
 5854              	.LBB5361:
 5855              	.LBB5362:
 5856 0098 7FE3FB78 		mr 3,31
 5857 009c 48000001 		bl _ZSt18_Rb_tree_incrementPKSt18_Rb_tree_node_base
 5858              	.LBE5362:
 5859              	.LBE5361:
 5860              	.LBB5364:
 5861              	.LBB5365:
 5862              	.LBB5366:
 5863              		.loc 13 1489 0
 5864 00a0 7F44D378 		mr 4,26
 5865              	.LBE5366:
 5866              	.LBE5365:
 5867              	.LBE5364:
 5868              	.LBB5375:
 5869              	.LBB5363:
 5870              		.loc 13 277 0
 5871 00a4 7C7B1B78 		mr 27,3
 5872              	.LVL449:
 5873              	.LBE5363:
 5874              	.LBE5375:
 5875              	.LBB5376:
 5876              	.LBB5373:
 5877              	.LBB5371:
 5878              		.loc 13 1489 0
 5879 00a8 7FE3FB78 		mr 3,31
 5880              	.LVL450:
 5881 00ac 48000001 		bl _ZSt28_Rb_tree_rebalance_for_erasePSt18_Rb_tree_node_baseRS_
 5882              	.LBB5367:
 5883              	.LBB5368:
 5884              	.LBB5369:
 5885              	.LBB5370:
 5886              		.loc 8 98 0
 5887 00b0 48000001 		bl _ZdlPv
 5888              	.LBE5370:
 5889              	.LBE5369:
 5890              	.LBE5368:
 5891              	.LBE5367:
 5892              	.LBE5371:
 5893              	.LBE5373:
 5894              	.LBE5376:
 5895              		.loc 13 1503 0
 5896 00b4 7F9ED800 		cmpw 7,30,27
 5897              	.LBB5377:
 5898              	.LBB5374:
 5899              	.LBB5372:
 5900              		.loc 13 1491 0
 5901 00b8 813C0014 		lwz 9,20(28)
 5902 00bc 3809FFFF 		addi 0,9,-1
 5903 00c0 901C0014 		stw 0,20(28)
 5904              	.LBE5372:
 5905              	.LBE5374:
 5906              	.LBE5377:
 5907              		.loc 13 1503 0
 5908 00c4 409EFFD0 		bne+ 7,.L349
 5909              	.LVL451:
 5910              	.L328:
 5911              	.LBE5358:
 5912              	.LBE5357:
 5913              	.LBE5356:
 5914              	.LBE5355:
 5915              	.LBE5354:
 5916              	.LBB5386:
 5917              	.LBB5387:
 5918              	.LBB5388:
 5919              		.loc 1 343 0
 5920 00c8 813D0000 		lwz 9,0(29)
 5921 00cc 7FA3EB78 		mr 3,29
 5922 00d0 8009000C 		lwz 0,12(9)
 5923 00d4 7C0903A6 		mtctr 0
 5924              	.LEHB23:
 5925 00d8 4E800421 		bctrl
 5926              	.LEHE23:
 5927              	.LVL452:
 5928              	.LBE5388:
 5929              	.LBE5387:
 5930              	.LBE5386:
 5931              	.LBE5343:
 5932              	.LBE5342:
 5933              	.LBB5395:
 5934              	.LBB5396:
 5935              	.LBB5397:
 5936              	.LBB5398:
 5937              	.LBB5399:
 5938              		.loc 13 639 0
 5939 00dc 809D000C 		lwz 4,12(29)
 5940 00e0 7F83E378 		mr 3,28
 5941 00e4 48000001 		bl _ZNSt8_Rb_treeIPN7sigslot12_signal_baseINS0_15single_threadedEEES4_St9_IdentityIS4_ESt4lessIS4_
 5942              	.LVL453:
 5943              	.LBE5399:
 5944              	.LBE5398:
 5945              	.LBE5397:
 5946              	.LBE5396:
 5947              	.LBE5395:
 5948              	.LBB5400:
 5949              	.LBB5401:
 5950              	.LBB5402:
 5951              		.loc 1 105 0
 5952 00e8 3D200000 		lis 9,_ZTVN7sigslot15single_threadedE+8@ha
 5953 00ec 38090008 		la 0,_ZTVN7sigslot15single_threadedE+8@l(9)
 5954              	.LBE5402:
 5955              	.LBE5401:
 5956              	.LBE5400:
 5957              	.LBE5418:
 5958              		.loc 1 516 0
 5959 00f0 83410008 		lwz 26,8(1)
 5960              	.LBB5419:
 5961              	.LBB5405:
 5962              	.LBB5404:
 5963              	.LBB5403:
 5964              		.loc 1 105 0
 5965 00f4 901D0000 		stw 0,0(29)
 5966              	.LBE5403:
 5967              	.LBE5404:
 5968              	.LBE5405:
 5969              	.LBE5419:
 5970              		.loc 1 516 0
 5971 00f8 80010024 		lwz 0,36(1)
 5972 00fc 8361000C 		lwz 27,12(1)
 5973 0100 7C0803A6 		mtlr 0
 5974 0104 83810010 		lwz 28,16(1)
 5975              	.LVL454:
 5976 0108 83A10014 		lwz 29,20(1)
 5977              	.LVL455:
 5978 010c 83C10018 		lwz 30,24(1)
 5979              	.LVL456:
 5980 0110 83E1001C 		lwz 31,28(1)
 5981 0114 38210020 		addi 1,1,32
 5982              		.cfi_remember_state
 5983              	.LCFI83:
 5984              		.cfi_def_cfa_offset 0
 5985              		.cfi_restore 31
 5986              		.cfi_restore 30
 5987              		.cfi_restore 29
 5988              		.cfi_restore 28
 5989              		.cfi_restore 27
 5990              		.cfi_restore 26
 5991 0118 4E800020 		blr
 5992              	.LVL457:
 5993              	.L327:
 5994              	.LCFI84:
 5995              		.cfi_restore_state
 5996              	.LBB5420:
 5997              	.LBB5406:
 5998              	.LBB5393:
 5999              	.LBB5389:
 6000              	.LBB5385:
 6001              	.LBB5384:
 6002              	.LBB5383:
 6003              	.LBB5382:
 6004              	.LBB5378:
 6005              	.LBB5379:
 6006              	.LBB5380:
 6007              	.LBB5381:
 6008              		.loc 13 809 0
 6009 011c 809D000C 		lwz 4,12(29)
 6010 0120 7F83E378 		mr 3,28
 6011 0124 48000001 		bl _ZNSt8_Rb_treeIPN7sigslot12_signal_baseINS0_15single_threadedEEES4_St9_IdentityIS4_ESt4lessIS4_
 6012              	.LVL458:
 6013              		.loc 13 811 0
 6014 0128 38000000 		li 0,0
 6015              		.loc 13 810 0
 6016 012c 93DD0010 		stw 30,16(29)
 6017              	.LVL459:
 6018              		.loc 13 811 0
 6019 0130 901D000C 		stw 0,12(29)
 6020              	.LVL460:
 6021              		.loc 13 812 0
 6022 0134 93DD0014 		stw 30,20(29)
 6023              		.loc 13 813 0
 6024 0138 901D0018 		stw 0,24(29)
 6025 013c 4BFFFF8C 		b .L328
 6026              	.LVL461:
 6027              	.L350:
 6028 0140 7C7F1B78 		mr 31,3
 6029              	.L335:
 6030              	.LVL462:
 6031              	.LBE5381:
 6032              	.LBE5380:
 6033              	.LBE5379:
 6034              	.LBE5378:
 6035              	.LBE5382:
 6036              	.LBE5383:
 6037              	.LBE5384:
 6038              	.LBE5385:
 6039              	.LBE5389:
 6040              	.LBE5393:
 6041              	.LBE5406:
 6042              	.LBB5407:
 6043              	.LBB5408:
 6044              	.LBB5409:
 6045              	.LBB5410:
 6046              	.LBB5411:
 6047              	.LBB5412:
 6048              		.loc 13 639 0
 6049 0144 809D000C 		lwz 4,12(29)
 6050 0148 7F83E378 		mr 3,28
 6051 014c 48000001 		bl _ZNSt8_Rb_treeIPN7sigslot12_signal_baseINS0_15single_threadedEEES4_St9_IdentityIS4_ESt4lessIS4_
 6052              	.LVL463:
 6053              	.LBE5412:
 6054              	.LBE5411:
 6055              	.LBE5410:
 6056              	.LBE5409:
 6057              	.LBE5408:
 6058              	.LBE5407:
 6059              	.LBB5413:
 6060              	.LBB5414:
 6061              	.LBB5415:
 6062              		.loc 1 105 0
 6063 0150 3D200000 		lis 9,_ZTVN7sigslot15single_threadedE+8@ha
 6064 0154 38090008 		la 0,_ZTVN7sigslot15single_threadedE+8@l(9)
 6065 0158 7FE3FB78 		mr 3,31
 6066 015c 901D0000 		stw 0,0(29)
 6067              	.LEHB24:
 6068 0160 48000001 		bl _Unwind_Resume
 6069              	.LEHE24:
 6070              	.LVL464:
 6071              	.L351:
 6072              	.LBE5415:
 6073              	.LBE5414:
 6074              	.LBE5413:
 6075              	.LBB5416:
 6076              	.LBB5394:
 6077              	.LBB5390:
 6078              	.LBB5391:
 6079              	.LBB5392:
 6080              		.loc 1 343 0
 6081 0164 813D0000 		lwz 9,0(29)
 6082 0168 7C7F1B78 		mr 31,3
 6083              	.LVL465:
 6084 016c 7FA3EB78 		mr 3,29
 6085 0170 8009000C 		lwz 0,12(9)
 6086 0174 7C0903A6 		mtctr 0
 6087 0178 4E800421 		bctrl
 6088 017c 4BFFFFC8 		b .L335
 6089              	.LBE5392:
 6090              	.LBE5391:
 6091              	.LBE5390:
 6092              	.LBE5394:
 6093              	.LBE5416:
 6094              	.LBE5420:
 6095              		.cfi_endproc
 6096              	.LFE1625:
 6097              		.section	.gcc_except_table
 6098              	.LLSDA1625:
 6099 0083 FF       		.byte	0xff
 6100 0084 FF       		.byte	0xff
 6101 0085 01       		.byte	0x1
 6102 0086 15       		.uleb128 .LLSDACSE1625-.LLSDACSB1625
 6103              	.LLSDACSB1625:
 6104 0087 38       		.uleb128 .LEHB21-.LFB1625
 6105 0088 04       		.uleb128 .LEHE21-.LEHB21
 6106 0089 C002     		.uleb128 .L350-.LFB1625
 6107 008b 00       		.uleb128 0
 6108 008c 60       		.uleb128 .LEHB22-.LFB1625
 6109 008d 04       		.uleb128 .LEHE22-.LEHB22
 6110 008e E402     		.uleb128 .L351-.LFB1625
 6111 0090 00       		.uleb128 0
 6112 0091 D801     		.uleb128 .LEHB23-.LFB1625
 6113 0093 04       		.uleb128 .LEHE23-.LEHB23
 6114 0094 C002     		.uleb128 .L350-.LFB1625
 6115 0096 00       		.uleb128 0
 6116 0097 E002     		.uleb128 .LEHB24-.LFB1625
 6117 0099 04       		.uleb128 .LEHE24-.LEHB24
 6118 009a 00       		.uleb128 0
 6119 009b 00       		.uleb128 0
 6120              	.LLSDACSE1625:
 6121              		.section	.text._ZN7sigslot9has_slotsINS_15single_threadedEED2Ev,"axG",@progbits,_ZN7sigslot9has_sl
 6122              		.size	_ZN7sigslot9has_slotsINS_15single_threadedEED2Ev, .-_ZN7sigslot9has_slotsINS_15single_thread
 6123              		.section	.text._ZN7sigslot9has_slotsINS_15single_threadedEED0Ev,"axG",@progbits,_ZN7sigslot9has_sl
 6124              		.align 2
 6125              		.weak	_ZN7sigslot9has_slotsINS_15single_threadedEED0Ev
 6126              		.type	_ZN7sigslot9has_slotsINS_15single_threadedEED0Ev, @function
 6127              	_ZN7sigslot9has_slotsINS_15single_threadedEED0Ev:
 6128              	.LFB1627:
 6129              		.loc 1 513 0
 6130              		.cfi_startproc
 6131              		.cfi_personality 0,__gxx_personality_v0
 6132              		.cfi_lsda 0,.LLSDA1627
 6133              	.LVL466:
 6134 0000 7C0802A6 		mflr 0
 6135 0004 9421FFE0 		stwu 1,-32(1)
 6136              	.LCFI85:
 6137              		.cfi_def_cfa_offset 32
 6138              		.cfi_register 65, 0
 6139              	.LBB5514:
 6140              	.LBB5515:
 6141              	.LBB5516:
 6142              		.loc 1 516 0
 6143 0008 3D200000 		lis 9,_ZTVN7sigslot9has_slotsINS_15single_threadedEEE+8@ha
 6144              	.LBE5516:
 6145              	.LBE5515:
 6146              	.LBE5514:
 6147              		.loc 1 513 0
 6148 000c 93810010 		stw 28,16(1)
 6149 0010 3B830004 		addi 28,3,4
 6150              		.cfi_offset 28, -16
 6151 0014 90010024 		stw 0,36(1)
 6152              	.LBB5600:
 6153              	.LBB5596:
 6154              	.LBB5592:
 6155              		.loc 1 516 0
 6156 0018 38090008 		la 0,_ZTVN7sigslot9has_slotsINS_15single_threadedEEE+8@l(9)
 6157              		.cfi_offset 65, 4
 6158              	.LBE5592:
 6159              	.LBE5596:
 6160              	.LBE5600:
 6161              		.loc 1 513 0
 6162 001c 93A10014 		stw 29,20(1)
 6163 0020 7C7D1B78 		mr 29,3
 6164              		.cfi_offset 29, -12
 6165              	.LVL467:
 6166 0024 93410008 		stw 26,8(1)
 6167 0028 9361000C 		stw 27,12(1)
 6168 002c 93C10018 		stw 30,24(1)
 6169 0030 93E1001C 		stw 31,28(1)
 6170              	.LBB5601:
 6171              	.LBB5597:
 6172              	.LBB5593:
 6173              		.loc 1 516 0
 6174 0034 90030000 		stw 0,0(3)
 6175              	.LVL468:
 6176              	.LEHB25:
 6177              	.LBB5517:
 6178              	.LBB5518:
 6179              	.LBB5519:
 6180              	.LBB5520:
 6181              		.loc 1 338 0
 6182              		.cfi_offset 31, -4
 6183              		.cfi_offset 30, -8
 6184              		.cfi_offset 27, -20
 6185              		.cfi_offset 26, -24
 6186 0038 48000001 		bl _ZN7sigslot15single_threaded4lockEv
 6187              	.LEHE25:
 6188              	.LVL469:
 6189              	.LBE5520:
 6190              	.LBE5519:
 6191              	.LBB5521:
 6192              		.loc 5 368 0
 6193 003c 83FD0010 		lwz 31,16(29)
 6194              	.LVL470:
 6195              	.LBE5521:
 6196              	.LBB5522:
 6197              	.LBB5523:
 6198              	.LBB5524:
 6199              		.loc 13 671 0
 6200 0040 3BDC0004 		addi 30,28,4
 6201              	.LVL471:
 6202              	.LBE5524:
 6203              	.LBE5523:
 6204              	.LBE5522:
 6205              		.loc 1 524 0
 6206 0044 7F9FF000 		cmpw 7,31,30
 6207 0048 419E0034 		beq- 7,.L357
 6208              	.LVL472:
 6209              	.L385:
 6210              		.loc 1 526 0
 6211 004c 807F0010 		lwz 3,16(31)
 6212 0050 7FA4EB78 		mr 4,29
 6213 0054 81230000 		lwz 9,0(3)
 6214 0058 80090010 		lwz 0,16(9)
 6215 005c 7C0903A6 		mtctr 0
 6216              	.LEHB26:
 6217 0060 4E800421 		bctrl
 6218              	.LEHE26:
 6219              	.LVL473:
 6220              	.LBB5525:
 6221              	.LBB5526:
 6222              		.loc 13 269 0
 6223 0064 7FE3FB78 		mr 3,31
 6224 0068 48000001 		bl _ZSt18_Rb_tree_incrementPKSt18_Rb_tree_node_base
 6225              	.LBE5526:
 6226              	.LBE5525:
 6227              		.loc 1 524 0
 6228 006c 7F9E1800 		cmpw 7,30,3
 6229              	.LBB5528:
 6230              	.LBB5527:
 6231              		.loc 13 269 0
 6232 0070 7C7F1B78 		mr 31,3
 6233              	.LVL474:
 6234              	.LBE5527:
 6235              	.LBE5528:
 6236              		.loc 1 524 0
 6237 0074 409EFFD8 		bne+ 7,.L385
 6238 0078 83FD0010 		lwz 31,16(29)
 6239              	.LVL475:
 6240              	.L357:
 6241              	.LBB5529:
 6242              	.LBB5530:
 6243              	.LBB5531:
 6244              	.LBB5532:
 6245              	.LBB5533:
 6246              	.LBB5534:
 6247              	.LBB5535:
 6248              		.loc 13 665 0
 6249 007c 3B5C0004 		addi 26,28,4
 6250              	.LBE5535:
 6251              	.LBE5534:
 6252              		.loc 13 1500 0
 6253 0080 7F9ED000 		cmpw 7,30,26
 6254 0084 419E00A0 		beq- 7,.L359
 6255              	.LVL476:
 6256              		.loc 13 1503 0
 6257 0088 7F9EF800 		cmpw 7,30,31
 6258 008c 40BE000C 		bne+ 7,.L387
 6259 0090 48000038 		b .L360
 6260              	.LVL477:
 6261              	.L382:
 6262              		.loc 13 277 0
 6263 0094 7F7FDB78 		mr 31,27
 6264              	.LVL478:
 6265              	.L387:
 6266              	.LBB5536:
 6267              	.LBB5537:
 6268 0098 7FE3FB78 		mr 3,31
 6269 009c 48000001 		bl _ZSt18_Rb_tree_incrementPKSt18_Rb_tree_node_base
 6270              	.LBE5537:
 6271              	.LBE5536:
 6272              	.LBB5539:
 6273              	.LBB5540:
 6274              	.LBB5541:
 6275              		.loc 13 1489 0
 6276 00a0 7F44D378 		mr 4,26
 6277              	.LBE5541:
 6278              	.LBE5540:
 6279              	.LBE5539:
 6280              	.LBB5550:
 6281              	.LBB5538:
 6282              		.loc 13 277 0
 6283 00a4 7C7B1B78 		mr 27,3
 6284              	.LVL479:
 6285              	.LBE5538:
 6286              	.LBE5550:
 6287              	.LBB5551:
 6288              	.LBB5548:
 6289              	.LBB5546:
 6290              		.loc 13 1489 0
 6291 00a8 7FE3FB78 		mr 3,31
 6292              	.LVL480:
 6293 00ac 48000001 		bl _ZSt28_Rb_tree_rebalance_for_erasePSt18_Rb_tree_node_baseRS_
 6294              	.LBB5542:
 6295              	.LBB5543:
 6296              	.LBB5544:
 6297              	.LBB5545:
 6298              		.loc 8 98 0
 6299 00b0 48000001 		bl _ZdlPv
 6300              	.LBE5545:
 6301              	.LBE5544:
 6302              	.LBE5543:
 6303              	.LBE5542:
 6304              	.LBE5546:
 6305              	.LBE5548:
 6306              	.LBE5551:
 6307              		.loc 13 1503 0
 6308 00b4 7F9ED800 		cmpw 7,30,27
 6309              	.LBB5552:
 6310              	.LBB5549:
 6311              	.LBB5547:
 6312              		.loc 13 1491 0
 6313 00b8 813C0014 		lwz 9,20(28)
 6314 00bc 3809FFFF 		addi 0,9,-1
 6315 00c0 901C0014 		stw 0,20(28)
 6316              	.LBE5547:
 6317              	.LBE5549:
 6318              	.LBE5552:
 6319              		.loc 13 1503 0
 6320 00c4 409EFFD0 		bne+ 7,.L382
 6321              	.LVL481:
 6322              	.L360:
 6323              	.LBE5533:
 6324              	.LBE5532:
 6325              	.LBE5531:
 6326              	.LBE5530:
 6327              	.LBE5529:
 6328              	.LBB5561:
 6329              	.LBB5562:
 6330              	.LBB5563:
 6331              		.loc 1 343 0
 6332 00c8 813D0000 		lwz 9,0(29)
 6333 00cc 7FA3EB78 		mr 3,29
 6334 00d0 8009000C 		lwz 0,12(9)
 6335 00d4 7C0903A6 		mtctr 0
 6336              	.LEHB27:
 6337 00d8 4E800421 		bctrl
 6338              	.LEHE27:
 6339              	.LVL482:
 6340              	.LBE5563:
 6341              	.LBE5562:
 6342              	.LBE5561:
 6343              	.LBE5518:
 6344              	.LBE5517:
 6345              	.LBB5570:
 6346              	.LBB5571:
 6347              	.LBB5572:
 6348              	.LBB5573:
 6349              	.LBB5574:
 6350              		.loc 13 639 0
 6351 00dc 809D000C 		lwz 4,12(29)
 6352 00e0 7F83E378 		mr 3,28
 6353 00e4 48000001 		bl _ZNSt8_Rb_treeIPN7sigslot12_signal_baseINS0_15single_threadedEEES4_St9_IdentityIS4_ESt4lessIS4_
 6354              	.LVL483:
 6355              	.LBE5574:
 6356              	.LBE5573:
 6357              	.LBE5572:
 6358              	.LBE5571:
 6359              	.LBE5570:
 6360              	.LBB5575:
 6361              	.LBB5576:
 6362              	.LBB5577:
 6363              		.loc 1 105 0
 6364 00e8 3D200000 		lis 9,_ZTVN7sigslot15single_threadedE+8@ha
 6365 00ec 38090008 		la 0,_ZTVN7sigslot15single_threadedE+8@l(9)
 6366              	.LBE5577:
 6367              	.LBE5576:
 6368              	.LBE5575:
 6369              	.LBE5593:
 6370              	.LBE5597:
 6371              	.LBE5601:
 6372              		.loc 1 516 0
 6373 00f0 7FA3EB78 		mr 3,29
 6374              	.LBB5602:
 6375              	.LBB5598:
 6376              	.LBB5594:
 6377              	.LBB5580:
 6378              	.LBB5579:
 6379              	.LBB5578:
 6380              		.loc 1 105 0
 6381 00f4 901D0000 		stw 0,0(29)
 6382              	.LBE5578:
 6383              	.LBE5579:
 6384              	.LBE5580:
 6385              	.LBE5594:
 6386              	.LBE5598:
 6387              	.LBE5602:
 6388              		.loc 1 516 0
 6389 00f8 48000001 		bl _ZdlPv
 6390 00fc 80010024 		lwz 0,36(1)
 6391 0100 83410008 		lwz 26,8(1)
 6392 0104 7C0803A6 		mtlr 0
 6393 0108 8361000C 		lwz 27,12(1)
 6394 010c 83810010 		lwz 28,16(1)
 6395              	.LVL484:
 6396 0110 83A10014 		lwz 29,20(1)
 6397              	.LVL485:
 6398 0114 83C10018 		lwz 30,24(1)
 6399              	.LVL486:
 6400 0118 83E1001C 		lwz 31,28(1)
 6401 011c 38210020 		addi 1,1,32
 6402              		.cfi_remember_state
 6403              	.LCFI86:
 6404              		.cfi_def_cfa_offset 0
 6405              		.cfi_restore 31
 6406              		.cfi_restore 30
 6407              		.cfi_restore 29
 6408              		.cfi_restore 28
 6409              		.cfi_restore 27
 6410              		.cfi_restore 26
 6411 0120 4E800020 		blr
 6412              	.LVL487:
 6413              	.L359:
 6414              	.LCFI87:
 6415              		.cfi_restore_state
 6416              	.LBB5603:
 6417              	.LBB5599:
 6418              	.LBB5595:
 6419              	.LBB5581:
 6420              	.LBB5568:
 6421              	.LBB5564:
 6422              	.LBB5560:
 6423              	.LBB5559:
 6424              	.LBB5558:
 6425              	.LBB5557:
 6426              	.LBB5553:
 6427              	.LBB5554:
 6428              	.LBB5555:
 6429              	.LBB5556:
 6430              		.loc 13 809 0
 6431 0124 809D000C 		lwz 4,12(29)
 6432 0128 7F83E378 		mr 3,28
 6433 012c 48000001 		bl _ZNSt8_Rb_treeIPN7sigslot12_signal_baseINS0_15single_threadedEEES4_St9_IdentityIS4_ESt4lessIS4_
 6434              	.LVL488:
 6435              		.loc 13 811 0
 6436 0130 38000000 		li 0,0
 6437              		.loc 13 810 0
 6438 0134 93DD0010 		stw 30,16(29)
 6439              	.LVL489:
 6440              		.loc 13 811 0
 6441 0138 901D000C 		stw 0,12(29)
 6442              	.LVL490:
 6443              		.loc 13 812 0
 6444 013c 93DD0014 		stw 30,20(29)
 6445              		.loc 13 813 0
 6446 0140 901D0018 		stw 0,24(29)
 6447 0144 4BFFFF84 		b .L360
 6448              	.LVL491:
 6449              	.L383:
 6450 0148 7C7F1B78 		mr 31,3
 6451              	.L367:
 6452              	.LVL492:
 6453              	.LBE5556:
 6454              	.LBE5555:
 6455              	.LBE5554:
 6456              	.LBE5553:
 6457              	.LBE5557:
 6458              	.LBE5558:
 6459              	.LBE5559:
 6460              	.LBE5560:
 6461              	.LBE5564:
 6462              	.LBE5568:
 6463              	.LBE5581:
 6464              	.LBB5582:
 6465              	.LBB5583:
 6466              	.LBB5584:
 6467              	.LBB5585:
 6468              	.LBB5586:
 6469              	.LBB5587:
 6470              		.loc 13 639 0
 6471 014c 809D000C 		lwz 4,12(29)
 6472 0150 7F83E378 		mr 3,28
 6473 0154 48000001 		bl _ZNSt8_Rb_treeIPN7sigslot12_signal_baseINS0_15single_threadedEEES4_St9_IdentityIS4_ESt4lessIS4_
 6474              	.LVL493:
 6475              	.LBE5587:
 6476              	.LBE5586:
 6477              	.LBE5585:
 6478              	.LBE5584:
 6479              	.LBE5583:
 6480              	.LBE5582:
 6481              	.LBB5588:
 6482              	.LBB5589:
 6483              	.LBB5590:
 6484              		.loc 1 105 0
 6485 0158 3D200000 		lis 9,_ZTVN7sigslot15single_threadedE+8@ha
 6486 015c 38090008 		la 0,_ZTVN7sigslot15single_threadedE+8@l(9)
 6487 0160 7FE3FB78 		mr 3,31
 6488 0164 901D0000 		stw 0,0(29)
 6489              	.LEHB28:
 6490 0168 48000001 		bl _Unwind_Resume
 6491              	.LEHE28:
 6492              	.LVL494:
 6493              	.L384:
 6494              	.LBE5590:
 6495              	.LBE5589:
 6496              	.LBE5588:
 6497              	.LBB5591:
 6498              	.LBB5569:
 6499              	.LBB5565:
 6500              	.LBB5566:
 6501              	.LBB5567:
 6502              		.loc 1 343 0
 6503 016c 813D0000 		lwz 9,0(29)
 6504 0170 7C7F1B78 		mr 31,3
 6505              	.LVL495:
 6506 0174 7FA3EB78 		mr 3,29
 6507 0178 8009000C 		lwz 0,12(9)
 6508 017c 7C0903A6 		mtctr 0
 6509 0180 4E800421 		bctrl
 6510 0184 4BFFFFC8 		b .L367
 6511              	.LBE5567:
 6512              	.LBE5566:
 6513              	.LBE5565:
 6514              	.LBE5569:
 6515              	.LBE5591:
 6516              	.LBE5595:
 6517              	.LBE5599:
 6518              	.LBE5603:
 6519              		.cfi_endproc
 6520              	.LFE1627:
 6521              		.section	.gcc_except_table
 6522              	.LLSDA1627:
 6523 009c FF       		.byte	0xff
 6524 009d FF       		.byte	0xff
 6525 009e 01       		.byte	0x1
 6526 009f 15       		.uleb128 .LLSDACSE1627-.LLSDACSB1627
 6527              	.LLSDACSB1627:
 6528 00a0 38       		.uleb128 .LEHB25-.LFB1627
 6529 00a1 04       		.uleb128 .LEHE25-.LEHB25
 6530 00a2 C802     		.uleb128 .L383-.LFB1627
 6531 00a4 00       		.uleb128 0
 6532 00a5 60       		.uleb128 .LEHB26-.LFB1627
 6533 00a6 04       		.uleb128 .LEHE26-.LEHB26
 6534 00a7 EC02     		.uleb128 .L384-.LFB1627
 6535 00a9 00       		.uleb128 0
 6536 00aa D801     		.uleb128 .LEHB27-.LFB1627
 6537 00ac 04       		.uleb128 .LEHE27-.LEHB27
 6538 00ad C802     		.uleb128 .L383-.LFB1627
 6539 00af 00       		.uleb128 0
 6540 00b0 E802     		.uleb128 .LEHB28-.LFB1627
 6541 00b2 04       		.uleb128 .LEHE28-.LEHB28
 6542 00b3 00       		.uleb128 0
 6543 00b4 00       		.uleb128 0
 6544              	.LLSDACSE1627:
 6545              		.section	.text._ZN7sigslot9has_slotsINS_15single_threadedEED0Ev,"axG",@progbits,_ZN7sigslot9has_sl
 6546              		.size	_ZN7sigslot9has_slotsINS_15single_threadedEED0Ev, .-_ZN7sigslot9has_slotsINS_15single_thread
 6547              		.section	.text._ZNSt6vectorIP8GuiImageSaIS1_EE14_M_fill_insertEN9__gnu_cxx17__normal_iteratorIPS1_
 6548              		.align 2
 6549              		.weak	_ZNSt6vectorIP8GuiImageSaIS1_EE14_M_fill_insertEN9__gnu_cxx17__normal_iteratorIPS1_S3_EEjRKS
 6550              		.type	_ZNSt6vectorIP8GuiImageSaIS1_EE14_M_fill_insertEN9__gnu_cxx17__normal_iteratorIPS1_S3_EEjRKS
 6551              	_ZNSt6vectorIP8GuiImageSaIS1_EE14_M_fill_insertEN9__gnu_cxx17__normal_iteratorIPS1_S3_EEjRKS1_:
 6552              	.LFB1938:
 6553              		.loc 10 377 0
 6554              		.cfi_startproc
 6555              	.LVL496:
 6556 0000 9421FFD8 		stwu 1,-40(1)
 6557              	.LCFI88:
 6558              		.cfi_def_cfa_offset 40
 6559 0004 7C0802A6 		mflr 0
 6560 0008 93C10020 		stw 30,32(1)
 6561              	.LBB5712:
 6562              		.loc 10 380 0
 6563 000c 7CBE2B79 		mr. 30,5
 6564              		.cfi_offset 30, -8
 6565              		.cfi_register 65, 0
 6566              	.LBE5712:
 6567              		.loc 10 377 0
 6568 0010 9001002C 		stw 0,44(1)
 6569 0014 93A1001C 		stw 29,28(1)
 6570 0018 93E10024 		stw 31,36(1)
 6571 001c 7C7F1B78 		mr 31,3
 6572              		.cfi_offset 31, -4
 6573              		.cfi_offset 29, -12
 6574              		.cfi_offset 65, 4
 6575 0020 93410010 		stw 26,16(1)
 6576 0024 93610014 		stw 27,20(1)
 6577 0028 93810018 		stw 28,24(1)
 6578              		.loc 10 377 0
 6579 002c 83A40000 		lwz 29,0(4)
 6580              	.LBB5937:
 6581              		.loc 10 380 0
 6582 0030 41820088 		beq- 0,.L389
 6583              		.cfi_offset 28, -16
 6584              		.cfi_offset 27, -20
 6585              		.cfi_offset 26, -24
 6586              	.LBB5713:
 6587              		.loc 10 382 0
 6588 0034 83630004 		lwz 27,4(3)
 6589 0038 80030008 		lwz 0,8(3)
 6590 003c 7C1B0050 		subf 0,27,0
 6591 0040 7C001670 		srawi 0,0,2
 6592 0044 7F9E0040 		cmplw 7,30,0
 6593 0048 419D0098 		bgt- 7,.L391
 6594              	.LBB5714:
 6595              	.LBB5715:
 6596              	.LBB5716:
 6597              		.loc 12 892 0
 6598 004c 7C1DD850 		subf 0,29,27
 6599              	.LBE5716:
 6600              	.LBE5715:
 6601              		.loc 10 385 0
 6602 0050 83860000 		lwz 28,0(6)
 6603              	.LVL497:
 6604              	.LBB5718:
 6605              	.LBB5717:
 6606              		.loc 12 892 0
 6607 0054 7C001670 		srawi 0,0,2
 6608              	.LVL498:
 6609              	.LBE5717:
 6610              	.LBE5718:
 6611              		.loc 10 388 0
 6612 0058 7F9E0040 		cmplw 7,30,0
 6613 005c 419C01B8 		blt- 7,.L419
 6614              	.LVL499:
 6615              	.LBB5719:
 6616              	.LBB5720:
 6617              	.LBB5721:
 6618              	.LBB5722:
 6619              	.LBB5723:
 6620              	.LBB5724:
 6621              	.LBB5725:
 6622              	.LBB5726:
 6623              		.loc 11 743 0
 6624 0060 7FC0F051 		subf. 30,0,30
 6625              		.loc 10 382 0
 6626 0064 7F69DB78 		mr 9,27
 6627              		.loc 11 743 0
 6628 0068 41820018 		beq- 0,.L396
 6629              	.LBE5726:
 6630              	.LBE5725:
 6631              	.LBE5724:
 6632              	.LBE5723:
 6633              	.LBE5722:
 6634              	.LBE5721:
 6635              	.LBE5720:
 6636              	.LBE5719:
 6637              	.LBB5734:
 6638              	.LBB5735:
 6639              	.LBB5736:
 6640              	.LBB5737:
 6641              	.LBB5738:
 6642              	.LBB5739:
 6643              	.LBB5740:
 6644              	.LBB5741:
 6645              	.LBB5742:
 6646              	.LBB5743:
 6647              	.LBB5744:
 6648              		.loc 10 377 0
 6649 006c 7FC903A6 		mtctr 30
 6650              	.LBE5744:
 6651              	.LBE5743:
 6652              	.LBE5742:
 6653              	.LBE5741:
 6654              	.LBE5740:
 6655              	.LBE5739:
 6656              	.LBE5738:
 6657              	.LBE5737:
 6658              	.LBE5736:
 6659              	.LBE5735:
 6660              	.LBE5734:
 6661              	.LBB5755:
 6662              	.LBB5733:
 6663              	.LBB5732:
 6664              	.LBB5731:
 6665              	.LBB5730:
 6666              	.LBB5729:
 6667              	.LBB5728:
 6668              	.LBB5727:
 6669 0070 393BFFFC 		addi 9,27,-4
 6670              	.LVL500:
 6671              	.L397:
 6672              		.loc 11 745 0
 6673 0074 97890004 		stwu 28,4(9)
 6674              		.loc 11 743 0
 6675 0078 4200FFFC 		bdnz .L397
 6676 007c 813F0004 		lwz 9,4(31)
 6677              	.L396:
 6678              	.LBE5727:
 6679              	.LBE5728:
 6680              	.LBE5729:
 6681              	.LBE5730:
 6682              	.LBE5731:
 6683              	.LBE5732:
 6684              	.LBE5733:
 6685              	.LBE5755:
 6686              	.LBB5756:
 6687              	.LBB5757:
 6688              	.LBB5758:
 6689              	.LBB5759:
 6690              	.LBB5760:
 6691              	.LBB5761:
 6692              	.LBB5762:
 6693              	.LBB5763:
 6694              	.LBB5764:
 6695              	.LBB5765:
 6696              	.LBB5766:
 6697              		.loc 11 365 0
 6698 0080 2F800000 		cmpwi 7,0,0
 6699              	.LBE5766:
 6700              	.LBE5765:
 6701              	.LBE5764:
 6702              	.LBE5763:
 6703              	.LBE5762:
 6704              	.LBE5761:
 6705              	.LBE5760:
 6706              	.LBE5759:
 6707              	.LBE5758:
 6708              	.LBE5757:
 6709              	.LBE5756:
 6710              		.loc 10 406 0
 6711 0084 57DE103A 		slwi 30,30,2
 6712 0088 7C69F214 		add 3,9,30
 6713              	.LVL501:
 6714 008c 907F0004 		stw 3,4(31)
 6715              	.LVL502:
 6716              	.LBB5787:
 6717              	.LBB5785:
 6718              	.LBB5783:
 6719              	.LBB5781:
 6720              	.LBB5779:
 6721              	.LBB5777:
 6722              	.LBB5775:
 6723              	.LBB5773:
 6724              	.LBB5771:
 6725              	.LBB5769:
 6726              	.LBB5767:
 6727              		.loc 11 365 0
 6728 0090 409E016C 		bne- 7,.L398
 6729 0094 3BC00000 		li 30,0
 6730              	.LVL503:
 6731              	.L399:
 6732              	.LBE5767:
 6733              	.LBE5769:
 6734              	.LBE5771:
 6735              	.LBE5773:
 6736              	.LBE5775:
 6737              	.LBE5777:
 6738              	.LBE5779:
 6739              	.LBE5781:
 6740              	.LBE5783:
 6741              	.LBE5785:
 6742              	.LBE5787:
 6743              	.LBB5788:
 6744              	.LBB5789:
 6745              	.LBB5790:
 6746              		.loc 11 686 0
 6747 0098 7F9BE800 		cmpw 7,27,29
 6748              	.LBE5790:
 6749              	.LBE5789:
 6750              	.LBE5788:
 6751              		.loc 10 410 0
 6752 009c 7FC3F214 		add 30,3,30
 6753 00a0 93DF0004 		stw 30,4(31)
 6754              	.LVL504:
 6755              	.LBB5793:
 6756              	.LBB5792:
 6757              	.LBB5791:
 6758              		.loc 11 686 0
 6759 00a4 419E0014 		beq- 7,.L389
 6760              	.LVL505:
 6761              	.L400:
 6762              		.loc 11 687 0
 6763 00a8 939D0000 		stw 28,0(29)
 6764 00ac 3BBD0004 		addi 29,29,4
 6765              		.loc 11 686 0
 6766 00b0 7F9BE800 		cmpw 7,27,29
 6767 00b4 409EFFF4 		bne+ 7,.L400
 6768              	.LVL506:
 6769              	.L389:
 6770              	.LBE5791:
 6771              	.LBE5792:
 6772              	.LBE5793:
 6773              	.LBE5714:
 6774              	.LBE5713:
 6775              	.LBE5937:
 6776              		.loc 10 464 0
 6777 00b8 8001002C 		lwz 0,44(1)
 6778 00bc 83410010 		lwz 26,16(1)
 6779 00c0 7C0803A6 		mtlr 0
 6780 00c4 83610014 		lwz 27,20(1)
 6781 00c8 83810018 		lwz 28,24(1)
 6782 00cc 83A1001C 		lwz 29,28(1)
 6783 00d0 83C10020 		lwz 30,32(1)
 6784 00d4 83E10024 		lwz 31,36(1)
 6785              	.LVL507:
 6786 00d8 38210028 		addi 1,1,40
 6787              		.cfi_remember_state
 6788              	.LCFI89:
 6789              		.cfi_def_cfa_offset 0
 6790              		.cfi_restore 31
 6791              		.cfi_restore 30
 6792              		.cfi_restore 29
 6793              		.cfi_restore 28
 6794              		.cfi_restore 27
 6795              		.cfi_restore 26
 6796 00dc 4E800020 		blr
 6797              	.LVL508:
 6798              	.L391:
 6799              	.LCFI90:
 6800              		.cfi_restore_state
 6801              	.LBB5938:
 6802              	.LBB5932:
 6803              	.LBB5817:
 6804              	.LBB5818:
 6805              	.LBB5819:
 6806              	.LBB5820:
 6807              	.LBB5821:
 6808              		.loc 6 571 0
 6809 00e0 80030000 		lwz 0,0(3)
 6810              	.LBE5821:
 6811              	.LBE5820:
 6812              		.loc 6 1241 0
 6813 00e4 3D203FFF 		lis 9,0x3fff
 6814 00e8 6129FFFF 		ori 9,9,65535
 6815              	.LBB5823:
 6816              	.LBB5822:
 6817              		.loc 6 571 0
 6818 00ec 7F60D850 		subf 27,0,27
 6819 00f0 7F7B1670 		srawi 27,27,2
 6820              	.LBE5822:
 6821              	.LBE5823:
 6822              		.loc 6 1241 0
 6823 00f4 7D3B4850 		subf 9,27,9
 6824 00f8 7F9E4840 		cmplw 7,30,9
 6825 00fc 419D01D8 		bgt- 7,.L420
 6826              	.LVL509:
 6827              		.loc 6 1244 0
 6828 0100 7F9BF040 		cmplw 7,27,30
 6829 0104 7F69DB78 		mr 9,27
 6830 0108 409C0008 		bge- 7,.L402
 6831 010c 7FC9F378 		mr 9,30
 6832              	.L402:
 6833 0110 7D29DA14 		add 9,9,27
 6834              	.LVL510:
 6835              		.loc 6 1245 0
 6836 0114 7F9B4840 		cmplw 7,27,9
 6837 0118 409D018C 		ble- 7,.L421
 6838              	.L403:
 6839              	.LVL511:
 6840              	.LBE5819:
 6841              	.LBE5818:
 6842              	.LBB5826:
 6843              	.LBB5827:
 6844              		.loc 12 892 0
 6845 011c 7C00E850 		subf 0,0,29
 6846              	.LBE5827:
 6847              	.LBE5826:
 6848              		.loc 10 418 0
 6849 0120 3B40FFFC 		li 26,-4
 6850              	.LBB5830:
 6851              	.LBB5828:
 6852              		.loc 12 892 0
 6853 0124 7C1B1670 		srawi 27,0,2
 6854              	.LVL512:
 6855              	.L409:
 6856              	.LBE5828:
 6857              	.LBE5830:
 6858              	.LBB5831:
 6859              	.LBB5832:
 6860              	.LBB5833:
 6861              	.LBB5834:
 6862              		.loc 8 92 0
 6863 0128 7F43D378 		mr 3,26
 6864              	.LVL513:
 6865 012c 90C10008 		stw 6,8(1)
 6866 0130 48000001 		bl _Znwj
 6867              	.LVL514:
 6868 0134 80C10008 		lwz 6,8(1)
 6869 0138 7C7C1B78 		mr 28,3
 6870              	.L404:
 6871              	.LVL515:
 6872              	.LBE5834:
 6873              	.LBE5833:
 6874              	.LBE5832:
 6875              	.LBE5831:
 6876              		.loc 10 424 0
 6877 013c 5769103A 		slwi 9,27,2
 6878              	.LBB5843:
 6879              	.LBB5839:
 6880              	.LBB5837:
 6881              	.LBB5835:
 6882              		.loc 5 368 0
 6883 0140 80060000 		lwz 0,0(6)
 6884              	.LVL516:
 6885              	.LBE5835:
 6886              	.LBE5837:
 6887              	.LBE5839:
 6888              	.LBE5843:
 6889              		.loc 10 424 0
 6890 0144 7D3C4A14 		add 9,28,9
 6891              	.LBB5844:
 6892              	.LBB5840:
 6893              		.loc 10 377 0
 6894 0148 7FC903A6 		mtctr 30
 6895              	.LBB5838:
 6896              	.LBB5836:
 6897 014c 3929FFFC 		addi 9,9,-4
 6898              	.LVL517:
 6899              	.L405:
 6900              	.LBE5836:
 6901              	.LBE5838:
 6902              	.LBE5840:
 6903              	.LBE5844:
 6904              	.LBB5845:
 6905              	.LBB5846:
 6906              	.LBB5847:
 6907              	.LBB5848:
 6908              	.LBB5849:
 6909              	.LBB5850:
 6910              	.LBB5851:
 6911              	.LBB5852:
 6912              		.loc 11 745 0
 6913 0150 94090004 		stwu 0,4(9)
 6914              		.loc 11 743 0
 6915 0154 4200FFFC 		bdnz .L405
 6916              	.LVL518:
 6917              	.LBE5852:
 6918              	.LBE5851:
 6919              	.LBE5850:
 6920              	.LBE5849:
 6921              	.LBE5848:
 6922              	.LBE5847:
 6923              	.LBE5846:
 6924              	.LBE5845:
 6925              		.loc 10 429 0
 6926 0158 809F0000 		lwz 4,0(31)
 6927              	.LVL519:
 6928              	.LBB5853:
 6929              	.LBB5854:
 6930              	.LBB5855:
 6931              	.LBB5856:
 6932              	.LBB5857:
 6933              	.LBB5858:
 6934              	.LBB5859:
 6935              	.LBB5860:
 6936              	.LBB5861:
 6937              	.LBB5862:
 6938              	.LBB5863:
 6939              		.loc 11 365 0
 6940 015c 3B600000 		li 27,0
 6941              	.LVL520:
 6942              		.loc 11 364 0
 6943 0160 7C04E850 		subf 0,4,29
 6944              	.LVL521:
 6945              		.loc 11 365 0
 6946 0164 7C001671 		srawi. 0,0,2
 6947              	.LVL522:
 6948 0168 41A20014 		beq+ 0,.L406
 6949              		.loc 11 366 0
 6950 016c 541B103A 		slwi 27,0,2
 6951 0170 7F83E378 		mr 3,28
 6952 0174 7F65DB78 		mr 5,27
 6953 0178 48000001 		bl memmove
 6954              	.LVL523:
 6955              	.L406:
 6956              	.LBE5863:
 6957              	.LBE5862:
 6958              	.LBE5861:
 6959              	.LBE5860:
 6960              	.LBE5859:
 6961              	.LBE5858:
 6962              	.LBE5857:
 6963              	.LBE5856:
 6964              	.LBE5855:
 6965              	.LBE5854:
 6966              	.LBE5853:
 6967              	.LBB5874:
 6968              	.LBB5875:
 6969              	.LBB5876:
 6970              	.LBB5877:
 6971              	.LBB5878:
 6972              	.LBB5879:
 6973              	.LBB5880:
 6974              	.LBB5881:
 6975              	.LBB5882:
 6976              	.LBB5883:
 6977              	.LBB5884:
 6978              		.loc 11 364 0
 6979 017c 801F0004 		lwz 0,4(31)
 6980              	.LBE5884:
 6981              	.LBE5883:
 6982              	.LBE5882:
 6983              	.LBE5881:
 6984              	.LBE5880:
 6985              	.LBE5879:
 6986              	.LBE5878:
 6987              	.LBE5877:
 6988              	.LBE5876:
 6989              	.LBE5875:
 6990              	.LBE5874:
 6991              	.LBB5915:
 6992              	.LBB5873:
 6993              	.LBB5872:
 6994              	.LBB5871:
