	.file	"FreeTypeGX.cpp"
	.section	".text"
.Ltext0:
	.align 2
	.type	_ZNSt8_Rb_treeIsSt4pairIKs15ftgxDataOffset_ESt10_Select1stIS3_ESt4lessIsESaIS3_EE16_M_insert_uniqueERKS3_.constprop.116, @function
_ZNSt8_Rb_treeIsSt4pairIKs15ftgxDataOffset_ESt10_Select1stIS3_ESt4lessIsESaIS3_EE16_M_insert_uniqueERKS3_.constprop.116:
.LFB1060:
	.file 1 "d:\\devkitpro\\devkitppc\\bin\\../lib/gcc/powerpc-eabi/4.6.3/../../../../powerpc-eabi/include/c++/4.6.3/bits/stl_tree.h"
	.loc 1 1264 0
	.cfi_startproc
.LVL0:
	mflr 0
	stwu 1,-32(1)
.LCFI0:
	.cfi_def_cfa_offset 32
	.cfi_register 65, 0
	stw 30,24(1)
	stw 0,36(1)
	stw 27,12(1)
	mr 27,4
	.cfi_offset 27, -20
	.cfi_offset 65, 4
	.cfi_offset 30, -8
.LBB1953:
.LBB1954:
.LBB1955:
	.file 2 "d:/Projects/SaveGameManager/savegame-manager-gx/trunk/source/TextOperations/FreeTypeGX.cpp"
	.loc 2 608 0
	lwz 30,8(3)
.LVL1:
.LBE1955:
.LBE1954:
.LBE1953:
	.loc 1 1264 0
	stw 28,16(1)
.LBB1992:
.LBB1972:
.LBB1968:
	.loc 1 1272 0
	addi 28,3,4
	.cfi_offset 28, -16
.LVL2:
.LBE1968:
.LBE1972:
	.loc 1 1274 0
	cmpwi 7,30,0
.LBE1992:
	.loc 1 1264 0
	stw 31,28(1)
	stw 26,8(1)
	mr 31,3
	.cfi_offset 26, -24
	.cfi_offset 31, -4
	stw 29,20(1)
.LBB1993:
	.loc 1 1274 0
	beq- 7,.L16
	.cfi_offset 29, -12
.LVL3:
	lha 11,0(4)
	b .L5
.LVL4:
.L23:
	.loc 2 608 0
	lwz 0,8(30)
.LVL5:
	.loc 1 1274 0
	cmpwi 6,0,0
	beq- 6,.L22
.LVL6:
.L17:
	mr 30,0
.LVL7:
.L5:
	.loc 2 608 0
	lha 0,16(30)
	li 9,1
	.loc 1 1278 0
	cmpw 7,0,11
	bgt- 7,.L23
	.loc 2 608 0
	lwz 0,12(30)
	li 9,0
.LVL8:
	.loc 1 1274 0
	cmpwi 6,0,0
	bne+ 6,.L17
.LVL9:
.L22:
	.loc 1 1281 0
	cmpwi 6,9,0
	mr 29,30
	bne- 6,.L2
.LVL10:
	.loc 1 1289 0
	blt- 7,.L24
.LVL11:
.L12:
.LBB1973:
.LBB1969:
	.loc 1 1292 0
	li 4,0
	li 0,0
	mr 3,30
	rlwimi 4,0,24,0,7
.LVL12:
.L11:
.LBE1969:
.LBE1973:
.LBE1993:
	.loc 1 1293 0
	lwz 0,36(1)
	lwz 26,8(1)
	mtlr 0
	lwz 27,12(1)
.LVL13:
	lwz 28,16(1)
	lwz 29,20(1)
	lwz 30,24(1)
	lwz 31,28(1)
.LVL14:
	addi 1,1,32
	.cfi_remember_state
.LCFI1:
	.cfi_def_cfa_offset 0
	.cfi_restore 31
	.cfi_restore 30
	.cfi_restore 29
	.cfi_restore 28
	.cfi_restore 27
	.cfi_restore 26
	blr
.LVL15:
.L16:
.LCFI2:
	.cfi_restore_state
.LBB1994:
	.loc 1 1272 0
	mr 30,28
.LVL16:
.L2:
	.loc 2 608 0
	lwz 0,12(31)
.LVL17:
	.loc 1 1283 0
	cmpw 7,0,30
	beq- 7,.L25
.LVL18:
.LBB1974:
.LBB1975:
	.loc 1 203 0
	mr 3,30
.LVL19:
	mr 29,30
	bl _ZSt18_Rb_tree_decrementPSt18_Rb_tree_node_base
.LVL20:
	lha 11,0(27)
	lha 0,16(3)
	mr 30,3
.LVL21:
	cmpw 7,0,11
.LBE1975:
.LBE1974:
	.loc 1 1289 0
	bge+ 7,.L12
.LVL22:
.L24:
.LBB1976:
.LBB1970:
	.loc 1 969 0
	cmpw 7,28,29
	li 26,1
	beq- 7,.L13
.LVL23:
	.loc 1 1264 0
	lha 0,16(29)
	cmpw 7,0,11
	mfcr 26
	rlwinm 26,26,30,1
.LVL24:
.L13:
.LBB1956:
.LBB1957:
.LBB1958:
.LBB1959:
.LBB1960:
	.file 3 "d:\\devkitpro\\devkitppc\\bin\\../lib/gcc/powerpc-eabi/4.6.3/../../../../powerpc-eabi/include/c++/4.6.3/ext/new_allocator.h"
	.loc 3 92 0
	li 3,28
	bl _Znwj
.LBE1960:
.LBE1959:
.LBE1958:
.LBB1963:
.LBB1964:
	.loc 3 108 0
	cmpwi 7,3,-16
.LBE1964:
.LBE1963:
.LBB1966:
.LBB1962:
.LBB1961:
	.loc 3 92 0
	mr 30,3
.LVL25:
.LBE1961:
.LBE1962:
.LBE1966:
.LBB1967:
.LBB1965:
	.loc 3 108 0
	beq- 7,.L15
	lwz 11,0(27)
	lwz 9,4(27)
	lhz 0,8(27)
	stw 11,16(3)
	stw 9,20(3)
	sth 0,24(3)
.L15:
.LVL26:
.LBE1965:
.LBE1967:
.LBE1957:
.LBE1956:
	.loc 1 973 0
	mr 3,26
.LVL27:
	mr 4,30
	mr 5,29
	mr 6,28
	bl _ZSt29_Rb_tree_insert_and_rebalancebPSt18_Rb_tree_node_baseS0_RS_
	.loc 1 976 0
	lwz 9,20(31)
	.loc 1 1291 0
	li 4,0
	mr 3,30
	.loc 1 976 0
	addi 0,9,1
.LBE1970:
.LBE1976:
.LBE1994:
	.loc 1 1293 0
	lwz 26,8(1)
.LVL28:
.LBB1995:
.LBB1977:
.LBB1971:
	.loc 1 976 0
	stw 0,20(31)
.LVL29:
	.loc 1 1291 0
	li 0,1
	rlwimi 4,0,24,0,7
.LBE1971:
.LBE1977:
.LBE1995:
	.loc 1 1293 0
	lwz 0,36(1)
	lwz 27,12(1)
.LVL30:
	mtlr 0
	lwz 28,16(1)
	lwz 29,20(1)
.LVL31:
	lwz 30,24(1)
.LVL32:
	lwz 31,28(1)
.LVL33:
	addi 1,1,32
	.cfi_remember_state
	.cfi_restore 26
	.cfi_restore 27
	.cfi_restore 28
	.cfi_restore 29
	.cfi_restore 30
	.cfi_restore 31
.LCFI3:
	.cfi_def_cfa_offset 0
	blr
.LVL34:
.L25:
.LCFI4:
	.cfi_restore_state
.LBB1996:
.LBB1978:
.LBB1979:
	.loc 1 969 0
	cmpw 7,28,30
	li 26,1
	beq- 7,.L8
.LVL35:
	.loc 1 1264 0
	lha 9,0(27)
	lha 0,16(30)
.LVL36:
	cmpw 7,9,0
	mfcr 26
	rlwinm 26,26,29,1
.LVL37:
.L8:
.LBB1980:
.LBB1981:
.LBB1982:
.LBB1983:
.LBB1984:
	.loc 3 92 0
	li 3,28
.LVL38:
	bl _Znwj
.LVL39:
.LBE1984:
.LBE1983:
.LBE1982:
.LBB1987:
.LBB1988:
	.loc 3 108 0
	cmpwi 7,3,-16
.LBE1988:
.LBE1987:
.LBB1990:
.LBB1986:
.LBB1985:
	.loc 3 92 0
	mr 29,3
.LVL40:
.LBE1985:
.LBE1986:
.LBE1990:
.LBB1991:
.LBB1989:
	.loc 3 108 0
	beq- 7,.L10
	lwz 11,0(27)
	lwz 9,4(27)
	lhz 0,8(27)
	stw 11,16(3)
	stw 9,20(3)
	sth 0,24(3)
.L10:
.LVL41:
.LBE1989:
.LBE1991:
.LBE1981:
.LBE1980:
	.loc 1 973 0
	mr 3,26
.LVL42:
	mr 4,29
	mr 5,30
	mr 6,28
	bl _ZSt29_Rb_tree_insert_and_rebalancebPSt18_Rb_tree_node_baseS0_RS_
	.loc 1 976 0
	lwz 9,20(31)
	.loc 1 1285 0
	li 4,0
	mr 3,29
	.loc 1 976 0
	addi 0,9,1
	stw 0,20(31)
.LVL43:
	.loc 1 1285 0
	li 0,1
	rlwimi 4,0,24,0,7
	b .L11
.LBE1979:
.LBE1978:
.LBE1996:
	.cfi_endproc
.LFE1060:
	.size	_ZNSt8_Rb_treeIsSt4pairIKs15ftgxDataOffset_ESt10_Select1stIS3_ESt4lessIsESaIS3_EE16_M_insert_uniqueERKS3_.constprop.116, .-_ZNSt8_Rb_treeIsSt4pairIKs15ftgxDataOffset_ESt10_Select1stIS3_ESt4lessIsESaIS3_EE16_M_insert_uniqueERKS3_.constprop.116
	.align 2
	.type	_ZNSt8_Rb_treeIwSt4pairIKw13ftgxCharData_ESt10_Select1stIS3_ESt4lessIwESaIS3_EE16_M_insert_uniqueERKS3_.constprop.119, @function
_ZNSt8_Rb_treeIwSt4pairIKw13ftgxCharData_ESt10_Select1stIS3_ESt4lessIwESaIS3_EE16_M_insert_uniqueERKS3_.constprop.119:
.LFB1057:
	.loc 1 1264 0
	.cfi_startproc
.LVL44:
	mflr 0
	stwu 1,-32(1)
.LCFI5:
	.cfi_def_cfa_offset 32
	.cfi_register 65, 0
	stw 30,24(1)
	stw 0,36(1)
	stw 27,12(1)
	mr 27,4
	.cfi_offset 27, -20
	.cfi_offset 65, 4
	.cfi_offset 30, -8
.LBB2038:
.LBB2039:
.LBB2040:
	.loc 2 608 0
	lwz 30,8(3)
.LVL45:
.LBE2040:
.LBE2039:
.LBE2038:
	.loc 1 1264 0
	stw 28,16(1)
.LBB2077:
.LBB2057:
.LBB2053:
	.loc 1 1272 0
	addi 28,3,4
	.cfi_offset 28, -16
.LVL46:
.LBE2053:
.LBE2057:
	.loc 1 1274 0
	cmpwi 7,30,0
.LBE2077:
	.loc 1 1264 0
	stw 31,28(1)
	stw 26,8(1)
	mr 31,3
	.cfi_offset 26, -24
	.cfi_offset 31, -4
	stw 29,20(1)
.LBB2078:
	.loc 1 1274 0
	beq- 7,.L41
	.cfi_offset 29, -12
.LVL47:
	lwz 11,0(4)
	b .L30
.LVL48:
.L47:
	.loc 2 608 0
	lwz 0,8(30)
.LVL49:
	.loc 1 1274 0
	cmpwi 6,0,0
	beq- 6,.L46
.LVL50:
.L42:
	mr 30,0
.LVL51:
.L30:
	.loc 2 608 0
	lwz 0,16(30)
	li 9,1
	.loc 1 1278 0
	cmpw 7,0,11
	bgt- 7,.L47
.LVL52:
	.loc 2 608 0
	lwz 0,12(30)
	li 9,0
.LVL53:
	.loc 1 1274 0
	cmpwi 6,0,0
	bne+ 6,.L42
.LVL54:
.L46:
	.loc 1 1281 0
	cmpwi 6,9,0
	mr 29,30
	bne- 6,.L27
.LVL55:
	.loc 1 1289 0
	blt- 7,.L48
.LVL56:
.L37:
.LBB2058:
.LBB2054:
	.loc 1 1292 0
	li 4,0
	li 0,0
	mr 3,30
	rlwimi 4,0,24,0,7
.LVL57:
.L36:
.LBE2054:
.LBE2058:
.LBE2078:
	.loc 1 1293 0
	lwz 0,36(1)
	lwz 26,8(1)
	mtlr 0
	lwz 27,12(1)
.LVL58:
	lwz 28,16(1)
	lwz 29,20(1)
	lwz 30,24(1)
	lwz 31,28(1)
.LVL59:
	addi 1,1,32
	.cfi_remember_state
.LCFI6:
	.cfi_def_cfa_offset 0
	.cfi_restore 31
	.cfi_restore 30
	.cfi_restore 29
	.cfi_restore 28
	.cfi_restore 27
	.cfi_restore 26
	blr
.LVL60:
.L41:
.LCFI7:
	.cfi_restore_state
.LBB2079:
	.loc 1 1272 0
	mr 30,28
.LVL61:
.L27:
	.loc 2 608 0
	lwz 0,12(31)
.LVL62:
	.loc 1 1283 0
	cmpw 7,0,30
	beq- 7,.L49
.LVL63:
.LBB2059:
.LBB2060:
	.loc 1 203 0
	mr 3,30
.LVL64:
	mr 29,30
	bl _ZSt18_Rb_tree_decrementPSt18_Rb_tree_node_base
.LVL65:
	lwz 11,0(27)
	lwz 0,16(3)
	mr 30,3
.LVL66:
	cmpw 7,0,11
.LBE2060:
.LBE2059:
	.loc 1 1289 0
	bge+ 7,.L37
.LVL67:
.L48:
.LBB2061:
.LBB2055:
	.loc 1 969 0
	cmpw 7,28,29
	li 26,1
	beq- 7,.L38
.LVL68:
	.loc 1 1264 0
	lwz 0,16(29)
	cmpw 7,0,11
	mfcr 26
	rlwinm 26,26,30,1
.LVL69:
.L38:
.LBB2041:
.LBB2042:
.LBB2043:
.LBB2044:
.LBB2045:
	.loc 3 92 0
	li 3,44
	bl _Znwj
.LBE2045:
.LBE2044:
.LBE2043:
.LBB2048:
.LBB2049:
	.loc 3 108 0
	cmpwi 7,3,-16
.LBE2049:
.LBE2048:
.LBB2051:
.LBB2047:
.LBB2046:
	.loc 3 92 0
	mr 30,3
.LVL70:
.LBE2046:
.LBE2047:
.LBE2051:
.LBB2052:
.LBB2050:
	.loc 3 108 0
	beq- 7,.L40
	lwz 11,4(27)
	lwz 9,8(27)
	lwz 0,12(27)
	lwz 10,0(27)
	stw 11,20(3)
	stw 10,16(3)
	stw 9,24(3)
	stw 0,28(3)
	lwz 11,16(27)
	lwz 9,20(27)
	lwz 0,24(27)
	stw 11,32(3)
	stw 9,36(3)
	stw 0,40(3)
.L40:
.LBE2050:
.LBE2052:
.LBE2042:
.LBE2041:
	.loc 1 973 0
	mr 3,26
.LVL71:
	mr 4,30
	mr 5,29
	mr 6,28
	bl _ZSt29_Rb_tree_insert_and_rebalancebPSt18_Rb_tree_node_baseS0_RS_
	.loc 1 976 0
	lwz 9,20(31)
	.loc 1 1291 0
	li 4,0
	mr 3,30
	.loc 1 976 0
	addi 0,9,1
.LBE2055:
.LBE2061:
.LBE2079:
	.loc 1 1293 0
	lwz 26,8(1)
.LVL72:
.LBB2080:
.LBB2062:
.LBB2056:
	.loc 1 976 0
	stw 0,20(31)
.LVL73:
	.loc 1 1291 0
	li 0,1
	rlwimi 4,0,24,0,7
.LBE2056:
.LBE2062:
.LBE2080:
	.loc 1 1293 0
	lwz 0,36(1)
	lwz 27,12(1)
.LVL74:
	mtlr 0
	lwz 28,16(1)
	lwz 29,20(1)
.LVL75:
	lwz 30,24(1)
.LVL76:
	lwz 31,28(1)
.LVL77:
	addi 1,1,32
	.cfi_remember_state
	.cfi_restore 26
	.cfi_restore 27
	.cfi_restore 28
	.cfi_restore 29
	.cfi_restore 30
	.cfi_restore 31
.LCFI8:
	.cfi_def_cfa_offset 0
	blr
.LVL78:
.L49:
.LCFI9:
	.cfi_restore_state
.LBB2081:
.LBB2063:
.LBB2064:
	.loc 1 969 0
	cmpw 7,28,30
	li 26,1
	beq- 7,.L33
.LVL79:
	.loc 1 1264 0
	lwz 9,0(27)
	lwz 0,16(30)
.LVL80:
	cmpw 7,9,0
	mfcr 26
	rlwinm 26,26,29,1
.LVL81:
.L33:
.LBB2065:
.LBB2066:
.LBB2067:
.LBB2068:
.LBB2069:
	.loc 3 92 0
	li 3,44
.LVL82:
	bl _Znwj
.LVL83:
.LBE2069:
.LBE2068:
.LBE2067:
.LBB2072:
.LBB2073:
	.loc 3 108 0
	cmpwi 7,3,-16
.LBE2073:
.LBE2072:
.LBB2075:
.LBB2071:
.LBB2070:
	.loc 3 92 0
	mr 29,3
.LVL84:
.LBE2070:
.LBE2071:
.LBE2075:
.LBB2076:
.LBB2074:
	.loc 3 108 0
	beq- 7,.L35
	lwz 11,4(27)
	lwz 9,8(27)
	lwz 0,12(27)
	lwz 10,0(27)
	stw 11,20(3)
	stw 10,16(3)
	stw 9,24(3)
	stw 0,28(3)
	lwz 11,16(27)
	lwz 9,20(27)
	lwz 0,24(27)
	stw 11,32(3)
	stw 9,36(3)
	stw 0,40(3)
.L35:
.LBE2074:
.LBE2076:
.LBE2066:
.LBE2065:
	.loc 1 973 0
	mr 3,26
.LVL85:
	mr 4,29
	mr 5,30
	mr 6,28
	bl _ZSt29_Rb_tree_insert_and_rebalancebPSt18_Rb_tree_node_baseS0_RS_
	.loc 1 976 0
	lwz 9,20(31)
	.loc 1 1285 0
	li 4,0
	mr 3,29
	.loc 1 976 0
	addi 0,9,1
	stw 0,20(31)
.LVL86:
	.loc 1 1285 0
	li 0,1
	rlwimi 4,0,24,0,7
	b .L36
.LBE2064:
.LBE2063:
.LBE2081:
	.cfi_endproc
.LFE1057:
	.size	_ZNSt8_Rb_treeIwSt4pairIKw13ftgxCharData_ESt10_Select1stIS3_ESt4lessIwESaIS3_EE16_M_insert_uniqueERKS3_.constprop.119, .-_ZNSt8_Rb_treeIwSt4pairIKw13ftgxCharData_ESt10_Select1stIS3_ESt4lessIwESaIS3_EE16_M_insert_uniqueERKS3_.constprop.119
	.align 2
	.type	_ZNSt8_Rb_treeIwSt4pairIKw13ftgxCharData_ESt10_Select1stIS3_ESt4lessIwESaIS3_EE17_M_insert_unique_ESt23_Rb_tree_const_iteratorIS3_ERKS3_.constprop.117, @function
_ZNSt8_Rb_treeIwSt4pairIKw13ftgxCharData_ESt10_Select1stIS3_ESt4lessIwESaIS3_EE17_M_insert_unique_ESt23_Rb_tree_const_iteratorIS3_ERKS3_.constprop.117:
.LFB1059:
	.loc 1 1325 0
	.cfi_startproc
.LVL87:
	mflr 0
	stwu 1,-40(1)
.LCFI10:
	.cfi_def_cfa_offset 40
	.cfi_register 65, 0
	stw 25,12(1)
	stw 0,44(1)
	stw 29,28(1)
	.loc 1 1333 0
	addi 29,3,4
	.cfi_offset 29, -12
	.cfi_offset 65, 4
	.cfi_offset 25, -28
	.loc 1 1325 0
	lwz 25,0(4)
.LVL88:
	stw 24,8(1)
	mr 24,5
	.cfi_offset 24, -32
.LBB2197:
	.loc 1 1333 0
	cmpw 7,25,29
.LBE2197:
	.loc 1 1325 0
	stw 31,36(1)
	stw 26,16(1)
	mr 31,3
	.cfi_offset 26, -24
	.cfi_offset 31, -4
	stw 27,20(1)
	stw 28,24(1)
	stw 30,32(1)
.LBB2343:
	.loc 1 1333 0
	beq- 7,.L78
	.cfi_offset 30, -8
	.cfi_offset 28, -16
	.cfi_offset 27, -20
.LVL89:
.LBB2198:
.LBB2199:
	.loc 2 608 0
	lwz 30,0(5)
	lwz 0,16(25)
.LBE2199:
.LBE2198:
.LBB2216:
	.loc 1 1342 0
	cmpw 7,30,0
	bge- 7,.L56
.LVL90:
.LBB2217:
	.loc 1 1347 0
	lwz 0,12(3)
	cmpw 7,25,0
	beq- 7,.L79
.LBB2218:
.LBB2219:
	.loc 1 284 0
	mr 3,25
.LVL91:
	bl _ZSt18_Rb_tree_decrementPKSt18_Rb_tree_node_base
.LVL92:
.LBE2219:
.LBE2218:
	.loc 1 1350 0
	lwz 0,16(3)
.LBB2221:
.LBB2220:
	.loc 1 284 0
	mr 28,3
.LVL93:
.LBE2220:
.LBE2221:
	.loc 1 1350 0
	cmpw 7,30,0
	ble- 7,.L52
	.loc 1 1353 0
	lwz 0,12(3)
.LBB2222:
.LBB2223:
.LBB2224:
.LBB2225:
.LBB2226:
.LBB2227:
.LBB2228:
	.loc 3 92 0
	li 3,44
.LVL94:
.LBE2228:
.LBE2227:
.LBE2226:
.LBE2225:
.LBE2224:
.LBE2223:
.LBE2222:
	.loc 1 1353 0
	cmpwi 7,0,0
	beq- 7,.L80
.LVL95:
.LBB2245:
.LBB2246:
.LBB2247:
.LBB2248:
.LBB2249:
.LBB2250:
.LBB2251:
	.loc 3 92 0
	bl _Znwj
.LBE2251:
.LBE2250:
.LBE2249:
.LBB2254:
.LBB2255:
	.loc 3 108 0
	cmpwi 7,3,-16
.LBE2255:
.LBE2254:
.LBB2257:
.LBB2253:
.LBB2252:
	.loc 3 92 0
	mr 30,3
.LVL96:
.LBE2252:
.LBE2253:
.LBE2257:
.LBB2258:
.LBB2256:
	.loc 3 108 0
	beq- 7,.L65
	lwz 11,4(24)
	lwz 9,8(24)
	lwz 0,12(24)
	lwz 10,0(24)
	stw 11,20(3)
	stw 10,16(3)
	stw 9,24(3)
	stw 0,28(3)
	lwz 11,16(24)
	lwz 9,20(24)
	lwz 0,24(24)
	stw 11,32(3)
	stw 9,36(3)
	stw 0,40(3)
.L65:
.LBE2256:
.LBE2258:
.LBE2248:
.LBE2247:
	.loc 1 973 0
	li 3,1
.LVL97:
	mr 4,30
	mr 5,25
.LVL98:
.L76:
	mr 6,29
	bl _ZSt29_Rb_tree_insert_and_rebalancebPSt18_Rb_tree_node_baseS0_RS_
	.loc 1 976 0
	lwz 9,20(31)
	mr 3,30
	addi 0,9,1
	stw 0,20(31)
.LVL99:
.L55:
.LBE2246:
.LBE2245:
.LBE2217:
.LBE2216:
.LBE2343:
	.loc 1 1388 0
	lwz 0,44(1)
	lwz 24,8(1)
.LVL100:
	mtlr 0
	lwz 25,12(1)
.LVL101:
	lwz 26,16(1)
	lwz 27,20(1)
	lwz 28,24(1)
	lwz 29,28(1)
	lwz 30,32(1)
	lwz 31,36(1)
.LVL102:
	addi 1,1,40
	.cfi_remember_state
.LCFI11:
	.cfi_def_cfa_offset 0
	.cfi_restore 31
	.cfi_restore 30
	.cfi_restore 29
	.cfi_restore 28
	.cfi_restore 27
	.cfi_restore 26
	.cfi_restore 25
	.cfi_restore 24
	blr
.LVL103:
.L56:
.LCFI12:
	.cfi_restore_state
.LBB2344:
.LBB2338:
.LBB2275:
	.loc 1 1364 0
	ble- 7,.L66
.LVL104:
.LBB2276:
	.loc 1 1369 0
	lwz 0,16(3)
	cmpw 7,25,0
	beq- 7,.L81
.LVL105:
.LBB2277:
.LBB2278:
	.loc 1 269 0
	mr 3,25
.LVL106:
	bl _ZSt18_Rb_tree_incrementPKSt18_Rb_tree_node_base
.LVL107:
.LBE2278:
.LBE2277:
	.loc 1 1372 0
	lwz 0,16(3)
.LBB2280:
.LBB2279:
	.loc 1 269 0
	mr 28,3
.LVL108:
.LBE2279:
.LBE2280:
	.loc 1 1372 0
	cmpw 7,30,0
	bge- 7,.L52
	.loc 1 1375 0
	lwz 0,12(25)
.LBB2281:
.LBB2282:
.LBB2283:
.LBB2284:
.LBB2285:
.LBB2286:
.LBB2287:
	.loc 3 92 0
	li 3,44
.LVL109:
.LBE2287:
.LBE2286:
.LBE2285:
.LBE2284:
.LBE2283:
.LBE2282:
.LBE2281:
	.loc 1 1375 0
	cmpwi 7,0,0
	beq- 7,.L82
.LVL110:
.LBB2301:
.LBB2302:
.LBB2303:
.LBB2304:
.LBB2305:
.LBB2306:
.LBB2307:
	.loc 3 92 0
	bl _Znwj
.LBE2307:
.LBE2306:
.LBE2305:
.LBB2310:
.LBB2311:
	.loc 3 108 0
	cmpwi 7,3,-16
.LBE2311:
.LBE2310:
.LBB2313:
.LBB2309:
.LBB2308:
	.loc 3 92 0
	mr 30,3
.LVL111:
.LBE2308:
.LBE2309:
.LBE2313:
.LBB2314:
.LBB2312:
	.loc 3 108 0
	beq- 7,.L75
	lwz 11,4(24)
	lwz 9,8(24)
	lwz 0,12(24)
	lwz 10,0(24)
	stw 11,20(3)
	stw 10,16(3)
	stw 9,24(3)
	stw 0,28(3)
	lwz 11,16(24)
	lwz 9,20(24)
	lwz 0,24(24)
	stw 11,32(3)
	stw 9,36(3)
	stw 0,40(3)
.L75:
.LBE2312:
.LBE2314:
.LBE2304:
.LBE2303:
	.loc 1 973 0
	li 3,1
.LVL112:
.L77:
	mr 4,30
	mr 5,28
	b .L76
.LVL113:
.L78:
.LBE2302:
.LBE2301:
.LBE2276:
.LBE2275:
.LBE2338:
	.loc 1 1335 0
	lwz 0,20(3)
	cmpwi 7,0,0
	beq- 7,.L52
.LVL114:
	lwz 30,16(3)
.LVL115:
	lwz 0,0(5)
	lwz 9,16(30)
	cmpw 7,9,0
	blt- 7,.L83
.LVL116:
.L52:
	.loc 1 1340 0
	mr 3,31
	mr 4,24
	bl _ZNSt8_Rb_treeIwSt4pairIKw13ftgxCharData_ESt10_Select1stIS3_ESt4lessIwESaIS3_EE16_M_insert_uniqueERKS3_.constprop.119
.LBE2344:
	.loc 1 1388 0
	lwz 0,44(1)
	lwz 24,8(1)
.LVL117:
	mtlr 0
	lwz 25,12(1)
.LVL118:
	lwz 26,16(1)
	lwz 27,20(1)
	lwz 28,24(1)
	lwz 29,28(1)
	lwz 30,32(1)
	lwz 31,36(1)
.LVL119:
	addi 1,1,40
	.cfi_remember_state
	.cfi_restore 24
	.cfi_restore 25
	.cfi_restore 26
	.cfi_restore 27
	.cfi_restore 28
	.cfi_restore 29
	.cfi_restore 30
	.cfi_restore 31
.LCFI13:
	.cfi_def_cfa_offset 0
	blr
.LVL120:
.L66:
.LCFI14:
	.cfi_restore_state
	lwz 0,44(1)
.LBB2345:
.LBB2339:
.LBB2333:
.LBB2330:
	.loc 1 1383 0
	mr 3,25
.LVL121:
.LBE2330:
.LBE2333:
.LBE2339:
.LBE2345:
	.loc 1 1388 0
	lwz 24,8(1)
	mtlr 0
	lwz 25,12(1)
.LVL122:
	lwz 26,16(1)
	lwz 27,20(1)
	lwz 28,24(1)
	lwz 29,28(1)
	lwz 30,32(1)
	lwz 31,36(1)
.LVL123:
	addi 1,1,40
	.cfi_remember_state
	.cfi_restore 24
	.cfi_restore 25
	.cfi_restore 26
	.cfi_restore 27
	.cfi_restore 28
	.cfi_restore 29
	.cfi_restore 30
	.cfi_restore 31
.LCFI15:
	.cfi_def_cfa_offset 0
	blr
.LVL124:
.L83:
.LCFI16:
	.cfi_restore_state
.LBB2346:
.LBB2340:
.LBB2214:
.LBB2200:
.LBB2201:
.LBB2202:
.LBB2203:
.LBB2204:
	.loc 3 92 0
	li 3,44
.LVL125:
	bl _Znwj
.LVL126:
.LBE2204:
.LBE2203:
.LBE2202:
.LBB2207:
.LBB2208:
	.loc 3 108 0
	cmpwi 7,3,-16
.LBE2208:
.LBE2207:
.LBB2210:
.LBB2206:
.LBB2205:
	.loc 3 92 0
	mr 29,3
.LBE2205:
.LBE2206:
.LBE2210:
.LBE2201:
.LBE2200:
.LBE2214:
.LBE2340:
	.loc 1 1325 0
	xor 3,30,25
	cntlzw 3,3
	srwi 3,3,5
.LVL127:
.LBB2341:
.LBB2215:
.LBB2213:
.LBB2212:
.LBB2211:
.LBB2209:
	.loc 3 108 0
	beq- 7,.L54
	lwz 11,4(24)
	lwz 9,8(24)
	lwz 0,12(24)
	lwz 10,0(24)
	stw 11,20(29)
	stw 10,16(29)
	stw 9,24(29)
	stw 0,28(29)
	lwz 11,16(24)
	lwz 9,20(24)
	lwz 0,24(24)
	stw 11,32(29)
	stw 9,36(29)
	stw 0,40(29)
.L54:
.LBE2209:
.LBE2211:
.LBE2212:
.LBE2213:
	.loc 1 973 0
	mr 4,29
	mr 5,30
	mr 6,25
	bl _ZSt29_Rb_tree_insert_and_rebalancebPSt18_Rb_tree_node_baseS0_RS_
	.loc 1 976 0
	lwz 9,20(31)
	mr 3,29
	addi 0,9,1
	stw 0,20(31)
	b .L55
.LVL128:
.L80:
.LBE2215:
.LBE2341:
.LBB2342:
.LBB2334:
.LBB2259:
.LBB2243:
.LBB2241:
.LBB2239:
.LBB2233:
.LBB2231:
.LBB2229:
	.loc 3 92 0
	bl _Znwj
.LBE2229:
.LBE2231:
.LBE2233:
.LBB2234:
.LBB2235:
	.loc 3 108 0
	cmpwi 7,3,-16
.LBE2235:
.LBE2234:
.LBB2237:
.LBB2232:
.LBB2230:
	.loc 3 92 0
	mr 30,3
.LBE2230:
.LBE2232:
.LBE2237:
.LBE2239:
.LBE2241:
.LBE2243:
.LBE2259:
	.loc 1 1325 0
	xor 3,29,28
	cntlzw 3,3
	srwi 3,3,5
.LVL129:
.LBB2260:
.LBB2244:
.LBB2242:
.LBB2240:
.LBB2238:
.LBB2236:
	.loc 3 108 0
	beq- 7,.L77
	lwz 11,4(24)
	lwz 9,8(24)
	lwz 0,12(24)
	lwz 10,0(24)
	stw 11,20(30)
	stw 10,16(30)
	stw 9,24(30)
	stw 0,28(30)
	lwz 11,16(24)
	lwz 9,20(24)
	lwz 0,24(24)
	stw 11,32(30)
	stw 9,36(30)
	stw 0,40(30)
	b .L77
.LVL130:
.L82:
.LBE2236:
.LBE2238:
.LBE2240:
.LBE2242:
.LBE2244:
.LBE2260:
.LBE2334:
.LBB2335:
.LBB2331:
.LBB2315:
.LBB2300:
.LBB2299:
.LBB2298:
.LBB2292:
.LBB2290:
.LBB2288:
	.loc 3 92 0
	bl _Znwj
.LBE2288:
.LBE2290:
.LBE2292:
.LBB2293:
.LBB2294:
	.loc 3 108 0
	cmpwi 7,3,-16
.LBE2294:
.LBE2293:
.LBB2296:
.LBB2291:
.LBB2289:
	.loc 3 92 0
	mr 28,3
.LVL131:
.LBE2289:
.LBE2291:
.LBE2296:
.LBB2297:
.LBB2295:
	.loc 3 108 0
	beq- 7,.L73
	lwz 11,4(24)
	lwz 9,8(24)
	lwz 0,12(24)
	lwz 10,0(24)
	stw 11,20(3)
	stw 10,16(3)
	stw 9,24(3)
	stw 0,28(3)
	lwz 11,16(24)
	lwz 9,20(24)
	lwz 0,24(24)
	stw 11,32(3)
	stw 9,36(3)
	stw 0,40(3)
.L73:
.LBE2295:
.LBE2297:
.LBE2298:
.LBE2299:
	.loc 1 973 0
	li 3,0
.LVL132:
	mr 4,28
	mr 5,25
	mr 6,29
	bl _ZSt29_Rb_tree_insert_and_rebalancebPSt18_Rb_tree_node_baseS0_RS_
	.loc 1 976 0
	lwz 9,20(31)
	mr 3,28
	addi 0,9,1
	stw 0,20(31)
	b .L55
.LVL133:
.L79:
.LBE2300:
.LBE2315:
.LBE2331:
.LBE2335:
.LBB2336:
.LBB2261:
.LBB2262:
.LBB2263:
.LBB2264:
.LBB2265:
.LBB2266:
.LBB2267:
	.loc 3 92 0
	li 3,44
	bl _Znwj
.LBE2267:
.LBE2266:
.LBE2265:
.LBB2270:
.LBB2271:
	.loc 3 108 0
	cmpwi 7,3,-16
.LBE2271:
.LBE2270:
.LBB2273:
.LBB2269:
.LBB2268:
	.loc 3 92 0
	mr 27,3
.LVL134:
.LBE2268:
.LBE2269:
.LBE2273:
.LBB2274:
.LBB2272:
	.loc 3 108 0
	beq- 7,.L59
	lwz 11,4(24)
	lwz 9,8(24)
	lwz 0,12(24)
	lwz 10,0(24)
	stw 11,20(3)
	stw 10,16(3)
	stw 9,24(3)
	stw 0,28(3)
	lwz 11,16(24)
	lwz 9,20(24)
	lwz 0,24(24)
	stw 11,32(3)
	stw 9,36(3)
	stw 0,40(3)
.L59:
.LBE2272:
.LBE2274:
.LBE2264:
.LBE2263:
	.loc 1 973 0
	li 3,1
.LVL135:
	mr 4,27
	mr 5,25
	mr 6,29
	bl _ZSt29_Rb_tree_insert_and_rebalancebPSt18_Rb_tree_node_baseS0_RS_
	.loc 1 976 0
	lwz 9,20(31)
	mr 3,27
	addi 0,9,1
	stw 0,20(31)
	b .L55
.LVL136:
.L81:
.LBE2262:
.LBE2261:
.LBE2336:
.LBB2337:
.LBB2332:
.LBB2316:
.LBB2317:
.LBB2318:
.LBB2319:
.LBB2320:
.LBB2321:
.LBB2322:
	.loc 3 92 0
	li 3,44
	bl _Znwj
.LBE2322:
.LBE2321:
.LBE2320:
.LBB2325:
.LBB2326:
	.loc 3 108 0
	cmpwi 7,3,-16
.LBE2326:
.LBE2325:
.LBB2328:
.LBB2324:
.LBB2323:
	.loc 3 92 0
	mr 26,3
.LVL137:
.LBE2323:
.LBE2324:
.LBE2328:
.LBB2329:
.LBB2327:
	.loc 3 108 0
	beq- 7,.L69
	lwz 11,4(24)
	lwz 9,8(24)
	lwz 0,12(24)
	lwz 10,0(24)
	stw 11,20(3)
	stw 10,16(3)
	stw 9,24(3)
	stw 0,28(3)
	lwz 11,16(24)
	lwz 9,20(24)
	lwz 0,24(24)
	stw 11,32(3)
	stw 9,36(3)
	stw 0,40(3)
.L69:
.LBE2327:
.LBE2329:
.LBE2319:
.LBE2318:
	.loc 1 973 0
	li 3,0
.LVL138:
	mr 4,26
	mr 5,25
	mr 6,29
	bl _ZSt29_Rb_tree_insert_and_rebalancebPSt18_Rb_tree_node_baseS0_RS_
	.loc 1 976 0
	lwz 9,20(31)
	mr 3,26
	addi 0,9,1
	stw 0,20(31)
	b .L55
.LBE2317:
.LBE2316:
.LBE2332:
.LBE2337:
.LBE2342:
.LBE2346:
	.cfi_endproc
.LFE1059:
	.size	_ZNSt8_Rb_treeIwSt4pairIKw13ftgxCharData_ESt10_Select1stIS3_ESt4lessIwESaIS3_EE17_M_insert_unique_ESt23_Rb_tree_const_iteratorIS3_ERKS3_.constprop.117, .-_ZNSt8_Rb_treeIwSt4pairIKw13ftgxCharData_ESt10_Select1stIS3_ESt4lessIwESaIS3_EE17_M_insert_unique_ESt23_Rb_tree_const_iteratorIS3_ERKS3_.constprop.117
	.align 2
	.type	_ZNSt8_Rb_treeIsSt4pairIKs15ftgxDataOffset_ESt10_Select1stIS3_ESt4lessIsESaIS3_EE17_M_insert_unique_ESt23_Rb_tree_const_iteratorIS3_ERKS3_.constprop.114, @function
_ZNSt8_Rb_treeIsSt4pairIKs15ftgxDataOffset_ESt10_Select1stIS3_ESt4lessIsESaIS3_EE17_M_insert_unique_ESt23_Rb_tree_const_iteratorIS3_ERKS3_.constprop.114:
.LFB1062:
	.loc 1 1325 0
	.cfi_startproc
.LVL139:
	mflr 0
	stwu 1,-40(1)
.LCFI17:
	.cfi_def_cfa_offset 40
	.cfi_register 65, 0
	stw 25,12(1)
	stw 0,44(1)
	stw 29,28(1)
	.loc 1 1333 0
	addi 29,3,4
	.cfi_offset 29, -12
	.cfi_offset 65, 4
	.cfi_offset 25, -28
	.loc 1 1325 0
	lwz 25,0(4)
.LVL140:
	stw 24,8(1)
	mr 24,5
	.cfi_offset 24, -32
.LBB2455:
	.loc 1 1333 0
	cmpw 7,25,29
.LBE2455:
	.loc 1 1325 0
	stw 31,36(1)
	stw 26,16(1)
	mr 31,3
	.cfi_offset 26, -24
	.cfi_offset 31, -4
	stw 27,20(1)
	stw 28,24(1)
	stw 30,32(1)
.LBB2601:
	.loc 1 1333 0
	beq- 7,.L112
	.cfi_offset 30, -8
	.cfi_offset 28, -16
	.cfi_offset 27, -20
.LVL141:
.LBB2456:
.LBB2457:
	.loc 2 608 0
	lha 30,0(5)
	lha 0,16(25)
.LBE2457:
.LBE2456:
.LBB2474:
	.loc 1 1342 0
	cmpw 7,30,0
	bge- 7,.L90
.LVL142:
.LBB2475:
	.loc 1 1347 0
	lwz 0,12(3)
	cmpw 7,25,0
	beq- 7,.L113
.LBB2476:
.LBB2477:
	.loc 1 284 0
	mr 3,25
.LVL143:
	bl _ZSt18_Rb_tree_decrementPKSt18_Rb_tree_node_base
.LVL144:
.LBE2477:
.LBE2476:
	.loc 1 1350 0
	lha 0,16(3)
.LBB2479:
.LBB2478:
	.loc 1 284 0
	mr 28,3
.LVL145:
.LBE2478:
.LBE2479:
	.loc 1 1350 0
	cmpw 7,0,30
	bge- 7,.L86
	.loc 1 1353 0
	lwz 0,12(3)
.LBB2480:
.LBB2481:
.LBB2482:
.LBB2483:
.LBB2484:
.LBB2485:
.LBB2486:
	.loc 3 92 0
	li 3,28
.LVL146:
.LBE2486:
.LBE2485:
.LBE2484:
.LBE2483:
.LBE2482:
.LBE2481:
.LBE2480:
	.loc 1 1353 0
	cmpwi 7,0,0
	beq- 7,.L114
.LVL147:
.LBB2503:
.LBB2504:
.LBB2505:
.LBB2506:
.LBB2507:
.LBB2508:
.LBB2509:
	.loc 3 92 0
	bl _Znwj
.LBE2509:
.LBE2508:
.LBE2507:
.LBB2512:
.LBB2513:
	.loc 3 108 0
	cmpwi 7,3,-16
.LBE2513:
.LBE2512:
.LBB2515:
.LBB2511:
.LBB2510:
	.loc 3 92 0
	mr 30,3
.LVL148:
.LBE2510:
.LBE2511:
.LBE2515:
.LBB2516:
.LBB2514:
	.loc 3 108 0
	beq- 7,.L99
	lwz 11,0(24)
	lwz 9,4(24)
	lhz 0,8(24)
	stw 11,16(3)
	stw 9,20(3)
	sth 0,24(3)
.L99:
.LVL149:
.LBE2514:
.LBE2516:
.LBE2506:
.LBE2505:
	.loc 1 973 0
	li 3,1
.LVL150:
	mr 4,30
	mr 5,25
.LVL151:
.L110:
	mr 6,29
	bl _ZSt29_Rb_tree_insert_and_rebalancebPSt18_Rb_tree_node_baseS0_RS_
.LVL152:
	.loc 1 976 0
	lwz 9,20(31)
	mr 3,30
	addi 0,9,1
	stw 0,20(31)
.LVL153:
.L89:
.LBE2504:
.LBE2503:
.LBE2475:
.LBE2474:
.LBE2601:
	.loc 1 1388 0
	lwz 0,44(1)
	lwz 24,8(1)
.LVL154:
	mtlr 0
	lwz 25,12(1)
.LVL155:
	lwz 26,16(1)
	lwz 27,20(1)
	lwz 28,24(1)
	lwz 29,28(1)
	lwz 30,32(1)
	lwz 31,36(1)
.LVL156:
	addi 1,1,40
	.cfi_remember_state
.LCFI18:
	.cfi_def_cfa_offset 0
	.cfi_restore 31
	.cfi_restore 30
	.cfi_restore 29
	.cfi_restore 28
	.cfi_restore 27
	.cfi_restore 26
	.cfi_restore 25
	.cfi_restore 24
	blr
.LVL157:
.L90:
.LCFI19:
	.cfi_restore_state
.LBB2602:
.LBB2596:
.LBB2533:
	.loc 1 1364 0
	ble- 7,.L100
.LVL158:
.LBB2534:
	.loc 1 1369 0
	lwz 0,16(3)
	cmpw 7,25,0
	beq- 7,.L115
.LVL159:
.LBB2535:
.LBB2536:
	.loc 1 269 0
	mr 3,25
.LVL160:
	bl _ZSt18_Rb_tree_incrementPKSt18_Rb_tree_node_base
.LVL161:
.LBE2536:
.LBE2535:
	.loc 1 1372 0
	lha 0,16(3)
.LBB2538:
.LBB2537:
	.loc 1 269 0
	mr 28,3
.LVL162:
.LBE2537:
.LBE2538:
	.loc 1 1372 0
	cmpw 7,0,30
	ble- 7,.L86
	.loc 1 1375 0
	lwz 0,12(25)
.LBB2539:
.LBB2540:
.LBB2541:
.LBB2542:
.LBB2543:
.LBB2544:
.LBB2545:
	.loc 3 92 0
	li 3,28
.LVL163:
.LBE2545:
.LBE2544:
.LBE2543:
.LBE2542:
.LBE2541:
.LBE2540:
.LBE2539:
	.loc 1 1375 0
	cmpwi 7,0,0
	beq- 7,.L116
.LVL164:
.LBB2559:
.LBB2560:
.LBB2561:
.LBB2562:
.LBB2563:
.LBB2564:
.LBB2565:
	.loc 3 92 0
	bl _Znwj
.LBE2565:
.LBE2564:
.LBE2563:
.LBB2568:
.LBB2569:
	.loc 3 108 0
	cmpwi 7,3,-16
.LBE2569:
.LBE2568:
.LBB2571:
.LBB2567:
.LBB2566:
	.loc 3 92 0
	mr 30,3
.LVL165:
.LBE2566:
.LBE2567:
.LBE2571:
.LBB2572:
.LBB2570:
	.loc 3 108 0
	beq- 7,.L109
	lwz 11,0(24)
	lwz 9,4(24)
	lhz 0,8(24)
	stw 11,16(3)
	stw 9,20(3)
	sth 0,24(3)
.L109:
.LVL166:
.LBE2570:
.LBE2572:
.LBE2562:
.LBE2561:
	.loc 1 973 0
	li 3,1
.LVL167:
.L111:
	mr 4,30
	mr 5,28
	b .L110
.LVL168:
.L112:
.LBE2560:
.LBE2559:
.LBE2534:
.LBE2533:
.LBE2596:
	.loc 1 1335 0
	lwz 0,20(3)
	cmpwi 7,0,0
	beq- 7,.L86
.LVL169:
	lwz 30,16(3)
.LVL170:
	lha 0,0(5)
	lha 9,16(30)
	cmpw 7,9,0
	blt- 7,.L117
.LVL171:
.L86:
	.loc 1 1340 0
	mr 3,31
	mr 4,24
	bl _ZNSt8_Rb_treeIsSt4pairIKs15ftgxDataOffset_ESt10_Select1stIS3_ESt4lessIsESaIS3_EE16_M_insert_uniqueERKS3_.constprop.116
.LBE2602:
	.loc 1 1388 0
	lwz 0,44(1)
	lwz 24,8(1)
.LVL172:
	mtlr 0
	lwz 25,12(1)
.LVL173:
	lwz 26,16(1)
	lwz 27,20(1)
	lwz 28,24(1)
	lwz 29,28(1)
	lwz 30,32(1)
	lwz 31,36(1)
.LVL174:
	addi 1,1,40
	.cfi_remember_state
	.cfi_restore 24
	.cfi_restore 25
	.cfi_restore 26
	.cfi_restore 27
	.cfi_restore 28
	.cfi_restore 29
	.cfi_restore 30
	.cfi_restore 31
.LCFI20:
	.cfi_def_cfa_offset 0
	blr
.LVL175:
.L100:
.LCFI21:
	.cfi_restore_state
	lwz 0,44(1)
.LBB2603:
.LBB2597:
.LBB2591:
.LBB2588:
	.loc 1 1383 0
	mr 3,25
.LVL176:
.LBE2588:
.LBE2591:
.LBE2597:
.LBE2603:
	.loc 1 1388 0
	lwz 24,8(1)
	mtlr 0
	lwz 25,12(1)
.LVL177:
	lwz 26,16(1)
	lwz 27,20(1)
	lwz 28,24(1)
	lwz 29,28(1)
	lwz 30,32(1)
	lwz 31,36(1)
.LVL178:
	addi 1,1,40
	.cfi_remember_state
	.cfi_restore 24
	.cfi_restore 25
	.cfi_restore 26
	.cfi_restore 27
	.cfi_restore 28
	.cfi_restore 29
	.cfi_restore 30
	.cfi_restore 31
.LCFI22:
	.cfi_def_cfa_offset 0
	blr
.LVL179:
.L117:
.LCFI23:
	.cfi_restore_state
.LBB2604:
.LBB2598:
.LBB2472:
.LBB2458:
.LBB2459:
.LBB2460:
.LBB2461:
.LBB2462:
	.loc 3 92 0
	li 3,28
.LVL180:
	bl _Znwj
.LVL181:
.LBE2462:
.LBE2461:
.LBE2460:
.LBB2465:
.LBB2466:
	.loc 3 108 0
	cmpwi 7,3,-16
.LBE2466:
.LBE2465:
.LBB2468:
.LBB2464:
.LBB2463:
	.loc 3 92 0
	mr 29,3
.LBE2463:
.LBE2464:
.LBE2468:
.LBE2459:
.LBE2458:
.LBE2472:
.LBE2598:
	.loc 1 1325 0
	xor 3,30,25
	cntlzw 3,3
	srwi 3,3,5
.LVL182:
.LBB2599:
.LBB2473:
.LBB2471:
.LBB2470:
.LBB2469:
.LBB2467:
	.loc 3 108 0
	beq- 7,.L88
	lwz 11,0(24)
	lwz 9,4(24)
	lhz 0,8(24)
	stw 11,16(29)
	stw 9,20(29)
	sth 0,24(29)
.L88:
.LVL183:
.LBE2467:
.LBE2469:
.LBE2470:
.LBE2471:
	.loc 1 973 0
	mr 4,29
	mr 5,30
	mr 6,25
	bl _ZSt29_Rb_tree_insert_and_rebalancebPSt18_Rb_tree_node_baseS0_RS_
	.loc 1 976 0
	lwz 9,20(31)
	mr 3,29
	addi 0,9,1
	stw 0,20(31)
.LVL184:
	b .L89
.LVL185:
.L114:
.LBE2473:
.LBE2599:
.LBB2600:
.LBB2592:
.LBB2517:
.LBB2501:
.LBB2499:
.LBB2497:
.LBB2491:
.LBB2489:
.LBB2487:
	.loc 3 92 0
	bl _Znwj
.LBE2487:
.LBE2489:
.LBE2491:
.LBB2492:
.LBB2493:
	.loc 3 108 0
	cmpwi 7,3,-16
.LBE2493:
.LBE2492:
.LBB2495:
.LBB2490:
.LBB2488:
	.loc 3 92 0
	mr 30,3
.LBE2488:
.LBE2490:
.LBE2495:
.LBE2497:
.LBE2499:
.LBE2501:
.LBE2517:
	.loc 1 1325 0
	xor 3,29,28
	cntlzw 3,3
	srwi 3,3,5
.LVL186:
.LBB2518:
.LBB2502:
.LBB2500:
.LBB2498:
.LBB2496:
.LBB2494:
	.loc 3 108 0
	beq- 7,.L111
	lwz 11,0(24)
	lwz 9,4(24)
	lhz 0,8(24)
	stw 11,16(30)
	stw 9,20(30)
	sth 0,24(30)
.LVL187:
	b .L111
.LVL188:
.L116:
.LBE2494:
.LBE2496:
.LBE2498:
.LBE2500:
.LBE2502:
.LBE2518:
.LBE2592:
.LBB2593:
.LBB2589:
.LBB2573:
.LBB2558:
.LBB2557:
.LBB2556:
.LBB2550:
.LBB2548:
.LBB2546:
	.loc 3 92 0
	bl _Znwj
.LBE2546:
.LBE2548:
.LBE2550:
.LBB2551:
.LBB2552:
	.loc 3 108 0
	cmpwi 7,3,-16
.LBE2552:
.LBE2551:
.LBB2554:
.LBB2549:
.LBB2547:
	.loc 3 92 0
	mr 28,3
.LVL189:
.LBE2547:
.LBE2549:
.LBE2554:
.LBB2555:
.LBB2553:
	.loc 3 108 0
	beq- 7,.L107
	lwz 11,0(24)
	lwz 9,4(24)
	lhz 0,8(24)
	stw 11,16(3)
	stw 9,20(3)
	sth 0,24(3)
.L107:
.LVL190:
.LBE2553:
.LBE2555:
.LBE2556:
.LBE2557:
	.loc 1 973 0
	li 3,0
.LVL191:
	mr 4,28
	mr 5,25
	mr 6,29
	bl _ZSt29_Rb_tree_insert_and_rebalancebPSt18_Rb_tree_node_baseS0_RS_
	.loc 1 976 0
	lwz 9,20(31)
	mr 3,28
	addi 0,9,1
	stw 0,20(31)
.LVL192:
	b .L89
.LVL193:
.L113:
.LBE2558:
.LBE2573:
.LBE2589:
.LBE2593:
.LBB2594:
.LBB2519:
.LBB2520:
.LBB2521:
.LBB2522:
.LBB2523:
.LBB2524:
.LBB2525:
	.loc 3 92 0
	li 3,28
	bl _Znwj
.LBE2525:
.LBE2524:
.LBE2523:
.LBB2528:
.LBB2529:
	.loc 3 108 0
	cmpwi 7,3,-16
.LBE2529:
.LBE2528:
.LBB2531:
.LBB2527:
.LBB2526:
	.loc 3 92 0
	mr 27,3
.LVL194:
.LBE2526:
.LBE2527:
.LBE2531:
.LBB2532:
.LBB2530:
	.loc 3 108 0
	beq- 7,.L93
	lwz 11,0(24)
	lwz 9,4(24)
	lhz 0,8(24)
	stw 11,16(3)
	stw 9,20(3)
	sth 0,24(3)
.L93:
.LVL195:
.LBE2530:
.LBE2532:
.LBE2522:
.LBE2521:
	.loc 1 973 0
	li 3,1
.LVL196:
	mr 4,27
	mr 5,25
	mr 6,29
	bl _ZSt29_Rb_tree_insert_and_rebalancebPSt18_Rb_tree_node_baseS0_RS_
	.loc 1 976 0
	lwz 9,20(31)
	mr 3,27
	addi 0,9,1
	stw 0,20(31)
.LVL197:
	b .L89
.LVL198:
.L115:
.LBE2520:
.LBE2519:
.LBE2594:
.LBB2595:
.LBB2590:
.LBB2574:
.LBB2575:
.LBB2576:
.LBB2577:
.LBB2578:
.LBB2579:
.LBB2580:
	.loc 3 92 0
	li 3,28
	bl _Znwj
.LBE2580:
.LBE2579:
.LBE2578:
.LBB2583:
.LBB2584:
	.loc 3 108 0
	cmpwi 7,3,-16
.LBE2584:
.LBE2583:
.LBB2586:
.LBB2582:
.LBB2581:
	.loc 3 92 0
	mr 26,3
.LVL199:
.LBE2581:
.LBE2582:
.LBE2586:
.LBB2587:
.LBB2585:
	.loc 3 108 0
	beq- 7,.L103
	lwz 11,0(24)
	lwz 9,4(24)
	lhz 0,8(24)
	stw 11,16(3)
	stw 9,20(3)
	sth 0,24(3)
.L103:
.LVL200:
.LBE2585:
.LBE2587:
.LBE2577:
.LBE2576:
	.loc 1 973 0
	li 3,0
.LVL201:
	mr 4,26
	mr 5,25
	mr 6,29
	bl _ZSt29_Rb_tree_insert_and_rebalancebPSt18_Rb_tree_node_baseS0_RS_
	.loc 1 976 0
	lwz 9,20(31)
	mr 3,26
	addi 0,9,1
	stw 0,20(31)
.LVL202:
	b .L89
.LBE2575:
.LBE2574:
.LBE2590:
.LBE2595:
.LBE2600:
.LBE2604:
	.cfi_endproc
.LFE1062:
	.size	_ZNSt8_Rb_treeIsSt4pairIKs15ftgxDataOffset_ESt10_Select1stIS3_ESt4lessIsESaIS3_EE17_M_insert_unique_ESt23_Rb_tree_const_iteratorIS3_ERKS3_.constprop.114, .-_ZNSt8_Rb_treeIsSt4pairIKs15ftgxDataOffset_ESt10_Select1stIS3_ESt4lessIsESaIS3_EE17_M_insert_unique_ESt23_Rb_tree_const_iteratorIS3_ERKS3_.constprop.114
	.align 2
	.globl _Z14charToWideCharPKc
	.type	_Z14charToWideCharPKc, @function
_Z14charToWideCharPKc:
.LFB539:
	.loc 2 41 0
	.cfi_startproc
.LVL203:
	stwu 1,-16(1)
.LCFI24:
	.cfi_def_cfa_offset 16
	mflr 0
	stw 30,8(1)
.LBB2605:
	.loc 2 42 0
	mr. 30,3
	.cfi_offset 30, -8
	.cfi_register 65, 0
.LBE2605:
	.loc 2 41 0
	stw 31,12(1)
.LBB2606:
	.loc 2 42 0
	li 31,0
	.cfi_offset 31, -4
.LBE2606:
	.loc 2 41 0
	stw 0,20(1)
.LBB2607:
	.loc 2 42 0
	beq- 0,.L119
	.cfi_offset 65, 4
	.loc 2 44 0
	bl strlen
.LVL204:
	lis 4,_ZSt7nothrow@ha
	addi 3,3,1
	la 4,_ZSt7nothrow@l(4)
	slwi 3,3,2
	bl _ZnajRKSt9nothrow_t
.LVL205:
	.loc 2 45 0
	mr. 31,3
	beq- 0,.L119
	.loc 2 47 0
	mr 3,30
.LVL206:
	bl strlen
	mr 4,30
	mr 5,3
	mr 3,31
	bl mbstowcs
.LVL207:
	.loc 2 48 0
	cmpwi 0,3,0
	ble- 0,.L120
	.loc 2 50 0
	slwi 3,3,2
.LVL208:
	li 0,0
	stwx 0,31,3
.LVL209:
.L119:
.LBE2607:
	.loc 2 59 0
	lwz 0,20(1)
	mr 3,31
	lwz 30,8(1)
.LVL210:
	mtlr 0
	lwz 31,12(1)
	addi 1,1,16
	.cfi_remember_state
.LCFI25:
	.cfi_def_cfa_offset 0
	.cfi_restore 31
	.cfi_restore 30
	blr
.LVL211:
.L120:
.LCFI26:
	.cfi_restore_state
.LBB2608:
	.loc 2 40 0
	addi 30,30,-1
.LVL212:
	addi 9,31,-4
.LVL213:
.L121:
	.loc 2 55 0 discriminator 1
	lbzu 0,1(30)
	cmpwi 7,0,0
	stwu 0,4(9)
	bne+ 7,.L121
.LBE2608:
	.loc 2 59 0
	lwz 0,20(1)
	mr 3,31
.LVL214:
	lwz 30,8(1)
	mtlr 0
	lwz 31,12(1)
.LVL215:
	addi 1,1,16
	.cfi_restore 30
	.cfi_restore 31
.LCFI27:
	.cfi_def_cfa_offset 0
	blr
	.cfi_endproc
.LFE539:
	.size	_Z14charToWideCharPKc, .-_Z14charToWideCharPKc
	.align 2
	.globl _ZN10FreeTypeGX15setVertexFormatEh
	.type	_ZN10FreeTypeGX15setVertexFormatEh, @function
_ZN10FreeTypeGX15setVertexFormatEh:
.LFB552:
	.loc 2 103 0
	.cfi_startproc
.LVL216:
	mflr 0
	stwu 1,-16(1)
.LCFI28:
	.cfi_def_cfa_offset 16
	.cfi_register 65, 0
	.loc 2 105 0
	li 5,1
	li 6,3
	.loc 2 103 0
	stw 31,12(1)
	.loc 2 105 0
	li 7,0
	.loc 2 103 0
	stw 0,20(1)
	.loc 2 103 0
	mr 31,3
	.cfi_offset 65, 4
	.cfi_offset 31, -4
	.loc 2 104 0
	stb 4,11(3)
	.loc 2 105 0
	mr 3,4
.LVL217:
	li 4,9
.LVL218:
	bl GX_SetVtxAttrFmt
.LVL219:
	.loc 2 106 0
	lbz 3,11(31)
	li 4,13
	li 5,1
	li 6,4
	li 7,0
	bl GX_SetVtxAttrFmt
	.loc 2 107 0
	lbz 3,11(31)
	li 4,11
	li 5,1
	li 6,5
	li 7,0
	bl GX_SetVtxAttrFmt
	.loc 2 108 0
	lwz 0,20(1)
	lwz 31,12(1)
.LVL220:
	mtlr 0
	addi 1,1,16
.LCFI29:
	.cfi_def_cfa_offset 0
	.cfi_restore 31
	blr
	.cfi_endproc
.LFE552:
	.size	_ZN10FreeTypeGX15setVertexFormatEh, .-_ZN10FreeTypeGX15setVertexFormatEh
	.align 2
	.globl _ZN10FreeTypeGX13loadGlyphDataEP10FT_Bitmap_P13ftgxCharData_
	.type	_ZN10FreeTypeGX13loadGlyphDataEP10FT_Bitmap_P13ftgxCharData_, @function
_ZN10FreeTypeGX13loadGlyphDataEP10FT_Bitmap_P13ftgxCharData_:
.LFB556:
	.loc 2 237 0
	.cfi_startproc
.LVL221:
	mflr 0
	stwu 1,-48(1)
.LCFI30:
	.cfi_def_cfa_offset 48
	.cfi_register 65, 0
	stw 28,32(1)
	stw 0,52(1)
	stw 29,36(1)
.LBB2609:
	.loc 2 238 0
	lhz 9,8(5)
	lhz 0,10(5)
	.cfi_offset 29, -12
	.cfi_offset 65, 4
	.cfi_offset 28, -16
.LBE2609:
	.loc 2 237 0
	stw 30,40(1)
	mr 30,5
	.cfi_offset 30, -8
.LVL222:
.LBB2610:
	.loc 2 238 0
	mullw 0,9,0
.LBE2610:
	.loc 2 237 0
	stw 31,44(1)
	stw 23,12(1)
	mr 31,4
	.cfi_offset 23, -36
	.cfi_offset 31, -4
	stw 24,16(1)
	stw 25,20(1)
.LBB2611:
	.loc 2 238 0
	srawi 28,0,1
.LBE2611:
	.loc 2 237 0
	stw 26,24(1)
.LBB2612:
	.loc 2 240 0
	mr 3,28
.LVL223:
.LBE2612:
	.loc 2 237 0
	stw 27,28(1)
.LBB2613:
	.loc 2 240 0
	.cfi_offset 27, -20
	.cfi_offset 26, -24
	.cfi_offset 25, -28
	.cfi_offset 24, -32
	bl MEM2_alloc
.LVL224:
	.loc 2 241 0
	li 4,0
	mr 5,28
	.loc 2 240 0
	mr 29,3
.LVL225:
	.loc 2 241 0
	bl memset
.LVL226:
	.loc 2 247 0
	lwz 10,0(31)
	.loc 2 243 0
	lwz 7,12(31)
.LVL227:
	.loc 2 247 0
	cmpwi 7,10,0
	ble- 7,.L126
	lwz 0,4(31)
	.loc 2 244 0
	mr 11,29
	.loc 2 247 0
	li 23,0
.LVL228:
.L127:
	.loc 2 249 0 discriminator 1
	cmpwi 7,0,0
	li 8,0
	ble- 7,.L137
.LVL229:
.L141:
	.loc 2 236 0 discriminator 1
	li 3,8
	addi 4,8,2
	mtctr 3
	addi 5,8,4
	addi 6,8,6
	addi 24,11,32
.LBE2613:
	mr 9,23
.LBB2614:
	addi 25,8,1
	addi 26,8,3
	addi 27,8,5
	addi 12,8,7
.LVL230:
.L136:
	.loc 2 255 0 discriminator 1
	cmpw 7,0,8
	ble- 7,.L128
	.loc 2 255 0 is_stmt 0
	cmpw 7,10,9
	ble- 7,.L128
.LVL231:
	.loc 2 258 0 is_stmt 1
	mullw 0,0,9
.LVL232:
	add 3,8,0
.LVL233:
	.loc 2 259 0
	lbzx 10,7,3
	rlwinm 10,10,0,24,27
	stb 10,0(11)
	.loc 2 261 0
	lwz 0,4(31)
	cmpw 7,0,25
	ble- 7,.L142
	.loc 2 262 0
	add 3,7,3
.LVL234:
	lbz 0,1(3)
	srawi 0,0,4
	or 10,0,10
	stb 10,0(11)
	lwz 0,4(31)
.L142:
	lwz 10,0(31)
.L128:
.LVL235:
	.loc 2 255 0
	cmpw 7,4,0
	bge- 7,.L130
	cmpw 7,10,9
	ble- 7,.L130
.LVL236:
	.loc 2 258 0
	mullw 0,9,0
.LVL237:
	add 3,0,4
.LVL238:
	.loc 2 259 0
	lbzx 10,7,3
	rlwinm 10,10,0,24,27
	stb 10,1(11)
	.loc 2 261 0
	lwz 0,4(31)
	cmpw 7,0,26
	ble- 7,.L143
	.loc 2 262 0
	add 3,7,3
.LVL239:
	lbz 0,1(3)
	srawi 0,0,4
	or 10,0,10
	stb 10,1(11)
	lwz 0,4(31)
.L143:
	lwz 10,0(31)
.L130:
.LVL240:
	.loc 2 255 0
	cmpw 7,0,5
	ble- 7,.L132
	cmpw 7,10,9
	ble- 7,.L132
.LVL241:
	.loc 2 258 0
	mullw 0,0,9
.LVL242:
	add 3,0,5
.LVL243:
	.loc 2 259 0
	lbzx 10,7,3
	rlwinm 10,10,0,24,27
	stb 10,2(11)
	.loc 2 261 0
	lwz 0,4(31)
	cmpw 7,0,27
	ble- 7,.L144
	.loc 2 262 0
	add 3,7,3
.LVL244:
	lbz 0,1(3)
	srawi 0,0,4
	or 10,0,10
	stb 10,2(11)
	lwz 0,4(31)
.L144:
	lwz 10,0(31)
.L132:
.LVL245:
	.loc 2 255 0
	cmpw 7,0,6
	ble- 7,.L134
	cmpw 7,10,9
	ble- 7,.L134
.LVL246:
	.loc 2 258 0
	mullw 0,0,9
.LVL247:
	add 3,6,0
.LVL248:
	.loc 2 259 0
	lbzx 10,7,3
	rlwinm 10,10,0,24,27
	stb 10,3(11)
	.loc 2 261 0
	lwz 0,4(31)
	cmpw 7,0,12
	ble- 7,.L145
	.loc 2 262 0
	add 3,7,3
.LVL249:
	lbz 0,1(3)
	srawi 0,0,4
	or 10,0,10
	stb 10,3(11)
	lwz 0,4(31)
.L145:
	lwz 10,0(31)
.L134:
.LVL250:
	.loc 2 236 0
	addi 11,11,4
.LVL251:
	.loc 2 251 0
	addi 9,9,1
.LVL252:
	bdnz .L136
	.loc 2 249 0
	addi 8,8,8
.LVL253:
	.loc 2 251 0
	mr 11,24
.LVL254:
	.loc 2 249 0
	cmpw 7,8,0
	blt+ 7,.L141
.LVL255:
.L137:
	.loc 2 247 0
	addi 23,23,8
.LVL256:
	cmpw 7,23,10
	blt+ 7,.L127
.LVL257:
.L126:
	.loc 2 268 0
	mr 3,29
	mr 4,28
	bl DCFlushRange
.LVL258:
.LBE2614:
	.loc 2 270 0
	lwz 0,52(1)
.LBB2615:
	.loc 2 269 0
	stw 29,20(30)
.LBE2615:
	.loc 2 270 0
	mtlr 0
	lwz 23,12(1)
	lwz 24,16(1)
	lwz 25,20(1)
	lwz 26,24(1)
	lwz 27,28(1)
	lwz 28,32(1)
.LVL259:
	lwz 29,36(1)
.LVL260:
	lwz 30,40(1)
.LVL261:
	lwz 31,44(1)
.LVL262:
	addi 1,1,48
.LCFI31:
	.cfi_def_cfa_offset 0
	.cfi_restore 31
	.cfi_restore 30
	.cfi_restore 29
	.cfi_restore 28
	.cfi_restore 27
	.cfi_restore 26
	.cfi_restore 25
	.cfi_restore 24
	.cfi_restore 23
	blr
	.cfi_endproc
.LFE556:
	.size	_ZN10FreeTypeGX13loadGlyphDataEP10FT_Bitmap_P13ftgxCharData_, .-_ZN10FreeTypeGX13loadGlyphDataEP10FT_Bitmap_P13ftgxCharData_
	.align 2
	.globl _ZN10FreeTypeGX19getStyleOffsetWidthEtt
	.type	_ZN10FreeTypeGX19getStyleOffsetWidthEtt, @function
_ZN10FreeTypeGX19getStyleOffsetWidthEtt:
.LFB557:
	.loc 2 281 0
	.cfi_startproc
.LVL263:
	.loc 2 282 0
	andi. 0,5,1
	.loc 2 283 0
	li 3,0
.LVL264:
	.loc 2 282 0
	bnelr- 0
	.loc 2 284 0
	andi. 0,5,2
	bne- 0,.L151
	.loc 2 286 0
	andi. 0,5,4
	beqlr- 0
	.loc 2 286 0 is_stmt 0 discriminator 1
	neg 3,4
	extsh 3,3
	.loc 2 288 0 is_stmt 1 discriminator 1
	blr
.L151:
	.loc 2 285 0
	srawi 3,4,1
	neg 3,3
	extsh 3,3
	blr
	.cfi_endproc
.LFE557:
	.size	_ZN10FreeTypeGX19getStyleOffsetWidthEtt, .-_ZN10FreeTypeGX19getStyleOffsetWidthEtt
	.align 2
	.globl _ZN10FreeTypeGX20getStyleOffsetHeightEst
	.type	_ZN10FreeTypeGX20getStyleOffsetHeightEst, @function
_ZN10FreeTypeGX20getStyleOffsetHeightEst:
.LFB558:
	.loc 2 299 0
	.cfi_startproc
.LVL265:
.LBB2630:
.LBB2631:
.LBB2632:
	.loc 2 608 0
	lwz 9,44(3)
.LBE2632:
.LBE2631:
.LBE2630:
	.loc 2 299 0
	mr 11,3
.LBB2642:
	.loc 2 300 0
	extsh 5,5
.LVL266:
.LBB2641:
.LBB2640:
.LBB2633:
.LBB2634:
.LBB2635:
	.loc 2 301 0
	li 3,0
.LVL267:
	.loc 1 1089 0
	cmpwi 7,9,0
	beqlr- 7
.LBE2635:
.LBE2634:
.LBE2633:
	.loc 1 1536 0
	addi 11,11,40
.LVL268:
	mr 10,11
	b .L156
.LVL269:
.L170:
.LBB2639:
.LBB2638:
	.loc 2 608 0
	mr 10,9
	.loc 1 1091 0
	lwz 9,8(9)
.LVL270:
.LBB2636:
	.loc 1 1089 0
	cmpwi 7,9,0
	beq- 7,.L169
.LVL271:
.L156:
	.loc 1 1090 0
	lha 0,16(9)
	cmpw 7,0,5
	bge- 7,.L170
.LVL272:
.LBE2636:
	.loc 2 608 0
	lwz 9,12(9)
.LVL273:
.LBB2637:
	.loc 1 1089 0
	cmpwi 7,9,0
	bne+ 7,.L156
.L169:
.LVL274:
.LBE2637:
.LBE2638:
	.loc 1 1539 0
	cmpw 7,11,10
	.loc 2 301 0
	li 3,0
	.loc 1 1539 0
	beqlr- 7
.LVL275:
	lha 0,16(10)
	cmpw 7,0,5
	bgtlr+ 7
.LVL276:
.LBE2639:
.LBE2640:
.LBE2641:
	.loc 2 303 0
	rlwinm 4,4,0,20,27
.LVL277:
	cmpwi 7,4,128
	beqlr- 7
	ble- 7,.L171
	cmpwi 7,4,512
	beq- 7,.L161
	cmpwi 7,4,1024
	beq- 7,.L162
	cmpwi 7,4,256
	bne+ 7,.L157
.LVL278:
	.loc 2 319 0
	lha 3,22(10)
	blr
.LVL279:
.L171:
	.loc 2 303 0
	cmpwi 7,4,16
	beq- 7,.L158
	cmpwi 7,4,64
	beq- 7,.L172
.L157:
.LVL280:
	.loc 2 310 0
	lha 3,18(10)
	lha 0,20(10)
	add 3,3,0
	addi 3,3,1
	srawi 3,3,1
	extsh 3,3
	blr
.LVL281:
.L162:
	.loc 2 325 0
	lha 3,24(10)
.LBE2642:
	.loc 2 328 0
	blr
.LVL282:
.L161:
.LBB2643:
	.loc 2 322 0
	lha 3,22(10)
	lha 0,24(10)
	add 3,3,0
	addi 3,3,1
	srawi 3,3,1
	extsh 3,3
	blr
.LVL283:
.L172:
	.loc 2 313 0
	lha 3,20(10)
	blr
.LVL284:
.L158:
	.loc 2 306 0
	lha 3,18(10)
	blr
.LBE2643:
	.cfi_endproc
.LFE558:
	.size	_ZN10FreeTypeGX20getStyleOffsetHeightEst, .-_ZN10FreeTypeGX20getStyleOffsetHeightEst
	.align 2
	.globl _ZN10FreeTypeGX24copyTextureToFramebufferEP10_gx_texobjffsss9_gx_color
	.type	_ZN10FreeTypeGX24copyTextureToFramebufferEP10_gx_texobjffsss9_gx_color, @function
_ZN10FreeTypeGX24copyTextureToFramebufferEP10_gx_texobjffsss9_gx_color:
.LFB565:
	.loc 2 547 0
	.cfi_startproc
.LVL285:
	mflr 0
	stwu 1,-80(1)
.LCFI32:
	.cfi_def_cfa_offset 80
	.cfi_register 65, 0
	stfd 30,64(1)
	fmr 30,2
	.cfi_offset 62, -16
	stfd 31,72(1)
	fmr 31,1
	.cfi_offset 63, -8
	stw 24,32(1)
	mr 24,6
	.cfi_offset 24, -48
	stw 25,36(1)
	stw 26,40(1)
	stw 27,44(1)
	stw 28,48(1)
	stw 29,52(1)
	mr 29,7
	.cfi_offset 29, -28
	.cfi_offset 28, -32
	.cfi_offset 27, -36
	.cfi_offset 26, -40
	.cfi_offset 25, -44
	stw 30,56(1)
	mr 30,3
	.cfi_offset 30, -24
	stw 31,60(1)
	.loc 2 548 0
	mr 3,4
.LVL286:
	.loc 2 547 0
	stw 0,84(1)
	.loc 2 548 0
	li 4,0
.LVL287:
	.loc 2 547 0
	mr 31,5
	.cfi_offset 65, 4
	.cfi_offset 31, -20
	lwz 0,0(8)
	srwi 25,0,24
.LVL288:
	rlwinm 26,0,16,24,31
.LVL289:
	rlwinm 27,0,24,24,31
.LVL290:
	rlwinm 28,0,0,0xff
.LVL291:
	.loc 2 548 0
	bl GX_LoadTexObj
.LVL292:
	.loc 2 549 0
	bl GX_InvalidateTexAll
	.loc 2 551 0
	li 3,9
	li 4,1
	bl GX_SetVtxDesc
	.loc 2 552 0
	li 3,13
	li 4,1
	bl GX_SetVtxDesc
	.loc 2 553 0
	li 3,11
	li 4,1
	bl GX_SetVtxDesc
	.loc 2 555 0
	lbz 4,11(30)
	li 3,128
	li 5,4
	bl GX_Begin
.LVL293:
.LBB2644:
.LBB2645:
	.file 4 "d:/devkitPro/libogc/include/ogc/gx.h"
	.loc 4 2137 0
	lis 9,wgPipe@ha
	lwz 9,wgPipe@l(9)
.LBE2645:
.LBE2644:
.LBB2649:
.LBB2650:
	.loc 4 2271 0
	li 11,0
.LBE2650:
.LBE2649:
	.loc 2 560 0
	lis 10,0x4330
	xoris 0,31,0x8000
.LBB2652:
.LBB2646:
	.loc 4 2137 0
	sth 31,0(9)
.LBE2646:
.LBE2652:
	.loc 2 560 0
	lis 8,.LC1@ha
.LBB2653:
.LBB2647:
	.loc 4 2138 0
	sth 24,0(9)
.LBE2647:
.LBE2653:
	.loc 2 564 0
	xoris 7,24,0x8000
.LBB2654:
.LBB2648:
	.loc 4 2139 0
	sth 29,0(9)
.LVL294:
.LBE2648:
.LBE2654:
.LBB2655:
.LBB2656:
	.loc 4 2229 0
	stb 25,0(9)
	.loc 4 2230 0
	stb 26,0(9)
	.loc 4 2231 0
	stb 27,0(9)
	.loc 4 2232 0
	stb 28,0(9)
.LVL295:
.LBE2656:
.LBE2655:
.LBB2657:
.LBB2651:
	.loc 4 2271 0
	stw 11,0(9)
	.loc 4 2272 0
	stw 11,0(9)
.LBE2651:
.LBE2657:
	.loc 2 560 0
	stw 0,12(1)
	stw 10,8(1)
	lfs 0,.LC1@l(8)
.LBB2658:
.LBB2659:
	.loc 4 2271 0
	lis 8,.LC2@ha
.LBE2659:
.LBE2658:
	.loc 2 560 0
	lfd 13,8(1)
.LBB2662:
.LBB2660:
	.loc 4 2271 0
	lwz 0,.LC2@l(8)
.LBE2660:
.LBE2662:
	.loc 2 560 0
	addi 8,1,24
	fsub 13,13,0
	frsp 13,13
	fadds 31,13,31
.LVL296:
	fctiwz 31,31
	stfiwx 31,0,8
	lwz 8,24(1)
.LVL297:
.LBB2663:
.LBB2664:
	.loc 4 2137 0
	sth 8,0(9)
	.loc 4 2138 0
	sth 24,0(9)
	.loc 4 2139 0
	sth 29,0(9)
.LVL298:
.LBE2664:
.LBE2663:
.LBB2665:
.LBB2666:
	.loc 4 2229 0
	stb 25,0(9)
	.loc 4 2230 0
	stb 26,0(9)
	.loc 4 2231 0
	stb 27,0(9)
	.loc 4 2232 0
	stb 28,0(9)
.LVL299:
.LBE2666:
.LBE2665:
.LBB2667:
.LBB2661:
	.loc 4 2271 0
	stw 0,0(9)
	.loc 4 2272 0
	stw 11,0(9)
.LBE2661:
.LBE2667:
	.loc 2 564 0
	stw 10,16(1)
	addi 10,1,28
	stw 7,20(1)
	lfd 13,16(1)
	fsub 0,13,0
	frsp 0,0
	fadds 0,0,30
	fctiwz 0,0
	stfiwx 0,0,10
	lwz 10,28(1)
.LVL300:
.LBB2668:
.LBB2669:
	.loc 4 2137 0
	sth 8,0(9)
	.loc 4 2138 0
	sth 10,0(9)
	.loc 4 2139 0
	sth 29,0(9)
.LVL301:
.LBE2669:
.LBE2668:
.LBB2670:
.LBB2671:
	.loc 4 2229 0
	stb 25,0(9)
	.loc 4 2230 0
	stb 26,0(9)
	.loc 4 2231 0
	stb 27,0(9)
	.loc 4 2232 0
	stb 28,0(9)
.LVL302:
.LBE2671:
.LBE2670:
.LBB2672:
.LBB2673:
	.loc 4 2271 0
	stw 0,0(9)
	.loc 4 2272 0
	stw 0,0(9)
.LVL303:
.LBE2673:
.LBE2672:
.LBB2674:
.LBB2675:
	.loc 4 2137 0
	sth 31,0(9)
	.loc 4 2138 0
	sth 10,0(9)
	.loc 4 2139 0
	sth 29,0(9)
.LVL304:
.LBE2675:
.LBE2674:
.LBB2676:
.LBB2677:
	.loc 4 2229 0
	stb 25,0(9)
	.loc 4 2230 0
	stb 26,0(9)
	.loc 4 2231 0
	stb 27,0(9)
	.loc 4 2232 0
	stb 28,0(9)
.LVL305:
.LBE2677:
.LBE2676:
.LBB2678:
.LBB2679:
	.loc 4 2271 0
	stw 11,0(9)
	.loc 4 2272 0
	stw 0,0(9)
.LBE2679:
.LBE2678:
	.loc 2 572 0
	lwz 0,84(1)
	lwz 24,32(1)
.LVL306:
	mtlr 0
	lwz 25,36(1)
.LVL307:
	lwz 26,40(1)
.LVL308:
	lwz 27,44(1)
.LVL309:
	lwz 28,48(1)
.LVL310:
	lwz 29,52(1)
.LVL311:
	lwz 30,56(1)
.LVL312:
	lwz 31,60(1)
.LVL313:
	lfd 30,64(1)
.LVL314:
	lfd 31,72(1)
	addi 1,1,80
.LCFI33:
	.cfi_def_cfa_offset 0
	.cfi_restore 63
	.cfi_restore 62
	.cfi_restore 31
	.cfi_restore 30
	.cfi_restore 29
	.cfi_restore 28
	.cfi_restore 27
	.cfi_restore 26
	.cfi_restore 25
	.cfi_restore 24
	blr
	.cfi_endproc
.LFE565:
	.size	_ZN10FreeTypeGX24copyTextureToFramebufferEP10_gx_texobjffsss9_gx_color, .-_ZN10FreeTypeGX24copyTextureToFramebufferEP10_gx_texobjffsss9_gx_color
	.align 2
	.globl _ZN10FreeTypeGX24copyFeatureToFramebufferEffsss9_gx_color
	.type	_ZN10FreeTypeGX24copyFeatureToFramebufferEffsss9_gx_color, @function
_ZN10FreeTypeGX24copyFeatureToFramebufferEffsss9_gx_color:
.LFB566:
	.loc 2 587 0
	.cfi_startproc
.LVL315:
	mflr 0
	stwu 1,-80(1)
.LCFI34:
	.cfi_def_cfa_offset 80
	.cfi_register 65, 0
	stw 29,52(1)
	mr 29,3
	.cfi_offset 29, -28
	stw 0,84(1)
	.loc 2 588 0
	li 3,0
.LVL316:
	.loc 2 587 0
	lwz 0,0(7)
	.cfi_offset 65, 4
	stw 31,60(1)
	mr 31,4
	.cfi_offset 31, -20
	.loc 2 588 0
	li 4,4
.LVL317:
	.loc 2 587 0
	stfd 30,64(1)
	stfd 31,72(1)
	fmr 30,2
	.cfi_offset 63, -8
	.cfi_offset 62, -16
	fmr 31,1
	stw 24,32(1)
	stw 25,36(1)
	mr 24,6
	.cfi_offset 25, -44
	.cfi_offset 24, -48
	srwi 25,0,24
.LVL318:
	stw 26,40(1)
	stw 27,44(1)
	rlwinm 26,0,16,24,31
	.cfi_offset 27, -36
	.cfi_offset 26, -40
.LVL319:
	rlwinm 27,0,24,24,31
.LVL320:
	stw 28,48(1)
	stw 30,56(1)
.LVL321:
	.loc 2 587 0
	rlwinm 28,0,0,0xff
	.cfi_offset 30, -24
	.cfi_offset 28, -32
.LVL322:
	mr 30,5
	.loc 2 588 0
	bl GX_SetTevOp
.LVL323:
	.loc 2 589 0
	li 3,9
	li 4,1
	bl GX_SetVtxDesc
	.loc 2 590 0
	li 3,11
	li 4,1
	bl GX_SetVtxDesc
	.loc 2 591 0
	li 3,13
	li 4,0
	bl GX_SetVtxDesc
	.loc 2 593 0
	lbz 4,11(29)
	li 3,128
	li 5,4
	bl GX_Begin
.LVL324:
.LBB2680:
.LBB2681:
	.loc 4 2137 0
	lis 9,wgPipe@ha
	lwz 9,wgPipe@l(9)
.LBE2681:
.LBE2680:
	.loc 2 597 0
	lis 0,0x4330
	xoris 11,31,0x8000
	.loc 2 600 0
	xoris 10,30,0x8000
.LBB2685:
.LBB2682:
	.loc 4 2137 0
	sth 31,0(9)
.LBE2682:
.LBE2685:
	.loc 2 607 0
	li 3,0
.LBB2686:
.LBB2683:
	.loc 4 2138 0
	sth 30,0(9)
.LBE2683:
.LBE2686:
	.loc 2 607 0
	li 4,0
.LBB2687:
.LBB2684:
	.loc 4 2139 0
	sth 24,0(9)
.LVL325:
.LBE2684:
.LBE2687:
.LBB2688:
.LBB2689:
	.loc 4 2229 0
	stb 25,0(9)
	.loc 4 2230 0
	stb 26,0(9)
	.loc 4 2231 0
	stb 27,0(9)
	.loc 4 2232 0
	stb 28,0(9)
.LBE2689:
.LBE2688:
	.loc 2 597 0
	stw 11,12(1)
	lis 11,.LC1@ha
	stw 0,8(1)
	lfs 0,.LC1@l(11)
	addi 11,1,24
	lfd 13,8(1)
	fsub 13,13,0
	frsp 13,13
	fadds 31,13,31
.LVL326:
	fctiwz 31,31
	stfiwx 31,0,11
	lwz 11,24(1)
.LVL327:
.LBB2690:
.LBB2691:
	.loc 4 2137 0
	sth 11,0(9)
	.loc 4 2138 0
	sth 30,0(9)
	.loc 4 2139 0
	sth 24,0(9)
.LVL328:
.LBE2691:
.LBE2690:
.LBB2692:
.LBB2693:
	.loc 4 2229 0
	stb 25,0(9)
	.loc 4 2230 0
	stb 26,0(9)
	.loc 4 2231 0
	stb 27,0(9)
	.loc 4 2232 0
	stb 28,0(9)
.LBE2693:
.LBE2692:
	.loc 2 600 0
	stw 10,20(1)
	addi 10,1,28
	stw 0,16(1)
	lfd 13,16(1)
	fsub 0,13,0
	frsp 0,0
	fadds 0,0,30
	fctiwz 0,0
	stfiwx 0,0,10
	lwz 0,28(1)
.LVL329:
.LBB2694:
.LBB2695:
	.loc 4 2137 0
	sth 11,0(9)
	.loc 4 2138 0
	sth 0,0(9)
	.loc 4 2139 0
	sth 24,0(9)
.LVL330:
.LBE2695:
.LBE2694:
.LBB2696:
.LBB2697:
	.loc 4 2229 0
	stb 25,0(9)
	.loc 4 2230 0
	stb 26,0(9)
	.loc 4 2231 0
	stb 27,0(9)
	.loc 4 2232 0
	stb 28,0(9)
.LVL331:
.LBE2697:
.LBE2696:
.LBB2698:
.LBB2699:
	.loc 4 2137 0
	sth 31,0(9)
	.loc 4 2138 0
	sth 0,0(9)
	.loc 4 2139 0
	sth 24,0(9)
.LVL332:
.LBE2699:
.LBE2698:
.LBB2700:
.LBB2701:
	.loc 4 2229 0
	stb 25,0(9)
	.loc 4 2230 0
	stb 26,0(9)
	.loc 4 2231 0
	stb 27,0(9)
	.loc 4 2232 0
	stb 28,0(9)
.LBE2701:
.LBE2700:
	.loc 2 607 0
	bl GX_SetTevOp
.LVL333:
	.loc 2 608 0
	lwz 0,84(1)
	lwz 24,32(1)
.LVL334:
	mtlr 0
	lwz 25,36(1)
.LVL335:
	lwz 26,40(1)
.LVL336:
	lwz 27,44(1)
.LVL337:
	lwz 28,48(1)
.LVL338:
	lwz 29,52(1)
.LVL339:
	lwz 30,56(1)
.LVL340:
	lwz 31,60(1)
.LVL341:
	lfd 30,64(1)
.LVL342:
	lfd 31,72(1)
.LVL343:
	addi 1,1,80
.LCFI35:
	.cfi_def_cfa_offset 0
	.cfi_restore 63
	.cfi_restore 62
	.cfi_restore 31
	.cfi_restore 30
	.cfi_restore 29
	.cfi_restore 28
	.cfi_restore 27
	.cfi_restore 26
	.cfi_restore 25
	.cfi_restore 24
	blr
	.cfi_endproc
.LFE566:
	.size	_ZN10FreeTypeGX24copyFeatureToFramebufferEffsss9_gx_color, .-_ZN10FreeTypeGX24copyFeatureToFramebufferEffsss9_gx_color
	.align 2
	.globl _ZN10FreeTypeGX15drawTextFeatureEsssstP15ftgxDataOffset_t9_gx_color
	.type	_ZN10FreeTypeGX15drawTextFeatureEsssstP15ftgxDataOffset_t9_gx_color, @function
_ZN10FreeTypeGX15drawTextFeatureEsssstP15ftgxDataOffset_t9_gx_color:
.LFB560:
	.loc 2 401 0
	.cfi_startproc
.LVL344:
	mflr 0
	stwu 1,-88(1)
.LCFI36:
	.cfi_def_cfa_offset 88
	.cfi_register 65, 0
.LBB2703:
	.loc 2 402 0
	srawi. 7,7,4
.LVL345:
.LBE2703:
	.loc 2 401 0
	stw 28,72(1)
	mr 28,5
	.cfi_offset 28, -16
	stw 29,76(1)
	mr 29,3
	.cfi_offset 29, -12
	stw 30,80(1)
	mr 30,4
	.cfi_offset 30, -8
	stw 31,84(1)
	mr 31,6
	.cfi_offset 31, -4
	stw 0,92(1)
	stw 26,64(1)
	stw 27,68(1)
	.loc 2 401 0
	lwz 11,96(1)
.LVL346:
	lwz 27,0(11)
	.cfi_offset 27, -20
	.cfi_offset 26, -24
	.cfi_offset 65, 4
.LBB2704:
	.loc 2 402 0
	ble- 0,.L179
.L176:
	.loc 2 404 0
	andi. 0,10,4096
	.loc 2 402 0
	rlwinm 26,7,0,0xffff
.LVL347:
	.loc 2 404 0
	bne- 0,.L180
.LVL348:
.L177:
	.loc 2 406 0
	andi. 0,10,8192
	beq+ 0,.L175
	.loc 2 407 0
	lis 0,0x4330
	stw 8,36(1)
	stw 0,32(1)
	lis 11,.LC4@ha
	stw 26,44(1)
	mr 3,29
	stw 0,40(1)
	mr 4,30
	lfs 0,.LC4@l(11)
	mr 6,31
	lfd 1,32(1)
	addi 7,1,8
	lfd 2,40(1)
	fsub 1,1,0
	lha 0,4(9)
	fsub 2,2,0
	stw 27,8(1)
	srawi 0,0,1
	frsp 1,1
	subf 28,0,28
	frsp 2,2
	extsh 5,28
	bl _ZN10FreeTypeGX24copyFeatureToFramebufferEffsss9_gx_color
.L175:
.LBE2704:
	.loc 2 408 0
	lwz 0,92(1)
	lwz 26,64(1)
.LVL349:
	mtlr 0
	lwz 27,68(1)
	lwz 28,72(1)
	lwz 29,76(1)
.LVL350:
	lwz 30,80(1)
	lwz 31,84(1)
	addi 1,1,88
	.cfi_remember_state
.LCFI37:
	.cfi_def_cfa_offset 0
	.cfi_restore 31
	.cfi_restore 30
	.cfi_restore 29
	.cfi_restore 28
	.cfi_restore 27
	.cfi_restore 26
	blr
.LVL351:
.L180:
.LCFI38:
	.cfi_restore_state
.LBB2705:
	.loc 2 404 0 discriminator 1
	lis 0,0x4330
	stw 8,20(1)
	stw 0,16(1)
	lis 11,.LC4@ha
	stw 26,28(1)
	addi 5,28,1
.LVL352:
	stw 0,24(1)
	mr 3,29
.LVL353:
	lfs 0,.LC4@l(11)
	mr 4,30
.LVL354:
	lfd 1,16(1)
	extsh 5,5
	lfd 2,24(1)
	mr 6,31
.LVL355:
	fsub 1,1,0
	addi 7,1,8
	fsub 2,2,0
	stw 8,48(1)
	stw 9,52(1)
	frsp 1,1
	stw 10,56(1)
	frsp 2,2
	stw 27,8(1)
	bl _ZN10FreeTypeGX24copyFeatureToFramebufferEffsss9_gx_color
.LVL356:
	lwz 10,56(1)
	lwz 9,52(1)
	lwz 8,48(1)
	b .L177
.LVL357:
.L179:
	.loc 2 402 0
	li 7,1
	b .L176
.LBE2705:
	.cfi_endproc
.LFE560:
	.size	_ZN10FreeTypeGX15drawTextFeatureEsssstP15ftgxDataOffset_t9_gx_color, .-_ZN10FreeTypeGX15drawTextFeatureEsssstP15ftgxDataOffset_t9_gx_color
	.section	.text._ZNSt8_Rb_treeIsSt4pairIKs15ftgxDataOffset_ESt10_Select1stIS3_ESt4lessIsESaIS3_EE8_M_eraseEPSt13_Rb_tree_nodeIS3_E,"axG",@progbits,_ZNSt8_Rb_treeIsSt4pairIKs15ftgxDataOffset_ESt10_Select1stIS3_ESt4lessIsESaIS3_EE8_M_eraseEPSt13_Rb_tree_nodeIS3_E,comdat
	.align 2
	.weak	_ZNSt8_Rb_treeIsSt4pairIKs15ftgxDataOffset_ESt10_Select1stIS3_ESt4lessIsESaIS3_EE8_M_eraseEPSt13_Rb_tree_nodeIS3_E
	.type	_ZNSt8_Rb_treeIsSt4pairIKs15ftgxDataOffset_ESt10_Select1stIS3_ESt4lessIsESaIS3_EE8_M_eraseEPSt13_Rb_tree_nodeIS3_E, @function
_ZNSt8_Rb_treeIsSt4pairIKs15ftgxDataOffset_ESt10_Select1stIS3_ESt4lessIsESaIS3_EE8_M_eraseEPSt13_Rb_tree_nodeIS3_E:
.LFB635:
	.loc 1 1068 0
	.cfi_startproc
.LVL358:
	stwu 1,-56(1)
.LCFI39:
	.cfi_def_cfa_offset 56
	mflr 0
	stw 22,16(1)
.LBB2852:
	.loc 1 1072 0
	mr. 22,4
	.cfi_offset 22, -40
	.cfi_register 65, 0
.LBE2852:
	.loc 1 1068 0
	stw 30,48(1)
	mr 30,3
	.cfi_offset 30, -8
	stw 0,60(1)
	stw 21,12(1)
	stw 23,20(1)
	stw 24,24(1)
	stw 25,28(1)
	stw 26,32(1)
	stw 27,36(1)
	stw 28,40(1)
	stw 29,44(1)
	stw 31,52(1)
.LBB2937:
	.loc 1 1072 0
	beq- 0,.L181
	.cfi_offset 31, -4
	.cfi_offset 29, -12
	.cfi_offset 28, -16
	.cfi_offset 27, -20
	.cfi_offset 26, -24
	.cfi_offset 25, -28
	.cfi_offset 24, -32
	.cfi_offset 23, -36
	.cfi_offset 21, -44
	.cfi_offset 65, 4
.LVL359:
.L236:
	.loc 2 608 0
	lwz 27,12(22)
.LVL360:
.LBB2853:
.LBB2854:
.LBB2855:
	.loc 1 1072 0
	cmpwi 7,27,0
	beq- 7,.L183
.LVL361:
.L237:
.LBE2855:
	.loc 2 608 0
	lwz 26,12(27)
.LVL362:
.LBB2931:
.LBB2856:
.LBB2857:
.LBB2858:
	.loc 1 1072 0
	cmpwi 7,26,0
	beq- 7,.L184
.LVL363:
.L238:
.LBE2858:
	.loc 2 608 0
	lwz 25,12(26)
.LVL364:
.LBB2924:
.LBB2859:
.LBB2860:
.LBB2861:
	.loc 1 1072 0
	cmpwi 7,25,0
	beq- 7,.L185
.LVL365:
.L239:
.LBE2861:
	.loc 2 608 0
	lwz 24,12(25)
.LVL366:
.LBB2917:
.LBB2862:
.LBB2863:
.LBB2864:
	.loc 1 1072 0
	cmpwi 7,24,0
	beq- 7,.L186
.LVL367:
.L240:
.LBE2864:
	.loc 2 608 0
	lwz 23,12(24)
.LVL368:
.LBB2910:
.LBB2865:
.LBB2866:
.LBB2867:
	.loc 1 1072 0
	cmpwi 7,23,0
	beq- 7,.L187
.LVL369:
.L241:
.LBE2867:
	.loc 2 608 0
	lwz 28,12(23)
.LVL370:
.LBB2903:
.LBB2868:
.LBB2869:
.LBB2870:
	.loc 1 1072 0
	cmpwi 7,28,0
	beq- 7,.L188
.LVL371:
.L242:
.LBE2870:
	.loc 2 608 0
	lwz 29,12(28)
.LVL372:
.LBB2896:
.LBB2871:
.LBB2872:
.LBB2873:
	.loc 1 1072 0
	cmpwi 7,29,0
	beq- 7,.L189
.LVL373:
.L243:
.LBE2873:
	.loc 2 608 0
	lwz 31,12(29)
.LVL374:
.LBB2889:
.LBB2874:
.LBB2875:
.LBB2876:
	.loc 1 1072 0
	cmpwi 7,31,0
	beq- 7,.L190
.LVL375:
.L244:
.LBB2877:
	.loc 1 1074 0
	lwz 4,12(31)
	mr 3,30
	bl _ZNSt8_Rb_treeIsSt4pairIKs15ftgxDataOffset_ESt10_Select1stIS3_ESt4lessIsESaIS3_EE8_M_eraseEPSt13_Rb_tree_nodeIS3_E
.LBE2877:
.LBE2876:
	.loc 2 608 0
	lwz 21,8(31)
.LVL376:
.LBB2883:
.LBB2882:
.LBB2878:
.LBB2879:
.LBB2880:
.LBB2881:
	.loc 3 98 0
	mr 3,31
	bl _ZdlPv
.LVL377:
.LBE2881:
.LBE2880:
.LBE2879:
.LBE2878:
.LBE2882:
	.loc 1 1072 0
	cmpwi 7,21,0
	.loc 1 1077 0
	mr 31,21
.LVL378:
	.loc 1 1072 0
	bne+ 7,.L244
.LVL379:
.L190:
.LBE2883:
.LBE2875:
.LBE2874:
.LBE2889:
	.loc 2 608 0
	lwz 31,8(29)
.LVL380:
.LBB2890:
.LBB2888:
.LBB2884:
.LBB2885:
.LBB2886:
.LBB2887:
	.loc 3 98 0
	mr 3,29
	bl _ZdlPv
.LVL381:
.LBE2887:
.LBE2886:
.LBE2885:
.LBE2884:
.LBE2888:
	.loc 1 1072 0
	cmpwi 7,31,0
	beq- 7,.L189
	.loc 1 1077 0
	mr 29,31
.LVL382:
	b .L243
.LVL383:
.L189:
.LBE2890:
.LBE2872:
.LBE2871:
.LBE2896:
	.loc 2 608 0
	lwz 31,8(28)
.LVL384:
.LBB2897:
.LBB2895:
.LBB2891:
.LBB2892:
.LBB2893:
.LBB2894:
	.loc 3 98 0
	mr 3,28
	bl _ZdlPv
.LVL385:
.LBE2894:
.LBE2893:
.LBE2892:
.LBE2891:
.LBE2895:
	.loc 1 1072 0
	cmpwi 7,31,0
	beq- 7,.L188
	.loc 1 1077 0
	mr 28,31
.LVL386:
	b .L242
.LVL387:
.L188:
.LBE2897:
.LBE2869:
.LBE2868:
.LBE2903:
	.loc 2 608 0
	lwz 31,8(23)
.LVL388:
.LBB2904:
.LBB2902:
.LBB2898:
.LBB2899:
.LBB2900:
.LBB2901:
	.loc 3 98 0
	mr 3,23
	bl _ZdlPv
.LVL389:
.LBE2901:
.LBE2900:
.LBE2899:
.LBE2898:
.LBE2902:
	.loc 1 1072 0
	cmpwi 7,31,0
	beq- 7,.L187
	.loc 1 1077 0
	mr 23,31
.LVL390:
	b .L241
.LVL391:
.L187:
.LBE2904:
.LBE2866:
.LBE2865:
.LBE2910:
	.loc 2 608 0
	lwz 31,8(24)
.LVL392:
.LBB2911:
.LBB2909:
.LBB2905:
.LBB2906:
.LBB2907:
.LBB2908:
	.loc 3 98 0
	mr 3,24
	bl _ZdlPv
.LVL393:
.LBE2908:
.LBE2907:
.LBE2906:
.LBE2905:
.LBE2909:
	.loc 1 1072 0
	cmpwi 7,31,0
	beq- 7,.L186
	.loc 1 1077 0
	mr 24,31
.LVL394:
	b .L240
.LVL395:
.L186:
.LBE2911:
.LBE2863:
.LBE2862:
.LBE2917:
	.loc 2 608 0
	lwz 31,8(25)
.LVL396:
.LBB2918:
.LBB2916:
.LBB2912:
.LBB2913:
.LBB2914:
.LBB2915:
	.loc 3 98 0
	mr 3,25
	bl _ZdlPv
.LVL397:
.LBE2915:
.LBE2914:
.LBE2913:
.LBE2912:
.LBE2916:
	.loc 1 1072 0
	cmpwi 7,31,0
	beq- 7,.L185
	.loc 1 1077 0
	mr 25,31
.LVL398:
	b .L239
.LVL399:
.L185:
.LBE2918:
.LBE2860:
.LBE2859:
.LBE2924:
	.loc 2 608 0
	lwz 31,8(26)
.LVL400:
.LBB2925:
.LBB2923:
.LBB2919:
.LBB2920:
.LBB2921:
.LBB2922:
	.loc 3 98 0
	mr 3,26
	bl _ZdlPv
.LVL401:
.LBE2922:
.LBE2921:
.LBE2920:
.LBE2919:
.LBE2923:
	.loc 1 1072 0
	cmpwi 7,31,0
	beq- 7,.L184
	.loc 1 1077 0
	mr 26,31
.LVL402:
	b .L238
.LVL403:
.L184:
.LBE2925:
.LBE2857:
.LBE2856:
.LBE2931:
	.loc 2 608 0
	lwz 31,8(27)
.LVL404:
.LBB2932:
.LBB2930:
.LBB2926:
.LBB2927:
.LBB2928:
.LBB2929:
	.loc 3 98 0
	mr 3,27
	bl _ZdlPv
.LVL405:
.LBE2929:
.LBE2928:
.LBE2927:
.LBE2926:
.LBE2930:
	.loc 1 1072 0
	cmpwi 7,31,0
	beq- 7,.L183
	.loc 1 1077 0
	mr 27,31
.LVL406:
	b .L237
.LVL407:
.L183:
	.loc 2 608 0
	lwz 31,8(22)
.LVL408:
.LBE2932:
.LBE2854:
.LBB2933:
.LBB2934:
.LBB2935:
.LBB2936:
	.loc 3 98 0
	mr 3,22
	bl _ZdlPv
.LVL409:
.LBE2936:
.LBE2935:
.LBE2934:
.LBE2933:
.LBE2853:
	.loc 1 1072 0
	cmpwi 7,31,0
	beq- 7,.L181
	.loc 1 1077 0
	mr 22,31
.LVL410:
	b .L236
.LVL411:
.L181:
.LBE2937:
	.loc 1 1079 0
	lwz 0,60(1)
	lwz 21,12(1)
	mtlr 0
	lwz 22,16(1)
	lwz 23,20(1)
	lwz 24,24(1)
	lwz 25,28(1)
	lwz 26,32(1)
	lwz 27,36(1)
	lwz 28,40(1)
	lwz 29,44(1)
	lwz 30,48(1)
.LVL412:
	lwz 31,52(1)
	addi 1,1,56
.LCFI40:
	.cfi_def_cfa_offset 0
	.cfi_restore 31
	.cfi_restore 30
	.cfi_restore 29
	.cfi_restore 28
	.cfi_restore 27
	.cfi_restore 26
	.cfi_restore 25
	.cfi_restore 24
	.cfi_restore 23
	.cfi_restore 22
	.cfi_restore 21
	blr
	.cfi_endproc
.LFE635:
	.size	_ZNSt8_Rb_treeIsSt4pairIKs15ftgxDataOffset_ESt10_Select1stIS3_ESt4lessIsESaIS3_EE8_M_eraseEPSt13_Rb_tree_nodeIS3_E, .-_ZNSt8_Rb_treeIsSt4pairIKs15ftgxDataOffset_ESt10_Select1stIS3_ESt4lessIsESaIS3_EE8_M_eraseEPSt13_Rb_tree_nodeIS3_E
	.section	.text._ZNSt8_Rb_treeIwSt4pairIKw13ftgxCharData_ESt10_Select1stIS3_ESt4lessIwESaIS3_EE8_M_eraseEPSt13_Rb_tree_nodeIS3_E,"axG",@progbits,_ZNSt8_Rb_treeIwSt4pairIKw13ftgxCharData_ESt10_Select1stIS3_ESt4lessIwESaIS3_EE8_M_eraseEPSt13_Rb_tree_nodeIS3_E,comdat
	.align 2
	.weak	_ZNSt8_Rb_treeIwSt4pairIKw13ftgxCharData_ESt10_Select1stIS3_ESt4lessIwESaIS3_EE8_M_eraseEPSt13_Rb_tree_nodeIS3_E
	.type	_ZNSt8_Rb_treeIwSt4pairIKw13ftgxCharData_ESt10_Select1stIS3_ESt4lessIwESaIS3_EE8_M_eraseEPSt13_Rb_tree_nodeIS3_E, @function
_ZNSt8_Rb_treeIwSt4pairIKw13ftgxCharData_ESt10_Select1stIS3_ESt4lessIwESaIS3_EE8_M_eraseEPSt13_Rb_tree_nodeIS3_E:
.LFB710:
	.loc 1 1068 0
	.cfi_startproc
.LVL413:
	stwu 1,-56(1)
.LCFI41:
	.cfi_def_cfa_offset 56
	mflr 0
	stw 22,16(1)
.LBB3084:
	.loc 1 1072 0
	mr. 22,4
	.cfi_offset 22, -40
	.cfi_register 65, 0
.LBE3084:
	.loc 1 1068 0
	stw 30,48(1)
	mr 30,3
	.cfi_offset 30, -8
	stw 0,60(1)
	stw 21,12(1)
	stw 23,20(1)
	stw 24,24(1)
	stw 25,28(1)
	stw 26,32(1)
	stw 27,36(1)
	stw 28,40(1)
	stw 29,44(1)
	stw 31,52(1)
.LBB3169:
	.loc 1 1072 0
	beq- 0,.L245
	.cfi_offset 31, -4
	.cfi_offset 29, -12
	.cfi_offset 28, -16
	.cfi_offset 27, -20
	.cfi_offset 26, -24
	.cfi_offset 25, -28
	.cfi_offset 24, -32
	.cfi_offset 23, -36
	.cfi_offset 21, -44
	.cfi_offset 65, 4
.LVL414:
.L300:
	.loc 2 608 0
	lwz 27,12(22)
.LVL415:
.LBB3085:
.LBB3086:
.LBB3087:
	.loc 1 1072 0
	cmpwi 7,27,0
	beq- 7,.L247
.LVL416:
.L301:
.LBE3087:
	.loc 2 608 0
	lwz 26,12(27)
.LVL417:
.LBB3163:
.LBB3088:
.LBB3089:
.LBB3090:
	.loc 1 1072 0
	cmpwi 7,26,0
	beq- 7,.L248
.LVL418:
.L302:
.LBE3090:
	.loc 2 608 0
	lwz 25,12(26)
.LVL419:
.LBB3156:
.LBB3091:
.LBB3092:
.LBB3093:
	.loc 1 1072 0
	cmpwi 7,25,0
	beq- 7,.L249
.LVL420:
.L303:
.LBE3093:
	.loc 2 608 0
	lwz 24,12(25)
.LVL421:
.LBB3149:
.LBB3094:
.LBB3095:
.LBB3096:
	.loc 1 1072 0
	cmpwi 7,24,0
	beq- 7,.L250
.LVL422:
.L304:
.LBE3096:
	.loc 2 608 0
	lwz 23,12(24)
.LVL423:
.LBB3142:
.LBB3097:
.LBB3098:
.LBB3099:
	.loc 1 1072 0
	cmpwi 7,23,0
	beq- 7,.L251
.LVL424:
.L305:
.LBE3099:
	.loc 2 608 0
	lwz 28,12(23)
.LVL425:
.LBB3135:
.LBB3100:
.LBB3101:
.LBB3102:
	.loc 1 1072 0
	cmpwi 7,28,0
	beq- 7,.L252
.LVL426:
.L306:
.LBE3102:
	.loc 2 608 0
	lwz 29,12(28)
.LVL427:
.LBB3128:
.LBB3103:
.LBB3104:
.LBB3105:
	.loc 1 1072 0
	cmpwi 7,29,0
	beq- 7,.L253
.LVL428:
.L307:
.LBE3105:
	.loc 2 608 0
	lwz 31,12(29)
.LVL429:
.LBB3121:
.LBB3106:
.LBB3107:
.LBB3108:
	.loc 1 1072 0
	cmpwi 7,31,0
	beq- 7,.L254
.LVL430:
.L308:
.LBB3109:
	.loc 1 1074 0
	lwz 4,12(31)
	mr 3,30
	bl _ZNSt8_Rb_treeIwSt4pairIKw13ftgxCharData_ESt10_Select1stIS3_ESt4lessIwESaIS3_EE8_M_eraseEPSt13_Rb_tree_nodeIS3_E
.LBE3109:
.LBE3108:
	.loc 2 608 0
	lwz 21,8(31)
.LVL431:
.LBB3115:
.LBB3114:
.LBB3110:
.LBB3111:
.LBB3112:
.LBB3113:
	.loc 3 98 0
	mr 3,31
	bl _ZdlPv
.LVL432:
.LBE3113:
.LBE3112:
.LBE3111:
.LBE3110:
.LBE3114:
	.loc 1 1072 0
	cmpwi 7,21,0
	.loc 1 1077 0
	mr 31,21
.LVL433:
	.loc 1 1072 0
	bne+ 7,.L308
.LVL434:
.L254:
.LBE3115:
.LBE3107:
.LBE3106:
.LBE3121:
	.loc 2 608 0
	lwz 31,8(29)
.LVL435:
.LBB3122:
.LBB3120:
.LBB3116:
.LBB3117:
.LBB3118:
.LBB3119:
	.loc 3 98 0
	mr 3,29
	bl _ZdlPv
.LVL436:
.LBE3119:
.LBE3118:
.LBE3117:
.LBE3116:
.LBE3120:
	.loc 1 1072 0
	cmpwi 7,31,0
	beq- 7,.L253
	.loc 1 1077 0
	mr 29,31
.LVL437:
	b .L307
.LVL438:
.L253:
.LBE3122:
.LBE3104:
.LBE3103:
.LBE3128:
	.loc 2 608 0
	lwz 31,8(28)
.LVL439:
.LBB3129:
.LBB3127:
.LBB3123:
.LBB3124:
.LBB3125:
.LBB3126:
	.loc 3 98 0
	mr 3,28
	bl _ZdlPv
.LVL440:
.LBE3126:
.LBE3125:
.LBE3124:
.LBE3123:
.LBE3127:
	.loc 1 1072 0
	cmpwi 7,31,0
	beq- 7,.L252
	.loc 1 1077 0
	mr 28,31
.LVL441:
	b .L306
.LVL442:
.L252:
.LBE3129:
.LBE3101:
.LBE3100:
.LBE3135:
	.loc 2 608 0
	lwz 31,8(23)
.LVL443:
.LBB3136:
.LBB3134:
.LBB3130:
.LBB3131:
.LBB3132:
.LBB3133:
	.loc 3 98 0
	mr 3,23
	bl _ZdlPv
.LVL444:
.LBE3133:
.LBE3132:
.LBE3131:
.LBE3130:
.LBE3134:
	.loc 1 1072 0
	cmpwi 7,31,0
	beq- 7,.L251
	.loc 1 1077 0
	mr 23,31
.LVL445:
	b .L305
.LVL446:
.L251:
.LBE3136:
.LBE3098:
.LBE3097:
.LBE3142:
	.loc 2 608 0
	lwz 31,8(24)
.LVL447:
.LBB3143:
.LBB3141:
.LBB3137:
.LBB3138:
.LBB3139:
.LBB3140:
	.loc 3 98 0
	mr 3,24
	bl _ZdlPv
.LVL448:
.LBE3140:
.LBE3139:
.LBE3138:
.LBE3137:
.LBE3141:
	.loc 1 1072 0
	cmpwi 7,31,0
	beq- 7,.L250
	.loc 1 1077 0
	mr 24,31
.LVL449:
	b .L304
.LVL450:
.L250:
.LBE3143:
.LBE3095:
.LBE3094:
.LBE3149:
	.loc 2 608 0
	lwz 31,8(25)
.LVL451:
.LBB3150:
.LBB3148:
.LBB3144:
.LBB3145:
.LBB3146:
.LBB3147:
	.loc 3 98 0
	mr 3,25
	bl _ZdlPv
.LVL452:
.LBE3147:
.LBE3146:
.LBE3145:
.LBE3144:
.LBE3148:
	.loc 1 1072 0
	cmpwi 7,31,0
	beq- 7,.L249
	.loc 1 1077 0
	mr 25,31
.LVL453:
	b .L303
.LVL454:
.L249:
.LBE3150:
.LBE3092:
.LBE3091:
.LBE3156:
	.loc 2 608 0
	lwz 31,8(26)
.LVL455:
.LBB3157:
.LBB3155:
.LBB3151:
.LBB3152:
.LBB3153:
.LBB3154:
	.loc 3 98 0
	mr 3,26
	bl _ZdlPv
.LVL456:
.LBE3154:
.LBE3153:
.LBE3152:
.LBE3151:
.LBE3155:
	.loc 1 1072 0
	cmpwi 7,31,0
	beq- 7,.L248
	.loc 1 1077 0
	mr 26,31
.LVL457:
	b .L302
.LVL458:
.L248:
.LBE3157:
.LBE3089:
.LBE3088:
.LBE3163:
	.loc 2 608 0
	lwz 31,8(27)
.LVL459:
.LBB3164:
.LBB3162:
.LBB3158:
.LBB3159:
.LBB3160:
.LBB3161:
	.loc 3 98 0
	mr 3,27
	bl _ZdlPv
.LVL460:
.LBE3161:
.LBE3160:
.LBE3159:
.LBE3158:
.LBE3162:
	.loc 1 1072 0
	cmpwi 7,31,0
	beq- 7,.L247
	.loc 1 1077 0
	mr 27,31
.LVL461:
	b .L301
.LVL462:
.L247:
	.loc 2 608 0
	lwz 31,8(22)
.LVL463:
.LBE3164:
.LBE3086:
.LBB3165:
.LBB3166:
.LBB3167:
.LBB3168:
	.loc 3 98 0
	mr 3,22
	bl _ZdlPv
.LVL464:
.LBE3168:
.LBE3167:
.LBE3166:
.LBE3165:
.LBE3085:
	.loc 1 1072 0
	cmpwi 7,31,0
	beq- 7,.L245
	.loc 1 1077 0
	mr 22,31
.LVL465:
	b .L300
.LVL466:
.L245:
.LBE3169:
	.loc 1 1079 0
	lwz 0,60(1)
	lwz 21,12(1)
	mtlr 0
	lwz 22,16(1)
	lwz 23,20(1)
	lwz 24,24(1)
	lwz 25,28(1)
	lwz 26,32(1)
	lwz 27,36(1)
	lwz 28,40(1)
	lwz 29,44(1)
	lwz 30,48(1)
.LVL467:
	lwz 31,52(1)
	addi 1,1,56
.LCFI42:
	.cfi_def_cfa_offset 0
	.cfi_restore 31
	.cfi_restore 30
	.cfi_restore 29
	.cfi_restore 28
	.cfi_restore 27
	.cfi_restore 26
	.cfi_restore 25
	.cfi_restore 24
	.cfi_restore 23
	.cfi_restore 22
	.cfi_restore 21
	blr
	.cfi_endproc
.LFE710:
	.size	_ZNSt8_Rb_treeIwSt4pairIKw13ftgxCharData_ESt10_Select1stIS3_ESt4lessIwESaIS3_EE8_M_eraseEPSt13_Rb_tree_nodeIS3_E, .-_ZNSt8_Rb_treeIwSt4pairIKw13ftgxCharData_ESt10_Select1stIS3_ESt4lessIwESaIS3_EE8_M_eraseEPSt13_Rb_tree_nodeIS3_E
	.section	.text._ZNSt8_Rb_treeIsSt4pairIKsSt3mapIw13ftgxCharData_St4lessIwESaIS0_IKwS3_EEEESt10_Select1stISA_ES4_IsESaISA_EE8_M_eraseEPSt13_Rb_tree_nodeISA_E,"axG",@progbits,_ZNSt8_Rb_treeIsSt4pairIKsSt3mapIw13ftgxCharData_St4lessIwESaIS0_IKwS3_EEEESt10_Select1stISA_ES4_IsESaISA_EE8_M_eraseEPSt13_Rb_tree_nodeISA_E,comdat
	.align 2
	.weak	_ZNSt8_Rb_treeIsSt4pairIKsSt3mapIw13ftgxCharData_St4lessIwESaIS0_IKwS3_EEEESt10_Select1stISA_ES4_IsESaISA_EE8_M_eraseEPSt13_Rb_tree_nodeISA_E
	.type	_ZNSt8_Rb_treeIsSt4pairIKsSt3mapIw13ftgxCharData_St4lessIwESaIS0_IKwS3_EEEESt10_Select1stISA_ES4_IsESaISA_EE8_M_eraseEPSt13_Rb_tree_nodeISA_E, @function
_ZNSt8_Rb_treeIsSt4pairIKsSt3mapIw13ftgxCharData_St4lessIwESaIS0_IKwS3_EEEESt10_Select1stISA_ES4_IsESaISA_EE8_M_eraseEPSt13_Rb_tree_nodeISA_E:
.LFB627:
	.loc 1 1068 0
	.cfi_startproc
.LVL468:
	stwu 1,-64(1)
.LCFI43:
	.cfi_def_cfa_offset 64
	mflr 0
	stw 19,12(1)
.LBB3571:
	.loc 1 1072 0
	mr. 19,4
	.cfi_offset 19, -52
	.cfi_register 65, 0
.LBE3571:
	.loc 1 1068 0
	stw 27,44(1)
	mr 27,3
	.cfi_offset 27, -20
	stw 0,68(1)
	stw 18,8(1)
	stw 20,16(1)
	stw 21,20(1)
	stw 22,24(1)
	stw 23,28(1)
	stw 24,32(1)
	stw 25,36(1)
	stw 26,40(1)
	stw 28,48(1)
	stw 29,52(1)
	stw 30,56(1)
	stw 31,60(1)
.LBB3890:
	.loc 1 1072 0
	beq- 0,.L309
	.cfi_offset 31, -4
	.cfi_offset 30, -8
	.cfi_offset 29, -12
	.cfi_offset 28, -16
	.cfi_offset 26, -24
	.cfi_offset 25, -28
	.cfi_offset 24, -32
	.cfi_offset 23, -36
	.cfi_offset 22, -40
	.cfi_offset 21, -44
	.cfi_offset 20, -48
	.cfi_offset 18, -56
	.cfi_offset 65, 4
.LVL469:
.L454:
	.loc 2 608 0
	lwz 25,12(19)
.LVL470:
.LBB3572:
.LBB3573:
.LBB3574:
	.loc 1 1072 0
	cmpwi 7,25,0
	beq- 7,.L311
.LVL471:
.L455:
.LBE3574:
	.loc 2 608 0
	lwz 24,12(25)
.LVL472:
.LBB3857:
.LBB3575:
.LBB3576:
.LBB3577:
	.loc 1 1072 0
	cmpwi 7,24,0
	beq- 7,.L312
.LVL473:
.L456:
.LBE3577:
	.loc 2 608 0
	lwz 23,12(24)
.LVL474:
.LBB3825:
.LBB3578:
.LBB3579:
.LBB3580:
	.loc 1 1072 0
	cmpwi 7,23,0
	beq- 7,.L313
.LVL475:
.L457:
.LBE3580:
	.loc 2 608 0
	lwz 22,12(23)
.LVL476:
.LBB3793:
.LBB3581:
.LBB3582:
.LBB3583:
	.loc 1 1072 0
	cmpwi 7,22,0
	beq- 7,.L314
.LVL477:
.L458:
.LBE3583:
	.loc 2 608 0
	lwz 21,12(22)
.LVL478:
.LBB3761:
.LBB3584:
.LBB3585:
.LBB3586:
	.loc 1 1072 0
	cmpwi 7,21,0
	beq- 7,.L315
.LVL479:
.L459:
.LBE3586:
	.loc 2 608 0
	lwz 20,12(21)
.LVL480:
.LBB3729:
.LBB3587:
.LBB3588:
.LBB3589:
	.loc 1 1072 0
	cmpwi 7,20,0
	beq- 7,.L316
.LVL481:
.L460:
.LBE3589:
	.loc 2 608 0
	lwz 26,12(20)
.LVL482:
.LBB3697:
.LBB3590:
.LBB3591:
.LBB3592:
	.loc 1 1072 0
	cmpwi 7,26,0
	beq- 7,.L317
.LVL483:
.L461:
.LBE3592:
	.loc 2 608 0
	lwz 29,12(26)
.LVL484:
.LBB3665:
.LBB3593:
.LBB3594:
.LBB3595:
	.loc 1 1072 0
	cmpwi 7,29,0
	beq- 7,.L318
.LVL485:
.L462:
.LBB3596:
	.loc 1 1074 0
	lwz 4,12(29)
	mr 3,27
.LBB3597:
.LBB3598:
.LBB3599:
.LBB3600:
.LBB3601:
.LBB3602:
.LBB3603:
	.file 5 "d:\\devkitpro\\devkitppc\\bin\\../lib/gcc/powerpc-eabi/4.6.3/../../../../powerpc-eabi/include/c++/4.6.3/bits/stl_map.h"
	.loc 5 88 0
	addi 30,29,20
.LBE3603:
.LBE3602:
.LBE3601:
.LBE3600:
.LBE3599:
.LBE3598:
.LBE3597:
	.loc 1 1074 0
	bl _ZNSt8_Rb_treeIsSt4pairIKsSt3mapIw13ftgxCharData_St4lessIwESaIS0_IKwS3_EEEESt10_Select1stISA_ES4_IsESaISA_EE8_M_eraseEPSt13_Rb_tree_nodeISA_E
.LBB3631:
.LBB3626:
.LBB3624:
.LBB3622:
.LBB3620:
.LBB3618:
.LBB3616:
.LBB3604:
	.loc 2 608 0
	lwz 31,28(29)
.LBE3604:
.LBE3616:
.LBE3618:
.LBE3620:
.LBE3622:
.LBE3624:
.LBE3626:
.LBE3631:
.LBE3596:
.LBE3595:
	lwz 28,8(29)
.LVL486:
.LBB3634:
.LBB3633:
.LBB3632:
.LBB3627:
.LBB3625:
.LBB3623:
.LBB3621:
.LBB3619:
.LBB3617:
.LBB3615:
.LBB3605:
.LBB3606:
.LBB3607:
	.loc 1 1072 0
	cmpwi 7,31,0
	beq- 7,.L330
.LVL487:
.L463:
.LBB3608:
	.loc 1 1074 0
	lwz 4,12(31)
	mr 3,30
	bl _ZNSt8_Rb_treeIwSt4pairIKw13ftgxCharData_ESt10_Select1stIS3_ESt4lessIwESaIS3_EE8_M_eraseEPSt13_Rb_tree_nodeIS3_E
.LBE3608:
.LBE3607:
	.loc 2 608 0
	lwz 18,8(31)
.LVL488:
.LBB3614:
.LBB3613:
.LBB3609:
.LBB3610:
.LBB3611:
.LBB3612:
	.loc 3 98 0
	mr 3,31
	bl _ZdlPv
.LVL489:
.LBE3612:
.LBE3611:
.LBE3610:
.LBE3609:
.LBE3613:
	.loc 1 1072 0
	cmpwi 7,18,0
	.loc 1 1077 0
	mr 31,18
.LVL490:
	.loc 1 1072 0
	bne+ 7,.L463
.LVL491:
.L330:
.LBE3614:
.LBE3606:
.LBE3605:
.LBE3615:
.LBE3617:
.LBE3619:
.LBE3621:
.LBE3623:
.LBE3625:
.LBE3627:
.LBB3628:
.LBB3629:
.LBB3630:
	.loc 3 98 0
	mr 3,29
	bl _ZdlPv
.LVL492:
.LBE3630:
.LBE3629:
.LBE3628:
.LBE3632:
.LBE3633:
	.loc 1 1072 0
	cmpwi 7,28,0
	beq- 7,.L318
	.loc 1 1077 0
	mr 29,28
.LVL493:
	b .L462
.LVL494:
.L318:
.LBE3634:
.LBE3594:
.LBB3635:
.LBB3636:
.LBB3637:
.LBB3638:
.LBB3639:
.LBB3640:
.LBB3641:
.LBB3642:
	.loc 2 608 0
	lwz 31,28(26)
.LBE3642:
	.loc 5 88 0
	addi 30,26,20
.LBE3641:
.LBE3640:
.LBE3639:
.LBE3638:
.LBE3637:
.LBE3636:
.LBE3635:
.LBE3593:
.LBE3665:
	.loc 2 608 0
	lwz 29,8(26)
.LVL495:
.LBB3666:
.LBB3664:
.LBB3663:
.LBB3659:
.LBB3658:
.LBB3657:
.LBB3656:
.LBB3655:
.LBB3654:
.LBB3653:
.LBB3643:
.LBB3644:
.LBB3645:
	.loc 1 1072 0
	cmpwi 7,31,0
	beq- 7,.L343
.LVL496:
.L464:
.LBB3646:
	.loc 1 1074 0
	lwz 4,12(31)
	mr 3,30
	bl _ZNSt8_Rb_treeIwSt4pairIKw13ftgxCharData_ESt10_Select1stIS3_ESt4lessIwESaIS3_EE8_M_eraseEPSt13_Rb_tree_nodeIS3_E
.LBE3646:
.LBE3645:
	.loc 2 608 0
	lwz 28,8(31)
.LVL497:
.LBB3652:
.LBB3651:
.LBB3647:
.LBB3648:
.LBB3649:
.LBB3650:
	.loc 3 98 0
	mr 3,31
	bl _ZdlPv
.LVL498:
.LBE3650:
.LBE3649:
.LBE3648:
.LBE3647:
.LBE3651:
	.loc 1 1072 0
	cmpwi 7,28,0
	.loc 1 1077 0
	mr 31,28
.LVL499:
	.loc 1 1072 0
	bne+ 7,.L464
.LVL500:
.L343:
.LBE3652:
.LBE3644:
.LBE3643:
.LBE3653:
.LBE3654:
.LBE3655:
.LBE3656:
.LBE3657:
.LBE3658:
.LBE3659:
.LBB3660:
.LBB3661:
.LBB3662:
	.loc 3 98 0
	mr 3,26
	bl _ZdlPv
.LVL501:
.LBE3662:
.LBE3661:
.LBE3660:
.LBE3663:
.LBE3664:
	.loc 1 1072 0
	cmpwi 7,29,0
	beq- 7,.L317
	.loc 1 1077 0
	mr 26,29
.LVL502:
	b .L461
.LVL503:
.L317:
.LBE3666:
.LBE3591:
.LBB3667:
.LBB3668:
.LBB3669:
.LBB3670:
.LBB3671:
.LBB3672:
.LBB3673:
.LBB3674:
	.loc 2 608 0
	lwz 31,28(20)
.LBE3674:
	.loc 5 88 0
	addi 30,20,20
.LBE3673:
.LBE3672:
.LBE3671:
.LBE3670:
.LBE3669:
.LBE3668:
.LBE3667:
.LBE3590:
.LBE3697:
	.loc 2 608 0
	lwz 29,8(20)
.LVL504:
.LBB3698:
.LBB3696:
.LBB3695:
.LBB3691:
.LBB3690:
.LBB3689:
.LBB3688:
.LBB3687:
.LBB3686:
.LBB3685:
.LBB3675:
.LBB3676:
.LBB3677:
	.loc 1 1072 0
	cmpwi 7,31,0
	beq- 7,.L356
.LVL505:
.L465:
.LBB3678:
	.loc 1 1074 0
	lwz 4,12(31)
	mr 3,30
	bl _ZNSt8_Rb_treeIwSt4pairIKw13ftgxCharData_ESt10_Select1stIS3_ESt4lessIwESaIS3_EE8_M_eraseEPSt13_Rb_tree_nodeIS3_E
.LBE3678:
.LBE3677:
	.loc 2 608 0
	lwz 28,8(31)
.LVL506:
.LBB3684:
.LBB3683:
.LBB3679:
.LBB3680:
.LBB3681:
.LBB3682:
	.loc 3 98 0
	mr 3,31
	bl _ZdlPv
.LVL507:
.LBE3682:
.LBE3681:
.LBE3680:
.LBE3679:
.LBE3683:
	.loc 1 1072 0
	cmpwi 7,28,0
	.loc 1 1077 0
	mr 31,28
.LVL508:
	.loc 1 1072 0
	bne+ 7,.L465
.LVL509:
.L356:
.LBE3684:
.LBE3676:
.LBE3675:
.LBE3685:
.LBE3686:
.LBE3687:
.LBE3688:
.LBE3689:
.LBE3690:
.LBE3691:
.LBB3692:
.LBB3693:
.LBB3694:
	.loc 3 98 0
	mr 3,20
	bl _ZdlPv
.LVL510:
.LBE3694:
.LBE3693:
.LBE3692:
.LBE3695:
.LBE3696:
	.loc 1 1072 0
	cmpwi 7,29,0
	beq- 7,.L316
	.loc 1 1077 0
	mr 20,29
.LVL511:
	b .L460
.LVL512:
.L316:
.LBE3698:
.LBE3588:
.LBB3699:
.LBB3700:
.LBB3701:
.LBB3702:
.LBB3703:
.LBB3704:
.LBB3705:
.LBB3706:
	.loc 2 608 0
	lwz 31,28(21)
.LBE3706:
	.loc 5 88 0
	addi 29,21,20
.LBE3705:
.LBE3704:
.LBE3703:
.LBE3702:
.LBE3701:
.LBE3700:
.LBE3699:
.LBE3587:
.LBE3729:
	.loc 2 608 0
	lwz 30,8(21)
.LVL513:
.LBB3730:
.LBB3728:
.LBB3727:
.LBB3723:
.LBB3722:
.LBB3721:
.LBB3720:
.LBB3719:
.LBB3718:
.LBB3717:
.LBB3707:
.LBB3708:
.LBB3709:
	.loc 1 1072 0
	cmpwi 7,31,0
	beq- 7,.L369
.LVL514:
.L466:
.LBB3710:
	.loc 1 1074 0
	lwz 4,12(31)
	mr 3,29
	bl _ZNSt8_Rb_treeIwSt4pairIKw13ftgxCharData_ESt10_Select1stIS3_ESt4lessIwESaIS3_EE8_M_eraseEPSt13_Rb_tree_nodeIS3_E
.LBE3710:
.LBE3709:
	.loc 2 608 0
	lwz 28,8(31)
.LVL515:
.LBB3716:
.LBB3715:
.LBB3711:
.LBB3712:
.LBB3713:
.LBB3714:
	.loc 3 98 0
	mr 3,31
	bl _ZdlPv
.LVL516:
.LBE3714:
.LBE3713:
.LBE3712:
.LBE3711:
.LBE3715:
	.loc 1 1072 0
	cmpwi 7,28,0
	.loc 1 1077 0
	mr 31,28
.LVL517:
	.loc 1 1072 0
	bne+ 7,.L466
.LVL518:
.L369:
.LBE3716:
.LBE3708:
.LBE3707:
.LBE3717:
.LBE3718:
.LBE3719:
.LBE3720:
.LBE3721:
.LBE3722:
.LBE3723:
.LBB3724:
.LBB3725:
.LBB3726:
	.loc 3 98 0
	mr 3,21
	bl _ZdlPv
.LVL519:
.LBE3726:
.LBE3725:
.LBE3724:
.LBE3727:
.LBE3728:
	.loc 1 1072 0
	cmpwi 7,30,0
	beq- 7,.L315
	.loc 1 1077 0
	mr 21,30
.LVL520:
	b .L459
.LVL521:
.L315:
.LBE3730:
.LBE3585:
.LBB3731:
.LBB3732:
.LBB3733:
.LBB3734:
.LBB3735:
.LBB3736:
.LBB3737:
.LBB3738:
	.loc 2 608 0
	lwz 31,28(22)
.LBE3738:
	.loc 5 88 0
	addi 29,22,20
.LBE3737:
.LBE3736:
.LBE3735:
.LBE3734:
.LBE3733:
.LBE3732:
.LBE3731:
.LBE3584:
.LBE3761:
	.loc 2 608 0
	lwz 30,8(22)
.LVL522:
.LBB3762:
.LBB3760:
.LBB3759:
.LBB3755:
.LBB3754:
.LBB3753:
.LBB3752:
.LBB3751:
.LBB3750:
.LBB3749:
.LBB3739:
.LBB3740:
.LBB3741:
	.loc 1 1072 0
	cmpwi 7,31,0
	beq- 7,.L382
.LVL523:
.L467:
.LBB3742:
	.loc 1 1074 0
	lwz 4,12(31)
	mr 3,29
	bl _ZNSt8_Rb_treeIwSt4pairIKw13ftgxCharData_ESt10_Select1stIS3_ESt4lessIwESaIS3_EE8_M_eraseEPSt13_Rb_tree_nodeIS3_E
.LBE3742:
.LBE3741:
	.loc 2 608 0
	lwz 28,8(31)
.LVL524:
.LBB3748:
.LBB3747:
.LBB3743:
.LBB3744:
.LBB3745:
.LBB3746:
	.loc 3 98 0
	mr 3,31
	bl _ZdlPv
.LVL525:
.LBE3746:
.LBE3745:
.LBE3744:
.LBE3743:
.LBE3747:
	.loc 1 1072 0
	cmpwi 7,28,0
	.loc 1 1077 0
	mr 31,28
.LVL526:
	.loc 1 1072 0
	bne+ 7,.L467
.LVL527:
.L382:
.LBE3748:
.LBE3740:
.LBE3739:
.LBE3749:
.LBE3750:
.LBE3751:
.LBE3752:
.LBE3753:
.LBE3754:
.LBE3755:
.LBB3756:
.LBB3757:
.LBB3758:
	.loc 3 98 0
	mr 3,22
	bl _ZdlPv
.LVL528:
.LBE3758:
.LBE3757:
.LBE3756:
.LBE3759:
.LBE3760:
	.loc 1 1072 0
	cmpwi 7,30,0
	beq- 7,.L314
	.loc 1 1077 0
	mr 22,30
.LVL529:
	b .L458
.LVL530:
.L314:
.LBE3762:
.LBE3582:
.LBB3763:
.LBB3764:
.LBB3765:
.LBB3766:
.LBB3767:
.LBB3768:
.LBB3769:
.LBB3770:
	.loc 2 608 0
	lwz 31,28(23)
.LBE3770:
	.loc 5 88 0
	addi 29,23,20
.LBE3769:
.LBE3768:
.LBE3767:
.LBE3766:
.LBE3765:
.LBE3764:
.LBE3763:
.LBE3581:
.LBE3793:
	.loc 2 608 0
	lwz 30,8(23)
.LVL531:
.LBB3794:
.LBB3792:
.LBB3791:
.LBB3787:
.LBB3786:
.LBB3785:
.LBB3784:
.LBB3783:
.LBB3782:
.LBB3781:
.LBB3771:
.LBB3772:
.LBB3773:
	.loc 1 1072 0
	cmpwi 7,31,0
	beq- 7,.L395
.LVL532:
.L468:
.LBB3774:
	.loc 1 1074 0
	lwz 4,12(31)
	mr 3,29
	bl _ZNSt8_Rb_treeIwSt4pairIKw13ftgxCharData_ESt10_Select1stIS3_ESt4lessIwESaIS3_EE8_M_eraseEPSt13_Rb_tree_nodeIS3_E
.LBE3774:
.LBE3773:
	.loc 2 608 0
	lwz 28,8(31)
.LVL533:
.LBB3780:
.LBB3779:
.LBB3775:
.LBB3776:
.LBB3777:
.LBB3778:
	.loc 3 98 0
	mr 3,31
	bl _ZdlPv
.LVL534:
.LBE3778:
.LBE3777:
.LBE3776:
.LBE3775:
.LBE3779:
	.loc 1 1072 0
	cmpwi 7,28,0
	.loc 1 1077 0
	mr 31,28
.LVL535:
	.loc 1 1072 0
	bne+ 7,.L468
.LVL536:
.L395:
.LBE3780:
.LBE3772:
.LBE3771:
.LBE3781:
.LBE3782:
.LBE3783:
.LBE3784:
.LBE3785:
.LBE3786:
.LBE3787:
.LBB3788:
.LBB3789:
.LBB3790:
	.loc 3 98 0
	mr 3,23
	bl _ZdlPv
.LVL537:
.LBE3790:
.LBE3789:
.LBE3788:
.LBE3791:
.LBE3792:
	.loc 1 1072 0
	cmpwi 7,30,0
	beq- 7,.L313
	.loc 1 1077 0
	mr 23,30
.LVL538:
	b .L457
.LVL539:
.L313:
.LBE3794:
.LBE3579:
.LBB3795:
.LBB3796:
.LBB3797:
.LBB3798:
.LBB3799:
.LBB3800:
.LBB3801:
.LBB3802:
	.loc 2 608 0
	lwz 31,28(24)
.LBE3802:
	.loc 5 88 0
	addi 29,24,20
.LBE3801:
.LBE3800:
.LBE3799:
.LBE3798:
.LBE3797:
.LBE3796:
.LBE3795:
.LBE3578:
.LBE3825:
	.loc 2 608 0
	lwz 30,8(24)
.LVL540:
.LBB3826:
.LBB3824:
.LBB3823:
.LBB3819:
.LBB3818:
.LBB3817:
.LBB3816:
.LBB3815:
.LBB3814:
.LBB3813:
.LBB3803:
.LBB3804:
.LBB3805:
	.loc 1 1072 0
	cmpwi 7,31,0
	beq- 7,.L408
.LVL541:
.L469:
.LBB3806:
	.loc 1 1074 0
	lwz 4,12(31)
	mr 3,29
	bl _ZNSt8_Rb_treeIwSt4pairIKw13ftgxCharData_ESt10_Select1stIS3_ESt4lessIwESaIS3_EE8_M_eraseEPSt13_Rb_tree_nodeIS3_E
.LBE3806:
.LBE3805:
	.loc 2 608 0
	lwz 28,8(31)
.LVL542:
.LBB3812:
.LBB3811:
.LBB3807:
.LBB3808:
.LBB3809:
.LBB3810:
	.loc 3 98 0
	mr 3,31
	bl _ZdlPv
.LVL543:
.LBE3810:
.LBE3809:
.LBE3808:
.LBE3807:
.LBE3811:
	.loc 1 1072 0
	cmpwi 7,28,0
	.loc 1 1077 0
	mr 31,28
.LVL544:
	.loc 1 1072 0
	bne+ 7,.L469
.LVL545:
.L408:
.LBE3812:
.LBE3804:
.LBE3803:
.LBE3813:
.LBE3814:
.LBE3815:
.LBE3816:
.LBE3817:
.LBE3818:
.LBE3819:
.LBB3820:
.LBB3821:
.LBB3822:
	.loc 3 98 0
	mr 3,24
	bl _ZdlPv
.LVL546:
.LBE3822:
.LBE3821:
.LBE3820:
.LBE3823:
.LBE3824:
	.loc 1 1072 0
	cmpwi 7,30,0
	beq- 7,.L312
	.loc 1 1077 0
	mr 24,30
.LVL547:
	b .L456
.LVL548:
.L312:
.LBE3826:
.LBE3576:
.LBB3827:
.LBB3828:
.LBB3829:
.LBB3830:
.LBB3831:
.LBB3832:
.LBB3833:
.LBB3834:
	.loc 2 608 0
	lwz 31,28(25)
.LBE3834:
	.loc 5 88 0
	addi 29,25,20
.LBE3833:
.LBE3832:
.LBE3831:
.LBE3830:
.LBE3829:
.LBE3828:
.LBE3827:
.LBE3575:
.LBE3857:
	.loc 2 608 0
	lwz 30,8(25)
.LVL549:
.LBB3858:
.LBB3856:
.LBB3855:
.LBB3851:
.LBB3850:
.LBB3849:
.LBB3848:
.LBB3847:
.LBB3846:
.LBB3845:
.LBB3835:
.LBB3836:
.LBB3837:
	.loc 1 1072 0
	cmpwi 7,31,0
	beq- 7,.L421
.LVL550:
.L470:
.LBB3838:
	.loc 1 1074 0
	lwz 4,12(31)
	mr 3,29
	bl _ZNSt8_Rb_treeIwSt4pairIKw13ftgxCharData_ESt10_Select1stIS3_ESt4lessIwESaIS3_EE8_M_eraseEPSt13_Rb_tree_nodeIS3_E
.LBE3838:
.LBE3837:
	.loc 2 608 0
	lwz 28,8(31)
.LVL551:
.LBB3844:
.LBB3843:
.LBB3839:
.LBB3840:
.LBB3841:
.LBB3842:
	.loc 3 98 0
	mr 3,31
	bl _ZdlPv
.LVL552:
.LBE3842:
.LBE3841:
.LBE3840:
.LBE3839:
.LBE3843:
	.loc 1 1072 0
	cmpwi 7,28,0
	.loc 1 1077 0
	mr 31,28
.LVL553:
	.loc 1 1072 0
	bne+ 7,.L470
.LVL554:
.L421:
.LBE3844:
.LBE3836:
.LBE3835:
.LBE3845:
.LBE3846:
.LBE3847:
.LBE3848:
.LBE3849:
.LBE3850:
.LBE3851:
.LBB3852:
.LBB3853:
.LBB3854:
	.loc 3 98 0
	mr 3,25
	bl _ZdlPv
.LVL555:
.LBE3854:
.LBE3853:
.LBE3852:
.LBE3855:
.LBE3856:
	.loc 1 1072 0
	cmpwi 7,30,0
	beq- 7,.L311
	.loc 1 1077 0
	mr 25,30
.LVL556:
	b .L455
.LVL557:
.L311:
.LBE3858:
.LBE3573:
.LBB3860:
.LBB3861:
.LBB3862:
.LBB3863:
.LBB3864:
.LBB3865:
.LBB3866:
.LBB3867:
	.loc 2 608 0
	lwz 31,28(19)
.LBE3867:
	.loc 5 88 0
	addi 29,19,20
.LBE3866:
.LBE3865:
.LBE3864:
.LBE3863:
.LBE3862:
.LBE3861:
.LBE3860:
.LBB3888:
.LBB3859:
	.loc 2 608 0
	lwz 30,8(19)
.LVL558:
.LBE3859:
.LBE3888:
.LBB3889:
.LBB3884:
.LBB3883:
.LBB3882:
.LBB3881:
.LBB3880:
.LBB3879:
.LBB3878:
.LBB3868:
.LBB3869:
.LBB3870:
	.loc 1 1072 0
	cmpwi 7,31,0
	beq- 7,.L434
.LVL559:
.L471:
.LBB3871:
	.loc 1 1074 0
	lwz 4,12(31)
	mr 3,29
	bl _ZNSt8_Rb_treeIwSt4pairIKw13ftgxCharData_ESt10_Select1stIS3_ESt4lessIwESaIS3_EE8_M_eraseEPSt13_Rb_tree_nodeIS3_E
.LBE3871:
.LBE3870:
	.loc 2 608 0
	lwz 28,8(31)
.LVL560:
.LBB3877:
.LBB3876:
.LBB3872:
.LBB3873:
.LBB3874:
.LBB3875:
	.loc 3 98 0
	mr 3,31
	bl _ZdlPv
.LVL561:
.LBE3875:
.LBE3874:
.LBE3873:
.LBE3872:
.LBE3876:
	.loc 1 1072 0
	cmpwi 7,28,0
	.loc 1 1077 0
	mr 31,28
.LVL562:
	.loc 1 1072 0
	bne+ 7,.L471
.LVL563:
.L434:
.LBE3877:
.LBE3869:
.LBE3868:
.LBE3878:
.LBE3879:
.LBE3880:
.LBE3881:
.LBE3882:
.LBE3883:
.LBE3884:
.LBB3885:
.LBB3886:
.LBB3887:
	.loc 3 98 0
	mr 3,19
	bl _ZdlPv
.LVL564:
.LBE3887:
.LBE3886:
.LBE3885:
.LBE3889:
.LBE3572:
	.loc 1 1072 0
	cmpwi 7,30,0
	beq- 7,.L309
	.loc 1 1077 0
	mr 19,30
.LVL565:
	b .L454
.LVL566:
.L309:
.LBE3890:
	.loc 1 1079 0
	lwz 0,68(1)
	lwz 18,8(1)
	mtlr 0
	lwz 19,12(1)
	lwz 20,16(1)
	lwz 21,20(1)
	lwz 22,24(1)
	lwz 23,28(1)
	lwz 24,32(1)
	lwz 25,36(1)
	lwz 26,40(1)
	lwz 27,44(1)
.LVL567:
	lwz 28,48(1)
	lwz 29,52(1)
	lwz 30,56(1)
	lwz 31,60(1)
	addi 1,1,64
.LCFI44:
	.cfi_def_cfa_offset 0
	.cfi_restore 31
	.cfi_restore 30
	.cfi_restore 29
	.cfi_restore 28
	.cfi_restore 27
	.cfi_restore 26
	.cfi_restore 25
	.cfi_restore 24
	.cfi_restore 23
	.cfi_restore 22
	.cfi_restore 21
	.cfi_restore 20
	.cfi_restore 19
	.cfi_restore 18
	blr
	.cfi_endproc
.LFE627:
	.size	_ZNSt8_Rb_treeIsSt4pairIKsSt3mapIw13ftgxCharData_St4lessIwESaIS0_IKwS3_EEEESt10_Select1stISA_ES4_IsESaISA_EE8_M_eraseEPSt13_Rb_tree_nodeISA_E, .-_ZNSt8_Rb_treeIsSt4pairIKsSt3mapIw13ftgxCharData_St4lessIwESaIS0_IKwS3_EEEESt10_Select1stISA_ES4_IsESaISA_EE8_M_eraseEPSt13_Rb_tree_nodeISA_E
	.section	".text"
	.align 2
	.globl _ZN10FreeTypeGXC2EPKhlb
	.type	_ZN10FreeTypeGXC2EPKhlb, @function
_ZN10FreeTypeGXC2EPKhlb:
.LFB547:
	.loc 2 64 0
	.cfi_startproc
	.cfi_personality 0,__gxx_personality_v0
	.cfi_lsda 0,.LLSDA547
.LVL568:
	mflr 0
	stwu 1,-32(1)
.LCFI45:
	.cfi_def_cfa_offset 32
	.cfi_register 65, 0
.LBB3931:
.LBB3932:
.LBB3933:
.LBB3934:
.LBB3935:
.LBB3936:
	.loc 1 459 0
	addi 11,3,16
.LBE3936:
.LBE3935:
.LBE3934:
.LBE3933:
.LBE3932:
.LBE3931:
.LBB3945:
.LBB3946:
.LBB3947:
.LBB3948:
.LBB3949:
.LBB3950:
	addi 9,3,40
.LBE3950:
.LBE3949:
.LBE3948:
.LBE3947:
.LBE3946:
.LBE3945:
	.loc 2 64 0
	stw 28,16(1)
	mr 28,4
	.cfi_offset 28, -16
	stw 0,36(1)
.LBB3956:
.LBB3943:
.LBB3941:
.LBB3939:
	.loc 1 445 0
	li 0,0
	.cfi_offset 65, 4
.LBE3939:
.LBE3941:
.LBE3943:
.LBE3956:
	.loc 2 64 0
	stw 29,20(1)
	mr 29,5
	.cfi_offset 29, -12
	stw 30,24(1)
	mr 30,6
	.cfi_offset 30, -8
	stw 31,28(1)
	mr 31,3
	.cfi_offset 31, -4
.LVL569:
	stw 27,12(1)
.LBB3957:
.LBB3944:
.LBB3942:
.LBB3940:
	.loc 1 445 0
	stw 0,16(3)
	stw 0,20(3)
	stw 0,32(3)
.LVL570:
.LBB3938:
.LBB3937:
	.loc 1 459 0
	stw 11,24(3)
	.loc 1 460 0
	stw 11,28(3)
.LVL571:
.LBE3937:
.LBE3938:
.LBE3940:
.LBE3942:
.LBE3944:
.LBE3957:
.LBB3958:
.LBB3955:
.LBB3954:
.LBB3953:
	.loc 1 445 0
	stw 0,40(3)
	stw 0,44(3)
	stw 0,56(3)
.LVL572:
.LBB3952:
.LBB3951:
	.loc 1 459 0
	stw 9,48(3)
	.loc 1 460 0
	stw 9,52(3)
.LVL573:
.LBE3951:
.LBE3952:
.LBE3953:
.LBE3954:
.LBE3955:
.LBE3958:
.LBB3959:
	.loc 2 67 0
	sth 0,8(3)
.LEHB0:
	.loc 2 69 0
	.cfi_offset 27, -20
	bl FT_Init_FreeType
.LVL574:
	.loc 2 70 0
	cmpwi 7,30,0
	.loc 2 66 0
	li 6,0
	addi 30,31,4
.LVL575:
	.loc 2 70 0
	beq- 7,.L473
	.loc 2 72 0
	lwz 3,0(31)
	mr 4,28
	mr 5,29
	li 6,-1
	mr 7,30
	bl FT_New_Memory_Face
	.loc 2 73 0
	lwz 9,4(31)
	.loc 2 74 0
	mr 3,9
	.loc 2 73 0
	lwz 27,0(9)
.LVL576:
	.loc 2 74 0
	bl FT_Done_Face
.LVL577:
	.loc 2 75 0
	li 0,0
	.loc 2 73 0
	addi 6,27,-1
	.loc 2 75 0
	stw 0,4(31)
.LVL578:
.L473:
	.loc 2 77 0
	lwz 3,0(31)
	mr 4,28
	mr 5,29
	mr 7,30
	bl FT_New_Memory_Face
.LVL579:
.LBB3960:
.LBB3961:
	.loc 2 104 0
	li 0,1
	.loc 2 105 0
	li 3,1
	.loc 2 104 0
	stb 0,11(31)
	.loc 2 105 0
	li 4,9
	li 5,1
	li 6,3
	li 7,0
	bl GX_SetVtxAttrFmt
	.loc 2 106 0
	lbz 3,11(31)
	li 4,13
	li 5,1
	li 6,4
	li 7,0
	bl GX_SetVtxAttrFmt
	.loc 2 107 0
	lbz 3,11(31)
	li 4,11
	li 5,1
	li 6,5
	li 7,0
	bl GX_SetVtxAttrFmt
.LEHE0:
.LBE3961:
.LBE3960:
	.loc 2 80 0
	li 0,0
.LBE3959:
	.loc 2 81 0
	lwz 27,12(1)
.LBB3962:
	.loc 2 80 0
	stb 0,10(31)
.LBE3962:
	.loc 2 81 0
	lwz 0,36(1)
	lwz 28,16(1)
.LVL580:
	mtlr 0
	lwz 29,20(1)
.LVL581:
	lwz 30,24(1)
	lwz 31,28(1)
.LVL582:
	addi 1,1,32
	.cfi_remember_state
.LCFI46:
	.cfi_def_cfa_offset 0
	.cfi_restore 31
	.cfi_restore 30
	.cfi_restore 29
	.cfi_restore 28
	.cfi_restore 27
	blr
.LVL583:
.L486:
.LCFI47:
	.cfi_restore_state
.LBB3963:
.LBB3964:
.LBB3965:
.LBB3966:
.LBB3967:
.LBB3968:
	.loc 1 639 0
	lwz 4,44(31)
	mr 30,3
.LVL584:
	addi 3,31,36
	bl _ZNSt8_Rb_treeIsSt4pairIKs15ftgxDataOffset_ESt10_Select1stIS3_ESt4lessIsESaIS3_EE8_M_eraseEPSt13_Rb_tree_nodeIS3_E
.LVL585:
.LBE3968:
.LBE3967:
.LBE3966:
.LBE3965:
.LBE3964:
.LBE3963:
.LBB3969:
.LBB3970:
.LBB3971:
.LBB3972:
.LBB3973:
.LBB3974:
	lwz 4,20(31)
	addi 3,31,12
	bl _ZNSt8_Rb_treeIsSt4pairIKsSt3mapIw13ftgxCharData_St4lessIwESaIS0_IKwS3_EEEESt10_Select1stISA_ES4_IsESaISA_EE8_M_eraseEPSt13_Rb_tree_nodeISA_E
	mr 3,30
.LEHB1:
	bl _Unwind_Resume
.LEHE1:
.LBE3974:
.LBE3973:
.LBE3972:
.LBE3971:
.LBE3970:
.LBE3969:
	.cfi_endproc
.LFE547:
	.globl __gxx_personality_v0
	.section	.gcc_except_table,"a",@progbits
.LLSDA547:
	.byte	0xff
	.byte	0xff
	.byte	0x1
	.uleb128 .LLSDACSE547-.LLSDACSB547
.LLSDACSB547:
	.uleb128 .LEHB0-.LFB547
	.uleb128 .LEHE0-.LEHB0
	.uleb128 .L486-.LFB547
	.uleb128 0
	.uleb128 .LEHB1-.LFB547
	.uleb128 .LEHE1-.LEHB1
	.uleb128 0
	.uleb128 0
.LLSDACSE547:
	.section	".text"
	.size	_ZN10FreeTypeGXC2EPKhlb, .-_ZN10FreeTypeGXC2EPKhlb
	.align 2
	.globl _ZN10FreeTypeGX10unloadFontEv
	.type	_ZN10FreeTypeGX10unloadFontEv, @function
_ZN10FreeTypeGX10unloadFontEv:
.LFB553:
	.loc 2 116 0
	.cfi_startproc
.LVL586:
	mflr 0
	stwu 1,-32(1)
.LCFI48:
	.cfi_def_cfa_offset 32
	.cfi_register 65, 0
	stw 29,20(1)
	mr 29,3
	.cfi_offset 29, -12
.LVL587:
	stw 0,36(1)
	stw 27,12(1)
.LBB3975:
	.loc 2 117 0
	lwz 0,32(3)
	.cfi_offset 27, -20
	.cfi_offset 65, 4
.LBE3975:
	.loc 2 116 0
	stw 28,16(1)
.LBB4019:
	.loc 2 117 0
	cmpwi 7,0,0
.LBE4019:
	.loc 2 116 0
	stw 30,24(1)
	stw 31,28(1)
.LBB4020:
	.loc 2 117 0
	beq- 7,.L487
	.cfi_offset 31, -4
	.cfi_offset 30, -8
	.cfi_offset 28, -16
.LVL588:
.LBB3976:
	.loc 2 608 0
	lwz 30,24(3)
.LVL589:
.LBE3976:
.LBB3977:
.LBB3978:
.LBB3979:
	.loc 1 665 0
	addi 28,3,16
.LVL590:
.LBE3979:
.LBE3978:
.LBE3977:
	.loc 2 122 0
	cmpw 7,30,28
	beq- 7,.L489
.LVL591:
.L493:
.LBB3980:
	.loc 2 608 0
	lwz 27,32(30)
.LVL592:
.LBE3980:
.LBB3981:
.LBB3982:
.LBB3983:
	.loc 1 665 0
	addi 31,30,24
.LVL593:
.LBE3983:
.LBE3982:
.LBE3981:
	.loc 2 124 0
	cmpw 7,27,31
	beq- 7,.L490
.LVL594:
.L494:
	.loc 2 125 0
	lwz 3,40(27)
	bl MEM2_free
.LVL595:
.LBB3984:
.LBB3985:
	.loc 1 196 0
	mr 3,27
	bl _ZSt18_Rb_tree_incrementPSt18_Rb_tree_node_base
.LBE3985:
.LBE3984:
	.loc 2 124 0
	cmpw 7,3,31
.LBB3987:
.LBB3986:
	.loc 1 196 0
	mr 27,3
.LVL596:
.LBE3986:
.LBE3987:
	.loc 2 124 0
	bne+ 7,.L494
.LVL597:
.L490:
.LBB3988:
.LBB3989:
.LBB3990:
.LBB3991:
	.loc 1 809 0
	lwz 4,28(30)
	addi 3,30,20
	bl _ZNSt8_Rb_treeIwSt4pairIKw13ftgxCharData_ESt10_Select1stIS3_ESt4lessIwESaIS3_EE8_M_eraseEPSt13_Rb_tree_nodeIS3_E
.LVL598:
	.loc 1 811 0
	li 0,0
	.loc 1 810 0
	stw 31,32(30)
.LVL599:
.LBE3991:
.LBE3990:
.LBE3989:
.LBE3988:
.LBB3995:
.LBB3996:
	.loc 1 196 0
	mr 3,30
.LBE3996:
.LBE3995:
.LBB3999:
.LBB3994:
.LBB3993:
.LBB3992:
	.loc 1 811 0
	stw 0,28(30)
.LVL600:
	.loc 1 812 0
	stw 31,36(30)
	.loc 1 813 0
	stw 0,40(30)
.LVL601:
.LBE3992:
.LBE3993:
.LBE3994:
.LBE3999:
.LBB4000:
.LBB3997:
	.loc 1 196 0
	bl _ZSt18_Rb_tree_incrementPSt18_Rb_tree_node_base
.LBE3997:
.LBE4000:
	.loc 2 122 0
	cmpw 7,3,28
.LBB4001:
.LBB3998:
	.loc 1 196 0
	mr 30,3
.LVL602:
.LBE3998:
.LBE4001:
	.loc 2 122 0
	bne+ 7,.L493
.LVL603:
.L489:
.LBB4002:
.LBB4003:
.LBB4004:
.LBB4005:
	.loc 1 809 0
	lwz 4,20(29)
	.loc 1 811 0
	li 31,0
	.loc 1 809 0
	addi 3,29,12
	bl _ZNSt8_Rb_treeIsSt4pairIKsSt3mapIw13ftgxCharData_St4lessIwESaIS0_IKwS3_EEEESt10_Select1stISA_ES4_IsESaISA_EE8_M_eraseEPSt13_Rb_tree_nodeISA_E
.LVL604:
	.loc 1 810 0
	stw 28,24(29)
.LVL605:
	.loc 1 811 0
	stw 31,20(29)
.LVL606:
.LBE4005:
.LBE4004:
.LBE4003:
.LBE4002:
.LBB4009:
.LBB4010:
.LBB4011:
.LBB4012:
	.loc 1 809 0
	addi 3,29,36
.LBE4012:
.LBE4011:
.LBE4010:
.LBE4009:
.LBB4017:
.LBB4008:
.LBB4007:
.LBB4006:
	.loc 1 812 0
	stw 28,28(29)
	.loc 1 813 0
	stw 31,32(29)
.LVL607:
.LBE4006:
.LBE4007:
.LBE4008:
.LBE4017:
.LBB4018:
.LBB4016:
.LBB4015:
.LBB4013:
	.loc 1 809 0
	lwz 4,44(29)
	bl _ZNSt8_Rb_treeIsSt4pairIKs15ftgxDataOffset_ESt10_Select1stIS3_ESt4lessIsESaIS3_EE8_M_eraseEPSt13_Rb_tree_nodeIS3_E
.LVL608:
.LBE4013:
	.loc 1 810 0
	addi 0,29,40
.LBB4014:
	stw 0,48(29)
	.loc 1 811 0
	stw 31,44(29)
	.loc 1 812 0
	stw 0,52(29)
	.loc 1 813 0
	stw 31,56(29)
.LVL609:
.L487:
.LBE4014:
.LBE4015:
.LBE4016:
.LBE4018:
.LBE4020:
	.loc 2 132 0
	lwz 0,36(1)
	lwz 27,12(1)
	mtlr 0
	lwz 28,16(1)
	lwz 29,20(1)
.LVL610:
	lwz 30,24(1)
	lwz 31,28(1)
	addi 1,1,32
.LCFI49:
	.cfi_def_cfa_offset 0
	.cfi_restore 31
	.cfi_restore 30
	.cfi_restore 29
	.cfi_restore 28
	.cfi_restore 27
	blr
	.cfi_endproc
.LFE553:
	.size	_ZN10FreeTypeGX10unloadFontEv, .-_ZN10FreeTypeGX10unloadFontEv
	.align 2
	.globl _ZN10FreeTypeGXD2Ev
	.type	_ZN10FreeTypeGXD2Ev, @function
_ZN10FreeTypeGXD2Ev:
.LFB550:
	.loc 2 86 0
	.cfi_startproc
	.cfi_personality 0,__gxx_personality_v0
	.cfi_lsda 0,.LLSDA550
.LVL611:
	mflr 0
	stwu 1,-16(1)
.LCFI50:
	.cfi_def_cfa_offset 16
	.cfi_register 65, 0
	stw 31,12(1)
	mr 31,3
	.cfi_offset 31, -4
	stw 0,20(1)
	stw 30,8(1)
.LEHB2:
.LBB4021:
	.loc 2 88 0
	.cfi_offset 30, -8
	.cfi_offset 65, 4
	bl _ZN10FreeTypeGX10unloadFontEv
.LVL612:
	.loc 2 89 0
	lwz 3,4(31)
	bl FT_Done_Face
	.loc 2 90 0
	lwz 3,0(31)
	bl FT_Done_FreeType
.LEHE2:
.LVL613:
.LBB4022:
.LBB4023:
.LBB4024:
.LBB4025:
.LBB4026:
.LBB4027:
	.loc 1 639 0
	lwz 4,44(31)
	addi 3,31,36
	bl _ZNSt8_Rb_treeIsSt4pairIKs15ftgxDataOffset_ESt10_Select1stIS3_ESt4lessIsESaIS3_EE8_M_eraseEPSt13_Rb_tree_nodeIS3_E
.LVL614:
.LBE4027:
.LBE4026:
.LBE4025:
.LBE4024:
.LBE4023:
.LBE4022:
.LBB4028:
.LBB4029:
.LBB4030:
.LBB4031:
.LBB4032:
.LBB4033:
	lwz 4,20(31)
	addi 3,31,12
	bl _ZNSt8_Rb_treeIsSt4pairIKsSt3mapIw13ftgxCharData_St4lessIwESaIS0_IKwS3_EEEESt10_Select1stISA_ES4_IsESaISA_EE8_M_eraseEPSt13_Rb_tree_nodeISA_E
.LBE4033:
.LBE4032:
.LBE4031:
.LBE4030:
.LBE4029:
.LBE4028:
.LBE4021:
	.loc 2 91 0
	lwz 0,20(1)
	lwz 30,8(1)
	mtlr 0
	lwz 31,12(1)
.LVL615:
	addi 1,1,16
	.cfi_remember_state
.LCFI51:
	.cfi_def_cfa_offset 0
	.cfi_restore 31
	.cfi_restore 30
	blr
.LVL616:
.L520:
.LCFI52:
	.cfi_restore_state
.LBB4046:
.LBB4034:
.LBB4035:
.LBB4036:
.LBB4037:
.LBB4038:
.LBB4039:
	.loc 1 639 0
	lwz 4,44(31)
	mr 30,3
.LVL617:
	addi 3,31,36
	bl _ZNSt8_Rb_treeIsSt4pairIKs15ftgxDataOffset_ESt10_Select1stIS3_ESt4lessIsESaIS3_EE8_M_eraseEPSt13_Rb_tree_nodeIS3_E
.LVL618:
.LBE4039:
.LBE4038:
.LBE4037:
.LBE4036:
.LBE4035:
.LBE4034:
.LBB4040:
.LBB4041:
.LBB4042:
.LBB4043:
.LBB4044:
.LBB4045:
	lwz 4,20(31)
	addi 3,31,12
	bl _ZNSt8_Rb_treeIsSt4pairIKsSt3mapIw13ftgxCharData_St4lessIwESaIS0_IKwS3_EEEESt10_Select1stISA_ES4_IsESaISA_EE8_M_eraseEPSt13_Rb_tree_nodeISA_E
	mr 3,30
.LEHB3:
	bl _Unwind_Resume
.LEHE3:
.LBE4045:
.LBE4044:
.LBE4043:
.LBE4042:
.LBE4041:
.LBE4040:
.LBE4046:
	.cfi_endproc
.LFE550:
	.section	.gcc_except_table
.LLSDA550:
	.byte	0xff
	.byte	0xff
	.byte	0x1
	.uleb128 .LLSDACSE550-.LLSDACSB550
.LLSDACSB550:
	.uleb128 .LEHB2-.LFB550
	.uleb128 .LEHE2-.LEHB2
	.uleb128 .L520-.LFB550
	.uleb128 0
	.uleb128 .LEHB3-.LFB550
	.uleb128 .LEHE3-.LEHB3
	.uleb128 0
	.uleb128 0
.LLSDACSE550:
	.section	".text"
	.size	_ZN10FreeTypeGXD2Ev, .-_ZN10FreeTypeGXD2Ev
	.section	.text._ZNSt8_Rb_treeIwSt4pairIKw13ftgxCharData_ESt10_Select1stIS3_ESt4lessIwESaIS3_EE7_M_copyEPKSt13_Rb_tree_nodeIS3_EPSB_,"axG",@progbits,_ZNSt8_Rb_treeIwSt4pairIKw13ftgxCharData_ESt10_Select1stIS3_ESt4lessIwESaIS3_EE7_M_copyEPKSt13_Rb_tree_nodeIS3_EPSB_,comdat
	.align 2
	.weak	_ZNSt8_Rb_treeIwSt4pairIKw13ftgxCharData_ESt10_Select1stIS3_ESt4lessIwESaIS3_EE7_M_copyEPKSt13_Rb_tree_nodeIS3_EPSB_
	.type	_ZNSt8_Rb_treeIwSt4pairIKw13ftgxCharData_ESt10_Select1stIS3_ESt4lessIwESaIS3_EE7_M_copyEPKSt13_Rb_tree_nodeIS3_EPSB_, @function
_ZNSt8_Rb_treeIwSt4pairIKw13ftgxCharData_ESt10_Select1stIS3_ESt4lessIwESaIS3_EE7_M_copyEPKSt13_Rb_tree_nodeIS3_EPSB_:
.LFB879:
	.loc 1 1032 0
	.cfi_startproc
	.cfi_personality 0,__gxx_personality_v0
	.cfi_lsda 0,.LLSDA879
.LVL619:
	stwu 1,-40(1)
.LCFI53:
	.cfi_def_cfa_offset 40
	mflr 0
	stw 28,24(1)
	mr 28,3
	.cfi_offset 28, -16
	.cfi_register 65, 0
.LBB4078:
.LBB4079:
.LBB4080:
.LBB4081:
.LBB4082:
.LBB4083:
.LBB4084:
.LBB4085:
	.loc 3 92 0
	li 3,44
.LVL620:
.LBE4085:
.LBE4084:
.LBE4083:
.LBE4082:
.LBE4081:
.LBE4080:
.LBE4079:
.LBE4078:
	.loc 1 1032 0
	stw 27,20(1)
	stw 30,32(1)
	mr 30,5
	.cfi_offset 30, -8
	.cfi_offset 27, -20
	stw 31,36(1)
	mr 31,4
	.cfi_offset 31, -4
.LVL621:
	stw 0,44(1)
	stw 29,28(1)
.LEHB4:
.LBB4122:
.LBB4100:
.LBB4098:
.LBB4097:
.LBB4096:
.LBB4090:
.LBB4088:
.LBB4086:
	.loc 3 92 0
	.cfi_offset 29, -12
	.cfi_offset 65, 4
	bl _Znwj
.LEHE4:
.LVL622:
.LBE4086:
.LBE4088:
.LBE4090:
.LBB4091:
.LBB4092:
	.loc 3 108 0
	cmpwi 7,3,-16
.LBE4092:
.LBE4091:
.LBB4094:
.LBB4089:
.LBB4087:
	.loc 3 92 0
	mr 27,3
.LVL623:
.LBE4087:
.LBE4089:
.LBE4094:
.LBB4095:
.LBB4093:
	.loc 3 108 0
	beq- 7,.L523
	lwz 11,20(31)
	lwz 9,24(31)
	lwz 0,28(31)
	lwz 10,16(31)
	stw 11,20(3)
	stw 10,16(3)
	stw 9,24(3)
	stw 0,28(3)
	lwz 11,32(31)
	lwz 9,36(31)
	lwz 0,40(31)
	stw 11,32(3)
	stw 9,36(3)
	stw 0,40(3)
.LVL624:
.L523:
.LBE4093:
.LBE4095:
.LBE4096:
.LBE4097:
	.loc 1 429 0
	li 0,0
	.loc 1 428 0
	lwz 9,0(31)
	.loc 1 430 0
	stw 0,12(27)
	.loc 1 428 0
	stw 9,0(27)
.LBE4098:
.LBE4100:
.LBB4101:
	.loc 1 1041 0
	lwz 4,12(31)
.LBE4101:
.LBB4119:
.LBB4099:
	.loc 1 429 0
	stw 0,8(27)
.LBE4099:
.LBE4119:
.LBB4120:
	.loc 1 1041 0
	cmpwi 7,4,0
.LBE4120:
	.loc 1 1037 0
	stw 30,4(27)
.LBB4121:
	.loc 1 1041 0
	beq- 7,.L524
	.loc 1 1042 0
	mr 3,28
.LVL625:
	mr 5,27
.LEHB5:
	bl _ZNSt8_Rb_treeIwSt4pairIKw13ftgxCharData_ESt10_Select1stIS3_ESt4lessIwESaIS3_EE7_M_copyEPKSt13_Rb_tree_nodeIS3_EPSB_
	stw 3,12(27)
.L524:
.LVL626:
	.loc 2 608 0
	lwz 30,8(31)
.LVL627:
	.loc 1 1046 0
	mr 29,27
	cmpwi 7,30,0
	bne+ 7,.L529
	b .L525
.LVL628:
.L532:
	mr 29,31
.LVL629:
.L529:
.LBB4102:
.LBB4103:
.LBB4104:
.LBB4105:
.LBB4106:
.LBB4107:
.LBB4108:
.LBB4109:
	.loc 3 92 0
	li 3,44
	bl _Znwj
.LBE4109:
.LBE4108:
.LBE4107:
.LBB4112:
.LBB4113:
	.loc 3 108 0
	cmpwi 7,3,-16
.LBE4113:
.LBE4112:
.LBB4115:
.LBB4111:
.LBB4110:
	.loc 3 92 0
	mr 31,3
.LVL630:
.LBE4110:
.LBE4111:
.LBE4115:
.LBB4116:
.LBB4114:
	.loc 3 108 0
	beq- 7,.L527
	lwz 11,20(30)
	lwz 9,24(30)
	lwz 0,28(30)
	lwz 10,16(30)
	stw 11,20(3)
	stw 10,16(3)
	stw 9,24(3)
	stw 0,28(3)
	lwz 11,32(30)
	lwz 9,36(30)
	lwz 0,40(30)
	stw 11,32(3)
	stw 9,36(3)
	stw 0,40(3)
.L527:
.LBE4114:
.LBE4116:
.LBE4106:
.LBE4105:
	.loc 1 429 0
	li 0,0
	.loc 1 428 0
	lwz 9,0(30)
	.loc 1 430 0
	stw 0,12(31)
	.loc 1 429 0
	stw 0,8(31)
.LBE4104:
.LBE4103:
	.loc 1 1051 0
	lwz 4,12(30)
.LBB4118:
.LBB4117:
	.loc 1 428 0
	stw 9,0(31)
.LBE4117:
.LBE4118:
	.loc 1 1051 0
	cmpwi 7,4,0
	.loc 1 1049 0
	stw 31,8(29)
	.loc 1 1050 0
	stw 29,4(31)
	.loc 1 1051 0
	beq- 7,.L528
	.loc 1 1052 0
	mr 3,28
.LVL631:
	mr 5,31
	bl _ZNSt8_Rb_treeIwSt4pairIKw13ftgxCharData_ESt10_Select1stIS3_ESt4lessIwESaIS3_EE7_M_copyEPKSt13_Rb_tree_nodeIS3_EPSB_
.LEHE5:
	stw 3,12(31)
.L528:
.LVL632:
	.loc 2 608 0
	lwz 30,8(30)
.LVL633:
.LBE4102:
	.loc 1 1046 0
	cmpwi 7,30,0
	bne+ 7,.L532
.LVL634:
.L525:
.LBE4121:
.LBE4122:
	.loc 1 1063 0
	lwz 0,44(1)
	mr 3,27
	lwz 28,24(1)
.LVL635:
	mtlr 0
	lwz 27,20(1)
.LVL636:
	lwz 29,28(1)
	lwz 30,32(1)
.LVL637:
	lwz 31,36(1)
	addi 1,1,40
	.cfi_remember_state
.LCFI54:
	.cfi_def_cfa_offset 0
	.cfi_restore 31
	.cfi_restore 30
	.cfi_restore 29
	.cfi_restore 28
	.cfi_restore 27
	blr
.LVL638:
.L533:
.LCFI55:
	.cfi_restore_state
.LBB4123:
	.loc 1 1057 0
	bl __cxa_begin_catch
	.loc 1 1059 0
	mr 3,28
	mr 4,27
	bl _ZNSt8_Rb_treeIwSt4pairIKw13ftgxCharData_ESt10_Select1stIS3_ESt4lessIwESaIS3_EE8_M_eraseEPSt13_Rb_tree_nodeIS3_E
.LEHB6:
	.loc 1 1060 0
	bl __cxa_rethrow
.LEHE6:
.L534:
	.loc 1 1057 0
	stw 3,8(1)
	bl __cxa_end_catch
	lwz 3,8(1)
.LEHB7:
	bl _Unwind_Resume
.LEHE7:
.LBE4123:
	.cfi_endproc
.LFE879:
	.section	.gcc_except_table
	.align 2
.LLSDA879:
	.byte	0xff
	.byte	0
	.uleb128 .LLSDATT879-.LLSDATTD879
.LLSDATTD879:
	.byte	0x1
	.uleb128 .LLSDACSE879-.LLSDACSB879
.LLSDACSB879:
	.uleb128 .LEHB4-.LFB879
	.uleb128 .LEHE4-.LEHB4
	.uleb128 0
	.uleb128 0
	.uleb128 .LEHB5-.LFB879
	.uleb128 .LEHE5-.LEHB5
	.uleb128 .L533-.LFB879
	.uleb128 0x1
	.uleb128 .LEHB6-.LFB879
	.uleb128 .LEHE6-.LEHB6
	.uleb128 .L534-.LFB879
	.uleb128 0
	.uleb128 .LEHB7-.LFB879
	.uleb128 .LEHE7-.LEHB7
	.uleb128 0
	.uleb128 0
.LLSDACSE879:
	.byte	0x1
	.byte	0
	.align 2
	.long	0
.LLSDATT879:
	.section	.text._ZNSt8_Rb_treeIwSt4pairIKw13ftgxCharData_ESt10_Select1stIS3_ESt4lessIwESaIS3_EE7_M_copyEPKSt13_Rb_tree_nodeIS3_EPSB_,"axG",@progbits,_ZNSt8_Rb_treeIwSt4pairIKw13ftgxCharData_ESt10_Select1stIS3_ESt4lessIwESaIS3_EE7_M_copyEPKSt13_Rb_tree_nodeIS3_EPSB_,comdat
	.size	_ZNSt8_Rb_treeIwSt4pairIKw13ftgxCharData_ESt10_Select1stIS3_ESt4lessIwESaIS3_EE7_M_copyEPKSt13_Rb_tree_nodeIS3_EPSB_, .-_ZNSt8_Rb_treeIwSt4pairIKw13ftgxCharData_ESt10_Select1stIS3_ESt4lessIwESaIS3_EE7_M_copyEPKSt13_Rb_tree_nodeIS3_EPSB_
	.section	".text"
	.align 2
	.type	_ZNSt8_Rb_treeIsSt4pairIKsSt3mapIw13ftgxCharData_St4lessIwESaIS0_IKwS3_EEEESt10_Select1stISA_ES4_IsESaISA_EE10_M_insert_EPKSt18_Rb_tree_node_baseSI_RKSA_.constprop.112, @function
_ZNSt8_Rb_treeIsSt4pairIKsSt3mapIw13ftgxCharData_St4lessIwESaIS0_IKwS3_EEEESt10_Select1stISA_ES4_IsESaISA_EE10_M_insert_EPKSt18_Rb_tree_node_baseSI_RKSA_.constprop.112:
.LFB1064:
	.loc 1 960 0
	.cfi_startproc
	.cfi_personality 0,__gxx_personality_v0
	.cfi_lsda 0,.LLSDA1064
.LVL639:
.LBB4156:
	.loc 1 969 0
	cmpwi 7,4,0
.LBE4156:
	.loc 1 960 0
	mflr 0
	stwu 1,-40(1)
.LCFI56:
	.cfi_def_cfa_offset 40
	.cfi_register 65, 0
	stw 27,20(1)
.LBB4207:
	.loc 1 969 0
	li 27,1
	.cfi_offset 27, -20
.LBE4207:
	.loc 1 960 0
	stw 28,24(1)
	mr 28,5
	.cfi_offset 28, -16
	stw 29,28(1)
	mr 29,6
	.cfi_offset 29, -12
	stw 30,32(1)
	mr 30,3
	.cfi_offset 30, -8
	stw 0,44(1)
	stw 31,36(1)
.LBB4208:
	.loc 1 969 0
	beq- 7,.L549
	.cfi_offset 31, -4
	.cfi_offset 65, 4
.L536:
.LVL640:
.LBB4157:
.LBB4158:
.LBB4159:
.LBB4160:
.LBB4161:
	.loc 3 92 0
	li 3,44
.LVL641:
.LEHB8:
	bl _Znwj
.LEHE8:
.LVL642:
.LBE4161:
.LBE4160:
.LBE4159:
.LBB4164:
.LBB4165:
	.loc 3 108 0
	cmpwi 7,3,-16
.LBE4165:
.LBE4164:
.LBB4200:
.LBB4163:
.LBB4162:
	.loc 3 92 0
	mr 31,3
.LVL643:
.LBE4162:
.LBE4163:
.LBE4200:
.LBB4201:
.LBB4199:
	.loc 3 108 0
	beq- 7,.L540
.LVL644:
.LBB4166:
.LBB4167:
.LBB4168:
.LBB4169:
.LBB4170:
.LBB4171:
.LBB4172:
.LBB4173:
	.loc 1 450 0
	li 0,0
.LBB4174:
.LBB4175:
	.loc 1 459 0
	addi 5,3,24
.LBE4175:
.LBE4174:
.LBE4173:
.LBE4172:
.LBE4171:
.LBE4170:
.LBE4169:
.LBE4168:
	.file 6 "d:\\devkitpro\\devkitppc\\bin\\../lib/gcc/powerpc-eabi/4.6.3/../../../../powerpc-eabi/include/c++/4.6.3/bits/stl_pair.h"
	.loc 6 87 0
	lhz 9,0(29)
.LBB4197:
.LBB4195:
.LBB4193:
.LBB4190:
.LBB4182:
.LBB4180:
	.loc 1 450 0
	stw 0,24(3)
	stw 0,28(3)
	stw 0,40(3)
.LBB4178:
.LBB4176:
	.loc 1 459 0
	stw 5,32(3)
	.loc 1 460 0
	stw 5,36(3)
.LBE4176:
.LBE4178:
.LBE4180:
.LBE4182:
.LBE4190:
.LBE4193:
.LBE4195:
.LBE4197:
	.loc 6 87 0
	sth 9,16(3)
.LVL645:
.LBB4198:
.LBB4196:
.LBB4194:
.LBB4191:
.LBB4183:
.LBB4181:
.LBB4179:
.LBB4177:
	.loc 1 459 0
	addi 3,3,20
.LVL646:
.LBE4177:
.LBE4179:
.LBE4181:
.LBE4183:
.LBE4191:
	.loc 2 608 0
	lwz 4,12(29)
.LBB4192:
	.loc 1 625 0
	cmpwi 7,4,0
	beq- 7,.L540
.LVL647:
.LEHB9:
	.loc 1 627 0
	bl _ZNSt8_Rb_treeIwSt4pairIKw13ftgxCharData_ESt10_Select1stIS3_ESt4lessIwESaIS3_EE7_M_copyEPKSt13_Rb_tree_nodeIS3_EPSB_
.LEHE9:
	stw 3,28(31)
.LVL648:
	mr 9,3
	b .L538
.LVL649:
.L545:
.LBB4184:
.LBB4185:
.LBB4186:
	.loc 1 103 0
	mr 9,0
.LVL650:
.L538:
	lwz 0,8(9)
	cmpwi 7,0,0
	bne+ 7,.L545
.LBE4186:
.LBE4185:
.LBE4184:
	.loc 1 628 0
	stw 9,32(31)
.LVL651:
	b .L539
.LVL652:
.L546:
.LBB4187:
.LBB4188:
.LBB4189:
	.loc 1 117 0
	mr 3,0
.LVL653:
.L539:
	lwz 0,12(3)
	cmpwi 7,0,0
	bne+ 7,.L546
.LBE4189:
.LBE4188:
.LBE4187:
	.loc 1 630 0
	lwz 0,24(29)
	.loc 1 629 0
	stw 3,36(31)
	.loc 1 630 0
	stw 0,40(31)
.LVL654:
.L540:
.LBE4192:
.LBE4194:
.LBE4196:
.LBE4198:
.LBE4167:
.LBE4166:
.LBE4199:
.LBE4201:
.LBE4158:
.LBE4157:
	.loc 1 973 0
	mr 3,27
	mr 4,31
	mr 5,28
	addi 6,30,4
	bl _ZSt29_Rb_tree_insert_and_rebalancebPSt18_Rb_tree_node_baseS0_RS_
	.loc 1 976 0
	lwz 9,20(30)
.LBE4208:
	.loc 1 978 0
	mr 3,31
	lwz 27,20(1)
.LVL655:
.LBB4209:
	.loc 1 976 0
	addi 0,9,1
.LBE4209:
	.loc 1 978 0
	lwz 28,24(1)
.LVL656:
.LBB4210:
	.loc 1 976 0
	stw 0,20(30)
.LVL657:
.LBE4210:
	.loc 1 978 0
	lwz 0,44(1)
	lwz 29,28(1)
.LVL658:
	mtlr 0
	lwz 30,32(1)
.LVL659:
	lwz 31,36(1)
.LVL660:
	addi 1,1,40
	.cfi_remember_state
.LCFI57:
	.cfi_def_cfa_offset 0
	.cfi_restore 31
	.cfi_restore 30
	.cfi_restore 29
	.cfi_restore 28
	.cfi_restore 27
	blr
.LVL661:
.L549:
.LCFI58:
	.cfi_restore_state
.LBB4211:
	.loc 1 969 0
	addi 0,3,4
	cmpw 7,5,0
	beq- 7,.L536
.LVL662:
	.loc 1 960 0
	lha 9,0(6)
	lha 0,16(5)
	cmpw 7,9,0
	mfcr 27
	rlwinm 27,27,29,1
	b .L536
.LVL663:
.L548:
.LBB4206:
.LBB4205:
	.loc 1 383 0
	bl __cxa_begin_catch
.LVL664:
.LBB4202:
.LBB4203:
.LBB4204:
	.loc 3 98 0
	mr 3,31
	bl _ZdlPv
.LEHB10:
.LBE4204:
.LBE4203:
.LBE4202:
	.loc 1 386 0
	bl __cxa_rethrow
.LEHE10:
.L547:
	.loc 1 383 0
	stw 3,8(1)
	bl __cxa_end_catch
	lwz 3,8(1)
.LEHB11:
	bl _Unwind_Resume
.LEHE11:
.LBE4205:
.LBE4206:
.LBE4211:
	.cfi_endproc
.LFE1064:
	.section	.gcc_except_table
	.align 2
.LLSDA1064:
	.byte	0xff
	.byte	0
	.uleb128 .LLSDATT1064-.LLSDATTD1064
.LLSDATTD1064:
	.byte	0x1
	.uleb128 .LLSDACSE1064-.LLSDACSB1064
.LLSDACSB1064:
	.uleb128 .LEHB8-.LFB1064
	.uleb128 .LEHE8-.LEHB8
	.uleb128 0
	.uleb128 0
	.uleb128 .LEHB9-.LFB1064
	.uleb128 .LEHE9-.LEHB9
	.uleb128 .L548-.LFB1064
	.uleb128 0x1
	.uleb128 .LEHB10-.LFB1064
	.uleb128 .LEHE10-.LEHB10
	.uleb128 .L547-.LFB1064
	.uleb128 0
	.uleb128 .LEHB11-.LFB1064
	.uleb128 .LEHE11-.LEHB11
	.uleb128 0
	.uleb128 0
.LLSDACSE1064:
	.byte	0x1
	.byte	0
	.align 2
	.long	0
.LLSDATT1064:
	.section	".text"
	.size	_ZNSt8_Rb_treeIsSt4pairIKsSt3mapIw13ftgxCharData_St4lessIwESaIS0_IKwS3_EEEESt10_Select1stISA_ES4_IsESaISA_EE10_M_insert_EPKSt18_Rb_tree_node_baseSI_RKSA_.constprop.112, .-_ZNSt8_Rb_treeIsSt4pairIKsSt3mapIw13ftgxCharData_St4lessIwESaIS0_IKwS3_EEEESt10_Select1stISA_ES4_IsESaISA_EE10_M_insert_EPKSt18_Rb_tree_node_baseSI_RKSA_.constprop.112
	.align 2
	.type	_ZNSt8_Rb_treeIsSt4pairIKsSt3mapIw13ftgxCharData_St4lessIwESaIS0_IKwS3_EEEESt10_Select1stISA_ES4_IsESaISA_EE16_M_insert_uniqueERKSA_.constprop.113, @function
_ZNSt8_Rb_treeIsSt4pairIKsSt3mapIw13ftgxCharData_St4lessIwESaIS0_IKwS3_EEEESt10_Select1stISA_ES4_IsESaISA_EE16_M_insert_uniqueERKSA_.constprop.113:
.LFB1063:
	.loc 1 1264 0
	.cfi_startproc
.LVL665:
	mflr 0
	stwu 1,-24(1)
.LCFI59:
	.cfi_def_cfa_offset 24
	.cfi_register 65, 0
	stw 30,16(1)
	stw 0,28(1)
	stw 29,12(1)
	mr 29,3
	.cfi_offset 29, -12
	.cfi_offset 65, 4
	.cfi_offset 30, -8
.LBB4212:
.LBB4213:
.LBB4214:
	.loc 2 608 0
	lwz 30,8(3)
.LVL666:
.LBE4214:
.LBE4213:
.LBE4212:
	.loc 1 1264 0
	stw 31,20(1)
	.loc 1 1264 0
	mr 31,4
	.cfi_offset 31, -4
.LBB4217:
	.loc 1 1274 0
	cmpwi 7,30,0
	beq- 7,.L563
	.loc 1 1272 0
	lha 10,0(4)
	b .L555
.LVL667:
.L565:
	.loc 2 608 0
	lwz 0,8(30)
.LVL668:
	.loc 1 1274 0
	cmpwi 7,0,0
	beq- 7,.L564
.LVL669:
.L560:
	mr 30,0
.LVL670:
.L555:
	.loc 2 608 0
	lha 9,16(30)
	li 11,1
	.loc 1 1278 0
	cmpw 7,9,10
	bgt- 7,.L565
.LVL671:
	.loc 2 608 0
	lwz 0,12(30)
	li 11,0
.LVL672:
	.loc 1 1274 0
	cmpwi 7,0,0
	bne+ 7,.L560
.LVL673:
.L564:
	.loc 1 1281 0
	cmpwi 7,11,0
	mr 5,30
	bne- 7,.L552
.LVL674:
	.loc 1 1289 0
	cmpw 7,10,9
	bgt- 7,.L566
.LVL675:
.L559:
	.loc 1 1292 0
	li 0,0
	li 4,0
	rlwimi 4,0,24,0,7
.LBE4217:
	.loc 1 1293 0
	lwz 0,28(1)
.LBB4218:
	.loc 1 1292 0
	mr 3,30
.LBE4218:
	.loc 1 1293 0
	lwz 29,12(1)
.LVL676:
	mtlr 0
	lwz 30,16(1)
.LVL677:
	lwz 31,20(1)
.LVL678:
	addi 1,1,24
	.cfi_remember_state
.LCFI60:
	.cfi_def_cfa_offset 0
	.cfi_restore 31
	.cfi_restore 30
	.cfi_restore 29
	blr
.LVL679:
.L563:
.LCFI61:
	.cfi_restore_state
.LBB4219:
	.loc 1 1272 0
	addi 30,3,4
.LVL680:
.L552:
	.loc 2 608 0
	lwz 0,12(29)
.LVL681:
	.loc 1 1283 0
	cmpw 7,0,30
	beq- 7,.L567
.LVL682:
.LBB4216:
.LBB4215:
	.loc 1 203 0
	mr 3,30
.LVL683:
	bl _ZSt18_Rb_tree_decrementPSt18_Rb_tree_node_base
.LVL684:
	lha 10,0(31)
	lha 9,16(3)
	mr 5,30
	mr 30,3
.LVL685:
.LBE4215:
.LBE4216:
	.loc 1 1289 0
	cmpw 7,10,9
	ble+ 7,.L559
.LVL686:
.L566:
	.loc 1 1291 0
	mr 3,29
	li 4,0
.LVL687:
.L562:
	mr 6,31
	bl _ZNSt8_Rb_treeIsSt4pairIKsSt3mapIw13ftgxCharData_St4lessIwESaIS0_IKwS3_EEEESt10_Select1stISA_ES4_IsESaISA_EE10_M_insert_EPKSt18_Rb_tree_node_baseSI_RKSA_.constprop.112
.LVL688:
	li 0,1
	li 4,0
.LBE4219:
	.loc 1 1293 0
	lwz 29,12(1)
.LVL689:
.LBB4220:
	.loc 1 1291 0
	rlwimi 4,0,24,0,7
.LBE4220:
	.loc 1 1293 0
	lwz 0,28(1)
	lwz 30,16(1)
	mtlr 0
	lwz 31,20(1)
.LVL690:
	addi 1,1,24
	.cfi_remember_state
	.cfi_restore 29
	.cfi_restore 30
	.cfi_restore 31
.LCFI62:
	.cfi_def_cfa_offset 0
	blr
.LVL691:
.L567:
.LCFI63:
	.cfi_restore_state
.LBB4221:
	.loc 1 1285 0
	mr 3,29
.LVL692:
	li 4,0
.LVL693:
	mr 5,30
	b .L562
.LBE4221:
	.cfi_endproc
.LFE1063:
	.size	_ZNSt8_Rb_treeIsSt4pairIKsSt3mapIw13ftgxCharData_St4lessIwESaIS0_IKwS3_EEEESt10_Select1stISA_ES4_IsESaISA_EE16_M_insert_uniqueERKSA_.constprop.113, .-_ZNSt8_Rb_treeIsSt4pairIKsSt3mapIw13ftgxCharData_St4lessIwESaIS0_IKwS3_EEEESt10_Select1stISA_ES4_IsESaISA_EE16_M_insert_uniqueERKSA_.constprop.113
	.align 2
	.type	_ZNSt8_Rb_treeIsSt4pairIKsSt3mapIw13ftgxCharData_St4lessIwESaIS0_IKwS3_EEEESt10_Select1stISA_ES4_IsESaISA_EE17_M_insert_unique_ESt23_Rb_tree_const_iteratorISA_ERKSA_.constprop.111, @function
_ZNSt8_Rb_treeIsSt4pairIKsSt3mapIw13ftgxCharData_St4lessIwESaIS0_IKwS3_EEEESt10_Select1stISA_ES4_IsESaISA_EE17_M_insert_unique_ESt23_Rb_tree_const_iteratorISA_ERKSA_.constprop.111:
.LFB1065:
	.loc 1 1325 0
	.cfi_startproc
.LVL694:
	mflr 0
	stwu 1,-24(1)
.LCFI64:
	.cfi_def_cfa_offset 24
	.cfi_register 65, 0
	stw 31,20(1)
	stw 0,28(1)
.LBB4222:
	.loc 1 1333 0
	addi 0,3,4
	.cfi_offset 65, 4
	.cfi_offset 31, -4
.LBE4222:
	.loc 1 1325 0
	stw 29,12(1)
	mr 29,5
	.cfi_offset 29, -12
	lwz 31,0(4)
.LVL695:
	stw 30,16(1)
	mr 30,3
	.cfi_offset 30, -8
.LBB4242:
	.loc 1 1333 0
	cmpw 7,31,0
.LBE4242:
	.loc 1 1325 0
	stw 28,8(1)
.LBB4243:
	.loc 1 1333 0
	beq- 7,.L582
	.cfi_offset 28, -16
.LVL696:
	.loc 2 608 0
	lha 28,0(5)
	lha 0,16(31)
.LBB4223:
	.loc 1 1342 0
	cmpw 7,28,0
	bge- 7,.L572
.LVL697:
.LBB4224:
	.loc 1 1347 0
	lwz 0,12(3)
	cmpw 7,31,0
	beq- 7,.L583
.LBB4225:
.LBB4226:
	.loc 1 284 0
	mr 3,31
.LVL698:
	bl _ZSt18_Rb_tree_decrementPKSt18_Rb_tree_node_base
.LVL699:
.LBE4226:
.LBE4225:
	.loc 1 1350 0
	lha 0,16(3)
.LBB4228:
.LBB4227:
	.loc 1 284 0
	mr 5,3
.LVL700:
.LBE4227:
.LBE4228:
	.loc 1 1350 0
	cmpw 7,0,28
	bge- 7,.L570
	.loc 1 1353 0
	lwz 0,12(3)
	cmpwi 7,0,0
	beq- 7,.L584
	.loc 1 1359 0
	mr 4,31
	mr 3,30
.LVL701:
	mr 5,31
.LVL702:
	mr 6,29
	bl _ZNSt8_Rb_treeIsSt4pairIKsSt3mapIw13ftgxCharData_St4lessIwESaIS0_IKwS3_EEEESt10_Select1stISA_ES4_IsESaISA_EE10_M_insert_EPKSt18_Rb_tree_node_baseSI_RKSA_.constprop.112
.LVL703:
.L571:
.LBE4224:
.LBE4223:
.LBE4243:
	.loc 1 1388 0
	lwz 0,28(1)
	lwz 28,8(1)
	mtlr 0
	lwz 29,12(1)
.LVL704:
	lwz 30,16(1)
.LVL705:
	lwz 31,20(1)
.LVL706:
	addi 1,1,24
	.cfi_remember_state
.LCFI65:
	.cfi_def_cfa_offset 0
	.cfi_restore 31
	.cfi_restore 30
	.cfi_restore 29
	.cfi_restore 28
	blr
.LVL707:
.L572:
.LCFI66:
	.cfi_restore_state
.LBB4244:
.LBB4239:
.LBB4229:
	.loc 1 1364 0
	ble- 7,.L576
.LVL708:
.LBB4230:
	.loc 1 1369 0
	lwz 0,16(3)
	cmpw 7,31,0
	beq- 7,.L581
.LVL709:
.LBB4231:
.LBB4232:
	.loc 1 269 0
	mr 3,31
.LVL710:
	bl _ZSt18_Rb_tree_incrementPKSt18_Rb_tree_node_base
.LVL711:
.LBE4232:
.LBE4231:
	.loc 1 1372 0
	lha 0,16(3)
	cmpw 7,0,28
	ble- 7,.L570
	.loc 1 1375 0
	lwz 0,12(31)
	cmpwi 7,0,0
	beq- 7,.L585
	.loc 1 1380 0
	mr 4,3
	mr 6,29
	mr 3,30
.LVL712:
	mr 5,4
	bl _ZNSt8_Rb_treeIsSt4pairIKsSt3mapIw13ftgxCharData_St4lessIwESaIS0_IKwS3_EEEESt10_Select1stISA_ES4_IsESaISA_EE10_M_insert_EPKSt18_Rb_tree_node_baseSI_RKSA_.constprop.112
.LVL713:
.LBE4230:
.LBE4229:
.LBE4239:
.LBE4244:
	.loc 1 1388 0
	lwz 0,28(1)
	lwz 28,8(1)
	mtlr 0
	lwz 29,12(1)
.LVL714:
	lwz 30,16(1)
.LVL715:
	lwz 31,20(1)
.LVL716:
	addi 1,1,24
	.cfi_remember_state
	.cfi_restore 28
	.cfi_restore 29
	.cfi_restore 30
	.cfi_restore 31
.LCFI67:
	.cfi_def_cfa_offset 0
	blr
.LVL717:
.L582:
.LCFI68:
	.cfi_restore_state
.LBB4245:
	.loc 1 1335 0
	lwz 0,20(3)
	cmpwi 7,0,0
	beq- 7,.L570
.LVL718:
	lwz 5,16(3)
.LVL719:
	lha 0,0(29)
	lha 9,16(5)
	cmpw 7,9,0
	blt- 7,.L580
.LVL720:
.L570:
	.loc 1 1340 0
	mr 3,30
	mr 4,29
	bl _ZNSt8_Rb_treeIsSt4pairIKsSt3mapIw13ftgxCharData_St4lessIwESaIS0_IKwS3_EEEESt10_Select1stISA_ES4_IsESaISA_EE16_M_insert_uniqueERKSA_.constprop.113
.LBE4245:
	.loc 1 1388 0
	lwz 0,28(1)
	lwz 28,8(1)
	mtlr 0
	lwz 29,12(1)
.LVL721:
	lwz 30,16(1)
.LVL722:
	lwz 31,20(1)
.LVL723:
	addi 1,1,24
	.cfi_remember_state
	.cfi_restore 28
	.cfi_restore 29
	.cfi_restore 30
	.cfi_restore 31
.LCFI69:
	.cfi_def_cfa_offset 0
	blr
.LVL724:
.L576:
.LCFI70:
	.cfi_restore_state
	lwz 0,28(1)
.LBB4246:
.LBB4240:
.LBB4235:
.LBB4233:
	.loc 1 1383 0
	mr 3,31
.LVL725:
.LBE4233:
.LBE4235:
.LBE4240:
.LBE4246:
	.loc 1 1388 0
	lwz 28,8(1)
	mtlr 0
	lwz 29,12(1)
	lwz 30,16(1)
.LVL726:
	lwz 31,20(1)
.LVL727:
	addi 1,1,24
	.cfi_remember_state
	.cfi_restore 28
	.cfi_restore 29
	.cfi_restore 30
	.cfi_restore 31
.LCFI71:
	.cfi_def_cfa_offset 0
	blr
.LVL728:
.L584:
.LCFI72:
	.cfi_restore_state
.LBB4247:
.LBB4241:
.LBB4236:
	.loc 1 1355 0
	mr 3,30
.LVL729:
.L580:
	li 4,0
	mr 6,29
	bl _ZNSt8_Rb_treeIsSt4pairIKsSt3mapIw13ftgxCharData_St4lessIwESaIS0_IKwS3_EEEESt10_Select1stISA_ES4_IsESaISA_EE10_M_insert_EPKSt18_Rb_tree_node_baseSI_RKSA_.constprop.112
.LVL730:
	b .L571
.LVL731:
.L585:
.LBE4236:
.LBB4237:
.LBB4234:
	.loc 1 1377 0
	mr 3,30
.LVL732:
.L581:
	li 4,0
	mr 5,31
	mr 6,29
	bl _ZNSt8_Rb_treeIsSt4pairIKsSt3mapIw13ftgxCharData_St4lessIwESaIS0_IKwS3_EEEESt10_Select1stISA_ES4_IsESaISA_EE10_M_insert_EPKSt18_Rb_tree_node_baseSI_RKSA_.constprop.112
	b .L571
.LVL733:
.L583:
.LBE4234:
.LBE4237:
.LBB4238:
	.loc 1 1349 0
	mr 4,31
	mr 5,31
	mr 6,29
	bl _ZNSt8_Rb_treeIsSt4pairIKsSt3mapIw13ftgxCharData_St4lessIwESaIS0_IKwS3_EEEESt10_Select1stISA_ES4_IsESaISA_EE10_M_insert_EPKSt18_Rb_tree_node_baseSI_RKSA_.constprop.112
	b .L571
.LBE4238:
.LBE4241:
.LBE4247:
	.cfi_endproc
.LFE1065:
	.size	_ZNSt8_Rb_treeIsSt4pairIKsSt3mapIw13ftgxCharData_St4lessIwESaIS0_IKwS3_EEEESt10_Select1stISA_ES4_IsESaISA_EE17_M_insert_unique_ESt23_Rb_tree_const_iteratorISA_ERKSA_.constprop.111, .-_ZNSt8_Rb_treeIsSt4pairIKsSt3mapIw13ftgxCharData_St4lessIwESaIS0_IKwS3_EEEESt10_Select1stISA_ES4_IsESaISA_EE17_M_insert_unique_ESt23_Rb_tree_const_iteratorISA_ERKSA_.constprop.111
	.align 2
	.globl _ZN10FreeTypeGX14cacheGlyphDataEws
	.type	_ZN10FreeTypeGX14cacheGlyphDataEws, @function
_ZN10FreeTypeGX14cacheGlyphDataEws:
.LFB554:
	.loc 2 144 0
	.cfi_startproc
	.cfi_personality 0,__gxx_personality_v0
	.cfi_lsda 0,.LLSDA554
.LVL734:
	mflr 0
	stwu 1,-1248(1)
.LCFI73:
	.cfi_def_cfa_offset 1248
	.cfi_register 65, 0
	stw 28,1232(1)
.LBB5470:
.LBB5471:
.LBB5472:
	.loc 1 1536 0
	addi 28,3,16
	.cfi_offset 28, -16
.LBE5472:
.LBE5471:
.LBE5470:
	.loc 2 144 0
	stw 0,1252(1)
	stw 29,1236(1)
	mr 29,3
	.cfi_offset 29, -12
	.cfi_offset 65, 4
.LVL735:
.LBB6894:
.LBB5484:
.LBB5481:
	.loc 2 608 0
	lwz 9,20(3)
.LVL736:
.LBE5481:
.LBE5484:
.LBE6894:
	.loc 2 144 0
	stw 30,1240(1)
	mr 30,4
	.cfi_offset 30, -8
.LBB6895:
.LBB5485:
.LBB5482:
.LBB5473:
.LBB5474:
.LBB5475:
	.loc 1 1089 0
	cmpwi 7,9,0
.LBE5475:
.LBE5474:
.LBE5473:
.LBE5482:
.LBE5485:
.LBE6895:
	.loc 2 144 0
	stw 31,1244(1)
	stw 23,1212(1)
	mr 31,5
	.cfi_offset 23, -36
	.cfi_offset 31, -4
	stw 24,1216(1)
	stw 25,1220(1)
	stw 26,1224(1)
	stw 27,1228(1)
.LBB6896:
.LBB5486:
.LBB5483:
.LBB5480:
.LBB5479:
.LBB5476:
	.loc 1 1089 0
	beq- 7,.L587
	.cfi_offset 27, -20
	.cfi_offset 26, -24
	.cfi_offset 25, -28
	.cfi_offset 24, -32
.LVL737:
	mr 11,28
	b .L590
.LVL738:
.L1068:
.LBE5476:
	.loc 2 608 0
	mr 11,9
	.loc 1 1091 0
	lwz 9,8(9)
.LVL739:
.LBB5477:
	.loc 1 1089 0
	cmpwi 7,9,0
	beq- 7,.L1067
.LVL740:
.L590:
	.loc 1 1090 0
	lha 0,16(9)
	cmpw 7,0,31
	bge- 7,.L1068
.LVL741:
.LBE5477:
	.loc 2 608 0
	lwz 9,12(9)
.LVL742:
.LBB5478:
	.loc 1 1089 0
	cmpwi 7,9,0
	bne+ 7,.L590
.L1067:
.LVL743:
.LBE5478:
.LBE5479:
	.loc 1 1539 0
	cmpw 7,28,11
	beq- 7,.L587
.LVL744:
	lha 0,16(11)
	cmpw 7,0,31
	bgt- 7,.L587
.LVL745:
.LBE5480:
.LBE5483:
.LBE5486:
.LBB5487:
.LBB5488:
.LBB5489:
	.loc 2 608 0
	lwz 9,28(11)
.LVL746:
.LBB5490:
.LBB5491:
.LBB5492:
	.loc 1 1089 0
	cmpwi 7,9,0
	beq- 7,.L587
.LBE5492:
.LBE5491:
.LBE5490:
	.loc 1 1536 0
	addi 11,11,24
.LVL747:
	mr 26,11
	b .L593
.LVL748:
.L1070:
.LBB5496:
.LBB5495:
	.loc 2 608 0
	mr 26,9
	.loc 1 1091 0
	lwz 9,8(9)
.LVL749:
.LBB5493:
	.loc 1 1089 0
	cmpwi 7,9,0
	beq- 7,.L1069
.LVL750:
.L593:
	.loc 1 1090 0
	lwz 0,16(9)
	cmpw 7,0,30
	bge- 7,.L1070
.LVL751:
.LBE5493:
	.loc 2 608 0
	lwz 9,12(9)
.LVL752:
.LBB5494:
	.loc 1 1089 0
	cmpwi 7,9,0
	bne+ 7,.L593
.L1069:
.LVL753:
.LBE5494:
.LBE5495:
	.loc 1 1539 0
	cmpw 7,11,26
	beq- 7,.L587
.LVL754:
	lwz 0,16(26)
.LBE5496:
.LBE5489:
.LBE5488:
	.loc 2 151 0
	addi 26,26,20
.LVL755:
.LBB5499:
.LBB5498:
.LBB5497:
	.loc 1 1539 0
	cmpw 7,0,30
	ble- 7,.L594
.LVL756:
.L587:
.LBE5497:
.LBE5498:
.LBE5499:
.LBE5487:
.LBB5500:
	.loc 2 158 0
	lha 0,8(29)
	cmpw 7,0,31
	beq- 7,.L595
.LBB5501:
	.loc 2 160 0
	sth 31,8(29)
	.loc 2 161 0
	li 4,0
.LVL757:
	lwz 3,4(29)
.LVL758:
	mr 5,31
.LVL759:
.LBB5502:
.LBB5503:
	.loc 1 1536 0
	addi 27,29,40
.LEHB12:
.LBE5503:
.LBE5502:
	.loc 2 161 0
	bl FT_Set_Pixel_Sizes
.LVL760:
.LBB5514:
.LBB5512:
	.loc 2 608 0
	lwz 11,44(29)
.LVL761:
.LBB5504:
.LBB5505:
.LBB5506:
	.loc 1 1089 0
	lha 10,8(29)
	.loc 1 1536 0
	mr 8,27
	.loc 1 1089 0
	cmpwi 7,11,0
	mr 9,11
	bne+ 7,.L600
	b .L597
.LVL762:
.L1072:
.LBE5506:
	.loc 2 608 0
	mr 8,9
	.loc 1 1091 0
	lwz 9,8(9)
.LVL763:
.LBB5507:
	.loc 1 1089 0
	cmpwi 7,9,0
	beq- 7,.L1071
.LVL764:
.L600:
	.loc 1 1090 0
	lha 0,16(9)
	cmpw 7,0,10
	bge- 7,.L1072
.LVL765:
.LBE5507:
	.loc 2 608 0
	lwz 9,12(9)
.LVL766:
.LBB5508:
	.loc 1 1089 0
	cmpwi 7,9,0
	bne+ 7,.L600
.L1071:
.LVL767:
.LBE5508:
.LBE5505:
	.loc 1 1539 0
	cmpw 7,27,8
	beq- 7,.L989
.LVL768:
	lha 0,16(8)
	cmpw 7,0,10
	ble- 7,.L595
.LVL769:
.L989:
	mr 8,27
.LVL770:
	mr 9,11
.LVL771:
	b .L1031
.LVL772:
.L1074:
.LBE5504:
.LBE5512:
.LBE5514:
.LBB5515:
.LBB5516:
.LBB5517:
.LBB5518:
.LBB5519:
	.loc 2 608 0
	mr 8,9
	.loc 1 1091 0
	lwz 9,8(9)
.LVL773:
.L603:
.LBB5520:
	.loc 1 1089 0
	cmpwi 7,9,0
	beq- 7,.L1073
.LVL774:
.L1031:
	.loc 1 1090 0
	lha 0,16(9)
	cmpw 7,0,10
	bge- 7,.L1074
.LBE5520:
	.loc 2 608 0
	lwz 9,12(9)
.LVL775:
	b .L603
.LVL776:
.L1125:
.LBE5519:
.LBE5518:
.LBE5517:
.LBE5516:
.LBE5515:
.LBB5541:
.LBB5542:
	.loc 5 452 0
	cmpw 7,9,27
	beq- 7,.L1066
.LVL777:
	lha 11,16(9)
.LVL778:
	cmpw 7,11,0
	ble- 7,.L623
.LVL779:
.L1066:
	addi 25,29,36
	addi 26,1,1192
.LVL780:
.L619:
.LBE5542:
	.loc 6 104 0
	li 11,0
.LBB5561:
.LBB5543:
.LBB5544:
	.loc 5 571 0
	mr 3,25
	mr 4,26
	addi 5,1,8
	stw 9,1192(1)
.LBE5544:
.LBE5543:
.LBB5546:
.LBB5547:
	.loc 6 104 0
	sth 0,8(1)
.LBE5547:
.LBE5546:
.LBE5561:
	sth 11,10(1)
	sth 11,12(1)
	sth 11,14(1)
	sth 11,16(1)
.LVL781:
.LBB5562:
.LBB5548:
.LBB5545:
	.loc 5 571 0
	bl _ZNSt8_Rb_treeIsSt4pairIKs15ftgxDataOffset_ESt10_Select1stIS3_ESt4lessIsESaIS3_EE17_M_insert_unique_ESt23_Rb_tree_const_iteratorIS3_ERKS3_.constprop.114
.LVL782:
	mr 9,3
.LVL783:
.L623:
.LBE5545:
.LBE5548:
.LBE5562:
.LBE5541:
	.loc 2 170 0
	li 0,0
	sth 0,24(9)
.LVL784:
.L595:
.LBE5501:
.LBE5500:
	.loc 2 174 0
	lwz 3,4(29)
	mr 4,30
.LBB5655:
	.loc 2 203 0
	li 26,0
.LBE5655:
	.loc 2 174 0
	bl FT_Get_Char_Index
.LVL785:
.LBB6889:
	.loc 2 175 0
	mr. 25,3
	bne- 0,.L1075
.LVL786:
.L594:
.LBE6889:
.LBE6896:
	.loc 2 204 0
	lwz 0,1252(1)
	mr 3,26
	lwz 23,1212(1)
	mtlr 0
	lwz 24,1216(1)
	lwz 25,1220(1)
	lwz 26,1224(1)
	lwz 27,1228(1)
	lwz 28,1232(1)
	lwz 29,1236(1)
.LVL787:
	lwz 30,1240(1)
.LVL788:
	lwz 31,1244(1)
	addi 1,1,1248
	.cfi_remember_state
.LCFI74:
	.cfi_def_cfa_offset 0
	.cfi_restore 31
	.cfi_restore 30
	.cfi_restore 29
	.cfi_restore 28
	.cfi_restore 27
	.cfi_restore 26
	.cfi_restore 25
	.cfi_restore 24
	.cfi_restore 23
	blr
.LVL789:
.L1075:
.LCFI75:
	.cfi_restore_state
.LBB6897:
.LBB6890:
	.loc 2 175 0 discriminator 1
	lwz 3,4(29)
.LVL790:
	mr 4,25
	li 5,4
	bl FT_Load_Glyph
.LEHE12:
	cmpwi 7,3,0
	bne- 7,.L594
.LBB5656:
	.loc 2 177 0 discriminator 4
	lwz 9,4(29)
	lwz 27,84(9)
	lwz 9,72(27)
	xoris 0,9,0x6269
	cmpwi 7,0,29811
	bne 7,.L594
.LVL791:
.LBB5657:
	.loc 2 181 0
	lwz 24,80(27)
	.loc 2 182 0
	lwz 26,76(27)
	.loc 2 181 0
	addi 24,24,7
.LVL792:
	.loc 2 183 0
	andi. 24,24,65528
.LVL793:
	.loc 2 182 0
	addi 26,26,7
	rlwinm 26,26,0,16,28
.LVL794:
	.loc 2 183 0
	bne- 0,.L624
	.loc 2 184 0
	li 24,8
.L624:
.LVL795:
	.loc 2 185 0
	cmpwi 7,26,0
	bne- 7,.L625
	.loc 2 186 0
	li 26,8
.LVL796:
.L625:
.LBB5658:
.LBB5659:
.LBB5660:
.LBB5661:
	.loc 2 608 0
	lwz 9,20(29)
.LVL797:
.LBB5662:
.LBB5663:
	.loc 1 1089 0
	mr 23,28
	cmpwi 7,9,0
	bne+ 7,.L629
	b .L626
.LVL798:
.L1077:
.LBE5663:
	.loc 2 608 0
	mr 23,9
	.loc 1 1091 0
	lwz 9,8(9)
.LVL799:
.LBB5664:
	.loc 1 1089 0
	cmpwi 7,9,0
	beq- 7,.L1076
.LVL800:
.L629:
	.loc 1 1090 0
	lha 0,16(9)
	cmpw 7,0,31
	bge- 7,.L1077
.LVL801:
.LBE5664:
	.loc 2 608 0
	lwz 9,12(9)
.LVL802:
.LBB5665:
	.loc 1 1089 0
	cmpwi 7,9,0
	bne+ 7,.L629
.L1076:
.LVL803:
.LBE5665:
.LBE5662:
.LBE5661:
.LBE5660:
	.loc 5 452 0
	cmpw 7,28,23
	beq- 7,.L626
.LVL804:
	lha 0,16(23)
	cmpw 7,0,31
	ble- 7,.L640
.LVL805:
.L626:
.LBB5666:
.LBB5667:
.LBB5668:
.LBB5669:
	.loc 1 445 0
	li 0,0
.LBB5670:
.LBB5671:
	.loc 1 459 0
	addi 11,1,556
.LBE5671:
.LBE5670:
.LBE5669:
.LBE5668:
.LBE5667:
.LBE5666:
.LBB5683:
.LBB5684:
.LBB5685:
.LBB5686:
.LBB5687:
.LBB5688:
.LBB5689:
.LBB5690:
	addi 9,1,1172
.LVL806:
.LBE5690:
.LBE5689:
.LBE5688:
.LBE5687:
.LBE5686:
.LBE5685:
.LBE5684:
.LBE5683:
.LBB5698:
.LBB5699:
	.loc 5 571 0
	mr 4,1
.LBE5699:
.LBE5698:
.LBB5704:
.LBB5680:
.LBB5677:
.LBB5674:
	.loc 1 445 0
	stw 0,556(1)
.LBE5674:
.LBE5677:
.LBE5680:
.LBE5704:
.LBB5705:
.LBB5700:
	.loc 5 571 0
	addi 3,29,12
.LBE5700:
.LBE5705:
.LBB5706:
.LBB5681:
.LBB5678:
.LBB5675:
	.loc 1 445 0
	stw 0,560(1)
.LBE5675:
.LBE5678:
.LBE5681:
.LBE5706:
.LBB5707:
.LBB5701:
	.loc 5 571 0
	addi 5,1,1164
.LBE5701:
.LBE5707:
.LBB5708:
.LBB5682:
.LBB5679:
.LBB5676:
	.loc 1 445 0
	stw 0,572(1)
.LVL807:
.LBB5673:
.LBB5672:
	.loc 1 459 0
	stw 11,564(1)
	.loc 1 460 0
	stw 11,568(1)
.LVL808:
.LBE5672:
.LBE5673:
.LBE5676:
.LBE5679:
.LBE5682:
.LBE5708:
.LBB5709:
.LBB5697:
	.loc 6 104 0
	sth 31,1164(1)
.LVL809:
.LBB5696:
.LBB5695:
.LBB5694:
.LBB5693:
	.loc 1 450 0
	stw 0,1172(1)
	stw 0,1176(1)
	stw 0,1188(1)
.LVL810:
.LBB5692:
.LBB5691:
	.loc 1 459 0
	stw 9,1180(1)
	.loc 1 460 0
	stw 9,1184(1)
.LVL811:
.LBE5691:
.LBE5692:
.LBE5693:
.LBE5694:
.LBE5695:
.LBE5696:
.LBE5697:
.LBE5709:
.LBB5710:
.LBB5702:
	.loc 5 571 0
	stwu 23,1196(4)
.LEHB13:
	bl _ZNSt8_Rb_treeIsSt4pairIKsSt3mapIw13ftgxCharData_St4lessIwESaIS0_IKwS3_EEEESt10_Select1stISA_ES4_IsESaISA_EE17_M_insert_unique_ESt23_Rb_tree_const_iteratorISA_ERKSA_.constprop.111
.LEHE13:
.LVL812:
.LBE5702:
.LBE5710:
.LBB5711:
.LBB5712:
.LBB5713:
.LBB5714:
.LBB5715:
.LBB5716:
.LBB5717:
	.loc 1 639 0
	lwz 4,1176(1)
.LBE5717:
.LBE5716:
.LBE5715:
.LBE5714:
.LBE5713:
.LBE5712:
.LBE5711:
.LBB5724:
.LBB5703:
	.loc 5 571 0
	mr 23,3
.LVL813:
.LBE5703:
.LBE5724:
.LBB5725:
.LBB5723:
.LBB5722:
.LBB5721:
.LBB5720:
.LBB5719:
.LBB5718:
	.loc 1 639 0
	addi 3,1,1168
.LVL814:
	bl _ZNSt8_Rb_treeIwSt4pairIKw13ftgxCharData_ESt10_Select1stIS3_ESt4lessIwESaIS3_EE8_M_eraseEPSt13_Rb_tree_nodeIS3_E
.LVL815:
.LBE5718:
.LBE5719:
.LBE5720:
.LBE5721:
.LBE5722:
.LBE5723:
.LBE5725:
.LBB5726:
.LBB5727:
.LBB5728:
.LBB5729:
.LBB5730:
	addi 3,1,552
	lwz 4,8(3)
	bl _ZNSt8_Rb_treeIwSt4pairIKw13ftgxCharData_ESt10_Select1stIS3_ESt4lessIwESaIS3_EE8_M_eraseEPSt13_Rb_tree_nodeIS3_E
.LVL816:
.L640:
.LBE5730:
.LBE5729:
.LBE5728:
.LBE5727:
.LBE5726:
.LBE5659:
.LBE5658:
.LBB5744:
.LBB5745:
.LBB5746:
.LBB5747:
	.loc 2 608 0
	lwz 9,28(23)
.LVL817:
	.loc 1 828 0
	addi 3,23,24
.LVL818:
.LBB5748:
.LBB5749:
	.loc 1 1089 0
	mr 11,3
	cmpwi 7,9,0
	bne+ 7,.L1030
	b .L642
.LVL819:
.L1079:
.LBE5749:
	.loc 2 608 0
	mr 3,9
	.loc 1 1091 0
	lwz 9,8(9)
.LVL820:
.LBB5750:
	.loc 1 1089 0
	cmpwi 7,9,0
	beq- 7,.L1078
.LVL821:
.L1030:
	.loc 1 1090 0
	lwz 0,16(9)
	cmpw 7,0,30
	bge- 7,.L1079
.LVL822:
.LBE5750:
	.loc 2 608 0
	lwz 9,12(9)
.LVL823:
.LBB5751:
	.loc 1 1089 0
	cmpwi 7,9,0
	bne+ 7,.L1030
.L1078:
.LVL824:
.LBE5751:
.LBE5748:
.LBE5747:
.LBE5746:
	.loc 5 452 0
	cmpw 7,11,3
	beq- 7,.L642
.LVL825:
	lwz 0,16(3)
	cmpw 7,0,30
	ble- 7,.L658
.LVL826:
.L642:
	.loc 5 453 0
	li 0,0
.LBB5752:
.LBB5753:
	.loc 5 571 0
	mr 4,1
.LBE5753:
.LBE5752:
	.loc 5 453 0
	stw 0,528(1)
.LBB5756:
.LBB5754:
	.loc 5 571 0
	addi 5,1,1136
.LBE5754:
.LBE5756:
	.loc 5 453 0
	stw 0,532(1)
	stw 0,536(1)
	stw 0,540(1)
	stw 0,544(1)
	stw 0,548(1)
.LVL827:
.LBB5757:
.LBB5758:
	.loc 6 104 0
	stw 30,1136(1)
	stw 0,1140(1)
	stw 0,1144(1)
	stw 0,1148(1)
	stw 0,1152(1)
	stw 0,1156(1)
	stw 0,1160(1)
.LVL828:
.LBE5758:
.LBE5757:
.LBB5759:
.LBB5755:
	.loc 5 571 0
	stwu 3,1200(4)
	addi 3,23,20
.LVL829:
.LEHB14:
	bl _ZNSt8_Rb_treeIwSt4pairIKw13ftgxCharData_ESt10_Select1stIS3_ESt4lessIwESaIS3_EE17_M_insert_unique_ESt23_Rb_tree_const_iteratorIS3_ERKS3_.constprop.117
.LEHE14:
.LVL830:
.L658:
.LBE5755:
.LBE5759:
.LBE5745:
.LBE5744:
	.loc 2 188 0
	lwz 11,4(29)
.LBB5760:
.LBB5761:
.LBB5762:
.LBB5763:
.LBB5764:
.LBB5765:
	.loc 1 1089 0
	mr 23,28
.LVL831:
.LBE5765:
.LBE5764:
	.loc 2 608 0
	lwz 9,20(29)
.LBE5763:
.LBE5762:
.LBE5761:
.LBE5760:
	.loc 2 188 0
	lwz 11,84(11)
.LBB5856:
.LBB5853:
.LBB5774:
.LBB5772:
.LBB5770:
.LBB5766:
	.loc 1 1089 0
	cmpwi 7,9,0
.LBE5766:
.LBE5770:
.LBE5772:
.LBE5774:
.LBE5853:
.LBE5856:
	.loc 2 188 0
	lwz 0,100(11)
	sth 0,20(3)
.LVL832:
.LBB5857:
.LBB5854:
.LBB5775:
.LBB5773:
.LBB5771:
.LBB5767:
	.loc 1 1089 0
	bne+ 7,.L662
	b .L659
.LVL833:
.L1081:
.LBE5767:
	.loc 2 608 0
	mr 23,9
	.loc 1 1091 0
	lwz 9,8(9)
.LVL834:
.LBB5768:
	.loc 1 1089 0
	cmpwi 7,9,0
	beq- 7,.L1080
.LVL835:
.L662:
	.loc 1 1090 0
	lha 0,16(9)
	cmpw 7,0,31
	bge- 7,.L1081
.LVL836:
.LBE5768:
	.loc 2 608 0
	lwz 9,12(9)
.LVL837:
.LBB5769:
	.loc 1 1089 0
	cmpwi 7,9,0
	bne+ 7,.L662
.L1080:
.LVL838:
.LBE5769:
.LBE5771:
.LBE5773:
.LBE5775:
	.loc 5 452 0
	cmpw 7,28,23
	beq- 7,.L659
.LVL839:
	lha 0,16(23)
	cmpw 7,0,31
	ble- 7,.L673
.LVL840:
.L659:
.LBB5776:
.LBB5777:
.LBB5778:
.LBB5779:
	.loc 1 445 0
	li 0,0
.LBB5780:
.LBB5781:
	.loc 1 459 0
	addi 11,1,508
.LBE5781:
.LBE5780:
.LBE5779:
.LBE5778:
.LBE5777:
.LBE5776:
.LBB5793:
.LBB5794:
.LBB5795:
.LBB5796:
.LBB5797:
.LBB5798:
.LBB5799:
.LBB5800:
	addi 9,1,1116
.LVL841:
.LBE5800:
.LBE5799:
.LBE5798:
.LBE5797:
.LBE5796:
.LBE5795:
.LBE5794:
.LBE5793:
.LBB5808:
.LBB5809:
	.loc 5 571 0
	mr 4,1
.LBE5809:
.LBE5808:
.LBB5814:
.LBB5790:
.LBB5787:
.LBB5784:
	.loc 1 445 0
	stw 0,508(1)
.LBE5784:
.LBE5787:
.LBE5790:
.LBE5814:
.LBB5815:
.LBB5810:
	.loc 5 571 0
	addi 3,29,12
.LVL842:
.LBE5810:
.LBE5815:
.LBB5816:
.LBB5791:
.LBB5788:
.LBB5785:
	.loc 1 445 0
	stw 0,512(1)
.LBE5785:
.LBE5788:
.LBE5791:
.LBE5816:
.LBB5817:
.LBB5811:
	.loc 5 571 0
	addi 5,1,1108
.LBE5811:
.LBE5817:
.LBB5818:
.LBB5792:
.LBB5789:
.LBB5786:
	.loc 1 445 0
	stw 0,524(1)
.LVL843:
.LBB5783:
.LBB5782:
	.loc 1 459 0
	stw 11,516(1)
	.loc 1 460 0
	stw 11,520(1)
.LVL844:
.LBE5782:
.LBE5783:
.LBE5786:
.LBE5789:
.LBE5792:
.LBE5818:
.LBB5819:
.LBB5807:
	.loc 6 104 0
	sth 31,1108(1)
.LVL845:
.LBB5806:
.LBB5805:
.LBB5804:
.LBB5803:
	.loc 1 450 0
	stw 0,1116(1)
	stw 0,1120(1)
	stw 0,1132(1)
.LVL846:
.LBB5802:
.LBB5801:
	.loc 1 459 0
	stw 9,1124(1)
	.loc 1 460 0
	stw 9,1128(1)
.LVL847:
.LBE5801:
.LBE5802:
.LBE5803:
.LBE5804:
.LBE5805:
.LBE5806:
.LBE5807:
.LBE5819:
.LBB5820:
.LBB5812:
	.loc 5 571 0
	stwu 23,1196(4)
.LEHB15:
	bl _ZNSt8_Rb_treeIsSt4pairIKsSt3mapIw13ftgxCharData_St4lessIwESaIS0_IKwS3_EEEESt10_Select1stISA_ES4_IsESaISA_EE17_M_insert_unique_ESt23_Rb_tree_const_iteratorISA_ERKSA_.constprop.111
.LEHE15:
.LVL848:
.LBE5812:
.LBE5820:
.LBB5821:
.LBB5822:
.LBB5823:
.LBB5824:
.LBB5825:
.LBB5826:
.LBB5827:
	.loc 1 639 0
	lwz 4,1120(1)
.LBE5827:
.LBE5826:
.LBE5825:
.LBE5824:
.LBE5823:
.LBE5822:
.LBE5821:
.LBB5834:
.LBB5813:
	.loc 5 571 0
	mr 23,3
.LVL849:
.LBE5813:
.LBE5834:
.LBB5835:
.LBB5833:
.LBB5832:
.LBB5831:
.LBB5830:
.LBB5829:
.LBB5828:
	.loc 1 639 0
	addi 3,1,1112
.LVL850:
	bl _ZNSt8_Rb_treeIwSt4pairIKw13ftgxCharData_ESt10_Select1stIS3_ESt4lessIwESaIS3_EE8_M_eraseEPSt13_Rb_tree_nodeIS3_E
.LVL851:
.LBE5828:
.LBE5829:
.LBE5830:
.LBE5831:
.LBE5832:
.LBE5833:
.LBE5835:
.LBB5836:
.LBB5837:
.LBB5838:
.LBB5839:
.LBB5840:
	addi 3,1,504
	lwz 4,8(3)
	bl _ZNSt8_Rb_treeIwSt4pairIKw13ftgxCharData_ESt10_Select1stIS3_ESt4lessIwESaIS3_EE8_M_eraseEPSt13_Rb_tree_nodeIS3_E
.LVL852:
.L673:
.LBE5840:
.LBE5839:
.LBE5838:
.LBE5837:
.LBE5836:
.LBE5854:
.LBE5857:
.LBB5858:
.LBB5859:
.LBB5860:
.LBB5861:
	.loc 2 608 0
	lwz 9,28(23)
	.loc 1 828 0
	addi 3,23,24
.LVL853:
.LBB5862:
.LBB5863:
	.loc 1 1089 0
	mr 11,3
	cmpwi 7,9,0
	bne+ 7,.L1029
	b .L675
.LVL854:
.L1083:
.LBE5863:
	.loc 2 608 0
	mr 3,9
	.loc 1 1091 0
	lwz 9,8(9)
.LVL855:
.LBB5864:
	.loc 1 1089 0
	cmpwi 7,9,0
	beq- 7,.L1082
.LVL856:
.L1029:
	.loc 1 1090 0
	lwz 0,16(9)
	cmpw 7,0,30
	bge- 7,.L1083
.LVL857:
.LBE5864:
	.loc 2 608 0
	lwz 9,12(9)
.LVL858:
.LBB5865:
	.loc 1 1089 0
	cmpwi 7,9,0
	bne+ 7,.L1029
.L1082:
.LVL859:
.LBE5865:
.LBE5862:
.LBE5861:
.LBE5860:
	.loc 5 452 0
	cmpw 7,11,3
	beq- 7,.L675
.LVL860:
	lwz 0,16(3)
	cmpw 7,0,30
	ble- 7,.L691
.LVL861:
.L675:
	.loc 5 453 0
	li 0,0
.LBB5866:
.LBB5867:
	.loc 5 571 0
	mr 4,1
.LBE5867:
.LBE5866:
	.loc 5 453 0
	stw 0,480(1)
.LBB5870:
.LBB5868:
	.loc 5 571 0
	addi 5,1,1080
.LBE5868:
.LBE5870:
	.loc 5 453 0
	stw 0,484(1)
	stw 0,488(1)
	stw 0,492(1)
	stw 0,496(1)
	stw 0,500(1)
.LVL862:
.LBB5871:
.LBB5872:
	.loc 6 104 0
	stw 30,1080(1)
	stw 0,1084(1)
	stw 0,1088(1)
	stw 0,1092(1)
	stw 0,1096(1)
	stw 0,1100(1)
	stw 0,1104(1)
.LVL863:
.LBE5872:
.LBE5871:
.LBB5873:
.LBB5869:
	.loc 5 571 0
	stwu 3,1200(4)
	addi 3,23,20
.LVL864:
.LEHB16:
	bl _ZNSt8_Rb_treeIwSt4pairIKw13ftgxCharData_ESt10_Select1stIS3_ESt4lessIwESaIS3_EE17_M_insert_unique_ESt23_Rb_tree_const_iteratorIS3_ERKS3_.constprop.117
.LEHE16:
.LVL865:
.L691:
.LBE5869:
.LBE5873:
.LBE5859:
.LBE5858:
	.loc 2 189 0
	lwz 11,4(29)
.LBB5874:
.LBB5875:
.LBB5876:
.LBB5877:
.LBB5878:
.LBB5879:
	.loc 1 1089 0
	mr 23,28
.LVL866:
.LBE5879:
.LBE5878:
	.loc 2 608 0
	lwz 9,20(29)
.LBE5877:
.LBE5876:
.LBE5875:
.LBE5874:
	.loc 2 189 0
	lwz 11,84(11)
.LBB5970:
.LBB5967:
.LBB5888:
.LBB5886:
.LBB5884:
.LBB5880:
	.loc 1 1089 0
	cmpwi 7,9,0
.LBE5880:
.LBE5884:
.LBE5886:
.LBE5888:
.LBE5967:
.LBE5970:
	.loc 2 189 0
	lwz 0,64(11)
	srawi 0,0,6
	sth 0,22(3)
.LVL867:
.LBB5971:
.LBB5968:
.LBB5889:
.LBB5887:
.LBB5885:
.LBB5881:
	.loc 1 1089 0
	bne+ 7,.L695
	b .L692
.LVL868:
.L1085:
.LBE5881:
	.loc 2 608 0
	mr 23,9
	.loc 1 1091 0
	lwz 9,8(9)
.LVL869:
.LBB5882:
	.loc 1 1089 0
	cmpwi 7,9,0
	beq- 7,.L1084
.LVL870:
.L695:
	.loc 1 1090 0
	lha 0,16(9)
	cmpw 7,0,31
	bge- 7,.L1085
.LVL871:
.LBE5882:
	.loc 2 608 0
	lwz 9,12(9)
.LVL872:
.LBB5883:
	.loc 1 1089 0
	cmpwi 7,9,0
	bne+ 7,.L695
.L1084:
.LVL873:
.LBE5883:
.LBE5885:
.LBE5887:
.LBE5889:
	.loc 5 452 0
	cmpw 7,28,23
	beq- 7,.L692
.LVL874:
	lha 0,16(23)
	cmpw 7,0,31
	ble- 7,.L706
.LVL875:
.L692:
.LBB5890:
.LBB5891:
.LBB5892:
.LBB5893:
	.loc 1 445 0
	li 0,0
.LBB5894:
.LBB5895:
	.loc 1 459 0
	addi 11,1,460
.LBE5895:
.LBE5894:
.LBE5893:
.LBE5892:
.LBE5891:
.LBE5890:
.LBB5907:
.LBB5908:
.LBB5909:
.LBB5910:
.LBB5911:
.LBB5912:
.LBB5913:
.LBB5914:
	addi 9,1,1060
.LVL876:
.LBE5914:
.LBE5913:
.LBE5912:
.LBE5911:
.LBE5910:
.LBE5909:
.LBE5908:
.LBE5907:
.LBB5922:
.LBB5923:
	.loc 5 571 0
	mr 4,1
.LBE5923:
.LBE5922:
.LBB5928:
.LBB5904:
.LBB5901:
.LBB5898:
	.loc 1 445 0
	stw 0,460(1)
.LBE5898:
.LBE5901:
.LBE5904:
.LBE5928:
.LBB5929:
.LBB5924:
	.loc 5 571 0
	addi 3,29,12
.LVL877:
.LBE5924:
.LBE5929:
.LBB5930:
.LBB5905:
.LBB5902:
.LBB5899:
	.loc 1 445 0
	stw 0,464(1)
.LBE5899:
.LBE5902:
.LBE5905:
.LBE5930:
.LBB5931:
.LBB5925:
	.loc 5 571 0
	addi 5,1,1052
.LBE5925:
.LBE5931:
.LBB5932:
.LBB5906:
.LBB5903:
.LBB5900:
	.loc 1 445 0
	stw 0,476(1)
.LVL878:
.LBB5897:
.LBB5896:
	.loc 1 459 0
	stw 11,468(1)
	.loc 1 460 0
	stw 11,472(1)
.LVL879:
.LBE5896:
.LBE5897:
.LBE5900:
.LBE5903:
.LBE5906:
.LBE5932:
.LBB5933:
.LBB5921:
	.loc 6 104 0
	sth 31,1052(1)
.LVL880:
.LBB5920:
.LBB5919:
.LBB5918:
.LBB5917:
	.loc 1 450 0
	stw 0,1060(1)
	stw 0,1064(1)
	stw 0,1076(1)
.LVL881:
.LBB5916:
.LBB5915:
	.loc 1 459 0
	stw 9,1068(1)
	.loc 1 460 0
	stw 9,1072(1)
.LVL882:
.LBE5915:
.LBE5916:
.LBE5917:
.LBE5918:
.LBE5919:
.LBE5920:
.LBE5921:
.LBE5933:
.LBB5934:
.LBB5926:
	.loc 5 571 0
	stwu 23,1196(4)
.LEHB17:
	bl _ZNSt8_Rb_treeIsSt4pairIKsSt3mapIw13ftgxCharData_St4lessIwESaIS0_IKwS3_EEEESt10_Select1stISA_ES4_IsESaISA_EE17_M_insert_unique_ESt23_Rb_tree_const_iteratorISA_ERKSA_.constprop.111
.LEHE17:
.LVL883:
.LBE5926:
.LBE5934:
.LBB5935:
.LBB5936:
.LBB5937:
.LBB5938:
.LBB5939:
.LBB5940:
.LBB5941:
	.loc 1 639 0
	lwz 4,1064(1)
.LBE5941:
.LBE5940:
.LBE5939:
.LBE5938:
.LBE5937:
.LBE5936:
.LBE5935:
.LBB5948:
.LBB5927:
	.loc 5 571 0
	mr 23,3
.LVL884:
.LBE5927:
.LBE5948:
.LBB5949:
.LBB5947:
.LBB5946:
.LBB5945:
.LBB5944:
.LBB5943:
.LBB5942:
	.loc 1 639 0
	addi 3,1,1056
.LVL885:
	bl _ZNSt8_Rb_treeIwSt4pairIKw13ftgxCharData_ESt10_Select1stIS3_ESt4lessIwESaIS3_EE8_M_eraseEPSt13_Rb_tree_nodeIS3_E
.LVL886:
.LBE5942:
.LBE5943:
.LBE5944:
.LBE5945:
.LBE5946:
.LBE5947:
.LBE5949:
.LBB5950:
.LBB5951:
.LBB5952:
.LBB5953:
.LBB5954:
	addi 3,1,456
	lwz 4,8(3)
	bl _ZNSt8_Rb_treeIwSt4pairIKw13ftgxCharData_ESt10_Select1stIS3_ESt4lessIwESaIS3_EE8_M_eraseEPSt13_Rb_tree_nodeIS3_E
.LVL887:
.L706:
.LBE5954:
.LBE5953:
.LBE5952:
.LBE5951:
.LBE5950:
.LBE5968:
.LBE5971:
.LBB5972:
.LBB5973:
.LBB5974:
.LBB5975:
	.loc 2 608 0
	lwz 9,28(23)
	.loc 1 828 0
	addi 3,23,24
.LVL888:
.LBB5976:
.LBB5977:
	.loc 1 1089 0
	mr 11,3
	cmpwi 7,9,0
	bne+ 7,.L1028
	b .L708
.LVL889:
.L1087:
.LBE5977:
	.loc 2 608 0
	mr 3,9
	.loc 1 1091 0
	lwz 9,8(9)
.LVL890:
.LBB5978:
	.loc 1 1089 0
	cmpwi 7,9,0
	beq- 7,.L1086
.LVL891:
.L1028:
	.loc 1 1090 0
	lwz 0,16(9)
	cmpw 7,0,30
	bge- 7,.L1087
.LVL892:
.LBE5978:
	.loc 2 608 0
	lwz 9,12(9)
.LVL893:
.LBB5979:
	.loc 1 1089 0
	cmpwi 7,9,0
	bne+ 7,.L1028
.L1086:
.LVL894:
.LBE5979:
.LBE5976:
.LBE5975:
.LBE5974:
	.loc 5 452 0
	cmpw 7,3,11
	beq- 7,.L708
.LVL895:
	lwz 0,16(3)
	cmpw 7,0,30
	ble- 7,.L724
.LVL896:
.L708:
	.loc 5 453 0
	li 0,0
.LBB5980:
.LBB5981:
	.loc 5 571 0
	mr 4,1
.LBE5981:
.LBE5980:
	.loc 5 453 0
	stw 0,432(1)
.LBB5984:
.LBB5982:
	.loc 5 571 0
	addi 5,1,1024
.LBE5982:
.LBE5984:
	.loc 5 453 0
	stw 0,436(1)
	stw 0,440(1)
	stw 0,444(1)
	stw 0,448(1)
	stw 0,452(1)
.LVL897:
.LBB5985:
.LBB5986:
	.loc 6 104 0
	stw 30,1024(1)
	stw 0,1028(1)
	stw 0,1032(1)
	stw 0,1036(1)
	stw 0,1040(1)
	stw 0,1044(1)
	stw 0,1048(1)
.LVL898:
.LBE5986:
.LBE5985:
.LBB5987:
.LBB5983:
	.loc 5 571 0
	stwu 3,1200(4)
	addi 3,23,20
.LVL899:
.LEHB18:
	bl _ZNSt8_Rb_treeIwSt4pairIKw13ftgxCharData_ESt10_Select1stIS3_ESt4lessIwESaIS3_EE17_M_insert_unique_ESt23_Rb_tree_const_iteratorIS3_ERKS3_.constprop.117
.LEHE18:
.LVL900:
.L724:
.LBE5983:
.LBE5987:
.LBE5973:
.LBE5972:
.LBB5988:
.LBB5989:
.LBB5990:
.LBB5991:
	.loc 2 608 0
	lwz 9,20(29)
.LBE5991:
.LBE5990:
.LBE5989:
.LBE5988:
	.loc 2 190 0
	stw 25,24(3)
.LVL901:
.LBB6077:
.LBB6075:
.LBB5997:
.LBB5996:
.LBB5992:
.LBB5993:
	.loc 1 1089 0
	mr 25,28
.LVL902:
	cmpwi 7,9,0
	bne+ 7,.L728
	b .L725
.LVL903:
.L1089:
.LBE5993:
	.loc 2 608 0
	mr 25,9
	.loc 1 1091 0
	lwz 9,8(9)
.LVL904:
.LBB5994:
	.loc 1 1089 0
	cmpwi 7,9,0
	beq- 7,.L1088
.LVL905:
.L728:
	.loc 1 1090 0
	lha 0,16(9)
	cmpw 7,0,31
	bge- 7,.L1089
.LVL906:
.LBE5994:
	.loc 2 608 0
	lwz 9,12(9)
.LVL907:
.LBB5995:
	.loc 1 1089 0
	cmpwi 7,9,0
	bne+ 7,.L728
.L1088:
.LVL908:
.LBE5995:
.LBE5992:
.LBE5996:
.LBE5997:
	.loc 5 452 0
	cmpw 7,28,25
	beq- 7,.L725
.LVL909:
	lha 0,16(25)
	cmpw 7,0,31
	ble- 7,.L739
.LVL910:
.L725:
.LBB5998:
.LBB5999:
.LBB6000:
.LBB6001:
	.loc 1 445 0
	li 0,0
.LBB6002:
.LBB6003:
	.loc 1 459 0
	addi 11,1,412
.LBE6003:
.LBE6002:
.LBE6001:
.LBE6000:
.LBE5999:
.LBE5998:
.LBB6015:
.LBB6016:
.LBB6017:
.LBB6018:
.LBB6019:
.LBB6020:
.LBB6021:
.LBB6022:
	addi 9,1,1004
.LVL911:
.LBE6022:
.LBE6021:
.LBE6020:
.LBE6019:
.LBE6018:
.LBE6017:
.LBE6016:
.LBE6015:
.LBB6030:
.LBB6031:
	.loc 5 571 0
	mr 4,1
.LBE6031:
.LBE6030:
.LBB6036:
.LBB6012:
.LBB6009:
.LBB6006:
	.loc 1 445 0
	stw 0,412(1)
.LBE6006:
.LBE6009:
.LBE6012:
.LBE6036:
.LBB6037:
.LBB6032:
	.loc 5 571 0
	addi 3,29,12
.LVL912:
.LBE6032:
.LBE6037:
.LBB6038:
.LBB6013:
.LBB6010:
.LBB6007:
	.loc 1 445 0
	stw 0,416(1)
.LBE6007:
.LBE6010:
.LBE6013:
.LBE6038:
.LBB6039:
.LBB6033:
	.loc 5 571 0
	addi 5,1,996
.LBE6033:
.LBE6039:
.LBB6040:
.LBB6014:
.LBB6011:
.LBB6008:
	.loc 1 445 0
	stw 0,428(1)
.LVL913:
.LBB6005:
.LBB6004:
	.loc 1 459 0
	stw 11,420(1)
	.loc 1 460 0
	stw 11,424(1)
.LVL914:
.LBE6004:
.LBE6005:
.LBE6008:
.LBE6011:
.LBE6014:
.LBE6040:
.LBB6041:
.LBB6029:
	.loc 6 104 0
	sth 31,996(1)
.LVL915:
.LBB6028:
.LBB6027:
.LBB6026:
.LBB6025:
	.loc 1 450 0
	stw 0,1004(1)
	stw 0,1008(1)
	stw 0,1020(1)
.LVL916:
.LBB6024:
.LBB6023:
	.loc 1 459 0
	stw 9,1012(1)
	.loc 1 460 0
	stw 9,1016(1)
.LVL917:
.LBE6023:
.LBE6024:
.LBE6025:
.LBE6026:
.LBE6027:
.LBE6028:
.LBE6029:
.LBE6041:
.LBB6042:
.LBB6034:
	.loc 5 571 0
	stwu 25,1196(4)
.LEHB19:
	bl _ZNSt8_Rb_treeIsSt4pairIKsSt3mapIw13ftgxCharData_St4lessIwESaIS0_IKwS3_EEEESt10_Select1stISA_ES4_IsESaISA_EE17_M_insert_unique_ESt23_Rb_tree_const_iteratorISA_ERKSA_.constprop.111
.LEHE19:
.LVL918:
.LBE6034:
.LBE6042:
.LBB6043:
.LBB6044:
.LBB6045:
.LBB6046:
.LBB6047:
.LBB6048:
.LBB6049:
	.loc 1 639 0
	lwz 4,1008(1)
.LBE6049:
.LBE6048:
.LBE6047:
.LBE6046:
.LBE6045:
.LBE6044:
.LBE6043:
.LBB6056:
.LBB6035:
	.loc 5 571 0
	mr 25,3
.LVL919:
.LBE6035:
.LBE6056:
.LBB6057:
.LBB6055:
.LBB6054:
.LBB6053:
.LBB6052:
.LBB6051:
.LBB6050:
	.loc 1 639 0
	addi 3,1,1000
.LVL920:
	bl _ZNSt8_Rb_treeIwSt4pairIKw13ftgxCharData_ESt10_Select1stIS3_ESt4lessIwESaIS3_EE8_M_eraseEPSt13_Rb_tree_nodeIS3_E
.LVL921:
.LBE6050:
.LBE6051:
.LBE6052:
.LBE6053:
.LBE6054:
.LBE6055:
.LBE6057:
.LBB6058:
.LBB6059:
.LBB6060:
.LBB6061:
.LBB6062:
	addi 3,1,408
	lwz 4,8(3)
	bl _ZNSt8_Rb_treeIwSt4pairIKw13ftgxCharData_ESt10_Select1stIS3_ESt4lessIwESaIS3_EE8_M_eraseEPSt13_Rb_tree_nodeIS3_E
.LVL922:
.L739:
.LBE6062:
.LBE6061:
.LBE6060:
.LBE6059:
.LBE6058:
.LBE6075:
.LBE6077:
.LBB6078:
.LBB6079:
.LBB6080:
.LBB6081:
	.loc 2 608 0
	lwz 9,28(25)
	.loc 1 828 0
	addi 3,25,24
.LVL923:
.LBB6082:
.LBB6083:
	.loc 1 1089 0
	mr 11,3
	cmpwi 7,9,0
	bne+ 7,.L1027
	b .L741
.LVL924:
.L1091:
.LBE6083:
	.loc 2 608 0
	mr 3,9
	.loc 1 1091 0
	lwz 9,8(9)
.LVL925:
.LBB6084:
	.loc 1 1089 0
	cmpwi 7,9,0
	beq- 7,.L1090
.LVL926:
.L1027:
	.loc 1 1090 0
	lwz 0,16(9)
	cmpw 7,0,30
	bge- 7,.L1091
.LVL927:
.LBE6084:
	.loc 2 608 0
	lwz 9,12(9)
.LVL928:
.LBB6085:
	.loc 1 1089 0
	cmpwi 7,9,0
	bne+ 7,.L1027
.L1090:
.LVL929:
.LBE6085:
.LBE6082:
.LBE6081:
.LBE6080:
	.loc 5 452 0
	cmpw 7,11,3
	beq- 7,.L741
.LVL930:
	lwz 0,16(3)
	cmpw 7,0,30
	ble- 7,.L757
.LVL931:
.L741:
	.loc 5 453 0
	li 0,0
.LBB6086:
.LBB6087:
	.loc 5 571 0
	mr 4,1
.LBE6087:
.LBE6086:
	.loc 5 453 0
	stw 0,384(1)
.LBB6090:
.LBB6088:
	.loc 5 571 0
	addi 5,1,968
.LBE6088:
.LBE6090:
	.loc 5 453 0
	stw 0,388(1)
	stw 0,392(1)
	stw 0,396(1)
	stw 0,400(1)
	stw 0,404(1)
.LVL932:
.LBB6091:
.LBB6092:
	.loc 6 104 0
	stw 30,968(1)
	stw 0,972(1)
	stw 0,976(1)
	stw 0,980(1)
	stw 0,984(1)
	stw 0,988(1)
	stw 0,992(1)
.LVL933:
.LBE6092:
.LBE6091:
.LBB6093:
.LBB6089:
	.loc 5 571 0
	stwu 3,1200(4)
	addi 3,25,20
.LVL934:
.LEHB20:
	bl _ZNSt8_Rb_treeIwSt4pairIKw13ftgxCharData_ESt10_Select1stIS3_ESt4lessIwESaIS3_EE17_M_insert_unique_ESt23_Rb_tree_const_iteratorIS3_ERKS3_.constprop.117
.LEHE20:
.LVL935:
.L757:
.LBE6089:
.LBE6093:
.LBE6079:
.LBE6078:
.LBB6094:
.LBB6095:
.LBB6096:
.LBB6097:
	.loc 2 608 0
	lwz 9,20(29)
.LBB6098:
.LBB6099:
	.loc 1 1089 0
	mr 25,28
.LVL936:
.LBE6099:
.LBE6098:
.LBE6097:
.LBE6096:
.LBE6095:
.LBE6094:
	.loc 2 191 0
	sth 24,28(3)
.LVL937:
.LBB6185:
.LBB6183:
.LBB6105:
.LBB6104:
.LBB6103:
.LBB6100:
	.loc 1 1089 0
	cmpwi 7,9,0
	bne+ 7,.L761
	b .L758
.LVL938:
.L1093:
.LBE6100:
	.loc 2 608 0
	mr 25,9
	.loc 1 1091 0
	lwz 9,8(9)
.LVL939:
.LBB6101:
	.loc 1 1089 0
	cmpwi 7,9,0
	beq- 7,.L1092
.LVL940:
.L761:
	.loc 1 1090 0
	lha 0,16(9)
	cmpw 7,0,31
	bge- 7,.L1093
.LVL941:
.LBE6101:
	.loc 2 608 0
	lwz 9,12(9)
.LVL942:
.LBB6102:
	.loc 1 1089 0
	cmpwi 7,9,0
	bne+ 7,.L761
.L1092:
.LVL943:
.LBE6102:
.LBE6103:
.LBE6104:
.LBE6105:
	.loc 5 452 0
	cmpw 7,28,25
	beq- 7,.L758
.LVL944:
	lha 0,16(25)
	cmpw 7,0,31
	ble- 7,.L772
.LVL945:
.L758:
.LBB6106:
.LBB6107:
.LBB6108:
.LBB6109:
	.loc 1 445 0
	li 0,0
.LBB6110:
.LBB6111:
	.loc 1 459 0
	addi 11,1,364
.LBE6111:
.LBE6110:
.LBE6109:
.LBE6108:
.LBE6107:
.LBE6106:
.LBB6123:
.LBB6124:
.LBB6125:
.LBB6126:
.LBB6127:
.LBB6128:
.LBB6129:
.LBB6130:
	addi 9,1,948
.LVL946:
.LBE6130:
.LBE6129:
.LBE6128:
.LBE6127:
.LBE6126:
.LBE6125:
.LBE6124:
.LBE6123:
.LBB6138:
.LBB6139:
	.loc 5 571 0
	mr 4,1
.LBE6139:
.LBE6138:
.LBB6144:
.LBB6120:
.LBB6117:
.LBB6114:
	.loc 1 445 0
	stw 0,364(1)
.LBE6114:
.LBE6117:
.LBE6120:
.LBE6144:
.LBB6145:
.LBB6140:
	.loc 5 571 0
	addi 3,29,12
.LVL947:
.LBE6140:
.LBE6145:
.LBB6146:
.LBB6121:
.LBB6118:
.LBB6115:
	.loc 1 445 0
	stw 0,368(1)
.LBE6115:
.LBE6118:
.LBE6121:
.LBE6146:
.LBB6147:
.LBB6141:
	.loc 5 571 0
	addi 5,1,940
.LBE6141:
.LBE6147:
.LBB6148:
.LBB6122:
.LBB6119:
.LBB6116:
	.loc 1 445 0
	stw 0,380(1)
.LVL948:
.LBB6113:
.LBB6112:
	.loc 1 459 0
	stw 11,372(1)
	.loc 1 460 0
	stw 11,376(1)
.LVL949:
.LBE6112:
.LBE6113:
.LBE6116:
.LBE6119:
.LBE6122:
.LBE6148:
.LBB6149:
.LBB6137:
	.loc 6 104 0
	sth 31,940(1)
.LVL950:
.LBB6136:
.LBB6135:
.LBB6134:
.LBB6133:
	.loc 1 450 0
	stw 0,948(1)
	stw 0,952(1)
	stw 0,964(1)
.LVL951:
.LBB6132:
.LBB6131:
	.loc 1 459 0
	stw 9,956(1)
	.loc 1 460 0
	stw 9,960(1)
.LVL952:
.LBE6131:
.LBE6132:
.LBE6133:
.LBE6134:
.LBE6135:
.LBE6136:
.LBE6137:
.LBE6149:
.LBB6150:
.LBB6142:
	.loc 5 571 0
	stwu 25,1196(4)
.LEHB21:
	bl _ZNSt8_Rb_treeIsSt4pairIKsSt3mapIw13ftgxCharData_St4lessIwESaIS0_IKwS3_EEEESt10_Select1stISA_ES4_IsESaISA_EE17_M_insert_unique_ESt23_Rb_tree_const_iteratorISA_ERKSA_.constprop.111
.LEHE21:
.LVL953:
.LBE6142:
.LBE6150:
.LBB6151:
.LBB6152:
.LBB6153:
.LBB6154:
.LBB6155:
.LBB6156:
.LBB6157:
	.loc 1 639 0
	lwz 4,952(1)
.LBE6157:
.LBE6156:
.LBE6155:
.LBE6154:
.LBE6153:
.LBE6152:
.LBE6151:
.LBB6164:
.LBB6143:
	.loc 5 571 0
	mr 25,3
.LVL954:
.LBE6143:
.LBE6164:
.LBB6165:
.LBB6163:
.LBB6162:
.LBB6161:
.LBB6160:
.LBB6159:
.LBB6158:
	.loc 1 639 0
	addi 3,1,944
.LVL955:
	bl _ZNSt8_Rb_treeIwSt4pairIKw13ftgxCharData_ESt10_Select1stIS3_ESt4lessIwESaIS3_EE8_M_eraseEPSt13_Rb_tree_nodeIS3_E
.LVL956:
.LBE6158:
.LBE6159:
.LBE6160:
.LBE6161:
.LBE6162:
.LBE6163:
.LBE6165:
.LBB6166:
.LBB6167:
.LBB6168:
.LBB6169:
.LBB6170:
	addi 3,1,360
	lwz 4,8(3)
	bl _ZNSt8_Rb_treeIwSt4pairIKw13ftgxCharData_ESt10_Select1stIS3_ESt4lessIwESaIS3_EE8_M_eraseEPSt13_Rb_tree_nodeIS3_E
.LVL957:
.L772:
.LBE6170:
.LBE6169:
.LBE6168:
.LBE6167:
.LBE6166:
.LBE6183:
.LBE6185:
.LBB6186:
.LBB6187:
.LBB6188:
.LBB6189:
	.loc 2 608 0
	lwz 9,28(25)
	.loc 1 828 0
	addi 3,25,24
.LVL958:
.LBB6190:
.LBB6191:
	.loc 1 1089 0
	mr 11,3
	cmpwi 7,9,0
	bne+ 7,.L1026
	b .L774
.LVL959:
.L1095:
.LBE6191:
	.loc 2 608 0
	mr 3,9
	.loc 1 1091 0
	lwz 9,8(9)
.LVL960:
.LBB6192:
	.loc 1 1089 0
	cmpwi 7,9,0
	beq- 7,.L1094
.LVL961:
.L1026:
	.loc 1 1090 0
	lwz 0,16(9)
	cmpw 7,0,30
	bge- 7,.L1095
.LVL962:
.LBE6192:
	.loc 2 608 0
	lwz 9,12(9)
.LVL963:
.LBB6193:
	.loc 1 1089 0
	cmpwi 7,9,0
	bne+ 7,.L1026
.L1094:
.LVL964:
.LBE6193:
.LBE6190:
.LBE6189:
.LBE6188:
	.loc 5 452 0
	cmpw 7,11,3
	beq- 7,.L774
.LVL965:
	lwz 0,16(3)
	cmpw 7,0,30
	ble- 7,.L790
.LVL966:
.L774:
	.loc 5 453 0
	li 0,0
.LBB6194:
.LBB6195:
	.loc 5 571 0
	mr 4,1
.LBE6195:
.LBE6194:
	.loc 5 453 0
	stw 0,336(1)
.LBB6198:
.LBB6196:
	.loc 5 571 0
	addi 5,1,912
.LBE6196:
.LBE6198:
	.loc 5 453 0
	stw 0,340(1)
	stw 0,344(1)
	stw 0,348(1)
	stw 0,352(1)
	stw 0,356(1)
.LVL967:
.LBB6199:
.LBB6200:
	.loc 6 104 0
	stw 30,912(1)
	stw 0,916(1)
	stw 0,920(1)
	stw 0,924(1)
	stw 0,928(1)
	stw 0,932(1)
	stw 0,936(1)
.LVL968:
.LBE6200:
.LBE6199:
.LBB6201:
.LBB6197:
	.loc 5 571 0
	stwu 3,1200(4)
	addi 3,25,20
.LVL969:
.LEHB22:
	bl _ZNSt8_Rb_treeIwSt4pairIKw13ftgxCharData_ESt10_Select1stIS3_ESt4lessIwESaIS3_EE17_M_insert_unique_ESt23_Rb_tree_const_iteratorIS3_ERKS3_.constprop.117
.LEHE22:
.LVL970:
.L790:
.LBE6197:
.LBE6201:
.LBE6187:
.LBE6186:
.LBB6202:
.LBB6203:
.LBB6204:
.LBB6205:
	.loc 2 608 0
	lwz 9,20(29)
.LBE6205:
.LBE6204:
.LBE6203:
.LBE6202:
	.loc 2 192 0
	sth 26,30(3)
.LVL971:
.LBB6291:
.LBB6289:
.LBB6211:
.LBB6210:
.LBB6206:
.LBB6207:
	.loc 1 1089 0
	mr 26,28
.LVL972:
	cmpwi 7,9,0
	bne+ 7,.L794
	b .L791
.LVL973:
.L1097:
.LBE6207:
	.loc 2 608 0
	mr 26,9
	.loc 1 1091 0
	lwz 9,8(9)
.LVL974:
.LBB6208:
	.loc 1 1089 0
	cmpwi 7,9,0
	beq- 7,.L1096
.LVL975:
.L794:
	.loc 1 1090 0
	lha 0,16(9)
	cmpw 7,0,31
	bge- 7,.L1097
.LVL976:
.LBE6208:
	.loc 2 608 0
	lwz 9,12(9)
.LVL977:
.LBB6209:
	.loc 1 1089 0
	cmpwi 7,9,0
	bne+ 7,.L794
.L1096:
.LVL978:
.LBE6209:
.LBE6206:
.LBE6210:
.LBE6211:
	.loc 5 452 0
	cmpw 7,28,26
	beq- 7,.L791
.LVL979:
	lha 0,16(26)
	cmpw 7,0,31
	ble- 7,.L805
.LVL980:
.L791:
.LBB6212:
.LBB6213:
.LBB6214:
.LBB6215:
	.loc 1 445 0
	li 0,0
.LBB6216:
.LBB6217:
	.loc 1 459 0
	addi 11,1,316
.LBE6217:
.LBE6216:
.LBE6215:
.LBE6214:
.LBE6213:
.LBE6212:
.LBB6229:
.LBB6230:
.LBB6231:
.LBB6232:
.LBB6233:
.LBB6234:
.LBB6235:
.LBB6236:
	addi 9,1,892
.LVL981:
.LBE6236:
.LBE6235:
.LBE6234:
.LBE6233:
.LBE6232:
.LBE6231:
.LBE6230:
.LBE6229:
.LBB6244:
.LBB6245:
	.loc 5 571 0
	mr 4,1
.LBE6245:
.LBE6244:
.LBB6250:
.LBB6226:
.LBB6223:
.LBB6220:
	.loc 1 445 0
	stw 0,316(1)
.LBE6220:
.LBE6223:
.LBE6226:
.LBE6250:
.LBB6251:
.LBB6246:
	.loc 5 571 0
	addi 3,29,12
.LVL982:
.LBE6246:
.LBE6251:
.LBB6252:
.LBB6227:
.LBB6224:
.LBB6221:
	.loc 1 445 0
	stw 0,320(1)
.LBE6221:
.LBE6224:
.LBE6227:
.LBE6252:
.LBB6253:
.LBB6247:
	.loc 5 571 0
	addi 5,1,884
.LBE6247:
.LBE6253:
.LBB6254:
.LBB6228:
.LBB6225:
.LBB6222:
	.loc 1 445 0
	stw 0,332(1)
.LVL983:
.LBB6219:
.LBB6218:
	.loc 1 459 0
	stw 11,324(1)
	.loc 1 460 0
	stw 11,328(1)
.LVL984:
.LBE6218:
.LBE6219:
.LBE6222:
.LBE6225:
.LBE6228:
.LBE6254:
.LBB6255:
.LBB6243:
	.loc 6 104 0
	sth 31,884(1)
.LVL985:
.LBB6242:
.LBB6241:
.LBB6240:
.LBB6239:
	.loc 1 450 0
	stw 0,892(1)
	stw 0,896(1)
	stw 0,908(1)
.LVL986:
.LBB6238:
.LBB6237:
	.loc 1 459 0
	stw 9,900(1)
	.loc 1 460 0
	stw 9,904(1)
.LVL987:
.LBE6237:
.LBE6238:
.LBE6239:
.LBE6240:
.LBE6241:
.LBE6242:
.LBE6243:
.LBE6255:
.LBB6256:
.LBB6248:
	.loc 5 571 0
	stwu 26,1196(4)
.LEHB23:
	bl _ZNSt8_Rb_treeIsSt4pairIKsSt3mapIw13ftgxCharData_St4lessIwESaIS0_IKwS3_EEEESt10_Select1stISA_ES4_IsESaISA_EE17_M_insert_unique_ESt23_Rb_tree_const_iteratorISA_ERKSA_.constprop.111
.LEHE23:
.LVL988:
.LBE6248:
.LBE6256:
.LBB6257:
.LBB6258:
.LBB6259:
.LBB6260:
.LBB6261:
.LBB6262:
.LBB6263:
	.loc 1 639 0
	lwz 4,896(1)
.LBE6263:
.LBE6262:
.LBE6261:
.LBE6260:
.LBE6259:
.LBE6258:
.LBE6257:
.LBB6270:
.LBB6249:
	.loc 5 571 0
	mr 26,3
.LVL989:
.LBE6249:
.LBE6270:
.LBB6271:
.LBB6269:
.LBB6268:
.LBB6267:
.LBB6266:
.LBB6265:
.LBB6264:
	.loc 1 639 0
	addi 3,1,888
.LVL990:
	bl _ZNSt8_Rb_treeIwSt4pairIKw13ftgxCharData_ESt10_Select1stIS3_ESt4lessIwESaIS3_EE8_M_eraseEPSt13_Rb_tree_nodeIS3_E
.LVL991:
.LBE6264:
.LBE6265:
.LBE6266:
.LBE6267:
.LBE6268:
.LBE6269:
.LBE6271:
.LBB6272:
.LBB6273:
.LBB6274:
.LBB6275:
.LBB6276:
	addi 3,1,312
	lwz 4,8(3)
	bl _ZNSt8_Rb_treeIwSt4pairIKw13ftgxCharData_ESt10_Select1stIS3_ESt4lessIwESaIS3_EE8_M_eraseEPSt13_Rb_tree_nodeIS3_E
.LVL992:
.L805:
.LBE6276:
.LBE6275:
.LBE6274:
.LBE6273:
.LBE6272:
.LBE6289:
.LBE6291:
.LBB6292:
.LBB6293:
.LBB6294:
.LBB6295:
	.loc 2 608 0
	lwz 9,28(26)
	.loc 1 828 0
	addi 3,26,24
.LVL993:
.LBB6296:
.LBB6297:
	.loc 1 1089 0
	mr 11,3
	cmpwi 7,9,0
	bne+ 7,.L1025
	b .L807
.LVL994:
.L1099:
.LBE6297:
	.loc 2 608 0
	mr 3,9
	.loc 1 1091 0
	lwz 9,8(9)
.LVL995:
.LBB6298:
	.loc 1 1089 0
	cmpwi 7,9,0
	beq- 7,.L1098
.LVL996:
.L1025:
	.loc 1 1090 0
	lwz 0,16(9)
	cmpw 7,0,30
	bge- 7,.L1099
.LVL997:
.LBE6298:
	.loc 2 608 0
	lwz 9,12(9)
.LVL998:
.LBB6299:
	.loc 1 1089 0
	cmpwi 7,9,0
	bne+ 7,.L1025
.L1098:
.LVL999:
.LBE6299:
.LBE6296:
.LBE6295:
.LBE6294:
	.loc 5 452 0
	cmpw 7,11,3
	beq- 7,.L807
.LVL1000:
	lwz 0,16(3)
	cmpw 7,0,30
	ble- 7,.L823
.LVL1001:
.L807:
	.loc 5 453 0
	li 0,0
.LBB6300:
.LBB6301:
	.loc 5 571 0
	mr 4,1
.LBE6301:
.LBE6300:
	.loc 5 453 0
	stw 0,288(1)
.LBB6304:
.LBB6302:
	.loc 5 571 0
	addi 5,1,856
.LBE6302:
.LBE6304:
	.loc 5 453 0
	stw 0,292(1)
	stw 0,296(1)
	stw 0,300(1)
	stw 0,304(1)
	stw 0,308(1)
.LVL1002:
.LBB6305:
.LBB6306:
	.loc 6 104 0
	stw 30,856(1)
	stw 0,860(1)
	stw 0,864(1)
	stw 0,868(1)
	stw 0,872(1)
	stw 0,876(1)
	stw 0,880(1)
.LVL1003:
.LBE6306:
.LBE6305:
.LBB6307:
.LBB6303:
	.loc 5 571 0
	stwu 3,1200(4)
	addi 3,26,20
.LVL1004:
.LEHB24:
	bl _ZNSt8_Rb_treeIwSt4pairIKw13ftgxCharData_ESt10_Select1stIS3_ESt4lessIwESaIS3_EE17_M_insert_unique_ESt23_Rb_tree_const_iteratorIS3_ERKS3_.constprop.117
.LEHE24:
.LVL1005:
.L823:
.LBE6303:
.LBE6307:
.LBE6293:
.LBE6292:
	.loc 2 193 0
	lwz 11,4(29)
.LBB6308:
.LBB6309:
.LBB6310:
.LBB6311:
.LBB6312:
.LBB6313:
	.loc 1 1089 0
	mr 26,28
.LVL1006:
.LBE6313:
.LBE6312:
	.loc 2 608 0
	lwz 9,20(29)
.LBE6311:
.LBE6310:
.LBE6309:
.LBE6308:
	.loc 2 193 0
	lwz 11,84(11)
.LBB6404:
.LBB6401:
.LBB6322:
.LBB6320:
.LBB6318:
.LBB6314:
	.loc 1 1089 0
	cmpwi 7,9,0
.LBE6314:
.LBE6318:
.LBE6320:
.LBE6322:
.LBE6401:
.LBE6404:
	.loc 2 193 0
	lwz 0,104(11)
	sth 0,32(3)
.LVL1007:
.LBB6405:
.LBB6402:
.LBB6323:
.LBB6321:
.LBB6319:
.LBB6315:
	.loc 1 1089 0
	bne+ 7,.L827
	b .L824
.LVL1008:
.L1101:
.LBE6315:
	.loc 2 608 0
	mr 26,9
	.loc 1 1091 0
	lwz 9,8(9)
.LVL1009:
.LBB6316:
	.loc 1 1089 0
	cmpwi 7,9,0
	beq- 7,.L1100
.LVL1010:
.L827:
	.loc 1 1090 0
	lha 0,16(9)
	cmpw 7,0,31
	bge- 7,.L1101
.LVL1011:
.LBE6316:
	.loc 2 608 0
	lwz 9,12(9)
.LVL1012:
.LBB6317:
	.loc 1 1089 0
	cmpwi 7,9,0
	bne+ 7,.L827
.L1100:
.LVL1013:
.LBE6317:
.LBE6319:
.LBE6321:
.LBE6323:
	.loc 5 452 0
	cmpw 7,28,26
	beq- 7,.L824
.LVL1014:
	lha 0,16(26)
	cmpw 7,0,31
	ble- 7,.L838
.LVL1015:
.L824:
.LBB6324:
.LBB6325:
.LBB6326:
.LBB6327:
	.loc 1 445 0
	li 0,0
.LBB6328:
.LBB6329:
	.loc 1 459 0
	addi 11,1,268
.LBE6329:
.LBE6328:
.LBE6327:
.LBE6326:
.LBE6325:
.LBE6324:
.LBB6341:
.LBB6342:
.LBB6343:
.LBB6344:
.LBB6345:
.LBB6346:
.LBB6347:
.LBB6348:
	addi 9,1,836
.LVL1016:
.LBE6348:
.LBE6347:
.LBE6346:
.LBE6345:
.LBE6344:
.LBE6343:
.LBE6342:
.LBE6341:
.LBB6356:
.LBB6357:
	.loc 5 571 0
	mr 4,1
.LBE6357:
.LBE6356:
.LBB6362:
.LBB6338:
.LBB6335:
.LBB6332:
	.loc 1 445 0
	stw 0,268(1)
.LBE6332:
.LBE6335:
.LBE6338:
.LBE6362:
.LBB6363:
.LBB6358:
	.loc 5 571 0
	addi 3,29,12
.LVL1017:
.LBE6358:
.LBE6363:
.LBB6364:
.LBB6339:
.LBB6336:
.LBB6333:
	.loc 1 445 0
	stw 0,272(1)
.LBE6333:
.LBE6336:
.LBE6339:
.LBE6364:
.LBB6365:
.LBB6359:
	.loc 5 571 0
	addi 5,1,828
.LBE6359:
.LBE6365:
.LBB6366:
.LBB6340:
.LBB6337:
.LBB6334:
	.loc 1 445 0
	stw 0,284(1)
.LVL1018:
.LBB6331:
.LBB6330:
	.loc 1 459 0
	stw 11,276(1)
	.loc 1 460 0
	stw 11,280(1)
.LVL1019:
.LBE6330:
.LBE6331:
.LBE6334:
.LBE6337:
.LBE6340:
.LBE6366:
.LBB6367:
.LBB6355:
	.loc 6 104 0
	sth 31,828(1)
.LVL1020:
.LBB6354:
.LBB6353:
.LBB6352:
.LBB6351:
	.loc 1 450 0
	stw 0,836(1)
	stw 0,840(1)
	stw 0,852(1)
.LVL1021:
.LBB6350:
.LBB6349:
	.loc 1 459 0
	stw 9,844(1)
	.loc 1 460 0
	stw 9,848(1)
.LVL1022:
.LBE6349:
.LBE6350:
.LBE6351:
.LBE6352:
.LBE6353:
.LBE6354:
.LBE6355:
.LBE6367:
.LBB6368:
.LBB6360:
	.loc 5 571 0
	stwu 26,1196(4)
.LEHB25:
	bl _ZNSt8_Rb_treeIsSt4pairIKsSt3mapIw13ftgxCharData_St4lessIwESaIS0_IKwS3_EEEESt10_Select1stISA_ES4_IsESaISA_EE17_M_insert_unique_ESt23_Rb_tree_const_iteratorISA_ERKSA_.constprop.111
.LEHE25:
.LVL1023:
.LBE6360:
.LBE6368:
.LBB6369:
.LBB6370:
.LBB6371:
.LBB6372:
.LBB6373:
.LBB6374:
.LBB6375:
	.loc 1 639 0
	lwz 4,840(1)
.LBE6375:
.LBE6374:
.LBE6373:
.LBE6372:
.LBE6371:
.LBE6370:
.LBE6369:
.LBB6382:
.LBB6361:
	.loc 5 571 0
	mr 26,3
.LVL1024:
.LBE6361:
.LBE6382:
.LBB6383:
.LBB6381:
.LBB6380:
.LBB6379:
.LBB6378:
.LBB6377:
.LBB6376:
	.loc 1 639 0
	addi 3,1,832
.LVL1025:
	bl _ZNSt8_Rb_treeIwSt4pairIKw13ftgxCharData_ESt10_Select1stIS3_ESt4lessIwESaIS3_EE8_M_eraseEPSt13_Rb_tree_nodeIS3_E
.LVL1026:
.LBE6376:
.LBE6377:
.LBE6378:
.LBE6379:
.LBE6380:
.LBE6381:
.LBE6383:
.LBB6384:
.LBB6385:
.LBB6386:
.LBB6387:
.LBB6388:
	addi 3,1,264
	lwz 4,8(3)
	bl _ZNSt8_Rb_treeIwSt4pairIKw13ftgxCharData_ESt10_Select1stIS3_ESt4lessIwESaIS3_EE8_M_eraseEPSt13_Rb_tree_nodeIS3_E
.LVL1027:
.L838:
.LBE6388:
.LBE6387:
.LBE6386:
.LBE6385:
.LBE6384:
.LBE6402:
.LBE6405:
.LBB6406:
.LBB6407:
.LBB6408:
.LBB6409:
	.loc 2 608 0
	lwz 9,28(26)
	.loc 1 828 0
	addi 3,26,24
.LVL1028:
.LBB6410:
.LBB6411:
	.loc 1 1089 0
	mr 11,3
	cmpwi 7,9,0
	bne+ 7,.L1024
	b .L840
.LVL1029:
.L1103:
.LBE6411:
	.loc 2 608 0
	mr 3,9
	.loc 1 1091 0
	lwz 9,8(9)
.LVL1030:
.LBB6412:
	.loc 1 1089 0
	cmpwi 7,9,0
	beq- 7,.L1102
.LVL1031:
.L1024:
	.loc 1 1090 0
	lwz 0,16(9)
	cmpw 7,0,30
	bge- 7,.L1103
.LVL1032:
.LBE6412:
	.loc 2 608 0
	lwz 9,12(9)
.LVL1033:
.LBB6413:
	.loc 1 1089 0
	cmpwi 7,9,0
	bne+ 7,.L1024
.L1102:
.LVL1034:
.LBE6413:
.LBE6410:
.LBE6409:
.LBE6408:
	.loc 5 452 0
	cmpw 7,3,11
	beq- 7,.L840
.LVL1035:
	lwz 0,16(3)
	cmpw 7,0,30
	ble- 7,.L856
.LVL1036:
.L840:
	.loc 5 453 0
	li 0,0
.LBB6414:
.LBB6415:
	.loc 5 571 0
	mr 4,1
.LBE6415:
.LBE6414:
	.loc 5 453 0
	stw 0,240(1)
.LBB6418:
.LBB6416:
	.loc 5 571 0
	addi 5,1,800
.LBE6416:
.LBE6418:
	.loc 5 453 0
	stw 0,244(1)
	stw 0,248(1)
	stw 0,252(1)
	stw 0,256(1)
	stw 0,260(1)
.LVL1037:
.LBB6419:
.LBB6420:
	.loc 6 104 0
	stw 30,800(1)
	stw 0,804(1)
	stw 0,808(1)
	stw 0,812(1)
	stw 0,816(1)
	stw 0,820(1)
	stw 0,824(1)
.LVL1038:
.LBE6420:
.LBE6419:
.LBB6421:
.LBB6417:
	.loc 5 571 0
	stwu 3,1200(4)
	addi 3,26,20
.LVL1039:
.LEHB26:
	bl _ZNSt8_Rb_treeIwSt4pairIKw13ftgxCharData_ESt10_Select1stIS3_ESt4lessIwESaIS3_EE17_M_insert_unique_ESt23_Rb_tree_const_iteratorIS3_ERKS3_.constprop.117
.LEHE26:
.LVL1040:
.L856:
.LBE6417:
.LBE6421:
.LBE6407:
.LBE6406:
	.loc 2 194 0
	lwz 11,4(29)
.LBB6422:
.LBB6423:
.LBB6424:
.LBB6425:
.LBB6426:
.LBB6427:
	.loc 1 1089 0
	mr 26,28
.LVL1041:
.LBE6427:
.LBE6426:
	.loc 2 608 0
	lwz 9,20(29)
.LBE6425:
.LBE6424:
.LBE6423:
.LBE6422:
	.loc 2 194 0
	lwz 11,84(11)
.LBB6518:
.LBB6515:
.LBB6436:
.LBB6434:
.LBB6432:
.LBB6428:
	.loc 1 1089 0
	cmpwi 7,9,0
.LBE6428:
.LBE6432:
.LBE6434:
.LBE6436:
.LBE6515:
.LBE6518:
	.loc 2 194 0
	lwz 0,104(11)
	sth 0,34(3)
.LVL1042:
.LBB6519:
.LBB6516:
.LBB6437:
.LBB6435:
.LBB6433:
.LBB6429:
	.loc 1 1089 0
	bne+ 7,.L860
	b .L857
.LVL1043:
.L1105:
.LBE6429:
	.loc 2 608 0
	mr 26,9
	.loc 1 1091 0
	lwz 9,8(9)
.LVL1044:
.LBB6430:
	.loc 1 1089 0
	cmpwi 7,9,0
	beq- 7,.L1104
.LVL1045:
.L860:
	.loc 1 1090 0
	lha 0,16(9)
	cmpw 7,0,31
	bge- 7,.L1105
.LVL1046:
.LBE6430:
	.loc 2 608 0
	lwz 9,12(9)
.LVL1047:
.LBB6431:
	.loc 1 1089 0
	cmpwi 7,9,0
	bne+ 7,.L860
.L1104:
.LVL1048:
.LBE6431:
.LBE6433:
.LBE6435:
.LBE6437:
	.loc 5 452 0
	cmpw 7,28,26
	beq- 7,.L857
.LVL1049:
	lha 0,16(26)
	cmpw 7,0,31
	ble- 7,.L871
.LVL1050:
.L857:
.LBB6438:
.LBB6439:
.LBB6440:
.LBB6441:
	.loc 1 445 0
	li 0,0
.LBB6442:
.LBB6443:
	.loc 1 459 0
	addi 11,1,220
.LBE6443:
.LBE6442:
.LBE6441:
.LBE6440:
.LBE6439:
.LBE6438:
.LBB6455:
.LBB6456:
.LBB6457:
.LBB6458:
.LBB6459:
.LBB6460:
.LBB6461:
.LBB6462:
	addi 9,1,780
.LVL1051:
.LBE6462:
.LBE6461:
.LBE6460:
.LBE6459:
.LBE6458:
.LBE6457:
.LBE6456:
.LBE6455:
.LBB6470:
.LBB6471:
	.loc 5 571 0
	mr 4,1
.LBE6471:
.LBE6470:
.LBB6476:
.LBB6452:
.LBB6449:
.LBB6446:
	.loc 1 445 0
	stw 0,220(1)
.LBE6446:
.LBE6449:
.LBE6452:
.LBE6476:
.LBB6477:
.LBB6472:
	.loc 5 571 0
	addi 3,29,12
.LVL1052:
.LBE6472:
.LBE6477:
.LBB6478:
.LBB6453:
.LBB6450:
.LBB6447:
	.loc 1 445 0
	stw 0,224(1)
.LBE6447:
.LBE6450:
.LBE6453:
.LBE6478:
.LBB6479:
.LBB6473:
	.loc 5 571 0
	addi 5,1,772
.LBE6473:
.LBE6479:
.LBB6480:
.LBB6454:
.LBB6451:
.LBB6448:
	.loc 1 445 0
	stw 0,236(1)
.LVL1053:
.LBB6445:
.LBB6444:
	.loc 1 459 0
	stw 11,228(1)
	.loc 1 460 0
	stw 11,232(1)
.LVL1054:
.LBE6444:
.LBE6445:
.LBE6448:
.LBE6451:
.LBE6454:
.LBE6480:
.LBB6481:
.LBB6469:
	.loc 6 104 0
	sth 31,772(1)
.LVL1055:
.LBB6468:
.LBB6467:
.LBB6466:
.LBB6465:
	.loc 1 450 0
	stw 0,780(1)
	stw 0,784(1)
	stw 0,796(1)
.LVL1056:
.LBB6464:
.LBB6463:
	.loc 1 459 0
	stw 9,788(1)
	.loc 1 460 0
	stw 9,792(1)
.LVL1057:
.LBE6463:
.LBE6464:
.LBE6465:
.LBE6466:
.LBE6467:
.LBE6468:
.LBE6469:
.LBE6481:
.LBB6482:
.LBB6474:
	.loc 5 571 0
	stwu 26,1196(4)
.LEHB27:
	bl _ZNSt8_Rb_treeIsSt4pairIKsSt3mapIw13ftgxCharData_St4lessIwESaIS0_IKwS3_EEEESt10_Select1stISA_ES4_IsESaISA_EE17_M_insert_unique_ESt23_Rb_tree_const_iteratorISA_ERKSA_.constprop.111
.LEHE27:
.LVL1058:
.LBE6474:
.LBE6482:
.LBB6483:
.LBB6484:
.LBB6485:
.LBB6486:
.LBB6487:
.LBB6488:
.LBB6489:
	.loc 1 639 0
	lwz 4,784(1)
.LBE6489:
.LBE6488:
.LBE6487:
.LBE6486:
.LBE6485:
.LBE6484:
.LBE6483:
.LBB6496:
.LBB6475:
	.loc 5 571 0
	mr 26,3
.LVL1059:
.LBE6475:
.LBE6496:
.LBB6497:
.LBB6495:
.LBB6494:
.LBB6493:
.LBB6492:
.LBB6491:
.LBB6490:
	.loc 1 639 0
	addi 3,1,776
.LVL1060:
	bl _ZNSt8_Rb_treeIwSt4pairIKw13ftgxCharData_ESt10_Select1stIS3_ESt4lessIwESaIS3_EE8_M_eraseEPSt13_Rb_tree_nodeIS3_E
.LVL1061:
.LBE6490:
.LBE6491:
.LBE6492:
.LBE6493:
.LBE6494:
.LBE6495:
.LBE6497:
.LBB6498:
.LBB6499:
.LBB6500:
.LBB6501:
.LBB6502:
	addi 3,1,216
	lwz 4,8(3)
	bl _ZNSt8_Rb_treeIwSt4pairIKw13ftgxCharData_ESt10_Select1stIS3_ESt4lessIwESaIS3_EE8_M_eraseEPSt13_Rb_tree_nodeIS3_E
.LVL1062:
.L871:
.LBE6502:
.LBE6501:
.LBE6500:
.LBE6499:
.LBE6498:
.LBE6516:
.LBE6519:
.LBB6520:
.LBB6521:
.LBB6522:
.LBB6523:
	.loc 2 608 0
	lwz 9,28(26)
	.loc 1 828 0
	addi 3,26,24
.LVL1063:
.LBB6524:
.LBB6525:
	.loc 1 1089 0
	mr 11,3
	cmpwi 7,9,0
	bne+ 7,.L1023
	b .L873
.LVL1064:
.L1107:
.LBE6525:
	.loc 2 608 0
	mr 3,9
	.loc 1 1091 0
	lwz 9,8(9)
.LVL1065:
.LBB6526:
	.loc 1 1089 0
	cmpwi 7,9,0
	beq- 7,.L1106
.LVL1066:
.L1023:
	.loc 1 1090 0
	lwz 0,16(9)
	cmpw 7,0,30
	bge- 7,.L1107
.LVL1067:
.LBE6526:
	.loc 2 608 0
	lwz 9,12(9)
.LVL1068:
.LBB6527:
	.loc 1 1089 0
	cmpwi 7,9,0
	bne+ 7,.L1023
.L1106:
.LVL1069:
.LBE6527:
.LBE6524:
.LBE6523:
.LBE6522:
	.loc 5 452 0
	cmpw 7,11,3
	beq- 7,.L873
.LVL1070:
	lwz 0,16(3)
	cmpw 7,0,30
	ble- 7,.L889
.LVL1071:
.L873:
	.loc 5 453 0
	li 0,0
.LBB6528:
.LBB6529:
	.loc 5 571 0
	mr 4,1
.LBE6529:
.LBE6528:
	.loc 5 453 0
	stw 0,192(1)
.LBB6532:
.LBB6530:
	.loc 5 571 0
	addi 5,1,744
.LBE6530:
.LBE6532:
	.loc 5 453 0
	stw 0,196(1)
	stw 0,200(1)
	stw 0,204(1)
	stw 0,208(1)
	stw 0,212(1)
.LVL1072:
.LBB6533:
.LBB6534:
	.loc 6 104 0
	stw 30,744(1)
	stw 0,748(1)
	stw 0,752(1)
	stw 0,756(1)
	stw 0,760(1)
	stw 0,764(1)
	stw 0,768(1)
.LVL1073:
.LBE6534:
.LBE6533:
.LBB6535:
.LBB6531:
	.loc 5 571 0
	stwu 3,1200(4)
	addi 3,26,20
.LVL1074:
.LEHB28:
	bl _ZNSt8_Rb_treeIwSt4pairIKw13ftgxCharData_ESt10_Select1stIS3_ESt4lessIwESaIS3_EE17_M_insert_unique_ESt23_Rb_tree_const_iteratorIS3_ERKS3_.constprop.117
.LEHE28:
.LVL1075:
.L889:
.LBE6531:
.LBE6535:
.LBE6521:
.LBE6520:
	.loc 2 195 0
	lwz 11,4(29)
.LBB6536:
.LBB6537:
.LBB6538:
.LBB6539:
.LBB6540:
.LBB6541:
	.loc 1 1089 0
	mr 26,28
.LVL1076:
.LBE6541:
.LBE6540:
	.loc 2 608 0
	lwz 9,20(29)
.LBE6539:
.LBE6538:
.LBE6537:
.LBE6536:
	.loc 2 195 0
	lwz 10,84(11)
.LBB6632:
.LBB6629:
.LBB6550:
.LBB6548:
.LBB6546:
.LBB6542:
	.loc 1 1089 0
	cmpwi 7,9,0
.LBE6542:
.LBE6546:
.LBE6548:
.LBE6550:
.LBE6629:
.LBE6632:
	.loc 2 195 0
	lwz 11,76(27)
	lwz 0,104(10)
	subf 0,0,11
	sth 0,36(3)
.LVL1077:
.LBB6633:
.LBB6630:
.LBB6551:
.LBB6549:
.LBB6547:
.LBB6543:
	.loc 1 1089 0
	bne+ 7,.L893
	b .L890
.LVL1078:
.L1109:
.LBE6543:
	.loc 2 608 0
	mr 26,9
	.loc 1 1091 0
	lwz 9,8(9)
.LVL1079:
.LBB6544:
	.loc 1 1089 0
	cmpwi 7,9,0
	beq- 7,.L1108
.LVL1080:
.L893:
	.loc 1 1090 0
	lha 0,16(9)
	cmpw 7,0,31
	bge- 7,.L1109
.LVL1081:
.LBE6544:
	.loc 2 608 0
	lwz 9,12(9)
.LVL1082:
.LBB6545:
	.loc 1 1089 0
	cmpwi 7,9,0
	bne+ 7,.L893
.L1108:
.LVL1083:
.LBE6545:
.LBE6547:
.LBE6549:
.LBE6551:
	.loc 5 452 0
	cmpw 7,28,26
	beq- 7,.L890
.LVL1084:
	lha 0,16(26)
	cmpw 7,0,31
	ble- 7,.L904
.LVL1085:
.L890:
.LBB6552:
.LBB6553:
.LBB6554:
.LBB6555:
	.loc 1 445 0
	li 0,0
.LBB6556:
.LBB6557:
	.loc 1 459 0
	addi 11,1,172
.LBE6557:
.LBE6556:
.LBE6555:
.LBE6554:
.LBE6553:
.LBE6552:
.LBB6569:
.LBB6570:
.LBB6571:
.LBB6572:
.LBB6573:
.LBB6574:
.LBB6575:
.LBB6576:
	addi 9,1,724
.LVL1086:
.LBE6576:
.LBE6575:
.LBE6574:
.LBE6573:
.LBE6572:
.LBE6571:
.LBE6570:
.LBE6569:
.LBB6584:
.LBB6585:
	.loc 5 571 0
	mr 4,1
.LBE6585:
.LBE6584:
.LBB6590:
.LBB6566:
.LBB6563:
.LBB6560:
	.loc 1 445 0
	stw 0,172(1)
.LBE6560:
.LBE6563:
.LBE6566:
.LBE6590:
.LBB6591:
.LBB6586:
	.loc 5 571 0
	addi 3,29,12
.LVL1087:
.LBE6586:
.LBE6591:
.LBB6592:
.LBB6567:
.LBB6564:
.LBB6561:
	.loc 1 445 0
	stw 0,176(1)
.LBE6561:
.LBE6564:
.LBE6567:
.LBE6592:
.LBB6593:
.LBB6587:
	.loc 5 571 0
	addi 5,1,716
.LBE6587:
.LBE6593:
.LBB6594:
.LBB6568:
.LBB6565:
.LBB6562:
	.loc 1 445 0
	stw 0,188(1)
.LVL1088:
.LBB6559:
.LBB6558:
	.loc 1 459 0
	stw 11,180(1)
	.loc 1 460 0
	stw 11,184(1)
.LVL1089:
.LBE6558:
.LBE6559:
.LBE6562:
.LBE6565:
.LBE6568:
.LBE6594:
.LBB6595:
.LBB6583:
	.loc 6 104 0
	sth 31,716(1)
.LVL1090:
.LBB6582:
.LBB6581:
.LBB6580:
.LBB6579:
	.loc 1 450 0
	stw 0,724(1)
	stw 0,728(1)
	stw 0,740(1)
.LVL1091:
.LBB6578:
.LBB6577:
	.loc 1 459 0
	stw 9,732(1)
	.loc 1 460 0
	stw 9,736(1)
.LVL1092:
.LBE6577:
.LBE6578:
.LBE6579:
.LBE6580:
.LBE6581:
.LBE6582:
.LBE6583:
.LBE6595:
.LBB6596:
.LBB6588:
	.loc 5 571 0
	stwu 26,1196(4)
.LEHB29:
	bl _ZNSt8_Rb_treeIsSt4pairIKsSt3mapIw13ftgxCharData_St4lessIwESaIS0_IKwS3_EEEESt10_Select1stISA_ES4_IsESaISA_EE17_M_insert_unique_ESt23_Rb_tree_const_iteratorISA_ERKSA_.constprop.111
.LEHE29:
.LVL1093:
.LBE6588:
.LBE6596:
.LBB6597:
.LBB6598:
.LBB6599:
.LBB6600:
.LBB6601:
.LBB6602:
.LBB6603:
	.loc 1 639 0
	lwz 4,728(1)
.LBE6603:
.LBE6602:
.LBE6601:
.LBE6600:
.LBE6599:
.LBE6598:
.LBE6597:
.LBB6610:
.LBB6589:
	.loc 5 571 0
	mr 26,3
.LVL1094:
.LBE6589:
.LBE6610:
.LBB6611:
.LBB6609:
.LBB6608:
.LBB6607:
.LBB6606:
.LBB6605:
.LBB6604:
	.loc 1 639 0
	addi 3,1,720
.LVL1095:
	bl _ZNSt8_Rb_treeIwSt4pairIKw13ftgxCharData_ESt10_Select1stIS3_ESt4lessIwESaIS3_EE8_M_eraseEPSt13_Rb_tree_nodeIS3_E
.LVL1096:
.LBE6604:
.LBE6605:
.LBE6606:
.LBE6607:
.LBE6608:
.LBE6609:
.LBE6611:
.LBB6612:
.LBB6613:
.LBB6614:
.LBB6615:
.LBB6616:
	addi 3,1,168
	lwz 4,8(3)
	bl _ZNSt8_Rb_treeIwSt4pairIKw13ftgxCharData_ESt10_Select1stIS3_ESt4lessIwESaIS3_EE8_M_eraseEPSt13_Rb_tree_nodeIS3_E
.LVL1097:
.L904:
.LBE6616:
.LBE6615:
.LBE6614:
.LBE6613:
.LBE6612:
.LBE6630:
.LBE6633:
.LBB6634:
.LBB6635:
.LBB6636:
.LBB6637:
	.loc 2 608 0
	lwz 9,28(26)
	.loc 1 828 0
	addi 3,26,24
.LVL1098:
.LBB6638:
.LBB6639:
	.loc 1 1089 0
	mr 11,3
	cmpwi 7,9,0
	bne+ 7,.L1022
	b .L906
.LVL1099:
.L1111:
.LBE6639:
	.loc 2 608 0
	mr 3,9
	.loc 1 1091 0
	lwz 9,8(9)
.LVL1100:
.LBB6640:
	.loc 1 1089 0
	cmpwi 7,9,0
	beq- 7,.L1110
.LVL1101:
.L1022:
	.loc 1 1090 0
	lwz 0,16(9)
	cmpw 7,0,30
	bge- 7,.L1111
.LVL1102:
.LBE6640:
	.loc 2 608 0
	lwz 9,12(9)
.LVL1103:
.LBB6641:
	.loc 1 1089 0
	cmpwi 7,9,0
	bne+ 7,.L1022
.L1110:
.LVL1104:
.LBE6641:
.LBE6638:
.LBE6637:
.LBE6636:
	.loc 5 452 0
	cmpw 7,3,11
	beq- 7,.L906
.LVL1105:
	lwz 0,16(3)
	cmpw 7,0,30
	ble- 7,.L922
.LVL1106:
.L906:
	.loc 5 453 0
	li 0,0
.LBB6642:
.LBB6643:
	.loc 5 571 0
	mr 4,1
.LBE6643:
.LBE6642:
	.loc 5 453 0
	stw 0,144(1)
.LBB6646:
.LBB6644:
	.loc 5 571 0
	addi 5,1,688
.LBE6644:
.LBE6646:
	.loc 5 453 0
	stw 0,148(1)
	stw 0,152(1)
	stw 0,156(1)
	stw 0,160(1)
	stw 0,164(1)
.LVL1107:
.LBB6647:
.LBB6648:
	.loc 6 104 0
	stw 30,688(1)
	stw 0,692(1)
	stw 0,696(1)
	stw 0,700(1)
	stw 0,704(1)
	stw 0,708(1)
	stw 0,712(1)
.LVL1108:
.LBE6648:
.LBE6647:
.LBB6649:
.LBB6645:
	.loc 5 571 0
	stwu 3,1200(4)
	addi 3,26,20
.LVL1109:
.LEHB30:
	bl _ZNSt8_Rb_treeIwSt4pairIKw13ftgxCharData_ESt10_Select1stIS3_ESt4lessIwESaIS3_EE17_M_insert_unique_ESt23_Rb_tree_const_iteratorIS3_ERKS3_.constprop.117
.LEHE30:
.LVL1110:
.L922:
.LBE6645:
.LBE6649:
.LBE6635:
.LBE6634:
.LBB6650:
.LBB6651:
.LBB6652:
.LBB6653:
	.loc 2 608 0
	lwz 9,20(29)
.LBE6653:
.LBE6652:
.LBE6651:
.LBE6650:
	.loc 2 196 0
	li 0,0
.LBB6744:
.LBB6741:
.LBB6662:
.LBB6660:
.LBB6654:
.LBB6655:
	.loc 1 1089 0
	mr 26,28
.LVL1111:
.LBE6655:
.LBE6654:
.LBE6660:
.LBE6662:
.LBE6741:
.LBE6744:
	.loc 2 196 0
	stw 0,40(3)
.LVL1112:
.LBB6745:
.LBB6742:
.LBB6663:
.LBB6661:
.LBB6659:
.LBB6656:
	.loc 1 1089 0
	cmpwi 7,9,0
	bne+ 7,.L926
	b .L923
.LVL1113:
.L1113:
.LBE6656:
	.loc 2 608 0
	mr 26,9
	.loc 1 1091 0
	lwz 9,8(9)
.LVL1114:
.LBB6657:
	.loc 1 1089 0
	cmpwi 7,9,0
	beq- 7,.L1112
.LVL1115:
.L926:
	.loc 1 1090 0
	lha 0,16(9)
	cmpw 7,0,31
	bge- 7,.L1113
.LVL1116:
.LBE6657:
	.loc 2 608 0
	lwz 9,12(9)
.LVL1117:
.LBB6658:
	.loc 1 1089 0
	cmpwi 7,9,0
	bne+ 7,.L926
.L1112:
.LVL1118:
.LBE6658:
.LBE6659:
.LBE6661:
.LBE6663:
	.loc 5 452 0
	cmpw 7,28,26
	beq- 7,.L923
.LVL1119:
	lha 0,16(26)
	cmpw 7,0,31
	ble- 7,.L937
.LVL1120:
.L923:
.LBB6664:
.LBB6665:
.LBB6666:
.LBB6667:
	.loc 1 445 0
	li 0,0
.LBB6668:
.LBB6669:
	.loc 1 459 0
	addi 11,1,124
.LBE6669:
.LBE6668:
.LBE6667:
.LBE6666:
.LBE6665:
.LBE6664:
.LBB6681:
.LBB6682:
.LBB6683:
.LBB6684:
.LBB6685:
.LBB6686:
.LBB6687:
.LBB6688:
	addi 9,1,668
.LVL1121:
.LBE6688:
.LBE6687:
.LBE6686:
.LBE6685:
.LBE6684:
.LBE6683:
.LBE6682:
.LBE6681:
.LBB6696:
.LBB6697:
	.loc 5 571 0
	mr 4,1
.LBE6697:
.LBE6696:
.LBB6702:
.LBB6678:
.LBB6675:
.LBB6672:
	.loc 1 445 0
	stw 0,124(1)
.LBE6672:
.LBE6675:
.LBE6678:
.LBE6702:
.LBB6703:
.LBB6698:
	.loc 5 571 0
	addi 3,29,12
.LVL1122:
.LBE6698:
.LBE6703:
.LBB6704:
.LBB6679:
.LBB6676:
.LBB6673:
	.loc 1 445 0
	stw 0,128(1)
.LBE6673:
.LBE6676:
.LBE6679:
.LBE6704:
.LBB6705:
.LBB6699:
	.loc 5 571 0
	addi 5,1,660
.LBE6699:
.LBE6705:
.LBB6706:
.LBB6680:
.LBB6677:
.LBB6674:
	.loc 1 445 0
	stw 0,140(1)
.LVL1123:
.LBB6671:
.LBB6670:
	.loc 1 459 0
	stw 11,132(1)
	.loc 1 460 0
	stw 11,136(1)
.LVL1124:
.LBE6670:
.LBE6671:
.LBE6674:
.LBE6677:
.LBE6680:
.LBE6706:
.LBB6707:
.LBB6695:
	.loc 6 104 0
	sth 31,660(1)
.LVL1125:
.LBB6694:
.LBB6693:
.LBB6692:
.LBB6691:
	.loc 1 450 0
	stw 0,668(1)
	stw 0,672(1)
	stw 0,684(1)
.LVL1126:
.LBB6690:
.LBB6689:
	.loc 1 459 0
	stw 9,676(1)
	.loc 1 460 0
	stw 9,680(1)
.LVL1127:
.LBE6689:
.LBE6690:
.LBE6691:
.LBE6692:
.LBE6693:
.LBE6694:
.LBE6695:
.LBE6707:
.LBB6708:
.LBB6700:
	.loc 5 571 0
	stwu 26,1196(4)
.LEHB31:
	bl _ZNSt8_Rb_treeIsSt4pairIKsSt3mapIw13ftgxCharData_St4lessIwESaIS0_IKwS3_EEEESt10_Select1stISA_ES4_IsESaISA_EE17_M_insert_unique_ESt23_Rb_tree_const_iteratorISA_ERKSA_.constprop.111
.LEHE31:
.LVL1128:
.LBE6700:
.LBE6708:
.LBB6709:
.LBB6710:
.LBB6711:
.LBB6712:
.LBB6713:
.LBB6714:
.LBB6715:
	.loc 1 639 0
	lwz 4,672(1)
.LBE6715:
.LBE6714:
.LBE6713:
.LBE6712:
.LBE6711:
.LBE6710:
.LBE6709:
.LBB6722:
.LBB6701:
	.loc 5 571 0
	mr 26,3
.LVL1129:
.LBE6701:
.LBE6722:
.LBB6723:
.LBB6721:
.LBB6720:
.LBB6719:
.LBB6718:
.LBB6717:
.LBB6716:
	.loc 1 639 0
	addi 3,1,664
.LVL1130:
	bl _ZNSt8_Rb_treeIwSt4pairIKw13ftgxCharData_ESt10_Select1stIS3_ESt4lessIwESaIS3_EE8_M_eraseEPSt13_Rb_tree_nodeIS3_E
.LVL1131:
.LBE6716:
.LBE6717:
.LBE6718:
.LBE6719:
.LBE6720:
.LBE6721:
.LBE6723:
.LBB6724:
.LBB6725:
.LBB6726:
.LBB6727:
.LBB6728:
	addi 3,1,120
	lwz 4,8(3)
	bl _ZNSt8_Rb_treeIwSt4pairIKw13ftgxCharData_ESt10_Select1stIS3_ESt4lessIwESaIS3_EE8_M_eraseEPSt13_Rb_tree_nodeIS3_E
.LVL1132:
.L937:
.LBE6728:
.LBE6727:
.LBE6726:
.LBE6725:
.LBE6724:
.LBE6742:
.LBE6745:
.LBB6746:
.LBB6747:
.LBB6748:
.LBB6749:
	.loc 2 608 0
	lwz 9,28(26)
	.loc 1 828 0
	addi 5,26,24
.LVL1133:
.LBB6750:
.LBB6751:
	.loc 1 1089 0
	mr 11,5
	cmpwi 7,9,0
	bne+ 7,.L1021
	b .L939
.LVL1134:
.L1115:
.LBE6751:
	.loc 2 608 0
	mr 5,9
	.loc 1 1091 0
	lwz 9,8(9)
.LVL1135:
.LBB6752:
	.loc 1 1089 0
	cmpwi 7,9,0
	beq- 7,.L1114
.LVL1136:
.L1021:
	.loc 1 1090 0
	lwz 0,16(9)
	cmpw 7,0,30
	bge- 7,.L1115
.LVL1137:
.LBE6752:
	.loc 2 608 0
	lwz 9,12(9)
.LVL1138:
.LBB6753:
	.loc 1 1089 0
	cmpwi 7,9,0
	bne+ 7,.L1021
.L1114:
.LVL1139:
.LBE6753:
.LBE6750:
.LBE6749:
.LBE6748:
	.loc 5 452 0
	cmpw 7,5,11
	beq- 7,.L939
.LVL1140:
	lwz 0,16(5)
	cmpw 7,0,30
	ble- 7,.L955
.LVL1141:
.L939:
	.loc 5 453 0
	li 0,0
.LBB6754:
.LBB6755:
	.loc 5 571 0
	mr 4,1
.LBE6755:
.LBE6754:
	.loc 5 453 0
	stw 0,96(1)
.LBB6758:
.LBB6756:
	.loc 5 571 0
	addi 3,26,20
.LBE6756:
.LBE6758:
	.loc 5 453 0
	stw 0,100(1)
	stw 0,104(1)
	stw 0,108(1)
	stw 0,112(1)
	stw 0,116(1)
.LVL1142:
.LBB6759:
.LBB6760:
	.loc 6 104 0
	stw 30,632(1)
	stw 0,636(1)
	stw 0,640(1)
	stw 0,644(1)
	stw 0,648(1)
	stw 0,652(1)
	stw 0,656(1)
.LVL1143:
.LBE6760:
.LBE6759:
.LBB6761:
.LBB6757:
	.loc 5 571 0
	stwu 5,1200(4)
	addi 5,1,632
.LVL1144:
.LEHB32:
	bl _ZNSt8_Rb_treeIwSt4pairIKw13ftgxCharData_ESt10_Select1stIS3_ESt4lessIwESaIS3_EE17_M_insert_unique_ESt23_Rb_tree_const_iteratorIS3_ERKS3_.constprop.117
.LVL1145:
	mr 5,3
.LVL1146:
.L955:
.LBE6757:
.LBE6761:
.LBE6747:
.LBE6746:
	.loc 2 198 0
	addi 4,27,76
	mr 3,29
	addi 5,5,20
.LVL1147:
.LBB6762:
.LBB6763:
.LBB6764:
.LBB6765:
.LBB6766:
.LBB6767:
	.loc 1 1089 0
	mr 27,28
.LVL1148:
.LBE6767:
.LBE6766:
.LBE6765:
.LBE6764:
.LBE6763:
.LBE6762:
	.loc 2 198 0
	bl _ZN10FreeTypeGX13loadGlyphDataEP10FT_Bitmap_P13ftgxCharData_
.LEHE32:
.LVL1149:
.LBB6853:
.LBB6851:
.LBB6773:
.LBB6772:
	.loc 2 608 0
	lwz 9,20(29)
.LVL1150:
.LBB6771:
.LBB6768:
	.loc 1 1089 0
	cmpwi 7,9,0
	bne+ 7,.L959
	b .L956
.LVL1151:
.L1117:
.LBE6768:
	.loc 2 608 0
	mr 27,9
	.loc 1 1091 0
	lwz 9,8(9)
.LVL1152:
.LBB6769:
	.loc 1 1089 0
	cmpwi 7,9,0
	beq- 7,.L1116
.LVL1153:
.L959:
	.loc 1 1090 0
	lha 0,16(9)
	cmpw 7,0,31
	bge- 7,.L1117
.LVL1154:
.LBE6769:
	.loc 2 608 0
	lwz 9,12(9)
.LVL1155:
.LBB6770:
	.loc 1 1089 0
	cmpwi 7,9,0
	bne+ 7,.L959
.L1116:
.LVL1156:
.LBE6770:
.LBE6771:
.LBE6772:
.LBE6773:
	.loc 5 452 0
	cmpw 7,28,27
	beq- 7,.L956
.LVL1157:
	lha 0,16(27)
	cmpw 7,0,31
	ble- 7,.L970
.LVL1158:
.L956:
.LBB6774:
.LBB6775:
.LBB6776:
.LBB6777:
	.loc 1 445 0
	li 0,0
.LBB6778:
.LBB6779:
	.loc 1 459 0
	addi 11,1,76
.LBE6779:
.LBE6778:
.LBE6777:
.LBE6776:
.LBE6775:
.LBE6774:
.LBB6791:
.LBB6792:
.LBB6793:
.LBB6794:
.LBB6795:
.LBB6796:
.LBB6797:
.LBB6798:
	addi 9,1,612
.LVL1159:
.LBE6798:
.LBE6797:
.LBE6796:
.LBE6795:
.LBE6794:
.LBE6793:
.LBE6792:
.LBE6791:
.LBB6806:
.LBB6807:
	.loc 5 571 0
	mr 4,1
.LBE6807:
.LBE6806:
.LBB6812:
.LBB6788:
.LBB6785:
.LBB6782:
	.loc 1 445 0
	stw 0,76(1)
.LBE6782:
.LBE6785:
.LBE6788:
.LBE6812:
.LBB6813:
.LBB6808:
	.loc 5 571 0
	addi 3,29,12
.LBE6808:
.LBE6813:
.LBB6814:
.LBB6789:
.LBB6786:
.LBB6783:
	.loc 1 445 0
	stw 0,80(1)
.LBE6783:
.LBE6786:
.LBE6789:
.LBE6814:
.LBB6815:
.LBB6809:
	.loc 5 571 0
	addi 5,1,604
.LBE6809:
.LBE6815:
.LBB6816:
.LBB6790:
.LBB6787:
.LBB6784:
	.loc 1 445 0
	stw 0,92(1)
.LVL1160:
.LBB6781:
.LBB6780:
	.loc 1 459 0
	stw 11,84(1)
	.loc 1 460 0
	stw 11,88(1)
.LVL1161:
.LBE6780:
.LBE6781:
.LBE6784:
.LBE6787:
.LBE6790:
.LBE6816:
.LBB6817:
.LBB6805:
	.loc 6 104 0
	sth 31,604(1)
.LVL1162:
.LBB6804:
.LBB6803:
.LBB6802:
.LBB6801:
	.loc 1 450 0
	stw 0,612(1)
	stw 0,616(1)
	stw 0,628(1)
.LVL1163:
.LBB6800:
.LBB6799:
	.loc 1 459 0
	stw 9,620(1)
	.loc 1 460 0
	stw 9,624(1)
.LVL1164:
.LBE6799:
.LBE6800:
.LBE6801:
.LBE6802:
.LBE6803:
.LBE6804:
.LBE6805:
.LBE6817:
.LBB6818:
.LBB6810:
	.loc 5 571 0
	stwu 27,1196(4)
.LEHB33:
	bl _ZNSt8_Rb_treeIsSt4pairIKsSt3mapIw13ftgxCharData_St4lessIwESaIS0_IKwS3_EEEESt10_Select1stISA_ES4_IsESaISA_EE17_M_insert_unique_ESt23_Rb_tree_const_iteratorISA_ERKSA_.constprop.111
.LEHE33:
.LVL1165:
.LBE6810:
.LBE6818:
.LBB6819:
.LBB6820:
.LBB6821:
.LBB6822:
.LBB6823:
.LBB6824:
.LBB6825:
	.loc 1 639 0
	lwz 4,616(1)
.LBE6825:
.LBE6824:
.LBE6823:
.LBE6822:
.LBE6821:
.LBE6820:
.LBE6819:
.LBB6832:
.LBB6811:
	.loc 5 571 0
	mr 27,3
.LVL1166:
.LBE6811:
.LBE6832:
.LBB6833:
.LBB6831:
.LBB6830:
.LBB6829:
.LBB6828:
.LBB6827:
.LBB6826:
	.loc 1 639 0
	addi 3,1,608
.LVL1167:
	bl _ZNSt8_Rb_treeIwSt4pairIKw13ftgxCharData_ESt10_Select1stIS3_ESt4lessIwESaIS3_EE8_M_eraseEPSt13_Rb_tree_nodeIS3_E
.LVL1168:
.LBE6826:
.LBE6827:
.LBE6828:
.LBE6829:
.LBE6830:
.LBE6831:
.LBE6833:
.LBB6834:
.LBB6835:
.LBB6836:
.LBB6837:
.LBB6838:
	addi 3,1,72
	lwz 4,8(3)
	bl _ZNSt8_Rb_treeIwSt4pairIKw13ftgxCharData_ESt10_Select1stIS3_ESt4lessIwESaIS3_EE8_M_eraseEPSt13_Rb_tree_nodeIS3_E
.LVL1169:
.L970:
.LBE6838:
.LBE6837:
.LBE6836:
.LBE6835:
.LBE6834:
.LBE6851:
.LBE6853:
.LBB6854:
.LBB6855:
.LBB6856:
.LBB6857:
	.loc 2 608 0
	lwz 9,28(27)
	.loc 1 828 0
	addi 3,27,24
.LVL1170:
.LBB6858:
.LBB6859:
	.loc 1 1089 0
	mr 11,3
	cmpwi 7,9,0
	bne+ 7,.L1020
	b .L972
.LVL1171:
.L1119:
.LBE6859:
	.loc 2 608 0
	mr 3,9
	.loc 1 1091 0
	lwz 9,8(9)
.LVL1172:
.LBB6860:
	.loc 1 1089 0
	cmpwi 7,9,0
	beq- 7,.L1118
.LVL1173:
.L1020:
	.loc 1 1090 0
	lwz 0,16(9)
	cmpw 7,0,30
	bge- 7,.L1119
.LVL1174:
.LBE6860:
	.loc 2 608 0
	lwz 9,12(9)
.LVL1175:
.LBB6861:
	.loc 1 1089 0
	cmpwi 7,9,0
	bne+ 7,.L1020
.L1118:
.LVL1176:
.LBE6861:
.LBE6858:
.LBE6857:
.LBE6856:
	.loc 5 452 0
	cmpw 7,11,3
	beq- 7,.L972
.LVL1177:
	lwz 0,16(3)
	cmpw 7,0,30
	ble- 7,.L988
.LVL1178:
.L972:
	.loc 5 453 0
	li 0,0
.LBB6862:
.LBB6863:
	.loc 5 571 0
	mr 4,1
.LBE6863:
.LBE6862:
	.loc 5 453 0
	stw 0,48(1)
.LBB6867:
.LBB6864:
	.loc 5 571 0
	addi 5,1,576
.LBE6864:
.LBE6867:
	.loc 5 453 0
	stw 0,52(1)
	stw 0,56(1)
	stw 0,60(1)
	stw 0,64(1)
	stw 0,68(1)
.LVL1179:
.LBB6868:
.LBB6869:
	.loc 6 104 0
	stw 30,576(1)
	stw 0,580(1)
	stw 0,584(1)
	stw 0,588(1)
	stw 0,592(1)
	stw 0,596(1)
	stw 0,600(1)
.LVL1180:
.LBE6869:
.LBE6868:
.LBB6870:
.LBB6865:
	.loc 5 571 0
	stwu 3,1200(4)
	addi 3,27,20
.LVL1181:
.LEHB34:
	bl _ZNSt8_Rb_treeIwSt4pairIKw13ftgxCharData_ESt10_Select1stIS3_ESt4lessIwESaIS3_EE17_M_insert_unique_ESt23_Rb_tree_const_iteratorIS3_ERKS3_.constprop.117
.LVL1182:
.L988:
.LBE6865:
.LBE6870:
.LBE6855:
.LBE6854:
.LBE5657:
.LBE5656:
.LBE6890:
.LBE6897:
	.loc 2 204 0
	lwz 0,1252(1)
.LBB6898:
.LBB6891:
.LBB6887:
.LBB6885:
.LBB6873:
.LBB6872:
.LBB6871:
.LBB6866:
	.loc 2 200 0
	addi 26,3,20
.LVL1183:
.LBE6866:
.LBE6871:
.LBE6872:
.LBE6873:
.LBE6885:
.LBE6887:
.LBE6891:
.LBE6898:
	.loc 2 204 0
	mr 3,26
.LVL1184:
	lwz 23,1212(1)
.LVL1185:
	mtlr 0
	lwz 24,1216(1)
.LVL1186:
	lwz 25,1220(1)
.LVL1187:
	lwz 26,1224(1)
.LVL1188:
	lwz 27,1228(1)
.LVL1189:
	lwz 28,1232(1)
	lwz 29,1236(1)
.LVL1190:
	lwz 30,1240(1)
.LVL1191:
	lwz 31,1244(1)
	addi 1,1,1248
	.cfi_remember_state
	.cfi_restore 23
	.cfi_restore 24
	.cfi_restore 25
	.cfi_restore 26
	.cfi_restore 27
	.cfi_restore 28
	.cfi_restore 29
	.cfi_restore 30
	.cfi_restore 31
.LCFI76:
	.cfi_def_cfa_offset 0
	blr
.LVL1192:
.L1073:
.LCFI77:
	.cfi_restore_state
.LBB6899:
.LBB6892:
.LBB5654:
.LBB5566:
.LBB5535:
	.loc 5 452 0
	cmpw 7,27,8
	beq- 7,.L597
.LVL1193:
	lha 0,16(8)
	cmpw 7,0,10
	ble- 7,.L605
.LVL1194:
.L597:
.LBE5535:
	.loc 6 104 0
	li 0,0
.LBB5536:
.LBB5521:
.LBB5522:
	.loc 5 571 0
	mr 26,1
.LBE5522:
.LBE5521:
.LBB5528:
.LBB5529:
	.loc 6 104 0
	sth 10,38(1)
.LBE5529:
.LBE5528:
.LBB5530:
.LBB5523:
	.loc 5 571 0
	addi 25,29,36
.LBE5523:
.LBE5530:
.LBE5536:
	.loc 6 104 0
	sth 0,40(1)
.LBB5537:
.LBB5531:
.LBB5524:
	.loc 5 571 0
	mr 3,25
.LBE5524:
.LBE5531:
.LBE5537:
	.loc 6 104 0
	sth 0,42(1)
.LBB5538:
.LBB5532:
.LBB5525:
	.loc 5 571 0
	addi 5,1,38
.LBE5525:
.LBE5532:
.LBE5538:
	.loc 6 104 0
	sth 0,44(1)
	sth 0,46(1)
.LVL1195:
.LBB5539:
.LBB5533:
.LBB5526:
	.loc 5 571 0
	stwu 8,1192(26)
	mr 4,26
	bl _ZNSt8_Rb_treeIsSt4pairIKs15ftgxDataOffset_ESt10_Select1stIS3_ESt4lessIsESaIS3_EE17_M_insert_unique_ESt23_Rb_tree_const_iteratorIS3_ERKS3_.constprop.114
.LVL1196:
.LBE5526:
.LBE5533:
.LBE5539:
.LBE5566:
	.loc 2 167 0
	lwz 9,4(29)
.LBB5567:
.LBB5540:
.LBB5534:
.LBB5527:
	.loc 5 571 0
	lwz 11,44(29)
.LVL1197:
.LBE5527:
.LBE5534:
.LBE5540:
.LBE5567:
	.loc 2 167 0
	lwz 10,88(9)
.LBB5568:
.LBB5569:
.LBB5570:
.LBB5571:
.LBB5572:
.LBB5573:
	.loc 1 1089 0
	cmpwi 7,11,0
.LBE5573:
.LBE5572:
.LBE5571:
.LBE5570:
.LBE5569:
.LBE5568:
	.loc 2 167 0
	lha 0,26(10)
	srawi 0,0,6
	sth 0,18(3)
.LVL1198:
.LBB5605:
.LBB5598:
.LBB5586:
.LBB5582:
.LBB5578:
.LBB5574:
	.loc 1 1089 0
	beq- 7,.L1120
.LVL1199:
.L606:
	lha 0,8(29)
.LBE5574:
.LBE5578:
.LBE5582:
.LBE5586:
.LBE5598:
.LBE5605:
.LBB5606:
.LBB5513:
.LBB5511:
.LBB5510:
.LBB5509:
	.loc 1 1536 0
	mr 9,27
	mr 8,11
	b .L610
.LVL1200:
.L1122:
.LBE5509:
.LBE5510:
.LBE5511:
.LBE5513:
.LBE5606:
.LBB5607:
.LBB5599:
.LBB5587:
.LBB5583:
.LBB5579:
	.loc 2 608 0
	mr 9,8
	.loc 1 1091 0
	lwz 8,8(8)
.LVL1201:
.L609:
.LBB5575:
	.loc 1 1089 0
	cmpwi 7,8,0
	beq- 7,.L1121
.L610:
.LVL1202:
	.loc 1 1090 0
	lha 7,16(8)
	cmpw 7,7,0
	bge- 7,.L1122
.LVL1203:
.LBE5575:
	.loc 2 608 0
	lwz 8,12(8)
.LVL1204:
	b .L609
.LVL1205:
.L1121:
.LBE5579:
.LBE5583:
.LBE5587:
	.loc 5 452 0
	cmpw 7,27,9
	beq- 7,.L1064
.LVL1206:
	lha 8,16(9)
.LVL1207:
	cmpw 7,8,0
	bgt- 7,.L1064
.LVL1208:
.LBE5599:
.LBE5607:
	.loc 2 168 0
	lha 0,30(10)
	srawi 0,0,6
	sth 0,20(9)
.LVL1209:
.L612:
.LBB5608:
.LBB5609:
.LBB5610:
.LBB5611:
.LBB5612:
.LBB5613:
	.loc 1 1089 0
	lha 0,8(29)
.LBE5613:
.LBE5612:
.LBE5611:
.LBE5610:
.LBE5609:
.LBE5608:
.LBB5642:
.LBB5600:
.LBB5588:
.LBB5584:
.LBB5580:
.LBB5576:
	.loc 1 1536 0
	mr 9,27
	mr 10,11
	b .L616
.LVL1210:
.L1124:
.LBE5576:
.LBE5580:
.LBE5584:
.LBE5588:
.LBE5600:
.LBE5642:
.LBB5643:
.LBB5636:
.LBB5626:
.LBB5622:
.LBB5618:
	.loc 2 608 0
	mr 9,10
	.loc 1 1091 0
	lwz 10,8(10)
.LVL1211:
.L615:
.LBB5614:
	.loc 1 1089 0
	cmpwi 7,10,0
	beq- 7,.L1123
.L616:
.LVL1212:
	.loc 1 1090 0
	lha 8,16(10)
	cmpw 7,8,0
	bge- 7,.L1124
.LVL1213:
.LBE5614:
	.loc 2 608 0
	lwz 10,12(10)
.LVL1214:
	b .L615
.LVL1215:
.L1123:
.LBE5618:
.LBE5622:
.LBE5626:
	.loc 5 452 0
	cmpw 7,9,27
	beq- 7,.L1065
.LVL1216:
	lha 8,16(9)
	cmpw 7,8,0
	bgt- 7,.L1065
.LVL1217:
.LBE5636:
.LBE5643:
	.loc 2 169 0
	sth 10,22(9)
.LVL1218:
.L618:
.LBB5644:
.LBB5563:
.LBB5549:
.LBB5550:
.LBB5551:
.LBB5552:
	.loc 1 1089 0
	lha 0,8(29)
.LBE5552:
.LBE5551:
.LBE5550:
.LBE5549:
.LBE5563:
.LBE5644:
.LBB5645:
.LBB5637:
.LBB5627:
.LBB5623:
.LBB5619:
.LBB5615:
	.loc 1 1536 0
	mr 9,27
	b .L622
.LVL1219:
.L1126:
.LBE5615:
.LBE5619:
.LBE5623:
.LBE5627:
.LBE5637:
.LBE5645:
.LBB5646:
.LBB5564:
.LBB5559:
.LBB5557:
.LBB5555:
	.loc 2 608 0
	mr 9,11
	.loc 1 1091 0
	lwz 11,8(11)
.LVL1220:
.L621:
.LBB5553:
	.loc 1 1089 0
	cmpwi 7,11,0
	beq- 7,.L1125
.L622:
.LVL1221:
	.loc 1 1090 0
	lha 10,16(11)
	cmpw 7,10,0
	bge- 7,.L1126
.LVL1222:
.LBE5553:
	.loc 2 608 0
	lwz 11,12(11)
.LVL1223:
	b .L621
.LVL1224:
.L1065:
	addi 25,29,36
	addi 26,1,1192
.LVL1225:
.L613:
.LBE5555:
.LBE5557:
.LBE5559:
.LBE5564:
.LBE5646:
.LBB5647:
	.loc 6 104 0
	li 24,0
.LBB5638:
.LBB5628:
.LBB5629:
	.loc 5 571 0
	mr 3,25
	mr 4,26
	addi 5,1,18
.LBE5629:
.LBE5628:
.LBB5631:
.LBB5632:
	.loc 6 104 0
	sth 0,18(1)
.LBE5632:
.LBE5631:
.LBE5638:
	sth 24,20(1)
	sth 24,22(1)
	sth 24,24(1)
	sth 24,26(1)
.LVL1226:
.LBB5639:
.LBB5633:
.LBB5630:
	.loc 5 571 0
	stw 9,1192(1)
	bl _ZNSt8_Rb_treeIsSt4pairIKs15ftgxDataOffset_ESt10_Select1stIS3_ESt4lessIsESaIS3_EE17_M_insert_unique_ESt23_Rb_tree_const_iteratorIS3_ERKS3_.constprop.114
.LVL1227:
	lwz 11,44(29)
.LBE5630:
.LBE5633:
.LBE5639:
.LBE5647:
	.loc 2 169 0
	sth 24,22(3)
.LVL1228:
.LBB5648:
.LBB5565:
.LBB5560:
.LBB5558:
.LBB5556:
.LBB5554:
	.loc 1 1089 0
	cmpwi 7,11,0
	bne+ 7,.L618
	lha 0,8(29)
	.loc 1 1536 0
	mr 9,27
	b .L619
.LVL1229:
.L1064:
	addi 25,29,36
	addi 26,1,1192
.LVL1230:
.L607:
.LBE5554:
.LBE5556:
.LBE5558:
.LBE5560:
.LBE5565:
.LBE5648:
.LBB5649:
	.loc 6 104 0
	li 11,0
.LBB5601:
.LBB5589:
.LBB5590:
	.loc 5 571 0
	mr 3,25
	mr 4,26
	addi 5,1,28
.LBE5590:
.LBE5589:
.LBB5593:
.LBB5594:
	.loc 6 104 0
	sth 0,28(1)
.LBE5594:
.LBE5593:
.LBE5601:
	sth 11,30(1)
	sth 11,32(1)
	sth 11,34(1)
	sth 11,36(1)
.LVL1231:
.LBB5602:
.LBB5595:
.LBB5591:
	.loc 5 571 0
	stw 9,1192(1)
	bl _ZNSt8_Rb_treeIsSt4pairIKs15ftgxDataOffset_ESt10_Select1stIS3_ESt4lessIsESaIS3_EE17_M_insert_unique_ESt23_Rb_tree_const_iteratorIS3_ERKS3_.constprop.114
.LVL1232:
.LBE5591:
.LBE5595:
.LBE5602:
.LBE5649:
	.loc 2 168 0
	lwz 9,4(29)
.LBB5650:
.LBB5603:
.LBB5596:
.LBB5592:
	.loc 5 571 0
	lwz 11,44(29)
.LVL1233:
.LBE5592:
.LBE5596:
.LBE5603:
.LBE5650:
	.loc 2 168 0
	lwz 9,88(9)
.LBB5651:
.LBB5640:
.LBB5634:
.LBB5624:
.LBB5620:
.LBB5616:
	.loc 1 1089 0
	cmpwi 7,11,0
.LBE5616:
.LBE5620:
.LBE5624:
.LBE5634:
.LBE5640:
.LBE5651:
	.loc 2 168 0
	lha 0,30(9)
	srawi 0,0,6
	sth 0,20(3)
.LVL1234:
.LBB5652:
.LBB5641:
.LBB5635:
.LBB5625:
.LBB5621:
.LBB5617:
	.loc 1 1089 0
	bne+ 7,.L612
	lha 0,8(29)
	.loc 1 1536 0
	mr 9,27
	b .L613
.LVL1235:
.L605:
.LBE5617:
.LBE5621:
.LBE5625:
.LBE5635:
.LBE5641:
.LBE5652:
	.loc 2 167 0
	lwz 9,4(29)
.LVL1236:
	lwz 10,88(9)
	lha 0,26(10)
	srawi 0,0,6
	sth 0,18(8)
.LVL1237:
	b .L606
.LVL1238:
.L1120:
.LBB5653:
.LBB5604:
.LBB5597:
.LBB5585:
.LBB5581:
.LBB5577:
	.loc 1 1089 0
	lha 0,8(29)
	.loc 1 1536 0
	mr 9,27
	b .L607
.LVL1239:
.L1016:
.LBE5577:
.LBE5581:
.LBE5585:
.LBE5597:
.LBE5604:
.LBE5653:
.LBE5654:
.LBE6892:
.LBB6893:
.LBB6888:
.LBB6886:
.LBB6874:
.LBB6852:
.LBB6839:
.LBB6840:
.LBB6841:
.LBB6842:
.LBB6843:
.LBB6844:
.LBB6845:
	.loc 1 639 0
	lwz 4,616(1)
	mr 31,3
.LVL1240:
	addi 3,1,608
	bl _ZNSt8_Rb_treeIwSt4pairIKw13ftgxCharData_ESt10_Select1stIS3_ESt4lessIwESaIS3_EE8_M_eraseEPSt13_Rb_tree_nodeIS3_E
.LVL1241:
.LBE6845:
.LBE6844:
.LBE6843:
.LBE6842:
.LBE6841:
.LBE6840:
.LBE6839:
.LBB6846:
.LBB6847:
.LBB6848:
.LBB6849:
.LBB6850:
	addi 3,1,72
	lwz 4,8(3)
	bl _ZNSt8_Rb_treeIwSt4pairIKw13ftgxCharData_ESt10_Select1stIS3_ESt4lessIwESaIS3_EE8_M_eraseEPSt13_Rb_tree_nodeIS3_E
	mr 3,31
	bl _Unwind_Resume
.LVL1242:
.L1006:
.LBE6850:
.LBE6849:
.LBE6848:
.LBE6847:
.LBE6846:
.LBE6852:
.LBE6874:
.LBB6875:
.LBB5743:
.LBB5731:
.LBB5732:
.LBB5733:
.LBB5734:
.LBB5735:
.LBB5736:
.LBB5737:
	lwz 4,1176(1)
	mr 31,3
.LVL1243:
	addi 3,1,1168
	bl _ZNSt8_Rb_treeIwSt4pairIKw13ftgxCharData_ESt10_Select1stIS3_ESt4lessIwESaIS3_EE8_M_eraseEPSt13_Rb_tree_nodeIS3_E
.LVL1244:
.LBE5737:
.LBE5736:
.LBE5735:
.LBE5734:
.LBE5733:
.LBE5732:
.LBE5731:
.LBB5738:
.LBB5739:
.LBB5740:
.LBB5741:
.LBB5742:
	addi 3,1,552
	lwz 4,8(3)
	bl _ZNSt8_Rb_treeIwSt4pairIKw13ftgxCharData_ESt10_Select1stIS3_ESt4lessIwESaIS3_EE8_M_eraseEPSt13_Rb_tree_nodeIS3_E
	mr 3,31
	bl _Unwind_Resume
.LVL1245:
.L1007:
.LBE5742:
.LBE5741:
.LBE5740:
.LBE5739:
.LBE5738:
.LBE5743:
.LBE6875:
.LBB6876:
.LBB5855:
.LBB5841:
.LBB5842:
.LBB5843:
.LBB5844:
.LBB5845:
.LBB5846:
.LBB5847:
	lwz 4,1120(1)
	mr 31,3
.LVL1246:
	addi 3,1,1112
	bl _ZNSt8_Rb_treeIwSt4pairIKw13ftgxCharData_ESt10_Select1stIS3_ESt4lessIwESaIS3_EE8_M_eraseEPSt13_Rb_tree_nodeIS3_E
.LVL1247:
.LBE5847:
.LBE5846:
.LBE5845:
.LBE5844:
.LBE5843:
.LBE5842:
.LBE5841:
.LBB5848:
.LBB5849:
.LBB5850:
.LBB5851:
.LBB5852:
	addi 3,1,504
	lwz 4,8(3)
	bl _ZNSt8_Rb_treeIwSt4pairIKw13ftgxCharData_ESt10_Select1stIS3_ESt4lessIwESaIS3_EE8_M_eraseEPSt13_Rb_tree_nodeIS3_E
	mr 3,31
	bl _Unwind_Resume
.LVL1248:
.L1012:
.LBE5852:
.LBE5851:
.LBE5850:
.LBE5849:
.LBE5848:
.LBE5855:
.LBE6876:
.LBB6877:
.LBB6403:
.LBB6389:
.LBB6390:
.LBB6391:
.LBB6392:
.LBB6393:
.LBB6394:
.LBB6395:
	lwz 4,840(1)
	mr 31,3
.LVL1249:
	addi 3,1,832
	bl _ZNSt8_Rb_treeIwSt4pairIKw13ftgxCharData_ESt10_Select1stIS3_ESt4lessIwESaIS3_EE8_M_eraseEPSt13_Rb_tree_nodeIS3_E
.LVL1250:
.LBE6395:
.LBE6394:
.LBE6393:
.LBE6392:
.LBE6391:
.LBE6390:
.LBE6389:
.LBB6396:
.LBB6397:
.LBB6398:
.LBB6399:
.LBB6400:
	addi 3,1,264
	lwz 4,8(3)
	bl _ZNSt8_Rb_treeIwSt4pairIKw13ftgxCharData_ESt10_Select1stIS3_ESt4lessIwESaIS3_EE8_M_eraseEPSt13_Rb_tree_nodeIS3_E
	mr 3,31
	bl _Unwind_Resume
.LVL1251:
.L1013:
.LBE6400:
.LBE6399:
.LBE6398:
.LBE6397:
.LBE6396:
.LBE6403:
.LBE6877:
.LBB6878:
.LBB6517:
.LBB6503:
.LBB6504:
.LBB6505:
.LBB6506:
.LBB6507:
.LBB6508:
.LBB6509:
	lwz 4,784(1)
	mr 31,3
.LVL1252:
	addi 3,1,776
	bl _ZNSt8_Rb_treeIwSt4pairIKw13ftgxCharData_ESt10_Select1stIS3_ESt4lessIwESaIS3_EE8_M_eraseEPSt13_Rb_tree_nodeIS3_E
.LVL1253:
.LBE6509:
.LBE6508:
.LBE6507:
.LBE6506:
.LBE6505:
.LBE6504:
.LBE6503:
.LBB6510:
.LBB6511:
.LBB6512:
.LBB6513:
.LBB6514:
	addi 3,1,216
	lwz 4,8(3)
	bl _ZNSt8_Rb_treeIwSt4pairIKw13ftgxCharData_ESt10_Select1stIS3_ESt4lessIwESaIS3_EE8_M_eraseEPSt13_Rb_tree_nodeIS3_E
	mr 3,31
	bl _Unwind_Resume
.LVL1254:
.L1014:
.LBE6514:
.LBE6513:
.LBE6512:
.LBE6511:
.LBE6510:
.LBE6517:
.LBE6878:
.LBB6879:
.LBB6631:
.LBB6617:
.LBB6618:
.LBB6619:
.LBB6620:
.LBB6621:
.LBB6622:
.LBB6623:
	lwz 4,728(1)
	mr 31,3
.LVL1255:
	addi 3,1,720
	bl _ZNSt8_Rb_treeIwSt4pairIKw13ftgxCharData_ESt10_Select1stIS3_ESt4lessIwESaIS3_EE8_M_eraseEPSt13_Rb_tree_nodeIS3_E
.LVL1256:
.LBE6623:
.LBE6622:
.LBE6621:
.LBE6620:
.LBE6619:
.LBE6618:
.LBE6617:
.LBB6624:
.LBB6625:
.LBB6626:
.LBB6627:
.LBB6628:
	addi 3,1,168
	lwz 4,8(3)
	bl _ZNSt8_Rb_treeIwSt4pairIKw13ftgxCharData_ESt10_Select1stIS3_ESt4lessIwESaIS3_EE8_M_eraseEPSt13_Rb_tree_nodeIS3_E
	mr 3,31
	bl _Unwind_Resume
.LVL1257:
.L1015:
.LBE6628:
.LBE6627:
.LBE6626:
.LBE6625:
.LBE6624:
.LBE6631:
.LBE6879:
.LBB6880:
.LBB6743:
.LBB6729:
.LBB6730:
.LBB6731:
.LBB6732:
.LBB6733:
.LBB6734:
.LBB6735:
	lwz 4,672(1)
	mr 31,3
.LVL1258:
	addi 3,1,664
	bl _ZNSt8_Rb_treeIwSt4pairIKw13ftgxCharData_ESt10_Select1stIS3_ESt4lessIwESaIS3_EE8_M_eraseEPSt13_Rb_tree_nodeIS3_E
.LVL1259:
.LBE6735:
.LBE6734:
.LBE6733:
.LBE6732:
.LBE6731:
.LBE6730:
.LBE6729:
.LBB6736:
.LBB6737:
.LBB6738:
.LBB6739:
.LBB6740:
	addi 3,1,120
	lwz 4,8(3)
	bl _ZNSt8_Rb_treeIwSt4pairIKw13ftgxCharData_ESt10_Select1stIS3_ESt4lessIwESaIS3_EE8_M_eraseEPSt13_Rb_tree_nodeIS3_E
	mr 3,31
	bl _Unwind_Resume
.LVL1260:
.L1008:
.LBE6740:
.LBE6739:
.LBE6738:
.LBE6737:
.LBE6736:
.LBE6743:
.LBE6880:
.LBB6881:
.LBB5969:
.LBB5955:
.LBB5956:
.LBB5957:
.LBB5958:
.LBB5959:
.LBB5960:
.LBB5961:
	lwz 4,1064(1)
	mr 31,3
.LVL1261:
	addi 3,1,1056
	bl _ZNSt8_Rb_treeIwSt4pairIKw13ftgxCharData_ESt10_Select1stIS3_ESt4lessIwESaIS3_EE8_M_eraseEPSt13_Rb_tree_nodeIS3_E
.LVL1262:
.LBE5961:
.LBE5960:
.LBE5959:
.LBE5958:
.LBE5957:
.LBE5956:
.LBE5955:
.LBB5962:
.LBB5963:
.LBB5964:
.LBB5965:
.LBB5966:
	addi 3,1,456
	lwz 4,8(3)
	bl _ZNSt8_Rb_treeIwSt4pairIKw13ftgxCharData_ESt10_Select1stIS3_ESt4lessIwESaIS3_EE8_M_eraseEPSt13_Rb_tree_nodeIS3_E
	mr 3,31
	bl _Unwind_Resume
.LVL1263:
.L1009:
.LBE5966:
.LBE5965:
.LBE5964:
.LBE5963:
.LBE5962:
.LBE5969:
.LBE6881:
.LBB6882:
.LBB6076:
.LBB6063:
.LBB6064:
.LBB6065:
.LBB6066:
.LBB6067:
.LBB6068:
.LBB6069:
	lwz 4,1008(1)
	mr 31,3
.LVL1264:
	addi 3,1,1000
	bl _ZNSt8_Rb_treeIwSt4pairIKw13ftgxCharData_ESt10_Select1stIS3_ESt4lessIwESaIS3_EE8_M_eraseEPSt13_Rb_tree_nodeIS3_E
.LVL1265:
.LBE6069:
.LBE6068:
.LBE6067:
.LBE6066:
.LBE6065:
.LBE6064:
.LBE6063:
.LBB6070:
.LBB6071:
.LBB6072:
.LBB6073:
.LBB6074:
	addi 3,1,408
	lwz 4,8(3)
	bl _ZNSt8_Rb_treeIwSt4pairIKw13ftgxCharData_ESt10_Select1stIS3_ESt4lessIwESaIS3_EE8_M_eraseEPSt13_Rb_tree_nodeIS3_E
	mr 3,31
	bl _Unwind_Resume
.LVL1266:
.L1010:
.LBE6074:
.LBE6073:
.LBE6072:
.LBE6071:
.LBE6070:
.LBE6076:
.LBE6882:
.LBB6883:
.LBB6184:
.LBB6171:
.LBB6172:
.LBB6173:
.LBB6174:
.LBB6175:
.LBB6176:
.LBB6177:
	lwz 4,952(1)
	mr 31,3
.LVL1267:
	addi 3,1,944
	bl _ZNSt8_Rb_treeIwSt4pairIKw13ftgxCharData_ESt10_Select1stIS3_ESt4lessIwESaIS3_EE8_M_eraseEPSt13_Rb_tree_nodeIS3_E
.LVL1268:
.LBE6177:
.LBE6176:
.LBE6175:
.LBE6174:
.LBE6173:
.LBE6172:
.LBE6171:
.LBB6178:
.LBB6179:
.LBB6180:
.LBB6181:
.LBB6182:
	addi 3,1,360
	lwz 4,8(3)
	bl _ZNSt8_Rb_treeIwSt4pairIKw13ftgxCharData_ESt10_Select1stIS3_ESt4lessIwESaIS3_EE8_M_eraseEPSt13_Rb_tree_nodeIS3_E
	mr 3,31
	bl _Unwind_Resume
.LVL1269:
.L1011:
.LBE6182:
.LBE6181:
.LBE6180:
.LBE6179:
.LBE6178:
.LBE6184:
.LBE6883:
.LBB6884:
.LBB6290:
.LBB6277:
.LBB6278:
.LBB6279:
.LBB6280:
.LBB6281:
.LBB6282:
.LBB6283:
	lwz 4,896(1)
	mr 31,3
.LVL1270:
	addi 3,1,888
	bl _ZNSt8_Rb_treeIwSt4pairIKw13ftgxCharData_ESt10_Select1stIS3_ESt4lessIwESaIS3_EE8_M_eraseEPSt13_Rb_tree_nodeIS3_E
.LVL1271:
.LBE6283:
.LBE6282:
.LBE6281:
.LBE6280:
.LBE6279:
.LBE6278:
.LBE6277:
.LBB6284:
.LBB6285:
.LBB6286:
.LBB6287:
.LBB6288:
	addi 3,1,312
	lwz 4,8(3)
	bl _ZNSt8_Rb_treeIwSt4pairIKw13ftgxCharData_ESt10_Select1stIS3_ESt4lessIwESaIS3_EE8_M_eraseEPSt13_Rb_tree_nodeIS3_E
	mr 3,31
	bl _Unwind_Resume
.LEHE34:
.LBE6288:
.LBE6287:
.LBE6286:
.LBE6285:
.LBE6284:
.LBE6290:
.LBE6884:
.LBE6886:
.LBE6888:
.LBE6893:
.LBE6899:
	.cfi_endproc
.LFE554:
	.section	.gcc_except_table
.LLSDA554:
	.byte	0xff
	.byte	0xff
	.byte	0x1
	.uleb128 .LLSDACSE554-.LLSDACSB554
.LLSDACSB554:
	.uleb128 .LEHB12-.LFB554
	.uleb128 .LEHE12-.LEHB12
	.uleb128 0
	.uleb128 0
	.uleb128 .LEHB13-.LFB554
	.uleb128 .LEHE13-.LEHB13
	.uleb128 .L1006-.LFB554
	.uleb128 0
	.uleb128 .LEHB14-.LFB554
	.uleb128 .LEHE14-.LEHB14
	.uleb128 0
	.uleb128 0
	.uleb128 .LEHB15-.LFB554
	.uleb128 .LEHE15-.LEHB15
	.uleb128 .L1007-.LFB554
	.uleb128 0
	.uleb128 .LEHB16-.LFB554
	.uleb128 .LEHE16-.LEHB16
	.uleb128 0
	.uleb128 0
	.uleb128 .LEHB17-.LFB554
	.uleb128 .LEHE17-.LEHB17
	.uleb128 .L1008-.LFB554
	.uleb128 0
	.uleb128 .LEHB18-.LFB554
	.uleb128 .LEHE18-.LEHB18
	.uleb128 0
	.uleb128 0
	.uleb128 .LEHB19-.LFB554
	.uleb128 .LEHE19-.LEHB19
	.uleb128 .L1009-.LFB554
	.uleb128 0
	.uleb128 .LEHB20-.LFB554
	.uleb128 .LEHE20-.LEHB20
	.uleb128 0
	.uleb128 0
	.uleb128 .LEHB21-.LFB554
	.uleb128 .LEHE21-.LEHB21
	.uleb128 .L1010-.LFB554
	.uleb128 0
	.uleb128 .LEHB22-.LFB554
	.uleb128 .LEHE22-.LEHB22
	.uleb128 0
	.uleb128 0
	.uleb128 .LEHB23-.LFB554
	.uleb128 .LEHE23-.LEHB23
	.uleb128 .L1011-.LFB554
	.uleb128 0
	.uleb128 .LEHB24-.LFB554
	.uleb128 .LEHE24-.LEHB24
	.uleb128 0
	.uleb128 0
	.uleb128 .LEHB25-.LFB554
	.uleb128 .LEHE25-.LEHB25
	.uleb128 .L1012-.LFB554
	.uleb128 0
	.uleb128 .LEHB26-.LFB554
	.uleb128 .LEHE26-.LEHB26
	.uleb128 0
	.uleb128 0
	.uleb128 .LEHB27-.LFB554
	.uleb128 .LEHE27-.LEHB27
	.uleb128 .L1013-.LFB554
	.uleb128 0
	.uleb128 .LEHB28-.LFB554
	.uleb128 .LEHE28-.LEHB28
	.uleb128 0
	.uleb128 0
	.uleb128 .LEHB29-.LFB554
	.uleb128 .LEHE29-.LEHB29
	.uleb128 .L1014-.LFB554
	.uleb128 0
	.uleb128 .LEHB30-.LFB554
	.uleb128 .LEHE30-.LEHB30
	.uleb128 0
	.uleb128 0
	.uleb128 .LEHB31-.LFB554
	.uleb128 .LEHE31-.LEHB31
	.uleb128 .L1015-.LFB554
	.uleb128 0
	.uleb128 .LEHB32-.LFB554
	.uleb128 .LEHE32-.LEHB32
	.uleb128 0
	.uleb128 0
	.uleb128 .LEHB33-.LFB554
	.uleb128 .LEHE33-.LEHB33
	.uleb128 .L1016-.LFB554
	.uleb128 0
	.uleb128 .LEHB34-.LFB554
	.uleb128 .LEHE34-.LEHB34
	.uleb128 0
	.uleb128 0
.LLSDACSE554:
	.section	".text"
	.size	_ZN10FreeTypeGX14cacheGlyphDataEws, .-_ZN10FreeTypeGX14cacheGlyphDataEws
	.align 2
	.globl _ZN10FreeTypeGX9getOffsetEPKwst
	.type	_ZN10FreeTypeGX9getOffsetEPKwst, @function
_ZN10FreeTypeGX9getOffsetEPKwst:
.LFB564:
	.loc 2 497 0
	.cfi_startproc
.LVL1272:
	mflr 0
	stwu 1,-96(1)
.LCFI78:
	.cfi_def_cfa_offset 96
	.cfi_register 65, 0
	mr 11,4
	stw 24,64(1)
	mr 24,6
	.cfi_offset 24, -32
	stw 0,100(1)
	stw 26,72(1)
.LBB6981:
.LBB6982:
.LBB6983:
	.loc 1 1536 0
	addi 26,3,40
	.cfi_offset 26, -24
	.cfi_offset 65, 4
	.loc 2 608 0
	lwz 9,44(3)
.LBE6983:
.LBE6982:
.LBE6981:
	.loc 2 497 0
	stw 30,88(1)
	mr 30,3
	.cfi_offset 30, -8
.LVL1273:
.LBB7135:
.LBB6994:
.LBB6992:
.LBB6984:
.LBB6985:
.LBB6986:
	.loc 1 1089 0
	cmpwi 7,9,0
.LBE6986:
.LBE6985:
.LBE6984:
.LBE6992:
.LBE6994:
.LBE7135:
	.loc 2 497 0
	stw 31,92(1)
	stw 25,68(1)
	mr 31,5
	.cfi_offset 25, -28
	.cfi_offset 31, -4
	stw 27,76(1)
	stw 28,80(1)
	stw 29,84(1)
.LBB7136:
.LBB6995:
.LBB6993:
.LBB6991:
.LBB6990:
.LBB6987:
	.loc 1 1089 0
	beq- 7,.L1128
	.cfi_offset 29, -12
	.cfi_offset 28, -16
	.cfi_offset 27, -20
	mr 10,26
	b .L1131
.LVL1274:
.L1190:
.LBE6987:
	.loc 2 608 0
	mr 10,9
	.loc 1 1091 0
	lwz 9,8(9)
.LVL1275:
.LBB6988:
	.loc 1 1089 0
	cmpwi 7,9,0
	beq- 7,.L1189
.LVL1276:
.L1131:
	.loc 1 1090 0
	lha 0,16(9)
	cmpw 7,0,31
	bge- 7,.L1190
.LVL1277:
.LBE6988:
	.loc 2 608 0
	lwz 9,12(9)
.LVL1278:
.LBB6989:
	.loc 1 1089 0
	cmpwi 7,9,0
	bne+ 7,.L1131
.L1189:
.LVL1279:
.LBE6989:
.LBE6990:
	.loc 1 1539 0
	cmpw 7,10,26
	beq- 7,.L1128
.LVL1280:
	lha 0,16(10)
	cmpw 7,0,31
	ble- 7,.L1127
.LVL1281:
.L1128:
.LBE6991:
.LBE6993:
.LBE6995:
	.loc 2 505 0 discriminator 1
	lwz 4,0(11)
.LVL1282:
	li 29,9999
	li 27,0
	cmpwi 7,4,0
	beq- 7,.L1133
	.loc 2 505 0 is_stmt 0
	cmpwi 7,24,0
	mr 25,11
	li 28,0
	bne+ 7,.L1143
	mr 28,11
.LVL1283:
.L1138:
.LBB6996:
	.loc 2 509 0 is_stmt 1
	mr 3,30
	mr 5,31
	bl _ZN10FreeTypeGX14cacheGlyphDataEws
.LVL1284:
	.loc 2 511 0
	mr 9,27
	cmpwi 0,3,0
	mr 0,29
	beq- 0,.L1135
	lha 11,14(3)
	cmpw 7,27,11
	bge- 7,.L1136
	mr 9,11
.L1136:
	lha 11,16(3)
	mr 27,9
	cmpw 7,0,11
	ble- 7,.L1137
	mr 0,11
.L1137:
	mr 29,0
.L1135:
.LVL1285:
.LBE6996:
	.loc 2 505 0
	lwzu 4,4(28)
	cmpwi 7,4,0
	bne+ 7,.L1138
.LVL1286:
.L1133:
	.loc 2 521 0
	lha 0,8(30)
	cmpw 7,0,31
	beq- 7,.L1144
	.loc 2 523 0
	sth 31,8(30)
	.loc 2 524 0
	li 4,0
	lwz 3,4(30)
	mr 5,31
	bl FT_Set_Pixel_Sizes
.L1144:
.LVL1287:
.LBB6997:
.LBB6998:
.LBB6999:
.LBB7000:
	.loc 2 608 0
	lwz 11,44(30)
.LVL1288:
.LBB7001:
.LBB7002:
	.loc 1 1089 0
	mr 8,26
	cmpwi 7,11,0
	beq- 7,.L1145
	mr 9,11
	b .L1148
.LVL1289:
.L1192:
.LBE7002:
	.loc 2 608 0
	mr 8,9
	.loc 1 1091 0
	lwz 9,8(9)
.LVL1290:
.LBB7003:
	.loc 1 1089 0
	cmpwi 7,9,0
	beq- 7,.L1191
.LVL1291:
.L1148:
	.loc 1 1090 0
	lha 0,16(9)
	cmpw 7,0,31
	bge- 7,.L1192
.LVL1292:
.LBE7003:
	.loc 2 608 0
	lwz 9,12(9)
.LVL1293:
.LBB7004:
	.loc 1 1089 0
	cmpwi 7,9,0
	bne+ 7,.L1148
.L1191:
.LVL1294:
.LBE7004:
.LBE7001:
.LBE7000:
.LBE6999:
	.loc 5 452 0
	cmpw 7,8,26
	beq- 7,.L1145
.LVL1295:
	lha 0,16(8)
	cmpw 7,0,31
	ble- 7,.L1149
.LVL1296:
.L1145:
.LBE6998:
	.loc 6 104 0
	li 0,0
.LBB7023:
.LBB7008:
.LBB7009:
	.loc 5 571 0
	mr 28,1
.LBE7009:
.LBE7008:
.LBE7023:
	.loc 6 104 0
	sth 0,40(1)
.LBB7024:
.LBB7015:
.LBB7010:
	.loc 5 571 0
	addi 25,30,36
.LBE7010:
.LBE7015:
.LBE7024:
	.loc 6 104 0
	sth 0,42(1)
.LBB7025:
.LBB7016:
.LBB7011:
	.loc 5 571 0
	mr 3,25
.LBE7011:
.LBE7016:
.LBE7025:
	.loc 6 104 0
	sth 0,44(1)
.LBB7026:
.LBB7017:
.LBB7012:
	.loc 5 571 0
	addi 5,1,38
.LBE7012:
.LBE7017:
.LBE7026:
	.loc 6 104 0
	sth 0,46(1)
.LVL1297:
.LBB7027:
.LBB7018:
.LBB7019:
	sth 31,38(1)
.LBE7019:
.LBE7018:
.LBB7020:
.LBB7013:
	.loc 5 571 0
	stwu 8,56(28)
	mr 4,28
	bl _ZNSt8_Rb_treeIsSt4pairIKs15ftgxDataOffset_ESt10_Select1stIS3_ESt4lessIsESaIS3_EE17_M_insert_unique_ESt23_Rb_tree_const_iteratorIS3_ERKS3_.constprop.114
.LVL1298:
.LBE7013:
.LBE7020:
.LBE7027:
.LBE6997:
	.loc 2 527 0
	lwz 9,4(30)
.LBB7030:
.LBB7028:
.LBB7021:
.LBB7014:
	.loc 5 571 0
	lwz 11,44(30)
.LVL1299:
.LBE7014:
.LBE7021:
.LBE7028:
.LBE7030:
	.loc 2 527 0
	lwz 10,88(9)
.LBB7031:
.LBB7032:
.LBB7033:
.LBB7034:
.LBB7035:
.LBB7036:
	.loc 1 1089 0
	cmpwi 7,11,0
.LBE7036:
.LBE7035:
.LBE7034:
.LBE7033:
.LBE7032:
.LBE7031:
	.loc 2 527 0
	lwz 0,24(10)
	srawi 0,0,6
	sth 0,18(3)
.LVL1300:
.LBB7071:
.LBB7064:
.LBB7050:
.LBB7046:
.LBB7042:
.LBB7037:
	.loc 1 1089 0
	beq- 7,.L1170
.LVL1301:
.L1165:
.LBE7037:
.LBE7042:
.LBE7046:
.LBE7050:
.LBE7064:
.LBE7071:
.LBB7072:
.LBB7029:
.LBB7022:
.LBB7007:
.LBB7006:
.LBB7005:
	.loc 1 1536 0
	mr 9,26
	mr 8,11
	b .L1153
.LVL1302:
.L1194:
.LBE7005:
.LBE7006:
.LBE7007:
.LBE7022:
.LBE7029:
.LBE7072:
.LBB7073:
.LBB7065:
.LBB7051:
.LBB7047:
.LBB7043:
	.loc 2 608 0
	mr 9,8
	.loc 1 1091 0
	lwz 8,8(8)
.LVL1303:
.LBB7038:
	.loc 1 1089 0
	cmpwi 7,8,0
	beq- 7,.L1193
.LVL1304:
.L1153:
	.loc 1 1090 0
	lha 0,16(8)
	cmpw 7,0,31
	bge- 7,.L1194
.LVL1305:
.LBE7038:
	.loc 2 608 0
	lwz 8,12(8)
.LVL1306:
.LBB7039:
	.loc 1 1089 0
	cmpwi 7,8,0
	bne+ 7,.L1153
.L1193:
.LVL1307:
.LBE7039:
.LBE7043:
.LBE7047:
.LBE7051:
	.loc 5 452 0
	cmpw 7,26,9
	beq- 7,.L1186
.LVL1308:
	lha 0,16(9)
	cmpw 7,0,31
	bgt- 7,.L1186
.LVL1309:
.LBE7065:
.LBE7073:
	.loc 2 528 0
	lwz 0,28(10)
	srawi 0,0,6
	sth 0,20(9)
.LVL1310:
.L1166:
.LBB7074:
.LBB7066:
.LBB7052:
.LBB7048:
.LBB7044:
.LBB7040:
	.loc 1 1536 0
	mr 9,26
	mr 10,11
	b .L1158
.LVL1311:
.L1196:
.LBE7040:
.LBE7044:
.LBE7048:
.LBE7052:
.LBE7066:
.LBE7074:
.LBB7075:
.LBB7076:
.LBB7077:
.LBB7078:
.LBB7079:
	.loc 2 608 0
	mr 9,10
	.loc 1 1091 0
	lwz 10,8(10)
.LVL1312:
.LBB7080:
	.loc 1 1089 0
	cmpwi 7,10,0
	beq- 7,.L1195
.LVL1313:
.L1158:
	.loc 1 1090 0
	lha 0,16(10)
	cmpw 7,0,31
	bge- 7,.L1196
.LVL1314:
.LBE7080:
	.loc 2 608 0
	lwz 10,12(10)
.LVL1315:
.LBB7081:
	.loc 1 1089 0
	cmpwi 7,10,0
	bne+ 7,.L1158
.L1195:
.LVL1316:
.LBE7081:
.LBE7079:
.LBE7078:
.LBE7077:
	.loc 5 452 0
	cmpw 7,26,9
	beq- 7,.L1187
.LVL1317:
	lha 0,16(9)
	cmpw 7,0,31
	bgt- 7,.L1187
.LVL1318:
.LBE7076:
.LBE7075:
	.loc 2 529 0
	sth 27,22(9)
.LVL1319:
.L1167:
.LBB7105:
.LBB7100:
.LBB7091:
.LBB7088:
.LBB7085:
.LBB7082:
	.loc 1 1536 0
	mr 9,26
	b .L1163
.LVL1320:
.L1198:
.LBE7082:
.LBE7085:
.LBE7088:
.LBE7091:
.LBE7100:
.LBE7105:
.LBB7106:
.LBB7107:
.LBB7108:
.LBB7109:
.LBB7110:
	.loc 2 608 0
	mr 9,11
	.loc 1 1091 0
	lwz 11,8(11)
.LVL1321:
.LBB7111:
	.loc 1 1089 0
	cmpwi 7,11,0
	beq- 7,.L1197
.LVL1322:
.L1163:
	.loc 1 1090 0
	lha 0,16(11)
	cmpw 7,0,31
	bge- 7,.L1198
.LVL1323:
.LBE7111:
	.loc 2 608 0
	lwz 11,12(11)
.LVL1324:
.LBB7112:
	.loc 1 1089 0
	cmpwi 7,11,0
	bne+ 7,.L1163
.L1197:
.LVL1325:
.LBE7112:
.LBE7110:
.LBE7109:
.LBE7108:
	.loc 5 452 0
	cmpw 7,26,9
	beq- 7,.L1188
.LVL1326:
	lha 0,16(9)
	cmpw 7,0,31
	ble- 7,.L1164
.LVL1327:
.L1188:
	addi 25,30,36
	addi 28,1,56
.LVL1328:
.L1160:
.LBE7107:
	.loc 6 104 0
	li 0,0
.LBB7123:
.LBB7116:
.LBB7117:
	.loc 5 571 0
	mr 3,25
	mr 4,28
	addi 5,1,8
	stw 9,56(1)
.LBE7117:
.LBE7116:
.LBB7119:
.LBB7120:
	.loc 6 104 0
	sth 31,8(1)
.LBE7120:
.LBE7119:
.LBE7123:
	sth 0,10(1)
	sth 0,12(1)
	sth 0,14(1)
	sth 0,16(1)
.LVL1329:
.LBB7124:
.LBB7121:
.LBB7118:
	.loc 5 571 0
	bl _ZNSt8_Rb_treeIsSt4pairIKs15ftgxDataOffset_ESt10_Select1stIS3_ESt4lessIsESaIS3_EE17_M_insert_unique_ESt23_Rb_tree_const_iteratorIS3_ERKS3_.constprop.114
.LVL1330:
	mr 9,3
.LVL1331:
.L1164:
.LBE7118:
.LBE7121:
.LBE7124:
.LBE7106:
	.loc 2 530 0
	sth 29,24(9)
.LVL1332:
.L1127:
.LBE7136:
	.loc 2 531 0
	lwz 0,100(1)
	lwz 24,64(1)
	mtlr 0
	lwz 25,68(1)
	lwz 26,72(1)
	lwz 27,76(1)
	lwz 28,80(1)
	lwz 29,84(1)
	lwz 30,88(1)
.LVL1333:
	lwz 31,92(1)
	addi 1,1,96
	.cfi_remember_state
.LCFI79:
	.cfi_def_cfa_offset 0
	.cfi_restore 31
	.cfi_restore 30
	.cfi_restore 29
	.cfi_restore 28
	.cfi_restore 27
	.cfi_restore 26
	.cfi_restore 25
	.cfi_restore 24
	blr
.LVL1334:
.L1199:
.LCFI80:
	.cfi_restore_state
.LBB7137:
.LBB7126:
	.loc 2 509 0
	bl _ZN10FreeTypeGX14cacheGlyphDataEws
.LVL1335:
	.loc 2 511 0
	mr 9,27
	cmpwi 0,3,0
	mr 0,29
	beq- 0,.L1140
	lha 11,14(3)
	cmpw 7,27,11
	bge- 7,.L1141
	mr 9,11
.L1141:
	lha 11,16(3)
	mr 27,9
	cmpw 7,0,11
	ble- 7,.L1142
	mr 0,11
.L1142:
	.loc 2 515 0
	lhz 9,2(3)
	.loc 2 511 0
	mr 29,0
	.loc 2 515 0
	add 28,28,9
	rlwinm 28,28,0,0xffff
.LVL1336:
.L1140:
.LBE7126:
	.loc 2 505 0
	lwzu 4,4(25)
	cmpwi 7,4,0
	beq- 7,.L1133
.LVL1337:
.L1143:
.LBB7127:
	.loc 2 507 0
	cmplw 7,24,28
	.loc 2 509 0
	mr 3,30
	mr 5,31
	.loc 2 507 0
	bgt+ 7,.L1199
	b .L1133
.LVL1338:
.L1187:
	addi 25,30,36
	addi 28,1,56
.LVL1339:
.L1155:
.LBE7127:
.LBB7128:
	.loc 6 104 0
	li 0,0
.LBB7101:
.LBB7092:
.LBB7093:
	.loc 5 571 0
	mr 3,25
	mr 4,28
	addi 5,1,18
.LBE7093:
.LBE7092:
.LBB7095:
.LBB7096:
	.loc 6 104 0
	sth 31,18(1)
.LBE7096:
.LBE7095:
.LBE7101:
	sth 0,20(1)
	sth 0,22(1)
	sth 0,24(1)
	sth 0,26(1)
.LVL1340:
.LBB7102:
.LBB7097:
.LBB7094:
	.loc 5 571 0
	stw 9,56(1)
	bl _ZNSt8_Rb_treeIsSt4pairIKs15ftgxDataOffset_ESt10_Select1stIS3_ESt4lessIsESaIS3_EE17_M_insert_unique_ESt23_Rb_tree_const_iteratorIS3_ERKS3_.constprop.114
.LVL1341:
	lwz 11,44(30)
.LVL1342:
.LBE7094:
.LBE7097:
.LBE7102:
.LBE7128:
	.loc 2 529 0
	sth 27,22(3)
.LVL1343:
.LBB7129:
.LBB7125:
.LBB7122:
.LBB7115:
.LBB7114:
.LBB7113:
	.loc 1 1089 0
	cmpwi 7,11,0
	bne+ 7,.L1167
	.loc 1 1536 0
	mr 9,26
	b .L1160
.LVL1344:
.L1186:
	addi 25,30,36
	addi 28,1,56
.LVL1345:
.L1150:
.LBE7113:
.LBE7114:
.LBE7115:
.LBE7122:
.LBE7125:
.LBE7129:
.LBB7130:
	.loc 6 104 0
	li 0,0
.LBB7067:
.LBB7053:
.LBB7054:
	.loc 5 571 0
	mr 3,25
	mr 4,28
	addi 5,1,28
.LBE7054:
.LBE7053:
.LBE7067:
	.loc 6 104 0
	sth 0,30(1)
	sth 0,32(1)
	sth 0,34(1)
	sth 0,36(1)
.LVL1346:
.LBB7068:
.LBB7058:
.LBB7055:
	.loc 5 571 0
	stw 9,56(1)
.LBE7055:
.LBE7058:
.LBB7059:
.LBB7060:
	.loc 6 104 0
	sth 31,28(1)
.LBE7060:
.LBE7059:
.LBB7061:
.LBB7056:
	.loc 5 571 0
	bl _ZNSt8_Rb_treeIsSt4pairIKs15ftgxDataOffset_ESt10_Select1stIS3_ESt4lessIsESaIS3_EE17_M_insert_unique_ESt23_Rb_tree_const_iteratorIS3_ERKS3_.constprop.114
.LVL1347:
.LBE7056:
.LBE7061:
.LBE7068:
.LBE7130:
	.loc 2 528 0
	lwz 9,4(30)
.LBB7131:
.LBB7069:
.LBB7062:
.LBB7057:
	.loc 5 571 0
	lwz 11,44(30)
.LVL1348:
.LBE7057:
.LBE7062:
.LBE7069:
.LBE7131:
	.loc 2 528 0
	lwz 9,88(9)
.LBB7132:
.LBB7103:
.LBB7098:
.LBB7089:
.LBB7086:
.LBB7083:
	.loc 1 1089 0
	cmpwi 7,11,0
.LBE7083:
.LBE7086:
.LBE7089:
.LBE7098:
.LBE7103:
.LBE7132:
	.loc 2 528 0
	lwz 0,28(9)
	srawi 0,0,6
	sth 0,20(3)
.LVL1349:
.LBB7133:
.LBB7104:
.LBB7099:
.LBB7090:
.LBB7087:
.LBB7084:
	.loc 1 1089 0
	bne+ 7,.L1166
	.loc 1 1536 0
	mr 9,26
	b .L1155
.LVL1350:
.L1149:
.LBE7084:
.LBE7087:
.LBE7090:
.LBE7099:
.LBE7104:
.LBE7133:
	.loc 2 527 0
	lwz 9,4(30)
.LVL1351:
	lwz 10,88(9)
	lwz 0,24(10)
	srawi 0,0,6
	sth 0,18(8)
.LVL1352:
	b .L1165
.LVL1353:
.L1170:
.LBB7134:
.LBB7070:
.LBB7063:
.LBB7049:
.LBB7045:
.LBB7041:
	.loc 1 1536 0
	mr 9,26
	b .L1150
.LBE7041:
.LBE7045:
.LBE7049:
.LBE7063:
.LBE7070:
.LBE7134:
.LBE7137:
	.cfi_endproc
.LFE564:
	.size	_ZN10FreeTypeGX9getOffsetEPKwst, .-_ZN10FreeTypeGX9getOffsetEPKwst
	.align 2
	.globl _ZN10FreeTypeGX9getHeightEPKws
	.type	_ZN10FreeTypeGX9getHeightEPKws, @function
_ZN10FreeTypeGX9getHeightEPKws:
.LFB563:
	.loc 2 480 0
	.cfi_startproc
.LVL1354:
	stwu 1,-72(1)
.LCFI81:
	.cfi_def_cfa_offset 72
	mflr 0
	.loc 2 481 0
	li 6,0
	.loc 2 480 0
	stw 30,64(1)
	mr 30,3
	.cfi_offset 30, -8
	.cfi_register 65, 0
	stw 29,60(1)
.LBB7170:
.LBB7171:
.LBB7172:
.LBB7173:
	.loc 1 828 0
	addi 29,30,40
	.cfi_offset 29, -12
.LBE7173:
.LBE7172:
.LBE7171:
.LBE7170:
	.loc 2 480 0
	stw 31,68(1)
	mr 31,5
	.cfi_offset 31, -4
	stw 0,76(1)
	stw 26,48(1)
	stw 27,52(1)
	stw 28,56(1)
	.loc 2 481 0
	.cfi_offset 28, -16
	.cfi_offset 27, -20
	.cfi_offset 26, -24
	.cfi_offset 65, 4
	bl _ZN10FreeTypeGX9getOffsetEPKwst
.LVL1355:
.LBB7202:
.LBB7196:
.LBB7182:
.LBB7180:
	.loc 2 608 0
	lwz 11,44(30)
.LVL1356:
.LBB7174:
.LBB7175:
	.loc 1 1089 0
	mr 10,29
	cmpwi 7,11,0
	beq- 7,.L1201
	mr 9,11
	b .L1204
.LVL1357:
.L1220:
.LBE7175:
	.loc 2 608 0
	mr 10,9
	.loc 1 1091 0
	lwz 9,8(9)
.LVL1358:
.LBB7176:
	.loc 1 1089 0
	cmpwi 7,9,0
	beq- 7,.L1219
.LVL1359:
.L1204:
	.loc 1 1090 0
	lha 0,16(9)
	cmpw 7,0,31
	bge- 7,.L1220
.LVL1360:
.LBE7176:
	.loc 2 608 0
	lwz 9,12(9)
.LVL1361:
.LBB7177:
	.loc 1 1089 0
	cmpwi 7,9,0
	bne+ 7,.L1204
.L1219:
.LVL1362:
.LBE7177:
.LBE7174:
.LBE7180:
.LBE7182:
	.loc 5 452 0
	cmpw 7,10,29
	beq- 7,.L1201
.LVL1363:
	lha 0,16(10)
	cmpw 7,0,31
	ble- 7,.L1205
.LVL1364:
.L1201:
.LBE7196:
	.loc 6 104 0
	li 0,0
.LBB7197:
.LBB7183:
.LBB7184:
	.loc 5 571 0
	mr 27,1
.LBE7184:
.LBE7183:
.LBB7189:
.LBB7190:
	.loc 6 104 0
	sth 31,18(1)
.LBE7190:
.LBE7189:
.LBB7191:
.LBB7185:
	.loc 5 571 0
	addi 26,30,36
.LBE7185:
.LBE7191:
.LBE7197:
	.loc 6 104 0
	sth 0,20(1)
.LBB7198:
.LBB7192:
.LBB7186:
	.loc 5 571 0
	mr 3,26
.LBE7186:
.LBE7192:
.LBE7198:
	.loc 6 104 0
	sth 0,22(1)
.LBB7199:
.LBB7193:
.LBB7187:
	.loc 5 571 0
	addi 5,1,18
.LBE7187:
.LBE7193:
.LBE7199:
	.loc 6 104 0
	sth 0,24(1)
	sth 0,26(1)
.LVL1365:
.LBB7200:
.LBB7194:
.LBB7188:
	.loc 5 571 0
	stwu 10,40(27)
	mr 4,27
	bl _ZNSt8_Rb_treeIsSt4pairIKs15ftgxDataOffset_ESt10_Select1stIS3_ESt4lessIsESaIS3_EE17_M_insert_unique_ESt23_Rb_tree_const_iteratorIS3_ERKS3_.constprop.114
.LVL1366:
	lwz 11,44(30)
.LVL1367:
.LBE7188:
.LBE7194:
.LBE7200:
.LBE7202:
	.loc 2 483 0
	lhz 28,22(3)
.LVL1368:
.LBB7203:
.LBB7204:
.LBB7205:
.LBB7206:
.LBB7207:
.LBB7208:
	.loc 1 1089 0
	cmpwi 7,11,0
	beq- 7,.L1213
.LVL1369:
.L1211:
.LBE7208:
.LBE7207:
.LBE7206:
.LBE7205:
.LBE7204:
.LBE7203:
.LBB7228:
.LBB7201:
.LBB7195:
.LBB7181:
.LBB7179:
.LBB7178:
	.loc 1 828 0
	mr 9,29
	b .L1209
.LVL1370:
.L1222:
.LBE7178:
.LBE7179:
.LBE7181:
.LBE7195:
.LBE7201:
.LBE7228:
.LBB7229:
.LBB7224:
.LBB7216:
.LBB7214:
.LBB7212:
	.loc 2 608 0
	mr 9,11
	.loc 1 1091 0
	lwz 11,8(11)
.LVL1371:
.LBB7209:
	.loc 1 1089 0
	cmpwi 7,11,0
	beq- 7,.L1221
.LVL1372:
.L1209:
	.loc 1 1090 0
	lha 0,16(11)
	cmpw 7,0,31
	bge- 7,.L1222
.LVL1373:
.LBE7209:
	.loc 2 608 0
	lwz 11,12(11)
.LVL1374:
.LBB7210:
	.loc 1 1089 0
	cmpwi 7,11,0
	bne+ 7,.L1209
.L1221:
.LVL1375:
.LBE7210:
.LBE7212:
.LBE7214:
.LBE7216:
	.loc 5 452 0
	cmpw 7,29,9
	beq- 7,.L1218
.LVL1376:
	lha 0,16(9)
	cmpw 7,0,31
	ble- 7,.L1210
.LVL1377:
.L1218:
	addi 26,30,36
	addi 27,1,40
.LVL1378:
.L1206:
.LBE7224:
	.loc 6 104 0
	li 0,0
.LBB7225:
.LBB7217:
.LBB7218:
	.loc 5 571 0
	mr 3,26
	mr 4,27
	addi 5,1,8
	stw 9,40(1)
.LBE7218:
.LBE7217:
.LBB7220:
.LBB7221:
	.loc 6 104 0
	sth 31,8(1)
.LBE7221:
.LBE7220:
.LBE7225:
	sth 0,10(1)
	sth 0,12(1)
	sth 0,14(1)
	sth 0,16(1)
.LVL1379:
.LBB7226:
.LBB7222:
.LBB7219:
	.loc 5 571 0
	bl _ZNSt8_Rb_treeIsSt4pairIKs15ftgxDataOffset_ESt10_Select1stIS3_ESt4lessIsESaIS3_EE17_M_insert_unique_ESt23_Rb_tree_const_iteratorIS3_ERKS3_.constprop.114
.LVL1380:
	mr 9,3
.LVL1381:
.L1210:
.LBE7219:
.LBE7222:
.LBE7226:
.LBE7229:
	.loc 2 483 0
	lhz 0,24(9)
	.loc 2 484 0
	lwz 26,48(1)
	.loc 2 483 0
	subf 28,0,28
	.loc 2 484 0
	lwz 0,76(1)
	rlwinm 3,28,0,0xffff
	lwz 27,52(1)
	mtlr 0
	lwz 28,56(1)
	lwz 29,60(1)
	lwz 30,64(1)
.LVL1382:
	lwz 31,68(1)
	addi 1,1,72
	.cfi_remember_state
.LCFI82:
	.cfi_def_cfa_offset 0
	.cfi_restore 31
	.cfi_restore 30
	.cfi_restore 29
	.cfi_restore 28
	.cfi_restore 27
	.cfi_restore 26
	blr
.LVL1383:
.L1205:
.LCFI83:
	.cfi_restore_state
	.loc 2 483 0
	lhz 28,22(10)
.LVL1384:
	b .L1211
.LVL1385:
.L1213:
.LBB7230:
.LBB7227:
.LBB7223:
.LBB7215:
.LBB7213:
.LBB7211:
	.loc 1 828 0
	mr 9,29
	b .L1206
.LBE7211:
.LBE7213:
.LBE7215:
.LBE7223:
.LBE7227:
.LBE7230:
	.cfi_endproc
.LFE563:
	.size	_ZN10FreeTypeGX9getHeightEPKws, .-_ZN10FreeTypeGX9getHeightEPKws
	.align 2
	.globl _ZN10FreeTypeGX12getCharWidthEwsw
	.type	_ZN10FreeTypeGX12getCharWidthEwsw, @function
_ZN10FreeTypeGX12getCharWidthEwsw:
.LFB562:
	.loc 2 451 0
	.cfi_startproc
	.cfi_personality 0,__gxx_personality_v0
	.cfi_lsda 0,.LLSDA562
.LVL1386:
	mflr 0
	stwu 1,-152(1)
.LCFI84:
	.cfi_def_cfa_offset 152
	.cfi_register 65, 0
	stw 27,132(1)
	mr 27,3
	.cfi_offset 27, -20
	stw 28,136(1)
	mr 28,5
	.cfi_offset 28, -16
	stw 30,144(1)
	stw 31,148(1)
	mr 31,6
	.cfi_offset 31, -4
	.cfi_offset 30, -8
	stw 0,156(1)
	stw 26,128(1)
	stw 29,140(1)
.LEHB35:
.LBB7337:
	.loc 2 453 0
	.cfi_offset 29, -12
	.cfi_offset 26, -24
	.cfi_offset 65, 4
	bl _ZN10FreeTypeGX14cacheGlyphDataEws
.LEHE35:
.LVL1387:
.LBB7338:
	.loc 2 455 0
	mr. 30,3
	beq- 0,.L1259
.LBB7339:
.LBB7340:
	.loc 2 457 0
	lbz 9,10(27)
	.loc 2 452 0
	li 0,0
	.loc 2 457 0
	cmpwi 7,9,0
	bne- 7,.L1267
.LVL1388:
.L1225:
.LBE7340:
	.loc 2 464 0
	lhz 3,2(30)
.LBE7339:
.LBE7338:
.LBE7337:
	.loc 2 468 0
	lwz 26,128(1)
.LBB7461:
.LBB7456:
.LBB7452:
	.loc 2 464 0
	add 3,0,3
.LBE7452:
.LBE7456:
.LBE7461:
	.loc 2 468 0
	lwz 0,156(1)
.LVL1389:
	lwz 27,132(1)
.LVL1390:
.LBB7462:
.LBB7457:
.LBB7453:
	.loc 2 464 0
	rlwinm 3,3,0,0xffff
.LVL1391:
.LBE7453:
.LBE7457:
.LBE7462:
	.loc 2 468 0
	mtlr 0
	lwz 28,136(1)
	lwz 29,140(1)
	lwz 30,144(1)
.LVL1392:
	lwz 31,148(1)
.LVL1393:
	addi 1,1,152
	.cfi_remember_state
.LCFI85:
	.cfi_def_cfa_offset 0
	.cfi_restore 31
	.cfi_restore 30
	.cfi_restore 29
	.cfi_restore 28
	.cfi_restore 27
	.cfi_restore 26
	blr
.LVL1394:
.L1267:
.LCFI86:
	.cfi_restore_state
.LBB7463:
.LBB7458:
.LBB7454:
.LBB7450:
	.loc 2 457 0 discriminator 1
	cmpwi 7,31,0
	beq+ 7,.L1225
.LBB7341:
.LBB7342:
.LBB7343:
.LBB7344:
.LBB7345:
	.loc 2 608 0
	lwz 9,20(27)
	.loc 1 828 0
	addi 11,27,16
.LBE7345:
.LBE7344:
.LBE7343:
.LBE7342:
	.loc 2 461 0
	lwz 29,4(27)
.LVL1395:
.LBB7431:
.LBB7429:
.LBB7351:
.LBB7350:
.LBB7346:
.LBB7347:
	.loc 1 1089 0
	mr 26,11
	cmpwi 7,9,0
	bne+ 7,.L1229
	b .L1226
.LVL1396:
.L1269:
.LBE7347:
	.loc 2 608 0
	mr 26,9
	.loc 1 1091 0
	lwz 9,8(9)
.LVL1397:
.LBB7348:
	.loc 1 1089 0
	cmpwi 7,9,0
	beq- 7,.L1268
.LVL1398:
.L1229:
	.loc 1 1090 0
	lha 0,16(9)
	cmpw 7,0,28
	bge- 7,.L1269
.LVL1399:
.LBE7348:
	.loc 2 608 0
	lwz 9,12(9)
.LVL1400:
.LBB7349:
	.loc 1 1089 0
	cmpwi 7,9,0
	bne+ 7,.L1229
.L1268:
.LVL1401:
.LBE7349:
.LBE7346:
.LBE7350:
.LBE7351:
	.loc 5 452 0
	cmpw 7,11,26
	beq- 7,.L1226
.LVL1402:
	lha 0,16(26)
	cmpw 7,0,28
	ble- 7,.L1240
.LVL1403:
.L1226:
.LBB7352:
.LBB7353:
.LBB7354:
.LBB7355:
	.loc 1 445 0
	li 0,0
.LBB7356:
.LBB7357:
	.loc 1 459 0
	addi 11,1,44
.LBE7357:
.LBE7356:
.LBE7355:
.LBE7354:
.LBE7353:
.LBE7352:
.LBB7369:
.LBB7370:
.LBB7371:
.LBB7372:
.LBB7373:
.LBB7374:
.LBB7375:
.LBB7376:
	addi 9,1,100
.LVL1404:
.LBE7376:
.LBE7375:
.LBE7374:
.LBE7373:
.LBE7372:
.LBE7371:
.LBE7370:
.LBE7369:
.LBB7384:
.LBB7385:
	.loc 5 571 0
	mr 4,1
.LBE7385:
.LBE7384:
.LBB7390:
.LBB7366:
.LBB7363:
.LBB7360:
	.loc 1 445 0
	stw 0,44(1)
.LBE7360:
.LBE7363:
.LBE7366:
.LBE7390:
.LBB7391:
.LBB7386:
	.loc 5 571 0
	addi 3,27,12
.LVL1405:
.LBE7386:
.LBE7391:
.LBB7392:
.LBB7367:
.LBB7364:
.LBB7361:
	.loc 1 445 0
	stw 0,48(1)
.LBE7361:
.LBE7364:
.LBE7367:
.LBE7392:
.LBB7393:
.LBB7387:
	.loc 5 571 0
	addi 5,1,92
.LBE7387:
.LBE7393:
.LBB7394:
.LBB7368:
.LBB7365:
.LBB7362:
	.loc 1 445 0
	stw 0,60(1)
.LVL1406:
.LBB7359:
.LBB7358:
	.loc 1 459 0
	stw 11,52(1)
	.loc 1 460 0
	stw 11,56(1)
.LVL1407:
.LBE7358:
.LBE7359:
.LBE7362:
.LBE7365:
.LBE7368:
.LBE7394:
.LBB7395:
.LBB7383:
	.loc 6 104 0
	sth 28,92(1)
.LVL1408:
.LBB7382:
.LBB7381:
.LBB7380:
.LBB7379:
	.loc 1 450 0
	stw 0,100(1)
	stw 0,104(1)
	stw 0,116(1)
.LVL1409:
.LBB7378:
.LBB7377:
	.loc 1 459 0
	stw 9,108(1)
	.loc 1 460 0
	stw 9,112(1)
.LVL1410:
.LBE7377:
.LBE7378:
.LBE7379:
.LBE7380:
.LBE7381:
.LBE7382:
.LBE7383:
.LBE7395:
.LBB7396:
.LBB7388:
	.loc 5 571 0
	stwu 26,120(4)
.LEHB36:
	bl _ZNSt8_Rb_treeIsSt4pairIKsSt3mapIw13ftgxCharData_St4lessIwESaIS0_IKwS3_EEEESt10_Select1stISA_ES4_IsESaISA_EE17_M_insert_unique_ESt23_Rb_tree_const_iteratorISA_ERKSA_.constprop.111
.LEHE36:
.LVL1411:
.LBE7388:
.LBE7396:
.LBB7397:
.LBB7398:
.LBB7399:
.LBB7400:
.LBB7401:
.LBB7402:
.LBB7403:
	.loc 1 639 0
	lwz 4,104(1)
.LBE7403:
.LBE7402:
.LBE7401:
.LBE7400:
.LBE7399:
.LBE7398:
.LBE7397:
.LBB7410:
.LBB7389:
	.loc 5 571 0
	mr 26,3
.LVL1412:
.LBE7389:
.LBE7410:
.LBB7411:
.LBB7409:
.LBB7408:
.LBB7407:
.LBB7406:
.LBB7405:
.LBB7404:
	.loc 1 639 0
	addi 3,1,96
.LVL1413:
	bl _ZNSt8_Rb_treeIwSt4pairIKw13ftgxCharData_ESt10_Select1stIS3_ESt4lessIwESaIS3_EE8_M_eraseEPSt13_Rb_tree_nodeIS3_E
.LVL1414:
.LBE7404:
.LBE7405:
.LBE7406:
.LBE7407:
.LBE7408:
.LBE7409:
.LBE7411:
.LBB7412:
.LBB7413:
.LBB7414:
.LBB7415:
.LBB7416:
	addi 3,1,40
	lwz 4,8(3)
	bl _ZNSt8_Rb_treeIwSt4pairIKw13ftgxCharData_ESt10_Select1stIS3_ESt4lessIwESaIS3_EE8_M_eraseEPSt13_Rb_tree_nodeIS3_E
.LVL1415:
.L1240:
.LBE7416:
.LBE7415:
.LBE7414:
.LBE7413:
.LBE7412:
.LBE7429:
.LBE7431:
.LBB7432:
.LBB7433:
.LBB7434:
.LBB7435:
	.loc 2 608 0
	lwz 9,28(26)
.LVL1416:
	.loc 1 828 0
	addi 3,26,24
.LVL1417:
.LBB7436:
.LBB7437:
	.loc 1 1089 0
	mr 11,3
	cmpwi 7,9,0
	bne+ 7,.L1264
	b .L1242
.LVL1418:
.L1271:
.LBE7437:
	.loc 2 608 0
	mr 3,9
	.loc 1 1091 0
	lwz 9,8(9)
.LVL1419:
.LBB7438:
	.loc 1 1089 0
	cmpwi 7,9,0
	beq- 7,.L1270
.LVL1420:
.L1264:
	.loc 1 1090 0
	lwz 0,16(9)
	cmpw 7,0,31
	bge- 7,.L1271
.LVL1421:
.LBE7438:
	.loc 2 608 0
	lwz 9,12(9)
.LVL1422:
.LBB7439:
	.loc 1 1089 0
	cmpwi 7,9,0
	bne+ 7,.L1264
.L1270:
.LVL1423:
.LBE7439:
.LBE7436:
.LBE7435:
.LBE7434:
	.loc 5 452 0
	cmpw 7,3,11
	beq- 7,.L1242
.LVL1424:
	lwz 0,16(3)
	cmpw 7,0,31
	ble- 7,.L1258
.LVL1425:
.L1242:
	.loc 5 453 0
	li 0,0
.LBB7440:
.LBB7441:
	.loc 5 571 0
	mr 4,1
.LBE7441:
.LBE7440:
	.loc 5 453 0
	stw 0,16(1)
.LBB7444:
.LBB7442:
	.loc 5 571 0
	addi 5,1,64
.LBE7442:
.LBE7444:
	.loc 5 453 0
	stw 0,20(1)
	stw 0,24(1)
	stw 0,28(1)
	stw 0,32(1)
	stw 0,36(1)
.LVL1426:
.LBB7445:
.LBB7446:
	.loc 6 104 0
	stw 31,64(1)
	stw 0,68(1)
	stw 0,72(1)
	stw 0,76(1)
	stw 0,80(1)
	stw 0,84(1)
	stw 0,88(1)
.LVL1427:
.LBE7446:
.LBE7445:
.LBB7447:
.LBB7443:
	.loc 5 571 0
	stwu 3,124(4)
	addi 3,26,20
.LVL1428:
.LEHB37:
	bl _ZNSt8_Rb_treeIwSt4pairIKw13ftgxCharData_ESt10_Select1stIS3_ESt4lessIwESaIS3_EE17_M_insert_unique_ESt23_Rb_tree_const_iteratorIS3_ERKS3_.constprop.117
.LVL1429:
.L1258:
.LBE7443:
.LBE7447:
.LBE7433:
.LBE7432:
	.loc 2 461 0
	lwz 4,24(3)
	li 6,0
	lwz 5,4(30)
	mr 3,29
.LVL1430:
	addi 7,1,8
	bl FT_Get_Kerning
	.loc 2 462 0
	lwz 0,8(1)
	rlwinm 0,0,26,16,31
.LVL1431:
	b .L1225
.LVL1432:
.L1259:
.LBE7341:
.LBE7450:
.LBE7454:
.LBE7458:
.LBE7463:
	.loc 2 468 0
	lwz 0,156(1)
.LBB7464:
.LBB7459:
	.loc 2 452 0
	li 3,0
.LVL1433:
.LBE7459:
.LBE7464:
	.loc 2 468 0
	lwz 26,128(1)
	mtlr 0
	lwz 27,132(1)
.LVL1434:
	lwz 28,136(1)
	lwz 29,140(1)
	lwz 30,144(1)
.LVL1435:
	lwz 31,148(1)
.LVL1436:
	addi 1,1,152
	.cfi_remember_state
	.cfi_restore 26
	.cfi_restore 27
	.cfi_restore 28
	.cfi_restore 29
	.cfi_restore 30
	.cfi_restore 31
.LCFI87:
	.cfi_def_cfa_offset 0
	blr
.LVL1437:
.L1263:
.LCFI88:
	.cfi_restore_state
.LBB7465:
.LBB7460:
.LBB7455:
.LBB7451:
.LBB7449:
.LBB7448:
.LBB7430:
.LBB7417:
.LBB7418:
.LBB7419:
.LBB7420:
.LBB7421:
.LBB7422:
.LBB7423:
	.loc 1 639 0
	lwz 4,104(1)
	mr 31,3
.LVL1438:
	addi 3,1,96
	bl _ZNSt8_Rb_treeIwSt4pairIKw13ftgxCharData_ESt10_Select1stIS3_ESt4lessIwESaIS3_EE8_M_eraseEPSt13_Rb_tree_nodeIS3_E
.LVL1439:
.LBE7423:
.LBE7422:
.LBE7421:
.LBE7420:
.LBE7419:
.LBE7418:
.LBE7417:
.LBB7424:
.LBB7425:
.LBB7426:
.LBB7427:
.LBB7428:
	addi 3,1,40
	lwz 4,8(3)
	bl _ZNSt8_Rb_treeIwSt4pairIKw13ftgxCharData_ESt10_Select1stIS3_ESt4lessIwESaIS3_EE8_M_eraseEPSt13_Rb_tree_nodeIS3_E
	mr 3,31
	bl _Unwind_Resume
.LEHE37:
.LBE7428:
.LBE7427:
.LBE7426:
.LBE7425:
.LBE7424:
.LBE7430:
.LBE7448:
.LBE7449:
.LBE7451:
.LBE7455:
.LBE7460:
.LBE7465:
	.cfi_endproc
.LFE562:
	.section	.gcc_except_table
.LLSDA562:
	.byte	0xff
	.byte	0xff
	.byte	0x1
	.uleb128 .LLSDACSE562-.LLSDACSB562
.LLSDACSB562:
	.uleb128 .LEHB35-.LFB562
	.uleb128 .LEHE35-.LEHB35
	.uleb128 0
	.uleb128 0
	.uleb128 .LEHB36-.LFB562
	.uleb128 .LEHE36-.LEHB36
	.uleb128 .L1263-.LFB562
	.uleb128 0
	.uleb128 .LEHB37-.LFB562
	.uleb128 .LEHE37-.LEHB37
	.uleb128 0
	.uleb128 0
.LLSDACSE562:
	.section	".text"
	.size	_ZN10FreeTypeGX12getCharWidthEwsw, .-_ZN10FreeTypeGX12getCharWidthEwsw
	.align 2
	.globl _ZN10FreeTypeGX8getWidthEPKws
	.type	_ZN10FreeTypeGX8getWidthEPKws, @function
_ZN10FreeTypeGX8getWidthEPKws:
.LFB561:
	.loc 2 420 0
	.cfi_startproc
	.cfi_personality 0,__gxx_personality_v0
	.cfi_lsda 0,.LLSDA561
.LVL1440:
	stwu 1,-168(1)
.LCFI89:
	.cfi_def_cfa_offset 168
	mflr 0
	stw 24,136(1)
.LBB7569:
	.loc 2 421 0
	mr. 24,4
	.cfi_offset 24, -32
	.cfi_register 65, 0
.LBE7569:
	.loc 2 420 0
	stw 29,156(1)
	mr 29,3
	.cfi_offset 29, -12
	stw 31,164(1)
	mr 31,5
	.cfi_offset 31, -4
	stw 0,172(1)
	stw 22,128(1)
	stw 23,132(1)
	stw 25,140(1)
	stw 26,144(1)
	stw 27,148(1)
	stw 28,152(1)
	stw 30,160(1)
.LBB7704:
	.loc 2 421 0
	beq- 0,.L1311
	.cfi_offset 30, -8
	.cfi_offset 28, -16
	.cfi_offset 27, -20
	.cfi_offset 26, -24
	.cfi_offset 25, -28
	.cfi_offset 23, -36
	.cfi_offset 22, -40
	.cfi_offset 65, 4
.LVL1441:
	.loc 2 427 0 discriminator 1
	lwz 4,0(24)
.LVL1442:
	cmpwi 7,4,0
	beq- 7,.L1311
	.loc 2 427 0 is_stmt 0
	mr 27,24
	li 25,0
	li 30,0
	li 28,0
.LVL1443:
.L1309:
.LBB7570:
	.loc 2 429 0 is_stmt 1
	mr 3,29
	mr 5,31
.LEHB38:
	bl _ZN10FreeTypeGX14cacheGlyphDataEws
.LEHE38:
.LVL1444:
	.loc 2 431 0
	mr. 26,3
	beq- 0,.L1274
	.loc 2 433 0
	lbz 0,10(29)
	cmpwi 7,0,0
	beq- 7,.L1275
	.loc 2 433 0 is_stmt 0 discriminator 1
	cmpwi 7,30,0
	beq- 7,.L1275
.LBB7571:
.LBB7572:
.LBB7573:
.LBB7574:
	.loc 2 608 0 is_stmt 1
	lwz 9,20(29)
	.loc 1 828 0
	addi 11,29,16
.LBE7574:
.LBE7573:
.LBE7572:
.LBE7571:
	.loc 2 436 0
	lwz 23,4(29)
.LVL1445:
.LBB7666:
.LBB7663:
.LBB7580:
.LBB7579:
.LBB7575:
.LBB7576:
	.loc 1 1089 0
	mr 22,11
	cmpwi 7,9,0
	bne+ 7,.L1279
	b .L1276
.LVL1446:
.L1318:
.LBE7576:
	.loc 2 608 0
	mr 22,9
	.loc 1 1091 0
	lwz 9,8(9)
.LVL1447:
.LBB7577:
	.loc 1 1089 0
	cmpwi 7,9,0
	beq- 7,.L1317
.LVL1448:
.L1279:
	.loc 1 1090 0
	lha 0,16(9)
	cmpw 7,0,31
	bge- 7,.L1318
.LVL1449:
.LBE7577:
	.loc 2 608 0
	lwz 9,12(9)
.LVL1450:
.LBB7578:
	.loc 1 1089 0
	cmpwi 7,9,0
	bne+ 7,.L1279
.L1317:
.LVL1451:
.LBE7578:
.LBE7575:
.LBE7579:
.LBE7580:
	.loc 5 452 0
	cmpw 7,11,22
	beq- 7,.L1276
.LVL1452:
	lha 0,16(22)
	cmpw 7,0,31
	ble- 7,.L1290
.LVL1453:
.L1276:
.LBB7581:
.LBB7582:
.LBB7583:
.LBB7584:
	.loc 1 445 0
	li 0,0
.LBB7585:
.LBB7586:
	.loc 1 459 0
	addi 11,1,44
.LBE7586:
.LBE7585:
.LBE7584:
.LBE7583:
.LBE7582:
.LBE7581:
.LBB7598:
.LBB7599:
.LBB7600:
.LBB7601:
.LBB7602:
.LBB7603:
.LBB7604:
.LBB7605:
	addi 9,1,100
.LVL1454:
.LBE7605:
.LBE7604:
.LBE7603:
.LBE7602:
.LBE7601:
.LBE7600:
.LBE7599:
.LBE7598:
.LBB7613:
.LBB7614:
	.loc 5 571 0
	mr 4,1
.LBE7614:
.LBE7613:
.LBB7619:
.LBB7595:
.LBB7592:
.LBB7589:
	.loc 1 445 0
	stw 0,44(1)
.LBE7589:
.LBE7592:
.LBE7595:
.LBE7619:
.LBB7620:
.LBB7615:
	.loc 5 571 0
	addi 3,29,12
.LVL1455:
.LBE7615:
.LBE7620:
.LBB7621:
.LBB7596:
.LBB7593:
.LBB7590:
	.loc 1 445 0
	stw 0,48(1)
.LBE7590:
.LBE7593:
.LBE7596:
.LBE7621:
.LBB7622:
.LBB7616:
	.loc 5 571 0
	addi 5,1,92
.LBE7616:
.LBE7622:
.LBB7623:
.LBB7597:
.LBB7594:
.LBB7591:
	.loc 1 445 0
	stw 0,60(1)
.LVL1456:
.LBB7588:
.LBB7587:
	.loc 1 459 0
	stw 11,52(1)
	.loc 1 460 0
	stw 11,56(1)
.LVL1457:
.LBE7587:
.LBE7588:
.LBE7591:
.LBE7594:
.LBE7597:
.LBE7623:
.LBB7624:
.LBB7612:
	.loc 6 104 0
	sth 31,92(1)
.LVL1458:
.LBB7611:
.LBB7610:
.LBB7609:
.LBB7608:
	.loc 1 450 0
	stw 0,100(1)
	stw 0,104(1)
	stw 0,116(1)
.LVL1459:
.LBB7607:
.LBB7606:
	.loc 1 459 0
	stw 9,108(1)
	.loc 1 460 0
	stw 9,112(1)
.LVL1460:
.LBE7606:
.LBE7607:
.LBE7608:
.LBE7609:
.LBE7610:
.LBE7611:
.LBE7612:
.LBE7624:
.LBB7625:
.LBB7617:
	.loc 5 571 0
	stwu 22,120(4)
.LEHB39:
	bl _ZNSt8_Rb_treeIsSt4pairIKsSt3mapIw13ftgxCharData_St4lessIwESaIS0_IKwS3_EEEESt10_Select1stISA_ES4_IsESaISA_EE17_M_insert_unique_ESt23_Rb_tree_const_iteratorISA_ERKSA_.constprop.111
.LEHE39:
.LVL1461:
.LBE7617:
.LBE7625:
.LBB7626:
.LBB7627:
.LBB7628:
.LBB7629:
.LBB7630:
.LBB7631:
.LBB7632:
	.loc 1 639 0
	lwz 4,104(1)
.LBE7632:
.LBE7631:
.LBE7630:
.LBE7629:
.LBE7628:
.LBE7627:
.LBE7626:
.LBB7639:
.LBB7618:
	.loc 5 571 0
	mr 22,3
.LVL1462:
.LBE7618:
.LBE7639:
.LBB7640:
.LBB7638:
.LBB7637:
.LBB7636:
.LBB7635:
.LBB7634:
.LBB7633:
	.loc 1 639 0
	addi 3,1,96
.LVL1463:
	bl _ZNSt8_Rb_treeIwSt4pairIKw13ftgxCharData_ESt10_Select1stIS3_ESt4lessIwESaIS3_EE8_M_eraseEPSt13_Rb_tree_nodeIS3_E
.LVL1464:
.LBE7633:
.LBE7634:
.LBE7635:
.LBE7636:
.LBE7637:
.LBE7638:
.LBE7640:
.LBB7641:
.LBB7642:
.LBB7643:
.LBB7644:
.LBB7645:
	addi 3,1,40
	lwz 4,8(3)
	bl _ZNSt8_Rb_treeIwSt4pairIKw13ftgxCharData_ESt10_Select1stIS3_ESt4lessIwESaIS3_EE8_M_eraseEPSt13_Rb_tree_nodeIS3_E
.LVL1465:
.L1290:
.LBE7645:
.LBE7644:
.LBE7643:
.LBE7642:
.LBE7641:
.LBE7663:
.LBE7666:
.LBB7667:
.LBB7668:
.LBB7669:
.LBB7670:
	.loc 2 608 0
	lwz 9,28(22)
.LBE7670:
.LBE7669:
.LBE7668:
.LBE7667:
	.loc 2 435 0
	addi 25,25,-1
	slwi 25,25,2
.LVL1466:
.LBB7696:
.LBB7693:
.LBB7682:
.LBB7679:
	.loc 1 828 0
	addi 10,22,24
.LVL1467:
.LBB7671:
.LBB7672:
	.loc 1 1089 0
	cmpwi 7,9,0
	beq- 7,.L1319
.LBE7672:
.LBE7671:
.LBE7679:
.LBE7682:
.LBE7693:
.LBE7696:
.LBB7697:
.LBB7664:
.LBB7646:
.LBB7647:
.LBB7648:
.LBB7649:
.LBB7650:
	.loc 1 639 0
	lwzx 11,24,25
.LBE7650:
.LBE7649:
.LBE7648:
.LBE7647:
.LBE7646:
.LBE7664:
.LBE7697:
.LBB7698:
.LBB7694:
.LBB7683:
.LBB7680:
.LBB7677:
.LBB7673:
	.loc 1 828 0
	mr 3,10
	b .L1307
.LVL1468:
.L1321:
.LBE7673:
	.loc 2 608 0
	mr 3,9
	.loc 1 1091 0
	lwz 9,8(9)
.LVL1469:
.LBB7674:
	.loc 1 1089 0
	cmpwi 7,9,0
	beq- 7,.L1320
.LVL1470:
.L1307:
	.loc 1 1090 0
	lwz 0,16(9)
	cmpw 7,0,11
	bge- 7,.L1321
.LVL1471:
.LBE7674:
	.loc 2 608 0
	lwz 9,12(9)
.LVL1472:
.LBB7675:
	.loc 1 1089 0
	cmpwi 7,9,0
	bne+ 7,.L1307
.L1320:
.LVL1473:
.LBE7675:
.LBE7677:
.LBE7680:
.LBE7683:
	.loc 5 452 0
	cmpw 7,3,10
	beq- 7,.L1292
.LVL1474:
	lwz 0,16(3)
	cmpw 7,11,0
	bge- 7,.L1308
.LVL1475:
.L1292:
	.loc 5 453 0
	li 0,0
.LBB7684:
.LBB7685:
	.loc 5 571 0
	mr 4,1
.LBE7685:
.LBE7684:
	.loc 5 453 0
	stw 0,16(1)
.LBB7688:
.LBB7686:
	.loc 5 571 0
	addi 5,1,64
.LBE7686:
.LBE7688:
	.loc 5 453 0
	stw 0,20(1)
	stw 0,24(1)
	stw 0,28(1)
	stw 0,32(1)
	stw 0,36(1)
.LVL1476:
.LBB7689:
.LBB7690:
	.loc 6 104 0
	stw 11,64(1)
	stw 0,68(1)
	stw 0,72(1)
	stw 0,76(1)
	stw 0,80(1)
	stw 0,84(1)
	stw 0,88(1)
.LVL1477:
.LBE7690:
.LBE7689:
.LBB7691:
.LBB7687:
	.loc 5 571 0
	stwu 3,124(4)
	addi 3,22,20
.LVL1478:
.LEHB40:
	bl _ZNSt8_Rb_treeIwSt4pairIKw13ftgxCharData_ESt10_Select1stIS3_ESt4lessIwESaIS3_EE17_M_insert_unique_ESt23_Rb_tree_const_iteratorIS3_ERKS3_.constprop.117
.LVL1479:
.L1308:
.LBE7687:
.LBE7691:
.LBE7694:
.LBE7698:
	.loc 2 436 0
	lwz 4,24(3)
	li 6,0
	lwz 5,4(26)
	mr 3,23
.LVL1480:
	addi 7,1,8
	bl FT_Get_Kerning
	.loc 2 437 0
	lwz 0,8(1)
	srawi 0,0,6
	add 28,28,0
	rlwinm 28,28,0,0xffff
.LVL1481:
.L1275:
	.loc 2 440 0
	lhz 0,2(26)
	add 28,28,0
.LVL1482:
	rlwinm 28,28,0,0xffff
.LVL1483:
.L1274:
.LBE7570:
	.loc 2 427 0
	lwzu 4,4(27)
.LBB7701:
	.loc 2 442 0
	addi 30,30,1
.LVL1484:
.LBE7701:
	.loc 2 427 0
	mr 25,30
	cmpwi 7,4,0
	bne+ 7,.L1309
.LBE7704:
	.loc 2 445 0
	lwz 0,172(1)
	mr 3,28
	lwz 22,128(1)
	mtlr 0
	lwz 23,132(1)
	lwz 24,136(1)
.LVL1485:
	lwz 25,140(1)
	lwz 26,144(1)
.LVL1486:
	lwz 27,148(1)
	lwz 28,152(1)
.LVL1487:
	lwz 29,156(1)
.LVL1488:
	lwz 30,160(1)
.LVL1489:
	lwz 31,164(1)
	addi 1,1,168
	.cfi_remember_state
.LCFI90:
	.cfi_def_cfa_offset 0
	.cfi_restore 31
	.cfi_restore 30
	.cfi_restore 29
	.cfi_restore 28
	.cfi_restore 27
	.cfi_restore 26
	.cfi_restore 25
	.cfi_restore 24
	.cfi_restore 23
	.cfi_restore 22
	blr
.LVL1490:
.L1319:
.LCFI91:
	.cfi_restore_state
.LBB7705:
.LBB7702:
.LBB7699:
.LBB7695:
.LBB7692:
.LBB7681:
.LBB7678:
.LBB7676:
	.loc 1 828 0
	mr 3,10
	lwzx 11,24,25
	b .L1292
.LVL1491:
.L1311:
.LBE7676:
.LBE7678:
.LBE7681:
.LBE7692:
.LBE7695:
.LBE7699:
.LBE7702:
.LBE7705:
	.loc 2 445 0
	lwz 0,172(1)
.LBB7706:
	.loc 2 427 0
	li 28,0
.LBE7706:
	.loc 2 445 0
	mr 3,28
	lwz 22,128(1)
	mtlr 0
	lwz 23,132(1)
	lwz 24,136(1)
.LVL1492:
	lwz 25,140(1)
	lwz 26,144(1)
	lwz 27,148(1)
	lwz 28,152(1)
	lwz 29,156(1)
.LVL1493:
	lwz 30,160(1)
	lwz 31,164(1)
	addi 1,1,168
	.cfi_remember_state
	.cfi_restore 22
	.cfi_restore 23
	.cfi_restore 24
	.cfi_restore 25
	.cfi_restore 26
	.cfi_restore 27
	.cfi_restore 28
	.cfi_restore 29
	.cfi_restore 30
	.cfi_restore 31
.LCFI92:
	.cfi_def_cfa_offset 0
	blr
.LVL1494:
.L1313:
.LCFI93:
	.cfi_restore_state
.LBB7707:
.LBB7703:
.LBB7700:
.LBB7665:
.LBB7655:
.LBB7656:
.LBB7657:
.LBB7658:
.LBB7659:
.LBB7660:
.LBB7661:
	.loc 1 639 0
	lwz 4,104(1)
	mr 31,3
.LVL1495:
	addi 3,1,96
	bl _ZNSt8_Rb_treeIwSt4pairIKw13ftgxCharData_ESt10_Select1stIS3_ESt4lessIwESaIS3_EE8_M_eraseEPSt13_Rb_tree_nodeIS3_E
.LVL1496:
.LBE7661:
.LBE7660:
.LBE7659:
.LBE7658:
.LBE7657:
.LBE7656:
.LBE7655:
.LBB7662:
.LBB7654:
.LBB7653:
.LBB7652:
.LBB7651:
	addi 3,1,40
	lwz 4,8(3)
	bl _ZNSt8_Rb_treeIwSt4pairIKw13ftgxCharData_ESt10_Select1stIS3_ESt4lessIwESaIS3_EE8_M_eraseEPSt13_Rb_tree_nodeIS3_E
	mr 3,31
	bl _Unwind_Resume
.LEHE40:
.LBE7651:
.LBE7652:
.LBE7653:
.LBE7654:
.LBE7662:
.LBE7665:
.LBE7700:
.LBE7703:
.LBE7707:
	.cfi_endproc
.LFE561:
	.section	.gcc_except_table
.LLSDA561:
	.byte	0xff
	.byte	0xff
	.byte	0x1
	.uleb128 .LLSDACSE561-.LLSDACSB561
.LLSDACSB561:
	.uleb128 .LEHB38-.LFB561
	.uleb128 .LEHE38-.LEHB38
	.uleb128 0
	.uleb128 0
	.uleb128 .LEHB39-.LFB561
	.uleb128 .LEHE39-.LEHB39
	.uleb128 .L1313-.LFB561
	.uleb128 0
	.uleb128 .LEHB40-.LFB561
	.uleb128 .LEHE40-.LEHB40
	.uleb128 0
	.uleb128 0
.LLSDACSE561:
	.section	".text"
	.size	_ZN10FreeTypeGX8getWidthEPKws, .-_ZN10FreeTypeGX8getWidthEPKws
	.align 2
	.globl _ZN10FreeTypeGX8drawTextEsssPKws9_gx_colorttt
	.type	_ZN10FreeTypeGX8drawTextEsssPKws9_gx_colorttt, @function
_ZN10FreeTypeGX8drawTextEsssPKws9_gx_colorttt:
.LFB559:
	.loc 2 346 0
	.cfi_startproc
	.cfi_personality 0,__gxx_personality_v0
	.cfi_lsda 0,.LLSDA559
.LVL1497:
	stwu 1,-368(1)
.LCFI94:
	.cfi_def_cfa_offset 368
	mflr 0
	mfcr 12
	stw 16,288(1)
.LBB7858:
	.loc 2 347 0
	mr. 16,7
	.cfi_offset 16, -80
	.cfi_register 70, 12
	.cfi_register 65, 0
.LBE7858:
	.loc 2 346 0
	stw 0,372(1)
	stw 15,284(1)
	mr 15,10
	.cfi_offset 15, -84
	.cfi_offset 65, 4
	stw 17,292(1)
	mr 17,4
	.cfi_offset 17, -76
	stw 18,296(1)
	stw 19,300(1)
	mr 19,5
	.cfi_offset 19, -68
	.cfi_offset 18, -72
	stw 27,332(1)
	mr 27,6
	.cfi_offset 27, -36
	stw 28,336(1)
	mr 28,3
	.cfi_offset 28, -32
	stw 30,344(1)
	mr 30,8
	.cfi_offset 30, -24
	stfd 30,352(1)
	stfd 31,360(1)
	stw 14,280(1)
	stw 20,304(1)
	stw 21,308(1)
	stw 22,312(1)
	stw 23,316(1)
	stw 24,320(1)
	stw 25,324(1)
	stw 26,328(1)
	stw 29,340(1)
	stw 31,348(1)
	stw 12,276(1)
	.loc 2 346 0
	lhz 0,378(1)
	lwz 26,0(9)
	.cfi_offset 70, -92
	.cfi_offset 31, -20
	.cfi_offset 29, -28
	.cfi_offset 26, -40
	.cfi_offset 25, -44
	.cfi_offset 24, -48
	.cfi_offset 23, -52
	.cfi_offset 22, -56
	.cfi_offset 21, -60
	.cfi_offset 20, -64
	.cfi_offset 14, -88
	.cfi_offset 63, -8
	.cfi_offset 62, -16
	lhz 18,382(1)
.LBB8087:
	.loc 2 347 0
	beq- 0,.L1374
	.loc 2 349 0
	cmpwi 7,0,0
	stw 0,260(1)
	beq- 7,.L1389
.LVL1498:
.L1324:
	.loc 2 355 0 discriminator 3
	andi. 0,15,15
	.loc 2 350 0 discriminator 3
	rlwinm 3,17,0,0xffff
	stw 3,256(1)
.LVL1499:
	.loc 2 351 0 discriminator 3
	li 20,0
	.loc 2 355 0 discriminator 3
	bne- 0,.L1390
.L1325:
.LVL1500:
	.loc 2 359 0
	andi. 9,15,4080
	.loc 2 351 0
	li 21,0
	.loc 2 359 0
	bne- 0,.L1391
.LVL1501:
.L1328:
	.loc 2 366 0
	lwz 4,0(16)
	cmpwi 7,4,0
	beq- 7,.L1380
	cmpwi 4,18,0
	.loc 2 350 0
	lwz 29,256(1)
	.loc 2 366 0
	mr 24,16
	li 22,0
	.loc 2 364 0
	li 25,0
	.loc 2 350 0
	li 23,0
	mr 14,15
.LVL1502:
.L1366:
.LBB7859:
	.loc 2 368 0
	beq- 4,.L1330
	.loc 2 368 0 is_stmt 0 discriminator 1
	subf 0,17,29
	cmpw 7,0,18
	bgt- 7,.L1388
.L1330:
	.loc 2 370 0 is_stmt 1
	mr 3,28
	mr 5,30
.LEHB41:
	bl _ZN10FreeTypeGX14cacheGlyphDataEws
.LEHE41:
.LVL1503:
	.loc 2 372 0
	mr. 31,3
	beq- 0,.L1331
	.loc 2 374 0
	lbz 0,10(28)
	cmpwi 7,0,0
	beq- 7,.L1332
	.loc 2 374 0 is_stmt 0 discriminator 1
	cmpwi 7,25,0
	beq- 7,.L1332
.LBB7860:
.LBB7861:
.LBB7862:
.LBB7863:
	.loc 2 608 0 is_stmt 1
	lwz 11,20(28)
	.loc 1 828 0
	addi 10,28,16
.LBE7863:
.LBE7862:
.LBE7861:
.LBE7860:
	.loc 2 376 0
	lwz 15,4(28)
.LVL1504:
.LBB7955:
.LBB7952:
.LBB7869:
.LBB7868:
.LBB7864:
.LBB7865:
	.loc 1 1089 0
	mr 9,10
	cmpwi 7,11,0
	bne+ 7,.L1336
	b .L1333
.LVL1505:
.L1393:
.LBE7865:
	.loc 2 608 0
	mr 9,11
	.loc 1 1091 0
	lwz 11,8(11)
.LVL1506:
.LBB7866:
	.loc 1 1089 0
	cmpwi 7,11,0
	beq- 7,.L1392
.LVL1507:
.L1336:
	.loc 1 1090 0
	lha 0,16(11)
	cmpw 7,0,30
	bge- 7,.L1393
.LVL1508:
.LBE7866:
	.loc 2 608 0
	lwz 11,12(11)
.LVL1509:
.LBB7867:
	.loc 1 1089 0
	cmpwi 7,11,0
	bne+ 7,.L1336
.L1392:
.LVL1510:
.LBE7867:
.LBE7864:
.LBE7868:
.LBE7869:
	.loc 5 452 0
	cmpw 7,9,10
	beq- 7,.L1333
.LVL1511:
	lha 0,16(9)
	cmpw 7,0,30
	ble- 7,.L1347
.LVL1512:
.L1333:
.LBB7870:
.LBB7871:
.LBB7872:
.LBB7873:
	.loc 1 445 0
	li 0,0
.LBB7874:
.LBB7875:
	.loc 1 459 0
	addi 10,1,56
.LBE7875:
.LBE7874:
.LBE7873:
.LBE7872:
.LBE7871:
.LBE7870:
.LBB7887:
.LBB7888:
.LBB7889:
.LBB7890:
.LBB7891:
.LBB7892:
.LBB7893:
.LBB7894:
	addi 11,1,112
.LVL1513:
.LBE7894:
.LBE7893:
.LBE7892:
.LBE7891:
.LBE7890:
.LBE7889:
.LBE7888:
.LBE7887:
.LBB7902:
.LBB7903:
	.loc 5 571 0
	mr 4,1
.LBE7903:
.LBE7902:
.LBB7908:
.LBB7884:
.LBB7881:
.LBB7878:
	.loc 1 445 0
	stw 0,56(1)
.LBE7878:
.LBE7881:
.LBE7884:
.LBE7908:
.LBB7909:
.LBB7904:
	.loc 5 571 0
	addi 3,28,12
.LVL1514:
.LBE7904:
.LBE7909:
.LBB7910:
.LBB7885:
.LBB7882:
.LBB7879:
	.loc 1 445 0
	stw 0,60(1)
.LBE7879:
.LBE7882:
.LBE7885:
.LBE7910:
.LBB7911:
.LBB7905:
	.loc 5 571 0
	addi 5,1,104
.LBE7905:
.LBE7911:
.LBB7912:
.LBB7886:
.LBB7883:
.LBB7880:
	.loc 1 445 0
	stw 0,72(1)
.LVL1515:
.LBB7877:
.LBB7876:
	.loc 1 459 0
	stw 10,64(1)
	.loc 1 460 0
	stw 10,68(1)
.LVL1516:
.LBE7876:
.LBE7877:
.LBE7880:
.LBE7883:
.LBE7886:
.LBE7912:
.LBB7913:
.LBB7901:
	.loc 6 104 0
	sth 30,104(1)
.LVL1517:
.LBB7900:
.LBB7899:
.LBB7898:
.LBB7897:
	.loc 1 450 0
	stw 0,112(1)
	stw 0,116(1)
	stw 0,128(1)
.LVL1518:
.LBB7896:
.LBB7895:
	.loc 1 459 0
	stw 11,120(1)
	.loc 1 460 0
	stw 11,124(1)
.LVL1519:
.LBE7895:
.LBE7896:
.LBE7897:
.LBE7898:
.LBE7899:
.LBE7900:
.LBE7901:
.LBE7913:
.LBB7914:
.LBB7906:
	.loc 5 571 0
	stwu 9,168(4)
.LEHB42:
	bl _ZNSt8_Rb_treeIsSt4pairIKsSt3mapIw13ftgxCharData_St4lessIwESaIS0_IKwS3_EEEESt10_Select1stISA_ES4_IsESaISA_EE17_M_insert_unique_ESt23_Rb_tree_const_iteratorISA_ERKSA_.constprop.111
.LEHE42:
.LVL1520:
.LBE7906:
.LBE7914:
.LBB7915:
.LBB7916:
.LBB7917:
.LBB7918:
.LBB7919:
.LBB7920:
.LBB7921:
	.loc 1 639 0
	lwz 4,116(1)
.LBE7921:
.LBE7920:
.LBE7919:
.LBE7918:
.LBE7917:
.LBE7916:
.LBE7915:
.LBB7928:
.LBB7907:
	.loc 5 571 0
	mr 9,3
.LVL1521:
.LBE7907:
.LBE7928:
.LBB7929:
.LBB7927:
.LBB7926:
.LBB7925:
.LBB7924:
.LBB7923:
.LBB7922:
	.loc 1 639 0
	addi 3,1,108
.LVL1522:
	stw 9,264(1)
	bl _ZNSt8_Rb_treeIwSt4pairIKw13ftgxCharData_ESt10_Select1stIS3_ESt4lessIwESaIS3_EE8_M_eraseEPSt13_Rb_tree_nodeIS3_E
.LVL1523:
.LBE7922:
.LBE7923:
.LBE7924:
.LBE7925:
.LBE7926:
.LBE7927:
.LBE7929:
.LBB7930:
.LBB7931:
.LBB7932:
.LBB7933:
.LBB7934:
	addi 3,1,52
	lwz 4,8(3)
	bl _ZNSt8_Rb_treeIwSt4pairIKw13ftgxCharData_ESt10_Select1stIS3_ESt4lessIwESaIS3_EE8_M_eraseEPSt13_Rb_tree_nodeIS3_E
	lwz 9,264(1)
.LVL1524:
.L1347:
.LBE7934:
.LBE7933:
.LBE7932:
.LBE7931:
.LBE7930:
.LBE7952:
.LBE7955:
.LBB7956:
.LBB7957:
.LBB7958:
.LBB7959:
	.loc 2 608 0
	lwz 11,28(9)
.LBE7959:
.LBE7958:
.LBE7957:
.LBE7956:
	.loc 2 376 0
	addi 22,22,-1
	slwi 22,22,2
.LVL1525:
.LBB7985:
.LBB7982:
.LBB7971:
.LBB7968:
	.loc 1 828 0
	addi 8,9,24
.LVL1526:
.LBB7960:
.LBB7961:
	.loc 1 1089 0
	cmpwi 7,11,0
	beq- 7,.L1394
.LBE7961:
.LBE7960:
.LBE7968:
.LBE7971:
.LBE7982:
.LBE7985:
.LBB7986:
.LBB7953:
.LBB7935:
.LBB7936:
.LBB7937:
.LBB7938:
.LBB7939:
	.loc 1 639 0
	lwzx 10,16,22
.LBE7939:
.LBE7938:
.LBE7937:
.LBE7936:
.LBE7935:
.LBE7953:
.LBE7986:
.LBB7987:
.LBB7983:
.LBB7972:
.LBB7969:
.LBB7966:
.LBB7962:
	.loc 1 828 0
	mr 3,8
	b .L1364
.LVL1527:
.L1396:
.LBE7962:
	.loc 2 608 0
	mr 3,11
	.loc 1 1091 0
	lwz 11,8(11)
.LVL1528:
.LBB7963:
	.loc 1 1089 0
	cmpwi 7,11,0
	beq- 7,.L1395
.LVL1529:
.L1364:
	.loc 1 1090 0
	lwz 0,16(11)
	cmpw 7,10,0
	ble- 7,.L1396
.LVL1530:
.LBE7963:
	.loc 2 608 0
	lwz 11,12(11)
.LVL1531:
.LBB7964:
	.loc 1 1089 0
	cmpwi 7,11,0
	bne+ 7,.L1364
.L1395:
.LVL1532:
.LBE7964:
.LBE7966:
.LBE7969:
.LBE7972:
	.loc 5 452 0
	cmpw 7,3,8
	beq- 7,.L1349
.LVL1533:
	lwz 0,16(3)
	cmpw 7,10,0
	bge- 7,.L1365
.LVL1534:
.L1349:
	.loc 5 453 0
	li 0,0
.LBB7973:
.LBB7974:
	.loc 5 571 0
	mr 4,1
.LBE7974:
.LBE7973:
	.loc 5 453 0
	stw 0,28(1)
.LBB7977:
.LBB7975:
	.loc 5 571 0
	addi 5,1,76
.LBE7975:
.LBE7977:
	.loc 5 453 0
	stw 0,32(1)
	stw 0,36(1)
	stw 0,40(1)
	stw 0,44(1)
	stw 0,48(1)
.LVL1535:
.LBB7978:
.LBB7979:
	.loc 6 104 0
	stw 10,76(1)
	stw 0,80(1)
	stw 0,84(1)
	stw 0,88(1)
	stw 0,92(1)
	stw 0,96(1)
	stw 0,100(1)
.LVL1536:
.LBE7979:
.LBE7978:
.LBB7980:
.LBB7976:
	.loc 5 571 0
	stwu 3,172(4)
	addi 3,9,20
.LVL1537:
.LEHB43:
	bl _ZNSt8_Rb_treeIwSt4pairIKw13ftgxCharData_ESt10_Select1stIS3_ESt4lessIwESaIS3_EE17_M_insert_unique_ESt23_Rb_tree_const_iteratorIS3_ERKS3_.constprop.117
.LVL1538:
.L1365:
.LBE7976:
.LBE7980:
.LBE7983:
.LBE7987:
	.loc 2 376 0
	lwz 4,24(3)
	li 6,0
	lwz 5,4(31)
	mr 3,15
.LVL1539:
	addi 7,1,8
	bl FT_Get_Kerning
	.loc 2 377 0
	lwz 0,8(1)
	srawi 0,0,6
	add 29,29,0
	rlwinm 29,29,0,0xffff
.LVL1540:
.L1332:
	.loc 2 380 0
	lhz 6,10(31)
	li 7,0
	lhz 5,8(31)
	li 8,0
	lwz 4,20(31)
	li 10,0
	li 9,0
	addi 3,1,132
	bl GX_InitTexObj
	.loc 2 381 0
	lhz 0,8(31)
	lis 22,0x4330
	lis 9,.LC4@ha
	stw 0,180(1)
.LBB7988:
.LBB7989:
	.loc 2 548 0
	addi 3,1,132
.LBE7989:
.LBE7988:
	.loc 2 381 0
	stw 22,176(1)
.LBB8035:
.LBB8028:
	.loc 2 548 0
	li 4,0
.LBE8028:
.LBE8035:
	.loc 2 381 0
	lfs 0,.LC4@l(9)
	.loc 2 384 0
	addi 23,23,1
	.loc 2 381 0
	lhz 0,10(31)
	.loc 2 384 0
	rlwinm 23,23,0,0xffff
	.loc 2 381 0
	stw 22,184(1)
	stw 0,188(1)
	lfd 30,176(1)
	lhz 0,12(31)
	lfd 31,184(1)
	fsub 30,30,0
	subf 0,0,19
	lhz 15,0(31)
	fsub 0,31,0
	add 0,21,0
	extsh 0,0
.LVL1541:
	add 15,20,15
.LBB8036:
.LBB8029:
	.loc 2 548 0
	stw 0,264(1)
.LBE8029:
.LBE8036:
	.loc 2 381 0
	add 15,29,15
	frsp 31,0
.LBB8037:
.LBB8030:
	.loc 2 548 0
	bl GX_LoadTexObj
.LVL1542:
	.loc 2 549 0
	bl GX_InvalidateTexAll
	.loc 2 551 0
	li 3,9
	li 4,1
.LBE8030:
.LBE8037:
	.loc 2 381 0
	extsh 15,15
.LBB8038:
.LBB8031:
	.loc 2 551 0
	bl GX_SetVtxDesc
	.loc 2 552 0
	li 3,13
	li 4,1
.LBE8031:
.LBE8038:
	.loc 2 381 0
	frsp 30,30
.LVL1543:
.LBB8039:
.LBB8032:
	.loc 2 552 0
	bl GX_SetVtxDesc
	.loc 2 553 0
	li 3,11
	li 4,1
	bl GX_SetVtxDesc
	.loc 2 555 0
	lbz 4,11(28)
	li 3,128
	li 5,4
	bl GX_Begin
.LBB7990:
.LBB7991:
	.loc 4 2137 0
	lis 9,wgPipe@ha
	lwz 9,wgPipe@l(9)
.LBE7991:
.LBE7990:
.LBE8032:
.LBE8039:
	.loc 2 381 0
	srwi 5,26,24
.LVL1544:
	rlwinm 6,26,16,24,31
.LVL1545:
	rlwinm 7,26,24,24,31
.LVL1546:
.LBB8040:
.LBB8033:
.LBB7996:
.LBB7992:
	.loc 4 2137 0
	sth 15,0(9)
.LBE7992:
.LBE7996:
.LBE8033:
.LBE8040:
	.loc 2 381 0
	rlwinm 8,26,0,0xff
.LVL1547:
.LBB8041:
.LBB8034:
.LBB7997:
.LBB7998:
	.loc 4 2271 0
	li 10,0
.LBE7998:
.LBE7997:
	.loc 2 560 0
	xoris 11,15,0x8000
.LBB8000:
.LBB7993:
	.loc 4 2138 0
	lwz 0,264(1)
.LBE7993:
.LBE8000:
	.loc 2 560 0
	addi 4,1,248
.LBB8001:
.LBB7994:
	.loc 4 2138 0
	sth 0,0(9)
.LBE7994:
.LBE8001:
	.loc 2 564 0
	xoris 3,0,0x8000
.LBB8002:
.LBB7995:
	.loc 4 2139 0
	sth 27,0(9)
.LVL1548:
.LBE7995:
.LBE8002:
.LBB8003:
.LBB8004:
	.loc 4 2229 0
	stb 5,0(9)
	.loc 4 2230 0
	stb 6,0(9)
	.loc 4 2231 0
	stb 7,0(9)
	.loc 4 2232 0
	stb 8,0(9)
.LVL1549:
.LBE8004:
.LBE8003:
.LBB8005:
.LBB7999:
	.loc 4 2271 0
	stw 10,0(9)
	.loc 4 2272 0
	stw 10,0(9)
.LBE7999:
.LBE8005:
	.loc 2 560 0
	stw 11,196(1)
	lis 11,.LC1@ha
	stw 22,192(1)
	lfs 0,.LC1@l(11)
.LBB8006:
.LBB8007:
	.loc 4 2271 0
	lis 11,.LC2@ha
.LBE8007:
.LBE8006:
	.loc 2 560 0
	lfd 13,192(1)
.LBB8010:
.LBB8008:
	.loc 4 2271 0
	lwz 11,.LC2@l(11)
.LBE8008:
.LBE8010:
	.loc 2 560 0
	fsub 13,13,0
	frsp 13,13
	fadds 13,30,13
	fctiwz 13,13
	stfiwx 13,0,4
	lwz 4,248(1)
.LVL1550:
.LBB8011:
.LBB8012:
	.loc 4 2137 0
	sth 4,0(9)
	.loc 4 2138 0
	sth 0,0(9)
	.loc 4 2139 0
	sth 27,0(9)
.LVL1551:
.LBE8012:
.LBE8011:
.LBB8013:
.LBB8014:
	.loc 4 2229 0
	stb 5,0(9)
	.loc 4 2230 0
	stb 6,0(9)
	.loc 4 2231 0
	stb 7,0(9)
	.loc 4 2232 0
	stb 8,0(9)
.LVL1552:
.LBE8014:
.LBE8013:
.LBB8015:
.LBB8009:
	.loc 4 2271 0
	stw 11,0(9)
	.loc 4 2272 0
	stw 10,0(9)
.LBE8009:
.LBE8015:
	.loc 2 564 0
	stw 3,204(1)
	addi 3,1,252
	stw 22,200(1)
	lfd 13,200(1)
	fsub 0,13,0
	frsp 0,0
	fadds 0,31,0
	fctiwz 0,0
	stfiwx 0,0,3
	lwz 0,252(1)
.LVL1553:
.LBB8016:
.LBB8017:
	.loc 4 2137 0
	sth 4,0(9)
	.loc 4 2138 0
	sth 0,0(9)
	.loc 4 2139 0
	sth 27,0(9)
.LVL1554:
.LBE8017:
.LBE8016:
.LBB8018:
.LBB8019:
	.loc 4 2229 0
	stb 5,0(9)
	.loc 4 2230 0
	stb 6,0(9)
	.loc 4 2231 0
	stb 7,0(9)
	.loc 4 2232 0
	stb 8,0(9)
.LVL1555:
.LBE8019:
.LBE8018:
.LBB8020:
.LBB8021:
	.loc 4 2271 0
	stw 11,0(9)
	.loc 4 2272 0
	stw 11,0(9)
.LVL1556:
.LBE8021:
.LBE8020:
.LBB8022:
.LBB8023:
	.loc 4 2137 0
	sth 15,0(9)
	.loc 4 2138 0
	sth 0,0(9)
	.loc 4 2139 0
	sth 27,0(9)
.LVL1557:
.LBE8023:
.LBE8022:
.LBB8024:
.LBB8025:
	.loc 4 2229 0
	stb 5,0(9)
	.loc 4 2230 0
	stb 6,0(9)
	.loc 4 2231 0
	stb 7,0(9)
	.loc 4 2232 0
	stb 8,0(9)
.LVL1558:
.LBE8025:
.LBE8024:
.LBB8026:
.LBB8027:
	.loc 4 2271 0
	stw 10,0(9)
	.loc 4 2272 0
	stw 11,0(9)
.LBE8027:
.LBE8026:
.LBE8034:
.LBE8041:
	.loc 2 383 0
	lhz 0,2(31)
	add 29,29,0
.LVL1559:
	rlwinm 29,29,0,0xffff
.LVL1560:
.L1331:
.LBE7859:
	.loc 2 366 0
	lwzu 4,4(24)
.LBB8044:
	.loc 2 386 0
	addi 25,25,1
.LVL1561:
.LBE8044:
	.loc 2 366 0
	mr 22,25
	cmpwi 7,4,0
	bne+ 7,.L1366
.LVL1562:
.L1388:
	mr 15,14
.L1329:
	.loc 2 389 0
	andi. 4,15,61440
	bne- 0,.L1397
.LVL1563:
.L1323:
.LBE8087:
	.loc 2 397 0
	lwz 0,372(1)
	mr 3,23
	lwz 12,276(1)
	mtlr 0
	lwz 14,280(1)
	lwz 15,284(1)
	mtcrf 8,12
	lwz 16,288(1)
.LVL1564:
	lwz 17,292(1)
	lwz 18,296(1)
	lwz 19,300(1)
	lwz 20,304(1)
	lwz 21,308(1)
	lwz 22,312(1)
	lwz 23,316(1)
	lwz 24,320(1)
	lwz 25,324(1)
	lwz 26,328(1)
	lwz 27,332(1)
	lwz 28,336(1)
.LVL1565:
	lwz 29,340(1)
	lwz 30,344(1)
	lwz 31,348(1)
	lfd 30,352(1)
	lfd 31,360(1)
	addi 1,1,368
	.cfi_remember_state
.LCFI95:
	.cfi_def_cfa_offset 0
	.cfi_restore 70
	.cfi_restore 63
	.cfi_restore 62
	.cfi_restore 31
	.cfi_restore 30
	.cfi_restore 29
	.cfi_restore 28
	.cfi_restore 27
	.cfi_restore 26
	.cfi_restore 25
	.cfi_restore 24
	.cfi_restore 23
	.cfi_restore 22
	.cfi_restore 21
	.cfi_restore 20
	.cfi_restore 19
	.cfi_restore 18
	.cfi_restore 17
	.cfi_restore 16
	.cfi_restore 15
	.cfi_restore 14
	blr
.LVL1566:
.L1390:
.LCFI96:
	.cfi_restore_state
.LBB8088:
.LBB8045:
.LBB8046:
	.loc 2 282 0
	andi. 4,15,1
	bne- 0,.L1325
	.loc 2 284 0
	andi. 9,15,2
	bne- 0,.L1398
	.loc 2 286 0
	andi. 3,15,4
	beq- 0,.L1325
	lwz 4,260(1)
	neg 20,4
	rlwinm 20,20,0,0xffff
	b .L1325
.LVL1567:
.L1397:
.LBE8046:
.LBE8045:
	.loc 2 391 0
	mr 3,28
	mr 4,16
	mr 5,30
	mr 6,18
	bl _ZN10FreeTypeGX9getOffsetEPKwst
.LBB8048:
.LBB8049:
.LBB8050:
.LBB8051:
	.loc 2 608 0
	lwz 9,44(28)
.LBE8051:
.LBE8050:
.LBE8049:
.LBE8048:
	.loc 2 393 0
	lwz 0,256(1)
	add 25,21,19
.LBB8077:
.LBB8072:
.LBB8060:
.LBB8058:
.LBB8052:
.LBB8053:
	.loc 1 1089 0
	cmpwi 7,9,0
.LBE8053:
.LBE8052:
	.loc 1 828 0
	addi 11,28,40
.LBE8058:
.LBE8060:
.LBE8072:
.LBE8077:
	.loc 2 393 0
	add 29,20,0
	rlwinm 25,25,0,0xffff
.LVL1568:
	extsh 29,29
.LBB8078:
.LBB8073:
.LBB8061:
.LBB8059:
.LBB8057:
.LBB8054:
	.loc 1 1089 0
	mr 31,11
	bne+ 7,.L1370
	b .L1367
.LVL1569:
.L1400:
.LBE8054:
	.loc 2 608 0
	mr 31,9
	.loc 1 1091 0
	lwz 9,8(9)
.LVL1570:
.LBB8055:
	.loc 1 1089 0
	cmpwi 7,9,0
	beq- 7,.L1399
.LVL1571:
.L1370:
	.loc 1 1090 0
	lha 0,16(9)
	cmpw 7,0,30
	bge- 7,.L1400
.LVL1572:
.LBE8055:
	.loc 2 608 0
	lwz 9,12(9)
.LVL1573:
.LBB8056:
	.loc 1 1089 0
	cmpwi 7,9,0
	bne+ 7,.L1370
.L1399:
.LVL1574:
.LBE8056:
.LBE8057:
.LBE8059:
.LBE8061:
	.loc 5 452 0
	cmpw 7,31,11
	beq- 7,.L1367
.LVL1575:
	lha 0,16(31)
	cmpw 7,0,30
	bgt- 7,.L1367
.LVL1576:
.L1371:
.LBE8073:
.LBE8078:
.LBB8079:
.LBB8080:
	.loc 2 402 0
	srawi. 30,30,4
.LVL1577:
	ble- 0,.L1401
.L1372:
	.loc 2 404 0
	andi. 3,15,4096
	.loc 2 402 0
	rlwinm 30,30,0,0xffff
.LVL1578:
	.loc 2 404 0
	bne- 0,.L1402
.L1373:
	.loc 2 406 0
	andi. 9,15,8192
	beq+ 0,.L1323
	.loc 2 407 0
	lwz 3,260(1)
	lis 0,0x4330
	stw 0,232(1)
	lis 9,.LC4@ha
	stw 3,236(1)
	mr 4,29
	stw 30,244(1)
	mr 3,28
	stw 0,240(1)
	mr 6,27
	lfs 0,.LC4@l(9)
	addi 7,1,212
	lfd 1,232(1)
	lfd 2,240(1)
	stw 26,212(1)
	fsub 1,1,0
	fsub 2,2,0
	lha 5,22(31)
	frsp 1,1
	srawi 5,5,1
	frsp 2,2
	subf 5,5,25
	extsh 5,5
	bl _ZN10FreeTypeGX24copyFeatureToFramebufferEffsss9_gx_color
	b .L1323
.LVL1579:
.L1389:
.LBE8080:
.LBE8079:
	.loc 2 349 0 discriminator 1
	mr 4,16
.LVL1580:
	mr 5,8
.LVL1581:
	bl _ZN10FreeTypeGX8getWidthEPKws
.LVL1582:
	stw 3,260(1)
	b .L1324
.LVL1583:
.L1391:
	.loc 2 361 0
	mr 3,28
	extsh 4,15
	rlwinm 5,30,0,0xffff
	bl _ZN10FreeTypeGX20getStyleOffsetHeightEst
	rlwinm 21,3,0,0xffff
.LVL1584:
	b .L1328
.LVL1585:
.L1394:
.LBB8082:
.LBB8042:
.LBB7984:
.LBB7981:
.LBB7970:
.LBB7967:
.LBB7965:
	.loc 1 828 0
	mr 3,8
	lwzx 10,16,22
	b .L1349
.LVL1586:
.L1367:
.LBE7965:
.LBE7967:
.LBE7970:
.LBE7981:
.LBE7984:
.LBE8042:
.LBE8082:
.LBB8083:
	.loc 6 104 0
	li 0,0
.LBB8074:
.LBB8062:
.LBB8063:
	.loc 5 571 0
	mr 4,1
.LBE8063:
.LBE8062:
.LBB8067:
.LBB8068:
	.loc 6 104 0
	sth 30,16(1)
.LBE8068:
.LBE8067:
.LBB8069:
.LBB8064:
	.loc 5 571 0
	addi 3,28,36
.LBE8064:
.LBE8069:
.LBE8074:
	.loc 6 104 0
	sth 0,18(1)
.LBB8075:
.LBB8070:
.LBB8065:
	.loc 5 571 0
	addi 5,1,16
.LBE8065:
.LBE8070:
.LBE8075:
	.loc 6 104 0
	sth 0,20(1)
	sth 0,22(1)
	sth 0,24(1)
.LVL1587:
.LBB8076:
.LBB8071:
.LBB8066:
	.loc 5 571 0
	stwu 31,208(4)
	bl _ZNSt8_Rb_treeIsSt4pairIKs15ftgxDataOffset_ESt10_Select1stIS3_ESt4lessIsESaIS3_EE17_M_insert_unique_ESt23_Rb_tree_const_iteratorIS3_ERKS3_.constprop.114
.LVL1588:
	mr 31,3
.LVL1589:
	b .L1371
.LVL1590:
.L1398:
.LBE8066:
.LBE8071:
.LBE8076:
.LBE8083:
.LBB8084:
.LBB8047:
	.loc 2 285 0
	lwz 0,260(1)
	srawi 20,0,1
	neg 20,20
	.loc 2 284 0
	rlwinm 20,20,0,0xffff
	b .L1325
.LVL1591:
.L1374:
.LBE8047:
.LBE8084:
	.loc 2 347 0
	li 23,0
	b .L1323
.LVL1592:
.L1402:
.LBB8085:
.LBB8081:
	.loc 2 404 0
	lwz 4,260(1)
	lis 0,0x4330
	stw 0,216(1)
	lis 9,.LC4@ha
	stw 4,220(1)
	addi 5,25,1
	stw 30,228(1)
	mr 3,28
	stw 0,224(1)
	mr 4,29
	lfs 0,.LC4@l(9)
	extsh 5,5
	lfd 1,216(1)
	mr 6,27
	lfd 2,224(1)
	addi 7,1,212
	fsub 1,1,0
	stw 26,212(1)
	fsub 2,2,0
	frsp 1,1
	frsp 2,2
	bl _ZN10FreeTypeGX24copyFeatureToFramebufferEffsss9_gx_color
	b .L1373
.LVL1593:
.L1401:
	.loc 2 402 0
	li 30,1
	b .L1372
.LVL1594:
.L1380:
.LBE8081:
.LBE8085:
	.loc 2 350 0
	li 23,0
	b .L1329
.LVL1595:
.L1383:
.LBB8086:
.LBB8043:
.LBB7954:
.LBB7944:
.LBB7945:
.LBB7946:
.LBB7947:
.LBB7948:
.LBB7949:
.LBB7950:
	.loc 1 639 0
	lwz 4,116(1)
	mr 31,3
.LVL1596:
	addi 3,1,108
	bl _ZNSt8_Rb_treeIwSt4pairIKw13ftgxCharData_ESt10_Select1stIS3_ESt4lessIwESaIS3_EE8_M_eraseEPSt13_Rb_tree_nodeIS3_E
.LVL1597:
.LBE7950:
.LBE7949:
.LBE7948:
.LBE7947:
.LBE7946:
.LBE7945:
.LBE7944:
.LBB7951:
.LBB7943:
.LBB7942:
.LBB7941:
.LBB7940:
	addi 3,1,52
	lwz 4,8(3)
	bl _ZNSt8_Rb_treeIwSt4pairIKw13ftgxCharData_ESt10_Select1stIS3_ESt4lessIwESaIS3_EE8_M_eraseEPSt13_Rb_tree_nodeIS3_E
	mr 3,31
	bl _Unwind_Resume
.LEHE43:
.LBE7940:
.LBE7941:
.LBE7942:
.LBE7943:
.LBE7951:
.LBE7954:
.LBE8043:
.LBE8086:
.LBE8088:
	.cfi_endproc
.LFE559:
	.section	.gcc_except_table
.LLSDA559:
	.byte	0xff
	.byte	0xff
	.byte	0x1
	.uleb128 .LLSDACSE559-.LLSDACSB559
.LLSDACSB559:
	.uleb128 .LEHB41-.LFB559
	.uleb128 .LEHE41-.LEHB41
	.uleb128 0
	.uleb128 0
	.uleb128 .LEHB42-.LFB559
	.uleb128 .LEHE42-.LEHB42
	.uleb128 .L1383-.LFB559
	.uleb128 0
	.uleb128 .LEHB43-.LFB559
	.uleb128 .LEHE43-.LEHB43
	.uleb128 0
	.uleb128 0
.LLSDACSE559:
	.section	".text"
	.size	_ZN10FreeTypeGX8drawTextEsssPKws9_gx_colorttt, .-_ZN10FreeTypeGX8drawTextEsssPKws9_gx_colorttt
	.align 2
	.globl _ZN10FreeTypeGX22cacheGlyphDataCompleteEs
	.type	_ZN10FreeTypeGX22cacheGlyphDataCompleteEs, @function
_ZN10FreeTypeGX22cacheGlyphDataCompleteEs:
.LFB555:
	.loc 2 213 0
	.cfi_startproc
.LVL1598:
	mflr 0
	stwu 1,-40(1)
.LCFI97:
	.cfi_def_cfa_offset 40
	.cfi_register 65, 0
	stw 30,32(1)
	mr 30,3
	.cfi_offset 30, -8
	stw 0,44(1)
	stw 28,24(1)
	mr 28,4
	.cfi_offset 28, -16
	.cfi_offset 65, 4
.LBB8089:
	.loc 2 217 0
	lwz 3,4(3)
.LVL1599:
	addi 4,1,8
.LVL1600:
.LBE8089:
	.loc 2 213 0
	stw 31,36(1)
	stw 29,28(1)
.LBB8090:
	.loc 2 217 0
	.cfi_offset 29, -12
	.cfi_offset 31, -4
	bl FT_Get_First_Char
.LVL1601:
	.loc 2 218 0
	lwz 0,8(1)
	.loc 2 217 0
	mr 31,3
.LVL1602:
	.loc 2 218 0
	li 3,0
.LVL1603:
	cmpwi 7,0,0
	beq- 7,.L1404
	li 29,0
.LVL1604:
.L1406:
	.loc 2 220 0
	mr 4,31
	mr 5,28
	mr 3,30
	bl _ZN10FreeTypeGX14cacheGlyphDataEws
	.loc 2 221 0
	mr 4,31
	.loc 2 220 0
	cmpwi 7,3,0
	.loc 2 221 0
	addi 5,1,8
	.loc 2 220 0
	beq- 7,.L1405
.LVL1605:
	.loc 2 220 0 is_stmt 0 discriminator 1
	addi 29,29,1
.LVL1606:
.L1405:
	.loc 2 221 0 is_stmt 1
	lwz 3,4(30)
	bl FT_Get_Next_Char
.LVL1607:
	.loc 2 218 0
	lwz 0,8(1)
	.loc 2 221 0
	mr 31,3
.LVL1608:
	.loc 2 218 0
	cmpwi 7,0,0
	bne+ 7,.L1406
	rlwinm 3,29,0,0xffff
.LVL1609:
.L1404:
.LBE8090:
	.loc 2 224 0
	lwz 0,44(1)
	lwz 28,24(1)
	mtlr 0
	lwz 29,28(1)
	lwz 30,32(1)
.LVL1610:
	lwz 31,36(1)
.LVL1611:
	addi 1,1,40
.LCFI98:
	.cfi_def_cfa_offset 0
	.cfi_restore 31
	.cfi_restore 30
	.cfi_restore 29
	.cfi_restore 28
	blr
	.cfi_endproc
.LFE555:
	.size	_ZN10FreeTypeGX22cacheGlyphDataCompleteEs, .-_ZN10FreeTypeGX22cacheGlyphDataCompleteEs
	.section	.text.startup,"ax",@progbits
	.align 2
	.type	_GLOBAL__sub_I__Z14charToWideCharPKc, @function
_GLOBAL__sub_I__Z14charToWideCharPKc:
.LFB948:
	.loc 2 608 0
	.cfi_startproc
.LVL1612:
.LBB8091:
.LBB8092:
	.file 7 "d:/Projects/SaveGameManager/savegame-manager-gx/trunk/source/TextOperations/FreeTypeGX.h"
	.loc 7 92 0
	lis 11,.LANCHOR0@ha
	li 0,-1
	la 9,.LANCHOR0@l(11)
	stb 0,.LANCHOR0@l(11)
	stb 0,1(9)
	stb 0,2(9)
	stb 0,3(9)
.LBE8092:
.LBE8091:
	.loc 2 608 0
	blr
	.cfi_endproc
.LFE948:
	.size	_GLOBAL__sub_I__Z14charToWideCharPKc, .-_GLOBAL__sub_I__Z14charToWideCharPKc
	.section	.ctors,"aw",@progbits
	.align 2
	.long	_GLOBAL__sub_I__Z14charToWideCharPKc
	.globl _ZN10FreeTypeGXC1EPKhlb
	.set	_ZN10FreeTypeGXC1EPKhlb,_ZN10FreeTypeGXC2EPKhlb
	.globl _ZN10FreeTypeGXD1Ev
	.set	_ZN10FreeTypeGXD1Ev,_ZN10FreeTypeGXD2Ev
	.section	.rodata.cst4,"aM",@progbits,4
	.align 2
.LC1:
	.4byte	1501560836
.LC2:
	.4byte	1065353216
.LC4:
	.4byte	1501560832
	.section	".bss"
	.set	.LANCHOR0,. + 0
	.type	_ZL9ftgxWhite, @object
	.size	_ZL9ftgxWhite, 4
_ZL9ftgxWhite:
	.zero	4
	.section	".text"
.Letext0:
	.file 8 "d:\\devkitpro\\devkitppc\\bin\\../lib/gcc/powerpc-eabi/4.6.3/../../../../powerpc-eabi/include/stdint.h"
	.file 9 "d:/devkitPro/libogc/include/gctypes.h"
	.file 10 "d:/devkitPro/libogc/include/freetype/ftsystem.h"
	.file 11 "d:/devkitPro/libogc/include/freetype/ftimage.h"
	.file 12 "d:/devkitPro/libogc/include/freetype/fttypes.h"
	.file 13 "d:/devkitPro/libogc/include/freetype/freetype.h"
	.file 14 "d:\\devkitpro\\devkitppc\\bin\\../lib/gcc/powerpc-eabi/4.6.3/../../../../powerpc-eabi/include/c++/4.6.3/powerpc-eabi/bits/c++config.h"
	.file 15 "d:\\devkitpro\\devkitppc\\bin\\../lib/gcc/powerpc-eabi/4.6.3/../../../../powerpc-eabi/include/c++/4.6.3/bits/move.h"
	.file 16 "d:\\devkitpro\\devkitppc\\bin\\../lib/gcc/powerpc-eabi/4.6.3/../../../../powerpc-eabi/include/c++/4.6.3/bits/cpp_type_traits.h"
	.file 17 "d:\\devkitpro\\devkitppc\\bin\\../lib/gcc/powerpc-eabi/4.6.3/../../../../powerpc-eabi/include/c++/4.6.3/debug/debug.h"
	.file 18 "d:\\devkitpro\\devkitppc\\bin\\../lib/gcc/powerpc-eabi/4.6.3/../../../../powerpc-eabi/include/c++/4.6.3/bits/allocator.h"
	.file 19 "d:\\devkitpro\\devkitppc\\bin\\../lib/gcc/powerpc-eabi/4.6.3/../../../../powerpc-eabi/include/c++/4.6.3/bits/stl_function.h"
	.file 20 "d:\\devkitpro\\devkitppc\\bin\\../lib/gcc/powerpc-eabi/4.6.3/../../../../powerpc-eabi/include/c++/4.6.3/new"
	.file 21 "<built-in>"