   1              		.file	"FreeTypeGX.cpp"
   2              		.section	".text"
   3              	.Ltext0:
   4              		.align 2
   5              		.type	_ZNSt8_Rb_treeIsSt4pairIKs15ftgxDataOffset_ESt10_Select1stIS3_ESt4lessIsESaIS3_EE16_M_insert
   6              	_ZNSt8_Rb_treeIsSt4pairIKs15ftgxDataOffset_ESt10_Select1stIS3_ESt4lessIsESaIS3_EE16_M_insert_unique
   7              	.LFB1060:
   8              		.file 1 "d:\\devkitpro\\devkitppc\\bin\\../lib/gcc/powerpc-eabi/4.6.3/../../../../powerpc-eabi/inc
   9              		.loc 1 1264 0
  10              		.cfi_startproc
  11              	.LVL0:
  12 0000 7C0802A6 		mflr 0
  13 0004 9421FFE0 		stwu 1,-32(1)
  14              	.LCFI0:
  15              		.cfi_def_cfa_offset 32
  16              		.cfi_register 65, 0
  17 0008 93C10018 		stw 30,24(1)
  18 000c 90010024 		stw 0,36(1)
  19 0010 9361000C 		stw 27,12(1)
  20 0014 7C9B2378 		mr 27,4
  21              		.cfi_offset 27, -20
  22              		.cfi_offset 65, 4
  23              		.cfi_offset 30, -8
  24              	.LBB1953:
  25              	.LBB1954:
  26              	.LBB1955:
  27              		.file 2 "d:/Projects/SaveGameManager/savegame-manager-gx/trunk/source/TextOperations/FreeTypeGX.cp
  28              		.loc 2 608 0
  29 0018 83C30008 		lwz 30,8(3)
  30              	.LVL1:
  31              	.LBE1955:
  32              	.LBE1954:
  33              	.LBE1953:
  34              		.loc 1 1264 0
  35 001c 93810010 		stw 28,16(1)
  36              	.LBB1992:
  37              	.LBB1972:
  38              	.LBB1968:
  39              		.loc 1 1272 0
  40 0020 3B830004 		addi 28,3,4
  41              		.cfi_offset 28, -16
  42              	.LVL2:
  43              	.LBE1968:
  44              	.LBE1972:
  45              		.loc 1 1274 0
  46 0024 2F9E0000 		cmpwi 7,30,0
  47              	.LBE1992:
  48              		.loc 1 1264 0
  49 0028 93E1001C 		stw 31,28(1)
  50 002c 93410008 		stw 26,8(1)
  51 0030 7C7F1B78 		mr 31,3
  52              		.cfi_offset 26, -24
  53              		.cfi_offset 31, -4
  54 0034 93A10014 		stw 29,20(1)
  55              	.LBB1993:
  56              		.loc 1 1274 0
  57 0038 419E0084 		beq- 7,.L16
  58              		.cfi_offset 29, -12
  59              	.LVL3:
  60 003c A9640000 		lha 11,0(4)
  61 0040 48000014 		b .L5
  62              	.LVL4:
  63              	.L23:
  64              		.loc 2 608 0
  65 0044 801E0008 		lwz 0,8(30)
  66              	.LVL5:
  67              		.loc 1 1274 0
  68 0048 2F000000 		cmpwi 6,0,0
  69 004c 419A0028 		beq- 6,.L22
  70              	.LVL6:
  71              	.L17:
  72 0050 7C1E0378 		mr 30,0
  73              	.LVL7:
  74              	.L5:
  75              		.loc 2 608 0
  76 0054 A81E0010 		lha 0,16(30)
  77 0058 39200001 		li 9,1
  78              		.loc 1 1278 0
  79 005c 7F805800 		cmpw 7,0,11
  80 0060 41BDFFE4 		bgt- 7,.L23
  81              		.loc 2 608 0
  82 0064 801E000C 		lwz 0,12(30)
  83 0068 39200000 		li 9,0
  84              	.LVL8:
  85              		.loc 1 1274 0
  86 006c 2F000000 		cmpwi 6,0,0
  87 0070 409AFFE0 		bne+ 6,.L17
  88              	.LVL9:
  89              	.L22:
  90              		.loc 1 1281 0
  91 0074 2F090000 		cmpwi 6,9,0
  92 0078 7FDDF378 		mr 29,30
  93 007c 409A0044 		bne- 6,.L2
  94              	.LVL10:
  95              		.loc 1 1289 0
  96 0080 419C006C 		blt- 7,.L24
  97              	.LVL11:
  98              	.L12:
  99              	.LBB1973:
 100              	.LBB1969:
 101              		.loc 1 1292 0
 102 0084 38800000 		li 4,0
 103 0088 38000000 		li 0,0
 104 008c 7FC3F378 		mr 3,30
 105 0090 5004C00E 		rlwimi 4,0,24,0,7
 106              	.LVL12:
 107              	.L11:
 108              	.LBE1969:
 109              	.LBE1973:
 110              	.LBE1993:
 111              		.loc 1 1293 0
 112 0094 80010024 		lwz 0,36(1)
 113 0098 83410008 		lwz 26,8(1)
 114 009c 7C0803A6 		mtlr 0
 115 00a0 8361000C 		lwz 27,12(1)
 116              	.LVL13:
 117 00a4 83810010 		lwz 28,16(1)
 118 00a8 83A10014 		lwz 29,20(1)
 119 00ac 83C10018 		lwz 30,24(1)
 120 00b0 83E1001C 		lwz 31,28(1)
 121              	.LVL14:
 122 00b4 38210020 		addi 1,1,32
 123              		.cfi_remember_state
 124              	.LCFI1:
 125              		.cfi_def_cfa_offset 0
 126              		.cfi_restore 31
 127              		.cfi_restore 30
 128              		.cfi_restore 29
 129              		.cfi_restore 28
 130              		.cfi_restore 27
 131              		.cfi_restore 26
 132 00b8 4E800020 		blr
 133              	.LVL15:
 134              	.L16:
 135              	.LCFI2:
 136              		.cfi_restore_state
 137              	.LBB1994:
 138              		.loc 1 1272 0
 139 00bc 7F9EE378 		mr 30,28
 140              	.LVL16:
 141              	.L2:
 142              		.loc 2 608 0
 143 00c0 801F000C 		lwz 0,12(31)
 144              	.LVL17:
 145              		.loc 1 1283 0
 146 00c4 7F80F000 		cmpw 7,0,30
 147 00c8 419E00C4 		beq- 7,.L25
 148              	.LVL18:
 149              	.LBB1974:
 150              	.LBB1975:
 151              		.loc 1 203 0
 152 00cc 7FC3F378 		mr 3,30
 153              	.LVL19:
 154 00d0 7FDDF378 		mr 29,30
 155 00d4 48000001 		bl _ZSt18_Rb_tree_decrementPSt18_Rb_tree_node_base
 156              	.LVL20:
 157 00d8 A97B0000 		lha 11,0(27)
 158 00dc A8030010 		lha 0,16(3)
 159 00e0 7C7E1B78 		mr 30,3
 160              	.LVL21:
 161 00e4 7F805800 		cmpw 7,0,11
 162              	.LBE1975:
 163              	.LBE1974:
 164              		.loc 1 1289 0
 165 00e8 409CFF9C 		bge+ 7,.L12
 166              	.LVL22:
 167              	.L24:
 168              	.LBB1976:
 169              	.LBB1970:
 170              		.loc 1 969 0
 171 00ec 7F9CE800 		cmpw 7,28,29
 172 00f0 3B400001 		li 26,1
 173 00f4 419E0014 		beq- 7,.L13
 174              	.LVL23:
 175              		.loc 1 1264 0
 176 00f8 A81D0010 		lha 0,16(29)
 177 00fc 7F805800 		cmpw 7,0,11
 178 0100 7F400026 		mfcr 26
 179 0104 575AF7FE 		rlwinm 26,26,30,1
 180              	.LVL24:
 181              	.L13:
 182              	.LBB1956:
 183              	.LBB1957:
 184              	.LBB1958:
 185              	.LBB1959:
 186              	.LBB1960:
 187              		.file 3 "d:\\devkitpro\\devkitppc\\bin\\../lib/gcc/powerpc-eabi/4.6.3/../../../../powerpc-eabi/inc
 188              		.loc 3 92 0
 189 0108 3860001C 		li 3,28
 190 010c 48000001 		bl _Znwj
 191              	.LBE1960:
 192              	.LBE1959:
 193              	.LBE1958:
 194              	.LBB1963:
 195              	.LBB1964:
 196              		.loc 3 108 0
 197 0110 2F83FFF0 		cmpwi 7,3,-16
 198              	.LBE1964:
 199              	.LBE1963:
 200              	.LBB1966:
 201              	.LBB1962:
 202              	.LBB1961:
 203              		.loc 3 92 0
 204 0114 7C7E1B78 		mr 30,3
 205              	.LVL25:
 206              	.LBE1961:
 207              	.LBE1962:
 208              	.LBE1966:
 209              	.LBB1967:
 210              	.LBB1965:
 211              		.loc 3 108 0
 212 0118 419E001C 		beq- 7,.L15
 213 011c 817B0000 		lwz 11,0(27)
 214 0120 813B0004 		lwz 9,4(27)
 215 0124 A01B0008 		lhz 0,8(27)
 216 0128 91630010 		stw 11,16(3)
 217 012c 91230014 		stw 9,20(3)
 218 0130 B0030018 		sth 0,24(3)
 219              	.L15:
 220              	.LVL26:
 221              	.LBE1965:
 222              	.LBE1967:
 223              	.LBE1957:
 224              	.LBE1956:
 225              		.loc 1 973 0
 226 0134 7F43D378 		mr 3,26
 227              	.LVL27:
 228 0138 7FC4F378 		mr 4,30
 229 013c 7FA5EB78 		mr 5,29
 230 0140 7F86E378 		mr 6,28
 231 0144 48000001 		bl _ZSt29_Rb_tree_insert_and_rebalancebPSt18_Rb_tree_node_baseS0_RS_
 232              		.loc 1 976 0
 233 0148 813F0014 		lwz 9,20(31)
 234              		.loc 1 1291 0
 235 014c 38800000 		li 4,0
 236 0150 7FC3F378 		mr 3,30
 237              		.loc 1 976 0
 238 0154 38090001 		addi 0,9,1
 239              	.LBE1970:
 240              	.LBE1976:
 241              	.LBE1994:
 242              		.loc 1 1293 0
 243 0158 83410008 		lwz 26,8(1)
 244              	.LVL28:
 245              	.LBB1995:
 246              	.LBB1977:
 247              	.LBB1971:
 248              		.loc 1 976 0
 249 015c 901F0014 		stw 0,20(31)
 250              	.LVL29:
 251              		.loc 1 1291 0
 252 0160 38000001 		li 0,1
 253 0164 5004C00E 		rlwimi 4,0,24,0,7
 254              	.LBE1971:
 255              	.LBE1977:
 256              	.LBE1995:
 257              		.loc 1 1293 0
 258 0168 80010024 		lwz 0,36(1)
 259 016c 8361000C 		lwz 27,12(1)
 260              	.LVL30:
 261 0170 7C0803A6 		mtlr 0
 262 0174 83810010 		lwz 28,16(1)
 263 0178 83A10014 		lwz 29,20(1)
 264              	.LVL31:
 265 017c 83C10018 		lwz 30,24(1)
 266              	.LVL32:
 267 0180 83E1001C 		lwz 31,28(1)
 268              	.LVL33:
 269 0184 38210020 		addi 1,1,32
 270              		.cfi_remember_state
 271              		.cfi_restore 26
 272              		.cfi_restore 27
 273              		.cfi_restore 28
 274              		.cfi_restore 29
 275              		.cfi_restore 30
 276              		.cfi_restore 31
 277              	.LCFI3:
 278              		.cfi_def_cfa_offset 0
 279 0188 4E800020 		blr
 280              	.LVL34:
 281              	.L25:
 282              	.LCFI4:
 283              		.cfi_restore_state
 284              	.LBB1996:
 285              	.LBB1978:
 286              	.LBB1979:
 287              		.loc 1 969 0
 288 018c 7F9CF000 		cmpw 7,28,30
 289 0190 3B400001 		li 26,1
 290 0194 419E0018 		beq- 7,.L8
 291              	.LVL35:
 292              		.loc 1 1264 0
 293 0198 A93B0000 		lha 9,0(27)
 294 019c A81E0010 		lha 0,16(30)
 295              	.LVL36:
 296 01a0 7F890000 		cmpw 7,9,0
 297 01a4 7F400026 		mfcr 26
 298 01a8 575AEFFE 		rlwinm 26,26,29,1
 299              	.LVL37:
 300              	.L8:
 301              	.LBB1980:
 302              	.LBB1981:
 303              	.LBB1982:
 304              	.LBB1983:
 305              	.LBB1984:
 306              		.loc 3 92 0
 307 01ac 3860001C 		li 3,28
 308              	.LVL38:
 309 01b0 48000001 		bl _Znwj
 310              	.LVL39:
 311              	.LBE1984:
 312              	.LBE1983:
 313              	.LBE1982:
 314              	.LBB1987:
 315              	.LBB1988:
 316              		.loc 3 108 0
 317 01b4 2F83FFF0 		cmpwi 7,3,-16
 318              	.LBE1988:
 319              	.LBE1987:
 320              	.LBB1990:
 321              	.LBB1986:
 322              	.LBB1985:
 323              		.loc 3 92 0
 324 01b8 7C7D1B78 		mr 29,3
 325              	.LVL40:
 326              	.LBE1985:
 327              	.LBE1986:
 328              	.LBE1990:
 329              	.LBB1991:
 330              	.LBB1989:
 331              		.loc 3 108 0
 332 01bc 419E001C 		beq- 7,.L10
 333 01c0 817B0000 		lwz 11,0(27)
 334 01c4 813B0004 		lwz 9,4(27)
 335 01c8 A01B0008 		lhz 0,8(27)
 336 01cc 91630010 		stw 11,16(3)
 337 01d0 91230014 		stw 9,20(3)
 338 01d4 B0030018 		sth 0,24(3)
 339              	.L10:
 340              	.LVL41:
 341              	.LBE1989:
 342              	.LBE1991:
 343              	.LBE1981:
 344              	.LBE1980:
 345              		.loc 1 973 0
 346 01d8 7F43D378 		mr 3,26
 347              	.LVL42:
 348 01dc 7FA4EB78 		mr 4,29
 349 01e0 7FC5F378 		mr 5,30
 350 01e4 7F86E378 		mr 6,28
 351 01e8 48000001 		bl _ZSt29_Rb_tree_insert_and_rebalancebPSt18_Rb_tree_node_baseS0_RS_
 352              		.loc 1 976 0
 353 01ec 813F0014 		lwz 9,20(31)
 354              		.loc 1 1285 0
 355 01f0 38800000 		li 4,0
 356 01f4 7FA3EB78 		mr 3,29
 357              		.loc 1 976 0
 358 01f8 38090001 		addi 0,9,1
 359 01fc 901F0014 		stw 0,20(31)
 360              	.LVL43:
 361              		.loc 1 1285 0
 362 0200 38000001 		li 0,1
 363 0204 5004C00E 		rlwimi 4,0,24,0,7
 364 0208 4BFFFE8C 		b .L11
 365              	.LBE1979:
 366              	.LBE1978:
 367              	.LBE1996:
 368              		.cfi_endproc
 369              	.LFE1060:
 370              		.size	_ZNSt8_Rb_treeIsSt4pairIKs15ftgxDataOffset_ESt10_Select1stIS3_ESt4lessIsESaIS3_EE16_M_insert
 371              		.align 2
 372              		.type	_ZNSt8_Rb_treeIwSt4pairIKw13ftgxCharData_ESt10_Select1stIS3_ESt4lessIwESaIS3_EE16_M_insert_u
 373              	_ZNSt8_Rb_treeIwSt4pairIKw13ftgxCharData_ESt10_Select1stIS3_ESt4lessIwESaIS3_EE16_M_insert_uniqueER
 374              	.LFB1057:
 375              		.loc 1 1264 0
 376              		.cfi_startproc
 377              	.LVL44:
 378 020c 7C0802A6 		mflr 0
 379 0210 9421FFE0 		stwu 1,-32(1)
 380              	.LCFI5:
 381              		.cfi_def_cfa_offset 32
 382              		.cfi_register 65, 0
 383 0214 93C10018 		stw 30,24(1)
 384 0218 90010024 		stw 0,36(1)
 385 021c 9361000C 		stw 27,12(1)
 386 0220 7C9B2378 		mr 27,4
 387              		.cfi_offset 27, -20
 388              		.cfi_offset 65, 4
 389              		.cfi_offset 30, -8
 390              	.LBB2038:
 391              	.LBB2039:
 392              	.LBB2040:
 393              		.loc 2 608 0
 394 0224 83C30008 		lwz 30,8(3)
 395              	.LVL45:
 396              	.LBE2040:
 397              	.LBE2039:
 398              	.LBE2038:
 399              		.loc 1 1264 0
 400 0228 93810010 		stw 28,16(1)
 401              	.LBB2077:
 402              	.LBB2057:
 403              	.LBB2053:
 404              		.loc 1 1272 0
 405 022c 3B830004 		addi 28,3,4
 406              		.cfi_offset 28, -16
 407              	.LVL46:
 408              	.LBE2053:
 409              	.LBE2057:
 410              		.loc 1 1274 0
 411 0230 2F9E0000 		cmpwi 7,30,0
 412              	.LBE2077:
 413              		.loc 1 1264 0
 414 0234 93E1001C 		stw 31,28(1)
 415 0238 93410008 		stw 26,8(1)
 416 023c 7C7F1B78 		mr 31,3
 417              		.cfi_offset 26, -24
 418              		.cfi_offset 31, -4
 419 0240 93A10014 		stw 29,20(1)
 420              	.LBB2078:
 421              		.loc 1 1274 0
 422 0244 419E0084 		beq- 7,.L41
 423              		.cfi_offset 29, -12
 424              	.LVL47:
 425 0248 81640000 		lwz 11,0(4)
 426 024c 48000014 		b .L30
 427              	.LVL48:
 428              	.L47:
 429              		.loc 2 608 0
 430 0250 801E0008 		lwz 0,8(30)
 431              	.LVL49:
 432              		.loc 1 1274 0
 433 0254 2F000000 		cmpwi 6,0,0
 434 0258 419A0028 		beq- 6,.L46
 435              	.LVL50:
 436              	.L42:
 437 025c 7C1E0378 		mr 30,0
 438              	.LVL51:
 439              	.L30:
 440              		.loc 2 608 0
 441 0260 801E0010 		lwz 0,16(30)
 442 0264 39200001 		li 9,1
 443              		.loc 1 1278 0
 444 0268 7F805800 		cmpw 7,0,11
 445 026c 41BDFFE4 		bgt- 7,.L47
 446              	.LVL52:
 447              		.loc 2 608 0
 448 0270 801E000C 		lwz 0,12(30)
 449 0274 39200000 		li 9,0
 450              	.LVL53:
 451              		.loc 1 1274 0
 452 0278 2F000000 		cmpwi 6,0,0
 453 027c 409AFFE0 		bne+ 6,.L42
 454              	.LVL54:
 455              	.L46:
 456              		.loc 1 1281 0
 457 0280 2F090000 		cmpwi 6,9,0
 458 0284 7FDDF378 		mr 29,30
 459 0288 409A0044 		bne- 6,.L27
 460              	.LVL55:
 461              		.loc 1 1289 0
 462 028c 419C006C 		blt- 7,.L48
 463              	.LVL56:
 464              	.L37:
 465              	.LBB2058:
 466              	.LBB2054:
 467              		.loc 1 1292 0
 468 0290 38800000 		li 4,0
 469 0294 38000000 		li 0,0
 470 0298 7FC3F378 		mr 3,30
 471 029c 5004C00E 		rlwimi 4,0,24,0,7
 472              	.LVL57:
 473              	.L36:
 474              	.LBE2054:
 475              	.LBE2058:
 476              	.LBE2078:
 477              		.loc 1 1293 0
 478 02a0 80010024 		lwz 0,36(1)
 479 02a4 83410008 		lwz 26,8(1)
 480 02a8 7C0803A6 		mtlr 0
 481 02ac 8361000C 		lwz 27,12(1)
 482              	.LVL58:
 483 02b0 83810010 		lwz 28,16(1)
 484 02b4 83A10014 		lwz 29,20(1)
 485 02b8 83C10018 		lwz 30,24(1)
 486 02bc 83E1001C 		lwz 31,28(1)
 487              	.LVL59:
 488 02c0 38210020 		addi 1,1,32
 489              		.cfi_remember_state
 490              	.LCFI6:
 491              		.cfi_def_cfa_offset 0
 492              		.cfi_restore 31
 493              		.cfi_restore 30
 494              		.cfi_restore 29
 495              		.cfi_restore 28
 496              		.cfi_restore 27
 497              		.cfi_restore 26
 498 02c4 4E800020 		blr
 499              	.LVL60:
 500              	.L41:
 501              	.LCFI7:
 502              		.cfi_restore_state
 503              	.LBB2079:
 504              		.loc 1 1272 0
 505 02c8 7F9EE378 		mr 30,28
 506              	.LVL61:
 507              	.L27:
 508              		.loc 2 608 0
 509 02cc 801F000C 		lwz 0,12(31)
 510              	.LVL62:
 511              		.loc 1 1283 0
 512 02d0 7F80F000 		cmpw 7,0,30
 513 02d4 419E00E4 		beq- 7,.L49
 514              	.LVL63:
 515              	.LBB2059:
 516              	.LBB2060:
 517              		.loc 1 203 0
 518 02d8 7FC3F378 		mr 3,30
 519              	.LVL64:
 520 02dc 7FDDF378 		mr 29,30
 521 02e0 48000001 		bl _ZSt18_Rb_tree_decrementPSt18_Rb_tree_node_base
 522              	.LVL65:
 523 02e4 817B0000 		lwz 11,0(27)
 524 02e8 80030010 		lwz 0,16(3)
 525 02ec 7C7E1B78 		mr 30,3
 526              	.LVL66:
 527 02f0 7F805800 		cmpw 7,0,11
 528              	.LBE2060:
 529              	.LBE2059:
 530              		.loc 1 1289 0
 531 02f4 409CFF9C 		bge+ 7,.L37
 532              	.LVL67:
 533              	.L48:
 534              	.LBB2061:
 535              	.LBB2055:
 536              		.loc 1 969 0
 537 02f8 7F9CE800 		cmpw 7,28,29
 538 02fc 3B400001 		li 26,1
 539 0300 419E0014 		beq- 7,.L38
 540              	.LVL68:
 541              		.loc 1 1264 0
 542 0304 801D0010 		lwz 0,16(29)
 543 0308 7F805800 		cmpw 7,0,11
 544 030c 7F400026 		mfcr 26
 545 0310 575AF7FE 		rlwinm 26,26,30,1
 546              	.LVL69:
 547              	.L38:
 548              	.LBB2041:
 549              	.LBB2042:
 550              	.LBB2043:
 551              	.LBB2044:
 552              	.LBB2045:
 553              		.loc 3 92 0
 554 0314 3860002C 		li 3,44
 555 0318 48000001 		bl _Znwj
 556              	.LBE2045:
 557              	.LBE2044:
 558              	.LBE2043:
 559              	.LBB2048:
 560              	.LBB2049:
 561              		.loc 3 108 0
 562 031c 2F83FFF0 		cmpwi 7,3,-16
 563              	.LBE2049:
 564              	.LBE2048:
 565              	.LBB2051:
 566              	.LBB2047:
 567              	.LBB2046:
 568              		.loc 3 92 0
 569 0320 7C7E1B78 		mr 30,3
 570              	.LVL70:
 571              	.LBE2046:
 572              	.LBE2047:
 573              	.LBE2051:
 574              	.LBB2052:
 575              	.LBB2050:
 576              		.loc 3 108 0
 577 0324 419E003C 		beq- 7,.L40
 578 0328 817B0004 		lwz 11,4(27)
 579 032c 813B0008 		lwz 9,8(27)
 580 0330 801B000C 		lwz 0,12(27)
 581 0334 815B0000 		lwz 10,0(27)
 582 0338 91630014 		stw 11,20(3)
 583 033c 91430010 		stw 10,16(3)
 584 0340 91230018 		stw 9,24(3)
 585 0344 9003001C 		stw 0,28(3)
 586 0348 817B0010 		lwz 11,16(27)
 587 034c 813B0014 		lwz 9,20(27)
 588 0350 801B0018 		lwz 0,24(27)
 589 0354 91630020 		stw 11,32(3)
 590 0358 91230024 		stw 9,36(3)
 591 035c 90030028 		stw 0,40(3)
 592              	.L40:
 593              	.LBE2050:
 594              	.LBE2052:
 595              	.LBE2042:
 596              	.LBE2041:
 597              		.loc 1 973 0
 598 0360 7F43D378 		mr 3,26
 599              	.LVL71:
 600 0364 7FC4F378 		mr 4,30
 601 0368 7FA5EB78 		mr 5,29
 602 036c 7F86E378 		mr 6,28
 603 0370 48000001 		bl _ZSt29_Rb_tree_insert_and_rebalancebPSt18_Rb_tree_node_baseS0_RS_
 604              		.loc 1 976 0
 605 0374 813F0014 		lwz 9,20(31)
 606              		.loc 1 1291 0
 607 0378 38800000 		li 4,0
 608 037c 7FC3F378 		mr 3,30
 609              		.loc 1 976 0
 610 0380 38090001 		addi 0,9,1
 611              	.LBE2055:
 612              	.LBE2061:
 613              	.LBE2079:
 614              		.loc 1 1293 0
 615 0384 83410008 		lwz 26,8(1)
 616              	.LVL72:
 617              	.LBB2080:
 618              	.LBB2062:
 619              	.LBB2056:
 620              		.loc 1 976 0
 621 0388 901F0014 		stw 0,20(31)
 622              	.LVL73:
 623              		.loc 1 1291 0
 624 038c 38000001 		li 0,1
 625 0390 5004C00E 		rlwimi 4,0,24,0,7
 626              	.LBE2056:
 627              	.LBE2062:
 628              	.LBE2080:
 629              		.loc 1 1293 0
 630 0394 80010024 		lwz 0,36(1)
 631 0398 8361000C 		lwz 27,12(1)
 632              	.LVL74:
 633 039c 7C0803A6 		mtlr 0
 634 03a0 83810010 		lwz 28,16(1)
 635 03a4 83A10014 		lwz 29,20(1)
 636              	.LVL75:
 637 03a8 83C10018 		lwz 30,24(1)
 638              	.LVL76:
 639 03ac 83E1001C 		lwz 31,28(1)
 640              	.LVL77:
 641 03b0 38210020 		addi 1,1,32
 642              		.cfi_remember_state
 643              		.cfi_restore 26
 644              		.cfi_restore 27
 645              		.cfi_restore 28
 646              		.cfi_restore 29
 647              		.cfi_restore 30
 648              		.cfi_restore 31
 649              	.LCFI8:
 650              		.cfi_def_cfa_offset 0
 651 03b4 4E800020 		blr
 652              	.LVL78:
 653              	.L49:
 654              	.LCFI9:
 655              		.cfi_restore_state
 656              	.LBB2081:
 657              	.LBB2063:
 658              	.LBB2064:
 659              		.loc 1 969 0
 660 03b8 7F9CF000 		cmpw 7,28,30
 661 03bc 3B400001 		li 26,1
 662 03c0 419E0018 		beq- 7,.L33
 663              	.LVL79:
 664              		.loc 1 1264 0
 665 03c4 813B0000 		lwz 9,0(27)
 666 03c8 801E0010 		lwz 0,16(30)
 667              	.LVL80:
 668 03cc 7F890000 		cmpw 7,9,0
 669 03d0 7F400026 		mfcr 26
 670 03d4 575AEFFE 		rlwinm 26,26,29,1
 671              	.LVL81:
 672              	.L33:
 673              	.LBB2065:
 674              	.LBB2066:
 675              	.LBB2067:
 676              	.LBB2068:
 677              	.LBB2069:
 678              		.loc 3 92 0
 679 03d8 3860002C 		li 3,44
 680              	.LVL82:
 681 03dc 48000001 		bl _Znwj
 682              	.LVL83:
 683              	.LBE2069:
 684              	.LBE2068:
 685              	.LBE2067:
 686              	.LBB2072:
 687              	.LBB2073:
 688              		.loc 3 108 0
 689 03e0 2F83FFF0 		cmpwi 7,3,-16
 690              	.LBE2073:
 691              	.LBE2072:
 692              	.LBB2075:
 693              	.LBB2071:
 694              	.LBB2070:
 695              		.loc 3 92 0
 696 03e4 7C7D1B78 		mr 29,3
 697              	.LVL84:
 698              	.LBE2070:
 699              	.LBE2071:
 700              	.LBE2075:
 701              	.LBB2076:
 702              	.LBB2074:
 703              		.loc 3 108 0
 704 03e8 419E003C 		beq- 7,.L35
 705 03ec 817B0004 		lwz 11,4(27)
 706 03f0 813B0008 		lwz 9,8(27)
 707 03f4 801B000C 		lwz 0,12(27)
 708 03f8 815B0000 		lwz 10,0(27)
 709 03fc 91630014 		stw 11,20(3)
 710 0400 91430010 		stw 10,16(3)
 711 0404 91230018 		stw 9,24(3)
 712 0408 9003001C 		stw 0,28(3)
 713 040c 817B0010 		lwz 11,16(27)
 714 0410 813B0014 		lwz 9,20(27)
 715 0414 801B0018 		lwz 0,24(27)
 716 0418 91630020 		stw 11,32(3)
 717 041c 91230024 		stw 9,36(3)
 718 0420 90030028 		stw 0,40(3)
 719              	.L35:
 720              	.LBE2074:
 721              	.LBE2076:
 722              	.LBE2066:
 723              	.LBE2065:
 724              		.loc 1 973 0
 725 0424 7F43D378 		mr 3,26
 726              	.LVL85:
 727 0428 7FA4EB78 		mr 4,29
 728 042c 7FC5F378 		mr 5,30
 729 0430 7F86E378 		mr 6,28
 730 0434 48000001 		bl _ZSt29_Rb_tree_insert_and_rebalancebPSt18_Rb_tree_node_baseS0_RS_
 731              		.loc 1 976 0
 732 0438 813F0014 		lwz 9,20(31)
 733              		.loc 1 1285 0
 734 043c 38800000 		li 4,0
 735 0440 7FA3EB78 		mr 3,29
 736              		.loc 1 976 0
 737 0444 38090001 		addi 0,9,1
 738 0448 901F0014 		stw 0,20(31)
 739              	.LVL86:
 740              		.loc 1 1285 0
 741 044c 38000001 		li 0,1
 742 0450 5004C00E 		rlwimi 4,0,24,0,7
 743 0454 4BFFFE4C 		b .L36
 744              	.LBE2064:
 745              	.LBE2063:
 746              	.LBE2081:
 747              		.cfi_endproc
 748              	.LFE1057:
 749              		.size	_ZNSt8_Rb_treeIwSt4pairIKw13ftgxCharData_ESt10_Select1stIS3_ESt4lessIwESaIS3_EE16_M_insert_u
 750              		.align 2
 751              		.type	_ZNSt8_Rb_treeIwSt4pairIKw13ftgxCharData_ESt10_Select1stIS3_ESt4lessIwESaIS3_EE17_M_insert_u
 752              	_ZNSt8_Rb_treeIwSt4pairIKw13ftgxCharData_ESt10_Select1stIS3_ESt4lessIwESaIS3_EE17_M_insert_unique_E
 753              	.LFB1059:
 754              		.loc 1 1325 0
 755              		.cfi_startproc
 756              	.LVL87:
 757 0458 7C0802A6 		mflr 0
 758 045c 9421FFD8 		stwu 1,-40(1)
 759              	.LCFI10:
 760              		.cfi_def_cfa_offset 40
 761              		.cfi_register 65, 0
 762 0460 9321000C 		stw 25,12(1)
 763 0464 9001002C 		stw 0,44(1)
 764 0468 93A1001C 		stw 29,28(1)
 765              		.loc 1 1333 0
 766 046c 3BA30004 		addi 29,3,4
 767              		.cfi_offset 29, -12
 768              		.cfi_offset 65, 4
 769              		.cfi_offset 25, -28
 770              		.loc 1 1325 0
 771 0470 83240000 		lwz 25,0(4)
 772              	.LVL88:
 773 0474 93010008 		stw 24,8(1)
 774 0478 7CB82B78 		mr 24,5
 775              		.cfi_offset 24, -32
 776              	.LBB2197:
 777              		.loc 1 1333 0
 778 047c 7F99E800 		cmpw 7,25,29
 779              	.LBE2197:
 780              		.loc 1 1325 0
 781 0480 93E10024 		stw 31,36(1)
 782 0484 93410010 		stw 26,16(1)
 783 0488 7C7F1B78 		mr 31,3
 784              		.cfi_offset 26, -24
 785              		.cfi_offset 31, -4
 786 048c 93610014 		stw 27,20(1)
 787 0490 93810018 		stw 28,24(1)
 788 0494 93C10020 		stw 30,32(1)
 789              	.LBB2343:
 790              		.loc 1 1333 0
 791 0498 419E0174 		beq- 7,.L78
 792              		.cfi_offset 30, -8
 793              		.cfi_offset 28, -16
 794              		.cfi_offset 27, -20
 795              	.LVL89:
 796              	.LBB2198:
 797              	.LBB2199:
 798              		.loc 2 608 0
 799 049c 83C50000 		lwz 30,0(5)
 800 04a0 80190010 		lwz 0,16(25)
 801              	.LBE2199:
 802              	.LBE2198:
 803              	.LBB2216:
 804              		.loc 1 1342 0
 805 04a4 7F9E0000 		cmpw 7,30,0
 806 04a8 409C00D4 		bge- 7,.L56
 807              	.LVL90:
 808              	.LBB2217:
 809              		.loc 1 1347 0
 810 04ac 8003000C 		lwz 0,12(3)
 811 04b0 7F990000 		cmpw 7,25,0
 812 04b4 419E032C 		beq- 7,.L79
 813              	.LBB2218:
 814              	.LBB2219:
 815              		.loc 1 284 0
 816 04b8 7F23CB78 		mr 3,25
 817              	.LVL91:
 818 04bc 48000001 		bl _ZSt18_Rb_tree_decrementPKSt18_Rb_tree_node_base
 819              	.LVL92:
 820              	.LBE2219:
 821              	.LBE2218:
 822              		.loc 1 1350 0
 823 04c0 80030010 		lwz 0,16(3)
 824              	.LBB2221:
 825              	.LBB2220:
 826              		.loc 1 284 0
 827 04c4 7C7C1B78 		mr 28,3
 828              	.LVL93:
 829              	.LBE2220:
 830              	.LBE2221:
 831              		.loc 1 1350 0
 832 04c8 7F9E0000 		cmpw 7,30,0
 833 04cc 409D0160 		ble- 7,.L52
 834              		.loc 1 1353 0
 835 04d0 8003000C 		lwz 0,12(3)
 836              	.LBB2222:
 837              	.LBB2223:
 838              	.LBB2224:
 839              	.LBB2225:
 840              	.LBB2226:
 841              	.LBB2227:
 842              	.LBB2228:
 843              		.loc 3 92 0
 844 04d4 3860002C 		li 3,44
 845              	.LVL94:
 846              	.LBE2228:
 847              	.LBE2227:
 848              	.LBE2226:
 849              	.LBE2225:
 850              	.LBE2224:
 851              	.LBE2223:
 852              	.LBE2222:
 853              		.loc 1 1353 0
 854 04d8 2F800000 		cmpwi 7,0,0
 855 04dc 419E023C 		beq- 7,.L80
 856              	.LVL95:
 857              	.LBB2245:
 858              	.LBB2246:
 859              	.LBB2247:
 860              	.LBB2248:
 861              	.LBB2249:
 862              	.LBB2250:
 863              	.LBB2251:
 864              		.loc 3 92 0
 865 04e0 48000001 		bl _Znwj
 866              	.LBE2251:
 867              	.LBE2250:
 868              	.LBE2249:
 869              	.LBB2254:
 870              	.LBB2255:
 871              		.loc 3 108 0
 872 04e4 2F83FFF0 		cmpwi 7,3,-16
 873              	.LBE2255:
 874              	.LBE2254:
 875              	.LBB2257:
 876              	.LBB2253:
 877              	.LBB2252:
 878              		.loc 3 92 0
 879 04e8 7C7E1B78 		mr 30,3
 880              	.LVL96:
 881              	.LBE2252:
 882              	.LBE2253:
 883              	.LBE2257:
 884              	.LBB2258:
 885              	.LBB2256:
 886              		.loc 3 108 0
 887 04ec 419E003C 		beq- 7,.L65
 888 04f0 81780004 		lwz 11,4(24)
 889 04f4 81380008 		lwz 9,8(24)
 890 04f8 8018000C 		lwz 0,12(24)
 891 04fc 81580000 		lwz 10,0(24)
 892 0500 91630014 		stw 11,20(3)
 893 0504 91430010 		stw 10,16(3)
 894 0508 91230018 		stw 9,24(3)
 895 050c 9003001C 		stw 0,28(3)
 896 0510 81780010 		lwz 11,16(24)
 897 0514 81380014 		lwz 9,20(24)
 898 0518 80180018 		lwz 0,24(24)
 899 051c 91630020 		stw 11,32(3)
 900 0520 91230024 		stw 9,36(3)
 901 0524 90030028 		stw 0,40(3)
 902              	.L65:
 903              	.LBE2256:
 904              	.LBE2258:
 905              	.LBE2248:
 906              	.LBE2247:
 907              		.loc 1 973 0
 908 0528 38600001 		li 3,1
 909              	.LVL97:
 910 052c 7FC4F378 		mr 4,30
 911 0530 7F25CB78 		mr 5,25
 912              	.LVL98:
 913              	.L76:
 914 0534 7FA6EB78 		mr 6,29
 915 0538 48000001 		bl _ZSt29_Rb_tree_insert_and_rebalancebPSt18_Rb_tree_node_baseS0_RS_
 916              		.loc 1 976 0
 917 053c 813F0014 		lwz 9,20(31)
 918 0540 7FC3F378 		mr 3,30
 919 0544 38090001 		addi 0,9,1
 920 0548 901F0014 		stw 0,20(31)
 921              	.LVL99:
 922              	.L55:
 923              	.LBE2246:
 924              	.LBE2245:
 925              	.LBE2217:
 926              	.LBE2216:
 927              	.LBE2343:
 928              		.loc 1 1388 0
 929 054c 8001002C 		lwz 0,44(1)
 930 0550 83010008 		lwz 24,8(1)
 931              	.LVL100:
 932 0554 7C0803A6 		mtlr 0
 933 0558 8321000C 		lwz 25,12(1)
 934              	.LVL101:
 935 055c 83410010 		lwz 26,16(1)
 936 0560 83610014 		lwz 27,20(1)
 937 0564 83810018 		lwz 28,24(1)
 938 0568 83A1001C 		lwz 29,28(1)
 939 056c 83C10020 		lwz 30,32(1)
 940 0570 83E10024 		lwz 31,36(1)
 941              	.LVL102:
 942 0574 38210028 		addi 1,1,40
 943              		.cfi_remember_state
 944              	.LCFI11:
 945              		.cfi_def_cfa_offset 0
 946              		.cfi_restore 31
 947              		.cfi_restore 30
 948              		.cfi_restore 29
 949              		.cfi_restore 28
 950              		.cfi_restore 27
 951              		.cfi_restore 26
 952              		.cfi_restore 25
 953              		.cfi_restore 24
 954 0578 4E800020 		blr
 955              	.LVL103:
 956              	.L56:
 957              	.LCFI12:
 958              		.cfi_restore_state
 959              	.LBB2344:
 960              	.LBB2338:
 961              	.LBB2275:
 962              		.loc 1 1364 0
 963 057c 409D00EC 		ble- 7,.L66
 964              	.LVL104:
 965              	.LBB2276:
 966              		.loc 1 1369 0
 967 0580 80030010 		lwz 0,16(3)
 968 0584 7F990000 		cmpw 7,25,0
 969 0588 419E02CC 		beq- 7,.L81
 970              	.LVL105:
 971              	.LBB2277:
 972              	.LBB2278:
 973              		.loc 1 269 0
 974 058c 7F23CB78 		mr 3,25
 975              	.LVL106:
 976 0590 48000001 		bl _ZSt18_Rb_tree_incrementPKSt18_Rb_tree_node_base
 977              	.LVL107:
 978              	.LBE2278:
 979              	.LBE2277:
 980              		.loc 1 1372 0
 981 0594 80030010 		lwz 0,16(3)
 982              	.LBB2280:
 983              	.LBB2279:
 984              		.loc 1 269 0
 985 0598 7C7C1B78 		mr 28,3
 986              	.LVL108:
 987              	.LBE2279:
 988              	.LBE2280:
 989              		.loc 1 1372 0
 990 059c 7F9E0000 		cmpw 7,30,0
 991 05a0 409C008C 		bge- 7,.L52
 992              		.loc 1 1375 0
 993 05a4 8019000C 		lwz 0,12(25)
 994              	.LBB2281:
 995              	.LBB2282:
 996              	.LBB2283:
 997              	.LBB2284:
 998              	.LBB2285:
 999              	.LBB2286:
 1000              	.LBB2287:
 1001              		.loc 3 92 0
 1002 05a8 3860002C 		li 3,44
 1003              	.LVL109:
 1004              	.LBE2287:
 1005              	.LBE2286:
 1006              	.LBE2285:
 1007              	.LBE2284:
 1008              	.LBE2283:
 1009              	.LBE2282:
 1010              	.LBE2281:
 1011              		.loc 1 1375 0
 1012 05ac 2F800000 		cmpwi 7,0,0
 1013 05b0 419E01C0 		beq- 7,.L82
 1014              	.LVL110:
 1015              	.LBB2301:
 1016              	.LBB2302:
 1017              	.LBB2303:
 1018              	.LBB2304:
 1019              	.LBB2305:
 1020              	.LBB2306:
 1021              	.LBB2307:
 1022              		.loc 3 92 0
 1023 05b4 48000001 		bl _Znwj
 1024              	.LBE2307:
 1025              	.LBE2306:
 1026              	.LBE2305:
 1027              	.LBB2310:
 1028              	.LBB2311:
 1029              		.loc 3 108 0
 1030 05b8 2F83FFF0 		cmpwi 7,3,-16
 1031              	.LBE2311:
 1032              	.LBE2310:
 1033              	.LBB2313:
 1034              	.LBB2309:
 1035              	.LBB2308:
 1036              		.loc 3 92 0
 1037 05bc 7C7E1B78 		mr 30,3
 1038              	.LVL111:
 1039              	.LBE2308:
 1040              	.LBE2309:
 1041              	.LBE2313:
 1042              	.LBB2314:
 1043              	.LBB2312:
 1044              		.loc 3 108 0
 1045 05c0 419E003C 		beq- 7,.L75
 1046 05c4 81780004 		lwz 11,4(24)
 1047 05c8 81380008 		lwz 9,8(24)
 1048 05cc 8018000C 		lwz 0,12(24)
 1049 05d0 81580000 		lwz 10,0(24)
 1050 05d4 91630014 		stw 11,20(3)
 1051 05d8 91430010 		stw 10,16(3)
 1052 05dc 91230018 		stw 9,24(3)
 1053 05e0 9003001C 		stw 0,28(3)
 1054 05e4 81780010 		lwz 11,16(24)
 1055 05e8 81380014 		lwz 9,20(24)
 1056 05ec 80180018 		lwz 0,24(24)
 1057 05f0 91630020 		stw 11,32(3)
 1058 05f4 91230024 		stw 9,36(3)
 1059 05f8 90030028 		stw 0,40(3)
 1060              	.L75:
 1061              	.LBE2312:
 1062              	.LBE2314:
 1063              	.LBE2304:
 1064              	.LBE2303:
 1065              		.loc 1 973 0
 1066 05fc 38600001 		li 3,1
 1067              	.LVL112:
 1068              	.L77:
 1069 0600 7FC4F378 		mr 4,30
 1070 0604 7F85E378 		mr 5,28
 1071 0608 4BFFFF2C 		b .L76
 1072              	.LVL113:
 1073              	.L78:
 1074              	.LBE2302:
 1075              	.LBE2301:
 1076              	.LBE2276:
 1077              	.LBE2275:
 1078              	.LBE2338:
 1079              		.loc 1 1335 0
 1080 060c 80030014 		lwz 0,20(3)
 1081 0610 2F800000 		cmpwi 7,0,0
 1082 0614 419E0018 		beq- 7,.L52
 1083              	.LVL114:
 1084 0618 83C30010 		lwz 30,16(3)
 1085              	.LVL115:
 1086 061c 80050000 		lwz 0,0(5)
 1087 0620 813E0010 		lwz 9,16(30)
 1088 0624 7F890000 		cmpw 7,9,0
 1089 0628 419C0074 		blt- 7,.L83
 1090              	.LVL116:
 1091              	.L52:
 1092              		.loc 1 1340 0
 1093 062c 7FE3FB78 		mr 3,31
 1094 0630 7F04C378 		mr 4,24
 1095 0634 4BFFFBD9 		bl _ZNSt8_Rb_treeIwSt4pairIKw13ftgxCharData_ESt10_Select1stIS3_ESt4lessIwESaIS3_EE16_M_insert_uniq
 1096              	.LBE2344:
 1097              		.loc 1 1388 0
 1098 0638 8001002C 		lwz 0,44(1)
 1099 063c 83010008 		lwz 24,8(1)
 1100              	.LVL117:
 1101 0640 7C0803A6 		mtlr 0
 1102 0644 8321000C 		lwz 25,12(1)
 1103              	.LVL118:
 1104 0648 83410010 		lwz 26,16(1)
 1105 064c 83610014 		lwz 27,20(1)
 1106 0650 83810018 		lwz 28,24(1)
 1107 0654 83A1001C 		lwz 29,28(1)
 1108 0658 83C10020 		lwz 30,32(1)
 1109 065c 83E10024 		lwz 31,36(1)
 1110              	.LVL119:
 1111 0660 38210028 		addi 1,1,40
 1112              		.cfi_remember_state
 1113              		.cfi_restore 24
 1114              		.cfi_restore 25
 1115              		.cfi_restore 26
 1116              		.cfi_restore 27
 1117              		.cfi_restore 28
 1118              		.cfi_restore 29
 1119              		.cfi_restore 30
 1120              		.cfi_restore 31
 1121              	.LCFI13:
 1122              		.cfi_def_cfa_offset 0
 1123 0664 4E800020 		blr
 1124              	.LVL120:
 1125              	.L66:
 1126              	.LCFI14:
 1127              		.cfi_restore_state
 1128 0668 8001002C 		lwz 0,44(1)
 1129              	.LBB2345:
 1130              	.LBB2339:
 1131              	.LBB2333:
 1132              	.LBB2330:
 1133              		.loc 1 1383 0
 1134 066c 7F23CB78 		mr 3,25
 1135              	.LVL121:
 1136              	.LBE2330:
 1137              	.LBE2333:
 1138              	.LBE2339:
 1139              	.LBE2345:
 1140              		.loc 1 1388 0
 1141 0670 83010008 		lwz 24,8(1)
 1142 0674 7C0803A6 		mtlr 0
 1143 0678 8321000C 		lwz 25,12(1)
 1144              	.LVL122:
 1145 067c 83410010 		lwz 26,16(1)
 1146 0680 83610014 		lwz 27,20(1)
 1147 0684 83810018 		lwz 28,24(1)
 1148 0688 83A1001C 		lwz 29,28(1)
 1149 068c 83C10020 		lwz 30,32(1)
 1150 0690 83E10024 		lwz 31,36(1)
 1151              	.LVL123:
 1152 0694 38210028 		addi 1,1,40
 1153              		.cfi_remember_state
 1154              		.cfi_restore 24
 1155              		.cfi_restore 25
 1156              		.cfi_restore 26
 1157              		.cfi_restore 27
 1158              		.cfi_restore 28
 1159              		.cfi_restore 29
 1160              		.cfi_restore 30
 1161              		.cfi_restore 31
 1162              	.LCFI15:
 1163              		.cfi_def_cfa_offset 0
 1164 0698 4E800020 		blr
 1165              	.LVL124:
 1166              	.L83:
 1167              	.LCFI16:
 1168              		.cfi_restore_state
 1169              	.LBB2346:
 1170              	.LBB2340:
 1171              	.LBB2214:
 1172              	.LBB2200:
 1173              	.LBB2201:
 1174              	.LBB2202:
 1175              	.LBB2203:
 1176              	.LBB2204:
 1177              		.loc 3 92 0
 1178 069c 3860002C 		li 3,44
 1179              	.LVL125:
 1180 06a0 48000001 		bl _Znwj
 1181              	.LVL126:
 1182              	.LBE2204:
 1183              	.LBE2203:
 1184              	.LBE2202:
 1185              	.LBB2207:
 1186              	.LBB2208:
 1187              		.loc 3 108 0
 1188 06a4 2F83FFF0 		cmpwi 7,3,-16
 1189              	.LBE2208:
 1190              	.LBE2207:
 1191              	.LBB2210:
 1192              	.LBB2206:
 1193              	.LBB2205:
 1194              		.loc 3 92 0
 1195 06a8 7C7D1B78 		mr 29,3
 1196              	.LBE2205:
 1197              	.LBE2206:
 1198              	.LBE2210:
 1199              	.LBE2201:
 1200              	.LBE2200:
 1201              	.LBE2214:
 1202              	.LBE2340:
 1203              		.loc 1 1325 0
 1204 06ac 7FC3CA78 		xor 3,30,25
 1205 06b0 7C630034 		cntlzw 3,3
 1206 06b4 5463D97E 		srwi 3,3,5
 1207              	.LVL127:
 1208              	.LBB2341:
 1209              	.LBB2215:
 1210              	.LBB2213:
 1211              	.LBB2212:
 1212              	.LBB2211:
 1213              	.LBB2209:
 1214              		.loc 3 108 0
 1215 06b8 419E003C 		beq- 7,.L54
 1216 06bc 81780004 		lwz 11,4(24)
 1217 06c0 81380008 		lwz 9,8(24)
 1218 06c4 8018000C 		lwz 0,12(24)
 1219 06c8 81580000 		lwz 10,0(24)
 1220 06cc 917D0014 		stw 11,20(29)
 1221 06d0 915D0010 		stw 10,16(29)
 1222 06d4 913D0018 		stw 9,24(29)
 1223 06d8 901D001C 		stw 0,28(29)
 1224 06dc 81780010 		lwz 11,16(24)
 1225 06e0 81380014 		lwz 9,20(24)
 1226 06e4 80180018 		lwz 0,24(24)
 1227 06e8 917D0020 		stw 11,32(29)
 1228 06ec 913D0024 		stw 9,36(29)
 1229 06f0 901D0028 		stw 0,40(29)
 1230              	.L54:
 1231              	.LBE2209:
 1232              	.LBE2211:
 1233              	.LBE2212:
 1234              	.LBE2213:
 1235              		.loc 1 973 0
 1236 06f4 7FA4EB78 		mr 4,29
 1237 06f8 7FC5F378 		mr 5,30
 1238 06fc 7F26CB78 		mr 6,25
 1239 0700 48000001 		bl _ZSt29_Rb_tree_insert_and_rebalancebPSt18_Rb_tree_node_baseS0_RS_
 1240              		.loc 1 976 0
 1241 0704 813F0014 		lwz 9,20(31)
 1242 0708 7FA3EB78 		mr 3,29
 1243 070c 38090001 		addi 0,9,1
 1244 0710 901F0014 		stw 0,20(31)
 1245 0714 4BFFFE38 		b .L55
 1246              	.LVL128:
 1247              	.L80:
 1248              	.LBE2215:
 1249              	.LBE2341:
 1250              	.LBB2342:
 1251              	.LBB2334:
 1252              	.LBB2259:
 1253              	.LBB2243:
 1254              	.LBB2241:
 1255              	.LBB2239:
 1256              	.LBB2233:
 1257              	.LBB2231:
 1258              	.LBB2229:
 1259              		.loc 3 92 0
 1260 0718 48000001 		bl _Znwj
 1261              	.LBE2229:
 1262              	.LBE2231:
 1263              	.LBE2233:
 1264              	.LBB2234:
 1265              	.LBB2235:
 1266              		.loc 3 108 0
 1267 071c 2F83FFF0 		cmpwi 7,3,-16
 1268              	.LBE2235:
 1269              	.LBE2234:
 1270              	.LBB2237:
 1271              	.LBB2232:
 1272              	.LBB2230:
 1273              		.loc 3 92 0
 1274 0720 7C7E1B78 		mr 30,3
 1275              	.LBE2230:
 1276              	.LBE2232:
 1277              	.LBE2237:
 1278              	.LBE2239:
 1279              	.LBE2241:
 1280              	.LBE2243:
 1281              	.LBE2259:
 1282              		.loc 1 1325 0
 1283 0724 7FA3E278 		xor 3,29,28
 1284 0728 7C630034 		cntlzw 3,3
 1285 072c 5463D97E 		srwi 3,3,5
 1286              	.LVL129:
 1287              	.LBB2260:
 1288              	.LBB2244:
 1289              	.LBB2242:
 1290              	.LBB2240:
 1291              	.LBB2238:
 1292              	.LBB2236:
 1293              		.loc 3 108 0
 1294 0730 41BEFED0 		beq- 7,.L77
 1295 0734 81780004 		lwz 11,4(24)
 1296 0738 81380008 		lwz 9,8(24)
 1297 073c 8018000C 		lwz 0,12(24)
 1298 0740 81580000 		lwz 10,0(24)
 1299 0744 917E0014 		stw 11,20(30)
 1300 0748 915E0010 		stw 10,16(30)
 1301 074c 913E0018 		stw 9,24(30)
 1302 0750 901E001C 		stw 0,28(30)
 1303 0754 81780010 		lwz 11,16(24)
 1304 0758 81380014 		lwz 9,20(24)
 1305 075c 80180018 		lwz 0,24(24)
 1306 0760 917E0020 		stw 11,32(30)
 1307 0764 913E0024 		stw 9,36(30)
 1308 0768 901E0028 		stw 0,40(30)
 1309 076c 4BFFFE94 		b .L77
 1310              	.LVL130:
 1311              	.L82:
 1312              	.LBE2236:
 1313              	.LBE2238:
 1314              	.LBE2240:
 1315              	.LBE2242:
 1316              	.LBE2244:
 1317              	.LBE2260:
 1318              	.LBE2334:
 1319              	.LBB2335:
 1320              	.LBB2331:
 1321              	.LBB2315:
 1322              	.LBB2300:
 1323              	.LBB2299:
 1324              	.LBB2298:
 1325              	.LBB2292:
 1326              	.LBB2290:
 1327              	.LBB2288:
 1328              		.loc 3 92 0
 1329 0770 48000001 		bl _Znwj
 1330              	.LBE2288:
 1331              	.LBE2290:
 1332              	.LBE2292:
 1333              	.LBB2293:
 1334              	.LBB2294:
 1335              		.loc 3 108 0
 1336 0774 2F83FFF0 		cmpwi 7,3,-16
 1337              	.LBE2294:
 1338              	.LBE2293:
 1339              	.LBB2296:
 1340              	.LBB2291:
 1341              	.LBB2289:
 1342              		.loc 3 92 0
 1343 0778 7C7C1B78 		mr 28,3
 1344              	.LVL131:
 1345              	.LBE2289:
 1346              	.LBE2291:
 1347              	.LBE2296:
 1348              	.LBB2297:
 1349              	.LBB2295:
 1350              		.loc 3 108 0
 1351 077c 419E003C 		beq- 7,.L73
 1352 0780 81780004 		lwz 11,4(24)
 1353 0784 81380008 		lwz 9,8(24)
 1354 0788 8018000C 		lwz 0,12(24)
 1355 078c 81580000 		lwz 10,0(24)
 1356 0790 91630014 		stw 11,20(3)
 1357 0794 91430010 		stw 10,16(3)
 1358 0798 91230018 		stw 9,24(3)
 1359 079c 9003001C 		stw 0,28(3)
 1360 07a0 81780010 		lwz 11,16(24)
 1361 07a4 81380014 		lwz 9,20(24)
 1362 07a8 80180018 		lwz 0,24(24)
 1363 07ac 91630020 		stw 11,32(3)
 1364 07b0 91230024 		stw 9,36(3)
 1365 07b4 90030028 		stw 0,40(3)
 1366              	.L73:
 1367              	.LBE2295:
 1368              	.LBE2297:
 1369              	.LBE2298:
 1370              	.LBE2299:
 1371              		.loc 1 973 0
 1372 07b8 38600000 		li 3,0
 1373              	.LVL132:
 1374 07bc 7F84E378 		mr 4,28
 1375 07c0 7F25CB78 		mr 5,25
 1376 07c4 7FA6EB78 		mr 6,29
 1377 07c8 48000001 		bl _ZSt29_Rb_tree_insert_and_rebalancebPSt18_Rb_tree_node_baseS0_RS_
 1378              		.loc 1 976 0
 1379 07cc 813F0014 		lwz 9,20(31)
 1380 07d0 7F83E378 		mr 3,28
 1381 07d4 38090001 		addi 0,9,1
 1382 07d8 901F0014 		stw 0,20(31)
 1383 07dc 4BFFFD70 		b .L55
 1384              	.LVL133:
 1385              	.L79:
 1386              	.LBE2300:
 1387              	.LBE2315:
 1388              	.LBE2331:
 1389              	.LBE2335:
 1390              	.LBB2336:
 1391              	.LBB2261:
 1392              	.LBB2262:
 1393              	.LBB2263:
 1394              	.LBB2264:
 1395              	.LBB2265:
 1396              	.LBB2266:
 1397              	.LBB2267:
 1398              		.loc 3 92 0
 1399 07e0 3860002C 		li 3,44
 1400 07e4 48000001 		bl _Znwj
 1401              	.LBE2267:
 1402              	.LBE2266:
 1403              	.LBE2265:
 1404              	.LBB2270:
 1405              	.LBB2271:
 1406              		.loc 3 108 0
 1407 07e8 2F83FFF0 		cmpwi 7,3,-16
 1408              	.LBE2271:
 1409              	.LBE2270:
 1410              	.LBB2273:
 1411              	.LBB2269:
 1412              	.LBB2268:
 1413              		.loc 3 92 0
 1414 07ec 7C7B1B78 		mr 27,3
 1415              	.LVL134:
 1416              	.LBE2268:
 1417              	.LBE2269:
 1418              	.LBE2273:
 1419              	.LBB2274:
 1420              	.LBB2272:
 1421              		.loc 3 108 0
 1422 07f0 419E003C 		beq- 7,.L59
 1423 07f4 81780004 		lwz 11,4(24)
 1424 07f8 81380008 		lwz 9,8(24)
 1425 07fc 8018000C 		lwz 0,12(24)
 1426 0800 81580000 		lwz 10,0(24)
 1427 0804 91630014 		stw 11,20(3)
 1428 0808 91430010 		stw 10,16(3)
 1429 080c 91230018 		stw 9,24(3)
 1430 0810 9003001C 		stw 0,28(3)
 1431 0814 81780010 		lwz 11,16(24)
 1432 0818 81380014 		lwz 9,20(24)
 1433 081c 80180018 		lwz 0,24(24)
 1434 0820 91630020 		stw 11,32(3)
 1435 0824 91230024 		stw 9,36(3)
 1436 0828 90030028 		stw 0,40(3)
 1437              	.L59:
 1438              	.LBE2272:
 1439              	.LBE2274:
 1440              	.LBE2264:
 1441              	.LBE2263:
 1442              		.loc 1 973 0
 1443 082c 38600001 		li 3,1
 1444              	.LVL135:
 1445 0830 7F64DB78 		mr 4,27
 1446 0834 7F25CB78 		mr 5,25
 1447 0838 7FA6EB78 		mr 6,29
 1448 083c 48000001 		bl _ZSt29_Rb_tree_insert_and_rebalancebPSt18_Rb_tree_node_baseS0_RS_
 1449              		.loc 1 976 0
 1450 0840 813F0014 		lwz 9,20(31)
 1451 0844 7F63DB78 		mr 3,27
 1452 0848 38090001 		addi 0,9,1
 1453 084c 901F0014 		stw 0,20(31)
 1454 0850 4BFFFCFC 		b .L55
 1455              	.LVL136:
 1456              	.L81:
 1457              	.LBE2262:
 1458              	.LBE2261:
 1459              	.LBE2336:
 1460              	.LBB2337:
 1461              	.LBB2332:
 1462              	.LBB2316:
 1463              	.LBB2317:
 1464              	.LBB2318:
 1465              	.LBB2319:
 1466              	.LBB2320:
 1467              	.LBB2321:
 1468              	.LBB2322:
 1469              		.loc 3 92 0
 1470 0854 3860002C 		li 3,44
 1471 0858 48000001 		bl _Znwj
 1472              	.LBE2322:
 1473              	.LBE2321:
 1474              	.LBE2320:
 1475              	.LBB2325:
 1476              	.LBB2326:
 1477              		.loc 3 108 0
 1478 085c 2F83FFF0 		cmpwi 7,3,-16
 1479              	.LBE2326:
 1480              	.LBE2325:
 1481              	.LBB2328:
 1482              	.LBB2324:
 1483              	.LBB2323:
 1484              		.loc 3 92 0
 1485 0860 7C7A1B78 		mr 26,3
 1486              	.LVL137:
 1487              	.LBE2323:
 1488              	.LBE2324:
 1489              	.LBE2328:
 1490              	.LBB2329:
 1491              	.LBB2327:
 1492              		.loc 3 108 0
 1493 0864 419E003C 		beq- 7,.L69
 1494 0868 81780004 		lwz 11,4(24)
 1495 086c 81380008 		lwz 9,8(24)
 1496 0870 8018000C 		lwz 0,12(24)
 1497 0874 81580000 		lwz 10,0(24)
 1498 0878 91630014 		stw 11,20(3)
 1499 087c 91430010 		stw 10,16(3)
 1500 0880 91230018 		stw 9,24(3)
 1501 0884 9003001C 		stw 0,28(3)
 1502 0888 81780010 		lwz 11,16(24)
 1503 088c 81380014 		lwz 9,20(24)
 1504 0890 80180018 		lwz 0,24(24)
 1505 0894 91630020 		stw 11,32(3)
 1506 0898 91230024 		stw 9,36(3)
 1507 089c 90030028 		stw 0,40(3)
 1508              	.L69:
 1509              	.LBE2327:
 1510              	.LBE2329:
 1511              	.LBE2319:
 1512              	.LBE2318:
 1513              		.loc 1 973 0
 1514 08a0 38600000 		li 3,0
 1515              	.LVL138:
 1516 08a4 7F44D378 		mr 4,26
 1517 08a8 7F25CB78 		mr 5,25
 1518 08ac 7FA6EB78 		mr 6,29
 1519 08b0 48000001 		bl _ZSt29_Rb_tree_insert_and_rebalancebPSt18_Rb_tree_node_baseS0_RS_
 1520              		.loc 1 976 0
 1521 08b4 813F0014 		lwz 9,20(31)
 1522 08b8 7F43D378 		mr 3,26
 1523 08bc 38090001 		addi 0,9,1
 1524 08c0 901F0014 		stw 0,20(31)
 1525 08c4 4BFFFC88 		b .L55
 1526              	.LBE2317:
 1527              	.LBE2316:
 1528              	.LBE2332:
 1529              	.LBE2337:
 1530              	.LBE2342:
 1531              	.LBE2346:
 1532              		.cfi_endproc
 1533              	.LFE1059:
 1534              		.size	_ZNSt8_Rb_treeIwSt4pairIKw13ftgxCharData_ESt10_Select1stIS3_ESt4lessIwESaIS3_EE17_M_insert_u
 1535              		.align 2
 1536              		.type	_ZNSt8_Rb_treeIsSt4pairIKs15ftgxDataOffset_ESt10_Select1stIS3_ESt4lessIsESaIS3_EE17_M_insert
 1537              	_ZNSt8_Rb_treeIsSt4pairIKs15ftgxDataOffset_ESt10_Select1stIS3_ESt4lessIsESaIS3_EE17_M_insert_unique
 1538              	.LFB1062:
 1539              		.loc 1 1325 0
 1540              		.cfi_startproc
 1541              	.LVL139:
 1542 08c8 7C0802A6 		mflr 0
 1543 08cc 9421FFD8 		stwu 1,-40(1)
 1544              	.LCFI17:
 1545              		.cfi_def_cfa_offset 40
 1546              		.cfi_register 65, 0
 1547 08d0 9321000C 		stw 25,12(1)
 1548 08d4 9001002C 		stw 0,44(1)
 1549 08d8 93A1001C 		stw 29,28(1)
 1550              		.loc 1 1333 0
 1551 08dc 3BA30004 		addi 29,3,4
 1552              		.cfi_offset 29, -12
 1553              		.cfi_offset 65, 4
 1554              		.cfi_offset 25, -28
 1555              		.loc 1 1325 0
 1556 08e0 83240000 		lwz 25,0(4)
 1557              	.LVL140:
 1558 08e4 93010008 		stw 24,8(1)
 1559 08e8 7CB82B78 		mr 24,5
 1560              		.cfi_offset 24, -32
 1561              	.LBB2455:
 1562              		.loc 1 1333 0
 1563 08ec 7F99E800 		cmpw 7,25,29
 1564              	.LBE2455:
 1565              		.loc 1 1325 0
 1566 08f0 93E10024 		stw 31,36(1)
 1567 08f4 93410010 		stw 26,16(1)
 1568 08f8 7C7F1B78 		mr 31,3
 1569              		.cfi_offset 26, -24
 1570              		.cfi_offset 31, -4
 1571 08fc 93610014 		stw 27,20(1)
 1572 0900 93810018 		stw 28,24(1)
 1573 0904 93C10020 		stw 30,32(1)
 1574              	.LBB2601:
 1575              		.loc 1 1333 0
 1576 0908 419E0134 		beq- 7,.L112
 1577              		.cfi_offset 30, -8
 1578              		.cfi_offset 28, -16
 1579              		.cfi_offset 27, -20
 1580              	.LVL141:
 1581              	.LBB2456:
 1582              	.LBB2457:
 1583              		.loc 2 608 0
 1584 090c ABC50000 		lha 30,0(5)
 1585 0910 A8190010 		lha 0,16(25)
 1586              	.LBE2457:
 1587              	.LBE2456:
 1588              	.LBB2474:
 1589              		.loc 1 1342 0
 1590 0914 7F9E0000 		cmpw 7,30,0
 1591 0918 409C00B4 		bge- 7,.L90
 1592              	.LVL142:
 1593              	.LBB2475:
 1594              		.loc 1 1347 0
 1595 091c 8003000C 		lwz 0,12(3)
 1596 0920 7F990000 		cmpw 7,25,0
 1597 0924 419E028C 		beq- 7,.L113
 1598              	.LBB2476:
 1599              	.LBB2477:
 1600              		.loc 1 284 0
 1601 0928 7F23CB78 		mr 3,25
 1602              	.LVL143:
 1603 092c 48000001 		bl _ZSt18_Rb_tree_decrementPKSt18_Rb_tree_node_base
 1604              	.LVL144:
 1605              	.LBE2477:
 1606              	.LBE2476:
 1607              		.loc 1 1350 0
 1608 0930 A8030010 		lha 0,16(3)
 1609              	.LBB2479:
 1610              	.LBB2478:
 1611              		.loc 1 284 0
 1612 0934 7C7C1B78 		mr 28,3
 1613              	.LVL145:
 1614              	.LBE2478:
 1615              	.LBE2479:
 1616              		.loc 1 1350 0
 1617 0938 7F80F000 		cmpw 7,0,30
 1618 093c 409C0120 		bge- 7,.L86
 1619              		.loc 1 1353 0
 1620 0940 8003000C 		lwz 0,12(3)
 1621              	.LBB2480:
 1622              	.LBB2481:
 1623              	.LBB2482:
 1624              	.LBB2483:
 1625              	.LBB2484:
 1626              	.LBB2485:
 1627              	.LBB2486:
 1628              		.loc 3 92 0
 1629 0944 3860001C 		li 3,28
 1630              	.LVL146:
 1631              	.LBE2486:
 1632              	.LBE2485:
 1633              	.LBE2484:
 1634              	.LBE2483:
 1635              	.LBE2482:
 1636              	.LBE2481:
 1637              	.LBE2480:
 1638              		.loc 1 1353 0
 1639 0948 2F800000 		cmpwi 7,0,0
 1640 094c 419E01DC 		beq- 7,.L114
 1641              	.LVL147:
 1642              	.LBB2503:
 1643              	.LBB2504:
 1644              	.LBB2505:
 1645              	.LBB2506:
 1646              	.LBB2507:
 1647              	.LBB2508:
 1648              	.LBB2509:
 1649              		.loc 3 92 0
 1650 0950 48000001 		bl _Znwj
 1651              	.LBE2509:
 1652              	.LBE2508:
 1653              	.LBE2507:
 1654              	.LBB2512:
 1655              	.LBB2513:
 1656              		.loc 3 108 0
 1657 0954 2F83FFF0 		cmpwi 7,3,-16
 1658              	.LBE2513:
 1659              	.LBE2512:
 1660              	.LBB2515:
 1661              	.LBB2511:
 1662              	.LBB2510:
 1663              		.loc 3 92 0
 1664 0958 7C7E1B78 		mr 30,3
 1665              	.LVL148:
 1666              	.LBE2510:
 1667              	.LBE2511:
 1668              	.LBE2515:
 1669              	.LBB2516:
 1670              	.LBB2514:
 1671              		.loc 3 108 0
 1672 095c 419E001C 		beq- 7,.L99
 1673 0960 81780000 		lwz 11,0(24)
 1674 0964 81380004 		lwz 9,4(24)
 1675 0968 A0180008 		lhz 0,8(24)
 1676 096c 91630010 		stw 11,16(3)
 1677 0970 91230014 		stw 9,20(3)
 1678 0974 B0030018 		sth 0,24(3)
 1679              	.L99:
 1680              	.LVL149:
 1681              	.LBE2514:
 1682              	.LBE2516:
 1683              	.LBE2506:
 1684              	.LBE2505:
 1685              		.loc 1 973 0
 1686 0978 38600001 		li 3,1
 1687              	.LVL150:
 1688 097c 7FC4F378 		mr 4,30
 1689 0980 7F25CB78 		mr 5,25
 1690              	.LVL151:
 1691              	.L110:
 1692 0984 7FA6EB78 		mr 6,29
 1693 0988 48000001 		bl _ZSt29_Rb_tree_insert_and_rebalancebPSt18_Rb_tree_node_baseS0_RS_
 1694              	.LVL152:
 1695              		.loc 1 976 0
 1696 098c 813F0014 		lwz 9,20(31)
 1697 0990 7FC3F378 		mr 3,30
 1698 0994 38090001 		addi 0,9,1
 1699 0998 901F0014 		stw 0,20(31)
 1700              	.LVL153:
 1701              	.L89:
 1702              	.LBE2504:
 1703              	.LBE2503:
 1704              	.LBE2475:
 1705              	.LBE2474:
 1706              	.LBE2601:
 1707              		.loc 1 1388 0
 1708 099c 8001002C 		lwz 0,44(1)
 1709 09a0 83010008 		lwz 24,8(1)
 1710              	.LVL154:
 1711 09a4 7C0803A6 		mtlr 0
 1712 09a8 8321000C 		lwz 25,12(1)
 1713              	.LVL155:
 1714 09ac 83410010 		lwz 26,16(1)
 1715 09b0 83610014 		lwz 27,20(1)
 1716 09b4 83810018 		lwz 28,24(1)
 1717 09b8 83A1001C 		lwz 29,28(1)
 1718 09bc 83C10020 		lwz 30,32(1)
 1719 09c0 83E10024 		lwz 31,36(1)
 1720              	.LVL156:
 1721 09c4 38210028 		addi 1,1,40
 1722              		.cfi_remember_state
 1723              	.LCFI18:
 1724              		.cfi_def_cfa_offset 0
 1725              		.cfi_restore 31
 1726              		.cfi_restore 30
 1727              		.cfi_restore 29
 1728              		.cfi_restore 28
 1729              		.cfi_restore 27
 1730              		.cfi_restore 26
 1731              		.cfi_restore 25
 1732              		.cfi_restore 24
 1733 09c8 4E800020 		blr
 1734              	.LVL157:
 1735              	.L90:
 1736              	.LCFI19:
 1737              		.cfi_restore_state
 1738              	.LBB2602:
 1739              	.LBB2596:
 1740              	.LBB2533:
 1741              		.loc 1 1364 0
 1742 09cc 409D00CC 		ble- 7,.L100
 1743              	.LVL158:
 1744              	.LBB2534:
 1745              		.loc 1 1369 0
 1746 09d0 80030010 		lwz 0,16(3)
 1747 09d4 7F990000 		cmpw 7,25,0
 1748 09d8 419E022C 		beq- 7,.L115
 1749              	.LVL159:
 1750              	.LBB2535:
 1751              	.LBB2536:
 1752              		.loc 1 269 0
 1753 09dc 7F23CB78 		mr 3,25
 1754              	.LVL160:
 1755 09e0 48000001 		bl _ZSt18_Rb_tree_incrementPKSt18_Rb_tree_node_base
 1756              	.LVL161:
 1757              	.LBE2536:
 1758              	.LBE2535:
 1759              		.loc 1 1372 0
 1760 09e4 A8030010 		lha 0,16(3)
 1761              	.LBB2538:
 1762              	.LBB2537:
 1763              		.loc 1 269 0
 1764 09e8 7C7C1B78 		mr 28,3
 1765              	.LVL162:
 1766              	.LBE2537:
 1767              	.LBE2538:
 1768              		.loc 1 1372 0
 1769 09ec 7F80F000 		cmpw 7,0,30
 1770 09f0 409D006C 		ble- 7,.L86
 1771              		.loc 1 1375 0
 1772 09f4 8019000C 		lwz 0,12(25)
 1773              	.LBB2539:
 1774              	.LBB2540:
 1775              	.LBB2541:
 1776              	.LBB2542:
 1777              	.LBB2543:
 1778              	.LBB2544:
 1779              	.LBB2545:
 1780              		.loc 3 92 0
 1781 09f8 3860001C 		li 3,28
 1782              	.LVL163:
 1783              	.LBE2545:
 1784              	.LBE2544:
 1785              	.LBE2543:
 1786              	.LBE2542:
 1787              	.LBE2541:
 1788              	.LBE2540:
 1789              	.LBE2539:
 1790              		.loc 1 1375 0
 1791 09fc 2F800000 		cmpwi 7,0,0
 1792 0a00 419E0160 		beq- 7,.L116
 1793              	.LVL164:
 1794              	.LBB2559:
 1795              	.LBB2560:
 1796              	.LBB2561:
 1797              	.LBB2562:
 1798              	.LBB2563:
 1799              	.LBB2564:
 1800              	.LBB2565:
 1801              		.loc 3 92 0
 1802 0a04 48000001 		bl _Znwj
 1803              	.LBE2565:
 1804              	.LBE2564:
 1805              	.LBE2563:
 1806              	.LBB2568:
 1807              	.LBB2569:
 1808              		.loc 3 108 0
 1809 0a08 2F83FFF0 		cmpwi 7,3,-16
 1810              	.LBE2569:
 1811              	.LBE2568:
 1812              	.LBB2571:
 1813              	.LBB2567:
 1814              	.LBB2566:
 1815              		.loc 3 92 0
 1816 0a0c 7C7E1B78 		mr 30,3
 1817              	.LVL165:
 1818              	.LBE2566:
 1819              	.LBE2567:
 1820              	.LBE2571:
 1821              	.LBB2572:
 1822              	.LBB2570:
 1823              		.loc 3 108 0
 1824 0a10 419E001C 		beq- 7,.L109
 1825 0a14 81780000 		lwz 11,0(24)
 1826 0a18 81380004 		lwz 9,4(24)
 1827 0a1c A0180008 		lhz 0,8(24)
 1828 0a20 91630010 		stw 11,16(3)
 1829 0a24 91230014 		stw 9,20(3)
 1830 0a28 B0030018 		sth 0,24(3)
 1831              	.L109:
 1832              	.LVL166:
 1833              	.LBE2570:
 1834              	.LBE2572:
 1835              	.LBE2562:
 1836              	.LBE2561:
 1837              		.loc 1 973 0
 1838 0a2c 38600001 		li 3,1
 1839              	.LVL167:
 1840              	.L111:
 1841 0a30 7FC4F378 		mr 4,30
 1842 0a34 7F85E378 		mr 5,28
 1843 0a38 4BFFFF4C 		b .L110
 1844              	.LVL168:
 1845              	.L112:
 1846              	.LBE2560:
 1847              	.LBE2559:
 1848              	.LBE2534:
 1849              	.LBE2533:
 1850              	.LBE2596:
 1851              		.loc 1 1335 0
 1852 0a3c 80030014 		lwz 0,20(3)
 1853 0a40 2F800000 		cmpwi 7,0,0
 1854 0a44 419E0018 		beq- 7,.L86
 1855              	.LVL169:
 1856 0a48 83C30010 		lwz 30,16(3)
 1857              	.LVL170:
 1858 0a4c A8050000 		lha 0,0(5)
 1859 0a50 A93E0010 		lha 9,16(30)
 1860 0a54 7F890000 		cmpw 7,9,0
 1861 0a58 419C0074 		blt- 7,.L117
 1862              	.LVL171:
 1863              	.L86:
 1864              		.loc 1 1340 0
 1865 0a5c 7FE3FB78 		mr 3,31
 1866 0a60 7F04C378 		mr 4,24
 1867 0a64 4BFFF59D 		bl _ZNSt8_Rb_treeIsSt4pairIKs15ftgxDataOffset_ESt10_Select1stIS3_ESt4lessIsESaIS3_EE16_M_insert_un
 1868              	.LBE2602:
 1869              		.loc 1 1388 0
 1870 0a68 8001002C 		lwz 0,44(1)
 1871 0a6c 83010008 		lwz 24,8(1)
 1872              	.LVL172:
 1873 0a70 7C0803A6 		mtlr 0
 1874 0a74 8321000C 		lwz 25,12(1)
 1875              	.LVL173:
 1876 0a78 83410010 		lwz 26,16(1)
 1877 0a7c 83610014 		lwz 27,20(1)
 1878 0a80 83810018 		lwz 28,24(1)
 1879 0a84 83A1001C 		lwz 29,28(1)
 1880 0a88 83C10020 		lwz 30,32(1)
 1881 0a8c 83E10024 		lwz 31,36(1)
 1882              	.LVL174:
 1883 0a90 38210028 		addi 1,1,40
 1884              		.cfi_remember_state
 1885              		.cfi_restore 24
 1886              		.cfi_restore 25
 1887              		.cfi_restore 26
 1888              		.cfi_restore 27
 1889              		.cfi_restore 28
 1890              		.cfi_restore 29
 1891              		.cfi_restore 30
 1892              		.cfi_restore 31
 1893              	.LCFI20:
 1894              		.cfi_def_cfa_offset 0
 1895 0a94 4E800020 		blr
 1896              	.LVL175:
 1897              	.L100:
 1898              	.LCFI21:
 1899              		.cfi_restore_state
 1900 0a98 8001002C 		lwz 0,44(1)
 1901              	.LBB2603:
 1902              	.LBB2597:
 1903              	.LBB2591:
 1904              	.LBB2588:
 1905              		.loc 1 1383 0
 1906 0a9c 7F23CB78 		mr 3,25
 1907              	.LVL176:
 1908              	.LBE2588:
 1909              	.LBE2591:
 1910              	.LBE2597:
 1911              	.LBE2603:
 1912              		.loc 1 1388 0
 1913 0aa0 83010008 		lwz 24,8(1)
 1914 0aa4 7C0803A6 		mtlr 0
 1915 0aa8 8321000C 		lwz 25,12(1)
 1916              	.LVL177:
 1917 0aac 83410010 		lwz 26,16(1)
 1918 0ab0 83610014 		lwz 27,20(1)
 1919 0ab4 83810018 		lwz 28,24(1)
 1920 0ab8 83A1001C 		lwz 29,28(1)
 1921 0abc 83C10020 		lwz 30,32(1)
 1922 0ac0 83E10024 		lwz 31,36(1)
 1923              	.LVL178:
 1924 0ac4 38210028 		addi 1,1,40
 1925              		.cfi_remember_state
 1926              		.cfi_restore 24
 1927              		.cfi_restore 25
 1928              		.cfi_restore 26
 1929              		.cfi_restore 27
 1930              		.cfi_restore 28
 1931              		.cfi_restore 29
 1932              		.cfi_restore 30
 1933              		.cfi_restore 31
 1934              	.LCFI22:
 1935              		.cfi_def_cfa_offset 0
 1936 0ac8 4E800020 		blr
 1937              	.LVL179:
 1938              	.L117:
 1939              	.LCFI23:
 1940              		.cfi_restore_state
 1941              	.LBB2604:
 1942              	.LBB2598:
 1943              	.LBB2472:
 1944              	.LBB2458:
 1945              	.LBB2459:
 1946              	.LBB2460:
 1947              	.LBB2461:
 1948              	.LBB2462:
 1949              		.loc 3 92 0
 1950 0acc 3860001C 		li 3,28
 1951              	.LVL180:
 1952 0ad0 48000001 		bl _Znwj
 1953              	.LVL181:
 1954              	.LBE2462:
 1955              	.LBE2461:
 1956              	.LBE2460:
 1957              	.LBB2465:
 1958              	.LBB2466:
 1959              		.loc 3 108 0
 1960 0ad4 2F83FFF0 		cmpwi 7,3,-16
 1961              	.LBE2466:
 1962              	.LBE2465:
 1963              	.LBB2468:
 1964              	.LBB2464:
 1965              	.LBB2463:
 1966              		.loc 3 92 0
 1967 0ad8 7C7D1B78 		mr 29,3
 1968              	.LBE2463:
 1969              	.LBE2464:
 1970              	.LBE2468:
 1971              	.LBE2459:
 1972              	.LBE2458:
 1973              	.LBE2472:
 1974              	.LBE2598:
 1975              		.loc 1 1325 0
 1976 0adc 7FC3CA78 		xor 3,30,25
 1977 0ae0 7C630034 		cntlzw 3,3
 1978 0ae4 5463D97E 		srwi 3,3,5
 1979              	.LVL182:
 1980              	.LBB2599:
 1981              	.LBB2473:
 1982              	.LBB2471:
 1983              	.LBB2470:
 1984              	.LBB2469:
 1985              	.LBB2467:
 1986              		.loc 3 108 0
 1987 0ae8 419E001C 		beq- 7,.L88
 1988 0aec 81780000 		lwz 11,0(24)
 1989 0af0 81380004 		lwz 9,4(24)
 1990 0af4 A0180008 		lhz 0,8(24)
 1991 0af8 917D0010 		stw 11,16(29)
 1992 0afc 913D0014 		stw 9,20(29)
 1993 0b00 B01D0018 		sth 0,24(29)
 1994              	.L88:
 1995              	.LVL183:
 1996              	.LBE2467:
 1997              	.LBE2469:
 1998              	.LBE2470:
 1999              	.LBE2471:
 2000              		.loc 1 973 0
 2001 0b04 7FA4EB78 		mr 4,29
 2002 0b08 7FC5F378 		mr 5,30
 2003 0b0c 7F26CB78 		mr 6,25
 2004 0b10 48000001 		bl _ZSt29_Rb_tree_insert_and_rebalancebPSt18_Rb_tree_node_baseS0_RS_
 2005              		.loc 1 976 0
 2006 0b14 813F0014 		lwz 9,20(31)
 2007 0b18 7FA3EB78 		mr 3,29
 2008 0b1c 38090001 		addi 0,9,1
 2009 0b20 901F0014 		stw 0,20(31)
 2010              	.LVL184:
 2011 0b24 4BFFFE78 		b .L89
 2012              	.LVL185:
 2013              	.L114:
 2014              	.LBE2473:
 2015              	.LBE2599:
 2016              	.LBB2600:
 2017              	.LBB2592:
 2018              	.LBB2517:
 2019              	.LBB2501:
 2020              	.LBB2499:
 2021              	.LBB2497:
 2022              	.LBB2491:
 2023              	.LBB2489:
 2024              	.LBB2487:
 2025              		.loc 3 92 0
 2026 0b28 48000001 		bl _Znwj
 2027              	.LBE2487:
 2028              	.LBE2489:
 2029              	.LBE2491:
 2030              	.LBB2492:
 2031              	.LBB2493:
 2032              		.loc 3 108 0
 2033 0b2c 2F83FFF0 		cmpwi 7,3,-16
 2034              	.LBE2493:
 2035              	.LBE2492:
 2036              	.LBB2495:
 2037              	.LBB2490:
 2038              	.LBB2488:
 2039              		.loc 3 92 0
 2040 0b30 7C7E1B78 		mr 30,3
 2041              	.LBE2488:
 2042              	.LBE2490:
 2043              	.LBE2495:
 2044              	.LBE2497:
 2045              	.LBE2499:
 2046              	.LBE2501:
 2047              	.LBE2517:
 2048              		.loc 1 1325 0
 2049 0b34 7FA3E278 		xor 3,29,28
 2050 0b38 7C630034 		cntlzw 3,3
 2051 0b3c 5463D97E 		srwi 3,3,5
 2052              	.LVL186:
 2053              	.LBB2518:
 2054              	.LBB2502:
 2055              	.LBB2500:
 2056              	.LBB2498:
 2057              	.LBB2496:
 2058              	.LBB2494:
 2059              		.loc 3 108 0
 2060 0b40 41BEFEF0 		beq- 7,.L111
 2061 0b44 81780000 		lwz 11,0(24)
 2062 0b48 81380004 		lwz 9,4(24)
 2063 0b4c A0180008 		lhz 0,8(24)
 2064 0b50 917E0010 		stw 11,16(30)
 2065 0b54 913E0014 		stw 9,20(30)
 2066 0b58 B01E0018 		sth 0,24(30)
 2067              	.LVL187:
 2068 0b5c 4BFFFED4 		b .L111
 2069              	.LVL188:
 2070              	.L116:
 2071              	.LBE2494:
 2072              	.LBE2496:
 2073              	.LBE2498:
 2074              	.LBE2500:
 2075              	.LBE2502:
 2076              	.LBE2518:
 2077              	.LBE2592:
 2078              	.LBB2593:
 2079              	.LBB2589:
 2080              	.LBB2573:
 2081              	.LBB2558:
 2082              	.LBB2557:
 2083              	.LBB2556:
 2084              	.LBB2550:
 2085              	.LBB2548:
 2086              	.LBB2546:
 2087              		.loc 3 92 0
 2088 0b60 48000001 		bl _Znwj
 2089              	.LBE2546:
 2090              	.LBE2548:
 2091              	.LBE2550:
 2092              	.LBB2551:
 2093              	.LBB2552:
 2094              		.loc 3 108 0
 2095 0b64 2F83FFF0 		cmpwi 7,3,-16
 2096              	.LBE2552:
 2097              	.LBE2551:
 2098              	.LBB2554:
 2099              	.LBB2549:
 2100              	.LBB2547:
 2101              		.loc 3 92 0
 2102 0b68 7C7C1B78 		mr 28,3
 2103              	.LVL189:
 2104              	.LBE2547:
 2105              	.LBE2549:
 2106              	.LBE2554:
 2107              	.LBB2555:
 2108              	.LBB2553:
 2109              		.loc 3 108 0
 2110 0b6c 419E001C 		beq- 7,.L107
 2111 0b70 81780000 		lwz 11,0(24)
 2112 0b74 81380004 		lwz 9,4(24)
 2113 0b78 A0180008 		lhz 0,8(24)
 2114 0b7c 91630010 		stw 11,16(3)
 2115 0b80 91230014 		stw 9,20(3)
 2116 0b84 B0030018 		sth 0,24(3)
 2117              	.L107:
 2118              	.LVL190:
 2119              	.LBE2553:
 2120              	.LBE2555:
 2121              	.LBE2556:
 2122              	.LBE2557:
 2123              		.loc 1 973 0
 2124 0b88 38600000 		li 3,0
 2125              	.LVL191:
 2126 0b8c 7F84E378 		mr 4,28
 2127 0b90 7F25CB78 		mr 5,25
 2128 0b94 7FA6EB78 		mr 6,29
 2129 0b98 48000001 		bl _ZSt29_Rb_tree_insert_and_rebalancebPSt18_Rb_tree_node_baseS0_RS_
 2130              		.loc 1 976 0
 2131 0b9c 813F0014 		lwz 9,20(31)
 2132 0ba0 7F83E378 		mr 3,28
 2133 0ba4 38090001 		addi 0,9,1
 2134 0ba8 901F0014 		stw 0,20(31)
 2135              	.LVL192:
 2136 0bac 4BFFFDF0 		b .L89
 2137              	.LVL193:
 2138              	.L113:
 2139              	.LBE2558:
 2140              	.LBE2573:
 2141              	.LBE2589:
 2142              	.LBE2593:
 2143              	.LBB2594:
 2144              	.LBB2519:
 2145              	.LBB2520:
 2146              	.LBB2521:
 2147              	.LBB2522:
 2148              	.LBB2523:
 2149              	.LBB2524:
 2150              	.LBB2525:
 2151              		.loc 3 92 0
 2152 0bb0 3860001C 		li 3,28
 2153 0bb4 48000001 		bl _Znwj
 2154              	.LBE2525:
 2155              	.LBE2524:
 2156              	.LBE2523:
 2157              	.LBB2528:
 2158              	.LBB2529:
 2159              		.loc 3 108 0
 2160 0bb8 2F83FFF0 		cmpwi 7,3,-16
 2161              	.LBE2529:
 2162              	.LBE2528:
 2163              	.LBB2531:
 2164              	.LBB2527:
 2165              	.LBB2526:
 2166              		.loc 3 92 0
 2167 0bbc 7C7B1B78 		mr 27,3
 2168              	.LVL194:
 2169              	.LBE2526:
 2170              	.LBE2527:
 2171              	.LBE2531:
 2172              	.LBB2532:
 2173              	.LBB2530:
 2174              		.loc 3 108 0
 2175 0bc0 419E001C 		beq- 7,.L93
 2176 0bc4 81780000 		lwz 11,0(24)
 2177 0bc8 81380004 		lwz 9,4(24)
 2178 0bcc A0180008 		lhz 0,8(24)
 2179 0bd0 91630010 		stw 11,16(3)
 2180 0bd4 91230014 		stw 9,20(3)
 2181 0bd8 B0030018 		sth 0,24(3)
 2182              	.L93:
 2183              	.LVL195:
 2184              	.LBE2530:
 2185              	.LBE2532:
 2186              	.LBE2522:
 2187              	.LBE2521:
 2188              		.loc 1 973 0
 2189 0bdc 38600001 		li 3,1
 2190              	.LVL196:
 2191 0be0 7F64DB78 		mr 4,27
 2192 0be4 7F25CB78 		mr 5,25
 2193 0be8 7FA6EB78 		mr 6,29
 2194 0bec 48000001 		bl _ZSt29_Rb_tree_insert_and_rebalancebPSt18_Rb_tree_node_baseS0_RS_
 2195              		.loc 1 976 0
 2196 0bf0 813F0014 		lwz 9,20(31)
 2197 0bf4 7F63DB78 		mr 3,27
 2198 0bf8 38090001 		addi 0,9,1
 2199 0bfc 901F0014 		stw 0,20(31)
 2200              	.LVL197:
 2201 0c00 4BFFFD9C 		b .L89
 2202              	.LVL198:
 2203              	.L115:
 2204              	.LBE2520:
 2205              	.LBE2519:
 2206              	.LBE2594:
 2207              	.LBB2595:
 2208              	.LBB2590:
 2209              	.LBB2574:
 2210              	.LBB2575:
 2211              	.LBB2576:
 2212              	.LBB2577:
 2213              	.LBB2578:
 2214              	.LBB2579:
 2215              	.LBB2580:
 2216              		.loc 3 92 0
 2217 0c04 3860001C 		li 3,28
 2218 0c08 48000001 		bl _Znwj
 2219              	.LBE2580:
 2220              	.LBE2579:
 2221              	.LBE2578:
 2222              	.LBB2583:
 2223              	.LBB2584:
 2224              		.loc 3 108 0
 2225 0c0c 2F83FFF0 		cmpwi 7,3,-16
 2226              	.LBE2584:
 2227              	.LBE2583:
 2228              	.LBB2586:
 2229              	.LBB2582:
 2230              	.LBB2581:
 2231              		.loc 3 92 0
 2232 0c10 7C7A1B78 		mr 26,3
 2233              	.LVL199:
 2234              	.LBE2581:
 2235              	.LBE2582:
 2236              	.LBE2586:
 2237              	.LBB2587:
 2238              	.LBB2585:
 2239              		.loc 3 108 0
 2240 0c14 419E001C 		beq- 7,.L103
 2241 0c18 81780000 		lwz 11,0(24)
 2242 0c1c 81380004 		lwz 9,4(24)
 2243 0c20 A0180008 		lhz 0,8(24)
 2244 0c24 91630010 		stw 11,16(3)
 2245 0c28 91230014 		stw 9,20(3)
 2246 0c2c B0030018 		sth 0,24(3)
 2247              	.L103:
 2248              	.LVL200:
 2249              	.LBE2585:
 2250              	.LBE2587:
 2251              	.LBE2577:
 2252              	.LBE2576:
 2253              		.loc 1 973 0
 2254 0c30 38600000 		li 3,0
 2255              	.LVL201:
 2256 0c34 7F44D378 		mr 4,26
 2257 0c38 7F25CB78 		mr 5,25
 2258 0c3c 7FA6EB78 		mr 6,29
 2259 0c40 48000001 		bl _ZSt29_Rb_tree_insert_and_rebalancebPSt18_Rb_tree_node_baseS0_RS_
 2260              		.loc 1 976 0
 2261 0c44 813F0014 		lwz 9,20(31)
 2262 0c48 7F43D378 		mr 3,26
 2263 0c4c 38090001 		addi 0,9,1
 2264 0c50 901F0014 		stw 0,20(31)
 2265              	.LVL202:
 2266 0c54 4BFFFD48 		b .L89
 2267              	.LBE2575:
 2268              	.LBE2574:
 2269              	.LBE2590:
 2270              	.LBE2595:
 2271              	.LBE2600:
 2272              	.LBE2604:
 2273              		.cfi_endproc
 2274              	.LFE1062:
 2275              		.size	_ZNSt8_Rb_treeIsSt4pairIKs15ftgxDataOffset_ESt10_Select1stIS3_ESt4lessIsESaIS3_EE17_M_insert
 2276              		.align 2
 2277              		.globl _Z14charToWideCharPKc
 2278              		.type	_Z14charToWideCharPKc, @function
 2279              	_Z14charToWideCharPKc:
 2280              	.LFB539:
 2281              		.loc 2 41 0
 2282              		.cfi_startproc
 2283              	.LVL203:
 2284 0c58 9421FFF0 		stwu 1,-16(1)
 2285              	.LCFI24:
 2286              		.cfi_def_cfa_offset 16
 2287 0c5c 7C0802A6 		mflr 0
 2288 0c60 93C10008 		stw 30,8(1)
 2289              	.LBB2605:
 2290              		.loc 2 42 0
 2291 0c64 7C7E1B79 		mr. 30,3
 2292              		.cfi_offset 30, -8
 2293              		.cfi_register 65, 0
 2294              	.LBE2605:
 2295              		.loc 2 41 0
 2296 0c68 93E1000C 		stw 31,12(1)
 2297              	.LBB2606:
 2298              		.loc 2 42 0
 2299 0c6c 3BE00000 		li 31,0
 2300              		.cfi_offset 31, -4
 2301              	.LBE2606:
 2302              		.loc 2 41 0
 2303 0c70 90010014 		stw 0,20(1)
 2304              	.LBB2607:
 2305              		.loc 2 42 0
 2306 0c74 41820050 		beq- 0,.L119
 2307              		.cfi_offset 65, 4
 2308              		.loc 2 44 0
 2309 0c78 48000001 		bl strlen
 2310              	.LVL204:
 2311 0c7c 3C800000 		lis 4,_ZSt7nothrow@ha
 2312 0c80 38630001 		addi 3,3,1
 2313 0c84 38840000 		la 4,_ZSt7nothrow@l(4)
 2314 0c88 5463103A 		slwi 3,3,2
 2315 0c8c 48000001 		bl _ZnajRKSt9nothrow_t
 2316              	.LVL205:
 2317              		.loc 2 45 0
 2318 0c90 7C7F1B79 		mr. 31,3
 2319 0c94 41820030 		beq- 0,.L119
 2320              		.loc 2 47 0
 2321 0c98 7FC3F378 		mr 3,30
 2322              	.LVL206:
 2323 0c9c 48000001 		bl strlen
 2324 0ca0 7FC4F378 		mr 4,30
 2325 0ca4 7C651B78 		mr 5,3
 2326 0ca8 7FE3FB78 		mr 3,31
 2327 0cac 48000001 		bl mbstowcs
 2328              	.LVL207:
 2329              		.loc 2 48 0
 2330 0cb0 2C030000 		cmpwi 0,3,0
 2331 0cb4 4081002C 		ble- 0,.L120
 2332              		.loc 2 50 0
 2333 0cb8 5463103A 		slwi 3,3,2
 2334              	.LVL208:
 2335 0cbc 38000000 		li 0,0
 2336 0cc0 7C1F192E 		stwx 0,31,3
 2337              	.LVL209:
 2338              	.L119:
 2339              	.LBE2607:
 2340              		.loc 2 59 0
 2341 0cc4 80010014 		lwz 0,20(1)
 2342 0cc8 7FE3FB78 		mr 3,31
 2343 0ccc 83C10008 		lwz 30,8(1)
 2344              	.LVL210:
 2345 0cd0 7C0803A6 		mtlr 0
 2346 0cd4 83E1000C 		lwz 31,12(1)
 2347 0cd8 38210010 		addi 1,1,16
 2348              		.cfi_remember_state
 2349              	.LCFI25:
 2350              		.cfi_def_cfa_offset 0
 2351              		.cfi_restore 31
 2352              		.cfi_restore 30
 2353 0cdc 4E800020 		blr
 2354              	.LVL211:
 2355              	.L120:
 2356              	.LCFI26:
 2357              		.cfi_restore_state
 2358              	.LBB2608:
 2359              		.loc 2 40 0
 2360 0ce0 3BDEFFFF 		addi 30,30,-1
 2361              	.LVL212:
 2362 0ce4 393FFFFC 		addi 9,31,-4
 2363              	.LVL213:
 2364              	.L121:
 2365              		.loc 2 55 0 discriminator 1
 2366 0ce8 8C1E0001 		lbzu 0,1(30)
 2367 0cec 2F800000 		cmpwi 7,0,0
 2368 0cf0 94090004 		stwu 0,4(9)
 2369 0cf4 409EFFF4 		bne+ 7,.L121
 2370              	.LBE2608:
 2371              		.loc 2 59 0
 2372 0cf8 80010014 		lwz 0,20(1)
 2373 0cfc 7FE3FB78 		mr 3,31
 2374              	.LVL214:
 2375 0d00 83C10008 		lwz 30,8(1)
 2376 0d04 7C0803A6 		mtlr 0
 2377 0d08 83E1000C 		lwz 31,12(1)
 2378              	.LVL215:
 2379 0d0c 38210010 		addi 1,1,16
 2380              		.cfi_restore 30
 2381              		.cfi_restore 31
 2382              	.LCFI27:
 2383              		.cfi_def_cfa_offset 0
 2384 0d10 4E800020 		blr
 2385              		.cfi_endproc
 2386              	.LFE539:
 2387              		.size	_Z14charToWideCharPKc, .-_Z14charToWideCharPKc
 2388              		.align 2
 2389              		.globl _ZN10FreeTypeGX15setVertexFormatEh
 2390              		.type	_ZN10FreeTypeGX15setVertexFormatEh, @function
 2391              	_ZN10FreeTypeGX15setVertexFormatEh:
 2392              	.LFB552:
 2393              		.loc 2 103 0
 2394              		.cfi_startproc
 2395              	.LVL216:
 2396 0d14 7C0802A6 		mflr 0
 2397 0d18 9421FFF0 		stwu 1,-16(1)
 2398              	.LCFI28:
 2399              		.cfi_def_cfa_offset 16
 2400              		.cfi_register 65, 0
 2401              		.loc 2 105 0
 2402 0d1c 38A00001 		li 5,1
 2403 0d20 38C00003 		li 6,3
 2404              		.loc 2 103 0
 2405 0d24 93E1000C 		stw 31,12(1)
 2406              		.loc 2 105 0
 2407 0d28 38E00000 		li 7,0
 2408              		.loc 2 103 0
 2409 0d2c 90010014 		stw 0,20(1)
 2410              		.loc 2 103 0
 2411 0d30 7C7F1B78 		mr 31,3
 2412              		.cfi_offset 65, 4
 2413              		.cfi_offset 31, -4
 2414              		.loc 2 104 0
 2415 0d34 9883000B 		stb 4,11(3)
 2416              		.loc 2 105 0
 2417 0d38 7C832378 		mr 3,4
 2418              	.LVL217:
 2419 0d3c 38800009 		li 4,9
 2420              	.LVL218:
 2421 0d40 48000001 		bl GX_SetVtxAttrFmt
 2422              	.LVL219:
 2423              		.loc 2 106 0
 2424 0d44 887F000B 		lbz 3,11(31)
 2425 0d48 3880000D 		li 4,13
 2426 0d4c 38A00001 		li 5,1
 2427 0d50 38C00004 		li 6,4
 2428 0d54 38E00000 		li 7,0
 2429 0d58 48000001 		bl GX_SetVtxAttrFmt
 2430              		.loc 2 107 0
 2431 0d5c 887F000B 		lbz 3,11(31)
 2432 0d60 3880000B 		li 4,11
 2433 0d64 38A00001 		li 5,1
 2434 0d68 38C00005 		li 6,5
 2435 0d6c 38E00000 		li 7,0
 2436 0d70 48000001 		bl GX_SetVtxAttrFmt
 2437              		.loc 2 108 0
 2438 0d74 80010014 		lwz 0,20(1)
 2439 0d78 83E1000C 		lwz 31,12(1)
 2440              	.LVL220:
 2441 0d7c 7C0803A6 		mtlr 0
 2442 0d80 38210010 		addi 1,1,16
 2443              	.LCFI29:
 2444              		.cfi_def_cfa_offset 0
 2445              		.cfi_restore 31
 2446 0d84 4E800020 		blr
 2447              		.cfi_endproc
 2448              	.LFE552:
 2449              		.size	_ZN10FreeTypeGX15setVertexFormatEh, .-_ZN10FreeTypeGX15setVertexFormatEh
 2450              		.align 2
 2451              		.globl _ZN10FreeTypeGX13loadGlyphDataEP10FT_Bitmap_P13ftgxCharData_
 2452              		.type	_ZN10FreeTypeGX13loadGlyphDataEP10FT_Bitmap_P13ftgxCharData_, @function
 2453              	_ZN10FreeTypeGX13loadGlyphDataEP10FT_Bitmap_P13ftgxCharData_:
 2454              	.LFB556:
 2455              		.loc 2 237 0
 2456              		.cfi_startproc
 2457              	.LVL221:
 2458 0d88 7C0802A6 		mflr 0
 2459 0d8c 9421FFD0 		stwu 1,-48(1)
 2460              	.LCFI30:
 2461              		.cfi_def_cfa_offset 48
 2462              		.cfi_register 65, 0
 2463 0d90 93810020 		stw 28,32(1)
 2464 0d94 90010034 		stw 0,52(1)
 2465 0d98 93A10024 		stw 29,36(1)
 2466              	.LBB2609:
 2467              		.loc 2 238 0
 2468 0d9c A1250008 		lhz 9,8(5)
 2469 0da0 A005000A 		lhz 0,10(5)
 2470              		.cfi_offset 29, -12
 2471              		.cfi_offset 65, 4
 2472              		.cfi_offset 28, -16
 2473              	.LBE2609:
 2474              		.loc 2 237 0
 2475 0da4 93C10028 		stw 30,40(1)
 2476 0da8 7CBE2B78 		mr 30,5
 2477              		.cfi_offset 30, -8
 2478              	.LVL222:
 2479              	.LBB2610:
 2480              		.loc 2 238 0
 2481 0dac 7C0901D6 		mullw 0,9,0
 2482              	.LBE2610:
 2483              		.loc 2 237 0
 2484 0db0 93E1002C 		stw 31,44(1)
 2485 0db4 92E1000C 		stw 23,12(1)
 2486 0db8 7C9F2378 		mr 31,4
 2487              		.cfi_offset 23, -36
 2488              		.cfi_offset 31, -4
 2489 0dbc 93010010 		stw 24,16(1)
 2490 0dc0 93210014 		stw 25,20(1)
 2491              	.LBB2611:
 2492              		.loc 2 238 0
 2493 0dc4 7C1C0E70 		srawi 28,0,1
 2494              	.LBE2611:
 2495              		.loc 2 237 0
 2496 0dc8 93410018 		stw 26,24(1)
 2497              	.LBB2612:
 2498              		.loc 2 240 0
 2499 0dcc 7F83E378 		mr 3,28
 2500              	.LVL223:
 2501              	.LBE2612:
 2502              		.loc 2 237 0
 2503 0dd0 9361001C 		stw 27,28(1)
 2504              	.LBB2613:
 2505              		.loc 2 240 0
 2506              		.cfi_offset 27, -20
 2507              		.cfi_offset 26, -24
 2508              		.cfi_offset 25, -28
 2509              		.cfi_offset 24, -32
 2510 0dd4 48000001 		bl MEM2_alloc
 2511              	.LVL224:
 2512              		.loc 2 241 0
 2513 0dd8 38800000 		li 4,0
 2514 0ddc 7F85E378 		mr 5,28
 2515              		.loc 2 240 0
 2516 0de0 7C7D1B78 		mr 29,3
 2517              	.LVL225:
 2518              		.loc 2 241 0
 2519 0de4 48000001 		bl memset
 2520              	.LVL226:
 2521              		.loc 2 247 0
 2522 0de8 815F0000 		lwz 10,0(31)
 2523              		.loc 2 243 0
 2524 0dec 80FF000C 		lwz 7,12(31)
 2525              	.LVL227:
 2526              		.loc 2 247 0
 2527 0df0 2F8A0000 		cmpwi 7,10,0
 2528 0df4 409D01A0 		ble- 7,.L126
 2529 0df8 801F0004 		lwz 0,4(31)
 2530              		.loc 2 244 0
 2531 0dfc 7FABEB78 		mr 11,29
 2532              		.loc 2 247 0
 2533 0e00 3AE00000 		li 23,0
 2534              	.LVL228:
 2535              	.L127:
 2536              		.loc 2 249 0 discriminator 1
 2537 0e04 2F800000 		cmpwi 7,0,0
 2538 0e08 39000000 		li 8,0
 2539 0e0c 409D017C 		ble- 7,.L137
 2540              	.LVL229:
 2541              	.L141:
 2542              		.loc 2 236 0 discriminator 1
 2543 0e10 38600008 		li 3,8
 2544 0e14 38880002 		addi 4,8,2
 2545 0e18 7C6903A6 		mtctr 3
 2546 0e1c 38A80004 		addi 5,8,4
 2547 0e20 38C80006 		addi 6,8,6
 2548 0e24 3B0B0020 		addi 24,11,32
 2549              	.LBE2613:
 2550 0e28 7EE9BB78 		mr 9,23
 2551              	.LBB2614:
 2552 0e2c 3B280001 		addi 25,8,1
 2553 0e30 3B480003 		addi 26,8,3
 2554 0e34 3B680005 		addi 27,8,5
 2555 0e38 39880007 		addi 12,8,7
 2556              	.LVL230:
 2557              	.L136:
 2558              		.loc 2 255 0 discriminator 1
 2559 0e3c 7F804000 		cmpw 7,0,8
 2560 0e40 409D0048 		ble- 7,.L128
 2561              		.loc 2 255 0 is_stmt 0
 2562 0e44 7F8A4800 		cmpw 7,10,9
 2563 0e48 409D0040 		ble- 7,.L128
 2564              	.LVL231:
 2565              		.loc 2 258 0 is_stmt 1
 2566 0e4c 7C0049D6 		mullw 0,0,9
 2567              	.LVL232:
 2568 0e50 7C680214 		add 3,8,0
 2569              	.LVL233:
 2570              		.loc 2 259 0
 2571 0e54 7D4718AE 		lbzx 10,7,3
 2572 0e58 554A0636 		rlwinm 10,10,0,24,27
 2573 0e5c 994B0000 		stb 10,0(11)
 2574              		.loc 2 261 0
 2575 0e60 801F0004 		lwz 0,4(31)
 2576 0e64 7F80C800 		cmpw 7,0,25
 2577 0e68 409D001C 		ble- 7,.L142
 2578              		.loc 2 262 0
 2579 0e6c 7C671A14 		add 3,7,3
 2580              	.LVL234:
 2581 0e70 88030001 		lbz 0,1(3)
 2582 0e74 7C002670 		srawi 0,0,4
 2583 0e78 7C0A5378 		or 10,0,10
 2584 0e7c 994B0000 		stb 10,0(11)
 2585 0e80 801F0004 		lwz 0,4(31)
 2586              	.L142:
 2587 0e84 815F0000 		lwz 10,0(31)
 2588              	.L128:
 2589              	.LVL235:
 2590              		.loc 2 255 0
 2591 0e88 7F840000 		cmpw 7,4,0
 2592 0e8c 409C0048 		bge- 7,.L130
 2593 0e90 7F8A4800 		cmpw 7,10,9
 2594 0e94 409D0040 		ble- 7,.L130
 2595              	.LVL236:
 2596              		.loc 2 258 0
 2597 0e98 7C0901D6 		mullw 0,9,0
 2598              	.LVL237:
 2599 0e9c 7C602214 		add 3,0,4
 2600              	.LVL238:
 2601              		.loc 2 259 0
 2602 0ea0 7D4718AE 		lbzx 10,7,3
 2603 0ea4 554A0636 		rlwinm 10,10,0,24,27
 2604 0ea8 994B0001 		stb 10,1(11)
 2605              		.loc 2 261 0
 2606 0eac 801F0004 		lwz 0,4(31)
 2607 0eb0 7F80D000 		cmpw 7,0,26
 2608 0eb4 409D001C 		ble- 7,.L143
 2609              		.loc 2 262 0
 2610 0eb8 7C671A14 		add 3,7,3
 2611              	.LVL239:
 2612 0ebc 88030001 		lbz 0,1(3)
 2613 0ec0 7C002670 		srawi 0,0,4
 2614 0ec4 7C0A5378 		or 10,0,10
 2615 0ec8 994B0001 		stb 10,1(11)
 2616 0ecc 801F0004 		lwz 0,4(31)
 2617              	.L143:
 2618 0ed0 815F0000 		lwz 10,0(31)
 2619              	.L130:
 2620              	.LVL240:
 2621              		.loc 2 255 0
 2622 0ed4 7F802800 		cmpw 7,0,5
 2623 0ed8 409D0048 		ble- 7,.L132
 2624 0edc 7F8A4800 		cmpw 7,10,9
 2625 0ee0 409D0040 		ble- 7,.L132
 2626              	.LVL241:
 2627              		.loc 2 258 0
 2628 0ee4 7C0049D6 		mullw 0,0,9
 2629              	.LVL242:
 2630 0ee8 7C602A14 		add 3,0,5
 2631              	.LVL243:
 2632              		.loc 2 259 0
 2633 0eec 7D4718AE 		lbzx 10,7,3
 2634 0ef0 554A0636 		rlwinm 10,10,0,24,27
 2635 0ef4 994B0002 		stb 10,2(11)
 2636              		.loc 2 261 0
 2637 0ef8 801F0004 		lwz 0,4(31)
 2638 0efc 7F80D800 		cmpw 7,0,27
 2639 0f00 409D001C 		ble- 7,.L144
 2640              		.loc 2 262 0
 2641 0f04 7C671A14 		add 3,7,3
 2642              	.LVL244:
 2643 0f08 88030001 		lbz 0,1(3)
 2644 0f0c 7C002670 		srawi 0,0,4
 2645 0f10 7C0A5378 		or 10,0,10
 2646 0f14 994B0002 		stb 10,2(11)
 2647 0f18 801F0004 		lwz 0,4(31)
 2648              	.L144:
 2649 0f1c 815F0000 		lwz 10,0(31)
 2650              	.L132:
 2651              	.LVL245:
 2652              		.loc 2 255 0
 2653 0f20 7F803000 		cmpw 7,0,6
 2654 0f24 409D0048 		ble- 7,.L134
 2655 0f28 7F8A4800 		cmpw 7,10,9
 2656 0f2c 409D0040 		ble- 7,.L134
 2657              	.LVL246:
 2658              		.loc 2 258 0
 2659 0f30 7C0049D6 		mullw 0,0,9
 2660              	.LVL247:
 2661 0f34 7C660214 		add 3,6,0
 2662              	.LVL248:
 2663              		.loc 2 259 0
 2664 0f38 7D4718AE 		lbzx 10,7,3
 2665 0f3c 554A0636 		rlwinm 10,10,0,24,27
 2666 0f40 994B0003 		stb 10,3(11)
 2667              		.loc 2 261 0
 2668 0f44 801F0004 		lwz 0,4(31)
 2669 0f48 7F806000 		cmpw 7,0,12
 2670 0f4c 409D001C 		ble- 7,.L145
 2671              		.loc 2 262 0
 2672 0f50 7C671A14 		add 3,7,3
 2673              	.LVL249:
 2674 0f54 88030001 		lbz 0,1(3)
 2675 0f58 7C002670 		srawi 0,0,4
 2676 0f5c 7C0A5378 		or 10,0,10
 2677 0f60 994B0003 		stb 10,3(11)
 2678 0f64 801F0004 		lwz 0,4(31)
 2679              	.L145:
 2680 0f68 815F0000 		lwz 10,0(31)
 2681              	.L134:
 2682              	.LVL250:
 2683              		.loc 2 236 0
 2684 0f6c 396B0004 		addi 11,11,4
 2685              	.LVL251:
 2686              		.loc 2 251 0
 2687 0f70 39290001 		addi 9,9,1
 2688              	.LVL252:
 2689 0f74 4200FEC8 		bdnz .L136
 2690              		.loc 2 249 0
 2691 0f78 39080008 		addi 8,8,8
 2692              	.LVL253:
 2693              		.loc 2 251 0
 2694 0f7c 7F0BC378 		mr 11,24
 2695              	.LVL254:
 2696              		.loc 2 249 0
 2697 0f80 7F880000 		cmpw 7,8,0
 2698 0f84 419CFE8C 		blt+ 7,.L141
 2699              	.LVL255:
 2700              	.L137:
 2701              		.loc 2 247 0
 2702 0f88 3AF70008 		addi 23,23,8
 2703              	.LVL256:
 2704 0f8c 7F975000 		cmpw 7,23,10
 2705 0f90 419CFE74 		blt+ 7,.L127
 2706              	.LVL257:
 2707              	.L126:
 2708              		.loc 2 268 0
 2709 0f94 7FA3EB78 		mr 3,29
 2710 0f98 7F84E378 		mr 4,28
 2711 0f9c 48000001 		bl DCFlushRange
 2712              	.LVL258:
 2713              	.LBE2614:
 2714              		.loc 2 270 0
 2715 0fa0 80010034 		lwz 0,52(1)
 2716              	.LBB2615:
 2717              		.loc 2 269 0
 2718 0fa4 93BE0014 		stw 29,20(30)
 2719              	.LBE2615:
 2720              		.loc 2 270 0
 2721 0fa8 7C0803A6 		mtlr 0
 2722 0fac 82E1000C 		lwz 23,12(1)
 2723 0fb0 83010010 		lwz 24,16(1)
 2724 0fb4 83210014 		lwz 25,20(1)
 2725 0fb8 83410018 		lwz 26,24(1)
 2726 0fbc 8361001C 		lwz 27,28(1)
 2727 0fc0 83810020 		lwz 28,32(1)
 2728              	.LVL259:
 2729 0fc4 83A10024 		lwz 29,36(1)
 2730              	.LVL260:
 2731 0fc8 83C10028 		lwz 30,40(1)
 2732              	.LVL261:
 2733 0fcc 83E1002C 		lwz 31,44(1)
 2734              	.LVL262:
 2735 0fd0 38210030 		addi 1,1,48
 2736              	.LCFI31:
 2737              		.cfi_def_cfa_offset 0
 2738              		.cfi_restore 31
 2739              		.cfi_restore 30
 2740              		.cfi_restore 29
 2741              		.cfi_restore 28
 2742              		.cfi_restore 27
 2743              		.cfi_restore 26
 2744              		.cfi_restore 25
 2745              		.cfi_restore 24
 2746              		.cfi_restore 23
 2747 0fd4 4E800020 		blr
 2748              		.cfi_endproc
 2749              	.LFE556:
 2750              		.size	_ZN10FreeTypeGX13loadGlyphDataEP10FT_Bitmap_P13ftgxCharData_, .-_ZN10FreeTypeGX13loadGlyphDa
 2751              		.align 2
 2752              		.globl _ZN10FreeTypeGX19getStyleOffsetWidthEtt
 2753              		.type	_ZN10FreeTypeGX19getStyleOffsetWidthEtt, @function
 2754              	_ZN10FreeTypeGX19getStyleOffsetWidthEtt:
 2755              	.LFB557:
 2756              		.loc 2 281 0
 2757              		.cfi_startproc
 2758              	.LVL263:
 2759              		.loc 2 282 0
 2760 0fd8 70A00001 		andi. 0,5,1
 2761              		.loc 2 283 0
 2762 0fdc 38600000 		li 3,0
 2763              	.LVL264:
 2764              		.loc 2 282 0
 2765 0fe0 4C820020 		bnelr- 0
 2766              		.loc 2 284 0
 2767 0fe4 70A00002 		andi. 0,5,2
 2768 0fe8 40820018 		bne- 0,.L151
 2769              		.loc 2 286 0
 2770 0fec 70A00004 		andi. 0,5,4
 2771 0ff0 4D820020 		beqlr- 0
 2772              		.loc 2 286 0 is_stmt 0 discriminator 1
 2773 0ff4 7C6400D0 		neg 3,4
 2774 0ff8 7C630734 		extsh 3,3
 2775              		.loc 2 288 0 is_stmt 1 discriminator 1
 2776 0ffc 4E800020 		blr
 2777              	.L151:
 2778              		.loc 2 285 0
 2779 1000 7C830E70 		srawi 3,4,1
 2780 1004 7C6300D0 		neg 3,3
 2781 1008 7C630734 		extsh 3,3
 2782 100c 4E800020 		blr
 2783              		.cfi_endproc
 2784              	.LFE557:
 2785              		.size	_ZN10FreeTypeGX19getStyleOffsetWidthEtt, .-_ZN10FreeTypeGX19getStyleOffsetWidthEtt
 2786              		.align 2
 2787              		.globl _ZN10FreeTypeGX20getStyleOffsetHeightEst
 2788              		.type	_ZN10FreeTypeGX20getStyleOffsetHeightEst, @function
 2789              	_ZN10FreeTypeGX20getStyleOffsetHeightEst:
 2790              	.LFB558:
 2791              		.loc 2 299 0
 2792              		.cfi_startproc
 2793              	.LVL265:
 2794              	.LBB2630:
 2795              	.LBB2631:
 2796              	.LBB2632:
 2797              		.loc 2 608 0
 2798 1010 8123002C 		lwz 9,44(3)
 2799              	.LBE2632:
 2800              	.LBE2631:
 2801              	.LBE2630:
 2802              		.loc 2 299 0
 2803 1014 7C6B1B78 		mr 11,3
 2804              	.LBB2642:
 2805              		.loc 2 300 0
 2806 1018 7CA50734 		extsh 5,5
 2807              	.LVL266:
 2808              	.LBB2641:
 2809              	.LBB2640:
 2810              	.LBB2633:
 2811              	.LBB2634:
 2812              	.LBB2635:
 2813              		.loc 2 301 0
 2814 101c 38600000 		li 3,0
 2815              	.LVL267:
 2816              		.loc 1 1089 0
 2817 1020 2F890000 		cmpwi 7,9,0
 2818 1024 4D9E0020 		beqlr- 7
 2819              	.LBE2635:
 2820              	.LBE2634:
 2821              	.LBE2633:
 2822              		.loc 1 1536 0
 2823 1028 396B0028 		addi 11,11,40
 2824              	.LVL268:
 2825 102c 7D6A5B78 		mr 10,11
 2826 1030 48000014 		b .L156
 2827              	.LVL269:
 2828              	.L170:
 2829              	.LBB2639:
 2830              	.LBB2638:
 2831              		.loc 2 608 0
 2832 1034 7D2A4B78 		mr 10,9
 2833              		.loc 1 1091 0
 2834 1038 81290008 		lwz 9,8(9)
 2835              	.LVL270:
 2836              	.LBB2636:
 2837              		.loc 1 1089 0
 2838 103c 2F890000 		cmpwi 7,9,0
 2839 1040 419E001C 		beq- 7,.L169
 2840              	.LVL271:
 2841              	.L156:
 2842              		.loc 1 1090 0
 2843 1044 A8090010 		lha 0,16(9)
 2844 1048 7F802800 		cmpw 7,0,5
 2845 104c 40BCFFE8 		bge- 7,.L170
 2846              	.LVL272:
 2847              	.LBE2636:
 2848              		.loc 2 608 0
 2849 1050 8129000C 		lwz 9,12(9)
 2850              	.LVL273:
 2851              	.LBB2637:
 2852              		.loc 1 1089 0
 2853 1054 2F890000 		cmpwi 7,9,0
 2854 1058 409EFFEC 		bne+ 7,.L156
 2855              	.L169:
 2856              	.LVL274:
 2857              	.LBE2637:
 2858              	.LBE2638:
 2859              		.loc 1 1539 0
 2860 105c 7F8B5000 		cmpw 7,11,10
 2861              		.loc 2 301 0
 2862 1060 38600000 		li 3,0
 2863              		.loc 1 1539 0
 2864 1064 4D9E0020 		beqlr- 7
 2865              	.LVL275:
 2866 1068 A80A0010 		lha 0,16(10)
 2867 106c 7F802800 		cmpw 7,0,5
 2868 1070 4DBD0020 		bgtlr+ 7
 2869              	.LVL276:
 2870              	.LBE2639:
 2871              	.LBE2640:
 2872              	.LBE2641:
 2873              		.loc 2 303 0
 2874 1074 54840536 		rlwinm 4,4,0,20,27
 2875              	.LVL277:
 2876 1078 2F840080 		cmpwi 7,4,128
 2877 107c 4D9E0020 		beqlr- 7
 2878 1080 409D0024 		ble- 7,.L171
 2879 1084 2F840200 		cmpwi 7,4,512
 2880 1088 419E0050 		beq- 7,.L161
 2881 108c 2F840400 		cmpwi 7,4,1024
 2882 1090 419E0040 		beq- 7,.L162
 2883 1094 2F840100 		cmpwi 7,4,256
 2884 1098 40BE001C 		bne+ 7,.L157
 2885              	.LVL278:
 2886              		.loc 2 319 0
 2887 109c A86A0016 		lha 3,22(10)
 2888 10a0 4E800020 		blr
 2889              	.LVL279:
 2890              	.L171:
 2891              		.loc 2 303 0
 2892 10a4 2F840010 		cmpwi 7,4,16
 2893 10a8 419E0054 		beq- 7,.L158
 2894 10ac 2F840040 		cmpwi 7,4,64
 2895 10b0 419E0044 		beq- 7,.L172
 2896              	.L157:
 2897              	.LVL280:
 2898              		.loc 2 310 0
 2899 10b4 A86A0012 		lha 3,18(10)
 2900 10b8 A80A0014 		lha 0,20(10)
 2901 10bc 7C630214 		add 3,3,0
 2902 10c0 38630001 		addi 3,3,1
 2903 10c4 7C630E70 		srawi 3,3,1
 2904 10c8 7C630734 		extsh 3,3
 2905 10cc 4E800020 		blr
 2906              	.LVL281:
 2907              	.L162:
 2908              		.loc 2 325 0
 2909 10d0 A86A0018 		lha 3,24(10)
 2910              	.LBE2642:
 2911              		.loc 2 328 0
 2912 10d4 4E800020 		blr
 2913              	.LVL282:
 2914              	.L161:
 2915              	.LBB2643:
 2916              		.loc 2 322 0
 2917 10d8 A86A0016 		lha 3,22(10)
 2918 10dc A80A0018 		lha 0,24(10)
 2919 10e0 7C630214 		add 3,3,0
 2920 10e4 38630001 		addi 3,3,1
 2921 10e8 7C630E70 		srawi 3,3,1
 2922 10ec 7C630734 		extsh 3,3
 2923 10f0 4E800020 		blr
 2924              	.LVL283:
 2925              	.L172:
 2926              		.loc 2 313 0
 2927 10f4 A86A0014 		lha 3,20(10)
 2928 10f8 4E800020 		blr
 2929              	.LVL284:
 2930              	.L158:
 2931              		.loc 2 306 0
 2932 10fc A86A0012 		lha 3,18(10)
 2933 1100 4E800020 		blr
 2934              	.LBE2643:
 2935              		.cfi_endproc
 2936              	.LFE558:
 2937              		.size	_ZN10FreeTypeGX20getStyleOffsetHeightEst, .-_ZN10FreeTypeGX20getStyleOffsetHeightEst
 2938              		.align 2
 2939              		.globl _ZN10FreeTypeGX24copyTextureToFramebufferEP10_gx_texobjffsss9_gx_color
 2940              		.type	_ZN10FreeTypeGX24copyTextureToFramebufferEP10_gx_texobjffsss9_gx_color, @function
 2941              	_ZN10FreeTypeGX24copyTextureToFramebufferEP10_gx_texobjffsss9_gx_color:
 2942              	.LFB565:
 2943              		.loc 2 547 0
 2944              		.cfi_startproc
 2945              	.LVL285:
 2946 1104 7C0802A6 		mflr 0
 2947 1108 9421FFB0 		stwu 1,-80(1)
 2948              	.LCFI32:
 2949              		.cfi_def_cfa_offset 80
 2950              		.cfi_register 65, 0
 2951 110c DBC10040 		stfd 30,64(1)
 2952 1110 FFC01090 		fmr 30,2
 2953              		.cfi_offset 62, -16
 2954 1114 DBE10048 		stfd 31,72(1)
 2955 1118 FFE00890 		fmr 31,1
 2956              		.cfi_offset 63, -8
 2957 111c 93010020 		stw 24,32(1)
 2958 1120 7CD83378 		mr 24,6
 2959              		.cfi_offset 24, -48
 2960 1124 93210024 		stw 25,36(1)
 2961 1128 93410028 		stw 26,40(1)
 2962 112c 9361002C 		stw 27,44(1)
 2963 1130 93810030 		stw 28,48(1)
 2964 1134 93A10034 		stw 29,52(1)
 2965 1138 7CFD3B78 		mr 29,7
 2966              		.cfi_offset 29, -28
 2967              		.cfi_offset 28, -32
 2968              		.cfi_offset 27, -36
 2969              		.cfi_offset 26, -40
 2970              		.cfi_offset 25, -44
 2971 113c 93C10038 		stw 30,56(1)
 2972 1140 7C7E1B78 		mr 30,3
 2973              		.cfi_offset 30, -24
 2974 1144 93E1003C 		stw 31,60(1)
 2975              		.loc 2 548 0
 2976 1148 7C832378 		mr 3,4
 2977              	.LVL286:
 2978              		.loc 2 547 0
 2979 114c 90010054 		stw 0,84(1)
 2980              		.loc 2 548 0
 2981 1150 38800000 		li 4,0
 2982              	.LVL287:
 2983              		.loc 2 547 0
 2984 1154 7CBF2B78 		mr 31,5
 2985              		.cfi_offset 65, 4
 2986              		.cfi_offset 31, -20
 2987 1158 80080000 		lwz 0,0(8)
 2988 115c 5419463E 		srwi 25,0,24
 2989              	.LVL288:
 2990 1160 541A863E 		rlwinm 26,0,16,24,31
 2991              	.LVL289:
 2992 1164 541BC63E 		rlwinm 27,0,24,24,31
 2993              	.LVL290:
 2994 1168 541C063E 		rlwinm 28,0,0,0xff
 2995              	.LVL291:
 2996              		.loc 2 548 0
 2997 116c 48000001 		bl GX_LoadTexObj
 2998              	.LVL292:
 2999              		.loc 2 549 0
 3000 1170 48000001 		bl GX_InvalidateTexAll
 3001              		.loc 2 551 0
 3002 1174 38600009 		li 3,9
 3003 1178 38800001 		li 4,1
 3004 117c 48000001 		bl GX_SetVtxDesc
 3005              		.loc 2 552 0
 3006 1180 3860000D 		li 3,13
 3007 1184 38800001 		li 4,1
 3008 1188 48000001 		bl GX_SetVtxDesc
 3009              		.loc 2 553 0
 3010 118c 3860000B 		li 3,11
 3011 1190 38800001 		li 4,1
 3012 1194 48000001 		bl GX_SetVtxDesc
 3013              		.loc 2 555 0
 3014 1198 889E000B 		lbz 4,11(30)
 3015 119c 38600080 		li 3,128
 3016 11a0 38A00004 		li 5,4
 3017 11a4 48000001 		bl GX_Begin
 3018              	.LVL293:
 3019              	.LBB2644:
 3020              	.LBB2645:
 3021              		.file 4 "d:/devkitPro/libogc/include/ogc/gx.h"
 3022              		.loc 4 2137 0
 3023 11a8 3D200000 		lis 9,wgPipe@ha
 3024 11ac 81290000 		lwz 9,wgPipe@l(9)
 3025              	.LBE2645:
 3026              	.LBE2644:
 3027              	.LBB2649:
 3028              	.LBB2650:
 3029              		.loc 4 2271 0
 3030 11b0 39600000 		li 11,0
 3031              	.LBE2650:
 3032              	.LBE2649:
 3033              		.loc 2 560 0
 3034 11b4 3D404330 		lis 10,0x4330
 3035 11b8 6FE08000 		xoris 0,31,0x8000
 3036              	.LBB2652:
 3037              	.LBB2646:
 3038              		.loc 4 2137 0
 3039 11bc B3E90000 		sth 31,0(9)
 3040              	.LBE2646:
 3041              	.LBE2652:
 3042              		.loc 2 560 0
 3043 11c0 3D000000 		lis 8,.LC1@ha
 3044              	.LBB2653:
 3045              	.LBB2647:
 3046              		.loc 4 2138 0
 3047 11c4 B3090000 		sth 24,0(9)
 3048              	.LBE2647:
 3049              	.LBE2653:
 3050              		.loc 2 564 0
 3051 11c8 6F078000 		xoris 7,24,0x8000
 3052              	.LBB2654:
 3053              	.LBB2648:
 3054              		.loc 4 2139 0
 3055 11cc B3A90000 		sth 29,0(9)
 3056              	.LVL294:
 3057              	.LBE2648:
 3058              	.LBE2654:
 3059              	.LBB2655:
 3060              	.LBB2656:
 3061              		.loc 4 2229 0
 3062 11d0 9B290000 		stb 25,0(9)
 3063              		.loc 4 2230 0
 3064 11d4 9B490000 		stb 26,0(9)
 3065              		.loc 4 2231 0
 3066 11d8 9B690000 		stb 27,0(9)
 3067              		.loc 4 2232 0
 3068 11dc 9B890000 		stb 28,0(9)
 3069              	.LVL295:
 3070              	.LBE2656:
 3071              	.LBE2655:
 3072              	.LBB2657:
 3073              	.LBB2651:
 3074              		.loc 4 2271 0
 3075 11e0 91690000 		stw 11,0(9)
 3076              		.loc 4 2272 0
 3077 11e4 91690000 		stw 11,0(9)
 3078              	.LBE2651:
 3079              	.LBE2657:
 3080              		.loc 2 560 0
 3081 11e8 9001000C 		stw 0,12(1)
 3082 11ec 91410008 		stw 10,8(1)
 3083 11f0 C0080000 		lfs 0,.LC1@l(8)
 3084              	.LBB2658:
 3085              	.LBB2659:
 3086              		.loc 4 2271 0
 3087 11f4 3D000000 		lis 8,.LC2@ha
 3088              	.LBE2659:
 3089              	.LBE2658:
 3090              		.loc 2 560 0
 3091 11f8 C9A10008 		lfd 13,8(1)
 3092              	.LBB2662:
 3093              	.LBB2660:
 3094              		.loc 4 2271 0
 3095 11fc 80080004 		lwz 0,.LC2@l(8)
 3096              	.LBE2660:
 3097              	.LBE2662:
 3098              		.loc 2 560 0
 3099 1200 39010018 		addi 8,1,24
 3100 1204 FDAD0028 		fsub 13,13,0
 3101 1208 FDA06818 		frsp 13,13
 3102 120c EFEDF82A 		fadds 31,13,31
 3103              	.LVL296:
 3104 1210 FFE0F81E 		fctiwz 31,31
 3105 1214 7FE047AE 		stfiwx 31,0,8
 3106 1218 81010018 		lwz 8,24(1)
 3107              	.LVL297:
 3108              	.LBB2663:
 3109              	.LBB2664:
 3110              		.loc 4 2137 0
 3111 121c B1090000 		sth 8,0(9)
 3112              		.loc 4 2138 0
 3113 1220 B3090000 		sth 24,0(9)
 3114              		.loc 4 2139 0
 3115 1224 B3A90000 		sth 29,0(9)
 3116              	.LVL298:
 3117              	.LBE2664:
 3118              	.LBE2663:
 3119              	.LBB2665:
 3120              	.LBB2666:
 3121              		.loc 4 2229 0
 3122 1228 9B290000 		stb 25,0(9)
 3123              		.loc 4 2230 0
 3124 122c 9B490000 		stb 26,0(9)
 3125              		.loc 4 2231 0
 3126 1230 9B690000 		stb 27,0(9)
 3127              		.loc 4 2232 0
 3128 1234 9B890000 		stb 28,0(9)
 3129              	.LVL299:
 3130              	.LBE2666:
 3131              	.LBE2665:
 3132              	.LBB2667:
 3133              	.LBB2661:
 3134              		.loc 4 2271 0
 3135 1238 90090000 		stw 0,0(9)
 3136              		.loc 4 2272 0
 3137 123c 91690000 		stw 11,0(9)
 3138              	.LBE2661:
 3139              	.LBE2667:
 3140              		.loc 2 564 0
 3141 1240 91410010 		stw 10,16(1)
 3142 1244 3941001C 		addi 10,1,28
 3143 1248 90E10014 		stw 7,20(1)
 3144 124c C9A10010 		lfd 13,16(1)
 3145 1250 FC0D0028 		fsub 0,13,0
 3146 1254 FC000018 		frsp 0,0
 3147 1258 EC00F02A 		fadds 0,0,30
 3148 125c FC00001E 		fctiwz 0,0
 3149 1260 7C0057AE 		stfiwx 0,0,10
 3150 1264 8141001C 		lwz 10,28(1)
 3151              	.LVL300:
 3152              	.LBB2668:
 3153              	.LBB2669:
 3154              		.loc 4 2137 0
 3155 1268 B1090000 		sth 8,0(9)
 3156              		.loc 4 2138 0
 3157 126c B1490000 		sth 10,0(9)
 3158              		.loc 4 2139 0
 3159 1270 B3A90000 		sth 29,0(9)
 3160              	.LVL301:
 3161              	.LBE2669:
 3162              	.LBE2668:
 3163              	.LBB2670:
 3164              	.LBB2671:
 3165              		.loc 4 2229 0
 3166 1274 9B290000 		stb 25,0(9)
 3167              		.loc 4 2230 0
 3168 1278 9B490000 		stb 26,0(9)
 3169              		.loc 4 2231 0
 3170 127c 9B690000 		stb 27,0(9)
 3171              		.loc 4 2232 0
 3172 1280 9B890000 		stb 28,0(9)
 3173              	.LVL302:
 3174              	.LBE2671:
 3175              	.LBE2670:
 3176              	.LBB2672:
 3177              	.LBB2673:
 3178              		.loc 4 2271 0
 3179 1284 90090000 		stw 0,0(9)
 3180              		.loc 4 2272 0
 3181 1288 90090000 		stw 0,0(9)
 3182              	.LVL303:
 3183              	.LBE2673:
 3184              	.LBE2672:
 3185              	.LBB2674:
 3186              	.LBB2675:
 3187              		.loc 4 2137 0
 3188 128c B3E90000 		sth 31,0(9)
 3189              		.loc 4 2138 0
 3190 1290 B1490000 		sth 10,0(9)
 3191              		.loc 4 2139 0
 3192 1294 B3A90000 		sth 29,0(9)
 3193              	.LVL304:
 3194              	.LBE2675:
 3195              	.LBE2674:
 3196              	.LBB2676:
 3197              	.LBB2677:
 3198              		.loc 4 2229 0
 3199 1298 9B290000 		stb 25,0(9)
 3200              		.loc 4 2230 0
 3201 129c 9B490000 		stb 26,0(9)
 3202              		.loc 4 2231 0
 3203 12a0 9B690000 		stb 27,0(9)
 3204              		.loc 4 2232 0
 3205 12a4 9B890000 		stb 28,0(9)
 3206              	.LVL305:
 3207              	.LBE2677:
 3208              	.LBE2676:
 3209              	.LBB2678:
 3210              	.LBB2679:
 3211              		.loc 4 2271 0
 3212 12a8 91690000 		stw 11,0(9)
 3213              		.loc 4 2272 0
 3214 12ac 90090000 		stw 0,0(9)
 3215              	.LBE2679:
 3216              	.LBE2678:
 3217              		.loc 2 572 0
 3218 12b0 80010054 		lwz 0,84(1)
 3219 12b4 83010020 		lwz 24,32(1)
 3220              	.LVL306:
 3221 12b8 7C0803A6 		mtlr 0
 3222 12bc 83210024 		lwz 25,36(1)
 3223              	.LVL307:
 3224 12c0 83410028 		lwz 26,40(1)
 3225              	.LVL308:
 3226 12c4 8361002C 		lwz 27,44(1)
 3227              	.LVL309:
 3228 12c8 83810030 		lwz 28,48(1)
 3229              	.LVL310:
 3230 12cc 83A10034 		lwz 29,52(1)
 3231              	.LVL311:
 3232 12d0 83C10038 		lwz 30,56(1)
 3233              	.LVL312:
 3234 12d4 83E1003C 		lwz 31,60(1)
 3235              	.LVL313:
 3236 12d8 CBC10040 		lfd 30,64(1)
 3237              	.LVL314:
 3238 12dc CBE10048 		lfd 31,72(1)
 3239 12e0 38210050 		addi 1,1,80
 3240              	.LCFI33:
 3241              		.cfi_def_cfa_offset 0
 3242              		.cfi_restore 63
 3243              		.cfi_restore 62
 3244              		.cfi_restore 31
 3245              		.cfi_restore 30
 3246              		.cfi_restore 29
 3247              		.cfi_restore 28
 3248              		.cfi_restore 27
 3249              		.cfi_restore 26
 3250              		.cfi_restore 25
 3251              		.cfi_restore 24
 3252 12e4 4E800020 		blr
 3253              		.cfi_endproc
 3254              	.LFE565:
 3255              		.size	_ZN10FreeTypeGX24copyTextureToFramebufferEP10_gx_texobjffsss9_gx_color, .-_ZN10FreeTypeGX24c
 3256              		.align 2
 3257              		.globl _ZN10FreeTypeGX24copyFeatureToFramebufferEffsss9_gx_color
 3258              		.type	_ZN10FreeTypeGX24copyFeatureToFramebufferEffsss9_gx_color, @function
 3259              	_ZN10FreeTypeGX24copyFeatureToFramebufferEffsss9_gx_color:
 3260              	.LFB566:
 3261              		.loc 2 587 0
 3262              		.cfi_startproc
 3263              	.LVL315:
 3264 12e8 7C0802A6 		mflr 0
 3265 12ec 9421FFB0 		stwu 1,-80(1)
 3266              	.LCFI34:
 3267              		.cfi_def_cfa_offset 80
 3268              		.cfi_register 65, 0
 3269 12f0 93A10034 		stw 29,52(1)
 3270 12f4 7C7D1B78 		mr 29,3
 3271              		.cfi_offset 29, -28
 3272 12f8 90010054 		stw 0,84(1)
 3273              		.loc 2 588 0
 3274 12fc 38600000 		li 3,0
 3275              	.LVL316:
 3276              		.loc 2 587 0
 3277 1300 80070000 		lwz 0,0(7)
 3278              		.cfi_offset 65, 4
 3279 1304 93E1003C 		stw 31,60(1)
 3280 1308 7C9F2378 		mr 31,4
 3281              		.cfi_offset 31, -20
 3282              		.loc 2 588 0
 3283 130c 38800004 		li 4,4
 3284              	.LVL317:
 3285              		.loc 2 587 0
 3286 1310 DBC10040 		stfd 30,64(1)
 3287 1314 DBE10048 		stfd 31,72(1)
 3288 1318 FFC01090 		fmr 30,2
 3289              		.cfi_offset 63, -8
 3290              		.cfi_offset 62, -16
 3291 131c FFE00890 		fmr 31,1
 3292 1320 93010020 		stw 24,32(1)
 3293 1324 93210024 		stw 25,36(1)
 3294 1328 7CD83378 		mr 24,6
 3295              		.cfi_offset 25, -44
 3296              		.cfi_offset 24, -48
 3297 132c 5419463E 		srwi 25,0,24
 3298              	.LVL318:
 3299 1330 93410028 		stw 26,40(1)
 3300 1334 9361002C 		stw 27,44(1)
 3301 1338 541A863E 		rlwinm 26,0,16,24,31
 3302              		.cfi_offset 27, -36
 3303              		.cfi_offset 26, -40
 3304              	.LVL319:
 3305 133c 541BC63E 		rlwinm 27,0,24,24,31
 3306              	.LVL320:
 3307 1340 93810030 		stw 28,48(1)
 3308 1344 93C10038 		stw 30,56(1)
 3309              	.LVL321:
 3310              		.loc 2 587 0
 3311 1348 541C063E 		rlwinm 28,0,0,0xff
 3312              		.cfi_offset 30, -24
 3313              		.cfi_offset 28, -32
 3314              	.LVL322:
 3315 134c 7CBE2B78 		mr 30,5
 3316              		.loc 2 588 0
 3317 1350 48000001 		bl GX_SetTevOp
 3318              	.LVL323:
 3319              		.loc 2 589 0
 3320 1354 38600009 		li 3,9
 3321 1358 38800001 		li 4,1
 3322 135c 48000001 		bl GX_SetVtxDesc
 3323              		.loc 2 590 0
 3324 1360 3860000B 		li 3,11
 3325 1364 38800001 		li 4,1
 3326 1368 48000001 		bl GX_SetVtxDesc
 3327              		.loc 2 591 0
 3328 136c 3860000D 		li 3,13
 3329 1370 38800000 		li 4,0
 3330 1374 48000001 		bl GX_SetVtxDesc
 3331              		.loc 2 593 0
 3332 1378 889D000B 		lbz 4,11(29)
 3333 137c 38600080 		li 3,128
 3334 1380 38A00004 		li 5,4
 3335 1384 48000001 		bl GX_Begin
 3336              	.LVL324:
 3337              	.LBB2680:
 3338              	.LBB2681:
 3339              		.loc 4 2137 0
 3340 1388 3D200000 		lis 9,wgPipe@ha
 3341 138c 81290000 		lwz 9,wgPipe@l(9)
 3342              	.LBE2681:
 3343              	.LBE2680:
 3344              		.loc 2 597 0
 3345 1390 3C004330 		lis 0,0x4330
 3346 1394 6FEB8000 		xoris 11,31,0x8000
 3347              		.loc 2 600 0
 3348 1398 6FCA8000 		xoris 10,30,0x8000
 3349              	.LBB2685:
 3350              	.LBB2682:
 3351              		.loc 4 2137 0
 3352 139c B3E90000 		sth 31,0(9)
 3353              	.LBE2682:
 3354              	.LBE2685:
 3355              		.loc 2 607 0
 3356 13a0 38600000 		li 3,0
 3357              	.LBB2686:
 3358              	.LBB2683:
 3359              		.loc 4 2138 0
 3360 13a4 B3C90000 		sth 30,0(9)
 3361              	.LBE2683:
 3362              	.LBE2686:
 3363              		.loc 2 607 0
 3364 13a8 38800000 		li 4,0
 3365              	.LBB2687:
 3366              	.LBB2684:
 3367              		.loc 4 2139 0
 3368 13ac B3090000 		sth 24,0(9)
 3369              	.LVL325:
 3370              	.LBE2684:
 3371              	.LBE2687:
 3372              	.LBB2688:
 3373              	.LBB2689:
 3374              		.loc 4 2229 0
 3375 13b0 9B290000 		stb 25,0(9)
 3376              		.loc 4 2230 0
 3377 13b4 9B490000 		stb 26,0(9)
 3378              		.loc 4 2231 0
 3379 13b8 9B690000 		stb 27,0(9)
 3380              		.loc 4 2232 0
 3381 13bc 9B890000 		stb 28,0(9)
 3382              	.LBE2689:
 3383              	.LBE2688:
 3384              		.loc 2 597 0
 3385 13c0 9161000C 		stw 11,12(1)
 3386 13c4 3D600000 		lis 11,.LC1@ha
 3387 13c8 90010008 		stw 0,8(1)
 3388 13cc C00B0000 		lfs 0,.LC1@l(11)
 3389 13d0 39610018 		addi 11,1,24
 3390 13d4 C9A10008 		lfd 13,8(1)
 3391 13d8 FDAD0028 		fsub 13,13,0
 3392 13dc FDA06818 		frsp 13,13
 3393 13e0 EFEDF82A 		fadds 31,13,31
 3394              	.LVL326:
 3395 13e4 FFE0F81E 		fctiwz 31,31
 3396 13e8 7FE05FAE 		stfiwx 31,0,11
 3397 13ec 81610018 		lwz 11,24(1)
 3398              	.LVL327:
 3399              	.LBB2690:
 3400              	.LBB2691:
 3401              		.loc 4 2137 0
 3402 13f0 B1690000 		sth 11,0(9)
 3403              		.loc 4 2138 0
 3404 13f4 B3C90000 		sth 30,0(9)
 3405              		.loc 4 2139 0
 3406 13f8 B3090000 		sth 24,0(9)
 3407              	.LVL328:
 3408              	.LBE2691:
 3409              	.LBE2690:
 3410              	.LBB2692:
 3411              	.LBB2693:
 3412              		.loc 4 2229 0
 3413 13fc 9B290000 		stb 25,0(9)
 3414              		.loc 4 2230 0
 3415 1400 9B490000 		stb 26,0(9)
 3416              		.loc 4 2231 0
 3417 1404 9B690000 		stb 27,0(9)
 3418              		.loc 4 2232 0
 3419 1408 9B890000 		stb 28,0(9)
 3420              	.LBE2693:
 3421              	.LBE2692:
 3422              		.loc 2 600 0
 3423 140c 91410014 		stw 10,20(1)
 3424 1410 3941001C 		addi 10,1,28
 3425 1414 90010010 		stw 0,16(1)
 3426 1418 C9A10010 		lfd 13,16(1)
 3427 141c FC0D0028 		fsub 0,13,0
 3428 1420 FC000018 		frsp 0,0
 3429 1424 EC00F02A 		fadds 0,0,30
 3430 1428 FC00001E 		fctiwz 0,0
 3431 142c 7C0057AE 		stfiwx 0,0,10
 3432 1430 8001001C 		lwz 0,28(1)
 3433              	.LVL329:
 3434              	.LBB2694:
 3435              	.LBB2695:
 3436              		.loc 4 2137 0
 3437 1434 B1690000 		sth 11,0(9)
 3438              		.loc 4 2138 0
 3439 1438 B0090000 		sth 0,0(9)
 3440              		.loc 4 2139 0
 3441 143c B3090000 		sth 24,0(9)
 3442              	.LVL330:
 3443              	.LBE2695:
 3444              	.LBE2694:
 3445              	.LBB2696:
 3446              	.LBB2697:
 3447              		.loc 4 2229 0
 3448 1440 9B290000 		stb 25,0(9)
 3449              		.loc 4 2230 0
 3450 1444 9B490000 		stb 26,0(9)
 3451              		.loc 4 2231 0
 3452 1448 9B690000 		stb 27,0(9)
 3453              		.loc 4 2232 0
 3454 144c 9B890000 		stb 28,0(9)
 3455              	.LVL331:
 3456              	.LBE2697:
 3457              	.LBE2696:
 3458              	.LBB2698:
 3459              	.LBB2699:
 3460              		.loc 4 2137 0
 3461 1450 B3E90000 		sth 31,0(9)
 3462              		.loc 4 2138 0
 3463 1454 B0090000 		sth 0,0(9)
 3464              		.loc 4 2139 0
 3465 1458 B3090000 		sth 24,0(9)
 3466              	.LVL332:
 3467              	.LBE2699:
 3468              	.LBE2698:
 3469              	.LBB2700:
 3470              	.LBB2701:
 3471              		.loc 4 2229 0
 3472 145c 9B290000 		stb 25,0(9)
 3473              		.loc 4 2230 0
 3474 1460 9B490000 		stb 26,0(9)
 3475              		.loc 4 2231 0
 3476 1464 9B690000 		stb 27,0(9)
 3477              		.loc 4 2232 0
 3478 1468 9B890000 		stb 28,0(9)
 3479              	.LBE2701:
 3480              	.LBE2700:
 3481              		.loc 2 607 0
 3482 146c 48000001 		bl GX_SetTevOp
 3483              	.LVL333:
 3484              		.loc 2 608 0
 3485 1470 80010054 		lwz 0,84(1)
 3486 1474 83010020 		lwz 24,32(1)
 3487              	.LVL334:
 3488 1478 7C0803A6 		mtlr 0
 3489 147c 83210024 		lwz 25,36(1)
 3490              	.LVL335:
 3491 1480 83410028 		lwz 26,40(1)
 3492              	.LVL336:
 3493 1484 8361002C 		lwz 27,44(1)
 3494              	.LVL337:
 3495 1488 83810030 		lwz 28,48(1)
 3496              	.LVL338:
 3497 148c 83A10034 		lwz 29,52(1)
 3498              	.LVL339:
 3499 1490 83C10038 		lwz 30,56(1)
 3500              	.LVL340:
 3501 1494 83E1003C 		lwz 31,60(1)
 3502              	.LVL341:
 3503 1498 CBC10040 		lfd 30,64(1)
 3504              	.LVL342:
 3505 149c CBE10048 		lfd 31,72(1)
 3506              	.LVL343:
 3507 14a0 38210050 		addi 1,1,80
 3508              	.LCFI35:
 3509              		.cfi_def_cfa_offset 0
 3510              		.cfi_restore 63
 3511              		.cfi_restore 62
 3512              		.cfi_restore 31
 3513              		.cfi_restore 30
 3514              		.cfi_restore 29
 3515              		.cfi_restore 28
 3516              		.cfi_restore 27
 3517              		.cfi_restore 26
 3518              		.cfi_restore 25
 3519              		.cfi_restore 24
 3520 14a4 4E800020 		blr
 3521              		.cfi_endproc
 3522              	.LFE566:
 3523              		.size	_ZN10FreeTypeGX24copyFeatureToFramebufferEffsss9_gx_color, .-_ZN10FreeTypeGX24copyFeatureToF
 3524              		.align 2
 3525              		.globl _ZN10FreeTypeGX15drawTextFeatureEsssstP15ftgxDataOffset_t9_gx_color
 3526              		.type	_ZN10FreeTypeGX15drawTextFeatureEsssstP15ftgxDataOffset_t9_gx_color, @function
 3527              	_ZN10FreeTypeGX15drawTextFeatureEsssstP15ftgxDataOffset_t9_gx_color:
 3528              	.LFB560:
 3529              		.loc 2 401 0
 3530              		.cfi_startproc
 3531              	.LVL344:
 3532 14a8 7C0802A6 		mflr 0
 3533 14ac 9421FFA8 		stwu 1,-88(1)
 3534              	.LCFI36:
 3535              		.cfi_def_cfa_offset 88
 3536              		.cfi_register 65, 0
 3537              	.LBB2703:
 3538              		.loc 2 402 0
 3539 14b0 7CE72671 		srawi. 7,7,4
 3540              	.LVL345:
 3541              	.LBE2703:
 3542              		.loc 2 401 0
 3543 14b4 93810048 		stw 28,72(1)
 3544 14b8 7CBC2B78 		mr 28,5
 3545              		.cfi_offset 28, -16
 3546 14bc 93A1004C 		stw 29,76(1)
 3547 14c0 7C7D1B78 		mr 29,3
 3548              		.cfi_offset 29, -12
 3549 14c4 93C10050 		stw 30,80(1)
 3550 14c8 7C9E2378 		mr 30,4
 3551              		.cfi_offset 30, -8
 3552 14cc 93E10054 		stw 31,84(1)
 3553 14d0 7CDF3378 		mr 31,6
 3554              		.cfi_offset 31, -4
 3555 14d4 9001005C 		stw 0,92(1)
 3556 14d8 93410040 		stw 26,64(1)
 3557 14dc 93610044 		stw 27,68(1)
 3558              		.loc 2 401 0
 3559 14e0 81610060 		lwz 11,96(1)
 3560              	.LVL346:
 3561 14e4 836B0000 		lwz 27,0(11)
 3562              		.cfi_offset 27, -20
 3563              		.cfi_offset 26, -24
 3564              		.cfi_offset 65, 4
 3565              	.LBB2704:
 3566              		.loc 2 402 0
 3567 14e8 4081010C 		ble- 0,.L179
 3568              	.L176:
 3569              		.loc 2 404 0
 3570 14ec 71401000 		andi. 0,10,4096
 3571              		.loc 2 402 0
 3572 14f0 54FA043E 		rlwinm 26,7,0,0xffff
 3573              	.LVL347:
 3574              		.loc 2 404 0
 3575 14f4 40820090 		bne- 0,.L180
 3576              	.LVL348:
 3577              	.L177:
 3578              		.loc 2 406 0
 3579 14f8 71402000 		andi. 0,10,8192
 3580 14fc 41A20060 		beq+ 0,.L175
 3581              		.loc 2 407 0
 3582 1500 3C004330 		lis 0,0x4330
 3583 1504 91010024 		stw 8,36(1)
 3584 1508 90010020 		stw 0,32(1)
 3585 150c 3D600000 		lis 11,.LC4@ha
 3586 1510 9341002C 		stw 26,44(1)
 3587 1514 7FA3EB78 		mr 3,29
 3588 1518 90010028 		stw 0,40(1)
 3589 151c 7FC4F378 		mr 4,30
 3590 1520 C00B0008 		lfs 0,.LC4@l(11)
 3591 1524 7FE6FB78 		mr 6,31
 3592 1528 C8210020 		lfd 1,32(1)
 3593 152c 38E10008 		addi 7,1,8
 3594 1530 C8410028 		lfd 2,40(1)
 3595 1534 FC210028 		fsub 1,1,0
 3596 1538 A8090004 		lha 0,4(9)
 3597 153c FC420028 		fsub 2,2,0
 3598 1540 93610008 		stw 27,8(1)
 3599 1544 7C000E70 		srawi 0,0,1
 3600 1548 FC200818 		frsp 1,1
 3601 154c 7F80E050 		subf 28,0,28
 3602 1550 FC401018 		frsp 2,2
 3603 1554 7F850734 		extsh 5,28
 3604 1558 48000001 		bl _ZN10FreeTypeGX24copyFeatureToFramebufferEffsss9_gx_color
 3605              	.L175:
 3606              	.LBE2704:
 3607              		.loc 2 408 0
 3608 155c 8001005C 		lwz 0,92(1)
 3609 1560 83410040 		lwz 26,64(1)
 3610              	.LVL349:
 3611 1564 7C0803A6 		mtlr 0
 3612 1568 83610044 		lwz 27,68(1)
 3613 156c 83810048 		lwz 28,72(1)
 3614 1570 83A1004C 		lwz 29,76(1)
 3615              	.LVL350:
 3616 1574 83C10050 		lwz 30,80(1)
 3617 1578 83E10054 		lwz 31,84(1)
 3618 157c 38210058 		addi 1,1,88
 3619              		.cfi_remember_state
 3620              	.LCFI37:
 3621              		.cfi_def_cfa_offset 0
 3622              		.cfi_restore 31
 3623              		.cfi_restore 30
 3624              		.cfi_restore 29
 3625              		.cfi_restore 28
 3626              		.cfi_restore 27
 3627              		.cfi_restore 26
 3628 1580 4E800020 		blr
 3629              	.LVL351:
 3630              	.L180:
 3631              	.LCFI38:
 3632              		.cfi_restore_state
 3633              	.LBB2705:
 3634              		.loc 2 404 0 discriminator 1
 3635 1584 3C004330 		lis 0,0x4330
 3636 1588 91010014 		stw 8,20(1)
 3637 158c 90010010 		stw 0,16(1)
 3638 1590 3D600000 		lis 11,.LC4@ha
 3639 1594 9341001C 		stw 26,28(1)
 3640 1598 38BC0001 		addi 5,28,1
 3641              	.LVL352:
 3642 159c 90010018 		stw 0,24(1)
 3643 15a0 7FA3EB78 		mr 3,29
 3644              	.LVL353:
 3645 15a4 C00B0008 		lfs 0,.LC4@l(11)
 3646 15a8 7FC4F378 		mr 4,30
 3647              	.LVL354:
 3648 15ac C8210010 		lfd 1,16(1)
 3649 15b0 7CA50734 		extsh 5,5
 3650 15b4 C8410018 		lfd 2,24(1)
 3651 15b8 7FE6FB78 		mr 6,31
 3652              	.LVL355:
 3653 15bc FC210028 		fsub 1,1,0
 3654 15c0 38E10008 		addi 7,1,8
 3655 15c4 FC420028 		fsub 2,2,0
 3656 15c8 91010030 		stw 8,48(1)
 3657 15cc 91210034 		stw 9,52(1)
 3658 15d0 FC200818 		frsp 1,1
 3659 15d4 91410038 		stw 10,56(1)
 3660 15d8 FC401018 		frsp 2,2
 3661 15dc 93610008 		stw 27,8(1)
 3662 15e0 48000001 		bl _ZN10FreeTypeGX24copyFeatureToFramebufferEffsss9_gx_color
 3663              	.LVL356:
 3664 15e4 81410038 		lwz 10,56(1)
 3665 15e8 81210034 		lwz 9,52(1)
 3666 15ec 81010030 		lwz 8,48(1)
 3667 15f0 4BFFFF08 		b .L177
 3668              	.LVL357:
 3669              	.L179:
 3670              		.loc 2 402 0
 3671 15f4 38E00001 		li 7,1
 3672 15f8 4BFFFEF4 		b .L176
 3673              	.LBE2705:
 3674              		.cfi_endproc
 3675              	.LFE560:
 3676              		.size	_ZN10FreeTypeGX15drawTextFeatureEsssstP15ftgxDataOffset_t9_gx_color, .-_ZN10FreeTypeGX15draw
 3677              		.section	.text._ZNSt8_Rb_treeIsSt4pairIKs15ftgxDataOffset_ESt10_Select1stIS3_ESt4lessIsESaIS3_EE8_
 3678              		.align 2
 3679              		.weak	_ZNSt8_Rb_treeIsSt4pairIKs15ftgxDataOffset_ESt10_Select1stIS3_ESt4lessIsESaIS3_EE8_M_eraseEP
 3680              		.type	_ZNSt8_Rb_treeIsSt4pairIKs15ftgxDataOffset_ESt10_Select1stIS3_ESt4lessIsESaIS3_EE8_M_eraseEP
 3681              	_ZNSt8_Rb_treeIsSt4pairIKs15ftgxDataOffset_ESt10_Select1stIS3_ESt4lessIsESaIS3_EE8_M_eraseEPSt13_Rb
 3682              	.LFB635:
 3683              		.loc 1 1068 0
 3684              		.cfi_startproc
 3685              	.LVL358:
 3686 0000 9421FFC8 		stwu 1,-56(1)
 3687              	.LCFI39:
 3688              		.cfi_def_cfa_offset 56
 3689 0004 7C0802A6 		mflr 0
 3690 0008 92C10010 		stw 22,16(1)
 3691              	.LBB2852:
 3692              		.loc 1 1072 0
 3693 000c 7C962379 		mr. 22,4
 3694              		.cfi_offset 22, -40
 3695              		.cfi_register 65, 0
 3696              	.LBE2852:
 3697              		.loc 1 1068 0
 3698 0010 93C10030 		stw 30,48(1)
 3699 0014 7C7E1B78 		mr 30,3
 3700              		.cfi_offset 30, -8
 3701 0018 9001003C 		stw 0,60(1)
 3702 001c 92A1000C 		stw 21,12(1)
 3703 0020 92E10014 		stw 23,20(1)
 3704 0024 93010018 		stw 24,24(1)
 3705 0028 9321001C 		stw 25,28(1)
 3706 002c 93410020 		stw 26,32(1)
 3707 0030 93610024 		stw 27,36(1)
 3708 0034 93810028 		stw 28,40(1)
 3709 0038 93A1002C 		stw 29,44(1)
 3710 003c 93E10034 		stw 31,52(1)
 3711              	.LBB2937:
 3712              		.loc 1 1072 0
 3713 0040 41820168 		beq- 0,.L181
 3714              		.cfi_offset 31, -4
 3715              		.cfi_offset 29, -12
 3716              		.cfi_offset 28, -16
 3717              		.cfi_offset 27, -20
 3718              		.cfi_offset 26, -24
 3719              		.cfi_offset 25, -28
 3720              		.cfi_offset 24, -32
 3721              		.cfi_offset 23, -36
 3722              		.cfi_offset 21, -44
 3723              		.cfi_offset 65, 4
 3724              	.LVL359:
 3725              	.L236:
 3726              		.loc 2 608 0
 3727 0044 8376000C 		lwz 27,12(22)
 3728              	.LVL360:
 3729              	.LBB2853:
 3730              	.LBB2854:
 3731              	.LBB2855:
 3732              		.loc 1 1072 0
 3733 0048 2F9B0000 		cmpwi 7,27,0
 3734 004c 419E0140 		beq- 7,.L183
 3735              	.LVL361:
 3736              	.L237:
 3737              	.LBE2855:
 3738              		.loc 2 608 0
 3739 0050 835B000C 		lwz 26,12(27)
 3740              	.LVL362:
 3741              	.LBB2931:
 3742              	.LBB2856:
 3743              	.LBB2857:
 3744              	.LBB2858:
 3745              		.loc 1 1072 0
 3746 0054 2F9A0000 		cmpwi 7,26,0
 3747 0058 419E0118 		beq- 7,.L184
 3748              	.LVL363:
 3749              	.L238:
 3750              	.LBE2858:
 3751              		.loc 2 608 0
 3752 005c 833A000C 		lwz 25,12(26)
 3753              	.LVL364:
 3754              	.LBB2924:
 3755              	.LBB2859:
 3756              	.LBB2860:
 3757              	.LBB2861:
 3758              		.loc 1 1072 0
 3759 0060 2F990000 		cmpwi 7,25,0
 3760 0064 419E00F0 		beq- 7,.L185
 3761              	.LVL365:
 3762              	.L239:
 3763              	.LBE2861:
 3764              		.loc 2 608 0
 3765 0068 8319000C 		lwz 24,12(25)
 3766              	.LVL366:
 3767              	.LBB2917:
 3768              	.LBB2862:
 3769              	.LBB2863:
 3770              	.LBB2864:
 3771              		.loc 1 1072 0
 3772 006c 2F980000 		cmpwi 7,24,0
 3773 0070 419E00C8 		beq- 7,.L186
 3774              	.LVL367:
 3775              	.L240:
 3776              	.LBE2864:
 3777              		.loc 2 608 0
 3778 0074 82F8000C 		lwz 23,12(24)
 3779              	.LVL368:
 3780              	.LBB2910:
 3781              	.LBB2865:
 3782              	.LBB2866:
 3783              	.LBB2867:
 3784              		.loc 1 1072 0
 3785 0078 2F970000 		cmpwi 7,23,0
 3786 007c 419E00A0 		beq- 7,.L187
 3787              	.LVL369:
 3788              	.L241:
 3789              	.LBE2867:
 3790              		.loc 2 608 0
 3791 0080 8397000C 		lwz 28,12(23)
 3792              	.LVL370:
 3793              	.LBB2903:
 3794              	.LBB2868:
 3795              	.LBB2869:
 3796              	.LBB2870:
 3797              		.loc 1 1072 0
 3798 0084 2F9C0000 		cmpwi 7,28,0
 3799 0088 419E0078 		beq- 7,.L188
 3800              	.LVL371:
 3801              	.L242:
 3802              	.LBE2870:
 3803              		.loc 2 608 0
 3804 008c 83BC000C 		lwz 29,12(28)
 3805              	.LVL372:
 3806              	.LBB2896:
 3807              	.LBB2871:
 3808              	.LBB2872:
 3809              	.LBB2873:
 3810              		.loc 1 1072 0
 3811 0090 2F9D0000 		cmpwi 7,29,0
 3812 0094 419E0050 		beq- 7,.L189
 3813              	.LVL373:
 3814              	.L243:
 3815              	.LBE2873:
 3816              		.loc 2 608 0
 3817 0098 83FD000C 		lwz 31,12(29)
 3818              	.LVL374:
 3819              	.LBB2889:
 3820              	.LBB2874:
 3821              	.LBB2875:
 3822              	.LBB2876:
 3823              		.loc 1 1072 0
 3824 009c 2F9F0000 		cmpwi 7,31,0
 3825 00a0 419E0028 		beq- 7,.L190
 3826              	.LVL375:
 3827              	.L244:
 3828              	.LBB2877:
 3829              		.loc 1 1074 0
 3830 00a4 809F000C 		lwz 4,12(31)
 3831 00a8 7FC3F378 		mr 3,30
 3832 00ac 48000001 		bl _ZNSt8_Rb_treeIsSt4pairIKs15ftgxDataOffset_ESt10_Select1stIS3_ESt4lessIsESaIS3_EE8_M_eraseEPSt1
 3833              	.LBE2877:
 3834              	.LBE2876:
 3835              		.loc 2 608 0
 3836 00b0 82BF0008 		lwz 21,8(31)
 3837              	.LVL376:
 3838              	.LBB2883:
 3839              	.LBB2882:
 3840              	.LBB2878:
 3841              	.LBB2879:
 3842              	.LBB2880:
 3843              	.LBB2881:
 3844              		.loc 3 98 0
 3845 00b4 7FE3FB78 		mr 3,31
 3846 00b8 48000001 		bl _ZdlPv
 3847              	.LVL377:
 3848              	.LBE2881:
 3849              	.LBE2880:
 3850              	.LBE2879:
 3851              	.LBE2878:
 3852              	.LBE2882:
 3853              		.loc 1 1072 0
 3854 00bc 2F950000 		cmpwi 7,21,0
 3855              		.loc 1 1077 0
 3856 00c0 7EBFAB78 		mr 31,21
 3857              	.LVL378:
 3858              		.loc 1 1072 0
 3859 00c4 409EFFE0 		bne+ 7,.L244
 3860              	.LVL379:
 3861              	.L190:
 3862              	.LBE2883:
 3863              	.LBE2875:
 3864              	.LBE2874:
 3865              	.LBE2889:
 3866              		.loc 2 608 0
 3867 00c8 83FD0008 		lwz 31,8(29)
 3868              	.LVL380:
 3869              	.LBB2890:
 3870              	.LBB2888:
 3871              	.LBB2884:
 3872              	.LBB2885:
 3873              	.LBB2886:
 3874              	.LBB2887:
 3875              		.loc 3 98 0
 3876 00cc 7FA3EB78 		mr 3,29
 3877 00d0 48000001 		bl _ZdlPv
 3878              	.LVL381:
 3879              	.LBE2887:
 3880              	.LBE2886:
 3881              	.LBE2885:
 3882              	.LBE2884:
 3883              	.LBE2888:
 3884              		.loc 1 1072 0
 3885 00d4 2F9F0000 		cmpwi 7,31,0
 3886 00d8 419E000C 		beq- 7,.L189
 3887              		.loc 1 1077 0
 3888 00dc 7FFDFB78 		mr 29,31
 3889              	.LVL382:
 3890 00e0 4BFFFFB8 		b .L243
 3891              	.LVL383:
 3892              	.L189:
 3893              	.LBE2890:
 3894              	.LBE2872:
 3895              	.LBE2871:
 3896              	.LBE2896:
 3897              		.loc 2 608 0
 3898 00e4 83FC0008 		lwz 31,8(28)
 3899              	.LVL384:
 3900              	.LBB2897:
 3901              	.LBB2895:
 3902              	.LBB2891:
 3903              	.LBB2892:
 3904              	.LBB2893:
 3905              	.LBB2894:
 3906              		.loc 3 98 0
 3907 00e8 7F83E378 		mr 3,28
 3908 00ec 48000001 		bl _ZdlPv
 3909              	.LVL385:
 3910              	.LBE2894:
 3911              	.LBE2893:
 3912              	.LBE2892:
 3913              	.LBE2891:
 3914              	.LBE2895:
 3915              		.loc 1 1072 0
 3916 00f0 2F9F0000 		cmpwi 7,31,0
 3917 00f4 419E000C 		beq- 7,.L188
 3918              		.loc 1 1077 0
 3919 00f8 7FFCFB78 		mr 28,31
 3920              	.LVL386:
 3921 00fc 4BFFFF90 		b .L242
 3922              	.LVL387:
 3923              	.L188:
 3924              	.LBE2897:
 3925              	.LBE2869:
 3926              	.LBE2868:
 3927              	.LBE2903:
 3928              		.loc 2 608 0
 3929 0100 83F70008 		lwz 31,8(23)
 3930              	.LVL388:
 3931              	.LBB2904:
 3932              	.LBB2902:
 3933              	.LBB2898:
 3934              	.LBB2899:
 3935              	.LBB2900:
 3936              	.LBB2901:
 3937              		.loc 3 98 0
 3938 0104 7EE3BB78 		mr 3,23
 3939 0108 48000001 		bl _ZdlPv
 3940              	.LVL389:
 3941              	.LBE2901:
 3942              	.LBE2900:
 3943              	.LBE2899:
 3944              	.LBE2898:
 3945              	.LBE2902:
 3946              		.loc 1 1072 0
 3947 010c 2F9F0000 		cmpwi 7,31,0
 3948 0110 419E000C 		beq- 7,.L187
 3949              		.loc 1 1077 0
 3950 0114 7FF7FB78 		mr 23,31
 3951              	.LVL390:
 3952 0118 4BFFFF68 		b .L241
 3953              	.LVL391:
 3954              	.L187:
 3955              	.LBE2904:
 3956              	.LBE2866:
 3957              	.LBE2865:
 3958              	.LBE2910:
 3959              		.loc 2 608 0
 3960 011c 83F80008 		lwz 31,8(24)
 3961              	.LVL392:
 3962              	.LBB2911:
 3963              	.LBB2909:
 3964              	.LBB2905:
 3965              	.LBB2906:
 3966              	.LBB2907:
 3967              	.LBB2908:
 3968              		.loc 3 98 0
 3969 0120 7F03C378 		mr 3,24
 3970 0124 48000001 		bl _ZdlPv
 3971              	.LVL393:
 3972              	.LBE2908:
 3973              	.LBE2907:
 3974              	.LBE2906:
 3975              	.LBE2905:
 3976              	.LBE2909:
 3977              		.loc 1 1072 0
 3978 0128 2F9F0000 		cmpwi 7,31,0
 3979 012c 419E000C 		beq- 7,.L186
 3980              		.loc 1 1077 0
 3981 0130 7FF8FB78 		mr 24,31
 3982              	.LVL394:
 3983 0134 4BFFFF40 		b .L240
 3984              	.LVL395:
 3985              	.L186:
 3986              	.LBE2911:
 3987              	.LBE2863:
 3988              	.LBE2862:
 3989              	.LBE2917:
 3990              		.loc 2 608 0
 3991 0138 83F90008 		lwz 31,8(25)
 3992              	.LVL396:
 3993              	.LBB2918:
 3994              	.LBB2916:
 3995              	.LBB2912:
 3996              	.LBB2913:
 3997              	.LBB2914:
 3998              	.LBB2915:
 3999              		.loc 3 98 0
 4000 013c 7F23CB78 		mr 3,25
 4001 0140 48000001 		bl _ZdlPv
 4002              	.LVL397:
 4003              	.LBE2915:
 4004              	.LBE2914:
 4005              	.LBE2913:
 4006              	.LBE2912:
 4007              	.LBE2916:
 4008              		.loc 1 1072 0
 4009 0144 2F9F0000 		cmpwi 7,31,0
 4010 0148 419E000C 		beq- 7,.L185
 4011              		.loc 1 1077 0
 4012 014c 7FF9FB78 		mr 25,31
 4013              	.LVL398:
 4014 0150 4BFFFF18 		b .L239
 4015              	.LVL399:
 4016              	.L185:
 4017              	.LBE2918:
 4018              	.LBE2860:
 4019              	.LBE2859:
 4020              	.LBE2924:
 4021              		.loc 2 608 0
 4022 0154 83FA0008 		lwz 31,8(26)
 4023              	.LVL400:
 4024              	.LBB2925:
 4025              	.LBB2923:
 4026              	.LBB2919:
 4027              	.LBB2920:
 4028              	.LBB2921:
 4029              	.LBB2922:
 4030              		.loc 3 98 0
 4031 0158 7F43D378 		mr 3,26
 4032 015c 48000001 		bl _ZdlPv
 4033              	.LVL401:
 4034              	.LBE2922:
 4035              	.LBE2921:
 4036              	.LBE2920:
 4037              	.LBE2919:
 4038              	.LBE2923:
 4039              		.loc 1 1072 0
 4040 0160 2F9F0000 		cmpwi 7,31,0
 4041 0164 419E000C 		beq- 7,.L184
 4042              		.loc 1 1077 0
 4043 0168 7FFAFB78 		mr 26,31
 4044              	.LVL402:
 4045 016c 4BFFFEF0 		b .L238
 4046              	.LVL403:
 4047              	.L184:
 4048              	.LBE2925:
 4049              	.LBE2857:
 4050              	.LBE2856:
 4051              	.LBE2931:
 4052              		.loc 2 608 0
 4053 0170 83FB0008 		lwz 31,8(27)
 4054              	.LVL404:
 4055              	.LBB2932:
 4056              	.LBB2930:
 4057              	.LBB2926:
 4058              	.LBB2927:
 4059              	.LBB2928:
 4060              	.LBB2929:
 4061              		.loc 3 98 0
 4062 0174 7F63DB78 		mr 3,27
 4063 0178 48000001 		bl _ZdlPv
 4064              	.LVL405:
 4065              	.LBE2929:
 4066              	.LBE2928:
 4067              	.LBE2927:
 4068              	.LBE2926:
 4069              	.LBE2930:
 4070              		.loc 1 1072 0
 4071 017c 2F9F0000 		cmpwi 7,31,0
 4072 0180 419E000C 		beq- 7,.L183
 4073              		.loc 1 1077 0
 4074 0184 7FFBFB78 		mr 27,31
 4075              	.LVL406:
 4076 0188 4BFFFEC8 		b .L237
 4077              	.LVL407:
 4078              	.L183:
 4079              		.loc 2 608 0
 4080 018c 83F60008 		lwz 31,8(22)
 4081              	.LVL408:
 4082              	.LBE2932:
 4083              	.LBE2854:
 4084              	.LBB2933:
 4085              	.LBB2934:
 4086              	.LBB2935:
 4087              	.LBB2936:
 4088              		.loc 3 98 0
 4089 0190 7EC3B378 		mr 3,22
 4090 0194 48000001 		bl _ZdlPv
 4091              	.LVL409:
 4092              	.LBE2936:
 4093              	.LBE2935:
 4094              	.LBE2934:
 4095              	.LBE2933:
 4096              	.LBE2853:
 4097              		.loc 1 1072 0
 4098 0198 2F9F0000 		cmpwi 7,31,0
 4099 019c 419E000C 		beq- 7,.L181
 4100              		.loc 1 1077 0
 4101 01a0 7FF6FB78 		mr 22,31
 4102              	.LVL410:
 4103 01a4 4BFFFEA0 		b .L236
 4104              	.LVL411:
 4105              	.L181:
 4106              	.LBE2937:
 4107              		.loc 1 1079 0
 4108 01a8 8001003C 		lwz 0,60(1)
 4109 01ac 82A1000C 		lwz 21,12(1)
 4110 01b0 7C0803A6 		mtlr 0
 4111 01b4 82C10010 		lwz 22,16(1)
 4112 01b8 82E10014 		lwz 23,20(1)
 4113 01bc 83010018 		lwz 24,24(1)
 4114 01c0 8321001C 		lwz 25,28(1)
 4115 01c4 83410020 		lwz 26,32(1)
 4116 01c8 83610024 		lwz 27,36(1)
 4117 01cc 83810028 		lwz 28,40(1)
 4118 01d0 83A1002C 		lwz 29,44(1)
 4119 01d4 83C10030 		lwz 30,48(1)
 4120              	.LVL412:
 4121 01d8 83E10034 		lwz 31,52(1)
 4122 01dc 38210038 		addi 1,1,56
 4123              	.LCFI40:
 4124              		.cfi_def_cfa_offset 0
 4125              		.cfi_restore 31
 4126              		.cfi_restore 30
 4127              		.cfi_restore 29
 4128              		.cfi_restore 28
 4129              		.cfi_restore 27
 4130              		.cfi_restore 26
 4131              		.cfi_restore 25
 4132              		.cfi_restore 24
 4133              		.cfi_restore 23
 4134              		.cfi_restore 22
 4135              		.cfi_restore 21
 4136 01e0 4E800020 		blr
 4137              		.cfi_endproc
 4138              	.LFE635:
 4139              		.size	_ZNSt8_Rb_treeIsSt4pairIKs15ftgxDataOffset_ESt10_Select1stIS3_ESt4lessIsESaIS3_EE8_M_eraseEP
 4140              		.section	.text._ZNSt8_Rb_treeIwSt4pairIKw13ftgxCharData_ESt10_Select1stIS3_ESt4lessIwESaIS3_EE8_M_
 4141              		.align 2
 4142              		.weak	_ZNSt8_Rb_treeIwSt4pairIKw13ftgxCharData_ESt10_Select1stIS3_ESt4lessIwESaIS3_EE8_M_eraseEPSt
 4143              		.type	_ZNSt8_Rb_treeIwSt4pairIKw13ftgxCharData_ESt10_Select1stIS3_ESt4lessIwESaIS3_EE8_M_eraseEPSt
 4144              	_ZNSt8_Rb_treeIwSt4pairIKw13ftgxCharData_ESt10_Select1stIS3_ESt4lessIwESaIS3_EE8_M_eraseEPSt13_Rb_t
 4145              	.LFB710:
 4146              		.loc 1 1068 0
 4147              		.cfi_startproc
 4148              	.LVL413:
 4149 0000 9421FFC8 		stwu 1,-56(1)
 4150              	.LCFI41:
 4151              		.cfi_def_cfa_offset 56
 4152 0004 7C0802A6 		mflr 0
 4153 0008 92C10010 		stw 22,16(1)
 4154              	.LBB3084:
 4155              		.loc 1 1072 0
 4156 000c 7C962379 		mr. 22,4
 4157              		.cfi_offset 22, -40
 4158              		.cfi_register 65, 0
 4159              	.LBE3084:
 4160              		.loc 1 1068 0
 4161 0010 93C10030 		stw 30,48(1)
 4162 0014 7C7E1B78 		mr 30,3
 4163              		.cfi_offset 30, -8
 4164 0018 9001003C 		stw 0,60(1)
 4165 001c 92A1000C 		stw 21,12(1)
 4166 0020 92E10014 		stw 23,20(1)
 4167 0024 93010018 		stw 24,24(1)
 4168 0028 9321001C 		stw 25,28(1)
 4169 002c 93410020 		stw 26,32(1)
 4170 0030 93610024 		stw 27,36(1)
 4171 0034 93810028 		stw 28,40(1)
 4172 0038 93A1002C 		stw 29,44(1)
 4173 003c 93E10034 		stw 31,52(1)
 4174              	.LBB3169:
 4175              		.loc 1 1072 0
 4176 0040 41820168 		beq- 0,.L245
 4177              		.cfi_offset 31, -4
 4178              		.cfi_offset 29, -12
 4179              		.cfi_offset 28, -16
 4180              		.cfi_offset 27, -20
 4181              		.cfi_offset 26, -24
 4182              		.cfi_offset 25, -28
 4183              		.cfi_offset 24, -32
 4184              		.cfi_offset 23, -36
 4185              		.cfi_offset 21, -44
 4186              		.cfi_offset 65, 4
 4187              	.LVL414:
 4188              	.L300:
 4189              		.loc 2 608 0
 4190 0044 8376000C 		lwz 27,12(22)
 4191              	.LVL415:
 4192              	.LBB3085:
 4193              	.LBB3086:
 4194              	.LBB3087:
 4195              		.loc 1 1072 0
 4196 0048 2F9B0000 		cmpwi 7,27,0
 4197 004c 419E0140 		beq- 7,.L247
 4198              	.LVL416:
 4199              	.L301:
 4200              	.LBE3087:
 4201              		.loc 2 608 0
 4202 0050 835B000C 		lwz 26,12(27)
 4203              	.LVL417:
 4204              	.LBB3163:
 4205              	.LBB3088:
 4206              	.LBB3089:
 4207              	.LBB3090:
 4208              		.loc 1 1072 0
 4209 0054 2F9A0000 		cmpwi 7,26,0
 4210 0058 419E0118 		beq- 7,.L248
 4211              	.LVL418:
 4212              	.L302:
 4213              	.LBE3090:
 4214              		.loc 2 608 0
 4215 005c 833A000C 		lwz 25,12(26)
 4216              	.LVL419:
 4217              	.LBB3156:
 4218              	.LBB3091:
 4219              	.LBB3092:
 4220              	.LBB3093:
 4221              		.loc 1 1072 0
 4222 0060 2F990000 		cmpwi 7,25,0
 4223 0064 419E00F0 		beq- 7,.L249
 4224              	.LVL420:
 4225              	.L303:
 4226              	.LBE3093:
 4227              		.loc 2 608 0
 4228 0068 8319000C 		lwz 24,12(25)
 4229              	.LVL421:
 4230              	.LBB3149:
 4231              	.LBB3094:
 4232              	.LBB3095:
 4233              	.LBB3096:
 4234              		.loc 1 1072 0
 4235 006c 2F980000 		cmpwi 7,24,0
 4236 0070 419E00C8 		beq- 7,.L250
 4237              	.LVL422:
 4238              	.L304:
 4239              	.LBE3096:
 4240              		.loc 2 608 0
 4241 0074 82F8000C 		lwz 23,12(24)
 4242              	.LVL423:
 4243              	.LBB3142:
 4244              	.LBB3097:
 4245              	.LBB3098:
 4246              	.LBB3099:
 4247              		.loc 1 1072 0
 4248 0078 2F970000 		cmpwi 7,23,0
 4249 007c 419E00A0 		beq- 7,.L251
 4250              	.LVL424:
 4251              	.L305:
 4252              	.LBE3099:
 4253              		.loc 2 608 0
 4254 0080 8397000C 		lwz 28,12(23)
 4255              	.LVL425:
 4256              	.LBB3135:
 4257              	.LBB3100:
 4258              	.LBB3101:
 4259              	.LBB3102:
 4260              		.loc 1 1072 0
 4261 0084 2F9C0000 		cmpwi 7,28,0
 4262 0088 419E0078 		beq- 7,.L252
 4263              	.LVL426:
 4264              	.L306:
 4265              	.LBE3102:
 4266              		.loc 2 608 0
 4267 008c 83BC000C 		lwz 29,12(28)
 4268              	.LVL427:
 4269              	.LBB3128:
 4270              	.LBB3103:
 4271              	.LBB3104:
 4272              	.LBB3105:
 4273              		.loc 1 1072 0
 4274 0090 2F9D0000 		cmpwi 7,29,0
 4275 0094 419E0050 		beq- 7,.L253
 4276              	.LVL428:
 4277              	.L307:
 4278              	.LBE3105:
 4279              		.loc 2 608 0
 4280 0098 83FD000C 		lwz 31,12(29)
 4281              	.LVL429:
 4282              	.LBB3121:
 4283              	.LBB3106:
 4284              	.LBB3107:
 4285              	.LBB3108:
 4286              		.loc 1 1072 0
 4287 009c 2F9F0000 		cmpwi 7,31,0
 4288 00a0 419E0028 		beq- 7,.L254
 4289              	.LVL430:
 4290              	.L308:
 4291              	.LBB3109:
 4292              		.loc 1 1074 0
 4293 00a4 809F000C 		lwz 4,12(31)
 4294 00a8 7FC3F378 		mr 3,30
 4295 00ac 48000001 		bl _ZNSt8_Rb_treeIwSt4pairIKw13ftgxCharData_ESt10_Select1stIS3_ESt4lessIwESaIS3_EE8_M_eraseEPSt13_
 4296              	.LBE3109:
 4297              	.LBE3108:
 4298              		.loc 2 608 0
 4299 00b0 82BF0008 		lwz 21,8(31)
 4300              	.LVL431:
 4301              	.LBB3115:
 4302              	.LBB3114:
 4303              	.LBB3110:
 4304              	.LBB3111:
 4305              	.LBB3112:
 4306              	.LBB3113:
 4307              		.loc 3 98 0
 4308 00b4 7FE3FB78 		mr 3,31
 4309 00b8 48000001 		bl _ZdlPv
 4310              	.LVL432:
 4311              	.LBE3113:
 4312              	.LBE3112:
 4313              	.LBE3111:
 4314              	.LBE3110:
 4315              	.LBE3114:
 4316              		.loc 1 1072 0
 4317 00bc 2F950000 		cmpwi 7,21,0
 4318              		.loc 1 1077 0
 4319 00c0 7EBFAB78 		mr 31,21
 4320              	.LVL433:
 4321              		.loc 1 1072 0
 4322 00c4 409EFFE0 		bne+ 7,.L308
 4323              	.LVL434:
 4324              	.L254:
 4325              	.LBE3115:
 4326              	.LBE3107:
 4327              	.LBE3106:
 4328              	.LBE3121:
 4329              		.loc 2 608 0
 4330 00c8 83FD0008 		lwz 31,8(29)
 4331              	.LVL435:
 4332              	.LBB3122:
 4333              	.LBB3120:
 4334              	.LBB3116:
 4335              	.LBB3117:
 4336              	.LBB3118:
 4337              	.LBB3119:
 4338              		.loc 3 98 0
 4339 00cc 7FA3EB78 		mr 3,29
 4340 00d0 48000001 		bl _ZdlPv
 4341              	.LVL436:
 4342              	.LBE3119:
 4343              	.LBE3118:
 4344              	.LBE3117:
 4345              	.LBE3116:
 4346              	.LBE3120:
 4347              		.loc 1 1072 0
 4348 00d4 2F9F0000 		cmpwi 7,31,0
 4349 00d8 419E000C 		beq- 7,.L253
 4350              		.loc 1 1077 0
 4351 00dc 7FFDFB78 		mr 29,31
 4352              	.LVL437:
 4353 00e0 4BFFFFB8 		b .L307
 4354              	.LVL438:
 4355              	.L253:
 4356              	.LBE3122:
 4357              	.LBE3104:
 4358              	.LBE3103:
 4359              	.LBE3128:
 4360              		.loc 2 608 0
 4361 00e4 83FC0008 		lwz 31,8(28)
 4362              	.LVL439:
 4363              	.LBB3129:
 4364              	.LBB3127:
 4365              	.LBB3123:
 4366              	.LBB3124:
 4367              	.LBB3125:
 4368              	.LBB3126:
 4369              		.loc 3 98 0
 4370 00e8 7F83E378 		mr 3,28
 4371 00ec 48000001 		bl _ZdlPv
 4372              	.LVL440:
 4373              	.LBE3126:
 4374              	.LBE3125:
 4375              	.LBE3124:
 4376              	.LBE3123:
 4377              	.LBE3127:
 4378              		.loc 1 1072 0
 4379 00f0 2F9F0000 		cmpwi 7,31,0
 4380 00f4 419E000C 		beq- 7,.L252
 4381              		.loc 1 1077 0
 4382 00f8 7FFCFB78 		mr 28,31
 4383              	.LVL441:
 4384 00fc 4BFFFF90 		b .L306
 4385              	.LVL442:
 4386              	.L252:
 4387              	.LBE3129:
 4388              	.LBE3101:
 4389              	.LBE3100:
 4390              	.LBE3135:
 4391              		.loc 2 608 0
 4392 0100 83F70008 		lwz 31,8(23)
 4393              	.LVL443:
 4394              	.LBB3136:
 4395              	.LBB3134:
 4396              	.LBB3130:
 4397              	.LBB3131:
 4398              	.LBB3132:
 4399              	.LBB3133:
 4400              		.loc 3 98 0
 4401 0104 7EE3BB78 		mr 3,23
 4402 0108 48000001 		bl _ZdlPv
 4403              	.LVL444:
 4404              	.LBE3133:
 4405              	.LBE3132:
 4406              	.LBE3131:
 4407              	.LBE3130:
 4408              	.LBE3134:
 4409              		.loc 1 1072 0
 4410 010c 2F9F0000 		cmpwi 7,31,0
 4411 0110 419E000C 		beq- 7,.L251
 4412              		.loc 1 1077 0
 4413 0114 7FF7FB78 		mr 23,31
 4414              	.LVL445:
 4415 0118 4BFFFF68 		b .L305
 4416              	.LVL446:
 4417              	.L251:
 4418              	.LBE3136:
 4419              	.LBE3098:
 4420              	.LBE3097:
 4421              	.LBE3142:
 4422              		.loc 2 608 0
 4423 011c 83F80008 		lwz 31,8(24)
 4424              	.LVL447:
 4425              	.LBB3143:
 4426              	.LBB3141:
 4427              	.LBB3137:
 4428              	.LBB3138:
 4429              	.LBB3139:
 4430              	.LBB3140:
 4431              		.loc 3 98 0
 4432 0120 7F03C378 		mr 3,24
 4433 0124 48000001 		bl _ZdlPv
 4434              	.LVL448:
 4435              	.LBE3140:
 4436              	.LBE3139:
 4437              	.LBE3138:
 4438              	.LBE3137:
 4439              	.LBE3141:
 4440              		.loc 1 1072 0
 4441 0128 2F9F0000 		cmpwi 7,31,0
 4442 012c 419E000C 		beq- 7,.L250
 4443              		.loc 1 1077 0
 4444 0130 7FF8FB78 		mr 24,31
 4445              	.LVL449:
 4446 0134 4BFFFF40 		b .L304
 4447              	.LVL450:
 4448              	.L250:
 4449              	.LBE3143:
 4450              	.LBE3095:
 4451              	.LBE3094:
 4452              	.LBE3149:
 4453              		.loc 2 608 0
 4454 0138 83F90008 		lwz 31,8(25)
 4455              	.LVL451:
 4456              	.LBB3150:
 4457              	.LBB3148:
 4458              	.LBB3144:
 4459              	.LBB3145:
 4460              	.LBB3146:
 4461              	.LBB3147:
 4462              		.loc 3 98 0
 4463 013c 7F23CB78 		mr 3,25
 4464 0140 48000001 		bl _ZdlPv
 4465              	.LVL452:
 4466              	.LBE3147:
 4467              	.LBE3146:
 4468              	.LBE3145:
 4469              	.LBE3144:
 4470              	.LBE3148:
 4471              		.loc 1 1072 0
 4472 0144 2F9F0000 		cmpwi 7,31,0
 4473 0148 419E000C 		beq- 7,.L249
 4474              		.loc 1 1077 0
 4475 014c 7FF9FB78 		mr 25,31
 4476              	.LVL453:
 4477 0150 4BFFFF18 		b .L303
 4478              	.LVL454:
 4479              	.L249:
 4480              	.LBE3150:
 4481              	.LBE3092:
 4482              	.LBE3091:
 4483              	.LBE3156:
 4484              		.loc 2 608 0
 4485 0154 83FA0008 		lwz 31,8(26)
 4486              	.LVL455:
 4487              	.LBB3157:
 4488              	.LBB3155:
 4489              	.LBB3151:
 4490              	.LBB3152:
 4491              	.LBB3153:
 4492              	.LBB3154:
 4493              		.loc 3 98 0
 4494 0158 7F43D378 		mr 3,26
 4495 015c 48000001 		bl _ZdlPv
 4496              	.LVL456:
 4497              	.LBE3154:
 4498              	.LBE3153:
 4499              	.LBE3152:
 4500              	.LBE3151:
 4501              	.LBE3155:
 4502              		.loc 1 1072 0
 4503 0160 2F9F0000 		cmpwi 7,31,0
 4504 0164 419E000C 		beq- 7,.L248
 4505              		.loc 1 1077 0
 4506 0168 7FFAFB78 		mr 26,31
 4507              	.LVL457:
 4508 016c 4BFFFEF0 		b .L302
 4509              	.LVL458:
 4510              	.L248:
 4511              	.LBE3157:
 4512              	.LBE3089:
 4513              	.LBE3088:
 4514              	.LBE3163:
 4515              		.loc 2 608 0
 4516 0170 83FB0008 		lwz 31,8(27)
 4517              	.LVL459:
 4518              	.LBB3164:
 4519              	.LBB3162:
 4520              	.LBB3158:
 4521              	.LBB3159:
 4522              	.LBB3160:
 4523              	.LBB3161:
 4524              		.loc 3 98 0
 4525 0174 7F63DB78 		mr 3,27
 4526 0178 48000001 		bl _ZdlPv
 4527              	.LVL460:
 4528              	.LBE3161:
 4529              	.LBE3160:
 4530              	.LBE3159:
 4531              	.LBE3158:
 4532              	.LBE3162:
 4533              		.loc 1 1072 0
 4534 017c 2F9F0000 		cmpwi 7,31,0
 4535 0180 419E000C 		beq- 7,.L247
 4536              		.loc 1 1077 0
 4537 0184 7FFBFB78 		mr 27,31
 4538              	.LVL461:
 4539 0188 4BFFFEC8 		b .L301
 4540              	.LVL462:
 4541              	.L247:
 4542              		.loc 2 608 0
 4543 018c 83F60008 		lwz 31,8(22)
 4544              	.LVL463:
 4545              	.LBE3164:
 4546              	.LBE3086:
 4547              	.LBB3165:
 4548              	.LBB3166:
 4549              	.LBB3167:
 4550              	.LBB3168:
 4551              		.loc 3 98 0
 4552 0190 7EC3B378 		mr 3,22
 4553 0194 48000001 		bl _ZdlPv
 4554              	.LVL464:
 4555              	.LBE3168:
 4556              	.LBE3167:
 4557              	.LBE3166:
 4558              	.LBE3165:
 4559              	.LBE3085:
 4560              		.loc 1 1072 0
 4561 0198 2F9F0000 		cmpwi 7,31,0
 4562 019c 419E000C 		beq- 7,.L245
 4563              		.loc 1 1077 0
 4564 01a0 7FF6FB78 		mr 22,31
 4565              	.LVL465:
 4566 01a4 4BFFFEA0 		b .L300
 4567              	.LVL466:
 4568              	.L245:
 4569              	.LBE3169:
 4570              		.loc 1 1079 0
 4571 01a8 8001003C 		lwz 0,60(1)
 4572 01ac 82A1000C 		lwz 21,12(1)
 4573 01b0 7C0803A6 		mtlr 0
 4574 01b4 82C10010 		lwz 22,16(1)
 4575 01b8 82E10014 		lwz 23,20(1)
 4576 01bc 83010018 		lwz 24,24(1)
 4577 01c0 8321001C 		lwz 25,28(1)
 4578 01c4 83410020 		lwz 26,32(1)
 4579 01c8 83610024 		lwz 27,36(1)
 4580 01cc 83810028 		lwz 28,40(1)
 4581 01d0 83A1002C 		lwz 29,44(1)
 4582 01d4 83C10030 		lwz 30,48(1)
 4583              	.LVL467:
 4584 01d8 83E10034 		lwz 31,52(1)
 4585 01dc 38210038 		addi 1,1,56
 4586              	.LCFI42:
 4587              		.cfi_def_cfa_offset 0
 4588              		.cfi_restore 31
 4589              		.cfi_restore 30
 4590              		.cfi_restore 29
 4591              		.cfi_restore 28
 4592              		.cfi_restore 27
 4593              		.cfi_restore 26
 4594              		.cfi_restore 25
 4595              		.cfi_restore 24
 4596              		.cfi_restore 23
 4597              		.cfi_restore 22
 4598              		.cfi_restore 21
 4599 01e0 4E800020 		blr
 4600              		.cfi_endproc
 4601              	.LFE710:
 4602              		.size	_ZNSt8_Rb_treeIwSt4pairIKw13ftgxCharData_ESt10_Select1stIS3_ESt4lessIwESaIS3_EE8_M_eraseEPSt
 4603              		.section	.text._ZNSt8_Rb_treeIsSt4pairIKsSt3mapIw13ftgxCharData_St4lessIwESaIS0_IKwS3_EEEESt10_Sel
 4604              		.align 2
 4605              		.weak	_ZNSt8_Rb_treeIsSt4pairIKsSt3mapIw13ftgxCharData_St4lessIwESaIS0_IKwS3_EEEESt10_Select1stISA
 4606              		.type	_ZNSt8_Rb_treeIsSt4pairIKsSt3mapIw13ftgxCharData_St4lessIwESaIS0_IKwS3_EEEESt10_Select1stISA
 4607              	_ZNSt8_Rb_treeIsSt4pairIKsSt3mapIw13ftgxCharData_St4lessIwESaIS0_IKwS3_EEEESt10_Select1stISA_ES4_Is
 4608              	.LFB627:
 4609              		.loc 1 1068 0
 4610              		.cfi_startproc
 4611              	.LVL468:
 4612 0000 9421FFC0 		stwu 1,-64(1)
 4613              	.LCFI43:
 4614              		.cfi_def_cfa_offset 64
 4615 0004 7C0802A6 		mflr 0
 4616 0008 9261000C 		stw 19,12(1)
 4617              	.LBB3571:
 4618              		.loc 1 1072 0
 4619 000c 7C932379 		mr. 19,4
 4620              		.cfi_offset 19, -52
 4621              		.cfi_register 65, 0
 4622              	.LBE3571:
 4623              		.loc 1 1068 0
 4624 0010 9361002C 		stw 27,44(1)
 4625 0014 7C7B1B78 		mr 27,3
 4626              		.cfi_offset 27, -20
 4627 0018 90010044 		stw 0,68(1)
 4628 001c 92410008 		stw 18,8(1)
 4629 0020 92810010 		stw 20,16(1)
 4630 0024 92A10014 		stw 21,20(1)
 4631 0028 92C10018 		stw 22,24(1)
 4632 002c 92E1001C 		stw 23,28(1)
 4633 0030 93010020 		stw 24,32(1)
 4634 0034 93210024 		stw 25,36(1)
 4635 0038 93410028 		stw 26,40(1)
 4636 003c 93810030 		stw 28,48(1)
 4637 0040 93A10034 		stw 29,52(1)
 4638 0044 93C10038 		stw 30,56(1)
 4639 0048 93E1003C 		stw 31,60(1)
 4640              	.LBB3890:
 4641              		.loc 1 1072 0
 4642 004c 41820340 		beq- 0,.L309
 4643              		.cfi_offset 31, -4
 4644              		.cfi_offset 30, -8
 4645              		.cfi_offset 29, -12
 4646              		.cfi_offset 28, -16
 4647              		.cfi_offset 26, -24
 4648              		.cfi_offset 25, -28
 4649              		.cfi_offset 24, -32
 4650              		.cfi_offset 23, -36
 4651              		.cfi_offset 22, -40
 4652              		.cfi_offset 21, -44
 4653              		.cfi_offset 20, -48
 4654              		.cfi_offset 18, -56
 4655              		.cfi_offset 65, 4
 4656              	.LVL469:
 4657              	.L454:
 4658              		.loc 2 608 0
 4659 0050 8333000C 		lwz 25,12(19)
 4660              	.LVL470:
 4661              	.LBB3572:
 4662              	.LBB3573:
 4663              	.LBB3574:
 4664              		.loc 1 1072 0
 4665 0054 2F990000 		cmpwi 7,25,0
 4666 0058 419E02E4 		beq- 7,.L311
 4667              	.LVL471:
 4668              	.L455:
 4669              	.LBE3574:
 4670              		.loc 2 608 0
 4671 005c 8319000C 		lwz 24,12(25)
 4672              	.LVL472:
 4673              	.LBB3857:
 4674              	.LBB3575:
 4675              	.LBB3576:
 4676              	.LBB3577:
 4677              		.loc 1 1072 0
 4678 0060 2F980000 		cmpwi 7,24,0
 4679 0064 419E0288 		beq- 7,.L312
 4680              	.LVL473:
 4681              	.L456:
 4682              	.LBE3577:
 4683              		.loc 2 608 0
 4684 0068 82F8000C 		lwz 23,12(24)
 4685              	.LVL474:
 4686              	.LBB3825:
 4687              	.LBB3578:
 4688              	.LBB3579:
 4689              	.LBB3580:
 4690              		.loc 1 1072 0
 4691 006c 2F970000 		cmpwi 7,23,0
 4692 0070 419E022C 		beq- 7,.L313
 4693              	.LVL475:
 4694              	.L457:
 4695              	.LBE3580:
 4696              		.loc 2 608 0
 4697 0074 82D7000C 		lwz 22,12(23)
 4698              	.LVL476:
 4699              	.LBB3793:
 4700              	.LBB3581:
 4701              	.LBB3582:
 4702              	.LBB3583:
 4703              		.loc 1 1072 0
 4704 0078 2F960000 		cmpwi 7,22,0
 4705 007c 419E01D0 		beq- 7,.L314
 4706              	.LVL477:
 4707              	.L458:
 4708              	.LBE3583:
 4709              		.loc 2 608 0
 4710 0080 82B6000C 		lwz 21,12(22)
 4711              	.LVL478:
 4712              	.LBB3761:
 4713              	.LBB3584:
 4714              	.LBB3585:
 4715              	.LBB3586:
 4716              		.loc 1 1072 0
 4717 0084 2F950000 		cmpwi 7,21,0
 4718 0088 419E0174 		beq- 7,.L315
 4719              	.LVL479:
 4720              	.L459:
 4721              	.LBE3586:
 4722              		.loc 2 608 0
 4723 008c 8295000C 		lwz 20,12(21)
 4724              	.LVL480:
 4725              	.LBB3729:
 4726              	.LBB3587:
 4727              	.LBB3588:
 4728              	.LBB3589:
 4729              		.loc 1 1072 0
 4730 0090 2F940000 		cmpwi 7,20,0
 4731 0094 419E0118 		beq- 7,.L316
 4732              	.LVL481:
 4733              	.L460:
 4734              	.LBE3589:
 4735              		.loc 2 608 0
 4736 0098 8354000C 		lwz 26,12(20)
 4737              	.LVL482:
 4738              	.LBB3697:
 4739              	.LBB3590:
 4740              	.LBB3591:
 4741              	.LBB3592:
 4742              		.loc 1 1072 0
 4743 009c 2F9A0000 		cmpwi 7,26,0
 4744 00a0 419E00BC 		beq- 7,.L317
 4745              	.LVL483:
 4746              	.L461:
 4747              	.LBE3592:
 4748              		.loc 2 608 0
 4749 00a4 83BA000C 		lwz 29,12(26)
 4750              	.LVL484:
 4751              	.LBB3665:
 4752              	.LBB3593:
 4753              	.LBB3594:
 4754              	.LBB3595:
 4755              		.loc 1 1072 0
 4756 00a8 2F9D0000 		cmpwi 7,29,0
 4757 00ac 419E0060 		beq- 7,.L318
 4758              	.LVL485:
 4759              	.L462:
 4760              	.LBB3596:
 4761              		.loc 1 1074 0
 4762 00b0 809D000C 		lwz 4,12(29)
 4763 00b4 7F63DB78 		mr 3,27
 4764              	.LBB3597:
 4765              	.LBB3598:
 4766              	.LBB3599:
 4767              	.LBB3600:
 4768              	.LBB3601:
 4769              	.LBB3602:
 4770              	.LBB3603:
 4771              		.file 5 "d:\\devkitpro\\devkitppc\\bin\\../lib/gcc/powerpc-eabi/4.6.3/../../../../powerpc-eabi/inc
 4772              		.loc 5 88 0
 4773 00b8 3BDD0014 		addi 30,29,20
 4774              	.LBE3603:
 4775              	.LBE3602:
 4776              	.LBE3601:
 4777              	.LBE3600:
 4778              	.LBE3599:
 4779              	.LBE3598:
 4780              	.LBE3597:
 4781              		.loc 1 1074 0
 4782 00bc 48000001 		bl _ZNSt8_Rb_treeIsSt4pairIKsSt3mapIw13ftgxCharData_St4lessIwESaIS0_IKwS3_EEEESt10_Select1stISA_ES
 4783              	.LBB3631:
 4784              	.LBB3626:
 4785              	.LBB3624:
 4786              	.LBB3622:
 4787              	.LBB3620:
 4788              	.LBB3618:
 4789              	.LBB3616:
 4790              	.LBB3604:
 4791              		.loc 2 608 0
 4792 00c0 83FD001C 		lwz 31,28(29)
 4793              	.LBE3604:
 4794              	.LBE3616:
 4795              	.LBE3618:
 4796              	.LBE3620:
 4797              	.LBE3622:
 4798              	.LBE3624:
 4799              	.LBE3626:
 4800              	.LBE3631:
 4801              	.LBE3596:
 4802              	.LBE3595:
 4803 00c4 839D0008 		lwz 28,8(29)
 4804              	.LVL486:
 4805              	.LBB3634:
 4806              	.LBB3633:
 4807              	.LBB3632:
 4808              	.LBB3627:
 4809              	.LBB3625:
 4810              	.LBB3623:
 4811              	.LBB3621:
 4812              	.LBB3619:
 4813              	.LBB3617:
 4814              	.LBB3615:
 4815              	.LBB3605:
 4816              	.LBB3606:
 4817              	.LBB3607:
 4818              		.loc 1 1072 0
 4819 00c8 2F9F0000 		cmpwi 7,31,0
 4820 00cc 419E0028 		beq- 7,.L330
 4821              	.LVL487:
 4822              	.L463:
 4823              	.LBB3608:
 4824              		.loc 1 1074 0
 4825 00d0 809F000C 		lwz 4,12(31)
 4826 00d4 7FC3F378 		mr 3,30
 4827 00d8 48000001 		bl _ZNSt8_Rb_treeIwSt4pairIKw13ftgxCharData_ESt10_Select1stIS3_ESt4lessIwESaIS3_EE8_M_eraseEPSt13_
 4828              	.LBE3608:
 4829              	.LBE3607:
 4830              		.loc 2 608 0
 4831 00dc 825F0008 		lwz 18,8(31)
 4832              	.LVL488:
 4833              	.LBB3614:
 4834              	.LBB3613:
 4835              	.LBB3609:
 4836              	.LBB3610:
 4837              	.LBB3611:
 4838              	.LBB3612:
 4839              		.loc 3 98 0
 4840 00e0 7FE3FB78 		mr 3,31
 4841 00e4 48000001 		bl _ZdlPv
 4842              	.LVL489:
 4843              	.LBE3612:
 4844              	.LBE3611:
 4845              	.LBE3610:
 4846              	.LBE3609:
 4847              	.LBE3613:
 4848              		.loc 1 1072 0
 4849 00e8 2F920000 		cmpwi 7,18,0
 4850              		.loc 1 1077 0
 4851 00ec 7E5F9378 		mr 31,18
 4852              	.LVL490:
 4853              		.loc 1 1072 0
 4854 00f0 409EFFE0 		bne+ 7,.L463
 4855              	.LVL491:
 4856              	.L330:
 4857              	.LBE3614:
 4858              	.LBE3606:
 4859              	.LBE3605:
 4860              	.LBE3615:
 4861              	.LBE3617:
 4862              	.LBE3619:
 4863              	.LBE3621:
 4864              	.LBE3623:
 4865              	.LBE3625:
 4866              	.LBE3627:
 4867              	.LBB3628:
 4868              	.LBB3629:
 4869              	.LBB3630:
 4870              		.loc 3 98 0
 4871 00f4 7FA3EB78 		mr 3,29
 4872 00f8 48000001 		bl _ZdlPv
 4873              	.LVL492:
 4874              	.LBE3630:
 4875              	.LBE3629:
 4876              	.LBE3628:
 4877              	.LBE3632:
 4878              	.LBE3633:
 4879              		.loc 1 1072 0
 4880 00fc 2F9C0000 		cmpwi 7,28,0
 4881 0100 419E000C 		beq- 7,.L318
 4882              		.loc 1 1077 0
 4883 0104 7F9DE378 		mr 29,28
 4884              	.LVL493:
 4885 0108 4BFFFFA8 		b .L462
 4886              	.LVL494:
 4887              	.L318:
 4888              	.LBE3634:
 4889              	.LBE3594:
 4890              	.LBB3635:
 4891              	.LBB3636:
 4892              	.LBB3637:
 4893              	.LBB3638:
 4894              	.LBB3639:
 4895              	.LBB3640:
 4896              	.LBB3641:
 4897              	.LBB3642:
 4898              		.loc 2 608 0
 4899 010c 83FA001C 		lwz 31,28(26)
 4900              	.LBE3642:
 4901              		.loc 5 88 0
 4902 0110 3BDA0014 		addi 30,26,20
 4903              	.LBE3641:
 4904              	.LBE3640:
 4905              	.LBE3639:
 4906              	.LBE3638:
 4907              	.LBE3637:
 4908              	.LBE3636:
 4909              	.LBE3635:
 4910              	.LBE3593:
 4911              	.LBE3665:
 4912              		.loc 2 608 0
 4913 0114 83BA0008 		lwz 29,8(26)
 4914              	.LVL495:
 4915              	.LBB3666:
 4916              	.LBB3664:
 4917              	.LBB3663:
 4918              	.LBB3659:
 4919              	.LBB3658:
 4920              	.LBB3657:
 4921              	.LBB3656:
 4922              	.LBB3655:
 4923              	.LBB3654:
 4924              	.LBB3653:
 4925              	.LBB3643:
 4926              	.LBB3644:
 4927              	.LBB3645:
 4928              		.loc 1 1072 0
 4929 0118 2F9F0000 		cmpwi 7,31,0
 4930 011c 419E0028 		beq- 7,.L343
 4931              	.LVL496:
 4932              	.L464:
 4933              	.LBB3646:
 4934              		.loc 1 1074 0
 4935 0120 809F000C 		lwz 4,12(31)
 4936 0124 7FC3F378 		mr 3,30
 4937 0128 48000001 		bl _ZNSt8_Rb_treeIwSt4pairIKw13ftgxCharData_ESt10_Select1stIS3_ESt4lessIwESaIS3_EE8_M_eraseEPSt13_
 4938              	.LBE3646:
 4939              	.LBE3645:
 4940              		.loc 2 608 0
 4941 012c 839F0008 		lwz 28,8(31)
 4942              	.LVL497:
 4943              	.LBB3652:
 4944              	.LBB3651:
 4945              	.LBB3647:
 4946              	.LBB3648:
 4947              	.LBB3649:
 4948              	.LBB3650:
 4949              		.loc 3 98 0
 4950 0130 7FE3FB78 		mr 3,31
 4951 0134 48000001 		bl _ZdlPv
 4952              	.LVL498:
 4953              	.LBE3650:
 4954              	.LBE3649:
 4955              	.LBE3648:
 4956              	.LBE3647:
 4957              	.LBE3651:
 4958              		.loc 1 1072 0
 4959 0138 2F9C0000 		cmpwi 7,28,0
 4960              		.loc 1 1077 0
 4961 013c 7F9FE378 		mr 31,28
 4962              	.LVL499:
 4963              		.loc 1 1072 0
 4964 0140 409EFFE0 		bne+ 7,.L464
 4965              	.LVL500:
 4966              	.L343:
 4967              	.LBE3652:
 4968              	.LBE3644:
 4969              	.LBE3643:
 4970              	.LBE3653:
 4971              	.LBE3654:
 4972              	.LBE3655:
 4973              	.LBE3656:
 4974              	.LBE3657:
 4975              	.LBE3658:
 4976              	.LBE3659:
 4977              	.LBB3660:
 4978              	.LBB3661:
 4979              	.LBB3662:
 4980              		.loc 3 98 0
 4981 0144 7F43D378 		mr 3,26
 4982 0148 48000001 		bl _ZdlPv
 4983              	.LVL501:
 4984              	.LBE3662:
 4985              	.LBE3661:
 4986              	.LBE3660:
 4987              	.LBE3663:
 4988              	.LBE3664:
 4989              		.loc 1 1072 0
 4990 014c 2F9D0000 		cmpwi 7,29,0
 4991 0150 419E000C 		beq- 7,.L317
 4992              		.loc 1 1077 0
 4993 0154 7FBAEB78 		mr 26,29
 4994              	.LVL502:
 4995 0158 4BFFFF4C 		b .L461
 4996              	.LVL503:
 4997              	.L317:
 4998              	.LBE3666:
 4999              	.LBE3591:
 5000              	.LBB3667:
 5001              	.LBB3668:
 5002              	.LBB3669:
 5003              	.LBB3670:
 5004              	.LBB3671:
 5005              	.LBB3672:
 5006              	.LBB3673:
 5007              	.LBB3674:
 5008              		.loc 2 608 0
 5009 015c 83F4001C 		lwz 31,28(20)
 5010              	.LBE3674:
 5011              		.loc 5 88 0
 5012 0160 3BD40014 		addi 30,20,20
 5013              	.LBE3673:
 5014              	.LBE3672:
 5015              	.LBE3671:
 5016              	.LBE3670:
 5017              	.LBE3669:
 5018              	.LBE3668:
 5019              	.LBE3667:
 5020              	.LBE3590:
 5021              	.LBE3697:
 5022              		.loc 2 608 0
 5023 0164 83B40008 		lwz 29,8(20)
 5024              	.LVL504:
 5025              	.LBB3698:
 5026              	.LBB3696:
 5027              	.LBB3695:
 5028              	.LBB3691:
 5029              	.LBB3690:
 5030              	.LBB3689:
 5031              	.LBB3688:
 5032              	.LBB3687:
 5033              	.LBB3686:
 5034              	.LBB3685:
 5035              	.LBB3675:
 5036              	.LBB3676:
 5037              	.LBB3677:
 5038              		.loc 1 1072 0
 5039 0168 2F9F0000 		cmpwi 7,31,0
 5040 016c 419E0028 		beq- 7,.L356
 5041              	.LVL505:
 5042              	.L465:
 5043              	.LBB3678:
 5044              		.loc 1 1074 0
 5045 0170 809F000C 		lwz 4,12(31)
 5046 0174 7FC3F378 		mr 3,30
 5047 0178 48000001 		bl _ZNSt8_Rb_treeIwSt4pairIKw13ftgxCharData_ESt10_Select1stIS3_ESt4lessIwESaIS3_EE8_M_eraseEPSt13_
 5048              	.LBE3678:
 5049              	.LBE3677:
 5050              		.loc 2 608 0
 5051 017c 839F0008 		lwz 28,8(31)
 5052              	.LVL506:
 5053              	.LBB3684:
 5054              	.LBB3683:
 5055              	.LBB3679:
 5056              	.LBB3680:
 5057              	.LBB3681:
 5058              	.LBB3682:
 5059              		.loc 3 98 0
 5060 0180 7FE3FB78 		mr 3,31
 5061 0184 48000001 		bl _ZdlPv
 5062              	.LVL507:
 5063              	.LBE3682:
 5064              	.LBE3681:
 5065              	.LBE3680:
 5066              	.LBE3679:
 5067              	.LBE3683:
 5068              		.loc 1 1072 0
 5069 0188 2F9C0000 		cmpwi 7,28,0
 5070              		.loc 1 1077 0
 5071 018c 7F9FE378 		mr 31,28
 5072              	.LVL508:
 5073              		.loc 1 1072 0
 5074 0190 409EFFE0 		bne+ 7,.L465
 5075              	.LVL509:
 5076              	.L356:
 5077              	.LBE3684:
 5078              	.LBE3676:
 5079              	.LBE3675:
 5080              	.LBE3685:
 5081              	.LBE3686:
 5082              	.LBE3687:
 5083              	.LBE3688:
 5084              	.LBE3689:
 5085              	.LBE3690:
 5086              	.LBE3691:
 5087              	.LBB3692:
 5088              	.LBB3693:
 5089              	.LBB3694:
 5090              		.loc 3 98 0
 5091 0194 7E83A378 		mr 3,20
 5092 0198 48000001 		bl _ZdlPv
 5093              	.LVL510:
 5094              	.LBE3694:
 5095              	.LBE3693:
 5096              	.LBE3692:
 5097              	.LBE3695:
 5098              	.LBE3696:
 5099              		.loc 1 1072 0
 5100 019c 2F9D0000 		cmpwi 7,29,0
 5101 01a0 419E000C 		beq- 7,.L316
 5102              		.loc 1 1077 0
 5103 01a4 7FB4EB78 		mr 20,29
 5104              	.LVL511:
 5105 01a8 4BFFFEF0 		b .L460
 5106              	.LVL512:
 5107              	.L316:
 5108              	.LBE3698:
 5109              	.LBE3588:
 5110              	.LBB3699:
 5111              	.LBB3700:
 5112              	.LBB3701:
 5113              	.LBB3702:
 5114              	.LBB3703:
 5115              	.LBB3704:
 5116              	.LBB3705:
 5117              	.LBB3706:
 5118              		.loc 2 608 0
 5119 01ac 83F5001C 		lwz 31,28(21)
 5120              	.LBE3706:
 5121              		.loc 5 88 0
 5122 01b0 3BB50014 		addi 29,21,20
 5123              	.LBE3705:
 5124              	.LBE3704:
 5125              	.LBE3703:
 5126              	.LBE3702:
 5127              	.LBE3701:
 5128              	.LBE3700:
 5129              	.LBE3699:
 5130              	.LBE3587:
 5131              	.LBE3729:
 5132              		.loc 2 608 0
 5133 01b4 83D50008 		lwz 30,8(21)
 5134              	.LVL513:
 5135              	.LBB3730:
 5136              	.LBB3728:
 5137              	.LBB3727:
 5138              	.LBB3723:
 5139              	.LBB3722:
 5140              	.LBB3721:
 5141              	.LBB3720:
 5142              	.LBB3719:
 5143              	.LBB3718:
 5144              	.LBB3717:
 5145              	.LBB3707:
 5146              	.LBB3708:
 5147              	.LBB3709:
 5148              		.loc 1 1072 0
 5149 01b8 2F9F0000 		cmpwi 7,31,0
 5150 01bc 419E0028 		beq- 7,.L369
 5151              	.LVL514:
 5152              	.L466:
 5153              	.LBB3710:
 5154              		.loc 1 1074 0
 5155 01c0 809F000C 		lwz 4,12(31)
 5156 01c4 7FA3EB78 		mr 3,29
 5157 01c8 48000001 		bl _ZNSt8_Rb_treeIwSt4pairIKw13ftgxCharData_ESt10_Select1stIS3_ESt4lessIwESaIS3_EE8_M_eraseEPSt13_
 5158              	.LBE3710:
 5159              	.LBE3709:
 5160              		.loc 2 608 0
 5161 01cc 839F0008 		lwz 28,8(31)
 5162              	.LVL515:
 5163              	.LBB3716:
 5164              	.LBB3715:
 5165              	.LBB3711:
 5166              	.LBB3712:
 5167              	.LBB3713:
 5168              	.LBB3714:
 5169              		.loc 3 98 0
 5170 01d0 7FE3FB78 		mr 3,31
 5171 01d4 48000001 		bl _ZdlPv
 5172              	.LVL516:
 5173              	.LBE3714:
 5174              	.LBE3713:
 5175              	.LBE3712:
 5176              	.LBE3711:
 5177              	.LBE3715:
 5178              		.loc 1 1072 0
 5179 01d8 2F9C0000 		cmpwi 7,28,0
 5180              		.loc 1 1077 0
 5181 01dc 7F9FE378 		mr 31,28
 5182              	.LVL517:
 5183              		.loc 1 1072 0
 5184 01e0 409EFFE0 		bne+ 7,.L466
 5185              	.LVL518:
 5186              	.L369:
 5187              	.LBE3716:
 5188              	.LBE3708:
 5189              	.LBE3707:
 5190              	.LBE3717:
 5191              	.LBE3718:
 5192              	.LBE3719:
 5193              	.LBE3720:
 5194              	.LBE3721:
 5195              	.LBE3722:
 5196              	.LBE3723:
 5197              	.LBB3724:
 5198              	.LBB3725:
 5199              	.LBB3726:
 5200              		.loc 3 98 0
 5201 01e4 7EA3AB78 		mr 3,21
 5202 01e8 48000001 		bl _ZdlPv
 5203              	.LVL519:
 5204              	.LBE3726:
 5205              	.LBE3725:
 5206              	.LBE3724:
 5207              	.LBE3727:
 5208              	.LBE3728:
 5209              		.loc 1 1072 0
 5210 01ec 2F9E0000 		cmpwi 7,30,0
 5211 01f0 419E000C 		beq- 7,.L315
 5212              		.loc 1 1077 0
 5213 01f4 7FD5F378 		mr 21,30
 5214              	.LVL520:
 5215 01f8 4BFFFE94 		b .L459
 5216              	.LVL521:
 5217              	.L315:
 5218              	.LBE3730:
 5219              	.LBE3585:
 5220              	.LBB3731:
 5221              	.LBB3732:
 5222              	.LBB3733:
 5223              	.LBB3734:
 5224              	.LBB3735:
 5225              	.LBB3736:
 5226              	.LBB3737:
 5227              	.LBB3738:
 5228              		.loc 2 608 0
 5229 01fc 83F6001C 		lwz 31,28(22)
 5230              	.LBE3738:
 5231              		.loc 5 88 0
 5232 0200 3BB60014 		addi 29,22,20
 5233              	.LBE3737:
 5234              	.LBE3736:
 5235              	.LBE3735:
 5236              	.LBE3734:
 5237              	.LBE3733:
 5238              	.LBE3732:
 5239              	.LBE3731:
 5240              	.LBE3584:
 5241              	.LBE3761:
 5242              		.loc 2 608 0
 5243 0204 83D60008 		lwz 30,8(22)
 5244              	.LVL522:
 5245              	.LBB3762:
 5246              	.LBB3760:
 5247              	.LBB3759:
 5248              	.LBB3755:
 5249              	.LBB3754:
 5250              	.LBB3753:
 5251              	.LBB3752:
 5252              	.LBB3751:
 5253              	.LBB3750:
 5254              	.LBB3749:
 5255              	.LBB3739:
 5256              	.LBB3740:
 5257              	.LBB3741:
 5258              		.loc 1 1072 0
 5259 0208 2F9F0000 		cmpwi 7,31,0
 5260 020c 419E0028 		beq- 7,.L382
 5261              	.LVL523:
 5262              	.L467:
 5263              	.LBB3742:
 5264              		.loc 1 1074 0
 5265 0210 809F000C 		lwz 4,12(31)
 5266 0214 7FA3EB78 		mr 3,29
 5267 0218 48000001 		bl _ZNSt8_Rb_treeIwSt4pairIKw13ftgxCharData_ESt10_Select1stIS3_ESt4lessIwESaIS3_EE8_M_eraseEPSt13_
 5268              	.LBE3742:
 5269              	.LBE3741:
 5270              		.loc 2 608 0
 5271 021c 839F0008 		lwz 28,8(31)
 5272              	.LVL524:
 5273              	.LBB3748:
 5274              	.LBB3747:
 5275              	.LBB3743:
 5276              	.LBB3744:
 5277              	.LBB3745:
 5278              	.LBB3746:
 5279              		.loc 3 98 0
 5280 0220 7FE3FB78 		mr 3,31
 5281 0224 48000001 		bl _ZdlPv
 5282              	.LVL525:
 5283              	.LBE3746:
 5284              	.LBE3745:
 5285              	.LBE3744:
 5286              	.LBE3743:
 5287              	.LBE3747:
 5288              		.loc 1 1072 0
 5289 0228 2F9C0000 		cmpwi 7,28,0
 5290              		.loc 1 1077 0
 5291 022c 7F9FE378 		mr 31,28
 5292              	.LVL526:
 5293              		.loc 1 1072 0
 5294 0230 409EFFE0 		bne+ 7,.L467
 5295              	.LVL527:
 5296              	.L382:
 5297              	.LBE3748:
 5298              	.LBE3740:
 5299              	.LBE3739:
 5300              	.LBE3749:
 5301              	.LBE3750:
 5302              	.LBE3751:
 5303              	.LBE3752:
 5304              	.LBE3753:
 5305              	.LBE3754:
 5306              	.LBE3755:
 5307              	.LBB3756:
 5308              	.LBB3757:
 5309              	.LBB3758:
 5310              		.loc 3 98 0
 5311 0234 7EC3B378 		mr 3,22
 5312 0238 48000001 		bl _ZdlPv
 5313              	.LVL528:
 5314              	.LBE3758:
 5315              	.LBE3757:
 5316              	.LBE3756:
 5317              	.LBE3759:
 5318              	.LBE3760:
 5319              		.loc 1 1072 0
 5320 023c 2F9E0000 		cmpwi 7,30,0
 5321 0240 419E000C 		beq- 7,.L314
 5322              		.loc 1 1077 0
 5323 0244 7FD6F378 		mr 22,30
 5324              	.LVL529:
 5325 0248 4BFFFE38 		b .L458
 5326              	.LVL530:
 5327              	.L314:
 5328              	.LBE3762:
 5329              	.LBE3582:
 5330              	.LBB3763:
 5331              	.LBB3764:
 5332              	.LBB3765:
 5333              	.LBB3766:
 5334              	.LBB3767:
 5335              	.LBB3768:
 5336              	.LBB3769:
 5337              	.LBB3770:
 5338              		.loc 2 608 0
 5339 024c 83F7001C 		lwz 31,28(23)
 5340              	.LBE3770:
 5341              		.loc 5 88 0
 5342 0250 3BB70014 		addi 29,23,20
 5343              	.LBE3769:
 5344              	.LBE3768:
 5345              	.LBE3767:
 5346              	.LBE3766:
 5347              	.LBE3765:
 5348              	.LBE3764:
 5349              	.LBE3763:
 5350              	.LBE3581:
 5351              	.LBE3793:
 5352              		.loc 2 608 0
 5353 0254 83D70008 		lwz 30,8(23)
 5354              	.LVL531:
 5355              	.LBB3794:
 5356              	.LBB3792:
 5357              	.LBB3791:
 5358              	.LBB3787:
 5359              	.LBB3786:
 5360              	.LBB3785:
 5361              	.LBB3784:
 5362              	.LBB3783:
 5363              	.LBB3782:
 5364              	.LBB3781:
 5365              	.LBB3771:
 5366              	.LBB3772:
 5367              	.LBB3773:
 5368              		.loc 1 1072 0
 5369 0258 2F9F0000 		cmpwi 7,31,0
 5370 025c 419E0028 		beq- 7,.L395
 5371              	.LVL532:
 5372              	.L468:
 5373              	.LBB3774:
 5374              		.loc 1 1074 0
 5375 0260 809F000C 		lwz 4,12(31)
 5376 0264 7FA3EB78 		mr 3,29
 5377 0268 48000001 		bl _ZNSt8_Rb_treeIwSt4pairIKw13ftgxCharData_ESt10_Select1stIS3_ESt4lessIwESaIS3_EE8_M_eraseEPSt13_
 5378              	.LBE3774:
 5379              	.LBE3773:
 5380              		.loc 2 608 0
 5381 026c 839F0008 		lwz 28,8(31)
 5382              	.LVL533:
 5383              	.LBB3780:
 5384              	.LBB3779:
 5385              	.LBB3775:
 5386              	.LBB3776:
 5387              	.LBB3777:
 5388              	.LBB3778:
 5389              		.loc 3 98 0
 5390 0270 7FE3FB78 		mr 3,31
 5391 0274 48000001 		bl _ZdlPv
 5392              	.LVL534:
 5393              	.LBE3778:
 5394              	.LBE3777:
 5395              	.LBE3776:
 5396              	.LBE3775:
 5397              	.LBE3779:
 5398              		.loc 1 1072 0
 5399 0278 2F9C0000 		cmpwi 7,28,0
 5400              		.loc 1 1077 0
 5401 027c 7F9FE378 		mr 31,28
 5402              	.LVL535:
 5403              		.loc 1 1072 0
 5404 0280 409EFFE0 		bne+ 7,.L468
 5405              	.LVL536:
 5406              	.L395:
 5407              	.LBE3780:
 5408              	.LBE3772:
 5409              	.LBE3771:
 5410              	.LBE3781:
 5411              	.LBE3782:
 5412              	.LBE3783:
 5413              	.LBE3784:
 5414              	.LBE3785:
 5415              	.LBE3786:
 5416              	.LBE3787:
 5417              	.LBB3788:
 5418              	.LBB3789:
 5419              	.LBB3790:
 5420              		.loc 3 98 0
 5421 0284 7EE3BB78 		mr 3,23
 5422 0288 48000001 		bl _ZdlPv
 5423              	.LVL537:
 5424              	.LBE3790:
 5425              	.LBE3789:
 5426              	.LBE3788:
 5427              	.LBE3791:
 5428              	.LBE3792:
 5429              		.loc 1 1072 0
 5430 028c 2F9E0000 		cmpwi 7,30,0
 5431 0290 419E000C 		beq- 7,.L313
 5432              		.loc 1 1077 0
 5433 0294 7FD7F378 		mr 23,30
 5434              	.LVL538:
 5435 0298 4BFFFDDC 		b .L457
 5436              	.LVL539:
 5437              	.L313:
 5438              	.LBE3794:
 5439              	.LBE3579:
 5440              	.LBB3795:
 5441              	.LBB3796:
 5442              	.LBB3797:
 5443              	.LBB3798:
 5444              	.LBB3799:
 5445              	.LBB3800:
 5446              	.LBB3801:
 5447              	.LBB3802:
 5448              		.loc 2 608 0
 5449 029c 83F8001C 		lwz 31,28(24)
 5450              	.LBE3802:
 5451              		.loc 5 88 0
 5452 02a0 3BB80014 		addi 29,24,20
 5453              	.LBE3801:
 5454              	.LBE3800:
 5455              	.LBE3799:
 5456              	.LBE3798:
 5457              	.LBE3797:
 5458              	.LBE3796:
 5459              	.LBE3795:
 5460              	.LBE3578:
 5461              	.LBE3825:
 5462              		.loc 2 608 0
 5463 02a4 83D80008 		lwz 30,8(24)
 5464              	.LVL540:
 5465              	.LBB3826:
 5466              	.LBB3824:
 5467              	.LBB3823:
 5468              	.LBB3819:
 5469              	.LBB3818:
 5470              	.LBB3817:
 5471              	.LBB3816:
 5472              	.LBB3815:
 5473              	.LBB3814:
 5474              	.LBB3813:
 5475              	.LBB3803:
 5476              	.LBB3804:
 5477              	.LBB3805:
 5478              		.loc 1 1072 0
 5479 02a8 2F9F0000 		cmpwi 7,31,0
 5480 02ac 419E0028 		beq- 7,.L408
 5481              	.LVL541:
 5482              	.L469:
 5483              	.LBB3806:
 5484              		.loc 1 1074 0
 5485 02b0 809F000C 		lwz 4,12(31)
 5486 02b4 7FA3EB78 		mr 3,29
 5487 02b8 48000001 		bl _ZNSt8_Rb_treeIwSt4pairIKw13ftgxCharData_ESt10_Select1stIS3_ESt4lessIwESaIS3_EE8_M_eraseEPSt13_
 5488              	.LBE3806:
 5489              	.LBE3805:
 5490              		.loc 2 608 0
 5491 02bc 839F0008 		lwz 28,8(31)
 5492              	.LVL542:
 5493              	.LBB3812:
 5494              	.LBB3811:
 5495              	.LBB3807:
 5496              	.LBB3808:
 5497              	.LBB3809:
 5498              	.LBB3810:
 5499              		.loc 3 98 0
 5500 02c0 7FE3FB78 		mr 3,31
 5501 02c4 48000001 		bl _ZdlPv
 5502              	.LVL543:
 5503              	.LBE3810:
 5504              	.LBE3809:
 5505              	.LBE3808:
 5506              	.LBE3807:
 5507              	.LBE3811:
 5508              		.loc 1 1072 0
 5509 02c8 2F9C0000 		cmpwi 7,28,0
 5510              		.loc 1 1077 0
 5511 02cc 7F9FE378 		mr 31,28
 5512              	.LVL544:
 5513              		.loc 1 1072 0
 5514 02d0 409EFFE0 		bne+ 7,.L469
 5515              	.LVL545:
 5516              	.L408:
 5517              	.LBE3812:
 5518              	.LBE3804:
 5519              	.LBE3803:
 5520              	.LBE3813:
 5521              	.LBE3814:
 5522              	.LBE3815:
 5523              	.LBE3816:
 5524              	.LBE3817:
 5525              	.LBE3818:
 5526              	.LBE3819:
 5527              	.LBB3820:
 5528              	.LBB3821:
 5529              	.LBB3822:
 5530              		.loc 3 98 0
 5531 02d4 7F03C378 		mr 3,24
 5532 02d8 48000001 		bl _ZdlPv
 5533              	.LVL546:
 5534              	.LBE3822:
 5535              	.LBE3821:
 5536              	.LBE3820:
 5537              	.LBE3823:
 5538              	.LBE3824:
 5539              		.loc 1 1072 0
 5540 02dc 2F9E0000 		cmpwi 7,30,0
 5541 02e0 419E000C 		beq- 7,.L312
 5542              		.loc 1 1077 0
 5543 02e4 7FD8F378 		mr 24,30
 5544              	.LVL547:
 5545 02e8 4BFFFD80 		b .L456
 5546              	.LVL548:
 5547              	.L312:
 5548              	.LBE3826:
 5549              	.LBE3576:
 5550              	.LBB3827:
 5551              	.LBB3828:
 5552              	.LBB3829:
 5553              	.LBB3830:
 5554              	.LBB3831:
 5555              	.LBB3832:
 5556              	.LBB3833:
 5557              	.LBB3834:
 5558              		.loc 2 608 0
 5559 02ec 83F9001C 		lwz 31,28(25)
 5560              	.LBE3834:
 5561              		.loc 5 88 0
 5562 02f0 3BB90014 		addi 29,25,20
 5563              	.LBE3833:
 5564              	.LBE3832:
 5565              	.LBE3831:
 5566              	.LBE3830:
 5567              	.LBE3829:
 5568              	.LBE3828:
 5569              	.LBE3827:
 5570              	.LBE3575:
 5571              	.LBE3857:
 5572              		.loc 2 608 0
 5573 02f4 83D90008 		lwz 30,8(25)
 5574              	.LVL549:
 5575              	.LBB3858:
 5576              	.LBB3856:
 5577              	.LBB3855:
 5578              	.LBB3851:
 5579              	.LBB3850:
 5580              	.LBB3849:
 5581              	.LBB3848:
 5582              	.LBB3847:
 5583              	.LBB3846:
 5584              	.LBB3845:
 5585              	.LBB3835:
 5586              	.LBB3836:
 5587              	.LBB3837:
 5588              		.loc 1 1072 0
 5589 02f8 2F9F0000 		cmpwi 7,31,0
 5590 02fc 419E0028 		beq- 7,.L421
 5591              	.LVL550:
 5592              	.L470:
 5593              	.LBB3838:
 5594              		.loc 1 1074 0
 5595 0300 809F000C 		lwz 4,12(31)
 5596 0304 7FA3EB78 		mr 3,29
 5597 0308 48000001 		bl _ZNSt8_Rb_treeIwSt4pairIKw13ftgxCharData_ESt10_Select1stIS3_ESt4lessIwESaIS3_EE8_M_eraseEPSt13_
 5598              	.LBE3838:
 5599              	.LBE3837:
 5600              		.loc 2 608 0
 5601 030c 839F0008 		lwz 28,8(31)
 5602              	.LVL551:
 5603              	.LBB3844:
 5604              	.LBB3843:
 5605              	.LBB3839:
 5606              	.LBB3840:
 5607              	.LBB3841:
 5608              	.LBB3842:
 5609              		.loc 3 98 0
 5610 0310 7FE3FB78 		mr 3,31
 5611 0314 48000001 		bl _ZdlPv
 5612              	.LVL552:
 5613              	.LBE3842:
 5614              	.LBE3841:
 5615              	.LBE3840:
 5616              	.LBE3839:
 5617              	.LBE3843:
 5618              		.loc 1 1072 0
 5619 0318 2F9C0000 		cmpwi 7,28,0
 5620              		.loc 1 1077 0
 5621 031c 7F9FE378 		mr 31,28
 5622              	.LVL553:
 5623              		.loc 1 1072 0
 5624 0320 409EFFE0 		bne+ 7,.L470
 5625              	.LVL554:
 5626              	.L421:
 5627              	.LBE3844:
 5628              	.LBE3836:
 5629              	.LBE3835:
 5630              	.LBE3845:
 5631              	.LBE3846:
 5632              	.LBE3847:
 5633              	.LBE3848:
 5634              	.LBE3849:
 5635              	.LBE3850:
 5636              	.LBE3851:
 5637              	.LBB3852:
 5638              	.LBB3853:
 5639              	.LBB3854:
 5640              		.loc 3 98 0
 5641 0324 7F23CB78 		mr 3,25
 5642 0328 48000001 		bl _ZdlPv
 5643              	.LVL555:
 5644              	.LBE3854:
 5645              	.LBE3853:
 5646              	.LBE3852:
 5647              	.LBE3855:
 5648              	.LBE3856:
 5649              		.loc 1 1072 0
 5650 032c 2F9E0000 		cmpwi 7,30,0
 5651 0330 419E000C 		beq- 7,.L311
 5652              		.loc 1 1077 0
 5653 0334 7FD9F378 		mr 25,30
 5654              	.LVL556:
 5655 0338 4BFFFD24 		b .L455
 5656              	.LVL557:
 5657              	.L311:
 5658              	.LBE3858:
 5659              	.LBE3573:
 5660              	.LBB3860:
 5661              	.LBB3861:
 5662              	.LBB3862:
 5663              	.LBB3863:
 5664              	.LBB3864:
 5665              	.LBB3865:
 5666              	.LBB3866:
 5667              	.LBB3867:
 5668              		.loc 2 608 0
 5669 033c 83F3001C 		lwz 31,28(19)
 5670              	.LBE3867:
 5671              		.loc 5 88 0
 5672 0340 3BB30014 		addi 29,19,20
 5673              	.LBE3866:
 5674              	.LBE3865:
 5675              	.LBE3864:
 5676              	.LBE3863:
 5677              	.LBE3862:
 5678              	.LBE3861:
 5679              	.LBE3860:
 5680              	.LBB3888:
 5681              	.LBB3859:
 5682              		.loc 2 608 0
 5683 0344 83D30008 		lwz 30,8(19)
 5684              	.LVL558:
 5685              	.LBE3859:
 5686              	.LBE3888:
 5687              	.LBB3889:
 5688              	.LBB3884:
 5689              	.LBB3883:
 5690              	.LBB3882:
 5691              	.LBB3881:
 5692              	.LBB3880:
 5693              	.LBB3879:
 5694              	.LBB3878:
 5695              	.LBB3868:
 5696              	.LBB3869:
 5697              	.LBB3870:
 5698              		.loc 1 1072 0
 5699 0348 2F9F0000 		cmpwi 7,31,0
 5700 034c 419E0028 		beq- 7,.L434
 5701              	.LVL559:
 5702              	.L471:
 5703              	.LBB3871:
 5704              		.loc 1 1074 0
 5705 0350 809F000C 		lwz 4,12(31)
 5706 0354 7FA3EB78 		mr 3,29
 5707 0358 48000001 		bl _ZNSt8_Rb_treeIwSt4pairIKw13ftgxCharData_ESt10_Select1stIS3_ESt4lessIwESaIS3_EE8_M_eraseEPSt13_
 5708              	.LBE3871:
 5709              	.LBE3870:
 5710              		.loc 2 608 0
 5711 035c 839F0008 		lwz 28,8(31)
 5712              	.LVL560:
 5713              	.LBB3877:
 5714              	.LBB3876:
 5715              	.LBB3872:
 5716              	.LBB3873:
 5717              	.LBB3874:
 5718              	.LBB3875:
 5719              		.loc 3 98 0
 5720 0360 7FE3FB78 		mr 3,31
 5721 0364 48000001 		bl _ZdlPv
 5722              	.LVL561:
 5723              	.LBE3875:
 5724              	.LBE3874:
 5725              	.LBE3873:
 5726              	.LBE3872:
 5727              	.LBE3876:
 5728              		.loc 1 1072 0
 5729 0368 2F9C0000 		cmpwi 7,28,0
 5730              		.loc 1 1077 0
 5731 036c 7F9FE378 		mr 31,28
 5732              	.LVL562:
 5733              		.loc 1 1072 0
 5734 0370 409EFFE0 		bne+ 7,.L471
 5735              	.LVL563:
 5736              	.L434:
 5737              	.LBE3877:
 5738              	.LBE3869:
 5739              	.LBE3868:
 5740              	.LBE3878:
 5741              	.LBE3879:
 5742              	.LBE3880:
 5743              	.LBE3881:
 5744              	.LBE3882:
 5745              	.LBE3883:
 5746              	.LBE3884:
 5747              	.LBB3885:
 5748              	.LBB3886:
 5749              	.LBB3887:
 5750              		.loc 3 98 0
 5751 0374 7E639B78 		mr 3,19
 5752 0378 48000001 		bl _ZdlPv
 5753              	.LVL564:
 5754              	.LBE3887:
 5755              	.LBE3886:
 5756              	.LBE3885:
 5757              	.LBE3889:
 5758              	.LBE3572:
 5759              		.loc 1 1072 0
 5760 037c 2F9E0000 		cmpwi 7,30,0
 5761 0380 419E000C 		beq- 7,.L309
 5762              		.loc 1 1077 0
 5763 0384 7FD3F378 		mr 19,30
 5764              	.LVL565:
 5765 0388 4BFFFCC8 		b .L454
 5766              	.LVL566:
 5767              	.L309:
 5768              	.LBE3890:
 5769              		.loc 1 1079 0
 5770 038c 80010044 		lwz 0,68(1)
 5771 0390 82410008 		lwz 18,8(1)
 5772 0394 7C0803A6 		mtlr 0
 5773 0398 8261000C 		lwz 19,12(1)
 5774 039c 82810010 		lwz 20,16(1)
 5775 03a0 82A10014 		lwz 21,20(1)
 5776 03a4 82C10018 		lwz 22,24(1)
 5777 03a8 82E1001C 		lwz 23,28(1)
 5778 03ac 83010020 		lwz 24,32(1)
 5779 03b0 83210024 		lwz 25,36(1)
 5780 03b4 83410028 		lwz 26,40(1)
 5781 03b8 8361002C 		lwz 27,44(1)
 5782              	.LVL567:
 5783 03bc 83810030 		lwz 28,48(1)
 5784 03c0 83A10034 		lwz 29,52(1)
 5785 03c4 83C10038 		lwz 30,56(1)
 5786 03c8 83E1003C 		lwz 31,60(1)
 5787 03cc 38210040 		addi 1,1,64
 5788              	.LCFI44:
 5789              		.cfi_def_cfa_offset 0
 5790              		.cfi_restore 31
 5791              		.cfi_restore 30
 5792              		.cfi_restore 29
 5793              		.cfi_restore 28
 5794              		.cfi_restore 27
 5795              		.cfi_restore 26
 5796              		.cfi_restore 25
 5797              		.cfi_restore 24
 5798              		.cfi_restore 23
 5799              		.cfi_restore 22
 5800              		.cfi_restore 21
 5801              		.cfi_restore 20
 5802              		.cfi_restore 19
 5803              		.cfi_restore 18
 5804 03d0 4E800020 		blr
 5805              		.cfi_endproc
 5806              	.LFE627:
 5807              		.size	_ZNSt8_Rb_treeIsSt4pairIKsSt3mapIw13ftgxCharData_St4lessIwESaIS0_IKwS3_EEEESt10_Select1stISA
 5808              		.section	".text"
 5809              		.align 2
 5810              		.globl _ZN10FreeTypeGXC2EPKhlb
 5811              		.type	_ZN10FreeTypeGXC2EPKhlb, @function
 5812              	_ZN10FreeTypeGXC2EPKhlb:
 5813              	.LFB547:
 5814              		.loc 2 64 0
 5815              		.cfi_startproc
 5816              		.cfi_personality 0,__gxx_personality_v0
 5817              		.cfi_lsda 0,.LLSDA547
 5818              	.LVL568:
 5819 15fc 7C0802A6 		mflr 0
 5820 1600 9421FFE0 		stwu 1,-32(1)
 5821              	.LCFI45:
 5822              		.cfi_def_cfa_offset 32
 5823              		.cfi_register 65, 0
 5824              	.LBB3931:
 5825              	.LBB3932:
 5826              	.LBB3933:
 5827              	.LBB3934:
 5828              	.LBB3935:
 5829              	.LBB3936:
 5830              		.loc 1 459 0
 5831 1604 39630010 		addi 11,3,16
 5832              	.LBE3936:
 5833              	.LBE3935:
 5834              	.LBE3934:
 5835              	.LBE3933:
 5836              	.LBE3932:
 5837              	.LBE3931:
 5838              	.LBB3945:
 5839              	.LBB3946:
 5840              	.LBB3947:
 5841              	.LBB3948:
 5842              	.LBB3949:
 5843              	.LBB3950:
 5844 1608 39230028 		addi 9,3,40
 5845              	.LBE3950:
 5846              	.LBE3949:
 5847              	.LBE3948:
 5848              	.LBE3947:
 5849              	.LBE3946:
 5850              	.LBE3945:
 5851              		.loc 2 64 0
 5852 160c 93810010 		stw 28,16(1)
 5853 1610 7C9C2378 		mr 28,4
 5854              		.cfi_offset 28, -16
 5855 1614 90010024 		stw 0,36(1)
 5856              	.LBB3956:
 5857              	.LBB3943:
 5858              	.LBB3941:
 5859              	.LBB3939:
 5860              		.loc 1 445 0
 5861 1618 38000000 		li 0,0
 5862              		.cfi_offset 65, 4
 5863              	.LBE3939:
 5864              	.LBE3941:
 5865              	.LBE3943:
 5866              	.LBE3956:
 5867              		.loc 2 64 0
 5868 161c 93A10014 		stw 29,20(1)
 5869 1620 7CBD2B78 		mr 29,5
 5870              		.cfi_offset 29, -12
 5871 1624 93C10018 		stw 30,24(1)
 5872 1628 7CDE3378 		mr 30,6
 5873              		.cfi_offset 30, -8
 5874 162c 93E1001C 		stw 31,28(1)
 5875 1630 7C7F1B78 		mr 31,3
 5876              		.cfi_offset 31, -4
 5877              	.LVL569:
 5878 1634 9361000C 		stw 27,12(1)
 5879              	.LBB3957:
 5880              	.LBB3944:
 5881              	.LBB3942:
 5882              	.LBB3940:
 5883              		.loc 1 445 0
 5884 1638 90030010 		stw 0,16(3)
 5885 163c 90030014 		stw 0,20(3)
 5886 1640 90030020 		stw 0,32(3)
 5887              	.LVL570:
 5888              	.LBB3938:
 5889              	.LBB3937:
 5890              		.loc 1 459 0
 5891 1644 91630018 		stw 11,24(3)
 5892              		.loc 1 460 0
 5893 1648 9163001C 		stw 11,28(3)
 5894              	.LVL571:
 5895              	.LBE3937:
 5896              	.LBE3938:
 5897              	.LBE3940:
 5898              	.LBE3942:
 5899              	.LBE3944:
 5900              	.LBE3957:
 5901              	.LBB3958:
 5902              	.LBB3955:
 5903              	.LBB3954:
 5904              	.LBB3953:
 5905              		.loc 1 445 0
 5906 164c 90030028 		stw 0,40(3)
 5907 1650 9003002C 		stw 0,44(3)
 5908 1654 90030038 		stw 0,56(3)
 5909              	.LVL572:
 5910              	.LBB3952:
 5911              	.LBB3951:
 5912              		.loc 1 459 0
 5913 1658 91230030 		stw 9,48(3)
 5914              		.loc 1 460 0
 5915 165c 91230034 		stw 9,52(3)
 5916              	.LVL573:
 5917              	.LBE3951:
 5918              	.LBE3952:
 5919              	.LBE3953:
 5920              	.LBE3954:
 5921              	.LBE3955:
 5922              	.LBE3958:
 5923              	.LBB3959:
 5924              		.loc 2 67 0
 5925 1660 B0030008 		sth 0,8(3)
 5926              	.LEHB0:
 5927              		.loc 2 69 0
 5928              		.cfi_offset 27, -20
 5929 1664 48000001 		bl FT_Init_FreeType
 5930              	.LVL574:
 5931              		.loc 2 70 0
 5932 1668 2F9E0000 		cmpwi 7,30,0
 5933              		.loc 2 66 0
 5934 166c 38C00000 		li 6,0
 5935 1670 3BDF0004 		addi 30,31,4
 5936              	.LVL575:
 5937              		.loc 2 70 0
 5938 1674 419E0038 		beq- 7,.L473
 5939              		.loc 2 72 0
 5940 1678 807F0000 		lwz 3,0(31)
 5941 167c 7F84E378 		mr 4,28
 5942 1680 7FA5EB78 		mr 5,29
 5943 1684 38C0FFFF 		li 6,-1
 5944 1688 7FC7F378 		mr 7,30
 5945 168c 48000001 		bl FT_New_Memory_Face
 5946              		.loc 2 73 0
 5947 1690 813F0004 		lwz 9,4(31)
 5948              		.loc 2 74 0
 5949 1694 7D234B78 		mr 3,9
 5950              		.loc 2 73 0
 5951 1698 83690000 		lwz 27,0(9)
 5952              	.LVL576:
 5953              		.loc 2 74 0
 5954 169c 48000001 		bl FT_Done_Face
 5955              	.LVL577:
 5956              		.loc 2 75 0
 5957 16a0 38000000 		li 0,0
 5958              		.loc 2 73 0
 5959 16a4 38DBFFFF 		addi 6,27,-1
 5960              		.loc 2 75 0
 5961 16a8 901F0004 		stw 0,4(31)
 5962              	.LVL578:
 5963              	.L473:
 5964              		.loc 2 77 0
 5965 16ac 807F0000 		lwz 3,0(31)
 5966 16b0 7F84E378 		mr 4,28
 5967 16b4 7FA5EB78 		mr 5,29
 5968 16b8 7FC7F378 		mr 7,30
 5969 16bc 48000001 		bl FT_New_Memory_Face
 5970              	.LVL579:
 5971              	.LBB3960:
 5972              	.LBB3961:
 5973              		.loc 2 104 0
 5974 16c0 38000001 		li 0,1
 5975              		.loc 2 105 0
 5976 16c4 38600001 		li 3,1
 5977              		.loc 2 104 0
 5978 16c8 981F000B 		stb 0,11(31)
 5979              		.loc 2 105 0
 5980 16cc 38800009 		li 4,9
 5981 16d0 38A00001 		li 5,1
 5982 16d4 38C00003 		li 6,3
 5983 16d8 38E00000 		li 7,0
 5984 16dc 48000001 		bl GX_SetVtxAttrFmt
 5985              		.loc 2 106 0
 5986 16e0 887F000B 		lbz 3,11(31)
 5987 16e4 3880000D 		li 4,13
 5988 16e8 38A00001 		li 5,1
 5989 16ec 38C00004 		li 6,4
 5990 16f0 38E00000 		li 7,0
 5991 16f4 48000001 		bl GX_SetVtxAttrFmt
 5992              		.loc 2 107 0
 5993 16f8 887F000B 		lbz 3,11(31)
 5994 16fc 3880000B 		li 4,11
 5995 1700 38A00001 		li 5,1
 5996 1704 38C00005 		li 6,5
 5997 1708 38E00000 		li 7,0
 5998 170c 48000001 		bl GX_SetVtxAttrFmt
 5999              	.LEHE0:
 6000              	.LBE3961:
 6001              	.LBE3960:
 6002              		.loc 2 80 0
 6003 1710 38000000 		li 0,0
 6004              	.LBE3959:
 6005              		.loc 2 81 0
 6006 1714 8361000C 		lwz 27,12(1)
 6007              	.LBB3962:
 6008              		.loc 2 80 0
 6009 1718 981F000A 		stb 0,10(31)
 6010              	.LBE3962:
 6011              		.loc 2 81 0
 6012 171c 80010024 		lwz 0,36(1)
 6013 1720 83810010 		lwz 28,16(1)
 6014              	.LVL580:
 6015 1724 7C0803A6 		mtlr 0
 6016 1728 83A10014 		lwz 29,20(1)
 6017              	.LVL581:
 6018 172c 83C10018 		lwz 30,24(1)
 6019 1730 83E1001C 		lwz 31,28(1)
 6020              	.LVL582:
 6021 1734 38210020 		addi 1,1,32
 6022              		.cfi_remember_state
 6023              	.LCFI46:
 6024              		.cfi_def_cfa_offset 0
 6025              		.cfi_restore 31
 6026              		.cfi_restore 30
 6027              		.cfi_restore 29
 6028              		.cfi_restore 28
 6029              		.cfi_restore 27
 6030 1738 4E800020 		blr
 6031              	.LVL583:
 6032              	.L486:
 6033              	.LCFI47:
 6034              		.cfi_restore_state
 6035              	.LBB3963:
 6036              	.LBB3964:
 6037              	.LBB3965:
 6038              	.LBB3966:
 6039              	.LBB3967:
 6040              	.LBB3968:
 6041              		.loc 1 639 0
 6042 173c 809F002C 		lwz 4,44(31)
 6043 1740 7C7E1B78 		mr 30,3
 6044              	.LVL584:
 6045 1744 387F0024 		addi 3,31,36
 6046 1748 48000001 		bl _ZNSt8_Rb_treeIsSt4pairIKs15ftgxDataOffset_ESt10_Select1stIS3_ESt4lessIsESaIS3_EE8_M_eraseEPSt1
 6047              	.LVL585:
 6048              	.LBE3968:
 6049              	.LBE3967:
 6050              	.LBE3966:
 6051              	.LBE3965:
 6052              	.LBE3964:
 6053              	.LBE3963:
 6054              	.LBB3969:
 6055              	.LBB3970:
 6056              	.LBB3971:
 6057              	.LBB3972:
 6058              	.LBB3973:
 6059              	.LBB3974:
 6060 174c 809F0014 		lwz 4,20(31)
 6061 1750 387F000C 		addi 3,31,12
 6062 1754 48000001 		bl _ZNSt8_Rb_treeIsSt4pairIKsSt3mapIw13ftgxCharData_St4lessIwESaIS0_IKwS3_EEEESt10_Select1stISA_ES
 6063 1758 7FC3F378 		mr 3,30
 6064              	.LEHB1:
 6065 175c 48000001 		bl _Unwind_Resume
 6066              	.LEHE1:
 6067              	.LBE3974:
 6068              	.LBE3973:
 6069              	.LBE3972:
 6070              	.LBE3971:
 6071              	.LBE3970:
 6072              	.LBE3969:
 6073              		.cfi_endproc
 6074              	.LFE547:
 6075              		.globl __gxx_personality_v0
 6076              		.section	.gcc_except_table,"a",@progbits
 6077              	.LLSDA547:
 6078 0000 FF       		.byte	0xff
 6079 0001 FF       		.byte	0xff
 6080 0002 01       		.byte	0x1
 6081 0003 0B       		.uleb128 .LLSDACSE547-.LLSDACSB547
 6082              	.LLSDACSB547:
 6083 0004 68       		.uleb128 .LEHB0-.LFB547
 6084 0005 AC01     		.uleb128 .LEHE0-.LEHB0
 6085 0007 C002     		.uleb128 .L486-.LFB547
 6086 0009 00       		.uleb128 0
 6087 000a E002     		.uleb128 .LEHB1-.LFB547
 6088 000c 04       		.uleb128 .LEHE1-.LEHB1
 6089 000d 00       		.uleb128 0
 6090 000e 00       		.uleb128 0
 6091              	.LLSDACSE547:
 6092              		.section	".text"
 6093              		.size	_ZN10FreeTypeGXC2EPKhlb, .-_ZN10FreeTypeGXC2EPKhlb
 6094              		.align 2
 6095              		.globl _ZN10FreeTypeGX10unloadFontEv
 6096              		.type	_ZN10FreeTypeGX10unloadFontEv, @function
 6097              	_ZN10FreeTypeGX10unloadFontEv:
 6098              	.LFB553:
 6099              		.loc 2 116 0
 6100              		.cfi_startproc
 6101              	.LVL586:
 6102 1760 7C0802A6 		mflr 0
 6103 1764 9421FFE0 		stwu 1,-32(1)
 6104              	.LCFI48:
 6105              		.cfi_def_cfa_offset 32
 6106              		.cfi_register 65, 0
 6107 1768 93A10014 		stw 29,20(1)
 6108 176c 7C7D1B78 		mr 29,3
 6109              		.cfi_offset 29, -12
 6110              	.LVL587:
 6111 1770 90010024 		stw 0,36(1)
 6112 1774 9361000C 		stw 27,12(1)
 6113              	.LBB3975:
 6114              		.loc 2 117 0
 6115 1778 80030020 		lwz 0,32(3)
 6116              		.cfi_offset 27, -20
 6117              		.cfi_offset 65, 4
 6118              	.LBE3975:
 6119              		.loc 2 116 0
 6120 177c 93810010 		stw 28,16(1)
 6121              	.LBB4019:
 6122              		.loc 2 117 0
 6123 1780 2F800000 		cmpwi 7,0,0
 6124              	.LBE4019:
 6125              		.loc 2 116 0
 6126 1784 93C10018 		stw 30,24(1)
 6127 1788 93E1001C 		stw 31,28(1)
 6128              	.LBB4020:
 6129              		.loc 2 117 0
 6130 178c 419E00B4 		beq- 7,.L487
 6131              		.cfi_offset 31, -4
 6132              		.cfi_offset 30, -8
 6133              		.cfi_offset 28, -16
 6134              	.LVL588:
 6135              	.LBB3976:
 6136              		.loc 2 608 0
 6137 1790 83C30018 		lwz 30,24(3)
 6138              	.LVL589:
 6139              	.LBE3976:
 6140              	.LBB3977:
 6141              	.LBB3978:
 6142              	.LBB3979:
 6143              		.loc 1 665 0
 6144 1794 3B830010 		addi 28,3,16
 6145              	.LVL590:
 6146              	.LBE3979:
 6147              	.LBE3978:
 6148              	.LBE3977:
 6149              		.loc 2 122 0
 6150 1798 7F9EE000 		cmpw 7,30,28
 6151 179c 419E0064 		beq- 7,.L489
 6152              	.LVL591:
 6153              	.L493:
 6154              	.LBB3980:
 6155              		.loc 2 608 0
 6156 17a0 837E0020 		lwz 27,32(30)
 6157              	.LVL592:
 6158              	.LBE3980:
 6159              	.LBB3981:
 6160              	.LBB3982:
 6161              	.LBB3983:
 6162              		.loc 1 665 0
 6163 17a4 3BFE0018 		addi 31,30,24
 6164              	.LVL593:
 6165              	.LBE3983:
 6166              	.LBE3982:
 6167              	.LBE3981:
 6168              		.loc 2 124 0
 6169 17a8 7F9BF800 		cmpw 7,27,31
 6170 17ac 419E0020 		beq- 7,.L490
 6171              	.LVL594:
 6172              	.L494:
 6173              		.loc 2 125 0
 6174 17b0 807B0028 		lwz 3,40(27)
 6175 17b4 48000001 		bl MEM2_free
 6176              	.LVL595:
 6177              	.LBB3984:
 6178              	.LBB3985:
 6179              		.loc 1 196 0
 6180 17b8 7F63DB78 		mr 3,27
 6181 17bc 48000001 		bl _ZSt18_Rb_tree_incrementPSt18_Rb_tree_node_base
 6182              	.LBE3985:
 6183              	.LBE3984:
 6184              		.loc 2 124 0
 6185 17c0 7F83F800 		cmpw 7,3,31
 6186              	.LBB3987:
 6187              	.LBB3986:
 6188              		.loc 1 196 0
 6189 17c4 7C7B1B78 		mr 27,3
 6190              	.LVL596:
 6191              	.LBE3986:
 6192              	.LBE3987:
 6193              		.loc 2 124 0
 6194 17c8 409EFFE8 		bne+ 7,.L494
 6195              	.LVL597:
 6196              	.L490:
 6197              	.LBB3988:
 6198              	.LBB3989:
 6199              	.LBB3990:
 6200              	.LBB3991:
 6201              		.loc 1 809 0
 6202 17cc 809E001C 		lwz 4,28(30)
 6203 17d0 387E0014 		addi 3,30,20
 6204 17d4 48000001 		bl _ZNSt8_Rb_treeIwSt4pairIKw13ftgxCharData_ESt10_Select1stIS3_ESt4lessIwESaIS3_EE8_M_eraseEPSt13_
 6205              	.LVL598:
 6206              		.loc 1 811 0
 6207 17d8 38000000 		li 0,0
 6208              		.loc 1 810 0
 6209 17dc 93FE0020 		stw 31,32(30)
 6210              	.LVL599:
 6211              	.LBE3991:
 6212              	.LBE3990:
 6213              	.LBE3989:
 6214              	.LBE3988:
 6215              	.LBB3995:
 6216              	.LBB3996:
 6217              		.loc 1 196 0
 6218 17e0 7FC3F378 		mr 3,30
 6219              	.LBE3996:
 6220              	.LBE3995:
 6221              	.LBB3999:
 6222              	.LBB3994:
 6223              	.LBB3993:
 6224              	.LBB3992:
 6225              		.loc 1 811 0
 6226 17e4 901E001C 		stw 0,28(30)
 6227              	.LVL600:
 6228              		.loc 1 812 0
 6229 17e8 93FE0024 		stw 31,36(30)
 6230              		.loc 1 813 0
 6231 17ec 901E0028 		stw 0,40(30)
 6232              	.LVL601:
 6233              	.LBE3992:
 6234              	.LBE3993:
 6235              	.LBE3994:
 6236              	.LBE3999:
 6237              	.LBB4000:
 6238              	.LBB3997:
 6239              		.loc 1 196 0
 6240 17f0 48000001 		bl _ZSt18_Rb_tree_incrementPSt18_Rb_tree_node_base
 6241              	.LBE3997:
 6242              	.LBE4000:
 6243              		.loc 2 122 0
 6244 17f4 7F83E000 		cmpw 7,3,28
 6245              	.LBB4001:
 6246              	.LBB3998:
 6247              		.loc 1 196 0
 6248 17f8 7C7E1B78 		mr 30,3
 6249              	.LVL602:
 6250              	.LBE3998:
 6251              	.LBE4001:
 6252              		.loc 2 122 0
 6253 17fc 409EFFA4 		bne+ 7,.L493
 6254              	.LVL603:
 6255              	.L489:
 6256              	.LBB4002:
 6257              	.LBB4003:
 6258              	.LBB4004:
 6259              	.LBB4005:
 6260              		.loc 1 809 0
 6261 1800 809D0014 		lwz 4,20(29)
 6262              		.loc 1 811 0
 6263 1804 3BE00000 		li 31,0
 6264              		.loc 1 809 0
 6265 1808 387D000C 		addi 3,29,12
 6266 180c 48000001 		bl _ZNSt8_Rb_treeIsSt4pairIKsSt3mapIw13ftgxCharData_St4lessIwESaIS0_IKwS3_EEEESt10_Select1stISA_ES
 6267              	.LVL604:
 6268              		.loc 1 810 0
 6269 1810 939D0018 		stw 28,24(29)
 6270              	.LVL605:
 6271              		.loc 1 811 0
 6272 1814 93FD0014 		stw 31,20(29)
 6273              	.LVL606:
 6274              	.LBE4005:
 6275              	.LBE4004:
 6276              	.LBE4003:
 6277              	.LBE4002:
 6278              	.LBB4009:
 6279              	.LBB4010:
 6280              	.LBB4011:
 6281              	.LBB4012:
 6282              		.loc 1 809 0
 6283 1818 387D0024 		addi 3,29,36
 6284              	.LBE4012:
 6285              	.LBE4011:
 6286              	.LBE4010:
 6287              	.LBE4009:
 6288              	.LBB4017:
 6289              	.LBB4008:
 6290              	.LBB4007:
 6291              	.LBB4006:
 6292              		.loc 1 812 0
 6293 181c 939D001C 		stw 28,28(29)
 6294              		.loc 1 813 0
 6295 1820 93FD0020 		stw 31,32(29)
 6296              	.LVL607:
 6297              	.LBE4006:
 6298              	.LBE4007:
 6299              	.LBE4008:
 6300              	.LBE4017:
 6301              	.LBB4018:
 6302              	.LBB4016:
 6303              	.LBB4015:
 6304              	.LBB4013:
 6305              		.loc 1 809 0
 6306 1824 809D002C 		lwz 4,44(29)
 6307 1828 48000001 		bl _ZNSt8_Rb_treeIsSt4pairIKs15ftgxDataOffset_ESt10_Select1stIS3_ESt4lessIsESaIS3_EE8_M_eraseEPSt1
 6308              	.LVL608:
 6309              	.LBE4013:
 6310              		.loc 1 810 0
 6311 182c 381D0028 		addi 0,29,40
 6312              	.LBB4014:
 6313 1830 901D0030 		stw 0,48(29)
 6314              		.loc 1 811 0
 6315 1834 93FD002C 		stw 31,44(29)
 6316              		.loc 1 812 0
 6317 1838 901D0034 		stw 0,52(29)
 6318              		.loc 1 813 0
 6319 183c 93FD0038 		stw 31,56(29)
 6320              	.LVL609:
 6321              	.L487:
 6322              	.LBE4014:
 6323              	.LBE4015:
 6324              	.LBE4016:
 6325              	.LBE4018:
 6326              	.LBE4020:
 6327              		.loc 2 132 0
 6328 1840 80010024 		lwz 0,36(1)
 6329 1844 8361000C 		lwz 27,12(1)
 6330 1848 7C0803A6 		mtlr 0
 6331 184c 83810010 		lwz 28,16(1)
 6332 1850 83A10014 		lwz 29,20(1)
 6333              	.LVL610:
 6334 1854 83C10018 		lwz 30,24(1)
 6335 1858 83E1001C 		lwz 31,28(1)
 6336 185c 38210020 		addi 1,1,32
 6337              	.LCFI49:
 6338              		.cfi_def_cfa_offset 0
 6339              		.cfi_restore 31
 6340              		.cfi_restore 30
 6341              		.cfi_restore 29
 6342              		.cfi_restore 28
 6343              		.cfi_restore 27
 6344 1860 4E800020 		blr
 6345              		.cfi_endproc
 6346              	.LFE553:
 6347              		.size	_ZN10FreeTypeGX10unloadFontEv, .-_ZN10FreeTypeGX10unloadFontEv
 6348              		.align 2
 6349              		.globl _ZN10FreeTypeGXD2Ev
 6350              		.type	_ZN10FreeTypeGXD2Ev, @function
 6351              	_ZN10FreeTypeGXD2Ev:
 6352              	.LFB550:
 6353              		.loc 2 86 0
 6354              		.cfi_startproc
 6355              		.cfi_personality 0,__gxx_personality_v0
 6356              		.cfi_lsda 0,.LLSDA550
 6357              	.LVL611:
 6358 1864 7C0802A6 		mflr 0
 6359 1868 9421FFF0 		stwu 1,-16(1)
 6360              	.LCFI50:
 6361              		.cfi_def_cfa_offset 16
 6362              		.cfi_register 65, 0
 6363 186c 93E1000C 		stw 31,12(1)
 6364 1870 7C7F1B78 		mr 31,3
 6365              		.cfi_offset 31, -4
 6366 1874 90010014 		stw 0,20(1)
 6367 1878 93C10008 		stw 30,8(1)
 6368              	.LEHB2:
 6369              	.LBB4021:
 6370              		.loc 2 88 0
 6371              		.cfi_offset 30, -8
 6372              		.cfi_offset 65, 4
 6373 187c 48000001 		bl _ZN10FreeTypeGX10unloadFontEv
 6374              	.LVL612:
 6375              		.loc 2 89 0
 6376 1880 807F0004 		lwz 3,4(31)
 6377 1884 48000001 		bl FT_Done_Face
 6378              		.loc 2 90 0
 6379 1888 807F0000 		lwz 3,0(31)
 6380 188c 48000001 		bl FT_Done_FreeType
 6381              	.LEHE2:
 6382              	.LVL613:
 6383              	.LBB4022:
 6384              	.LBB4023:
 6385              	.LBB4024:
 6386              	.LBB4025:
 6387              	.LBB4026:
 6388              	.LBB4027:
 6389              		.loc 1 639 0
 6390 1890 809F002C 		lwz 4,44(31)
 6391 1894 387F0024 		addi 3,31,36
 6392 1898 48000001 		bl _ZNSt8_Rb_treeIsSt4pairIKs15ftgxDataOffset_ESt10_Select1stIS3_ESt4lessIsESaIS3_EE8_M_eraseEPSt1
 6393              	.LVL614:
 6394              	.LBE4027:
 6395              	.LBE4026:
 6396              	.LBE4025:
 6397              	.LBE4024:
 6398              	.LBE4023:
 6399              	.LBE4022:
 6400              	.LBB4028:
 6401              	.LBB4029:
 6402              	.LBB4030:
 6403              	.LBB4031:
 6404              	.LBB4032:
 6405              	.LBB4033:
 6406 189c 809F0014 		lwz 4,20(31)
 6407 18a0 387F000C 		addi 3,31,12
 6408 18a4 48000001 		bl _ZNSt8_Rb_treeIsSt4pairIKsSt3mapIw13ftgxCharData_St4lessIwESaIS0_IKwS3_EEEESt10_Select1stISA_ES
 6409              	.LBE4033:
 6410              	.LBE4032:
 6411              	.LBE4031:
 6412              	.LBE4030:
 6413              	.LBE4029:
 6414              	.LBE4028:
 6415              	.LBE4021:
 6416              		.loc 2 91 0
 6417 18a8 80010014 		lwz 0,20(1)
 6418 18ac 83C10008 		lwz 30,8(1)
 6419 18b0 7C0803A6 		mtlr 0
 6420 18b4 83E1000C 		lwz 31,12(1)
 6421              	.LVL615:
 6422 18b8 38210010 		addi 1,1,16
 6423              		.cfi_remember_state
 6424              	.LCFI51:
 6425              		.cfi_def_cfa_offset 0
 6426              		.cfi_restore 31
 6427              		.cfi_restore 30
 6428 18bc 4E800020 		blr
 6429              	.LVL616:
 6430              	.L520:
 6431              	.LCFI52:
 6432              		.cfi_restore_state
 6433              	.LBB4046:
 6434              	.LBB4034:
 6435              	.LBB4035:
 6436              	.LBB4036:
 6437              	.LBB4037:
 6438              	.LBB4038:
 6439              	.LBB4039:
 6440              		.loc 1 639 0
 6441 18c0 809F002C 		lwz 4,44(31)
 6442 18c4 7C7E1B78 		mr 30,3
 6443              	.LVL617:
 6444 18c8 387F0024 		addi 3,31,36
 6445 18cc 48000001 		bl _ZNSt8_Rb_treeIsSt4pairIKs15ftgxDataOffset_ESt10_Select1stIS3_ESt4lessIsESaIS3_EE8_M_eraseEPSt1
 6446              	.LVL618:
 6447              	.LBE4039:
 6448              	.LBE4038:
 6449              	.LBE4037:
 6450              	.LBE4036:
 6451              	.LBE4035:
 6452              	.LBE4034:
 6453              	.LBB4040:
 6454              	.LBB4041:
 6455              	.LBB4042:
 6456              	.LBB4043:
 6457              	.LBB4044:
 6458              	.LBB4045:
 6459 18d0 809F0014 		lwz 4,20(31)
 6460 18d4 387F000C 		addi 3,31,12
 6461 18d8 48000001 		bl _ZNSt8_Rb_treeIsSt4pairIKsSt3mapIw13ftgxCharData_St4lessIwESaIS0_IKwS3_EEEESt10_Select1stISA_ES
 6462 18dc 7FC3F378 		mr 3,30
 6463              	.LEHB3:
 6464 18e0 48000001 		bl _Unwind_Resume
 6465              	.LEHE3:
 6466              	.LBE4045:
 6467              	.LBE4044:
 6468              	.LBE4043:
 6469              	.LBE4042:
 6470              	.LBE4041:
 6471              	.LBE4040:
 6472              	.LBE4046:
 6473              		.cfi_endproc
 6474              	.LFE550:
 6475              		.section	.gcc_except_table
 6476              	.LLSDA550:
 6477 000f FF       		.byte	0xff
 6478 0010 FF       		.byte	0xff
 6479 0011 01       		.byte	0x1
 6480 0012 08       		.uleb128 .LLSDACSE550-.LLSDACSB550
 6481              	.LLSDACSB550:
 6482 0013 18       		.uleb128 .LEHB2-.LFB550
 6483 0014 14       		.uleb128 .LEHE2-.LEHB2
 6484 0015 5C       		.uleb128 .L520-.LFB550
 6485 0016 00       		.uleb128 0
 6486 0017 7C       		.uleb128 .LEHB3-.LFB550
 6487 0018 04       		.uleb128 .LEHE3-.LEHB3
 6488 0019 00       		.uleb128 0
 6489 001a 00       		.uleb128 0
 6490              	.LLSDACSE550:
 6491              		.section	".text"
 6492              		.size	_ZN10FreeTypeGXD2Ev, .-_ZN10FreeTypeGXD2Ev
 6493              		.section	.text._ZNSt8_Rb_treeIwSt4pairIKw13ftgxCharData_ESt10_Select1stIS3_ESt4lessIwESaIS3_EE7_M_
 6494              		.align 2
 6495              		.weak	_ZNSt8_Rb_treeIwSt4pairIKw13ftgxCharData_ESt10_Select1stIS3_ESt4lessIwESaIS3_EE7_M_copyEPKSt
 6496              		.type	_ZNSt8_Rb_treeIwSt4pairIKw13ftgxCharData_ESt10_Select1stIS3_ESt4lessIwESaIS3_EE7_M_copyEPKSt
 6497              	_ZNSt8_Rb_treeIwSt4pairIKw13ftgxCharData_ESt10_Select1stIS3_ESt4lessIwESaIS3_EE7_M_copyEPKSt13_Rb_t
 6498              	.LFB879:
 6499              		.loc 1 1032 0
 6500              		.cfi_startproc
 6501              		.cfi_personality 0,__gxx_personality_v0
 6502              		.cfi_lsda 0,.LLSDA879
 6503              	.LVL619:
 6504 0000 9421FFD8 		stwu 1,-40(1)
 6505              	.LCFI53:
 6506              		.cfi_def_cfa_offset 40
 6507 0004 7C0802A6 		mflr 0
 6508 0008 93810018 		stw 28,24(1)
 6509 000c 7C7C1B78 		mr 28,3
 6510              		.cfi_offset 28, -16
 6511              		.cfi_register 65, 0
 6512              	.LBB4078:
 6513              	.LBB4079:
 6514              	.LBB4080:
 6515              	.LBB4081:
 6516              	.LBB4082:
 6517              	.LBB4083:
 6518              	.LBB4084:
 6519              	.LBB4085:
 6520              		.loc 3 92 0
 6521 0010 3860002C 		li 3,44
 6522              	.LVL620:
 6523              	.LBE4085:
 6524              	.LBE4084:
 6525              	.LBE4083:
 6526              	.LBE4082:
 6527              	.LBE4081:
 6528              	.LBE4080:
 6529              	.LBE4079:
 6530              	.LBE4078:
 6531              		.loc 1 1032 0
 6532 0014 93610014 		stw 27,20(1)
 6533 0018 93C10020 		stw 30,32(1)
 6534 001c 7CBE2B78 		mr 30,5
 6535              		.cfi_offset 30, -8
 6536              		.cfi_offset 27, -20
 6537 0020 93E10024 		stw 31,36(1)
 6538 0024 7C9F2378 		mr 31,4
 6539              		.cfi_offset 31, -4
 6540              	.LVL621:
 6541 0028 9001002C 		stw 0,44(1)
 6542 002c 93A1001C 		stw 29,28(1)
 6543              	.LEHB4:
 6544              	.LBB4122:
 6545              	.LBB4100:
 6546              	.LBB4098:
 6547              	.LBB4097:
 6548              	.LBB4096:
 6549              	.LBB4090:
 6550              	.LBB4088:
 6551              	.LBB4086:
 6552              		.loc 3 92 0
 6553              		.cfi_offset 29, -12
 6554              		.cfi_offset 65, 4
 6555 0030 48000001 		bl _Znwj
 6556              	.LEHE4:
 6557              	.LVL622:
 6558              	.LBE4086:
 6559              	.LBE4088:
 6560              	.LBE4090:
 6561              	.LBB4091:
 6562              	.LBB4092:
 6563              		.loc 3 108 0
 6564 0034 2F83FFF0 		cmpwi 7,3,-16
 6565              	.LBE4092:
 6566              	.LBE4091:
 6567              	.LBB4094:
 6568              	.LBB4089:
 6569              	.LBB4087:
 6570              		.loc 3 92 0
 6571 0038 7C7B1B78 		mr 27,3
 6572              	.LVL623:
 6573              	.LBE4087:
 6574              	.LBE4089:
 6575              	.LBE4094:
 6576              	.LBB4095:
 6577              	.LBB4093:
 6578              		.loc 3 108 0
 6579 003c 419E003C 		beq- 7,.L523
 6580 0040 817F0014 		lwz 11,20(31)
 6581 0044 813F0018 		lwz 9,24(31)
 6582 0048 801F001C 		lwz 0,28(31)
 6583 004c 815F0010 		lwz 10,16(31)
 6584 0050 91630014 		stw 11,20(3)
 6585 0054 91430010 		stw 10,16(3)
 6586 0058 91230018 		stw 9,24(3)
 6587 005c 9003001C 		stw 0,28(3)
 6588 0060 817F0020 		lwz 11,32(31)
 6589 0064 813F0024 		lwz 9,36(31)
 6590 0068 801F0028 		lwz 0,40(31)
 6591 006c 91630020 		stw 11,32(3)
 6592 0070 91230024 		stw 9,36(3)
 6593 0074 90030028 		stw 0,40(3)
 6594              	.LVL624:
 6595              	.L523:
 6596              	.LBE4093:
 6597              	.LBE4095:
 6598              	.LBE4096:
 6599              	.LBE4097:
 6600              		.loc 1 429 0
 6601 0078 38000000 		li 0,0
 6602              		.loc 1 428 0
 6603 007c 813F0000 		lwz 9,0(31)
 6604              		.loc 1 430 0
 6605 0080 901B000C 		stw 0,12(27)
 6606              		.loc 1 428 0
 6607 0084 913B0000 		stw 9,0(27)
 6608              	.LBE4098:
 6609              	.LBE4100:
 6610              	.LBB4101:
 6611              		.loc 1 1041 0
 6612 0088 809F000C 		lwz 4,12(31)
 6613              	.LBE4101:
 6614              	.LBB4119:
 6615              	.LBB4099:
 6616              		.loc 1 429 0
 6617 008c 901B0008 		stw 0,8(27)
 6618              	.LBE4099:
 6619              	.LBE4119:
 6620              	.LBB4120:
 6621              		.loc 1 1041 0
 6622 0090 2F840000 		cmpwi 7,4,0
 6623              	.LBE4120:
 6624              		.loc 1 1037 0
 6625 0094 93DB0004 		stw 30,4(27)
 6626              	.LBB4121:
 6627              		.loc 1 1041 0
 6628 0098 419E0014 		beq- 7,.L524
 6629              		.loc 1 1042 0
 6630 009c 7F83E378 		mr 3,28
 6631              	.LVL625:
 6632 00a0 7F65DB78 		mr 5,27
 6633              	.LEHB5:
 6634 00a4 48000001 		bl _ZNSt8_Rb_treeIwSt4pairIKw13ftgxCharData_ESt10_Select1stIS3_ESt4lessIwESaIS3_EE7_M_copyEPKSt13_
 6635 00a8 907B000C 		stw 3,12(27)
 6636              	.L524:
 6637              	.LVL626:
 6638              		.loc 2 608 0
 6639 00ac 83DF0008 		lwz 30,8(31)
 6640              	.LVL627:
 6641              		.loc 1 1046 0
 6642 00b0 7F7DDB78 		mr 29,27
 6643 00b4 2F9E0000 		cmpwi 7,30,0
 6644 00b8 40BE000C 		bne+ 7,.L529
 6645 00bc 48000098 		b .L525
 6646              	.LVL628:
 6647              	.L532:
 6648 00c0 7FFDFB78 		mr 29,31
 6649              	.LVL629:
 6650              	.L529:
 6651              	.LBB4102:
 6652              	.LBB4103:
 6653              	.LBB4104:
 6654              	.LBB4105:
 6655              	.LBB4106:
 6656              	.LBB4107:
 6657              	.LBB4108:
 6658              	.LBB4109:
 6659              		.loc 3 92 0
 6660 00c4 3860002C 		li 3,44
 6661 00c8 48000001 		bl _Znwj
 6662              	.LBE4109:
 6663              	.LBE4108:
 6664              	.LBE4107:
 6665              	.LBB4112:
 6666              	.LBB4113:
 6667              		.loc 3 108 0
 6668 00cc 2F83FFF0 		cmpwi 7,3,-16
 6669              	.LBE4113:
 6670              	.LBE4112:
 6671              	.LBB4115:
 6672              	.LBB4111:
 6673              	.LBB4110:
 6674              		.loc 3 92 0
 6675 00d0 7C7F1B78 		mr 31,3
 6676              	.LVL630:
 6677              	.LBE4110:
 6678              	.LBE4111:
 6679              	.LBE4115:
 6680              	.LBB4116:
 6681              	.LBB4114:
 6682              		.loc 3 108 0
 6683 00d4 419E003C 		beq- 7,.L527
 6684 00d8 817E0014 		lwz 11,20(30)
 6685 00dc 813E0018 		lwz 9,24(30)
 6686 00e0 801E001C 		lwz 0,28(30)
 6687 00e4 815E0010 		lwz 10,16(30)
 6688 00e8 91630014 		stw 11,20(3)
 6689 00ec 91430010 		stw 10,16(3)
 6690 00f0 91230018 		stw 9,24(3)
 6691 00f4 9003001C 		stw 0,28(3)
 6692 00f8 817E0020 		lwz 11,32(30)
 6693 00fc 813E0024 		lwz 9,36(30)
 6694 0100 801E0028 		lwz 0,40(30)
 6695 0104 91630020 		stw 11,32(3)
 6696 0108 91230024 		stw 9,36(3)
 6697 010c 90030028 		stw 0,40(3)
 6698              	.L527:
 6699              	.LBE4114:
 6700              	.LBE4116:
 6701              	.LBE4106:
 6702              	.LBE4105:
 6703              		.loc 1 429 0
 6704 0110 38000000 		li 0,0
 6705              		.loc 1 428 0
 6706 0114 813E0000 		lwz 9,0(30)
 6707              		.loc 1 430 0
 6708 0118 901F000C 		stw 0,12(31)
 6709              		.loc 1 429 0
 6710 011c 901F0008 		stw 0,8(31)
 6711              	.LBE4104:
 6712              	.LBE4103:
 6713              		.loc 1 1051 0
 6714 0120 809E000C 		lwz 4,12(30)
 6715              	.LBB4118:
 6716              	.LBB4117:
 6717              		.loc 1 428 0
 6718 0124 913F0000 		stw 9,0(31)
 6719              	.LBE4117:
 6720              	.LBE4118:
 6721              		.loc 1 1051 0
 6722 0128 2F840000 		cmpwi 7,4,0
 6723              		.loc 1 1049 0
 6724 012c 93FD0008 		stw 31,8(29)
 6725              		.loc 1 1050 0
 6726 0130 93BF0004 		stw 29,4(31)
 6727              		.loc 1 1051 0
 6728 0134 419E0014 		beq- 7,.L528
 6729              		.loc 1 1052 0
 6730 0138 7F83E378 		mr 3,28
 6731              	.LVL631:
 6732 013c 7FE5FB78 		mr 5,31
 6733 0140 48000001 		bl _ZNSt8_Rb_treeIwSt4pairIKw13ftgxCharData_ESt10_Select1stIS3_ESt4lessIwESaIS3_EE7_M_copyEPKSt13_
 6734              	.LEHE5:
 6735 0144 907F000C 		stw 3,12(31)
 6736              	.L528:
 6737              	.LVL632:
 6738              		.loc 2 608 0
 6739 0148 83DE0008 		lwz 30,8(30)
 6740              	.LVL633:
 6741              	.LBE4102:
 6742              		.loc 1 1046 0
 6743 014c 2F9E0000 		cmpwi 7,30,0
 6744 0150 409EFF70 		bne+ 7,.L532
 6745              	.LVL634:
 6746              	.L525:
 6747              	.LBE4121:
 6748              	.LBE4122:
 6749              		.loc 1 1063 0
 6750 0154 8001002C 		lwz 0,44(1)
 6751 0158 7F63DB78 		mr 3,27
 6752 015c 83810018 		lwz 28,24(1)
 6753              	.LVL635:
 6754 0160 7C0803A6 		mtlr 0
 6755 0164 83610014 		lwz 27,20(1)
 6756              	.LVL636:
 6757 0168 83A1001C 		lwz 29,28(1)
 6758 016c 83C10020 		lwz 30,32(1)
 6759              	.LVL637:
 6760 0170 83E10024 		lwz 31,36(1)
 6761 0174 38210028 		addi 1,1,40
 6762              		.cfi_remember_state
 6763              	.LCFI54:
 6764              		.cfi_def_cfa_offset 0
 6765              		.cfi_restore 31
 6766              		.cfi_restore 30
 6767              		.cfi_restore 29
 6768              		.cfi_restore 28
 6769              		.cfi_restore 27
 6770 0178 4E800020 		blr
 6771              	.LVL638:
 6772              	.L533:
 6773              	.LCFI55:
 6774              		.cfi_restore_state
 6775              	.LBB4123:
 6776              		.loc 1 1057 0
 6777 017c 48000001 		bl __cxa_begin_catch
 6778              		.loc 1 1059 0
 6779 0180 7F83E378 		mr 3,28
 6780 0184 7F64DB78 		mr 4,27
 6781 0188 48000001 		bl _ZNSt8_Rb_treeIwSt4pairIKw13ftgxCharData_ESt10_Select1stIS3_ESt4lessIwESaIS3_EE8_M_eraseEPSt13_
 6782              	.LEHB6:
 6783              		.loc 1 1060 0
 6784 018c 48000001 		bl __cxa_rethrow
 6785              	.LEHE6:
 6786              	.L534:
 6787              		.loc 1 1057 0
 6788 0190 90610008 		stw 3,8(1)
 6789 0194 48000001 		bl __cxa_end_catch
 6790 0198 80610008 		lwz 3,8(1)
 6791              	.LEHB7:
 6792 019c 48000001 		bl _Unwind_Resume
 6793              	.LEHE7:
 6794              	.LBE4123:
 6795              		.cfi_endproc
 6796              	.LFE879:
 6797              		.section	.gcc_except_table
 6798 001b 00       		.align 2
 6799              	.LLSDA879:
 6800 001c FF       		.byte	0xff
 6801 001d 00       		.byte	0
 6802 001e 21       		.uleb128 .LLSDATT879-.LLSDATTD879
 6803              	.LLSDATTD879:
 6804 001f 01       		.byte	0x1
 6805 0020 16       		.uleb128 .LLSDACSE879-.LLSDACSB879
 6806              	.LLSDACSB879:
 6807 0021 30       		.uleb128 .LEHB4-.LFB879
 6808 0022 04       		.uleb128 .LEHE4-.LEHB4
 6809 0023 00       		.uleb128 0
 6810 0024 00       		.uleb128 0
 6811 0025 A401     		.uleb128 .LEHB5-.LFB879
 6812 0027 A001     		.uleb128 .LEHE5-.LEHB5
 6813 0029 FC02     		.uleb128 .L533-.LFB879
 6814 002b 01       		.uleb128 0x1
 6815 002c 8C03     		.uleb128 .LEHB6-.LFB879
 6816 002e 04       		.uleb128 .LEHE6-.LEHB6
 6817 002f 9003     		.uleb128 .L534-.LFB879
 6818 0031 00       		.uleb128 0
 6819 0032 9C03     		.uleb128 .LEHB7-.LFB879
 6820 0034 04       		.uleb128 .LEHE7-.LEHB7
 6821 0035 00       		.uleb128 0
 6822 0036 00       		.uleb128 0
 6823              	.LLSDACSE879:
 6824 0037 01       		.byte	0x1
 6825 0038 00       		.byte	0
 6826 0039 000000   		.align 2
 6827 003c 00000000 		.long	0
 6828              	.LLSDATT879:
 6829              		.section	.text._ZNSt8_Rb_treeIwSt4pairIKw13ftgxCharData_ESt10_Select1stIS3_ESt4lessIwESaIS3_EE7_M_
 6830              		.size	_ZNSt8_Rb_treeIwSt4pairIKw13ftgxCharData_ESt10_Select1stIS3_ESt4lessIwESaIS3_EE7_M_copyEPKSt
 6831              		.section	".text"
 6832              		.align 2
 6833              		.type	_ZNSt8_Rb_treeIsSt4pairIKsSt3mapIw13ftgxCharData_St4lessIwESaIS0_IKwS3_EEEESt10_Select1stISA
 6834              	_ZNSt8_Rb_treeIsSt4pairIKsSt3mapIw13ftgxCharData_St4lessIwESaIS0_IKwS3_EEEESt10_Select1stISA_ES4_Is
 6835              	.LFB1064:
 6836              		.loc 1 960 0
 6837              		.cfi_startproc
 6838              		.cfi_personality 0,__gxx_personality_v0
 6839              		.cfi_lsda 0,.LLSDA1064
 6840              	.LVL639:
 6841              	.LBB4156:
 6842              		.loc 1 969 0
 6843 18e4 2F840000 		cmpwi 7,4,0
 6844              	.LBE4156:
 6845              		.loc 1 960 0
 6846 18e8 7C0802A6 		mflr 0
 6847 18ec 9421FFD8 		stwu 1,-40(1)
 6848              	.LCFI56:
 6849              		.cfi_def_cfa_offset 40
 6850              		.cfi_register 65, 0
 6851 18f0 93610014 		stw 27,20(1)
 6852              	.LBB4207:
 6853              		.loc 1 969 0
 6854 18f4 3B600001 		li 27,1
 6855              		.cfi_offset 27, -20
 6856              	.LBE4207:
 6857              		.loc 1 960 0
 6858 18f8 93810018 		stw 28,24(1)
 6859 18fc 7CBC2B78 		mr 28,5
 6860              		.cfi_offset 28, -16
 6861 1900 93A1001C 		stw 29,28(1)
 6862 1904 7CDD3378 		mr 29,6
 6863              		.cfi_offset 29, -12
 6864 1908 93C10020 		stw 30,32(1)
 6865 190c 7C7E1B78 		mr 30,3
 6866              		.cfi_offset 30, -8
 6867 1910 9001002C 		stw 0,44(1)
 6868 1914 93E10024 		stw 31,36(1)
 6869              	.LBB4208:
 6870              		.loc 1 969 0
 6871 1918 419E00D8 		beq- 7,.L549
 6872              		.cfi_offset 31, -4
 6873              		.cfi_offset 65, 4
 6874              	.L536:
 6875              	.LVL640:
 6876              	.LBB4157:
 6877              	.LBB4158:
 6878              	.LBB4159:
 6879              	.LBB4160:
 6880              	.LBB4161:
 6881              		.loc 3 92 0
 6882 191c 3860002C 		li 3,44
 6883              	.LVL641:
 6884              	.LEHB8:
 6885 1920 48000001 		bl _Znwj
 6886              	.LEHE8:
 6887              	.LVL642:
 6888              	.LBE4161:
 6889              	.LBE4160:
 6890              	.LBE4159:
 6891              	.LBB4164:
 6892              	.LBB4165:
 6893              		.loc 3 108 0
 6894 1924 2F83FFF0 		cmpwi 7,3,-16
 6895              	.LBE4165:
 6896              	.LBE4164:
 6897              	.LBB4200:
 6898              	.LBB4163:
 6899              	.LBB4162:
 6900              		.loc 3 92 0
 6901 1928 7C7F1B78 		mr 31,3
 6902              	.LVL643:
 6903              	.LBE4162:
 6904              	.LBE4163:
 6905              	.LBE4200:
 6906              	.LBB4201:
 6907              	.LBB4199:
 6908              		.loc 3 108 0
 6909 192c 419E007C 		beq- 7,.L540
 6910              	.LVL644:
 6911              	.LBB4166:
 6912              	.LBB4167:
 6913              	.LBB4168:
 6914              	.LBB4169:
 6915              	.LBB4170:
 6916              	.LBB4171:
 6917              	.LBB4172:
 6918              	.LBB4173:
 6919              		.loc 1 450 0
 6920 1930 38000000 		li 0,0
 6921              	.LBB4174:
 6922              	.LBB4175:
 6923              		.loc 1 459 0
 6924 1934 38A30018 		addi 5,3,24
 6925              	.LBE4175:
 6926              	.LBE4174:
 6927              	.LBE4173:
 6928              	.LBE4172:
 6929              	.LBE4171:
 6930              	.LBE4170:
 6931              	.LBE4169:
 6932              	.LBE4168:
 6933              		.file 6 "d:\\devkitpro\\devkitppc\\bin\\../lib/gcc/powerpc-eabi/4.6.3/../../../../powerpc-eabi/inc
 6934              		.loc 6 87 0
 6935 1938 A13D0000 		lhz 9,0(29)
 6936              	.LBB4197:
 6937              	.LBB4195:
 6938              	.LBB4193:
 6939              	.LBB4190:
 6940              	.LBB4182:
 6941              	.LBB4180:
 6942              		.loc 1 450 0
 6943 193c 90030018 		stw 0,24(3)
 6944 1940 9003001C 		stw 0,28(3)
 6945 1944 90030028 		stw 0,40(3)
 6946              	.LBB4178:
 6947              	.LBB4176:
 6948              		.loc 1 459 0
 6949 1948 90A30020 		stw 5,32(3)
 6950              		.loc 1 460 0
 6951 194c 90A30024 		stw 5,36(3)
 6952              	.LBE4176:
 6953              	.LBE4178:
 6954              	.LBE4180:
 6955              	.LBE4182:
 6956              	.LBE4190:
 6957              	.LBE4193:
 6958              	.LBE4195:
 6959              	.LBE4197:
 6960              		.loc 6 87 0
 6961 1950 B1230010 		sth 9,16(3)
 6962              	.LVL645:
 6963              	.LBB4198:
 6964              	.LBB4196:
 6965              	.LBB4194:
 6966              	.LBB4191:
 6967              	.LBB4183:
 6968              	.LBB4181:
 6969              	.LBB4179:
 6970              	.LBB4177:
 6971              		.loc 1 459 0
 6972 1954 38630014 		addi 3,3,20
 6973              	.LVL646:
 6974              	.LBE4177:
 6975              	.LBE4179:
 6976              	.LBE4181:
 6977              	.LBE4183:
 6978              	.LBE4191:
 6979              		.loc 2 608 0
 6980 1958 809D000C 		lwz 4,12(29)
 6981              	.LBB4192:
 6982              		.loc 1 625 0
 6983 195c 2F840000 		cmpwi 7,4,0
 6984 1960 419E0048 		beq- 7,.L540
 6985              	.LVL647:
 6986              	.LEHB9:
 6987              		.loc 1 627 0
 6988 1964 48000001 		bl _ZNSt8_Rb_treeIwSt4pairIKw13ftgxCharData_ESt10_Select1stIS3_ESt4lessIwESaIS3_EE7_M_copyEPKSt13_
 6989              	.LEHE9:
 6990 1968 907F001C 		stw 3,28(31)
 6991              	.LVL648:
 6992 196c 7C691B78 		mr 9,3
 6993 1970 48000008 		b .L538
 6994              	.LVL649:
 6995              	.L545:
 6996              	.LBB4184:
 6997              	.LBB4185:
 6998              	.LBB4186:
 6999              		.loc 1 103 0
 7000 1974 7C090378 		mr 9,0
 7001              	.LVL650:
 7002              	.L538:
 7003 1978 80090008 		lwz 0,8(9)
 7004 197c 2F800000 		cmpwi 7,0,0
 7005 1980 409EFFF4 		bne+ 7,.L545
 7006              	.LBE4186:
 7007              	.LBE4185:
 7008              	.LBE4184:
 7009              		.loc 1 628 0
 7010 1984 913F0020 		stw 9,32(31)
 7011              	.LVL651:
 7012 1988 48000008 		b .L539
 7013              	.LVL652:
 7014              	.L546:
 7015              	.LBB4187:
 7016              	.LBB4188:
 7017              	.LBB4189:
 7018              		.loc 1 117 0
 7019 198c 7C030378 		mr 3,0
 7020              	.LVL653:
 7021              	.L539:
 7022 1990 8003000C 		lwz 0,12(3)
 7023 1994 2F800000 		cmpwi 7,0,0
 7024 1998 409EFFF4 		bne+ 7,.L546
 7025              	.LBE4189:
 7026              	.LBE4188:
 7027              	.LBE4187:
 7028              		.loc 1 630 0
 7029 199c 801D0018 		lwz 0,24(29)
 7030              		.loc 1 629 0
 7031 19a0 907F0024 		stw 3,36(31)
 7032              		.loc 1 630 0
 7033 19a4 901F0028 		stw 0,40(31)
 7034              	.LVL654:
 7035              	.L540:
 7036              	.LBE4192:
 7037              	.LBE4194:
 7038              	.LBE4196:
 7039              	.LBE4198:
 7040              	.LBE4167:
 7041              	.LBE4166:
 7042              	.LBE4199:
 7043              	.LBE4201:
 7044              	.LBE4158:
 7045              	.LBE4157:
 7046              		.loc 1 973 0
 7047 19a8 7F63DB78 		mr 3,27
 7048 19ac 7FE4FB78 		mr 4,31
 7049 19b0 7F85E378 		mr 5,28
 7050 19b4 38DE0004 		addi 6,30,4
 7051 19b8 48000001 		bl _ZSt29_Rb_tree_insert_and_rebalancebPSt18_Rb_tree_node_baseS0_RS_
 7052              		.loc 1 976 0
 7053 19bc 813E0014 		lwz 9,20(30)
 7054              	.LBE4208:
 7055              		.loc 1 978 0
 7056 19c0 7FE3FB78 		mr 3,31
 7057 19c4 83610014 		lwz 27,20(1)
 7058              	.LVL655:
 7059              	.LBB4209:
 7060              		.loc 1 976 0
 7061 19c8 38090001 		addi 0,9,1
 7062              	.LBE4209:
 7063              		.loc 1 978 0
 7064 19cc 83810018 		lwz 28,24(1)
 7065              	.LVL656:
 7066              	.LBB4210:
 7067              		.loc 1 976 0
 7068 19d0 901E0014 		stw 0,20(30)
 7069              	.LVL657:
 7070              	.LBE4210:
 7071              		.loc 1 978 0
 7072 19d4 8001002C 		lwz 0,44(1)
 7073 19d8 83A1001C 		lwz 29,28(1)
 7074              	.LVL658:
 7075 19dc 7C0803A6 		mtlr 0
 7076 19e0 83C10020 		lwz 30,32(1)
 7077              	.LVL659:
 7078 19e4 83E10024 		lwz 31,36(1)
 7079              	.LVL660:
 7080 19e8 38210028 		addi 1,1,40
 7081              		.cfi_remember_state
 7082              	.LCFI57:
 7083              		.cfi_def_cfa_offset 0
 7084              		.cfi_restore 31
 7085              		.cfi_restore 30
 7086              		.cfi_restore 29
 7087              		.cfi_restore 28
 7088              		.cfi_restore 27
 7089 19ec 4E800020 		blr
 7090              	.LVL661:
 7091              	.L549:
 7092              	.LCFI58:
 7093              		.cfi_restore_state
 7094              	.LBB4211:
 7095              		.loc 1 969 0
 7096 19f0 38030004 		addi 0,3,4
 7097 19f4 7F850000 		cmpw 7,5,0
 7098 19f8 41BEFF24 		beq- 7,.L536
 7099              	.LVL662:
 7100              		.loc 1 960 0
 7101 19fc A9260000 		lha 9,0(6)
 7102 1a00 A8050010 		lha 0,16(5)
 7103 1a04 7F890000 		cmpw 7,9,0
 7104 1a08 7F600026 		mfcr 27
 7105 1a0c 577BEFFE 		rlwinm 27,27,29,1
 7106 1a10 4BFFFF0C 		b .L536
 7107              	.LVL663:
 7108              	.L548:
 7109              	.LBB4206:
 7110              	.LBB4205:
 7111              		.loc 1 383 0
 7112 1a14 48000001 		bl __cxa_begin_catch
 7113              	.LVL664:
 7114              	.LBB4202:
 7115              	.LBB4203:
 7116              	.LBB4204:
 7117              		.loc 3 98 0
 7118 1a18 7FE3FB78 		mr 3,31
 7119 1a1c 48000001 		bl _ZdlPv
 7120              	.LEHB10:
 7121              	.LBE4204:
 7122              	.LBE4203:
 7123              	.LBE4202:
 7124              		.loc 1 386 0
 7125 1a20 48000001 		bl __cxa_rethrow
 7126              	.LEHE10:
 7127              	.L547:
 7128              		.loc 1 383 0
 7129 1a24 90610008 		stw 3,8(1)
 7130 1a28 48000001 		bl __cxa_end_catch
 7131 1a2c 80610008 		lwz 3,8(1)
 7132              	.LEHB11:
 7133 1a30 48000001 		bl _Unwind_Resume
 7134              	.LEHE11:
 7135              	.LBE4205:
 7136              	.LBE4206:
 7137              	.LBE4211:
 7138              		.cfi_endproc
 7139              	.LFE1064:
 7140              		.section	.gcc_except_table
 7141              		.align 2
 7142              	.LLSDA1064:
 7143 0040 FF       		.byte	0xff
 7144 0041 00       		.byte	0
 7145 0042 1D       		.uleb128 .LLSDATT1064-.LLSDATTD1064
 7146              	.LLSDATTD1064:
 7147 0043 01       		.byte	0x1
 7148 0044 15       		.uleb128 .LLSDACSE1064-.LLSDACSB1064
 7149              	.LLSDACSB1064:
 7150 0045 3C       		.uleb128 .LEHB8-.LFB1064
 7151 0046 04       		.uleb128 .LEHE8-.LEHB8
 7152 0047 00       		.uleb128 0
 7153 0048 00       		.uleb128 0
 7154 0049 8001     		.uleb128 .LEHB9-.LFB1064
 7155 004b 04       		.uleb128 .LEHE9-.LEHB9
 7156 004c B002     		.uleb128 .L548-.LFB1064
 7157 004e 01       		.uleb128 0x1
 7158 004f BC02     		.uleb128 .LEHB10-.LFB1064
 7159 0051 04       		.uleb128 .LEHE10-.LEHB10
 7160 0052 C002     		.uleb128 .L547-.LFB1064
 7161 0054 00       		.uleb128 0
 7162 0055 CC02     		.uleb128 .LEHB11-.LFB1064
 7163 0057 04       		.uleb128 .LEHE11-.LEHB11
 7164 0058 00       		.uleb128 0
 7165 0059 00       		.uleb128 0
 7166              	.LLSDACSE1064:
 7167 005a 01       		.byte	0x1
 7168 005b 00       		.byte	0
 7169              		.align 2
 7170 005c 00000000 		.long	0
 7171              	.LLSDATT1064:
 7172              		.section	".text"
 7173              		.size	_ZNSt8_Rb_treeIsSt4pairIKsSt3mapIw13ftgxCharData_St4lessIwESaIS0_IKwS3_EEEESt10_Select1stISA
 7174              		.align 2
 7175              		.type	_ZNSt8_Rb_treeIsSt4pairIKsSt3mapIw13ftgxCharData_St4lessIwESaIS0_IKwS3_EEEESt10_Select1stISA
 7176              	_ZNSt8_Rb_treeIsSt4pairIKsSt3mapIw13ftgxCharData_St4lessIwESaIS0_IKwS3_EEEESt10_Select1stISA_ES4_Is
 7177              	.LFB1063:
 7178              		.loc 1 1264 0
 7179              		.cfi_startproc
 7180              	.LVL665:
 7181 1a34 7C0802A6 		mflr 0
 7182 1a38 9421FFE8 		stwu 1,-24(1)
 7183              	.LCFI59:
 7184              		.cfi_def_cfa_offset 24
 7185              		.cfi_register 65, 0
 7186 1a3c 93C10010 		stw 30,16(1)
 7187 1a40 9001001C 		stw 0,28(1)
 7188 1a44 93A1000C 		stw 29,12(1)
 7189 1a48 7C7D1B78 		mr 29,3
 7190              		.cfi_offset 29, -12
 7191              		.cfi_offset 65, 4
 7192              		.cfi_offset 30, -8
 7193              	.LBB4212:
 7194              	.LBB4213:
 7195              	.LBB4214:
 7196              		.loc 2 608 0
 7197 1a4c 83C30008 		lwz 30,8(3)
 7198              	.LVL666:
 7199              	.LBE4214:
 7200              	.LBE4213:
 7201              	.LBE4212:
 7202              		.loc 1 1264 0
 7203 1a50 93E10014 		stw 31,20(1)
 7204              		.loc 1 1264 0
 7205 1a54 7C9F2378 		mr 31,4
 7206              		.cfi_offset 31, -4
 7207              	.LBB4217:
 7208              		.loc 1 1274 0
 7209 1a58 2F9E0000 		cmpwi 7,30,0
 7210 1a5c 419E007C 		beq- 7,.L563
 7211              		.loc 1 1272 0
 7212 1a60 A9440000 		lha 10,0(4)
 7213 1a64 48000014 		b .L555
 7214              	.LVL667:
 7215              	.L565:
 7216              		.loc 2 608 0
 7217 1a68 801E0008 		lwz 0,8(30)
 7218              	.LVL668:
 7219              		.loc 1 1274 0
 7220 1a6c 2F800000 		cmpwi 7,0,0
 7221 1a70 419E0028 		beq- 7,.L564
 7222              	.LVL669:
 7223              	.L560:
 7224 1a74 7C1E0378 		mr 30,0
 7225              	.LVL670:
 7226              	.L555:
 7227              		.loc 2 608 0
 7228 1a78 A93E0010 		lha 9,16(30)
 7229 1a7c 39600001 		li 11,1
 7230              		.loc 1 1278 0
 7231 1a80 7F895000 		cmpw 7,9,10
 7232 1a84 41BDFFE4 		bgt- 7,.L565
 7233              	.LVL671:
 7234              		.loc 2 608 0
 7235 1a88 801E000C 		lwz 0,12(30)
 7236 1a8c 39600000 		li 11,0
 7237              	.LVL672:
 7238              		.loc 1 1274 0
 7239 1a90 2F800000 		cmpwi 7,0,0
 7240 1a94 409EFFE0 		bne+ 7,.L560
 7241              	.LVL673:
 7242              	.L564:
 7243              		.loc 1 1281 0
 7244 1a98 2F8B0000 		cmpwi 7,11,0
 7245 1a9c 7FC5F378 		mr 5,30
 7246 1aa0 409E003C 		bne- 7,.L552
 7247              	.LVL674:
 7248              		.loc 1 1289 0
 7249 1aa4 7F8A4800 		cmpw 7,10,9
 7250 1aa8 419D0060 		bgt- 7,.L566
 7251              	.LVL675:
 7252              	.L559:
 7253              		.loc 1 1292 0
 7254 1aac 38000000 		li 0,0
 7255 1ab0 38800000 		li 4,0
 7256 1ab4 5004C00E 		rlwimi 4,0,24,0,7
 7257              	.LBE4217:
 7258              		.loc 1 1293 0
 7259 1ab8 8001001C 		lwz 0,28(1)
 7260              	.LBB4218:
 7261              		.loc 1 1292 0
 7262 1abc 7FC3F378 		mr 3,30
 7263              	.LBE4218:
 7264              		.loc 1 1293 0
 7265 1ac0 83A1000C 		lwz 29,12(1)
 7266              	.LVL676:
 7267 1ac4 7C0803A6 		mtlr 0
 7268 1ac8 83C10010 		lwz 30,16(1)
 7269              	.LVL677:
 7270 1acc 83E10014 		lwz 31,20(1)
 7271              	.LVL678:
 7272 1ad0 38210018 		addi 1,1,24
 7273              		.cfi_remember_state
 7274              	.LCFI60:
 7275              		.cfi_def_cfa_offset 0
 7276              		.cfi_restore 31
 7277              		.cfi_restore 30
 7278              		.cfi_restore 29
 7279 1ad4 4E800020 		blr
 7280              	.LVL679:
 7281              	.L563:
 7282              	.LCFI61:
 7283              		.cfi_restore_state
 7284              	.LBB4219:
 7285              		.loc 1 1272 0
 7286 1ad8 3BC30004 		addi 30,3,4
 7287              	.LVL680:
 7288              	.L552:
 7289              		.loc 2 608 0
 7290 1adc 801D000C 		lwz 0,12(29)
 7291              	.LVL681:
 7292              		.loc 1 1283 0
 7293 1ae0 7F80F000 		cmpw 7,0,30
 7294 1ae4 419E005C 		beq- 7,.L567
 7295              	.LVL682:
 7296              	.LBB4216:
 7297              	.LBB4215:
 7298              		.loc 1 203 0
 7299 1ae8 7FC3F378 		mr 3,30
 7300              	.LVL683:
 7301 1aec 48000001 		bl _ZSt18_Rb_tree_decrementPSt18_Rb_tree_node_base
 7302              	.LVL684:
 7303 1af0 A95F0000 		lha 10,0(31)
 7304 1af4 A9230010 		lha 9,16(3)
 7305 1af8 7FC5F378 		mr 5,30
 7306 1afc 7C7E1B78 		mr 30,3
 7307              	.LVL685:
 7308              	.LBE4215:
 7309              	.LBE4216:
 7310              		.loc 1 1289 0
 7311 1b00 7F8A4800 		cmpw 7,10,9
 7312 1b04 409DFFA8 		ble+ 7,.L559
 7313              	.LVL686:
 7314              	.L566:
 7315              		.loc 1 1291 0
 7316 1b08 7FA3EB78 		mr 3,29
 7317 1b0c 38800000 		li 4,0
 7318              	.LVL687:
 7319              	.L562:
 7320 1b10 7FE6FB78 		mr 6,31
 7321 1b14 4BFFFDD1 		bl _ZNSt8_Rb_treeIsSt4pairIKsSt3mapIw13ftgxCharData_St4lessIwESaIS0_IKwS3_EEEESt10_Select1stISA_ES
 7322              	.LVL688:
 7323 1b18 38000001 		li 0,1
 7324 1b1c 38800000 		li 4,0
 7325              	.LBE4219:
 7326              		.loc 1 1293 0
 7327 1b20 83A1000C 		lwz 29,12(1)
 7328              	.LVL689:
 7329              	.LBB4220:
 7330              		.loc 1 1291 0
 7331 1b24 5004C00E 		rlwimi 4,0,24,0,7
 7332              	.LBE4220:
 7333              		.loc 1 1293 0
 7334 1b28 8001001C 		lwz 0,28(1)
 7335 1b2c 83C10010 		lwz 30,16(1)
 7336 1b30 7C0803A6 		mtlr 0
 7337 1b34 83E10014 		lwz 31,20(1)
 7338              	.LVL690:
 7339 1b38 38210018 		addi 1,1,24
 7340              		.cfi_remember_state
 7341              		.cfi_restore 29
 7342              		.cfi_restore 30
 7343              		.cfi_restore 31
 7344              	.LCFI62:
 7345              		.cfi_def_cfa_offset 0
 7346 1b3c 4E800020 		blr
 7347              	.LVL691:
 7348              	.L567:
 7349              	.LCFI63:
 7350              		.cfi_restore_state
 7351              	.LBB4221:
 7352              		.loc 1 1285 0
 7353 1b40 7FA3EB78 		mr 3,29
 7354              	.LVL692:
 7355 1b44 38800000 		li 4,0
 7356              	.LVL693:
 7357 1b48 7FC5F378 		mr 5,30
 7358 1b4c 4BFFFFC4 		b .L562
 7359              	.LBE4221:
 7360              		.cfi_endproc
 7361              	.LFE1063:
 7362              		.size	_ZNSt8_Rb_treeIsSt4pairIKsSt3mapIw13ftgxCharData_St4lessIwESaIS0_IKwS3_EEEESt10_Select1stISA
 7363              		.align 2
 7364              		.type	_ZNSt8_Rb_treeIsSt4pairIKsSt3mapIw13ftgxCharData_St4lessIwESaIS0_IKwS3_EEEESt10_Select1stISA
 7365              	_ZNSt8_Rb_treeIsSt4pairIKsSt3mapIw13ftgxCharData_St4lessIwESaIS0_IKwS3_EEEESt10_Select1stISA_ES4_Is
 7366              	.LFB1065:
 7367              		.loc 1 1325 0
 7368              		.cfi_startproc
 7369              	.LVL694:
 7370 1b50 7C0802A6 		mflr 0
 7371 1b54 9421FFE8 		stwu 1,-24(1)
 7372              	.LCFI64:
 7373              		.cfi_def_cfa_offset 24
 7374              		.cfi_register 65, 0
 7375 1b58 93E10014 		stw 31,20(1)
 7376 1b5c 9001001C 		stw 0,28(1)
 7377              	.LBB4222:
 7378              		.loc 1 1333 0
 7379 1b60 38030004 		addi 0,3,4
 7380              		.cfi_offset 65, 4
 7381              		.cfi_offset 31, -4
 7382              	.LBE4222:
 7383              		.loc 1 1325 0
 7384 1b64 93A1000C 		stw 29,12(1)
 7385 1b68 7CBD2B78 		mr 29,5
 7386              		.cfi_offset 29, -12
 7387 1b6c 83E40000 		lwz 31,0(4)
 7388              	.LVL695:
 7389 1b70 93C10010 		stw 30,16(1)
 7390 1b74 7C7E1B78 		mr 30,3
 7391              		.cfi_offset 30, -8
 7392              	.LBB4242:
 7393              		.loc 1 1333 0
 7394 1b78 7F9F0000 		cmpw 7,31,0
 7395              	.LBE4242:
 7396              		.loc 1 1325 0
 7397 1b7c 93810008 		stw 28,8(1)
 7398              	.LBB4243:
 7399              		.loc 1 1333 0
 7400 1b80 419E00DC 		beq- 7,.L582
 7401              		.cfi_offset 28, -16
 7402              	.LVL696:
 7403              		.loc 2 608 0
 7404 1b84 AB850000 		lha 28,0(5)
 7405 1b88 A81F0010 		lha 0,16(31)
 7406              	.LBB4223:
 7407              		.loc 1 1342 0
 7408 1b8c 7F9C0000 		cmpw 7,28,0
 7409 1b90 409C0068 		bge- 7,.L572
 7410              	.LVL697:
 7411              	.LBB4224:
 7412              		.loc 1 1347 0
 7413 1b94 8003000C 		lwz 0,12(3)
 7414 1b98 7F9F0000 		cmpw 7,31,0
 7415 1b9c 419E015C 		beq- 7,.L583
 7416              	.LBB4225:
 7417              	.LBB4226:
 7418              		.loc 1 284 0
 7419 1ba0 7FE3FB78 		mr 3,31
 7420              	.LVL698:
 7421 1ba4 48000001 		bl _ZSt18_Rb_tree_decrementPKSt18_Rb_tree_node_base
 7422              	.LVL699:
 7423              	.LBE4226:
 7424              	.LBE4225:
 7425              		.loc 1 1350 0
 7426 1ba8 A8030010 		lha 0,16(3)
 7427              	.LBB4228:
 7428              	.LBB4227:
 7429              		.loc 1 284 0
 7430 1bac 7C651B78 		mr 5,3
 7431              	.LVL700:
 7432              	.LBE4227:
 7433              	.LBE4228:
 7434              		.loc 1 1350 0
 7435 1bb0 7F80E000 		cmpw 7,0,28
 7436 1bb4 409C00C8 		bge- 7,.L570
 7437              		.loc 1 1353 0
 7438 1bb8 8003000C 		lwz 0,12(3)
 7439 1bbc 2F800000 		cmpwi 7,0,0
 7440 1bc0 419E010C 		beq- 7,.L584
 7441              		.loc 1 1359 0
 7442 1bc4 7FE4FB78 		mr 4,31
 7443 1bc8 7FC3F378 		mr 3,30
 7444              	.LVL701:
 7445 1bcc 7FE5FB78 		mr 5,31
 7446              	.LVL702:
 7447 1bd0 7FA6EB78 		mr 6,29
 7448 1bd4 4BFFFD11 		bl _ZNSt8_Rb_treeIsSt4pairIKsSt3mapIw13ftgxCharData_St4lessIwESaIS0_IKwS3_EEEESt10_Select1stISA_ES
 7449              	.LVL703:
 7450              	.L571:
 7451              	.LBE4224:
 7452              	.LBE4223:
 7453              	.LBE4243:
 7454              		.loc 1 1388 0
 7455 1bd8 8001001C 		lwz 0,28(1)
 7456 1bdc 83810008 		lwz 28,8(1)
 7457 1be0 7C0803A6 		mtlr 0
 7458 1be4 83A1000C 		lwz 29,12(1)
 7459              	.LVL704:
 7460 1be8 83C10010 		lwz 30,16(1)
 7461              	.LVL705:
 7462 1bec 83E10014 		lwz 31,20(1)
 7463              	.LVL706:
 7464 1bf0 38210018 		addi 1,1,24
 7465              		.cfi_remember_state
 7466              	.LCFI65:
 7467              		.cfi_def_cfa_offset 0
 7468              		.cfi_restore 31
 7469              		.cfi_restore 30
 7470              		.cfi_restore 29
 7471              		.cfi_restore 28
 7472 1bf4 4E800020 		blr
 7473              	.LVL707:
 7474              	.L572:
 7475              	.LCFI66:
 7476              		.cfi_restore_state
 7477              	.LBB4244:
 7478              	.LBB4239:
 7479              	.LBB4229:
 7480              		.loc 1 1364 0
 7481 1bf8 409D00B0 		ble- 7,.L576
 7482              	.LVL708:
 7483              	.LBB4230:
 7484              		.loc 1 1369 0
