	.file	"GifImage.cpp"
	.section	".text"
.Ltext0:
	.align 2
	.globl _ZN8GifImageD2Ev
	.type	_ZN8GifImageD2Ev, @function
_ZN8GifImageD2Ev:
.LFB519:
	.file 1 "d:/Projects/SaveGameManager/savegame-manager-gx/trunk/source/ImageOperations/GifImage.cpp"
	.loc 1 77 0
	.cfi_startproc
.LVL0:
	mflr 0
	stwu 1,-16(1)
.LCFI0:
	.cfi_def_cfa_offset 16
	.cfi_register 65, 0
	stw 30,8(1)
	mr 30,3
	.cfi_offset 30, -8
	stw 0,20(1)
	stw 31,12(1)
.LBB523:
	.loc 1 563 0
	lwz 11,44(3)
	lwz 9,48(3)
.LBB524:
.LBB525:
.LBB526:
	.file 2 "d:\\devkitpro\\devkitppc\\bin\\../lib/gcc/powerpc-eabi/4.6.3/../../../../powerpc-eabi/include/c++/4.6.3/bits/stl_vector.h"
	.loc 2 571 0
	subf 0,11,9
	.cfi_offset 31, -4
	.cfi_offset 65, 4
.LBE526:
.LBE525:
	.loc 1 79 0
	srwi. 10,0,5
.LBE524:
	.loc 1 77 0
	lis 10,_ZTV8GifImage+8@ha
	la 0,_ZTV8GifImage+8@l(10)
	stw 0,0(3)
.LVL1:
.LBB531:
	.loc 1 563 0
	mr 0,11
	.loc 1 79 0
	beq- 0,.L2
	li 31,0
.LVL2:
.L4:
	.loc 1 81 0
	slwi 10,31,5
	.loc 1 79 0
	addi 31,31,1
.LVL3:
	.loc 1 81 0
	lwzx 3,11,10
	cmpwi 7,3,0
	beq- 7,.L3
	.loc 1 82 0
	bl free
	lwz 0,44(30)
	lwz 9,48(30)
.L3:
.LVL4:
.LBB529:
.LBB527:
	.loc 2 571 0
	subf 10,0,9
.LBE527:
.LBE529:
	.loc 1 563 0
	mr 11,0
.LBB530:
.LBB528:
	.loc 2 571 0
	srawi 10,10,5
.LBE528:
.LBE530:
	.loc 1 79 0
	cmplw 7,31,10
	blt+ 7,.L4
.LVL5:
.L2:
.LBE531:
.LBB532:
.LBB533:
.LBB534:
.LBB535:
.LBB536:
.LBB537:
	.loc 2 155 0
	cmpwi 7,0,0
.LBE537:
.LBE536:
.LBE535:
.LBE534:
.LBE533:
.LBE532:
.LBB545:
.LBB546:
.LBB547:
	.loc 2 1256 0
	stw 0,48(30)
.LVL6:
.LBE547:
.LBE546:
.LBE545:
.LBB548:
.LBB544:
.LBB543:
.LBB542:
.LBB541:
.LBB540:
	.loc 2 155 0
	beq- 7,.L9
.LVL7:
.LBB538:
.LBB539:
	.file 3 "d:\\devkitpro\\devkitppc\\bin\\../lib/gcc/powerpc-eabi/4.6.3/../../../../powerpc-eabi/include/c++/4.6.3/ext/new_allocator.h"
	.loc 3 98 0
	mr 3,0
	bl _ZdlPv
.LVL8:
.L9:
.LBE539:
.LBE538:
.LBE540:
.LBE541:
.LBE542:
.LBE543:
.LBE544:
.LBE548:
.LBB549:
	.loc 1 563 0
	lwz 3,32(30)
.LVL9:
.LBB550:
.LBB551:
.LBB552:
.LBB553:
.LBB554:
	.loc 2 155 0
	cmpwi 7,3,0
	beq- 7,.L1
.LVL10:
.LBB555:
.LBB556:
	.loc 3 98 0
	bl _ZdlPv
.LVL11:
.L1:
.LBE556:
.LBE555:
.LBE554:
.LBE553:
.LBE552:
.LBE551:
.LBE550:
.LBE549:
.LBE523:
	.loc 1 85 0
	lwz 0,20(1)
	lwz 30,8(1)
.LVL12:
	mtlr 0
	lwz 31,12(1)
	addi 1,1,16
.LCFI1:
	.cfi_def_cfa_offset 0
	.cfi_restore 31
	.cfi_restore 30
	blr
	.cfi_endproc
.LFE519:
	.size	_ZN8GifImageD2Ev, .-_ZN8GifImageD2Ev
	.align 2
	.globl _ZN8GifImageD0Ev
	.type	_ZN8GifImageD0Ev, @function
_ZN8GifImageD0Ev:
.LFB521:
	.loc 1 77 0
	.cfi_startproc
.LVL13:
	mflr 0
	stwu 1,-16(1)
.LCFI2:
	.cfi_def_cfa_offset 16
	.cfi_register 65, 0
	stw 30,8(1)
	mr 30,3
	.cfi_offset 30, -8
.LVL14:
	stw 0,20(1)
	stw 31,12(1)
.LBB602:
	.loc 1 563 0
	lwz 11,44(3)
	lwz 9,48(3)
.LBB603:
.LBB604:
.LBB605:
.LBB606:
.LBB607:
	.loc 2 571 0
	subf 0,11,9
	.cfi_offset 31, -4
	.cfi_offset 65, 4
.LBE607:
.LBE606:
	.loc 1 79 0
	srwi. 10,0,5
.LBE605:
	.loc 1 77 0
	lis 10,_ZTV8GifImage+8@ha
	la 0,_ZTV8GifImage+8@l(10)
	stw 0,0(3)
.LVL15:
.LBB612:
	.loc 1 563 0
	mr 0,11
	.loc 1 79 0
	beq- 0,.L21
	li 31,0
.LVL16:
.L23:
	.loc 1 81 0
	slwi 10,31,5
	.loc 1 79 0
	addi 31,31,1
.LVL17:
	.loc 1 81 0
	lwzx 3,11,10
	cmpwi 7,3,0
	beq- 7,.L22
	.loc 1 82 0
	bl free
	lwz 0,44(30)
	lwz 9,48(30)
.L22:
.LVL18:
.LBB610:
.LBB608:
	.loc 2 571 0
	subf 10,0,9
.LBE608:
.LBE610:
	.loc 1 563 0
	mr 11,0
.LBB611:
.LBB609:
	.loc 2 571 0
	srawi 10,10,5
.LBE609:
.LBE611:
	.loc 1 79 0
	cmplw 7,31,10
	blt+ 7,.L23
.LVL19:
.L21:
.LBE612:
.LBB613:
.LBB614:
.LBB615:
.LBB616:
.LBB617:
.LBB618:
	.loc 2 155 0
	cmpwi 7,0,0
.LBE618:
.LBE617:
.LBE616:
.LBE615:
.LBE614:
.LBE613:
.LBB626:
.LBB627:
.LBB628:
	.loc 2 1256 0
	stw 0,48(30)
.LVL20:
.LBE628:
.LBE627:
.LBE626:
.LBB629:
.LBB625:
.LBB624:
.LBB623:
.LBB622:
.LBB621:
	.loc 2 155 0
	beq- 7,.L28
.LVL21:
.LBB619:
.LBB620:
	.loc 3 98 0
	mr 3,0
	bl _ZdlPv
.LVL22:
.L28:
.LBE620:
.LBE619:
.LBE621:
.LBE622:
.LBE623:
.LBE624:
.LBE625:
.LBE629:
.LBB630:
	.loc 1 563 0
	lwz 3,32(30)
.LVL23:
.LBB631:
.LBB632:
.LBB633:
.LBB634:
.LBB635:
	.loc 2 155 0
	cmpwi 7,3,0
	beq- 7,.L36
.LVL24:
.LBB636:
.LBB637:
	.loc 3 98 0
	bl _ZdlPv
.LVL25:
.L36:
.LBE637:
.LBE636:
.LBE635:
.LBE634:
.LBE633:
.LBE632:
.LBE631:
.LBE630:
.LBE604:
.LBE603:
.LBE602:
	.loc 1 85 0 discriminator 1
	mr 3,30
	bl _ZdlPv
	lwz 0,20(1)
	lwz 30,8(1)
.LVL26:
	mtlr 0
	lwz 31,12(1)
	addi 1,1,16
.LCFI3:
	.cfi_def_cfa_offset 0
	.cfi_restore 31
	.cfi_restore 30
	blr
	.cfi_endproc
.LFE521:
	.size	_ZN8GifImageD0Ev, .-_ZN8GifImageD0Ev
	.align 2
	.globl _ZN8GifImage13GetFrameImageEi
	.type	_ZN8GifImage13GetFrameImageEi, @function
_ZN8GifImage13GetFrameImageEi:
.LFB522:
	.loc 1 88 0
	.cfi_startproc
.LVL27:
	.loc 1 89 0
	cmpwi 0,4,0
	.loc 1 88 0
	mr 9,3
	.loc 1 90 0
	li 3,0
.LVL28:
	.loc 1 89 0
	bltlr- 0
.LVL29:
.LBB638:
	.loc 1 563 0
	lwz 11,44(9)
.LBB639:
.LBB640:
	.loc 2 571 0
	lwz 0,48(9)
	subf 0,11,0
	srawi 0,0,5
.LBE640:
.LBE639:
.LBE638:
	.loc 1 89 0
	cmpw 7,4,0
	blt- 7,.L41
	.loc 1 93 0
	blr
.L41:
.LVL30:
	.loc 1 92 0
	slwi 4,4,5
.LVL31:
	lwzx 3,11,4
	blr
	.cfi_endproc
.LFE522:
	.size	_ZN8GifImage13GetFrameImageEi, .-_ZN8GifImage13GetFrameImageEi
	.section	.text._ZNSt6vectorI8GifFrameSaIS0_EE13_M_insert_auxEN9__gnu_cxx17__normal_iteratorIPS0_S2_EERKS0_,"axG",@progbits,_ZNSt6vectorI8GifFrameSaIS0_EE13_M_insert_auxEN9__gnu_cxx17__normal_iteratorIPS0_S2_EERKS0_,comdat
	.align 2
	.weak	_ZNSt6vectorI8GifFrameSaIS0_EE13_M_insert_auxEN9__gnu_cxx17__normal_iteratorIPS0_S2_EERKS0_
	.type	_ZNSt6vectorI8GifFrameSaIS0_EE13_M_insert_auxEN9__gnu_cxx17__normal_iteratorIPS0_S2_EERKS0_, @function
_ZNSt6vectorI8GifFrameSaIS0_EE13_M_insert_auxEN9__gnu_cxx17__normal_iteratorIPS0_S2_EERKS0_:
.LFB553:
	.file 4 "d:\\devkitpro\\devkitppc\\bin\\../lib/gcc/powerpc-eabi/4.6.3/../../../../powerpc-eabi/include/c++/4.6.3/bits/vector.tcc"
	.loc 4 300 0
	.cfi_startproc
.LVL32:
	mflr 0
	stwu 1,-72(1)
.LCFI4:
	.cfi_def_cfa_offset 72
	.cfi_register 65, 0
	stw 30,64(1)
	mr 30,3
	.cfi_offset 30, -8
	stw 0,76(1)
	stw 31,68(1)
.LBB641:
	.loc 4 304 0
	lwz 3,4(3)
.LVL33:
	lwz 0,8(30)
	.cfi_offset 31, -4
	.cfi_offset 65, 4
.LBE641:
	.loc 4 300 0
	stw 26,48(1)
.LBB785:
	.loc 4 304 0
	cmpw 7,3,0
.LBE785:
	.loc 4 300 0
	stw 27,52(1)
	stw 28,56(1)
	stw 29,60(1)
	.loc 4 300 0
	lwz 31,0(4)
.LVL34:
.LBB786:
	.loc 4 304 0
	beq- 7,.L44
	.cfi_offset 29, -12
	.cfi_offset 28, -16
	.cfi_offset 27, -20
	.cfi_offset 26, -24
.LVL35:
.LBB642:
.LBB643:
.LBB644:
	.loc 3 108 0
	cmpwi 7,3,0
	beq- 7,.L45
	lwz 4,-32(3)
.LVL36:
	lwz 6,-28(3)
	lwz 7,-24(3)
	lwz 8,-20(3)
	lwz 10,-16(3)
	lwz 11,-12(3)
	lwz 9,-8(3)
	lwz 0,-4(3)
	stw 4,0(3)
	stw 6,4(3)
	stw 7,8(3)
	stw 8,12(3)
	stw 10,16(3)
	stw 11,20(3)
	stw 9,24(3)
	stw 0,28(3)
.L45:
.LBE644:
.LBE643:
	.loc 4 313 0
	addi 0,3,-32
	.loc 4 311 0
	lwz 29,0(5)
.LBB645:
.LBB646:
.LBB647:
.LBB648:
.LBB649:
.LBB650:
	.file 5 "d:\\devkitpro\\devkitppc\\bin\\../lib/gcc/powerpc-eabi/4.6.3/../../../../powerpc-eabi/include/c++/4.6.3/bits/stl_algobase.h"
	.loc 5 559 0
	subf 0,31,0
.LBE650:
.LBE649:
.LBE648:
.LBE647:
.LBE646:
.LBE645:
	.loc 4 311 0
	lwz 4,4(5)
.LBB661:
.LBB659:
.LBB657:
.LBB655:
.LBB653:
.LBB651:
	.loc 5 560 0
	srawi. 0,0,5
.LBE651:
.LBE653:
.LBE655:
.LBE657:
.LBE659:
.LBE661:
	.loc 4 311 0
	lwz 6,8(5)
	lwz 7,12(5)
	.loc 4 309 0
	addi 28,3,32
	.loc 4 311 0
	lwz 8,16(5)
	lwz 10,20(5)
	lwz 11,24(5)
	lwz 9,28(5)
	stw 29,8(1)
	.loc 4 309 0
	stw 28,4(30)
	.loc 4 311 0
	stw 4,12(1)
	stw 6,16(1)
	stw 7,20(1)
	stw 8,24(1)
	stw 10,28(1)
	stw 11,32(1)
	stw 9,36(1)
.LVL37:
.LBB662:
.LBB660:
.LBB658:
.LBB656:
.LBB654:
.LBB652:
	.loc 5 560 0
	beq+ 0,.L46
	.loc 5 561 0
	slwi 5,0,5
.LVL38:
	mr 4,31
	subf 3,5,3
	bl memmove
.LVL39:
.L46:
.LBE652:
.LBE654:
.LBE656:
.LBE658:
.LBE660:
.LBE662:
	.loc 4 317 0
	lwz 0,8(1)
.LBE642:
.LBE786:
	.loc 4 373 0
	lwz 26,48(1)
.LBB787:
.LBB663:
	.loc 4 317 0
	stw 0,0(31)
	lwz 0,12(1)
.LBE663:
.LBE787:
	.loc 4 373 0
	lwz 27,52(1)
.LBB788:
.LBB664:
	.loc 4 317 0
	stw 0,4(31)
	lwz 0,16(1)
.LBE664:
.LBE788:
	.loc 4 373 0
	lwz 28,56(1)
.LVL40:
.LBB789:
.LBB665:
	.loc 4 317 0
	stw 0,8(31)
	lwz 0,20(1)
.LBE665:
.LBE789:
	.loc 4 373 0
	lwz 29,60(1)
.LBB790:
.LBB666:
	.loc 4 317 0
	stw 0,12(31)
	lwz 0,24(1)
.LBE666:
.LBE790:
	.loc 4 373 0
	lwz 30,64(1)
.LVL41:
.LBB791:
.LBB667:
	.loc 4 317 0
	stw 0,16(31)
	lwz 0,28(1)
	stw 0,20(31)
	lwz 0,32(1)
	stw 0,24(31)
	lwz 0,36(1)
	stw 0,28(31)
.LBE667:
.LBE791:
	.loc 4 373 0
	lwz 0,76(1)
	lwz 31,68(1)
.LVL42:
	mtlr 0
	addi 1,1,72
	.cfi_remember_state
.LCFI5:
	.cfi_def_cfa_offset 0
	.cfi_restore 31
	.cfi_restore 30
	.cfi_restore 29
	.cfi_restore 28
	.cfi_restore 27
	.cfi_restore 26
	blr
.LVL43:
.L44:
.LCFI6:
	.cfi_restore_state
.LBB792:
.LBB668:
.LBB669:
	.loc 1 563 0
	lwz 4,0(30)
.LBB670:
.LBB671:
.LBB672:
	.loc 2 571 0
	subf 3,4,3
.LBE672:
.LBE671:
.LBB673:
.LBB674:
	.loc 5 215 0
	srawi. 3,3,5
	beq- 0,.L48
.LBE674:
.LBE673:
	.loc 2 1244 0
	slwi 0,3,1
.LVL44:
	.loc 2 1245 0
	cmplw 7,3,0
	ble- 7,.L59
.L49:
.LVL45:
.LBE670:
.LBE669:
.LBB677:
.LBB678:
	.file 6 "d:\\devkitpro\\devkitppc\\bin\\../lib/gcc/powerpc-eabi/4.6.3/../../../../powerpc-eabi/include/c++/4.6.3/bits/stl_iterator.h"
	.loc 6 892 0
	subf 4,4,31
.LBE678:
.LBE677:
	.loc 4 326 0
	li 28,-32
.LBB684:
.LBB679:
	.loc 6 892 0
	srawi 27,4,5
.LVL46:
.L55:
.LBE679:
.LBE684:
.LBB685:
.LBB686:
.LBB687:
.LBB688:
	.loc 3 92 0
	mr 3,28
	stw 5,40(1)
	bl _Znwj
.LVL47:
	lwz 4,0(30)
	lwz 5,40(1)
	mr 29,3
	subf 0,4,31
.L50:
.LVL48:
.LBE688:
.LBE687:
.LBE686:
.LBE685:
	.loc 4 335 0
	slwi 27,27,5
.LVL49:
.LBB691:
.LBB692:
	.loc 3 108 0
	add. 9,29,27
	beq- 0,.L51
	lwz 7,0(5)
	lwz 8,4(5)
	lwz 10,8(5)
	lwz 11,12(5)
	stwx 7,29,27
	stw 8,4(9)
	stw 10,8(9)
	stw 11,12(9)
	lwz 7,16(5)
	lwz 8,20(5)
	lwz 10,24(5)
	lwz 11,28(5)
	stw 7,16(9)
	stw 8,20(9)
	stw 10,24(9)
	stw 11,28(9)
.L51:
.LVL50:
.LBE692:
.LBE691:
.LBB693:
.LBB694:
.LBB695:
.LBB696:
.LBB697:
.LBB698:
.LBB699:
.LBB700:
.LBB701:
.LBB702:
.LBB703:
	.loc 5 365 0
	srawi. 0,0,5
.LVL51:
	li 27,0
.LVL52:
	bne- 0,.L60
.LVL53:
.L52:
.LBE703:
.LBE702:
.LBE701:
.LBE700:
.LBE699:
.LBE698:
.LBE697:
.LBE696:
.LBE695:
.LBE694:
.LBE693:
.LBB724:
.LBB725:
.LBB726:
.LBB727:
.LBB728:
.LBB729:
.LBB730:
.LBB731:
.LBB732:
.LBB733:
.LBB734:
	.loc 5 364 0
	lwz 0,4(30)
.LBE734:
.LBE733:
.LBE732:
.LBE731:
.LBE730:
.LBE729:
.LBE728:
.LBE727:
.LBE726:
.LBE725:
.LBE724:
.LBB765:
.LBB722:
.LBB720:
.LBB718:
.LBB716:
.LBB714:
.LBB712:
.LBB710:
.LBB708:
.LBB706:
.LBB704:
	.loc 5 367 0
	add 27,29,27
.LVL54:
.LBE704:
.LBE706:
.LBE708:
.LBE710:
.LBE712:
.LBE714:
.LBE716:
.LBE718:
.LBE720:
.LBE722:
.LBE765:
	.loc 4 347 0
	addi 26,27,32
.LBB766:
.LBB762:
.LBB759:
.LBB756:
.LBB753:
.LBB750:
.LBB747:
.LBB744:
.LBB741:
.LBB738:
.LBB735:
	.loc 5 365 0
	li 27,0
.LVL55:
	.loc 5 364 0
	subf 0,31,0
.LVL56:
	.loc 5 365 0
	srawi. 0,0,5
.LVL57:
	bne- 0,.L61
.LVL58:
.L53:
.LBE735:
.LBE738:
.LBE741:
.LBE744:
.LBE747:
.LBE750:
.LBE753:
.LBE756:
.LBE759:
.LBE762:
.LBE766:
	.loc 4 366 0
	lwz 3,0(30)
.LBB767:
.LBB763:
.LBB760:
.LBB757:
.LBB754:
.LBB751:
.LBB748:
.LBB745:
.LBB742:
.LBB739:
.LBB736:
	.loc 5 367 0
	add 27,26,27
.LVL59:
.LBE736:
.LBE739:
.LBE742:
.LBE745:
.LBE748:
.LBE751:
.LBE754:
.LBE757:
.LBE760:
.LBE763:
.LBE767:
.LBB768:
.LBB769:
	.loc 2 155 0
	cmpwi 7,3,0
	beq- 7,.L54
.LVL60:
.LBB770:
.LBB771:
	.loc 3 98 0
	bl _ZdlPv
.LVL61:
.L54:
.LBE771:
.LBE770:
.LBE769:
.LBE768:
.LBE668:
.LBE792:
	.loc 4 373 0
	lwz 0,76(1)
.LBB793:
.LBB782:
	.loc 4 371 0
	add 28,29,28
	.loc 4 369 0
	stw 29,0(30)
.LBE782:
.LBE793:
	.loc 4 373 0
	mtlr 0
.LBB794:
.LBB783:
	.loc 4 370 0
	stw 27,4(30)
	.loc 4 371 0
	stw 28,8(30)
.LBE783:
.LBE794:
	.loc 4 373 0
	lwz 26,48(1)
.LVL62:
	lwz 27,52(1)
.LVL63:
	lwz 28,56(1)
	lwz 29,60(1)
.LVL64:
	lwz 30,64(1)
.LVL65:
	lwz 31,68(1)
.LVL66:
	addi 1,1,72
	.cfi_remember_state
	.cfi_restore 26
	.cfi_restore 27
	.cfi_restore 28
	.cfi_restore 29
	.cfi_restore 30
	.cfi_restore 31
.LCFI7:
	.cfi_def_cfa_offset 0
	blr
.LVL67:
.L48:
.LCFI8:
	.cfi_restore_state
.LBB795:
.LBB784:
.LBB772:
.LBB680:
	.loc 6 892 0
	subf 4,4,31
.LBE680:
.LBE772:
	.loc 4 326 0
	li 28,32
.LBB773:
.LBB681:
	.loc 6 892 0
	srawi 27,4,5
.LVL68:
	b .L55
.LVL69:
.L60:
.LBE681:
.LBE773:
.LBB774:
.LBB723:
.LBB721:
.LBB719:
.LBB717:
.LBB715:
.LBB713:
.LBB711:
.LBB709:
.LBB707:
.LBB705:
	.loc 5 366 0
	slwi 27,0,5
	mr 3,29
	mr 5,27
.LVL70:
	bl memmove
.LVL71:
	b .L52
.LVL72:
.L61:
.LBE705:
.LBE707:
.LBE709:
.LBE711:
.LBE713:
.LBE715:
.LBE717:
.LBE719:
.LBE721:
.LBE723:
.LBE774:
.LBB775:
.LBB764:
.LBB761:
.LBB758:
.LBB755:
.LBB752:
.LBB749:
.LBB746:
.LBB743:
.LBB740:
.LBB737:
	slwi 27,0,5
	mr 3,26
	mr 4,31
	mr 5,27
	bl memmove
.LVL73:
	b .L53
.LVL74:
.L59:
.LBE737:
.LBE740:
.LBE743:
.LBE746:
.LBE749:
.LBE752:
.LBE755:
.LBE758:
.LBE761:
.LBE764:
.LBE775:
.LBB776:
.LBB675:
	.loc 2 1245 0
	lis 9,0x7ff
	ori 9,9,65535
	cmplw 7,0,9
	bgt+ 7,.L49
.LBE675:
.LBE776:
.LBB777:
.LBB689:
	.loc 2 150 0
	cmpwi 7,0,0
.LBE689:
.LBE777:
.LBB778:
.LBB682:
	.loc 6 892 0
	subf 0,4,31
.LVL75:
.LBE682:
.LBE778:
.LBB779:
.LBB676:
	.loc 2 1245 0
	slwi 28,3,6
.LVL76:
.LBE676:
.LBE779:
.LBB780:
.LBB683:
	.loc 6 892 0
	srawi 27,0,5
.LVL77:
.LBE683:
.LBE780:
.LBB781:
.LBB690:
	.loc 2 150 0
	li 29,0
	beq+ 7,.L50
	b .L55
.LBE690:
.LBE781:
.LBE784:
.LBE795:
	.cfi_endproc
.LFE553:
	.size	_ZNSt6vectorI8GifFrameSaIS0_EE13_M_insert_auxEN9__gnu_cxx17__normal_iteratorIPS0_S2_EERKS0_, .-_ZNSt6vectorI8GifFrameSaIS0_EE13_M_insert_auxEN9__gnu_cxx17__normal_iteratorIPS0_S2_EERKS0_
	.globl __floatundisf
	.section	".text"
	.align 2
	.globl _ZN8GifImage4DrawEiiiiffiiiii
	.type	_ZN8GifImage4DrawEiiiiffiiiii, @function
_ZN8GifImage4DrawEiiiiffiiiii:
.LFB525:
	.loc 1 516 0
	.cfi_startproc
.LVL78:
	mflr 0
	stwu 1,-344(1)
.LCFI9:
	.cfi_def_cfa_offset 344
	.cfi_register 65, 0
	stw 27,300(1)
	mr 27,4
	.cfi_offset 27, -44
	stw 0,348(1)
	stfd 30,328(1)
	fmr 30,1
	.cfi_offset 62, -16
	.cfi_offset 65, 4
.LBB877:
.LBB878:
	.loc 1 563 0
	lwz 11,44(3)
.LBE878:
.LBB887:
.LBB888:
	.loc 2 571 0
	lwz 0,48(3)
.LBE888:
.LBE887:
.LBE877:
	.loc 1 516 0
	stfd 31,336(1)
	fmr 31,2
	.cfi_offset 63, -8
.LBB949:
.LBB890:
.LBB889:
	.loc 2 571 0
	subf 0,11,0
.LBE889:
.LBE890:
.LBE949:
	.loc 1 516 0
	stw 22,280(1)
.LBB950:
	.loc 1 517 0
	srwi. 4,0,5
.LVL79:
.LBE950:
	.loc 1 516 0
	stw 23,284(1)
	stw 24,288(1)
	mr 22,10
	.cfi_offset 24, -56
	.cfi_offset 23, -60
	.cfi_offset 22, -64
	stw 26,296(1)
	mr 26,9
	.cfi_offset 26, -48
	stw 28,304(1)
	mr 28,5
	.cfi_offset 28, -40
	stw 29,308(1)
	mr 29,6
	.cfi_offset 29, -36
	stw 30,312(1)
	mr 30,7
	.cfi_offset 30, -32
	stw 31,316(1)
	mr 31,3
	.cfi_offset 31, -28
	stfd 29,320(1)
	stw 17,260(1)
	stw 18,264(1)
	stw 19,268(1)
	stw 20,272(1)
	stw 21,276(1)
	stw 25,292(1)
	.loc 1 516 0
	lwz 23,352(1)
	lwz 24,356(1)
.LBB951:
	.loc 1 517 0
	beq- 0,.L62
	.cfi_offset 25, -52
	.cfi_offset 21, -68
	.cfi_offset 20, -72
	.cfi_offset 19, -76
	.cfi_offset 18, -80
	.cfi_offset 17, -84
	.cfi_offset 61, -24
.LVL80:
	.loc 1 563 0 discriminator 1
	lwz 10,32(3)
.LVL81:
.LBB891:
.LBB879:
.LBB880:
	.loc 2 571 0 discriminator 1
	lwz 0,36(3)
	subf 0,10,0
.LBE880:
.LBE879:
	.loc 1 522 0 discriminator 1
	srwi. 9,0,5
.LVL82:
	beq- 0,.L77
	lis 17,.LC1@ha
	lis 18,.LC2@ha
	.loc 1 522 0 is_stmt 0
	rlwinm 21,8,0,0xff
	li 25,0
	la 19,.LC1@l(17)
	la 20,.LC2@l(18)
.LVL83:
.L66:
.LBB882:
.LBB883:
	.loc 1 515 0 is_stmt 1 discriminator 2
	slwi 11,25,5
.LBE883:
.LBE882:
	.loc 1 525 0 discriminator 2
	lwz 8,4(31)
.LBB885:
.LBB884:
	.loc 2 696 0 discriminator 2
	add 9,10,11
.LVL84:
.LBE884:
.LBE885:
	.loc 1 525 0 discriminator 2
	lis 0,0x4330
	lwz 4,4(9)
	xoris 8,8,0x8000
	stw 0,16(1)
	.loc 1 530 0 discriminator 2
	xoris 6,29,0x8000
	.loc 1 525 0 discriminator 2
	xoris 7,4,0x8000
	stw 0,24(1)
	stw 7,20(1)
	.loc 1 530 0 discriminator 2
	fmr 5,30
	.loc 1 525 0 discriminator 2
	stw 8,28(1)
	.loc 1 530 0 discriminator 2
	fmr 6,31
	.loc 1 525 0 discriminator 2
	lfs 0,0(19)
	.loc 1 530 0 discriminator 2
	rlwinm 4,4,0,0xffff
	.loc 1 526 0 discriminator 2
	lwz 5,8(9)
	.loc 1 522 0 discriminator 2
	addi 25,25,1
.LVL85:
	.loc 1 526 0 discriminator 2
	lwz 8,8(31)
	xoris 7,5,0x8000
	stw 0,32(1)
	xoris 8,8,0x8000
	stw 0,40(1)
	stw 8,44(1)
	.loc 1 525 0 discriminator 2
	xoris 8,27,0x8000
	.loc 1 526 0 discriminator 2
	stw 7,36(1)
	.loc 1 530 0 discriminator 2
	rlwinm 5,5,0,0xffff
	.loc 1 525 0 discriminator 2
	lfd 10,16(1)
	lwz 7,12(9)
	.loc 1 530 0 discriminator 2
	lwzx 3,10,11
	.loc 1 525 0 discriminator 2
	fsub 10,10,0
	xoris 11,7,0x8000
	stw 0,48(1)
	stw 0,56(1)
	.loc 1 530 0 discriminator 2
	xoris 10,22,0x8000
	.loc 1 525 0 discriminator 2
	stw 11,52(1)
	.loc 1 526 0 discriminator 2
	xoris 11,28,0x8000
	.loc 1 525 0 discriminator 2
	stw 8,60(1)
	frsp 10,10
	.loc 1 526 0 discriminator 2
	lfd 13,32(1)
	.loc 1 530 0 discriminator 2
	xoris 7,30,0x8000
	.loc 1 526 0 discriminator 2
	lwz 9,16(9)
	.loc 1 530 0 discriminator 2
	xoris 8,26,0x8000
	.loc 1 526 0 discriminator 2
	stw 0,64(1)
	fsub 13,13,0
	xoris 9,9,0x8000
	stw 0,72(1)
	stw 9,68(1)
	.loc 1 525 0 discriminator 2
	fmsubs 10,10,30,10
	.loc 1 526 0 discriminator 2
	stw 11,76(1)
	frsp 13,13
	.loc 1 525 0 discriminator 2
	lfd 7,48(1)
	.loc 1 530 0 discriminator 2
	xoris 11,23,0x8000
	.loc 1 525 0 discriminator 2
	lfd 9,56(1)
	.loc 1 530 0 discriminator 2
	xoris 9,24,0x8000
	.loc 1 526 0 discriminator 2
	lfd 8,64(1)
	.loc 1 525 0 discriminator 2
	fsub 7,7,0
	.loc 1 526 0 discriminator 2
	lfd 11,72(1)
	.loc 1 525 0 discriminator 2
	fsub 9,9,0
	.loc 1 526 0 discriminator 2
	fsub 8,8,0
	.loc 1 525 0 discriminator 2
	lfd 1,24(1)
	.loc 1 526 0 discriminator 2
	fsub 11,11,0
	lfd 2,40(1)
	.loc 1 525 0 discriminator 2
	frsp 7,7
	lfs 12,0(20)
	.loc 1 526 0 discriminator 2
	frsp 8,8
	.loc 1 530 0 discriminator 2
	stw 6,84(1)
	.loc 1 525 0 discriminator 2
	frsp 9,9
	.loc 1 530 0 discriminator 2
	stw 0,80(1)
	.loc 1 526 0 discriminator 2
	frsp 11,11
	.loc 1 530 0 discriminator 2
	stw 7,92(1)
	.loc 1 525 0 discriminator 2
	fsub 1,1,0
	.loc 1 530 0 discriminator 2
	stw 0,88(1)
	.loc 1 526 0 discriminator 2
	fsub 2,2,0
	.loc 1 530 0 discriminator 2
	stw 0,96(1)
	.loc 1 525 0 discriminator 2
	fmadds 9,7,30,9
	.loc 1 530 0 discriminator 2
	stw 10,108(1)
	.loc 1 526 0 discriminator 2
	fmsubs 13,13,31,13
	.loc 1 530 0 discriminator 2
	stw 0,104(1)
	.loc 1 526 0 discriminator 2
	fmadds 11,8,31,11
	.loc 1 530 0 discriminator 2
	stw 0,112(1)
	stw 0,120(1)
	.loc 1 525 0 discriminator 2
	frsp 1,1
	.loc 1 530 0 discriminator 2
	stw 8,100(1)
	.loc 1 526 0 discriminator 2
	frsp 2,2
	.loc 1 530 0 discriminator 2
	stw 11,116(1)
	.loc 1 525 0 discriminator 2
	fmadds 10,10,12,9
	.loc 1 530 0 discriminator 2
	stw 9,124(1)
	.loc 1 526 0 discriminator 2
	fmadds 11,13,12,11
	.loc 1 530 0 discriminator 2
	lfd 3,80(1)
	.loc 1 515 0 discriminator 2
	fnmsubs 1,1,30,1
	.loc 1 530 0 discriminator 2
	lfd 4,88(1)
	.loc 1 515 0 discriminator 2
	fnmsubs 2,2,31,2
	.loc 1 530 0 discriminator 2
	lfd 7,96(1)
	fsub 3,3,0
	lfd 8,104(1)
	fsub 4,4,0
	lfd 13,112(1)
	fsub 7,7,0
	lfd 9,120(1)
	fsub 8,8,0
	fsub 13,13,0
	li 6,6
	fsub 0,9,0
	mr 7,21
	fmadds 1,1,12,10
	frsp 13,13
	frsp 0,0
	fmadds 2,2,12,11
	frsp 3,3
	stfs 13,8(1)
	frsp 4,4
	stfs 0,12(1)
	frsp 7,7
	frsp 8,8
	bl _Z15Menu_DrawImgCutPhtthffffffhffff
.LVL86:
	.loc 1 563 0 discriminator 2
	lwz 10,32(31)
.LBB886:
.LBB881:
	.loc 2 571 0 discriminator 2
	lwz 0,36(31)
	subf 0,10,0
	srawi 0,0,5
.LBE881:
.LBE886:
	.loc 1 522 0 discriminator 2
	cmplw 7,25,0
	blt+ 7,.L66
	.loc 1 522 0 is_stmt 0
	lwz 11,44(31)
.LVL87:
.L65:
.LBE891:
.LBB892:
.LBB893:
	.loc 2 696 0 is_stmt 1
	lwz 0,16(31)
.LBE893:
.LBE892:
	.loc 1 534 0
	lis 25,0x4330
	lwz 10,4(31)
	xoris 27,27,0x8000
.LVL88:
.LBB896:
.LBB894:
	.loc 2 696 0
	slwi 0,0,5
.LBE894:
.LBE896:
	.loc 1 535 0
	xoris 28,28,0x8000
.LVL89:
.LBB897:
.LBB895:
	.loc 2 696 0
	add 9,11,0
.LVL90:
.LBE895:
.LBE897:
	.loc 1 534 0
	xoris 10,10,0x8000
	lwz 4,4(9)
	.loc 1 539 0
	xoris 29,29,0x8000
.LVL91:
	.loc 1 534 0
	stw 10,140(1)
	.loc 1 539 0
	xoris 30,30,0x8000
.LVL92:
	.loc 1 534 0
	xoris 8,4,0x8000
	stw 25,128(1)
	stw 8,132(1)
	.loc 1 539 0
	xoris 26,26,0x8000
.LVL93:
	.loc 1 534 0
	stw 25,136(1)
	.loc 1 539 0
	xoris 22,22,0x8000
.LVL94:
	.loc 1 534 0
	lfs 29,.LC1@l(17)
	.loc 1 539 0
	xoris 23,23,0x8000
	.loc 1 535 0
	lwz 5,8(9)
	.loc 1 539 0
	xoris 24,24,0x8000
	.loc 1 535 0
	lwz 10,8(31)
	.loc 1 539 0
	fmr 5,30
	.loc 1 535 0
	xoris 8,5,0x8000
	stw 25,144(1)
	xoris 10,10,0x8000
	stw 8,148(1)
	stw 10,156(1)
	.loc 1 539 0
	fmr 6,31
	.loc 1 535 0
	stw 25,152(1)
	.loc 1 539 0
	rlwinm 5,5,0,0xffff
	.loc 1 535 0
	lfd 13,144(1)
	.loc 1 539 0
	li 6,6
	.loc 1 534 0
	lwz 10,12(9)
	.loc 1 539 0
	mr 7,21
	lwzx 3,11,0
	.loc 1 535 0
	fsub 13,13,29
	.loc 1 534 0
	xoris 0,10,0x8000
	stw 27,172(1)
	stw 0,164(1)
	.loc 1 539 0
	rlwinm 4,4,0,0xffff
	.loc 1 534 0
	stw 25,160(1)
	.loc 1 535 0
	frsp 13,13
	.loc 1 534 0
	stw 25,168(1)
	lfd 10,128(1)
	.loc 1 535 0
	lwz 0,16(9)
	fmsubs 13,13,31,13
	stw 28,188(1)
	.loc 1 534 0
	fsub 10,10,29
	.loc 1 535 0
	xoris 0,0,0x8000
	stw 25,176(1)
	stw 0,180(1)
	stw 25,184(1)
	.loc 1 534 0
	frsp 10,10
.LVL95:
	.loc 1 535 0
	lfd 8,176(1)
	lfd 11,184(1)
	.loc 1 534 0
	lfd 7,160(1)
	.loc 1 535 0
	fsub 8,8,29
	.loc 1 534 0
	lfd 9,168(1)
	.loc 1 535 0
	fsub 11,11,29
	.loc 1 534 0
	lfd 0,136(1)
	fsub 7,7,29
	fsub 9,9,29
	.loc 1 535 0
	lfd 2,152(1)
	.loc 1 534 0
	fsub 0,0,29
	lfs 12,.LC2@l(18)
	.loc 1 535 0
	frsp 8,8
	.loc 1 539 0
	stw 29,196(1)
	.loc 1 535 0
	frsp 11,11
	.loc 1 539 0
	stw 30,204(1)
	.loc 1 535 0
	fsub 2,2,29
	.loc 1 539 0
	stw 26,212(1)
	.loc 1 534 0
	frsp 7,7
	.loc 1 539 0
	stw 25,192(1)
	.loc 1 534 0
	frsp 9,9
	.loc 1 539 0
	stw 25,200(1)
	.loc 1 534 0
	frsp 0,0
.LVL96:
	.loc 1 539 0
	stw 25,208(1)
	.loc 1 535 0
	fmadds 11,8,31,11
	.loc 1 539 0
	stw 22,220(1)
	stw 25,216(1)
	.loc 1 534 0
	fmadds 9,7,30,9
	.loc 1 539 0
	stw 23,228(1)
	.loc 1 535 0
	frsp 2,2
.LVL97:
	.loc 1 539 0
	stw 25,224(1)
	.loc 1 534 0
	fmsubs 10,10,30,10
	.loc 1 539 0
	stw 24,236(1)
	.loc 1 535 0
	fmadds 11,13,12,11
	.loc 1 539 0
	stw 25,232(1)
	.loc 1 515 0
	fnmsubs 1,0,30,0
	.loc 1 539 0
	lfd 3,192(1)
	.loc 1 534 0
	fmadds 10,10,12,9
	.loc 1 539 0
	lfd 4,200(1)
	.loc 1 515 0
	fnmsubs 2,2,31,2
	.loc 1 539 0
	lfd 7,208(1)
	fsub 3,3,29
	lfd 8,216(1)
	fsub 4,4,29
	lfd 13,224(1)
	fsub 7,7,29
	lfd 0,232(1)
	fsub 8,8,29
	fsub 13,13,29
.LBB898:
.LBB899:
	.file 7 "d:/Projects/SaveGameManager/savegame-manager-gx/trunk/source/ImageOperations/../Tools/timer.h"
	.loc 7 59 0
	lis 30,.LC3@ha
.LVL98:
.LBE899:
.LBE898:
	.loc 1 539 0
	fsub 0,0,29
	fmadds 1,1,12,10
	frsp 13,13
	frsp 0,0
	fmadds 2,2,12,11
	frsp 3,3
	stfs 13,8(1)
	frsp 4,4
	stfs 0,12(1)
	frsp 7,7
	frsp 8,8
	bl _Z15Menu_DrawImgCutPhtthffffffhffff
.LVL99:
.LBB904:
.LBB900:
	.loc 7 59 0
	bl gettime
	lwz 10,24(31)
	lwz 11,28(31)
.LBE900:
.LBE904:
	.loc 1 541 0
	lwz 28,16(31)
.LVL100:
.LBB905:
.LBB901:
	.loc 7 59 0
	subfc 4,11,4
	subfe 3,10,3
.LBE901:
.LBE905:
.LBB906:
.LBB907:
	.loc 2 696 0
	lwz 26,44(31)
.LVL101:
.LBE907:
.LBE906:
.LBB910:
.LBB902:
	.loc 7 59 0
	bl __floatundisf
.LVL102:
	lfs 0,.LC3@l(30)
.LBE902:
.LBE910:
.LBB911:
.LBB908:
	.loc 2 696 0
	slwi 27,28,5
.LVL103:
.LBE908:
.LBE911:
	.loc 1 541 0
	lis 9,.LC4@ha
.LBB912:
.LBB903:
	.loc 7 59 0
	fdivs 0,1,0
.LBE903:
.LBE912:
.LBB913:
.LBB909:
	.loc 2 696 0
	add 29,26,27
.LVL104:
.LBE909:
.LBE913:
	.loc 1 541 0
	lwz 0,20(29)
	stw 25,240(1)
	xoris 0,0,0x8000
	stw 0,244(1)
	lfd 13,240(1)
	fsub 29,13,29
	lfs 13,20(31)
	fsubs 0,0,13
	lfs 13,.LC4@l(9)
	frsp 29,29
	fdivs 29,29,13
	fcmpu 7,0,29
	cror 30,29,30
	bne- 7,.L62
.LVL105:
	.loc 1 543 0
	lwz 0,24(29)
	cmpwi 7,0,0
	bne- 7,.L68
.LVL106:
	.loc 1 543 0 is_stmt 0 discriminator 1
	lbz 0,28(29)
	cmpwi 7,0,0
	bne- 7,.L70
.LVL107:
.L69:
.LBB914:
.LBB915:
	.loc 2 828 0 is_stmt 1 discriminator 5
	lwz 9,36(31)
	lwz 0,40(31)
	cmpw 7,9,0
	beq- 7,.L72
.LVL108:
.LBB916:
.LBB917:
	.loc 3 108 0
	cmpwi 7,9,0
	beq- 7,.L73
	lwzx 8,26,27
	lwz 10,4(29)
	lwz 11,8(29)
	lwz 0,12(29)
	stw 8,0(9)
	stw 10,4(9)
	stw 11,8(9)
	stw 0,12(9)
	lwz 8,16(29)
	lwz 10,20(29)
	lwz 11,24(29)
	lwz 0,28(29)
	stw 8,16(9)
	stw 10,20(9)
	stw 11,24(9)
	stw 0,28(9)
.L73:
.LBE917:
.LBE916:
	.loc 2 831 0
	addi 9,9,32
	stw 9,36(31)
.LVL109:
.L70:
.LBE915:
.LBE914:
	.loc 1 553 0
	addi 28,28,1
	stw 28,16(31)
.LVL110:
.LBB924:
.LBB925:
	.loc 7 59 0
	bl gettime
	lwz 11,28(31)
	lwz 10,24(31)
	subfc 4,11,4
	subfe 3,10,3
	bl __floatundisf
	lfs 0,.LC3@l(30)
.LBE925:
.LBE924:
.LBB927:
.LBB928:
	.loc 2 571 0
	lwz 11,48(31)
.LBE928:
.LBE927:
.LBB931:
.LBB926:
	.loc 7 59 0
	fdivs 0,1,0
.LBE926:
.LBE931:
.LBB932:
.LBB929:
	.loc 2 571 0
	lwz 0,44(31)
.LBE929:
.LBE932:
	.loc 1 557 0
	lwz 9,16(31)
.LBB933:
.LBB930:
	.loc 2 571 0
	subf 0,0,11
	srawi 0,0,5
.LBE930:
.LBE933:
	.loc 1 557 0
	cmpw 7,9,0
	.loc 1 555 0
	stfs 0,20(31)
	.loc 1 557 0
	blt- 7,.L62
.LBB934:
.LBB935:
.LBB936:
.LBB937:
	.loc 2 1256 0
	lwz 0,32(31)
.LBE937:
.LBE936:
.LBE935:
.LBE934:
	.loc 1 559 0
	li 9,0
	stw 9,16(31)
.LVL111:
.LBB941:
.LBB940:
.LBB939:
.LBB938:
	.loc 2 1256 0
	stw 0,36(31)
.LVL112:
.L62:
.LBE938:
.LBE939:
.LBE940:
.LBE941:
.LBE951:
	.loc 1 563 0
	lwz 0,348(1)
	lwz 17,260(1)
	mtlr 0
	lwz 18,264(1)
	lwz 19,268(1)
	lwz 20,272(1)
	lwz 21,276(1)
	lwz 22,280(1)
	lwz 23,284(1)
	lwz 24,288(1)
	lwz 25,292(1)
	lwz 26,296(1)
	lwz 27,300(1)
	lwz 28,304(1)
	lwz 29,308(1)
	lwz 30,312(1)
	lwz 31,316(1)
.LVL113:
	lfd 29,320(1)
	lfd 30,328(1)
.LVL114:
	lfd 31,336(1)
.LVL115:
	addi 1,1,344
	.cfi_remember_state
.LCFI10:
	.cfi_def_cfa_offset 0
	.cfi_restore 63
	.cfi_restore 62
	.cfi_restore 61
	.cfi_restore 31
	.cfi_restore 30
	.cfi_restore 29
	.cfi_restore 28
	.cfi_restore 27
	.cfi_restore 26
	.cfi_restore 25
	.cfi_restore 24
	.cfi_restore 23
	.cfi_restore 22
	.cfi_restore 21
	.cfi_restore 20
	.cfi_restore 19
	.cfi_restore 18
	.cfi_restore 17
	blr
.LVL116:
.L68:
.LCFI11:
	.cfi_restore_state
.LBB952:
	.loc 1 543 0 discriminator 2
	cmpwi 7,0,1
	beq- 7,.L69
.LVL117:
	.loc 1 548 0
	cmpwi 7,0,2
	bne- 7,.L70
.LBB942:
.LBB922:
.LBB918:
.LBB919:
	.loc 1 563 0 discriminator 1
	lwz 9,36(31)
.LBE919:
.LBE918:
.LBE922:
.LBE942:
.LBB943:
.LBB944:
	.loc 2 571 0 discriminator 1
	lwz 0,32(31)
	subf 0,0,9
.LBE944:
.LBE943:
	.loc 1 548 0 discriminator 1
	srwi. 11,0,5
	beq- 0,.L70
.LBB945:
.LBB946:
	.loc 2 859 0 discriminator 4
	addi 9,9,-32
	stw 9,36(31)
	b .L70
.LVL118:
.L77:
.LBE946:
.LBE945:
.LBB947:
	.loc 1 522 0
	rlwinm 21,8,0,0xff
	lis 17,.LC1@ha
	lis 18,.LC2@ha
	b .L65
.LVL119:
.L72:
.LBE947:
.LBB948:
.LBB923:
.LBB921:
.LBB920:
	.loc 2 834 0
	mr 4,1
	addi 3,31,32
	stwu 9,248(4)
	mr 5,29
	bl _ZNSt6vectorI8GifFrameSaIS0_EE13_M_insert_auxEN9__gnu_cxx17__normal_iteratorIPS0_S2_EERKS0_
	lwz 28,16(31)
.LVL120:
	b .L70
.LBE920:
.LBE921:
.LBE923:
.LBE948:
.LBE952:
	.cfi_endproc
.LFE525:
	.size	_ZN8GifImage4DrawEiiiiffiiiii, .-_ZN8GifImage4DrawEiiiiffiiiii
	.align 2
	.globl _ZN8GifImage9LoadImageEPKhi
	.type	_ZN8GifImage9LoadImageEPKhi, @function
_ZN8GifImage9LoadImageEPKhi:
.LFB524:
	.loc 1 265 0
	.cfi_startproc
.LVL121:
	stwu 1,-160(1)
.LCFI12:
	.cfi_def_cfa_offset 160
	mflr 0
	stw 20,112(1)
	mr 20,3
	.cfi_offset 20, -48
	.cfi_register 65, 0
	stw 30,152(1)
.LBB988:
	.loc 1 266 0
	mr 3,4
.LVL122:
.LBE988:
	.loc 1 265 0
	mr 30,4
	.cfi_offset 30, -8
.LBB1070:
	.loc 1 266 0
	lis 4,.LC5@ha
.LVL123:
.LBE1070:
	.loc 1 265 0
	stw 22,120(1)
.LBB1071:
	.loc 1 266 0
	la 4,.LC5@l(4)
.LBE1071:
	.loc 1 265 0
	mr 22,5
	.cfi_offset 22, -40
.LBB1072:
	.loc 1 266 0
	li 5,3
.LVL124:
.LBE1072:
	.loc 1 265 0
	stw 0,164(1)
	stw 14,88(1)
	stw 15,92(1)
	stw 16,96(1)
	stw 17,100(1)
	stw 18,104(1)
	stw 19,108(1)
	stw 21,116(1)
	stw 23,124(1)
	stw 24,128(1)
	stw 25,132(1)
	stw 26,136(1)
	stw 27,140(1)
	stw 28,144(1)
	stw 29,148(1)
	stw 31,156(1)
.LBB1073:
	.loc 1 266 0
	.cfi_offset 31, -4
	.cfi_offset 29, -12
	.cfi_offset 28, -16
	.cfi_offset 27, -20
	.cfi_offset 26, -24
	.cfi_offset 25, -28
	.cfi_offset 24, -32
	.cfi_offset 23, -36
	.cfi_offset 21, -44
	.cfi_offset 19, -52
	.cfi_offset 18, -56
	.cfi_offset 17, -60
	.cfi_offset 16, -64
	.cfi_offset 15, -68
	.cfi_offset 14, -72
	.cfi_offset 65, 4
	bl memcmp
.LVL125:
	cmpwi 7,3,0
	beq- 7,.L201
.LVL126:
.L78:
.LBE1073:
	.loc 1 513 0
	lwz 0,164(1)
	lwz 14,88(1)
	mtlr 0
	lwz 15,92(1)
	lwz 16,96(1)
	lwz 17,100(1)
	lwz 18,104(1)
	lwz 19,108(1)
	lwz 20,112(1)
	lwz 21,116(1)
	lwz 22,120(1)
.LVL127:
	lwz 23,124(1)
	lwz 24,128(1)
	lwz 25,132(1)
	lwz 26,136(1)
	lwz 27,140(1)
	lwz 28,144(1)
	lwz 29,148(1)
	lwz 30,152(1)
.LVL128:
	lwz 31,156(1)
	addi 1,1,160
	.cfi_remember_state
.LCFI13:
	.cfi_def_cfa_offset 0
	.cfi_restore 31
	.cfi_restore 30
	.cfi_restore 29
	.cfi_restore 28
	.cfi_restore 27
	.cfi_restore 26
	.cfi_restore 25
	.cfi_restore 24
	.cfi_restore 23
	.cfi_restore 22
	.cfi_restore 21
	.cfi_restore 20
	.cfi_restore 19
	.cfi_restore 18
	.cfi_restore 17
	.cfi_restore 16
	.cfi_restore 15
	.cfi_restore 14
	blr
.LVL129:
.L201:
.LCFI14:
	.cfi_restore_state
.LBB1074:
	.loc 1 273 0
	lbz 31,10(30)
	.loc 1 284 0
	li 29,1
	.loc 1 273 0
	lhz 9,6(30)
.LVL130:
	.loc 1 276 0
	rlwinm 11,31,0,29,31
	.loc 1 273 0
	lhz 0,8(30)
.LVL131:
	.loc 1 276 0
	addi 11,11,1
	.loc 1 278 0
	srwi 10,9,8
	.loc 1 276 0
	stw 11,64(1)
.LVL132:
	.loc 1 278 0
	rlwinm 9,9,8,16,23
.LVL133:
	.loc 1 279 0
	srwi 11,0,8
.LVL134:
	.loc 1 278 0
	or 9,9,10
.LVL135:
	.loc 1 284 0
	lwz 6,64(1)
	.loc 1 279 0
	rlwinm 0,0,8,16,23
.LVL136:
	or 0,0,11
.LVL137:
	.loc 1 281 0
	stw 9,4(20)
	.loc 1 284 0
	slw 29,29,6
	lis 9,.LC6@ha
.LVL138:
	.loc 1 282 0
	stw 0,8(20)
	.loc 1 284 0
	slwi 28,29,2
	lwz 4,.LC6@l(9)
	mr 3,28
	bl _ZnajRKSt9nothrow_t
.LVL139:
	.loc 1 285 0
	mr. 23,3
	beq- 0,.L78
.LBB989:
	.loc 1 291 0
	andi. 11,31,128
	li 24,256
.LBB990:
	.loc 1 293 0
	mr 9,23
	.loc 1 264 0
	li 11,0
	mtctr 24
.LBE990:
	.loc 1 291 0
	bne- 0,.L202
.L171:
.LBB991:
	.loc 1 303 0 discriminator 2
	rlwinm 0,11,0,0xff
	.loc 1 302 0 discriminator 2
	addi 11,11,1
.LVL140:
	.loc 1 303 0 discriminator 2
	stb 0,0(9)
	stb 0,1(9)
	stb 0,2(9)
	.loc 1 302 0 discriminator 2
	addi 9,9,4
	bdnz .L171
	.loc 1 274 0
	li 31,13
.LVL141:
.L81:
.LBE991:
.LBE989:
	.loc 1 309 0
	li 0,0
	.loc 1 306 0
	li 25,0
	.loc 1 309 0
	stw 0,8(1)
	stb 0,12(1)
	.loc 1 306 0
	stw 23,72(1)
	stw 20,76(1)
	b .L154
.LVL142:
.L84:
.LBB993:
.LBB994:
.LBB995:
	.loc 1 338 0
	cmpwi 7,0,44
	beq- 7,.L203
	.loc 1 506 0
	cmpwi 7,0,59
	beq- 7,.L189
	.loc 1 313 0
	mr 31,21
.LVL143:
.L88:
.LBE995:
.LBE994:
.LBE993:
	.loc 1 311 0
	cmpw 7,31,22
	bge- 7,.L189
.LVL144:
.L154:
.LBB1066:
	.loc 1 313 0
	lbzx 0,30,31
.LVL145:
	addi 21,31,1
.LVL146:
.LBB1063:
	.loc 1 315 0
	cmpwi 7,0,33
	bne+ 7,.L84
.LBB1055:
	.loc 1 317 0
	lbzx 0,30,21
.LVL147:
	addi 9,31,2
.LVL148:
	cmpwi 7,0,249
	beq- 7,.L204
.LVL149:
.L180:
.LBB1056:
.LBB1057:
	.loc 1 330 0 discriminator 1
	lbzx 0,30,9
.LVL150:
	addi 31,9,1
.LVL151:
	cmpwi 7,0,0
	.loc 1 264 0 discriminator 1
	add 9,9,0
	addi 9,9,1
	.loc 1 330 0 discriminator 1
	bne+ 7,.L180
.LVL152:
.LBE1057:
.LBE1056:
.LBE1055:
.LBE1063:
.LBE1066:
	.loc 1 311 0
	cmpw 7,31,22
	blt+ 7,.L154
.LVL153:
.L189:
	lwz 23,72(1)
.LVL154:
.L91:
	.loc 1 511 0
	mr 3,23
	bl _ZdaPv
	b .L78
.LVL155:
.L203:
.LBB1067:
.LBB1064:
.LBB1059:
.LBB996:
	.loc 1 342 0
	add 9,30,21
	lhzx 11,30,21
.LVL156:
	lhz 8,4(9)
	.loc 1 359 0
	li 19,0
	.loc 1 342 0
	lbz 16,8(9)
	lhz 10,6(9)
	.loc 1 347 0
	srwi 7,8,8
	.loc 1 342 0
	lhz 0,2(9)
.LVL157:
	.loc 1 347 0
	rlwinm 8,8,8,16,23
.LVL158:
	.loc 1 348 0
	srwi 9,10,8
	.loc 1 359 0
	andi. 5,16,8
	.loc 1 348 0
	rlwinm 10,10,8,16,23
.LVL159:
	.loc 1 347 0
	or 27,8,7
	.loc 1 348 0
	or 28,10,9
	.loc 1 355 0
	lbz 31,9(1)
	.loc 1 346 0
	srwi 9,0,8
	rlwinm 0,0,8,16,23
.LVL160:
	.loc 1 345 0
	srwi 10,11,8
	.loc 1 346 0
	or 0,0,9
	.loc 1 345 0
	rlwinm 11,11,8,16,23
.LVL161:
	.loc 1 352 0
	addi 29,27,3
	.loc 1 353 0
	addi 7,28,3
	.loc 1 354 0
	lhz 8,10(1)
	.loc 1 345 0
	or 11,11,10
.LVL162:
	.loc 1 352 0
	rlwinm 29,29,0,0,29
	.loc 1 353 0
	rlwinm 7,7,0,0,29
	.loc 1 355 0
	rlwinm 10,31,30,29,31
	.loc 1 356 0
	rlwinm 9,16,0,31,31
	.loc 1 351 0
	stw 0,32(1)
	.loc 1 357 0
	li 0,0
.LVL163:
	.loc 1 350 0
	stw 11,28(1)
	.loc 1 352 0
	stw 29,20(1)
	.loc 1 353 0
	stw 7,24(1)
	.loc 1 354 0
	stw 8,36(1)
	.loc 1 355 0
	stw 10,40(1)
	.loc 1 356 0
	stb 9,44(1)
	.loc 1 357 0
	stw 0,16(1)
	.loc 1 360 0
	lwz 23,64(1)
	.loc 1 359 0
	beq- 0,.L90
.LVL164:
	.loc 1 360 0 discriminator 3
	rlwinm 23,16,0,29,31
	.loc 1 359 0 discriminator 3
	li 19,1
	.loc 1 360 0 discriminator 3
	addi 23,23,1
.LVL165:
.L90:
	.loc 1 367 0 discriminator 3
	mullw 3,29,28
	lis 6,.LC6@ha
	lwz 4,.LC6@l(6)
	bl _ZnajRKSt9nothrow_t
.LVL166:
	.loc 1 368 0 discriminator 3
	mr. 26,3
	beq- 0,.L189
.LVL167:
	.loc 1 376 0
	cmpwi 7,25,0
	.loc 1 375 0
	li 24,-1
	.loc 1 376 0
	beq- 7,.L92
.LVL168:
	.loc 1 379 0
	andi. 9,31,1
	bne- 0,.L205
.LVL169:
.L92:
	.loc 1 382 0
	lis 11,.LC6@ha
	li 20,4
	slw 20,20,23
	lwz 4,.LC6@l(11)
	slwi 3,20,2
.LVL170:
	bl _ZnajRKSt9nothrow_t
.LVL171:
	.loc 1 383 0
	mr. 25,3
.LVL172:
	beq- 0,.L206
	.loc 1 390 0
	cmpwi 7,19,0
	.loc 1 343 0
	addi 31,21,9
	.loc 1 390 0
	beq- 7,.L94
	.loc 1 392 0
	add 4,30,31
	mr 5,20
	bl memcpy
.LVL173:
	.loc 1 393 0
	li 0,3
	slw 23,0,23
.LVL174:
	add 31,23,31
.LVL175:
.L95:
	.loc 1 400 0
	addi 23,31,1
	lbzx 19,30,31
.LVL176:
.LBB997:
	.loc 1 405 0
	lbzx 9,30,23
.LVL177:
	li 3,4
	cmpwi 7,9,0
	beq- 7,.L96
	.loc 1 405 0 is_stmt 0 discriminator 2
	mr 11,23
.LVL178:
.L97:
	.loc 1 407 0 is_stmt 1 discriminator 2
	addi 9,9,1
.LVL179:
	add 0,11,9
.LVL180:
	.loc 1 405 0 discriminator 2
	lbzx 9,30,0
.LVL181:
	.loc 1 407 0 discriminator 2
	mr 11,0
	.loc 1 405 0 discriminator 2
	cmpwi 7,9,0
	bne+ 7,.L97
	.loc 1 405 0 is_stmt 0
	subf 3,23,0
	addi 3,3,4
.LVL182:
.L96:
.LBE997:
	.loc 1 412 0 is_stmt 1
	lis 5,.LC6@ha
	lwz 4,.LC6@l(5)
	bl _ZnajRKSt9nothrow_t
.LVL183:
	.loc 1 413 0
	mr. 21,3
	beq- 0,.L98
.LVL184:
.LBB998:
	.loc 1 422 0 discriminator 1
	lbzx 23,30,23
.LVL185:
	addi 31,31,2
.LVL186:
	mr 20,21
	cmpwi 7,23,0
	beq- 7,.L99
.LVL187:
.L101:
	.loc 1 424 0 discriminator 2
	mr 3,20
	add 4,30,31
	mr 5,23
	.loc 1 425 0 discriminator 2
	add 31,31,23
.LVL188:
	.loc 1 424 0 discriminator 2
	bl memcpy
.LVL189:
	.loc 1 426 0 discriminator 2
	add 20,20,23
.LVL190:
	.loc 1 422 0 discriminator 2
	lbzx 23,30,31
.LVL191:
	addi 31,31,1
.LVL192:
	cmpwi 7,23,0
	bne+ 7,.L101
.L99:
.LBE998:
.LBB999:
.LBB1000:
	.loc 1 129 0
	li 3,0
.LBE1000:
.LBE999:
	.loc 1 400 0
	extsh 19,19
.LVL193:
.LBB1008:
.LBB1001:
	.loc 1 129 0
	ori 3,3,34818
	.loc 1 141 0
	li 15,1
	.loc 1 129 0
	bl _Znaj
	.loc 1 141 0
	slw 15,15,19
	.loc 1 129 0
	mr 23,3
.LVL194:
	.loc 1 130 0
	li 3,17409
	bl _Znaj
	.loc 1 141 0
	extsh 15,15
	.loc 1 130 0
	mr 20,3
.LVL195:
	.loc 1 134 0
	li 3,17409
	bl _Znaj
	.loc 1 150 0
	mullw. 12,27,28
	.loc 1 142 0
	rlwinm 9,15,0,0xffff
	addi 0,9,1
	extsh 0,0
.LBE1001:
.LBE1008:
	.loc 1 430 0
	rlwinm 16,16,0,25,25
.LVL196:
.LBB1009:
.LBB1002:
	.loc 1 142 0
	stw 0,60(1)
.LVL197:
	.loc 1 150 0
	beq- 0,.L161
	.loc 1 143 0
	addi 9,9,2
.LVL198:
	.loc 1 140 0
	addi 19,19,1
	.loc 1 143 0
	extsh 8,9
	.loc 1 236 0
	cmpwi 6,16,0
	stw 24,80(1)
	.loc 1 140 0
	mr 4,19
	stw 19,68(1)
	.loc 1 143 0
	mr 18,8
	.loc 1 148 0
	li 6,0
	.loc 1 115 0
	li 10,0
	li 7,0
	.loc 1 146 0
	li 14,0
	.loc 1 125 0
	li 17,0
	.loc 1 145 0
	li 19,0
.LVL199:
.L138:
	.loc 1 157 0
	srawi 0,19,3
	.loc 1 158 0
	rlwinm 9,19,0,29,31
	.loc 1 157 0
	lwzx 0,21,0
	.loc 1 160 0
	add 19,19,4
	.loc 1 157 0
	rlwinm 24,0,24,24,31
	rlwinm 5,0,8,16,23
	rlwinm 11,0,24,16,23
	or 5,24,5
	srwi 0,0,24
	slwi 5,5,16
	or 0,11,0
	.loc 1 159 0
	li 24,1
	.loc 1 157 0
	or 0,0,5
	.loc 1 159 0
	slw 11,24,4
	.loc 1 158 0
	sraw 9,0,9
	.loc 1 159 0
	addi 0,11,-1
	and 0,9,0
	.loc 1 163 0
	lwz 5,60(1)
	.loc 1 159 0
	extsh 0,0
.LVL200:
	.loc 1 163 0
	cmpw 7,5,0
	beq- 7,.L186
	.loc 1 166 0
	cmpw 7,15,0
	beq- 7,.L162
	.loc 1 172 0
	cmpw 7,18,0
	mr 5,17
	.loc 1 176 0
	li 9,1
	.loc 1 172 0
	ble- 7,.L104
	mr 5,0
	.loc 1 151 0
	li 9,0
.L104:
.LVL201:
	.loc 1 184 0
	cmpw 7,5,8
	blt- 7,.L106
	addi 24,9,1
	cmpwi 7,24,17409
	subfic 24,9,17409
	mtctr 24
	ble+ 7,.L170
	b .L211
.L111:
	.loc 1 186 0
	bdz .L198
.LVL202:
.L170:
	.loc 1 193 0
	lbzx 24,20,5
	.loc 1 194 0
	slwi 5,5,1
	.loc 1 193 0
	stbx 24,3,9
	addi 9,9,1
.LVL203:
	.loc 1 194 0
	lhax 5,23,5
.LVL204:
	.loc 1 184 0
	cmpw 7,8,5
	ble+ 7,.L111
	.loc 1 198 0
	cmpwi 7,9,17408
	bgt- 7,.L198
.LVL205:
.L106:
	.loc 1 209 0
	cmpw 7,15,17
	.loc 1 205 0
	rlwinm 5,5,0,0xff
	stbx 5,3,9
.LVL206:
	.loc 1 209 0
	beq- 7,.L114
	.loc 1 210 0
	slwi 16,18,1
	.loc 1 212 0
	addi 24,18,1
	.loc 1 210 0
	sthx 17,23,16
	.loc 1 211 0
	stbx 5,20,18
	.loc 1 212 0
	extsh 18,24
.LVL207:
	.loc 1 215 0
	cmpwi 7,18,17407
	bgt- 7,.L198
	.loc 1 224 0
	cmpw 7,11,18
	bgt- 7,.L114
	.loc 1 225 0
	cmpwi 7,4,11
	bgt- 7,.L114
	addi 4,4,1
	extsh 4,4
.LVL208:
.L114:
	.loc 1 205 0
	addi 9,9,1
.LVL209:
	.loc 1 233 0
	add 11,9,14
	cmpw 7,12,11
	blt- 7,.L208
.LVL210:
.L118:
	.loc 1 236 0
	addi 17,9,-1
	cmpwi 7,17,0
	mr 11,17
.LVL211:
	blt- 7,.L103
	.loc 1 248 0
	mtctr 9
	.loc 1 236 0
	bne- 6,.L169
.LVL212:
.L168:
	.loc 1 248 0
	cmpw 7,10,27
	.loc 1 246 0
	addi 24,7,1
	.loc 1 248 0
	mullw 9,29,24
.LVL213:
	addi 5,10,1
	beq- 7,.L121
	mr 24,7
.L121:
	mr 7,24
	beq- 7,.L122
	mr 24,10
.L123:
	beq- 7,.L125
	mr 9,6
.L125:
	mr 6,9
	beq- 7,.L126
	mr 10,5
.L127:
	.loc 1 251 0
	lbzx 5,3,11
	add 9,26,9
.LVL214:
	.loc 1 236 0
	addi 11,11,-1
.LVL215:
	.loc 1 251 0
	stbx 5,9,24
.LVL216:
	.loc 1 236 0
	bdnz .L168
.LVL217:
.L181:
	.loc 1 264 0
	addi 14,14,1
	add 14,14,17
.LVL218:
.L103:
	.loc 1 150 0
	cmpw 7,12,14
	ble- 7,.L186
	mr 17,0
	b .L138
.LVL219:
.L209:
	.loc 1 237 0
	mr 24,10
	addi 10,10,1
.LVL220:
.L131:
	.loc 1 251 0
	lbzx 5,3,11
	add 9,26,6
	.loc 1 236 0
	addi 11,11,-1
.LVL221:
	.loc 1 251 0
	stbx 5,9,24
.LVL222:
	.loc 1 236 0
	bdz .L181
.L169:
	.loc 1 237 0
	cmpw 7,27,10
	bne+ 7,.L209
	.loc 1 240 0
	andi. 5,7,7
	bne- 0,.L132
	addi 7,7,8
.LVL223:
	cmpw 7,28,7
	bgt- 7,.L133
	li 7,4
.LVL224:
.L133:
	.loc 1 248 0
	mullw 6,29,7
.LVL225:
	li 10,1
	.loc 1 249 0
	li 24,0
	b .L131
.LVL226:
.L122:
	.loc 1 248 0
	li 24,0
	b .L123
.L126:
	li 10,1
	b .L127
.LVL227:
.L198:
	.loc 1 217 0
	cmpwi 7,3,0
	beq- 7,.L116
	bl _ZdaPv
.LVL228:
.L116:
	.loc 1 218 0
	cmpwi 7,20,0
	beq- 7,.L117
	mr 3,20
	bl _ZdaPv
.L117:
	.loc 1 219 0
	cmpwi 7,23,0
	beq- 7,.L142
	mr 3,23
	bl _ZdaPv
.LVL229:
.L142:
.LBE1002:
.LBE1009:
	.loc 1 501 0
	mr 3,21
	bl _ZdaPv
.LVL230:
	.loc 1 503 0
	mr 3,26
	bl _ZdaPv
	.loc 1 504 0
	mr 3,25
	bl _ZdaPv
	.loc 1 502 0
	li 25,0
.LVL231:
	b .L88
.LVL232:
.L204:
.LBE996:
.LBE1059:
.LBB1060:
.LBB1058:
	.loc 1 320 0
	mr 11,30
	.loc 1 322 0
	addi 31,31,8
.LVL233:
	.loc 1 320 0
	lwzux 0,11,9
	.loc 1 323 0
	addi 25,25,1
.LVL234:
	.loc 1 321 0
	rlwinm 9,0,0,0xffff
	.loc 1 320 0
	lbz 11,4(11)
	.loc 1 321 0
	slwi 10,9,8
	srwi 9,9,8
	or 9,10,9
	.loc 1 320 0
	stw 0,8(1)
	stb 11,12(1)
	.loc 1 321 0
	sth 9,10(1)
	.loc 1 324 0
	b .L88
.LVL235:
.L162:
.LBE1058:
.LBE1060:
.LBB1061:
.LBB1053:
.LBB1010:
.LBB1003:
	.loc 1 143 0
	mr 18,8
	.loc 1 167 0
	lwz 4,68(1)
	b .L103
.LVL236:
.L94:
.LBE1003:
.LBE1010:
	.loc 1 397 0
	lwz 4,72(1)
	mr 5,20
	bl memcpy
	b .L95
.LVL237:
.L208:
.LBB1011:
.LBB1004:
	.loc 1 233 0
	subf 9,14,12
.LVL238:
	b .L118
.LVL239:
.L132:
	.loc 1 241 0
	andi. 6,7,3
.LVL240:
	bne- 0,.L134
	addi 7,7,8
.LVL241:
	cmpw 7,28,7
	bgt- 7,.L133
	li 7,2
.LVL242:
	b .L133
.LVL243:
.L205:
.LBE1004:
.LBE1011:
	.loc 1 379 0 discriminator 1
	lbz 24,12(1)
	b .L92
.LVL244:
.L202:
.LBE1053:
.LBE1061:
.LBE1064:
.LBE1067:
.LBB1068:
.LBB992:
	.loc 1 293 0 discriminator 1
	cmpwi 7,29,0
	li 31,13
.LVL245:
	ble- 7,.L81
	.loc 1 293 0 is_stmt 0
	addi 10,28,-4
	mr 9,30
	srwi 10,10,2
	addi 10,10,1
	mtctr 10
.LVL246:
.L82:
	.loc 1 295 0 is_stmt 1 discriminator 2
	lbz 0,13(9)
	.loc 1 264 0 discriminator 2
	add 10,23,11
	.loc 1 295 0 discriminator 2
	stb 0,2(10)
	.loc 1 296 0 discriminator 2
	lbz 0,14(9)
	stb 0,1(10)
	.loc 1 297 0 discriminator 2
	lbz 0,15(9)
	addi 9,9,3
	stbx 0,23,11
	addi 11,11,4
	.loc 1 293 0 discriminator 2
	bdnz .L82
	.loc 1 264 0
	mulli 31,29,3
	.loc 1 293 0
	addi 31,31,13
	b .L81
.LVL247:
.L134:
.LBE992:
.LBE1068:
.LBB1069:
.LBB1065:
.LBB1062:
.LBB1054:
.LBB1012:
.LBB1005:
	.loc 1 242 0
	andi. 9,7,1
	bne- 0,.L135
	addi 7,7,4
.LVL248:
	cmpw 7,28,7
	bgt- 7,.L133
	li 7,1
.LVL249:
	b .L133
.LVL250:
.L135:
	.loc 1 243 0
	addi 7,7,2
.LVL251:
	b .L133
.LVL252:
.L186:
	lwz 24,80(1)
.LVL253:
.L102:
	.loc 1 257 0
	cmpwi 7,3,0
	beq- 7,.L139
	bl _ZdaPv
.LVL254:
.L139:
	.loc 1 258 0
	cmpwi 7,20,0
	beq- 7,.L140
	mr 3,20
	bl _ZdaPv
.L140:
	.loc 1 259 0
	cmpwi 7,23,0
	beq- 7,.L141
	mr 3,23
	bl _ZdaPv
.L141:
.LBE1005:
.LBE1012:
.LBB1013:
	.loc 1 432 0
	cmpwi 7,19,0
	beq- 7,.L142
.LBB1014:
	.loc 1 434 0
	lwz 23,20(1)
.LVL255:
	.loc 1 436 0
	li 3,32
	.loc 1 434 0
	lwz 9,24(1)
	addi 23,23,3
	addi 0,9,3
.LVL256:
	srawi 23,23,2
.LVL257:
	srawi 0,0,2
	mullw 23,23,0
	slwi 23,23,6
	.loc 1 436 0
	mr 4,23
	bl memalign
	.loc 1 438 0
	cmpwi 7,3,0
	.loc 1 436 0
	stw 3,16(1)
	.loc 1 438 0
	beq- 7,.L143
.LVL258:
.LBB1015:
	.loc 1 450 0 discriminator 1
	lwz 0,20(1)
	cmpwi 7,0,0
	ble- 7,.L144
	.loc 1 450 0 is_stmt 0
	lwz 8,24(1)
	li 4,0
.LBB1016:
.LBB1017:
.LBB1018:
	.loc 1 489 0 is_stmt 1
	li 5,0
	.loc 1 490 0
	li 11,-1
.LVL259:
.L145:
.LBE1018:
.LBE1017:
	.loc 1 452 0 discriminator 1
	cmpwi 7,8,0
	ble- 7,.L150
	.loc 1 452 0 is_stmt 0
	srawi 6,4,2
	rlwinm 7,4,0,30,31
	.loc 1 264 0 is_stmt 1
	add 10,26,4
.LBE1016:
.LBE1015:
.LBE1014:
.LBE1013:
.LBB1049:
.LBB1006:
	li 9,0
	cmpw 6,27,4
	b .L151
.LVL260:
.L210:
.LBE1006:
.LBE1049:
.LBB1050:
.LBB1047:
.LBB1036:
.LBB1031:
.LBB1027:
.LBB1022:
	.loc 1 456 0 discriminator 1
	ble- 7,.L146
.LBB1019:
.LBB1020:
	.loc 1 467 0
	lbz 8,0(10)
.LVL261:
.LBE1020:
	.loc 1 472 0
	cmpw 7,8,24
	.loc 1 482 0
	slwi 20,8,2
	add 19,25,20
	.loc 1 472 0
	beq- 7,.L146
	.loc 1 481 0
	stbx 11,3,0
.LBE1019:
.LBE1022:
.LBE1027:
	.loc 1 452 0
	addi 9,9,1
.LVL262:
	add 10,10,29
.LBB1028:
.LBB1023:
.LBB1021:
	.loc 1 482 0
	lwz 8,16(1)
.LVL263:
	lbz 3,2(19)
	add 8,8,0
	stb 3,1(8)
	.loc 1 483 0
	lwz 8,16(1)
	lbz 3,1(19)
	add 8,8,0
	stb 3,32(8)
	.loc 1 484 0
	lwz 8,16(1)
	lbzx 3,25,20
	add 8,8,0
	stb 3,33(8)
.LBE1021:
.LBE1023:
.LBE1028:
	.loc 1 452 0
	lwz 8,24(1)
.LBE1031:
.LBE1036:
	.loc 1 442 0
	lwz 0,20(1)
.LVL264:
.LBB1037:
.LBB1032:
	.loc 1 452 0
	cmpw 7,8,9
.LBE1032:
.LBE1037:
	.loc 1 442 0
	lwz 3,16(1)
.LBB1038:
.LBB1033:
	.loc 1 452 0
	ble- 7,.L150
.LVL265:
.L151:
.LBB1029:
	.loc 1 454 0
	srawi 8,9,2
	srawi 0,0,2
	mullw 0,8,0
	rlwinm 8,9,2,28,29
.LBB1024:
	.loc 1 456 0
	cmpw 7,28,9
.LBE1024:
	.loc 1 454 0
	add 0,0,6
	slwi 0,0,5
	add 0,0,8
	add 0,0,7
	slwi 0,0,1
.LVL266:
.LBB1025:
	.loc 1 456 0
	bgt- 6,.L210
.L146:
	.loc 1 489 0
	stbx 5,3,0
.LBE1025:
.LBE1029:
	.loc 1 452 0
	addi 9,9,1
.LVL267:
	add 10,10,29
.LBB1030:
.LBB1026:
	.loc 1 490 0
	lwz 8,16(1)
	add 8,8,0
	stb 11,1(8)
	.loc 1 491 0
	lwz 8,16(1)
	add 8,8,0
	stb 11,32(8)
	.loc 1 492 0
	lwz 8,16(1)
	add 8,8,0
	stb 11,33(8)
.LBE1026:
.LBE1030:
	.loc 1 452 0
	lwz 8,24(1)
.LBE1033:
.LBE1038:
	.loc 1 442 0
	lwz 0,20(1)
.LVL268:
.LBB1039:
.LBB1034:
	.loc 1 452 0
	cmpw 7,8,9
.LBE1034:
.LBE1039:
	.loc 1 442 0
	lwz 3,16(1)
.LBB1040:
.LBB1035:
	.loc 1 452 0
	bgt+ 7,.L151
.LVL269:
.L150:
.LBE1035:
	.loc 1 450 0
	addi 4,4,1
.LVL270:
	cmpw 7,4,0
	blt+ 7,.L145
.LVL271:
.L144:
.LBE1040:
	.loc 1 496 0
	mr 4,23
	bl DCFlushRange
.LVL272:
.LBB1041:
.LBB1042:
	.loc 2 828 0
	lwz 11,76(1)
	lwz 9,48(11)
	lwz 0,52(11)
	cmpw 7,9,0
	beq- 7,.L152
.LVL273:
.LBB1043:
.LBB1044:
	.loc 3 108 0
	cmpwi 7,9,0
	beq- 7,.L153
	lwz 10,20(1)
	lwz 11,24(1)
	lwz 0,28(1)
	lwz 8,16(1)
	stw 10,4(9)
	stw 8,0(9)
	stw 11,8(9)
	stw 0,12(9)
	lwz 10,36(1)
	lwz 11,40(1)
	lwz 0,44(1)
	lwz 8,32(1)
	stw 10,20(9)
	stw 8,16(9)
	stw 11,24(9)
	stw 0,28(9)
.L153:
.LBE1044:
.LBE1043:
	.loc 2 831 0
	lwz 24,76(1)
	addi 9,9,32
	stw 9,48(24)
	b .L142
.LVL274:
.L152:
.LBB1045:
.LBB1046:
	.loc 2 834 0
	mr 4,1
	addi 3,11,44
	stwu 9,56(4)
	addi 5,1,16
	bl _ZNSt6vectorI8GifFrameSaIS0_EE13_M_insert_auxEN9__gnu_cxx17__normal_iteratorIPS0_S2_EERKS0_
	b .L142
.LVL275:
.L161:
.LBE1046:
.LBE1045:
.LBE1042:
.LBE1041:
.LBE1047:
.LBE1050:
.LBB1051:
.LBB1007:
	.loc 1 145 0
	li 19,0
	b .L102
.LVL276:
.L206:
.LBE1007:
.LBE1051:
	.loc 1 385 0
	mr 3,26
	lwz 23,72(1)
.LVL277:
	bl _ZdaPv
	b .L91
.LVL278:
.L98:
	.loc 1 415 0
	mr 3,26
.LVL279:
	lwz 23,72(1)
.LVL280:
	bl _ZdaPv
	.loc 1 416 0
	mr 3,25
	bl _ZdaPv
	b .L91
.LVL281:
.L143:
.LBB1052:
.LBB1048:
	.loc 1 440 0
	mr 3,21
	lwz 23,72(1)
	bl _ZdaPv
	.loc 1 441 0
	mr 3,26
	bl _ZdaPv
	.loc 1 442 0
	mr 3,25
	bl _ZdaPv
	b .L91
.LVL282:
.L211:
	li 24,1
	mtctr 24
	b .L170
.LBE1048:
.LBE1052:
.LBE1054:
.LBE1062:
.LBE1065:
.LBE1069:
.LBE1074:
	.cfi_endproc
.LFE524:
	.size	_ZN8GifImage9LoadImageEPKhi, .-_ZN8GifImage9LoadImageEPKhi
	.align 2
	.globl _ZN8GifImageC2EPKhi
	.type	_ZN8GifImageC2EPKhi, @function
_ZN8GifImageC2EPKhi:
.LFB516:
	.loc 1 70 0
	.cfi_startproc
	.cfi_personality 0,__gxx_personality_v0
	.cfi_lsda 0,.LLSDA516
.LVL283:
	mflr 0
	stwu 1,-24(1)
.LCFI15:
	.cfi_def_cfa_offset 24
	.cfi_register 65, 0
.LBB1116:
	lis 9,_ZTV8GifImage+8@ha
.LBE1116:
	stw 30,16(1)
	mr 30,4
	.cfi_offset 30, -8
	stw 0,28(1)
.LBB1147:
	la 0,_ZTV8GifImage+8@l(9)
	.cfi_offset 65, 4
.LBE1147:
	stw 31,20(1)
	.loc 1 70 0
	mr 31,3
	.cfi_offset 31, -4
.LBB1148:
	stw 0,0(3)
.LVL284:
.LBB1117:
.LBB1118:
	.loc 7 57 0
	stw 5,8(1)
.LEHB0:
	bl gettime
.LEHE0:
.LVL285:
.LBE1118:
.LBE1117:
.LBB1121:
.LBB1122:
.LBB1123:
.LBB1124:
	.loc 2 83 0
	li 0,0
	stw 0,32(31)
	stw 0,36(31)
	stw 0,40(31)
.LBE1124:
.LBE1123:
.LBE1122:
.LBE1121:
.LBB1125:
.LBB1126:
.LBB1127:
.LBB1128:
	stw 0,44(31)
	stw 0,48(31)
	stw 0,52(31)
.LBE1128:
.LBE1127:
.LBE1126:
.LBE1125:
	.loc 1 72 0
	stw 0,16(31)
	.loc 1 73 0
	li 0,0
.LBB1129:
.LBB1119:
	.loc 7 57 0
	stw 3,24(31)
.LBE1119:
.LBE1129:
	.loc 1 74 0
	mr 3,31
.LBB1130:
.LBB1120:
	.loc 7 57 0
	stw 4,28(31)
.LVL286:
.LBE1120:
.LBE1130:
	.loc 1 74 0
	mr 4,30
	.loc 1 73 0
	stw 0,20(31)
	.loc 1 74 0
	lwz 5,8(1)
.LEHB1:
	bl _ZN8GifImage9LoadImageEPKhi
.LEHE1:
.LBE1148:
	.loc 1 75 0
	lwz 0,28(1)
	lwz 30,16(1)
.LVL287:
	mtlr 0
	lwz 31,20(1)
.LVL288:
	addi 1,1,24
	.cfi_remember_state
.LCFI16:
	.cfi_def_cfa_offset 0
	.cfi_restore 31
	.cfi_restore 30
	blr
.LVL289:
.L224:
.LCFI17:
	.cfi_restore_state
.LBB1149:
.LBB1131:
	.loc 1 563 0
	lwz 0,44(31)
	mr 30,3
.LVL290:
.LBB1132:
.LBB1133:
.LBB1134:
.LBB1135:
.LBB1136:
	.loc 2 155 0
	cmpwi 7,0,0
	beq- 7,.L218
.LVL291:
.LBB1137:
.LBB1138:
	.loc 3 98 0
	mr 3,0
	bl _ZdlPv
.LVL292:
.L218:
.LBE1138:
.LBE1137:
.LBE1136:
.LBE1135:
.LBE1134:
.LBE1133:
.LBE1132:
.LBE1131:
.LBB1139:
	.loc 1 563 0
	lwz 3,32(31)
.LVL293:
.LBB1140:
.LBB1141:
.LBB1142:
.LBB1143:
.LBB1144:
	.loc 2 155 0
	cmpwi 7,3,0
	beq- 7,.L223
.LVL294:
.LBB1145:
.LBB1146:
	.loc 3 98 0
	bl _ZdlPv
.LVL295:
.L223:
	mr 3,30
.LEHB2:
	bl _Unwind_Resume
.LEHE2:
.LBE1146:
.LBE1145:
.LBE1144:
.LBE1143:
.LBE1142:
.LBE1141:
.LBE1140:
.LBE1139:
.LBE1149:
	.cfi_endproc
.LFE516:
	.globl __gxx_personality_v0
	.section	.gcc_except_table,"a",@progbits
.LLSDA516:
	.byte	0xff
	.byte	0xff
	.byte	0x1
	.uleb128 .LLSDACSE516-.LLSDACSB516
.LLSDACSB516:
	.uleb128 .LEHB0-.LFB516
	.uleb128 .LEHE0-.LEHB0
	.uleb128 0
	.uleb128 0
	.uleb128 .LEHB1-.LFB516
	.uleb128 .LEHE1-.LEHB1
	.uleb128 .L224-.LFB516
	.uleb128 0
	.uleb128 .LEHB2-.LFB516
	.uleb128 .LEHE2-.LEHB2
	.uleb128 0
	.uleb128 0
.LLSDACSE516:
	.section	".text"
	.size	_ZN8GifImageC2EPKhi, .-_ZN8GifImageC2EPKhi
	.weak	_ZTS8GifImage
	.section	.rodata._ZTS8GifImage,"aG",@progbits,_ZTS8GifImage,comdat
	.align 2
	.type	_ZTS8GifImage, @object
	.size	_ZTS8GifImage, 10
_ZTS8GifImage:
	.string	"8GifImage"
	.weak	_ZTI8GifImage
	.section	.sdata._ZTI8GifImage,"awG",@progbits,_ZTI8GifImage,comdat
	.align 2
	.type	_ZTI8GifImage, @object
	.size	_ZTI8GifImage, 8
_ZTI8GifImage:
	.long	_ZTVN10__cxxabiv117__class_type_infoE+8
	.long	_ZTS8GifImage
	.weak	_ZTV8GifImage
	.section	.rodata._ZTV8GifImage,"aG",@progbits,_ZTV8GifImage,comdat
	.align 3
	.type	_ZTV8GifImage, @object
	.size	_ZTV8GifImage, 16
_ZTV8GifImage:
	.long	0
	.long	_ZTI8GifImage
	.long	_ZN8GifImageD1Ev
	.long	_ZN8GifImageD0Ev
	.globl _ZN8GifImageD1Ev
	.set	_ZN8GifImageD1Ev,_ZN8GifImageD2Ev
	.globl _ZN8GifImageC1EPKhi
	.set	_ZN8GifImageC1EPKhi,_ZN8GifImageC2EPKhi
	.section	.rodata.cst4,"aM",@progbits,4
	.align 2
.LC1:
	.4byte	1501560836
.LC2:
	.4byte	1056964608
.LC3:
	.4byte	1281867308
.LC4:
	.4byte	1120403456
.LC6:
	.4byte	_ZSt7nothrow
	.section	.rodata.str1.4,"aMS",@progbits,1
	.align 2
.LC5:
	.string	"GIF"
	.section	".text"
.Letext0:
	.file 8 "d:\\devkitpro\\devkitppc\\bin\\../lib/gcc/powerpc-eabi/4.6.3/../../../../powerpc-eabi/include/stdint.h"
	.file 9 "d:/devkitPro/libogc/include/gctypes.h"
	.file 10 "d:/devkitPro/libogc/include/ogc/gx.h"
	.file 11 "d:\\devkitpro\\devkitppc\\bin\\../lib/gcc/powerpc-eabi/4.6.3/../../../../powerpc-eabi/include/c++/4.6.3/powerpc-eabi/bits/c++config.h"
	.file 12 "d:\\devkitpro\\devkitppc\\bin\\../lib/gcc/powerpc-eabi/4.6.3/../../../../powerpc-eabi/include/c++/4.6.3/bits/cpp_type_traits.h"
	.file 13 "d:\\devkitpro\\devkitppc\\bin\\../lib/gcc/powerpc-eabi/4.6.3/../../../../powerpc-eabi/include/c++/4.6.3/bits/stl_construct.h"
	.file 14 "d:\\devkitpro\\devkitppc\\bin\\../lib/gcc/powerpc-eabi/4.6.3/../../../../powerpc-eabi/include/c++/4.6.3/bits/stl_uninitialized.h"
	.file 15 "d:\\devkitpro\\devkitppc\\bin\\../lib/gcc/powerpc-eabi/4.6.3/../../../../powerpc-eabi/include/c++/4.6.3/debug/debug.h"
	.file 16 "d:\\devkitpro\\devkitppc\\bin\\../lib/gcc/powerpc-eabi/4.6.3/../../../../powerpc-eabi/include/c++/4.6.3/ext/numeric_traits.h"
	.file 17 "d:/Projects/SaveGameManager/savegame-manager-gx/trunk/source/ImageOperations/GifImage.hpp"
	.file 18 "d:\\devkitpro\\devkitppc\\bin\\../lib/gcc/powerpc-eabi/4.6.3/../../../../powerpc-eabi/include/c++/4.6.3/bits/allocator.h"
	.file 19 "d:\\devkitpro\\devkitppc\\bin\\../lib/gcc/powerpc-eabi/4.6.3/../../../../powerpc-eabi/include/c++/4.6.3/bits/stl_iterator_base_types.h"
	.file 20 "d:\\devkitpro\\devkitppc\\bin\\../lib/gcc/powerpc-eabi/4.6.3/../../../../powerpc-eabi/include/c++/4.6.3/new"
	.file 21 "<built-in>"