   1              		.file	"GlobalSettings.cpp"
   2              		.section	".text"
   3              	.Ltext0:
   4              		.section	.text._ZN7sigslot15single_threaded4lockEv,"axG",@progbits,_ZN7sigslot15single_threaded4lo
   5              		.align 2
   6              		.weak	_ZN7sigslot15single_threaded4lockEv
   7              		.type	_ZN7sigslot15single_threaded4lockEv, @function
   8              	_ZN7sigslot15single_threaded4lockEv:
   9              	.LFB1151:
  10              		.file 1 "d:/Projects/SaveGameManager/savegame-manager-gx/trunk/source/Settings/menus/../../GUI/../
  11              		.loc 1 109 0
  12              		.cfi_startproc
  13              	.LVL0:
  14              		.loc 1 112 0
  15 0000 4E800020 		blr
  16              		.cfi_endproc
  17              	.LFE1151:
  18              		.size	_ZN7sigslot15single_threaded4lockEv, .-_ZN7sigslot15single_threaded4lockEv
  19              		.section	.text._ZN7sigslot15single_threaded6unlockEv,"axG",@progbits,_ZN7sigslot15single_threaded6
  20              		.align 2
  21              		.weak	_ZN7sigslot15single_threaded6unlockEv
  22              		.type	_ZN7sigslot15single_threaded6unlockEv, @function
  23              	_ZN7sigslot15single_threaded6unlockEv:
  24              	.LFB1152:
  25              		.loc 1 114 0
  26              		.cfi_startproc
  27              	.LVL1:
  28              		.loc 1 117 0
  29 0000 4E800020 		blr
  30              		.cfi_endproc
  31              	.LFE1152:
  32              		.size	_ZN7sigslot15single_threaded6unlockEv, .-_ZN7sigslot15single_threaded6unlockEv
  33              		.section	.text._ZN10GuiElement9SetParentEPS_,"axG",@progbits,_ZN10GuiElement9SetParentEPS_,comdat
  34              		.align 2
  35              		.weak	_ZN10GuiElement9SetParentEPS_
  36              		.type	_ZN10GuiElement9SetParentEPS_, @function
  37              	_ZN10GuiElement9SetParentEPS_:
  38              	.LFB1384:
  39              		.file 2 "d:/Projects/SaveGameManager/savegame-manager-gx/trunk/source/Settings/menus/../../GUI/gui
  40              		.loc 2 92 0
  41              		.cfi_startproc
  42              	.LVL2:
  43              		.loc 2 92 0
  44 0000 90830060 		stw 4,96(3)
  45 0004 4E800020 		blr
  46              		.cfi_endproc
  47              	.LFE1384:
  48              		.size	_ZN10GuiElement9SetParentEPS_, .-_ZN10GuiElement9SetParentEPS_
  49              		.section	.text._ZN10GuiElement9GetParentEv,"axG",@progbits,_ZN10GuiElement9GetParentEv,comdat
  50              		.align 2
  51              		.weak	_ZN10GuiElement9GetParentEv
  52              		.type	_ZN10GuiElement9GetParentEv, @function
  53              	_ZN10GuiElement9GetParentEv:
  54              	.LFB1385:
  55              		.loc 2 95 0
  56              		.cfi_startproc
  57              	.LVL3:
  58              		.loc 2 95 0
  59 0000 80630060 		lwz 3,96(3)
  60              	.LVL4:
  61 0004 4E800020 		blr
  62              		.cfi_endproc
  63              	.LFE1385:
  64              		.size	_ZN10GuiElement9GetParentEv, .-_ZN10GuiElement9GetParentEv
  65              		.section	.text._ZN10GuiElement12GetZPositionEv,"axG",@progbits,_ZN10GuiElement12GetZPositionEv,com
  66              		.align 2
  67              		.weak	_ZN10GuiElement12GetZPositionEv
  68              		.type	_ZN10GuiElement12GetZPositionEv, @function
  69              	_ZN10GuiElement12GetZPositionEv:
  70              	.LFB1386:
  71              		.loc 2 106 0
  72              		.cfi_startproc
  73              	.LVL5:
  74 0000 7C0802A6 		mflr 0
  75 0004 9421FFF0 		stwu 1,-16(1)
  76              	.LCFI0:
  77              		.cfi_def_cfa_offset 16
  78              		.cfi_register 65, 0
  79 0008 93E1000C 		stw 31,12(1)
  80 000c 7C7F1B78 		mr 31,3
  81              		.cfi_offset 31, -4
  82 0010 90010014 		stw 0,20(1)
  83              	.LBB1401:
  84              		.loc 2 110 0
  85 0014 81630060 		lwz 11,96(3)
  86              		.loc 2 108 0
  87 0018 38600000 		li 3,0
  88              	.LVL6:
  89              		.loc 2 110 0
  90 001c 2F8B0000 		cmpwi 7,11,0
  91 0020 419E0018 		beq- 7,.L6
  92              		.cfi_offset 65, 4
  93              		.loc 2 111 0
  94 0024 812B0000 		lwz 9,0(11)
  95 0028 7D635B78 		mr 3,11
  96 002c 80090018 		lwz 0,24(9)
  97 0030 7C0903A6 		mtctr 0
  98 0034 4E800421 		bctrl
  99              	.LVL7:
 100              	.L6:
 101              		.loc 2 113 0
 102 0038 801F0034 		lwz 0,52(31)
 103              	.LBE1401:
 104              		.loc 2 114 0
 105 003c 83E1000C 		lwz 31,12(1)
 106              	.LVL8:
 107 0040 7C630214 		add 3,3,0
 108              	.LVL9:
 109 0044 80010014 		lwz 0,20(1)
 110 0048 38210010 		addi 1,1,16
 111              	.LCFI1:
 112              		.cfi_def_cfa_offset 0
 113              		.cfi_restore 31
 114 004c 7C0803A6 		mtlr 0
 115 0050 4E800020 		blr
 116              		.cfi_endproc
 117              	.LFE1386:
 118              		.size	_ZN10GuiElement12GetZPositionEv, .-_ZN10GuiElement12GetZPositionEv
 119              		.section	.text._ZN10GuiElement10GetLeftPosEv,"axG",@progbits,_ZN10GuiElement10GetLeftPosEv,comdat
 120              		.align 2
 121              		.weak	_ZN10GuiElement10GetLeftPosEv
 122              		.type	_ZN10GuiElement10GetLeftPosEv, @function
 123              	_ZN10GuiElement10GetLeftPosEv:
 124              	.LFB1387:
 125              		.loc 2 116 0
 126              		.cfi_startproc
 127              	.LVL10:
 128              		.loc 2 116 0
 129 0000 8063002C 		lwz 3,44(3)
 130              	.LVL11:
 131 0004 4E800020 		blr
 132              		.cfi_endproc
 133              	.LFE1387:
 134              		.size	_ZN10GuiElement10GetLeftPosEv, .-_ZN10GuiElement10GetLeftPosEv
 135              		.section	.text._ZN10GuiElement9GetTopPosEv,"axG",@progbits,_ZN10GuiElement9GetTopPosEv,comdat
 136              		.align 2
 137              		.weak	_ZN10GuiElement9GetTopPosEv
 138              		.type	_ZN10GuiElement9GetTopPosEv, @function
 139              	_ZN10GuiElement9GetTopPosEv:
 140              	.LFB1388:
 141              		.loc 2 118 0
 142              		.cfi_startproc
 143              	.LVL12:
 144              		.loc 2 118 0
 145 0000 80630030 		lwz 3,48(3)
 146              	.LVL13:
 147 0004 4E800020 		blr
 148              		.cfi_endproc
 149              	.LFE1388:
 150              		.size	_ZN10GuiElement9GetTopPosEv, .-_ZN10GuiElement9GetTopPosEv
 151              		.section	.text._ZN10GuiElement8GetWidthEv,"axG",@progbits,_ZN10GuiElement8GetWidthEv,comdat
 152              		.align 2
 153              		.weak	_ZN10GuiElement8GetWidthEv
 154              		.type	_ZN10GuiElement8GetWidthEv, @function
 155              	_ZN10GuiElement8GetWidthEv:
 156              	.LFB1389:
 157              		.loc 2 121 0
 158              		.cfi_startproc
 159              	.LVL14:
 160              		.loc 2 121 0
 161 0000 80630024 		lwz 3,36(3)
 162              	.LVL15:
 163 0004 4E800020 		blr
 164              		.cfi_endproc
 165              	.LFE1389:
 166              		.size	_ZN10GuiElement8GetWidthEv, .-_ZN10GuiElement8GetWidthEv
 167              		.section	.text._ZN10GuiElement9GetHeightEv,"axG",@progbits,_ZN10GuiElement9GetHeightEv,comdat
 168              		.align 2
 169              		.weak	_ZN10GuiElement9GetHeightEv
 170              		.type	_ZN10GuiElement9GetHeightEv, @function
 171              	_ZN10GuiElement9GetHeightEv:
 172              	.LFB1390:
 173              		.loc 2 124 0
 174              		.cfi_startproc
 175              	.LVL16:
 176              		.loc 2 124 0
 177 0000 80630028 		lwz 3,40(3)
 178              	.LVL17:
 179 0004 4E800020 		blr
 180              		.cfi_endproc
 181              	.LFE1390:
 182              		.size	_ZN10GuiElement9GetHeightEv, .-_ZN10GuiElement9GetHeightEv
 183              		.section	.text._ZN10GuiElement7SetSizeEii,"axG",@progbits,_ZN10GuiElement7SetSizeEii,comdat
 184              		.align 2
 185              		.weak	_ZN10GuiElement7SetSizeEii
 186              		.type	_ZN10GuiElement7SetSizeEii, @function
 187              	_ZN10GuiElement7SetSizeEii:
 188              	.LFB1391:
 189              		.loc 2 128 0
 190              		.cfi_startproc
 191              	.LVL18:
 192              		.loc 2 130 0
 193 0000 90830024 		stw 4,36(3)
 194              		.loc 2 132 0
 195              		.loc 2 131 0
 196 0004 90A30028 		stw 5,40(3)
 197              		.loc 2 132 0
 198 0008 4E800020 		blr
 199              		.cfi_endproc
 200              	.LFE1391:
 201              		.size	_ZN10GuiElement7SetSizeEii, .-_ZN10GuiElement7SetSizeEii
 202              		.section	.text._ZN10GuiElement9IsVisibleEv,"axG",@progbits,_ZN10GuiElement9IsVisibleEv,comdat
 203              		.align 2
 204              		.weak	_ZN10GuiElement9IsVisibleEv
 205              		.type	_ZN10GuiElement9IsVisibleEv, @function
 206              	_ZN10GuiElement9IsVisibleEv:
 207              	.LFB1393:
 208              		.loc 2 142 0
 209              		.cfi_startproc
 210              	.LVL19:
 211              		.loc 2 142 0
 212 0000 8863001D 		lbz 3,29(3)
 213              	.LVL20:
 214 0004 4E800020 		blr
 215              		.cfi_endproc
 216              	.LFE1393:
 217              		.size	_ZN10GuiElement9IsVisibleEv, .-_ZN10GuiElement9IsVisibleEv
 218              		.section	.text._ZN10GuiElement12IsSelectableEv,"axG",@progbits,_ZN10GuiElement12IsSelectableEv,com
 219              		.align 2
 220              		.weak	_ZN10GuiElement12IsSelectableEv
 221              		.type	_ZN10GuiElement12IsSelectableEv, @function
 222              	_ZN10GuiElement12IsSelectableEv:
 223              	.LFB1394:
 224              		.loc 2 145 0
 225              		.cfi_startproc
 226              	.LVL21:
 227              		.loc 2 149 0
 228 0000 80030048 		lwz 0,72(3)
 229 0004 39200000 		li 9,0
 230 0008 2F800004 		cmpwi 7,0,4
 231 000c 419E0010 		beq- 7,.L16
 232              		.loc 2 149 0 is_stmt 0 discriminator 1
 233 0010 2F800002 		cmpwi 7,0,2
 234 0014 419E0008 		beq- 7,.L16
 235              		.loc 2 149 0 discriminator 3
 236 0018 8923001E 		lbz 9,30(3)
 237              	.L16:
 238              		.loc 2 150 0 is_stmt 1 discriminator 5
 239 001c 7D234B78 		mr 3,9
 240              	.LVL22:
 241 0020 4E800020 		blr
 242              		.cfi_endproc
 243              	.LFE1394:
 244              		.size	_ZN10GuiElement12IsSelectableEv, .-_ZN10GuiElement12IsSelectableEv
 245              		.section	.text._ZN10GuiElement11IsClickableEv,"axG",@progbits,_ZN10GuiElement11IsClickableEv,comda
 246              		.align 2
 247              		.weak	_ZN10GuiElement11IsClickableEv
 248              		.type	_ZN10GuiElement11IsClickableEv, @function
 249              	_ZN10GuiElement11IsClickableEv:
 250              	.LFB1395:
 251              		.loc 2 153 0
 252              		.cfi_startproc
 253              	.LVL23:
 254              		.loc 2 158 0
 255 0000 80030048 		lwz 0,72(3)
 256 0004 39200000 		li 9,0
 257 0008 2F800004 		cmpwi 7,0,4
 258 000c 419E0018 		beq- 7,.L20
 259              		.loc 2 158 0 is_stmt 0 discriminator 1
 260 0010 2F800002 		cmpwi 7,0,2
 261 0014 419E0010 		beq- 7,.L20
 262              		.loc 2 158 0 discriminator 3
 263 0018 2F800003 		cmpwi 7,0,3
 264 001c 419E0008 		beq- 7,.L20
 265              		.loc 2 158 0 discriminator 4
 266 0020 8923001F 		lbz 9,31(3)
 267              	.L20:
 268              		.loc 2 159 0 is_stmt 1 discriminator 6
 269 0024 7D234B78 		mr 3,9
 270              	.LVL24:
 271 0028 4E800020 		blr
 272              		.cfi_endproc
 273              	.LFE1395:
 274              		.size	_ZN10GuiElement11IsClickableEv, .-_ZN10GuiElement11IsClickableEv
 275              		.section	.text._ZN10GuiElement10IsHoldableEv,"axG",@progbits,_ZN10GuiElement10IsHoldableEv,comdat
 276              		.align 2
 277              		.weak	_ZN10GuiElement10IsHoldableEv
 278              		.type	_ZN10GuiElement10IsHoldableEv, @function
 279              	_ZN10GuiElement10IsHoldableEv:
 280              	.LFB1396:
 281              		.loc 2 162 0
 282              		.cfi_startproc
 283              	.LVL25:
 284              		.loc 2 162 0
 285 0000 81230048 		lwz 9,72(3)
 286 0004 38000000 		li 0,0
 287 0008 2F890004 		cmpwi 7,9,4
 288 000c 419E0008 		beq- 7,.L25
 289              		.loc 2 162 0 is_stmt 0 discriminator 1
 290 0010 88030020 		lbz 0,32(3)
 291              	.L25:
 292              		.loc 2 162 0 discriminator 4
 293 0014 7C030378 		mr 3,0
 294              	.LVL26:
 295 0018 4E800020 		blr
 296              		.cfi_endproc
 297              	.LFE1396:
 298              		.size	_ZN10GuiElement10IsHoldableEv, .-_ZN10GuiElement10IsHoldableEv
 299              		.section	.text._ZN10GuiElement13SetSelectableEb,"axG",@progbits,_ZN10GuiElement13SetSelectableEb,c
 300              		.align 2
 301              		.weak	_ZN10GuiElement13SetSelectableEb
 302              		.type	_ZN10GuiElement13SetSelectableEb, @function
 303              	_ZN10GuiElement13SetSelectableEb:
 304              	.LFB1397:
 305              		.loc 2 165 0 is_stmt 1
 306              		.cfi_startproc
 307              	.LVL27:
 308              		.loc 2 165 0
 309 0000 9883001E 		stb 4,30(3)
 310 0004 4E800020 		blr
 311              		.cfi_endproc
 312              	.LFE1397:
 313              		.size	_ZN10GuiElement13SetSelectableEb, .-_ZN10GuiElement13SetSelectableEb
 314              		.section	.text._ZN10GuiElement12SetClickableEb,"axG",@progbits,_ZN10GuiElement12SetClickableEb,com
 315              		.align 2
 316              		.weak	_ZN10GuiElement12SetClickableEb
 317              		.type	_ZN10GuiElement12SetClickableEb, @function
 318              	_ZN10GuiElement12SetClickableEb:
 319              	.LFB1398:
 320              		.loc 2 168 0
 321              		.cfi_startproc
 322              	.LVL28:
 323              		.loc 2 168 0
 324 0000 9883001F 		stb 4,31(3)
 325 0004 4E800020 		blr
 326              		.cfi_endproc
 327              	.LFE1398:
 328              		.size	_ZN10GuiElement12SetClickableEb, .-_ZN10GuiElement12SetClickableEb
 329              		.section	.text._ZN10GuiElement11SetHoldableEb,"axG",@progbits,_ZN10GuiElement11SetHoldableEb,comda
 330              		.align 2
 331              		.weak	_ZN10GuiElement11SetHoldableEb
 332              		.type	_ZN10GuiElement11SetHoldableEb, @function
 333              	_ZN10GuiElement11SetHoldableEb:
 334              	.LFB1399:
 335              		.loc 2 171 0
 336              		.cfi_startproc
 337              	.LVL29:
 338              		.loc 2 171 0
 339 0000 98830020 		stb 4,32(3)
 340 0004 4E800020 		blr
 341              		.cfi_endproc
 342              	.LFE1399:
 343              		.size	_ZN10GuiElement11SetHoldableEb, .-_ZN10GuiElement11SetHoldableEb
 344              		.section	.text._ZN10GuiElement8GetStateEv,"axG",@progbits,_ZN10GuiElement8GetStateEv,comdat
 345              		.align 2
 346              		.weak	_ZN10GuiElement8GetStateEv
 347              		.type	_ZN10GuiElement8GetStateEv, @function
 348              	_ZN10GuiElement8GetStateEv:
 349              	.LFB1400:
 350              		.loc 2 178 0
 351              		.cfi_startproc
 352              	.LVL30:
 353              		.loc 2 178 0
 354 0000 80630048 		lwz 3,72(3)
 355              	.LVL31:
 356 0004 4E800020 		blr
 357              		.cfi_endproc
 358              	.LFE1400:
 359              		.size	_ZN10GuiElement8GetStateEv, .-_ZN10GuiElement8GetStateEv
 360              		.section	.text._ZN10GuiElement12GetStateChanEv,"axG",@progbits,_ZN10GuiElement12GetStateChanEv,com
 361              		.align 2
 362              		.weak	_ZN10GuiElement12GetStateChanEv
 363              		.type	_ZN10GuiElement12GetStateChanEv, @function
 364              	_ZN10GuiElement12GetStateChanEv:
 365              	.LFB1401:
 366              		.loc 2 181 0
 367              		.cfi_startproc
 368              	.LVL32:
 369              		.loc 2 181 0
 370 0000 8063004C 		lwz 3,76(3)
 371              	.LVL33:
 372 0004 4E800020 		blr
 373              		.cfi_endproc
 374              	.LFE1401:
 375              		.size	_ZN10GuiElement12GetStateChanEv, .-_ZN10GuiElement12GetStateChanEv
 376              		.section	.text._ZN10GuiElement8SetAlphaEi,"axG",@progbits,_ZN10GuiElement8SetAlphaEi,comdat
 377              		.align 2
 378              		.weak	_ZN10GuiElement8SetAlphaEi
 379              		.type	_ZN10GuiElement8SetAlphaEi, @function
 380              	_ZN10GuiElement8SetAlphaEi:
 381              	.LFB1403:
 382              		.loc 2 190 0
 383              		.cfi_startproc
 384              	.LVL34:
 385              		.loc 2 190 0
 386 0000 90830038 		stw 4,56(3)
 387 0004 4E800020 		blr
 388              		.cfi_endproc
 389              	.LFE1403:
 390              		.size	_ZN10GuiElement8SetAlphaEi, .-_ZN10GuiElement8SetAlphaEi
 391              		.section	.text._ZN10GuiElement8GetAlphaEv,"axG",@progbits,_ZN10GuiElement8GetAlphaEv,comdat
 392              		.align 2
 393              		.weak	_ZN10GuiElement8GetAlphaEv
 394              		.type	_ZN10GuiElement8GetAlphaEv, @function
 395              	_ZN10GuiElement8GetAlphaEv:
 396              	.LFB1404:
 397              		.loc 2 194 0
 398              		.cfi_startproc
 399              	.LVL35:
 400 0000 7C0802A6 		mflr 0
 401 0004 9421FFD8 		stwu 1,-40(1)
 402              	.LCFI2:
 403              		.cfi_def_cfa_offset 40
 404              		.cfi_register 65, 0
 405 0008 93E10024 		stw 31,36(1)
 406 000c 9001002C 		stw 0,44(1)
 407              	.LBB1402:
 408              		.loc 2 198 0
 409 0010 83E3006C 		lwz 31,108(3)
 410              		.cfi_offset 65, 4
 411              		.cfi_offset 31, -4
 412 0014 2F9F0000 		cmpwi 7,31,0
 413 0018 419C0094 		blt- 7,.L36
 414              	.L34:
 415              	.LVL36:
 416              		.loc 2 203 0
 417 001c 80630060 		lwz 3,96(3)
 418              	.LVL37:
 419 0020 2F830000 		cmpwi 7,3,0
 420 0024 419E0070 		beq- 7,.L35
 421              		.loc 2 204 0
 422 0028 81230000 		lwz 9,0(3)
 423 002c 6FFF8000 		xoris 31,31,0x8000
 424              	.LVL38:
 425 0030 80090064 		lwz 0,100(9)
 426 0034 7C0903A6 		mtctr 0
 427 0038 4E800421 		bctrl
 428 003c 3C004330 		lis 0,0x4330
 429 0040 6C638000 		xoris 3,3,0x8000
 430 0044 90010010 		stw 0,16(1)
 431 0048 90610014 		stw 3,20(1)
 432 004c 3D200000 		lis 9,.LC1@ha
 433 0050 C0090000 		lfs 0,.LC1@l(9)
 434 0054 3D200000 		lis 9,.LC2@ha
 435 0058 C9A10010 		lfd 13,16(1)
 436 005c C1890004 		lfs 12,.LC2@l(9)
 437 0060 39210018 		addi 9,1,24
 438 0064 FDAD0028 		fsub 13,13,0
 439 0068 93E1000C 		stw 31,12(1)
 440 006c 90010008 		stw 0,8(1)
 441 0070 FDA06818 		frsp 13,13
 442 0074 EDAD6024 		fdivs 13,13,12
 443 0078 C9810008 		lfd 12,8(1)
 444 007c FC0C0028 		fsub 0,12,0
 445 0080 FC000018 		frsp 0,0
 446 0084 EC000372 		fmuls 0,0,13
 447 0088 FC00001E 		fctiwz 0,0
 448 008c 7C004FAE 		stfiwx 0,0,9
 449 0090 83E10018 		lwz 31,24(1)
 450              	.LVL39:
 451              	.L35:
 452              	.LBE1402:
 453              		.loc 2 207 0
 454 0094 8001002C 		lwz 0,44(1)
 455 0098 7FE3FB78 		mr 3,31
 456 009c 83E10024 		lwz 31,36(1)
 457              	.LVL40:
 458 00a0 7C0803A6 		mtlr 0
 459 00a4 38210028 		addi 1,1,40
 460              		.cfi_remember_state
 461              	.LCFI3:
 462              		.cfi_def_cfa_offset 0
 463              		.cfi_restore 31
 464 00a8 4E800020 		blr
 465              	.LVL41:
 466              	.L36:
 467              	.LCFI4:
 468              		.cfi_restore_state
 469              	.LBB1403:
 470              		.loc 2 201 0
 471 00ac 83E30038 		lwz 31,56(3)
 472              	.LVL42:
 473 00b0 4BFFFF6C 		b .L34
 474              	.LBE1403:
 475              		.cfi_endproc
 476              	.LFE1404:
 477              		.size	_ZN10GuiElement8GetAlphaEv, .-_ZN10GuiElement8GetAlphaEv
 478              		.section	.text._ZN10GuiElement8SetScaleEf,"axG",@progbits,_ZN10GuiElement8SetScaleEf,comdat
 479              		.align 2
 480              		.weak	_ZN10GuiElement8SetScaleEf
 481              		.type	_ZN10GuiElement8SetScaleEf, @function
 482              	_ZN10GuiElement8SetScaleEf:
 483              	.LFB1405:
 484              		.loc 2 210 0
 485              		.cfi_startproc
 486              	.LVL43:
 487              		.loc 2 212 0
 488 0000 D023003C 		stfs 1,60(3)
 489              		.loc 2 214 0
 490              		.loc 2 213 0
 491 0004 D0230040 		stfs 1,64(3)
 492              		.loc 2 214 0
 493 0008 4E800020 		blr
 494              		.cfi_endproc
 495              	.LFE1405:
 496              		.size	_ZN10GuiElement8SetScaleEf, .-_ZN10GuiElement8SetScaleEf
 497              		.section	.text._ZN10GuiElement9SetScaleXEf,"axG",@progbits,_ZN10GuiElement9SetScaleXEf,comdat
 498              		.align 2
 499              		.weak	_ZN10GuiElement9SetScaleXEf
 500              		.type	_ZN10GuiElement9SetScaleXEf, @function
 501              	_ZN10GuiElement9SetScaleXEf:
 502              	.LFB1406:
 503              		.loc 2 217 0
 504              		.cfi_startproc
 505              	.LVL44:
 506              		.loc 2 217 0
 507 0000 D023003C 		stfs 1,60(3)
 508 0004 4E800020 		blr
 509              		.cfi_endproc
 510              	.LFE1406:
 511              		.size	_ZN10GuiElement9SetScaleXEf, .-_ZN10GuiElement9SetScaleXEf
 512              		.section	.text._ZN10GuiElement9SetScaleYEf,"axG",@progbits,_ZN10GuiElement9SetScaleYEf,comdat
 513              		.align 2
 514              		.weak	_ZN10GuiElement9SetScaleYEf
 515              		.type	_ZN10GuiElement9SetScaleYEf, @function
 516              	_ZN10GuiElement9SetScaleYEf:
 517              	.LFB1407:
 518              		.loc 2 220 0
 519              		.cfi_startproc
 520              	.LVL45:
 521              		.loc 2 220 0
 522 0000 D0230040 		stfs 1,64(3)
 523 0004 4E800020 		blr
 524              		.cfi_endproc
 525              	.LFE1407:
 526              		.size	_ZN10GuiElement9SetScaleYEf, .-_ZN10GuiElement9SetScaleYEf
 527              		.section	.text._ZN10GuiElement8GetScaleEv,"axG",@progbits,_ZN10GuiElement8GetScaleEv,comdat
 528              		.align 2
 529              		.weak	_ZN10GuiElement8GetScaleEv
 530              		.type	_ZN10GuiElement8GetScaleEv, @function
 531              	_ZN10GuiElement8GetScaleEv:
 532              	.LFB1408:
 533              		.loc 2 223 0
 534              		.cfi_startproc
 535              	.LVL46:
 536 0000 7C0802A6 		mflr 0
 537 0004 9421FFF0 		stwu 1,-16(1)
 538              	.LCFI5:
 539              		.cfi_def_cfa_offset 16
 540              		.cfi_register 65, 0
 541              	.LBB1404:
 542              		.loc 2 225 0
 543 0008 3D200000 		lis 9,.LC3@ha
 544              	.LBE1404:
 545              		.loc 2 223 0
 546 000c DBE10008 		stfd 31,8(1)
 547 0010 90010014 		stw 0,20(1)
 548              	.LBB1405:
 549              		.loc 2 225 0
 550 0014 C0030040 		lfs 0,64(3)
 551 0018 C3E3003C 		lfs 31,60(3)
 552              		.cfi_offset 65, 4
 553              		.cfi_offset 63, -8
 554              		.loc 2 227 0
 555 001c 81630060 		lwz 11,96(3)
 556              		.loc 2 225 0
 557 0020 EFFF002A 		fadds 31,31,0
 558 0024 C0090008 		lfs 0,.LC3@l(9)
 559              		.loc 2 227 0
 560 0028 2F8B0000 		cmpwi 7,11,0
 561              		.loc 2 225 0
 562 002c EFFF0032 		fmuls 31,31,0
 563 0030 C0030070 		lfs 0,112(3)
 564 0034 EFFF0032 		fmuls 31,31,0
 565              	.LVL47:
 566              		.loc 2 227 0
 567 0038 419E001C 		beq- 7,.L41
 568              		.loc 2 228 0
 569 003c 812B0000 		lwz 9,0(11)
 570 0040 7D635B78 		mr 3,11
 571              	.LVL48:
 572 0044 80090074 		lwz 0,116(9)
 573 0048 7C0903A6 		mtctr 0
 574 004c 4E800421 		bctrl
 575 0050 EFFF0072 		fmuls 31,31,1
 576              	.LVL49:
 577              	.L41:
 578              	.LBE1405:
 579              		.loc 2 231 0
 580 0054 80010014 		lwz 0,20(1)
 581 0058 FC20F890 		fmr 1,31
 582 005c CBE10008 		lfd 31,8(1)
 583              	.LVL50:
 584 0060 7C0803A6 		mtlr 0
 585 0064 38210010 		addi 1,1,16
 586              	.LCFI6:
 587              		.cfi_def_cfa_offset 0
 588              		.cfi_restore 63
 589 0068 4E800020 		blr
 590              		.cfi_endproc
 591              	.LFE1408:
 592              		.size	_ZN10GuiElement8GetScaleEv, .-_ZN10GuiElement8GetScaleEv
 593              		.section	.text._ZN10GuiElement9GetScaleXEv,"axG",@progbits,_ZN10GuiElement9GetScaleXEv,comdat
 594              		.align 2
 595              		.weak	_ZN10GuiElement9GetScaleXEv
 596              		.type	_ZN10GuiElement9GetScaleXEv, @function
 597              	_ZN10GuiElement9GetScaleXEv:
 598              	.LFB1409:
 599              		.loc 2 234 0
 600              		.cfi_startproc
 601              	.LVL51:
 602 0000 7C0802A6 		mflr 0
 603 0004 9421FFF0 		stwu 1,-16(1)
 604              	.LCFI7:
 605              		.cfi_def_cfa_offset 16
 606              		.cfi_register 65, 0
 607 0008 DBE10008 		stfd 31,8(1)
 608 000c 90010014 		stw 0,20(1)
 609              	.LBB1406:
 610              		.loc 2 238 0
 611 0010 81630060 		lwz 11,96(3)
 612              		.loc 2 236 0
 613 0014 C3E3003C 		lfs 31,60(3)
 614              		.cfi_offset 65, 4
 615              		.cfi_offset 63, -8
 616              		.loc 2 238 0
 617 0018 2F8B0000 		cmpwi 7,11,0
 618              		.loc 2 236 0
 619 001c C0030070 		lfs 0,112(3)
 620 0020 EFFF0032 		fmuls 31,31,0
 621              	.LVL52:
 622              		.loc 2 238 0
 623 0024 419E001C 		beq- 7,.L43
 624              		.loc 2 239 0
 625 0028 812B0000 		lwz 9,0(11)
 626 002c 7D635B78 		mr 3,11
 627              	.LVL53:
 628 0030 80090078 		lwz 0,120(9)
 629 0034 7C0903A6 		mtctr 0
 630 0038 4E800421 		bctrl
 631 003c EFFF0072 		fmuls 31,31,1
 632              	.LVL54:
 633              	.L43:
 634              	.LBE1406:
 635              		.loc 2 242 0
 636 0040 80010014 		lwz 0,20(1)
 637 0044 FC20F890 		fmr 1,31
 638 0048 CBE10008 		lfd 31,8(1)
 639              	.LVL55:
 640 004c 7C0803A6 		mtlr 0
 641 0050 38210010 		addi 1,1,16
 642              	.LCFI8:
 643              		.cfi_def_cfa_offset 0
 644              		.cfi_restore 63
 645 0054 4E800020 		blr
 646              		.cfi_endproc
 647              	.LFE1409:
 648              		.size	_ZN10GuiElement9GetScaleXEv, .-_ZN10GuiElement9GetScaleXEv
 649              		.section	.text._ZN10GuiElement9GetScaleYEv,"axG",@progbits,_ZN10GuiElement9GetScaleYEv,comdat
 650              		.align 2
 651              		.weak	_ZN10GuiElement9GetScaleYEv
 652              		.type	_ZN10GuiElement9GetScaleYEv, @function
 653              	_ZN10GuiElement9GetScaleYEv:
 654              	.LFB1410:
 655              		.loc 2 245 0
 656              		.cfi_startproc
 657              	.LVL56:
 658 0000 7C0802A6 		mflr 0
 659 0004 9421FFF0 		stwu 1,-16(1)
 660              	.LCFI9:
 661              		.cfi_def_cfa_offset 16
 662              		.cfi_register 65, 0
 663 0008 DBE10008 		stfd 31,8(1)
 664 000c 90010014 		stw 0,20(1)
 665              	.LBB1407:
 666              		.loc 2 249 0
 667 0010 81630060 		lwz 11,96(3)
 668              		.loc 2 247 0
 669 0014 C3E30040 		lfs 31,64(3)
 670              		.cfi_offset 65, 4
 671              		.cfi_offset 63, -8
 672              		.loc 2 249 0
 673 0018 2F8B0000 		cmpwi 7,11,0
 674              		.loc 2 247 0
 675 001c C0030070 		lfs 0,112(3)
 676 0020 EFFF0032 		fmuls 31,31,0
 677              	.LVL57:
 678              		.loc 2 249 0
 679 0024 419E001C 		beq- 7,.L45
 680              		.loc 2 250 0
 681 0028 812B0000 		lwz 9,0(11)
 682 002c 7D635B78 		mr 3,11
 683              	.LVL58:
 684 0030 8009007C 		lwz 0,124(9)
 685 0034 7C0903A6 		mtctr 0
 686 0038 4E800421 		bctrl
 687 003c EFFF0072 		fmuls 31,31,1
 688              	.LVL59:
 689              	.L45:
 690              	.LBE1407:
 691              		.loc 2 253 0
 692 0040 80010014 		lwz 0,20(1)
 693 0044 FC20F890 		fmr 1,31
 694 0048 CBE10008 		lfd 31,8(1)
 695              	.LVL60:
 696 004c 7C0803A6 		mtlr 0
 697 0050 38210010 		addi 1,1,16
 698              	.LCFI10:
 699              		.cfi_def_cfa_offset 0
 700              		.cfi_restore 63
 701 0054 4E800020 		blr
 702              		.cfi_endproc
 703              	.LFE1410:
 704              		.size	_ZN10GuiElement9GetScaleYEv, .-_ZN10GuiElement9GetScaleYEv
 705              		.section	.text._ZN10GuiElement6RumbleEv,"axG",@progbits,_ZN10GuiElement6RumbleEv,comdat
 706              		.align 2
 707              		.weak	_ZN10GuiElement6RumbleEv
 708              		.type	_ZN10GuiElement6RumbleEv, @function
 709              	_ZN10GuiElement6RumbleEv:
 710              	.LFB1411:
 711              		.loc 2 256 0
 712              		.cfi_startproc
 713              	.LVL61:
 714              		.loc 2 256 0
 715 0000 8863001C 		lbz 3,28(3)
 716              	.LVL62:
 717 0004 4E800020 		blr
 718              		.cfi_endproc
 719              	.LFE1411:
 720              		.size	_ZN10GuiElement6RumbleEv, .-_ZN10GuiElement6RumbleEv
 721              		.section	.text._ZN10GuiElement9SetRumbleEb,"axG",@progbits,_ZN10GuiElement9SetRumbleEb,comdat
 722              		.align 2
 723              		.weak	_ZN10GuiElement9SetRumbleEb
 724              		.type	_ZN10GuiElement9SetRumbleEb, @function
 725              	_ZN10GuiElement9SetRumbleEb:
 726              	.LFB1412:
 727              		.loc 2 259 0
 728              		.cfi_startproc
 729              	.LVL63:
 730              		.loc 2 259 0
 731 0000 9883001C 		stb 4,28(3)
 732 0004 4E800020 		blr
 733              		.cfi_endproc
 734              	.LFE1412:
 735              		.size	_ZN10GuiElement9SetRumbleEb, .-_ZN10GuiElement9SetRumbleEb
 736              		.section	.text._ZN10GuiElement13SetEffectGrowEv,"axG",@progbits,_ZN10GuiElement13SetEffectGrowEv,c
 737              		.align 2
 738              		.weak	_ZN10GuiElement13SetEffectGrowEv
 739              		.type	_ZN10GuiElement13SetEffectGrowEv, @function
 740              	_ZN10GuiElement13SetEffectGrowEv:
 741              	.LFB1413:
 742              		.loc 2 271 0
 743              		.cfi_startproc
 744              	.LVL64:
 745 0000 7C0802A6 		mflr 0
 746 0004 9421FFF8 		stwu 1,-8(1)
 747              	.LCFI11:
 748              		.cfi_def_cfa_offset 8
 749              		.cfi_register 65, 0
 750 0008 81230000 		lwz 9,0(3)
 751 000c 38800100 		li 4,256
 752 0010 38A00004 		li 5,4
 753 0014 38C0006E 		li 6,110
 754 0018 9001000C 		stw 0,12(1)
 755              		.loc 2 271 0
 756 001c 8009008C 		lwz 0,140(9)
 757              		.cfi_offset 65, 4
 758 0020 7C0903A6 		mtctr 0
 759 0024 4E800421 		bctrl
 760              	.LVL65:
 761 0028 8001000C 		lwz 0,12(1)
 762 002c 38210008 		addi 1,1,8
 763              	.LCFI12:
 764              		.cfi_def_cfa_offset 0
 765 0030 7C0803A6 		mtlr 0
 766 0034 4E800020 		blr
 767              		.cfi_endproc
 768              	.LFE1413:
 769              		.size	_ZN10GuiElement13SetEffectGrowEv, .-_ZN10GuiElement13SetEffectGrowEv
 770              		.section	.text._ZNK10GuiElement9GetEffectEv,"axG",@progbits,_ZNK10GuiElement9GetEffectEv,comdat
 771              		.align 2
 772              		.weak	_ZNK10GuiElement9GetEffectEv
 773              		.type	_ZNK10GuiElement9GetEffectEv, @function
 774              	_ZNK10GuiElement9GetEffectEv:
 775              	.LFB1414:
 776              		.loc 2 276 0
 777              		.cfi_startproc
 778              	.LVL66:
 779              		.loc 2 276 0
 780 0000 80630078 		lwz 3,120(3)
 781              	.LVL67:
 782 0004 4E800020 		blr
 783              		.cfi_endproc
 784              	.LFE1414:
 785              		.size	_ZNK10GuiElement9GetEffectEv, .-_ZNK10GuiElement9GetEffectEv
 786              		.section	.text._ZNK10GuiElement10IsAnimatedEv,"axG",@progbits,_ZNK10GuiElement10IsAnimatedEv,comda
 787              		.align 2
 788              		.weak	_ZNK10GuiElement10IsAnimatedEv
 789              		.type	_ZNK10GuiElement10IsAnimatedEv, @function
 790              	_ZNK10GuiElement10IsAnimatedEv:
 791              	.LFB1415:
 792              		.loc 2 278 0
 793              		.cfi_startproc
 794              	.LVL68:
 795 0000 7C0802A6 		mflr 0
 796 0004 9421FFF8 		stwu 1,-8(1)
 797              	.LCFI13:
 798              		.cfi_def_cfa_offset 8
 799              		.cfi_register 65, 0
 800 0008 9001000C 		stw 0,12(1)
 801              		.loc 2 278 0
 802 000c 81230000 		lwz 9,0(3)
 803 0010 80090098 		lwz 0,152(9)
 804              		.cfi_offset 65, 4
 805 0014 7C0903A6 		mtctr 0
 806 0018 4E800421 		bctrl
 807              	.LVL69:
 808 001c 7C60FE70 		srawi 0,3,31
 809 0020 7C630050 		subf 3,3,0
 810 0024 8001000C 		lwz 0,12(1)
 811 0028 54630FFE 		srwi 3,3,31
 812 002c 7C0803A6 		mtlr 0
 813 0030 38210008 		addi 1,1,8
 814              	.LCFI14:
 815              		.cfi_def_cfa_offset 0
 816 0034 4E800020 		blr
 817              		.cfi_endproc
 818              	.LFE1415:
 819              		.size	_ZNK10GuiElement10IsAnimatedEv, .-_ZNK10GuiElement10IsAnimatedEv
 820              		.section	.text._ZN10GuiElement8IsInsideEii,"axG",@progbits,_ZN10GuiElement8IsInsideEii,comdat
 821              		.align 2
 822              		.weak	_ZN10GuiElement8IsInsideEii
 823              		.type	_ZN10GuiElement8IsInsideEii, @function
 824              	_ZN10GuiElement8IsInsideEii:
 825              	.LFB1417:
 826              		.loc 2 285 0
 827              		.cfi_startproc
 828              	.LVL70:
 829 0000 7C0802A6 		mflr 0
 830 0004 9421FFE8 		stwu 1,-24(1)
 831              	.LCFI15:
 832              		.cfi_def_cfa_offset 24
 833              		.cfi_register 65, 0
 834 0008 93810008 		stw 28,8(1)
 835 000c 7CBC2B78 		mr 28,5
 836              		.cfi_offset 28, -16
 837 0010 9001001C 		stw 0,28(1)
 838 0014 93A1000C 		stw 29,12(1)
 839              		.loc 2 290 0
 840 0018 3BA00000 		li 29,0
 841              		.cfi_offset 29, -12
 842              		.cfi_offset 65, 4
 843              		.loc 2 287 0
 844 001c 81230000 		lwz 9,0(3)
 845              		.loc 2 285 0
 846 0020 93C10010 		stw 30,16(1)
 847 0024 7C9E2378 		mr 30,4
 848              		.cfi_offset 30, -8
 849              		.loc 2 287 0
 850 0028 80090010 		lwz 0,16(9)
 851              		.loc 2 285 0
 852 002c 93E10014 		stw 31,20(1)
 853              		.loc 2 285 0
 854 0030 7C7F1B78 		mr 31,3
 855              		.cfi_offset 31, -4
 856              		.loc 2 287 0
 857 0034 7C0903A6 		mtctr 0
 858 0038 4E800421 		bctrl
 859              	.LVL71:
 860              		.loc 2 290 0
 861 003c 7F83F000 		cmpw 7,3,30
 862 0040 419C0028 		blt- 7,.L56
 863              	.L52:
 864              		.loc 2 291 0 discriminator 6
 865 0044 8001001C 		lwz 0,28(1)
 866 0048 7FA3EB78 		mr 3,29
 867 004c 83810008 		lwz 28,8(1)
 868              	.LVL72:
 869 0050 7C0803A6 		mtlr 0
 870 0054 83A1000C 		lwz 29,12(1)
 871 0058 83C10010 		lwz 30,16(1)
 872              	.LVL73:
 873 005c 83E10014 		lwz 31,20(1)
 874              	.LVL74:
 875 0060 38210018 		addi 1,1,24
 876              		.cfi_remember_state
 877              	.LCFI16:
 878              		.cfi_def_cfa_offset 0
 879              		.cfi_restore 31
 880              		.cfi_restore 30
 881              		.cfi_restore 29
 882              		.cfi_restore 28
 883 0064 4E800020 		blr
 884              	.LVL75:
 885              	.L56:
 886              	.LCFI17:
 887              		.cfi_restore_state
 888              		.loc 2 288 0 discriminator 1
 889 0068 813F0000 		lwz 9,0(31)
 890 006c 7FE3FB78 		mr 3,31
 891 0070 80090010 		lwz 0,16(9)
 892 0074 7C0903A6 		mtctr 0
 893 0078 4E800421 		bctrl
 894              		.loc 2 290 0 discriminator 1
 895 007c 801F0024 		lwz 0,36(31)
 896 0080 7C030214 		add 0,3,0
 897 0084 7F9E0000 		cmpw 7,30,0
 898 0088 409CFFBC 		bge+ 7,.L52
 899              		.loc 2 289 0 discriminator 3
 900 008c 813F0000 		lwz 9,0(31)
 901 0090 7FE3FB78 		mr 3,31
 902 0094 80090014 		lwz 0,20(9)
 903 0098 7C0903A6 		mtctr 0
 904 009c 4E800421 		bctrl
 905              		.loc 2 290 0 discriminator 3
 906 00a0 7F83E000 		cmpw 7,3,28
 907 00a4 409CFFA0 		bge+ 7,.L52
 908              		.loc 2 290 0 is_stmt 0 discriminator 4
 909 00a8 813F0000 		lwz 9,0(31)
 910 00ac 7FE3FB78 		mr 3,31
 911 00b0 80090014 		lwz 0,20(9)
 912 00b4 7C0903A6 		mtctr 0
 913 00b8 4E800421 		bctrl
 914 00bc 801F0028 		lwz 0,40(31)
 915 00c0 7C030214 		add 0,3,0
 916              		.loc 2 285 0 is_stmt 1 discriminator 4
 917 00c4 7F9C0000 		cmpw 7,28,0
 918 00c8 7FA00026 		mfcr 29
 919 00cc 57BDEFFE 		rlwinm 29,29,29,1
 920 00d0 4BFFFF74 		b .L52
 921              		.cfi_endproc
 922              	.LFE1417:
 923              		.size	_ZN10GuiElement8IsInsideEii, .-_ZN10GuiElement8IsInsideEii
 924              		.section	.text._ZN10GuiElement11SetPositionEii,"axG",@progbits,_ZN10GuiElement11SetPositionEii,com
 925              		.align 2
 926              		.weak	_ZN10GuiElement11SetPositionEii
 927              		.type	_ZN10GuiElement11SetPositionEii, @function
 928              	_ZN10GuiElement11SetPositionEii:
 929              	.LFB1418:
 930              		.loc 2 295 0
 931              		.cfi_startproc
 932              	.LVL76:
 933              		.loc 2 297 0
 934 0000 9083002C 		stw 4,44(3)
 935              		.loc 2 299 0
 936              		.loc 2 298 0
 937 0004 90A30030 		stw 5,48(3)
 938              		.loc 2 299 0
 939 0008 4E800020 		blr
 940              		.cfi_endproc
 941              	.LFE1418:
 942              		.size	_ZN10GuiElement11SetPositionEii, .-_ZN10GuiElement11SetPositionEii
 943              		.section	.text._ZN10GuiElement11SetPositionEiii,"axG",@progbits,_ZN10GuiElement11SetPositionEiii,c
 944              		.align 2
 945              		.weak	_ZN10GuiElement11SetPositionEiii
 946              		.type	_ZN10GuiElement11SetPositionEiii, @function
 947              	_ZN10GuiElement11SetPositionEiii:
 948              	.LFB1419:
 949              		.loc 2 304 0
 950              		.cfi_startproc
 951              	.LVL77:
 952              		.loc 2 306 0
 953 0000 9083002C 		stw 4,44(3)
 954              		.loc 2 309 0
 955              		.loc 2 307 0
 956 0004 90A30030 		stw 5,48(3)
 957              		.loc 2 308 0
 958 0008 90C30034 		stw 6,52(3)
 959              		.loc 2 309 0
 960 000c 4E800020 		blr
 961              		.cfi_endproc
 962              	.LFE1419:
 963              		.size	_ZN10GuiElement11SetPositionEiii, .-_ZN10GuiElement11SetPositionEiii
 964              		.section	.text._ZN10GuiElement12SetAlignmentEi,"axG",@progbits,_ZN10GuiElement12SetAlignmentEi,com
 965              		.align 2
 966              		.weak	_ZN10GuiElement12SetAlignmentEi
 967              		.type	_ZN10GuiElement12SetAlignmentEi, @function
 968              	_ZN10GuiElement12SetAlignmentEi:
 969              	.LFB1421:
 970              		.loc 2 316 0
 971              		.cfi_startproc
 972              	.LVL78:
 973              		.loc 2 316 0
 974 0000 90830044 		stw 4,68(3)
 975 0004 4E800020 		blr
 976              		.cfi_endproc
 977              	.LFE1421:
 978              		.size	_ZN10GuiElement12SetAlignmentEi, .-_ZN10GuiElement12SetAlignmentEi
 979              		.section	.text._ZNK10GuiElement12GetAlignmentEv,"axG",@progbits,_ZNK10GuiElement12GetAlignmentEv,c
 980              		.align 2
 981              		.weak	_ZNK10GuiElement12GetAlignmentEv
 982              		.type	_ZNK10GuiElement12GetAlignmentEv, @function
 983              	_ZNK10GuiElement12GetAlignmentEv:
 984              	.LFB1422:
 985              		.loc 2 318 0
 986              		.cfi_startproc
 987              	.LVL79:
 988              		.loc 2 318 0
 989 0000 80630044 		lwz 3,68(3)
 990              	.LVL80:
 991 0004 4E800020 		blr
 992              		.cfi_endproc
 993              	.LFE1422:
 994              		.size	_ZNK10GuiElement12GetAlignmentEv, .-_ZNK10GuiElement12GetAlignmentEv
 995              		.section	.text._ZN8GuiFrame4execEv,"axG",@progbits,_ZN8GuiFrame4execEv,comdat
 996              		.align 2
 997              		.weak	_ZN8GuiFrame4execEv
 998              		.type	_ZN8GuiFrame4execEv, @function
 999              	_ZN8GuiFrame4execEv:
 1000              	.LFB1433:
 1001              		.file 3 "d:/Projects/SaveGameManager/savegame-manager-gx/trunk/source/Settings/menus/../../GUI/gui
 1002              		.loc 3 83 0
 1003              		.cfi_startproc
 1004              	.LVL81:
 1005              		.loc 3 83 0
 1006 0000 4E800020 		blr
 1007              		.cfi_endproc
 1008              	.LFE1433:
 1009              		.size	_ZN8GuiFrame4execEv, .-_ZN8GuiFrame4execEv
 1010              		.section	.text._ZN8GuiFrame12updateEventsEv,"axG",@progbits,_ZN8GuiFrame12updateEventsEv,comdat
 1011              		.align 2
 1012              		.weak	_ZN8GuiFrame12updateEventsEv
 1013              		.type	_ZN8GuiFrame12updateEventsEv, @function
 1014              	_ZN8GuiFrame12updateEventsEv:
 1015              	.LFB1434:
 1016              		.loc 3 85 0
 1017              		.cfi_startproc
 1018              	.LVL82:
 1019              		.loc 3 85 0
 1020 0000 4E800020 		blr
 1021              		.cfi_endproc
 1022              	.LFE1434:
 1023              		.size	_ZN8GuiFrame12updateEventsEv, .-_ZN8GuiFrame12updateEventsEv
 1024              		.section	".text"
 1025              		.align 2
 1026              		.globl _ZThn176_N14GlobalSettingsD1Ev
 1027              		.type	_ZThn176_N14GlobalSettingsD1Ev, @function
 1028              	_ZThn176_N14GlobalSettingsD1Ev:
 1029              	.LFB1929:
 1030              		.cfi_startproc
 1031 0000 3863FF50 		addi 3,3,-176
 1032 0004 48000004 		b .LTHUNK0
 1033              		.cfi_endproc
 1034              	.LFE1929:
 1035              		.size	_ZThn176_N14GlobalSettingsD1Ev, .-_ZThn176_N14GlobalSettingsD1Ev
 1036              		.align 2
 1037              		.globl _ZN14GlobalSettingsD2Ev
 1038              		.type	_ZN14GlobalSettingsD2Ev, @function
 1039              	_ZN14GlobalSettingsD2Ev:
 1040              	.LFB1567:
 1041              		.file 4 "d:/Projects/SaveGameManager/savegame-manager-gx/trunk/source/Settings/menus/GlobalSetting
 1042              		.loc 4 38 0
 1043              		.cfi_startproc
 1044              		.cfi_personality 0,__gxx_personality_v0
 1045              		.cfi_lsda 0,.LLSDA1567
 1046              	.LVL83:
 1047 0008 7C0802A6 		mflr 0
 1048 000c 9421FFF0 		stwu 1,-16(1)
 1049              	.LCFI18:
 1050              		.cfi_def_cfa_offset 16
 1051              		.cfi_register 65, 0
 1052              	.LBB1409:
 1053 0010 3D200000 		lis 9,_ZTV14GlobalSettings+8@ha
 1054 0014 39290008 		la 9,_ZTV14GlobalSettings+8@l(9)
 1055              	.LBE1409:
 1056 0018 93E1000C 		stw 31,12(1)
 1057 001c 90010014 		stw 0,20(1)
 1058              	.LBB1410:
 1059 0020 38090104 		addi 0,9,260
 1060              		.cfi_offset 65, 4
 1061              		.cfi_offset 31, -4
 1062              	.LBE1410:
 1063 0024 93C10008 		stw 30,8(1)
 1064              		.loc 4 38 0
 1065 0028 7C7F1B78 		mr 31,3
 1066              	.LBB1411:
 1067 002c 91230000 		stw 9,0(3)
 1068 0030 900300B0 		stw 0,176(3)
 1069              		.loc 4 40 0
 1070 0034 80630170 		lwz 3,368(3)
 1071              	.LVL84:
 1072              	.LEHB0:
 1073              		.cfi_offset 30, -8
 1074 0038 48000001 		bl _ZN9Resources6RemoveEP12GuiImageData
 1075              		.loc 4 41 0
 1076 003c 807F0174 		lwz 3,372(31)
 1077 0040 48000001 		bl _ZN9Resources6RemoveEP12GuiImageData
 1078              		.loc 4 42 0
 1079 0044 807F0178 		lwz 3,376(31)
 1080 0048 48000001 		bl _ZN9Resources6RemoveEP12GuiImageData
 1081              		.loc 4 43 0
 1082 004c 807F017C 		lwz 3,380(31)
 1083 0050 48000001 		bl _ZN9Resources6RemoveEP12GuiImageData
 1084              	.LEHE0:
 1085              		.loc 4 38 0
 1086 0054 7FE3FB78 		mr 3,31
 1087              	.LEHB1:
 1088 0058 48000001 		bl _ZN17FlyingButtonsMenuD2Ev
 1089              	.LEHE1:
 1090              	.LBE1411:
 1091              		.loc 4 44 0
 1092 005c 80010014 		lwz 0,20(1)
 1093 0060 83C10008 		lwz 30,8(1)
 1094 0064 7C0803A6 		mtlr 0
 1095 0068 83E1000C 		lwz 31,12(1)
 1096              	.LVL85:
 1097 006c 38210010 		addi 1,1,16
 1098              		.cfi_remember_state
 1099              	.LCFI19:
 1100              		.cfi_def_cfa_offset 0
 1101              		.cfi_restore 31
 1102              		.cfi_restore 30
 1103 0070 4E800020 		blr
 1104              	.LVL86:
 1105              	.L66:
 1106              	.LCFI20:
 1107              		.cfi_restore_state
 1108 0074 7C7E1B78 		mr 30,3
 1109              	.LBB1412:
 1110              		.loc 4 38 0
 1111 0078 7FE3FB78 		mr 3,31
 1112 007c 48000001 		bl _ZN17FlyingButtonsMenuD2Ev
 1113 0080 7FC3F378 		mr 3,30
 1114              	.LEHB2:
 1115 0084 48000001 		bl _Unwind_Resume
 1116              	.LEHE2:
 1117              	.LBE1412:
 1118              		.cfi_endproc
 1119              	.LFE1567:
 1120              		.globl __gxx_personality_v0
 1121              		.section	.gcc_except_table,"a",@progbits
 1122              	.LLSDA1567:
 1123 0000 FF       		.byte	0xff
 1124 0001 FF       		.byte	0xff
 1125 0002 01       		.byte	0x1
 1126 0003 0C       		.uleb128 .LLSDACSE1567-.LLSDACSB1567
 1127              	.LLSDACSB1567:
 1128 0004 30       		.uleb128 .LEHB0-.LFB1567
 1129 0005 1C       		.uleb128 .LEHE0-.LEHB0
 1130 0006 6C       		.uleb128 .L66-.LFB1567
 1131 0007 00       		.uleb128 0
 1132 0008 50       		.uleb128 .LEHB1-.LFB1567
 1133 0009 04       		.uleb128 .LEHE1-.LEHB1
 1134 000a 00       		.uleb128 0
 1135 000b 00       		.uleb128 0
 1136 000c 7C       		.uleb128 .LEHB2-.LFB1567
 1137 000d 04       		.uleb128 .LEHE2-.LEHB2
 1138 000e 00       		.uleb128 0
 1139 000f 00       		.uleb128 0
 1140              	.LLSDACSE1567:
 1141              		.section	".text"
 1142              		.size	_ZN14GlobalSettingsD2Ev, .-_ZN14GlobalSettingsD2Ev
 1143              		.align 2
 1144              		.globl _ZThn176_N14GlobalSettingsD0Ev
 1145              		.type	_ZThn176_N14GlobalSettingsD0Ev, @function
 1146              	_ZThn176_N14GlobalSettingsD0Ev:
 1147              	.LFB1931:
 1148              		.cfi_startproc
 1149 0088 3863FF50 		addi 3,3,-176
 1150 008c 48000004 		b .LTHUNK1
 1151              		.cfi_endproc
 1152              	.LFE1931:
 1153              		.size	_ZThn176_N14GlobalSettingsD0Ev, .-_ZThn176_N14GlobalSettingsD0Ev
 1154              		.align 2
 1155              		.globl _ZN14GlobalSettingsD0Ev
 1156              		.type	_ZN14GlobalSettingsD0Ev, @function
 1157              	_ZN14GlobalSettingsD0Ev:
 1158              	.LFB1569:
 1159              		.loc 4 38 0
 1160              		.cfi_startproc
 1161              		.cfi_personality 0,__gxx_personality_v0
 1162              		.cfi_lsda 0,.LLSDA1569
 1163              	.LVL87:
 1164 0090 7C0802A6 		mflr 0
 1165 0094 9421FFF0 		stwu 1,-16(1)
 1166              	.LCFI21:
 1167              		.cfi_def_cfa_offset 16
 1168              		.cfi_register 65, 0
 1169              	.LBB1416:
 1170              	.LBB1417:
 1171              	.LBB1418:
 1172 0098 3D200000 		lis 9,_ZTV14GlobalSettings+8@ha
 1173 009c 39290008 		la 9,_ZTV14GlobalSettings+8@l(9)
 1174              	.LBE1418:
 1175              	.LBE1417:
 1176              	.LBE1416:
 1177 00a0 93E1000C 		stw 31,12(1)
 1178 00a4 90010014 		stw 0,20(1)
 1179              	.LBB1425:
 1180              	.LBB1422:
 1181              	.LBB1419:
 1182 00a8 38090104 		addi 0,9,260
 1183              		.cfi_offset 65, 4
 1184              		.cfi_offset 31, -4
 1185              	.LBE1419:
 1186              	.LBE1422:
 1187              	.LBE1425:
 1188 00ac 93C10008 		stw 30,8(1)
 1189              		.loc 4 38 0
 1190 00b0 7C7F1B78 		mr 31,3
 1191              	.LVL88:
 1192              	.LBB1426:
 1193              	.LBB1423:
 1194              	.LBB1420:
 1195 00b4 91230000 		stw 9,0(3)
 1196 00b8 900300B0 		stw 0,176(3)
 1197              		.loc 4 40 0
 1198 00bc 80630170 		lwz 3,368(3)
 1199              	.LVL89:
 1200              	.LEHB3:
 1201              		.cfi_offset 30, -8
 1202 00c0 48000001 		bl _ZN9Resources6RemoveEP12GuiImageData
 1203              		.loc 4 41 0
 1204 00c4 807F0174 		lwz 3,372(31)
 1205 00c8 48000001 		bl _ZN9Resources6RemoveEP12GuiImageData
 1206              		.loc 4 42 0
 1207 00cc 807F0178 		lwz 3,376(31)
 1208 00d0 48000001 		bl _ZN9Resources6RemoveEP12GuiImageData
 1209              		.loc 4 43 0
 1210 00d4 807F017C 		lwz 3,380(31)
 1211 00d8 48000001 		bl _ZN9Resources6RemoveEP12GuiImageData
 1212              	.LEHE3:
 1213              		.loc 4 38 0
 1214 00dc 7FE3FB78 		mr 3,31
 1215              	.LEHB4:
 1216 00e0 48000001 		bl _ZN17FlyingButtonsMenuD2Ev
 1217              	.LEHE4:
 1218              	.LBE1420:
 1219              	.LBE1423:
 1220              	.LBE1426:
 1221              		.loc 4 44 0
 1222 00e4 7FE3FB78 		mr 3,31
 1223 00e8 48000001 		bl _ZdlPv
 1224 00ec 80010014 		lwz 0,20(1)
 1225 00f0 83C10008 		lwz 30,8(1)
 1226 00f4 7C0803A6 		mtlr 0
 1227 00f8 83E1000C 		lwz 31,12(1)
 1228              	.LVL90:
 1229 00fc 38210010 		addi 1,1,16
 1230              		.cfi_remember_state
 1231              	.LCFI22:
 1232              		.cfi_def_cfa_offset 0
 1233              		.cfi_restore 31
 1234              		.cfi_restore 30
 1235 0100 4E800020 		blr
 1236              	.LVL91:
 1237              	.L71:
 1238              	.LCFI23:
 1239              		.cfi_restore_state
 1240 0104 7C7E1B78 		mr 30,3
 1241              	.LBB1427:
 1242              	.LBB1424:
 1243              	.LBB1421:
 1244              		.loc 4 38 0
 1245 0108 7FE3FB78 		mr 3,31
 1246 010c 48000001 		bl _ZN17FlyingButtonsMenuD2Ev
 1247 0110 7FC3F378 		mr 3,30
 1248              	.LEHB5:
 1249 0114 48000001 		bl _Unwind_Resume
 1250              	.LEHE5:
 1251              	.LBE1421:
 1252              	.LBE1424:
 1253              	.LBE1427:
 1254              		.cfi_endproc
 1255              	.LFE1569:
 1256              		.section	.gcc_except_table
 1257              	.LLSDA1569:
 1258 0010 FF       		.byte	0xff
 1259 0011 FF       		.byte	0xff
 1260 0012 01       		.byte	0x1
 1261 0013 0D       		.uleb128 .LLSDACSE1569-.LLSDACSB1569
 1262              	.LLSDACSB1569:
 1263 0014 30       		.uleb128 .LEHB3-.LFB1569
 1264 0015 1C       		.uleb128 .LEHE3-.LEHB3
 1265 0016 74       		.uleb128 .L71-.LFB1569
 1266 0017 00       		.uleb128 0
 1267 0018 50       		.uleb128 .LEHB4-.LFB1569
 1268 0019 04       		.uleb128 .LEHE4-.LEHB4
 1269 001a 00       		.uleb128 0
 1270 001b 00       		.uleb128 0
 1271 001c 8401     		.uleb128 .LEHB5-.LFB1569
 1272 001e 04       		.uleb128 .LEHE5-.LEHB5
 1273 001f 00       		.uleb128 0
 1274 0020 00       		.uleb128 0
 1275              	.LLSDACSE1569:
 1276              		.section	".text"
 1277              		.size	_ZN14GlobalSettingsD0Ev, .-_ZN14GlobalSettingsD0Ev
 1278              		.align 2
 1279              		.globl _ZN14GlobalSettings16SetupMainButtonsEv
 1280              		.type	_ZN14GlobalSettings16SetupMainButtonsEv, @function
 1281              	_ZN14GlobalSettings16SetupMainButtonsEv:
 1282              	.LFB1570:
 1283              		.loc 4 47 0
 1284              		.cfi_startproc
 1285              		.cfi_personality 0,__gxx_personality_v0
 1286              		.cfi_lsda 0,.LLSDA1570
 1287              	.LVL92:
 1288 0118 7C0802A6 		mflr 0
 1289 011c 9421FFA8 		stwu 1,-88(1)
 1290              	.LCFI24:
 1291              		.cfi_def_cfa_offset 88
 1292              		.cfi_register 65, 0
 1293 0120 93E10054 		stw 31,84(1)
 1294 0124 7C7F1B78 		mr 31,3
 1295              		.cfi_offset 31, -4
 1296 0128 9001005C 		stw 0,92(1)
 1297 012c 93C10050 		stw 30,80(1)
 1298              	.LBB1679:
 1299              		.loc 4 50 0
 1300 0130 81230000 		lwz 9,0(3)
 1301 0134 3C600000 		lis 3,.LC4@ha
 1302              	.LVL93:
 1303 0138 38630000 		la 3,.LC4@l(3)
 1304              	.LBE1679:
 1305              		.loc 4 47 0
 1306 013c 93A1004C 		stw 29,76(1)
 1307              	.LBB1872:
 1308              		.loc 4 50 0
 1309 0140 83C900F8 		lwz 30,248(9)
 1310              		.cfi_offset 29, -12
 1311              		.cfi_offset 30, -8
 1312              		.cfi_offset 65, 4
 1313              	.LVL94:
 1314              	.LEHB6:
 1315 0144 48000001 		bl gettext
 1316 0148 7C641B78 		mr 4,3
 1317 014c 38A1001B 		addi 5,1,27
 1318 0150 38610040 		addi 3,1,64
 1319 0154 48000001 		bl _ZNSsC1EPKcRKSaIcE
 1320              	.LEHE6:
 1321 0158 7FE3FB78 		mr 3,31
 1322 015c 38800000 		li 4,0
 1323 0160 38A10040 		addi 5,1,64
 1324 0164 80DF0170 		lwz 6,368(31)
 1325 0168 7FC903A6 		mtctr 30
 1326 016c 80FF0174 		lwz 7,372(31)
 1327              	.LEHB7:
 1328 0170 4E800421 		bctrl
 1329              	.LEHE7:
 1330              	.LVL95:
 1331              	.LBB1680:
 1332              	.LBB1681:
 1333              	.LBB1682:
 1334              	.LBB1683:
 1335              	.LBB1684:
 1336              	.LBB1685:
 1337              		.file 5 "d:\\devkitpro\\devkitppc\\bin\\../lib/gcc/powerpc-eabi/4.6.3/../../../../powerpc-eabi/inc
 1338              		.loc 5 288 0
 1339 0174 81210040 		lwz 9,64(1)
 1340              	.LBE1685:
 1341              	.LBE1684:
 1342              	.LBE1683:
 1343              	.LBB1686:
 1344              	.LBB1687:
 1345              		.loc 5 235 0
 1346 0178 3FC00000 		lis 30,_ZNSs4_Rep20_S_empty_rep_storageE@ha
 1347 017c 3BDE0000 		la 30,_ZNSs4_Rep20_S_empty_rep_storageE@l(30)
 1348              	.LBE1687:
 1349              	.LBE1686:
 1350              		.loc 5 534 0
 1351 0180 3869FFF4 		addi 3,9,-12
 1352              	.LVL96:
 1353              	.LBB1696:
 1354              	.LBB1694:
 1355              		.loc 5 235 0
 1356 0184 7F83F000 		cmpw 7,3,30
 1357 0188 409E02F0 		bne- 7,.L173
 1358              	.LVL97:
 1359              	.L80:
 1360              	.LBE1694:
 1361              	.LBE1696:
 1362              	.LBE1682:
 1363              	.LBE1681:
 1364              	.LBE1680:
 1365              		.loc 4 51 0 discriminator 1
 1366 018c 813F0000 		lwz 9,0(31)
 1367 0190 3C600000 		lis 3,.LC5@ha
 1368 0194 38630010 		la 3,.LC5@l(3)
 1369 0198 83A900F8 		lwz 29,248(9)
 1370              	.LVL98:
 1371              	.LEHB8:
 1372 019c 48000001 		bl gettext
 1373 01a0 7C641B78 		mr 4,3
 1374 01a4 38A1001A 		addi 5,1,26
 1375 01a8 3861003C 		addi 3,1,60
 1376 01ac 48000001 		bl _ZNSsC1EPKcRKSaIcE
 1377              	.LEHE8:
 1378 01b0 7FE3FB78 		mr 3,31
 1379 01b4 38800001 		li 4,1
 1380 01b8 38A1003C 		addi 5,1,60
 1381 01bc 80DF0170 		lwz 6,368(31)
 1382 01c0 7FA903A6 		mtctr 29
 1383 01c4 80FF0174 		lwz 7,372(31)
 1384              	.LEHB9:
 1385 01c8 4E800421 		bctrl
 1386              	.LEHE9:
 1387              	.LVL99:
 1388              	.LBB1700:
 1389              	.LBB1701:
 1390              	.LBB1702:
 1391              	.LBB1703:
 1392              	.LBB1704:
 1393              	.LBB1705:
 1394              		.loc 5 288 0
 1395 01cc 8121003C 		lwz 9,60(1)
 1396              	.LBE1705:
 1397              	.LBE1704:
 1398              	.LBE1703:
 1399              		.loc 5 534 0
 1400 01d0 3869FFF4 		addi 3,9,-12
 1401              	.LVL100:
 1402              	.LBB1706:
 1403              	.LBB1707:
 1404              		.loc 5 235 0
 1405 01d4 7F83F000 		cmpw 7,3,30
 1406 01d8 409E03C0 		bne- 7,.L174
 1407              	.LVL101:
 1408              	.L88:
 1409              	.LBE1707:
 1410              	.LBE1706:
 1411              	.LBE1702:
 1412              	.LBE1701:
 1413              	.LBE1700:
 1414              		.loc 4 52 0 discriminator 1
 1415 01dc 813F0000 		lwz 9,0(31)
 1416 01e0 3C600000 		lis 3,.LC6@ha
 1417 01e4 38630020 		la 3,.LC6@l(3)
 1418 01e8 83A900F8 		lwz 29,248(9)
 1419              	.LVL102:
 1420              	.LEHB10:
 1421 01ec 48000001 		bl gettext
 1422 01f0 7C641B78 		mr 4,3
 1423 01f4 38A10019 		addi 5,1,25
 1424 01f8 38610038 		addi 3,1,56
 1425 01fc 48000001 		bl _ZNSsC1EPKcRKSaIcE
 1426              	.LEHE10:
 1427 0200 7FE3FB78 		mr 3,31
 1428 0204 38800002 		li 4,2
 1429 0208 38A10038 		addi 5,1,56
 1430 020c 80DF0170 		lwz 6,368(31)
 1431 0210 7FA903A6 		mtctr 29
 1432 0214 80FF0174 		lwz 7,372(31)
 1433              	.LEHB11:
 1434 0218 4E800421 		bctrl
 1435              	.LEHE11:
 1436              	.LVL103:
 1437              	.LBB1718:
 1438              	.LBB1719:
 1439              	.LBB1720:
 1440              	.LBB1721:
 1441              	.LBB1722:
 1442              	.LBB1723:
 1443              		.loc 5 288 0
 1444 021c 81210038 		lwz 9,56(1)
 1445              	.LBE1723:
 1446              	.LBE1722:
 1447              	.LBE1721:
 1448              		.loc 5 534 0
 1449 0220 3869FFF4 		addi 3,9,-12
 1450              	.LVL104:
 1451              	.LBB1724:
 1452              	.LBB1725:
 1453              		.loc 5 235 0
 1454 0224 7F83F000 		cmpw 7,3,30
 1455 0228 409E0350 		bne- 7,.L175
 1456              	.LVL105:
 1457              	.L96:
 1458              	.LBE1725:
 1459              	.LBE1724:
 1460              	.LBE1720:
 1461              	.LBE1719:
 1462              	.LBE1718:
 1463              		.loc 4 53 0 discriminator 1
 1464 022c 813F0000 		lwz 9,0(31)
 1465 0230 3C600000 		lis 3,.LC7@ha
 1466 0234 38630030 		la 3,.LC7@l(3)
 1467 0238 83A900F8 		lwz 29,248(9)
 1468              	.LVL106:
 1469              	.LEHB12:
 1470 023c 48000001 		bl gettext
 1471 0240 7C641B78 		mr 4,3
 1472 0244 38A10018 		addi 5,1,24
 1473 0248 38610034 		addi 3,1,52
 1474 024c 48000001 		bl _ZNSsC1EPKcRKSaIcE
 1475              	.LEHE12:
 1476 0250 7FE3FB78 		mr 3,31
 1477 0254 38800003 		li 4,3
 1478 0258 38A10034 		addi 5,1,52
 1479 025c 80DF0170 		lwz 6,368(31)
 1480 0260 7FA903A6 		mtctr 29
 1481 0264 80FF0174 		lwz 7,372(31)
 1482              	.LEHB13:
 1483 0268 4E800421 		bctrl
 1484              	.LEHE13:
 1485              	.LVL107:
 1486              	.LBB1736:
 1487              	.LBB1737:
 1488              	.LBB1738:
 1489              	.LBB1739:
 1490              	.LBB1740:
 1491              	.LBB1741:
 1492              		.loc 5 288 0
 1493 026c 81210034 		lwz 9,52(1)
 1494              	.LBE1741:
 1495              	.LBE1740:
 1496              	.LBE1739:
 1497              		.loc 5 534 0
 1498 0270 3869FFF4 		addi 3,9,-12
 1499              	.LVL108:
 1500              	.LBB1742:
 1501              	.LBB1743:
 1502              		.loc 5 235 0
 1503 0274 7F83F000 		cmpw 7,3,30
 1504 0278 409E02E0 		bne- 7,.L176
 1505              	.LVL109:
 1506              	.L104:
 1507              	.LBE1743:
 1508              	.LBE1742:
 1509              	.LBE1738:
 1510              	.LBE1737:
 1511              	.LBE1736:
 1512              		.loc 4 54 0 discriminator 1
 1513 027c 813F0000 		lwz 9,0(31)
 1514 0280 3C600000 		lis 3,.LC8@ha
 1515 0284 38630040 		la 3,.LC8@l(3)
 1516 0288 83A900F8 		lwz 29,248(9)
 1517              	.LVL110:
 1518              	.LEHB14:
 1519 028c 48000001 		bl gettext
 1520 0290 7C641B78 		mr 4,3
 1521 0294 38A10017 		addi 5,1,23
 1522 0298 38610030 		addi 3,1,48
 1523 029c 48000001 		bl _ZNSsC1EPKcRKSaIcE
 1524              	.LEHE14:
 1525 02a0 7FE3FB78 		mr 3,31
 1526 02a4 38800004 		li 4,4
 1527 02a8 38A10030 		addi 5,1,48
 1528 02ac 80DF0170 		lwz 6,368(31)
 1529 02b0 7FA903A6 		mtctr 29
 1530 02b4 80FF0174 		lwz 7,372(31)
 1531              	.LEHB15:
 1532 02b8 4E800421 		bctrl
 1533              	.LEHE15:
 1534              	.LVL111:
 1535              	.LBB1754:
 1536              	.LBB1755:
 1537              	.LBB1756:
 1538              	.LBB1757:
 1539              	.LBB1758:
 1540              	.LBB1759:
 1541              		.loc 5 288 0
 1542 02bc 81210030 		lwz 9,48(1)
 1543              	.LBE1759:
 1544              	.LBE1758:
 1545              	.LBE1757:
 1546              		.loc 5 534 0
 1547 02c0 3869FFF4 		addi 3,9,-12
 1548              	.LVL112:
 1549              	.LBB1760:
 1550              	.LBB1761:
 1551              		.loc 5 235 0
 1552 02c4 7F83F000 		cmpw 7,3,30
 1553 02c8 409E0270 		bne- 7,.L177
 1554              	.LVL113:
 1555              	.L112:
 1556              	.LBE1761:
 1557              	.LBE1760:
 1558              	.LBE1756:
 1559              	.LBE1755:
 1560              	.LBE1754:
 1561              		.loc 4 55 0 discriminator 1
 1562 02cc 813F0000 		lwz 9,0(31)
 1563 02d0 3C600000 		lis 3,.LC9@ha
 1564 02d4 38630054 		la 3,.LC9@l(3)
 1565 02d8 83A900F8 		lwz 29,248(9)
 1566              	.LVL114:
 1567              	.LEHB16:
 1568 02dc 48000001 		bl gettext
 1569 02e0 7C641B78 		mr 4,3
 1570 02e4 38A10016 		addi 5,1,22
 1571 02e8 3861002C 		addi 3,1,44
 1572 02ec 48000001 		bl _ZNSsC1EPKcRKSaIcE
 1573              	.LEHE16:
 1574 02f0 7FE3FB78 		mr 3,31
 1575 02f4 38800005 		li 4,5
 1576 02f8 38A1002C 		addi 5,1,44
 1577 02fc 80DF0170 		lwz 6,368(31)
 1578 0300 7FA903A6 		mtctr 29
 1579 0304 80FF0174 		lwz 7,372(31)
 1580              	.LEHB17:
 1581 0308 4E800421 		bctrl
 1582              	.LEHE17:
 1583              	.LVL115:
 1584              	.LBB1772:
 1585              	.LBB1773:
 1586              	.LBB1774:
 1587              	.LBB1775:
 1588              	.LBB1776:
 1589              	.LBB1777:
 1590              		.loc 5 288 0
 1591 030c 8121002C 		lwz 9,44(1)
 1592              	.LBE1777:
 1593              	.LBE1776:
 1594              	.LBE1775:
 1595              		.loc 5 534 0
 1596 0310 3869FFF4 		addi 3,9,-12
 1597              	.LVL116:
 1598              	.LBB1778:
 1599              	.LBB1779:
 1600              		.loc 5 235 0
 1601 0314 7F83F000 		cmpw 7,3,30
 1602 0318 409E0200 		bne- 7,.L178
 1603              	.LVL117:
 1604              	.L120:
 1605              	.LBE1779:
 1606              	.LBE1778:
 1607              	.LBE1774:
 1608              	.LBE1773:
 1609              	.LBE1772:
 1610              		.loc 4 56 0 discriminator 1
 1611 031c 813F0000 		lwz 9,0(31)
 1612 0320 3C600000 		lis 3,.LC10@ha
 1613 0324 38630068 		la 3,.LC10@l(3)
 1614 0328 83A900F8 		lwz 29,248(9)
 1615              	.LVL118:
 1616              	.LEHB18:
 1617 032c 48000001 		bl gettext
 1618 0330 7C641B78 		mr 4,3
 1619 0334 38A10015 		addi 5,1,21
 1620 0338 38610028 		addi 3,1,40
 1621 033c 48000001 		bl _ZNSsC1EPKcRKSaIcE
 1622              	.LEHE18:
 1623 0340 7FE3FB78 		mr 3,31
 1624 0344 38800006 		li 4,6
 1625 0348 38A10028 		addi 5,1,40
 1626 034c 80DF0170 		lwz 6,368(31)
 1627 0350 7FA903A6 		mtctr 29
 1628 0354 80FF0174 		lwz 7,372(31)
 1629              	.LEHB19:
 1630 0358 4E800421 		bctrl
 1631              	.LEHE19:
 1632              	.LVL119:
 1633              	.LBB1790:
 1634              	.LBB1791:
 1635              	.LBB1792:
 1636              	.LBB1793:
 1637              	.LBB1794:
 1638              	.LBB1795:
 1639              		.loc 5 288 0
 1640 035c 81210028 		lwz 9,40(1)
 1641              	.LBE1795:
 1642              	.LBE1794:
 1643              	.LBE1793:
 1644              		.loc 5 534 0
 1645 0360 3869FFF4 		addi 3,9,-12
 1646              	.LVL120:
 1647              	.LBB1796:
 1648              	.LBB1797:
 1649              		.loc 5 235 0
 1650 0364 7F83F000 		cmpw 7,3,30
 1651 0368 409E0190 		bne- 7,.L179
 1652              	.LVL121:
 1653              	.L128:
 1654              	.LBE1797:
 1655              	.LBE1796:
 1656              	.LBE1792:
 1657              	.LBE1791:
 1658              	.LBE1790:
 1659              		.loc 4 57 0 discriminator 1
 1660 036c 813F0000 		lwz 9,0(31)
 1661 0370 3C600000 		lis 3,.LC11@ha
 1662 0374 38630078 		la 3,.LC11@l(3)
 1663 0378 83A900F8 		lwz 29,248(9)
 1664              	.LVL122:
 1665              	.LEHB20:
 1666 037c 48000001 		bl gettext
 1667 0380 7C641B78 		mr 4,3
 1668 0384 38A10014 		addi 5,1,20
 1669 0388 38610024 		addi 3,1,36
 1670 038c 48000001 		bl _ZNSsC1EPKcRKSaIcE
 1671              	.LEHE20:
 1672 0390 7FE3FB78 		mr 3,31
 1673 0394 38800007 		li 4,7
 1674 0398 38A10024 		addi 5,1,36
 1675 039c 80DF0170 		lwz 6,368(31)
 1676 03a0 7FA903A6 		mtctr 29
 1677 03a4 80FF0174 		lwz 7,372(31)
 1678              	.LEHB21:
 1679 03a8 4E800421 		bctrl
 1680              	.LEHE21:
 1681              	.LVL123:
 1682              	.LBB1808:
 1683              	.LBB1809:
 1684              	.LBB1810:
 1685              	.LBB1811:
 1686              	.LBB1812:
 1687              	.LBB1813:
 1688              		.loc 5 288 0
 1689 03ac 81210024 		lwz 9,36(1)
 1690              	.LBE1813:
 1691              	.LBE1812:
 1692              	.LBE1811:
 1693              		.loc 5 534 0
 1694 03b0 3869FFF4 		addi 3,9,-12
 1695              	.LVL124:
 1696              	.LBB1814:
 1697              	.LBB1815:
 1698              		.loc 5 235 0
 1699 03b4 7F83F000 		cmpw 7,3,30
 1700 03b8 409E0120 		bne- 7,.L180
 1701              	.LVL125:
 1702              	.L136:
 1703              	.LBE1815:
 1704              	.LBE1814:
 1705              	.LBE1810:
 1706              	.LBE1809:
 1707              	.LBE1808:
 1708              		.loc 4 58 0 discriminator 1
 1709 03bc 813F0000 		lwz 9,0(31)
 1710 03c0 3C600000 		lis 3,.LC12@ha
 1711 03c4 38630080 		la 3,.LC12@l(3)
 1712 03c8 83A900F8 		lwz 29,248(9)
 1713              	.LVL126:
 1714              	.LEHB22:
 1715 03cc 48000001 		bl gettext
 1716 03d0 7C641B78 		mr 4,3
 1717 03d4 38A10013 		addi 5,1,19
 1718 03d8 38610020 		addi 3,1,32
 1719 03dc 48000001 		bl _ZNSsC1EPKcRKSaIcE
 1720              	.LEHE22:
 1721 03e0 7FE3FB78 		mr 3,31
 1722 03e4 38800008 		li 4,8
 1723 03e8 38A10020 		addi 5,1,32
 1724 03ec 80DF0170 		lwz 6,368(31)
 1725 03f0 7FA903A6 		mtctr 29
 1726 03f4 80FF0174 		lwz 7,372(31)
 1727              	.LEHB23:
 1728 03f8 4E800421 		bctrl
 1729              	.LEHE23:
 1730              	.LVL127:
 1731              	.LBB1826:
 1732              	.LBB1827:
 1733              	.LBB1828:
 1734              	.LBB1829:
 1735              	.LBB1830:
 1736              	.LBB1831:
 1737              		.loc 5 288 0
 1738 03fc 81210020 		lwz 9,32(1)
 1739              	.LBE1831:
 1740              	.LBE1830:
 1741              	.LBE1829:
 1742              		.loc 5 534 0
 1743 0400 3869FFF4 		addi 3,9,-12
 1744              	.LVL128:
 1745              	.LBB1832:
 1746              	.LBB1833:
 1747              		.loc 5 235 0
 1748 0404 7F83F000 		cmpw 7,3,30
 1749 0408 409E00B0 		bne- 7,.L181
 1750              	.LVL129:
 1751              	.L144:
 1752              	.LBE1833:
 1753              	.LBE1832:
 1754              	.LBE1828:
 1755              	.LBE1827:
 1756              	.LBE1826:
 1757              		.loc 4 59 0 discriminator 1
 1758 040c 813F0000 		lwz 9,0(31)
 1759 0410 3C600000 		lis 3,.LC13@ha
 1760 0414 38630094 		la 3,.LC13@l(3)
 1761 0418 83A900F8 		lwz 29,248(9)
 1762              	.LVL130:
 1763              	.LEHB24:
 1764 041c 48000001 		bl gettext
 1765 0420 7C641B78 		mr 4,3
 1766 0424 38A10012 		addi 5,1,18
 1767 0428 3861001C 		addi 3,1,28
 1768 042c 48000001 		bl _ZNSsC1EPKcRKSaIcE
 1769              	.LEHE24:
 1770 0430 7FE3FB78 		mr 3,31
 1771 0434 38800009 		li 4,9
 1772 0438 38A1001C 		addi 5,1,28
 1773 043c 80DF0178 		lwz 6,376(31)
 1774 0440 7FA903A6 		mtctr 29
 1775 0444 80FF017C 		lwz 7,380(31)
 1776              	.LEHB25:
 1777 0448 4E800421 		bctrl
 1778              	.LEHE25:
 1779              	.LVL131:
 1780              	.LBB1844:
 1781              	.LBB1845:
 1782              	.LBB1846:
 1783              	.LBB1847:
 1784              	.LBB1848:
 1785              	.LBB1849:
 1786              		.loc 5 288 0
 1787 044c 8121001C 		lwz 9,28(1)
 1788              	.LBE1849:
 1789              	.LBE1848:
 1790              	.LBE1847:
 1791              		.loc 5 534 0
 1792 0450 3869FFF4 		addi 3,9,-12
 1793              	.LVL132:
 1794              	.LBB1850:
 1795              	.LBB1851:
 1796              		.loc 5 235 0
 1797 0454 7F83F000 		cmpw 7,3,30
 1798 0458 409E0040 		bne- 7,.L182
 1799              	.LVL133:
 1800              	.L72:
 1801              	.LBE1851:
 1802              	.LBE1850:
 1803              	.LBE1846:
 1804              	.LBE1845:
 1805              	.LBE1844:
 1806              	.LBE1872:
 1807              		.loc 4 60 0
 1808 045c 8001005C 		lwz 0,92(1)
 1809 0460 83A1004C 		lwz 29,76(1)
 1810 0464 7C0803A6 		mtlr 0
 1811 0468 83C10050 		lwz 30,80(1)
 1812 046c 83E10054 		lwz 31,84(1)
 1813              	.LVL134:
 1814 0470 38210058 		addi 1,1,88
 1815              		.cfi_remember_state
 1816              	.LCFI25:
 1817              		.cfi_def_cfa_offset 0
 1818              		.cfi_restore 31
 1819              		.cfi_restore 30
 1820              		.cfi_restore 29
 1821 0474 4E800020 		blr
 1822              	.LVL135:
 1823              	.L173:
 1824              	.LCFI26:
 1825              		.cfi_restore_state
 1826              	.LBB1873:
 1827              	.LBB1862:
 1828              	.LBB1699:
 1829              	.LBB1698:
 1830              	.LBB1697:
 1831              	.LBB1695:
 1832              	.LBB1688:
 1833              	.LBB1689:
 1834              	.LBB1690:
 1835              		.file 6 "d:\\devkitpro\\devkitppc\\bin\\../lib/gcc/powerpc-eabi/4.6.3/../../../../powerpc-eabi/inc
 1836              		.loc 6 66 0
 1837 0478 8169FFFC 		lwz 11,-4(9)
 1838              	.LVL136:
 1839              	.LBE1690:
 1840              	.LBE1689:
 1841              	.LBE1688:
 1842              		.loc 5 240 0
 1843 047c 2F8B0000 		cmpwi 7,11,0
 1844              	.LBB1693:
 1845              	.LBB1692:
 1846              	.LBB1691:
 1847              		.loc 6 67 0
 1848 0480 396BFFFF 		addi 11,11,-1
 1849 0484 9169FFFC 		stw 11,-4(9)
 1850              	.LBE1691:
 1851              	.LBE1692:
 1852              	.LBE1693:
 1853              		.loc 5 240 0
 1854 0488 419DFD04 		bgt+ 7,.L80
 1855              		.loc 5 244 0
 1856 048c 38810011 		addi 4,1,17
 1857 0490 48000001 		bl _ZNSs4_Rep10_M_destroyERKSaIcE
 1858              	.LVL137:
 1859 0494 4BFFFCF8 		b .L80
 1860              	.LVL138:
 1861              	.L182:
 1862              	.LBE1695:
 1863              	.LBE1697:
 1864              	.LBE1698:
 1865              	.LBE1699:
 1866              	.LBE1862:
 1867              	.LBB1863:
 1868              	.LBB1861:
 1869              	.LBB1860:
 1870              	.LBB1859:
 1871              	.LBB1858:
 1872              	.LBB1852:
 1873              	.LBB1853:
 1874              	.LBB1854:
 1875              		.loc 6 66 0
 1876 0498 8169FFFC 		lwz 11,-4(9)
 1877              	.LVL139:
 1878              	.LBE1854:
 1879              	.LBE1853:
 1880              	.LBE1852:
 1881              		.loc 5 240 0
 1882 049c 2F8B0000 		cmpwi 7,11,0
 1883              	.LBB1857:
 1884              	.LBB1856:
 1885              	.LBB1855:
 1886              		.loc 6 67 0
 1887 04a0 396BFFFF 		addi 11,11,-1
 1888 04a4 9169FFFC 		stw 11,-4(9)
 1889              	.LBE1855:
 1890              	.LBE1856:
 1891              	.LBE1857:
 1892              		.loc 5 240 0
 1893 04a8 419DFFB4 		bgt+ 7,.L72
 1894              		.loc 5 244 0
 1895 04ac 38810008 		addi 4,1,8
 1896 04b0 48000001 		bl _ZNSs4_Rep10_M_destroyERKSaIcE
 1897              	.LVL140:
 1898 04b4 4BFFFFA8 		b .L72
 1899              	.LVL141:
 1900              	.L181:
 1901              	.LBE1858:
 1902              	.LBE1859:
 1903              	.LBE1860:
 1904              	.LBE1861:
 1905              	.LBE1863:
 1906              	.LBB1864:
 1907              	.LBB1843:
 1908              	.LBB1842:
 1909              	.LBB1841:
 1910              	.LBB1840:
 1911              	.LBB1834:
 1912              	.LBB1835:
 1913              	.LBB1836:
 1914              		.loc 6 66 0
 1915 04b8 8169FFFC 		lwz 11,-4(9)
 1916              	.LVL142:
 1917              	.LBE1836:
 1918              	.LBE1835:
 1919              	.LBE1834:
 1920              		.loc 5 240 0
 1921 04bc 2F8B0000 		cmpwi 7,11,0
 1922              	.LBB1839:
 1923              	.LBB1838:
 1924              	.LBB1837:
 1925              		.loc 6 67 0
 1926 04c0 396BFFFF 		addi 11,11,-1
 1927 04c4 9169FFFC 		stw 11,-4(9)
 1928              	.LBE1837:
 1929              	.LBE1838:
 1930              	.LBE1839:
 1931              		.loc 5 240 0
 1932 04c8 419DFF44 		bgt+ 7,.L144
 1933              		.loc 5 244 0
 1934 04cc 38810009 		addi 4,1,9
 1935 04d0 48000001 		bl _ZNSs4_Rep10_M_destroyERKSaIcE
 1936              	.LVL143:
 1937 04d4 4BFFFF38 		b .L144
 1938              	.LVL144:
 1939              	.L180:
 1940              	.LBE1840:
 1941              	.LBE1841:
 1942              	.LBE1842:
 1943              	.LBE1843:
 1944              	.LBE1864:
 1945              	.LBB1865:
 1946              	.LBB1825:
 1947              	.LBB1824:
 1948              	.LBB1823:
 1949              	.LBB1822:
 1950              	.LBB1816:
 1951              	.LBB1817:
 1952              	.LBB1818:
 1953              		.loc 6 66 0
 1954 04d8 8169FFFC 		lwz 11,-4(9)
 1955              	.LVL145:
 1956              	.LBE1818:
 1957              	.LBE1817:
 1958              	.LBE1816:
 1959              		.loc 5 240 0
 1960 04dc 2F8B0000 		cmpwi 7,11,0
 1961              	.LBB1821:
 1962              	.LBB1820:
 1963              	.LBB1819:
 1964              		.loc 6 67 0
 1965 04e0 396BFFFF 		addi 11,11,-1
 1966 04e4 9169FFFC 		stw 11,-4(9)
 1967              	.LBE1819:
 1968              	.LBE1820:
 1969              	.LBE1821:
 1970              		.loc 5 240 0
 1971 04e8 419DFED4 		bgt+ 7,.L136
 1972              		.loc 5 244 0
 1973 04ec 3881000A 		addi 4,1,10
 1974 04f0 48000001 		bl _ZNSs4_Rep10_M_destroyERKSaIcE
 1975              	.LVL146:
 1976 04f4 4BFFFEC8 		b .L136
 1977              	.LVL147:
 1978              	.L179:
 1979              	.LBE1822:
 1980              	.LBE1823:
 1981              	.LBE1824:
 1982              	.LBE1825:
 1983              	.LBE1865:
 1984              	.LBB1866:
 1985              	.LBB1807:
 1986              	.LBB1806:
 1987              	.LBB1805:
 1988              	.LBB1804:
 1989              	.LBB1798:
 1990              	.LBB1799:
 1991              	.LBB1800:
 1992              		.loc 6 66 0
 1993 04f8 8169FFFC 		lwz 11,-4(9)
 1994              	.LVL148:
 1995              	.LBE1800:
 1996              	.LBE1799:
 1997              	.LBE1798:
 1998              		.loc 5 240 0
 1999 04fc 2F8B0000 		cmpwi 7,11,0
 2000              	.LBB1803:
 2001              	.LBB1802:
 2002              	.LBB1801:
 2003              		.loc 6 67 0
 2004 0500 396BFFFF 		addi 11,11,-1
 2005 0504 9169FFFC 		stw 11,-4(9)
 2006              	.LBE1801:
 2007              	.LBE1802:
 2008              	.LBE1803:
 2009              		.loc 5 240 0
 2010 0508 419DFE64 		bgt+ 7,.L128
 2011              		.loc 5 244 0
 2012 050c 3881000B 		addi 4,1,11
 2013 0510 48000001 		bl _ZNSs4_Rep10_M_destroyERKSaIcE
 2014              	.LVL149:
 2015 0514 4BFFFE58 		b .L128
 2016              	.LVL150:
 2017              	.L178:
 2018              	.LBE1804:
 2019              	.LBE1805:
 2020              	.LBE1806:
 2021              	.LBE1807:
 2022              	.LBE1866:
 2023              	.LBB1867:
 2024              	.LBB1789:
 2025              	.LBB1788:
 2026              	.LBB1787:
 2027              	.LBB1786:
 2028              	.LBB1780:
 2029              	.LBB1781:
 2030              	.LBB1782:
 2031              		.loc 6 66 0
 2032 0518 8169FFFC 		lwz 11,-4(9)
 2033              	.LVL151:
 2034              	.LBE1782:
 2035              	.LBE1781:
 2036              	.LBE1780:
 2037              		.loc 5 240 0
 2038 051c 2F8B0000 		cmpwi 7,11,0
 2039              	.LBB1785:
 2040              	.LBB1784:
 2041              	.LBB1783:
 2042              		.loc 6 67 0
 2043 0520 396BFFFF 		addi 11,11,-1
 2044 0524 9169FFFC 		stw 11,-4(9)
 2045              	.LBE1783:
 2046              	.LBE1784:
 2047              	.LBE1785:
 2048              		.loc 5 240 0
 2049 0528 419DFDF4 		bgt+ 7,.L120
 2050              		.loc 5 244 0
 2051 052c 3881000C 		addi 4,1,12
 2052 0530 48000001 		bl _ZNSs4_Rep10_M_destroyERKSaIcE
 2053              	.LVL152:
 2054 0534 4BFFFDE8 		b .L120
 2055              	.LVL153:
 2056              	.L177:
 2057              	.LBE1786:
 2058              	.LBE1787:
 2059              	.LBE1788:
 2060              	.LBE1789:
 2061              	.LBE1867:
 2062              	.LBB1868:
 2063              	.LBB1771:
 2064              	.LBB1770:
 2065              	.LBB1769:
 2066              	.LBB1768:
 2067              	.LBB1762:
 2068              	.LBB1763:
 2069              	.LBB1764:
 2070              		.loc 6 66 0
 2071 0538 8169FFFC 		lwz 11,-4(9)
 2072              	.LVL154:
 2073              	.LBE1764:
 2074              	.LBE1763:
 2075              	.LBE1762:
 2076              		.loc 5 240 0
 2077 053c 2F8B0000 		cmpwi 7,11,0
 2078              	.LBB1767:
 2079              	.LBB1766:
 2080              	.LBB1765:
 2081              		.loc 6 67 0
 2082 0540 396BFFFF 		addi 11,11,-1
 2083 0544 9169FFFC 		stw 11,-4(9)
 2084              	.LBE1765:
 2085              	.LBE1766:
 2086              	.LBE1767:
 2087              		.loc 5 240 0
 2088 0548 419DFD84 		bgt+ 7,.L112
 2089              		.loc 5 244 0
 2090 054c 3881000D 		addi 4,1,13
 2091 0550 48000001 		bl _ZNSs4_Rep10_M_destroyERKSaIcE
 2092              	.LVL155:
 2093 0554 4BFFFD78 		b .L112
 2094              	.LVL156:
 2095              	.L176:
 2096              	.LBE1768:
 2097              	.LBE1769:
 2098              	.LBE1770:
 2099              	.LBE1771:
 2100              	.LBE1868:
 2101              	.LBB1869:
 2102              	.LBB1753:
 2103              	.LBB1752:
 2104              	.LBB1751:
 2105              	.LBB1750:
 2106              	.LBB1744:
 2107              	.LBB1745:
 2108              	.LBB1746:
 2109              		.loc 6 66 0
 2110 0558 8169FFFC 		lwz 11,-4(9)
 2111              	.LVL157:
 2112              	.LBE1746:
 2113              	.LBE1745:
 2114              	.LBE1744:
 2115              		.loc 5 240 0
 2116 055c 2F8B0000 		cmpwi 7,11,0
 2117              	.LBB1749:
 2118              	.LBB1748:
 2119              	.LBB1747:
 2120              		.loc 6 67 0
 2121 0560 396BFFFF 		addi 11,11,-1
 2122 0564 9169FFFC 		stw 11,-4(9)
 2123              	.LBE1747:
 2124              	.LBE1748:
 2125              	.LBE1749:
 2126              		.loc 5 240 0
 2127 0568 419DFD14 		bgt+ 7,.L104
 2128              		.loc 5 244 0
 2129 056c 3881000E 		addi 4,1,14
 2130 0570 48000001 		bl _ZNSs4_Rep10_M_destroyERKSaIcE
 2131              	.LVL158:
 2132 0574 4BFFFD08 		b .L104
 2133              	.LVL159:
 2134              	.L175:
 2135              	.LBE1750:
 2136              	.LBE1751:
 2137              	.LBE1752:
 2138              	.LBE1753:
 2139              	.LBE1869:
 2140              	.LBB1870:
 2141              	.LBB1735:
 2142              	.LBB1734:
 2143              	.LBB1733:
 2144              	.LBB1732:
 2145              	.LBB1726:
 2146              	.LBB1727:
 2147              	.LBB1728:
 2148              		.loc 6 66 0
 2149 0578 8169FFFC 		lwz 11,-4(9)
 2150              	.LVL160:
 2151              	.LBE1728:
 2152              	.LBE1727:
 2153              	.LBE1726:
 2154              		.loc 5 240 0
 2155 057c 2F8B0000 		cmpwi 7,11,0
 2156              	.LBB1731:
 2157              	.LBB1730:
 2158              	.LBB1729:
 2159              		.loc 6 67 0
 2160 0580 396BFFFF 		addi 11,11,-1
 2161 0584 9169FFFC 		stw 11,-4(9)
 2162              	.LBE1729:
 2163              	.LBE1730:
 2164              	.LBE1731:
 2165              		.loc 5 240 0
 2166 0588 419DFCA4 		bgt+ 7,.L96
 2167              		.loc 5 244 0
 2168 058c 3881000F 		addi 4,1,15
 2169 0590 48000001 		bl _ZNSs4_Rep10_M_destroyERKSaIcE
 2170              	.LVL161:
 2171 0594 4BFFFC98 		b .L96
 2172              	.LVL162:
 2173              	.L174:
 2174              	.LBE1732:
 2175              	.LBE1733:
 2176              	.LBE1734:
 2177              	.LBE1735:
 2178              	.LBE1870:
 2179              	.LBB1871:
 2180              	.LBB1717:
 2181              	.LBB1716:
 2182              	.LBB1715:
 2183              	.LBB1714:
 2184              	.LBB1708:
 2185              	.LBB1709:
 2186              	.LBB1710:
 2187              		.loc 6 66 0
 2188 0598 8169FFFC 		lwz 11,-4(9)
 2189              	.LVL163:
 2190              	.LBE1710:
 2191              	.LBE1709:
 2192              	.LBE1708:
 2193              		.loc 5 240 0
 2194 059c 2F8B0000 		cmpwi 7,11,0
 2195              	.LBB1713:
 2196              	.LBB1712:
 2197              	.LBB1711:
 2198              		.loc 6 67 0
 2199 05a0 396BFFFF 		addi 11,11,-1
 2200 05a4 9169FFFC 		stw 11,-4(9)
 2201              	.LBE1711:
 2202              	.LBE1712:
 2203              	.LBE1713:
 2204              		.loc 5 240 0
 2205 05a8 419DFC34 		bgt+ 7,.L88
 2206              		.loc 5 244 0
 2207 05ac 38810010 		addi 4,1,16
 2208 05b0 48000001 		bl _ZNSs4_Rep10_M_destroyERKSaIcE
 2209              	.LVL164:
 2210 05b4 4BFFFC28 		b .L88
 2211              	.LVL165:
 2212              	.L163:
 2213 05b8 7C7F1B78 		mr 31,3
 2214              	.LVL166:
 2215              	.LBE1714:
 2216              	.LBE1715:
 2217              	.LBE1716:
 2218              	.LBE1717:
 2219              	.LBE1871:
 2220              		.loc 4 50 0
 2221 05bc 38610040 		addi 3,1,64
 2222 05c0 48000001 		bl _ZNSsD1Ev
 2223 05c4 7FE3FB78 		mr 3,31
 2224              	.LEHB26:
 2225 05c8 48000001 		bl _Unwind_Resume
 2226              	.LVL167:
 2227              	.L172:
 2228 05cc 7C7F1B78 		mr 31,3
 2229              	.LVL168:
 2230              		.loc 4 59 0
 2231 05d0 3861001C 		addi 3,1,28
 2232 05d4 48000001 		bl _ZNSsD1Ev
 2233 05d8 7FE3FB78 		mr 3,31
 2234 05dc 48000001 		bl _Unwind_Resume
 2235              	.LVL169:
 2236              	.L170:
 2237 05e0 7C7F1B78 		mr 31,3
 2238              	.LVL170:
 2239              		.loc 4 57 0
 2240 05e4 38610024 		addi 3,1,36
 2241 05e8 48000001 		bl _ZNSsD1Ev
 2242 05ec 7FE3FB78 		mr 3,31
 2243 05f0 48000001 		bl _Unwind_Resume
 2244              	.LVL171:
 2245              	.L169:
 2246 05f4 7C7F1B78 		mr 31,3
 2247              	.LVL172:
 2248              		.loc 4 56 0
 2249 05f8 38610028 		addi 3,1,40
 2250 05fc 48000001 		bl _ZNSsD1Ev
 2251 0600 7FE3FB78 		mr 3,31
 2252 0604 48000001 		bl _Unwind_Resume
 2253              	.LVL173:
 2254              	.L168:
 2255 0608 7C7F1B78 		mr 31,3
 2256              	.LVL174:
 2257              		.loc 4 55 0
 2258 060c 3861002C 		addi 3,1,44
 2259 0610 48000001 		bl _ZNSsD1Ev
 2260 0614 7FE3FB78 		mr 3,31
 2261 0618 48000001 		bl _Unwind_Resume
 2262              	.LVL175:
 2263              	.L166:
 2264 061c 7C7F1B78 		mr 31,3
 2265              	.LVL176:
 2266              		.loc 4 53 0
 2267 0620 38610034 		addi 3,1,52
 2268 0624 48000001 		bl _ZNSsD1Ev
 2269 0628 7FE3FB78 		mr 3,31
 2270 062c 48000001 		bl _Unwind_Resume
 2271              	.LVL177:
 2272              	.L167:
 2273 0630 7C7F1B78 		mr 31,3
 2274              	.LVL178:
 2275              		.loc 4 54 0
 2276 0634 38610030 		addi 3,1,48
 2277 0638 48000001 		bl _ZNSsD1Ev
 2278 063c 7FE3FB78 		mr 3,31
 2279 0640 48000001 		bl _Unwind_Resume
 2280              	.LVL179:
 2281              	.L164:
 2282 0644 7C7F1B78 		mr 31,3
 2283              	.LVL180:
 2284              		.loc 4 51 0
 2285 0648 3861003C 		addi 3,1,60
 2286 064c 48000001 		bl _ZNSsD1Ev
 2287 0650 7FE3FB78 		mr 3,31
 2288 0654 48000001 		bl _Unwind_Resume
 2289              	.LVL181:
 2290              	.L171:
 2291 0658 7C7F1B78 		mr 31,3
 2292              	.LVL182:
 2293              		.loc 4 58 0
 2294 065c 38610020 		addi 3,1,32
 2295 0660 48000001 		bl _ZNSsD1Ev
 2296 0664 7FE3FB78 		mr 3,31
 2297 0668 48000001 		bl _Unwind_Resume
 2298              	.LVL183:
 2299              	.L165:
 2300 066c 7C7F1B78 		mr 31,3
 2301              	.LVL184:
 2302              		.loc 4 52 0
 2303 0670 38610038 		addi 3,1,56
 2304 0674 48000001 		bl _ZNSsD1Ev
 2305 0678 7FE3FB78 		mr 3,31
 2306 067c 48000001 		bl _Unwind_Resume
 2307              	.LEHE26:
 2308              	.LBE1873:
 2309              		.cfi_endproc
 2310              	.LFE1570:
 2311              		.section	.gcc_except_table
 2312              	.LLSDA1570:
 2313 0021 FF       		.byte	0xff
 2314 0022 FF       		.byte	0xff
 2315 0023 01       		.byte	0x1
 2316 0024 72       		.uleb128 .LLSDACSE1570-.LLSDACSB1570
 2317              	.LLSDACSB1570:
 2318 0025 2C       		.uleb128 .LEHB6-.LFB1570
 2319 0026 14       		.uleb128 .LEHE6-.LEHB6
 2320 0027 00       		.uleb128 0
 2321 0028 00       		.uleb128 0
 2322 0029 58       		.uleb128 .LEHB7-.LFB1570
 2323 002a 04       		.uleb128 .LEHE7-.LEHB7
 2324 002b A009     		.uleb128 .L163-.LFB1570
 2325 002d 00       		.uleb128 0
 2326 002e 8401     		.uleb128 .LEHB8-.LFB1570
 2327 0030 14       		.uleb128 .LEHE8-.LEHB8
 2328 0031 00       		.uleb128 0
 2329 0032 00       		.uleb128 0
 2330 0033 B001     		.uleb128 .LEHB9-.LFB1570
 2331 0035 04       		.uleb128 .LEHE9-.LEHB9
 2332 0036 AC0A     		.uleb128 .L164-.LFB1570
 2333 0038 00       		.uleb128 0
 2334 0039 D401     		.uleb128 .LEHB10-.LFB1570
 2335 003b 14       		.uleb128 .LEHE10-.LEHB10
 2336 003c 00       		.uleb128 0
 2337 003d 00       		.uleb128 0
 2338 003e 8002     		.uleb128 .LEHB11-.LFB1570
 2339 0040 04       		.uleb128 .LEHE11-.LEHB11
 2340 0041 D40A     		.uleb128 .L165-.LFB1570
 2341 0043 00       		.uleb128 0
 2342 0044 A402     		.uleb128 .LEHB12-.LFB1570
 2343 0046 14       		.uleb128 .LEHE12-.LEHB12
 2344 0047 00       		.uleb128 0
 2345 0048 00       		.uleb128 0
 2346 0049 D002     		.uleb128 .LEHB13-.LFB1570
 2347 004b 04       		.uleb128 .LEHE13-.LEHB13
 2348 004c 840A     		.uleb128 .L166-.LFB1570
 2349 004e 00       		.uleb128 0
 2350 004f F402     		.uleb128 .LEHB14-.LFB1570
 2351 0051 14       		.uleb128 .LEHE14-.LEHB14
 2352 0052 00       		.uleb128 0
 2353 0053 00       		.uleb128 0
 2354 0054 A003     		.uleb128 .LEHB15-.LFB1570
 2355 0056 04       		.uleb128 .LEHE15-.LEHB15
 2356 0057 980A     		.uleb128 .L167-.LFB1570
 2357 0059 00       		.uleb128 0
 2358 005a C403     		.uleb128 .LEHB16-.LFB1570
 2359 005c 14       		.uleb128 .LEHE16-.LEHB16
 2360 005d 00       		.uleb128 0
 2361 005e 00       		.uleb128 0
 2362 005f F003     		.uleb128 .LEHB17-.LFB1570
 2363 0061 04       		.uleb128 .LEHE17-.LEHB17
 2364 0062 F009     		.uleb128 .L168-.LFB1570
 2365 0064 00       		.uleb128 0
 2366 0065 9404     		.uleb128 .LEHB18-.LFB1570
 2367 0067 14       		.uleb128 .LEHE18-.LEHB18
 2368 0068 00       		.uleb128 0
 2369 0069 00       		.uleb128 0
 2370 006a C004     		.uleb128 .LEHB19-.LFB1570
 2371 006c 04       		.uleb128 .LEHE19-.LEHB19
 2372 006d DC09     		.uleb128 .L169-.LFB1570
 2373 006f 00       		.uleb128 0
 2374 0070 E404     		.uleb128 .LEHB20-.LFB1570
 2375 0072 14       		.uleb128 .LEHE20-.LEHB20
 2376 0073 00       		.uleb128 0
 2377 0074 00       		.uleb128 0
 2378 0075 9005     		.uleb128 .LEHB21-.LFB1570
 2379 0077 04       		.uleb128 .LEHE21-.LEHB21
 2380 0078 C809     		.uleb128 .L170-.LFB1570
 2381 007a 00       		.uleb128 0
 2382 007b B405     		.uleb128 .LEHB22-.LFB1570
 2383 007d 14       		.uleb128 .LEHE22-.LEHB22
 2384 007e 00       		.uleb128 0
 2385 007f 00       		.uleb128 0
 2386 0080 E005     		.uleb128 .LEHB23-.LFB1570
 2387 0082 04       		.uleb128 .LEHE23-.LEHB23
 2388 0083 C00A     		.uleb128 .L171-.LFB1570
 2389 0085 00       		.uleb128 0
 2390 0086 8406     		.uleb128 .LEHB24-.LFB1570
 2391 0088 14       		.uleb128 .LEHE24-.LEHB24
 2392 0089 00       		.uleb128 0
 2393 008a 00       		.uleb128 0
 2394 008b B006     		.uleb128 .LEHB25-.LFB1570
 2395 008d 04       		.uleb128 .LEHE25-.LEHB25
 2396 008e B409     		.uleb128 .L172-.LFB1570
 2397 0090 00       		.uleb128 0
 2398 0091 B009     		.uleb128 .LEHB26-.LFB1570
 2399 0093 B801     		.uleb128 .LEHE26-.LEHB26
 2400 0095 00       		.uleb128 0
 2401 0096 00       		.uleb128 0
 2402              	.LLSDACSE1570:
 2403              		.section	".text"
 2404              		.size	_ZN14GlobalSettings16SetupMainButtonsEv, .-_ZN14GlobalSettings16SetupMainButtonsEv
 2405              		.align 2
 2406              		.globl _ZN14GlobalSettingsC2Ev
 2407              		.type	_ZN14GlobalSettingsC2Ev, @function
 2408              	_ZN14GlobalSettingsC2Ev:
 2409              	.LFB1564:
 2410              		.loc 4 27 0
 2411              		.cfi_startproc
 2412              		.cfi_personality 0,__gxx_personality_v0
 2413              		.cfi_lsda 0,.LLSDA1564
 2414              	.LVL185:
 2415 0680 7C0802A6 		mflr 0
 2416 0684 9421FFF0 		stwu 1,-16(1)
 2417              	.LCFI27:
 2418              		.cfi_def_cfa_offset 16
 2419              		.cfi_register 65, 0
 2420 0688 93E1000C 		stw 31,12(1)
 2421 068c 7C7F1B78 		mr 31,3
 2422              		.cfi_offset 31, -4
 2423 0690 90010014 		stw 0,20(1)
 2424 0694 93C10008 		stw 30,8(1)
 2425              	.LEHB27:
 2426              	.LBB1874:
 2427              		.loc 4 28 0
 2428              		.cfi_offset 30, -8
 2429              		.cfi_offset 65, 4
 2430 0698 48000001 		bl _ZN17FlyingButtonsMenuC2Ev
 2431              	.LEHE27:
 2432              	.LVL186:
 2433 069c 3D200000 		lis 9,_ZTV14GlobalSettings+8@ha
 2434              		.loc 4 30 0
 2435 06a0 3C600000 		lis 3,.LC14@ha
 2436              		.loc 4 28 0
 2437 06a4 39290008 		la 9,_ZTV14GlobalSettings+8@l(9)
 2438              		.loc 4 30 0
 2439 06a8 3863009C 		la 3,.LC14@l(3)
 2440              		.loc 4 28 0
 2441 06ac 38090104 		addi 0,9,260
 2442 06b0 913F0000 		stw 9,0(31)
 2443 06b4 901F00B0 		stw 0,176(31)
 2444              	.LEHB28:
 2445              		.loc 4 30 0
 2446 06b8 48000001 		bl _ZN9Resources12GetImageDataEPKc
 2447 06bc 907F0170 		stw 3,368(31)
 2448              		.loc 4 31 0
 2449 06c0 3C600000 		lis 3,.LC15@ha
 2450 06c4 386300B0 		la 3,.LC15@l(3)
 2451 06c8 48000001 		bl _ZN9Resources12GetImageDataEPKc
 2452              		.loc 4 31 0 is_stmt 0 discriminator 1
 2453 06cc 907F0174 		stw 3,372(31)
 2454              		.loc 4 32 0 is_stmt 1 discriminator 1
 2455 06d0 3C600000 		lis 3,.LC16@ha
 2456 06d4 386300C8 		la 3,.LC16@l(3)
 2457 06d8 48000001 		bl _ZN9Resources12GetImageDataEPKc
 2458 06dc 907F0178 		stw 3,376(31)
 2459              		.loc 4 33 0 discriminator 1
 2460 06e0 3C600000 		lis 3,.LC17@ha
 2461 06e4 386300E4 		la 3,.LC17@l(3)
 2462 06e8 48000001 		bl _ZN9Resources12GetImageDataEPKc
 2463 06ec 907F017C 		stw 3,380(31)
 2464              		.loc 4 35 0 discriminator 1
 2465 06f0 7FE3FB78 		mr 3,31
 2466 06f4 48000001 		bl _ZN14GlobalSettings16SetupMainButtonsEv
 2467              	.LEHE28:
 2468              	.LBE1874:
 2469              		.loc 4 36 0
 2470 06f8 80010014 		lwz 0,20(1)
 2471 06fc 83C10008 		lwz 30,8(1)
 2472 0700 7C0803A6 		mtlr 0
 2473 0704 83E1000C 		lwz 31,12(1)
 2474              	.LVL187:
 2475 0708 38210010 		addi 1,1,16
 2476              		.cfi_remember_state
 2477              	.LCFI28:
 2478              		.cfi_def_cfa_offset 0
 2479              		.cfi_restore 31
 2480              		.cfi_restore 30
 2481 070c 4E800020 		blr
 2482              	.LVL188:
 2483              	.L185:
 2484              	.LCFI29:
 2485              		.cfi_restore_state
 2486 0710 7C7E1B78 		mr 30,3
 2487              	.LBB1875:
 2488              		.loc 4 28 0
 2489 0714 7FE3FB78 		mr 3,31
 2490 0718 48000001 		bl _ZN17FlyingButtonsMenuD2Ev
 2491 071c 7FC3F378 		mr 3,30
 2492              	.LEHB29:
 2493 0720 48000001 		bl _Unwind_Resume
 2494              	.LEHE29:
 2495              	.LBE1875:
 2496              		.cfi_endproc
 2497              	.LFE1564:
 2498              		.section	.gcc_except_table
 2499              	.LLSDA1564:
 2500 0097 FF       		.byte	0xff
 2501 0098 FF       		.byte	0xff
 2502 0099 01       		.byte	0x1
 2503 009a 0E       		.uleb128 .LLSDACSE1564-.LLSDACSB1564
 2504              	.LLSDACSB1564:
 2505 009b 18       		.uleb128 .LEHB27-.LFB1564
 2506 009c 04       		.uleb128 .LEHE27-.LEHB27
 2507 009d 00       		.uleb128 0
 2508 009e 00       		.uleb128 0
 2509 009f 38       		.uleb128 .LEHB28-.LFB1564
 2510 00a0 40       		.uleb128 .LEHE28-.LEHB28
 2511 00a1 9001     		.uleb128 .L185-.LFB1564
 2512 00a3 00       		.uleb128 0
 2513 00a4 A001     		.uleb128 .LEHB29-.LFB1564
 2514 00a6 04       		.uleb128 .LEHE29-.LEHB29
 2515 00a7 00       		.uleb128 0
 2516 00a8 00       		.uleb128 0
 2517              	.LLSDACSE1564:
 2518              		.section	".text"
 2519              		.size	_ZN14GlobalSettingsC2Ev, .-_ZN14GlobalSettingsC2Ev
 2520              		.weak	_ZTS14GlobalSettings
 2521              		.section	.rodata._ZTS14GlobalSettings,"aG",@progbits,_ZTS14GlobalSettings,comdat
 2522              		.align 2
 2523              		.type	_ZTS14GlobalSettings, @object
 2524              		.size	_ZTS14GlobalSettings, 17
 2525              	_ZTS14GlobalSettings:
 2526 0000 3134476C 		.string	"14GlobalSettings"
 2526      6F62616C 
 2526      53657474 
 2526      696E6773 
 2526      00
 2527              		.weak	_ZTI14GlobalSettings
 2528              		.section	.rodata._ZTI14GlobalSettings,"aG",@progbits,_ZTI14GlobalSettings,comdat
 2529              		.align 2
 2530              		.type	_ZTI14GlobalSettings, @object
 2531              		.size	_ZTI14GlobalSettings, 12
 2532              	_ZTI14GlobalSettings:
 2533 0000 00000008 		.long	_ZTVN10__cxxabiv120__si_class_type_infoE+8
 2534 0004 00000000 		.long	_ZTS14GlobalSettings
 2535 0008 00000000 		.long	_ZTI17FlyingButtonsMenu
 2536              		.weak	_ZTV14GlobalSettings
 2537              		.section	.rodata._ZTV14GlobalSettings,"aG",@progbits,_ZTV14GlobalSettings,comdat
 2538              		.align 3
 2539              		.type	_ZTV14GlobalSettings, @object
 2540              		.size	_ZTV14GlobalSettings, 284
 2541              	_ZTV14GlobalSettings:
 2542 0000 00000000 		.long	0
 2543 0004 00000000 		.long	_ZTI14GlobalSettings
 2544 0008 00000000 		.long	_ZN14GlobalSettingsD1Ev
 2545 000c 00000000 		.long	_ZN14GlobalSettingsD0Ev
 2546 0010 00000000 		.long	_ZN10GuiElement9SetParentEPS_
 2547 0014 00000000 		.long	_ZN10GuiElement9GetParentEv
 2548 0018 00000000 		.long	_ZN10GuiElement7GetLeftEv
 2549 001c 00000000 		.long	_ZN10GuiElement6GetTopEv
 2550 0020 00000000 		.long	_ZN10GuiElement12GetZPositionEv
 2551 0024 00000000 		.long	_ZN10GuiElement10GetLeftPosEv
 2552 0028 00000000 		.long	_ZN10GuiElement9GetTopPosEv
 2553 002c 00000000 		.long	_ZN10GuiElement8GetWidthEv
 2554 0030 00000000 		.long	_ZN10GuiElement9GetHeightEv
 2555 0034 00000000 		.long	_ZN10GuiElement7SetSizeEii
 2556 0038 00000000 		.long	_ZN8GuiFrame10SetVisibleEb
 2557 003c 00000000 		.long	_ZN10GuiElement9IsVisibleEv
 2558 0040 00000000 		.long	_ZN10GuiElement12IsSelectableEv
 2559 0044 00000000 		.long	_ZN10GuiElement11IsClickableEv
 2560 0048 00000000 		.long	_ZN10GuiElement10IsHoldableEv
 2561 004c 00000000 		.long	_ZN10GuiElement13SetSelectableEb
 2562 0050 00000000 		.long	_ZN10GuiElement12SetClickableEb
 2563 0054 00000000 		.long	_ZN10GuiElement11SetHoldableEb
 2564 0058 00000000 		.long	_ZN10GuiElement8SetStateEii
 2565 005c 00000000 		.long	_ZN10GuiElement8GetStateEv
 2566 0060 00000000 		.long	_ZN10GuiElement12GetStateChanEv
 2567 0064 00000000 		.long	_ZN8GuiFrame10ResetStateEv
 2568 0068 00000000 		.long	_ZN10GuiElement8SetAlphaEi
 2569 006c 00000000 		.long	_ZN10GuiElement8GetAlphaEv
 2570 0070 00000000 		.long	_ZN10GuiElement8SetScaleEf
 2571 0074 00000000 		.long	_ZN10GuiElement9SetScaleXEf
 2572 0078 00000000 		.long	_ZN10GuiElement9SetScaleYEf
 2573 007c 00000000 		.long	_ZN10GuiElement8GetScaleEv
 2574 0080 00000000 		.long	_ZN10GuiElement9GetScaleXEv
 2575 0084 00000000 		.long	_ZN10GuiElement9GetScaleYEv
 2576 0088 00000000 		.long	_ZN10GuiElement6RumbleEv
 2577 008c 00000000 		.long	_ZN10GuiElement9SetRumbleEb
 2578 0090 00000000 		.long	_ZN10GuiElement9SetEffectEiii
 2579 0094 00000000 		.long	_ZN10GuiElement15SetEffectOnOverEiii
 2580 0098 00000000 		.long	_ZN10GuiElement13SetEffectGrowEv
 2581 009c 00000000 		.long	_ZN10GuiElement12ResetEffectsEv
 2582 00a0 00000000 		.long	_ZNK10GuiElement9GetEffectEv
 2583 00a4 00000000 		.long	_ZNK10GuiElement10IsAnimatedEv
 2584 00a8 00000000 		.long	_ZN8GuiFrame9SetBoundsE4RectIiE
 2585 00ac 00000000 		.long	_ZN10GuiElement8IsInsideEii
 2586 00b0 00000000 		.long	_ZN10GuiElement11SetPositionEii
 2587 00b4 00000000 		.long	_ZN10GuiElement11SetPositionEiii
 2588 00b8 00000000 		.long	_ZN8GuiFrame11GetSelectedEv
 2589 00bc 00000000 		.long	_ZN10GuiElement12SetAlignmentEi
 2590 00c0 00000000 		.long	_ZNK10GuiElement12GetAlignmentEv
 2591 00c4 00000000 		.long	_ZN8GuiFrame6UpdateEP10GuiTrigger
 2592 00c8 00000000 		.long	_ZN8GuiFrame4DrawEv
 2593 00cc 00000000 		.long	_ZN10GuiElement13UpdateEffectsEv
 2594 00d0 00000000 		.long	_ZN8GuiFrame5CloseEv
 2595 00d4 00000000 		.long	_ZN17FlyingButtonsMenu4showEv
 2596 00d8 00000000 		.long	_ZN17FlyingButtonsMenu4hideEv
 2597 00dc 00000000 		.long	_ZN8GuiFrame4execEv
 2598 00e0 00000000 		.long	_ZN8GuiFrame12updateEventsEv
 2599 00e4 00000000 		.long	_ZN17FlyingButtonsMenu6FadeInEv
 2600 00e8 00000000 		.long	_ZN17FlyingButtonsMenu7FadeOutEv
 2601 00ec 00000000 		.long	_ZN14GlobalSettings16SetupMainButtonsEv
 2602 00f0 00000000 		.long	_ZN17FlyingButtonsMenu14AddMainButtonsEv
 2603 00f4 00000000 		.long	_ZN17FlyingButtonsMenu18ShowButtonsEffectsEii
 2604 00f8 00000000 		.long	_ZN17FlyingButtonsMenu12SlideButtonsEi
 2605 00fc 00000000 		.long	_ZN17FlyingButtonsMenu17SetPageIndicatorsEv
 2606 0100 00000000 		.long	_ZN17FlyingButtonsMenu13SetMainButtonEiSsP12GuiImageDataS1_
 2607 0104 FFFFFF50 		.long	-176
 2608 0108 00000000 		.long	_ZTI14GlobalSettings
 2609 010c 00000000 		.long	_ZThn176_N14GlobalSettingsD1Ev
 2610 0110 00000000 		.long	_ZThn176_N14GlobalSettingsD0Ev
 2611 0114 00000000 		.long	_ZN7sigslot15single_threaded4lockEv
 2612 0118 00000000 		.long	_ZN7sigslot15single_threaded6unlockEv
 2613              		.globl _ZN14GlobalSettingsD1Ev
 2614              		.set	_ZN14GlobalSettingsD1Ev,_ZN14GlobalSettingsD2Ev
 2615              		.set	.LTHUNK0,_ZN14GlobalSettingsD1Ev
 2616              		.set	.LTHUNK1,_ZN14GlobalSettingsD0Ev
 2617              		.globl _ZN14GlobalSettingsC1Ev
 2618              		.set	_ZN14GlobalSettingsC1Ev,_ZN14GlobalSettingsC2Ev
 2619              		.section	.rodata.cst4,"aM",@progbits,4
 2620              		.align 2
 2621              	.LC1:
 2622 0000 59800004 		.4byte	1501560836
 2623              	.LC2:
 2624 0004 437F0000 		.4byte	1132396544
 2625              	.LC3:
 2626 0008 3F000000 		.4byte	1056964608
 2627              		.section	.rodata.str1.4,"aMS",@progbits,1
 2628              		.align 2
 2629              	.LC4:
 2630 0000 47554920 		.string	"GUI Settings"
 2630      53657474 
 2630      696E6773 
 2630      00
 2631 000d 000000   		.zero	3
 2632              	.LC5:
 2633 0010 41756469 		.string	"Audio Settings"
 2633      6F205365 
 2633      7474696E 
 2633      677300
 2634 001f 00       		.zero	1
 2635              	.LC6:
 2636 0020 43757374 		.string	"Custom Paths"
 2636      6F6D2050 
 2636      61746873 
 2636      00
 2637 002d 000000   		.zero	3
 2638              	.LC7:
 2639 0030 5468656D 		.string	"Theme Settings"
 2639      65205365 
 2639      7474696E 
 2639      677300
 2640 003f 00       		.zero	1
 2641              	.LC8:
 2642 0040 436F6E74 		.string	"Controller Settings"
 2642      726F6C6C 
 2642      65722053 
 2642      65747469 
 2642      6E677300 
 2643              	.LC9:
 2644 0054 50617265 		.string	"Parental Control"
 2644      6E74616C 
 2644      20436F6E 
 2644      74726F6C 
 2644      00
 2645 0065 000000   		.zero	3
 2646              	.LC10:
 2647 0068 46656174 		.string	"Features Menu"
 2647      75726573 
 2647      204D656E 
 2647      7500
 2648 0076 0000     		.zero	2
 2649              	.LC11:
 2650 0078 55706461 		.string	"Updates"
 2650      74657300 
 2651              	.LC12:
 2652 0080 44656661 		.string	"Default Settings"
 2652      756C7420 
 2652      53657474 
 2652      696E6773 
 2652      00
 2653 0091 000000   		.zero	3
 2654              	.LC13:
 2655 0094 43726564 		.string	"Credits"
 2655      69747300 
 2656              	.LC14:
 2657 009c 73657474 		.string	"settings_title.png"
 2657      696E6773 
 2657      5F746974 
 2657      6C652E70 
 2657      6E6700
 2658 00af 00       		.zero	1
 2659              	.LC15:
 2660 00b0 73657474 		.string	"settings_title_over.png"
 2660      696E6773 
 2660      5F746974 
 2660      6C655F6F 
 2660      7665722E 
 2661              	.LC16:
 2662 00c8 73657474 		.string	"settings_credits_title.png"
 2662      696E6773 
 2662      5F637265 
 2662      64697473 
 2662      5F746974 
 2663 00e3 00       		.zero	1
 2664              	.LC17:
 2665 00e4 73657474 		.string	"settings_credits_title_over.png"
 2665      696E6773 
 2665      5F637265 
 2665      64697473 
 2665      5F746974 
 2666              		.section	".text"
 2667              	.Letext0:
 2668              		.file 7 "d:\\devkitpro\\devkitppc\\bin\\../lib/gcc/powerpc-eabi/4.6.3/../../../../powerpc-eabi/inc
 2669              		.file 8 "d:\\devkitpro\\devkitppc\\bin\\../lib/gcc/powerpc-eabi/4.6.3/../../../../powerpc-eabi/inc
 2670              		.file 9 "d:\\devkitpro\\devkitppc\\bin\\../lib/gcc/powerpc-eabi/4.6.3/../../../../powerpc-eabi/inc
 2671              		.file 10 "d:\\devkitpro\\devkitppc\\bin\\../lib/gcc/powerpc-eabi/4.6.3/../../../../powerpc-eabi/in
 2672              		.file 11 "d:\\devkitpro\\devkitppc\\bin\\../lib/gcc/powerpc-eabi/4.6.3/../../../../powerpc-eabi/in
 2673              		.file 12 "d:\\devkitpro\\devkitppc\\bin\\../lib/gcc/powerpc-eabi/4.6.3/../../../../powerpc-eabi/in
 2674              		.file 13 "d:\\devkitpro\\devkitppc\\bin\\../lib/gcc/powerpc-eabi/4.6.3/../../../../powerpc-eabi/in
 2675              		.file 14 "d:\\devkitpro\\devkitppc\\bin\\../lib/gcc/powerpc-eabi/4.6.3/../../../../powerpc-eabi/in
 2676              		.file 15 "d:\\devkitpro\\devkitppc\\bin\\../lib/gcc/powerpc-eabi/4.6.3/../../../../powerpc-eabi/in
 2677              		.file 16 "d:\\devkitpro\\devkitppc\\bin\\../lib/gcc/powerpc-eabi/4.6.3/../../../../powerpc-eabi/in
 2678              		.file 17 "d:\\devkitpro\\devkitppc\\bin\\../lib/gcc/powerpc-eabi/4.6.3/../../../../powerpc-eabi/in
 2679              		.file 18 "d:\\devkitpro\\devkitppc\\bin\\../lib/gcc/powerpc-eabi/4.6.3/../../../../powerpc-eabi/in
 2680              		.file 19 "d:\\devkitpro\\devkitppc\\bin\\../lib/gcc/powerpc-eabi/4.6.3/../../../../powerpc-eabi/in
 2681              		.file 20 "d:\\devkitpro\\devkitppc\\bin\\../lib/gcc/powerpc-eabi/4.6.3/include/stddef.h"
 2682              		.file 21 "d:\\devkitpro\\devkitppc\\bin\\../lib/gcc/powerpc-eabi/4.6.3/../../../../powerpc-eabi/in
 2683              		.file 22 "d:\\devkitpro\\devkitppc\\bin\\../lib/gcc/powerpc-eabi/4.6.3/../../../../powerpc-eabi/in
 2684              		.file 23 "<built-in>"
 2685              		.file 24 "d:\\devkitpro\\devkitppc\\bin\\../lib/gcc/powerpc-eabi/4.6.3/../../../../powerpc-eabi/in
 2686              		.file 25 "d:\\devkitpro\\devkitppc\\bin\\../lib/gcc/powerpc-eabi/4.6.3/../../../../powerpc-eabi/in
 2687              		.file 26 "d:\\devkitpro\\devkitppc\\bin\\../lib/gcc/powerpc-eabi/4.6.3/../../../../powerpc-eabi/in
 2688              		.file 27 "d:\\devkitpro\\devkitppc\\bin\\../lib/gcc/powerpc-eabi/4.6.3/../../../../powerpc-eabi/in
 2689              		.file 28 "d:\\devkitpro\\devkitppc\\bin\\../lib/gcc/powerpc-eabi/4.6.3/../../../../powerpc-eabi/in
 2690              		.file 29 "d:\\devkitpro\\devkitppc\\bin\\../lib/gcc/powerpc-eabi/4.6.3/../../../../powerpc-eabi/in
 2691              		.file 30 "d:\\devkitpro\\devkitppc\\bin\\../lib/gcc/powerpc-eabi/4.6.3/../../../../powerpc-eabi/in
 2692              		.file 31 "d:/devkitPro/libogc/include/gctypes.h"
 2693              		.file 32 "d:/devkitPro/libogc/include/ogc/gx.h"
 2694              		.file 33 "d:\\devkitpro\\devkitppc\\bin\\../lib/gcc/powerpc-eabi/4.6.3/../../../../powerpc-eabi/in
 2695              		.file 34 "d:\\devkitpro\\devkitppc\\bin\\../lib/gcc/powerpc-eabi/4.6.3/../../../../powerpc-eabi/in
 2696              		.file 35 "d:/Projects/SaveGameManager/savegame-manager-gx/trunk/source/Settings/menus/../../GUI/..
 2697              		.file 36 "d:\\devkitpro\\devkitppc\\bin\\../lib/gcc/powerpc-eabi/4.6.3/../../../../powerpc-eabi/in
 2698              		.file 37 "d:\\devkitpro\\devkitppc\\bin\\../lib/gcc/powerpc-eabi/4.6.3/../../../../powerpc-eabi/in
 2699              		.file 38 "d:\\devkitpro\\devkitppc\\bin\\../lib/gcc/powerpc-eabi/4.6.3/../../../../powerpc-eabi/in
 2700              		.file 39 "d:\\devkitpro\\devkitppc\\bin\\../lib/gcc/powerpc-eabi/4.6.3/../../../../powerpc-eabi/in
 2701              		.file 40 "d:/Projects/SaveGameManager/savegame-manager-gx/trunk/source/Settings/menus/GlobalSettin
 2702              		.file 41 "d:\\devkitpro\\devkitppc\\bin\\../lib/gcc/powerpc-eabi/4.6.3/../../../../powerpc-eabi/in