   1              		.file	"gui_tooltip.cpp"
   2              		.section	".text"
   3              	.Ltext0:
   4              		.section	.text._ZN7sigslot15single_threadedD2Ev,"axG",@progbits,_ZN7sigslot15single_threadedD5Ev,c
   5              		.align 2
   6              		.weak	_ZN7sigslot15single_threadedD2Ev
   7              		.type	_ZN7sigslot15single_threadedD2Ev, @function
   8              	_ZN7sigslot15single_threadedD2Ev:
   9              	.LFB1148:
  10              		.file 1 "d:/Projects/SaveGameManager/savegame-manager-gx/trunk/source/GUI/../sigslot.h"
  11              		.loc 1 104 0
  12              		.cfi_startproc
  13              	.LVL0:
  14              	.LBB1402:
  15              		.loc 1 105 0
  16 0000 3D200000 		lis 9,_ZTVN7sigslot15single_threadedE+8@ha
  17              	.LBE1402:
  18              		.loc 1 107 0
  19              	.LBB1403:
  20              		.loc 1 105 0
  21 0004 38090008 		la 0,_ZTVN7sigslot15single_threadedE+8@l(9)
  22 0008 90030000 		stw 0,0(3)
  23              	.LBE1403:
  24              		.loc 1 107 0
  25 000c 4E800020 		blr
  26              		.cfi_endproc
  27              	.LFE1148:
  28              		.size	_ZN7sigslot15single_threadedD2Ev, .-_ZN7sigslot15single_threadedD2Ev
  29              		.section	.text._ZN7sigslot15single_threaded4lockEv,"axG",@progbits,_ZN7sigslot15single_threaded4lo
  30              		.align 2
  31              		.weak	_ZN7sigslot15single_threaded4lockEv
  32              		.type	_ZN7sigslot15single_threaded4lockEv, @function
  33              	_ZN7sigslot15single_threaded4lockEv:
  34              	.LFB1151:
  35              		.loc 1 109 0
  36              		.cfi_startproc
  37              	.LVL1:
  38              		.loc 1 112 0
  39 0000 4E800020 		blr
  40              		.cfi_endproc
  41              	.LFE1151:
  42              		.size	_ZN7sigslot15single_threaded4lockEv, .-_ZN7sigslot15single_threaded4lockEv
  43              		.section	.text._ZN7sigslot15single_threaded6unlockEv,"axG",@progbits,_ZN7sigslot15single_threaded6
  44              		.align 2
  45              		.weak	_ZN7sigslot15single_threaded6unlockEv
  46              		.type	_ZN7sigslot15single_threaded6unlockEv, @function
  47              	_ZN7sigslot15single_threaded6unlockEv:
  48              	.LFB1152:
  49              		.loc 1 114 0
  50              		.cfi_startproc
  51              	.LVL2:
  52              		.loc 1 117 0
  53 0000 4E800020 		blr
  54              		.cfi_endproc
  55              	.LFE1152:
  56              		.size	_ZN7sigslot15single_threaded6unlockEv, .-_ZN7sigslot15single_threaded6unlockEv
  57              		.section	.text._ZN10GuiElement9SetParentEPS_,"axG",@progbits,_ZN10GuiElement9SetParentEPS_,comdat
  58              		.align 2
  59              		.weak	_ZN10GuiElement9SetParentEPS_
  60              		.type	_ZN10GuiElement9SetParentEPS_, @function
  61              	_ZN10GuiElement9SetParentEPS_:
  62              	.LFB1384:
  63              		.file 2 "d:/Projects/SaveGameManager/savegame-manager-gx/trunk/source/GUI/gui_element.h"
  64              		.loc 2 92 0
  65              		.cfi_startproc
  66              	.LVL3:
  67              		.loc 2 92 0
  68 0000 90830060 		stw 4,96(3)
  69 0004 4E800020 		blr
  70              		.cfi_endproc
  71              	.LFE1384:
  72              		.size	_ZN10GuiElement9SetParentEPS_, .-_ZN10GuiElement9SetParentEPS_
  73              		.section	.text._ZN10GuiElement9GetParentEv,"axG",@progbits,_ZN10GuiElement9GetParentEv,comdat
  74              		.align 2
  75              		.weak	_ZN10GuiElement9GetParentEv
  76              		.type	_ZN10GuiElement9GetParentEv, @function
  77              	_ZN10GuiElement9GetParentEv:
  78              	.LFB1385:
  79              		.loc 2 95 0
  80              		.cfi_startproc
  81              	.LVL4:
  82              		.loc 2 95 0
  83 0000 80630060 		lwz 3,96(3)
  84              	.LVL5:
  85 0004 4E800020 		blr
  86              		.cfi_endproc
  87              	.LFE1385:
  88              		.size	_ZN10GuiElement9GetParentEv, .-_ZN10GuiElement9GetParentEv
  89              		.section	.text._ZN10GuiElement12GetZPositionEv,"axG",@progbits,_ZN10GuiElement12GetZPositionEv,com
  90              		.align 2
  91              		.weak	_ZN10GuiElement12GetZPositionEv
  92              		.type	_ZN10GuiElement12GetZPositionEv, @function
  93              	_ZN10GuiElement12GetZPositionEv:
  94              	.LFB1386:
  95              		.loc 2 106 0
  96              		.cfi_startproc
  97              	.LVL6:
  98 0000 7C0802A6 		mflr 0
  99 0004 9421FFF0 		stwu 1,-16(1)
 100              	.LCFI0:
 101              		.cfi_def_cfa_offset 16
 102              		.cfi_register 65, 0
 103 0008 93E1000C 		stw 31,12(1)
 104 000c 7C7F1B78 		mr 31,3
 105              		.cfi_offset 31, -4
 106 0010 90010014 		stw 0,20(1)
 107              	.LBB1404:
 108              		.loc 2 110 0
 109 0014 81630060 		lwz 11,96(3)
 110              		.loc 2 108 0
 111 0018 38600000 		li 3,0
 112              	.LVL7:
 113              		.loc 2 110 0
 114 001c 2F8B0000 		cmpwi 7,11,0
 115 0020 419E0018 		beq- 7,.L8
 116              		.cfi_offset 65, 4
 117              		.loc 2 111 0
 118 0024 812B0000 		lwz 9,0(11)
 119 0028 7D635B78 		mr 3,11
 120 002c 80090018 		lwz 0,24(9)
 121 0030 7C0903A6 		mtctr 0
 122 0034 4E800421 		bctrl
 123              	.LVL8:
 124              	.L8:
 125              		.loc 2 113 0
 126 0038 801F0034 		lwz 0,52(31)
 127              	.LBE1404:
 128              		.loc 2 114 0
 129 003c 83E1000C 		lwz 31,12(1)
 130              	.LVL9:
 131 0040 7C630214 		add 3,3,0
 132              	.LVL10:
 133 0044 80010014 		lwz 0,20(1)
 134 0048 38210010 		addi 1,1,16
 135              	.LCFI1:
 136              		.cfi_def_cfa_offset 0
 137              		.cfi_restore 31
 138 004c 7C0803A6 		mtlr 0
 139 0050 4E800020 		blr
 140              		.cfi_endproc
 141              	.LFE1386:
 142              		.size	_ZN10GuiElement12GetZPositionEv, .-_ZN10GuiElement12GetZPositionEv
 143              		.section	.text._ZN10GuiElement10GetLeftPosEv,"axG",@progbits,_ZN10GuiElement10GetLeftPosEv,comdat
 144              		.align 2
 145              		.weak	_ZN10GuiElement10GetLeftPosEv
 146              		.type	_ZN10GuiElement10GetLeftPosEv, @function
 147              	_ZN10GuiElement10GetLeftPosEv:
 148              	.LFB1387:
 149              		.loc 2 116 0
 150              		.cfi_startproc
 151              	.LVL11:
 152              		.loc 2 116 0
 153 0000 8063002C 		lwz 3,44(3)
 154              	.LVL12:
 155 0004 4E800020 		blr
 156              		.cfi_endproc
 157              	.LFE1387:
 158              		.size	_ZN10GuiElement10GetLeftPosEv, .-_ZN10GuiElement10GetLeftPosEv
 159              		.section	.text._ZN10GuiElement9GetTopPosEv,"axG",@progbits,_ZN10GuiElement9GetTopPosEv,comdat
 160              		.align 2
 161              		.weak	_ZN10GuiElement9GetTopPosEv
 162              		.type	_ZN10GuiElement9GetTopPosEv, @function
 163              	_ZN10GuiElement9GetTopPosEv:
 164              	.LFB1388:
 165              		.loc 2 118 0
 166              		.cfi_startproc
 167              	.LVL13:
 168              		.loc 2 118 0
 169 0000 80630030 		lwz 3,48(3)
 170              	.LVL14:
 171 0004 4E800020 		blr
 172              		.cfi_endproc
 173              	.LFE1388:
 174              		.size	_ZN10GuiElement9GetTopPosEv, .-_ZN10GuiElement9GetTopPosEv
 175              		.section	.text._ZN10GuiElement8GetWidthEv,"axG",@progbits,_ZN10GuiElement8GetWidthEv,comdat
 176              		.align 2
 177              		.weak	_ZN10GuiElement8GetWidthEv
 178              		.type	_ZN10GuiElement8GetWidthEv, @function
 179              	_ZN10GuiElement8GetWidthEv:
 180              	.LFB1389:
 181              		.loc 2 121 0
 182              		.cfi_startproc
 183              	.LVL15:
 184              		.loc 2 121 0
 185 0000 80630024 		lwz 3,36(3)
 186              	.LVL16:
 187 0004 4E800020 		blr
 188              		.cfi_endproc
 189              	.LFE1389:
 190              		.size	_ZN10GuiElement8GetWidthEv, .-_ZN10GuiElement8GetWidthEv
 191              		.section	.text._ZN10GuiElement9GetHeightEv,"axG",@progbits,_ZN10GuiElement9GetHeightEv,comdat
 192              		.align 2
 193              		.weak	_ZN10GuiElement9GetHeightEv
 194              		.type	_ZN10GuiElement9GetHeightEv, @function
 195              	_ZN10GuiElement9GetHeightEv:
 196              	.LFB1390:
 197              		.loc 2 124 0
 198              		.cfi_startproc
 199              	.LVL17:
 200              		.loc 2 124 0
 201 0000 80630028 		lwz 3,40(3)
 202              	.LVL18:
 203 0004 4E800020 		blr
 204              		.cfi_endproc
 205              	.LFE1390:
 206              		.size	_ZN10GuiElement9GetHeightEv, .-_ZN10GuiElement9GetHeightEv
 207              		.section	.text._ZN10GuiElement7SetSizeEii,"axG",@progbits,_ZN10GuiElement7SetSizeEii,comdat
 208              		.align 2
 209              		.weak	_ZN10GuiElement7SetSizeEii
 210              		.type	_ZN10GuiElement7SetSizeEii, @function
 211              	_ZN10GuiElement7SetSizeEii:
 212              	.LFB1391:
 213              		.loc 2 128 0
 214              		.cfi_startproc
 215              	.LVL19:
 216              		.loc 2 130 0
 217 0000 90830024 		stw 4,36(3)
 218              		.loc 2 132 0
 219              		.loc 2 131 0
 220 0004 90A30028 		stw 5,40(3)
 221              		.loc 2 132 0
 222 0008 4E800020 		blr
 223              		.cfi_endproc
 224              	.LFE1391:
 225              		.size	_ZN10GuiElement7SetSizeEii, .-_ZN10GuiElement7SetSizeEii
 226              		.section	.text._ZN10GuiElement10SetVisibleEb,"axG",@progbits,_ZN10GuiElement10SetVisibleEb,comdat
 227              		.align 2
 228              		.weak	_ZN10GuiElement10SetVisibleEb
 229              		.type	_ZN10GuiElement10SetVisibleEb, @function
 230              	_ZN10GuiElement10SetVisibleEb:
 231              	.LFB1392:
 232              		.loc 2 135 0
 233              		.cfi_startproc
 234              		.cfi_personality 0,__gxx_personality_v0
 235              		.cfi_lsda 0,.LLSDA1392
 236              	.LVL20:
 237 0000 7C0802A6 		mflr 0
 238 0004 9421FFE0 		stwu 1,-32(1)
 239              	.LCFI2:
 240              		.cfi_def_cfa_offset 32
 241              		.cfi_register 65, 0
 242 0008 9361000C 		stw 27,12(1)
 243              	.LBB1419:
 244              	.LBB1420:
 245              		.loc 1 2270 0
 246 000c 3B630004 		addi 27,3,4
 247              		.cfi_offset 27, -20
 248              	.LBE1420:
 249              	.LBE1419:
 250              		.loc 2 135 0
 251 0010 90010024 		stw 0,36(1)
 252 0014 93C10018 		stw 30,24(1)
 253 0018 7C7E1B78 		mr 30,3
 254              		.cfi_offset 30, -8
 255              		.cfi_offset 65, 4
 256              	.LBB1443:
 257              	.LBB1437:
 258              	.LBB1421:
 259              	.LBB1422:
 260              		.loc 1 338 0
 261 001c 81230004 		lwz 9,4(3)
 262 0020 7F63DB78 		mr 3,27
 263              	.LVL21:
 264              	.LBE1422:
 265              	.LBE1421:
 266              	.LBE1437:
 267              	.LBE1443:
 268              		.loc 2 135 0
 269 0024 93810010 		stw 28,16(1)
 270 0028 7C9C2378 		mr 28,4
 271              		.cfi_offset 28, -16
 272              	.LBB1444:
 273              	.LBB1438:
 274              	.LBB1426:
 275              	.LBB1423:
 276              		.loc 1 338 0
 277 002c 80090008 		lwz 0,8(9)
 278              	.LBE1423:
 279              	.LBE1426:
 280              	.LBE1438:
 281              	.LBE1444:
 282              		.loc 2 135 0
 283 0030 93A10014 		stw 29,20(1)
 284              	.LBB1445:
 285              		.file 3 "d:/Projects/SaveGameManager/savegame-manager-gx/trunk/source/GUI/gui_tooltip.cpp"
 286              		.loc 3 160 0
 287 0034 7FDDF378 		mr 29,30
 288              		.cfi_offset 29, -12
 289              	.LBE1445:
 290              		.loc 2 135 0
 291 0038 93E1001C 		stw 31,28(1)
 292              	.LBB1446:
 293              	.LBB1439:
 294              	.LBB1427:
 295              	.LBB1424:
 296              		.loc 1 338 0
 297 003c 7C0903A6 		mtctr 0
 298              	.LBE1424:
 299              	.LBE1427:
 300              	.LBE1439:
 301              	.LBE1446:
 302              		.loc 2 137 0
 303 0040 989E001D 		stb 4,29(30)
 304              	.LVL22:
 305              	.LEHB0:
 306              	.LBB1447:
 307              	.LBB1440:
 308              	.LBB1428:
 309              	.LBB1425:
 310              		.loc 1 338 0
 311              		.cfi_offset 31, -4
 312 0044 4E800421 		bctrl
 313              	.LEHE0:
 314              	.LVL23:
 315              	.LBE1425:
 316              	.LBE1428:
 317              	.LBE1440:
 318              		.loc 3 160 0
 319 0048 87FD0008 		lwzu 31,8(29)
 320              	.LVL24:
 321              	.LBB1441:
 322              		.loc 1 2274 0
 323 004c 7F9FE800 		cmpw 7,31,29
 324 0050 419E002C 		beq- 7,.L17
 325              	.LVL25:
 326              	.L24:
 327              		.loc 1 2279 0
 328 0054 807F0008 		lwz 3,8(31)
 329 0058 7FC4F378 		mr 4,30
 330 005c 7F85E378 		mr 5,28
 331              	.LBB1429:
 332              	.LBB1430:
 333              		.file 4 "d:\\devkitpro\\devkitppc\\bin\\../lib/gcc/powerpc-eabi/4.6.3/../../../../powerpc-eabi/inc
 334              		.loc 4 234 0
 335 0060 83FF0000 		lwz 31,0(31)
 336              	.LVL26:
 337              	.LBE1430:
 338              	.LBE1429:
 339              		.loc 1 2279 0
 340 0064 81230000 		lwz 9,0(3)
 341 0068 8009000C 		lwz 0,12(9)
 342 006c 7C0903A6 		mtctr 0
 343              	.LEHB1:
 344 0070 4E800421 		bctrl
 345              	.LEHE1:
 346              	.LVL27:
 347              		.loc 1 2274 0
 348 0074 7F9DF800 		cmpw 7,29,31
 349 0078 409EFFDC 		bne+ 7,.L24
 350              	.LVL28:
 351              	.L17:
 352              	.LBB1431:
 353              	.LBB1432:
 354              	.LBB1433:
 355              		.loc 1 343 0
 356 007c 813E0004 		lwz 9,4(30)
 357 0080 7F63DB78 		mr 3,27
 358 0084 8009000C 		lwz 0,12(9)
 359 0088 7C0903A6 		mtctr 0
 360              	.LEHB2:
 361 008c 4E800421 		bctrl
 362              	.LEHE2:
 363              	.LBE1433:
 364              	.LBE1432:
 365              	.LBE1431:
 366              	.LBE1441:
 367              	.LBE1447:
 368              		.loc 2 139 0
 369 0090 80010024 		lwz 0,36(1)
 370 0094 8361000C 		lwz 27,12(1)
 371              	.LVL29:
 372 0098 7C0803A6 		mtlr 0
 373 009c 83810010 		lwz 28,16(1)
 374              	.LVL30:
 375 00a0 83A10014 		lwz 29,20(1)
 376 00a4 83C10018 		lwz 30,24(1)
 377              	.LVL31:
 378 00a8 83E1001C 		lwz 31,28(1)
 379              	.LVL32:
 380 00ac 38210020 		addi 1,1,32
 381              		.cfi_remember_state
 382              	.LCFI3:
 383              		.cfi_def_cfa_offset 0
 384              		.cfi_restore 31
 385              		.cfi_restore 30
 386              		.cfi_restore 29
 387              		.cfi_restore 28
 388              		.cfi_restore 27
 389 00b0 4E800020 		blr
 390              	.LVL33:
 391              	.L23:
 392              	.LCFI4:
 393              		.cfi_restore_state
 394              	.LBB1448:
 395              	.LBB1442:
 396              	.LBB1434:
 397              	.LBB1435:
 398              	.LBB1436:
 399              		.loc 1 343 0
 400 00b4 813E0004 		lwz 9,4(30)
 401 00b8 7C7F1B78 		mr 31,3
 402              	.LVL34:
 403 00bc 7F63DB78 		mr 3,27
 404 00c0 8009000C 		lwz 0,12(9)
 405 00c4 7C0903A6 		mtctr 0
 406 00c8 4E800421 		bctrl
 407 00cc 7FE3FB78 		mr 3,31
 408              	.LEHB3:
 409 00d0 48000001 		bl _Unwind_Resume
 410              	.LEHE3:
 411              	.LBE1436:
 412              	.LBE1435:
 413              	.LBE1434:
 414              	.LBE1442:
 415              	.LBE1448:
 416              		.cfi_endproc
 417              	.LFE1392:
 418              		.globl __gxx_personality_v0
 419              		.section	.gcc_except_table,"a",@progbits
 420              	.LLSDA1392:
 421 0000 FF       		.byte	0xff
 422 0001 FF       		.byte	0xff
 423 0002 01       		.byte	0x1
 424 0003 13       		.uleb128 .LLSDACSE1392-.LLSDACSB1392
 425              	.LLSDACSB1392:
 426 0004 44       		.uleb128 .LEHB0-.LFB1392
 427 0005 04       		.uleb128 .LEHE0-.LEHB0
 428 0006 00       		.uleb128 0
 429 0007 00       		.uleb128 0
 430 0008 70       		.uleb128 .LEHB1-.LFB1392
 431 0009 04       		.uleb128 .LEHE1-.LEHB1
 432 000a B401     		.uleb128 .L23-.LFB1392
 433 000c 00       		.uleb128 0
 434 000d 8C01     		.uleb128 .LEHB2-.LFB1392
 435 000f 04       		.uleb128 .LEHE2-.LEHB2
 436 0010 00       		.uleb128 0
 437 0011 00       		.uleb128 0
 438 0012 D001     		.uleb128 .LEHB3-.LFB1392
 439 0014 04       		.uleb128 .LEHE3-.LEHB3
 440 0015 00       		.uleb128 0
 441 0016 00       		.uleb128 0
 442              	.LLSDACSE1392:
 443              		.section	.text._ZN10GuiElement10SetVisibleEb,"axG",@progbits,_ZN10GuiElement10SetVisibleEb,comdat
 444              		.size	_ZN10GuiElement10SetVisibleEb, .-_ZN10GuiElement10SetVisibleEb
 445              		.section	.text._ZN10GuiElement9IsVisibleEv,"axG",@progbits,_ZN10GuiElement9IsVisibleEv,comdat
 446              		.align 2
 447              		.weak	_ZN10GuiElement9IsVisibleEv
 448              		.type	_ZN10GuiElement9IsVisibleEv, @function
 449              	_ZN10GuiElement9IsVisibleEv:
 450              	.LFB1393:
 451              		.loc 2 142 0
 452              		.cfi_startproc
 453              	.LVL35:
 454              		.loc 2 142 0
 455 0000 8863001D 		lbz 3,29(3)
 456              	.LVL36:
 457 0004 4E800020 		blr
 458              		.cfi_endproc
 459              	.LFE1393:
 460              		.size	_ZN10GuiElement9IsVisibleEv, .-_ZN10GuiElement9IsVisibleEv
 461              		.section	.text._ZN10GuiElement12IsSelectableEv,"axG",@progbits,_ZN10GuiElement12IsSelectableEv,com
 462              		.align 2
 463              		.weak	_ZN10GuiElement12IsSelectableEv
 464              		.type	_ZN10GuiElement12IsSelectableEv, @function
 465              	_ZN10GuiElement12IsSelectableEv:
 466              	.LFB1394:
 467              		.loc 2 145 0
 468              		.cfi_startproc
 469              	.LVL37:
 470              		.loc 2 149 0
 471 0000 80030048 		lwz 0,72(3)
 472 0004 39200000 		li 9,0
 473 0008 2F800004 		cmpwi 7,0,4
 474 000c 419E0010 		beq- 7,.L27
 475              		.loc 2 149 0 is_stmt 0 discriminator 1
 476 0010 2F800002 		cmpwi 7,0,2
 477 0014 419E0008 		beq- 7,.L27
 478              		.loc 2 149 0 discriminator 3
 479 0018 8923001E 		lbz 9,30(3)
 480              	.L27:
 481              		.loc 2 150 0 is_stmt 1 discriminator 5
 482 001c 7D234B78 		mr 3,9
 483              	.LVL38:
 484 0020 4E800020 		blr
 485              		.cfi_endproc
 486              	.LFE1394:
 487              		.size	_ZN10GuiElement12IsSelectableEv, .-_ZN10GuiElement12IsSelectableEv
 488              		.section	.text._ZN10GuiElement11IsClickableEv,"axG",@progbits,_ZN10GuiElement11IsClickableEv,comda
 489              		.align 2
 490              		.weak	_ZN10GuiElement11IsClickableEv
 491              		.type	_ZN10GuiElement11IsClickableEv, @function
 492              	_ZN10GuiElement11IsClickableEv:
 493              	.LFB1395:
 494              		.loc 2 153 0
 495              		.cfi_startproc
 496              	.LVL39:
 497              		.loc 2 158 0
 498 0000 80030048 		lwz 0,72(3)
 499 0004 39200000 		li 9,0
 500 0008 2F800004 		cmpwi 7,0,4
 501 000c 419E0018 		beq- 7,.L31
 502              		.loc 2 158 0 is_stmt 0 discriminator 1
 503 0010 2F800002 		cmpwi 7,0,2
 504 0014 419E0010 		beq- 7,.L31
 505              		.loc 2 158 0 discriminator 3
 506 0018 2F800003 		cmpwi 7,0,3
 507 001c 419E0008 		beq- 7,.L31
 508              		.loc 2 158 0 discriminator 4
 509 0020 8923001F 		lbz 9,31(3)
 510              	.L31:
 511              		.loc 2 159 0 is_stmt 1 discriminator 6
 512 0024 7D234B78 		mr 3,9
 513              	.LVL40:
 514 0028 4E800020 		blr
 515              		.cfi_endproc
 516              	.LFE1395:
 517              		.size	_ZN10GuiElement11IsClickableEv, .-_ZN10GuiElement11IsClickableEv
 518              		.section	.text._ZN10GuiElement10IsHoldableEv,"axG",@progbits,_ZN10GuiElement10IsHoldableEv,comdat
 519              		.align 2
 520              		.weak	_ZN10GuiElement10IsHoldableEv
 521              		.type	_ZN10GuiElement10IsHoldableEv, @function
 522              	_ZN10GuiElement10IsHoldableEv:
 523              	.LFB1396:
 524              		.loc 2 162 0
 525              		.cfi_startproc
 526              	.LVL41:
 527              		.loc 2 162 0
 528 0000 81230048 		lwz 9,72(3)
 529 0004 38000000 		li 0,0
 530 0008 2F890004 		cmpwi 7,9,4
 531 000c 419E0008 		beq- 7,.L36
 532              		.loc 2 162 0 is_stmt 0 discriminator 1
 533 0010 88030020 		lbz 0,32(3)
 534              	.L36:
 535              		.loc 2 162 0 discriminator 4
 536 0014 7C030378 		mr 3,0
 537              	.LVL42:
 538 0018 4E800020 		blr
 539              		.cfi_endproc
 540              	.LFE1396:
 541              		.size	_ZN10GuiElement10IsHoldableEv, .-_ZN10GuiElement10IsHoldableEv
 542              		.section	.text._ZN10GuiElement13SetSelectableEb,"axG",@progbits,_ZN10GuiElement13SetSelectableEb,c
 543              		.align 2
 544              		.weak	_ZN10GuiElement13SetSelectableEb
 545              		.type	_ZN10GuiElement13SetSelectableEb, @function
 546              	_ZN10GuiElement13SetSelectableEb:
 547              	.LFB1397:
 548              		.loc 2 165 0 is_stmt 1
 549              		.cfi_startproc
 550              	.LVL43:
 551              		.loc 2 165 0
 552 0000 9883001E 		stb 4,30(3)
 553 0004 4E800020 		blr
 554              		.cfi_endproc
 555              	.LFE1397:
 556              		.size	_ZN10GuiElement13SetSelectableEb, .-_ZN10GuiElement13SetSelectableEb
 557              		.section	.text._ZN10GuiElement12SetClickableEb,"axG",@progbits,_ZN10GuiElement12SetClickableEb,com
 558              		.align 2
 559              		.weak	_ZN10GuiElement12SetClickableEb
 560              		.type	_ZN10GuiElement12SetClickableEb, @function
 561              	_ZN10GuiElement12SetClickableEb:
 562              	.LFB1398:
 563              		.loc 2 168 0
 564              		.cfi_startproc
 565              	.LVL44:
 566              		.loc 2 168 0
 567 0000 9883001F 		stb 4,31(3)
 568 0004 4E800020 		blr
 569              		.cfi_endproc
 570              	.LFE1398:
 571              		.size	_ZN10GuiElement12SetClickableEb, .-_ZN10GuiElement12SetClickableEb
 572              		.section	.text._ZN10GuiElement11SetHoldableEb,"axG",@progbits,_ZN10GuiElement11SetHoldableEb,comda
 573              		.align 2
 574              		.weak	_ZN10GuiElement11SetHoldableEb
 575              		.type	_ZN10GuiElement11SetHoldableEb, @function
 576              	_ZN10GuiElement11SetHoldableEb:
 577              	.LFB1399:
 578              		.loc 2 171 0
 579              		.cfi_startproc
 580              	.LVL45:
 581              		.loc 2 171 0
 582 0000 98830020 		stb 4,32(3)
 583 0004 4E800020 		blr
 584              		.cfi_endproc
 585              	.LFE1399:
 586              		.size	_ZN10GuiElement11SetHoldableEb, .-_ZN10GuiElement11SetHoldableEb
 587              		.section	.text._ZN10GuiElement8GetStateEv,"axG",@progbits,_ZN10GuiElement8GetStateEv,comdat
 588              		.align 2
 589              		.weak	_ZN10GuiElement8GetStateEv
 590              		.type	_ZN10GuiElement8GetStateEv, @function
 591              	_ZN10GuiElement8GetStateEv:
 592              	.LFB1400:
 593              		.loc 2 178 0
 594              		.cfi_startproc
 595              	.LVL46:
 596              		.loc 2 178 0
 597 0000 80630048 		lwz 3,72(3)
 598              	.LVL47:
 599 0004 4E800020 		blr
 600              		.cfi_endproc
 601              	.LFE1400:
 602              		.size	_ZN10GuiElement8GetStateEv, .-_ZN10GuiElement8GetStateEv
 603              		.section	.text._ZN10GuiElement12GetStateChanEv,"axG",@progbits,_ZN10GuiElement12GetStateChanEv,com
 604              		.align 2
 605              		.weak	_ZN10GuiElement12GetStateChanEv
 606              		.type	_ZN10GuiElement12GetStateChanEv, @function
 607              	_ZN10GuiElement12GetStateChanEv:
 608              	.LFB1401:
 609              		.loc 2 181 0
 610              		.cfi_startproc
 611              	.LVL48:
 612              		.loc 2 181 0
 613 0000 8063004C 		lwz 3,76(3)
 614              	.LVL49:
 615 0004 4E800020 		blr
 616              		.cfi_endproc
 617              	.LFE1401:
 618              		.size	_ZN10GuiElement12GetStateChanEv, .-_ZN10GuiElement12GetStateChanEv
 619              		.section	.text._ZN10GuiElement8SetAlphaEi,"axG",@progbits,_ZN10GuiElement8SetAlphaEi,comdat
 620              		.align 2
 621              		.weak	_ZN10GuiElement8SetAlphaEi
 622              		.type	_ZN10GuiElement8SetAlphaEi, @function
 623              	_ZN10GuiElement8SetAlphaEi:
 624              	.LFB1403:
 625              		.loc 2 190 0
 626              		.cfi_startproc
 627              	.LVL50:
 628              		.loc 2 190 0
 629 0000 90830038 		stw 4,56(3)
 630 0004 4E800020 		blr
 631              		.cfi_endproc
 632              	.LFE1403:
 633              		.size	_ZN10GuiElement8SetAlphaEi, .-_ZN10GuiElement8SetAlphaEi
 634              		.section	.text._ZN10GuiElement8GetAlphaEv,"axG",@progbits,_ZN10GuiElement8GetAlphaEv,comdat
 635              		.align 2
 636              		.weak	_ZN10GuiElement8GetAlphaEv
 637              		.type	_ZN10GuiElement8GetAlphaEv, @function
 638              	_ZN10GuiElement8GetAlphaEv:
 639              	.LFB1404:
 640              		.loc 2 194 0
 641              		.cfi_startproc
 642              	.LVL51:
 643 0000 7C0802A6 		mflr 0
 644 0004 9421FFD8 		stwu 1,-40(1)
 645              	.LCFI5:
 646              		.cfi_def_cfa_offset 40
 647              		.cfi_register 65, 0
 648 0008 93E10024 		stw 31,36(1)
 649 000c 9001002C 		stw 0,44(1)
 650              	.LBB1449:
 651              		.loc 2 198 0
 652 0010 83E3006C 		lwz 31,108(3)
 653              		.cfi_offset 65, 4
 654              		.cfi_offset 31, -4
 655 0014 2F9F0000 		cmpwi 7,31,0
 656 0018 419C0094 		blt- 7,.L47
 657              	.L45:
 658              	.LVL52:
 659              		.loc 2 203 0
 660 001c 80630060 		lwz 3,96(3)
 661              	.LVL53:
 662 0020 2F830000 		cmpwi 7,3,0
 663 0024 419E0070 		beq- 7,.L46
 664              		.loc 2 204 0
 665 0028 81230000 		lwz 9,0(3)
 666 002c 6FFF8000 		xoris 31,31,0x8000
 667              	.LVL54:
 668 0030 80090064 		lwz 0,100(9)
 669 0034 7C0903A6 		mtctr 0
 670 0038 4E800421 		bctrl
 671 003c 3C004330 		lis 0,0x4330
 672 0040 6C638000 		xoris 3,3,0x8000
 673 0044 90010010 		stw 0,16(1)
 674 0048 90610014 		stw 3,20(1)
 675 004c 3D200000 		lis 9,.LC1@ha
 676 0050 C0090000 		lfs 0,.LC1@l(9)
 677 0054 3D200000 		lis 9,.LC2@ha
 678 0058 C9A10010 		lfd 13,16(1)
 679 005c C1890004 		lfs 12,.LC2@l(9)
 680 0060 39210018 		addi 9,1,24
 681 0064 FDAD0028 		fsub 13,13,0
 682 0068 93E1000C 		stw 31,12(1)
 683 006c 90010008 		stw 0,8(1)
 684 0070 FDA06818 		frsp 13,13
 685 0074 EDAD6024 		fdivs 13,13,12
 686 0078 C9810008 		lfd 12,8(1)
 687 007c FC0C0028 		fsub 0,12,0
 688 0080 FC000018 		frsp 0,0
 689 0084 EC000372 		fmuls 0,0,13
 690 0088 FC00001E 		fctiwz 0,0
 691 008c 7C004FAE 		stfiwx 0,0,9
 692 0090 83E10018 		lwz 31,24(1)
 693              	.LVL55:
 694              	.L46:
 695              	.LBE1449:
 696              		.loc 2 207 0
 697 0094 8001002C 		lwz 0,44(1)
 698 0098 7FE3FB78 		mr 3,31
 699 009c 83E10024 		lwz 31,36(1)
 700              	.LVL56:
 701 00a0 7C0803A6 		mtlr 0
 702 00a4 38210028 		addi 1,1,40
 703              		.cfi_remember_state
 704              	.LCFI6:
 705              		.cfi_def_cfa_offset 0
 706              		.cfi_restore 31
 707 00a8 4E800020 		blr
 708              	.LVL57:
 709              	.L47:
 710              	.LCFI7:
 711              		.cfi_restore_state
 712              	.LBB1450:
 713              		.loc 2 201 0
 714 00ac 83E30038 		lwz 31,56(3)
 715              	.LVL58:
 716 00b0 4BFFFF6C 		b .L45
 717              	.LBE1450:
 718              		.cfi_endproc
 719              	.LFE1404:
 720              		.size	_ZN10GuiElement8GetAlphaEv, .-_ZN10GuiElement8GetAlphaEv
 721              		.section	.text._ZN10GuiElement8SetScaleEf,"axG",@progbits,_ZN10GuiElement8SetScaleEf,comdat
 722              		.align 2
 723              		.weak	_ZN10GuiElement8SetScaleEf
 724              		.type	_ZN10GuiElement8SetScaleEf, @function
 725              	_ZN10GuiElement8SetScaleEf:
 726              	.LFB1405:
 727              		.loc 2 210 0
 728              		.cfi_startproc
 729              	.LVL59:
 730              		.loc 2 212 0
 731 0000 D023003C 		stfs 1,60(3)
 732              		.loc 2 214 0
 733              		.loc 2 213 0
 734 0004 D0230040 		stfs 1,64(3)
 735              		.loc 2 214 0
 736 0008 4E800020 		blr
 737              		.cfi_endproc
 738              	.LFE1405:
 739              		.size	_ZN10GuiElement8SetScaleEf, .-_ZN10GuiElement8SetScaleEf
 740              		.section	.text._ZN10GuiElement9SetScaleXEf,"axG",@progbits,_ZN10GuiElement9SetScaleXEf,comdat
 741              		.align 2
 742              		.weak	_ZN10GuiElement9SetScaleXEf
 743              		.type	_ZN10GuiElement9SetScaleXEf, @function
 744              	_ZN10GuiElement9SetScaleXEf:
 745              	.LFB1406:
 746              		.loc 2 217 0
 747              		.cfi_startproc
 748              	.LVL60:
 749              		.loc 2 217 0
 750 0000 D023003C 		stfs 1,60(3)
 751 0004 4E800020 		blr
 752              		.cfi_endproc
 753              	.LFE1406:
 754              		.size	_ZN10GuiElement9SetScaleXEf, .-_ZN10GuiElement9SetScaleXEf
 755              		.section	.text._ZN10GuiElement9SetScaleYEf,"axG",@progbits,_ZN10GuiElement9SetScaleYEf,comdat
 756              		.align 2
 757              		.weak	_ZN10GuiElement9SetScaleYEf
 758              		.type	_ZN10GuiElement9SetScaleYEf, @function
 759              	_ZN10GuiElement9SetScaleYEf:
 760              	.LFB1407:
 761              		.loc 2 220 0
 762              		.cfi_startproc
 763              	.LVL61:
 764              		.loc 2 220 0
 765 0000 D0230040 		stfs 1,64(3)
 766 0004 4E800020 		blr
 767              		.cfi_endproc
 768              	.LFE1407:
 769              		.size	_ZN10GuiElement9SetScaleYEf, .-_ZN10GuiElement9SetScaleYEf
 770              		.section	.text._ZN10GuiElement8GetScaleEv,"axG",@progbits,_ZN10GuiElement8GetScaleEv,comdat
 771              		.align 2
 772              		.weak	_ZN10GuiElement8GetScaleEv
 773              		.type	_ZN10GuiElement8GetScaleEv, @function
 774              	_ZN10GuiElement8GetScaleEv:
 775              	.LFB1408:
 776              		.loc 2 223 0
 777              		.cfi_startproc
 778              	.LVL62:
 779 0000 7C0802A6 		mflr 0
 780 0004 9421FFF0 		stwu 1,-16(1)
 781              	.LCFI8:
 782              		.cfi_def_cfa_offset 16
 783              		.cfi_register 65, 0
 784              	.LBB1451:
 785              		.loc 2 225 0
 786 0008 3D200000 		lis 9,.LC3@ha
 787              	.LBE1451:
 788              		.loc 2 223 0
 789 000c DBE10008 		stfd 31,8(1)
 790 0010 90010014 		stw 0,20(1)
 791              	.LBB1452:
 792              		.loc 2 225 0
 793 0014 C0030040 		lfs 0,64(3)
 794 0018 C3E3003C 		lfs 31,60(3)
 795              		.cfi_offset 65, 4
 796              		.cfi_offset 63, -8
 797              		.loc 2 227 0
 798 001c 81630060 		lwz 11,96(3)
 799              		.loc 2 225 0
 800 0020 EFFF002A 		fadds 31,31,0
 801 0024 C0090008 		lfs 0,.LC3@l(9)
 802              		.loc 2 227 0
 803 0028 2F8B0000 		cmpwi 7,11,0
 804              		.loc 2 225 0
 805 002c EFFF0032 		fmuls 31,31,0
 806 0030 C0030070 		lfs 0,112(3)
 807 0034 EFFF0032 		fmuls 31,31,0
 808              	.LVL63:
 809              		.loc 2 227 0
 810 0038 419E001C 		beq- 7,.L52
 811              		.loc 2 228 0
 812 003c 812B0000 		lwz 9,0(11)
 813 0040 7D635B78 		mr 3,11
 814              	.LVL64:
 815 0044 80090074 		lwz 0,116(9)
 816 0048 7C0903A6 		mtctr 0
 817 004c 4E800421 		bctrl
 818 0050 EFFF0072 		fmuls 31,31,1
 819              	.LVL65:
 820              	.L52:
 821              	.LBE1452:
 822              		.loc 2 231 0
 823 0054 80010014 		lwz 0,20(1)
 824 0058 FC20F890 		fmr 1,31
 825 005c CBE10008 		lfd 31,8(1)
 826              	.LVL66:
 827 0060 7C0803A6 		mtlr 0
 828 0064 38210010 		addi 1,1,16
 829              	.LCFI9:
 830              		.cfi_def_cfa_offset 0
 831              		.cfi_restore 63
 832 0068 4E800020 		blr
 833              		.cfi_endproc
 834              	.LFE1408:
 835              		.size	_ZN10GuiElement8GetScaleEv, .-_ZN10GuiElement8GetScaleEv
 836              		.section	.text._ZN10GuiElement9GetScaleXEv,"axG",@progbits,_ZN10GuiElement9GetScaleXEv,comdat
 837              		.align 2
 838              		.weak	_ZN10GuiElement9GetScaleXEv
 839              		.type	_ZN10GuiElement9GetScaleXEv, @function
 840              	_ZN10GuiElement9GetScaleXEv:
 841              	.LFB1409:
 842              		.loc 2 234 0
 843              		.cfi_startproc
 844              	.LVL67:
 845 0000 7C0802A6 		mflr 0
 846 0004 9421FFF0 		stwu 1,-16(1)
 847              	.LCFI10:
 848              		.cfi_def_cfa_offset 16
 849              		.cfi_register 65, 0
 850 0008 DBE10008 		stfd 31,8(1)
 851 000c 90010014 		stw 0,20(1)
 852              	.LBB1453:
 853              		.loc 2 238 0
 854 0010 81630060 		lwz 11,96(3)
 855              		.loc 2 236 0
 856 0014 C3E3003C 		lfs 31,60(3)
 857              		.cfi_offset 65, 4
 858              		.cfi_offset 63, -8
 859              		.loc 2 238 0
 860 0018 2F8B0000 		cmpwi 7,11,0
 861              		.loc 2 236 0
 862 001c C0030070 		lfs 0,112(3)
 863 0020 EFFF0032 		fmuls 31,31,0
 864              	.LVL68:
 865              		.loc 2 238 0
 866 0024 419E001C 		beq- 7,.L54
 867              		.loc 2 239 0
 868 0028 812B0000 		lwz 9,0(11)
 869 002c 7D635B78 		mr 3,11
 870              	.LVL69:
 871 0030 80090078 		lwz 0,120(9)
 872 0034 7C0903A6 		mtctr 0
 873 0038 4E800421 		bctrl
 874 003c EFFF0072 		fmuls 31,31,1
 875              	.LVL70:
 876              	.L54:
 877              	.LBE1453:
 878              		.loc 2 242 0
 879 0040 80010014 		lwz 0,20(1)
 880 0044 FC20F890 		fmr 1,31
 881 0048 CBE10008 		lfd 31,8(1)
 882              	.LVL71:
 883 004c 7C0803A6 		mtlr 0
 884 0050 38210010 		addi 1,1,16
 885              	.LCFI11:
 886              		.cfi_def_cfa_offset 0
 887              		.cfi_restore 63
 888 0054 4E800020 		blr
 889              		.cfi_endproc
 890              	.LFE1409:
 891              		.size	_ZN10GuiElement9GetScaleXEv, .-_ZN10GuiElement9GetScaleXEv
 892              		.section	.text._ZN10GuiElement9GetScaleYEv,"axG",@progbits,_ZN10GuiElement9GetScaleYEv,comdat
 893              		.align 2
 894              		.weak	_ZN10GuiElement9GetScaleYEv
 895              		.type	_ZN10GuiElement9GetScaleYEv, @function
 896              	_ZN10GuiElement9GetScaleYEv:
 897              	.LFB1410:
 898              		.loc 2 245 0
 899              		.cfi_startproc
 900              	.LVL72:
 901 0000 7C0802A6 		mflr 0
 902 0004 9421FFF0 		stwu 1,-16(1)
 903              	.LCFI12:
 904              		.cfi_def_cfa_offset 16
 905              		.cfi_register 65, 0
 906 0008 DBE10008 		stfd 31,8(1)
 907 000c 90010014 		stw 0,20(1)
 908              	.LBB1454:
 909              		.loc 2 249 0
 910 0010 81630060 		lwz 11,96(3)
 911              		.loc 2 247 0
 912 0014 C3E30040 		lfs 31,64(3)
 913              		.cfi_offset 65, 4
 914              		.cfi_offset 63, -8
 915              		.loc 2 249 0
 916 0018 2F8B0000 		cmpwi 7,11,0
 917              		.loc 2 247 0
 918 001c C0030070 		lfs 0,112(3)
 919 0020 EFFF0032 		fmuls 31,31,0
 920              	.LVL73:
 921              		.loc 2 249 0
 922 0024 419E001C 		beq- 7,.L56
 923              		.loc 2 250 0
 924 0028 812B0000 		lwz 9,0(11)
 925 002c 7D635B78 		mr 3,11
 926              	.LVL74:
 927 0030 8009007C 		lwz 0,124(9)
 928 0034 7C0903A6 		mtctr 0
 929 0038 4E800421 		bctrl
 930 003c EFFF0072 		fmuls 31,31,1
 931              	.LVL75:
 932              	.L56:
 933              	.LBE1454:
 934              		.loc 2 253 0
 935 0040 80010014 		lwz 0,20(1)
 936 0044 FC20F890 		fmr 1,31
 937 0048 CBE10008 		lfd 31,8(1)
 938              	.LVL76:
 939 004c 7C0803A6 		mtlr 0
 940 0050 38210010 		addi 1,1,16
 941              	.LCFI13:
 942              		.cfi_def_cfa_offset 0
 943              		.cfi_restore 63
 944 0054 4E800020 		blr
 945              		.cfi_endproc
 946              	.LFE1410:
 947              		.size	_ZN10GuiElement9GetScaleYEv, .-_ZN10GuiElement9GetScaleYEv
 948              		.section	.text._ZN10GuiElement6RumbleEv,"axG",@progbits,_ZN10GuiElement6RumbleEv,comdat
 949              		.align 2
 950              		.weak	_ZN10GuiElement6RumbleEv
 951              		.type	_ZN10GuiElement6RumbleEv, @function
 952              	_ZN10GuiElement6RumbleEv:
 953              	.LFB1411:
 954              		.loc 2 256 0
 955              		.cfi_startproc
 956              	.LVL77:
 957              		.loc 2 256 0
 958 0000 8863001C 		lbz 3,28(3)
 959              	.LVL78:
 960 0004 4E800020 		blr
 961              		.cfi_endproc
 962              	.LFE1411:
 963              		.size	_ZN10GuiElement6RumbleEv, .-_ZN10GuiElement6RumbleEv
 964              		.section	.text._ZN10GuiElement9SetRumbleEb,"axG",@progbits,_ZN10GuiElement9SetRumbleEb,comdat
 965              		.align 2
 966              		.weak	_ZN10GuiElement9SetRumbleEb
 967              		.type	_ZN10GuiElement9SetRumbleEb, @function
 968              	_ZN10GuiElement9SetRumbleEb:
 969              	.LFB1412:
 970              		.loc 2 259 0
 971              		.cfi_startproc
 972              	.LVL79:
 973              		.loc 2 259 0
 974 0000 9883001C 		stb 4,28(3)
 975 0004 4E800020 		blr
 976              		.cfi_endproc
 977              	.LFE1412:
 978              		.size	_ZN10GuiElement9SetRumbleEb, .-_ZN10GuiElement9SetRumbleEb
 979              		.section	.text._ZN10GuiElement13SetEffectGrowEv,"axG",@progbits,_ZN10GuiElement13SetEffectGrowEv,c
 980              		.align 2
 981              		.weak	_ZN10GuiElement13SetEffectGrowEv
 982              		.type	_ZN10GuiElement13SetEffectGrowEv, @function
 983              	_ZN10GuiElement13SetEffectGrowEv:
 984              	.LFB1413:
 985              		.loc 2 271 0
 986              		.cfi_startproc
 987              	.LVL80:
 988 0000 7C0802A6 		mflr 0
 989 0004 9421FFF8 		stwu 1,-8(1)
 990              	.LCFI14:
 991              		.cfi_def_cfa_offset 8
 992              		.cfi_register 65, 0
 993 0008 81230000 		lwz 9,0(3)
 994 000c 38800100 		li 4,256
 995 0010 38A00004 		li 5,4
 996 0014 38C0006E 		li 6,110
 997 0018 9001000C 		stw 0,12(1)
 998              		.loc 2 271 0
 999 001c 8009008C 		lwz 0,140(9)
 1000              		.cfi_offset 65, 4
 1001 0020 7C0903A6 		mtctr 0
 1002 0024 4E800421 		bctrl
 1003              	.LVL81:
 1004 0028 8001000C 		lwz 0,12(1)
 1005 002c 38210008 		addi 1,1,8
 1006              	.LCFI15:
 1007              		.cfi_def_cfa_offset 0
 1008 0030 7C0803A6 		mtlr 0
 1009 0034 4E800020 		blr
 1010              		.cfi_endproc
 1011              	.LFE1413:
 1012              		.size	_ZN10GuiElement13SetEffectGrowEv, .-_ZN10GuiElement13SetEffectGrowEv
 1013              		.section	.text._ZNK10GuiElement9GetEffectEv,"axG",@progbits,_ZNK10GuiElement9GetEffectEv,comdat
 1014              		.align 2
 1015              		.weak	_ZNK10GuiElement9GetEffectEv
 1016              		.type	_ZNK10GuiElement9GetEffectEv, @function
 1017              	_ZNK10GuiElement9GetEffectEv:
 1018              	.LFB1414:
 1019              		.loc 2 276 0
 1020              		.cfi_startproc
 1021              	.LVL82:
 1022              		.loc 2 276 0
 1023 0000 80630078 		lwz 3,120(3)
 1024              	.LVL83:
 1025 0004 4E800020 		blr
 1026              		.cfi_endproc
 1027              	.LFE1414:
 1028              		.size	_ZNK10GuiElement9GetEffectEv, .-_ZNK10GuiElement9GetEffectEv
 1029              		.section	.text._ZNK10GuiElement10IsAnimatedEv,"axG",@progbits,_ZNK10GuiElement10IsAnimatedEv,comda
 1030              		.align 2
 1031              		.weak	_ZNK10GuiElement10IsAnimatedEv
 1032              		.type	_ZNK10GuiElement10IsAnimatedEv, @function
 1033              	_ZNK10GuiElement10IsAnimatedEv:
 1034              	.LFB1415:
 1035              		.loc 2 278 0
 1036              		.cfi_startproc
 1037              	.LVL84:
 1038 0000 7C0802A6 		mflr 0
 1039 0004 9421FFF8 		stwu 1,-8(1)
 1040              	.LCFI16:
 1041              		.cfi_def_cfa_offset 8
 1042              		.cfi_register 65, 0
 1043 0008 9001000C 		stw 0,12(1)
 1044              		.loc 2 278 0
 1045 000c 81230000 		lwz 9,0(3)
 1046 0010 80090098 		lwz 0,152(9)
 1047              		.cfi_offset 65, 4
 1048 0014 7C0903A6 		mtctr 0
 1049 0018 4E800421 		bctrl
 1050              	.LVL85:
 1051 001c 7C60FE70 		srawi 0,3,31
 1052 0020 7C630050 		subf 3,3,0
 1053 0024 8001000C 		lwz 0,12(1)
 1054 0028 54630FFE 		srwi 3,3,31
 1055 002c 7C0803A6 		mtlr 0
 1056 0030 38210008 		addi 1,1,8
 1057              	.LCFI17:
 1058              		.cfi_def_cfa_offset 0
 1059 0034 4E800020 		blr
 1060              		.cfi_endproc
 1061              	.LFE1415:
 1062              		.size	_ZNK10GuiElement10IsAnimatedEv, .-_ZNK10GuiElement10IsAnimatedEv
 1063              		.section	.text._ZN10GuiElement9SetBoundsE4RectIiE,"axG",@progbits,_ZN10GuiElement9SetBoundsE4RectI
 1064              		.align 2
 1065              		.weak	_ZN10GuiElement9SetBoundsE4RectIiE
 1066              		.type	_ZN10GuiElement9SetBoundsE4RectIiE, @function
 1067              	_ZN10GuiElement9SetBoundsE4RectIiE:
 1068              	.LFB1416:
 1069              		.loc 2 280 0
 1070              		.cfi_startproc
 1071              	.LVL86:
 1072              	.LBB1455:
 1073              	.LBB1456:
 1074              		.file 5 "d:/Projects/SaveGameManager/savegame-manager-gx/trunk/source/GUI/../Tools/Rect.h"
 1075              		.loc 5 30 0
 1076 0000 81440000 		lwz 10,0(4)
 1077              	.LBE1456:
 1078              	.LBE1455:
 1079              		.loc 2 280 0
 1080              	.LBB1458:
 1081              	.LBB1457:
 1082              		.loc 5 31 0
 1083 0004 81640008 		lwz 11,8(4)
 1084              		.loc 5 32 0
 1085 0008 81240004 		lwz 9,4(4)
 1086              		.loc 5 33 0
 1087 000c 8004000C 		lwz 0,12(4)
 1088              	.LVL87:
 1089              		.loc 5 30 0
 1090 0010 91430050 		stw 10,80(3)
 1091              		.loc 5 31 0
 1092 0014 91630058 		stw 11,88(3)
 1093              		.loc 5 32 0
 1094 0018 91230054 		stw 9,84(3)
 1095              		.loc 5 33 0
 1096 001c 9003005C 		stw 0,92(3)
 1097              	.LBE1457:
 1098              	.LBE1458:
 1099              		.loc 2 280 0
 1100 0020 4E800020 		blr
 1101              		.cfi_endproc
 1102              	.LFE1416:
 1103              		.size	_ZN10GuiElement9SetBoundsE4RectIiE, .-_ZN10GuiElement9SetBoundsE4RectIiE
 1104              		.section	.text._ZN10GuiElement8IsInsideEii,"axG",@progbits,_ZN10GuiElement8IsInsideEii,comdat
 1105              		.align 2
 1106              		.weak	_ZN10GuiElement8IsInsideEii
 1107              		.type	_ZN10GuiElement8IsInsideEii, @function
 1108              	_ZN10GuiElement8IsInsideEii:
 1109              	.LFB1417:
 1110              		.loc 2 285 0
 1111              		.cfi_startproc
 1112              	.LVL88:
 1113 0000 7C0802A6 		mflr 0
 1114 0004 9421FFE8 		stwu 1,-24(1)
 1115              	.LCFI18:
 1116              		.cfi_def_cfa_offset 24
 1117              		.cfi_register 65, 0
 1118 0008 93810008 		stw 28,8(1)
 1119 000c 7CBC2B78 		mr 28,5
 1120              		.cfi_offset 28, -16
 1121 0010 9001001C 		stw 0,28(1)
 1122 0014 93A1000C 		stw 29,12(1)
 1123              		.loc 2 290 0
 1124 0018 3BA00000 		li 29,0
 1125              		.cfi_offset 29, -12
 1126              		.cfi_offset 65, 4
 1127              		.loc 2 287 0
 1128 001c 81230000 		lwz 9,0(3)
 1129              		.loc 2 285 0
 1130 0020 93C10010 		stw 30,16(1)
 1131 0024 7C9E2378 		mr 30,4
 1132              		.cfi_offset 30, -8
 1133              		.loc 2 287 0
 1134 0028 80090010 		lwz 0,16(9)
 1135              		.loc 2 285 0
 1136 002c 93E10014 		stw 31,20(1)
 1137              		.loc 2 285 0
 1138 0030 7C7F1B78 		mr 31,3
 1139              		.cfi_offset 31, -4
 1140              		.loc 2 287 0
 1141 0034 7C0903A6 		mtctr 0
 1142 0038 4E800421 		bctrl
 1143              	.LVL89:
 1144              		.loc 2 290 0
 1145 003c 7F83F000 		cmpw 7,3,30
 1146 0040 419C0028 		blt- 7,.L68
 1147              	.L64:
 1148              		.loc 2 291 0 discriminator 6
 1149 0044 8001001C 		lwz 0,28(1)
 1150 0048 7FA3EB78 		mr 3,29
 1151 004c 83810008 		lwz 28,8(1)
 1152              	.LVL90:
 1153 0050 7C0803A6 		mtlr 0
 1154 0054 83A1000C 		lwz 29,12(1)
 1155 0058 83C10010 		lwz 30,16(1)
 1156              	.LVL91:
 1157 005c 83E10014 		lwz 31,20(1)
 1158              	.LVL92:
 1159 0060 38210018 		addi 1,1,24
 1160              		.cfi_remember_state
 1161              	.LCFI19:
 1162              		.cfi_def_cfa_offset 0
 1163              		.cfi_restore 31
 1164              		.cfi_restore 30
 1165              		.cfi_restore 29
 1166              		.cfi_restore 28
 1167 0064 4E800020 		blr
 1168              	.LVL93:
 1169              	.L68:
 1170              	.LCFI20:
 1171              		.cfi_restore_state
 1172              		.loc 2 288 0 discriminator 1
 1173 0068 813F0000 		lwz 9,0(31)
 1174 006c 7FE3FB78 		mr 3,31
 1175 0070 80090010 		lwz 0,16(9)
 1176 0074 7C0903A6 		mtctr 0
 1177 0078 4E800421 		bctrl
 1178              		.loc 2 290 0 discriminator 1
 1179 007c 801F0024 		lwz 0,36(31)
 1180 0080 7C030214 		add 0,3,0
 1181 0084 7F9E0000 		cmpw 7,30,0
 1182 0088 409CFFBC 		bge+ 7,.L64
 1183              		.loc 2 289 0 discriminator 3
 1184 008c 813F0000 		lwz 9,0(31)
 1185 0090 7FE3FB78 		mr 3,31
 1186 0094 80090014 		lwz 0,20(9)
 1187 0098 7C0903A6 		mtctr 0
 1188 009c 4E800421 		bctrl
 1189              		.loc 2 290 0 discriminator 3
 1190 00a0 7F83E000 		cmpw 7,3,28
 1191 00a4 409CFFA0 		bge+ 7,.L64
 1192              		.loc 2 290 0 is_stmt 0 discriminator 4
 1193 00a8 813F0000 		lwz 9,0(31)
 1194 00ac 7FE3FB78 		mr 3,31
 1195 00b0 80090014 		lwz 0,20(9)
 1196 00b4 7C0903A6 		mtctr 0
 1197 00b8 4E800421 		bctrl
 1198 00bc 801F0028 		lwz 0,40(31)
 1199 00c0 7C030214 		add 0,3,0
 1200              		.loc 2 285 0 is_stmt 1 discriminator 4
 1201 00c4 7F9C0000 		cmpw 7,28,0
 1202 00c8 7FA00026 		mfcr 29
 1203 00cc 57BDEFFE 		rlwinm 29,29,29,1
 1204 00d0 4BFFFF74 		b .L64
 1205              		.cfi_endproc
 1206              	.LFE1417:
 1207              		.size	_ZN10GuiElement8IsInsideEii, .-_ZN10GuiElement8IsInsideEii
 1208              		.section	.text._ZN10GuiElement11SetPositionEii,"axG",@progbits,_ZN10GuiElement11SetPositionEii,com
 1209              		.align 2
 1210              		.weak	_ZN10GuiElement11SetPositionEii
 1211              		.type	_ZN10GuiElement11SetPositionEii, @function
 1212              	_ZN10GuiElement11SetPositionEii:
 1213              	.LFB1418:
 1214              		.loc 2 295 0
 1215              		.cfi_startproc
 1216              	.LVL94:
 1217              		.loc 2 297 0
 1218 0000 9083002C 		stw 4,44(3)
 1219              		.loc 2 299 0
 1220              		.loc 2 298 0
 1221 0004 90A30030 		stw 5,48(3)
 1222              		.loc 2 299 0
 1223 0008 4E800020 		blr
 1224              		.cfi_endproc
 1225              	.LFE1418:
 1226              		.size	_ZN10GuiElement11SetPositionEii, .-_ZN10GuiElement11SetPositionEii
 1227              		.section	.text._ZN10GuiElement11SetPositionEiii,"axG",@progbits,_ZN10GuiElement11SetPositionEiii,c
 1228              		.align 2
 1229              		.weak	_ZN10GuiElement11SetPositionEiii
 1230              		.type	_ZN10GuiElement11SetPositionEiii, @function
 1231              	_ZN10GuiElement11SetPositionEiii:
 1232              	.LFB1419:
 1233              		.loc 2 304 0
 1234              		.cfi_startproc
 1235              	.LVL95:
 1236              		.loc 2 306 0
 1237 0000 9083002C 		stw 4,44(3)
 1238              		.loc 2 309 0
 1239              		.loc 2 307 0
 1240 0004 90A30030 		stw 5,48(3)
 1241              		.loc 2 308 0
 1242 0008 90C30034 		stw 6,52(3)
 1243              		.loc 2 309 0
 1244 000c 4E800020 		blr
 1245              		.cfi_endproc
 1246              	.LFE1419:
 1247              		.size	_ZN10GuiElement11SetPositionEiii, .-_ZN10GuiElement11SetPositionEiii
 1248              		.section	.text._ZN10GuiElement11GetSelectedEv,"axG",@progbits,_ZN10GuiElement11GetSelectedEv,comda
 1249              		.align 2
 1250              		.weak	_ZN10GuiElement11GetSelectedEv
 1251              		.type	_ZN10GuiElement11GetSelectedEv, @function
 1252              	_ZN10GuiElement11GetSelectedEv:
 1253              	.LFB1420:
 1254              		.loc 2 312 0
 1255              		.cfi_startproc
 1256              	.LVL96:
 1257              		.loc 2 312 0
 1258 0000 3860FFFF 		li 3,-1
 1259              	.LVL97:
 1260 0004 4E800020 		blr
 1261              		.cfi_endproc
 1262              	.LFE1420:
 1263              		.size	_ZN10GuiElement11GetSelectedEv, .-_ZN10GuiElement11GetSelectedEv
 1264              		.section	.text._ZN10GuiElement12SetAlignmentEi,"axG",@progbits,_ZN10GuiElement12SetAlignmentEi,com
 1265              		.align 2
 1266              		.weak	_ZN10GuiElement12SetAlignmentEi
 1267              		.type	_ZN10GuiElement12SetAlignmentEi, @function
 1268              	_ZN10GuiElement12SetAlignmentEi:
 1269              	.LFB1421:
 1270              		.loc 2 316 0
 1271              		.cfi_startproc
 1272              	.LVL98:
 1273              		.loc 2 316 0
 1274 0000 90830044 		stw 4,68(3)
 1275 0004 4E800020 		blr
 1276              		.cfi_endproc
 1277              	.LFE1421:
 1278              		.size	_ZN10GuiElement12SetAlignmentEi, .-_ZN10GuiElement12SetAlignmentEi
 1279              		.section	.text._ZNK10GuiElement12GetAlignmentEv,"axG",@progbits,_ZNK10GuiElement12GetAlignmentEv,c
 1280              		.align 2
 1281              		.weak	_ZNK10GuiElement12GetAlignmentEv
 1282              		.type	_ZNK10GuiElement12GetAlignmentEv, @function
 1283              	_ZNK10GuiElement12GetAlignmentEv:
 1284              	.LFB1422:
 1285              		.loc 2 318 0
 1286              		.cfi_startproc
 1287              	.LVL99:
 1288              		.loc 2 318 0
 1289 0000 80630044 		lwz 3,68(3)
 1290              	.LVL100:
 1291 0004 4E800020 		blr
 1292              		.cfi_endproc
 1293              	.LFE1422:
 1294              		.size	_ZNK10GuiElement12GetAlignmentEv, .-_ZNK10GuiElement12GetAlignmentEv
 1295              		.section	.text._ZN10GuiElement6UpdateEP10GuiTrigger,"axG",@progbits,_ZN10GuiElement6UpdateEP10GuiT
 1296              		.align 2
 1297              		.weak	_ZN10GuiElement6UpdateEP10GuiTrigger
 1298              		.type	_ZN10GuiElement6UpdateEP10GuiTrigger, @function
 1299              	_ZN10GuiElement6UpdateEP10GuiTrigger:
 1300              	.LFB1423:
 1301              		.loc 2 321 0
 1302              		.cfi_startproc
 1303              	.LVL101:
 1304              		.loc 2 321 0
 1305 0000 4E800020 		blr
 1306              		.cfi_endproc
 1307              	.LFE1423:
 1308              		.size	_ZN10GuiElement6UpdateEP10GuiTrigger, .-_ZN10GuiElement6UpdateEP10GuiTrigger
 1309              		.section	.text._ZN7sigslot12_signal_baseINS_15single_threadedEED2Ev,"axG",@progbits,_ZN7sigslot12_
 1310              		.align 2
 1311              		.weak	_ZN7sigslot12_signal_baseINS_15single_threadedEED2Ev
 1312              		.type	_ZN7sigslot12_signal_baseINS_15single_threadedEED2Ev, @function
 1313              	_ZN7sigslot12_signal_baseINS_15single_threadedEED2Ev:
 1314              	.LFB1623:
 1315              		.loc 1 466 0
 1316              		.cfi_startproc
 1317              	.LVL102:
 1318              	.LBB1459:
 1319              	.LBB1460:
 1320              	.LBB1461:
 1321              	.LBB1462:
 1322              		.loc 1 105 0
 1323 0000 3D200000 		lis 9,_ZTVN7sigslot15single_threadedE+8@ha
 1324              	.LBE1462:
 1325              	.LBE1461:
 1326              	.LBE1460:
 1327              	.LBE1459:
 1328              		.loc 1 466 0
 1329              	.LBB1466:
 1330              	.LBB1465:
 1331              	.LBB1464:
 1332              	.LBB1463:
 1333              		.loc 1 105 0
 1334 0004 38090008 		la 0,_ZTVN7sigslot15single_threadedE+8@l(9)
 1335 0008 90030000 		stw 0,0(3)
 1336              	.LBE1463:
 1337              	.LBE1464:
 1338              	.LBE1465:
 1339              	.LBE1466:
 1340              		.loc 1 466 0
 1341 000c 4E800020 		blr
 1342              		.cfi_endproc
 1343              	.LFE1623:
 1344              		.size	_ZN7sigslot12_signal_baseINS_15single_threadedEED2Ev, .-_ZN7sigslot12_signal_baseINS_15singl
 1345              		.section	.text._ZN7sigslot13_signal_base3IP10GuiElementiiNS_15single_threadedEE14slot_duplicateEPK
 1346              		.align 2
 1347              		.weak	_ZN7sigslot13_signal_base3IP10GuiElementiiNS_15single_threadedEE14slot_duplicateEPKNS_9has_s
 1348              		.type	_ZN7sigslot13_signal_base3IP10GuiElementiiNS_15single_threadedEE14slot_duplicateEPKNS_9has_s
 1349              	_ZN7sigslot13_signal_base3IP10GuiElementiiNS_15single_threadedEE14slot_duplicateEPKNS_9has_slotsIS3
 1350              	.LFB1861:
 1351              		.loc 1 926 0
 1352              		.cfi_startproc
 1353              		.cfi_personality 0,__gxx_personality_v0
 1354              		.cfi_lsda 0,.LLSDA1861
 1355              	.LVL103:
 1356 0000 7C0802A6 		mflr 0
 1357 0004 9421FFE0 		stwu 1,-32(1)
 1358              	.LCFI21:
 1359              		.cfi_def_cfa_offset 32
 1360              		.cfi_register 65, 0
 1361 0008 93410008 		stw 26,8(1)
 1362 000c 7CBA2B78 		mr 26,5
 1363              		.cfi_offset 26, -24
 1364 0010 90010024 		stw 0,36(1)
 1365 0014 9361000C 		stw 27,12(1)
 1366 0018 7C7B1B78 		mr 27,3
 1367              		.cfi_offset 27, -20
 1368              		.cfi_offset 65, 4
 1369              	.LVL104:
 1370              	.LBB1467:
 1371              	.LBB1468:
 1372              	.LBB1469:
 1373              		.loc 1 338 0
 1374 001c 81230000 		lwz 9,0(3)
 1375              	.LBE1469:
 1376              	.LBE1468:
 1377              	.LBE1467:
 1378              		.loc 1 926 0
 1379 0020 93A10014 		stw 29,20(1)
 1380 0024 7C9D2378 		mr 29,4
 1381              		.cfi_offset 29, -12
 1382              	.LBB1498:
 1383              	.LBB1474:
 1384              	.LBB1470:
 1385              		.loc 1 338 0
 1386 0028 80090008 		lwz 0,8(9)
 1387              	.LBE1470:
 1388              	.LBE1474:
 1389              	.LBE1498:
 1390              		.loc 1 926 0
 1391 002c 93C10018 		stw 30,24(1)
 1392              	.LBB1499:
 1393              	.LBB1475:
 1394              	.LBB1471:
 1395              		.loc 3 160 0
 1396 0030 7F7EDB78 		mr 30,27
 1397              		.cfi_offset 30, -8
 1398              	.LBE1471:
 1399              	.LBE1475:
 1400              	.LBE1499:
 1401              		.loc 1 926 0
 1402 0034 93E1001C 		stw 31,28(1)
 1403              	.LBB1500:
 1404              	.LBB1476:
 1405              	.LBB1472:
 1406              		.loc 1 338 0
 1407 0038 7C0903A6 		mtctr 0
 1408              	.LBE1472:
 1409              	.LBE1476:
 1410              	.LBE1500:
 1411              		.loc 1 926 0
 1412 003c 93810010 		stw 28,16(1)
 1413              	.LEHB4:
 1414              	.LBB1501:
 1415              	.LBB1477:
 1416              	.LBB1473:
 1417              		.loc 1 338 0
 1418              		.cfi_offset 28, -16
 1419              		.cfi_offset 31, -4
 1420 0040 4E800421 		bctrl
 1421              	.LEHE4:
 1422              	.LVL105:
 1423              		.loc 3 160 0
 1424 0044 87FE0004 		lwzu 31,4(30)
 1425              	.LVL106:
 1426              	.LBE1473:
 1427              	.LBE1477:
 1428              		.loc 1 932 0
 1429 0048 7F9FF000 		cmpw 7,31,30
 1430 004c 40BE0014 		bne+ 7,.L88
 1431 0050 48000070 		b .L79
 1432              	.LVL107:
 1433              	.L80:
 1434              	.LBB1478:
 1435              	.LBB1479:
 1436              		.loc 4 154 0
 1437 0054 83FF0000 		lwz 31,0(31)
 1438              	.LVL108:
 1439              	.LBE1479:
 1440              	.LBE1478:
 1441              		.loc 1 932 0
 1442 0058 7F9EF800 		cmpw 7,30,31
 1443 005c 419E0064 		beq- 7,.L79
 1444              	.LVL109:
 1445              	.L88:
 1446              		.loc 1 934 0
 1447 0060 807F0008 		lwz 3,8(31)
 1448 0064 81230000 		lwz 9,0(3)
 1449 0068 80090008 		lwz 0,8(9)
 1450 006c 7C0903A6 		mtctr 0
 1451              	.LEHB5:
 1452 0070 4E800421 		bctrl
 1453 0074 7F9D1800 		cmpw 7,29,3
 1454 0078 409EFFDC 		bne+ 7,.L80
 1455              	.LVL110:
 1456              		.loc 1 936 0
 1457 007c 807F0008 		lwz 3,8(31)
 1458 0080 7F44D378 		mr 4,26
 1459 0084 81230000 		lwz 9,0(3)
 1460 0088 80090014 		lwz 0,20(9)
 1461 008c 7C0903A6 		mtctr 0
 1462 0090 4E800421 		bctrl
 1463 0094 7C7C1B78 		mr 28,3
 1464              	.LVL111:
 1465              	.LBB1481:
 1466              	.LBB1482:
 1467              	.LBB1483:
 1468              	.LBB1484:
 1469              	.LBB1485:
 1470              	.LBB1486:
 1471              	.LBB1487:
 1472              	.LBB1488:
 1473              		.file 6 "d:\\devkitpro\\devkitppc\\bin\\../lib/gcc/powerpc-eabi/4.6.3/../../../../powerpc-eabi/inc
 1474              		.loc 6 92 0
 1475 0098 3860000C 		li 3,12
 1476 009c 48000001 		bl _Znwj
 1477              	.LEHE5:
 1478              	.LVL112:
 1479              	.LBE1488:
 1480              	.LBE1487:
 1481              	.LBE1486:
 1482              	.LBB1489:
 1483              	.LBB1490:
 1484              		.loc 6 108 0 discriminator 1
 1485 00a0 2F83FFF8 		cmpwi 7,3,-8
 1486 00a4 419E0008 		beq- 7,.L82
 1487              		.loc 6 108 0 is_stmt 0
 1488 00a8 93830008 		stw 28,8(3)
 1489              	.L82:
 1490              	.LVL113:
 1491              	.LBE1490:
 1492              	.LBE1489:
 1493              	.LBE1485:
 1494              	.LBE1484:
 1495              		.loc 4 1516 0 is_stmt 1
 1496 00ac 7FC4F378 		mr 4,30
 1497 00b0 48000001 		bl _ZNSt8__detail15_List_node_base7_M_hookEPS0_
 1498              	.LVL114:
 1499              	.LBE1483:
 1500              	.LBE1482:
 1501              	.LBE1481:
 1502              	.LBB1491:
 1503              	.LBB1480:
 1504              		.loc 4 154 0
 1505 00b4 83FF0000 		lwz 31,0(31)
 1506              	.LVL115:
 1507              	.LBE1480:
 1508              	.LBE1491:
 1509              		.loc 1 932 0
 1510 00b8 7F9EF800 		cmpw 7,30,31
 1511 00bc 409EFFA4 		bne+ 7,.L88
 1512              	.LVL116:
 1513              	.L79:
 1514              	.LBB1492:
 1515              	.LBB1493:
 1516              	.LBB1494:
 1517              		.loc 1 343 0
 1518 00c0 813B0000 		lwz 9,0(27)
 1519 00c4 7F63DB78 		mr 3,27
 1520 00c8 8009000C 		lwz 0,12(9)
 1521 00cc 7C0903A6 		mtctr 0
 1522              	.LEHB6:
 1523 00d0 4E800421 		bctrl
 1524              	.LEHE6:
 1525              	.LBE1494:
 1526              	.LBE1493:
 1527              	.LBE1492:
 1528              	.LBE1501:
 1529              		.loc 1 941 0
 1530 00d4 80010024 		lwz 0,36(1)
 1531 00d8 83410008 		lwz 26,8(1)
 1532              	.LVL117:
 1533 00dc 7C0803A6 		mtlr 0
 1534 00e0 8361000C 		lwz 27,12(1)
 1535              	.LVL118:
 1536 00e4 83810010 		lwz 28,16(1)
 1537 00e8 83A10014 		lwz 29,20(1)
 1538              	.LVL119:
 1539 00ec 83C10018 		lwz 30,24(1)
 1540              	.LVL120:
 1541 00f0 83E1001C 		lwz 31,28(1)
 1542              	.LVL121:
 1543 00f4 38210020 		addi 1,1,32
 1544              		.cfi_remember_state
 1545              	.LCFI22:
 1546              		.cfi_def_cfa_offset 0
 1547              		.cfi_restore 31
 1548              		.cfi_restore 30
 1549              		.cfi_restore 29
 1550              		.cfi_restore 28
 1551              		.cfi_restore 27
 1552              		.cfi_restore 26
 1553 00f8 4E800020 		blr
 1554              	.LVL122:
 1555              	.L87:
 1556              	.LCFI23:
 1557              		.cfi_restore_state
 1558              	.LBB1502:
 1559              	.LBB1495:
 1560              	.LBB1496:
 1561              	.LBB1497:
 1562              		.loc 1 343 0
 1563 00fc 813B0000 		lwz 9,0(27)
 1564 0100 7C7F1B78 		mr 31,3
 1565              	.LVL123:
 1566 0104 7F63DB78 		mr 3,27
 1567 0108 8009000C 		lwz 0,12(9)
 1568 010c 7C0903A6 		mtctr 0
 1569 0110 4E800421 		bctrl
 1570 0114 7FE3FB78 		mr 3,31
 1571              	.LEHB7:
 1572 0118 48000001 		bl _Unwind_Resume
 1573              	.LEHE7:
 1574              	.LBE1497:
 1575              	.LBE1496:
 1576              	.LBE1495:
 1577              	.LBE1502:
 1578              		.cfi_endproc
 1579              	.LFE1861:
 1580              		.section	.gcc_except_table
 1581              	.LLSDA1861:
 1582 0017 FF       		.byte	0xff
 1583 0018 FF       		.byte	0xff
 1584 0019 01       		.byte	0x1
 1585 001a 13       		.uleb128 .LLSDACSE1861-.LLSDACSB1861
 1586              	.LLSDACSB1861:
 1587 001b 40       		.uleb128 .LEHB4-.LFB1861
 1588 001c 04       		.uleb128 .LEHE4-.LEHB4
 1589 001d 00       		.uleb128 0
 1590 001e 00       		.uleb128 0
 1591 001f 70       		.uleb128 .LEHB5-.LFB1861
 1592 0020 30       		.uleb128 .LEHE5-.LEHB5
 1593 0021 FC01     		.uleb128 .L87-.LFB1861
 1594 0023 00       		.uleb128 0
 1595 0024 D001     		.uleb128 .LEHB6-.LFB1861
 1596 0026 04       		.uleb128 .LEHE6-.LEHB6
 1597 0027 00       		.uleb128 0
 1598 0028 00       		.uleb128 0
 1599 0029 9802     		.uleb128 .LEHB7-.LFB1861
 1600 002b 04       		.uleb128 .LEHE7-.LEHB7
 1601 002c 00       		.uleb128 0
 1602 002d 00       		.uleb128 0
 1603              	.LLSDACSE1861:
 1604              		.section	.text._ZN7sigslot13_signal_base3IP10GuiElementiiNS_15single_threadedEE14slot_duplicateEPK
 1605              		.size	_ZN7sigslot13_signal_base3IP10GuiElementiiNS_15single_threadedEE14slot_duplicateEPKNS_9has_s
 1606              		.section	.text._ZN7sigslot13_signal_base2IP10GuiElementbNS_15single_threadedEE14slot_duplicateEPKN
 1607              		.align 2
 1608              		.weak	_ZN7sigslot13_signal_base2IP10GuiElementbNS_15single_threadedEE14slot_duplicateEPKNS_9has_sl
 1609              		.type	_ZN7sigslot13_signal_base2IP10GuiElementbNS_15single_threadedEE14slot_duplicateEPKNS_9has_sl
 1610              	_ZN7sigslot13_signal_base2IP10GuiElementbNS_15single_threadedEE14slot_duplicateEPKNS_9has_slotsIS3_
 1611              	.LFB1863:
 1612              		.loc 1 806 0
 1613              		.cfi_startproc
 1614              		.cfi_personality 0,__gxx_personality_v0
 1615              		.cfi_lsda 0,.LLSDA1863
 1616              	.LVL124:
 1617 0000 7C0802A6 		mflr 0
 1618 0004 9421FFE0 		stwu 1,-32(1)
 1619              	.LCFI24:
 1620              		.cfi_def_cfa_offset 32
 1621              		.cfi_register 65, 0
 1622 0008 93410008 		stw 26,8(1)
 1623 000c 7CBA2B78 		mr 26,5
 1624              		.cfi_offset 26, -24
 1625 0010 90010024 		stw 0,36(1)
 1626 0014 9361000C 		stw 27,12(1)
 1627 0018 7C7B1B78 		mr 27,3
 1628              		.cfi_offset 27, -20
 1629              		.cfi_offset 65, 4
 1630              	.LVL125:
 1631              	.LBB1503:
 1632              	.LBB1504:
 1633              	.LBB1505:
 1634              		.loc 1 338 0
 1635 001c 81230000 		lwz 9,0(3)
 1636              	.LBE1505:
 1637              	.LBE1504:
 1638              	.LBE1503:
 1639              		.loc 1 806 0
 1640 0020 93A10014 		stw 29,20(1)
 1641 0024 7C9D2378 		mr 29,4
 1642              		.cfi_offset 29, -12
 1643              	.LBB1534:
 1644              	.LBB1510:
 1645              	.LBB1506:
 1646              		.loc 1 338 0
 1647 0028 80090008 		lwz 0,8(9)
 1648              	.LBE1506:
 1649              	.LBE1510:
 1650              	.LBE1534:
 1651              		.loc 1 806 0
 1652 002c 93C10018 		stw 30,24(1)
 1653              	.LBB1535:
 1654              	.LBB1511:
 1655              	.LBB1507:
 1656              		.loc 3 160 0
 1657 0030 7F7EDB78 		mr 30,27
 1658              		.cfi_offset 30, -8
 1659              	.LBE1507:
 1660              	.LBE1511:
 1661              	.LBE1535:
 1662              		.loc 1 806 0
 1663 0034 93E1001C 		stw 31,28(1)
 1664              	.LBB1536:
 1665              	.LBB1512:
 1666              	.LBB1508:
 1667              		.loc 1 338 0
 1668 0038 7C0903A6 		mtctr 0
 1669              	.LBE1508:
 1670              	.LBE1512:
 1671              	.LBE1536:
 1672              		.loc 1 806 0
 1673 003c 93810010 		stw 28,16(1)
 1674              	.LEHB8:
 1675              	.LBB1537:
 1676              	.LBB1513:
 1677              	.LBB1509:
 1678              		.loc 1 338 0
 1679              		.cfi_offset 28, -16
 1680              		.cfi_offset 31, -4
 1681 0040 4E800421 		bctrl
 1682              	.LEHE8:
 1683              	.LVL126:
 1684              		.loc 3 160 0
 1685 0044 87FE0004 		lwzu 31,4(30)
 1686              	.LVL127:
 1687              	.LBE1509:
 1688              	.LBE1513:
 1689              		.loc 1 812 0
 1690 0048 7F9FF000 		cmpw 7,31,30
 1691 004c 40BE0014 		bne+ 7,.L100
 1692 0050 48000070 		b .L91
 1693              	.LVL128:
 1694              	.L92:
 1695              	.LBB1514:
 1696              	.LBB1515:
 1697              		.loc 4 154 0
 1698 0054 83FF0000 		lwz 31,0(31)
 1699              	.LVL129:
 1700              	.LBE1515:
 1701              	.LBE1514:
 1702              		.loc 1 812 0
 1703 0058 7F9EF800 		cmpw 7,30,31
 1704 005c 419E0064 		beq- 7,.L91
 1705              	.LVL130:
 1706              	.L100:
 1707              		.loc 1 814 0
 1708 0060 807F0008 		lwz 3,8(31)
 1709 0064 81230000 		lwz 9,0(3)
 1710 0068 80090008 		lwz 0,8(9)
 1711 006c 7C0903A6 		mtctr 0
 1712              	.LEHB9:
 1713 0070 4E800421 		bctrl
 1714 0074 7F9D1800 		cmpw 7,29,3
 1715 0078 409EFFDC 		bne+ 7,.L92
 1716              	.LVL131:
 1717              		.loc 1 816 0
 1718 007c 807F0008 		lwz 3,8(31)
 1719 0080 7F44D378 		mr 4,26
 1720 0084 81230000 		lwz 9,0(3)
 1721 0088 80090014 		lwz 0,20(9)
 1722 008c 7C0903A6 		mtctr 0
 1723 0090 4E800421 		bctrl
 1724 0094 7C7C1B78 		mr 28,3
 1725              	.LVL132:
 1726              	.LBB1517:
 1727              	.LBB1518:
 1728              	.LBB1519:
 1729              	.LBB1520:
 1730              	.LBB1521:
 1731              	.LBB1522:
 1732              	.LBB1523:
 1733              	.LBB1524:
 1734              		.loc 6 92 0
 1735 0098 3860000C 		li 3,12
 1736 009c 48000001 		bl _Znwj
 1737              	.LEHE9:
 1738              	.LVL133:
 1739              	.LBE1524:
 1740              	.LBE1523:
 1741              	.LBE1522:
 1742              	.LBB1525:
 1743              	.LBB1526:
 1744              		.loc 6 108 0 discriminator 1
 1745 00a0 2F83FFF8 		cmpwi 7,3,-8
 1746 00a4 419E0008 		beq- 7,.L94
 1747              		.loc 6 108 0 is_stmt 0
 1748 00a8 93830008 		stw 28,8(3)
 1749              	.L94:
 1750              	.LVL134:
 1751              	.LBE1526:
 1752              	.LBE1525:
 1753              	.LBE1521:
 1754              	.LBE1520:
 1755              		.loc 4 1516 0 is_stmt 1
 1756 00ac 7FC4F378 		mr 4,30
 1757 00b0 48000001 		bl _ZNSt8__detail15_List_node_base7_M_hookEPS0_
 1758              	.LVL135:
 1759              	.LBE1519:
 1760              	.LBE1518:
 1761              	.LBE1517:
 1762              	.LBB1527:
 1763              	.LBB1516:
 1764              		.loc 4 154 0
 1765 00b4 83FF0000 		lwz 31,0(31)
 1766              	.LVL136:
 1767              	.LBE1516:
 1768              	.LBE1527:
 1769              		.loc 1 812 0
 1770 00b8 7F9EF800 		cmpw 7,30,31
 1771 00bc 409EFFA4 		bne+ 7,.L100
 1772              	.LVL137:
 1773              	.L91:
 1774              	.LBB1528:
 1775              	.LBB1529:
 1776              	.LBB1530:
 1777              		.loc 1 343 0
 1778 00c0 813B0000 		lwz 9,0(27)
 1779 00c4 7F63DB78 		mr 3,27
 1780 00c8 8009000C 		lwz 0,12(9)
 1781 00cc 7C0903A6 		mtctr 0
 1782              	.LEHB10:
 1783 00d0 4E800421 		bctrl
 1784              	.LEHE10:
 1785              	.LBE1530:
 1786              	.LBE1529:
 1787              	.LBE1528:
 1788              	.LBE1537:
 1789              		.loc 1 821 0
 1790 00d4 80010024 		lwz 0,36(1)
 1791 00d8 83410008 		lwz 26,8(1)
 1792              	.LVL138:
 1793 00dc 7C0803A6 		mtlr 0
 1794 00e0 8361000C 		lwz 27,12(1)
 1795              	.LVL139:
 1796 00e4 83810010 		lwz 28,16(1)
 1797 00e8 83A10014 		lwz 29,20(1)
 1798              	.LVL140:
 1799 00ec 83C10018 		lwz 30,24(1)
 1800              	.LVL141:
 1801 00f0 83E1001C 		lwz 31,28(1)
 1802              	.LVL142:
 1803 00f4 38210020 		addi 1,1,32
 1804              		.cfi_remember_state
 1805              	.LCFI25:
 1806              		.cfi_def_cfa_offset 0
 1807              		.cfi_restore 31
 1808              		.cfi_restore 30
 1809              		.cfi_restore 29
 1810              		.cfi_restore 28
 1811              		.cfi_restore 27
 1812              		.cfi_restore 26
 1813 00f8 4E800020 		blr
 1814              	.LVL143:
 1815              	.L99:
 1816              	.LCFI26:
 1817              		.cfi_restore_state
 1818              	.LBB1538:
 1819              	.LBB1531:
 1820              	.LBB1532:
 1821              	.LBB1533:
 1822              		.loc 1 343 0
 1823 00fc 813B0000 		lwz 9,0(27)
 1824 0100 7C7F1B78 		mr 31,3
 1825              	.LVL144:
 1826 0104 7F63DB78 		mr 3,27
 1827 0108 8009000C 		lwz 0,12(9)
 1828 010c 7C0903A6 		mtctr 0
 1829 0110 4E800421 		bctrl
 1830 0114 7FE3FB78 		mr 3,31
 1831              	.LEHB11:
 1832 0118 48000001 		bl _Unwind_Resume
 1833              	.LEHE11:
 1834              	.LBE1533:
 1835              	.LBE1532:
 1836              	.LBE1531:
 1837              	.LBE1538:
 1838              		.cfi_endproc
 1839              	.LFE1863:
 1840              		.section	.gcc_except_table
 1841              	.LLSDA1863:
 1842 002e FF       		.byte	0xff
 1843 002f FF       		.byte	0xff
 1844 0030 01       		.byte	0x1
 1845 0031 13       		.uleb128 .LLSDACSE1863-.LLSDACSB1863
 1846              	.LLSDACSB1863:
 1847 0032 40       		.uleb128 .LEHB8-.LFB1863
 1848 0033 04       		.uleb128 .LEHE8-.LEHB8
 1849 0034 00       		.uleb128 0
 1850 0035 00       		.uleb128 0
 1851 0036 70       		.uleb128 .LEHB9-.LFB1863
 1852 0037 30       		.uleb128 .LEHE9-.LEHB9
 1853 0038 FC01     		.uleb128 .L99-.LFB1863
 1854 003a 00       		.uleb128 0
 1855 003b D001     		.uleb128 .LEHB10-.LFB1863
 1856 003d 04       		.uleb128 .LEHE10-.LEHB10
 1857 003e 00       		.uleb128 0
 1858 003f 00       		.uleb128 0
 1859 0040 9802     		.uleb128 .LEHB11-.LFB1863
 1860 0042 04       		.uleb128 .LEHE11-.LEHB11
 1861 0043 00       		.uleb128 0
 1862 0044 00       		.uleb128 0
 1863              	.LLSDACSE1863:
 1864              		.section	.text._ZN7sigslot13_signal_base2IP10GuiElementbNS_15single_threadedEE14slot_duplicateEPKN
 1865              		.size	_ZN7sigslot13_signal_base2IP10GuiElementbNS_15single_threadedEE14slot_duplicateEPKNS_9has_sl
 1866              		.section	.text._ZN7sigslot12_signal_baseINS_15single_threadedEED0Ev,"axG",@progbits,_ZN7sigslot12_
 1867              		.align 2
 1868              		.weak	_ZN7sigslot12_signal_baseINS_15single_threadedEED0Ev
 1869              		.type	_ZN7sigslot12_signal_baseINS_15single_threadedEED0Ev, @function
 1870              	_ZN7sigslot12_signal_baseINS_15single_threadedEED0Ev:
 1871              	.LFB1625:
 1872              		.loc 1 466 0
 1873              		.cfi_startproc
 1874              	.LVL145:
 1875 0000 7C0802A6 		mflr 0
 1876 0004 9421FFF8 		stwu 1,-8(1)
 1877              	.LCFI27:
 1878              		.cfi_def_cfa_offset 8
 1879              		.cfi_register 65, 0
 1880              	.LBB1539:
 1881              	.LBB1540:
 1882              	.LBB1541:
 1883              	.LBB1542:
 1884              	.LBB1543:
 1885              	.LBB1544:
 1886              		.loc 1 105 0
 1887 0008 3D200000 		lis 9,_ZTVN7sigslot15single_threadedE+8@ha
 1888              	.LBE1544:
 1889              	.LBE1543:
 1890              	.LBE1542:
 1891              	.LBE1541:
 1892              	.LBE1540:
 1893              	.LBE1539:
 1894              		.loc 1 466 0
 1895 000c 9001000C 		stw 0,12(1)
 1896              	.LBB1550:
 1897              	.LBB1549:
 1898              	.LBB1548:
 1899              	.LBB1547:
 1900              	.LBB1546:
 1901              	.LBB1545:
 1902              		.loc 1 105 0
 1903 0010 38090008 		la 0,_ZTVN7sigslot15single_threadedE+8@l(9)
 1904              		.cfi_offset 65, 4
 1905 0014 90030000 		stw 0,0(3)
 1906              	.LBE1545:
 1907              	.LBE1546:
 1908              	.LBE1547:
 1909              	.LBE1548:
 1910              	.LBE1549:
 1911              	.LBE1550:
 1912              		.loc 1 466 0
 1913 0018 48000001 		bl _ZdlPv
 1914              	.LVL146:
 1915 001c 8001000C 		lwz 0,12(1)
 1916 0020 38210008 		addi 1,1,8
 1917              	.LCFI28:
 1918              		.cfi_def_cfa_offset 0
 1919 0024 7C0803A6 		mtlr 0
 1920 0028 4E800020 		blr
 1921              		.cfi_endproc
 1922              	.LFE1625:
 1923              		.size	_ZN7sigslot12_signal_baseINS_15single_threadedEED0Ev, .-_ZN7sigslot12_signal_baseINS_15singl
 1924              		.section	.text._ZN7sigslot15single_threadedD0Ev,"axG",@progbits,_ZN7sigslot15single_threadedD5Ev,c
 1925              		.align 2
 1926              		.weak	_ZN7sigslot15single_threadedD0Ev
 1927              		.type	_ZN7sigslot15single_threadedD0Ev, @function
 1928              	_ZN7sigslot15single_threadedD0Ev:
 1929              	.LFB1150:
 1930              		.loc 1 104 0
 1931              		.cfi_startproc
 1932              	.LVL147:
 1933 0000 7C0802A6 		mflr 0
 1934 0004 9421FFF8 		stwu 1,-8(1)
 1935              	.LCFI29:
 1936              		.cfi_def_cfa_offset 8
 1937              		.cfi_register 65, 0
 1938              	.LBB1551:
 1939              	.LBB1552:
 1940              	.LBB1553:
 1941              		.loc 1 105 0
 1942 0008 3D200000 		lis 9,_ZTVN7sigslot15single_threadedE+8@ha
 1943              	.LBE1553:
 1944              	.LBE1552:
 1945              	.LBE1551:
 1946              		.loc 1 104 0
 1947 000c 9001000C 		stw 0,12(1)
 1948              	.LBB1556:
 1949              	.LBB1555:
 1950              	.LBB1554:
 1951              		.loc 1 105 0
 1952 0010 38090008 		la 0,_ZTVN7sigslot15single_threadedE+8@l(9)
 1953              		.cfi_offset 65, 4
 1954 0014 90030000 		stw 0,0(3)
 1955              	.LBE1554:
 1956              	.LBE1555:
 1957              	.LBE1556:
 1958              		.loc 1 107 0
 1959 0018 48000001 		bl _ZdlPv
 1960              	.LVL148:
 1961 001c 8001000C 		lwz 0,12(1)
 1962 0020 38210008 		addi 1,1,8
 1963              	.LCFI30:
 1964              		.cfi_def_cfa_offset 0
 1965 0024 7C0803A6 		mtlr 0
 1966 0028 4E800020 		blr
 1967              		.cfi_endproc
 1968              	.LFE1150:
 1969              		.size	_ZN7sigslot15single_threadedD0Ev, .-_ZN7sigslot15single_threadedD0Ev
 1970              		.section	.text._ZN7sigslot13_signal_base3IP10GuiElementiiNS_15single_threadedEE15slot_disconnectEP
 1971              		.align 2
 1972              		.weak	_ZN7sigslot13_signal_base3IP10GuiElementiiNS_15single_threadedEE15slot_disconnectEPNS_9has_s
 1973              		.type	_ZN7sigslot13_signal_base3IP10GuiElementiiNS_15single_threadedEE15slot_disconnectEPNS_9has_s
 1974              	_ZN7sigslot13_signal_base3IP10GuiElementiiNS_15single_threadedEE15slot_disconnectEPNS_9has_slotsIS3
 1975              	.LFB1860:
 1976              		.loc 1 990 0
 1977              		.cfi_startproc
 1978              		.cfi_personality 0,__gxx_personality_v0
 1979              		.cfi_lsda 0,.LLSDA1860
 1980              	.LVL149:
 1981 0000 7C0802A6 		mflr 0
 1982 0004 9421FFE0 		stwu 1,-32(1)
 1983              	.LCFI31:
 1984              		.cfi_def_cfa_offset 32
 1985              		.cfi_register 65, 0
 1986 0008 9361000C 		stw 27,12(1)
 1987 000c 7C7B1B78 		mr 27,3
 1988              		.cfi_offset 27, -20
 1989              	.LVL150:
 1990 0010 90010024 		stw 0,36(1)
 1991 0014 93810010 		stw 28,16(1)
 1992 0018 7C9C2378 		mr 28,4
 1993              		.cfi_offset 28, -16
 1994              		.cfi_offset 65, 4
 1995              	.LBB1557:
 1996              	.LBB1558:
 1997              	.LBB1559:
 1998              		.loc 1 338 0
 1999 001c 81230000 		lwz 9,0(3)
 2000              	.LBE1559:
 2001              	.LBE1558:
 2002              	.LBE1557:
 2003              		.loc 1 990 0
 2004 0020 93A10014 		stw 29,20(1)
 2005              	.LBB1580:
 2006              	.LBB1562:
 2007              	.LBB1560:
 2008              		.loc 3 160 0
 2009 0024 7F7DDB78 		mr 29,27
 2010              		.cfi_offset 29, -12
 2011              		.loc 1 338 0
 2012 0028 80090008 		lwz 0,8(9)
 2013              	.LBE1560:
 2014              	.LBE1562:
 2015              	.LBE1580:
 2016              		.loc 1 990 0
 2017 002c 93E1001C 		stw 31,28(1)
 2018 0030 93C10018 		stw 30,24(1)
 2019              	.LBB1581:
 2020              	.LBB1563:
 2021              	.LBB1561:
 2022              		.loc 1 338 0
 2023 0034 7C0903A6 		mtctr 0
 2024              	.LEHB12:
 2025              		.cfi_offset 30, -8
 2026              		.cfi_offset 31, -4
 2027 0038 4E800421 		bctrl
 2028              	.LEHE12:
 2029              	.LVL151:
 2030              		.loc 3 160 0
 2031 003c 87FD0004 		lwzu 31,4(29)
 2032              	.LVL152:
 2033              	.LBE1561:
 2034              	.LBE1563:
 2035              		.loc 1 996 0
 2036 0040 7F9FE800 		cmpw 7,31,29
 2037 0044 40BE0014 		bne+ 7,.L121
 2038 0048 48000064 		b .L110
 2039              	.LVL153:
 2040              	.L111:
 2041              		.loc 1 996 0 is_stmt 0 discriminator 1
 2042 004c 7F9DF000 		cmpw 7,29,30
 2043 0050 419E005C 		beq- 7,.L110
 2044              	.L119:
 2045              		.loc 1 996 0
 2046 0054 7FDFF378 		mr 31,30
 2047              	.LVL154:
 2048              	.L121:
 2049              	.LBB1564:
 2050              		.loc 1 1001 0 is_stmt 1
 2051 0058 807F0008 		lwz 3,8(31)
 2052              	.LBB1565:
 2053              	.LBB1566:
 2054              		.loc 4 154 0
 2055 005c 83DF0000 		lwz 30,0(31)
 2056              	.LVL155:
 2057              	.LBE1566:
 2058              	.LBE1565:
 2059              		.loc 1 1001 0
 2060 0060 81230000 		lwz 9,0(3)
 2061 0064 80090008 		lwz 0,8(9)
 2062 0068 7C0903A6 		mtctr 0
 2063              	.LEHB13:
 2064 006c 4E800421 		bctrl
 2065              	.LVL156:
 2066 0070 7F9C1800 		cmpw 7,28,3
 2067 0074 409EFFD8 		bne+ 7,.L111
 2068              	.LVL157:
 2069              		.loc 1 1003 0
 2070 0078 807F0008 		lwz 3,8(31)
 2071 007c 2F830000 		cmpwi 7,3,0
 2072 0080 419E0014 		beq- 7,.L112
 2073              		.loc 1 1003 0 is_stmt 0 discriminator 1
 2074 0084 81230000 		lwz 9,0(3)
 2075 0088 80090004 		lwz 0,4(9)
 2076 008c 7C0903A6 		mtctr 0
 2077 0090 4E800421 		bctrl
 2078              	.LEHE13:
 2079              	.L112:
 2080              	.LVL158:
 2081              	.LBB1567:
 2082              	.LBB1568:
 2083              	.LBB1569:
 2084              	.LBB1570:
 2085              		.loc 4 1532 0 is_stmt 1
 2086 0094 7FE3FB78 		mr 3,31
 2087 0098 48000001 		bl _ZNSt8__detail15_List_node_base9_M_unhookEv
 2088              	.LVL159:
 2089              	.LBB1571:
 2090              	.LBB1572:
 2091              	.LBB1573:
 2092              		.loc 6 98 0
 2093 009c 7FE3FB78 		mr 3,31
 2094 00a0 48000001 		bl _ZdlPv
 2095              	.LVL160:
 2096              	.LBE1573:
 2097              	.LBE1572:
 2098              	.LBE1571:
 2099              	.LBE1570:
 2100              	.LBE1569:
 2101              	.LBE1568:
 2102              	.LBE1567:
 2103              	.LBE1564:
 2104              		.loc 1 996 0
 2105 00a4 7F9DF000 		cmpw 7,29,30
 2106 00a8 409EFFAC 		bne+ 7,.L119
 2107              	.LVL161:
 2108              	.L110:
 2109              	.LBB1574:
 2110              	.LBB1575:
 2111              	.LBB1576:
 2112              		.loc 1 343 0
 2113 00ac 813B0000 		lwz 9,0(27)
 2114 00b0 7F63DB78 		mr 3,27
 2115 00b4 8009000C 		lwz 0,12(9)
 2116 00b8 7C0903A6 		mtctr 0
 2117              	.LEHB14:
 2118 00bc 4E800421 		bctrl
 2119              	.LEHE14:
 2120              	.LBE1576:
 2121              	.LBE1575:
 2122              	.LBE1574:
 2123              	.LBE1581:
 2124              		.loc 1 1010 0
 2125 00c0 80010024 		lwz 0,36(1)
 2126 00c4 8361000C 		lwz 27,12(1)
 2127              	.LVL162:
 2128 00c8 7C0803A6 		mtlr 0
 2129 00cc 83810010 		lwz 28,16(1)
 2130              	.LVL163:
 2131 00d0 83A10014 		lwz 29,20(1)
 2132              	.LVL164:
 2133 00d4 83C10018 		lwz 30,24(1)
 2134 00d8 83E1001C 		lwz 31,28(1)
 2135 00dc 38210020 		addi 1,1,32
 2136              		.cfi_remember_state
 2137              	.LCFI32:
 2138              		.cfi_def_cfa_offset 0
 2139              		.cfi_restore 31
 2140              		.cfi_restore 30
 2141              		.cfi_restore 29
 2142              		.cfi_restore 28
 2143              		.cfi_restore 27
 2144 00e0 4E800020 		blr
 2145              	.LVL165:
 2146              	.L120:
 2147              	.LCFI33:
 2148              		.cfi_restore_state
 2149              	.LBB1582:
 2150              	.LBB1577:
 2151              	.LBB1578:
 2152              	.LBB1579:
 2153              		.loc 1 343 0
 2154 00e4 813B0000 		lwz 9,0(27)
 2155 00e8 7C7F1B78 		mr 31,3
 2156              	.LVL166:
 2157 00ec 7F63DB78 		mr 3,27
 2158 00f0 8009000C 		lwz 0,12(9)
 2159 00f4 7C0903A6 		mtctr 0
 2160 00f8 4E800421 		bctrl
 2161 00fc 7FE3FB78 		mr 3,31
 2162              	.LEHB15:
 2163 0100 48000001 		bl _Unwind_Resume
 2164              	.LEHE15:
 2165              	.LBE1579:
 2166              	.LBE1578:
 2167              	.LBE1577:
 2168              	.LBE1582:
 2169              		.cfi_endproc
 2170              	.LFE1860:
 2171              		.section	.gcc_except_table
 2172              	.LLSDA1860:
 2173 0045 FF       		.byte	0xff
 2174 0046 FF       		.byte	0xff
 2175 0047 01       		.byte	0x1
 2176 0048 13       		.uleb128 .LLSDACSE1860-.LLSDACSB1860
 2177              	.LLSDACSB1860:
 2178 0049 38       		.uleb128 .LEHB12-.LFB1860
 2179 004a 04       		.uleb128 .LEHE12-.LEHB12
 2180 004b 00       		.uleb128 0
 2181 004c 00       		.uleb128 0
 2182 004d 6C       		.uleb128 .LEHB13-.LFB1860
 2183 004e 28       		.uleb128 .LEHE13-.LEHB13
 2184 004f E401     		.uleb128 .L120-.LFB1860
 2185 0051 00       		.uleb128 0
 2186 0052 BC01     		.uleb128 .LEHB14-.LFB1860
 2187 0054 04       		.uleb128 .LEHE14-.LEHB14
 2188 0055 00       		.uleb128 0
 2189 0056 00       		.uleb128 0
 2190 0057 8002     		.uleb128 .LEHB15-.LFB1860
 2191 0059 04       		.uleb128 .LEHE15-.LEHB15
 2192 005a 00       		.uleb128 0
 2193 005b 00       		.uleb128 0
 2194              	.LLSDACSE1860:
 2195              		.section	.text._ZN7sigslot13_signal_base3IP10GuiElementiiNS_15single_threadedEE15slot_disconnectEP
 2196              		.size	_ZN7sigslot13_signal_base3IP10GuiElementiiNS_15single_threadedEE15slot_disconnectEPNS_9has_s
 2197              		.section	.text._ZN7sigslot13_signal_base2IP10GuiElementbNS_15single_threadedEE15slot_disconnectEPN
 2198              		.align 2
 2199              		.weak	_ZN7sigslot13_signal_base2IP10GuiElementbNS_15single_threadedEE15slot_disconnectEPNS_9has_sl
 2200              		.type	_ZN7sigslot13_signal_base2IP10GuiElementbNS_15single_threadedEE15slot_disconnectEPNS_9has_sl
 2201              	_ZN7sigslot13_signal_base2IP10GuiElementbNS_15single_threadedEE15slot_disconnectEPNS_9has_slotsIS3_
 2202              	.LFB1862:
 2203              		.loc 1 870 0
 2204              		.cfi_startproc
 2205              		.cfi_personality 0,__gxx_personality_v0
 2206              		.cfi_lsda 0,.LLSDA1862
 2207              	.LVL167:
 2208 0000 7C0802A6 		mflr 0
 2209 0004 9421FFE0 		stwu 1,-32(1)
 2210              	.LCFI34:
 2211              		.cfi_def_cfa_offset 32
 2212              		.cfi_register 65, 0
 2213 0008 9361000C 		stw 27,12(1)
 2214 000c 7C7B1B78 		mr 27,3
 2215              		.cfi_offset 27, -20
 2216              	.LVL168:
 2217 0010 90010024 		stw 0,36(1)
 2218 0014 93810010 		stw 28,16(1)
 2219 0018 7C9C2378 		mr 28,4
 2220              		.cfi_offset 28, -16
 2221              		.cfi_offset 65, 4
 2222              	.LBB1583:
 2223              	.LBB1584:
 2224              	.LBB1585:
 2225              		.loc 1 338 0
 2226 001c 81230000 		lwz 9,0(3)
 2227              	.LBE1585:
 2228              	.LBE1584:
 2229              	.LBE1583:
 2230              		.loc 1 870 0
 2231 0020 93A10014 		stw 29,20(1)
 2232              	.LBB1606:
 2233              	.LBB1588:
 2234              	.LBB1586:
 2235              		.loc 3 160 0
 2236 0024 7F7DDB78 		mr 29,27
 2237              		.cfi_offset 29, -12
 2238              		.loc 1 338 0
 2239 0028 80090008 		lwz 0,8(9)
 2240              	.LBE1586:
 2241              	.LBE1588:
 2242              	.LBE1606:
 2243              		.loc 1 870 0
 2244 002c 93E1001C 		stw 31,28(1)
 2245 0030 93C10018 		stw 30,24(1)
 2246              	.LBB1607:
 2247              	.LBB1589:
 2248              	.LBB1587:
 2249              		.loc 1 338 0
 2250 0034 7C0903A6 		mtctr 0
 2251              	.LEHB16:
 2252              		.cfi_offset 30, -8
 2253              		.cfi_offset 31, -4
 2254 0038 4E800421 		bctrl
 2255              	.LEHE16:
 2256              	.LVL169:
 2257              		.loc 3 160 0
 2258 003c 87FD0004 		lwzu 31,4(29)
 2259              	.LVL170:
 2260              	.LBE1587:
 2261              	.LBE1589:
 2262              		.loc 1 876 0
 2263 0040 7F9FE800 		cmpw 7,31,29
 2264 0044 40BE0014 		bne+ 7,.L134
 2265 0048 48000064 		b .L123
 2266              	.LVL171:
 2267              	.L124:
 2268              		.loc 1 876 0 is_stmt 0 discriminator 1
 2269 004c 7F9DF000 		cmpw 7,29,30
 2270 0050 419E005C 		beq- 7,.L123
 2271              	.L132:
 2272              		.loc 1 876 0
 2273 0054 7FDFF378 		mr 31,30
 2274              	.LVL172:
 2275              	.L134:
 2276              	.LBB1590:
 2277              		.loc 1 881 0 is_stmt 1
 2278 0058 807F0008 		lwz 3,8(31)
 2279              	.LBB1591:
 2280              	.LBB1592:
 2281              		.loc 4 154 0
 2282 005c 83DF0000 		lwz 30,0(31)
 2283              	.LVL173:
 2284              	.LBE1592:
 2285              	.LBE1591:
 2286              		.loc 1 881 0
 2287 0060 81230000 		lwz 9,0(3)
 2288 0064 80090008 		lwz 0,8(9)
 2289 0068 7C0903A6 		mtctr 0
 2290              	.LEHB17:
 2291 006c 4E800421 		bctrl
 2292              	.LVL174:
 2293 0070 7F9C1800 		cmpw 7,28,3
 2294 0074 409EFFD8 		bne+ 7,.L124
 2295              	.LVL175:
 2296              		.loc 1 883 0
 2297 0078 807F0008 		lwz 3,8(31)
 2298 007c 2F830000 		cmpwi 7,3,0
 2299 0080 419E0014 		beq- 7,.L125
 2300              		.loc 1 883 0 is_stmt 0 discriminator 1
 2301 0084 81230000 		lwz 9,0(3)
 2302 0088 80090004 		lwz 0,4(9)
 2303 008c 7C0903A6 		mtctr 0
 2304 0090 4E800421 		bctrl
 2305              	.LEHE17:
 2306              	.L125:
 2307              	.LVL176:
 2308              	.LBB1593:
 2309              	.LBB1594:
 2310              	.LBB1595:
 2311              	.LBB1596:
 2312              		.loc 4 1532 0 is_stmt 1
 2313 0094 7FE3FB78 		mr 3,31
 2314 0098 48000001 		bl _ZNSt8__detail15_List_node_base9_M_unhookEv
 2315              	.LVL177:
 2316              	.LBB1597:
 2317              	.LBB1598:
 2318              	.LBB1599:
 2319              		.loc 6 98 0
 2320 009c 7FE3FB78 		mr 3,31
 2321 00a0 48000001 		bl _ZdlPv
 2322              	.LVL178:
 2323              	.LBE1599:
 2324              	.LBE1598:
 2325              	.LBE1597:
 2326              	.LBE1596:
 2327              	.LBE1595:
 2328              	.LBE1594:
 2329              	.LBE1593:
 2330              	.LBE1590:
 2331              		.loc 1 876 0
 2332 00a4 7F9DF000 		cmpw 7,29,30
 2333 00a8 409EFFAC 		bne+ 7,.L132
 2334              	.LVL179:
 2335              	.L123:
 2336              	.LBB1600:
 2337              	.LBB1601:
 2338              	.LBB1602:
 2339              		.loc 1 343 0
 2340 00ac 813B0000 		lwz 9,0(27)
 2341 00b0 7F63DB78 		mr 3,27
 2342 00b4 8009000C 		lwz 0,12(9)
 2343 00b8 7C0903A6 		mtctr 0
 2344              	.LEHB18:
 2345 00bc 4E800421 		bctrl
 2346              	.LEHE18:
 2347              	.LBE1602:
 2348              	.LBE1601:
 2349              	.LBE1600:
 2350              	.LBE1607:
 2351              		.loc 1 890 0
 2352 00c0 80010024 		lwz 0,36(1)
 2353 00c4 8361000C 		lwz 27,12(1)
 2354              	.LVL180:
 2355 00c8 7C0803A6 		mtlr 0
 2356 00cc 83810010 		lwz 28,16(1)
 2357              	.LVL181:
 2358 00d0 83A10014 		lwz 29,20(1)
 2359              	.LVL182:
 2360 00d4 83C10018 		lwz 30,24(1)
 2361 00d8 83E1001C 		lwz 31,28(1)
 2362 00dc 38210020 		addi 1,1,32
 2363              		.cfi_remember_state
 2364              	.LCFI35:
 2365              		.cfi_def_cfa_offset 0
 2366              		.cfi_restore 31
 2367              		.cfi_restore 30
 2368              		.cfi_restore 29
 2369              		.cfi_restore 28
 2370              		.cfi_restore 27
 2371 00e0 4E800020 		blr
 2372              	.LVL183:
 2373              	.L133:
 2374              	.LCFI36:
 2375              		.cfi_restore_state
 2376              	.LBB1608:
 2377              	.LBB1603:
 2378              	.LBB1604:
 2379              	.LBB1605:
 2380              		.loc 1 343 0
 2381 00e4 813B0000 		lwz 9,0(27)
 2382 00e8 7C7F1B78 		mr 31,3
 2383              	.LVL184:
 2384 00ec 7F63DB78 		mr 3,27
 2385 00f0 8009000C 		lwz 0,12(9)
 2386 00f4 7C0903A6 		mtctr 0
 2387 00f8 4E800421 		bctrl
 2388 00fc 7FE3FB78 		mr 3,31
 2389              	.LEHB19:
 2390 0100 48000001 		bl _Unwind_Resume
 2391              	.LEHE19:
 2392              	.LBE1605:
 2393              	.LBE1604:
 2394              	.LBE1603:
 2395              	.LBE1608:
 2396              		.cfi_endproc
 2397              	.LFE1862:
 2398              		.section	.gcc_except_table
 2399              	.LLSDA1862:
 2400 005c FF       		.byte	0xff
 2401 005d FF       		.byte	0xff
 2402 005e 01       		.byte	0x1
 2403 005f 13       		.uleb128 .LLSDACSE1862-.LLSDACSB1862
 2404              	.LLSDACSB1862:
 2405 0060 38       		.uleb128 .LEHB16-.LFB1862
 2406 0061 04       		.uleb128 .LEHE16-.LEHB16
 2407 0062 00       		.uleb128 0
 2408 0063 00       		.uleb128 0
 2409 0064 6C       		.uleb128 .LEHB17-.LFB1862
 2410 0065 28       		.uleb128 .LEHE17-.LEHB17
 2411 0066 E401     		.uleb128 .L133-.LFB1862
 2412 0068 00       		.uleb128 0
 2413 0069 BC01     		.uleb128 .LEHB18-.LFB1862
 2414 006b 04       		.uleb128 .LEHE18-.LEHB18
 2415 006c 00       		.uleb128 0
 2416 006d 00       		.uleb128 0
 2417 006e 8002     		.uleb128 .LEHB19-.LFB1862
 2418 0070 04       		.uleb128 .LEHE19-.LEHB19
 2419 0071 00       		.uleb128 0
 2420 0072 00       		.uleb128 0
 2421              	.LLSDACSE1862:
 2422              		.section	.text._ZN7sigslot13_signal_base2IP10GuiElementbNS_15single_threadedEE15slot_disconnectEPN
 2423              		.size	_ZN7sigslot13_signal_base2IP10GuiElementbNS_15single_threadedEE15slot_disconnectEPNS_9has_sl
 2424              		.section	.text._ZN10GuiElement10ResetStateEv,"axG",@progbits,_ZN10GuiElement10ResetStateEv,comdat
 2425              		.align 2
 2426              		.weak	_ZN10GuiElement10ResetStateEv
 2427              		.type	_ZN10GuiElement10ResetStateEv, @function
 2428              	_ZN10GuiElement10ResetStateEv:
 2429              	.LFB1402:
 2430              		.loc 2 183 0
 2431              		.cfi_startproc
 2432              	.LVL185:
 2433 0000 7C0802A6 		mflr 0
 2434 0004 9421FFF8 		stwu 1,-8(1)
 2435              	.LCFI37:
 2436              		.cfi_def_cfa_offset 8
 2437              		.cfi_register 65, 0
 2438 0008 9001000C 		stw 0,12(1)
 2439              		.loc 2 185 0
 2440 000c 80030048 		lwz 0,72(3)
 2441              		.cfi_offset 65, 4
 2442 0010 2F800004 		cmpwi 7,0,4
 2443 0014 419E001C 		beq- 7,.L135
 2444              	.LVL186:
 2445              	.LBB1611:
 2446              	.LBB1612:
 2447              		.loc 2 186 0
 2448 0018 81230000 		lwz 9,0(3)
 2449 001c 38800000 		li 4,0
 2450 0020 38A0FFFF 		li 5,-1
 2451 0024 80090050 		lwz 0,80(9)
 2452 0028 7C0903A6 		mtctr 0
 2453 002c 4E800421 		bctrl
 2454              	.LVL187:
 2455              	.L135:
 2456              	.LBE1612:
 2457              	.LBE1611:
 2458              		.loc 2 187 0
 2459 0030 8001000C 		lwz 0,12(1)
 2460 0034 38210008 		addi 1,1,8
 2461              	.LCFI38:
 2462              		.cfi_def_cfa_offset 0
 2463 0038 7C0803A6 		mtlr 0
 2464 003c 4E800020 		blr
 2465              		.cfi_endproc
 2466              	.LFE1402:
 2467              		.size	_ZN10GuiElement10ResetStateEv, .-_ZN10GuiElement10ResetStateEv
 2468              		.section	".text"
 2469              		.align 2
 2470              		.globl _ZN10GuiTooltip4DrawEv
 2471              		.type	_ZN10GuiTooltip4DrawEv, @function
 2472              	_ZN10GuiTooltip4DrawEv:
 2473              	.LFB1575:
 2474              		.loc 3 146 0
 2475              		.cfi_startproc
 2476              	.LVL188:
 2477 0000 7C0802A6 		mflr 0
 2478 0004 9421FFE8 		stwu 1,-24(1)
 2479              	.LCFI39:
 2480              		.cfi_def_cfa_offset 24
 2481              		.cfi_register 65, 0
 2482              		.loc 3 147 0
 2483 0008 3D200000 		lis 9,Settings+108@ha
 2484              		.loc 3 146 0
 2485 000c 93E10014 		stw 31,20(1)
 2486 0010 7C7F1B78 		mr 31,3
 2487              		.cfi_offset 31, -4
 2488 0014 9001001C 		stw 0,28(1)
 2489              		.loc 3 147 0
 2490 0018 8009006C 		lwz 0,Settings+108@l(9)
 2491              		.cfi_offset 65, 4
 2492 001c 3D200000 		lis 9,.LC1@ha
 2493 0020 C0090000 		lfs 0,.LC1@l(9)
 2494 0024 6C008000 		xoris 0,0,0x8000
 2495 0028 9001000C 		stw 0,12(1)
 2496 002c 3C004330 		lis 0,0x4330
 2497 0030 90010008 		stw 0,8(1)
 2498 0034 C9A10008 		lfd 13,8(1)
 2499 0038 FC0D0028 		fsub 0,13,0
 2500 003c C1A30090 		lfs 13,144(3)
 2501 0040 FC000018 		frsp 0,0
 2502 0044 FF8D0000 		fcmpu 7,13,0
 2503 0048 419E0008 		beq- 7,.L138
 2504              	.LVL189:
 2505              	.LBB1619:
 2506              	.LBB1620:
 2507              		.loc 3 142 0
 2508 004c D0030090 		stfs 0,144(3)
 2509              	.LVL190:
 2510              	.L138:
 2511              	.LBE1620:
 2512              	.LBE1619:
 2513              		.loc 3 150 0
 2514 0050 813F0000 		lwz 9,0(31)
 2515 0054 7FE3FB78 		mr 3,31
 2516              	.LVL191:
 2517 0058 80090034 		lwz 0,52(9)
 2518 005c 7C0903A6 		mtctr 0
 2519 0060 4E800421 		bctrl
 2520 0064 2F830000 		cmpwi 7,3,0
 2521 0068 419E0090 		beq- 7,.L146
 2522              	.L139:
 2523              		.loc 3 150 0 is_stmt 0 discriminator 2
 2524 006c 801F0048 		lwz 0,72(31)
 2525 0070 2F800004 		cmpwi 7,0,4
 2526 0074 419E0070 		beq- 7,.L137
 2527              	.LVL192:
 2528              	.LBB1621:
 2529              	.LBB1622:
 2530              		.loc 3 153 0 is_stmt 1
 2531 0078 807F009C 		lwz 3,156(31)
 2532 007c 81230000 		lwz 9,0(3)
 2533 0080 800900C0 		lwz 0,192(9)
 2534 0084 7C0903A6 		mtctr 0
 2535 0088 4E800421 		bctrl
 2536              		.loc 3 154 0
 2537 008c 807F00A0 		lwz 3,160(31)
 2538 0090 81230000 		lwz 9,0(3)
 2539 0094 800900C0 		lwz 0,192(9)
 2540 0098 7C0903A6 		mtctr 0
 2541 009c 4E800421 		bctrl
 2542              		.loc 3 155 0
 2543 00a0 807F00A4 		lwz 3,164(31)
 2544 00a4 81230000 		lwz 9,0(3)
 2545 00a8 800900C0 		lwz 0,192(9)
 2546 00ac 7C0903A6 		mtctr 0
 2547 00b0 4E800421 		bctrl
 2548              		.loc 3 156 0
 2549 00b4 807F00B4 		lwz 3,180(31)
 2550 00b8 2F830000 		cmpwi 7,3,0
 2551 00bc 419E0014 		beq- 7,.L143
 2552              		.loc 3 157 0
 2553 00c0 81230000 		lwz 9,0(3)
 2554 00c4 800900C0 		lwz 0,192(9)
 2555 00c8 7C0903A6 		mtctr 0
 2556 00cc 4E800421 		bctrl
 2557              	.L143:
 2558              		.loc 3 159 0
 2559 00d0 813F0000 		lwz 9,0(31)
 2560 00d4 7FE3FB78 		mr 3,31
 2561 00d8 800900C4 		lwz 0,196(9)
 2562 00dc 7C0903A6 		mtctr 0
 2563 00e0 4E800421 		bctrl
 2564              	.LVL193:
 2565              	.L137:
 2566              	.LBE1622:
 2567              	.LBE1621:
 2568              		.loc 3 160 0
 2569 00e4 8001001C 		lwz 0,28(1)
 2570 00e8 83E10014 		lwz 31,20(1)
 2571              	.LVL194:
 2572 00ec 7C0803A6 		mtlr 0
 2573 00f0 38210018 		addi 1,1,24
 2574              		.cfi_remember_state
 2575              	.LCFI40:
 2576              		.cfi_def_cfa_offset 0
 2577              		.cfi_restore 31
 2578 00f4 4E800020 		blr
 2579              	.LVL195:
 2580              	.L146:
 2581              	.LCFI41:
 2582              		.cfi_restore_state
 2583              		.loc 3 150 0 discriminator 1
 2584 00f8 813F0000 		lwz 9,0(31)
 2585 00fc 7FE3FB78 		mr 3,31
 2586 0100 80090098 		lwz 0,152(9)
 2587 0104 7C0903A6 		mtctr 0
 2588 0108 4E800421 		bctrl
 2589 010c 2F830000 		cmpwi 7,3,0
 2590 0110 40BEFF5C 		bne- 7,.L139
 2591              		.loc 3 160 0
 2592 0114 8001001C 		lwz 0,28(1)
 2593 0118 83E10014 		lwz 31,20(1)
 2594              	.LVL196:
 2595 011c 7C0803A6 		mtlr 0
 2596 0120 38210018 		addi 1,1,24
 2597              		.cfi_restore 31
 2598              	.LCFI42:
 2599              		.cfi_def_cfa_offset 0
 2600 0124 4E800020 		blr
 2601              		.cfi_endproc
 2602              	.LFE1575:
 2603              		.size	_ZN10GuiTooltip4DrawEv, .-_ZN10GuiTooltip4DrawEv
 2604              		.align 2
 2605              		.globl _ZN10GuiTooltip12InternalInitEv
 2606              		.type	_ZN10GuiTooltip12InternalInitEv, @function
 2607              	_ZN10GuiTooltip12InternalInitEv:
 2608              	.LFB1565:
 2609              		.loc 3 54 0
 2610              		.cfi_startproc
 2611              		.cfi_personality 0,__gxx_personality_v0
 2612              		.cfi_lsda 0,.LLSDA1565
 2613              	.LVL197:
 2614 0128 7C0802A6 		mflr 0
 2615 012c 9421FFE8 		stwu 1,-24(1)
 2616              	.LCFI43:
 2617              		.cfi_def_cfa_offset 24
 2618              		.cfi_register 65, 0
 2619              		.loc 3 57 0
 2620 0130 3D200000 		lis 9,Settings+108@ha
 2621              		.loc 3 54 0
 2622 0134 93C10010 		stw 30,16(1)
 2623 0138 9001001C 		stw 0,28(1)
 2624              		.loc 3 57 0
 2625 013c 8009006C 		lwz 0,Settings+108@l(9)
 2626              		.cfi_offset 65, 4
 2627              		.cfi_offset 30, -8
 2628 0140 3D200000 		lis 9,.LC1@ha
 2629 0144 C0090000 		lfs 0,.LC1@l(9)
 2630              		.loc 3 56 0
 2631 0148 39200016 		li 9,22
 2632              		.loc 3 57 0
 2633 014c 6C008000 		xoris 0,0,0x8000
 2634              		.loc 3 54 0
 2635 0150 93E10014 		stw 31,20(1)
 2636              		.loc 3 57 0
 2637 0154 9001000C 		stw 0,12(1)
 2638 0158 3C004330 		lis 0,0x4330
 2639 015c 90010008 		stw 0,8(1)
 2640              		.loc 3 55 0
 2641 0160 38000000 		li 0,0
 2642              		.loc 3 54 0
 2643 0164 7C7F1B78 		mr 31,3
 2644              		.cfi_offset 31, -4
 2645              		.loc 3 57 0
 2646 0168 C9A10008 		lfd 13,8(1)
 2647              		.loc 3 55 0
 2648 016c 900300B4 		stw 0,180(3)
 2649              		.loc 3 57 0
 2650 0170 FC0D0028 		fsub 0,13,0
 2651              		.loc 3 58 0
 2652 0174 98030098 		stb 0,152(3)
 2653 0178 98030099 		stb 0,153(3)
 2654 017c 9803009A 		stb 0,154(3)
 2655 0180 3800FFFF 		li 0,-1
 2656              		.loc 3 57 0
 2657 0184 FC000018 		frsp 0,0
 2658              		.loc 3 56 0
 2659 0188 91230094 		stw 9,148(3)
 2660              		.loc 3 58 0
 2661 018c 9803009B 		stb 0,155(3)
 2662              		.loc 3 57 0
 2663 0190 D0030090 		stfs 0,144(3)
 2664              		.loc 3 60 0
 2665 0194 3C600000 		lis 3,.LC4@ha
 2666              	.LVL198:
 2667 0198 38630000 		la 3,.LC4@l(3)
 2668              	.LEHB20:
 2669 019c 48000001 		bl _ZN9Resources12GetImageDataEPKc
 2670 01a0 907F00A8 		stw 3,168(31)
 2671              		.loc 3 61 0
 2672 01a4 3C600000 		lis 3,.LC5@ha
 2673 01a8 38630014 		la 3,.LC5@l(3)
 2674 01ac 48000001 		bl _ZN9Resources12GetImageDataEPKc
 2675 01b0 907F00AC 		stw 3,172(31)
 2676              		.loc 3 62 0
 2677 01b4 3C600000 		lis 3,.LC6@ha
 2678 01b8 38630028 		la 3,.LC6@l(3)
 2679 01bc 48000001 		bl _ZN9Resources12GetImageDataEPKc
 2680 01c0 907F00B0 		stw 3,176(31)
 2681              		.loc 3 63 0
 2682 01c4 386000C4 		li 3,196
 2683 01c8 48000001 		bl _Znwj
 2684              	.LEHE20:
 2685 01cc 809F00A8 		lwz 4,168(31)
 2686 01d0 7C7E1B78 		mr 30,3
 2687              	.LEHB21:
 2688 01d4 48000001 		bl _ZN8GuiImageC1EP12GuiImageData
 2689              	.LEHE21:
 2690              		.loc 3 63 0 is_stmt 0 discriminator 1
 2691 01d8 93DF009C 		stw 30,156(31)
 2692              		.loc 3 64 0 is_stmt 1 discriminator 1
 2693 01dc 386000C4 		li 3,196
 2694              	.LEHB22:
 2695 01e0 48000001 		bl _Znwj
 2696              	.LEHE22:
 2697 01e4 809F00AC 		lwz 4,172(31)
 2698 01e8 7C7E1B78 		mr 30,3
 2699              	.LEHB23:
 2700 01ec 48000001 		bl _ZN8GuiImageC1EP12GuiImageData
 2701              	.LEHE23:
 2702 01f0 93DF00A0 		stw 30,160(31)
 2703              		.loc 3 65 0 discriminator 1
 2704 01f4 386000C4 		li 3,196
 2705              	.LEHB24:
 2706 01f8 48000001 		bl _Znwj
 2707              	.LEHE24:
 2708 01fc 809F00B0 		lwz 4,176(31)
 2709 0200 7C7E1B78 		mr 30,3
 2710              	.LEHB25:
 2711 0204 48000001 		bl _ZN8GuiImageC1EP12GuiImageData
 2712              	.LEHE25:
 2713              		.loc 3 67 0 discriminator 1
 2714 0208 807F009C 		lwz 3,156(31)
 2715              		.loc 3 65 0 discriminator 1
 2716 020c 93DF00A4 		stw 30,164(31)
 2717              		.loc 3 67 0 discriminator 1
 2718 0210 81230000 		lwz 9,0(3)
 2719 0214 80090028 		lwz 0,40(9)
 2720 0218 7C0903A6 		mtctr 0
 2721              	.LEHB26:
 2722 021c 4E800421 		bctrl
 2723              		.loc 3 69 0 discriminator 1
 2724 0220 813F009C 		lwz 9,156(31)
 2725              		.loc 3 67 0 discriminator 1
 2726 0224 907F0028 		stw 3,40(31)
 2727              		.loc 3 69 0 discriminator 1
 2728 0228 7FE4FB78 		mr 4,31
 2729 022c 81690000 		lwz 11,0(9)
 2730 0230 7D234B78 		mr 3,9
 2731 0234 800B0008 		lwz 0,8(11)
 2732 0238 7C0903A6 		mtctr 0
 2733 023c 4E800421 		bctrl
 2734              		.loc 3 70 0 discriminator 1
 2735 0240 807F00A0 		lwz 3,160(31)
 2736 0244 7FE4FB78 		mr 4,31
 2737 0248 81230000 		lwz 9,0(3)
 2738 024c 80090008 		lwz 0,8(9)
 2739 0250 7C0903A6 		mtctr 0
 2740 0254 4E800421 		bctrl
 2741              		.loc 3 71 0 discriminator 1
 2742 0258 807F00A4 		lwz 3,164(31)
 2743 025c 7FE4FB78 		mr 4,31
 2744 0260 81230000 		lwz 9,0(3)
 2745 0264 80090008 		lwz 0,8(9)
 2746 0268 7C0903A6 		mtctr 0
 2747 026c 4E800421 		bctrl
 2748              		.loc 3 72 0 discriminator 1
 2749 0270 8001001C 		lwz 0,28(1)
 2750 0274 83C10010 		lwz 30,16(1)
 2751 0278 7C0803A6 		mtlr 0
 2752 027c 83E10014 		lwz 31,20(1)
 2753              	.LVL199:
 2754 0280 38210018 		addi 1,1,24
 2755              		.cfi_remember_state
 2756              	.LCFI44:
 2757              		.cfi_def_cfa_offset 0
 2758              		.cfi_restore 31
 2759              		.cfi_restore 30
 2760 0284 4E800020 		blr
 2761              	.LVL200:
 2762              	.L151:
 2763              	.L154:
 2764              	.LCFI45:
 2765              		.cfi_restore_state
 2766 0288 7C7F1B78 		mr 31,3
 2767              	.LVL201:
 2768              		.loc 3 64 0
 2769 028c 7FC3F378 		mr 3,30
 2770 0290 48000001 		bl _ZdlPv
 2771 0294 7FE3FB78 		mr 3,31
 2772 0298 48000001 		bl _Unwind_Resume
 2773              	.LEHE26:
 2774              	.LVL202:
 2775              	.L153:
 2776 029c 4BFFFFEC 		b .L154
 2777              	.L152:
 2778 02a0 4BFFFFE8 		b .L154
 2779              		.cfi_endproc
 2780              	.LFE1565:
 2781              		.section	.gcc_except_table
 2782              	.LLSDA1565:
 2783 0073 FF       		.byte	0xff
 2784 0074 FF       		.byte	0xff
 2785 0075 01       		.byte	0x1
 2786 0076 26       		.uleb128 .LLSDACSE1565-.LLSDACSB1565
 2787              	.LLSDACSB1565:
 2788 0077 74       		.uleb128 .LEHB20-.LFB1565
 2789 0078 30       		.uleb128 .LEHE20-.LEHB20
 2790 0079 00       		.uleb128 0
 2791 007a 00       		.uleb128 0
 2792 007b AC01     		.uleb128 .LEHB21-.LFB1565
 2793 007d 04       		.uleb128 .LEHE21-.LEHB21
 2794 007e E002     		.uleb128 .L151-.LFB1565
 2795 0080 00       		.uleb128 0
 2796 0081 B801     		.uleb128 .LEHB22-.LFB1565
 2797 0083 04       		.uleb128 .LEHE22-.LEHB22
 2798 0084 00       		.uleb128 0
 2799 0085 00       		.uleb128 0
 2800 0086 C401     		.uleb128 .LEHB23-.LFB1565
 2801 0088 04       		.uleb128 .LEHE23-.LEHB23
 2802 0089 F802     		.uleb128 .L152-.LFB1565
 2803 008b 00       		.uleb128 0
 2804 008c D001     		.uleb128 .LEHB24-.LFB1565
 2805 008e 04       		.uleb128 .LEHE24-.LEHB24
 2806 008f 00       		.uleb128 0
 2807 0090 00       		.uleb128 0
 2808 0091 DC01     		.uleb128 .LEHB25-.LFB1565
 2809 0093 04       		.uleb128 .LEHE25-.LEHB25
 2810 0094 F402     		.uleb128 .L153-.LFB1565
 2811 0096 00       		.uleb128 0
 2812 0097 F401     		.uleb128 .LEHB26-.LFB1565
 2813 0099 8001     		.uleb128 .LEHE26-.LEHB26
 2814 009b 00       		.uleb128 0
 2815 009c 00       		.uleb128 0
 2816              	.LLSDACSE1565:
 2817              		.section	".text"
 2818              		.size	_ZN10GuiTooltip12InternalInitEv, .-_ZN10GuiTooltip12InternalInitEv
 2819              		.align 2
 2820              		.globl _ZN10GuiTooltip7SetTextEPKw
 2821              		.type	_ZN10GuiTooltip7SetTextEPKw, @function
 2822              	_ZN10GuiTooltip7SetTextEPKw:
 2823              	.LFB1571:
 2824              		.loc 3 97 0
 2825              		.cfi_startproc
 2826              		.cfi_personality 0,__gxx_personality_v0
 2827              		.cfi_lsda 0,.LLSDA1571
 2828              	.LVL203:
 2829 02a4 7C0802A6 		mflr 0
 2830 02a8 9421FFC0 		stwu 1,-64(1)
 2831              	.LCFI46:
 2832              		.cfi_def_cfa_offset 64
 2833              		.cfi_register 65, 0
 2834 02ac 93E1003C 		stw 31,60(1)
 2835 02b0 7C7F1B78 		mr 31,3
 2836              		.cfi_offset 31, -4
 2837 02b4 90010044 		stw 0,68(1)
 2838 02b8 93A10034 		stw 29,52(1)
 2839 02bc 7C9D2378 		mr 29,4
 2840              		.cfi_offset 29, -12
 2841              		.cfi_offset 65, 4
 2842              	.LBB1623:
 2843              		.loc 3 98 0
 2844 02c0 806300B4 		lwz 3,180(3)
 2845              	.LVL204:
 2846              	.LBE1623:
 2847              		.loc 3 97 0
 2848 02c4 9361002C 		stw 27,44(1)
 2849              	.LBB1624:
 2850              		.loc 3 98 0
 2851 02c8 2F830000 		cmpwi 7,3,0
 2852              	.LBE1624:
 2853              		.loc 3 97 0
 2854 02cc 93810030 		stw 28,48(1)
 2855 02d0 93C10038 		stw 30,56(1)
 2856              	.LBB1625:
 2857              		.loc 3 98 0
 2858 02d4 419E0014 		beq- 7,.L156
 2859              		.cfi_offset 30, -8
 2860              		.cfi_offset 28, -16
 2861              		.cfi_offset 27, -20
 2862              		.loc 3 99 0 discriminator 1
 2863 02d8 81230000 		lwz 9,0(3)
 2864 02dc 80090004 		lwz 0,4(9)
 2865 02e0 7C0903A6 		mtctr 0
 2866              	.LEHB27:
 2867 02e4 4E800421 		bctrl
 2868              	.LVL205:
 2869              	.L156:
 2870              		.loc 3 103 0
 2871 02e8 2F9D0000 		cmpwi 7,29,0
 2872              		.loc 3 100 0
 2873 02ec 38000000 		li 0,0
 2874 02f0 901F00B4 		stw 0,180(31)
 2875              	.LVL206:
 2876              		.loc 3 103 0
 2877 02f4 419E01E4 		beq- 7,.L159
 2878              		.loc 3 105 0
 2879 02f8 386000D0 		li 3,208
 2880 02fc 48000001 		bl _Znwj
 2881              	.LEHE27:
 2882 0300 801F0098 		lwz 0,152(31)
 2883 0304 7C260B78 		mr 6,1
 2884 0308 7FA4EB78 		mr 4,29
 2885 030c 94060008 		stwu 0,8(6)
 2886 0310 7C7E1B78 		mr 30,3
 2887 0314 80BF0094 		lwz 5,148(31)
 2888              	.LEHB28:
 2889 0318 48000001 		bl _ZN7GuiTextC1EPKwi9_gx_color
 2890              	.LEHE28:
 2891              		.loc 3 106 0 discriminator 1
 2892 031c 813E0000 		lwz 9,0(30)
 2893 0320 7FC3F378 		mr 3,30
 2894              		.loc 3 105 0 discriminator 1
 2895 0324 93DF00B4 		stw 30,180(31)
 2896              		.loc 3 106 0 discriminator 1
 2897 0328 7FE4FB78 		mr 4,31
 2898 032c 80090008 		lwz 0,8(9)
 2899 0330 7C0903A6 		mtctr 0
 2900              	.LEHB29:
 2901 0334 4E800421 		bctrl
 2902              		.loc 3 107 0 discriminator 1
 2903 0338 807F00B4 		lwz 3,180(31)
 2904 033c 38800022 		li 4,34
 2905 0340 81230000 		lwz 9,0(3)
 2906 0344 800900B4 		lwz 0,180(9)
 2907 0348 7C0903A6 		mtctr 0
 2908 034c 4E800421 		bctrl
 2909              		.loc 3 108 0 discriminator 1
 2910 0350 807F00B4 		lwz 3,180(31)
 2911 0354 48000001 		bl _ZN7GuiText12GetTextWidthEv
 2912 0358 7C7E1B78 		mr 30,3
 2913 035c 807F00A0 		lwz 3,160(31)
 2914 0360 81230000 		lwz 9,0(3)
 2915 0364 80090024 		lwz 0,36(9)
 2916 0368 7C0903A6 		mtctr 0
 2917 036c 4E800421 		bctrl
 2918 0370 393EFFF4 		addi 9,30,-12
 2919 0374 3C004330 		lis 0,0x4330
 2920 0378 6D298000 		xoris 9,9,0x8000
 2921 037c 6C638000 		xoris 3,3,0x8000
 2922 0380 91210014 		stw 9,20(1)
 2923 0384 90010010 		stw 0,16(1)
 2924 0388 3D200000 		lis 9,.LC1@ha
 2925 038c 90010018 		stw 0,24(1)
 2926 0390 9061001C 		stw 3,28(1)
 2927 0394 C0090000 		lfs 0,.LC1@l(9)
 2928 0398 39210020 		addi 9,1,32
 2929 039c C9A10010 		lfd 13,16(1)
 2930 03a0 C9810018 		lfd 12,24(1)
 2931 03a4 FDAD0028 		fsub 13,13,0
 2932 03a8 FC0C0028 		fsub 0,12,0
 2933 03ac FDA06818 		frsp 13,13
 2934 03b0 FC000018 		frsp 0,0
 2935 03b4 EC0D0024 		fdivs 0,13,0
 2936 03b8 FC00001E 		fctiwz 0,0
 2937 03bc 7C004FAE 		stfiwx 0,0,9
 2938 03c0 83C10020 		lwz 30,32(1)
 2939              	.LVL207:
 2940              		.loc 3 110 0 discriminator 1
 2941 03c4 7FC0F0F8 		nor 0,30,30
 2942 03c8 7C00FE70 		srawi 0,0,31
 2943 03cc 7FDE0038 		and 30,30,0
 2944              	.LVL208:
 2945              	.L157:
 2946              		.loc 3 112 0
 2947 03d0 807F009C 		lwz 3,156(31)
 2948 03d4 839F00A0 		lwz 28,160(31)
 2949 03d8 81230000 		lwz 9,0(3)
 2950 03dc 80090024 		lwz 0,36(9)
 2951 03e0 813C0000 		lwz 9,0(28)
 2952 03e4 7C0903A6 		mtctr 0
 2953 03e8 83A900A8 		lwz 29,168(9)
 2954              	.LVL209:
 2955 03ec 4E800421 		bctrl
 2956 03f0 38A00000 		li 5,0
 2957 03f4 7FA903A6 		mtctr 29
 2958 03f8 7C641B78 		mr 4,3
 2959 03fc 7F83E378 		mr 3,28
 2960 0400 4E800421 		bctrl
 2961              		.loc 3 113 0
 2962 0404 807F00A0 		lwz 3,160(31)
 2963 0408 7FC4F378 		mr 4,30
 2964 040c 48000001 		bl _ZN8GuiImage17SetTileHorizontalEi
 2965              		.loc 3 114 0
 2966 0410 807F009C 		lwz 3,156(31)
 2967 0414 839F00A4 		lwz 28,164(31)
 2968 0418 81230000 		lwz 9,0(3)
 2969 041c 80090024 		lwz 0,36(9)
 2970 0420 813C0000 		lwz 9,0(28)
 2971 0424 7C0903A6 		mtctr 0
 2972 0428 83A900A8 		lwz 29,168(9)
 2973 042c 4E800421 		bctrl
 2974 0430 7C7B1B78 		mr 27,3
 2975 0434 807F00A0 		lwz 3,160(31)
 2976 0438 81230000 		lwz 9,0(3)
 2977 043c 80090024 		lwz 0,36(9)
 2978 0440 7C0903A6 		mtctr 0
 2979 0444 4E800421 		bctrl
 2980 0448 38A00000 		li 5,0
 2981 044c 7C1E19D6 		mullw 0,30,3
 2982 0450 7FA903A6 		mtctr 29
 2983 0454 7F83E378 		mr 3,28
 2984 0458 7C9B0214 		add 4,27,0
 2985 045c 4E800421 		bctrl
 2986              		.loc 3 115 0
 2987 0460 807F009C 		lwz 3,156(31)
 2988 0464 81230000 		lwz 9,0(3)
 2989 0468 80090024 		lwz 0,36(9)
 2990 046c 7C0903A6 		mtctr 0
 2991 0470 4E800421 		bctrl
 2992 0474 7C7D1B78 		mr 29,3
 2993 0478 807F00A0 		lwz 3,160(31)
 2994 047c 81230000 		lwz 9,0(3)
 2995 0480 80090024 		lwz 0,36(9)
 2996 0484 7C0903A6 		mtctr 0
 2997 0488 4E800421 		bctrl
 2998 048c 813F00A4 		lwz 9,164(31)
 2999 0490 7FDE19D6 		mullw 30,30,3
 3000              	.LVL210:
 3001 0494 81690000 		lwz 11,0(9)
 3002 0498 7D234B78 		mr 3,9
 3003 049c 800B0024 		lwz 0,36(11)
 3004 04a0 7FDDF214 		add 30,29,30
 3005 04a4 7C0903A6 		mtctr 0
 3006 04a8 4E800421 		bctrl
 3007              	.LBE1625:
 3008              		.loc 3 116 0
 3009 04ac 80010044 		lwz 0,68(1)
 3010              	.LBB1626:
 3011              		.loc 3 115 0
 3012 04b0 7FDE1A14 		add 30,30,3
 3013              	.LBE1626:
 3014              		.loc 3 116 0
 3015 04b4 8361002C 		lwz 27,44(1)
 3016 04b8 7C0803A6 		mtlr 0
 3017              	.LBB1627:
 3018              		.loc 3 115 0
 3019 04bc 93DF0024 		stw 30,36(31)
 3020              	.LBE1627:
 3021              		.loc 3 116 0
 3022 04c0 83810030 		lwz 28,48(1)
 3023 04c4 83A10034 		lwz 29,52(1)
 3024 04c8 83C10038 		lwz 30,56(1)
 3025 04cc 83E1003C 		lwz 31,60(1)
 3026              	.LVL211:
 3027 04d0 38210040 		addi 1,1,64
 3028              		.cfi_remember_state
 3029              	.LCFI47:
 3030              		.cfi_def_cfa_offset 0
 3031              		.cfi_restore 31
 3032              		.cfi_restore 30
 3033              		.cfi_restore 29
 3034              		.cfi_restore 28
 3035              		.cfi_restore 27
 3036 04d4 4E800020 		blr
 3037              	.LVL212:
 3038              	.L159:
 3039              	.LCFI48:
 3040              		.cfi_restore_state
 3041              	.LBB1628:
 3042              		.loc 3 102 0
 3043 04d8 3BC00000 		li 30,0
 3044 04dc 4BFFFEF4 		b .L157
 3045              	.L161:
 3046 04e0 7C7F1B78 		mr 31,3
 3047              	.LVL213:
 3048              		.loc 3 105 0
 3049 04e4 7FC3F378 		mr 3,30
 3050 04e8 48000001 		bl _ZdlPv
 3051 04ec 7FE3FB78 		mr 3,31
 3052 04f0 48000001 		bl _Unwind_Resume
 3053              	.LEHE29:
 3054              	.LBE1628:
 3055              		.cfi_endproc
 3056              	.LFE1571:
 3057              		.section	.gcc_except_table
 3058              	.LLSDA1571:
 3059 009d FF       		.byte	0xff
 3060 009e FF       		.byte	0xff
 3061 009f 01       		.byte	0x1
 3062 00a0 0F       		.uleb128 .LLSDACSE1571-.LLSDACSB1571
 3063              	.LLSDACSB1571:
 3064 00a1 40       		.uleb128 .LEHB27-.LFB1571
 3065 00a2 1C       		.uleb128 .LEHE27-.LEHB27
 3066 00a3 00       		.uleb128 0
 3067 00a4 00       		.uleb128 0
 3068 00a5 74       		.uleb128 .LEHB28-.LFB1571
 3069 00a6 04       		.uleb128 .LEHE28-.LEHB28
 3070 00a7 BC04     		.uleb128 .L161-.LFB1571
 3071 00a9 00       		.uleb128 0
 3072 00aa 9001     		.uleb128 .LEHB29-.LFB1571
 3073 00ac C003     		.uleb128 .LEHE29-.LEHB29
 3074 00ae 00       		.uleb128 0
 3075 00af 00       		.uleb128 0
 3076              	.LLSDACSE1571:
 3077              		.section	".text"
 3078              		.size	_ZN10GuiTooltip7SetTextEPKw, .-_ZN10GuiTooltip7SetTextEPKw
 3079              		.align 2
 3080              		.globl _ZN10GuiTooltip7SetTextEPKc
 3081              		.type	_ZN10GuiTooltip7SetTextEPKc, @function
 3082              	_ZN10GuiTooltip7SetTextEPKc:
 3083              	.LFB1570:
 3084              		.loc 3 89 0
 3085              		.cfi_startproc
 3086              	.LVL214:
 3087              		.loc 3 90 0
 3088 04f4 2C040000 		cmpwi 0,4,0
 3089              		.loc 3 89 0
 3090 04f8 7C0802A6 		mflr 0
 3091 04fc 9421FFF0 		stwu 1,-16(1)
 3092              	.LCFI49:
 3093              		.cfi_def_cfa_offset 16
 3094              		.cfi_register 65, 0
 3095 0500 93E1000C 		stw 31,12(1)
 3096 0504 7C7F1B78 		mr 31,3
 3097              		.cfi_offset 31, -4
 3098 0508 90010014 		stw 0,20(1)
 3099              		.loc 3 90 0
 3100 050c 41820028 		beq- 0,.L162
 3101              		.cfi_offset 65, 4
 3102              		.loc 3 93 0
 3103 0510 7C832378 		mr 3,4
 3104              	.LVL215:
 3105 0514 48000001 		bl _Z14charToWideCharPKc
 3106              	.LVL216:
 3107              		.loc 3 94 0
 3108 0518 80010014 		lwz 0,20(1)
 3109              		.loc 3 93 0
 3110 051c 7C641B78 		mr 4,3
 3111 0520 7FE3FB78 		mr 3,31
 3112              		.loc 3 94 0
 3113 0524 7C0803A6 		mtlr 0
 3114 0528 83E1000C 		lwz 31,12(1)
 3115              	.LVL217:
 3116 052c 38210010 		addi 1,1,16
 3117              		.cfi_remember_state
 3118              	.LCFI50:
 3119              		.cfi_def_cfa_offset 0
 3120              		.cfi_restore 31
 3121              		.loc 3 93 0
 3122 0530 48000000 		b _ZN10GuiTooltip7SetTextEPKw
 3123              	.LVL218:
 3124              	.L162:
 3125              	.LCFI51:
 3126              		.cfi_restore_state
 3127              		.loc 3 94 0
 3128 0534 80010014 		lwz 0,20(1)
 3129 0538 83E1000C 		lwz 31,12(1)
 3130 053c 7C0803A6 		mtlr 0
 3131 0540 38210010 		addi 1,1,16
 3132              	.LCFI52:
 3133              		.cfi_def_cfa_offset 0
 3134              		.cfi_restore 31
 3135 0544 4E800020 		blr
 3136              		.cfi_endproc
 3137              	.LFE1570:
 3138              		.size	_ZN10GuiTooltip7SetTextEPKc, .-_ZN10GuiTooltip7SetTextEPKc
 3139              		.align 2
 3140              		.globl _ZN10GuiTooltip11SetFontSizeEi
 3141              		.type	_ZN10GuiTooltip11SetFontSizeEi, @function
 3142              	_ZN10GuiTooltip11SetFontSizeEi:
 3143              	.LFB1572:
 3144              		.loc 3 119 0
 3145              		.cfi_startproc
 3146              		.cfi_personality 0,__gxx_personality_v0
 3147              		.cfi_lsda 0,.LLSDA1572
 3148              	.LVL219:
 3149 0548 7C0802A6 		mflr 0
 3150 054c 9421FFE0 		stwu 1,-32(1)
 3151              	.LCFI53:
 3152              		.cfi_def_cfa_offset 32
 3153              		.cfi_register 65, 0
 3154 0550 93E1001C 		stw 31,28(1)
 3155 0554 7C7F1B78 		mr 31,3
 3156              		.cfi_offset 31, -4
 3157 0558 90010024 		stw 0,36(1)
 3158              	.LBB1687:
 3159              		.loc 3 120 0
 3160 055c 909F0094 		stw 4,148(31)
 3161              	.LBB1688:
 3162              		.loc 3 122 0
 3163 0560 806300B4 		lwz 3,180(3)
 3164              	.LVL220:
 3165 0564 2F830000 		cmpwi 7,3,0
 3166 0568 419E0064 		beq- 7,.L164
 3167              		.cfi_offset 65, 4
 3168              	.LBB1689:
 3169              		.loc 3 124 0
 3170 056c 81230000 		lwz 9,0(3)
 3171 0570 800900DC 		lwz 0,220(9)
 3172 0574 7C0903A6 		mtctr 0
 3173              	.LEHB30:
 3174 0578 4E800421 		bctrl
 3175              	.LVL221:
 3176 057c 38A1000A 		addi 5,1,10
 3177 0580 7C641B78 		mr 4,3
 3178 0584 38610010 		addi 3,1,16
 3179 0588 48000001 		bl _ZNSbIwSt11char_traitsIwESaIwEEC1EPKwRKS1_
 3180              	.LEHE30:
 3181              		.loc 3 125 0
 3182 058c 3861000C 		addi 3,1,12
 3183 0590 38810010 		addi 4,1,16
 3184              	.LEHB31:
 3185 0594 48000001 		bl _ZNSbIwSt11char_traitsIwESaIwEEC1ERKS2_
 3186              	.LEHE31:
 3187              	.LVL222:
 3188              	.LBB1690:
 3189              	.LBB1691:
 3190              		.file 7 "d:/Projects/SaveGameManager/savegame-manager-gx/trunk/source/GUI/gui_tooltip.h"
 3191              		.loc 7 40 0 discriminator 1
 3192 0598 8081000C 		lwz 4,12(1)
 3193 059c 7FE3FB78 		mr 3,31
 3194              	.LEHB32:
 3195 05a0 48000001 		bl _ZN10GuiTooltip7SetTextEPKw
 3196              	.LEHE32:
 3197              	.LVL223:
 3198              	.LBE1691:
 3199              	.LBE1690:
 3200              	.LBB1692:
 3201              	.LBB1693:
 3202              	.LBB1694:
 3203              	.LBB1695:
 3204              	.LBB1696:
 3205              	.LBB1697:
 3206              		.file 8 "d:\\devkitpro\\devkitppc\\bin\\../lib/gcc/powerpc-eabi/4.6.3/../../../../powerpc-eabi/inc
 3207              		.loc 8 288 0
 3208 05a4 8121000C 		lwz 9,12(1)
 3209              	.LBE1697:
 3210              	.LBE1696:
 3211              	.LBE1695:
 3212              	.LBB1698:
 3213              	.LBB1699:
 3214              		.loc 8 235 0
 3215 05a8 3FE00000 		lis 31,_ZNSbIwSt11char_traitsIwESaIwEE4_Rep20_S_empty_rep_storageE@ha
 3216              	.LVL224:
 3217 05ac 3BFF0000 		la 31,_ZNSbIwSt11char_traitsIwESaIwEE4_Rep20_S_empty_rep_storageE@l(31)
 3218              	.LBE1699:
 3219              	.LBE1698:
 3220              		.loc 8 534 0
 3221 05b0 3869FFF4 		addi 3,9,-12
 3222              	.LVL225:
 3223              	.LBB1708:
 3224              	.LBB1706:
 3225              		.loc 8 235 0
 3226 05b4 7F83F800 		cmpw 7,3,31
 3227 05b8 409E0028 		bne- 7,.L183
 3228              	.LVL226:
 3229              	.L173:
 3230              	.LBE1706:
 3231              	.LBE1708:
 3232              	.LBE1694:
 3233              	.LBE1693:
 3234              	.LBE1692:
 3235              	.LBB1712:
 3236              	.LBB1713:
 3237              	.LBB1714:
 3238              	.LBB1715:
 3239              	.LBB1716:
 3240              	.LBB1717:
 3241              		.loc 8 288 0
 3242 05bc 81210010 		lwz 9,16(1)
 3243              	.LBE1717:
 3244              	.LBE1716:
 3245              	.LBE1715:
 3246              		.loc 8 534 0
 3247 05c0 3869FFF4 		addi 3,9,-12
 3248              	.LVL227:
 3249              	.LBB1718:
 3250              	.LBB1719:
 3251              		.loc 8 235 0
 3252 05c4 7F83F800 		cmpw 7,3,31
 3253 05c8 409E0038 		bne- 7,.L184
 3254              	.LVL228:
 3255              	.L164:
 3256              	.LBE1719:
 3257              	.LBE1718:
 3258              	.LBE1714:
 3259              	.LBE1713:
 3260              	.LBE1712:
 3261              	.LBE1689:
 3262              	.LBE1688:
 3263              	.LBE1687:
 3264              		.loc 3 127 0
 3265 05cc 80010024 		lwz 0,36(1)
 3266 05d0 83E1001C 		lwz 31,28(1)
 3267 05d4 7C0803A6 		mtlr 0
 3268 05d8 38210020 		addi 1,1,32
 3269              		.cfi_remember_state
 3270              	.LCFI54:
 3271              		.cfi_def_cfa_offset 0
 3272              		.cfi_restore 31
 3273 05dc 4E800020 		blr
 3274              	.LVL229:
 3275              	.L183:
 3276              	.LCFI55:
 3277              		.cfi_restore_state
 3278              	.LBB1734:
 3279              	.LBB1733:
 3280              	.LBB1732:
 3281              	.LBB1730:
 3282              	.LBB1711:
 3283              	.LBB1710:
 3284              	.LBB1709:
 3285              	.LBB1707:
 3286              	.LBB1700:
 3287              	.LBB1701:
 3288              	.LBB1702:
 3289              		.file 9 "d:\\devkitpro\\devkitppc\\bin\\../lib/gcc/powerpc-eabi/4.6.3/../../../../powerpc-eabi/inc
 3290              		.loc 9 66 0
 3291 05e0 8169FFFC 		lwz 11,-4(9)
 3292              	.LVL230:
 3293              	.LBE1702:
 3294              	.LBE1701:
 3295              	.LBE1700:
 3296              		.loc 8 240 0
 3297 05e4 2F8B0000 		cmpwi 7,11,0
 3298              	.LBB1705:
 3299              	.LBB1704:
 3300              	.LBB1703:
 3301              		.loc 9 67 0
 3302 05e8 396BFFFF 		addi 11,11,-1
 3303 05ec 9169FFFC 		stw 11,-4(9)
 3304              	.LBE1703:
 3305              	.LBE1704:
 3306              	.LBE1705:
 3307              		.loc 8 240 0
 3308 05f0 419DFFCC 		bgt+ 7,.L173
 3309              		.loc 8 244 0
 3310 05f4 38810009 		addi 4,1,9
 3311 05f8 48000001 		bl _ZNSbIwSt11char_traitsIwESaIwEE4_Rep10_M_destroyERKS1_
 3312              	.LVL231:
 3313 05fc 4BFFFFC0 		b .L173
 3314              	.LVL232:
 3315              	.L184:
 3316              	.LBE1707:
 3317              	.LBE1709:
 3318              	.LBE1710:
 3319              	.LBE1711:
 3320              	.LBE1730:
 3321              	.LBB1731:
 3322              	.LBB1729:
 3323              	.LBB1728:
 3324              	.LBB1727:
 3325              	.LBB1726:
 3326              	.LBB1720:
 3327              	.LBB1721:
 3328              	.LBB1722:
 3329              		.loc 9 66 0
 3330 0600 8169FFFC 		lwz 11,-4(9)
 3331              	.LVL233:
 3332              	.LBE1722:
 3333              	.LBE1721:
 3334              	.LBE1720:
 3335              		.loc 8 240 0
 3336 0604 2F8B0000 		cmpwi 7,11,0
 3337              	.LBB1725:
 3338              	.LBB1724:
 3339              	.LBB1723:
 3340              		.loc 9 67 0
 3341 0608 396BFFFF 		addi 11,11,-1
 3342 060c 9169FFFC 		stw 11,-4(9)
 3343              	.LBE1723:
 3344              	.LBE1724:
 3345              	.LBE1725:
 3346              		.loc 8 240 0
 3347 0610 419DFFBC 		bgt+ 7,.L164
 3348              		.loc 8 244 0
 3349 0614 38810008 		addi 4,1,8
 3350 0618 48000001 		bl _ZNSbIwSt11char_traitsIwESaIwEE4_Rep10_M_destroyERKS1_
 3351              	.LVL234:
 3352 061c 4BFFFFB0 		b .L164
 3353              	.LVL235:
 3354              	.L182:
 3355 0620 7C7F1B78 		mr 31,3
 3356              	.LVL236:
 3357              	.LBE1726:
 3358              	.LBE1727:
 3359              	.LBE1728:
 3360              	.LBE1729:
 3361              	.LBE1731:
 3362              		.loc 3 125 0
 3363 0624 3861000C 		addi 3,1,12
 3364              	.LVL237:
 3365 0628 48000001 		bl _ZNSbIwSt11char_traitsIwESaIwEED1Ev
 3366              	.LVL238:
 3367              	.L180:
 3368 062c 38610010 		addi 3,1,16
 3369 0630 48000001 		bl _ZNSbIwSt11char_traitsIwESaIwEED1Ev
 3370 0634 7FE3FB78 		mr 3,31
 3371              	.LEHB33:
 3372 0638 48000001 		bl _Unwind_Resume
 3373              	.LEHE33:
 3374              	.LVL239:
 3375              	.L181:
 3376 063c 7C7F1B78 		mr 31,3
 3377              	.LVL240:
 3378 0640 4BFFFFEC 		b .L180
 3379              	.LBE1732:
 3380              	.LBE1733:
 3381              	.LBE1734:
 3382              		.cfi_endproc
 3383              	.LFE1572:
 3384              		.section	.gcc_except_table
 3385              	.LLSDA1572:
 3386 00b0 FF       		.byte	0xff
 3387 00b1 FF       		.byte	0xff
 3388 00b2 01       		.byte	0x1
 3389 00b3 13       		.uleb128 .LLSDACSE1572-.LLSDACSB1572
 3390              	.LLSDACSB1572:
 3391 00b4 30       		.uleb128 .LEHB30-.LFB1572
 3392 00b5 14       		.uleb128 .LEHE30-.LEHB30
 3393 00b6 00       		.uleb128 0
 3394 00b7 00       		.uleb128 0
 3395 00b8 4C       		.uleb128 .LEHB31-.LFB1572
 3396 00b9 04       		.uleb128 .LEHE31-.LEHB31
 3397 00ba F401     		.uleb128 .L181-.LFB1572
 3398 00bc 00       		.uleb128 0
 3399 00bd 58       		.uleb128 .LEHB32-.LFB1572
 3400 00be 04       		.uleb128 .LEHE32-.LEHB32
 3401 00bf D801     		.uleb128 .L182-.LFB1572
 3402 00c1 00       		.uleb128 0
 3403 00c2 F001     		.uleb128 .LEHB33-.LFB1572
 3404 00c4 04       		.uleb128 .LEHE33-.LEHB33
 3405 00c5 00       		.uleb128 0
 3406 00c6 00       		.uleb128 0
 3407              	.LLSDACSE1572:
 3408              		.section	".text"
 3409              		.size	_ZN10GuiTooltip11SetFontSizeEi, .-_ZN10GuiTooltip11SetFontSizeEi
 3410              		.align 2
 3411              		.globl _ZN10GuiTooltip8SetColorE9_gx_color
 3412              		.type	_ZN10GuiTooltip8SetColorE9_gx_color, @function
 3413              	_ZN10GuiTooltip8SetColorE9_gx_color:
 3414              	.LFB1573:
 3415              		.loc 3 130 0
 3416              		.cfi_startproc
 3417              		.cfi_personality 0,__gxx_personality_v0
 3418              		.cfi_lsda 0,.LLSDA1573
 3419              	.LVL241:
 3420 0644 7C0802A6 		mflr 0
 3421 0648 9421FFE0 		stwu 1,-32(1)
 3422              	.LCFI56:
 3423              		.cfi_def_cfa_offset 32
 3424              		.cfi_register 65, 0
 3425 064c 93E1001C 		stw 31,28(1)
 3426 0650 7C7F1B78 		mr 31,3
 3427              		.cfi_offset 31, -4
 3428 0654 90010024 		stw 0,36(1)
 3429              	.LBB1793:
 3430              	.LBB1794:
 3431              		.loc 3 133 0
 3432 0658 806300B4 		lwz 3,180(3)
 3433              	.LVL242:
 3434              	.LBE1794:
 3435              	.LBE1793:
 3436              		.loc 3 130 0
 3437 065c 80040000 		lwz 0,0(4)
 3438              		.cfi_offset 65, 4
 3439              	.LBB1842:
 3440              	.LBB1839:
 3441              		.loc 3 133 0
 3442 0660 2F830000 		cmpwi 7,3,0
 3443              	.LBE1839:
 3444              		.loc 3 131 0
 3445 0664 901F0098 		stw 0,152(31)
 3446              	.LBB1840:
 3447              		.loc 3 133 0
 3448 0668 419E0064 		beq- 7,.L185
 3449              	.LBB1795:
 3450              		.loc 3 135 0
 3451 066c 81230000 		lwz 9,0(3)
 3452 0670 800900DC 		lwz 0,220(9)
 3453 0674 7C0903A6 		mtctr 0
 3454              	.LEHB34:
 3455 0678 4E800421 		bctrl
 3456 067c 38A1000A 		addi 5,1,10
 3457 0680 7C641B78 		mr 4,3
 3458 0684 38610010 		addi 3,1,16
 3459 0688 48000001 		bl _ZNSbIwSt11char_traitsIwESaIwEEC1EPKwRKS1_
 3460              	.LEHE34:
 3461              		.loc 3 136 0
 3462 068c 3861000C 		addi 3,1,12
 3463 0690 38810010 		addi 4,1,16
 3464              	.LEHB35:
 3465 0694 48000001 		bl _ZNSbIwSt11char_traitsIwESaIwEEC1ERKS2_
 3466              	.LEHE35:
 3467              	.LVL243:
 3468              	.LBB1796:
 3469              	.LBB1797:
 3470              		.loc 7 40 0 discriminator 1
 3471 0698 8081000C 		lwz 4,12(1)
 3472 069c 7FE3FB78 		mr 3,31
 3473              	.LEHB36:
 3474 06a0 48000001 		bl _ZN10GuiTooltip7SetTextEPKw
 3475              	.LEHE36:
 3476              	.LVL244:
 3477              	.LBE1797:
 3478              	.LBE1796:
 3479              	.LBB1798:
 3480              	.LBB1799:
 3481              	.LBB1800:
 3482              	.LBB1801:
 3483              	.LBB1802:
 3484              	.LBB1803:
 3485              		.loc 8 288 0
 3486 06a4 8121000C 		lwz 9,12(1)
 3487              	.LBE1803:
 3488              	.LBE1802:
 3489              	.LBE1801:
 3490              	.LBB1804:
 3491              	.LBB1805:
 3492              		.loc 8 235 0
 3493 06a8 3FE00000 		lis 31,_ZNSbIwSt11char_traitsIwESaIwEE4_Rep20_S_empty_rep_storageE@ha
 3494              	.LVL245:
 3495 06ac 3BFF0000 		la 31,_ZNSbIwSt11char_traitsIwESaIwEE4_Rep20_S_empty_rep_storageE@l(31)
 3496              	.LBE1805:
 3497              	.LBE1804:
 3498              		.loc 8 534 0
 3499 06b0 3869FFF4 		addi 3,9,-12
 3500              	.LVL246:
 3501              	.LBB1814:
 3502              	.LBB1812:
 3503              		.loc 8 235 0
 3504 06b4 7F83F800 		cmpw 7,3,31
 3505 06b8 409E0028 		bne- 7,.L204
 3506              	.LVL247:
 3507              	.L194:
 3508              	.LBE1812:
 3509              	.LBE1814:
 3510              	.LBE1800:
 3511              	.LBE1799:
 3512              	.LBE1798:
 3513              	.LBB1818:
 3514              	.LBB1819:
 3515              	.LBB1820:
 3516              	.LBB1821:
 3517              	.LBB1822:
 3518              	.LBB1823:
 3519              		.loc 8 288 0
 3520 06bc 81210010 		lwz 9,16(1)
 3521              	.LBE1823:
 3522              	.LBE1822:
 3523              	.LBE1821:
 3524              		.loc 8 534 0
 3525 06c0 3869FFF4 		addi 3,9,-12
 3526              	.LVL248:
 3527              	.LBB1824:
 3528              	.LBB1825:
 3529              		.loc 8 235 0
 3530 06c4 7F83F800 		cmpw 7,3,31
 3531 06c8 409E0038 		bne- 7,.L205
 3532              	.LVL249:
 3533              	.L185:
 3534              	.LBE1825:
 3535              	.LBE1824:
 3536              	.LBE1820:
 3537              	.LBE1819:
 3538              	.LBE1818:
 3539              	.LBE1795:
 3540              	.LBE1840:
 3541              	.LBE1842:
 3542              		.loc 3 138 0
 3543 06cc 80010024 		lwz 0,36(1)
 3544 06d0 83E1001C 		lwz 31,28(1)
 3545 06d4 7C0803A6 		mtlr 0
 3546 06d8 38210020 		addi 1,1,32
 3547              		.cfi_remember_state
 3548              	.LCFI57:
 3549              		.cfi_def_cfa_offset 0
 3550              		.cfi_restore 31
 3551 06dc 4E800020 		blr
 3552              	.LVL250:
 3553              	.L204:
 3554              	.LCFI58:
 3555              		.cfi_restore_state
 3556              	.LBB1843:
 3557              	.LBB1841:
 3558              	.LBB1838:
 3559              	.LBB1836:
 3560              	.LBB1817:
 3561              	.LBB1816:
 3562              	.LBB1815:
 3563              	.LBB1813:
 3564              	.LBB1806:
 3565              	.LBB1807:
 3566              	.LBB1808:
 3567              		.loc 9 66 0
 3568 06e0 8169FFFC 		lwz 11,-4(9)
 3569              	.LVL251:
 3570              	.LBE1808:
 3571              	.LBE1807:
 3572              	.LBE1806:
 3573              		.loc 8 240 0
 3574 06e4 2F8B0000 		cmpwi 7,11,0
 3575              	.LBB1811:
 3576              	.LBB1810:
 3577              	.LBB1809:
 3578              		.loc 9 67 0
 3579 06e8 396BFFFF 		addi 11,11,-1
 3580 06ec 9169FFFC 		stw 11,-4(9)
 3581              	.LBE1809:
 3582              	.LBE1810:
 3583              	.LBE1811:
 3584              		.loc 8 240 0
 3585 06f0 419DFFCC 		bgt+ 7,.L194
 3586              		.loc 8 244 0
 3587 06f4 38810009 		addi 4,1,9
 3588 06f8 48000001 		bl _ZNSbIwSt11char_traitsIwESaIwEE4_Rep10_M_destroyERKS1_
 3589              	.LVL252:
 3590 06fc 4BFFFFC0 		b .L194
 3591              	.LVL253:
 3592              	.L205:
 3593              	.LBE1813:
 3594              	.LBE1815:
 3595              	.LBE1816:
 3596              	.LBE1817:
 3597              	.LBE1836:
 3598              	.LBB1837:
 3599              	.LBB1835:
 3600              	.LBB1834:
 3601              	.LBB1833:
 3602              	.LBB1832:
 3603              	.LBB1826:
 3604              	.LBB1827:
 3605              	.LBB1828:
 3606              		.loc 9 66 0
 3607 0700 8169FFFC 		lwz 11,-4(9)
 3608              	.LVL254:
 3609              	.LBE1828:
 3610              	.LBE1827:
 3611              	.LBE1826:
 3612              		.loc 8 240 0
 3613 0704 2F8B0000 		cmpwi 7,11,0
 3614              	.LBB1831:
 3615              	.LBB1830:
 3616              	.LBB1829:
 3617              		.loc 9 67 0
 3618 0708 396BFFFF 		addi 11,11,-1
 3619 070c 9169FFFC 		stw 11,-4(9)
 3620              	.LBE1829:
 3621              	.LBE1830:
 3622              	.LBE1831:
 3623              		.loc 8 240 0
 3624 0710 419DFFBC 		bgt+ 7,.L185
 3625              		.loc 8 244 0
 3626 0714 38810008 		addi 4,1,8
 3627 0718 48000001 		bl _ZNSbIwSt11char_traitsIwESaIwEE4_Rep10_M_destroyERKS1_
 3628              	.LVL255:
 3629 071c 4BFFFFB0 		b .L185
 3630              	.LVL256:
 3631              	.L203:
 3632 0720 7C7F1B78 		mr 31,3
 3633              	.LVL257:
 3634              	.LBE1832:
 3635              	.LBE1833:
 3636              	.LBE1834:
 3637              	.LBE1835:
 3638              	.LBE1837:
 3639              		.loc 3 136 0
 3640 0724 3861000C 		addi 3,1,12
 3641              	.LVL258:
 3642 0728 48000001 		bl _ZNSbIwSt11char_traitsIwESaIwEED1Ev
 3643              	.LVL259:
 3644              	.L201:
 3645 072c 38610010 		addi 3,1,16
 3646 0730 48000001 		bl _ZNSbIwSt11char_traitsIwESaIwEED1Ev
 3647 0734 7FE3FB78 		mr 3,31
 3648              	.LEHB37:
 3649 0738 48000001 		bl _Unwind_Resume
 3650              	.LEHE37:
 3651              	.LVL260:
 3652              	.L202:
 3653 073c 7C7F1B78 		mr 31,3
 3654              	.LVL261:
 3655 0740 4BFFFFEC 		b .L201
 3656              	.LBE1838:
 3657              	.LBE1841:
 3658              	.LBE1843:
 3659              		.cfi_endproc
 3660              	.LFE1573:
 3661              		.section	.gcc_except_table
 3662              	.LLSDA1573:
 3663 00c7 FF       		.byte	0xff
 3664 00c8 FF       		.byte	0xff
 3665 00c9 01       		.byte	0x1
 3666 00ca 13       		.uleb128 .LLSDACSE1573-.LLSDACSB1573
 3667              	.LLSDACSB1573:
 3668 00cb 34       		.uleb128 .LEHB34-.LFB1573
 3669 00cc 14       		.uleb128 .LEHE34-.LEHB34
 3670 00cd 00       		.uleb128 0
 3671 00ce 00       		.uleb128 0
 3672 00cf 50       		.uleb128 .LEHB35-.LFB1573
 3673 00d0 04       		.uleb128 .LEHE35-.LEHB35
 3674 00d1 F801     		.uleb128 .L202-.LFB1573
 3675 00d3 00       		.uleb128 0
 3676 00d4 5C       		.uleb128 .LEHB36-.LFB1573
 3677 00d5 04       		.uleb128 .LEHE36-.LEHB36
 3678 00d6 DC01     		.uleb128 .L203-.LFB1573
 3679 00d8 00       		.uleb128 0
 3680 00d9 F401     		.uleb128 .LEHB37-.LFB1573
 3681 00db 04       		.uleb128 .LEHE37-.LEHB37
 3682 00dc 00       		.uleb128 0
 3683 00dd 00       		.uleb128 0
 3684              	.LLSDACSE1573:
 3685              		.section	".text"
 3686              		.size	_ZN10GuiTooltip8SetColorE9_gx_color, .-_ZN10GuiTooltip8SetColorE9_gx_color
 3687              		.align 2
 3688              		.globl _ZN10GuiTooltip13SetElapseTimeEf
 3689              		.type	_ZN10GuiTooltip13SetElapseTimeEf, @function
 3690              	_ZN10GuiTooltip13SetElapseTimeEf:
 3691              	.LFB1574:
 3692              		.loc 3 141 0
 3693              		.cfi_startproc
 3694              	.LVL262:
 3695              		.loc 3 142 0
 3696 0744 D0230090 		stfs 1,144(3)
 3697              		.loc 3 143 0
 3698 0748 4E800020 		blr
 3699              		.cfi_endproc
 3700              	.LFE1574:
 3701              		.size	_ZN10GuiTooltip13SetElapseTimeEf, .-_ZN10GuiTooltip13SetElapseTimeEf
 3702              		.section	.text._ZNSt8_Rb_treeIPN7sigslot12_signal_baseINS0_15single_threadedEEES4_St9_IdentityIS4_
 3703              		.align 2
 3704              		.weak	_ZNSt8_Rb_treeIPN7sigslot12_signal_baseINS0_15single_threadedEEES4_St9_IdentityIS4_ESt4lessI
 3705              		.type	_ZNSt8_Rb_treeIPN7sigslot12_signal_baseINS0_15single_threadedEEES4_St9_IdentityIS4_ESt4lessI
 3706              	_ZNSt8_Rb_treeIPN7sigslot12_signal_baseINS0_15single_threadedEEES4_St9_IdentityIS4_ESt4lessIS4_ESaI
 3707              	.LFB1829:
 3708              		.file 10 "d:\\devkitpro\\devkitppc\\bin\\../lib/gcc/powerpc-eabi/4.6.3/../../../../powerpc-eabi/in
 3709              		.loc 10 1068 0
 3710              		.cfi_startproc
 3711              	.LVL263:
 3712 0000 9421FFC8 		stwu 1,-56(1)
 3713              	.LCFI59:
 3714              		.cfi_def_cfa_offset 56
 3715 0004 7C0802A6 		mflr 0
 3716 0008 92C10010 		stw 22,16(1)
 3717              	.LBB1960:
 3718              		.loc 10 1072 0
 3719 000c 7C962379 		mr. 22,4
 3720              		.cfi_offset 22, -40
 3721              		.cfi_register 65, 0
 3722              	.LBE1960:
 3723              		.loc 10 1068 0
 3724 0010 93C10030 		stw 30,48(1)
 3725 0014 7C7E1B78 		mr 30,3
 3726              		.cfi_offset 30, -8
 3727 0018 9001003C 		stw 0,60(1)
 3728 001c 92A1000C 		stw 21,12(1)
 3729 0020 92E10014 		stw 23,20(1)
 3730 0024 93010018 		stw 24,24(1)
 3731 0028 9321001C 		stw 25,28(1)
 3732 002c 93410020 		stw 26,32(1)
 3733 0030 93610024 		stw 27,36(1)
 3734 0034 93810028 		stw 28,40(1)
 3735 0038 93A1002C 		stw 29,44(1)
 3736 003c 93E10034 		stw 31,52(1)
 3737              	.LBB2045:
 3738              		.loc 10 1072 0
 3739 0040 41820168 		beq- 0,.L207
 3740              		.cfi_offset 31, -4
 3741              		.cfi_offset 29, -12
 3742              		.cfi_offset 28, -16
 3743              		.cfi_offset 27, -20
 3744              		.cfi_offset 26, -24
 3745              		.cfi_offset 25, -28
 3746              		.cfi_offset 24, -32
 3747              		.cfi_offset 23, -36
 3748              		.cfi_offset 21, -44
 3749              		.cfi_offset 65, 4
 3750              	.LVL264:
 3751              	.L253:
 3752              		.loc 3 160 0
 3753 0044 8376000C 		lwz 27,12(22)
 3754              	.LVL265:
 3755              	.LBB1961:
 3756              	.LBB1962:
 3757              	.LBB1963:
 3758              		.loc 10 1072 0
 3759 0048 2F9B0000 		cmpwi 7,27,0
 3760 004c 419E0140 		beq- 7,.L209
 3761              	.LVL266:
 3762              	.L254:
 3763              	.LBE1963:
 3764              		.loc 3 160 0
 3765 0050 835B000C 		lwz 26,12(27)
 3766              	.LVL267:
 3767              	.LBB2039:
 3768              	.LBB1964:
 3769              	.LBB1965:
 3770              	.LBB1966:
 3771              		.loc 10 1072 0
 3772 0054 2F9A0000 		cmpwi 7,26,0
 3773 0058 419E0118 		beq- 7,.L210
 3774              	.LVL268:
 3775              	.L255:
 3776              	.LBE1966:
 3777              		.loc 3 160 0
 3778 005c 833A000C 		lwz 25,12(26)
 3779              	.LVL269:
 3780              	.LBB2032:
 3781              	.LBB1967:
 3782              	.LBB1968:
 3783              	.LBB1969:
 3784              		.loc 10 1072 0
 3785 0060 2F990000 		cmpwi 7,25,0
 3786 0064 419E00F0 		beq- 7,.L211
 3787              	.LVL270:
 3788              	.L256:
 3789              	.LBE1969:
 3790              		.loc 3 160 0
 3791 0068 8319000C 		lwz 24,12(25)
 3792              	.LVL271:
 3793              	.LBB2025:
 3794              	.LBB1970:
 3795              	.LBB1971:
 3796              	.LBB1972:
 3797              		.loc 10 1072 0
 3798 006c 2F980000 		cmpwi 7,24,0
 3799 0070 419E00C8 		beq- 7,.L212
 3800              	.LVL272:
 3801              	.L257:
 3802              	.LBE1972:
 3803              		.loc 3 160 0
 3804 0074 82F8000C 		lwz 23,12(24)
 3805              	.LVL273:
 3806              	.LBB2018:
 3807              	.LBB1973:
 3808              	.LBB1974:
 3809              	.LBB1975:
 3810              		.loc 10 1072 0
 3811 0078 2F970000 		cmpwi 7,23,0
 3812 007c 419E00A0 		beq- 7,.L213
 3813              	.LVL274:
 3814              	.L258:
 3815              	.LBE1975:
 3816              		.loc 3 160 0
 3817 0080 8397000C 		lwz 28,12(23)
 3818              	.LVL275:
 3819              	.LBB2011:
 3820              	.LBB1976:
 3821              	.LBB1977:
 3822              	.LBB1978:
 3823              		.loc 10 1072 0
 3824 0084 2F9C0000 		cmpwi 7,28,0
 3825 0088 419E0078 		beq- 7,.L214
 3826              	.LVL276:
 3827              	.L259:
 3828              	.LBE1978:
 3829              		.loc 3 160 0
 3830 008c 83BC000C 		lwz 29,12(28)
 3831              	.LVL277:
 3832              	.LBB2004:
 3833              	.LBB1979:
 3834              	.LBB1980:
 3835              	.LBB1981:
 3836              		.loc 10 1072 0
 3837 0090 2F9D0000 		cmpwi 7,29,0
 3838 0094 419E0050 		beq- 7,.L215
 3839              	.LVL278:
 3840              	.L260:
 3841              	.LBE1981:
 3842              		.loc 3 160 0
 3843 0098 83FD000C 		lwz 31,12(29)
 3844              	.LVL279:
 3845              	.LBB1997:
 3846              	.LBB1982:
 3847              	.LBB1983:
 3848              	.LBB1984:
 3849              		.loc 10 1072 0
 3850 009c 2F9F0000 		cmpwi 7,31,0
 3851 00a0 419E0028 		beq- 7,.L216
 3852              	.LVL280:
 3853              	.L261:
 3854              	.LBB1985:
 3855              		.loc 10 1074 0
 3856 00a4 809F000C 		lwz 4,12(31)
 3857 00a8 7FC3F378 		mr 3,30
 3858 00ac 48000001 		bl _ZNSt8_Rb_treeIPN7sigslot12_signal_baseINS0_15single_threadedEEES4_St9_IdentityIS4_ESt4lessIS4_
 3859              	.LBE1985:
 3860              	.LBE1984:
 3861              		.loc 3 160 0
 3862 00b0 82BF0008 		lwz 21,8(31)
 3863              	.LVL281:
 3864              	.LBB1991:
 3865              	.LBB1990:
 3866              	.LBB1986:
 3867              	.LBB1987:
 3868              	.LBB1988:
 3869              	.LBB1989:
 3870              		.loc 6 98 0
 3871 00b4 7FE3FB78 		mr 3,31
 3872 00b8 48000001 		bl _ZdlPv
 3873              	.LVL282:
 3874              	.LBE1989:
 3875              	.LBE1988:
 3876              	.LBE1987:
 3877              	.LBE1986:
 3878              	.LBE1990:
 3879              		.loc 10 1072 0
 3880 00bc 2F950000 		cmpwi 7,21,0
 3881              		.loc 10 1077 0
 3882 00c0 7EBFAB78 		mr 31,21
 3883              	.LVL283:
 3884              		.loc 10 1072 0
 3885 00c4 409EFFE0 		bne+ 7,.L261
 3886              	.LVL284:
 3887              	.L216:
 3888              	.LBE1991:
 3889              	.LBE1983:
 3890              	.LBE1982:
 3891              	.LBE1997:
 3892              		.loc 3 160 0
 3893 00c8 83FD0008 		lwz 31,8(29)
 3894              	.LVL285:
 3895              	.LBB1998:
 3896              	.LBB1996:
 3897              	.LBB1992:
 3898              	.LBB1993:
 3899              	.LBB1994:
 3900              	.LBB1995:
 3901              		.loc 6 98 0
 3902 00cc 7FA3EB78 		mr 3,29
 3903 00d0 48000001 		bl _ZdlPv
 3904              	.LVL286:
 3905              	.LBE1995:
 3906              	.LBE1994:
 3907              	.LBE1993:
 3908              	.LBE1992:
 3909              	.LBE1996:
 3910              		.loc 10 1072 0
 3911 00d4 2F9F0000 		cmpwi 7,31,0
 3912 00d8 419E000C 		beq- 7,.L215
 3913              		.loc 10 1077 0
 3914 00dc 7FFDFB78 		mr 29,31
 3915              	.LVL287:
 3916 00e0 4BFFFFB8 		b .L260
 3917              	.LVL288:
 3918              	.L215:
 3919              	.LBE1998:
 3920              	.LBE1980:
 3921              	.LBE1979:
 3922              	.LBE2004:
 3923              		.loc 3 160 0
 3924 00e4 83FC0008 		lwz 31,8(28)
 3925              	.LVL289:
 3926              	.LBB2005:
 3927              	.LBB2003:
 3928              	.LBB1999:
 3929              	.LBB2000:
 3930              	.LBB2001:
 3931              	.LBB2002:
 3932              		.loc 6 98 0
 3933 00e8 7F83E378 		mr 3,28
 3934 00ec 48000001 		bl _ZdlPv
 3935              	.LVL290:
 3936              	.LBE2002:
 3937              	.LBE2001:
 3938              	.LBE2000:
 3939              	.LBE1999:
 3940              	.LBE2003:
 3941              		.loc 10 1072 0
 3942 00f0 2F9F0000 		cmpwi 7,31,0
 3943 00f4 419E000C 		beq- 7,.L214
 3944              		.loc 10 1077 0
 3945 00f8 7FFCFB78 		mr 28,31
 3946              	.LVL291:
 3947 00fc 4BFFFF90 		b .L259
 3948              	.LVL292:
 3949              	.L214:
 3950              	.LBE2005:
 3951              	.LBE1977:
 3952              	.LBE1976:
 3953              	.LBE2011:
 3954              		.loc 3 160 0
 3955 0100 83F70008 		lwz 31,8(23)
 3956              	.LVL293:
 3957              	.LBB2012:
 3958              	.LBB2010:
 3959              	.LBB2006:
 3960              	.LBB2007:
 3961              	.LBB2008:
 3962              	.LBB2009:
 3963              		.loc 6 98 0
 3964 0104 7EE3BB78 		mr 3,23
 3965 0108 48000001 		bl _ZdlPv
 3966              	.LVL294:
 3967              	.LBE2009:
 3968              	.LBE2008:
 3969              	.LBE2007:
 3970              	.LBE2006:
 3971              	.LBE2010:
 3972              		.loc 10 1072 0
 3973 010c 2F9F0000 		cmpwi 7,31,0
 3974 0110 419E000C 		beq- 7,.L213
 3975              		.loc 10 1077 0
 3976 0114 7FF7FB78 		mr 23,31
 3977              	.LVL295:
 3978 0118 4BFFFF68 		b .L258
 3979              	.LVL296:
 3980              	.L213:
 3981              	.LBE2012:
 3982              	.LBE1974:
 3983              	.LBE1973:
 3984              	.LBE2018:
 3985              		.loc 3 160 0
 3986 011c 83F80008 		lwz 31,8(24)
 3987              	.LVL297:
 3988              	.LBB2019:
 3989              	.LBB2017:
 3990              	.LBB2013:
 3991              	.LBB2014:
 3992              	.LBB2015:
 3993              	.LBB2016:
 3994              		.loc 6 98 0
 3995 0120 7F03C378 		mr 3,24
 3996 0124 48000001 		bl _ZdlPv
 3997              	.LVL298:
 3998              	.LBE2016:
 3999              	.LBE2015:
 4000              	.LBE2014:
 4001              	.LBE2013:
 4002              	.LBE2017:
 4003              		.loc 10 1072 0
 4004 0128 2F9F0000 		cmpwi 7,31,0
 4005 012c 419E000C 		beq- 7,.L212
 4006              		.loc 10 1077 0
 4007 0130 7FF8FB78 		mr 24,31
 4008              	.LVL299:
 4009 0134 4BFFFF40 		b .L257
 4010              	.LVL300:
 4011              	.L212:
 4012              	.LBE2019:
 4013              	.LBE1971:
 4014              	.LBE1970:
 4015              	.LBE2025:
 4016              		.loc 3 160 0
 4017 0138 83F90008 		lwz 31,8(25)
 4018              	.LVL301:
 4019              	.LBB2026:
 4020              	.LBB2024:
 4021              	.LBB2020:
 4022              	.LBB2021:
 4023              	.LBB2022:
 4024              	.LBB2023:
 4025              		.loc 6 98 0
 4026 013c 7F23CB78 		mr 3,25
 4027 0140 48000001 		bl _ZdlPv
 4028              	.LVL302:
 4029              	.LBE2023:
 4030              	.LBE2022:
 4031              	.LBE2021:
 4032              	.LBE2020:
 4033              	.LBE2024:
 4034              		.loc 10 1072 0
 4035 0144 2F9F0000 		cmpwi 7,31,0
 4036 0148 419E000C 		beq- 7,.L211
 4037              		.loc 10 1077 0
 4038 014c 7FF9FB78 		mr 25,31
 4039              	.LVL303:
 4040 0150 4BFFFF18 		b .L256
 4041              	.LVL304:
 4042              	.L211:
 4043              	.LBE2026:
 4044              	.LBE1968:
 4045              	.LBE1967:
 4046              	.LBE2032:
 4047              		.loc 3 160 0
 4048 0154 83FA0008 		lwz 31,8(26)
 4049              	.LVL305:
 4050              	.LBB2033:
 4051              	.LBB2031:
 4052              	.LBB2027:
 4053              	.LBB2028:
 4054              	.LBB2029:
 4055              	.LBB2030:
 4056              		.loc 6 98 0
 4057 0158 7F43D378 		mr 3,26
 4058 015c 48000001 		bl _ZdlPv
 4059              	.LVL306:
 4060              	.LBE2030:
 4061              	.LBE2029:
 4062              	.LBE2028:
 4063              	.LBE2027:
 4064              	.LBE2031:
 4065              		.loc 10 1072 0
 4066 0160 2F9F0000 		cmpwi 7,31,0
 4067 0164 419E000C 		beq- 7,.L210
 4068              		.loc 10 1077 0
 4069 0168 7FFAFB78 		mr 26,31
 4070              	.LVL307:
 4071 016c 4BFFFEF0 		b .L255
 4072              	.LVL308:
 4073              	.L210:
 4074              	.LBE2033:
 4075              	.LBE1965:
 4076              	.LBE1964:
 4077              	.LBE2039:
 4078              		.loc 3 160 0
 4079 0170 83FB0008 		lwz 31,8(27)
 4080              	.LVL309:
 4081              	.LBB2040:
 4082              	.LBB2038:
 4083              	.LBB2034:
 4084              	.LBB2035:
 4085              	.LBB2036:
 4086              	.LBB2037:
 4087              		.loc 6 98 0
 4088 0174 7F63DB78 		mr 3,27
 4089 0178 48000001 		bl _ZdlPv
 4090              	.LVL310:
 4091              	.LBE2037:
 4092              	.LBE2036:
 4093              	.LBE2035:
 4094              	.LBE2034:
 4095              	.LBE2038:
 4096              		.loc 10 1072 0
 4097 017c 2F9F0000 		cmpwi 7,31,0
 4098 0180 419E000C 		beq- 7,.L209
 4099              		.loc 10 1077 0
 4100 0184 7FFBFB78 		mr 27,31
 4101              	.LVL311:
 4102 0188 4BFFFEC8 		b .L254
 4103              	.LVL312:
 4104              	.L209:
 4105              		.loc 3 160 0
 4106 018c 83F60008 		lwz 31,8(22)
 4107              	.LVL313:
 4108              	.LBE2040:
 4109              	.LBE1962:
 4110              	.LBB2041:
 4111              	.LBB2042:
 4112              	.LBB2043:
 4113              	.LBB2044:
 4114              		.loc 6 98 0
 4115 0190 7EC3B378 		mr 3,22
 4116 0194 48000001 		bl _ZdlPv
 4117              	.LVL314:
 4118              	.LBE2044:
 4119              	.LBE2043:
 4120              	.LBE2042:
 4121              	.LBE2041:
 4122              	.LBE1961:
 4123              		.loc 10 1072 0
 4124 0198 2F9F0000 		cmpwi 7,31,0
 4125 019c 419E000C 		beq- 7,.L207
 4126              		.loc 10 1077 0
 4127 01a0 7FF6FB78 		mr 22,31
 4128              	.LVL315:
 4129 01a4 4BFFFEA0 		b .L253
 4130              	.LVL316:
 4131              	.L207:
 4132              	.LBE2045:
 4133              		.loc 10 1079 0
 4134 01a8 8001003C 		lwz 0,60(1)
 4135 01ac 82A1000C 		lwz 21,12(1)
 4136 01b0 7C0803A6 		mtlr 0
 4137 01b4 82C10010 		lwz 22,16(1)
 4138 01b8 82E10014 		lwz 23,20(1)
 4139 01bc 83010018 		lwz 24,24(1)
 4140 01c0 8321001C 		lwz 25,28(1)
 4141 01c4 83410020 		lwz 26,32(1)
 4142 01c8 83610024 		lwz 27,36(1)
 4143 01cc 83810028 		lwz 28,40(1)
 4144 01d0 83A1002C 		lwz 29,44(1)
 4145 01d4 83C10030 		lwz 30,48(1)
 4146              	.LVL317:
 4147 01d8 83E10034 		lwz 31,52(1)
 4148 01dc 38210038 		addi 1,1,56
 4149              	.LCFI60:
 4150              		.cfi_def_cfa_offset 0
 4151              		.cfi_restore 31
 4152              		.cfi_restore 30
 4153              		.cfi_restore 29
 4154              		.cfi_restore 28
 4155              		.cfi_restore 27
 4156              		.cfi_restore 26
 4157              		.cfi_restore 25
 4158              		.cfi_restore 24
 4159              		.cfi_restore 23
 4160              		.cfi_restore 22
 4161              		.cfi_restore 21
 4162 01e0 4E800020 		blr
 4163              		.cfi_endproc
 4164              	.LFE1829:
 4165              		.size	_ZNSt8_Rb_treeIPN7sigslot12_signal_baseINS0_15single_threadedEEES4_St9_IdentityIS4_ESt4lessI
 4166              		.section	.text._ZNSt8_Rb_treeIPN7sigslot12_signal_baseINS0_15single_threadedEEES4_St9_IdentityIS4_
 4167              		.align 2
 4168              		.weak	_ZNSt8_Rb_treeIPN7sigslot12_signal_baseINS0_15single_threadedEEES4_St9_IdentityIS4_ESt4lessI
 4169              		.type	_ZNSt8_Rb_treeIPN7sigslot12_signal_baseINS0_15single_threadedEEES4_St9_IdentityIS4_ESt4lessI
 4170              	_ZNSt8_Rb_treeIPN7sigslot12_signal_baseINS0_15single_threadedEEES4_St9_IdentityIS4_ESt4lessIS4_ESaI
 4171              	.LFB1773:
 4172              		.loc 10 1510 0
 4173              		.cfi_startproc
 4174              	.LVL318:
 4175 0000 7C0802A6 		mflr 0
 4176 0004 9421FFE0 		stwu 1,-32(1)
 4177              	.LCFI61:
 4178              		.cfi_def_cfa_offset 32
 4179              		.cfi_register 65, 0
 4180 0008 93810010 		stw 28,16(1)
 4181              	.LBB2046:
 4182              	.LBB2047:
 4183              		.loc 10 1155 0
 4184 000c 3B830004 		addi 28,3,4
 4185              		.cfi_offset 28, -16
 4186              	.LBE2047:
 4187              	.LBE2046:
 4188              		.loc 10 1510 0
 4189 0010 90010024 		stw 0,36(1)
 4190 0014 93410008 		stw 26,8(1)
 4191              	.LBB2103:
 4192              	.LBB2068:
 4193              	.LBB2048:
 4194              		.loc 10 1155 0
 4195 0018 7F9AE378 		mr 26,28
 4196              		.cfi_offset 26, -24
 4197              		.cfi_offset 65, 4
 4198              	.LBE2048:
 4199              		.loc 3 160 0
 4200 001c 80030008 		lwz 0,8(3)
 4201              	.LBE2068:
 4202              	.LBE2103:
 4203              		.loc 10 1510 0
 4204 0020 93A10014 		stw 29,20(1)
 4205              	.LBB2104:
 4206              	.LBB2069:
 4207              	.LBB2061:
 4208              		.loc 10 1155 0
 4209 0024 7F9DE378 		mr 29,28
 4210              		.cfi_offset 29, -12
 4211              		.loc 10 1156 0
 4212 0028 2F800000 		cmpwi 7,0,0
 4213              	.LBE2061:
 4214              	.LBE2069:
 4215              	.LBE2104:
 4216              		.loc 10 1510 0
 4217 002c 93C10018 		stw 30,24(1)
 4218 0030 9361000C 		stw 27,12(1)
 4219 0034 7C7E1B78 		mr 30,3
 4220              		.cfi_offset 27, -20
 4221              		.cfi_offset 30, -8
 4222              	.LVL319:
 4223 0038 93E1001C 		stw 31,28(1)
 4224              	.LBB2105:
 4225              	.LBB2070:
 4226              	.LBB2062:
 4227              		.loc 10 1156 0
 4228 003c 419E0040 		beq- 7,.L263
 4229              		.cfi_offset 31, -4
 4230 0040 81640000 		lwz 11,0(4)
 4231 0044 7C1A0378 		mr 26,0
 4232 0048 48000010 		b .L274
 4233              	.LVL320:
 4234              	.L293:
 4235              	.LBE2062:
 4236              		.loc 3 160 0
 4237 004c 835A000C 		lwz 26,12(26)
 4238              	.LVL321:
 4239              	.LBB2063:
 4240              		.loc 10 1156 0
 4241 0050 2F9A0000 		cmpwi 7,26,0
 4242 0054 419E0024 		beq- 7,.L292
 4243              	.L274:
 4244              	.LVL322:
 4245              	.LBE2063:
 4246              		.loc 3 160 0
 4247 0058 813A0010 		lwz 9,16(26)
 4248              	.LBB2064:
 4249              	.LBB2049:
 4250              		.loc 10 1158 0
 4251 005c 7F895840 		cmplw 7,9,11
 4252 0060 41BCFFEC 		blt- 7,.L293
 4253              	.LVL323:
 4254              	.LBB2050:
 4255              		.loc 10 1160 0
 4256 0064 409D0094 		ble- 7,.L266
 4257              	.LVL324:
 4258              	.LBE2050:
 4259              	.LBE2049:
 4260              	.LBE2064:
 4261              		.loc 3 160 0
 4262 0068 7F5DD378 		mr 29,26
 4263              		.loc 10 1161 0
 4264 006c 835A0008 		lwz 26,8(26)
 4265              	.LVL325:
 4266              	.LBB2065:
 4267              		.loc 10 1156 0
 4268 0070 2F9A0000 		cmpwi 7,26,0
 4269 0074 409EFFE4 		bne+ 7,.L274
 4270              	.LVL326:
 4271              	.L292:
 4272 0078 7FBAEB78 		mr 26,29
 4273              	.LVL327:
 4274              	.L263:
 4275              	.LBE2065:
 4276              	.LBE2070:
 4277              	.LBB2071:
 4278              	.LBB2072:
 4279              		.loc 3 160 0
 4280 007c 813E000C 		lwz 9,12(30)
 4281              	.LBE2072:
 4282              	.LBE2071:
 4283              	.LBB2099:
 4284              	.LBB2066:
 4285 0080 837E0014 		lwz 27,20(30)
 4286              	.LVL328:
 4287              	.LBE2066:
 4288              	.LBE2099:
 4289              	.LBB2100:
 4290              	.LBB2097:
 4291              	.LBB2073:
 4292              		.loc 10 1500 0
 4293 0084 7F89D000 		cmpw 7,9,26
 4294 0088 419E00DC 		beq- 7,.L275
 4295              	.L279:
 4296              	.LVL329:
 4297              		.loc 10 1503 0
 4298 008c 7F9AE800 		cmpw 7,26,29
 4299 0090 419E0100 		beq- 7,.L294
 4300              	.LVL330:
 4301              	.L290:
 4302              	.LBB2074:
 4303              	.LBB2075:
 4304              		.loc 10 277 0
 4305 0094 7F43D378 		mr 3,26
 4306 0098 48000001 		bl _ZSt18_Rb_tree_incrementPKSt18_Rb_tree_node_base
 4307              	.LBE2075:
 4308              	.LBE2074:
 4309              	.LBB2077:
 4310              	.LBB2078:
 4311              	.LBB2079:
 4312              		.loc 10 1489 0
 4313 009c 7F84E378 		mr 4,28
 4314              	.LBE2079:
 4315              	.LBE2078:
 4316              	.LBE2077:
 4317              	.LBB2090:
 4318              	.LBB2076:
 4319              		.loc 10 277 0
 4320 00a0 7C7F1B78 		mr 31,3
 4321              	.LVL331:
 4322              	.LBE2076:
 4323              	.LBE2090:
 4324              	.LBB2091:
 4325              	.LBB2087:
 4326              	.LBB2084:
 4327              		.loc 10 1489 0
 4328 00a4 7F43D378 		mr 3,26
 4329              	.LVL332:
 4330 00a8 48000001 		bl _ZSt28_Rb_tree_rebalance_for_erasePSt18_Rb_tree_node_baseRS_
 4331              	.LBE2084:
 4332              	.LBE2087:
 4333              	.LBE2091:
 4334              		.loc 10 277 0
 4335 00ac 7FFAFB78 		mr 26,31
 4336              	.LVL333:
 4337              	.LBB2092:
 4338              	.LBB2088:
 4339              	.LBB2085:
 4340              	.LBB2080:
 4341              	.LBB2081:
 4342              	.LBB2082:
 4343              	.LBB2083:
 4344              		.loc 6 98 0
 4345 00b0 48000001 		bl _ZdlPv
 4346              	.LBE2083:
 4347              	.LBE2082:
 4348              	.LBE2081:
 4349              	.LBE2080:
 4350              	.LBE2085:
 4351              	.LBE2088:
 4352              	.LBE2092:
 4353              		.loc 10 1503 0
 4354 00b4 7F9FE800 		cmpw 7,31,29
 4355              	.LBB2093:
 4356              	.LBB2089:
 4357              	.LBB2086:
 4358              		.loc 10 1491 0
 4359 00b8 813E0014 		lwz 9,20(30)
 4360 00bc 3809FFFF 		addi 0,9,-1
 4361 00c0 901E0014 		stw 0,20(30)
 4362              	.LBE2086:
 4363              	.LBE2089:
 4364              	.LBE2093:
 4365              		.loc 10 1503 0
 4366 00c4 409EFFD0 		bne+ 7,.L290
 4367 00c8 7F60D850 		subf 27,0,27
 4368              	.LVL334:
 4369              	.L277:
 4370              	.LBE2073:
 4371              	.LBE2097:
 4372              	.LBE2100:
 4373              	.LBE2105:
 4374              		.loc 10 1517 0
 4375 00cc 80010024 		lwz 0,36(1)
 4376 00d0 7F63DB78 		mr 3,27
 4377 00d4 83410008 		lwz 26,8(1)
 4378 00d8 7C0803A6 		mtlr 0
 4379 00dc 8361000C 		lwz 27,12(1)
 4380 00e0 83810010 		lwz 28,16(1)
 4381 00e4 83A10014 		lwz 29,20(1)
 4382              	.LVL335:
 4383 00e8 83C10018 		lwz 30,24(1)
 4384              	.LVL336:
 4385 00ec 83E1001C 		lwz 31,28(1)
 4386 00f0 38210020 		addi 1,1,32
 4387              		.cfi_remember_state
 4388              	.LCFI62:
 4389              		.cfi_def_cfa_offset 0
 4390              		.cfi_restore 31
 4391              		.cfi_restore 30
 4392              		.cfi_restore 29
 4393              		.cfi_restore 28
 4394              		.cfi_restore 27
 4395              		.cfi_restore 26
 4396 00f4 4E800020 		blr
 4397              	.LVL337:
 4398              	.L266:
 4399              	.LCFI63:
 4400              		.cfi_restore_state
 4401              	.LBB2106:
 4402              	.LBB2101:
 4403              		.loc 3 160 0
 4404 00f8 815A0008 		lwz 10,8(26)
 4405              	.LVL338:
 4406 00fc 813A000C 		lwz 9,12(26)
 4407              	.LVL339:
 4408              	.L291:
 4409              	.LBB2067:
 4410              	.LBB2060:
 4411              	.LBB2059:
 4412              	.LBB2051:
 4413              	.LBB2052:
 4414              	.LBB2053:
 4415              		.loc 10 1089 0
 4416 0100 2F8A0000 		cmpwi 7,10,0
 4417 0104 419E0020 		beq- 7,.L267
 4418              	.L295:
 4419              	.LVL340:
 4420              		.loc 10 1090 0
 4421 0108 810A0010 		lwz 8,16(10)
 4422 010c 7F885840 		cmplw 7,8,11
 4423 0110 419C004C 		blt- 7,.L268
 4424              	.LVL341:
 4425              	.LBE2053:
 4426              		.loc 3 160 0
 4427 0114 7D5A5378 		mr 26,10
 4428              		.loc 10 1091 0
 4429 0118 814A0008 		lwz 10,8(10)
 4430              	.LVL342:
 4431              	.LBB2054:
 4432              		.loc 10 1089 0
 4433 011c 2F8A0000 		cmpwi 7,10,0
 4434 0120 409EFFE8 		bne+ 7,.L295
 4435              	.LVL343:
 4436              	.L267:
 4437              	.LBE2054:
 4438              	.LBE2052:
 4439              	.LBB2055:
 4440              	.LBB2056:
 4441              		.loc 10 1121 0
 4442 0124 2F890000 		cmpwi 7,9,0
 4443 0128 41BEFF54 		beq- 7,.L263
 4444              	.LVL344:
 4445              		.loc 10 1122 0
 4446 012c 81490010 		lwz 10,16(9)
 4447 0130 7F8A5840 		cmplw 7,10,11
 4448 0134 409D0020 		ble- 7,.L271
 4449              	.LVL345:
 4450              	.L296:
 4451              	.LBE2056:
 4452              		.loc 3 160 0
 4453 0138 7D3D4B78 		mr 29,9
 4454              		.loc 10 1123 0
 4455 013c 81290008 		lwz 9,8(9)
 4456              	.LVL346:
 4457              	.LBB2057:
 4458              		.loc 10 1121 0
 4459 0140 2F890000 		cmpwi 7,9,0
 4460 0144 41BEFF38 		beq- 7,.L263
 4461              	.LVL347:
 4462              		.loc 10 1122 0
 4463 0148 81490010 		lwz 10,16(9)
 4464 014c 7F8A5840 		cmplw 7,10,11
 4465 0150 41BDFFE8 		bgt- 7,.L296
 4466              	.LVL348:
 4467              	.L271:
 4468              	.LBE2057:
 4469              		.loc 3 160 0
 4470 0154 8129000C 		lwz 9,12(9)
 4471              	.LVL349:
 4472 0158 4BFFFFCC 		b .L267
 4473              	.LVL350:
 4474              	.L268:
 4475              	.LBE2055:
 4476              	.LBB2058:
 4477 015c 814A000C 		lwz 10,12(10)
 4478              	.LVL351:
 4479 0160 4BFFFFA0 		b .L291
 4480              	.LVL352:
 4481              	.L275:
 4482              	.LBE2058:
 4483              	.LBE2051:
 4484              	.LBE2059:
 4485              	.LBE2060:
 4486              	.LBE2067:
 4487              	.LBE2101:
 4488              	.LBB2102:
 4489              	.LBB2098:
 4490              	.LBB2096:
 4491              		.loc 10 1500 0
 4492 0164 7F9CE800 		cmpw 7,28,29
 4493 0168 409EFF24 		bne+ 7,.L279
 4494              	.LVL353:
 4495              	.LBB2094:
 4496              	.LBB2095:
 4497              		.loc 10 809 0
 4498 016c 7C040378 		mr 4,0
 4499              	.LVL354:
 4500 0170 7FC3F378 		mr 3,30
 4501              	.LVL355:
 4502 0174 48000001 		bl _ZNSt8_Rb_treeIPN7sigslot12_signal_baseINS0_15single_threadedEEES4_St9_IdentityIS4_ESt4lessIS4_
 4503              	.LVL356:
 4504              		.loc 10 811 0
 4505 0178 38000000 		li 0,0
 4506              		.loc 10 810 0
 4507 017c 939E000C 		stw 28,12(30)
 4508              	.LVL357:
 4509              		.loc 10 811 0
 4510 0180 901E0008 		stw 0,8(30)
 4511              	.LVL358:
 4512              		.loc 10 812 0
 4513 0184 939E0010 		stw 28,16(30)
 4514              		.loc 10 813 0
 4515 0188 901E0014 		stw 0,20(30)
 4516 018c 4BFFFF40 		b .L277
 4517              	.LVL359:
 4518              	.L294:
 4519              	.LBE2095:
 4520              	.LBE2094:
 4521              		.loc 10 1503 0
 4522 0190 3B600000 		li 27,0
 4523 0194 4BFFFF38 		b .L277
 4524              	.LBE2096:
 4525              	.LBE2098:
 4526              	.LBE2102:
 4527              	.LBE2106:
 4528              		.cfi_endproc
 4529              	.LFE1773:
 4530              		.size	_ZNSt8_Rb_treeIPN7sigslot12_signal_baseINS0_15single_threadedEEES4_St9_IdentityIS4_ESt4lessI
 4531              		.section	.text._ZN7sigslot7signal2IP10GuiElementbNS_15single_threadedEED2Ev,"axG",@progbits,_ZN7si
 4532              		.align 2
 4533              		.weak	_ZN7sigslot7signal2IP10GuiElementbNS_15single_threadedEED2Ev
 4534              		.type	_ZN7sigslot7signal2IP10GuiElementbNS_15single_threadedEED2Ev, @function
 4535              	_ZN7sigslot7signal2IP10GuiElementbNS_15single_threadedEED2Ev:
 4536              	.LFB1581:
 4537              		.loc 1 2235 0
 4538              		.cfi_startproc
 4539              		.cfi_personality 0,__gxx_personality_v0
 4540              		.cfi_lsda 0,.LLSDA1581
 4541              	.LVL360:
 4542 0000 7C0802A6 		mflr 0
 4543 0004 9421FFD8 		stwu 1,-40(1)
 4544              	.LCFI64:
 4545              		.cfi_def_cfa_offset 40
 4546              		.cfi_register 65, 0
 4547              	.LBB2204:
 4548              	.LBB2205:
 4549              	.LBB2206:
 4550              	.LBB2207:
 4551              		.loc 1 826 0
 4552 0008 3D200000 		lis 9,_ZTVN7sigslot13_signal_base2IP10GuiElementbNS_15single_threadedEEE+8@ha
 4553              	.LBE2207:
 4554              	.LBE2206:
 4555              	.LBE2205:
 4556              	.LBE2204:
 4557              		.loc 1 2235 0
 4558 000c 93810018 		stw 28,24(1)
 4559 0010 7C7C1B78 		mr 28,3
 4560              		.cfi_offset 28, -16
 4561              	.LVL361:
 4562 0014 9001002C 		stw 0,44(1)
 4563              	.LBB2305:
 4564              	.LBB2300:
 4565              	.LBB2295:
 4566              	.LBB2290:
 4567              		.loc 1 826 0
 4568 0018 38090008 		la 0,_ZTVN7sigslot13_signal_base2IP10GuiElementbNS_15single_threadedEEE+8@l(9)
 4569              		.cfi_offset 65, 4
 4570              	.LBE2290:
 4571              	.LBE2295:
 4572              	.LBE2300:
 4573              	.LBE2305:
 4574              		.loc 1 2235 0
 4575 001c 93A1001C 		stw 29,28(1)
 4576 0020 3BA30004 		addi 29,3,4
 4577              		.cfi_offset 29, -12
 4578 0024 93C10020 		stw 30,32(1)
 4579 0028 93E10024 		stw 31,36(1)
 4580              	.LBB2306:
 4581              	.LBB2301:
 4582              	.LBB2296:
 4583              	.LBB2291:
 4584              		.loc 1 826 0
 4585 002c 90030000 		stw 0,0(3)
 4586              	.LVL362:
 4587              	.LEHB38:
 4588              	.LBB2208:
 4589              	.LBB2209:
 4590              	.LBB2210:
 4591              	.LBB2211:
 4592              		.loc 1 338 0
 4593              		.cfi_offset 31, -4
 4594              		.cfi_offset 30, -8
 4595 0030 48000001 		bl _ZN7sigslot15single_threaded4lockEv
 4596              	.LEHE38:
 4597              	.LVL363:
 4598              	.LBE2211:
 4599              	.LBE2210:
 4600              	.LBE2209:
 4601              		.loc 3 160 0
 4602 0034 7F9DE378 		mr 29,28
 4603 0038 87FD0004 		lwzu 31,4(29)
 4604              	.LVL364:
 4605              	.LBB2242:
 4606              		.loc 1 834 0
 4607 003c 7F9FE800 		cmpw 7,31,29
 4608 0040 419E00A8 		beq- 7,.L298
 4609              	.LVL365:
 4610              	.L336:
 4611              		.loc 1 836 0
 4612 0044 807F0008 		lwz 3,8(31)
 4613 0048 81230000 		lwz 9,0(3)
 4614 004c 80090008 		lwz 0,8(9)
 4615 0050 7C0903A6 		mtctr 0
 4616              	.LEHB39:
 4617 0054 4E800421 		bctrl
 4618              	.LBB2212:
 4619              	.LBB2213:
 4620              	.LBB2214:
 4621              	.LBB2215:
 4622              		.loc 1 338 0
 4623 0058 81230000 		lwz 9,0(3)
 4624              	.LBE2215:
 4625              	.LBE2214:
 4626              	.LBE2213:
 4627              	.LBE2212:
 4628              		.loc 1 836 0
 4629 005c 7C7E1B78 		mr 30,3
 4630              	.LVL366:
 4631 0060 93810008 		stw 28,8(1)
 4632              	.LVL367:
 4633              	.LBB2224:
 4634              	.LBB2223:
 4635              	.LBB2217:
 4636              	.LBB2216:
 4637              		.loc 1 338 0
 4638 0064 80090008 		lwz 0,8(9)
 4639 0068 7C0903A6 		mtctr 0
 4640 006c 4E800421 		bctrl
 4641              	.LVL368:
 4642              	.LBE2216:
 4643              	.LBE2217:
 4644              	.LBB2218:
 4645              	.LBB2219:
 4646              		.file 11 "d:\\devkitpro\\devkitppc\\bin\\../lib/gcc/powerpc-eabi/4.6.3/../../../../powerpc-eabi/in
 4647              		.loc 11 528 0
 4648 0070 387E0004 		addi 3,30,4
 4649 0074 38810008 		addi 4,1,8
 4650 0078 48000001 		bl _ZNSt8_Rb_treeIPN7sigslot12_signal_baseINS0_15single_threadedEEES4_St9_IdentityIS4_ESt4lessIS4_
 4651              	.LVL369:
 4652              	.LBE2219:
 4653              	.LBE2218:
 4654              	.LBB2220:
 4655              	.LBB2221:
 4656              	.LBB2222:
 4657              		.loc 1 343 0
 4658 007c 813E0000 		lwz 9,0(30)
 4659 0080 7FC3F378 		mr 3,30
 4660 0084 8009000C 		lwz 0,12(9)
 4661 0088 7C0903A6 		mtctr 0
 4662 008c 4E800421 		bctrl
 4663              	.LVL370:
 4664              	.LBE2222:
 4665              	.LBE2221:
 4666              	.LBE2220:
 4667              	.LBE2223:
 4668              	.LBE2224:
 4669              		.loc 1 837 0
 4670 0090 807F0008 		lwz 3,8(31)
 4671 0094 2F830000 		cmpwi 7,3,0
 4672 0098 419E0014 		beq- 7,.L300
 4673 009c 81230000 		lwz 9,0(3)
 4674 00a0 80090004 		lwz 0,4(9)
 4675 00a4 7C0903A6 		mtctr 0
 4676 00a8 4E800421 		bctrl
 4677              	.LEHE39:
 4678              	.L300:
 4679              	.LVL371:
 4680              	.LBB2225:
 4681              	.LBB2226:
 4682              		.loc 4 234 0
 4683 00ac 83FF0000 		lwz 31,0(31)
 4684              	.LVL372:
 4685              	.LBE2226:
 4686              	.LBE2225:
 4687              		.loc 1 834 0
 4688 00b0 7F9DF800 		cmpw 7,29,31
 4689 00b4 409EFF90 		bne+ 7,.L336
 4690              	.LBE2242:
 4691              		.loc 3 160 0
 4692 00b8 83FC0004 		lwz 31,4(28)
 4693              	.LVL373:
 4694              	.LBB2243:
 4695              	.LBB2227:
 4696              	.LBB2228:
 4697              		.loc 4 1162 0
 4698 00bc 7F9DF800 		cmpw 7,29,31
 4699 00c0 40BE000C 		bne+ 7,.L338
 4700 00c4 48000024 		b .L298
 4701              	.LVL374:
 4702              	.L331:
 4703              		.loc 4 1163 0
 4704 00c8 7FDFF378 		mr 31,30
 4705              	.LVL375:
 4706              	.L338:
 4707              	.LBB2229:
 4708              	.LBB2230:
 4709              		.file 12 "d:\\devkitpro\\devkitppc\\bin\\../lib/gcc/powerpc-eabi/4.6.3/../../../../powerpc-eabi/in
 4710              		.loc 12 112 0
 4711 00cc 83DF0000 		lwz 30,0(31)
 4712              	.LVL376:
 4713              	.LBB2231:
 4714              	.LBB2232:
 4715              		.loc 4 1532 0
 4716 00d0 7FE3FB78 		mr 3,31
 4717 00d4 48000001 		bl _ZNSt8__detail15_List_node_base9_M_unhookEv
 4718              	.LVL377:
 4719              	.LBB2233:
 4720              	.LBB2234:
 4721              	.LBB2235:
 4722              		.loc 6 98 0
 4723 00d8 7FE3FB78 		mr 3,31
 4724 00dc 48000001 		bl _ZdlPv
 4725              	.LVL378:
 4726              	.LBE2235:
 4727              	.LBE2234:
 4728              	.LBE2233:
 4729              	.LBE2232:
 4730              	.LBE2231:
 4731              	.LBE2230:
 4732              	.LBE2229:
 4733              		.loc 4 1162 0
 4734 00e0 7F9DF000 		cmpw 7,29,30
 4735 00e4 409EFFE4 		bne+ 7,.L331
 4736              	.LVL379:
 4737              	.L298:
 4738              	.LBE2228:
 4739              	.LBE2227:
 4740              	.LBB2236:
 4741              	.LBB2237:
 4742              	.LBB2238:
 4743              		.loc 1 343 0
 4744 00e8 813C0000 		lwz 9,0(28)
 4745 00ec 7F83E378 		mr 3,28
 4746 00f0 8009000C 		lwz 0,12(9)
 4747 00f4 7C0903A6 		mtctr 0
 4748              	.LEHB40:
 4749 00f8 4E800421 		bctrl
 4750              	.LEHE40:
 4751              	.LBE2238:
 4752              	.LBE2237:
 4753              	.LBE2236:
 4754              	.LBE2243:
 4755              	.LBE2208:
 4756              	.LBB2245:
 4757              	.LBB2246:
 4758              	.LBB2247:
 4759              	.LBB2248:
 4760              	.LBB2249:
 4761              	.LBB2250:
 4762              		.loc 12 70 0
 4763 00fc 807C0004 		lwz 3,4(28)
 4764              	.LVL380:
 4765              		.loc 12 71 0
 4766 0100 7F83E800 		cmpw 7,3,29
 4767 0104 40BE000C 		bne+ 7,.L340
 4768 0108 48000018 		b .L316
 4769              	.LVL381:
 4770              	.L332:
 4771              		.loc 12 74 0
 4772 010c 7FE3FB78 		mr 3,31
 4773              	.LVL382:
 4774              	.L340:
 4775              	.LBB2251:
 4776 0110 83E30000 		lwz 31,0(3)
 4777              	.LVL383:
 4778              	.LBB2252:
 4779              	.LBB2253:
 4780              	.LBB2254:
 4781              		.loc 6 98 0
 4782 0114 48000001 		bl _ZdlPv
 4783              	.LVL384:
 4784              	.LBE2254:
 4785              	.LBE2253:
 4786              	.LBE2252:
 4787              	.LBE2251:
 4788              		.loc 12 71 0
 4789 0118 7F9FE800 		cmpw 7,31,29
 4790 011c 409EFFF0 		bne+ 7,.L332
 4791              	.LVL385:
 4792              	.L316:
 4793              	.LBE2250:
 4794              	.LBE2249:
 4795              	.LBE2248:
 4796              	.LBE2247:
 4797              	.LBE2246:
 4798              	.LBE2245:
 4799              	.LBB2255:
 4800              	.LBB2256:
 4801              	.LBB2257:
 4802              	.LBB2258:
 4803              	.LBB2259:
 4804              	.LBB2260:
 4805              		.loc 1 105 0
 4806 0120 3D200000 		lis 9,_ZTVN7sigslot15single_threadedE+8@ha
 4807              	.LBE2260:
 4808              	.LBE2259:
 4809              	.LBE2258:
 4810              	.LBE2257:
 4811              	.LBE2256:
 4812              	.LBE2255:
 4813              	.LBE2291:
 4814              	.LBE2296:
 4815              	.LBE2301:
 4816              	.LBE2306:
 4817              		.loc 1 2238 0
 4818 0124 83A1001C 		lwz 29,28(1)
 4819              	.LVL386:
 4820              	.LBB2307:
 4821              	.LBB2302:
 4822              	.LBB2297:
 4823              	.LBB2292:
 4824              	.LBB2271:
 4825              	.LBB2269:
 4826              	.LBB2267:
 4827              	.LBB2265:
 4828              	.LBB2263:
 4829              	.LBB2261:
 4830              		.loc 1 105 0
 4831 0128 38090008 		la 0,_ZTVN7sigslot15single_threadedE+8@l(9)
 4832              	.LBE2261:
 4833              	.LBE2263:
 4834              	.LBE2265:
 4835              	.LBE2267:
 4836              	.LBE2269:
 4837              	.LBE2271:
 4838              	.LBE2292:
 4839              	.LBE2297:
 4840              	.LBE2302:
 4841              	.LBE2307:
 4842              		.loc 1 2238 0
 4843 012c 83C10020 		lwz 30,32(1)
 4844              	.LBB2308:
 4845              	.LBB2303:
 4846              	.LBB2298:
 4847              	.LBB2293:
 4848              	.LBB2272:
 4849              	.LBB2270:
 4850              	.LBB2268:
 4851              	.LBB2266:
 4852              	.LBB2264:
 4853              	.LBB2262:
 4854              		.loc 1 105 0
 4855 0130 901C0000 		stw 0,0(28)
 4856              	.LBE2262:
 4857              	.LBE2264:
 4858              	.LBE2266:
 4859              	.LBE2268:
 4860              	.LBE2270:
 4861              	.LBE2272:
 4862              	.LBE2293:
 4863              	.LBE2298:
 4864              	.LBE2303:
 4865              	.LBE2308:
 4866              		.loc 1 2238 0
 4867 0134 8001002C 		lwz 0,44(1)
 4868 0138 83810018 		lwz 28,24(1)
 4869              	.LVL387:
 4870 013c 7C0803A6 		mtlr 0
 4871 0140 83E10024 		lwz 31,36(1)
 4872 0144 38210028 		addi 1,1,40
 4873              		.cfi_remember_state
 4874              	.LCFI65:
 4875              		.cfi_def_cfa_offset 0
 4876              		.cfi_restore 31
 4877              		.cfi_restore 30
 4878              		.cfi_restore 29
 4879              		.cfi_restore 28
 4880 0148 4E800020 		blr
 4881              	.LVL388:
 4882              	.L334:
 4883              	.LCFI66:
 4884              		.cfi_restore_state
 4885 014c 7C7F1B78 		mr 31,3
 4886              	.L308:
 4887              	.LBB2309:
 4888              	.LBB2304:
 4889              	.LBB2299:
 4890              	.LBB2294:
 4891              	.LBB2273:
 4892              	.LBB2274:
 4893              	.LBB2275:
 4894              	.LBB2276:
 4895              	.LBB2277:
 4896              	.LBB2278:
 4897              		.loc 12 70 0
 4898 0150 807C0004 		lwz 3,4(28)
 4899              	.LVL389:
 4900              		.loc 12 71 0
 4901 0154 7F83E800 		cmpw 7,3,29
 4902 0158 419E0038 		beq- 7,.L325
 4903              	.LVL390:
 4904              	.L341:
 4905              	.LBB2279:
 4906              		.loc 12 74 0
 4907 015c 83C30000 		lwz 30,0(3)
 4908              	.LVL391:
 4909              	.LBB2280:
 4910              	.LBB2281:
 4911              	.LBB2282:
 4912              		.loc 6 98 0
 4913 0160 48000001 		bl _ZdlPv
 4914              	.LVL392:
 4915              	.LBE2282:
 4916              	.LBE2281:
 4917              	.LBE2280:
 4918              	.LBE2279:
 4919              		.loc 12 71 0
 4920 0164 7F9EE800 		cmpw 7,30,29
 4921 0168 419E0028 		beq- 7,.L325
 4922              		.loc 12 74 0
 4923 016c 7FC3F378 		mr 3,30
 4924 0170 4BFFFFEC 		b .L341
 4925              	.LVL393:
 4926              	.L335:
 4927              	.LBE2278:
 4928              	.LBE2277:
 4929              	.LBE2276:
 4930              	.LBE2275:
 4931              	.LBE2274:
 4932              	.LBE2273:
 4933              	.LBB2283:
 4934              	.LBB2244:
 4935              	.LBB2239:
 4936              	.LBB2240:
 4937              	.LBB2241:
 4938              		.loc 1 343 0
 4939 0174 813C0000 		lwz 9,0(28)
 4940 0178 7C7F1B78 		mr 31,3
 4941              	.LVL394:
 4942 017c 7F83E378 		mr 3,28
 4943 0180 8009000C 		lwz 0,12(9)
 4944 0184 7C0903A6 		mtctr 0
 4945 0188 4E800421 		bctrl
 4946 018c 4BFFFFC4 		b .L308
 4947              	.LVL395:
 4948              	.L325:
 4949              	.LBE2241:
 4950              	.LBE2240:
 4951              	.LBE2239:
 4952              	.LBE2244:
 4953              	.LBE2283:
 4954              	.LBB2284:
 4955              	.LBB2285:
 4956              	.LBB2286:
 4957              	.LBB2287:
 4958              	.LBB2288:
 4959              	.LBB2289:
 4960              		.loc 1 105 0
 4961 0190 3D200000 		lis 9,_ZTVN7sigslot15single_threadedE+8@ha
 4962 0194 7FE3FB78 		mr 3,31
 4963 0198 38090008 		la 0,_ZTVN7sigslot15single_threadedE+8@l(9)
 4964 019c 901C0000 		stw 0,0(28)
 4965              	.LEHB41:
 4966 01a0 48000001 		bl _Unwind_Resume
 4967              	.LEHE41:
 4968              	.LBE2289:
 4969              	.LBE2288:
 4970              	.LBE2287:
 4971              	.LBE2286:
 4972              	.LBE2285:
 4973              	.LBE2284:
 4974              	.LBE2294:
 4975              	.LBE2299:
 4976              	.LBE2304:
 4977              	.LBE2309:
 4978              		.cfi_endproc
 4979              	.LFE1581:
 4980              		.section	.gcc_except_table
 4981              	.LLSDA1581:
 4982 00de FF       		.byte	0xff
 4983 00df FF       		.byte	0xff
 4984 00e0 01       		.byte	0x1
 4985 00e1 15       		.uleb128 .LLSDACSE1581-.LLSDACSB1581
 4986              	.LLSDACSB1581:
 4987 00e2 30       		.uleb128 .LEHB38-.LFB1581
 4988 00e3 04       		.uleb128 .LEHE38-.LEHB38
 4989 00e4 CC02     		.uleb128 .L334-.LFB1581
 4990 00e6 00       		.uleb128 0
 4991 00e7 54       		.uleb128 .LEHB39-.LFB1581
 4992 00e8 58       		.uleb128 .LEHE39-.LEHB39
 4993 00e9 F402     		.uleb128 .L335-.LFB1581
 4994 00eb 00       		.uleb128 0
 4995 00ec F801     		.uleb128 .LEHB40-.LFB1581
 4996 00ee 04       		.uleb128 .LEHE40-.LEHB40
 4997 00ef CC02     		.uleb128 .L334-.LFB1581
 4998 00f1 00       		.uleb128 0
 4999 00f2 A003     		.uleb128 .LEHB41-.LFB1581
 5000 00f4 04       		.uleb128 .LEHE41-.LEHB41
 5001 00f5 00       		.uleb128 0
 5002 00f6 00       		.uleb128 0
 5003              	.LLSDACSE1581:
 5004              		.section	.text._ZN7sigslot7signal2IP10GuiElementbNS_15single_threadedEED2Ev,"axG",@progbits,_ZN7si
 5005              		.size	_ZN7sigslot7signal2IP10GuiElementbNS_15single_threadedEED2Ev, .-_ZN7sigslot7signal2IP10GuiEl
 5006              		.section	.text._ZN7sigslot13_signal_base3IP10GuiElementiiNS_15single_threadedEED2Ev,"axG",@progbit
 5007              		.align 2
 5008              		.weak	_ZN7sigslot13_signal_base3IP10GuiElementiiNS_15single_threadedEED2Ev
 5009              		.type	_ZN7sigslot13_signal_base3IP10GuiElementiiNS_15single_threadedEED2Ev, @function
 5010              	_ZN7sigslot13_signal_base3IP10GuiElementiiNS_15single_threadedEED2Ev:
 5011              	.LFB1636:
 5012              		.loc 1 943 0
 5013              		.cfi_startproc
 5014              		.cfi_personality 0,__gxx_personality_v0
 5015              		.cfi_lsda 0,.LLSDA1636
 5016              	.LVL396:
 5017 0000 7C0802A6 		mflr 0
 5018 0004 9421FFD8 		stwu 1,-40(1)
 5019              	.LCFI67:
 5020              		.cfi_def_cfa_offset 40
 5021              		.cfi_register 65, 0
 5022              	.LBB2456:
 5023              		.loc 1 946 0
 5024 0008 3D200000 		lis 9,_ZTVN7sigslot13_signal_base3IP10GuiElementiiNS_15single_threadedEEE+8@ha
 5025              	.LBE2456:
 5026              		.loc 1 943 0
 5027 000c 93810018 		stw 28,24(1)
 5028 0010 7C7C1B78 		mr 28,3
 5029              		.cfi_offset 28, -16
 5030 0014 9001002C 		stw 0,44(1)
 5031              	.LBB2539:
 5032              		.loc 1 946 0
 5033 0018 38090008 		la 0,_ZTVN7sigslot13_signal_base3IP10GuiElementiiNS_15single_threadedEEE+8@l(9)
 5034              		.cfi_offset 65, 4
 5035              	.LBE2539:
 5036              		.loc 1 943 0
 5037 001c 93A1001C 		stw 29,28(1)
 5038 0020 3BA30004 		addi 29,3,4
 5039              		.cfi_offset 29, -12
 5040 0024 93C10020 		stw 30,32(1)
 5041 0028 93E10024 		stw 31,36(1)
 5042              	.LBB2540:
 5043              		.loc 1 946 0
 5044 002c 90030000 		stw 0,0(3)
 5045              	.LVL397:
 5046              	.LEHB42:
 5047              	.LBB2457:
 5048              	.LBB2458:
 5049              	.LBB2459:
 5050              	.LBB2460:
 5051              		.loc 1 338 0
 5052              		.cfi_offset 31, -4
 5053              		.cfi_offset 30, -8
 5054 0030 48000001 		bl _ZN7sigslot15single_threaded4lockEv
 5055              	.LEHE42:
 5056              	.LVL398:
 5057              	.LBE2460:
 5058              	.LBE2459:
 5059              	.LBE2458:
 5060              		.loc 3 160 0
 5061 0034 7F9DE378 		mr 29,28
 5062              	.LVL399:
 5063 0038 87FD0004 		lwzu 31,4(29)
 5064              	.LVL400:
 5065              	.LBB2491:
 5066              		.loc 1 954 0
 5067 003c 7F9FE800 		cmpw 7,31,29
 5068 0040 419E00A8 		beq- 7,.L343
 5069              	.LVL401:
 5070              	.L380:
 5071              		.loc 1 956 0
 5072 0044 807F0008 		lwz 3,8(31)
 5073 0048 81230000 		lwz 9,0(3)
 5074 004c 80090008 		lwz 0,8(9)
 5075 0050 7C0903A6 		mtctr 0
 5076              	.LEHB43:
 5077 0054 4E800421 		bctrl
 5078              	.LBB2461:
 5079              	.LBB2462:
 5080              	.LBB2463:
 5081              	.LBB2464:
 5082              		.loc 1 338 0
 5083 0058 81230000 		lwz 9,0(3)
 5084              	.LBE2464:
 5085              	.LBE2463:
 5086              	.LBE2462:
 5087              	.LBE2461:
 5088              		.loc 1 956 0
 5089 005c 7C7E1B78 		mr 30,3
 5090              	.LVL402:
 5091 0060 93810008 		stw 28,8(1)
 5092              	.LVL403:
 5093              	.LBB2473:
 5094              	.LBB2472:
 5095              	.LBB2466:
 5096              	.LBB2465:
 5097              		.loc 1 338 0
 5098 0064 80090008 		lwz 0,8(9)
 5099 0068 7C0903A6 		mtctr 0
 5100 006c 4E800421 		bctrl
 5101              	.LVL404:
 5102              	.LBE2465:
 5103              	.LBE2466:
 5104              	.LBB2467:
 5105              	.LBB2468:
 5106              		.loc 11 528 0
 5107 0070 387E0004 		addi 3,30,4
 5108 0074 38810008 		addi 4,1,8
 5109 0078 48000001 		bl _ZNSt8_Rb_treeIPN7sigslot12_signal_baseINS0_15single_threadedEEES4_St9_IdentityIS4_ESt4lessIS4_
 5110              	.LVL405:
 5111              	.LBE2468:
 5112              	.LBE2467:
 5113              	.LBB2469:
 5114              	.LBB2470:
 5115              	.LBB2471:
 5116              		.loc 1 343 0
 5117 007c 813E0000 		lwz 9,0(30)
 5118 0080 7FC3F378 		mr 3,30
 5119 0084 8009000C 		lwz 0,12(9)
 5120 0088 7C0903A6 		mtctr 0
 5121 008c 4E800421 		bctrl
 5122              	.LVL406:
 5123              	.LBE2471:
 5124              	.LBE2470:
 5125              	.LBE2469:
 5126              	.LBE2472:
 5127              	.LBE2473:
 5128              		.loc 1 957 0
 5129 0090 807F0008 		lwz 3,8(31)
 5130 0094 2F830000 		cmpwi 7,3,0
 5131 0098 419E0014 		beq- 7,.L345
 5132 009c 81230000 		lwz 9,0(3)
 5133 00a0 80090004 		lwz 0,4(9)
 5134 00a4 7C0903A6 		mtctr 0
 5135 00a8 4E800421 		bctrl
 5136              	.LEHE43:
 5137              	.L345:
 5138              	.LVL407:
 5139              	.LBB2474:
 5140              	.LBB2475:
 5141              		.loc 4 234 0
 5142 00ac 83FF0000 		lwz 31,0(31)
 5143              	.LVL408:
 5144              	.LBE2475:
 5145              	.LBE2474:
 5146              		.loc 1 954 0
 5147 00b0 7F9DF800 		cmpw 7,29,31
 5148 00b4 409EFF90 		bne+ 7,.L380
 5149              	.LBE2491:
 5150              		.loc 3 160 0
 5151 00b8 83FC0004 		lwz 31,4(28)
 5152              	.LVL409:
 5153              	.LBB2492:
 5154              	.LBB2476:
 5155              	.LBB2477:
 5156              		.loc 4 1162 0
 5157 00bc 7F9DF800 		cmpw 7,29,31
 5158 00c0 40BE000C 		bne+ 7,.L382
 5159 00c4 48000024 		b .L343
 5160              	.LVL410:
 5161              	.L375:
 5162              		.loc 4 1163 0
 5163 00c8 7FDFF378 		mr 31,30
 5164              	.LVL411:
 5165              	.L382:
 5166              	.LBB2478:
 5167              	.LBB2479:
 5168              		.loc 12 112 0
 5169 00cc 83DF0000 		lwz 30,0(31)
 5170              	.LVL412:
 5171              	.LBB2480:
 5172              	.LBB2481:
 5173              		.loc 4 1532 0
 5174 00d0 7FE3FB78 		mr 3,31
 5175 00d4 48000001 		bl _ZNSt8__detail15_List_node_base9_M_unhookEv
 5176              	.LVL413:
 5177              	.LBB2482:
 5178              	.LBB2483:
 5179              	.LBB2484:
 5180              		.loc 6 98 0
 5181 00d8 7FE3FB78 		mr 3,31
 5182 00dc 48000001 		bl _ZdlPv
 5183              	.LVL414:
 5184              	.LBE2484:
 5185              	.LBE2483:
 5186              	.LBE2482:
 5187              	.LBE2481:
 5188              	.LBE2480:
 5189              	.LBE2479:
 5190              	.LBE2478:
 5191              		.loc 4 1162 0
 5192 00e0 7F9DF000 		cmpw 7,29,30
 5193 00e4 409EFFE4 		bne+ 7,.L375
 5194              	.LVL415:
 5195              	.L343:
 5196              	.LBE2477:
 5197              	.LBE2476:
 5198              	.LBB2485:
 5199              	.LBB2486:
 5200              	.LBB2487:
 5201              		.loc 1 343 0
 5202 00e8 813C0000 		lwz 9,0(28)
 5203 00ec 7F83E378 		mr 3,28
 5204 00f0 8009000C 		lwz 0,12(9)
 5205 00f4 7C0903A6 		mtctr 0
 5206              	.LEHB44:
 5207 00f8 4E800421 		bctrl
 5208              	.LEHE44:
 5209              	.LVL416:
 5210              	.LBE2487:
 5211              	.LBE2486:
 5212              	.LBE2485:
 5213              	.LBE2492:
 5214              	.LBE2457:
 5215              	.LBB2494:
 5216              	.LBB2495:
 5217              	.LBB2496:
 5218              	.LBB2497:
 5219              	.LBB2498:
 5220              	.LBB2499:
 5221              		.loc 12 70 0
 5222 00fc 807C0004 		lwz 3,4(28)
 5223              	.LVL417:
 5224              		.loc 12 71 0
 5225 0100 7F83E800 		cmpw 7,3,29
 5226 0104 40BE000C 		bne+ 7,.L384
 5227 0108 48000018 		b .L361
 5228              	.LVL418:
 5229              	.L376:
 5230              		.loc 12 74 0
 5231 010c 7FE3FB78 		mr 3,31
 5232              	.LVL419:
 5233              	.L384:
 5234              	.LBB2500:
 5235 0110 83E30000 		lwz 31,0(3)
 5236              	.LVL420:
 5237              	.LBB2501:
 5238              	.LBB2502:
 5239              	.LBB2503:
 5240              		.loc 6 98 0
 5241 0114 48000001 		bl _ZdlPv
 5242              	.LVL421:
 5243              	.LBE2503:
 5244              	.LBE2502:
 5245              	.LBE2501:
 5246              	.LBE2500:
 5247              		.loc 12 71 0
 5248 0118 7F9FE800 		cmpw 7,31,29
 5249 011c 409EFFF0 		bne+ 7,.L376
 5250              	.LVL422:
 5251              	.L361:
 5252              	.LBE2499:
 5253              	.LBE2498:
 5254              	.LBE2497:
 5255              	.LBE2496:
 5256              	.LBE2495:
 5257              	.LBE2494:
 5258              	.LBB2504:
 5259              	.LBB2505:
 5260              	.LBB2506:
 5261              	.LBB2507:
 5262              	.LBB2508:
 5263              	.LBB2509:
 5264              		.loc 1 105 0
 5265 0120 3D200000 		lis 9,_ZTVN7sigslot15single_threadedE+8@ha
 5266              	.LBE2509:
 5267              	.LBE2508:
 5268              	.LBE2507:
 5269              	.LBE2506:
 5270              	.LBE2505:
 5271              	.LBE2504:
 5272              	.LBE2540:
 5273              		.loc 1 946 0
 5274 0124 83A1001C 		lwz 29,28(1)
 5275              	.LVL423:
 5276              	.LBB2541:
 5277              	.LBB2520:
 5278              	.LBB2518:
 5279              	.LBB2516:
 5280              	.LBB2514:
 5281              	.LBB2512:
 5282              	.LBB2510:
 5283              		.loc 1 105 0
 5284 0128 38090008 		la 0,_ZTVN7sigslot15single_threadedE+8@l(9)
 5285              	.LBE2510:
 5286              	.LBE2512:
 5287              	.LBE2514:
 5288              	.LBE2516:
 5289              	.LBE2518:
 5290              	.LBE2520:
 5291              	.LBE2541:
 5292              		.loc 1 946 0
 5293 012c 83C10020 		lwz 30,32(1)
 5294              	.LBB2542:
 5295              	.LBB2521:
 5296              	.LBB2519:
 5297              	.LBB2517:
 5298              	.LBB2515:
 5299              	.LBB2513:
 5300              	.LBB2511:
 5301              		.loc 1 105 0
 5302 0130 901C0000 		stw 0,0(28)
 5303              	.LBE2511:
 5304              	.LBE2513:
 5305              	.LBE2515:
 5306              	.LBE2517:
 5307              	.LBE2519:
 5308              	.LBE2521:
 5309              	.LBE2542:
 5310              		.loc 1 946 0
 5311 0134 8001002C 		lwz 0,44(1)
 5312 0138 83810018 		lwz 28,24(1)
 5313              	.LVL424:
 5314 013c 7C0803A6 		mtlr 0
 5315 0140 83E10024 		lwz 31,36(1)
 5316 0144 38210028 		addi 1,1,40
 5317              		.cfi_remember_state
 5318              	.LCFI68:
 5319              		.cfi_def_cfa_offset 0
 5320              		.cfi_restore 31
 5321              		.cfi_restore 30
 5322              		.cfi_restore 29
 5323              		.cfi_restore 28
 5324 0148 4E800020 		blr
 5325              	.LVL425:
 5326              	.L378:
 5327              	.LCFI69:
 5328              		.cfi_restore_state
 5329 014c 7C7F1B78 		mr 31,3
 5330              	.L353:
 5331              	.LVL426:
 5332              	.LBB2543:
 5333              	.LBB2522:
 5334              	.LBB2523:
 5335              	.LBB2524:
 5336              	.LBB2525:
 5337              	.LBB2526:
 5338              	.LBB2527:
 5339              		.loc 12 70 0
 5340 0150 807C0004 		lwz 3,4(28)
 5341              	.LVL427:
 5342              		.loc 12 71 0
 5343 0154 7F83E800 		cmpw 7,3,29
 5344 0158 419E0038 		beq- 7,.L372
 5345              	.LVL428:
 5346              	.L385:
 5347              	.LBB2528:
 5348              		.loc 12 74 0
 5349 015c 83C30000 		lwz 30,0(3)
 5350              	.LVL429:
 5351              	.LBB2529:
 5352              	.LBB2530:
 5353              	.LBB2531:
 5354              		.loc 6 98 0
 5355 0160 48000001 		bl _ZdlPv
 5356              	.LVL430:
 5357              	.LBE2531:
 5358              	.LBE2530:
 5359              	.LBE2529:
 5360              	.LBE2528:
 5361              		.loc 12 71 0
 5362 0164 7F9EE800 		cmpw 7,30,29
 5363 0168 419E0028 		beq- 7,.L372
 5364              		.loc 12 74 0
 5365 016c 7FC3F378 		mr 3,30
 5366 0170 4BFFFFEC 		b .L385
 5367              	.LVL431:
 5368              	.L379:
 5369              	.LBE2527:
 5370              	.LBE2526:
 5371              	.LBE2525:
 5372              	.LBE2524:
 5373              	.LBE2523:
 5374              	.LBE2522:
 5375              	.LBB2532:
 5376              	.LBB2493:
 5377              	.LBB2488:
 5378              	.LBB2489:
 5379              	.LBB2490:
 5380              		.loc 1 343 0
 5381 0174 813C0000 		lwz 9,0(28)
 5382 0178 7C7F1B78 		mr 31,3
 5383              	.LVL432:
 5384 017c 7F83E378 		mr 3,28
 5385 0180 8009000C 		lwz 0,12(9)
 5386 0184 7C0903A6 		mtctr 0
 5387 0188 4E800421 		bctrl
 5388 018c 4BFFFFC4 		b .L353
 5389              	.LVL433:
 5390              	.L372:
 5391              	.LBE2490:
 5392              	.LBE2489:
 5393              	.LBE2488:
 5394              	.LBE2493:
 5395              	.LBE2532:
 5396              	.LBB2533:
 5397              	.LBB2534:
 5398              	.LBB2535:
 5399              	.LBB2536:
 5400              	.LBB2537:
 5401              	.LBB2538:
 5402              		.loc 1 105 0
 5403 0190 3D200000 		lis 9,_ZTVN7sigslot15single_threadedE+8@ha
 5404 0194 7FE3FB78 		mr 3,31
 5405 0198 38090008 		la 0,_ZTVN7sigslot15single_threadedE+8@l(9)
 5406 019c 901C0000 		stw 0,0(28)
 5407              	.LEHB45:
 5408 01a0 48000001 		bl _Unwind_Resume
 5409              	.LEHE45:
 5410              	.LBE2538:
 5411              	.LBE2537:
 5412              	.LBE2536:
 5413              	.LBE2535:
 5414              	.LBE2534:
 5415              	.LBE2533:
 5416              	.LBE2543:
 5417              		.cfi_endproc
 5418              	.LFE1636:
 5419              		.section	.gcc_except_table
 5420              	.LLSDA1636:
 5421 00f7 FF       		.byte	0xff
 5422 00f8 FF       		.byte	0xff
 5423 00f9 01       		.byte	0x1
 5424 00fa 15       		.uleb128 .LLSDACSE1636-.LLSDACSB1636
 5425              	.LLSDACSB1636:
 5426 00fb 30       		.uleb128 .LEHB42-.LFB1636
 5427 00fc 04       		.uleb128 .LEHE42-.LEHB42
 5428 00fd CC02     		.uleb128 .L378-.LFB1636
 5429 00ff 00       		.uleb128 0
 5430 0100 54       		.uleb128 .LEHB43-.LFB1636
 5431 0101 58       		.uleb128 .LEHE43-.LEHB43
 5432 0102 F402     		.uleb128 .L379-.LFB1636
 5433 0104 00       		.uleb128 0
 5434 0105 F801     		.uleb128 .LEHB44-.LFB1636
 5435 0107 04       		.uleb128 .LEHE44-.LEHB44
 5436 0108 CC02     		.uleb128 .L378-.LFB1636
 5437 010a 00       		.uleb128 0
 5438 010b A003     		.uleb128 .LEHB45-.LFB1636
 5439 010d 04       		.uleb128 .LEHE45-.LEHB45
 5440 010e 00       		.uleb128 0
 5441 010f 00       		.uleb128 0
 5442              	.LLSDACSE1636:
 5443              		.section	.text._ZN7sigslot13_signal_base3IP10GuiElementiiNS_15single_threadedEED2Ev,"axG",@progbit
 5444              		.size	_ZN7sigslot13_signal_base3IP10GuiElementiiNS_15single_threadedEED2Ev, .-_ZN7sigslot13_signal
 5445              		.section	.text._ZN7sigslot7signal3IP10GuiElementiiNS_15single_threadedEED0Ev,"axG",@progbits,_ZN7s
 5446              		.align 2
 5447              		.weak	_ZN7sigslot7signal3IP10GuiElementiiNS_15single_threadedEED0Ev
 5448              		.type	_ZN7sigslot7signal3IP10GuiElementiiNS_15single_threadedEED0Ev, @function
 5449              	_ZN7sigslot7signal3IP10GuiElementiiNS_15single_threadedEED0Ev:
 5450              	.LFB1587:
 5451              		.loc 1 2302 0
 5452              		.cfi_startproc
 5453              		.cfi_personality 0,__gxx_personality_v0
 5454              		.cfi_lsda 0,.LLSDA1587
 5455              	.LVL434:
 5456 0000 7C0802A6 		mflr 0
 5457 0004 9421FFD8 		stwu 1,-40(1)
 5458              	.LCFI70:
 5459              		.cfi_def_cfa_offset 40
 5460              		.cfi_register 65, 0
 5461              	.LBB2642:
 5462              	.LBB2643:
 5463              	.LBB2644:
 5464              	.LBB2645:
 5465              	.LBB2646:
 5466              	.LBB2647:
 5467              		.loc 1 946 0
 5468 0008 3D200000 		lis 9,_ZTVN7sigslot13_signal_base3IP10GuiElementiiNS_15single_threadedEEE+8@ha
 5469              	.LBE2647:
 5470              	.LBE2646:
 5471              	.LBE2645:
 5472              	.LBE2644:
 5473              	.LBE2643:
 5474              	.LBE2642:
 5475              		.loc 1 2302 0
 5476 000c 93810018 		stw 28,24(1)
 5477 0010 7C7C1B78 		mr 28,3
 5478              		.cfi_offset 28, -16
 5479              	.LVL435:
 5480 0014 9001002C 		stw 0,44(1)
 5481              	.LBB2744:
 5482              	.LBB2740:
 5483              	.LBB2736:
 5484              	.LBB2732:
 5485              	.LBB2728:
 5486              	.LBB2724:
 5487              		.loc 1 946 0
 5488 0018 38090008 		la 0,_ZTVN7sigslot13_signal_base3IP10GuiElementiiNS_15single_threadedEEE+8@l(9)
 5489              		.cfi_offset 65, 4
 5490              	.LBE2724:
 5491              	.LBE2728:
 5492              	.LBE2732:
 5493              	.LBE2736:
 5494              	.LBE2740:
 5495              	.LBE2744:
 5496              		.loc 1 2302 0
 5497 001c 93A1001C 		stw 29,28(1)
 5498 0020 3BA30004 		addi 29,3,4
 5499              		.cfi_offset 29, -12
 5500 0024 93C10020 		stw 30,32(1)
 5501 0028 93E10024 		stw 31,36(1)
 5502              	.LBB2745:
 5503              	.LBB2741:
 5504              	.LBB2737:
 5505              	.LBB2733:
 5506              	.LBB2729:
 5507              	.LBB2725:
 5508              		.loc 1 946 0
 5509 002c 90030000 		stw 0,0(3)
 5510              	.LVL436:
 5511              	.LEHB46:
 5512              	.LBB2648:
 5513              	.LBB2649:
 5514              	.LBB2650:
 5515              	.LBB2651:
 5516              		.loc 1 338 0
 5517              		.cfi_offset 31, -4
 5518              		.cfi_offset 30, -8
 5519 0030 48000001 		bl _ZN7sigslot15single_threaded4lockEv
 5520              	.LEHE46:
 5521              	.LVL437:
 5522              	.LBE2651:
 5523              	.LBE2650:
 5524              	.LBE2649:
 5525              		.loc 3 160 0
 5526 0034 7F9DE378 		mr 29,28
 5527              	.LVL438:
 5528 0038 87FD0004 		lwzu 31,4(29)
 5529              	.LVL439:
 5530              	.LBB2682:
 5531              		.loc 1 954 0
 5532 003c 7F9FE800 		cmpw 7,31,29
 5533 0040 419E00A8 		beq- 7,.L387
 5534              	.LVL440:
 5535              	.L426:
 5536              		.loc 1 956 0
 5537 0044 807F0008 		lwz 3,8(31)
 5538 0048 81230000 		lwz 9,0(3)
 5539 004c 80090008 		lwz 0,8(9)
 5540 0050 7C0903A6 		mtctr 0
 5541              	.LEHB47:
 5542 0054 4E800421 		bctrl
 5543              	.LBB2652:
 5544              	.LBB2653:
 5545              	.LBB2654:
 5546              	.LBB2655:
 5547              		.loc 1 338 0
 5548 0058 81230000 		lwz 9,0(3)
 5549              	.LBE2655:
 5550              	.LBE2654:
 5551              	.LBE2653:
 5552              	.LBE2652:
 5553              		.loc 1 956 0
 5554 005c 7C7E1B78 		mr 30,3
 5555              	.LVL441:
 5556 0060 93810008 		stw 28,8(1)
 5557              	.LVL442:
 5558              	.LBB2664:
 5559              	.LBB2663:
 5560              	.LBB2657:
 5561              	.LBB2656:
 5562              		.loc 1 338 0
 5563 0064 80090008 		lwz 0,8(9)
 5564 0068 7C0903A6 		mtctr 0
 5565 006c 4E800421 		bctrl
 5566              	.LVL443:
 5567              	.LBE2656:
 5568              	.LBE2657:
 5569              	.LBB2658:
 5570              	.LBB2659:
 5571              		.loc 11 528 0
 5572 0070 387E0004 		addi 3,30,4
 5573 0074 38810008 		addi 4,1,8
 5574 0078 48000001 		bl _ZNSt8_Rb_treeIPN7sigslot12_signal_baseINS0_15single_threadedEEES4_St9_IdentityIS4_ESt4lessIS4_
 5575              	.LVL444:
 5576              	.LBE2659:
 5577              	.LBE2658:
 5578              	.LBB2660:
 5579              	.LBB2661:
 5580              	.LBB2662:
 5581              		.loc 1 343 0
 5582 007c 813E0000 		lwz 9,0(30)
 5583 0080 7FC3F378 		mr 3,30
 5584 0084 8009000C 		lwz 0,12(9)
 5585 0088 7C0903A6 		mtctr 0
 5586 008c 4E800421 		bctrl
 5587              	.LVL445:
 5588              	.LBE2662:
 5589              	.LBE2661:
 5590              	.LBE2660:
 5591              	.LBE2663:
 5592              	.LBE2664:
 5593              		.loc 1 957 0
 5594 0090 807F0008 		lwz 3,8(31)
 5595 0094 2F830000 		cmpwi 7,3,0
 5596 0098 419E0014 		beq- 7,.L389
 5597 009c 81230000 		lwz 9,0(3)
 5598 00a0 80090004 		lwz 0,4(9)
 5599 00a4 7C0903A6 		mtctr 0
 5600 00a8 4E800421 		bctrl
 5601              	.LEHE47:
 5602              	.L389:
 5603              	.LVL446:
 5604              	.LBB2665:
 5605              	.LBB2666:
 5606              		.loc 4 234 0
 5607 00ac 83FF0000 		lwz 31,0(31)
 5608              	.LVL447:
 5609              	.LBE2666:
 5610              	.LBE2665:
 5611              		.loc 1 954 0
 5612 00b0 7F9DF800 		cmpw 7,29,31
 5613 00b4 409EFF90 		bne+ 7,.L426
 5614              	.LBE2682:
 5615              		.loc 3 160 0
 5616 00b8 83FC0004 		lwz 31,4(28)
 5617              	.LVL448:
 5618              	.LBB2683:
 5619              	.LBB2667:
 5620              	.LBB2668:
 5621              		.loc 4 1162 0
 5622 00bc 7F9DF800 		cmpw 7,29,31
 5623 00c0 40BE000C 		bne+ 7,.L428
 5624 00c4 48000024 		b .L387
 5625              	.LVL449:
 5626              	.L421:
 5627              		.loc 4 1163 0
 5628 00c8 7FDFF378 		mr 31,30
 5629              	.LVL450:
 5630              	.L428:
 5631              	.LBB2669:
 5632              	.LBB2670:
 5633              		.loc 12 112 0
 5634 00cc 83DF0000 		lwz 30,0(31)
 5635              	.LVL451:
 5636              	.LBB2671:
 5637              	.LBB2672:
 5638              		.loc 4 1532 0
 5639 00d0 7FE3FB78 		mr 3,31
 5640 00d4 48000001 		bl _ZNSt8__detail15_List_node_base9_M_unhookEv
 5641              	.LVL452:
 5642              	.LBB2673:
 5643              	.LBB2674:
 5644              	.LBB2675:
 5645              		.loc 6 98 0
 5646 00d8 7FE3FB78 		mr 3,31
 5647 00dc 48000001 		bl _ZdlPv
 5648              	.LVL453:
 5649              	.LBE2675:
 5650              	.LBE2674:
 5651              	.LBE2673:
 5652              	.LBE2672:
 5653              	.LBE2671:
 5654              	.LBE2670:
 5655              	.LBE2669:
 5656              		.loc 4 1162 0
 5657 00e0 7F9DF000 		cmpw 7,29,30
 5658 00e4 409EFFE4 		bne+ 7,.L421
 5659              	.LVL454:
 5660              	.L387:
 5661              	.LBE2668:
 5662              	.LBE2667:
 5663              	.LBB2676:
 5664              	.LBB2677:
 5665              	.LBB2678:
 5666              		.loc 1 343 0
 5667 00e8 813C0000 		lwz 9,0(28)
 5668 00ec 7F83E378 		mr 3,28
 5669 00f0 8009000C 		lwz 0,12(9)
 5670 00f4 7C0903A6 		mtctr 0
 5671              	.LEHB48:
 5672 00f8 4E800421 		bctrl
 5673              	.LEHE48:
 5674              	.LBE2678:
 5675              	.LBE2677:
 5676              	.LBE2676:
 5677              	.LBE2683:
 5678              	.LBE2648:
 5679              	.LBB2685:
 5680              	.LBB2686:
 5681              	.LBB2687:
 5682              	.LBB2688:
 5683              	.LBB2689:
 5684              	.LBB2690:
 5685              		.loc 12 70 0
 5686 00fc 807C0004 		lwz 3,4(28)
 5687              	.LVL455:
 5688              		.loc 12 71 0
 5689 0100 7F83E800 		cmpw 7,3,29
 5690 0104 40BE000C 		bne+ 7,.L430
 5691 0108 48000018 		b .L405
 5692              	.LVL456:
 5693              	.L422:
 5694              		.loc 12 74 0
 5695 010c 7FE3FB78 		mr 3,31
 5696              	.LVL457:
 5697              	.L430:
 5698              	.LBB2691:
 5699 0110 83E30000 		lwz 31,0(3)
 5700              	.LVL458:
 5701              	.LBB2692:
 5702              	.LBB2693:
 5703              	.LBB2694:
 5704              		.loc 6 98 0
 5705 0114 48000001 		bl _ZdlPv
 5706              	.LVL459:
 5707              	.LBE2694:
 5708              	.LBE2693:
 5709              	.LBE2692:
 5710              	.LBE2691:
 5711              		.loc 12 71 0
 5712 0118 7F9FE800 		cmpw 7,31,29
 5713 011c 409EFFF0 		bne+ 7,.L422
 5714              	.LVL460:
 5715              	.L405:
 5716              	.LBE2690:
 5717              	.LBE2689:
 5718              	.LBE2688:
 5719              	.LBE2687:
 5720              	.LBE2686:
 5721              	.LBE2685:
 5722              	.LBB2695:
 5723              	.LBB2696:
 5724              	.LBB2697:
 5725              	.LBB2698:
 5726              	.LBB2699:
 5727              	.LBB2700:
 5728              		.loc 1 105 0
 5729 0120 3D200000 		lis 9,_ZTVN7sigslot15single_threadedE+8@ha
 5730              	.LBE2700:
 5731              	.LBE2699:
 5732              	.LBE2698:
 5733              	.LBE2697:
 5734              	.LBE2696:
 5735              	.LBE2695:
 5736              	.LBE2725:
 5737              	.LBE2729:
 5738              	.LBE2733:
 5739              	.LBE2737:
 5740              	.LBE2741:
 5741              	.LBE2745:
 5742              		.loc 1 2305 0
 5743 0124 7F83E378 		mr 3,28
 5744              	.LBB2746:
 5745              	.LBB2742:
 5746              	.LBB2738:
 5747              	.LBB2734:
 5748              	.LBB2730:
 5749              	.LBB2726:
 5750              	.LBB2706:
 5751              	.LBB2705:
 5752              	.LBB2704:
 5753              	.LBB2703:
 5754              	.LBB2702:
 5755              	.LBB2701:
 5756              		.loc 1 105 0
 5757 0128 38090008 		la 0,_ZTVN7sigslot15single_threadedE+8@l(9)
 5758 012c 901C0000 		stw 0,0(28)
 5759              	.LBE2701:
 5760              	.LBE2702:
 5761              	.LBE2703:
 5762              	.LBE2704:
 5763              	.LBE2705:
 5764              	.LBE2706:
 5765              	.LBE2726:
 5766              	.LBE2730:
 5767              	.LBE2734:
 5768              	.LBE2738:
 5769              	.LBE2742:
 5770              	.LBE2746:
 5771              		.loc 1 2305 0
 5772 0130 48000001 		bl _ZdlPv
 5773 0134 8001002C 		lwz 0,44(1)
 5774 0138 83810018 		lwz 28,24(1)
 5775              	.LVL461:
 5776 013c 7C0803A6 		mtlr 0
 5777 0140 83A1001C 		lwz 29,28(1)
 5778              	.LVL462:
 5779 0144 83C10020 		lwz 30,32(1)
 5780 0148 83E10024 		lwz 31,36(1)
 5781 014c 38210028 		addi 1,1,40
 5782              		.cfi_remember_state
 5783              	.LCFI71:
 5784              		.cfi_def_cfa_offset 0
 5785              		.cfi_restore 31
 5786              		.cfi_restore 30
 5787              		.cfi_restore 29
 5788              		.cfi_restore 28
 5789 0150 4E800020 		blr
 5790              	.LVL463:
 5791              	.L424:
 5792              	.LCFI72:
 5793              		.cfi_restore_state
 5794 0154 7C7F1B78 		mr 31,3
 5795              	.L397:
 5796              	.LBB2747:
 5797              	.LBB2743:
 5798              	.LBB2739:
 5799              	.LBB2735:
 5800              	.LBB2731:
 5801              	.LBB2727:
 5802              	.LBB2707:
 5803              	.LBB2708:
 5804              	.LBB2709:
 5805              	.LBB2710:
 5806              	.LBB2711:
 5807              	.LBB2712:
 5808              		.loc 12 70 0
 5809 0158 807C0004 		lwz 3,4(28)
 5810              	.LVL464:
 5811              		.loc 12 71 0
 5812 015c 7F83E800 		cmpw 7,3,29
 5813 0160 419E0038 		beq- 7,.L414
 5814              	.LVL465:
 5815              	.L431:
 5816              	.LBB2713:
 5817              		.loc 12 74 0
 5818 0164 83C30000 		lwz 30,0(3)
 5819              	.LVL466:
 5820              	.LBB2714:
 5821              	.LBB2715:
 5822              	.LBB2716:
 5823              		.loc 6 98 0
 5824 0168 48000001 		bl _ZdlPv
 5825              	.LVL467:
 5826              	.LBE2716:
 5827              	.LBE2715:
 5828              	.LBE2714:
 5829              	.LBE2713:
 5830              		.loc 12 71 0
 5831 016c 7F9EE800 		cmpw 7,30,29
 5832 0170 419E0028 		beq- 7,.L414
 5833              		.loc 12 74 0
 5834 0174 7FC3F378 		mr 3,30
 5835 0178 4BFFFFEC 		b .L431
 5836              	.LVL468:
 5837              	.L425:
 5838              	.LBE2712:
 5839              	.LBE2711:
 5840              	.LBE2710:
 5841              	.LBE2709:
 5842              	.LBE2708:
 5843              	.LBE2707:
 5844              	.LBB2717:
 5845              	.LBB2684:
 5846              	.LBB2679:
 5847              	.LBB2680:
 5848              	.LBB2681:
 5849              		.loc 1 343 0
 5850 017c 813C0000 		lwz 9,0(28)
 5851 0180 7C7F1B78 		mr 31,3
 5852              	.LVL469:
 5853 0184 7F83E378 		mr 3,28
 5854 0188 8009000C 		lwz 0,12(9)
 5855 018c 7C0903A6 		mtctr 0
 5856 0190 4E800421 		bctrl
 5857 0194 4BFFFFC4 		b .L397
 5858              	.LVL470:
 5859              	.L414:
 5860              	.LBE2681:
 5861              	.LBE2680:
 5862              	.LBE2679:
 5863              	.LBE2684:
 5864              	.LBE2717:
 5865              	.LBB2718:
 5866              	.LBB2719:
 5867              	.LBB2720:
 5868              	.LBB2721:
 5869              	.LBB2722:
 5870              	.LBB2723:
 5871              		.loc 1 105 0
 5872 0198 3D200000 		lis 9,_ZTVN7sigslot15single_threadedE+8@ha
 5873 019c 7FE3FB78 		mr 3,31
 5874 01a0 38090008 		la 0,_ZTVN7sigslot15single_threadedE+8@l(9)
 5875 01a4 901C0000 		stw 0,0(28)
 5876              	.LEHB49:
 5877 01a8 48000001 		bl _Unwind_Resume
 5878              	.LEHE49:
 5879              	.LBE2723:
 5880              	.LBE2722:
 5881              	.LBE2721:
 5882              	.LBE2720:
 5883              	.LBE2719:
 5884              	.LBE2718:
 5885              	.LBE2727:
 5886              	.LBE2731:
 5887              	.LBE2735:
 5888              	.LBE2739:
 5889              	.LBE2743:
 5890              	.LBE2747:
 5891              		.cfi_endproc
 5892              	.LFE1587:
 5893              		.section	.gcc_except_table
 5894              	.LLSDA1587:
 5895 0110 FF       		.byte	0xff
 5896 0111 FF       		.byte	0xff
 5897 0112 01       		.byte	0x1
 5898 0113 15       		.uleb128 .LLSDACSE1587-.LLSDACSB1587
 5899              	.LLSDACSB1587:
 5900 0114 30       		.uleb128 .LEHB46-.LFB1587
 5901 0115 04       		.uleb128 .LEHE46-.LEHB46
 5902 0116 D402     		.uleb128 .L424-.LFB1587
 5903 0118 00       		.uleb128 0
 5904 0119 54       		.uleb128 .LEHB47-.LFB1587
 5905 011a 58       		.uleb128 .LEHE47-.LEHB47
 5906 011b FC02     		.uleb128 .L425-.LFB1587
 5907 011d 00       		.uleb128 0
 5908 011e F801     		.uleb128 .LEHB48-.LFB1587
 5909 0120 04       		.uleb128 .LEHE48-.LEHB48
 5910 0121 D402     		.uleb128 .L424-.LFB1587
 5911 0123 00       		.uleb128 0
 5912 0124 A803     		.uleb128 .LEHB49-.LFB1587
 5913 0126 04       		.uleb128 .LEHE49-.LEHB49
 5914 0127 00       		.uleb128 0
 5915 0128 00       		.uleb128 0
 5916              	.LLSDACSE1587:
 5917              		.section	.text._ZN7sigslot7signal3IP10GuiElementiiNS_15single_threadedEED0Ev,"axG",@progbits,_ZN7s
 5918              		.size	_ZN7sigslot7signal3IP10GuiElementiiNS_15single_threadedEED0Ev, .-_ZN7sigslot7signal3IP10GuiE
 5919              		.section	.text._ZN7sigslot13_signal_base3IP10GuiElementiiNS_15single_threadedEED0Ev,"axG",@progbit
 5920              		.align 2
 5921              		.weak	_ZN7sigslot13_signal_base3IP10GuiElementiiNS_15single_threadedEED0Ev
 5922              		.type	_ZN7sigslot13_signal_base3IP10GuiElementiiNS_15single_threadedEED0Ev, @function
 5923              	_ZN7sigslot13_signal_base3IP10GuiElementiiNS_15single_threadedEED0Ev:
 5924              	.LFB1638:
 5925              		.loc 1 943 0
 5926              		.cfi_startproc
 5927              		.cfi_personality 0,__gxx_personality_v0
 5928              		.cfi_lsda 0,.LLSDA1638
 5929              	.LVL471:
 5930 0000 7C0802A6 		mflr 0
 5931 0004 9421FFD8 		stwu 1,-40(1)
 5932              	.LCFI73:
 5933              		.cfi_def_cfa_offset 40
 5934              		.cfi_register 65, 0
 5935              	.LBB2843:
 5936              	.LBB2844:
 5937              	.LBB2845:
 5938              		.loc 1 946 0
 5939 0008 3D200000 		lis 9,_ZTVN7sigslot13_signal_base3IP10GuiElementiiNS_15single_threadedEEE+8@ha
 5940              	.LBE2845:
 5941              	.LBE2844:
 5942              	.LBE2843:
 5943              		.loc 1 943 0
 5944 000c 93810018 		stw 28,24(1)
 5945 0010 7C7C1B78 		mr 28,3
 5946              		.cfi_offset 28, -16
 5947              	.LVL472:
 5948 0014 9001002C 		stw 0,44(1)
 5949              	.LBB2930:
 5950              	.LBB2926:
 5951              	.LBB2922:
 5952              		.loc 1 946 0
 5953 0018 38090008 		la 0,_ZTVN7sigslot13_signal_base3IP10GuiElementiiNS_15single_threadedEEE+8@l(9)
 5954              		.cfi_offset 65, 4
 5955              	.LBE2922:
 5956              	.LBE2926:
 5957              	.LBE2930:
 5958              		.loc 1 943 0
 5959 001c 93A1001C 		stw 29,28(1)
 5960 0020 3BA30004 		addi 29,3,4
 5961              		.cfi_offset 29, -12
 5962 0024 93C10020 		stw 30,32(1)
 5963 0028 93E10024 		stw 31,36(1)
 5964              	.LBB2931:
 5965              	.LBB2927:
 5966              	.LBB2923:
 5967              		.loc 1 946 0
 5968 002c 90030000 		stw 0,0(3)
 5969              	.LVL473:
 5970              	.LEHB50:
 5971              	.LBB2846:
 5972              	.LBB2847:
 5973              	.LBB2848:
 5974              	.LBB2849:
 5975              		.loc 1 338 0
 5976              		.cfi_offset 31, -4
 5977              		.cfi_offset 30, -8
 5978 0030 48000001 		bl _ZN7sigslot15single_threaded4lockEv
 5979              	.LEHE50:
 5980              	.LVL474:
 5981              	.LBE2849:
 5982              	.LBE2848:
 5983              	.LBE2847:
 5984              		.loc 3 160 0
 5985 0034 7F9DE378 		mr 29,28
 5986              	.LVL475:
 5987 0038 87FD0004 		lwzu 31,4(29)
 5988              	.LVL476:
 5989              	.LBB2880:
 5990              		.loc 1 954 0
 5991 003c 7F9FE800 		cmpw 7,31,29
 5992 0040 419E00A8 		beq- 7,.L433
 5993              	.LVL477:
 5994              	.L471:
 5995              		.loc 1 956 0
 5996 0044 807F0008 		lwz 3,8(31)
 5997 0048 81230000 		lwz 9,0(3)
 5998 004c 80090008 		lwz 0,8(9)
 5999 0050 7C0903A6 		mtctr 0
 6000              	.LEHB51:
 6001 0054 4E800421 		bctrl
 6002              	.LBB2850:
 6003              	.LBB2851:
 6004              	.LBB2852:
 6005              	.LBB2853:
 6006              		.loc 1 338 0
 6007 0058 81230000 		lwz 9,0(3)
 6008              	.LBE2853:
 6009              	.LBE2852:
 6010              	.LBE2851:
 6011              	.LBE2850:
 6012              		.loc 1 956 0
 6013 005c 7C7E1B78 		mr 30,3
 6014              	.LVL478:
 6015 0060 93810008 		stw 28,8(1)
 6016              	.LVL479:
 6017              	.LBB2862:
 6018              	.LBB2861:
 6019              	.LBB2855:
 6020              	.LBB2854:
 6021              		.loc 1 338 0
 6022 0064 80090008 		lwz 0,8(9)
 6023 0068 7C0903A6 		mtctr 0
 6024 006c 4E800421 		bctrl
 6025              	.LVL480:
 6026              	.LBE2854:
 6027              	.LBE2855:
 6028              	.LBB2856:
 6029              	.LBB2857:
 6030              		.loc 11 528 0
 6031 0070 387E0004 		addi 3,30,4
 6032 0074 38810008 		addi 4,1,8
 6033 0078 48000001 		bl _ZNSt8_Rb_treeIPN7sigslot12_signal_baseINS0_15single_threadedEEES4_St9_IdentityIS4_ESt4lessIS4_
 6034              	.LVL481:
 6035              	.LBE2857:
 6036              	.LBE2856:
 6037              	.LBB2858:
 6038              	.LBB2859:
 6039              	.LBB2860:
 6040              		.loc 1 343 0
 6041 007c 813E0000 		lwz 9,0(30)
 6042 0080 7FC3F378 		mr 3,30
 6043 0084 8009000C 		lwz 0,12(9)
 6044 0088 7C0903A6 		mtctr 0
 6045 008c 4E800421 		bctrl
 6046              	.LVL482:
 6047              	.LBE2860:
 6048              	.LBE2859:
 6049              	.LBE2858:
 6050              	.LBE2861:
 6051              	.LBE2862:
 6052              		.loc 1 957 0
 6053 0090 807F0008 		lwz 3,8(31)
 6054 0094 2F830000 		cmpwi 7,3,0
 6055 0098 419E0014 		beq- 7,.L435
 6056 009c 81230000 		lwz 9,0(3)
 6057 00a0 80090004 		lwz 0,4(9)
 6058 00a4 7C0903A6 		mtctr 0
 6059 00a8 4E800421 		bctrl
 6060              	.LEHE51:
 6061              	.L435:
 6062              	.LVL483:
 6063              	.LBB2863:
 6064              	.LBB2864:
 6065              		.loc 4 234 0
 6066 00ac 83FF0000 		lwz 31,0(31)
 6067              	.LVL484:
 6068              	.LBE2864:
 6069              	.LBE2863:
 6070              		.loc 1 954 0
 6071 00b0 7F9DF800 		cmpw 7,29,31
 6072 00b4 409EFF90 		bne+ 7,.L471
 6073              	.LBE2880:
 6074              		.loc 3 160 0
 6075 00b8 83FC0004 		lwz 31,4(28)
 6076              	.LVL485:
 6077              	.LBB2881:
 6078              	.LBB2865:
 6079              	.LBB2866:
 6080              		.loc 4 1162 0
 6081 00bc 7F9DF800 		cmpw 7,29,31
 6082 00c0 40BE000C 		bne+ 7,.L473
 6083 00c4 48000024 		b .L433
 6084              	.LVL486:
 6085              	.L466:
 6086              		.loc 4 1163 0
 6087 00c8 7FDFF378 		mr 31,30
 6088              	.LVL487:
 6089              	.L473:
 6090              	.LBB2867:
 6091              	.LBB2868:
 6092              		.loc 12 112 0
 6093 00cc 83DF0000 		lwz 30,0(31)
 6094              	.LVL488:
 6095              	.LBB2869:
 6096              	.LBB2870:
 6097              		.loc 4 1532 0
 6098 00d0 7FE3FB78 		mr 3,31
 6099 00d4 48000001 		bl _ZNSt8__detail15_List_node_base9_M_unhookEv
 6100              	.LVL489:
 6101              	.LBB2871:
 6102              	.LBB2872:
 6103              	.LBB2873:
 6104              		.loc 6 98 0
 6105 00d8 7FE3FB78 		mr 3,31
 6106 00dc 48000001 		bl _ZdlPv
 6107              	.LVL490:
 6108              	.LBE2873:
 6109              	.LBE2872:
 6110              	.LBE2871:
 6111              	.LBE2870:
 6112              	.LBE2869:
 6113              	.LBE2868:
 6114              	.LBE2867:
 6115              		.loc 4 1162 0
 6116 00e0 7F9DF000 		cmpw 7,29,30
 6117 00e4 409EFFE4 		bne+ 7,.L466
 6118              	.LVL491:
 6119              	.L433:
 6120              	.LBE2866:
 6121              	.LBE2865:
 6122              	.LBB2874:
 6123              	.LBB2875:
 6124              	.LBB2876:
 6125              		.loc 1 343 0
 6126 00e8 813C0000 		lwz 9,0(28)
 6127 00ec 7F83E378 		mr 3,28
 6128 00f0 8009000C 		lwz 0,12(9)
 6129 00f4 7C0903A6 		mtctr 0
 6130              	.LEHB52:
 6131 00f8 4E800421 		bctrl
 6132              	.LEHE52:
 6133              	.LVL492:
 6134              	.LBE2876:
 6135              	.LBE2875:
 6136              	.LBE2874:
 6137              	.LBE2881:
 6138              	.LBE2846:
 6139              	.LBB2883:
 6140              	.LBB2884:
 6141              	.LBB2885:
 6142              	.LBB2886:
 6143              	.LBB2887:
 6144              	.LBB2888:
 6145              		.loc 12 70 0
 6146 00fc 807C0004 		lwz 3,4(28)
 6147              	.LVL493:
 6148              		.loc 12 71 0
 6149 0100 7F83E800 		cmpw 7,3,29
 6150 0104 40BE000C 		bne+ 7,.L475
 6151 0108 48000018 		b .L451
 6152              	.LVL494:
 6153              	.L467:
 6154              		.loc 12 74 0
 6155 010c 7FE3FB78 		mr 3,31
 6156              	.LVL495:
 6157              	.L475:
 6158              	.LBB2889:
 6159 0110 83E30000 		lwz 31,0(3)
 6160              	.LVL496:
 6161              	.LBB2890:
 6162              	.LBB2891:
 6163              	.LBB2892:
 6164              		.loc 6 98 0
 6165 0114 48000001 		bl _ZdlPv
 6166              	.LVL497:
 6167              	.LBE2892:
 6168              	.LBE2891:
 6169              	.LBE2890:
 6170              	.LBE2889:
 6171              		.loc 12 71 0
 6172 0118 7F9FE800 		cmpw 7,31,29
 6173 011c 409EFFF0 		bne+ 7,.L467
 6174              	.LVL498:
 6175              	.L451:
 6176              	.LBE2888:
 6177              	.LBE2887:
 6178              	.LBE2886:
 6179              	.LBE2885:
 6180              	.LBE2884:
 6181              	.LBE2883:
 6182              	.LBB2893:
 6183              	.LBB2894:
 6184              	.LBB2895:
 6185              	.LBB2896:
 6186              	.LBB2897:
 6187              	.LBB2898:
 6188              		.loc 1 105 0
 6189 0120 3D200000 		lis 9,_ZTVN7sigslot15single_threadedE+8@ha
 6190              	.LBE2898:
 6191              	.LBE2897:
 6192              	.LBE2896:
 6193              	.LBE2895:
 6194              	.LBE2894:
 6195              	.LBE2893:
 6196              	.LBE2923:
 6197              	.LBE2927:
 6198              	.LBE2931:
 6199              		.loc 1 946 0
 6200 0124 7F83E378 		mr 3,28
 6201              	.LBB2932:
 6202              	.LBB2928:
 6203              	.LBB2924:
 6204              	.LBB2904:
 6205              	.LBB2903:
 6206              	.LBB2902:
 6207              	.LBB2901:
 6208              	.LBB2900:
 6209              	.LBB2899:
 6210              		.loc 1 105 0
 6211 0128 38090008 		la 0,_ZTVN7sigslot15single_threadedE+8@l(9)
 6212 012c 901C0000 		stw 0,0(28)
 6213              	.LBE2899:
 6214              	.LBE2900:
 6215              	.LBE2901:
 6216              	.LBE2902:
 6217              	.LBE2903:
 6218              	.LBE2904:
 6219              	.LBE2924:
 6220              	.LBE2928:
 6221              	.LBE2932:
 6222              		.loc 1 946 0
 6223 0130 48000001 		bl _ZdlPv
 6224 0134 8001002C 		lwz 0,44(1)
 6225 0138 83810018 		lwz 28,24(1)
 6226              	.LVL499:
 6227 013c 7C0803A6 		mtlr 0
 6228 0140 83A1001C 		lwz 29,28(1)
 6229              	.LVL500:
 6230 0144 83C10020 		lwz 30,32(1)
 6231 0148 83E10024 		lwz 31,36(1)
 6232 014c 38210028 		addi 1,1,40
 6233              		.cfi_remember_state
 6234              	.LCFI74:
 6235              		.cfi_def_cfa_offset 0
 6236              		.cfi_restore 31
 6237              		.cfi_restore 30
 6238              		.cfi_restore 29
 6239              		.cfi_restore 28
 6240 0150 4E800020 		blr
 6241              	.LVL501:
 6242              	.L469:
 6243              	.LCFI75:
 6244              		.cfi_restore_state
 6245 0154 7C7F1B78 		mr 31,3
 6246              	.L443:
 6247              	.LVL502:
 6248              	.LBB2933:
 6249              	.LBB2929:
 6250              	.LBB2925:
 6251              	.LBB2905:
 6252              	.LBB2906:
 6253              	.LBB2907:
 6254              	.LBB2908:
 6255              	.LBB2909:
 6256              	.LBB2910:
 6257              		.loc 12 70 0
 6258 0158 807C0004 		lwz 3,4(28)
 6259              	.LVL503:
 6260              		.loc 12 71 0
 6261 015c 7F83E800 		cmpw 7,3,29
 6262 0160 419E0038 		beq- 7,.L460
 6263              	.LVL504:
 6264              	.L476:
 6265              	.LBB2911:
 6266              		.loc 12 74 0
 6267 0164 83C30000 		lwz 30,0(3)
 6268              	.LVL505:
 6269              	.LBB2912:
 6270              	.LBB2913:
 6271              	.LBB2914:
 6272              		.loc 6 98 0
 6273 0168 48000001 		bl _ZdlPv
 6274              	.LVL506:
 6275              	.LBE2914:
 6276              	.LBE2913:
 6277              	.LBE2912:
 6278              	.LBE2911:
 6279              		.loc 12 71 0
 6280 016c 7F9EE800 		cmpw 7,30,29
 6281 0170 419E0028 		beq- 7,.L460
 6282              		.loc 12 74 0
 6283 0174 7FC3F378 		mr 3,30
 6284 0178 4BFFFFEC 		b .L476
 6285              	.LVL507:
 6286              	.L470:
 6287              	.LBE2910:
 6288              	.LBE2909:
 6289              	.LBE2908:
 6290              	.LBE2907:
 6291              	.LBE2906:
 6292              	.LBE2905:
 6293              	.LBB2915:
 6294              	.LBB2882:
 6295              	.LBB2877:
 6296              	.LBB2878:
 6297              	.LBB2879:
 6298              		.loc 1 343 0
 6299 017c 813C0000 		lwz 9,0(28)
 6300 0180 7C7F1B78 		mr 31,3
 6301              	.LVL508:
 6302 0184 7F83E378 		mr 3,28
 6303 0188 8009000C 		lwz 0,12(9)
 6304 018c 7C0903A6 		mtctr 0
 6305 0190 4E800421 		bctrl
 6306 0194 4BFFFFC4 		b .L443
 6307              	.LVL509:
 6308              	.L460:
 6309              	.LBE2879:
 6310              	.LBE2878:
 6311              	.LBE2877:
 6312              	.LBE2882:
 6313              	.LBE2915:
 6314              	.LBB2916:
 6315              	.LBB2917:
 6316              	.LBB2918:
 6317              	.LBB2919:
 6318              	.LBB2920:
 6319              	.LBB2921:
 6320              		.loc 1 105 0
 6321 0198 3D200000 		lis 9,_ZTVN7sigslot15single_threadedE+8@ha
 6322 019c 7FE3FB78 		mr 3,31
 6323 01a0 38090008 		la 0,_ZTVN7sigslot15single_threadedE+8@l(9)
 6324 01a4 901C0000 		stw 0,0(28)
 6325              	.LEHB53:
 6326 01a8 48000001 		bl _Unwind_Resume
 6327              	.LEHE53:
 6328              	.LBE2921:
 6329              	.LBE2920:
 6330              	.LBE2919:
 6331              	.LBE2918:
 6332              	.LBE2917:
 6333              	.LBE2916:
 6334              	.LBE2925:
 6335              	.LBE2929:
 6336              	.LBE2933:
 6337              		.cfi_endproc
 6338              	.LFE1638:
 6339              		.section	.gcc_except_table
 6340              	.LLSDA1638:
 6341 0129 FF       		.byte	0xff
 6342 012a FF       		.byte	0xff
 6343 012b 01       		.byte	0x1
 6344 012c 15       		.uleb128 .LLSDACSE1638-.LLSDACSB1638
 6345              	.LLSDACSB1638:
 6346 012d 30       		.uleb128 .LEHB50-.LFB1638
 6347 012e 04       		.uleb128 .LEHE50-.LEHB50
 6348 012f D402     		.uleb128 .L469-.LFB1638
 6349 0131 00       		.uleb128 0
 6350 0132 54       		.uleb128 .LEHB51-.LFB1638
 6351 0133 58       		.uleb128 .LEHE51-.LEHB51
 6352 0134 FC02     		.uleb128 .L470-.LFB1638
 6353 0136 00       		.uleb128 0
 6354 0137 F801     		.uleb128 .LEHB52-.LFB1638
 6355 0139 04       		.uleb128 .LEHE52-.LEHB52
 6356 013a D402     		.uleb128 .L469-.LFB1638
 6357 013c 00       		.uleb128 0
 6358 013d A803     		.uleb128 .LEHB53-.LFB1638
 6359 013f 04       		.uleb128 .LEHE53-.LEHB53
 6360 0140 00       		.uleb128 0
 6361 0141 00       		.uleb128 0
 6362              	.LLSDACSE1638:
 6363              		.section	.text._ZN7sigslot13_signal_base3IP10GuiElementiiNS_15single_threadedEED0Ev,"axG",@progbit
 6364              		.size	_ZN7sigslot13_signal_base3IP10GuiElementiiNS_15single_threadedEED0Ev, .-_ZN7sigslot13_signal
 6365              		.section	.text._ZN7sigslot7signal3IP10GuiElementiiNS_15single_threadedEED2Ev,"axG",@progbits,_ZN7s
 6366              		.align 2
 6367              		.weak	_ZN7sigslot7signal3IP10GuiElementiiNS_15single_threadedEED2Ev
 6368              		.type	_ZN7sigslot7signal3IP10GuiElementiiNS_15single_threadedEED2Ev, @function
 6369              	_ZN7sigslot7signal3IP10GuiElementiiNS_15single_threadedEED2Ev:
 6370              	.LFB1585:
 6371              		.loc 1 2302 0
 6372              		.cfi_startproc
 6373              		.cfi_personality 0,__gxx_personality_v0
 6374              		.cfi_lsda 0,.LLSDA1585
 6375              	.LVL510:
 6376 0000 7C0802A6 		mflr 0
 6377 0004 9421FFD8 		stwu 1,-40(1)
 6378              	.LCFI76:
 6379              		.cfi_def_cfa_offset 40
 6380              		.cfi_register 65, 0
 6381              	.LBB3031:
 6382              	.LBB3032:
 6383              	.LBB3033:
 6384              	.LBB3034:
 6385              		.loc 1 946 0
 6386 0008 3D200000 		lis 9,_ZTVN7sigslot13_signal_base3IP10GuiElementiiNS_15single_threadedEEE+8@ha
 6387              	.LBE3034:
 6388              	.LBE3033:
 6389              	.LBE3032:
 6390              	.LBE3031:
 6391              		.loc 1 2302 0
 6392 000c 93810018 		stw 28,24(1)
 6393 0010 7C7C1B78 		mr 28,3
 6394              		.cfi_offset 28, -16
 6395              	.LVL511:
 6396 0014 9001002C 		stw 0,44(1)
 6397              	.LBB3132:
 6398              	.LBB3127:
 6399              	.LBB3122:
 6400              	.LBB3117:
 6401              		.loc 1 946 0
 6402 0018 38090008 		la 0,_ZTVN7sigslot13_signal_base3IP10GuiElementiiNS_15single_threadedEEE+8@l(9)
 6403              		.cfi_offset 65, 4
 6404              	.LBE3117:
 6405              	.LBE3122:
 6406              	.LBE3127:
 6407              	.LBE3132:
 6408              		.loc 1 2302 0
 6409 001c 93A1001C 		stw 29,28(1)
 6410 0020 3BA30004 		addi 29,3,4
 6411              		.cfi_offset 29, -12
 6412 0024 93C10020 		stw 30,32(1)
 6413 0028 93E10024 		stw 31,36(1)
 6414              	.LBB3133:
 6415              	.LBB3128:
 6416              	.LBB3123:
 6417              	.LBB3118:
 6418              		.loc 1 946 0
 6419 002c 90030000 		stw 0,0(3)
 6420              	.LVL512:
 6421              	.LEHB54:
 6422              	.LBB3035:
 6423              	.LBB3036:
 6424              	.LBB3037:
 6425              	.LBB3038:
 6426              		.loc 1 338 0
 6427              		.cfi_offset 31, -4
 6428              		.cfi_offset 30, -8
 6429 0030 48000001 		bl _ZN7sigslot15single_threaded4lockEv
 6430              	.LEHE54:
 6431              	.LVL513:
 6432              	.LBE3038:
 6433              	.LBE3037:
 6434              	.LBE3036:
 6435              		.loc 3 160 0
 6436 0034 7F9DE378 		mr 29,28
 6437 0038 87FD0004 		lwzu 31,4(29)
 6438              	.LVL514:
 6439              	.LBB3069:
 6440              		.loc 1 954 0
 6441 003c 7F9FE800 		cmpw 7,31,29
 6442 0040 419E00A8 		beq- 7,.L478
 6443              	.LVL515:
 6444              	.L516:
 6445              		.loc 1 956 0
 6446 0044 807F0008 		lwz 3,8(31)
 6447 0048 81230000 		lwz 9,0(3)
 6448 004c 80090008 		lwz 0,8(9)
 6449 0050 7C0903A6 		mtctr 0
 6450              	.LEHB55:
 6451 0054 4E800421 		bctrl
 6452              	.LBB3039:
 6453              	.LBB3040:
 6454              	.LBB3041:
 6455              	.LBB3042:
 6456              		.loc 1 338 0
 6457 0058 81230000 		lwz 9,0(3)
 6458              	.LBE3042:
 6459              	.LBE3041:
 6460              	.LBE3040:
 6461              	.LBE3039:
 6462              		.loc 1 956 0
 6463 005c 7C7E1B78 		mr 30,3
 6464              	.LVL516:
 6465 0060 93810008 		stw 28,8(1)
 6466              	.LVL517:
 6467              	.LBB3051:
 6468              	.LBB3050:
 6469              	.LBB3044:
 6470              	.LBB3043:
 6471              		.loc 1 338 0
 6472 0064 80090008 		lwz 0,8(9)
 6473 0068 7C0903A6 		mtctr 0
 6474 006c 4E800421 		bctrl
 6475              	.LVL518:
 6476              	.LBE3043:
 6477              	.LBE3044:
 6478              	.LBB3045:
 6479              	.LBB3046:
 6480              		.loc 11 528 0
 6481 0070 387E0004 		addi 3,30,4
 6482 0074 38810008 		addi 4,1,8
 6483 0078 48000001 		bl _ZNSt8_Rb_treeIPN7sigslot12_signal_baseINS0_15single_threadedEEES4_St9_IdentityIS4_ESt4lessIS4_
 6484              	.LVL519:
 6485              	.LBE3046:
 6486              	.LBE3045:
 6487              	.LBB3047:
 6488              	.LBB3048:
 6489              	.LBB3049:
 6490              		.loc 1 343 0
 6491 007c 813E0000 		lwz 9,0(30)
 6492 0080 7FC3F378 		mr 3,30
 6493 0084 8009000C 		lwz 0,12(9)
 6494 0088 7C0903A6 		mtctr 0
 6495 008c 4E800421 		bctrl
 6496              	.LVL520:
 6497              	.LBE3049:
 6498              	.LBE3048:
 6499              	.LBE3047:
 6500              	.LBE3050:
 6501              	.LBE3051:
 6502              		.loc 1 957 0
 6503 0090 807F0008 		lwz 3,8(31)
 6504 0094 2F830000 		cmpwi 7,3,0
 6505 0098 419E0014 		beq- 7,.L480
 6506 009c 81230000 		lwz 9,0(3)
 6507 00a0 80090004 		lwz 0,4(9)
 6508 00a4 7C0903A6 		mtctr 0
 6509 00a8 4E800421 		bctrl
 6510              	.LEHE55:
 6511              	.L480:
 6512              	.LVL521:
 6513              	.LBB3052:
 6514              	.LBB3053:
 6515              		.loc 4 234 0
 6516 00ac 83FF0000 		lwz 31,0(31)
 6517              	.LVL522:
 6518              	.LBE3053:
 6519              	.LBE3052:
 6520              		.loc 1 954 0
 6521 00b0 7F9DF800 		cmpw 7,29,31
 6522 00b4 409EFF90 		bne+ 7,.L516
 6523              	.LBE3069:
 6524              		.loc 3 160 0
 6525 00b8 83FC0004 		lwz 31,4(28)
 6526              	.LVL523:
 6527              	.LBB3070:
 6528              	.LBB3054:
 6529              	.LBB3055:
 6530              		.loc 4 1162 0
 6531 00bc 7F9DF800 		cmpw 7,29,31
 6532 00c0 40BE000C 		bne+ 7,.L518
 6533 00c4 48000024 		b .L478
 6534              	.LVL524:
 6535              	.L511:
 6536              		.loc 4 1163 0
 6537 00c8 7FDFF378 		mr 31,30
 6538              	.LVL525:
 6539              	.L518:
 6540              	.LBB3056:
 6541              	.LBB3057:
 6542              		.loc 12 112 0
 6543 00cc 83DF0000 		lwz 30,0(31)
 6544              	.LVL526:
 6545              	.LBB3058:
 6546              	.LBB3059:
 6547              		.loc 4 1532 0
 6548 00d0 7FE3FB78 		mr 3,31
 6549 00d4 48000001 		bl _ZNSt8__detail15_List_node_base9_M_unhookEv
 6550              	.LVL527:
 6551              	.LBB3060:
 6552              	.LBB3061:
 6553              	.LBB3062:
 6554              		.loc 6 98 0
 6555 00d8 7FE3FB78 		mr 3,31
 6556 00dc 48000001 		bl _ZdlPv
 6557              	.LVL528:
 6558              	.LBE3062:
 6559              	.LBE3061:
 6560              	.LBE3060:
 6561              	.LBE3059:
 6562              	.LBE3058:
 6563              	.LBE3057:
 6564              	.LBE3056:
 6565              		.loc 4 1162 0
 6566 00e0 7F9DF000 		cmpw 7,29,30
 6567 00e4 409EFFE4 		bne+ 7,.L511
 6568              	.LVL529:
 6569              	.L478:
 6570              	.LBE3055:
 6571              	.LBE3054:
 6572              	.LBB3063:
 6573              	.LBB3064:
 6574              	.LBB3065:
 6575              		.loc 1 343 0
 6576 00e8 813C0000 		lwz 9,0(28)
 6577 00ec 7F83E378 		mr 3,28
 6578 00f0 8009000C 		lwz 0,12(9)
 6579 00f4 7C0903A6 		mtctr 0
 6580              	.LEHB56:
 6581 00f8 4E800421 		bctrl
 6582              	.LEHE56:
 6583              	.LBE3065:
 6584              	.LBE3064:
 6585              	.LBE3063:
 6586              	.LBE3070:
 6587              	.LBE3035:
 6588              	.LBB3072:
 6589              	.LBB3073:
 6590              	.LBB3074:
 6591              	.LBB3075:
 6592              	.LBB3076:
 6593              	.LBB3077:
 6594              		.loc 12 70 0
 6595 00fc 807C0004 		lwz 3,4(28)
 6596              	.LVL530:
 6597              		.loc 12 71 0
 6598 0100 7F83E800 		cmpw 7,3,29
 6599 0104 40BE000C 		bne+ 7,.L520
 6600 0108 48000018 		b .L496
 6601              	.LVL531:
 6602              	.L512:
 6603              		.loc 12 74 0
 6604 010c 7FE3FB78 		mr 3,31
 6605              	.LVL532:
 6606              	.L520:
 6607              	.LBB3078:
 6608 0110 83E30000 		lwz 31,0(3)
 6609              	.LVL533:
 6610              	.LBB3079:
 6611              	.LBB3080:
 6612              	.LBB3081:
 6613              		.loc 6 98 0
 6614 0114 48000001 		bl _ZdlPv
 6615              	.LVL534:
 6616              	.LBE3081:
 6617              	.LBE3080:
 6618              	.LBE3079:
 6619              	.LBE3078:
 6620              		.loc 12 71 0
 6621 0118 7F9FE800 		cmpw 7,31,29
 6622 011c 409EFFF0 		bne+ 7,.L512
 6623              	.LVL535:
 6624              	.L496:
 6625              	.LBE3077:
 6626              	.LBE3076:
 6627              	.LBE3075:
 6628              	.LBE3074:
 6629              	.LBE3073:
 6630              	.LBE3072:
 6631              	.LBB3082:
 6632              	.LBB3083:
 6633              	.LBB3084:
 6634              	.LBB3085:
 6635              	.LBB3086:
 6636              	.LBB3087:
 6637              		.loc 1 105 0
 6638 0120 3D200000 		lis 9,_ZTVN7sigslot15single_threadedE+8@ha
 6639              	.LBE3087:
 6640              	.LBE3086:
 6641              	.LBE3085:
 6642              	.LBE3084:
 6643              	.LBE3083:
 6644              	.LBE3082:
 6645              	.LBE3118:
 6646              	.LBE3123:
 6647              	.LBE3128:
 6648              	.LBE3133:
 6649              		.loc 1 2305 0
 6650 0124 83A1001C 		lwz 29,28(1)
 6651              	.LVL536:
 6652              	.LBB3134:
 6653              	.LBB3129:
 6654              	.LBB3124:
 6655              	.LBB3119:
 6656              	.LBB3098:
 6657              	.LBB3096:
 6658              	.LBB3094:
 6659              	.LBB3092:
 6660              	.LBB3090:
 6661              	.LBB3088:
 6662              		.loc 1 105 0
 6663 0128 38090008 		la 0,_ZTVN7sigslot15single_threadedE+8@l(9)
 6664              	.LBE3088:
 6665              	.LBE3090:
 6666              	.LBE3092:
 6667              	.LBE3094:
 6668              	.LBE3096:
 6669              	.LBE3098:
 6670              	.LBE3119:
 6671              	.LBE3124:
 6672              	.LBE3129:
 6673              	.LBE3134:
 6674              		.loc 1 2305 0
 6675 012c 83C10020 		lwz 30,32(1)
 6676              	.LBB3135:
 6677              	.LBB3130:
 6678              	.LBB3125:
 6679              	.LBB3120:
 6680              	.LBB3099:
 6681              	.LBB3097:
 6682              	.LBB3095:
 6683              	.LBB3093:
 6684              	.LBB3091:
 6685              	.LBB3089:
 6686              		.loc 1 105 0
 6687 0130 901C0000 		stw 0,0(28)
 6688              	.LBE3089:
 6689              	.LBE3091:
 6690              	.LBE3093:
 6691              	.LBE3095:
 6692              	.LBE3097:
 6693              	.LBE3099:
 6694              	.LBE3120:
 6695              	.LBE3125:
 6696              	.LBE3130:
 6697              	.LBE3135:
 6698              		.loc 1 2305 0
 6699 0134 8001002C 		lwz 0,44(1)
 6700 0138 83810018 		lwz 28,24(1)
 6701              	.LVL537:
 6702 013c 7C0803A6 		mtlr 0
 6703 0140 83E10024 		lwz 31,36(1)
 6704 0144 38210028 		addi 1,1,40
 6705              		.cfi_remember_state
 6706              	.LCFI77:
 6707              		.cfi_def_cfa_offset 0
 6708              		.cfi_restore 31
 6709              		.cfi_restore 30
 6710              		.cfi_restore 29
 6711              		.cfi_restore 28
 6712 0148 4E800020 		blr
 6713              	.LVL538:
 6714              	.L514:
 6715              	.LCFI78:
 6716              		.cfi_restore_state
 6717 014c 7C7F1B78 		mr 31,3
 6718              	.L488:
 6719              	.LBB3136:
 6720              	.LBB3131:
 6721              	.LBB3126:
 6722              	.LBB3121:
 6723              	.LBB3100:
 6724              	.LBB3101:
 6725              	.LBB3102:
 6726              	.LBB3103:
 6727              	.LBB3104:
 6728              	.LBB3105:
 6729              		.loc 12 70 0
 6730 0150 807C0004 		lwz 3,4(28)
 6731              	.LVL539:
 6732              		.loc 12 71 0
 6733 0154 7F83E800 		cmpw 7,3,29
 6734 0158 419E0038 		beq- 7,.L505
 6735              	.LVL540:
 6736              	.L521:
 6737              	.LBB3106:
 6738              		.loc 12 74 0
 6739 015c 83C30000 		lwz 30,0(3)
 6740              	.LVL541:
 6741              	.LBB3107:
 6742              	.LBB3108:
 6743              	.LBB3109:
 6744              		.loc 6 98 0
 6745 0160 48000001 		bl _ZdlPv
 6746              	.LVL542:
 6747              	.LBE3109:
 6748              	.LBE3108:
 6749              	.LBE3107:
 6750              	.LBE3106:
 6751              		.loc 12 71 0
 6752 0164 7F9EE800 		cmpw 7,30,29
 6753 0168 419E0028 		beq- 7,.L505
 6754              		.loc 12 74 0
 6755 016c 7FC3F378 		mr 3,30
 6756 0170 4BFFFFEC 		b .L521
 6757              	.LVL543:
 6758              	.L515:
 6759              	.LBE3105:
 6760              	.LBE3104:
 6761              	.LBE3103:
 6762              	.LBE3102:
 6763              	.LBE3101:
 6764              	.LBE3100:
 6765              	.LBB3110:
 6766              	.LBB3071:
 6767              	.LBB3066:
 6768              	.LBB3067:
 6769              	.LBB3068:
 6770              		.loc 1 343 0
 6771 0174 813C0000 		lwz 9,0(28)
 6772 0178 7C7F1B78 		mr 31,3
 6773              	.LVL544:
 6774 017c 7F83E378 		mr 3,28
 6775 0180 8009000C 		lwz 0,12(9)
 6776 0184 7C0903A6 		mtctr 0
 6777 0188 4E800421 		bctrl
 6778 018c 4BFFFFC4 		b .L488
 6779              	.LVL545:
 6780              	.L505:
 6781              	.LBE3068:
 6782              	.LBE3067:
 6783              	.LBE3066:
 6784              	.LBE3071:
 6785              	.LBE3110:
 6786              	.LBB3111:
 6787              	.LBB3112:
 6788              	.LBB3113:
 6789              	.LBB3114:
 6790              	.LBB3115:
 6791              	.LBB3116:
 6792              		.loc 1 105 0
 6793 0190 3D200000 		lis 9,_ZTVN7sigslot15single_threadedE+8@ha
 6794 0194 7FE3FB78 		mr 3,31
 6795 0198 38090008 		la 0,_ZTVN7sigslot15single_threadedE+8@l(9)
 6796 019c 901C0000 		stw 0,0(28)
 6797              	.LEHB57:
 6798 01a0 48000001 		bl _Unwind_Resume
 6799              	.LEHE57:
 6800              	.LBE3116:
 6801              	.LBE3115:
 6802              	.LBE3114:
 6803              	.LBE3113:
 6804              	.LBE3112:
 6805              	.LBE3111:
 6806              	.LBE3121:
 6807              	.LBE3126:
 6808              	.LBE3131:
 6809              	.LBE3136:
 6810              		.cfi_endproc
 6811              	.LFE1585:
 6812              		.section	.gcc_except_table
 6813              	.LLSDA1585:
 6814 0142 FF       		.byte	0xff
 6815 0143 FF       		.byte	0xff
 6816 0144 01       		.byte	0x1
 6817 0145 15       		.uleb128 .LLSDACSE1585-.LLSDACSB1585
 6818              	.LLSDACSB1585:
 6819 0146 30       		.uleb128 .LEHB54-.LFB1585
 6820 0147 04       		.uleb128 .LEHE54-.LEHB54
 6821 0148 CC02     		.uleb128 .L514-.LFB1585
 6822 014a 00       		.uleb128 0
 6823 014b 54       		.uleb128 .LEHB55-.LFB1585
 6824 014c 58       		.uleb128 .LEHE55-.LEHB55
 6825 014d F402     		.uleb128 .L515-.LFB1585
 6826 014f 00       		.uleb128 0
 6827 0150 F801     		.uleb128 .LEHB56-.LFB1585
 6828 0152 04       		.uleb128 .LEHE56-.LEHB56
 6829 0153 CC02     		.uleb128 .L514-.LFB1585
 6830 0155 00       		.uleb128 0
 6831 0156 A003     		.uleb128 .LEHB57-.LFB1585
 6832 0158 04       		.uleb128 .LEHE57-.LEHB57
 6833 0159 00       		.uleb128 0
 6834 015a 00       		.uleb128 0
 6835              	.LLSDACSE1585:
 6836              		.section	.text._ZN7sigslot7signal3IP10GuiElementiiNS_15single_threadedEED2Ev,"axG",@progbits,_ZN7s
 6837              		.size	_ZN7sigslot7signal3IP10GuiElementiiNS_15single_threadedEED2Ev, .-_ZN7sigslot7signal3IP10GuiE
 6838              		.section	.text._ZN7sigslot13_signal_base2IP10GuiElementbNS_15single_threadedEED0Ev,"axG",@progbits
 6839              		.align 2
 6840              		.weak	_ZN7sigslot13_signal_base2IP10GuiElementbNS_15single_threadedEED0Ev
 6841              		.type	_ZN7sigslot13_signal_base2IP10GuiElementbNS_15single_threadedEED0Ev, @function
 6842              	_ZN7sigslot13_signal_base2IP10GuiElementbNS_15single_threadedEED0Ev:
 6843              	.LFB1631:
 6844              		.loc 1 823 0
 6845              		.cfi_startproc
 6846              		.cfi_personality 0,__gxx_personality_v0
 6847              		.cfi_lsda 0,.LLSDA1631
 6848              	.LVL546:
 6849 0000 7C0802A6 		mflr 0
 6850 0004 9421FFD8 		stwu 1,-40(1)
 6851              	.LCFI79:
 6852              		.cfi_def_cfa_offset 40
 6853              		.cfi_register 65, 0
 6854              	.LBB3232:
 6855              	.LBB3233:
 6856              	.LBB3234:
 6857              		.loc 1 826 0
 6858 0008 3D200000 		lis 9,_ZTVN7sigslot13_signal_base2IP10GuiElementbNS_15single_threadedEEE+8@ha
 6859              	.LBE3234:
 6860              	.LBE3233:
 6861              	.LBE3232:
 6862              		.loc 1 823 0
 6863 000c 93810018 		stw 28,24(1)
 6864 0010 7C7C1B78 		mr 28,3
 6865              		.cfi_offset 28, -16
 6866              	.LVL547:
 6867 0014 9001002C 		stw 0,44(1)
 6868              	.LBB3319:
 6869              	.LBB3315:
 6870              	.LBB3311:
 6871              		.loc 1 826 0
 6872 0018 38090008 		la 0,_ZTVN7sigslot13_signal_base2IP10GuiElementbNS_15single_threadedEEE+8@l(9)
 6873              		.cfi_offset 65, 4
 6874              	.LBE3311:
 6875              	.LBE3315:
 6876              	.LBE3319:
 6877              		.loc 1 823 0
 6878 001c 93A1001C 		stw 29,28(1)
 6879 0020 3BA30004 		addi 29,3,4
 6880              		.cfi_offset 29, -12
 6881 0024 93C10020 		stw 30,32(1)
 6882 0028 93E10024 		stw 31,36(1)
 6883              	.LBB3320:
 6884              	.LBB3316:
 6885              	.LBB3312:
 6886              		.loc 1 826 0
 6887 002c 90030000 		stw 0,0(3)
 6888              	.LVL548:
 6889              	.LEHB58:
 6890              	.LBB3235:
 6891              	.LBB3236:
 6892              	.LBB3237:
 6893              	.LBB3238:
 6894              		.loc 1 338 0
 6895              		.cfi_offset 31, -4
 6896              		.cfi_offset 30, -8
 6897 0030 48000001 		bl _ZN7sigslot15single_threaded4lockEv
 6898              	.LEHE58:
 6899              	.LVL549:
 6900              	.LBE3238:
 6901              	.LBE3237:
 6902              	.LBE3236:
 6903              		.loc 3 160 0
 6904 0034 7F9DE378 		mr 29,28
 6905              	.LVL550:
 6906 0038 87FD0004 		lwzu 31,4(29)
 6907              	.LVL551:
 6908              	.LBB3269:
 6909              		.loc 1 834 0
 6910 003c 7F9FE800 		cmpw 7,31,29
 6911 0040 419E00A8 		beq- 7,.L523
 6912              	.LVL552:
 6913              	.L561:
 6914              		.loc 1 836 0
 6915 0044 807F0008 		lwz 3,8(31)
 6916 0048 81230000 		lwz 9,0(3)
 6917 004c 80090008 		lwz 0,8(9)
 6918 0050 7C0903A6 		mtctr 0
 6919              	.LEHB59:
 6920 0054 4E800421 		bctrl
 6921              	.LBB3239:
 6922              	.LBB3240:
 6923              	.LBB3241:
 6924              	.LBB3242:
 6925              		.loc 1 338 0
 6926 0058 81230000 		lwz 9,0(3)
 6927              	.LBE3242:
 6928              	.LBE3241:
 6929              	.LBE3240:
 6930              	.LBE3239:
 6931              		.loc 1 836 0
 6932 005c 7C7E1B78 		mr 30,3
 6933              	.LVL553:
 6934 0060 93810008 		stw 28,8(1)
 6935              	.LVL554:
 6936              	.LBB3251:
 6937              	.LBB3250:
 6938              	.LBB3244:
 6939              	.LBB3243:
 6940              		.loc 1 338 0
 6941 0064 80090008 		lwz 0,8(9)
 6942 0068 7C0903A6 		mtctr 0
 6943 006c 4E800421 		bctrl
 6944              	.LVL555:
 6945              	.LBE3243:
 6946              	.LBE3244:
 6947              	.LBB3245:
 6948              	.LBB3246:
 6949              		.loc 11 528 0
 6950 0070 387E0004 		addi 3,30,4
 6951 0074 38810008 		addi 4,1,8
 6952 0078 48000001 		bl _ZNSt8_Rb_treeIPN7sigslot12_signal_baseINS0_15single_threadedEEES4_St9_IdentityIS4_ESt4lessIS4_
 6953              	.LVL556:
 6954              	.LBE3246:
 6955              	.LBE3245:
 6956              	.LBB3247:
 6957              	.LBB3248:
 6958              	.LBB3249:
 6959              		.loc 1 343 0
 6960 007c 813E0000 		lwz 9,0(30)
 6961 0080 7FC3F378 		mr 3,30
 6962 0084 8009000C 		lwz 0,12(9)
 6963 0088 7C0903A6 		mtctr 0
 6964 008c 4E800421 		bctrl
 6965              	.LVL557:
 6966              	.LBE3249:
 6967              	.LBE3248:
 6968              	.LBE3247:
 6969              	.LBE3250:
 6970              	.LBE3251:
 6971              		.loc 1 837 0
 6972 0090 807F0008 		lwz 3,8(31)
 6973 0094 2F830000 		cmpwi 7,3,0
 6974 0098 419E0014 		beq- 7,.L525
 6975 009c 81230000 		lwz 9,0(3)
 6976 00a0 80090004 		lwz 0,4(9)
 6977 00a4 7C0903A6 		mtctr 0
 6978 00a8 4E800421 		bctrl
 6979              	.LEHE59:
 6980              	.L525:
 6981              	.LVL558:
 6982              	.LBB3252:
 6983              	.LBB3253:
 6984              		.loc 4 234 0
 6985 00ac 83FF0000 		lwz 31,0(31)
 6986              	.LVL559:
 6987              	.LBE3253:
 6988              	.LBE3252:
 6989              		.loc 1 834 0
 6990 00b0 7F9DF800 		cmpw 7,29,31
 6991 00b4 409EFF90 		bne+ 7,.L561
 6992              	.LBE3269:
 6993              		.loc 3 160 0
 6994 00b8 83FC0004 		lwz 31,4(28)
 6995              	.LVL560:
 6996              	.LBB3270:
 6997              	.LBB3254:
 6998              	.LBB3255:
 6999              		.loc 4 1162 0
 7000 00bc 7F9DF800 		cmpw 7,29,31
 7001 00c0 40BE000C 		bne+ 7,.L563
 7002 00c4 48000024 		b .L523
 7003              	.LVL561:
 7004              	.L556:
 7005              		.loc 4 1163 0
 7006 00c8 7FDFF378 		mr 31,30
 7007              	.LVL562:
 7008              	.L563:
 7009              	.LBB3256:
 7010              	.LBB3257:
 7011              		.loc 12 112 0
 7012 00cc 83DF0000 		lwz 30,0(31)
 7013              	.LVL563:
 7014              	.LBB3258:
 7015              	.LBB3259:
 7016              		.loc 4 1532 0
 7017 00d0 7FE3FB78 		mr 3,31
 7018 00d4 48000001 		bl _ZNSt8__detail15_List_node_base9_M_unhookEv
 7019              	.LVL564:
 7020              	.LBB3260:
 7021              	.LBB3261:
 7022              	.LBB3262:
 7023              		.loc 6 98 0
 7024 00d8 7FE3FB78 		mr 3,31
 7025 00dc 48000001 		bl _ZdlPv
 7026              	.LVL565:
 7027              	.LBE3262:
 7028              	.LBE3261:
 7029              	.LBE3260:
 7030              	.LBE3259:
 7031              	.LBE3258:
 7032              	.LBE3257:
 7033              	.LBE3256:
 7034              		.loc 4 1162 0
 7035 00e0 7F9DF000 		cmpw 7,29,30
 7036 00e4 409EFFE4 		bne+ 7,.L556
 7037              	.LVL566:
 7038              	.L523:
 7039              	.LBE3255:
 7040              	.LBE3254:
 7041              	.LBB3263:
 7042              	.LBB3264:
 7043              	.LBB3265:
 7044              		.loc 1 343 0
 7045 00e8 813C0000 		lwz 9,0(28)
 7046 00ec 7F83E378 		mr 3,28
 7047 00f0 8009000C 		lwz 0,12(9)
 7048 00f4 7C0903A6 		mtctr 0
 7049              	.LEHB60:
 7050 00f8 4E800421 		bctrl
