   1              		.file	"gui_element.cpp"
   2              		.section	".text"
   3              	.Ltext0:
   4              		.section	.text._ZN7sigslot15single_threadedD2Ev,"axG",@progbits,_ZN7sigslot15single_threadedD5Ev,c
   5              		.align 2
   6              		.weak	_ZN7sigslot15single_threadedD2Ev
   7              		.type	_ZN7sigslot15single_threadedD2Ev, @function
   8              	_ZN7sigslot15single_threadedD2Ev:
   9              	.LFB1148:
  10              		.file 1 "d:/Projects/SaveGameManager/savegame-manager-gx/trunk/source/GUI/../sigslot.h"
  11              		.loc 1 104 0
  12              		.cfi_startproc
  13              	.LVL0:
  14              	.LBB1414:
  15              		.loc 1 105 0
  16 0000 3D200000 		lis 9,_ZTVN7sigslot15single_threadedE+8@ha
  17              	.LBE1414:
  18              		.loc 1 107 0
  19              	.LBB1415:
  20              		.loc 1 105 0
  21 0004 38090008 		la 0,_ZTVN7sigslot15single_threadedE+8@l(9)
  22 0008 90030000 		stw 0,0(3)
  23              	.LBE1415:
  24              		.loc 1 107 0
  25 000c 4E800020 		blr
  26              		.cfi_endproc
  27              	.LFE1148:
  28              		.size	_ZN7sigslot15single_threadedD2Ev, .-_ZN7sigslot15single_threadedD2Ev
  29              		.section	.text._ZN7sigslot15single_threaded4lockEv,"axG",@progbits,_ZN7sigslot15single_threaded4lo
  30              		.align 2
  31              		.weak	_ZN7sigslot15single_threaded4lockEv
  32              		.type	_ZN7sigslot15single_threaded4lockEv, @function
  33              	_ZN7sigslot15single_threaded4lockEv:
  34              	.LFB1151:
  35              		.loc 1 109 0
  36              		.cfi_startproc
  37              	.LVL1:
  38              		.loc 1 112 0
  39 0000 4E800020 		blr
  40              		.cfi_endproc
  41              	.LFE1151:
  42              		.size	_ZN7sigslot15single_threaded4lockEv, .-_ZN7sigslot15single_threaded4lockEv
  43              		.section	.text._ZN7sigslot15single_threaded6unlockEv,"axG",@progbits,_ZN7sigslot15single_threaded6
  44              		.align 2
  45              		.weak	_ZN7sigslot15single_threaded6unlockEv
  46              		.type	_ZN7sigslot15single_threaded6unlockEv, @function
  47              	_ZN7sigslot15single_threaded6unlockEv:
  48              	.LFB1152:
  49              		.loc 1 114 0
  50              		.cfi_startproc
  51              	.LVL2:
  52              		.loc 1 117 0
  53 0000 4E800020 		blr
  54              		.cfi_endproc
  55              	.LFE1152:
  56              		.size	_ZN7sigslot15single_threaded6unlockEv, .-_ZN7sigslot15single_threaded6unlockEv
  57              		.section	.text._ZN10GuiElement9SetParentEPS_,"axG",@progbits,_ZN10GuiElement9SetParentEPS_,comdat
  58              		.align 2
  59              		.weak	_ZN10GuiElement9SetParentEPS_
  60              		.type	_ZN10GuiElement9SetParentEPS_, @function
  61              	_ZN10GuiElement9SetParentEPS_:
  62              	.LFB1384:
  63              		.file 2 "d:/Projects/SaveGameManager/savegame-manager-gx/trunk/source/GUI/gui_element.h"
  64              		.loc 2 92 0
  65              		.cfi_startproc
  66              	.LVL3:
  67              		.loc 2 92 0
  68 0000 90830060 		stw 4,96(3)
  69 0004 4E800020 		blr
  70              		.cfi_endproc
  71              	.LFE1384:
  72              		.size	_ZN10GuiElement9SetParentEPS_, .-_ZN10GuiElement9SetParentEPS_
  73              		.section	.text._ZN10GuiElement9GetParentEv,"axG",@progbits,_ZN10GuiElement9GetParentEv,comdat
  74              		.align 2
  75              		.weak	_ZN10GuiElement9GetParentEv
  76              		.type	_ZN10GuiElement9GetParentEv, @function
  77              	_ZN10GuiElement9GetParentEv:
  78              	.LFB1385:
  79              		.loc 2 95 0
  80              		.cfi_startproc
  81              	.LVL4:
  82              		.loc 2 95 0
  83 0000 80630060 		lwz 3,96(3)
  84              	.LVL5:
  85 0004 4E800020 		blr
  86              		.cfi_endproc
  87              	.LFE1385:
  88              		.size	_ZN10GuiElement9GetParentEv, .-_ZN10GuiElement9GetParentEv
  89              		.section	.text._ZN10GuiElement12GetZPositionEv,"axG",@progbits,_ZN10GuiElement12GetZPositionEv,com
  90              		.align 2
  91              		.weak	_ZN10GuiElement12GetZPositionEv
  92              		.type	_ZN10GuiElement12GetZPositionEv, @function
  93              	_ZN10GuiElement12GetZPositionEv:
  94              	.LFB1386:
  95              		.loc 2 106 0
  96              		.cfi_startproc
  97              	.LVL6:
  98 0000 7C0802A6 		mflr 0
  99 0004 9421FFF0 		stwu 1,-16(1)
 100              	.LCFI0:
 101              		.cfi_def_cfa_offset 16
 102              		.cfi_register 65, 0
 103 0008 93E1000C 		stw 31,12(1)
 104 000c 7C7F1B78 		mr 31,3
 105              		.cfi_offset 31, -4
 106 0010 90010014 		stw 0,20(1)
 107              	.LBB1416:
 108              		.loc 2 110 0
 109 0014 81630060 		lwz 11,96(3)
 110              		.loc 2 108 0
 111 0018 38600000 		li 3,0
 112              	.LVL7:
 113              		.loc 2 110 0
 114 001c 2F8B0000 		cmpwi 7,11,0
 115 0020 419E0018 		beq- 7,.L8
 116              		.cfi_offset 65, 4
 117              		.loc 2 111 0
 118 0024 812B0000 		lwz 9,0(11)
 119 0028 7D635B78 		mr 3,11
 120 002c 80090018 		lwz 0,24(9)
 121 0030 7C0903A6 		mtctr 0
 122 0034 4E800421 		bctrl
 123              	.LVL8:
 124              	.L8:
 125              		.loc 2 113 0
 126 0038 801F0034 		lwz 0,52(31)
 127              	.LBE1416:
 128              		.loc 2 114 0
 129 003c 83E1000C 		lwz 31,12(1)
 130              	.LVL9:
 131 0040 7C630214 		add 3,3,0
 132              	.LVL10:
 133 0044 80010014 		lwz 0,20(1)
 134 0048 38210010 		addi 1,1,16
 135              	.LCFI1:
 136              		.cfi_def_cfa_offset 0
 137              		.cfi_restore 31
 138 004c 7C0803A6 		mtlr 0
 139 0050 4E800020 		blr
 140              		.cfi_endproc
 141              	.LFE1386:
 142              		.size	_ZN10GuiElement12GetZPositionEv, .-_ZN10GuiElement12GetZPositionEv
 143              		.section	.text._ZN10GuiElement10GetLeftPosEv,"axG",@progbits,_ZN10GuiElement10GetLeftPosEv,comdat
 144              		.align 2
 145              		.weak	_ZN10GuiElement10GetLeftPosEv
 146              		.type	_ZN10GuiElement10GetLeftPosEv, @function
 147              	_ZN10GuiElement10GetLeftPosEv:
 148              	.LFB1387:
 149              		.loc 2 116 0
 150              		.cfi_startproc
 151              	.LVL11:
 152              		.loc 2 116 0
 153 0000 8063002C 		lwz 3,44(3)
 154              	.LVL12:
 155 0004 4E800020 		blr
 156              		.cfi_endproc
 157              	.LFE1387:
 158              		.size	_ZN10GuiElement10GetLeftPosEv, .-_ZN10GuiElement10GetLeftPosEv
 159              		.section	.text._ZN10GuiElement9GetTopPosEv,"axG",@progbits,_ZN10GuiElement9GetTopPosEv,comdat
 160              		.align 2
 161              		.weak	_ZN10GuiElement9GetTopPosEv
 162              		.type	_ZN10GuiElement9GetTopPosEv, @function
 163              	_ZN10GuiElement9GetTopPosEv:
 164              	.LFB1388:
 165              		.loc 2 118 0
 166              		.cfi_startproc
 167              	.LVL13:
 168              		.loc 2 118 0
 169 0000 80630030 		lwz 3,48(3)
 170              	.LVL14:
 171 0004 4E800020 		blr
 172              		.cfi_endproc
 173              	.LFE1388:
 174              		.size	_ZN10GuiElement9GetTopPosEv, .-_ZN10GuiElement9GetTopPosEv
 175              		.section	.text._ZN10GuiElement8GetWidthEv,"axG",@progbits,_ZN10GuiElement8GetWidthEv,comdat
 176              		.align 2
 177              		.weak	_ZN10GuiElement8GetWidthEv
 178              		.type	_ZN10GuiElement8GetWidthEv, @function
 179              	_ZN10GuiElement8GetWidthEv:
 180              	.LFB1389:
 181              		.loc 2 121 0
 182              		.cfi_startproc
 183              	.LVL15:
 184              		.loc 2 121 0
 185 0000 80630024 		lwz 3,36(3)
 186              	.LVL16:
 187 0004 4E800020 		blr
 188              		.cfi_endproc
 189              	.LFE1389:
 190              		.size	_ZN10GuiElement8GetWidthEv, .-_ZN10GuiElement8GetWidthEv
 191              		.section	.text._ZN10GuiElement9GetHeightEv,"axG",@progbits,_ZN10GuiElement9GetHeightEv,comdat
 192              		.align 2
 193              		.weak	_ZN10GuiElement9GetHeightEv
 194              		.type	_ZN10GuiElement9GetHeightEv, @function
 195              	_ZN10GuiElement9GetHeightEv:
 196              	.LFB1390:
 197              		.loc 2 124 0
 198              		.cfi_startproc
 199              	.LVL17:
 200              		.loc 2 124 0
 201 0000 80630028 		lwz 3,40(3)
 202              	.LVL18:
 203 0004 4E800020 		blr
 204              		.cfi_endproc
 205              	.LFE1390:
 206              		.size	_ZN10GuiElement9GetHeightEv, .-_ZN10GuiElement9GetHeightEv
 207              		.section	.text._ZN10GuiElement7SetSizeEii,"axG",@progbits,_ZN10GuiElement7SetSizeEii,comdat
 208              		.align 2
 209              		.weak	_ZN10GuiElement7SetSizeEii
 210              		.type	_ZN10GuiElement7SetSizeEii, @function
 211              	_ZN10GuiElement7SetSizeEii:
 212              	.LFB1391:
 213              		.loc 2 128 0
 214              		.cfi_startproc
 215              	.LVL19:
 216              		.loc 2 130 0
 217 0000 90830024 		stw 4,36(3)
 218              		.loc 2 132 0
 219              		.loc 2 131 0
 220 0004 90A30028 		stw 5,40(3)
 221              		.loc 2 132 0
 222 0008 4E800020 		blr
 223              		.cfi_endproc
 224              	.LFE1391:
 225              		.size	_ZN10GuiElement7SetSizeEii, .-_ZN10GuiElement7SetSizeEii
 226              		.section	.text._ZN10GuiElement10SetVisibleEb,"axG",@progbits,_ZN10GuiElement10SetVisibleEb,comdat
 227              		.align 2
 228              		.weak	_ZN10GuiElement10SetVisibleEb
 229              		.type	_ZN10GuiElement10SetVisibleEb, @function
 230              	_ZN10GuiElement10SetVisibleEb:
 231              	.LFB1392:
 232              		.loc 2 135 0
 233              		.cfi_startproc
 234              		.cfi_personality 0,__gxx_personality_v0
 235              		.cfi_lsda 0,.LLSDA1392
 236              	.LVL20:
 237 0000 7C0802A6 		mflr 0
 238 0004 9421FFE0 		stwu 1,-32(1)
 239              	.LCFI2:
 240              		.cfi_def_cfa_offset 32
 241              		.cfi_register 65, 0
 242 0008 9361000C 		stw 27,12(1)
 243              	.LBB1417:
 244              	.LBB1418:
 245              		.loc 1 2270 0
 246 000c 3B630004 		addi 27,3,4
 247              		.cfi_offset 27, -20
 248              	.LBE1418:
 249              	.LBE1417:
 250              		.loc 2 135 0
 251 0010 90010024 		stw 0,36(1)
 252 0014 93C10018 		stw 30,24(1)
 253 0018 7C7E1B78 		mr 30,3
 254              		.cfi_offset 30, -8
 255              		.cfi_offset 65, 4
 256              	.LBB1441:
 257              	.LBB1435:
 258              	.LBB1419:
 259              	.LBB1420:
 260              		.loc 1 338 0
 261 001c 81230004 		lwz 9,4(3)
 262 0020 7F63DB78 		mr 3,27
 263              	.LVL21:
 264              	.LBE1420:
 265              	.LBE1419:
 266              	.LBE1435:
 267              	.LBE1441:
 268              		.loc 2 135 0
 269 0024 93810010 		stw 28,16(1)
 270 0028 7C9C2378 		mr 28,4
 271              		.cfi_offset 28, -16
 272              	.LBB1442:
 273              	.LBB1436:
 274              	.LBB1424:
 275              	.LBB1421:
 276              		.loc 1 338 0
 277 002c 80090008 		lwz 0,8(9)
 278              	.LBE1421:
 279              	.LBE1424:
 280              	.LBE1436:
 281              	.LBE1442:
 282              		.loc 2 135 0
 283 0030 93A10014 		stw 29,20(1)
 284              	.LBB1443:
 285              		.file 3 "d:/Projects/SaveGameManager/savegame-manager-gx/trunk/source/GUI/gui_element.cpp"
 286              		.loc 3 394 0
 287 0034 7FDDF378 		mr 29,30
 288              		.cfi_offset 29, -12
 289              	.LBE1443:
 290              		.loc 2 135 0
 291 0038 93E1001C 		stw 31,28(1)
 292              	.LBB1444:
 293              	.LBB1437:
 294              	.LBB1425:
 295              	.LBB1422:
 296              		.loc 1 338 0
 297 003c 7C0903A6 		mtctr 0
 298              	.LBE1422:
 299              	.LBE1425:
 300              	.LBE1437:
 301              	.LBE1444:
 302              		.loc 2 137 0
 303 0040 989E001D 		stb 4,29(30)
 304              	.LVL22:
 305              	.LEHB0:
 306              	.LBB1445:
 307              	.LBB1438:
 308              	.LBB1426:
 309              	.LBB1423:
 310              		.loc 1 338 0
 311              		.cfi_offset 31, -4
 312 0044 4E800421 		bctrl
 313              	.LEHE0:
 314              	.LVL23:
 315              	.LBE1423:
 316              	.LBE1426:
 317              	.LBE1438:
 318              		.loc 3 394 0
 319 0048 87FD0008 		lwzu 31,8(29)
 320              	.LVL24:
 321              	.LBB1439:
 322              		.loc 1 2274 0
 323 004c 7F9FE800 		cmpw 7,31,29
 324 0050 419E002C 		beq- 7,.L17
 325              	.LVL25:
 326              	.L24:
 327              		.loc 1 2279 0
 328 0054 807F0008 		lwz 3,8(31)
 329 0058 7FC4F378 		mr 4,30
 330 005c 7F85E378 		mr 5,28
 331              	.LBB1427:
 332              	.LBB1428:
 333              		.file 4 "d:\\devkitpro\\devkitppc\\bin\\../lib/gcc/powerpc-eabi/4.6.3/../../../../powerpc-eabi/inc
 334              		.loc 4 234 0
 335 0060 83FF0000 		lwz 31,0(31)
 336              	.LVL26:
 337              	.LBE1428:
 338              	.LBE1427:
 339              		.loc 1 2279 0
 340 0064 81230000 		lwz 9,0(3)
 341 0068 8009000C 		lwz 0,12(9)
 342 006c 7C0903A6 		mtctr 0
 343              	.LEHB1:
 344 0070 4E800421 		bctrl
 345              	.LEHE1:
 346              	.LVL27:
 347              		.loc 1 2274 0
 348 0074 7F9DF800 		cmpw 7,29,31
 349 0078 409EFFDC 		bne+ 7,.L24
 350              	.LVL28:
 351              	.L17:
 352              	.LBB1429:
 353              	.LBB1430:
 354              	.LBB1431:
 355              		.loc 1 343 0
 356 007c 813E0004 		lwz 9,4(30)
 357 0080 7F63DB78 		mr 3,27
 358 0084 8009000C 		lwz 0,12(9)
 359 0088 7C0903A6 		mtctr 0
 360              	.LEHB2:
 361 008c 4E800421 		bctrl
 362              	.LEHE2:
 363              	.LBE1431:
 364              	.LBE1430:
 365              	.LBE1429:
 366              	.LBE1439:
 367              	.LBE1445:
 368              		.loc 2 139 0
 369 0090 80010024 		lwz 0,36(1)
 370 0094 8361000C 		lwz 27,12(1)
 371              	.LVL29:
 372 0098 7C0803A6 		mtlr 0
 373 009c 83810010 		lwz 28,16(1)
 374              	.LVL30:
 375 00a0 83A10014 		lwz 29,20(1)
 376 00a4 83C10018 		lwz 30,24(1)
 377              	.LVL31:
 378 00a8 83E1001C 		lwz 31,28(1)
 379              	.LVL32:
 380 00ac 38210020 		addi 1,1,32
 381              		.cfi_remember_state
 382              	.LCFI3:
 383              		.cfi_def_cfa_offset 0
 384              		.cfi_restore 31
 385              		.cfi_restore 30
 386              		.cfi_restore 29
 387              		.cfi_restore 28
 388              		.cfi_restore 27
 389 00b0 4E800020 		blr
 390              	.LVL33:
 391              	.L23:
 392              	.LCFI4:
 393              		.cfi_restore_state
 394              	.LBB1446:
 395              	.LBB1440:
 396              	.LBB1432:
 397              	.LBB1433:
 398              	.LBB1434:
 399              		.loc 1 343 0
 400 00b4 813E0004 		lwz 9,4(30)
 401 00b8 7C7F1B78 		mr 31,3
 402              	.LVL34:
 403 00bc 7F63DB78 		mr 3,27
 404 00c0 8009000C 		lwz 0,12(9)
 405 00c4 7C0903A6 		mtctr 0
 406 00c8 4E800421 		bctrl
 407 00cc 7FE3FB78 		mr 3,31
 408              	.LEHB3:
 409 00d0 48000001 		bl _Unwind_Resume
 410              	.LEHE3:
 411              	.LBE1434:
 412              	.LBE1433:
 413              	.LBE1432:
 414              	.LBE1440:
 415              	.LBE1446:
 416              		.cfi_endproc
 417              	.LFE1392:
 418              		.globl __gxx_personality_v0
 419              		.section	.gcc_except_table,"a",@progbits
 420              	.LLSDA1392:
 421 0000 FF       		.byte	0xff
 422 0001 FF       		.byte	0xff
 423 0002 01       		.byte	0x1
 424 0003 13       		.uleb128 .LLSDACSE1392-.LLSDACSB1392
 425              	.LLSDACSB1392:
 426 0004 44       		.uleb128 .LEHB0-.LFB1392
 427 0005 04       		.uleb128 .LEHE0-.LEHB0
 428 0006 00       		.uleb128 0
 429 0007 00       		.uleb128 0
 430 0008 70       		.uleb128 .LEHB1-.LFB1392
 431 0009 04       		.uleb128 .LEHE1-.LEHB1
 432 000a B401     		.uleb128 .L23-.LFB1392
 433 000c 00       		.uleb128 0
 434 000d 8C01     		.uleb128 .LEHB2-.LFB1392
 435 000f 04       		.uleb128 .LEHE2-.LEHB2
 436 0010 00       		.uleb128 0
 437 0011 00       		.uleb128 0
 438 0012 D001     		.uleb128 .LEHB3-.LFB1392
 439 0014 04       		.uleb128 .LEHE3-.LEHB3
 440 0015 00       		.uleb128 0
 441 0016 00       		.uleb128 0
 442              	.LLSDACSE1392:
 443              		.section	.text._ZN10GuiElement10SetVisibleEb,"axG",@progbits,_ZN10GuiElement10SetVisibleEb,comdat
 444              		.size	_ZN10GuiElement10SetVisibleEb, .-_ZN10GuiElement10SetVisibleEb
 445              		.section	.text._ZN10GuiElement9IsVisibleEv,"axG",@progbits,_ZN10GuiElement9IsVisibleEv,comdat
 446              		.align 2
 447              		.weak	_ZN10GuiElement9IsVisibleEv
 448              		.type	_ZN10GuiElement9IsVisibleEv, @function
 449              	_ZN10GuiElement9IsVisibleEv:
 450              	.LFB1393:
 451              		.loc 2 142 0
 452              		.cfi_startproc
 453              	.LVL35:
 454              		.loc 2 142 0
 455 0000 8863001D 		lbz 3,29(3)
 456              	.LVL36:
 457 0004 4E800020 		blr
 458              		.cfi_endproc
 459              	.LFE1393:
 460              		.size	_ZN10GuiElement9IsVisibleEv, .-_ZN10GuiElement9IsVisibleEv
 461              		.section	.text._ZN10GuiElement12IsSelectableEv,"axG",@progbits,_ZN10GuiElement12IsSelectableEv,com
 462              		.align 2
 463              		.weak	_ZN10GuiElement12IsSelectableEv
 464              		.type	_ZN10GuiElement12IsSelectableEv, @function
 465              	_ZN10GuiElement12IsSelectableEv:
 466              	.LFB1394:
 467              		.loc 2 145 0
 468              		.cfi_startproc
 469              	.LVL37:
 470              		.loc 2 149 0
 471 0000 80030048 		lwz 0,72(3)
 472 0004 39200000 		li 9,0
 473 0008 2F800004 		cmpwi 7,0,4
 474 000c 419E0010 		beq- 7,.L27
 475              		.loc 2 149 0 is_stmt 0 discriminator 1
 476 0010 2F800002 		cmpwi 7,0,2
 477 0014 419E0008 		beq- 7,.L27
 478              		.loc 2 149 0 discriminator 3
 479 0018 8923001E 		lbz 9,30(3)
 480              	.L27:
 481              		.loc 2 150 0 is_stmt 1 discriminator 5
 482 001c 7D234B78 		mr 3,9
 483              	.LVL38:
 484 0020 4E800020 		blr
 485              		.cfi_endproc
 486              	.LFE1394:
 487              		.size	_ZN10GuiElement12IsSelectableEv, .-_ZN10GuiElement12IsSelectableEv
 488              		.section	.text._ZN10GuiElement11IsClickableEv,"axG",@progbits,_ZN10GuiElement11IsClickableEv,comda
 489              		.align 2
 490              		.weak	_ZN10GuiElement11IsClickableEv
 491              		.type	_ZN10GuiElement11IsClickableEv, @function
 492              	_ZN10GuiElement11IsClickableEv:
 493              	.LFB1395:
 494              		.loc 2 153 0
 495              		.cfi_startproc
 496              	.LVL39:
 497              		.loc 2 158 0
 498 0000 80030048 		lwz 0,72(3)
 499 0004 39200000 		li 9,0
 500 0008 2F800004 		cmpwi 7,0,4
 501 000c 419E0018 		beq- 7,.L31
 502              		.loc 2 158 0 is_stmt 0 discriminator 1
 503 0010 2F800002 		cmpwi 7,0,2
 504 0014 419E0010 		beq- 7,.L31
 505              		.loc 2 158 0 discriminator 3
 506 0018 2F800003 		cmpwi 7,0,3
 507 001c 419E0008 		beq- 7,.L31
 508              		.loc 2 158 0 discriminator 4
 509 0020 8923001F 		lbz 9,31(3)
 510              	.L31:
 511              		.loc 2 159 0 is_stmt 1 discriminator 6
 512 0024 7D234B78 		mr 3,9
 513              	.LVL40:
 514 0028 4E800020 		blr
 515              		.cfi_endproc
 516              	.LFE1395:
 517              		.size	_ZN10GuiElement11IsClickableEv, .-_ZN10GuiElement11IsClickableEv
 518              		.section	.text._ZN10GuiElement10IsHoldableEv,"axG",@progbits,_ZN10GuiElement10IsHoldableEv,comdat
 519              		.align 2
 520              		.weak	_ZN10GuiElement10IsHoldableEv
 521              		.type	_ZN10GuiElement10IsHoldableEv, @function
 522              	_ZN10GuiElement10IsHoldableEv:
 523              	.LFB1396:
 524              		.loc 2 162 0
 525              		.cfi_startproc
 526              	.LVL41:
 527              		.loc 2 162 0
 528 0000 81230048 		lwz 9,72(3)
 529 0004 38000000 		li 0,0
 530 0008 2F890004 		cmpwi 7,9,4
 531 000c 419E0008 		beq- 7,.L36
 532              		.loc 2 162 0 is_stmt 0 discriminator 1
 533 0010 88030020 		lbz 0,32(3)
 534              	.L36:
 535              		.loc 2 162 0 discriminator 4
 536 0014 7C030378 		mr 3,0
 537              	.LVL42:
 538 0018 4E800020 		blr
 539              		.cfi_endproc
 540              	.LFE1396:
 541              		.size	_ZN10GuiElement10IsHoldableEv, .-_ZN10GuiElement10IsHoldableEv
 542              		.section	.text._ZN10GuiElement13SetSelectableEb,"axG",@progbits,_ZN10GuiElement13SetSelectableEb,c
 543              		.align 2
 544              		.weak	_ZN10GuiElement13SetSelectableEb
 545              		.type	_ZN10GuiElement13SetSelectableEb, @function
 546              	_ZN10GuiElement13SetSelectableEb:
 547              	.LFB1397:
 548              		.loc 2 165 0 is_stmt 1
 549              		.cfi_startproc
 550              	.LVL43:
 551              		.loc 2 165 0
 552 0000 9883001E 		stb 4,30(3)
 553 0004 4E800020 		blr
 554              		.cfi_endproc
 555              	.LFE1397:
 556              		.size	_ZN10GuiElement13SetSelectableEb, .-_ZN10GuiElement13SetSelectableEb
 557              		.section	.text._ZN10GuiElement12SetClickableEb,"axG",@progbits,_ZN10GuiElement12SetClickableEb,com
 558              		.align 2
 559              		.weak	_ZN10GuiElement12SetClickableEb
 560              		.type	_ZN10GuiElement12SetClickableEb, @function
 561              	_ZN10GuiElement12SetClickableEb:
 562              	.LFB1398:
 563              		.loc 2 168 0
 564              		.cfi_startproc
 565              	.LVL44:
 566              		.loc 2 168 0
 567 0000 9883001F 		stb 4,31(3)
 568 0004 4E800020 		blr
 569              		.cfi_endproc
 570              	.LFE1398:
 571              		.size	_ZN10GuiElement12SetClickableEb, .-_ZN10GuiElement12SetClickableEb
 572              		.section	.text._ZN10GuiElement11SetHoldableEb,"axG",@progbits,_ZN10GuiElement11SetHoldableEb,comda
 573              		.align 2
 574              		.weak	_ZN10GuiElement11SetHoldableEb
 575              		.type	_ZN10GuiElement11SetHoldableEb, @function
 576              	_ZN10GuiElement11SetHoldableEb:
 577              	.LFB1399:
 578              		.loc 2 171 0
 579              		.cfi_startproc
 580              	.LVL45:
 581              		.loc 2 171 0
 582 0000 98830020 		stb 4,32(3)
 583 0004 4E800020 		blr
 584              		.cfi_endproc
 585              	.LFE1399:
 586              		.size	_ZN10GuiElement11SetHoldableEb, .-_ZN10GuiElement11SetHoldableEb
 587              		.section	.text._ZN10GuiElement8GetStateEv,"axG",@progbits,_ZN10GuiElement8GetStateEv,comdat
 588              		.align 2
 589              		.weak	_ZN10GuiElement8GetStateEv
 590              		.type	_ZN10GuiElement8GetStateEv, @function
 591              	_ZN10GuiElement8GetStateEv:
 592              	.LFB1400:
 593              		.loc 2 178 0
 594              		.cfi_startproc
 595              	.LVL46:
 596              		.loc 2 178 0
 597 0000 80630048 		lwz 3,72(3)
 598              	.LVL47:
 599 0004 4E800020 		blr
 600              		.cfi_endproc
 601              	.LFE1400:
 602              		.size	_ZN10GuiElement8GetStateEv, .-_ZN10GuiElement8GetStateEv
 603              		.section	.text._ZN10GuiElement12GetStateChanEv,"axG",@progbits,_ZN10GuiElement12GetStateChanEv,com
 604              		.align 2
 605              		.weak	_ZN10GuiElement12GetStateChanEv
 606              		.type	_ZN10GuiElement12GetStateChanEv, @function
 607              	_ZN10GuiElement12GetStateChanEv:
 608              	.LFB1401:
 609              		.loc 2 181 0
 610              		.cfi_startproc
 611              	.LVL48:
 612              		.loc 2 181 0
 613 0000 8063004C 		lwz 3,76(3)
 614              	.LVL49:
 615 0004 4E800020 		blr
 616              		.cfi_endproc
 617              	.LFE1401:
 618              		.size	_ZN10GuiElement12GetStateChanEv, .-_ZN10GuiElement12GetStateChanEv
 619              		.section	.text._ZN10GuiElement8SetAlphaEi,"axG",@progbits,_ZN10GuiElement8SetAlphaEi,comdat
 620              		.align 2
 621              		.weak	_ZN10GuiElement8SetAlphaEi
 622              		.type	_ZN10GuiElement8SetAlphaEi, @function
 623              	_ZN10GuiElement8SetAlphaEi:
 624              	.LFB1403:
 625              		.loc 2 190 0
 626              		.cfi_startproc
 627              	.LVL50:
 628              		.loc 2 190 0
 629 0000 90830038 		stw 4,56(3)
 630 0004 4E800020 		blr
 631              		.cfi_endproc
 632              	.LFE1403:
 633              		.size	_ZN10GuiElement8SetAlphaEi, .-_ZN10GuiElement8SetAlphaEi
 634              		.section	.text._ZN10GuiElement8GetAlphaEv,"axG",@progbits,_ZN10GuiElement8GetAlphaEv,comdat
 635              		.align 2
 636              		.weak	_ZN10GuiElement8GetAlphaEv
 637              		.type	_ZN10GuiElement8GetAlphaEv, @function
 638              	_ZN10GuiElement8GetAlphaEv:
 639              	.LFB1404:
 640              		.loc 2 194 0
 641              		.cfi_startproc
 642              	.LVL51:
 643 0000 7C0802A6 		mflr 0
 644 0004 9421FFD8 		stwu 1,-40(1)
 645              	.LCFI5:
 646              		.cfi_def_cfa_offset 40
 647              		.cfi_register 65, 0
 648 0008 93E10024 		stw 31,36(1)
 649 000c 9001002C 		stw 0,44(1)
 650              	.LBB1447:
 651              		.loc 2 198 0
 652 0010 83E3006C 		lwz 31,108(3)
 653              		.cfi_offset 65, 4
 654              		.cfi_offset 31, -4
 655 0014 2F9F0000 		cmpwi 7,31,0
 656 0018 419C0094 		blt- 7,.L47
 657              	.L45:
 658              	.LVL52:
 659              		.loc 2 203 0
 660 001c 80630060 		lwz 3,96(3)
 661              	.LVL53:
 662 0020 2F830000 		cmpwi 7,3,0
 663 0024 419E0070 		beq- 7,.L46
 664              		.loc 2 204 0
 665 0028 81230000 		lwz 9,0(3)
 666 002c 6FFF8000 		xoris 31,31,0x8000
 667              	.LVL54:
 668 0030 80090064 		lwz 0,100(9)
 669 0034 7C0903A6 		mtctr 0
 670 0038 4E800421 		bctrl
 671 003c 3C004330 		lis 0,0x4330
 672 0040 6C638000 		xoris 3,3,0x8000
 673 0044 90010010 		stw 0,16(1)
 674 0048 90610014 		stw 3,20(1)
 675 004c 3D200000 		lis 9,.LC1@ha
 676 0050 C0090000 		lfs 0,.LC1@l(9)
 677 0054 3D200000 		lis 9,.LC2@ha
 678 0058 C9A10010 		lfd 13,16(1)
 679 005c C1890004 		lfs 12,.LC2@l(9)
 680 0060 39210018 		addi 9,1,24
 681 0064 FDAD0028 		fsub 13,13,0
 682 0068 93E1000C 		stw 31,12(1)
 683 006c 90010008 		stw 0,8(1)
 684 0070 FDA06818 		frsp 13,13
 685 0074 EDAD6024 		fdivs 13,13,12
 686 0078 C9810008 		lfd 12,8(1)
 687 007c FC0C0028 		fsub 0,12,0
 688 0080 FC000018 		frsp 0,0
 689 0084 EC000372 		fmuls 0,0,13
 690 0088 FC00001E 		fctiwz 0,0
 691 008c 7C004FAE 		stfiwx 0,0,9
 692 0090 83E10018 		lwz 31,24(1)
 693              	.LVL55:
 694              	.L46:
 695              	.LBE1447:
 696              		.loc 2 207 0
 697 0094 8001002C 		lwz 0,44(1)
 698 0098 7FE3FB78 		mr 3,31
 699 009c 83E10024 		lwz 31,36(1)
 700              	.LVL56:
 701 00a0 7C0803A6 		mtlr 0
 702 00a4 38210028 		addi 1,1,40
 703              		.cfi_remember_state
 704              	.LCFI6:
 705              		.cfi_def_cfa_offset 0
 706              		.cfi_restore 31
 707 00a8 4E800020 		blr
 708              	.LVL57:
 709              	.L47:
 710              	.LCFI7:
 711              		.cfi_restore_state
 712              	.LBB1448:
 713              		.loc 2 201 0
 714 00ac 83E30038 		lwz 31,56(3)
 715              	.LVL58:
 716 00b0 4BFFFF6C 		b .L45
 717              	.LBE1448:
 718              		.cfi_endproc
 719              	.LFE1404:
 720              		.size	_ZN10GuiElement8GetAlphaEv, .-_ZN10GuiElement8GetAlphaEv
 721              		.section	.text._ZN10GuiElement8SetScaleEf,"axG",@progbits,_ZN10GuiElement8SetScaleEf,comdat
 722              		.align 2
 723              		.weak	_ZN10GuiElement8SetScaleEf
 724              		.type	_ZN10GuiElement8SetScaleEf, @function
 725              	_ZN10GuiElement8SetScaleEf:
 726              	.LFB1405:
 727              		.loc 2 210 0
 728              		.cfi_startproc
 729              	.LVL59:
 730              		.loc 2 212 0
 731 0000 D023003C 		stfs 1,60(3)
 732              		.loc 2 214 0
 733              		.loc 2 213 0
 734 0004 D0230040 		stfs 1,64(3)
 735              		.loc 2 214 0
 736 0008 4E800020 		blr
 737              		.cfi_endproc
 738              	.LFE1405:
 739              		.size	_ZN10GuiElement8SetScaleEf, .-_ZN10GuiElement8SetScaleEf
 740              		.section	.text._ZN10GuiElement9SetScaleXEf,"axG",@progbits,_ZN10GuiElement9SetScaleXEf,comdat
 741              		.align 2
 742              		.weak	_ZN10GuiElement9SetScaleXEf
 743              		.type	_ZN10GuiElement9SetScaleXEf, @function
 744              	_ZN10GuiElement9SetScaleXEf:
 745              	.LFB1406:
 746              		.loc 2 217 0
 747              		.cfi_startproc
 748              	.LVL60:
 749              		.loc 2 217 0
 750 0000 D023003C 		stfs 1,60(3)
 751 0004 4E800020 		blr
 752              		.cfi_endproc
 753              	.LFE1406:
 754              		.size	_ZN10GuiElement9SetScaleXEf, .-_ZN10GuiElement9SetScaleXEf
 755              		.section	.text._ZN10GuiElement9SetScaleYEf,"axG",@progbits,_ZN10GuiElement9SetScaleYEf,comdat
 756              		.align 2
 757              		.weak	_ZN10GuiElement9SetScaleYEf
 758              		.type	_ZN10GuiElement9SetScaleYEf, @function
 759              	_ZN10GuiElement9SetScaleYEf:
 760              	.LFB1407:
 761              		.loc 2 220 0
 762              		.cfi_startproc
 763              	.LVL61:
 764              		.loc 2 220 0
 765 0000 D0230040 		stfs 1,64(3)
 766 0004 4E800020 		blr
 767              		.cfi_endproc
 768              	.LFE1407:
 769              		.size	_ZN10GuiElement9SetScaleYEf, .-_ZN10GuiElement9SetScaleYEf
 770              		.section	.text._ZN10GuiElement8GetScaleEv,"axG",@progbits,_ZN10GuiElement8GetScaleEv,comdat
 771              		.align 2
 772              		.weak	_ZN10GuiElement8GetScaleEv
 773              		.type	_ZN10GuiElement8GetScaleEv, @function
 774              	_ZN10GuiElement8GetScaleEv:
 775              	.LFB1408:
 776              		.loc 2 223 0
 777              		.cfi_startproc
 778              	.LVL62:
 779 0000 7C0802A6 		mflr 0
 780 0004 9421FFF0 		stwu 1,-16(1)
 781              	.LCFI8:
 782              		.cfi_def_cfa_offset 16
 783              		.cfi_register 65, 0
 784              	.LBB1449:
 785              		.loc 2 225 0
 786 0008 3D200000 		lis 9,.LC3@ha
 787              	.LBE1449:
 788              		.loc 2 223 0
 789 000c DBE10008 		stfd 31,8(1)
 790 0010 90010014 		stw 0,20(1)
 791              	.LBB1450:
 792              		.loc 2 225 0
 793 0014 C0030040 		lfs 0,64(3)
 794 0018 C3E3003C 		lfs 31,60(3)
 795              		.cfi_offset 65, 4
 796              		.cfi_offset 63, -8
 797              		.loc 2 227 0
 798 001c 81630060 		lwz 11,96(3)
 799              		.loc 2 225 0
 800 0020 EFFF002A 		fadds 31,31,0
 801 0024 C0090008 		lfs 0,.LC3@l(9)
 802              		.loc 2 227 0
 803 0028 2F8B0000 		cmpwi 7,11,0
 804              		.loc 2 225 0
 805 002c EFFF0032 		fmuls 31,31,0
 806 0030 C0030070 		lfs 0,112(3)
 807 0034 EFFF0032 		fmuls 31,31,0
 808              	.LVL63:
 809              		.loc 2 227 0
 810 0038 419E001C 		beq- 7,.L52
 811              		.loc 2 228 0
 812 003c 812B0000 		lwz 9,0(11)
 813 0040 7D635B78 		mr 3,11
 814              	.LVL64:
 815 0044 80090074 		lwz 0,116(9)
 816 0048 7C0903A6 		mtctr 0
 817 004c 4E800421 		bctrl
 818 0050 EFFF0072 		fmuls 31,31,1
 819              	.LVL65:
 820              	.L52:
 821              	.LBE1450:
 822              		.loc 2 231 0
 823 0054 80010014 		lwz 0,20(1)
 824 0058 FC20F890 		fmr 1,31
 825 005c CBE10008 		lfd 31,8(1)
 826              	.LVL66:
 827 0060 7C0803A6 		mtlr 0
 828 0064 38210010 		addi 1,1,16
 829              	.LCFI9:
 830              		.cfi_def_cfa_offset 0
 831              		.cfi_restore 63
 832 0068 4E800020 		blr
 833              		.cfi_endproc
 834              	.LFE1408:
 835              		.size	_ZN10GuiElement8GetScaleEv, .-_ZN10GuiElement8GetScaleEv
 836              		.section	.text._ZN10GuiElement9GetScaleXEv,"axG",@progbits,_ZN10GuiElement9GetScaleXEv,comdat
 837              		.align 2
 838              		.weak	_ZN10GuiElement9GetScaleXEv
 839              		.type	_ZN10GuiElement9GetScaleXEv, @function
 840              	_ZN10GuiElement9GetScaleXEv:
 841              	.LFB1409:
 842              		.loc 2 234 0
 843              		.cfi_startproc
 844              	.LVL67:
 845 0000 7C0802A6 		mflr 0
 846 0004 9421FFF0 		stwu 1,-16(1)
 847              	.LCFI10:
 848              		.cfi_def_cfa_offset 16
 849              		.cfi_register 65, 0
 850 0008 DBE10008 		stfd 31,8(1)
 851 000c 90010014 		stw 0,20(1)
 852              	.LBB1451:
 853              		.loc 2 238 0
 854 0010 81630060 		lwz 11,96(3)
 855              		.loc 2 236 0
 856 0014 C3E3003C 		lfs 31,60(3)
 857              		.cfi_offset 65, 4
 858              		.cfi_offset 63, -8
 859              		.loc 2 238 0
 860 0018 2F8B0000 		cmpwi 7,11,0
 861              		.loc 2 236 0
 862 001c C0030070 		lfs 0,112(3)
 863 0020 EFFF0032 		fmuls 31,31,0
 864              	.LVL68:
 865              		.loc 2 238 0
 866 0024 419E001C 		beq- 7,.L54
 867              		.loc 2 239 0
 868 0028 812B0000 		lwz 9,0(11)
 869 002c 7D635B78 		mr 3,11
 870              	.LVL69:
 871 0030 80090078 		lwz 0,120(9)
 872 0034 7C0903A6 		mtctr 0
 873 0038 4E800421 		bctrl
 874 003c EFFF0072 		fmuls 31,31,1
 875              	.LVL70:
 876              	.L54:
 877              	.LBE1451:
 878              		.loc 2 242 0
 879 0040 80010014 		lwz 0,20(1)
 880 0044 FC20F890 		fmr 1,31
 881 0048 CBE10008 		lfd 31,8(1)
 882              	.LVL71:
 883 004c 7C0803A6 		mtlr 0
 884 0050 38210010 		addi 1,1,16
 885              	.LCFI11:
 886              		.cfi_def_cfa_offset 0
 887              		.cfi_restore 63
 888 0054 4E800020 		blr
 889              		.cfi_endproc
 890              	.LFE1409:
 891              		.size	_ZN10GuiElement9GetScaleXEv, .-_ZN10GuiElement9GetScaleXEv
 892              		.section	.text._ZN10GuiElement9GetScaleYEv,"axG",@progbits,_ZN10GuiElement9GetScaleYEv,comdat
 893              		.align 2
 894              		.weak	_ZN10GuiElement9GetScaleYEv
 895              		.type	_ZN10GuiElement9GetScaleYEv, @function
 896              	_ZN10GuiElement9GetScaleYEv:
 897              	.LFB1410:
 898              		.loc 2 245 0
 899              		.cfi_startproc
 900              	.LVL72:
 901 0000 7C0802A6 		mflr 0
 902 0004 9421FFF0 		stwu 1,-16(1)
 903              	.LCFI12:
 904              		.cfi_def_cfa_offset 16
 905              		.cfi_register 65, 0
 906 0008 DBE10008 		stfd 31,8(1)
 907 000c 90010014 		stw 0,20(1)
 908              	.LBB1452:
 909              		.loc 2 249 0
 910 0010 81630060 		lwz 11,96(3)
 911              		.loc 2 247 0
 912 0014 C3E30040 		lfs 31,64(3)
 913              		.cfi_offset 65, 4
 914              		.cfi_offset 63, -8
 915              		.loc 2 249 0
 916 0018 2F8B0000 		cmpwi 7,11,0
 917              		.loc 2 247 0
 918 001c C0030070 		lfs 0,112(3)
 919 0020 EFFF0032 		fmuls 31,31,0
 920              	.LVL73:
 921              		.loc 2 249 0
 922 0024 419E001C 		beq- 7,.L56
 923              		.loc 2 250 0
 924 0028 812B0000 		lwz 9,0(11)
 925 002c 7D635B78 		mr 3,11
 926              	.LVL74:
 927 0030 8009007C 		lwz 0,124(9)
 928 0034 7C0903A6 		mtctr 0
 929 0038 4E800421 		bctrl
 930 003c EFFF0072 		fmuls 31,31,1
 931              	.LVL75:
 932              	.L56:
 933              	.LBE1452:
 934              		.loc 2 253 0
 935 0040 80010014 		lwz 0,20(1)
 936 0044 FC20F890 		fmr 1,31
 937 0048 CBE10008 		lfd 31,8(1)
 938              	.LVL76:
 939 004c 7C0803A6 		mtlr 0
 940 0050 38210010 		addi 1,1,16
 941              	.LCFI13:
 942              		.cfi_def_cfa_offset 0
 943              		.cfi_restore 63
 944 0054 4E800020 		blr
 945              		.cfi_endproc
 946              	.LFE1410:
 947              		.size	_ZN10GuiElement9GetScaleYEv, .-_ZN10GuiElement9GetScaleYEv
 948              		.section	.text._ZN10GuiElement6RumbleEv,"axG",@progbits,_ZN10GuiElement6RumbleEv,comdat
 949              		.align 2
 950              		.weak	_ZN10GuiElement6RumbleEv
 951              		.type	_ZN10GuiElement6RumbleEv, @function
 952              	_ZN10GuiElement6RumbleEv:
 953              	.LFB1411:
 954              		.loc 2 256 0
 955              		.cfi_startproc
 956              	.LVL77:
 957              		.loc 2 256 0
 958 0000 8863001C 		lbz 3,28(3)
 959              	.LVL78:
 960 0004 4E800020 		blr
 961              		.cfi_endproc
 962              	.LFE1411:
 963              		.size	_ZN10GuiElement6RumbleEv, .-_ZN10GuiElement6RumbleEv
 964              		.section	.text._ZN10GuiElement9SetRumbleEb,"axG",@progbits,_ZN10GuiElement9SetRumbleEb,comdat
 965              		.align 2
 966              		.weak	_ZN10GuiElement9SetRumbleEb
 967              		.type	_ZN10GuiElement9SetRumbleEb, @function
 968              	_ZN10GuiElement9SetRumbleEb:
 969              	.LFB1412:
 970              		.loc 2 259 0
 971              		.cfi_startproc
 972              	.LVL79:
 973              		.loc 2 259 0
 974 0000 9883001C 		stb 4,28(3)
 975 0004 4E800020 		blr
 976              		.cfi_endproc
 977              	.LFE1412:
 978              		.size	_ZN10GuiElement9SetRumbleEb, .-_ZN10GuiElement9SetRumbleEb
 979              		.section	.text._ZN10GuiElement13SetEffectGrowEv,"axG",@progbits,_ZN10GuiElement13SetEffectGrowEv,c
 980              		.align 2
 981              		.weak	_ZN10GuiElement13SetEffectGrowEv
 982              		.type	_ZN10GuiElement13SetEffectGrowEv, @function
 983              	_ZN10GuiElement13SetEffectGrowEv:
 984              	.LFB1413:
 985              		.loc 2 271 0
 986              		.cfi_startproc
 987              	.LVL80:
 988 0000 7C0802A6 		mflr 0
 989 0004 9421FFF8 		stwu 1,-8(1)
 990              	.LCFI14:
 991              		.cfi_def_cfa_offset 8
 992              		.cfi_register 65, 0
 993 0008 81230000 		lwz 9,0(3)
 994 000c 38800100 		li 4,256
 995 0010 38A00004 		li 5,4
 996 0014 38C0006E 		li 6,110
 997 0018 9001000C 		stw 0,12(1)
 998              		.loc 2 271 0
 999 001c 8009008C 		lwz 0,140(9)
 1000              		.cfi_offset 65, 4
 1001 0020 7C0903A6 		mtctr 0
 1002 0024 4E800421 		bctrl
 1003              	.LVL81:
 1004 0028 8001000C 		lwz 0,12(1)
 1005 002c 38210008 		addi 1,1,8
 1006              	.LCFI15:
 1007              		.cfi_def_cfa_offset 0
 1008 0030 7C0803A6 		mtlr 0
 1009 0034 4E800020 		blr
 1010              		.cfi_endproc
 1011              	.LFE1413:
 1012              		.size	_ZN10GuiElement13SetEffectGrowEv, .-_ZN10GuiElement13SetEffectGrowEv
 1013              		.section	.text._ZNK10GuiElement9GetEffectEv,"axG",@progbits,_ZNK10GuiElement9GetEffectEv,comdat
 1014              		.align 2
 1015              		.weak	_ZNK10GuiElement9GetEffectEv
 1016              		.type	_ZNK10GuiElement9GetEffectEv, @function
 1017              	_ZNK10GuiElement9GetEffectEv:
 1018              	.LFB1414:
 1019              		.loc 2 276 0
 1020              		.cfi_startproc
 1021              	.LVL82:
 1022              		.loc 2 276 0
 1023 0000 80630078 		lwz 3,120(3)
 1024              	.LVL83:
 1025 0004 4E800020 		blr
 1026              		.cfi_endproc
 1027              	.LFE1414:
 1028              		.size	_ZNK10GuiElement9GetEffectEv, .-_ZNK10GuiElement9GetEffectEv
 1029              		.section	.text._ZNK10GuiElement10IsAnimatedEv,"axG",@progbits,_ZNK10GuiElement10IsAnimatedEv,comda
 1030              		.align 2
 1031              		.weak	_ZNK10GuiElement10IsAnimatedEv
 1032              		.type	_ZNK10GuiElement10IsAnimatedEv, @function
 1033              	_ZNK10GuiElement10IsAnimatedEv:
 1034              	.LFB1415:
 1035              		.loc 2 278 0
 1036              		.cfi_startproc
 1037              	.LVL84:
 1038 0000 7C0802A6 		mflr 0
 1039 0004 9421FFF8 		stwu 1,-8(1)
 1040              	.LCFI16:
 1041              		.cfi_def_cfa_offset 8
 1042              		.cfi_register 65, 0
 1043 0008 9001000C 		stw 0,12(1)
 1044              		.loc 2 278 0
 1045 000c 81230000 		lwz 9,0(3)
 1046 0010 80090098 		lwz 0,152(9)
 1047              		.cfi_offset 65, 4
 1048 0014 7C0903A6 		mtctr 0
 1049 0018 4E800421 		bctrl
 1050              	.LVL85:
 1051 001c 7C60FE70 		srawi 0,3,31
 1052 0020 7C630050 		subf 3,3,0
 1053 0024 8001000C 		lwz 0,12(1)
 1054 0028 54630FFE 		srwi 3,3,31
 1055 002c 7C0803A6 		mtlr 0
 1056 0030 38210008 		addi 1,1,8
 1057              	.LCFI17:
 1058              		.cfi_def_cfa_offset 0
 1059 0034 4E800020 		blr
 1060              		.cfi_endproc
 1061              	.LFE1415:
 1062              		.size	_ZNK10GuiElement10IsAnimatedEv, .-_ZNK10GuiElement10IsAnimatedEv
 1063              		.section	.text._ZN10GuiElement9SetBoundsE4RectIiE,"axG",@progbits,_ZN10GuiElement9SetBoundsE4RectI
 1064              		.align 2
 1065              		.weak	_ZN10GuiElement9SetBoundsE4RectIiE
 1066              		.type	_ZN10GuiElement9SetBoundsE4RectIiE, @function
 1067              	_ZN10GuiElement9SetBoundsE4RectIiE:
 1068              	.LFB1416:
 1069              		.loc 2 280 0
 1070              		.cfi_startproc
 1071              	.LVL86:
 1072              	.LBB1453:
 1073              	.LBB1454:
 1074              		.file 5 "d:/Projects/SaveGameManager/savegame-manager-gx/trunk/source/GUI/../Tools/Rect.h"
 1075              		.loc 5 30 0
 1076 0000 81440000 		lwz 10,0(4)
 1077              	.LBE1454:
 1078              	.LBE1453:
 1079              		.loc 2 280 0
 1080              	.LBB1456:
 1081              	.LBB1455:
 1082              		.loc 5 31 0
 1083 0004 81640008 		lwz 11,8(4)
 1084              		.loc 5 32 0
 1085 0008 81240004 		lwz 9,4(4)
 1086              		.loc 5 33 0
 1087 000c 8004000C 		lwz 0,12(4)
 1088              	.LVL87:
 1089              		.loc 5 30 0
 1090 0010 91430050 		stw 10,80(3)
 1091              		.loc 5 31 0
 1092 0014 91630058 		stw 11,88(3)
 1093              		.loc 5 32 0
 1094 0018 91230054 		stw 9,84(3)
 1095              		.loc 5 33 0
 1096 001c 9003005C 		stw 0,92(3)
 1097              	.LBE1455:
 1098              	.LBE1456:
 1099              		.loc 2 280 0
 1100 0020 4E800020 		blr
 1101              		.cfi_endproc
 1102              	.LFE1416:
 1103              		.size	_ZN10GuiElement9SetBoundsE4RectIiE, .-_ZN10GuiElement9SetBoundsE4RectIiE
 1104              		.section	.text._ZN10GuiElement8IsInsideEii,"axG",@progbits,_ZN10GuiElement8IsInsideEii,comdat
 1105              		.align 2
 1106              		.weak	_ZN10GuiElement8IsInsideEii
 1107              		.type	_ZN10GuiElement8IsInsideEii, @function
 1108              	_ZN10GuiElement8IsInsideEii:
 1109              	.LFB1417:
 1110              		.loc 2 285 0
 1111              		.cfi_startproc
 1112              	.LVL88:
 1113 0000 7C0802A6 		mflr 0
 1114 0004 9421FFE8 		stwu 1,-24(1)
 1115              	.LCFI18:
 1116              		.cfi_def_cfa_offset 24
 1117              		.cfi_register 65, 0
 1118 0008 93810008 		stw 28,8(1)
 1119 000c 7CBC2B78 		mr 28,5
 1120              		.cfi_offset 28, -16
 1121 0010 9001001C 		stw 0,28(1)
 1122 0014 93A1000C 		stw 29,12(1)
 1123              		.loc 2 290 0
 1124 0018 3BA00000 		li 29,0
 1125              		.cfi_offset 29, -12
 1126              		.cfi_offset 65, 4
 1127              		.loc 2 287 0
 1128 001c 81230000 		lwz 9,0(3)
 1129              		.loc 2 285 0
 1130 0020 93C10010 		stw 30,16(1)
 1131 0024 7C9E2378 		mr 30,4
 1132              		.cfi_offset 30, -8
 1133              		.loc 2 287 0
 1134 0028 80090010 		lwz 0,16(9)
 1135              		.loc 2 285 0
 1136 002c 93E10014 		stw 31,20(1)
 1137              		.loc 2 285 0
 1138 0030 7C7F1B78 		mr 31,3
 1139              		.cfi_offset 31, -4
 1140              		.loc 2 287 0
 1141 0034 7C0903A6 		mtctr 0
 1142 0038 4E800421 		bctrl
 1143              	.LVL89:
 1144              		.loc 2 290 0
 1145 003c 7F83F000 		cmpw 7,3,30
 1146 0040 419C0028 		blt- 7,.L68
 1147              	.L64:
 1148              		.loc 2 291 0 discriminator 6
 1149 0044 8001001C 		lwz 0,28(1)
 1150 0048 7FA3EB78 		mr 3,29
 1151 004c 83810008 		lwz 28,8(1)
 1152              	.LVL90:
 1153 0050 7C0803A6 		mtlr 0
 1154 0054 83A1000C 		lwz 29,12(1)
 1155 0058 83C10010 		lwz 30,16(1)
 1156              	.LVL91:
 1157 005c 83E10014 		lwz 31,20(1)
 1158              	.LVL92:
 1159 0060 38210018 		addi 1,1,24
 1160              		.cfi_remember_state
 1161              	.LCFI19:
 1162              		.cfi_def_cfa_offset 0
 1163              		.cfi_restore 31
 1164              		.cfi_restore 30
 1165              		.cfi_restore 29
 1166              		.cfi_restore 28
 1167 0064 4E800020 		blr
 1168              	.LVL93:
 1169              	.L68:
 1170              	.LCFI20:
 1171              		.cfi_restore_state
 1172              		.loc 2 288 0 discriminator 1
 1173 0068 813F0000 		lwz 9,0(31)
 1174 006c 7FE3FB78 		mr 3,31
 1175 0070 80090010 		lwz 0,16(9)
 1176 0074 7C0903A6 		mtctr 0
 1177 0078 4E800421 		bctrl
 1178              		.loc 2 290 0 discriminator 1
 1179 007c 801F0024 		lwz 0,36(31)
 1180 0080 7C030214 		add 0,3,0
 1181 0084 7F9E0000 		cmpw 7,30,0
 1182 0088 409CFFBC 		bge+ 7,.L64
 1183              		.loc 2 289 0 discriminator 3
 1184 008c 813F0000 		lwz 9,0(31)
 1185 0090 7FE3FB78 		mr 3,31
 1186 0094 80090014 		lwz 0,20(9)
 1187 0098 7C0903A6 		mtctr 0
 1188 009c 4E800421 		bctrl
 1189              		.loc 2 290 0 discriminator 3
 1190 00a0 7F83E000 		cmpw 7,3,28
 1191 00a4 409CFFA0 		bge+ 7,.L64
 1192              		.loc 2 290 0 is_stmt 0 discriminator 4
 1193 00a8 813F0000 		lwz 9,0(31)
 1194 00ac 7FE3FB78 		mr 3,31
 1195 00b0 80090014 		lwz 0,20(9)
 1196 00b4 7C0903A6 		mtctr 0
 1197 00b8 4E800421 		bctrl
 1198 00bc 801F0028 		lwz 0,40(31)
 1199 00c0 7C030214 		add 0,3,0
 1200              		.loc 2 285 0 is_stmt 1 discriminator 4
 1201 00c4 7F9C0000 		cmpw 7,28,0
 1202 00c8 7FA00026 		mfcr 29
 1203 00cc 57BDEFFE 		rlwinm 29,29,29,1
 1204 00d0 4BFFFF74 		b .L64
 1205              		.cfi_endproc
 1206              	.LFE1417:
 1207              		.size	_ZN10GuiElement8IsInsideEii, .-_ZN10GuiElement8IsInsideEii
 1208              		.section	.text._ZN10GuiElement11SetPositionEii,"axG",@progbits,_ZN10GuiElement11SetPositionEii,com
 1209              		.align 2
 1210              		.weak	_ZN10GuiElement11SetPositionEii
 1211              		.type	_ZN10GuiElement11SetPositionEii, @function
 1212              	_ZN10GuiElement11SetPositionEii:
 1213              	.LFB1418:
 1214              		.loc 2 295 0
 1215              		.cfi_startproc
 1216              	.LVL94:
 1217              		.loc 2 297 0
 1218 0000 9083002C 		stw 4,44(3)
 1219              		.loc 2 299 0
 1220              		.loc 2 298 0
 1221 0004 90A30030 		stw 5,48(3)
 1222              		.loc 2 299 0
 1223 0008 4E800020 		blr
 1224              		.cfi_endproc
 1225              	.LFE1418:
 1226              		.size	_ZN10GuiElement11SetPositionEii, .-_ZN10GuiElement11SetPositionEii
 1227              		.section	.text._ZN10GuiElement11SetPositionEiii,"axG",@progbits,_ZN10GuiElement11SetPositionEiii,c
 1228              		.align 2
 1229              		.weak	_ZN10GuiElement11SetPositionEiii
 1230              		.type	_ZN10GuiElement11SetPositionEiii, @function
 1231              	_ZN10GuiElement11SetPositionEiii:
 1232              	.LFB1419:
 1233              		.loc 2 304 0
 1234              		.cfi_startproc
 1235              	.LVL95:
 1236              		.loc 2 306 0
 1237 0000 9083002C 		stw 4,44(3)
 1238              		.loc 2 309 0
 1239              		.loc 2 307 0
 1240 0004 90A30030 		stw 5,48(3)
 1241              		.loc 2 308 0
 1242 0008 90C30034 		stw 6,52(3)
 1243              		.loc 2 309 0
 1244 000c 4E800020 		blr
 1245              		.cfi_endproc
 1246              	.LFE1419:
 1247              		.size	_ZN10GuiElement11SetPositionEiii, .-_ZN10GuiElement11SetPositionEiii
 1248              		.section	.text._ZN10GuiElement11GetSelectedEv,"axG",@progbits,_ZN10GuiElement11GetSelectedEv,comda
 1249              		.align 2
 1250              		.weak	_ZN10GuiElement11GetSelectedEv
 1251              		.type	_ZN10GuiElement11GetSelectedEv, @function
 1252              	_ZN10GuiElement11GetSelectedEv:
 1253              	.LFB1420:
 1254              		.loc 2 312 0
 1255              		.cfi_startproc
 1256              	.LVL96:
 1257              		.loc 2 312 0
 1258 0000 3860FFFF 		li 3,-1
 1259              	.LVL97:
 1260 0004 4E800020 		blr
 1261              		.cfi_endproc
 1262              	.LFE1420:
 1263              		.size	_ZN10GuiElement11GetSelectedEv, .-_ZN10GuiElement11GetSelectedEv
 1264              		.section	.text._ZN10GuiElement12SetAlignmentEi,"axG",@progbits,_ZN10GuiElement12SetAlignmentEi,com
 1265              		.align 2
 1266              		.weak	_ZN10GuiElement12SetAlignmentEi
 1267              		.type	_ZN10GuiElement12SetAlignmentEi, @function
 1268              	_ZN10GuiElement12SetAlignmentEi:
 1269              	.LFB1421:
 1270              		.loc 2 316 0
 1271              		.cfi_startproc
 1272              	.LVL98:
 1273              		.loc 2 316 0
 1274 0000 90830044 		stw 4,68(3)
 1275 0004 4E800020 		blr
 1276              		.cfi_endproc
 1277              	.LFE1421:
 1278              		.size	_ZN10GuiElement12SetAlignmentEi, .-_ZN10GuiElement12SetAlignmentEi
 1279              		.section	.text._ZNK10GuiElement12GetAlignmentEv,"axG",@progbits,_ZNK10GuiElement12GetAlignmentEv,c
 1280              		.align 2
 1281              		.weak	_ZNK10GuiElement12GetAlignmentEv
 1282              		.type	_ZNK10GuiElement12GetAlignmentEv, @function
 1283              	_ZNK10GuiElement12GetAlignmentEv:
 1284              	.LFB1422:
 1285              		.loc 2 318 0
 1286              		.cfi_startproc
 1287              	.LVL99:
 1288              		.loc 2 318 0
 1289 0000 80630044 		lwz 3,68(3)
 1290              	.LVL100:
 1291 0004 4E800020 		blr
 1292              		.cfi_endproc
 1293              	.LFE1422:
 1294              		.size	_ZNK10GuiElement12GetAlignmentEv, .-_ZNK10GuiElement12GetAlignmentEv
 1295              		.section	.text._ZN10GuiElement6UpdateEP10GuiTrigger,"axG",@progbits,_ZN10GuiElement6UpdateEP10GuiT
 1296              		.align 2
 1297              		.weak	_ZN10GuiElement6UpdateEP10GuiTrigger
 1298              		.type	_ZN10GuiElement6UpdateEP10GuiTrigger, @function
 1299              	_ZN10GuiElement6UpdateEP10GuiTrigger:
 1300              	.LFB1423:
 1301              		.loc 2 321 0
 1302              		.cfi_startproc
 1303              	.LVL101:
 1304              		.loc 2 321 0
 1305 0000 4E800020 		blr
 1306              		.cfi_endproc
 1307              	.LFE1423:
 1308              		.size	_ZN10GuiElement6UpdateEP10GuiTrigger, .-_ZN10GuiElement6UpdateEP10GuiTrigger
 1309              		.section	.text._ZN10GuiElement4DrawEv,"axG",@progbits,_ZN10GuiElement4DrawEv,comdat
 1310              		.align 2
 1311              		.weak	_ZN10GuiElement4DrawEv
 1312              		.type	_ZN10GuiElement4DrawEv, @function
 1313              	_ZN10GuiElement4DrawEv:
 1314              	.LFB1424:
 1315              		.loc 2 323 0
 1316              		.cfi_startproc
 1317              	.LVL102:
 1318              		.loc 2 323 0
 1319 0000 4E800020 		blr
 1320              		.cfi_endproc
 1321              	.LFE1424:
 1322              		.size	_ZN10GuiElement4DrawEv, .-_ZN10GuiElement4DrawEv
 1323              		.section	".text"
 1324              		.align 2
 1325              		.globl _ZN10GuiElement8SetStateEii
 1326              		.type	_ZN10GuiElement8SetStateEii, @function
 1327              	_ZN10GuiElement8SetStateEii:
 1328              	.LFB1430:
 1329              		.loc 3 61 0
 1330              		.cfi_startproc
 1331              		.cfi_personality 0,__gxx_personality_v0
 1332              		.cfi_lsda 0,.LLSDA1430
 1333              	.LVL103:
 1334 0000 7C0802A6 		mflr 0
 1335 0004 9421FFE0 		stwu 1,-32(1)
 1336              	.LCFI21:
 1337              		.cfi_def_cfa_offset 32
 1338              		.cfi_register 65, 0
 1339 0008 93410008 		stw 26,8(1)
 1340              	.LBB1457:
 1341              	.LBB1458:
 1342              		.loc 1 2338 0
 1343 000c 3B430010 		addi 26,3,16
 1344              		.cfi_offset 26, -24
 1345              	.LBE1458:
 1346              	.LBE1457:
 1347              		.loc 3 61 0
 1348 0010 90010024 		stw 0,36(1)
 1349 0014 93C10018 		stw 30,24(1)
 1350 0018 7C7E1B78 		mr 30,3
 1351              		.cfi_offset 30, -8
 1352              		.cfi_offset 65, 4
 1353              	.LBB1481:
 1354              	.LBB1475:
 1355              	.LBB1459:
 1356              	.LBB1460:
 1357              		.loc 1 338 0
 1358 001c 81230010 		lwz 9,16(3)
 1359 0020 7F43D378 		mr 3,26
 1360              	.LVL104:
 1361              	.LBE1460:
 1362              	.LBE1459:
 1363              	.LBE1475:
 1364              	.LBE1481:
 1365              		.loc 3 61 0
 1366 0024 9361000C 		stw 27,12(1)
 1367 0028 7C9B2378 		mr 27,4
 1368              		.cfi_offset 27, -20
 1369              	.LBB1482:
 1370              	.LBB1476:
 1371              	.LBB1464:
 1372              	.LBB1461:
 1373              		.loc 1 338 0
 1374 002c 80090008 		lwz 0,8(9)
 1375              	.LBE1461:
 1376              	.LBE1464:
 1377              	.LBE1476:
 1378              	.LBE1482:
 1379              		.loc 3 61 0
 1380 0030 93810010 		stw 28,16(1)
 1381 0034 7CBC2B78 		mr 28,5
 1382              		.cfi_offset 28, -16
 1383 0038 93A10014 		stw 29,20(1)
 1384              	.LBB1483:
 1385              	.LBB1477:
 1386              	.LBB1465:
 1387              	.LBB1462:
 1388              		.loc 1 338 0
 1389 003c 7C0903A6 		mtctr 0
 1390              	.LBE1462:
 1391              	.LBE1465:
 1392              	.LBE1477:
 1393              	.LBE1483:
 1394              		.loc 3 61 0
 1395 0040 93E1001C 		stw 31,28(1)
 1396              	.LBB1484:
 1397              		.loc 3 394 0
 1398 0044 7FDDF378 		mr 29,30
 1399              		.cfi_offset 31, -4
 1400              		.cfi_offset 29, -12
 1401              	.LBE1484:
 1402              		.loc 3 62 0
 1403 0048 909E0048 		stw 4,72(30)
 1404              		.loc 3 63 0
 1405 004c 90BE004C 		stw 5,76(30)
 1406              	.LVL105:
 1407              	.LEHB4:
 1408              	.LBB1485:
 1409              	.LBB1478:
 1410              	.LBB1466:
 1411              	.LBB1463:
 1412              		.loc 1 338 0
 1413 0050 4E800421 		bctrl
 1414              	.LEHE4:
 1415              	.LVL106:
 1416              	.LBE1463:
 1417              	.LBE1466:
 1418              	.LBE1478:
 1419              		.loc 3 394 0
 1420 0054 87FD0014 		lwzu 31,20(29)
 1421              	.LVL107:
 1422              	.LBB1479:
 1423              		.loc 1 2342 0
 1424 0058 7F9FE800 		cmpw 7,31,29
 1425 005c 419E0030 		beq- 7,.L77
 1426              	.LVL108:
 1427              	.L84:
 1428              		.loc 1 2347 0
 1429 0060 807F0008 		lwz 3,8(31)
 1430 0064 7FC4F378 		mr 4,30
 1431 0068 7F65DB78 		mr 5,27
 1432 006c 7F86E378 		mr 6,28
 1433 0070 81230000 		lwz 9,0(3)
 1434              	.LBB1467:
 1435              	.LBB1468:
 1436              		.loc 4 234 0
 1437 0074 83FF0000 		lwz 31,0(31)
 1438              	.LVL109:
 1439              	.LBE1468:
 1440              	.LBE1467:
 1441              		.loc 1 2347 0
 1442 0078 8009000C 		lwz 0,12(9)
 1443 007c 7C0903A6 		mtctr 0
 1444              	.LEHB5:
 1445 0080 4E800421 		bctrl
 1446              	.LEHE5:
 1447              	.LVL110:
 1448              		.loc 1 2342 0
 1449 0084 7F9DF800 		cmpw 7,29,31
 1450 0088 409EFFD8 		bne+ 7,.L84
 1451              	.LVL111:
 1452              	.L77:
 1453              	.LBB1469:
 1454              	.LBB1470:
 1455              	.LBB1471:
 1456              		.loc 1 343 0
 1457 008c 813E0010 		lwz 9,16(30)
 1458 0090 7F43D378 		mr 3,26
 1459 0094 8009000C 		lwz 0,12(9)
 1460 0098 7C0903A6 		mtctr 0
 1461              	.LEHB6:
 1462 009c 4E800421 		bctrl
 1463              	.LEHE6:
 1464              	.LBE1471:
 1465              	.LBE1470:
 1466              	.LBE1469:
 1467              	.LBE1479:
 1468              	.LBE1485:
 1469              		.loc 3 65 0
 1470 00a0 80010024 		lwz 0,36(1)
 1471 00a4 83410008 		lwz 26,8(1)
 1472              	.LVL112:
 1473 00a8 7C0803A6 		mtlr 0
 1474 00ac 8361000C 		lwz 27,12(1)
 1475              	.LVL113:
 1476 00b0 83810010 		lwz 28,16(1)
 1477              	.LVL114:
 1478 00b4 83A10014 		lwz 29,20(1)
 1479 00b8 83C10018 		lwz 30,24(1)
 1480              	.LVL115:
 1481 00bc 83E1001C 		lwz 31,28(1)
 1482              	.LVL116:
 1483 00c0 38210020 		addi 1,1,32
 1484              		.cfi_remember_state
 1485              	.LCFI22:
 1486              		.cfi_def_cfa_offset 0
 1487              		.cfi_restore 31
 1488              		.cfi_restore 30
 1489              		.cfi_restore 29
 1490              		.cfi_restore 28
 1491              		.cfi_restore 27
 1492              		.cfi_restore 26
 1493 00c4 4E800020 		blr
 1494              	.LVL117:
 1495              	.L83:
 1496              	.LCFI23:
 1497              		.cfi_restore_state
 1498              	.LBB1486:
 1499              	.LBB1480:
 1500              	.LBB1472:
 1501              	.LBB1473:
 1502              	.LBB1474:
 1503              		.loc 1 343 0
 1504 00c8 813E0010 		lwz 9,16(30)
 1505 00cc 7C7F1B78 		mr 31,3
 1506              	.LVL118:
 1507 00d0 7F43D378 		mr 3,26
 1508 00d4 8009000C 		lwz 0,12(9)
 1509 00d8 7C0903A6 		mtctr 0
 1510 00dc 4E800421 		bctrl
 1511 00e0 7FE3FB78 		mr 3,31
 1512              	.LEHB7:
 1513 00e4 48000001 		bl _Unwind_Resume
 1514              	.LEHE7:
 1515              	.LBE1474:
 1516              	.LBE1473:
 1517              	.LBE1472:
 1518              	.LBE1480:
 1519              	.LBE1486:
 1520              		.cfi_endproc
 1521              	.LFE1430:
 1522              		.section	.gcc_except_table
 1523              	.LLSDA1430:
 1524 0017 FF       		.byte	0xff
 1525 0018 FF       		.byte	0xff
 1526 0019 01       		.byte	0x1
 1527 001a 14       		.uleb128 .LLSDACSE1430-.LLSDACSB1430
 1528              	.LLSDACSB1430:
 1529 001b 50       		.uleb128 .LEHB4-.LFB1430
 1530 001c 04       		.uleb128 .LEHE4-.LEHB4
 1531 001d 00       		.uleb128 0
 1532 001e 00       		.uleb128 0
 1533 001f 8001     		.uleb128 .LEHB5-.LFB1430
 1534 0021 04       		.uleb128 .LEHE5-.LEHB5
 1535 0022 C801     		.uleb128 .L83-.LFB1430
 1536 0024 00       		.uleb128 0
 1537 0025 9C01     		.uleb128 .LEHB6-.LFB1430
 1538 0027 04       		.uleb128 .LEHE6-.LEHB6
 1539 0028 00       		.uleb128 0
 1540 0029 00       		.uleb128 0
 1541 002a E401     		.uleb128 .LEHB7-.LFB1430
 1542 002c 04       		.uleb128 .LEHE7-.LEHB7
 1543 002d 00       		.uleb128 0
 1544 002e 00       		.uleb128 0
 1545              	.LLSDACSE1430:
 1546              		.section	".text"
 1547              		.size	_ZN10GuiElement8SetStateEii, .-_ZN10GuiElement8SetStateEii
 1548              		.align 2
 1549              		.globl _ZN10GuiElement7GetLeftEv
 1550              		.type	_ZN10GuiElement7GetLeftEv, @function
 1551              	_ZN10GuiElement7GetLeftEv:
 1552              	.LFB1431:
 1553              		.loc 3 73 0
 1554              		.cfi_startproc
 1555              	.LVL119:
 1556 00e8 7C0802A6 		mflr 0
 1557 00ec 9421FFF0 		stwu 1,-16(1)
 1558              	.LCFI24:
 1559              		.cfi_def_cfa_offset 16
 1560              		.cfi_register 65, 0
 1561 00f0 93C10008 		stw 30,8(1)
 1562              	.LBB1487:
 1563              		.loc 3 74 0
 1564 00f4 3BC00000 		li 30,0
 1565              		.cfi_offset 30, -8
 1566              	.LBE1487:
 1567              		.loc 3 73 0
 1568 00f8 90010014 		stw 0,20(1)
 1569 00fc 93E1000C 		stw 31,12(1)
 1570              		.loc 3 73 0
 1571 0100 7C7F1B78 		mr 31,3
 1572              		.cfi_offset 31, -4
 1573              		.cfi_offset 65, 4
 1574              	.LBB1488:
 1575              		.loc 3 77 0
 1576 0104 81630060 		lwz 11,96(3)
 1577              		.loc 3 75 0
 1578 0108 38600000 		li 3,0
 1579              	.LVL120:
 1580              		.loc 3 77 0
 1581 010c 2F8B0000 		cmpwi 7,11,0
 1582 0110 419E0030 		beq- 7,.L86
 1583              		.loc 3 79 0
 1584 0114 812B0000 		lwz 9,0(11)
 1585 0118 7D635B78 		mr 3,11
 1586 011c 80090024 		lwz 0,36(9)
 1587 0120 7C0903A6 		mtctr 0
 1588 0124 4E800421 		bctrl
 1589 0128 7C7E1B78 		mr 30,3
 1590              	.LVL121:
 1591              		.loc 3 80 0
 1592 012c 807F0060 		lwz 3,96(31)
 1593              	.LVL122:
 1594 0130 81230000 		lwz 9,0(3)
 1595 0134 80090010 		lwz 0,16(9)
 1596 0138 7C0903A6 		mtctr 0
 1597 013c 4E800421 		bctrl
 1598              	.LVL123:
 1599              	.L86:
 1600              		.loc 3 87 0
 1601 0140 801F0044 		lwz 0,68(31)
 1602              		.loc 3 83 0
 1603 0144 813F0064 		lwz 9,100(31)
 1604              		.loc 3 87 0
 1605 0148 700B0002 		andi. 11,0,2
 1606              		.loc 3 83 0
 1607 014c 7C634A14 		add 3,3,9
 1608              	.LVL124:
 1609              		.loc 3 87 0
 1610 0150 40820038 		bne- 0,.L91
 1611              		.loc 3 91 0
 1612 0154 70090004 		andi. 9,0,4
 1613 0158 41820010 		beq- 0,.L88
 1614              		.loc 3 93 0
 1615 015c 801F0024 		lwz 0,36(31)
 1616 0160 7C7E1A14 		add 3,30,3
 1617              	.LVL125:
 1618 0164 7C601850 		subf 3,0,3
 1619              	.LVL126:
 1620              	.L88:
 1621              		.loc 3 96 0
 1622 0168 801F002C 		lwz 0,44(31)
 1623              	.LBE1488:
 1624              		.loc 3 97 0
 1625 016c 83C10008 		lwz 30,8(1)
 1626              	.LVL127:
 1627 0170 7C630214 		add 3,3,0
 1628              	.LVL128:
 1629 0174 80010014 		lwz 0,20(1)
 1630 0178 83E1000C 		lwz 31,12(1)
 1631              	.LVL129:
 1632 017c 7C0803A6 		mtlr 0
 1633 0180 38210010 		addi 1,1,16
 1634              		.cfi_remember_state
 1635              	.LCFI25:
 1636              		.cfi_def_cfa_offset 0
 1637              		.cfi_restore 31
 1638              		.cfi_restore 30
 1639 0184 4E800020 		blr
 1640              	.LVL130:
 1641              	.L91:
 1642              	.LCFI26:
 1643              		.cfi_restore_state
 1644              	.LBB1489:
 1645              		.loc 3 89 0
 1646 0188 801F0024 		lwz 0,36(31)
 1647 018c 7FDE0E70 		srawi 30,30,1
 1648 0190 7FDE0194 		addze 30,30
 1649              	.LVL131:
 1650 0194 7C63F214 		add 3,3,30
 1651              	.LVL132:
 1652              	.LBE1489:
 1653              		.loc 3 97 0
 1654 0198 83C10008 		lwz 30,8(1)
 1655              	.LBB1490:
 1656              		.loc 3 89 0
 1657 019c 7C000E70 		srawi 0,0,1
 1658 01a0 7C000194 		addze 0,0
 1659 01a4 7C601850 		subf 3,0,3
 1660              	.LVL133:
 1661              		.loc 3 96 0
 1662 01a8 801F002C 		lwz 0,44(31)
 1663              	.LBE1490:
 1664              		.loc 3 97 0
 1665 01ac 83E1000C 		lwz 31,12(1)
 1666              	.LVL134:
 1667 01b0 7C630214 		add 3,3,0
 1668              	.LVL135:
 1669 01b4 80010014 		lwz 0,20(1)
 1670 01b8 38210010 		addi 1,1,16
 1671              		.cfi_restore 30
 1672              		.cfi_restore 31
 1673              	.LCFI27:
 1674              		.cfi_def_cfa_offset 0
 1675 01bc 7C0803A6 		mtlr 0
 1676 01c0 4E800020 		blr
 1677              		.cfi_endproc
 1678              	.LFE1431:
 1679              		.size	_ZN10GuiElement7GetLeftEv, .-_ZN10GuiElement7GetLeftEv
 1680              		.align 2
 1681              		.globl _ZN10GuiElement6GetTopEv
 1682              		.type	_ZN10GuiElement6GetTopEv, @function
 1683              	_ZN10GuiElement6GetTopEv:
 1684              	.LFB1432:
 1685              		.loc 3 105 0
 1686              		.cfi_startproc
 1687              	.LVL136:
 1688 01c4 7C0802A6 		mflr 0
 1689 01c8 9421FFF0 		stwu 1,-16(1)
 1690              	.LCFI28:
 1691              		.cfi_def_cfa_offset 16
 1692              		.cfi_register 65, 0
 1693 01cc 93C10008 		stw 30,8(1)
 1694              	.LBB1491:
 1695              		.loc 3 106 0
 1696 01d0 3BC00000 		li 30,0
 1697              		.cfi_offset 30, -8
 1698              	.LBE1491:
 1699              		.loc 3 105 0
 1700 01d4 90010014 		stw 0,20(1)
 1701 01d8 93E1000C 		stw 31,12(1)
 1702              		.loc 3 105 0
 1703 01dc 7C7F1B78 		mr 31,3
 1704              		.cfi_offset 31, -4
 1705              		.cfi_offset 65, 4
 1706              	.LBB1492:
 1707              		.loc 3 109 0
 1708 01e0 81630060 		lwz 11,96(3)
 1709              		.loc 3 107 0
 1710 01e4 38600000 		li 3,0
 1711              	.LVL137:
 1712              		.loc 3 109 0
 1713 01e8 2F8B0000 		cmpwi 7,11,0
 1714 01ec 419E0030 		beq- 7,.L93
 1715              		.loc 3 111 0
 1716 01f0 812B0000 		lwz 9,0(11)
 1717 01f4 7D635B78 		mr 3,11
 1718 01f8 80090028 		lwz 0,40(9)
 1719 01fc 7C0903A6 		mtctr 0
 1720 0200 4E800421 		bctrl
 1721 0204 7C7E1B78 		mr 30,3
 1722              	.LVL138:
 1723              		.loc 3 112 0
 1724 0208 807F0060 		lwz 3,96(31)
 1725              	.LVL139:
 1726 020c 81230000 		lwz 9,0(3)
 1727 0210 80090014 		lwz 0,20(9)
 1728 0214 7C0903A6 		mtctr 0
 1729 0218 4E800421 		bctrl
 1730              	.LVL140:
 1731              	.L93:
 1732              		.loc 3 119 0
 1733 021c 801F0044 		lwz 0,68(31)
 1734              		.loc 3 115 0
 1735 0220 813F0068 		lwz 9,104(31)
 1736              		.loc 3 119 0
 1737 0224 700B0020 		andi. 11,0,32
 1738              		.loc 3 115 0
 1739 0228 7C634A14 		add 3,3,9
 1740              	.LVL141:
 1741              		.loc 3 119 0
 1742 022c 40820038 		bne- 0,.L98
 1743              		.loc 3 123 0
 1744 0230 70090040 		andi. 9,0,64
 1745 0234 41820010 		beq- 0,.L95
 1746              		.loc 3 125 0
 1747 0238 801F0028 		lwz 0,40(31)
 1748 023c 7C63F214 		add 3,3,30
 1749              	.LVL142:
 1750 0240 7C601850 		subf 3,0,3
 1751              	.LVL143:
 1752              	.L95:
 1753              		.loc 3 128 0
 1754 0244 801F0030 		lwz 0,48(31)
 1755              	.LBE1492:
 1756              		.loc 3 129 0
 1757 0248 83C10008 		lwz 30,8(1)
 1758              	.LVL144:
 1759 024c 7C630214 		add 3,3,0
 1760              	.LVL145:
 1761 0250 80010014 		lwz 0,20(1)
 1762 0254 83E1000C 		lwz 31,12(1)
 1763              	.LVL146:
 1764 0258 7C0803A6 		mtlr 0
 1765 025c 38210010 		addi 1,1,16
 1766              		.cfi_remember_state
 1767              	.LCFI29:
 1768              		.cfi_def_cfa_offset 0
 1769              		.cfi_restore 31
 1770              		.cfi_restore 30
 1771 0260 4E800020 		blr
 1772              	.LVL147:
 1773              	.L98:
 1774              	.LCFI30:
 1775              		.cfi_restore_state
 1776              	.LBB1493:
 1777              		.loc 3 121 0
 1778 0264 801F0028 		lwz 0,40(31)
 1779 0268 7FDE0E70 		srawi 30,30,1
 1780 026c 7FDE0194 		addze 30,30
 1781              	.LVL148:
 1782 0270 7C7E1A14 		add 3,30,3
 1783              	.LVL149:
 1784              	.LBE1493:
 1785              		.loc 3 129 0
 1786 0274 83C10008 		lwz 30,8(1)
 1787              	.LBB1494:
 1788              		.loc 3 121 0
 1789 0278 7C000E70 		srawi 0,0,1
 1790 027c 7C000194 		addze 0,0
 1791 0280 7C601850 		subf 3,0,3
 1792              	.LVL150:
 1793              		.loc 3 128 0
 1794 0284 801F0030 		lwz 0,48(31)
 1795              	.LBE1494:
 1796              		.loc 3 129 0
 1797 0288 83E1000C 		lwz 31,12(1)
 1798              	.LVL151:
 1799 028c 7C630214 		add 3,3,0
 1800              	.LVL152:
 1801 0290 80010014 		lwz 0,20(1)
 1802 0294 38210010 		addi 1,1,16
 1803              		.cfi_restore 30
 1804              		.cfi_restore 31
 1805              	.LCFI31:
 1806              		.cfi_def_cfa_offset 0
 1807 0298 7C0803A6 		mtlr 0
 1808 029c 4E800020 		blr
 1809              		.cfi_endproc
 1810              	.LFE1432:
 1811              		.size	_ZN10GuiElement6GetTopEv, .-_ZN10GuiElement6GetTopEv
 1812              		.align 2
 1813              		.globl _ZN10GuiElement9SetEffectEiii
 1814              		.type	_ZN10GuiElement9SetEffectEiii, @function
 1815              	_ZN10GuiElement9SetEffectEiii:
 1816              	.LFB1433:
 1817              		.loc 3 132 0
 1818              		.cfi_startproc
 1819              	.LVL153:
 1820 02a0 7C0802A6 		mflr 0
 1821 02a4 9421FFC0 		stwu 1,-64(1)
 1822              	.LCFI32:
 1823              		.cfi_def_cfa_offset 64
 1824              		.cfi_register 65, 0
 1825 02a8 93E1003C 		stw 31,60(1)
 1826 02ac 7C7F1B78 		mr 31,3
 1827              		.cfi_offset 31, -4
 1828 02b0 90010044 		stw 0,68(1)
 1829              		.loc 3 133 0
 1830 02b4 70800010 		andi. 0,4,16
 1831              		.cfi_offset 65, 4
 1832 02b8 41820024 		beq- 0,.L100
 1833              		.loc 3 136 0
 1834 02bc 70800001 		andi. 0,4,1
 1835 02c0 418200D0 		beq- 0,.L101
 1836              		.loc 3 138 0
 1837 02c4 70800040 		andi. 0,4,64
 1838 02c8 4082011C 		bne- 0,.L123
 1839              		.loc 3 141 0
 1840 02cc 3D200000 		lis 9,screenheight@ha
 1841 02d0 80090000 		lwz 0,screenheight@l(9)
 1842 02d4 7C0000D0 		neg 0,0
 1843 02d8 90030068 		stw 0,104(3)
 1844              	.LVL154:
 1845              	.L100:
 1846              		.loc 3 166 0
 1847 02dc 70800080 		andi. 0,4,128
 1848 02e0 41820014 		beq- 0,.L108
 1849              		.loc 3 166 0 is_stmt 0 discriminator 1
 1850 02e4 2F850000 		cmpwi 7,5,0
 1851 02e8 409D00CC 		ble- 7,.L109
 1852              		.loc 3 168 0 is_stmt 1
 1853 02ec 38000000 		li 0,0
 1854 02f0 901F006C 		stw 0,108(31)
 1855              	.L108:
 1856              		.loc 3 175 0
 1857 02f4 70800400 		andi. 0,4,1024
 1858 02f8 41820028 		beq- 0,.L110
 1859              		.loc 3 178 0
 1860 02fc 70801000 		andi. 0,4,4096
 1861 0300 41820048 		beq- 0,.L111
 1862              		.loc 3 180 0
 1863 0304 801F002C 		lwz 0,44(31)
 1864 0308 7F803000 		cmpw 7,0,6
 1865 030c 419C0054 		blt- 7,.L121
 1866              		.loc 3 180 0 is_stmt 0 discriminator 2
 1867 0310 409D0010 		ble- 7,.L110
 1868              	.L119:
 1869              		.loc 3 186 0 is_stmt 1 discriminator 1
 1870 0314 2F850000 		cmpwi 7,5,0
 1871 0318 409D0008 		ble- 7,.L110
 1872              	.L115:
 1873              		.loc 3 188 0
 1874 031c 7CA500D0 		neg 5,5
 1875              	.LVL155:
 1876              	.L110:
 1877              		.loc 3 192 0
 1878 0320 801F0078 		lwz 0,120(31)
 1879              		.loc 3 193 0
 1880 0324 90BF007C 		stw 5,124(31)
 1881              		.loc 3 192 0
 1882 0328 7C042378 		or 4,0,4
 1883              		.loc 3 195 0
 1884 032c 80010044 		lwz 0,68(1)
 1885              		.loc 3 192 0
 1886 0330 909F0078 		stw 4,120(31)
 1887              		.loc 3 195 0
 1888 0334 7C0803A6 		mtlr 0
 1889              		.loc 3 194 0
 1890 0338 90DF0080 		stw 6,128(31)
 1891              		.loc 3 195 0
 1892 033c 83E1003C 		lwz 31,60(1)
 1893              	.LVL156:
 1894 0340 38210040 		addi 1,1,64
 1895              		.cfi_remember_state
 1896              	.LCFI33:
 1897              		.cfi_def_cfa_offset 0
 1898              		.cfi_restore 31
 1899 0344 4E800020 		blr
 1900              	.LVL157:
 1901              	.L111:
 1902              	.LCFI34:
 1903              		.cfi_restore_state
 1904              		.loc 3 184 0
 1905 0348 70800800 		andi. 0,4,2048
 1906 034c 41A2FFD4 		beq- 0,.L110
 1907              		.loc 3 186 0
 1908 0350 801F0030 		lwz 0,48(31)
 1909 0354 7F860000 		cmpw 7,6,0
 1910 0358 41BCFFBC 		blt- 7,.L119
 1911              		.loc 3 186 0 is_stmt 0 discriminator 2
 1912 035c 40BDFFC4 		ble- 7,.L110
 1913              	.L121:
 1914              		.loc 3 186 0 discriminator 3
 1915 0360 2F850000 		cmpwi 7,5,0
 1916 0364 41BCFFB8 		blt- 7,.L115
 1917              	.LVL158:
 1918              		.loc 3 192 0 is_stmt 1
 1919 0368 801F0078 		lwz 0,120(31)
 1920              		.loc 3 193 0
 1921 036c 90BF007C 		stw 5,124(31)
 1922              		.loc 3 192 0
 1923 0370 7C042378 		or 4,0,4
 1924              		.loc 3 195 0
 1925 0374 80010044 		lwz 0,68(1)
 1926              		.loc 3 192 0
 1927 0378 909F0078 		stw 4,120(31)
 1928              		.loc 3 195 0
 1929 037c 7C0803A6 		mtlr 0
 1930              		.loc 3 194 0
 1931 0380 90DF0080 		stw 6,128(31)
 1932              		.loc 3 195 0
 1933 0384 83E1003C 		lwz 31,60(1)
 1934              	.LVL159:
 1935 0388 38210040 		addi 1,1,64
 1936              		.cfi_remember_state
 1937              		.cfi_restore 31
 1938              	.LCFI35:
 1939              		.cfi_def_cfa_offset 0
 1940 038c 4E800020 		blr
 1941              	.LVL160:
 1942              	.L101:
 1943              	.LCFI36:
 1944              		.cfi_restore_state
 1945              		.loc 3 143 0
 1946 0390 70800008 		andi. 0,4,8
 1947 0394 41820030 		beq- 0,.L103
 1948              		.loc 3 145 0
 1949 0398 70800040 		andi. 0,4,64
 1950 039c 4082011C 		bne- 0,.L124
 1951              		.loc 3 148 0
 1952 03a0 3D200000 		lis 9,screenwidth@ha
 1953 03a4 80090000 		lwz 0,screenwidth@l(9)
 1954 03a8 7C0000D0 		neg 0,0
 1955 03ac 90030064 		stw 0,100(3)
 1956 03b0 4BFFFF2C 		b .L100
 1957              	.LVL161:
 1958              	.L109:
 1959              		.loc 3 170 0 discriminator 1
 1960 03b4 419EFF40 		beq+ 7,.L108
 1961              		.loc 3 172 0
 1962 03b8 801F0038 		lwz 0,56(31)
 1963 03bc 901F006C 		stw 0,108(31)
 1964 03c0 4BFFFF34 		b .L108
 1965              	.LVL162:
 1966              	.L103:
 1967              		.loc 3 150 0
 1968 03c4 70800002 		andi. 0,4,2
 1969 03c8 41820084 		beq- 0,.L105
 1970              		.loc 3 152 0
 1971 03cc 70800040 		andi. 0,4,64
 1972 03d0 4082009C 		bne- 0,.L125
 1973              		.loc 3 155 0
 1974 03d4 3D200000 		lis 9,screenheight@ha
 1975 03d8 80090000 		lwz 0,screenheight@l(9)
 1976 03dc 90030068 		stw 0,104(3)
 1977 03e0 4BFFFEFC 		b .L100
 1978              	.L123:
 1979              		.loc 3 139 0
 1980 03e4 81230000 		lwz 9,0(3)
 1981 03e8 80090028 		lwz 0,40(9)
 1982 03ec 90810028 		stw 4,40(1)
 1983 03f0 7C0903A6 		mtctr 0
 1984 03f4 90A1002C 		stw 5,44(1)
 1985 03f8 90C10030 		stw 6,48(1)
 1986 03fc 4E800421 		bctrl
 1987              	.LVL163:
 1988 0400 3D200000 		lis 9,.LC1@ha
 1989 0404 7C0300D0 		neg 0,3
 1990 0408 C0090000 		lfs 0,.LC1@l(9)
 1991 040c 6C008000 		xoris 0,0,0x8000
 1992 0410 393F0068 		addi 9,31,104
 1993 0414 9001000C 		stw 0,12(1)
 1994 0418 3C004330 		lis 0,0x4330
 1995 041c 90010008 		stw 0,8(1)
 1996 0420 C9810008 		lfd 12,8(1)
 1997 0424 C1BF0040 		lfs 13,64(31)
 1998 0428 FC0C0028 		fsub 0,12,0
 1999 042c FC000018 		frsp 0,0
 2000              	.L117:
 2001              		.loc 3 153 0
 2002 0430 EC000372 		fmuls 0,0,13
 2003 0434 80810028 		lwz 4,40(1)
 2004 0438 80A1002C 		lwz 5,44(1)
 2005 043c 80C10030 		lwz 6,48(1)
 2006 0440 FC00001E 		fctiwz 0,0
 2007 0444 7C004FAE 		stfiwx 0,0,9
 2008 0448 4BFFFE94 		b .L100
 2009              	.LVL164:
 2010              	.L105:
 2011              		.loc 3 157 0
 2012 044c 70800004 		andi. 0,4,4
 2013 0450 41A2FE8C 		beq- 0,.L100
 2014              		.loc 3 159 0
 2015 0454 70800040 		andi. 0,4,64
 2016 0458 408200B0 		bne- 0,.L126
 2017              		.loc 3 162 0
 2018 045c 3D200000 		lis 9,screenwidth@ha
 2019 0460 80090000 		lwz 0,screenwidth@l(9)
 2020 0464 90030064 		stw 0,100(3)
 2021 0468 4BFFFE74 		b .L100
 2022              	.L125:
 2023              		.loc 3 153 0
 2024 046c 81230000 		lwz 9,0(3)
 2025 0470 80090028 		lwz 0,40(9)
 2026 0474 90810028 		stw 4,40(1)
 2027 0478 7C0903A6 		mtctr 0
 2028 047c 90A1002C 		stw 5,44(1)
 2029 0480 90C10030 		stw 6,48(1)
 2030 0484 4E800421 		bctrl
 2031              	.LVL165:
 2032 0488 3C004330 		lis 0,0x4330
 2033 048c 6C638000 		xoris 3,3,0x8000
 2034 0490 90010018 		stw 0,24(1)
 2035 0494 9061001C 		stw 3,28(1)
 2036 0498 3D200000 		lis 9,.LC1@ha
 2037 049c C0090000 		lfs 0,.LC1@l(9)
 2038 04a0 393F0068 		addi 9,31,104
 2039 04a4 C9810018 		lfd 12,24(1)
 2040 04a8 C1BF0040 		lfs 13,64(31)
 2041 04ac FC0C0028 		fsub 0,12,0
 2042 04b0 FC000018 		frsp 0,0
 2043 04b4 4BFFFF7C 		b .L117
 2044              	.LVL166:
 2045              	.L124:
 2046              		.loc 3 146 0
 2047 04b8 81230000 		lwz 9,0(3)
 2048 04bc 80090024 		lwz 0,36(9)
 2049 04c0 90810028 		stw 4,40(1)
 2050 04c4 7C0903A6 		mtctr 0
 2051 04c8 90A1002C 		stw 5,44(1)
 2052 04cc 90C10030 		stw 6,48(1)
 2053 04d0 4E800421 		bctrl
 2054              	.LVL167:
 2055 04d4 3D200000 		lis 9,.LC1@ha
 2056 04d8 7C0300D0 		neg 0,3
 2057 04dc C0090000 		lfs 0,.LC1@l(9)
 2058 04e0 6C008000 		xoris 0,0,0x8000
 2059 04e4 393F0064 		addi 9,31,100
 2060 04e8 90010014 		stw 0,20(1)
 2061 04ec 3C004330 		lis 0,0x4330
 2062 04f0 90010010 		stw 0,16(1)
 2063 04f4 C9810010 		lfd 12,16(1)
 2064 04f8 C1BF003C 		lfs 13,60(31)
 2065 04fc FC0C0028 		fsub 0,12,0
 2066              		.loc 3 153 0
 2067 0500 FC000018 		frsp 0,0
 2068 0504 4BFFFF2C 		b .L117
 2069              	.LVL168:
 2070              	.L126:
 2071              		.loc 3 160 0
 2072 0508 81230000 		lwz 9,0(3)
 2073 050c 80090024 		lwz 0,36(9)
 2074 0510 90810028 		stw 4,40(1)
 2075 0514 7C0903A6 		mtctr 0
 2076 0518 90A1002C 		stw 5,44(1)
 2077 051c 90C10030 		stw 6,48(1)
 2078 0520 4E800421 		bctrl
 2079              	.LVL169:
 2080 0524 3C004330 		lis 0,0x4330
 2081 0528 6C638000 		xoris 3,3,0x8000
 2082 052c 90010020 		stw 0,32(1)
 2083 0530 90610024 		stw 3,36(1)
 2084 0534 3D200000 		lis 9,.LC1@ha
 2085 0538 C1A90000 		lfs 13,.LC1@l(9)
 2086 053c 393F0064 		addi 9,31,100
 2087 0540 C9810020 		lfd 12,32(1)
 2088 0544 C01F003C 		lfs 0,60(31)
 2089 0548 FDAC6828 		fsub 13,12,13
 2090 054c FDA06818 		frsp 13,13
 2091 0550 4BFFFEE0 		b .L117
 2092              		.cfi_endproc
 2093              	.LFE1433:
 2094              		.size	_ZN10GuiElement9SetEffectEiii, .-_ZN10GuiElement9SetEffectEiii
 2095              		.align 2
 2096              		.globl _ZN10GuiElement15SetEffectOnOverEiii
 2097              		.type	_ZN10GuiElement15SetEffectOnOverEiii, @function
 2098              	_ZN10GuiElement15SetEffectOnOverEiii:
 2099              	.LFB1434:
 2100              		.loc 3 202 0
 2101              		.cfi_startproc
 2102              	.LVL170:
 2103              		.loc 3 203 0
 2104 0554 80030084 		lwz 0,132(3)
 2105              		.loc 3 206 0
 2106              		.loc 3 204 0
 2107 0558 90A30088 		stw 5,136(3)
 2108              		.loc 3 203 0
 2109 055c 7C002378 		or 0,0,4
 2110              		.loc 3 205 0
 2111 0560 90C3008C 		stw 6,140(3)
 2112              		.loc 3 203 0
 2113 0564 90030084 		stw 0,132(3)
 2114              		.loc 3 206 0
 2115 0568 4E800020 		blr
 2116              		.cfi_endproc
 2117              	.LFE1434:
 2118              		.size	_ZN10GuiElement15SetEffectOnOverEiii, .-_ZN10GuiElement15SetEffectOnOverEiii
 2119              		.align 2
 2120              		.globl _ZN10GuiElement12ResetEffectsEv
 2121              		.type	_ZN10GuiElement12ResetEffectsEv, @function
 2122              	_ZN10GuiElement12ResetEffectsEv:
 2123              	.LFB1435:
 2124              		.loc 3 209 0
 2125              		.cfi_startproc
 2126              	.LVL171:
 2127              		.loc 3 212 0
 2128 056c 3920FFFF 		li 9,-1
 2129              		.loc 3 210 0
 2130 0570 38000000 		li 0,0
 2131              		.loc 3 212 0
 2132 0574 9123006C 		stw 9,108(3)
 2133              		.loc 3 213 0
 2134 0578 3D200000 		lis 9,.LC4@ha
 2135 057c 8129000C 		lwz 9,.LC4@l(9)
 2136              		.loc 3 221 0
 2137              		.loc 3 210 0
 2138 0580 90030068 		stw 0,104(3)
 2139              		.loc 3 211 0
 2140 0584 90030064 		stw 0,100(3)
 2141              		.loc 3 213 0
 2142 0588 91230070 		stw 9,112(3)
 2143              		.loc 3 214 0
 2144 058c 90030074 		stw 0,116(3)
 2145              		.loc 3 215 0
 2146 0590 90030078 		stw 0,120(3)
 2147              		.loc 3 216 0
 2148 0594 9003007C 		stw 0,124(3)
 2149              		.loc 3 217 0
 2150 0598 90030080 		stw 0,128(3)
 2151              		.loc 3 218 0
 2152 059c 90030084 		stw 0,132(3)
 2153              		.loc 3 219 0
 2154 05a0 90030088 		stw 0,136(3)
 2155              		.loc 3 220 0
 2156 05a4 9003008C 		stw 0,140(3)
 2157              		.loc 3 221 0
 2158 05a8 4E800020 		blr
 2159              		.cfi_endproc
 2160              	.LFE1435:
 2161              		.size	_ZN10GuiElement12ResetEffectsEv, .-_ZN10GuiElement12ResetEffectsEv
 2162              		.align 2
 2163              		.globl _ZN10GuiElement13UpdateEffectsEv
 2164              		.type	_ZN10GuiElement13UpdateEffectsEv, @function
 2165              	_ZN10GuiElement13UpdateEffectsEv:
 2166              	.LFB1436:
 2167              		.loc 3 224 0
 2168              		.cfi_startproc
 2169              	.LVL172:
 2170 05ac 7C0802A6 		mflr 0
 2171 05b0 9421FFA0 		stwu 1,-96(1)
 2172              	.LCFI37:
 2173              		.cfi_def_cfa_offset 96
 2174              		.cfi_register 65, 0
 2175 05b4 93E1005C 		stw 31,92(1)
 2176 05b8 7C7F1B78 		mr 31,3
 2177              		.cfi_offset 31, -4
 2178 05bc 90010064 		stw 0,100(1)
 2179 05c0 93A10054 		stw 29,84(1)
 2180              	.LBB1495:
 2181              		.loc 3 225 0
 2182 05c4 80030078 		lwz 0,120(3)
 2183              		.cfi_offset 29, -12
 2184              		.cfi_offset 65, 4
 2185              	.LBE1495:
 2186              		.loc 3 224 0
 2187 05c8 93C10058 		stw 30,88(1)
 2188              	.LBB1556:
 2189              		.loc 3 225 0
 2190 05cc 70090070 		andi. 9,0,112
 2191 05d0 418200F4 		beq- 0,.L130
 2192              		.cfi_offset 30, -8
 2193              		.loc 3 227 0
 2194 05d4 701E0010 		andi. 30,0,16
 2195 05d8 418202AC 		beq- 0,.L131
 2196              		.loc 3 229 0
 2197 05dc 70090008 		andi. 9,0,8
 2198 05e0 418203C4 		beq- 0,.L132
 2199              		.loc 3 231 0
 2200 05e4 81630064 		lwz 11,100(3)
 2201 05e8 8123007C 		lwz 9,124(3)
 2202 05ec 7D2B4A14 		add 9,11,9
 2203              		.loc 3 233 0
 2204 05f0 2F890000 		cmpwi 7,9,0
 2205              		.loc 3 231 0
 2206 05f4 91230064 		stw 9,100(3)
 2207              		.loc 3 233 0
 2208 05f8 419C00CC 		blt- 7,.L130
 2209              		.loc 3 235 0
 2210 05fc 38000000 		li 0,0
 2211 0600 90030064 		stw 0,100(3)
 2212              		.loc 3 236 0
 2213 0604 90030078 		stw 0,120(3)
 2214              	.LBE1556:
 2215              		.loc 3 224 0
 2216 0608 38000000 		li 0,0
 2217              	.LVL173:
 2218              	.L158:
 2219              	.LBB1557:
 2220              		.loc 3 333 0
 2221 060c 5409056A 		rlwinm 9,0,0,21,21
 2222              	.LBB1496:
 2223              		.loc 3 336 0
 2224 0610 2F890000 		cmpwi 7,9,0
 2225 0614 419E0194 		beq- 7,.L164
 2226              	.LBB1497:
 2227              		.loc 3 338 0
 2228 0618 700B0800 		andi. 11,0,2048
 2229 061c 41820184 		beq- 0,.L165
 2230              	.LBB1498:
 2231              		.loc 3 340 0
 2232 0620 813F007C 		lwz 9,124(31)
 2233 0624 2F890000 		cmpwi 7,9,0
 2234 0628 409D03F8 		ble- 7,.L166
 2235              		.loc 3 340 0 is_stmt 0 discriminator 1
 2236 062c 815F0068 		lwz 10,104(31)
 2237 0630 811F0030 		lwz 8,48(31)
 2238 0634 817F0080 		lwz 11,128(31)
 2239 0638 7CEA4214 		add 7,10,8
 2240 063c 7F875800 		cmpw 7,7,11
 2241 0640 409C0444 		bge- 7,.L167
 2242              	.LVL174:
 2243              	.LBB1499:
 2244              		.loc 3 342 0 is_stmt 1
 2245 0644 7D295215 		add. 9,9,10
 2246 0648 38E00000 		li 7,0
 2247 064c 41800010 		blt- 0,.L168
 2248              		.loc 3 342 0 is_stmt 0 discriminator 1
 2249 0650 7CE85850 		subf 7,8,11
 2250 0654 7F874800 		cmpw 7,7,9
 2251 0658 419D0490 		bgt- 7,.L200
 2252              	.L168:
 2253              		.loc 3 342 0 discriminator 6
 2254 065c 90FF0068 		stw 7,104(31)
 2255 0660 540004A4 		rlwinm 0,0,0,18,18
 2256              	.LBE1499:
 2257 0664 48000148 		b .L170
 2258              	.LVL175:
 2259              	.L136:
 2260              	.LBE1498:
 2261              	.LBE1497:
 2262              	.LBE1496:
 2263              		.loc 3 281 0 is_stmt 1
 2264 0668 701E0004 		andi. 30,0,4
 2265 066c 40820490 		bne- 0,.L201
 2266              		.loc 3 290 0
 2267 0670 70090001 		andi. 9,0,1
 2268 0674 4182058C 		beq- 0,.L144
 2269              		.loc 3 294 0
 2270 0678 3D200000 		lis 9,screenheight@ha
 2271              		.loc 3 292 0
 2272 067c 83A30068 		lwz 29,104(3)
 2273 0680 8163007C 		lwz 11,124(3)
 2274              		.loc 3 294 0
 2275 0684 81290000 		lwz 9,screenheight@l(9)
 2276              		.loc 3 292 0
 2277 0688 7FABE850 		subf 29,11,29
 2278              		.loc 3 294 0
 2279 068c 7D2900D0 		neg 9,9
 2280              		.loc 3 292 0
 2281 0690 93A30068 		stw 29,104(3)
 2282              		.loc 3 294 0
 2283 0694 7F9D4800 		cmpw 7,29,9
 2284 0698 409D0458 		ble- 7,.L147
 2285              		.loc 3 296 0
 2286 069c 70090040 		andi. 9,0,64
 2287 06a0 41A20024 		beq+ 0,.L130
 2288              		.loc 3 296 0 is_stmt 0 discriminator 1
 2289 06a4 81230000 		lwz 9,0(3)
 2290 06a8 80090028 		lwz 0,40(9)
 2291              	.L199:
 2292 06ac 7C0903A6 		mtctr 0
 2293 06b0 4E800421 		bctrl
 2294 06b4 7C6300D0 		neg 3,3
 2295 06b8 7F9D1800 		cmpw 7,29,3
 2296 06bc 409D0434 		ble- 7,.L147
 2297              	.L198:
 2298              		.loc 3 305 0 is_stmt 1
 2299 06c0 801F0078 		lwz 0,120(31)
 2300              	.L130:
 2301              		.loc 3 310 0
 2302 06c4 70090080 		andi. 9,0,128
 2303 06c8 4182002C 		beq- 0,.L151
 2304              		.loc 3 312 0
 2305 06cc 813F007C 		lwz 9,124(31)
 2306 06d0 817F006C 		lwz 11,108(31)
 2307              		.loc 3 314 0
 2308 06d4 2F890000 		cmpwi 7,9,0
 2309              		.loc 3 312 0
 2310 06d8 7D295A14 		add 9,9,11
 2311 06dc 913F006C 		stw 9,108(31)
 2312              		.loc 3 314 0
 2313 06e0 419C0230 		blt- 7,.L202
 2314              		.loc 3 319 0
 2315 06e4 419E0010 		beq- 7,.L151
 2316              		.loc 3 319 0 is_stmt 0 discriminator 1
 2317 06e8 817F0038 		lwz 11,56(31)
 2318 06ec 7F895800 		cmpw 7,9,11
 2319 06f0 409C01DC 		bge- 7,.L157
 2320              	.L151:
 2321              		.loc 3 322 0 is_stmt 1
 2322 06f4 540905EE 		rlwinm 9,0,0,23,23
 2323              		.loc 3 325 0
 2324 06f8 2F890000 		cmpwi 7,9,0
 2325 06fc 41BEFF10 		beq- 7,.L158
 2326              		.loc 3 327 0
 2327 0700 813F007C 		lwz 9,124(31)
 2328 0704 3D604330 		lis 11,0x4330
 2329 0708 91610018 		stw 11,24(1)
 2330 070c 6D2A8000 		xoris 10,9,0x8000
 2331              		.loc 3 329 0
 2332 0710 2F890000 		cmpwi 7,9,0
 2333              		.loc 3 327 0
 2334 0714 9141001C 		stw 10,28(1)
 2335 0718 3D400000 		lis 10,.LC1@ha
 2336 071c C1AA0000 		lfs 13,.LC1@l(10)
 2337 0720 3D400000 		lis 10,.LC6@ha
 2338 0724 C9810018 		lfd 12,24(1)
 2339 0728 C00A0010 		lfs 0,.LC6@l(10)
 2340 072c FD8C6828 		fsub 12,12,13
 2341 0730 C17F0070 		lfs 11,112(31)
 2342 0734 FD8C0024 		fdiv 12,12,0
 2343 0738 FD8B602A 		fadd 12,11,12
 2344 073c FD806018 		frsp 12,12
 2345 0740 D19F0070 		stfs 12,112(31)
 2346              		.loc 3 329 0
 2347 0744 419C01E8 		blt- 7,.L203
 2348              		.loc 3 329 0 is_stmt 0 discriminator 2
 2349 0748 41BEFEC4 		beq- 7,.L158
 2350              		.loc 3 329 0 discriminator 3
 2351 074c 813F0080 		lwz 9,128(31)
 2352 0750 91610028 		stw 11,40(1)
 2353 0754 6D298000 		xoris 9,9,0x8000
 2354 0758 9121002C 		stw 9,44(1)
 2355 075c C9610028 		lfd 11,40(1)
 2356 0760 FDAB6828 		fsub 13,11,13
 2357 0764 FC0D0024 		fdiv 0,13,0
 2358 0768 FF8C0000 		fcmpu 7,12,0
 2359 076c 4FDDF382 		cror 30,29,30
 2360 0770 40BEFE9C 		bne- 7,.L158
 2361              	.L160:
 2362              		.loc 3 332 0 is_stmt 1
 2363 0774 FC000018 		frsp 0,0
 2364              		.loc 3 333 0
 2365 0778 38000000 		li 0,0
 2366 077c 901F0078 		stw 0,120(31)
 2367              		.loc 3 332 0
 2368 0780 D01F0070 		stfs 0,112(31)
 2369              	.L129:
 2370              	.LBE1557:
 2371              		.loc 3 394 0
 2372 0784 80010064 		lwz 0,100(1)
 2373 0788 83A10054 		lwz 29,84(1)
 2374 078c 7C0803A6 		mtlr 0
 2375 0790 83C10058 		lwz 30,88(1)
 2376 0794 83E1005C 		lwz 31,92(1)
 2377              	.LVL176:
 2378 0798 38210060 		addi 1,1,96
 2379              		.cfi_remember_state
 2380              	.LCFI38:
 2381              		.cfi_def_cfa_offset 0
 2382              		.cfi_restore 31
 2383              		.cfi_restore 30
 2384              		.cfi_restore 29
 2385 079c 4E800020 		blr
 2386              	.LVL177:
 2387              	.L165:
 2388              	.LCFI39:
 2389              		.cfi_restore_state
 2390              	.LBB1558:
 2391              	.LBB1535:
 2392              	.LBB1528:
 2393              	.LBB1504:
 2394              		.loc 3 355 0
 2395 07a0 70091000 		andi. 9,0,4096
 2396 07a4 408201B4 		bne- 0,.L174
 2397              	.L164:
 2398              	.LBB1505:
 2399              	.LBB1506:
 2400              		.loc 3 369 0
 2401 07a8 540004A4 		rlwinm 0,0,0,18,18
 2402              	.L170:
 2403              	.LBE1506:
 2404              	.LBE1505:
 2405              	.LBE1504:
 2406              	.LBE1528:
 2407              	.LBE1535:
 2408              	.LBB1536:
 2409              		.loc 3 373 0
 2410 07ac 2F800000 		cmpwi 7,0,0
 2411 07b0 41BEFFD4 		beq- 7,.L129
 2412              	.LVL178:
 2413              	.LBB1537:
 2414              		.loc 3 377 0
 2415 07b4 815F0080 		lwz 10,128(31)
 2416 07b8 3C004330 		lis 0,0x4330
 2417 07bc 90010030 		stw 0,48(1)
 2418 07c0 3D600000 		lis 11,.LC1@ha
 2419 07c4 6D498000 		xoris 9,10,0x8000
 2420 07c8 C18B0000 		lfs 12,.LC1@l(11)
 2421 07cc 91210034 		stw 9,52(1)
 2422 07d0 3D200000 		lis 9,.LC7@ha
 2423 07d4 C1690014 		lfs 11,.LC7@l(9)
 2424 07d8 C9A10030 		lfd 13,48(1)
 2425 07dc C01F0070 		lfs 0,112(31)
 2426 07e0 FDAD6028 		fsub 13,13,12
 2427 07e4 FDA06818 		frsp 13,13
 2428 07e8 EDAD02F2 		fmuls 13,13,11
 2429 07ec FF806800 		fcmpu 7,0,13
 2430 07f0 4FDCF382 		cror 30,28,30
 2431 07f4 409E0010 		bne- 7,.L182
 2432              		.loc 3 377 0 is_stmt 0 discriminator 1
 2433 07f8 811F0074 		lwz 8,116(31)
 2434 07fc 2F880000 		cmpwi 7,8,0
 2435 0800 419E00E0 		beq- 7,.L204
 2436              	.L182:
 2437              		.loc 3 381 0 is_stmt 1
 2438 0804 FF806800 		fcmpu 7,0,13
 2439 0808 409D000C 		bng- 7,.L184
 2440              		.loc 3 383 0
 2441 080c 38000001 		li 0,1
 2442 0810 901F0074 		stw 0,116(31)
 2443              	.L184:
 2444              		.loc 3 385 0
 2445 0814 394AFFF6 		addi 10,10,-10
 2446 0818 3C004330 		lis 0,0x4330
 2447 081c 6D4A8000 		xoris 10,10,0x8000
 2448 0820 90010040 		stw 0,64(1)
 2449 0824 91410044 		stw 10,68(1)
 2450 0828 C18B0000 		lfs 12,.LC1@l(11)
 2451 082c C9A10040 		lfd 13,64(1)
 2452 0830 C1690014 		lfs 11,.LC7@l(9)
 2453 0834 FDAD6028 		fsub 13,13,12
 2454 0838 FDA06818 		frsp 13,13
 2455 083c EDAD02F2 		fmuls 13,13,11
 2456 0840 FF806800 		fcmpu 7,0,13
 2457 0844 4FDDF382 		cror 30,29,30
 2458 0848 409E0010 		bne- 7,.L186
 2459              		.loc 3 385 0 is_stmt 0 discriminator 1
 2460 084c 813F0074 		lwz 9,116(31)
 2461 0850 2F890000 		cmpwi 7,9,0
 2462 0854 409E0180 		bne- 7,.L205
 2463              	.L186:
 2464              		.loc 3 389 0 is_stmt 1
 2465 0858 FF806800 		fcmpu 7,0,13
 2466 085c 40BCFF28 		bnl- 7,.L129
 2467              		.loc 3 391 0
 2468 0860 38000000 		li 0,0
 2469              	.LBE1537:
 2470              	.LBE1536:
 2471              	.LBE1558:
 2472              		.loc 3 394 0
 2473 0864 83A10054 		lwz 29,84(1)
 2474              	.LBB1559:
 2475              	.LBB1544:
 2476              	.LBB1538:
 2477              		.loc 3 391 0
 2478 0868 901F0074 		stw 0,116(31)
 2479              	.LBE1538:
 2480              	.LBE1544:
 2481              	.LBE1559:
 2482              		.loc 3 394 0
 2483 086c 80010064 		lwz 0,100(1)
 2484 0870 83C10058 		lwz 30,88(1)
 2485 0874 7C0803A6 		mtlr 0
 2486 0878 83E1005C 		lwz 31,92(1)
 2487              	.LVL179:
 2488 087c 38210060 		addi 1,1,96
 2489              		.cfi_remember_state
 2490              		.cfi_restore 29
 2491              		.cfi_restore 30
 2492              		.cfi_restore 31
 2493              	.LCFI40:
 2494              		.cfi_def_cfa_offset 0
 2495 0880 4E800020 		blr
 2496              	.LVL180:
 2497              	.L131:
 2498              	.LCFI41:
 2499              		.cfi_restore_state
 2500              	.LBB1560:
 2501              		.loc 3 270 0
 2502 0884 70090020 		andi. 9,0,32
 2503 0888 41A2FE3C 		beq- 0,.L130
 2504              		.loc 3 272 0
 2505 088c 701D0008 		andi. 29,0,8
 2506 0890 41A2FDD8 		beq- 0,.L136
 2507              		.loc 3 276 0
 2508 0894 3D200000 		lis 9,screenwidth@ha
 2509              		.loc 3 274 0
 2510 0898 83A30064 		lwz 29,100(3)
 2511 089c 8163007C 		lwz 11,124(3)
 2512              		.loc 3 276 0
 2513 08a0 81290000 		lwz 9,screenwidth@l(9)
 2514              		.loc 3 274 0
 2515 08a4 7FABE850 		subf 29,11,29
 2516              		.loc 3 276 0
 2517 08a8 7D2900D0 		neg 9,9
 2518              		.loc 3 274 0
 2519 08ac 93A30064 		stw 29,100(3)
 2520              		.loc 3 276 0
 2521 08b0 7F9D4800 		cmpw 7,29,9
 2522 08b4 409D023C 		ble- 7,.L147
 2523              		.loc 3 278 0
 2524 08b8 700B0040 		andi. 11,0,64
 2525 08bc 4182FE08 		beq+ 0,.L130
 2526              		.loc 3 278 0 is_stmt 0 discriminator 1
 2527 08c0 81230000 		lwz 9,0(3)
 2528 08c4 80090024 		lwz 0,36(9)
 2529 08c8 4BFFFDE4 		b .L199
 2530              	.LVL181:
 2531              	.L157:
 2532              		.loc 3 322 0 is_stmt 1
 2533 08cc 38000000 		li 0,0
 2534              		.loc 3 321 0
 2535 08d0 917F006C 		stw 11,108(31)
 2536              		.loc 3 322 0
 2537 08d4 901F0078 		stw 0,120(31)
 2538              	.LBB1545:
 2539              	.LBB1529:
 2540              	.LBB1520:
 2541              	.LBB1515:
 2542              	.LBB1510:
 2543              	.LBB1507:
 2544              		.loc 3 363 0
 2545 08d8 38000000 		li 0,0
 2546 08dc 4BFFFECC 		b .L164
 2547              	.LVL182:
 2548              	.L204:
 2549              	.LBE1507:
 2550              	.LBE1510:
 2551              	.LBE1515:
 2552              	.LBE1520:
 2553              	.LBE1529:
 2554              	.LBE1545:
 2555              	.LBB1546:
 2556              	.LBB1539:
 2557              		.loc 3 379 0
 2558 08e0 811F007C 		lwz 8,124(31)
 2559 08e4 90010038 		stw 0,56(1)
 2560 08e8 6D008000 		xoris 0,8,0x8000
 2561 08ec 3D000000 		lis 8,.LC8@ha
 2562 08f0 9001003C 		stw 0,60(1)
 2563 08f4 C9A10038 		lfd 13,56(1)
 2564 08f8 FD8D6028 		fsub 12,13,12
 2565 08fc C1A80018 		lfs 13,.LC8@l(8)
 2566 0900 FD806018 		frsp 12,12
 2567 0904 EC0C037A 		fmadds 0,12,13,0
 2568 0908 D01F0070 		stfs 0,112(31)
 2569 090c 4BFFFF08 		b .L184
 2570              	.LVL183:
 2571              	.L202:
 2572              	.LBE1539:
 2573              	.LBE1546:
 2574              		.loc 3 314 0 discriminator 1
 2575 0910 2F890000 		cmpwi 7,9,0
 2576 0914 419DFDE0 		bgt+ 7,.L151
 2577              		.loc 3 316 0
 2578 0918 38000000 		li 0,0
 2579 091c 901F006C 		stw 0,108(31)
 2580              		.loc 3 317 0
 2581 0920 901F0078 		stw 0,120(31)
 2582              	.LBB1547:
 2583              	.LBB1530:
 2584              	.LBB1521:
 2585              	.LBB1516:
 2586              	.LBB1511:
 2587              	.LBB1508:
 2588              		.loc 3 363 0
 2589 0924 38000000 		li 0,0
 2590 0928 4BFFFE80 		b .L164
 2591              	.L203:
 2592              	.LBE1508:
 2593              	.LBE1511:
 2594              	.LBE1516:
 2595              	.LBE1521:
 2596              	.LBE1530:
 2597              	.LBE1547:
 2598              		.loc 3 329 0 discriminator 1
 2599 092c 813F0080 		lwz 9,128(31)
 2600 0930 91610020 		stw 11,32(1)
 2601 0934 6D298000 		xoris 9,9,0x8000
 2602 0938 91210024 		stw 9,36(1)
 2603 093c C9610020 		lfd 11,32(1)
 2604 0940 FDAB6828 		fsub 13,11,13
 2605 0944 FC0D0024 		fdiv 0,13,0
 2606 0948 FF8C0000 		fcmpu 7,12,0
 2607 094c 4FDCF382 		cror 30,28,30
 2608 0950 41BEFE24 		beq- 7,.L160
 2609 0954 4BFFFCB8 		b .L158
 2610              	.L174:
 2611              	.LBB1548:
 2612              	.LBB1531:
 2613              	.LBB1522:
 2614              	.LBB1517:
 2615              		.loc 3 357 0
 2616 0958 813F007C 		lwz 9,124(31)
 2617 095c 2F890000 		cmpwi 7,9,0
 2618 0960 409D0258 		ble- 7,.L175
 2619              		.loc 3 357 0 is_stmt 0 discriminator 1
 2620 0964 815F0064 		lwz 10,100(31)
 2621 0968 811F002C 		lwz 8,44(31)
 2622 096c 817F0080 		lwz 11,128(31)
 2623 0970 7CEA4214 		add 7,10,8
 2624 0974 7F875800 		cmpw 7,7,11
 2625 0978 409C00F4 		bge- 7,.L176
 2626              	.LVL184:
 2627              	.LBB1512:
 2628              		.loc 3 359 0 is_stmt 1
 2629 097c 7D295215 		add. 9,9,10
 2630 0980 38E00000 		li 7,0
 2631 0984 41800014 		blt- 0,.L177
 2632              		.loc 3 359 0 is_stmt 0 discriminator 1
 2633 0988 7CE85850 		subf 7,8,11
 2634 098c 7F874800 		cmpw 7,7,9
 2635 0990 409D0008 		ble- 7,.L177
 2636 0994 7D274B78 		mr 7,9
 2637              	.L177:
 2638              		.loc 3 359 0 discriminator 6
 2639 0998 90FF0064 		stw 7,100(31)
 2640 099c 540004A4 		rlwinm 0,0,0,18,18
 2641              	.LBE1512:
 2642 09a0 4BFFFE0C 		b .L170
 2643              	.LVL185:
 2644              	.L132:
 2645              	.LBE1517:
 2646              	.LBE1522:
 2647              	.LBE1531:
 2648              	.LBE1548:
 2649              		.loc 3 239 0 is_stmt 1
 2650 09a4 700B0004 		andi. 11,0,4
 2651 09a8 41820108 		beq- 0,.L134
 2652              		.loc 3 241 0
 2653 09ac 81430064 		lwz 10,100(3)
 2654 09b0 8163007C 		lwz 11,124(3)
 2655 09b4 7D6B5050 		subf 11,11,10
 2656              		.loc 3 243 0
 2657 09b8 2F8B0000 		cmpwi 7,11,0
 2658              		.loc 3 241 0
 2659 09bc 91630064 		stw 11,100(3)
 2660              		.loc 3 243 0
 2661 09c0 419DFD04 		bgt+ 7,.L130
 2662              		.loc 3 245 0
 2663 09c4 91230064 		stw 9,100(3)
 2664              	.LBE1560:
 2665              		.loc 3 224 0
 2666 09c8 38000000 		li 0,0
 2667              	.LBB1561:
 2668              		.loc 3 246 0
 2669 09cc 91230078 		stw 9,120(3)
 2670 09d0 4BFFFC3C 		b .L158
 2671              	.LVL186:
 2672              	.L205:
 2673              	.LBB1549:
 2674              	.LBB1540:
 2675              		.loc 3 387 0
 2676 09d4 813F007C 		lwz 9,124(31)
 2677 09d8 90010048 		stw 0,72(1)
 2678 09dc 6D208000 		xoris 0,9,0x8000
 2679 09e0 3D200000 		lis 9,.LC8@ha
 2680 09e4 9001004C 		stw 0,76(1)
 2681              	.LBE1540:
 2682              	.LBE1549:
 2683              	.LBE1561:
 2684              		.loc 3 394 0
 2685 09e8 80010064 		lwz 0,100(1)
 2686              	.LBB1562:
 2687              	.LBB1550:
 2688              	.LBB1541:
 2689              		.loc 3 387 0
 2690 09ec C9A10048 		lfd 13,72(1)
 2691              	.LBE1541:
 2692              	.LBE1550:
 2693              	.LBE1562:
 2694              		.loc 3 394 0
 2695 09f0 7C0803A6 		mtlr 0
 2696 09f4 83A10054 		lwz 29,84(1)
 2697              	.LBB1563:
 2698              	.LBB1551:
 2699              	.LBB1542:
 2700              		.loc 3 387 0
 2701 09f8 FD8D6028 		fsub 12,13,12
 2702 09fc C1A90018 		lfs 13,.LC8@l(9)
 2703              	.LBE1542:
 2704              	.LBE1551:
 2705              	.LBE1563:
 2706              		.loc 3 394 0
 2707 0a00 83C10058 		lwz 30,88(1)
 2708              	.LBB1564:
 2709              	.LBB1552:
 2710              	.LBB1543:
 2711              		.loc 3 387 0
 2712 0a04 FD806018 		frsp 12,12
 2713              		.loc 3 223 0
 2714 0a08 FD806050 		fneg 12,12
 2715              		.loc 3 387 0
 2716 0a0c EC0C037A 		fmadds 0,12,13,0
 2717 0a10 D01F0070 		stfs 0,112(31)
 2718              	.LBE1543:
 2719              	.LBE1552:
 2720              	.LBE1564:
 2721              		.loc 3 394 0
 2722 0a14 83E1005C 		lwz 31,92(1)
 2723              	.LVL187:
 2724 0a18 38210060 		addi 1,1,96
 2725              		.cfi_remember_state
 2726              		.cfi_restore 29
 2727              		.cfi_restore 30
 2728              		.cfi_restore 31
 2729              	.LCFI42:
 2730              		.cfi_def_cfa_offset 0
 2731 0a1c 4E800020 		blr
 2732              	.LVL188:
 2733              	.L166:
 2734              	.LCFI43:
 2735              		.cfi_restore_state
 2736              	.LBB1565:
 2737              	.LBB1553:
 2738              	.LBB1532:
 2739              	.LBB1523:
 2740              	.LBB1500:
 2741              		.loc 3 344 0
 2742 0a20 419E0060 		beq- 7,.L206
 2743              		.loc 3 344 0 is_stmt 0 discriminator 1
 2744 0a24 811F0068 		lwz 8,104(31)
 2745 0a28 815F0030 		lwz 10,48(31)
 2746 0a2c 817F0080 		lwz 11,128(31)
 2747 0a30 7CE85214 		add 7,8,10
 2748 0a34 7F875800 		cmpw 7,7,11
 2749 0a38 409D004C 		ble- 7,.L167
 2750              	.LBB1501:
 2751              		.loc 3 346 0 is_stmt 1
 2752 0a3c 7D294214 		add 9,9,8
 2753              	.LVL189:
 2754 0a40 7D6A5850 		subf 11,10,11
 2755              	.LVL190:
 2756 0a44 7F895800 		cmpw 7,9,11
 2757 0a48 419C0014 		blt- 7,.L172
 2758              		.loc 3 346 0 is_stmt 0 discriminator 1
 2759 0a4c 2F890000 		cmpwi 7,9,0
 2760 0a50 7D2B4B78 		mr 11,9
 2761              	.LVL191:
 2762 0a54 409D0008 		ble- 7,.L172
 2763 0a58 39600000 		li 11,0
 2764              	.L172:
 2765              		.loc 3 346 0 discriminator 6
 2766 0a5c 917F0068 		stw 11,104(31)
 2767 0a60 540004A4 		rlwinm 0,0,0,18,18
 2768              	.LBE1501:
 2769 0a64 4BFFFD48 		b .L170
 2770              	.LVL192:
 2771              	.L208:
 2772              	.LBE1500:
 2773              	.LBE1523:
 2774              	.LBB1524:
 2775              	.LBB1518:
 2776              	.LBB1513:
 2777              		.loc 3 361 0 is_stmt 1
 2778 0a68 817F0080 		lwz 11,128(31)
 2779              	.L176:
 2780              		.loc 3 367 0
 2781 0a6c 38000000 		li 0,0
 2782              		.loc 3 368 0
 2783 0a70 917F002C 		stw 11,44(31)
 2784              		.loc 3 367 0
 2785 0a74 901F0064 		stw 0,100(31)
 2786              		.loc 3 369 0
 2787 0a78 901F0078 		stw 0,120(31)
 2788 0a7c 4BFFFD08 		b .L129
 2789              	.L206:
 2790              	.LBE1513:
 2791              	.LBE1518:
 2792              	.LBE1524:
 2793              	.LBB1525:
 2794              	.LBB1502:
 2795              		.loc 3 344 0
 2796 0a80 817F0080 		lwz 11,128(31)
 2797              	.L167:
 2798              		.loc 3 350 0
 2799 0a84 38000000 		li 0,0
 2800              		.loc 3 351 0
 2801 0a88 917F0030 		stw 11,48(31)
 2802              		.loc 3 350 0
 2803 0a8c 901F0068 		stw 0,104(31)
 2804              		.loc 3 352 0
 2805 0a90 901F0078 		stw 0,120(31)
 2806              	.LBE1502:
 2807              	.LBE1525:
 2808              	.LBE1532:
 2809              	.LBE1553:
 2810              	.LBE1565:
 2811              		.loc 3 394 0
 2812 0a94 80010064 		lwz 0,100(1)
 2813 0a98 83A10054 		lwz 29,84(1)
 2814 0a9c 7C0803A6 		mtlr 0
 2815 0aa0 83C10058 		lwz 30,88(1)
 2816 0aa4 83E1005C 		lwz 31,92(1)
 2817              	.LVL193:
 2818 0aa8 38210060 		addi 1,1,96
 2819              		.cfi_remember_state
 2820              		.cfi_restore 29
 2821              		.cfi_restore 30
 2822              		.cfi_restore 31
 2823              	.LCFI44:
 2824              		.cfi_def_cfa_offset 0
 2825 0aac 4E800020 		blr
 2826              	.LVL194:
 2827              	.L134:
 2828              	.LCFI45:
 2829              		.cfi_restore_state
 2830              	.LBB1566:
 2831              		.loc 3 249 0
 2832 0ab0 70090001 		andi. 9,0,1
 2833 0ab4 408200DC 		bne- 0,.L207
 2834              		.loc 3 259 0
 2835 0ab8 700B0002 		andi. 11,0,2
 2836 0abc 41A2FC08 		beq- 0,.L130
 2837              		.loc 3 261 0
 2838 0ac0 81430068 		lwz 10,104(3)
 2839 0ac4 8163007C 		lwz 11,124(3)
 2840 0ac8 7D6B5050 		subf 11,11,10
 2841              		.loc 3 263 0
 2842 0acc 2F8B0000 		cmpwi 7,11,0
 2843              		.loc 3 261 0
 2844 0ad0 91630068 		stw 11,104(3)
 2845              		.loc 3 263 0
 2846 0ad4 419DFBF0 		bgt+ 7,.L130
 2847              		.loc 3 265 0
 2848 0ad8 91230068 		stw 9,104(3)
 2849              	.LBE1566:
 2850              		.loc 3 224 0
 2851 0adc 38000000 		li 0,0
 2852              	.LBB1567:
 2853              		.loc 3 266 0
 2854 0ae0 91230078 		stw 9,120(3)
 2855 0ae4 4BFFFB28 		b .L158
 2856              	.LVL195:
 2857              	.L200:
 2858              	.LBB1554:
 2859              	.LBB1533:
 2860              	.LBB1526:
 2861              	.LBB1503:
 2862              		.loc 3 342 0 discriminator 1
 2863 0ae8 7D274B78 		mr 7,9
 2864              	.LVL196:
 2865 0aec 4BFFFB70 		b .L168
 2866              	.LVL197:
 2867              	.L147:
 2868              	.LBE1503:
 2869              	.LBE1526:
 2870              	.LBE1533:
 2871              	.LBE1554:
 2872              		.loc 3 297 0 discriminator 4
 2873 0af0 93DF0078 		stw 30,120(31)
 2874              	.LBE1567:
 2875              		.loc 3 224 0 discriminator 4
 2876 0af4 38000000 		li 0,0
 2877 0af8 4BFFFB14 		b .L158
 2878              	.L201:
 2879              	.LBB1568:
 2880              		.loc 3 283 0
 2881 0afc 83C30064 		lwz 30,100(3)
 2882              		.loc 3 285 0
 2883 0b00 3D200000 		lis 9,screenwidth@ha
 2884              		.loc 3 283 0
 2885 0b04 8163007C 		lwz 11,124(3)
 2886              		.loc 3 285 0
 2887 0b08 81290000 		lwz 9,screenwidth@l(9)
 2888              		.loc 3 283 0
 2889 0b0c 7FDE5A14 		add 30,30,11
 2890              		.loc 3 285 0
 2891 0b10 7F9E4800 		cmpw 7,30,9
 2892              		.loc 3 283 0
 2893 0b14 93C30064 		stw 30,100(3)
 2894              		.loc 3 285 0
 2895 0b18 409C006C 		bge- 7,.L143
 2896              		.loc 3 287 0
 2897 0b1c 70090040 		andi. 9,0,64
 2898 0b20 4182FBA4 		beq+ 0,.L130
 2899              		.loc 3 287 0 is_stmt 0 discriminator 1
 2900 0b24 81230000 		lwz 9,0(3)
 2901 0b28 6FDE8000 		xoris 30,30,0x8000
 2902 0b2c 80090024 		lwz 0,36(9)
 2903 0b30 7C0903A6 		mtctr 0
 2904 0b34 4E800421 		bctrl
 2905 0b38 3C004330 		lis 0,0x4330
 2906 0b3c 6C638000 		xoris 3,3,0x8000
 2907 0b40 90010010 		stw 0,16(1)
 2908 0b44 90610014 		stw 3,20(1)
 2909 0b48 3D200000 		lis 9,.LC1@ha
 2910 0b4c C0090000 		lfs 0,.LC1@l(9)
 2911 0b50 C9610010 		lfd 11,16(1)
 2912 0b54 93C1000C 		stw 30,12(1)
 2913 0b58 90010008 		stw 0,8(1)
 2914 0b5c FD6B0028 		fsub 11,11,0
 2915 0b60 C9A10008 		lfd 13,8(1)
 2916 0b64 C19F003C 		lfs 12,60(31)
 2917 0b68 FDAD0028 		fsub 13,13,0
 2918 0b6c FC005818 		frsp 0,11
 2919 0b70 FDA06818 		frsp 13,13
 2920 0b74 EC000332 		fmuls 0,0,12
 2921 0b78 FF8D0000 		fcmpu 7,13,0
 2922 0b7c 4FDDF382 		cror 30,29,30
 2923 0b80 40BEFB40 		bne- 7,.L198
 2924              	.L143:
 2925              		.loc 3 288 0 is_stmt 1 discriminator 4
 2926 0b84 93BF0078 		stw 29,120(31)
 2927              	.LBE1568:
 2928              		.loc 3 224 0 discriminator 4
 2929 0b88 38000000 		li 0,0
 2930 0b8c 4BFFFA80 		b .L158
 2931              	.L207:
 2932              	.LBB1569:
 2933              		.loc 3 251 0
 2934 0b90 81430068 		lwz 10,104(3)
 2935 0b94 8123007C 		lwz 9,124(3)
 2936 0b98 7D2A4A14 		add 9,10,9
 2937              		.loc 3 253 0
 2938 0b9c 2F890000 		cmpwi 7,9,0
 2939              		.loc 3 251 0
 2940 0ba0 91230068 		stw 9,104(3)
 2941              		.loc 3 253 0
 2942 0ba4 41BCFB20 		blt- 7,.L130
 2943              		.loc 3 255 0
 2944 0ba8 91630068 		stw 11,104(3)
 2945              	.LBE1569:
 2946              		.loc 3 224 0
 2947 0bac 38000000 		li 0,0
 2948              	.LBB1570:
 2949              		.loc 3 256 0
 2950 0bb0 91630078 		stw 11,120(3)
 2951 0bb4 4BFFFA58 		b .L158
 2952              	.L175:
 2953              	.LBB1555:
 2954              	.LBB1534:
 2955              	.LBB1527:
 2956              	.LBB1519:
 2957              	.LBB1514:
 2958              		.loc 3 361 0
 2959 0bb8 41BEFEB0 		beq- 7,.L208
 2960              		.loc 3 361 0 is_stmt 0 discriminator 1
 2961 0bbc 811F0064 		lwz 8,100(31)
 2962 0bc0 815F002C 		lwz 10,44(31)
 2963 0bc4 817F0080 		lwz 11,128(31)
 2964 0bc8 7CE85214 		add 7,8,10
 2965 0bcc 7F875800 		cmpw 7,7,11
 2966 0bd0 40BDFE9C 		ble- 7,.L176
 2967              	.LBB1509:
 2968              		.loc 3 363 0 is_stmt 1
 2969 0bd4 7D294214 		add 9,9,8
 2970              	.LVL198:
 2971 0bd8 7D6A5850 		subf 11,10,11
 2972              	.LVL199:
 2973 0bdc 7F895800 		cmpw 7,9,11
 2974 0be0 419C0014 		blt- 7,.L180
 2975              		.loc 3 363 0 is_stmt 0 discriminator 1
 2976 0be4 2F890000 		cmpwi 7,9,0
 2977 0be8 7D2B4B78 		mr 11,9
 2978              	.LVL200:
 2979 0bec 409D0008 		ble- 7,.L180
 2980 0bf0 39600000 		li 11,0
 2981              	.L180:
 2982              		.loc 3 363 0 discriminator 6
 2983 0bf4 917F0064 		stw 11,100(31)
 2984 0bf8 540004A4 		rlwinm 0,0,0,18,18
 2985              	.LBE1509:
 2986 0bfc 4BFFFBB0 		b .L170
 2987              	.LVL201:
 2988              	.L144:
 2989              	.LBE1514:
 2990              	.LBE1519:
 2991              	.LBE1527:
 2992              	.LBE1534:
 2993              	.LBE1555:
 2994              		.loc 3 299 0 is_stmt 1
 2995 0c00 700B0002 		andi. 11,0,2
 2996 0c04 41A2FAC0 		beq- 0,.L130
 2997              		.loc 3 301 0
 2998 0c08 83C30068 		lwz 30,104(3)
 2999              		.loc 3 303 0
 3000 0c0c 3D600000 		lis 11,screenheight@ha
 3001              		.loc 3 301 0
 3002 0c10 8143007C 		lwz 10,124(3)
 3003              		.loc 3 303 0
 3004 0c14 816B0000 		lwz 11,screenheight@l(11)
 3005              		.loc 3 301 0
 3006 0c18 7FDE5214 		add 30,30,10
 3007              		.loc 3 303 0
 3008 0c1c 7F9E5800 		cmpw 7,30,11
 3009              		.loc 3 301 0
 3010 0c20 93C30068 		stw 30,104(3)
 3011              		.loc 3 303 0
 3012 0c24 419C0010 		blt- 7,.L148
 3013              		.loc 3 304 0
 3014 0c28 91230078 		stw 9,120(3)
 3015              	.LBE1570:
 3016              		.loc 3 224 0
 3017 0c2c 38000000 		li 0,0
 3018 0c30 4BFFF9DC 		b .L158
 3019              	.L148:
 3020              	.LBB1571:
 3021              		.loc 3 305 0
 3022 0c34 70090040 		andi. 9,0,64
 3023 0c38 4182FA8C 		beq+ 0,.L130
 3024              		.loc 3 305 0 is_stmt 0 discriminator 1
 3025 0c3c 81230000 		lwz 9,0(3)
 3026 0c40 80090028 		lwz 0,40(9)
 3027 0c44 7C0903A6 		mtctr 0
 3028 0c48 4E800421 		bctrl
 3029 0c4c 7F9E1800 		cmpw 7,30,3
 3030 0c50 41BCFA70 		blt- 7,.L198
 3031              		.loc 3 306 0 is_stmt 1 discriminator 4
 3032 0c54 38000000 		li 0,0
 3033 0c58 901F0078 		stw 0,120(31)
 3034              	.LBE1571:
 3035              		.loc 3 224 0 discriminator 4
 3036 0c5c 38000000 		li 0,0
 3037 0c60 4BFFF9AC 		b .L158
 3038              		.cfi_endproc
 3039              	.LFE1436:
 3040              		.size	_ZN10GuiElement13UpdateEffectsEv, .-_ZN10GuiElement13UpdateEffectsEv
 3041              		.section	.text._ZN7sigslot12_signal_baseINS_15single_threadedEED2Ev,"axG",@progbits,_ZN7sigslot12_
 3042              		.align 2
 3043              		.weak	_ZN7sigslot12_signal_baseINS_15single_threadedEED2Ev
 3044              		.type	_ZN7sigslot12_signal_baseINS_15single_threadedEED2Ev, @function
 3045              	_ZN7sigslot12_signal_baseINS_15single_threadedEED2Ev:
 3046              	.LFB1473:
 3047              		.loc 1 466 0
 3048              		.cfi_startproc
 3049              	.LVL202:
 3050              	.LBB1572:
 3051              	.LBB1573:
 3052              	.LBB1574:
 3053              	.LBB1575:
 3054              		.loc 1 105 0
 3055 0000 3D200000 		lis 9,_ZTVN7sigslot15single_threadedE+8@ha
 3056              	.LBE1575:
 3057              	.LBE1574:
 3058              	.LBE1573:
 3059              	.LBE1572:
 3060              		.loc 1 466 0
 3061              	.LBB1579:
 3062              	.LBB1578:
 3063              	.LBB1577:
 3064              	.LBB1576:
 3065              		.loc 1 105 0
 3066 0004 38090008 		la 0,_ZTVN7sigslot15single_threadedE+8@l(9)
 3067 0008 90030000 		stw 0,0(3)
 3068              	.LBE1576:
 3069              	.LBE1577:
 3070              	.LBE1578:
 3071              	.LBE1579:
 3072              		.loc 1 466 0
 3073 000c 4E800020 		blr
 3074              		.cfi_endproc
 3075              	.LFE1473:
 3076              		.size	_ZN7sigslot12_signal_baseINS_15single_threadedEED2Ev, .-_ZN7sigslot12_signal_baseINS_15singl
 3077              		.section	.text._ZN7sigslot12_signal_baseINS_15single_threadedEED0Ev,"axG",@progbits,_ZN7sigslot12_
 3078              		.align 2
 3079              		.weak	_ZN7sigslot12_signal_baseINS_15single_threadedEED0Ev
 3080              		.type	_ZN7sigslot12_signal_baseINS_15single_threadedEED0Ev, @function
 3081              	_ZN7sigslot12_signal_baseINS_15single_threadedEED0Ev:
 3082              	.LFB1475:
 3083              		.loc 1 466 0
 3084              		.cfi_startproc
 3085              	.LVL203:
 3086 0000 7C0802A6 		mflr 0
 3087 0004 9421FFF8 		stwu 1,-8(1)
 3088              	.LCFI46:
 3089              		.cfi_def_cfa_offset 8
 3090              		.cfi_register 65, 0
 3091              	.LBB1580:
 3092              	.LBB1581:
 3093              	.LBB1582:
 3094              	.LBB1583:
 3095              	.LBB1584:
 3096              	.LBB1585:
 3097              		.loc 1 105 0
 3098 0008 3D200000 		lis 9,_ZTVN7sigslot15single_threadedE+8@ha
 3099              	.LBE1585:
 3100              	.LBE1584:
 3101              	.LBE1583:
 3102              	.LBE1582:
 3103              	.LBE1581:
 3104              	.LBE1580:
 3105              		.loc 1 466 0
 3106 000c 9001000C 		stw 0,12(1)
 3107              	.LBB1591:
 3108              	.LBB1590:
 3109              	.LBB1589:
 3110              	.LBB1588:
 3111              	.LBB1587:
 3112              	.LBB1586:
 3113              		.loc 1 105 0
 3114 0010 38090008 		la 0,_ZTVN7sigslot15single_threadedE+8@l(9)
 3115              		.cfi_offset 65, 4
 3116 0014 90030000 		stw 0,0(3)
 3117              	.LBE1586:
 3118              	.LBE1587:
 3119              	.LBE1588:
 3120              	.LBE1589:
 3121              	.LBE1590:
 3122              	.LBE1591:
 3123              		.loc 1 466 0
 3124 0018 48000001 		bl _ZdlPv
 3125              	.LVL204:
 3126 001c 8001000C 		lwz 0,12(1)
 3127 0020 38210008 		addi 1,1,8
 3128              	.LCFI47:
 3129              		.cfi_def_cfa_offset 0
 3130 0024 7C0803A6 		mtlr 0
 3131 0028 4E800020 		blr
 3132              		.cfi_endproc
 3133              	.LFE1475:
 3134              		.size	_ZN7sigslot12_signal_baseINS_15single_threadedEED0Ev, .-_ZN7sigslot12_signal_baseINS_15singl
 3135              		.section	.text._ZN7sigslot15single_threadedD0Ev,"axG",@progbits,_ZN7sigslot15single_threadedD5Ev,c
 3136              		.align 2
 3137              		.weak	_ZN7sigslot15single_threadedD0Ev
 3138              		.type	_ZN7sigslot15single_threadedD0Ev, @function
 3139              	_ZN7sigslot15single_threadedD0Ev:
 3140              	.LFB1150:
 3141              		.loc 1 104 0
 3142              		.cfi_startproc
 3143              	.LVL205:
 3144 0000 7C0802A6 		mflr 0
 3145 0004 9421FFF8 		stwu 1,-8(1)
 3146              	.LCFI48:
 3147              		.cfi_def_cfa_offset 8
 3148              		.cfi_register 65, 0
 3149              	.LBB1592:
 3150              	.LBB1593:
 3151              	.LBB1594:
 3152              		.loc 1 105 0
 3153 0008 3D200000 		lis 9,_ZTVN7sigslot15single_threadedE+8@ha
 3154              	.LBE1594:
 3155              	.LBE1593:
 3156              	.LBE1592:
 3157              		.loc 1 104 0
 3158 000c 9001000C 		stw 0,12(1)
 3159              	.LBB1597:
 3160              	.LBB1596:
 3161              	.LBB1595:
 3162              		.loc 1 105 0
 3163 0010 38090008 		la 0,_ZTVN7sigslot15single_threadedE+8@l(9)
 3164              		.cfi_offset 65, 4
 3165 0014 90030000 		stw 0,0(3)
 3166              	.LBE1595:
 3167              	.LBE1596:
 3168              	.LBE1597:
 3169              		.loc 1 107 0
 3170 0018 48000001 		bl _ZdlPv
 3171              	.LVL206:
 3172 001c 8001000C 		lwz 0,12(1)
 3173 0020 38210008 		addi 1,1,8
 3174              	.LCFI49:
 3175              		.cfi_def_cfa_offset 0
 3176 0024 7C0803A6 		mtlr 0
 3177 0028 4E800020 		blr
 3178              		.cfi_endproc
 3179              	.LFE1150:
 3180              		.size	_ZN7sigslot15single_threadedD0Ev, .-_ZN7sigslot15single_threadedD0Ev
 3181              		.section	.text._ZN7sigslot13_signal_base3IP10GuiElementiiNS_15single_threadedEE15slot_disconnectEP
 3182              		.align 2
 3183              		.weak	_ZN7sigslot13_signal_base3IP10GuiElementiiNS_15single_threadedEE15slot_disconnectEPNS_9has_s
 3184              		.type	_ZN7sigslot13_signal_base3IP10GuiElementiiNS_15single_threadedEE15slot_disconnectEPNS_9has_s
 3185              	_ZN7sigslot13_signal_base3IP10GuiElementiiNS_15single_threadedEE15slot_disconnectEPNS_9has_slotsIS3
 3186              	.LFB1721:
 3187              		.loc 1 990 0
 3188              		.cfi_startproc
 3189              		.cfi_personality 0,__gxx_personality_v0
 3190              		.cfi_lsda 0,.LLSDA1721
 3191              	.LVL207:
 3192 0000 7C0802A6 		mflr 0
 3193 0004 9421FFE0 		stwu 1,-32(1)
 3194              	.LCFI50:
 3195              		.cfi_def_cfa_offset 32
 3196              		.cfi_register 65, 0
 3197 0008 9361000C 		stw 27,12(1)
 3198 000c 7C7B1B78 		mr 27,3
 3199              		.cfi_offset 27, -20
 3200              	.LVL208:
 3201 0010 90010024 		stw 0,36(1)
 3202 0014 93810010 		stw 28,16(1)
 3203 0018 7C9C2378 		mr 28,4
 3204              		.cfi_offset 28, -16
 3205              		.cfi_offset 65, 4
 3206              	.LBB1598:
 3207              	.LBB1599:
 3208              	.LBB1600:
 3209              		.loc 1 338 0
 3210 001c 81230000 		lwz 9,0(3)
 3211              	.LBE1600:
 3212              	.LBE1599:
 3213              	.LBE1598:
 3214              		.loc 1 990 0
 3215 0020 93A10014 		stw 29,20(1)
 3216              	.LBB1621:
 3217              	.LBB1603:
 3218              	.LBB1601:
 3219              		.loc 3 394 0
 3220 0024 7F7DDB78 		mr 29,27
 3221              		.cfi_offset 29, -12
 3222              		.loc 1 338 0
 3223 0028 80090008 		lwz 0,8(9)
 3224              	.LBE1601:
 3225              	.LBE1603:
 3226              	.LBE1621:
 3227              		.loc 1 990 0
 3228 002c 93E1001C 		stw 31,28(1)
 3229 0030 93C10018 		stw 30,24(1)
 3230              	.LBB1622:
 3231              	.LBB1604:
 3232              	.LBB1602:
 3233              		.loc 1 338 0
 3234 0034 7C0903A6 		mtctr 0
 3235              	.LEHB8:
 3236              		.cfi_offset 30, -8
 3237              		.cfi_offset 31, -4
 3238 0038 4E800421 		bctrl
 3239              	.LEHE8:
 3240              	.LVL209:
 3241              		.loc 3 394 0
 3242 003c 87FD0004 		lwzu 31,4(29)
 3243              	.LVL210:
 3244              	.LBE1602:
 3245              	.LBE1604:
 3246              		.loc 1 996 0
 3247 0040 7F9FE800 		cmpw 7,31,29
 3248 0044 40BE0014 		bne+ 7,.L231
 3249 0048 48000064 		b .L220
 3250              	.LVL211:
 3251              	.L221:
 3252              		.loc 1 996 0 is_stmt 0 discriminator 1
 3253 004c 7F9DF000 		cmpw 7,29,30
 3254 0050 419E005C 		beq- 7,.L220
 3255              	.L229:
 3256              		.loc 1 996 0
 3257 0054 7FDFF378 		mr 31,30
 3258              	.LVL212:
 3259              	.L231:
 3260              	.LBB1605:
 3261              		.loc 1 1001 0 is_stmt 1
 3262 0058 807F0008 		lwz 3,8(31)
 3263              	.LBB1606:
 3264              	.LBB1607:
 3265              		.loc 4 154 0
 3266 005c 83DF0000 		lwz 30,0(31)
 3267              	.LVL213:
 3268              	.LBE1607:
 3269              	.LBE1606:
 3270              		.loc 1 1001 0
 3271 0060 81230000 		lwz 9,0(3)
 3272 0064 80090008 		lwz 0,8(9)
 3273 0068 7C0903A6 		mtctr 0
 3274              	.LEHB9:
 3275 006c 4E800421 		bctrl
 3276              	.LVL214:
 3277 0070 7F9C1800 		cmpw 7,28,3
 3278 0074 409EFFD8 		bne+ 7,.L221
 3279              	.LVL215:
 3280              		.loc 1 1003 0
 3281 0078 807F0008 		lwz 3,8(31)
 3282 007c 2F830000 		cmpwi 7,3,0
 3283 0080 419E0014 		beq- 7,.L222
 3284              		.loc 1 1003 0 is_stmt 0 discriminator 1
 3285 0084 81230000 		lwz 9,0(3)
 3286 0088 80090004 		lwz 0,4(9)
 3287 008c 7C0903A6 		mtctr 0
 3288 0090 4E800421 		bctrl
 3289              	.LEHE9:
 3290              	.L222:
 3291              	.LVL216:
 3292              	.LBB1608:
 3293              	.LBB1609:
 3294              	.LBB1610:
 3295              	.LBB1611:
 3296              		.loc 4 1532 0 is_stmt 1
 3297 0094 7FE3FB78 		mr 3,31
 3298 0098 48000001 		bl _ZNSt8__detail15_List_node_base9_M_unhookEv
 3299              	.LVL217:
 3300              	.LBB1612:
 3301              	.LBB1613:
 3302              	.LBB1614:
 3303              		.file 6 "d:\\devkitpro\\devkitppc\\bin\\../lib/gcc/powerpc-eabi/4.6.3/../../../../powerpc-eabi/inc
 3304              		.loc 6 98 0
 3305 009c 7FE3FB78 		mr 3,31
 3306 00a0 48000001 		bl _ZdlPv
 3307              	.LVL218:
 3308              	.LBE1614:
 3309              	.LBE1613:
 3310              	.LBE1612:
 3311              	.LBE1611:
 3312              	.LBE1610:
 3313              	.LBE1609:
 3314              	.LBE1608:
 3315              	.LBE1605:
 3316              		.loc 1 996 0
 3317 00a4 7F9DF000 		cmpw 7,29,30
 3318 00a8 409EFFAC 		bne+ 7,.L229
 3319              	.LVL219:
 3320              	.L220:
 3321              	.LBB1615:
 3322              	.LBB1616:
 3323              	.LBB1617:
 3324              		.loc 1 343 0
 3325 00ac 813B0000 		lwz 9,0(27)
 3326 00b0 7F63DB78 		mr 3,27
 3327 00b4 8009000C 		lwz 0,12(9)
 3328 00b8 7C0903A6 		mtctr 0
 3329              	.LEHB10:
 3330 00bc 4E800421 		bctrl
 3331              	.LEHE10:
 3332              	.LBE1617:
 3333              	.LBE1616:
 3334              	.LBE1615:
 3335              	.LBE1622:
 3336              		.loc 1 1010 0
 3337 00c0 80010024 		lwz 0,36(1)
 3338 00c4 8361000C 		lwz 27,12(1)
 3339              	.LVL220:
 3340 00c8 7C0803A6 		mtlr 0
 3341 00cc 83810010 		lwz 28,16(1)
 3342              	.LVL221:
 3343 00d0 83A10014 		lwz 29,20(1)
 3344              	.LVL222:
 3345 00d4 83C10018 		lwz 30,24(1)
 3346 00d8 83E1001C 		lwz 31,28(1)
 3347 00dc 38210020 		addi 1,1,32
 3348              		.cfi_remember_state
 3349              	.LCFI51:
 3350              		.cfi_def_cfa_offset 0
 3351              		.cfi_restore 31
 3352              		.cfi_restore 30
 3353              		.cfi_restore 29
 3354              		.cfi_restore 28
 3355              		.cfi_restore 27
 3356 00e0 4E800020 		blr
 3357              	.LVL223:
 3358              	.L230:
 3359              	.LCFI52:
 3360              		.cfi_restore_state
 3361              	.LBB1623:
 3362              	.LBB1618:
 3363              	.LBB1619:
 3364              	.LBB1620:
 3365              		.loc 1 343 0
 3366 00e4 813B0000 		lwz 9,0(27)
 3367 00e8 7C7F1B78 		mr 31,3
 3368              	.LVL224:
 3369 00ec 7F63DB78 		mr 3,27
 3370 00f0 8009000C 		lwz 0,12(9)
 3371 00f4 7C0903A6 		mtctr 0
 3372 00f8 4E800421 		bctrl
 3373 00fc 7FE3FB78 		mr 3,31
 3374              	.LEHB11:
 3375 0100 48000001 		bl _Unwind_Resume
 3376              	.LEHE11:
 3377              	.LBE1620:
 3378              	.LBE1619:
 3379              	.LBE1618:
 3380              	.LBE1623:
 3381              		.cfi_endproc
 3382              	.LFE1721:
 3383              		.section	.gcc_except_table
 3384              	.LLSDA1721:
 3385 002f FF       		.byte	0xff
 3386 0030 FF       		.byte	0xff
 3387 0031 01       		.byte	0x1
 3388 0032 13       		.uleb128 .LLSDACSE1721-.LLSDACSB1721
 3389              	.LLSDACSB1721:
 3390 0033 38       		.uleb128 .LEHB8-.LFB1721
 3391 0034 04       		.uleb128 .LEHE8-.LEHB8
 3392 0035 00       		.uleb128 0
 3393 0036 00       		.uleb128 0
 3394 0037 6C       		.uleb128 .LEHB9-.LFB1721
 3395 0038 28       		.uleb128 .LEHE9-.LEHB9
 3396 0039 E401     		.uleb128 .L230-.LFB1721
 3397 003b 00       		.uleb128 0
 3398 003c BC01     		.uleb128 .LEHB10-.LFB1721
 3399 003e 04       		.uleb128 .LEHE10-.LEHB10
 3400 003f 00       		.uleb128 0
 3401 0040 00       		.uleb128 0
 3402 0041 8002     		.uleb128 .LEHB11-.LFB1721
 3403 0043 04       		.uleb128 .LEHE11-.LEHB11
 3404 0044 00       		.uleb128 0
 3405 0045 00       		.uleb128 0
 3406              	.LLSDACSE1721:
 3407              		.section	.text._ZN7sigslot13_signal_base3IP10GuiElementiiNS_15single_threadedEE15slot_disconnectEP
 3408              		.size	_ZN7sigslot13_signal_base3IP10GuiElementiiNS_15single_threadedEE15slot_disconnectEPNS_9has_s
 3409              		.section	.text._ZN7sigslot13_signal_base2IP10GuiElementbNS_15single_threadedEE15slot_disconnectEPN
 3410              		.align 2
 3411              		.weak	_ZN7sigslot13_signal_base2IP10GuiElementbNS_15single_threadedEE15slot_disconnectEPNS_9has_sl
 3412              		.type	_ZN7sigslot13_signal_base2IP10GuiElementbNS_15single_threadedEE15slot_disconnectEPNS_9has_sl
 3413              	_ZN7sigslot13_signal_base2IP10GuiElementbNS_15single_threadedEE15slot_disconnectEPNS_9has_slotsIS3_
 3414              	.LFB1723:
 3415              		.loc 1 870 0
 3416              		.cfi_startproc
 3417              		.cfi_personality 0,__gxx_personality_v0
 3418              		.cfi_lsda 0,.LLSDA1723
 3419              	.LVL225:
 3420 0000 7C0802A6 		mflr 0
 3421 0004 9421FFE0 		stwu 1,-32(1)
 3422              	.LCFI53:
 3423              		.cfi_def_cfa_offset 32
 3424              		.cfi_register 65, 0
 3425 0008 9361000C 		stw 27,12(1)
 3426 000c 7C7B1B78 		mr 27,3
 3427              		.cfi_offset 27, -20
 3428              	.LVL226:
 3429 0010 90010024 		stw 0,36(1)
 3430 0014 93810010 		stw 28,16(1)
 3431 0018 7C9C2378 		mr 28,4
 3432              		.cfi_offset 28, -16
 3433              		.cfi_offset 65, 4
 3434              	.LBB1624:
 3435              	.LBB1625:
 3436              	.LBB1626:
 3437              		.loc 1 338 0
 3438 001c 81230000 		lwz 9,0(3)
 3439              	.LBE1626:
 3440              	.LBE1625:
 3441              	.LBE1624:
 3442              		.loc 1 870 0
 3443 0020 93A10014 		stw 29,20(1)
 3444              	.LBB1647:
 3445              	.LBB1629:
 3446              	.LBB1627:
 3447              		.loc 3 394 0
 3448 0024 7F7DDB78 		mr 29,27
 3449              		.cfi_offset 29, -12
 3450              		.loc 1 338 0
 3451 0028 80090008 		lwz 0,8(9)
 3452              	.LBE1627:
 3453              	.LBE1629:
 3454              	.LBE1647:
 3455              		.loc 1 870 0
 3456 002c 93E1001C 		stw 31,28(1)
 3457 0030 93C10018 		stw 30,24(1)
 3458              	.LBB1648:
 3459              	.LBB1630:
 3460              	.LBB1628:
 3461              		.loc 1 338 0
 3462 0034 7C0903A6 		mtctr 0
 3463              	.LEHB12:
 3464              		.cfi_offset 30, -8
 3465              		.cfi_offset 31, -4
 3466 0038 4E800421 		bctrl
 3467              	.LEHE12:
 3468              	.LVL227:
 3469              		.loc 3 394 0
 3470 003c 87FD0004 		lwzu 31,4(29)
 3471              	.LVL228:
 3472              	.LBE1628:
 3473              	.LBE1630:
 3474              		.loc 1 876 0
 3475 0040 7F9FE800 		cmpw 7,31,29
 3476 0044 40BE0014 		bne+ 7,.L244
 3477 0048 48000064 		b .L233
 3478              	.LVL229:
 3479              	.L234:
 3480              		.loc 1 876 0 is_stmt 0 discriminator 1
 3481 004c 7F9DF000 		cmpw 7,29,30
 3482 0050 419E005C 		beq- 7,.L233
 3483              	.L242:
 3484              		.loc 1 876 0
 3485 0054 7FDFF378 		mr 31,30
 3486              	.LVL230:
 3487              	.L244:
 3488              	.LBB1631:
 3489              		.loc 1 881 0 is_stmt 1
 3490 0058 807F0008 		lwz 3,8(31)
 3491              	.LBB1632:
 3492              	.LBB1633:
 3493              		.loc 4 154 0
 3494 005c 83DF0000 		lwz 30,0(31)
 3495              	.LVL231:
 3496              	.LBE1633:
 3497              	.LBE1632:
 3498              		.loc 1 881 0
 3499 0060 81230000 		lwz 9,0(3)
 3500 0064 80090008 		lwz 0,8(9)
 3501 0068 7C0903A6 		mtctr 0
 3502              	.LEHB13:
 3503 006c 4E800421 		bctrl
 3504              	.LVL232:
 3505 0070 7F9C1800 		cmpw 7,28,3
 3506 0074 409EFFD8 		bne+ 7,.L234
 3507              	.LVL233:
 3508              		.loc 1 883 0
 3509 0078 807F0008 		lwz 3,8(31)
 3510 007c 2F830000 		cmpwi 7,3,0
 3511 0080 419E0014 		beq- 7,.L235
 3512              		.loc 1 883 0 is_stmt 0 discriminator 1
 3513 0084 81230000 		lwz 9,0(3)
 3514 0088 80090004 		lwz 0,4(9)
 3515 008c 7C0903A6 		mtctr 0
 3516 0090 4E800421 		bctrl
 3517              	.LEHE13:
 3518              	.L235:
 3519              	.LVL234:
 3520              	.LBB1634:
 3521              	.LBB1635:
 3522              	.LBB1636:
 3523              	.LBB1637:
 3524              		.loc 4 1532 0 is_stmt 1
 3525 0094 7FE3FB78 		mr 3,31
 3526 0098 48000001 		bl _ZNSt8__detail15_List_node_base9_M_unhookEv
 3527              	.LVL235:
 3528              	.LBB1638:
 3529              	.LBB1639:
 3530              	.LBB1640:
 3531              		.loc 6 98 0
 3532 009c 7FE3FB78 		mr 3,31
 3533 00a0 48000001 		bl _ZdlPv
 3534              	.LVL236:
 3535              	.LBE1640:
 3536              	.LBE1639:
 3537              	.LBE1638:
 3538              	.LBE1637:
 3539              	.LBE1636:
 3540              	.LBE1635:
 3541              	.LBE1634:
 3542              	.LBE1631:
 3543              		.loc 1 876 0
 3544 00a4 7F9DF000 		cmpw 7,29,30
 3545 00a8 409EFFAC 		bne+ 7,.L242
 3546              	.LVL237:
 3547              	.L233:
 3548              	.LBB1641:
 3549              	.LBB1642:
 3550              	.LBB1643:
 3551              		.loc 1 343 0
 3552 00ac 813B0000 		lwz 9,0(27)
 3553 00b0 7F63DB78 		mr 3,27
 3554 00b4 8009000C 		lwz 0,12(9)
 3555 00b8 7C0903A6 		mtctr 0
 3556              	.LEHB14:
 3557 00bc 4E800421 		bctrl
 3558              	.LEHE14:
 3559              	.LBE1643:
 3560              	.LBE1642:
 3561              	.LBE1641:
 3562              	.LBE1648:
 3563              		.loc 1 890 0
 3564 00c0 80010024 		lwz 0,36(1)
 3565 00c4 8361000C 		lwz 27,12(1)
 3566              	.LVL238:
 3567 00c8 7C0803A6 		mtlr 0
 3568 00cc 83810010 		lwz 28,16(1)
 3569              	.LVL239:
 3570 00d0 83A10014 		lwz 29,20(1)
 3571              	.LVL240:
 3572 00d4 83C10018 		lwz 30,24(1)
 3573 00d8 83E1001C 		lwz 31,28(1)
 3574 00dc 38210020 		addi 1,1,32
 3575              		.cfi_remember_state
 3576              	.LCFI54:
 3577              		.cfi_def_cfa_offset 0
 3578              		.cfi_restore 31
 3579              		.cfi_restore 30
 3580              		.cfi_restore 29
 3581              		.cfi_restore 28
 3582              		.cfi_restore 27
 3583 00e0 4E800020 		blr
 3584              	.LVL241:
 3585              	.L243:
 3586              	.LCFI55:
 3587              		.cfi_restore_state
 3588              	.LBB1649:
 3589              	.LBB1644:
 3590              	.LBB1645:
 3591              	.LBB1646:
 3592              		.loc 1 343 0
 3593 00e4 813B0000 		lwz 9,0(27)
 3594 00e8 7C7F1B78 		mr 31,3
 3595              	.LVL242:
 3596 00ec 7F63DB78 		mr 3,27
 3597 00f0 8009000C 		lwz 0,12(9)
 3598 00f4 7C0903A6 		mtctr 0
 3599 00f8 4E800421 		bctrl
 3600 00fc 7FE3FB78 		mr 3,31
 3601              	.LEHB15:
 3602 0100 48000001 		bl _Unwind_Resume
 3603              	.LEHE15:
 3604              	.LBE1646:
 3605              	.LBE1645:
 3606              	.LBE1644:
 3607              	.LBE1649:
 3608              		.cfi_endproc
 3609              	.LFE1723:
 3610              		.section	.gcc_except_table
 3611              	.LLSDA1723:
 3612 0046 FF       		.byte	0xff
 3613 0047 FF       		.byte	0xff
 3614 0048 01       		.byte	0x1
 3615 0049 13       		.uleb128 .LLSDACSE1723-.LLSDACSB1723
 3616              	.LLSDACSB1723:
 3617 004a 38       		.uleb128 .LEHB12-.LFB1723
 3618 004b 04       		.uleb128 .LEHE12-.LEHB12
 3619 004c 00       		.uleb128 0
 3620 004d 00       		.uleb128 0
 3621 004e 6C       		.uleb128 .LEHB13-.LFB1723
 3622 004f 28       		.uleb128 .LEHE13-.LEHB13
 3623 0050 E401     		.uleb128 .L243-.LFB1723
 3624 0052 00       		.uleb128 0
 3625 0053 BC01     		.uleb128 .LEHB14-.LFB1723
 3626 0055 04       		.uleb128 .LEHE14-.LEHB14
 3627 0056 00       		.uleb128 0
 3628 0057 00       		.uleb128 0
 3629 0058 8002     		.uleb128 .LEHB15-.LFB1723
 3630 005a 04       		.uleb128 .LEHE15-.LEHB15
 3631 005b 00       		.uleb128 0
 3632 005c 00       		.uleb128 0
 3633              	.LLSDACSE1723:
 3634              		.section	.text._ZN7sigslot13_signal_base2IP10GuiElementbNS_15single_threadedEE15slot_disconnectEPN
 3635              		.size	_ZN7sigslot13_signal_base2IP10GuiElementbNS_15single_threadedEE15slot_disconnectEPNS_9has_sl
 3636              		.section	.text._ZN7sigslot13_signal_base3IP10GuiElementiiNS_15single_threadedEE14slot_duplicateEPK
 3637              		.align 2
 3638              		.weak	_ZN7sigslot13_signal_base3IP10GuiElementiiNS_15single_threadedEE14slot_duplicateEPKNS_9has_s
 3639              		.type	_ZN7sigslot13_signal_base3IP10GuiElementiiNS_15single_threadedEE14slot_duplicateEPKNS_9has_s
 3640              	_ZN7sigslot13_signal_base3IP10GuiElementiiNS_15single_threadedEE14slot_duplicateEPKNS_9has_slotsIS3
 3641              	.LFB1722:
 3642              		.loc 1 926 0
 3643              		.cfi_startproc
 3644              		.cfi_personality 0,__gxx_personality_v0
 3645              		.cfi_lsda 0,.LLSDA1722
 3646              	.LVL243:
 3647 0000 7C0802A6 		mflr 0
 3648 0004 9421FFE0 		stwu 1,-32(1)
 3649              	.LCFI56:
 3650              		.cfi_def_cfa_offset 32
 3651              		.cfi_register 65, 0
 3652 0008 93410008 		stw 26,8(1)
 3653 000c 7CBA2B78 		mr 26,5
 3654              		.cfi_offset 26, -24
 3655 0010 90010024 		stw 0,36(1)
 3656 0014 9361000C 		stw 27,12(1)
 3657 0018 7C7B1B78 		mr 27,3
 3658              		.cfi_offset 27, -20
 3659              		.cfi_offset 65, 4
 3660              	.LVL244:
 3661              	.LBB1650:
 3662              	.LBB1651:
 3663              	.LBB1652:
 3664              		.loc 1 338 0
 3665 001c 81230000 		lwz 9,0(3)
 3666              	.LBE1652:
 3667              	.LBE1651:
 3668              	.LBE1650:
 3669              		.loc 1 926 0
 3670 0020 93A10014 		stw 29,20(1)
 3671 0024 7C9D2378 		mr 29,4
 3672              		.cfi_offset 29, -12
 3673              	.LBB1681:
 3674              	.LBB1657:
 3675              	.LBB1653:
 3676              		.loc 1 338 0
 3677 0028 80090008 		lwz 0,8(9)
 3678              	.LBE1653:
 3679              	.LBE1657:
 3680              	.LBE1681:
 3681              		.loc 1 926 0
 3682 002c 93C10018 		stw 30,24(1)
 3683              	.LBB1682:
 3684              	.LBB1658:
 3685              	.LBB1654:
 3686              		.loc 3 394 0
 3687 0030 7F7EDB78 		mr 30,27
 3688              		.cfi_offset 30, -8
 3689              	.LBE1654:
 3690              	.LBE1658:
 3691              	.LBE1682:
 3692              		.loc 1 926 0
 3693 0034 93E1001C 		stw 31,28(1)
 3694              	.LBB1683:
 3695              	.LBB1659:
 3696              	.LBB1655:
 3697              		.loc 1 338 0
 3698 0038 7C0903A6 		mtctr 0
 3699              	.LBE1655:
 3700              	.LBE1659:
 3701              	.LBE1683:
 3702              		.loc 1 926 0
 3703 003c 93810010 		stw 28,16(1)
 3704              	.LEHB16:
 3705              	.LBB1684:
 3706              	.LBB1660:
 3707              	.LBB1656:
 3708              		.loc 1 338 0
 3709              		.cfi_offset 28, -16
 3710              		.cfi_offset 31, -4
 3711 0040 4E800421 		bctrl
 3712              	.LEHE16:
 3713              	.LVL245:
 3714              		.loc 3 394 0
 3715 0044 87FE0004 		lwzu 31,4(30)
 3716              	.LVL246:
 3717              	.LBE1656:
 3718              	.LBE1660:
 3719              		.loc 1 932 0
 3720 0048 7F9FF000 		cmpw 7,31,30
 3721 004c 40BE0014 		bne+ 7,.L255
 3722 0050 48000070 		b .L246
 3723              	.LVL247:
 3724              	.L247:
 3725              	.LBB1661:
 3726              	.LBB1662:
 3727              		.loc 4 154 0
 3728 0054 83FF0000 		lwz 31,0(31)
 3729              	.LVL248:
 3730              	.LBE1662:
 3731              	.LBE1661:
 3732              		.loc 1 932 0
 3733 0058 7F9EF800 		cmpw 7,30,31
 3734 005c 419E0064 		beq- 7,.L246
 3735              	.LVL249:
 3736              	.L255:
 3737              		.loc 1 934 0
 3738 0060 807F0008 		lwz 3,8(31)
 3739 0064 81230000 		lwz 9,0(3)
 3740 0068 80090008 		lwz 0,8(9)
 3741 006c 7C0903A6 		mtctr 0
 3742              	.LEHB17:
 3743 0070 4E800421 		bctrl
 3744 0074 7F9D1800 		cmpw 7,29,3
 3745 0078 409EFFDC 		bne+ 7,.L247
 3746              	.LVL250:
 3747              		.loc 1 936 0
 3748 007c 807F0008 		lwz 3,8(31)
 3749 0080 7F44D378 		mr 4,26
 3750 0084 81230000 		lwz 9,0(3)
 3751 0088 80090014 		lwz 0,20(9)
 3752 008c 7C0903A6 		mtctr 0
 3753 0090 4E800421 		bctrl
 3754 0094 7C7C1B78 		mr 28,3
 3755              	.LVL251:
 3756              	.LBB1664:
 3757              	.LBB1665:
 3758              	.LBB1666:
 3759              	.LBB1667:
 3760              	.LBB1668:
 3761              	.LBB1669:
 3762              	.LBB1670:
 3763              	.LBB1671:
 3764              		.loc 6 92 0
 3765 0098 3860000C 		li 3,12
 3766 009c 48000001 		bl _Znwj
 3767              	.LEHE17:
 3768              	.LVL252:
 3769              	.LBE1671:
 3770              	.LBE1670:
 3771              	.LBE1669:
 3772              	.LBB1672:
 3773              	.LBB1673:
 3774              		.loc 6 108 0 discriminator 1
 3775 00a0 2F83FFF8 		cmpwi 7,3,-8
 3776 00a4 419E0008 		beq- 7,.L249
 3777              		.loc 6 108 0 is_stmt 0
 3778 00a8 93830008 		stw 28,8(3)
 3779              	.L249:
 3780              	.LVL253:
 3781              	.LBE1673:
 3782              	.LBE1672:
 3783              	.LBE1668:
 3784              	.LBE1667:
 3785              		.loc 4 1516 0 is_stmt 1
 3786 00ac 7FC4F378 		mr 4,30
 3787 00b0 48000001 		bl _ZNSt8__detail15_List_node_base7_M_hookEPS0_
 3788              	.LVL254:
 3789              	.LBE1666:
 3790              	.LBE1665:
 3791              	.LBE1664:
 3792              	.LBB1674:
 3793              	.LBB1663:
 3794              		.loc 4 154 0
 3795 00b4 83FF0000 		lwz 31,0(31)
 3796              	.LVL255:
 3797              	.LBE1663:
 3798              	.LBE1674:
 3799              		.loc 1 932 0
 3800 00b8 7F9EF800 		cmpw 7,30,31
 3801 00bc 409EFFA4 		bne+ 7,.L255
 3802              	.LVL256:
 3803              	.L246:
 3804              	.LBB1675:
 3805              	.LBB1676:
 3806              	.LBB1677:
 3807              		.loc 1 343 0
 3808 00c0 813B0000 		lwz 9,0(27)
 3809 00c4 7F63DB78 		mr 3,27
 3810 00c8 8009000C 		lwz 0,12(9)
 3811 00cc 7C0903A6 		mtctr 0
 3812              	.LEHB18:
 3813 00d0 4E800421 		bctrl
 3814              	.LEHE18:
 3815              	.LBE1677:
 3816              	.LBE1676:
 3817              	.LBE1675:
 3818              	.LBE1684:
 3819              		.loc 1 941 0
 3820 00d4 80010024 		lwz 0,36(1)
 3821 00d8 83410008 		lwz 26,8(1)
 3822              	.LVL257:
 3823 00dc 7C0803A6 		mtlr 0
 3824 00e0 8361000C 		lwz 27,12(1)
 3825              	.LVL258:
 3826 00e4 83810010 		lwz 28,16(1)
 3827 00e8 83A10014 		lwz 29,20(1)
 3828              	.LVL259:
 3829 00ec 83C10018 		lwz 30,24(1)
 3830              	.LVL260:
 3831 00f0 83E1001C 		lwz 31,28(1)
 3832              	.LVL261:
 3833 00f4 38210020 		addi 1,1,32
 3834              		.cfi_remember_state
 3835              	.LCFI57:
 3836              		.cfi_def_cfa_offset 0
 3837              		.cfi_restore 31
 3838              		.cfi_restore 30
 3839              		.cfi_restore 29
 3840              		.cfi_restore 28
 3841              		.cfi_restore 27
 3842              		.cfi_restore 26
 3843 00f8 4E800020 		blr
 3844              	.LVL262:
 3845              	.L254:
 3846              	.LCFI58:
 3847              		.cfi_restore_state
 3848              	.LBB1685:
 3849              	.LBB1678:
 3850              	.LBB1679:
 3851              	.LBB1680:
 3852              		.loc 1 343 0
 3853 00fc 813B0000 		lwz 9,0(27)
 3854 0100 7C7F1B78 		mr 31,3
 3855              	.LVL263:
 3856 0104 7F63DB78 		mr 3,27
 3857 0108 8009000C 		lwz 0,12(9)
 3858 010c 7C0903A6 		mtctr 0
 3859 0110 4E800421 		bctrl
 3860 0114 7FE3FB78 		mr 3,31
 3861              	.LEHB19:
 3862 0118 48000001 		bl _Unwind_Resume
 3863              	.LEHE19:
 3864              	.LBE1680:
 3865              	.LBE1679:
 3866              	.LBE1678:
 3867              	.LBE1685:
 3868              		.cfi_endproc
 3869              	.LFE1722:
 3870              		.section	.gcc_except_table
 3871              	.LLSDA1722:
 3872 005d FF       		.byte	0xff
 3873 005e FF       		.byte	0xff
 3874 005f 01       		.byte	0x1
 3875 0060 13       		.uleb128 .LLSDACSE1722-.LLSDACSB1722
 3876              	.LLSDACSB1722:
 3877 0061 40       		.uleb128 .LEHB16-.LFB1722
 3878 0062 04       		.uleb128 .LEHE16-.LEHB16
 3879 0063 00       		.uleb128 0
 3880 0064 00       		.uleb128 0
 3881 0065 70       		.uleb128 .LEHB17-.LFB1722
 3882 0066 30       		.uleb128 .LEHE17-.LEHB17
 3883 0067 FC01     		.uleb128 .L254-.LFB1722
 3884 0069 00       		.uleb128 0
 3885 006a D001     		.uleb128 .LEHB18-.LFB1722
 3886 006c 04       		.uleb128 .LEHE18-.LEHB18
 3887 006d 00       		.uleb128 0
 3888 006e 00       		.uleb128 0
 3889 006f 9802     		.uleb128 .LEHB19-.LFB1722
 3890 0071 04       		.uleb128 .LEHE19-.LEHB19
 3891 0072 00       		.uleb128 0
 3892 0073 00       		.uleb128 0
 3893              	.LLSDACSE1722:
 3894              		.section	.text._ZN7sigslot13_signal_base3IP10GuiElementiiNS_15single_threadedEE14slot_duplicateEPK
 3895              		.size	_ZN7sigslot13_signal_base3IP10GuiElementiiNS_15single_threadedEE14slot_duplicateEPKNS_9has_s
 3896              		.section	.text._ZN7sigslot13_signal_base2IP10GuiElementbNS_15single_threadedEE14slot_duplicateEPKN
 3897              		.align 2
 3898              		.weak	_ZN7sigslot13_signal_base2IP10GuiElementbNS_15single_threadedEE14slot_duplicateEPKNS_9has_sl
 3899              		.type	_ZN7sigslot13_signal_base2IP10GuiElementbNS_15single_threadedEE14slot_duplicateEPKNS_9has_sl
 3900              	_ZN7sigslot13_signal_base2IP10GuiElementbNS_15single_threadedEE14slot_duplicateEPKNS_9has_slotsIS3_
 3901              	.LFB1724:
 3902              		.loc 1 806 0
 3903              		.cfi_startproc
 3904              		.cfi_personality 0,__gxx_personality_v0
 3905              		.cfi_lsda 0,.LLSDA1724
 3906              	.LVL264:
 3907 0000 7C0802A6 		mflr 0
 3908 0004 9421FFE0 		stwu 1,-32(1)
 3909              	.LCFI59:
 3910              		.cfi_def_cfa_offset 32
 3911              		.cfi_register 65, 0
 3912 0008 93410008 		stw 26,8(1)
 3913 000c 7CBA2B78 		mr 26,5
 3914              		.cfi_offset 26, -24
 3915 0010 90010024 		stw 0,36(1)
 3916 0014 9361000C 		stw 27,12(1)
 3917 0018 7C7B1B78 		mr 27,3
 3918              		.cfi_offset 27, -20
 3919              		.cfi_offset 65, 4
 3920              	.LVL265:
 3921              	.LBB1686:
 3922              	.LBB1687:
 3923              	.LBB1688:
 3924              		.loc 1 338 0
 3925 001c 81230000 		lwz 9,0(3)
 3926              	.LBE1688:
 3927              	.LBE1687:
 3928              	.LBE1686:
 3929              		.loc 1 806 0
 3930 0020 93A10014 		stw 29,20(1)
 3931 0024 7C9D2378 		mr 29,4
 3932              		.cfi_offset 29, -12
 3933              	.LBB1717:
 3934              	.LBB1693:
 3935              	.LBB1689:
 3936              		.loc 1 338 0
 3937 0028 80090008 		lwz 0,8(9)
 3938              	.LBE1689:
 3939              	.LBE1693:
 3940              	.LBE1717:
 3941              		.loc 1 806 0
 3942 002c 93C10018 		stw 30,24(1)
 3943              	.LBB1718:
 3944              	.LBB1694:
 3945              	.LBB1690:
 3946              		.loc 3 394 0
 3947 0030 7F7EDB78 		mr 30,27
 3948              		.cfi_offset 30, -8
 3949              	.LBE1690:
 3950              	.LBE1694:
 3951              	.LBE1718:
 3952              		.loc 1 806 0
 3953 0034 93E1001C 		stw 31,28(1)
 3954              	.LBB1719:
 3955              	.LBB1695:
 3956              	.LBB1691:
 3957              		.loc 1 338 0
 3958 0038 7C0903A6 		mtctr 0
 3959              	.LBE1691:
 3960              	.LBE1695:
 3961              	.LBE1719:
 3962              		.loc 1 806 0
 3963 003c 93810010 		stw 28,16(1)
 3964              	.LEHB20:
 3965              	.LBB1720:
 3966              	.LBB1696:
 3967              	.LBB1692:
 3968              		.loc 1 338 0
 3969              		.cfi_offset 28, -16
 3970              		.cfi_offset 31, -4
 3971 0040 4E800421 		bctrl
 3972              	.LEHE20:
 3973              	.LVL266:
 3974              		.loc 3 394 0
 3975 0044 87FE0004 		lwzu 31,4(30)
 3976              	.LVL267:
 3977              	.LBE1692:
 3978              	.LBE1696:
 3979              		.loc 1 812 0
 3980 0048 7F9FF000 		cmpw 7,31,30
 3981 004c 40BE0014 		bne+ 7,.L267
 3982 0050 48000070 		b .L258
 3983              	.LVL268:
 3984              	.L259:
 3985              	.LBB1697:
 3986              	.LBB1698:
 3987              		.loc 4 154 0
 3988 0054 83FF0000 		lwz 31,0(31)
 3989              	.LVL269:
 3990              	.LBE1698:
 3991              	.LBE1697:
 3992              		.loc 1 812 0
 3993 0058 7F9EF800 		cmpw 7,30,31
 3994 005c 419E0064 		beq- 7,.L258
 3995              	.LVL270:
 3996              	.L267:
 3997              		.loc 1 814 0
 3998 0060 807F0008 		lwz 3,8(31)
 3999 0064 81230000 		lwz 9,0(3)
 4000 0068 80090008 		lwz 0,8(9)
 4001 006c 7C0903A6 		mtctr 0
 4002              	.LEHB21:
 4003 0070 4E800421 		bctrl
 4004 0074 7F9D1800 		cmpw 7,29,3
 4005 0078 409EFFDC 		bne+ 7,.L259
 4006              	.LVL271:
 4007              		.loc 1 816 0
 4008 007c 807F0008 		lwz 3,8(31)
 4009 0080 7F44D378 		mr 4,26
 4010 0084 81230000 		lwz 9,0(3)
 4011 0088 80090014 		lwz 0,20(9)
 4012 008c 7C0903A6 		mtctr 0
 4013 0090 4E800421 		bctrl
 4014 0094 7C7C1B78 		mr 28,3
 4015              	.LVL272:
 4016              	.LBB1700:
 4017              	.LBB1701:
 4018              	.LBB1702:
 4019              	.LBB1703:
 4020              	.LBB1704:
 4021              	.LBB1705:
 4022              	.LBB1706:
 4023              	.LBB1707:
 4024              		.loc 6 92 0
 4025 0098 3860000C 		li 3,12
 4026 009c 48000001 		bl _Znwj
 4027              	.LEHE21:
 4028              	.LVL273:
 4029              	.LBE1707:
 4030              	.LBE1706:
 4031              	.LBE1705:
 4032              	.LBB1708:
 4033              	.LBB1709:
 4034              		.loc 6 108 0 discriminator 1
 4035 00a0 2F83FFF8 		cmpwi 7,3,-8
 4036 00a4 419E0008 		beq- 7,.L261
 4037              		.loc 6 108 0 is_stmt 0
 4038 00a8 93830008 		stw 28,8(3)
 4039              	.L261:
 4040              	.LVL274:
 4041              	.LBE1709:
 4042              	.LBE1708:
 4043              	.LBE1704:
 4044              	.LBE1703:
 4045              		.loc 4 1516 0 is_stmt 1
 4046 00ac 7FC4F378 		mr 4,30
 4047 00b0 48000001 		bl _ZNSt8__detail15_List_node_base7_M_hookEPS0_
 4048              	.LVL275:
 4049              	.LBE1702:
 4050              	.LBE1701:
 4051              	.LBE1700:
 4052              	.LBB1710:
 4053              	.LBB1699:
 4054              		.loc 4 154 0
 4055 00b4 83FF0000 		lwz 31,0(31)
 4056              	.LVL276:
 4057              	.LBE1699:
 4058              	.LBE1710:
 4059              		.loc 1 812 0
 4060 00b8 7F9EF800 		cmpw 7,30,31
 4061 00bc 409EFFA4 		bne+ 7,.L267
 4062              	.LVL277:
 4063              	.L258:
 4064              	.LBB1711:
 4065              	.LBB1712:
 4066              	.LBB1713:
 4067              		.loc 1 343 0
 4068 00c0 813B0000 		lwz 9,0(27)
 4069 00c4 7F63DB78 		mr 3,27
 4070 00c8 8009000C 		lwz 0,12(9)
 4071 00cc 7C0903A6 		mtctr 0
 4072              	.LEHB22:
 4073 00d0 4E800421 		bctrl
 4074              	.LEHE22:
 4075              	.LBE1713:
 4076              	.LBE1712:
 4077              	.LBE1711:
 4078              	.LBE1720:
 4079              		.loc 1 821 0
 4080 00d4 80010024 		lwz 0,36(1)
 4081 00d8 83410008 		lwz 26,8(1)
 4082              	.LVL278:
 4083 00dc 7C0803A6 		mtlr 0
 4084 00e0 8361000C 		lwz 27,12(1)
 4085              	.LVL279:
 4086 00e4 83810010 		lwz 28,16(1)
 4087 00e8 83A10014 		lwz 29,20(1)
 4088              	.LVL280:
 4089 00ec 83C10018 		lwz 30,24(1)
 4090              	.LVL281:
 4091 00f0 83E1001C 		lwz 31,28(1)
 4092              	.LVL282:
 4093 00f4 38210020 		addi 1,1,32
 4094              		.cfi_remember_state
 4095              	.LCFI60:
 4096              		.cfi_def_cfa_offset 0
 4097              		.cfi_restore 31
 4098              		.cfi_restore 30
 4099              		.cfi_restore 29
 4100              		.cfi_restore 28
 4101              		.cfi_restore 27
 4102              		.cfi_restore 26
 4103 00f8 4E800020 		blr
 4104              	.LVL283:
 4105              	.L266:
 4106              	.LCFI61:
 4107              		.cfi_restore_state
 4108              	.LBB1721:
 4109              	.LBB1714:
 4110              	.LBB1715:
 4111              	.LBB1716:
 4112              		.loc 1 343 0
 4113 00fc 813B0000 		lwz 9,0(27)
 4114 0100 7C7F1B78 		mr 31,3
 4115              	.LVL284:
 4116 0104 7F63DB78 		mr 3,27
 4117 0108 8009000C 		lwz 0,12(9)
 4118 010c 7C0903A6 		mtctr 0
 4119 0110 4E800421 		bctrl
 4120 0114 7FE3FB78 		mr 3,31
 4121              	.LEHB23:
 4122 0118 48000001 		bl _Unwind_Resume
 4123              	.LEHE23:
 4124              	.LBE1716:
 4125              	.LBE1715:
 4126              	.LBE1714:
 4127              	.LBE1721:
 4128              		.cfi_endproc
 4129              	.LFE1724:
 4130              		.section	.gcc_except_table
 4131              	.LLSDA1724:
 4132 0074 FF       		.byte	0xff
 4133 0075 FF       		.byte	0xff
 4134 0076 01       		.byte	0x1
 4135 0077 13       		.uleb128 .LLSDACSE1724-.LLSDACSB1724
 4136              	.LLSDACSB1724:
 4137 0078 40       		.uleb128 .LEHB20-.LFB1724
 4138 0079 04       		.uleb128 .LEHE20-.LEHB20
 4139 007a 00       		.uleb128 0
 4140 007b 00       		.uleb128 0
 4141 007c 70       		.uleb128 .LEHB21-.LFB1724
 4142 007d 30       		.uleb128 .LEHE21-.LEHB21
 4143 007e FC01     		.uleb128 .L266-.LFB1724
 4144 0080 00       		.uleb128 0
 4145 0081 D001     		.uleb128 .LEHB22-.LFB1724
 4146 0083 04       		.uleb128 .LEHE22-.LEHB22
 4147 0084 00       		.uleb128 0
 4148 0085 00       		.uleb128 0
 4149 0086 9802     		.uleb128 .LEHB23-.LFB1724
 4150 0088 04       		.uleb128 .LEHE23-.LEHB23
 4151 0089 00       		.uleb128 0
 4152 008a 00       		.uleb128 0
 4153              	.LLSDACSE1724:
 4154              		.section	.text._ZN7sigslot13_signal_base2IP10GuiElementbNS_15single_threadedEE14slot_duplicateEPKN
 4155              		.size	_ZN7sigslot13_signal_base2IP10GuiElementbNS_15single_threadedEE14slot_duplicateEPKNS_9has_sl
 4156              		.section	.text._ZN10GuiElement10ResetStateEv,"axG",@progbits,_ZN10GuiElement10ResetStateEv,comdat
 4157              		.align 2
 4158              		.weak	_ZN10GuiElement10ResetStateEv
 4159              		.type	_ZN10GuiElement10ResetStateEv, @function
 4160              	_ZN10GuiElement10ResetStateEv:
 4161              	.LFB1402:
 4162              		.loc 2 183 0
 4163              		.cfi_startproc
 4164              	.LVL285:
 4165 0000 7C0802A6 		mflr 0
 4166 0004 9421FFF8 		stwu 1,-8(1)
 4167              	.LCFI62:
 4168              		.cfi_def_cfa_offset 8
 4169              		.cfi_register 65, 0
 4170 0008 9001000C 		stw 0,12(1)
 4171              		.loc 2 185 0
 4172 000c 80030048 		lwz 0,72(3)
 4173              		.cfi_offset 65, 4
 4174 0010 2F800004 		cmpwi 7,0,4
 4175 0014 419E001C 		beq- 7,.L269
 4176              	.LVL286:
 4177              	.LBB1724:
 4178              	.LBB1725:
 4179              		.loc 2 186 0
 4180 0018 81230000 		lwz 9,0(3)
 4181 001c 38800000 		li 4,0
 4182 0020 38A0FFFF 		li 5,-1
 4183 0024 80090050 		lwz 0,80(9)
 4184 0028 7C0903A6 		mtctr 0
 4185 002c 4E800421 		bctrl
 4186              	.LVL287:
 4187              	.L269:
 4188              	.LBE1725:
 4189              	.LBE1724:
 4190              		.loc 2 187 0
 4191 0030 8001000C 		lwz 0,12(1)
 4192 0034 38210008 		addi 1,1,8
 4193              	.LCFI63:
 4194              		.cfi_def_cfa_offset 0
 4195 0038 7C0803A6 		mtlr 0
 4196 003c 4E800020 		blr
 4197              		.cfi_endproc
 4198              	.LFE1402:
 4199              		.size	_ZN10GuiElement10ResetStateEv, .-_ZN10GuiElement10ResetStateEv
 4200              		.section	".text"
 4201              		.align 2
 4202              		.globl _ZN10GuiElementC2Ev
 4203              		.type	_ZN10GuiElementC2Ev, @function
 4204              	_ZN10GuiElementC2Ev:
 4205              	.LFB1428:
 4206              		.loc 3 22 0
 4207              		.cfi_startproc
 4208              	.LVL288:
 4209              	.LBB1726:
 4210              		.loc 3 31 0
 4211 0c64 3D200000 		lis 9,.LC4@ha
 4212              	.LBB1727:
 4213              	.LBB1728:
 4214              	.LBB1729:
 4215              	.LBB1730:
 4216              	.LBB1731:
 4217              	.LBB1732:
 4218              	.LBB1733:
 4219              	.LBB1734:
 4220              		.loc 4 380 0
 4221 0c68 38C30008 		addi 6,3,8
 4222              	.LBE1734:
 4223              	.LBE1733:
 4224              	.LBE1732:
 4225              	.LBE1731:
 4226              	.LBE1730:
 4227              	.LBE1729:
 4228              	.LBE1728:
 4229              	.LBE1727:
 4230              		.loc 3 31 0
 4231 0c6c 8169000C 		lwz 11,.LC4@l(9)
 4232              	.LBB1759:
 4233              	.LBB1760:
 4234              	.LBB1761:
 4235              	.LBB1762:
 4236              	.LBB1763:
 4237              	.LBB1764:
 4238              	.LBB1765:
 4239              	.LBB1766:
 4240              		.loc 4 380 0
 4241 0c70 38E30014 		addi 7,3,20
 4242              	.LBE1766:
 4243              	.LBE1765:
 4244              	.LBE1764:
 4245              	.LBE1763:
 4246              	.LBE1762:
 4247              	.LBE1761:
 4248              	.LBE1760:
 4249              	.LBE1759:
 4250              	.LBB1784:
 4251              	.LBB1785:
 4252              		.loc 5 17 0
 4253 0c74 3D200BAD 		lis 9,0xbad
 4254              	.LBE1785:
 4255              	.LBE1784:
 4256              	.LBB1791:
 4257              	.LBB1753:
 4258              	.LBB1750:
 4259              	.LBB1747:
 4260              	.LBB1744:
 4261              	.LBB1741:
 4262              	.LBB1737:
 4263              	.LBB1735:
 4264              		.loc 4 380 0
 4265 0c78 90C30008 		stw 6,8(3)
 4266              	.LBE1735:
 4267              	.LBE1737:
 4268              	.LBE1741:
 4269              	.LBE1744:
 4270              	.LBE1747:
 4271              	.LBE1750:
 4272              	.LBE1753:
 4273              	.LBE1791:
 4274              	.LBB1792:
 4275              	.LBB1786:
 4276              		.loc 5 17 0
 4277 0c7c 6129BABE 		ori 9,9,47806
 4278              	.LBE1786:
 4279              	.LBE1792:
 4280              	.LBB1793:
 4281              	.LBB1754:
 4282              	.LBB1751:
 4283              	.LBB1748:
 4284              	.LBB1745:
 4285              	.LBB1742:
 4286              	.LBB1738:
 4287              	.LBB1736:
 4288              		.loc 4 381 0
 4289 0c80 90C3000C 		stw 6,12(3)
 4290              	.LBE1736:
 4291              	.LBE1738:
 4292              	.LBE1742:
 4293              	.LBE1745:
 4294              	.LBE1748:
 4295              	.LBE1751:
 4296              	.LBE1754:
 4297              	.LBE1793:
 4298              	.LBB1794:
 4299              	.LBB1779:
 4300              	.LBB1777:
 4301              	.LBB1775:
 4302              	.LBB1773:
 4303              	.LBB1771:
 4304              	.LBB1769:
 4305              	.LBB1767:
 4306              		.loc 4 380 0
 4307 0c84 90E30014 		stw 7,20(3)
 4308              	.LBE1767:
 4309              	.LBE1769:
 4310              	.LBE1771:
 4311              	.LBE1773:
 4312              	.LBE1775:
 4313              	.LBE1777:
 4314              	.LBE1779:
 4315              	.LBE1794:
 4316              		.loc 3 23 0
 4317 0c88 3CA00000 		lis 5,_ZTV10GuiElement+8@ha
 4318              	.LBB1795:
 4319              	.LBB1780:
 4320              	.LBB1778:
 4321              	.LBB1776:
 4322              	.LBB1774:
 4323              	.LBB1772:
 4324              	.LBB1770:
 4325              	.LBB1768:
 4326              		.loc 4 381 0
 4327 0c8c 90E30018 		stw 7,24(3)
 4328              	.LBE1768:
 4329              	.LBE1770:
 4330              	.LBE1772:
 4331              	.LBE1774:
 4332              	.LBE1776:
 4333              	.LBE1778:
 4334              	.LBE1780:
 4335              	.LBE1795:
 4336              	.LBB1796:
 4337              	.LBB1755:
 4338              		.loc 1 2225 0
 4339 0c90 3CC00000 		lis 6,_ZTVN7sigslot7signal2IP10GuiElementbNS_15single_threadedEEE+8@ha
 4340              	.LBE1755:
 4341              	.LBE1796:
 4342              	.LBB1797:
 4343              	.LBB1781:
 4344              		.loc 1 2292 0
 4345 0c94 3CE00000 		lis 7,_ZTVN7sigslot7signal3IP10GuiElementiiNS_15single_threadedEEE+8@ha
 4346              	.LBE1781:
 4347              	.LBE1797:
 4348              	.LBB1798:
 4349              	.LBB1756:
 4350              	.LBB1752:
 4351              	.LBB1749:
 4352              	.LBB1746:
 4353              	.LBB1743:
 4354              	.LBB1739:
 4355              	.LBB1740:
 4356              		.loc 4 315 0
 4357 0c98 38000000 		li 0,0
 4358              	.LBE1740:
 4359              	.LBE1739:
 4360              	.LBE1743:
 4361              	.LBE1746:
 4362              	.LBE1749:
 4363              	.LBE1752:
 4364              	.LBE1756:
 4365              	.LBE1798:
 4366              		.loc 3 34 0
 4367 0c9c 3940FFFF 		li 10,-1
 4368              		.loc 3 36 0
 4369 0ca0 39000001 		li 8,1
 4370              	.LBB1799:
 4371              	.LBB1787:
 4372              		.loc 5 17 0
 4373 0ca4 91230050 		stw 9,80(3)
 4374              	.LBE1787:
 4375              	.LBE1799:
 4376              		.loc 3 23 0
 4377 0ca8 38A50008 		la 5,_ZTV10GuiElement+8@l(5)
 4378              	.LBB1800:
 4379              	.LBB1788:
 4380              		.loc 5 17 0
 4381 0cac 91230054 		stw 9,84(3)
 4382              	.LBE1788:
 4383              	.LBE1800:
 4384              	.LBB1801:
 4385              	.LBB1757:
 4386              		.loc 1 2225 0
 4387 0cb0 38C60008 		la 6,_ZTVN7sigslot7signal2IP10GuiElementbNS_15single_threadedEEE+8@l(6)
 4388              	.LBE1757:
 4389              	.LBE1801:
 4390              	.LBB1802:
 4391              	.LBB1789:
 4392              		.loc 5 17 0
 4393 0cb4 91230058 		stw 9,88(3)
 4394              	.LBE1789:
 4395              	.LBE1802:
 4396              	.LBB1803:
 4397              	.LBB1782:
 4398              		.loc 1 2292 0
 4399 0cb8 38E70008 		la 7,_ZTVN7sigslot7signal3IP10GuiElementiiNS_15single_threadedEEE+8@l(7)
 4400              	.LBE1782:
 4401              	.LBE1803:
 4402              	.LBB1804:
 4403              	.LBB1790:
 4404              		.loc 5 17 0
 4405 0cbc 9123005C 		stw 9,92(3)
 4406              	.LBE1790:
 4407              	.LBE1804:
 4408              		.loc 3 30 0
 4409 0cc0 392000FF 		li 9,255
 4410              		.loc 3 25 0
 4411 0cc4 9003002C 		stw 0,44(3)
 4412              		.loc 3 26 0
 4413 0cc8 90030030 		stw 0,48(3)
 4414              		.loc 3 27 0
 4415 0ccc 90030034 		stw 0,52(3)
 4416              		.loc 3 28 0
 4417 0cd0 90030024 		stw 0,36(3)
 4418              		.loc 3 29 0
 4419 0cd4 90030028 		stw 0,40(3)
 4420              		.loc 3 33 0
 4421 0cd8 90030048 		stw 0,72(3)
 4422              		.loc 3 35 0
 4423 0cdc 90030060 		stw 0,96(3)
 4424              		.loc 3 37 0
 4425 0ce0 9803001E 		stb 0,30(3)
 4426              		.loc 3 38 0
 4427 0ce4 9803001F 		stb 0,31(3)
 4428              		.loc 3 39 0
 4429 0ce8 98030020 		stb 0,32(3)
 4430              		.loc 3 41 0
 4431 0cec 90030068 		stw 0,104(3)
 4432              		.loc 3 42 0
 4433 0cf0 90030064 		stw 0,100(3)
 4434              		.loc 3 45 0
 4435 0cf4 90030074 		stw 0,116(3)
 4436              		.loc 3 23 0
 4437 0cf8 90A30000 		stw 5,0(3)
 4438              	.LVL289:
 4439              	.LBB1805:
 4440              	.LBB1758:
 4441              		.loc 1 2225 0
 4442 0cfc 90C30004 		stw 6,4(3)
 4443              	.LVL290:
 4444              	.LBE1758:
 4445              	.LBE1805:
 4446              	.LBB1806:
 4447              	.LBB1783:
 4448              		.loc 1 2292 0
 4449 0d00 90E30010 		stw 7,16(3)
 4450              	.LVL291:
 4451              	.LBE1783:
 4452              	.LBE1806:
 4453              		.loc 3 30 0
 4454 0d04 91230038 		stw 9,56(3)
 4455              		.loc 3 31 0
 4456 0d08 9163003C 		stw 11,60(3)
 4457              		.loc 3 32 0
 4458 0d0c 91630040 		stw 11,64(3)
 4459              		.loc 3 34 0
 4460 0d10 9143004C 		stw 10,76(3)
 4461              		.loc 3 36 0
 4462 0d14 9903001C 		stb 8,28(3)
 4463              		.loc 3 40 0
 4464 0d18 9903001D 		stb 8,29(3)
 4465              		.loc 3 43 0
 4466 0d1c 9143006C 		stw 10,108(3)
 4467              		.loc 3 44 0
 4468 0d20 91630070 		stw 11,112(3)
 4469              		.loc 3 46 0
 4470 0d24 90030078 		stw 0,120(3)
 4471              	.LBE1726:
 4472              		.loc 3 55 0
 4473              	.LBB1807:
 4474              		.loc 3 47 0
 4475 0d28 9003007C 		stw 0,124(3)
 4476              		.loc 3 48 0
 4477 0d2c 90030080 		stw 0,128(3)
 4478              		.loc 3 49 0
 4479 0d30 90030084 		stw 0,132(3)
 4480              		.loc 3 50 0
 4481 0d34 90030088 		stw 0,136(3)
 4482              		.loc 3 51 0
 4483 0d38 9003008C 		stw 0,140(3)
 4484              		.loc 3 54 0
 4485 0d3c 38000011 		li 0,17
 4486 0d40 90030044 		stw 0,68(3)
 4487              	.LBE1807:
 4488              		.loc 3 55 0
 4489 0d44 4E800020 		blr
 4490              		.cfi_endproc
 4491              	.LFE1428:
 4492              		.size	_ZN10GuiElementC2Ev, .-_ZN10GuiElementC2Ev
 4493              		.section	.text._ZNSt8_Rb_treeIPN7sigslot12_signal_baseINS0_15single_threadedEEES4_St9_IdentityIS4_
 4494              		.align 2
 4495              		.weak	_ZNSt8_Rb_treeIPN7sigslot12_signal_baseINS0_15single_threadedEEES4_St9_IdentityIS4_ESt4lessI
 4496              		.type	_ZNSt8_Rb_treeIPN7sigslot12_signal_baseINS0_15single_threadedEEES4_St9_IdentityIS4_ESt4lessI
 4497              	_ZNSt8_Rb_treeIPN7sigslot12_signal_baseINS0_15single_threadedEEES4_St9_IdentityIS4_ESt4lessIS4_ESaI
 4498              	.LFB1691:
 4499              		.file 7 "d:\\devkitpro\\devkitppc\\bin\\../lib/gcc/powerpc-eabi/4.6.3/../../../../powerpc-eabi/inc
 4500              		.loc 7 1068 0
 4501              		.cfi_startproc
 4502              	.LVL292:
 4503 0000 9421FFC8 		stwu 1,-56(1)
 4504              	.LCFI64:
 4505              		.cfi_def_cfa_offset 56
 4506 0004 7C0802A6 		mflr 0
 4507 0008 92C10010 		stw 22,16(1)
 4508              	.LBB1924:
 4509              		.loc 7 1072 0
 4510 000c 7C962379 		mr. 22,4
 4511              		.cfi_offset 22, -40
 4512              		.cfi_register 65, 0
 4513              	.LBE1924:
 4514              		.loc 7 1068 0
 4515 0010 93C10030 		stw 30,48(1)
 4516 0014 7C7E1B78 		mr 30,3
 4517              		.cfi_offset 30, -8
 4518 0018 9001003C 		stw 0,60(1)
 4519 001c 92A1000C 		stw 21,12(1)
 4520 0020 92E10014 		stw 23,20(1)
 4521 0024 93010018 		stw 24,24(1)
 4522 0028 9321001C 		stw 25,28(1)
 4523 002c 93410020 		stw 26,32(1)
 4524 0030 93610024 		stw 27,36(1)
 4525 0034 93810028 		stw 28,40(1)
 4526 0038 93A1002C 		stw 29,44(1)
 4527 003c 93E10034 		stw 31,52(1)
 4528              	.LBB2009:
 4529              		.loc 7 1072 0
 4530 0040 41820168 		beq- 0,.L272
 4531              		.cfi_offset 31, -4
 4532              		.cfi_offset 29, -12
 4533              		.cfi_offset 28, -16
 4534              		.cfi_offset 27, -20
 4535              		.cfi_offset 26, -24
 4536              		.cfi_offset 25, -28
 4537              		.cfi_offset 24, -32
 4538              		.cfi_offset 23, -36
 4539              		.cfi_offset 21, -44
 4540              		.cfi_offset 65, 4
 4541              	.LVL293:
 4542              	.L318:
 4543              		.loc 3 394 0
 4544 0044 8376000C 		lwz 27,12(22)
 4545              	.LVL294:
 4546              	.LBB1925:
 4547              	.LBB1926:
 4548              	.LBB1927:
 4549              		.loc 7 1072 0
 4550 0048 2F9B0000 		cmpwi 7,27,0
 4551 004c 419E0140 		beq- 7,.L274
 4552              	.LVL295:
 4553              	.L319:
 4554              	.LBE1927:
 4555              		.loc 3 394 0
 4556 0050 835B000C 		lwz 26,12(27)
 4557              	.LVL296:
 4558              	.LBB2003:
 4559              	.LBB1928:
 4560              	.LBB1929:
 4561              	.LBB1930:
 4562              		.loc 7 1072 0
 4563 0054 2F9A0000 		cmpwi 7,26,0
 4564 0058 419E0118 		beq- 7,.L275
 4565              	.LVL297:
 4566              	.L320:
 4567              	.LBE1930:
 4568              		.loc 3 394 0
 4569 005c 833A000C 		lwz 25,12(26)
 4570              	.LVL298:
 4571              	.LBB1996:
 4572              	.LBB1931:
 4573              	.LBB1932:
 4574              	.LBB1933:
 4575              		.loc 7 1072 0
 4576 0060 2F990000 		cmpwi 7,25,0
 4577 0064 419E00F0 		beq- 7,.L276
 4578              	.LVL299:
 4579              	.L321:
 4580              	.LBE1933:
 4581              		.loc 3 394 0
 4582 0068 8319000C 		lwz 24,12(25)
 4583              	.LVL300:
 4584              	.LBB1989:
 4585              	.LBB1934:
 4586              	.LBB1935:
 4587              	.LBB1936:
 4588              		.loc 7 1072 0
 4589 006c 2F980000 		cmpwi 7,24,0
 4590 0070 419E00C8 		beq- 7,.L277
 4591              	.LVL301:
 4592              	.L322:
 4593              	.LBE1936:
 4594              		.loc 3 394 0
 4595 0074 82F8000C 		lwz 23,12(24)
 4596              	.LVL302:
 4597              	.LBB1982:
 4598              	.LBB1937:
 4599              	.LBB1938:
 4600              	.LBB1939:
 4601              		.loc 7 1072 0
 4602 0078 2F970000 		cmpwi 7,23,0
 4603 007c 419E00A0 		beq- 7,.L278
 4604              	.LVL303:
 4605              	.L323:
 4606              	.LBE1939:
 4607              		.loc 3 394 0
 4608 0080 8397000C 		lwz 28,12(23)
 4609              	.LVL304:
 4610              	.LBB1975:
 4611              	.LBB1940:
 4612              	.LBB1941:
 4613              	.LBB1942:
 4614              		.loc 7 1072 0
 4615 0084 2F9C0000 		cmpwi 7,28,0
 4616 0088 419E0078 		beq- 7,.L279
 4617              	.LVL305:
 4618              	.L324:
 4619              	.LBE1942:
 4620              		.loc 3 394 0
 4621 008c 83BC000C 		lwz 29,12(28)
 4622              	.LVL306:
 4623              	.LBB1968:
 4624              	.LBB1943:
 4625              	.LBB1944:
 4626              	.LBB1945:
 4627              		.loc 7 1072 0
 4628 0090 2F9D0000 		cmpwi 7,29,0
 4629 0094 419E0050 		beq- 7,.L280
 4630              	.LVL307:
 4631              	.L325:
 4632              	.LBE1945:
 4633              		.loc 3 394 0
 4634 0098 83FD000C 		lwz 31,12(29)
 4635              	.LVL308:
 4636              	.LBB1961:
 4637              	.LBB1946:
 4638              	.LBB1947:
 4639              	.LBB1948:
 4640              		.loc 7 1072 0
 4641 009c 2F9F0000 		cmpwi 7,31,0
 4642 00a0 419E0028 		beq- 7,.L281
 4643              	.LVL309:
 4644              	.L326:
 4645              	.LBB1949:
 4646              		.loc 7 1074 0
 4647 00a4 809F000C 		lwz 4,12(31)
 4648 00a8 7FC3F378 		mr 3,30
 4649 00ac 48000001 		bl _ZNSt8_Rb_treeIPN7sigslot12_signal_baseINS0_15single_threadedEEES4_St9_IdentityIS4_ESt4lessIS4_
 4650              	.LBE1949:
 4651              	.LBE1948:
 4652              		.loc 3 394 0
 4653 00b0 82BF0008 		lwz 21,8(31)
 4654              	.LVL310:
 4655              	.LBB1955:
 4656              	.LBB1954:
 4657              	.LBB1950:
 4658              	.LBB1951:
 4659              	.LBB1952:
 4660              	.LBB1953:
 4661              		.loc 6 98 0
 4662 00b4 7FE3FB78 		mr 3,31
 4663 00b8 48000001 		bl _ZdlPv
 4664              	.LVL311:
 4665              	.LBE1953:
 4666              	.LBE1952:
 4667              	.LBE1951:
 4668              	.LBE1950:
 4669              	.LBE1954:
 4670              		.loc 7 1072 0
 4671 00bc 2F950000 		cmpwi 7,21,0
 4672              		.loc 7 1077 0
 4673 00c0 7EBFAB78 		mr 31,21
 4674              	.LVL312:
 4675              		.loc 7 1072 0
 4676 00c4 409EFFE0 		bne+ 7,.L326
 4677              	.LVL313:
 4678              	.L281:
 4679              	.LBE1955:
 4680              	.LBE1947:
 4681              	.LBE1946:
 4682              	.LBE1961:
 4683              		.loc 3 394 0
 4684 00c8 83FD0008 		lwz 31,8(29)
 4685              	.LVL314:
 4686              	.LBB1962:
 4687              	.LBB1960:
 4688              	.LBB1956:
 4689              	.LBB1957:
 4690              	.LBB1958:
 4691              	.LBB1959:
 4692              		.loc 6 98 0
 4693 00cc 7FA3EB78 		mr 3,29
 4694 00d0 48000001 		bl _ZdlPv
 4695              	.LVL315:
 4696              	.LBE1959:
 4697              	.LBE1958:
 4698              	.LBE1957:
 4699              	.LBE1956:
 4700              	.LBE1960:
 4701              		.loc 7 1072 0
 4702 00d4 2F9F0000 		cmpwi 7,31,0
 4703 00d8 419E000C 		beq- 7,.L280
 4704              		.loc 7 1077 0
 4705 00dc 7FFDFB78 		mr 29,31
 4706              	.LVL316:
 4707 00e0 4BFFFFB8 		b .L325
 4708              	.LVL317:
 4709              	.L280:
 4710              	.LBE1962:
 4711              	.LBE1944:
 4712              	.LBE1943:
 4713              	.LBE1968:
 4714              		.loc 3 394 0
 4715 00e4 83FC0008 		lwz 31,8(28)
 4716              	.LVL318:
 4717              	.LBB1969:
 4718              	.LBB1967:
 4719              	.LBB1963:
 4720              	.LBB1964:
 4721              	.LBB1965:
 4722              	.LBB1966:
 4723              		.loc 6 98 0
 4724 00e8 7F83E378 		mr 3,28
 4725 00ec 48000001 		bl _ZdlPv
 4726              	.LVL319:
 4727              	.LBE1966:
 4728              	.LBE1965:
 4729              	.LBE1964:
 4730              	.LBE1963:
 4731              	.LBE1967:
 4732              		.loc 7 1072 0
 4733 00f0 2F9F0000 		cmpwi 7,31,0
 4734 00f4 419E000C 		beq- 7,.L279
 4735              		.loc 7 1077 0
 4736 00f8 7FFCFB78 		mr 28,31
 4737              	.LVL320:
 4738 00fc 4BFFFF90 		b .L324
 4739              	.LVL321:
 4740              	.L279:
 4741              	.LBE1969:
 4742              	.LBE1941:
 4743              	.LBE1940:
 4744              	.LBE1975:
 4745              		.loc 3 394 0
 4746 0100 83F70008 		lwz 31,8(23)
 4747              	.LVL322:
 4748              	.LBB1976:
 4749              	.LBB1974:
 4750              	.LBB1970:
 4751              	.LBB1971:
 4752              	.LBB1972:
 4753              	.LBB1973:
 4754              		.loc 6 98 0
 4755 0104 7EE3BB78 		mr 3,23
 4756 0108 48000001 		bl _ZdlPv
 4757              	.LVL323:
 4758              	.LBE1973:
 4759              	.LBE1972:
 4760              	.LBE1971:
 4761              	.LBE1970:
 4762              	.LBE1974:
 4763              		.loc 7 1072 0
 4764 010c 2F9F0000 		cmpwi 7,31,0
 4765 0110 419E000C 		beq- 7,.L278
 4766              		.loc 7 1077 0
 4767 0114 7FF7FB78 		mr 23,31
 4768              	.LVL324:
 4769 0118 4BFFFF68 		b .L323
 4770              	.LVL325:
 4771              	.L278:
 4772              	.LBE1976:
 4773              	.LBE1938:
 4774              	.LBE1937:
 4775              	.LBE1982:
 4776              		.loc 3 394 0
 4777 011c 83F80008 		lwz 31,8(24)
 4778              	.LVL326:
 4779              	.LBB1983:
 4780              	.LBB1981:
 4781              	.LBB1977:
 4782              	.LBB1978:
 4783              	.LBB1979:
 4784              	.LBB1980:
 4785              		.loc 6 98 0
 4786 0120 7F03C378 		mr 3,24
 4787 0124 48000001 		bl _ZdlPv
 4788              	.LVL327:
 4789              	.LBE1980:
 4790              	.LBE1979:
 4791              	.LBE1978:
 4792              	.LBE1977:
 4793              	.LBE1981:
 4794              		.loc 7 1072 0
 4795 0128 2F9F0000 		cmpwi 7,31,0
 4796 012c 419E000C 		beq- 7,.L277
 4797              		.loc 7 1077 0
 4798 0130 7FF8FB78 		mr 24,31
 4799              	.LVL328:
 4800 0134 4BFFFF40 		b .L322
 4801              	.LVL329:
 4802              	.L277:
 4803              	.LBE1983:
 4804              	.LBE1935:
 4805              	.LBE1934:
 4806              	.LBE1989:
 4807              		.loc 3 394 0
 4808 0138 83F90008 		lwz 31,8(25)
 4809              	.LVL330:
 4810              	.LBB1990:
 4811              	.LBB1988:
 4812              	.LBB1984:
 4813              	.LBB1985:
 4814              	.LBB1986:
 4815              	.LBB1987:
 4816              		.loc 6 98 0
 4817 013c 7F23CB78 		mr 3,25
 4818 0140 48000001 		bl _ZdlPv
 4819              	.LVL331:
 4820              	.LBE1987:
 4821              	.LBE1986:
 4822              	.LBE1985:
 4823              	.LBE1984:
 4824              	.LBE1988:
 4825              		.loc 7 1072 0
 4826 0144 2F9F0000 		cmpwi 7,31,0
 4827 0148 419E000C 		beq- 7,.L276
 4828              		.loc 7 1077 0
 4829 014c 7FF9FB78 		mr 25,31
 4830              	.LVL332:
 4831 0150 4BFFFF18 		b .L321
 4832              	.LVL333:
 4833              	.L276:
 4834              	.LBE1990:
 4835              	.LBE1932:
 4836              	.LBE1931:
 4837              	.LBE1996:
 4838              		.loc 3 394 0
 4839 0154 83FA0008 		lwz 31,8(26)
 4840              	.LVL334:
 4841              	.LBB1997:
 4842              	.LBB1995:
 4843              	.LBB1991:
 4844              	.LBB1992:
 4845              	.LBB1993:
 4846              	.LBB1994:
 4847              		.loc 6 98 0
 4848 0158 7F43D378 		mr 3,26
 4849 015c 48000001 		bl _ZdlPv
 4850              	.LVL335:
 4851              	.LBE1994:
 4852              	.LBE1993:
 4853              	.LBE1992:
 4854              	.LBE1991:
 4855              	.LBE1995:
 4856              		.loc 7 1072 0
 4857 0160 2F9F0000 		cmpwi 7,31,0
 4858 0164 419E000C 		beq- 7,.L275
 4859              		.loc 7 1077 0
 4860 0168 7FFAFB78 		mr 26,31
 4861              	.LVL336:
 4862 016c 4BFFFEF0 		b .L320
 4863              	.LVL337:
 4864              	.L275:
 4865              	.LBE1997:
 4866              	.LBE1929:
 4867              	.LBE1928:
 4868              	.LBE2003:
 4869              		.loc 3 394 0
 4870 0170 83FB0008 		lwz 31,8(27)
 4871              	.LVL338:
 4872              	.LBB2004:
 4873              	.LBB2002:
 4874              	.LBB1998:
 4875              	.LBB1999:
 4876              	.LBB2000:
 4877              	.LBB2001:
 4878              		.loc 6 98 0
 4879 0174 7F63DB78 		mr 3,27
 4880 0178 48000001 		bl _ZdlPv
 4881              	.LVL339:
 4882              	.LBE2001:
 4883              	.LBE2000:
 4884              	.LBE1999:
 4885              	.LBE1998:
 4886              	.LBE2002:
 4887              		.loc 7 1072 0
 4888 017c 2F9F0000 		cmpwi 7,31,0
 4889 0180 419E000C 		beq- 7,.L274
 4890              		.loc 7 1077 0
 4891 0184 7FFBFB78 		mr 27,31
 4892              	.LVL340:
 4893 0188 4BFFFEC8 		b .L319
 4894              	.LVL341:
 4895              	.L274:
 4896              		.loc 3 394 0
 4897 018c 83F60008 		lwz 31,8(22)
 4898              	.LVL342:
 4899              	.LBE2004:
 4900              	.LBE1926:
 4901              	.LBB2005:
 4902              	.LBB2006:
 4903              	.LBB2007:
 4904              	.LBB2008:
 4905              		.loc 6 98 0
 4906 0190 7EC3B378 		mr 3,22
 4907 0194 48000001 		bl _ZdlPv
 4908              	.LVL343:
 4909              	.LBE2008:
 4910              	.LBE2007:
 4911              	.LBE2006:
 4912              	.LBE2005:
 4913              	.LBE1925:
 4914              		.loc 7 1072 0
 4915 0198 2F9F0000 		cmpwi 7,31,0
 4916 019c 419E000C 		beq- 7,.L272
 4917              		.loc 7 1077 0
 4918 01a0 7FF6FB78 		mr 22,31
 4919              	.LVL344:
 4920 01a4 4BFFFEA0 		b .L318
 4921              	.LVL345:
 4922              	.L272:
 4923              	.LBE2009:
 4924              		.loc 7 1079 0
 4925 01a8 8001003C 		lwz 0,60(1)
 4926 01ac 82A1000C 		lwz 21,12(1)
 4927 01b0 7C0803A6 		mtlr 0
 4928 01b4 82C10010 		lwz 22,16(1)
 4929 01b8 82E10014 		lwz 23,20(1)
 4930 01bc 83010018 		lwz 24,24(1)
 4931 01c0 8321001C 		lwz 25,28(1)
 4932 01c4 83410020 		lwz 26,32(1)
 4933 01c8 83610024 		lwz 27,36(1)
 4934 01cc 83810028 		lwz 28,40(1)
 4935 01d0 83A1002C 		lwz 29,44(1)
 4936 01d4 83C10030 		lwz 30,48(1)
 4937              	.LVL346:
 4938 01d8 83E10034 		lwz 31,52(1)
 4939 01dc 38210038 		addi 1,1,56
 4940              	.LCFI65:
 4941              		.cfi_def_cfa_offset 0
 4942              		.cfi_restore 31
 4943              		.cfi_restore 30
 4944              		.cfi_restore 29
 4945              		.cfi_restore 28
 4946              		.cfi_restore 27
 4947              		.cfi_restore 26
 4948              		.cfi_restore 25
 4949              		.cfi_restore 24
 4950              		.cfi_restore 23
 4951              		.cfi_restore 22
 4952              		.cfi_restore 21
 4953 01e0 4E800020 		blr
 4954              		.cfi_endproc
 4955              	.LFE1691:
 4956              		.size	_ZNSt8_Rb_treeIPN7sigslot12_signal_baseINS0_15single_threadedEEES4_St9_IdentityIS4_ESt4lessI
 4957              		.section	.text._ZNSt8_Rb_treeIPN7sigslot12_signal_baseINS0_15single_threadedEEES4_St9_IdentityIS4_
 4958              		.align 2
 4959              		.weak	_ZNSt8_Rb_treeIPN7sigslot12_signal_baseINS0_15single_threadedEEES4_St9_IdentityIS4_ESt4lessI
 4960              		.type	_ZNSt8_Rb_treeIPN7sigslot12_signal_baseINS0_15single_threadedEEES4_St9_IdentityIS4_ESt4lessI
 4961              	_ZNSt8_Rb_treeIPN7sigslot12_signal_baseINS0_15single_threadedEEES4_St9_IdentityIS4_ESt4lessIS4_ESaI
 4962              	.LFB1623:
 4963              		.loc 7 1510 0
 4964              		.cfi_startproc
 4965              	.LVL347:
 4966 0000 7C0802A6 		mflr 0
 4967 0004 9421FFE0 		stwu 1,-32(1)
 4968              	.LCFI66:
 4969              		.cfi_def_cfa_offset 32
 4970              		.cfi_register 65, 0
 4971 0008 93810010 		stw 28,16(1)
 4972              	.LBB2010:
 4973              	.LBB2011:
 4974              		.loc 7 1155 0
 4975 000c 3B830004 		addi 28,3,4
 4976              		.cfi_offset 28, -16
 4977              	.LBE2011:
 4978              	.LBE2010:
 4979              		.loc 7 1510 0
 4980 0010 90010024 		stw 0,36(1)
 4981 0014 93410008 		stw 26,8(1)
 4982              	.LBB2067:
 4983              	.LBB2032:
 4984              	.LBB2012:
 4985              		.loc 7 1155 0
 4986 0018 7F9AE378 		mr 26,28
 4987              		.cfi_offset 26, -24
 4988              		.cfi_offset 65, 4
 4989              	.LBE2012:
 4990              		.loc 3 394 0
 4991 001c 80030008 		lwz 0,8(3)
 4992              	.LBE2032:
 4993              	.LBE2067:
 4994              		.loc 7 1510 0
 4995 0020 93A10014 		stw 29,20(1)
 4996              	.LBB2068:
 4997              	.LBB2033:
 4998              	.LBB2025:
 4999              		.loc 7 1155 0
 5000 0024 7F9DE378 		mr 29,28
 5001              		.cfi_offset 29, -12
 5002              		.loc 7 1156 0
 5003 0028 2F800000 		cmpwi 7,0,0
 5004              	.LBE2025:
 5005              	.LBE2033:
 5006              	.LBE2068:
 5007              		.loc 7 1510 0
 5008 002c 93C10018 		stw 30,24(1)
 5009 0030 9361000C 		stw 27,12(1)
 5010 0034 7C7E1B78 		mr 30,3
 5011              		.cfi_offset 27, -20
 5012              		.cfi_offset 30, -8
 5013              	.LVL348:
 5014 0038 93E1001C 		stw 31,28(1)
 5015              	.LBB2069:
 5016              	.LBB2034:
 5017              	.LBB2026:
 5018              		.loc 7 1156 0
 5019 003c 419E0040 		beq- 7,.L328
 5020              		.cfi_offset 31, -4
 5021 0040 81640000 		lwz 11,0(4)
 5022 0044 7C1A0378 		mr 26,0
 5023 0048 48000010 		b .L339
 5024              	.LVL349:
 5025              	.L358:
 5026              	.LBE2026:
 5027              		.loc 3 394 0
 5028 004c 835A000C 		lwz 26,12(26)
 5029              	.LVL350:
 5030              	.LBB2027:
 5031              		.loc 7 1156 0
 5032 0050 2F9A0000 		cmpwi 7,26,0
 5033 0054 419E0024 		beq- 7,.L357
 5034              	.L339:
 5035              	.LVL351:
 5036              	.LBE2027:
 5037              		.loc 3 394 0
 5038 0058 813A0010 		lwz 9,16(26)
 5039              	.LBB2028:
 5040              	.LBB2013:
 5041              		.loc 7 1158 0
 5042 005c 7F895840 		cmplw 7,9,11
 5043 0060 41BCFFEC 		blt- 7,.L358
 5044              	.LVL352:
 5045              	.LBB2014:
 5046              		.loc 7 1160 0
 5047 0064 409D0094 		ble- 7,.L331
 5048              	.LVL353:
 5049              	.LBE2014:
 5050              	.LBE2013:
 5051              	.LBE2028:
 5052              		.loc 3 394 0
 5053 0068 7F5DD378 		mr 29,26
 5054              		.loc 7 1161 0
 5055 006c 835A0008 		lwz 26,8(26)
 5056              	.LVL354:
 5057              	.LBB2029:
 5058              		.loc 7 1156 0
 5059 0070 2F9A0000 		cmpwi 7,26,0
 5060 0074 409EFFE4 		bne+ 7,.L339
 5061              	.LVL355:
 5062              	.L357:
 5063 0078 7FBAEB78 		mr 26,29
 5064              	.LVL356:
 5065              	.L328:
 5066              	.LBE2029:
 5067              	.LBE2034:
 5068              	.LBB2035:
 5069              	.LBB2036:
 5070              		.loc 3 394 0
 5071 007c 813E000C 		lwz 9,12(30)
 5072              	.LBE2036:
 5073              	.LBE2035:
 5074              	.LBB2063:
 5075              	.LBB2030:
 5076 0080 837E0014 		lwz 27,20(30)
 5077              	.LVL357:
 5078              	.LBE2030:
 5079              	.LBE2063:
 5080              	.LBB2064:
 5081              	.LBB2061:
 5082              	.LBB2037:
 5083              		.loc 7 1500 0
 5084 0084 7F89D000 		cmpw 7,9,26
 5085 0088 419E00DC 		beq- 7,.L340
 5086              	.L344:
 5087              	.LVL358:
 5088              		.loc 7 1503 0
 5089 008c 7F9AE800 		cmpw 7,26,29
 5090 0090 419E0100 		beq- 7,.L359
 5091              	.LVL359:
 5092              	.L355:
 5093              	.LBB2038:
 5094              	.LBB2039:
 5095              		.loc 7 277 0
 5096 0094 7F43D378 		mr 3,26
 5097 0098 48000001 		bl _ZSt18_Rb_tree_incrementPKSt18_Rb_tree_node_base
 5098              	.LBE2039:
 5099              	.LBE2038:
 5100              	.LBB2041:
 5101              	.LBB2042:
 5102              	.LBB2043:
 5103              		.loc 7 1489 0
 5104 009c 7F84E378 		mr 4,28
 5105              	.LBE2043:
 5106              	.LBE2042:
 5107              	.LBE2041:
 5108              	.LBB2054:
 5109              	.LBB2040:
 5110              		.loc 7 277 0
 5111 00a0 7C7F1B78 		mr 31,3
 5112              	.LVL360:
 5113              	.LBE2040:
 5114              	.LBE2054:
 5115              	.LBB2055:
 5116              	.LBB2051:
 5117              	.LBB2048:
 5118              		.loc 7 1489 0
 5119 00a4 7F43D378 		mr 3,26
 5120              	.LVL361:
 5121 00a8 48000001 		bl _ZSt28_Rb_tree_rebalance_for_erasePSt18_Rb_tree_node_baseRS_
 5122              	.LBE2048:
 5123              	.LBE2051:
 5124              	.LBE2055:
 5125              		.loc 7 277 0
 5126 00ac 7FFAFB78 		mr 26,31
 5127              	.LVL362:
 5128              	.LBB2056:
 5129              	.LBB2052:
 5130              	.LBB2049:
 5131              	.LBB2044:
 5132              	.LBB2045:
 5133              	.LBB2046:
 5134              	.LBB2047:
 5135              		.loc 6 98 0
 5136 00b0 48000001 		bl _ZdlPv
 5137              	.LBE2047:
 5138              	.LBE2046:
 5139              	.LBE2045:
 5140              	.LBE2044:
 5141              	.LBE2049:
 5142              	.LBE2052:
 5143              	.LBE2056:
 5144              		.loc 7 1503 0
 5145 00b4 7F9FE800 		cmpw 7,31,29
 5146              	.LBB2057:
 5147              	.LBB2053:
 5148              	.LBB2050:
 5149              		.loc 7 1491 0
 5150 00b8 813E0014 		lwz 9,20(30)
 5151 00bc 3809FFFF 		addi 0,9,-1
 5152 00c0 901E0014 		stw 0,20(30)
 5153              	.LBE2050:
 5154              	.LBE2053:
 5155              	.LBE2057:
 5156              		.loc 7 1503 0
 5157 00c4 409EFFD0 		bne+ 7,.L355
 5158 00c8 7F60D850 		subf 27,0,27
 5159              	.LVL363:
 5160              	.L342:
 5161              	.LBE2037:
 5162              	.LBE2061:
 5163              	.LBE2064:
 5164              	.LBE2069:
 5165              		.loc 7 1517 0
 5166 00cc 80010024 		lwz 0,36(1)
 5167 00d0 7F63DB78 		mr 3,27
 5168 00d4 83410008 		lwz 26,8(1)
 5169 00d8 7C0803A6 		mtlr 0
 5170 00dc 8361000C 		lwz 27,12(1)
 5171 00e0 83810010 		lwz 28,16(1)
 5172 00e4 83A10014 		lwz 29,20(1)
 5173              	.LVL364:
 5174 00e8 83C10018 		lwz 30,24(1)
 5175              	.LVL365:
 5176 00ec 83E1001C 		lwz 31,28(1)
 5177 00f0 38210020 		addi 1,1,32
 5178              		.cfi_remember_state
 5179              	.LCFI67:
 5180              		.cfi_def_cfa_offset 0
 5181              		.cfi_restore 31
 5182              		.cfi_restore 30
 5183              		.cfi_restore 29
 5184              		.cfi_restore 28
 5185              		.cfi_restore 27
 5186              		.cfi_restore 26
 5187 00f4 4E800020 		blr
 5188              	.LVL366:
 5189              	.L331:
 5190              	.LCFI68:
 5191              		.cfi_restore_state
 5192              	.LBB2070:
 5193              	.LBB2065:
 5194              		.loc 3 394 0
 5195 00f8 815A0008 		lwz 10,8(26)
 5196              	.LVL367:
 5197 00fc 813A000C 		lwz 9,12(26)
 5198              	.LVL368:
 5199              	.L356:
 5200              	.LBB2031:
 5201              	.LBB2024:
 5202              	.LBB2023:
 5203              	.LBB2015:
 5204              	.LBB2016:
 5205              	.LBB2017:
 5206              		.loc 7 1089 0
 5207 0100 2F8A0000 		cmpwi 7,10,0
 5208 0104 419E0020 		beq- 7,.L332
 5209              	.L360:
 5210              	.LVL369:
 5211              		.loc 7 1090 0
 5212 0108 810A0010 		lwz 8,16(10)
 5213 010c 7F885840 		cmplw 7,8,11
 5214 0110 419C004C 		blt- 7,.L333
 5215              	.LVL370:
 5216              	.LBE2017:
 5217              		.loc 3 394 0
 5218 0114 7D5A5378 		mr 26,10
 5219              		.loc 7 1091 0
 5220 0118 814A0008 		lwz 10,8(10)
 5221              	.LVL371:
 5222              	.LBB2018:
 5223              		.loc 7 1089 0
 5224 011c 2F8A0000 		cmpwi 7,10,0
 5225 0120 409EFFE8 		bne+ 7,.L360
 5226              	.LVL372:
 5227              	.L332:
 5228              	.LBE2018:
 5229              	.LBE2016:
 5230              	.LBB2019:
 5231              	.LBB2020:
 5232              		.loc 7 1121 0
 5233 0124 2F890000 		cmpwi 7,9,0
 5234 0128 41BEFF54 		beq- 7,.L328
 5235              	.LVL373:
 5236              		.loc 7 1122 0
 5237 012c 81490010 		lwz 10,16(9)
 5238 0130 7F8A5840 		cmplw 7,10,11
 5239 0134 409D0020 		ble- 7,.L336
 5240              	.LVL374:
 5241              	.L361:
 5242              	.LBE2020:
 5243              		.loc 3 394 0
 5244 0138 7D3D4B78 		mr 29,9
 5245              		.loc 7 1123 0
 5246 013c 81290008 		lwz 9,8(9)
 5247              	.LVL375:
 5248              	.LBB2021:
 5249              		.loc 7 1121 0
 5250 0140 2F890000 		cmpwi 7,9,0
 5251 0144 41BEFF38 		beq- 7,.L328
 5252              	.LVL376:
 5253              		.loc 7 1122 0
 5254 0148 81490010 		lwz 10,16(9)
 5255 014c 7F8A5840 		cmplw 7,10,11
 5256 0150 41BDFFE8 		bgt- 7,.L361
 5257              	.LVL377:
 5258              	.L336:
 5259              	.LBE2021:
 5260              		.loc 3 394 0
 5261 0154 8129000C 		lwz 9,12(9)
 5262              	.LVL378:
 5263 0158 4BFFFFCC 		b .L332
 5264              	.LVL379:
 5265              	.L333:
 5266              	.LBE2019:
 5267              	.LBB2022:
 5268 015c 814A000C 		lwz 10,12(10)
 5269              	.LVL380:
 5270 0160 4BFFFFA0 		b .L356
 5271              	.LVL381:
 5272              	.L340:
 5273              	.LBE2022:
 5274              	.LBE2015:
 5275              	.LBE2023:
 5276              	.LBE2024:
 5277              	.LBE2031:
 5278              	.LBE2065:
 5279              	.LBB2066:
 5280              	.LBB2062:
 5281              	.LBB2060:
 5282              		.loc 7 1500 0
 5283 0164 7F9CE800 		cmpw 7,28,29
 5284 0168 409EFF24 		bne+ 7,.L344
 5285              	.LVL382:
 5286              	.LBB2058:
 5287              	.LBB2059:
 5288              		.loc 7 809 0
 5289 016c 7C040378 		mr 4,0
 5290              	.LVL383:
 5291 0170 7FC3F378 		mr 3,30
 5292              	.LVL384:
 5293 0174 48000001 		bl _ZNSt8_Rb_treeIPN7sigslot12_signal_baseINS0_15single_threadedEEES4_St9_IdentityIS4_ESt4lessIS4_
 5294              	.LVL385:
 5295              		.loc 7 811 0
 5296 0178 38000000 		li 0,0
 5297              		.loc 7 810 0
 5298 017c 939E000C 		stw 28,12(30)
 5299              	.LVL386:
 5300              		.loc 7 811 0
 5301 0180 901E0008 		stw 0,8(30)
 5302              	.LVL387:
 5303              		.loc 7 812 0
 5304 0184 939E0010 		stw 28,16(30)
 5305              		.loc 7 813 0
 5306 0188 901E0014 		stw 0,20(30)
 5307 018c 4BFFFF40 		b .L342
 5308              	.LVL388:
 5309              	.L359:
 5310              	.LBE2059:
 5311              	.LBE2058:
 5312              		.loc 7 1503 0
 5313 0190 3B600000 		li 27,0
 5314 0194 4BFFFF38 		b .L342
 5315              	.LBE2060:
 5316              	.LBE2062:
 5317              	.LBE2066:
 5318              	.LBE2070:
 5319              		.cfi_endproc
 5320              	.LFE1623:
 5321              		.size	_ZNSt8_Rb_treeIPN7sigslot12_signal_baseINS0_15single_threadedEEES4_St9_IdentityIS4_ESt4lessI
 5322              		.section	.text._ZN7sigslot7signal3IP10GuiElementiiNS_15single_threadedEED2Ev,"axG",@progbits,_ZN7s
 5323              		.align 2
 5324              		.weak	_ZN7sigslot7signal3IP10GuiElementiiNS_15single_threadedEED2Ev
 5325              		.type	_ZN7sigslot7signal3IP10GuiElementiiNS_15single_threadedEED2Ev, @function
 5326              	_ZN7sigslot7signal3IP10GuiElementiiNS_15single_threadedEED2Ev:
 5327              	.LFB1446:
 5328              		.loc 1 2302 0
 5329              		.cfi_startproc
 5330              		.cfi_personality 0,__gxx_personality_v0
 5331              		.cfi_lsda 0,.LLSDA1446
 5332              	.LVL389:
 5333 0000 7C0802A6 		mflr 0
 5334 0004 9421FFD8 		stwu 1,-40(1)
 5335              	.LCFI69:
 5336              		.cfi_def_cfa_offset 40
 5337              		.cfi_register 65, 0
 5338              	.LBB2168:
 5339              	.LBB2169:
 5340              	.LBB2170:
 5341              	.LBB2171:
 5342              		.loc 1 946 0
 5343 0008 3D200000 		lis 9,_ZTVN7sigslot13_signal_base3IP10GuiElementiiNS_15single_threadedEEE+8@ha
 5344              	.LBE2171:
 5345              	.LBE2170:
 5346              	.LBE2169:
 5347              	.LBE2168:
 5348              		.loc 1 2302 0
 5349 000c 93810018 		stw 28,24(1)
 5350 0010 7C7C1B78 		mr 28,3
 5351              		.cfi_offset 28, -16
 5352              	.LVL390:
 5353 0014 9001002C 		stw 0,44(1)
 5354              	.LBB2269:
 5355              	.LBB2264:
 5356              	.LBB2259:
 5357              	.LBB2254:
 5358              		.loc 1 946 0
 5359 0018 38090008 		la 0,_ZTVN7sigslot13_signal_base3IP10GuiElementiiNS_15single_threadedEEE+8@l(9)
 5360              		.cfi_offset 65, 4
 5361              	.LBE2254:
 5362              	.LBE2259:
 5363              	.LBE2264:
 5364              	.LBE2269:
 5365              		.loc 1 2302 0
 5366 001c 93A1001C 		stw 29,28(1)
 5367 0020 3BA30004 		addi 29,3,4
 5368              		.cfi_offset 29, -12
 5369 0024 93C10020 		stw 30,32(1)
 5370 0028 93E10024 		stw 31,36(1)
 5371              	.LBB2270:
 5372              	.LBB2265:
 5373              	.LBB2260:
 5374              	.LBB2255:
 5375              		.loc 1 946 0
 5376 002c 90030000 		stw 0,0(3)
 5377              	.LVL391:
 5378              	.LEHB24:
 5379              	.LBB2172:
 5380              	.LBB2173:
 5381              	.LBB2174:
 5382              	.LBB2175:
 5383              		.loc 1 338 0
 5384              		.cfi_offset 31, -4
 5385              		.cfi_offset 30, -8
 5386 0030 48000001 		bl _ZN7sigslot15single_threaded4lockEv
 5387              	.LEHE24:
 5388              	.LVL392:
 5389              	.LBE2175:
 5390              	.LBE2174:
 5391              	.LBE2173:
 5392              		.loc 3 394 0
 5393 0034 7F9DE378 		mr 29,28
 5394              	.LVL393:
 5395 0038 87FD0004 		lwzu 31,4(29)
 5396              	.LVL394:
 5397              	.LBB2206:
 5398              		.loc 1 954 0
 5399 003c 7F9FE800 		cmpw 7,31,29
 5400 0040 419E00A8 		beq- 7,.L363
 5401              	.LVL395:
 5402              	.L401:
 5403              		.loc 1 956 0
 5404 0044 807F0008 		lwz 3,8(31)
 5405 0048 81230000 		lwz 9,0(3)
 5406 004c 80090008 		lwz 0,8(9)
 5407 0050 7C0903A6 		mtctr 0
 5408              	.LEHB25:
 5409 0054 4E800421 		bctrl
 5410              	.LBB2176:
 5411              	.LBB2177:
 5412              	.LBB2178:
 5413              	.LBB2179:
 5414              		.loc 1 338 0
 5415 0058 81230000 		lwz 9,0(3)
 5416              	.LBE2179:
 5417              	.LBE2178:
 5418              	.LBE2177:
 5419              	.LBE2176:
 5420              		.loc 1 956 0
 5421 005c 7C7E1B78 		mr 30,3
 5422              	.LVL396:
 5423 0060 93810008 		stw 28,8(1)
 5424              	.LVL397:
 5425              	.LBB2188:
 5426              	.LBB2187:
 5427              	.LBB2181:
 5428              	.LBB2180:
 5429              		.loc 1 338 0
 5430 0064 80090008 		lwz 0,8(9)
 5431 0068 7C0903A6 		mtctr 0
 5432 006c 4E800421 		bctrl
 5433              	.LVL398:
 5434              	.LBE2180:
 5435              	.LBE2181:
 5436              	.LBB2182:
 5437              	.LBB2183:
 5438              		.file 8 "d:\\devkitpro\\devkitppc\\bin\\../lib/gcc/powerpc-eabi/4.6.3/../../../../powerpc-eabi/inc
 5439              		.loc 8 528 0
 5440 0070 387E0004 		addi 3,30,4
 5441 0074 38810008 		addi 4,1,8
 5442 0078 48000001 		bl _ZNSt8_Rb_treeIPN7sigslot12_signal_baseINS0_15single_threadedEEES4_St9_IdentityIS4_ESt4lessIS4_
 5443              	.LVL399:
 5444              	.LBE2183:
 5445              	.LBE2182:
 5446              	.LBB2184:
 5447              	.LBB2185:
 5448              	.LBB2186:
 5449              		.loc 1 343 0
 5450 007c 813E0000 		lwz 9,0(30)
 5451 0080 7FC3F378 		mr 3,30
 5452 0084 8009000C 		lwz 0,12(9)
 5453 0088 7C0903A6 		mtctr 0
 5454 008c 4E800421 		bctrl
 5455              	.LVL400:
 5456              	.LBE2186:
 5457              	.LBE2185:
 5458              	.LBE2184:
 5459              	.LBE2187:
 5460              	.LBE2188:
 5461              		.loc 1 957 0
 5462 0090 807F0008 		lwz 3,8(31)
 5463 0094 2F830000 		cmpwi 7,3,0
 5464 0098 419E0014 		beq- 7,.L365
 5465 009c 81230000 		lwz 9,0(3)
 5466 00a0 80090004 		lwz 0,4(9)
 5467 00a4 7C0903A6 		mtctr 0
 5468 00a8 4E800421 		bctrl
 5469              	.LEHE25:
 5470              	.L365:
 5471              	.LVL401:
 5472              	.LBB2189:
 5473              	.LBB2190:
 5474              		.loc 4 234 0
 5475 00ac 83FF0000 		lwz 31,0(31)
 5476              	.LVL402:
 5477              	.LBE2190:
 5478              	.LBE2189:
 5479              		.loc 1 954 0
 5480 00b0 7F9DF800 		cmpw 7,29,31
 5481 00b4 409EFF90 		bne+ 7,.L401
 5482              	.LBE2206:
 5483              		.loc 3 394 0
 5484 00b8 83FC0004 		lwz 31,4(28)
 5485              	.LVL403:
 5486              	.LBB2207:
 5487              	.LBB2191:
 5488              	.LBB2192:
 5489              		.loc 4 1162 0
 5490 00bc 7F9DF800 		cmpw 7,29,31
 5491 00c0 40BE000C 		bne+ 7,.L403
 5492 00c4 48000024 		b .L363
 5493              	.LVL404:
 5494              	.L396:
 5495              		.loc 4 1163 0
 5496 00c8 7FDFF378 		mr 31,30
 5497              	.LVL405:
 5498              	.L403:
 5499              	.LBB2193:
 5500              	.LBB2194:
 5501              		.file 9 "d:\\devkitpro\\devkitppc\\bin\\../lib/gcc/powerpc-eabi/4.6.3/../../../../powerpc-eabi/inc
 5502              		.loc 9 112 0
 5503 00cc 83DF0000 		lwz 30,0(31)
 5504              	.LVL406:
 5505              	.LBB2195:
 5506              	.LBB2196:
 5507              		.loc 4 1532 0
 5508 00d0 7FE3FB78 		mr 3,31
 5509 00d4 48000001 		bl _ZNSt8__detail15_List_node_base9_M_unhookEv
 5510              	.LVL407:
 5511              	.LBB2197:
 5512              	.LBB2198:
 5513              	.LBB2199:
 5514              		.loc 6 98 0
 5515 00d8 7FE3FB78 		mr 3,31
 5516 00dc 48000001 		bl _ZdlPv
 5517              	.LVL408:
 5518              	.LBE2199:
 5519              	.LBE2198:
 5520              	.LBE2197:
 5521              	.LBE2196:
 5522              	.LBE2195:
 5523              	.LBE2194:
 5524              	.LBE2193:
 5525              		.loc 4 1162 0
 5526 00e0 7F9DF000 		cmpw 7,29,30
 5527 00e4 409EFFE4 		bne+ 7,.L396
 5528              	.LVL409:
 5529              	.L363:
 5530              	.LBE2192:
 5531              	.LBE2191:
 5532              	.LBB2200:
 5533              	.LBB2201:
 5534              	.LBB2202:
 5535              		.loc 1 343 0
 5536 00e8 813C0000 		lwz 9,0(28)
 5537 00ec 7F83E378 		mr 3,28
 5538 00f0 8009000C 		lwz 0,12(9)
 5539 00f4 7C0903A6 		mtctr 0
 5540              	.LEHB26:
 5541 00f8 4E800421 		bctrl
 5542              	.LEHE26:
 5543              	.LBE2202:
 5544              	.LBE2201:
 5545              	.LBE2200:
 5546              	.LBE2207:
 5547              	.LBE2172:
 5548              	.LBB2209:
 5549              	.LBB2210:
 5550              	.LBB2211:
 5551              	.LBB2212:
 5552              	.LBB2213:
 5553              	.LBB2214:
 5554              		.loc 9 70 0
 5555 00fc 807C0004 		lwz 3,4(28)
 5556              	.LVL410:
 5557              		.loc 9 71 0
 5558 0100 7F83E800 		cmpw 7,3,29
 5559 0104 40BE000C 		bne+ 7,.L405
 5560 0108 48000018 		b .L381
 5561              	.LVL411:
 5562              	.L397:
 5563              		.loc 9 74 0
 5564 010c 7FE3FB78 		mr 3,31
 5565              	.LVL412:
 5566              	.L405:
 5567              	.LBB2215:
 5568 0110 83E30000 		lwz 31,0(3)
 5569              	.LVL413:
 5570              	.LBB2216:
 5571              	.LBB2217:
 5572              	.LBB2218:
 5573              		.loc 6 98 0
 5574 0114 48000001 		bl _ZdlPv
 5575              	.LVL414:
 5576              	.LBE2218:
 5577              	.LBE2217:
 5578              	.LBE2216:
 5579              	.LBE2215:
 5580              		.loc 9 71 0
 5581 0118 7F9FE800 		cmpw 7,31,29
 5582 011c 409EFFF0 		bne+ 7,.L397
 5583              	.LVL415:
 5584              	.L381:
 5585              	.LBE2214:
 5586              	.LBE2213:
 5587              	.LBE2212:
 5588              	.LBE2211:
 5589              	.LBE2210:
 5590              	.LBE2209:
 5591              	.LBB2219:
 5592              	.LBB2220:
 5593              	.LBB2221:
 5594              	.LBB2222:
 5595              	.LBB2223:
 5596              	.LBB2224:
 5597              		.loc 1 105 0
 5598 0120 3D200000 		lis 9,_ZTVN7sigslot15single_threadedE+8@ha
 5599              	.LBE2224:
 5600              	.LBE2223:
 5601              	.LBE2222:
 5602              	.LBE2221:
 5603              	.LBE2220:
 5604              	.LBE2219:
 5605              	.LBE2255:
 5606              	.LBE2260:
 5607              	.LBE2265:
 5608              	.LBE2270:
 5609              		.loc 1 2305 0
 5610 0124 83A1001C 		lwz 29,28(1)
 5611              	.LVL416:
 5612              	.LBB2271:
 5613              	.LBB2266:
 5614              	.LBB2261:
 5615              	.LBB2256:
 5616              	.LBB2235:
 5617              	.LBB2233:
 5618              	.LBB2231:
 5619              	.LBB2229:
 5620              	.LBB2227:
 5621              	.LBB2225:
 5622              		.loc 1 105 0
 5623 0128 38090008 		la 0,_ZTVN7sigslot15single_threadedE+8@l(9)
 5624              	.LBE2225:
 5625              	.LBE2227:
 5626              	.LBE2229:
 5627              	.LBE2231:
 5628              	.LBE2233:
 5629              	.LBE2235:
 5630              	.LBE2256:
 5631              	.LBE2261:
 5632              	.LBE2266:
 5633              	.LBE2271:
 5634              		.loc 1 2305 0
 5635 012c 83C10020 		lwz 30,32(1)
 5636              	.LBB2272:
 5637              	.LBB2267:
 5638              	.LBB2262:
 5639              	.LBB2257:
 5640              	.LBB2236:
 5641              	.LBB2234:
 5642              	.LBB2232:
 5643              	.LBB2230:
 5644              	.LBB2228:
 5645              	.LBB2226:
 5646              		.loc 1 105 0
 5647 0130 901C0000 		stw 0,0(28)
 5648              	.LBE2226:
 5649              	.LBE2228:
 5650              	.LBE2230:
 5651              	.LBE2232:
 5652              	.LBE2234:
 5653              	.LBE2236:
 5654              	.LBE2257:
 5655              	.LBE2262:
 5656              	.LBE2267:
 5657              	.LBE2272:
 5658              		.loc 1 2305 0
 5659 0134 8001002C 		lwz 0,44(1)
 5660 0138 83810018 		lwz 28,24(1)
 5661              	.LVL417:
 5662 013c 7C0803A6 		mtlr 0
 5663 0140 83E10024 		lwz 31,36(1)
 5664 0144 38210028 		addi 1,1,40
 5665              		.cfi_remember_state
 5666              	.LCFI70:
 5667              		.cfi_def_cfa_offset 0
 5668              		.cfi_restore 31
 5669              		.cfi_restore 30
 5670              		.cfi_restore 29
 5671              		.cfi_restore 28
 5672 0148 4E800020 		blr
 5673              	.LVL418:
 5674              	.L399:
 5675              	.LCFI71:
 5676              		.cfi_restore_state
 5677 014c 7C7F1B78 		mr 31,3
 5678              	.L373:
 5679              	.LBB2273:
 5680              	.LBB2268:
 5681              	.LBB2263:
 5682              	.LBB2258:
 5683              	.LBB2237:
 5684              	.LBB2238:
 5685              	.LBB2239:
 5686              	.LBB2240:
 5687              	.LBB2241:
 5688              	.LBB2242:
 5689              		.loc 9 70 0
 5690 0150 807C0004 		lwz 3,4(28)
 5691              	.LVL419:
 5692              		.loc 9 71 0
 5693 0154 7F83E800 		cmpw 7,3,29
 5694 0158 419E0038 		beq- 7,.L390
 5695              	.LVL420:
 5696              	.L406:
 5697              	.LBB2243:
 5698              		.loc 9 74 0
 5699 015c 83C30000 		lwz 30,0(3)
 5700              	.LVL421:
 5701              	.LBB2244:
 5702              	.LBB2245:
 5703              	.LBB2246:
 5704              		.loc 6 98 0
 5705 0160 48000001 		bl _ZdlPv
 5706              	.LVL422:
 5707              	.LBE2246:
 5708              	.LBE2245:
 5709              	.LBE2244:
 5710              	.LBE2243:
 5711              		.loc 9 71 0
 5712 0164 7F9EE800 		cmpw 7,30,29
 5713 0168 419E0028 		beq- 7,.L390
 5714              		.loc 9 74 0
 5715 016c 7FC3F378 		mr 3,30
 5716 0170 4BFFFFEC 		b .L406
 5717              	.LVL423:
 5718              	.L400:
 5719              	.LBE2242:
 5720              	.LBE2241:
 5721              	.LBE2240:
 5722              	.LBE2239:
 5723              	.LBE2238:
 5724              	.LBE2237:
 5725              	.LBB2247:
 5726              	.LBB2208:
 5727              	.LBB2203:
 5728              	.LBB2204:
 5729              	.LBB2205:
 5730              		.loc 1 343 0
 5731 0174 813C0000 		lwz 9,0(28)
 5732 0178 7C7F1B78 		mr 31,3
 5733              	.LVL424:
 5734 017c 7F83E378 		mr 3,28
 5735 0180 8009000C 		lwz 0,12(9)
 5736 0184 7C0903A6 		mtctr 0
 5737 0188 4E800421 		bctrl
 5738 018c 4BFFFFC4 		b .L373
 5739              	.LVL425:
 5740              	.L390:
 5741              	.LBE2205:
 5742              	.LBE2204:
 5743              	.LBE2203:
 5744              	.LBE2208:
 5745              	.LBE2247:
 5746              	.LBB2248:
 5747              	.LBB2249:
 5748              	.LBB2250:
 5749              	.LBB2251:
 5750              	.LBB2252:
 5751              	.LBB2253:
 5752              		.loc 1 105 0
 5753 0190 3D200000 		lis 9,_ZTVN7sigslot15single_threadedE+8@ha
 5754 0194 7FE3FB78 		mr 3,31
 5755 0198 38090008 		la 0,_ZTVN7sigslot15single_threadedE+8@l(9)
 5756 019c 901C0000 		stw 0,0(28)
 5757              	.LEHB27:
 5758 01a0 48000001 		bl _Unwind_Resume
 5759              	.LEHE27:
 5760              	.LBE2253:
 5761              	.LBE2252:
 5762              	.LBE2251:
 5763              	.LBE2250:
 5764              	.LBE2249:
 5765              	.LBE2248:
 5766              	.LBE2258:
 5767              	.LBE2263:
 5768              	.LBE2268:
 5769              	.LBE2273:
 5770              		.cfi_endproc
 5771              	.LFE1446:
 5772              		.section	.gcc_except_table
 5773              	.LLSDA1446:
 5774 008b FF       		.byte	0xff
 5775 008c FF       		.byte	0xff
 5776 008d 01       		.byte	0x1
 5777 008e 15       		.uleb128 .LLSDACSE1446-.LLSDACSB1446
 5778              	.LLSDACSB1446:
 5779 008f 30       		.uleb128 .LEHB24-.LFB1446
 5780 0090 04       		.uleb128 .LEHE24-.LEHB24
 5781 0091 CC02     		.uleb128 .L399-.LFB1446
 5782 0093 00       		.uleb128 0
 5783 0094 54       		.uleb128 .LEHB25-.LFB1446
 5784 0095 58       		.uleb128 .LEHE25-.LEHB25
 5785 0096 F402     		.uleb128 .L400-.LFB1446
 5786 0098 00       		.uleb128 0
 5787 0099 F801     		.uleb128 .LEHB26-.LFB1446
 5788 009b 04       		.uleb128 .LEHE26-.LEHB26
 5789 009c CC02     		.uleb128 .L399-.LFB1446
 5790 009e 00       		.uleb128 0
 5791 009f A003     		.uleb128 .LEHB27-.LFB1446
 5792 00a1 04       		.uleb128 .LEHE27-.LEHB27
 5793 00a2 00       		.uleb128 0
 5794 00a3 00       		.uleb128 0
 5795              	.LLSDACSE1446:
 5796              		.section	.text._ZN7sigslot7signal3IP10GuiElementiiNS_15single_threadedEED2Ev,"axG",@progbits,_ZN7s
 5797              		.size	_ZN7sigslot7signal3IP10GuiElementiiNS_15single_threadedEED2Ev, .-_ZN7sigslot7signal3IP10GuiE
 5798              		.section	.text._ZN7sigslot7signal2IP10GuiElementbNS_15single_threadedEED0Ev,"axG",@progbits,_ZN7si
 5799              		.align 2
 5800              		.weak	_ZN7sigslot7signal2IP10GuiElementbNS_15single_threadedEED0Ev
 5801              		.type	_ZN7sigslot7signal2IP10GuiElementbNS_15single_threadedEED0Ev, @function
 5802              	_ZN7sigslot7signal2IP10GuiElementbNS_15single_threadedEED0Ev:
 5803              	.LFB1444:
 5804              		.loc 1 2235 0
 5805              		.cfi_startproc
 5806              		.cfi_personality 0,__gxx_personality_v0
 5807              		.cfi_lsda 0,.LLSDA1444
 5808              	.LVL426:
 5809 0000 7C0802A6 		mflr 0
 5810 0004 9421FFD8 		stwu 1,-40(1)
 5811              	.LCFI72:
 5812              		.cfi_def_cfa_offset 40
 5813              		.cfi_register 65, 0
 5814              	.LBB2372:
 5815              	.LBB2373:
 5816              	.LBB2374:
 5817              	.LBB2375:
 5818              	.LBB2376:
 5819              	.LBB2377:
 5820              		.loc 1 826 0
 5821 0008 3D200000 		lis 9,_ZTVN7sigslot13_signal_base2IP10GuiElementbNS_15single_threadedEEE+8@ha
 5822              	.LBE2377:
 5823              	.LBE2376:
 5824              	.LBE2375:
 5825              	.LBE2374:
 5826              	.LBE2373:
 5827              	.LBE2372:
 5828              		.loc 1 2235 0
 5829 000c 93810018 		stw 28,24(1)
 5830 0010 7C7C1B78 		mr 28,3
 5831              		.cfi_offset 28, -16
 5832              	.LVL427:
 5833 0014 9001002C 		stw 0,44(1)
 5834              	.LBB2474:
 5835              	.LBB2470:
 5836              	.LBB2466:
 5837              	.LBB2462:
 5838              	.LBB2458:
 5839              	.LBB2454:
 5840              		.loc 1 826 0
 5841 0018 38090008 		la 0,_ZTVN7sigslot13_signal_base2IP10GuiElementbNS_15single_threadedEEE+8@l(9)
 5842              		.cfi_offset 65, 4
 5843              	.LBE2454:
 5844              	.LBE2458:
 5845              	.LBE2462:
 5846              	.LBE2466:
 5847              	.LBE2470:
 5848              	.LBE2474:
 5849              		.loc 1 2235 0
 5850 001c 93A1001C 		stw 29,28(1)
 5851 0020 3BA30004 		addi 29,3,4
 5852              		.cfi_offset 29, -12
 5853 0024 93C10020 		stw 30,32(1)
 5854 0028 93E10024 		stw 31,36(1)
 5855              	.LBB2475:
 5856              	.LBB2471:
 5857              	.LBB2467:
 5858              	.LBB2463:
 5859              	.LBB2459:
 5860              	.LBB2455:
 5861              		.loc 1 826 0
 5862 002c 90030000 		stw 0,0(3)
 5863              	.LVL428:
 5864              	.LEHB28:
 5865              	.LBB2378:
 5866              	.LBB2379:
 5867              	.LBB2380:
 5868              	.LBB2381:
 5869              		.loc 1 338 0
 5870              		.cfi_offset 31, -4
 5871              		.cfi_offset 30, -8
 5872 0030 48000001 		bl _ZN7sigslot15single_threaded4lockEv
 5873              	.LEHE28:
 5874              	.LVL429:
 5875              	.LBE2381:
 5876              	.LBE2380:
 5877              	.LBE2379:
 5878              		.loc 3 394 0
 5879 0034 7F9DE378 		mr 29,28
 5880              	.LVL430:
 5881 0038 87FD0004 		lwzu 31,4(29)
 5882              	.LVL431:
 5883              	.LBB2412:
 5884              		.loc 1 834 0
 5885 003c 7F9FE800 		cmpw 7,31,29
 5886 0040 419E00A8 		beq- 7,.L408
 5887              	.LVL432:
 5888              	.L447:
 5889              		.loc 1 836 0
 5890 0044 807F0008 		lwz 3,8(31)
 5891 0048 81230000 		lwz 9,0(3)
 5892 004c 80090008 		lwz 0,8(9)
 5893 0050 7C0903A6 		mtctr 0
 5894              	.LEHB29:
 5895 0054 4E800421 		bctrl
 5896              	.LBB2382:
 5897              	.LBB2383:
 5898              	.LBB2384:
 5899              	.LBB2385:
 5900              		.loc 1 338 0
 5901 0058 81230000 		lwz 9,0(3)
 5902              	.LBE2385:
 5903              	.LBE2384:
 5904              	.LBE2383:
 5905              	.LBE2382:
 5906              		.loc 1 836 0
 5907 005c 7C7E1B78 		mr 30,3
 5908              	.LVL433:
 5909 0060 93810008 		stw 28,8(1)
 5910              	.LVL434:
 5911              	.LBB2394:
 5912              	.LBB2393:
 5913              	.LBB2387:
 5914              	.LBB2386:
 5915              		.loc 1 338 0
 5916 0064 80090008 		lwz 0,8(9)
 5917 0068 7C0903A6 		mtctr 0
 5918 006c 4E800421 		bctrl
 5919              	.LVL435:
 5920              	.LBE2386:
 5921              	.LBE2387:
 5922              	.LBB2388:
 5923              	.LBB2389:
 5924              		.loc 8 528 0
 5925 0070 387E0004 		addi 3,30,4
 5926 0074 38810008 		addi 4,1,8
 5927 0078 48000001 		bl _ZNSt8_Rb_treeIPN7sigslot12_signal_baseINS0_15single_threadedEEES4_St9_IdentityIS4_ESt4lessIS4_
 5928              	.LVL436:
 5929              	.LBE2389:
 5930              	.LBE2388:
 5931              	.LBB2390:
 5932              	.LBB2391:
 5933              	.LBB2392:
 5934              		.loc 1 343 0
 5935 007c 813E0000 		lwz 9,0(30)
 5936 0080 7FC3F378 		mr 3,30
 5937 0084 8009000C 		lwz 0,12(9)
 5938 0088 7C0903A6 		mtctr 0
 5939 008c 4E800421 		bctrl
 5940              	.LVL437:
 5941              	.LBE2392:
 5942              	.LBE2391:
 5943              	.LBE2390:
 5944              	.LBE2393:
 5945              	.LBE2394:
 5946              		.loc 1 837 0
 5947 0090 807F0008 		lwz 3,8(31)
 5948 0094 2F830000 		cmpwi 7,3,0
 5949 0098 419E0014 		beq- 7,.L410
 5950 009c 81230000 		lwz 9,0(3)
 5951 00a0 80090004 		lwz 0,4(9)
 5952 00a4 7C0903A6 		mtctr 0
 5953 00a8 4E800421 		bctrl
 5954              	.LEHE29:
 5955              	.L410:
 5956              	.LVL438:
 5957              	.LBB2395:
 5958              	.LBB2396:
 5959              		.loc 4 234 0
 5960 00ac 83FF0000 		lwz 31,0(31)
 5961              	.LVL439:
 5962              	.LBE2396:
 5963              	.LBE2395:
 5964              		.loc 1 834 0
 5965 00b0 7F9DF800 		cmpw 7,29,31
 5966 00b4 409EFF90 		bne+ 7,.L447
 5967              	.LBE2412:
 5968              		.loc 3 394 0
 5969 00b8 83FC0004 		lwz 31,4(28)
 5970              	.LVL440:
 5971              	.LBB2413:
 5972              	.LBB2397:
 5973              	.LBB2398:
 5974              		.loc 4 1162 0
 5975 00bc 7F9DF800 		cmpw 7,29,31
 5976 00c0 40BE000C 		bne+ 7,.L449
 5977 00c4 48000024 		b .L408
 5978              	.LVL441:
 5979              	.L442:
 5980              		.loc 4 1163 0
 5981 00c8 7FDFF378 		mr 31,30
 5982              	.LVL442:
 5983              	.L449:
 5984              	.LBB2399:
 5985              	.LBB2400:
 5986              		.loc 9 112 0
 5987 00cc 83DF0000 		lwz 30,0(31)
 5988              	.LVL443:
 5989              	.LBB2401:
 5990              	.LBB2402:
 5991              		.loc 4 1532 0
 5992 00d0 7FE3FB78 		mr 3,31
 5993 00d4 48000001 		bl _ZNSt8__detail15_List_node_base9_M_unhookEv
 5994              	.LVL444:
 5995              	.LBB2403:
 5996              	.LBB2404:
 5997              	.LBB2405:
 5998              		.loc 6 98 0
 5999 00d8 7FE3FB78 		mr 3,31
 6000 00dc 48000001 		bl _ZdlPv
 6001              	.LVL445:
 6002              	.LBE2405:
 6003              	.LBE2404:
 6004              	.LBE2403:
 6005              	.LBE2402:
 6006              	.LBE2401:
 6007              	.LBE2400:
 6008              	.LBE2399:
 6009              		.loc 4 1162 0
 6010 00e0 7F9DF000 		cmpw 7,29,30
 6011 00e4 409EFFE4 		bne+ 7,.L442
 6012              	.LVL446:
 6013              	.L408:
 6014              	.LBE2398:
 6015              	.LBE2397:
 6016              	.LBB2406:
 6017              	.LBB2407:
 6018              	.LBB2408:
 6019              		.loc 1 343 0
 6020 00e8 813C0000 		lwz 9,0(28)
 6021 00ec 7F83E378 		mr 3,28
 6022 00f0 8009000C 		lwz 0,12(9)
 6023 00f4 7C0903A6 		mtctr 0
 6024              	.LEHB30:
 6025 00f8 4E800421 		bctrl
 6026              	.LEHE30:
 6027              	.LBE2408:
 6028              	.LBE2407:
 6029              	.LBE2406:
 6030              	.LBE2413:
 6031              	.LBE2378:
 6032              	.LBB2415:
 6033              	.LBB2416:
 6034              	.LBB2417:
 6035              	.LBB2418:
 6036              	.LBB2419:
 6037              	.LBB2420:
 6038              		.loc 9 70 0
 6039 00fc 807C0004 		lwz 3,4(28)
 6040              	.LVL447:
 6041              		.loc 9 71 0
 6042 0100 7F83E800 		cmpw 7,3,29
 6043 0104 40BE000C 		bne+ 7,.L451
 6044 0108 48000018 		b .L426
 6045              	.LVL448:
 6046              	.L443:
 6047              		.loc 9 74 0
 6048 010c 7FE3FB78 		mr 3,31
 6049              	.LVL449:
 6050              	.L451:
 6051              	.LBB2421:
 6052 0110 83E30000 		lwz 31,0(3)
 6053              	.LVL450:
 6054              	.LBB2422:
 6055              	.LBB2423:
 6056              	.LBB2424:
 6057              		.loc 6 98 0
 6058 0114 48000001 		bl _ZdlPv
 6059              	.LVL451:
 6060              	.LBE2424:
 6061              	.LBE2423:
 6062              	.LBE2422:
 6063              	.LBE2421:
 6064              		.loc 9 71 0
 6065 0118 7F9FE800 		cmpw 7,31,29
 6066 011c 409EFFF0 		bne+ 7,.L443
 6067              	.LVL452:
 6068              	.L426:
 6069              	.LBE2420:
 6070              	.LBE2419:
 6071              	.LBE2418:
 6072              	.LBE2417:
 6073              	.LBE2416:
 6074              	.LBE2415:
 6075              	.LBB2425:
 6076              	.LBB2426:
 6077              	.LBB2427:
 6078              	.LBB2428:
 6079              	.LBB2429:
 6080              	.LBB2430:
 6081              		.loc 1 105 0
 6082 0120 3D200000 		lis 9,_ZTVN7sigslot15single_threadedE+8@ha
 6083              	.LBE2430:
 6084              	.LBE2429:
 6085              	.LBE2428:
 6086              	.LBE2427:
 6087              	.LBE2426:
 6088              	.LBE2425:
 6089              	.LBE2455:
 6090              	.LBE2459:
 6091              	.LBE2463:
 6092              	.LBE2467:
 6093              	.LBE2471:
 6094              	.LBE2475:
 6095              		.loc 1 2238 0
 6096 0124 7F83E378 		mr 3,28
 6097              	.LBB2476:
 6098              	.LBB2472:
 6099              	.LBB2468:
 6100              	.LBB2464:
 6101              	.LBB2460:
 6102              	.LBB2456:
 6103              	.LBB2436:
 6104              	.LBB2435:
 6105              	.LBB2434:
 6106              	.LBB2433:
 6107              	.LBB2432:
 6108              	.LBB2431:
 6109              		.loc 1 105 0
 6110 0128 38090008 		la 0,_ZTVN7sigslot15single_threadedE+8@l(9)
 6111 012c 901C0000 		stw 0,0(28)
 6112              	.LBE2431:
 6113              	.LBE2432:
 6114              	.LBE2433:
 6115              	.LBE2434:
 6116              	.LBE2435:
 6117              	.LBE2436:
 6118              	.LBE2456:
 6119              	.LBE2460:
 6120              	.LBE2464:
 6121              	.LBE2468:
 6122              	.LBE2472:
 6123              	.LBE2476:
 6124              		.loc 1 2238 0
 6125 0130 48000001 		bl _ZdlPv
 6126 0134 8001002C 		lwz 0,44(1)
 6127 0138 83810018 		lwz 28,24(1)
 6128              	.LVL453:
 6129 013c 7C0803A6 		mtlr 0
 6130 0140 83A1001C 		lwz 29,28(1)
 6131              	.LVL454:
 6132 0144 83C10020 		lwz 30,32(1)
 6133 0148 83E10024 		lwz 31,36(1)
 6134 014c 38210028 		addi 1,1,40
 6135              		.cfi_remember_state
 6136              	.LCFI73:
 6137              		.cfi_def_cfa_offset 0
 6138              		.cfi_restore 31
 6139              		.cfi_restore 30
 6140              		.cfi_restore 29
 6141              		.cfi_restore 28
 6142 0150 4E800020 		blr
 6143              	.LVL455:
 6144              	.L445:
 6145              	.LCFI74:
 6146              		.cfi_restore_state
 6147 0154 7C7F1B78 		mr 31,3
 6148              	.L418:
 6149              	.LBB2477:
 6150              	.LBB2473:
 6151              	.LBB2469:
 6152              	.LBB2465:
 6153              	.LBB2461:
 6154              	.LBB2457:
 6155              	.LBB2437:
 6156              	.LBB2438:
 6157              	.LBB2439:
 6158              	.LBB2440:
 6159              	.LBB2441:
 6160              	.LBB2442:
 6161              		.loc 9 70 0
 6162 0158 807C0004 		lwz 3,4(28)
 6163              	.LVL456:
 6164              		.loc 9 71 0
 6165 015c 7F83E800 		cmpw 7,3,29
 6166 0160 419E0038 		beq- 7,.L435
 6167              	.LVL457:
 6168              	.L452:
 6169              	.LBB2443:
 6170              		.loc 9 74 0
 6171 0164 83C30000 		lwz 30,0(3)
 6172              	.LVL458:
 6173              	.LBB2444:
 6174              	.LBB2445:
 6175              	.LBB2446:
 6176              		.loc 6 98 0
 6177 0168 48000001 		bl _ZdlPv
 6178              	.LVL459:
 6179              	.LBE2446:
 6180              	.LBE2445:
 6181              	.LBE2444:
 6182              	.LBE2443:
 6183              		.loc 9 71 0
 6184 016c 7F9EE800 		cmpw 7,30,29
 6185 0170 419E0028 		beq- 7,.L435
 6186              		.loc 9 74 0
 6187 0174 7FC3F378 		mr 3,30
 6188 0178 4BFFFFEC 		b .L452
 6189              	.LVL460:
 6190              	.L446:
 6191              	.LBE2442:
 6192              	.LBE2441:
 6193              	.LBE2440:
 6194              	.LBE2439:
 6195              	.LBE2438:
 6196              	.LBE2437:
 6197              	.LBB2447:
 6198              	.LBB2414:
 6199              	.LBB2409:
 6200              	.LBB2410:
 6201              	.LBB2411:
 6202              		.loc 1 343 0
 6203 017c 813C0000 		lwz 9,0(28)
 6204 0180 7C7F1B78 		mr 31,3
 6205              	.LVL461:
 6206 0184 7F83E378 		mr 3,28
 6207 0188 8009000C 		lwz 0,12(9)
 6208 018c 7C0903A6 		mtctr 0
 6209 0190 4E800421 		bctrl
 6210 0194 4BFFFFC4 		b .L418
 6211              	.LVL462:
 6212              	.L435:
 6213              	.LBE2411:
 6214              	.LBE2410:
 6215              	.LBE2409:
 6216              	.LBE2414:
 6217              	.LBE2447:
 6218              	.LBB2448:
 6219              	.LBB2449:
 6220              	.LBB2450:
 6221              	.LBB2451:
 6222              	.LBB2452:
 6223              	.LBB2453:
 6224              		.loc 1 105 0
 6225 0198 3D200000 		lis 9,_ZTVN7sigslot15single_threadedE+8@ha
 6226 019c 7FE3FB78 		mr 3,31
 6227 01a0 38090008 		la 0,_ZTVN7sigslot15single_threadedE+8@l(9)
 6228 01a4 901C0000 		stw 0,0(28)
 6229              	.LEHB31:
 6230 01a8 48000001 		bl _Unwind_Resume
 6231              	.LEHE31:
 6232              	.LBE2453:
 6233              	.LBE2452:
 6234              	.LBE2451:
 6235              	.LBE2450:
 6236              	.LBE2449:
 6237              	.LBE2448:
 6238              	.LBE2457:
 6239              	.LBE2461:
 6240              	.LBE2465:
 6241              	.LBE2469:
 6242              	.LBE2473:
 6243              	.LBE2477:
 6244              		.cfi_endproc
 6245              	.LFE1444:
 6246              		.section	.gcc_except_table
 6247              	.LLSDA1444:
 6248 00a4 FF       		.byte	0xff
 6249 00a5 FF       		.byte	0xff
 6250 00a6 01       		.byte	0x1
 6251 00a7 15       		.uleb128 .LLSDACSE1444-.LLSDACSB1444
 6252              	.LLSDACSB1444:
 6253 00a8 30       		.uleb128 .LEHB28-.LFB1444
 6254 00a9 04       		.uleb128 .LEHE28-.LEHB28
 6255 00aa D402     		.uleb128 .L445-.LFB1444
 6256 00ac 00       		.uleb128 0
 6257 00ad 54       		.uleb128 .LEHB29-.LFB1444
 6258 00ae 58       		.uleb128 .LEHE29-.LEHB29
 6259 00af FC02     		.uleb128 .L446-.LFB1444
 6260 00b1 00       		.uleb128 0
 6261 00b2 F801     		.uleb128 .LEHB30-.LFB1444
 6262 00b4 04       		.uleb128 .LEHE30-.LEHB30
 6263 00b5 D402     		.uleb128 .L445-.LFB1444
 6264 00b7 00       		.uleb128 0
 6265 00b8 A803     		.uleb128 .LEHB31-.LFB1444
 6266 00ba 04       		.uleb128 .LEHE31-.LEHB31
 6267 00bb 00       		.uleb128 0
 6268 00bc 00       		.uleb128 0
 6269              	.LLSDACSE1444:
 6270              		.section	.text._ZN7sigslot7signal2IP10GuiElementbNS_15single_threadedEED0Ev,"axG",@progbits,_ZN7si
 6271              		.size	_ZN7sigslot7signal2IP10GuiElementbNS_15single_threadedEED0Ev, .-_ZN7sigslot7signal2IP10GuiEl
 6272              		.section	.text._ZN7sigslot13_signal_base3IP10GuiElementiiNS_15single_threadedEED2Ev,"axG",@progbit
 6273              		.align 2
 6274              		.weak	_ZN7sigslot13_signal_base3IP10GuiElementiiNS_15single_threadedEED2Ev
 6275              		.type	_ZN7sigslot13_signal_base3IP10GuiElementiiNS_15single_threadedEED2Ev, @function
 6276              	_ZN7sigslot13_signal_base3IP10GuiElementiiNS_15single_threadedEED2Ev:
 6277              	.LFB1486:
 6278              		.loc 1 943 0
 6279              		.cfi_startproc
 6280              		.cfi_personality 0,__gxx_personality_v0
 6281              		.cfi_lsda 0,.LLSDA1486
 6282              	.LVL463:
 6283 0000 7C0802A6 		mflr 0
 6284 0004 9421FFD8 		stwu 1,-40(1)
 6285              	.LCFI75:
 6286              		.cfi_def_cfa_offset 40
 6287              		.cfi_register 65, 0
 6288              	.LBB2624:
 6289              		.loc 1 946 0
 6290 0008 3D200000 		lis 9,_ZTVN7sigslot13_signal_base3IP10GuiElementiiNS_15single_threadedEEE+8@ha
 6291              	.LBE2624:
 6292              		.loc 1 943 0
 6293 000c 93810018 		stw 28,24(1)
 6294 0010 7C7C1B78 		mr 28,3
 6295              		.cfi_offset 28, -16
 6296 0014 9001002C 		stw 0,44(1)
 6297              	.LBB2707:
 6298              		.loc 1 946 0
 6299 0018 38090008 		la 0,_ZTVN7sigslot13_signal_base3IP10GuiElementiiNS_15single_threadedEEE+8@l(9)
 6300              		.cfi_offset 65, 4
 6301              	.LBE2707:
 6302              		.loc 1 943 0
 6303 001c 93A1001C 		stw 29,28(1)
 6304 0020 3BA30004 		addi 29,3,4
 6305              		.cfi_offset 29, -12
 6306 0024 93C10020 		stw 30,32(1)
 6307 0028 93E10024 		stw 31,36(1)
 6308              	.LBB2708:
 6309              		.loc 1 946 0
 6310 002c 90030000 		stw 0,0(3)
 6311              	.LVL464:
 6312              	.LEHB32:
 6313              	.LBB2625:
 6314              	.LBB2626:
 6315              	.LBB2627:
 6316              	.LBB2628:
 6317              		.loc 1 338 0
 6318              		.cfi_offset 31, -4
 6319              		.cfi_offset 30, -8
 6320 0030 48000001 		bl _ZN7sigslot15single_threaded4lockEv
 6321              	.LEHE32:
 6322              	.LVL465:
 6323              	.LBE2628:
 6324              	.LBE2627:
 6325              	.LBE2626:
 6326              		.loc 3 394 0
 6327 0034 7F9DE378 		mr 29,28
 6328              	.LVL466:
 6329 0038 87FD0004 		lwzu 31,4(29)
 6330              	.LVL467:
 6331              	.LBB2659:
 6332              		.loc 1 954 0
 6333 003c 7F9FE800 		cmpw 7,31,29
 6334 0040 419E00A8 		beq- 7,.L454
 6335              	.LVL468:
 6336              	.L491:
 6337              		.loc 1 956 0
 6338 0044 807F0008 		lwz 3,8(31)
 6339 0048 81230000 		lwz 9,0(3)
 6340 004c 80090008 		lwz 0,8(9)
 6341 0050 7C0903A6 		mtctr 0
 6342              	.LEHB33:
 6343 0054 4E800421 		bctrl
 6344              	.LBB2629:
 6345              	.LBB2630:
 6346              	.LBB2631:
 6347              	.LBB2632:
 6348              		.loc 1 338 0
 6349 0058 81230000 		lwz 9,0(3)
 6350              	.LBE2632:
 6351              	.LBE2631:
 6352              	.LBE2630:
 6353              	.LBE2629:
 6354              		.loc 1 956 0
 6355 005c 7C7E1B78 		mr 30,3
 6356              	.LVL469:
 6357 0060 93810008 		stw 28,8(1)
 6358              	.LVL470:
 6359              	.LBB2641:
 6360              	.LBB2640:
 6361              	.LBB2634:
 6362              	.LBB2633:
 6363              		.loc 1 338 0
 6364 0064 80090008 		lwz 0,8(9)
 6365 0068 7C0903A6 		mtctr 0
 6366 006c 4E800421 		bctrl
 6367              	.LVL471:
 6368              	.LBE2633:
 6369              	.LBE2634:
 6370              	.LBB2635:
 6371              	.LBB2636:
 6372              		.loc 8 528 0
 6373 0070 387E0004 		addi 3,30,4
 6374 0074 38810008 		addi 4,1,8
 6375 0078 48000001 		bl _ZNSt8_Rb_treeIPN7sigslot12_signal_baseINS0_15single_threadedEEES4_St9_IdentityIS4_ESt4lessIS4_
 6376              	.LVL472:
 6377              	.LBE2636:
 6378              	.LBE2635:
 6379              	.LBB2637:
 6380              	.LBB2638:
 6381              	.LBB2639:
 6382              		.loc 1 343 0
 6383 007c 813E0000 		lwz 9,0(30)
 6384 0080 7FC3F378 		mr 3,30
 6385 0084 8009000C 		lwz 0,12(9)
 6386 0088 7C0903A6 		mtctr 0
 6387 008c 4E800421 		bctrl
 6388              	.LVL473:
 6389              	.LBE2639:
 6390              	.LBE2638:
 6391              	.LBE2637:
 6392              	.LBE2640:
 6393              	.LBE2641:
 6394              		.loc 1 957 0
 6395 0090 807F0008 		lwz 3,8(31)
 6396 0094 2F830000 		cmpwi 7,3,0
 6397 0098 419E0014 		beq- 7,.L456
 6398 009c 81230000 		lwz 9,0(3)
 6399 00a0 80090004 		lwz 0,4(9)
 6400 00a4 7C0903A6 		mtctr 0
 6401 00a8 4E800421 		bctrl
 6402              	.LEHE33:
 6403              	.L456:
 6404              	.LVL474:
 6405              	.LBB2642:
 6406              	.LBB2643:
 6407              		.loc 4 234 0
 6408 00ac 83FF0000 		lwz 31,0(31)
 6409              	.LVL475:
 6410              	.LBE2643:
 6411              	.LBE2642:
 6412              		.loc 1 954 0
 6413 00b0 7F9DF800 		cmpw 7,29,31
 6414 00b4 409EFF90 		bne+ 7,.L491
 6415              	.LBE2659:
 6416              		.loc 3 394 0
 6417 00b8 83FC0004 		lwz 31,4(28)
 6418              	.LVL476:
 6419              	.LBB2660:
 6420              	.LBB2644:
 6421              	.LBB2645:
 6422              		.loc 4 1162 0
 6423 00bc 7F9DF800 		cmpw 7,29,31
 6424 00c0 40BE000C 		bne+ 7,.L493
 6425 00c4 48000024 		b .L454
 6426              	.LVL477:
 6427              	.L486:
 6428              		.loc 4 1163 0
 6429 00c8 7FDFF378 		mr 31,30
 6430              	.LVL478:
 6431              	.L493:
 6432              	.LBB2646:
 6433              	.LBB2647:
 6434              		.loc 9 112 0
 6435 00cc 83DF0000 		lwz 30,0(31)
 6436              	.LVL479:
 6437              	.LBB2648:
 6438              	.LBB2649:
 6439              		.loc 4 1532 0
 6440 00d0 7FE3FB78 		mr 3,31
 6441 00d4 48000001 		bl _ZNSt8__detail15_List_node_base9_M_unhookEv
 6442              	.LVL480:
 6443              	.LBB2650:
 6444              	.LBB2651:
 6445              	.LBB2652:
 6446              		.loc 6 98 0
 6447 00d8 7FE3FB78 		mr 3,31
 6448 00dc 48000001 		bl _ZdlPv
 6449              	.LVL481:
 6450              	.LBE2652:
 6451              	.LBE2651:
 6452              	.LBE2650:
 6453              	.LBE2649:
 6454              	.LBE2648:
 6455              	.LBE2647:
 6456              	.LBE2646:
 6457              		.loc 4 1162 0
 6458 00e0 7F9DF000 		cmpw 7,29,30
 6459 00e4 409EFFE4 		bne+ 7,.L486
 6460              	.LVL482:
 6461              	.L454:
 6462              	.LBE2645:
 6463              	.LBE2644:
 6464              	.LBB2653:
 6465              	.LBB2654:
 6466              	.LBB2655:
 6467              		.loc 1 343 0
 6468 00e8 813C0000 		lwz 9,0(28)
 6469 00ec 7F83E378 		mr 3,28
 6470 00f0 8009000C 		lwz 0,12(9)
 6471 00f4 7C0903A6 		mtctr 0
 6472              	.LEHB34:
 6473 00f8 4E800421 		bctrl
 6474              	.LEHE34:
 6475              	.LVL483:
 6476              	.LBE2655:
 6477              	.LBE2654:
 6478              	.LBE2653:
 6479              	.LBE2660:
 6480              	.LBE2625:
 6481              	.LBB2662:
 6482              	.LBB2663:
 6483              	.LBB2664:
 6484              	.LBB2665:
 6485              	.LBB2666:
 6486              	.LBB2667:
 6487              		.loc 9 70 0
 6488 00fc 807C0004 		lwz 3,4(28)
 6489              	.LVL484:
 6490              		.loc 9 71 0
 6491 0100 7F83E800 		cmpw 7,3,29
 6492 0104 40BE000C 		bne+ 7,.L495
 6493 0108 48000018 		b .L472
 6494              	.LVL485:
 6495              	.L487:
 6496              		.loc 9 74 0
 6497 010c 7FE3FB78 		mr 3,31
 6498              	.LVL486:
 6499              	.L495:
 6500              	.LBB2668:
 6501 0110 83E30000 		lwz 31,0(3)
 6502              	.LVL487:
 6503              	.LBB2669:
 6504              	.LBB2670:
 6505              	.LBB2671:
 6506              		.loc 6 98 0
 6507 0114 48000001 		bl _ZdlPv
 6508              	.LVL488:
 6509              	.LBE2671:
 6510              	.LBE2670:
 6511              	.LBE2669:
 6512              	.LBE2668:
 6513              		.loc 9 71 0
 6514 0118 7F9FE800 		cmpw 7,31,29
 6515 011c 409EFFF0 		bne+ 7,.L487
 6516              	.LVL489:
 6517              	.L472:
 6518              	.LBE2667:
 6519              	.LBE2666:
 6520              	.LBE2665:
 6521              	.LBE2664:
 6522              	.LBE2663:
 6523              	.LBE2662:
 6524              	.LBB2672:
 6525              	.LBB2673:
 6526              	.LBB2674:
 6527              	.LBB2675:
 6528              	.LBB2676:
 6529              	.LBB2677:
 6530              		.loc 1 105 0
 6531 0120 3D200000 		lis 9,_ZTVN7sigslot15single_threadedE+8@ha
 6532              	.LBE2677:
 6533              	.LBE2676:
 6534              	.LBE2675:
 6535              	.LBE2674:
 6536              	.LBE2673:
 6537              	.LBE2672:
 6538              	.LBE2708:
 6539              		.loc 1 946 0
 6540 0124 83A1001C 		lwz 29,28(1)
 6541              	.LVL490:
 6542              	.LBB2709:
 6543              	.LBB2688:
 6544              	.LBB2686:
 6545              	.LBB2684:
 6546              	.LBB2682:
 6547              	.LBB2680:
 6548              	.LBB2678:
 6549              		.loc 1 105 0
 6550 0128 38090008 		la 0,_ZTVN7sigslot15single_threadedE+8@l(9)
 6551              	.LBE2678:
 6552              	.LBE2680:
 6553              	.LBE2682:
 6554              	.LBE2684:
 6555              	.LBE2686:
 6556              	.LBE2688:
 6557              	.LBE2709:
 6558              		.loc 1 946 0
 6559 012c 83C10020 		lwz 30,32(1)
 6560              	.LBB2710:
 6561              	.LBB2689:
 6562              	.LBB2687:
 6563              	.LBB2685:
 6564              	.LBB2683:
 6565              	.LBB2681:
 6566              	.LBB2679:
 6567              		.loc 1 105 0
 6568 0130 901C0000 		stw 0,0(28)
 6569              	.LBE2679:
 6570              	.LBE2681:
 6571              	.LBE2683:
 6572              	.LBE2685:
 6573              	.LBE2687:
 6574              	.LBE2689:
 6575              	.LBE2710:
 6576              		.loc 1 946 0
 6577 0134 8001002C 		lwz 0,44(1)
 6578 0138 83810018 		lwz 28,24(1)
 6579              	.LVL491:
 6580 013c 7C0803A6 		mtlr 0
 6581 0140 83E10024 		lwz 31,36(1)
 6582 0144 38210028 		addi 1,1,40
 6583              		.cfi_remember_state
 6584              	.LCFI76:
 6585              		.cfi_def_cfa_offset 0
 6586              		.cfi_restore 31
 6587              		.cfi_restore 30
 6588              		.cfi_restore 29
 6589              		.cfi_restore 28
 6590 0148 4E800020 		blr
 6591              	.LVL492:
 6592              	.L489:
 6593              	.LCFI77:
 6594              		.cfi_restore_state
 6595 014c 7C7F1B78 		mr 31,3
 6596              	.L464:
 6597              	.LVL493:
 6598              	.LBB2711:
 6599              	.LBB2690:
 6600              	.LBB2691:
 6601              	.LBB2692:
 6602              	.LBB2693:
 6603              	.LBB2694:
 6604              	.LBB2695:
 6605              		.loc 9 70 0
 6606 0150 807C0004 		lwz 3,4(28)
 6607              	.LVL494:
 6608              		.loc 9 71 0
 6609 0154 7F83E800 		cmpw 7,3,29
 6610 0158 419E0038 		beq- 7,.L483
 6611              	.LVL495:
 6612              	.L496:
 6613              	.LBB2696:
 6614              		.loc 9 74 0
 6615 015c 83C30000 		lwz 30,0(3)
 6616              	.LVL496:
 6617              	.LBB2697:
 6618              	.LBB2698:
 6619              	.LBB2699:
 6620              		.loc 6 98 0
 6621 0160 48000001 		bl _ZdlPv
 6622              	.LVL497:
 6623              	.LBE2699:
 6624              	.LBE2698:
 6625              	.LBE2697:
 6626              	.LBE2696:
 6627              		.loc 9 71 0
 6628 0164 7F9EE800 		cmpw 7,30,29
 6629 0168 419E0028 		beq- 7,.L483
 6630              		.loc 9 74 0
 6631 016c 7FC3F378 		mr 3,30
 6632 0170 4BFFFFEC 		b .L496
 6633              	.LVL498:
 6634              	.L490:
 6635              	.LBE2695:
 6636              	.LBE2694:
 6637              	.LBE2693:
 6638              	.LBE2692:
 6639              	.LBE2691:
 6640              	.LBE2690:
 6641              	.LBB2700:
 6642              	.LBB2661:
 6643              	.LBB2656:
 6644              	.LBB2657:
 6645              	.LBB2658:
 6646              		.loc 1 343 0
 6647 0174 813C0000 		lwz 9,0(28)
 6648 0178 7C7F1B78 		mr 31,3
 6649              	.LVL499:
 6650 017c 7F83E378 		mr 3,28
 6651 0180 8009000C 		lwz 0,12(9)
 6652 0184 7C0903A6 		mtctr 0
 6653 0188 4E800421 		bctrl
 6654 018c 4BFFFFC4 		b .L464
 6655              	.LVL500:
 6656              	.L483:
 6657              	.LBE2658:
 6658              	.LBE2657:
 6659              	.LBE2656:
 6660              	.LBE2661:
 6661              	.LBE2700:
 6662              	.LBB2701:
 6663              	.LBB2702:
 6664              	.LBB2703:
 6665              	.LBB2704:
 6666              	.LBB2705:
 6667              	.LBB2706:
 6668              		.loc 1 105 0
 6669 0190 3D200000 		lis 9,_ZTVN7sigslot15single_threadedE+8@ha
 6670 0194 7FE3FB78 		mr 3,31
 6671 0198 38090008 		la 0,_ZTVN7sigslot15single_threadedE+8@l(9)
 6672 019c 901C0000 		stw 0,0(28)
 6673              	.LEHB35:
 6674 01a0 48000001 		bl _Unwind_Resume
 6675              	.LEHE35:
 6676              	.LBE2706:
 6677              	.LBE2705:
 6678              	.LBE2704:
 6679              	.LBE2703:
 6680              	.LBE2702:
 6681              	.LBE2701:
 6682              	.LBE2711:
 6683              		.cfi_endproc
 6684              	.LFE1486:
 6685              		.section	.gcc_except_table
 6686              	.LLSDA1486:
 6687 00bd FF       		.byte	0xff
 6688 00be FF       		.byte	0xff
 6689 00bf 01       		.byte	0x1
 6690 00c0 15       		.uleb128 .LLSDACSE1486-.LLSDACSB1486
 6691              	.LLSDACSB1486:
 6692 00c1 30       		.uleb128 .LEHB32-.LFB1486
 6693 00c2 04       		.uleb128 .LEHE32-.LEHB32
 6694 00c3 CC02     		.uleb128 .L489-.LFB1486
 6695 00c5 00       		.uleb128 0
 6696 00c6 54       		.uleb128 .LEHB33-.LFB1486
 6697 00c7 58       		.uleb128 .LEHE33-.LEHB33
 6698 00c8 F402     		.uleb128 .L490-.LFB1486
 6699 00ca 00       		.uleb128 0
 6700 00cb F801     		.uleb128 .LEHB34-.LFB1486
 6701 00cd 04       		.uleb128 .LEHE34-.LEHB34
 6702 00ce CC02     		.uleb128 .L489-.LFB1486
 6703 00d0 00       		.uleb128 0
 6704 00d1 A003     		.uleb128 .LEHB35-.LFB1486
 6705 00d3 04       		.uleb128 .LEHE35-.LEHB35
 6706 00d4 00       		.uleb128 0
 6707 00d5 00       		.uleb128 0
 6708              	.LLSDACSE1486:
 6709              		.section	.text._ZN7sigslot13_signal_base3IP10GuiElementiiNS_15single_threadedEED2Ev,"axG",@progbit
 6710              		.size	_ZN7sigslot13_signal_base3IP10GuiElementiiNS_15single_threadedEED2Ev, .-_ZN7sigslot13_signal
 6711              		.section	.text._ZN7sigslot7signal3IP10GuiElementiiNS_15single_threadedEED0Ev,"axG",@progbits,_ZN7s
 6712              		.align 2
 6713              		.weak	_ZN7sigslot7signal3IP10GuiElementiiNS_15single_threadedEED0Ev
 6714              		.type	_ZN7sigslot7signal3IP10GuiElementiiNS_15single_threadedEED0Ev, @function
 6715              	_ZN7sigslot7signal3IP10GuiElementiiNS_15single_threadedEED0Ev:
 6716              	.LFB1448:
 6717              		.loc 1 2302 0
 6718              		.cfi_startproc
 6719              		.cfi_personality 0,__gxx_personality_v0
 6720              		.cfi_lsda 0,.LLSDA1448
 6721              	.LVL501:
 6722 0000 7C0802A6 		mflr 0
 6723 0004 9421FFD8 		stwu 1,-40(1)
 6724              	.LCFI78:
 6725              		.cfi_def_cfa_offset 40
 6726              		.cfi_register 65, 0
 6727              	.LBB2810:
 6728              	.LBB2811:
 6729              	.LBB2812:
 6730              	.LBB2813:
 6731              	.LBB2814:
 6732              	.LBB2815:
 6733              		.loc 1 946 0
 6734 0008 3D200000 		lis 9,_ZTVN7sigslot13_signal_base3IP10GuiElementiiNS_15single_threadedEEE+8@ha
 6735              	.LBE2815:
 6736              	.LBE2814:
 6737              	.LBE2813:
 6738              	.LBE2812:
 6739              	.LBE2811:
 6740              	.LBE2810:
 6741              		.loc 1 2302 0
 6742 000c 93810018 		stw 28,24(1)
 6743 0010 7C7C1B78 		mr 28,3
 6744              		.cfi_offset 28, -16
 6745              	.LVL502:
 6746 0014 9001002C 		stw 0,44(1)
 6747              	.LBB2912:
 6748              	.LBB2908:
 6749              	.LBB2904:
 6750              	.LBB2900:
 6751              	.LBB2896:
 6752              	.LBB2892:
 6753              		.loc 1 946 0
 6754 0018 38090008 		la 0,_ZTVN7sigslot13_signal_base3IP10GuiElementiiNS_15single_threadedEEE+8@l(9)
 6755              		.cfi_offset 65, 4
 6756              	.LBE2892:
 6757              	.LBE2896:
 6758              	.LBE2900:
 6759              	.LBE2904:
 6760              	.LBE2908:
 6761              	.LBE2912:
 6762              		.loc 1 2302 0
 6763 001c 93A1001C 		stw 29,28(1)
 6764 0020 3BA30004 		addi 29,3,4
 6765              		.cfi_offset 29, -12
 6766 0024 93C10020 		stw 30,32(1)
 6767 0028 93E10024 		stw 31,36(1)
 6768              	.LBB2913:
 6769              	.LBB2909:
 6770              	.LBB2905:
 6771              	.LBB2901:
 6772              	.LBB2897:
 6773              	.LBB2893:
 6774              		.loc 1 946 0
 6775 002c 90030000 		stw 0,0(3)
 6776              	.LVL503:
 6777              	.LEHB36:
 6778              	.LBB2816:
 6779              	.LBB2817:
 6780              	.LBB2818:
 6781              	.LBB2819:
 6782              		.loc 1 338 0
 6783              		.cfi_offset 31, -4
 6784              		.cfi_offset 30, -8
 6785 0030 48000001 		bl _ZN7sigslot15single_threaded4lockEv
 6786              	.LEHE36:
 6787              	.LVL504:
 6788              	.LBE2819:
 6789              	.LBE2818:
 6790              	.LBE2817:
 6791              		.loc 3 394 0
 6792 0034 7F9DE378 		mr 29,28
 6793              	.LVL505:
 6794 0038 87FD0004 		lwzu 31,4(29)
 6795              	.LVL506:
 6796              	.LBB2850:
 6797              		.loc 1 954 0
 6798 003c 7F9FE800 		cmpw 7,31,29
 6799 0040 419E00A8 		beq- 7,.L498
 6800              	.LVL507:
 6801              	.L537:
 6802              		.loc 1 956 0
 6803 0044 807F0008 		lwz 3,8(31)
 6804 0048 81230000 		lwz 9,0(3)
 6805 004c 80090008 		lwz 0,8(9)
 6806 0050 7C0903A6 		mtctr 0
 6807              	.LEHB37:
 6808 0054 4E800421 		bctrl
 6809              	.LBB2820:
 6810              	.LBB2821:
 6811              	.LBB2822:
 6812              	.LBB2823:
 6813              		.loc 1 338 0
 6814 0058 81230000 		lwz 9,0(3)
 6815              	.LBE2823:
 6816              	.LBE2822:
 6817              	.LBE2821:
 6818              	.LBE2820:
 6819              		.loc 1 956 0
 6820 005c 7C7E1B78 		mr 30,3
 6821              	.LVL508:
 6822 0060 93810008 		stw 28,8(1)
 6823              	.LVL509:
 6824              	.LBB2832:
 6825              	.LBB2831:
 6826              	.LBB2825:
 6827              	.LBB2824:
 6828              		.loc 1 338 0
 6829 0064 80090008 		lwz 0,8(9)
 6830 0068 7C0903A6 		mtctr 0
 6831 006c 4E800421 		bctrl
 6832              	.LVL510:
 6833              	.LBE2824:
 6834              	.LBE2825:
 6835              	.LBB2826:
 6836              	.LBB2827:
 6837              		.loc 8 528 0
 6838 0070 387E0004 		addi 3,30,4
 6839 0074 38810008 		addi 4,1,8
 6840 0078 48000001 		bl _ZNSt8_Rb_treeIPN7sigslot12_signal_baseINS0_15single_threadedEEES4_St9_IdentityIS4_ESt4lessIS4_
 6841              	.LVL511:
 6842              	.LBE2827:
 6843              	.LBE2826:
 6844              	.LBB2828:
 6845              	.LBB2829:
 6846              	.LBB2830:
 6847              		.loc 1 343 0
 6848 007c 813E0000 		lwz 9,0(30)
 6849 0080 7FC3F378 		mr 3,30
 6850 0084 8009000C 		lwz 0,12(9)
 6851 0088 7C0903A6 		mtctr 0
 6852 008c 4E800421 		bctrl
 6853              	.LVL512:
 6854              	.LBE2830:
 6855              	.LBE2829:
 6856              	.LBE2828:
 6857              	.LBE2831:
 6858              	.LBE2832:
 6859              		.loc 1 957 0
 6860 0090 807F0008 		lwz 3,8(31)
 6861 0094 2F830000 		cmpwi 7,3,0
 6862 0098 419E0014 		beq- 7,.L500
 6863 009c 81230000 		lwz 9,0(3)
 6864 00a0 80090004 		lwz 0,4(9)
 6865 00a4 7C0903A6 		mtctr 0
 6866 00a8 4E800421 		bctrl
 6867              	.LEHE37:
 6868              	.L500:
 6869              	.LVL513:
 6870              	.LBB2833:
 6871              	.LBB2834:
 6872              		.loc 4 234 0
 6873 00ac 83FF0000 		lwz 31,0(31)
 6874              	.LVL514:
 6875              	.LBE2834:
 6876              	.LBE2833:
 6877              		.loc 1 954 0
 6878 00b0 7F9DF800 		cmpw 7,29,31
 6879 00b4 409EFF90 		bne+ 7,.L537
 6880              	.LBE2850:
 6881              		.loc 3 394 0
 6882 00b8 83FC0004 		lwz 31,4(28)
 6883              	.LVL515:
 6884              	.LBB2851:
 6885              	.LBB2835:
 6886              	.LBB2836:
 6887              		.loc 4 1162 0
 6888 00bc 7F9DF800 		cmpw 7,29,31
 6889 00c0 40BE000C 		bne+ 7,.L539
 6890 00c4 48000024 		b .L498
 6891              	.LVL516:
 6892              	.L532:
 6893              		.loc 4 1163 0
 6894 00c8 7FDFF378 		mr 31,30
 6895              	.LVL517:
 6896              	.L539:
 6897              	.LBB2837:
 6898              	.LBB2838:
 6899              		.loc 9 112 0
 6900 00cc 83DF0000 		lwz 30,0(31)
 6901              	.LVL518:
 6902              	.LBB2839:
 6903              	.LBB2840:
 6904              		.loc 4 1532 0
 6905 00d0 7FE3FB78 		mr 3,31
 6906 00d4 48000001 		bl _ZNSt8__detail15_List_node_base9_M_unhookEv
 6907              	.LVL519:
 6908              	.LBB2841:
 6909              	.LBB2842:
 6910              	.LBB2843:
 6911              		.loc 6 98 0
 6912 00d8 7FE3FB78 		mr 3,31
 6913 00dc 48000001 		bl _ZdlPv
 6914              	.LVL520:
 6915              	.LBE2843:
 6916              	.LBE2842:
 6917              	.LBE2841:
 6918              	.LBE2840:
 6919              	.LBE2839:
 6920              	.LBE2838:
 6921              	.LBE2837:
 6922              		.loc 4 1162 0
 6923 00e0 7F9DF000 		cmpw 7,29,30
 6924 00e4 409EFFE4 		bne+ 7,.L532
 6925              	.LVL521:
 6926              	.L498:
 6927              	.LBE2836:
 6928              	.LBE2835:
 6929              	.LBB2844:
 6930              	.LBB2845:
 6931              	.LBB2846:
 6932              		.loc 1 343 0
 6933 00e8 813C0000 		lwz 9,0(28)
 6934 00ec 7F83E378 		mr 3,28
 6935 00f0 8009000C 		lwz 0,12(9)
 6936 00f4 7C0903A6 		mtctr 0
 6937              	.LEHB38:
 6938 00f8 4E800421 		bctrl
 6939              	.LEHE38:
 6940              	.LBE2846:
 6941              	.LBE2845:
 6942              	.LBE2844:
 6943              	.LBE2851:
 6944              	.LBE2816:
 6945              	.LBB2853:
 6946              	.LBB2854:
 6947              	.LBB2855:
 6948              	.LBB2856:
 6949              	.LBB2857:
 6950              	.LBB2858:
 6951              		.loc 9 70 0
 6952 00fc 807C0004 		lwz 3,4(28)
 6953              	.LVL522:
 6954              		.loc 9 71 0
 6955 0100 7F83E800 		cmpw 7,3,29
 6956 0104 40BE000C 		bne+ 7,.L541
 6957 0108 48000018 		b .L516
 6958              	.LVL523:
 6959              	.L533:
 6960              		.loc 9 74 0
 6961 010c 7FE3FB78 		mr 3,31
 6962              	.LVL524:
 6963              	.L541:
 6964              	.LBB2859:
 6965 0110 83E30000 		lwz 31,0(3)
 6966              	.LVL525:
 6967              	.LBB2860:
 6968              	.LBB2861:
 6969              	.LBB2862:
 6970              		.loc 6 98 0
 6971 0114 48000001 		bl _ZdlPv
 6972              	.LVL526:
 6973              	.LBE2862:
 6974              	.LBE2861:
 6975              	.LBE2860:
 6976              	.LBE2859:
 6977              		.loc 9 71 0
 6978 0118 7F9FE800 		cmpw 7,31,29
 6979 011c 409EFFF0 		bne+ 7,.L533
 6980              	.LVL527:
 6981              	.L516:
 6982              	.LBE2858:
 6983              	.LBE2857:
 6984              	.LBE2856:
 6985              	.LBE2855:
 6986              	.LBE2854:
 6987              	.LBE2853:
 6988              	.LBB2863:
 6989              	.LBB2864:
 6990              	.LBB2865:
 6991              	.LBB2866:
 6992              	.LBB2867:
 6993              	.LBB2868:
 6994              		.loc 1 105 0
 6995 0120 3D200000 		lis 9,_ZTVN7sigslot15single_threadedE+8@ha
 6996              	.LBE2868:
 6997              	.LBE2867:
 6998              	.LBE2866:
 6999              	.LBE2865:
 7000              	.LBE2864:
 7001              	.LBE2863:
 7002              	.LBE2893:
 7003              	.LBE2897:
 7004              	.LBE2901:
 7005              	.LBE2905:
 7006              	.LBE2909:
 7007              	.LBE2913:
 7008              		.loc 1 2305 0
 7009 0124 7F83E378 		mr 3,28
 7010              	.LBB2914:
 7011              	.LBB2910:
 7012              	.LBB2906:
 7013              	.LBB2902:
 7014              	.LBB2898:
 7015              	.LBB2894:
 7016              	.LBB2874:
 7017              	.LBB2873:
 7018              	.LBB2872:
 7019              	.LBB2871:
 7020              	.LBB2870:
 7021              	.LBB2869:
 7022              		.loc 1 105 0
 7023 0128 38090008 		la 0,_ZTVN7sigslot15single_threadedE+8@l(9)
 7024 012c 901C0000 		stw 0,0(28)
 7025              	.LBE2869:
 7026              	.LBE2870:
 7027              	.LBE2871:
 7028              	.LBE2872:
 7029              	.LBE2873:
 7030              	.LBE2874:
 7031              	.LBE2894:
 7032              	.LBE2898:
 7033              	.LBE2902:
 7034              	.LBE2906:
 7035              	.LBE2910:
 7036              	.LBE2914:
 7037              		.loc 1 2305 0
 7038 0130 48000001 		bl _ZdlPv
 7039 0134 8001002C 		lwz 0,44(1)
 7040 0138 83810018 		lwz 28,24(1)
 7041              	.LVL528:
 7042 013c 7C0803A6 		mtlr 0
 7043 0140 83A1001C 		lwz 29,28(1)
 7044              	.LVL529:
 7045 0144 83C10020 		lwz 30,32(1)
 7046 0148 83E10024 		lwz 31,36(1)
 7047 014c 38210028 		addi 1,1,40
 7048              		.cfi_remember_state
 7049              	.LCFI79:
 7050              		.cfi_def_cfa_offset 0
 7051              		.cfi_restore 31
 7052              		.cfi_restore 30
 7053              		.cfi_restore 29
 7054              		.cfi_restore 28
 7055 0150 4E800020 		blr
 7056              	.LVL530:
 7057              	.L535:
 7058              	.LCFI80:
 7059              		.cfi_restore_state
 7060 0154 7C7F1B78 		mr 31,3
 7061              	.L508:
 7062              	.LBB2915:
 7063              	.LBB2911:
 7064              	.LBB2907:
 7065              	.LBB2903:
 7066              	.LBB2899:
 7067              	.LBB2895:
 7068              	.LBB2875:
 7069              	.LBB2876:
 7070              	.LBB2877:
 7071              	.LBB2878:
 7072              	.LBB2879:
 7073              	.LBB2880:
 7074              		.loc 9 70 0
 7075 0158 807C0004 		lwz 3,4(28)
 7076              	.LVL531:
 7077              		.loc 9 71 0
 7078 015c 7F83E800 		cmpw 7,3,29
 7079 0160 419E0038 		beq- 7,.L525
 7080              	.LVL532:
 7081              	.L542:
 7082              	.LBB2881:
 7083              		.loc 9 74 0
 7084 0164 83C30000 		lwz 30,0(3)
 7085              	.LVL533:
 7086              	.LBB2882:
 7087              	.LBB2883:
 7088              	.LBB2884:
 7089              		.loc 6 98 0
 7090 0168 48000001 		bl _ZdlPv
 7091              	.LVL534:
 7092              	.LBE2884:
 7093              	.LBE2883:
 7094              	.LBE2882:
