   1              		.file	"gui_checksign.cpp"
   2              		.section	".text"
   3              	.Ltext0:
   4              		.section	.text._ZN7sigslot15single_threadedD2Ev,"axG",@progbits,_ZN7sigslot15single_threadedD5Ev,c
   5              		.align 2
   6              		.weak	_ZN7sigslot15single_threadedD2Ev
   7              		.type	_ZN7sigslot15single_threadedD2Ev, @function
   8              	_ZN7sigslot15single_threadedD2Ev:
   9              	.LFB1148:
  10              		.file 1 "d:/Projects/SaveGameManager/savegame-manager-gx/trunk/source/GUI/../sigslot.h"
  11              		.loc 1 104 0
  12              		.cfi_startproc
  13              	.LVL0:
  14              	.LBB1263:
  15              		.loc 1 105 0
  16 0000 3D200000 		lis 9,_ZTVN7sigslot15single_threadedE+8@ha
  17              	.LBE1263:
  18              		.loc 1 107 0
  19              	.LBB1264:
  20              		.loc 1 105 0
  21 0004 38090008 		la 0,_ZTVN7sigslot15single_threadedE+8@l(9)
  22 0008 90030000 		stw 0,0(3)
  23              	.LBE1264:
  24              		.loc 1 107 0
  25 000c 4E800020 		blr
  26              		.cfi_endproc
  27              	.LFE1148:
  28              		.size	_ZN7sigslot15single_threadedD2Ev, .-_ZN7sigslot15single_threadedD2Ev
  29              		.section	.text._ZN7sigslot15single_threaded4lockEv,"axG",@progbits,_ZN7sigslot15single_threaded4lo
  30              		.align 2
  31              		.weak	_ZN7sigslot15single_threaded4lockEv
  32              		.type	_ZN7sigslot15single_threaded4lockEv, @function
  33              	_ZN7sigslot15single_threaded4lockEv:
  34              	.LFB1151:
  35              		.loc 1 109 0
  36              		.cfi_startproc
  37              	.LVL1:
  38              		.loc 1 112 0
  39 0000 4E800020 		blr
  40              		.cfi_endproc
  41              	.LFE1151:
  42              		.size	_ZN7sigslot15single_threaded4lockEv, .-_ZN7sigslot15single_threaded4lockEv
  43              		.section	.text._ZN7sigslot15single_threaded6unlockEv,"axG",@progbits,_ZN7sigslot15single_threaded6
  44              		.align 2
  45              		.weak	_ZN7sigslot15single_threaded6unlockEv
  46              		.type	_ZN7sigslot15single_threaded6unlockEv, @function
  47              	_ZN7sigslot15single_threaded6unlockEv:
  48              	.LFB1152:
  49              		.loc 1 114 0
  50              		.cfi_startproc
  51              	.LVL2:
  52              		.loc 1 117 0
  53 0000 4E800020 		blr
  54              		.cfi_endproc
  55              	.LFE1152:
  56              		.size	_ZN7sigslot15single_threaded6unlockEv, .-_ZN7sigslot15single_threaded6unlockEv
  57              		.section	.text._ZN10GuiElement9SetParentEPS_,"axG",@progbits,_ZN10GuiElement9SetParentEPS_,comdat
  58              		.align 2
  59              		.weak	_ZN10GuiElement9SetParentEPS_
  60              		.type	_ZN10GuiElement9SetParentEPS_, @function
  61              	_ZN10GuiElement9SetParentEPS_:
  62              	.LFB1384:
  63              		.file 2 "d:/Projects/SaveGameManager/savegame-manager-gx/trunk/source/GUI/gui_element.h"
  64              		.loc 2 92 0
  65              		.cfi_startproc
  66              	.LVL3:
  67              		.loc 2 92 0
  68 0000 90830060 		stw 4,96(3)
  69 0004 4E800020 		blr
  70              		.cfi_endproc
  71              	.LFE1384:
  72              		.size	_ZN10GuiElement9SetParentEPS_, .-_ZN10GuiElement9SetParentEPS_
  73              		.section	.text._ZN10GuiElement9GetParentEv,"axG",@progbits,_ZN10GuiElement9GetParentEv,comdat
  74              		.align 2
  75              		.weak	_ZN10GuiElement9GetParentEv
  76              		.type	_ZN10GuiElement9GetParentEv, @function
  77              	_ZN10GuiElement9GetParentEv:
  78              	.LFB1385:
  79              		.loc 2 95 0
  80              		.cfi_startproc
  81              	.LVL4:
  82              		.loc 2 95 0
  83 0000 80630060 		lwz 3,96(3)
  84              	.LVL5:
  85 0004 4E800020 		blr
  86              		.cfi_endproc
  87              	.LFE1385:
  88              		.size	_ZN10GuiElement9GetParentEv, .-_ZN10GuiElement9GetParentEv
  89              		.section	.text._ZN10GuiElement12GetZPositionEv,"axG",@progbits,_ZN10GuiElement12GetZPositionEv,com
  90              		.align 2
  91              		.weak	_ZN10GuiElement12GetZPositionEv
  92              		.type	_ZN10GuiElement12GetZPositionEv, @function
  93              	_ZN10GuiElement12GetZPositionEv:
  94              	.LFB1386:
  95              		.loc 2 106 0
  96              		.cfi_startproc
  97              	.LVL6:
  98 0000 7C0802A6 		mflr 0
  99 0004 9421FFF0 		stwu 1,-16(1)
 100              	.LCFI0:
 101              		.cfi_def_cfa_offset 16
 102              		.cfi_register 65, 0
 103 0008 93E1000C 		stw 31,12(1)
 104 000c 7C7F1B78 		mr 31,3
 105              		.cfi_offset 31, -4
 106 0010 90010014 		stw 0,20(1)
 107              	.LBB1265:
 108              		.loc 2 110 0
 109 0014 81630060 		lwz 11,96(3)
 110              		.loc 2 108 0
 111 0018 38600000 		li 3,0
 112              	.LVL7:
 113              		.loc 2 110 0
 114 001c 2F8B0000 		cmpwi 7,11,0
 115 0020 419E0018 		beq- 7,.L8
 116              		.cfi_offset 65, 4
 117              		.loc 2 111 0
 118 0024 812B0000 		lwz 9,0(11)
 119 0028 7D635B78 		mr 3,11
 120 002c 80090018 		lwz 0,24(9)
 121 0030 7C0903A6 		mtctr 0
 122 0034 4E800421 		bctrl
 123              	.LVL8:
 124              	.L8:
 125              		.loc 2 113 0
 126 0038 801F0034 		lwz 0,52(31)
 127              	.LBE1265:
 128              		.loc 2 114 0
 129 003c 83E1000C 		lwz 31,12(1)
 130              	.LVL9:
 131 0040 7C630214 		add 3,3,0
 132              	.LVL10:
 133 0044 80010014 		lwz 0,20(1)
 134 0048 38210010 		addi 1,1,16
 135              	.LCFI1:
 136              		.cfi_def_cfa_offset 0
 137              		.cfi_restore 31
 138 004c 7C0803A6 		mtlr 0
 139 0050 4E800020 		blr
 140              		.cfi_endproc
 141              	.LFE1386:
 142              		.size	_ZN10GuiElement12GetZPositionEv, .-_ZN10GuiElement12GetZPositionEv
 143              		.section	.text._ZN10GuiElement10GetLeftPosEv,"axG",@progbits,_ZN10GuiElement10GetLeftPosEv,comdat
 144              		.align 2
 145              		.weak	_ZN10GuiElement10GetLeftPosEv
 146              		.type	_ZN10GuiElement10GetLeftPosEv, @function
 147              	_ZN10GuiElement10GetLeftPosEv:
 148              	.LFB1387:
 149              		.loc 2 116 0
 150              		.cfi_startproc
 151              	.LVL11:
 152              		.loc 2 116 0
 153 0000 8063002C 		lwz 3,44(3)
 154              	.LVL12:
 155 0004 4E800020 		blr
 156              		.cfi_endproc
 157              	.LFE1387:
 158              		.size	_ZN10GuiElement10GetLeftPosEv, .-_ZN10GuiElement10GetLeftPosEv
 159              		.section	.text._ZN10GuiElement9GetTopPosEv,"axG",@progbits,_ZN10GuiElement9GetTopPosEv,comdat
 160              		.align 2
 161              		.weak	_ZN10GuiElement9GetTopPosEv
 162              		.type	_ZN10GuiElement9GetTopPosEv, @function
 163              	_ZN10GuiElement9GetTopPosEv:
 164              	.LFB1388:
 165              		.loc 2 118 0
 166              		.cfi_startproc
 167              	.LVL13:
 168              		.loc 2 118 0
 169 0000 80630030 		lwz 3,48(3)
 170              	.LVL14:
 171 0004 4E800020 		blr
 172              		.cfi_endproc
 173              	.LFE1388:
 174              		.size	_ZN10GuiElement9GetTopPosEv, .-_ZN10GuiElement9GetTopPosEv
 175              		.section	.text._ZN10GuiElement8GetWidthEv,"axG",@progbits,_ZN10GuiElement8GetWidthEv,comdat
 176              		.align 2
 177              		.weak	_ZN10GuiElement8GetWidthEv
 178              		.type	_ZN10GuiElement8GetWidthEv, @function
 179              	_ZN10GuiElement8GetWidthEv:
 180              	.LFB1389:
 181              		.loc 2 121 0
 182              		.cfi_startproc
 183              	.LVL15:
 184              		.loc 2 121 0
 185 0000 80630024 		lwz 3,36(3)
 186              	.LVL16:
 187 0004 4E800020 		blr
 188              		.cfi_endproc
 189              	.LFE1389:
 190              		.size	_ZN10GuiElement8GetWidthEv, .-_ZN10GuiElement8GetWidthEv
 191              		.section	.text._ZN10GuiElement9GetHeightEv,"axG",@progbits,_ZN10GuiElement9GetHeightEv,comdat
 192              		.align 2
 193              		.weak	_ZN10GuiElement9GetHeightEv
 194              		.type	_ZN10GuiElement9GetHeightEv, @function
 195              	_ZN10GuiElement9GetHeightEv:
 196              	.LFB1390:
 197              		.loc 2 124 0
 198              		.cfi_startproc
 199              	.LVL17:
 200              		.loc 2 124 0
 201 0000 80630028 		lwz 3,40(3)
 202              	.LVL18:
 203 0004 4E800020 		blr
 204              		.cfi_endproc
 205              	.LFE1390:
 206              		.size	_ZN10GuiElement9GetHeightEv, .-_ZN10GuiElement9GetHeightEv
 207              		.section	.text._ZN10GuiElement10SetVisibleEb,"axG",@progbits,_ZN10GuiElement10SetVisibleEb,comdat
 208              		.align 2
 209              		.weak	_ZN10GuiElement10SetVisibleEb
 210              		.type	_ZN10GuiElement10SetVisibleEb, @function
 211              	_ZN10GuiElement10SetVisibleEb:
 212              	.LFB1392:
 213              		.loc 2 135 0
 214              		.cfi_startproc
 215              		.cfi_personality 0,__gxx_personality_v0
 216              		.cfi_lsda 0,.LLSDA1392
 217              	.LVL19:
 218 0000 7C0802A6 		mflr 0
 219 0004 9421FFE0 		stwu 1,-32(1)
 220              	.LCFI2:
 221              		.cfi_def_cfa_offset 32
 222              		.cfi_register 65, 0
 223 0008 9361000C 		stw 27,12(1)
 224              	.LBB1266:
 225              	.LBB1267:
 226              		.loc 1 2270 0
 227 000c 3B630004 		addi 27,3,4
 228              		.cfi_offset 27, -20
 229              	.LBE1267:
 230              	.LBE1266:
 231              		.loc 2 135 0
 232 0010 90010024 		stw 0,36(1)
 233 0014 93C10018 		stw 30,24(1)
 234 0018 7C7E1B78 		mr 30,3
 235              		.cfi_offset 30, -8
 236              		.cfi_offset 65, 4
 237              	.LBB1290:
 238              	.LBB1284:
 239              	.LBB1268:
 240              	.LBB1269:
 241              		.loc 1 338 0
 242 001c 81230004 		lwz 9,4(3)
 243 0020 7F63DB78 		mr 3,27
 244              	.LVL20:
 245              	.LBE1269:
 246              	.LBE1268:
 247              	.LBE1284:
 248              	.LBE1290:
 249              		.loc 2 135 0
 250 0024 93810010 		stw 28,16(1)
 251 0028 7C9C2378 		mr 28,4
 252              		.cfi_offset 28, -16
 253              	.LBB1291:
 254              	.LBB1285:
 255              	.LBB1273:
 256              	.LBB1270:
 257              		.loc 1 338 0
 258 002c 80090008 		lwz 0,8(9)
 259              	.LBE1270:
 260              	.LBE1273:
 261              	.LBE1285:
 262              	.LBE1291:
 263              		.loc 2 135 0
 264 0030 93A10014 		stw 29,20(1)
 265              	.LBB1292:
 266              		.file 3 "d:/Projects/SaveGameManager/savegame-manager-gx/trunk/source/GUI/gui_checksign.cpp"
 267              		.loc 3 56 0
 268 0034 7FDDF378 		mr 29,30
 269              		.cfi_offset 29, -12
 270              	.LBE1292:
 271              		.loc 2 135 0
 272 0038 93E1001C 		stw 31,28(1)
 273              	.LBB1293:
 274              	.LBB1286:
 275              	.LBB1274:
 276              	.LBB1271:
 277              		.loc 1 338 0
 278 003c 7C0903A6 		mtctr 0
 279              	.LBE1271:
 280              	.LBE1274:
 281              	.LBE1286:
 282              	.LBE1293:
 283              		.loc 2 137 0
 284 0040 989E001D 		stb 4,29(30)
 285              	.LVL21:
 286              	.LEHB0:
 287              	.LBB1294:
 288              	.LBB1287:
 289              	.LBB1275:
 290              	.LBB1272:
 291              		.loc 1 338 0
 292              		.cfi_offset 31, -4
 293 0044 4E800421 		bctrl
 294              	.LEHE0:
 295              	.LVL22:
 296              	.LBE1272:
 297              	.LBE1275:
 298              	.LBE1287:
 299              		.loc 3 56 0
 300 0048 87FD0008 		lwzu 31,8(29)
 301              	.LVL23:
 302              	.LBB1288:
 303              		.loc 1 2274 0
 304 004c 7F9FE800 		cmpw 7,31,29
 305 0050 419E002C 		beq- 7,.L16
 306              	.LVL24:
 307              	.L23:
 308              		.loc 1 2279 0
 309 0054 807F0008 		lwz 3,8(31)
 310 0058 7FC4F378 		mr 4,30
 311 005c 7F85E378 		mr 5,28
 312              	.LBB1276:
 313              	.LBB1277:
 314              		.file 4 "d:\\devkitpro\\devkitppc\\bin\\../lib/gcc/powerpc-eabi/4.6.3/../../../../powerpc-eabi/inc
 315              		.loc 4 234 0
 316 0060 83FF0000 		lwz 31,0(31)
 317              	.LVL25:
 318              	.LBE1277:
 319              	.LBE1276:
 320              		.loc 1 2279 0
 321 0064 81230000 		lwz 9,0(3)
 322 0068 8009000C 		lwz 0,12(9)
 323 006c 7C0903A6 		mtctr 0
 324              	.LEHB1:
 325 0070 4E800421 		bctrl
 326              	.LEHE1:
 327              	.LVL26:
 328              		.loc 1 2274 0
 329 0074 7F9DF800 		cmpw 7,29,31
 330 0078 409EFFDC 		bne+ 7,.L23
 331              	.LVL27:
 332              	.L16:
 333              	.LBB1278:
 334              	.LBB1279:
 335              	.LBB1280:
 336              		.loc 1 343 0
 337 007c 813E0004 		lwz 9,4(30)
 338 0080 7F63DB78 		mr 3,27
 339 0084 8009000C 		lwz 0,12(9)
 340 0088 7C0903A6 		mtctr 0
 341              	.LEHB2:
 342 008c 4E800421 		bctrl
 343              	.LEHE2:
 344              	.LBE1280:
 345              	.LBE1279:
 346              	.LBE1278:
 347              	.LBE1288:
 348              	.LBE1294:
 349              		.loc 2 139 0
 350 0090 80010024 		lwz 0,36(1)
 351 0094 8361000C 		lwz 27,12(1)
 352              	.LVL28:
 353 0098 7C0803A6 		mtlr 0
 354 009c 83810010 		lwz 28,16(1)
 355              	.LVL29:
 356 00a0 83A10014 		lwz 29,20(1)
 357 00a4 83C10018 		lwz 30,24(1)
 358              	.LVL30:
 359 00a8 83E1001C 		lwz 31,28(1)
 360              	.LVL31:
 361 00ac 38210020 		addi 1,1,32
 362              		.cfi_remember_state
 363              	.LCFI3:
 364              		.cfi_def_cfa_offset 0
 365              		.cfi_restore 31
 366              		.cfi_restore 30
 367              		.cfi_restore 29
 368              		.cfi_restore 28
 369              		.cfi_restore 27
 370 00b0 4E800020 		blr
 371              	.LVL32:
 372              	.L22:
 373              	.LCFI4:
 374              		.cfi_restore_state
 375              	.LBB1295:
 376              	.LBB1289:
 377              	.LBB1281:
 378              	.LBB1282:
 379              	.LBB1283:
 380              		.loc 1 343 0
 381 00b4 813E0004 		lwz 9,4(30)
 382 00b8 7C7F1B78 		mr 31,3
 383              	.LVL33:
 384 00bc 7F63DB78 		mr 3,27
 385 00c0 8009000C 		lwz 0,12(9)
 386 00c4 7C0903A6 		mtctr 0
 387 00c8 4E800421 		bctrl
 388 00cc 7FE3FB78 		mr 3,31
 389              	.LEHB3:
 390 00d0 48000001 		bl _Unwind_Resume
 391              	.LEHE3:
 392              	.LBE1283:
 393              	.LBE1282:
 394              	.LBE1281:
 395              	.LBE1289:
 396              	.LBE1295:
 397              		.cfi_endproc
 398              	.LFE1392:
 399              		.globl __gxx_personality_v0
 400              		.section	.gcc_except_table,"a",@progbits
 401              	.LLSDA1392:
 402 0000 FF       		.byte	0xff
 403 0001 FF       		.byte	0xff
 404 0002 01       		.byte	0x1
 405 0003 13       		.uleb128 .LLSDACSE1392-.LLSDACSB1392
 406              	.LLSDACSB1392:
 407 0004 44       		.uleb128 .LEHB0-.LFB1392
 408 0005 04       		.uleb128 .LEHE0-.LEHB0
 409 0006 00       		.uleb128 0
 410 0007 00       		.uleb128 0
 411 0008 70       		.uleb128 .LEHB1-.LFB1392
 412 0009 04       		.uleb128 .LEHE1-.LEHB1
 413 000a B401     		.uleb128 .L22-.LFB1392
 414 000c 00       		.uleb128 0
 415 000d 8C01     		.uleb128 .LEHB2-.LFB1392
 416 000f 04       		.uleb128 .LEHE2-.LEHB2
 417 0010 00       		.uleb128 0
 418 0011 00       		.uleb128 0
 419 0012 D001     		.uleb128 .LEHB3-.LFB1392
 420 0014 04       		.uleb128 .LEHE3-.LEHB3
 421 0015 00       		.uleb128 0
 422 0016 00       		.uleb128 0
 423              	.LLSDACSE1392:
 424              		.section	.text._ZN10GuiElement10SetVisibleEb,"axG",@progbits,_ZN10GuiElement10SetVisibleEb,comdat
 425              		.size	_ZN10GuiElement10SetVisibleEb, .-_ZN10GuiElement10SetVisibleEb
 426              		.section	.text._ZN10GuiElement9IsVisibleEv,"axG",@progbits,_ZN10GuiElement9IsVisibleEv,comdat
 427              		.align 2
 428              		.weak	_ZN10GuiElement9IsVisibleEv
 429              		.type	_ZN10GuiElement9IsVisibleEv, @function
 430              	_ZN10GuiElement9IsVisibleEv:
 431              	.LFB1393:
 432              		.loc 2 142 0
 433              		.cfi_startproc
 434              	.LVL34:
 435              		.loc 2 142 0
 436 0000 8863001D 		lbz 3,29(3)
 437              	.LVL35:
 438 0004 4E800020 		blr
 439              		.cfi_endproc
 440              	.LFE1393:
 441              		.size	_ZN10GuiElement9IsVisibleEv, .-_ZN10GuiElement9IsVisibleEv
 442              		.section	.text._ZN10GuiElement12IsSelectableEv,"axG",@progbits,_ZN10GuiElement12IsSelectableEv,com
 443              		.align 2
 444              		.weak	_ZN10GuiElement12IsSelectableEv
 445              		.type	_ZN10GuiElement12IsSelectableEv, @function
 446              	_ZN10GuiElement12IsSelectableEv:
 447              	.LFB1394:
 448              		.loc 2 145 0
 449              		.cfi_startproc
 450              	.LVL36:
 451              		.loc 2 149 0
 452 0000 80030048 		lwz 0,72(3)
 453 0004 39200000 		li 9,0
 454 0008 2F800004 		cmpwi 7,0,4
 455 000c 419E0010 		beq- 7,.L26
 456              		.loc 2 149 0 is_stmt 0 discriminator 1
 457 0010 2F800002 		cmpwi 7,0,2
 458 0014 419E0008 		beq- 7,.L26
 459              		.loc 2 149 0 discriminator 3
 460 0018 8923001E 		lbz 9,30(3)
 461              	.L26:
 462              		.loc 2 150 0 is_stmt 1 discriminator 5
 463 001c 7D234B78 		mr 3,9
 464              	.LVL37:
 465 0020 4E800020 		blr
 466              		.cfi_endproc
 467              	.LFE1394:
 468              		.size	_ZN10GuiElement12IsSelectableEv, .-_ZN10GuiElement12IsSelectableEv
 469              		.section	.text._ZN10GuiElement11IsClickableEv,"axG",@progbits,_ZN10GuiElement11IsClickableEv,comda
 470              		.align 2
 471              		.weak	_ZN10GuiElement11IsClickableEv
 472              		.type	_ZN10GuiElement11IsClickableEv, @function
 473              	_ZN10GuiElement11IsClickableEv:
 474              	.LFB1395:
 475              		.loc 2 153 0
 476              		.cfi_startproc
 477              	.LVL38:
 478              		.loc 2 158 0
 479 0000 80030048 		lwz 0,72(3)
 480 0004 39200000 		li 9,0
 481 0008 2F800004 		cmpwi 7,0,4
 482 000c 419E0018 		beq- 7,.L30
 483              		.loc 2 158 0 is_stmt 0 discriminator 1
 484 0010 2F800002 		cmpwi 7,0,2
 485 0014 419E0010 		beq- 7,.L30
 486              		.loc 2 158 0 discriminator 3
 487 0018 2F800003 		cmpwi 7,0,3
 488 001c 419E0008 		beq- 7,.L30
 489              		.loc 2 158 0 discriminator 4
 490 0020 8923001F 		lbz 9,31(3)
 491              	.L30:
 492              		.loc 2 159 0 is_stmt 1 discriminator 6
 493 0024 7D234B78 		mr 3,9
 494              	.LVL39:
 495 0028 4E800020 		blr
 496              		.cfi_endproc
 497              	.LFE1395:
 498              		.size	_ZN10GuiElement11IsClickableEv, .-_ZN10GuiElement11IsClickableEv
 499              		.section	.text._ZN10GuiElement10IsHoldableEv,"axG",@progbits,_ZN10GuiElement10IsHoldableEv,comdat
 500              		.align 2
 501              		.weak	_ZN10GuiElement10IsHoldableEv
 502              		.type	_ZN10GuiElement10IsHoldableEv, @function
 503              	_ZN10GuiElement10IsHoldableEv:
 504              	.LFB1396:
 505              		.loc 2 162 0
 506              		.cfi_startproc
 507              	.LVL40:
 508              		.loc 2 162 0
 509 0000 81230048 		lwz 9,72(3)
 510 0004 38000000 		li 0,0
 511 0008 2F890004 		cmpwi 7,9,4
 512 000c 419E0008 		beq- 7,.L35
 513              		.loc 2 162 0 is_stmt 0 discriminator 1
 514 0010 88030020 		lbz 0,32(3)
 515              	.L35:
 516              		.loc 2 162 0 discriminator 4
 517 0014 7C030378 		mr 3,0
 518              	.LVL41:
 519 0018 4E800020 		blr
 520              		.cfi_endproc
 521              	.LFE1396:
 522              		.size	_ZN10GuiElement10IsHoldableEv, .-_ZN10GuiElement10IsHoldableEv
 523              		.section	.text._ZN10GuiElement13SetSelectableEb,"axG",@progbits,_ZN10GuiElement13SetSelectableEb,c
 524              		.align 2
 525              		.weak	_ZN10GuiElement13SetSelectableEb
 526              		.type	_ZN10GuiElement13SetSelectableEb, @function
 527              	_ZN10GuiElement13SetSelectableEb:
 528              	.LFB1397:
 529              		.loc 2 165 0 is_stmt 1
 530              		.cfi_startproc
 531              	.LVL42:
 532              		.loc 2 165 0
 533 0000 9883001E 		stb 4,30(3)
 534 0004 4E800020 		blr
 535              		.cfi_endproc
 536              	.LFE1397:
 537              		.size	_ZN10GuiElement13SetSelectableEb, .-_ZN10GuiElement13SetSelectableEb
 538              		.section	.text._ZN10GuiElement12SetClickableEb,"axG",@progbits,_ZN10GuiElement12SetClickableEb,com
 539              		.align 2
 540              		.weak	_ZN10GuiElement12SetClickableEb
 541              		.type	_ZN10GuiElement12SetClickableEb, @function
 542              	_ZN10GuiElement12SetClickableEb:
 543              	.LFB1398:
 544              		.loc 2 168 0
 545              		.cfi_startproc
 546              	.LVL43:
 547              		.loc 2 168 0
 548 0000 9883001F 		stb 4,31(3)
 549 0004 4E800020 		blr
 550              		.cfi_endproc
 551              	.LFE1398:
 552              		.size	_ZN10GuiElement12SetClickableEb, .-_ZN10GuiElement12SetClickableEb
 553              		.section	.text._ZN10GuiElement11SetHoldableEb,"axG",@progbits,_ZN10GuiElement11SetHoldableEb,comda
 554              		.align 2
 555              		.weak	_ZN10GuiElement11SetHoldableEb
 556              		.type	_ZN10GuiElement11SetHoldableEb, @function
 557              	_ZN10GuiElement11SetHoldableEb:
 558              	.LFB1399:
 559              		.loc 2 171 0
 560              		.cfi_startproc
 561              	.LVL44:
 562              		.loc 2 171 0
 563 0000 98830020 		stb 4,32(3)
 564 0004 4E800020 		blr
 565              		.cfi_endproc
 566              	.LFE1399:
 567              		.size	_ZN10GuiElement11SetHoldableEb, .-_ZN10GuiElement11SetHoldableEb
 568              		.section	.text._ZN10GuiElement8GetStateEv,"axG",@progbits,_ZN10GuiElement8GetStateEv,comdat
 569              		.align 2
 570              		.weak	_ZN10GuiElement8GetStateEv
 571              		.type	_ZN10GuiElement8GetStateEv, @function
 572              	_ZN10GuiElement8GetStateEv:
 573              	.LFB1400:
 574              		.loc 2 178 0
 575              		.cfi_startproc
 576              	.LVL45:
 577              		.loc 2 178 0
 578 0000 80630048 		lwz 3,72(3)
 579              	.LVL46:
 580 0004 4E800020 		blr
 581              		.cfi_endproc
 582              	.LFE1400:
 583              		.size	_ZN10GuiElement8GetStateEv, .-_ZN10GuiElement8GetStateEv
 584              		.section	.text._ZN10GuiElement12GetStateChanEv,"axG",@progbits,_ZN10GuiElement12GetStateChanEv,com
 585              		.align 2
 586              		.weak	_ZN10GuiElement12GetStateChanEv
 587              		.type	_ZN10GuiElement12GetStateChanEv, @function
 588              	_ZN10GuiElement12GetStateChanEv:
 589              	.LFB1401:
 590              		.loc 2 181 0
 591              		.cfi_startproc
 592              	.LVL47:
 593              		.loc 2 181 0
 594 0000 8063004C 		lwz 3,76(3)
 595              	.LVL48:
 596 0004 4E800020 		blr
 597              		.cfi_endproc
 598              	.LFE1401:
 599              		.size	_ZN10GuiElement12GetStateChanEv, .-_ZN10GuiElement12GetStateChanEv
 600              		.section	.text._ZN10GuiElement8SetAlphaEi,"axG",@progbits,_ZN10GuiElement8SetAlphaEi,comdat
 601              		.align 2
 602              		.weak	_ZN10GuiElement8SetAlphaEi
 603              		.type	_ZN10GuiElement8SetAlphaEi, @function
 604              	_ZN10GuiElement8SetAlphaEi:
 605              	.LFB1403:
 606              		.loc 2 190 0
 607              		.cfi_startproc
 608              	.LVL49:
 609              		.loc 2 190 0
 610 0000 90830038 		stw 4,56(3)
 611 0004 4E800020 		blr
 612              		.cfi_endproc
 613              	.LFE1403:
 614              		.size	_ZN10GuiElement8SetAlphaEi, .-_ZN10GuiElement8SetAlphaEi
 615              		.section	.text._ZN10GuiElement8GetAlphaEv,"axG",@progbits,_ZN10GuiElement8GetAlphaEv,comdat
 616              		.align 2
 617              		.weak	_ZN10GuiElement8GetAlphaEv
 618              		.type	_ZN10GuiElement8GetAlphaEv, @function
 619              	_ZN10GuiElement8GetAlphaEv:
 620              	.LFB1404:
 621              		.loc 2 194 0
 622              		.cfi_startproc
 623              	.LVL50:
 624 0000 7C0802A6 		mflr 0
 625 0004 9421FFD8 		stwu 1,-40(1)
 626              	.LCFI5:
 627              		.cfi_def_cfa_offset 40
 628              		.cfi_register 65, 0
 629 0008 93E10024 		stw 31,36(1)
 630 000c 9001002C 		stw 0,44(1)
 631              	.LBB1296:
 632              		.loc 2 198 0
 633 0010 83E3006C 		lwz 31,108(3)
 634              		.cfi_offset 65, 4
 635              		.cfi_offset 31, -4
 636 0014 2F9F0000 		cmpwi 7,31,0
 637 0018 419C0094 		blt- 7,.L46
 638              	.L44:
 639              	.LVL51:
 640              		.loc 2 203 0
 641 001c 80630060 		lwz 3,96(3)
 642              	.LVL52:
 643 0020 2F830000 		cmpwi 7,3,0
 644 0024 419E0070 		beq- 7,.L45
 645              		.loc 2 204 0
 646 0028 81230000 		lwz 9,0(3)
 647 002c 6FFF8000 		xoris 31,31,0x8000
 648              	.LVL53:
 649 0030 80090064 		lwz 0,100(9)
 650 0034 7C0903A6 		mtctr 0
 651 0038 4E800421 		bctrl
 652 003c 3C004330 		lis 0,0x4330
 653 0040 6C638000 		xoris 3,3,0x8000
 654 0044 90010010 		stw 0,16(1)
 655 0048 90610014 		stw 3,20(1)
 656 004c 3D200000 		lis 9,.LC1@ha
 657 0050 C0090000 		lfs 0,.LC1@l(9)
 658 0054 3D200000 		lis 9,.LC2@ha
 659 0058 C9A10010 		lfd 13,16(1)
 660 005c C1890004 		lfs 12,.LC2@l(9)
 661 0060 39210018 		addi 9,1,24
 662 0064 FDAD0028 		fsub 13,13,0
 663 0068 93E1000C 		stw 31,12(1)
 664 006c 90010008 		stw 0,8(1)
 665 0070 FDA06818 		frsp 13,13
 666 0074 EDAD6024 		fdivs 13,13,12
 667 0078 C9810008 		lfd 12,8(1)
 668 007c FC0C0028 		fsub 0,12,0
 669 0080 FC000018 		frsp 0,0
 670 0084 EC000372 		fmuls 0,0,13
 671 0088 FC00001E 		fctiwz 0,0
 672 008c 7C004FAE 		stfiwx 0,0,9
 673 0090 83E10018 		lwz 31,24(1)
 674              	.LVL54:
 675              	.L45:
 676              	.LBE1296:
 677              		.loc 2 207 0
 678 0094 8001002C 		lwz 0,44(1)
 679 0098 7FE3FB78 		mr 3,31
 680 009c 83E10024 		lwz 31,36(1)
 681              	.LVL55:
 682 00a0 7C0803A6 		mtlr 0
 683 00a4 38210028 		addi 1,1,40
 684              		.cfi_remember_state
 685              	.LCFI6:
 686              		.cfi_def_cfa_offset 0
 687              		.cfi_restore 31
 688 00a8 4E800020 		blr
 689              	.LVL56:
 690              	.L46:
 691              	.LCFI7:
 692              		.cfi_restore_state
 693              	.LBB1297:
 694              		.loc 2 201 0
 695 00ac 83E30038 		lwz 31,56(3)
 696              	.LVL57:
 697 00b0 4BFFFF6C 		b .L44
 698              	.LBE1297:
 699              		.cfi_endproc
 700              	.LFE1404:
 701              		.size	_ZN10GuiElement8GetAlphaEv, .-_ZN10GuiElement8GetAlphaEv
 702              		.section	.text._ZN10GuiElement8SetScaleEf,"axG",@progbits,_ZN10GuiElement8SetScaleEf,comdat
 703              		.align 2
 704              		.weak	_ZN10GuiElement8SetScaleEf
 705              		.type	_ZN10GuiElement8SetScaleEf, @function
 706              	_ZN10GuiElement8SetScaleEf:
 707              	.LFB1405:
 708              		.loc 2 210 0
 709              		.cfi_startproc
 710              	.LVL58:
 711              		.loc 2 212 0
 712 0000 D023003C 		stfs 1,60(3)
 713              		.loc 2 214 0
 714              		.loc 2 213 0
 715 0004 D0230040 		stfs 1,64(3)
 716              		.loc 2 214 0
 717 0008 4E800020 		blr
 718              		.cfi_endproc
 719              	.LFE1405:
 720              		.size	_ZN10GuiElement8SetScaleEf, .-_ZN10GuiElement8SetScaleEf
 721              		.section	.text._ZN10GuiElement9SetScaleXEf,"axG",@progbits,_ZN10GuiElement9SetScaleXEf,comdat
 722              		.align 2
 723              		.weak	_ZN10GuiElement9SetScaleXEf
 724              		.type	_ZN10GuiElement9SetScaleXEf, @function
 725              	_ZN10GuiElement9SetScaleXEf:
 726              	.LFB1406:
 727              		.loc 2 217 0
 728              		.cfi_startproc
 729              	.LVL59:
 730              		.loc 2 217 0
 731 0000 D023003C 		stfs 1,60(3)
 732 0004 4E800020 		blr
 733              		.cfi_endproc
 734              	.LFE1406:
 735              		.size	_ZN10GuiElement9SetScaleXEf, .-_ZN10GuiElement9SetScaleXEf
 736              		.section	.text._ZN10GuiElement9SetScaleYEf,"axG",@progbits,_ZN10GuiElement9SetScaleYEf,comdat
 737              		.align 2
 738              		.weak	_ZN10GuiElement9SetScaleYEf
 739              		.type	_ZN10GuiElement9SetScaleYEf, @function
 740              	_ZN10GuiElement9SetScaleYEf:
 741              	.LFB1407:
 742              		.loc 2 220 0
 743              		.cfi_startproc
 744              	.LVL60:
 745              		.loc 2 220 0
 746 0000 D0230040 		stfs 1,64(3)
 747 0004 4E800020 		blr
 748              		.cfi_endproc
 749              	.LFE1407:
 750              		.size	_ZN10GuiElement9SetScaleYEf, .-_ZN10GuiElement9SetScaleYEf
 751              		.section	.text._ZN10GuiElement8GetScaleEv,"axG",@progbits,_ZN10GuiElement8GetScaleEv,comdat
 752              		.align 2
 753              		.weak	_ZN10GuiElement8GetScaleEv
 754              		.type	_ZN10GuiElement8GetScaleEv, @function
 755              	_ZN10GuiElement8GetScaleEv:
 756              	.LFB1408:
 757              		.loc 2 223 0
 758              		.cfi_startproc
 759              	.LVL61:
 760 0000 7C0802A6 		mflr 0
 761 0004 9421FFF0 		stwu 1,-16(1)
 762              	.LCFI8:
 763              		.cfi_def_cfa_offset 16
 764              		.cfi_register 65, 0
 765              	.LBB1298:
 766              		.loc 2 225 0
 767 0008 3D200000 		lis 9,.LC3@ha
 768              	.LBE1298:
 769              		.loc 2 223 0
 770 000c DBE10008 		stfd 31,8(1)
 771 0010 90010014 		stw 0,20(1)
 772              	.LBB1299:
 773              		.loc 2 225 0
 774 0014 C0030040 		lfs 0,64(3)
 775 0018 C3E3003C 		lfs 31,60(3)
 776              		.cfi_offset 65, 4
 777              		.cfi_offset 63, -8
 778              		.loc 2 227 0
 779 001c 81630060 		lwz 11,96(3)
 780              		.loc 2 225 0
 781 0020 EFFF002A 		fadds 31,31,0
 782 0024 C0090008 		lfs 0,.LC3@l(9)
 783              		.loc 2 227 0
 784 0028 2F8B0000 		cmpwi 7,11,0
 785              		.loc 2 225 0
 786 002c EFFF0032 		fmuls 31,31,0
 787 0030 C0030070 		lfs 0,112(3)
 788 0034 EFFF0032 		fmuls 31,31,0
 789              	.LVL62:
 790              		.loc 2 227 0
 791 0038 419E001C 		beq- 7,.L51
 792              		.loc 2 228 0
 793 003c 812B0000 		lwz 9,0(11)
 794 0040 7D635B78 		mr 3,11
 795              	.LVL63:
 796 0044 80090074 		lwz 0,116(9)
 797 0048 7C0903A6 		mtctr 0
 798 004c 4E800421 		bctrl
 799 0050 EFFF0072 		fmuls 31,31,1
 800              	.LVL64:
 801              	.L51:
 802              	.LBE1299:
 803              		.loc 2 231 0
 804 0054 80010014 		lwz 0,20(1)
 805 0058 FC20F890 		fmr 1,31
 806 005c CBE10008 		lfd 31,8(1)
 807              	.LVL65:
 808 0060 7C0803A6 		mtlr 0
 809 0064 38210010 		addi 1,1,16
 810              	.LCFI9:
 811              		.cfi_def_cfa_offset 0
 812              		.cfi_restore 63
 813 0068 4E800020 		blr
 814              		.cfi_endproc
 815              	.LFE1408:
 816              		.size	_ZN10GuiElement8GetScaleEv, .-_ZN10GuiElement8GetScaleEv
 817              		.section	.text._ZN10GuiElement9GetScaleXEv,"axG",@progbits,_ZN10GuiElement9GetScaleXEv,comdat
 818              		.align 2
 819              		.weak	_ZN10GuiElement9GetScaleXEv
 820              		.type	_ZN10GuiElement9GetScaleXEv, @function
 821              	_ZN10GuiElement9GetScaleXEv:
 822              	.LFB1409:
 823              		.loc 2 234 0
 824              		.cfi_startproc
 825              	.LVL66:
 826 0000 7C0802A6 		mflr 0
 827 0004 9421FFF0 		stwu 1,-16(1)
 828              	.LCFI10:
 829              		.cfi_def_cfa_offset 16
 830              		.cfi_register 65, 0
 831 0008 DBE10008 		stfd 31,8(1)
 832 000c 90010014 		stw 0,20(1)
 833              	.LBB1300:
 834              		.loc 2 238 0
 835 0010 81630060 		lwz 11,96(3)
 836              		.loc 2 236 0
 837 0014 C3E3003C 		lfs 31,60(3)
 838              		.cfi_offset 65, 4
 839              		.cfi_offset 63, -8
 840              		.loc 2 238 0
 841 0018 2F8B0000 		cmpwi 7,11,0
 842              		.loc 2 236 0
 843 001c C0030070 		lfs 0,112(3)
 844 0020 EFFF0032 		fmuls 31,31,0
 845              	.LVL67:
 846              		.loc 2 238 0
 847 0024 419E001C 		beq- 7,.L53
 848              		.loc 2 239 0
 849 0028 812B0000 		lwz 9,0(11)
 850 002c 7D635B78 		mr 3,11
 851              	.LVL68:
 852 0030 80090078 		lwz 0,120(9)
 853 0034 7C0903A6 		mtctr 0
 854 0038 4E800421 		bctrl
 855 003c EFFF0072 		fmuls 31,31,1
 856              	.LVL69:
 857              	.L53:
 858              	.LBE1300:
 859              		.loc 2 242 0
 860 0040 80010014 		lwz 0,20(1)
 861 0044 FC20F890 		fmr 1,31
 862 0048 CBE10008 		lfd 31,8(1)
 863              	.LVL70:
 864 004c 7C0803A6 		mtlr 0
 865 0050 38210010 		addi 1,1,16
 866              	.LCFI11:
 867              		.cfi_def_cfa_offset 0
 868              		.cfi_restore 63
 869 0054 4E800020 		blr
 870              		.cfi_endproc
 871              	.LFE1409:
 872              		.size	_ZN10GuiElement9GetScaleXEv, .-_ZN10GuiElement9GetScaleXEv
 873              		.section	.text._ZN10GuiElement9GetScaleYEv,"axG",@progbits,_ZN10GuiElement9GetScaleYEv,comdat
 874              		.align 2
 875              		.weak	_ZN10GuiElement9GetScaleYEv
 876              		.type	_ZN10GuiElement9GetScaleYEv, @function
 877              	_ZN10GuiElement9GetScaleYEv:
 878              	.LFB1410:
 879              		.loc 2 245 0
 880              		.cfi_startproc
 881              	.LVL71:
 882 0000 7C0802A6 		mflr 0
 883 0004 9421FFF0 		stwu 1,-16(1)
 884              	.LCFI12:
 885              		.cfi_def_cfa_offset 16
 886              		.cfi_register 65, 0
 887 0008 DBE10008 		stfd 31,8(1)
 888 000c 90010014 		stw 0,20(1)
 889              	.LBB1301:
 890              		.loc 2 249 0
 891 0010 81630060 		lwz 11,96(3)
 892              		.loc 2 247 0
 893 0014 C3E30040 		lfs 31,64(3)
 894              		.cfi_offset 65, 4
 895              		.cfi_offset 63, -8
 896              		.loc 2 249 0
 897 0018 2F8B0000 		cmpwi 7,11,0
 898              		.loc 2 247 0
 899 001c C0030070 		lfs 0,112(3)
 900 0020 EFFF0032 		fmuls 31,31,0
 901              	.LVL72:
 902              		.loc 2 249 0
 903 0024 419E001C 		beq- 7,.L55
 904              		.loc 2 250 0
 905 0028 812B0000 		lwz 9,0(11)
 906 002c 7D635B78 		mr 3,11
 907              	.LVL73:
 908 0030 8009007C 		lwz 0,124(9)
 909 0034 7C0903A6 		mtctr 0
 910 0038 4E800421 		bctrl
 911 003c EFFF0072 		fmuls 31,31,1
 912              	.LVL74:
 913              	.L55:
 914              	.LBE1301:
 915              		.loc 2 253 0
 916 0040 80010014 		lwz 0,20(1)
 917 0044 FC20F890 		fmr 1,31
 918 0048 CBE10008 		lfd 31,8(1)
 919              	.LVL75:
 920 004c 7C0803A6 		mtlr 0
 921 0050 38210010 		addi 1,1,16
 922              	.LCFI13:
 923              		.cfi_def_cfa_offset 0
 924              		.cfi_restore 63
 925 0054 4E800020 		blr
 926              		.cfi_endproc
 927              	.LFE1410:
 928              		.size	_ZN10GuiElement9GetScaleYEv, .-_ZN10GuiElement9GetScaleYEv
 929              		.section	.text._ZN10GuiElement6RumbleEv,"axG",@progbits,_ZN10GuiElement6RumbleEv,comdat
 930              		.align 2
 931              		.weak	_ZN10GuiElement6RumbleEv
 932              		.type	_ZN10GuiElement6RumbleEv, @function
 933              	_ZN10GuiElement6RumbleEv:
 934              	.LFB1411:
 935              		.loc 2 256 0
 936              		.cfi_startproc
 937              	.LVL76:
 938              		.loc 2 256 0
 939 0000 8863001C 		lbz 3,28(3)
 940              	.LVL77:
 941 0004 4E800020 		blr
 942              		.cfi_endproc
 943              	.LFE1411:
 944              		.size	_ZN10GuiElement6RumbleEv, .-_ZN10GuiElement6RumbleEv
 945              		.section	.text._ZN10GuiElement9SetRumbleEb,"axG",@progbits,_ZN10GuiElement9SetRumbleEb,comdat
 946              		.align 2
 947              		.weak	_ZN10GuiElement9SetRumbleEb
 948              		.type	_ZN10GuiElement9SetRumbleEb, @function
 949              	_ZN10GuiElement9SetRumbleEb:
 950              	.LFB1412:
 951              		.loc 2 259 0
 952              		.cfi_startproc
 953              	.LVL78:
 954              		.loc 2 259 0
 955 0000 9883001C 		stb 4,28(3)
 956 0004 4E800020 		blr
 957              		.cfi_endproc
 958              	.LFE1412:
 959              		.size	_ZN10GuiElement9SetRumbleEb, .-_ZN10GuiElement9SetRumbleEb
 960              		.section	.text._ZN10GuiElement13SetEffectGrowEv,"axG",@progbits,_ZN10GuiElement13SetEffectGrowEv,c
 961              		.align 2
 962              		.weak	_ZN10GuiElement13SetEffectGrowEv
 963              		.type	_ZN10GuiElement13SetEffectGrowEv, @function
 964              	_ZN10GuiElement13SetEffectGrowEv:
 965              	.LFB1413:
 966              		.loc 2 271 0
 967              		.cfi_startproc
 968              	.LVL79:
 969 0000 7C0802A6 		mflr 0
 970 0004 9421FFF8 		stwu 1,-8(1)
 971              	.LCFI14:
 972              		.cfi_def_cfa_offset 8
 973              		.cfi_register 65, 0
 974 0008 81230000 		lwz 9,0(3)
 975 000c 38800100 		li 4,256
 976 0010 38A00004 		li 5,4
 977 0014 38C0006E 		li 6,110
 978 0018 9001000C 		stw 0,12(1)
 979              		.loc 2 271 0
 980 001c 8009008C 		lwz 0,140(9)
 981              		.cfi_offset 65, 4
 982 0020 7C0903A6 		mtctr 0
 983 0024 4E800421 		bctrl
 984              	.LVL80:
 985 0028 8001000C 		lwz 0,12(1)
 986 002c 38210008 		addi 1,1,8
 987              	.LCFI15:
 988              		.cfi_def_cfa_offset 0
 989 0030 7C0803A6 		mtlr 0
 990 0034 4E800020 		blr
 991              		.cfi_endproc
 992              	.LFE1413:
 993              		.size	_ZN10GuiElement13SetEffectGrowEv, .-_ZN10GuiElement13SetEffectGrowEv
 994              		.section	.text._ZNK10GuiElement9GetEffectEv,"axG",@progbits,_ZNK10GuiElement9GetEffectEv,comdat
 995              		.align 2
 996              		.weak	_ZNK10GuiElement9GetEffectEv
 997              		.type	_ZNK10GuiElement9GetEffectEv, @function
 998              	_ZNK10GuiElement9GetEffectEv:
 999              	.LFB1414:
 1000              		.loc 2 276 0
 1001              		.cfi_startproc
 1002              	.LVL81:
 1003              		.loc 2 276 0
 1004 0000 80630078 		lwz 3,120(3)
 1005              	.LVL82:
 1006 0004 4E800020 		blr
 1007              		.cfi_endproc
 1008              	.LFE1414:
 1009              		.size	_ZNK10GuiElement9GetEffectEv, .-_ZNK10GuiElement9GetEffectEv
 1010              		.section	.text._ZNK10GuiElement10IsAnimatedEv,"axG",@progbits,_ZNK10GuiElement10IsAnimatedEv,comda
 1011              		.align 2
 1012              		.weak	_ZNK10GuiElement10IsAnimatedEv
 1013              		.type	_ZNK10GuiElement10IsAnimatedEv, @function
 1014              	_ZNK10GuiElement10IsAnimatedEv:
 1015              	.LFB1415:
 1016              		.loc 2 278 0
 1017              		.cfi_startproc
 1018              	.LVL83:
 1019 0000 7C0802A6 		mflr 0
 1020 0004 9421FFF8 		stwu 1,-8(1)
 1021              	.LCFI16:
 1022              		.cfi_def_cfa_offset 8
 1023              		.cfi_register 65, 0
 1024 0008 9001000C 		stw 0,12(1)
 1025              		.loc 2 278 0
 1026 000c 81230000 		lwz 9,0(3)
 1027 0010 80090098 		lwz 0,152(9)
 1028              		.cfi_offset 65, 4
 1029 0014 7C0903A6 		mtctr 0
 1030 0018 4E800421 		bctrl
 1031              	.LVL84:
 1032 001c 7C60FE70 		srawi 0,3,31
 1033 0020 7C630050 		subf 3,3,0
 1034 0024 8001000C 		lwz 0,12(1)
 1035 0028 54630FFE 		srwi 3,3,31
 1036 002c 7C0803A6 		mtlr 0
 1037 0030 38210008 		addi 1,1,8
 1038              	.LCFI17:
 1039              		.cfi_def_cfa_offset 0
 1040 0034 4E800020 		blr
 1041              		.cfi_endproc
 1042              	.LFE1415:
 1043              		.size	_ZNK10GuiElement10IsAnimatedEv, .-_ZNK10GuiElement10IsAnimatedEv
 1044              		.section	.text._ZN10GuiElement9SetBoundsE4RectIiE,"axG",@progbits,_ZN10GuiElement9SetBoundsE4RectI
 1045              		.align 2
 1046              		.weak	_ZN10GuiElement9SetBoundsE4RectIiE
 1047              		.type	_ZN10GuiElement9SetBoundsE4RectIiE, @function
 1048              	_ZN10GuiElement9SetBoundsE4RectIiE:
 1049              	.LFB1416:
 1050              		.loc 2 280 0
 1051              		.cfi_startproc
 1052              	.LVL85:
 1053              	.LBB1302:
 1054              	.LBB1303:
 1055              		.file 5 "d:/Projects/SaveGameManager/savegame-manager-gx/trunk/source/GUI/../Tools/Rect.h"
 1056              		.loc 5 30 0
 1057 0000 81440000 		lwz 10,0(4)
 1058              	.LBE1303:
 1059              	.LBE1302:
 1060              		.loc 2 280 0
 1061              	.LBB1305:
 1062              	.LBB1304:
 1063              		.loc 5 31 0
 1064 0004 81640008 		lwz 11,8(4)
 1065              		.loc 5 32 0
 1066 0008 81240004 		lwz 9,4(4)
 1067              		.loc 5 33 0
 1068 000c 8004000C 		lwz 0,12(4)
 1069              	.LVL86:
 1070              		.loc 5 30 0
 1071 0010 91430050 		stw 10,80(3)
 1072              		.loc 5 31 0
 1073 0014 91630058 		stw 11,88(3)
 1074              		.loc 5 32 0
 1075 0018 91230054 		stw 9,84(3)
 1076              		.loc 5 33 0
 1077 001c 9003005C 		stw 0,92(3)
 1078              	.LBE1304:
 1079              	.LBE1305:
 1080              		.loc 2 280 0
 1081 0020 4E800020 		blr
 1082              		.cfi_endproc
 1083              	.LFE1416:
 1084              		.size	_ZN10GuiElement9SetBoundsE4RectIiE, .-_ZN10GuiElement9SetBoundsE4RectIiE
 1085              		.section	.text._ZN10GuiElement8IsInsideEii,"axG",@progbits,_ZN10GuiElement8IsInsideEii,comdat
 1086              		.align 2
 1087              		.weak	_ZN10GuiElement8IsInsideEii
 1088              		.type	_ZN10GuiElement8IsInsideEii, @function
 1089              	_ZN10GuiElement8IsInsideEii:
 1090              	.LFB1417:
 1091              		.loc 2 285 0
 1092              		.cfi_startproc
 1093              	.LVL87:
 1094 0000 7C0802A6 		mflr 0
 1095 0004 9421FFE8 		stwu 1,-24(1)
 1096              	.LCFI18:
 1097              		.cfi_def_cfa_offset 24
 1098              		.cfi_register 65, 0
 1099 0008 93810008 		stw 28,8(1)
 1100 000c 7CBC2B78 		mr 28,5
 1101              		.cfi_offset 28, -16
 1102 0010 9001001C 		stw 0,28(1)
 1103 0014 93A1000C 		stw 29,12(1)
 1104              		.loc 2 290 0
 1105 0018 3BA00000 		li 29,0
 1106              		.cfi_offset 29, -12
 1107              		.cfi_offset 65, 4
 1108              		.loc 2 287 0
 1109 001c 81230000 		lwz 9,0(3)
 1110              		.loc 2 285 0
 1111 0020 93C10010 		stw 30,16(1)
 1112 0024 7C9E2378 		mr 30,4
 1113              		.cfi_offset 30, -8
 1114              		.loc 2 287 0
 1115 0028 80090010 		lwz 0,16(9)
 1116              		.loc 2 285 0
 1117 002c 93E10014 		stw 31,20(1)
 1118              		.loc 2 285 0
 1119 0030 7C7F1B78 		mr 31,3
 1120              		.cfi_offset 31, -4
 1121              		.loc 2 287 0
 1122 0034 7C0903A6 		mtctr 0
 1123 0038 4E800421 		bctrl
 1124              	.LVL88:
 1125              		.loc 2 290 0
 1126 003c 7F83F000 		cmpw 7,3,30
 1127 0040 419C0028 		blt- 7,.L67
 1128              	.L63:
 1129              		.loc 2 291 0 discriminator 6
 1130 0044 8001001C 		lwz 0,28(1)
 1131 0048 7FA3EB78 		mr 3,29
 1132 004c 83810008 		lwz 28,8(1)
 1133              	.LVL89:
 1134 0050 7C0803A6 		mtlr 0
 1135 0054 83A1000C 		lwz 29,12(1)
 1136 0058 83C10010 		lwz 30,16(1)
 1137              	.LVL90:
 1138 005c 83E10014 		lwz 31,20(1)
 1139              	.LVL91:
 1140 0060 38210018 		addi 1,1,24
 1141              		.cfi_remember_state
 1142              	.LCFI19:
 1143              		.cfi_def_cfa_offset 0
 1144              		.cfi_restore 31
 1145              		.cfi_restore 30
 1146              		.cfi_restore 29
 1147              		.cfi_restore 28
 1148 0064 4E800020 		blr
 1149              	.LVL92:
 1150              	.L67:
 1151              	.LCFI20:
 1152              		.cfi_restore_state
 1153              		.loc 2 288 0 discriminator 1
 1154 0068 813F0000 		lwz 9,0(31)
 1155 006c 7FE3FB78 		mr 3,31
 1156 0070 80090010 		lwz 0,16(9)
 1157 0074 7C0903A6 		mtctr 0
 1158 0078 4E800421 		bctrl
 1159              		.loc 2 290 0 discriminator 1
 1160 007c 801F0024 		lwz 0,36(31)
 1161 0080 7C030214 		add 0,3,0
 1162 0084 7F9E0000 		cmpw 7,30,0
 1163 0088 409CFFBC 		bge+ 7,.L63
 1164              		.loc 2 289 0 discriminator 3
 1165 008c 813F0000 		lwz 9,0(31)
 1166 0090 7FE3FB78 		mr 3,31
 1167 0094 80090014 		lwz 0,20(9)
 1168 0098 7C0903A6 		mtctr 0
 1169 009c 4E800421 		bctrl
 1170              		.loc 2 290 0 discriminator 3
 1171 00a0 7F83E000 		cmpw 7,3,28
 1172 00a4 409CFFA0 		bge+ 7,.L63
 1173              		.loc 2 290 0 is_stmt 0 discriminator 4
 1174 00a8 813F0000 		lwz 9,0(31)
 1175 00ac 7FE3FB78 		mr 3,31
 1176 00b0 80090014 		lwz 0,20(9)
 1177 00b4 7C0903A6 		mtctr 0
 1178 00b8 4E800421 		bctrl
 1179 00bc 801F0028 		lwz 0,40(31)
 1180 00c0 7C030214 		add 0,3,0
 1181              		.loc 2 285 0 is_stmt 1 discriminator 4
 1182 00c4 7F9C0000 		cmpw 7,28,0
 1183 00c8 7FA00026 		mfcr 29
 1184 00cc 57BDEFFE 		rlwinm 29,29,29,1
 1185 00d0 4BFFFF74 		b .L63
 1186              		.cfi_endproc
 1187              	.LFE1417:
 1188              		.size	_ZN10GuiElement8IsInsideEii, .-_ZN10GuiElement8IsInsideEii
 1189              		.section	.text._ZN10GuiElement11SetPositionEii,"axG",@progbits,_ZN10GuiElement11SetPositionEii,com
 1190              		.align 2
 1191              		.weak	_ZN10GuiElement11SetPositionEii
 1192              		.type	_ZN10GuiElement11SetPositionEii, @function
 1193              	_ZN10GuiElement11SetPositionEii:
 1194              	.LFB1418:
 1195              		.loc 2 295 0
 1196              		.cfi_startproc
 1197              	.LVL93:
 1198              		.loc 2 297 0
 1199 0000 9083002C 		stw 4,44(3)
 1200              		.loc 2 299 0
 1201              		.loc 2 298 0
 1202 0004 90A30030 		stw 5,48(3)
 1203              		.loc 2 299 0
 1204 0008 4E800020 		blr
 1205              		.cfi_endproc
 1206              	.LFE1418:
 1207              		.size	_ZN10GuiElement11SetPositionEii, .-_ZN10GuiElement11SetPositionEii
 1208              		.section	.text._ZN10GuiElement11SetPositionEiii,"axG",@progbits,_ZN10GuiElement11SetPositionEiii,c
 1209              		.align 2
 1210              		.weak	_ZN10GuiElement11SetPositionEiii
 1211              		.type	_ZN10GuiElement11SetPositionEiii, @function
 1212              	_ZN10GuiElement11SetPositionEiii:
 1213              	.LFB1419:
 1214              		.loc 2 304 0
 1215              		.cfi_startproc
 1216              	.LVL94:
 1217              		.loc 2 306 0
 1218 0000 9083002C 		stw 4,44(3)
 1219              		.loc 2 309 0
 1220              		.loc 2 307 0
 1221 0004 90A30030 		stw 5,48(3)
 1222              		.loc 2 308 0
 1223 0008 90C30034 		stw 6,52(3)
 1224              		.loc 2 309 0
 1225 000c 4E800020 		blr
 1226              		.cfi_endproc
 1227              	.LFE1419:
 1228              		.size	_ZN10GuiElement11SetPositionEiii, .-_ZN10GuiElement11SetPositionEiii
 1229              		.section	.text._ZN10GuiElement11GetSelectedEv,"axG",@progbits,_ZN10GuiElement11GetSelectedEv,comda
 1230              		.align 2
 1231              		.weak	_ZN10GuiElement11GetSelectedEv
 1232              		.type	_ZN10GuiElement11GetSelectedEv, @function
 1233              	_ZN10GuiElement11GetSelectedEv:
 1234              	.LFB1420:
 1235              		.loc 2 312 0
 1236              		.cfi_startproc
 1237              	.LVL95:
 1238              		.loc 2 312 0
 1239 0000 3860FFFF 		li 3,-1
 1240              	.LVL96:
 1241 0004 4E800020 		blr
 1242              		.cfi_endproc
 1243              	.LFE1420:
 1244              		.size	_ZN10GuiElement11GetSelectedEv, .-_ZN10GuiElement11GetSelectedEv
 1245              		.section	.text._ZN10GuiElement12SetAlignmentEi,"axG",@progbits,_ZN10GuiElement12SetAlignmentEi,com
 1246              		.align 2
 1247              		.weak	_ZN10GuiElement12SetAlignmentEi
 1248              		.type	_ZN10GuiElement12SetAlignmentEi, @function
 1249              	_ZN10GuiElement12SetAlignmentEi:
 1250              	.LFB1421:
 1251              		.loc 2 316 0
 1252              		.cfi_startproc
 1253              	.LVL97:
 1254              		.loc 2 316 0
 1255 0000 90830044 		stw 4,68(3)
 1256 0004 4E800020 		blr
 1257              		.cfi_endproc
 1258              	.LFE1421:
 1259              		.size	_ZN10GuiElement12SetAlignmentEi, .-_ZN10GuiElement12SetAlignmentEi
 1260              		.section	.text._ZNK10GuiElement12GetAlignmentEv,"axG",@progbits,_ZNK10GuiElement12GetAlignmentEv,c
 1261              		.align 2
 1262              		.weak	_ZNK10GuiElement12GetAlignmentEv
 1263              		.type	_ZNK10GuiElement12GetAlignmentEv, @function
 1264              	_ZNK10GuiElement12GetAlignmentEv:
 1265              	.LFB1422:
 1266              		.loc 2 318 0
 1267              		.cfi_startproc
 1268              	.LVL98:
 1269              		.loc 2 318 0
 1270 0000 80630044 		lwz 3,68(3)
 1271              	.LVL99:
 1272 0004 4E800020 		blr
 1273              		.cfi_endproc
 1274              	.LFE1422:
 1275              		.size	_ZNK10GuiElement12GetAlignmentEv, .-_ZNK10GuiElement12GetAlignmentEv
 1276              		.section	.text._ZN10GuiElement6UpdateEP10GuiTrigger,"axG",@progbits,_ZN10GuiElement6UpdateEP10GuiT
 1277              		.align 2
 1278              		.weak	_ZN10GuiElement6UpdateEP10GuiTrigger
 1279              		.type	_ZN10GuiElement6UpdateEP10GuiTrigger, @function
 1280              	_ZN10GuiElement6UpdateEP10GuiTrigger:
 1281              	.LFB1423:
 1282              		.loc 2 321 0
 1283              		.cfi_startproc
 1284              	.LVL100:
 1285              		.loc 2 321 0
 1286 0000 4E800020 		blr
 1287              		.cfi_endproc
 1288              	.LFE1423:
 1289              		.size	_ZN10GuiElement6UpdateEP10GuiTrigger, .-_ZN10GuiElement6UpdateEP10GuiTrigger
 1290              		.section	.text._ZN12GuiChecksign7SetSizeEii,"axG",@progbits,_ZN12GuiChecksign7SetSizeEii,comdat
 1291              		.align 2
 1292              		.weak	_ZN12GuiChecksign7SetSizeEii
 1293              		.type	_ZN12GuiChecksign7SetSizeEii, @function
 1294              	_ZN12GuiChecksign7SetSizeEii:
 1295              	.LFB1472:
 1296              		.file 6 "d:/Projects/SaveGameManager/savegame-manager-gx/trunk/source/GUI/gui_checksign.hpp"
 1297              		.loc 6 36 0
 1298              		.cfi_startproc
 1299              	.LVL101:
 1300              		.loc 6 36 0
 1301 0000 90830024 		stw 4,36(3)
 1302 0004 90A30028 		stw 5,40(3)
 1303 0008 4E800020 		blr
 1304              		.cfi_endproc
 1305              	.LFE1472:
 1306              		.size	_ZN12GuiChecksign7SetSizeEii, .-_ZN12GuiChecksign7SetSizeEii
 1307              		.section	.text._ZN7sigslot12_signal_baseINS_15single_threadedEED2Ev,"axG",@progbits,_ZN7sigslot12_
 1308              		.align 2
 1309              		.weak	_ZN7sigslot12_signal_baseINS_15single_threadedEED2Ev
 1310              		.type	_ZN7sigslot12_signal_baseINS_15single_threadedEED2Ev, @function
 1311              	_ZN7sigslot12_signal_baseINS_15single_threadedEED2Ev:
 1312              	.LFB1503:
 1313              		.loc 1 466 0
 1314              		.cfi_startproc
 1315              	.LVL102:
 1316              	.LBB1306:
 1317              	.LBB1307:
 1318              	.LBB1308:
 1319              	.LBB1309:
 1320              		.loc 1 105 0
 1321 0000 3D200000 		lis 9,_ZTVN7sigslot15single_threadedE+8@ha
 1322              	.LBE1309:
 1323              	.LBE1308:
 1324              	.LBE1307:
 1325              	.LBE1306:
 1326              		.loc 1 466 0
 1327              	.LBB1313:
 1328              	.LBB1312:
 1329              	.LBB1311:
 1330              	.LBB1310:
 1331              		.loc 1 105 0
 1332 0004 38090008 		la 0,_ZTVN7sigslot15single_threadedE+8@l(9)
 1333 0008 90030000 		stw 0,0(3)
 1334              	.LBE1310:
 1335              	.LBE1311:
 1336              	.LBE1312:
 1337              	.LBE1313:
 1338              		.loc 1 466 0
 1339 000c 4E800020 		blr
 1340              		.cfi_endproc
 1341              	.LFE1503:
 1342              		.size	_ZN7sigslot12_signal_baseINS_15single_threadedEED2Ev, .-_ZN7sigslot12_signal_baseINS_15singl
 1343              		.section	.text._ZN7sigslot12_signal_baseINS_15single_threadedEED0Ev,"axG",@progbits,_ZN7sigslot12_
 1344              		.align 2
 1345              		.weak	_ZN7sigslot12_signal_baseINS_15single_threadedEED0Ev
 1346              		.type	_ZN7sigslot12_signal_baseINS_15single_threadedEED0Ev, @function
 1347              	_ZN7sigslot12_signal_baseINS_15single_threadedEED0Ev:
 1348              	.LFB1505:
 1349              		.loc 1 466 0
 1350              		.cfi_startproc
 1351              	.LVL103:
 1352 0000 7C0802A6 		mflr 0
 1353 0004 9421FFF8 		stwu 1,-8(1)
 1354              	.LCFI21:
 1355              		.cfi_def_cfa_offset 8
 1356              		.cfi_register 65, 0
 1357              	.LBB1314:
 1358              	.LBB1315:
 1359              	.LBB1316:
 1360              	.LBB1317:
 1361              	.LBB1318:
 1362              	.LBB1319:
 1363              		.loc 1 105 0
 1364 0008 3D200000 		lis 9,_ZTVN7sigslot15single_threadedE+8@ha
 1365              	.LBE1319:
 1366              	.LBE1318:
 1367              	.LBE1317:
 1368              	.LBE1316:
 1369              	.LBE1315:
 1370              	.LBE1314:
 1371              		.loc 1 466 0
 1372 000c 9001000C 		stw 0,12(1)
 1373              	.LBB1325:
 1374              	.LBB1324:
 1375              	.LBB1323:
 1376              	.LBB1322:
 1377              	.LBB1321:
 1378              	.LBB1320:
 1379              		.loc 1 105 0
 1380 0010 38090008 		la 0,_ZTVN7sigslot15single_threadedE+8@l(9)
 1381              		.cfi_offset 65, 4
 1382 0014 90030000 		stw 0,0(3)
 1383              	.LBE1320:
 1384              	.LBE1321:
 1385              	.LBE1322:
 1386              	.LBE1323:
 1387              	.LBE1324:
 1388              	.LBE1325:
 1389              		.loc 1 466 0
 1390 0018 48000001 		bl _ZdlPv
 1391              	.LVL104:
 1392 001c 8001000C 		lwz 0,12(1)
 1393 0020 38210008 		addi 1,1,8
 1394              	.LCFI22:
 1395              		.cfi_def_cfa_offset 0
 1396 0024 7C0803A6 		mtlr 0
 1397 0028 4E800020 		blr
 1398              		.cfi_endproc
 1399              	.LFE1505:
 1400              		.size	_ZN7sigslot12_signal_baseINS_15single_threadedEED0Ev, .-_ZN7sigslot12_signal_baseINS_15singl
 1401              		.section	.text._ZN7sigslot15single_threadedD0Ev,"axG",@progbits,_ZN7sigslot15single_threadedD5Ev,c
 1402              		.align 2
 1403              		.weak	_ZN7sigslot15single_threadedD0Ev
 1404              		.type	_ZN7sigslot15single_threadedD0Ev, @function
 1405              	_ZN7sigslot15single_threadedD0Ev:
 1406              	.LFB1150:
 1407              		.loc 1 104 0
 1408              		.cfi_startproc
 1409              	.LVL105:
 1410 0000 7C0802A6 		mflr 0
 1411 0004 9421FFF8 		stwu 1,-8(1)
 1412              	.LCFI23:
 1413              		.cfi_def_cfa_offset 8
 1414              		.cfi_register 65, 0
 1415              	.LBB1326:
 1416              	.LBB1327:
 1417              	.LBB1328:
 1418              		.loc 1 105 0
 1419 0008 3D200000 		lis 9,_ZTVN7sigslot15single_threadedE+8@ha
 1420              	.LBE1328:
 1421              	.LBE1327:
 1422              	.LBE1326:
 1423              		.loc 1 104 0
 1424 000c 9001000C 		stw 0,12(1)
 1425              	.LBB1331:
 1426              	.LBB1330:
 1427              	.LBB1329:
 1428              		.loc 1 105 0
 1429 0010 38090008 		la 0,_ZTVN7sigslot15single_threadedE+8@l(9)
 1430              		.cfi_offset 65, 4
 1431 0014 90030000 		stw 0,0(3)
 1432              	.LBE1329:
 1433              	.LBE1330:
 1434              	.LBE1331:
 1435              		.loc 1 107 0
 1436 0018 48000001 		bl _ZdlPv
 1437              	.LVL106:
 1438 001c 8001000C 		lwz 0,12(1)
 1439 0020 38210008 		addi 1,1,8
 1440              	.LCFI24:
 1441              		.cfi_def_cfa_offset 0
 1442 0024 7C0803A6 		mtlr 0
 1443 0028 4E800020 		blr
 1444              		.cfi_endproc
 1445              	.LFE1150:
 1446              		.size	_ZN7sigslot15single_threadedD0Ev, .-_ZN7sigslot15single_threadedD0Ev
 1447              		.section	.text._ZN7sigslot13_signal_base3IP10GuiElementiiNS_15single_threadedEE15slot_disconnectEP
 1448              		.align 2
 1449              		.weak	_ZN7sigslot13_signal_base3IP10GuiElementiiNS_15single_threadedEE15slot_disconnectEPNS_9has_s
 1450              		.type	_ZN7sigslot13_signal_base3IP10GuiElementiiNS_15single_threadedEE15slot_disconnectEPNS_9has_s
 1451              	_ZN7sigslot13_signal_base3IP10GuiElementiiNS_15single_threadedEE15slot_disconnectEPNS_9has_slotsIS3
 1452              	.LFB1716:
 1453              		.loc 1 990 0
 1454              		.cfi_startproc
 1455              		.cfi_personality 0,__gxx_personality_v0
 1456              		.cfi_lsda 0,.LLSDA1716
 1457              	.LVL107:
 1458 0000 7C0802A6 		mflr 0
 1459 0004 9421FFE0 		stwu 1,-32(1)
 1460              	.LCFI25:
 1461              		.cfi_def_cfa_offset 32
 1462              		.cfi_register 65, 0
 1463 0008 9361000C 		stw 27,12(1)
 1464 000c 7C7B1B78 		mr 27,3
 1465              		.cfi_offset 27, -20
 1466              	.LVL108:
 1467 0010 90010024 		stw 0,36(1)
 1468 0014 93810010 		stw 28,16(1)
 1469 0018 7C9C2378 		mr 28,4
 1470              		.cfi_offset 28, -16
 1471              		.cfi_offset 65, 4
 1472              	.LBB1332:
 1473              	.LBB1333:
 1474              	.LBB1334:
 1475              		.loc 1 338 0
 1476 001c 81230000 		lwz 9,0(3)
 1477              	.LBE1334:
 1478              	.LBE1333:
 1479              	.LBE1332:
 1480              		.loc 1 990 0
 1481 0020 93A10014 		stw 29,20(1)
 1482              	.LBB1355:
 1483              	.LBB1337:
 1484              	.LBB1335:
 1485              		.loc 3 56 0
 1486 0024 7F7DDB78 		mr 29,27
 1487              		.cfi_offset 29, -12
 1488              		.loc 1 338 0
 1489 0028 80090008 		lwz 0,8(9)
 1490              	.LBE1335:
 1491              	.LBE1337:
 1492              	.LBE1355:
 1493              		.loc 1 990 0
 1494 002c 93E1001C 		stw 31,28(1)
 1495 0030 93C10018 		stw 30,24(1)
 1496              	.LBB1356:
 1497              	.LBB1338:
 1498              	.LBB1336:
 1499              		.loc 1 338 0
 1500 0034 7C0903A6 		mtctr 0
 1501              	.LEHB4:
 1502              		.cfi_offset 30, -8
 1503              		.cfi_offset 31, -4
 1504 0038 4E800421 		bctrl
 1505              	.LEHE4:
 1506              	.LVL109:
 1507              		.loc 3 56 0
 1508 003c 87FD0004 		lwzu 31,4(29)
 1509              	.LVL110:
 1510              	.LBE1336:
 1511              	.LBE1338:
 1512              		.loc 1 996 0
 1513 0040 7F9FE800 		cmpw 7,31,29
 1514 0044 40BE0014 		bne+ 7,.L97
 1515 0048 48000064 		b .L86
 1516              	.LVL111:
 1517              	.L87:
 1518              		.loc 1 996 0 is_stmt 0 discriminator 1
 1519 004c 7F9DF000 		cmpw 7,29,30
 1520 0050 419E005C 		beq- 7,.L86
 1521              	.L95:
 1522              		.loc 1 996 0
 1523 0054 7FDFF378 		mr 31,30
 1524              	.LVL112:
 1525              	.L97:
 1526              	.LBB1339:
 1527              		.loc 1 1001 0 is_stmt 1
 1528 0058 807F0008 		lwz 3,8(31)
 1529              	.LBB1340:
 1530              	.LBB1341:
 1531              		.loc 4 154 0
 1532 005c 83DF0000 		lwz 30,0(31)
 1533              	.LVL113:
 1534              	.LBE1341:
 1535              	.LBE1340:
 1536              		.loc 1 1001 0
 1537 0060 81230000 		lwz 9,0(3)
 1538 0064 80090008 		lwz 0,8(9)
 1539 0068 7C0903A6 		mtctr 0
 1540              	.LEHB5:
 1541 006c 4E800421 		bctrl
 1542              	.LVL114:
 1543 0070 7F9C1800 		cmpw 7,28,3
 1544 0074 409EFFD8 		bne+ 7,.L87
 1545              	.LVL115:
 1546              		.loc 1 1003 0
 1547 0078 807F0008 		lwz 3,8(31)
 1548 007c 2F830000 		cmpwi 7,3,0
 1549 0080 419E0014 		beq- 7,.L88
 1550              		.loc 1 1003 0 is_stmt 0 discriminator 1
 1551 0084 81230000 		lwz 9,0(3)
 1552 0088 80090004 		lwz 0,4(9)
 1553 008c 7C0903A6 		mtctr 0
 1554 0090 4E800421 		bctrl
 1555              	.LEHE5:
 1556              	.L88:
 1557              	.LVL116:
 1558              	.LBB1342:
 1559              	.LBB1343:
 1560              	.LBB1344:
 1561              	.LBB1345:
 1562              		.loc 4 1532 0 is_stmt 1
 1563 0094 7FE3FB78 		mr 3,31
 1564 0098 48000001 		bl _ZNSt8__detail15_List_node_base9_M_unhookEv
 1565              	.LVL117:
 1566              	.LBB1346:
 1567              	.LBB1347:
 1568              	.LBB1348:
 1569              		.file 7 "d:\\devkitpro\\devkitppc\\bin\\../lib/gcc/powerpc-eabi/4.6.3/../../../../powerpc-eabi/inc
 1570              		.loc 7 98 0
 1571 009c 7FE3FB78 		mr 3,31
 1572 00a0 48000001 		bl _ZdlPv
 1573              	.LVL118:
 1574              	.LBE1348:
 1575              	.LBE1347:
 1576              	.LBE1346:
 1577              	.LBE1345:
 1578              	.LBE1344:
 1579              	.LBE1343:
 1580              	.LBE1342:
 1581              	.LBE1339:
 1582              		.loc 1 996 0
 1583 00a4 7F9DF000 		cmpw 7,29,30
 1584 00a8 409EFFAC 		bne+ 7,.L95
 1585              	.LVL119:
 1586              	.L86:
 1587              	.LBB1349:
 1588              	.LBB1350:
 1589              	.LBB1351:
 1590              		.loc 1 343 0
 1591 00ac 813B0000 		lwz 9,0(27)
 1592 00b0 7F63DB78 		mr 3,27
 1593 00b4 8009000C 		lwz 0,12(9)
 1594 00b8 7C0903A6 		mtctr 0
 1595              	.LEHB6:
 1596 00bc 4E800421 		bctrl
 1597              	.LEHE6:
 1598              	.LBE1351:
 1599              	.LBE1350:
 1600              	.LBE1349:
 1601              	.LBE1356:
 1602              		.loc 1 1010 0
 1603 00c0 80010024 		lwz 0,36(1)
 1604 00c4 8361000C 		lwz 27,12(1)
 1605              	.LVL120:
 1606 00c8 7C0803A6 		mtlr 0
 1607 00cc 83810010 		lwz 28,16(1)
 1608              	.LVL121:
 1609 00d0 83A10014 		lwz 29,20(1)
 1610              	.LVL122:
 1611 00d4 83C10018 		lwz 30,24(1)
 1612 00d8 83E1001C 		lwz 31,28(1)
 1613 00dc 38210020 		addi 1,1,32
 1614              		.cfi_remember_state
 1615              	.LCFI26:
 1616              		.cfi_def_cfa_offset 0
 1617              		.cfi_restore 31
 1618              		.cfi_restore 30
 1619              		.cfi_restore 29
 1620              		.cfi_restore 28
 1621              		.cfi_restore 27
 1622 00e0 4E800020 		blr
 1623              	.LVL123:
 1624              	.L96:
 1625              	.LCFI27:
 1626              		.cfi_restore_state
 1627              	.LBB1357:
 1628              	.LBB1352:
 1629              	.LBB1353:
 1630              	.LBB1354:
 1631              		.loc 1 343 0
 1632 00e4 813B0000 		lwz 9,0(27)
 1633 00e8 7C7F1B78 		mr 31,3
 1634              	.LVL124:
 1635 00ec 7F63DB78 		mr 3,27
 1636 00f0 8009000C 		lwz 0,12(9)
 1637 00f4 7C0903A6 		mtctr 0
 1638 00f8 4E800421 		bctrl
 1639 00fc 7FE3FB78 		mr 3,31
 1640              	.LEHB7:
 1641 0100 48000001 		bl _Unwind_Resume
 1642              	.LEHE7:
 1643              	.LBE1354:
 1644              	.LBE1353:
 1645              	.LBE1352:
 1646              	.LBE1357:
 1647              		.cfi_endproc
 1648              	.LFE1716:
 1649              		.section	.gcc_except_table
 1650              	.LLSDA1716:
 1651 0017 FF       		.byte	0xff
 1652 0018 FF       		.byte	0xff
 1653 0019 01       		.byte	0x1
 1654 001a 13       		.uleb128 .LLSDACSE1716-.LLSDACSB1716
 1655              	.LLSDACSB1716:
 1656 001b 38       		.uleb128 .LEHB4-.LFB1716
 1657 001c 04       		.uleb128 .LEHE4-.LEHB4
 1658 001d 00       		.uleb128 0
 1659 001e 00       		.uleb128 0
 1660 001f 6C       		.uleb128 .LEHB5-.LFB1716
 1661 0020 28       		.uleb128 .LEHE5-.LEHB5
 1662 0021 E401     		.uleb128 .L96-.LFB1716
 1663 0023 00       		.uleb128 0
 1664 0024 BC01     		.uleb128 .LEHB6-.LFB1716
 1665 0026 04       		.uleb128 .LEHE6-.LEHB6
 1666 0027 00       		.uleb128 0
 1667 0028 00       		.uleb128 0
 1668 0029 8002     		.uleb128 .LEHB7-.LFB1716
 1669 002b 04       		.uleb128 .LEHE7-.LEHB7
 1670 002c 00       		.uleb128 0
 1671 002d 00       		.uleb128 0
 1672              	.LLSDACSE1716:
 1673              		.section	.text._ZN7sigslot13_signal_base3IP10GuiElementiiNS_15single_threadedEE15slot_disconnectEP
 1674              		.size	_ZN7sigslot13_signal_base3IP10GuiElementiiNS_15single_threadedEE15slot_disconnectEPNS_9has_s
 1675              		.section	.text._ZN7sigslot13_signal_base2IP10GuiElementbNS_15single_threadedEE15slot_disconnectEPN
 1676              		.align 2
 1677              		.weak	_ZN7sigslot13_signal_base2IP10GuiElementbNS_15single_threadedEE15slot_disconnectEPNS_9has_sl
 1678              		.type	_ZN7sigslot13_signal_base2IP10GuiElementbNS_15single_threadedEE15slot_disconnectEPNS_9has_sl
 1679              	_ZN7sigslot13_signal_base2IP10GuiElementbNS_15single_threadedEE15slot_disconnectEPNS_9has_slotsIS3_
 1680              	.LFB1718:
 1681              		.loc 1 870 0
 1682              		.cfi_startproc
 1683              		.cfi_personality 0,__gxx_personality_v0
 1684              		.cfi_lsda 0,.LLSDA1718
 1685              	.LVL125:
 1686 0000 7C0802A6 		mflr 0
 1687 0004 9421FFE0 		stwu 1,-32(1)
 1688              	.LCFI28:
 1689              		.cfi_def_cfa_offset 32
 1690              		.cfi_register 65, 0
 1691 0008 9361000C 		stw 27,12(1)
 1692 000c 7C7B1B78 		mr 27,3
 1693              		.cfi_offset 27, -20
 1694              	.LVL126:
 1695 0010 90010024 		stw 0,36(1)
 1696 0014 93810010 		stw 28,16(1)
 1697 0018 7C9C2378 		mr 28,4
 1698              		.cfi_offset 28, -16
 1699              		.cfi_offset 65, 4
 1700              	.LBB1358:
 1701              	.LBB1359:
 1702              	.LBB1360:
 1703              		.loc 1 338 0
 1704 001c 81230000 		lwz 9,0(3)
 1705              	.LBE1360:
 1706              	.LBE1359:
 1707              	.LBE1358:
 1708              		.loc 1 870 0
 1709 0020 93A10014 		stw 29,20(1)
 1710              	.LBB1381:
 1711              	.LBB1363:
 1712              	.LBB1361:
 1713              		.loc 3 56 0
 1714 0024 7F7DDB78 		mr 29,27
 1715              		.cfi_offset 29, -12
 1716              		.loc 1 338 0
 1717 0028 80090008 		lwz 0,8(9)
 1718              	.LBE1361:
 1719              	.LBE1363:
 1720              	.LBE1381:
 1721              		.loc 1 870 0
 1722 002c 93E1001C 		stw 31,28(1)
 1723 0030 93C10018 		stw 30,24(1)
 1724              	.LBB1382:
 1725              	.LBB1364:
 1726              	.LBB1362:
 1727              		.loc 1 338 0
 1728 0034 7C0903A6 		mtctr 0
 1729              	.LEHB8:
 1730              		.cfi_offset 30, -8
 1731              		.cfi_offset 31, -4
 1732 0038 4E800421 		bctrl
 1733              	.LEHE8:
 1734              	.LVL127:
 1735              		.loc 3 56 0
 1736 003c 87FD0004 		lwzu 31,4(29)
 1737              	.LVL128:
 1738              	.LBE1362:
 1739              	.LBE1364:
 1740              		.loc 1 876 0
 1741 0040 7F9FE800 		cmpw 7,31,29
 1742 0044 40BE0014 		bne+ 7,.L110
 1743 0048 48000064 		b .L99
 1744              	.LVL129:
 1745              	.L100:
 1746              		.loc 1 876 0 is_stmt 0 discriminator 1
 1747 004c 7F9DF000 		cmpw 7,29,30
 1748 0050 419E005C 		beq- 7,.L99
 1749              	.L108:
 1750              		.loc 1 876 0
 1751 0054 7FDFF378 		mr 31,30
 1752              	.LVL130:
 1753              	.L110:
 1754              	.LBB1365:
 1755              		.loc 1 881 0 is_stmt 1
 1756 0058 807F0008 		lwz 3,8(31)
 1757              	.LBB1366:
 1758              	.LBB1367:
 1759              		.loc 4 154 0
 1760 005c 83DF0000 		lwz 30,0(31)
 1761              	.LVL131:
 1762              	.LBE1367:
 1763              	.LBE1366:
 1764              		.loc 1 881 0
 1765 0060 81230000 		lwz 9,0(3)
 1766 0064 80090008 		lwz 0,8(9)
 1767 0068 7C0903A6 		mtctr 0
 1768              	.LEHB9:
 1769 006c 4E800421 		bctrl
 1770              	.LVL132:
 1771 0070 7F9C1800 		cmpw 7,28,3
 1772 0074 409EFFD8 		bne+ 7,.L100
 1773              	.LVL133:
 1774              		.loc 1 883 0
 1775 0078 807F0008 		lwz 3,8(31)
 1776 007c 2F830000 		cmpwi 7,3,0
 1777 0080 419E0014 		beq- 7,.L101
 1778              		.loc 1 883 0 is_stmt 0 discriminator 1
 1779 0084 81230000 		lwz 9,0(3)
 1780 0088 80090004 		lwz 0,4(9)
 1781 008c 7C0903A6 		mtctr 0
 1782 0090 4E800421 		bctrl
 1783              	.LEHE9:
 1784              	.L101:
 1785              	.LVL134:
 1786              	.LBB1368:
 1787              	.LBB1369:
 1788              	.LBB1370:
 1789              	.LBB1371:
 1790              		.loc 4 1532 0 is_stmt 1
 1791 0094 7FE3FB78 		mr 3,31
 1792 0098 48000001 		bl _ZNSt8__detail15_List_node_base9_M_unhookEv
 1793              	.LVL135:
 1794              	.LBB1372:
 1795              	.LBB1373:
 1796              	.LBB1374:
 1797              		.loc 7 98 0
 1798 009c 7FE3FB78 		mr 3,31
 1799 00a0 48000001 		bl _ZdlPv
 1800              	.LVL136:
 1801              	.LBE1374:
 1802              	.LBE1373:
 1803              	.LBE1372:
 1804              	.LBE1371:
 1805              	.LBE1370:
 1806              	.LBE1369:
 1807              	.LBE1368:
 1808              	.LBE1365:
 1809              		.loc 1 876 0
 1810 00a4 7F9DF000 		cmpw 7,29,30
 1811 00a8 409EFFAC 		bne+ 7,.L108
 1812              	.LVL137:
 1813              	.L99:
 1814              	.LBB1375:
 1815              	.LBB1376:
 1816              	.LBB1377:
 1817              		.loc 1 343 0
 1818 00ac 813B0000 		lwz 9,0(27)
 1819 00b0 7F63DB78 		mr 3,27
 1820 00b4 8009000C 		lwz 0,12(9)
 1821 00b8 7C0903A6 		mtctr 0
 1822              	.LEHB10:
 1823 00bc 4E800421 		bctrl
 1824              	.LEHE10:
 1825              	.LBE1377:
 1826              	.LBE1376:
 1827              	.LBE1375:
 1828              	.LBE1382:
 1829              		.loc 1 890 0
 1830 00c0 80010024 		lwz 0,36(1)
 1831 00c4 8361000C 		lwz 27,12(1)
 1832              	.LVL138:
 1833 00c8 7C0803A6 		mtlr 0
 1834 00cc 83810010 		lwz 28,16(1)
 1835              	.LVL139:
 1836 00d0 83A10014 		lwz 29,20(1)
 1837              	.LVL140:
 1838 00d4 83C10018 		lwz 30,24(1)
 1839 00d8 83E1001C 		lwz 31,28(1)
 1840 00dc 38210020 		addi 1,1,32
 1841              		.cfi_remember_state
 1842              	.LCFI29:
 1843              		.cfi_def_cfa_offset 0
 1844              		.cfi_restore 31
 1845              		.cfi_restore 30
 1846              		.cfi_restore 29
 1847              		.cfi_restore 28
 1848              		.cfi_restore 27
 1849 00e0 4E800020 		blr
 1850              	.LVL141:
 1851              	.L109:
 1852              	.LCFI30:
 1853              		.cfi_restore_state
 1854              	.LBB1383:
 1855              	.LBB1378:
 1856              	.LBB1379:
 1857              	.LBB1380:
 1858              		.loc 1 343 0
 1859 00e4 813B0000 		lwz 9,0(27)
 1860 00e8 7C7F1B78 		mr 31,3
 1861              	.LVL142:
 1862 00ec 7F63DB78 		mr 3,27
 1863 00f0 8009000C 		lwz 0,12(9)
 1864 00f4 7C0903A6 		mtctr 0
 1865 00f8 4E800421 		bctrl
 1866 00fc 7FE3FB78 		mr 3,31
 1867              	.LEHB11:
 1868 0100 48000001 		bl _Unwind_Resume
 1869              	.LEHE11:
 1870              	.LBE1380:
 1871              	.LBE1379:
 1872              	.LBE1378:
 1873              	.LBE1383:
 1874              		.cfi_endproc
 1875              	.LFE1718:
 1876              		.section	.gcc_except_table
 1877              	.LLSDA1718:
 1878 002e FF       		.byte	0xff
 1879 002f FF       		.byte	0xff
 1880 0030 01       		.byte	0x1
 1881 0031 13       		.uleb128 .LLSDACSE1718-.LLSDACSB1718
 1882              	.LLSDACSB1718:
 1883 0032 38       		.uleb128 .LEHB8-.LFB1718
 1884 0033 04       		.uleb128 .LEHE8-.LEHB8
 1885 0034 00       		.uleb128 0
 1886 0035 00       		.uleb128 0
 1887 0036 6C       		.uleb128 .LEHB9-.LFB1718
 1888 0037 28       		.uleb128 .LEHE9-.LEHB9
 1889 0038 E401     		.uleb128 .L109-.LFB1718
 1890 003a 00       		.uleb128 0
 1891 003b BC01     		.uleb128 .LEHB10-.LFB1718
 1892 003d 04       		.uleb128 .LEHE10-.LEHB10
 1893 003e 00       		.uleb128 0
 1894 003f 00       		.uleb128 0
 1895 0040 8002     		.uleb128 .LEHB11-.LFB1718
 1896 0042 04       		.uleb128 .LEHE11-.LEHB11
 1897 0043 00       		.uleb128 0
 1898 0044 00       		.uleb128 0
 1899              	.LLSDACSE1718:
 1900              		.section	.text._ZN7sigslot13_signal_base2IP10GuiElementbNS_15single_threadedEE15slot_disconnectEPN
 1901              		.size	_ZN7sigslot13_signal_base2IP10GuiElementbNS_15single_threadedEE15slot_disconnectEPNS_9has_sl
 1902              		.section	.text._ZN7sigslot13_signal_base3IP10GuiElementiiNS_15single_threadedEE14slot_duplicateEPK
 1903              		.align 2
 1904              		.weak	_ZN7sigslot13_signal_base3IP10GuiElementiiNS_15single_threadedEE14slot_duplicateEPKNS_9has_s
 1905              		.type	_ZN7sigslot13_signal_base3IP10GuiElementiiNS_15single_threadedEE14slot_duplicateEPKNS_9has_s
 1906              	_ZN7sigslot13_signal_base3IP10GuiElementiiNS_15single_threadedEE14slot_duplicateEPKNS_9has_slotsIS3
 1907              	.LFB1717:
 1908              		.loc 1 926 0
 1909              		.cfi_startproc
 1910              		.cfi_personality 0,__gxx_personality_v0
 1911              		.cfi_lsda 0,.LLSDA1717
 1912              	.LVL143:
 1913 0000 7C0802A6 		mflr 0
 1914 0004 9421FFE0 		stwu 1,-32(1)
 1915              	.LCFI31:
 1916              		.cfi_def_cfa_offset 32
 1917              		.cfi_register 65, 0
 1918 0008 93410008 		stw 26,8(1)
 1919 000c 7CBA2B78 		mr 26,5
 1920              		.cfi_offset 26, -24
 1921 0010 90010024 		stw 0,36(1)
 1922 0014 9361000C 		stw 27,12(1)
 1923 0018 7C7B1B78 		mr 27,3
 1924              		.cfi_offset 27, -20
 1925              		.cfi_offset 65, 4
 1926              	.LVL144:
 1927              	.LBB1384:
 1928              	.LBB1385:
 1929              	.LBB1386:
 1930              		.loc 1 338 0
 1931 001c 81230000 		lwz 9,0(3)
 1932              	.LBE1386:
 1933              	.LBE1385:
 1934              	.LBE1384:
 1935              		.loc 1 926 0
 1936 0020 93A10014 		stw 29,20(1)
 1937 0024 7C9D2378 		mr 29,4
 1938              		.cfi_offset 29, -12
 1939              	.LBB1415:
 1940              	.LBB1391:
 1941              	.LBB1387:
 1942              		.loc 1 338 0
 1943 0028 80090008 		lwz 0,8(9)
 1944              	.LBE1387:
 1945              	.LBE1391:
 1946              	.LBE1415:
 1947              		.loc 1 926 0
 1948 002c 93C10018 		stw 30,24(1)
 1949              	.LBB1416:
 1950              	.LBB1392:
 1951              	.LBB1388:
 1952              		.loc 3 56 0
 1953 0030 7F7EDB78 		mr 30,27
 1954              		.cfi_offset 30, -8
 1955              	.LBE1388:
 1956              	.LBE1392:
 1957              	.LBE1416:
 1958              		.loc 1 926 0
 1959 0034 93E1001C 		stw 31,28(1)
 1960              	.LBB1417:
 1961              	.LBB1393:
 1962              	.LBB1389:
 1963              		.loc 1 338 0
 1964 0038 7C0903A6 		mtctr 0
 1965              	.LBE1389:
 1966              	.LBE1393:
 1967              	.LBE1417:
 1968              		.loc 1 926 0
 1969 003c 93810010 		stw 28,16(1)
 1970              	.LEHB12:
 1971              	.LBB1418:
 1972              	.LBB1394:
 1973              	.LBB1390:
 1974              		.loc 1 338 0
 1975              		.cfi_offset 28, -16
 1976              		.cfi_offset 31, -4
 1977 0040 4E800421 		bctrl
 1978              	.LEHE12:
 1979              	.LVL145:
 1980              		.loc 3 56 0
 1981 0044 87FE0004 		lwzu 31,4(30)
 1982              	.LVL146:
 1983              	.LBE1390:
 1984              	.LBE1394:
 1985              		.loc 1 932 0
 1986 0048 7F9FF000 		cmpw 7,31,30
 1987 004c 40BE0014 		bne+ 7,.L121
 1988 0050 48000070 		b .L112
 1989              	.LVL147:
 1990              	.L113:
 1991              	.LBB1395:
 1992              	.LBB1396:
 1993              		.loc 4 154 0
 1994 0054 83FF0000 		lwz 31,0(31)
 1995              	.LVL148:
 1996              	.LBE1396:
 1997              	.LBE1395:
 1998              		.loc 1 932 0
 1999 0058 7F9EF800 		cmpw 7,30,31
 2000 005c 419E0064 		beq- 7,.L112
 2001              	.LVL149:
 2002              	.L121:
 2003              		.loc 1 934 0
 2004 0060 807F0008 		lwz 3,8(31)
 2005 0064 81230000 		lwz 9,0(3)
 2006 0068 80090008 		lwz 0,8(9)
 2007 006c 7C0903A6 		mtctr 0
 2008              	.LEHB13:
 2009 0070 4E800421 		bctrl
 2010 0074 7F9D1800 		cmpw 7,29,3
 2011 0078 409EFFDC 		bne+ 7,.L113
 2012              	.LVL150:
 2013              		.loc 1 936 0
 2014 007c 807F0008 		lwz 3,8(31)
 2015 0080 7F44D378 		mr 4,26
 2016 0084 81230000 		lwz 9,0(3)
 2017 0088 80090014 		lwz 0,20(9)
 2018 008c 7C0903A6 		mtctr 0
 2019 0090 4E800421 		bctrl
 2020 0094 7C7C1B78 		mr 28,3
 2021              	.LVL151:
 2022              	.LBB1398:
 2023              	.LBB1399:
 2024              	.LBB1400:
 2025              	.LBB1401:
 2026              	.LBB1402:
 2027              	.LBB1403:
 2028              	.LBB1404:
 2029              	.LBB1405:
 2030              		.loc 7 92 0
 2031 0098 3860000C 		li 3,12
 2032 009c 48000001 		bl _Znwj
 2033              	.LEHE13:
 2034              	.LVL152:
 2035              	.LBE1405:
 2036              	.LBE1404:
 2037              	.LBE1403:
 2038              	.LBB1406:
 2039              	.LBB1407:
 2040              		.loc 7 108 0 discriminator 1
 2041 00a0 2F83FFF8 		cmpwi 7,3,-8
 2042 00a4 419E0008 		beq- 7,.L115
 2043              		.loc 7 108 0 is_stmt 0
 2044 00a8 93830008 		stw 28,8(3)
 2045              	.L115:
 2046              	.LVL153:
 2047              	.LBE1407:
 2048              	.LBE1406:
 2049              	.LBE1402:
 2050              	.LBE1401:
 2051              		.loc 4 1516 0 is_stmt 1
 2052 00ac 7FC4F378 		mr 4,30
 2053 00b0 48000001 		bl _ZNSt8__detail15_List_node_base7_M_hookEPS0_
 2054              	.LVL154:
 2055              	.LBE1400:
 2056              	.LBE1399:
 2057              	.LBE1398:
 2058              	.LBB1408:
 2059              	.LBB1397:
 2060              		.loc 4 154 0
 2061 00b4 83FF0000 		lwz 31,0(31)
 2062              	.LVL155:
 2063              	.LBE1397:
 2064              	.LBE1408:
 2065              		.loc 1 932 0
 2066 00b8 7F9EF800 		cmpw 7,30,31
 2067 00bc 409EFFA4 		bne+ 7,.L121
 2068              	.LVL156:
 2069              	.L112:
 2070              	.LBB1409:
 2071              	.LBB1410:
 2072              	.LBB1411:
 2073              		.loc 1 343 0
 2074 00c0 813B0000 		lwz 9,0(27)
 2075 00c4 7F63DB78 		mr 3,27
 2076 00c8 8009000C 		lwz 0,12(9)
 2077 00cc 7C0903A6 		mtctr 0
 2078              	.LEHB14:
 2079 00d0 4E800421 		bctrl
 2080              	.LEHE14:
 2081              	.LBE1411:
 2082              	.LBE1410:
 2083              	.LBE1409:
 2084              	.LBE1418:
 2085              		.loc 1 941 0
 2086 00d4 80010024 		lwz 0,36(1)
 2087 00d8 83410008 		lwz 26,8(1)
 2088              	.LVL157:
 2089 00dc 7C0803A6 		mtlr 0
 2090 00e0 8361000C 		lwz 27,12(1)
 2091              	.LVL158:
 2092 00e4 83810010 		lwz 28,16(1)
 2093 00e8 83A10014 		lwz 29,20(1)
 2094              	.LVL159:
 2095 00ec 83C10018 		lwz 30,24(1)
 2096              	.LVL160:
 2097 00f0 83E1001C 		lwz 31,28(1)
 2098              	.LVL161:
 2099 00f4 38210020 		addi 1,1,32
 2100              		.cfi_remember_state
 2101              	.LCFI32:
 2102              		.cfi_def_cfa_offset 0
 2103              		.cfi_restore 31
 2104              		.cfi_restore 30
 2105              		.cfi_restore 29
 2106              		.cfi_restore 28
 2107              		.cfi_restore 27
 2108              		.cfi_restore 26
 2109 00f8 4E800020 		blr
 2110              	.LVL162:
 2111              	.L120:
 2112              	.LCFI33:
 2113              		.cfi_restore_state
 2114              	.LBB1419:
 2115              	.LBB1412:
 2116              	.LBB1413:
 2117              	.LBB1414:
 2118              		.loc 1 343 0
 2119 00fc 813B0000 		lwz 9,0(27)
 2120 0100 7C7F1B78 		mr 31,3
 2121              	.LVL163:
 2122 0104 7F63DB78 		mr 3,27
 2123 0108 8009000C 		lwz 0,12(9)
 2124 010c 7C0903A6 		mtctr 0
 2125 0110 4E800421 		bctrl
 2126 0114 7FE3FB78 		mr 3,31
 2127              	.LEHB15:
 2128 0118 48000001 		bl _Unwind_Resume
 2129              	.LEHE15:
 2130              	.LBE1414:
 2131              	.LBE1413:
 2132              	.LBE1412:
 2133              	.LBE1419:
 2134              		.cfi_endproc
 2135              	.LFE1717:
 2136              		.section	.gcc_except_table
 2137              	.LLSDA1717:
 2138 0045 FF       		.byte	0xff
 2139 0046 FF       		.byte	0xff
 2140 0047 01       		.byte	0x1
 2141 0048 13       		.uleb128 .LLSDACSE1717-.LLSDACSB1717
 2142              	.LLSDACSB1717:
 2143 0049 40       		.uleb128 .LEHB12-.LFB1717
 2144 004a 04       		.uleb128 .LEHE12-.LEHB12
 2145 004b 00       		.uleb128 0
 2146 004c 00       		.uleb128 0
 2147 004d 70       		.uleb128 .LEHB13-.LFB1717
 2148 004e 30       		.uleb128 .LEHE13-.LEHB13
 2149 004f FC01     		.uleb128 .L120-.LFB1717
 2150 0051 00       		.uleb128 0
 2151 0052 D001     		.uleb128 .LEHB14-.LFB1717
 2152 0054 04       		.uleb128 .LEHE14-.LEHB14
 2153 0055 00       		.uleb128 0
 2154 0056 00       		.uleb128 0
 2155 0057 9802     		.uleb128 .LEHB15-.LFB1717
 2156 0059 04       		.uleb128 .LEHE15-.LEHB15
 2157 005a 00       		.uleb128 0
 2158 005b 00       		.uleb128 0
 2159              	.LLSDACSE1717:
 2160              		.section	.text._ZN7sigslot13_signal_base3IP10GuiElementiiNS_15single_threadedEE14slot_duplicateEPK
 2161              		.size	_ZN7sigslot13_signal_base3IP10GuiElementiiNS_15single_threadedEE14slot_duplicateEPKNS_9has_s
 2162              		.section	.text._ZN7sigslot13_signal_base2IP10GuiElementbNS_15single_threadedEE14slot_duplicateEPKN
 2163              		.align 2
 2164              		.weak	_ZN7sigslot13_signal_base2IP10GuiElementbNS_15single_threadedEE14slot_duplicateEPKNS_9has_sl
 2165              		.type	_ZN7sigslot13_signal_base2IP10GuiElementbNS_15single_threadedEE14slot_duplicateEPKNS_9has_sl
 2166              	_ZN7sigslot13_signal_base2IP10GuiElementbNS_15single_threadedEE14slot_duplicateEPKNS_9has_slotsIS3_
 2167              	.LFB1719:
 2168              		.loc 1 806 0
 2169              		.cfi_startproc
 2170              		.cfi_personality 0,__gxx_personality_v0
 2171              		.cfi_lsda 0,.LLSDA1719
 2172              	.LVL164:
 2173 0000 7C0802A6 		mflr 0
 2174 0004 9421FFE0 		stwu 1,-32(1)
 2175              	.LCFI34:
 2176              		.cfi_def_cfa_offset 32
 2177              		.cfi_register 65, 0
 2178 0008 93410008 		stw 26,8(1)
 2179 000c 7CBA2B78 		mr 26,5
 2180              		.cfi_offset 26, -24
 2181 0010 90010024 		stw 0,36(1)
 2182 0014 9361000C 		stw 27,12(1)
 2183 0018 7C7B1B78 		mr 27,3
 2184              		.cfi_offset 27, -20
 2185              		.cfi_offset 65, 4
 2186              	.LVL165:
 2187              	.LBB1420:
 2188              	.LBB1421:
 2189              	.LBB1422:
 2190              		.loc 1 338 0
 2191 001c 81230000 		lwz 9,0(3)
 2192              	.LBE1422:
 2193              	.LBE1421:
 2194              	.LBE1420:
 2195              		.loc 1 806 0
 2196 0020 93A10014 		stw 29,20(1)
 2197 0024 7C9D2378 		mr 29,4
 2198              		.cfi_offset 29, -12
 2199              	.LBB1451:
 2200              	.LBB1427:
 2201              	.LBB1423:
 2202              		.loc 1 338 0
 2203 0028 80090008 		lwz 0,8(9)
 2204              	.LBE1423:
 2205              	.LBE1427:
 2206              	.LBE1451:
 2207              		.loc 1 806 0
 2208 002c 93C10018 		stw 30,24(1)
 2209              	.LBB1452:
 2210              	.LBB1428:
 2211              	.LBB1424:
 2212              		.loc 3 56 0
 2213 0030 7F7EDB78 		mr 30,27
 2214              		.cfi_offset 30, -8
 2215              	.LBE1424:
 2216              	.LBE1428:
 2217              	.LBE1452:
 2218              		.loc 1 806 0
 2219 0034 93E1001C 		stw 31,28(1)
 2220              	.LBB1453:
 2221              	.LBB1429:
 2222              	.LBB1425:
 2223              		.loc 1 338 0
 2224 0038 7C0903A6 		mtctr 0
 2225              	.LBE1425:
 2226              	.LBE1429:
 2227              	.LBE1453:
 2228              		.loc 1 806 0
 2229 003c 93810010 		stw 28,16(1)
 2230              	.LEHB16:
 2231              	.LBB1454:
 2232              	.LBB1430:
 2233              	.LBB1426:
 2234              		.loc 1 338 0
 2235              		.cfi_offset 28, -16
 2236              		.cfi_offset 31, -4
 2237 0040 4E800421 		bctrl
 2238              	.LEHE16:
 2239              	.LVL166:
 2240              		.loc 3 56 0
 2241 0044 87FE0004 		lwzu 31,4(30)
 2242              	.LVL167:
 2243              	.LBE1426:
 2244              	.LBE1430:
 2245              		.loc 1 812 0
 2246 0048 7F9FF000 		cmpw 7,31,30
 2247 004c 40BE0014 		bne+ 7,.L133
 2248 0050 48000070 		b .L124
 2249              	.LVL168:
 2250              	.L125:
 2251              	.LBB1431:
 2252              	.LBB1432:
 2253              		.loc 4 154 0
 2254 0054 83FF0000 		lwz 31,0(31)
 2255              	.LVL169:
 2256              	.LBE1432:
 2257              	.LBE1431:
 2258              		.loc 1 812 0
 2259 0058 7F9EF800 		cmpw 7,30,31
 2260 005c 419E0064 		beq- 7,.L124
 2261              	.LVL170:
 2262              	.L133:
 2263              		.loc 1 814 0
 2264 0060 807F0008 		lwz 3,8(31)
 2265 0064 81230000 		lwz 9,0(3)
 2266 0068 80090008 		lwz 0,8(9)
 2267 006c 7C0903A6 		mtctr 0
 2268              	.LEHB17:
 2269 0070 4E800421 		bctrl
 2270 0074 7F9D1800 		cmpw 7,29,3
 2271 0078 409EFFDC 		bne+ 7,.L125
 2272              	.LVL171:
 2273              		.loc 1 816 0
 2274 007c 807F0008 		lwz 3,8(31)
 2275 0080 7F44D378 		mr 4,26
 2276 0084 81230000 		lwz 9,0(3)
 2277 0088 80090014 		lwz 0,20(9)
 2278 008c 7C0903A6 		mtctr 0
 2279 0090 4E800421 		bctrl
 2280 0094 7C7C1B78 		mr 28,3
 2281              	.LVL172:
 2282              	.LBB1434:
 2283              	.LBB1435:
 2284              	.LBB1436:
 2285              	.LBB1437:
 2286              	.LBB1438:
 2287              	.LBB1439:
 2288              	.LBB1440:
 2289              	.LBB1441:
 2290              		.loc 7 92 0
 2291 0098 3860000C 		li 3,12
 2292 009c 48000001 		bl _Znwj
 2293              	.LEHE17:
 2294              	.LVL173:
 2295              	.LBE1441:
 2296              	.LBE1440:
 2297              	.LBE1439:
 2298              	.LBB1442:
 2299              	.LBB1443:
 2300              		.loc 7 108 0 discriminator 1
 2301 00a0 2F83FFF8 		cmpwi 7,3,-8
 2302 00a4 419E0008 		beq- 7,.L127
 2303              		.loc 7 108 0 is_stmt 0
 2304 00a8 93830008 		stw 28,8(3)
 2305              	.L127:
 2306              	.LVL174:
 2307              	.LBE1443:
 2308              	.LBE1442:
 2309              	.LBE1438:
 2310              	.LBE1437:
 2311              		.loc 4 1516 0 is_stmt 1
 2312 00ac 7FC4F378 		mr 4,30
 2313 00b0 48000001 		bl _ZNSt8__detail15_List_node_base7_M_hookEPS0_
 2314              	.LVL175:
 2315              	.LBE1436:
 2316              	.LBE1435:
 2317              	.LBE1434:
 2318              	.LBB1444:
 2319              	.LBB1433:
 2320              		.loc 4 154 0
 2321 00b4 83FF0000 		lwz 31,0(31)
 2322              	.LVL176:
 2323              	.LBE1433:
 2324              	.LBE1444:
 2325              		.loc 1 812 0
 2326 00b8 7F9EF800 		cmpw 7,30,31
 2327 00bc 409EFFA4 		bne+ 7,.L133
 2328              	.LVL177:
 2329              	.L124:
 2330              	.LBB1445:
 2331              	.LBB1446:
 2332              	.LBB1447:
 2333              		.loc 1 343 0
 2334 00c0 813B0000 		lwz 9,0(27)
 2335 00c4 7F63DB78 		mr 3,27
 2336 00c8 8009000C 		lwz 0,12(9)
 2337 00cc 7C0903A6 		mtctr 0
 2338              	.LEHB18:
 2339 00d0 4E800421 		bctrl
 2340              	.LEHE18:
 2341              	.LBE1447:
 2342              	.LBE1446:
 2343              	.LBE1445:
 2344              	.LBE1454:
 2345              		.loc 1 821 0
 2346 00d4 80010024 		lwz 0,36(1)
 2347 00d8 83410008 		lwz 26,8(1)
 2348              	.LVL178:
 2349 00dc 7C0803A6 		mtlr 0
 2350 00e0 8361000C 		lwz 27,12(1)
 2351              	.LVL179:
 2352 00e4 83810010 		lwz 28,16(1)
 2353 00e8 83A10014 		lwz 29,20(1)
 2354              	.LVL180:
 2355 00ec 83C10018 		lwz 30,24(1)
 2356              	.LVL181:
 2357 00f0 83E1001C 		lwz 31,28(1)
 2358              	.LVL182:
 2359 00f4 38210020 		addi 1,1,32
 2360              		.cfi_remember_state
 2361              	.LCFI35:
 2362              		.cfi_def_cfa_offset 0
 2363              		.cfi_restore 31
 2364              		.cfi_restore 30
 2365              		.cfi_restore 29
 2366              		.cfi_restore 28
 2367              		.cfi_restore 27
 2368              		.cfi_restore 26
 2369 00f8 4E800020 		blr
 2370              	.LVL183:
 2371              	.L132:
 2372              	.LCFI36:
 2373              		.cfi_restore_state
 2374              	.LBB1455:
 2375              	.LBB1448:
 2376              	.LBB1449:
 2377              	.LBB1450:
 2378              		.loc 1 343 0
 2379 00fc 813B0000 		lwz 9,0(27)
 2380 0100 7C7F1B78 		mr 31,3
 2381              	.LVL184:
 2382 0104 7F63DB78 		mr 3,27
 2383 0108 8009000C 		lwz 0,12(9)
 2384 010c 7C0903A6 		mtctr 0
 2385 0110 4E800421 		bctrl
 2386 0114 7FE3FB78 		mr 3,31
 2387              	.LEHB19:
 2388 0118 48000001 		bl _Unwind_Resume
 2389              	.LEHE19:
 2390              	.LBE1450:
 2391              	.LBE1449:
 2392              	.LBE1448:
 2393              	.LBE1455:
 2394              		.cfi_endproc
 2395              	.LFE1719:
 2396              		.section	.gcc_except_table
 2397              	.LLSDA1719:
 2398 005c FF       		.byte	0xff
 2399 005d FF       		.byte	0xff
 2400 005e 01       		.byte	0x1
 2401 005f 13       		.uleb128 .LLSDACSE1719-.LLSDACSB1719
 2402              	.LLSDACSB1719:
 2403 0060 40       		.uleb128 .LEHB16-.LFB1719
 2404 0061 04       		.uleb128 .LEHE16-.LEHB16
 2405 0062 00       		.uleb128 0
 2406 0063 00       		.uleb128 0
 2407 0064 70       		.uleb128 .LEHB17-.LFB1719
 2408 0065 30       		.uleb128 .LEHE17-.LEHB17
 2409 0066 FC01     		.uleb128 .L132-.LFB1719
 2410 0068 00       		.uleb128 0
 2411 0069 D001     		.uleb128 .LEHB18-.LFB1719
 2412 006b 04       		.uleb128 .LEHE18-.LEHB18
 2413 006c 00       		.uleb128 0
 2414 006d 00       		.uleb128 0
 2415 006e 9802     		.uleb128 .LEHB19-.LFB1719
 2416 0070 04       		.uleb128 .LEHE19-.LEHB19
 2417 0071 00       		.uleb128 0
 2418 0072 00       		.uleb128 0
 2419              	.LLSDACSE1719:
 2420              		.section	.text._ZN7sigslot13_signal_base2IP10GuiElementbNS_15single_threadedEE14slot_duplicateEPKN
 2421              		.size	_ZN7sigslot13_signal_base2IP10GuiElementbNS_15single_threadedEE14slot_duplicateEPKNS_9has_sl
 2422              		.section	".text"
 2423              		.align 2
 2424              		.globl _ZN12GuiChecksign4DrawEv
 2425              		.type	_ZN12GuiChecksign4DrawEv, @function
 2426              	_ZN12GuiChecksign4DrawEv:
 2427              	.LFB1473:
 2428              		.loc 3 27 0
 2429              		.cfi_startproc
 2430              	.LVL185:
 2431 0000 9421FF58 		stwu 1,-168(1)
 2432              	.LCFI37:
 2433              		.cfi_def_cfa_offset 168
 2434 0004 7C0802A6 		mflr 0
 2435              	.LBB1456:
 2436              		.loc 3 28 0
 2437 0008 38800004 		li 4,4
 2438              	.LBE1456:
 2439              		.loc 3 27 0
 2440 000c 93E1006C 		stw 31,108(1)
 2441 0010 7C7F1B78 		mr 31,3
 2442              		.cfi_offset 31, -60
 2443              		.cfi_register 65, 0
 2444              	.LBB1477:
 2445              		.loc 3 28 0
 2446 0014 38600000 		li 3,0
 2447              	.LVL186:
 2448              	.LBE1477:
 2449              		.loc 3 27 0
 2450 0018 900100AC 		stw 0,172(1)
 2451 001c DB210070 		stfd 25,112(1)
 2452 0020 DB410078 		stfd 26,120(1)
 2453 0024 DB610080 		stfd 27,128(1)
 2454 0028 DB810088 		stfd 28,136(1)
 2455 002c DBA10090 		stfd 29,144(1)
 2456 0030 DBC10098 		stfd 30,152(1)
 2457 0034 DBE100A0 		stfd 31,160(1)
 2458 0038 93C10068 		stw 30,104(1)
 2459              	.LBB1478:
 2460              		.loc 3 28 0
 2461              		.cfi_offset 30, -64
 2462              		.cfi_offset 63, -8
 2463              		.cfi_offset 62, -16
 2464              		.cfi_offset 61, -24
 2465              		.cfi_offset 60, -32
 2466              		.cfi_offset 59, -40
 2467              		.cfi_offset 58, -48
 2468              		.cfi_offset 57, -56
 2469              		.cfi_offset 65, 4
 2470 003c 48000001 		bl GX_SetTevOp
 2471              		.loc 3 29 0
 2472 0040 38600009 		li 3,9
 2473 0044 38800001 		li 4,1
 2474 0048 48000001 		bl GX_SetVtxDesc
 2475              		.loc 3 30 0
 2476 004c 3860000B 		li 3,11
 2477 0050 38800001 		li 4,1
 2478              		.loc 3 33 0
 2479 0054 3FC04330 		lis 30,0x4330
 2480              		.loc 3 30 0
 2481 0058 48000001 		bl GX_SetVtxDesc
 2482              		.loc 3 31 0
 2483 005c 38800000 		li 4,0
 2484 0060 3860000D 		li 3,13
 2485 0064 48000001 		bl GX_SetVtxDesc
 2486              		.loc 3 33 0
 2487 0068 813F0000 		lwz 9,0(31)
 2488 006c 7FE3FB78 		mr 3,31
 2489 0070 80090010 		lwz 0,16(9)
 2490 0074 7C0903A6 		mtctr 0
 2491 0078 4E800421 		bctrl
 2492 007c 801F0024 		lwz 0,36(31)
 2493 0080 6C638000 		xoris 3,3,0x8000
 2494 0084 93C10008 		stw 30,8(1)
 2495 0088 6C008000 		xoris 0,0,0x8000
 2496 008c 90610014 		stw 3,20(1)
 2497 0090 93C10010 		stw 30,16(1)
 2498 0094 3D200000 		lis 9,.LC1@ha
 2499 0098 9001000C 		stw 0,12(1)
 2500              		.loc 3 34 0
 2501 009c 7FE3FB78 		mr 3,31
 2502              		.loc 3 33 0
 2503 00a0 C3E90000 		lfs 31,.LC1@l(9)
 2504 00a4 CB210008 		lfd 25,8(1)
 2505              		.loc 3 34 0
 2506 00a8 813F0000 		lwz 9,0(31)
 2507              		.loc 3 33 0
 2508 00ac C8010010 		lfd 0,16(1)
 2509 00b0 FF39F828 		fsub 25,25,31
 2510              		.loc 3 34 0
 2511 00b4 80090014 		lwz 0,20(9)
 2512              		.loc 3 33 0
 2513 00b8 3D200000 		lis 9,.LC4@ha
 2514 00bc FC00F828 		fsub 0,0,31
 2515 00c0 C3C9000C 		lfs 30,.LC4@l(9)
 2516              		.loc 3 34 0
 2517 00c4 7C0903A6 		mtctr 0
 2518              		.loc 3 33 0
 2519 00c8 FF20C818 		frsp 25,25
 2520 00cc FC000018 		frsp 0,0
 2521 00d0 EF3907BA 		fmadds 25,25,30,0
 2522              	.LVL187:
 2523              		.loc 3 34 0
 2524 00d4 4E800421 		bctrl
 2525 00d8 801F0028 		lwz 0,40(31)
 2526 00dc 6C638000 		xoris 3,3,0x8000
 2527 00e0 93C10018 		stw 30,24(1)
 2528 00e4 6C008000 		xoris 0,0,0x8000
 2529 00e8 90610024 		stw 3,36(1)
 2530 00ec 93C10020 		stw 30,32(1)
 2531              		.loc 3 35 0
 2532 00f0 7FE3FB78 		mr 3,31
 2533              		.loc 3 34 0
 2534 00f4 9001001C 		stw 0,28(1)
 2535 00f8 C8010020 		lfd 0,32(1)
 2536              		.loc 3 35 0
 2537 00fc 813F0000 		lwz 9,0(31)
 2538              		.loc 3 34 0
 2539 0100 CB410018 		lfd 26,24(1)
 2540 0104 FC00F828 		fsub 0,0,31
 2541              		.loc 3 35 0
 2542 0108 80090010 		lwz 0,16(9)
 2543              		.loc 3 34 0
 2544 010c 3D200000 		lis 9,.LC5@ha
 2545 0110 FF5AF828 		fsub 26,26,31
 2546 0114 C1A90010 		lfs 13,.LC5@l(9)
 2547              		.loc 3 35 0
 2548 0118 7C0903A6 		mtctr 0
 2549              		.loc 3 34 0
 2550 011c FC000018 		frsp 0,0
 2551 0120 FF40D018 		frsp 26,26
 2552 0124 EF5A037A 		fmadds 26,26,13,0
 2553              	.LVL188:
 2554              		.loc 3 35 0
 2555 0128 4E800421 		bctrl
 2556 012c 801F0024 		lwz 0,36(31)
 2557 0130 6C638000 		xoris 3,3,0x8000
 2558 0134 93C10028 		stw 30,40(1)
 2559 0138 6C008000 		xoris 0,0,0x8000
 2560 013c 90610034 		stw 3,52(1)
 2561 0140 93C10030 		stw 30,48(1)
 2562              		.loc 3 36 0
 2563 0144 7FE3FB78 		mr 3,31
 2564              		.loc 3 35 0
 2565 0148 9001002C 		stw 0,44(1)
 2566 014c C8010030 		lfd 0,48(1)
 2567              		.loc 3 36 0
 2568 0150 813F0000 		lwz 9,0(31)
 2569              		.loc 3 35 0
 2570 0154 CB810028 		lfd 28,40(1)
 2571 0158 FC00F828 		fsub 0,0,31
 2572              		.loc 3 36 0
 2573 015c 80090014 		lwz 0,20(9)
 2574              		.loc 3 35 0
 2575 0160 3D200000 		lis 9,.LC6@ha
 2576 0164 FF9CF828 		fsub 28,28,31
 2577 0168 C1A90014 		lfs 13,.LC6@l(9)
 2578              		.loc 3 36 0
 2579 016c 7C0903A6 		mtctr 0
 2580              		.loc 3 35 0
 2581 0170 FC000018 		frsp 0,0
 2582 0174 FF80E018 		frsp 28,28
 2583 0178 EF9C037A 		fmadds 28,28,13,0
 2584              	.LVL189:
 2585              		.loc 3 36 0
 2586 017c 4E800421 		bctrl
 2587 0180 801F0028 		lwz 0,40(31)
 2588 0184 6C638000 		xoris 3,3,0x8000
 2589 0188 93C10038 		stw 30,56(1)
 2590 018c 6C008000 		xoris 0,0,0x8000
 2591 0190 90610044 		stw 3,68(1)
 2592 0194 93C10040 		stw 30,64(1)
 2593              		.loc 3 40 0
 2594 0198 7FE3FB78 		mr 3,31
 2595              		.loc 3 36 0
 2596 019c 9001003C 		stw 0,60(1)
 2597 01a0 C9A10040 		lfd 13,64(1)
 2598 01a4 C8010038 		lfd 0,56(1)
 2599 01a8 FDADF828 		fsub 13,13,31
 2600              		.loc 3 40 0
 2601 01ac 813F0000 		lwz 9,0(31)
 2602              		.loc 3 36 0
 2603 01b0 FC00F828 		fsub 0,0,31
 2604              		.loc 3 40 0
 2605 01b4 80090010 		lwz 0,16(9)
 2606              		.loc 3 36 0
 2607 01b8 FDA06818 		frsp 13,13
 2608 01bc FC000018 		frsp 0,0
 2609              		.loc 3 40 0
 2610 01c0 7C0903A6 		mtctr 0
 2611              		.loc 3 26 0
 2612 01c4 FFA00050 		fneg 29,0
 2613              		.loc 3 36 0
 2614 01c8 EC0D002A 		fadds 0,13,0
 2615 01cc EFBD07BA 		fmadds 29,29,30,0
 2616              	.LVL190:
 2617              		.loc 3 40 0
 2618 01d0 4E800421 		bctrl
 2619 01d4 801F0024 		lwz 0,36(31)
 2620 01d8 6C638000 		xoris 3,3,0x8000
 2621 01dc 93C10048 		stw 30,72(1)
 2622 01e0 6C008000 		xoris 0,0,0x8000
 2623 01e4 90610054 		stw 3,84(1)
 2624 01e8 93C10050 		stw 30,80(1)
 2625              		.loc 3 41 0
 2626 01ec 7FE3FB78 		mr 3,31
 2627              		.loc 3 40 0
 2628 01f0 9001004C 		stw 0,76(1)
 2629 01f4 C9A10050 		lfd 13,80(1)
 2630 01f8 C8010048 		lfd 0,72(1)
 2631 01fc FDADF828 		fsub 13,13,31
 2632              		.loc 3 41 0
 2633 0200 813F0000 		lwz 9,0(31)
 2634              		.loc 3 40 0
 2635 0204 FC00F828 		fsub 0,0,31
 2636              		.loc 3 41 0
 2637 0208 80090014 		lwz 0,20(9)
 2638              		.loc 3 40 0
 2639 020c FDA06818 		frsp 13,13
 2640 0210 FC000018 		frsp 0,0
 2641              		.loc 3 41 0
 2642 0214 7C0903A6 		mtctr 0
 2643              		.loc 3 26 0
 2644 0218 FF600050 		fneg 27,0
 2645              		.loc 3 40 0
 2646 021c EC0D002A 		fadds 0,13,0
 2647 0220 EF7B07BA 		fmadds 27,27,30,0
 2648              	.LVL191:
 2649              		.loc 3 41 0
 2650 0224 4E800421 		bctrl
 2651 0228 801F0028 		lwz 0,40(31)
 2652 022c 6C638000 		xoris 3,3,0x8000
 2653 0230 93C10058 		stw 30,88(1)
 2654 0234 6C008000 		xoris 0,0,0x8000
 2655 0238 90610064 		stw 3,100(1)
 2656 023c 93C10060 		stw 30,96(1)
 2657              		.loc 3 43 0
 2658 0240 7FE3FB78 		mr 3,31
 2659              		.loc 3 41 0
 2660 0244 9001005C 		stw 0,92(1)
 2661 0248 C9A10060 		lfd 13,96(1)
 2662              		.loc 3 43 0
 2663 024c 813F0000 		lwz 9,0(31)
 2664              		.loc 3 41 0
 2665 0250 C8010058 		lfd 0,88(1)
 2666              		.loc 3 43 0
 2667 0254 80090064 		lwz 0,100(9)
 2668              		.loc 3 41 0
 2669 0258 FC00F828 		fsub 0,0,31
 2670 025c FFEDF828 		fsub 31,13,31
 2671              		.loc 3 43 0
 2672 0260 7C0903A6 		mtctr 0
 2673              		.loc 3 41 0
 2674 0264 FC000018 		frsp 0,0
 2675 0268 FFE0F818 		frsp 31,31
 2676 026c EFC0FFBA 		fmadds 30,0,30,31
 2677              	.LVL192:
 2678              		.loc 3 43 0
 2679 0270 4E800421 		bctrl
 2680 0274 7C7E1B78 		mr 30,3
 2681              	.LVL193:
 2682              		.loc 3 45 0
 2683 0278 38800000 		li 4,0
 2684 027c 386000A8 		li 3,168
 2685              	.LVL194:
 2686 0280 38A00004 		li 5,4
 2687 0284 48000001 		bl GX_Begin
 2688              	.LVL195:
 2689              	.LBB1457:
 2690              	.LBB1458:
 2691              		.file 8 "d:/devkitPro/libogc/include/ogc/gx.h"
 2692              		.loc 8 2123 0
 2693 0288 3D200000 		lis 9,wgPipe@ha
 2694 028c 81290000 		lwz 9,wgPipe@l(9)
 2695              		.loc 8 2125 0
 2696 0290 38000000 		li 0,0
 2697              	.LBE1458:
 2698              	.LBE1457:
 2699              		.loc 3 47 0
 2700 0294 57DE063E 		rlwinm 30,30,0,0xff
 2701              	.LVL196:
 2702              		.loc 3 55 0
 2703 0298 38600000 		li 3,0
 2704              	.LBB1461:
 2705              	.LBB1459:
 2706              		.loc 8 2123 0
 2707 029c D3290000 		stfs 25,0(9)
 2708              	.LBE1459:
 2709              	.LBE1461:
 2710              		.loc 3 55 0
 2711 02a0 38800000 		li 4,0
 2712              	.LBB1462:
 2713              	.LBB1460:
 2714              		.loc 8 2124 0
 2715 02a4 D3490000 		stfs 26,0(9)
 2716              		.loc 8 2125 0
 2717 02a8 90090000 		stw 0,0(9)
 2718              	.LBE1460:
 2719              	.LBE1462:
 2720              		.loc 3 47 0
 2721 02ac 891F0090 		lbz 8,144(31)
 2722              	.LVL197:
 2723 02b0 895F0091 		lbz 10,145(31)
 2724              	.LVL198:
 2725 02b4 897F0092 		lbz 11,146(31)
 2726              	.LVL199:
 2727              	.LBB1463:
 2728              	.LBB1464:
 2729              		.loc 8 2229 0
 2730 02b8 99090000 		stb 8,0(9)
 2731              		.loc 8 2230 0
 2732 02bc 99490000 		stb 10,0(9)
 2733              		.loc 8 2231 0
 2734 02c0 99690000 		stb 11,0(9)
 2735              		.loc 8 2232 0
 2736 02c4 9BC90000 		stb 30,0(9)
 2737              	.LVL200:
 2738              	.LBE1464:
 2739              	.LBE1463:
 2740              	.LBB1465:
 2741              	.LBB1466:
 2742              		.loc 8 2123 0
 2743 02c8 D3890000 		stfs 28,0(9)
 2744              		.loc 8 2124 0
 2745 02cc D3A90000 		stfs 29,0(9)
 2746              		.loc 8 2125 0
 2747 02d0 90090000 		stw 0,0(9)
 2748              	.LBE1466:
 2749              	.LBE1465:
 2750              		.loc 3 49 0
 2751 02d4 891F0090 		lbz 8,144(31)
 2752              	.LVL201:
 2753 02d8 895F0091 		lbz 10,145(31)
 2754              	.LVL202:
 2755 02dc 897F0092 		lbz 11,146(31)
 2756              	.LVL203:
 2757              	.LBB1467:
 2758              	.LBB1468:
 2759              		.loc 8 2229 0
 2760 02e0 99090000 		stb 8,0(9)
 2761              		.loc 8 2230 0
 2762 02e4 99490000 		stb 10,0(9)
 2763              		.loc 8 2231 0
 2764 02e8 99690000 		stb 11,0(9)
 2765              		.loc 8 2232 0
 2766 02ec 9BC90000 		stb 30,0(9)
 2767              	.LVL204:
 2768              	.LBE1468:
 2769              	.LBE1467:
 2770              	.LBB1469:
 2771              	.LBB1470:
 2772              		.loc 8 2123 0
 2773 02f0 D3890000 		stfs 28,0(9)
 2774              		.loc 8 2124 0
 2775 02f4 D3A90000 		stfs 29,0(9)
 2776              		.loc 8 2125 0
 2777 02f8 90090000 		stw 0,0(9)
 2778              	.LBE1470:
 2779              	.LBE1469:
 2780              		.loc 3 51 0
 2781 02fc 891F0090 		lbz 8,144(31)
 2782              	.LVL205:
 2783 0300 895F0091 		lbz 10,145(31)
 2784              	.LVL206:
 2785 0304 897F0092 		lbz 11,146(31)
 2786              	.LVL207:
 2787              	.LBB1471:
 2788              	.LBB1472:
 2789              		.loc 8 2229 0
 2790 0308 99090000 		stb 8,0(9)
 2791              		.loc 8 2230 0
 2792 030c 99490000 		stb 10,0(9)
 2793              		.loc 8 2231 0
 2794 0310 99690000 		stb 11,0(9)
 2795              		.loc 8 2232 0
 2796 0314 9BC90000 		stb 30,0(9)
 2797              	.LVL208:
 2798              	.LBE1472:
 2799              	.LBE1471:
 2800              	.LBB1473:
 2801              	.LBB1474:
 2802              		.loc 8 2123 0
 2803 0318 D3690000 		stfs 27,0(9)
 2804              		.loc 8 2124 0
 2805 031c D3C90000 		stfs 30,0(9)
 2806              		.loc 8 2125 0
 2807 0320 90090000 		stw 0,0(9)
 2808              	.LBE1474:
 2809              	.LBE1473:
 2810              		.loc 3 53 0
 2811 0324 881F0092 		lbz 0,146(31)
 2812 0328 895F0090 		lbz 10,144(31)
 2813              	.LVL209:
 2814 032c 897F0091 		lbz 11,145(31)
 2815              	.LVL210:
 2816              	.LBB1475:
 2817              	.LBB1476:
 2818              		.loc 8 2229 0
 2819 0330 99490000 		stb 10,0(9)
 2820              		.loc 8 2230 0
 2821 0334 99690000 		stb 11,0(9)
 2822              		.loc 8 2231 0
 2823 0338 98090000 		stb 0,0(9)
 2824              		.loc 8 2232 0
 2825 033c 9BC90000 		stb 30,0(9)
 2826              	.LBE1476:
 2827              	.LBE1475:
 2828              		.loc 3 55 0
 2829 0340 48000001 		bl GX_SetTevOp
 2830              	.LVL211:
 2831              	.LBE1478:
 2832              		.loc 3 56 0
 2833 0344 800100AC 		lwz 0,172(1)
 2834 0348 83C10068 		lwz 30,104(1)
 2835              	.LVL212:
 2836 034c 7C0803A6 		mtlr 0
 2837 0350 83E1006C 		lwz 31,108(1)
 2838              	.LVL213:
 2839 0354 CB210070 		lfd 25,112(1)
 2840              	.LVL214:
 2841 0358 CB410078 		lfd 26,120(1)
 2842              	.LVL215:
 2843 035c CB610080 		lfd 27,128(1)
 2844              	.LVL216:
 2845 0360 CB810088 		lfd 28,136(1)
 2846              	.LVL217:
 2847 0364 CBA10090 		lfd 29,144(1)
 2848              	.LVL218:
 2849 0368 CBC10098 		lfd 30,152(1)
 2850              	.LVL219:
 2851 036c CBE100A0 		lfd 31,160(1)
 2852 0370 382100A8 		addi 1,1,168
 2853              	.LCFI38:
 2854              		.cfi_def_cfa_offset 0
 2855              		.cfi_restore 63
 2856              		.cfi_restore 62
 2857              		.cfi_restore 61
 2858              		.cfi_restore 60
 2859              		.cfi_restore 59
 2860              		.cfi_restore 58
 2861              		.cfi_restore 57
 2862              		.cfi_restore 31
 2863              		.cfi_restore 30
 2864 0374 4E800020 		blr
 2865              		.cfi_endproc
 2866              	.LFE1473:
 2867              		.size	_ZN12GuiChecksign4DrawEv, .-_ZN12GuiChecksign4DrawEv
 2868              		.section	.text._ZN10GuiElement10ResetStateEv,"axG",@progbits,_ZN10GuiElement10ResetStateEv,comdat
 2869              		.align 2
 2870              		.weak	_ZN10GuiElement10ResetStateEv
 2871              		.type	_ZN10GuiElement10ResetStateEv, @function
 2872              	_ZN10GuiElement10ResetStateEv:
 2873              	.LFB1402:
 2874              		.loc 2 183 0
 2875              		.cfi_startproc
 2876              	.LVL220:
 2877 0000 7C0802A6 		mflr 0
 2878 0004 9421FFF8 		stwu 1,-8(1)
 2879              	.LCFI39:
 2880              		.cfi_def_cfa_offset 8
 2881              		.cfi_register 65, 0
 2882 0008 9001000C 		stw 0,12(1)
 2883              		.loc 2 185 0
 2884 000c 80030048 		lwz 0,72(3)
 2885              		.cfi_offset 65, 4
 2886 0010 2F800004 		cmpwi 7,0,4
 2887 0014 419E001C 		beq- 7,.L136
 2888              	.LVL221:
 2889              	.LBB1481:
 2890              	.LBB1482:
 2891              		.loc 2 186 0
 2892 0018 81230000 		lwz 9,0(3)
 2893 001c 38800000 		li 4,0
 2894 0020 38A0FFFF 		li 5,-1
 2895 0024 80090050 		lwz 0,80(9)
 2896 0028 7C0903A6 		mtctr 0
 2897 002c 4E800421 		bctrl
 2898              	.LVL222:
 2899              	.L136:
 2900              	.LBE1482:
 2901              	.LBE1481:
 2902              		.loc 2 187 0
 2903 0030 8001000C 		lwz 0,12(1)
 2904 0034 38210008 		addi 1,1,8
 2905              	.LCFI40:
 2906              		.cfi_def_cfa_offset 0
 2907 0038 7C0803A6 		mtlr 0
 2908 003c 4E800020 		blr
 2909              		.cfi_endproc
 2910              	.LFE1402:
 2911              		.size	_ZN10GuiElement10ResetStateEv, .-_ZN10GuiElement10ResetStateEv
 2912              		.section	.text._ZNSt8_Rb_treeIPN7sigslot12_signal_baseINS0_15single_threadedEEES4_St9_IdentityIS4_
 2913              		.align 2
 2914              		.weak	_ZNSt8_Rb_treeIPN7sigslot12_signal_baseINS0_15single_threadedEEES4_St9_IdentityIS4_ESt4lessI
 2915              		.type	_ZNSt8_Rb_treeIPN7sigslot12_signal_baseINS0_15single_threadedEEES4_St9_IdentityIS4_ESt4lessI
 2916              	_ZNSt8_Rb_treeIPN7sigslot12_signal_baseINS0_15single_threadedEEES4_St9_IdentityIS4_ESt4lessIS4_ESaI
 2917              	.LFB1678:
 2918              		.file 9 "d:\\devkitpro\\devkitppc\\bin\\../lib/gcc/powerpc-eabi/4.6.3/../../../../powerpc-eabi/inc
 2919              		.loc 9 1068 0
 2920              		.cfi_startproc
 2921              	.LVL223:
 2922 0000 9421FFC8 		stwu 1,-56(1)
 2923              	.LCFI41:
 2924              		.cfi_def_cfa_offset 56
 2925 0004 7C0802A6 		mflr 0
 2926 0008 92C10010 		stw 22,16(1)
 2927              	.LBB1599:
 2928              		.loc 9 1072 0
 2929 000c 7C962379 		mr. 22,4
 2930              		.cfi_offset 22, -40
 2931              		.cfi_register 65, 0
 2932              	.LBE1599:
 2933              		.loc 9 1068 0
 2934 0010 93C10030 		stw 30,48(1)
 2935 0014 7C7E1B78 		mr 30,3
 2936              		.cfi_offset 30, -8
 2937 0018 9001003C 		stw 0,60(1)
 2938 001c 92A1000C 		stw 21,12(1)
 2939 0020 92E10014 		stw 23,20(1)
 2940 0024 93010018 		stw 24,24(1)
 2941 0028 9321001C 		stw 25,28(1)
 2942 002c 93410020 		stw 26,32(1)
 2943 0030 93610024 		stw 27,36(1)
 2944 0034 93810028 		stw 28,40(1)
 2945 0038 93A1002C 		stw 29,44(1)
 2946 003c 93E10034 		stw 31,52(1)
 2947              	.LBB1684:
 2948              		.loc 9 1072 0
 2949 0040 41820168 		beq- 0,.L138
 2950              		.cfi_offset 31, -4
 2951              		.cfi_offset 29, -12
 2952              		.cfi_offset 28, -16
 2953              		.cfi_offset 27, -20
 2954              		.cfi_offset 26, -24
 2955              		.cfi_offset 25, -28
 2956              		.cfi_offset 24, -32
 2957              		.cfi_offset 23, -36
 2958              		.cfi_offset 21, -44
 2959              		.cfi_offset 65, 4
 2960              	.LVL224:
 2961              	.L184:
 2962              		.loc 3 56 0
 2963 0044 8376000C 		lwz 27,12(22)
 2964              	.LVL225:
 2965              	.LBB1600:
 2966              	.LBB1601:
 2967              	.LBB1602:
 2968              		.loc 9 1072 0
 2969 0048 2F9B0000 		cmpwi 7,27,0
 2970 004c 419E0140 		beq- 7,.L140
 2971              	.LVL226:
 2972              	.L185:
 2973              	.LBE1602:
 2974              		.loc 3 56 0
 2975 0050 835B000C 		lwz 26,12(27)
 2976              	.LVL227:
 2977              	.LBB1678:
 2978              	.LBB1603:
 2979              	.LBB1604:
 2980              	.LBB1605:
 2981              		.loc 9 1072 0
 2982 0054 2F9A0000 		cmpwi 7,26,0
 2983 0058 419E0118 		beq- 7,.L141
 2984              	.LVL228:
 2985              	.L186:
 2986              	.LBE1605:
 2987              		.loc 3 56 0
 2988 005c 833A000C 		lwz 25,12(26)
 2989              	.LVL229:
 2990              	.LBB1671:
 2991              	.LBB1606:
 2992              	.LBB1607:
 2993              	.LBB1608:
 2994              		.loc 9 1072 0
 2995 0060 2F990000 		cmpwi 7,25,0
 2996 0064 419E00F0 		beq- 7,.L142
 2997              	.LVL230:
 2998              	.L187:
 2999              	.LBE1608:
 3000              		.loc 3 56 0
 3001 0068 8319000C 		lwz 24,12(25)
 3002              	.LVL231:
 3003              	.LBB1664:
 3004              	.LBB1609:
 3005              	.LBB1610:
 3006              	.LBB1611:
 3007              		.loc 9 1072 0
 3008 006c 2F980000 		cmpwi 7,24,0
 3009 0070 419E00C8 		beq- 7,.L143
 3010              	.LVL232:
 3011              	.L188:
 3012              	.LBE1611:
 3013              		.loc 3 56 0
 3014 0074 82F8000C 		lwz 23,12(24)
 3015              	.LVL233:
 3016              	.LBB1657:
 3017              	.LBB1612:
 3018              	.LBB1613:
 3019              	.LBB1614:
 3020              		.loc 9 1072 0
 3021 0078 2F970000 		cmpwi 7,23,0
 3022 007c 419E00A0 		beq- 7,.L144
 3023              	.LVL234:
 3024              	.L189:
 3025              	.LBE1614:
 3026              		.loc 3 56 0
 3027 0080 8397000C 		lwz 28,12(23)
 3028              	.LVL235:
 3029              	.LBB1650:
 3030              	.LBB1615:
 3031              	.LBB1616:
 3032              	.LBB1617:
 3033              		.loc 9 1072 0
 3034 0084 2F9C0000 		cmpwi 7,28,0
 3035 0088 419E0078 		beq- 7,.L145
 3036              	.LVL236:
 3037              	.L190:
 3038              	.LBE1617:
 3039              		.loc 3 56 0
 3040 008c 83BC000C 		lwz 29,12(28)
 3041              	.LVL237:
 3042              	.LBB1643:
 3043              	.LBB1618:
 3044              	.LBB1619:
 3045              	.LBB1620:
 3046              		.loc 9 1072 0
 3047 0090 2F9D0000 		cmpwi 7,29,0
 3048 0094 419E0050 		beq- 7,.L146
 3049              	.LVL238:
 3050              	.L191:
 3051              	.LBE1620:
 3052              		.loc 3 56 0
 3053 0098 83FD000C 		lwz 31,12(29)
 3054              	.LVL239:
 3055              	.LBB1636:
 3056              	.LBB1621:
 3057              	.LBB1622:
 3058              	.LBB1623:
 3059              		.loc 9 1072 0
 3060 009c 2F9F0000 		cmpwi 7,31,0
 3061 00a0 419E0028 		beq- 7,.L147
 3062              	.LVL240:
 3063              	.L192:
 3064              	.LBB1624:
 3065              		.loc 9 1074 0
 3066 00a4 809F000C 		lwz 4,12(31)
 3067 00a8 7FC3F378 		mr 3,30
 3068 00ac 48000001 		bl _ZNSt8_Rb_treeIPN7sigslot12_signal_baseINS0_15single_threadedEEES4_St9_IdentityIS4_ESt4lessIS4_
 3069              	.LBE1624:
 3070              	.LBE1623:
 3071              		.loc 3 56 0
 3072 00b0 82BF0008 		lwz 21,8(31)
 3073              	.LVL241:
 3074              	.LBB1630:
 3075              	.LBB1629:
 3076              	.LBB1625:
 3077              	.LBB1626:
 3078              	.LBB1627:
 3079              	.LBB1628:
 3080              		.loc 7 98 0
 3081 00b4 7FE3FB78 		mr 3,31
 3082 00b8 48000001 		bl _ZdlPv
 3083              	.LVL242:
 3084              	.LBE1628:
 3085              	.LBE1627:
 3086              	.LBE1626:
 3087              	.LBE1625:
 3088              	.LBE1629:
 3089              		.loc 9 1072 0
 3090 00bc 2F950000 		cmpwi 7,21,0
 3091              		.loc 9 1077 0
 3092 00c0 7EBFAB78 		mr 31,21
 3093              	.LVL243:
 3094              		.loc 9 1072 0
 3095 00c4 409EFFE0 		bne+ 7,.L192
 3096              	.LVL244:
 3097              	.L147:
 3098              	.LBE1630:
 3099              	.LBE1622:
 3100              	.LBE1621:
 3101              	.LBE1636:
 3102              		.loc 3 56 0
 3103 00c8 83FD0008 		lwz 31,8(29)
 3104              	.LVL245:
 3105              	.LBB1637:
 3106              	.LBB1635:
 3107              	.LBB1631:
 3108              	.LBB1632:
 3109              	.LBB1633:
 3110              	.LBB1634:
 3111              		.loc 7 98 0
 3112 00cc 7FA3EB78 		mr 3,29
 3113 00d0 48000001 		bl _ZdlPv
 3114              	.LVL246:
 3115              	.LBE1634:
 3116              	.LBE1633:
 3117              	.LBE1632:
 3118              	.LBE1631:
 3119              	.LBE1635:
 3120              		.loc 9 1072 0
 3121 00d4 2F9F0000 		cmpwi 7,31,0
 3122 00d8 419E000C 		beq- 7,.L146
 3123              		.loc 9 1077 0
 3124 00dc 7FFDFB78 		mr 29,31
 3125              	.LVL247:
 3126 00e0 4BFFFFB8 		b .L191
 3127              	.LVL248:
 3128              	.L146:
 3129              	.LBE1637:
 3130              	.LBE1619:
 3131              	.LBE1618:
 3132              	.LBE1643:
 3133              		.loc 3 56 0
 3134 00e4 83FC0008 		lwz 31,8(28)
 3135              	.LVL249:
 3136              	.LBB1644:
 3137              	.LBB1642:
 3138              	.LBB1638:
 3139              	.LBB1639:
 3140              	.LBB1640:
 3141              	.LBB1641:
 3142              		.loc 7 98 0
 3143 00e8 7F83E378 		mr 3,28
 3144 00ec 48000001 		bl _ZdlPv
 3145              	.LVL250:
 3146              	.LBE1641:
 3147              	.LBE1640:
 3148              	.LBE1639:
 3149              	.LBE1638:
 3150              	.LBE1642:
 3151              		.loc 9 1072 0
 3152 00f0 2F9F0000 		cmpwi 7,31,0
 3153 00f4 419E000C 		beq- 7,.L145
 3154              		.loc 9 1077 0
 3155 00f8 7FFCFB78 		mr 28,31
 3156              	.LVL251:
 3157 00fc 4BFFFF90 		b .L190
 3158              	.LVL252:
 3159              	.L145:
 3160              	.LBE1644:
 3161              	.LBE1616:
 3162              	.LBE1615:
 3163              	.LBE1650:
 3164              		.loc 3 56 0
 3165 0100 83F70008 		lwz 31,8(23)
 3166              	.LVL253:
 3167              	.LBB1651:
 3168              	.LBB1649:
 3169              	.LBB1645:
 3170              	.LBB1646:
 3171              	.LBB1647:
 3172              	.LBB1648:
 3173              		.loc 7 98 0
 3174 0104 7EE3BB78 		mr 3,23
 3175 0108 48000001 		bl _ZdlPv
 3176              	.LVL254:
 3177              	.LBE1648:
 3178              	.LBE1647:
 3179              	.LBE1646:
 3180              	.LBE1645:
 3181              	.LBE1649:
 3182              		.loc 9 1072 0
 3183 010c 2F9F0000 		cmpwi 7,31,0
 3184 0110 419E000C 		beq- 7,.L144
 3185              		.loc 9 1077 0
 3186 0114 7FF7FB78 		mr 23,31
 3187              	.LVL255:
 3188 0118 4BFFFF68 		b .L189
 3189              	.LVL256:
 3190              	.L144:
 3191              	.LBE1651:
 3192              	.LBE1613:
 3193              	.LBE1612:
 3194              	.LBE1657:
 3195              		.loc 3 56 0
 3196 011c 83F80008 		lwz 31,8(24)
 3197              	.LVL257:
 3198              	.LBB1658:
 3199              	.LBB1656:
 3200              	.LBB1652:
 3201              	.LBB1653:
 3202              	.LBB1654:
 3203              	.LBB1655:
 3204              		.loc 7 98 0
 3205 0120 7F03C378 		mr 3,24
 3206 0124 48000001 		bl _ZdlPv
 3207              	.LVL258:
 3208              	.LBE1655:
 3209              	.LBE1654:
 3210              	.LBE1653:
 3211              	.LBE1652:
 3212              	.LBE1656:
 3213              		.loc 9 1072 0
 3214 0128 2F9F0000 		cmpwi 7,31,0
 3215 012c 419E000C 		beq- 7,.L143
 3216              		.loc 9 1077 0
 3217 0130 7FF8FB78 		mr 24,31
 3218              	.LVL259:
 3219 0134 4BFFFF40 		b .L188
 3220              	.LVL260:
 3221              	.L143:
 3222              	.LBE1658:
 3223              	.LBE1610:
 3224              	.LBE1609:
 3225              	.LBE1664:
 3226              		.loc 3 56 0
 3227 0138 83F90008 		lwz 31,8(25)
 3228              	.LVL261:
 3229              	.LBB1665:
 3230              	.LBB1663:
 3231              	.LBB1659:
 3232              	.LBB1660:
 3233              	.LBB1661:
 3234              	.LBB1662:
 3235              		.loc 7 98 0
 3236 013c 7F23CB78 		mr 3,25
 3237 0140 48000001 		bl _ZdlPv
 3238              	.LVL262:
 3239              	.LBE1662:
 3240              	.LBE1661:
 3241              	.LBE1660:
 3242              	.LBE1659:
 3243              	.LBE1663:
 3244              		.loc 9 1072 0
 3245 0144 2F9F0000 		cmpwi 7,31,0
 3246 0148 419E000C 		beq- 7,.L142
 3247              		.loc 9 1077 0
 3248 014c 7FF9FB78 		mr 25,31
 3249              	.LVL263:
 3250 0150 4BFFFF18 		b .L187
 3251              	.LVL264:
 3252              	.L142:
 3253              	.LBE1665:
 3254              	.LBE1607:
 3255              	.LBE1606:
 3256              	.LBE1671:
 3257              		.loc 3 56 0
 3258 0154 83FA0008 		lwz 31,8(26)
 3259              	.LVL265:
 3260              	.LBB1672:
 3261              	.LBB1670:
 3262              	.LBB1666:
 3263              	.LBB1667:
 3264              	.LBB1668:
 3265              	.LBB1669:
 3266              		.loc 7 98 0
 3267 0158 7F43D378 		mr 3,26
 3268 015c 48000001 		bl _ZdlPv
 3269              	.LVL266:
 3270              	.LBE1669:
 3271              	.LBE1668:
 3272              	.LBE1667:
 3273              	.LBE1666:
 3274              	.LBE1670:
 3275              		.loc 9 1072 0
 3276 0160 2F9F0000 		cmpwi 7,31,0
 3277 0164 419E000C 		beq- 7,.L141
 3278              		.loc 9 1077 0
 3279 0168 7FFAFB78 		mr 26,31
 3280              	.LVL267:
 3281 016c 4BFFFEF0 		b .L186
 3282              	.LVL268:
 3283              	.L141:
 3284              	.LBE1672:
 3285              	.LBE1604:
 3286              	.LBE1603:
 3287              	.LBE1678:
 3288              		.loc 3 56 0
 3289 0170 83FB0008 		lwz 31,8(27)
 3290              	.LVL269:
 3291              	.LBB1679:
 3292              	.LBB1677:
 3293              	.LBB1673:
 3294              	.LBB1674:
 3295              	.LBB1675:
 3296              	.LBB1676:
 3297              		.loc 7 98 0
 3298 0174 7F63DB78 		mr 3,27
 3299 0178 48000001 		bl _ZdlPv
 3300              	.LVL270:
 3301              	.LBE1676:
 3302              	.LBE1675:
 3303              	.LBE1674:
 3304              	.LBE1673:
 3305              	.LBE1677:
 3306              		.loc 9 1072 0
 3307 017c 2F9F0000 		cmpwi 7,31,0
 3308 0180 419E000C 		beq- 7,.L140
 3309              		.loc 9 1077 0
 3310 0184 7FFBFB78 		mr 27,31
 3311              	.LVL271:
 3312 0188 4BFFFEC8 		b .L185
 3313              	.LVL272:
 3314              	.L140:
 3315              		.loc 3 56 0
 3316 018c 83F60008 		lwz 31,8(22)
 3317              	.LVL273:
 3318              	.LBE1679:
 3319              	.LBE1601:
 3320              	.LBB1680:
 3321              	.LBB1681:
 3322              	.LBB1682:
 3323              	.LBB1683:
 3324              		.loc 7 98 0
 3325 0190 7EC3B378 		mr 3,22
 3326 0194 48000001 		bl _ZdlPv
 3327              	.LVL274:
 3328              	.LBE1683:
 3329              	.LBE1682:
 3330              	.LBE1681:
 3331              	.LBE1680:
 3332              	.LBE1600:
 3333              		.loc 9 1072 0
 3334 0198 2F9F0000 		cmpwi 7,31,0
 3335 019c 419E000C 		beq- 7,.L138
 3336              		.loc 9 1077 0
 3337 01a0 7FF6FB78 		mr 22,31
 3338              	.LVL275:
 3339 01a4 4BFFFEA0 		b .L184
 3340              	.LVL276:
 3341              	.L138:
 3342              	.LBE1684:
 3343              		.loc 9 1079 0
 3344 01a8 8001003C 		lwz 0,60(1)
 3345 01ac 82A1000C 		lwz 21,12(1)
 3346 01b0 7C0803A6 		mtlr 0
 3347 01b4 82C10010 		lwz 22,16(1)
 3348 01b8 82E10014 		lwz 23,20(1)
 3349 01bc 83010018 		lwz 24,24(1)
 3350 01c0 8321001C 		lwz 25,28(1)
 3351 01c4 83410020 		lwz 26,32(1)
 3352 01c8 83610024 		lwz 27,36(1)
 3353 01cc 83810028 		lwz 28,40(1)
 3354 01d0 83A1002C 		lwz 29,44(1)
 3355 01d4 83C10030 		lwz 30,48(1)
 3356              	.LVL277:
 3357 01d8 83E10034 		lwz 31,52(1)
 3358 01dc 38210038 		addi 1,1,56
 3359              	.LCFI42:
 3360              		.cfi_def_cfa_offset 0
 3361              		.cfi_restore 31
 3362              		.cfi_restore 30
 3363              		.cfi_restore 29
 3364              		.cfi_restore 28
 3365              		.cfi_restore 27
 3366              		.cfi_restore 26
 3367              		.cfi_restore 25
 3368              		.cfi_restore 24
 3369              		.cfi_restore 23
 3370              		.cfi_restore 22
 3371              		.cfi_restore 21
 3372 01e0 4E800020 		blr
 3373              		.cfi_endproc
 3374              	.LFE1678:
 3375              		.size	_ZNSt8_Rb_treeIPN7sigslot12_signal_baseINS0_15single_threadedEEES4_St9_IdentityIS4_ESt4lessI
 3376              		.section	.text._ZNSt8_Rb_treeIPN7sigslot12_signal_baseINS0_15single_threadedEEES4_St9_IdentityIS4_
 3377              		.align 2
 3378              		.weak	_ZNSt8_Rb_treeIPN7sigslot12_signal_baseINS0_15single_threadedEEES4_St9_IdentityIS4_ESt4lessI
 3379              		.type	_ZNSt8_Rb_treeIPN7sigslot12_signal_baseINS0_15single_threadedEEES4_St9_IdentityIS4_ESt4lessI
 3380              	_ZNSt8_Rb_treeIPN7sigslot12_signal_baseINS0_15single_threadedEEES4_St9_IdentityIS4_ESt4lessIS4_ESaI
 3381              	.LFB1622:
 3382              		.loc 9 1510 0
 3383              		.cfi_startproc
 3384              	.LVL278:
 3385 0000 7C0802A6 		mflr 0
 3386 0004 9421FFE0 		stwu 1,-32(1)
 3387              	.LCFI43:
 3388              		.cfi_def_cfa_offset 32
 3389              		.cfi_register 65, 0
 3390 0008 93810010 		stw 28,16(1)
 3391              	.LBB1685:
 3392              	.LBB1686:
 3393              		.loc 9 1155 0
 3394 000c 3B830004 		addi 28,3,4
 3395              		.cfi_offset 28, -16
 3396              	.LBE1686:
 3397              	.LBE1685:
 3398              		.loc 9 1510 0
 3399 0010 90010024 		stw 0,36(1)
 3400 0014 93410008 		stw 26,8(1)
 3401              	.LBB1742:
 3402              	.LBB1707:
 3403              	.LBB1687:
 3404              		.loc 9 1155 0
 3405 0018 7F9AE378 		mr 26,28
 3406              		.cfi_offset 26, -24
 3407              		.cfi_offset 65, 4
 3408              	.LBE1687:
 3409              		.loc 3 56 0
 3410 001c 80030008 		lwz 0,8(3)
 3411              	.LBE1707:
 3412              	.LBE1742:
 3413              		.loc 9 1510 0
 3414 0020 93A10014 		stw 29,20(1)
 3415              	.LBB1743:
 3416              	.LBB1708:
 3417              	.LBB1700:
 3418              		.loc 9 1155 0
 3419 0024 7F9DE378 		mr 29,28
 3420              		.cfi_offset 29, -12
 3421              		.loc 9 1156 0
 3422 0028 2F800000 		cmpwi 7,0,0
 3423              	.LBE1700:
 3424              	.LBE1708:
 3425              	.LBE1743:
 3426              		.loc 9 1510 0
 3427 002c 93C10018 		stw 30,24(1)
 3428 0030 9361000C 		stw 27,12(1)
 3429 0034 7C7E1B78 		mr 30,3
 3430              		.cfi_offset 27, -20
 3431              		.cfi_offset 30, -8
 3432              	.LVL279:
 3433 0038 93E1001C 		stw 31,28(1)
 3434              	.LBB1744:
 3435              	.LBB1709:
 3436              	.LBB1701:
 3437              		.loc 9 1156 0
 3438 003c 419E0040 		beq- 7,.L194
 3439              		.cfi_offset 31, -4
 3440 0040 81640000 		lwz 11,0(4)
 3441 0044 7C1A0378 		mr 26,0
 3442 0048 48000010 		b .L205
 3443              	.LVL280:
 3444              	.L224:
 3445              	.LBE1701:
 3446              		.loc 3 56 0
 3447 004c 835A000C 		lwz 26,12(26)
 3448              	.LVL281:
 3449              	.LBB1702:
 3450              		.loc 9 1156 0
 3451 0050 2F9A0000 		cmpwi 7,26,0
 3452 0054 419E0024 		beq- 7,.L223
 3453              	.L205:
 3454              	.LVL282:
 3455              	.LBE1702:
 3456              		.loc 3 56 0
 3457 0058 813A0010 		lwz 9,16(26)
 3458              	.LBB1703:
 3459              	.LBB1688:
 3460              		.loc 9 1158 0
 3461 005c 7F895840 		cmplw 7,9,11
 3462 0060 41BCFFEC 		blt- 7,.L224
 3463              	.LVL283:
 3464              	.LBB1689:
 3465              		.loc 9 1160 0
 3466 0064 409D0094 		ble- 7,.L197
 3467              	.LVL284:
 3468              	.LBE1689:
 3469              	.LBE1688:
 3470              	.LBE1703:
 3471              		.loc 3 56 0
 3472 0068 7F5DD378 		mr 29,26
 3473              		.loc 9 1161 0
 3474 006c 835A0008 		lwz 26,8(26)
 3475              	.LVL285:
 3476              	.LBB1704:
 3477              		.loc 9 1156 0
 3478 0070 2F9A0000 		cmpwi 7,26,0
 3479 0074 409EFFE4 		bne+ 7,.L205
 3480              	.LVL286:
 3481              	.L223:
 3482 0078 7FBAEB78 		mr 26,29
 3483              	.LVL287:
 3484              	.L194:
 3485              	.LBE1704:
 3486              	.LBE1709:
 3487              	.LBB1710:
 3488              	.LBB1711:
 3489              		.loc 3 56 0
 3490 007c 813E000C 		lwz 9,12(30)
 3491              	.LBE1711:
 3492              	.LBE1710:
 3493              	.LBB1738:
 3494              	.LBB1705:
 3495 0080 837E0014 		lwz 27,20(30)
 3496              	.LVL288:
 3497              	.LBE1705:
 3498              	.LBE1738:
 3499              	.LBB1739:
 3500              	.LBB1736:
 3501              	.LBB1712:
 3502              		.loc 9 1500 0
 3503 0084 7F89D000 		cmpw 7,9,26
 3504 0088 419E00DC 		beq- 7,.L206
 3505              	.L210:
 3506              	.LVL289:
 3507              		.loc 9 1503 0
 3508 008c 7F9AE800 		cmpw 7,26,29
 3509 0090 419E0100 		beq- 7,.L225
 3510              	.LVL290:
 3511              	.L221:
 3512              	.LBB1713:
 3513              	.LBB1714:
 3514              		.loc 9 277 0
 3515 0094 7F43D378 		mr 3,26
 3516 0098 48000001 		bl _ZSt18_Rb_tree_incrementPKSt18_Rb_tree_node_base
 3517              	.LBE1714:
 3518              	.LBE1713:
 3519              	.LBB1716:
 3520              	.LBB1717:
 3521              	.LBB1718:
 3522              		.loc 9 1489 0
 3523 009c 7F84E378 		mr 4,28
 3524              	.LBE1718:
 3525              	.LBE1717:
 3526              	.LBE1716:
 3527              	.LBB1729:
 3528              	.LBB1715:
 3529              		.loc 9 277 0
 3530 00a0 7C7F1B78 		mr 31,3
 3531              	.LVL291:
 3532              	.LBE1715:
 3533              	.LBE1729:
 3534              	.LBB1730:
 3535              	.LBB1726:
 3536              	.LBB1723:
 3537              		.loc 9 1489 0
 3538 00a4 7F43D378 		mr 3,26
 3539              	.LVL292:
 3540 00a8 48000001 		bl _ZSt28_Rb_tree_rebalance_for_erasePSt18_Rb_tree_node_baseRS_
 3541              	.LBE1723:
 3542              	.LBE1726:
 3543              	.LBE1730:
 3544              		.loc 9 277 0
 3545 00ac 7FFAFB78 		mr 26,31
 3546              	.LVL293:
 3547              	.LBB1731:
 3548              	.LBB1727:
 3549              	.LBB1724:
 3550              	.LBB1719:
 3551              	.LBB1720:
 3552              	.LBB1721:
 3553              	.LBB1722:
 3554              		.loc 7 98 0
 3555 00b0 48000001 		bl _ZdlPv
 3556              	.LBE1722:
 3557              	.LBE1721:
 3558              	.LBE1720:
 3559              	.LBE1719:
 3560              	.LBE1724:
 3561              	.LBE1727:
 3562              	.LBE1731:
 3563              		.loc 9 1503 0
 3564 00b4 7F9FE800 		cmpw 7,31,29
 3565              	.LBB1732:
 3566              	.LBB1728:
 3567              	.LBB1725:
 3568              		.loc 9 1491 0
 3569 00b8 813E0014 		lwz 9,20(30)
 3570 00bc 3809FFFF 		addi 0,9,-1
 3571 00c0 901E0014 		stw 0,20(30)
 3572              	.LBE1725:
 3573              	.LBE1728:
 3574              	.LBE1732:
 3575              		.loc 9 1503 0
 3576 00c4 409EFFD0 		bne+ 7,.L221
 3577 00c8 7F60D850 		subf 27,0,27
 3578              	.LVL294:
 3579              	.L208:
 3580              	.LBE1712:
 3581              	.LBE1736:
 3582              	.LBE1739:
 3583              	.LBE1744:
 3584              		.loc 9 1517 0
 3585 00cc 80010024 		lwz 0,36(1)
 3586 00d0 7F63DB78 		mr 3,27
 3587 00d4 83410008 		lwz 26,8(1)
 3588 00d8 7C0803A6 		mtlr 0
 3589 00dc 8361000C 		lwz 27,12(1)
 3590 00e0 83810010 		lwz 28,16(1)
 3591 00e4 83A10014 		lwz 29,20(1)
 3592              	.LVL295:
 3593 00e8 83C10018 		lwz 30,24(1)
 3594              	.LVL296:
 3595 00ec 83E1001C 		lwz 31,28(1)
 3596 00f0 38210020 		addi 1,1,32
 3597              		.cfi_remember_state
 3598              	.LCFI44:
 3599              		.cfi_def_cfa_offset 0
 3600              		.cfi_restore 31
 3601              		.cfi_restore 30
 3602              		.cfi_restore 29
 3603              		.cfi_restore 28
 3604              		.cfi_restore 27
 3605              		.cfi_restore 26
 3606 00f4 4E800020 		blr
 3607              	.LVL297:
 3608              	.L197:
 3609              	.LCFI45:
 3610              		.cfi_restore_state
 3611              	.LBB1745:
 3612              	.LBB1740:
 3613              		.loc 3 56 0
 3614 00f8 815A0008 		lwz 10,8(26)
 3615              	.LVL298:
 3616 00fc 813A000C 		lwz 9,12(26)
 3617              	.LVL299:
 3618              	.L222:
 3619              	.LBB1706:
 3620              	.LBB1699:
 3621              	.LBB1698:
 3622              	.LBB1690:
 3623              	.LBB1691:
 3624              	.LBB1692:
 3625              		.loc 9 1089 0
 3626 0100 2F8A0000 		cmpwi 7,10,0
 3627 0104 419E0020 		beq- 7,.L198
 3628              	.L226:
 3629              	.LVL300:
 3630              		.loc 9 1090 0
 3631 0108 810A0010 		lwz 8,16(10)
 3632 010c 7F885840 		cmplw 7,8,11
 3633 0110 419C004C 		blt- 7,.L199
 3634              	.LVL301:
 3635              	.LBE1692:
 3636              		.loc 3 56 0
 3637 0114 7D5A5378 		mr 26,10
 3638              		.loc 9 1091 0
 3639 0118 814A0008 		lwz 10,8(10)
 3640              	.LVL302:
 3641              	.LBB1693:
 3642              		.loc 9 1089 0
 3643 011c 2F8A0000 		cmpwi 7,10,0
 3644 0120 409EFFE8 		bne+ 7,.L226
 3645              	.LVL303:
 3646              	.L198:
 3647              	.LBE1693:
 3648              	.LBE1691:
 3649              	.LBB1694:
 3650              	.LBB1695:
 3651              		.loc 9 1121 0
 3652 0124 2F890000 		cmpwi 7,9,0
 3653 0128 41BEFF54 		beq- 7,.L194
 3654              	.LVL304:
 3655              		.loc 9 1122 0
 3656 012c 81490010 		lwz 10,16(9)
 3657 0130 7F8A5840 		cmplw 7,10,11
 3658 0134 409D0020 		ble- 7,.L202
 3659              	.LVL305:
 3660              	.L227:
 3661              	.LBE1695:
 3662              		.loc 3 56 0
 3663 0138 7D3D4B78 		mr 29,9
 3664              		.loc 9 1123 0
 3665 013c 81290008 		lwz 9,8(9)
 3666              	.LVL306:
 3667              	.LBB1696:
 3668              		.loc 9 1121 0
 3669 0140 2F890000 		cmpwi 7,9,0
 3670 0144 41BEFF38 		beq- 7,.L194
 3671              	.LVL307:
 3672              		.loc 9 1122 0
 3673 0148 81490010 		lwz 10,16(9)
 3674 014c 7F8A5840 		cmplw 7,10,11
 3675 0150 41BDFFE8 		bgt- 7,.L227
 3676              	.LVL308:
 3677              	.L202:
 3678              	.LBE1696:
 3679              		.loc 3 56 0
 3680 0154 8129000C 		lwz 9,12(9)
 3681              	.LVL309:
 3682 0158 4BFFFFCC 		b .L198
 3683              	.LVL310:
 3684              	.L199:
 3685              	.LBE1694:
 3686              	.LBB1697:
 3687 015c 814A000C 		lwz 10,12(10)
 3688              	.LVL311:
 3689 0160 4BFFFFA0 		b .L222
 3690              	.LVL312:
 3691              	.L206:
 3692              	.LBE1697:
 3693              	.LBE1690:
 3694              	.LBE1698:
 3695              	.LBE1699:
 3696              	.LBE1706:
 3697              	.LBE1740:
 3698              	.LBB1741:
 3699              	.LBB1737:
 3700              	.LBB1735:
 3701              		.loc 9 1500 0
 3702 0164 7F9CE800 		cmpw 7,28,29
 3703 0168 409EFF24 		bne+ 7,.L210
 3704              	.LVL313:
 3705              	.LBB1733:
 3706              	.LBB1734:
 3707              		.loc 9 809 0
 3708 016c 7C040378 		mr 4,0
 3709              	.LVL314:
 3710 0170 7FC3F378 		mr 3,30
 3711              	.LVL315:
 3712 0174 48000001 		bl _ZNSt8_Rb_treeIPN7sigslot12_signal_baseINS0_15single_threadedEEES4_St9_IdentityIS4_ESt4lessIS4_
 3713              	.LVL316:
 3714              		.loc 9 811 0
 3715 0178 38000000 		li 0,0
 3716              		.loc 9 810 0
 3717 017c 939E000C 		stw 28,12(30)
 3718              	.LVL317:
 3719              		.loc 9 811 0
 3720 0180 901E0008 		stw 0,8(30)
 3721              	.LVL318:
 3722              		.loc 9 812 0
 3723 0184 939E0010 		stw 28,16(30)
 3724              		.loc 9 813 0
 3725 0188 901E0014 		stw 0,20(30)
 3726 018c 4BFFFF40 		b .L208
 3727              	.LVL319:
 3728              	.L225:
 3729              	.LBE1734:
 3730              	.LBE1733:
 3731              		.loc 9 1503 0
 3732 0190 3B600000 		li 27,0
 3733 0194 4BFFFF38 		b .L208
 3734              	.LBE1735:
 3735              	.LBE1737:
 3736              	.LBE1741:
 3737              	.LBE1745:
 3738              		.cfi_endproc
 3739              	.LFE1622:
 3740              		.size	_ZNSt8_Rb_treeIPN7sigslot12_signal_baseINS0_15single_threadedEEES4_St9_IdentityIS4_ESt4lessI
 3741              		.section	.text._ZN7sigslot13_signal_base3IP10GuiElementiiNS_15single_threadedEED0Ev,"axG",@progbit
 3742              		.align 2
 3743              		.weak	_ZN7sigslot13_signal_base3IP10GuiElementiiNS_15single_threadedEED0Ev
 3744              		.type	_ZN7sigslot13_signal_base3IP10GuiElementiiNS_15single_threadedEED0Ev, @function
 3745              	_ZN7sigslot13_signal_base3IP10GuiElementiiNS_15single_threadedEED0Ev:
 3746              	.LFB1518:
 3747              		.loc 1 943 0
 3748              		.cfi_startproc
 3749              		.cfi_personality 0,__gxx_personality_v0
 3750              		.cfi_lsda 0,.LLSDA1518
 3751              	.LVL320:
 3752 0000 7C0802A6 		mflr 0
 3753 0004 9421FFD8 		stwu 1,-40(1)
 3754              	.LCFI46:
 3755              		.cfi_def_cfa_offset 40
 3756              		.cfi_register 65, 0
 3757              	.LBB1841:
 3758              	.LBB1842:
 3759              	.LBB1843:
 3760              		.loc 1 946 0
 3761 0008 3D200000 		lis 9,_ZTVN7sigslot13_signal_base3IP10GuiElementiiNS_15single_threadedEEE+8@ha
 3762              	.LBE1843:
 3763              	.LBE1842:
 3764              	.LBE1841:
 3765              		.loc 1 943 0
 3766 000c 93810018 		stw 28,24(1)
 3767 0010 7C7C1B78 		mr 28,3
 3768              		.cfi_offset 28, -16
 3769              	.LVL321:
 3770 0014 9001002C 		stw 0,44(1)
 3771              	.LBB1928:
 3772              	.LBB1924:
 3773              	.LBB1920:
 3774              		.loc 1 946 0
 3775 0018 38090008 		la 0,_ZTVN7sigslot13_signal_base3IP10GuiElementiiNS_15single_threadedEEE+8@l(9)
 3776              		.cfi_offset 65, 4
 3777              	.LBE1920:
 3778              	.LBE1924:
 3779              	.LBE1928:
 3780              		.loc 1 943 0
 3781 001c 93A1001C 		stw 29,28(1)
 3782 0020 3BA30004 		addi 29,3,4
 3783              		.cfi_offset 29, -12
 3784 0024 93C10020 		stw 30,32(1)
 3785 0028 93E10024 		stw 31,36(1)
 3786              	.LBB1929:
 3787              	.LBB1925:
 3788              	.LBB1921:
 3789              		.loc 1 946 0
 3790 002c 90030000 		stw 0,0(3)
 3791              	.LVL322:
 3792              	.LEHB20:
 3793              	.LBB1844:
 3794              	.LBB1845:
 3795              	.LBB1846:
 3796              	.LBB1847:
 3797              		.loc 1 338 0
 3798              		.cfi_offset 31, -4
 3799              		.cfi_offset 30, -8
 3800 0030 48000001 		bl _ZN7sigslot15single_threaded4lockEv
 3801              	.LEHE20:
 3802              	.LVL323:
 3803              	.LBE1847:
 3804              	.LBE1846:
 3805              	.LBE1845:
 3806              		.loc 3 56 0
 3807 0034 7F9DE378 		mr 29,28
 3808 0038 87FD0004 		lwzu 31,4(29)
 3809              	.LVL324:
 3810              	.LBB1878:
 3811              		.loc 1 954 0
 3812 003c 7F9FE800 		cmpw 7,31,29
 3813 0040 419E00A8 		beq- 7,.L229
 3814              	.LVL325:
 3815              	.L267:
 3816              		.loc 1 956 0
 3817 0044 807F0008 		lwz 3,8(31)
 3818 0048 81230000 		lwz 9,0(3)
 3819 004c 80090008 		lwz 0,8(9)
 3820 0050 7C0903A6 		mtctr 0
 3821              	.LEHB21:
 3822 0054 4E800421 		bctrl
 3823              	.LBB1848:
 3824              	.LBB1849:
 3825              	.LBB1850:
 3826              	.LBB1851:
 3827              		.loc 1 338 0
 3828 0058 81230000 		lwz 9,0(3)
 3829              	.LBE1851:
 3830              	.LBE1850:
 3831              	.LBE1849:
 3832              	.LBE1848:
 3833              		.loc 1 956 0
 3834 005c 7C7E1B78 		mr 30,3
 3835              	.LVL326:
 3836 0060 93810008 		stw 28,8(1)
 3837              	.LVL327:
 3838              	.LBB1860:
 3839              	.LBB1859:
 3840              	.LBB1853:
 3841              	.LBB1852:
 3842              		.loc 1 338 0
 3843 0064 80090008 		lwz 0,8(9)
 3844 0068 7C0903A6 		mtctr 0
 3845 006c 4E800421 		bctrl
 3846              	.LVL328:
 3847              	.LBE1852:
 3848              	.LBE1853:
 3849              	.LBB1854:
 3850              	.LBB1855:
 3851              		.file 10 "d:\\devkitpro\\devkitppc\\bin\\../lib/gcc/powerpc-eabi/4.6.3/../../../../powerpc-eabi/in
 3852              		.loc 10 528 0
 3853 0070 387E0004 		addi 3,30,4
 3854 0074 38810008 		addi 4,1,8
 3855 0078 48000001 		bl _ZNSt8_Rb_treeIPN7sigslot12_signal_baseINS0_15single_threadedEEES4_St9_IdentityIS4_ESt4lessIS4_
 3856              	.LVL329:
 3857              	.LBE1855:
 3858              	.LBE1854:
 3859              	.LBB1856:
 3860              	.LBB1857:
 3861              	.LBB1858:
 3862              		.loc 1 343 0
 3863 007c 813E0000 		lwz 9,0(30)
 3864 0080 7FC3F378 		mr 3,30
 3865 0084 8009000C 		lwz 0,12(9)
 3866 0088 7C0903A6 		mtctr 0
 3867 008c 4E800421 		bctrl
 3868              	.LVL330:
 3869              	.LBE1858:
 3870              	.LBE1857:
 3871              	.LBE1856:
 3872              	.LBE1859:
 3873              	.LBE1860:
 3874              		.loc 1 957 0
 3875 0090 807F0008 		lwz 3,8(31)
 3876 0094 2F830000 		cmpwi 7,3,0
 3877 0098 419E0014 		beq- 7,.L231
 3878 009c 81230000 		lwz 9,0(3)
 3879 00a0 80090004 		lwz 0,4(9)
 3880 00a4 7C0903A6 		mtctr 0
 3881 00a8 4E800421 		bctrl
 3882              	.LEHE21:
 3883              	.L231:
 3884              	.LVL331:
 3885              	.LBB1861:
 3886              	.LBB1862:
 3887              		.loc 4 234 0
 3888 00ac 83FF0000 		lwz 31,0(31)
 3889              	.LVL332:
 3890              	.LBE1862:
 3891              	.LBE1861:
 3892              		.loc 1 954 0
 3893 00b0 7F9DF800 		cmpw 7,29,31
 3894 00b4 409EFF90 		bne+ 7,.L267
 3895              	.LBE1878:
 3896              		.loc 3 56 0
 3897 00b8 83FC0004 		lwz 31,4(28)
 3898              	.LVL333:
 3899              	.LBB1879:
 3900              	.LBB1863:
 3901              	.LBB1864:
 3902              		.loc 4 1162 0
 3903 00bc 7F9DF800 		cmpw 7,29,31
 3904 00c0 40BE000C 		bne+ 7,.L269
 3905 00c4 48000024 		b .L229
 3906              	.LVL334:
 3907              	.L262:
 3908              		.loc 4 1163 0
 3909 00c8 7FDFF378 		mr 31,30
 3910              	.LVL335:
 3911              	.L269:
 3912              	.LBB1865:
 3913              	.LBB1866:
 3914              		.file 11 "d:\\devkitpro\\devkitppc\\bin\\../lib/gcc/powerpc-eabi/4.6.3/../../../../powerpc-eabi/in
 3915              		.loc 11 112 0
 3916 00cc 83DF0000 		lwz 30,0(31)
 3917              	.LVL336:
 3918              	.LBB1867:
 3919              	.LBB1868:
 3920              		.loc 4 1532 0
 3921 00d0 7FE3FB78 		mr 3,31
 3922 00d4 48000001 		bl _ZNSt8__detail15_List_node_base9_M_unhookEv
 3923              	.LVL337:
 3924              	.LBB1869:
 3925              	.LBB1870:
 3926              	.LBB1871:
 3927              		.loc 7 98 0
 3928 00d8 7FE3FB78 		mr 3,31
 3929 00dc 48000001 		bl _ZdlPv
 3930              	.LVL338:
 3931              	.LBE1871:
 3932              	.LBE1870:
 3933              	.LBE1869:
 3934              	.LBE1868:
 3935              	.LBE1867:
 3936              	.LBE1866:
 3937              	.LBE1865:
 3938              		.loc 4 1162 0
 3939 00e0 7F9DF000 		cmpw 7,29,30
 3940 00e4 409EFFE4 		bne+ 7,.L262
 3941              	.LVL339:
 3942              	.L229:
 3943              	.LBE1864:
 3944              	.LBE1863:
 3945              	.LBB1872:
 3946              	.LBB1873:
 3947              	.LBB1874:
 3948              		.loc 1 343 0
 3949 00e8 813C0000 		lwz 9,0(28)
 3950 00ec 7F83E378 		mr 3,28
 3951 00f0 8009000C 		lwz 0,12(9)
 3952 00f4 7C0903A6 		mtctr 0
 3953              	.LEHB22:
 3954 00f8 4E800421 		bctrl
 3955              	.LEHE22:
 3956              	.LVL340:
 3957              	.LBE1874:
 3958              	.LBE1873:
 3959              	.LBE1872:
 3960              	.LBE1879:
 3961              	.LBE1844:
 3962              	.LBB1881:
 3963              	.LBB1882:
 3964              	.LBB1883:
 3965              	.LBB1884:
 3966              	.LBB1885:
 3967              	.LBB1886:
 3968              		.loc 11 70 0
 3969 00fc 807C0004 		lwz 3,4(28)
 3970              	.LVL341:
 3971              		.loc 11 71 0
 3972 0100 7F83E800 		cmpw 7,3,29
 3973 0104 40BE000C 		bne+ 7,.L271
 3974 0108 48000018 		b .L247
 3975              	.LVL342:
 3976              	.L263:
 3977              		.loc 11 74 0
 3978 010c 7FE3FB78 		mr 3,31
 3979              	.LVL343:
 3980              	.L271:
 3981              	.LBB1887:
 3982 0110 83E30000 		lwz 31,0(3)
 3983              	.LVL344:
 3984              	.LBB1888:
 3985              	.LBB1889:
 3986              	.LBB1890:
 3987              		.loc 7 98 0
 3988 0114 48000001 		bl _ZdlPv
 3989              	.LVL345:
 3990              	.LBE1890:
 3991              	.LBE1889:
 3992              	.LBE1888:
 3993              	.LBE1887:
 3994              		.loc 11 71 0
 3995 0118 7F9FE800 		cmpw 7,31,29
 3996 011c 409EFFF0 		bne+ 7,.L263
 3997              	.LVL346:
 3998              	.L247:
 3999              	.LBE1886:
 4000              	.LBE1885:
 4001              	.LBE1884:
 4002              	.LBE1883:
 4003              	.LBE1882:
 4004              	.LBE1881:
 4005              	.LBB1891:
 4006              	.LBB1892:
 4007              	.LBB1893:
 4008              	.LBB1894:
 4009              	.LBB1895:
 4010              	.LBB1896:
 4011              		.loc 1 105 0
 4012 0120 3D200000 		lis 9,_ZTVN7sigslot15single_threadedE+8@ha
 4013              	.LBE1896:
 4014              	.LBE1895:
 4015              	.LBE1894:
 4016              	.LBE1893:
 4017              	.LBE1892:
 4018              	.LBE1891:
 4019              	.LBE1921:
 4020              	.LBE1925:
 4021              	.LBE1929:
 4022              		.loc 1 946 0
 4023 0124 7F83E378 		mr 3,28
 4024              	.LBB1930:
 4025              	.LBB1926:
 4026              	.LBB1922:
 4027              	.LBB1902:
 4028              	.LBB1901:
 4029              	.LBB1900:
 4030              	.LBB1899:
 4031              	.LBB1898:
 4032              	.LBB1897:
 4033              		.loc 1 105 0
 4034 0128 38090008 		la 0,_ZTVN7sigslot15single_threadedE+8@l(9)
 4035 012c 901C0000 		stw 0,0(28)
 4036              	.LBE1897:
 4037              	.LBE1898:
 4038              	.LBE1899:
 4039              	.LBE1900:
 4040              	.LBE1901:
 4041              	.LBE1902:
 4042              	.LBE1922:
 4043              	.LBE1926:
 4044              	.LBE1930:
 4045              		.loc 1 946 0
 4046 0130 48000001 		bl _ZdlPv
 4047 0134 8001002C 		lwz 0,44(1)
 4048 0138 83810018 		lwz 28,24(1)
 4049              	.LVL347:
 4050 013c 7C0803A6 		mtlr 0
 4051 0140 83A1001C 		lwz 29,28(1)
 4052              	.LVL348:
 4053 0144 83C10020 		lwz 30,32(1)
 4054 0148 83E10024 		lwz 31,36(1)
 4055 014c 38210028 		addi 1,1,40
 4056              		.cfi_remember_state
 4057              	.LCFI47:
 4058              		.cfi_def_cfa_offset 0
 4059              		.cfi_restore 31
 4060              		.cfi_restore 30
 4061              		.cfi_restore 29
 4062              		.cfi_restore 28
 4063 0150 4E800020 		blr
 4064              	.LVL349:
 4065              	.L265:
 4066              	.LCFI48:
 4067              		.cfi_restore_state
 4068 0154 7C7F1B78 		mr 31,3
 4069              	.L239:
 4070              	.LVL350:
 4071              	.LBB1931:
 4072              	.LBB1927:
 4073              	.LBB1923:
 4074              	.LBB1903:
 4075              	.LBB1904:
 4076              	.LBB1905:
 4077              	.LBB1906:
 4078              	.LBB1907:
 4079              	.LBB1908:
 4080              		.loc 11 70 0
 4081 0158 807C0004 		lwz 3,4(28)
 4082              	.LVL351:
 4083              		.loc 11 71 0
 4084 015c 7F83E800 		cmpw 7,3,29
 4085 0160 419E0038 		beq- 7,.L256
 4086              	.LVL352:
 4087              	.L272:
 4088              	.LBB1909:
 4089              		.loc 11 74 0
 4090 0164 83C30000 		lwz 30,0(3)
 4091              	.LVL353:
 4092              	.LBB1910:
 4093              	.LBB1911:
 4094              	.LBB1912:
 4095              		.loc 7 98 0
 4096 0168 48000001 		bl _ZdlPv
 4097              	.LVL354:
 4098              	.LBE1912:
 4099              	.LBE1911:
 4100              	.LBE1910:
 4101              	.LBE1909:
 4102              		.loc 11 71 0
 4103 016c 7F9EE800 		cmpw 7,30,29
 4104 0170 419E0028 		beq- 7,.L256
 4105              		.loc 11 74 0
 4106 0174 7FC3F378 		mr 3,30
 4107 0178 4BFFFFEC 		b .L272
 4108              	.LVL355:
 4109              	.L266:
 4110              	.LBE1908:
 4111              	.LBE1907:
 4112              	.LBE1906:
 4113              	.LBE1905:
 4114              	.LBE1904:
 4115              	.LBE1903:
 4116              	.LBB1913:
 4117              	.LBB1880:
 4118              	.LBB1875:
 4119              	.LBB1876:
 4120              	.LBB1877:
 4121              		.loc 1 343 0
 4122 017c 813C0000 		lwz 9,0(28)
 4123 0180 7C7F1B78 		mr 31,3
 4124              	.LVL356:
 4125 0184 7F83E378 		mr 3,28
 4126 0188 8009000C 		lwz 0,12(9)
 4127 018c 7C0903A6 		mtctr 0
 4128 0190 4E800421 		bctrl
 4129 0194 4BFFFFC4 		b .L239
 4130              	.LVL357:
 4131              	.L256:
 4132              	.LBE1877:
 4133              	.LBE1876:
 4134              	.LBE1875:
 4135              	.LBE1880:
 4136              	.LBE1913:
 4137              	.LBB1914:
 4138              	.LBB1915:
 4139              	.LBB1916:
 4140              	.LBB1917:
 4141              	.LBB1918:
 4142              	.LBB1919:
 4143              		.loc 1 105 0
 4144 0198 3D200000 		lis 9,_ZTVN7sigslot15single_threadedE+8@ha
 4145 019c 7FE3FB78 		mr 3,31
 4146 01a0 38090008 		la 0,_ZTVN7sigslot15single_threadedE+8@l(9)
 4147 01a4 901C0000 		stw 0,0(28)
 4148              	.LEHB23:
 4149 01a8 48000001 		bl _Unwind_Resume
 4150              	.LEHE23:
 4151              	.LBE1919:
 4152              	.LBE1918:
 4153              	.LBE1917:
 4154              	.LBE1916:
 4155              	.LBE1915:
 4156              	.LBE1914:
 4157              	.LBE1923:
 4158              	.LBE1927:
 4159              	.LBE1931:
 4160              		.cfi_endproc
 4161              	.LFE1518:
 4162              		.section	.gcc_except_table
 4163              	.LLSDA1518:
 4164 0073 FF       		.byte	0xff
 4165 0074 FF       		.byte	0xff
 4166 0075 01       		.byte	0x1
 4167 0076 15       		.uleb128 .LLSDACSE1518-.LLSDACSB1518
 4168              	.LLSDACSB1518:
 4169 0077 30       		.uleb128 .LEHB20-.LFB1518
 4170 0078 04       		.uleb128 .LEHE20-.LEHB20
 4171 0079 D402     		.uleb128 .L265-.LFB1518
 4172 007b 00       		.uleb128 0
 4173 007c 54       		.uleb128 .LEHB21-.LFB1518
 4174 007d 58       		.uleb128 .LEHE21-.LEHB21
 4175 007e FC02     		.uleb128 .L266-.LFB1518
 4176 0080 00       		.uleb128 0
 4177 0081 F801     		.uleb128 .LEHB22-.LFB1518
 4178 0083 04       		.uleb128 .LEHE22-.LEHB22
 4179 0084 D402     		.uleb128 .L265-.LFB1518
 4180 0086 00       		.uleb128 0
 4181 0087 A803     		.uleb128 .LEHB23-.LFB1518
 4182 0089 04       		.uleb128 .LEHE23-.LEHB23
 4183 008a 00       		.uleb128 0
 4184 008b 00       		.uleb128 0
 4185              	.LLSDACSE1518:
 4186              		.section	.text._ZN7sigslot13_signal_base3IP10GuiElementiiNS_15single_threadedEED0Ev,"axG",@progbit
 4187              		.size	_ZN7sigslot13_signal_base3IP10GuiElementiiNS_15single_threadedEED0Ev, .-_ZN7sigslot13_signal
 4188              		.section	.text._ZN7sigslot13_signal_base2IP10GuiElementbNS_15single_threadedEED0Ev,"axG",@progbits
 4189              		.align 2
 4190              		.weak	_ZN7sigslot13_signal_base2IP10GuiElementbNS_15single_threadedEED0Ev
 4191              		.type	_ZN7sigslot13_signal_base2IP10GuiElementbNS_15single_threadedEED0Ev, @function
 4192              	_ZN7sigslot13_signal_base2IP10GuiElementbNS_15single_threadedEED0Ev:
 4193              	.LFB1511:
 4194              		.loc 1 823 0
 4195              		.cfi_startproc
 4196              		.cfi_personality 0,__gxx_personality_v0
 4197              		.cfi_lsda 0,.LLSDA1511
 4198              	.LVL358:
 4199 0000 7C0802A6 		mflr 0
 4200 0004 9421FFD8 		stwu 1,-40(1)
 4201              	.LCFI49:
 4202              		.cfi_def_cfa_offset 40
 4203              		.cfi_register 65, 0
 4204              	.LBB2027:
 4205              	.LBB2028:
 4206              	.LBB2029:
 4207              		.loc 1 826 0
 4208 0008 3D200000 		lis 9,_ZTVN7sigslot13_signal_base2IP10GuiElementbNS_15single_threadedEEE+8@ha
 4209              	.LBE2029:
 4210              	.LBE2028:
 4211              	.LBE2027:
 4212              		.loc 1 823 0
 4213 000c 93810018 		stw 28,24(1)
 4214 0010 7C7C1B78 		mr 28,3
 4215              		.cfi_offset 28, -16
 4216              	.LVL359:
 4217 0014 9001002C 		stw 0,44(1)
 4218              	.LBB2114:
 4219              	.LBB2110:
 4220              	.LBB2106:
 4221              		.loc 1 826 0
 4222 0018 38090008 		la 0,_ZTVN7sigslot13_signal_base2IP10GuiElementbNS_15single_threadedEEE+8@l(9)
 4223              		.cfi_offset 65, 4
 4224              	.LBE2106:
 4225              	.LBE2110:
 4226              	.LBE2114:
 4227              		.loc 1 823 0
 4228 001c 93A1001C 		stw 29,28(1)
 4229 0020 3BA30004 		addi 29,3,4
 4230              		.cfi_offset 29, -12
 4231 0024 93C10020 		stw 30,32(1)
 4232 0028 93E10024 		stw 31,36(1)
 4233              	.LBB2115:
 4234              	.LBB2111:
 4235              	.LBB2107:
 4236              		.loc 1 826 0
 4237 002c 90030000 		stw 0,0(3)
 4238              	.LVL360:
 4239              	.LEHB24:
 4240              	.LBB2030:
 4241              	.LBB2031:
 4242              	.LBB2032:
 4243              	.LBB2033:
 4244              		.loc 1 338 0
 4245              		.cfi_offset 31, -4
 4246              		.cfi_offset 30, -8
 4247 0030 48000001 		bl _ZN7sigslot15single_threaded4lockEv
 4248              	.LEHE24:
 4249              	.LVL361:
 4250              	.LBE2033:
 4251              	.LBE2032:
 4252              	.LBE2031:
 4253              		.loc 3 56 0
 4254 0034 7F9DE378 		mr 29,28
 4255              	.LVL362:
 4256 0038 87FD0004 		lwzu 31,4(29)
 4257              	.LVL363:
 4258              	.LBB2064:
 4259              		.loc 1 834 0
 4260 003c 7F9FE800 		cmpw 7,31,29
 4261 0040 419E00A8 		beq- 7,.L274
 4262              	.LVL364:
 4263              	.L312:
 4264              		.loc 1 836 0
 4265 0044 807F0008 		lwz 3,8(31)
 4266 0048 81230000 		lwz 9,0(3)
 4267 004c 80090008 		lwz 0,8(9)
 4268 0050 7C0903A6 		mtctr 0
 4269              	.LEHB25:
 4270 0054 4E800421 		bctrl
 4271              	.LBB2034:
 4272              	.LBB2035:
 4273              	.LBB2036:
 4274              	.LBB2037:
 4275              		.loc 1 338 0
 4276 0058 81230000 		lwz 9,0(3)
 4277              	.LBE2037:
 4278              	.LBE2036:
 4279              	.LBE2035:
 4280              	.LBE2034:
 4281              		.loc 1 836 0
 4282 005c 7C7E1B78 		mr 30,3
 4283              	.LVL365:
 4284 0060 93810008 		stw 28,8(1)
 4285              	.LVL366:
 4286              	.LBB2046:
 4287              	.LBB2045:
 4288              	.LBB2039:
 4289              	.LBB2038:
 4290              		.loc 1 338 0
 4291 0064 80090008 		lwz 0,8(9)
 4292 0068 7C0903A6 		mtctr 0
 4293 006c 4E800421 		bctrl
 4294              	.LVL367:
 4295              	.LBE2038:
 4296              	.LBE2039:
 4297              	.LBB2040:
 4298              	.LBB2041:
 4299              		.loc 10 528 0
 4300 0070 387E0004 		addi 3,30,4
 4301 0074 38810008 		addi 4,1,8
 4302 0078 48000001 		bl _ZNSt8_Rb_treeIPN7sigslot12_signal_baseINS0_15single_threadedEEES4_St9_IdentityIS4_ESt4lessIS4_
 4303              	.LVL368:
 4304              	.LBE2041:
 4305              	.LBE2040:
 4306              	.LBB2042:
 4307              	.LBB2043:
 4308              	.LBB2044:
 4309              		.loc 1 343 0
 4310 007c 813E0000 		lwz 9,0(30)
 4311 0080 7FC3F378 		mr 3,30
 4312 0084 8009000C 		lwz 0,12(9)
 4313 0088 7C0903A6 		mtctr 0
 4314 008c 4E800421 		bctrl
 4315              	.LVL369:
 4316              	.LBE2044:
 4317              	.LBE2043:
 4318              	.LBE2042:
 4319              	.LBE2045:
 4320              	.LBE2046:
 4321              		.loc 1 837 0
 4322 0090 807F0008 		lwz 3,8(31)
 4323 0094 2F830000 		cmpwi 7,3,0
 4324 0098 419E0014 		beq- 7,.L276
 4325 009c 81230000 		lwz 9,0(3)
 4326 00a0 80090004 		lwz 0,4(9)
 4327 00a4 7C0903A6 		mtctr 0
 4328 00a8 4E800421 		bctrl
 4329              	.LEHE25:
 4330              	.L276:
 4331              	.LVL370:
 4332              	.LBB2047:
 4333              	.LBB2048:
 4334              		.loc 4 234 0
 4335 00ac 83FF0000 		lwz 31,0(31)
 4336              	.LVL371:
 4337              	.LBE2048:
 4338              	.LBE2047:
 4339              		.loc 1 834 0
 4340 00b0 7F9DF800 		cmpw 7,29,31
 4341 00b4 409EFF90 		bne+ 7,.L312
 4342              	.LBE2064:
 4343              		.loc 3 56 0
 4344 00b8 83FC0004 		lwz 31,4(28)
 4345              	.LVL372:
 4346              	.LBB2065:
 4347              	.LBB2049:
 4348              	.LBB2050:
 4349              		.loc 4 1162 0
 4350 00bc 7F9DF800 		cmpw 7,29,31
 4351 00c0 40BE000C 		bne+ 7,.L314
 4352 00c4 48000024 		b .L274
 4353              	.LVL373:
 4354              	.L307:
 4355              		.loc 4 1163 0
 4356 00c8 7FDFF378 		mr 31,30
 4357              	.LVL374:
 4358              	.L314:
 4359              	.LBB2051:
 4360              	.LBB2052:
 4361              		.loc 11 112 0
 4362 00cc 83DF0000 		lwz 30,0(31)
 4363              	.LVL375:
 4364              	.LBB2053:
 4365              	.LBB2054:
 4366              		.loc 4 1532 0
 4367 00d0 7FE3FB78 		mr 3,31
 4368 00d4 48000001 		bl _ZNSt8__detail15_List_node_base9_M_unhookEv
 4369              	.LVL376:
 4370              	.LBB2055:
 4371              	.LBB2056:
 4372              	.LBB2057:
 4373              		.loc 7 98 0
 4374 00d8 7FE3FB78 		mr 3,31
 4375 00dc 48000001 		bl _ZdlPv
 4376              	.LVL377:
 4377              	.LBE2057:
 4378              	.LBE2056:
 4379              	.LBE2055:
 4380              	.LBE2054:
 4381              	.LBE2053:
 4382              	.LBE2052:
 4383              	.LBE2051:
 4384              		.loc 4 1162 0
 4385 00e0 7F9DF000 		cmpw 7,29,30
 4386 00e4 409EFFE4 		bne+ 7,.L307
 4387              	.LVL378:
 4388              	.L274:
 4389              	.LBE2050:
 4390              	.LBE2049:
 4391              	.LBB2058:
 4392              	.LBB2059:
 4393              	.LBB2060:
 4394              		.loc 1 343 0
 4395 00e8 813C0000 		lwz 9,0(28)
 4396 00ec 7F83E378 		mr 3,28
 4397 00f0 8009000C 		lwz 0,12(9)
 4398 00f4 7C0903A6 		mtctr 0
 4399              	.LEHB26:
 4400 00f8 4E800421 		bctrl
 4401              	.LEHE26:
 4402              	.LVL379:
 4403              	.LBE2060:
 4404              	.LBE2059:
 4405              	.LBE2058:
 4406              	.LBE2065:
 4407              	.LBE2030:
 4408              	.LBB2067:
 4409              	.LBB2068:
 4410              	.LBB2069:
 4411              	.LBB2070:
 4412              	.LBB2071:
 4413              	.LBB2072:
 4414              		.loc 11 70 0
 4415 00fc 807C0004 		lwz 3,4(28)
 4416              	.LVL380:
 4417              		.loc 11 71 0
 4418 0100 7F83E800 		cmpw 7,3,29
 4419 0104 40BE000C 		bne+ 7,.L316
 4420 0108 48000018 		b .L292
 4421              	.LVL381:
 4422              	.L308:
 4423              		.loc 11 74 0
 4424 010c 7FE3FB78 		mr 3,31
 4425              	.LVL382:
 4426              	.L316:
 4427              	.LBB2073:
 4428 0110 83E30000 		lwz 31,0(3)
 4429              	.LVL383:
 4430              	.LBB2074:
 4431              	.LBB2075:
 4432              	.LBB2076:
 4433              		.loc 7 98 0
 4434 0114 48000001 		bl _ZdlPv
 4435              	.LVL384:
 4436              	.LBE2076:
 4437              	.LBE2075:
 4438              	.LBE2074:
 4439              	.LBE2073:
 4440              		.loc 11 71 0
 4441 0118 7F9FE800 		cmpw 7,31,29
 4442 011c 409EFFF0 		bne+ 7,.L308
 4443              	.LVL385:
 4444              	.L292:
 4445              	.LBE2072:
 4446              	.LBE2071:
 4447              	.LBE2070:
 4448              	.LBE2069:
 4449              	.LBE2068:
 4450              	.LBE2067:
 4451              	.LBB2077:
 4452              	.LBB2078:
 4453              	.LBB2079:
 4454              	.LBB2080:
 4455              	.LBB2081:
 4456              	.LBB2082:
 4457              		.loc 1 105 0
 4458 0120 3D200000 		lis 9,_ZTVN7sigslot15single_threadedE+8@ha
 4459              	.LBE2082:
 4460              	.LBE2081:
 4461              	.LBE2080:
 4462              	.LBE2079:
 4463              	.LBE2078:
 4464              	.LBE2077:
 4465              	.LBE2107:
 4466              	.LBE2111:
 4467              	.LBE2115:
 4468              		.loc 1 826 0
 4469 0124 7F83E378 		mr 3,28
 4470              	.LBB2116:
 4471              	.LBB2112:
 4472              	.LBB2108:
 4473              	.LBB2088:
 4474              	.LBB2087:
 4475              	.LBB2086:
 4476              	.LBB2085:
 4477              	.LBB2084:
 4478              	.LBB2083:
 4479              		.loc 1 105 0
 4480 0128 38090008 		la 0,_ZTVN7sigslot15single_threadedE+8@l(9)
 4481 012c 901C0000 		stw 0,0(28)
 4482              	.LBE2083:
 4483              	.LBE2084:
 4484              	.LBE2085:
 4485              	.LBE2086:
 4486              	.LBE2087:
 4487              	.LBE2088:
 4488              	.LBE2108:
 4489              	.LBE2112:
 4490              	.LBE2116:
 4491              		.loc 1 826 0
 4492 0130 48000001 		bl _ZdlPv
 4493 0134 8001002C 		lwz 0,44(1)
 4494 0138 83810018 		lwz 28,24(1)
 4495              	.LVL386:
 4496 013c 7C0803A6 		mtlr 0
 4497 0140 83A1001C 		lwz 29,28(1)
 4498              	.LVL387:
 4499 0144 83C10020 		lwz 30,32(1)
 4500 0148 83E10024 		lwz 31,36(1)
 4501 014c 38210028 		addi 1,1,40
 4502              		.cfi_remember_state
 4503              	.LCFI50:
 4504              		.cfi_def_cfa_offset 0
 4505              		.cfi_restore 31
 4506              		.cfi_restore 30
 4507              		.cfi_restore 29
 4508              		.cfi_restore 28
 4509 0150 4E800020 		blr
 4510              	.LVL388:
 4511              	.L310:
 4512              	.LCFI51:
 4513              		.cfi_restore_state
 4514 0154 7C7F1B78 		mr 31,3
 4515              	.L284:
 4516              	.LVL389:
 4517              	.LBB2117:
 4518              	.LBB2113:
 4519              	.LBB2109:
 4520              	.LBB2089:
 4521              	.LBB2090:
 4522              	.LBB2091:
 4523              	.LBB2092:
 4524              	.LBB2093:
 4525              	.LBB2094:
 4526              		.loc 11 70 0
 4527 0158 807C0004 		lwz 3,4(28)
 4528              	.LVL390:
 4529              		.loc 11 71 0
 4530 015c 7F83E800 		cmpw 7,3,29
 4531 0160 419E0038 		beq- 7,.L301
 4532              	.LVL391:
 4533              	.L317:
 4534              	.LBB2095:
 4535              		.loc 11 74 0
 4536 0164 83C30000 		lwz 30,0(3)
 4537              	.LVL392:
 4538              	.LBB2096:
 4539              	.LBB2097:
 4540              	.LBB2098:
 4541              		.loc 7 98 0
 4542 0168 48000001 		bl _ZdlPv
 4543              	.LVL393:
 4544              	.LBE2098:
 4545              	.LBE2097:
 4546              	.LBE2096:
 4547              	.LBE2095:
 4548              		.loc 11 71 0
 4549 016c 7F9EE800 		cmpw 7,30,29
 4550 0170 419E0028 		beq- 7,.L301
 4551              		.loc 11 74 0
 4552 0174 7FC3F378 		mr 3,30
 4553 0178 4BFFFFEC 		b .L317
 4554              	.LVL394:
 4555              	.L311:
 4556              	.LBE2094:
 4557              	.LBE2093:
 4558              	.LBE2092:
 4559              	.LBE2091:
 4560              	.LBE2090:
 4561              	.LBE2089:
 4562              	.LBB2099:
 4563              	.LBB2066:
 4564              	.LBB2061:
 4565              	.LBB2062:
 4566              	.LBB2063:
 4567              		.loc 1 343 0
 4568 017c 813C0000 		lwz 9,0(28)
 4569 0180 7C7F1B78 		mr 31,3
 4570              	.LVL395:
 4571 0184 7F83E378 		mr 3,28
 4572 0188 8009000C 		lwz 0,12(9)
 4573 018c 7C0903A6 		mtctr 0
 4574 0190 4E800421 		bctrl
 4575 0194 4BFFFFC4 		b .L284
 4576              	.LVL396:
 4577              	.L301:
 4578              	.LBE2063:
 4579              	.LBE2062:
 4580              	.LBE2061:
 4581              	.LBE2066:
 4582              	.LBE2099:
 4583              	.LBB2100:
 4584              	.LBB2101:
 4585              	.LBB2102:
 4586              	.LBB2103:
 4587              	.LBB2104:
 4588              	.LBB2105:
 4589              		.loc 1 105 0
 4590 0198 3D200000 		lis 9,_ZTVN7sigslot15single_threadedE+8@ha
 4591 019c 7FE3FB78 		mr 3,31
 4592 01a0 38090008 		la 0,_ZTVN7sigslot15single_threadedE+8@l(9)
 4593 01a4 901C0000 		stw 0,0(28)
 4594              	.LEHB27:
 4595 01a8 48000001 		bl _Unwind_Resume
 4596              	.LEHE27:
 4597              	.LBE2105:
 4598              	.LBE2104:
 4599              	.LBE2103:
 4600              	.LBE2102:
 4601              	.LBE2101:
 4602              	.LBE2100:
 4603              	.LBE2109:
 4604              	.LBE2113:
 4605              	.LBE2117:
 4606              		.cfi_endproc
 4607              	.LFE1511:
 4608              		.section	.gcc_except_table
 4609              	.LLSDA1511:
 4610 008c FF       		.byte	0xff
 4611 008d FF       		.byte	0xff
 4612 008e 01       		.byte	0x1
 4613 008f 15       		.uleb128 .LLSDACSE1511-.LLSDACSB1511
 4614              	.LLSDACSB1511:
 4615 0090 30       		.uleb128 .LEHB24-.LFB1511
 4616 0091 04       		.uleb128 .LEHE24-.LEHB24
 4617 0092 D402     		.uleb128 .L310-.LFB1511
 4618 0094 00       		.uleb128 0
 4619 0095 54       		.uleb128 .LEHB25-.LFB1511
 4620 0096 58       		.uleb128 .LEHE25-.LEHB25
 4621 0097 FC02     		.uleb128 .L311-.LFB1511
 4622 0099 00       		.uleb128 0
 4623 009a F801     		.uleb128 .LEHB26-.LFB1511
 4624 009c 04       		.uleb128 .LEHE26-.LEHB26
 4625 009d D402     		.uleb128 .L310-.LFB1511
 4626 009f 00       		.uleb128 0
 4627 00a0 A803     		.uleb128 .LEHB27-.LFB1511
 4628 00a2 04       		.uleb128 .LEHE27-.LEHB27
 4629 00a3 00       		.uleb128 0
 4630 00a4 00       		.uleb128 0
 4631              	.LLSDACSE1511:
 4632              		.section	.text._ZN7sigslot13_signal_base2IP10GuiElementbNS_15single_threadedEED0Ev,"axG",@progbits
 4633              		.size	_ZN7sigslot13_signal_base2IP10GuiElementbNS_15single_threadedEED0Ev, .-_ZN7sigslot13_signal_
 4634              		.section	.text._ZN7sigslot13_signal_base3IP10GuiElementiiNS_15single_threadedEED2Ev,"axG",@progbit
 4635              		.align 2
 4636              		.weak	_ZN7sigslot13_signal_base3IP10GuiElementiiNS_15single_threadedEED2Ev
 4637              		.type	_ZN7sigslot13_signal_base3IP10GuiElementiiNS_15single_threadedEED2Ev, @function
 4638              	_ZN7sigslot13_signal_base3IP10GuiElementiiNS_15single_threadedEED2Ev:
 4639              	.LFB1516:
 4640              		.loc 1 943 0
 4641              		.cfi_startproc
 4642              		.cfi_personality 0,__gxx_personality_v0
 4643              		.cfi_lsda 0,.LLSDA1516
 4644              	.LVL397:
 4645 0000 7C0802A6 		mflr 0
 4646 0004 9421FFD8 		stwu 1,-40(1)
 4647              	.LCFI52:
 4648              		.cfi_def_cfa_offset 40
 4649              		.cfi_register 65, 0
 4650              	.LBB2264:
 4651              		.loc 1 946 0
 4652 0008 3D200000 		lis 9,_ZTVN7sigslot13_signal_base3IP10GuiElementiiNS_15single_threadedEEE+8@ha
 4653              	.LBE2264:
 4654              		.loc 1 943 0
 4655 000c 93810018 		stw 28,24(1)
 4656 0010 7C7C1B78 		mr 28,3
 4657              		.cfi_offset 28, -16
 4658 0014 9001002C 		stw 0,44(1)
 4659              	.LBB2347:
 4660              		.loc 1 946 0
 4661 0018 38090008 		la 0,_ZTVN7sigslot13_signal_base3IP10GuiElementiiNS_15single_threadedEEE+8@l(9)
 4662              		.cfi_offset 65, 4
 4663              	.LBE2347:
 4664              		.loc 1 943 0
 4665 001c 93A1001C 		stw 29,28(1)
 4666 0020 3BA30004 		addi 29,3,4
 4667              		.cfi_offset 29, -12
 4668 0024 93C10020 		stw 30,32(1)
 4669 0028 93E10024 		stw 31,36(1)
 4670              	.LBB2348:
 4671              		.loc 1 946 0
 4672 002c 90030000 		stw 0,0(3)
 4673              	.LVL398:
 4674              	.LEHB28:
 4675              	.LBB2265:
 4676              	.LBB2266:
 4677              	.LBB2267:
 4678              	.LBB2268:
 4679              		.loc 1 338 0
 4680              		.cfi_offset 31, -4
 4681              		.cfi_offset 30, -8
 4682 0030 48000001 		bl _ZN7sigslot15single_threaded4lockEv
 4683              	.LEHE28:
 4684              	.LVL399:
 4685              	.LBE2268:
 4686              	.LBE2267:
 4687              	.LBE2266:
 4688              		.loc 3 56 0
 4689 0034 7F9DE378 		mr 29,28
 4690 0038 87FD0004 		lwzu 31,4(29)
 4691              	.LVL400:
 4692              	.LBB2299:
 4693              		.loc 1 954 0
 4694 003c 7F9FE800 		cmpw 7,31,29
 4695 0040 419E00A8 		beq- 7,.L319
 4696              	.LVL401:
 4697              	.L356:
 4698              		.loc 1 956 0
 4699 0044 807F0008 		lwz 3,8(31)
 4700 0048 81230000 		lwz 9,0(3)
 4701 004c 80090008 		lwz 0,8(9)
 4702 0050 7C0903A6 		mtctr 0
 4703              	.LEHB29:
 4704 0054 4E800421 		bctrl
 4705              	.LBB2269:
 4706              	.LBB2270:
 4707              	.LBB2271:
 4708              	.LBB2272:
 4709              		.loc 1 338 0
 4710 0058 81230000 		lwz 9,0(3)
 4711              	.LBE2272:
 4712              	.LBE2271:
 4713              	.LBE2270:
 4714              	.LBE2269:
 4715              		.loc 1 956 0
 4716 005c 7C7E1B78 		mr 30,3
 4717              	.LVL402:
 4718 0060 93810008 		stw 28,8(1)
 4719              	.LVL403:
 4720              	.LBB2281:
 4721              	.LBB2280:
 4722              	.LBB2274:
 4723              	.LBB2273:
 4724              		.loc 1 338 0
 4725 0064 80090008 		lwz 0,8(9)
 4726 0068 7C0903A6 		mtctr 0
 4727 006c 4E800421 		bctrl
 4728              	.LVL404:
 4729              	.LBE2273:
 4730              	.LBE2274:
 4731              	.LBB2275:
 4732              	.LBB2276:
 4733              		.loc 10 528 0
 4734 0070 387E0004 		addi 3,30,4
 4735 0074 38810008 		addi 4,1,8
 4736 0078 48000001 		bl _ZNSt8_Rb_treeIPN7sigslot12_signal_baseINS0_15single_threadedEEES4_St9_IdentityIS4_ESt4lessIS4_
 4737              	.LVL405:
 4738              	.LBE2276:
 4739              	.LBE2275:
 4740              	.LBB2277:
 4741              	.LBB2278:
 4742              	.LBB2279:
 4743              		.loc 1 343 0
 4744 007c 813E0000 		lwz 9,0(30)
 4745 0080 7FC3F378 		mr 3,30
 4746 0084 8009000C 		lwz 0,12(9)
 4747 0088 7C0903A6 		mtctr 0
 4748 008c 4E800421 		bctrl
 4749              	.LVL406:
 4750              	.LBE2279:
 4751              	.LBE2278:
 4752              	.LBE2277:
 4753              	.LBE2280:
 4754              	.LBE2281:
 4755              		.loc 1 957 0
 4756 0090 807F0008 		lwz 3,8(31)
 4757 0094 2F830000 		cmpwi 7,3,0
 4758 0098 419E0014 		beq- 7,.L321
 4759 009c 81230000 		lwz 9,0(3)
 4760 00a0 80090004 		lwz 0,4(9)
 4761 00a4 7C0903A6 		mtctr 0
 4762 00a8 4E800421 		bctrl
 4763              	.LEHE29:
 4764              	.L321:
 4765              	.LVL407:
 4766              	.LBB2282:
 4767              	.LBB2283:
 4768              		.loc 4 234 0
 4769 00ac 83FF0000 		lwz 31,0(31)
 4770              	.LVL408:
 4771              	.LBE2283:
 4772              	.LBE2282:
 4773              		.loc 1 954 0
 4774 00b0 7F9DF800 		cmpw 7,29,31
 4775 00b4 409EFF90 		bne+ 7,.L356
 4776              	.LBE2299:
 4777              		.loc 3 56 0
 4778 00b8 83FC0004 		lwz 31,4(28)
 4779              	.LVL409:
 4780              	.LBB2300:
 4781              	.LBB2284:
 4782              	.LBB2285:
 4783              		.loc 4 1162 0
 4784 00bc 7F9DF800 		cmpw 7,29,31
 4785 00c0 40BE000C 		bne+ 7,.L358
 4786 00c4 48000024 		b .L319
 4787              	.LVL410:
 4788              	.L351:
 4789              		.loc 4 1163 0
 4790 00c8 7FDFF378 		mr 31,30
 4791              	.LVL411:
 4792              	.L358:
 4793              	.LBB2286:
 4794              	.LBB2287:
 4795              		.loc 11 112 0
 4796 00cc 83DF0000 		lwz 30,0(31)
 4797              	.LVL412:
 4798              	.LBB2288:
 4799              	.LBB2289:
 4800              		.loc 4 1532 0
 4801 00d0 7FE3FB78 		mr 3,31
 4802 00d4 48000001 		bl _ZNSt8__detail15_List_node_base9_M_unhookEv
 4803              	.LVL413:
 4804              	.LBB2290:
 4805              	.LBB2291:
 4806              	.LBB2292:
 4807              		.loc 7 98 0
 4808 00d8 7FE3FB78 		mr 3,31
 4809 00dc 48000001 		bl _ZdlPv
 4810              	.LVL414:
 4811              	.LBE2292:
 4812              	.LBE2291:
 4813              	.LBE2290:
 4814              	.LBE2289:
 4815              	.LBE2288:
 4816              	.LBE2287:
 4817              	.LBE2286:
 4818              		.loc 4 1162 0
 4819 00e0 7F9DF000 		cmpw 7,29,30
 4820 00e4 409EFFE4 		bne+ 7,.L351
 4821              	.LVL415:
 4822              	.L319:
 4823              	.LBE2285:
 4824              	.LBE2284:
 4825              	.LBB2293:
 4826              	.LBB2294:
 4827              	.LBB2295:
 4828              		.loc 1 343 0
 4829 00e8 813C0000 		lwz 9,0(28)
 4830 00ec 7F83E378 		mr 3,28
 4831 00f0 8009000C 		lwz 0,12(9)
 4832 00f4 7C0903A6 		mtctr 0
 4833              	.LEHB30:
 4834 00f8 4E800421 		bctrl
 4835              	.LEHE30:
 4836              	.LVL416:
 4837              	.LBE2295:
 4838              	.LBE2294:
 4839              	.LBE2293:
 4840              	.LBE2300:
 4841              	.LBE2265:
 4842              	.LBB2302:
 4843              	.LBB2303:
 4844              	.LBB2304:
 4845              	.LBB2305:
 4846              	.LBB2306:
 4847              	.LBB2307:
 4848              		.loc 11 70 0
 4849 00fc 807C0004 		lwz 3,4(28)
 4850              	.LVL417:
 4851              		.loc 11 71 0
 4852 0100 7F83E800 		cmpw 7,3,29
 4853 0104 40BE000C 		bne+ 7,.L360
 4854 0108 48000018 		b .L337
 4855              	.LVL418:
 4856              	.L352:
 4857              		.loc 11 74 0
 4858 010c 7FE3FB78 		mr 3,31
 4859              	.LVL419:
 4860              	.L360:
 4861              	.LBB2308:
 4862 0110 83E30000 		lwz 31,0(3)
 4863              	.LVL420:
 4864              	.LBB2309:
 4865              	.LBB2310:
 4866              	.LBB2311:
 4867              		.loc 7 98 0
 4868 0114 48000001 		bl _ZdlPv
 4869              	.LVL421:
 4870              	.LBE2311:
 4871              	.LBE2310:
 4872              	.LBE2309:
 4873              	.LBE2308:
 4874              		.loc 11 71 0
 4875 0118 7F9FE800 		cmpw 7,31,29
 4876 011c 409EFFF0 		bne+ 7,.L352
 4877              	.LVL422:
 4878              	.L337:
 4879              	.LBE2307:
 4880              	.LBE2306:
 4881              	.LBE2305:
 4882              	.LBE2304:
 4883              	.LBE2303:
 4884              	.LBE2302:
 4885              	.LBB2312:
 4886              	.LBB2313:
 4887              	.LBB2314:
 4888              	.LBB2315:
 4889              	.LBB2316:
 4890              	.LBB2317:
 4891              		.loc 1 105 0
 4892 0120 3D200000 		lis 9,_ZTVN7sigslot15single_threadedE+8@ha
 4893              	.LBE2317:
 4894              	.LBE2316:
 4895              	.LBE2315:
 4896              	.LBE2314:
 4897              	.LBE2313:
 4898              	.LBE2312:
 4899              	.LBE2348:
 4900              		.loc 1 946 0
 4901 0124 83A1001C 		lwz 29,28(1)
 4902              	.LVL423:
 4903              	.LBB2349:
 4904              	.LBB2328:
 4905              	.LBB2326:
 4906              	.LBB2324:
 4907              	.LBB2322:
 4908              	.LBB2320:
 4909              	.LBB2318:
 4910              		.loc 1 105 0
 4911 0128 38090008 		la 0,_ZTVN7sigslot15single_threadedE+8@l(9)
 4912              	.LBE2318:
 4913              	.LBE2320:
 4914              	.LBE2322:
 4915              	.LBE2324:
 4916              	.LBE2326:
 4917              	.LBE2328:
 4918              	.LBE2349:
 4919              		.loc 1 946 0
 4920 012c 83C10020 		lwz 30,32(1)
 4921              	.LBB2350:
 4922              	.LBB2329:
 4923              	.LBB2327:
 4924              	.LBB2325:
 4925              	.LBB2323:
 4926              	.LBB2321:
 4927              	.LBB2319:
 4928              		.loc 1 105 0
 4929 0130 901C0000 		stw 0,0(28)
 4930              	.LBE2319:
 4931              	.LBE2321:
 4932              	.LBE2323:
 4933              	.LBE2325:
 4934              	.LBE2327:
 4935              	.LBE2329:
 4936              	.LBE2350:
 4937              		.loc 1 946 0
 4938 0134 8001002C 		lwz 0,44(1)
 4939 0138 83810018 		lwz 28,24(1)
 4940              	.LVL424:
 4941 013c 7C0803A6 		mtlr 0
 4942 0140 83E10024 		lwz 31,36(1)
 4943 0144 38210028 		addi 1,1,40
 4944              		.cfi_remember_state
 4945              	.LCFI53:
 4946              		.cfi_def_cfa_offset 0
 4947              		.cfi_restore 31
 4948              		.cfi_restore 30
 4949              		.cfi_restore 29
 4950              		.cfi_restore 28
 4951 0148 4E800020 		blr
 4952              	.LVL425:
 4953              	.L354:
 4954              	.LCFI54:
 4955              		.cfi_restore_state
 4956 014c 7C7F1B78 		mr 31,3
 4957              	.L329:
 4958              	.LVL426:
 4959              	.LBB2351:
 4960              	.LBB2330:
 4961              	.LBB2331:
 4962              	.LBB2332:
 4963              	.LBB2333:
 4964              	.LBB2334:
 4965              	.LBB2335:
 4966              		.loc 11 70 0
 4967 0150 807C0004 		lwz 3,4(28)
 4968              	.LVL427:
 4969              		.loc 11 71 0
 4970 0154 7F83E800 		cmpw 7,3,29
 4971 0158 419E0038 		beq- 7,.L348
 4972              	.LVL428:
 4973              	.L361:
 4974              	.LBB2336:
 4975              		.loc 11 74 0
 4976 015c 83C30000 		lwz 30,0(3)
 4977              	.LVL429:
 4978              	.LBB2337:
 4979              	.LBB2338:
 4980              	.LBB2339:
 4981              		.loc 7 98 0
 4982 0160 48000001 		bl _ZdlPv
 4983              	.LVL430:
 4984              	.LBE2339:
 4985              	.LBE2338:
 4986              	.LBE2337:
 4987              	.LBE2336:
 4988              		.loc 11 71 0
 4989 0164 7F9EE800 		cmpw 7,30,29
 4990 0168 419E0028 		beq- 7,.L348
 4991              		.loc 11 74 0
 4992 016c 7FC3F378 		mr 3,30
 4993 0170 4BFFFFEC 		b .L361
 4994              	.LVL431:
 4995              	.L355:
 4996              	.LBE2335:
 4997              	.LBE2334:
 4998              	.LBE2333:
 4999              	.LBE2332:
 5000              	.LBE2331:
 5001              	.LBE2330:
 5002              	.LBB2340:
 5003              	.LBB2301:
 5004              	.LBB2296:
 5005              	.LBB2297:
 5006              	.LBB2298:
 5007              		.loc 1 343 0
 5008 0174 813C0000 		lwz 9,0(28)
 5009 0178 7C7F1B78 		mr 31,3
 5010              	.LVL432:
 5011 017c 7F83E378 		mr 3,28
 5012 0180 8009000C 		lwz 0,12(9)
 5013 0184 7C0903A6 		mtctr 0
 5014 0188 4E800421 		bctrl
 5015 018c 4BFFFFC4 		b .L329
 5016              	.LVL433:
 5017              	.L348:
 5018              	.LBE2298:
 5019              	.LBE2297:
 5020              	.LBE2296:
 5021              	.LBE2301:
 5022              	.LBE2340:
 5023              	.LBB2341:
 5024              	.LBB2342:
 5025              	.LBB2343:
 5026              	.LBB2344:
 5027              	.LBB2345:
 5028              	.LBB2346:
 5029              		.loc 1 105 0
 5030 0190 3D200000 		lis 9,_ZTVN7sigslot15single_threadedE+8@ha
 5031 0194 7FE3FB78 		mr 3,31
 5032 0198 38090008 		la 0,_ZTVN7sigslot15single_threadedE+8@l(9)
 5033 019c 901C0000 		stw 0,0(28)
 5034              	.LEHB31:
 5035 01a0 48000001 		bl _Unwind_Resume
 5036              	.LEHE31:
 5037              	.LBE2346:
 5038              	.LBE2345:
 5039              	.LBE2344:
 5040              	.LBE2343:
 5041              	.LBE2342:
 5042              	.LBE2341:
 5043              	.LBE2351:
 5044              		.cfi_endproc
 5045              	.LFE1516:
 5046              		.section	.gcc_except_table
 5047              	.LLSDA1516:
 5048 00a5 FF       		.byte	0xff
 5049 00a6 FF       		.byte	0xff
 5050 00a7 01       		.byte	0x1
 5051 00a8 15       		.uleb128 .LLSDACSE1516-.LLSDACSB1516
 5052              	.LLSDACSB1516:
 5053 00a9 30       		.uleb128 .LEHB28-.LFB1516
 5054 00aa 04       		.uleb128 .LEHE28-.LEHB28
 5055 00ab CC02     		.uleb128 .L354-.LFB1516
 5056 00ad 00       		.uleb128 0
 5057 00ae 54       		.uleb128 .LEHB29-.LFB1516
 5058 00af 58       		.uleb128 .LEHE29-.LEHB29
 5059 00b0 F402     		.uleb128 .L355-.LFB1516
 5060 00b2 00       		.uleb128 0
 5061 00b3 F801     		.uleb128 .LEHB30-.LFB1516
 5062 00b5 04       		.uleb128 .LEHE30-.LEHB30
 5063 00b6 CC02     		.uleb128 .L354-.LFB1516
 5064 00b8 00       		.uleb128 0
 5065 00b9 A003     		.uleb128 .LEHB31-.LFB1516
 5066 00bb 04       		.uleb128 .LEHE31-.LEHB31
 5067 00bc 00       		.uleb128 0
 5068 00bd 00       		.uleb128 0
 5069              	.LLSDACSE1516:
 5070              		.section	.text._ZN7sigslot13_signal_base3IP10GuiElementiiNS_15single_threadedEED2Ev,"axG",@progbit
 5071              		.size	_ZN7sigslot13_signal_base3IP10GuiElementiiNS_15single_threadedEED2Ev, .-_ZN7sigslot13_signal
 5072              		.section	.text._ZN7sigslot7signal3IP10GuiElementiiNS_15single_threadedEED2Ev,"axG",@progbits,_ZN7s
 5073              		.align 2
 5074              		.weak	_ZN7sigslot7signal3IP10GuiElementiiNS_15single_threadedEED2Ev
 5075              		.type	_ZN7sigslot7signal3IP10GuiElementiiNS_15single_threadedEED2Ev, @function
 5076              	_ZN7sigslot7signal3IP10GuiElementiiNS_15single_threadedEED2Ev:
 5077              	.LFB1483:
 5078              		.loc 1 2302 0
 5079              		.cfi_startproc
 5080              		.cfi_personality 0,__gxx_personality_v0
 5081              		.cfi_lsda 0,.LLSDA1483
 5082              	.LVL434:
 5083 0000 7C0802A6 		mflr 0
 5084 0004 9421FFD8 		stwu 1,-40(1)
 5085              	.LCFI55:
 5086              		.cfi_def_cfa_offset 40
 5087              		.cfi_register 65, 0
 5088              	.LBB2449:
 5089              	.LBB2450:
 5090              	.LBB2451:
 5091              	.LBB2452:
 5092              		.loc 1 946 0
 5093 0008 3D200000 		lis 9,_ZTVN7sigslot13_signal_base3IP10GuiElementiiNS_15single_threadedEEE+8@ha
 5094              	.LBE2452:
 5095              	.LBE2451:
 5096              	.LBE2450:
 5097              	.LBE2449:
 5098              		.loc 1 2302 0
 5099 000c 93810018 		stw 28,24(1)
 5100 0010 7C7C1B78 		mr 28,3
 5101              		.cfi_offset 28, -16
 5102              	.LVL435:
 5103 0014 9001002C 		stw 0,44(1)
 5104              	.LBB2550:
 5105              	.LBB2545:
 5106              	.LBB2540:
 5107              	.LBB2535:
 5108              		.loc 1 946 0
 5109 0018 38090008 		la 0,_ZTVN7sigslot13_signal_base3IP10GuiElementiiNS_15single_threadedEEE+8@l(9)
 5110              		.cfi_offset 65, 4
 5111              	.LBE2535:
 5112              	.LBE2540:
 5113              	.LBE2545:
 5114              	.LBE2550:
 5115              		.loc 1 2302 0
 5116 001c 93A1001C 		stw 29,28(1)
 5117 0020 3BA30004 		addi 29,3,4
 5118              		.cfi_offset 29, -12
 5119 0024 93C10020 		stw 30,32(1)
 5120 0028 93E10024 		stw 31,36(1)
 5121              	.LBB2551:
 5122              	.LBB2546:
 5123              	.LBB2541:
 5124              	.LBB2536:
 5125              		.loc 1 946 0
 5126 002c 90030000 		stw 0,0(3)
 5127              	.LVL436:
 5128              	.LEHB32:
 5129              	.LBB2453:
 5130              	.LBB2454:
 5131              	.LBB2455:
 5132              	.LBB2456:
 5133              		.loc 1 338 0
 5134              		.cfi_offset 31, -4
 5135              		.cfi_offset 30, -8
 5136 0030 48000001 		bl _ZN7sigslot15single_threaded4lockEv
 5137              	.LEHE32:
 5138              	.LVL437:
 5139              	.LBE2456:
 5140              	.LBE2455:
 5141              	.LBE2454:
 5142              		.loc 3 56 0
 5143 0034 7F9DE378 		mr 29,28
 5144              	.LVL438:
 5145 0038 87FD0004 		lwzu 31,4(29)
 5146              	.LVL439:
 5147              	.LBB2487:
 5148              		.loc 1 954 0
 5149 003c 7F9FE800 		cmpw 7,31,29
 5150 0040 419E00A8 		beq- 7,.L363
 5151              	.LVL440:
 5152              	.L401:
 5153              		.loc 1 956 0
 5154 0044 807F0008 		lwz 3,8(31)
 5155 0048 81230000 		lwz 9,0(3)
 5156 004c 80090008 		lwz 0,8(9)
 5157 0050 7C0903A6 		mtctr 0
 5158              	.LEHB33:
 5159 0054 4E800421 		bctrl
 5160              	.LBB2457:
 5161              	.LBB2458:
 5162              	.LBB2459:
 5163              	.LBB2460:
 5164              		.loc 1 338 0
 5165 0058 81230000 		lwz 9,0(3)
 5166              	.LBE2460:
 5167              	.LBE2459:
 5168              	.LBE2458:
 5169              	.LBE2457:
 5170              		.loc 1 956 0
 5171 005c 7C7E1B78 		mr 30,3
 5172              	.LVL441:
 5173 0060 93810008 		stw 28,8(1)
 5174              	.LVL442:
 5175              	.LBB2469:
 5176              	.LBB2468:
 5177              	.LBB2462:
 5178              	.LBB2461:
 5179              		.loc 1 338 0
 5180 0064 80090008 		lwz 0,8(9)
 5181 0068 7C0903A6 		mtctr 0
 5182 006c 4E800421 		bctrl
 5183              	.LVL443:
 5184              	.LBE2461:
 5185              	.LBE2462:
 5186              	.LBB2463:
 5187              	.LBB2464:
 5188              		.loc 10 528 0
 5189 0070 387E0004 		addi 3,30,4
 5190 0074 38810008 		addi 4,1,8
 5191 0078 48000001 		bl _ZNSt8_Rb_treeIPN7sigslot12_signal_baseINS0_15single_threadedEEES4_St9_IdentityIS4_ESt4lessIS4_
 5192              	.LVL444:
 5193              	.LBE2464:
 5194              	.LBE2463:
 5195              	.LBB2465:
 5196              	.LBB2466:
 5197              	.LBB2467:
 5198              		.loc 1 343 0
 5199 007c 813E0000 		lwz 9,0(30)
 5200 0080 7FC3F378 		mr 3,30
 5201 0084 8009000C 		lwz 0,12(9)
 5202 0088 7C0903A6 		mtctr 0
 5203 008c 4E800421 		bctrl
 5204              	.LVL445:
 5205              	.LBE2467:
 5206              	.LBE2466:
 5207              	.LBE2465:
 5208              	.LBE2468:
 5209              	.LBE2469:
 5210              		.loc 1 957 0
 5211 0090 807F0008 		lwz 3,8(31)
 5212 0094 2F830000 		cmpwi 7,3,0
 5213 0098 419E0014 		beq- 7,.L365
 5214 009c 81230000 		lwz 9,0(3)
 5215 00a0 80090004 		lwz 0,4(9)
 5216 00a4 7C0903A6 		mtctr 0
 5217 00a8 4E800421 		bctrl
 5218              	.LEHE33:
 5219              	.L365:
 5220              	.LVL446:
 5221              	.LBB2470:
 5222              	.LBB2471:
 5223              		.loc 4 234 0
 5224 00ac 83FF0000 		lwz 31,0(31)
 5225              	.LVL447:
 5226              	.LBE2471:
 5227              	.LBE2470:
 5228              		.loc 1 954 0
 5229 00b0 7F9DF800 		cmpw 7,29,31
 5230 00b4 409EFF90 		bne+ 7,.L401
 5231              	.LBE2487:
 5232              		.loc 3 56 0
 5233 00b8 83FC0004 		lwz 31,4(28)
 5234              	.LVL448:
 5235              	.LBB2488:
 5236              	.LBB2472:
 5237              	.LBB2473:
 5238              		.loc 4 1162 0
 5239 00bc 7F9DF800 		cmpw 7,29,31
 5240 00c0 40BE000C 		bne+ 7,.L403
 5241 00c4 48000024 		b .L363
 5242              	.LVL449:
 5243              	.L396:
 5244              		.loc 4 1163 0
 5245 00c8 7FDFF378 		mr 31,30
 5246              	.LVL450:
 5247              	.L403:
 5248              	.LBB2474:
 5249              	.LBB2475:
 5250              		.loc 11 112 0
 5251 00cc 83DF0000 		lwz 30,0(31)
 5252              	.LVL451:
 5253              	.LBB2476:
 5254              	.LBB2477:
 5255              		.loc 4 1532 0
 5256 00d0 7FE3FB78 		mr 3,31
 5257 00d4 48000001 		bl _ZNSt8__detail15_List_node_base9_M_unhookEv
 5258              	.LVL452:
 5259              	.LBB2478:
 5260              	.LBB2479:
 5261              	.LBB2480:
 5262              		.loc 7 98 0
 5263 00d8 7FE3FB78 		mr 3,31
 5264 00dc 48000001 		bl _ZdlPv
 5265              	.LVL453:
 5266              	.LBE2480:
 5267              	.LBE2479:
 5268              	.LBE2478:
 5269              	.LBE2477:
 5270              	.LBE2476:
 5271              	.LBE2475:
 5272              	.LBE2474:
 5273              		.loc 4 1162 0
 5274 00e0 7F9DF000 		cmpw 7,29,30
 5275 00e4 409EFFE4 		bne+ 7,.L396
 5276              	.LVL454:
 5277              	.L363:
 5278              	.LBE2473:
 5279              	.LBE2472:
 5280              	.LBB2481:
 5281              	.LBB2482:
 5282              	.LBB2483:
 5283              		.loc 1 343 0
 5284 00e8 813C0000 		lwz 9,0(28)
 5285 00ec 7F83E378 		mr 3,28
 5286 00f0 8009000C 		lwz 0,12(9)
 5287 00f4 7C0903A6 		mtctr 0
 5288              	.LEHB34:
 5289 00f8 4E800421 		bctrl
 5290              	.LEHE34:
 5291              	.LBE2483:
 5292              	.LBE2482:
 5293              	.LBE2481:
 5294              	.LBE2488:
 5295              	.LBE2453:
 5296              	.LBB2490:
 5297              	.LBB2491:
 5298              	.LBB2492:
 5299              	.LBB2493:
 5300              	.LBB2494:
 5301              	.LBB2495:
 5302              		.loc 11 70 0
 5303 00fc 807C0004 		lwz 3,4(28)
 5304              	.LVL455:
 5305              		.loc 11 71 0
 5306 0100 7F83E800 		cmpw 7,3,29
 5307 0104 40BE000C 		bne+ 7,.L405
 5308 0108 48000018 		b .L381
 5309              	.LVL456:
 5310              	.L397:
 5311              		.loc 11 74 0
 5312 010c 7FE3FB78 		mr 3,31
 5313              	.LVL457:
 5314              	.L405:
 5315              	.LBB2496:
 5316 0110 83E30000 		lwz 31,0(3)
 5317              	.LVL458:
 5318              	.LBB2497:
 5319              	.LBB2498:
 5320              	.LBB2499:
 5321              		.loc 7 98 0
 5322 0114 48000001 		bl _ZdlPv
 5323              	.LVL459:
 5324              	.LBE2499:
 5325              	.LBE2498:
 5326              	.LBE2497:
 5327              	.LBE2496:
 5328              		.loc 11 71 0
 5329 0118 7F9FE800 		cmpw 7,31,29
 5330 011c 409EFFF0 		bne+ 7,.L397
 5331              	.LVL460:
 5332              	.L381:
 5333              	.LBE2495:
 5334              	.LBE2494:
 5335              	.LBE2493:
 5336              	.LBE2492:
 5337              	.LBE2491:
 5338              	.LBE2490:
 5339              	.LBB2500:
 5340              	.LBB2501:
 5341              	.LBB2502:
 5342              	.LBB2503:
 5343              	.LBB2504:
 5344              	.LBB2505:
 5345              		.loc 1 105 0
 5346 0120 3D200000 		lis 9,_ZTVN7sigslot15single_threadedE+8@ha
 5347              	.LBE2505:
 5348              	.LBE2504:
 5349              	.LBE2503:
 5350              	.LBE2502:
 5351              	.LBE2501:
 5352              	.LBE2500:
 5353              	.LBE2536:
 5354              	.LBE2541:
 5355              	.LBE2546:
 5356              	.LBE2551:
 5357              		.loc 1 2305 0
 5358 0124 83A1001C 		lwz 29,28(1)
 5359              	.LVL461:
 5360              	.LBB2552:
 5361              	.LBB2547:
 5362              	.LBB2542:
 5363              	.LBB2537:
 5364              	.LBB2516:
 5365              	.LBB2514:
 5366              	.LBB2512:
 5367              	.LBB2510:
 5368              	.LBB2508:
 5369              	.LBB2506:
 5370              		.loc 1 105 0
 5371 0128 38090008 		la 0,_ZTVN7sigslot15single_threadedE+8@l(9)
 5372              	.LBE2506:
 5373              	.LBE2508:
 5374              	.LBE2510:
 5375              	.LBE2512:
 5376              	.LBE2514:
 5377              	.LBE2516:
 5378              	.LBE2537:
 5379              	.LBE2542:
 5380              	.LBE2547:
 5381              	.LBE2552:
 5382              		.loc 1 2305 0
 5383 012c 83C10020 		lwz 30,32(1)
 5384              	.LBB2553:
 5385              	.LBB2548:
 5386              	.LBB2543:
 5387              	.LBB2538:
 5388              	.LBB2517:
 5389              	.LBB2515:
 5390              	.LBB2513:
 5391              	.LBB2511:
 5392              	.LBB2509:
 5393              	.LBB2507:
 5394              		.loc 1 105 0
 5395 0130 901C0000 		stw 0,0(28)
 5396              	.LBE2507:
 5397              	.LBE2509:
 5398              	.LBE2511:
 5399              	.LBE2513:
 5400              	.LBE2515:
 5401              	.LBE2517:
 5402              	.LBE2538:
 5403              	.LBE2543:
 5404              	.LBE2548:
 5405              	.LBE2553:
 5406              		.loc 1 2305 0
 5407 0134 8001002C 		lwz 0,44(1)
 5408 0138 83810018 		lwz 28,24(1)
 5409              	.LVL462:
 5410 013c 7C0803A6 		mtlr 0
 5411 0140 83E10024 		lwz 31,36(1)
 5412 0144 38210028 		addi 1,1,40
 5413              		.cfi_remember_state
 5414              	.LCFI56:
 5415              		.cfi_def_cfa_offset 0
 5416              		.cfi_restore 31
 5417              		.cfi_restore 30
 5418              		.cfi_restore 29
 5419              		.cfi_restore 28
 5420 0148 4E800020 		blr
 5421              	.LVL463:
 5422              	.L399:
 5423              	.LCFI57:
 5424              		.cfi_restore_state
 5425 014c 7C7F1B78 		mr 31,3
 5426              	.L373:
 5427              	.LBB2554:
 5428              	.LBB2549:
 5429              	.LBB2544:
 5430              	.LBB2539:
 5431              	.LBB2518:
 5432              	.LBB2519:
 5433              	.LBB2520:
 5434              	.LBB2521:
 5435              	.LBB2522:
 5436              	.LBB2523:
 5437              		.loc 11 70 0
 5438 0150 807C0004 		lwz 3,4(28)
 5439              	.LVL464:
 5440              		.loc 11 71 0
 5441 0154 7F83E800 		cmpw 7,3,29
 5442 0158 419E0038 		beq- 7,.L390
 5443              	.LVL465:
 5444              	.L406:
 5445              	.LBB2524:
 5446              		.loc 11 74 0
 5447 015c 83C30000 		lwz 30,0(3)
 5448              	.LVL466:
 5449              	.LBB2525:
 5450              	.LBB2526:
 5451              	.LBB2527:
 5452              		.loc 7 98 0
 5453 0160 48000001 		bl _ZdlPv
 5454              	.LVL467:
 5455              	.LBE2527:
 5456              	.LBE2526:
 5457              	.LBE2525:
 5458              	.LBE2524:
 5459              		.loc 11 71 0
 5460 0164 7F9EE800 		cmpw 7,30,29
 5461 0168 419E0028 		beq- 7,.L390
 5462              		.loc 11 74 0
 5463 016c 7FC3F378 		mr 3,30
 5464 0170 4BFFFFEC 		b .L406
 5465              	.LVL468:
 5466              	.L400:
 5467              	.LBE2523:
 5468              	.LBE2522:
 5469              	.LBE2521:
 5470              	.LBE2520:
 5471              	.LBE2519:
 5472              	.LBE2518:
 5473              	.LBB2528:
 5474              	.LBB2489:
 5475              	.LBB2484:
 5476              	.LBB2485:
 5477              	.LBB2486:
 5478              		.loc 1 343 0
 5479 0174 813C0000 		lwz 9,0(28)
 5480 0178 7C7F1B78 		mr 31,3
 5481              	.LVL469:
 5482 017c 7F83E378 		mr 3,28
 5483 0180 8009000C 		lwz 0,12(9)
 5484 0184 7C0903A6 		mtctr 0
 5485 0188 4E800421 		bctrl
 5486 018c 4BFFFFC4 		b .L373
 5487              	.LVL470:
 5488              	.L390:
 5489              	.LBE2486:
 5490              	.LBE2485:
 5491              	.LBE2484:
 5492              	.LBE2489:
 5493              	.LBE2528:
 5494              	.LBB2529:
 5495              	.LBB2530:
 5496              	.LBB2531:
 5497              	.LBB2532:
 5498              	.LBB2533:
 5499              	.LBB2534:
 5500              		.loc 1 105 0
 5501 0190 3D200000 		lis 9,_ZTVN7sigslot15single_threadedE+8@ha
 5502 0194 7FE3FB78 		mr 3,31
 5503 0198 38090008 		la 0,_ZTVN7sigslot15single_threadedE+8@l(9)
 5504 019c 901C0000 		stw 0,0(28)
 5505              	.LEHB35:
 5506 01a0 48000001 		bl _Unwind_Resume
 5507              	.LEHE35:
 5508              	.LBE2534:
 5509              	.LBE2533:
 5510              	.LBE2532:
 5511              	.LBE2531:
 5512              	.LBE2530:
 5513              	.LBE2529:
 5514              	.LBE2539:
 5515              	.LBE2544:
 5516              	.LBE2549:
 5517              	.LBE2554:
 5518              		.cfi_endproc
 5519              	.LFE1483:
 5520              		.section	.gcc_except_table
 5521              	.LLSDA1483:
 5522 00be FF       		.byte	0xff
 5523 00bf FF       		.byte	0xff
 5524 00c0 01       		.byte	0x1
 5525 00c1 15       		.uleb128 .LLSDACSE1483-.LLSDACSB1483
 5526              	.LLSDACSB1483:
 5527 00c2 30       		.uleb128 .LEHB32-.LFB1483
 5528 00c3 04       		.uleb128 .LEHE32-.LEHB32
 5529 00c4 CC02     		.uleb128 .L399-.LFB1483
 5530 00c6 00       		.uleb128 0
 5531 00c7 54       		.uleb128 .LEHB33-.LFB1483
 5532 00c8 58       		.uleb128 .LEHE33-.LEHB33
 5533 00c9 F402     		.uleb128 .L400-.LFB1483
 5534 00cb 00       		.uleb128 0
 5535 00cc F801     		.uleb128 .LEHB34-.LFB1483
 5536 00ce 04       		.uleb128 .LEHE34-.LEHB34
 5537 00cf CC02     		.uleb128 .L399-.LFB1483
 5538 00d1 00       		.uleb128 0
 5539 00d2 A003     		.uleb128 .LEHB35-.LFB1483
 5540 00d4 04       		.uleb128 .LEHE35-.LEHB35
 5541 00d5 00       		.uleb128 0
 5542 00d6 00       		.uleb128 0
 5543              	.LLSDACSE1483:
 5544              		.section	.text._ZN7sigslot7signal3IP10GuiElementiiNS_15single_threadedEED2Ev,"axG",@progbits,_ZN7s
 5545              		.size	_ZN7sigslot7signal3IP10GuiElementiiNS_15single_threadedEED2Ev, .-_ZN7sigslot7signal3IP10GuiE
 5546              		.section	.text._ZN7sigslot7signal3IP10GuiElementiiNS_15single_threadedEED0Ev,"axG",@progbits,_ZN7s
 5547              		.align 2
 5548              		.weak	_ZN7sigslot7signal3IP10GuiElementiiNS_15single_threadedEED0Ev
 5549              		.type	_ZN7sigslot7signal3IP10GuiElementiiNS_15single_threadedEED0Ev, @function
 5550              	_ZN7sigslot7signal3IP10GuiElementiiNS_15single_threadedEED0Ev:
 5551              	.LFB1485:
 5552              		.loc 1 2302 0
 5553              		.cfi_startproc
 5554              		.cfi_personality 0,__gxx_personality_v0
 5555              		.cfi_lsda 0,.LLSDA1485
 5556              	.LVL471:
 5557 0000 7C0802A6 		mflr 0
 5558 0004 9421FFD8 		stwu 1,-40(1)
 5559              	.LCFI58:
 5560              		.cfi_def_cfa_offset 40
 5561              		.cfi_register 65, 0
 5562              	.LBB2653:
 5563              	.LBB2654:
 5564              	.LBB2655:
 5565              	.LBB2656:
 5566              	.LBB2657:
 5567              	.LBB2658:
 5568              		.loc 1 946 0
 5569 0008 3D200000 		lis 9,_ZTVN7sigslot13_signal_base3IP10GuiElementiiNS_15single_threadedEEE+8@ha
 5570              	.LBE2658:
 5571              	.LBE2657:
 5572              	.LBE2656:
 5573              	.LBE2655:
 5574              	.LBE2654:
 5575              	.LBE2653:
 5576              		.loc 1 2302 0
 5577 000c 93810018 		stw 28,24(1)
 5578 0010 7C7C1B78 		mr 28,3
 5579              		.cfi_offset 28, -16
 5580              	.LVL472:
 5581 0014 9001002C 		stw 0,44(1)
 5582              	.LBB2755:
 5583              	.LBB2751:
 5584              	.LBB2747:
 5585              	.LBB2743:
 5586              	.LBB2739:
 5587              	.LBB2735:
 5588              		.loc 1 946 0
 5589 0018 38090008 		la 0,_ZTVN7sigslot13_signal_base3IP10GuiElementiiNS_15single_threadedEEE+8@l(9)
 5590              		.cfi_offset 65, 4
 5591              	.LBE2735:
 5592              	.LBE2739:
 5593              	.LBE2743:
 5594              	.LBE2747:
 5595              	.LBE2751:
 5596              	.LBE2755:
 5597              		.loc 1 2302 0
 5598 001c 93A1001C 		stw 29,28(1)
 5599 0020 3BA30004 		addi 29,3,4
 5600              		.cfi_offset 29, -12
 5601 0024 93C10020 		stw 30,32(1)
 5602 0028 93E10024 		stw 31,36(1)
 5603              	.LBB2756:
 5604              	.LBB2752:
 5605              	.LBB2748:
 5606              	.LBB2744:
 5607              	.LBB2740:
 5608              	.LBB2736:
 5609              		.loc 1 946 0
 5610 002c 90030000 		stw 0,0(3)
 5611              	.LVL473:
 5612              	.LEHB36:
 5613              	.LBB2659:
 5614              	.LBB2660:
 5615              	.LBB2661:
 5616              	.LBB2662:
 5617              		.loc 1 338 0
 5618              		.cfi_offset 31, -4
 5619              		.cfi_offset 30, -8
 5620 0030 48000001 		bl _ZN7sigslot15single_threaded4lockEv
 5621              	.LEHE36:
 5622              	.LVL474:
 5623              	.LBE2662:
 5624              	.LBE2661:
 5625              	.LBE2660:
 5626              		.loc 3 56 0
 5627 0034 7F9DE378 		mr 29,28
 5628              	.LVL475:
 5629 0038 87FD0004 		lwzu 31,4(29)
 5630              	.LVL476:
 5631              	.LBB2693:
 5632              		.loc 1 954 0
 5633 003c 7F9FE800 		cmpw 7,31,29
 5634 0040 419E00A8 		beq- 7,.L408
 5635              	.LVL477:
 5636              	.L447:
 5637              		.loc 1 956 0
 5638 0044 807F0008 		lwz 3,8(31)
 5639 0048 81230000 		lwz 9,0(3)
 5640 004c 80090008 		lwz 0,8(9)
 5641 0050 7C0903A6 		mtctr 0
 5642              	.LEHB37:
 5643 0054 4E800421 		bctrl
 5644              	.LBB2663:
 5645              	.LBB2664:
 5646              	.LBB2665:
 5647              	.LBB2666:
 5648              		.loc 1 338 0
 5649 0058 81230000 		lwz 9,0(3)
 5650              	.LBE2666:
 5651              	.LBE2665:
 5652              	.LBE2664:
 5653              	.LBE2663:
 5654              		.loc 1 956 0
 5655 005c 7C7E1B78 		mr 30,3
 5656              	.LVL478:
 5657 0060 93810008 		stw 28,8(1)
 5658              	.LVL479:
 5659              	.LBB2675:
 5660              	.LBB2674:
 5661              	.LBB2668:
 5662              	.LBB2667:
 5663              		.loc 1 338 0
 5664 0064 80090008 		lwz 0,8(9)
 5665 0068 7C0903A6 		mtctr 0
 5666 006c 4E800421 		bctrl
 5667              	.LVL480:
 5668              	.LBE2667:
 5669              	.LBE2668:
 5670              	.LBB2669:
 5671              	.LBB2670:
 5672              		.loc 10 528 0
 5673 0070 387E0004 		addi 3,30,4
 5674 0074 38810008 		addi 4,1,8
 5675 0078 48000001 		bl _ZNSt8_Rb_treeIPN7sigslot12_signal_baseINS0_15single_threadedEEES4_St9_IdentityIS4_ESt4lessIS4_
 5676              	.LVL481:
 5677              	.LBE2670:
 5678              	.LBE2669:
 5679              	.LBB2671:
 5680              	.LBB2672:
 5681              	.LBB2673:
 5682              		.loc 1 343 0
 5683 007c 813E0000 		lwz 9,0(30)
 5684 0080 7FC3F378 		mr 3,30
 5685 0084 8009000C 		lwz 0,12(9)
 5686 0088 7C0903A6 		mtctr 0
 5687 008c 4E800421 		bctrl
 5688              	.LVL482:
 5689              	.LBE2673:
 5690              	.LBE2672:
 5691              	.LBE2671:
 5692              	.LBE2674:
 5693              	.LBE2675:
 5694              		.loc 1 957 0
 5695 0090 807F0008 		lwz 3,8(31)
 5696 0094 2F830000 		cmpwi 7,3,0
 5697 0098 419E0014 		beq- 7,.L410
 5698 009c 81230000 		lwz 9,0(3)
 5699 00a0 80090004 		lwz 0,4(9)
 5700 00a4 7C0903A6 		mtctr 0
 5701 00a8 4E800421 		bctrl
 5702              	.LEHE37:
 5703              	.L410:
 5704              	.LVL483:
 5705              	.LBB2676:
 5706              	.LBB2677:
 5707              		.loc 4 234 0
 5708 00ac 83FF0000 		lwz 31,0(31)
 5709              	.LVL484:
 5710              	.LBE2677:
 5711              	.LBE2676:
 5712              		.loc 1 954 0
 5713 00b0 7F9DF800 		cmpw 7,29,31
 5714 00b4 409EFF90 		bne+ 7,.L447
 5715              	.LBE2693:
 5716              		.loc 3 56 0
 5717 00b8 83FC0004 		lwz 31,4(28)
 5718              	.LVL485:
 5719              	.LBB2694:
 5720              	.LBB2678:
 5721              	.LBB2679:
 5722              		.loc 4 1162 0
 5723 00bc 7F9DF800 		cmpw 7,29,31
 5724 00c0 40BE000C 		bne+ 7,.L449
 5725 00c4 48000024 		b .L408
 5726              	.LVL486:
 5727              	.L442:
 5728              		.loc 4 1163 0
 5729 00c8 7FDFF378 		mr 31,30
 5730              	.LVL487:
 5731              	.L449:
 5732              	.LBB2680:
 5733              	.LBB2681:
 5734              		.loc 11 112 0
 5735 00cc 83DF0000 		lwz 30,0(31)
 5736              	.LVL488:
 5737              	.LBB2682:
 5738              	.LBB2683:
 5739              		.loc 4 1532 0
 5740 00d0 7FE3FB78 		mr 3,31
 5741 00d4 48000001 		bl _ZNSt8__detail15_List_node_base9_M_unhookEv
 5742              	.LVL489:
 5743              	.LBB2684:
 5744              	.LBB2685:
 5745              	.LBB2686:
 5746              		.loc 7 98 0
 5747 00d8 7FE3FB78 		mr 3,31
 5748 00dc 48000001 		bl _ZdlPv
 5749              	.LVL490:
 5750              	.LBE2686:
 5751              	.LBE2685:
 5752              	.LBE2684:
 5753              	.LBE2683:
 5754              	.LBE2682:
 5755              	.LBE2681:
 5756              	.LBE2680:
 5757              		.loc 4 1162 0
 5758 00e0 7F9DF000 		cmpw 7,29,30
 5759 00e4 409EFFE4 		bne+ 7,.L442
 5760              	.LVL491:
 5761              	.L408:
 5762              	.LBE2679:
 5763              	.LBE2678:
 5764              	.LBB2687:
 5765              	.LBB2688:
 5766              	.LBB2689:
 5767              		.loc 1 343 0
 5768 00e8 813C0000 		lwz 9,0(28)
 5769 00ec 7F83E378 		mr 3,28
 5770 00f0 8009000C 		lwz 0,12(9)
 5771 00f4 7C0903A6 		mtctr 0
 5772              	.LEHB38:
 5773 00f8 4E800421 		bctrl
 5774              	.LEHE38:
 5775              	.LBE2689:
 5776              	.LBE2688:
 5777              	.LBE2687:
 5778              	.LBE2694:
 5779              	.LBE2659:
 5780              	.LBB2696:
 5781              	.LBB2697:
 5782              	.LBB2698:
 5783              	.LBB2699:
 5784              	.LBB2700:
 5785              	.LBB2701:
 5786              		.loc 11 70 0
 5787 00fc 807C0004 		lwz 3,4(28)
 5788              	.LVL492:
 5789              		.loc 11 71 0
 5790 0100 7F83E800 		cmpw 7,3,29
 5791 0104 40BE000C 		bne+ 7,.L451
 5792 0108 48000018 		b .L426
 5793              	.LVL493:
 5794              	.L443:
 5795              		.loc 11 74 0
 5796 010c 7FE3FB78 		mr 3,31
 5797              	.LVL494:
 5798              	.L451:
 5799              	.LBB2702:
 5800 0110 83E30000 		lwz 31,0(3)
 5801              	.LVL495:
 5802              	.LBB2703:
 5803              	.LBB2704:
 5804              	.LBB2705:
 5805              		.loc 7 98 0
 5806 0114 48000001 		bl _ZdlPv
 5807              	.LVL496:
 5808              	.LBE2705:
 5809              	.LBE2704:
 5810              	.LBE2703:
 5811              	.LBE2702:
 5812              		.loc 11 71 0
 5813 0118 7F9FE800 		cmpw 7,31,29
 5814 011c 409EFFF0 		bne+ 7,.L443
 5815              	.LVL497:
 5816              	.L426:
 5817              	.LBE2701:
 5818              	.LBE2700:
 5819              	.LBE2699:
 5820              	.LBE2698:
 5821              	.LBE2697:
 5822              	.LBE2696:
 5823              	.LBB2706:
 5824              	.LBB2707:
 5825              	.LBB2708:
 5826              	.LBB2709:
 5827              	.LBB2710:
 5828              	.LBB2711:
 5829              		.loc 1 105 0
 5830 0120 3D200000 		lis 9,_ZTVN7sigslot15single_threadedE+8@ha
 5831              	.LBE2711:
 5832              	.LBE2710:
 5833              	.LBE2709:
 5834              	.LBE2708:
 5835              	.LBE2707:
 5836              	.LBE2706:
 5837              	.LBE2736:
 5838              	.LBE2740:
 5839              	.LBE2744:
 5840              	.LBE2748:
 5841              	.LBE2752:
 5842              	.LBE2756:
 5843              		.loc 1 2305 0
 5844 0124 7F83E378 		mr 3,28
 5845              	.LBB2757:
 5846              	.LBB2753:
 5847              	.LBB2749:
 5848              	.LBB2745:
 5849              	.LBB2741:
 5850              	.LBB2737:
 5851              	.LBB2717:
 5852              	.LBB2716:
 5853              	.LBB2715:
 5854              	.LBB2714:
 5855              	.LBB2713:
 5856              	.LBB2712:
 5857              		.loc 1 105 0
 5858 0128 38090008 		la 0,_ZTVN7sigslot15single_threadedE+8@l(9)
 5859 012c 901C0000 		stw 0,0(28)
 5860              	.LBE2712:
 5861              	.LBE2713:
 5862              	.LBE2714:
 5863              	.LBE2715:
 5864              	.LBE2716:
 5865              	.LBE2717:
 5866              	.LBE2737:
 5867              	.LBE2741:
 5868              	.LBE2745:
 5869              	.LBE2749:
 5870              	.LBE2753:
 5871              	.LBE2757:
 5872              		.loc 1 2305 0
 5873 0130 48000001 		bl _ZdlPv
 5874 0134 8001002C 		lwz 0,44(1)
 5875 0138 83810018 		lwz 28,24(1)
 5876              	.LVL498:
 5877 013c 7C0803A6 		mtlr 0
 5878 0140 83A1001C 		lwz 29,28(1)
 5879              	.LVL499:
 5880 0144 83C10020 		lwz 30,32(1)
 5881 0148 83E10024 		lwz 31,36(1)
 5882 014c 38210028 		addi 1,1,40
 5883              		.cfi_remember_state
 5884              	.LCFI59:
 5885              		.cfi_def_cfa_offset 0
 5886              		.cfi_restore 31
 5887              		.cfi_restore 30
 5888              		.cfi_restore 29
 5889              		.cfi_restore 28
 5890 0150 4E800020 		blr
 5891              	.LVL500:
 5892              	.L445:
 5893              	.LCFI60:
 5894              		.cfi_restore_state
 5895 0154 7C7F1B78 		mr 31,3
 5896              	.L418:
 5897              	.LBB2758:
 5898              	.LBB2754:
 5899              	.LBB2750:
 5900              	.LBB2746:
 5901              	.LBB2742:
 5902              	.LBB2738:
 5903              	.LBB2718:
 5904              	.LBB2719:
 5905              	.LBB2720:
 5906              	.LBB2721:
 5907              	.LBB2722:
 5908              	.LBB2723:
 5909              		.loc 11 70 0
 5910 0158 807C0004 		lwz 3,4(28)
 5911              	.LVL501:
 5912              		.loc 11 71 0
 5913 015c 7F83E800 		cmpw 7,3,29
 5914 0160 419E0038 		beq- 7,.L435
 5915              	.LVL502:
 5916              	.L452:
 5917              	.LBB2724:
 5918              		.loc 11 74 0
 5919 0164 83C30000 		lwz 30,0(3)
 5920              	.LVL503:
 5921              	.LBB2725:
 5922              	.LBB2726:
 5923              	.LBB2727:
 5924              		.loc 7 98 0
 5925 0168 48000001 		bl _ZdlPv
 5926              	.LVL504:
 5927              	.LBE2727:
 5928              	.LBE2726:
 5929              	.LBE2725:
 5930              	.LBE2724:
 5931              		.loc 11 71 0
 5932 016c 7F9EE800 		cmpw 7,30,29
 5933 0170 419E0028 		beq- 7,.L435
 5934              		.loc 11 74 0
 5935 0174 7FC3F378 		mr 3,30
 5936 0178 4BFFFFEC 		b .L452
 5937              	.LVL505:
 5938              	.L446:
 5939              	.LBE2723:
 5940              	.LBE2722:
 5941              	.LBE2721:
 5942              	.LBE2720:
 5943              	.LBE2719:
 5944              	.LBE2718:
 5945              	.LBB2728:
 5946              	.LBB2695:
 5947              	.LBB2690:
 5948              	.LBB2691:
 5949              	.LBB2692:
 5950              		.loc 1 343 0
 5951 017c 813C0000 		lwz 9,0(28)
 5952 0180 7C7F1B78 		mr 31,3
 5953              	.LVL506:
 5954 0184 7F83E378 		mr 3,28
 5955 0188 8009000C 		lwz 0,12(9)
 5956 018c 7C0903A6 		mtctr 0
 5957 0190 4E800421 		bctrl
 5958 0194 4BFFFFC4 		b .L418
 5959              	.LVL507:
 5960              	.L435:
 5961              	.LBE2692:
 5962              	.LBE2691:
 5963              	.LBE2690:
 5964              	.LBE2695:
 5965              	.LBE2728:
 5966              	.LBB2729:
 5967              	.LBB2730:
 5968              	.LBB2731:
 5969              	.LBB2732:
 5970              	.LBB2733:
 5971              	.LBB2734:
 5972              		.loc 1 105 0
 5973 0198 3D200000 		lis 9,_ZTVN7sigslot15single_threadedE+8@ha
 5974 019c 7FE3FB78 		mr 3,31
 5975 01a0 38090008 		la 0,_ZTVN7sigslot15single_threadedE+8@l(9)
 5976 01a4 901C0000 		stw 0,0(28)
 5977              	.LEHB39:
 5978 01a8 48000001 		bl _Unwind_Resume
 5979              	.LEHE39:
 5980              	.LBE2734:
 5981              	.LBE2733:
 5982              	.LBE2732:
 5983              	.LBE2731:
 5984              	.LBE2730:
 5985              	.LBE2729:
 5986              	.LBE2738:
 5987              	.LBE2742:
 5988              	.LBE2746:
 5989              	.LBE2750:
 5990              	.LBE2754:
 5991              	.LBE2758:
 5992              		.cfi_endproc
 5993              	.LFE1485:
 5994              		.section	.gcc_except_table
 5995              	.LLSDA1485:
 5996 00d7 FF       		.byte	0xff
 5997 00d8 FF       		.byte	0xff
 5998 00d9 01       		.byte	0x1
 5999 00da 15       		.uleb128 .LLSDACSE1485-.LLSDACSB1485
 6000              	.LLSDACSB1485:
 6001 00db 30       		.uleb128 .LEHB36-.LFB1485
 6002 00dc 04       		.uleb128 .LEHE36-.LEHB36
 6003 00dd D402     		.uleb128 .L445-.LFB1485
 6004 00df 00       		.uleb128 0
 6005 00e0 54       		.uleb128 .LEHB37-.LFB1485
 6006 00e1 58       		.uleb128 .LEHE37-.LEHB37
 6007 00e2 FC02     		.uleb128 .L446-.LFB1485
 6008 00e4 00       		.uleb128 0
 6009 00e5 F801     		.uleb128 .LEHB38-.LFB1485
 6010 00e7 04       		.uleb128 .LEHE38-.LEHB38
 6011 00e8 D402     		.uleb128 .L445-.LFB1485
 6012 00ea 00       		.uleb128 0
 6013 00eb A803     		.uleb128 .LEHB39-.LFB1485
 6014 00ed 04       		.uleb128 .LEHE39-.LEHB39
 6015 00ee 00       		.uleb128 0
 6016 00ef 00       		.uleb128 0
 6017              	.LLSDACSE1485:
 6018              		.section	.text._ZN7sigslot7signal3IP10GuiElementiiNS_15single_threadedEED0Ev,"axG",@progbits,_ZN7s
 6019              		.size	_ZN7sigslot7signal3IP10GuiElementiiNS_15single_threadedEED0Ev, .-_ZN7sigslot7signal3IP10GuiE
 6020              		.section	.text._ZN7sigslot13_signal_base2IP10GuiElementbNS_15single_threadedEED2Ev,"axG",@progbits
 6021              		.align 2
 6022              		.weak	_ZN7sigslot13_signal_base2IP10GuiElementbNS_15single_threadedEED2Ev
 6023              		.type	_ZN7sigslot13_signal_base2IP10GuiElementbNS_15single_threadedEED2Ev, @function
 6024              	_ZN7sigslot13_signal_base2IP10GuiElementbNS_15single_threadedEED2Ev:
 6025              	.LFB1509:
 6026              		.loc 1 823 0
 6027              		.cfi_startproc
 6028              		.cfi_personality 0,__gxx_personality_v0
 6029              		.cfi_lsda 0,.LLSDA1509
 6030              	.LVL508:
 6031 0000 7C0802A6 		mflr 0
 6032 0004 9421FFD8 		stwu 1,-40(1)
 6033              	.LCFI61:
 6034              		.cfi_def_cfa_offset 40
 6035              		.cfi_register 65, 0
 6036              	.LBB2905:
 6037              		.loc 1 826 0
 6038 0008 3D200000 		lis 9,_ZTVN7sigslot13_signal_base2IP10GuiElementbNS_15single_threadedEEE+8@ha
 6039              	.LBE2905:
 6040              		.loc 1 823 0
 6041 000c 93810018 		stw 28,24(1)
 6042 0010 7C7C1B78 		mr 28,3
 6043              		.cfi_offset 28, -16
 6044 0014 9001002C 		stw 0,44(1)
 6045              	.LBB2988:
 6046              		.loc 1 826 0
 6047 0018 38090008 		la 0,_ZTVN7sigslot13_signal_base2IP10GuiElementbNS_15single_threadedEEE+8@l(9)
 6048              		.cfi_offset 65, 4
 6049              	.LBE2988:
 6050              		.loc 1 823 0
 6051 001c 93A1001C 		stw 29,28(1)
 6052 0020 3BA30004 		addi 29,3,4
 6053              		.cfi_offset 29, -12
 6054 0024 93C10020 		stw 30,32(1)
 6055 0028 93E10024 		stw 31,36(1)
 6056              	.LBB2989:
 6057              		.loc 1 826 0
 6058 002c 90030000 		stw 0,0(3)
 6059              	.LVL509:
 6060              	.LEHB40:
 6061              	.LBB2906:
 6062              	.LBB2907:
 6063              	.LBB2908:
 6064              	.LBB2909:
 6065              		.loc 1 338 0
 6066              		.cfi_offset 31, -4
 6067              		.cfi_offset 30, -8
 6068 0030 48000001 		bl _ZN7sigslot15single_threaded4lockEv
 6069              	.LEHE40:
 6070              	.LVL510:
 6071              	.LBE2909:
 6072              	.LBE2908:
 6073              	.LBE2907:
 6074              		.loc 3 56 0
 6075 0034 7F9DE378 		mr 29,28
 6076              	.LVL511:
 6077 0038 87FD0004 		lwzu 31,4(29)
 6078              	.LVL512:
 6079              	.LBB2940:
 6080              		.loc 1 834 0
 6081 003c 7F9FE800 		cmpw 7,31,29
 6082 0040 419E00A8 		beq- 7,.L454
 6083              	.LVL513:
 6084              	.L491:
 6085              		.loc 1 836 0
 6086 0044 807F0008 		lwz 3,8(31)
 6087 0048 81230000 		lwz 9,0(3)
 6088 004c 80090008 		lwz 0,8(9)
 6089 0050 7C0903A6 		mtctr 0
 6090              	.LEHB41:
 6091 0054 4E800421 		bctrl
 6092              	.LBB2910:
 6093              	.LBB2911:
 6094              	.LBB2912:
 6095              	.LBB2913:
 6096              		.loc 1 338 0
 6097 0058 81230000 		lwz 9,0(3)
 6098              	.LBE2913:
 6099              	.LBE2912:
 6100              	.LBE2911:
 6101              	.LBE2910:
 6102              		.loc 1 836 0
 6103 005c 7C7E1B78 		mr 30,3
 6104              	.LVL514:
 6105 0060 93810008 		stw 28,8(1)
 6106              	.LVL515:
 6107              	.LBB2922:
 6108              	.LBB2921:
 6109              	.LBB2915:
 6110              	.LBB2914:
 6111              		.loc 1 338 0
 6112 0064 80090008 		lwz 0,8(9)
 6113 0068 7C0903A6 		mtctr 0
 6114 006c 4E800421 		bctrl
 6115              	.LVL516:
 6116              	.LBE2914:
 6117              	.LBE2915:
 6118              	.LBB2916:
 6119              	.LBB2917:
 6120              		.loc 10 528 0
 6121 0070 387E0004 		addi 3,30,4
 6122 0074 38810008 		addi 4,1,8
 6123 0078 48000001 		bl _ZNSt8_Rb_treeIPN7sigslot12_signal_baseINS0_15single_threadedEEES4_St9_IdentityIS4_ESt4lessIS4_
 6124              	.LVL517:
 6125              	.LBE2917:
 6126              	.LBE2916:
 6127              	.LBB2918:
 6128              	.LBB2919:
 6129              	.LBB2920:
 6130              		.loc 1 343 0
 6131 007c 813E0000 		lwz 9,0(30)
 6132 0080 7FC3F378 		mr 3,30
 6133 0084 8009000C 		lwz 0,12(9)
 6134 0088 7C0903A6 		mtctr 0
 6135 008c 4E800421 		bctrl
 6136              	.LVL518:
 6137              	.LBE2920:
 6138              	.LBE2919:
 6139              	.LBE2918:
 6140              	.LBE2921:
 6141              	.LBE2922:
 6142              		.loc 1 837 0
 6143 0090 807F0008 		lwz 3,8(31)
 6144 0094 2F830000 		cmpwi 7,3,0
 6145 0098 419E0014 		beq- 7,.L456
 6146 009c 81230000 		lwz 9,0(3)
 6147 00a0 80090004 		lwz 0,4(9)
 6148 00a4 7C0903A6 		mtctr 0
 6149 00a8 4E800421 		bctrl
 6150              	.LEHE41:
 6151              	.L456:
 6152              	.LVL519:
 6153              	.LBB2923:
 6154              	.LBB2924:
 6155              		.loc 4 234 0
 6156 00ac 83FF0000 		lwz 31,0(31)
 6157              	.LVL520:
 6158              	.LBE2924:
 6159              	.LBE2923:
 6160              		.loc 1 834 0
 6161 00b0 7F9DF800 		cmpw 7,29,31
 6162 00b4 409EFF90 		bne+ 7,.L491
 6163              	.LBE2940:
 6164              		.loc 3 56 0
 6165 00b8 83FC0004 		lwz 31,4(28)
 6166              	.LVL521:
 6167              	.LBB2941:
 6168              	.LBB2925:
 6169              	.LBB2926:
 6170              		.loc 4 1162 0
 6171 00bc 7F9DF800 		cmpw 7,29,31
 6172 00c0 40BE000C 		bne+ 7,.L493
 6173 00c4 48000024 		b .L454
 6174              	.LVL522:
 6175              	.L486:
 6176              		.loc 4 1163 0
 6177 00c8 7FDFF378 		mr 31,30
 6178              	.LVL523:
 6179              	.L493:
 6180              	.LBB2927:
 6181              	.LBB2928:
 6182              		.loc 11 112 0
 6183 00cc 83DF0000 		lwz 30,0(31)
 6184              	.LVL524:
 6185              	.LBB2929:
 6186              	.LBB2930:
 6187              		.loc 4 1532 0
 6188 00d0 7FE3FB78 		mr 3,31
 6189 00d4 48000001 		bl _ZNSt8__detail15_List_node_base9_M_unhookEv
 6190              	.LVL525:
 6191              	.LBB2931:
 6192              	.LBB2932:
 6193              	.LBB2933:
 6194              		.loc 7 98 0
 6195 00d8 7FE3FB78 		mr 3,31
 6196 00dc 48000001 		bl _ZdlPv
 6197              	.LVL526:
 6198              	.LBE2933:
 6199              	.LBE2932:
 6200              	.LBE2931:
 6201              	.LBE2930:
 6202              	.LBE2929:
 6203              	.LBE2928:
 6204              	.LBE2927:
 6205              		.loc 4 1162 0
 6206 00e0 7F9DF000 		cmpw 7,29,30
 6207 00e4 409EFFE4 		bne+ 7,.L486
 6208              	.LVL527:
 6209              	.L454:
 6210              	.LBE2926:
 6211              	.LBE2925:
 6212              	.LBB2934:
 6213              	.LBB2935:
 6214              	.LBB2936:
 6215              		.loc 1 343 0
 6216 00e8 813C0000 		lwz 9,0(28)
 6217 00ec 7F83E378 		mr 3,28
 6218 00f0 8009000C 		lwz 0,12(9)
 6219 00f4 7C0903A6 		mtctr 0
 6220              	.LEHB42:
 6221 00f8 4E800421 		bctrl
 6222              	.LEHE42:
 6223              	.LVL528:
 6224              	.LBE2936:
 6225              	.LBE2935:
 6226              	.LBE2934:
 6227              	.LBE2941:
 6228              	.LBE2906:
 6229              	.LBB2943:
 6230              	.LBB2944:
 6231              	.LBB2945:
 6232              	.LBB2946:
 6233              	.LBB2947:
 6234              	.LBB2948:
 6235              		.loc 11 70 0
 6236 00fc 807C0004 		lwz 3,4(28)
 6237              	.LVL529:
 6238              		.loc 11 71 0
 6239 0100 7F83E800 		cmpw 7,3,29
 6240 0104 40BE000C 		bne+ 7,.L495
 6241 0108 48000018 		b .L472
 6242              	.LVL530:
 6243              	.L487:
 6244              		.loc 11 74 0
 6245 010c 7FE3FB78 		mr 3,31
 6246              	.LVL531:
 6247              	.L495:
 6248              	.LBB2949:
 6249 0110 83E30000 		lwz 31,0(3)
 6250              	.LVL532:
 6251              	.LBB2950:
 6252              	.LBB2951:
 6253              	.LBB2952:
 6254              		.loc 7 98 0
 6255 0114 48000001 		bl _ZdlPv
 6256              	.LVL533:
 6257              	.LBE2952:
 6258              	.LBE2951:
 6259              	.LBE2950:
 6260              	.LBE2949:
 6261              		.loc 11 71 0
 6262 0118 7F9FE800 		cmpw 7,31,29
 6263 011c 409EFFF0 		bne+ 7,.L487
 6264              	.LVL534:
 6265              	.L472:
 6266              	.LBE2948:
 6267              	.LBE2947:
 6268              	.LBE2946:
 6269              	.LBE2945:
 6270              	.LBE2944:
 6271              	.LBE2943:
 6272              	.LBB2953:
 6273              	.LBB2954:
 6274              	.LBB2955:
 6275              	.LBB2956:
 6276              	.LBB2957:
 6277              	.LBB2958:
 6278              		.loc 1 105 0
 6279 0120 3D200000 		lis 9,_ZTVN7sigslot15single_threadedE+8@ha
 6280              	.LBE2958:
 6281              	.LBE2957:
 6282              	.LBE2956:
 6283              	.LBE2955:
 6284              	.LBE2954:
 6285              	.LBE2953:
 6286              	.LBE2989:
 6287              		.loc 1 826 0
 6288 0124 83A1001C 		lwz 29,28(1)
 6289              	.LVL535:
 6290              	.LBB2990:
 6291              	.LBB2969:
 6292              	.LBB2967:
 6293              	.LBB2965:
 6294              	.LBB2963:
 6295              	.LBB2961:
 6296              	.LBB2959:
 6297              		.loc 1 105 0
 6298 0128 38090008 		la 0,_ZTVN7sigslot15single_threadedE+8@l(9)
 6299              	.LBE2959:
 6300              	.LBE2961:
 6301              	.LBE2963:
 6302              	.LBE2965:
 6303              	.LBE2967:
 6304              	.LBE2969:
 6305              	.LBE2990:
 6306              		.loc 1 826 0
 6307 012c 83C10020 		lwz 30,32(1)
 6308              	.LBB2991:
 6309              	.LBB2970:
 6310              	.LBB2968:
 6311              	.LBB2966:
 6312              	.LBB2964:
 6313              	.LBB2962:
 6314              	.LBB2960:
 6315              		.loc 1 105 0
 6316 0130 901C0000 		stw 0,0(28)
 6317              	.LBE2960:
 6318              	.LBE2962:
 6319              	.LBE2964:
 6320              	.LBE2966:
 6321              	.LBE2968:
 6322              	.LBE2970:
 6323              	.LBE2991:
 6324              		.loc 1 826 0
 6325 0134 8001002C 		lwz 0,44(1)
 6326 0138 83810018 		lwz 28,24(1)
 6327              	.LVL536:
 6328 013c 7C0803A6 		mtlr 0
 6329 0140 83E10024 		lwz 31,36(1)
 6330 0144 38210028 		addi 1,1,40
 6331              		.cfi_remember_state
 6332              	.LCFI62:
 6333              		.cfi_def_cfa_offset 0
 6334              		.cfi_restore 31
 6335              		.cfi_restore 30
 6336              		.cfi_restore 29
 6337              		.cfi_restore 28
 6338 0148 4E800020 		blr
 6339              	.LVL537:
 6340              	.L489:
 6341              	.LCFI63:
 6342              		.cfi_restore_state
 6343 014c 7C7F1B78 		mr 31,3
 6344              	.L464:
 6345              	.LVL538:
 6346              	.LBB2992:
 6347              	.LBB2971:
 6348              	.LBB2972:
 6349              	.LBB2973:
 6350              	.LBB2974:
 6351              	.LBB2975:
 6352              	.LBB2976:
 6353              		.loc 11 70 0
 6354 0150 807C0004 		lwz 3,4(28)
 6355              	.LVL539:
 6356              		.loc 11 71 0
 6357 0154 7F83E800 		cmpw 7,3,29
 6358 0158 419E0038 		beq- 7,.L483
 6359              	.LVL540:
 6360              	.L496:
 6361              	.LBB2977:
 6362              		.loc 11 74 0
 6363 015c 83C30000 		lwz 30,0(3)
 6364              	.LVL541:
 6365              	.LBB2978:
 6366              	.LBB2979:
 6367              	.LBB2980:
 6368              		.loc 7 98 0
 6369 0160 48000001 		bl _ZdlPv
 6370              	.LVL542:
 6371              	.LBE2980:
 6372              	.LBE2979:
 6373              	.LBE2978:
 6374              	.LBE2977:
 6375              		.loc 11 71 0
 6376 0164 7F9EE800 		cmpw 7,30,29
 6377 0168 419E0028 		beq- 7,.L483
 6378              		.loc 11 74 0
 6379 016c 7FC3F378 		mr 3,30
 6380 0170 4BFFFFEC 		b .L496
 6381              	.LVL543:
 6382              	.L490:
 6383              	.LBE2976:
 6384              	.LBE2975:
 6385              	.LBE2974:
 6386              	.LBE2973:
 6387              	.LBE2972:
 6388              	.LBE2971:
 6389              	.LBB2981:
 6390              	.LBB2942:
 6391              	.LBB2937:
 6392              	.LBB2938:
 6393              	.LBB2939:
 6394              		.loc 1 343 0
 6395 0174 813C0000 		lwz 9,0(28)
 6396 0178 7C7F1B78 		mr 31,3
 6397              	.LVL544:
 6398 017c 7F83E378 		mr 3,28
 6399 0180 8009000C 		lwz 0,12(9)
 6400 0184 7C0903A6 		mtctr 0
 6401 0188 4E800421 		bctrl
 6402 018c 4BFFFFC4 		b .L464
 6403              	.LVL545:
 6404              	.L483:
 6405              	.LBE2939:
 6406              	.LBE2938:
 6407              	.LBE2937:
 6408              	.LBE2942:
 6409              	.LBE2981:
 6410              	.LBB2982:
 6411              	.LBB2983:
 6412              	.LBB2984:
 6413              	.LBB2985:
 6414              	.LBB2986:
 6415              	.LBB2987:
 6416              		.loc 1 105 0
 6417 0190 3D200000 		lis 9,_ZTVN7sigslot15single_threadedE+8@ha
 6418 0194 7FE3FB78 		mr 3,31
 6419 0198 38090008 		la 0,_ZTVN7sigslot15single_threadedE+8@l(9)
 6420 019c 901C0000 		stw 0,0(28)
 6421              	.LEHB43:
 6422 01a0 48000001 		bl _Unwind_Resume
 6423              	.LEHE43:
 6424              	.LBE2987:
 6425              	.LBE2986:
 6426              	.LBE2985:
 6427              	.LBE2984:
 6428              	.LBE2983:
 6429              	.LBE2982:
 6430              	.LBE2992:
 6431              		.cfi_endproc
 6432              	.LFE1509:
 6433              		.section	.gcc_except_table
 6434              	.LLSDA1509:
 6435 00f0 FF       		.byte	0xff
 6436 00f1 FF       		.byte	0xff
 6437 00f2 01       		.byte	0x1
 6438 00f3 15       		.uleb128 .LLSDACSE1509-.LLSDACSB1509
 6439              	.LLSDACSB1509:
 6440 00f4 30       		.uleb128 .LEHB40-.LFB1509
 6441 00f5 04       		.uleb128 .LEHE40-.LEHB40
 6442 00f6 CC02     		.uleb128 .L489-.LFB1509
 6443 00f8 00       		.uleb128 0
 6444 00f9 54       		.uleb128 .LEHB41-.LFB1509
 6445 00fa 58       		.uleb128 .LEHE41-.LEHB41
 6446 00fb F402     		.uleb128 .L490-.LFB1509
 6447 00fd 00       		.uleb128 0
 6448 00fe F801     		.uleb128 .LEHB42-.LFB1509
 6449 0100 04       		.uleb128 .LEHE42-.LEHB42
 6450 0101 CC02     		.uleb128 .L489-.LFB1509
 6451 0103 00       		.uleb128 0
 6452 0104 A003     		.uleb128 .LEHB43-.LFB1509
 6453 0106 04       		.uleb128 .LEHE43-.LEHB43
 6454 0107 00       		.uleb128 0
 6455 0108 00       		.uleb128 0
 6456              	.LLSDACSE1509:
 6457              		.section	.text._ZN7sigslot13_signal_base2IP10GuiElementbNS_15single_threadedEED2Ev,"axG",@progbits
 6458              		.size	_ZN7sigslot13_signal_base2IP10GuiElementbNS_15single_threadedEED2Ev, .-_ZN7sigslot13_signal_
 6459              		.section	.text._ZN7sigslot7signal2IP10GuiElementbNS_15single_threadedEED2Ev,"axG",@progbits,_ZN7si
 6460              		.align 2
 6461              		.weak	_ZN7sigslot7signal2IP10GuiElementbNS_15single_threadedEED2Ev
 6462              		.type	_ZN7sigslot7signal2IP10GuiElementbNS_15single_threadedEED2Ev, @function
 6463              	_ZN7sigslot7signal2IP10GuiElementbNS_15single_threadedEED2Ev:
 6464              	.LFB1479:
 6465              		.loc 1 2235 0
 6466              		.cfi_startproc
 6467              		.cfi_personality 0,__gxx_personality_v0
 6468              		.cfi_lsda 0,.LLSDA1479
 6469              	.LVL546:
 6470 0000 7C0802A6 		mflr 0
 6471 0004 9421FFD8 		stwu 1,-40(1)
 6472              	.LCFI64:
 6473              		.cfi_def_cfa_offset 40
 6474              		.cfi_register 65, 0
 6475              	.LBB3090:
 6476              	.LBB3091:
 6477              	.LBB3092:
 6478              	.LBB3093:
 6479              		.loc 1 826 0
 6480 0008 3D200000 		lis 9,_ZTVN7sigslot13_signal_base2IP10GuiElementbNS_15single_threadedEEE+8@ha
 6481              	.LBE3093:
 6482              	.LBE3092:
 6483              	.LBE3091:
 6484              	.LBE3090:
 6485              		.loc 1 2235 0
 6486 000c 93810018 		stw 28,24(1)
 6487 0010 7C7C1B78 		mr 28,3
 6488              		.cfi_offset 28, -16
 6489              	.LVL547:
 6490 0014 9001002C 		stw 0,44(1)
 6491              	.LBB3191:
 6492              	.LBB3186:
 6493              	.LBB3181:
 6494              	.LBB3176:
 6495              		.loc 1 826 0
 6496 0018 38090008 		la 0,_ZTVN7sigslot13_signal_base2IP10GuiElementbNS_15single_threadedEEE+8@l(9)
 6497              		.cfi_offset 65, 4
 6498              	.LBE3176:
 6499              	.LBE3181:
 6500              	.LBE3186:
 6501              	.LBE3191:
 6502              		.loc 1 2235 0
 6503 001c 93A1001C 		stw 29,28(1)
 6504 0020 3BA30004 		addi 29,3,4
 6505              		.cfi_offset 29, -12
 6506 0024 93C10020 		stw 30,32(1)
 6507 0028 93E10024 		stw 31,36(1)
 6508              	.LBB3192:
 6509              	.LBB3187:
 6510              	.LBB3182:
 6511              	.LBB3177:
 6512              		.loc 1 826 0
 6513 002c 90030000 		stw 0,0(3)
 6514              	.LVL548:
 6515              	.LEHB44:
 6516              	.LBB3094:
 6517              	.LBB3095:
 6518              	.LBB3096:
 6519              	.LBB3097:
 6520              		.loc 1 338 0
 6521              		.cfi_offset 31, -4
 6522              		.cfi_offset 30, -8
 6523 0030 48000001 		bl _ZN7sigslot15single_threaded4lockEv
 6524              	.LEHE44:
 6525              	.LVL549:
 6526              	.LBE3097:
 6527              	.LBE3096:
 6528              	.LBE3095:
 6529              		.loc 3 56 0
 6530 0034 7F9DE378 		mr 29,28
 6531              	.LVL550:
 6532 0038 87FD0004 		lwzu 31,4(29)
 6533              	.LVL551:
 6534              	.LBB3128:
 6535              		.loc 1 834 0
 6536 003c 7F9FE800 		cmpw 7,31,29
 6537 0040 419E00A8 		beq- 7,.L498
 6538              	.LVL552:
 6539              	.L536:
 6540              		.loc 1 836 0
 6541 0044 807F0008 		lwz 3,8(31)
 6542 0048 81230000 		lwz 9,0(3)
 6543 004c 80090008 		lwz 0,8(9)
 6544 0050 7C0903A6 		mtctr 0
 6545              	.LEHB45:
 6546 0054 4E800421 		bctrl
 6547              	.LBB3098:
 6548              	.LBB3099:
 6549              	.LBB3100:
 6550              	.LBB3101:
 6551              		.loc 1 338 0
 6552 0058 81230000 		lwz 9,0(3)
 6553              	.LBE3101:
 6554              	.LBE3100:
 6555              	.LBE3099:
 6556              	.LBE3098:
 6557              		.loc 1 836 0
 6558 005c 7C7E1B78 		mr 30,3
 6559              	.LVL553:
 6560 0060 93810008 		stw 28,8(1)
 6561              	.LVL554:
 6562              	.LBB3110:
 6563              	.LBB3109:
 6564              	.LBB3103:
 6565              	.LBB3102:
 6566              		.loc 1 338 0
 6567 0064 80090008 		lwz 0,8(9)
 6568 0068 7C0903A6 		mtctr 0
 6569 006c 4E800421 		bctrl
 6570              	.LVL555:
 6571              	.LBE3102:
 6572              	.LBE3103:
 6573              	.LBB3104:
 6574              	.LBB3105:
 6575              		.loc 10 528 0
 6576 0070 387E0004 		addi 3,30,4
 6577 0074 38810008 		addi 4,1,8
 6578 0078 48000001 		bl _ZNSt8_Rb_treeIPN7sigslot12_signal_baseINS0_15single_threadedEEES4_St9_IdentityIS4_ESt4lessIS4_
 6579              	.LVL556:
 6580              	.LBE3105:
 6581              	.LBE3104:
 6582              	.LBB3106:
 6583              	.LBB3107:
 6584              	.LBB3108:
 6585              		.loc 1 343 0
 6586 007c 813E0000 		lwz 9,0(30)
 6587 0080 7FC3F378 		mr 3,30
 6588 0084 8009000C 		lwz 0,12(9)
 6589 0088 7C0903A6 		mtctr 0
 6590 008c 4E800421 		bctrl
 6591              	.LVL557:
 6592              	.LBE3108:
 6593              	.LBE3107:
 6594              	.LBE3106:
 6595              	.LBE3109:
 6596              	.LBE3110:
 6597              		.loc 1 837 0
 6598 0090 807F0008 		lwz 3,8(31)
 6599 0094 2F830000 		cmpwi 7,3,0
 6600 0098 419E0014 		beq- 7,.L500
 6601 009c 81230000 		lwz 9,0(3)
 6602 00a0 80090004 		lwz 0,4(9)
 6603 00a4 7C0903A6 		mtctr 0
 6604 00a8 4E800421 		bctrl
 6605              	.LEHE45:
 6606              	.L500:
 6607              	.LVL558:
 6608              	.LBB3111:
 6609              	.LBB3112:
 6610              		.loc 4 234 0
 6611 00ac 83FF0000 		lwz 31,0(31)
 6612              	.LVL559:
 6613              	.LBE3112:
 6614              	.LBE3111:
 6615              		.loc 1 834 0
 6616 00b0 7F9DF800 		cmpw 7,29,31
 6617 00b4 409EFF90 		bne+ 7,.L536
 6618              	.LBE3128:
 6619              		.loc 3 56 0
 6620 00b8 83FC0004 		lwz 31,4(28)
 6621              	.LVL560:
 6622              	.LBB3129:
 6623              	.LBB3113:
 6624              	.LBB3114:
 6625              		.loc 4 1162 0
 6626 00bc 7F9DF800 		cmpw 7,29,31
 6627 00c0 40BE000C 		bne+ 7,.L538
 6628 00c4 48000024 		b .L498
 6629              	.LVL561:
 6630              	.L531:
 6631              		.loc 4 1163 0
 6632 00c8 7FDFF378 		mr 31,30
 6633              	.LVL562:
 6634              	.L538:
 6635              	.LBB3115:
 6636              	.LBB3116:
 6637              		.loc 11 112 0
 6638 00cc 83DF0000 		lwz 30,0(31)
 6639              	.LVL563:
 6640              	.LBB3117:
 6641              	.LBB3118:
 6642              		.loc 4 1532 0
 6643 00d0 7FE3FB78 		mr 3,31
 6644 00d4 48000001 		bl _ZNSt8__detail15_List_node_base9_M_unhookEv
 6645              	.LVL564:
 6646              	.LBB3119:
 6647              	.LBB3120:
 6648              	.LBB3121:
 6649              		.loc 7 98 0
 6650 00d8 7FE3FB78 		mr 3,31
 6651 00dc 48000001 		bl _ZdlPv
 6652              	.LVL565:
 6653              	.LBE3121:
 6654              	.LBE3120:
 6655              	.LBE3119:
 6656              	.LBE3118:
 6657              	.LBE3117:
 6658              	.LBE3116:
 6659              	.LBE3115:
 6660              		.loc 4 1162 0
 6661 00e0 7F9DF000 		cmpw 7,29,30
 6662 00e4 409EFFE4 		bne+ 7,.L531
 6663              	.LVL566:
 6664              	.L498:
 6665              	.LBE3114:
 6666              	.LBE3113:
 6667              	.LBB3122:
 6668              	.LBB3123:
 6669              	.LBB3124:
 6670              		.loc 1 343 0
 6671 00e8 813C0000 		lwz 9,0(28)
 6672 00ec 7F83E378 		mr 3,28
 6673 00f0 8009000C 		lwz 0,12(9)
 6674 00f4 7C0903A6 		mtctr 0
 6675              	.LEHB46:
 6676 00f8 4E800421 		bctrl
 6677              	.LEHE46:
 6678              	.LBE3124:
 6679              	.LBE3123:
 6680              	.LBE3122:
 6681              	.LBE3129:
 6682              	.LBE3094:
 6683              	.LBB3131:
 6684              	.LBB3132:
 6685              	.LBB3133:
 6686              	.LBB3134:
 6687              	.LBB3135:
 6688              	.LBB3136:
 6689              		.loc 11 70 0
 6690 00fc 807C0004 		lwz 3,4(28)
 6691              	.LVL567:
 6692              		.loc 11 71 0
 6693 0100 7F83E800 		cmpw 7,3,29
 6694 0104 40BE000C 		bne+ 7,.L540
 6695 0108 48000018 		b .L516
 6696              	.LVL568:
 6697              	.L532:
 6698              		.loc 11 74 0
 6699 010c 7FE3FB78 		mr 3,31
 6700              	.LVL569:
 6701              	.L540:
 6702              	.LBB3137:
 6703 0110 83E30000 		lwz 31,0(3)
 6704              	.LVL570:
 6705              	.LBB3138:
 6706              	.LBB3139:
 6707              	.LBB3140:
 6708              		.loc 7 98 0
 6709 0114 48000001 		bl _ZdlPv
 6710              	.LVL571:
 6711              	.LBE3140:
 6712              	.LBE3139:
 6713              	.LBE3138:
 6714              	.LBE3137:
 6715              		.loc 11 71 0
 6716 0118 7F9FE800 		cmpw 7,31,29
 6717 011c 409EFFF0 		bne+ 7,.L532
 6718              	.LVL572:
 6719              	.L516:
 6720              	.LBE3136:
 6721              	.LBE3135:
 6722              	.LBE3134:
 6723              	.LBE3133:
 6724              	.LBE3132:
 6725              	.LBE3131:
 6726              	.LBB3141:
 6727              	.LBB3142:
 6728              	.LBB3143:
 6729              	.LBB3144:
 6730              	.LBB3145:
 6731              	.LBB3146:
 6732              		.loc 1 105 0
 6733 0120 3D200000 		lis 9,_ZTVN7sigslot15single_threadedE+8@ha
 6734              	.LBE3146:
 6735              	.LBE3145:
 6736              	.LBE3144:
 6737              	.LBE3143:
 6738              	.LBE3142:
 6739              	.LBE3141:
 6740              	.LBE3177:
 6741              	.LBE3182:
 6742              	.LBE3187:
 6743              	.LBE3192:
 6744              		.loc 1 2238 0
 6745 0124 83A1001C 		lwz 29,28(1)
 6746              	.LVL573:
 6747              	.LBB3193:
 6748              	.LBB3188:
 6749              	.LBB3183:
 6750              	.LBB3178:
 6751              	.LBB3157:
 6752              	.LBB3155:
 6753              	.LBB3153:
 6754              	.LBB3151:
 6755              	.LBB3149:
 6756              	.LBB3147:
 6757              		.loc 1 105 0
 6758 0128 38090008 		la 0,_ZTVN7sigslot15single_threadedE+8@l(9)
 6759              	.LBE3147:
 6760              	.LBE3149:
 6761              	.LBE3151:
 6762              	.LBE3153:
 6763              	.LBE3155:
 6764              	.LBE3157:
 6765              	.LBE3178:
 6766              	.LBE3183:
 6767              	.LBE3188:
 6768              	.LBE3193:
 6769              		.loc 1 2238 0
 6770 012c 83C10020 		lwz 30,32(1)
 6771              	.LBB3194:
 6772              	.LBB3189:
 6773              	.LBB3184:
 6774              	.LBB3179:
 6775              	.LBB3158:
 6776              	.LBB3156:
 6777              	.LBB3154:
 6778              	.LBB3152:
 6779              	.LBB3150:
 6780              	.LBB3148:
 6781              		.loc 1 105 0
 6782 0130 901C0000 		stw 0,0(28)
 6783              	.LBE3148:
 6784              	.LBE3150:
 6785              	.LBE3152:
 6786              	.LBE3154:
 6787              	.LBE3156:
 6788              	.LBE3158:
 6789              	.LBE3179:
 6790              	.LBE3184:
 6791              	.LBE3189:
 6792              	.LBE3194:
 6793              		.loc 1 2238 0
 6794 0134 8001002C 		lwz 0,44(1)
 6795 0138 83810018 		lwz 28,24(1)
 6796              	.LVL574:
 6797 013c 7C0803A6 		mtlr 0
 6798 0140 83E10024 		lwz 31,36(1)
 6799 0144 38210028 		addi 1,1,40
 6800              		.cfi_remember_state
 6801              	.LCFI65:
 6802              		.cfi_def_cfa_offset 0
 6803              		.cfi_restore 31
 6804              		.cfi_restore 30
 6805              		.cfi_restore 29
 6806              		.cfi_restore 28
 6807 0148 4E800020 		blr
 6808              	.LVL575:
 6809              	.L534:
 6810              	.LCFI66:
 6811              		.cfi_restore_state
 6812 014c 7C7F1B78 		mr 31,3
 6813              	.L508:
 6814              	.LBB3195:
 6815              	.LBB3190:
 6816              	.LBB3185:
 6817              	.LBB3180:
 6818              	.LBB3159:
 6819              	.LBB3160:
 6820              	.LBB3161:
 6821              	.LBB3162:
 6822              	.LBB3163:
 6823              	.LBB3164:
 6824              		.loc 11 70 0
 6825 0150 807C0004 		lwz 3,4(28)
 6826              	.LVL576:
 6827              		.loc 11 71 0
 6828 0154 7F83E800 		cmpw 7,3,29
 6829 0158 419E0038 		beq- 7,.L525
 6830              	.LVL577:
 6831              	.L541:
 6832              	.LBB3165:
 6833              		.loc 11 74 0
 6834 015c 83C30000 		lwz 30,0(3)
 6835              	.LVL578:
 6836              	.LBB3166:
 6837              	.LBB3167:
 6838              	.LBB3168:
 6839              		.loc 7 98 0
 6840 0160 48000001 		bl _ZdlPv
 6841              	.LVL579:
 6842              	.LBE3168:
 6843              	.LBE3167:
 6844              	.LBE3166:
 6845              	.LBE3165:
 6846              		.loc 11 71 0
 6847 0164 7F9EE800 		cmpw 7,30,29
 6848 0168 419E0028 		beq- 7,.L525
 6849              		.loc 11 74 0
 6850 016c 7FC3F378 		mr 3,30
 6851 0170 4BFFFFEC 		b .L541
 6852              	.LVL580:
 6853              	.L535:
 6854              	.LBE3164:
 6855              	.LBE3163:
 6856              	.LBE3162:
 6857              	.LBE3161:
 6858              	.LBE3160:
 6859              	.LBE3159:
 6860              	.LBB3169:
 6861              	.LBB3130:
 6862              	.LBB3125:
 6863              	.LBB3126:
 6864              	.LBB3127:
 6865              		.loc 1 343 0
 6866 0174 813C0000 		lwz 9,0(28)
 6867 0178 7C7F1B78 		mr 31,3
 6868              	.LVL581:
 6869 017c 7F83E378 		mr 3,28
 6870 0180 8009000C 		lwz 0,12(9)
 6871 0184 7C0903A6 		mtctr 0
 6872 0188 4E800421 		bctrl
 6873 018c 4BFFFFC4 		b .L508
 6874              	.LVL582:
 6875              	.L525:
 6876              	.LBE3127:
 6877              	.LBE3126:
 6878              	.LBE3125:
 6879              	.LBE3130:
 6880              	.LBE3169:
 6881              	.LBB3170:
 6882              	.LBB3171:
 6883              	.LBB3172:
 6884              	.LBB3173:
 6885              	.LBB3174:
 6886              	.LBB3175:
 6887              		.loc 1 105 0
 6888 0190 3D200000 		lis 9,_ZTVN7sigslot15single_threadedE+8@ha
 6889 0194 7FE3FB78 		mr 3,31
 6890 0198 38090008 		la 0,_ZTVN7sigslot15single_threadedE+8@l(9)
 6891 019c 901C0000 		stw 0,0(28)
 6892              	.LEHB47:
 6893 01a0 48000001 		bl _Unwind_Resume
 6894              	.LEHE47:
 6895              	.LBE3175:
 6896              	.LBE3174:
 6897              	.LBE3173:
 6898              	.LBE3172:
 6899              	.LBE3171:
 6900              	.LBE3170:
 6901              	.LBE3180:
 6902              	.LBE3185:
 6903              	.LBE3190:
 6904              	.LBE3195:
 6905              		.cfi_endproc
 6906              	.LFE1479:
 6907              		.section	.gcc_except_table
 6908              	.LLSDA1479:
 6909 0109 FF       		.byte	0xff
 6910 010a FF       		.byte	0xff
 6911 010b 01       		.byte	0x1
 6912 010c 15       		.uleb128 .LLSDACSE1479-.LLSDACSB1479
 6913              	.LLSDACSB1479:
 6914 010d 30       		.uleb128 .LEHB44-.LFB1479
 6915 010e 04       		.uleb128 .LEHE44-.LEHB44
 6916 010f CC02     		.uleb128 .L534-.LFB1479
 6917 0111 00       		.uleb128 0
 6918 0112 54       		.uleb128 .LEHB45-.LFB1479
 6919 0113 58       		.uleb128 .LEHE45-.LEHB45
 6920 0114 F402     		.uleb128 .L535-.LFB1479
 6921 0116 00       		.uleb128 0
 6922 0117 F801     		.uleb128 .LEHB46-.LFB1479
 6923 0119 04       		.uleb128 .LEHE46-.LEHB46
 6924 011a CC02     		.uleb128 .L534-.LFB1479
 6925 011c 00       		.uleb128 0
 6926 011d A003     		.uleb128 .LEHB47-.LFB1479
 6927 011f 04       		.uleb128 .LEHE47-.LEHB47
 6928 0120 00       		.uleb128 0
 6929 0121 00       		.uleb128 0
 6930              	.LLSDACSE1479:
 6931              		.section	.text._ZN7sigslot7signal2IP10GuiElementbNS_15single_threadedEED2Ev,"axG",@progbits,_ZN7si
 6932              		.size	_ZN7sigslot7signal2IP10GuiElementbNS_15single_threadedEED2Ev, .-_ZN7sigslot7signal2IP10GuiEl
 6933              		.section	.text._ZN12GuiChecksignD2Ev,"axG",@progbits,_ZN12GuiChecksignD5Ev,comdat
 6934              		.align 2
 6935              		.weak	_ZN12GuiChecksignD2Ev
 6936              		.type	_ZN12GuiChecksignD2Ev, @function
 6937              	_ZN12GuiChecksignD2Ev:
 6938              	.LFB1709:
 6939              		.loc 6 29 0
 6940              		.cfi_startproc
 6941              		.cfi_personality 0,__gxx_personality_v0
 6942              		.cfi_lsda 0,.LLSDA1709
 6943              	.LVL583:
 6944 0000 7C0802A6 		mflr 0
 6945 0004 9421FFD0 		stwu 1,-48(1)
 6946              	.LCFI67:
 6947              		.cfi_def_cfa_offset 48
 6948              		.cfi_register 65, 0
 6949              	.LBB3399:
 6950              	.LBB3400:
 6951              	.LBB3401:
 6952              	.LBB3402:
 6953              		.loc 2 89 0
 6954 0008 3D200000 		lis 9,_ZTV10GuiElement+8@ha
 6955              	.LBE3402:
 6956              	.LBE3401:
 6957              	.LBE3400:
 6958              	.LBE3399:
 6959              		.loc 6 29 0
 6960 000c 9361001C 		stw 27,28(1)
 6961              	.LBB3679:
 6962              	.LBB3674:
 6963              	.LBB3669:
 6964              	.LBB3664:
 6965              	.LBB3403:
 6966              	.LBB3404:
 6967              	.LBB3405:
 6968              		.loc 1 2305 0
 6969 0010 3B630010 		addi 27,3,16
 6970              		.cfi_offset 27, -20
 6971              	.LBE3405:
 6972              	.LBE3404:
 6973              	.LBE3403:
 6974              	.LBE3664:
 6975              	.LBE3669:
 6976              	.LBE3674:
 6977              	.LBE3679:
 6978              		.loc 6 29 0
 6979 0014 90010034 		stw 0,52(1)
 6980              	.LBB3680:
 6981              	.LBB3675:
 6982              	.LBB3670:
 6983              	.LBB3665:
 6984              		.loc 2 89 0
 6985 0018 38090008 		la 0,_ZTV10GuiElement+8@l(9)
 6986              		.cfi_offset 65, 4
 6987              	.LBB3539:
 6988              	.LBB3530:
 6989              	.LBB3521:
 6990              	.LBB3406:
 6991              	.LBB3407:
 6992              	.LBB3408:
 6993              		.loc 1 946 0
 6994 001c 3D200000 		lis 9,_ZTVN7sigslot13_signal_base3IP10GuiElementiiNS_15single_threadedEEE+8@ha
 6995              	.LBE3408:
 6996              	.LBE3407:
 6997              	.LBE3406:
 6998              	.LBE3521:
 6999              	.LBE3530:
 7000              	.LBE3539:
 7001              	.LBE3665:
 7002              	.LBE3670:
 7003              	.LBE3675:
 7004              	.LBE3680:
 7005              		.loc 6 29 0
 7006 0020 93810020 		stw 28,32(1)
 7007 0024 93A10024 		stw 29,36(1)
 7008 0028 7C7C1B78 		mr 28,3
 7009              		.cfi_offset 29, -12
 7010              		.cfi_offset 28, -16
 7011              	.LVL584:
 7012 002c 93410018 		stw 26,24(1)
 7013 0030 3BBC0014 		addi 29,28,20
 7014 0034 93C10028 		stw 30,40(1)
 7015 0038 93E1002C 		stw 31,44(1)
 7016              	.LBB3681:
 7017              	.LBB3676:
 7018              	.LBB3671:
 7019              	.LBB3666:
 7020              		.loc 2 89 0
 7021 003c 90030000 		stw 0,0(3)
 7022              	.LVL585:
 7023              	.LBB3540:
 7024              	.LBB3531:
 7025              	.LBB3522:
 7026              	.LBB3513:
 7027              	.LBB3505:
 7028              	.LBB3497:
 7029              		.loc 1 946 0
 7030 0040 38090008 		la 0,_ZTVN7sigslot13_signal_base3IP10GuiElementiiNS_15single_threadedEEE+8@l(9)
 7031              	.LBB3409:
 7032              	.LBB3410:
 7033              	.LBB3411:
 7034              	.LBB3412:
 7035              		.loc 1 338 0
 7036 0044 3D200000 		lis 9,_ZN7sigslot15single_threaded4lockEv@ha
 7037              	.LBE3412:
 7038              	.LBE3411:
 7039              	.LBE3410:
 7040              	.LBE3409:
 7041              		.loc 1 946 0
 7042 0048 90030010 		stw 0,16(3)
 7043              	.LVL586:
 7044              	.LBB3445:
 7045              	.LBB3441:
 7046              	.LBB3414:
 7047              	.LBB3413:
 7048              		.loc 1 338 0
 7049 004c 39290000 		la 9,_ZN7sigslot15single_threaded4lockEv@l(9)
 7050 0050 7F63DB78 		mr 3,27
 7051              	.LVL587:
 7052 0054 7D2903A6 		mtctr 9
 7053              	.LEHB48:
 7054              		.cfi_offset 31, -4
 7055              		.cfi_offset 30, -8
 7056              		.cfi_offset 26, -24
 7057 0058 4E800421 		bctrl
 7058              	.LEHE48:
 7059              	.LBE3413:
 7060              	.LBE3414:
 7061              	.LBE3441:
 7062              		.loc 3 56 0
 7063 005c 7F9DE378 		mr 29,28
 7064              	.LVL588:
 7065 0060 87FD0014 		lwzu 31,20(29)
 7066              	.LVL589:
 7067              	.LBB3442:
 7068              		.loc 1 954 0
 7069 0064 7F9FE800 		cmpw 7,31,29
 7070 0068 419E00A8 		beq- 7,.L544
 7071              	.LVL590:
 7072              	.L623:
 7073              		.loc 1 956 0
 7074 006c 807F0008 		lwz 3,8(31)
 7075 0070 81230000 		lwz 9,0(3)
 7076 0074 80090008 		lwz 0,8(9)
 7077 0078 7C0903A6 		mtctr 0
 7078              	.LEHB49:
 7079 007c 4E800421 		bctrl
 7080 0080 93610008 		stw 27,8(1)
 7081 0084 7C7E1B78 		mr 30,3
 7082              	.LVL591:
 7083              	.LBB3415:
 7084              	.LBB3416:
 7085              	.LBB3417:
 7086              	.LBB3418:
 7087              		.loc 1 338 0
 7088 0088 81230000 		lwz 9,0(3)
 7089 008c 80090008 		lwz 0,8(9)
 7090 0090 7C0903A6 		mtctr 0
 7091 0094 4E800421 		bctrl
 7092              	.LVL592:
 7093              	.LBE3418:
 7094              	.LBE3417:
 7095              	.LBB3419:
 7096              	.LBB3420:
 7097              		.loc 10 528 0
 7098 0098 387E0004 		addi 3,30,4
 7099 009c 38810008 		addi 4,1,8
