	.file	"gui_longtext.cpp"
	.section	".text"
.Ltext0:
	.section	.text._ZN10GuiElement9SetParentEPS_,"axG",@progbits,_ZN10GuiElement9SetParentEPS_,comdat
	.align 2
	.weak	_ZN10GuiElement9SetParentEPS_
	.type	_ZN10GuiElement9SetParentEPS_, @function
_ZN10GuiElement9SetParentEPS_:
.LFB1384:
	.file 1 "d:/Projects/SaveGameManager/savegame-manager-gx/trunk/source/GUI/gui_element.h"
	.loc 1 92 0
	.cfi_startproc
.LVL0:
	.loc 1 92 0
	stw 4,96(3)
	blr
	.cfi_endproc
.LFE1384:
	.size	_ZN10GuiElement9SetParentEPS_, .-_ZN10GuiElement9SetParentEPS_
	.section	.text._ZN10GuiElement9GetParentEv,"axG",@progbits,_ZN10GuiElement9GetParentEv,comdat
	.align 2
	.weak	_ZN10GuiElement9GetParentEv
	.type	_ZN10GuiElement9GetParentEv, @function
_ZN10GuiElement9GetParentEv:
.LFB1385:
	.loc 1 95 0
	.cfi_startproc
.LVL1:
	.loc 1 95 0
	lwz 3,96(3)
.LVL2:
	blr
	.cfi_endproc
.LFE1385:
	.size	_ZN10GuiElement9GetParentEv, .-_ZN10GuiElement9GetParentEv
	.section	.text._ZN10GuiElement12GetZPositionEv,"axG",@progbits,_ZN10GuiElement12GetZPositionEv,comdat
	.align 2
	.weak	_ZN10GuiElement12GetZPositionEv
	.type	_ZN10GuiElement12GetZPositionEv, @function
_ZN10GuiElement12GetZPositionEv:
.LFB1386:
	.loc 1 106 0
	.cfi_startproc
.LVL3:
	mflr 0
	stwu 1,-16(1)
.LCFI0:
	.cfi_def_cfa_offset 16
	.cfi_register 65, 0
	stw 31,12(1)
	mr 31,3
	.cfi_offset 31, -4
	stw 0,20(1)
.LBB2314:
	.loc 1 110 0
	lwz 11,96(3)
	.loc 1 108 0
	li 3,0
.LVL4:
	.loc 1 110 0
	cmpwi 7,11,0
	beq- 7,.L4
	.cfi_offset 65, 4
	.loc 1 111 0
	lwz 9,0(11)
	mr 3,11
	lwz 0,24(9)
	mtctr 0
	bctrl
.LVL5:
.L4:
	.loc 1 113 0
	lwz 0,52(31)
.LBE2314:
	.loc 1 114 0
	lwz 31,12(1)
.LVL6:
	add 3,3,0
.LVL7:
	lwz 0,20(1)
	addi 1,1,16
.LCFI1:
	.cfi_def_cfa_offset 0
	.cfi_restore 31
	mtlr 0
	blr
	.cfi_endproc
.LFE1386:
	.size	_ZN10GuiElement12GetZPositionEv, .-_ZN10GuiElement12GetZPositionEv
	.section	.text._ZN10GuiElement10GetLeftPosEv,"axG",@progbits,_ZN10GuiElement10GetLeftPosEv,comdat
	.align 2
	.weak	_ZN10GuiElement10GetLeftPosEv
	.type	_ZN10GuiElement10GetLeftPosEv, @function
_ZN10GuiElement10GetLeftPosEv:
.LFB1387:
	.loc 1 116 0
	.cfi_startproc
.LVL8:
	.loc 1 116 0
	lwz 3,44(3)
.LVL9:
	blr
	.cfi_endproc
.LFE1387:
	.size	_ZN10GuiElement10GetLeftPosEv, .-_ZN10GuiElement10GetLeftPosEv
	.section	.text._ZN10GuiElement9GetTopPosEv,"axG",@progbits,_ZN10GuiElement9GetTopPosEv,comdat
	.align 2
	.weak	_ZN10GuiElement9GetTopPosEv
	.type	_ZN10GuiElement9GetTopPosEv, @function
_ZN10GuiElement9GetTopPosEv:
.LFB1388:
	.loc 1 118 0
	.cfi_startproc
.LVL10:
	.loc 1 118 0
	lwz 3,48(3)
.LVL11:
	blr
	.cfi_endproc
.LFE1388:
	.size	_ZN10GuiElement9GetTopPosEv, .-_ZN10GuiElement9GetTopPosEv
	.section	.text._ZN10GuiElement8GetWidthEv,"axG",@progbits,_ZN10GuiElement8GetWidthEv,comdat
	.align 2
	.weak	_ZN10GuiElement8GetWidthEv
	.type	_ZN10GuiElement8GetWidthEv, @function
_ZN10GuiElement8GetWidthEv:
.LFB1389:
	.loc 1 121 0
	.cfi_startproc
.LVL12:
	.loc 1 121 0
	lwz 3,36(3)
.LVL13:
	blr
	.cfi_endproc
.LFE1389:
	.size	_ZN10GuiElement8GetWidthEv, .-_ZN10GuiElement8GetWidthEv
	.section	.text._ZN10GuiElement9GetHeightEv,"axG",@progbits,_ZN10GuiElement9GetHeightEv,comdat
	.align 2
	.weak	_ZN10GuiElement9GetHeightEv
	.type	_ZN10GuiElement9GetHeightEv, @function
_ZN10GuiElement9GetHeightEv:
.LFB1390:
	.loc 1 124 0
	.cfi_startproc
.LVL14:
	.loc 1 124 0
	lwz 3,40(3)
.LVL15:
	blr
	.cfi_endproc
.LFE1390:
	.size	_ZN10GuiElement9GetHeightEv, .-_ZN10GuiElement9GetHeightEv
	.section	.text._ZN10GuiElement7SetSizeEii,"axG",@progbits,_ZN10GuiElement7SetSizeEii,comdat
	.align 2
	.weak	_ZN10GuiElement7SetSizeEii
	.type	_ZN10GuiElement7SetSizeEii, @function
_ZN10GuiElement7SetSizeEii:
.LFB1391:
	.loc 1 128 0
	.cfi_startproc
.LVL16:
	.loc 1 130 0
	stw 4,36(3)
	.loc 1 132 0
	.loc 1 131 0
	stw 5,40(3)
	.loc 1 132 0
	blr
	.cfi_endproc
.LFE1391:
	.size	_ZN10GuiElement7SetSizeEii, .-_ZN10GuiElement7SetSizeEii
	.section	.text._ZN10GuiElement10SetVisibleEb,"axG",@progbits,_ZN10GuiElement10SetVisibleEb,comdat
	.align 2
	.weak	_ZN10GuiElement10SetVisibleEb
	.type	_ZN10GuiElement10SetVisibleEb, @function
_ZN10GuiElement10SetVisibleEb:
.LFB1392:
	.loc 1 135 0
	.cfi_startproc
	.cfi_personality 0,__gxx_personality_v0
	.cfi_lsda 0,.LLSDA1392
.LVL17:
	mflr 0
	stwu 1,-32(1)
.LCFI2:
	.cfi_def_cfa_offset 32
	.cfi_register 65, 0
	stw 27,12(1)
.LBB2315:
.LBB2316:
	.file 2 "d:/Projects/SaveGameManager/savegame-manager-gx/trunk/source/GUI/../sigslot.h"
	.loc 2 2270 0
	addi 27,3,4
	.cfi_offset 27, -20
.LBE2316:
.LBE2315:
	.loc 1 135 0
	stw 0,36(1)
	stw 30,24(1)
	mr 30,3
	.cfi_offset 30, -8
	.cfi_offset 65, 4
.LBB2339:
.LBB2333:
.LBB2317:
.LBB2318:
	.loc 2 338 0
	lwz 9,4(3)
	mr 3,27
.LVL18:
.LBE2318:
.LBE2317:
.LBE2333:
.LBE2339:
	.loc 1 135 0
	stw 28,16(1)
	mr 28,4
	.cfi_offset 28, -16
.LBB2340:
.LBB2334:
.LBB2322:
.LBB2319:
	.loc 2 338 0
	lwz 0,8(9)
.LBE2319:
.LBE2322:
.LBE2334:
.LBE2340:
	.loc 1 135 0
	stw 29,20(1)
.LBB2341:
	.file 3 "d:/Projects/SaveGameManager/savegame-manager-gx/trunk/source/GUI/gui_longtext.cpp"
	.loc 3 359 0
	mr 29,30
	.cfi_offset 29, -12
.LBE2341:
	.loc 1 135 0
	stw 31,28(1)
.LBB2342:
.LBB2335:
.LBB2323:
.LBB2320:
	.loc 2 338 0
	mtctr 0
.LBE2320:
.LBE2323:
.LBE2335:
.LBE2342:
	.loc 1 137 0
	stb 4,29(30)
.LVL19:
.LEHB0:
.LBB2343:
.LBB2336:
.LBB2324:
.LBB2321:
	.loc 2 338 0
	.cfi_offset 31, -4
	bctrl
.LEHE0:
.LVL20:
.LBE2321:
.LBE2324:
.LBE2336:
	.loc 3 359 0
	lwzu 31,8(29)
.LVL21:
.LBB2337:
	.loc 2 2274 0
	cmpw 7,31,29
	beq- 7,.L13
.LVL22:
.L20:
	.loc 2 2279 0
	lwz 3,8(31)
	mr 4,30
	mr 5,28
.LBB2325:
.LBB2326:
	.file 4 "d:\\devkitpro\\devkitppc\\bin\\../lib/gcc/powerpc-eabi/4.6.3/../../../../powerpc-eabi/include/c++/4.6.3/bits/stl_list.h"
	.loc 4 234 0
	lwz 31,0(31)
.LVL23:
.LBE2326:
.LBE2325:
	.loc 2 2279 0
	lwz 9,0(3)
	lwz 0,12(9)
	mtctr 0
.LEHB1:
	bctrl
.LEHE1:
.LVL24:
	.loc 2 2274 0
	cmpw 7,29,31
	bne+ 7,.L20
.LVL25:
.L13:
.LBB2327:
.LBB2328:
.LBB2329:
	.loc 2 343 0
	lwz 9,4(30)
	mr 3,27
	lwz 0,12(9)
	mtctr 0
.LEHB2:
	bctrl
.LEHE2:
.LBE2329:
.LBE2328:
.LBE2327:
.LBE2337:
.LBE2343:
	.loc 1 139 0
	lwz 0,36(1)
	lwz 27,12(1)
.LVL26:
	mtlr 0
	lwz 28,16(1)
.LVL27:
	lwz 29,20(1)
	lwz 30,24(1)
.LVL28:
	lwz 31,28(1)
.LVL29:
	addi 1,1,32
	.cfi_remember_state
.LCFI3:
	.cfi_def_cfa_offset 0
	.cfi_restore 31
	.cfi_restore 30
	.cfi_restore 29
	.cfi_restore 28
	.cfi_restore 27
	blr
.LVL30:
.L19:
.LCFI4:
	.cfi_restore_state
.LBB2344:
.LBB2338:
.LBB2330:
.LBB2331:
.LBB2332:
	.loc 2 343 0
	lwz 9,4(30)
	mr 31,3
.LVL31:
	mr 3,27
	lwz 0,12(9)
	mtctr 0
	bctrl
	mr 3,31
.LEHB3:
	bl _Unwind_Resume
.LEHE3:
.LBE2332:
.LBE2331:
.LBE2330:
.LBE2338:
.LBE2344:
	.cfi_endproc
.LFE1392:
	.globl __gxx_personality_v0
	.section	.gcc_except_table,"a",@progbits
.LLSDA1392:
	.byte	0xff
	.byte	0xff
	.byte	0x1
	.uleb128 .LLSDACSE1392-.LLSDACSB1392
.LLSDACSB1392:
	.uleb128 .LEHB0-.LFB1392
	.uleb128 .LEHE0-.LEHB0
	.uleb128 0
	.uleb128 0
	.uleb128 .LEHB1-.LFB1392
	.uleb128 .LEHE1-.LEHB1
	.uleb128 .L19-.LFB1392
	.uleb128 0
	.uleb128 .LEHB2-.LFB1392
	.uleb128 .LEHE2-.LEHB2
	.uleb128 0
	.uleb128 0
	.uleb128 .LEHB3-.LFB1392
	.uleb128 .LEHE3-.LEHB3
	.uleb128 0
	.uleb128 0
.LLSDACSE1392:
	.section	.text._ZN10GuiElement10SetVisibleEb,"axG",@progbits,_ZN10GuiElement10SetVisibleEb,comdat
	.size	_ZN10GuiElement10SetVisibleEb, .-_ZN10GuiElement10SetVisibleEb
	.section	.text._ZN10GuiElement9IsVisibleEv,"axG",@progbits,_ZN10GuiElement9IsVisibleEv,comdat
	.align 2
	.weak	_ZN10GuiElement9IsVisibleEv
	.type	_ZN10GuiElement9IsVisibleEv, @function
_ZN10GuiElement9IsVisibleEv:
.LFB1393:
	.loc 1 142 0
	.cfi_startproc
.LVL32:
	.loc 1 142 0
	lbz 3,29(3)
.LVL33:
	blr
	.cfi_endproc
.LFE1393:
	.size	_ZN10GuiElement9IsVisibleEv, .-_ZN10GuiElement9IsVisibleEv
	.section	.text._ZN10GuiElement12IsSelectableEv,"axG",@progbits,_ZN10GuiElement12IsSelectableEv,comdat
	.align 2
	.weak	_ZN10GuiElement12IsSelectableEv
	.type	_ZN10GuiElement12IsSelectableEv, @function
_ZN10GuiElement12IsSelectableEv:
.LFB1394:
	.loc 1 145 0
	.cfi_startproc
.LVL34:
	.loc 1 149 0
	lwz 0,72(3)
	li 9,0
	cmpwi 7,0,4
	beq- 7,.L23
	.loc 1 149 0 is_stmt 0 discriminator 1
	cmpwi 7,0,2
	beq- 7,.L23
	.loc 1 149 0 discriminator 3
	lbz 9,30(3)
.L23:
	.loc 1 150 0 is_stmt 1 discriminator 5
	mr 3,9
.LVL35:
	blr
	.cfi_endproc
.LFE1394:
	.size	_ZN10GuiElement12IsSelectableEv, .-_ZN10GuiElement12IsSelectableEv
	.section	.text._ZN10GuiElement11IsClickableEv,"axG",@progbits,_ZN10GuiElement11IsClickableEv,comdat
	.align 2
	.weak	_ZN10GuiElement11IsClickableEv
	.type	_ZN10GuiElement11IsClickableEv, @function
_ZN10GuiElement11IsClickableEv:
.LFB1395:
	.loc 1 153 0
	.cfi_startproc
.LVL36:
	.loc 1 158 0
	lwz 0,72(3)
	li 9,0
	cmpwi 7,0,4
	beq- 7,.L27
	.loc 1 158 0 is_stmt 0 discriminator 1
	cmpwi 7,0,2
	beq- 7,.L27
	.loc 1 158 0 discriminator 3
	cmpwi 7,0,3
	beq- 7,.L27
	.loc 1 158 0 discriminator 4
	lbz 9,31(3)
.L27:
	.loc 1 159 0 is_stmt 1 discriminator 6
	mr 3,9
.LVL37:
	blr
	.cfi_endproc
.LFE1395:
	.size	_ZN10GuiElement11IsClickableEv, .-_ZN10GuiElement11IsClickableEv
	.section	.text._ZN10GuiElement10IsHoldableEv,"axG",@progbits,_ZN10GuiElement10IsHoldableEv,comdat
	.align 2
	.weak	_ZN10GuiElement10IsHoldableEv
	.type	_ZN10GuiElement10IsHoldableEv, @function
_ZN10GuiElement10IsHoldableEv:
.LFB1396:
	.loc 1 162 0
	.cfi_startproc
.LVL38:
	.loc 1 162 0
	lwz 9,72(3)
	li 0,0
	cmpwi 7,9,4
	beq- 7,.L32
	.loc 1 162 0 is_stmt 0 discriminator 1
	lbz 0,32(3)
.L32:
	.loc 1 162 0 discriminator 4
	mr 3,0
.LVL39:
	blr
	.cfi_endproc
.LFE1396:
	.size	_ZN10GuiElement10IsHoldableEv, .-_ZN10GuiElement10IsHoldableEv
	.section	.text._ZN10GuiElement13SetSelectableEb,"axG",@progbits,_ZN10GuiElement13SetSelectableEb,comdat
	.align 2
	.weak	_ZN10GuiElement13SetSelectableEb
	.type	_ZN10GuiElement13SetSelectableEb, @function
_ZN10GuiElement13SetSelectableEb:
.LFB1397:
	.loc 1 165 0 is_stmt 1
	.cfi_startproc
.LVL40:
	.loc 1 165 0
	stb 4,30(3)
	blr
	.cfi_endproc
.LFE1397:
	.size	_ZN10GuiElement13SetSelectableEb, .-_ZN10GuiElement13SetSelectableEb
	.section	.text._ZN10GuiElement12SetClickableEb,"axG",@progbits,_ZN10GuiElement12SetClickableEb,comdat
	.align 2
	.weak	_ZN10GuiElement12SetClickableEb
	.type	_ZN10GuiElement12SetClickableEb, @function
_ZN10GuiElement12SetClickableEb:
.LFB1398:
	.loc 1 168 0
	.cfi_startproc
.LVL41:
	.loc 1 168 0
	stb 4,31(3)
	blr
	.cfi_endproc
.LFE1398:
	.size	_ZN10GuiElement12SetClickableEb, .-_ZN10GuiElement12SetClickableEb
	.section	.text._ZN10GuiElement11SetHoldableEb,"axG",@progbits,_ZN10GuiElement11SetHoldableEb,comdat
	.align 2
	.weak	_ZN10GuiElement11SetHoldableEb
	.type	_ZN10GuiElement11SetHoldableEb, @function
_ZN10GuiElement11SetHoldableEb:
.LFB1399:
	.loc 1 171 0
	.cfi_startproc
.LVL42:
	.loc 1 171 0
	stb 4,32(3)
	blr
	.cfi_endproc
.LFE1399:
	.size	_ZN10GuiElement11SetHoldableEb, .-_ZN10GuiElement11SetHoldableEb
	.section	.text._ZN10GuiElement8GetStateEv,"axG",@progbits,_ZN10GuiElement8GetStateEv,comdat
	.align 2
	.weak	_ZN10GuiElement8GetStateEv
	.type	_ZN10GuiElement8GetStateEv, @function
_ZN10GuiElement8GetStateEv:
.LFB1400:
	.loc 1 178 0
	.cfi_startproc
.LVL43:
	.loc 1 178 0
	lwz 3,72(3)
.LVL44:
	blr
	.cfi_endproc
.LFE1400:
	.size	_ZN10GuiElement8GetStateEv, .-_ZN10GuiElement8GetStateEv
	.section	.text._ZN10GuiElement12GetStateChanEv,"axG",@progbits,_ZN10GuiElement12GetStateChanEv,comdat
	.align 2
	.weak	_ZN10GuiElement12GetStateChanEv
	.type	_ZN10GuiElement12GetStateChanEv, @function
_ZN10GuiElement12GetStateChanEv:
.LFB1401:
	.loc 1 181 0
	.cfi_startproc
.LVL45:
	.loc 1 181 0
	lwz 3,76(3)
.LVL46:
	blr
	.cfi_endproc
.LFE1401:
	.size	_ZN10GuiElement12GetStateChanEv, .-_ZN10GuiElement12GetStateChanEv
	.section	.text._ZN10GuiElement8SetAlphaEi,"axG",@progbits,_ZN10GuiElement8SetAlphaEi,comdat
	.align 2
	.weak	_ZN10GuiElement8SetAlphaEi
	.type	_ZN10GuiElement8SetAlphaEi, @function
_ZN10GuiElement8SetAlphaEi:
.LFB1403:
	.loc 1 190 0
	.cfi_startproc
.LVL47:
	.loc 1 190 0
	stw 4,56(3)
	blr
	.cfi_endproc
.LFE1403:
	.size	_ZN10GuiElement8SetAlphaEi, .-_ZN10GuiElement8SetAlphaEi
	.section	.text._ZN10GuiElement8GetAlphaEv,"axG",@progbits,_ZN10GuiElement8GetAlphaEv,comdat
	.align 2
	.weak	_ZN10GuiElement8GetAlphaEv
	.type	_ZN10GuiElement8GetAlphaEv, @function
_ZN10GuiElement8GetAlphaEv:
.LFB1404:
	.loc 1 194 0
	.cfi_startproc
.LVL48:
	mflr 0
	stwu 1,-40(1)
.LCFI5:
	.cfi_def_cfa_offset 40
	.cfi_register 65, 0
	stw 31,36(1)
	stw 0,44(1)
.LBB2345:
	.loc 1 198 0
	lwz 31,108(3)
	.cfi_offset 65, 4
	.cfi_offset 31, -4
	cmpwi 7,31,0
	blt- 7,.L43
.L41:
.LVL49:
	.loc 1 203 0
	lwz 3,96(3)
.LVL50:
	cmpwi 7,3,0
	beq- 7,.L42
	.loc 1 204 0
	lwz 9,0(3)
	xoris 31,31,0x8000
.LVL51:
	lwz 0,100(9)
	mtctr 0
	bctrl
	lis 0,0x4330
	xoris 3,3,0x8000
	stw 0,16(1)
	stw 3,20(1)
	lis 9,.LC1@ha
	lfs 0,.LC1@l(9)
	lis 9,.LC2@ha
	lfd 13,16(1)
	lfs 12,.LC2@l(9)
	addi 9,1,24
	fsub 13,13,0
	stw 31,12(1)
	stw 0,8(1)
	frsp 13,13
	fdivs 13,13,12
	lfd 12,8(1)
	fsub 0,12,0
	frsp 0,0
	fmuls 0,0,13
	fctiwz 0,0
	stfiwx 0,0,9
	lwz 31,24(1)
.LVL52:
.L42:
.LBE2345:
	.loc 1 207 0
	lwz 0,44(1)
	mr 3,31
	lwz 31,36(1)
.LVL53:
	mtlr 0
	addi 1,1,40
	.cfi_remember_state
.LCFI6:
	.cfi_def_cfa_offset 0
	.cfi_restore 31
	blr
.LVL54:
.L43:
.LCFI7:
	.cfi_restore_state
.LBB2346:
	.loc 1 201 0
	lwz 31,56(3)
.LVL55:
	b .L41
.LBE2346:
	.cfi_endproc
.LFE1404:
	.size	_ZN10GuiElement8GetAlphaEv, .-_ZN10GuiElement8GetAlphaEv
	.section	.text._ZN10GuiElement8SetScaleEf,"axG",@progbits,_ZN10GuiElement8SetScaleEf,comdat
	.align 2
	.weak	_ZN10GuiElement8SetScaleEf
	.type	_ZN10GuiElement8SetScaleEf, @function
_ZN10GuiElement8SetScaleEf:
.LFB1405:
	.loc 1 210 0
	.cfi_startproc
.LVL56:
	.loc 1 212 0
	stfs 1,60(3)
	.loc 1 214 0
	.loc 1 213 0
	stfs 1,64(3)
	.loc 1 214 0
	blr
	.cfi_endproc
.LFE1405:
	.size	_ZN10GuiElement8SetScaleEf, .-_ZN10GuiElement8SetScaleEf
	.section	.text._ZN10GuiElement9SetScaleXEf,"axG",@progbits,_ZN10GuiElement9SetScaleXEf,comdat
	.align 2
	.weak	_ZN10GuiElement9SetScaleXEf
	.type	_ZN10GuiElement9SetScaleXEf, @function
_ZN10GuiElement9SetScaleXEf:
.LFB1406:
	.loc 1 217 0
	.cfi_startproc
.LVL57:
	.loc 1 217 0
	stfs 1,60(3)
	blr
	.cfi_endproc
.LFE1406:
	.size	_ZN10GuiElement9SetScaleXEf, .-_ZN10GuiElement9SetScaleXEf
	.section	.text._ZN10GuiElement9SetScaleYEf,"axG",@progbits,_ZN10GuiElement9SetScaleYEf,comdat
	.align 2
	.weak	_ZN10GuiElement9SetScaleYEf
	.type	_ZN10GuiElement9SetScaleYEf, @function
_ZN10GuiElement9SetScaleYEf:
.LFB1407:
	.loc 1 220 0
	.cfi_startproc
.LVL58:
	.loc 1 220 0
	stfs 1,64(3)
	blr
	.cfi_endproc
.LFE1407:
	.size	_ZN10GuiElement9SetScaleYEf, .-_ZN10GuiElement9SetScaleYEf
	.section	.text._ZN10GuiElement8GetScaleEv,"axG",@progbits,_ZN10GuiElement8GetScaleEv,comdat
	.align 2
	.weak	_ZN10GuiElement8GetScaleEv
	.type	_ZN10GuiElement8GetScaleEv, @function
_ZN10GuiElement8GetScaleEv:
.LFB1408:
	.loc 1 223 0
	.cfi_startproc
.LVL59:
	mflr 0
	stwu 1,-16(1)
.LCFI8:
	.cfi_def_cfa_offset 16
	.cfi_register 65, 0
.LBB2347:
	.loc 1 225 0
	lis 9,.LC3@ha
.LBE2347:
	.loc 1 223 0
	stfd 31,8(1)
	stw 0,20(1)
.LBB2348:
	.loc 1 225 0
	lfs 0,64(3)
	lfs 31,60(3)
	.cfi_offset 65, 4
	.cfi_offset 63, -8
	.loc 1 227 0
	lwz 11,96(3)
	.loc 1 225 0
	fadds 31,31,0
	lfs 0,.LC3@l(9)
	.loc 1 227 0
	cmpwi 7,11,0
	.loc 1 225 0
	fmuls 31,31,0
	lfs 0,112(3)
	fmuls 31,31,0
.LVL60:
	.loc 1 227 0
	beq- 7,.L48
	.loc 1 228 0
	lwz 9,0(11)
	mr 3,11
.LVL61:
	lwz 0,116(9)
	mtctr 0
	bctrl
	fmuls 31,31,1
.LVL62:
.L48:
.LBE2348:
	.loc 1 231 0
	lwz 0,20(1)
	fmr 1,31
	lfd 31,8(1)
.LVL63:
	mtlr 0
	addi 1,1,16
.LCFI9:
	.cfi_def_cfa_offset 0
	.cfi_restore 63
	blr
	.cfi_endproc
.LFE1408:
	.size	_ZN10GuiElement8GetScaleEv, .-_ZN10GuiElement8GetScaleEv
	.section	.text._ZN10GuiElement9GetScaleXEv,"axG",@progbits,_ZN10GuiElement9GetScaleXEv,comdat
	.align 2
	.weak	_ZN10GuiElement9GetScaleXEv
	.type	_ZN10GuiElement9GetScaleXEv, @function
_ZN10GuiElement9GetScaleXEv:
.LFB1409:
	.loc 1 234 0
	.cfi_startproc
.LVL64:
	mflr 0
	stwu 1,-16(1)
.LCFI10:
	.cfi_def_cfa_offset 16
	.cfi_register 65, 0
	stfd 31,8(1)
	stw 0,20(1)
.LBB2349:
	.loc 1 238 0
	lwz 11,96(3)
	.loc 1 236 0
	lfs 31,60(3)
	.cfi_offset 65, 4
	.cfi_offset 63, -8
	.loc 1 238 0
	cmpwi 7,11,0
	.loc 1 236 0
	lfs 0,112(3)
	fmuls 31,31,0
.LVL65:
	.loc 1 238 0
	beq- 7,.L50
	.loc 1 239 0
	lwz 9,0(11)
	mr 3,11
.LVL66:
	lwz 0,120(9)
	mtctr 0
	bctrl
	fmuls 31,31,1
.LVL67:
.L50:
.LBE2349:
	.loc 1 242 0
	lwz 0,20(1)
	fmr 1,31
	lfd 31,8(1)
.LVL68:
	mtlr 0
	addi 1,1,16
.LCFI11:
	.cfi_def_cfa_offset 0
	.cfi_restore 63
	blr
	.cfi_endproc
.LFE1409:
	.size	_ZN10GuiElement9GetScaleXEv, .-_ZN10GuiElement9GetScaleXEv
	.section	.text._ZN10GuiElement9GetScaleYEv,"axG",@progbits,_ZN10GuiElement9GetScaleYEv,comdat
	.align 2
	.weak	_ZN10GuiElement9GetScaleYEv
	.type	_ZN10GuiElement9GetScaleYEv, @function
_ZN10GuiElement9GetScaleYEv:
.LFB1410:
	.loc 1 245 0
	.cfi_startproc
.LVL69:
	mflr 0
	stwu 1,-16(1)
.LCFI12:
	.cfi_def_cfa_offset 16
	.cfi_register 65, 0
	stfd 31,8(1)
	stw 0,20(1)
.LBB2350:
	.loc 1 249 0
	lwz 11,96(3)
	.loc 1 247 0
	lfs 31,64(3)
	.cfi_offset 65, 4
	.cfi_offset 63, -8
	.loc 1 249 0
	cmpwi 7,11,0
	.loc 1 247 0
	lfs 0,112(3)
	fmuls 31,31,0
.LVL70:
	.loc 1 249 0
	beq- 7,.L52
	.loc 1 250 0
	lwz 9,0(11)
	mr 3,11
.LVL71:
	lwz 0,124(9)
	mtctr 0
	bctrl
	fmuls 31,31,1
.LVL72:
.L52:
.LBE2350:
	.loc 1 253 0
	lwz 0,20(1)
	fmr 1,31
	lfd 31,8(1)
.LVL73:
	mtlr 0
	addi 1,1,16
.LCFI13:
	.cfi_def_cfa_offset 0
	.cfi_restore 63
	blr
	.cfi_endproc
.LFE1410:
	.size	_ZN10GuiElement9GetScaleYEv, .-_ZN10GuiElement9GetScaleYEv
	.section	.text._ZN10GuiElement6RumbleEv,"axG",@progbits,_ZN10GuiElement6RumbleEv,comdat
	.align 2
	.weak	_ZN10GuiElement6RumbleEv
	.type	_ZN10GuiElement6RumbleEv, @function
_ZN10GuiElement6RumbleEv:
.LFB1411:
	.loc 1 256 0
	.cfi_startproc
.LVL74:
	.loc 1 256 0
	lbz 3,28(3)
.LVL75:
	blr
	.cfi_endproc
.LFE1411:
	.size	_ZN10GuiElement6RumbleEv, .-_ZN10GuiElement6RumbleEv
	.section	.text._ZN10GuiElement9SetRumbleEb,"axG",@progbits,_ZN10GuiElement9SetRumbleEb,comdat
	.align 2
	.weak	_ZN10GuiElement9SetRumbleEb
	.type	_ZN10GuiElement9SetRumbleEb, @function
_ZN10GuiElement9SetRumbleEb:
.LFB1412:
	.loc 1 259 0
	.cfi_startproc
.LVL76:
	.loc 1 259 0
	stb 4,28(3)
	blr
	.cfi_endproc
.LFE1412:
	.size	_ZN10GuiElement9SetRumbleEb, .-_ZN10GuiElement9SetRumbleEb
	.section	.text._ZN10GuiElement13SetEffectGrowEv,"axG",@progbits,_ZN10GuiElement13SetEffectGrowEv,comdat
	.align 2
	.weak	_ZN10GuiElement13SetEffectGrowEv
	.type	_ZN10GuiElement13SetEffectGrowEv, @function
_ZN10GuiElement13SetEffectGrowEv:
.LFB1413:
	.loc 1 271 0
	.cfi_startproc
.LVL77:
	mflr 0
	stwu 1,-8(1)
.LCFI14:
	.cfi_def_cfa_offset 8
	.cfi_register 65, 0
	lwz 9,0(3)
	li 4,256
	li 5,4
	li 6,110
	stw 0,12(1)
	.loc 1 271 0
	lwz 0,140(9)
	.cfi_offset 65, 4
	mtctr 0
	bctrl
.LVL78:
	lwz 0,12(1)
	addi 1,1,8
.LCFI15:
	.cfi_def_cfa_offset 0
	mtlr 0
	blr
	.cfi_endproc
.LFE1413:
	.size	_ZN10GuiElement13SetEffectGrowEv, .-_ZN10GuiElement13SetEffectGrowEv
	.section	.text._ZNK10GuiElement9GetEffectEv,"axG",@progbits,_ZNK10GuiElement9GetEffectEv,comdat
	.align 2
	.weak	_ZNK10GuiElement9GetEffectEv
	.type	_ZNK10GuiElement9GetEffectEv, @function
_ZNK10GuiElement9GetEffectEv:
.LFB1414:
	.loc 1 276 0
	.cfi_startproc
.LVL79:
	.loc 1 276 0
	lwz 3,120(3)
.LVL80:
	blr
	.cfi_endproc
.LFE1414:
	.size	_ZNK10GuiElement9GetEffectEv, .-_ZNK10GuiElement9GetEffectEv
	.section	.text._ZNK10GuiElement10IsAnimatedEv,"axG",@progbits,_ZNK10GuiElement10IsAnimatedEv,comdat
	.align 2
	.weak	_ZNK10GuiElement10IsAnimatedEv
	.type	_ZNK10GuiElement10IsAnimatedEv, @function
_ZNK10GuiElement10IsAnimatedEv:
.LFB1415:
	.loc 1 278 0
	.cfi_startproc
.LVL81:
	mflr 0
	stwu 1,-8(1)
.LCFI16:
	.cfi_def_cfa_offset 8
	.cfi_register 65, 0
	stw 0,12(1)
	.loc 1 278 0
	lwz 9,0(3)
	lwz 0,152(9)
	.cfi_offset 65, 4
	mtctr 0
	bctrl
.LVL82:
	srawi 0,3,31
	subf 3,3,0
	lwz 0,12(1)
	srwi 3,3,31
	mtlr 0
	addi 1,1,8
.LCFI17:
	.cfi_def_cfa_offset 0
	blr
	.cfi_endproc
.LFE1415:
	.size	_ZNK10GuiElement10IsAnimatedEv, .-_ZNK10GuiElement10IsAnimatedEv
	.section	.text._ZN10GuiElement9SetBoundsE4RectIiE,"axG",@progbits,_ZN10GuiElement9SetBoundsE4RectIiE,comdat
	.align 2
	.weak	_ZN10GuiElement9SetBoundsE4RectIiE
	.type	_ZN10GuiElement9SetBoundsE4RectIiE, @function
_ZN10GuiElement9SetBoundsE4RectIiE:
.LFB1416:
	.loc 1 280 0
	.cfi_startproc
.LVL83:
.LBB2351:
.LBB2352:
	.file 5 "d:/Projects/SaveGameManager/savegame-manager-gx/trunk/source/GUI/../Tools/Rect.h"
	.loc 5 30 0
	lwz 10,0(4)
.LBE2352:
.LBE2351:
	.loc 1 280 0
.LBB2354:
.LBB2353:
	.loc 5 31 0
	lwz 11,8(4)
	.loc 5 32 0
	lwz 9,4(4)
	.loc 5 33 0
	lwz 0,12(4)
.LVL84:
	.loc 5 30 0
	stw 10,80(3)
	.loc 5 31 0
	stw 11,88(3)
	.loc 5 32 0
	stw 9,84(3)
	.loc 5 33 0
	stw 0,92(3)
.LBE2353:
.LBE2354:
	.loc 1 280 0
	blr
	.cfi_endproc
.LFE1416:
	.size	_ZN10GuiElement9SetBoundsE4RectIiE, .-_ZN10GuiElement9SetBoundsE4RectIiE
	.section	.text._ZN10GuiElement8IsInsideEii,"axG",@progbits,_ZN10GuiElement8IsInsideEii,comdat
	.align 2
	.weak	_ZN10GuiElement8IsInsideEii
	.type	_ZN10GuiElement8IsInsideEii, @function
_ZN10GuiElement8IsInsideEii:
.LFB1417:
	.loc 1 285 0
	.cfi_startproc
.LVL85:
	mflr 0
	stwu 1,-24(1)
.LCFI18:
	.cfi_def_cfa_offset 24
	.cfi_register 65, 0
	stw 28,8(1)
	mr 28,5
	.cfi_offset 28, -16
	stw 0,28(1)
	stw 29,12(1)
	.loc 1 290 0
	li 29,0
	.cfi_offset 29, -12
	.cfi_offset 65, 4
	.loc 1 287 0
	lwz 9,0(3)
	.loc 1 285 0
	stw 30,16(1)
	mr 30,4
	.cfi_offset 30, -8
	.loc 1 287 0
	lwz 0,16(9)
	.loc 1 285 0
	stw 31,20(1)
	.loc 1 285 0
	mr 31,3
	.cfi_offset 31, -4
	.loc 1 287 0
	mtctr 0
	bctrl
.LVL86:
	.loc 1 290 0
	cmpw 7,3,30
	blt- 7,.L64
.L60:
	.loc 1 291 0 discriminator 6
	lwz 0,28(1)
	mr 3,29
	lwz 28,8(1)
.LVL87:
	mtlr 0
	lwz 29,12(1)
	lwz 30,16(1)
.LVL88:
	lwz 31,20(1)
.LVL89:
	addi 1,1,24
	.cfi_remember_state
.LCFI19:
	.cfi_def_cfa_offset 0
	.cfi_restore 31
	.cfi_restore 30
	.cfi_restore 29
	.cfi_restore 28
	blr
.LVL90:
.L64:
.LCFI20:
	.cfi_restore_state
	.loc 1 288 0 discriminator 1
	lwz 9,0(31)
	mr 3,31
	lwz 0,16(9)
	mtctr 0
	bctrl
	.loc 1 290 0 discriminator 1
	lwz 0,36(31)
	add 0,3,0
	cmpw 7,30,0
	bge+ 7,.L60
	.loc 1 289 0 discriminator 3
	lwz 9,0(31)
	mr 3,31
	lwz 0,20(9)
	mtctr 0
	bctrl
	.loc 1 290 0 discriminator 3
	cmpw 7,3,28
	bge+ 7,.L60
	.loc 1 290 0 is_stmt 0 discriminator 4
	lwz 9,0(31)
	mr 3,31
	lwz 0,20(9)
	mtctr 0
	bctrl
	lwz 0,40(31)
	add 0,3,0
	.loc 1 285 0 is_stmt 1 discriminator 4
	cmpw 7,28,0
	mfcr 29
	rlwinm 29,29,29,1
	b .L60
	.cfi_endproc
.LFE1417:
	.size	_ZN10GuiElement8IsInsideEii, .-_ZN10GuiElement8IsInsideEii
	.section	.text._ZN10GuiElement11SetPositionEii,"axG",@progbits,_ZN10GuiElement11SetPositionEii,comdat
	.align 2
	.weak	_ZN10GuiElement11SetPositionEii
	.type	_ZN10GuiElement11SetPositionEii, @function
_ZN10GuiElement11SetPositionEii:
.LFB1418:
	.loc 1 295 0
	.cfi_startproc
.LVL91:
	.loc 1 297 0
	stw 4,44(3)
	.loc 1 299 0
	.loc 1 298 0
	stw 5,48(3)
	.loc 1 299 0
	blr
	.cfi_endproc
.LFE1418:
	.size	_ZN10GuiElement11SetPositionEii, .-_ZN10GuiElement11SetPositionEii
	.section	.text._ZN10GuiElement11SetPositionEiii,"axG",@progbits,_ZN10GuiElement11SetPositionEiii,comdat
	.align 2
	.weak	_ZN10GuiElement11SetPositionEiii
	.type	_ZN10GuiElement11SetPositionEiii, @function
_ZN10GuiElement11SetPositionEiii:
.LFB1419:
	.loc 1 304 0
	.cfi_startproc
.LVL92:
	.loc 1 306 0
	stw 4,44(3)
	.loc 1 309 0
	.loc 1 307 0
	stw 5,48(3)
	.loc 1 308 0
	stw 6,52(3)
	.loc 1 309 0
	blr
	.cfi_endproc
.LFE1419:
	.size	_ZN10GuiElement11SetPositionEiii, .-_ZN10GuiElement11SetPositionEiii
	.section	.text._ZN10GuiElement11GetSelectedEv,"axG",@progbits,_ZN10GuiElement11GetSelectedEv,comdat
	.align 2
	.weak	_ZN10GuiElement11GetSelectedEv
	.type	_ZN10GuiElement11GetSelectedEv, @function
_ZN10GuiElement11GetSelectedEv:
.LFB1420:
	.loc 1 312 0
	.cfi_startproc
.LVL93:
	.loc 1 312 0
	li 3,-1
.LVL94:
	blr
	.cfi_endproc
.LFE1420:
	.size	_ZN10GuiElement11GetSelectedEv, .-_ZN10GuiElement11GetSelectedEv
	.section	.text._ZN10GuiElement12SetAlignmentEi,"axG",@progbits,_ZN10GuiElement12SetAlignmentEi,comdat
	.align 2
	.weak	_ZN10GuiElement12SetAlignmentEi
	.type	_ZN10GuiElement12SetAlignmentEi, @function
_ZN10GuiElement12SetAlignmentEi:
.LFB1421:
	.loc 1 316 0
	.cfi_startproc
.LVL95:
	.loc 1 316 0
	stw 4,68(3)
	blr
	.cfi_endproc
.LFE1421:
	.size	_ZN10GuiElement12SetAlignmentEi, .-_ZN10GuiElement12SetAlignmentEi
	.section	.text._ZNK10GuiElement12GetAlignmentEv,"axG",@progbits,_ZNK10GuiElement12GetAlignmentEv,comdat
	.align 2
	.weak	_ZNK10GuiElement12GetAlignmentEv
	.type	_ZNK10GuiElement12GetAlignmentEv, @function
_ZNK10GuiElement12GetAlignmentEv:
.LFB1422:
	.loc 1 318 0
	.cfi_startproc
.LVL96:
	.loc 1 318 0
	lwz 3,68(3)
.LVL97:
	blr
	.cfi_endproc
.LFE1422:
	.size	_ZNK10GuiElement12GetAlignmentEv, .-_ZNK10GuiElement12GetAlignmentEv
	.section	.text._ZN10GuiElement6UpdateEP10GuiTrigger,"axG",@progbits,_ZN10GuiElement6UpdateEP10GuiTrigger,comdat
	.align 2
	.weak	_ZN10GuiElement6UpdateEP10GuiTrigger
	.type	_ZN10GuiElement6UpdateEP10GuiTrigger, @function
_ZN10GuiElement6UpdateEP10GuiTrigger:
.LFB1423:
	.loc 1 321 0
	.cfi_startproc
.LVL98:
	.loc 1 321 0
	blr
	.cfi_endproc
.LFE1423:
	.size	_ZN10GuiElement6UpdateEP10GuiTrigger, .-_ZN10GuiElement6UpdateEP10GuiTrigger
	.section	.text._ZN7GuiText7SetTextESs,"axG",@progbits,_ZN7GuiText7SetTextESs,comdat
	.align 2
	.weak	_ZN7GuiText7SetTextESs
	.type	_ZN7GuiText7SetTextESs, @function
_ZN7GuiText7SetTextESs:
.LFB1427:
	.file 6 "d:/Projects/SaveGameManager/savegame-manager-gx/trunk/source/GUI/gui_text.h"
	.loc 6 51 0
	.cfi_startproc
.LVL99:
	mflr 0
	stwu 1,-8(1)
.LCFI21:
	.cfi_def_cfa_offset 8
	.cfi_register 65, 0
	lwz 9,0(3)
	stw 0,12(1)
	.loc 6 51 0
	lwz 0,200(9)
	.cfi_offset 65, 4
	lwz 4,0(4)
.LVL100:
	mtctr 0
	bctrl
.LVL101:
	lwz 0,12(1)
	addi 1,1,8
.LCFI22:
	.cfi_def_cfa_offset 0
	mtlr 0
	blr
	.cfi_endproc
.LFE1427:
	.size	_ZN7GuiText7SetTextESs, .-_ZN7GuiText7SetTextESs
	.section	.text._ZN7GuiText7SetTextESbIwSt11char_traitsIwESaIwEE,"axG",@progbits,_ZN7GuiText7SetTextESbIwSt11char_traitsIwESaIwEE,comdat
	.align 2
	.weak	_ZN7GuiText7SetTextESbIwSt11char_traitsIwESaIwEE
	.type	_ZN7GuiText7SetTextESbIwSt11char_traitsIwESaIwEE, @function
_ZN7GuiText7SetTextESbIwSt11char_traitsIwESaIwEE:
.LFB1428:
	.loc 6 53 0
	.cfi_startproc
.LVL102:
	mflr 0
	stwu 1,-8(1)
.LCFI23:
	.cfi_def_cfa_offset 8
	.cfi_register 65, 0
	lwz 9,0(3)
	stw 0,12(1)
	.loc 6 53 0
	lwz 0,208(9)
	.cfi_offset 65, 4
	lwz 4,0(4)
.LVL103:
	mtctr 0
	bctrl
.LVL104:
	lwz 0,12(1)
	addi 1,1,8
.LCFI24:
	.cfi_def_cfa_offset 0
	mtlr 0
	blr
	.cfi_endproc
.LFE1428:
	.size	_ZN7GuiText7SetTextESbIwSt11char_traitsIwESaIwEE, .-_ZN7GuiText7SetTextESbIwSt11char_traitsIwESaIwEE
	.section	.text._ZN11GuiLongText13GetLinesCountEv,"axG",@progbits,_ZN11GuiLongText13GetLinesCountEv,comdat
	.align 2
	.weak	_ZN11GuiLongText13GetLinesCountEv
	.type	_ZN11GuiLongText13GetLinesCountEv, @function
_ZN11GuiLongText13GetLinesCountEv:
.LFB1440:
	.file 7 "d:/Projects/SaveGameManager/savegame-manager-gx/trunk/source/GUI/gui_longtext.hpp"
	.loc 7 59 0
	.cfi_startproc
.LVL105:
.LBB2355:
.LBB2356:
	.file 8 "d:\\devkitpro\\devkitppc\\bin\\../lib/gcc/powerpc-eabi/4.6.3/../../../../powerpc-eabi/include/c++/4.6.3/bits/stl_vector.h"
	.loc 8 571 0
	lwz 9,152(3)
	lwz 0,148(3)
.LBE2356:
.LBE2355:
	.loc 7 59 0
.LBB2358:
.LBB2357:
	.loc 8 571 0
	subf 3,0,9
.LVL106:
.LBE2357:
.LBE2358:
	.loc 7 59 0
	srawi 3,3,2
	blr
	.cfi_endproc
.LFE1440:
	.size	_ZN11GuiLongText13GetLinesCountEv, .-_ZN11GuiLongText13GetLinesCountEv
	.section	.text._ZNK11GuiLongText7GetTextEv,"axG",@progbits,_ZNK11GuiLongText7GetTextEv,comdat
	.align 2
	.weak	_ZNK11GuiLongText7GetTextEv
	.type	_ZNK11GuiLongText7GetTextEv, @function
_ZNK11GuiLongText7GetTextEv:
.LFB1442:
	.loc 7 63 0
	.cfi_startproc
.LVL107:
.LBB2359:
.LBB2360:
.LBB2361:
	.file 9 "d:\\devkitpro\\devkitppc\\bin\\../lib/gcc/powerpc-eabi/4.6.3/../../../../powerpc-eabi/include/c++/4.6.3/bits/basic_string.h"
	.loc 9 288 0
	lwz 9,208(3)
.LBE2361:
.LBE2360:
.LBE2359:
	.loc 7 63 0
	lwz 3,0(9)
.LVL108:
	blr
	.cfi_endproc
.LFE1442:
	.size	_ZNK11GuiLongText7GetTextEv, .-_ZNK11GuiLongText7GetTextEv
	.section	.text._ZNK11GuiLongText6toUTF8Ev,"axG",@progbits,_ZNK11GuiLongText6toUTF8Ev,comdat
	.align 2
	.weak	_ZNK11GuiLongText6toUTF8Ev
	.type	_ZNK11GuiLongText6toUTF8Ev, @function
_ZNK11GuiLongText6toUTF8Ev:
.LFB1444:
	.loc 7 67 0
	.cfi_startproc
.LVL109:
	mflr 0
	stwu 1,-16(1)
.LCFI25:
	.cfi_def_cfa_offset 16
	.cfi_register 65, 0
	stw 31,12(1)
	mr 31,3
	.cfi_offset 31, -4
	stw 0,20(1)
	.loc 7 67 0
	lwz 4,208(4)
.LVL110:
	.cfi_offset 65, 4
	bl _ZNK7wString6toUTF8Ev
.LVL111:
	lwz 0,20(1)
	mr 3,31
	lwz 31,12(1)
.LVL112:
	mtlr 0
	addi 1,1,16
.LCFI26:
	.cfi_def_cfa_offset 0
	.cfi_restore 31
	blr
	.cfi_endproc
.LFE1444:
	.size	_ZNK11GuiLongText6toUTF8Ev, .-_ZNK11GuiLongText6toUTF8Ev
	.section	.text._ZN10GuiElement10ResetStateEv,"axG",@progbits,_ZN10GuiElement10ResetStateEv,comdat
	.align 2
	.weak	_ZN10GuiElement10ResetStateEv
	.type	_ZN10GuiElement10ResetStateEv, @function
_ZN10GuiElement10ResetStateEv:
.LFB1402:
	.loc 1 183 0
	.cfi_startproc
.LVL113:
	mflr 0
	stwu 1,-8(1)
.LCFI27:
	.cfi_def_cfa_offset 8
	.cfi_register 65, 0
	stw 0,12(1)
	.loc 1 185 0
	lwz 0,72(3)
	.cfi_offset 65, 4
	cmpwi 7,0,4
	beq- 7,.L76
.LVL114:
.LBB2364:
.LBB2365:
	.loc 1 186 0
	lwz 9,0(3)
	li 4,0
	li 5,-1
	lwz 0,80(9)
	mtctr 0
	bctrl
.LVL115:
.L76:
.LBE2365:
.LBE2364:
	.loc 1 187 0
	lwz 0,12(1)
	addi 1,1,8
.LCFI28:
	.cfi_def_cfa_offset 0
	mtlr 0
	blr
	.cfi_endproc
.LFE1402:
	.size	_ZN10GuiElement10ResetStateEv, .-_ZN10GuiElement10ResetStateEv
	.section	".text"
	.align 2
	.globl _ZN11GuiLongText4DrawEv
	.type	_ZN11GuiLongText4DrawEv, @function
_ZN11GuiLongText4DrawEv:
.LFB1565:
	.loc 3 332 0
	.cfi_startproc
.LVL116:
	mflr 0
	stwu 1,-72(1)
.LCFI29:
	.cfi_def_cfa_offset 72
	.cfi_register 65, 0
	stw 31,60(1)
	mr 31,3
	.cfi_offset 31, -12
	stw 0,76(1)
	stfd 31,64(1)
.LBB2382:
.LBB2383:
.LBB2384:
	.loc 8 571 0
	lwz 9,152(3)
	lwz 0,148(3)
	.cfi_offset 63, -8
	.cfi_offset 65, 4
.LBE2384:
.LBE2383:
.LBE2382:
	.loc 3 332 0
	stw 24,32(1)
.LBB2387:
.LBB2386:
.LBB2385:
	.loc 8 571 0
	subf 0,0,9
.LBE2385:
.LBE2386:
.LBE2387:
	.loc 3 332 0
	stw 25,36(1)
.LBB2388:
	.loc 3 333 0
	srwi. 9,0,2
.LBE2388:
	.loc 3 332 0
	stw 26,40(1)
	stw 27,44(1)
	stw 28,48(1)
	stw 29,52(1)
	stw 30,56(1)
.LBB2389:
	.loc 3 333 0
	bne- 0,.L86
	.cfi_offset 30, -16
	.cfi_offset 29, -20
	.cfi_offset 28, -24
	.cfi_offset 27, -28
	.cfi_offset 26, -32
	.cfi_offset 25, -36
	.cfi_offset 24, -40
.LVL117:
.L78:
.LBE2389:
	.loc 3 359 0
	lwz 0,76(1)
	lwz 24,32(1)
	mtlr 0
	lwz 25,36(1)
	lwz 26,40(1)
	lwz 27,44(1)
.LVL118:
	lwz 28,48(1)
	lwz 29,52(1)
	lwz 30,56(1)
	lwz 31,60(1)
.LVL119:
	lfd 31,64(1)
	addi 1,1,72
	.cfi_remember_state
.LCFI30:
	.cfi_def_cfa_offset 0
	.cfi_restore 63
	.cfi_restore 31
	.cfi_restore 30
	.cfi_restore 29
	.cfi_restore 28
	.cfi_restore 27
	.cfi_restore 26
	.cfi_restore 25
	.cfi_restore 24
	blr
.LVL120:
.L86:
.LCFI31:
	.cfi_restore_state
.LBB2390:
	.loc 3 336 0
	lwz 9,0(3)
	lwz 0,52(9)
	mtctr 0
	bctrl
.LVL121:
	cmpwi 7,3,0
	beq+ 7,.L78
.LVL122:
.LBE2390:
.LBB2391:
.LBB2392:
	.loc 3 340 0
	lwz 9,0(31)
	mr 3,31
	.loc 3 339 0
	lwz 27,184(31)
	.loc 3 340 0
	lwz 0,100(9)
	mtctr 0
	bctrl
	.loc 3 342 0
	lwz 0,176(31)
	lis 11,.LC1@ha
	.loc 3 340 0
	rlwimi 27,3,0,24,31
.LVL123:
	.loc 3 342 0
	xoris 0,0,0x8000
	lfs 0,.LC1@l(11)
	stw 0,20(1)
	lis 0,0x4330
	stw 0,16(1)
	mr 3,31
	lwz 9,0(31)
	lfd 31,16(1)
	lwz 0,116(9)
	fsub 31,31,0
	mtctr 0
	frsp 31,31
	bctrl
	addi 9,1,28
	fmuls 31,31,1
	.loc 3 344 0
	lwz 0,196(31)
	.loc 3 342 0
	fctiwz 31,31
	stfiwx 31,0,9
	lwz 28,28(1)
.LVL124:
	.loc 3 344 0
	cmpw 7,28,0
	beq- 7,.L80
	.loc 3 348 0
	lwz 9,208(31)
.LVL125:
	.loc 3 346 0
	stw 28,196(31)
	.loc 3 348 0
	cmpwi 7,9,0
	beq- 7,.L80
	.loc 3 349 0
	lwz 3,188(31)
	cmpwi 7,3,0
	beq- 7,.L87
.L81:
.LVL126:
	lwz 4,0(9)
	extsh 5,28
	bl _ZN10FreeTypeGX8getWidthEPKws
.LVL127:
	stw 3,192(31)
.L80:
.LBE2392:
	.loc 3 359 0
	lwz 0,148(31)
.LBB2398:
	.loc 3 352 0
	addi 28,28,6
.LVL128:
.LBE2398:
	.loc 3 359 0
	lwz 9,152(31)
.LBB2399:
	.loc 3 352 0
	rlwinm 28,28,0,0xffff
.LVL129:
.LBB2393:
.LBB2394:
.LBB2395:
	.loc 8 571 0
	subf 9,0,9
.LBE2395:
.LBE2394:
	.loc 3 354 0
	srwi. 0,9,2
	beq- 0,.L78
	li 29,0
	li 30,0
	b .L84
.LVL130:
.L83:
	.loc 3 357 0
	lwz 9,0(31)
	lwz 0,16(9)
	mtctr 0
	bctrl
	lwz 9,0(31)
	mr 25,3
	mr 3,31
	lwz 0,20(9)
	mtctr 0
	bctrl
	lwz 9,0(31)
	mr 24,3
	mr 3,31
	lwz 0,24(9)
	mtctr 0
	bctrl
.LVL131:
	mr 9,1
	stwu 27,24(9)
	slwi 0,30,2
	add 5,29,24
	extsh 6,3
	lwz 11,148(31)
	mr 3,26
	lha 8,198(31)
	extsh 4,25
	lwzx 7,11,0
	extsh 5,5
	lhz 0,182(31)
	li 11,0
	lhz 10,70(31)
	stw 0,12(1)
	stw 11,8(1)
	bl _ZN10FreeTypeGX8drawTextEsssPKws9_gx_colorttt
	lwz 0,148(31)
	lwz 9,152(31)
	subf 9,0,9
.LVL132:
.L82:
	.loc 3 354 0
	addi 30,30,1
.LVL133:
.LBB2397:
.LBB2396:
	.loc 8 571 0
	srawi 0,9,2
.LBE2396:
.LBE2397:
	.loc 3 354 0
	cmplw 7,30,0
	add 29,29,28
	rlwinm 29,29,0,0xffff
	bge- 7,.L78
.LVL134:
.L84:
	.loc 3 356 0
	lbz 0,232(31)
	.loc 3 357 0
	mr 3,31
	.loc 3 356 0
	cmpwi 7,0,0
	bne- 7,.L82
	.loc 3 357 0
	lwz 26,188(31)
	cmpwi 7,26,0
	bne+ 7,.L83
	lis 9,fontSystem@ha
	lwz 26,fontSystem@l(9)
	b .L83
.LVL135:
.L87:
.LBE2393:
	.loc 3 349 0
	lis 11,fontSystem@ha
	lwz 3,fontSystem@l(11)
	b .L81
.LBE2399:
.LBE2391:
	.cfi_endproc
.LFE1565:
	.size	_ZN11GuiLongText4DrawEv, .-_ZN11GuiLongText4DrawEv
	.align 2
	.globl _ZN11GuiLongText11GetTextLineEi
	.type	_ZN11GuiLongText11GetTextLineEi, @function
_ZN11GuiLongText11GetTextLineEi:
.LFB1559:
	.loc 3 197 0
	.cfi_startproc
.LVL136:
	.loc 3 198 0
	lbz 0,232(3)
	.loc 3 197 0
	mr 9,3
	.loc 3 199 0
	li 3,0
.LVL137:
	.loc 3 198 0
	cmpwi 7,0,0
	bnelr- 7
	.loc 3 359 0 discriminator 2
	lwz 11,148(9)
.LBB2418:
.LBB2419:
	.loc 8 571 0 discriminator 2
	lwz 9,152(9)
.LVL138:
	subf 9,11,9
.LBE2419:
.LBE2418:
	.loc 3 198 0 discriminator 2
	srawi. 9,9,2
	beqlr- 0
	.loc 3 201 0
	cmpwi 7,4,0
	blt- 7,.L98
	.loc 3 204 0
	cmpw 7,4,9
	bge- 7,.L99
.LVL139:
	.loc 3 207 0
	slwi 4,4,2
.LVL140:
	lwzx 3,11,4
	.loc 3 208 0
	blr
.LVL141:
.L99:
.LBB2420:
.LBB2421:
.LBB2422:
.LBB2423:
	.loc 8 696 0
	addi 9,9,-1
.LVL142:
.LBE2423:
.LBE2422:
	.loc 3 205 0
	slwi 9,9,2
.LVL143:
	lwzx 3,11,9
	blr
.L98:
.LVL144:
.LBE2421:
.LBE2420:
	.loc 3 202 0
	lwz 3,0(11)
	blr
	.cfi_endproc
.LFE1559:
	.size	_ZN11GuiLongText11GetTextLineEi, .-_ZN11GuiLongText11GetTextLineEi
	.align 2
	.type	_ZNSt6vectorI8TextLineSaIS0_EE13_M_insert_auxEN9__gnu_cxx17__normal_iteratorIPS0_S2_EERKS0_.constprop.126, @function
_ZNSt6vectorI8TextLineSaIS0_EE13_M_insert_auxEN9__gnu_cxx17__normal_iteratorIPS0_S2_EERKS0_.constprop.126:
.LFB2138:
	.file 10 "d:\\devkitpro\\devkitppc\\bin\\../lib/gcc/powerpc-eabi/4.6.3/../../../../powerpc-eabi/include/c++/4.6.3/bits/vector.tcc"
	.loc 10 300 0
	.cfi_startproc
.LVL145:
	mflr 0
	stwu 1,-56(1)
.LCFI32:
	.cfi_def_cfa_offset 56
	.cfi_register 65, 0
	stw 30,48(1)
	mr 30,3
	.cfi_offset 30, -8
	stw 0,60(1)
	stw 31,52(1)
.LBB2424:
	.loc 10 304 0
	lwz 3,4(3)
.LVL146:
	lwz 0,8(30)
	.cfi_offset 31, -4
	.cfi_offset 65, 4
.LBE2424:
	.loc 10 300 0
	stw 26,32(1)
.LBB2575:
	.loc 10 304 0
	cmpw 7,3,0
.LBE2575:
	.loc 10 300 0
	stw 27,36(1)
	stw 28,40(1)
	stw 29,44(1)
	.loc 10 300 0
	lwz 31,0(4)
.LVL147:
.LBB2576:
	.loc 10 304 0
	beq- 7,.L101
	.cfi_offset 29, -12
	.cfi_offset 28, -16
	.cfi_offset 27, -20
	.cfi_offset 26, -24
.LVL148:
.LBB2425:
.LBB2426:
.LBB2427:
	.file 11 "d:\\devkitpro\\devkitppc\\bin\\../lib/gcc/powerpc-eabi/4.6.3/../../../../powerpc-eabi/include/c++/4.6.3/ext/new_allocator.h"
	.loc 11 108 0
	cmpwi 7,3,0
	beq- 7,.L102
	lwz 11,-12(3)
	lwz 9,-8(3)
	lwz 0,-4(3)
	stw 11,0(3)
	stw 9,4(3)
	stw 0,8(3)
.L102:
.LBE2427:
.LBE2426:
	.loc 10 313 0
	addi 0,3,-12
.LBB2428:
.LBB2429:
.LBB2430:
.LBB2431:
.LBB2432:
.LBB2433:
	.file 12 "d:\\devkitpro\\devkitppc\\bin\\../lib/gcc/powerpc-eabi/4.6.3/../../../../powerpc-eabi/include/c++/4.6.3/bits/stl_algobase.h"
	.loc 12 559 0
	lis 9,0xaaaa
	subf 0,31,0
	ori 9,9,43691
	srawi 0,0,2
.LBE2433:
.LBE2432:
.LBE2431:
.LBE2430:
.LBE2429:
.LBE2428:
	.loc 10 311 0
	lwz 10,0(5)
.LBB2444:
.LBB2442:
.LBB2440:
.LBB2438:
.LBB2436:
.LBB2434:
	.loc 12 560 0
	mullw. 11,0,9
.LBE2434:
.LBE2436:
.LBE2438:
.LBE2440:
.LBE2442:
.LBE2444:
	.loc 10 311 0
	lwz 11,4(5)
	lwz 9,8(5)
	.loc 10 309 0
	addi 8,3,12
	stw 8,4(30)
	.loc 10 311 0
	stw 10,8(1)
	stw 11,12(1)
	stw 9,16(1)
.LVL149:
.LBB2445:
.LBB2443:
.LBB2441:
.LBB2439:
.LBB2437:
.LBB2435:
	.loc 12 560 0
	beq+ 0,.L103
	.loc 12 561 0
	slwi 5,0,2
.LVL150:
	mr 4,31
.LVL151:
	subf 3,5,3
	bl memmove
.LVL152:
.L103:
.LBE2435:
.LBE2437:
.LBE2439:
.LBE2441:
.LBE2443:
.LBE2445:
	.loc 10 317 0
	lwz 0,8(1)
.LBE2425:
.LBE2576:
	.loc 10 373 0
	lwz 26,32(1)
.LBB2577:
.LBB2446:
	.loc 10 317 0
	stw 0,0(31)
	lwz 0,12(1)
.LBE2446:
.LBE2577:
	.loc 10 373 0
	lwz 27,36(1)
.LBB2578:
.LBB2447:
	.loc 10 317 0
	stw 0,4(31)
	lwz 0,16(1)
.LBE2447:
.LBE2578:
	.loc 10 373 0
	lwz 28,40(1)
.LBB2579:
.LBB2448:
	.loc 10 317 0
	stw 0,8(31)
.LBE2448:
.LBE2579:
	.loc 10 373 0
	lwz 0,60(1)
	lwz 29,44(1)
	mtlr 0
	lwz 30,48(1)
.LVL153:
	lwz 31,52(1)
.LVL154:
	addi 1,1,56
	.cfi_remember_state
.LCFI33:
	.cfi_def_cfa_offset 0
	.cfi_restore 31
	.cfi_restore 30
	.cfi_restore 29
	.cfi_restore 28
	.cfi_restore 27
	.cfi_restore 26
	blr
.LVL155:
.L101:
.LCFI34:
	.cfi_restore_state
.LBB2580:
.LBB2449:
.LBB2450:
	.loc 3 359 0
	lwz 4,0(30)
.LBB2451:
.LBB2452:
.LBB2453:
	.loc 8 571 0
	lis 0,0xaaaa
	ori 0,0,43691
	subf 3,4,3
	srawi 3,3,2
.LBE2453:
.LBE2452:
.LBB2454:
.LBB2455:
	.loc 12 215 0
	mullw. 3,3,0
	beq- 0,.L105
.LBE2455:
.LBE2454:
	.loc 8 1244 0
	slwi 28,3,1
.LVL156:
	.loc 8 1245 0
	cmplw 7,3,28
	ble- 7,.L116
.L106:
.LVL157:
.LBE2451:
.LBE2450:
.LBB2458:
.LBB2459:
	.file 13 "d:\\devkitpro\\devkitppc\\bin\\../lib/gcc/powerpc-eabi/4.6.3/../../../../powerpc-eabi/include/c++/4.6.3/bits/stl_iterator.h"
	.loc 13 892 0
	subf 27,4,31
	lis 0,0xaaaa
	srawi 27,27,2
	ori 0,0,43691
	mullw 27,27,0
.LVL158:
.LBE2459:
.LBE2458:
	.loc 10 326 0
	li 28,-4
.LVL159:
.L112:
.LBB2464:
.LBB2465:
.LBB2466:
.LBB2467:
	.loc 11 92 0
	mr 3,28
	stw 5,24(1)
	bl _Znwj
.LVL160:
	lwz 4,0(30)
	lwz 5,24(1)
	mr 29,3
	subf 7,4,31
.L107:
.LVL161:
.LBE2467:
.LBE2466:
.LBE2465:
.LBE2464:
	.loc 10 335 0
	mulli 27,27,12
.LVL162:
.LBB2470:
.LBB2471:
	.loc 11 108 0
	add. 9,29,27
	beq- 0,.L108
	lwz 8,0(5)
	lwz 10,4(5)
	lwz 11,8(5)
	stwx 8,29,27
	stw 10,4(9)
	stw 11,8(9)
.L108:
.LVL163:
.LBE2471:
.LBE2470:
.LBB2472:
.LBB2473:
.LBB2474:
.LBB2475:
.LBB2476:
.LBB2477:
.LBB2478:
.LBB2479:
.LBB2480:
.LBB2481:
.LBB2482:
	.loc 12 364 0
	lis 9,0xaaaa
	srawi 0,7,2
	ori 9,9,43691
.LVL164:
	.loc 12 365 0
	li 27,0
.LVL165:
	mullw. 11,0,9
	bne- 0,.L117
.LVL166:
.L109:
.LBE2482:
.LBE2481:
.LBE2480:
.LBE2479:
.LBE2478:
.LBE2477:
.LBE2476:
.LBE2475:
.LBE2474:
.LBE2473:
.LBE2472:
.LBB2503:
.LBB2504:
.LBB2505:
.LBB2506:
.LBB2507:
.LBB2508:
.LBB2509:
.LBB2510:
.LBB2511:
.LBB2512:
.LBB2513:
	.loc 12 364 0
	lwz 0,4(30)
	lis 9,0xaaaa
	ori 9,9,43691
.LBE2513:
.LBE2512:
.LBE2511:
.LBE2510:
.LBE2509:
.LBE2508:
.LBE2507:
.LBE2506:
.LBE2505:
.LBE2504:
.LBE2503:
.LBB2554:
.LBB2501:
.LBB2499:
.LBB2497:
.LBB2495:
.LBB2493:
.LBB2491:
.LBB2489:
.LBB2487:
.LBB2485:
.LBB2483:
	.loc 12 367 0
	add 27,29,27
.LVL167:
.LBE2483:
.LBE2485:
.LBE2487:
.LBE2489:
.LBE2491:
.LBE2493:
.LBE2495:
.LBE2497:
.LBE2499:
.LBE2501:
.LBE2554:
.LBB2555:
.LBB2550:
.LBB2546:
.LBB2542:
.LBB2538:
.LBB2534:
.LBB2530:
.LBB2526:
.LBB2522:
.LBB2518:
.LBB2514:
	.loc 12 364 0
	subf 0,31,0
.LBE2514:
.LBE2518:
.LBE2522:
.LBE2526:
.LBE2530:
.LBE2534:
.LBE2538:
.LBE2542:
.LBE2546:
.LBE2550:
.LBE2555:
	.loc 10 347 0
	addi 26,27,12
.LVL168:
.LBB2556:
.LBB2551:
.LBB2547:
.LBB2543:
.LBB2539:
.LBB2535:
.LBB2531:
.LBB2527:
.LBB2523:
.LBB2519:
.LBB2515:
	.loc 12 364 0
	srawi 0,0,2
.LVL169:
	.loc 12 365 0
	li 27,0
	mullw. 11,0,9
	bne- 0,.L118
.LVL170:
.L110:
.LBE2515:
.LBE2519:
.LBE2523:
.LBE2527:
.LBE2531:
.LBE2535:
.LBE2539:
.LBE2543:
.LBE2547:
.LBE2551:
.LBE2556:
	.loc 10 366 0
	lwz 3,0(30)
.LBB2557:
.LBB2552:
.LBB2548:
.LBB2544:
.LBB2540:
.LBB2536:
.LBB2532:
.LBB2528:
.LBB2524:
.LBB2520:
.LBB2516:
	.loc 12 367 0
	add 27,26,27
.LVL171:
.LBE2516:
.LBE2520:
.LBE2524:
.LBE2528:
.LBE2532:
.LBE2536:
.LBE2540:
.LBE2544:
.LBE2548:
.LBE2552:
.LBE2557:
.LBB2558:
.LBB2559:
	.loc 8 155 0
	cmpwi 7,3,0
	beq- 7,.L111
.LVL172:
.LBB2560:
.LBB2561:
	.loc 11 98 0
	bl _ZdlPv
.LVL173:
.L111:
.LBE2561:
.LBE2560:
.LBE2559:
.LBE2558:
.LBE2449:
.LBE2580:
	.loc 10 373 0
	lwz 0,60(1)
.LBB2581:
.LBB2572:
	.loc 10 371 0
	add 28,29,28
	.loc 10 369 0
	stw 29,0(30)
.LBE2572:
.LBE2581:
	.loc 10 373 0
	mtlr 0
.LBB2582:
.LBB2573:
	.loc 10 370 0
	stw 27,4(30)
	.loc 10 371 0
	stw 28,8(30)
.LBE2573:
.LBE2582:
	.loc 10 373 0
	lwz 26,32(1)
.LVL174:
	lwz 27,36(1)
.LVL175:
	lwz 28,40(1)
	lwz 29,44(1)
.LVL176:
	lwz 30,48(1)
.LVL177:
	lwz 31,52(1)
.LVL178:
	addi 1,1,56
	.cfi_remember_state
	.cfi_restore 26
	.cfi_restore 27
	.cfi_restore 28
	.cfi_restore 29
	.cfi_restore 30
	.cfi_restore 31
.LCFI35:
	.cfi_def_cfa_offset 0
	blr
.LVL179:
.L105:
.LCFI36:
	.cfi_restore_state
.LBB2583:
.LBB2574:
.LBB2562:
.LBB2460:
	.loc 13 892 0
	subf 27,4,31
.LBE2460:
.LBE2562:
	.loc 10 326 0
	li 28,12
.LBB2563:
.LBB2461:
	.loc 13 892 0
	srawi 27,27,2
	mullw 27,27,0
.LVL180:
	b .L112
.LVL181:
.L117:
.LBE2461:
.LBE2563:
.LBB2564:
.LBB2502:
.LBB2500:
.LBB2498:
.LBB2496:
.LBB2494:
.LBB2492:
.LBB2490:
.LBB2488:
.LBB2486:
.LBB2484:
	.loc 12 366 0
	slwi 27,0,2
	mr 3,29
	mr 5,27
.LVL182:
	bl memmove
.LVL183:
	b .L109
.LVL184:
.L118:
.LBE2484:
.LBE2486:
.LBE2488:
.LBE2490:
.LBE2492:
.LBE2494:
.LBE2496:
.LBE2498:
.LBE2500:
.LBE2502:
.LBE2564:
.LBB2565:
.LBB2553:
.LBB2549:
.LBB2545:
.LBB2541:
.LBB2537:
.LBB2533:
.LBB2529:
.LBB2525:
.LBB2521:
.LBB2517:
	slwi 27,0,2
	mr 3,26
	mr 4,31
	mr 5,27
	bl memmove
.LVL185:
	b .L110
.LVL186:
.L116:
.LBE2517:
.LBE2521:
.LBE2525:
.LBE2529:
.LBE2533:
.LBE2537:
.LBE2541:
.LBE2545:
.LBE2549:
.LBE2553:
.LBE2565:
.LBB2566:
.LBB2456:
	.loc 8 1245 0
	lis 9,0x1555
	ori 9,9,21845
	cmplw 7,28,9
	bgt+ 7,.L106
.LBE2456:
.LBE2566:
.LBB2567:
.LBB2468:
	.loc 8 150 0
	cmpwi 7,28,0
.LBE2468:
.LBE2567:
.LBB2568:
.LBB2462:
	.loc 13 892 0
	subf 7,4,31
	srawi 27,7,2
.LBE2462:
.LBE2568:
.LBB2569:
.LBB2457:
	.loc 8 1245 0
	mulli 28,28,12
.LVL187:
.LBE2457:
.LBE2569:
.LBB2570:
.LBB2463:
	.loc 13 892 0
	mullw 27,27,0
.LVL188:
.LBE2463:
.LBE2570:
.LBB2571:
.LBB2469:
	.loc 8 150 0
	li 29,0
	beq+ 7,.L107
	b .L112
.LBE2469:
.LBE2571:
.LBE2574:
.LBE2583:
	.cfi_endproc
.LFE2138:
	.size	_ZNSt6vectorI8TextLineSaIS0_EE13_M_insert_auxEN9__gnu_cxx17__normal_iteratorIPS0_S2_EERKS0_.constprop.126, .-_ZNSt6vectorI8TextLineSaIS0_EE13_M_insert_auxEN9__gnu_cxx17__normal_iteratorIPS0_S2_EERKS0_.constprop.126
	.align 2
	.globl _ZN11GuiLongTextD2Ev
	.type	_ZN11GuiLongTextD2Ev, @function
_ZN11GuiLongTextD2Ev:
.LFB1550:
	.loc 3 85 0
	.cfi_startproc
	.cfi_personality 0,__gxx_personality_v0
	.cfi_lsda 0,.LLSDA1550
.LVL189:
	mflr 0
	stwu 1,-32(1)
.LCFI37:
	.cfi_def_cfa_offset 32
	.cfi_register 65, 0
.LBB2641:
	lis 9,_ZTV11GuiLongText+8@ha
.LBE2641:
	stw 30,24(1)
	stw 0,36(1)
.LBB2691:
	la 0,_ZTV11GuiLongText+8@l(9)
	.cfi_offset 65, 4
	.cfi_offset 30, -8
.LBE2691:
	stw 31,28(1)
	.loc 3 85 0
	mr 31,3
	.cfi_offset 31, -4
.LBB2692:
	.loc 3 87 0
	lwz 30,208(3)
	.loc 3 85 0
	stw 0,0(3)
	.loc 3 87 0
	cmpwi 7,30,0
	beq- 7,.L120
.LVL190:
.LBB2642:
.LBB2643:
.LBB2644:
.LBB2645:
.LBB2646:
.LBB2647:
.LBB2648:
.LBB2649:
	.loc 9 288 0
	lwz 9,0(30)
.LBE2649:
.LBE2648:
.LBE2647:
.LBB2650:
.LBB2651:
	.loc 9 235 0
	lis 11,_ZNSbIwSt11char_traitsIwESaIwEE4_Rep20_S_empty_rep_storageE@ha
	la 0,_ZNSbIwSt11char_traitsIwESaIwEE4_Rep20_S_empty_rep_storageE@l(11)
.LBE2651:
.LBE2650:
	.loc 9 534 0
	addi 3,9,-12
.LVL191:
.LBB2660:
.LBB2658:
	.loc 9 235 0
	cmpw 7,3,0
	bne- 7,.L141
.LVL192:
.L127:
.LBE2658:
.LBE2660:
.LBE2646:
.LBE2645:
.LBE2644:
.LBE2643:
.LBE2642:
	.loc 3 88 0 discriminator 1
	mr 3,30
	bl _ZdlPv
.LVL193:
.L120:
.LBB2666:
.LBB2667:
.LBB2668:
.LBB2669:
	.loc 8 1256 0
	lwz 0,212(31)
.LBE2669:
.LBE2668:
.LBE2667:
.LBE2666:
	.loc 3 89 0
	li 9,0
	stw 9,208(31)
.LVL194:
	.loc 3 92 0
	mr 3,31
.LBB2673:
.LBB2672:
.LBB2671:
.LBB2670:
	.loc 8 1256 0
	stw 0,216(31)
.LEHB4:
.LBE2670:
.LBE2671:
.LBE2672:
.LBE2673:
	.loc 3 92 0
	bl _ZN7GuiText16ClearDynamicTextEv
.LEHE4:
.LVL195:
.LBB2674:
	.loc 3 359 0
	lwz 3,212(31)
.LVL196:
.LBB2675:
.LBB2676:
.LBB2677:
.LBB2678:
.LBB2679:
	.loc 8 155 0
	cmpwi 7,3,0
	beq- 7,.L132
.LVL197:
.LBB2680:
.LBB2681:
	.loc 11 98 0
	bl _ZdlPv
.LVL198:
.L132:
.LBE2681:
.LBE2680:
.LBE2679:
.LBE2678:
.LBE2677:
.LBE2676:
.LBE2675:
.LBE2674:
	.loc 3 85 0
	mr 3,31
.LEHB5:
	bl _ZN7GuiTextD2Ev
.LEHE5:
.LBE2692:
	.loc 3 93 0
	lwz 0,36(1)
	lwz 30,24(1)
	mtlr 0
	lwz 31,28(1)
.LVL199:
	addi 1,1,32
	.cfi_remember_state
.LCFI38:
	.cfi_def_cfa_offset 0
	.cfi_restore 31
	.cfi_restore 30
	blr
.LVL200:
.L141:
.LCFI39:
	.cfi_restore_state
.LBB2693:
.LBB2682:
.LBB2665:
.LBB2664:
.LBB2663:
.LBB2662:
.LBB2661:
.LBB2659:
.LBB2652:
.LBB2653:
.LBB2654:
	.file 14 "d:\\devkitpro\\devkitppc\\bin\\../lib/gcc/powerpc-eabi/4.6.3/../../../../powerpc-eabi/include/c++/4.6.3/ext/atomicity.h"
	.loc 14 66 0
	lwz 11,-4(9)
.LVL201:
.LBE2654:
.LBE2653:
.LBE2652:
	.loc 9 240 0
	cmpwi 7,11,0
.LBB2657:
.LBB2656:
.LBB2655:
	.loc 14 67 0
	addi 11,11,-1
	stw 11,-4(9)
.LBE2655:
.LBE2656:
.LBE2657:
	.loc 9 240 0
	bgt+ 7,.L127
	.loc 9 244 0
	addi 4,1,8
	bl _ZNSbIwSt11char_traitsIwESaIwEE4_Rep10_M_destroyERKS1_
.LVL202:
	b .L127
.LVL203:
.L140:
.LBE2659:
.LBE2661:
.LBE2662:
.LBE2663:
.LBE2664:
.LBE2665:
.LBE2682:
.LBB2683:
	.loc 3 359 0
	lwz 0,212(31)
	mr 30,3
.LVL204:
.LBB2684:
.LBB2685:
.LBB2686:
.LBB2687:
.LBB2688:
	.loc 8 155 0
	cmpwi 7,0,0
	beq- 7,.L139
.LVL205:
.LBB2689:
.LBB2690:
	.loc 11 98 0
	mr 3,0
	bl _ZdlPv
.LVL206:
.L139:
.LBE2690:
.LBE2689:
.LBE2688:
.LBE2687:
.LBE2686:
.LBE2685:
.LBE2684:
.LBE2683:
	.loc 3 85 0
	mr 3,31
	bl _ZN7GuiTextD2Ev
	mr 3,30
.LEHB6:
	bl _Unwind_Resume
.LEHE6:
.LBE2693:
	.cfi_endproc
.LFE1550:
	.section	.gcc_except_table
.LLSDA1550:
	.byte	0xff
	.byte	0xff
	.byte	0x1
	.uleb128 .LLSDACSE1550-.LLSDACSB1550
.LLSDACSB1550:
	.uleb128 .LEHB4-.LFB1550
	.uleb128 .LEHE4-.LEHB4
	.uleb128 .L140-.LFB1550
	.uleb128 0
	.uleb128 .LEHB5-.LFB1550
	.uleb128 .LEHE5-.LEHB5
	.uleb128 0
	.uleb128 0
	.uleb128 .LEHB6-.LFB1550
	.uleb128 .LEHE6-.LEHB6
	.uleb128 0
	.uleb128 0
.LLSDACSE1550:
	.section	".text"
	.size	_ZN11GuiLongTextD2Ev, .-_ZN11GuiLongTextD2Ev
	.align 2
	.globl _ZN11GuiLongTextD0Ev
	.type	_ZN11GuiLongTextD0Ev, @function
_ZN11GuiLongTextD0Ev:
.LFB1552:
	.loc 3 85 0
	.cfi_startproc
.LVL207:
	stwu 1,-16(1)
.LCFI40:
	.cfi_def_cfa_offset 16
	mflr 0
	stw 31,12(1)
	mr 31,3
	.cfi_offset 31, -4
	.cfi_register 65, 0
	stw 0,20(1)
	.loc 3 93 0
	.cfi_offset 65, 4
	bl _ZN11GuiLongTextD1Ev
.LVL208:
	mr 3,31
	bl _ZdlPv
	lwz 0,20(1)
	lwz 31,12(1)
.LVL209:
	mtlr 0
	addi 1,1,16
.LCFI41:
	.cfi_def_cfa_offset 0
	.cfi_restore 31
	blr
	.cfi_endproc
.LFE1552:
	.size	_ZN11GuiLongTextD0Ev, .-_ZN11GuiLongTextD0Ev
	.align 2
	.globl _ZN11GuiLongText13GetLineOffsetEi
	.type	_ZN11GuiLongText13GetLineOffsetEi, @function
_ZN11GuiLongText13GetLineOffsetEi:
.LFB1558:
	.loc 3 183 0
	.cfi_startproc
.LVL210:
	.loc 3 359 0
	lwz 11,212(3)
.LBB2694:
.LBB2695:
	.loc 8 571 0
	lis 0,0xaaaa
	lwz 9,216(3)
	ori 0,0,43691
.LBE2695:
.LBE2694:
	.loc 3 185 0
	li 3,0
.LVL211:
.LBB2697:
.LBB2696:
	.loc 8 571 0
	subf 9,11,9
	srawi 9,9,2
.LBE2696:
.LBE2697:
	.loc 3 184 0
	mullw. 9,9,0
	beqlr- 0
	.loc 3 187 0
	cmpwi 7,4,0
	blt- 7,.L149
	.loc 3 190 0
	addi 9,9,-1
	cmpw 7,4,9
	bge- 7,.L150
.LVL212:
	.loc 3 193 0
	mulli 4,4,12
.LVL213:
	lwzx 3,11,4
	.loc 3 194 0
	blr
.LVL214:
.L149:
	.loc 3 188 0
	lwz 3,0(11)
	blr
.LVL215:
.L150:
	.loc 3 191 0
	mulli 9,9,12
	lwzx 3,11,9
	blr
	.cfi_endproc
.LFE1558:
	.size	_ZN11GuiLongText13GetLineOffsetEi, .-_ZN11GuiLongText13GetLineOffsetEi
	.align 2
	.globl _ZN11GuiLongText15CalcLineOffsetsEv
	.type	_ZN11GuiLongText15CalcLineOffsetsEv, @function
_ZN11GuiLongText15CalcLineOffsetsEv:
.LFB1564:
	.loc 3 267 0
	.cfi_startproc
.LVL216:
	mflr 0
	stwu 1,-64(1)
.LCFI42:
	.cfi_def_cfa_offset 64
	.cfi_register 65, 0
	stw 29,52(1)
	mr 29,3
	.cfi_offset 29, -12
	stw 0,68(1)
	stw 25,36(1)
.LBB2736:
	.loc 3 268 0
	lwz 9,208(3)
.LBE2736:
	.loc 3 267 0
	stw 26,40(1)
.LBB2772:
	.loc 3 268 0
	cmpwi 7,9,0
.LBE2772:
	.loc 3 267 0
	stw 27,44(1)
	stw 28,48(1)
	stw 30,56(1)
	stw 31,60(1)
.LBB2773:
	.loc 3 268 0
	beq- 7,.L151
	.cfi_offset 31, -4
	.cfi_offset 30, -8
	.cfi_offset 28, -16
	.cfi_offset 27, -20
	.cfi_offset 26, -24
	.cfi_offset 25, -28
	.cfi_offset 65, 4
.LVL217:
.LBB2737:
.LBB2738:
.LBB2739:
.LBB2740:
	.loc 8 1256 0
	lwz 11,212(3)
.LBE2740:
.LBE2739:
.LBE2738:
.LBE2737:
	.loc 3 274 0
	li 0,0
	stw 0,12(1)
.LBB2744:
.LBB2743:
.LBB2742:
.LBB2741:
	.loc 8 1256 0
	stw 11,216(3)
.LBE2741:
.LBE2742:
.LBE2743:
.LBE2744:
.LBB2745:
.LBB2746:
.LBB2747:
	.loc 9 288 0
	lwz 28,0(9)
.LBE2747:
.LBE2746:
.LBE2745:
	.loc 3 275 0
	stw 0,8(1)
	.loc 3 284 0
	lwz 4,0(28)
	.loc 3 276 0
	stw 0,16(1)
.LVL218:
	.loc 3 284 0
	cmpwi 7,4,0
	beq- 7,.L151
	.loc 3 286 0
	lis 25,fontSystem@ha
	lha 5,198(29)
	lwz 3,fontSystem@l(25)
.LVL219:
	mr 26,28
	.loc 3 279 0
	li 31,0
	.loc 3 281 0
	li 30,0
	.loc 3 280 0
	li 27,-1
	.loc 3 286 0
	li 6,0
	b .L168
.LVL220:
.L177:
	.loc 3 290 0
	cmpwi 7,27,0
	ble- 7,.L175
	mr 31,27
.LVL221:
.L175:
.LBB2748:
.LBB2749:
	.loc 8 828 0
	lwz 0,220(29)
	lwz 9,216(29)
.LBE2749:
.LBE2748:
	.loc 3 304 0
	lwz 11,8(1)
.LBB2757:
.LBB2754:
	.loc 8 828 0
	cmpw 7,9,0
.LBE2754:
.LBE2757:
	.loc 3 305 0
	stw 30,16(1)
.LVL222:
	.loc 3 304 0
	subf 0,11,31
	stw 0,12(1)
.LBB2758:
.LBB2755:
	.loc 8 828 0
	beq- 7,.L161
.LVL223:
.LBB2750:
.LBB2751:
	.loc 11 108 0
	cmpwi 7,9,0
	beq- 7,.L162
	stw 11,0(9)
	stw 0,4(9)
	stw 30,8(9)
.L162:
.LBE2751:
.LBE2750:
	.loc 8 831 0
	addi 9,9,12
	stw 9,216(29)
.LVL224:
.L163:
.LBE2755:
.LBE2758:
	.loc 3 310 0
	addi 31,31,1
	.loc 3 307 0
	li 30,0
	.loc 3 284 0
	slwi 26,31,2
	.loc 3 310 0
	stw 31,8(1)
	.loc 3 284 0
	lwzx 4,28,26
	.loc 3 308 0
	li 27,-1
.LVL225:
	.loc 3 284 0
	add 26,28,26
	cmpwi 7,4,0
	beq- 7,.L176
.LVL226:
.L165:
	.loc 3 286 0
	addi 0,31,-1
	lwz 3,fontSystem@l(25)
	slwi 0,0,2
	lha 5,198(29)
	lwzx 6,28,0
.LVL227:
.L168:
	.loc 3 286 0 is_stmt 0 discriminator 3
	bl _ZN10FreeTypeGX12getCharWidthEwsw
	.loc 3 288 0 is_stmt 1 discriminator 3
	lwz 0,180(29)
	.loc 3 286 0 discriminator 3
	add 30,30,3
.LVL228:
	.loc 3 288 0 discriminator 3
	cmpw 7,30,0
	bge- 7,.L177
	.loc 3 302 0
	lwz 0,0(26)
	cmpwi 7,0,10
	beq- 7,.L175
	.loc 3 312 0
	cmpwi 7,0,32
	beq- 7,.L164
	addi 31,31,1
.L178:
.LVL229:
	.loc 3 284 0
	slwi 26,31,2
	lwzx 4,28,26
	add 26,28,26
	cmpwi 7,4,0
	bne+ 7,.L165
.L176:
	lwz 0,8(1)
	.loc 3 322 0
	stw 30,16(1)
	.loc 3 284 0
	subf 31,0,31
.LVL230:
	.loc 3 324 0
	cmpwi 7,31,1
	ble- 7,.L151
.LBB2759:
.LBB2760:
	.loc 8 828 0
	lwz 9,216(29)
.LBE2760:
.LBE2759:
	.loc 3 326 0
	addi 31,31,-1
.LBB2768:
.LBB2765:
	.loc 8 828 0
	lwz 11,220(29)
.LBE2765:
.LBE2768:
	.loc 3 326 0
	stw 31,12(1)
.LVL231:
.LBB2769:
.LBB2766:
	.loc 8 828 0
	cmpw 7,9,11
	beq- 7,.L166
.LVL232:
.LBB2761:
.LBB2762:
	.loc 11 108 0
	cmpwi 7,9,0
	beq- 7,.L167
	stw 0,0(9)
	stw 31,4(9)
	stw 30,8(9)
.L167:
.LBE2762:
.LBE2761:
	.loc 8 831 0
	addi 9,9,12
	stw 9,216(29)
.LVL233:
.L151:
.LBE2766:
.LBE2769:
.LBE2773:
	.loc 3 329 0
	lwz 0,68(1)
	lwz 25,36(1)
	mtlr 0
	lwz 26,40(1)
	lwz 27,44(1)
	lwz 28,48(1)
	lwz 29,52(1)
.LVL234:
	lwz 30,56(1)
	lwz 31,60(1)
	addi 1,1,64
	.cfi_remember_state
.LCFI43:
	.cfi_def_cfa_offset 0
	.cfi_restore 31
	.cfi_restore 30
	.cfi_restore 29
	.cfi_restore 28
	.cfi_restore 27
	.cfi_restore 26
	.cfi_restore 25
	blr
.LVL235:
.L164:
.LCFI44:
	.cfi_restore_state
.LBB2774:
	.loc 3 312 0
	mr 27,31
	addi 31,31,1
.LVL236:
	b .L178
.LVL237:
.L161:
.LBB2770:
.LBB2756:
.LBB2752:
.LBB2753:
	.loc 8 834 0
	mr 4,1
	addi 3,29,212
	stwu 9,24(4)
	addi 5,1,8
	bl _ZNSt6vectorI8TextLineSaIS0_EE13_M_insert_auxEN9__gnu_cxx17__normal_iteratorIPS0_S2_EERKS0_.constprop.126
	b .L163
.LVL238:
.L166:
.LBE2753:
.LBE2752:
.LBE2756:
.LBE2770:
.LBB2771:
.LBB2767:
.LBB2763:
.LBB2764:
	mr 4,1
	addi 3,29,212
	stwu 9,24(4)
	addi 5,1,8
.LVL239:
	bl _ZNSt6vectorI8TextLineSaIS0_EE13_M_insert_auxEN9__gnu_cxx17__normal_iteratorIPS0_S2_EERKS0_.constprop.126
.LVL240:
	b .L151
.LBE2764:
.LBE2763:
.LBE2767:
.LBE2771:
.LBE2774:
	.cfi_endproc
.LFE1564:
	.size	_ZN11GuiLongText15CalcLineOffsetsEv, .-_ZN11GuiLongText15CalcLineOffsetsEv
	.align 2
	.globl _ZN11GuiLongText7SetTextEPKw
	.type	_ZN11GuiLongText7SetTextEPKw, @function
_ZN11GuiLongText7SetTextEPKw:
.LFB1554:
	.loc 3 126 0
	.cfi_startproc
	.cfi_personality 0,__gxx_personality_v0
	.cfi_lsda 0,.LLSDA1554
.LVL241:
	stwu 1,-40(1)
.LCFI45:
	.cfi_def_cfa_offset 40
	mflr 0
	stw 29,28(1)
	.loc 3 127 0
	mr. 29,4
	.cfi_offset 29, -12
	.cfi_register 65, 0
	.loc 3 126 0
	stw 31,36(1)
	mr 31,3
	.cfi_offset 31, -4
	stw 0,44(1)
	stw 30,32(1)
	.loc 3 127 0
	beq- 0,.L179
	.cfi_offset 30, -8
	.cfi_offset 65, 4
	.loc 3 130 0
	lwz 30,208(3)
	cmpwi 7,30,0
	beq- 7,.L181
.LVL242:
.LBB2802:
.LBB2803:
.LBB2804:
.LBB2805:
.LBB2806:
.LBB2807:
.LBB2808:
.LBB2809:
	.loc 9 288 0
	lwz 9,0(30)
.LBE2809:
.LBE2808:
.LBE2807:
.LBB2810:
.LBB2811:
	.loc 9 235 0
	lis 11,_ZNSbIwSt11char_traitsIwESaIwEE4_Rep20_S_empty_rep_storageE@ha
	la 0,_ZNSbIwSt11char_traitsIwESaIwEE4_Rep20_S_empty_rep_storageE@l(11)
.LBE2811:
.LBE2810:
	.loc 9 534 0
	addi 3,9,-12
.LVL243:
.LBB2820:
.LBB2818:
	.loc 9 235 0
	cmpw 7,3,0
	bne- 7,.L192
.LVL244:
.L188:
.LBE2818:
.LBE2820:
.LBE2806:
.LBE2805:
.LBE2804:
.LBE2803:
.LBE2802:
	.loc 3 131 0 discriminator 1
	mr 3,30
	bl _ZdlPv
.LVL245:
.L181:
	.loc 3 133 0
	li 3,4
.LEHB7:
	bl _Znwj
.LEHE7:
	mr 4,29
	mr 30,3
.LEHB8:
	bl _ZN7wStringC1EPKw
.LEHE8:
	.loc 3 134 0 discriminator 1
	lwz 3,188(31)
	.loc 3 133 0 discriminator 1
	stw 30,208(31)
	.loc 3 134 0 discriminator 1
	cmpwi 7,3,0
	beq- 7,.L193
.L189:
.LVL246:
	.loc 3 134 0 is_stmt 0 discriminator 3
	lwz 4,0(30)
	lha 5,198(31)
.LEHB9:
	bl _ZN10FreeTypeGX8getWidthEPKws
	stw 3,192(31)
	.loc 3 135 0 is_stmt 1 discriminator 3
	mr 3,31
	bl _ZN11GuiLongText15CalcLineOffsetsEv
.LVL247:
.L179:
	.loc 3 136 0
	lwz 0,44(1)
	lwz 29,28(1)
.LVL248:
	mtlr 0
	lwz 30,32(1)
	lwz 31,36(1)
.LVL249:
	addi 1,1,40
	.cfi_remember_state
.LCFI46:
	.cfi_def_cfa_offset 0
	.cfi_restore 31
	.cfi_restore 30
	.cfi_restore 29
	blr
.LVL250:
.L193:
.LCFI47:
	.cfi_restore_state
	.loc 3 134 0 discriminator 2
	lis 9,fontSystem@ha
	lwz 3,fontSystem@l(9)
	b .L189
.LVL251:
.L192:
.LBB2826:
.LBB2825:
.LBB2824:
.LBB2823:
.LBB2822:
.LBB2821:
.LBB2819:
.LBB2812:
.LBB2813:
.LBB2814:
	.loc 14 66 0
	lwz 11,-4(9)
.LVL252:
.LBE2814:
.LBE2813:
.LBE2812:
	.loc 9 240 0
	cmpwi 7,11,0
.LBB2817:
.LBB2816:
.LBB2815:
	.loc 14 67 0
	addi 11,11,-1
	stw 11,-4(9)
.LBE2815:
.LBE2816:
.LBE2817:
	.loc 9 240 0
	bgt+ 7,.L188
	.loc 9 244 0
	addi 4,1,8
	bl _ZNSbIwSt11char_traitsIwESaIwEE4_Rep10_M_destroyERKS1_
.LVL253:
	b .L188
.LVL254:
.L191:
	mr 31,3
.LVL255:
.LBE2819:
.LBE2821:
.LBE2822:
.LBE2823:
.LBE2824:
.LBE2825:
.LBE2826:
	.loc 3 133 0
	mr 3,30
	bl _ZdlPv
	mr 3,31
	bl _Unwind_Resume
.LEHE9:
	.cfi_endproc
.LFE1554:
	.section	.gcc_except_table
.LLSDA1554:
	.byte	0xff
	.byte	0xff
	.byte	0x1
	.uleb128 .LLSDACSE1554-.LLSDACSB1554
.LLSDACSB1554:
	.uleb128 .LEHB7-.LFB1554
	.uleb128 .LEHE7-.LEHB7
	.uleb128 0
	.uleb128 0
	.uleb128 .LEHB8-.LFB1554
	.uleb128 .LEHE8-.LEHB8
	.uleb128 .L191-.LFB1554
	.uleb128 0
	.uleb128 .LEHB9-.LFB1554
	.uleb128 .LEHE9-.LEHB9
	.uleb128 0
	.uleb128 0
.LLSDACSE1554:
	.section	".text"
	.size	_ZN11GuiLongText7SetTextEPKw, .-_ZN11GuiLongText7SetTextEPKw
	.align 2
	.globl _ZN11GuiLongText7SetTextEPKc
	.type	_ZN11GuiLongText7SetTextEPKc, @function
_ZN11GuiLongText7SetTextEPKc:
.LFB1553:
	.loc 3 96 0
	.cfi_startproc
	.cfi_personality 0,__gxx_personality_v0
	.cfi_lsda 0,.LLSDA1553
.LVL256:
	stwu 1,-48(1)
.LCFI48:
	.cfi_def_cfa_offset 48
	mflr 0
	stw 31,44(1)
	mr 31,3
	.cfi_offset 31, -4
	.cfi_register 65, 0
.LBB2928:
	.loc 3 97 0
	mr 3,4
.LVL257:
.LBE2928:
	.loc 3 96 0
	stw 29,36(1)
	stw 0,52(1)
	stw 27,28(1)
	stw 28,32(1)
	stw 30,40(1)
.LEHB10:
.LBB3009:
	.loc 3 97 0
	.cfi_offset 30, -8
	.cfi_offset 28, -16
	.cfi_offset 27, -20
	.cfi_offset 65, 4
	.cfi_offset 29, -12
	bl _Z14charToWideCharPKc
.LEHE10:
.LVL258:
	.loc 3 98 0
	mr. 29,3
	beq- 0,.L194
	.loc 3 101 0
	lwz 30,208(31)
	cmpwi 7,30,0
	beq- 7,.L196
.LVL259:
.LBB2929:
.LBB2930:
.LBB2931:
.LBB2932:
.LBB2933:
.LBB2934:
.LBB2935:
.LBB2936:
	.loc 9 288 0
	lwz 9,0(30)
.LBE2936:
.LBE2935:
.LBE2934:
.LBB2937:
.LBB2938:
	.loc 9 235 0
	lis 11,_ZNSbIwSt11char_traitsIwESaIwEE4_Rep20_S_empty_rep_storageE@ha
	la 0,_ZNSbIwSt11char_traitsIwESaIwEE4_Rep20_S_empty_rep_storageE@l(11)
.LBE2938:
.LBE2937:
	.loc 9 534 0
	addi 3,9,-12
.LVL260:
.LBB2947:
.LBB2945:
	.loc 9 235 0
	cmpw 7,3,0
	bne- 7,.L216
.LVL261:
.L203:
.LBE2945:
.LBE2947:
.LBE2933:
.LBE2932:
.LBE2931:
.LBE2930:
.LBE2929:
	.loc 3 102 0 discriminator 1
	mr 3,30
	bl _ZdlPv
.LVL262:
.L196:
	.loc 3 104 0
	lis 28,_ZSt7nothrow@ha
	li 3,4
	la 28,_ZSt7nothrow@l(28)
	mr 4,28
	bl _ZnwjRKSt9nothrow_t
	mr. 30,3
	beq- 0,.L204
	.loc 3 104 0 is_stmt 0 discriminator 1
	mr 4,29
.LEHB11:
	bl _ZN7wStringC1EPKw
.LEHE11:
.LBB2953:
.LBB2954:
.LBB2955:
.LBB2956:
.LBB2957:
	.loc 9 288 0 is_stmt 1 discriminator 3
	lwz 9,0(30)
.LBE2957:
.LBE2956:
.LBE2955:
.LBE2954:
.LBE2953:
	.loc 3 104 0 discriminator 3
	stw 30,208(31)
.LVL263:
	.loc 3 111 0 discriminator 3
	lwz 0,-12(9)
.LBB2962:
.LBB2961:
.LBB2960:
.LBB2959:
.LBB2958:
	.loc 9 288 0 discriminator 3
	mr 4,9
.LBE2958:
.LBE2959:
.LBE2960:
.LBE2961:
.LBE2962:
	.loc 3 111 0 discriminator 3
	cmpwi 7,0,0
	beq- 7,.L217
.LVL264:
.L205:
	.loc 3 117 0
	lwz 3,188(31)
	cmpwi 7,3,0
	beq- 7,.L218
.L211:
	.loc 3 117 0 is_stmt 0 discriminator 3
	lha 5,198(31)
.LEHB12:
	bl _ZN10FreeTypeGX8getWidthEPKws
	stw 3,192(31)
	.loc 3 119 0 is_stmt 1 discriminator 3
	mr 3,29
	bl _ZdaPv
	.loc 3 121 0 discriminator 3
	mr 3,31
	bl _ZN7GuiText16ClearDynamicTextEv
	.loc 3 122 0 discriminator 3
	mr 3,31
	bl _ZN11GuiLongText15CalcLineOffsetsEv
.LVL265:
.L194:
.LBE3009:
	.loc 3 123 0
	lwz 0,52(1)
	lwz 27,28(1)
	mtlr 0
	lwz 28,32(1)
	lwz 29,36(1)
.LVL266:
	lwz 30,40(1)
	lwz 31,44(1)
.LVL267:
	addi 1,1,48
	.cfi_remember_state
.LCFI49:
	.cfi_def_cfa_offset 0
	.cfi_restore 31
	.cfi_restore 30
	.cfi_restore 29
	.cfi_restore 28
	.cfi_restore 27
	blr
.LVL268:
.L217:
.LCFI50:
	.cfi_restore_state
.LBB3010:
.LBB2963:
.LBB2964:
	.loc 9 1046 0
	lwz 0,-8(9)
	cmpwi 7,0,0
	beq- 7,.L206
.LVL269:
	lwz 0,-4(9)
	mr 28,30
	cmpwi 7,0,0
	ble- 7,.L207
.LVL270:
.L206:
	.loc 9 1047 0
	mr 3,30
	li 4,1
	bl _ZNSbIwSt11char_traitsIwESaIwEE7reserveEj
	lwz 28,208(31)
	lwz 9,0(30)
.L207:
.LVL271:
.LBB2965:
.LBB2966:
	.loc 9 205 0
	lis 30,_ZNSbIwSt11char_traitsIwESaIwEE4_Rep20_S_empty_rep_storageE@ha
.LVL272:
.LBE2966:
.LBE2965:
	.loc 9 1049 0
	addi 0,9,-12
.LBB2977:
.LBB2973:
	.loc 9 205 0
	la 30,_ZNSbIwSt11char_traitsIwESaIwEE4_Rep20_S_empty_rep_storageE@l(30)
.LBE2973:
.LBE2977:
.LBB2978:
.LBB2979:
	.file 15 "d:\\devkitpro\\devkitppc\\bin\\../lib/gcc/powerpc-eabi/4.6.3/../../../../powerpc-eabi/include/c++/4.6.3/bits/char_traits.h"
	.loc 15 316 0
	li 11,32
.LBE2979:
.LBE2978:
.LBB2981:
.LBB2974:
	.loc 9 205 0
	cmpw 7,0,30
.LBE2974:
.LBE2981:
	.loc 9 1048 0
	lwz 0,-12(9)
.LBB2982:
.LBB2980:
	.loc 15 316 0
	slwi 0,0,2
	stwx 11,9,0
.LVL273:
.LBE2980:
.LBE2982:
.LBB2983:
.LBB2975:
	.loc 9 205 0
	bne- 7,.L219
.L208:
.LVL274:
.LBE2975:
.LBE2983:
.LBE2964:
.LBE2963:
.LBB2986:
.LBB2987:
.LBB2988:
.LBB2989:
.LBB2990:
.LBB2991:
.LBB2992:
	.loc 9 288 0
	lwz 9,0(28)
.LVL275:
.LBE2992:
.LBE2991:
.LBE2990:
	.loc 9 711 0
	lwz 11,-12(9)
.LBE2989:
.LBE2988:
	.loc 9 1046 0
	lwz 0,-8(9)
	.loc 9 1045 0
	addi 27,11,1
.LVL276:
	.loc 9 1046 0
	cmplw 7,27,0
	bgt- 7,.L209
.LVL277:
	lwz 0,-4(9)
	mr 4,9
	cmpwi 7,0,0
	ble- 7,.L210
.LVL278:
.L209:
	.loc 9 1047 0
	mr 4,27
	mr 3,28
	bl _ZNSbIwSt11char_traitsIwESaIwEE7reserveEj
	lwz 9,0(28)
	lwz 10,208(31)
	lwz 11,-12(9)
	lwz 4,0(10)
.L210:
.LVL279:
	.loc 9 1049 0
	addi 0,9,-12
.LBB2993:
.LBB2994:
	.loc 15 316 0
	slwi 11,11,2
.LVL280:
.LBE2994:
.LBE2993:
.LBB2996:
.LBB2997:
	.loc 9 205 0
	cmpw 7,0,30
.LBE2997:
.LBE2996:
.LBB3005:
.LBB2995:
	.loc 15 316 0
	li 0,0
	stwx 0,9,11
.LVL281:
.LBE2995:
.LBE3005:
.LBB3006:
.LBB3004:
	.loc 9 205 0
	beq+ 7,.L205
.LBB2998:
.LBB2999:
	.loc 15 316 0
	slwi 11,27,2
.LBE2999:
.LBE2998:
.LBB3001:
.LBB3002:
	.loc 9 199 0
	stw 0,-4(9)
.LBE3002:
.LBE3001:
	.loc 9 209 0
	stw 27,-12(9)
.LVL282:
.LBB3003:
.LBB3000:
	.loc 15 316 0
	stwx 0,9,11
	b .L205
.LVL283:
.L204:
.LBE3000:
.LBE3003:
.LBE3004:
.LBE3006:
.LBE2987:
.LBE2986:
.LBE3010:
	.loc 3 123 0
	lwz 0,52(1)
.LBB3011:
	.loc 3 104 0
	stw 30,208(31)
.LBE3011:
	.loc 3 123 0
	mtlr 0
	lwz 27,28(1)
	lwz 28,32(1)
	lwz 29,36(1)
.LVL284:
	lwz 30,40(1)
	lwz 31,44(1)
.LVL285:
	addi 1,1,48
	.cfi_remember_state
	.cfi_restore 27
	.cfi_restore 28
	.cfi_restore 29
	.cfi_restore 30
	.cfi_restore 31
.LCFI51:
	.cfi_def_cfa_offset 0
	blr
.LVL286:
.L218:
.LCFI52:
	.cfi_restore_state
.LBB3012:
	.loc 3 117 0 discriminator 2
	lis 9,fontSystem@ha
	lwz 3,fontSystem@l(9)
	b .L211
.LVL287:
.L216:
.LBB3007:
.LBB2952:
.LBB2951:
.LBB2950:
.LBB2949:
.LBB2948:
.LBB2946:
.LBB2939:
.LBB2940:
.LBB2941:
	.loc 14 66 0
	lwz 11,-4(9)
.LVL288:
.LBE2941:
.LBE2940:
.LBE2939:
	.loc 9 240 0
	cmpwi 7,11,0
.LBB2944:
.LBB2943:
.LBB2942:
	.loc 14 67 0
	addi 11,11,-1
	stw 11,-4(9)
.LBE2942:
.LBE2943:
.LBE2944:
	.loc 9 240 0
	bgt+ 7,.L203
	.loc 9 244 0
	addi 4,1,8
	bl _ZNSbIwSt11char_traitsIwESaIwEE4_Rep10_M_destroyERKS1_
.LVL289:
	b .L203
.LVL290:
.L219:
.LBE2946:
.LBE2948:
.LBE2949:
.LBE2950:
.LBE2951:
.LBE2952:
.LBE3007:
.LBB3008:
.LBB2985:
.LBB2984:
.LBB2976:
.LBB2967:
.LBB2968:
	.loc 9 199 0
	li 0,0
.LBE2968:
.LBE2967:
	.loc 9 209 0
	li 11,1
.LBB2970:
.LBB2969:
	.loc 9 199 0
	stw 0,-4(9)
.LBE2969:
.LBE2970:
	.loc 9 209 0
	stw 11,-12(9)
.LVL291:
.LBB2971:
.LBB2972:
	.loc 15 316 0
	stw 0,4(9)
	b .L208
.LVL292:
.L215:
	mr 31,3
.LVL293:
.LBE2972:
.LBE2971:
.LBE2976:
.LBE2984:
.LBE2985:
.LBE3008:
	.loc 3 104 0
	mr 4,28
	mr 3,30
	bl _ZdlPvRKSt9nothrow_t
	mr 3,31
	bl _Unwind_Resume
.LEHE12:
.LBE3012:
	.cfi_endproc
.LFE1553:
	.section	.gcc_except_table
.LLSDA1553:
	.byte	0xff
	.byte	0xff
	.byte	0x1
	.uleb128 .LLSDACSE1553-.LLSDACSB1553
.LLSDACSB1553:
	.uleb128 .LEHB10-.LFB1553
	.uleb128 .LEHE10-.LEHB10
	.uleb128 0
	.uleb128 0
	.uleb128 .LEHB11-.LFB1553
	.uleb128 .LEHE11-.LEHB11
	.uleb128 .L215-.LFB1553
	.uleb128 0
	.uleb128 .LEHB12-.LFB1553
	.uleb128 .LEHE12-.LEHB12
	.uleb128 0
	.uleb128 0
.LLSDACSE1553:
	.section	".text"
	.size	_ZN11GuiLongText7SetTextEPKc, .-_ZN11GuiLongText7SetTextEPKc
	.section	.text._ZNSt6vectorIPwSaIS0_EE14_M_fill_insertEN9__gnu_cxx17__normal_iteratorIPS0_S2_EEjRKS0_,"axG",@progbits,_ZNSt6vectorIPwSaIS0_EE14_M_fill_insertEN9__gnu_cxx17__normal_iteratorIPS0_S2_EEjRKS0_,comdat
	.align 2
	.weak	_ZNSt6vectorIPwSaIS0_EE14_M_fill_insertEN9__gnu_cxx17__normal_iteratorIPS0_S2_EEjRKS0_
	.type	_ZNSt6vectorIPwSaIS0_EE14_M_fill_insertEN9__gnu_cxx17__normal_iteratorIPS0_S2_EEjRKS0_, @function
_ZNSt6vectorIPwSaIS0_EE14_M_fill_insertEN9__gnu_cxx17__normal_iteratorIPS0_S2_EEjRKS0_:
.LFB1749:
	.loc 10 377 0
	.cfi_startproc
.LVL294:
	stwu 1,-40(1)
.LCFI53:
	.cfi_def_cfa_offset 40
	mflr 0
	stw 30,32(1)
.LBB3119:
	.loc 10 380 0
	mr. 30,5
	.cfi_offset 30, -8
	.cfi_register 65, 0
.LBE3119:
	.loc 10 377 0
	stw 0,44(1)
	stw 29,28(1)
	stw 31,36(1)
	mr 31,3
	.cfi_offset 31, -4
	.cfi_offset 29, -12
	.cfi_offset 65, 4
	stw 26,16(1)
	stw 27,20(1)
	stw 28,24(1)
	.loc 10 377 0
	lwz 29,0(4)
.LBB3416:
	.loc 10 380 0
	beq- 0,.L220
	.cfi_offset 28, -16
	.cfi_offset 27, -20
	.cfi_offset 26, -24
.LBB3120:
	.loc 10 382 0
	lwz 27,4(3)
	lwz 0,8(3)
	subf 0,27,0
	srawi 0,0,2
	cmplw 7,30,0
	bgt- 7,.L222
.LBB3121:
.LBB3122:
.LBB3123:
	.loc 13 892 0
	subf 0,29,27
.LBE3123:
.LBE3122:
	.loc 10 385 0
	lwz 28,0(6)
.LVL295:
.LBB3125:
.LBB3124:
	.loc 13 892 0
	srawi 0,0,2
.LVL296:
.LBE3124:
.LBE3125:
	.loc 10 388 0
	cmplw 7,30,0
	blt- 7,.L250
.LVL297:
.LBB3126:
.LBB3127:
.LBB3128:
.LBB3129:
.LBB3130:
.LBB3131:
.LBB3132:
.LBB3133:
	.loc 12 743 0
	subf. 30,0,30
	.loc 10 382 0
	mr 9,27
	.loc 12 743 0
	beq- 0,.L227
.LBE3133:
.LBE3132:
.LBE3131:
.LBE3130:
.LBE3129:
.LBE3128:
.LBE3127:
.LBE3126:
.LBB3141:
.LBB3142:
.LBB3143:
.LBB3144:
.LBB3145:
.LBB3146:
.LBB3147:
.LBB3148:
.LBB3149:
.LBB3150:
.LBB3151:
	.loc 10 377 0
	mtctr 30
.LBE3151:
.LBE3150:
.LBE3149:
.LBE3148:
.LBE3147:
.LBE3146:
.LBE3145:
.LBE3144:
.LBE3143:
.LBE3142:
.LBE3141:
.LBB3162:
.LBB3140:
.LBB3139:
.LBB3138:
.LBB3137:
.LBB3136:
.LBB3135:
.LBB3134:
	addi 9,27,-4
.LVL298:
.L228:
	.loc 12 745 0
	stwu 28,4(9)
	.loc 12 743 0
	bdnz .L228
	lwz 9,4(31)
.L227:
.LBE3134:
.LBE3135:
.LBE3136:
.LBE3137:
.LBE3138:
.LBE3139:
.LBE3140:
.LBE3162:
.LBB3163:
.LBB3164:
.LBB3165:
.LBB3166:
.LBB3167:
.LBB3168:
.LBB3169:
.LBB3170:
.LBB3171:
.LBB3172:
.LBB3173:
	.loc 12 365 0
	cmpwi 7,0,0
.LBE3173:
.LBE3172:
.LBE3171:
.LBE3170:
.LBE3169:
.LBE3168:
.LBE3167:
.LBE3166:
.LBE3165:
.LBE3164:
.LBE3163:
	.loc 10 406 0
	slwi 30,30,2
	add 3,9,30
.LVL299:
	stw 3,4(31)
.LVL300:
.LBB3194:
.LBB3192:
.LBB3190:
.LBB3188:
.LBB3186:
.LBB3184:
.LBB3182:
.LBB3180:
.LBB3178:
.LBB3176:
.LBB3174:
	.loc 12 365 0
	bne- 7,.L229
	li 30,0
.LVL301:
.L230:
.LBE3174:
.LBE3176:
.LBE3178:
.LBE3180:
.LBE3182:
.LBE3184:
.LBE3186:
.LBE3188:
.LBE3190:
.LBE3192:
.LBE3194:
.LBB3195:
.LBB3196:
.LBB3197:
	.loc 12 686 0
	cmpw 7,27,29
.LBE3197:
.LBE3196:
.LBE3195:
	.loc 10 410 0
	add 3,3,30
	stw 3,4(31)
.LVL302:
.LBB3200:
.LBB3199:
.LBB3198:
	.loc 12 686 0
	beq- 7,.L220
.LVL303:
.L231:
	.loc 12 687 0
	stw 28,0(29)
	addi 29,29,4
	.loc 12 686 0
	cmpw 7,27,29
	bne+ 7,.L231
.LVL304:
.L220:
.LBE3198:
.LBE3199:
.LBE3200:
.LBE3121:
.LBE3120:
.LBE3416:
	.loc 10 464 0
	lwz 0,44(1)
	lwz 26,16(1)
	mtlr 0
	lwz 27,20(1)
	lwz 28,24(1)
	lwz 29,28(1)
	lwz 30,32(1)
	lwz 31,36(1)
.LVL305:
	addi 1,1,40
	.cfi_remember_state
.LCFI54:
	.cfi_def_cfa_offset 0
	.cfi_restore 31
	.cfi_restore 30
	.cfi_restore 29
	.cfi_restore 28
	.cfi_restore 27
	.cfi_restore 26
	blr
.LVL306:
.L222:
.LCFI55:
	.cfi_restore_state
.LBB3417:
.LBB3412:
.LBB3230:
.LBB3231:
.LBB3232:
.LBB3233:
.LBB3234:
	.loc 8 571 0
	lwz 9,0(3)
.LBE3234:
.LBE3233:
	.loc 8 1241 0
	lis 11,0x3fff
	ori 11,11,65535
.LBB3236:
.LBB3235:
	.loc 8 571 0
	subf 27,9,27
	srawi 0,27,2
.LBE3235:
.LBE3236:
	.loc 8 1241 0
	subf 11,0,11
	cmplw 7,30,11
	bgt- 7,.L251
.LVL307:
	.loc 8 1244 0
	cmplw 7,0,30
	mr 11,0
	blt- 7,.L252
	add 11,11,0
.LVL308:
	.loc 8 1245 0
	cmplw 7,0,11
	ble- 7,.L253
.L234:
.LVL309:
.LBE3232:
.LBE3231:
.LBB3239:
.LBB3240:
	.loc 13 892 0
	subf 27,9,29
.LBE3240:
.LBE3239:
	.loc 10 418 0
	li 26,-4
.LBB3243:
.LBB3241:
	.loc 13 892 0
	srawi 27,27,2
.LVL310:
.L240:
.LBE3241:
.LBE3243:
.LBB3244:
.LBB3245:
.LBB3246:
.LBB3247:
	.loc 11 92 0
	mr 3,26
.LVL311:
	stw 6,8(1)
	bl _Znwj
.LVL312:
	lwz 6,8(1)
	mr 28,3
.L235:
.LVL313:
.LBE3247:
.LBE3246:
.LBE3245:
.LBE3244:
	.loc 10 424 0
	slwi 27,27,2
.LVL314:
.LBB3256:
.LBB3252:
.LBB3250:
.LBB3248:
	.loc 3 359 0
	lwz 0,0(6)
.LVL315:
.LBE3248:
.LBE3250:
.LBE3252:
.LBE3256:
	.loc 10 424 0
	add 27,28,27
.LBB3257:
.LBB3253:
	.loc 10 377 0
	mtctr 30
.LBB3251:
.LBB3249:
	addi 27,27,-4
.LVL316:
.L236:
.LBE3249:
.LBE3251:
.LBE3253:
.LBE3257:
.LBB3258:
.LBB3259:
.LBB3260:
.LBB3261:
.LBB3262:
.LBB3263:
.LBB3264:
.LBB3265:
	.loc 12 745 0
	stwu 0,4(27)
	.loc 12 743 0
	bdnz .L236
.LVL317:
.LBE3265:
.LBE3264:
.LBE3263:
.LBE3262:
.LBE3261:
.LBE3260:
.LBE3259:
.LBE3258:
	.loc 10 429 0
	lwz 4,0(31)
.LVL318:
.LBB3266:
.LBB3267:
.LBB3268:
.LBB3269:
.LBB3270:
.LBB3271:
.LBB3272:
.LBB3273:
.LBB3274:
.LBB3275:
.LBB3276:
	.loc 12 365 0
	li 27,0
	.loc 12 364 0
	subf 0,4,29
.LVL319:
	.loc 12 365 0
	srawi. 0,0,2
.LVL320:
	bne- 0,.L254
.LBE3276:
.LBE3275:
.LBE3274:
.LBE3273:
.LBE3272:
.LBE3271:
.LBE3270:
.LBE3269:
.LBE3268:
.LBE3267:
.LBE3266:
.LBB3317:
.LBB3318:
.LBB3319:
.LBB3320:
.LBB3321:
.LBB3322:
.LBB3323:
.LBB3324:
.LBB3325:
.LBB3326:
.LBB3327:
	.loc 12 364 0
	lwz 0,4(31)
.LVL321:
.LBE3327:
.LBE3326:
.LBE3325:
.LBE3324:
.LBE3323:
.LBE3322:
.LBE3321:
.LBE3320:
.LBE3319:
.LBE3318:
.LBE3317:
.LBB3388:
.LBB3313:
.LBB3309:
.LBB3305:
.LBB3301:
.LBB3297:
.LBB3293:
.LBB3289:
.LBB3285:
.LBB3281:
.LBB3277:
	.loc 12 367 0
	add 27,28,27
.LVL322:
.LBE3277:
.LBE3281:
.LBE3285:
.LBE3289:
.LBE3293:
.LBE3297:
.LBE3301:
.LBE3305:
.LBE3309:
.LBE3313:
.LBE3388:
	.loc 10 434 0
	slwi 30,30,2
.LVL323:
.LBB3389:
.LBB3382:
.LBB3376:
.LBB3370:
.LBB3364:
.LBB3358:
.LBB3352:
.LBB3346:
.LBB3340:
.LBB3334:
.LBB3328:
	.loc 12 364 0
	subf 0,29,0
.LBE3328:
.LBE3334:
.LBE3340:
.LBE3346:
.LBE3352:
.LBE3358:
.LBE3364:
.LBE3370:
.LBE3376:
.LBE3382:
.LBE3389:
	.loc 10 434 0
	add 30,27,30
.LVL324:
.LBB3390:
.LBB3383:
.LBB3377:
.LBB3371:
.LBB3365:
.LBB3359:
.LBB3353:
.LBB3347:
.LBB3341:
.LBB3335:
.LBB3329:
	.loc 12 365 0
	srawi. 0,0,2
.LVL325:
	li 27,0
	bne- 0,.L255
.LVL326:
.L238:
.LBE3329:
.LBE3335:
.LBE3341:
.LBE3347:
.LBE3353:
.LBE3359:
.LBE3365:
.LBE3371:
.LBE3377:
.LBE3383:
.LBE3390:
	.loc 10 456 0
	lwz 3,0(31)
.LBB3391:
.LBB3384:
.LBB3378:
.LBB3372:
.LBB3366:
.LBB3360:
.LBB3354:
.LBB3348:
.LBB3342:
.LBB3336:
.LBB3330:
	.loc 12 367 0
	add 27,30,27
.LVL327:
.LBE3330:
.LBE3336:
.LBE3342:
.LBE3348:
.LBE3354:
.LBE3360:
.LBE3366:
.LBE3372:
.LBE3378:
.LBE3384:
.LBE3391:
.LBB3392:
.LBB3393:
	.loc 8 155 0
	cmpwi 7,3,0
	beq- 7,.L239
.LVL328:
.LBB3394:
.LBB3395:
	.loc 11 98 0
	bl _ZdlPv
.LVL329:
.L239:
.LBE3395:
.LBE3394:
.LBE3393:
.LBE3392:
.LBE3230:
.LBE3412:
.LBE3417:
	.loc 10 464 0
	lwz 0,44(1)
.LBB3418:
.LBB3413:
.LBB3407:
	.loc 10 461 0
	add 26,28,26
	.loc 10 459 0
	stw 28,0(31)
.LBE3407:
.LBE3413:
.LBE3418:
	.loc 10 464 0
	mtlr 0
.LBB3419:
.LBB3414:
.LBB3408:
	.loc 10 460 0
	stw 27,4(31)
	.loc 10 461 0
	stw 26,8(31)
.LBE3408:
.LBE3414:
.LBE3419:
	.loc 10 464 0
	lwz 27,20(1)
	lwz 26,16(1)
	lwz 28,24(1)
.LVL330:
	lwz 29,28(1)
.LVL331:
	lwz 30,32(1)
.LVL332:
	lwz 31,36(1)
.LVL333:
	addi 1,1,40
	.cfi_remember_state
	.cfi_restore 26
	.cfi_restore 27
	.cfi_restore 28
	.cfi_restore 29
	.cfi_restore 30
	.cfi_restore 31
.LCFI56:
	.cfi_def_cfa_offset 0
	blr
.LVL334:
.L252:
.LCFI57:
	.cfi_restore_state
.LBB3420:
.LBB3415:
.LBB3409:
.LBB3396:
.LBB3237:
	.loc 8 1244 0
	mr 11,30
	add 11,11,0
.LVL335:
	.loc 8 1245 0
	cmplw 7,0,11
	bgt- 7,.L234
.L253:
.LVL336:
	lis 0,0x3fff
	ori 0,0,65535
	cmplw 7,11,0
	bgt- 7,.L234
.LVL337:
.LBE3237:
.LBE3396:
.LBB3397:
.LBB3254:
	.loc 8 150 0
	cmpwi 7,11,0
.LBE3254:
.LBE3397:
.LBB3398:
.LBB3242:
	.loc 13 892 0
	subf 9,9,29
	srawi 27,9,2
.LVL338:
.LBE3242:
.LBE3398:
.LBB3399:
.LBB3255:
	.loc 8 150 0
	li 26,0
	li 28,0
	beq+ 7,.L235
	slwi 26,11,2
	b .L240
.LVL339:
.L254:
.LBE3255:
.LBE3399:
.LBB3400:
.LBB3314:
.LBB3310:
.LBB3306:
.LBB3302:
.LBB3298:
.LBB3294:
.LBB3290:
.LBB3286:
.LBB3282:
.LBB3278:
	.loc 12 366 0
	slwi 27,0,2
	mr 3,28
	mr 5,27
.LBE3278:
.LBE3282:
.LBE3286:
.LBE3290:
.LBE3294:
.LBE3298:
.LBE3302:
.LBE3306:
.LBE3310:
.LBE3314:
.LBE3400:
	.loc 10 434 0
	slwi 30,30,2
.LVL340:
.LBB3401:
.LBB3315:
.LBB3311:
.LBB3307:
.LBB3303:
.LBB3299:
.LBB3295:
.LBB3291:
.LBB3287:
.LBB3283:
.LBB3279:
	.loc 12 366 0
	bl memmove
.LVL341:
.LBE3279:
.LBE3283:
.LBE3287:
.LBE3291:
.LBE3295:
.LBE3299:
.LBE3303:
.LBE3307:
.LBE3311:
.LBE3315:
.LBE3401:
.LBB3402:
.LBB3385:
.LBB3379:
.LBB3373:
.LBB3367:
.LBB3361:
.LBB3355:
.LBB3349:
.LBB3343:
.LBB3337:
.LBB3331:
	.loc 12 364 0
	lwz 0,4(31)
.LBE3331:
.LBE3337:
.LBE3343:
.LBE3349:
.LBE3355:
.LBE3361:
.LBE3367:
.LBE3373:
.LBE3379:
.LBE3385:
.LBE3402:
.LBB3403:
.LBB3316:
.LBB3312:
.LBB3308:
.LBB3304:
.LBB3300:
.LBB3296:
.LBB3292:
.LBB3288:
.LBB3284:
.LBB3280:
	.loc 12 367 0
	add 27,28,27
.LVL342:
.LBE3280:
.LBE3284:
.LBE3288:
.LBE3292:
.LBE3296:
.LBE3300:
.LBE3304:
.LBE3308:
.LBE3312:
.LBE3316:
.LBE3403:
.LBB3404:
.LBB3386:
.LBB3380:
.LBB3374:
.LBB3368:
.LBB3362:
.LBB3356:
.LBB3350:
.LBB3344:
.LBB3338:
.LBB3332:
	.loc 12 364 0
	subf 0,29,0
.LBE3332:
.LBE3338:
.LBE3344:
.LBE3350:
.LBE3356:
.LBE3362:
.LBE3368:
.LBE3374:
.LBE3380:
.LBE3386:
.LBE3404:
	.loc 10 434 0
	add 30,27,30
.LVL343:
.LBB3405:
.LBB3387:
.LBB3381:
.LBB3375:
.LBB3369:
.LBB3363:
.LBB3357:
.LBB3351:
.LBB3345:
.LBB3339:
.LBB3333:
	.loc 12 365 0
	srawi. 0,0,2
.LVL344:
	li 27,0
	beq+ 0,.L238
.LVL345:
.L255:
	.loc 12 366 0
	slwi 27,0,2
	mr 3,30
	mr 4,29
	mr 5,27
	bl memmove
	b .L238
.LVL346:
.L229:
.LBE3333:
.LBE3339:
.LBE3345:
.LBE3351:
.LBE3357:
.LBE3363:
.LBE3369:
.LBE3375:
.LBE3381:
.LBE3387:
.LBE3405:
.LBE3409:
.LBB3410:
.LBB3201:
.LBB3193:
.LBB3191:
.LBB3189:
.LBB3187:
.LBB3185:
.LBB3183:
.LBB3181:
.LBB3179:
.LBB3177:
.LBB3175:
	slwi 30,0,2
	mr 4,29
	mr 5,30
.LVL347:
	bl memmove
.LVL348:
	lwz 3,4(31)
	b .L230
.LVL349:
.L250:
.LBE3175:
.LBE3177:
.LBE3179:
.LBE3181:
.LBE3183:
.LBE3185:
.LBE3187:
.LBE3189:
.LBE3191:
.LBE3193:
.LBE3201:
	.loc 10 390 0
	slwi 30,30,2
.LVL350:
.LBB3202:
.LBB3161:
.LBB3160:
.LBB3159:
.LBB3158:
.LBB3157:
.LBB3156:
.LBB3155:
.LBB3154:
.LBB3153:
.LBB3152:
	.loc 10 382 0
	mr 0,27
.LVL351:
	.loc 12 365 0
	srawi. 5,30,2
.LVL352:
	.loc 12 364 0
	subf 26,30,27
	.loc 12 365 0
	beq+ 0,.L224
	.loc 12 366 0
	mr 3,27
	mr 4,26
	slwi 5,5,2
	bl memmove
.LVL353:
	lwz 0,4(31)
.L224:
.LBE3152:
.LBE3153:
.LBE3154:
.LBE3155:
.LBE3156:
.LBE3157:
.LBE3158:
.LBE3159:
.LBE3160:
.LBE3161:
.LBE3202:
.LBB3203:
.LBB3204:
.LBB3205:
.LBB3206:
.LBB3207:
.LBB3208:
	.loc 12 559 0
	subf 26,29,26
.LBE3208:
.LBE3207:
.LBE3206:
.LBE3205:
.LBE3204:
.LBE3203:
	.loc 10 394 0
	add 0,0,30
.LBB3224:
.LBB3221:
.LBB3218:
.LBB3215:
.LBB3212:
.LBB3209:
	.loc 12 560 0
	srawi. 26,26,2
.LBE3209:
.LBE3212:
.LBE3215:
.LBE3218:
.LBE3221:
.LBE3224:
	.loc 10 394 0
	stw 0,4(31)
.LVL354:
.LBB3225:
.LBB3222:
.LBB3219:
.LBB3216:
.LBB3213:
.LBB3210:
	.loc 12 560 0
	bne- 0,.L256
.L225:
.LVL355:
.LBE3210:
.LBE3213:
.LBE3216:
.LBE3219:
.LBE3222:
.LBE3225:
	.loc 10 397 0
	add 30,29,30
.LVL356:
.LBB3226:
.LBB3227:
.LBB3228:
	.loc 12 686 0
	cmpw 7,30,29
	beq- 7,.L220
.LVL357:
.L226:
	.loc 12 687 0
	stw 28,0(29)
	addi 29,29,4
	.loc 12 686 0
	cmpw 7,30,29
	bne+ 7,.L226
	b .L220
.LVL358:
.L256:
.LBE3228:
.LBE3227:
.LBE3226:
.LBB3229:
.LBB3223:
.LBB3220:
.LBB3217:
.LBB3214:
.LBB3211:
	.loc 12 561 0
	slwi 5,26,2
	mr 4,29
	subf 3,5,27
	bl memmove
	b .L225
.LVL359:
.L251:
.LBE3211:
.LBE3214:
.LBE3217:
.LBE3220:
.LBE3223:
.LBE3229:
.LBE3410:
.LBB3411:
.LBB3406:
.LBB3238:
	.loc 8 1242 0
	lis 3,.LC4@ha
	la 3,.LC4@l(3)
	bl _ZSt20__throw_length_errorPKc
.LVL360:
.LVL361:
.LVL362:
.LBE3238:
.LBE3406:
.LBE3411:
.LBE3415:
.LBE3420:
	.cfi_endproc
.LFE1749:
	.size	_ZNSt6vectorIPwSaIS0_EE14_M_fill_insertEN9__gnu_cxx17__normal_iteratorIPS0_S2_EEjRKS0_, .-_ZNSt6vectorIPwSaIS0_EE14_M_fill_insertEN9__gnu_cxx17__normal_iteratorIPS0_S2_EEjRKS0_
	.section	".text"
	.align 2
	.globl _ZN11GuiLongText8FillRowsEv
	.type	_ZN11GuiLongText8FillRowsEv, @function
_ZN11GuiLongText8FillRowsEv:
.LFB1563:
	.loc 3 237 0
	.cfi_startproc
.LVL363:
	mflr 0
	stwu 1,-72(1)
.LCFI58:
	.cfi_def_cfa_offset 72
	.cfi_register 65, 0
	stw 31,68(1)
	mr 31,3
	.cfi_offset 31, -4
	stw 0,76(1)
	stw 22,32(1)
.LBB3472:
	.loc 3 238 0
	lwz 0,208(3)
	.cfi_offset 22, -40
	.cfi_offset 65, 4
.LBE3472:
	.loc 3 237 0
	stw 23,36(1)
.LBB3520:
	.loc 3 238 0
	cmpwi 7,0,0
.LBE3520:
	.loc 3 237 0
	stw 24,40(1)
	stw 25,44(1)
	stw 26,48(1)
	stw 27,52(1)
	stw 28,56(1)
	stw 29,60(1)
	stw 30,64(1)
.LBB3521:
	.loc 3 238 0
	beq- 7,.L257
	.cfi_offset 30, -8
	.cfi_offset 29, -12
	.cfi_offset 28, -16
	.cfi_offset 27, -20
	.cfi_offset 26, -24
	.cfi_offset 25, -28
	.cfi_offset 24, -32
	.cfi_offset 23, -36
	.loc 3 241 0
	li 0,1
	stb 0,232(3)
	.loc 3 243 0
	bl _ZN7GuiText16ClearDynamicTextEv
.LVL364:
.LBB3473:
	.loc 3 245 0
	lwz 0,200(31)
	cmpwi 7,0,0
	ble- 7,.L259
	.loc 3 359 0
	lwz 9,212(31)
.LBB3474:
.LBB3475:
	.loc 8 571 0
	lis 0,0xaaaa
	lwz 11,216(31)
	ori 0,0,43691
	subf 11,9,11
	srawi 11,11,2
	mullw 0,11,0
.LBE3475:
.LBE3474:
	.loc 3 245 0
	lwz 11,224(31)
	cmpw 7,11,0
	bge- 7,.L259
	lwz 24,148(31)
	li 30,0
	li 29,0
.LVL365:
.L260:
	.loc 3 359 0 discriminator 5
	lwz 10,152(31)
.LBB3478:
.LBB3479:
.LBB3480:
	.loc 8 571 0 discriminator 5
	subf 0,24,10
	srawi 0,0,2
.LBE3480:
.LBE3479:
	.loc 3 247 0 discriminator 5
	cmpw 7,0,29
	bgt- 7,.L272
.LBB3483:
.LBB3481:
	.loc 3 236 0
	addi 5,29,1
.LVL366:
	li 9,0
.LBE3481:
.LBE3483:
.LBB3484:
.LBB3485:
	.loc 8 631 0
	cmplw 7,0,5
.LBE3485:
.LBE3484:
.LBB3492:
.LBB3482:
	.loc 3 236 0
	stw 9,8(1)
.LBE3482:
.LBE3492:
.LBB3493:
.LBB3490:
	.loc 8 631 0
	blt- 7,.L277
	.loc 8 633 0
	ble- 7,.L262
.LVL367:
	.loc 8 634 0
	addi 0,30,4
	add 0,24,0
.LBB3486:
.LBB3487:
	.loc 8 1256 0
	stw 0,152(31)
.LVL368:
.L262:
.LBE3487:
.LBE3486:
.LBE3490:
.LBE3493:
	.loc 3 250 0
	lwz 3,180(31)
	slwi 3,3,2
	bl _Znaj
	lwz 11,224(31)
	stwx 3,24,30
	lwz 9,212(31)
	lwz 24,148(31)
.LVL369:
.L272:
	.loc 3 252 0
	add 0,29,11
.LBB3494:
.LBB3495:
	.loc 8 696 0
	mulli 0,0,12
	add 11,9,0
.LVL370:
.LBE3495:
.LBE3494:
	.loc 3 252 0
	lwzx 22,9,0
.LVL371:
	.loc 3 253 0
	lwz 23,4(11)
.LVL372:
	.loc 3 255 0
	cmpwi 7,23,0
	blt- 7,.L263
	lwz 27,208(31)
.LVL373:
.LBB3496:
.LBB3497:
.LBB3498:
.LBB3499:
.LBB3500:
	.loc 9 288 0
	lwz 9,0(27)
.LBE3500:
.LBE3499:
.LBE3498:
	.loc 9 711 0
	lwz 0,-12(9)
.LBE3497:
.LBE3496:
	.loc 3 255 0
	cmpw 7,22,0
	bge- 7,.L263
	lwzx 26,24,30
	.loc 3 236 0
	slwi 25,22,2
	.loc 3 255 0
	li 28,0
	mr 10,22
	b .L266
.LVL374:
.L268:
	.loc 3 255 0 is_stmt 0 discriminator 2
	lwz 27,208(31)
.LVL375:
	.loc 3 236 0 is_stmt 1 discriminator 2
	add 10,28,22
.LBB3505:
.LBB3504:
	.loc 9 711 0 discriminator 2
	addi 25,25,4
.LBB3503:
.LBB3502:
.LBB3501:
	.loc 9 288 0 discriminator 2
	lwz 9,0(27)
.LBE3501:
.LBE3502:
.LBE3503:
	.loc 9 711 0 discriminator 2
	lwz 0,-12(9)
.LBE3504:
.LBE3505:
	.loc 3 255 0 discriminator 2
	cmpw 7,10,0
	bge- 7,.L276
	.loc 3 255 0 is_stmt 0
	mr 26,11
.LVL376:
.L266:
.LBB3506:
.LBB3507:
	.loc 9 911 0 is_stmt 1 discriminator 5
	cmplw 7,10,0
	bge- 7,.L278
.LVL377:
.LBB3508:
.LBB3509:
	.loc 9 311 0
	lwz 0,-4(9)
	mr 11,26
	cmpwi 7,0,0
	blt- 7,.L267
	.loc 9 312 0
	mr 3,27
	bl _ZNSbIwSt11char_traitsIwESaIwEE12_M_leak_hardEv
	lwz 24,148(31)
	lwz 9,0(27)
	lwzx 11,24,30
.LVL378:
.L267:
.LBE3509:
.LBE3508:
.LBE3507:
.LBE3506:
	.loc 3 256 0
	slwi 0,28,2
	.loc 3 255 0
	addi 28,28,1
.LVL379:
	cmpw 7,23,28
	.loc 3 256 0
	lwzx 9,9,25
	stwx 9,26,0
	.loc 3 255 0
	bge- 7,.L268
.LVL380:
.L276:
	slwi 28,28,2
.LVL381:
.L265:
.LBE3478:
	.loc 3 245 0
	lwz 0,200(31)
	addi 29,29,1
.LVL382:
	cmpw 7,0,29
.LBB3515:
	.loc 3 258 0
	li 0,0
	stwx 0,11,28
.LBE3515:
	.loc 3 245 0
	ble- 7,.L259
	.loc 3 359 0 discriminator 2
	lwz 9,212(31)
.LBB3516:
.LBB3476:
	.loc 8 571 0 discriminator 2
	lis 0,0xaaaa
	lwz 11,216(31)
	ori 0,0,43691
.LBE3476:
.LBE3516:
	.loc 3 359 0 discriminator 2
	addi 30,30,4
.LBB3517:
.LBB3477:
	.loc 8 571 0 discriminator 2
	subf 11,9,11
	srawi 11,11,2
	mullw 0,11,0
.LBE3477:
.LBE3517:
	.loc 3 245 0 discriminator 2
	lwz 11,224(31)
	add 10,11,29
	cmpw 7,10,0
	blt- 7,.L260
.LVL383:
.L259:
.LBE3473:
	.loc 3 261 0
	li 0,0
	stb 0,232(31)
.L257:
.LBE3521:
	.loc 3 264 0
	lwz 0,76(1)
	lwz 22,32(1)
	mtlr 0
	lwz 23,36(1)
	lwz 24,40(1)
	lwz 25,44(1)
	lwz 26,48(1)
	lwz 27,52(1)
	lwz 28,56(1)
	lwz 29,60(1)
	lwz 30,64(1)
	lwz 31,68(1)
.LVL384:
	addi 1,1,72
	.cfi_remember_state
.LCFI59:
	.cfi_def_cfa_offset 0
	.cfi_restore 31
	.cfi_restore 30
	.cfi_restore 29
	.cfi_restore 28
	.cfi_restore 27
	.cfi_restore 26
	.cfi_restore 25
	.cfi_restore 24
	.cfi_restore 23
	.cfi_restore 22
	blr
.LVL385:
.L263:
.LCFI60:
	.cfi_restore_state
.LBB3522:
.LBB3519:
.LBB3518:
.LBB3512:
.LBB3510:
	.loc 9 911 0
	lwzx 11,24,30
.LBE3510:
.LBE3512:
	.loc 3 255 0
	li 28,0
	b .L265
.LVL386:
.L277:
.LBB3513:
.LBB3491:
.LBB3488:
.LBB3489:
	.loc 8 944 0
	mr 4,1
	addi 3,31,148
	stwu 10,24(4)
	subf 5,0,5
.LVL387:
	addi 6,1,8
	bl _ZNSt6vectorIPwSaIS0_EE14_M_fill_insertEN9__gnu_cxx17__normal_iteratorIPS0_S2_EEjRKS0_
.LVL388:
	lwz 24,148(31)
	b .L262
.LVL389:
.L278:
.LBE3489:
.LBE3488:
.LBE3491:
.LBE3513:
.LBB3514:
.LBB3511:
	.loc 9 912 0
	lis 3,.LC5@ha
	la 3,.LC5@l(3)
	bl _ZSt20__throw_out_of_rangePKc
.LBE3511:
.LBE3514:
.LBE3518:
.LBE3519:
.LBE3522:
	.cfi_endproc
.LFE1563:
	.size	_ZN11GuiLongText8FillRowsEv, .-_ZN11GuiLongText8FillRowsEv
	.align 2
	.globl _ZN11GuiLongText12PreviousLineEv
	.type	_ZN11GuiLongText12PreviousLineEv, @function
_ZN11GuiLongText12PreviousLineEv:
.LFB1562:
	.loc 3 227 0
	.cfi_startproc
.LVL390:
	.loc 3 228 0
	lwz 0,208(3)
	cmpwi 7,0,0
	beqlr- 7
	.loc 3 228 0 is_stmt 0 discriminator 1
	lwz 11,224(3)
	cmpwi 7,11,0
	blelr- 7
.LVL391:
.LBB3525:
.LBB3526:
	.loc 3 231 0 is_stmt 1
	addi 11,11,-1
.LBE3526:
.LBE3525:
	.loc 3 234 0
.LBB3528:
.LBB3527:
	.loc 3 231 0
	stw 11,224(3)
	.loc 3 233 0
	b _ZN11GuiLongText8FillRowsEv
.LVL392:
.LVL393:
.LBE3527:
.LBE3528:
	.cfi_endproc
.LFE1562:
	.size	_ZN11GuiLongText12PreviousLineEv, .-_ZN11GuiLongText12PreviousLineEv
	.align 2
	.globl _ZN11GuiLongText8NextLineEv
	.type	_ZN11GuiLongText8NextLineEv, @function
_ZN11GuiLongText8NextLineEv:
.LFB1561:
	.loc 3 217 0
	.cfi_startproc
.LVL394:
	.loc 3 218 0
	lwz 0,208(3)
	cmpwi 7,0,0
	beqlr- 7
.LBB3529:
.LBB3530:
	.loc 8 571 0 discriminator 2
	lwz 0,212(3)
	lwz 11,216(3)
.LBE3530:
.LBE3529:
	.loc 3 218 0 discriminator 2
	lwz 10,200(3)
.LBB3532:
.LBB3531:
	.loc 8 571 0 discriminator 2
	subf 11,0,11
	lis 0,0xaaaa
	srawi 11,11,2
	ori 0,0,43691
	mullw 0,11,0
.LBE3531:
.LBE3532:
	.loc 3 218 0 discriminator 2
	lwz 11,224(3)
	subf 0,10,0
	cmpw 7,11,0
	bgelr- 7
	.loc 3 221 0
	addi 11,11,1
	.loc 3 224 0
	.loc 3 221 0
	stw 11,224(3)
	.loc 3 223 0
	b _ZN11GuiLongText8FillRowsEv
.LVL395:
	.cfi_endproc
.LFE1561:
	.size	_ZN11GuiLongText8NextLineEv, .-_ZN11GuiLongText8NextLineEv
	.align 2
	.globl _ZN11GuiLongText7RefreshEv
	.type	_ZN11GuiLongText7RefreshEv, @function
_ZN11GuiLongText7RefreshEv:
.LFB1560:
	.loc 3 211 0
	.cfi_startproc
.LVL396:
	mflr 0
	stwu 1,-16(1)
.LCFI61:
	.cfi_def_cfa_offset 16
	.cfi_register 65, 0
	stw 31,12(1)
	mr 31,3
	.cfi_offset 31, -4
	stw 0,20(1)
	.loc 3 212 0
	.cfi_offset 65, 4
	bl _ZN11GuiLongText15CalcLineOffsetsEv
.LVL397:
	.loc 3 214 0
	lwz 0,20(1)
	.loc 3 213 0
	mr 3,31
	.loc 3 214 0
	lwz 31,12(1)
.LVL398:
	mtlr 0
	addi 1,1,16
.LCFI62:
	.cfi_def_cfa_offset 0
	.cfi_restore 31
	.loc 3 213 0
	b _ZN11GuiLongText8FillRowsEv
.LVL399:
	.cfi_endproc
.LFE1560:
	.size	_ZN11GuiLongText7RefreshEv, .-_ZN11GuiLongText7RefreshEv
	.align 2
	.globl _ZN11GuiLongText11SetMaxWidthEi
	.type	_ZN11GuiLongText11SetMaxWidthEi, @function
_ZN11GuiLongText11SetMaxWidthEi:
.LFB1555:
	.loc 3 139 0
	.cfi_startproc
.LVL400:
	mflr 0
	stwu 1,-16(1)
.LCFI63:
	.cfi_def_cfa_offset 16
	.cfi_register 65, 0
	stw 31,12(1)
	mr 31,3
	.cfi_offset 31, -4
	stw 0,20(1)
	.loc 3 141 0
	li 0,0
	.cfi_offset 65, 4
	stw 0,224(3)
.LVL401:
	.loc 3 140 0
	stw 4,180(3)
.LBB3535:
.LBB3536:
	.loc 3 212 0
	bl _ZN11GuiLongText15CalcLineOffsetsEv
.LVL402:
.LBE3536:
.LBE3535:
	.loc 3 143 0
	lwz 0,20(1)
.LBB3539:
.LBB3537:
	.loc 3 213 0
	mr 3,31
.LBE3537:
.LBE3539:
	.loc 3 143 0
	lwz 31,12(1)
.LVL403:
	mtlr 0
	addi 1,1,16
.LCFI64:
	.cfi_def_cfa_offset 0
	.cfi_restore 31
.LBB3540:
.LBB3538:
	.loc 3 213 0
	b _ZN11GuiLongText8FillRowsEv
.LVL404:
.LVL405:
.LBE3538:
.LBE3540:
	.cfi_endproc
.LFE1555:
	.size	_ZN11GuiLongText11SetMaxWidthEi, .-_ZN11GuiLongText11SetMaxWidthEi
	.align 2
	.globl _ZN11GuiLongTextC2EPKwi9_gx_color
	.type	_ZN11GuiLongTextC2EPKwi9_gx_color, @function
_ZN11GuiLongTextC2EPKwi9_gx_color:
.LFB1544:
	.loc 3 55 0
	.cfi_startproc
	.cfi_personality 0,__gxx_personality_v0
	.cfi_lsda 0,.LLSDA1544
.LVL406:
	mflr 0
	stwu 1,-32(1)
.LCFI65:
	.cfi_def_cfa_offset 32
	.cfi_register 65, 0
	stw 28,16(1)
	mr 28,4
	.cfi_offset 28, -16
	stw 31,28(1)
.LBB3640:
	.loc 3 56 0
	li 4,0
.LVL407:
.LBE3640:
	.loc 3 55 0
	stw 0,36(1)
	mr 31,3
	.cfi_offset 65, 4
	.cfi_offset 31, -4
	stw 29,20(1)
	stw 30,24(1)
	.loc 3 55 0
	lwz 0,0(6)
.LBB3720:
	.loc 3 56 0
	mr 6,1
	stwu 0,8(6)
.LEHB13:
	.cfi_offset 30, -8
	.cfi_offset 29, -12
	bl _ZN7GuiTextC2EPKwi9_gx_color
.LEHE13:
.LVL408:
	lis 9,_ZTV11GuiLongText+8@ha
	.loc 3 64 0
	cmpwi 7,28,0
	.loc 3 56 0
	la 9,_ZTV11GuiLongText+8@l(9)
	stw 9,0(31)
.LVL409:
	.loc 3 58 0
	li 9,400
.LBB3641:
.LBB3642:
.LBB3643:
.LBB3644:
	.loc 8 83 0
	li 0,0
.LBE3644:
.LBE3643:
.LBE3642:
.LBE3641:
	.loc 3 58 0
	stw 9,180(31)
	.loc 3 59 0
	li 9,9
.LBB3648:
.LBB3647:
.LBB3646:
.LBB3645:
	.loc 8 83 0
	stw 0,212(31)
	stw 0,216(31)
	stw 0,220(31)
.LBE3645:
.LBE3646:
.LBE3647:
.LBE3648:
	.loc 3 59 0
	stw 9,200(31)
	.loc 3 60 0
	stw 0,224(31)
	.loc 3 61 0
	stw 0,228(31)
	.loc 3 62 0
	stw 0,208(31)
	.loc 3 64 0
	beq- 7,.L286
	.loc 3 67 0
	lis 29,_ZSt7nothrow@ha
	li 3,4
	la 29,_ZSt7nothrow@l(29)
	mr 4,29
	bl _ZnwjRKSt9nothrow_t
	mr. 30,3
	beq- 0,.L288
	.loc 3 67 0 is_stmt 0 discriminator 1
	mr 4,28
.LEHB14:
	bl _ZN7wStringC1EPKw
.LEHE14:
.LBB3649:
.LBB3650:
.LBB3651:
.LBB3652:
.LBB3653:
	.loc 9 288 0 is_stmt 1 discriminator 3
	lwz 9,0(30)
.LBE3653:
.LBE3652:
.LBE3651:
.LBE3650:
.LBE3649:
	.loc 3 67 0 discriminator 3
	stw 30,208(31)
.LVL410:
	.loc 3 74 0 discriminator 3
	lwz 0,-12(9)
.LBB3658:
.LBB3657:
.LBB3656:
.LBB3655:
.LBB3654:
	.loc 9 288 0 discriminator 3
	mr 4,9
.LBE3654:
.LBE3655:
.LBE3656:
.LBE3657:
.LBE3658:
	.loc 3 74 0 discriminator 3
	cmpwi 7,0,0
	beq- 7,.L307
.LVL411:
.L289:
	.loc 3 80 0
	lwz 3,188(31)
	cmpwi 7,3,0
	beq- 7,.L308
.L295:
	.loc 3 80 0 is_stmt 0 discriminator 3
	lha 5,198(31)
.LEHB15:
	bl _ZN10FreeTypeGX8getWidthEPKws
.LBB3659:
.LBB3660:
	.loc 3 141 0 is_stmt 1 discriminator 3
	li 0,0
.LBE3660:
.LBE3659:
	.loc 3 80 0 discriminator 3
	stw 3,192(31)
.LVL412:
.LBB3664:
.LBB3663:
	.loc 3 141 0 discriminator 3
	stw 0,224(31)
.LVL413:
.LBB3661:
.LBB3662:
	.loc 3 212 0 discriminator 3
	mr 3,31
	bl _ZN11GuiLongText15CalcLineOffsetsEv
.LVL414:
	.loc 3 213 0
	mr 3,31
	bl _ZN11GuiLongText8FillRowsEv
.LVL415:
.L286:
.LBE3662:
.LBE3661:
.LBE3663:
.LBE3664:
.LBE3720:
	.loc 3 83 0
	lwz 0,36(1)
	lwz 28,16(1)
	mtlr 0
	lwz 29,20(1)
	lwz 30,24(1)
	lwz 31,28(1)
.LVL416:
	addi 1,1,32
	.cfi_remember_state
.LCFI66:
	.cfi_def_cfa_offset 0
	.cfi_restore 31
	.cfi_restore 30
	.cfi_restore 29
	.cfi_restore 28
	blr
.LVL417:
.L307:
.LCFI67:
	.cfi_restore_state
.LBB3721:
.LBB3665:
.LBB3666:
	.loc 9 1046 0
	lwz 0,-8(9)
	cmpwi 7,0,0
	beq- 7,.L290
.LVL418:
	lwz 0,-4(9)
	cmpwi 7,0,0
	ble- 7,.L303
.LVL419:
.L290:
	.loc 9 1047 0
	mr 3,30
	li 4,1
	bl _ZNSbIwSt11char_traitsIwESaIwEE7reserveEj
	lwz 29,208(31)
	lwz 9,0(30)
.L291:
.LVL420:
.LBB3667:
.LBB3668:
	.loc 9 205 0
	lis 30,_ZNSbIwSt11char_traitsIwESaIwEE4_Rep20_S_empty_rep_storageE@ha
.LVL421:
.LBE3668:
.LBE3667:
	.loc 9 1049 0
	addi 0,9,-12
.LBB3679:
.LBB3675:
	.loc 9 205 0
	la 30,_ZNSbIwSt11char_traitsIwESaIwEE4_Rep20_S_empty_rep_storageE@l(30)
.LBE3675:
.LBE3679:
.LBB3680:
.LBB3681:
	.loc 15 316 0
	li 11,32
.LBE3681:
.LBE3680:
.LBB3683:
.LBB3676:
	.loc 9 205 0
	cmpw 7,0,30
.LBE3676:
.LBE3683:
	.loc 9 1048 0
	lwz 0,-12(9)
.LBB3684:
.LBB3682:
	.loc 15 316 0
	slwi 0,0,2
	stwx 11,9,0
.LVL422:
.LBE3682:
.LBE3684:
.LBB3685:
.LBB3677:
	.loc 9 205 0
	bne- 7,.L309
.L292:
.LVL423:
.LBE3677:
.LBE3685:
.LBE3666:
.LBE3665:
.LBB3688:
.LBB3689:
.LBB3690:
.LBB3691:
.LBB3692:
.LBB3693:
.LBB3694:
	.loc 9 288 0
	lwz 9,0(29)
.LVL424:
.LBE3694:
.LBE3693:
.LBE3692:
	.loc 9 711 0
	lwz 11,-12(9)
.LBE3691:
.LBE3690:
	.loc 9 1046 0
	lwz 0,-8(9)
	.loc 9 1045 0
	addi 28,11,1
.LVL425:
	.loc 9 1046 0
	cmplw 7,28,0
	bgt- 7,.L293
.LVL426:
	lwz 0,-4(9)
	cmpwi 7,0,0
	ble- 7,.L304
.LVL427:
.L293:
	.loc 9 1047 0
	mr 3,29
	mr 4,28
	bl _ZNSbIwSt11char_traitsIwESaIwEE7reserveEj
.LEHE15:
	lwz 9,0(29)
	lwz 10,208(31)
	lwz 11,-12(9)
	lwz 4,0(10)
.L294:
.LVL428:
	.loc 9 1049 0
	addi 0,9,-12
.LBB3695:
.LBB3696:
	.loc 15 316 0
	slwi 11,11,2
.LVL429:
.LBE3696:
.LBE3695:
.LBB3698:
.LBB3699:
	.loc 9 205 0
	cmpw 7,0,30
.LBE3699:
.LBE3698:
.LBB3707:
.LBB3697:
	.loc 15 316 0
	li 0,0
	stwx 0,9,11
.LVL430:
.LBE3697:
.LBE3707:
.LBB3708:
.LBB3706:
	.loc 9 205 0
	beq+ 7,.L289
.LBB3700:
.LBB3701:
	.loc 15 316 0
	slwi 11,28,2
.LBE3701:
.LBE3700:
.LBB3703:
.LBB3704:
	.loc 9 199 0
	stw 0,-4(9)
.LBE3704:
.LBE3703:
	.loc 9 209 0
	stw 28,-12(9)
.LVL431:
.LBB3705:
.LBB3702:
	.loc 15 316 0
	stwx 0,9,11
	b .L289
.LVL432:
.L288:
.LBE3702:
.LBE3705:
.LBE3706:
.LBE3708:
.LBE3689:
.LBE3688:
.LBE3721:
	.loc 3 83 0
	lwz 0,36(1)
.LBB3722:
	.loc 3 67 0
	stw 30,208(31)
.LBE3722:
	.loc 3 83 0
	mtlr 0
	lwz 28,16(1)
.LVL433:
	lwz 29,20(1)
	lwz 30,24(1)
	lwz 31,28(1)
.LVL434:
	addi 1,1,32
	.cfi_remember_state
	.cfi_restore 28
	.cfi_restore 29
	.cfi_restore 30
	.cfi_restore 31
.LCFI68:
	.cfi_def_cfa_offset 0
	blr
.LVL435:
.L308:
.LCFI69:
	.cfi_restore_state
.LBB3723:
	.loc 3 80 0 discriminator 2
	lis 9,fontSystem@ha
	lwz 3,fontSystem@l(9)
	b .L295
.LVL436:
.L304:
.LBB3710:
.LBB3709:
	.loc 9 1046 0
	mr 4,9
	b .L294
.LVL437:
.L303:
.LBE3709:
.LBE3710:
.LBB3711:
.LBB3687:
	mr 29,30
	b .L291
.LVL438:
.L309:
.LBB3686:
.LBB3678:
.LBB3669:
.LBB3670:
	.loc 9 199 0
	li 0,0
.LBE3670:
.LBE3669:
	.loc 9 209 0
	li 11,1
.LBB3672:
.LBB3671:
	.loc 9 199 0
	stw 0,-4(9)
.LBE3671:
.LBE3672:
	.loc 9 209 0
	stw 11,-12(9)
.LVL439:
.LBB3673:
.LBB3674:
	.loc 15 316 0
	stw 0,4(9)
	b .L292
.LVL440:
.L305:
	mr 28,3
.LVL441:
.LBE3674:
.LBE3673:
.LBE3678:
.LBE3686:
.LBE3687:
.LBE3711:
	.loc 3 67 0
	mr 4,29
	mr 3,30
	bl _ZdlPvRKSt9nothrow_t
.L297:
.LVL442:
.LBB3712:
	.loc 3 359 0
	lwz 3,212(31)
.LVL443:
.LBB3713:
.LBB3714:
.LBB3715:
.LBB3716:
.LBB3717:
	.loc 8 155 0
	cmpwi 7,3,0
	beq- 7,.L302
.LVL444:
.LBB3718:
.LBB3719:
	.loc 11 98 0
	bl _ZdlPv
.LVL445:
.L302:
.LBE3719:
.LBE3718:
.LBE3717:
.LBE3716:
.LBE3715:
.LBE3714:
.LBE3713:
.LBE3712:
	.loc 3 56 0
	mr 3,31
	bl _ZN7GuiTextD2Ev
	mr 3,28
.LEHB16:
	bl _Unwind_Resume
.LEHE16:
.LVL446:
.L306:
	mr 28,3
	b .L297
.LBE3723:
	.cfi_endproc
.LFE1544:
	.section	.gcc_except_table
.LLSDA1544:
	.byte	0xff
	.byte	0xff
	.byte	0x1
	.uleb128 .LLSDACSE1544-.LLSDACSB1544
.LLSDACSB1544:
	.uleb128 .LEHB13-.LFB1544
	.uleb128 .LEHE13-.LEHB13
	.uleb128 0
	.uleb128 0
	.uleb128 .LEHB14-.LFB1544
	.uleb128 .LEHE14-.LEHB14
	.uleb128 .L305-.LFB1544
	.uleb128 0
	.uleb128 .LEHB15-.LFB1544
	.uleb128 .LEHE15-.LEHB15
	.uleb128 .L306-.LFB1544
	.uleb128 0
	.uleb128 .LEHB16-.LFB1544
	.uleb128 .LEHE16-.LEHB16
	.uleb128 0
	.uleb128 0
.LLSDACSE1544:
	.section	".text"
	.size	_ZN11GuiLongTextC2EPKwi9_gx_color, .-_ZN11GuiLongTextC2EPKwi9_gx_color
	.align 2
	.globl _ZN11GuiLongTextC2EPKci9_gx_color
	.type	_ZN11GuiLongTextC2EPKci9_gx_color, @function
_ZN11GuiLongTextC2EPKci9_gx_color:
.LFB1541:
	.loc 3 23 0
	.cfi_startproc
	.cfi_personality 0,__gxx_personality_v0
	.cfi_lsda 0,.LLSDA1541
.LVL447:
	mflr 0
	stwu 1,-32(1)
.LCFI70:
	.cfi_def_cfa_offset 32
	.cfi_register 65, 0
	stw 31,28(1)
	mr 31,3
	.cfi_offset 31, -4
	stw 0,36(1)
	stw 28,16(1)
	stw 29,20(1)
	stw 30,24(1)
	.loc 3 23 0
	lwz 0,0(6)
	.cfi_offset 30, -8
	.cfi_offset 29, -12
	.cfi_offset 28, -16
	.cfi_offset 65, 4
.LBB3823:
	.loc 3 24 0
	mr 6,1
	stwu 0,8(6)
.LEHB17:
	bl _ZN7GuiTextC2EPKci9_gx_color
.LEHE17:
.LVL448:
	.loc 3 32 0
	lwz 0,144(31)
	.loc 3 24 0
	lis 9,_ZTV11GuiLongText+8@ha
	.loc 3 32 0
	cmpwi 7,0,0
	.loc 3 24 0
	la 9,_ZTV11GuiLongText+8@l(9)
	stw 9,0(31)
.LVL449:
	.loc 3 26 0
	li 9,400
.LBB3824:
.LBB3825:
.LBB3826:
.LBB3827:
	.loc 8 83 0
	li 0,0
.LBE3827:
.LBE3826:
.LBE3825:
.LBE3824:
	.loc 3 26 0
	stw 9,180(31)
	.loc 3 27 0
	li 9,9
.LBB3831:
.LBB3830:
.LBB3829:
.LBB3828:
	.loc 8 83 0
	stw 0,212(31)
	stw 0,216(31)
	stw 0,220(31)
.LBE3828:
.LBE3829:
.LBE3830:
.LBE3831:
	.loc 3 27 0
	stw 9,200(31)
	.loc 3 28 0
	stw 0,224(31)
	.loc 3 29 0
	stw 0,228(31)
	.loc 3 30 0
	stw 0,208(31)
	.loc 3 32 0
	beq- 7,.L310
	.loc 3 35 0
	lis 29,_ZSt7nothrow@ha
	li 3,4
	la 29,_ZSt7nothrow@l(29)
	mr 4,29
	bl _ZnwjRKSt9nothrow_t
	mr. 30,3
	beq- 0,.L312
	.loc 3 35 0 is_stmt 0 discriminator 1
	lwz 4,144(31)
.LEHB18:
	bl _ZN7wStringC1EPKw
.LEHE18:
.LBB3832:
.LBB3833:
.LBB3834:
.LBB3835:
.LBB3836:
	.loc 9 288 0 is_stmt 1 discriminator 3
	lwz 9,0(30)
.LBE3836:
.LBE3835:
.LBE3834:
.LBE3833:
.LBE3832:
	.loc 3 35 0 discriminator 3
	stw 30,208(31)
.LVL450:
	.loc 3 42 0 discriminator 3
	lwz 0,-12(9)
.LBB3841:
.LBB3840:
.LBB3839:
.LBB3838:
.LBB3837:
	.loc 9 288 0 discriminator 3
	mr 4,9
.LBE3837:
.LBE3838:
.LBE3839:
.LBE3840:
.LBE3841:
	.loc 3 42 0 discriminator 3
	cmpwi 7,0,0
	beq- 7,.L332
.LVL451:
.L313:
	.loc 3 48 0
	lwz 3,188(31)
	cmpwi 7,3,0
	beq- 7,.L333
.L319:
	.loc 3 48 0 is_stmt 0 discriminator 3
	lha 5,198(31)
.LEHB19:
	bl _ZN10FreeTypeGX8getWidthEPKws
	.loc 3 49 0 is_stmt 1 discriminator 3
	lwz 0,144(31)
	.loc 3 48 0 discriminator 3
	stw 3,192(31)
	.loc 3 49 0 discriminator 3
	cmpwi 7,0,0
	beq- 7,.L320
	.loc 3 49 0 is_stmt 0 discriminator 1
	mr 3,0
	bl _ZdaPv
.L320:
	.loc 3 50 0 is_stmt 1
	li 0,0
.LBB3842:
.LBB3843:
.LBB3844:
.LBB3845:
	.loc 3 212 0
	mr 3,31
.LBE3845:
.LBE3844:
.LBE3843:
.LBE3842:
	.loc 3 50 0
	stw 0,144(31)
.LVL452:
.LBB3849:
.LBB3848:
	.loc 3 141 0
	stw 0,224(31)
.LVL453:
.LBB3847:
.LBB3846:
	.loc 3 212 0
	bl _ZN11GuiLongText15CalcLineOffsetsEv
.LVL454:
	.loc 3 213 0
	mr 3,31
	bl _ZN11GuiLongText8FillRowsEv
.LVL455:
.L310:
.LBE3846:
.LBE3847:
.LBE3848:
.LBE3849:
.LBE3823:
	.loc 3 53 0
	lwz 0,36(1)
	lwz 28,16(1)
	mtlr 0
	lwz 29,20(1)
	lwz 30,24(1)
	lwz 31,28(1)
.LVL456:
	addi 1,1,32
	.cfi_remember_state
.LCFI71:
	.cfi_def_cfa_offset 0
	.cfi_restore 31
	.cfi_restore 30
	.cfi_restore 29
	.cfi_restore 28
	blr
.LVL457:
.L332:
.LCFI72:
	.cfi_restore_state
.LBB3905:
.LBB3850:
.LBB3851:
	.loc 9 1046 0
	lwz 0,-8(9)
	cmpwi 7,0,0
	beq- 7,.L314
.LVL458:
	lwz 0,-4(9)
	cmpwi 7,0,0
	ble- 7,.L328
.LVL459:
.L314:
	.loc 9 1047 0
	mr 3,30
	li 4,1
	bl _ZNSbIwSt11char_traitsIwESaIwEE7reserveEj
	lwz 29,208(31)
	lwz 9,0(30)
.L315:
.LVL460:
.LBB3852:
.LBB3853:
	.loc 9 205 0
	lis 30,_ZNSbIwSt11char_traitsIwESaIwEE4_Rep20_S_empty_rep_storageE@ha
.LVL461:
.LBE3853:
.LBE3852:
	.loc 9 1049 0
	addi 0,9,-12
.LBB3864:
.LBB3860:
	.loc 9 205 0
	la 30,_ZNSbIwSt11char_traitsIwESaIwEE4_Rep20_S_empty_rep_storageE@l(30)
.LBE3860:
.LBE3864:
.LBB3865:
.LBB3866:
	.loc 15 316 0
	li 11,32
.LBE3866:
.LBE3865:
.LBB3868:
.LBB3861:
	.loc 9 205 0
	cmpw 7,0,30
.LBE3861:
.LBE3868:
	.loc 9 1048 0
	lwz 0,-12(9)
.LBB3869:
.LBB3867:
	.loc 15 316 0
	slwi 0,0,2
	stwx 11,9,0
.LVL462:
.LBE3867:
.LBE3869:
.LBB3870:
.LBB3862:
	.loc 9 205 0
	bne- 7,.L334
.L316:
.LVL463:
.LBE3862:
.LBE3870:
.LBE3851:
.LBE3850:
.LBB3873:
.LBB3874:
.LBB3875:
.LBB3876:
.LBB3877:
.LBB3878:
.LBB3879:
	.loc 9 288 0
	lwz 9,0(29)
.LVL464:
.LBE3879:
.LBE3878:
.LBE3877:
	.loc 9 711 0
	lwz 11,-12(9)
.LBE3876:
.LBE3875:
	.loc 9 1046 0
	lwz 0,-8(9)
	.loc 9 1045 0
	addi 28,11,1
.LVL465:
	.loc 9 1046 0
	cmplw 7,28,0
	bgt- 7,.L317
.LVL466:
	lwz 0,-4(9)
	cmpwi 7,0,0
	ble- 7,.L329
.LVL467:
.L317:
	.loc 9 1047 0
	mr 3,29
	mr 4,28
	bl _ZNSbIwSt11char_traitsIwESaIwEE7reserveEj
.LEHE19:
	lwz 9,0(29)
	lwz 10,208(31)
	lwz 11,-12(9)
	lwz 4,0(10)
.L318:
.LVL468:
	.loc 9 1049 0
	addi 0,9,-12
.LBB3880:
.LBB3881:
	.loc 15 316 0
	slwi 11,11,2
.LVL469:
.LBE3881:
.LBE3880:
.LBB3883:
.LBB3884:
	.loc 9 205 0
	cmpw 7,0,30
.LBE3884:
.LBE3883:
.LBB3892:
.LBB3882:
	.loc 15 316 0
	li 0,0
	stwx 0,9,11
.LVL470:
.LBE3882:
.LBE3892:
.LBB3893:
.LBB3891:
	.loc 9 205 0
	beq+ 7,.L313
.LBB3885:
.LBB3886:
	.loc 15 316 0
	slwi 11,28,2
.LBE3886:
.LBE3885:
.LBB3888:
.LBB3889:
	.loc 9 199 0
	stw 0,-4(9)
.LBE3889:
.LBE3888:
	.loc 9 209 0
	stw 28,-12(9)
.LVL471:
.LBB3890:
.LBB3887:
	.loc 15 316 0
	stwx 0,9,11
	b .L313
.LVL472:
.L312:
.LBE3887:
.LBE3890:
.LBE3891:
.LBE3893:
.LBE3874:
.LBE3873:
.LBE3905:
	.loc 3 53 0
	lwz 0,36(1)
.LBB3906:
	.loc 3 35 0
	stw 30,208(31)
.LBE3906:
	.loc 3 53 0
	mtlr 0
	lwz 28,16(1)
	lwz 29,20(1)
	lwz 30,24(1)
	lwz 31,28(1)
.LVL473:
	addi 1,1,32
	.cfi_remember_state
	.cfi_restore 28
	.cfi_restore 29
	.cfi_restore 30
	.cfi_restore 31
.LCFI73:
	.cfi_def_cfa_offset 0
	blr
.LVL474:
.L333:
.LCFI74:
	.cfi_restore_state
.LBB3907:
	.loc 3 48 0 discriminator 2
	lis 9,fontSystem@ha
	lwz 3,fontSystem@l(9)
	b .L319
.LVL475:
.L329:
.LBB3895:
.LBB3894:
	.loc 9 1046 0
	mr 4,9
	b .L318
.LVL476:
.L328:
.LBE3894:
.LBE3895:
.LBB3896:
.LBB3872:
	mr 29,30
	b .L315
.LVL477:
.L334:
.LBB3871:
.LBB3863:
.LBB3854:
.LBB3855:
	.loc 9 199 0
	li 0,0
.LBE3855:
.LBE3854:
	.loc 9 209 0
	li 11,1
.LBB3857:
.LBB3856:
	.loc 9 199 0
	stw 0,-4(9)
.LBE3856:
.LBE3857:
	.loc 9 209 0
	stw 11,-12(9)
.LVL478:
.LBB3858:
.LBB3859:
	.loc 15 316 0
	stw 0,4(9)
	b .L316
.LVL479:
.L330:
	mr 28,3
.LBE3859:
.LBE3858:
.LBE3863:
.LBE3871:
.LBE3872:
.LBE3896:
	.loc 3 35 0
	mr 4,29
	mr 3,30
	bl _ZdlPvRKSt9nothrow_t
.L322:
.LVL480:
.LBB3897:
	.loc 3 359 0
	lwz 3,212(31)
.LVL481:
.LBB3898:
.LBB3899:
.LBB3900:
.LBB3901:
.LBB3902:
	.loc 8 155 0
	cmpwi 7,3,0
	beq- 7,.L327
.LVL482:
.LBB3903:
.LBB3904:
	.loc 11 98 0
	bl _ZdlPv
.LVL483:
.L327:
.LBE3904:
.LBE3903:
.LBE3902:
.LBE3901:
.LBE3900:
.LBE3899:
.LBE3898:
.LBE3897:
	.loc 3 24 0
	mr 3,31
	bl _ZN7GuiTextD2Ev
	mr 3,28
.LEHB20:
	bl _Unwind_Resume
.LEHE20:
.LVL484:
.L331:
	mr 28,3
	b .L322
.LBE3907:
	.cfi_endproc
.LFE1541:
	.section	.gcc_except_table
.LLSDA1541:
	.byte	0xff
	.byte	0xff
	.byte	0x1
	.uleb128 .LLSDACSE1541-.LLSDACSB1541
.LLSDACSB1541:
	.uleb128 .LEHB17-.LFB1541
	.uleb128 .LEHE17-.LEHB17
	.uleb128 0
	.uleb128 0
	.uleb128 .LEHB18-.LFB1541
	.uleb128 .LEHE18-.LEHB18
	.uleb128 .L330-.LFB1541
	.uleb128 0
	.uleb128 .LEHB19-.LFB1541
	.uleb128 .LEHE19-.LEHB19
	.uleb128 .L331-.LFB1541
	.uleb128 0
	.uleb128 .LEHB20-.LFB1541
	.uleb128 .LEHE20-.LEHB20
	.uleb128 0
	.uleb128 0
.LLSDACSE1541:
	.section	".text"
	.size	_ZN11GuiLongTextC2EPKci9_gx_color, .-_ZN11GuiLongTextC2EPKci9_gx_color
	.align 2
	.globl _ZN11GuiLongText10SetTextPosEi
	.type	_ZN11GuiLongText10SetTextPosEi, @function
_ZN11GuiLongText10SetTextPosEi:
.LFB1557:
	.loc 3 158 0
	.cfi_startproc
.LVL485:
	mflr 0
	stwu 1,-16(1)
.LCFI75:
	.cfi_def_cfa_offset 16
	.cfi_register 65, 0
	stw 31,12(1)
	mr 31,3
	.cfi_offset 31, -4
	stw 0,20(1)
.LBB3921:
	.loc 3 159 0
	lwz 0,208(3)
	.cfi_offset 65, 4
	cmpwi 7,0,0
	beq- 7,.L335
.LVL486:
	.loc 3 359 0 discriminator 1
	lwz 8,212(3)
.LBB3922:
.LBB3923:
.LBB3924:
	.loc 8 571 0 discriminator 1
	lis 0,0xaaaa
	lwz 9,216(3)
	ori 0,0,43691
	subf 9,8,9
	srawi 9,9,2
.LBE3924:
.LBE3923:
	.loc 3 164 0 discriminator 1
	mullw. 0,9,0
	beq- 0,.L346
.LBE3922:
.LBE3921:
	.loc 3 157 0
	mtctr 0
	li 9,0
	li 11,0
	li 10,10000
.LVL487:
.L339:
.LBB3936:
.LBB3927:
.LBB3925:
	.loc 3 166 0
	lwzx 0,8,9
.LBE3925:
	.loc 3 164 0
	addi 9,9,12
.LBB3926:
	.loc 3 166 0
	subf 0,4,0
	srawi 7,0,31
	xor 0,7,0
	subf 0,7,0
.LVL488:
	.loc 3 167 0
	cmpw 7,0,10
	bge- 7,.L338
.LVL489:
	.loc 3 170 0
	stw 11,224(31)
	mr 10,0
.LVL490:
.L338:
.LBE3926:
	.loc 3 164 0
	addi 11,11,1
.LVL491:
	bdnz .L339
.LVL492:
.L346:
.LBE3927:
.LBB3928:
.LBB3929:
.LBB3930:
.LBB3931:
	.loc 3 233 0
	mr 3,31
	bl _ZN11GuiLongText8FillRowsEv
	lwz 11,152(31)
	lwz 0,148(31)
	lwz 9,200(31)
	subf 0,0,11
	srawi 0,0,2
	cmpw 7,9,0
	bgt- 7,.L347
.L335:
.LBE3931:
.LBE3930:
.LBE3929:
.LBE3928:
.LBE3936:
	.loc 3 180 0
	lwz 0,20(1)
	lwz 31,12(1)
.LVL493:
	mtlr 0
	addi 1,1,16
	.cfi_remember_state
.LCFI76:
	.cfi_def_cfa_offset 0
	.cfi_restore 31
	blr
.LVL494:
.L347:
.LCFI77:
	.cfi_restore_state
	lwz 9,224(31)
.LBB3937:
	.loc 3 176 0
	cmpwi 7,9,0
.L341:
	.loc 3 176 0 is_stmt 0 discriminator 1
	ble- 7,.L335
.LVL495:
.LBB3935:
.LBB3934:
	.loc 3 228 0 is_stmt 1 discriminator 5
	lwz 0,208(31)
	cmpwi 6,0,0
	beq- 6,.L341
.LVL496:
.LBB3933:
.LBB3932:
	.loc 3 231 0
	addi 9,9,-1
	stw 9,224(31)
	b .L346
.LBE3932:
.LBE3933:
.LBE3934:
.LBE3935:
.LBE3937:
	.cfi_endproc
.LFE1557:
	.size	_ZN11GuiLongText10SetTextPosEi, .-_ZN11GuiLongText10SetTextPosEi
	.align 2
	.globl _ZN11GuiLongText11SetTextLineEi
	.type	_ZN11GuiLongText11SetTextLineEi, @function
_ZN11GuiLongText11SetTextLineEi:
.LFB1556:
	.loc 3 146 0
	.cfi_startproc
.LVL497:
	mflr 0
	stwu 1,-16(1)
.LCFI78:
	.cfi_def_cfa_offset 16
	.cfi_register 65, 0
.LBB3948:
.LBB3949:
	.loc 3 147 0
	cmpwi 0,4,0
.LBE3949:
.LBE3948:
	.loc 3 146 0
	stw 31,12(1)
	mr 31,3
	.cfi_offset 31, -4
	stw 0,20(1)
.LBB3962:
.LBB3952:
	.loc 3 147 0
	li 0,0
	.cfi_offset 65, 4
	.loc 3 359 0
	lwz 9,212(3)
	lwz 11,216(3)
.LVL498:
	.loc 3 147 0
	blt- 0,.L349
.LVL499:
.LBB3950:
.LBB3951:
	.loc 8 571 0 discriminator 1
	subf 9,9,11
	lis 0,0xaaaa
	ori 0,0,43691
	srawi 9,9,2
	mullw 9,9,0
.LBE3951:
.LBE3950:
	.loc 3 147 0 discriminator 1
	addi 0,9,-1
	cmpw 7,0,4
	bgt- 7,.L358
.LVL500:
.L349:
	.loc 3 147 0 is_stmt 0 discriminator 6
	stw 0,224(31)
.LBE3952:
	.loc 3 149 0 is_stmt 1 discriminator 6
	mr 3,31
.LVL501:
	bl _ZN11GuiLongText8FillRowsEv
.LVL502:
.L351:
.LBB3953:
.LBB3954:
.LBB3955:
.LBB3956:
	.loc 3 233 0 discriminator 1
	lwz 11,152(31)
	lwz 0,148(31)
	lwz 9,200(31)
	subf 0,0,11
	srawi 0,0,2
	cmpw 7,9,0
	bgt- 7,.L359
.L348:
.LBE3956:
.LBE3955:
.LBE3954:
.LBE3953:
.LBE3962:
	.loc 3 155 0
	lwz 0,20(1)
	lwz 31,12(1)
.LVL503:
	mtlr 0
	addi 1,1,16
	.cfi_remember_state
.LCFI79:
	.cfi_def_cfa_offset 0
	.cfi_restore 31
	blr
.LVL504:
.L359:
.LCFI80:
	.cfi_restore_state
	lwz 9,224(31)
.LBB3963:
	.loc 3 151 0
	cmpwi 7,9,0
.L353:
	.loc 3 151 0 is_stmt 0 discriminator 1
	ble- 7,.L348
.LVL505:
.LBB3960:
.LBB3959:
	.loc 3 228 0 is_stmt 1 discriminator 5
	lwz 0,208(31)
	cmpwi 6,0,0
	beq- 6,.L353
.LVL506:
.LBB3958:
.LBB3957:
	.loc 3 231 0
	addi 9,9,-1
	.loc 3 233 0
	mr 3,31
	.loc 3 231 0
	stw 9,224(31)
	.loc 3 233 0
	bl _ZN11GuiLongText8FillRowsEv
	b .L351
.LVL507:
.L358:
.LBE3957:
.LBE3958:
.LBE3959:
.LBE3960:
.LBB3961:
	.loc 3 147 0 discriminator 1
	mr 0,4
	b .L349
.LBE3961:
.LBE3963:
	.cfi_endproc
.LFE1556:
	.size	_ZN11GuiLongText11SetTextLineEi, .-_ZN11GuiLongText11SetTextLineEi
	.section	.text.startup,"ax",@progbits
	.align 2
	.type	_GLOBAL__sub_I__ZN11GuiLongTextC2EPKci9_gx_color, @function
_GLOBAL__sub_I__ZN11GuiLongTextC2EPKci9_gx_color:
.LFB2013:
	.loc 3 359 0
	.cfi_startproc
.LVL508:
.LBB3964:
.LBB3965:
	.file 16 "d:/Projects/SaveGameManager/savegame-manager-gx/trunk/source/GUI/../TextOperations/FreeTypeGX.h"
	.loc 16 92 0
	lis 11,.LANCHOR0@ha
	li 0,-1
	la 9,.LANCHOR0@l(11)
	stb 0,.LANCHOR0@l(11)
	stb 0,1(9)
	stb 0,2(9)
	stb 0,3(9)
.LBE3965:
.LBE3964:
	.loc 3 359 0
	blr
	.cfi_endproc
.LFE2013:
	.size	_GLOBAL__sub_I__ZN11GuiLongTextC2EPKci9_gx_color, .-_GLOBAL__sub_I__ZN11GuiLongTextC2EPKci9_gx_color
	.section	.ctors,"aw",@progbits
	.align 2
	.long	_GLOBAL__sub_I__ZN11GuiLongTextC2EPKci9_gx_color
	.weak	_ZTS11GuiLongText
	.section	.rodata._ZTS11GuiLongText,"aG",@progbits,_ZTS11GuiLongText,comdat
	.align 2
	.type	_ZTS11GuiLongText, @object
	.size	_ZTS11GuiLongText, 14
_ZTS11GuiLongText:
	.string	"11GuiLongText"
	.weak	_ZTI11GuiLongText
	.section	.rodata._ZTI11GuiLongText,"aG",@progbits,_ZTI11GuiLongText,comdat
	.align 2
	.type	_ZTI11GuiLongText, @object
	.size	_ZTI11GuiLongText, 12
_ZTI11GuiLongText:
	.long	_ZTVN10__cxxabiv120__si_class_type_infoE+8
	.long	_ZTS11GuiLongText
	.long	_ZTI7GuiText
	.weak	_ZTV11GuiLongText
	.section	.rodata._ZTV11GuiLongText,"aG",@progbits,_ZTV11GuiLongText,comdat
	.align 3
	.type	_ZTV11GuiLongText, @object
	.size	_ZTV11GuiLongText, 244
_ZTV11GuiLongText:
	.long	0
	.long	_ZTI11GuiLongText
	.long	_ZN11GuiLongTextD1Ev
	.long	_ZN11GuiLongTextD0Ev
	.long	_ZN10GuiElement9SetParentEPS_
	.long	_ZN10GuiElement9GetParentEv
	.long	_ZN10GuiElement7GetLeftEv
	.long	_ZN10GuiElement6GetTopEv
	.long	_ZN10GuiElement12GetZPositionEv
	.long	_ZN10GuiElement10GetLeftPosEv
	.long	_ZN10GuiElement9GetTopPosEv
	.long	_ZN10GuiElement8GetWidthEv
	.long	_ZN10GuiElement9GetHeightEv
	.long	_ZN10GuiElement7SetSizeEii
	.long	_ZN10GuiElement10SetVisibleEb
	.long	_ZN10GuiElement9IsVisibleEv
	.long	_ZN10GuiElement12IsSelectableEv
	.long	_ZN10GuiElement11IsClickableEv
	.long	_ZN10GuiElement10IsHoldableEv
	.long	_ZN10GuiElement13SetSelectableEb
	.long	_ZN10GuiElement12SetClickableEb
	.long	_ZN10GuiElement11SetHoldableEb
	.long	_ZN10GuiElement8SetStateEii
	.long	_ZN10GuiElement8GetStateEv
	.long	_ZN10GuiElement12GetStateChanEv
	.long	_ZN10GuiElement10ResetStateEv
	.long	_ZN10GuiElement8SetAlphaEi
	.long	_ZN10GuiElement8GetAlphaEv
	.long	_ZN10GuiElement8SetScaleEf
	.long	_ZN10GuiElement9SetScaleXEf
	.long	_ZN10GuiElement9SetScaleYEf
	.long	_ZN10GuiElement8GetScaleEv
	.long	_ZN10GuiElement9GetScaleXEv
	.long	_ZN10GuiElement9GetScaleYEv
	.long	_ZN10GuiElement6RumbleEv
	.long	_ZN10GuiElement9SetRumbleEb
	.long	_ZN10GuiElement9SetEffectEiii
	.long	_ZN10GuiElement15SetEffectOnOverEiii
	.long	_ZN10GuiElement13SetEffectGrowEv
	.long	_ZN10GuiElement12ResetEffectsEv
	.long	_ZNK10GuiElement9GetEffectEv
	.long	_ZNK10GuiElement10IsAnimatedEv
	.long	_ZN10GuiElement9SetBoundsE4RectIiE
	.long	_ZN10GuiElement8IsInsideEii
	.long	_ZN10GuiElement11SetPositionEii
	.long	_ZN10GuiElement11SetPositionEiii
	.long	_ZN10GuiElement11GetSelectedEv
	.long	_ZN10GuiElement12SetAlignmentEi
	.long	_ZNK10GuiElement12GetAlignmentEv
	.long	_ZN10GuiElement6UpdateEP10GuiTrigger
	.long	_ZN11GuiLongText4DrawEv
	.long	_ZN10GuiElement13UpdateEffectsEv
	.long	_ZN11GuiLongText7SetTextEPKc
	.long	_ZN7GuiText7SetTextESs
	.long	_ZN11GuiLongText7SetTextEPKw
	.long	_ZN7GuiText7SetTextESbIwSt11char_traitsIwESaIwEE
	.long	_ZN7GuiText8SetTextfEPKcz
	.long	_ZNK11GuiLongText7GetTextEv
	.long	_ZNK11GuiLongText6toUTF8Ev
	.long	_ZN11GuiLongText13GetLinesCountEv
	.long	_ZN11GuiLongText11GetTextLineEi
	.globl _ZN11GuiLongTextD1Ev
	.set	_ZN11GuiLongTextD1Ev,_ZN11GuiLongTextD2Ev
	.globl _ZN11GuiLongTextC1EPKwi9_gx_color
	.set	_ZN11GuiLongTextC1EPKwi9_gx_color,_ZN11GuiLongTextC2EPKwi9_gx_color
	.globl _ZN11GuiLongTextC1EPKci9_gx_color
	.set	_ZN11GuiLongTextC1EPKci9_gx_color,_ZN11GuiLongTextC2EPKci9_gx_color
	.section	.rodata.cst4,"aM",@progbits,4
	.align 2
.LC1:
	.4byte	1501560836
.LC2:
	.4byte	1132396544
.LC3:
	.4byte	1056964608
	.section	.rodata.str1.4,"aMS",@progbits,1
	.align 2
.LC4:
	.string	"vector::_M_fill_insert"
	.zero	1
.LC5:
	.string	"basic_string::at"
	.section	".bss"
	.set	.LANCHOR0,. + 0
	.type	_ZL9ftgxWhite, @object
	.size	_ZL9ftgxWhite, 4
_ZL9ftgxWhite:
	.zero	4
	.section	".text"
.Letext0:
	.file 17 "d:\\devkitpro\\devkitppc\\bin\\../lib/gcc/powerpc-eabi/4.6.3/../../../../powerpc-eabi/include/stdint.h"
	.file 18 "d:/devkitPro/libogc/include/gctypes.h"
	.file 19 "d:/devkitPro/libogc/include/ogc/gx.h"
	.file 20 "d:\\devkitpro\\devkitppc\\bin\\../lib/gcc/powerpc-eabi/4.6.3/../../../../powerpc-eabi/include/machine/_types.h"
	.file 21 "d:\\devkitpro\\devkitppc\\bin\\../lib/gcc/powerpc-eabi/4.6.3/../../../../powerpc-eabi/include/sys/lock.h"
	.file 22 "d:\\devkitpro\\devkitppc\\bin\\../lib/gcc/powerpc-eabi/4.6.3/include/stddef.h"
	.file 23 "d:\\devkitpro\\devkitppc\\bin\\../lib/gcc/powerpc-eabi/4.6.3/../../../../powerpc-eabi/include/sys/_types.h"
	.file 24 "d:\\devkitpro\\devkitppc\\bin\\../lib/gcc/powerpc-eabi/4.6.3/../../../../powerpc-eabi/include/sys/reent.h"
	.file 25 "d:\\devkitpro\\devkitppc\\bin\\../lib/gcc/powerpc-eabi/4.6.3/../../../../powerpc-eabi/include/time.h"
	.file 26 "<built-in>"
	.file 27 "d:\\devkitpro\\devkitppc\\bin\\../lib/gcc/powerpc-eabi/4.6.3/../../../../powerpc-eabi/include/wchar.h"
	.file 28 "d:\\devkitpro\\devkitppc\\bin\\../lib/gcc/powerpc-eabi/4.6.3/../../../../powerpc-eabi/include/c++/4.6.3/cwchar"
	.file 29 "d:\\devkitpro\\devkitppc\\bin\\../lib/gcc/powerpc-eabi/4.6.3/../../../../powerpc-eabi/include/c++/4.6.3/powerpc-eabi/bits/c++config.h"
	.file 30 "d:\\devkitpro\\devkitppc\\bin\\../lib/gcc/powerpc-eabi/4.6.3/../../../../powerpc-eabi/include/c++/4.6.3/clocale"
	.file 31 "d:\\devkitpro\\devkitppc\\bin\\../lib/gcc/powerpc-eabi/4.6.3/../../../../powerpc-eabi/include/c++/4.6.3/bits/stringfwd.h"
	.file 32 "d:\\devkitpro\\devkitppc\\bin\\../lib/gcc/powerpc-eabi/4.6.3/../../../../powerpc-eabi/include/c++/4.6.3/bits/stl_tree.h"
	.file 33 "d:\\devkitpro\\devkitppc\\bin\\../lib/gcc/powerpc-eabi/4.6.3/../../../../powerpc-eabi/include/c++/4.6.3/bits/stl_construct.h"
	.file 34 "d:\\devkitpro\\devkitppc\\bin\\../lib/gcc/powerpc-eabi/4.6.3/../../../../powerpc-eabi/include/c++/4.6.3/bits/move.h"
	.file 35 "d:\\devkitpro\\devkitppc\\bin\\../lib/gcc/powerpc-eabi/4.6.3/../../../../powerpc-eabi/include/c++/4.6.3/bits/stl_uninitialized.h"
	.file 36 "d:\\devkitpro\\devkitppc\\bin\\../lib/gcc/powerpc-eabi/4.6.3/../../../../powerpc-eabi/include/c++/4.6.3/bits/cpp_type_traits.h"
	.file 37 "d:\\devkitpro\\devkitppc\\bin\\../lib/gcc/powerpc-eabi/4.6.3/../../../../powerpc-eabi/include/c++/4.6.3/debug/debug.h"
	.file 38 "d:\\devkitpro\\devkitppc\\bin\\../lib/gcc/powerpc-eabi/4.6.3/../../../../powerpc-eabi/include/c++/4.6.3/bits/allocator.h"
	.file 39 "d:\\devkitpro\\devkitppc\\bin\\../lib/gcc/powerpc-eabi/4.6.3/../../../../powerpc-eabi/include/locale.h"
	.file 40 "d:\\devkitpro\\devkitppc\\bin\\../lib/gcc/powerpc-eabi/4.6.3/../../../../powerpc-eabi/include/c++/4.6.3/powerpc-eabi/bits/atomic_word.h"
	.file 41 "d:\\devkitpro\\devkitppc\\bin\\../lib/gcc/powerpc-eabi/4.6.3/../../../../powerpc-eabi/include/c++/4.6.3/ext/numeric_traits.h"
	.file 42 "d:\\devkitpro\\devkitppc\\bin\\../lib/gcc/powerpc-eabi/4.6.3/../../../../powerpc-eabi/include/c++/4.6.3/bits/basic_string.tcc"
	.file 43 "d:\\devkitpro\\devkitppc\\bin\\../lib/gcc/powerpc-eabi/4.6.3/../../../../powerpc-eabi/include/c++/4.6.3/bits/stl_iterator_base_types.h"
	.file 44 "d:\\devkitpro\\devkitppc\\bin\\../lib/gcc/powerpc-eabi/4.6.3/../../../../powerpc-eabi/include/c++/4.6.3/bits/list.tcc"
	.file 45 "d:/Projects/SaveGameManager/savegame-manager-gx/trunk/source/GUI/../TextOperations/wstring.hpp"
	.file 46 "d:/devkitPro/libogc/include/freetype/config/ftconfig.h"
	.file 47 "d:/devkitPro/libogc/include/freetype/ftsystem.h"
	.file 48 "d:/devkitPro/libogc/include/freetype/ftimage.h"
	.file 49 "d:/devkitPro/libogc/include/freetype/fttypes.h"
	.file 50 "d:/devkitPro/libogc/include/freetype/freetype.h"
	.file 51 "d:\\devkitpro\\devkitppc\\bin\\../lib/gcc/powerpc-eabi/4.6.3/../../../../powerpc-eabi/include/c++/4.6.3/bits/stl_function.h"
	.file 52 "d:\\devkitpro\\devkitppc\\bin\\../lib/gcc/powerpc-eabi/4.6.3/../../../../powerpc-eabi/include/c++/4.6.3/bits/stl_map.h"
	.file 53 "d:\\devkitpro\\devkitppc\\bin\\../lib/gcc/powerpc-eabi/4.6.3/../../../../powerpc-eabi/include/c++/4.6.3/bits/stl_set.h"
	.file 54 "d:\\devkitpro\\devkitppc\\bin\\../lib/gcc/powerpc-eabi/4.6.3/../../../../powerpc-eabi/include/c++/4.6.3/bits/stl_pair.h"
	.file 55 "d:\\devkitpro\\devkitppc\\bin\\../lib/gcc/powerpc-eabi/4.6.3/../../../../powerpc-eabi/include/c++/4.6.3/ext/type_traits.h"
	.file 56 "d:\\devkitpro\\devkitppc\\bin\\../lib/gcc/powerpc-eabi/4.6.3/../../../../powerpc-eabi/include/c++/4.6.3/new"