	.file	"gui_frameimage.cpp"
	.section	".text"
.Ltext0:
	.section	.text._ZN7sigslot15single_threadedD2Ev,"axG",@progbits,_ZN7sigslot15single_threadedD5Ev,comdat
	.align 2
	.weak	_ZN7sigslot15single_threadedD2Ev
	.type	_ZN7sigslot15single_threadedD2Ev, @function
_ZN7sigslot15single_threadedD2Ev:
.LFB1148:
	.file 1 "d:/Projects/SaveGameManager/savegame-manager-gx/trunk/source/GUI/../sigslot.h"
	.loc 1 104 0
	.cfi_startproc
.LVL0:
.LBB1405:
	.loc 1 105 0
	lis 9,_ZTVN7sigslot15single_threadedE+8@ha
.LBE1405:
	.loc 1 107 0
.LBB1406:
	.loc 1 105 0
	la 0,_ZTVN7sigslot15single_threadedE+8@l(9)
	stw 0,0(3)
.LBE1406:
	.loc 1 107 0
	blr
	.cfi_endproc
.LFE1148:
	.size	_ZN7sigslot15single_threadedD2Ev, .-_ZN7sigslot15single_threadedD2Ev
	.section	.text._ZN7sigslot15single_threaded4lockEv,"axG",@progbits,_ZN7sigslot15single_threaded4lockEv,comdat
	.align 2
	.weak	_ZN7sigslot15single_threaded4lockEv
	.type	_ZN7sigslot15single_threaded4lockEv, @function
_ZN7sigslot15single_threaded4lockEv:
.LFB1151:
	.loc 1 109 0
	.cfi_startproc
.LVL1:
	.loc 1 112 0
	blr
	.cfi_endproc
.LFE1151:
	.size	_ZN7sigslot15single_threaded4lockEv, .-_ZN7sigslot15single_threaded4lockEv
	.section	.text._ZN7sigslot15single_threaded6unlockEv,"axG",@progbits,_ZN7sigslot15single_threaded6unlockEv,comdat
	.align 2
	.weak	_ZN7sigslot15single_threaded6unlockEv
	.type	_ZN7sigslot15single_threaded6unlockEv, @function
_ZN7sigslot15single_threaded6unlockEv:
.LFB1152:
	.loc 1 114 0
	.cfi_startproc
.LVL2:
	.loc 1 117 0
	blr
	.cfi_endproc
.LFE1152:
	.size	_ZN7sigslot15single_threaded6unlockEv, .-_ZN7sigslot15single_threaded6unlockEv
	.section	.text._ZN10GuiElement9SetParentEPS_,"axG",@progbits,_ZN10GuiElement9SetParentEPS_,comdat
	.align 2
	.weak	_ZN10GuiElement9SetParentEPS_
	.type	_ZN10GuiElement9SetParentEPS_, @function
_ZN10GuiElement9SetParentEPS_:
.LFB1384:
	.file 2 "d:/Projects/SaveGameManager/savegame-manager-gx/trunk/source/GUI/gui_element.h"
	.loc 2 92 0
	.cfi_startproc
.LVL3:
	.loc 2 92 0
	stw 4,96(3)
	blr
	.cfi_endproc
.LFE1384:
	.size	_ZN10GuiElement9SetParentEPS_, .-_ZN10GuiElement9SetParentEPS_
	.section	.text._ZN10GuiElement9GetParentEv,"axG",@progbits,_ZN10GuiElement9GetParentEv,comdat
	.align 2
	.weak	_ZN10GuiElement9GetParentEv
	.type	_ZN10GuiElement9GetParentEv, @function
_ZN10GuiElement9GetParentEv:
.LFB1385:
	.loc 2 95 0
	.cfi_startproc
.LVL4:
	.loc 2 95 0
	lwz 3,96(3)
.LVL5:
	blr
	.cfi_endproc
.LFE1385:
	.size	_ZN10GuiElement9GetParentEv, .-_ZN10GuiElement9GetParentEv
	.section	.text._ZN10GuiElement12GetZPositionEv,"axG",@progbits,_ZN10GuiElement12GetZPositionEv,comdat
	.align 2
	.weak	_ZN10GuiElement12GetZPositionEv
	.type	_ZN10GuiElement12GetZPositionEv, @function
_ZN10GuiElement12GetZPositionEv:
.LFB1386:
	.loc 2 106 0
	.cfi_startproc
.LVL6:
	mflr 0
	stwu 1,-16(1)
.LCFI0:
	.cfi_def_cfa_offset 16
	.cfi_register 65, 0
	stw 31,12(1)
	mr 31,3
	.cfi_offset 31, -4
	stw 0,20(1)
.LBB1407:
	.loc 2 110 0
	lwz 11,96(3)
	.loc 2 108 0
	li 3,0
.LVL7:
	.loc 2 110 0
	cmpwi 7,11,0
	beq- 7,.L8
	.cfi_offset 65, 4
	.loc 2 111 0
	lwz 9,0(11)
	mr 3,11
	lwz 0,24(9)
	mtctr 0
	bctrl
.LVL8:
.L8:
	.loc 2 113 0
	lwz 0,52(31)
.LBE1407:
	.loc 2 114 0
	lwz 31,12(1)
.LVL9:
	add 3,3,0
.LVL10:
	lwz 0,20(1)
	addi 1,1,16
.LCFI1:
	.cfi_def_cfa_offset 0
	.cfi_restore 31
	mtlr 0
	blr
	.cfi_endproc
.LFE1386:
	.size	_ZN10GuiElement12GetZPositionEv, .-_ZN10GuiElement12GetZPositionEv
	.section	.text._ZN10GuiElement10GetLeftPosEv,"axG",@progbits,_ZN10GuiElement10GetLeftPosEv,comdat
	.align 2
	.weak	_ZN10GuiElement10GetLeftPosEv
	.type	_ZN10GuiElement10GetLeftPosEv, @function
_ZN10GuiElement10GetLeftPosEv:
.LFB1387:
	.loc 2 116 0
	.cfi_startproc
.LVL11:
	.loc 2 116 0
	lwz 3,44(3)
.LVL12:
	blr
	.cfi_endproc
.LFE1387:
	.size	_ZN10GuiElement10GetLeftPosEv, .-_ZN10GuiElement10GetLeftPosEv
	.section	.text._ZN10GuiElement9GetTopPosEv,"axG",@progbits,_ZN10GuiElement9GetTopPosEv,comdat
	.align 2
	.weak	_ZN10GuiElement9GetTopPosEv
	.type	_ZN10GuiElement9GetTopPosEv, @function
_ZN10GuiElement9GetTopPosEv:
.LFB1388:
	.loc 2 118 0
	.cfi_startproc
.LVL13:
	.loc 2 118 0
	lwz 3,48(3)
.LVL14:
	blr
	.cfi_endproc
.LFE1388:
	.size	_ZN10GuiElement9GetTopPosEv, .-_ZN10GuiElement9GetTopPosEv
	.section	.text._ZN10GuiElement8GetWidthEv,"axG",@progbits,_ZN10GuiElement8GetWidthEv,comdat
	.align 2
	.weak	_ZN10GuiElement8GetWidthEv
	.type	_ZN10GuiElement8GetWidthEv, @function
_ZN10GuiElement8GetWidthEv:
.LFB1389:
	.loc 2 121 0
	.cfi_startproc
.LVL15:
	.loc 2 121 0
	lwz 3,36(3)
.LVL16:
	blr
	.cfi_endproc
.LFE1389:
	.size	_ZN10GuiElement8GetWidthEv, .-_ZN10GuiElement8GetWidthEv
	.section	.text._ZN10GuiElement9GetHeightEv,"axG",@progbits,_ZN10GuiElement9GetHeightEv,comdat
	.align 2
	.weak	_ZN10GuiElement9GetHeightEv
	.type	_ZN10GuiElement9GetHeightEv, @function
_ZN10GuiElement9GetHeightEv:
.LFB1390:
	.loc 2 124 0
	.cfi_startproc
.LVL17:
	.loc 2 124 0
	lwz 3,40(3)
.LVL18:
	blr
	.cfi_endproc
.LFE1390:
	.size	_ZN10GuiElement9GetHeightEv, .-_ZN10GuiElement9GetHeightEv
	.section	.text._ZN10GuiElement7SetSizeEii,"axG",@progbits,_ZN10GuiElement7SetSizeEii,comdat
	.align 2
	.weak	_ZN10GuiElement7SetSizeEii
	.type	_ZN10GuiElement7SetSizeEii, @function
_ZN10GuiElement7SetSizeEii:
.LFB1391:
	.loc 2 128 0
	.cfi_startproc
.LVL19:
	.loc 2 130 0
	stw 4,36(3)
	.loc 2 132 0
	.loc 2 131 0
	stw 5,40(3)
	.loc 2 132 0
	blr
	.cfi_endproc
.LFE1391:
	.size	_ZN10GuiElement7SetSizeEii, .-_ZN10GuiElement7SetSizeEii
	.section	.text._ZN10GuiElement10SetVisibleEb,"axG",@progbits,_ZN10GuiElement10SetVisibleEb,comdat
	.align 2
	.weak	_ZN10GuiElement10SetVisibleEb
	.type	_ZN10GuiElement10SetVisibleEb, @function
_ZN10GuiElement10SetVisibleEb:
.LFB1392:
	.loc 2 135 0
	.cfi_startproc
	.cfi_personality 0,__gxx_personality_v0
	.cfi_lsda 0,.LLSDA1392
.LVL20:
	mflr 0
	stwu 1,-32(1)
.LCFI2:
	.cfi_def_cfa_offset 32
	.cfi_register 65, 0
	stw 27,12(1)
.LBB1408:
.LBB1409:
	.loc 1 2270 0
	addi 27,3,4
	.cfi_offset 27, -20
.LBE1409:
.LBE1408:
	.loc 2 135 0
	stw 0,36(1)
	stw 30,24(1)
	mr 30,3
	.cfi_offset 30, -8
	.cfi_offset 65, 4
.LBB1432:
.LBB1426:
.LBB1410:
.LBB1411:
	.loc 1 338 0
	lwz 9,4(3)
	mr 3,27
.LVL21:
.LBE1411:
.LBE1410:
.LBE1426:
.LBE1432:
	.loc 2 135 0
	stw 28,16(1)
	mr 28,4
	.cfi_offset 28, -16
.LBB1433:
.LBB1427:
.LBB1415:
.LBB1412:
	.loc 1 338 0
	lwz 0,8(9)
.LBE1412:
.LBE1415:
.LBE1427:
.LBE1433:
	.loc 2 135 0
	stw 29,20(1)
.LBB1434:
	.file 3 "d:/Projects/SaveGameManager/savegame-manager-gx/trunk/source/GUI/gui_frameimage.cpp"
	.loc 3 302 0
	mr 29,30
	.cfi_offset 29, -12
.LBE1434:
	.loc 2 135 0
	stw 31,28(1)
.LBB1435:
.LBB1428:
.LBB1416:
.LBB1413:
	.loc 1 338 0
	mtctr 0
.LBE1413:
.LBE1416:
.LBE1428:
.LBE1435:
	.loc 2 137 0
	stb 4,29(30)
.LVL22:
.LEHB0:
.LBB1436:
.LBB1429:
.LBB1417:
.LBB1414:
	.loc 1 338 0
	.cfi_offset 31, -4
	bctrl
.LEHE0:
.LVL23:
.LBE1414:
.LBE1417:
.LBE1429:
	.loc 3 302 0
	lwzu 31,8(29)
.LVL24:
.LBB1430:
	.loc 1 2274 0
	cmpw 7,31,29
	beq- 7,.L17
.LVL25:
.L24:
	.loc 1 2279 0
	lwz 3,8(31)
	mr 4,30
	mr 5,28
.LBB1418:
.LBB1419:
	.file 4 "d:\\devkitpro\\devkitppc\\bin\\../lib/gcc/powerpc-eabi/4.6.3/../../../../powerpc-eabi/include/c++/4.6.3/bits/stl_list.h"
	.loc 4 234 0
	lwz 31,0(31)
.LVL26:
.LBE1419:
.LBE1418:
	.loc 1 2279 0
	lwz 9,0(3)
	lwz 0,12(9)
	mtctr 0
.LEHB1:
	bctrl
.LEHE1:
.LVL27:
	.loc 1 2274 0
	cmpw 7,29,31
	bne+ 7,.L24
.LVL28:
.L17:
.LBB1420:
.LBB1421:
.LBB1422:
	.loc 1 343 0
	lwz 9,4(30)
	mr 3,27
	lwz 0,12(9)
	mtctr 0
.LEHB2:
	bctrl
.LEHE2:
.LBE1422:
.LBE1421:
.LBE1420:
.LBE1430:
.LBE1436:
	.loc 2 139 0
	lwz 0,36(1)
	lwz 27,12(1)
.LVL29:
	mtlr 0
	lwz 28,16(1)
.LVL30:
	lwz 29,20(1)
	lwz 30,24(1)
.LVL31:
	lwz 31,28(1)
.LVL32:
	addi 1,1,32
	.cfi_remember_state
.LCFI3:
	.cfi_def_cfa_offset 0
	.cfi_restore 31
	.cfi_restore 30
	.cfi_restore 29
	.cfi_restore 28
	.cfi_restore 27
	blr
.LVL33:
.L23:
.LCFI4:
	.cfi_restore_state
.LBB1437:
.LBB1431:
.LBB1423:
.LBB1424:
.LBB1425:
	.loc 1 343 0
	lwz 9,4(30)
	mr 31,3
.LVL34:
	mr 3,27
	lwz 0,12(9)
	mtctr 0
	bctrl
	mr 3,31
.LEHB3:
	bl _Unwind_Resume
.LEHE3:
.LBE1425:
.LBE1424:
.LBE1423:
.LBE1431:
.LBE1437:
	.cfi_endproc
.LFE1392:
	.globl __gxx_personality_v0
	.section	.gcc_except_table,"a",@progbits
.LLSDA1392:
	.byte	0xff
	.byte	0xff
	.byte	0x1
	.uleb128 .LLSDACSE1392-.LLSDACSB1392
.LLSDACSB1392:
	.uleb128 .LEHB0-.LFB1392
	.uleb128 .LEHE0-.LEHB0
	.uleb128 0
	.uleb128 0
	.uleb128 .LEHB1-.LFB1392
	.uleb128 .LEHE1-.LEHB1
	.uleb128 .L23-.LFB1392
	.uleb128 0
	.uleb128 .LEHB2-.LFB1392
	.uleb128 .LEHE2-.LEHB2
	.uleb128 0
	.uleb128 0
	.uleb128 .LEHB3-.LFB1392
	.uleb128 .LEHE3-.LEHB3
	.uleb128 0
	.uleb128 0
.LLSDACSE1392:
	.section	.text._ZN10GuiElement10SetVisibleEb,"axG",@progbits,_ZN10GuiElement10SetVisibleEb,comdat
	.size	_ZN10GuiElement10SetVisibleEb, .-_ZN10GuiElement10SetVisibleEb
	.section	.text._ZN10GuiElement9IsVisibleEv,"axG",@progbits,_ZN10GuiElement9IsVisibleEv,comdat
	.align 2
	.weak	_ZN10GuiElement9IsVisibleEv
	.type	_ZN10GuiElement9IsVisibleEv, @function
_ZN10GuiElement9IsVisibleEv:
.LFB1393:
	.loc 2 142 0
	.cfi_startproc
.LVL35:
	.loc 2 142 0
	lbz 3,29(3)
.LVL36:
	blr
	.cfi_endproc
.LFE1393:
	.size	_ZN10GuiElement9IsVisibleEv, .-_ZN10GuiElement9IsVisibleEv
	.section	.text._ZN10GuiElement12IsSelectableEv,"axG",@progbits,_ZN10GuiElement12IsSelectableEv,comdat
	.align 2
	.weak	_ZN10GuiElement12IsSelectableEv
	.type	_ZN10GuiElement12IsSelectableEv, @function
_ZN10GuiElement12IsSelectableEv:
.LFB1394:
	.loc 2 145 0
	.cfi_startproc
.LVL37:
	.loc 2 149 0
	lwz 0,72(3)
	li 9,0
	cmpwi 7,0,4
	beq- 7,.L27
	.loc 2 149 0 is_stmt 0 discriminator 1
	cmpwi 7,0,2
	beq- 7,.L27
	.loc 2 149 0 discriminator 3
	lbz 9,30(3)
.L27:
	.loc 2 150 0 is_stmt 1 discriminator 5
	mr 3,9
.LVL38:
	blr
	.cfi_endproc
.LFE1394:
	.size	_ZN10GuiElement12IsSelectableEv, .-_ZN10GuiElement12IsSelectableEv
	.section	.text._ZN10GuiElement11IsClickableEv,"axG",@progbits,_ZN10GuiElement11IsClickableEv,comdat
	.align 2
	.weak	_ZN10GuiElement11IsClickableEv
	.type	_ZN10GuiElement11IsClickableEv, @function
_ZN10GuiElement11IsClickableEv:
.LFB1395:
	.loc 2 153 0
	.cfi_startproc
.LVL39:
	.loc 2 158 0
	lwz 0,72(3)
	li 9,0
	cmpwi 7,0,4
	beq- 7,.L31
	.loc 2 158 0 is_stmt 0 discriminator 1
	cmpwi 7,0,2
	beq- 7,.L31
	.loc 2 158 0 discriminator 3
	cmpwi 7,0,3
	beq- 7,.L31
	.loc 2 158 0 discriminator 4
	lbz 9,31(3)
.L31:
	.loc 2 159 0 is_stmt 1 discriminator 6
	mr 3,9
.LVL40:
	blr
	.cfi_endproc
.LFE1395:
	.size	_ZN10GuiElement11IsClickableEv, .-_ZN10GuiElement11IsClickableEv
	.section	.text._ZN10GuiElement10IsHoldableEv,"axG",@progbits,_ZN10GuiElement10IsHoldableEv,comdat
	.align 2
	.weak	_ZN10GuiElement10IsHoldableEv
	.type	_ZN10GuiElement10IsHoldableEv, @function
_ZN10GuiElement10IsHoldableEv:
.LFB1396:
	.loc 2 162 0
	.cfi_startproc
.LVL41:
	.loc 2 162 0
	lwz 9,72(3)
	li 0,0
	cmpwi 7,9,4
	beq- 7,.L36
	.loc 2 162 0 is_stmt 0 discriminator 1
	lbz 0,32(3)
.L36:
	.loc 2 162 0 discriminator 4
	mr 3,0
.LVL42:
	blr
	.cfi_endproc
.LFE1396:
	.size	_ZN10GuiElement10IsHoldableEv, .-_ZN10GuiElement10IsHoldableEv
	.section	.text._ZN10GuiElement13SetSelectableEb,"axG",@progbits,_ZN10GuiElement13SetSelectableEb,comdat
	.align 2
	.weak	_ZN10GuiElement13SetSelectableEb
	.type	_ZN10GuiElement13SetSelectableEb, @function
_ZN10GuiElement13SetSelectableEb:
.LFB1397:
	.loc 2 165 0 is_stmt 1
	.cfi_startproc
.LVL43:
	.loc 2 165 0
	stb 4,30(3)
	blr
	.cfi_endproc
.LFE1397:
	.size	_ZN10GuiElement13SetSelectableEb, .-_ZN10GuiElement13SetSelectableEb
	.section	.text._ZN10GuiElement12SetClickableEb,"axG",@progbits,_ZN10GuiElement12SetClickableEb,comdat
	.align 2
	.weak	_ZN10GuiElement12SetClickableEb
	.type	_ZN10GuiElement12SetClickableEb, @function
_ZN10GuiElement12SetClickableEb:
.LFB1398:
	.loc 2 168 0
	.cfi_startproc
.LVL44:
	.loc 2 168 0
	stb 4,31(3)
	blr
	.cfi_endproc
.LFE1398:
	.size	_ZN10GuiElement12SetClickableEb, .-_ZN10GuiElement12SetClickableEb
	.section	.text._ZN10GuiElement11SetHoldableEb,"axG",@progbits,_ZN10GuiElement11SetHoldableEb,comdat
	.align 2
	.weak	_ZN10GuiElement11SetHoldableEb
	.type	_ZN10GuiElement11SetHoldableEb, @function
_ZN10GuiElement11SetHoldableEb:
.LFB1399:
	.loc 2 171 0
	.cfi_startproc
.LVL45:
	.loc 2 171 0
	stb 4,32(3)
	blr
	.cfi_endproc
.LFE1399:
	.size	_ZN10GuiElement11SetHoldableEb, .-_ZN10GuiElement11SetHoldableEb
	.section	.text._ZN10GuiElement8GetStateEv,"axG",@progbits,_ZN10GuiElement8GetStateEv,comdat
	.align 2
	.weak	_ZN10GuiElement8GetStateEv
	.type	_ZN10GuiElement8GetStateEv, @function
_ZN10GuiElement8GetStateEv:
.LFB1400:
	.loc 2 178 0
	.cfi_startproc
.LVL46:
	.loc 2 178 0
	lwz 3,72(3)
.LVL47:
	blr
	.cfi_endproc
.LFE1400:
	.size	_ZN10GuiElement8GetStateEv, .-_ZN10GuiElement8GetStateEv
	.section	.text._ZN10GuiElement12GetStateChanEv,"axG",@progbits,_ZN10GuiElement12GetStateChanEv,comdat
	.align 2
	.weak	_ZN10GuiElement12GetStateChanEv
	.type	_ZN10GuiElement12GetStateChanEv, @function
_ZN10GuiElement12GetStateChanEv:
.LFB1401:
	.loc 2 181 0
	.cfi_startproc
.LVL48:
	.loc 2 181 0
	lwz 3,76(3)
.LVL49:
	blr
	.cfi_endproc
.LFE1401:
	.size	_ZN10GuiElement12GetStateChanEv, .-_ZN10GuiElement12GetStateChanEv
	.section	.text._ZN10GuiElement8SetAlphaEi,"axG",@progbits,_ZN10GuiElement8SetAlphaEi,comdat
	.align 2
	.weak	_ZN10GuiElement8SetAlphaEi
	.type	_ZN10GuiElement8SetAlphaEi, @function
_ZN10GuiElement8SetAlphaEi:
.LFB1403:
	.loc 2 190 0
	.cfi_startproc
.LVL50:
	.loc 2 190 0
	stw 4,56(3)
	blr
	.cfi_endproc
.LFE1403:
	.size	_ZN10GuiElement8SetAlphaEi, .-_ZN10GuiElement8SetAlphaEi
	.section	.text._ZN10GuiElement8GetAlphaEv,"axG",@progbits,_ZN10GuiElement8GetAlphaEv,comdat
	.align 2
	.weak	_ZN10GuiElement8GetAlphaEv
	.type	_ZN10GuiElement8GetAlphaEv, @function
_ZN10GuiElement8GetAlphaEv:
.LFB1404:
	.loc 2 194 0
	.cfi_startproc
.LVL51:
	mflr 0
	stwu 1,-40(1)
.LCFI5:
	.cfi_def_cfa_offset 40
	.cfi_register 65, 0
	stw 31,36(1)
	stw 0,44(1)
.LBB1438:
	.loc 2 198 0
	lwz 31,108(3)
	.cfi_offset 65, 4
	.cfi_offset 31, -4
	cmpwi 7,31,0
	blt- 7,.L47
.L45:
.LVL52:
	.loc 2 203 0
	lwz 3,96(3)
.LVL53:
	cmpwi 7,3,0
	beq- 7,.L46
	.loc 2 204 0
	lwz 9,0(3)
	xoris 31,31,0x8000
.LVL54:
	lwz 0,100(9)
	mtctr 0
	bctrl
	lis 0,0x4330
	xoris 3,3,0x8000
	stw 0,16(1)
	stw 3,20(1)
	lis 9,.LC1@ha
	lfs 0,.LC1@l(9)
	lis 9,.LC2@ha
	lfd 13,16(1)
	lfs 12,.LC2@l(9)
	addi 9,1,24
	fsub 13,13,0
	stw 31,12(1)
	stw 0,8(1)
	frsp 13,13
	fdivs 13,13,12
	lfd 12,8(1)
	fsub 0,12,0
	frsp 0,0
	fmuls 0,0,13
	fctiwz 0,0
	stfiwx 0,0,9
	lwz 31,24(1)
.LVL55:
.L46:
.LBE1438:
	.loc 2 207 0
	lwz 0,44(1)
	mr 3,31
	lwz 31,36(1)
.LVL56:
	mtlr 0
	addi 1,1,40
	.cfi_remember_state
.LCFI6:
	.cfi_def_cfa_offset 0
	.cfi_restore 31
	blr
.LVL57:
.L47:
.LCFI7:
	.cfi_restore_state
.LBB1439:
	.loc 2 201 0
	lwz 31,56(3)
.LVL58:
	b .L45
.LBE1439:
	.cfi_endproc
.LFE1404:
	.size	_ZN10GuiElement8GetAlphaEv, .-_ZN10GuiElement8GetAlphaEv
	.section	.text._ZN10GuiElement8SetScaleEf,"axG",@progbits,_ZN10GuiElement8SetScaleEf,comdat
	.align 2
	.weak	_ZN10GuiElement8SetScaleEf
	.type	_ZN10GuiElement8SetScaleEf, @function
_ZN10GuiElement8SetScaleEf:
.LFB1405:
	.loc 2 210 0
	.cfi_startproc
.LVL59:
	.loc 2 212 0
	stfs 1,60(3)
	.loc 2 214 0
	.loc 2 213 0
	stfs 1,64(3)
	.loc 2 214 0
	blr
	.cfi_endproc
.LFE1405:
	.size	_ZN10GuiElement8SetScaleEf, .-_ZN10GuiElement8SetScaleEf
	.section	.text._ZN10GuiElement9SetScaleXEf,"axG",@progbits,_ZN10GuiElement9SetScaleXEf,comdat
	.align 2
	.weak	_ZN10GuiElement9SetScaleXEf
	.type	_ZN10GuiElement9SetScaleXEf, @function
_ZN10GuiElement9SetScaleXEf:
.LFB1406:
	.loc 2 217 0
	.cfi_startproc
.LVL60:
	.loc 2 217 0
	stfs 1,60(3)
	blr
	.cfi_endproc
.LFE1406:
	.size	_ZN10GuiElement9SetScaleXEf, .-_ZN10GuiElement9SetScaleXEf
	.section	.text._ZN10GuiElement9SetScaleYEf,"axG",@progbits,_ZN10GuiElement9SetScaleYEf,comdat
	.align 2
	.weak	_ZN10GuiElement9SetScaleYEf
	.type	_ZN10GuiElement9SetScaleYEf, @function
_ZN10GuiElement9SetScaleYEf:
.LFB1407:
	.loc 2 220 0
	.cfi_startproc
.LVL61:
	.loc 2 220 0
	stfs 1,64(3)
	blr
	.cfi_endproc
.LFE1407:
	.size	_ZN10GuiElement9SetScaleYEf, .-_ZN10GuiElement9SetScaleYEf
	.section	.text._ZN10GuiElement8GetScaleEv,"axG",@progbits,_ZN10GuiElement8GetScaleEv,comdat
	.align 2
	.weak	_ZN10GuiElement8GetScaleEv
	.type	_ZN10GuiElement8GetScaleEv, @function
_ZN10GuiElement8GetScaleEv:
.LFB1408:
	.loc 2 223 0
	.cfi_startproc
.LVL62:
	mflr 0
	stwu 1,-16(1)
.LCFI8:
	.cfi_def_cfa_offset 16
	.cfi_register 65, 0
.LBB1440:
	.loc 2 225 0
	lis 9,.LC3@ha
.LBE1440:
	.loc 2 223 0
	stfd 31,8(1)
	stw 0,20(1)
.LBB1441:
	.loc 2 225 0
	lfs 0,64(3)
	lfs 31,60(3)
	.cfi_offset 65, 4
	.cfi_offset 63, -8
	.loc 2 227 0
	lwz 11,96(3)
	.loc 2 225 0
	fadds 31,31,0
	lfs 0,.LC3@l(9)
	.loc 2 227 0
	cmpwi 7,11,0
	.loc 2 225 0
	fmuls 31,31,0
	lfs 0,112(3)
	fmuls 31,31,0
.LVL63:
	.loc 2 227 0
	beq- 7,.L52
	.loc 2 228 0
	lwz 9,0(11)
	mr 3,11
.LVL64:
	lwz 0,116(9)
	mtctr 0
	bctrl
	fmuls 31,31,1
.LVL65:
.L52:
.LBE1441:
	.loc 2 231 0
	lwz 0,20(1)
	fmr 1,31
	lfd 31,8(1)
.LVL66:
	mtlr 0
	addi 1,1,16
.LCFI9:
	.cfi_def_cfa_offset 0
	.cfi_restore 63
	blr
	.cfi_endproc
.LFE1408:
	.size	_ZN10GuiElement8GetScaleEv, .-_ZN10GuiElement8GetScaleEv
	.section	.text._ZN10GuiElement9GetScaleXEv,"axG",@progbits,_ZN10GuiElement9GetScaleXEv,comdat
	.align 2
	.weak	_ZN10GuiElement9GetScaleXEv
	.type	_ZN10GuiElement9GetScaleXEv, @function
_ZN10GuiElement9GetScaleXEv:
.LFB1409:
	.loc 2 234 0
	.cfi_startproc
.LVL67:
	mflr 0
	stwu 1,-16(1)
.LCFI10:
	.cfi_def_cfa_offset 16
	.cfi_register 65, 0
	stfd 31,8(1)
	stw 0,20(1)
.LBB1442:
	.loc 2 238 0
	lwz 11,96(3)
	.loc 2 236 0
	lfs 31,60(3)
	.cfi_offset 65, 4
	.cfi_offset 63, -8
	.loc 2 238 0
	cmpwi 7,11,0
	.loc 2 236 0
	lfs 0,112(3)
	fmuls 31,31,0
.LVL68:
	.loc 2 238 0
	beq- 7,.L54
	.loc 2 239 0
	lwz 9,0(11)
	mr 3,11
.LVL69:
	lwz 0,120(9)
	mtctr 0
	bctrl
	fmuls 31,31,1
.LVL70:
.L54:
.LBE1442:
	.loc 2 242 0
	lwz 0,20(1)
	fmr 1,31
	lfd 31,8(1)
.LVL71:
	mtlr 0
	addi 1,1,16
.LCFI11:
	.cfi_def_cfa_offset 0
	.cfi_restore 63
	blr
	.cfi_endproc
.LFE1409:
	.size	_ZN10GuiElement9GetScaleXEv, .-_ZN10GuiElement9GetScaleXEv
	.section	.text._ZN10GuiElement9GetScaleYEv,"axG",@progbits,_ZN10GuiElement9GetScaleYEv,comdat
	.align 2
	.weak	_ZN10GuiElement9GetScaleYEv
	.type	_ZN10GuiElement9GetScaleYEv, @function
_ZN10GuiElement9GetScaleYEv:
.LFB1410:
	.loc 2 245 0
	.cfi_startproc
.LVL72:
	mflr 0
	stwu 1,-16(1)
.LCFI12:
	.cfi_def_cfa_offset 16
	.cfi_register 65, 0
	stfd 31,8(1)
	stw 0,20(1)
.LBB1443:
	.loc 2 249 0
	lwz 11,96(3)
	.loc 2 247 0
	lfs 31,64(3)
	.cfi_offset 65, 4
	.cfi_offset 63, -8
	.loc 2 249 0
	cmpwi 7,11,0
	.loc 2 247 0
	lfs 0,112(3)
	fmuls 31,31,0
.LVL73:
	.loc 2 249 0
	beq- 7,.L56
	.loc 2 250 0
	lwz 9,0(11)
	mr 3,11
.LVL74:
	lwz 0,124(9)
	mtctr 0
	bctrl
	fmuls 31,31,1
.LVL75:
.L56:
.LBE1443:
	.loc 2 253 0
	lwz 0,20(1)
	fmr 1,31
	lfd 31,8(1)
.LVL76:
	mtlr 0
	addi 1,1,16
.LCFI13:
	.cfi_def_cfa_offset 0
	.cfi_restore 63
	blr
	.cfi_endproc
.LFE1410:
	.size	_ZN10GuiElement9GetScaleYEv, .-_ZN10GuiElement9GetScaleYEv
	.section	.text._ZN10GuiElement6RumbleEv,"axG",@progbits,_ZN10GuiElement6RumbleEv,comdat
	.align 2
	.weak	_ZN10GuiElement6RumbleEv
	.type	_ZN10GuiElement6RumbleEv, @function
_ZN10GuiElement6RumbleEv:
.LFB1411:
	.loc 2 256 0
	.cfi_startproc
.LVL77:
	.loc 2 256 0
	lbz 3,28(3)
.LVL78:
	blr
	.cfi_endproc
.LFE1411:
	.size	_ZN10GuiElement6RumbleEv, .-_ZN10GuiElement6RumbleEv
	.section	.text._ZN10GuiElement9SetRumbleEb,"axG",@progbits,_ZN10GuiElement9SetRumbleEb,comdat
	.align 2
	.weak	_ZN10GuiElement9SetRumbleEb
	.type	_ZN10GuiElement9SetRumbleEb, @function
_ZN10GuiElement9SetRumbleEb:
.LFB1412:
	.loc 2 259 0
	.cfi_startproc
.LVL79:
	.loc 2 259 0
	stb 4,28(3)
	blr
	.cfi_endproc
.LFE1412:
	.size	_ZN10GuiElement9SetRumbleEb, .-_ZN10GuiElement9SetRumbleEb
	.section	.text._ZN10GuiElement13SetEffectGrowEv,"axG",@progbits,_ZN10GuiElement13SetEffectGrowEv,comdat
	.align 2
	.weak	_ZN10GuiElement13SetEffectGrowEv
	.type	_ZN10GuiElement13SetEffectGrowEv, @function
_ZN10GuiElement13SetEffectGrowEv:
.LFB1413:
	.loc 2 271 0
	.cfi_startproc
.LVL80:
	mflr 0
	stwu 1,-8(1)
.LCFI14:
	.cfi_def_cfa_offset 8
	.cfi_register 65, 0
	lwz 9,0(3)
	li 4,256
	li 5,4
	li 6,110
	stw 0,12(1)
	.loc 2 271 0
	lwz 0,140(9)
	.cfi_offset 65, 4
	mtctr 0
	bctrl
.LVL81:
	lwz 0,12(1)
	addi 1,1,8
.LCFI15:
	.cfi_def_cfa_offset 0
	mtlr 0
	blr
	.cfi_endproc
.LFE1413:
	.size	_ZN10GuiElement13SetEffectGrowEv, .-_ZN10GuiElement13SetEffectGrowEv
	.section	.text._ZNK10GuiElement9GetEffectEv,"axG",@progbits,_ZNK10GuiElement9GetEffectEv,comdat
	.align 2
	.weak	_ZNK10GuiElement9GetEffectEv
	.type	_ZNK10GuiElement9GetEffectEv, @function
_ZNK10GuiElement9GetEffectEv:
.LFB1414:
	.loc 2 276 0
	.cfi_startproc
.LVL82:
	.loc 2 276 0
	lwz 3,120(3)
.LVL83:
	blr
	.cfi_endproc
.LFE1414:
	.size	_ZNK10GuiElement9GetEffectEv, .-_ZNK10GuiElement9GetEffectEv
	.section	.text._ZNK10GuiElement10IsAnimatedEv,"axG",@progbits,_ZNK10GuiElement10IsAnimatedEv,comdat
	.align 2
	.weak	_ZNK10GuiElement10IsAnimatedEv
	.type	_ZNK10GuiElement10IsAnimatedEv, @function
_ZNK10GuiElement10IsAnimatedEv:
.LFB1415:
	.loc 2 278 0
	.cfi_startproc
.LVL84:
	mflr 0
	stwu 1,-8(1)
.LCFI16:
	.cfi_def_cfa_offset 8
	.cfi_register 65, 0
	stw 0,12(1)
	.loc 2 278 0
	lwz 9,0(3)
	lwz 0,152(9)
	.cfi_offset 65, 4
	mtctr 0
	bctrl
.LVL85:
	srawi 0,3,31
	subf 3,3,0
	lwz 0,12(1)
	srwi 3,3,31
	mtlr 0
	addi 1,1,8
.LCFI17:
	.cfi_def_cfa_offset 0
	blr
	.cfi_endproc
.LFE1415:
	.size	_ZNK10GuiElement10IsAnimatedEv, .-_ZNK10GuiElement10IsAnimatedEv
	.section	.text._ZN10GuiElement9SetBoundsE4RectIiE,"axG",@progbits,_ZN10GuiElement9SetBoundsE4RectIiE,comdat
	.align 2
	.weak	_ZN10GuiElement9SetBoundsE4RectIiE
	.type	_ZN10GuiElement9SetBoundsE4RectIiE, @function
_ZN10GuiElement9SetBoundsE4RectIiE:
.LFB1416:
	.loc 2 280 0
	.cfi_startproc
.LVL86:
.LBB1444:
.LBB1445:
	.file 5 "d:/Projects/SaveGameManager/savegame-manager-gx/trunk/source/GUI/../Tools/Rect.h"
	.loc 5 30 0
	lwz 10,0(4)
.LBE1445:
.LBE1444:
	.loc 2 280 0
.LBB1447:
.LBB1446:
	.loc 5 31 0
	lwz 11,8(4)
	.loc 5 32 0
	lwz 9,4(4)
	.loc 5 33 0
	lwz 0,12(4)
.LVL87:
	.loc 5 30 0
	stw 10,80(3)
	.loc 5 31 0
	stw 11,88(3)
	.loc 5 32 0
	stw 9,84(3)
	.loc 5 33 0
	stw 0,92(3)
.LBE1446:
.LBE1447:
	.loc 2 280 0
	blr
	.cfi_endproc
.LFE1416:
	.size	_ZN10GuiElement9SetBoundsE4RectIiE, .-_ZN10GuiElement9SetBoundsE4RectIiE
	.section	.text._ZN10GuiElement8IsInsideEii,"axG",@progbits,_ZN10GuiElement8IsInsideEii,comdat
	.align 2
	.weak	_ZN10GuiElement8IsInsideEii
	.type	_ZN10GuiElement8IsInsideEii, @function
_ZN10GuiElement8IsInsideEii:
.LFB1417:
	.loc 2 285 0
	.cfi_startproc
.LVL88:
	mflr 0
	stwu 1,-24(1)
.LCFI18:
	.cfi_def_cfa_offset 24
	.cfi_register 65, 0
	stw 28,8(1)
	mr 28,5
	.cfi_offset 28, -16
	stw 0,28(1)
	stw 29,12(1)
	.loc 2 290 0
	li 29,0
	.cfi_offset 29, -12
	.cfi_offset 65, 4
	.loc 2 287 0
	lwz 9,0(3)
	.loc 2 285 0
	stw 30,16(1)
	mr 30,4
	.cfi_offset 30, -8
	.loc 2 287 0
	lwz 0,16(9)
	.loc 2 285 0
	stw 31,20(1)
	.loc 2 285 0
	mr 31,3
	.cfi_offset 31, -4
	.loc 2 287 0
	mtctr 0
	bctrl
.LVL89:
	.loc 2 290 0
	cmpw 7,3,30
	blt- 7,.L68
.L64:
	.loc 2 291 0 discriminator 6
	lwz 0,28(1)
	mr 3,29
	lwz 28,8(1)
.LVL90:
	mtlr 0
	lwz 29,12(1)
	lwz 30,16(1)
.LVL91:
	lwz 31,20(1)
.LVL92:
	addi 1,1,24
	.cfi_remember_state
.LCFI19:
	.cfi_def_cfa_offset 0
	.cfi_restore 31
	.cfi_restore 30
	.cfi_restore 29
	.cfi_restore 28
	blr
.LVL93:
.L68:
.LCFI20:
	.cfi_restore_state
	.loc 2 288 0 discriminator 1
	lwz 9,0(31)
	mr 3,31
	lwz 0,16(9)
	mtctr 0
	bctrl
	.loc 2 290 0 discriminator 1
	lwz 0,36(31)
	add 0,3,0
	cmpw 7,30,0
	bge+ 7,.L64
	.loc 2 289 0 discriminator 3
	lwz 9,0(31)
	mr 3,31
	lwz 0,20(9)
	mtctr 0
	bctrl
	.loc 2 290 0 discriminator 3
	cmpw 7,3,28
	bge+ 7,.L64
	.loc 2 290 0 is_stmt 0 discriminator 4
	lwz 9,0(31)
	mr 3,31
	lwz 0,20(9)
	mtctr 0
	bctrl
	lwz 0,40(31)
	add 0,3,0
	.loc 2 285 0 is_stmt 1 discriminator 4
	cmpw 7,28,0
	mfcr 29
	rlwinm 29,29,29,1
	b .L64
	.cfi_endproc
.LFE1417:
	.size	_ZN10GuiElement8IsInsideEii, .-_ZN10GuiElement8IsInsideEii
	.section	.text._ZN10GuiElement11SetPositionEii,"axG",@progbits,_ZN10GuiElement11SetPositionEii,comdat
	.align 2
	.weak	_ZN10GuiElement11SetPositionEii
	.type	_ZN10GuiElement11SetPositionEii, @function
_ZN10GuiElement11SetPositionEii:
.LFB1418:
	.loc 2 295 0
	.cfi_startproc
.LVL94:
	.loc 2 297 0
	stw 4,44(3)
	.loc 2 299 0
	.loc 2 298 0
	stw 5,48(3)
	.loc 2 299 0
	blr
	.cfi_endproc
.LFE1418:
	.size	_ZN10GuiElement11SetPositionEii, .-_ZN10GuiElement11SetPositionEii
	.section	.text._ZN10GuiElement11SetPositionEiii,"axG",@progbits,_ZN10GuiElement11SetPositionEiii,comdat
	.align 2
	.weak	_ZN10GuiElement11SetPositionEiii
	.type	_ZN10GuiElement11SetPositionEiii, @function
_ZN10GuiElement11SetPositionEiii:
.LFB1419:
	.loc 2 304 0
	.cfi_startproc
.LVL95:
	.loc 2 306 0
	stw 4,44(3)
	.loc 2 309 0
	.loc 2 307 0
	stw 5,48(3)
	.loc 2 308 0
	stw 6,52(3)
	.loc 2 309 0
	blr
	.cfi_endproc
.LFE1419:
	.size	_ZN10GuiElement11SetPositionEiii, .-_ZN10GuiElement11SetPositionEiii
	.section	.text._ZN10GuiElement11GetSelectedEv,"axG",@progbits,_ZN10GuiElement11GetSelectedEv,comdat
	.align 2
	.weak	_ZN10GuiElement11GetSelectedEv
	.type	_ZN10GuiElement11GetSelectedEv, @function
_ZN10GuiElement11GetSelectedEv:
.LFB1420:
	.loc 2 312 0
	.cfi_startproc
.LVL96:
	.loc 2 312 0
	li 3,-1
.LVL97:
	blr
	.cfi_endproc
.LFE1420:
	.size	_ZN10GuiElement11GetSelectedEv, .-_ZN10GuiElement11GetSelectedEv
	.section	.text._ZN10GuiElement12SetAlignmentEi,"axG",@progbits,_ZN10GuiElement12SetAlignmentEi,comdat
	.align 2
	.weak	_ZN10GuiElement12SetAlignmentEi
	.type	_ZN10GuiElement12SetAlignmentEi, @function
_ZN10GuiElement12SetAlignmentEi:
.LFB1421:
	.loc 2 316 0
	.cfi_startproc
.LVL98:
	.loc 2 316 0
	stw 4,68(3)
	blr
	.cfi_endproc
.LFE1421:
	.size	_ZN10GuiElement12SetAlignmentEi, .-_ZN10GuiElement12SetAlignmentEi
	.section	.text._ZNK10GuiElement12GetAlignmentEv,"axG",@progbits,_ZNK10GuiElement12GetAlignmentEv,comdat
	.align 2
	.weak	_ZNK10GuiElement12GetAlignmentEv
	.type	_ZNK10GuiElement12GetAlignmentEv, @function
_ZNK10GuiElement12GetAlignmentEv:
.LFB1422:
	.loc 2 318 0
	.cfi_startproc
.LVL99:
	.loc 2 318 0
	lwz 3,68(3)
.LVL100:
	blr
	.cfi_endproc
.LFE1422:
	.size	_ZNK10GuiElement12GetAlignmentEv, .-_ZNK10GuiElement12GetAlignmentEv
	.section	.text._ZN10GuiElement6UpdateEP10GuiTrigger,"axG",@progbits,_ZN10GuiElement6UpdateEP10GuiTrigger,comdat
	.align 2
	.weak	_ZN10GuiElement6UpdateEP10GuiTrigger
	.type	_ZN10GuiElement6UpdateEP10GuiTrigger, @function
_ZN10GuiElement6UpdateEP10GuiTrigger:
.LFB1423:
	.loc 2 321 0
	.cfi_startproc
.LVL101:
	.loc 2 321 0
	blr
	.cfi_endproc
.LFE1423:
	.size	_ZN10GuiElement6UpdateEP10GuiTrigger, .-_ZN10GuiElement6UpdateEP10GuiTrigger
	.section	.text._ZN7sigslot12_signal_baseINS_15single_threadedEED2Ev,"axG",@progbits,_ZN7sigslot12_signal_baseINS_15single_threadedEED5Ev,comdat
	.align 2
	.weak	_ZN7sigslot12_signal_baseINS_15single_threadedEED2Ev
	.type	_ZN7sigslot12_signal_baseINS_15single_threadedEED2Ev, @function
_ZN7sigslot12_signal_baseINS_15single_threadedEED2Ev:
.LFB1462:
	.loc 1 466 0
	.cfi_startproc
.LVL102:
.LBB1448:
.LBB1449:
.LBB1450:
.LBB1451:
	.loc 1 105 0
	lis 9,_ZTVN7sigslot15single_threadedE+8@ha
.LBE1451:
.LBE1450:
.LBE1449:
.LBE1448:
	.loc 1 466 0
.LBB1455:
.LBB1454:
.LBB1453:
.LBB1452:
	.loc 1 105 0
	la 0,_ZTVN7sigslot15single_threadedE+8@l(9)
	stw 0,0(3)
.LBE1452:
.LBE1453:
.LBE1454:
.LBE1455:
	.loc 1 466 0
	blr
	.cfi_endproc
.LFE1462:
	.size	_ZN7sigslot12_signal_baseINS_15single_threadedEED2Ev, .-_ZN7sigslot12_signal_baseINS_15single_threadedEED2Ev
	.section	.text._ZN7sigslot13_signal_base3IP10GuiElementiiNS_15single_threadedEE14slot_duplicateEPKNS_9has_slotsIS3_EEPS6_,"axG",@progbits,_ZN7sigslot13_signal_base3IP10GuiElementiiNS_15single_threadedEE14slot_duplicateEPKNS_9has_slotsIS3_EEPS6_,comdat
	.align 2
	.weak	_ZN7sigslot13_signal_base3IP10GuiElementiiNS_15single_threadedEE14slot_duplicateEPKNS_9has_slotsIS3_EEPS6_
	.type	_ZN7sigslot13_signal_base3IP10GuiElementiiNS_15single_threadedEE14slot_duplicateEPKNS_9has_slotsIS3_EEPS6_, @function
_ZN7sigslot13_signal_base3IP10GuiElementiiNS_15single_threadedEE14slot_duplicateEPKNS_9has_slotsIS3_EEPS6_:
.LFB1667:
	.loc 1 926 0
	.cfi_startproc
	.cfi_personality 0,__gxx_personality_v0
	.cfi_lsda 0,.LLSDA1667
.LVL103:
	mflr 0
	stwu 1,-32(1)
.LCFI21:
	.cfi_def_cfa_offset 32
	.cfi_register 65, 0
	stw 26,8(1)
	mr 26,5
	.cfi_offset 26, -24
	stw 0,36(1)
	stw 27,12(1)
	mr 27,3
	.cfi_offset 27, -20
	.cfi_offset 65, 4
.LVL104:
.LBB1456:
.LBB1457:
.LBB1458:
	.loc 1 338 0
	lwz 9,0(3)
.LBE1458:
.LBE1457:
.LBE1456:
	.loc 1 926 0
	stw 29,20(1)
	mr 29,4
	.cfi_offset 29, -12
.LBB1487:
.LBB1463:
.LBB1459:
	.loc 1 338 0
	lwz 0,8(9)
.LBE1459:
.LBE1463:
.LBE1487:
	.loc 1 926 0
	stw 30,24(1)
.LBB1488:
.LBB1464:
.LBB1460:
	.loc 3 302 0
	mr 30,27
	.cfi_offset 30, -8
.LBE1460:
.LBE1464:
.LBE1488:
	.loc 1 926 0
	stw 31,28(1)
.LBB1489:
.LBB1465:
.LBB1461:
	.loc 1 338 0
	mtctr 0
.LBE1461:
.LBE1465:
.LBE1489:
	.loc 1 926 0
	stw 28,16(1)
.LEHB4:
.LBB1490:
.LBB1466:
.LBB1462:
	.loc 1 338 0
	.cfi_offset 28, -16
	.cfi_offset 31, -4
	bctrl
.LEHE4:
.LVL105:
	.loc 3 302 0
	lwzu 31,4(30)
.LVL106:
.LBE1462:
.LBE1466:
	.loc 1 932 0
	cmpw 7,31,30
	bne+ 7,.L88
	b .L79
.LVL107:
.L80:
.LBB1467:
.LBB1468:
	.loc 4 154 0
	lwz 31,0(31)
.LVL108:
.LBE1468:
.LBE1467:
	.loc 1 932 0
	cmpw 7,30,31
	beq- 7,.L79
.LVL109:
.L88:
	.loc 1 934 0
	lwz 3,8(31)
	lwz 9,0(3)
	lwz 0,8(9)
	mtctr 0
.LEHB5:
	bctrl
	cmpw 7,29,3
	bne+ 7,.L80
.LVL110:
	.loc 1 936 0
	lwz 3,8(31)
	mr 4,26
	lwz 9,0(3)
	lwz 0,20(9)
	mtctr 0
	bctrl
	mr 28,3
.LVL111:
.LBB1470:
.LBB1471:
.LBB1472:
.LBB1473:
.LBB1474:
.LBB1475:
.LBB1476:
.LBB1477:
	.file 6 "d:\\devkitpro\\devkitppc\\bin\\../lib/gcc/powerpc-eabi/4.6.3/../../../../powerpc-eabi/include/c++/4.6.3/ext/new_allocator.h"
	.loc 6 92 0
	li 3,12
	bl _Znwj
.LEHE5:
.LVL112:
.LBE1477:
.LBE1476:
.LBE1475:
.LBB1478:
.LBB1479:
	.loc 6 108 0 discriminator 1
	cmpwi 7,3,-8
	beq- 7,.L82
	.loc 6 108 0 is_stmt 0
	stw 28,8(3)
.L82:
.LVL113:
.LBE1479:
.LBE1478:
.LBE1474:
.LBE1473:
	.loc 4 1516 0 is_stmt 1
	mr 4,30
	bl _ZNSt8__detail15_List_node_base7_M_hookEPS0_
.LVL114:
.LBE1472:
.LBE1471:
.LBE1470:
.LBB1480:
.LBB1469:
	.loc 4 154 0
	lwz 31,0(31)
.LVL115:
.LBE1469:
.LBE1480:
	.loc 1 932 0
	cmpw 7,30,31
	bne+ 7,.L88
.LVL116:
.L79:
.LBB1481:
.LBB1482:
.LBB1483:
	.loc 1 343 0
	lwz 9,0(27)
	mr 3,27
	lwz 0,12(9)
	mtctr 0
.LEHB6:
	bctrl
.LEHE6:
.LBE1483:
.LBE1482:
.LBE1481:
.LBE1490:
	.loc 1 941 0
	lwz 0,36(1)
	lwz 26,8(1)
.LVL117:
	mtlr 0
	lwz 27,12(1)
.LVL118:
	lwz 28,16(1)
	lwz 29,20(1)
.LVL119:
	lwz 30,24(1)
.LVL120:
	lwz 31,28(1)
.LVL121:
	addi 1,1,32
	.cfi_remember_state
.LCFI22:
	.cfi_def_cfa_offset 0
	.cfi_restore 31
	.cfi_restore 30
	.cfi_restore 29
	.cfi_restore 28
	.cfi_restore 27
	.cfi_restore 26
	blr
.LVL122:
.L87:
.LCFI23:
	.cfi_restore_state
.LBB1491:
.LBB1484:
.LBB1485:
.LBB1486:
	.loc 1 343 0
	lwz 9,0(27)
	mr 31,3
.LVL123:
	mr 3,27
	lwz 0,12(9)
	mtctr 0
	bctrl
	mr 3,31
.LEHB7:
	bl _Unwind_Resume
.LEHE7:
.LBE1486:
.LBE1485:
.LBE1484:
.LBE1491:
	.cfi_endproc
.LFE1667:
	.section	.gcc_except_table
.LLSDA1667:
	.byte	0xff
	.byte	0xff
	.byte	0x1
	.uleb128 .LLSDACSE1667-.LLSDACSB1667
.LLSDACSB1667:
	.uleb128 .LEHB4-.LFB1667
	.uleb128 .LEHE4-.LEHB4
	.uleb128 0
	.uleb128 0
	.uleb128 .LEHB5-.LFB1667
	.uleb128 .LEHE5-.LEHB5
	.uleb128 .L87-.LFB1667
	.uleb128 0
	.uleb128 .LEHB6-.LFB1667
	.uleb128 .LEHE6-.LEHB6
	.uleb128 0
	.uleb128 0
	.uleb128 .LEHB7-.LFB1667
	.uleb128 .LEHE7-.LEHB7
	.uleb128 0
	.uleb128 0
.LLSDACSE1667:
	.section	.text._ZN7sigslot13_signal_base3IP10GuiElementiiNS_15single_threadedEE14slot_duplicateEPKNS_9has_slotsIS3_EEPS6_,"axG",@progbits,_ZN7sigslot13_signal_base3IP10GuiElementiiNS_15single_threadedEE14slot_duplicateEPKNS_9has_slotsIS3_EEPS6_,comdat
	.size	_ZN7sigslot13_signal_base3IP10GuiElementiiNS_15single_threadedEE14slot_duplicateEPKNS_9has_slotsIS3_EEPS6_, .-_ZN7sigslot13_signal_base3IP10GuiElementiiNS_15single_threadedEE14slot_duplicateEPKNS_9has_slotsIS3_EEPS6_
	.section	.text._ZN7sigslot13_signal_base2IP10GuiElementbNS_15single_threadedEE14slot_duplicateEPKNS_9has_slotsIS3_EEPS6_,"axG",@progbits,_ZN7sigslot13_signal_base2IP10GuiElementbNS_15single_threadedEE14slot_duplicateEPKNS_9has_slotsIS3_EEPS6_,comdat
	.align 2
	.weak	_ZN7sigslot13_signal_base2IP10GuiElementbNS_15single_threadedEE14slot_duplicateEPKNS_9has_slotsIS3_EEPS6_
	.type	_ZN7sigslot13_signal_base2IP10GuiElementbNS_15single_threadedEE14slot_duplicateEPKNS_9has_slotsIS3_EEPS6_, @function
_ZN7sigslot13_signal_base2IP10GuiElementbNS_15single_threadedEE14slot_duplicateEPKNS_9has_slotsIS3_EEPS6_:
.LFB1669:
	.loc 1 806 0
	.cfi_startproc
	.cfi_personality 0,__gxx_personality_v0
	.cfi_lsda 0,.LLSDA1669
.LVL124:
	mflr 0
	stwu 1,-32(1)
.LCFI24:
	.cfi_def_cfa_offset 32
	.cfi_register 65, 0
	stw 26,8(1)
	mr 26,5
	.cfi_offset 26, -24
	stw 0,36(1)
	stw 27,12(1)
	mr 27,3
	.cfi_offset 27, -20
	.cfi_offset 65, 4
.LVL125:
.LBB1492:
.LBB1493:
.LBB1494:
	.loc 1 338 0
	lwz 9,0(3)
.LBE1494:
.LBE1493:
.LBE1492:
	.loc 1 806 0
	stw 29,20(1)
	mr 29,4
	.cfi_offset 29, -12
.LBB1523:
.LBB1499:
.LBB1495:
	.loc 1 338 0
	lwz 0,8(9)
.LBE1495:
.LBE1499:
.LBE1523:
	.loc 1 806 0
	stw 30,24(1)
.LBB1524:
.LBB1500:
.LBB1496:
	.loc 3 302 0
	mr 30,27
	.cfi_offset 30, -8
.LBE1496:
.LBE1500:
.LBE1524:
	.loc 1 806 0
	stw 31,28(1)
.LBB1525:
.LBB1501:
.LBB1497:
	.loc 1 338 0
	mtctr 0
.LBE1497:
.LBE1501:
.LBE1525:
	.loc 1 806 0
	stw 28,16(1)
.LEHB8:
.LBB1526:
.LBB1502:
.LBB1498:
	.loc 1 338 0
	.cfi_offset 28, -16
	.cfi_offset 31, -4
	bctrl
.LEHE8:
.LVL126:
	.loc 3 302 0
	lwzu 31,4(30)
.LVL127:
.LBE1498:
.LBE1502:
	.loc 1 812 0
	cmpw 7,31,30
	bne+ 7,.L100
	b .L91
.LVL128:
.L92:
.LBB1503:
.LBB1504:
	.loc 4 154 0
	lwz 31,0(31)
.LVL129:
.LBE1504:
.LBE1503:
	.loc 1 812 0
	cmpw 7,30,31
	beq- 7,.L91
.LVL130:
.L100:
	.loc 1 814 0
	lwz 3,8(31)
	lwz 9,0(3)
	lwz 0,8(9)
	mtctr 0
.LEHB9:
	bctrl
	cmpw 7,29,3
	bne+ 7,.L92
.LVL131:
	.loc 1 816 0
	lwz 3,8(31)
	mr 4,26
	lwz 9,0(3)
	lwz 0,20(9)
	mtctr 0
	bctrl
	mr 28,3
.LVL132:
.LBB1506:
.LBB1507:
.LBB1508:
.LBB1509:
.LBB1510:
.LBB1511:
.LBB1512:
.LBB1513:
	.loc 6 92 0
	li 3,12
	bl _Znwj
.LEHE9:
.LVL133:
.LBE1513:
.LBE1512:
.LBE1511:
.LBB1514:
.LBB1515:
	.loc 6 108 0 discriminator 1
	cmpwi 7,3,-8
	beq- 7,.L94
	.loc 6 108 0 is_stmt 0
	stw 28,8(3)
.L94:
.LVL134:
.LBE1515:
.LBE1514:
.LBE1510:
.LBE1509:
	.loc 4 1516 0 is_stmt 1
	mr 4,30
	bl _ZNSt8__detail15_List_node_base7_M_hookEPS0_
.LVL135:
.LBE1508:
.LBE1507:
.LBE1506:
.LBB1516:
.LBB1505:
	.loc 4 154 0
	lwz 31,0(31)
.LVL136:
.LBE1505:
.LBE1516:
	.loc 1 812 0
	cmpw 7,30,31
	bne+ 7,.L100
.LVL137:
.L91:
.LBB1517:
.LBB1518:
.LBB1519:
	.loc 1 343 0
	lwz 9,0(27)
	mr 3,27
	lwz 0,12(9)
	mtctr 0
.LEHB10:
	bctrl
.LEHE10:
.LBE1519:
.LBE1518:
.LBE1517:
.LBE1526:
	.loc 1 821 0
	lwz 0,36(1)
	lwz 26,8(1)
.LVL138:
	mtlr 0
	lwz 27,12(1)
.LVL139:
	lwz 28,16(1)
	lwz 29,20(1)
.LVL140:
	lwz 30,24(1)
.LVL141:
	lwz 31,28(1)
.LVL142:
	addi 1,1,32
	.cfi_remember_state
.LCFI25:
	.cfi_def_cfa_offset 0
	.cfi_restore 31
	.cfi_restore 30
	.cfi_restore 29
	.cfi_restore 28
	.cfi_restore 27
	.cfi_restore 26
	blr
.LVL143:
.L99:
.LCFI26:
	.cfi_restore_state
.LBB1527:
.LBB1520:
.LBB1521:
.LBB1522:
	.loc 1 343 0
	lwz 9,0(27)
	mr 31,3
.LVL144:
	mr 3,27
	lwz 0,12(9)
	mtctr 0
	bctrl
	mr 3,31
.LEHB11:
	bl _Unwind_Resume
.LEHE11:
.LBE1522:
.LBE1521:
.LBE1520:
.LBE1527:
	.cfi_endproc
.LFE1669:
	.section	.gcc_except_table
.LLSDA1669:
	.byte	0xff
	.byte	0xff
	.byte	0x1
	.uleb128 .LLSDACSE1669-.LLSDACSB1669
.LLSDACSB1669:
	.uleb128 .LEHB8-.LFB1669
	.uleb128 .LEHE8-.LEHB8
	.uleb128 0
	.uleb128 0
	.uleb128 .LEHB9-.LFB1669
	.uleb128 .LEHE9-.LEHB9
	.uleb128 .L99-.LFB1669
	.uleb128 0
	.uleb128 .LEHB10-.LFB1669
	.uleb128 .LEHE10-.LEHB10
	.uleb128 0
	.uleb128 0
	.uleb128 .LEHB11-.LFB1669
	.uleb128 .LEHE11-.LEHB11
	.uleb128 0
	.uleb128 0
.LLSDACSE1669:
	.section	.text._ZN7sigslot13_signal_base2IP10GuiElementbNS_15single_threadedEE14slot_duplicateEPKNS_9has_slotsIS3_EEPS6_,"axG",@progbits,_ZN7sigslot13_signal_base2IP10GuiElementbNS_15single_threadedEE14slot_duplicateEPKNS_9has_slotsIS3_EEPS6_,comdat
	.size	_ZN7sigslot13_signal_base2IP10GuiElementbNS_15single_threadedEE14slot_duplicateEPKNS_9has_slotsIS3_EEPS6_, .-_ZN7sigslot13_signal_base2IP10GuiElementbNS_15single_threadedEE14slot_duplicateEPKNS_9has_slotsIS3_EEPS6_
	.section	.text._ZN7sigslot12_signal_baseINS_15single_threadedEED0Ev,"axG",@progbits,_ZN7sigslot12_signal_baseINS_15single_threadedEED5Ev,comdat
	.align 2
	.weak	_ZN7sigslot12_signal_baseINS_15single_threadedEED0Ev
	.type	_ZN7sigslot12_signal_baseINS_15single_threadedEED0Ev, @function
_ZN7sigslot12_signal_baseINS_15single_threadedEED0Ev:
.LFB1464:
	.loc 1 466 0
	.cfi_startproc
.LVL145:
	mflr 0
	stwu 1,-8(1)
.LCFI27:
	.cfi_def_cfa_offset 8
	.cfi_register 65, 0
.LBB1528:
.LBB1529:
.LBB1530:
.LBB1531:
.LBB1532:
.LBB1533:
	.loc 1 105 0
	lis 9,_ZTVN7sigslot15single_threadedE+8@ha
.LBE1533:
.LBE1532:
.LBE1531:
.LBE1530:
.LBE1529:
.LBE1528:
	.loc 1 466 0
	stw 0,12(1)
.LBB1539:
.LBB1538:
.LBB1537:
.LBB1536:
.LBB1535:
.LBB1534:
	.loc 1 105 0
	la 0,_ZTVN7sigslot15single_threadedE+8@l(9)
	.cfi_offset 65, 4
	stw 0,0(3)
.LBE1534:
.LBE1535:
.LBE1536:
.LBE1537:
.LBE1538:
.LBE1539:
	.loc 1 466 0
	bl _ZdlPv
.LVL146:
	lwz 0,12(1)
	addi 1,1,8
.LCFI28:
	.cfi_def_cfa_offset 0
	mtlr 0
	blr
	.cfi_endproc
.LFE1464:
	.size	_ZN7sigslot12_signal_baseINS_15single_threadedEED0Ev, .-_ZN7sigslot12_signal_baseINS_15single_threadedEED0Ev
	.section	.text._ZN7sigslot15single_threadedD0Ev,"axG",@progbits,_ZN7sigslot15single_threadedD5Ev,comdat
	.align 2
	.weak	_ZN7sigslot15single_threadedD0Ev
	.type	_ZN7sigslot15single_threadedD0Ev, @function
_ZN7sigslot15single_threadedD0Ev:
.LFB1150:
	.loc 1 104 0
	.cfi_startproc
.LVL147:
	mflr 0
	stwu 1,-8(1)
.LCFI29:
	.cfi_def_cfa_offset 8
	.cfi_register 65, 0
.LBB1540:
.LBB1541:
.LBB1542:
	.loc 1 105 0
	lis 9,_ZTVN7sigslot15single_threadedE+8@ha
.LBE1542:
.LBE1541:
.LBE1540:
	.loc 1 104 0
	stw 0,12(1)
.LBB1545:
.LBB1544:
.LBB1543:
	.loc 1 105 0
	la 0,_ZTVN7sigslot15single_threadedE+8@l(9)
	.cfi_offset 65, 4
	stw 0,0(3)
.LBE1543:
.LBE1544:
.LBE1545:
	.loc 1 107 0
	bl _ZdlPv
.LVL148:
	lwz 0,12(1)
	addi 1,1,8
.LCFI30:
	.cfi_def_cfa_offset 0
	mtlr 0
	blr
	.cfi_endproc
.LFE1150:
	.size	_ZN7sigslot15single_threadedD0Ev, .-_ZN7sigslot15single_threadedD0Ev
	.section	.text._ZN7sigslot13_signal_base3IP10GuiElementiiNS_15single_threadedEE15slot_disconnectEPNS_9has_slotsIS3_EE,"axG",@progbits,_ZN7sigslot13_signal_base3IP10GuiElementiiNS_15single_threadedEE15slot_disconnectEPNS_9has_slotsIS3_EE,comdat
	.align 2
	.weak	_ZN7sigslot13_signal_base3IP10GuiElementiiNS_15single_threadedEE15slot_disconnectEPNS_9has_slotsIS3_EE
	.type	_ZN7sigslot13_signal_base3IP10GuiElementiiNS_15single_threadedEE15slot_disconnectEPNS_9has_slotsIS3_EE, @function
_ZN7sigslot13_signal_base3IP10GuiElementiiNS_15single_threadedEE15slot_disconnectEPNS_9has_slotsIS3_EE:
.LFB1666:
	.loc 1 990 0
	.cfi_startproc
	.cfi_personality 0,__gxx_personality_v0
	.cfi_lsda 0,.LLSDA1666
.LVL149:
	mflr 0
	stwu 1,-32(1)
.LCFI31:
	.cfi_def_cfa_offset 32
	.cfi_register 65, 0
	stw 27,12(1)
	mr 27,3
	.cfi_offset 27, -20
.LVL150:
	stw 0,36(1)
	stw 28,16(1)
	mr 28,4
	.cfi_offset 28, -16
	.cfi_offset 65, 4
.LBB1546:
.LBB1547:
.LBB1548:
	.loc 1 338 0
	lwz 9,0(3)
.LBE1548:
.LBE1547:
.LBE1546:
	.loc 1 990 0
	stw 29,20(1)
.LBB1569:
.LBB1551:
.LBB1549:
	.loc 3 302 0
	mr 29,27
	.cfi_offset 29, -12
	.loc 1 338 0
	lwz 0,8(9)
.LBE1549:
.LBE1551:
.LBE1569:
	.loc 1 990 0
	stw 31,28(1)
	stw 30,24(1)
.LBB1570:
.LBB1552:
.LBB1550:
	.loc 1 338 0
	mtctr 0
.LEHB12:
	.cfi_offset 30, -8
	.cfi_offset 31, -4
	bctrl
.LEHE12:
.LVL151:
	.loc 3 302 0
	lwzu 31,4(29)
.LVL152:
.LBE1550:
.LBE1552:
	.loc 1 996 0
	cmpw 7,31,29
	bne+ 7,.L121
	b .L110
.LVL153:
.L111:
	.loc 1 996 0 is_stmt 0 discriminator 1
	cmpw 7,29,30
	beq- 7,.L110
.L119:
	.loc 1 996 0
	mr 31,30
.LVL154:
.L121:
.LBB1553:
	.loc 1 1001 0 is_stmt 1
	lwz 3,8(31)
.LBB1554:
.LBB1555:
	.loc 4 154 0
	lwz 30,0(31)
.LVL155:
.LBE1555:
.LBE1554:
	.loc 1 1001 0
	lwz 9,0(3)
	lwz 0,8(9)
	mtctr 0
.LEHB13:
	bctrl
.LVL156:
	cmpw 7,28,3
	bne+ 7,.L111
.LVL157:
	.loc 1 1003 0
	lwz 3,8(31)
	cmpwi 7,3,0
	beq- 7,.L112
	.loc 1 1003 0 is_stmt 0 discriminator 1
	lwz 9,0(3)
	lwz 0,4(9)
	mtctr 0
	bctrl
.LEHE13:
.L112:
.LVL158:
.LBB1556:
.LBB1557:
.LBB1558:
.LBB1559:
	.loc 4 1532 0 is_stmt 1
	mr 3,31
	bl _ZNSt8__detail15_List_node_base9_M_unhookEv
.LVL159:
.LBB1560:
.LBB1561:
.LBB1562:
	.loc 6 98 0
	mr 3,31
	bl _ZdlPv
.LVL160:
.LBE1562:
.LBE1561:
.LBE1560:
.LBE1559:
.LBE1558:
.LBE1557:
.LBE1556:
.LBE1553:
	.loc 1 996 0
	cmpw 7,29,30
	bne+ 7,.L119
.LVL161:
.L110:
.LBB1563:
.LBB1564:
.LBB1565:
	.loc 1 343 0
	lwz 9,0(27)
	mr 3,27
	lwz 0,12(9)
	mtctr 0
.LEHB14:
	bctrl
.LEHE14:
.LBE1565:
.LBE1564:
.LBE1563:
.LBE1570:
	.loc 1 1010 0
	lwz 0,36(1)
	lwz 27,12(1)
.LVL162:
	mtlr 0
	lwz 28,16(1)
.LVL163:
	lwz 29,20(1)
.LVL164:
	lwz 30,24(1)
	lwz 31,28(1)
	addi 1,1,32
	.cfi_remember_state
.LCFI32:
	.cfi_def_cfa_offset 0
	.cfi_restore 31
	.cfi_restore 30
	.cfi_restore 29
	.cfi_restore 28
	.cfi_restore 27
	blr
.LVL165:
.L120:
.LCFI33:
	.cfi_restore_state
.LBB1571:
.LBB1566:
.LBB1567:
.LBB1568:
	.loc 1 343 0
	lwz 9,0(27)
	mr 31,3
.LVL166:
	mr 3,27
	lwz 0,12(9)
	mtctr 0
	bctrl
	mr 3,31
.LEHB15:
	bl _Unwind_Resume
.LEHE15:
.LBE1568:
.LBE1567:
.LBE1566:
.LBE1571:
	.cfi_endproc
.LFE1666:
	.section	.gcc_except_table
.LLSDA1666:
	.byte	0xff
	.byte	0xff
	.byte	0x1
	.uleb128 .LLSDACSE1666-.LLSDACSB1666
.LLSDACSB1666:
	.uleb128 .LEHB12-.LFB1666
	.uleb128 .LEHE12-.LEHB12
	.uleb128 0
	.uleb128 0
	.uleb128 .LEHB13-.LFB1666
	.uleb128 .LEHE13-.LEHB13
	.uleb128 .L120-.LFB1666
	.uleb128 0
	.uleb128 .LEHB14-.LFB1666
	.uleb128 .LEHE14-.LEHB14
	.uleb128 0
	.uleb128 0
	.uleb128 .LEHB15-.LFB1666
	.uleb128 .LEHE15-.LEHB15
	.uleb128 0
	.uleb128 0
.LLSDACSE1666:
	.section	.text._ZN7sigslot13_signal_base3IP10GuiElementiiNS_15single_threadedEE15slot_disconnectEPNS_9has_slotsIS3_EE,"axG",@progbits,_ZN7sigslot13_signal_base3IP10GuiElementiiNS_15single_threadedEE15slot_disconnectEPNS_9has_slotsIS3_EE,comdat
	.size	_ZN7sigslot13_signal_base3IP10GuiElementiiNS_15single_threadedEE15slot_disconnectEPNS_9has_slotsIS3_EE, .-_ZN7sigslot13_signal_base3IP10GuiElementiiNS_15single_threadedEE15slot_disconnectEPNS_9has_slotsIS3_EE
	.section	.text._ZN7sigslot13_signal_base2IP10GuiElementbNS_15single_threadedEE15slot_disconnectEPNS_9has_slotsIS3_EE,"axG",@progbits,_ZN7sigslot13_signal_base2IP10GuiElementbNS_15single_threadedEE15slot_disconnectEPNS_9has_slotsIS3_EE,comdat
	.align 2
	.weak	_ZN7sigslot13_signal_base2IP10GuiElementbNS_15single_threadedEE15slot_disconnectEPNS_9has_slotsIS3_EE
	.type	_ZN7sigslot13_signal_base2IP10GuiElementbNS_15single_threadedEE15slot_disconnectEPNS_9has_slotsIS3_EE, @function
_ZN7sigslot13_signal_base2IP10GuiElementbNS_15single_threadedEE15slot_disconnectEPNS_9has_slotsIS3_EE:
.LFB1668:
	.loc 1 870 0
	.cfi_startproc
	.cfi_personality 0,__gxx_personality_v0
	.cfi_lsda 0,.LLSDA1668
.LVL167:
	mflr 0
	stwu 1,-32(1)
.LCFI34:
	.cfi_def_cfa_offset 32
	.cfi_register 65, 0
	stw 27,12(1)
	mr 27,3
	.cfi_offset 27, -20
.LVL168:
	stw 0,36(1)
	stw 28,16(1)
	mr 28,4
	.cfi_offset 28, -16
	.cfi_offset 65, 4
.LBB1572:
.LBB1573:
.LBB1574:
	.loc 1 338 0
	lwz 9,0(3)
.LBE1574:
.LBE1573:
.LBE1572:
	.loc 1 870 0
	stw 29,20(1)
.LBB1595:
.LBB1577:
.LBB1575:
	.loc 3 302 0
	mr 29,27
	.cfi_offset 29, -12
	.loc 1 338 0
	lwz 0,8(9)
.LBE1575:
.LBE1577:
.LBE1595:
	.loc 1 870 0
	stw 31,28(1)
	stw 30,24(1)
.LBB1596:
.LBB1578:
.LBB1576:
	.loc 1 338 0
	mtctr 0
.LEHB16:
	.cfi_offset 30, -8
	.cfi_offset 31, -4
	bctrl
.LEHE16:
.LVL169:
	.loc 3 302 0
	lwzu 31,4(29)
.LVL170:
.LBE1576:
.LBE1578:
	.loc 1 876 0
	cmpw 7,31,29
	bne+ 7,.L134
	b .L123
.LVL171:
.L124:
	.loc 1 876 0 is_stmt 0 discriminator 1
	cmpw 7,29,30
	beq- 7,.L123
.L132:
	.loc 1 876 0
	mr 31,30
.LVL172:
.L134:
.LBB1579:
	.loc 1 881 0 is_stmt 1
	lwz 3,8(31)
.LBB1580:
.LBB1581:
	.loc 4 154 0
	lwz 30,0(31)
.LVL173:
.LBE1581:
.LBE1580:
	.loc 1 881 0
	lwz 9,0(3)
	lwz 0,8(9)
	mtctr 0
.LEHB17:
	bctrl
.LVL174:
	cmpw 7,28,3
	bne+ 7,.L124
.LVL175:
	.loc 1 883 0
	lwz 3,8(31)
	cmpwi 7,3,0
	beq- 7,.L125
	.loc 1 883 0 is_stmt 0 discriminator 1
	lwz 9,0(3)
	lwz 0,4(9)
	mtctr 0
	bctrl
.LEHE17:
.L125:
.LVL176:
.LBB1582:
.LBB1583:
.LBB1584:
.LBB1585:
	.loc 4 1532 0 is_stmt 1
	mr 3,31
	bl _ZNSt8__detail15_List_node_base9_M_unhookEv
.LVL177:
.LBB1586:
.LBB1587:
.LBB1588:
	.loc 6 98 0
	mr 3,31
	bl _ZdlPv
.LVL178:
.LBE1588:
.LBE1587:
.LBE1586:
.LBE1585:
.LBE1584:
.LBE1583:
.LBE1582:
.LBE1579:
	.loc 1 876 0
	cmpw 7,29,30
	bne+ 7,.L132
.LVL179:
.L123:
.LBB1589:
.LBB1590:
.LBB1591:
	.loc 1 343 0
	lwz 9,0(27)
	mr 3,27
	lwz 0,12(9)
	mtctr 0
.LEHB18:
	bctrl
.LEHE18:
.LBE1591:
.LBE1590:
.LBE1589:
.LBE1596:
	.loc 1 890 0
	lwz 0,36(1)
	lwz 27,12(1)
.LVL180:
	mtlr 0
	lwz 28,16(1)
.LVL181:
	lwz 29,20(1)
.LVL182:
	lwz 30,24(1)
	lwz 31,28(1)
	addi 1,1,32
	.cfi_remember_state
.LCFI35:
	.cfi_def_cfa_offset 0
	.cfi_restore 31
	.cfi_restore 30
	.cfi_restore 29
	.cfi_restore 28
	.cfi_restore 27
	blr
.LVL183:
.L133:
.LCFI36:
	.cfi_restore_state
.LBB1597:
.LBB1592:
.LBB1593:
.LBB1594:
	.loc 1 343 0
	lwz 9,0(27)
	mr 31,3
.LVL184:
	mr 3,27
	lwz 0,12(9)
	mtctr 0
	bctrl
	mr 3,31
.LEHB19:
	bl _Unwind_Resume
.LEHE19:
.LBE1594:
.LBE1593:
.LBE1592:
.LBE1597:
	.cfi_endproc
.LFE1668:
	.section	.gcc_except_table
.LLSDA1668:
	.byte	0xff
	.byte	0xff
	.byte	0x1
	.uleb128 .LLSDACSE1668-.LLSDACSB1668
.LLSDACSB1668:
	.uleb128 .LEHB16-.LFB1668
	.uleb128 .LEHE16-.LEHB16
	.uleb128 0
	.uleb128 0
	.uleb128 .LEHB17-.LFB1668
	.uleb128 .LEHE17-.LEHB17
	.uleb128 .L133-.LFB1668
	.uleb128 0
	.uleb128 .LEHB18-.LFB1668
	.uleb128 .LEHE18-.LEHB18
	.uleb128 0
	.uleb128 0
	.uleb128 .LEHB19-.LFB1668
	.uleb128 .LEHE19-.LEHB19
	.uleb128 0
	.uleb128 0
.LLSDACSE1668:
	.section	.text._ZN7sigslot13_signal_base2IP10GuiElementbNS_15single_threadedEE15slot_disconnectEPNS_9has_slotsIS3_EE,"axG",@progbits,_ZN7sigslot13_signal_base2IP10GuiElementbNS_15single_threadedEE15slot_disconnectEPNS_9has_slotsIS3_EE,comdat
	.size	_ZN7sigslot13_signal_base2IP10GuiElementbNS_15single_threadedEE15slot_disconnectEPNS_9has_slotsIS3_EE, .-_ZN7sigslot13_signal_base2IP10GuiElementbNS_15single_threadedEE15slot_disconnectEPNS_9has_slotsIS3_EE
	.section	.text._ZN10GuiElement10ResetStateEv,"axG",@progbits,_ZN10GuiElement10ResetStateEv,comdat
	.align 2
	.weak	_ZN10GuiElement10ResetStateEv
	.type	_ZN10GuiElement10ResetStateEv, @function
_ZN10GuiElement10ResetStateEv:
.LFB1402:
	.loc 2 183 0
	.cfi_startproc
.LVL185:
	mflr 0
	stwu 1,-8(1)
.LCFI37:
	.cfi_def_cfa_offset 8
	.cfi_register 65, 0
	stw 0,12(1)
	.loc 2 185 0
	lwz 0,72(3)
	.cfi_offset 65, 4
	cmpwi 7,0,4
	beq- 7,.L135
.LVL186:
.LBB1600:
.LBB1601:
	.loc 2 186 0
	lwz 9,0(3)
	li 4,0
	li 5,-1
	lwz 0,80(9)
	mtctr 0
	bctrl
.LVL187:
.L135:
.LBE1601:
.LBE1600:
	.loc 2 187 0
	lwz 0,12(1)
	addi 1,1,8
.LCFI38:
	.cfi_def_cfa_offset 0
	mtlr 0
	blr
	.cfi_endproc
.LFE1402:
	.size	_ZN10GuiElement10ResetStateEv, .-_ZN10GuiElement10ResetStateEv
	.section	".text"
	.align 2
	.globl _ZN13GuiFrameImage14CreateDrawListEv
	.type	_ZN13GuiFrameImage14CreateDrawListEv, @function
_ZN13GuiFrameImage14CreateDrawListEv:
.LFB1434:
	.loc 3 46 0
	.cfi_startproc
.LVL188:
	mflr 0
	stwu 1,-824(1)
.LCFI39:
	.cfi_def_cfa_offset 824
	.cfi_register 65, 0
	stw 30,672(1)
	mr 30,3
	.cfi_offset 30, -152
	stw 0,828(1)
	stfd 19,720(1)
.LBB1602:
	.loc 3 47 0
	lwz 4,160(3)
	lwz 3,156(3)
.LVL189:
	addi 4,4,64
.LBE1602:
	.loc 3 46 0
	stfd 20,728(1)
	stfd 21,736(1)
	stfd 22,744(1)
	stfd 25,768(1)
	stfd 27,784(1)
	stfd 28,792(1)
	stfd 29,800(1)
	stfd 30,808(1)
	stfd 31,816(1)
	stw 25,652(1)
	stw 26,656(1)
.LBB1834:
	.loc 3 59 0
	lis 26,.LC1@ha
	.cfi_offset 26, -168
	.cfi_offset 25, -172
	.cfi_offset 63, -8
	.cfi_offset 62, -16
	.cfi_offset 61, -24
	.cfi_offset 60, -32
	.cfi_offset 59, -40
	.cfi_offset 57, -56
	.cfi_offset 54, -80
	.cfi_offset 53, -88
	.cfi_offset 52, -96
	.cfi_offset 51, -104
	.cfi_offset 65, 4
.LBE1834:
	.loc 3 46 0
	stw 27,660(1)
.LBB1835:
	.loc 3 59 0
	lis 27,0x4330
	.cfi_offset 27, -164
.LBE1835:
	.loc 3 46 0
	stw 28,664(1)
	stw 29,668(1)
	stw 31,676(1)
	stfd 14,680(1)
	stfd 15,688(1)
	stfd 16,696(1)
	stfd 17,704(1)
	stfd 18,712(1)
	stfd 23,752(1)
	stfd 24,760(1)
	stfd 26,776(1)
	stw 19,628(1)
	stw 20,632(1)
	stw 21,636(1)
	stw 22,640(1)
	stw 23,644(1)
	stw 24,648(1)
.LBB1836:
	.loc 3 47 0
	.cfi_offset 24, -176
	.cfi_offset 23, -180
	.cfi_offset 22, -184
	.cfi_offset 21, -188
	.cfi_offset 20, -192
	.cfi_offset 19, -196
	.cfi_offset 58, -48
	.cfi_offset 56, -64
	.cfi_offset 55, -72
	.cfi_offset 50, -112
	.cfi_offset 49, -120
	.cfi_offset 48, -128
	.cfi_offset 47, -136
	.cfi_offset 46, -144
	.cfi_offset 31, -148
	.cfi_offset 29, -156
	.cfi_offset 28, -160
	bl GX_BeginDispList
	.loc 3 49 0
	li 3,0
	li 4,4
	bl GX_SetTevOp
	.loc 3 50 0
	li 4,0
	li 3,13
	bl GX_SetVtxDesc
	.loc 3 52 0
	lwz 9,0(30)
	mr 3,30
	lwz 0,36(9)
	mtctr 0
	bctrl
	.loc 3 53 0
	lwz 9,0(30)
	.loc 3 52 0
	stw 3,204(30)
	.loc 3 53 0
	mr 3,30
	lwz 0,40(9)
	mtctr 0
	bctrl
	.loc 3 54 0
	lwz 9,0(30)
	.loc 3 53 0
	stw 3,208(30)
	.loc 3 54 0
	mr 3,30
	lwz 0,16(9)
	mtctr 0
	bctrl
	.loc 3 55 0
	lwz 9,0(30)
	.loc 3 54 0
	stw 3,192(30)
	.loc 3 55 0
	mr 3,30
	lwz 0,20(9)
	mtctr 0
	bctrl
	.loc 3 56 0
	lwz 9,0(30)
	.loc 3 55 0
	stw 3,196(30)
	.loc 3 56 0
	mr 3,30
	lwz 0,24(9)
	mtctr 0
	bctrl
	.loc 3 57 0
	lwz 9,0(30)
	.loc 3 56 0
	stw 3,200(30)
	.loc 3 57 0
	mr 3,30
	lwz 0,100(9)
	mtctr 0
	bctrl
	.loc 3 65 0
	lwz 9,208(30)
	.loc 3 62 0
	lwz 8,192(30)
	.loc 3 68 0
	li 4,0
	.loc 3 65 0
	xoris 9,9,0x8000
	.loc 3 63 0
	lwz 10,196(30)
	.loc 3 64 0
	lwz 11,204(30)
	.loc 3 62 0
	xoris 8,8,0x8000
	.loc 3 60 0
	lwz 0,200(30)
	.loc 3 63 0
	xoris 10,10,0x8000
	.loc 3 65 0
	stw 9,52(1)
	.loc 3 59 0
	xoris 9,3,0x8000
	.loc 3 62 0
	stw 8,28(1)
	.loc 3 60 0
	xoris 0,0,0x8000
	.loc 3 59 0
	stw 9,12(1)
	.loc 3 64 0
	xoris 11,11,0x8000
	.loc 3 62 0
	stw 27,24(1)
	.loc 3 68 0
	li 5,4
	.loc 3 59 0
	stw 27,8(1)
	lfs 29,.LC1@l(26)
	.loc 3 62 0
	lfd 28,24(1)
	.loc 3 59 0
	lfd 22,8(1)
	.loc 3 63 0
	stw 10,36(1)
	.loc 3 62 0
	fsub 28,28,29
	.loc 3 60 0
	stw 0,20(1)
	.loc 3 59 0
	fsub 22,22,29
	.loc 3 63 0
	stw 27,32(1)
	.loc 3 60 0
	stw 27,16(1)
	.loc 3 62 0
	frsp 28,28
	.loc 3 64 0
	stw 11,44(1)
	.loc 3 59 0
	frsp 22,22
.LVL190:
	.loc 3 64 0
	stw 27,40(1)
	.loc 3 65 0
	stw 27,48(1)
	.loc 3 63 0
	lfd 25,32(1)
	.loc 3 60 0
	lfd 31,16(1)
	.loc 3 64 0
	lfd 27,40(1)
	.loc 3 63 0
	fsub 25,25,29
	.loc 3 65 0
	lfd 30,48(1)
	.loc 3 60 0
	fsub 31,31,29
	.loc 3 57 0
	stw 3,212(30)
	.loc 3 68 0
	li 3,128
	.loc 3 63 0
	frsp 25,25
	.loc 3 68 0
	bl GX_Begin
	.loc 3 69 0
	lfs 13,148(30)
	.loc 3 60 0
	frsp 31,31
.LVL191:
.LBB1603:
.LBB1604:
	.file 7 "d:/devkitPro/libogc/include/ogc/gx.h"
	.loc 7 2123 0
	lis 9,wgPipe@ha
.LBE1604:
.LBE1603:
	.loc 3 69 0
	fadds 13,28,13
.LBB1609:
.LBB1605:
	.loc 7 2123 0
	lwz 31,wgPipe@l(9)
.LBE1605:
.LBE1609:
	.loc 3 70 0
	fctiwz 0,22
	addi 9,1,620
	.loc 3 64 0
	fsub 27,27,29
	.loc 3 83 0
	li 3,160
.LBB1610:
.LBB1606:
	.loc 7 2123 0
	stfs 13,0(31)
.LBE1606:
.LBE1610:
	.loc 3 83 0
	li 4,0
.LBB1611:
.LBB1607:
	.loc 7 2124 0
	stfs 25,0(31)
.LBE1607:
.LBE1611:
	.loc 3 65 0
	fsub 30,30,29
.LBB1612:
.LBB1608:
	.loc 7 2125 0
	stfs 31,0(31)
.LBE1608:
.LBE1612:
	.loc 3 64 0
	frsp 27,27
	.loc 3 70 0
	stfiwx 0,0,9
	.loc 3 65 0
	frsp 30,30
	.loc 3 70 0
	lwz 25,620(1)
	.loc 3 64 0
	fadds 27,27,28
.LVL192:
	.loc 3 70 0
	lbz 11,164(30)
	lbz 9,165(30)
	.loc 3 65 0
	fadds 30,30,25
.LVL193:
	.loc 3 70 0
	lbz 0,166(30)
	mr 28,25
.LBB1613:
.LBB1614:
	.loc 7 2229 0
	stb 11,0(31)
.LBE1614:
.LBE1613:
	.loc 3 70 0
	rlwinm 29,25,0,0xff
.LBB1616:
.LBB1615:
	.loc 7 2230 0
	stb 9,0(31)
.LVL194:
	.loc 7 2231 0
	stb 0,0(31)
	.loc 7 2232 0
	stb 25,0(31)
.LBE1615:
.LBE1616:
	.loc 3 72 0
	lfs 0,148(30)
	fsubs 0,27,0
.LVL195:
.LBB1617:
.LBB1618:
	.loc 7 2123 0
	stfs 0,0(31)
	.loc 7 2124 0
	stfs 25,0(31)
	.loc 7 2125 0
	stfs 31,0(31)
.LBE1618:
.LBE1617:
	.loc 3 73 0
	lbz 11,164(30)
.LVL196:
	lbz 9,165(30)
.LVL197:
	lbz 0,166(30)
.LVL198:
.LBB1619:
.LBB1620:
	.loc 7 2229 0
	stb 11,0(31)
	.loc 7 2230 0
	stb 9,0(31)
	.loc 7 2231 0
	stb 0,0(31)
	.loc 7 2232 0
	stb 25,0(31)
.LBE1620:
.LBE1619:
	.loc 3 75 0
	lfs 0,148(30)
.LVL199:
	fsubs 13,27,0
.LVL200:
	fadds 0,25,0
.LVL201:
.LBB1621:
.LBB1622:
	.loc 7 2123 0
	stfs 13,0(31)
	.loc 7 2124 0
	stfs 0,0(31)
	.loc 7 2125 0
	stfs 31,0(31)
.LBE1622:
.LBE1621:
	.loc 3 76 0
	lbz 0,170(30)
.LVL202:
	lbz 11,168(30)
.LVL203:
	lbz 9,169(30)
.LVL204:
.LBB1623:
.LBB1624:
	.loc 7 2229 0
	stb 11,0(31)
	.loc 7 2230 0
	stb 9,0(31)
	.loc 7 2231 0
	stb 0,0(31)
	.loc 7 2232 0
	stb 25,0(31)
.LBE1624:
.LBE1623:
	.loc 3 78 0
	lfs 0,148(30)
.LVL205:
	fadds 13,0,28
.LVL206:
	fadds 0,25,0
.LVL207:
.LBB1625:
.LBB1626:
	.loc 7 2123 0
	stfs 13,0(31)
	.loc 7 2124 0
	stfs 0,0(31)
	.loc 7 2125 0
	stfs 31,0(31)
.LBE1626:
.LBE1625:
	.loc 3 79 0
	lbz 11,168(30)
.LVL208:
	lbz 9,169(30)
.LVL209:
	lbz 0,170(30)
.LVL210:
.LBB1627:
.LBB1628:
	.loc 7 2229 0
	stb 11,0(31)
	.loc 7 2230 0
	stb 9,0(31)
	.loc 7 2231 0
	stb 0,0(31)
	.loc 7 2232 0
	stb 25,0(31)
.LBE1628:
.LBE1627:
	.loc 3 83 0
	lwz 5,144(30)
	addi 5,5,1
	rlwinm 5,5,0,0xffff
	bl GX_Begin
.LVL211:
.LBB1629:
	.loc 3 86 0
	lbz 10,176(30)
.LVL212:
	.loc 3 87 0
	lbz 11,177(30)
.LVL213:
	.loc 3 88 0
	lbz 0,178(30)
.LVL214:
	.loc 3 89 0
	lwz 6,144(30)
	lbz 7,164(30)
	.loc 3 90 0
	lbz 8,165(30)
	.loc 3 89 0
	addi 6,6,-1
	.loc 3 91 0
	lbz 9,166(30)
	.loc 3 89 0
	subf 7,10,7
	.loc 3 92 0
	lfs 0,148(30)
	.loc 3 90 0
	subf 8,11,8
	.loc 3 91 0
	subf 9,0,9
	.loc 3 89 0
	xoris 7,7,0x8000
	.loc 3 90 0
	xoris 8,8,0x8000
	.loc 3 91 0
	xoris 9,9,0x8000
	.loc 3 92 0
	fadds 12,0,28
	.loc 3 89 0
	xoris 6,6,0x8000
	.loc 3 92 0
	fadds 13,25,0
	.loc 3 89 0
	stw 6,60(1)
	stw 27,56(1)
	stw 7,68(1)
	stw 27,64(1)
	.loc 3 90 0
	stw 8,76(1)
	stw 27,72(1)
	.loc 3 91 0
	stw 9,84(1)
	stw 27,80(1)
	.loc 3 89 0
	lfd 0,56(1)
	lfd 21,64(1)
	.loc 3 90 0
	lfd 20,72(1)
	.loc 3 89 0
	fsub 0,0,29
	.loc 3 91 0
	lfd 19,80(1)
	.loc 3 89 0
	fsub 21,21,29
.LBB1630:
.LBB1631:
	.loc 7 2123 0
	stfs 12,0(31)
.LBE1631:
.LBE1630:
	.loc 3 90 0
	fsub 20,20,29
.LBB1634:
.LBB1632:
	.loc 7 2124 0
	stfs 13,0(31)
.LBE1632:
.LBE1634:
	.loc 3 91 0
	fsub 19,19,29
.LBB1635:
.LBB1633:
	.loc 7 2125 0
	stfs 31,0(31)
.LBE1633:
.LBE1635:
	.loc 3 89 0
	frsp 0,0
	frsp 21,21
	.loc 3 93 0
	lbz 9,170(30)
	.loc 3 90 0
	frsp 20,20
	.loc 3 93 0
	lbz 7,168(30)
	.loc 3 91 0
	frsp 19,19
	.loc 3 93 0
	lbz 8,169(30)
	.loc 3 89 0
	fdivs 21,21,0
.LBB1636:
.LBB1637:
	.loc 7 2229 0
	stb 7,0(31)
	.loc 7 2230 0
	stb 8,0(31)
.LVL215:
	.loc 7 2231 0
	stb 9,0(31)
	.loc 7 2232 0
	stb 25,0(31)
.LBE1637:
.LBE1636:
.LBB1638:
	.loc 3 95 0
	lwz 9,144(30)
	cmpwi 7,9,0
.LBE1638:
	.loc 3 90 0
	fdivs 20,20,0
.LVL216:
	.loc 3 91 0
	fdivs 19,19,0
.LVL217:
.LBB1645:
	.loc 3 95 0
	ble- 7,.L138
	xoris 10,10,0x8000
.LVL218:
	xoris 11,11,0x8000
.LVL219:
	xoris 0,0,0x8000
.LVL220:
	stw 27,88(1)
	stw 27,96(1)
	lis 21,.LC4@ha
	stw 27,104(1)
	lis 27,.LC5@ha
	stw 10,92(1)
	li 22,0
	stw 11,100(1)
	li 24,0
	stw 0,108(1)
	la 25,.LC1@l(26)
.LVL221:
	lfd 16,88(1)
	la 21,.LC4@l(21)
	lfd 17,96(1)
	la 27,.LC5@l(27)
	lfd 18,104(1)
	fsub 16,16,29
	fsub 17,17,29
	fsub 18,18,29
	frsp 16,16
	frsp 17,17
	frsp 18,18
.LVL222:
.L139:
	.loc 3 97 0 discriminator 2
	addi 9,9,-1
.LVL223:
	xoris 0,22,0x8000
	xoris 9,9,0x8000
.LVL224:
	lis 23,0x4330
	stw 0,116(1)
	.loc 3 95 0 discriminator 2
	addi 22,22,90
.LVL225:
	.loc 3 97 0 discriminator 2
	stw 9,124(1)
	stw 23,112(1)
	stw 23,120(1)
	lfd 23,112(1)
	lfd 12,120(1)
	lfs 29,0(25)
	lfs 13,0(21)
	fsub 23,23,29
	lfs 0,0(27)
	fsub 12,12,29
	.loc 3 98 0 discriminator 2
	lfs 26,148(30)
	.loc 3 97 0 discriminator 2
	frsp 23,23
	frsp 12,12
	.loc 3 98 0 discriminator 2
	fmr 24,26
	.loc 3 97 0 discriminator 2
	fdivs 23,23,12
	fadds 23,23,13
	fmuls 23,23,0
	.loc 3 98 0 discriminator 2
	fmr 1,23
	bl cos
.LVL226:
	fadds 0,26,28
	fadds 26,25,26
	fmadd 0,24,1,0
	fmr 1,23
	frsp 23,0
	bl sin
	.loc 3 99 0 discriminator 2
	xoris 0,24,0x8000
	.loc 3 98 0 discriminator 2
	fmadd 26,24,1,26
	.loc 3 99 0 discriminator 2
	addi 9,1,608
.LBB1639:
.LBB1640:
	.loc 7 2123 0 discriminator 2
	stfs 23,0(31)
.LBE1640:
.LBE1639:
	.loc 3 95 0 discriminator 2
	addi 24,24,1
	.loc 3 98 0 discriminator 2
	frsp 26,26
.LVL227:
.LBB1642:
.LBB1641:
	.loc 7 2124 0 discriminator 2
	stfs 26,0(31)
	.loc 7 2125 0 discriminator 2
	stfs 31,0(31)
.LBE1641:
.LBE1642:
	.loc 3 99 0 discriminator 2
	stw 0,132(1)
	stw 23,128(1)
	lfd 0,128(1)
	fsub 29,0,29
	frsp 29,29
	fmadds 13,29,21,16
	fmadds 0,20,29,17
	fmadds 29,19,29,18
	fctiwz 13,13
	fctiwz 0,0
	fctiwz 29,29
	stfiwx 13,0,9
	addi 9,1,612
	stfiwx 0,0,9
	addi 9,1,616
	stfiwx 29,0,9
	lwz 9,612(1)
	lwz 11,608(1)
	lwz 0,616(1)
.LVL228:
.LBB1643:
.LBB1644:
	.loc 7 2229 0 discriminator 2
	stb 11,0(31)
	.loc 7 2230 0 discriminator 2
	stb 9,0(31)
	.loc 7 2231 0 discriminator 2
	stb 0,0(31)
	.loc 7 2232 0 discriminator 2
	stb 29,0(31)
.LBE1644:
.LBE1643:
	.loc 3 95 0 discriminator 2
	lwz 9,144(30)
	cmpw 7,9,24
	bgt+ 7,.L139
.LVL229:
.L138:
.LBE1645:
.LBE1629:
	.loc 3 105 0
	li 3,128
	li 4,0
	li 5,4
	bl GX_Begin
	.loc 3 106 0
	lfs 0,148(30)
.LBB1646:
.LBB1647:
	.loc 7 2123 0
	stfs 28,0(31)
.LBE1647:
.LBE1646:
	.loc 3 120 0
	li 3,160
	.loc 3 106 0
	fadds 0,25,0
.LVL230:
	.loc 3 120 0
	li 4,0
.LBB1649:
.LBB1648:
	.loc 7 2124 0
	stfs 0,0(31)
	.loc 7 2125 0
	stfs 31,0(31)
.LBE1648:
.LBE1649:
	.loc 3 107 0
	lbz 11,176(30)
	lbz 9,177(30)
	lbz 0,178(30)
.LVL231:
.LBB1650:
.LBB1651:
	.loc 7 2229 0
	stb 11,0(31)
	.loc 7 2230 0
	stb 9,0(31)
	.loc 7 2231 0
	stb 0,0(31)
	.loc 7 2232 0
	stb 28,0(31)
.LBE1651:
.LBE1650:
	.loc 3 109 0
	lfs 0,148(30)
.LVL232:
	fadds 13,0,28
	fadds 0,25,0
.LVL233:
.LBB1652:
.LBB1653:
	.loc 7 2123 0
	stfs 13,0(31)
	.loc 7 2124 0
	stfs 0,0(31)
	.loc 7 2125 0
	stfs 31,0(31)
.LBE1653:
.LBE1652:
	.loc 3 110 0
	lbz 11,168(30)
.LVL234:
	lbz 9,169(30)
.LVL235:
	lbz 0,170(30)
.LVL236:
.LBB1654:
.LBB1655:
	.loc 7 2229 0
	stb 11,0(31)
	.loc 7 2230 0
	stb 9,0(31)
	.loc 7 2231 0
	stb 0,0(31)
	.loc 7 2232 0
	stb 28,0(31)
.LBE1655:
.LBE1654:
	.loc 3 112 0
	lfs 0,148(30)
.LVL237:
	fadds 13,0,28
.LVL238:
	fsubs 0,30,0
.LVL239:
.LBB1656:
.LBB1657:
	.loc 7 2123 0
	stfs 13,0(31)
	.loc 7 2124 0
	stfs 0,0(31)
	.loc 7 2125 0
	stfs 31,0(31)
.LBE1657:
.LBE1656:
	.loc 3 113 0
	lbz 11,172(30)
.LVL240:
	lbz 9,173(30)
.LVL241:
	lbz 0,174(30)
.LVL242:
.LBB1658:
.LBB1659:
	.loc 7 2229 0
	stb 11,0(31)
	.loc 7 2230 0
	stb 9,0(31)
	.loc 7 2231 0
	stb 0,0(31)
	.loc 7 2232 0
	stb 28,0(31)
.LBE1659:
.LBE1658:
	.loc 3 115 0
	lfs 0,148(30)
.LVL243:
.LBB1660:
.LBB1661:
	.loc 7 2123 0
	stfs 28,0(31)
.LBE1661:
.LBE1660:
	.loc 3 115 0
	fsubs 0,30,0
.LVL244:
.LBB1663:
.LBB1662:
	.loc 7 2124 0
	stfs 0,0(31)
	.loc 7 2125 0
	stfs 31,0(31)
.LBE1662:
.LBE1663:
	.loc 3 116 0
	lbz 11,180(30)
.LVL245:
	lbz 9,181(30)
.LVL246:
	lbz 0,182(30)
.LVL247:
.LBB1664:
.LBB1665:
	.loc 7 2229 0
	stb 11,0(31)
	.loc 7 2230 0
	stb 9,0(31)
	.loc 7 2231 0
	stb 0,0(31)
	.loc 7 2232 0
	stb 28,0(31)
.LBE1665:
.LBE1664:
	.loc 3 120 0
	lwz 5,144(30)
	addi 5,5,1
	rlwinm 5,5,1,16,30
	bl GX_Begin
.LVL248:
.LBB1666:
	.loc 3 124 0
	lbz 8,188(30)
.LVL249:
	.loc 3 125 0
	lbz 10,189(30)
.LVL250:
	.loc 3 128 0
	lis 0,0x4330
	.loc 3 126 0
	lbz 11,190(30)
.LVL251:
	.loc 3 128 0
	lwz 5,144(30)
	lbz 6,180(30)
	.loc 3 129 0
	lbz 7,181(30)
	.loc 3 128 0
	addi 5,5,-1
	.loc 3 130 0
	lbz 9,182(30)
	.loc 3 128 0
	subf 6,8,6
	.loc 3 132 0
	lfs 0,148(30)
	.loc 3 129 0
	subf 7,10,7
	.loc 3 130 0
	subf 9,11,9
	.loc 3 128 0
	xoris 6,6,0x8000
	.loc 3 132 0
	fadds 13,0,28
	.loc 3 129 0
	xoris 7,7,0x8000
	.loc 3 130 0
	xoris 9,9,0x8000
	.loc 3 132 0
	fsubs 0,30,0
	.loc 3 128 0
	xoris 5,5,0x8000
	stw 0,136(1)
	stw 5,140(1)
	stw 6,148(1)
	stw 0,144(1)
	.loc 3 129 0
	stw 7,156(1)
	stw 0,152(1)
	.loc 3 130 0
	stw 9,164(1)
	stw 0,160(1)
	.loc 3 128 0
	lfd 17,136(1)
	lfd 20,144(1)
.LVL252:
	.loc 3 129 0
	lfd 19,152(1)
.LVL253:
	.loc 3 130 0
	lfd 18,160(1)
.LBB1667:
.LBB1668:
	.loc 7 2123 0
	stfs 13,0(31)
	.loc 7 2124 0
	stfs 0,0(31)
	.loc 7 2125 0
	stfs 31,0(31)
.LBE1668:
.LBE1667:
	.loc 3 128 0
	lfs 0,.LC1@l(26)
	.loc 3 133 0
	lbz 9,174(30)
	lbz 6,172(30)
	.loc 3 128 0
	fsub 17,17,0
	.loc 3 133 0
	lbz 7,173(30)
	.loc 3 128 0
	fsub 20,20,0
.LBB1669:
.LBB1670:
	.loc 7 2229 0
	stb 6,0(31)
.LBE1670:
.LBE1669:
	.loc 3 129 0
	fsub 19,19,0
.LBB1674:
.LBB1671:
	.loc 7 2230 0
	stb 7,0(31)
.LBE1671:
.LBE1674:
	.loc 3 130 0
	fsub 18,18,0
.LBB1675:
.LBB1672:
	.loc 7 2231 0
	stb 9,0(31)
.LBE1672:
.LBE1675:
	.loc 3 127 0
	lis 9,.LC6@ha
	lfs 21,.LC6@l(9)
.LVL254:
	.loc 3 128 0
	frsp 17,17
.LBB1676:
.LBB1673:
	.loc 7 2232 0
	stb 28,0(31)
.LBE1673:
.LBE1676:
	.loc 3 128 0
	frsp 20,20
	.loc 3 127 0
	fmuls 21,22,21
.LVL255:
.LBB1677:
	.loc 3 135 0
	lwz 9,144(30)
.LBE1677:
	.loc 3 129 0
	frsp 19,19
	.loc 3 130 0
	frsp 18,18
.LBB1684:
	.loc 3 135 0
	cmpwi 7,9,0
.LBE1684:
	.loc 3 131 0
	fsubs 13,22,21
	.loc 3 128 0
	fdivs 20,20,17
.LVL256:
	.loc 3 129 0
	fdivs 19,19,17
.LVL257:
	.loc 3 130 0
	fdivs 18,18,17
.LVL258:
	.loc 3 131 0
	fdivs 17,13,17
.LVL259:
.LBB1685:
	.loc 3 135 0
	ble- 7,.L140
	xoris 8,8,0x8000
.LVL260:
	xoris 10,10,0x8000
.LVL261:
	xoris 11,11,0x8000
.LVL262:
	stw 8,172(1)
	stw 0,168(1)
	lis 27,.LC5@ha
	stw 10,180(1)
	lis 21,.LC7@ha
	stw 0,176(1)
	lis 25,.LC1@ha
	stw 11,188(1)
	li 22,0
	stw 0,184(1)
	li 24,0
	lfd 14,168(1)
	la 25,.LC1@l(25)
	lfd 15,176(1)
	la 27,.LC5@l(27)
	lfd 16,184(1)
	fsub 14,14,0
	fsub 15,15,0
	la 21,.LC7@l(21)
	fsub 16,16,0
	frsp 14,14
	frsp 15,15
	frsp 16,16
.LVL263:
.L141:
	.loc 3 137 0 discriminator 2
	addi 9,9,-1
.LVL264:
	xoris 0,22,0x8000
	xoris 9,9,0x8000
.LVL265:
	lis 23,0x4330
	stw 0,196(1)
	.loc 3 135 0 discriminator 2
	addi 22,22,90
.LVL266:
	.loc 3 137 0 discriminator 2
	stw 9,204(1)
	stw 23,192(1)
	stw 23,200(1)
	lfd 23,192(1)
	lfd 12,200(1)
	lfs 29,0(25)
	lfs 13,0(21)
	fsub 23,23,29
	lfs 0,0(27)
	fsub 12,12,29
	.loc 3 138 0 discriminator 2
	lfs 26,148(30)
	.loc 3 137 0 discriminator 2
	frsp 23,23
	frsp 12,12
	.loc 3 138 0 discriminator 2
	fmr 24,26
	.loc 3 137 0 discriminator 2
	fdivs 23,23,12
	fadds 23,23,13
	fmuls 23,23,0
	.loc 3 138 0 discriminator 2
	fmr 1,23
	bl cos
.LVL267:
	fadds 0,26,28
	fsubs 26,30,26
	fmadd 0,24,1,0
	fmr 1,23
	frsp 23,0
	bl sin
	.loc 3 139 0 discriminator 2
	xoris 0,24,0x8000
	.loc 3 138 0 discriminator 2
	fmadd 26,24,1,26
	.loc 3 139 0 discriminator 2
	addi 9,1,592
.LBB1678:
.LBB1679:
	.loc 7 2123 0 discriminator 2
	stfs 23,0(31)
.LBE1679:
.LBE1678:
	.loc 3 135 0 discriminator 2
	addi 24,24,1
	.loc 3 138 0 discriminator 2
	frsp 26,26
.LVL268:
.LBB1681:
.LBB1680:
	.loc 7 2124 0 discriminator 2
	stfs 26,0(31)
	.loc 7 2125 0 discriminator 2
	stfs 31,0(31)
.LBE1680:
.LBE1681:
	.loc 3 139 0 discriminator 2
	stw 0,212(1)
	stw 23,208(1)
	lfd 0,208(1)
	fsub 29,0,29
	frsp 29,29
	fmadds 12,29,20,14
	fmadds 13,19,29,15
	fmadds 0,18,29,16
	fctiwz 12,12
	fmadds 29,17,29,21
	fctiwz 13,13
	fctiwz 0,0
	stfiwx 12,0,9
	fctiwz 29,29
	addi 9,1,596
	stfiwx 13,0,9
	addi 9,1,600
	stfiwx 0,0,9
	addi 9,1,604
	stfiwx 29,0,9
	lwz 9,600(1)
	lwz 10,592(1)
	lwz 11,596(1)
	lwz 0,604(1)
.LVL269:
.LBB1682:
.LBB1683:
	.loc 7 2229 0 discriminator 2
	stb 10,0(31)
	.loc 7 2230 0 discriminator 2
	stb 11,0(31)
	.loc 7 2231 0 discriminator 2
	stb 9,0(31)
	.loc 7 2232 0 discriminator 2
	stb 0,0(31)
.LBE1683:
.LBE1682:
	.loc 3 135 0 discriminator 2
	lwz 9,144(30)
	cmpw 7,9,24
	bgt+ 7,.L141
.LVL270:
.L140:
.LBE1685:
	.loc 3 143 0
	lbz 8,184(30)
.LVL271:
	.loc 3 146 0
	addi 9,9,-1
	.loc 3 144 0
	lbz 10,185(30)
.LVL272:
	.loc 3 146 0
	lis 0,0x4330
	.loc 3 145 0
	lbz 11,186(30)
.LVL273:
	.loc 3 146 0
	xoris 9,9,0x8000
	lbz 5,180(30)
	.loc 3 147 0
	lbz 6,181(30)
	.loc 3 148 0
	lbz 7,182(30)
	.loc 3 146 0
	subf 5,8,5
	.loc 3 150 0
	lfs 0,148(30)
	.loc 3 147 0
	subf 6,10,6
	.loc 3 148 0
	subf 7,11,7
	.loc 3 147 0
	xoris 6,6,0x8000
	.loc 3 148 0
	xoris 7,7,0x8000
	.loc 3 150 0
	fadds 12,0,28
	.loc 3 146 0
	xoris 5,5,0x8000
	.loc 3 150 0
	fsubs 0,30,0
	.loc 3 146 0
	stw 9,220(1)
	stw 0,216(1)
	stw 5,228(1)
	stw 0,224(1)
	.loc 3 147 0
	stw 6,236(1)
	stw 0,232(1)
	.loc 3 148 0
	stw 7,244(1)
	stw 0,240(1)
	.loc 3 146 0
	lfd 13,216(1)
	lfd 23,224(1)
	.loc 3 147 0
	lfd 20,232(1)
.LVL274:
	.loc 3 148 0
	lfd 19,240(1)
.LVL275:
.LBB1686:
.LBB1687:
	.loc 7 2123 0
	stfs 12,0(31)
	.loc 7 2124 0
	stfs 0,0(31)
	.loc 7 2125 0
	stfs 31,0(31)
.LBE1687:
.LBE1686:
	.loc 3 146 0
	lfs 0,.LC1@l(26)
	.loc 3 151 0
	lbz 9,174(30)
	lbz 6,172(30)
	.loc 3 146 0
	fsub 13,13,0
	.loc 3 151 0
	lbz 7,173(30)
	.loc 3 146 0
	fsub 23,23,0
.LBB1688:
.LBB1689:
	.loc 7 2229 0
	stb 6,0(31)
.LBE1689:
.LBE1688:
	.loc 3 147 0
	fsub 20,20,0
.LBB1693:
.LBB1690:
	.loc 7 2230 0
	stb 7,0(31)
.LBE1690:
.LBE1693:
	.loc 3 148 0
	fsub 19,19,0
.LBB1694:
.LBB1691:
	.loc 7 2231 0
	stb 9,0(31)
.LBE1691:
.LBE1694:
	.loc 3 146 0
	frsp 13,13
.LBB1695:
.LBB1692:
	.loc 7 2232 0
	stb 28,0(31)
.LBE1692:
.LBE1695:
	.loc 3 146 0
	frsp 23,23
	.loc 3 147 0
	frsp 20,20
.LBB1696:
	.loc 3 153 0
	lwz 9,144(30)
.LBE1696:
	.loc 3 148 0
	frsp 19,19
	.loc 3 146 0
	fdivs 23,23,13
.LVL276:
.LBB1703:
	.loc 3 153 0
	cmpwi 7,9,0
.LBE1703:
	.loc 3 147 0
	fdivs 20,20,13
.LVL277:
	.loc 3 148 0
	fdivs 19,19,13
.LVL278:
.LBB1704:
	.loc 3 153 0
	ble- 7,.L142
	xoris 8,8,0x8000
.LVL279:
	xoris 10,10,0x8000
.LVL280:
	xoris 11,11,0x8000
.LVL281:
	stw 8,252(1)
	stw 0,248(1)
	lis 27,.LC5@ha
	stw 10,260(1)
	lis 21,.LC7@ha
	stw 0,256(1)
	lis 25,.LC1@ha
	stw 11,268(1)
	li 22,0
	stw 0,264(1)
	li 24,0
	lfd 16,248(1)
	la 25,.LC1@l(25)
	lfd 17,256(1)
.LVL282:
	la 27,.LC5@l(27)
	lfd 18,264(1)
	fsub 16,16,0
	fsub 17,17,0
	la 21,.LC7@l(21)
	fsub 18,18,0
	frsp 16,16
	frsp 17,17
	frsp 18,18
.LVL283:
.L143:
	.loc 3 155 0 discriminator 2
	addi 9,9,-1
.LVL284:
	xoris 0,22,0x8000
	xoris 9,9,0x8000
.LVL285:
	lis 23,0x4330
	stw 0,276(1)
	.loc 3 153 0 discriminator 2
	addi 22,22,90
.LVL286:
	.loc 3 155 0 discriminator 2
	stw 9,284(1)
	stw 23,272(1)
	stw 23,280(1)
	lfd 24,272(1)
	lfd 12,280(1)
	lfs 26,0(25)
	lfs 13,0(21)
	fsub 24,24,26
	lfs 0,0(27)
	fsub 12,12,26
	.loc 3 156 0 discriminator 2
	lfs 29,148(30)
	.loc 3 155 0 discriminator 2
	frsp 24,24
	frsp 12,12
	fdivs 24,24,12
	fadds 24,24,13
	fmuls 24,24,0
	.loc 3 156 0 discriminator 2
	fmr 1,24
	bl cos
.LVL287:
	fmr 13,29
	fadds 0,29,28
	fmadd 0,13,1,0
	fmr 1,24
	frsp 24,0
	bl sin
	lfs 13,152(30)
	fsubs 0,30,29
	.loc 3 157 0 discriminator 2
	xoris 0,24,0x8000
	.loc 3 156 0 discriminator 2
	fsubs 29,29,13
.LBB1697:
.LBB1698:
	.loc 7 2123 0 discriminator 2
	stfs 24,0(31)
.LBE1698:
.LBE1697:
	.loc 3 157 0 discriminator 2
	addi 9,1,580
	.loc 3 153 0 discriminator 2
	addi 24,24,1
	.loc 3 156 0 discriminator 2
	fmadd 29,29,1,0
	frsp 29,29
.LVL288:
.LBB1700:
.LBB1699:
	.loc 7 2124 0 discriminator 2
	stfs 29,0(31)
	.loc 7 2125 0 discriminator 2
	stfs 31,0(31)
.LBE1699:
.LBE1700:
	.loc 3 157 0 discriminator 2
	stw 0,292(1)
	stw 23,288(1)
	lfd 0,288(1)
	fsub 26,0,26
	frsp 26,26
	fmadds 13,26,23,16
	fmadds 0,20,26,17
	fmadds 26,19,26,18
	fctiwz 13,13
	fctiwz 0,0
	fctiwz 26,26
	stfiwx 13,0,9
	addi 9,1,584
	stfiwx 0,0,9
	addi 9,1,588
	stfiwx 26,0,9
	lwz 9,584(1)
	lwz 11,580(1)
	lwz 0,588(1)
.LVL289:
.LBB1701:
.LBB1702:
	.loc 7 2229 0 discriminator 2
	stb 11,0(31)
	.loc 7 2230 0 discriminator 2
	stb 9,0(31)
	.loc 7 2231 0 discriminator 2
	stb 0,0(31)
	.loc 7 2232 0 discriminator 2
	stb 29,0(31)
.LBE1702:
.LBE1701:
	.loc 3 153 0 discriminator 2
	lwz 9,144(30)
	cmpw 7,9,24
	bgt+ 7,.L143
.LVL290:
.L142:
.LBE1704:
.LBE1666:
	.loc 3 163 0
	li 3,128
	li 4,0
	li 5,8
	bl GX_Begin
	.loc 3 165 0
	lfs 0,148(30)
	.loc 3 172 0
	fctiwz 13,21
	.loc 3 192 0
	li 3,160
	.loc 3 165 0
	fadds 12,0,28
	.loc 3 192 0
	li 4,0
	.loc 3 165 0
	fsubs 0,30,0
.LVL291:
.LBB1705:
.LBB1706:
	.loc 7 2123 0
	stfs 12,0(31)
	.loc 7 2124 0
	stfs 0,0(31)
	.loc 7 2125 0
	stfs 31,0(31)
.LBE1706:
.LBE1705:
	.loc 3 166 0
	lbz 11,184(30)
	lbz 9,185(30)
	lbz 0,186(30)
.LVL292:
.LBB1707:
.LBB1708:
	.loc 7 2229 0
	stb 11,0(31)
	.loc 7 2230 0
	stb 9,0(31)
	.loc 7 2231 0
	stb 0,0(31)
	.loc 7 2232 0
	stb 28,0(31)
.LBE1708:
.LBE1707:
	.loc 3 168 0
	lfs 0,148(30)
.LVL293:
	fsubs 12,27,0
.LVL294:
	fsubs 0,30,0
.LVL295:
.LBB1709:
.LBB1710:
	.loc 7 2123 0
	stfs 12,0(31)
	.loc 7 2124 0
	stfs 0,0(31)
	.loc 7 2125 0
	stfs 31,0(31)
.LBE1710:
.LBE1709:
	.loc 3 169 0
	lbz 11,184(30)
.LVL296:
	lbz 9,185(30)
.LVL297:
	lbz 0,186(30)
.LVL298:
.LBB1711:
.LBB1712:
	.loc 7 2229 0
	stb 11,0(31)
	.loc 7 2230 0
	stb 9,0(31)
.LBE1712:
.LBE1711:
	.loc 3 172 0
	addi 9,1,576
.LVL299:
.LBB1714:
.LBB1713:
	.loc 7 2231 0
	stb 0,0(31)
	.loc 7 2232 0
	stb 28,0(31)
.LBE1713:
.LBE1714:
	.loc 3 171 0
	lfs 0,148(30)
.LVL300:
	fsubs 0,27,0
.LVL301:
.LBB1715:
.LBB1716:
	.loc 7 2123 0
	stfs 0,0(31)
	.loc 7 2124 0
	stfs 30,0(31)
	.loc 7 2125 0
	stfs 31,0(31)
.LBE1716:
.LBE1715:
	.loc 3 172 0
	stfiwx 13,0,9
	lwz 0,576(1)
.LVL302:
	lbz 10,188(30)
.LVL303:
	lbz 11,189(30)
.LVL304:
	lbz 9,190(30)
.LVL305:
.LBB1717:
.LBB1718:
	.loc 7 2229 0
	stb 10,0(31)
	.loc 7 2230 0
	stb 11,0(31)
	.loc 7 2231 0
	stb 9,0(31)
	.loc 7 2232 0
	stb 0,0(31)
.LBE1718:
.LBE1717:
	.loc 3 174 0
	lfs 0,148(30)
.LVL306:
	fadds 0,28,0
.LVL307:
.LBB1719:
.LBB1720:
	.loc 7 2123 0
	stfs 0,0(31)
	.loc 7 2124 0
	stfs 30,0(31)
	.loc 7 2125 0
	stfs 31,0(31)
.LBE1720:
.LBE1719:
	.loc 3 175 0
	lbz 10,188(30)
.LVL308:
	lbz 11,189(30)
.LVL309:
	lbz 9,190(30)
.LVL310:
.LBB1721:
.LBB1722:
	.loc 7 2229 0
	stb 10,0(31)
	.loc 7 2230 0
	stb 11,0(31)
	.loc 7 2231 0
	stb 9,0(31)
	.loc 7 2232 0
	stb 0,0(31)
.LBE1722:
.LBE1721:
	.loc 3 178 0
	lfs 0,148(30)
.LVL311:
	fadds 13,0,28
	fsubs 0,30,0
.LVL312:
.LBB1723:
.LBB1724:
	.loc 7 2123 0
	stfs 13,0(31)
	.loc 7 2124 0
	stfs 0,0(31)
	.loc 7 2125 0
	stfs 31,0(31)
.LBE1724:
.LBE1723:
	.loc 3 179 0
	lbz 11,172(30)
.LVL313:
	lbz 9,173(30)
.LVL314:
	lbz 0,174(30)
.LVL315:
.LBB1725:
.LBB1726:
	.loc 7 2229 0
	stb 11,0(31)
	.loc 7 2230 0
	stb 9,0(31)
	.loc 7 2231 0
	stb 0,0(31)
	.loc 7 2232 0
	stb 28,0(31)
.LBE1726:
.LBE1725:
	.loc 3 181 0
	lfs 0,148(30)
.LVL316:
	fsubs 13,27,0
.LVL317:
	fsubs 0,30,0
.LVL318:
.LBB1727:
.LBB1728:
	.loc 7 2123 0
	stfs 13,0(31)
	.loc 7 2124 0
	stfs 0,0(31)
	.loc 7 2125 0
	stfs 31,0(31)
.LBE1728:
.LBE1727:
	.loc 3 182 0
	lbz 11,172(30)
.LVL319:
	lbz 9,173(30)
.LVL320:
	lbz 0,174(30)
.LVL321:
.LBB1729:
.LBB1730:
	.loc 7 2229 0
	stb 11,0(31)
	.loc 7 2230 0
	stb 9,0(31)
	.loc 7 2231 0
	stb 0,0(31)
	.loc 7 2232 0
	stb 28,0(31)
.LBE1730:
.LBE1729:
	.loc 3 184 0
	lfs 13,148(30)
.LVL322:
	lfs 0,152(30)
.LVL323:
	fsubs 13,27,13
	fsubs 0,30,0
.LVL324:
.LBB1731:
.LBB1732:
	.loc 7 2123 0
	stfs 13,0(31)
	.loc 7 2124 0
	stfs 0,0(31)
	.loc 7 2125 0
	stfs 31,0(31)
.LBE1732:
.LBE1731:
	.loc 3 185 0
	lbz 11,184(30)
.LVL325:
	lbz 9,185(30)
.LVL326:
	lbz 0,186(30)
.LVL327:
.LBB1733:
.LBB1734:
	.loc 7 2229 0
	stb 11,0(31)
	.loc 7 2230 0
	stb 9,0(31)
	.loc 7 2231 0
	stb 0,0(31)
	.loc 7 2232 0
	stb 28,0(31)
.LBE1734:
.LBE1733:
	.loc 3 187 0
	lfs 13,148(30)
.LVL328:
	lfs 0,152(30)
.LVL329:
	fadds 13,28,13
	fsubs 0,30,0
.LVL330:
.LBB1735:
.LBB1736:
	.loc 7 2123 0
	stfs 13,0(31)
	.loc 7 2124 0
	stfs 0,0(31)
	.loc 7 2125 0
	stfs 31,0(31)
.LBE1736:
.LBE1735:
	.loc 3 188 0
	lbz 11,184(30)
.LVL331:
	lbz 9,185(30)
.LVL332:
	lbz 0,186(30)
.LVL333:
.LBB1737:
.LBB1738:
	.loc 7 2229 0
	stb 11,0(31)
	.loc 7 2230 0
	stb 9,0(31)
	.loc 7 2231 0
	stb 0,0(31)
	.loc 7 2232 0
	stb 28,0(31)
.LBE1738:
.LBE1737:
	.loc 3 192 0
	lwz 5,144(30)
	addi 5,5,1
	rlwinm 5,5,1,16,30
	bl GX_Begin
.LVL334:
.LBB1739:
	.loc 3 195 0
	lbz 19,180(30)
.LVL335:
	.loc 3 196 0
	lbz 20,181(30)
.LVL336:
	.loc 3 199 0
	lis 0,0x4330
	.loc 3 197 0
	lbz 21,182(30)
.LVL337:
	.loc 3 202 0
	fsubs 21,21,22
.LVL338:
	.loc 3 199 0
	lwz 8,144(30)
	lbz 10,188(30)
	.loc 3 200 0
	lbz 11,189(30)
	.loc 3 199 0
	addi 8,8,-1
	.loc 3 201 0
	lbz 9,190(30)
	.loc 3 199 0
	subf 10,19,10
	.loc 3 203 0
	lfs 0,148(30)
	.loc 3 200 0
	subf 11,20,11
	.loc 3 201 0
	subf 9,21,9
	.loc 3 199 0
	xoris 10,10,0x8000
	.loc 3 200 0
	xoris 11,11,0x8000
	.loc 3 201 0
	xoris 9,9,0x8000
	.loc 3 203 0
	fsubs 12,27,0
	.loc 3 199 0
	xoris 8,8,0x8000
	.loc 3 203 0
	fsubs 0,30,0
	.loc 3 199 0
	stw 8,300(1)
	stw 0,296(1)
	stw 10,308(1)
	stw 0,304(1)
	.loc 3 200 0
	stw 11,316(1)
	stw 0,312(1)
	.loc 3 201 0
	stw 9,324(1)
	stw 0,320(1)
	.loc 3 199 0
	lfd 13,296(1)
	lfd 20,304(1)
.LVL339:
	.loc 3 200 0
	lfd 19,312(1)
.LVL340:
	.loc 3 201 0
	lfd 18,320(1)
.LBB1740:
.LBB1741:
	.loc 7 2123 0
	stfs 12,0(31)
	.loc 7 2124 0
	stfs 0,0(31)
	.loc 7 2125 0
	stfs 31,0(31)
.LBE1741:
.LBE1740:
	.loc 3 199 0
	lfs 0,.LC1@l(26)
	.loc 3 204 0
	lbz 9,174(30)
	lbz 10,172(30)
	.loc 3 199 0
	fsub 13,13,0
	.loc 3 204 0
	lbz 11,173(30)
	.loc 3 199 0
	fsub 20,20,0
.LBB1742:
.LBB1743:
	.loc 7 2229 0
	stb 10,0(31)
.LBE1743:
.LBE1742:
	.loc 3 200 0
	fsub 19,19,0
.LBB1747:
.LBB1744:
	.loc 7 2230 0
	stb 11,0(31)
.LBE1744:
.LBE1747:
	.loc 3 201 0
	fsub 18,18,0
.LBB1748:
.LBB1745:
	.loc 7 2231 0
	stb 9,0(31)
.LBE1745:
.LBE1748:
	.loc 3 199 0
	frsp 13,13
.LBB1749:
.LBB1746:
	.loc 7 2232 0
	stb 28,0(31)
.LBE1746:
.LBE1749:
	.loc 3 199 0
	frsp 20,20
	.loc 3 200 0
	frsp 19,19
.LBB1750:
	.loc 3 206 0
	lwz 9,144(30)
.LBE1750:
	.loc 3 201 0
	frsp 18,18
	.loc 3 199 0
	fdivs 20,20,13
.LVL341:
.LBB1757:
	.loc 3 206 0
	cmpwi 7,9,0
.LBE1757:
	.loc 3 200 0
	fdivs 19,19,13
.LVL342:
	.loc 3 201 0
	fdivs 18,18,13
.LVL343:
	.loc 3 202 0
	fdivs 21,21,13
.LVL344:
.LBB1758:
	.loc 3 206 0
	ble- 7,.L144
	xoris 8,19,0x8000
	xoris 10,20,0x8000
.LVL345:
	xoris 11,21,0x8000
.LVL346:
	stw 8,332(1)
	stw 0,328(1)
	lis 27,.LC5@ha
	stw 10,340(1)
	lis 25,.LC1@ha
	stw 0,336(1)
	li 22,0
	stw 11,348(1)
	li 24,0
	stw 0,344(1)
	la 25,.LC1@l(25)
	lfd 15,328(1)
	la 27,.LC5@l(27)
	lfd 16,336(1)
	lfd 17,344(1)
	fsub 15,15,0
	fsub 16,16,0
	fsub 17,17,0
	frsp 15,15
	frsp 16,16
	frsp 17,17
.LVL347:
.L145:
	.loc 3 208 0 discriminator 2
	addi 9,9,-1
.LVL348:
	xoris 0,22,0x8000
	xoris 9,9,0x8000
.LVL349:
	lis 23,0x4330
	stw 0,356(1)
	.loc 3 206 0 discriminator 2
	addi 22,22,90
.LVL350:
	.loc 3 208 0 discriminator 2
	stw 9,364(1)
	stw 23,352(1)
	stw 23,360(1)
	lfd 23,352(1)
	lfd 13,360(1)
	lfs 29,0(25)
	lfs 0,0(27)
	fsub 23,23,29
	.loc 3 209 0 discriminator 2
	lfs 26,148(30)
	.loc 3 208 0 discriminator 2
	fsub 13,13,29
	.loc 3 209 0 discriminator 2
	fmr 24,26
	.loc 3 208 0 discriminator 2
	frsp 23,23
	frsp 13,13
	fdivs 23,23,13
	fmuls 23,23,0
	.loc 3 209 0 discriminator 2
	fmr 1,23
	bl cos
.LVL351:
	fsubs 0,27,26
	fsubs 26,30,26
	fmadd 0,24,1,0
	fmr 1,23
	frsp 23,0
	bl sin
	.loc 3 210 0 discriminator 2
	xoris 0,24,0x8000
	.loc 3 209 0 discriminator 2
	fmadd 26,24,1,26
	.loc 3 210 0 discriminator 2
	addi 9,1,560
.LBB1751:
.LBB1752:
	.loc 7 2123 0 discriminator 2
	stfs 23,0(31)
.LBE1752:
.LBE1751:
	.loc 3 206 0 discriminator 2
	addi 24,24,1
	.loc 3 209 0 discriminator 2
	frsp 26,26
.LVL352:
.LBB1754:
.LBB1753:
	.loc 7 2124 0 discriminator 2
	stfs 26,0(31)
	.loc 7 2125 0 discriminator 2
	stfs 31,0(31)
.LBE1753:
.LBE1754:
	.loc 3 210 0 discriminator 2
	stw 0,372(1)
	stw 23,368(1)
	lfd 0,368(1)
	fsub 29,0,29
	frsp 29,29
	fmadds 12,29,20,15
	fmadds 13,19,29,16
	fmadds 0,18,29,17
	fctiwz 12,12
	fmadds 29,21,29,22
	fctiwz 13,13
	fctiwz 0,0
	stfiwx 12,0,9
	fctiwz 29,29
	addi 9,1,564
	stfiwx 13,0,9
	addi 9,1,568
	stfiwx 0,0,9
	addi 9,1,572
	stfiwx 29,0,9
	lwz 9,568(1)
	lwz 10,560(1)
	lwz 11,564(1)
	lwz 0,572(1)
.LVL353:
.LBB1755:
.LBB1756:
	.loc 7 2229 0 discriminator 2
	stb 10,0(31)
	.loc 7 2230 0 discriminator 2
	stb 11,0(31)
	.loc 7 2231 0 discriminator 2
	stb 9,0(31)
	.loc 7 2232 0 discriminator 2
	stb 0,0(31)
.LBE1756:
.LBE1755:
	.loc 3 206 0 discriminator 2
	lwz 9,144(30)
	cmpw 7,9,24
	bgt+ 7,.L145
.LVL354:
.L144:
.LBE1758:
	.loc 3 213 0
	lbz 8,184(30)
	addi 9,9,-1
	.loc 3 214 0
	lbz 10,185(30)
	.loc 3 213 0
	lis 0,0x4330
	.loc 3 215 0
	lbz 11,186(30)
	.loc 3 213 0
	subf 8,19,8
	.loc 3 217 0
	lfs 0,148(30)
	.loc 3 214 0
	subf 10,20,10
	.loc 3 215 0
	subf 11,21,11
	.loc 3 213 0
	xoris 9,9,0x8000
	.loc 3 214 0
	xoris 10,10,0x8000
	.loc 3 215 0
	xoris 11,11,0x8000
	.loc 3 217 0
	fsubs 12,27,0
	.loc 3 213 0
	xoris 8,8,0x8000
	.loc 3 217 0
	fsubs 0,30,0
	.loc 3 213 0
	stw 9,380(1)
	stw 0,376(1)
	stw 8,388(1)
	stw 0,384(1)
	.loc 3 214 0
	stw 10,396(1)
	stw 0,392(1)
	.loc 3 215 0
	stw 11,404(1)
	stw 0,400(1)
	.loc 3 213 0
	lfd 13,376(1)
	lfd 23,384(1)
	.loc 3 214 0
	lfd 22,392(1)
.LVL355:
	.loc 3 215 0
	lfd 21,400(1)
.LVL356:
.LBB1759:
.LBB1760:
	.loc 7 2123 0
	stfs 12,0(31)
	.loc 7 2124 0
	stfs 0,0(31)
	.loc 7 2125 0
	stfs 31,0(31)
.LBE1760:
.LBE1759:
	.loc 3 213 0
	lfs 0,.LC1@l(26)
	.loc 3 218 0
	lbz 9,174(30)
	lbz 10,172(30)
	.loc 3 213 0
	fsub 13,13,0
	.loc 3 218 0
	lbz 11,173(30)
	.loc 3 213 0
	fsub 23,23,0
.LBB1761:
.LBB1762:
	.loc 7 2229 0
	stb 10,0(31)
.LBE1762:
.LBE1761:
	.loc 3 214 0
	fsub 22,22,0
.LBB1766:
.LBB1763:
	.loc 7 2230 0
	stb 11,0(31)
.LBE1763:
.LBE1766:
	.loc 3 215 0
	fsub 21,21,0
.LBB1767:
.LBB1764:
	.loc 7 2231 0
	stb 9,0(31)
.LBE1764:
.LBE1767:
	.loc 3 213 0
	frsp 13,13
.LBB1768:
.LBB1765:
	.loc 7 2232 0
	stb 28,0(31)
.LBE1765:
.LBE1768:
	.loc 3 213 0
	frsp 23,23
	.loc 3 214 0
	frsp 22,22
.LBB1769:
	.loc 3 220 0
	lwz 9,144(30)
.LBE1769:
	.loc 3 215 0
	frsp 21,21
	.loc 3 213 0
	fdivs 23,23,13
.LVL357:
.LBB1776:
	.loc 3 220 0
	cmpwi 7,9,0
.LBE1776:
	.loc 3 214 0
	fdivs 22,22,13
.LVL358:
	.loc 3 215 0
	fdivs 21,21,13
.LVL359:
.LBB1777:
	.loc 3 220 0
	ble- 7,.L146
	xoris 19,19,0x8000
.LVL360:
	xoris 20,20,0x8000
.LVL361:
	xoris 21,21,0x8000
.LVL362:
	stw 19,412(1)
	stw 0,408(1)
	lis 27,.LC5@ha
	stw 20,420(1)
	lis 25,.LC1@ha
	stw 0,416(1)
	li 22,0
	stw 21,428(1)
	li 24,0
	stw 0,424(1)
	la 25,.LC1@l(25)
	lfd 18,408(1)
	la 27,.LC5@l(27)
	lfd 19,416(1)
	lfd 20,424(1)
	fsub 18,18,0
	fsub 19,19,0
	fsub 20,20,0
	frsp 18,18
	frsp 19,19
	frsp 20,20
.LVL363:
.L147:
	.loc 3 222 0 discriminator 2
	addi 9,9,-1
.LVL364:
	xoris 0,22,0x8000
	xoris 9,9,0x8000
.LVL365:
	lis 23,0x4330
	stw 0,436(1)
	.loc 3 220 0 discriminator 2
	addi 22,22,90
.LVL366:
	.loc 3 222 0 discriminator 2
	stw 9,444(1)
	stw 23,432(1)
	stw 23,440(1)
	lfd 24,432(1)
	lfd 13,440(1)
	lfs 26,0(25)
	lfs 0,0(27)
	fsub 24,24,26
	.loc 3 223 0 discriminator 2
	lfs 29,148(30)
	.loc 3 222 0 discriminator 2
	fsub 13,13,26
	frsp 24,24
	frsp 13,13
	fdivs 24,24,13
	fmuls 24,24,0
	.loc 3 223 0 discriminator 2
	fmr 1,24
	bl cos
.LVL367:
	fmr 13,29
	fsubs 0,27,29
	fmadd 0,13,1,0
	fmr 1,24
	frsp 24,0
	bl sin
	lfs 13,152(30)
	fsubs 0,30,29
	.loc 3 224 0 discriminator 2
	xoris 0,24,0x8000
	.loc 3 223 0 discriminator 2
	fsubs 29,29,13
.LBB1770:
.LBB1771:
	.loc 7 2123 0 discriminator 2
	stfs 24,0(31)
.LBE1771:
.LBE1770:
	.loc 3 224 0 discriminator 2
	addi 9,1,548
	.loc 3 220 0 discriminator 2
	addi 24,24,1
	.loc 3 223 0 discriminator 2
	fmadd 29,29,1,0
	frsp 29,29
.LVL368:
.LBB1773:
.LBB1772:
	.loc 7 2124 0 discriminator 2
	stfs 29,0(31)
	.loc 7 2125 0 discriminator 2
	stfs 31,0(31)
.LBE1772:
.LBE1773:
	.loc 3 224 0 discriminator 2
	stw 0,452(1)
	stw 23,448(1)
	lfd 0,448(1)
	fsub 26,0,26
	frsp 26,26
	fmadds 13,26,23,18
	fmadds 0,22,26,19
	fmadds 26,21,26,20
	fctiwz 13,13
	fctiwz 0,0
	fctiwz 26,26
	stfiwx 13,0,9
	addi 9,1,552
	stfiwx 0,0,9
	addi 9,1,556
	stfiwx 26,0,9
	lwz 9,552(1)
	lwz 11,548(1)
	lwz 0,556(1)
.LVL369:
.LBB1774:
.LBB1775:
	.loc 7 2229 0 discriminator 2
	stb 11,0(31)
	.loc 7 2230 0 discriminator 2
	stb 9,0(31)
	.loc 7 2231 0 discriminator 2
	stb 0,0(31)
	.loc 7 2232 0 discriminator 2
	stb 29,0(31)
.LBE1775:
.LBE1774:
	.loc 3 220 0 discriminator 2
	lwz 9,144(30)
	cmpw 7,9,24
	bgt+ 7,.L147
.LVL370:
.L146:
.LBE1777:
.LBE1739:
	.loc 3 230 0
	li 3,128
	li 4,0
	li 5,4
	bl GX_Begin
	.loc 3 231 0
	lfs 0,148(30)
	.loc 3 245 0
	li 3,160
	li 4,0
	.loc 3 231 0
	fsubs 13,27,0
	fadds 0,25,0
.LVL371:
.LBB1778:
.LBB1779:
	.loc 7 2123 0
	stfs 13,0(31)
	.loc 7 2124 0
	stfs 0,0(31)
	.loc 7 2125 0
	stfs 31,0(31)
.LBE1779:
.LBE1778:
	.loc 3 232 0
	lbz 11,168(30)
	lbz 9,169(30)
	lbz 0,170(30)
.LVL372:
.LBB1780:
.LBB1781:
	.loc 7 2229 0
	stb 11,0(31)
	.loc 7 2230 0
	stb 9,0(31)
	.loc 7 2231 0
	stb 0,0(31)
	.loc 7 2232 0
	stb 28,0(31)
.LBE1781:
.LBE1780:
	.loc 3 234 0
	lfs 0,148(30)
.LVL373:
.LBB1782:
.LBB1783:
	.loc 7 2123 0
	stfs 27,0(31)
.LBE1783:
.LBE1782:
	.loc 3 234 0
	fadds 0,25,0
.LVL374:
.LBB1785:
.LBB1784:
	.loc 7 2124 0
	stfs 0,0(31)
	.loc 7 2125 0
	stfs 31,0(31)
.LBE1784:
.LBE1785:
	.loc 3 235 0
	lbz 11,176(30)
.LVL375:
	lbz 9,177(30)
.LVL376:
	lbz 0,178(30)
.LVL377:
.LBB1786:
.LBB1787:
	.loc 7 2229 0
	stb 11,0(31)
	.loc 7 2230 0
	stb 9,0(31)
	.loc 7 2231 0
	stb 0,0(31)
	.loc 7 2232 0
	stb 28,0(31)
.LBE1787:
.LBE1786:
	.loc 3 237 0
	lfs 0,148(30)
.LVL378:
.LBB1788:
.LBB1789:
	.loc 7 2123 0
	stfs 27,0(31)
.LBE1789:
.LBE1788:
	.loc 3 237 0
	fsubs 0,30,0
.LVL379:
.LBB1791:
.LBB1790:
	.loc 7 2124 0
	stfs 0,0(31)
	.loc 7 2125 0
	stfs 31,0(31)
.LBE1790:
.LBE1791:
	.loc 3 238 0
	lbz 11,180(30)
.LVL380:
	lbz 9,181(30)
.LVL381:
	lbz 0,182(30)
.LVL382:
.LBB1792:
.LBB1793:
	.loc 7 2229 0
	stb 11,0(31)
	.loc 7 2230 0
	stb 9,0(31)
	.loc 7 2231 0
	stb 0,0(31)
	.loc 7 2232 0
	stb 28,0(31)
.LBE1793:
.LBE1792:
	.loc 3 240 0
	lfs 0,148(30)
.LVL383:
	fsubs 13,27,0
.LVL384:
	fsubs 0,30,0
.LVL385:
.LBB1794:
.LBB1795:
	.loc 7 2123 0
	stfs 13,0(31)
	.loc 7 2124 0
	stfs 0,0(31)
	.loc 7 2125 0
	stfs 31,0(31)
.LBE1795:
.LBE1794:
	.loc 3 241 0
	lbz 11,172(30)
.LVL386:
	lbz 9,173(30)
.LVL387:
	lbz 0,174(30)
.LVL388:
.LBB1796:
.LBB1797:
	.loc 7 2229 0
	stb 11,0(31)
	.loc 7 2230 0
	stb 9,0(31)
	.loc 7 2231 0
	stb 0,0(31)
	.loc 7 2232 0
	stb 28,0(31)
.LBE1797:
.LBE1796:
	.loc 3 245 0
	lwz 5,144(30)
	addi 5,5,1
	rlwinm 5,5,0,0xffff
	bl GX_Begin
.LVL389:
.LBB1798:
	.loc 3 248 0
	lbz 8,164(30)
.LVL390:
	.loc 3 249 0
	lbz 10,165(30)
.LVL391:
	.loc 3 251 0
	lis 0,0x4330
	.loc 3 250 0
	lbz 11,166(30)
.LVL392:
	.loc 3 251 0
	lwz 5,144(30)
	lbz 6,176(30)
	.loc 3 252 0
	lbz 7,177(30)
	.loc 3 251 0
	addi 5,5,-1
	.loc 3 253 0
	lbz 9,178(30)
	.loc 3 251 0
	subf 6,8,6
	.loc 3 254 0
	lfs 0,148(30)
	.loc 3 252 0
	subf 7,10,7
	.loc 3 253 0
	subf 9,11,9
	.loc 3 251 0
	xoris 6,6,0x8000
	.loc 3 252 0
	xoris 7,7,0x8000
	.loc 3 253 0
	xoris 9,9,0x8000
	.loc 3 254 0
	fsubs 12,27,0
	.loc 3 251 0
	xoris 5,5,0x8000
	.loc 3 254 0
	fadds 0,25,0
	.loc 3 251 0
	stw 5,460(1)
	stw 0,456(1)
	stw 6,468(1)
	stw 0,464(1)
	.loc 3 252 0
	stw 7,476(1)
	stw 0,472(1)
	.loc 3 253 0
	stw 9,484(1)
	stw 0,480(1)
	.loc 3 251 0
	lfd 13,456(1)
	lfd 22,464(1)
.LVL393:
	.loc 3 252 0
	lfd 21,472(1)
.LVL394:
	.loc 3 253 0
	lfd 20,480(1)
.LBB1799:
.LBB1800:
	.loc 7 2123 0
	stfs 12,0(31)
	.loc 7 2124 0
	stfs 0,0(31)
	.loc 7 2125 0
	stfs 31,0(31)
.LBE1800:
.LBE1799:
	.loc 3 251 0
	lfs 0,.LC1@l(26)
	.loc 3 255 0
	lbz 9,170(30)
	lbz 6,168(30)
	.loc 3 251 0
	fsub 13,13,0
	.loc 3 255 0
	lbz 7,169(30)
	.loc 3 251 0
	fsub 22,22,0
.LBB1801:
.LBB1802:
	.loc 7 2229 0
	stb 6,0(31)
.LBE1802:
.LBE1801:
	.loc 3 252 0
	fsub 21,21,0
.LBB1806:
.LBB1803:
	.loc 7 2230 0
	stb 7,0(31)
.LBE1803:
.LBE1806:
	.loc 3 253 0
	fsub 20,20,0
.LBB1807:
.LBB1804:
	.loc 7 2231 0
	stb 9,0(31)
.LBE1804:
.LBE1807:
	.loc 3 251 0
	frsp 13,13
.LBB1808:
.LBB1805:
	.loc 7 2232 0
	stb 28,0(31)
.LBE1805:
.LBE1808:
	.loc 3 251 0
	frsp 22,22
	.loc 3 252 0
	frsp 21,21
.LBB1809:
	.loc 3 257 0
	lwz 9,144(30)
.LBE1809:
	.loc 3 253 0
	frsp 20,20
	.loc 3 251 0
	fdivs 22,22,13
.LVL395:
.LBB1816:
	.loc 3 257 0
	cmpwi 7,9,0
.LBE1816:
	.loc 3 252 0
	fdivs 21,21,13
.LVL396:
	.loc 3 253 0
	fdivs 20,20,13
.LVL397:
.LBB1817:
	.loc 3 257 0
	ble- 7,.L148
	xoris 8,8,0x8000
.LVL398:
	xoris 10,10,0x8000
.LVL399:
	xoris 11,11,0x8000
.LVL400:
	stw 8,492(1)
	stw 0,488(1)
	lis 27,.LC5@ha
	stw 10,500(1)
	lis 25,.LC1@ha
	stw 0,496(1)
	lis 22,.LC8@ha
	stw 11,508(1)
	li 23,0
	stw 0,504(1)
	li 26,0
	lfd 17,488(1)
	la 25,.LC1@l(25)
	lfd 18,496(1)
	la 27,.LC5@l(27)
	lfd 19,504(1)
	fsub 17,17,0
	fsub 18,18,0
	la 22,.LC8@l(22)
	fsub 19,19,0
	frsp 17,17
	frsp 18,18
	frsp 19,19
.LVL401:
.L149:
	.loc 3 259 0 discriminator 2
	addi 9,9,-1
.LVL402:
	xoris 0,23,0x8000
	xoris 9,9,0x8000
.LVL403:
	lis 24,0x4330
	stw 0,516(1)
	.loc 3 257 0 discriminator 2
	addi 23,23,90
.LVL404:
	.loc 3 259 0 discriminator 2
	stw 9,524(1)
	stw 24,512(1)
	stw 24,520(1)
	lfd 23,512(1)
	lfd 12,520(1)
	lfs 29,0(25)
	lfs 13,0(22)
	fsub 23,23,29
	lfs 0,0(27)
	fsub 12,12,29
	.loc 3 260 0 discriminator 2
	lfs 26,148(30)
	.loc 3 259 0 discriminator 2
	frsp 23,23
	frsp 12,12
	.loc 3 260 0 discriminator 2
	fmr 24,26
	.loc 3 259 0 discriminator 2
	fdivs 23,23,12
	fadds 23,23,13
	fmuls 23,23,0
	.loc 3 260 0 discriminator 2
	fmr 1,23
	bl cos
.LVL405:
	fsubs 0,27,26
	fadds 26,25,26
	fmadd 0,24,1,0
	fmr 1,23
	frsp 23,0
	bl sin
	.loc 3 261 0 discriminator 2
	xoris 0,26,0x8000
	.loc 3 260 0 discriminator 2
	fmadd 26,24,1,26
	.loc 3 261 0 discriminator 2
	addi 9,1,536
.LBB1810:
.LBB1811:
	.loc 7 2123 0 discriminator 2
	stfs 23,0(31)
.LBE1811:
.LBE1810:
	.loc 3 257 0 discriminator 2
	addi 26,26,1
	.loc 3 260 0 discriminator 2
	frsp 26,26
.LVL406:
.LBB1813:
.LBB1812:
	.loc 7 2124 0 discriminator 2
	stfs 26,0(31)
	.loc 7 2125 0 discriminator 2
	stfs 31,0(31)
.LBE1812:
.LBE1813:
	.loc 3 261 0 discriminator 2
	stw 0,532(1)
	stw 24,528(1)
	lfd 0,528(1)
	fsub 29,0,29
	frsp 29,29
	fmadds 13,29,22,17
	fmadds 0,21,29,18
	fmadds 29,20,29,19
	fctiwz 13,13
	fctiwz 0,0
	fctiwz 29,29
	stfiwx 13,0,9
	addi 9,1,540
	stfiwx 0,0,9
	addi 9,1,544
	stfiwx 29,0,9
	lwz 9,540(1)
	lwz 11,536(1)
	lwz 0,544(1)
.LVL407:
.LBB1814:
.LBB1815:
	.loc 7 2229 0 discriminator 2
	stb 11,0(31)
	.loc 7 2230 0 discriminator 2
	stb 9,0(31)
	.loc 7 2231 0 discriminator 2
	stb 0,0(31)
	.loc 7 2232 0 discriminator 2
	stb 29,0(31)
.LBE1815:
.LBE1814:
	.loc 3 257 0 discriminator 2
	lwz 9,144(30)
	cmpw 7,9,26
	bgt+ 7,.L149
.LVL408:
.L148:
.LBE1817:
.LBE1798:
	.loc 3 267 0
	li 5,4
	li 3,128
	li 4,0
	bl GX_Begin
	.loc 3 268 0
	lfs 0,148(30)
	.loc 3 281 0
	li 3,0
	li 4,0
	.loc 3 268 0
	fadds 13,0,28
	fadds 0,25,0
.LVL409:
.LBB1818:
.LBB1819:
	.loc 7 2123 0
	stfs 13,0(31)
	.loc 7 2124 0
	stfs 0,0(31)
	.loc 7 2125 0
	stfs 31,0(31)
.LBE1819:
.LBE1818:
	.loc 3 269 0
	lbz 11,168(30)
	lbz 9,169(30)
	lbz 0,170(30)
.LVL410:
.LBB1820:
.LBB1821:
	.loc 7 2229 0
	stb 11,0(31)
	.loc 7 2230 0
	stb 9,0(31)
	.loc 7 2231 0
	stb 0,0(31)
	.loc 7 2232 0
	stb 28,0(31)
.LBE1821:
.LBE1820:
	.loc 3 271 0
	lfs 0,148(30)
.LVL411:
	fsubs 13,27,0
.LVL412:
	fadds 25,25,0
.LVL413:
.LBB1822:
.LBB1823:
	.loc 7 2123 0
	stfs 13,0(31)
	.loc 7 2124 0
	stfs 25,0(31)
	.loc 7 2125 0
	stfs 31,0(31)
.LBE1823:
.LBE1822:
	.loc 3 272 0
	lbz 11,168(30)
.LVL414:
	lbz 9,169(30)
.LVL415:
	lbz 0,170(30)
.LVL416:
.LBB1824:
.LBB1825:
	.loc 7 2229 0
	stb 11,0(31)
	.loc 7 2230 0
	stb 9,0(31)
	.loc 7 2231 0
	stb 0,0(31)
	.loc 7 2232 0
	stb 28,0(31)
.LBE1825:
.LBE1824:
	.loc 3 274 0
	lfs 0,148(30)
	fsubs 27,27,0
.LVL417:
	fsubs 0,30,0
.LVL418:
.LBB1826:
.LBB1827:
	.loc 7 2123 0
	stfs 27,0(31)
	.loc 7 2124 0
	stfs 0,0(31)
	.loc 7 2125 0
	stfs 31,0(31)
.LBE1827:
.LBE1826:
	.loc 3 275 0
	lbz 11,172(30)
.LVL419:
	lbz 9,173(30)
.LVL420:
	lbz 0,174(30)
.LVL421:
.LBB1828:
.LBB1829:
	.loc 7 2229 0
	stb 11,0(31)
	.loc 7 2230 0
	stb 9,0(31)
	.loc 7 2231 0
	stb 0,0(31)
	.loc 7 2232 0
	stb 28,0(31)
.LBE1829:
.LBE1828:
	.loc 3 277 0
	lfs 0,148(30)
.LVL422:
	fadds 28,0,28
.LVL423:
	fsubs 30,30,0
.LVL424:
.LBB1830:
.LBB1831:
	.loc 7 2123 0
	stfs 28,0(31)
	.loc 7 2124 0
	stfs 30,0(31)
	.loc 7 2125 0
	stfs 31,0(31)
.LBE1831:
.LBE1830:
	.loc 3 278 0
	lbz 0,174(30)
.LVL425:
	lbz 11,172(30)
.LVL426:
	lbz 9,173(30)
.LVL427:
.LBB1832:
.LBB1833:
	.loc 7 2229 0
	stb 11,0(31)
	.loc 7 2230 0
	stb 9,0(31)
	.loc 7 2231 0
	stb 0,0(31)
	.loc 7 2232 0
	stb 28,0(31)
.LBE1833:
.LBE1832:
	.loc 3 281 0
	bl GX_SetTevOp
.LVL428:
	.loc 3 283 0
	bl GX_EndDispList
.LBE1836:
	.loc 3 284 0
	lwz 0,828(1)
.LBB1837:
	.loc 3 283 0
	stw 3,160(30)
.LBE1837:
	.loc 3 284 0
	mtlr 0
	lwz 19,628(1)
	lwz 20,632(1)
	lwz 21,636(1)
	lwz 22,640(1)
	lwz 23,644(1)
	lwz 24,648(1)
	lwz 25,652(1)
	lwz 26,656(1)
	lwz 27,660(1)
	lwz 28,664(1)
.LVL429:
	lwz 29,668(1)
.LVL430:
	lwz 30,672(1)
.LVL431:
	lwz 31,676(1)
	lfd 14,680(1)
	lfd 15,688(1)
	lfd 16,696(1)
	lfd 17,704(1)
	lfd 18,712(1)
	lfd 19,720(1)
	lfd 20,728(1)
.LVL432:
	lfd 21,736(1)
.LVL433:
	lfd 22,744(1)
.LVL434:
	lfd 23,752(1)
	lfd 24,760(1)
	lfd 25,768(1)
.LVL435:
	lfd 26,776(1)
	lfd 27,784(1)
.LVL436:
	lfd 28,792(1)
.LVL437:
	lfd 29,800(1)
	lfd 30,808(1)
.LVL438:
	lfd 31,816(1)
.LVL439:
	addi 1,1,824
.LCFI40:
	.cfi_def_cfa_offset 0
	.cfi_restore 63
	.cfi_restore 62
	.cfi_restore 61
	.cfi_restore 60
	.cfi_restore 59
	.cfi_restore 58
	.cfi_restore 57
	.cfi_restore 56
	.cfi_restore 55
	.cfi_restore 54
	.cfi_restore 53
	.cfi_restore 52
	.cfi_restore 51
	.cfi_restore 50
	.cfi_restore 49
	.cfi_restore 48
	.cfi_restore 47
	.cfi_restore 46
	.cfi_restore 31
	.cfi_restore 30
	.cfi_restore 29
	.cfi_restore 28
	.cfi_restore 27
	.cfi_restore 26
	.cfi_restore 25
	.cfi_restore 24
	.cfi_restore 23
	.cfi_restore 22
	.cfi_restore 21
	.cfi_restore 20
	.cfi_restore 19
	blr
	.cfi_endproc
.LFE1434:
	.size	_ZN13GuiFrameImage14CreateDrawListEv, .-_ZN13GuiFrameImage14CreateDrawListEv
	.align 2
	.globl _ZN13GuiFrameImage4DrawEv
	.type	_ZN13GuiFrameImage4DrawEv, @function
_ZN13GuiFrameImage4DrawEv:
.LFB1435:
	.loc 3 287 0
	.cfi_startproc
.LVL440:
	mflr 0
	stwu 1,-16(1)
.LCFI41:
	.cfi_def_cfa_offset 16
	.cfi_register 65, 0
	stw 31,12(1)
	mr 31,3
	.cfi_offset 31, -4
	stw 0,20(1)
	stw 30,8(1)
	.loc 3 288 0
	lwz 9,0(3)
	lwz 0,52(9)
	.cfi_offset 30, -8
	.cfi_offset 65, 4
	mtctr 0
	bctrl
.LVL441:
	cmpwi 7,3,0
	bne- 7,.L160
	.loc 3 302 0
	lwz 0,20(1)
	lwz 30,8(1)
	mtlr 0
	lwz 31,12(1)
.LVL442:
	addi 1,1,16
	.cfi_remember_state
.LCFI42:
	.cfi_def_cfa_offset 0
	.cfi_restore 31
	.cfi_restore 30
	blr
.LVL443:
.L160:
.LCFI43:
	.cfi_restore_state
.LBB1840:
.LBB1841:
	.loc 3 291 0
	lwz 9,0(31)
	mr 3,31
	lwz 30,204(31)
	lwz 0,36(9)
	mtctr 0
	bctrl
	cmpw 7,30,3
	beq- 7,.L161
.L158:
	.loc 3 298 0
	mr 3,31
	bl _ZN13GuiFrameImage14CreateDrawListEv
.L159:
	.loc 3 301 0
	lwz 3,156(31)
	lwz 4,160(31)
	bl GX_CallDispList
.LBE1841:
.LBE1840:
	.loc 3 302 0
	lwz 0,20(1)
	lwz 30,8(1)
	mtlr 0
	lwz 31,12(1)
.LVL444:
	addi 1,1,16
	.cfi_remember_state
	.cfi_restore 30
	.cfi_restore 31
.LCFI44:
	.cfi_def_cfa_offset 0
	blr
.LVL445:
.L161:
.LCFI45:
	.cfi_restore_state
.LBB1843:
.LBB1842:
	.loc 3 292 0
	lwz 9,0(31)
	mr 3,31
	.loc 3 291 0
	lwz 30,208(31)
	.loc 3 292 0
	lwz 0,40(9)
	mtctr 0
	bctrl
	.loc 3 291 0
	cmpw 7,30,3
	bne+ 7,.L158
	.loc 3 293 0
	lwz 9,0(31)
	mr 3,31
	.loc 3 291 0
	lwz 30,192(31)
	.loc 3 293 0
	lwz 0,16(9)
	mtctr 0
	bctrl
	.loc 3 291 0
	cmpw 7,30,3
	bne+ 7,.L158
	.loc 3 294 0
	lwz 9,0(31)
	mr 3,31
	.loc 3 291 0
	lwz 30,196(31)
	.loc 3 294 0
	lwz 0,20(9)
	mtctr 0
	bctrl
	.loc 3 291 0
	cmpw 7,30,3
	bne+ 7,.L158
	.loc 3 295 0
	lwz 9,0(31)
	mr 3,31
	.loc 3 291 0
	lwz 30,200(31)
	.loc 3 295 0
	lwz 0,24(9)
	mtctr 0
	bctrl
	.loc 3 291 0
	cmpw 7,30,3
	bne+ 7,.L158
	.loc 3 296 0
	lwz 9,0(31)
	mr 3,31
	.loc 3 291 0
	lwz 30,212(31)
	.loc 3 296 0
	lwz 0,100(9)
	mtctr 0
	bctrl
	.loc 3 291 0
	cmpw 7,30,3
	bne+ 7,.L158
	b .L159
.LBE1842:
.LBE1843:
	.cfi_endproc
.LFE1435:
	.size	_ZN13GuiFrameImage4DrawEv, .-_ZN13GuiFrameImage4DrawEv
	.section	.text._ZNSt8_Rb_treeIPN7sigslot12_signal_baseINS0_15single_threadedEEES4_St9_IdentityIS4_ESt4lessIS4_ESaIS4_EE8_M_eraseEPSt13_Rb_tree_nodeIS4_E,"axG",@progbits,_ZNSt8_Rb_treeIPN7sigslot12_signal_baseINS0_15single_threadedEEES4_St9_IdentityIS4_ESt4lessIS4_ESaIS4_EE8_M_eraseEPSt13_Rb_tree_nodeIS4_E,comdat
	.align 2
	.weak	_ZNSt8_Rb_treeIPN7sigslot12_signal_baseINS0_15single_threadedEEES4_St9_IdentityIS4_ESt4lessIS4_ESaIS4_EE8_M_eraseEPSt13_Rb_tree_nodeIS4_E
	.type	_ZNSt8_Rb_treeIPN7sigslot12_signal_baseINS0_15single_threadedEEES4_St9_IdentityIS4_ESt4lessIS4_ESaIS4_EE8_M_eraseEPSt13_Rb_tree_nodeIS4_E, @function
_ZNSt8_Rb_treeIPN7sigslot12_signal_baseINS0_15single_threadedEEES4_St9_IdentityIS4_ESt4lessIS4_ESaIS4_EE8_M_eraseEPSt13_Rb_tree_nodeIS4_E:
.LFB1636:
	.file 8 "d:\\devkitpro\\devkitppc\\bin\\../lib/gcc/powerpc-eabi/4.6.3/../../../../powerpc-eabi/include/c++/4.6.3/bits/stl_tree.h"
	.loc 8 1068 0
	.cfi_startproc
.LVL446:
	stwu 1,-56(1)
.LCFI46:
	.cfi_def_cfa_offset 56
	mflr 0
	stw 22,16(1)
.LBB1960:
	.loc 8 1072 0
	mr. 22,4
	.cfi_offset 22, -40
	.cfi_register 65, 0
.LBE1960:
	.loc 8 1068 0
	stw 30,48(1)
	mr 30,3
	.cfi_offset 30, -8
	stw 0,60(1)
	stw 21,12(1)
	stw 23,20(1)
	stw 24,24(1)
	stw 25,28(1)
	stw 26,32(1)
	stw 27,36(1)
	stw 28,40(1)
	stw 29,44(1)
	stw 31,52(1)
.LBB2045:
	.loc 8 1072 0
	beq- 0,.L162
	.cfi_offset 31, -4
	.cfi_offset 29, -12
	.cfi_offset 28, -16
	.cfi_offset 27, -20
	.cfi_offset 26, -24
	.cfi_offset 25, -28
	.cfi_offset 24, -32
	.cfi_offset 23, -36
	.cfi_offset 21, -44
	.cfi_offset 65, 4
.LVL447:
.L208:
	.loc 3 302 0
	lwz 27,12(22)
.LVL448:
.LBB1961:
.LBB1962:
.LBB1963:
	.loc 8 1072 0
	cmpwi 7,27,0
	beq- 7,.L164
.LVL449:
.L209:
.LBE1963:
	.loc 3 302 0
	lwz 26,12(27)
.LVL450:
.LBB2039:
.LBB1964:
.LBB1965:
.LBB1966:
	.loc 8 1072 0
	cmpwi 7,26,0
	beq- 7,.L165
.LVL451:
.L210:
.LBE1966:
	.loc 3 302 0
	lwz 25,12(26)
.LVL452:
.LBB2032:
.LBB1967:
.LBB1968:
.LBB1969:
	.loc 8 1072 0
	cmpwi 7,25,0
	beq- 7,.L166
.LVL453:
.L211:
.LBE1969:
	.loc 3 302 0
	lwz 24,12(25)
.LVL454:
.LBB2025:
.LBB1970:
.LBB1971:
.LBB1972:
	.loc 8 1072 0
	cmpwi 7,24,0
	beq- 7,.L167
.LVL455:
.L212:
.LBE1972:
	.loc 3 302 0
	lwz 23,12(24)
.LVL456:
.LBB2018:
.LBB1973:
.LBB1974:
.LBB1975:
	.loc 8 1072 0
	cmpwi 7,23,0
	beq- 7,.L168
.LVL457:
.L213:
.LBE1975:
	.loc 3 302 0
	lwz 28,12(23)
.LVL458:
.LBB2011:
.LBB1976:
.LBB1977:
.LBB1978:
	.loc 8 1072 0
	cmpwi 7,28,0
	beq- 7,.L169
.LVL459:
.L214:
.LBE1978:
	.loc 3 302 0
	lwz 29,12(28)
.LVL460:
.LBB2004:
.LBB1979:
.LBB1980:
.LBB1981:
	.loc 8 1072 0
	cmpwi 7,29,0
	beq- 7,.L170
.LVL461:
.L215:
.LBE1981:
	.loc 3 302 0
	lwz 31,12(29)
.LVL462:
.LBB1997:
.LBB1982:
.LBB1983:
.LBB1984:
	.loc 8 1072 0
	cmpwi 7,31,0
	beq- 7,.L171
.LVL463:
.L216:
.LBB1985:
	.loc 8 1074 0
	lwz 4,12(31)
	mr 3,30
	bl _ZNSt8_Rb_treeIPN7sigslot12_signal_baseINS0_15single_threadedEEES4_St9_IdentityIS4_ESt4lessIS4_ESaIS4_EE8_M_eraseEPSt13_Rb_tree_nodeIS4_E
.LBE1985:
.LBE1984:
	.loc 3 302 0
	lwz 21,8(31)
.LVL464:
.LBB1991:
.LBB1990:
.LBB1986:
.LBB1987:
.LBB1988:
.LBB1989:
	.loc 6 98 0
	mr 3,31
	bl _ZdlPv
.LVL465:
.LBE1989:
.LBE1988:
.LBE1987:
.LBE1986:
.LBE1990:
	.loc 8 1072 0
	cmpwi 7,21,0
	.loc 8 1077 0
	mr 31,21
.LVL466:
	.loc 8 1072 0
	bne+ 7,.L216
.LVL467:
.L171:
.LBE1991:
.LBE1983:
.LBE1982:
.LBE1997:
	.loc 3 302 0
	lwz 31,8(29)
.LVL468:
.LBB1998:
.LBB1996:
.LBB1992:
.LBB1993:
.LBB1994:
.LBB1995:
	.loc 6 98 0
	mr 3,29
	bl _ZdlPv
.LVL469:
.LBE1995:
.LBE1994:
.LBE1993:
.LBE1992:
.LBE1996:
	.loc 8 1072 0
	cmpwi 7,31,0
	beq- 7,.L170
	.loc 8 1077 0
	mr 29,31
.LVL470:
	b .L215
.LVL471:
.L170:
.LBE1998:
.LBE1980:
.LBE1979:
.LBE2004:
	.loc 3 302 0
	lwz 31,8(28)
.LVL472:
.LBB2005:
.LBB2003:
.LBB1999:
.LBB2000:
.LBB2001:
.LBB2002:
	.loc 6 98 0
	mr 3,28
	bl _ZdlPv
.LVL473:
.LBE2002:
.LBE2001:
.LBE2000:
.LBE1999:
.LBE2003:
	.loc 8 1072 0
	cmpwi 7,31,0
	beq- 7,.L169
	.loc 8 1077 0
	mr 28,31
.LVL474:
	b .L214
.LVL475:
.L169:
.LBE2005:
.LBE1977:
.LBE1976:
.LBE2011:
	.loc 3 302 0
	lwz 31,8(23)
.LVL476:
.LBB2012:
.LBB2010:
.LBB2006:
.LBB2007:
.LBB2008:
.LBB2009:
	.loc 6 98 0
	mr 3,23
	bl _ZdlPv
.LVL477:
.LBE2009:
.LBE2008:
.LBE2007:
.LBE2006:
.LBE2010:
	.loc 8 1072 0
	cmpwi 7,31,0
	beq- 7,.L168
	.loc 8 1077 0
	mr 23,31
.LVL478:
	b .L213
.LVL479:
.L168:
.LBE2012:
.LBE1974:
.LBE1973:
.LBE2018:
	.loc 3 302 0
	lwz 31,8(24)
.LVL480:
.LBB2019:
.LBB2017:
.LBB2013:
.LBB2014:
.LBB2015:
.LBB2016:
	.loc 6 98 0
	mr 3,24
	bl _ZdlPv
.LVL481:
.LBE2016:
.LBE2015:
.LBE2014:
.LBE2013:
.LBE2017:
	.loc 8 1072 0
	cmpwi 7,31,0
	beq- 7,.L167
	.loc 8 1077 0
	mr 24,31
.LVL482:
	b .L212
.LVL483:
.L167:
.LBE2019:
.LBE1971:
.LBE1970:
.LBE2025:
	.loc 3 302 0
	lwz 31,8(25)
.LVL484:
.LBB2026:
.LBB2024:
.LBB2020:
.LBB2021:
.LBB2022:
.LBB2023:
	.loc 6 98 0
	mr 3,25
	bl _ZdlPv
.LVL485:
.LBE2023:
.LBE2022:
.LBE2021:
.LBE2020:
.LBE2024:
	.loc 8 1072 0
	cmpwi 7,31,0
	beq- 7,.L166
	.loc 8 1077 0
	mr 25,31
.LVL486:
	b .L211
.LVL487:
.L166:
.LBE2026:
.LBE1968:
.LBE1967:
.LBE2032:
	.loc 3 302 0
	lwz 31,8(26)
.LVL488:
.LBB2033:
.LBB2031:
.LBB2027:
.LBB2028:
.LBB2029:
.LBB2030:
	.loc 6 98 0
	mr 3,26
	bl _ZdlPv
.LVL489:
.LBE2030:
.LBE2029:
.LBE2028:
.LBE2027:
.LBE2031:
	.loc 8 1072 0
	cmpwi 7,31,0
	beq- 7,.L165
	.loc 8 1077 0
	mr 26,31
.LVL490:
	b .L210
.LVL491:
.L165:
.LBE2033:
.LBE1965:
.LBE1964:
.LBE2039:
	.loc 3 302 0
	lwz 31,8(27)
.LVL492:
.LBB2040:
.LBB2038:
.LBB2034:
.LBB2035:
.LBB2036:
.LBB2037:
	.loc 6 98 0
	mr 3,27
	bl _ZdlPv
.LVL493:
.LBE2037:
.LBE2036:
.LBE2035:
.LBE2034:
.LBE2038:
	.loc 8 1072 0
	cmpwi 7,31,0
	beq- 7,.L164
	.loc 8 1077 0
	mr 27,31
.LVL494:
	b .L209
.LVL495:
.L164:
	.loc 3 302 0
	lwz 31,8(22)
.LVL496:
.LBE2040:
.LBE1962:
.LBB2041:
.LBB2042:
.LBB2043:
.LBB2044:
	.loc 6 98 0
	mr 3,22
	bl _ZdlPv
.LVL497:
.LBE2044:
.LBE2043:
.LBE2042:
.LBE2041:
.LBE1961:
	.loc 8 1072 0
	cmpwi 7,31,0
	beq- 7,.L162
	.loc 8 1077 0
	mr 22,31
.LVL498:
	b .L208
.LVL499:
.L162:
.LBE2045:
	.loc 8 1079 0
	lwz 0,60(1)
	lwz 21,12(1)
	mtlr 0
	lwz 22,16(1)
	lwz 23,20(1)
	lwz 24,24(1)
	lwz 25,28(1)
	lwz 26,32(1)
	lwz 27,36(1)
	lwz 28,40(1)
	lwz 29,44(1)
	lwz 30,48(1)
.LVL500:
	lwz 31,52(1)
	addi 1,1,56
.LCFI47:
	.cfi_def_cfa_offset 0
	.cfi_restore 31
	.cfi_restore 30
	.cfi_restore 29
	.cfi_restore 28
	.cfi_restore 27
	.cfi_restore 26
	.cfi_restore 25
	.cfi_restore 24
	.cfi_restore 23
	.cfi_restore 22
	.cfi_restore 21
	blr
	.cfi_endproc
.LFE1636:
	.size	_ZNSt8_Rb_treeIPN7sigslot12_signal_baseINS0_15single_threadedEEES4_St9_IdentityIS4_ESt4lessIS4_ESaIS4_EE8_M_eraseEPSt13_Rb_tree_nodeIS4_E, .-_ZNSt8_Rb_treeIPN7sigslot12_signal_baseINS0_15single_threadedEEES4_St9_IdentityIS4_ESt4lessIS4_ESaIS4_EE8_M_eraseEPSt13_Rb_tree_nodeIS4_E
	.section	.text._ZNSt8_Rb_treeIPN7sigslot12_signal_baseINS0_15single_threadedEEES4_St9_IdentityIS4_ESt4lessIS4_ESaIS4_EE5eraseERKS4_,"axG",@progbits,_ZNSt8_Rb_treeIPN7sigslot12_signal_baseINS0_15single_threadedEEES4_St9_IdentityIS4_ESt4lessIS4_ESaIS4_EE5eraseERKS4_,comdat
	.align 2
	.weak	_ZNSt8_Rb_treeIPN7sigslot12_signal_baseINS0_15single_threadedEEES4_St9_IdentityIS4_ESt4lessIS4_ESaIS4_EE5eraseERKS4_
	.type	_ZNSt8_Rb_treeIPN7sigslot12_signal_baseINS0_15single_threadedEEES4_St9_IdentityIS4_ESt4lessIS4_ESaIS4_EE5eraseERKS4_, @function
_ZNSt8_Rb_treeIPN7sigslot12_signal_baseINS0_15single_threadedEEES4_St9_IdentityIS4_ESt4lessIS4_ESaIS4_EE5eraseERKS4_:
.LFB1580:
	.loc 8 1510 0
	.cfi_startproc
.LVL501:
	mflr 0
	stwu 1,-32(1)
.LCFI48:
	.cfi_def_cfa_offset 32
	.cfi_register 65, 0
	stw 28,16(1)
.LBB2046:
.LBB2047:
	.loc 8 1155 0
	addi 28,3,4
	.cfi_offset 28, -16
.LBE2047:
.LBE2046:
	.loc 8 1510 0
	stw 0,36(1)
	stw 26,8(1)
.LBB2103:
.LBB2068:
.LBB2048:
	.loc 8 1155 0
	mr 26,28
	.cfi_offset 26, -24
	.cfi_offset 65, 4
.LBE2048:
	.loc 3 302 0
	lwz 0,8(3)
.LBE2068:
.LBE2103:
	.loc 8 1510 0
	stw 29,20(1)
.LBB2104:
.LBB2069:
.LBB2061:
	.loc 8 1155 0
	mr 29,28
	.cfi_offset 29, -12
	.loc 8 1156 0
	cmpwi 7,0,0
.LBE2061:
.LBE2069:
.LBE2104:
	.loc 8 1510 0
	stw 30,24(1)
	stw 27,12(1)
	mr 30,3
	.cfi_offset 27, -20
	.cfi_offset 30, -8
.LVL502:
	stw 31,28(1)
.LBB2105:
.LBB2070:
.LBB2062:
	.loc 8 1156 0
	beq- 7,.L218
	.cfi_offset 31, -4
.LVL503:
	lwz 11,0(4)
	mr 26,0
	b .L229
.LVL504:
.L248:
.LBE2062:
	.loc 3 302 0
	lwz 26,12(26)
.LVL505:
.LBB2063:
	.loc 8 1156 0
	cmpwi 7,26,0
	beq- 7,.L247
.L229:
.LVL506:
.LBE2063:
	.loc 3 302 0
	lwz 9,16(26)
.LBB2064:
.LBB2049:
	.loc 8 1158 0
	cmplw 7,9,11
	blt- 7,.L248
.LVL507:
.LBB2050:
	.loc 8 1160 0
	ble- 7,.L221
.LVL508:
.LBE2050:
.LBE2049:
.LBE2064:
	.loc 3 302 0
	mr 29,26
	.loc 8 1161 0
	lwz 26,8(26)
.LVL509:
.LBB2065:
	.loc 8 1156 0
	cmpwi 7,26,0
	bne+ 7,.L229
.LVL510:
.L247:
	mr 26,29
.LVL511:
.L218:
.LBE2065:
.LBE2070:
.LBB2071:
.LBB2072:
	.loc 3 302 0
	lwz 9,12(30)
.LBE2072:
.LBE2071:
.LBB2099:
.LBB2066:
	lwz 27,20(30)
.LVL512:
.LBE2066:
.LBE2099:
.LBB2100:
.LBB2097:
.LBB2073:
	.loc 8 1500 0
	cmpw 7,9,26
	beq- 7,.L230
.L234:
.LVL513:
	.loc 8 1503 0
	cmpw 7,26,29
	beq- 7,.L249
.LVL514:
.L245:
.LBB2074:
.LBB2075:
	.loc 8 277 0
	mr 3,26
	bl _ZSt18_Rb_tree_incrementPKSt18_Rb_tree_node_base
.LBE2075:
.LBE2074:
.LBB2077:
.LBB2078:
.LBB2079:
	.loc 8 1489 0
	mr 4,28
.LBE2079:
.LBE2078:
.LBE2077:
.LBB2090:
.LBB2076:
	.loc 8 277 0
	mr 31,3
.LVL515:
.LBE2076:
.LBE2090:
.LBB2091:
.LBB2087:
.LBB2084:
	.loc 8 1489 0
	mr 3,26
.LVL516:
	bl _ZSt28_Rb_tree_rebalance_for_erasePSt18_Rb_tree_node_baseRS_
.LBE2084:
.LBE2087:
.LBE2091:
	.loc 8 277 0
	mr 26,31
.LVL517:
.LBB2092:
.LBB2088:
.LBB2085:
.LBB2080:
.LBB2081:
.LBB2082:
.LBB2083:
	.loc 6 98 0
	bl _ZdlPv
.LBE2083:
.LBE2082:
.LBE2081:
.LBE2080:
.LBE2085:
.LBE2088:
.LBE2092:
	.loc 8 1503 0
	cmpw 7,31,29
.LBB2093:
.LBB2089:
.LBB2086:
	.loc 8 1491 0
	lwz 9,20(30)
	addi 0,9,-1
	stw 0,20(30)
.LBE2086:
.LBE2089:
.LBE2093:
	.loc 8 1503 0
	bne+ 7,.L245
	subf 27,0,27
.LVL518:
.L232:
.LBE2073:
.LBE2097:
.LBE2100:
.LBE2105:
	.loc 8 1517 0
	lwz 0,36(1)
	mr 3,27
	lwz 26,8(1)
	mtlr 0
	lwz 27,12(1)
	lwz 28,16(1)
	lwz 29,20(1)
.LVL519:
	lwz 30,24(1)
.LVL520:
	lwz 31,28(1)
	addi 1,1,32
	.cfi_remember_state
.LCFI49:
	.cfi_def_cfa_offset 0
	.cfi_restore 31
	.cfi_restore 30
	.cfi_restore 29
	.cfi_restore 28
	.cfi_restore 27
	.cfi_restore 26
	blr
.LVL521:
.L221:
.LCFI50:
	.cfi_restore_state
.LBB2106:
.LBB2101:
	.loc 3 302 0
	lwz 10,8(26)
.LVL522:
	lwz 9,12(26)
.LVL523:
.L246:
.LBB2067:
.LBB2060:
.LBB2059:
.LBB2051:
.LBB2052:
.LBB2053:
	.loc 8 1089 0
	cmpwi 7,10,0
	beq- 7,.L222
.L250:
.LVL524:
	.loc 8 1090 0
	lwz 8,16(10)
	cmplw 7,8,11
	blt- 7,.L223
.LVL525:
.LBE2053:
	.loc 3 302 0
	mr 26,10
	.loc 8 1091 0
	lwz 10,8(10)
.LVL526:
.LBB2054:
	.loc 8 1089 0
	cmpwi 7,10,0
	bne+ 7,.L250
.LVL527:
.L222:
.LBE2054:
.LBE2052:
.LBB2055:
.LBB2056:
	.loc 8 1121 0
	cmpwi 7,9,0
	beq- 7,.L218
.LVL528:
	.loc 8 1122 0
	lwz 10,16(9)
	cmplw 7,10,11
	ble- 7,.L226
.LVL529:
.L251:
.LBE2056:
	.loc 3 302 0
	mr 29,9
	.loc 8 1123 0
	lwz 9,8(9)
.LVL530:
.LBB2057:
	.loc 8 1121 0
	cmpwi 7,9,0
	beq- 7,.L218
.LVL531:
	.loc 8 1122 0
	lwz 10,16(9)
	cmplw 7,10,11
	bgt- 7,.L251
.LVL532:
.L226:
.LBE2057:
	.loc 3 302 0
	lwz 9,12(9)
.LVL533:
	b .L222
.LVL534:
.L223:
.LBE2055:
.LBB2058:
	lwz 10,12(10)
.LVL535:
	b .L246
.LVL536:
.L230:
.LBE2058:
.LBE2051:
.LBE2059:
.LBE2060:
.LBE2067:
.LBE2101:
.LBB2102:
.LBB2098:
.LBB2096:
	.loc 8 1500 0
	cmpw 7,28,29
	bne+ 7,.L234
.LVL537:
.LBB2094:
.LBB2095:
	.loc 8 809 0
	mr 4,0
.LVL538:
	mr 3,30
.LVL539:
	bl _ZNSt8_Rb_treeIPN7sigslot12_signal_baseINS0_15single_threadedEEES4_St9_IdentityIS4_ESt4lessIS4_ESaIS4_EE8_M_eraseEPSt13_Rb_tree_nodeIS4_E
.LVL540:
	.loc 8 811 0
	li 0,0
	.loc 8 810 0
	stw 28,12(30)
.LVL541:
	.loc 8 811 0
	stw 0,8(30)
.LVL542:
	.loc 8 812 0
	stw 28,16(30)
	.loc 8 813 0
	stw 0,20(30)
	b .L232
.LVL543:
.L249:
.LBE2095:
.LBE2094:
	.loc 8 1503 0
	li 27,0
	b .L232
.LBE2096:
.LBE2098:
.LBE2102:
.LBE2106:
	.cfi_endproc
.LFE1580:
	.size	_ZNSt8_Rb_treeIPN7sigslot12_signal_baseINS0_15single_threadedEEES4_St9_IdentityIS4_ESt4lessIS4_ESaIS4_EE5eraseERKS4_, .-_ZNSt8_Rb_treeIPN7sigslot12_signal_baseINS0_15single_threadedEEES4_St9_IdentityIS4_ESt4lessIS4_ESaIS4_EE5eraseERKS4_
	.section	.text._ZN7sigslot7signal2IP10GuiElementbNS_15single_threadedEED0Ev,"axG",@progbits,_ZN7sigslot7signal2IP10GuiElementbNS_15single_threadedEED5Ev,comdat
	.align 2
	.weak	_ZN7sigslot7signal2IP10GuiElementbNS_15single_threadedEED0Ev
	.type	_ZN7sigslot7signal2IP10GuiElementbNS_15single_threadedEED0Ev, @function
_ZN7sigslot7signal2IP10GuiElementbNS_15single_threadedEED0Ev:
.LFB1443:
	.loc 1 2235 0
	.cfi_startproc
	.cfi_personality 0,__gxx_personality_v0
	.cfi_lsda 0,.LLSDA1443
.LVL544:
	mflr 0
	stwu 1,-40(1)
.LCFI51:
	.cfi_def_cfa_offset 40
	.cfi_register 65, 0
.LBB2205:
.LBB2206:
.LBB2207:
.LBB2208:
.LBB2209:
.LBB2210:
	.loc 1 826 0
	lis 9,_ZTVN7sigslot13_signal_base2IP10GuiElementbNS_15single_threadedEEE+8@ha
.LBE2210:
.LBE2209:
.LBE2208:
.LBE2207:
.LBE2206:
.LBE2205:
	.loc 1 2235 0
	stw 28,24(1)
	mr 28,3
	.cfi_offset 28, -16
.LVL545:
	stw 0,44(1)
.LBB2307:
.LBB2303:
.LBB2299:
.LBB2295:
.LBB2291:
.LBB2287:
	.loc 1 826 0
	la 0,_ZTVN7sigslot13_signal_base2IP10GuiElementbNS_15single_threadedEEE+8@l(9)
	.cfi_offset 65, 4
.LBE2287:
.LBE2291:
.LBE2295:
.LBE2299:
.LBE2303:
.LBE2307:
	.loc 1 2235 0
	stw 29,28(1)
	addi 29,3,4
	.cfi_offset 29, -12
	stw 30,32(1)
	stw 31,36(1)
.LBB2308:
.LBB2304:
.LBB2300:
.LBB2296:
.LBB2292:
.LBB2288:
	.loc 1 826 0
	stw 0,0(3)
.LVL546:
.LEHB20:
.LBB2211:
.LBB2212:
.LBB2213:
.LBB2214:
	.loc 1 338 0
	.cfi_offset 31, -4
	.cfi_offset 30, -8
	bl _ZN7sigslot15single_threaded4lockEv
.LEHE20:
.LVL547:
.LBE2214:
.LBE2213:
.LBE2212:
	.loc 3 302 0
	mr 29,28
.LVL548:
	lwzu 31,4(29)
.LVL549:
.LBB2245:
	.loc 1 834 0
	cmpw 7,31,29
	beq- 7,.L253
.LVL550:
.L292:
	.loc 1 836 0
	lwz 3,8(31)
	lwz 9,0(3)
	lwz 0,8(9)
	mtctr 0
.LEHB21:
	bctrl
.LBB2215:
.LBB2216:
.LBB2217:
.LBB2218:
	.loc 1 338 0
	lwz 9,0(3)
.LBE2218:
.LBE2217:
.LBE2216:
.LBE2215:
	.loc 1 836 0
	mr 30,3
.LVL551:
	stw 28,8(1)
.LVL552:
.LBB2227:
.LBB2226:
.LBB2220:
.LBB2219:
	.loc 1 338 0
	lwz 0,8(9)
	mtctr 0
	bctrl
.LVL553:
.LBE2219:
.LBE2220:
.LBB2221:
.LBB2222:
	.file 9 "d:\\devkitpro\\devkitppc\\bin\\../lib/gcc/powerpc-eabi/4.6.3/../../../../powerpc-eabi/include/c++/4.6.3/bits/stl_set.h"
	.loc 9 528 0
	addi 3,30,4
	addi 4,1,8
	bl _ZNSt8_Rb_treeIPN7sigslot12_signal_baseINS0_15single_threadedEEES4_St9_IdentityIS4_ESt4lessIS4_ESaIS4_EE5eraseERKS4_
.LVL554:
.LBE2222:
.LBE2221:
.LBB2223:
.LBB2224:
.LBB2225:
	.loc 1 343 0
	lwz 9,0(30)
	mr 3,30
	lwz 0,12(9)
	mtctr 0
	bctrl
.LVL555:
.LBE2225:
.LBE2224:
.LBE2223:
.LBE2226:
.LBE2227:
	.loc 1 837 0
	lwz 3,8(31)
	cmpwi 7,3,0
	beq- 7,.L255
	lwz 9,0(3)
	lwz 0,4(9)
	mtctr 0
	bctrl
.LEHE21:
.L255:
.LVL556:
.LBB2228:
.LBB2229:
	.loc 4 234 0
	lwz 31,0(31)
.LVL557:
.LBE2229:
.LBE2228:
	.loc 1 834 0
	cmpw 7,29,31
	bne+ 7,.L292
.LBE2245:
	.loc 3 302 0
	lwz 31,4(28)
.LVL558:
.LBB2246:
.LBB2230:
.LBB2231:
	.loc 4 1162 0
	cmpw 7,29,31
	bne+ 7,.L294
	b .L253
.LVL559:
.L287:
	.loc 4 1163 0
	mr 31,30
.LVL560:
.L294:
.LBB2232:
.LBB2233:
	.file 10 "d:\\devkitpro\\devkitppc\\bin\\../lib/gcc/powerpc-eabi/4.6.3/../../../../powerpc-eabi/include/c++/4.6.3/bits/list.tcc"
	.loc 10 112 0
	lwz 30,0(31)
.LVL561:
.LBB2234:
.LBB2235:
	.loc 4 1532 0
	mr 3,31
	bl _ZNSt8__detail15_List_node_base9_M_unhookEv
.LVL562:
.LBB2236:
.LBB2237:
.LBB2238:
	.loc 6 98 0
	mr 3,31
	bl _ZdlPv
.LVL563:
.LBE2238:
.LBE2237:
.LBE2236:
.LBE2235:
.LBE2234:
.LBE2233:
.LBE2232:
	.loc 4 1162 0
	cmpw 7,29,30
	bne+ 7,.L287
.LVL564:
.L253:
.LBE2231:
.LBE2230:
.LBB2239:
.LBB2240:
.LBB2241:
	.loc 1 343 0
	lwz 9,0(28)
	mr 3,28
	lwz 0,12(9)
	mtctr 0
.LEHB22:
	bctrl
.LEHE22:
.LBE2241:
.LBE2240:
.LBE2239:
.LBE2246:
.LBE2211:
.LBB2248:
.LBB2249:
.LBB2250:
.LBB2251:
.LBB2252:
.LBB2253:
	.loc 10 70 0
	lwz 3,4(28)
.LVL565:
	.loc 10 71 0
	cmpw 7,3,29
	bne+ 7,.L296
	b .L271
.LVL566:
.L288:
	.loc 10 74 0
	mr 3,31
.LVL567:
.L296:
.LBB2254:
	lwz 31,0(3)
.LVL568:
.LBB2255:
.LBB2256:
.LBB2257:
	.loc 6 98 0
	bl _ZdlPv
.LVL569:
.LBE2257:
.LBE2256:
.LBE2255:
.LBE2254:
	.loc 10 71 0
	cmpw 7,31,29
	bne+ 7,.L288
.LVL570:
.L271:
.LBE2253:
.LBE2252:
.LBE2251:
.LBE2250:
.LBE2249:
.LBE2248:
.LBB2258:
.LBB2259:
.LBB2260:
.LBB2261:
.LBB2262:
.LBB2263:
	.loc 1 105 0
	lis 9,_ZTVN7sigslot15single_threadedE+8@ha
.LBE2263:
.LBE2262:
.LBE2261:
.LBE2260:
.LBE2259:
.LBE2258:
.LBE2288:
.LBE2292:
.LBE2296:
.LBE2300:
.LBE2304:
.LBE2308:
	.loc 1 2238 0
	mr 3,28
.LBB2309:
.LBB2305:
.LBB2301:
.LBB2297:
.LBB2293:
.LBB2289:
.LBB2269:
.LBB2268:
.LBB2267:
.LBB2266:
.LBB2265:
.LBB2264:
	.loc 1 105 0
	la 0,_ZTVN7sigslot15single_threadedE+8@l(9)
	stw 0,0(28)
.LBE2264:
.LBE2265:
.LBE2266:
.LBE2267:
.LBE2268:
.LBE2269:
.LBE2289:
.LBE2293:
.LBE2297:
.LBE2301:
.LBE2305:
.LBE2309:
	.loc 1 2238 0
	bl _ZdlPv
	lwz 0,44(1)
	lwz 28,24(1)
.LVL571:
	mtlr 0
	lwz 29,28(1)
.LVL572:
	lwz 30,32(1)
	lwz 31,36(1)
	addi 1,1,40
	.cfi_remember_state
.LCFI52:
	.cfi_def_cfa_offset 0
	.cfi_restore 31
	.cfi_restore 30
	.cfi_restore 29
	.cfi_restore 28
	blr
.LVL573:
.L290:
.LCFI53:
	.cfi_restore_state
	mr 31,3
.L263:
.LBB2310:
.LBB2306:
.LBB2302:
.LBB2298:
.LBB2294:
.LBB2290:
.LBB2270:
.LBB2271:
.LBB2272:
.LBB2273:
.LBB2274:
.LBB2275:
	.loc 10 70 0
	lwz 3,4(28)
.LVL574:
	.loc 10 71 0
	cmpw 7,3,29
	beq- 7,.L280
.LVL575:
.L297:
.LBB2276:
	.loc 10 74 0
	lwz 30,0(3)
.LVL576:
.LBB2277:
.LBB2278:
.LBB2279:
	.loc 6 98 0
	bl _ZdlPv
.LVL577:
.LBE2279:
.LBE2278:
.LBE2277:
.LBE2276:
	.loc 10 71 0
	cmpw 7,30,29
	beq- 7,.L280
	.loc 10 74 0
	mr 3,30
	b .L297
.LVL578:
.L291:
.LBE2275:
.LBE2274:
.LBE2273:
.LBE2272:
.LBE2271:
.LBE2270:
.LBB2280:
.LBB2247:
.LBB2242:
.LBB2243:
.LBB2244:
	.loc 1 343 0
	lwz 9,0(28)
	mr 31,3
.LVL579:
	mr 3,28
	lwz 0,12(9)
	mtctr 0
	bctrl
	b .L263
.LVL580:
.L280:
.LBE2244:
.LBE2243:
.LBE2242:
.LBE2247:
.LBE2280:
.LBB2281:
.LBB2282:
.LBB2283:
.LBB2284:
.LBB2285:
.LBB2286:
	.loc 1 105 0
	lis 9,_ZTVN7sigslot15single_threadedE+8@ha
	mr 3,31
	la 0,_ZTVN7sigslot15single_threadedE+8@l(9)
	stw 0,0(28)
.LEHB23:
	bl _Unwind_Resume
.LEHE23:
.LBE2286:
.LBE2285:
.LBE2284:
.LBE2283:
.LBE2282:
.LBE2281:
.LBE2290:
.LBE2294:
.LBE2298:
.LBE2302:
.LBE2306:
.LBE2310:
	.cfi_endproc
.LFE1443:
	.section	.gcc_except_table
.LLSDA1443:
	.byte	0xff
	.byte	0xff
	.byte	0x1
	.uleb128 .LLSDACSE1443-.LLSDACSB1443
.LLSDACSB1443:
	.uleb128 .LEHB20-.LFB1443
	.uleb128 .LEHE20-.LEHB20
	.uleb128 .L290-.LFB1443
	.uleb128 0
	.uleb128 .LEHB21-.LFB1443
	.uleb128 .LEHE21-.LEHB21
	.uleb128 .L291-.LFB1443
	.uleb128 0
	.uleb128 .LEHB22-.LFB1443
	.uleb128 .LEHE22-.LEHB22
	.uleb128 .L290-.LFB1443
	.uleb128 0
	.uleb128 .LEHB23-.LFB1443
	.uleb128 .LEHE23-.LEHB23
	.uleb128 0
	.uleb128 0
.LLSDACSE1443:
	.section	.text._ZN7sigslot7signal2IP10GuiElementbNS_15single_threadedEED0Ev,"axG",@progbits,_ZN7sigslot7signal2IP10GuiElementbNS_15single_threadedEED5Ev,comdat
	.size	_ZN7sigslot7signal2IP10GuiElementbNS_15single_threadedEED0Ev, .-_ZN7sigslot7signal2IP10GuiElementbNS_15single_threadedEED0Ev
	.section	.text._ZN7sigslot7signal3IP10GuiElementiiNS_15single_threadedEED0Ev,"axG",@progbits,_ZN7sigslot7signal3IP10GuiElementiiNS_15single_threadedEED5Ev,comdat
	.align 2
	.weak	_ZN7sigslot7signal3IP10GuiElementiiNS_15single_threadedEED0Ev
	.type	_ZN7sigslot7signal3IP10GuiElementiiNS_15single_threadedEED0Ev, @function
_ZN7sigslot7signal3IP10GuiElementiiNS_15single_threadedEED0Ev:
.LFB1447:
	.loc 1 2302 0
	.cfi_startproc
	.cfi_personality 0,__gxx_personality_v0
	.cfi_lsda 0,.LLSDA1447
.LVL581:
	mflr 0
	stwu 1,-40(1)
.LCFI54:
	.cfi_def_cfa_offset 40
	.cfi_register 65, 0
.LBB2409:
.LBB2410:
.LBB2411:
.LBB2412:
.LBB2413:
.LBB2414:
	.loc 1 946 0
	lis 9,_ZTVN7sigslot13_signal_base3IP10GuiElementiiNS_15single_threadedEEE+8@ha
.LBE2414:
.LBE2413:
.LBE2412:
.LBE2411:
.LBE2410:
.LBE2409:
	.loc 1 2302 0
	stw 28,24(1)
	mr 28,3
	.cfi_offset 28, -16
.LVL582:
	stw 0,44(1)
.LBB2511:
.LBB2507:
.LBB2503:
.LBB2499:
.LBB2495:
.LBB2491:
	.loc 1 946 0
	la 0,_ZTVN7sigslot13_signal_base3IP10GuiElementiiNS_15single_threadedEEE+8@l(9)
	.cfi_offset 65, 4
.LBE2491:
.LBE2495:
.LBE2499:
.LBE2503:
.LBE2507:
.LBE2511:
	.loc 1 2302 0
	stw 29,28(1)
	addi 29,3,4
	.cfi_offset 29, -12
	stw 30,32(1)
	stw 31,36(1)
.LBB2512:
.LBB2508:
.LBB2504:
.LBB2500:
.LBB2496:
.LBB2492:
	.loc 1 946 0
	stw 0,0(3)
.LVL583:
.LEHB24:
.LBB2415:
.LBB2416:
.LBB2417:
.LBB2418:
	.loc 1 338 0
	.cfi_offset 31, -4
	.cfi_offset 30, -8
	bl _ZN7sigslot15single_threaded4lockEv
.LEHE24:
.LVL584:
.LBE2418:
.LBE2417:
.LBE2416:
	.loc 3 302 0
	mr 29,28
.LVL585:
	lwzu 31,4(29)
.LVL586:
.LBB2449:
	.loc 1 954 0
	cmpw 7,31,29
	beq- 7,.L299
.LVL587:
.L338:
	.loc 1 956 0
	lwz 3,8(31)
	lwz 9,0(3)
	lwz 0,8(9)
	mtctr 0
.LEHB25:
	bctrl
.LBB2419:
.LBB2420:
.LBB2421:
.LBB2422:
	.loc 1 338 0
	lwz 9,0(3)
.LBE2422:
.LBE2421:
.LBE2420:
.LBE2419:
	.loc 1 956 0
	mr 30,3
.LVL588:
	stw 28,8(1)
.LVL589:
.LBB2431:
.LBB2430:
.LBB2424:
.LBB2423:
	.loc 1 338 0
	lwz 0,8(9)
	mtctr 0
	bctrl
.LVL590:
.LBE2423:
.LBE2424:
.LBB2425:
.LBB2426:
	.loc 9 528 0
	addi 3,30,4
	addi 4,1,8
	bl _ZNSt8_Rb_treeIPN7sigslot12_signal_baseINS0_15single_threadedEEES4_St9_IdentityIS4_ESt4lessIS4_ESaIS4_EE5eraseERKS4_
.LVL591:
.LBE2426:
.LBE2425:
.LBB2427:
.LBB2428:
.LBB2429:
	.loc 1 343 0
	lwz 9,0(30)
	mr 3,30
	lwz 0,12(9)
	mtctr 0
	bctrl
.LVL592:
.LBE2429:
.LBE2428:
.LBE2427:
.LBE2430:
.LBE2431:
	.loc 1 957 0
	lwz 3,8(31)
	cmpwi 7,3,0
	beq- 7,.L301
	lwz 9,0(3)
	lwz 0,4(9)
	mtctr 0
	bctrl
.LEHE25:
.L301:
.LVL593:
.LBB2432:
.LBB2433:
	.loc 4 234 0
	lwz 31,0(31)
.LVL594:
.LBE2433:
.LBE2432:
	.loc 1 954 0
	cmpw 7,29,31
	bne+ 7,.L338
.LBE2449:
	.loc 3 302 0
	lwz 31,4(28)
.LVL595:
.LBB2450:
.LBB2434:
.LBB2435:
	.loc 4 1162 0
	cmpw 7,29,31
	bne+ 7,.L340
	b .L299
.LVL596:
.L333:
	.loc 4 1163 0
	mr 31,30
.LVL597:
.L340:
.LBB2436:
.LBB2437:
	.loc 10 112 0
	lwz 30,0(31)
.LVL598:
.LBB2438:
.LBB2439:
	.loc 4 1532 0
	mr 3,31
	bl _ZNSt8__detail15_List_node_base9_M_unhookEv
.LVL599:
.LBB2440:
.LBB2441:
.LBB2442:
	.loc 6 98 0
	mr 3,31
	bl _ZdlPv
.LVL600:
.LBE2442:
.LBE2441:
.LBE2440:
.LBE2439:
.LBE2438:
.LBE2437:
.LBE2436:
	.loc 4 1162 0
	cmpw 7,29,30
	bne+ 7,.L333
.LVL601:
.L299:
.LBE2435:
.LBE2434:
.LBB2443:
.LBB2444:
.LBB2445:
	.loc 1 343 0
	lwz 9,0(28)
	mr 3,28
	lwz 0,12(9)
	mtctr 0
.LEHB26:
	bctrl
.LEHE26:
.LBE2445:
.LBE2444:
.LBE2443:
.LBE2450:
.LBE2415:
.LBB2452:
.LBB2453:
.LBB2454:
.LBB2455:
.LBB2456:
.LBB2457:
	.loc 10 70 0
	lwz 3,4(28)
.LVL602:
	.loc 10 71 0
	cmpw 7,3,29
	bne+ 7,.L342
	b .L317
.LVL603:
.L334:
	.loc 10 74 0
	mr 3,31
.LVL604:
.L342:
.LBB2458:
	lwz 31,0(3)
.LVL605:
.LBB2459:
.LBB2460:
.LBB2461:
	.loc 6 98 0
	bl _ZdlPv
.LVL606:
.LBE2461:
.LBE2460:
.LBE2459:
.LBE2458:
	.loc 10 71 0
	cmpw 7,31,29
	bne+ 7,.L334
.LVL607:
.L317:
.LBE2457:
.LBE2456:
.LBE2455:
.LBE2454:
.LBE2453:
.LBE2452:
.LBB2462:
.LBB2463:
.LBB2464:
.LBB2465:
.LBB2466:
.LBB2467:
	.loc 1 105 0
	lis 9,_ZTVN7sigslot15single_threadedE+8@ha
.LBE2467:
.LBE2466:
.LBE2465:
.LBE2464:
.LBE2463:
.LBE2462:
.LBE2492:
.LBE2496:
.LBE2500:
.LBE2504:
.LBE2508:
.LBE2512:
	.loc 1 2305 0
	mr 3,28
.LBB2513:
.LBB2509:
.LBB2505:
.LBB2501:
.LBB2497:
.LBB2493:
.LBB2473:
.LBB2472:
.LBB2471:
.LBB2470:
.LBB2469:
.LBB2468:
	.loc 1 105 0
	la 0,_ZTVN7sigslot15single_threadedE+8@l(9)
	stw 0,0(28)
.LBE2468:
.LBE2469:
.LBE2470:
.LBE2471:
.LBE2472:
.LBE2473:
.LBE2493:
.LBE2497:
.LBE2501:
.LBE2505:
.LBE2509:
.LBE2513:
	.loc 1 2305 0
	bl _ZdlPv
	lwz 0,44(1)
	lwz 28,24(1)
.LVL608:
	mtlr 0
	lwz 29,28(1)
.LVL609:
	lwz 30,32(1)
	lwz 31,36(1)
	addi 1,1,40
	.cfi_remember_state
.LCFI55:
	.cfi_def_cfa_offset 0
	.cfi_restore 31
	.cfi_restore 30
	.cfi_restore 29
	.cfi_restore 28
	blr
.LVL610:
.L336:
.LCFI56:
	.cfi_restore_state
	mr 31,3
.L309:
.LBB2514:
.LBB2510:
.LBB2506:
.LBB2502:
.LBB2498:
.LBB2494:
.LBB2474:
.LBB2475:
.LBB2476:
.LBB2477:
.LBB2478:
.LBB2479:
	.loc 10 70 0
	lwz 3,4(28)
.LVL611:
	.loc 10 71 0
	cmpw 7,3,29
	beq- 7,.L326
.LVL612:
.L343:
.LBB2480:
	.loc 10 74 0
	lwz 30,0(3)
.LVL613:
.LBB2481:
.LBB2482:
.LBB2483:
	.loc 6 98 0
	bl _ZdlPv
.LVL614:
.LBE2483:
.LBE2482:
.LBE2481:
.LBE2480:
	.loc 10 71 0
	cmpw 7,30,29
	beq- 7,.L326
	.loc 10 74 0
	mr 3,30
	b .L343
.LVL615:
.L337:
.LBE2479:
.LBE2478:
.LBE2477:
.LBE2476:
.LBE2475:
.LBE2474:
.LBB2484:
.LBB2451:
.LBB2446:
.LBB2447:
.LBB2448:
	.loc 1 343 0
	lwz 9,0(28)
	mr 31,3
.LVL616:
	mr 3,28
	lwz 0,12(9)
	mtctr 0
	bctrl
	b .L309
.LVL617:
.L326:
.LBE2448:
.LBE2447:
.LBE2446:
.LBE2451:
.LBE2484:
.LBB2485:
.LBB2486:
.LBB2487:
.LBB2488:
.LBB2489:
.LBB2490:
	.loc 1 105 0
	lis 9,_ZTVN7sigslot15single_threadedE+8@ha
	mr 3,31
	la 0,_ZTVN7sigslot15single_threadedE+8@l(9)
	stw 0,0(28)
.LEHB27:
	bl _Unwind_Resume
.LEHE27:
.LBE2490:
.LBE2489:
.LBE2488:
.LBE2487:
.LBE2486:
.LBE2485:
.LBE2494:
.LBE2498:
.LBE2502:
.LBE2506:
.LBE2510:
.LBE2514:
	.cfi_endproc
.LFE1447:
	.section	.gcc_except_table
.LLSDA1447:
	.byte	0xff
	.byte	0xff
	.byte	0x1
	.uleb128 .LLSDACSE1447-.LLSDACSB1447
.LLSDACSB1447:
	.uleb128 .LEHB24-.LFB1447
	.uleb128 .LEHE24-.LEHB24
	.uleb128 .L336-.LFB1447
	.uleb128 0
	.uleb128 .LEHB25-.LFB1447
	.uleb128 .LEHE25-.LEHB25
	.uleb128 .L337-.LFB1447
	.uleb128 0
	.uleb128 .LEHB26-.LFB1447
	.uleb128 .LEHE26-.LEHB26
	.uleb128 .L336-.LFB1447
	.uleb128 0
	.uleb128 .LEHB27-.LFB1447
	.uleb128 .LEHE27-.LEHB27
	.uleb128 0
	.uleb128 0
.LLSDACSE1447:
	.section	.text._ZN7sigslot7signal3IP10GuiElementiiNS_15single_threadedEED0Ev,"axG",@progbits,_ZN7sigslot7signal3IP10GuiElementiiNS_15single_threadedEED5Ev,comdat
	.size	_ZN7sigslot7signal3IP10GuiElementiiNS_15single_threadedEED0Ev, .-_ZN7sigslot7signal3IP10GuiElementiiNS_15single_threadedEED0Ev
	.section	.text._ZN7sigslot13_signal_base3IP10GuiElementiiNS_15single_threadedEED2Ev,"axG",@progbits,_ZN7sigslot13_signal_base3IP10GuiElementiiNS_15single_threadedEED5Ev,comdat
	.align 2
	.weak	_ZN7sigslot13_signal_base3IP10GuiElementiiNS_15single_threadedEED2Ev
	.type	_ZN7sigslot13_signal_base3IP10GuiElementiiNS_15single_threadedEED2Ev, @function
_ZN7sigslot13_signal_base3IP10GuiElementiiNS_15single_threadedEED2Ev:
.LFB1475:
	.loc 1 943 0
	.cfi_startproc
	.cfi_personality 0,__gxx_personality_v0
	.cfi_lsda 0,.LLSDA1475
.LVL618:
	mflr 0
	stwu 1,-40(1)
.LCFI57:
	.cfi_def_cfa_offset 40
	.cfi_register 65, 0
.LBB2661:
	.loc 1 946 0
	lis 9,_ZTVN7sigslot13_signal_base3IP10GuiElementiiNS_15single_threadedEEE+8@ha
.LBE2661:
	.loc 1 943 0
	stw 28,24(1)
	mr 28,3
	.cfi_offset 28, -16
	stw 0,44(1)
.LBB2744:
	.loc 1 946 0
	la 0,_ZTVN7sigslot13_signal_base3IP10GuiElementiiNS_15single_threadedEEE+8@l(9)
	.cfi_offset 65, 4
.LBE2744:
	.loc 1 943 0
	stw 29,28(1)
	addi 29,3,4
	.cfi_offset 29, -12
	stw 30,32(1)
	stw 31,36(1)
.LBB2745:
	.loc 1 946 0
	stw 0,0(3)
.LVL619:
.LEHB28:
.LBB2662:
.LBB2663:
.LBB2664:
.LBB2665:
	.loc 1 338 0
	.cfi_offset 31, -4
	.cfi_offset 30, -8
	bl _ZN7sigslot15single_threaded4lockEv
.LEHE28:
.LVL620:
.LBE2665:
.LBE2664:
.LBE2663:
	.loc 3 302 0
	mr 29,28
	lwzu 31,4(29)
.LVL621:
.LBB2696:
	.loc 1 954 0
	cmpw 7,31,29
	beq- 7,.L345
.LVL622:
.L382:
	.loc 1 956 0
	lwz 3,8(31)
	lwz 9,0(3)
	lwz 0,8(9)
	mtctr 0
.LEHB29:
	bctrl
.LBB2666:
.LBB2667:
.LBB2668:
.LBB2669:
	.loc 1 338 0
	lwz 9,0(3)
.LBE2669:
.LBE2668:
.LBE2667:
.LBE2666:
	.loc 1 956 0
	mr 30,3
.LVL623:
	stw 28,8(1)
.LVL624:
.LBB2678:
.LBB2677:
.LBB2671:
.LBB2670:
	.loc 1 338 0
	lwz 0,8(9)
	mtctr 0
	bctrl
.LVL625:
.LBE2670:
.LBE2671:
.LBB2672:
.LBB2673:
	.loc 9 528 0
	addi 3,30,4
	addi 4,1,8
	bl _ZNSt8_Rb_treeIPN7sigslot12_signal_baseINS0_15single_threadedEEES4_St9_IdentityIS4_ESt4lessIS4_ESaIS4_EE5eraseERKS4_
.LVL626:
.LBE2673:
.LBE2672:
.LBB2674:
.LBB2675:
.LBB2676:
	.loc 1 343 0
	lwz 9,0(30)
	mr 3,30
	lwz 0,12(9)
	mtctr 0
	bctrl
.LVL627:
.LBE2676:
.LBE2675:
.LBE2674:
.LBE2677:
.LBE2678:
	.loc 1 957 0
	lwz 3,8(31)
	cmpwi 7,3,0
	beq- 7,.L347
	lwz 9,0(3)
	lwz 0,4(9)
	mtctr 0
	bctrl
.LEHE29:
.L347:
.LVL628:
.LBB2679:
.LBB2680:
	.loc 4 234 0
	lwz 31,0(31)
.LVL629:
.LBE2680:
.LBE2679:
	.loc 1 954 0
	cmpw 7,29,31
	bne+ 7,.L382
.LBE2696:
	.loc 3 302 0
	lwz 31,4(28)
.LVL630:
.LBB2697:
.LBB2681:
.LBB2682:
	.loc 4 1162 0
	cmpw 7,29,31
	bne+ 7,.L384
	b .L345
.LVL631:
.L377:
	.loc 4 1163 0
	mr 31,30
.LVL632:
.L384:
.LBB2683:
.LBB2684:
	.loc 10 112 0
	lwz 30,0(31)
.LVL633:
.LBB2685:
.LBB2686:
	.loc 4 1532 0
	mr 3,31
	bl _ZNSt8__detail15_List_node_base9_M_unhookEv
.LVL634:
.LBB2687:
.LBB2688:
.LBB2689:
	.loc 6 98 0
	mr 3,31
	bl _ZdlPv
.LVL635:
.LBE2689:
.LBE2688:
.LBE2687:
.LBE2686:
.LBE2685:
.LBE2684:
.LBE2683:
	.loc 4 1162 0
	cmpw 7,29,30
	bne+ 7,.L377
.LVL636:
.L345:
.LBE2682:
.LBE2681:
.LBB2690:
.LBB2691:
.LBB2692:
	.loc 1 343 0
	lwz 9,0(28)
	mr 3,28
	lwz 0,12(9)
	mtctr 0
.LEHB30:
	bctrl
.LEHE30:
.LVL637:
.LBE2692:
.LBE2691:
.LBE2690:
.LBE2697:
.LBE2662:
.LBB2699:
.LBB2700:
.LBB2701:
.LBB2702:
.LBB2703:
.LBB2704:
	.loc 10 70 0
	lwz 3,4(28)
.LVL638:
	.loc 10 71 0
	cmpw 7,3,29
	bne+ 7,.L386
	b .L363
.LVL639:
.L378:
	.loc 10 74 0
	mr 3,31
.LVL640:
.L386:
.LBB2705:
	lwz 31,0(3)
.LVL641:
.LBB2706:
.LBB2707:
.LBB2708:
	.loc 6 98 0
	bl _ZdlPv
.LVL642:
.LBE2708:
.LBE2707:
.LBE2706:
.LBE2705:
	.loc 10 71 0
	cmpw 7,31,29
	bne+ 7,.L378
.LVL643:
.L363:
.LBE2704:
.LBE2703:
.LBE2702:
.LBE2701:
.LBE2700:
.LBE2699:
.LBB2709:
.LBB2710:
.LBB2711:
.LBB2712:
.LBB2713:
.LBB2714:
	.loc 1 105 0
	lis 9,_ZTVN7sigslot15single_threadedE+8@ha
.LBE2714:
.LBE2713:
.LBE2712:
.LBE2711:
.LBE2710:
.LBE2709:
.LBE2745:
	.loc 1 946 0
	lwz 29,28(1)
.LVL644:
.LBB2746:
.LBB2725:
.LBB2723:
.LBB2721:
.LBB2719:
.LBB2717:
.LBB2715:
	.loc 1 105 0
	la 0,_ZTVN7sigslot15single_threadedE+8@l(9)
.LBE2715:
.LBE2717:
.LBE2719:
.LBE2721:
.LBE2723:
.LBE2725:
.LBE2746:
	.loc 1 946 0
	lwz 30,32(1)
.LBB2747:
.LBB2726:
.LBB2724:
.LBB2722:
.LBB2720:
.LBB2718:
.LBB2716:
	.loc 1 105 0
	stw 0,0(28)
.LBE2716:
.LBE2718:
.LBE2720:
.LBE2722:
.LBE2724:
.LBE2726:
.LBE2747:
	.loc 1 946 0
	lwz 0,44(1)
	lwz 28,24(1)
.LVL645:
	mtlr 0
	lwz 31,36(1)
	addi 1,1,40
	.cfi_remember_state
.LCFI58:
	.cfi_def_cfa_offset 0
	.cfi_restore 31
	.cfi_restore 30
	.cfi_restore 29
	.cfi_restore 28
	blr
.LVL646:
.L380:
.LCFI59:
	.cfi_restore_state
	mr 31,3
.L355:
.LVL647:
.LBB2748:
.LBB2727:
.LBB2728:
.LBB2729:
.LBB2730:
.LBB2731:
.LBB2732:
	.loc 10 70 0
	lwz 3,4(28)
.LVL648:
	.loc 10 71 0
	cmpw 7,3,29
	beq- 7,.L374
.LVL649:
.L387:
.LBB2733:
	.loc 10 74 0
	lwz 30,0(3)
.LVL650:
.LBB2734:
.LBB2735:
.LBB2736:
	.loc 6 98 0
	bl _ZdlPv
.LVL651:
.LBE2736:
.LBE2735:
.LBE2734:
.LBE2733:
	.loc 10 71 0
	cmpw 7,30,29
	beq- 7,.L374
	.loc 10 74 0
	mr 3,30
	b .L387
.LVL652:
.L381:
.LBE2732:
.LBE2731:
.LBE2730:
.LBE2729:
.LBE2728:
.LBE2727:
.LBB2737:
.LBB2698:
.LBB2693:
.LBB2694:
.LBB2695:
	.loc 1 343 0
	lwz 9,0(28)
	mr 31,3
.LVL653:
	mr 3,28
	lwz 0,12(9)
	mtctr 0
	bctrl
	b .L355
.LVL654:
.L374:
.LBE2695:
.LBE2694:
.LBE2693:
.LBE2698:
.LBE2737:
.LBB2738:
.LBB2739:
.LBB2740:
.LBB2741:
.LBB2742:
.LBB2743:
	.loc 1 105 0
	lis 9,_ZTVN7sigslot15single_threadedE+8@ha
	mr 3,31
	la 0,_ZTVN7sigslot15single_threadedE+8@l(9)
	stw 0,0(28)
.LEHB31:
	bl _Unwind_Resume
.LEHE31:
.LBE2743:
.LBE2742:
.LBE2741:
.LBE2740:
.LBE2739:
.LBE2738:
.LBE2748:
	.cfi_endproc
.LFE1475:
	.section	.gcc_except_table
.LLSDA1475:
	.byte	0xff
	.byte	0xff
	.byte	0x1
	.uleb128 .LLSDACSE1475-.LLSDACSB1475
.LLSDACSB1475:
	.uleb128 .LEHB28-.LFB1475
	.uleb128 .LEHE28-.LEHB28
	.uleb128 .L380-.LFB1475
	.uleb128 0
	.uleb128 .LEHB29-.LFB1475
	.uleb128 .LEHE29-.LEHB29
	.uleb128 .L381-.LFB1475
	.uleb128 0
	.uleb128 .LEHB30-.LFB1475
	.uleb128 .LEHE30-.LEHB30
	.uleb128 .L380-.LFB1475
	.uleb128 0
	.uleb128 .LEHB31-.LFB1475
	.uleb128 .LEHE31-.LEHB31
	.uleb128 0
	.uleb128 0
.LLSDACSE1475:
	.section	.text._ZN7sigslot13_signal_base3IP10GuiElementiiNS_15single_threadedEED2Ev,"axG",@progbits,_ZN7sigslot13_signal_base3IP10GuiElementiiNS_15single_threadedEED5Ev,comdat
	.size	_ZN7sigslot13_signal_base3IP10GuiElementiiNS_15single_threadedEED2Ev, .-_ZN7sigslot13_signal_base3IP10GuiElementiiNS_15single_threadedEED2Ev
	.section	.text._ZN7sigslot13_signal_base3IP10GuiElementiiNS_15single_threadedEED0Ev,"axG",@progbits,_ZN7sigslot13_signal_base3IP10GuiElementiiNS_15single_threadedEED5Ev,comdat
	.align 2
	.weak	_ZN7sigslot13_signal_base3IP10GuiElementiiNS_15single_threadedEED0Ev
	.type	_ZN7sigslot13_signal_base3IP10GuiElementiiNS_15single_threadedEED0Ev, @function
_ZN7sigslot13_signal_base3IP10GuiElementiiNS_15single_threadedEED0Ev:
.LFB1477:
	.loc 1 943 0
	.cfi_startproc
	.cfi_personality 0,__gxx_personality_v0
	.cfi_lsda 0,.LLSDA1477
.LVL655:
	mflr 0
	stwu 1,-40(1)
.LCFI60:
	.cfi_def_cfa_offset 40
	.cfi_register 65, 0
.LBB2844:
.LBB2845:
.LBB2846:
	.loc 1 946 0
	lis 9,_ZTVN7sigslot13_signal_base3IP10GuiElementiiNS_15single_threadedEEE+8@ha
.LBE2846:
.LBE2845:
.LBE2844:
	.loc 1 943 0
	stw 28,24(1)
	mr 28,3
	.cfi_offset 28, -16
.LVL656:
	stw 0,44(1)
.LBB2931:
.LBB2927:
.LBB2923:
	.loc 1 946 0
	la 0,_ZTVN7sigslot13_signal_base3IP10GuiElementiiNS_15single_threadedEEE+8@l(9)
	.cfi_offset 65, 4
.LBE2923:
.LBE2927:
.LBE2931:
	.loc 1 943 0
	stw 29,28(1)
	addi 29,3,4
	.cfi_offset 29, -12
	stw 30,32(1)
	stw 31,36(1)
.LBB2932:
.LBB2928:
.LBB2924:
	.loc 1 946 0
	stw 0,0(3)
.LVL657:
.LEHB32:
.LBB2847:
.LBB2848:
.LBB2849:
.LBB2850:
	.loc 1 338 0
	.cfi_offset 31, -4
	.cfi_offset 30, -8
	bl _ZN7sigslot15single_threaded4lockEv
.LEHE32:
.LVL658:
.LBE2850:
.LBE2849:
.LBE2848:
	.loc 3 302 0
	mr 29,28
.LVL659:
	lwzu 31,4(29)
.LVL660:
.LBB2881:
	.loc 1 954 0
	cmpw 7,31,29
	beq- 7,.L389
.LVL661:
.L427:
	.loc 1 956 0
	lwz 3,8(31)
	lwz 9,0(3)
	lwz 0,8(9)
	mtctr 0
.LEHB33:
	bctrl
.LBB2851:
.LBB2852:
.LBB2853:
.LBB2854:
	.loc 1 338 0
	lwz 9,0(3)
.LBE2854:
.LBE2853:
.LBE2852:
.LBE2851:
	.loc 1 956 0
	mr 30,3
.LVL662:
	stw 28,8(1)
.LVL663:
.LBB2863:
.LBB2862:
.LBB2856:
.LBB2855:
	.loc 1 338 0
	lwz 0,8(9)
	mtctr 0
	bctrl
.LVL664:
.LBE2855:
.LBE2856:
.LBB2857:
.LBB2858:
	.loc 9 528 0
	addi 3,30,4
	addi 4,1,8
	bl _ZNSt8_Rb_treeIPN7sigslot12_signal_baseINS0_15single_threadedEEES4_St9_IdentityIS4_ESt4lessIS4_ESaIS4_EE5eraseERKS4_
.LVL665:
.LBE2858:
.LBE2857:
.LBB2859:
.LBB2860:
.LBB2861:
	.loc 1 343 0
	lwz 9,0(30)
	mr 3,30
	lwz 0,12(9)
	mtctr 0
	bctrl
.LVL666:
.LBE2861:
.LBE2860:
.LBE2859:
.LBE2862:
.LBE2863:
	.loc 1 957 0
	lwz 3,8(31)
	cmpwi 7,3,0
	beq- 7,.L391
	lwz 9,0(3)
	lwz 0,4(9)
	mtctr 0
	bctrl
.LEHE33:
.L391:
.LVL667:
.LBB2864:
.LBB2865:
	.loc 4 234 0
	lwz 31,0(31)
.LVL668:
.LBE2865:
.LBE2864:
	.loc 1 954 0
	cmpw 7,29,31
	bne+ 7,.L427
.LBE2881:
	.loc 3 302 0
	lwz 31,4(28)
.LVL669:
.LBB2882:
.LBB2866:
.LBB2867:
	.loc 4 1162 0
	cmpw 7,29,31
	bne+ 7,.L429
	b .L389
.LVL670:
.L422:
	.loc 4 1163 0
	mr 31,30
.LVL671:
.L429:
.LBB2868:
.LBB2869:
	.loc 10 112 0
	lwz 30,0(31)
.LVL672:
.LBB2870:
.LBB2871:
	.loc 4 1532 0
	mr 3,31
	bl _ZNSt8__detail15_List_node_base9_M_unhookEv
.LVL673:
.LBB2872:
.LBB2873:
.LBB2874:
	.loc 6 98 0
	mr 3,31
	bl _ZdlPv
.LVL674:
.LBE2874:
.LBE2873:
.LBE2872:
.LBE2871:
.LBE2870:
.LBE2869:
.LBE2868:
	.loc 4 1162 0
	cmpw 7,29,30
	bne+ 7,.L422
.LVL675:
.L389:
.LBE2867:
.LBE2866:
.LBB2875:
.LBB2876:
.LBB2877:
	.loc 1 343 0
	lwz 9,0(28)
	mr 3,28
	lwz 0,12(9)
	mtctr 0
.LEHB34:
	bctrl
.LEHE34:
.LVL676:
.LBE2877:
.LBE2876:
.LBE2875:
.LBE2882:
.LBE2847:
.LBB2884:
.LBB2885:
.LBB2886:
.LBB2887:
.LBB2888:
.LBB2889:
	.loc 10 70 0
	lwz 3,4(28)
.LVL677:
	.loc 10 71 0
	cmpw 7,3,29
	bne+ 7,.L431
	b .L407
.LVL678:
.L423:
	.loc 10 74 0
	mr 3,31
.LVL679:
.L431:
.LBB2890:
	lwz 31,0(3)
.LVL680:
.LBB2891:
.LBB2892:
.LBB2893:
	.loc 6 98 0
	bl _ZdlPv
.LVL681:
.LBE2893:
.LBE2892:
.LBE2891:
.LBE2890:
	.loc 10 71 0
	cmpw 7,31,29
	bne+ 7,.L423
.LVL682:
.L407:
.LBE2889:
.LBE2888:
.LBE2887:
.LBE2886:
.LBE2885:
.LBE2884:
.LBB2894:
.LBB2895:
.LBB2896:
.LBB2897:
.LBB2898:
.LBB2899:
	.loc 1 105 0
	lis 9,_ZTVN7sigslot15single_threadedE+8@ha
.LBE2899:
.LBE2898:
.LBE2897:
.LBE2896:
.LBE2895:
.LBE2894:
.LBE2924:
.LBE2928:
.LBE2932:
	.loc 1 946 0
	mr 3,28
.LBB2933:
.LBB2929:
.LBB2925:
.LBB2905:
.LBB2904:
.LBB2903:
.LBB2902:
.LBB2901:
.LBB2900:
	.loc 1 105 0
	la 0,_ZTVN7sigslot15single_threadedE+8@l(9)
	stw 0,0(28)
.LBE2900:
.LBE2901:
.LBE2902:
.LBE2903:
.LBE2904:
.LBE2905:
.LBE2925:
.LBE2929:
.LBE2933:
	.loc 1 946 0
	bl _ZdlPv
	lwz 0,44(1)
	lwz 28,24(1)
.LVL683:
	mtlr 0
	lwz 29,28(1)
.LVL684:
	lwz 30,32(1)
	lwz 31,36(1)
	addi 1,1,40
	.cfi_remember_state
.LCFI61:
	.cfi_def_cfa_offset 0
	.cfi_restore 31
	.cfi_restore 30
	.cfi_restore 29
	.cfi_restore 28
	blr
.LVL685:
.L425:
.LCFI62:
	.cfi_restore_state
	mr 31,3
.L399:
.LVL686:
.LBB2934:
.LBB2930:
.LBB2926:
.LBB2906:
.LBB2907:
.LBB2908:
.LBB2909:
.LBB2910:
.LBB2911:
	.loc 10 70 0
	lwz 3,4(28)
.LVL687:
	.loc 10 71 0
	cmpw 7,3,29
	beq- 7,.L416
.LVL688:
.L432:
.LBB2912:
	.loc 10 74 0
	lwz 30,0(3)
.LVL689:
.LBB2913:
.LBB2914:
.LBB2915:
	.loc 6 98 0
	bl _ZdlPv
.LVL690:
.LBE2915:
.LBE2914:
.LBE2913:
.LBE2912:
	.loc 10 71 0
	cmpw 7,30,29
	beq- 7,.L416
	.loc 10 74 0
	mr 3,30
	b .L432
.LVL691:
.L426:
.LBE2911:
.LBE2910:
.LBE2909:
.LBE2908:
.LBE2907:
.LBE2906:
.LBB2916:
.LBB2883:
.LBB2878:
.LBB2879:
.LBB2880:
	.loc 1 343 0
	lwz 9,0(28)
	mr 31,3
.LVL692:
	mr 3,28
	lwz 0,12(9)
	mtctr 0
	bctrl
	b .L399
.LVL693:
.L416:
.LBE2880:
.LBE2879:
.LBE2878:
.LBE2883:
.LBE2916:
.LBB2917:
.LBB2918:
.LBB2919:
.LBB2920:
.LBB2921:
.LBB2922:
	.loc 1 105 0
	lis 9,_ZTVN7sigslot15single_threadedE+8@ha
	mr 3,31
	la 0,_ZTVN7sigslot15single_threadedE+8@l(9)
	stw 0,0(28)
.LEHB35:
	bl _Unwind_Resume
.LEHE35:
.LBE2922:
.LBE2921:
.LBE2920:
.LBE2919:
.LBE2918:
.LBE2917:
.LBE2926:
.LBE2930:
.LBE2934:
	.cfi_endproc
.LFE1477:
	.section	.gcc_except_table
.LLSDA1477:
	.byte	0xff
	.byte	0xff
	.byte	0x1
	.uleb128 .LLSDACSE1477-.LLSDACSB1477
.LLSDACSB1477:
	.uleb128 .LEHB32-.LFB1477
	.uleb128 .LEHE32-.LEHB32
	.uleb128 .L425-.LFB1477
	.uleb128 0
	.uleb128 .LEHB33-.LFB1477
	.uleb128 .LEHE33-.LEHB33
	.uleb128 .L426-.LFB1477
	.uleb128 0
	.uleb128 .LEHB34-.LFB1477
	.uleb128 .LEHE34-.LEHB34
	.uleb128 .L425-.LFB1477
	.uleb128 0
	.uleb128 .LEHB35-.LFB1477
	.uleb128 .LEHE35-.LEHB35
	.uleb128 0
	.uleb128 0
.LLSDACSE1477:
	.section	.text._ZN7sigslot13_signal_base3IP10GuiElementiiNS_15single_threadedEED0Ev,"axG",@progbits,_ZN7sigslot13_signal_base3IP10GuiElementiiNS_15single_threadedEED5Ev,comdat
	.size	_ZN7sigslot13_signal_base3IP10GuiElementiiNS_15single_threadedEED0Ev, .-_ZN7sigslot13_signal_base3IP10GuiElementiiNS_15single_threadedEED0Ev
	.section	.text._ZN7sigslot7signal3IP10GuiElementiiNS_15single_threadedEED2Ev,"axG",@progbits,_ZN7sigslot7signal3IP10GuiElementiiNS_15single_threadedEED5Ev,comdat
	.align 2
	.weak	_ZN7sigslot7signal3IP10GuiElementiiNS_15single_threadedEED2Ev
	.type	_ZN7sigslot7signal3IP10GuiElementiiNS_15single_threadedEED2Ev, @function
_ZN7sigslot7signal3IP10GuiElementiiNS_15single_threadedEED2Ev:
.LFB1445:
	.loc 1 2302 0
	.cfi_startproc
	.cfi_personality 0,__gxx_personality_v0
	.cfi_lsda 0,.LLSDA1445
.LVL694:
	mflr 0
	stwu 1,-40(1)
.LCFI63:
	.cfi_def_cfa_offset 40
	.cfi_register 65, 0
.LBB3032:
.LBB3033:
.LBB3034:
.LBB3035:
	.loc 1 946 0
	lis 9,_ZTVN7sigslot13_signal_base3IP10GuiElementiiNS_15single_threadedEEE+8@ha
.LBE3035:
.LBE3034:
.LBE3033:
.LBE3032:
	.loc 1 2302 0
	stw 28,24(1)
	mr 28,3
	.cfi_offset 28, -16
.LVL695:
	stw 0,44(1)
.LBB3133:
.LBB3128:
.LBB3123:
.LBB3118:
	.loc 1 946 0
	la 0,_ZTVN7sigslot13_signal_base3IP10GuiElementiiNS_15single_threadedEEE+8@l(9)
	.cfi_offset 65, 4
.LBE3118:
.LBE3123:
.LBE3128:
.LBE3133:
	.loc 1 2302 0
	stw 29,28(1)
	addi 29,3,4
	.cfi_offset 29, -12
	stw 30,32(1)
	stw 31,36(1)
.LBB3134:
.LBB3129:
.LBB3124:
.LBB3119:
	.loc 1 946 0
	stw 0,0(3)
.LVL696:
.LEHB36:
.LBB3036:
.LBB3037:
.LBB3038:
.LBB3039:
	.loc 1 338 0
	.cfi_offset 31, -4
	.cfi_offset 30, -8
	bl _ZN7sigslot15single_threaded4lockEv
.LEHE36:
.LVL697:
.LBE3039:
.LBE3038:
.LBE3037:
	.loc 3 302 0
	mr 29,28
	lwzu 31,4(29)
.LVL698:
.LBB3070:
	.loc 1 954 0
	cmpw 7,31,29
	beq- 7,.L434
.LVL699:
.L472:
	.loc 1 956 0
	lwz 3,8(31)
	lwz 9,0(3)
	lwz 0,8(9)
	mtctr 0
.LEHB37:
	bctrl
.LBB3040:
.LBB3041:
.LBB3042:
.LBB3043:
	.loc 1 338 0
	lwz 9,0(3)
.LBE3043:
.LBE3042:
.LBE3041:
.LBE3040:
	.loc 1 956 0
	mr 30,3
.LVL700:
	stw 28,8(1)
.LVL701:
.LBB3052:
.LBB3051:
.LBB3045:
.LBB3044:
	.loc 1 338 0
	lwz 0,8(9)
	mtctr 0
	bctrl
.LVL702:
.LBE3044:
.LBE3045:
.LBB3046:
.LBB3047:
	.loc 9 528 0
	addi 3,30,4
	addi 4,1,8
	bl _ZNSt8_Rb_treeIPN7sigslot12_signal_baseINS0_15single_threadedEEES4_St9_IdentityIS4_ESt4lessIS4_ESaIS4_EE5eraseERKS4_
.LVL703:
.LBE3047:
.LBE3046:
.LBB3048:
.LBB3049:
.LBB3050:
	.loc 1 343 0
	lwz 9,0(30)
	mr 3,30
	lwz 0,12(9)
	mtctr 0
	bctrl
.LVL704:
.LBE3050:
.LBE3049:
.LBE3048:
.LBE3051:
.LBE3052:
	.loc 1 957 0
	lwz 3,8(31)
	cmpwi 7,3,0
	beq- 7,.L436
	lwz 9,0(3)
	lwz 0,4(9)
	mtctr 0
	bctrl
.LEHE37:
.L436:
.LVL705:
.LBB3053:
.LBB3054:
	.loc 4 234 0
	lwz 31,0(31)
.LVL706:
.LBE3054:
.LBE3053:
	.loc 1 954 0
	cmpw 7,29,31
	bne+ 7,.L472
.LBE3070:
	.loc 3 302 0
	lwz 31,4(28)
.LVL707:
.LBB3071:
.LBB3055:
.LBB3056:
	.loc 4 1162 0
	cmpw 7,29,31
	bne+ 7,.L474
	b .L434
.LVL708:
.L467:
	.loc 4 1163 0
	mr 31,30
.LVL709:
.L474:
.LBB3057:
.LBB3058:
	.loc 10 112 0
	lwz 30,0(31)
.LVL710:
.LBB3059:
.LBB3060:
	.loc 4 1532 0
	mr 3,31
	bl _ZNSt8__detail15_List_node_base9_M_unhookEv
.LVL711:
.LBB3061:
.LBB3062:
.LBB3063:
	.loc 6 98 0
	mr 3,31
	bl _ZdlPv
.LVL712:
.LBE3063:
.LBE3062:
.LBE3061:
.LBE3060:
.LBE3059:
.LBE3058:
.LBE3057:
	.loc 4 1162 0
	cmpw 7,29,30
	bne+ 7,.L467
.LVL713:
.L434:
.LBE3056:
.LBE3055:
.LBB3064:
.LBB3065:
.LBB3066:
	.loc 1 343 0
	lwz 9,0(28)
	mr 3,28
	lwz 0,12(9)
	mtctr 0
.LEHB38:
	bctrl
.LEHE38:
.LBE3066:
.LBE3065:
.LBE3064:
.LBE3071:
.LBE3036:
.LBB3073:
.LBB3074:
.LBB3075:
.LBB3076:
.LBB3077:
.LBB3078:
	.loc 10 70 0
	lwz 3,4(28)
.LVL714:
	.loc 10 71 0
	cmpw 7,3,29
	bne+ 7,.L476
	b .L452
.LVL715:
.L468:
	.loc 10 74 0
	mr 3,31
.LVL716:
.L476:
.LBB3079:
	lwz 31,0(3)
.LVL717:
.LBB3080:
.LBB3081:
.LBB3082:
	.loc 6 98 0
	bl _ZdlPv
.LVL718:
.LBE3082:
.LBE3081:
.LBE3080:
.LBE3079:
	.loc 10 71 0
	cmpw 7,31,29
	bne+ 7,.L468
.LVL719:
.L452:
.LBE3078:
.LBE3077:
.LBE3076:
.LBE3075:
.LBE3074:
.LBE3073:
.LBB3083:
.LBB3084:
.LBB3085:
.LBB3086:
.LBB3087:
.LBB3088:
	.loc 1 105 0
	lis 9,_ZTVN7sigslot15single_threadedE+8@ha
.LBE3088:
.LBE3087:
.LBE3086:
.LBE3085:
.LBE3084:
.LBE3083:
.LBE3119:
.LBE3124:
.LBE3129:
.LBE3134:
	.loc 1 2305 0
	lwz 29,28(1)
.LVL720:
.LBB3135:
.LBB3130:
.LBB3125:
.LBB3120:
.LBB3099:
.LBB3097:
.LBB3095:
.LBB3093:
.LBB3091:
.LBB3089:
	.loc 1 105 0
	la 0,_ZTVN7sigslot15single_threadedE+8@l(9)
.LBE3089:
.LBE3091:
.LBE3093:
.LBE3095:
.LBE3097:
.LBE3099:
.LBE3120:
.LBE3125:
.LBE3130:
.LBE3135:
	.loc 1 2305 0
	lwz 30,32(1)
.LBB3136:
.LBB3131:
.LBB3126:
.LBB3121:
.LBB3100:
.LBB3098:
.LBB3096:
.LBB3094:
.LBB3092:
.LBB3090:
	.loc 1 105 0
	stw 0,0(28)
.LBE3090:
.LBE3092:
.LBE3094:
.LBE3096:
.LBE3098:
.LBE3100:
.LBE3121:
.LBE3126:
.LBE3131:
.LBE3136:
	.loc 1 2305 0
	lwz 0,44(1)
	lwz 28,24(1)
.LVL721:
	mtlr 0
	lwz 31,36(1)
	addi 1,1,40
	.cfi_remember_state
.LCFI64:
	.cfi_def_cfa_offset 0
	.cfi_restore 31
	.cfi_restore 30
	.cfi_restore 29
	.cfi_restore 28
	blr
.LVL722:
.L470:
.LCFI65:
	.cfi_restore_state
	mr 31,3
.L444:
.LBB3137:
.LBB3132:
.LBB3127:
.LBB3122:
.LBB3101:
.LBB3102:
.LBB3103:
.LBB3104:
.LBB3105:
.LBB3106:
	.loc 10 70 0
	lwz 3,4(28)
.LVL723:
	.loc 10 71 0
	cmpw 7,3,29
	beq- 7,.L461
.LVL724:
.L477:
.LBB3107:
	.loc 10 74 0
	lwz 30,0(3)
.LVL725:
.LBB3108:
.LBB3109:
.LBB3110:
	.loc 6 98 0
	bl _ZdlPv
.LVL726:
.LBE3110:
.LBE3109:
.LBE3108:
.LBE3107:
	.loc 10 71 0
	cmpw 7,30,29
	beq- 7,.L461
	.loc 10 74 0
	mr 3,30
	b .L477
.LVL727:
.L471:
.LBE3106:
.LBE3105:
.LBE3104:
.LBE3103:
.LBE3102:
.LBE3101:
.LBB3111:
.LBB3072:
.LBB3067:
.LBB3068:
.LBB3069:
	.loc 1 343 0
	lwz 9,0(28)
	mr 31,3
.LVL728:
	mr 3,28
	lwz 0,12(9)
	mtctr 0
	bctrl
	b .L444
.LVL729:
.L461:
.LBE3069:
.LBE3068:
.LBE3067:
.LBE3072:
.LBE3111:
.LBB3112:
.LBB3113:
.LBB3114:
.LBB3115:
.LBB3116:
.LBB3117:
	.loc 1 105 0
	lis 9,_ZTVN7sigslot15single_threadedE+8@ha
	mr 3,31
	la 0,_ZTVN7sigslot15single_threadedE+8@l(9)
	stw 0,0(28)
.LEHB39:
	bl _Unwind_Resume
.LEHE39:
.LBE3117:
.LBE3116:
.LBE3115:
.LBE3114:
.LBE3113:
.LBE3112:
.LBE3122:
.LBE3127:
.LBE3132:
.LBE3137:
	.cfi_endproc
.LFE1445:
	.section	.gcc_except_table
.LLSDA1445:
	.byte	0xff
	.byte	0xff
	.byte	0x1
	.uleb128 .LLSDACSE1445-.LLSDACSB1445
.LLSDACSB1445:
	.uleb128 .LEHB36-.LFB1445
	.uleb128 .LEHE36-.LEHB36
	.uleb128 .L470-.LFB1445
	.uleb128 0
	.uleb128 .LEHB37-.LFB1445
	.uleb128 .LEHE37-.LEHB37
	.uleb128 .L471-.LFB1445
	.uleb128 0
	.uleb128 .LEHB38-.LFB1445
	.uleb128 .LEHE38-.LEHB38
	.uleb128 .L470-.LFB1445
	.uleb128 0
	.uleb128 .LEHB39-.LFB1445
	.uleb128 .LEHE39-.LEHB39
	.uleb128 0
	.uleb128 0
.LLSDACSE1445:
	.section	.text._ZN7sigslot7signal3IP10GuiElementiiNS_15single_threadedEED2Ev,"axG",@progbits,_ZN7sigslot7signal3IP10GuiElementiiNS_15single_threadedEED5Ev,comdat
	.size	_ZN7sigslot7signal3IP10GuiElementiiNS_15single_threadedEED2Ev, .-_ZN7sigslot7signal3IP10GuiElementiiNS_15single_threadedEED2Ev
	.section	.text._ZN7sigslot7signal2IP10GuiElementbNS_15single_threadedEED2Ev,"axG",@progbits,_ZN7sigslot7signal2IP10GuiElementbNS_15single_threadedEED5Ev,comdat
	.align 2
	.weak	_ZN7sigslot7signal2IP10GuiElementbNS_15single_threadedEED2Ev
	.type	_ZN7sigslot7signal2IP10GuiElementbNS_15single_threadedEED2Ev, @function
_ZN7sigslot7signal2IP10GuiElementbNS_15single_threadedEED2Ev:
.LFB1441:
	.loc 1 2235 0
	.cfi_startproc
	.cfi_personality 0,__gxx_personality_v0
	.cfi_lsda 0,.LLSDA1441
.LVL730:
	mflr 0
	stwu 1,-40(1)
.LCFI66:
	.cfi_def_cfa_offset 40
	.cfi_register 65, 0
.LBB3235:
.LBB3236:
.LBB3237:
.LBB3238:
	.loc 1 826 0
	lis 9,_ZTVN7sigslot13_signal_base2IP10GuiElementbNS_15single_threadedEEE+8@ha
.LBE3238:
.LBE3237:
.LBE3236:
.LBE3235:
	.loc 1 2235 0
	stw 28,24(1)
	mr 28,3
	.cfi_offset 28, -16
.LVL731:
	stw 0,44(1)
.LBB3336:
.LBB3331:
.LBB3326:
.LBB3321:
	.loc 1 826 0
	la 0,_ZTVN7sigslot13_signal_base2IP10GuiElementbNS_15single_threadedEEE+8@l(9)
	.cfi_offset 65, 4
.LBE3321:
.LBE3326:
.LBE3331:
.LBE3336:
	.loc 1 2235 0
	stw 29,28(1)
	addi 29,3,4
	.cfi_offset 29, -12
	stw 30,32(1)
	stw 31,36(1)
.LBB3337:
.LBB3332:
.LBB3327:
.LBB3322:
	.loc 1 826 0
	stw 0,0(3)
.LVL732:
.LEHB40:
.LBB3239:
.LBB3240:
.LBB3241:
.LBB3242:
	.loc 1 338 0
	.cfi_offset 31, -4
	.cfi_offset 30, -8
	bl _ZN7sigslot15single_threaded4lockEv
.LEHE40:
.LVL733:
.LBE3242:
.LBE3241:
.LBE3240:
	.loc 3 302 0
	mr 29,28
.LVL734:
	lwzu 31,4(29)
.LVL735:
.LBB3273:
	.loc 1 834 0
	cmpw 7,31,29
	beq- 7,.L479
.LVL736:
.L517:
	.loc 1 836 0
	lwz 3,8(31)
	lwz 9,0(3)
	lwz 0,8(9)
	mtctr 0
.LEHB41:
	bctrl
.LBB3243:
.LBB3244:
.LBB3245:
.LBB3246:
	.loc 1 338 0
	lwz 9,0(3)
.LBE3246:
.LBE3245:
.LBE3244:
.LBE3243:
	.loc 1 836 0
	mr 30,3
.LVL737:
	stw 28,8(1)
.LVL738:
.LBB3255:
.LBB3254:
.LBB3248:
.LBB3247:
	.loc 1 338 0
	lwz 0,8(9)
	mtctr 0
	bctrl
.LVL739:
.LBE3247:
.LBE3248:
.LBB3249:
.LBB3250:
	.loc 9 528 0
	addi 3,30,4
	addi 4,1,8
	bl _ZNSt8_Rb_treeIPN7sigslot12_signal_baseINS0_15single_threadedEEES4_St9_IdentityIS4_ESt4lessIS4_ESaIS4_EE5eraseERKS4_
.LVL740:
.LBE3250:
.LBE3249:
.LBB3251:
.LBB3252:
.LBB3253:
	.loc 1 343 0
	lwz 9,0(30)
	mr 3,30
	lwz 0,12(9)
	mtctr 0
	bctrl
.LVL741:
.LBE3253:
.LBE3252:
.LBE3251:
.LBE3254:
.LBE3255:
	.loc 1 837 0
	lwz 3,8(31)
	cmpwi 7,3,0
	beq- 7,.L481
	lwz 9,0(3)
	lwz 0,4(9)
	mtctr 0
	bctrl
.LEHE41:
.L481:
.LVL742:
.LBB3256:
.LBB3257:
	.loc 4 234 0
	lwz 31,0(31)
.LVL743:
.LBE3257:
.LBE3256:
	.loc 1 834 0
	cmpw 7,29,31
	bne+ 7,.L517
.LBE3273:
	.loc 3 302 0
	lwz 31,4(28)
.LVL744:
.LBB3274:
.LBB3258:
.LBB3259:
	.loc 4 1162 0
	cmpw 7,29,31
	bne+ 7,.L519
	b .L479
.LVL745:
.L512:
	.loc 4 1163 0
	mr 31,30
.LVL746:
.L519:
.LBB3260:
.LBB3261:
	.loc 10 112 0
	lwz 30,0(31)
.LVL747:
.LBB3262:
.LBB3263:
	.loc 4 1532 0
	mr 3,31
	bl _ZNSt8__detail15_List_node_base9_M_unhookEv
.LVL748:
.LBB3264:
.LBB3265:
.LBB3266:
	.loc 6 98 0
	mr 3,31
	bl _ZdlPv
.LVL749:
.LBE3266:
.LBE3265:
.LBE3264:
.LBE3263:
.LBE3262:
.LBE3261:
.LBE3260:
	.loc 4 1162 0
	cmpw 7,29,30
	bne+ 7,.L512
.LVL750:
.L479:
.LBE3259:
.LBE3258:
.LBB3267:
.LBB3268:
.LBB3269:
	.loc 1 343 0
	lwz 9,0(28)
	mr 3,28
	lwz 0,12(9)
	mtctr 0
.LEHB42:
	bctrl
.LEHE42:
.LBE3269:
.LBE3268:
.LBE3267:
.LBE3274:
.LBE3239:
.LBB3276:
.LBB3277:
.LBB3278:
.LBB3279:
.LBB3280:
.LBB3281:
	.loc 10 70 0
	lwz 3,4(28)
.LVL751:
	.loc 10 71 0
	cmpw 7,3,29
	bne+ 7,.L521
	b .L497
.LVL752:
.L513:
	.loc 10 74 0
	mr 3,31
.LVL753:
.L521:
.LBB3282:
	lwz 31,0(3)
.LVL754:
.LBB3283:
.LBB3284:
.LBB3285:
	.loc 6 98 0
	bl _ZdlPv
.LVL755:
.LBE3285:
.LBE3284:
.LBE3283:
.LBE3282:
	.loc 10 71 0
	cmpw 7,31,29
	bne+ 7,.L513
.LVL756:
.L497:
.LBE3281:
.LBE3280:
.LBE3279:
.LBE3278:
.LBE3277:
.LBE3276:
.LBB3286:
.LBB3287:
.LBB3288:
.LBB3289:
.LBB3290:
.LBB3291:
	.loc 1 105 0
	lis 9,_ZTVN7sigslot15single_threadedE+8@ha
.LBE3291:
.LBE3290:
.LBE3289:
.LBE3288:
.LBE3287:
.LBE3286:
.LBE3322:
.LBE3327:
.LBE3332:
.LBE3337:
	.loc 1 2238 0
	lwz 29,28(1)
.LVL757:
.LBB3338:
.LBB3333:
.LBB3328:
.LBB3323:
.LBB3302:
.LBB3300:
.LBB3298:
.LBB3296:
.LBB3294:
.LBB3292:
	.loc 1 105 0
	la 0,_ZTVN7sigslot15single_threadedE+8@l(9)
.LBE3292:
.LBE3294:
.LBE3296:
.LBE3298:
.LBE3300:
.LBE3302:
.LBE3323:
.LBE3328:
.LBE3333:
.LBE3338:
	.loc 1 2238 0
	lwz 30,32(1)
.LBB3339:
.LBB3334:
.LBB3329:
.LBB3324:
.LBB3303:
.LBB3301:
.LBB3299:
.LBB3297:
.LBB3295:
.LBB3293:
	.loc 1 105 0
	stw 0,0(28)
.LBE3293:
.LBE3295:
.LBE3297:
.LBE3299:
.LBE3301:
.LBE3303:
.LBE3324:
.LBE3329:
.LBE3334:
.LBE3339:
	.loc 1 2238 0
	lwz 0,44(1)
	lwz 28,24(1)
.LVL758:
	mtlr 0
	lwz 31,36(1)
	addi 1,1,40
	.cfi_remember_state
.LCFI67:
	.cfi_def_cfa_offset 0
	.cfi_restore 31
	.cfi_restore 30
	.cfi_restore 29
	.cfi_restore 28
	blr
.LVL759:
.L515:
.LCFI68:
	.cfi_restore_state
	mr 31,3
.L489:
.LBB3340:
.LBB3335:
.LBB3330:
.LBB3325:
.LBB3304:
.LBB3305:
.LBB3306:
.LBB3307:
.LBB3308:
.LBB3309:
	.loc 10 70 0
	lwz 3,4(28)
.LVL760:
	.loc 10 71 0
	cmpw 7,3,29
	beq- 7,.L506
.LVL761:
.L522:
.LBB3310:
	.loc 10 74 0
	lwz 30,0(3)
.LVL762:
.LBB3311:
.LBB3312:
.LBB3313:
	.loc 6 98 0
	bl _ZdlPv
.LVL763:
.LBE3313:
.LBE3312:
.LBE3311:
.LBE3310:
	.loc 10 71 0
	cmpw 7,30,29
	beq- 7,.L506
	.loc 10 74 0
	mr 3,30
	b .L522
.LVL764:
.L516:
.LBE3309:
.LBE3308:
.LBE3307:
.LBE3306:
.LBE3305:
.LBE3304:
.LBB3314:
.LBB3275:
.LBB3270:
.LBB3271:
.LBB3272:
	.loc 1 343 0
	lwz 9,0(28)
	mr 31,3
.LVL765:
	mr 3,28
	lwz 0,12(9)
	mtctr 0
	bctrl
	b .L489
.LVL766:
.L506:
.LBE3272:
.LBE3271:
.LBE3270:
.LBE3275:
.LBE3314:
.LBB3315:
.LBB3316:
.LBB3317:
.LBB3318:
.LBB3319:
.LBB3320:
	.loc 1 105 0
	lis 9,_ZTVN7sigslot15single_threadedE+8@ha
	mr 3,31
	la 0,_ZTVN7sigslot15single_threadedE+8@l(9)
	stw 0,0(28)
.LEHB43:
	bl _Unwind_Resume
.LEHE43:
.LBE3320:
.LBE3319:
.LBE3318:
.LBE3317:
.LBE3316:
.LBE3315:
.LBE3325:
.LBE3330:
.LBE3335:
.LBE3340:
	.cfi_endproc
.LFE1441:
	.section	.gcc_except_table
.LLSDA1441:
	.byte	0xff
	.byte	0xff
	.byte	0x1
	.uleb128 .LLSDACSE1441-.LLSDACSB1441
.LLSDACSB1441:
	.uleb128 .LEHB40-.LFB1441
	.uleb128 .LEHE40-.LEHB40
	.uleb128 .L515-.LFB1441
	.uleb128 0
	.uleb128 .LEHB41-.LFB1441
	.uleb128 .LEHE41-.LEHB41
	.uleb128 .L516-.LFB1441
	.uleb128 0
	.uleb128 .LEHB42-.LFB1441
	.uleb128 .LEHE42-.LEHB42
	.uleb128 .L515-.LFB1441
	.uleb128 0
	.uleb128 .LEHB43-.LFB1441
	.uleb128 .LEHE43-.LEHB43
	.uleb128 0
	.uleb128 0
.LLSDACSE1441:
	.section	.text._ZN7sigslot7signal2IP10GuiElementbNS_15single_threadedEED2Ev,"axG",@progbits,_ZN7sigslot7signal2IP10GuiElementbNS_15single_threadedEED5Ev,comdat
	.size	_ZN7sigslot7signal2IP10GuiElementbNS_15single_threadedEED2Ev, .-_ZN7sigslot7signal2IP10GuiElementbNS_15single_threadedEED2Ev
	.section	.text._ZN10GuiElementD0Ev,"axG",@progbits,_ZN10GuiElementD5Ev,comdat
	.align 2
	.weak	_ZN10GuiElementD0Ev
	.type	_ZN10GuiElementD0Ev, @function
_ZN10GuiElementD0Ev:
.LFB1383:
	.loc 2 89 0
	.cfi_startproc
	.cfi_personality 0,__gxx_personality_v0
	.cfi_lsda 0,.LLSDA1383
.LVL767:
	mflr 0
	stwu 1,-48(1)
.LCFI69:
	.cfi_def_cfa_offset 48
	.cfi_register 65, 0
.LBB3542:
.LBB3543:
.LBB3544:
	lis 9,_ZTV10GuiElement+8@ha
.LBE3544:
.LBE3543:
.LBE3542:
	stw 27,28(1)
.LBB3808:
.LBB3804:
.LBB3800:
.LBB3545:
.LBB3546:
.LBB3547:
	.loc 1 2305 0
	addi 27,3,16
	.cfi_offset 27, -20
.LBE3547:
.LBE3546:
.LBE3545:
.LBE3800:
.LBE3804:
.LBE3808:
	.loc 2 89 0
	stw 0,52(1)
.LBB3809:
.LBB3805:
.LBB3801:
	la 0,_ZTV10GuiElement+8@l(9)
	.cfi_offset 65, 4
.LBB3681:
.LBB3672:
.LBB3663:
.LBB3548:
.LBB3549:
.LBB3550:
	.loc 1 946 0
	lis 9,_ZTVN7sigslot13_signal_base3IP10GuiElementiiNS_15single_threadedEEE+8@ha
.LBE3550:
.LBE3549:
.LBE3548:
.LBE3663:
.LBE3672:
.LBE3681:
.LBE3801:
.LBE3805:
.LBE3809:
	.loc 2 89 0
	stw 28,32(1)
	stw 29,36(1)
	mr 28,3
	.cfi_offset 29, -12
	.cfi_offset 28, -16
.LVL768:
	stw 26,24(1)
	addi 29,28,20
	stw 30,40(1)
	stw 31,44(1)
.LBB3810:
.LBB3806:
.LBB3802:
	.loc 2 89 0
	stw 0,0(3)
.LVL769:
.LBB3682:
.LBB3673:
.LBB3664:
.LBB3655:
.LBB3647:
.LBB3639:
	.loc 1 946 0
	la 0,_ZTVN7sigslot13_signal_base3IP10GuiElementiiNS_15single_threadedEEE+8@l(9)
.LBB3551:
.LBB3552:
.LBB3553:
.LBB3554:
	.loc 1 338 0
	lis 9,_ZN7sigslot15single_threaded4lockEv@ha
.LBE3554:
.LBE3553:
.LBE3552:
.LBE3551:
	.loc 1 946 0
	stw 0,16(3)
.LVL770:
.LBB3587:
.LBB3583:
.LBB3556:
.LBB3555:
	.loc 1 338 0
	la 9,_ZN7sigslot15single_threaded4lockEv@l(9)
	mr 3,27
.LVL771:
	mtctr 9
.LEHB44:
	.cfi_offset 31, -4
	.cfi_offset 30, -8
	.cfi_offset 26, -24
	bctrl
.LEHE44:
.LBE3555:
.LBE3556:
.LBE3583:
	.loc 3 302 0
	mr 29,28
	lwzu 31,20(29)
.LVL772:
.LBB3584:
	.loc 1 954 0
	cmpw 7,31,29
	beq- 7,.L525
.LVL773:
.L604:
	.loc 1 956 0
	lwz 3,8(31)
	lwz 9,0(3)
	lwz 0,8(9)
	mtctr 0
.LEHB45:
	bctrl
	stw 27,8(1)
	mr 30,3
.LVL774:
.LBB3557:
.LBB3558:
.LBB3559:
.LBB3560:
	.loc 1 338 0
	lwz 9,0(3)
	lwz 0,8(9)
	mtctr 0
	bctrl
.LVL775:
.LBE3560:
.LBE3559:
.LBB3561:
.LBB3562:
	.loc 9 528 0
	addi 3,30,4
	addi 4,1,8
	bl _ZNSt8_Rb_treeIPN7sigslot12_signal_baseINS0_15single_threadedEEES4_St9_IdentityIS4_ESt4lessIS4_ESaIS4_EE5eraseERKS4_
.LVL776:
.LBE3562:
.LBE3561:
.LBB3563:
.LBB3564:
.LBB3565:
	.loc 1 343 0
	lwz 9,0(30)
	mr 3,30
	lwz 0,12(9)
	mtctr 0
	bctrl
.LVL777:
.LBE3565:
.LBE3564:
.LBE3563:
.LBE3558:
.LBE3557:
	.loc 1 957 0
	lwz 3,8(31)
	cmpwi 7,3,0
	beq- 7,.L527
	lwz 9,0(3)
	lwz 0,4(9)
	mtctr 0
	bctrl
.LEHE45:
.L527:
.LVL778:
.LBB3566:
.LBB3567:
	.loc 4 234 0
	lwz 31,0(31)
.LVL779:
.LBE3567:
.LBE3566:
	.loc 1 954 0
	cmpw 7,29,31
	bne+ 7,.L604
.LBE3584:
	.loc 3 302 0
	lwz 31,20(28)
.LVL780:
.LBB3585:
.LBB3568:
.LBB3569:
	.loc 4 1162 0
	cmpw 7,29,31
	bne+ 7,.L607
	b .L525
.LVL781:
.L593:
	.loc 4 1163 0
	mr 31,30
.LVL782:
.L607:
.LBB3570:
.LBB3571:
	.loc 10 112 0
	lwz 30,0(31)
.LVL783:
.LBB3572:
.LBB3573:
	.loc 4 1532 0
	mr 3,31
	bl _ZNSt8__detail15_List_node_base9_M_unhookEv
.LVL784:
.LBB3574:
.LBB3575:
.LBB3576:
	.loc 6 98 0
	mr 3,31
	bl _ZdlPv
.LVL785:
.LBE3576:
.LBE3575:
.LBE3574:
.LBE3573:
.LBE3572:
.LBE3571:
.LBE3570:
	.loc 4 1162 0
	cmpw 7,29,30
	bne+ 7,.L593
.LVL786:
.L525:
.LBE3569:
.LBE3568:
.LBB3577:
.LBB3578:
.LBB3579:
	.loc 1 343 0
	lwz 9,16(28)
	mr 3,27
	lwz 0,12(9)
	mtctr 0
.LEHB46:
	bctrl
.LEHE46:
.LBE3579:
.LBE3578:
.LBE3577:
.LBE3585:
.LBE3587:
.LBB3588:
.LBB3589:
.LBB3590:
.LBB3591:
.LBB3592:
.LBB3593:
	.loc 10 70 0
	lwz 3,20(28)
.LVL787:
	.loc 10 71 0
	cmpw 7,3,29
	bne+ 7,.L609
	b .L543
.LVL788:
.L594:
	.loc 10 74 0
	mr 3,31
.LVL789:
.L609:
.LBB3594:
	lwz 31,0(3)
.LVL790:
.LBB3595:
.LBB3596:
.LBB3597:
	.loc 6 98 0
	bl _ZdlPv
.LVL791:
.LBE3597:
.LBE3596:
.LBE3595:
.LBE3594:
	.loc 10 71 0
	cmpw 7,31,29
	bne+ 7,.L594
.LVL792:
.L543:
.LBE3593:
.LBE3592:
.LBE3591:
.LBE3590:
.LBE3589:
.LBE3588:
.LBE3639:
.LBE3647:
.LBE3655:
.LBE3664:
.LBE3673:
.LBE3682:
.LBB3683:
.LBB3684:
.LBB3685:
.LBB3686:
.LBB3687:
.LBB3688:
	.loc 1 826 0
	lis 9,_ZTVN7sigslot13_signal_base2IP10GuiElementbNS_15single_threadedEEE+8@ha
.LBE3688:
.LBE3687:
.LBE3686:
.LBE3685:
.LBE3684:
.LBE3683:
.LBB3788:
.LBB3674:
.LBB3665:
.LBB3656:
.LBB3648:
.LBB3640:
.LBB3598:
.LBB3599:
.LBB3600:
.LBB3601:
.LBB3602:
.LBB3603:
	.loc 1 105 0
	lis 26,_ZTVN7sigslot15single_threadedE+8@ha
.LBE3603:
.LBE3602:
.LBE3601:
.LBE3600:
.LBE3599:
.LBE3598:
.LBE3640:
.LBE3648:
.LBE3656:
.LBE3665:
.LBE3674:
.LBE3788:
.LBB3789:
.LBB3783:
.LBB3778:
.LBB3773:
.LBB3768:
.LBB3763:
	.loc 1 826 0
	la 0,_ZTVN7sigslot13_signal_base2IP10GuiElementbNS_15single_threadedEEE+8@l(9)
.LBB3689:
.LBB3690:
.LBB3691:
.LBB3692:
	.loc 1 338 0
	lis 9,_ZN7sigslot15single_threaded4lockEv@ha
.LBE3692:
.LBE3691:
.LBE3690:
.LBE3689:
.LBE3763:
.LBE3768:
.LBE3773:
.LBE3778:
.LBE3783:
.LBE3789:
.LBB3790:
.LBB3675:
.LBB3666:
.LBB3657:
.LBB3649:
.LBB3641:
.LBB3614:
.LBB3612:
.LBB3610:
.LBB3608:
.LBB3606:
.LBB3604:
	.loc 1 105 0
	la 26,_ZTVN7sigslot15single_threadedE+8@l(26)
.LBE3604:
.LBE3606:
.LBE3608:
.LBE3610:
.LBE3612:
.LBE3614:
.LBE3641:
.LBE3649:
.LBE3657:
.LBE3666:
.LBE3675:
.LBE3790:
.LBB3791:
.LBB3784:
.LBB3779:
	.loc 1 2238 0
	addi 27,28,4
.LVL793:
.LBB3774:
.LBB3769:
.LBB3764:
.LBB3728:
.LBB3723:
.LBB3695:
.LBB3693:
	.loc 1 338 0
	la 9,_ZN7sigslot15single_threaded4lockEv@l(9)
.LBE3693:
.LBE3695:
.LBE3723:
.LBE3728:
.LBE3764:
.LBE3769:
.LBE3774:
.LBE3779:
.LBE3784:
.LBE3791:
.LBB3792:
.LBB3676:
.LBB3667:
.LBB3658:
.LBB3650:
.LBB3642:
.LBB3615:
.LBB3613:
.LBB3611:
.LBB3609:
.LBB3607:
.LBB3605:
	.loc 1 105 0
	stw 26,16(28)
.LVL794:
.LBE3605:
.LBE3607:
.LBE3609:
.LBE3611:
.LBE3613:
.LBE3615:
.LBE3642:
.LBE3650:
.LBE3658:
.LBE3667:
.LBE3676:
.LBE3792:
.LBB3793:
.LBB3785:
.LBB3780:
.LBB3775:
.LBB3770:
.LBB3765:
	.loc 1 826 0
	stw 0,4(28)
.LVL795:
.LBB3729:
.LBB3724:
.LBB3696:
.LBB3694:
	.loc 1 338 0
	mr 3,27
	mtctr 9
	addi 29,28,8
.LVL796:
.LEHB47:
	bctrl
.LEHE47:
.LBE3694:
.LBE3696:
.LBE3724:
	.loc 3 302 0
	mr 29,28
	lwzu 31,8(29)
.LVL797:
.LBB3725:
	.loc 1 834 0
	cmpw 7,31,29
	beq- 7,.L558
.LVL798:
.L603:
	.loc 1 836 0
	lwz 3,8(31)
	lwz 9,0(3)
	lwz 0,8(9)
	mtctr 0
.LEHB48:
	bctrl
	stw 27,8(1)
	mr 30,3
.LVL799:
.LBB3697:
.LBB3698:
.LBB3699:
.LBB3700:
	.loc 1 338 0
	lwz 9,0(3)
	lwz 0,8(9)
	mtctr 0
	bctrl
.LVL800:
.LBE3700:
.LBE3699:
.LBB3701:
.LBB3702:
	.loc 9 528 0
	addi 3,30,4
	addi 4,1,8
.LVL801:
	bl _ZNSt8_Rb_treeIPN7sigslot12_signal_baseINS0_15single_threadedEEES4_St9_IdentityIS4_ESt4lessIS4_ESaIS4_EE5eraseERKS4_
.LVL802:
.LBE3702:
.LBE3701:
.LBB3703:
.LBB3704:
.LBB3705:
	.loc 1 343 0
	lwz 9,0(30)
	mr 3,30
	lwz 0,12(9)
	mtctr 0
	bctrl
.LVL803:
.LBE3705:
.LBE3704:
.LBE3703:
.LBE3698:
.LBE3697:
	.loc 1 837 0
	lwz 3,8(31)
	cmpwi 7,3,0
	beq- 7,.L560
	lwz 9,0(3)
	lwz 0,4(9)
	mtctr 0
	bctrl
.LEHE48:
.L560:
.LVL804:
.LBB3706:
.LBB3707:
	.loc 4 234 0
	lwz 31,0(31)
.LVL805:
.LBE3707:
.LBE3706:
	.loc 1 834 0
	cmpw 7,29,31
	bne+ 7,.L603
.LBE3725:
	.loc 3 302 0
	lwz 31,8(28)
.LVL806:
.LBB3726:
.LBB3708:
.LBB3709:
	.loc 4 1162 0
	cmpw 7,29,31
	bne+ 7,.L612
	b .L558
.LVL807:
.L596:
	.loc 4 1163 0
	mr 31,30
.LVL808:
.L612:
.LBB3710:
.LBB3711:
	.loc 10 112 0
	lwz 30,0(31)
.LVL809:
.LBB3712:
.LBB3713:
	.loc 4 1532 0
	mr 3,31
	bl _ZNSt8__detail15_List_node_base9_M_unhookEv
.LVL810:
.LBB3714:
.LBB3715:
.LBB3716:
	.loc 6 98 0
	mr 3,31
	bl _ZdlPv
.LVL811:
.LBE3716:
.LBE3715:
.LBE3714:
.LBE3713:
.LBE3712:
.LBE3711:
.LBE3710:
	.loc 4 1162 0
	cmpw 7,29,30
	bne+ 7,.L596
.LVL812:
.L558:
.LBE3709:
.LBE3708:
.LBB3717:
.LBB3718:
.LBB3719:
	.loc 1 343 0
	lwz 9,4(28)
	mr 3,27
	lwz 0,12(9)
	mtctr 0
.LEHB49:
	bctrl
.LEHE49:
.LBE3719:
.LBE3718:
.LBE3717:
.LBE3726:
.LBE3729:
.LBB3730:
.LBB3731:
.LBB3732:
.LBB3733:
.LBB3734:
.LBB3735:
	.loc 10 70 0
	lwz 3,8(28)
.LVL813:
	.loc 10 71 0
	cmpw 7,3,29
	bne+ 7,.L614
	b .L576
.LVL814:
.L597:
	.loc 10 74 0
	mr 3,31
.LVL815:
.L614:
.LBB3736:
	lwz 31,0(3)
.LVL816:
.LBB3737:
.LBB3738:
.LBB3739:
	.loc 6 98 0
	bl _ZdlPv
.LVL817:
.LBE3739:
.LBE3738:
.LBE3737:
.LBE3736:
	.loc 10 71 0
	cmpw 7,31,29
	bne+ 7,.L597
.LVL818:
.L576:
.LBE3735:
.LBE3734:
.LBE3733:
.LBE3732:
.LBE3731:
.LBE3730:
.LBB3740:
.LBB3741:
.LBB3742:
.LBB3743:
.LBB3744:
.LBB3745:
	.loc 1 105 0
	stw 26,4(28)
.LBE3745:
.LBE3744:
.LBE3743:
.LBE3742:
.LBE3741:
.LBE3740:
.LBE3765:
.LBE3770:
.LBE3775:
.LBE3780:
.LBE3785:
.LBE3793:
.LBE3802:
.LBE3806:
.LBE3810:
	.loc 2 89 0
	mr 3,28
	bl _ZdlPv
	lwz 0,52(1)
	lwz 26,24(1)
	mtlr 0
	lwz 27,28(1)
.LVL819:
	lwz 28,32(1)
.LVL820:
	lwz 29,36(1)
.LVL821:
	lwz 30,40(1)
	lwz 31,44(1)
	addi 1,1,48
	.cfi_remember_state
.LCFI70:
	.cfi_def_cfa_offset 0
	.cfi_restore 31
	.cfi_restore 30
	.cfi_restore 29
	.cfi_restore 28
	.cfi_restore 27
	.cfi_restore 26
	blr
.LVL822:
.L599:
.LCFI71:
	.cfi_restore_state
	mr 31,3
.L535:
.LBB3811:
.LBB3807:
.LBB3803:
.LBB3794:
.LBB3677:
.LBB3668:
.LBB3659:
.LBB3651:
.LBB3643:
.LBB3616:
.LBB3617:
.LBB3618:
.LBB3619:
.LBB3620:
.LBB3621:
	.loc 10 70 0
	lwz 3,20(28)
.LVL823:
	.loc 10 71 0
	cmpw 7,3,29
	beq- 7,.L552
.LVL824:
.L611:
.LBB3622:
	.loc 10 74 0
	lwz 30,0(3)
.LVL825:
.LBB3623:
.LBB3624:
.LBB3625:
	.loc 6 98 0
	bl _ZdlPv
.LVL826:
.LBE3625:
.LBE3624:
.LBE3623:
.LBE3622:
	.loc 10 71 0
	cmpw 7,30,29
	beq- 7,.L552
	.loc 10 74 0
	mr 3,30
	b .L611
.LVL827:
.L602:
.LBE3621:
.LBE3620:
.LBE3619:
.LBE3618:
.LBE3617:
.LBE3616:
.LBE3643:
.LBE3651:
.LBE3659:
.LBE3668:
.LBE3677:
.LBE3794:
.LBB3795:
.LBB3786:
.LBB3781:
.LBB3776:
.LBB3771:
.LBB3766:
.LBB3746:
.LBB3727:
.LBB3720:
.LBB3721:
.LBB3722:
	.loc 1 343 0
	lwz 9,4(28)
	mr 31,3
.LVL828:
	mr 3,27
	lwz 0,12(9)
	mtctr 0
	bctrl
.LVL829:
.L568:
.LBE3722:
.LBE3721:
.LBE3720:
.LBE3727:
.LBE3746:
.LBB3747:
.LBB3748:
.LBB3749:
.LBB3750:
.LBB3751:
.LBB3752:
	.loc 10 70 0
	lwz 3,8(28)
.LVL830:
	.loc 10 71 0
	cmpw 7,3,29
	beq- 7,.L585
.LVL831:
.L615:
.LBB3753:
	.loc 10 74 0
	lwz 30,0(3)
.LVL832:
.LBB3754:
.LBB3755:
.LBB3756:
	.loc 6 98 0
	bl _ZdlPv
.LVL833:
.LBE3756:
.LBE3755:
.LBE3754:
.LBE3753:
	.loc 10 71 0
	cmpw 7,30,29
	beq- 7,.L585
	.loc 10 74 0
	mr 3,30
	b .L615
.LVL834:
.L552:
.LBE3752:
.LBE3751:
.LBE3750:
.LBE3749:
.LBE3748:
.LBE3747:
.LBE3766:
.LBE3771:
.LBE3776:
.LBE3781:
.LBE3786:
.LBE3795:
.LBB3796:
.LBB3678:
.LBB3669:
.LBB3660:
.LBB3652:
.LBB3644:
.LBB3626:
.LBB3627:
.LBB3628:
.LBB3629:
.LBB3630:
.LBB3631:
	.loc 1 105 0
	lis 9,_ZTVN7sigslot15single_threadedE+8@ha
.LBE3631:
.LBE3630:
.LBE3629:
.LBE3628:
.LBE3627:
.LBE3626:
.LBE3644:
.LBE3652:
.LBE3660:
.LBE3669:
.LBE3678:
.LBE3796:
	.loc 2 89 0
	addi 3,28,4
.LBB3797:
.LBB3679:
.LBB3670:
.LBB3661:
.LBB3653:
.LBB3645:
.LBB3637:
.LBB3636:
.LBB3635:
.LBB3634:
.LBB3633:
.LBB3632:
	.loc 1 105 0
	la 0,_ZTVN7sigslot15single_threadedE+8@l(9)
	stw 0,16(28)
.LBE3632:
.LBE3633:
.LBE3634:
.LBE3635:
.LBE3636:
.LBE3637:
.LBE3645:
.LBE3653:
.LBE3661:
.LBE3670:
.LBE3679:
.LBE3797:
	.loc 2 89 0
	bl _ZN7sigslot7signal2IP10GuiElementbNS_15single_threadedEED1Ev
	mr 3,31
.LEHB50:
	bl _Unwind_Resume
.LVL835:
.L585:
.LBB3798:
.LBB3787:
.LBB3782:
.LBB3777:
.LBB3772:
.LBB3767:
.LBB3757:
.LBB3758:
.LBB3759:
.LBB3760:
.LBB3761:
.LBB3762:
	.loc 1 105 0
	stw 26,4(28)
	mr 3,31
	bl _Unwind_Resume
.LEHE50:
.LVL836:
.L601:
	mr 31,3
	b .L568
.LVL837:
.L600:
.LBE3762:
.LBE3761:
.LBE3760:
.LBE3759:
.LBE3758:
.LBE3757:
.LBE3767:
.LBE3772:
.LBE3777:
.LBE3782:
.LBE3787:
.LBE3798:
.LBB3799:
.LBB3680:
.LBB3671:
.LBB3662:
.LBB3654:
.LBB3646:
.LBB3638:
.LBB3586:
.LBB3580:
.LBB3581:
.LBB3582:
	.loc 1 343 0
	lwz 9,16(28)
	mr 31,3
.LVL838:
	mr 3,27
	lwz 0,12(9)
	mtctr 0
	bctrl
	b .L535
.LBE3582:
.LBE3581:
.LBE3580:
.LBE3586:
.LBE3638:
.LBE3646:
.LBE3654:
.LBE3662:
.LBE3671:
.LBE3680:
.LBE3799:
.LBE3803:
.LBE3807:
.LBE3811:
	.cfi_endproc
.LFE1383:
	.section	.gcc_except_table
.LLSDA1383:
	.byte	0xff
	.byte	0xff
	.byte	0x1
	.uleb128 .LLSDACSE1383-.LLSDACSB1383
.LLSDACSB1383:
	.uleb128 .LEHB44-.LFB1383
	.uleb128 .LEHE44-.LEHB44
	.uleb128 .L599-.LFB1383
	.uleb128 0
	.uleb128 .LEHB45-.LFB1383
	.uleb128 .LEHE45-.LEHB45
	.uleb128 .L600-.LFB1383
	.uleb128 0
	.uleb128 .LEHB46-.LFB1383
	.uleb128 .LEHE46-.LEHB46
	.uleb128 .L599-.LFB1383
	.uleb128 0
	.uleb128 .LEHB47-.LFB1383
	.uleb128 .LEHE47-.LEHB47
	.uleb128 .L601-.LFB1383
	.uleb128 0
	.uleb128 .LEHB48-.LFB1383
	.uleb128 .LEHE48-.LEHB48
	.uleb128 .L602-.LFB1383
	.uleb128 0
	.uleb128 .LEHB49-.LFB1383
	.uleb128 .LEHE49-.LEHB49
	.uleb128 .L601-.LFB1383
	.uleb128 0
	.uleb128 .LEHB50-.LFB1383
	.uleb128 .LEHE50-.LEHB50
	.uleb128 0
	.uleb128 0
.LLSDACSE1383:
	.section	.text._ZN10GuiElementD0Ev,"axG",@progbits,_ZN10GuiElementD5Ev,comdat
	.size	_ZN10GuiElementD0Ev, .-_ZN10GuiElementD0Ev
	.section	.text._ZN7sigslot13_signal_base2IP10GuiElementbNS_15single_threadedEED2Ev,"axG",@progbits,_ZN7sigslot13_signal_base2IP10GuiElementbNS_15single_threadedEED5Ev,comdat
	.align 2
	.weak	_ZN7sigslot13_signal_base2IP10GuiElementbNS_15single_threadedEED2Ev
	.type	_ZN7sigslot13_signal_base2IP10GuiElementbNS_15single_threadedEED2Ev, @function
_ZN7sigslot13_signal_base2IP10GuiElementbNS_15single_threadedEED2Ev:
.LFB1468:
	.loc 1 823 0
	.cfi_startproc
	.cfi_personality 0,__gxx_personality_v0
	.cfi_lsda 0,.LLSDA1468
.LVL839:
	mflr 0
	stwu 1,-40(1)
.LCFI72:
	.cfi_def_cfa_offset 40
	.cfi_register 65, 0
.LBB3958:
	.loc 1 826 0
	lis 9,_ZTVN7sigslot13_signal_base2IP10GuiElementbNS_15single_threadedEEE+8@ha
.LBE3958:
	.loc 1 823 0
	stw 28,24(1)
	mr 28,3
	.cfi_offset 28, -16
	stw 0,44(1)
.LBB4041:
	.loc 1 826 0
	la 0,_ZTVN7sigslot13_signal_base2IP10GuiElementbNS_15single_threadedEEE+8@l(9)
	.cfi_offset 65, 4
.LBE4041:
	.loc 1 823 0
	stw 29,28(1)
	addi 29,3,4
	.cfi_offset 29, -12
	stw 30,32(1)
	stw 31,36(1)
.LBB4042:
	.loc 1 826 0
	stw 0,0(3)
.LVL840:
.LEHB51:
.LBB3959:
.LBB3960:
.LBB3961:
.LBB3962:
	.loc 1 338 0
	.cfi_offset 31, -4
	.cfi_offset 30, -8
	bl _ZN7sigslot15single_threaded4lockEv
.LEHE51:
.LVL841:
.LBE3962:
.LBE3961:
.LBE3960:
	.loc 3 302 0
	mr 29,28
	lwzu 31,4(29)
.LVL842:
.LBB3993:
	.loc 1 834 0
	cmpw 7,31,29
	beq- 7,.L617
.LVL843:
.L654:
	.loc 1 836 0
	lwz 3,8(31)
	lwz 9,0(3)
	lwz 0,8(9)
	mtctr 0
.LEHB52:
	bctrl
.LBB3963:
.LBB3964:
.LBB3965:
.LBB3966:
	.loc 1 338 0
	lwz 9,0(3)
.LBE3966:
.LBE3965:
.LBE3964:
.LBE3963:
	.loc 1 836 0
	mr 30,3
.LVL844:
	stw 28,8(1)
.LVL845:
.LBB3975:
.LBB3974:
.LBB3968:
.LBB3967:
	.loc 1 338 0
	lwz 0,8(9)
	mtctr 0
	bctrl
.LVL846:
.LBE3967:
.LBE3968:
.LBB3969:
.LBB3970:
	.loc 9 528 0
	addi 3,30,4
	addi 4,1,8
	bl _ZNSt8_Rb_treeIPN7sigslot12_signal_baseINS0_15single_threadedEEES4_St9_IdentityIS4_ESt4lessIS4_ESaIS4_EE5eraseERKS4_
.LVL847:
.LBE3970:
.LBE3969:
.LBB3971:
.LBB3972:
.LBB3973:
	.loc 1 343 0
	lwz 9,0(30)
	mr 3,30
	lwz 0,12(9)
	mtctr 0
	bctrl
.LVL848:
.LBE3973:
.LBE3972:
.LBE3971:
.LBE3974:
.LBE3975:
	.loc 1 837 0
	lwz 3,8(31)
	cmpwi 7,3,0
	beq- 7,.L619
	lwz 9,0(3)
	lwz 0,4(9)
	mtctr 0
	bctrl
.LEHE52:
.L619:
.LVL849:
.LBB3976:
.LBB3977:
	.loc 4 234 0
	lwz 31,0(31)
.LVL850:
.LBE3977:
.LBE3976:
	.loc 1 834 0
	cmpw 7,29,31
	bne+ 7,.L654
.LBE3993:
	.loc 3 302 0
	lwz 31,4(28)
.LVL851:
.LBB3994:
.LBB3978:
.LBB3979:
	.loc 4 1162 0
	cmpw 7,29,31
	bne+ 7,.L656
	b .L617
.LVL852:
.L649:
	.loc 4 1163 0
	mr 31,30
.LVL853:
.L656:
.LBB3980:
.LBB3981:
	.loc 10 112 0
	lwz 30,0(31)
.LVL854:
.LBB3982:
.LBB3983:
	.loc 4 1532 0
	mr 3,31
	bl _ZNSt8__detail15_List_node_base9_M_unhookEv
.LVL855:
.LBB3984:
.LBB3985:
.LBB3986:
	.loc 6 98 0
	mr 3,31
	bl _ZdlPv
.LVL856:
.LBE3986:
.LBE3985:
.LBE3984:
.LBE3983:
.LBE3982:
.LBE3981:
.LBE3980:
	.loc 4 1162 0
	cmpw 7,29,30
	bne+ 7,.L649
.LVL857:
.L617:
.LBE3979:
.LBE3978:
.LBB3987:
.LBB3988:
.LBB3989:
	.loc 1 343 0
	lwz 9,0(28)
	mr 3,28
	lwz 0,12(9)
	mtctr 0
.LEHB53:
	bctrl
.LEHE53:
.LVL858:
.LBE3989:
.LBE3988:
.LBE3987:
.LBE3994:
.LBE3959:
.LBB3996:
.LBB3997:
.LBB3998:
.LBB3999:
.LBB4000:
.LBB4001:
	.loc 10 70 0
	lwz 3,4(28)
.LVL859:
	.loc 10 71 0
	cmpw 7,3,29
	bne+ 7,.L658
	b .L635
.LVL860:
.L650:
	.loc 10 74 0
	mr 3,31
.LVL861:
.L658:
.LBB4002:
	lwz 31,0(3)
.LVL862:
.LBB4003:
.LBB4004:
.LBB4005:
	.loc 6 98 0
	bl _ZdlPv
.LVL863:
.LBE4005:
.LBE4004:
.LBE4003:
.LBE4002:
	.loc 10 71 0
	cmpw 7,31,29
	bne+ 7,.L650
.LVL864:
.L635:
.LBE4001:
.LBE4000:
.LBE3999:
.LBE3998:
.LBE3997:
.LBE3996:
.LBB4006:
.LBB4007:
.LBB4008:
.LBB4009:
.LBB4010:
.LBB4011:
	.loc 1 105 0
	lis 9,_ZTVN7sigslot15single_threadedE+8@ha
.LBE4011:
.LBE4010:
.LBE4009:
.LBE4008:
.LBE4007:
.LBE4006:
.LBE4042:
	.loc 1 826 0
	lwz 29,28(1)
.LVL865:
.LBB4043:
.LBB4022:
.LBB4020:
.LBB4018:
.LBB4016:
.LBB4014:
.LBB4012:
	.loc 1 105 0
	la 0,_ZTVN7sigslot15single_threadedE+8@l(9)
.LBE4012:
.LBE4014:
.LBE4016:
.LBE4018:
.LBE4020:
.LBE4022:
.LBE4043:
	.loc 1 826 0
	lwz 30,32(1)
.LBB4044:
.LBB4023:
.LBB4021:
.LBB4019:
.LBB4017:
.LBB4015:
.LBB4013:
	.loc 1 105 0
	stw 0,0(28)
.LBE4013:
.LBE4015:
.LBE4017:
.LBE4019:
.LBE4021:
.LBE4023:
.LBE4044:
	.loc 1 826 0
	lwz 0,44(1)
	lwz 28,24(1)
.LVL866:
	mtlr 0
	lwz 31,36(1)
	addi 1,1,40
	.cfi_remember_state
.LCFI73:
	.cfi_def_cfa_offset 0
	.cfi_restore 31
	.cfi_restore 30
	.cfi_restore 29
	.cfi_restore 28
	blr
.LVL867:
.L652:
.LCFI74:
	.cfi_restore_state
	mr 31,3
.L627:
.LVL868:
.LBB4045:
.LBB4024:
.LBB4025:
.LBB4026:
.LBB4027:
.LBB4028:
.LBB4029:
	.loc 10 70 0
	lwz 3,4(28)
.LVL869:
	.loc 10 71 0
	cmpw 7,3,29
	beq- 7,.L646
.LVL870:
.L659:
.LBB4030:
	.loc 10 74 0
	lwz 30,0(3)
.LVL871:
.LBB4031:
.LBB4032:
.LBB4033:
	.loc 6 98 0
	bl _ZdlPv
.LVL872:
.LBE4033:
.LBE4032:
.LBE4031:
.LBE4030:
	.loc 10 71 0
	cmpw 7,30,29
	beq- 7,.L646
	.loc 10 74 0
	mr 3,30
	b .L659
.LVL873:
.L653:
.LBE4029:
.LBE4028:
.LBE4027:
.LBE4026:
.LBE4025:
.LBE4024:
.LBB4034:
.LBB3995:
.LBB3990:
.LBB3991:
.LBB3992:
	.loc 1 343 0
	lwz 9,0(28)
	mr 31,3
.LVL874:
	mr 3,28
	lwz 0,12(9)
	mtctr 0
	bctrl
	b .L627
.LVL875:
.L646:
.LBE3992:
.LBE3991:
.LBE3990:
.LBE3995:
.LBE4034:
.LBB4035:
.LBB4036:
.LBB4037:
.LBB4038:
.LBB4039:
.LBB4040:
	.loc 1 105 0
	lis 9,_ZTVN7sigslot15single_threadedE+8@ha
	mr 3,31
	la 0,_ZTVN7sigslot15single_threadedE+8@l(9)
	stw 0,0(28)
.LEHB54:
	bl _Unwind_Resume
.LEHE54:
.LBE4040:
.LBE4039:
.LBE4038:
.LBE4037:
.LBE4036:
.LBE4035:
.LBE4045:
	.cfi_endproc
.LFE1468:
	.section	.gcc_except_table
.LLSDA1468:
	.byte	0xff
	.byte	0xff
	.byte	0x1
	.uleb128 .LLSDACSE1468-.LLSDACSB1468
.LLSDACSB1468:
	.uleb128 .LEHB51-.LFB1468
	.uleb128 .LEHE51-.LEHB51
	.uleb128 .L652-.LFB1468
	.uleb128 0
	.uleb128 .LEHB52-.LFB1468
	.uleb128 .LEHE52-.LEHB52
	.uleb128 .L653-.LFB1468
	.uleb128 0
	.uleb128 .LEHB53-.LFB1468
	.uleb128 .LEHE53-.LEHB53
	.uleb128 .L652-.LFB1468
	.uleb128 0
	.uleb128 .LEHB54-.LFB1468
	.uleb128 .LEHE54-.LEHB54
	.uleb128 0
	.uleb128 0
.LLSDACSE1468:
	.section	.text._ZN7sigslot13_signal_base2IP10GuiElementbNS_15single_threadedEED2Ev,"axG",@progbits,_ZN7sigslot13_signal_base2IP10GuiElementbNS_15single_threadedEED5Ev,comdat
	.size	_ZN7sigslot13_signal_base2IP10GuiElementbNS_15single_threadedEED2Ev, .-_ZN7sigslot13_signal_base2IP10GuiElementbNS_15single_threadedEED2Ev
	.section	.text._ZN10GuiElementD2Ev,"axG",@progbits,_ZN10GuiElementD5Ev,comdat
	.align 2
	.weak	_ZN10GuiElementD2Ev
	.type	_ZN10GuiElementD2Ev, @function
_ZN10GuiElementD2Ev:
.LFB1381:
	.loc 2 89 0
	.cfi_startproc
	.cfi_personality 0,__gxx_personality_v0
	.cfi_lsda 0,.LLSDA1381
.LVL876:
	mflr 0
	stwu 1,-48(1)
.LCFI75:
	.cfi_def_cfa_offset 48
	.cfi_register 65, 0
.LBB4248:
	lis 9,_ZTV10GuiElement+8@ha
.LBE4248:
	stw 27,28(1)
.LBB4510:
.LBB4249:
.LBB4250:
.LBB4251:
	.loc 1 2305 0
	addi 27,3,16
	.cfi_offset 27, -20
.LBE4251:
.LBE4250:
.LBE4249:
.LBE4510:
	.loc 2 89 0
	stw 0,52(1)
.LBB4511:
	la 0,_ZTV10GuiElement+8@l(9)
	.cfi_offset 65, 4
.LBB4385:
.LBB4376:
.LBB4367:
.LBB4252:
.LBB4253:
.LBB4254:
	.loc 1 946 0
	lis 9,_ZTVN7sigslot13_signal_base3IP10GuiElementiiNS_15single_threadedEEE+8@ha
.LBE4254:
.LBE4253:
.LBE4252:
.LBE4367:
.LBE4376:
.LBE4385:
.LBE4511:
	.loc 2 89 0
	stw 28,32(1)
	stw 29,36(1)
	mr 28,3
	.cfi_offset 29, -12
	.cfi_offset 28, -16
	stw 26,24(1)
	addi 29,28,20
	stw 30,40(1)
	stw 31,44(1)
.LBB4512:
	.loc 2 89 0
	stw 0,0(3)
.LVL877:
.LBB4386:
.LBB4377:
.LBB4368:
.LBB4359:
.LBB4351:
.LBB4343:
	.loc 1 946 0
	la 0,_ZTVN7sigslot13_signal_base3IP10GuiElementiiNS_15single_threadedEEE+8@l(9)
.LBB4255:
.LBB4256:
.LBB4257:
.LBB4258:
	.loc 1 338 0
	lis 9,_ZN7sigslot15single_threaded4lockEv@ha
.LBE4258:
.LBE4257:
.LBE4256:
.LBE4255:
	.loc 1 946 0
	stw 0,16(3)
.LVL878:
.LBB4291:
.LBB4287:
.LBB4260:
.LBB4259:
	.loc 1 338 0
	la 9,_ZN7sigslot15single_threaded4lockEv@l(9)
	mr 3,27
.LVL879:
	mtctr 9
.LEHB55:
	.cfi_offset 31, -4
	.cfi_offset 30, -8
	.cfi_offset 26, -24
	bctrl
.LEHE55:
.LBE4259:
.LBE4260:
.LBE4287:
	.loc 3 302 0
	mr 29,28
	lwzu 31,20(29)
.LVL880:
.LBB4288:
	.loc 1 954 0
	cmpw 7,31,29
	beq- 7,.L662
.LVL881:
.L740:
	.loc 1 956 0
	lwz 3,8(31)
	lwz 9,0(3)
	lwz 0,8(9)
	mtctr 0
.LEHB56:
	bctrl
	stw 27,8(1)
	mr 30,3
.LVL882:
.LBB4261:
.LBB4262:
.LBB4263:
.LBB4264:
	.loc 1 338 0
	lwz 9,0(3)
	lwz 0,8(9)
	mtctr 0
	bctrl
.LVL883:
.LBE4264:
.LBE4263:
.LBB4265:
.LBB4266:
	.loc 9 528 0
	addi 3,30,4
	addi 4,1,8
	bl _ZNSt8_Rb_treeIPN7sigslot12_signal_baseINS0_15single_threadedEEES4_St9_IdentityIS4_ESt4lessIS4_ESaIS4_EE5eraseERKS4_
.LVL884:
.LBE4266:
.LBE4265:
.LBB4267:
.LBB4268:
.LBB4269:
	.loc 1 343 0
	lwz 9,0(30)
	mr 3,30
	lwz 0,12(9)
	mtctr 0
	bctrl
.LVL885:
.LBE4269:
.LBE4268:
.LBE4267:
.LBE4262:
.LBE4261:
	.loc 1 957 0
	lwz 3,8(31)
	cmpwi 7,3,0
	beq- 7,.L664
	lwz 9,0(3)
	lwz 0,4(9)
	mtctr 0
	bctrl
.LEHE56:
.L664:
.LVL886:
.LBB4270:
.LBB4271:
	.loc 4 234 0
	lwz 31,0(31)
.LVL887:
.LBE4271:
.LBE4270:
	.loc 1 954 0
	cmpw 7,29,31
	bne+ 7,.L740
.LBE4288:
	.loc 3 302 0
	lwz 31,20(28)
.LVL888:
.LBB4289:
.LBB4272:
.LBB4273:
	.loc 4 1162 0
	cmpw 7,29,31
	bne+ 7,.L743
	b .L662
.LVL889:
.L729:
	.loc 4 1163 0
	mr 31,30
.LVL890:
.L743:
.LBB4274:
.LBB4275:
	.loc 10 112 0
	lwz 30,0(31)
.LVL891:
.LBB4276:
.LBB4277:
	.loc 4 1532 0
	mr 3,31
	bl _ZNSt8__detail15_List_node_base9_M_unhookEv
.LVL892:
.LBB4278:
.LBB4279:
.LBB4280:
	.loc 6 98 0
	mr 3,31
	bl _ZdlPv
.LVL893:
.LBE4280:
.LBE4279:
.LBE4278:
.LBE4277:
.LBE4276:
.LBE4275:
.LBE4274:
	.loc 4 1162 0
	cmpw 7,29,30
	bne+ 7,.L729
.LVL894:
.L662:
.LBE4273:
.LBE4272:
.LBB4281:
.LBB4282:
.LBB4283:
	.loc 1 343 0
	lwz 9,16(28)
	mr 3,27
	lwz 0,12(9)
	mtctr 0
.LEHB57:
	bctrl
.LEHE57:
.LBE4283:
.LBE4282:
.LBE4281:
.LBE4289:
.LBE4291:
.LBB4292:
.LBB4293:
.LBB4294:
.LBB4295:
.LBB4296:
.LBB4297:
	.loc 10 70 0
	lwz 3,20(28)
.LVL895:
	.loc 10 71 0
	cmpw 7,3,29
	bne+ 7,.L745
	b .L680
.LVL896:
.L730:
	.loc 10 74 0
	mr 3,31
.LVL897:
.L745:
.LBB4298:
	lwz 31,0(3)
.LVL898:
.LBB4299:
.LBB4300:
.LBB4301:
	.loc 6 98 0
	bl _ZdlPv
.LVL899:
.LBE4301:
.LBE4300:
.LBE4299:
.LBE4298:
	.loc 10 71 0
	cmpw 7,31,29
	bne+ 7,.L730
.LVL900:
.L680:
.LBE4297:
.LBE4296:
.LBE4295:
.LBE4294:
.LBE4293:
.LBE4292:
.LBE4343:
.LBE4351:
.LBE4359:
.LBE4368:
.LBE4377:
.LBE4386:
.LBB4387:
.LBB4388:
.LBB4389:
.LBB4390:
.LBB4391:
.LBB4392:
	.loc 1 826 0
	lis 9,_ZTVN7sigslot13_signal_base2IP10GuiElementbNS_15single_threadedEEE+8@ha
.LBE4392:
.LBE4391:
.LBE4390:
.LBE4389:
.LBE4388:
.LBE4387:
.LBB4497:
.LBB4378:
.LBB4369:
.LBB4360:
.LBB4352:
.LBB4344:
.LBB4302:
.LBB4303:
.LBB4304:
.LBB4305:
.LBB4306:
.LBB4307:
	.loc 1 105 0
	lis 26,_ZTVN7sigslot15single_threadedE+8@ha
.LBE4307:
.LBE4306:
.LBE4305:
.LBE4304:
.LBE4303:
.LBE4302:
.LBE4344:
.LBE4352:
.LBE4360:
.LBE4369:
.LBE4378:
.LBE4497:
.LBB4498:
.LBB4491:
.LBB4485:
.LBB4479:
.LBB4473:
.LBB4467:
	.loc 1 826 0
	la 0,_ZTVN7sigslot13_signal_base2IP10GuiElementbNS_15single_threadedEEE+8@l(9)
.LBB4393:
.LBB4394:
.LBB4395:
.LBB4396:
	.loc 1 338 0
	lis 9,_ZN7sigslot15single_threaded4lockEv@ha
.LBE4396:
.LBE4395:
.LBE4394:
.LBE4393:
.LBE4467:
.LBE4473:
.LBE4479:
.LBE4485:
.LBE4491:
.LBE4498:
.LBB4499:
.LBB4379:
.LBB4370:
.LBB4361:
.LBB4353:
.LBB4345:
.LBB4318:
.LBB4316:
.LBB4314:
.LBB4312:
.LBB4310:
.LBB4308:
	.loc 1 105 0
	la 26,_ZTVN7sigslot15single_threadedE+8@l(26)
.LBE4308:
.LBE4310:
.LBE4312:
.LBE4314:
.LBE4316:
.LBE4318:
.LBE4345:
.LBE4353:
.LBE4361:
.LBE4370:
.LBE4379:
.LBE4499:
.LBB4500:
.LBB4492:
.LBB4486:
	.loc 1 2238 0
	addi 27,28,4
.LVL901:
.LBB4480:
.LBB4474:
.LBB4468:
.LBB4432:
.LBB4427:
.LBB4399:
.LBB4397:
	.loc 1 338 0
	la 9,_ZN7sigslot15single_threaded4lockEv@l(9)
.LBE4397:
.LBE4399:
.LBE4427:
.LBE4432:
.LBE4468:
.LBE4474:
.LBE4480:
.LBE4486:
.LBE4492:
.LBE4500:
.LBB4501:
.LBB4380:
.LBB4371:
.LBB4362:
.LBB4354:
.LBB4346:
.LBB4319:
.LBB4317:
.LBB4315:
.LBB4313:
.LBB4311:
.LBB4309:
	.loc 1 105 0
	stw 26,16(28)
.LVL902:
.LBE4309:
.LBE4311:
.LBE4313:
.LBE4315:
.LBE4317:
.LBE4319:
.LBE4346:
.LBE4354:
.LBE4362:
.LBE4371:
.LBE4380:
.LBE4501:
.LBB4502:
.LBB4493:
.LBB4487:
.LBB4481:
.LBB4475:
.LBB4469:
	.loc 1 826 0
	stw 0,4(28)
.LVL903:
.LBB4433:
.LBB4428:
.LBB4400:
.LBB4398:
	.loc 1 338 0
	mr 3,27
	mtctr 9
	addi 29,28,8
.LVL904:
.LEHB58:
	bctrl
.LEHE58:
.LBE4398:
.LBE4400:
.LBE4428:
	.loc 3 302 0
	mr 29,28
	lwzu 31,8(29)
.LVL905:
.LBB4429:
	.loc 1 834 0
	cmpw 7,31,29
	beq- 7,.L695
.LVL906:
.L739:
	.loc 1 836 0
	lwz 3,8(31)
	lwz 9,0(3)
	lwz 0,8(9)
	mtctr 0
.LEHB59:
	bctrl
	stw 27,8(1)
	mr 30,3
.LVL907:
.LBB4401:
.LBB4402:
.LBB4403:
.LBB4404:
	.loc 1 338 0
	lwz 9,0(3)
	lwz 0,8(9)
	mtctr 0
	bctrl
.LVL908:
.LBE4404:
.LBE4403:
.LBB4405:
.LBB4406:
	.loc 9 528 0
	addi 3,30,4
	addi 4,1,8
.LVL909:
	bl _ZNSt8_Rb_treeIPN7sigslot12_signal_baseINS0_15single_threadedEEES4_St9_IdentityIS4_ESt4lessIS4_ESaIS4_EE5eraseERKS4_
.LVL910:
.LBE4406:
.LBE4405:
.LBB4407:
.LBB4408:
.LBB4409:
	.loc 1 343 0
	lwz 9,0(30)
	mr 3,30
	lwz 0,12(9)
	mtctr 0
	bctrl
.LVL911:
.LBE4409:
.LBE4408:
.LBE4407:
.LBE4402:
.LBE4401:
	.loc 1 837 0
	lwz 3,8(31)
	cmpwi 7,3,0
	beq- 7,.L697
	lwz 9,0(3)
	lwz 0,4(9)
	mtctr 0
	bctrl
.LEHE59:
.L697:
.LVL912:
.LBB4410:
.LBB4411:
	.loc 4 234 0
	lwz 31,0(31)
.LVL913:
.LBE4411:
.LBE4410:
	.loc 1 834 0
	cmpw 7,29,31
	bne+ 7,.L739
.LBE4429:
	.loc 3 302 0
	lwz 31,8(28)
.LVL914:
.LBB4430:
.LBB4412:
.LBB4413:
	.loc 4 1162 0
	cmpw 7,29,31
	bne+ 7,.L748
	b .L695
.LVL915:
.L732:
	.loc 4 1163 0
	mr 31,30
.LVL916:
.L748:
.LBB4414:
.LBB4415:
	.loc 10 112 0
	lwz 30,0(31)
.LVL917:
.LBB4416:
.LBB4417:
	.loc 4 1532 0
	mr 3,31
	bl _ZNSt8__detail15_List_node_base9_M_unhookEv
.LVL918:
.LBB4418:
.LBB4419:
.LBB4420:
	.loc 6 98 0
	mr 3,31
	bl _ZdlPv
.LVL919:
.LBE4420:
.LBE4419:
.LBE4418:
.LBE4417:
.LBE4416:
.LBE4415:
.LBE4414:
	.loc 4 1162 0
	cmpw 7,29,30
	bne+ 7,.L732
.LVL920:
.L695:
.LBE4413:
.LBE4412:
.LBB4421:
.LBB4422:
.LBB4423:
	.loc 1 343 0
	lwz 9,4(28)
	mr 3,27
	lwz 0,12(9)
	mtctr 0
.LEHB60:
	bctrl
.LEHE60:
.LBE4423:
.LBE4422:
.LBE4421:
.LBE4430:
.LBE4433:
.LBB4434:
.LBB4435:
.LBB4436:
.LBB4437:
.LBB4438:
.LBB4439:
	.loc 10 70 0
	lwz 3,8(28)
.LVL921:
	.loc 10 71 0
	cmpw 7,3,29
	bne+ 7,.L750
	b .L713
.LVL922:
.L733:
	.loc 10 74 0
	mr 3,31
.LVL923:
.L750:
.LBB4440:
	lwz 31,0(3)
.LVL924:
.LBB4441:
.LBB4442:
.LBB4443:
	.loc 6 98 0
	bl _ZdlPv
.LVL925:
.LBE4443:
.LBE4442:
.LBE4441:
.LBE4440:
	.loc 10 71 0
	cmpw 7,31,29
	bne+ 7,.L733
.LVL926:
.L713:
.LBE4439:
.LBE4438:
.LBE4437:
.LBE4436:
.LBE4435:
.LBE4434:
.LBE4469:
.LBE4475:
.LBE4481:
.LBE4487:
.LBE4493:
.LBE4502:
.LBE4512:
	.loc 2 89 0
	lwz 0,52(1)
.LBB4513:
.LBB4503:
.LBB4494:
.LBB4488:
.LBB4482:
.LBB4476:
.LBB4470:
.LBB4444:
.LBB4445:
.LBB4446:
.LBB4447:
.LBB4448:
.LBB4449:
	.loc 1 105 0
	stw 26,4(28)
.LBE4449:
.LBE4448:
.LBE4447:
.LBE4446:
.LBE4445:
.LBE4444:
.LBE4470:
.LBE4476:
.LBE4482:
.LBE4488:
.LBE4494:
.LBE4503:
.LBE4513:
	.loc 2 89 0
	mtlr 0
	lwz 26,24(1)
	lwz 27,28(1)
.LVL927:
	lwz 28,32(1)
.LVL928:
	lwz 29,36(1)
.LVL929:
	lwz 30,40(1)
	lwz 31,44(1)
	addi 1,1,48
	.cfi_remember_state
.LCFI76:
	.cfi_def_cfa_offset 0
	.cfi_restore 31
	.cfi_restore 30
	.cfi_restore 29
	.cfi_restore 28
	.cfi_restore 27
	.cfi_restore 26
	blr
.LVL930:
.L735:
.LCFI77:
	.cfi_restore_state
	mr 31,3
.L672:
.LBB4514:
.LBB4504:
.LBB4381:
.LBB4372:
.LBB4363:
.LBB4355:
.LBB4347:
.LBB4320:
.LBB4321:
.LBB4322:
.LBB4323:
.LBB4324:
.LBB4325:
	.loc 10 70 0
	lwz 3,20(28)
.LVL931:
	.loc 10 71 0
	cmpw 7,3,29
	beq- 7,.L689
.LVL932:
.L747:
.LBB4326:
	.loc 10 74 0
	lwz 30,0(3)
.LVL933:
.LBB4327:
.LBB4328:
.LBB4329:
	.loc 6 98 0
	bl _ZdlPv
.LVL934:
.LBE4329:
.LBE4328:
.LBE4327:
.LBE4326:
	.loc 10 71 0
	cmpw 7,30,29
	beq- 7,.L689
	.loc 10 74 0
	mr 3,30
	b .L747
.LVL935:
.L738:
.LBE4325:
.LBE4324:
.LBE4323:
.LBE4322:
.LBE4321:
.LBE4320:
.LBE4347:
.LBE4355:
.LBE4363:
.LBE4372:
.LBE4381:
.LBE4504:
.LBB4505:
.LBB4495:
.LBB4489:
.LBB4483:
.LBB4477:
.LBB4471:
.LBB4450:
.LBB4431:
.LBB4424:
.LBB4425:
.LBB4426:
	.loc 1 343 0
	lwz 9,4(28)
	mr 31,3
.LVL936:
	mr 3,27
	lwz 0,12(9)
	mtctr 0
	bctrl
.LVL937:
.L705:
.LBE4426:
.LBE4425:
.LBE4424:
.LBE4431:
.LBE4450:
.LBB4451:
.LBB4452:
.LBB4453:
.LBB4454:
.LBB4455:
.LBB4456:
	.loc 10 70 0
	lwz 3,8(28)
.LVL938:
	.loc 10 71 0
	cmpw 7,3,29
	beq- 7,.L722
.LVL939:
.L751:
.LBB4457:
	.loc 10 74 0
	lwz 30,0(3)
.LVL940:
.LBB4458:
.LBB4459:
.LBB4460:
	.loc 6 98 0
	bl _ZdlPv
.LVL941:
.LBE4460:
.LBE4459:
.LBE4458:
.LBE4457:
	.loc 10 71 0
	cmpw 7,30,29
	beq- 7,.L722
	.loc 10 74 0
	mr 3,30
	b .L751
.LVL942:
.L689:
.LBE4456:
.LBE4455:
.LBE4454:
.LBE4453:
.LBE4452:
.LBE4451:
.LBE4471:
.LBE4477:
.LBE4483:
.LBE4489:
.LBE4495:
.LBE4505:
.LBB4506:
.LBB4382:
.LBB4373:
.LBB4364:
.LBB4356:
.LBB4348:
.LBB4330:
.LBB4331:
.LBB4332:
.LBB4333:
.LBB4334:
.LBB4335:
	.loc 1 105 0
	lis 9,_ZTVN7sigslot15single_threadedE+8@ha
.LBE4335:
.LBE4334:
.LBE4333:
.LBE4332:
.LBE4331:
.LBE4330:
.LBE4348:
.LBE4356:
.LBE4364:
.LBE4373:
.LBE4382:
.LBE4506:
	.loc 2 89 0
	addi 3,28,4
.LBB4507:
.LBB4383:
.LBB4374:
.LBB4365:
.LBB4357:
.LBB4349:
.LBB4341:
.LBB4340:
.LBB4339:
.LBB4338:
.LBB4337:
.LBB4336:
	.loc 1 105 0
	la 0,_ZTVN7sigslot15single_threadedE+8@l(9)
	stw 0,16(28)
.LBE4336:
.LBE4337:
.LBE4338:
.LBE4339:
.LBE4340:
.LBE4341:
.LBE4349:
.LBE4357:
.LBE4365:
.LBE4374:
.LBE4383:
.LBE4507:
	.loc 2 89 0
	bl _ZN7sigslot7signal2IP10GuiElementbNS_15single_threadedEED1Ev
	mr 3,31
.LEHB61:
	bl _Unwind_Resume
.LVL943:
.L722:
.LBB4508:
.LBB4496:
.LBB4490:
.LBB4484:
.LBB4478:
.LBB4472:
.LBB4461:
.LBB4462:
.LBB4463:
.LBB4464:
.LBB4465:
.LBB4466:
	.loc 1 105 0
	stw 26,4(28)
	mr 3,31
	bl _Unwind_Resume
.LEHE61:
.LVL944:
.L737:
	mr 31,3
	b .L705
.LVL945:
.L736:
.LBE4466:
.LBE4465:
.LBE4464:
.LBE4463:
.LBE4462:
.LBE4461:
.LBE4472:
.LBE4478:
.LBE4484:
.LBE4490:
.LBE4496:
.LBE4508:
.LBB4509:
.LBB4384:
.LBB4375:
.LBB4366:
.LBB4358:
.LBB4350:
.LBB4342:
.LBB4290:
.LBB4284:
.LBB4285:
.LBB4286:
	.loc 1 343 0
	lwz 9,16(28)
	mr 31,3
.LVL946:
	mr 3,27
	lwz 0,12(9)
	mtctr 0
	bctrl
	b .L672
.LBE4286:
.LBE4285:
.LBE4284:
.LBE4290:
.LBE4342:
.LBE4350:
.LBE4358:
.LBE4366:
.LBE4375:
.LBE4384:
.LBE4509:
.LBE4514:
	.cfi_endproc
.LFE1381:
	.section	.gcc_except_table
.LLSDA1381:
	.byte	0xff
	.byte	0xff
	.byte	0x1
	.uleb128 .LLSDACSE1381-.LLSDACSB1381
.LLSDACSB1381:
	.uleb128 .LEHB55-.LFB1381
	.uleb128 .LEHE55-.LEHB55
	.uleb128 .L735-.LFB1381
	.uleb128 0
	.uleb128 .LEHB56-.LFB1381
	.uleb128 .LEHE56-.LEHB56
	.uleb128 .L736-.LFB1381
	.uleb128 0
	.uleb128 .LEHB57-.LFB1381
	.uleb128 .LEHE57-.LEHB57
	.uleb128 .L735-.LFB1381
	.uleb128 0
	.uleb128 .LEHB58-.LFB1381
	.uleb128 .LEHE58-.LEHB58
	.uleb128 .L737-.LFB1381
	.uleb128 0
	.uleb128 .LEHB59-.LFB1381
	.uleb128 .LEHE59-.LEHB59
	.uleb128 .L738-.LFB1381
	.uleb128 0
	.uleb128 .LEHB60-.LFB1381
	.uleb128 .LEHE60-.LEHB60
	.uleb128 .L737-.LFB1381
	.uleb128 0
	.uleb128 .LEHB61-.LFB1381
	.uleb128 .LEHE61-.LEHB61
	.uleb128 0
	.uleb128 0
.LLSDACSE1381:
	.section	.text._ZN10GuiElementD2Ev,"axG",@progbits,_ZN10GuiElementD5Ev,comdat
	.size	_ZN10GuiElementD2Ev, .-_ZN10GuiElementD2Ev
	.section	".text"
	.align 2
	.globl _ZN13GuiFrameImageC2Eii
	.type	_ZN13GuiFrameImageC2Eii, @function
_ZN13GuiFrameImageC2Eii:
.LFB1428:
	.loc 3 19 0
	.cfi_startproc
	.cfi_personality 0,__gxx_personality_v0
	.cfi_lsda 0,.LLSDA1428
.LVL947:
	mflr 0
	stwu 1,-24(1)
.LCFI78:
	.cfi_def_cfa_offset 24
	.cfi_register 65, 0
	stw 29,12(1)
	mr 29,5
	.cfi_offset 29, -12
	stw 0,28(1)
	stw 30,16(1)
	mr 30,4
	.cfi_offset 30, -8
	.cfi_offset 65, 4
	stw 31,20(1)
	.loc 3 19 0
	mr 31,3
	.cfi_offset 31, -4
.LEHB62:
.LBB4515:
	bl _ZN10GuiElementC2Ev
.LEHE62:
.LVL948:
	lis 10,_ZTV13GuiFrameImage+8@ha
	la 10,_ZTV13GuiFrameImage+8@l(10)
	.loc 3 27 0
	li 0,-1
	.loc 3 19 0
	stw 10,0(31)
	.loc 3 23 0
	li 10,6
	stw 10,144(31)
	.loc 3 24 0
	lis 10,.LC9@ha
	lwz 10,.LC9@l(10)
	.loc 3 32 0
	li 11,123
	.loc 3 33 0
	li 9,48
	.loc 3 27 0
	stb 0,167(31)
	.loc 3 24 0
	stw 10,148(31)
	.loc 3 25 0
	lis 10,.LC10@ha
	lwz 10,.LC10@l(10)
	.loc 3 36 0
	li 3,32
	.loc 3 28 0
	stb 0,171(31)
	.loc 3 36 0
	li 4,1216
	.loc 3 25 0
	stw 10,152(31)
	.loc 3 27 0
	li 10,-4
	stb 10,164(31)
	li 10,-3
	stb 10,165(31)
	li 10,-2
	stb 10,166(31)
	.loc 3 28 0
	li 10,-27
	stb 10,168(31)
	li 10,-23
	stb 10,169(31)
	li 10,-17
	stb 10,170(31)
	.loc 3 29 0
	li 10,-61
	stb 10,172(31)
	li 10,-56
	stb 10,173(31)
	li 10,-48
	stb 10,174(31)
	.loc 3 30 0
	li 10,-58
	stb 10,176(31)
	li 10,-55
	stb 10,177(31)
	li 10,-49
	stb 10,178(31)
	.loc 3 31 0
	li 10,-84
	stb 10,180(31)
	li 10,-80
	stb 10,181(31)
	li 10,-74
	.loc 3 29 0
	stb 0,175(31)
	.loc 3 30 0
	stb 0,179(31)
	.loc 3 31 0
	stb 0,183(31)
	.loc 3 32 0
	stb 0,187(31)
	.loc 3 21 0
	stw 30,36(31)
	.loc 3 22 0
	stw 29,40(31)
	.loc 3 31 0
	stb 10,182(31)
	.loc 3 32 0
	stb 11,184(31)
	stb 11,185(31)
	stb 11,186(31)
	.loc 3 33 0
	stb 9,188(31)
	stb 9,189(31)
	stb 0,191(31)
	.loc 3 35 0
	li 0,1152
	.loc 3 33 0
	stb 9,190(31)
	.loc 3 35 0
	stw 0,160(31)
.LEHB63:
	.loc 3 36 0
	bl memalign
	stw 3,156(31)
	.loc 3 37 0
	mr 3,31
	bl _ZN13GuiFrameImage14CreateDrawListEv
.LEHE63:
.LBE4515:
	.loc 3 38 0
	lwz 0,28(1)
	lwz 29,12(1)
.LVL949:
	mtlr 0
	lwz 30,16(1)
.LVL950:
	lwz 31,20(1)
.LVL951:
	addi 1,1,24
	.cfi_remember_state
.LCFI79:
	.cfi_def_cfa_offset 0
	.cfi_restore 31
	.cfi_restore 30
	.cfi_restore 29
	blr
.LVL952:
.L754:
.LCFI80:
	.cfi_restore_state
	mr 30,3
.LVL953:
.LBB4516:
	.loc 3 19 0
	mr 3,31
	bl _ZN10GuiElementD2Ev
	mr 3,30
.LEHB64:
	bl _Unwind_Resume
.LEHE64:
.LBE4516:
	.cfi_endproc
.LFE1428:
	.section	.gcc_except_table
.LLSDA1428:
	.byte	0xff
	.byte	0xff
	.byte	0x1
	.uleb128 .LLSDACSE1428-.LLSDACSB1428
.LLSDACSB1428:
	.uleb128 .LEHB62-.LFB1428
	.uleb128 .LEHE62-.LEHB62
	.uleb128 0
	.uleb128 0
	.uleb128 .LEHB63-.LFB1428
	.uleb128 .LEHE63-.LEHB63
	.uleb128 .L754-.LFB1428
	.uleb128 0
	.uleb128 .LEHB64-.LFB1428
	.uleb128 .LEHE64-.LEHB64
	.uleb128 0
	.uleb128 0
.LLSDACSE1428:
	.section	".text"
	.size	_ZN13GuiFrameImageC2Eii, .-_ZN13GuiFrameImageC2Eii
	.section	.text._ZN7sigslot13_signal_base2IP10GuiElementbNS_15single_threadedEED0Ev,"axG",@progbits,_ZN7sigslot13_signal_base2IP10GuiElementbNS_15single_threadedEED5Ev,comdat
	.align 2
	.weak	_ZN7sigslot13_signal_base2IP10GuiElementbNS_15single_threadedEED0Ev
	.type	_ZN7sigslot13_signal_base2IP10GuiElementbNS_15single_threadedEED0Ev, @function
_ZN7sigslot13_signal_base2IP10GuiElementbNS_15single_threadedEED0Ev:
.LFB1470:
	.loc 1 823 0
	.cfi_startproc
	.cfi_personality 0,__gxx_personality_v0
	.cfi_lsda 0,.LLSDA1470
.LVL954:
	mflr 0
	stwu 1,-40(1)
.LCFI81:
	.cfi_def_cfa_offset 40
	.cfi_register 65, 0
.LBB4612:
.LBB4613:
.LBB4614:
	.loc 1 826 0
	lis 9,_ZTVN7sigslot13_signal_base2IP10GuiElementbNS_15single_threadedEEE+8@ha
.LBE4614:
.LBE4613:
.LBE4612:
	.loc 1 823 0
	stw 28,24(1)
	mr 28,3
	.cfi_offset 28, -16
.LVL955:
	stw 0,44(1)
.LBB4699:
.LBB4695:
.LBB4691:
	.loc 1 826 0
	la 0,_ZTVN7sigslot13_signal_base2IP10GuiElementbNS_15single_threadedEEE+8@l(9)
	.cfi_offset 65, 4
.LBE4691:
.LBE4695:
.LBE4699:
	.loc 1 823 0
	stw 29,28(1)
	addi 29,3,4
	.cfi_offset 29, -12
	stw 30,32(1)
	stw 31,36(1)
.LBB4700:
.LBB4696:
.LBB4692:
	.loc 1 826 0
	stw 0,0(3)
.LVL956:
.LEHB65:
.LBB4615:
.LBB4616:
.LBB4617:
.LBB4618:
	.loc 1 338 0
	.cfi_offset 31, -4
	.cfi_offset 30, -8
	bl _ZN7sigslot15single_threaded4lockEv
.LEHE65:
.LVL957:
.LBE4618:
.LBE4617:
.LBE4616:
	.loc 3 302 0
	mr 29,28
.LVL958:
	lwzu 31,4(29)
.LVL959:
.LBB4649:
	.loc 1 834 0
	cmpw 7,31,29
	beq- 7,.L757
.LVL960:
.L795:
	.loc 1 836 0
	lwz 3,8(31)
	lwz 9,0(3)
	lwz 0,8(9)
	mtctr 0
.LEHB66:
	bctrl
.LBB4619:
.LBB4620:
.LBB4621:
.LBB4622:
	.loc 1 338 0
	lwz 9,0(3)
.LBE4622:
.LBE4621:
.LBE4620:
.LBE4619:
	.loc 1 836 0
	mr 30,3
.LVL961:
	stw 28,8(1)
.LVL962:
.LBB4631:
.LBB4630:
.LBB4624:
.LBB4623:
	.loc 1 338 0
	lwz 0,8(9)
	mtctr 0
	bctrl
.LVL963:
.LBE4623:
.LBE4624:
.LBB4625:
.LBB4626:
	.loc 9 528 0
	addi 3,30,4
	addi 4,1,8
	bl _ZNSt8_Rb_treeIPN7sigslot12_signal_baseINS0_15single_threadedEEES4_St9_IdentityIS4_ESt4lessIS4_ESaIS4_EE5eraseERKS4_
.LVL964:
.LBE4626:
.LBE4625:
.LBB4627:
.LBB4628:
.LBB4629:
	.loc 1 343 0
	lwz 9,0(30)
	mr 3,30
	lwz 0,12(9)
	mtctr 0
	bctrl
.LVL965:
.LBE4629:
.LBE4628:
.LBE4627:
.LBE4630:
.LBE4631:
	.loc 1 837 0
	lwz 3,8(31)
	cmpwi 7,3,0
	beq- 7,.L759
	lwz 9,0(3)
	lwz 0,4(9)
	mtctr 0
	bctrl
.LEHE66:
.L759:
.LVL966:
.LBB4632:
.LBB4633:
	.loc 4 234 0
	lwz 31,0(31)
.LVL967:
.LBE4633:
.LBE4632:
	.loc 1 834 0
	cmpw 7,29,31
	bne+ 7,.L795
.LBE4649:
	.loc 3 302 0
	lwz 31,4(28)
.LVL968:
.LBB4650:
.LBB4634:
.LBB4635:
	.loc 4 1162 0
	cmpw 7,29,31
	bne+ 7,.L797
	b .L757
.LVL969:
.L790:
	.loc 4 1163 0
	mr 31,30
.LVL970:
.L797:
.LBB4636:
.LBB4637:
	.loc 10 112 0
	lwz 30,0(31)
.LVL971:
.LBB4638:
.LBB4639:
	.loc 4 1532 0
	mr 3,31
	bl _ZNSt8__detail15_List_node_base9_M_unhookEv
.LVL972:
.LBB4640:
.LBB4641:
.LBB4642:
	.loc 6 98 0
	mr 3,31
	bl _ZdlPv
.LVL973:
.LBE4642:
.LBE4641:
.LBE4640:
.LBE4639:
.LBE4638:
.LBE4637:
.LBE4636:
	.loc 4 1162 0
	cmpw 7,29,30
	bne+ 7,.L790
.LVL974:
.L757:
.LBE4635:
.LBE4634:
.LBB4643:
.LBB4644:
.LBB4645:
	.loc 1 343 0
	lwz 9,0(28)
	mr 3,28
	lwz 0,12(9)
	mtctr 0
.LEHB67:
	bctrl
.LEHE67:
.LVL975:
.LBE4645:
.LBE4644:
.LBE4643:
.LBE4650:
.LBE4615:
.LBB4652:
.LBB4653:
.LBB4654:
.LBB4655:
.LBB4656:
.LBB4657:
	.loc 10 70 0
	lwz 3,4(28)
.LVL976:
	.loc 10 71 0
	cmpw 7,3,29
	bne+ 7,.L799
	b .L775
.LVL977:
.L791:
	.loc 10 74 0
	mr 3,31
.LVL978:
.L799:
.LBB4658:
	lwz 31,0(3)
.LVL979:
.LBB4659:
.LBB4660:
.LBB4661:
	.loc 6 98 0
	bl _ZdlPv
.LVL980:
.LBE4661:
.LBE4660:
.LBE4659:
.LBE4658:
	.loc 10 71 0
	cmpw 7,31,29
	bne+ 7,.L791
.LVL981:
.L775:
.LBE4657:
.LBE4656:
.LBE4655:
.LBE4654:
.LBE4653:
.LBE4652:
.LBB4662:
.LBB4663:
.LBB4664:
.LBB4665:
.LBB4666:
.LBB4667:
	.loc 1 105 0
	lis 9,_ZTVN7sigslot15single_threadedE+8@ha
.LBE4667:
.LBE4666:
.LBE4665:
.LBE4664:
.LBE4663:
.LBE4662:
.LBE4692:
.LBE4696:
.LBE4700:
	.loc 1 826 0
	mr 3,28
.LBB4701:
.LBB4697:
.LBB4693:
.LBB4673:
.LBB4672:
.LBB4671:
.LBB4670:
.LBB4669:
.LBB4668:
	.loc 1 105 0
	la 0,_ZTVN7sigslot15single_threadedE+8@l(9)
	stw 0,0(28)
.LBE4668:
.LBE4669:
.LBE4670:
.LBE4671:
.LBE4672:
.LBE4673:
.LBE4693:
.LBE4697:
.LBE4701:
	.loc 1 826 0
	bl _ZdlPv
	lwz 0,44(1)
	lwz 28,24(1)
.LVL982:
	mtlr 0
	lwz 29,28(1)
.LVL983:
	lwz 30,32(1)
	lwz 31,36(1)
	addi 1,1,40
	.cfi_remember_state
.LCFI82:
	.cfi_def_cfa_offset 0
	.cfi_restore 31
	.cfi_restore 30
	.cfi_restore 29
	.cfi_restore 28
	blr
.LVL984:
.L793:
.LCFI83:
	.cfi_restore_state
	mr 31,3
.L767:
.LVL985:
.LBB4702:
.LBB4698:
.LBB4694:
.LBB4674:
.LBB4675:
.LBB4676:
.LBB4677:
.LBB4678:
.LBB4679:
	.loc 10 70 0
	lwz 3,4(28)
.LVL986:
	.loc 10 71 0
	cmpw 7,3,29
	beq- 7,.L784
.LVL987:
.L800:
.LBB4680:
	.loc 10 74 0
	lwz 30,0(3)
.LVL988:
.LBB4681:
.LBB4682:
.LBB4683:
	.loc 6 98 0
	bl _ZdlPv
.LVL989:
.LBE4683:
.LBE4682:
.LBE4681:
.LBE4680:
	.loc 10 71 0
	cmpw 7,30,29
	beq- 7,.L784
	.loc 10 74 0
	mr 3,30
	b .L800
.LVL990:
.L794:
.LBE4679:
.LBE4678:
.LBE4677:
.LBE4676:
.LBE4675:
.LBE4674:
.LBB4684:
.LBB4651:
.LBB4646:
.LBB4647:
.LBB4648:
	.loc 1 343 0
	lwz 9,0(28)
	mr 31,3
.LVL991:
	mr 3,28
	lwz 0,12(9)
	mtctr 0
	bctrl
	b .L767
.LVL992:
.L784:
.LBE4648:
.LBE4647:
.LBE4646:
.LBE4651:
.LBE4684:
.LBB4685:
.LBB4686:
.LBB4687:
.LBB4688:
.LBB4689:
.LBB4690:
	.loc 1 105 0
	lis 9,_ZTVN7sigslot15single_threadedE+8@ha
	mr 3,31
	la 0,_ZTVN7sigslot15single_threadedE+8@l(9)
	stw 0,0(28)
.LEHB68:
	bl _Unwind_Resume
.LEHE68:
.LBE4690:
.LBE4689:
.LBE4688:
.LBE4687:
.LBE4686:
.LBE4685:
.LBE4694:
.LBE4698:
.LBE4702:
	.cfi_endproc
.LFE1470:
	.section	.gcc_except_table
.LLSDA1470:
	.byte	0xff
	.byte	0xff
	.byte	0x1
	.uleb128 .LLSDACSE1470-.LLSDACSB1470
.LLSDACSB1470:
	.uleb128 .LEHB65-.LFB1470
	.uleb128 .LEHE65-.LEHB65
	.uleb128 .L793-.LFB1470
	.uleb128 0
	.uleb128 .LEHB66-.LFB1470
	.uleb128 .LEHE66-.LEHB66
	.uleb128 .L794-.LFB1470
	.uleb128 0
	.uleb128 .LEHB67-.LFB1470
	.uleb128 .LEHE67-.LEHB67
	.uleb128 .L793-.LFB1470
	.uleb128 0
	.uleb128 .LEHB68-.LFB1470
	.uleb128 .LEHE68-.LEHB68
	.uleb128 0
	.uleb128 0
.LLSDACSE1470:
	.section	.text._ZN7sigslot13_signal_base2IP10GuiElementbNS_15single_threadedEED0Ev,"axG",@progbits,_ZN7sigslot13_signal_base2IP10GuiElementbNS_15single_threadedEED5Ev,comdat
	.size	_ZN7sigslot13_signal_base2IP10GuiElementbNS_15single_threadedEED0Ev, .-_ZN7sigslot13_signal_base2IP10GuiElementbNS_15single_threadedEED0Ev
	.section	".text"
	.align 2
	.globl _ZN13GuiFrameImageD0Ev
	.type	_ZN13GuiFrameImageD0Ev, @function
_ZN13GuiFrameImageD0Ev:
.LFB1433:
	.loc 3 40 0
	.cfi_startproc
	.cfi_personality 0,__gxx_personality_v0
	.cfi_lsda 0,.LLSDA1433
.LVL993:
	mflr 0
	stwu 1,-48(1)
.LCFI84:
	.cfi_def_cfa_offset 48
	.cfi_register 65, 0
.LBB4907:
.LBB4908:
.LBB4909:
	lis 9,_ZTV13GuiFrameImage+8@ha
.LBE4909:
.LBE4908:
.LBE4907:
	stw 28,32(1)
	mr 28,3
	.cfi_offset 28, -16
.LVL994:
	stw 0,52(1)
.LBB5182:
.LBB5178:
.LBB5174:
	la 0,_ZTV13GuiFrameImage+8@l(9)
	.cfi_offset 65, 4
.LBE5174:
.LBE5178:
.LBE5182:
	stw 27,28(1)
.LBB5183:
.LBB5179:
.LBB5175:
.LBB4910:
.LBB4911:
.LBB4912:
.LBB4913:
.LBB4914:
.LBB4915:
	.loc 1 2305 0
	addi 27,28,16
	.cfi_offset 27, -20
.LBE4915:
.LBE4914:
.LBE4913:
.LBE4912:
.LBE4911:
.LBE4910:
.LBE5175:
.LBE5179:
.LBE5183:
	.loc 3 40 0
	stw 29,36(1)
	addi 29,28,20
	.cfi_offset 29, -12
	stw 26,24(1)
	stw 30,40(1)
	stw 31,44(1)
.LBB5184:
.LBB5180:
.LBB5176:
	.loc 3 42 0
	lwz 3,156(3)
.LVL995:
	.loc 3 40 0
	stw 0,0(28)
	.loc 3 42 0
	.cfi_offset 31, -4
	.cfi_offset 30, -8
	.cfi_offset 26, -24
	bl free
.LVL996:
.LBB5172:
.LBB5170:
.LBB5168:
	.loc 2 89 0
	lis 9,_ZTV10GuiElement+8@ha
	la 0,_ZTV10GuiElement+8@l(9)
.LBB5049:
.LBB5040:
.LBB5031:
.LBB4916:
.LBB4917:
.LBB4918:
	.loc 1 946 0
	lis 9,_ZTVN7sigslot13_signal_base3IP10GuiElementiiNS_15single_threadedEEE+8@ha
.LBE4918:
.LBE4917:
.LBE4916:
.LBE5031:
.LBE5040:
.LBE5049:
	.loc 2 89 0
	stw 0,0(28)
.LVL997:
.LBB5050:
.LBB5041:
.LBB5032:
.LBB5023:
.LBB5015:
.LBB5007:
	.loc 1 946 0
	la 0,_ZTVN7sigslot13_signal_base3IP10GuiElementiiNS_15single_threadedEEE+8@l(9)
.LBB4919:
.LBB4920:
.LBB4921:
.LBB4922:
	.loc 1 338 0
	lis 9,_ZN7sigslot15single_threaded4lockEv@ha
.LBE4922:
.LBE4921:
.LBE4920:
.LBE4919:
	.loc 1 946 0
	stw 0,16(28)
.LVL998:
.LBB4955:
.LBB4951:
.LBB4924:
.LBB4923:
	.loc 1 338 0
	la 9,_ZN7sigslot15single_threaded4lockEv@l(9)
	mr 3,27
	mtctr 9
.LEHB69:
	bctrl
.LEHE69:
.LBE4923:
.LBE4924:
.LBE4951:
	.loc 3 302 0
	mr 29,28
.LVL999:
	lwzu 31,20(29)
.LVL1000:
.LBB4952:
	.loc 1 954 0
	cmpw 7,31,29
	beq- 7,.L803
.LVL1001:
.L883:
	.loc 1 956 0
	lwz 3,8(31)
	lwz 9,0(3)
	lwz 0,8(9)
	mtctr 0
.LEHB70:
	bctrl
	stw 27,8(1)
	mr 30,3
.LVL1002:
.LBB4925:
.LBB4926:
.LBB4927:
.LBB4928:
	.loc 1 338 0
	lwz 9,0(3)
	lwz 0,8(9)
	mtctr 0
	bctrl
.LVL1003:
.LBE4928:
.LBE4927:
.LBB4929:
.LBB4930:
	.loc 9 528 0
	addi 3,30,4
	addi 4,1,8
	bl _ZNSt8_Rb_treeIPN7sigslot12_signal_baseINS0_15single_threadedEEES4_St9_IdentityIS4_ESt4lessIS4_ESaIS4_EE5eraseERKS4_
.LVL1004:
.LBE4930:
.LBE4929:
.LBB4931:
.LBB4932:
.LBB4933:
	.loc 1 343 0
	lwz 9,0(30)
	mr 3,30
	lwz 0,12(9)
	mtctr 0
	bctrl
.LVL1005:
.LBE4933:
.LBE4932:
.LBE4931:
.LBE4926:
.LBE4925:
	.loc 1 957 0
	lwz 3,8(31)
	cmpwi 7,3,0
	beq- 7,.L805
	lwz 9,0(3)
	lwz 0,4(9)
	mtctr 0
	bctrl
.LEHE70:
.L805:
.LVL1006:
.LBB4934:
.LBB4935:
	.loc 4 234 0
	lwz 31,0(31)
.LVL1007:
.LBE4935:
.LBE4934:
	.loc 1 954 0
	cmpw 7,29,31
	bne+ 7,.L883
.LBE4952:
	.loc 3 302 0
	lwz 31,20(28)
.LVL1008:
.LBB4953:
.LBB4936:
.LBB4937:
	.loc 4 1162 0
	cmpw 7,29,31
	bne+ 7,.L886
	b .L803
.LVL1009:
.L872:
	.loc 4 1163 0
	mr 31,30
.LVL1010:
.L886:
.LBB4938:
.LBB4939:
	.loc 10 112 0
	lwz 30,0(31)
.LVL1011:
.LBB4940:
.LBB4941:
	.loc 4 1532 0
	mr 3,31
	bl _ZNSt8__detail15_List_node_base9_M_unhookEv
.LVL1012:
.LBB4942:
.LBB4943:
.LBB4944:
	.loc 6 98 0
	mr 3,31
	bl _ZdlPv
.LVL1013:
.LBE4944:
.LBE4943:
.LBE4942:
.LBE4941:
.LBE4940:
.LBE4939:
.LBE4938:
	.loc 4 1162 0
	cmpw 7,29,30
	bne+ 7,.L872
.LVL1014:
.L803:
.LBE4937:
.LBE4936:
.LBB4945:
.LBB4946:
.LBB4947:
	.loc 1 343 0
	lwz 9,16(28)
	mr 3,27
	lwz 0,12(9)
	mtctr 0
.LEHB71:
	bctrl
.LEHE71:
.LBE4947:
.LBE4946:
.LBE4945:
.LBE4953:
.LBE4955:
.LBB4956:
.LBB4957:
.LBB4958:
.LBB4959:
.LBB4960:
.LBB4961:
	.loc 10 70 0
	lwz 3,20(28)
.LVL1015:
	.loc 10 71 0
	cmpw 7,3,29
	bne+ 7,.L888
	b .L821
.LVL1016:
.L873:
	.loc 10 74 0
	mr 3,31
.LVL1017:
.L888:
.LBB4962:
	lwz 31,0(3)
.LVL1018:
.LBB4963:
.LBB4964:
.LBB4965:
	.loc 6 98 0
	bl _ZdlPv
.LVL1019:
.LBE4965:
.LBE4964:
.LBE4963:
.LBE4962:
	.loc 10 71 0
	cmpw 7,31,29
	bne+ 7,.L873
.LVL1020:
.L821:
.LBE4961:
.LBE4960:
.LBE4959:
.LBE4958:
.LBE4957:
.LBE4956:
.LBE5007:
.LBE5015:
.LBE5023:
.LBE5032:
.LBE5041:
.LBE5050:
.LBB5051:
.LBB5052:
.LBB5053:
.LBB5054:
.LBB5055:
.LBB5056:
	.loc 1 826 0
	lis 9,_ZTVN7sigslot13_signal_base2IP10GuiElementbNS_15single_threadedEEE+8@ha
.LBE5056:
.LBE5055:
.LBE5054:
.LBE5053:
.LBE5052:
.LBE5051:
.LBB5156:
.LBB5042:
.LBB5033:
.LBB5024:
.LBB5016:
.LBB5008:
.LBB4966:
.LBB4967:
.LBB4968:
.LBB4969:
.LBB4970:
.LBB4971:
	.loc 1 105 0
	lis 26,_ZTVN7sigslot15single_threadedE+8@ha
.LBE4971:
.LBE4970:
.LBE4969:
.LBE4968:
.LBE4967:
.LBE4966:
.LBE5008:
.LBE5016:
.LBE5024:
.LBE5033:
.LBE5042:
.LBE5156:
.LBB5157:
.LBB5151:
.LBB5146:
.LBB5141:
.LBB5136:
.LBB5131:
	.loc 1 826 0
	la 0,_ZTVN7sigslot13_signal_base2IP10GuiElementbNS_15single_threadedEEE+8@l(9)
.LBB5057:
.LBB5058:
.LBB5059:
.LBB5060:
	.loc 1 338 0
	lis 9,_ZN7sigslot15single_threaded4lockEv@ha
.LBE5060:
.LBE5059:
.LBE5058:
.LBE5057:
.LBE5131:
.LBE5136:
.LBE5141:
.LBE5146:
.LBE5151:
.LBE5157:
.LBB5158:
.LBB5043:
.LBB5034:
.LBB5025:
.LBB5017:
.LBB5009:
.LBB4982:
.LBB4980:
.LBB4978:
.LBB4976:
.LBB4974:
.LBB4972:
	.loc 1 105 0
	la 26,_ZTVN7sigslot15single_threadedE+8@l(26)
.LBE4972:
.LBE4974:
.LBE4976:
.LBE4978:
.LBE4980:
.LBE4982:
.LBE5009:
.LBE5017:
.LBE5025:
.LBE5034:
.LBE5043:
.LBE5158:
.LBB5159:
.LBB5152:
.LBB5147:
	.loc 1 2238 0
	addi 27,28,4
.LVL1021:
.LBB5142:
.LBB5137:
.LBB5132:
.LBB5096:
.LBB5091:
.LBB5063:
.LBB5061:
	.loc 1 338 0
	la 9,_ZN7sigslot15single_threaded4lockEv@l(9)
.LBE5061:
.LBE5063:
.LBE5091:
.LBE5096:
.LBE5132:
.LBE5137:
.LBE5142:
.LBE5147:
.LBE5152:
.LBE5159:
.LBB5160:
.LBB5044:
.LBB5035:
.LBB5026:
.LBB5018:
.LBB5010:
.LBB4983:
.LBB4981:
.LBB4979:
.LBB4977:
.LBB4975:
.LBB4973:
	.loc 1 105 0
	stw 26,16(28)
.LVL1022:
.LBE4973:
.LBE4975:
.LBE4977:
.LBE4979:
.LBE4981:
.LBE4983:
.LBE5010:
.LBE5018:
.LBE5026:
.LBE5035:
.LBE5044:
.LBE5160:
.LBB5161:
.LBB5153:
.LBB5148:
.LBB5143:
.LBB5138:
.LBB5133:
	.loc 1 826 0
	stw 0,4(28)
.LVL1023:
.LBB5097:
.LBB5092:
.LBB5064:
.LBB5062:
	.loc 1 338 0
	mr 3,27
	mtctr 9
	addi 29,28,8
.LVL1024:
.LEHB72:
	bctrl
.LEHE72:
.LBE5062:
.LBE5064:
.LBE5092:
	.loc 3 302 0
	mr 29,28
	lwzu 31,8(29)
.LVL1025:
.LBB5093:
	.loc 1 834 0
	cmpw 7,31,29
	beq- 7,.L836
.LVL1026:
.L882:
	.loc 1 836 0
	lwz 3,8(31)
	lwz 9,0(3)
	lwz 0,8(9)
	mtctr 0
.LEHB73:
	bctrl
	stw 27,8(1)
	mr 30,3
.LVL1027:
.LBB5065:
.LBB5066:
.LBB5067:
.LBB5068:
	.loc 1 338 0
	lwz 9,0(3)
	lwz 0,8(9)
	mtctr 0
	bctrl
.LVL1028:
.LBE5068:
.LBE5067:
.LBB5069:
.LBB5070:
	.loc 9 528 0
	addi 3,30,4
	addi 4,1,8
.LVL1029:
	bl _ZNSt8_Rb_treeIPN7sigslot12_signal_baseINS0_15single_threadedEEES4_St9_IdentityIS4_ESt4lessIS4_ESaIS4_EE5eraseERKS4_
.LVL1030:
.LBE5070:
.LBE5069:
.LBB5071:
.LBB5072:
.LBB5073:
	.loc 1 343 0
	lwz 9,0(30)
	mr 3,30
	lwz 0,12(9)
	mtctr 0
	bctrl
.LVL1031:
.LBE5073:
.LBE5072:
.LBE5071:
.LBE5066:
.LBE5065:
	.loc 1 837 0
	lwz 3,8(31)
	cmpwi 7,3,0
	beq- 7,.L838
	lwz 9,0(3)
	lwz 0,4(9)
	mtctr 0
	bctrl
.LEHE73:
.L838:
.LVL1032:
.LBB5074:
.LBB5075:
	.loc 4 234 0
	lwz 31,0(31)
.LVL1033:
.LBE5075:
.LBE5074:
	.loc 1 834 0
	cmpw 7,29,31
	bne+ 7,.L882
.LBE5093:
	.loc 3 302 0
	lwz 31,8(28)
.LVL1034:
.LBB5094:
.LBB5076:
.LBB5077:
	.loc 4 1162 0
	cmpw 7,29,31
	bne+ 7,.L891
	b .L836
.LVL1035:
.L875:
	.loc 4 1163 0
	mr 31,30
.LVL1036:
.L891:
.LBB5078:
.LBB5079:
	.loc 10 112 0
	lwz 30,0(31)
.LVL1037:
.LBB5080:
.LBB5081:
	.loc 4 1532 0
	mr 3,31
	bl _ZNSt8__detail15_List_node_base9_M_unhookEv
.LVL1038:
.LBB5082:
.LBB5083:
.LBB5084:
	.loc 6 98 0
	mr 3,31
	bl _ZdlPv
.LVL1039:
.LBE5084:
.LBE5083:
.LBE5082:
.LBE5081:
.LBE5080:
.LBE5079:
.LBE5078:
	.loc 4 1162 0
	cmpw 7,29,30
	bne+ 7,.L875
.LVL1040:
.L836:
.LBE5077:
.LBE5076:
.LBB5085:
.LBB5086:
.LBB5087:
	.loc 1 343 0
	lwz 9,4(28)
	mr 3,27
	lwz 0,12(9)
	mtctr 0
.LEHB74:
	bctrl
.LEHE74:
.LBE5087:
.LBE5086:
.LBE5085:
.LBE5094:
.LBE5097:
.LBB5098:
.LBB5099:
.LBB5100:
.LBB5101:
.LBB5102:
.LBB5103:
	.loc 10 70 0
	lwz 3,8(28)
.LVL1041:
	.loc 10 71 0
	cmpw 7,3,29
	bne+ 7,.L893
	b .L854
.LVL1042:
.L876:
	.loc 10 74 0
	mr 3,31
.LVL1043:
.L893:
.LBB5104:
	lwz 31,0(3)
.LVL1044:
.LBB5105:
.LBB5106:
.LBB5107:
	.loc 6 98 0
	bl _ZdlPv
.LVL1045:
.LBE5107:
.LBE5106:
.LBE5105:
.LBE5104:
	.loc 10 71 0
	cmpw 7,31,29
	bne+ 7,.L876
.LVL1046:
.L854:
.LBE5103:
.LBE5102:
.LBE5101:
.LBE5100:
.LBE5099:
.LBE5098:
.LBB5108:
.LBB5109:
.LBB5110:
.LBB5111:
.LBB5112:
.LBB5113:
	.loc 1 105 0
	stw 26,4(28)
.LBE5113:
.LBE5112:
.LBE5111:
.LBE5110:
.LBE5109:
.LBE5108:
.LBE5133:
.LBE5138:
.LBE5143:
.LBE5148:
.LBE5153:
.LBE5161:
.LBE5168:
.LBE5170:
.LBE5172:
.LBE5176:
.LBE5180:
.LBE5184:
	.loc 3 43 0
	mr 3,28
	bl _ZdlPv
	lwz 0,52(1)
	lwz 26,24(1)
	mtlr 0
	lwz 27,28(1)
.LVL1047:
	lwz 28,32(1)
.LVL1048:
	lwz 29,36(1)
.LVL1049:
	lwz 30,40(1)
	lwz 31,44(1)
	addi 1,1,48
	.cfi_remember_state
.LCFI85:
	.cfi_def_cfa_offset 0
	.cfi_restore 31
	.cfi_restore 30
	.cfi_restore 29
	.cfi_restore 28
	.cfi_restore 27
	.cfi_restore 26
	blr
.LVL1050:
.L878:
.LCFI86:
	.cfi_restore_state
	mr 31,3
.L813:
.LBB5185:
.LBB5181:
.LBB5177:
.LBB5173:
.LBB5171:
.LBB5169:
.LBB5162:
.LBB5045:
.LBB5036:
.LBB5027:
.LBB5019:
.LBB5011:
.LBB4984:
.LBB4985:
.LBB4986:
.LBB4987:
.LBB4988:
.LBB4989:
	.loc 10 70 0
	lwz 3,20(28)
.LVL1051:
	.loc 10 71 0
	cmpw 7,3,29
	beq- 7,.L830
.LVL1052:
.L890:
.LBB4990:
	.loc 10 74 0
	lwz 30,0(3)
.LVL1053:
.LBB4991:
.LBB4992:
.LBB4993:
	.loc 6 98 0
	bl _ZdlPv
.LVL1054:
.LBE4993:
.LBE4992:
.LBE4991:
.LBE4990:
	.loc 10 71 0
	cmpw 7,30,29
	beq- 7,.L830
	.loc 10 74 0
	mr 3,30
	b .L890
.LVL1055:
.L881:
.LBE4989:
.LBE4988:
.LBE4987:
.LBE4986:
.LBE4985:
.LBE4984:
.LBE5011:
.LBE5019:
.LBE5027:
.LBE5036:
.LBE5045:
.LBE5162:
.LBB5163:
.LBB5154:
.LBB5149:
.LBB5144:
.LBB5139:
.LBB5134:
.LBB5114:
.LBB5095:
.LBB5088:
.LBB5089:
.LBB5090:
	.loc 1 343 0
	lwz 9,4(28)
	mr 31,3
.LVL1056:
	mr 3,27
	lwz 0,12(9)
	mtctr 0
	bctrl
.LVL1057:
.L846:
.LBE5090:
.LBE5089:
.LBE5088:
.LBE5095:
.LBE5114:
.LBB5115:
.LBB5116:
.LBB5117:
.LBB5118:
.LBB5119:
.LBB5120:
	.loc 10 70 0
	lwz 3,8(28)
.LVL1058:
	.loc 10 71 0
	cmpw 7,3,29
	beq- 7,.L863
.LVL1059:
.L894:
.LBB5121:
	.loc 10 74 0
	lwz 30,0(3)
.LVL1060:
.LBB5122:
.LBB5123:
.LBB5124:
	.loc 6 98 0
	bl _ZdlPv
.LVL1061:
.LBE5124:
.LBE5123:
.LBE5122:
.LBE5121:
	.loc 10 71 0
	cmpw 7,30,29
	beq- 7,.L863
	.loc 10 74 0
	mr 3,30
	b .L894
.LVL1062:
.L830:
.LBE5120:
.LBE5119:
.LBE5118:
.LBE5117:
.LBE5116:
.LBE5115:
.LBE5134:
.LBE5139:
.LBE5144:
.LBE5149:
.LBE5154:
.LBE5163:
.LBB5164:
.LBB5046:
.LBB5037:
.LBB5028:
.LBB5020:
.LBB5012:
.LBB4994:
.LBB4995:
.LBB4996:
.LBB4997:
.LBB4998:
.LBB4999:
	.loc 1 105 0
	lis 9,_ZTVN7sigslot15single_threadedE+8@ha
.LBE4999:
.LBE4998:
.LBE4997:
.LBE4996:
.LBE4995:
.LBE4994:
.LBE5012:
.LBE5020:
.LBE5028:
.LBE5037:
.LBE5046:
.LBE5164:
	.loc 2 89 0
	addi 3,28,4
.LBB5165:
.LBB5047:
.LBB5038:
.LBB5029:
.LBB5021:
.LBB5013:
.LBB5005:
.LBB5004:
.LBB5003:
.LBB5002:
.LBB5001:
.LBB5000:
	.loc 1 105 0
	la 0,_ZTVN7sigslot15single_threadedE+8@l(9)
	stw 0,16(28)
.LBE5000:
.LBE5001:
.LBE5002:
.LBE5003:
.LBE5004:
.LBE5005:
.LBE5013:
.LBE5021:
.LBE5029:
.LBE5038:
.LBE5047:
.LBE5165:
	.loc 2 89 0
	bl _ZN7sigslot7signal2IP10GuiElementbNS_15single_threadedEED1Ev
	mr 3,31
.LEHB75:
	bl _Unwind_Resume
.LVL1063:
.L863:
.LBB5166:
.LBB5155:
.LBB5150:
.LBB5145:
.LBB5140:
.LBB5135:
.LBB5125:
.LBB5126:
.LBB5127:
.LBB5128:
.LBB5129:
.LBB5130:
	.loc 1 105 0
	stw 26,4(28)
	mr 3,31
	bl _Unwind_Resume
.LEHE75:
.LVL1064:
.L880:
	mr 31,3
	b .L846
.LVL1065:
.L879:
.LBE5130:
.LBE5129:
.LBE5128:
.LBE5127:
.LBE5126:
.LBE5125:
.LBE5135:
.LBE5140:
.LBE5145:
.LBE5150:
.LBE5155:
.LBE5166:
.LBB5167:
.LBB5048:
.LBB5039:
.LBB5030:
.LBB5022:
.LBB5014:
.LBB5006:
.LBB4954:
.LBB4948:
.LBB4949:
.LBB4950:
	.loc 1 343 0
	lwz 9,16(28)
	mr 31,3
.LVL1066:
	mr 3,27
	lwz 0,12(9)
	mtctr 0
	bctrl
	b .L813
.LBE4950:
.LBE4949:
.LBE4948:
.LBE4954:
.LBE5006:
.LBE5014:
.LBE5022:
.LBE5030:
.LBE5039:
.LBE5048:
.LBE5167:
.LBE5169:
.LBE5171:
.LBE5173:
.LBE5177:
.LBE5181:
.LBE5185:
	.cfi_endproc
.LFE1433:
	.section	.gcc_except_table
.LLSDA1433:
	.byte	0xff
	.byte	0xff
	.byte	0x1
	.uleb128 .LLSDACSE1433-.LLSDACSB1433
.LLSDACSB1433:
	.uleb128 .LEHB69-.LFB1433
	.uleb128 .LEHE69-.LEHB69
	.uleb128 .L878-.LFB1433
	.uleb128 0
	.uleb128 .LEHB70-.LFB1433
	.uleb128 .LEHE70-.LEHB70
	.uleb128 .L879-.LFB1433
	.uleb128 0
	.uleb128 .LEHB71-.LFB1433
	.uleb128 .LEHE71-.LEHB71
	.uleb128 .L878-.LFB1433
	.uleb128 0
	.uleb128 .LEHB72-.LFB1433
	.uleb128 .LEHE72-.LEHB72
	.uleb128 .L880-.LFB1433
	.uleb128 0
	.uleb128 .LEHB73-.LFB1433
	.uleb128 .LEHE73-.LEHB73
	.uleb128 .L881-.LFB1433
	.uleb128 0
	.uleb128 .LEHB74-.LFB1433
	.uleb128 .LEHE74-.LEHB74
	.uleb128 .L880-.LFB1433
	.uleb128 0
	.uleb128 .LEHB75-.LFB1433
	.uleb128 .LEHE75-.LEHB75
	.uleb128 0
	.uleb128 0
.LLSDACSE1433:
	.section	".text"
	.size	_ZN13GuiFrameImageD0Ev, .-_ZN13GuiFrameImageD0Ev
	.align 2
	.globl _ZN13GuiFrameImageD2Ev
	.type	_ZN13GuiFrameImageD2Ev, @function
_ZN13GuiFrameImageD2Ev:
.LFB1431:
	.loc 3 40 0
	.cfi_startproc
	.cfi_personality 0,__gxx_personality_v0
	.cfi_lsda 0,.LLSDA1431
.LVL1067:
	mflr 0
	stwu 1,-48(1)
.LCFI87:
	.cfi_def_cfa_offset 48
	.cfi_register 65, 0
.LBB5388:
	lis 9,_ZTV13GuiFrameImage+8@ha
.LBE5388:
	stw 28,32(1)
	mr 28,3
	.cfi_offset 28, -16
	stw 0,52(1)
.LBB5662:
	la 0,_ZTV13GuiFrameImage+8@l(9)
	.cfi_offset 65, 4
.LBE5662:
	stw 27,28(1)
.LBB5663:
.LBB5389:
.LBB5390:
.LBB5391:
.LBB5392:
.LBB5393:
.LBB5394:
	.loc 1 2305 0
	addi 27,28,16
	.cfi_offset 27, -20
.LBE5394:
.LBE5393:
.LBE5392:
.LBE5391:
.LBE5390:
.LBE5389:
.LBE5663:
	.loc 3 40 0
	stw 29,36(1)
	addi 29,28,20
	.cfi_offset 29, -12
	stw 26,24(1)
	stw 30,40(1)
	stw 31,44(1)
.LBB5664:
	.loc 3 42 0
	lwz 3,156(3)
.LVL1068:
	.loc 3 40 0
	stw 0,0(28)
	.loc 3 42 0
	.cfi_offset 31, -4
	.cfi_offset 30, -8
	.cfi_offset 26, -24
	bl free
.LVL1069:
.LBB5659:
.LBB5656:
.LBB5653:
	.loc 2 89 0
	lis 9,_ZTV10GuiElement+8@ha
	la 0,_ZTV10GuiElement+8@l(9)
.LBB5528:
.LBB5519:
.LBB5510:
.LBB5395:
.LBB5396:
.LBB5397:
	.loc 1 946 0
	lis 9,_ZTVN7sigslot13_signal_base3IP10GuiElementiiNS_15single_threadedEEE+8@ha
.LBE5397:
.LBE5396:
.LBE5395:
.LBE5510:
.LBE5519:
.LBE5528:
	.loc 2 89 0
	stw 0,0(28)
.LVL1070:
.LBB5529:
.LBB5520:
.LBB5511:
.LBB5502:
.LBB5494:
.LBB5486:
	.loc 1 946 0
	la 0,_ZTVN7sigslot13_signal_base3IP10GuiElementiiNS_15single_threadedEEE+8@l(9)
.LBB5398:
.LBB5399:
.LBB5400:
.LBB5401:
	.loc 1 338 0
	lis 9,_ZN7sigslot15single_threaded4lockEv@ha
.LBE5401:
.LBE5400:
.LBE5399:
.LBE5398:
	.loc 1 946 0
	stw 0,16(28)
.LVL1071:
.LBB5434:
.LBB5430:
.LBB5403:
.LBB5402:
	.loc 1 338 0
	la 9,_ZN7sigslot15single_threaded4lockEv@l(9)
	mr 3,27
	mtctr 9
.LEHB76:
	bctrl
.LEHE76:
.LBE5402:
.LBE5403:
.LBE5430:
	.loc 3 302 0
	mr 29,28
	lwzu 31,20(29)
.LVL1072:
.LBB5431:
	.loc 1 954 0
	cmpw 7,31,29
	beq- 7,.L897
.LVL1073:
.L976:
	.loc 1 956 0
	lwz 3,8(31)
	lwz 9,0(3)
	lwz 0,8(9)
	mtctr 0
.LEHB77:
	bctrl
	stw 27,8(1)
	mr 30,3
.LVL1074:
.LBB5404:
.LBB5405:
.LBB5406:
.LBB5407:
	.loc 1 338 0
	lwz 9,0(3)
	lwz 0,8(9)
	mtctr 0
	bctrl
.LVL1075:
.LBE5407:
.LBE5406:
.LBB5408:
.LBB5409:
	.loc 9 528 0
	addi 3,30,4
	addi 4,1,8
	bl _ZNSt8_Rb_treeIPN7sigslot12_signal_baseINS0_15single_threadedEEES4_St9_IdentityIS4_ESt4lessIS4_ESaIS4_EE5eraseERKS4_
.LVL1076:
.LBE5409:
.LBE5408:
.LBB5410:
.LBB5411:
.LBB5412:
	.loc 1 343 0
	lwz 9,0(30)
	mr 3,30
	lwz 0,12(9)
	mtctr 0
	bctrl
.LVL1077:
.LBE5412:
.LBE5411:
.LBE5410:
.LBE5405:
.LBE5404:
	.loc 1 957 0
	lwz 3,8(31)
	cmpwi 7,3,0
	beq- 7,.L899
	lwz 9,0(3)
	lwz 0,4(9)
	mtctr 0
	bctrl
.LEHE77:
.L899:
.LVL1078:
.LBB5413:
.LBB5414:
	.loc 4 234 0
	lwz 31,0(31)
.LVL1079:
.LBE5414:
.LBE5413:
	.loc 1 954 0
	cmpw 7,29,31
	bne+ 7,.L976
.LBE5431:
	.loc 3 302 0
	lwz 31,20(28)
.LVL1080:
.LBB5432:
.LBB5415:
.LBB5416:
	.loc 4 1162 0
	cmpw 7,29,31
	bne+ 7,.L979
	b .L897
.LVL1081:
.L965:
	.loc 4 1163 0
	mr 31,30
.LVL1082:
.L979:
.LBB5417:
.LBB5418:
	.loc 10 112 0
	lwz 30,0(31)
.LVL1083:
.LBB5419:
.LBB5420:
	.loc 4 1532 0
	mr 3,31
	bl _ZNSt8__detail15_List_node_base9_M_unhookEv
.LVL1084:
.LBB5421:
.LBB5422:
.LBB5423:
	.loc 6 98 0
	mr 3,31
	bl _ZdlPv
.LVL1085:
.LBE5423:
.LBE5422:
.LBE5421:
.LBE5420:
.LBE5419:
.LBE5418:
.LBE5417:
	.loc 4 1162 0
	cmpw 7,29,30
	bne+ 7,.L965
.LVL1086:
.L897:
.LBE5416:
.LBE5415:
.LBB5424:
.LBB5425:
.LBB5426:
	.loc 1 343 0
	lwz 9,16(28)
	mr 3,27
	lwz 0,12(9)
	mtctr 0
.LEHB78:
	bctrl
.LEHE78:
.LBE5426:
.LBE5425:
.LBE5424:
.LBE5432:
.LBE5434:
.LBB5435:
.LBB5436:
.LBB5437:
.LBB5438:
.LBB5439:
.LBB5440:
	.loc 10 70 0
	lwz 3,20(28)
.LVL1087:
	.loc 10 71 0
	cmpw 7,3,29
	bne+ 7,.L981
	b .L915
.LVL1088:
.L966:
	.loc 10 74 0
	mr 3,31
.LVL1089:
.L981:
.LBB5441:
	lwz 31,0(3)
.LVL1090:
.LBB5442:
.LBB5443:
.LBB5444:
	.loc 6 98 0
	bl _ZdlPv
.LVL1091:
.LBE5444:
.LBE5443:
.LBE5442:
.LBE5441:
	.loc 10 71 0
	cmpw 7,31,29
	bne+ 7,.L966
.LVL1092:
.L915:
.LBE5440:
.LBE5439:
.LBE5438:
.LBE5437:
.LBE5436:
.LBE5435:
.LBE5486:
.LBE5494:
.LBE5502:
.LBE5511:
.LBE5520:
.LBE5529:
.LBB5530:
.LBB5531:
.LBB5532:
.LBB5533:
.LBB5534:
.LBB5535:
	.loc 1 826 0
	lis 9,_ZTVN7sigslot13_signal_base2IP10GuiElementbNS_15single_threadedEEE+8@ha
.LBE5535:
.LBE5534:
.LBE5533:
.LBE5532:
.LBE5531:
.LBE5530:
.LBB5640:
.LBB5521:
.LBB5512:
.LBB5503:
.LBB5495:
.LBB5487:
.LBB5445:
.LBB5446:
.LBB5447:
.LBB5448:
.LBB5449:
.LBB5450:
	.loc 1 105 0
	lis 26,_ZTVN7sigslot15single_threadedE+8@ha
.LBE5450:
.LBE5449:
.LBE5448:
.LBE5447:
.LBE5446:
.LBE5445:
.LBE5487:
.LBE5495:
.LBE5503:
.LBE5512:
.LBE5521:
.LBE5640:
.LBB5641:
.LBB5634:
.LBB5628:
.LBB5622:
.LBB5616:
.LBB5610:
	.loc 1 826 0
	la 0,_ZTVN7sigslot13_signal_base2IP10GuiElementbNS_15single_threadedEEE+8@l(9)
.LBB5536:
.LBB5537:
.LBB5538:
.LBB5539:
	.loc 1 338 0
	lis 9,_ZN7sigslot15single_threaded4lockEv@ha
.LBE5539:
.LBE5538:
.LBE5537:
.LBE5536:
.LBE5610:
.LBE5616:
.LBE5622:
.LBE5628:
.LBE5634:
.LBE5641:
.LBB5642:
.LBB5522:
.LBB5513:
.LBB5504:
.LBB5496:
.LBB5488:
.LBB5461:
.LBB5459:
.LBB5457:
.LBB5455:
.LBB5453:
.LBB5451:
	.loc 1 105 0
	la 26,_ZTVN7sigslot15single_threadedE+8@l(26)
.LBE5451:
.LBE5453:
.LBE5455:
.LBE5457:
.LBE5459:
.LBE5461:
.LBE5488:
.LBE5496:
.LBE5504:
.LBE5513:
.LBE5522:
.LBE5642:
.LBB5643:
.LBB5635:
.LBB5629:
	.loc 1 2238 0
	addi 27,28,4
.LVL1093:
.LBB5623:
.LBB5617:
.LBB5611:
.LBB5575:
.LBB5570:
.LBB5542:
.LBB5540:
	.loc 1 338 0
	la 9,_ZN7sigslot15single_threaded4lockEv@l(9)
.LBE5540:
.LBE5542:
.LBE5570:
.LBE5575:
.LBE5611:
.LBE5617:
.LBE5623:
.LBE5629:
.LBE5635:
.LBE5643:
.LBB5644:
.LBB5523:
.LBB5514:
.LBB5505:
.LBB5497:
.LBB5489:
.LBB5462:
.LBB5460:
.LBB5458:
.LBB5456:
.LBB5454:
.LBB5452:
	.loc 1 105 0
	stw 26,16(28)
.LVL1094:
.LBE5452:
.LBE5454:
.LBE5456:
.LBE5458:
.LBE5460:
.LBE5462:
.LBE5489:
.LBE5497:
.LBE5505:
.LBE5514:
.LBE5523:
.LBE5644:
.LBB5645:
.LBB5636:
.LBB5630:
.LBB5624:
.LBB5618:
.LBB5612:
	.loc 1 826 0
	stw 0,4(28)
.LVL1095:
.LBB5576:
.LBB5571:
.LBB5543:
.LBB5541:
	.loc 1 338 0
	mr 3,27
	mtctr 9
	addi 29,28,8
.LVL1096:
.LEHB79:
	bctrl
.LEHE79:
.LBE5541:
.LBE5543:
.LBE5571:
	.loc 3 302 0
	mr 29,28
	lwzu 31,8(29)
.LVL1097:
.LBB5572:
	.loc 1 834 0
	cmpw 7,31,29
	beq- 7,.L930
.LVL1098:
.L975:
	.loc 1 836 0
	lwz 3,8(31)
	lwz 9,0(3)
	lwz 0,8(9)
	mtctr 0
.LEHB80:
	bctrl
	stw 27,8(1)
	mr 30,3
.LVL1099:
.LBB5544:
.LBB5545:
.LBB5546:
.LBB5547:
	.loc 1 338 0
	lwz 9,0(3)
	lwz 0,8(9)
	mtctr 0
	bctrl
.LVL1100:
.LBE5547:
.LBE5546:
.LBB5548:
.LBB5549:
	.loc 9 528 0
	addi 3,30,4
	addi 4,1,8
.LVL1101:
	bl _ZNSt8_Rb_treeIPN7sigslot12_signal_baseINS0_15single_threadedEEES4_St9_IdentityIS4_ESt4lessIS4_ESaIS4_EE5eraseERKS4_
.LVL1102:
.LBE5549:
.LBE5548:
.LBB5550:
.LBB5551:
.LBB5552:
	.loc 1 343 0
	lwz 9,0(30)
	mr 3,30
	lwz 0,12(9)
	mtctr 0
	bctrl
.LVL1103:
.LBE5552:
.LBE5551:
.LBE5550:
.LBE5545:
.LBE5544:
	.loc 1 837 0
	lwz 3,8(31)
	cmpwi 7,3,0
	beq- 7,.L932
	lwz 9,0(3)
	lwz 0,4(9)
	mtctr 0
	bctrl
.LEHE80:
.L932:
.LVL1104:
.LBB5553:
.LBB5554:
	.loc 4 234 0
	lwz 31,0(31)
.LVL1105:
.LBE5554:
.LBE5553:
	.loc 1 834 0
	cmpw 7,29,31
	bne+ 7,.L975
.LBE5572:
	.loc 3 302 0
	lwz 31,8(28)
.LVL1106:
.LBB5573:
.LBB5555:
.LBB5556:
	.loc 4 1162 0
	cmpw 7,29,31
	bne+ 7,.L984
	b .L930
.LVL1107:
.L968:
	.loc 4 1163 0
	mr 31,30
.LVL1108:
.L984:
.LBB5557:
.LBB5558:
	.loc 10 112 0
	lwz 30,0(31)
.LVL1109:
.LBB5559:
.LBB5560:
	.loc 4 1532 0
	mr 3,31
	bl _ZNSt8__detail15_List_node_base9_M_unhookEv
.LVL1110:
.LBB5561:
.LBB5562:
.LBB5563:
	.loc 6 98 0
	mr 3,31
	bl _ZdlPv
.LVL1111:
.LBE5563:
.LBE5562:
.LBE5561:
.LBE5560:
.LBE5559:
.LBE5558:
.LBE5557:
	.loc 4 1162 0
	cmpw 7,29,30
	bne+ 7,.L968
.LVL1112:
.L930:
.LBE5556:
.LBE5555:
.LBB5564:
.LBB5565:
.LBB5566:
	.loc 1 343 0
	lwz 9,4(28)
	mr 3,27
	lwz 0,12(9)
	mtctr 0
.LEHB81:
	bctrl
.LEHE81:
.LBE5566:
.LBE5565:
.LBE5564:
.LBE5573:
.LBE5576:
.LBB5577:
.LBB5578:
.LBB5579:
.LBB5580:
.LBB5581:
.LBB5582:
	.loc 10 70 0
	lwz 3,8(28)
.LVL1113:
	.loc 10 71 0
	cmpw 7,3,29
	bne+ 7,.L986
	b .L948
.LVL1114:
.L969:
	.loc 10 74 0
	mr 3,31
.LVL1115:
.L986:
.LBB5583:
	lwz 31,0(3)
.LVL1116:
.LBB5584:
.LBB5585:
.LBB5586:
	.loc 6 98 0
	bl _ZdlPv
.LVL1117:
.LBE5586:
.LBE5585:
.LBE5584:
.LBE5583:
	.loc 10 71 0
	cmpw 7,31,29
	bne+ 7,.L969
.LVL1118:
.L948:
.LBE5582:
.LBE5581:
.LBE5580:
.LBE5579:
.LBE5578:
.LBE5577:
.LBE5612:
.LBE5618:
.LBE5624:
.LBE5630:
.LBE5636:
.LBE5645:
.LBE5653:
.LBE5656:
.LBE5659:
.LBE5664:
	.loc 3 43 0
	lwz 0,52(1)
.LBB5665:
.LBB5660:
.LBB5657:
.LBB5654:
.LBB5646:
.LBB5637:
.LBB5631:
.LBB5625:
.LBB5619:
.LBB5613:
.LBB5587:
.LBB5588:
.LBB5589:
.LBB5590:
.LBB5591:
.LBB5592:
	.loc 1 105 0
	stw 26,4(28)
.LBE5592:
.LBE5591:
.LBE5590:
.LBE5589:
.LBE5588:
.LBE5587:
.LBE5613:
.LBE5619:
.LBE5625:
.LBE5631:
.LBE5637:
.LBE5646:
.LBE5654:
.LBE5657:
.LBE5660:
.LBE5665:
	.loc 3 43 0
	mtlr 0
	lwz 26,24(1)
	lwz 27,28(1)
.LVL1119:
	lwz 28,32(1)
.LVL1120:
	lwz 29,36(1)
.LVL1121:
	lwz 30,40(1)
	lwz 31,44(1)
	addi 1,1,48
	.cfi_remember_state
.LCFI88:
	.cfi_def_cfa_offset 0
	.cfi_restore 31
	.cfi_restore 30
	.cfi_restore 29
	.cfi_restore 28
	.cfi_restore 27
	.cfi_restore 26
	blr
.LVL1122:
.L971:
.LCFI89:
	.cfi_restore_state
	mr 31,3
.L907:
.LBB5666:
.LBB5661:
.LBB5658:
.LBB5655:
.LBB5647:
.LBB5524:
.LBB5515:
.LBB5506:
.LBB5498:
.LBB5490:
.LBB5463:
.LBB5464:
.LBB5465:
.LBB5466:
.LBB5467:
.LBB5468:
	.loc 10 70 0
	lwz 3,20(28)
.LVL1123:
	.loc 10 71 0
	cmpw 7,3,29
	beq- 7,.L924
.LVL1124:
.L983:
.LBB5469:
	.loc 10 74 0
	lwz 30,0(3)
.LVL1125:
.LBB5470:
.LBB5471:
.LBB5472:
	.loc 6 98 0
	bl _ZdlPv
.LVL1126:
.LBE5472:
.LBE5471:
.LBE5470:
.LBE5469:
	.loc 10 71 0
	cmpw 7,30,29
	beq- 7,.L924
	.loc 10 74 0
	mr 3,30
	b .L983
.LVL1127:
.L974:
.LBE5468:
.LBE5467:
.LBE5466:
.LBE5465:
.LBE5464:
.LBE5463:
.LBE5490:
.LBE5498:
.LBE5506:
.LBE5515:
.LBE5524:
.LBE5647:
.LBB5648:
.LBB5638:
.LBB5632:
.LBB5626:
.LBB5620:
.LBB5614:
.LBB5593:
.LBB5574:
.LBB5567:
.LBB5568:
.LBB5569:
	.loc 1 343 0
	lwz 9,4(28)
	mr 31,3
.LVL1128:
	mr 3,27
	lwz 0,12(9)
	mtctr 0
	bctrl
.LVL1129:
.L940:
.LBE5569:
.LBE5568:
.LBE5567:
.LBE5574:
.LBE5593:
.LBB5594:
.LBB5595:
.LBB5596:
.LBB5597:
.LBB5598:
.LBB5599:
	.loc 10 70 0
	lwz 3,8(28)
.LVL1130:
	.loc 10 71 0
	cmpw 7,3,29
	beq- 7,.L957
.LVL1131:
.L987:
.LBB5600:
	.loc 10 74 0
	lwz 30,0(3)
.LVL1132:
.LBB5601:
.LBB5602:
.LBB5603:
	.loc 6 98 0
	bl _ZdlPv
.LVL1133:
.LBE5603:
.LBE5602:
.LBE5601:
.LBE5600:
	.loc 10 71 0
	cmpw 7,30,29
	beq- 7,.L957
	.loc 10 74 0
	mr 3,30
	b .L987
.LVL1134:
.L924:
.LBE5599:
.LBE5598:
.LBE5597:
.LBE5596:
.LBE5595:
.LBE5594:
.LBE5614:
.LBE5620:
.LBE5626:
.LBE5632:
.LBE5638:
.LBE5648:
.LBB5649:
.LBB5525:
.LBB5516:
.LBB5507:
.LBB5499:
.LBB5491:
.LBB5473:
.LBB5474:
.LBB5475:
.LBB5476:
.LBB5477:
.LBB5478:
	.loc 1 105 0
	lis 9,_ZTVN7sigslot15single_threadedE+8@ha
.LBE5478:
.LBE5477:
.LBE5476:
.LBE5475:
.LBE5474:
.LBE5473:
.LBE5491:
.LBE5499:
.LBE5507:
.LBE5516:
.LBE5525:
.LBE5649:
	.loc 2 89 0
	addi 3,28,4
.LBB5650:
.LBB5526:
.LBB5517:
.LBB5508:
.LBB5500:
.LBB5492:
.LBB5484:
.LBB5483:
.LBB5482:
.LBB5481:
.LBB5480:
.LBB5479:
	.loc 1 105 0
	la 0,_ZTVN7sigslot15single_threadedE+8@l(9)
	stw 0,16(28)
.LBE5479:
.LBE5480:
.LBE5481:
.LBE5482:
.LBE5483:
.LBE5484:
.LBE5492:
.LBE5500:
.LBE5508:
.LBE5517:
.LBE5526:
.LBE5650:
	.loc 2 89 0
	bl _ZN7sigslot7signal2IP10GuiElementbNS_15single_threadedEED1Ev
	mr 3,31
.LEHB82:
	bl _Unwind_Resume
.LVL1135:
.L957:
.LBB5651:
.LBB5639:
.LBB5633:
.LBB5627:
.LBB5621:
.LBB5615:
.LBB5604:
.LBB5605:
.LBB5606:
.LBB5607:
.LBB5608:
.LBB5609:
	.loc 1 105 0
	stw 26,4(28)
	mr 3,31
	bl _Unwind_Resume
.LEHE82:
.LVL1136:
.L973:
	mr 31,3
	b .L940
.LVL1137:
.L972:
.LBE5609:
.LBE5608:
.LBE5607:
.LBE5606:
.LBE5605:
.LBE5604:
.LBE5615:
.LBE5621:
.LBE5627:
.LBE5633:
.LBE5639:
.LBE5651:
.LBB5652:
.LBB5527:
.LBB5518:
.LBB5509:
.LBB5501:
.LBB5493:
.LBB5485:
.LBB5433:
.LBB5427:
.LBB5428:
.LBB5429:
	.loc 1 343 0
	lwz 9,16(28)
	mr 31,3
.LVL1138:
	mr 3,27
	lwz 0,12(9)
	mtctr 0
	bctrl
	b .L907
.LBE5429:
.LBE5428:
.LBE5427:
.LBE5433:
.LBE5485:
.LBE5493:
.LBE5501:
.LBE5509:
.LBE5518:
.LBE5527:
.LBE5652:
.LBE5655:
.LBE5658:
.LBE5661:
.LBE5666:
	.cfi_endproc
.LFE1431:
	.section	.gcc_except_table
.LLSDA1431:
	.byte	0xff
	.byte	0xff
	.byte	0x1
	.uleb128 .LLSDACSE1431-.LLSDACSB1431
.LLSDACSB1431:
	.uleb128 .LEHB76-.LFB1431
	.uleb128 .LEHE76-.LEHB76
	.uleb128 .L971-.LFB1431
	.uleb128 0
	.uleb128 .LEHB77-.LFB1431
	.uleb128 .LEHE77-.LEHB77
	.uleb128 .L972-.LFB1431
	.uleb128 0
	.uleb128 .LEHB78-.LFB1431
	.uleb128 .LEHE78-.LEHB78
	.uleb128 .L971-.LFB1431
	.uleb128 0
	.uleb128 .LEHB79-.LFB1431
	.uleb128 .LEHE79-.LEHB79
	.uleb128 .L973-.LFB1431
	.uleb128 0
	.uleb128 .LEHB80-.LFB1431
	.uleb128 .LEHE80-.LEHB80
	.uleb128 .L974-.LFB1431
	.uleb128 0
	.uleb128 .LEHB81-.LFB1431
	.uleb128 .LEHE81-.LEHB81
	.uleb128 .L973-.LFB1431
	.uleb128 0
	.uleb128 .LEHB82-.LFB1431
	.uleb128 .LEHE82-.LEHB82
	.uleb128 0
	.uleb128 0
.LLSDACSE1431:
	.section	".text"
	.size	_ZN13GuiFrameImageD2Ev, .-_ZN13GuiFrameImageD2Ev
	.weak	_ZTS13GuiFrameImage
	.section	.rodata._ZTS13GuiFrameImage,"aG",@progbits,_ZTS13GuiFrameImage,comdat
	.align 2
	.type	_ZTS13GuiFrameImage, @object
	.size	_ZTS13GuiFrameImage, 16
_ZTS13GuiFrameImage:
	.string	"13GuiFrameImage"
	.weak	_ZTI13GuiFrameImage
	.section	.rodata._ZTI13GuiFrameImage,"aG",@progbits,_ZTI13GuiFrameImage,comdat
	.align 2
	.type	_ZTI13GuiFrameImage, @object
	.size	_ZTI13GuiFrameImage, 12
_ZTI13GuiFrameImage:
	.long	_ZTVN10__cxxabiv120__si_class_type_infoE+8
	.long	_ZTS13GuiFrameImage
	.long	_ZTI10GuiElement
	.weak	_ZTV13GuiFrameImage
	.section	.rodata._ZTV13GuiFrameImage,"aG",@progbits,_ZTV13GuiFrameImage,comdat
	.align 3
	.type	_ZTV13GuiFrameImage, @object
	.size	_ZTV13GuiFrameImage, 208
_ZTV13GuiFrameImage:
	.long	0
	.long	_ZTI13GuiFrameImage
	.long	_ZN13GuiFrameImageD1Ev
	.long	_ZN13GuiFrameImageD0Ev
	.long	_ZN10GuiElement9SetParentEPS_
	.long	_ZN10GuiElement9GetParentEv
	.long	_ZN10GuiElement7GetLeftEv
	.long	_ZN10GuiElement6GetTopEv
	.long	_ZN10GuiElement12GetZPositionEv
	.long	_ZN10GuiElement10GetLeftPosEv
	.long	_ZN10GuiElement9GetTopPosEv
	.long	_ZN10GuiElement8GetWidthEv
	.long	_ZN10GuiElement9GetHeightEv
	.long	_ZN10GuiElement7SetSizeEii
	.long	_ZN10GuiElement10SetVisibleEb
	.long	_ZN10GuiElement9IsVisibleEv
	.long	_ZN10GuiElement12IsSelectableEv
	.long	_ZN10GuiElement11IsClickableEv
	.long	_ZN10GuiElement10IsHoldableEv
	.long	_ZN10GuiElement13SetSelectableEb
	.long	_ZN10GuiElement12SetClickableEb
	.long	_ZN10GuiElement11SetHoldableEb
	.long	_ZN10GuiElement8SetStateEii
	.long	_ZN10GuiElement8GetStateEv
	.long	_ZN10GuiElement12GetStateChanEv
	.long	_ZN10GuiElement10ResetStateEv
	.long	_ZN10GuiElement8SetAlphaEi
	.long	_ZN10GuiElement8GetAlphaEv
	.long	_ZN10GuiElement8SetScaleEf
	.long	_ZN10GuiElement9SetScaleXEf
	.long	_ZN10GuiElement9SetScaleYEf
	.long	_ZN10GuiElement8GetScaleEv
	.long	_ZN10GuiElement9GetScaleXEv
	.long	_ZN10GuiElement9GetScaleYEv
	.long	_ZN10GuiElement6RumbleEv
	.long	_ZN10GuiElement9SetRumbleEb
	.long	_ZN10GuiElement9SetEffectEiii
	.long	_ZN10GuiElement15SetEffectOnOverEiii
	.long	_ZN10GuiElement13SetEffectGrowEv
	.long	_ZN10GuiElement12ResetEffectsEv
	.long	_ZNK10GuiElement9GetEffectEv
	.long	_ZNK10GuiElement10IsAnimatedEv
	.long	_ZN10GuiElement9SetBoundsE4RectIiE
	.long	_ZN10GuiElement8IsInsideEii
	.long	_ZN10GuiElement11SetPositionEii
	.long	_ZN10GuiElement11SetPositionEiii
	.long	_ZN10GuiElement11GetSelectedEv
	.long	_ZN10GuiElement12SetAlignmentEi
	.long	_ZNK10GuiElement12GetAlignmentEv
	.long	_ZN10GuiElement6UpdateEP10GuiTrigger
	.long	_ZN13GuiFrameImage4DrawEv
	.long	_ZN10GuiElement13UpdateEffectsEv
	.weak	_ZTVN7sigslot7signal2IP10GuiElementbNS_15single_threadedEEE
	.section	.rodata._ZTVN7sigslot7signal2IP10GuiElementbNS_15single_threadedEEE,"aG",@progbits,_ZTVN7sigslot7signal2IP10GuiElementbNS_15single_threadedEEE,comdat
	.align 3
	.type	_ZTVN7sigslot7signal2IP10GuiElementbNS_15single_threadedEEE, @object
	.size	_ZTVN7sigslot7signal2IP10GuiElementbNS_15single_threadedEEE, 32
_ZTVN7sigslot7signal2IP10GuiElementbNS_15single_threadedEEE:
	.long	0
	.long	_ZTIN7sigslot7signal2IP10GuiElementbNS_15single_threadedEEE
	.long	_ZN7sigslot7signal2IP10GuiElementbNS_15single_threadedEED1Ev
	.long	_ZN7sigslot7signal2IP10GuiElementbNS_15single_threadedEED0Ev
	.long	_ZN7sigslot15single_threaded4lockEv
	.long	_ZN7sigslot15single_threaded6unlockEv
	.long	_ZN7sigslot13_signal_base2IP10GuiElementbNS_15single_threadedEE15slot_disconnectEPNS_9has_slotsIS3_EE
	.long	_ZN7sigslot13_signal_base2IP10GuiElementbNS_15single_threadedEE14slot_duplicateEPKNS_9has_slotsIS3_EEPS6_
	.weak	_ZTVN7sigslot13_signal_base2IP10GuiElementbNS_15single_threadedEEE
	.section	.rodata._ZTVN7sigslot13_signal_base2IP10GuiElementbNS_15single_threadedEEE,"aG",@progbits,_ZTVN7sigslot13_signal_base2IP10GuiElementbNS_15single_threadedEEE,comdat
	.align 3
	.type	_ZTVN7sigslot13_signal_base2IP10GuiElementbNS_15single_threadedEEE, @object
	.size	_ZTVN7sigslot13_signal_base2IP10GuiElementbNS_15single_threadedEEE, 32
_ZTVN7sigslot13_signal_base2IP10GuiElementbNS_15single_threadedEEE:
	.long	0
	.long	_ZTIN7sigslot13_signal_base2IP10GuiElementbNS_15single_threadedEEE
	.long	_ZN7sigslot13_signal_base2IP10GuiElementbNS_15single_threadedEED1Ev
	.long	_ZN7sigslot13_signal_base2IP10GuiElementbNS_15single_threadedEED0Ev
	.long	_ZN7sigslot15single_threaded4lockEv
	.long	_ZN7sigslot15single_threaded6unlockEv
	.long	_ZN7sigslot13_signal_base2IP10GuiElementbNS_15single_threadedEE15slot_disconnectEPNS_9has_slotsIS3_EE
	.long	_ZN7sigslot13_signal_base2IP10GuiElementbNS_15single_threadedEE14slot_duplicateEPKNS_9has_slotsIS3_EEPS6_
	.weak	_ZTVN7sigslot12_signal_baseINS_15single_threadedEEE
	.section	.rodata._ZTVN7sigslot12_signal_baseINS_15single_threadedEEE,"aG",@progbits,_ZTVN7sigslot12_signal_baseINS_15single_threadedEEE,comdat
	.align 3
	.type	_ZTVN7sigslot12_signal_baseINS_15single_threadedEEE, @object
	.size	_ZTVN7sigslot12_signal_baseINS_15single_threadedEEE, 32
_ZTVN7sigslot12_signal_baseINS_15single_threadedEEE:
	.long	0
	.long	_ZTIN7sigslot12_signal_baseINS_15single_threadedEEE
	.long	_ZN7sigslot12_signal_baseINS_15single_threadedEED1Ev
	.long	_ZN7sigslot12_signal_baseINS_15single_threadedEED0Ev
	.long	_ZN7sigslot15single_threaded4lockEv
	.long	_ZN7sigslot15single_threaded6unlockEv
	.long	__cxa_pure_virtual
	.long	__cxa_pure_virtual
	.weak	_ZTVN7sigslot15single_threadedE
	.section	.rodata._ZTVN7sigslot15single_threadedE,"aG",@progbits,_ZTVN7sigslot15single_threadedE,comdat
	.align 3
	.type	_ZTVN7sigslot15single_threadedE, @object
	.size	_ZTVN7sigslot15single_threadedE, 24
_ZTVN7sigslot15single_threadedE:
	.long	0
	.long	_ZTIN7sigslot15single_threadedE
	.long	_ZN7sigslot15single_threadedD1Ev
	.long	_ZN7sigslot15single_threadedD0Ev
	.long	_ZN7sigslot15single_threaded4lockEv
	.long	_ZN7sigslot15single_threaded6unlockEv
	.weak	_ZTVN7sigslot7signal3IP10GuiElementiiNS_15single_threadedEEE
	.section	.rodata._ZTVN7sigslot7signal3IP10GuiElementiiNS_15single_threadedEEE,"aG",@progbits,_ZTVN7sigslot7signal3IP10GuiElementiiNS_15single_threadedEEE,comdat
	.align 3
	.type	_ZTVN7sigslot7signal3IP10GuiElementiiNS_15single_threadedEEE, @object
	.size	_ZTVN7sigslot7signal3IP10GuiElementiiNS_15single_threadedEEE, 32
_ZTVN7sigslot7signal3IP10GuiElementiiNS_15single_threadedEEE:
	.long	0
	.long	_ZTIN7sigslot7signal3IP10GuiElementiiNS_15single_threadedEEE
	.long	_ZN7sigslot7signal3IP10GuiElementiiNS_15single_threadedEED1Ev
	.long	_ZN7sigslot7signal3IP10GuiElementiiNS_15single_threadedEED0Ev
	.long	_ZN7sigslot15single_threaded4lockEv
	.long	_ZN7sigslot15single_threaded6unlockEv
	.long	_ZN7sigslot13_signal_base3IP10GuiElementiiNS_15single_threadedEE15slot_disconnectEPNS_9has_slotsIS3_EE
	.long	_ZN7sigslot13_signal_base3IP10GuiElementiiNS_15single_threadedEE14slot_duplicateEPKNS_9has_slotsIS3_EEPS6_
	.weak	_ZTVN7sigslot13_signal_base3IP10GuiElementiiNS_15single_threadedEEE
	.section	.rodata._ZTVN7sigslot13_signal_base3IP10GuiElementiiNS_15single_threadedEEE,"aG",@progbits,_ZTVN7sigslot13_signal_base3IP10GuiElementiiNS_15single_threadedEEE,comdat
	.align 3
	.type	_ZTVN7sigslot13_signal_base3IP10GuiElementiiNS_15single_threadedEEE, @object
	.size	_ZTVN7sigslot13_signal_base3IP10GuiElementiiNS_15single_threadedEEE, 32
_ZTVN7sigslot13_signal_base3IP10GuiElementiiNS_15single_threadedEEE:
	.long	0
	.long	_ZTIN7sigslot13_signal_base3IP10GuiElementiiNS_15single_threadedEEE
	.long	_ZN7sigslot13_signal_base3IP10GuiElementiiNS_15single_threadedEED1Ev
	.long	_ZN7sigslot13_signal_base3IP10GuiElementiiNS_15single_threadedEED0Ev
	.long	_ZN7sigslot15single_threaded4lockEv
	.long	_ZN7sigslot15single_threaded6unlockEv
	.long	_ZN7sigslot13_signal_base3IP10GuiElementiiNS_15single_threadedEE15slot_disconnectEPNS_9has_slotsIS3_EE
	.long	_ZN7sigslot13_signal_base3IP10GuiElementiiNS_15single_threadedEE14slot_duplicateEPKNS_9has_slotsIS3_EEPS6_
	.weak	_ZTIN7sigslot7signal2IP10GuiElementbNS_15single_threadedEEE
	.section	.rodata._ZTIN7sigslot7signal2IP10GuiElementbNS_15single_threadedEEE,"aG",@progbits,_ZTIN7sigslot7signal2IP10GuiElementbNS_15single_threadedEEE,comdat
	.align 2
	.type	_ZTIN7sigslot7signal2IP10GuiElementbNS_15single_threadedEEE, @object
	.size	_ZTIN7sigslot7signal2IP10GuiElementbNS_15single_threadedEEE, 12
_ZTIN7sigslot7signal2IP10GuiElementbNS_15single_threadedEEE:
	.long	_ZTVN10__cxxabiv120__si_class_type_infoE+8
	.long	_ZTSN7sigslot7signal2IP10GuiElementbNS_15single_threadedEEE
	.long	_ZTIN7sigslot13_signal_base2IP10GuiElementbNS_15single_threadedEEE
	.weak	_ZTIN7sigslot13_signal_base2IP10GuiElementbNS_15single_threadedEEE
	.section	.rodata._ZTIN7sigslot13_signal_base2IP10GuiElementbNS_15single_threadedEEE,"aG",@progbits,_ZTIN7sigslot13_signal_base2IP10GuiElementbNS_15single_threadedEEE,comdat
	.align 2
	.type	_ZTIN7sigslot13_signal_base2IP10GuiElementbNS_15single_threadedEEE, @object
	.size	_ZTIN7sigslot13_signal_base2IP10GuiElementbNS_15single_threadedEEE, 12
_ZTIN7sigslot13_signal_base2IP10GuiElementbNS_15single_threadedEEE:
	.long	_ZTVN10__cxxabiv120__si_class_type_infoE+8
	.long	_ZTSN7sigslot13_signal_base2IP10GuiElementbNS_15single_threadedEEE
	.long	_ZTIN7sigslot12_signal_baseINS_15single_threadedEEE
	.weak	_ZTIN7sigslot12_signal_baseINS_15single_threadedEEE
	.section	.rodata._ZTIN7sigslot12_signal_baseINS_15single_threadedEEE,"aG",@progbits,_ZTIN7sigslot12_signal_baseINS_15single_threadedEEE,comdat
	.align 2
	.type	_ZTIN7sigslot12_signal_baseINS_15single_threadedEEE, @object
	.size	_ZTIN7sigslot12_signal_baseINS_15single_threadedEEE, 12
_ZTIN7sigslot12_signal_baseINS_15single_threadedEEE:
	.long	_ZTVN10__cxxabiv120__si_class_type_infoE+8
	.long	_ZTSN7sigslot12_signal_baseINS_15single_threadedEEE
	.long	_ZTIN7sigslot15single_threadedE
	.weak	_ZTIN7sigslot15single_threadedE
	.section	.sdata._ZTIN7sigslot15single_threadedE,"awG",@progbits,_ZTIN7sigslot15single_threadedE,comdat
	.align 2
	.type	_ZTIN7sigslot15single_threadedE, @object
	.size	_ZTIN7sigslot15single_threadedE, 8
_ZTIN7sigslot15single_threadedE:
	.long	_ZTVN10__cxxabiv117__class_type_infoE+8
	.long	_ZTSN7sigslot15single_threadedE
	.weak	_ZTIN7sigslot7signal3IP10GuiElementiiNS_15single_threadedEEE
	.section	.rodata._ZTIN7sigslot7signal3IP10GuiElementiiNS_15single_threadedEEE,"aG",@progbits,_ZTIN7sigslot7signal3IP10GuiElementiiNS_15single_threadedEEE,comdat
	.align 2
	.type	_ZTIN7sigslot7signal3IP10GuiElementiiNS_15single_threadedEEE, @object
	.size	_ZTIN7sigslot7signal3IP10GuiElementiiNS_15single_threadedEEE, 12
_ZTIN7sigslot7signal3IP10GuiElementiiNS_15single_threadedEEE:
	.long	_ZTVN10__cxxabiv120__si_class_type_infoE+8
	.long	_ZTSN7sigslot7signal3IP10GuiElementiiNS_15single_threadedEEE
	.long	_ZTIN7sigslot13_signal_base3IP10GuiElementiiNS_15single_threadedEEE
	.weak	_ZTIN7sigslot13_signal_base3IP10GuiElementiiNS_15single_threadedEEE
	.section	.rodata._ZTIN7sigslot13_signal_base3IP10GuiElementiiNS_15single_threadedEEE,"aG",@progbits,_ZTIN7sigslot13_signal_base3IP10GuiElementiiNS_15single_threadedEEE,comdat
	.align 2
	.type	_ZTIN7sigslot13_signal_base3IP10GuiElementiiNS_15single_threadedEEE, @object
	.size	_ZTIN7sigslot13_signal_base3IP10GuiElementiiNS_15single_threadedEEE, 12
_ZTIN7sigslot13_signal_base3IP10GuiElementiiNS_15single_threadedEEE:
	.long	_ZTVN10__cxxabiv120__si_class_type_infoE+8
	.long	_ZTSN7sigslot13_signal_base3IP10GuiElementiiNS_15single_threadedEEE
	.long	_ZTIN7sigslot12_signal_baseINS_15single_threadedEEE
	.weak	_ZTSN7sigslot7signal2IP10GuiElementbNS_15single_threadedEEE
	.section	.rodata._ZTSN7sigslot7signal2IP10GuiElementbNS_15single_threadedEEE,"aG",@progbits,_ZTSN7sigslot7signal2IP10GuiElementbNS_15single_threadedEEE,comdat
	.align 2
	.type	_ZTSN7sigslot7signal2IP10GuiElementbNS_15single_threadedEEE, @object
	.size	_ZTSN7sigslot7signal2IP10GuiElementbNS_15single_threadedEEE, 56
_ZTSN7sigslot7signal2IP10GuiElementbNS_15single_threadedEEE:
	.string	"N7sigslot7signal2IP10GuiElementbNS_15single_threadedEEE"
	.weak	_ZTSN7sigslot13_signal_base2IP10GuiElementbNS_15single_threadedEEE
	.section	.rodata._ZTSN7sigslot13_signal_base2IP10GuiElementbNS_15single_threadedEEE,"aG",@progbits,_ZTSN7sigslot13_signal_base2IP10GuiElementbNS_15single_threadedEEE,comdat
	.align 2
	.type	_ZTSN7sigslot13_signal_base2IP10GuiElementbNS_15single_threadedEEE, @object
	.size	_ZTSN7sigslot13_signal_base2IP10GuiElementbNS_15single_threadedEEE, 63
_ZTSN7sigslot13_signal_base2IP10GuiElementbNS_15single_threadedEEE:
	.string	"N7sigslot13_signal_base2IP10GuiElementbNS_15single_threadedEEE"
	.weak	_ZTSN7sigslot12_signal_baseINS_15single_threadedEEE
	.section	.rodata._ZTSN7sigslot12_signal_baseINS_15single_threadedEEE,"aG",@progbits,_ZTSN7sigslot12_signal_baseINS_15single_threadedEEE,comdat
	.align 2
	.type	_ZTSN7sigslot12_signal_baseINS_15single_threadedEEE, @object
	.size	_ZTSN7sigslot12_signal_baseINS_15single_threadedEEE, 48
_ZTSN7sigslot12_signal_baseINS_15single_threadedEEE:
	.string	"N7sigslot12_signal_baseINS_15single_threadedEEE"
	.weak	_ZTSN7sigslot15single_threadedE
	.section	.rodata._ZTSN7sigslot15single_threadedE,"aG",@progbits,_ZTSN7sigslot15single_threadedE,comdat
	.align 2
	.type	_ZTSN7sigslot15single_threadedE, @object
	.size	_ZTSN7sigslot15single_threadedE, 28
_ZTSN7sigslot15single_threadedE:
	.string	"N7sigslot15single_threadedE"
	.weak	_ZTSN7sigslot7signal3IP10GuiElementiiNS_15single_threadedEEE
	.section	.rodata._ZTSN7sigslot7signal3IP10GuiElementiiNS_15single_threadedEEE,"aG",@progbits,_ZTSN7sigslot7signal3IP10GuiElementiiNS_15single_threadedEEE,comdat
	.align 2
	.type	_ZTSN7sigslot7signal3IP10GuiElementiiNS_15single_threadedEEE, @object
	.size	_ZTSN7sigslot7signal3IP10GuiElementiiNS_15single_threadedEEE, 57
_ZTSN7sigslot7signal3IP10GuiElementiiNS_15single_threadedEEE:
	.string	"N7sigslot7signal3IP10GuiElementiiNS_15single_threadedEEE"
	.weak	_ZTSN7sigslot13_signal_base3IP10GuiElementiiNS_15single_threadedEEE
	.section	.rodata._ZTSN7sigslot13_signal_base3IP10GuiElementiiNS_15single_threadedEEE,"aG",@progbits,_ZTSN7sigslot13_signal_base3IP10GuiElementiiNS_15single_threadedEEE,comdat
	.align 2
	.type	_ZTSN7sigslot13_signal_base3IP10GuiElementiiNS_15single_threadedEEE, @object
	.size	_ZTSN7sigslot13_signal_base3IP10GuiElementiiNS_15single_threadedEEE, 64
_ZTSN7sigslot13_signal_base3IP10GuiElementiiNS_15single_threadedEEE:
	.string	"N7sigslot13_signal_base3IP10GuiElementiiNS_15single_threadedEEE"
	.weak	_ZN7sigslot15single_threadedD1Ev
	.set	_ZN7sigslot15single_threadedD1Ev,_ZN7sigslot15single_threadedD2Ev
	.weak	_ZN7sigslot12_signal_baseINS_15single_threadedEED1Ev
	.set	_ZN7sigslot12_signal_baseINS_15single_threadedEED1Ev,_ZN7sigslot12_signal_baseINS_15single_threadedEED2Ev
	.weak	_ZN7sigslot13_signal_base3IP10GuiElementiiNS_15single_threadedEED1Ev
	.set	_ZN7sigslot13_signal_base3IP10GuiElementiiNS_15single_threadedEED1Ev,_ZN7sigslot13_signal_base3IP10GuiElementiiNS_15single_threadedEED2Ev
	.weak	_ZN7sigslot7signal3IP10GuiElementiiNS_15single_threadedEED1Ev
	.set	_ZN7sigslot7signal3IP10GuiElementiiNS_15single_threadedEED1Ev,_ZN7sigslot7signal3IP10GuiElementiiNS_15single_threadedEED2Ev
	.weak	_ZN7sigslot7signal2IP10GuiElementbNS_15single_threadedEED1Ev
	.set	_ZN7sigslot7signal2IP10GuiElementbNS_15single_threadedEED1Ev,_ZN7sigslot7signal2IP10GuiElementbNS_15single_threadedEED2Ev
	.weak	_ZN7sigslot13_signal_base2IP10GuiElementbNS_15single_threadedEED1Ev
	.set	_ZN7sigslot13_signal_base2IP10GuiElementbNS_15single_threadedEED1Ev,_ZN7sigslot13_signal_base2IP10GuiElementbNS_15single_threadedEED2Ev
	.weak	_ZN10GuiElementD1Ev
	.set	_ZN10GuiElementD1Ev,_ZN10GuiElementD2Ev
	.globl _ZN13GuiFrameImageC1Eii
	.set	_ZN13GuiFrameImageC1Eii,_ZN13GuiFrameImageC2Eii
	.globl _ZN13GuiFrameImageD1Ev
	.set	_ZN13GuiFrameImageD1Ev,_ZN13GuiFrameImageD2Ev
	.section	.rodata.cst4,"aM",@progbits,4
	.align 2
.LC1:
	.4byte	1501560836
.LC2:
	.4byte	1132396544
.LC3:
	.4byte	1056964608
.LC4:
	.4byte	1127481344
.LC5:
	.4byte	1016003125
.LC6:
	.4byte	1036831949
.LC7:
	.4byte	1119092736
.LC8:
	.4byte	1132920832
.LC9:
	.4byte	1090519040
.LC10:
	.4byte	1077936128
	.section	".text"
.Letext0:
	.file 11 "d:\\devkitpro\\devkitppc\\bin\\../lib/gcc/powerpc-eabi/4.6.3/../../../../powerpc-eabi/include/stdint.h"
	.file 12 "d:/devkitPro/libogc/include/gctypes.h"
	.file 13 "d:\\devkitpro\\devkitppc\\bin\\../lib/gcc/powerpc-eabi/4.6.3/../../../../powerpc-eabi/include/machine/_types.h"
	.file 14 "d:\\devkitpro\\devkitppc\\bin\\../lib/gcc/powerpc-eabi/4.6.3/../../../../powerpc-eabi/include/sys/lock.h"
	.file 15 "d:\\devkitpro\\devkitppc\\bin\\../lib/gcc/powerpc-eabi/4.6.3/include/stddef.h"
	.file 16 "d:\\devkitpro\\devkitppc\\bin\\../lib/gcc/powerpc-eabi/4.6.3/../../../../powerpc-eabi/include/sys/_types.h"
	.file 17 "d:\\devkitpro\\devkitppc\\bin\\../lib/gcc/powerpc-eabi/4.6.3/../../../../powerpc-eabi/include/sys/reent.h"
	.file 18 "d:\\devkitpro\\devkitppc\\bin\\../lib/gcc/powerpc-eabi/4.6.3/../../../../powerpc-eabi/include/time.h"
	.file 19 "<built-in>"
	.file 20 "d:\\devkitpro\\devkitppc\\bin\\../lib/gcc/powerpc-eabi/4.6.3/../../../../powerpc-eabi/include/wchar.h"
	.file 21 "d:\\devkitpro\\devkitppc\\bin\\../lib/gcc/powerpc-eabi/4.6.3/../../../../powerpc-eabi/include/c++/4.6.3/cwchar"
	.file 22 "d:\\devkitpro\\devkitppc\\bin\\../lib/gcc/powerpc-eabi/4.6.3/../../../../powerpc-eabi/include/c++/4.6.3/powerpc-eabi/bits/c++config.h"
	.file 23 "d:\\devkitpro\\devkitppc\\bin\\../lib/gcc/powerpc-eabi/4.6.3/../../../../powerpc-eabi/include/c++/4.6.3/clocale"
	.file 24 "d:\\devkitpro\\devkitppc\\bin\\../lib/gcc/powerpc-eabi/4.6.3/../../../../powerpc-eabi/include/c++/4.6.3/bits/move.h"
	.file 25 "d:\\devkitpro\\devkitppc\\bin\\../lib/gcc/powerpc-eabi/4.6.3/../../../../powerpc-eabi/include/c++/4.6.3/bits/cpp_type_traits.h"
	.file 26 "d:\\devkitpro\\devkitppc\\bin\\../lib/gcc/powerpc-eabi/4.6.3/../../../../powerpc-eabi/include/c++/4.6.3/debug/debug.h"
	.file 27 "d:\\devkitpro\\devkitppc\\bin\\../lib/gcc/powerpc-eabi/4.6.3/../../../../powerpc-eabi/include/locale.h"
	.file 28 "d:\\devkitpro\\devkitppc\\bin\\../lib/gcc/powerpc-eabi/4.6.3/../../../../powerpc-eabi/include/c++/4.6.3/ext/numeric_traits.h"
	.file 29 "d:\\devkitpro\\devkitppc\\bin\\../lib/gcc/powerpc-eabi/4.6.3/../../../../powerpc-eabi/include/c++/4.6.3/bits/allocator.h"
	.file 30 "d:\\devkitpro\\devkitppc\\bin\\../lib/gcc/powerpc-eabi/4.6.3/../../../../powerpc-eabi/include/c++/4.6.3/bits/stl_function.h"
	.file 31 "d:\\devkitpro\\devkitppc\\bin\\../lib/gcc/powerpc-eabi/4.6.3/../../../../powerpc-eabi/include/c++/4.6.3/bits/stl_pair.h"
	.file 32 "d:/Projects/SaveGameManager/savegame-manager-gx/trunk/source/GUI/gui_frameimage.h"
	.file 33 "d:\\devkitpro\\devkitppc\\bin\\../lib/gcc/powerpc-eabi/4.6.3/../../../../powerpc-eabi/include/c++/4.6.3/new"