	.file	"gui_numpad.cpp"
	.section	".text"
.Ltext0:
	.section	.text._ZN7sigslot15single_threadedD2Ev,"axG",@progbits,_ZN7sigslot15single_threadedD5Ev,comdat
	.align 2
	.weak	_ZN7sigslot15single_threadedD2Ev
	.type	_ZN7sigslot15single_threadedD2Ev, @function
_ZN7sigslot15single_threadedD2Ev:
.LFB1148:
	.file 1 "d:/Projects/SaveGameManager/savegame-manager-gx/trunk/source/GUI/../sigslot.h"
	.loc 1 104 0
	.cfi_startproc
.LVL0:
.LBB1738:
	.loc 1 105 0
	lis 9,_ZTVN7sigslot15single_threadedE+8@ha
.LBE1738:
	.loc 1 107 0
.LBB1739:
	.loc 1 105 0
	la 0,_ZTVN7sigslot15single_threadedE+8@l(9)
	stw 0,0(3)
.LBE1739:
	.loc 1 107 0
	blr
	.cfi_endproc
.LFE1148:
	.size	_ZN7sigslot15single_threadedD2Ev, .-_ZN7sigslot15single_threadedD2Ev
	.section	.text._ZN7sigslot15single_threaded4lockEv,"axG",@progbits,_ZN7sigslot15single_threaded4lockEv,comdat
	.align 2
	.weak	_ZN7sigslot15single_threaded4lockEv
	.type	_ZN7sigslot15single_threaded4lockEv, @function
_ZN7sigslot15single_threaded4lockEv:
.LFB1151:
	.loc 1 109 0
	.cfi_startproc
.LVL1:
	.loc 1 112 0
	blr
	.cfi_endproc
.LFE1151:
	.size	_ZN7sigslot15single_threaded4lockEv, .-_ZN7sigslot15single_threaded4lockEv
	.section	.text._ZN7sigslot15single_threaded6unlockEv,"axG",@progbits,_ZN7sigslot15single_threaded6unlockEv,comdat
	.align 2
	.weak	_ZN7sigslot15single_threaded6unlockEv
	.type	_ZN7sigslot15single_threaded6unlockEv, @function
_ZN7sigslot15single_threaded6unlockEv:
.LFB1152:
	.loc 1 114 0
	.cfi_startproc
.LVL2:
	.loc 1 117 0
	blr
	.cfi_endproc
.LFE1152:
	.size	_ZN7sigslot15single_threaded6unlockEv, .-_ZN7sigslot15single_threaded6unlockEv
	.section	.text._ZN10GuiElement9SetParentEPS_,"axG",@progbits,_ZN10GuiElement9SetParentEPS_,comdat
	.align 2
	.weak	_ZN10GuiElement9SetParentEPS_
	.type	_ZN10GuiElement9SetParentEPS_, @function
_ZN10GuiElement9SetParentEPS_:
.LFB1384:
	.file 2 "d:/Projects/SaveGameManager/savegame-manager-gx/trunk/source/GUI/gui_element.h"
	.loc 2 92 0
	.cfi_startproc
.LVL3:
	.loc 2 92 0
	stw 4,96(3)
	blr
	.cfi_endproc
.LFE1384:
	.size	_ZN10GuiElement9SetParentEPS_, .-_ZN10GuiElement9SetParentEPS_
	.section	.text._ZN10GuiElement9GetParentEv,"axG",@progbits,_ZN10GuiElement9GetParentEv,comdat
	.align 2
	.weak	_ZN10GuiElement9GetParentEv
	.type	_ZN10GuiElement9GetParentEv, @function
_ZN10GuiElement9GetParentEv:
.LFB1385:
	.loc 2 95 0
	.cfi_startproc
.LVL4:
	.loc 2 95 0
	lwz 3,96(3)
.LVL5:
	blr
	.cfi_endproc
.LFE1385:
	.size	_ZN10GuiElement9GetParentEv, .-_ZN10GuiElement9GetParentEv
	.section	.text._ZN10GuiElement12GetZPositionEv,"axG",@progbits,_ZN10GuiElement12GetZPositionEv,comdat
	.align 2
	.weak	_ZN10GuiElement12GetZPositionEv
	.type	_ZN10GuiElement12GetZPositionEv, @function
_ZN10GuiElement12GetZPositionEv:
.LFB1386:
	.loc 2 106 0
	.cfi_startproc
.LVL6:
	mflr 0
	stwu 1,-16(1)
.LCFI0:
	.cfi_def_cfa_offset 16
	.cfi_register 65, 0
	stw 31,12(1)
	mr 31,3
	.cfi_offset 31, -4
	stw 0,20(1)
.LBB1740:
	.loc 2 110 0
	lwz 11,96(3)
	.loc 2 108 0
	li 3,0
.LVL7:
	.loc 2 110 0
	cmpwi 7,11,0
	beq- 7,.L8
	.cfi_offset 65, 4
	.loc 2 111 0
	lwz 9,0(11)
	mr 3,11
	lwz 0,24(9)
	mtctr 0
	bctrl
.LVL8:
.L8:
	.loc 2 113 0
	lwz 0,52(31)
.LBE1740:
	.loc 2 114 0
	lwz 31,12(1)
.LVL9:
	add 3,3,0
.LVL10:
	lwz 0,20(1)
	addi 1,1,16
.LCFI1:
	.cfi_def_cfa_offset 0
	.cfi_restore 31
	mtlr 0
	blr
	.cfi_endproc
.LFE1386:
	.size	_ZN10GuiElement12GetZPositionEv, .-_ZN10GuiElement12GetZPositionEv
	.section	.text._ZN10GuiElement10GetLeftPosEv,"axG",@progbits,_ZN10GuiElement10GetLeftPosEv,comdat
	.align 2
	.weak	_ZN10GuiElement10GetLeftPosEv
	.type	_ZN10GuiElement10GetLeftPosEv, @function
_ZN10GuiElement10GetLeftPosEv:
.LFB1387:
	.loc 2 116 0
	.cfi_startproc
.LVL11:
	.loc 2 116 0
	lwz 3,44(3)
.LVL12:
	blr
	.cfi_endproc
.LFE1387:
	.size	_ZN10GuiElement10GetLeftPosEv, .-_ZN10GuiElement10GetLeftPosEv
	.section	.text._ZN10GuiElement9GetTopPosEv,"axG",@progbits,_ZN10GuiElement9GetTopPosEv,comdat
	.align 2
	.weak	_ZN10GuiElement9GetTopPosEv
	.type	_ZN10GuiElement9GetTopPosEv, @function
_ZN10GuiElement9GetTopPosEv:
.LFB1388:
	.loc 2 118 0
	.cfi_startproc
.LVL13:
	.loc 2 118 0
	lwz 3,48(3)
.LVL14:
	blr
	.cfi_endproc
.LFE1388:
	.size	_ZN10GuiElement9GetTopPosEv, .-_ZN10GuiElement9GetTopPosEv
	.section	.text._ZN10GuiElement8GetWidthEv,"axG",@progbits,_ZN10GuiElement8GetWidthEv,comdat
	.align 2
	.weak	_ZN10GuiElement8GetWidthEv
	.type	_ZN10GuiElement8GetWidthEv, @function
_ZN10GuiElement8GetWidthEv:
.LFB1389:
	.loc 2 121 0
	.cfi_startproc
.LVL15:
	.loc 2 121 0
	lwz 3,36(3)
.LVL16:
	blr
	.cfi_endproc
.LFE1389:
	.size	_ZN10GuiElement8GetWidthEv, .-_ZN10GuiElement8GetWidthEv
	.section	.text._ZN10GuiElement9GetHeightEv,"axG",@progbits,_ZN10GuiElement9GetHeightEv,comdat
	.align 2
	.weak	_ZN10GuiElement9GetHeightEv
	.type	_ZN10GuiElement9GetHeightEv, @function
_ZN10GuiElement9GetHeightEv:
.LFB1390:
	.loc 2 124 0
	.cfi_startproc
.LVL17:
	.loc 2 124 0
	lwz 3,40(3)
.LVL18:
	blr
	.cfi_endproc
.LFE1390:
	.size	_ZN10GuiElement9GetHeightEv, .-_ZN10GuiElement9GetHeightEv
	.section	.text._ZN10GuiElement7SetSizeEii,"axG",@progbits,_ZN10GuiElement7SetSizeEii,comdat
	.align 2
	.weak	_ZN10GuiElement7SetSizeEii
	.type	_ZN10GuiElement7SetSizeEii, @function
_ZN10GuiElement7SetSizeEii:
.LFB1391:
	.loc 2 128 0
	.cfi_startproc
.LVL19:
	.loc 2 130 0
	stw 4,36(3)
	.loc 2 132 0
	.loc 2 131 0
	stw 5,40(3)
	.loc 2 132 0
	blr
	.cfi_endproc
.LFE1391:
	.size	_ZN10GuiElement7SetSizeEii, .-_ZN10GuiElement7SetSizeEii
	.section	.text._ZN10GuiElement9IsVisibleEv,"axG",@progbits,_ZN10GuiElement9IsVisibleEv,comdat
	.align 2
	.weak	_ZN10GuiElement9IsVisibleEv
	.type	_ZN10GuiElement9IsVisibleEv, @function
_ZN10GuiElement9IsVisibleEv:
.LFB1393:
	.loc 2 142 0
	.cfi_startproc
.LVL20:
	.loc 2 142 0
	lbz 3,29(3)
.LVL21:
	blr
	.cfi_endproc
.LFE1393:
	.size	_ZN10GuiElement9IsVisibleEv, .-_ZN10GuiElement9IsVisibleEv
	.section	.text._ZN10GuiElement12IsSelectableEv,"axG",@progbits,_ZN10GuiElement12IsSelectableEv,comdat
	.align 2
	.weak	_ZN10GuiElement12IsSelectableEv
	.type	_ZN10GuiElement12IsSelectableEv, @function
_ZN10GuiElement12IsSelectableEv:
.LFB1394:
	.loc 2 145 0
	.cfi_startproc
.LVL22:
	.loc 2 149 0
	lwz 0,72(3)
	li 9,0
	cmpwi 7,0,4
	beq- 7,.L18
	.loc 2 149 0 is_stmt 0 discriminator 1
	cmpwi 7,0,2
	beq- 7,.L18
	.loc 2 149 0 discriminator 3
	lbz 9,30(3)
.L18:
	.loc 2 150 0 is_stmt 1 discriminator 5
	mr 3,9
.LVL23:
	blr
	.cfi_endproc
.LFE1394:
	.size	_ZN10GuiElement12IsSelectableEv, .-_ZN10GuiElement12IsSelectableEv
	.section	.text._ZN10GuiElement11IsClickableEv,"axG",@progbits,_ZN10GuiElement11IsClickableEv,comdat
	.align 2
	.weak	_ZN10GuiElement11IsClickableEv
	.type	_ZN10GuiElement11IsClickableEv, @function
_ZN10GuiElement11IsClickableEv:
.LFB1395:
	.loc 2 153 0
	.cfi_startproc
.LVL24:
	.loc 2 158 0
	lwz 0,72(3)
	li 9,0
	cmpwi 7,0,4
	beq- 7,.L22
	.loc 2 158 0 is_stmt 0 discriminator 1
	cmpwi 7,0,2
	beq- 7,.L22
	.loc 2 158 0 discriminator 3
	cmpwi 7,0,3
	beq- 7,.L22
	.loc 2 158 0 discriminator 4
	lbz 9,31(3)
.L22:
	.loc 2 159 0 is_stmt 1 discriminator 6
	mr 3,9
.LVL25:
	blr
	.cfi_endproc
.LFE1395:
	.size	_ZN10GuiElement11IsClickableEv, .-_ZN10GuiElement11IsClickableEv
	.section	.text._ZN10GuiElement10IsHoldableEv,"axG",@progbits,_ZN10GuiElement10IsHoldableEv,comdat
	.align 2
	.weak	_ZN10GuiElement10IsHoldableEv
	.type	_ZN10GuiElement10IsHoldableEv, @function
_ZN10GuiElement10IsHoldableEv:
.LFB1396:
	.loc 2 162 0
	.cfi_startproc
.LVL26:
	.loc 2 162 0
	lwz 9,72(3)
	li 0,0
	cmpwi 7,9,4
	beq- 7,.L27
	.loc 2 162 0 is_stmt 0 discriminator 1
	lbz 0,32(3)
.L27:
	.loc 2 162 0 discriminator 4
	mr 3,0
.LVL27:
	blr
	.cfi_endproc
.LFE1396:
	.size	_ZN10GuiElement10IsHoldableEv, .-_ZN10GuiElement10IsHoldableEv
	.section	.text._ZN10GuiElement13SetSelectableEb,"axG",@progbits,_ZN10GuiElement13SetSelectableEb,comdat
	.align 2
	.weak	_ZN10GuiElement13SetSelectableEb
	.type	_ZN10GuiElement13SetSelectableEb, @function
_ZN10GuiElement13SetSelectableEb:
.LFB1397:
	.loc 2 165 0 is_stmt 1
	.cfi_startproc
.LVL28:
	.loc 2 165 0
	stb 4,30(3)
	blr
	.cfi_endproc
.LFE1397:
	.size	_ZN10GuiElement13SetSelectableEb, .-_ZN10GuiElement13SetSelectableEb
	.section	.text._ZN10GuiElement12SetClickableEb,"axG",@progbits,_ZN10GuiElement12SetClickableEb,comdat
	.align 2
	.weak	_ZN10GuiElement12SetClickableEb
	.type	_ZN10GuiElement12SetClickableEb, @function
_ZN10GuiElement12SetClickableEb:
.LFB1398:
	.loc 2 168 0
	.cfi_startproc
.LVL29:
	.loc 2 168 0
	stb 4,31(3)
	blr
	.cfi_endproc
.LFE1398:
	.size	_ZN10GuiElement12SetClickableEb, .-_ZN10GuiElement12SetClickableEb
	.section	.text._ZN10GuiElement11SetHoldableEb,"axG",@progbits,_ZN10GuiElement11SetHoldableEb,comdat
	.align 2
	.weak	_ZN10GuiElement11SetHoldableEb
	.type	_ZN10GuiElement11SetHoldableEb, @function
_ZN10GuiElement11SetHoldableEb:
.LFB1399:
	.loc 2 171 0
	.cfi_startproc
.LVL30:
	.loc 2 171 0
	stb 4,32(3)
	blr
	.cfi_endproc
.LFE1399:
	.size	_ZN10GuiElement11SetHoldableEb, .-_ZN10GuiElement11SetHoldableEb
	.section	.text._ZN10GuiElement8GetStateEv,"axG",@progbits,_ZN10GuiElement8GetStateEv,comdat
	.align 2
	.weak	_ZN10GuiElement8GetStateEv
	.type	_ZN10GuiElement8GetStateEv, @function
_ZN10GuiElement8GetStateEv:
.LFB1400:
	.loc 2 178 0
	.cfi_startproc
.LVL31:
	.loc 2 178 0
	lwz 3,72(3)
.LVL32:
	blr
	.cfi_endproc
.LFE1400:
	.size	_ZN10GuiElement8GetStateEv, .-_ZN10GuiElement8GetStateEv
	.section	.text._ZN10GuiElement12GetStateChanEv,"axG",@progbits,_ZN10GuiElement12GetStateChanEv,comdat
	.align 2
	.weak	_ZN10GuiElement12GetStateChanEv
	.type	_ZN10GuiElement12GetStateChanEv, @function
_ZN10GuiElement12GetStateChanEv:
.LFB1401:
	.loc 2 181 0
	.cfi_startproc
.LVL33:
	.loc 2 181 0
	lwz 3,76(3)
.LVL34:
	blr
	.cfi_endproc
.LFE1401:
	.size	_ZN10GuiElement12GetStateChanEv, .-_ZN10GuiElement12GetStateChanEv
	.section	.text._ZN10GuiElement8SetAlphaEi,"axG",@progbits,_ZN10GuiElement8SetAlphaEi,comdat
	.align 2
	.weak	_ZN10GuiElement8SetAlphaEi
	.type	_ZN10GuiElement8SetAlphaEi, @function
_ZN10GuiElement8SetAlphaEi:
.LFB1403:
	.loc 2 190 0
	.cfi_startproc
.LVL35:
	.loc 2 190 0
	stw 4,56(3)
	blr
	.cfi_endproc
.LFE1403:
	.size	_ZN10GuiElement8SetAlphaEi, .-_ZN10GuiElement8SetAlphaEi
	.section	.text._ZN10GuiElement8GetAlphaEv,"axG",@progbits,_ZN10GuiElement8GetAlphaEv,comdat
	.align 2
	.weak	_ZN10GuiElement8GetAlphaEv
	.type	_ZN10GuiElement8GetAlphaEv, @function
_ZN10GuiElement8GetAlphaEv:
.LFB1404:
	.loc 2 194 0
	.cfi_startproc
.LVL36:
	mflr 0
	stwu 1,-40(1)
.LCFI2:
	.cfi_def_cfa_offset 40
	.cfi_register 65, 0
	stw 31,36(1)
	stw 0,44(1)
.LBB1741:
	.loc 2 198 0
	lwz 31,108(3)
	.cfi_offset 65, 4
	.cfi_offset 31, -4
	cmpwi 7,31,0
	blt- 7,.L38
.L36:
.LVL37:
	.loc 2 203 0
	lwz 3,96(3)
.LVL38:
	cmpwi 7,3,0
	beq- 7,.L37
	.loc 2 204 0
	lwz 9,0(3)
	xoris 31,31,0x8000
.LVL39:
	lwz 0,100(9)
	mtctr 0
	bctrl
	lis 0,0x4330
	xoris 3,3,0x8000
	stw 0,16(1)
	stw 3,20(1)
	lis 9,.LC2@ha
	lfs 0,.LC2@l(9)
	lis 9,.LC3@ha
	lfd 13,16(1)
	lfs 12,.LC3@l(9)
	addi 9,1,24
	fsub 13,13,0
	stw 31,12(1)
	stw 0,8(1)
	frsp 13,13
	fdivs 13,13,12
	lfd 12,8(1)
	fsub 0,12,0
	frsp 0,0
	fmuls 0,0,13
	fctiwz 0,0
	stfiwx 0,0,9
	lwz 31,24(1)
.LVL40:
.L37:
.LBE1741:
	.loc 2 207 0
	lwz 0,44(1)
	mr 3,31
	lwz 31,36(1)
.LVL41:
	mtlr 0
	addi 1,1,40
	.cfi_remember_state
.LCFI3:
	.cfi_def_cfa_offset 0
	.cfi_restore 31
	blr
.LVL42:
.L38:
.LCFI4:
	.cfi_restore_state
.LBB1742:
	.loc 2 201 0
	lwz 31,56(3)
.LVL43:
	b .L36
.LBE1742:
	.cfi_endproc
.LFE1404:
	.size	_ZN10GuiElement8GetAlphaEv, .-_ZN10GuiElement8GetAlphaEv
	.section	.text._ZN10GuiElement8SetScaleEf,"axG",@progbits,_ZN10GuiElement8SetScaleEf,comdat
	.align 2
	.weak	_ZN10GuiElement8SetScaleEf
	.type	_ZN10GuiElement8SetScaleEf, @function
_ZN10GuiElement8SetScaleEf:
.LFB1405:
	.loc 2 210 0
	.cfi_startproc
.LVL44:
	.loc 2 212 0
	stfs 1,60(3)
	.loc 2 214 0
	.loc 2 213 0
	stfs 1,64(3)
	.loc 2 214 0
	blr
	.cfi_endproc
.LFE1405:
	.size	_ZN10GuiElement8SetScaleEf, .-_ZN10GuiElement8SetScaleEf
	.section	.text._ZN10GuiElement9SetScaleXEf,"axG",@progbits,_ZN10GuiElement9SetScaleXEf,comdat
	.align 2
	.weak	_ZN10GuiElement9SetScaleXEf
	.type	_ZN10GuiElement9SetScaleXEf, @function
_ZN10GuiElement9SetScaleXEf:
.LFB1406:
	.loc 2 217 0
	.cfi_startproc
.LVL45:
	.loc 2 217 0
	stfs 1,60(3)
	blr
	.cfi_endproc
.LFE1406:
	.size	_ZN10GuiElement9SetScaleXEf, .-_ZN10GuiElement9SetScaleXEf
	.section	.text._ZN10GuiElement9SetScaleYEf,"axG",@progbits,_ZN10GuiElement9SetScaleYEf,comdat
	.align 2
	.weak	_ZN10GuiElement9SetScaleYEf
	.type	_ZN10GuiElement9SetScaleYEf, @function
_ZN10GuiElement9SetScaleYEf:
.LFB1407:
	.loc 2 220 0
	.cfi_startproc
.LVL46:
	.loc 2 220 0
	stfs 1,64(3)
	blr
	.cfi_endproc
.LFE1407:
	.size	_ZN10GuiElement9SetScaleYEf, .-_ZN10GuiElement9SetScaleYEf
	.section	.text._ZN10GuiElement8GetScaleEv,"axG",@progbits,_ZN10GuiElement8GetScaleEv,comdat
	.align 2
	.weak	_ZN10GuiElement8GetScaleEv
	.type	_ZN10GuiElement8GetScaleEv, @function
_ZN10GuiElement8GetScaleEv:
.LFB1408:
	.loc 2 223 0
	.cfi_startproc
.LVL47:
	mflr 0
	stwu 1,-16(1)
.LCFI5:
	.cfi_def_cfa_offset 16
	.cfi_register 65, 0
.LBB1743:
	.loc 2 225 0
	lis 9,.LC4@ha
.LBE1743:
	.loc 2 223 0
	stfd 31,8(1)
	stw 0,20(1)
.LBB1744:
	.loc 2 225 0
	lfs 0,64(3)
	lfs 31,60(3)
	.cfi_offset 65, 4
	.cfi_offset 63, -8
	.loc 2 227 0
	lwz 11,96(3)
	.loc 2 225 0
	fadds 31,31,0
	lfs 0,.LC4@l(9)
	.loc 2 227 0
	cmpwi 7,11,0
	.loc 2 225 0
	fmuls 31,31,0
	lfs 0,112(3)
	fmuls 31,31,0
.LVL48:
	.loc 2 227 0
	beq- 7,.L43
	.loc 2 228 0
	lwz 9,0(11)
	mr 3,11
.LVL49:
	lwz 0,116(9)
	mtctr 0
	bctrl
	fmuls 31,31,1
.LVL50:
.L43:
.LBE1744:
	.loc 2 231 0
	lwz 0,20(1)
	fmr 1,31
	lfd 31,8(1)
.LVL51:
	mtlr 0
	addi 1,1,16
.LCFI6:
	.cfi_def_cfa_offset 0
	.cfi_restore 63
	blr
	.cfi_endproc
.LFE1408:
	.size	_ZN10GuiElement8GetScaleEv, .-_ZN10GuiElement8GetScaleEv
	.section	.text._ZN10GuiElement9GetScaleXEv,"axG",@progbits,_ZN10GuiElement9GetScaleXEv,comdat
	.align 2
	.weak	_ZN10GuiElement9GetScaleXEv
	.type	_ZN10GuiElement9GetScaleXEv, @function
_ZN10GuiElement9GetScaleXEv:
.LFB1409:
	.loc 2 234 0
	.cfi_startproc
.LVL52:
	mflr 0
	stwu 1,-16(1)
.LCFI7:
	.cfi_def_cfa_offset 16
	.cfi_register 65, 0
	stfd 31,8(1)
	stw 0,20(1)
.LBB1745:
	.loc 2 238 0
	lwz 11,96(3)
	.loc 2 236 0
	lfs 31,60(3)
	.cfi_offset 65, 4
	.cfi_offset 63, -8
	.loc 2 238 0
	cmpwi 7,11,0
	.loc 2 236 0
	lfs 0,112(3)
	fmuls 31,31,0
.LVL53:
	.loc 2 238 0
	beq- 7,.L45
	.loc 2 239 0
	lwz 9,0(11)
	mr 3,11
.LVL54:
	lwz 0,120(9)
	mtctr 0
	bctrl
	fmuls 31,31,1
.LVL55:
.L45:
.LBE1745:
	.loc 2 242 0
	lwz 0,20(1)
	fmr 1,31
	lfd 31,8(1)
.LVL56:
	mtlr 0
	addi 1,1,16
.LCFI8:
	.cfi_def_cfa_offset 0
	.cfi_restore 63
	blr
	.cfi_endproc
.LFE1409:
	.size	_ZN10GuiElement9GetScaleXEv, .-_ZN10GuiElement9GetScaleXEv
	.section	.text._ZN10GuiElement9GetScaleYEv,"axG",@progbits,_ZN10GuiElement9GetScaleYEv,comdat
	.align 2
	.weak	_ZN10GuiElement9GetScaleYEv
	.type	_ZN10GuiElement9GetScaleYEv, @function
_ZN10GuiElement9GetScaleYEv:
.LFB1410:
	.loc 2 245 0
	.cfi_startproc
.LVL57:
	mflr 0
	stwu 1,-16(1)
.LCFI9:
	.cfi_def_cfa_offset 16
	.cfi_register 65, 0
	stfd 31,8(1)
	stw 0,20(1)
.LBB1746:
	.loc 2 249 0
	lwz 11,96(3)
	.loc 2 247 0
	lfs 31,64(3)
	.cfi_offset 65, 4
	.cfi_offset 63, -8
	.loc 2 249 0
	cmpwi 7,11,0
	.loc 2 247 0
	lfs 0,112(3)
	fmuls 31,31,0
.LVL58:
	.loc 2 249 0
	beq- 7,.L47
	.loc 2 250 0
	lwz 9,0(11)
	mr 3,11
.LVL59:
	lwz 0,124(9)
	mtctr 0
	bctrl
	fmuls 31,31,1
.LVL60:
.L47:
.LBE1746:
	.loc 2 253 0
	lwz 0,20(1)
	fmr 1,31
	lfd 31,8(1)
.LVL61:
	mtlr 0
	addi 1,1,16
.LCFI10:
	.cfi_def_cfa_offset 0
	.cfi_restore 63
	blr
	.cfi_endproc
.LFE1410:
	.size	_ZN10GuiElement9GetScaleYEv, .-_ZN10GuiElement9GetScaleYEv
	.section	.text._ZN10GuiElement6RumbleEv,"axG",@progbits,_ZN10GuiElement6RumbleEv,comdat
	.align 2
	.weak	_ZN10GuiElement6RumbleEv
	.type	_ZN10GuiElement6RumbleEv, @function
_ZN10GuiElement6RumbleEv:
.LFB1411:
	.loc 2 256 0
	.cfi_startproc
.LVL62:
	.loc 2 256 0
	lbz 3,28(3)
.LVL63:
	blr
	.cfi_endproc
.LFE1411:
	.size	_ZN10GuiElement6RumbleEv, .-_ZN10GuiElement6RumbleEv
	.section	.text._ZN10GuiElement9SetRumbleEb,"axG",@progbits,_ZN10GuiElement9SetRumbleEb,comdat
	.align 2
	.weak	_ZN10GuiElement9SetRumbleEb
	.type	_ZN10GuiElement9SetRumbleEb, @function
_ZN10GuiElement9SetRumbleEb:
.LFB1412:
	.loc 2 259 0
	.cfi_startproc
.LVL64:
	.loc 2 259 0
	stb 4,28(3)
	blr
	.cfi_endproc
.LFE1412:
	.size	_ZN10GuiElement9SetRumbleEb, .-_ZN10GuiElement9SetRumbleEb
	.section	.text._ZN10GuiElement13SetEffectGrowEv,"axG",@progbits,_ZN10GuiElement13SetEffectGrowEv,comdat
	.align 2
	.weak	_ZN10GuiElement13SetEffectGrowEv
	.type	_ZN10GuiElement13SetEffectGrowEv, @function
_ZN10GuiElement13SetEffectGrowEv:
.LFB1413:
	.loc 2 271 0
	.cfi_startproc
.LVL65:
	mflr 0
	stwu 1,-8(1)
.LCFI11:
	.cfi_def_cfa_offset 8
	.cfi_register 65, 0
	lwz 9,0(3)
	li 4,256
	li 5,4
	li 6,110
	stw 0,12(1)
	.loc 2 271 0
	lwz 0,140(9)
	.cfi_offset 65, 4
	mtctr 0
	bctrl
.LVL66:
	lwz 0,12(1)
	addi 1,1,8
.LCFI12:
	.cfi_def_cfa_offset 0
	mtlr 0
	blr
	.cfi_endproc
.LFE1413:
	.size	_ZN10GuiElement13SetEffectGrowEv, .-_ZN10GuiElement13SetEffectGrowEv
	.section	.text._ZNK10GuiElement9GetEffectEv,"axG",@progbits,_ZNK10GuiElement9GetEffectEv,comdat
	.align 2
	.weak	_ZNK10GuiElement9GetEffectEv
	.type	_ZNK10GuiElement9GetEffectEv, @function
_ZNK10GuiElement9GetEffectEv:
.LFB1414:
	.loc 2 276 0
	.cfi_startproc
.LVL67:
	.loc 2 276 0
	lwz 3,120(3)
.LVL68:
	blr
	.cfi_endproc
.LFE1414:
	.size	_ZNK10GuiElement9GetEffectEv, .-_ZNK10GuiElement9GetEffectEv
	.section	.text._ZNK10GuiElement10IsAnimatedEv,"axG",@progbits,_ZNK10GuiElement10IsAnimatedEv,comdat
	.align 2
	.weak	_ZNK10GuiElement10IsAnimatedEv
	.type	_ZNK10GuiElement10IsAnimatedEv, @function
_ZNK10GuiElement10IsAnimatedEv:
.LFB1415:
	.loc 2 278 0
	.cfi_startproc
.LVL69:
	mflr 0
	stwu 1,-8(1)
.LCFI13:
	.cfi_def_cfa_offset 8
	.cfi_register 65, 0
	stw 0,12(1)
	.loc 2 278 0
	lwz 9,0(3)
	lwz 0,152(9)
	.cfi_offset 65, 4
	mtctr 0
	bctrl
.LVL70:
	srawi 0,3,31
	subf 3,3,0
	lwz 0,12(1)
	srwi 3,3,31
	mtlr 0
	addi 1,1,8
.LCFI14:
	.cfi_def_cfa_offset 0
	blr
	.cfi_endproc
.LFE1415:
	.size	_ZNK10GuiElement10IsAnimatedEv, .-_ZNK10GuiElement10IsAnimatedEv
	.section	.text._ZN10GuiElement8IsInsideEii,"axG",@progbits,_ZN10GuiElement8IsInsideEii,comdat
	.align 2
	.weak	_ZN10GuiElement8IsInsideEii
	.type	_ZN10GuiElement8IsInsideEii, @function
_ZN10GuiElement8IsInsideEii:
.LFB1417:
	.loc 2 285 0
	.cfi_startproc
.LVL71:
	mflr 0
	stwu 1,-24(1)
.LCFI15:
	.cfi_def_cfa_offset 24
	.cfi_register 65, 0
	stw 28,8(1)
	mr 28,5
	.cfi_offset 28, -16
	stw 0,28(1)
	stw 29,12(1)
	.loc 2 290 0
	li 29,0
	.cfi_offset 29, -12
	.cfi_offset 65, 4
	.loc 2 287 0
	lwz 9,0(3)
	.loc 2 285 0
	stw 30,16(1)
	mr 30,4
	.cfi_offset 30, -8
	.loc 2 287 0
	lwz 0,16(9)
	.loc 2 285 0
	stw 31,20(1)
	.loc 2 285 0
	mr 31,3
	.cfi_offset 31, -4
	.loc 2 287 0
	mtctr 0
	bctrl
.LVL72:
	.loc 2 290 0
	cmpw 7,3,30
	blt- 7,.L58
.L54:
	.loc 2 291 0 discriminator 6
	lwz 0,28(1)
	mr 3,29
	lwz 28,8(1)
.LVL73:
	mtlr 0
	lwz 29,12(1)
	lwz 30,16(1)
.LVL74:
	lwz 31,20(1)
.LVL75:
	addi 1,1,24
	.cfi_remember_state
.LCFI16:
	.cfi_def_cfa_offset 0
	.cfi_restore 31
	.cfi_restore 30
	.cfi_restore 29
	.cfi_restore 28
	blr
.LVL76:
.L58:
.LCFI17:
	.cfi_restore_state
	.loc 2 288 0 discriminator 1
	lwz 9,0(31)
	mr 3,31
	lwz 0,16(9)
	mtctr 0
	bctrl
	.loc 2 290 0 discriminator 1
	lwz 0,36(31)
	add 0,3,0
	cmpw 7,30,0
	bge+ 7,.L54
	.loc 2 289 0 discriminator 3
	lwz 9,0(31)
	mr 3,31
	lwz 0,20(9)
	mtctr 0
	bctrl
	.loc 2 290 0 discriminator 3
	cmpw 7,3,28
	bge+ 7,.L54
	.loc 2 290 0 is_stmt 0 discriminator 4
	lwz 9,0(31)
	mr 3,31
	lwz 0,20(9)
	mtctr 0
	bctrl
	lwz 0,40(31)
	add 0,3,0
	.loc 2 285 0 is_stmt 1 discriminator 4
	cmpw 7,28,0
	mfcr 29
	rlwinm 29,29,29,1
	b .L54
	.cfi_endproc
.LFE1417:
	.size	_ZN10GuiElement8IsInsideEii, .-_ZN10GuiElement8IsInsideEii
	.section	.text._ZN10GuiElement11SetPositionEii,"axG",@progbits,_ZN10GuiElement11SetPositionEii,comdat
	.align 2
	.weak	_ZN10GuiElement11SetPositionEii
	.type	_ZN10GuiElement11SetPositionEii, @function
_ZN10GuiElement11SetPositionEii:
.LFB1418:
	.loc 2 295 0
	.cfi_startproc
.LVL77:
	.loc 2 297 0
	stw 4,44(3)
	.loc 2 299 0
	.loc 2 298 0
	stw 5,48(3)
	.loc 2 299 0
	blr
	.cfi_endproc
.LFE1418:
	.size	_ZN10GuiElement11SetPositionEii, .-_ZN10GuiElement11SetPositionEii
	.section	.text._ZN10GuiElement11SetPositionEiii,"axG",@progbits,_ZN10GuiElement11SetPositionEiii,comdat
	.align 2
	.weak	_ZN10GuiElement11SetPositionEiii
	.type	_ZN10GuiElement11SetPositionEiii, @function
_ZN10GuiElement11SetPositionEiii:
.LFB1419:
	.loc 2 304 0
	.cfi_startproc
.LVL78:
	.loc 2 306 0
	stw 4,44(3)
	.loc 2 309 0
	.loc 2 307 0
	stw 5,48(3)
	.loc 2 308 0
	stw 6,52(3)
	.loc 2 309 0
	blr
	.cfi_endproc
.LFE1419:
	.size	_ZN10GuiElement11SetPositionEiii, .-_ZN10GuiElement11SetPositionEiii
	.section	.text._ZN10GuiElement12SetAlignmentEi,"axG",@progbits,_ZN10GuiElement12SetAlignmentEi,comdat
	.align 2
	.weak	_ZN10GuiElement12SetAlignmentEi
	.type	_ZN10GuiElement12SetAlignmentEi, @function
_ZN10GuiElement12SetAlignmentEi:
.LFB1421:
	.loc 2 316 0
	.cfi_startproc
.LVL79:
	.loc 2 316 0
	stw 4,68(3)
	blr
	.cfi_endproc
.LFE1421:
	.size	_ZN10GuiElement12SetAlignmentEi, .-_ZN10GuiElement12SetAlignmentEi
	.section	.text._ZNK10GuiElement12GetAlignmentEv,"axG",@progbits,_ZNK10GuiElement12GetAlignmentEv,comdat
	.align 2
	.weak	_ZNK10GuiElement12GetAlignmentEv
	.type	_ZNK10GuiElement12GetAlignmentEv, @function
_ZNK10GuiElement12GetAlignmentEv:
.LFB1422:
	.loc 2 318 0
	.cfi_startproc
.LVL80:
	.loc 2 318 0
	lwz 3,68(3)
.LVL81:
	blr
	.cfi_endproc
.LFE1422:
	.size	_ZNK10GuiElement12GetAlignmentEv, .-_ZNK10GuiElement12GetAlignmentEv
	.section	.text._ZN8GuiFrame4showEv,"axG",@progbits,_ZN8GuiFrame4showEv,comdat
	.align 2
	.weak	_ZN8GuiFrame4showEv
	.type	_ZN8GuiFrame4showEv, @function
_ZN8GuiFrame4showEv:
.LFB1431:
	.file 3 "d:/Projects/SaveGameManager/savegame-manager-gx/trunk/source/GUI/gui_frame.h"
	.loc 3 79 0
	.cfi_startproc
.LVL82:
	.loc 3 79 0
	blr
	.cfi_endproc
.LFE1431:
	.size	_ZN8GuiFrame4showEv, .-_ZN8GuiFrame4showEv
	.section	.text._ZN8GuiFrame4hideEv,"axG",@progbits,_ZN8GuiFrame4hideEv,comdat
	.align 2
	.weak	_ZN8GuiFrame4hideEv
	.type	_ZN8GuiFrame4hideEv, @function
_ZN8GuiFrame4hideEv:
.LFB1432:
	.loc 3 81 0
	.cfi_startproc
.LVL83:
	.loc 3 81 0
	blr
	.cfi_endproc
.LFE1432:
	.size	_ZN8GuiFrame4hideEv, .-_ZN8GuiFrame4hideEv
	.section	.text._ZN8GuiFrame4execEv,"axG",@progbits,_ZN8GuiFrame4execEv,comdat
	.align 2
	.weak	_ZN8GuiFrame4execEv
	.type	_ZN8GuiFrame4execEv, @function
_ZN8GuiFrame4execEv:
.LFB1433:
	.loc 3 83 0
	.cfi_startproc
.LVL84:
	.loc 3 83 0
	blr
	.cfi_endproc
.LFE1433:
	.size	_ZN8GuiFrame4execEv, .-_ZN8GuiFrame4execEv
	.section	.text._ZN8GuiFrame12updateEventsEv,"axG",@progbits,_ZN8GuiFrame12updateEventsEv,comdat
	.align 2
	.weak	_ZN8GuiFrame12updateEventsEv
	.type	_ZN8GuiFrame12updateEventsEv, @function
_ZN8GuiFrame12updateEventsEv:
.LFB1434:
	.loc 3 85 0
	.cfi_startproc
.LVL85:
	.loc 3 85 0
	blr
	.cfi_endproc
.LFE1434:
	.size	_ZN8GuiFrame12updateEventsEv, .-_ZN8GuiFrame12updateEventsEv
	.section	.text._ZN7sigslot17_connection_base3IP9GuiButtoniRK6_POINTNS_15single_threadedEED2Ev,"axG",@progbits,_ZN7sigslot17_connection_base3IP9GuiButtoniRK6_POINTNS_15single_threadedEED5Ev,comdat
	.align 2
	.weak	_ZN7sigslot17_connection_base3IP9GuiButtoniRK6_POINTNS_15single_threadedEED2Ev
	.type	_ZN7sigslot17_connection_base3IP9GuiButtoniRK6_POINTNS_15single_threadedEED2Ev, @function
_ZN7sigslot17_connection_base3IP9GuiButtoniRK6_POINTNS_15single_threadedEED2Ev:
.LFB1698:
	.loc 1 387 0
	.cfi_startproc
.LVL86:
.LBB1747:
	.loc 1 387 0
	lis 9,_ZTVN7sigslot17_connection_base3IP9GuiButtoniRK6_POINTNS_15single_threadedEEE+8@ha
.LBE1747:
.LBB1748:
	la 0,_ZTVN7sigslot17_connection_base3IP9GuiButtoniRK6_POINTNS_15single_threadedEEE+8@l(9)
	stw 0,0(3)
.LBE1748:
	blr
	.cfi_endproc
.LFE1698:
	.size	_ZN7sigslot17_connection_base3IP9GuiButtoniRK6_POINTNS_15single_threadedEED2Ev, .-_ZN7sigslot17_connection_base3IP9GuiButtoniRK6_POINTNS_15single_threadedEED2Ev
	.section	.text._ZN7sigslot12_connection3I9GuiNumpadP9GuiButtoniRK6_POINTNS_15single_threadedEED2Ev,"axG",@progbits,_ZN7sigslot12_connection3I9GuiNumpadP9GuiButtoniRK6_POINTNS_15single_threadedEED5Ev,comdat
	.align 2
	.weak	_ZN7sigslot12_connection3I9GuiNumpadP9GuiButtoniRK6_POINTNS_15single_threadedEED2Ev
	.type	_ZN7sigslot12_connection3I9GuiNumpadP9GuiButtoniRK6_POINTNS_15single_threadedEED2Ev, @function
_ZN7sigslot12_connection3I9GuiNumpadP9GuiButtoniRK6_POINTNS_15single_threadedEED2Ev:
.LFB1925:
	.loc 1 1783 0
	.cfi_startproc
.LVL87:
.LBB1749:
.LBB1750:
.LBB1751:
.LBB1752:
	.loc 1 387 0
	lis 9,_ZTVN7sigslot17_connection_base3IP9GuiButtoniRK6_POINTNS_15single_threadedEEE+8@ha
.LBE1752:
.LBE1751:
.LBE1750:
.LBE1749:
	.loc 1 1786 0
.LBB1756:
.LBB1755:
.LBB1754:
.LBB1753:
	.loc 1 387 0
	la 0,_ZTVN7sigslot17_connection_base3IP9GuiButtoniRK6_POINTNS_15single_threadedEEE+8@l(9)
	stw 0,0(3)
.LBE1753:
.LBE1754:
.LBE1755:
.LBE1756:
	.loc 1 1786 0
	blr
	.cfi_endproc
.LFE1925:
	.size	_ZN7sigslot12_connection3I9GuiNumpadP9GuiButtoniRK6_POINTNS_15single_threadedEED2Ev, .-_ZN7sigslot12_connection3I9GuiNumpadP9GuiButtoniRK6_POINTNS_15single_threadedEED2Ev
	.section	.text._ZNK7sigslot12_connection3I9GuiNumpadP9GuiButtoniRK6_POINTNS_15single_threadedEE7getdestEv,"axG",@progbits,_ZNK7sigslot12_connection3I9GuiNumpadP9GuiButtoniRK6_POINTNS_15single_threadedEE7getdestEv,comdat
	.align 2
	.weak	_ZNK7sigslot12_connection3I9GuiNumpadP9GuiButtoniRK6_POINTNS_15single_threadedEE7getdestEv
	.type	_ZNK7sigslot12_connection3I9GuiNumpadP9GuiButtoniRK6_POINTNS_15single_threadedEE7getdestEv, @function
_ZNK7sigslot12_connection3I9GuiNumpadP9GuiButtoniRK6_POINTNS_15single_threadedEE7getdestEv:
.LFB1928:
	.loc 1 1804 0
	.cfi_startproc
.LVL88:
	.loc 1 1806 0
	lwz 9,4(3)
	li 3,0
.LVL89:
	cmpwi 7,9,0
	beqlr- 7
	.loc 1 1806 0 is_stmt 0 discriminator 1
	addi 3,9,176
	.loc 1 1807 0 is_stmt 1 discriminator 1
	blr
	.cfi_endproc
.LFE1928:
	.size	_ZNK7sigslot12_connection3I9GuiNumpadP9GuiButtoniRK6_POINTNS_15single_threadedEE7getdestEv, .-_ZNK7sigslot12_connection3I9GuiNumpadP9GuiButtoniRK6_POINTNS_15single_threadedEE7getdestEv
	.section	.text._ZN7sigslot12_connection3I9GuiNumpadP9GuiButtoniRK6_POINTNS_15single_threadedEE4emitES3_iS6_,"axG",@progbits,_ZN7sigslot12_connection3I9GuiNumpadP9GuiButtoniRK6_POINTNS_15single_threadedEE4emitES3_iS6_,comdat
	.align 2
	.weak	_ZN7sigslot12_connection3I9GuiNumpadP9GuiButtoniRK6_POINTNS_15single_threadedEE4emitES3_iS6_
	.type	_ZN7sigslot12_connection3I9GuiNumpadP9GuiButtoniRK6_POINTNS_15single_threadedEE4emitES3_iS6_, @function
_ZN7sigslot12_connection3I9GuiNumpadP9GuiButtoniRK6_POINTNS_15single_threadedEE4emitES3_iS6_:
.LFB1929:
	.loc 1 1799 0
	.cfi_startproc
.LVL90:
	mflr 0
	stwu 1,-8(1)
.LCFI18:
	.cfi_def_cfa_offset 8
	.cfi_register 65, 0
	stw 0,12(1)
	.loc 1 1801 0
	lwz 0,8(3)
	.cfi_offset 65, 4
	lwz 11,4(3)
	andi. 9,0,1
	lwz 9,12(3)
	bne- 0,.L76
	mtctr 0
	add 3,11,9
.LVL91:
	bctrl
.LVL92:
	.loc 1 1802 0
	lwz 0,12(1)
	addi 1,1,8
	.cfi_remember_state
.LCFI19:
	.cfi_def_cfa_offset 0
	mtlr 0
	blr
.LVL93:
.L76:
.LCFI20:
	.cfi_restore_state
	.loc 1 1801 0 discriminator 1
	lwzx 10,11,9
	add 3,11,9
.LVL94:
	add 9,10,0
	lwz 0,-1(9)
	mtctr 0
	bctrl
.LVL95:
	.loc 1 1802 0 discriminator 1
	lwz 0,12(1)
	addi 1,1,8
.LCFI21:
	.cfi_def_cfa_offset 0
	mtlr 0
	blr
	.cfi_endproc
.LFE1929:
	.size	_ZN7sigslot12_connection3I9GuiNumpadP9GuiButtoniRK6_POINTNS_15single_threadedEE4emitES3_iS6_, .-_ZN7sigslot12_connection3I9GuiNumpadP9GuiButtoniRK6_POINTNS_15single_threadedEE4emitES3_iS6_
	.section	.text._ZN7sigslot12_connection3I9GuiNumpadP9GuiButtoniRK6_POINTNS_15single_threadedEE9duplicateEPNS_9has_slotsIS7_EE,"axG",@progbits,_ZN7sigslot12_connection3I9GuiNumpadP9GuiButtoniRK6_POINTNS_15single_threadedEE9duplicateEPNS_9has_slotsIS7_EE,comdat
	.align 2
	.weak	_ZN7sigslot12_connection3I9GuiNumpadP9GuiButtoniRK6_POINTNS_15single_threadedEE9duplicateEPNS_9has_slotsIS7_EE
	.type	_ZN7sigslot12_connection3I9GuiNumpadP9GuiButtoniRK6_POINTNS_15single_threadedEE9duplicateEPNS_9has_slotsIS7_EE, @function
_ZN7sigslot12_connection3I9GuiNumpadP9GuiButtoniRK6_POINTNS_15single_threadedEE9duplicateEPNS_9has_slotsIS7_EE:
.LFB1937:
	.loc 1 1794 0
	.cfi_startproc
.LVL96:
	stwu 1,-16(1)
.LCFI22:
	.cfi_def_cfa_offset 16
	mflr 0
	stw 30,8(1)
	mr 30,4
	.cfi_offset 30, -8
	.cfi_register 65, 0
	stw 31,12(1)
	mr 31,3
	.cfi_offset 31, -4
	.loc 1 1796 0
	li 3,16
.LVL97:
	.loc 1 1794 0
	stw 0,20(1)
	.loc 1 1796 0
	.cfi_offset 65, 4
	bl _Znwj
.LVL98:
	cmpwi 7,30,0
	li 0,0
	beq- 7,.L79
	.loc 1 1796 0 is_stmt 0 discriminator 1
	addi 0,30,-176
.L79:
.LVL99:
	.loc 1 1796 0 discriminator 3
	lwz 11,8(31)
.LVL100:
.LBB1757:
.LBB1758:
	.loc 1 1778 0 is_stmt 1 discriminator 3
	lis 10,_ZTVN7sigslot12_connection3I9GuiNumpadP9GuiButtoniRK6_POINTNS_15single_threadedEEE+8@ha
.LBE1758:
.LBE1757:
	.loc 1 1796 0 discriminator 3
	lwz 9,12(31)
.LVL101:
.LBB1761:
.LBB1759:
	.loc 1 1778 0 discriminator 3
	la 10,_ZTVN7sigslot12_connection3I9GuiNumpadP9GuiButtoniRK6_POINTNS_15single_threadedEEE+8@l(10)
	.loc 1 1780 0 discriminator 3
	stw 11,8(3)
	stw 9,12(3)
	.loc 1 1779 0 discriminator 3
	stw 0,4(3)
.LBE1759:
.LBE1761:
	.loc 1 1797 0 discriminator 3
	lwz 0,20(1)
.LVL102:
	lwz 30,8(1)
.LVL103:
	mtlr 0
	lwz 31,12(1)
.LVL104:
.LBB1762:
.LBB1760:
	.loc 1 1778 0 discriminator 3
	stw 10,0(3)
.LBE1760:
.LBE1762:
	.loc 1 1797 0 discriminator 3
	addi 1,1,16
.LCFI23:
	.cfi_def_cfa_offset 0
	.cfi_restore 31
	.cfi_restore 30
	blr
	.cfi_endproc
.LFE1937:
	.size	_ZN7sigslot12_connection3I9GuiNumpadP9GuiButtoniRK6_POINTNS_15single_threadedEE9duplicateEPNS_9has_slotsIS7_EE, .-_ZN7sigslot12_connection3I9GuiNumpadP9GuiButtoniRK6_POINTNS_15single_threadedEE9duplicateEPNS_9has_slotsIS7_EE
	.section	.text._ZN7sigslot12_connection3I9GuiNumpadP9GuiButtoniRK6_POINTNS_15single_threadedEE5cloneEv,"axG",@progbits,_ZN7sigslot12_connection3I9GuiNumpadP9GuiButtoniRK6_POINTNS_15single_threadedEE5cloneEv,comdat
	.align 2
	.weak	_ZN7sigslot12_connection3I9GuiNumpadP9GuiButtoniRK6_POINTNS_15single_threadedEE5cloneEv
	.type	_ZN7sigslot12_connection3I9GuiNumpadP9GuiButtoniRK6_POINTNS_15single_threadedEE5cloneEv, @function
_ZN7sigslot12_connection3I9GuiNumpadP9GuiButtoniRK6_POINTNS_15single_threadedEE5cloneEv:
.LFB1930:
	.loc 1 1789 0
	.cfi_startproc
.LVL105:
	stwu 1,-16(1)
.LCFI24:
	.cfi_def_cfa_offset 16
	mflr 0
	stw 31,12(1)
	mr 31,3
	.cfi_offset 31, -4
	.cfi_register 65, 0
	.loc 1 1791 0
	li 3,16
.LVL106:
	.loc 1 1789 0
	stw 0,20(1)
	.loc 1 1791 0
	.cfi_offset 65, 4
	bl _Znwj
	.file 4 "d:/Projects/SaveGameManager/savegame-manager-gx/trunk/source/GUI/gui_numpad.cpp"
	.loc 4 171 0
	lwz 0,4(31)
.LVL107:
.LBB1763:
.LBB1764:
	.loc 1 1767 0
	lis 11,_ZTVN7sigslot12_connection3I9GuiNumpadP9GuiButtoniRK6_POINTNS_15single_threadedEEE+8@ha
	la 11,_ZTVN7sigslot12_connection3I9GuiNumpadP9GuiButtoniRK6_POINTNS_15single_threadedEEE+8@l(11)
	stw 0,4(3)
	stw 11,0(3)
	lwz 10,8(31)
	lwz 11,12(31)
	stw 10,8(3)
	stw 11,12(3)
.LBE1764:
.LBE1763:
	.loc 1 1792 0
	lwz 0,20(1)
	lwz 31,12(1)
.LVL108:
	mtlr 0
	addi 1,1,16
.LCFI25:
	.cfi_def_cfa_offset 0
	.cfi_restore 31
	blr
	.cfi_endproc
.LFE1930:
	.size	_ZN7sigslot12_connection3I9GuiNumpadP9GuiButtoniRK6_POINTNS_15single_threadedEE5cloneEv, .-_ZN7sigslot12_connection3I9GuiNumpadP9GuiButtoniRK6_POINTNS_15single_threadedEE5cloneEv
	.section	.text._ZN7sigslot12_connection3I9GuiNumpadP9GuiButtoniRK6_POINTNS_15single_threadedEED0Ev,"axG",@progbits,_ZN7sigslot12_connection3I9GuiNumpadP9GuiButtoniRK6_POINTNS_15single_threadedEED5Ev,comdat
	.align 2
	.weak	_ZN7sigslot12_connection3I9GuiNumpadP9GuiButtoniRK6_POINTNS_15single_threadedEED0Ev
	.type	_ZN7sigslot12_connection3I9GuiNumpadP9GuiButtoniRK6_POINTNS_15single_threadedEED0Ev, @function
_ZN7sigslot12_connection3I9GuiNumpadP9GuiButtoniRK6_POINTNS_15single_threadedEED0Ev:
.LFB1927:
	.loc 1 1783 0
	.cfi_startproc
.LVL109:
	mflr 0
	stwu 1,-8(1)
.LCFI26:
	.cfi_def_cfa_offset 8
	.cfi_register 65, 0
.LBB1765:
.LBB1766:
.LBB1767:
.LBB1768:
.LBB1769:
.LBB1770:
	.loc 1 387 0
	lis 9,_ZTVN7sigslot17_connection_base3IP9GuiButtoniRK6_POINTNS_15single_threadedEEE+8@ha
.LBE1770:
.LBE1769:
.LBE1768:
.LBE1767:
.LBE1766:
.LBE1765:
	.loc 1 1783 0
	stw 0,12(1)
.LBB1776:
.LBB1775:
.LBB1774:
.LBB1773:
.LBB1772:
.LBB1771:
	.loc 1 387 0
	la 0,_ZTVN7sigslot17_connection_base3IP9GuiButtoniRK6_POINTNS_15single_threadedEEE+8@l(9)
	.cfi_offset 65, 4
	stw 0,0(3)
.LBE1771:
.LBE1772:
.LBE1773:
.LBE1774:
.LBE1775:
.LBE1776:
	.loc 1 1786 0
	bl _ZdlPv
.LVL110:
	lwz 0,12(1)
	addi 1,1,8
.LCFI27:
	.cfi_def_cfa_offset 0
	mtlr 0
	blr
	.cfi_endproc
.LFE1927:
	.size	_ZN7sigslot12_connection3I9GuiNumpadP9GuiButtoniRK6_POINTNS_15single_threadedEED0Ev, .-_ZN7sigslot12_connection3I9GuiNumpadP9GuiButtoniRK6_POINTNS_15single_threadedEED0Ev
	.section	.text._ZN7sigslot17_connection_base3IP9GuiButtoniRK6_POINTNS_15single_threadedEED0Ev,"axG",@progbits,_ZN7sigslot17_connection_base3IP9GuiButtoniRK6_POINTNS_15single_threadedEED5Ev,comdat
	.align 2
	.weak	_ZN7sigslot17_connection_base3IP9GuiButtoniRK6_POINTNS_15single_threadedEED0Ev
	.type	_ZN7sigslot17_connection_base3IP9GuiButtoniRK6_POINTNS_15single_threadedEED0Ev, @function
_ZN7sigslot17_connection_base3IP9GuiButtoniRK6_POINTNS_15single_threadedEED0Ev:
.LFB1700:
	.loc 1 387 0
	.cfi_startproc
.LVL111:
	mflr 0
	stwu 1,-8(1)
.LCFI28:
	.cfi_def_cfa_offset 8
	.cfi_register 65, 0
.LBB1777:
.LBB1778:
.LBB1779:
	lis 9,_ZTVN7sigslot17_connection_base3IP9GuiButtoniRK6_POINTNS_15single_threadedEEE+8@ha
.LBE1779:
.LBE1778:
.LBE1777:
	stw 0,12(1)
.LBB1782:
.LBB1781:
.LBB1780:
	.loc 1 387 0
	la 0,_ZTVN7sigslot17_connection_base3IP9GuiButtoniRK6_POINTNS_15single_threadedEEE+8@l(9)
	.cfi_offset 65, 4
	stw 0,0(3)
.LBE1780:
.LBE1781:
.LBE1782:
	bl _ZdlPv
.LVL112:
	lwz 0,12(1)
	addi 1,1,8
.LCFI29:
	.cfi_def_cfa_offset 0
	mtlr 0
	blr
	.cfi_endproc
.LFE1700:
	.size	_ZN7sigslot17_connection_base3IP9GuiButtoniRK6_POINTNS_15single_threadedEED0Ev, .-_ZN7sigslot17_connection_base3IP9GuiButtoniRK6_POINTNS_15single_threadedEED0Ev
	.section	.text._ZN7sigslot15single_threadedD0Ev,"axG",@progbits,_ZN7sigslot15single_threadedD5Ev,comdat
	.align 2
	.weak	_ZN7sigslot15single_threadedD0Ev
	.type	_ZN7sigslot15single_threadedD0Ev, @function
_ZN7sigslot15single_threadedD0Ev:
.LFB1150:
	.loc 1 104 0
	.cfi_startproc
.LVL113:
	mflr 0
	stwu 1,-8(1)
.LCFI30:
	.cfi_def_cfa_offset 8
	.cfi_register 65, 0
.LBB1783:
.LBB1784:
.LBB1785:
	.loc 1 105 0
	lis 9,_ZTVN7sigslot15single_threadedE+8@ha
.LBE1785:
.LBE1784:
.LBE1783:
	.loc 1 104 0
	stw 0,12(1)
.LBB1788:
.LBB1787:
.LBB1786:
	.loc 1 105 0
	la 0,_ZTVN7sigslot15single_threadedE+8@l(9)
	.cfi_offset 65, 4
	stw 0,0(3)
.LBE1786:
.LBE1787:
.LBE1788:
	.loc 1 107 0
	bl _ZdlPv
.LVL114:
	lwz 0,12(1)
	addi 1,1,8
.LCFI31:
	.cfi_def_cfa_offset 0
	mtlr 0
	blr
	.cfi_endproc
.LFE1150:
	.size	_ZN7sigslot15single_threadedD0Ev, .-_ZN7sigslot15single_threadedD0Ev
	.section	.text._ZN16SimpleGuiTriggerD2Ev,"axG",@progbits,_ZN16SimpleGuiTriggerD5Ev,comdat
	.align 2
	.weak	_ZN16SimpleGuiTriggerD2Ev
	.type	_ZN16SimpleGuiTriggerD2Ev, @function
_ZN16SimpleGuiTriggerD2Ev:
.LFB1921:
	.file 5 "d:/Projects/SaveGameManager/savegame-manager-gx/trunk/source/GUI/gui_trigger.h"
	.loc 5 91 0
	.cfi_startproc
.LVL115:
	mflr 0
	stwu 1,-8(1)
.LCFI32:
	.cfi_def_cfa_offset 8
	.cfi_register 65, 0
.LBB1790:
	lis 9,_ZTV16SimpleGuiTrigger+8@ha
.LBE1790:
	stw 0,12(1)
.LBB1791:
	.loc 5 91 0
	la 0,_ZTV16SimpleGuiTrigger+8@l(9)
	.cfi_offset 65, 4
	stw 0,0(3)
	bl _ZN10GuiTriggerD2Ev
.LVL116:
.LBE1791:
	lwz 0,12(1)
	addi 1,1,8
.LCFI33:
	.cfi_def_cfa_offset 0
	mtlr 0
	blr
	.cfi_endproc
.LFE1921:
	.size	_ZN16SimpleGuiTriggerD2Ev, .-_ZN16SimpleGuiTriggerD2Ev
	.section	".text"
	.align 2
	.globl _ZN9GuiNumpad16OnNormalKeyPressEP9GuiButtoniRK6_POINT
	.type	_ZN9GuiNumpad16OnNormalKeyPressEP9GuiButtoniRK6_POINT, @function
_ZN9GuiNumpad16OnNormalKeyPressEP9GuiButtoniRK6_POINT:
.LFB1570:
	.loc 4 140 0
	.cfi_startproc
.LVL117:
	mflr 0
	stwu 1,-24(1)
.LCFI34:
	.cfi_def_cfa_offset 24
	.cfi_register 65, 0
	stw 30,16(1)
	mr 30,4
	.cfi_offset 30, -8
	stw 0,28(1)
	stw 31,20(1)
	mr 31,3
	.cfi_offset 31, -4
	.cfi_offset 65, 4
.LBB1792:
.LBB1793:
	.loc 4 144 0
	lwz 0,544(3)
.LBE1793:
.LBE1792:
	.loc 4 140 0
	stw 29,12(1)
.LBB1796:
.LBB1794:
	.loc 4 144 0
	cmpw 7,0,4
	beq- 7,.L107
	.cfi_offset 29, -12
.LVL118:
.L95:
	lwz 0,548(31)
	cmpw 7,0,30
	beq- 7,.L108
.L96:
.LVL119:
	lwz 0,552(31)
	cmpw 7,0,30
	beq- 7,.L109
.L97:
.LVL120:
	lwz 0,556(31)
	cmpw 7,0,30
	beq- 7,.L110
.L98:
.LVL121:
	lwz 0,560(31)
	cmpw 7,0,30
	beq- 7,.L111
.L99:
.LVL122:
	lwz 0,564(31)
	cmpw 7,0,30
	beq- 7,.L112
.L100:
.LVL123:
	lwz 0,568(31)
	cmpw 7,0,30
	beq- 7,.L113
.L101:
.LVL124:
	lwz 0,572(31)
	cmpw 7,0,30
	beq- 7,.L114
.L102:
.LVL125:
	lwz 0,576(31)
	cmpw 7,0,30
	beq- 7,.L115
.L103:
.LVL126:
	lwz 0,580(31)
	cmpw 7,0,30
	beq- 7,.L116
.L104:
.LVL127:
	lwz 0,584(31)
	cmpw 7,0,30
	beq- 7,.L117
.L105:
.LVL128:
	lwz 0,588(31)
	cmpw 7,0,30
	beq- 7,.L118
.LVL129:
.L94:
.LBE1794:
.LBE1796:
	.loc 4 154 0
	lwz 0,28(1)
	lwz 29,12(1)
	mtlr 0
	lwz 30,16(1)
	lwz 31,20(1)
.LVL130:
	addi 1,1,24
	.cfi_remember_state
.LCFI35:
	.cfi_def_cfa_offset 0
	.cfi_restore 31
	.cfi_restore 30
	.cfi_restore 29
	blr
.LVL131:
.L107:
.LCFI36:
	.cfi_restore_state
.LBB1797:
.LBB1795:
	.loc 4 147 0
	addi 29,3,220
	mr 3,29
.LVL132:
	bl strlen
.LVL133:
	lwz 9,204(31)
	.loc 4 146 0
	lbz 11,208(31)
.LVL134:
	.loc 4 147 0
	addi 0,9,-1
	cmplw 7,3,0
	bge+ 7,.L95
	.loc 4 149 0
	add 3,31,3
	.loc 4 150 0
	mr 4,29
	.loc 4 149 0
	stb 11,220(3)
	.loc 4 150 0
	lwz 3,476(31)
	lwz 9,0(3)
	lwz 0,200(9)
	mtctr 0
	bctrl
.LVL135:
	b .L95
.LVL136:
.L108:
	.loc 4 147 0
	addi 29,31,220
	mr 3,29
	bl strlen
	lwz 9,204(31)
	.loc 4 146 0
	lbz 11,209(31)
.LVL137:
	.loc 4 147 0
	addi 0,9,-1
	cmplw 7,3,0
	bge+ 7,.L96
	.loc 4 149 0
	add 3,31,3
	.loc 4 150 0
	mr 4,29
	.loc 4 149 0
	stb 11,220(3)
	.loc 4 150 0
	lwz 3,476(31)
	lwz 9,0(3)
	lwz 0,200(9)
	mtctr 0
	bctrl
.LVL138:
	b .L96
.LVL139:
.L109:
	.loc 4 147 0
	addi 29,31,220
	mr 3,29
	bl strlen
	lwz 9,204(31)
	.loc 4 146 0
	lbz 11,210(31)
.LVL140:
	.loc 4 147 0
	addi 0,9,-1
	cmplw 7,3,0
	bge+ 7,.L97
	.loc 4 149 0
	add 3,31,3
	.loc 4 150 0
	mr 4,29
	.loc 4 149 0
	stb 11,220(3)
	.loc 4 150 0
	lwz 3,476(31)
	lwz 9,0(3)
	lwz 0,200(9)
	mtctr 0
	bctrl
.LVL141:
	b .L97
.LVL142:
.L110:
	.loc 4 147 0
	addi 29,31,220
	mr 3,29
	bl strlen
	lwz 9,204(31)
	.loc 4 146 0
	lbz 11,211(31)
.LVL143:
	.loc 4 147 0
	addi 0,9,-1
	cmplw 7,3,0
	bge+ 7,.L98
	.loc 4 149 0
	add 3,31,3
	.loc 4 150 0
	mr 4,29
	.loc 4 149 0
	stb 11,220(3)
	.loc 4 150 0
	lwz 3,476(31)
	lwz 9,0(3)
	lwz 0,200(9)
	mtctr 0
	bctrl
.LVL144:
	b .L98
.LVL145:
.L111:
	.loc 4 147 0
	addi 29,31,220
	mr 3,29
	bl strlen
	lwz 9,204(31)
	.loc 4 146 0
	lbz 11,212(31)
.LVL146:
	.loc 4 147 0
	addi 0,9,-1
	cmplw 7,3,0
	bge+ 7,.L99
	.loc 4 149 0
	add 3,31,3
	.loc 4 150 0
	mr 4,29
	.loc 4 149 0
	stb 11,220(3)
	.loc 4 150 0
	lwz 3,476(31)
	lwz 9,0(3)
	lwz 0,200(9)
	mtctr 0
	bctrl
.LVL147:
	b .L99
.LVL148:
.L112:
	.loc 4 147 0
	addi 29,31,220
	mr 3,29
	bl strlen
	lwz 9,204(31)
	.loc 4 146 0
	lbz 11,213(31)
.LVL149:
	.loc 4 147 0
	addi 0,9,-1
	cmplw 7,3,0
	bge+ 7,.L100
	.loc 4 149 0
	add 3,31,3
	.loc 4 150 0
	mr 4,29
	.loc 4 149 0
	stb 11,220(3)
	.loc 4 150 0
	lwz 3,476(31)
	lwz 9,0(3)
	lwz 0,200(9)
	mtctr 0
	bctrl
.LVL150:
	b .L100
.LVL151:
.L113:
	.loc 4 147 0
	addi 29,31,220
	mr 3,29
	bl strlen
	lwz 9,204(31)
	.loc 4 146 0
	lbz 11,214(31)
.LVL152:
	.loc 4 147 0
	addi 0,9,-1
	cmplw 7,3,0
	bge+ 7,.L101
	.loc 4 149 0
	add 3,31,3
	.loc 4 150 0
	mr 4,29
	.loc 4 149 0
	stb 11,220(3)
	.loc 4 150 0
	lwz 3,476(31)
	lwz 9,0(3)
	lwz 0,200(9)
	mtctr 0
	bctrl
.LVL153:
	b .L101
.LVL154:
.L114:
	.loc 4 147 0
	addi 29,31,220
	mr 3,29
	bl strlen
	lwz 9,204(31)
	.loc 4 146 0
	lbz 11,215(31)
.LVL155:
	.loc 4 147 0
	addi 0,9,-1
	cmplw 7,3,0
	bge+ 7,.L102
	.loc 4 149 0
	add 3,31,3
	.loc 4 150 0
	mr 4,29
	.loc 4 149 0
	stb 11,220(3)
	.loc 4 150 0
	lwz 3,476(31)
	lwz 9,0(3)
	lwz 0,200(9)
	mtctr 0
	bctrl
.LVL156:
	b .L102
.LVL157:
.L115:
	.loc 4 147 0
	addi 29,31,220
	mr 3,29
	bl strlen
	lwz 9,204(31)
	.loc 4 146 0
	lbz 11,216(31)
.LVL158:
	.loc 4 147 0
	addi 0,9,-1
	cmplw 7,3,0
	bge+ 7,.L103
	.loc 4 149 0
	add 3,31,3
	.loc 4 150 0
	mr 4,29
	.loc 4 149 0
	stb 11,220(3)
	.loc 4 150 0
	lwz 3,476(31)
	lwz 9,0(3)
	lwz 0,200(9)
	mtctr 0
	bctrl
.LVL159:
	b .L103
.LVL160:
.L116:
	.loc 4 147 0
	addi 29,31,220
	mr 3,29
	bl strlen
	lwz 9,204(31)
	.loc 4 146 0
	lbz 11,217(31)
.LVL161:
	.loc 4 147 0
	addi 0,9,-1
	cmplw 7,3,0
	bge+ 7,.L104
	.loc 4 149 0
	add 3,31,3
	.loc 4 150 0
	mr 4,29
	.loc 4 149 0
	stb 11,220(3)
	.loc 4 150 0
	lwz 3,476(31)
	lwz 9,0(3)
	lwz 0,200(9)
	mtctr 0
	bctrl
.LVL162:
	b .L104
.LVL163:
.L117:
	.loc 4 147 0
	addi 29,31,220
	mr 3,29
	bl strlen
	lwz 9,204(31)
	.loc 4 146 0
	lbz 11,218(31)
.LVL164:
	.loc 4 147 0
	addi 0,9,-1
	cmplw 7,3,0
	bge+ 7,.L105
	.loc 4 149 0
	add 3,31,3
	.loc 4 150 0
	mr 4,29
	.loc 4 149 0
	stb 11,220(3)
	.loc 4 150 0
	lwz 3,476(31)
	lwz 9,0(3)
	lwz 0,200(9)
	mtctr 0
	bctrl
.LVL165:
	b .L105
.LVL166:
.L118:
	.loc 4 147 0
	addi 30,31,220
.LVL167:
	mr 3,30
	bl strlen
	lwz 9,204(31)
	.loc 4 146 0
	lbz 11,219(31)
.LVL168:
	.loc 4 147 0
	addi 0,9,-1
	cmplw 7,3,0
	bge+ 7,.L94
	.loc 4 149 0
	add 3,31,3
	.loc 4 150 0
	mr 4,30
	.loc 4 149 0
	stb 11,220(3)
	.loc 4 150 0
	lwz 3,476(31)
	lwz 9,0(3)
	lwz 0,200(9)
	mtctr 0
	bctrl
.LVL169:
	b .L94
.LBE1795:
.LBE1797:
	.cfi_endproc
.LFE1570:
	.size	_ZN9GuiNumpad16OnNormalKeyPressEP9GuiButtoniRK6_POINT, .-_ZN9GuiNumpad16OnNormalKeyPressEP9GuiButtoniRK6_POINT
	.align 2
	.globl _ZN9GuiNumpad17OnSpecialKeyPressEP9GuiButtoniRK6_POINT
	.type	_ZN9GuiNumpad17OnSpecialKeyPressEP9GuiButtoniRK6_POINT, @function
_ZN9GuiNumpad17OnSpecialKeyPressEP9GuiButtoniRK6_POINT:
.LFB1571:
	.loc 4 157 0
	.cfi_startproc
.LVL170:
	mflr 0
	stwu 1,-16(1)
.LCFI37:
	.cfi_def_cfa_offset 16
	.cfi_register 65, 0
	stw 31,12(1)
	mr 31,3
	.cfi_offset 31, -4
	stw 0,20(1)
	stw 30,8(1)
	.loc 4 158 0
	lwz 0,484(3)
	.cfi_offset 30, -8
	.cfi_offset 65, 4
	cmpw 7,0,4
	beq- 7,.L123
	.loc 4 166 0
	lwz 0,492(3)
	cmpw 7,0,4
	beq- 7,.L124
.L119:
	.loc 4 171 0
	lwz 0,20(1)
	lwz 30,8(1)
	mtlr 0
	lwz 31,12(1)
	addi 1,1,16
	.cfi_remember_state
.LCFI38:
	.cfi_def_cfa_offset 0
	.cfi_restore 31
	.cfi_restore 30
	blr
.L123:
.LCFI39:
	.cfi_restore_state
	.loc 4 160 0
	lbz 0,220(3)
	cmpwi 7,0,0
	beq+ 7,.L119
.LVL171:
.LBB1800:
.LBB1801:
	.loc 4 162 0
	addi 30,3,220
	mr 3,30
.LVL172:
	bl strlen
.LVL173:
	li 0,0
	add 3,31,3
	stb 0,219(3)
	b .L122
.LVL174:
.L124:
.LBE1801:
.LBE1800:
	.loc 4 168 0
	addi 30,3,220
	li 4,0
.LVL175:
	mr 3,30
	li 5,256
.LVL176:
	bl memset
.LVL177:
.L122:
	.loc 4 169 0
	lwz 3,476(31)
	mr 4,30
	lwz 9,0(3)
	lwz 0,200(9)
	mtctr 0
	bctrl
	.loc 4 171 0
	lwz 0,20(1)
	lwz 30,8(1)
	mtlr 0
	lwz 31,12(1)
.LVL178:
	addi 1,1,16
	.cfi_restore 30
	.cfi_restore 31
.LCFI40:
	.cfi_def_cfa_offset 0
	blr
	.cfi_endproc
.LFE1571:
	.size	_ZN9GuiNumpad17OnSpecialKeyPressEP9GuiButtoniRK6_POINT, .-_ZN9GuiNumpad17OnSpecialKeyPressEP9GuiButtoniRK6_POINT
	.section	.text._ZN16SimpleGuiTriggerD0Ev,"axG",@progbits,_ZN16SimpleGuiTriggerD5Ev,comdat
	.align 2
	.weak	_ZN16SimpleGuiTriggerD0Ev
	.type	_ZN16SimpleGuiTriggerD0Ev, @function
_ZN16SimpleGuiTriggerD0Ev:
.LFB1923:
	.loc 5 91 0
	.cfi_startproc
.LVL179:
	mflr 0
	stwu 1,-16(1)
.LCFI41:
	.cfi_def_cfa_offset 16
	.cfi_register 65, 0
.LBB1805:
.LBB1806:
.LBB1807:
	lis 9,_ZTV16SimpleGuiTrigger+8@ha
.LBE1807:
.LBE1806:
.LBE1805:
	stw 31,12(1)
	mr 31,3
	.cfi_offset 31, -4
.LVL180:
	stw 0,20(1)
.LBB1810:
.LBB1809:
.LBB1808:
	.loc 5 91 0
	la 0,_ZTV16SimpleGuiTrigger+8@l(9)
	.cfi_offset 65, 4
	stw 0,0(3)
	bl _ZN10GuiTriggerD2Ev
.LVL181:
.LBE1808:
.LBE1809:
.LBE1810:
	mr 3,31
	bl _ZdlPv
	lwz 0,20(1)
	lwz 31,12(1)
.LVL182:
	mtlr 0
	addi 1,1,16
.LCFI42:
	.cfi_def_cfa_offset 0
	.cfi_restore 31
	blr
	.cfi_endproc
.LFE1923:
	.size	_ZN16SimpleGuiTriggerD0Ev, .-_ZN16SimpleGuiTriggerD0Ev
	.section	.text._ZNSt8_Rb_treeIPN7sigslot12_signal_baseINS0_15single_threadedEEES4_St9_IdentityIS4_ESt4lessIS4_ESaIS4_EE8_M_eraseEPSt13_Rb_tree_nodeIS4_E,"axG",@progbits,_ZNSt8_Rb_treeIPN7sigslot12_signal_baseINS0_15single_threadedEEES4_St9_IdentityIS4_ESt4lessIS4_ESaIS4_EE8_M_eraseEPSt13_Rb_tree_nodeIS4_E,comdat
	.align 2
	.weak	_ZNSt8_Rb_treeIPN7sigslot12_signal_baseINS0_15single_threadedEEES4_St9_IdentityIS4_ESt4lessIS4_ESaIS4_EE8_M_eraseEPSt13_Rb_tree_nodeIS4_E
	.type	_ZNSt8_Rb_treeIPN7sigslot12_signal_baseINS0_15single_threadedEEES4_St9_IdentityIS4_ESt4lessIS4_ESaIS4_EE8_M_eraseEPSt13_Rb_tree_nodeIS4_E, @function
_ZNSt8_Rb_treeIPN7sigslot12_signal_baseINS0_15single_threadedEEES4_St9_IdentityIS4_ESt4lessIS4_ESaIS4_EE8_M_eraseEPSt13_Rb_tree_nodeIS4_E:
.LFB1689:
	.file 6 "d:\\devkitpro\\devkitppc\\bin\\../lib/gcc/powerpc-eabi/4.6.3/../../../../powerpc-eabi/include/c++/4.6.3/bits/stl_tree.h"
	.loc 6 1068 0
	.cfi_startproc
.LVL183:
	stwu 1,-56(1)
.LCFI43:
	.cfi_def_cfa_offset 56
	mflr 0
	stw 22,16(1)
.LBB1927:
	.loc 6 1072 0
	mr. 22,4
	.cfi_offset 22, -40
	.cfi_register 65, 0
.LBE1927:
	.loc 6 1068 0
	stw 30,48(1)
	mr 30,3
	.cfi_offset 30, -8
	stw 0,60(1)
	stw 21,12(1)
	stw 23,20(1)
	stw 24,24(1)
	stw 25,28(1)
	stw 26,32(1)
	stw 27,36(1)
	stw 28,40(1)
	stw 29,44(1)
	stw 31,52(1)
.LBB2012:
	.loc 6 1072 0
	beq- 0,.L128
	.cfi_offset 31, -4
	.cfi_offset 29, -12
	.cfi_offset 28, -16
	.cfi_offset 27, -20
	.cfi_offset 26, -24
	.cfi_offset 25, -28
	.cfi_offset 24, -32
	.cfi_offset 23, -36
	.cfi_offset 21, -44
	.cfi_offset 65, 4
.LVL184:
.L174:
	.loc 4 171 0
	lwz 27,12(22)
.LVL185:
.LBB1928:
.LBB1929:
.LBB1930:
	.loc 6 1072 0
	cmpwi 7,27,0
	beq- 7,.L130
.LVL186:
.L175:
.LBE1930:
	.loc 4 171 0
	lwz 26,12(27)
.LVL187:
.LBB2006:
.LBB1931:
.LBB1932:
.LBB1933:
	.loc 6 1072 0
	cmpwi 7,26,0
	beq- 7,.L131
.LVL188:
.L176:
.LBE1933:
	.loc 4 171 0
	lwz 25,12(26)
.LVL189:
.LBB1999:
.LBB1934:
.LBB1935:
.LBB1936:
	.loc 6 1072 0
	cmpwi 7,25,0
	beq- 7,.L132
.LVL190:
.L177:
.LBE1936:
	.loc 4 171 0
	lwz 24,12(25)
.LVL191:
.LBB1992:
.LBB1937:
.LBB1938:
.LBB1939:
	.loc 6 1072 0
	cmpwi 7,24,0
	beq- 7,.L133
.LVL192:
.L178:
.LBE1939:
	.loc 4 171 0
	lwz 23,12(24)
.LVL193:
.LBB1985:
.LBB1940:
.LBB1941:
.LBB1942:
	.loc 6 1072 0
	cmpwi 7,23,0
	beq- 7,.L134
.LVL194:
.L179:
.LBE1942:
	.loc 4 171 0
	lwz 28,12(23)
.LVL195:
.LBB1978:
.LBB1943:
.LBB1944:
.LBB1945:
	.loc 6 1072 0
	cmpwi 7,28,0
	beq- 7,.L135
.LVL196:
.L180:
.LBE1945:
	.loc 4 171 0
	lwz 29,12(28)
.LVL197:
.LBB1971:
.LBB1946:
.LBB1947:
.LBB1948:
	.loc 6 1072 0
	cmpwi 7,29,0
	beq- 7,.L136
.LVL198:
.L181:
.LBE1948:
	.loc 4 171 0
	lwz 31,12(29)
.LVL199:
.LBB1964:
.LBB1949:
.LBB1950:
.LBB1951:
	.loc 6 1072 0
	cmpwi 7,31,0
	beq- 7,.L137
.LVL200:
.L182:
.LBB1952:
	.loc 6 1074 0
	lwz 4,12(31)
	mr 3,30
	bl _ZNSt8_Rb_treeIPN7sigslot12_signal_baseINS0_15single_threadedEEES4_St9_IdentityIS4_ESt4lessIS4_ESaIS4_EE8_M_eraseEPSt13_Rb_tree_nodeIS4_E
.LBE1952:
.LBE1951:
	.loc 4 171 0
	lwz 21,8(31)
.LVL201:
.LBB1958:
.LBB1957:
.LBB1953:
.LBB1954:
.LBB1955:
.LBB1956:
	.file 7 "d:\\devkitpro\\devkitppc\\bin\\../lib/gcc/powerpc-eabi/4.6.3/../../../../powerpc-eabi/include/c++/4.6.3/ext/new_allocator.h"
	.loc 7 98 0
	mr 3,31
	bl _ZdlPv
.LVL202:
.LBE1956:
.LBE1955:
.LBE1954:
.LBE1953:
.LBE1957:
	.loc 6 1072 0
	cmpwi 7,21,0
	.loc 6 1077 0
	mr 31,21
.LVL203:
	.loc 6 1072 0
	bne+ 7,.L182
.LVL204:
.L137:
.LBE1958:
.LBE1950:
.LBE1949:
.LBE1964:
	.loc 4 171 0
	lwz 31,8(29)
.LVL205:
.LBB1965:
.LBB1963:
.LBB1959:
.LBB1960:
.LBB1961:
.LBB1962:
	.loc 7 98 0
	mr 3,29
	bl _ZdlPv
.LVL206:
.LBE1962:
.LBE1961:
.LBE1960:
.LBE1959:
.LBE1963:
	.loc 6 1072 0
	cmpwi 7,31,0
	beq- 7,.L136
	.loc 6 1077 0
	mr 29,31
.LVL207:
	b .L181
.LVL208:
.L136:
.LBE1965:
.LBE1947:
.LBE1946:
.LBE1971:
	.loc 4 171 0
	lwz 31,8(28)
.LVL209:
.LBB1972:
.LBB1970:
.LBB1966:
.LBB1967:
.LBB1968:
.LBB1969:
	.loc 7 98 0
	mr 3,28
	bl _ZdlPv
.LVL210:
.LBE1969:
.LBE1968:
.LBE1967:
.LBE1966:
.LBE1970:
	.loc 6 1072 0
	cmpwi 7,31,0
	beq- 7,.L135
	.loc 6 1077 0
	mr 28,31
.LVL211:
	b .L180
.LVL212:
.L135:
.LBE1972:
.LBE1944:
.LBE1943:
.LBE1978:
	.loc 4 171 0
	lwz 31,8(23)
.LVL213:
.LBB1979:
.LBB1977:
.LBB1973:
.LBB1974:
.LBB1975:
.LBB1976:
	.loc 7 98 0
	mr 3,23
	bl _ZdlPv
.LVL214:
.LBE1976:
.LBE1975:
.LBE1974:
.LBE1973:
.LBE1977:
	.loc 6 1072 0
	cmpwi 7,31,0
	beq- 7,.L134
	.loc 6 1077 0
	mr 23,31
.LVL215:
	b .L179
.LVL216:
.L134:
.LBE1979:
.LBE1941:
.LBE1940:
.LBE1985:
	.loc 4 171 0
	lwz 31,8(24)
.LVL217:
.LBB1986:
.LBB1984:
.LBB1980:
.LBB1981:
.LBB1982:
.LBB1983:
	.loc 7 98 0
	mr 3,24
	bl _ZdlPv
.LVL218:
.LBE1983:
.LBE1982:
.LBE1981:
.LBE1980:
.LBE1984:
	.loc 6 1072 0
	cmpwi 7,31,0
	beq- 7,.L133
	.loc 6 1077 0
	mr 24,31
.LVL219:
	b .L178
.LVL220:
.L133:
.LBE1986:
.LBE1938:
.LBE1937:
.LBE1992:
	.loc 4 171 0
	lwz 31,8(25)
.LVL221:
.LBB1993:
.LBB1991:
.LBB1987:
.LBB1988:
.LBB1989:
.LBB1990:
	.loc 7 98 0
	mr 3,25
	bl _ZdlPv
.LVL222:
.LBE1990:
.LBE1989:
.LBE1988:
.LBE1987:
.LBE1991:
	.loc 6 1072 0
	cmpwi 7,31,0
	beq- 7,.L132
	.loc 6 1077 0
	mr 25,31
.LVL223:
	b .L177
.LVL224:
.L132:
.LBE1993:
.LBE1935:
.LBE1934:
.LBE1999:
	.loc 4 171 0
	lwz 31,8(26)
.LVL225:
.LBB2000:
.LBB1998:
.LBB1994:
.LBB1995:
.LBB1996:
.LBB1997:
	.loc 7 98 0
	mr 3,26
	bl _ZdlPv
.LVL226:
.LBE1997:
.LBE1996:
.LBE1995:
.LBE1994:
.LBE1998:
	.loc 6 1072 0
	cmpwi 7,31,0
	beq- 7,.L131
	.loc 6 1077 0
	mr 26,31
.LVL227:
	b .L176
.LVL228:
.L131:
.LBE2000:
.LBE1932:
.LBE1931:
.LBE2006:
	.loc 4 171 0
	lwz 31,8(27)
.LVL229:
.LBB2007:
.LBB2005:
.LBB2001:
.LBB2002:
.LBB2003:
.LBB2004:
	.loc 7 98 0
	mr 3,27
	bl _ZdlPv
.LVL230:
.LBE2004:
.LBE2003:
.LBE2002:
.LBE2001:
.LBE2005:
	.loc 6 1072 0
	cmpwi 7,31,0
	beq- 7,.L130
	.loc 6 1077 0
	mr 27,31
.LVL231:
	b .L175
.LVL232:
.L130:
	.loc 4 171 0
	lwz 31,8(22)
.LVL233:
.LBE2007:
.LBE1929:
.LBB2008:
.LBB2009:
.LBB2010:
.LBB2011:
	.loc 7 98 0
	mr 3,22
	bl _ZdlPv
.LVL234:
.LBE2011:
.LBE2010:
.LBE2009:
.LBE2008:
.LBE1928:
	.loc 6 1072 0
	cmpwi 7,31,0
	beq- 7,.L128
	.loc 6 1077 0
	mr 22,31
.LVL235:
	b .L174
.LVL236:
.L128:
.LBE2012:
	.loc 6 1079 0
	lwz 0,60(1)
	lwz 21,12(1)
	mtlr 0
	lwz 22,16(1)
	lwz 23,20(1)
	lwz 24,24(1)
	lwz 25,28(1)
	lwz 26,32(1)
	lwz 27,36(1)
	lwz 28,40(1)
	lwz 29,44(1)
	lwz 30,48(1)
.LVL237:
	lwz 31,52(1)
	addi 1,1,56
.LCFI44:
	.cfi_def_cfa_offset 0
	.cfi_restore 31
	.cfi_restore 30
	.cfi_restore 29
	.cfi_restore 28
	.cfi_restore 27
	.cfi_restore 26
	.cfi_restore 25
	.cfi_restore 24
	.cfi_restore 23
	.cfi_restore 22
	.cfi_restore 21
	blr
	.cfi_endproc
.LFE1689:
	.size	_ZNSt8_Rb_treeIPN7sigslot12_signal_baseINS0_15single_threadedEEES4_St9_IdentityIS4_ESt4lessIS4_ESaIS4_EE8_M_eraseEPSt13_Rb_tree_nodeIS4_E, .-_ZNSt8_Rb_treeIPN7sigslot12_signal_baseINS0_15single_threadedEEES4_St9_IdentityIS4_ESt4lessIS4_ESaIS4_EE8_M_eraseEPSt13_Rb_tree_nodeIS4_E
	.section	.text._ZN7sigslot9has_slotsINS_15single_threadedEED2Ev,"axG",@progbits,_ZN7sigslot9has_slotsINS_15single_threadedEED5Ev,comdat
	.align 2
	.weak	_ZN7sigslot9has_slotsINS_15single_threadedEED2Ev
	.type	_ZN7sigslot9has_slotsINS_15single_threadedEED2Ev, @function
_ZN7sigslot9has_slotsINS_15single_threadedEED2Ev:
.LFB1599:
	.loc 1 513 0
	.cfi_startproc
	.cfi_personality 0,__gxx_personality_v0
	.cfi_lsda 0,.LLSDA1599
.LVL238:
	mflr 0
	stwu 1,-32(1)
.LCFI45:
	.cfi_def_cfa_offset 32
	.cfi_register 65, 0
.LBB2159:
	.loc 1 516 0
	lis 9,_ZTVN7sigslot9has_slotsINS_15single_threadedEEE+8@ha
.LBE2159:
	.loc 1 513 0
	stw 28,16(1)
	addi 28,3,4
	.cfi_offset 28, -16
	stw 0,36(1)
.LBB2235:
	.loc 1 516 0
	la 0,_ZTVN7sigslot9has_slotsINS_15single_threadedEEE+8@l(9)
	.cfi_offset 65, 4
.LBE2235:
	.loc 1 513 0
	stw 29,20(1)
	mr 29,3
	.cfi_offset 29, -12
	stw 26,8(1)
	stw 27,12(1)
	stw 30,24(1)
	stw 31,28(1)
.LBB2236:
	.loc 1 516 0
	stw 0,0(3)
.LVL239:
.LEHB0:
.LBB2160:
.LBB2161:
.LBB2162:
.LBB2163:
	.loc 1 338 0
	.cfi_offset 31, -4
	.cfi_offset 30, -8
	.cfi_offset 27, -20
	.cfi_offset 26, -24
	bl _ZN7sigslot15single_threaded4lockEv
.LEHE0:
.LVL240:
.LBE2163:
.LBE2162:
.LBB2164:
	.loc 4 171 0
	lwz 31,16(29)
.LVL241:
.LBE2164:
.LBB2165:
.LBB2166:
.LBB2167:
	.loc 6 671 0
	addi 30,28,4
.LVL242:
.LBE2167:
.LBE2166:
.LBE2165:
	.loc 1 524 0
	cmpw 7,31,30
	beq- 7,.L184
.LVL243:
.L211:
	.loc 1 526 0
	lwz 3,16(31)
	mr 4,29
	lwz 9,0(3)
	lwz 0,16(9)
	mtctr 0
.LEHB1:
	bctrl
.LEHE1:
.LVL244:
.LBB2168:
.LBB2169:
	.loc 6 269 0
	mr 3,31
	bl _ZSt18_Rb_tree_incrementPKSt18_Rb_tree_node_base
.LBE2169:
.LBE2168:
	.loc 1 524 0
	cmpw 7,30,3
.LBB2171:
.LBB2170:
	.loc 6 269 0
	mr 31,3
.LVL245:
.LBE2170:
.LBE2171:
	.loc 1 524 0
	bne+ 7,.L211
	lwz 31,16(29)
.LVL246:
.L184:
.LBB2172:
.LBB2173:
.LBB2174:
.LBB2175:
.LBB2176:
.LBB2177:
.LBB2178:
	.loc 6 665 0
	addi 26,28,4
.LBE2178:
.LBE2177:
	.loc 6 1500 0
	cmpw 7,30,26
	beq- 7,.L186
.LVL247:
	.loc 6 1503 0
	cmpw 7,30,31
	bne+ 7,.L213
	b .L187
.LVL248:
.L208:
	.loc 6 277 0
	mr 31,27
.LVL249:
.L213:
.LBB2179:
.LBB2180:
	mr 3,31
	bl _ZSt18_Rb_tree_incrementPKSt18_Rb_tree_node_base
.LBE2180:
.LBE2179:
.LBB2182:
.LBB2183:
.LBB2184:
	.loc 6 1489 0
	mr 4,26
.LBE2184:
.LBE2183:
.LBE2182:
.LBB2193:
.LBB2181:
	.loc 6 277 0
	mr 27,3
.LVL250:
.LBE2181:
.LBE2193:
.LBB2194:
.LBB2191:
.LBB2189:
	.loc 6 1489 0
	mr 3,31
.LVL251:
	bl _ZSt28_Rb_tree_rebalance_for_erasePSt18_Rb_tree_node_baseRS_
.LBB2185:
.LBB2186:
.LBB2187:
.LBB2188:
	.loc 7 98 0
	bl _ZdlPv
.LBE2188:
.LBE2187:
.LBE2186:
.LBE2185:
.LBE2189:
.LBE2191:
.LBE2194:
	.loc 6 1503 0
	cmpw 7,30,27
.LBB2195:
.LBB2192:
.LBB2190:
	.loc 6 1491 0
	lwz 9,20(28)
	addi 0,9,-1
	stw 0,20(28)
.LBE2190:
.LBE2192:
.LBE2195:
	.loc 6 1503 0
	bne+ 7,.L208
.LVL252:
.L187:
.LBE2176:
.LBE2175:
.LBE2174:
.LBE2173:
.LBE2172:
.LBB2204:
.LBB2205:
.LBB2206:
	.loc 1 343 0
	lwz 9,0(29)
	mr 3,29
	lwz 0,12(9)
	mtctr 0
.LEHB2:
	bctrl
.LEHE2:
.LVL253:
.LBE2206:
.LBE2205:
.LBE2204:
.LBE2161:
.LBE2160:
.LBB2213:
.LBB2214:
.LBB2215:
.LBB2216:
.LBB2217:
	.loc 6 639 0
	lwz 4,12(29)
	mr 3,28
	bl _ZNSt8_Rb_treeIPN7sigslot12_signal_baseINS0_15single_threadedEEES4_St9_IdentityIS4_ESt4lessIS4_ESaIS4_EE8_M_eraseEPSt13_Rb_tree_nodeIS4_E
.LVL254:
.LBE2217:
.LBE2216:
.LBE2215:
.LBE2214:
.LBE2213:
.LBB2218:
.LBB2219:
.LBB2220:
	.loc 1 105 0
	lis 9,_ZTVN7sigslot15single_threadedE+8@ha
	la 0,_ZTVN7sigslot15single_threadedE+8@l(9)
.LBE2220:
.LBE2219:
.LBE2218:
.LBE2236:
	.loc 1 516 0
	lwz 26,8(1)
.LBB2237:
.LBB2223:
.LBB2222:
.LBB2221:
	.loc 1 105 0
	stw 0,0(29)
.LBE2221:
.LBE2222:
.LBE2223:
.LBE2237:
	.loc 1 516 0
	lwz 0,36(1)
	lwz 27,12(1)
	mtlr 0
	lwz 28,16(1)
.LVL255:
	lwz 29,20(1)
.LVL256:
	lwz 30,24(1)
.LVL257:
	lwz 31,28(1)
	addi 1,1,32
	.cfi_remember_state
.LCFI46:
	.cfi_def_cfa_offset 0
	.cfi_restore 31
	.cfi_restore 30
	.cfi_restore 29
	.cfi_restore 28
	.cfi_restore 27
	.cfi_restore 26
	blr
.LVL258:
.L186:
.LCFI47:
	.cfi_restore_state
.LBB2238:
.LBB2224:
.LBB2211:
.LBB2207:
.LBB2203:
.LBB2202:
.LBB2201:
.LBB2200:
.LBB2196:
.LBB2197:
.LBB2198:
.LBB2199:
	.loc 6 809 0
	lwz 4,12(29)
	mr 3,28
	bl _ZNSt8_Rb_treeIPN7sigslot12_signal_baseINS0_15single_threadedEEES4_St9_IdentityIS4_ESt4lessIS4_ESaIS4_EE8_M_eraseEPSt13_Rb_tree_nodeIS4_E
.LVL259:
	.loc 6 811 0
	li 0,0
	.loc 6 810 0
	stw 30,16(29)
.LVL260:
	.loc 6 811 0
	stw 0,12(29)
.LVL261:
	.loc 6 812 0
	stw 30,20(29)
	.loc 6 813 0
	stw 0,24(29)
	b .L187
.LVL262:
.L209:
	mr 31,3
.L194:
.LVL263:
.LBE2199:
.LBE2198:
.LBE2197:
.LBE2196:
.LBE2200:
.LBE2201:
.LBE2202:
.LBE2203:
.LBE2207:
.LBE2211:
.LBE2224:
.LBB2225:
.LBB2226:
.LBB2227:
.LBB2228:
.LBB2229:
.LBB2230:
	.loc 6 639 0
	lwz 4,12(29)
	mr 3,28
	bl _ZNSt8_Rb_treeIPN7sigslot12_signal_baseINS0_15single_threadedEEES4_St9_IdentityIS4_ESt4lessIS4_ESaIS4_EE8_M_eraseEPSt13_Rb_tree_nodeIS4_E
.LVL264:
.LBE2230:
.LBE2229:
.LBE2228:
.LBE2227:
.LBE2226:
.LBE2225:
.LBB2231:
.LBB2232:
.LBB2233:
	.loc 1 105 0
	lis 9,_ZTVN7sigslot15single_threadedE+8@ha
	la 0,_ZTVN7sigslot15single_threadedE+8@l(9)
	mr 3,31
	stw 0,0(29)
.LEHB3:
	bl _Unwind_Resume
.LEHE3:
.LVL265:
.L210:
.LBE2233:
.LBE2232:
.LBE2231:
.LBB2234:
.LBB2212:
.LBB2208:
.LBB2209:
.LBB2210:
	.loc 1 343 0
	lwz 9,0(29)
	mr 31,3
.LVL266:
	mr 3,29
	lwz 0,12(9)
	mtctr 0
	bctrl
	b .L194
.LBE2210:
.LBE2209:
.LBE2208:
.LBE2212:
.LBE2234:
.LBE2238:
	.cfi_endproc
.LFE1599:
	.globl __gxx_personality_v0
	.section	.gcc_except_table,"a",@progbits
.LLSDA1599:
	.byte	0xff
	.byte	0xff
	.byte	0x1
	.uleb128 .LLSDACSE1599-.LLSDACSB1599
.LLSDACSB1599:
	.uleb128 .LEHB0-.LFB1599
	.uleb128 .LEHE0-.LEHB0
	.uleb128 .L209-.LFB1599
	.uleb128 0
	.uleb128 .LEHB1-.LFB1599
	.uleb128 .LEHE1-.LEHB1
	.uleb128 .L210-.LFB1599
	.uleb128 0
	.uleb128 .LEHB2-.LFB1599
	.uleb128 .LEHE2-.LEHB2
	.uleb128 .L209-.LFB1599
	.uleb128 0
	.uleb128 .LEHB3-.LFB1599
	.uleb128 .LEHE3-.LEHB3
	.uleb128 0
	.uleb128 0
.LLSDACSE1599:
	.section	.text._ZN7sigslot9has_slotsINS_15single_threadedEED2Ev,"axG",@progbits,_ZN7sigslot9has_slotsINS_15single_threadedEED5Ev,comdat
	.size	_ZN7sigslot9has_slotsINS_15single_threadedEED2Ev, .-_ZN7sigslot9has_slotsINS_15single_threadedEED2Ev
	.section	.text._ZN7sigslot9has_slotsINS_15single_threadedEED0Ev,"axG",@progbits,_ZN7sigslot9has_slotsINS_15single_threadedEED5Ev,comdat
	.align 2
	.weak	_ZN7sigslot9has_slotsINS_15single_threadedEED0Ev
	.type	_ZN7sigslot9has_slotsINS_15single_threadedEED0Ev, @function
_ZN7sigslot9has_slotsINS_15single_threadedEED0Ev:
.LFB1601:
	.loc 1 513 0
	.cfi_startproc
	.cfi_personality 0,__gxx_personality_v0
	.cfi_lsda 0,.LLSDA1601
.LVL267:
	mflr 0
	stwu 1,-32(1)
.LCFI48:
	.cfi_def_cfa_offset 32
	.cfi_register 65, 0
.LBB2332:
.LBB2333:
.LBB2334:
	.loc 1 516 0
	lis 9,_ZTVN7sigslot9has_slotsINS_15single_threadedEEE+8@ha
.LBE2334:
.LBE2333:
.LBE2332:
	.loc 1 513 0
	stw 28,16(1)
	addi 28,3,4
	.cfi_offset 28, -16
	stw 0,36(1)
.LBB2418:
.LBB2414:
.LBB2410:
	.loc 1 516 0
	la 0,_ZTVN7sigslot9has_slotsINS_15single_threadedEEE+8@l(9)
	.cfi_offset 65, 4
.LBE2410:
.LBE2414:
.LBE2418:
	.loc 1 513 0
	stw 29,20(1)
	mr 29,3
	.cfi_offset 29, -12
.LVL268:
	stw 26,8(1)
	stw 27,12(1)
	stw 30,24(1)
	stw 31,28(1)
.LBB2419:
.LBB2415:
.LBB2411:
	.loc 1 516 0
	stw 0,0(3)
.LVL269:
.LEHB4:
.LBB2335:
.LBB2336:
.LBB2337:
.LBB2338:
	.loc 1 338 0
	.cfi_offset 31, -4
	.cfi_offset 30, -8
	.cfi_offset 27, -20
	.cfi_offset 26, -24
	bl _ZN7sigslot15single_threaded4lockEv
.LEHE4:
.LVL270:
.LBE2338:
.LBE2337:
.LBB2339:
	.loc 4 171 0
	lwz 31,16(29)
.LVL271:
.LBE2339:
.LBB2340:
.LBB2341:
.LBB2342:
	.loc 6 671 0
	addi 30,28,4
.LVL272:
.LBE2342:
.LBE2341:
.LBE2340:
	.loc 1 524 0
	cmpw 7,31,30
	beq- 7,.L216
.LVL273:
.L244:
	.loc 1 526 0
	lwz 3,16(31)
	mr 4,29
	lwz 9,0(3)
	lwz 0,16(9)
	mtctr 0
.LEHB5:
	bctrl
.LEHE5:
.LVL274:
.LBB2343:
.LBB2344:
	.loc 6 269 0
	mr 3,31
	bl _ZSt18_Rb_tree_incrementPKSt18_Rb_tree_node_base
.LBE2344:
.LBE2343:
	.loc 1 524 0
	cmpw 7,30,3
.LBB2346:
.LBB2345:
	.loc 6 269 0
	mr 31,3
.LVL275:
.LBE2345:
.LBE2346:
	.loc 1 524 0
	bne+ 7,.L244
	lwz 31,16(29)
.LVL276:
.L216:
.LBB2347:
.LBB2348:
.LBB2349:
.LBB2350:
.LBB2351:
.LBB2352:
.LBB2353:
	.loc 6 665 0
	addi 26,28,4
.LBE2353:
.LBE2352:
	.loc 6 1500 0
	cmpw 7,30,26
	beq- 7,.L218
.LVL277:
	.loc 6 1503 0
	cmpw 7,30,31
	bne+ 7,.L246
	b .L219
.LVL278:
.L241:
	.loc 6 277 0
	mr 31,27
.LVL279:
.L246:
.LBB2354:
.LBB2355:
	mr 3,31
	bl _ZSt18_Rb_tree_incrementPKSt18_Rb_tree_node_base
.LBE2355:
.LBE2354:
.LBB2357:
.LBB2358:
.LBB2359:
	.loc 6 1489 0
	mr 4,26
.LBE2359:
.LBE2358:
.LBE2357:
.LBB2368:
.LBB2356:
	.loc 6 277 0
	mr 27,3
.LVL280:
.LBE2356:
.LBE2368:
.LBB2369:
.LBB2366:
.LBB2364:
	.loc 6 1489 0
	mr 3,31
.LVL281:
	bl _ZSt28_Rb_tree_rebalance_for_erasePSt18_Rb_tree_node_baseRS_
.LBB2360:
.LBB2361:
.LBB2362:
.LBB2363:
	.loc 7 98 0
	bl _ZdlPv
.LBE2363:
.LBE2362:
.LBE2361:
.LBE2360:
.LBE2364:
.LBE2366:
.LBE2369:
	.loc 6 1503 0
	cmpw 7,30,27
.LBB2370:
.LBB2367:
.LBB2365:
	.loc 6 1491 0
	lwz 9,20(28)
	addi 0,9,-1
	stw 0,20(28)
.LBE2365:
.LBE2367:
.LBE2370:
	.loc 6 1503 0
	bne+ 7,.L241
.LVL282:
.L219:
.LBE2351:
.LBE2350:
.LBE2349:
.LBE2348:
.LBE2347:
.LBB2379:
.LBB2380:
.LBB2381:
	.loc 1 343 0
	lwz 9,0(29)
	mr 3,29
	lwz 0,12(9)
	mtctr 0
.LEHB6:
	bctrl
.LEHE6:
.LVL283:
.LBE2381:
.LBE2380:
.LBE2379:
.LBE2336:
.LBE2335:
.LBB2388:
.LBB2389:
.LBB2390:
.LBB2391:
.LBB2392:
	.loc 6 639 0
	lwz 4,12(29)
	mr 3,28
	bl _ZNSt8_Rb_treeIPN7sigslot12_signal_baseINS0_15single_threadedEEES4_St9_IdentityIS4_ESt4lessIS4_ESaIS4_EE8_M_eraseEPSt13_Rb_tree_nodeIS4_E
.LVL284:
.LBE2392:
.LBE2391:
.LBE2390:
.LBE2389:
.LBE2388:
.LBB2393:
.LBB2394:
.LBB2395:
	.loc 1 105 0
	lis 9,_ZTVN7sigslot15single_threadedE+8@ha
	la 0,_ZTVN7sigslot15single_threadedE+8@l(9)
.LBE2395:
.LBE2394:
.LBE2393:
.LBE2411:
.LBE2415:
.LBE2419:
	.loc 1 516 0
	mr 3,29
.LBB2420:
.LBB2416:
.LBB2412:
.LBB2398:
.LBB2397:
.LBB2396:
	.loc 1 105 0
	stw 0,0(29)
.LBE2396:
.LBE2397:
.LBE2398:
.LBE2412:
.LBE2416:
.LBE2420:
	.loc 1 516 0
	bl _ZdlPv
	lwz 0,36(1)
	lwz 26,8(1)
	mtlr 0
	lwz 27,12(1)
	lwz 28,16(1)
.LVL285:
	lwz 29,20(1)
.LVL286:
	lwz 30,24(1)
.LVL287:
	lwz 31,28(1)
	addi 1,1,32
	.cfi_remember_state
.LCFI49:
	.cfi_def_cfa_offset 0
	.cfi_restore 31
	.cfi_restore 30
	.cfi_restore 29
	.cfi_restore 28
	.cfi_restore 27
	.cfi_restore 26
	blr
.LVL288:
.L218:
.LCFI50:
	.cfi_restore_state
.LBB2421:
.LBB2417:
.LBB2413:
.LBB2399:
.LBB2386:
.LBB2382:
.LBB2378:
.LBB2377:
.LBB2376:
.LBB2375:
.LBB2371:
.LBB2372:
.LBB2373:
.LBB2374:
	.loc 6 809 0
	lwz 4,12(29)
	mr 3,28
	bl _ZNSt8_Rb_treeIPN7sigslot12_signal_baseINS0_15single_threadedEEES4_St9_IdentityIS4_ESt4lessIS4_ESaIS4_EE8_M_eraseEPSt13_Rb_tree_nodeIS4_E
.LVL289:
	.loc 6 811 0
	li 0,0
	.loc 6 810 0
	stw 30,16(29)
.LVL290:
	.loc 6 811 0
	stw 0,12(29)
.LVL291:
	.loc 6 812 0
	stw 30,20(29)
	.loc 6 813 0
	stw 0,24(29)
	b .L219
.LVL292:
.L242:
	mr 31,3
.L226:
.LVL293:
.LBE2374:
.LBE2373:
.LBE2372:
.LBE2371:
.LBE2375:
.LBE2376:
.LBE2377:
.LBE2378:
.LBE2382:
.LBE2386:
.LBE2399:
.LBB2400:
.LBB2401:
.LBB2402:
.LBB2403:
.LBB2404:
.LBB2405:
	.loc 6 639 0
	lwz 4,12(29)
	mr 3,28
	bl _ZNSt8_Rb_treeIPN7sigslot12_signal_baseINS0_15single_threadedEEES4_St9_IdentityIS4_ESt4lessIS4_ESaIS4_EE8_M_eraseEPSt13_Rb_tree_nodeIS4_E
.LVL294:
.LBE2405:
.LBE2404:
.LBE2403:
.LBE2402:
.LBE2401:
.LBE2400:
.LBB2406:
.LBB2407:
.LBB2408:
	.loc 1 105 0
	lis 9,_ZTVN7sigslot15single_threadedE+8@ha
	la 0,_ZTVN7sigslot15single_threadedE+8@l(9)
	mr 3,31
	stw 0,0(29)
.LEHB7:
	bl _Unwind_Resume
.LEHE7:
.LVL295:
.L243:
.LBE2408:
.LBE2407:
.LBE2406:
.LBB2409:
.LBB2387:
.LBB2383:
.LBB2384:
.LBB2385:
	.loc 1 343 0
	lwz 9,0(29)
	mr 31,3
.LVL296:
	mr 3,29
	lwz 0,12(9)
	mtctr 0
	bctrl
	b .L226
.LBE2385:
.LBE2384:
.LBE2383:
.LBE2387:
.LBE2409:
.LBE2413:
.LBE2417:
.LBE2421:
	.cfi_endproc
.LFE1601:
	.section	.gcc_except_table
.LLSDA1601:
	.byte	0xff
	.byte	0xff
	.byte	0x1
	.uleb128 .LLSDACSE1601-.LLSDACSB1601
.LLSDACSB1601:
	.uleb128 .LEHB4-.LFB1601
	.uleb128 .LEHE4-.LEHB4
	.uleb128 .L242-.LFB1601
	.uleb128 0
	.uleb128 .LEHB5-.LFB1601
	.uleb128 .LEHE5-.LEHB5
	.uleb128 .L243-.LFB1601
	.uleb128 0
	.uleb128 .LEHB6-.LFB1601
	.uleb128 .LEHE6-.LEHB6
	.uleb128 .L242-.LFB1601
	.uleb128 0
	.uleb128 .LEHB7-.LFB1601
	.uleb128 .LEHE7-.LEHB7
	.uleb128 0
	.uleb128 0
.LLSDACSE1601:
	.section	.text._ZN7sigslot9has_slotsINS_15single_threadedEED0Ev,"axG",@progbits,_ZN7sigslot9has_slotsINS_15single_threadedEED5Ev,comdat
	.size	_ZN7sigslot9has_slotsINS_15single_threadedEED0Ev, .-_ZN7sigslot9has_slotsINS_15single_threadedEED0Ev
	.section	".text"
	.align 2
	.globl _ZThn176_N9GuiNumpadD1Ev
	.type	_ZThn176_N9GuiNumpadD1Ev, @function
_ZThn176_N9GuiNumpadD1Ev:
.LFB2057:
	.cfi_startproc
	addi 3,3,-176
	b .LTHUNK0
	.cfi_endproc
.LFE2057:
	.size	_ZThn176_N9GuiNumpadD1Ev, .-_ZThn176_N9GuiNumpadD1Ev
	.align 2
	.globl _ZN9GuiNumpadD2Ev
	.type	_ZN9GuiNumpadD2Ev, @function
_ZN9GuiNumpadD2Ev:
.LFB1567:
	.loc 4 109 0
	.cfi_startproc
	.cfi_personality 0,__gxx_personality_v0
	.cfi_lsda 0,.LLSDA1567
.LVL297:
	mflr 0
	stwu 1,-24(1)
.LCFI51:
	.cfi_def_cfa_offset 24
	.cfi_register 65, 0
.LBB2518:
	lis 9,_ZTV9GuiNumpad+8@ha
	la 9,_ZTV9GuiNumpad+8@l(9)
.LBE2518:
	stw 30,16(1)
	stw 0,28(1)
.LBB2612:
	addi 0,9,228
	.cfi_offset 65, 4
	.cfi_offset 30, -8
.LBE2612:
	stw 28,8(1)
	mr 30,3
	stw 29,12(1)
	stw 31,20(1)
.LBB2613:
	.loc 4 109 0
	stw 9,0(3)
	stw 0,176(3)
.LEHB8:
.LBB2519:
	.loc 4 111 0
	.cfi_offset 31, -4
	.cfi_offset 29, -12
	.cfi_offset 28, -16
	bl _ZN8GuiFrame9RemoveAllEv
.LVL298:
	.loc 4 113 0
	lwz 3,476(30)
	cmpwi 7,3,0
	beq- 7,.L249
	.loc 4 113 0 is_stmt 0 discriminator 1
	lwz 9,0(3)
	lwz 0,4(9)
	mtctr 0
	bctrl
.L249:
	.loc 4 114 0 is_stmt 1
	lwz 3,592(30)
	cmpwi 7,3,0
	beq- 7,.L250
	.loc 4 114 0 is_stmt 0 discriminator 1
	lwz 9,0(3)
	lwz 0,4(9)
	mtctr 0
	bctrl
.L250:
	.loc 4 115 0 is_stmt 1
	lwz 3,596(30)
	bl _ZN9Resources6RemoveEP12GuiImageData
	.loc 4 117 0
	lwz 3,480(30)
	cmpwi 7,3,0
	beq- 7,.L251
	.loc 4 117 0 is_stmt 0 discriminator 1
	lwz 9,0(3)
	lwz 0,4(9)
	mtctr 0
	bctrl
.L251:
	.loc 4 118 0 is_stmt 1
	lwz 3,484(30)
	cmpwi 7,3,0
	beq- 7,.L252
	.loc 4 118 0 is_stmt 0 discriminator 1
	lwz 9,0(3)
	lwz 0,4(9)
	mtctr 0
	bctrl
.L252:
	.loc 4 120 0 is_stmt 1
	lwz 3,492(30)
	cmpwi 7,3,0
	beq- 7,.L253
	.loc 4 120 0 is_stmt 0 discriminator 1
	lwz 9,0(3)
	lwz 0,4(9)
	mtctr 0
	bctrl
.L253:
	.loc 4 121 0 is_stmt 1
	lwz 3,488(30)
	cmpwi 7,3,0
	beq- 7,.L254
	.loc 4 121 0 is_stmt 0 discriminator 1
	lwz 9,0(3)
	lwz 0,4(9)
	mtctr 0
	bctrl
.L254:
	.loc 4 123 0 is_stmt 1
	lwz 3,608(30)
	cmpwi 7,3,0
	beq- 7,.L255
	.loc 4 123 0 is_stmt 0 discriminator 1
	lwz 9,0(3)
	lwz 0,4(9)
	mtctr 0
	bctrl
.L255:
	.loc 4 124 0 is_stmt 1
	lwz 3,612(30)
	cmpwi 7,3,0
	beq- 7,.L292
	.loc 4 124 0 is_stmt 0 discriminator 1
	lwz 9,0(3)
	lwz 0,4(9)
	mtctr 0
	bctrl
.L292:
.LVL299:
.LBB2520:
	.loc 4 128 0 is_stmt 1 discriminator 1
	lbz 0,208(30)
	cmpwi 7,0,0
	beq- 7,.L257
	.loc 4 130 0
	lwz 3,496(30)
	cmpwi 7,3,0
	beq- 7,.L259
	lwz 9,0(3)
	lwz 0,4(9)
	mtctr 0
	bctrl
.L259:
	.loc 4 131 0
	lwz 3,544(30)
	cmpwi 7,3,0
	beq- 7,.L257
	lwz 9,0(3)
	lwz 0,4(9)
	mtctr 0
	bctrl
.L257:
.LVL300:
	.loc 4 128 0
	lbz 0,209(30)
	cmpwi 7,0,0
	beq- 7,.L260
	.loc 4 130 0
	lwz 3,500(30)
	cmpwi 7,3,0
	beq- 7,.L262
	lwz 9,0(3)
	lwz 0,4(9)
	mtctr 0
	bctrl
.L262:
	.loc 4 131 0
	lwz 3,548(30)
	cmpwi 7,3,0
	beq- 7,.L260
	lwz 9,0(3)
	lwz 0,4(9)
	mtctr 0
	bctrl
.L260:
.LVL301:
	.loc 4 128 0
	lbz 0,210(30)
	cmpwi 7,0,0
	beq- 7,.L263
	.loc 4 130 0
	lwz 3,504(30)
	cmpwi 7,3,0
	beq- 7,.L265
	lwz 9,0(3)
	lwz 0,4(9)
	mtctr 0
	bctrl
.L265:
	.loc 4 131 0
	lwz 3,552(30)
	cmpwi 7,3,0
	beq- 7,.L263
	lwz 9,0(3)
	lwz 0,4(9)
	mtctr 0
	bctrl
.L263:
.LVL302:
	.loc 4 128 0
	lbz 0,211(30)
	cmpwi 7,0,0
	beq- 7,.L266
	.loc 4 130 0
	lwz 3,508(30)
	cmpwi 7,3,0
	beq- 7,.L268
	lwz 9,0(3)
	lwz 0,4(9)
	mtctr 0
	bctrl
.L268:
	.loc 4 131 0
	lwz 3,556(30)
	cmpwi 7,3,0
	beq- 7,.L266
	lwz 9,0(3)
	lwz 0,4(9)
	mtctr 0
	bctrl
.L266:
.LVL303:
	.loc 4 128 0
	lbz 0,212(30)
	cmpwi 7,0,0
	beq- 7,.L269
	.loc 4 130 0
	lwz 3,512(30)
	cmpwi 7,3,0
	beq- 7,.L271
	lwz 9,0(3)
	lwz 0,4(9)
	mtctr 0
	bctrl
.L271:
	.loc 4 131 0
	lwz 3,560(30)
	cmpwi 7,3,0
	beq- 7,.L269
	lwz 9,0(3)
	lwz 0,4(9)
	mtctr 0
	bctrl
.L269:
.LVL304:
	.loc 4 128 0
	lbz 0,213(30)
	cmpwi 7,0,0
	beq- 7,.L272
	.loc 4 130 0
	lwz 3,516(30)
	cmpwi 7,3,0
	beq- 7,.L274
	lwz 9,0(3)
	lwz 0,4(9)
	mtctr 0
	bctrl
.L274:
	.loc 4 131 0
	lwz 3,564(30)
	cmpwi 7,3,0
	beq- 7,.L272
	lwz 9,0(3)
	lwz 0,4(9)
	mtctr 0
	bctrl
.L272:
.LVL305:
	.loc 4 128 0
	lbz 0,214(30)
	cmpwi 7,0,0
	beq- 7,.L275
	.loc 4 130 0
	lwz 3,520(30)
	cmpwi 7,3,0
	beq- 7,.L277
	lwz 9,0(3)
	lwz 0,4(9)
	mtctr 0
	bctrl
.L277:
	.loc 4 131 0
	lwz 3,568(30)
	cmpwi 7,3,0
	beq- 7,.L275
	lwz 9,0(3)
	lwz 0,4(9)
	mtctr 0
	bctrl
.L275:
.LVL306:
	.loc 4 128 0
	lbz 0,215(30)
	cmpwi 7,0,0
	beq- 7,.L278
	.loc 4 130 0
	lwz 3,524(30)
	cmpwi 7,3,0
	beq- 7,.L280
	lwz 9,0(3)
	lwz 0,4(9)
	mtctr 0
	bctrl
.L280:
	.loc 4 131 0
	lwz 3,572(30)
	cmpwi 7,3,0
	beq- 7,.L278
	lwz 9,0(3)
	lwz 0,4(9)
	mtctr 0
	bctrl
.L278:
.LVL307:
	.loc 4 128 0
	lbz 0,216(30)
	cmpwi 7,0,0
	beq- 7,.L281
	.loc 4 130 0
	lwz 3,528(30)
	cmpwi 7,3,0
	beq- 7,.L283
	lwz 9,0(3)
	lwz 0,4(9)
	mtctr 0
	bctrl
.L283:
	.loc 4 131 0
	lwz 3,576(30)
	cmpwi 7,3,0
	beq- 7,.L281
	lwz 9,0(3)
	lwz 0,4(9)
	mtctr 0
	bctrl
.L281:
.LVL308:
	.loc 4 128 0
	lbz 0,217(30)
	cmpwi 7,0,0
	beq- 7,.L284
	.loc 4 130 0
	lwz 3,532(30)
	cmpwi 7,3,0
	beq- 7,.L286
	lwz 9,0(3)
	lwz 0,4(9)
	mtctr 0
	bctrl
.L286:
	.loc 4 131 0
	lwz 3,580(30)
	cmpwi 7,3,0
	beq- 7,.L284
	lwz 9,0(3)
	lwz 0,4(9)
	mtctr 0
	bctrl
.L284:
.LVL309:
	.loc 4 128 0
	lbz 0,218(30)
	cmpwi 7,0,0
	beq- 7,.L287
	.loc 4 130 0
	lwz 3,536(30)
	cmpwi 7,3,0
	beq- 7,.L289
	lwz 9,0(3)
	lwz 0,4(9)
	mtctr 0
	bctrl
.L289:
	.loc 4 131 0
	lwz 3,584(30)
	cmpwi 7,3,0
	beq- 7,.L287
	lwz 9,0(3)
	lwz 0,4(9)
	mtctr 0
	bctrl
.L287:
.LVL310:
	.loc 4 128 0
	lbz 0,219(30)
	cmpwi 7,0,0
	bne- 7,.L290
.L291:
.LVL311:
.LBE2520:
	.loc 4 135 0
	lwz 3,600(30)
	bl _ZN9Resources6RemoveEP8GuiSound
	.loc 4 136 0
	lwz 3,604(30)
	bl _ZN9Resources6RemoveEP8GuiSound
.LEHE8:
.LBE2519:
.LBB2522:
.LBB2523:
.LBB2524:
	.loc 1 516 0
	lis 9,_ZTVN7sigslot9has_slotsINS_15single_threadedEEE+8@ha
.LBE2524:
.LBE2523:
.LBE2522:
	.loc 4 109 0
	addi 28,30,176
.LVL312:
.LBB2608:
.LBB2605:
.LBB2602:
	.loc 1 516 0
	la 0,_ZTVN7sigslot9has_slotsINS_15single_threadedEEE+8@l(9)
.LBB2525:
.LBB2526:
.LBB2527:
.LBB2528:
	.loc 1 338 0
	mr 3,28
.LBE2528:
.LBE2527:
.LBE2526:
.LBE2525:
	.loc 1 516 0
	stw 0,176(30)
.LVL313:
	addi 31,30,180
.LEHB9:
.LBB2580:
.LBB2578:
.LBB2530:
.LBB2529:
	.loc 1 338 0
	bl _ZN7sigslot15single_threaded4lockEv
.LEHE9:
.LVL314:
.LBE2529:
.LBE2530:
.LBB2531:
	.loc 4 171 0
	lwz 31,192(30)
.LVL315:
.LBE2531:
.LBB2532:
.LBB2533:
.LBB2534:
	.loc 6 671 0
	addi 29,30,184
.LVL316:
.LBE2534:
.LBE2533:
.LBE2532:
	.loc 1 524 0
	cmpw 7,31,29
	beq- 7,.L294
.LVL317:
.L325:
	.loc 1 526 0
	lwz 3,16(31)
	mr 4,28
	lwz 9,0(3)
	lwz 0,16(9)
	mtctr 0
.LEHB10:
	bctrl
.LEHE10:
.LVL318:
.LBB2535:
.LBB2536:
	.loc 6 269 0
	mr 3,31
	bl _ZSt18_Rb_tree_incrementPKSt18_Rb_tree_node_base
.LBE2536:
.LBE2535:
	.loc 1 524 0
	cmpw 7,29,3
.LBB2538:
.LBB2537:
	.loc 6 269 0
	mr 31,3
.LVL319:
.LBE2537:
.LBE2538:
	.loc 1 524 0
	bne+ 7,.L325
.LVL320:
.L294:
.LBB2539:
.LBB2540:
	.file 8 "d:\\devkitpro\\devkitppc\\bin\\../lib/gcc/powerpc-eabi/4.6.3/../../../../powerpc-eabi/include/c++/4.6.3/bits/stl_set.h"
	.loc 8 562 0
	addi 31,30,180
.LVL321:
.LBB2541:
.LBB2542:
.LBB2543:
.LBB2544:
.LBB2545:
.LBB2546:
.LBB2547:
	.loc 6 809 0
	lwz 4,188(30)
	mr 3,31
	bl _ZNSt8_Rb_treeIPN7sigslot12_signal_baseINS0_15single_threadedEEES4_St9_IdentityIS4_ESt4lessIS4_ESaIS4_EE8_M_eraseEPSt13_Rb_tree_nodeIS4_E
.LVL322:
	.loc 6 811 0
	li 0,0
	.loc 6 810 0
	stw 29,192(30)
.LVL323:
.LBE2547:
.LBE2546:
.LBE2545:
.LBE2544:
.LBE2543:
.LBE2542:
.LBE2541:
.LBE2540:
.LBE2539:
.LBB2564:
.LBB2565:
.LBB2566:
	.loc 1 343 0
	mr 3,28
.LBE2566:
.LBE2565:
.LBE2564:
.LBB2571:
.LBB2562:
.LBB2560:
.LBB2558:
.LBB2556:
.LBB2554:
.LBB2552:
.LBB2550:
.LBB2548:
	.loc 6 811 0
	stw 0,188(30)
.LVL324:
	.loc 6 812 0
	stw 29,196(30)
.LBE2548:
.LBE2550:
.LBE2552:
.LBE2554:
.LBE2556:
.LBE2558:
.LBE2560:
.LBE2562:
.LBE2571:
.LBB2572:
.LBB2569:
.LBB2567:
	.loc 1 343 0
	lwz 9,176(30)
.LBE2567:
.LBE2569:
.LBE2572:
.LBB2573:
.LBB2563:
.LBB2561:
.LBB2559:
.LBB2557:
.LBB2555:
.LBB2553:
.LBB2551:
.LBB2549:
	.loc 6 813 0
	stw 0,200(30)
.LVL325:
.LBE2549:
.LBE2551:
.LBE2553:
.LBE2555:
.LBE2557:
.LBE2559:
.LBE2561:
.LBE2563:
.LBE2573:
.LBB2574:
.LBB2570:
.LBB2568:
	.loc 1 343 0
	lwz 0,12(9)
	mtctr 0
.LEHB11:
	bctrl
.LEHE11:
.LVL326:
.LBE2568:
.LBE2570:
.LBE2574:
.LBE2578:
.LBE2580:
.LBB2581:
.LBB2582:
.LBB2583:
.LBB2584:
.LBB2585:
	.loc 6 639 0
	lwz 4,188(30)
	mr 3,31
	bl _ZNSt8_Rb_treeIPN7sigslot12_signal_baseINS0_15single_threadedEEES4_St9_IdentityIS4_ESt4lessIS4_ESaIS4_EE8_M_eraseEPSt13_Rb_tree_nodeIS4_E
.LBE2585:
.LBE2584:
.LBE2583:
.LBE2582:
.LBE2581:
.LBB2586:
.LBB2587:
.LBB2588:
	.loc 1 105 0
	lis 9,_ZTVN7sigslot15single_threadedE+8@ha
	la 0,_ZTVN7sigslot15single_threadedE+8@l(9)
.LBE2588:
.LBE2587:
.LBE2586:
.LBE2602:
.LBE2605:
.LBE2608:
	.loc 4 109 0
	mr 3,30
.LBB2609:
.LBB2606:
.LBB2603:
.LBB2591:
.LBB2590:
.LBB2589:
	.loc 1 105 0
	stw 0,176(30)
.LEHB12:
.LBE2589:
.LBE2590:
.LBE2591:
.LBE2603:
.LBE2606:
.LBE2609:
	.loc 4 109 0
	bl _ZN8GuiFrameD2Ev
.LEHE12:
.LBE2613:
	.loc 4 137 0
	lwz 0,28(1)
	lwz 28,8(1)
.LVL327:
	mtlr 0
	lwz 29,12(1)
.LVL328:
	lwz 30,16(1)
.LVL329:
	lwz 31,20(1)
.LVL330:
	addi 1,1,24
	.cfi_remember_state
.LCFI52:
	.cfi_def_cfa_offset 0
	.cfi_restore 31
	.cfi_restore 30
	.cfi_restore 29
	.cfi_restore 28
	blr
.LVL331:
.L290:
.LCFI53:
	.cfi_restore_state
.LBB2614:
.LBB2610:
.LBB2521:
	.loc 4 130 0
	lwz 3,540(30)
	cmpwi 7,3,0
	beq- 7,.L293
	.loc 4 130 0 is_stmt 0 discriminator 1
	lwz 9,0(3)
	lwz 0,4(9)
	mtctr 0
.LEHB13:
	bctrl
.L293:
	.loc 4 131 0 is_stmt 1
	lwz 3,588(30)
	cmpwi 7,3,0
	beq- 7,.L291
	.loc 4 131 0 is_stmt 0 discriminator 1
	lwz 9,0(3)
	lwz 0,4(9)
	mtctr 0
	bctrl
.LEHE13:
	b .L291
.LVL332:
.L322:
	mr 29,3
.LBE2521:
.LBE2610:
	.loc 4 109 0 is_stmt 1
	addi 3,30,176
	bl _ZN7sigslot9has_slotsINS_15single_threadedEED2Ev
.L317:
	mr 3,30
	bl _ZN8GuiFrameD2Ev
	mr 3,29
.LEHB14:
	bl _Unwind_Resume
.LEHE14:
.LVL333:
.L324:
.LBB2611:
.LBB2607:
.LBB2604:
.LBB2592:
.LBB2579:
.LBB2575:
.LBB2576:
.LBB2577:
	.loc 1 343 0
	lwz 9,176(30)
	mr 29,3
.LVL334:
	mr 3,28
	addi 31,30,180
.LVL335:
	lwz 0,12(9)
	mtctr 0
	bctrl
.LVL336:
.L304:
.LBE2577:
.LBE2576:
.LBE2575:
.LBE2579:
.LBE2592:
.LBB2593:
.LBB2594:
.LBB2595:
.LBB2596:
.LBB2597:
.LBB2598:
	.loc 6 639 0
	lwz 4,188(30)
	mr 3,31
	bl _ZNSt8_Rb_treeIPN7sigslot12_signal_baseINS0_15single_threadedEEES4_St9_IdentityIS4_ESt4lessIS4_ESaIS4_EE8_M_eraseEPSt13_Rb_tree_nodeIS4_E
.LBE2598:
.LBE2597:
.LBE2596:
.LBE2595:
.LBE2594:
.LBE2593:
.LBB2599:
.LBB2600:
.LBB2601:
	.loc 1 105 0
	lis 9,_ZTVN7sigslot15single_threadedE+8@ha
	la 0,_ZTVN7sigslot15single_threadedE+8@l(9)
	stw 0,176(30)
	b .L317
.LVL337:
.L323:
	mr 29,3
	b .L304
.LBE2601:
.LBE2600:
.LBE2599:
.LBE2604:
.LBE2607:
.LBE2611:
.LBE2614:
	.cfi_endproc
.LFE1567:
	.section	.gcc_except_table
.LLSDA1567:
	.byte	0xff
	.byte	0xff
	.byte	0x1
	.uleb128 .LLSDACSE1567-.LLSDACSB1567
.LLSDACSB1567:
	.uleb128 .LEHB8-.LFB1567
	.uleb128 .LEHE8-.LEHB8
	.uleb128 .L322-.LFB1567
	.uleb128 0
	.uleb128 .LEHB9-.LFB1567
	.uleb128 .LEHE9-.LEHB9
	.uleb128 .L323-.LFB1567
	.uleb128 0
	.uleb128 .LEHB10-.LFB1567
	.uleb128 .LEHE10-.LEHB10
	.uleb128 .L324-.LFB1567
	.uleb128 0
	.uleb128 .LEHB11-.LFB1567
	.uleb128 .LEHE11-.LEHB11
	.uleb128 .L323-.LFB1567
	.uleb128 0
	.uleb128 .LEHB12-.LFB1567
	.uleb128 .LEHE12-.LEHB12
	.uleb128 0
	.uleb128 0
	.uleb128 .LEHB13-.LFB1567
	.uleb128 .LEHE13-.LEHB13
	.uleb128 .L322-.LFB1567
	.uleb128 0
	.uleb128 .LEHB14-.LFB1567
	.uleb128 .LEHE14-.LEHB14
	.uleb128 0
	.uleb128 0
.LLSDACSE1567:
	.section	".text"
	.size	_ZN9GuiNumpadD2Ev, .-_ZN9GuiNumpadD2Ev
	.align 2
	.globl _ZThn176_N9GuiNumpadD0Ev
	.type	_ZThn176_N9GuiNumpadD0Ev, @function
_ZThn176_N9GuiNumpadD0Ev:
.LFB2058:
	.cfi_startproc
	addi 3,3,-176
	b .LTHUNK1
	.cfi_endproc
.LFE2058:
	.size	_ZThn176_N9GuiNumpadD0Ev, .-_ZThn176_N9GuiNumpadD0Ev
	.align 2
	.globl _ZN9GuiNumpadD0Ev
	.type	_ZN9GuiNumpadD0Ev, @function
_ZN9GuiNumpadD0Ev:
.LFB1569:
	.loc 4 109 0
	.cfi_startproc
.LVL338:
	stwu 1,-16(1)
.LCFI54:
	.cfi_def_cfa_offset 16
	mflr 0
	stw 31,12(1)
	mr 31,3
	.cfi_offset 31, -4
	.cfi_register 65, 0
	stw 0,20(1)
	.loc 4 137 0
	.cfi_offset 65, 4
	bl _ZN9GuiNumpadD1Ev
.LVL339:
	mr 3,31
	bl _ZdlPv
	lwz 0,20(1)
	lwz 31,12(1)
.LVL340:
	mtlr 0
	addi 1,1,16
.LCFI55:
	.cfi_def_cfa_offset 0
	.cfi_restore 31
	blr
	.cfi_endproc
.LFE1569:
	.size	_ZN9GuiNumpadD0Ev, .-_ZN9GuiNumpadD0Ev
	.section	.text._ZNSt8_Rb_treeIPN7sigslot12_signal_baseINS0_15single_threadedEEES4_St9_IdentityIS4_ESt4lessIS4_ESaIS4_EE16_M_insert_uniqueERKS4_,"axG",@progbits,_ZNSt8_Rb_treeIPN7sigslot12_signal_baseINS0_15single_threadedEEES4_St9_IdentityIS4_ESt4lessIS4_ESaIS4_EE16_M_insert_uniqueERKS4_,comdat
	.align 2
	.weak	_ZNSt8_Rb_treeIPN7sigslot12_signal_baseINS0_15single_threadedEEES4_St9_IdentityIS4_ESt4lessIS4_ESaIS4_EE16_M_insert_uniqueERKS4_
	.type	_ZNSt8_Rb_treeIPN7sigslot12_signal_baseINS0_15single_threadedEEES4_St9_IdentityIS4_ESt4lessIS4_ESaIS4_EE16_M_insert_uniqueERKS4_, @function
_ZNSt8_Rb_treeIPN7sigslot12_signal_baseINS0_15single_threadedEEES4_St9_IdentityIS4_ESt4lessIS4_ESaIS4_EE16_M_insert_uniqueERKS4_:
.LFB1747:
	.loc 6 1264 0
	.cfi_startproc
.LVL341:
	mflr 0
	stwu 1,-32(1)
.LCFI56:
	.cfi_def_cfa_offset 32
	.cfi_register 65, 0
	stw 28,16(1)
	stw 0,36(1)
	stw 27,12(1)
	mr 27,4
	.cfi_offset 27, -20
	.cfi_offset 65, 4
	.cfi_offset 28, -16
.LBB2654:
.LBB2655:
.LBB2656:
	.loc 4 171 0
	lwz 28,8(3)
.LVL342:
.LBE2656:
.LBE2655:
.LBE2654:
	.loc 6 1264 0
	stw 29,20(1)
.LBB2681:
.LBB2673:
.LBB2669:
	.loc 6 1272 0
	addi 29,3,4
	.cfi_offset 29, -12
.LVL343:
.LBE2669:
.LBE2673:
	.loc 6 1274 0
	cmpwi 7,28,0
.LBE2681:
	.loc 6 1264 0
	stw 31,28(1)
	stw 26,8(1)
	mr 31,3
	.cfi_offset 26, -24
	.cfi_offset 31, -4
	stw 30,24(1)
.LBB2682:
	.loc 6 1274 0
	beq- 7,.L345
	.cfi_offset 30, -8
.LVL344:
	lwz 10,0(4)
	b .L334
.LVL345:
.L353:
	.loc 4 171 0 discriminator 1
	lwz 0,8(28)
.LVL346:
	.loc 6 1274 0 discriminator 1
	cmpwi 7,0,0
	beq- 7,.L352
.LVL347:
.L346:
	.loc 6 1274 0 is_stmt 0
	mr 28,0
.LVL348:
.L334:
	.loc 4 171 0 is_stmt 1
	lwz 9,16(28)
	li 11,1
	.loc 6 1278 0
	cmplw 7,9,10
	bgt- 7,.L353
	.loc 4 171 0 discriminator 2
	lwz 0,12(28)
	li 11,0
.LVL349:
	.loc 6 1274 0 discriminator 2
	cmpwi 7,0,0
	bne+ 7,.L346
.LVL350:
.L352:
	.loc 6 1281 0
	cmpwi 7,11,0
	mr 3,28
.LVL351:
	bne- 7,.L331
.LVL352:
	.loc 6 1289 0
	cmplw 7,10,9
	bgt- 7,.L354
.LVL353:
.L341:
	.loc 6 1292 0
	li 0,0
	li 4,0
	rlwimi 4,0,24,0,7
.LBE2682:
	.loc 6 1293 0
	lwz 0,36(1)
	lwz 26,8(1)
	mtlr 0
	lwz 27,12(1)
.LVL354:
	lwz 28,16(1)
	lwz 29,20(1)
	lwz 30,24(1)
	lwz 31,28(1)
.LVL355:
	addi 1,1,32
	.cfi_remember_state
.LCFI57:
	.cfi_def_cfa_offset 0
	.cfi_restore 31
	.cfi_restore 30
	.cfi_restore 29
	.cfi_restore 28
	.cfi_restore 27
	.cfi_restore 26
	blr
.LVL356:
.L345:
.LCFI58:
	.cfi_restore_state
.LBB2683:
	.loc 6 1272 0
	mr 28,29
.LVL357:
.L331:
	.loc 6 1283 0
	lwz 0,12(31)
	cmpw 7,28,0
	beq- 7,.L355
.LVL358:
.LBB2674:
.LBB2675:
	.loc 6 203 0
	mr 3,28
	bl _ZSt18_Rb_tree_decrementPSt18_Rb_tree_node_base
.LVL359:
	lwz 10,0(27)
	lwz 9,16(3)
.LVL360:
.LBE2675:
.LBE2674:
	.loc 6 1289 0
	cmplw 7,10,9
	ble+ 7,.L341
.LVL361:
.L354:
.LBB2676:
.LBB2670:
	.loc 6 969 0
	cmpw 7,28,29
	li 26,1
	beq- 7,.L342
.LVL362:
	.loc 6 1264 0
	lwz 26,16(28)
	subfc 26,26,10
	subfe 26,26,26
	neg 26,26
	b .L342
.LVL363:
.L355:
.LBE2670:
.LBE2676:
.LBB2677:
.LBB2678:
	.loc 6 969 0
	cmpw 7,28,29
	li 26,1
	beq- 7,.L342
.LVL364:
	.loc 6 1264 0
	lwz 26,0(27)
	lwz 0,16(28)
.LVL365:
	subfc 26,0,26
	subfe 26,26,26
	neg 26,26
.LVL366:
.L342:
.LBE2678:
.LBE2677:
.LBB2679:
.LBB2671:
.LBB2657:
.LBB2658:
.LBB2659:
.LBB2660:
.LBB2661:
	.loc 7 92 0
	li 3,20
	bl _Znwj
.LBE2661:
.LBE2660:
.LBE2659:
.LBB2664:
.LBB2665:
	.loc 7 108 0
	cmpwi 7,3,-16
.LBE2665:
.LBE2664:
.LBB2667:
.LBB2663:
.LBB2662:
	.loc 7 92 0
	mr 30,3
.LVL367:
.LBE2662:
.LBE2663:
.LBE2667:
.LBB2668:
.LBB2666:
	.loc 7 108 0
	beq- 7,.L344
	lwz 0,0(27)
	stw 0,16(3)
.L344:
.LVL368:
.LBE2666:
.LBE2668:
.LBE2658:
.LBE2657:
	.loc 6 973 0
	mr 3,26
.LVL369:
	mr 4,30
	mr 5,28
	mr 6,29
	bl _ZSt29_Rb_tree_insert_and_rebalancebPSt18_Rb_tree_node_baseS0_RS_
	.loc 6 976 0
	lwz 9,20(31)
	.loc 6 1291 0
	li 4,0
	mr 3,30
	.loc 6 976 0
	addi 0,9,1
.LBE2671:
.LBE2679:
.LBE2683:
	.loc 6 1293 0
	lwz 26,8(1)
.LVL370:
.LBB2684:
.LBB2680:
.LBB2672:
	.loc 6 976 0
	stw 0,20(31)
.LVL371:
	.loc 6 1291 0
	li 0,1
	rlwimi 4,0,24,0,7
.LBE2672:
.LBE2680:
.LBE2684:
	.loc 6 1293 0
	lwz 0,36(1)
	lwz 27,12(1)
.LVL372:
	mtlr 0
	lwz 28,16(1)
	lwz 29,20(1)
	lwz 30,24(1)
.LVL373:
	lwz 31,28(1)
.LVL374:
	addi 1,1,32
	.cfi_restore 26
	.cfi_restore 27
	.cfi_restore 28
	.cfi_restore 29
	.cfi_restore 30
	.cfi_restore 31
.LCFI59:
	.cfi_def_cfa_offset 0
	blr
	.cfi_endproc
.LFE1747:
	.size	_ZNSt8_Rb_treeIPN7sigslot12_signal_baseINS0_15single_threadedEEES4_St9_IdentityIS4_ESt4lessIS4_ESaIS4_EE16_M_insert_uniqueERKS4_, .-_ZNSt8_Rb_treeIPN7sigslot12_signal_baseINS0_15single_threadedEEES4_St9_IdentityIS4_ESt4lessIS4_ESaIS4_EE16_M_insert_uniqueERKS4_
	.section	.text._ZN7sigslot7signal3IP9GuiButtoniRK6_POINTNS_15single_threadedEE7connectI9GuiNumpadEEvPT_MSA_FvS2_iS5_E,"axG",@progbits,_ZN7sigslot7signal3IP9GuiButtoniRK6_POINTNS_15single_threadedEE7connectI9GuiNumpadEEvPT_MSA_FvS2_iS5_E,comdat
	.align 2
	.weak	_ZN7sigslot7signal3IP9GuiButtoniRK6_POINTNS_15single_threadedEE7connectI9GuiNumpadEEvPT_MSA_FvS2_iS5_E
	.type	_ZN7sigslot7signal3IP9GuiButtoniRK6_POINTNS_15single_threadedEE7connectI9GuiNumpadEEvPT_MSA_FvS2_iS5_E, @function
_ZN7sigslot7signal3IP9GuiButtoniRK6_POINTNS_15single_threadedEE7connectI9GuiNumpadEEvPT_MSA_FvS2_iS5_E:
.LFB1602:
	.loc 1 2308 0
	.cfi_startproc
	.cfi_personality 0,__gxx_personality_v0
	.cfi_lsda 0,.LLSDA1602
.LVL375:
	mflr 0
	stwu 1,-48(1)
.LCFI60:
	.cfi_def_cfa_offset 48
	.cfi_register 65, 0
	stw 27,28(1)
	stw 0,52(1)
	stw 30,40(1)
	mr 30,4
	.cfi_offset 30, -8
	.cfi_offset 65, 4
	.cfi_offset 27, -20
.LBB2685:
.LBB2686:
.LBB2687:
	.loc 1 338 0
	lwz 9,0(3)
.LBE2687:
.LBE2686:
.LBE2685:
	.loc 1 2308 0
	stw 31,44(1)
	mr 31,3
	.cfi_offset 31, -4
.LVL376:
.LBB2740:
.LBB2691:
.LBB2688:
	.loc 1 338 0
	lwz 0,8(9)
.LBE2688:
.LBE2691:
.LBE2740:
	.loc 1 2308 0
	stw 28,32(1)
	stw 29,36(1)
.LBB2741:
.LBB2692:
.LBB2689:
	.loc 1 338 0
	mtctr 0
.LBE2689:
.LBE2692:
.LBE2741:
	.loc 1 2308 0
	lwz 27,0(5)
	lwz 28,4(5)
	.cfi_offset 29, -12
	.cfi_offset 28, -16
.LEHB15:
.LBB2742:
.LBB2693:
.LBB2690:
	.loc 1 338 0
	bctrl
.LEHE15:
.LVL377:
.LBE2690:
.LBE2693:
	.loc 1 2314 0
	li 3,16
.LEHB16:
	bl _Znwj
.LBB2694:
.LBB2695:
	.loc 1 1778 0
	lis 9,_ZTVN7sigslot12_connection3I9GuiNumpadP9GuiButtoniRK6_POINTNS_15single_threadedEEE+8@ha
	.loc 1 1779 0
	stw 30,4(3)
	.loc 1 1778 0
	la 0,_ZTVN7sigslot12_connection3I9GuiNumpadP9GuiButtoniRK6_POINTNS_15single_threadedEEE+8@l(9)
	.loc 1 1780 0
	stw 27,8(3)
	.loc 1 1778 0
	stw 0,0(3)
.LBE2695:
.LBE2694:
	.loc 1 2314 0
	mr 29,3
.LVL378:
.LBB2697:
.LBB2696:
	.loc 1 1780 0
	stw 28,12(3)
.LVL379:
.LBE2696:
.LBE2697:
.LBB2698:
.LBB2699:
.LBB2700:
.LBB2701:
.LBB2702:
.LBB2703:
.LBB2704:
.LBB2705:
	.loc 7 92 0
	li 3,12
.LVL380:
	bl _Znwj
.LVL381:
.LBE2705:
.LBE2704:
.LBE2703:
.LBB2706:
.LBB2707:
	.loc 7 108 0 discriminator 1
	cmpwi 7,3,-8
	beq- 7,.L358
	.loc 7 108 0 is_stmt 0
	stw 29,8(3)
.LVL382:
.L358:
.LBE2707:
.LBE2706:
.LBE2702:
.LBE2701:
	.file 9 "d:\\devkitpro\\devkitppc\\bin\\../lib/gcc/powerpc-eabi/4.6.3/../../../../powerpc-eabi/include/c++/4.6.3/bits/stl_list.h"
	.loc 9 1516 0 is_stmt 1
	addi 4,31,4
.LBE2700:
.LBE2699:
.LBE2698:
.LBB2712:
.LBB2713:
	.loc 1 503 0
	addi 29,30,176
.LVL383:
.LBE2713:
.LBE2712:
.LBB2729:
.LBB2710:
.LBB2708:
	.loc 9 1516 0
	bl _ZNSt8__detail15_List_node_base7_M_hookEPS0_
.LVL384:
.LBE2708:
.LBE2710:
.LBE2729:
.LBB2730:
.LBB2726:
.LBB2714:
.LBB2715:
	.loc 1 338 0
	lwz 9,176(30)
.LBE2715:
.LBE2714:
.LBE2726:
.LBE2730:
.LBB2731:
.LBB2711:
.LBB2709:
	.loc 9 1516 0
	stw 31,8(1)
.LVL385:
.LBE2709:
.LBE2711:
.LBE2731:
.LBB2732:
.LBB2727:
.LBB2717:
.LBB2716:
	.loc 1 338 0
	mr 3,29
	lwz 0,8(9)
	mtctr 0
	bctrl
.LEHE16:
.LVL386:
.LBE2716:
.LBE2717:
.LBB2718:
.LBB2719:
	.loc 8 410 0
	addi 3,30,180
	addi 4,1,8
.LEHB17:
	bl _ZNSt8_Rb_treeIPN7sigslot12_signal_baseINS0_15single_threadedEEES4_St9_IdentityIS4_ESt4lessIS4_ESaIS4_EE16_M_insert_uniqueERKS4_
.LEHE17:
.LVL387:
.LBE2719:
.LBE2718:
.LBB2720:
.LBB2721:
.LBB2722:
	.loc 1 343 0
	lwz 9,176(30)
	mr 3,29
	lwz 0,12(9)
	mtctr 0
.LEHB18:
	bctrl
.LEHE18:
.LVL388:
.LBE2722:
.LBE2721:
.LBE2720:
.LBE2727:
.LBE2732:
.LBB2733:
.LBB2734:
.LBB2735:
	lwz 9,0(31)
	mr 3,31
	lwz 0,12(9)
	mtctr 0
.LEHB19:
	bctrl
.LEHE19:
.LBE2735:
.LBE2734:
.LBE2733:
.LBE2742:
	.loc 1 2317 0
	lwz 0,52(1)
	lwz 27,28(1)
.LVL389:
	mtlr 0
	lwz 28,32(1)
.LVL390:
	lwz 29,36(1)
.LVL391:
	lwz 30,40(1)
.LVL392:
	lwz 31,44(1)
.LVL393:
	addi 1,1,48
	.cfi_remember_state
.LCFI61:
	.cfi_def_cfa_offset 0
	.cfi_restore 31
	.cfi_restore 30
	.cfi_restore 29
	.cfi_restore 28
	.cfi_restore 27
	blr
.LVL394:
.L365:
.LCFI62:
	.cfi_restore_state
	mr 30,3
.LVL395:
.L362:
.LBB2743:
.LBB2736:
.LBB2737:
.LBB2738:
	.loc 1 343 0
	lwz 9,0(31)
	mr 3,31
	lwz 0,12(9)
	mtctr 0
	bctrl
	mr 3,30
.LEHB20:
	bl _Unwind_Resume
.LEHE20:
.LVL396:
.L366:
.LBE2738:
.LBE2737:
.LBE2736:
.LBB2739:
.LBB2728:
.LBB2723:
.LBB2724:
.LBB2725:
	lwz 9,176(30)
	mr 30,3
.LVL397:
	mr 3,29
	lwz 0,12(9)
	mtctr 0
	bctrl
	b .L362
.LBE2725:
.LBE2724:
.LBE2723:
.LBE2728:
.LBE2739:
.LBE2743:
	.cfi_endproc
.LFE1602:
	.section	.gcc_except_table
.LLSDA1602:
	.byte	0xff
	.byte	0xff
	.byte	0x1
	.uleb128 .LLSDACSE1602-.LLSDACSB1602
.LLSDACSB1602:
	.uleb128 .LEHB15-.LFB1602
	.uleb128 .LEHE15-.LEHB15
	.uleb128 0
	.uleb128 0
	.uleb128 .LEHB16-.LFB1602
	.uleb128 .LEHE16-.LEHB16
	.uleb128 .L365-.LFB1602
	.uleb128 0
	.uleb128 .LEHB17-.LFB1602
	.uleb128 .LEHE17-.LEHB17
	.uleb128 .L366-.LFB1602
	.uleb128 0
	.uleb128 .LEHB18-.LFB1602
	.uleb128 .LEHE18-.LEHB18
	.uleb128 .L365-.LFB1602
	.uleb128 0
	.uleb128 .LEHB19-.LFB1602
	.uleb128 .LEHE19-.LEHB19
	.uleb128 0
	.uleb128 0
	.uleb128 .LEHB20-.LFB1602
	.uleb128 .LEHE20-.LEHB20
	.uleb128 0
	.uleb128 0
.LLSDACSE1602:
	.section	.text._ZN7sigslot7signal3IP9GuiButtoniRK6_POINTNS_15single_threadedEE7connectI9GuiNumpadEEvPT_MSA_FvS2_iS5_E,"axG",@progbits,_ZN7sigslot7signal3IP9GuiButtoniRK6_POINTNS_15single_threadedEE7connectI9GuiNumpadEEvPT_MSA_FvS2_iS5_E,comdat
	.size	_ZN7sigslot7signal3IP9GuiButtoniRK6_POINTNS_15single_threadedEE7connectI9GuiNumpadEEvPT_MSA_FvS2_iS5_E, .-_ZN7sigslot7signal3IP9GuiButtoniRK6_POINTNS_15single_threadedEE7connectI9GuiNumpadEEvPT_MSA_FvS2_iS5_E
	.section	".text"
	.align 2
	.globl _ZN9GuiNumpadC2EPcjb
	.type	_ZN9GuiNumpadC2EPcjb, @function
_ZN9GuiNumpadC2EPcjb:
.LFB1564:
	.loc 4 31 0
	.cfi_startproc
	.cfi_personality 0,__gxx_personality_v0
	.cfi_lsda 0,.LLSDA1564
.LVL398:
	stwu 1,-80(1)
.LCFI63:
	.cfi_def_cfa_offset 80
	mflr 0
	stw 27,60(1)
	mr 27,6
	.cfi_offset 27, -20
	.cfi_register 65, 0
	stw 29,68(1)
.LBB2744:
	.loc 4 32 0
	li 6,0
.LVL399:
.LBE2744:
	.loc 4 31 0
	mr 29,5
	.cfi_offset 29, -12
	stw 31,76(1)
.LBB2803:
	.loc 4 32 0
	li 5,290
.LVL400:
.LBE2803:
	.loc 4 31 0
	mr 31,4
	.cfi_offset 31, -4
.LBB2804:
	.loc 4 32 0
	li 4,400
.LVL401:
.LBE2804:
	.loc 4 31 0
	stw 0,84(1)
	stw 30,72(1)
	mr 30,3
	.cfi_offset 30, -8
	.cfi_offset 65, 4
	stw 22,40(1)
	stw 23,44(1)
	stw 24,48(1)
	stw 25,52(1)
	stw 26,56(1)
	stw 28,64(1)
.LEHB21:
.LBB2805:
	.loc 4 32 0
	.cfi_offset 28, -16
	.cfi_offset 26, -24
	.cfi_offset 25, -28
	.cfi_offset 24, -32
	.cfi_offset 23, -36
	.cfi_offset 22, -40
	bl _ZN8GuiFrameC2EiiPS_
.LEHE21:
.LVL402:
.LBB2745:
	.loc 4 36 0
	cmplwi 7,29,256
.LBE2745:
	.loc 4 32 0
	lis 9,_ZTV9GuiNumpad+8@ha
.LBB2764:
.LBB2765:
.LBB2766:
.LBB2767:
.LBB2768:
.LBB2769:
	.loc 6 445 0
	li 0,0
.LBE2769:
.LBE2768:
.LBE2767:
.LBE2766:
.LBE2765:
.LBE2764:
	.loc 4 32 0
	la 9,_ZTV9GuiNumpad+8@l(9)
.LBB2794:
.LBB2790:
.LBB2786:
.LBB2782:
.LBB2778:
.LBB2774:
.LBB2770:
.LBB2771:
	.loc 6 459 0
	addi 11,30,184
.LBE2771:
.LBE2770:
.LBE2774:
.LBE2778:
.LBE2782:
.LBE2786:
.LBE2790:
.LBE2794:
	.loc 4 32 0
	addi 10,9,228
.LBB2795:
.LBB2791:
.LBB2787:
.LBB2783:
.LBB2779:
.LBB2775:
	.loc 6 445 0
	stw 0,184(30)
.LBE2775:
.LBE2779:
.LBE2783:
.LBE2787:
.LBE2791:
.LBE2795:
.LBB2796:
	.loc 4 36 0
	mr 5,29
.LBE2796:
.LBB2797:
.LBB2792:
.LBB2788:
.LBB2784:
.LBB2780:
.LBB2776:
	.loc 6 445 0
	stw 0,188(30)
	stw 0,200(30)
.LVL403:
.LBE2776:
.LBE2780:
.LBE2784:
.LBE2788:
.LBE2792:
.LBE2797:
.LBB2798:
.LBB2746:
.LBB2747:
	.loc 2 316 0
	li 0,34
.LBE2747:
.LBE2746:
.LBE2798:
.LBB2799:
.LBB2793:
.LBB2789:
.LBB2785:
.LBB2781:
.LBB2777:
.LBB2773:
.LBB2772:
	.loc 6 459 0
	stw 11,192(30)
	.loc 6 460 0
	stw 11,196(30)
.LBE2772:
.LBE2773:
.LBE2777:
.LBE2781:
.LBE2785:
.LBE2789:
.LBE2793:
.LBE2799:
	.loc 4 32 0
	stw 9,0(30)
	stw 10,176(30)
.LVL404:
.LBB2800:
.LBB2749:
.LBB2748:
	.loc 2 316 0
	stw 0,68(30)
.LBE2748:
.LBE2749:
	.loc 4 36 0
	ble- 7,.L369
	li 5,256
.L369:
	stw 5,204(30)
	.loc 4 37 0
	addi 28,30,220
	mr 3,28
	mr 4,31
	bl strncpy
	.loc 4 38 0
	li 0,0
	stb 0,475(30)
	.loc 4 40 0
	lis 9,.LANCHOR0@ha
	la 10,.LANCHOR0@l(9)
	.loc 4 43 0
	lis 3,.LC5@ha
	.loc 4 40 0
	lwz 0,8(10)
	.loc 4 43 0
	la 3,.LC5@l(3)
	.loc 4 40 0
	lwz 11,.LANCHOR0@l(9)
	lwz 9,4(10)
	.loc 4 41 0
	stw 11,208(30)
	stw 9,212(30)
	stw 0,216(30)
	.loc 4 40 0
	stw 11,12(1)
	stw 9,16(1)
	stw 0,20(1)
.LEHB22:
	.loc 4 43 0
	bl _ZN9Resources8GetSoundEPKc
	stw 3,604(30)
	.loc 4 44 0
	lis 3,.LC6@ha
	la 3,.LC6@l(3)
	bl _ZN9Resources8GetSoundEPKc
	.loc 4 45 0 discriminator 1
	lis 31,Settings@ha
.LVL405:
	.loc 4 44 0 discriminator 1
	stw 3,600(30)
	.loc 4 45 0 discriminator 1
	la 31,Settings@l(31)
	lwz 3,604(30)
	lwz 4,1248(31)
	bl _ZN8GuiSound9SetVolumeEi
	.loc 4 46 0
	lwz 3,600(30)
	lwz 4,1248(31)
	bl _ZN8GuiSound9SetVolumeEi
	.loc 4 48 0
	lis 3,.LC7@ha
	la 3,.LC7@l(3)
	bl _ZN9Resources12GetImageDataEPKc
	stw 3,596(30)
	.loc 4 49 0
	li 3,196
	bl _Znwj
.LEHE22:
	.loc 4 49 0 is_stmt 0 discriminator 1
	lwz 4,596(30)
	mr 29,3
.LVL406:
.LEHB23:
	bl _ZN8GuiImageC1EP12GuiImageData
.LEHE23:
	stw 29,592(30)
	.loc 4 50 0 is_stmt 1 discriminator 1
	mr 3,29
	lwz 9,0(29)
	li 4,18
	lwz 0,180(9)
	mtctr 0
.LEHB24:
	bctrl
	.loc 4 51 0
	lwz 3,592(30)
	li 4,0
	li 5,0
	lwz 9,0(3)
	lwz 0,168(9)
	mtctr 0
	bctrl
	.loc 4 52 0
	lwz 4,592(30)
	mr 3,30
	bl _ZN8GuiFrame6AppendEP10GuiElement
	.loc 4 54 0
	lis 3,.LC8@ha
	la 3,.LC8@l(3)
	bl getThemeColor
	mr 26,3
	li 3,208
	bl _Znwj
.LEHE24:
	.loc 4 54 0 is_stmt 0 discriminator 1
	mr 25,1
	lis 4,.LC9@ha
	stwu 26,24(25)
	la 4,.LC9@l(4)
	li 5,20
	mr 29,3
	mr 6,25
.LEHB25:
	bl _ZN7GuiTextC1EPKci9_gx_color
.LEHE25:
	stw 29,476(30)
	.loc 4 55 0 is_stmt 1 discriminator 1
	mr 3,29
	lwz 9,0(29)
	li 4,18
	lwz 0,180(9)
	mtctr 0
.LEHB26:
	bctrl
	.loc 4 56 0
	lwz 3,476(30)
	li 4,0
	li 5,13
	lwz 9,0(3)
	lwz 0,168(9)
	mtctr 0
	bctrl
	.loc 4 57 0
	cmpwi 7,27,0
.LBB2750:
.LBB2751:
	.file 10 "d:/Projects/SaveGameManager/savegame-manager-gx/trunk/source/GUI/gui_text.h"
	.loc 10 85 0
	lwz 3,476(30)
.LBE2751:
.LBE2750:
	.loc 4 57 0
	beq- 7,.L370
.LVL407:
.LBB2753:
.LBB2752:
	.loc 10 85 0 discriminator 1
	li 0,42
	stw 0,204(3)
.LVL408:
.L370:
.LBE2752:
.LBE2753:
	.loc 4 58 0
	lwz 9,0(3)
	mr 4,28
	lwz 0,200(9)
	mtctr 0
	bctrl
	.loc 4 59 0
	lwz 4,476(30)
	mr 3,30
	bl _ZN8GuiFrame6AppendEP10GuiElement
	.loc 4 61 0
	li 3,368
	bl _Znwj
.LEHE26:
	mr 29,3
	lhz 27,2616(31)
	lhz 26,2644(31)
	lhz 28,2672(31)
.LVL409:
.LEHB27:
.LBB2754:
.LBB2755:
	.loc 5 95 0
	bl _ZN10GuiTriggerC2Ev
.LEHE27:
.LVL410:
	lis 9,_ZTV16SimpleGuiTrigger+8@ha
.LBE2755:
.LBE2754:
	.loc 4 61 0
	slwi 5,26,16
.LBB2758:
.LBB2756:
	.loc 5 95 0
	la 0,_ZTV16SimpleGuiTrigger+8@l(9)
	.loc 5 96 0
	mr 3,29
	.loc 5 95 0
	stw 0,0(29)
	.loc 5 96 0
	li 4,-1
	or 5,5,27
	mr 6,28
.LEHB28:
	bl _ZN10GuiTrigger16SetSimpleTriggerEijt
.LEHE28:
.LBE2756:
.LBE2758:
	.loc 4 61 0 discriminator 1
	stw 29,608(30)
	.loc 4 62 0 discriminator 1
	li 3,368
.LEHB29:
	bl _Znwj
.LEHE29:
	mr 29,3
.LVL411:
.LEHB30:
	bl _ZN10GuiTriggerC1Ev
.LEHE30:
	.loc 4 63 0 discriminator 2
	lhz 5,2646(31)
	mr 3,29
	lhz 0,2618(31)
	li 4,-1
	slwi 5,5,16
	.loc 4 62 0 discriminator 2
	stw 29,612(30)
	.loc 4 63 0 discriminator 2
	lhz 6,2674(31)
	or 5,5,0
.LEHB31:
	bl _ZN10GuiTrigger20SetButtonOnlyTriggerEijt
	.loc 4 65 0
	lis 28,.LC10@ha
.LVL412:
	la 28,.LC10@l(28)
	mr 3,28
	bl getThemeColor
	mr 29,3
	li 3,208
	bl _Znwj
.LEHE31:
	.loc 4 65 0 is_stmt 0 discriminator 1
	lis 4,.LC11@ha
	li 5,20
	la 4,.LC11@l(4)
	mr 6,25
	mr 31,3
	stw 29,24(1)
.LEHB32:
	bl _ZN7GuiTextC1EPKci9_gx_color
.LEHE32:
	stw 31,480(30)
	.loc 4 66 0 is_stmt 1 discriminator 1
	li 3,320
.LEHB33:
	bl _Znwj
.LEHE33:
	lis 23,.LC12@ha
	lis 24,.LC13@ha
	la 23,.LC12@l(23)
	la 24,.LC13@l(24)
	lwz 6,600(30)
	mr 4,23
	lwz 7,604(30)
	mr 5,24
	mr 31,3
.LEHB34:
	bl _ZN13PictureButtonC1EPKcS1_P8GuiSoundS3_
.LEHE34:
	stw 31,484(30)
	.loc 4 67 0 discriminator 1
	mr 3,31
	lwz 9,0(31)
	li 4,66
	lwz 0,180(9)
	mtctr 0
.LEHB35:
	bctrl
	.loc 4 68 0
	lwz 3,484(30)
	li 4,90
	li 5,0
	lwz 9,0(3)
	lwz 0,168(9)
	mtctr 0
	bctrl
	.loc 4 69 0
	lwz 3,484(30)
	li 5,0
	lwz 4,480(30)
	bl _ZN9GuiButton8SetLabelEP7GuiTexti
	.loc 4 70 0
	lwz 3,484(30)
	lwz 4,608(30)
	bl _ZN9GuiButton10SetTriggerEP10GuiTrigger
	.loc 4 71 0
	lwz 3,484(30)
	lwz 4,612(30)
	bl _ZN9GuiButton10SetTriggerEP10GuiTrigger
	.loc 4 72 0
	lwz 3,484(30)
	lis 29,_ZN9GuiNumpad17OnSpecialKeyPressEP9GuiButtoniRK6_POINT@ha
	la 29,_ZN9GuiNumpad17OnSpecialKeyPressEP9GuiButtoniRK6_POINT@l(29)
	li 0,0
	addi 3,3,144
	mr 4,30
	addi 5,1,32
	stw 29,32(1)
	stw 0,36(1)
	bl _ZN7sigslot7signal3IP9GuiButtoniRK6_POINTNS_15single_threadedEE7connectI9GuiNumpadEEvPT_MSA_FvS2_iS5_E
	.loc 4 73 0
	lwz 4,484(30)
	mr 3,30
	bl _ZN8GuiFrame6AppendEP10GuiElement
	.loc 4 75 0
	mr 3,28
	bl getThemeColor
	mr 28,3
	li 3,208
	bl _Znwj
.LEHE35:
	.loc 4 75 0 is_stmt 0 discriminator 1
	lis 4,.LC14@ha
	li 5,20
	la 4,.LC14@l(4)
	mr 6,25
	mr 31,3
	stw 28,24(1)
.LEHB36:
	bl _ZN7GuiTextC1EPKci9_gx_color
.LEHE36:
	stw 31,488(30)
	.loc 4 76 0 is_stmt 1 discriminator 1
	li 3,320
.LEHB37:
	bl _Znwj
.LEHE37:
	lwz 6,600(30)
	mr 4,23
	lwz 7,604(30)
	mr 5,24
	mr 31,3
.LEHB38:
	bl _ZN13PictureButtonC1EPKcS1_P8GuiSoundS3_
.LEHE38:
	stw 31,492(30)
	.loc 4 77 0 discriminator 1
	mr 3,31
	lwz 9,0(31)
	li 4,66
	lwz 0,180(9)
	mtctr 0
.LEHB39:
	bctrl
	.loc 4 78 0
	lwz 3,492(30)
	li 4,-90
	li 5,0
	lwz 9,0(3)
	lwz 0,168(9)
	mtctr 0
	bctrl
	.loc 4 79 0
	lwz 3,492(30)
	li 5,0
	lwz 4,488(30)
	bl _ZN9GuiButton8SetLabelEP7GuiTexti
	.loc 4 80 0
	lwz 3,492(30)
	lwz 4,608(30)
	bl _ZN9GuiButton10SetTriggerEP10GuiTrigger
	.loc 4 81 0
	lwz 3,492(30)
	li 0,0
	mr 4,30
	addi 5,1,32
	addi 3,3,144
	stw 29,32(1)
	stw 0,36(1)
	bl _ZN7sigslot7signal3IP9GuiButtoniRK6_POINTNS_15single_threadedEE7connectI9GuiNumpadEEvPT_MSA_FvS2_iS5_E
	.loc 4 82 0
	lwz 4,492(30)
	mr 3,30
	bl _ZN8GuiFrame6AppendEP10GuiElement
	.loc 4 84 0
	li 0,0
	lis 22,.LC15@ha
	stb 0,9(1)
.LVL413:
	.loc 4 31 0
	addi 27,30,207
.LVL414:
	.loc 4 84 0
	mr 31,30
.LBE2800:
.LBE2805:
	.loc 4 85 0
	li 29,0
	la 22,.LC15@l(22)
.LVL415:
.L374:
.LBB2806:
.LBB2801:
.LBB2759:
.LBB2760:
	.loc 4 90 0
	lbzu 0,1(27)
	.loc 4 92 0
	mr 3,22
	.loc 4 90 0
	stb 0,8(1)
	.loc 4 92 0
	bl getThemeColor
	mr 26,3
	li 3,208
	bl _Znwj
.LEHE39:
	.loc 4 92 0 is_stmt 0 discriminator 1
	addi 4,1,8
	li 5,20
	mr 6,25
	mr 28,3
	stw 26,24(1)
.LEHB40:
	bl _ZN7GuiTextC1EPKci9_gx_color
.LEHE40:
	stw 28,496(31)
	.loc 4 93 0 is_stmt 1 discriminator 1
	mr 3,28
	li 4,66
	lwz 9,0(28)
	lwz 0,180(9)
	mtctr 0
.LEHB41:
	bctrl
	.loc 4 94 0
	lwz 3,496(31)
	li 4,0
	li 5,-10
	lwz 9,0(3)
	lwz 0,168(9)
	mtctr 0
	bctrl
	.loc 4 96 0
	li 3,320
	bl _Znwj
.LEHE41:
	lwz 6,600(30)
	mr 4,23
	lwz 7,604(30)
	mr 5,24
	mr 28,3
.LEHB42:
	bl _ZN13PictureButtonC1EPKcS1_P8GuiSoundS3_
.LEHE42:
	.loc 4 96 0 is_stmt 0 discriminator 1
	stw 28,544(31)
	.loc 4 97 0 is_stmt 1 discriminator 1
	mr 3,28
	li 4,34
	lwz 9,0(28)
	lwz 0,180(9)
	mtctr 0
.LEHB43:
	bctrl
	.loc 4 87 0
	lis 5,0x5555
	srawi 0,29,31
	ori 5,5,21846
	.loc 4 98 0
	lwz 3,544(31)
	.loc 4 87 0
	mulhw 5,29,5
	.loc 4 98 0
	lwz 9,0(3)
	.loc 4 87 0
	subf 5,0,5
	.loc 4 98 0
	lwz 0,168(9)
	.loc 4 87 0
	mulli 4,5,3
	.loc 4 98 0
	mulli 5,5,50
	mtctr 0
	.loc 4 87 0
	subf 4,4,29
	.loc 4 98 0
	addi 4,4,-1
	addi 5,5,-75
	mulli 4,4,90
	bctrl
	.loc 4 99 0
	lwz 3,544(31)
	li 5,0
	lwz 4,496(31)
	bl _ZN9GuiButton8SetLabelEP7GuiTexti
	.loc 4 100 0
	lwz 3,544(31)
	lwz 4,608(30)
	bl _ZN9GuiButton10SetTriggerEP10GuiTrigger
	.loc 4 101 0
	lwz 3,544(31)
	lis 9,_ZN9GuiNumpad16OnNormalKeyPressEP9GuiButtoniRK6_POINT@ha
	la 0,_ZN9GuiNumpad16OnNormalKeyPressEP9GuiButtoniRK6_POINT@l(9)
	mr 4,30
	stw 0,32(1)
	addi 3,3,144
	li 0,0
	addi 5,1,32
	stw 0,36(1)
	bl _ZN7sigslot7signal3IP9GuiButtoniRK6_POINTNS_15single_threadedEE7connectI9GuiNumpadEEvPT_MSA_FvS2_iS5_E
	.loc 4 102 0
	lwz 4,544(31)
	mr 3,30
	bl _ZN8GuiFrame6AppendEP10GuiElement
.LEHE43:
.LVL416:
.LBE2760:
	.loc 4 85 0
	cmpwi 7,29,11
	addi 31,31,4
	addi 29,29,1
.LVL417:
	bne+ 7,.L374
.LBE2759:
.LBE2801:
.LBE2806:
	.loc 4 104 0
	lwz 0,84(1)
	lwz 22,40(1)
	mtlr 0
	lwz 23,44(1)
	lwz 24,48(1)
	lwz 25,52(1)
	lwz 26,56(1)
	lwz 27,60(1)
	lwz 28,64(1)
	lwz 29,68(1)
.LVL418:
	lwz 30,72(1)
.LVL419:
	lwz 31,76(1)
	addi 1,1,80
	.cfi_remember_state
.LCFI64:
	.cfi_def_cfa_offset 0
	.cfi_restore 31
	.cfi_restore 30
	.cfi_restore 29
	.cfi_restore 28
	.cfi_restore 27
	.cfi_restore 26
	.cfi_restore 25
	.cfi_restore 24
	.cfi_restore 23
	.cfi_restore 22
	blr
.LVL420:
.L385:
.LCFI65:
	.cfi_restore_state
	mr 31,3
.L376:
.LBB2807:
	.loc 4 32 0
	addi 3,30,176
	bl _ZN7sigslot9has_slotsINS_15single_threadedEED2Ev
	mr 3,30
	bl _ZN8GuiFrameD2Ev
	mr 3,31
.LEHB44:
	bl _Unwind_Resume
.LEHE44:
.LVL421:
.L395:
.L402:
	mr 31,3
.LBB2802:
.LBB2762:
.LBB2761:
	.loc 4 96 0
	mr 3,28
	bl _ZdlPv
	b .L376
.L394:
	b .L402
.LVL422:
.L393:
.L404:
	mr 29,3
.LBE2761:
.LBE2762:
	.loc 4 76 0
	mr 3,31
	bl _ZdlPv
	mr 31,29
	b .L376
.L392:
	b .L404
.L391:
	b .L404
.L390:
	b .L404
.LVL423:
.L389:
.L405:
	mr 31,3
.L406:
	.loc 4 54 0
	mr 3,29
	bl _ZdlPv
	b .L376
.LVL424:
.L396:
	mr 31,3
.LBB2763:
.LBB2757:
	.loc 5 95 0
	mr 3,29
	bl _ZN10GuiTriggerD2Ev
	b .L406
.L388:
	b .L405
.LVL425:
.L387:
	b .L405
.L386:
	b .L405
.LBE2757:
.LBE2763:
.LBE2802:
.LBE2807:
	.cfi_endproc
.LFE1564:
	.section	.gcc_except_table
.LLSDA1564:
	.byte	0xff
	.byte	0xff
	.byte	0x1
	.uleb128 .LLSDACSE1564-.LLSDACSB1564
.LLSDACSB1564:
	.uleb128 .LEHB21-.LFB1564
	.uleb128 .LEHE21-.LEHB21
	.uleb128 0
	.uleb128 0
	.uleb128 .LEHB22-.LFB1564
	.uleb128 .LEHE22-.LEHB22
	.uleb128 .L385-.LFB1564
	.uleb128 0
	.uleb128 .LEHB23-.LFB1564
	.uleb128 .LEHE23-.LEHB23
	.uleb128 .L386-.LFB1564
	.uleb128 0
	.uleb128 .LEHB24-.LFB1564
	.uleb128 .LEHE24-.LEHB24
	.uleb128 .L385-.LFB1564
	.uleb128 0
	.uleb128 .LEHB25-.LFB1564
	.uleb128 .LEHE25-.LEHB25
	.uleb128 .L387-.LFB1564
	.uleb128 0
	.uleb128 .LEHB26-.LFB1564
	.uleb128 .LEHE26-.LEHB26
	.uleb128 .L385-.LFB1564
	.uleb128 0
	.uleb128 .LEHB27-.LFB1564
	.uleb128 .LEHE27-.LEHB27
	.uleb128 .L388-.LFB1564
	.uleb128 0
	.uleb128 .LEHB28-.LFB1564
	.uleb128 .LEHE28-.LEHB28
	.uleb128 .L396-.LFB1564
	.uleb128 0
	.uleb128 .LEHB29-.LFB1564
	.uleb128 .LEHE29-.LEHB29
	.uleb128 .L385-.LFB1564
	.uleb128 0
	.uleb128 .LEHB30-.LFB1564
	.uleb128 .LEHE30-.LEHB30
	.uleb128 .L389-.LFB1564
	.uleb128 0
	.uleb128 .LEHB31-.LFB1564
	.uleb128 .LEHE31-.LEHB31
	.uleb128 .L385-.LFB1564
	.uleb128 0
	.uleb128 .LEHB32-.LFB1564
	.uleb128 .LEHE32-.LEHB32
	.uleb128 .L390-.LFB1564
	.uleb128 0
	.uleb128 .LEHB33-.LFB1564
	.uleb128 .LEHE33-.LEHB33
	.uleb128 .L385-.LFB1564
	.uleb128 0
	.uleb128 .LEHB34-.LFB1564
	.uleb128 .LEHE34-.LEHB34
	.uleb128 .L391-.LFB1564
	.uleb128 0
	.uleb128 .LEHB35-.LFB1564
	.uleb128 .LEHE35-.LEHB35
	.uleb128 .L385-.LFB1564
	.uleb128 0
	.uleb128 .LEHB36-.LFB1564
	.uleb128 .LEHE36-.LEHB36
	.uleb128 .L392-.LFB1564
	.uleb128 0
	.uleb128 .LEHB37-.LFB1564
	.uleb128 .LEHE37-.LEHB37
	.uleb128 .L385-.LFB1564
	.uleb128 0
	.uleb128 .LEHB38-.LFB1564
	.uleb128 .LEHE38-.LEHB38
	.uleb128 .L393-.LFB1564
	.uleb128 0
	.uleb128 .LEHB39-.LFB1564
	.uleb128 .LEHE39-.LEHB39
	.uleb128 .L385-.LFB1564
	.uleb128 0
	.uleb128 .LEHB40-.LFB1564
	.uleb128 .LEHE40-.LEHB40
	.uleb128 .L394-.LFB1564
	.uleb128 0
	.uleb128 .LEHB41-.LFB1564
	.uleb128 .LEHE41-.LEHB41
	.uleb128 .L385-.LFB1564
	.uleb128 0
	.uleb128 .LEHB42-.LFB1564
	.uleb128 .LEHE42-.LEHB42
	.uleb128 .L395-.LFB1564
	.uleb128 0
	.uleb128 .LEHB43-.LFB1564
	.uleb128 .LEHE43-.LEHB43
	.uleb128 .L385-.LFB1564
	.uleb128 0
	.uleb128 .LEHB44-.LFB1564
	.uleb128 .LEHE44-.LEHB44
	.uleb128 0
	.uleb128 0
.LLSDACSE1564:
	.section	".text"
	.size	_ZN9GuiNumpadC2EPcjb, .-_ZN9GuiNumpadC2EPcjb
	.weak	_ZTS9GuiNumpad
	.section	.rodata._ZTS9GuiNumpad,"aG",@progbits,_ZTS9GuiNumpad,comdat
	.align 2
	.type	_ZTS9GuiNumpad, @object
	.size	_ZTS9GuiNumpad, 11
_ZTS9GuiNumpad:
	.string	"9GuiNumpad"
	.weak	_ZTI9GuiNumpad
	.section	.rodata._ZTI9GuiNumpad,"aG",@progbits,_ZTI9GuiNumpad,comdat
	.align 2
	.type	_ZTI9GuiNumpad, @object
	.size	_ZTI9GuiNumpad, 32
_ZTI9GuiNumpad:
	.long	_ZTVN10__cxxabiv121__vmi_class_type_infoE+8
	.long	_ZTS9GuiNumpad
	.long	0
	.long	2
	.long	_ZTI8GuiFrame
	.long	2
	.long	_ZTIN7sigslot9has_slotsINS_15single_threadedEEE
	.long	45058
	.weak	_ZTV9GuiNumpad
	.section	.rodata._ZTV9GuiNumpad,"aG",@progbits,_ZTV9GuiNumpad,comdat
	.align 3
	.type	_ZTV9GuiNumpad, @object
	.size	_ZTV9GuiNumpad, 252
_ZTV9GuiNumpad:
	.long	0
	.long	_ZTI9GuiNumpad
	.long	_ZN9GuiNumpadD1Ev
	.long	_ZN9GuiNumpadD0Ev
	.long	_ZN10GuiElement9SetParentEPS_
	.long	_ZN10GuiElement9GetParentEv
	.long	_ZN10GuiElement7GetLeftEv
	.long	_ZN10GuiElement6GetTopEv
	.long	_ZN10GuiElement12GetZPositionEv
	.long	_ZN10GuiElement10GetLeftPosEv
	.long	_ZN10GuiElement9GetTopPosEv
	.long	_ZN10GuiElement8GetWidthEv
	.long	_ZN10GuiElement9GetHeightEv
	.long	_ZN10GuiElement7SetSizeEii
	.long	_ZN8GuiFrame10SetVisibleEb
	.long	_ZN10GuiElement9IsVisibleEv
	.long	_ZN10GuiElement12IsSelectableEv
	.long	_ZN10GuiElement11IsClickableEv
	.long	_ZN10GuiElement10IsHoldableEv
	.long	_ZN10GuiElement13SetSelectableEb
	.long	_ZN10GuiElement12SetClickableEb
	.long	_ZN10GuiElement11SetHoldableEb
	.long	_ZN10GuiElement8SetStateEii
	.long	_ZN10GuiElement8GetStateEv
	.long	_ZN10GuiElement12GetStateChanEv
	.long	_ZN8GuiFrame10ResetStateEv
	.long	_ZN10GuiElement8SetAlphaEi
	.long	_ZN10GuiElement8GetAlphaEv
	.long	_ZN10GuiElement8SetScaleEf
	.long	_ZN10GuiElement9SetScaleXEf
	.long	_ZN10GuiElement9SetScaleYEf
	.long	_ZN10GuiElement8GetScaleEv
	.long	_ZN10GuiElement9GetScaleXEv
	.long	_ZN10GuiElement9GetScaleYEv
	.long	_ZN10GuiElement6RumbleEv
	.long	_ZN10GuiElement9SetRumbleEb
	.long	_ZN10GuiElement9SetEffectEiii
	.long	_ZN10GuiElement15SetEffectOnOverEiii
	.long	_ZN10GuiElement13SetEffectGrowEv
	.long	_ZN10GuiElement12ResetEffectsEv
	.long	_ZNK10GuiElement9GetEffectEv
	.long	_ZNK10GuiElement10IsAnimatedEv
	.long	_ZN8GuiFrame9SetBoundsE4RectIiE
	.long	_ZN10GuiElement8IsInsideEii
	.long	_ZN10GuiElement11SetPositionEii
	.long	_ZN10GuiElement11SetPositionEiii
	.long	_ZN8GuiFrame11GetSelectedEv
	.long	_ZN10GuiElement12SetAlignmentEi
	.long	_ZNK10GuiElement12GetAlignmentEv
	.long	_ZN8GuiFrame6UpdateEP10GuiTrigger
	.long	_ZN8GuiFrame4DrawEv
	.long	_ZN10GuiElement13UpdateEffectsEv
	.long	_ZN8GuiFrame5CloseEv
	.long	_ZN8GuiFrame4showEv
	.long	_ZN8GuiFrame4hideEv
	.long	_ZN8GuiFrame4execEv
	.long	_ZN8GuiFrame12updateEventsEv
	.long	-176
	.long	_ZTI9GuiNumpad
	.long	_ZThn176_N9GuiNumpadD1Ev
	.long	_ZThn176_N9GuiNumpadD0Ev
	.long	_ZN7sigslot15single_threaded4lockEv
	.long	_ZN7sigslot15single_threaded6unlockEv
	.weak	_ZTVN7sigslot15single_threadedE
	.section	.rodata._ZTVN7sigslot15single_threadedE,"aG",@progbits,_ZTVN7sigslot15single_threadedE,comdat
	.align 3
	.type	_ZTVN7sigslot15single_threadedE, @object
	.size	_ZTVN7sigslot15single_threadedE, 24
_ZTVN7sigslot15single_threadedE:
	.long	0
	.long	_ZTIN7sigslot15single_threadedE
	.long	_ZN7sigslot15single_threadedD1Ev
	.long	_ZN7sigslot15single_threadedD0Ev
	.long	_ZN7sigslot15single_threaded4lockEv
	.long	_ZN7sigslot15single_threaded6unlockEv
	.weak	_ZTVN7sigslot9has_slotsINS_15single_threadedEEE
	.section	.rodata._ZTVN7sigslot9has_slotsINS_15single_threadedEEE,"aG",@progbits,_ZTVN7sigslot9has_slotsINS_15single_threadedEEE,comdat
	.align 3
	.type	_ZTVN7sigslot9has_slotsINS_15single_threadedEEE, @object
	.size	_ZTVN7sigslot9has_slotsINS_15single_threadedEEE, 24
_ZTVN7sigslot9has_slotsINS_15single_threadedEEE:
	.long	0
	.long	_ZTIN7sigslot9has_slotsINS_15single_threadedEEE
	.long	_ZN7sigslot9has_slotsINS_15single_threadedEED1Ev
	.long	_ZN7sigslot9has_slotsINS_15single_threadedEED0Ev
	.long	_ZN7sigslot15single_threaded4lockEv
	.long	_ZN7sigslot15single_threaded6unlockEv
	.weak	_ZTV16SimpleGuiTrigger
	.section	.rodata._ZTV16SimpleGuiTrigger,"aG",@progbits,_ZTV16SimpleGuiTrigger,comdat
	.align 3
	.type	_ZTV16SimpleGuiTrigger, @object
	.size	_ZTV16SimpleGuiTrigger, 16
_ZTV16SimpleGuiTrigger:
	.long	0
	.long	_ZTI16SimpleGuiTrigger
	.long	_ZN16SimpleGuiTriggerD1Ev
	.long	_ZN16SimpleGuiTriggerD0Ev
	.weak	_ZTVN7sigslot17_connection_base3IP9GuiButtoniRK6_POINTNS_15single_threadedEEE
	.section	.rodata._ZTVN7sigslot17_connection_base3IP9GuiButtoniRK6_POINTNS_15single_threadedEEE,"aG",@progbits,_ZTVN7sigslot17_connection_base3IP9GuiButtoniRK6_POINTNS_15single_threadedEEE,comdat
	.align 3
	.type	_ZTVN7sigslot17_connection_base3IP9GuiButtoniRK6_POINTNS_15single_threadedEEE, @object
	.size	_ZTVN7sigslot17_connection_base3IP9GuiButtoniRK6_POINTNS_15single_threadedEEE, 32
_ZTVN7sigslot17_connection_base3IP9GuiButtoniRK6_POINTNS_15single_threadedEEE:
	.long	0
	.long	_ZTIN7sigslot17_connection_base3IP9GuiButtoniRK6_POINTNS_15single_threadedEEE
	.long	_ZN7sigslot17_connection_base3IP9GuiButtoniRK6_POINTNS_15single_threadedEED1Ev
	.long	_ZN7sigslot17_connection_base3IP9GuiButtoniRK6_POINTNS_15single_threadedEED0Ev
	.long	__cxa_pure_virtual
	.long	__cxa_pure_virtual
	.long	__cxa_pure_virtual
	.long	__cxa_pure_virtual
	.weak	_ZTVN7sigslot12_connection3I9GuiNumpadP9GuiButtoniRK6_POINTNS_15single_threadedEEE
	.section	.rodata._ZTVN7sigslot12_connection3I9GuiNumpadP9GuiButtoniRK6_POINTNS_15single_threadedEEE,"aG",@progbits,_ZTVN7sigslot12_connection3I9GuiNumpadP9GuiButtoniRK6_POINTNS_15single_threadedEEE,comdat
	.align 3
	.type	_ZTVN7sigslot12_connection3I9GuiNumpadP9GuiButtoniRK6_POINTNS_15single_threadedEEE, @object
	.size	_ZTVN7sigslot12_connection3I9GuiNumpadP9GuiButtoniRK6_POINTNS_15single_threadedEEE, 32
_ZTVN7sigslot12_connection3I9GuiNumpadP9GuiButtoniRK6_POINTNS_15single_threadedEEE:
	.long	0
	.long	_ZTIN7sigslot12_connection3I9GuiNumpadP9GuiButtoniRK6_POINTNS_15single_threadedEEE
	.long	_ZN7sigslot12_connection3I9GuiNumpadP9GuiButtoniRK6_POINTNS_15single_threadedEED1Ev
	.long	_ZN7sigslot12_connection3I9GuiNumpadP9GuiButtoniRK6_POINTNS_15single_threadedEED0Ev
	.long	_ZNK7sigslot12_connection3I9GuiNumpadP9GuiButtoniRK6_POINTNS_15single_threadedEE7getdestEv
	.long	_ZN7sigslot12_connection3I9GuiNumpadP9GuiButtoniRK6_POINTNS_15single_threadedEE4emitES3_iS6_
	.long	_ZN7sigslot12_connection3I9GuiNumpadP9GuiButtoniRK6_POINTNS_15single_threadedEE5cloneEv
	.long	_ZN7sigslot12_connection3I9GuiNumpadP9GuiButtoniRK6_POINTNS_15single_threadedEE9duplicateEPNS_9has_slotsIS7_EE
	.weak	_ZTIN7sigslot9has_slotsINS_15single_threadedEEE
	.section	.rodata._ZTIN7sigslot9has_slotsINS_15single_threadedEEE,"aG",@progbits,_ZTIN7sigslot9has_slotsINS_15single_threadedEEE,comdat
	.align 2
	.type	_ZTIN7sigslot9has_slotsINS_15single_threadedEEE, @object
	.size	_ZTIN7sigslot9has_slotsINS_15single_threadedEEE, 12
_ZTIN7sigslot9has_slotsINS_15single_threadedEEE:
	.long	_ZTVN10__cxxabiv120__si_class_type_infoE+8
	.long	_ZTSN7sigslot9has_slotsINS_15single_threadedEEE
	.long	_ZTIN7sigslot15single_threadedE
	.weak	_ZTIN7sigslot15single_threadedE
	.section	.sdata._ZTIN7sigslot15single_threadedE,"awG",@progbits,_ZTIN7sigslot15single_threadedE,comdat
	.align 2
	.type	_ZTIN7sigslot15single_threadedE, @object
	.size	_ZTIN7sigslot15single_threadedE, 8
_ZTIN7sigslot15single_threadedE:
	.long	_ZTVN10__cxxabiv117__class_type_infoE+8
	.long	_ZTSN7sigslot15single_threadedE
	.weak	_ZTI16SimpleGuiTrigger
	.section	.rodata._ZTI16SimpleGuiTrigger,"aG",@progbits,_ZTI16SimpleGuiTrigger,comdat
	.align 2
	.type	_ZTI16SimpleGuiTrigger, @object
	.size	_ZTI16SimpleGuiTrigger, 12
_ZTI16SimpleGuiTrigger:
	.long	_ZTVN10__cxxabiv120__si_class_type_infoE+8
	.long	_ZTS16SimpleGuiTrigger
	.long	_ZTI10GuiTrigger
	.weak	_ZTIN7sigslot17_connection_base3IP9GuiButtoniRK6_POINTNS_15single_threadedEEE
	.section	.sdata._ZTIN7sigslot17_connection_base3IP9GuiButtoniRK6_POINTNS_15single_threadedEEE,"awG",@progbits,_ZTIN7sigslot17_connection_base3IP9GuiButtoniRK6_POINTNS_15single_threadedEEE,comdat
	.align 2
	.type	_ZTIN7sigslot17_connection_base3IP9GuiButtoniRK6_POINTNS_15single_threadedEEE, @object
	.size	_ZTIN7sigslot17_connection_base3IP9GuiButtoniRK6_POINTNS_15single_threadedEEE, 8
_ZTIN7sigslot17_connection_base3IP9GuiButtoniRK6_POINTNS_15single_threadedEEE:
	.long	_ZTVN10__cxxabiv117__class_type_infoE+8
	.long	_ZTSN7sigslot17_connection_base3IP9GuiButtoniRK6_POINTNS_15single_threadedEEE
	.weak	_ZTIN7sigslot12_connection3I9GuiNumpadP9GuiButtoniRK6_POINTNS_15single_threadedEEE
	.section	.rodata._ZTIN7sigslot12_connection3I9GuiNumpadP9GuiButtoniRK6_POINTNS_15single_threadedEEE,"aG",@progbits,_ZTIN7sigslot12_connection3I9GuiNumpadP9GuiButtoniRK6_POINTNS_15single_threadedEEE,comdat
	.align 2
	.type	_ZTIN7sigslot12_connection3I9GuiNumpadP9GuiButtoniRK6_POINTNS_15single_threadedEEE, @object
	.size	_ZTIN7sigslot12_connection3I9GuiNumpadP9GuiButtoniRK6_POINTNS_15single_threadedEEE, 12
_ZTIN7sigslot12_connection3I9GuiNumpadP9GuiButtoniRK6_POINTNS_15single_threadedEEE:
	.long	_ZTVN10__cxxabiv120__si_class_type_infoE+8
	.long	_ZTSN7sigslot12_connection3I9GuiNumpadP9GuiButtoniRK6_POINTNS_15single_threadedEEE
	.long	_ZTIN7sigslot17_connection_base3IP9GuiButtoniRK6_POINTNS_15single_threadedEEE
	.weak	_ZTSN7sigslot9has_slotsINS_15single_threadedEEE
	.section	.rodata._ZTSN7sigslot9has_slotsINS_15single_threadedEEE,"aG",@progbits,_ZTSN7sigslot9has_slotsINS_15single_threadedEEE,comdat
	.align 2
	.type	_ZTSN7sigslot9has_slotsINS_15single_threadedEEE, @object
	.size	_ZTSN7sigslot9has_slotsINS_15single_threadedEEE, 44
_ZTSN7sigslot9has_slotsINS_15single_threadedEEE:
	.string	"N7sigslot9has_slotsINS_15single_threadedEEE"
	.weak	_ZTSN7sigslot15single_threadedE
	.section	.rodata._ZTSN7sigslot15single_threadedE,"aG",@progbits,_ZTSN7sigslot15single_threadedE,comdat
	.align 2
	.type	_ZTSN7sigslot15single_threadedE, @object
	.size	_ZTSN7sigslot15single_threadedE, 28
_ZTSN7sigslot15single_threadedE:
	.string	"N7sigslot15single_threadedE"
	.weak	_ZTS16SimpleGuiTrigger
	.section	.rodata._ZTS16SimpleGuiTrigger,"aG",@progbits,_ZTS16SimpleGuiTrigger,comdat
	.align 2
	.type	_ZTS16SimpleGuiTrigger, @object
	.size	_ZTS16SimpleGuiTrigger, 19
_ZTS16SimpleGuiTrigger:
	.string	"16SimpleGuiTrigger"
	.weak	_ZTSN7sigslot17_connection_base3IP9GuiButtoniRK6_POINTNS_15single_threadedEEE
	.section	.rodata._ZTSN7sigslot17_connection_base3IP9GuiButtoniRK6_POINTNS_15single_threadedEEE,"aG",@progbits,_ZTSN7sigslot17_connection_base3IP9GuiButtoniRK6_POINTNS_15single_threadedEEE,comdat
	.align 2
	.type	_ZTSN7sigslot17_connection_base3IP9GuiButtoniRK6_POINTNS_15single_threadedEEE, @object
	.size	_ZTSN7sigslot17_connection_base3IP9GuiButtoniRK6_POINTNS_15single_threadedEEE, 74
_ZTSN7sigslot17_connection_base3IP9GuiButtoniRK6_POINTNS_15single_threadedEEE:
	.string	"N7sigslot17_connection_base3IP9GuiButtoniRK6_POINTNS_15single_threadedEEE"
	.weak	_ZTSN7sigslot12_connection3I9GuiNumpadP9GuiButtoniRK6_POINTNS_15single_threadedEEE
	.section	.rodata._ZTSN7sigslot12_connection3I9GuiNumpadP9GuiButtoniRK6_POINTNS_15single_threadedEEE,"aG",@progbits,_ZTSN7sigslot12_connection3I9GuiNumpadP9GuiButtoniRK6_POINTNS_15single_threadedEEE,comdat
	.align 2
	.type	_ZTSN7sigslot12_connection3I9GuiNumpadP9GuiButtoniRK6_POINTNS_15single_threadedEEE, @object
	.size	_ZTSN7sigslot12_connection3I9GuiNumpadP9GuiButtoniRK6_POINTNS_15single_threadedEEE, 79
_ZTSN7sigslot12_connection3I9GuiNumpadP9GuiButtoniRK6_POINTNS_15single_threadedEEE:
	.string	"N7sigslot12_connection3I9GuiNumpadP9GuiButtoniRK6_POINTNS_15single_threadedEEE"
	.weak	_ZN7sigslot15single_threadedD1Ev
	.set	_ZN7sigslot15single_threadedD1Ev,_ZN7sigslot15single_threadedD2Ev
	.weak	_ZN7sigslot17_connection_base3IP9GuiButtoniRK6_POINTNS_15single_threadedEED1Ev
	.set	_ZN7sigslot17_connection_base3IP9GuiButtoniRK6_POINTNS_15single_threadedEED1Ev,_ZN7sigslot17_connection_base3IP9GuiButtoniRK6_POINTNS_15single_threadedEED2Ev
	.weak	_ZN7sigslot12_connection3I9GuiNumpadP9GuiButtoniRK6_POINTNS_15single_threadedEED1Ev
	.set	_ZN7sigslot12_connection3I9GuiNumpadP9GuiButtoniRK6_POINTNS_15single_threadedEED1Ev,_ZN7sigslot12_connection3I9GuiNumpadP9GuiButtoniRK6_POINTNS_15single_threadedEED2Ev
	.weak	_ZN16SimpleGuiTriggerD1Ev
	.set	_ZN16SimpleGuiTriggerD1Ev,_ZN16SimpleGuiTriggerD2Ev
	.weak	_ZN7sigslot9has_slotsINS_15single_threadedEED1Ev
	.set	_ZN7sigslot9has_slotsINS_15single_threadedEED1Ev,_ZN7sigslot9has_slotsINS_15single_threadedEED2Ev
	.globl _ZN9GuiNumpadD1Ev
	.set	_ZN9GuiNumpadD1Ev,_ZN9GuiNumpadD2Ev
	.set	.LTHUNK0,_ZN9GuiNumpadD1Ev
	.set	.LTHUNK1,_ZN9GuiNumpadD0Ev
	.globl _ZN9GuiNumpadC1EPcjb
	.set	_ZN9GuiNumpadC1EPcjb,_ZN9GuiNumpadC2EPcjb
	.section	.rodata
	.align 2
	.set	.LANCHOR0,. + 0
.LC0:
	.byte	49
	.byte	50
	.byte	51
	.byte	52
	.byte	53
	.byte	54
	.byte	55
	.byte	56
	.byte	57
	.byte	45
	.byte	48
	.byte	46
	.section	.rodata.cst4,"aM",@progbits,4
	.align 2
.LC2:
	.4byte	1501560836
.LC3:
	.4byte	1132396544
.LC4:
	.4byte	1056964608
	.section	.rodata.str1.4,"aMS",@progbits,1
	.align 2
.LC5:
	.string	"button_click.wav"
	.zero	3
.LC6:
	.string	"button_over.wav"
.LC7:
	.string	"keyboard_textbox.png"
	.zero	3
.LC8:
	.string	"r=0 g=0 b=0 a=255 - keyboard text color"
.LC9:
	.string	""
	.zero	3
.LC10:
	.string	"r=0 g=0 b=0 a=255 - keyboard spec buttons text color"
	.zero	3
.LC11:
	.string	"Back"
	.zero	3
.LC12:
	.string	"keyboard_mediumkey.png"
	.zero	1
.LC13:
	.string	"keyboard_mediumkey_over.png"
.LC14:
	.string	"Clear"
	.zero	2
.LC15:
	.string	"r=0 g=0 b=0 a=255 - keyboard buttons text color"
	.section	".text"
.Letext0:
	.file 11 "d:\\devkitpro\\devkitppc\\bin\\../lib/gcc/powerpc-eabi/4.6.3/../../../../powerpc-eabi/include/stdint.h"
	.file 12 "d:/devkitPro/libogc/include/gctypes.h"
	.file 13 "d:/devkitPro/libogc/include/ogc/gx.h"
	.file 14 "d:\\devkitpro\\devkitppc\\bin\\../lib/gcc/powerpc-eabi/4.6.3/../../../../powerpc-eabi/include/machine/_types.h"
	.file 15 "d:\\devkitpro\\devkitppc\\bin\\../lib/gcc/powerpc-eabi/4.6.3/../../../../powerpc-eabi/include/sys/lock.h"
	.file 16 "d:\\devkitpro\\devkitppc\\bin\\../lib/gcc/powerpc-eabi/4.6.3/include/stddef.h"
	.file 17 "d:\\devkitpro\\devkitppc\\bin\\../lib/gcc/powerpc-eabi/4.6.3/../../../../powerpc-eabi/include/sys/_types.h"
	.file 18 "d:\\devkitpro\\devkitppc\\bin\\../lib/gcc/powerpc-eabi/4.6.3/../../../../powerpc-eabi/include/sys/reent.h"
	.file 19 "d:\\devkitpro\\devkitppc\\bin\\../lib/gcc/powerpc-eabi/4.6.3/../../../../powerpc-eabi/include/time.h"
	.file 20 "<built-in>"
	.file 21 "d:\\devkitpro\\devkitppc\\bin\\../lib/gcc/powerpc-eabi/4.6.3/../../../../powerpc-eabi/include/stdio.h"
	.file 22 "d:\\devkitpro\\devkitppc\\bin\\../lib/gcc/powerpc-eabi/4.6.3/../../../../powerpc-eabi/include/wchar.h"
	.file 23 "d:\\devkitpro\\devkitppc\\bin\\../lib/gcc/powerpc-eabi/4.6.3/../../../../powerpc-eabi/include/c++/4.6.3/cwchar"
	.file 24 "d:\\devkitpro\\devkitppc\\bin\\../lib/gcc/powerpc-eabi/4.6.3/../../../../powerpc-eabi/include/c++/4.6.3/powerpc-eabi/bits/c++config.h"
	.file 25 "d:\\devkitpro\\devkitppc\\bin\\../lib/gcc/powerpc-eabi/4.6.3/../../../../powerpc-eabi/include/c++/4.6.3/clocale"
	.file 26 "d:\\devkitpro\\devkitppc\\bin\\../lib/gcc/powerpc-eabi/4.6.3/../../../../powerpc-eabi/include/c++/4.6.3/bits/basic_string.h"
	.file 27 "d:\\devkitpro\\devkitppc\\bin\\../lib/gcc/powerpc-eabi/4.6.3/../../../../powerpc-eabi/include/c++/4.6.3/bits/stringfwd.h"
	.file 28 "d:\\devkitpro\\devkitppc\\bin\\../lib/gcc/powerpc-eabi/4.6.3/../../../../powerpc-eabi/include/c++/4.6.3/bits/move.h"
	.file 29 "d:\\devkitpro\\devkitppc\\bin\\../lib/gcc/powerpc-eabi/4.6.3/../../../../powerpc-eabi/include/c++/4.6.3/bits/cpp_type_traits.h"
	.file 30 "d:\\devkitpro\\devkitppc\\bin\\../lib/gcc/powerpc-eabi/4.6.3/../../../../powerpc-eabi/include/c++/4.6.3/debug/debug.h"
	.file 31 "d:\\devkitpro\\devkitppc\\bin\\../lib/gcc/powerpc-eabi/4.6.3/../../../../powerpc-eabi/include/c++/4.6.3/bits/char_traits.h"
	.file 32 "d:\\devkitpro\\devkitppc\\bin\\../lib/gcc/powerpc-eabi/4.6.3/../../../../powerpc-eabi/include/c++/4.6.3/bits/allocator.h"
	.file 33 "d:\\devkitpro\\devkitppc\\bin\\../lib/gcc/powerpc-eabi/4.6.3/../../../../powerpc-eabi/include/locale.h"
	.file 34 "d:\\devkitpro\\devkitppc\\bin\\../lib/gcc/powerpc-eabi/4.6.3/../../../../powerpc-eabi/include/c++/4.6.3/powerpc-eabi/bits/atomic_word.h"
	.file 35 "d:\\devkitpro\\devkitppc\\bin\\../lib/gcc/powerpc-eabi/4.6.3/../../../../powerpc-eabi/include/c++/4.6.3/ext/numeric_traits.h"
	.file 36 "d:\\devkitpro\\devkitppc\\bin\\../lib/gcc/powerpc-eabi/4.6.3/../../../../powerpc-eabi/include/c++/4.6.3/bits/basic_string.tcc"
	.file 37 "d:\\devkitpro\\devkitppc\\bin\\../lib/gcc/powerpc-eabi/4.6.3/../../../../powerpc-eabi/include/c++/4.6.3/bits/stl_iterator_base_types.h"
	.file 38 "d:\\devkitpro\\devkitppc\\bin\\../lib/gcc/powerpc-eabi/4.6.3/../../../../powerpc-eabi/include/c++/4.6.3/bits/stl_iterator.h"
	.file 39 "d:/Projects/SaveGameManager/savegame-manager-gx/trunk/source/GUI/../Settings/../FileOperations/FileExtensions.h"
	.file 40 "d:/Projects/SaveGameManager/savegame-manager-gx/trunk/source/GUI/../Settings/../Controls/AppControls.hpp"
	.file 41 "d:/Projects/SaveGameManager/savegame-manager-gx/trunk/source/GUI/../Settings/CSettings.h"
	.file 42 "d:/Projects/SaveGameManager/savegame-manager-gx/trunk/source/GUI/../Tools/Rect.h"
	.file 43 "d:\\devkitpro\\devkitppc\\bin\\../lib/gcc/powerpc-eabi/4.6.3/../../../../powerpc-eabi/include/c++/4.6.3/bits/list.tcc"
	.file 44 "d:\\devkitpro\\devkitppc\\bin\\../lib/gcc/powerpc-eabi/4.6.3/../../../../powerpc-eabi/include/c++/4.6.3/bits/stl_function.h"
	.file 45 "d:\\devkitpro\\devkitppc\\bin\\../lib/gcc/powerpc-eabi/4.6.3/../../../../powerpc-eabi/include/c++/4.6.3/bits/stl_pair.h"
	.file 46 "d:/Projects/SaveGameManager/savegame-manager-gx/trunk/source/GUI/gui_numpad.h"
	.file 47 "d:\\devkitpro\\devkitppc\\bin\\../lib/gcc/powerpc-eabi/4.6.3/../../../../powerpc-eabi/include/c++/4.6.3/new"