	.file	"gui_checksign.cpp"
	.section	".text"
.Ltext0:
	.section	.text._ZN7sigslot15single_threadedD2Ev,"axG",@progbits,_ZN7sigslot15single_threadedD5Ev,comdat
	.align 2
	.weak	_ZN7sigslot15single_threadedD2Ev
	.type	_ZN7sigslot15single_threadedD2Ev, @function
_ZN7sigslot15single_threadedD2Ev:
.LFB1148:
	.file 1 "d:/Projects/SaveGameManager/savegame-manager-gx/trunk/source/GUI/../sigslot.h"
	.loc 1 104 0
	.cfi_startproc
.LVL0:
.LBB1263:
	.loc 1 105 0
	lis 9,_ZTVN7sigslot15single_threadedE+8@ha
.LBE1263:
	.loc 1 107 0
.LBB1264:
	.loc 1 105 0
	la 0,_ZTVN7sigslot15single_threadedE+8@l(9)
	stw 0,0(3)
.LBE1264:
	.loc 1 107 0
	blr
	.cfi_endproc
.LFE1148:
	.size	_ZN7sigslot15single_threadedD2Ev, .-_ZN7sigslot15single_threadedD2Ev
	.section	.text._ZN7sigslot15single_threaded4lockEv,"axG",@progbits,_ZN7sigslot15single_threaded4lockEv,comdat
	.align 2
	.weak	_ZN7sigslot15single_threaded4lockEv
	.type	_ZN7sigslot15single_threaded4lockEv, @function
_ZN7sigslot15single_threaded4lockEv:
.LFB1151:
	.loc 1 109 0
	.cfi_startproc
.LVL1:
	.loc 1 112 0
	blr
	.cfi_endproc
.LFE1151:
	.size	_ZN7sigslot15single_threaded4lockEv, .-_ZN7sigslot15single_threaded4lockEv
	.section	.text._ZN7sigslot15single_threaded6unlockEv,"axG",@progbits,_ZN7sigslot15single_threaded6unlockEv,comdat
	.align 2
	.weak	_ZN7sigslot15single_threaded6unlockEv
	.type	_ZN7sigslot15single_threaded6unlockEv, @function
_ZN7sigslot15single_threaded6unlockEv:
.LFB1152:
	.loc 1 114 0
	.cfi_startproc
.LVL2:
	.loc 1 117 0
	blr
	.cfi_endproc
.LFE1152:
	.size	_ZN7sigslot15single_threaded6unlockEv, .-_ZN7sigslot15single_threaded6unlockEv
	.section	.text._ZN10GuiElement9SetParentEPS_,"axG",@progbits,_ZN10GuiElement9SetParentEPS_,comdat
	.align 2
	.weak	_ZN10GuiElement9SetParentEPS_
	.type	_ZN10GuiElement9SetParentEPS_, @function
_ZN10GuiElement9SetParentEPS_:
.LFB1384:
	.file 2 "d:/Projects/SaveGameManager/savegame-manager-gx/trunk/source/GUI/gui_element.h"
	.loc 2 92 0
	.cfi_startproc
.LVL3:
	.loc 2 92 0
	stw 4,96(3)
	blr
	.cfi_endproc
.LFE1384:
	.size	_ZN10GuiElement9SetParentEPS_, .-_ZN10GuiElement9SetParentEPS_
	.section	.text._ZN10GuiElement9GetParentEv,"axG",@progbits,_ZN10GuiElement9GetParentEv,comdat
	.align 2
	.weak	_ZN10GuiElement9GetParentEv
	.type	_ZN10GuiElement9GetParentEv, @function
_ZN10GuiElement9GetParentEv:
.LFB1385:
	.loc 2 95 0
	.cfi_startproc
.LVL4:
	.loc 2 95 0
	lwz 3,96(3)
.LVL5:
	blr
	.cfi_endproc
.LFE1385:
	.size	_ZN10GuiElement9GetParentEv, .-_ZN10GuiElement9GetParentEv
	.section	.text._ZN10GuiElement12GetZPositionEv,"axG",@progbits,_ZN10GuiElement12GetZPositionEv,comdat
	.align 2
	.weak	_ZN10GuiElement12GetZPositionEv
	.type	_ZN10GuiElement12GetZPositionEv, @function
_ZN10GuiElement12GetZPositionEv:
.LFB1386:
	.loc 2 106 0
	.cfi_startproc
.LVL6:
	mflr 0
	stwu 1,-16(1)
.LCFI0:
	.cfi_def_cfa_offset 16
	.cfi_register 65, 0
	stw 31,12(1)
	mr 31,3
	.cfi_offset 31, -4
	stw 0,20(1)
.LBB1265:
	.loc 2 110 0
	lwz 11,96(3)
	.loc 2 108 0
	li 3,0
.LVL7:
	.loc 2 110 0
	cmpwi 7,11,0
	beq- 7,.L8
	.cfi_offset 65, 4
	.loc 2 111 0
	lwz 9,0(11)
	mr 3,11
	lwz 0,24(9)
	mtctr 0
	bctrl
.LVL8:
.L8:
	.loc 2 113 0
	lwz 0,52(31)
.LBE1265:
	.loc 2 114 0
	lwz 31,12(1)
.LVL9:
	add 3,3,0
.LVL10:
	lwz 0,20(1)
	addi 1,1,16
.LCFI1:
	.cfi_def_cfa_offset 0
	.cfi_restore 31
	mtlr 0
	blr
	.cfi_endproc
.LFE1386:
	.size	_ZN10GuiElement12GetZPositionEv, .-_ZN10GuiElement12GetZPositionEv
	.section	.text._ZN10GuiElement10GetLeftPosEv,"axG",@progbits,_ZN10GuiElement10GetLeftPosEv,comdat
	.align 2
	.weak	_ZN10GuiElement10GetLeftPosEv
	.type	_ZN10GuiElement10GetLeftPosEv, @function
_ZN10GuiElement10GetLeftPosEv:
.LFB1387:
	.loc 2 116 0
	.cfi_startproc
.LVL11:
	.loc 2 116 0
	lwz 3,44(3)
.LVL12:
	blr
	.cfi_endproc
.LFE1387:
	.size	_ZN10GuiElement10GetLeftPosEv, .-_ZN10GuiElement10GetLeftPosEv
	.section	.text._ZN10GuiElement9GetTopPosEv,"axG",@progbits,_ZN10GuiElement9GetTopPosEv,comdat
	.align 2
	.weak	_ZN10GuiElement9GetTopPosEv
	.type	_ZN10GuiElement9GetTopPosEv, @function
_ZN10GuiElement9GetTopPosEv:
.LFB1388:
	.loc 2 118 0
	.cfi_startproc
.LVL13:
	.loc 2 118 0
	lwz 3,48(3)
.LVL14:
	blr
	.cfi_endproc
.LFE1388:
	.size	_ZN10GuiElement9GetTopPosEv, .-_ZN10GuiElement9GetTopPosEv
	.section	.text._ZN10GuiElement8GetWidthEv,"axG",@progbits,_ZN10GuiElement8GetWidthEv,comdat
	.align 2
	.weak	_ZN10GuiElement8GetWidthEv
	.type	_ZN10GuiElement8GetWidthEv, @function
_ZN10GuiElement8GetWidthEv:
.LFB1389:
	.loc 2 121 0
	.cfi_startproc
.LVL15:
	.loc 2 121 0
	lwz 3,36(3)
.LVL16:
	blr
	.cfi_endproc
.LFE1389:
	.size	_ZN10GuiElement8GetWidthEv, .-_ZN10GuiElement8GetWidthEv
	.section	.text._ZN10GuiElement9GetHeightEv,"axG",@progbits,_ZN10GuiElement9GetHeightEv,comdat
	.align 2
	.weak	_ZN10GuiElement9GetHeightEv
	.type	_ZN10GuiElement9GetHeightEv, @function
_ZN10GuiElement9GetHeightEv:
.LFB1390:
	.loc 2 124 0
	.cfi_startproc
.LVL17:
	.loc 2 124 0
	lwz 3,40(3)
.LVL18:
	blr
	.cfi_endproc
.LFE1390:
	.size	_ZN10GuiElement9GetHeightEv, .-_ZN10GuiElement9GetHeightEv
	.section	.text._ZN10GuiElement10SetVisibleEb,"axG",@progbits,_ZN10GuiElement10SetVisibleEb,comdat
	.align 2
	.weak	_ZN10GuiElement10SetVisibleEb
	.type	_ZN10GuiElement10SetVisibleEb, @function
_ZN10GuiElement10SetVisibleEb:
.LFB1392:
	.loc 2 135 0
	.cfi_startproc
	.cfi_personality 0,__gxx_personality_v0
	.cfi_lsda 0,.LLSDA1392
.LVL19:
	mflr 0
	stwu 1,-32(1)
.LCFI2:
	.cfi_def_cfa_offset 32
	.cfi_register 65, 0
	stw 27,12(1)
.LBB1266:
.LBB1267:
	.loc 1 2270 0
	addi 27,3,4
	.cfi_offset 27, -20
.LBE1267:
.LBE1266:
	.loc 2 135 0
	stw 0,36(1)
	stw 30,24(1)
	mr 30,3
	.cfi_offset 30, -8
	.cfi_offset 65, 4
.LBB1290:
.LBB1284:
.LBB1268:
.LBB1269:
	.loc 1 338 0
	lwz 9,4(3)
	mr 3,27
.LVL20:
.LBE1269:
.LBE1268:
.LBE1284:
.LBE1290:
	.loc 2 135 0
	stw 28,16(1)
	mr 28,4
	.cfi_offset 28, -16
.LBB1291:
.LBB1285:
.LBB1273:
.LBB1270:
	.loc 1 338 0
	lwz 0,8(9)
.LBE1270:
.LBE1273:
.LBE1285:
.LBE1291:
	.loc 2 135 0
	stw 29,20(1)
.LBB1292:
	.file 3 "d:/Projects/SaveGameManager/savegame-manager-gx/trunk/source/GUI/gui_checksign.cpp"
	.loc 3 56 0
	mr 29,30
	.cfi_offset 29, -12
.LBE1292:
	.loc 2 135 0
	stw 31,28(1)
.LBB1293:
.LBB1286:
.LBB1274:
.LBB1271:
	.loc 1 338 0
	mtctr 0
.LBE1271:
.LBE1274:
.LBE1286:
.LBE1293:
	.loc 2 137 0
	stb 4,29(30)
.LVL21:
.LEHB0:
.LBB1294:
.LBB1287:
.LBB1275:
.LBB1272:
	.loc 1 338 0
	.cfi_offset 31, -4
	bctrl
.LEHE0:
.LVL22:
.LBE1272:
.LBE1275:
.LBE1287:
	.loc 3 56 0
	lwzu 31,8(29)
.LVL23:
.LBB1288:
	.loc 1 2274 0
	cmpw 7,31,29
	beq- 7,.L16
.LVL24:
.L23:
	.loc 1 2279 0
	lwz 3,8(31)
	mr 4,30
	mr 5,28
.LBB1276:
.LBB1277:
	.file 4 "d:\\devkitpro\\devkitppc\\bin\\../lib/gcc/powerpc-eabi/4.6.3/../../../../powerpc-eabi/include/c++/4.6.3/bits/stl_list.h"
	.loc 4 234 0
	lwz 31,0(31)
.LVL25:
.LBE1277:
.LBE1276:
	.loc 1 2279 0
	lwz 9,0(3)
	lwz 0,12(9)
	mtctr 0
.LEHB1:
	bctrl
.LEHE1:
.LVL26:
	.loc 1 2274 0
	cmpw 7,29,31
	bne+ 7,.L23
.LVL27:
.L16:
.LBB1278:
.LBB1279:
.LBB1280:
	.loc 1 343 0
	lwz 9,4(30)
	mr 3,27
	lwz 0,12(9)
	mtctr 0
.LEHB2:
	bctrl
.LEHE2:
.LBE1280:
.LBE1279:
.LBE1278:
.LBE1288:
.LBE1294:
	.loc 2 139 0
	lwz 0,36(1)
	lwz 27,12(1)
.LVL28:
	mtlr 0
	lwz 28,16(1)
.LVL29:
	lwz 29,20(1)
	lwz 30,24(1)
.LVL30:
	lwz 31,28(1)
.LVL31:
	addi 1,1,32
	.cfi_remember_state
.LCFI3:
	.cfi_def_cfa_offset 0
	.cfi_restore 31
	.cfi_restore 30
	.cfi_restore 29
	.cfi_restore 28
	.cfi_restore 27
	blr
.LVL32:
.L22:
.LCFI4:
	.cfi_restore_state
.LBB1295:
.LBB1289:
.LBB1281:
.LBB1282:
.LBB1283:
	.loc 1 343 0
	lwz 9,4(30)
	mr 31,3
.LVL33:
	mr 3,27
	lwz 0,12(9)
	mtctr 0
	bctrl
	mr 3,31
.LEHB3:
	bl _Unwind_Resume
.LEHE3:
.LBE1283:
.LBE1282:
.LBE1281:
.LBE1289:
.LBE1295:
	.cfi_endproc
.LFE1392:
	.globl __gxx_personality_v0
	.section	.gcc_except_table,"a",@progbits
.LLSDA1392:
	.byte	0xff
	.byte	0xff
	.byte	0x1
	.uleb128 .LLSDACSE1392-.LLSDACSB1392
.LLSDACSB1392:
	.uleb128 .LEHB0-.LFB1392
	.uleb128 .LEHE0-.LEHB0
	.uleb128 0
	.uleb128 0
	.uleb128 .LEHB1-.LFB1392
	.uleb128 .LEHE1-.LEHB1
	.uleb128 .L22-.LFB1392
	.uleb128 0
	.uleb128 .LEHB2-.LFB1392
	.uleb128 .LEHE2-.LEHB2
	.uleb128 0
	.uleb128 0
	.uleb128 .LEHB3-.LFB1392
	.uleb128 .LEHE3-.LEHB3
	.uleb128 0
	.uleb128 0
.LLSDACSE1392:
	.section	.text._ZN10GuiElement10SetVisibleEb,"axG",@progbits,_ZN10GuiElement10SetVisibleEb,comdat
	.size	_ZN10GuiElement10SetVisibleEb, .-_ZN10GuiElement10SetVisibleEb
	.section	.text._ZN10GuiElement9IsVisibleEv,"axG",@progbits,_ZN10GuiElement9IsVisibleEv,comdat
	.align 2
	.weak	_ZN10GuiElement9IsVisibleEv
	.type	_ZN10GuiElement9IsVisibleEv, @function
_ZN10GuiElement9IsVisibleEv:
.LFB1393:
	.loc 2 142 0
	.cfi_startproc
.LVL34:
	.loc 2 142 0
	lbz 3,29(3)
.LVL35:
	blr
	.cfi_endproc
.LFE1393:
	.size	_ZN10GuiElement9IsVisibleEv, .-_ZN10GuiElement9IsVisibleEv
	.section	.text._ZN10GuiElement12IsSelectableEv,"axG",@progbits,_ZN10GuiElement12IsSelectableEv,comdat
	.align 2
	.weak	_ZN10GuiElement12IsSelectableEv
	.type	_ZN10GuiElement12IsSelectableEv, @function
_ZN10GuiElement12IsSelectableEv:
.LFB1394:
	.loc 2 145 0
	.cfi_startproc
.LVL36:
	.loc 2 149 0
	lwz 0,72(3)
	li 9,0
	cmpwi 7,0,4
	beq- 7,.L26
	.loc 2 149 0 is_stmt 0 discriminator 1
	cmpwi 7,0,2
	beq- 7,.L26
	.loc 2 149 0 discriminator 3
	lbz 9,30(3)
.L26:
	.loc 2 150 0 is_stmt 1 discriminator 5
	mr 3,9
.LVL37:
	blr
	.cfi_endproc
.LFE1394:
	.size	_ZN10GuiElement12IsSelectableEv, .-_ZN10GuiElement12IsSelectableEv
	.section	.text._ZN10GuiElement11IsClickableEv,"axG",@progbits,_ZN10GuiElement11IsClickableEv,comdat
	.align 2
	.weak	_ZN10GuiElement11IsClickableEv
	.type	_ZN10GuiElement11IsClickableEv, @function
_ZN10GuiElement11IsClickableEv:
.LFB1395:
	.loc 2 153 0
	.cfi_startproc
.LVL38:
	.loc 2 158 0
	lwz 0,72(3)
	li 9,0
	cmpwi 7,0,4
	beq- 7,.L30
	.loc 2 158 0 is_stmt 0 discriminator 1
	cmpwi 7,0,2
	beq- 7,.L30
	.loc 2 158 0 discriminator 3
	cmpwi 7,0,3
	beq- 7,.L30
	.loc 2 158 0 discriminator 4
	lbz 9,31(3)
.L30:
	.loc 2 159 0 is_stmt 1 discriminator 6
	mr 3,9
.LVL39:
	blr
	.cfi_endproc
.LFE1395:
	.size	_ZN10GuiElement11IsClickableEv, .-_ZN10GuiElement11IsClickableEv
	.section	.text._ZN10GuiElement10IsHoldableEv,"axG",@progbits,_ZN10GuiElement10IsHoldableEv,comdat
	.align 2
	.weak	_ZN10GuiElement10IsHoldableEv
	.type	_ZN10GuiElement10IsHoldableEv, @function
_ZN10GuiElement10IsHoldableEv:
.LFB1396:
	.loc 2 162 0
	.cfi_startproc
.LVL40:
	.loc 2 162 0
	lwz 9,72(3)
	li 0,0
	cmpwi 7,9,4
	beq- 7,.L35
	.loc 2 162 0 is_stmt 0 discriminator 1
	lbz 0,32(3)
.L35:
	.loc 2 162 0 discriminator 4
	mr 3,0
.LVL41:
	blr
	.cfi_endproc
.LFE1396:
	.size	_ZN10GuiElement10IsHoldableEv, .-_ZN10GuiElement10IsHoldableEv
	.section	.text._ZN10GuiElement13SetSelectableEb,"axG",@progbits,_ZN10GuiElement13SetSelectableEb,comdat
	.align 2
	.weak	_ZN10GuiElement13SetSelectableEb
	.type	_ZN10GuiElement13SetSelectableEb, @function
_ZN10GuiElement13SetSelectableEb:
.LFB1397:
	.loc 2 165 0 is_stmt 1
	.cfi_startproc
.LVL42:
	.loc 2 165 0
	stb 4,30(3)
	blr
	.cfi_endproc
.LFE1397:
	.size	_ZN10GuiElement13SetSelectableEb, .-_ZN10GuiElement13SetSelectableEb
	.section	.text._ZN10GuiElement12SetClickableEb,"axG",@progbits,_ZN10GuiElement12SetClickableEb,comdat
	.align 2
	.weak	_ZN10GuiElement12SetClickableEb
	.type	_ZN10GuiElement12SetClickableEb, @function
_ZN10GuiElement12SetClickableEb:
.LFB1398:
	.loc 2 168 0
	.cfi_startproc
.LVL43:
	.loc 2 168 0
	stb 4,31(3)
	blr
	.cfi_endproc
.LFE1398:
	.size	_ZN10GuiElement12SetClickableEb, .-_ZN10GuiElement12SetClickableEb
	.section	.text._ZN10GuiElement11SetHoldableEb,"axG",@progbits,_ZN10GuiElement11SetHoldableEb,comdat
	.align 2
	.weak	_ZN10GuiElement11SetHoldableEb
	.type	_ZN10GuiElement11SetHoldableEb, @function
_ZN10GuiElement11SetHoldableEb:
.LFB1399:
	.loc 2 171 0
	.cfi_startproc
.LVL44:
	.loc 2 171 0
	stb 4,32(3)
	blr
	.cfi_endproc
.LFE1399:
	.size	_ZN10GuiElement11SetHoldableEb, .-_ZN10GuiElement11SetHoldableEb
	.section	.text._ZN10GuiElement8GetStateEv,"axG",@progbits,_ZN10GuiElement8GetStateEv,comdat
	.align 2
	.weak	_ZN10GuiElement8GetStateEv
	.type	_ZN10GuiElement8GetStateEv, @function
_ZN10GuiElement8GetStateEv:
.LFB1400:
	.loc 2 178 0
	.cfi_startproc
.LVL45:
	.loc 2 178 0
	lwz 3,72(3)
.LVL46:
	blr
	.cfi_endproc
.LFE1400:
	.size	_ZN10GuiElement8GetStateEv, .-_ZN10GuiElement8GetStateEv
	.section	.text._ZN10GuiElement12GetStateChanEv,"axG",@progbits,_ZN10GuiElement12GetStateChanEv,comdat
	.align 2
	.weak	_ZN10GuiElement12GetStateChanEv
	.type	_ZN10GuiElement12GetStateChanEv, @function
_ZN10GuiElement12GetStateChanEv:
.LFB1401:
	.loc 2 181 0
	.cfi_startproc
.LVL47:
	.loc 2 181 0
	lwz 3,76(3)
.LVL48:
	blr
	.cfi_endproc
.LFE1401:
	.size	_ZN10GuiElement12GetStateChanEv, .-_ZN10GuiElement12GetStateChanEv
	.section	.text._ZN10GuiElement8SetAlphaEi,"axG",@progbits,_ZN10GuiElement8SetAlphaEi,comdat
	.align 2
	.weak	_ZN10GuiElement8SetAlphaEi
	.type	_ZN10GuiElement8SetAlphaEi, @function
_ZN10GuiElement8SetAlphaEi:
.LFB1403:
	.loc 2 190 0
	.cfi_startproc
.LVL49:
	.loc 2 190 0
	stw 4,56(3)
	blr
	.cfi_endproc
.LFE1403:
	.size	_ZN10GuiElement8SetAlphaEi, .-_ZN10GuiElement8SetAlphaEi
	.section	.text._ZN10GuiElement8GetAlphaEv,"axG",@progbits,_ZN10GuiElement8GetAlphaEv,comdat
	.align 2
	.weak	_ZN10GuiElement8GetAlphaEv
	.type	_ZN10GuiElement8GetAlphaEv, @function
_ZN10GuiElement8GetAlphaEv:
.LFB1404:
	.loc 2 194 0
	.cfi_startproc
.LVL50:
	mflr 0
	stwu 1,-40(1)
.LCFI5:
	.cfi_def_cfa_offset 40
	.cfi_register 65, 0
	stw 31,36(1)
	stw 0,44(1)
.LBB1296:
	.loc 2 198 0
	lwz 31,108(3)
	.cfi_offset 65, 4
	.cfi_offset 31, -4
	cmpwi 7,31,0
	blt- 7,.L46
.L44:
.LVL51:
	.loc 2 203 0
	lwz 3,96(3)
.LVL52:
	cmpwi 7,3,0
	beq- 7,.L45
	.loc 2 204 0
	lwz 9,0(3)
	xoris 31,31,0x8000
.LVL53:
	lwz 0,100(9)
	mtctr 0
	bctrl
	lis 0,0x4330
	xoris 3,3,0x8000
	stw 0,16(1)
	stw 3,20(1)
	lis 9,.LC1@ha
	lfs 0,.LC1@l(9)
	lis 9,.LC2@ha
	lfd 13,16(1)
	lfs 12,.LC2@l(9)
	addi 9,1,24
	fsub 13,13,0
	stw 31,12(1)
	stw 0,8(1)
	frsp 13,13
	fdivs 13,13,12
	lfd 12,8(1)
	fsub 0,12,0
	frsp 0,0
	fmuls 0,0,13
	fctiwz 0,0
	stfiwx 0,0,9
	lwz 31,24(1)
.LVL54:
.L45:
.LBE1296:
	.loc 2 207 0
	lwz 0,44(1)
	mr 3,31
	lwz 31,36(1)
.LVL55:
	mtlr 0
	addi 1,1,40
	.cfi_remember_state
.LCFI6:
	.cfi_def_cfa_offset 0
	.cfi_restore 31
	blr
.LVL56:
.L46:
.LCFI7:
	.cfi_restore_state
.LBB1297:
	.loc 2 201 0
	lwz 31,56(3)
.LVL57:
	b .L44
.LBE1297:
	.cfi_endproc
.LFE1404:
	.size	_ZN10GuiElement8GetAlphaEv, .-_ZN10GuiElement8GetAlphaEv
	.section	.text._ZN10GuiElement8SetScaleEf,"axG",@progbits,_ZN10GuiElement8SetScaleEf,comdat
	.align 2
	.weak	_ZN10GuiElement8SetScaleEf
	.type	_ZN10GuiElement8SetScaleEf, @function
_ZN10GuiElement8SetScaleEf:
.LFB1405:
	.loc 2 210 0
	.cfi_startproc
.LVL58:
	.loc 2 212 0
	stfs 1,60(3)
	.loc 2 214 0
	.loc 2 213 0
	stfs 1,64(3)
	.loc 2 214 0
	blr
	.cfi_endproc
.LFE1405:
	.size	_ZN10GuiElement8SetScaleEf, .-_ZN10GuiElement8SetScaleEf
	.section	.text._ZN10GuiElement9SetScaleXEf,"axG",@progbits,_ZN10GuiElement9SetScaleXEf,comdat
	.align 2
	.weak	_ZN10GuiElement9SetScaleXEf
	.type	_ZN10GuiElement9SetScaleXEf, @function
_ZN10GuiElement9SetScaleXEf:
.LFB1406:
	.loc 2 217 0
	.cfi_startproc
.LVL59:
	.loc 2 217 0
	stfs 1,60(3)
	blr
	.cfi_endproc
.LFE1406:
	.size	_ZN10GuiElement9SetScaleXEf, .-_ZN10GuiElement9SetScaleXEf
	.section	.text._ZN10GuiElement9SetScaleYEf,"axG",@progbits,_ZN10GuiElement9SetScaleYEf,comdat
	.align 2
	.weak	_ZN10GuiElement9SetScaleYEf
	.type	_ZN10GuiElement9SetScaleYEf, @function
_ZN10GuiElement9SetScaleYEf:
.LFB1407:
	.loc 2 220 0
	.cfi_startproc
.LVL60:
	.loc 2 220 0
	stfs 1,64(3)
	blr
	.cfi_endproc
.LFE1407:
	.size	_ZN10GuiElement9SetScaleYEf, .-_ZN10GuiElement9SetScaleYEf
	.section	.text._ZN10GuiElement8GetScaleEv,"axG",@progbits,_ZN10GuiElement8GetScaleEv,comdat
	.align 2
	.weak	_ZN10GuiElement8GetScaleEv
	.type	_ZN10GuiElement8GetScaleEv, @function
_ZN10GuiElement8GetScaleEv:
.LFB1408:
	.loc 2 223 0
	.cfi_startproc
.LVL61:
	mflr 0
	stwu 1,-16(1)
.LCFI8:
	.cfi_def_cfa_offset 16
	.cfi_register 65, 0
.LBB1298:
	.loc 2 225 0
	lis 9,.LC3@ha
.LBE1298:
	.loc 2 223 0
	stfd 31,8(1)
	stw 0,20(1)
.LBB1299:
	.loc 2 225 0
	lfs 0,64(3)
	lfs 31,60(3)
	.cfi_offset 65, 4
	.cfi_offset 63, -8
	.loc 2 227 0
	lwz 11,96(3)
	.loc 2 225 0
	fadds 31,31,0
	lfs 0,.LC3@l(9)
	.loc 2 227 0
	cmpwi 7,11,0
	.loc 2 225 0
	fmuls 31,31,0
	lfs 0,112(3)
	fmuls 31,31,0
.LVL62:
	.loc 2 227 0
	beq- 7,.L51
	.loc 2 228 0
	lwz 9,0(11)
	mr 3,11
.LVL63:
	lwz 0,116(9)
	mtctr 0
	bctrl
	fmuls 31,31,1
.LVL64:
.L51:
.LBE1299:
	.loc 2 231 0
	lwz 0,20(1)
	fmr 1,31
	lfd 31,8(1)
.LVL65:
	mtlr 0
	addi 1,1,16
.LCFI9:
	.cfi_def_cfa_offset 0
	.cfi_restore 63
	blr
	.cfi_endproc
.LFE1408:
	.size	_ZN10GuiElement8GetScaleEv, .-_ZN10GuiElement8GetScaleEv
	.section	.text._ZN10GuiElement9GetScaleXEv,"axG",@progbits,_ZN10GuiElement9GetScaleXEv,comdat
	.align 2
	.weak	_ZN10GuiElement9GetScaleXEv
	.type	_ZN10GuiElement9GetScaleXEv, @function
_ZN10GuiElement9GetScaleXEv:
.LFB1409:
	.loc 2 234 0
	.cfi_startproc
.LVL66:
	mflr 0
	stwu 1,-16(1)
.LCFI10:
	.cfi_def_cfa_offset 16
	.cfi_register 65, 0
	stfd 31,8(1)
	stw 0,20(1)
.LBB1300:
	.loc 2 238 0
	lwz 11,96(3)
	.loc 2 236 0
	lfs 31,60(3)
	.cfi_offset 65, 4
	.cfi_offset 63, -8
	.loc 2 238 0
	cmpwi 7,11,0
	.loc 2 236 0
	lfs 0,112(3)
	fmuls 31,31,0
.LVL67:
	.loc 2 238 0
	beq- 7,.L53
	.loc 2 239 0
	lwz 9,0(11)
	mr 3,11
.LVL68:
	lwz 0,120(9)
	mtctr 0
	bctrl
	fmuls 31,31,1
.LVL69:
.L53:
.LBE1300:
	.loc 2 242 0
	lwz 0,20(1)
	fmr 1,31
	lfd 31,8(1)
.LVL70:
	mtlr 0
	addi 1,1,16
.LCFI11:
	.cfi_def_cfa_offset 0
	.cfi_restore 63
	blr
	.cfi_endproc
.LFE1409:
	.size	_ZN10GuiElement9GetScaleXEv, .-_ZN10GuiElement9GetScaleXEv
	.section	.text._ZN10GuiElement9GetScaleYEv,"axG",@progbits,_ZN10GuiElement9GetScaleYEv,comdat
	.align 2
	.weak	_ZN10GuiElement9GetScaleYEv
	.type	_ZN10GuiElement9GetScaleYEv, @function
_ZN10GuiElement9GetScaleYEv:
.LFB1410:
	.loc 2 245 0
	.cfi_startproc
.LVL71:
	mflr 0
	stwu 1,-16(1)
.LCFI12:
	.cfi_def_cfa_offset 16
	.cfi_register 65, 0
	stfd 31,8(1)
	stw 0,20(1)
.LBB1301:
	.loc 2 249 0
	lwz 11,96(3)
	.loc 2 247 0
	lfs 31,64(3)
	.cfi_offset 65, 4
	.cfi_offset 63, -8
	.loc 2 249 0
	cmpwi 7,11,0
	.loc 2 247 0
	lfs 0,112(3)
	fmuls 31,31,0
.LVL72:
	.loc 2 249 0
	beq- 7,.L55
	.loc 2 250 0
	lwz 9,0(11)
	mr 3,11
.LVL73:
	lwz 0,124(9)
	mtctr 0
	bctrl
	fmuls 31,31,1
.LVL74:
.L55:
.LBE1301:
	.loc 2 253 0
	lwz 0,20(1)
	fmr 1,31
	lfd 31,8(1)
.LVL75:
	mtlr 0
	addi 1,1,16
.LCFI13:
	.cfi_def_cfa_offset 0
	.cfi_restore 63
	blr
	.cfi_endproc
.LFE1410:
	.size	_ZN10GuiElement9GetScaleYEv, .-_ZN10GuiElement9GetScaleYEv
	.section	.text._ZN10GuiElement6RumbleEv,"axG",@progbits,_ZN10GuiElement6RumbleEv,comdat
	.align 2
	.weak	_ZN10GuiElement6RumbleEv
	.type	_ZN10GuiElement6RumbleEv, @function
_ZN10GuiElement6RumbleEv:
.LFB1411:
	.loc 2 256 0
	.cfi_startproc
.LVL76:
	.loc 2 256 0
	lbz 3,28(3)
.LVL77:
	blr
	.cfi_endproc
.LFE1411:
	.size	_ZN10GuiElement6RumbleEv, .-_ZN10GuiElement6RumbleEv
	.section	.text._ZN10GuiElement9SetRumbleEb,"axG",@progbits,_ZN10GuiElement9SetRumbleEb,comdat
	.align 2
	.weak	_ZN10GuiElement9SetRumbleEb
	.type	_ZN10GuiElement9SetRumbleEb, @function
_ZN10GuiElement9SetRumbleEb:
.LFB1412:
	.loc 2 259 0
	.cfi_startproc
.LVL78:
	.loc 2 259 0
	stb 4,28(3)
	blr
	.cfi_endproc
.LFE1412:
	.size	_ZN10GuiElement9SetRumbleEb, .-_ZN10GuiElement9SetRumbleEb
	.section	.text._ZN10GuiElement13SetEffectGrowEv,"axG",@progbits,_ZN10GuiElement13SetEffectGrowEv,comdat
	.align 2
	.weak	_ZN10GuiElement13SetEffectGrowEv
	.type	_ZN10GuiElement13SetEffectGrowEv, @function
_ZN10GuiElement13SetEffectGrowEv:
.LFB1413:
	.loc 2 271 0
	.cfi_startproc
.LVL79:
	mflr 0
	stwu 1,-8(1)
.LCFI14:
	.cfi_def_cfa_offset 8
	.cfi_register 65, 0
	lwz 9,0(3)
	li 4,256
	li 5,4
	li 6,110
	stw 0,12(1)
	.loc 2 271 0
	lwz 0,140(9)
	.cfi_offset 65, 4
	mtctr 0
	bctrl
.LVL80:
	lwz 0,12(1)
	addi 1,1,8
.LCFI15:
	.cfi_def_cfa_offset 0
	mtlr 0
	blr
	.cfi_endproc
.LFE1413:
	.size	_ZN10GuiElement13SetEffectGrowEv, .-_ZN10GuiElement13SetEffectGrowEv
	.section	.text._ZNK10GuiElement9GetEffectEv,"axG",@progbits,_ZNK10GuiElement9GetEffectEv,comdat
	.align 2
	.weak	_ZNK10GuiElement9GetEffectEv
	.type	_ZNK10GuiElement9GetEffectEv, @function
_ZNK10GuiElement9GetEffectEv:
.LFB1414:
	.loc 2 276 0
	.cfi_startproc
.LVL81:
	.loc 2 276 0
	lwz 3,120(3)
.LVL82:
	blr
	.cfi_endproc
.LFE1414:
	.size	_ZNK10GuiElement9GetEffectEv, .-_ZNK10GuiElement9GetEffectEv
	.section	.text._ZNK10GuiElement10IsAnimatedEv,"axG",@progbits,_ZNK10GuiElement10IsAnimatedEv,comdat
	.align 2
	.weak	_ZNK10GuiElement10IsAnimatedEv
	.type	_ZNK10GuiElement10IsAnimatedEv, @function
_ZNK10GuiElement10IsAnimatedEv:
.LFB1415:
	.loc 2 278 0
	.cfi_startproc
.LVL83:
	mflr 0
	stwu 1,-8(1)
.LCFI16:
	.cfi_def_cfa_offset 8
	.cfi_register 65, 0
	stw 0,12(1)
	.loc 2 278 0
	lwz 9,0(3)
	lwz 0,152(9)
	.cfi_offset 65, 4
	mtctr 0
	bctrl
.LVL84:
	srawi 0,3,31
	subf 3,3,0
	lwz 0,12(1)
	srwi 3,3,31
	mtlr 0
	addi 1,1,8
.LCFI17:
	.cfi_def_cfa_offset 0
	blr
	.cfi_endproc
.LFE1415:
	.size	_ZNK10GuiElement10IsAnimatedEv, .-_ZNK10GuiElement10IsAnimatedEv
	.section	.text._ZN10GuiElement9SetBoundsE4RectIiE,"axG",@progbits,_ZN10GuiElement9SetBoundsE4RectIiE,comdat
	.align 2
	.weak	_ZN10GuiElement9SetBoundsE4RectIiE
	.type	_ZN10GuiElement9SetBoundsE4RectIiE, @function
_ZN10GuiElement9SetBoundsE4RectIiE:
.LFB1416:
	.loc 2 280 0
	.cfi_startproc
.LVL85:
.LBB1302:
.LBB1303:
	.file 5 "d:/Projects/SaveGameManager/savegame-manager-gx/trunk/source/GUI/../Tools/Rect.h"
	.loc 5 30 0
	lwz 10,0(4)
.LBE1303:
.LBE1302:
	.loc 2 280 0
.LBB1305:
.LBB1304:
	.loc 5 31 0
	lwz 11,8(4)
	.loc 5 32 0
	lwz 9,4(4)
	.loc 5 33 0
	lwz 0,12(4)
.LVL86:
	.loc 5 30 0
	stw 10,80(3)
	.loc 5 31 0
	stw 11,88(3)
	.loc 5 32 0
	stw 9,84(3)
	.loc 5 33 0
	stw 0,92(3)
.LBE1304:
.LBE1305:
	.loc 2 280 0
	blr
	.cfi_endproc
.LFE1416:
	.size	_ZN10GuiElement9SetBoundsE4RectIiE, .-_ZN10GuiElement9SetBoundsE4RectIiE
	.section	.text._ZN10GuiElement8IsInsideEii,"axG",@progbits,_ZN10GuiElement8IsInsideEii,comdat
	.align 2
	.weak	_ZN10GuiElement8IsInsideEii
	.type	_ZN10GuiElement8IsInsideEii, @function
_ZN10GuiElement8IsInsideEii:
.LFB1417:
	.loc 2 285 0
	.cfi_startproc
.LVL87:
	mflr 0
	stwu 1,-24(1)
.LCFI18:
	.cfi_def_cfa_offset 24
	.cfi_register 65, 0
	stw 28,8(1)
	mr 28,5
	.cfi_offset 28, -16
	stw 0,28(1)
	stw 29,12(1)
	.loc 2 290 0
	li 29,0
	.cfi_offset 29, -12
	.cfi_offset 65, 4
	.loc 2 287 0
	lwz 9,0(3)
	.loc 2 285 0
	stw 30,16(1)
	mr 30,4
	.cfi_offset 30, -8
	.loc 2 287 0
	lwz 0,16(9)
	.loc 2 285 0
	stw 31,20(1)
	.loc 2 285 0
	mr 31,3
	.cfi_offset 31, -4
	.loc 2 287 0
	mtctr 0
	bctrl
.LVL88:
	.loc 2 290 0
	cmpw 7,3,30
	blt- 7,.L67
.L63:
	.loc 2 291 0 discriminator 6
	lwz 0,28(1)
	mr 3,29
	lwz 28,8(1)
.LVL89:
	mtlr 0
	lwz 29,12(1)
	lwz 30,16(1)
.LVL90:
	lwz 31,20(1)
.LVL91:
	addi 1,1,24
	.cfi_remember_state
.LCFI19:
	.cfi_def_cfa_offset 0
	.cfi_restore 31
	.cfi_restore 30
	.cfi_restore 29
	.cfi_restore 28
	blr
.LVL92:
.L67:
.LCFI20:
	.cfi_restore_state
	.loc 2 288 0 discriminator 1
	lwz 9,0(31)
	mr 3,31
	lwz 0,16(9)
	mtctr 0
	bctrl
	.loc 2 290 0 discriminator 1
	lwz 0,36(31)
	add 0,3,0
	cmpw 7,30,0
	bge+ 7,.L63
	.loc 2 289 0 discriminator 3
	lwz 9,0(31)
	mr 3,31
	lwz 0,20(9)
	mtctr 0
	bctrl
	.loc 2 290 0 discriminator 3
	cmpw 7,3,28
	bge+ 7,.L63
	.loc 2 290 0 is_stmt 0 discriminator 4
	lwz 9,0(31)
	mr 3,31
	lwz 0,20(9)
	mtctr 0
	bctrl
	lwz 0,40(31)
	add 0,3,0
	.loc 2 285 0 is_stmt 1 discriminator 4
	cmpw 7,28,0
	mfcr 29
	rlwinm 29,29,29,1
	b .L63
	.cfi_endproc
.LFE1417:
	.size	_ZN10GuiElement8IsInsideEii, .-_ZN10GuiElement8IsInsideEii
	.section	.text._ZN10GuiElement11SetPositionEii,"axG",@progbits,_ZN10GuiElement11SetPositionEii,comdat
	.align 2
	.weak	_ZN10GuiElement11SetPositionEii
	.type	_ZN10GuiElement11SetPositionEii, @function
_ZN10GuiElement11SetPositionEii:
.LFB1418:
	.loc 2 295 0
	.cfi_startproc
.LVL93:
	.loc 2 297 0
	stw 4,44(3)
	.loc 2 299 0
	.loc 2 298 0
	stw 5,48(3)
	.loc 2 299 0
	blr
	.cfi_endproc
.LFE1418:
	.size	_ZN10GuiElement11SetPositionEii, .-_ZN10GuiElement11SetPositionEii
	.section	.text._ZN10GuiElement11SetPositionEiii,"axG",@progbits,_ZN10GuiElement11SetPositionEiii,comdat
	.align 2
	.weak	_ZN10GuiElement11SetPositionEiii
	.type	_ZN10GuiElement11SetPositionEiii, @function
_ZN10GuiElement11SetPositionEiii:
.LFB1419:
	.loc 2 304 0
	.cfi_startproc
.LVL94:
	.loc 2 306 0
	stw 4,44(3)
	.loc 2 309 0
	.loc 2 307 0
	stw 5,48(3)
	.loc 2 308 0
	stw 6,52(3)
	.loc 2 309 0
	blr
	.cfi_endproc
.LFE1419:
	.size	_ZN10GuiElement11SetPositionEiii, .-_ZN10GuiElement11SetPositionEiii
	.section	.text._ZN10GuiElement11GetSelectedEv,"axG",@progbits,_ZN10GuiElement11GetSelectedEv,comdat
	.align 2
	.weak	_ZN10GuiElement11GetSelectedEv
	.type	_ZN10GuiElement11GetSelectedEv, @function
_ZN10GuiElement11GetSelectedEv:
.LFB1420:
	.loc 2 312 0
	.cfi_startproc
.LVL95:
	.loc 2 312 0
	li 3,-1
.LVL96:
	blr
	.cfi_endproc
.LFE1420:
	.size	_ZN10GuiElement11GetSelectedEv, .-_ZN10GuiElement11GetSelectedEv
	.section	.text._ZN10GuiElement12SetAlignmentEi,"axG",@progbits,_ZN10GuiElement12SetAlignmentEi,comdat
	.align 2
	.weak	_ZN10GuiElement12SetAlignmentEi
	.type	_ZN10GuiElement12SetAlignmentEi, @function
_ZN10GuiElement12SetAlignmentEi:
.LFB1421:
	.loc 2 316 0
	.cfi_startproc
.LVL97:
	.loc 2 316 0
	stw 4,68(3)
	blr
	.cfi_endproc
.LFE1421:
	.size	_ZN10GuiElement12SetAlignmentEi, .-_ZN10GuiElement12SetAlignmentEi
	.section	.text._ZNK10GuiElement12GetAlignmentEv,"axG",@progbits,_ZNK10GuiElement12GetAlignmentEv,comdat
	.align 2
	.weak	_ZNK10GuiElement12GetAlignmentEv
	.type	_ZNK10GuiElement12GetAlignmentEv, @function
_ZNK10GuiElement12GetAlignmentEv:
.LFB1422:
	.loc 2 318 0
	.cfi_startproc
.LVL98:
	.loc 2 318 0
	lwz 3,68(3)
.LVL99:
	blr
	.cfi_endproc
.LFE1422:
	.size	_ZNK10GuiElement12GetAlignmentEv, .-_ZNK10GuiElement12GetAlignmentEv
	.section	.text._ZN10GuiElement6UpdateEP10GuiTrigger,"axG",@progbits,_ZN10GuiElement6UpdateEP10GuiTrigger,comdat
	.align 2
	.weak	_ZN10GuiElement6UpdateEP10GuiTrigger
	.type	_ZN10GuiElement6UpdateEP10GuiTrigger, @function
_ZN10GuiElement6UpdateEP10GuiTrigger:
.LFB1423:
	.loc 2 321 0
	.cfi_startproc
.LVL100:
	.loc 2 321 0
	blr
	.cfi_endproc
.LFE1423:
	.size	_ZN10GuiElement6UpdateEP10GuiTrigger, .-_ZN10GuiElement6UpdateEP10GuiTrigger
	.section	.text._ZN12GuiChecksign7SetSizeEii,"axG",@progbits,_ZN12GuiChecksign7SetSizeEii,comdat
	.align 2
	.weak	_ZN12GuiChecksign7SetSizeEii
	.type	_ZN12GuiChecksign7SetSizeEii, @function
_ZN12GuiChecksign7SetSizeEii:
.LFB1472:
	.file 6 "d:/Projects/SaveGameManager/savegame-manager-gx/trunk/source/GUI/gui_checksign.hpp"
	.loc 6 36 0
	.cfi_startproc
.LVL101:
	.loc 6 36 0
	stw 4,36(3)
	stw 5,40(3)
	blr
	.cfi_endproc
.LFE1472:
	.size	_ZN12GuiChecksign7SetSizeEii, .-_ZN12GuiChecksign7SetSizeEii
	.section	.text._ZN7sigslot12_signal_baseINS_15single_threadedEED2Ev,"axG",@progbits,_ZN7sigslot12_signal_baseINS_15single_threadedEED5Ev,comdat
	.align 2
	.weak	_ZN7sigslot12_signal_baseINS_15single_threadedEED2Ev
	.type	_ZN7sigslot12_signal_baseINS_15single_threadedEED2Ev, @function
_ZN7sigslot12_signal_baseINS_15single_threadedEED2Ev:
.LFB1503:
	.loc 1 466 0
	.cfi_startproc
.LVL102:
.LBB1306:
.LBB1307:
.LBB1308:
.LBB1309:
	.loc 1 105 0
	lis 9,_ZTVN7sigslot15single_threadedE+8@ha
.LBE1309:
.LBE1308:
.LBE1307:
.LBE1306:
	.loc 1 466 0
.LBB1313:
.LBB1312:
.LBB1311:
.LBB1310:
	.loc 1 105 0
	la 0,_ZTVN7sigslot15single_threadedE+8@l(9)
	stw 0,0(3)
.LBE1310:
.LBE1311:
.LBE1312:
.LBE1313:
	.loc 1 466 0
	blr
	.cfi_endproc
.LFE1503:
	.size	_ZN7sigslot12_signal_baseINS_15single_threadedEED2Ev, .-_ZN7sigslot12_signal_baseINS_15single_threadedEED2Ev
	.section	.text._ZN7sigslot12_signal_baseINS_15single_threadedEED0Ev,"axG",@progbits,_ZN7sigslot12_signal_baseINS_15single_threadedEED5Ev,comdat
	.align 2
	.weak	_ZN7sigslot12_signal_baseINS_15single_threadedEED0Ev
	.type	_ZN7sigslot12_signal_baseINS_15single_threadedEED0Ev, @function
_ZN7sigslot12_signal_baseINS_15single_threadedEED0Ev:
.LFB1505:
	.loc 1 466 0
	.cfi_startproc
.LVL103:
	mflr 0
	stwu 1,-8(1)
.LCFI21:
	.cfi_def_cfa_offset 8
	.cfi_register 65, 0
.LBB1314:
.LBB1315:
.LBB1316:
.LBB1317:
.LBB1318:
.LBB1319:
	.loc 1 105 0
	lis 9,_ZTVN7sigslot15single_threadedE+8@ha
.LBE1319:
.LBE1318:
.LBE1317:
.LBE1316:
.LBE1315:
.LBE1314:
	.loc 1 466 0
	stw 0,12(1)
.LBB1325:
.LBB1324:
.LBB1323:
.LBB1322:
.LBB1321:
.LBB1320:
	.loc 1 105 0
	la 0,_ZTVN7sigslot15single_threadedE+8@l(9)
	.cfi_offset 65, 4
	stw 0,0(3)
.LBE1320:
.LBE1321:
.LBE1322:
.LBE1323:
.LBE1324:
.LBE1325:
	.loc 1 466 0
	bl _ZdlPv
.LVL104:
	lwz 0,12(1)
	addi 1,1,8
.LCFI22:
	.cfi_def_cfa_offset 0
	mtlr 0
	blr
	.cfi_endproc
.LFE1505:
	.size	_ZN7sigslot12_signal_baseINS_15single_threadedEED0Ev, .-_ZN7sigslot12_signal_baseINS_15single_threadedEED0Ev
	.section	.text._ZN7sigslot15single_threadedD0Ev,"axG",@progbits,_ZN7sigslot15single_threadedD5Ev,comdat
	.align 2
	.weak	_ZN7sigslot15single_threadedD0Ev
	.type	_ZN7sigslot15single_threadedD0Ev, @function
_ZN7sigslot15single_threadedD0Ev:
.LFB1150:
	.loc 1 104 0
	.cfi_startproc
.LVL105:
	mflr 0
	stwu 1,-8(1)
.LCFI23:
	.cfi_def_cfa_offset 8
	.cfi_register 65, 0
.LBB1326:
.LBB1327:
.LBB1328:
	.loc 1 105 0
	lis 9,_ZTVN7sigslot15single_threadedE+8@ha
.LBE1328:
.LBE1327:
.LBE1326:
	.loc 1 104 0
	stw 0,12(1)
.LBB1331:
.LBB1330:
.LBB1329:
	.loc 1 105 0
	la 0,_ZTVN7sigslot15single_threadedE+8@l(9)
	.cfi_offset 65, 4
	stw 0,0(3)
.LBE1329:
.LBE1330:
.LBE1331:
	.loc 1 107 0
	bl _ZdlPv
.LVL106:
	lwz 0,12(1)
	addi 1,1,8
.LCFI24:
	.cfi_def_cfa_offset 0
	mtlr 0
	blr
	.cfi_endproc
.LFE1150:
	.size	_ZN7sigslot15single_threadedD0Ev, .-_ZN7sigslot15single_threadedD0Ev
	.section	.text._ZN7sigslot13_signal_base3IP10GuiElementiiNS_15single_threadedEE15slot_disconnectEPNS_9has_slotsIS3_EE,"axG",@progbits,_ZN7sigslot13_signal_base3IP10GuiElementiiNS_15single_threadedEE15slot_disconnectEPNS_9has_slotsIS3_EE,comdat
	.align 2
	.weak	_ZN7sigslot13_signal_base3IP10GuiElementiiNS_15single_threadedEE15slot_disconnectEPNS_9has_slotsIS3_EE
	.type	_ZN7sigslot13_signal_base3IP10GuiElementiiNS_15single_threadedEE15slot_disconnectEPNS_9has_slotsIS3_EE, @function
_ZN7sigslot13_signal_base3IP10GuiElementiiNS_15single_threadedEE15slot_disconnectEPNS_9has_slotsIS3_EE:
.LFB1716:
	.loc 1 990 0
	.cfi_startproc
	.cfi_personality 0,__gxx_personality_v0
	.cfi_lsda 0,.LLSDA1716
.LVL107:
	mflr 0
	stwu 1,-32(1)
.LCFI25:
	.cfi_def_cfa_offset 32
	.cfi_register 65, 0
	stw 27,12(1)
	mr 27,3
	.cfi_offset 27, -20
.LVL108:
	stw 0,36(1)
	stw 28,16(1)
	mr 28,4
	.cfi_offset 28, -16
	.cfi_offset 65, 4
.LBB1332:
.LBB1333:
.LBB1334:
	.loc 1 338 0
	lwz 9,0(3)
.LBE1334:
.LBE1333:
.LBE1332:
	.loc 1 990 0
	stw 29,20(1)
.LBB1355:
.LBB1337:
.LBB1335:
	.loc 3 56 0
	mr 29,27
	.cfi_offset 29, -12
	.loc 1 338 0
	lwz 0,8(9)
.LBE1335:
.LBE1337:
.LBE1355:
	.loc 1 990 0
	stw 31,28(1)
	stw 30,24(1)
.LBB1356:
.LBB1338:
.LBB1336:
	.loc 1 338 0
	mtctr 0
.LEHB4:
	.cfi_offset 30, -8
	.cfi_offset 31, -4
	bctrl
.LEHE4:
.LVL109:
	.loc 3 56 0
	lwzu 31,4(29)
.LVL110:
.LBE1336:
.LBE1338:
	.loc 1 996 0
	cmpw 7,31,29
	bne+ 7,.L97
	b .L86
.LVL111:
.L87:
	.loc 1 996 0 is_stmt 0 discriminator 1
	cmpw 7,29,30
	beq- 7,.L86
.L95:
	.loc 1 996 0
	mr 31,30
.LVL112:
.L97:
.LBB1339:
	.loc 1 1001 0 is_stmt 1
	lwz 3,8(31)
.LBB1340:
.LBB1341:
	.loc 4 154 0
	lwz 30,0(31)
.LVL113:
.LBE1341:
.LBE1340:
	.loc 1 1001 0
	lwz 9,0(3)
	lwz 0,8(9)
	mtctr 0
.LEHB5:
	bctrl
.LVL114:
	cmpw 7,28,3
	bne+ 7,.L87
.LVL115:
	.loc 1 1003 0
	lwz 3,8(31)
	cmpwi 7,3,0
	beq- 7,.L88
	.loc 1 1003 0 is_stmt 0 discriminator 1
	lwz 9,0(3)
	lwz 0,4(9)
	mtctr 0
	bctrl
.LEHE5:
.L88:
.LVL116:
.LBB1342:
.LBB1343:
.LBB1344:
.LBB1345:
	.loc 4 1532 0 is_stmt 1
	mr 3,31
	bl _ZNSt8__detail15_List_node_base9_M_unhookEv
.LVL117:
.LBB1346:
.LBB1347:
.LBB1348:
	.file 7 "d:\\devkitpro\\devkitppc\\bin\\../lib/gcc/powerpc-eabi/4.6.3/../../../../powerpc-eabi/include/c++/4.6.3/ext/new_allocator.h"
	.loc 7 98 0
	mr 3,31
	bl _ZdlPv
.LVL118:
.LBE1348:
.LBE1347:
.LBE1346:
.LBE1345:
.LBE1344:
.LBE1343:
.LBE1342:
.LBE1339:
	.loc 1 996 0
	cmpw 7,29,30
	bne+ 7,.L95
.LVL119:
.L86:
.LBB1349:
.LBB1350:
.LBB1351:
	.loc 1 343 0
	lwz 9,0(27)
	mr 3,27
	lwz 0,12(9)
	mtctr 0
.LEHB6:
	bctrl
.LEHE6:
.LBE1351:
.LBE1350:
.LBE1349:
.LBE1356:
	.loc 1 1010 0
	lwz 0,36(1)
	lwz 27,12(1)
.LVL120:
	mtlr 0
	lwz 28,16(1)
.LVL121:
	lwz 29,20(1)
.LVL122:
	lwz 30,24(1)
	lwz 31,28(1)
	addi 1,1,32
	.cfi_remember_state
.LCFI26:
	.cfi_def_cfa_offset 0
	.cfi_restore 31
	.cfi_restore 30
	.cfi_restore 29
	.cfi_restore 28
	.cfi_restore 27
	blr
.LVL123:
.L96:
.LCFI27:
	.cfi_restore_state
.LBB1357:
.LBB1352:
.LBB1353:
.LBB1354:
	.loc 1 343 0
	lwz 9,0(27)
	mr 31,3
.LVL124:
	mr 3,27
	lwz 0,12(9)
	mtctr 0
	bctrl
	mr 3,31
.LEHB7:
	bl _Unwind_Resume
.LEHE7:
.LBE1354:
.LBE1353:
.LBE1352:
.LBE1357:
	.cfi_endproc
.LFE1716:
	.section	.gcc_except_table
.LLSDA1716:
	.byte	0xff
	.byte	0xff
	.byte	0x1
	.uleb128 .LLSDACSE1716-.LLSDACSB1716
.LLSDACSB1716:
	.uleb128 .LEHB4-.LFB1716
	.uleb128 .LEHE4-.LEHB4
	.uleb128 0
	.uleb128 0
	.uleb128 .LEHB5-.LFB1716
	.uleb128 .LEHE5-.LEHB5
	.uleb128 .L96-.LFB1716
	.uleb128 0
	.uleb128 .LEHB6-.LFB1716
	.uleb128 .LEHE6-.LEHB6
	.uleb128 0
	.uleb128 0
	.uleb128 .LEHB7-.LFB1716
	.uleb128 .LEHE7-.LEHB7
	.uleb128 0
	.uleb128 0
.LLSDACSE1716:
	.section	.text._ZN7sigslot13_signal_base3IP10GuiElementiiNS_15single_threadedEE15slot_disconnectEPNS_9has_slotsIS3_EE,"axG",@progbits,_ZN7sigslot13_signal_base3IP10GuiElementiiNS_15single_threadedEE15slot_disconnectEPNS_9has_slotsIS3_EE,comdat
	.size	_ZN7sigslot13_signal_base3IP10GuiElementiiNS_15single_threadedEE15slot_disconnectEPNS_9has_slotsIS3_EE, .-_ZN7sigslot13_signal_base3IP10GuiElementiiNS_15single_threadedEE15slot_disconnectEPNS_9has_slotsIS3_EE
	.section	.text._ZN7sigslot13_signal_base2IP10GuiElementbNS_15single_threadedEE15slot_disconnectEPNS_9has_slotsIS3_EE,"axG",@progbits,_ZN7sigslot13_signal_base2IP10GuiElementbNS_15single_threadedEE15slot_disconnectEPNS_9has_slotsIS3_EE,comdat
	.align 2
	.weak	_ZN7sigslot13_signal_base2IP10GuiElementbNS_15single_threadedEE15slot_disconnectEPNS_9has_slotsIS3_EE
	.type	_ZN7sigslot13_signal_base2IP10GuiElementbNS_15single_threadedEE15slot_disconnectEPNS_9has_slotsIS3_EE, @function
_ZN7sigslot13_signal_base2IP10GuiElementbNS_15single_threadedEE15slot_disconnectEPNS_9has_slotsIS3_EE:
.LFB1718:
	.loc 1 870 0
	.cfi_startproc
	.cfi_personality 0,__gxx_personality_v0
	.cfi_lsda 0,.LLSDA1718
.LVL125:
	mflr 0
	stwu 1,-32(1)
.LCFI28:
	.cfi_def_cfa_offset 32
	.cfi_register 65, 0
	stw 27,12(1)
	mr 27,3
	.cfi_offset 27, -20
.LVL126:
	stw 0,36(1)
	stw 28,16(1)
	mr 28,4
	.cfi_offset 28, -16
	.cfi_offset 65, 4
.LBB1358:
.LBB1359:
.LBB1360:
	.loc 1 338 0
	lwz 9,0(3)
.LBE1360:
.LBE1359:
.LBE1358:
	.loc 1 870 0
	stw 29,20(1)
.LBB1381:
.LBB1363:
.LBB1361:
	.loc 3 56 0
	mr 29,27
	.cfi_offset 29, -12
	.loc 1 338 0
	lwz 0,8(9)
.LBE1361:
.LBE1363:
.LBE1381:
	.loc 1 870 0
	stw 31,28(1)
	stw 30,24(1)
.LBB1382:
.LBB1364:
.LBB1362:
	.loc 1 338 0
	mtctr 0
.LEHB8:
	.cfi_offset 30, -8
	.cfi_offset 31, -4
	bctrl
.LEHE8:
.LVL127:
	.loc 3 56 0
	lwzu 31,4(29)
.LVL128:
.LBE1362:
.LBE1364:
	.loc 1 876 0
	cmpw 7,31,29
	bne+ 7,.L110
	b .L99
.LVL129:
.L100:
	.loc 1 876 0 is_stmt 0 discriminator 1
	cmpw 7,29,30
	beq- 7,.L99
.L108:
	.loc 1 876 0
	mr 31,30
.LVL130:
.L110:
.LBB1365:
	.loc 1 881 0 is_stmt 1
	lwz 3,8(31)
.LBB1366:
.LBB1367:
	.loc 4 154 0
	lwz 30,0(31)
.LVL131:
.LBE1367:
.LBE1366:
	.loc 1 881 0
	lwz 9,0(3)
	lwz 0,8(9)
	mtctr 0
.LEHB9:
	bctrl
.LVL132:
	cmpw 7,28,3
	bne+ 7,.L100
.LVL133:
	.loc 1 883 0
	lwz 3,8(31)
	cmpwi 7,3,0
	beq- 7,.L101
	.loc 1 883 0 is_stmt 0 discriminator 1
	lwz 9,0(3)
	lwz 0,4(9)
	mtctr 0
	bctrl
.LEHE9:
.L101:
.LVL134:
.LBB1368:
.LBB1369:
.LBB1370:
.LBB1371:
	.loc 4 1532 0 is_stmt 1
	mr 3,31
	bl _ZNSt8__detail15_List_node_base9_M_unhookEv
.LVL135:
.LBB1372:
.LBB1373:
.LBB1374:
	.loc 7 98 0
	mr 3,31
	bl _ZdlPv
.LVL136:
.LBE1374:
.LBE1373:
.LBE1372:
.LBE1371:
.LBE1370:
.LBE1369:
.LBE1368:
.LBE1365:
	.loc 1 876 0
	cmpw 7,29,30
	bne+ 7,.L108
.LVL137:
.L99:
.LBB1375:
.LBB1376:
.LBB1377:
	.loc 1 343 0
	lwz 9,0(27)
	mr 3,27
	lwz 0,12(9)
	mtctr 0
.LEHB10:
	bctrl
.LEHE10:
.LBE1377:
.LBE1376:
.LBE1375:
.LBE1382:
	.loc 1 890 0
	lwz 0,36(1)
	lwz 27,12(1)
.LVL138:
	mtlr 0
	lwz 28,16(1)
.LVL139:
	lwz 29,20(1)
.LVL140:
	lwz 30,24(1)
	lwz 31,28(1)
	addi 1,1,32
	.cfi_remember_state
.LCFI29:
	.cfi_def_cfa_offset 0
	.cfi_restore 31
	.cfi_restore 30
	.cfi_restore 29
	.cfi_restore 28
	.cfi_restore 27
	blr
.LVL141:
.L109:
.LCFI30:
	.cfi_restore_state
.LBB1383:
.LBB1378:
.LBB1379:
.LBB1380:
	.loc 1 343 0
	lwz 9,0(27)
	mr 31,3
.LVL142:
	mr 3,27
	lwz 0,12(9)
	mtctr 0
	bctrl
	mr 3,31
.LEHB11:
	bl _Unwind_Resume
.LEHE11:
.LBE1380:
.LBE1379:
.LBE1378:
.LBE1383:
	.cfi_endproc
.LFE1718:
	.section	.gcc_except_table
.LLSDA1718:
	.byte	0xff
	.byte	0xff
	.byte	0x1
	.uleb128 .LLSDACSE1718-.LLSDACSB1718
.LLSDACSB1718:
	.uleb128 .LEHB8-.LFB1718
	.uleb128 .LEHE8-.LEHB8
	.uleb128 0
	.uleb128 0
	.uleb128 .LEHB9-.LFB1718
	.uleb128 .LEHE9-.LEHB9
	.uleb128 .L109-.LFB1718
	.uleb128 0
	.uleb128 .LEHB10-.LFB1718
	.uleb128 .LEHE10-.LEHB10
	.uleb128 0
	.uleb128 0
	.uleb128 .LEHB11-.LFB1718
	.uleb128 .LEHE11-.LEHB11
	.uleb128 0
	.uleb128 0
.LLSDACSE1718:
	.section	.text._ZN7sigslot13_signal_base2IP10GuiElementbNS_15single_threadedEE15slot_disconnectEPNS_9has_slotsIS3_EE,"axG",@progbits,_ZN7sigslot13_signal_base2IP10GuiElementbNS_15single_threadedEE15slot_disconnectEPNS_9has_slotsIS3_EE,comdat
	.size	_ZN7sigslot13_signal_base2IP10GuiElementbNS_15single_threadedEE15slot_disconnectEPNS_9has_slotsIS3_EE, .-_ZN7sigslot13_signal_base2IP10GuiElementbNS_15single_threadedEE15slot_disconnectEPNS_9has_slotsIS3_EE
	.section	.text._ZN7sigslot13_signal_base3IP10GuiElementiiNS_15single_threadedEE14slot_duplicateEPKNS_9has_slotsIS3_EEPS6_,"axG",@progbits,_ZN7sigslot13_signal_base3IP10GuiElementiiNS_15single_threadedEE14slot_duplicateEPKNS_9has_slotsIS3_EEPS6_,comdat
	.align 2
	.weak	_ZN7sigslot13_signal_base3IP10GuiElementiiNS_15single_threadedEE14slot_duplicateEPKNS_9has_slotsIS3_EEPS6_
	.type	_ZN7sigslot13_signal_base3IP10GuiElementiiNS_15single_threadedEE14slot_duplicateEPKNS_9has_slotsIS3_EEPS6_, @function
_ZN7sigslot13_signal_base3IP10GuiElementiiNS_15single_threadedEE14slot_duplicateEPKNS_9has_slotsIS3_EEPS6_:
.LFB1717:
	.loc 1 926 0
	.cfi_startproc
	.cfi_personality 0,__gxx_personality_v0
	.cfi_lsda 0,.LLSDA1717
.LVL143:
	mflr 0
	stwu 1,-32(1)
.LCFI31:
	.cfi_def_cfa_offset 32
	.cfi_register 65, 0
	stw 26,8(1)
	mr 26,5
	.cfi_offset 26, -24
	stw 0,36(1)
	stw 27,12(1)
	mr 27,3
	.cfi_offset 27, -20
	.cfi_offset 65, 4
.LVL144:
.LBB1384:
.LBB1385:
.LBB1386:
	.loc 1 338 0
	lwz 9,0(3)
.LBE1386:
.LBE1385:
.LBE1384:
	.loc 1 926 0
	stw 29,20(1)
	mr 29,4
	.cfi_offset 29, -12
.LBB1415:
.LBB1391:
.LBB1387:
	.loc 1 338 0
	lwz 0,8(9)
.LBE1387:
.LBE1391:
.LBE1415:
	.loc 1 926 0
	stw 30,24(1)
.LBB1416:
.LBB1392:
.LBB1388:
	.loc 3 56 0
	mr 30,27
	.cfi_offset 30, -8
.LBE1388:
.LBE1392:
.LBE1416:
	.loc 1 926 0
	stw 31,28(1)
.LBB1417:
.LBB1393:
.LBB1389:
	.loc 1 338 0
	mtctr 0
.LBE1389:
.LBE1393:
.LBE1417:
	.loc 1 926 0
	stw 28,16(1)
.LEHB12:
.LBB1418:
.LBB1394:
.LBB1390:
	.loc 1 338 0
	.cfi_offset 28, -16
	.cfi_offset 31, -4
	bctrl
.LEHE12:
.LVL145:
	.loc 3 56 0
	lwzu 31,4(30)
.LVL146:
.LBE1390:
.LBE1394:
	.loc 1 932 0
	cmpw 7,31,30
	bne+ 7,.L121
	b .L112
.LVL147:
.L113:
.LBB1395:
.LBB1396:
	.loc 4 154 0
	lwz 31,0(31)
.LVL148:
.LBE1396:
.LBE1395:
	.loc 1 932 0
	cmpw 7,30,31
	beq- 7,.L112
.LVL149:
.L121:
	.loc 1 934 0
	lwz 3,8(31)
	lwz 9,0(3)
	lwz 0,8(9)
	mtctr 0
.LEHB13:
	bctrl
	cmpw 7,29,3
	bne+ 7,.L113
.LVL150:
	.loc 1 936 0
	lwz 3,8(31)
	mr 4,26
	lwz 9,0(3)
	lwz 0,20(9)
	mtctr 0
	bctrl
	mr 28,3
.LVL151:
.LBB1398:
.LBB1399:
.LBB1400:
.LBB1401:
.LBB1402:
.LBB1403:
.LBB1404:
.LBB1405:
	.loc 7 92 0
	li 3,12
	bl _Znwj
.LEHE13:
.LVL152:
.LBE1405:
.LBE1404:
.LBE1403:
.LBB1406:
.LBB1407:
	.loc 7 108 0 discriminator 1
	cmpwi 7,3,-8
	beq- 7,.L115
	.loc 7 108 0 is_stmt 0
	stw 28,8(3)
.L115:
.LVL153:
.LBE1407:
.LBE1406:
.LBE1402:
.LBE1401:
	.loc 4 1516 0 is_stmt 1
	mr 4,30
	bl _ZNSt8__detail15_List_node_base7_M_hookEPS0_
.LVL154:
.LBE1400:
.LBE1399:
.LBE1398:
.LBB1408:
.LBB1397:
	.loc 4 154 0
	lwz 31,0(31)
.LVL155:
.LBE1397:
.LBE1408:
	.loc 1 932 0
	cmpw 7,30,31
	bne+ 7,.L121
.LVL156:
.L112:
.LBB1409:
.LBB1410:
.LBB1411:
	.loc 1 343 0
	lwz 9,0(27)
	mr 3,27
	lwz 0,12(9)
	mtctr 0
.LEHB14:
	bctrl
.LEHE14:
.LBE1411:
.LBE1410:
.LBE1409:
.LBE1418:
	.loc 1 941 0
	lwz 0,36(1)
	lwz 26,8(1)
.LVL157:
	mtlr 0
	lwz 27,12(1)
.LVL158:
	lwz 28,16(1)
	lwz 29,20(1)
.LVL159:
	lwz 30,24(1)
.LVL160:
	lwz 31,28(1)
.LVL161:
	addi 1,1,32
	.cfi_remember_state
.LCFI32:
	.cfi_def_cfa_offset 0
	.cfi_restore 31
	.cfi_restore 30
	.cfi_restore 29
	.cfi_restore 28
	.cfi_restore 27
	.cfi_restore 26
	blr
.LVL162:
.L120:
.LCFI33:
	.cfi_restore_state
.LBB1419:
.LBB1412:
.LBB1413:
.LBB1414:
	.loc 1 343 0
	lwz 9,0(27)
	mr 31,3
.LVL163:
	mr 3,27
	lwz 0,12(9)
	mtctr 0
	bctrl
	mr 3,31
.LEHB15:
	bl _Unwind_Resume
.LEHE15:
.LBE1414:
.LBE1413:
.LBE1412:
.LBE1419:
	.cfi_endproc
.LFE1717:
	.section	.gcc_except_table
.LLSDA1717:
	.byte	0xff
	.byte	0xff
	.byte	0x1
	.uleb128 .LLSDACSE1717-.LLSDACSB1717
.LLSDACSB1717:
	.uleb128 .LEHB12-.LFB1717
	.uleb128 .LEHE12-.LEHB12
	.uleb128 0
	.uleb128 0
	.uleb128 .LEHB13-.LFB1717
	.uleb128 .LEHE13-.LEHB13
	.uleb128 .L120-.LFB1717
	.uleb128 0
	.uleb128 .LEHB14-.LFB1717
	.uleb128 .LEHE14-.LEHB14
	.uleb128 0
	.uleb128 0
	.uleb128 .LEHB15-.LFB1717
	.uleb128 .LEHE15-.LEHB15
	.uleb128 0
	.uleb128 0
.LLSDACSE1717:
	.section	.text._ZN7sigslot13_signal_base3IP10GuiElementiiNS_15single_threadedEE14slot_duplicateEPKNS_9has_slotsIS3_EEPS6_,"axG",@progbits,_ZN7sigslot13_signal_base3IP10GuiElementiiNS_15single_threadedEE14slot_duplicateEPKNS_9has_slotsIS3_EEPS6_,comdat
	.size	_ZN7sigslot13_signal_base3IP10GuiElementiiNS_15single_threadedEE14slot_duplicateEPKNS_9has_slotsIS3_EEPS6_, .-_ZN7sigslot13_signal_base3IP10GuiElementiiNS_15single_threadedEE14slot_duplicateEPKNS_9has_slotsIS3_EEPS6_
	.section	.text._ZN7sigslot13_signal_base2IP10GuiElementbNS_15single_threadedEE14slot_duplicateEPKNS_9has_slotsIS3_EEPS6_,"axG",@progbits,_ZN7sigslot13_signal_base2IP10GuiElementbNS_15single_threadedEE14slot_duplicateEPKNS_9has_slotsIS3_EEPS6_,comdat
	.align 2
	.weak	_ZN7sigslot13_signal_base2IP10GuiElementbNS_15single_threadedEE14slot_duplicateEPKNS_9has_slotsIS3_EEPS6_
	.type	_ZN7sigslot13_signal_base2IP10GuiElementbNS_15single_threadedEE14slot_duplicateEPKNS_9has_slotsIS3_EEPS6_, @function
_ZN7sigslot13_signal_base2IP10GuiElementbNS_15single_threadedEE14slot_duplicateEPKNS_9has_slotsIS3_EEPS6_:
.LFB1719:
	.loc 1 806 0
	.cfi_startproc
	.cfi_personality 0,__gxx_personality_v0
	.cfi_lsda 0,.LLSDA1719
.LVL164:
	mflr 0
	stwu 1,-32(1)
.LCFI34:
	.cfi_def_cfa_offset 32
	.cfi_register 65, 0
	stw 26,8(1)
	mr 26,5
	.cfi_offset 26, -24
	stw 0,36(1)
	stw 27,12(1)
	mr 27,3
	.cfi_offset 27, -20
	.cfi_offset 65, 4
.LVL165:
.LBB1420:
.LBB1421:
.LBB1422:
	.loc 1 338 0
	lwz 9,0(3)
.LBE1422:
.LBE1421:
.LBE1420:
	.loc 1 806 0
	stw 29,20(1)
	mr 29,4
	.cfi_offset 29, -12
.LBB1451:
.LBB1427:
.LBB1423:
	.loc 1 338 0
	lwz 0,8(9)
.LBE1423:
.LBE1427:
.LBE1451:
	.loc 1 806 0
	stw 30,24(1)
.LBB1452:
.LBB1428:
.LBB1424:
	.loc 3 56 0
	mr 30,27
	.cfi_offset 30, -8
.LBE1424:
.LBE1428:
.LBE1452:
	.loc 1 806 0
	stw 31,28(1)
.LBB1453:
.LBB1429:
.LBB1425:
	.loc 1 338 0
	mtctr 0
.LBE1425:
.LBE1429:
.LBE1453:
	.loc 1 806 0
	stw 28,16(1)
.LEHB16:
.LBB1454:
.LBB1430:
.LBB1426:
	.loc 1 338 0
	.cfi_offset 28, -16
	.cfi_offset 31, -4
	bctrl
.LEHE16:
.LVL166:
	.loc 3 56 0
	lwzu 31,4(30)
.LVL167:
.LBE1426:
.LBE1430:
	.loc 1 812 0
	cmpw 7,31,30
	bne+ 7,.L133
	b .L124
.LVL168:
.L125:
.LBB1431:
.LBB1432:
	.loc 4 154 0
	lwz 31,0(31)
.LVL169:
.LBE1432:
.LBE1431:
	.loc 1 812 0
	cmpw 7,30,31
	beq- 7,.L124
.LVL170:
.L133:
	.loc 1 814 0
	lwz 3,8(31)
	lwz 9,0(3)
	lwz 0,8(9)
	mtctr 0
.LEHB17:
	bctrl
	cmpw 7,29,3
	bne+ 7,.L125
.LVL171:
	.loc 1 816 0
	lwz 3,8(31)
	mr 4,26
	lwz 9,0(3)
	lwz 0,20(9)
	mtctr 0
	bctrl
	mr 28,3
.LVL172:
.LBB1434:
.LBB1435:
.LBB1436:
.LBB1437:
.LBB1438:
.LBB1439:
.LBB1440:
.LBB1441:
	.loc 7 92 0
	li 3,12
	bl _Znwj
.LEHE17:
.LVL173:
.LBE1441:
.LBE1440:
.LBE1439:
.LBB1442:
.LBB1443:
	.loc 7 108 0 discriminator 1
	cmpwi 7,3,-8
	beq- 7,.L127
	.loc 7 108 0 is_stmt 0
	stw 28,8(3)
.L127:
.LVL174:
.LBE1443:
.LBE1442:
.LBE1438:
.LBE1437:
	.loc 4 1516 0 is_stmt 1
	mr 4,30
	bl _ZNSt8__detail15_List_node_base7_M_hookEPS0_
.LVL175:
.LBE1436:
.LBE1435:
.LBE1434:
.LBB1444:
.LBB1433:
	.loc 4 154 0
	lwz 31,0(31)
.LVL176:
.LBE1433:
.LBE1444:
	.loc 1 812 0
	cmpw 7,30,31
	bne+ 7,.L133
.LVL177:
.L124:
.LBB1445:
.LBB1446:
.LBB1447:
	.loc 1 343 0
	lwz 9,0(27)
	mr 3,27
	lwz 0,12(9)
	mtctr 0
.LEHB18:
	bctrl
.LEHE18:
.LBE1447:
.LBE1446:
.LBE1445:
.LBE1454:
	.loc 1 821 0
	lwz 0,36(1)
	lwz 26,8(1)
.LVL178:
	mtlr 0
	lwz 27,12(1)
.LVL179:
	lwz 28,16(1)
	lwz 29,20(1)
.LVL180:
	lwz 30,24(1)
.LVL181:
	lwz 31,28(1)
.LVL182:
	addi 1,1,32
	.cfi_remember_state
.LCFI35:
	.cfi_def_cfa_offset 0
	.cfi_restore 31
	.cfi_restore 30
	.cfi_restore 29
	.cfi_restore 28
	.cfi_restore 27
	.cfi_restore 26
	blr
.LVL183:
.L132:
.LCFI36:
	.cfi_restore_state
.LBB1455:
.LBB1448:
.LBB1449:
.LBB1450:
	.loc 1 343 0
	lwz 9,0(27)
	mr 31,3
.LVL184:
	mr 3,27
	lwz 0,12(9)
	mtctr 0
	bctrl
	mr 3,31
.LEHB19:
	bl _Unwind_Resume
.LEHE19:
.LBE1450:
.LBE1449:
.LBE1448:
.LBE1455:
	.cfi_endproc
.LFE1719:
	.section	.gcc_except_table
.LLSDA1719:
	.byte	0xff
	.byte	0xff
	.byte	0x1
	.uleb128 .LLSDACSE1719-.LLSDACSB1719
.LLSDACSB1719:
	.uleb128 .LEHB16-.LFB1719
	.uleb128 .LEHE16-.LEHB16
	.uleb128 0
	.uleb128 0
	.uleb128 .LEHB17-.LFB1719
	.uleb128 .LEHE17-.LEHB17
	.uleb128 .L132-.LFB1719
	.uleb128 0
	.uleb128 .LEHB18-.LFB1719
	.uleb128 .LEHE18-.LEHB18
	.uleb128 0
	.uleb128 0
	.uleb128 .LEHB19-.LFB1719
	.uleb128 .LEHE19-.LEHB19
	.uleb128 0
	.uleb128 0
.LLSDACSE1719:
	.section	.text._ZN7sigslot13_signal_base2IP10GuiElementbNS_15single_threadedEE14slot_duplicateEPKNS_9has_slotsIS3_EEPS6_,"axG",@progbits,_ZN7sigslot13_signal_base2IP10GuiElementbNS_15single_threadedEE14slot_duplicateEPKNS_9has_slotsIS3_EEPS6_,comdat
	.size	_ZN7sigslot13_signal_base2IP10GuiElementbNS_15single_threadedEE14slot_duplicateEPKNS_9has_slotsIS3_EEPS6_, .-_ZN7sigslot13_signal_base2IP10GuiElementbNS_15single_threadedEE14slot_duplicateEPKNS_9has_slotsIS3_EEPS6_
	.section	".text"
	.align 2
	.globl _ZN12GuiChecksign4DrawEv
	.type	_ZN12GuiChecksign4DrawEv, @function
_ZN12GuiChecksign4DrawEv:
.LFB1473:
	.loc 3 27 0
	.cfi_startproc
.LVL185:
	stwu 1,-168(1)
.LCFI37:
	.cfi_def_cfa_offset 168
	mflr 0
.LBB1456:
	.loc 3 28 0
	li 4,4
.LBE1456:
	.loc 3 27 0
	stw 31,108(1)
	mr 31,3
	.cfi_offset 31, -60
	.cfi_register 65, 0
.LBB1477:
	.loc 3 28 0
	li 3,0
.LVL186:
.LBE1477:
	.loc 3 27 0
	stw 0,172(1)
	stfd 25,112(1)
	stfd 26,120(1)
	stfd 27,128(1)
	stfd 28,136(1)
	stfd 29,144(1)
	stfd 30,152(1)
	stfd 31,160(1)
	stw 30,104(1)
.LBB1478:
	.loc 3 28 0
	.cfi_offset 30, -64
	.cfi_offset 63, -8
	.cfi_offset 62, -16
	.cfi_offset 61, -24
	.cfi_offset 60, -32
	.cfi_offset 59, -40
	.cfi_offset 58, -48
	.cfi_offset 57, -56
	.cfi_offset 65, 4
	bl GX_SetTevOp
	.loc 3 29 0
	li 3,9
	li 4,1
	bl GX_SetVtxDesc
	.loc 3 30 0
	li 3,11
	li 4,1
	.loc 3 33 0
	lis 30,0x4330
	.loc 3 30 0
	bl GX_SetVtxDesc
	.loc 3 31 0
	li 4,0
	li 3,13
	bl GX_SetVtxDesc
	.loc 3 33 0
	lwz 9,0(31)
	mr 3,31
	lwz 0,16(9)
	mtctr 0
	bctrl
	lwz 0,36(31)
	xoris 3,3,0x8000
	stw 30,8(1)
	xoris 0,0,0x8000
	stw 3,20(1)
	stw 30,16(1)
	lis 9,.LC1@ha
	stw 0,12(1)
	.loc 3 34 0
	mr 3,31
	.loc 3 33 0
	lfs 31,.LC1@l(9)
	lfd 25,8(1)
	.loc 3 34 0
	lwz 9,0(31)
	.loc 3 33 0
	lfd 0,16(1)
	fsub 25,25,31
	.loc 3 34 0
	lwz 0,20(9)
	.loc 3 33 0
	lis 9,.LC4@ha
	fsub 0,0,31
	lfs 30,.LC4@l(9)
	.loc 3 34 0
	mtctr 0
	.loc 3 33 0
	frsp 25,25
	frsp 0,0
	fmadds 25,25,30,0
.LVL187:
	.loc 3 34 0
	bctrl
	lwz 0,40(31)
	xoris 3,3,0x8000
	stw 30,24(1)
	xoris 0,0,0x8000
	stw 3,36(1)
	stw 30,32(1)
	.loc 3 35 0
	mr 3,31
	.loc 3 34 0
	stw 0,28(1)
	lfd 0,32(1)
	.loc 3 35 0
	lwz 9,0(31)
	.loc 3 34 0
	lfd 26,24(1)
	fsub 0,0,31
	.loc 3 35 0
	lwz 0,16(9)
	.loc 3 34 0
	lis 9,.LC5@ha
	fsub 26,26,31
	lfs 13,.LC5@l(9)
	.loc 3 35 0
	mtctr 0
	.loc 3 34 0
	frsp 0,0
	frsp 26,26
	fmadds 26,26,13,0
.LVL188:
	.loc 3 35 0
	bctrl
	lwz 0,36(31)
	xoris 3,3,0x8000
	stw 30,40(1)
	xoris 0,0,0x8000
	stw 3,52(1)
	stw 30,48(1)
	.loc 3 36 0
	mr 3,31
	.loc 3 35 0
	stw 0,44(1)
	lfd 0,48(1)
	.loc 3 36 0
	lwz 9,0(31)
	.loc 3 35 0
	lfd 28,40(1)
	fsub 0,0,31
	.loc 3 36 0
	lwz 0,20(9)
	.loc 3 35 0
	lis 9,.LC6@ha
	fsub 28,28,31
	lfs 13,.LC6@l(9)
	.loc 3 36 0
	mtctr 0
	.loc 3 35 0
	frsp 0,0
	frsp 28,28
	fmadds 28,28,13,0
.LVL189:
	.loc 3 36 0
	bctrl
	lwz 0,40(31)
	xoris 3,3,0x8000
	stw 30,56(1)
	xoris 0,0,0x8000
	stw 3,68(1)
	stw 30,64(1)
	.loc 3 40 0
	mr 3,31
	.loc 3 36 0
	stw 0,60(1)
	lfd 13,64(1)
	lfd 0,56(1)
	fsub 13,13,31
	.loc 3 40 0
	lwz 9,0(31)
	.loc 3 36 0
	fsub 0,0,31
	.loc 3 40 0
	lwz 0,16(9)
	.loc 3 36 0
	frsp 13,13
	frsp 0,0
	.loc 3 40 0
	mtctr 0
	.loc 3 26 0
	fneg 29,0
	.loc 3 36 0
	fadds 0,13,0
	fmadds 29,29,30,0
.LVL190:
	.loc 3 40 0
	bctrl
	lwz 0,36(31)
	xoris 3,3,0x8000
	stw 30,72(1)
	xoris 0,0,0x8000
	stw 3,84(1)
	stw 30,80(1)
	.loc 3 41 0
	mr 3,31
	.loc 3 40 0
	stw 0,76(1)
	lfd 13,80(1)
	lfd 0,72(1)
	fsub 13,13,31
	.loc 3 41 0
	lwz 9,0(31)
	.loc 3 40 0
	fsub 0,0,31
	.loc 3 41 0
	lwz 0,20(9)
	.loc 3 40 0
	frsp 13,13
	frsp 0,0
	.loc 3 41 0
	mtctr 0
	.loc 3 26 0
	fneg 27,0
	.loc 3 40 0
	fadds 0,13,0
	fmadds 27,27,30,0
.LVL191:
	.loc 3 41 0
	bctrl
	lwz 0,40(31)
	xoris 3,3,0x8000
	stw 30,88(1)
	xoris 0,0,0x8000
	stw 3,100(1)
	stw 30,96(1)
	.loc 3 43 0
	mr 3,31
	.loc 3 41 0
	stw 0,92(1)
	lfd 13,96(1)
	.loc 3 43 0
	lwz 9,0(31)
	.loc 3 41 0
	lfd 0,88(1)
	.loc 3 43 0
	lwz 0,100(9)
	.loc 3 41 0
	fsub 0,0,31
	fsub 31,13,31
	.loc 3 43 0
	mtctr 0
	.loc 3 41 0
	frsp 0,0
	frsp 31,31
	fmadds 30,0,30,31
.LVL192:
	.loc 3 43 0
	bctrl
	mr 30,3
.LVL193:
	.loc 3 45 0
	li 4,0
	li 3,168
.LVL194:
	li 5,4
	bl GX_Begin
.LVL195:
.LBB1457:
.LBB1458:
	.file 8 "d:/devkitPro/libogc/include/ogc/gx.h"
	.loc 8 2123 0
	lis 9,wgPipe@ha
	lwz 9,wgPipe@l(9)
	.loc 8 2125 0
	li 0,0
.LBE1458:
.LBE1457:
	.loc 3 47 0
	rlwinm 30,30,0,0xff
.LVL196:
	.loc 3 55 0
	li 3,0
.LBB1461:
.LBB1459:
	.loc 8 2123 0
	stfs 25,0(9)
.LBE1459:
.LBE1461:
	.loc 3 55 0
	li 4,0
.LBB1462:
.LBB1460:
	.loc 8 2124 0
	stfs 26,0(9)
	.loc 8 2125 0
	stw 0,0(9)
.LBE1460:
.LBE1462:
	.loc 3 47 0
	lbz 8,144(31)
.LVL197:
	lbz 10,145(31)
.LVL198:
	lbz 11,146(31)
.LVL199:
.LBB1463:
.LBB1464:
	.loc 8 2229 0
	stb 8,0(9)
	.loc 8 2230 0
	stb 10,0(9)
	.loc 8 2231 0
	stb 11,0(9)
	.loc 8 2232 0
	stb 30,0(9)
.LVL200:
.LBE1464:
.LBE1463:
.LBB1465:
.LBB1466:
	.loc 8 2123 0
	stfs 28,0(9)
	.loc 8 2124 0
	stfs 29,0(9)
	.loc 8 2125 0
	stw 0,0(9)
.LBE1466:
.LBE1465:
	.loc 3 49 0
	lbz 8,144(31)
.LVL201:
	lbz 10,145(31)
.LVL202:
	lbz 11,146(31)
.LVL203:
.LBB1467:
.LBB1468:
	.loc 8 2229 0
	stb 8,0(9)
	.loc 8 2230 0
	stb 10,0(9)
	.loc 8 2231 0
	stb 11,0(9)
	.loc 8 2232 0
	stb 30,0(9)
.LVL204:
.LBE1468:
.LBE1467:
.LBB1469:
.LBB1470:
	.loc 8 2123 0
	stfs 28,0(9)
	.loc 8 2124 0
	stfs 29,0(9)
	.loc 8 2125 0
	stw 0,0(9)
.LBE1470:
.LBE1469:
	.loc 3 51 0
	lbz 8,144(31)
.LVL205:
	lbz 10,145(31)
.LVL206:
	lbz 11,146(31)
.LVL207:
.LBB1471:
.LBB1472:
	.loc 8 2229 0
	stb 8,0(9)
	.loc 8 2230 0
	stb 10,0(9)
	.loc 8 2231 0
	stb 11,0(9)
	.loc 8 2232 0
	stb 30,0(9)
.LVL208:
.LBE1472:
.LBE1471:
.LBB1473:
.LBB1474:
	.loc 8 2123 0
	stfs 27,0(9)
	.loc 8 2124 0
	stfs 30,0(9)
	.loc 8 2125 0
	stw 0,0(9)
.LBE1474:
.LBE1473:
	.loc 3 53 0
	lbz 0,146(31)
	lbz 10,144(31)
.LVL209:
	lbz 11,145(31)
.LVL210:
.LBB1475:
.LBB1476:
	.loc 8 2229 0
	stb 10,0(9)
	.loc 8 2230 0
	stb 11,0(9)
	.loc 8 2231 0
	stb 0,0(9)
	.loc 8 2232 0
	stb 30,0(9)
.LBE1476:
.LBE1475:
	.loc 3 55 0
	bl GX_SetTevOp
.LVL211:
.LBE1478:
	.loc 3 56 0
	lwz 0,172(1)
	lwz 30,104(1)
.LVL212:
	mtlr 0
	lwz 31,108(1)
.LVL213:
	lfd 25,112(1)
.LVL214:
	lfd 26,120(1)
.LVL215:
	lfd 27,128(1)
.LVL216:
	lfd 28,136(1)
.LVL217:
	lfd 29,144(1)
.LVL218:
	lfd 30,152(1)
.LVL219:
	lfd 31,160(1)
	addi 1,1,168
.LCFI38:
	.cfi_def_cfa_offset 0
	.cfi_restore 63
	.cfi_restore 62
	.cfi_restore 61
	.cfi_restore 60
	.cfi_restore 59
	.cfi_restore 58
	.cfi_restore 57
	.cfi_restore 31
	.cfi_restore 30
	blr
	.cfi_endproc
.LFE1473:
	.size	_ZN12GuiChecksign4DrawEv, .-_ZN12GuiChecksign4DrawEv
	.section	.text._ZN10GuiElement10ResetStateEv,"axG",@progbits,_ZN10GuiElement10ResetStateEv,comdat
	.align 2
	.weak	_ZN10GuiElement10ResetStateEv
	.type	_ZN10GuiElement10ResetStateEv, @function
_ZN10GuiElement10ResetStateEv:
.LFB1402:
	.loc 2 183 0
	.cfi_startproc
.LVL220:
	mflr 0
	stwu 1,-8(1)
.LCFI39:
	.cfi_def_cfa_offset 8
	.cfi_register 65, 0
	stw 0,12(1)
	.loc 2 185 0
	lwz 0,72(3)
	.cfi_offset 65, 4
	cmpwi 7,0,4
	beq- 7,.L136
.LVL221:
.LBB1481:
.LBB1482:
	.loc 2 186 0
	lwz 9,0(3)
	li 4,0
	li 5,-1
	lwz 0,80(9)
	mtctr 0
	bctrl
.LVL222:
.L136:
.LBE1482:
.LBE1481:
	.loc 2 187 0
	lwz 0,12(1)
	addi 1,1,8
.LCFI40:
	.cfi_def_cfa_offset 0
	mtlr 0
	blr
	.cfi_endproc
.LFE1402:
	.size	_ZN10GuiElement10ResetStateEv, .-_ZN10GuiElement10ResetStateEv
	.section	.text._ZNSt8_Rb_treeIPN7sigslot12_signal_baseINS0_15single_threadedEEES4_St9_IdentityIS4_ESt4lessIS4_ESaIS4_EE8_M_eraseEPSt13_Rb_tree_nodeIS4_E,"axG",@progbits,_ZNSt8_Rb_treeIPN7sigslot12_signal_baseINS0_15single_threadedEEES4_St9_IdentityIS4_ESt4lessIS4_ESaIS4_EE8_M_eraseEPSt13_Rb_tree_nodeIS4_E,comdat
	.align 2
	.weak	_ZNSt8_Rb_treeIPN7sigslot12_signal_baseINS0_15single_threadedEEES4_St9_IdentityIS4_ESt4lessIS4_ESaIS4_EE8_M_eraseEPSt13_Rb_tree_nodeIS4_E
	.type	_ZNSt8_Rb_treeIPN7sigslot12_signal_baseINS0_15single_threadedEEES4_St9_IdentityIS4_ESt4lessIS4_ESaIS4_EE8_M_eraseEPSt13_Rb_tree_nodeIS4_E, @function
_ZNSt8_Rb_treeIPN7sigslot12_signal_baseINS0_15single_threadedEEES4_St9_IdentityIS4_ESt4lessIS4_ESaIS4_EE8_M_eraseEPSt13_Rb_tree_nodeIS4_E:
.LFB1678:
	.file 9 "d:\\devkitpro\\devkitppc\\bin\\../lib/gcc/powerpc-eabi/4.6.3/../../../../powerpc-eabi/include/c++/4.6.3/bits/stl_tree.h"
	.loc 9 1068 0
	.cfi_startproc
.LVL223:
	stwu 1,-56(1)
.LCFI41:
	.cfi_def_cfa_offset 56
	mflr 0
	stw 22,16(1)
.LBB1599:
	.loc 9 1072 0
	mr. 22,4
	.cfi_offset 22, -40
	.cfi_register 65, 0
.LBE1599:
	.loc 9 1068 0
	stw 30,48(1)
	mr 30,3
	.cfi_offset 30, -8
	stw 0,60(1)
	stw 21,12(1)
	stw 23,20(1)
	stw 24,24(1)
	stw 25,28(1)
	stw 26,32(1)
	stw 27,36(1)
	stw 28,40(1)
	stw 29,44(1)
	stw 31,52(1)
.LBB1684:
	.loc 9 1072 0
	beq- 0,.L138
	.cfi_offset 31, -4
	.cfi_offset 29, -12
	.cfi_offset 28, -16
	.cfi_offset 27, -20
	.cfi_offset 26, -24
	.cfi_offset 25, -28
	.cfi_offset 24, -32
	.cfi_offset 23, -36
	.cfi_offset 21, -44
	.cfi_offset 65, 4
.LVL224:
.L184:
	.loc 3 56 0
	lwz 27,12(22)
.LVL225:
.LBB1600:
.LBB1601:
.LBB1602:
	.loc 9 1072 0
	cmpwi 7,27,0
	beq- 7,.L140
.LVL226:
.L185:
.LBE1602:
	.loc 3 56 0
	lwz 26,12(27)
.LVL227:
.LBB1678:
.LBB1603:
.LBB1604:
.LBB1605:
	.loc 9 1072 0
	cmpwi 7,26,0
	beq- 7,.L141
.LVL228:
.L186:
.LBE1605:
	.loc 3 56 0
	lwz 25,12(26)
.LVL229:
.LBB1671:
.LBB1606:
.LBB1607:
.LBB1608:
	.loc 9 1072 0
	cmpwi 7,25,0
	beq- 7,.L142
.LVL230:
.L187:
.LBE1608:
	.loc 3 56 0
	lwz 24,12(25)
.LVL231:
.LBB1664:
.LBB1609:
.LBB1610:
.LBB1611:
	.loc 9 1072 0
	cmpwi 7,24,0
	beq- 7,.L143
.LVL232:
.L188:
.LBE1611:
	.loc 3 56 0
	lwz 23,12(24)
.LVL233:
.LBB1657:
.LBB1612:
.LBB1613:
.LBB1614:
	.loc 9 1072 0
	cmpwi 7,23,0
	beq- 7,.L144
.LVL234:
.L189:
.LBE1614:
	.loc 3 56 0
	lwz 28,12(23)
.LVL235:
.LBB1650:
.LBB1615:
.LBB1616:
.LBB1617:
	.loc 9 1072 0
	cmpwi 7,28,0
	beq- 7,.L145
.LVL236:
.L190:
.LBE1617:
	.loc 3 56 0
	lwz 29,12(28)
.LVL237:
.LBB1643:
.LBB1618:
.LBB1619:
.LBB1620:
	.loc 9 1072 0
	cmpwi 7,29,0
	beq- 7,.L146
.LVL238:
.L191:
.LBE1620:
	.loc 3 56 0
	lwz 31,12(29)
.LVL239:
.LBB1636:
.LBB1621:
.LBB1622:
.LBB1623:
	.loc 9 1072 0
	cmpwi 7,31,0
	beq- 7,.L147
.LVL240:
.L192:
.LBB1624:
	.loc 9 1074 0
	lwz 4,12(31)
	mr 3,30
	bl _ZNSt8_Rb_treeIPN7sigslot12_signal_baseINS0_15single_threadedEEES4_St9_IdentityIS4_ESt4lessIS4_ESaIS4_EE8_M_eraseEPSt13_Rb_tree_nodeIS4_E
.LBE1624:
.LBE1623:
	.loc 3 56 0
	lwz 21,8(31)
.LVL241:
.LBB1630:
.LBB1629:
.LBB1625:
.LBB1626:
.LBB1627:
.LBB1628:
	.loc 7 98 0
	mr 3,31
	bl _ZdlPv
.LVL242:
.LBE1628:
.LBE1627:
.LBE1626:
.LBE1625:
.LBE1629:
	.loc 9 1072 0
	cmpwi 7,21,0
	.loc 9 1077 0
	mr 31,21
.LVL243:
	.loc 9 1072 0
	bne+ 7,.L192
.LVL244:
.L147:
.LBE1630:
.LBE1622:
.LBE1621:
.LBE1636:
	.loc 3 56 0
	lwz 31,8(29)
.LVL245:
.LBB1637:
.LBB1635:
.LBB1631:
.LBB1632:
.LBB1633:
.LBB1634:
	.loc 7 98 0
	mr 3,29
	bl _ZdlPv
.LVL246:
.LBE1634:
.LBE1633:
.LBE1632:
.LBE1631:
.LBE1635:
	.loc 9 1072 0
	cmpwi 7,31,0
	beq- 7,.L146
	.loc 9 1077 0
	mr 29,31
.LVL247:
	b .L191
.LVL248:
.L146:
.LBE1637:
.LBE1619:
.LBE1618:
.LBE1643:
	.loc 3 56 0
	lwz 31,8(28)
.LVL249:
.LBB1644:
.LBB1642:
.LBB1638:
.LBB1639:
.LBB1640:
.LBB1641:
	.loc 7 98 0
	mr 3,28
	bl _ZdlPv
.LVL250:
.LBE1641:
.LBE1640:
.LBE1639:
.LBE1638:
.LBE1642:
	.loc 9 1072 0
	cmpwi 7,31,0
	beq- 7,.L145
	.loc 9 1077 0
	mr 28,31
.LVL251:
	b .L190
.LVL252:
.L145:
.LBE1644:
.LBE1616:
.LBE1615:
.LBE1650:
	.loc 3 56 0
	lwz 31,8(23)
.LVL253:
.LBB1651:
.LBB1649:
.LBB1645:
.LBB1646:
.LBB1647:
.LBB1648:
	.loc 7 98 0
	mr 3,23
	bl _ZdlPv
.LVL254:
.LBE1648:
.LBE1647:
.LBE1646:
.LBE1645:
.LBE1649:
	.loc 9 1072 0
	cmpwi 7,31,0
	beq- 7,.L144
	.loc 9 1077 0
	mr 23,31
.LVL255:
	b .L189
.LVL256:
.L144:
.LBE1651:
.LBE1613:
.LBE1612:
.LBE1657:
	.loc 3 56 0
	lwz 31,8(24)
.LVL257:
.LBB1658:
.LBB1656:
.LBB1652:
.LBB1653:
.LBB1654:
.LBB1655:
	.loc 7 98 0
	mr 3,24
	bl _ZdlPv
.LVL258:
.LBE1655:
.LBE1654:
.LBE1653:
.LBE1652:
.LBE1656:
	.loc 9 1072 0
	cmpwi 7,31,0
	beq- 7,.L143
	.loc 9 1077 0
	mr 24,31
.LVL259:
	b .L188
.LVL260:
.L143:
.LBE1658:
.LBE1610:
.LBE1609:
.LBE1664:
	.loc 3 56 0
	lwz 31,8(25)
.LVL261:
.LBB1665:
.LBB1663:
.LBB1659:
.LBB1660:
.LBB1661:
.LBB1662:
	.loc 7 98 0
	mr 3,25
	bl _ZdlPv
.LVL262:
.LBE1662:
.LBE1661:
.LBE1660:
.LBE1659:
.LBE1663:
	.loc 9 1072 0
	cmpwi 7,31,0
	beq- 7,.L142
	.loc 9 1077 0
	mr 25,31
.LVL263:
	b .L187
.LVL264:
.L142:
.LBE1665:
.LBE1607:
.LBE1606:
.LBE1671:
	.loc 3 56 0
	lwz 31,8(26)
.LVL265:
.LBB1672:
.LBB1670:
.LBB1666:
.LBB1667:
.LBB1668:
.LBB1669:
	.loc 7 98 0
	mr 3,26
	bl _ZdlPv
.LVL266:
.LBE1669:
.LBE1668:
.LBE1667:
.LBE1666:
.LBE1670:
	.loc 9 1072 0
	cmpwi 7,31,0
	beq- 7,.L141
	.loc 9 1077 0
	mr 26,31
.LVL267:
	b .L186
.LVL268:
.L141:
.LBE1672:
.LBE1604:
.LBE1603:
.LBE1678:
	.loc 3 56 0
	lwz 31,8(27)
.LVL269:
.LBB1679:
.LBB1677:
.LBB1673:
.LBB1674:
.LBB1675:
.LBB1676:
	.loc 7 98 0
	mr 3,27
	bl _ZdlPv
.LVL270:
.LBE1676:
.LBE1675:
.LBE1674:
.LBE1673:
.LBE1677:
	.loc 9 1072 0
	cmpwi 7,31,0
	beq- 7,.L140
	.loc 9 1077 0
	mr 27,31
.LVL271:
	b .L185
.LVL272:
.L140:
	.loc 3 56 0
	lwz 31,8(22)
.LVL273:
.LBE1679:
.LBE1601:
.LBB1680:
.LBB1681:
.LBB1682:
.LBB1683:
	.loc 7 98 0
	mr 3,22
	bl _ZdlPv
.LVL274:
.LBE1683:
.LBE1682:
.LBE1681:
.LBE1680:
.LBE1600:
	.loc 9 1072 0
	cmpwi 7,31,0
	beq- 7,.L138
	.loc 9 1077 0
	mr 22,31
.LVL275:
	b .L184
.LVL276:
.L138:
.LBE1684:
	.loc 9 1079 0
	lwz 0,60(1)
	lwz 21,12(1)
	mtlr 0
	lwz 22,16(1)
	lwz 23,20(1)
	lwz 24,24(1)
	lwz 25,28(1)
	lwz 26,32(1)
	lwz 27,36(1)
	lwz 28,40(1)
	lwz 29,44(1)
	lwz 30,48(1)
.LVL277:
	lwz 31,52(1)
	addi 1,1,56
.LCFI42:
	.cfi_def_cfa_offset 0
	.cfi_restore 31
	.cfi_restore 30
	.cfi_restore 29
	.cfi_restore 28
	.cfi_restore 27
	.cfi_restore 26
	.cfi_restore 25
	.cfi_restore 24
	.cfi_restore 23
	.cfi_restore 22
	.cfi_restore 21
	blr
	.cfi_endproc
.LFE1678:
	.size	_ZNSt8_Rb_treeIPN7sigslot12_signal_baseINS0_15single_threadedEEES4_St9_IdentityIS4_ESt4lessIS4_ESaIS4_EE8_M_eraseEPSt13_Rb_tree_nodeIS4_E, .-_ZNSt8_Rb_treeIPN7sigslot12_signal_baseINS0_15single_threadedEEES4_St9_IdentityIS4_ESt4lessIS4_ESaIS4_EE8_M_eraseEPSt13_Rb_tree_nodeIS4_E
	.section	.text._ZNSt8_Rb_treeIPN7sigslot12_signal_baseINS0_15single_threadedEEES4_St9_IdentityIS4_ESt4lessIS4_ESaIS4_EE5eraseERKS4_,"axG",@progbits,_ZNSt8_Rb_treeIPN7sigslot12_signal_baseINS0_15single_threadedEEES4_St9_IdentityIS4_ESt4lessIS4_ESaIS4_EE5eraseERKS4_,comdat
	.align 2
	.weak	_ZNSt8_Rb_treeIPN7sigslot12_signal_baseINS0_15single_threadedEEES4_St9_IdentityIS4_ESt4lessIS4_ESaIS4_EE5eraseERKS4_
	.type	_ZNSt8_Rb_treeIPN7sigslot12_signal_baseINS0_15single_threadedEEES4_St9_IdentityIS4_ESt4lessIS4_ESaIS4_EE5eraseERKS4_, @function
_ZNSt8_Rb_treeIPN7sigslot12_signal_baseINS0_15single_threadedEEES4_St9_IdentityIS4_ESt4lessIS4_ESaIS4_EE5eraseERKS4_:
.LFB1622:
	.loc 9 1510 0
	.cfi_startproc
.LVL278:
	mflr 0
	stwu 1,-32(1)
.LCFI43:
	.cfi_def_cfa_offset 32
	.cfi_register 65, 0
	stw 28,16(1)
.LBB1685:
.LBB1686:
	.loc 9 1155 0
	addi 28,3,4
	.cfi_offset 28, -16
.LBE1686:
.LBE1685:
	.loc 9 1510 0
	stw 0,36(1)
	stw 26,8(1)
.LBB1742:
.LBB1707:
.LBB1687:
	.loc 9 1155 0
	mr 26,28
	.cfi_offset 26, -24
	.cfi_offset 65, 4
.LBE1687:
	.loc 3 56 0
	lwz 0,8(3)
.LBE1707:
.LBE1742:
	.loc 9 1510 0
	stw 29,20(1)
.LBB1743:
.LBB1708:
.LBB1700:
	.loc 9 1155 0
	mr 29,28
	.cfi_offset 29, -12
	.loc 9 1156 0
	cmpwi 7,0,0
.LBE1700:
.LBE1708:
.LBE1743:
	.loc 9 1510 0
	stw 30,24(1)
	stw 27,12(1)
	mr 30,3
	.cfi_offset 27, -20
	.cfi_offset 30, -8
.LVL279:
	stw 31,28(1)
.LBB1744:
.LBB1709:
.LBB1701:
	.loc 9 1156 0
	beq- 7,.L194
	.cfi_offset 31, -4
	lwz 11,0(4)
	mr 26,0
	b .L205
.LVL280:
.L224:
.LBE1701:
	.loc 3 56 0
	lwz 26,12(26)
.LVL281:
.LBB1702:
	.loc 9 1156 0
	cmpwi 7,26,0
	beq- 7,.L223
.L205:
.LVL282:
.LBE1702:
	.loc 3 56 0
	lwz 9,16(26)
.LBB1703:
.LBB1688:
	.loc 9 1158 0
	cmplw 7,9,11
	blt- 7,.L224
.LVL283:
.LBB1689:
	.loc 9 1160 0
	ble- 7,.L197
.LVL284:
.LBE1689:
.LBE1688:
.LBE1703:
	.loc 3 56 0
	mr 29,26
	.loc 9 1161 0
	lwz 26,8(26)
.LVL285:
.LBB1704:
	.loc 9 1156 0
	cmpwi 7,26,0
	bne+ 7,.L205
.LVL286:
.L223:
	mr 26,29
.LVL287:
.L194:
.LBE1704:
.LBE1709:
.LBB1710:
.LBB1711:
	.loc 3 56 0
	lwz 9,12(30)
.LBE1711:
.LBE1710:
.LBB1738:
.LBB1705:
	lwz 27,20(30)
.LVL288:
.LBE1705:
.LBE1738:
.LBB1739:
.LBB1736:
.LBB1712:
	.loc 9 1500 0
	cmpw 7,9,26
	beq- 7,.L206
.L210:
.LVL289:
	.loc 9 1503 0
	cmpw 7,26,29
	beq- 7,.L225
.LVL290:
.L221:
.LBB1713:
.LBB1714:
	.loc 9 277 0
	mr 3,26
	bl _ZSt18_Rb_tree_incrementPKSt18_Rb_tree_node_base
.LBE1714:
.LBE1713:
.LBB1716:
.LBB1717:
.LBB1718:
	.loc 9 1489 0
	mr 4,28
.LBE1718:
.LBE1717:
.LBE1716:
.LBB1729:
.LBB1715:
	.loc 9 277 0
	mr 31,3
.LVL291:
.LBE1715:
.LBE1729:
.LBB1730:
.LBB1726:
.LBB1723:
	.loc 9 1489 0
	mr 3,26
.LVL292:
	bl _ZSt28_Rb_tree_rebalance_for_erasePSt18_Rb_tree_node_baseRS_
.LBE1723:
.LBE1726:
.LBE1730:
	.loc 9 277 0
	mr 26,31
.LVL293:
.LBB1731:
.LBB1727:
.LBB1724:
.LBB1719:
.LBB1720:
.LBB1721:
.LBB1722:
	.loc 7 98 0
	bl _ZdlPv
.LBE1722:
.LBE1721:
.LBE1720:
.LBE1719:
.LBE1724:
.LBE1727:
.LBE1731:
	.loc 9 1503 0
	cmpw 7,31,29
.LBB1732:
.LBB1728:
.LBB1725:
	.loc 9 1491 0
	lwz 9,20(30)
	addi 0,9,-1
	stw 0,20(30)
.LBE1725:
.LBE1728:
.LBE1732:
	.loc 9 1503 0
	bne+ 7,.L221
	subf 27,0,27
.LVL294:
.L208:
.LBE1712:
.LBE1736:
.LBE1739:
.LBE1744:
	.loc 9 1517 0
	lwz 0,36(1)
	mr 3,27
	lwz 26,8(1)
	mtlr 0
	lwz 27,12(1)
	lwz 28,16(1)
	lwz 29,20(1)
.LVL295:
	lwz 30,24(1)
.LVL296:
	lwz 31,28(1)
	addi 1,1,32
	.cfi_remember_state
.LCFI44:
	.cfi_def_cfa_offset 0
	.cfi_restore 31
	.cfi_restore 30
	.cfi_restore 29
	.cfi_restore 28
	.cfi_restore 27
	.cfi_restore 26
	blr
.LVL297:
.L197:
.LCFI45:
	.cfi_restore_state
.LBB1745:
.LBB1740:
	.loc 3 56 0
	lwz 10,8(26)
.LVL298:
	lwz 9,12(26)
.LVL299:
.L222:
.LBB1706:
.LBB1699:
.LBB1698:
.LBB1690:
.LBB1691:
.LBB1692:
	.loc 9 1089 0
	cmpwi 7,10,0
	beq- 7,.L198
.L226:
.LVL300:
	.loc 9 1090 0
	lwz 8,16(10)
	cmplw 7,8,11
	blt- 7,.L199
.LVL301:
.LBE1692:
	.loc 3 56 0
	mr 26,10
	.loc 9 1091 0
	lwz 10,8(10)
.LVL302:
.LBB1693:
	.loc 9 1089 0
	cmpwi 7,10,0
	bne+ 7,.L226
.LVL303:
.L198:
.LBE1693:
.LBE1691:
.LBB1694:
.LBB1695:
	.loc 9 1121 0
	cmpwi 7,9,0
	beq- 7,.L194
.LVL304:
	.loc 9 1122 0
	lwz 10,16(9)
	cmplw 7,10,11
	ble- 7,.L202
.LVL305:
.L227:
.LBE1695:
	.loc 3 56 0
	mr 29,9
	.loc 9 1123 0
	lwz 9,8(9)
.LVL306:
.LBB1696:
	.loc 9 1121 0
	cmpwi 7,9,0
	beq- 7,.L194
.LVL307:
	.loc 9 1122 0
	lwz 10,16(9)
	cmplw 7,10,11
	bgt- 7,.L227
.LVL308:
.L202:
.LBE1696:
	.loc 3 56 0
	lwz 9,12(9)
.LVL309:
	b .L198
.LVL310:
.L199:
.LBE1694:
.LBB1697:
	lwz 10,12(10)
.LVL311:
	b .L222
.LVL312:
.L206:
.LBE1697:
.LBE1690:
.LBE1698:
.LBE1699:
.LBE1706:
.LBE1740:
.LBB1741:
.LBB1737:
.LBB1735:
	.loc 9 1500 0
	cmpw 7,28,29
	bne+ 7,.L210
.LVL313:
.LBB1733:
.LBB1734:
	.loc 9 809 0
	mr 4,0
.LVL314:
	mr 3,30
.LVL315:
	bl _ZNSt8_Rb_treeIPN7sigslot12_signal_baseINS0_15single_threadedEEES4_St9_IdentityIS4_ESt4lessIS4_ESaIS4_EE8_M_eraseEPSt13_Rb_tree_nodeIS4_E
.LVL316:
	.loc 9 811 0
	li 0,0
	.loc 9 810 0
	stw 28,12(30)
.LVL317:
	.loc 9 811 0
	stw 0,8(30)
.LVL318:
	.loc 9 812 0
	stw 28,16(30)
	.loc 9 813 0
	stw 0,20(30)
	b .L208
.LVL319:
.L225:
.LBE1734:
.LBE1733:
	.loc 9 1503 0
	li 27,0
	b .L208
.LBE1735:
.LBE1737:
.LBE1741:
.LBE1745:
	.cfi_endproc
.LFE1622:
	.size	_ZNSt8_Rb_treeIPN7sigslot12_signal_baseINS0_15single_threadedEEES4_St9_IdentityIS4_ESt4lessIS4_ESaIS4_EE5eraseERKS4_, .-_ZNSt8_Rb_treeIPN7sigslot12_signal_baseINS0_15single_threadedEEES4_St9_IdentityIS4_ESt4lessIS4_ESaIS4_EE5eraseERKS4_
	.section	.text._ZN7sigslot13_signal_base3IP10GuiElementiiNS_15single_threadedEED0Ev,"axG",@progbits,_ZN7sigslot13_signal_base3IP10GuiElementiiNS_15single_threadedEED5Ev,comdat
	.align 2
	.weak	_ZN7sigslot13_signal_base3IP10GuiElementiiNS_15single_threadedEED0Ev
	.type	_ZN7sigslot13_signal_base3IP10GuiElementiiNS_15single_threadedEED0Ev, @function
_ZN7sigslot13_signal_base3IP10GuiElementiiNS_15single_threadedEED0Ev:
.LFB1518:
	.loc 1 943 0
	.cfi_startproc
	.cfi_personality 0,__gxx_personality_v0
	.cfi_lsda 0,.LLSDA1518
.LVL320:
	mflr 0
	stwu 1,-40(1)
.LCFI46:
	.cfi_def_cfa_offset 40
	.cfi_register 65, 0
.LBB1841:
.LBB1842:
.LBB1843:
	.loc 1 946 0
	lis 9,_ZTVN7sigslot13_signal_base3IP10GuiElementiiNS_15single_threadedEEE+8@ha
.LBE1843:
.LBE1842:
.LBE1841:
	.loc 1 943 0
	stw 28,24(1)
	mr 28,3
	.cfi_offset 28, -16
.LVL321:
	stw 0,44(1)
.LBB1928:
.LBB1924:
.LBB1920:
	.loc 1 946 0
	la 0,_ZTVN7sigslot13_signal_base3IP10GuiElementiiNS_15single_threadedEEE+8@l(9)
	.cfi_offset 65, 4
.LBE1920:
.LBE1924:
.LBE1928:
	.loc 1 943 0
	stw 29,28(1)
	addi 29,3,4
	.cfi_offset 29, -12
	stw 30,32(1)
	stw 31,36(1)
.LBB1929:
.LBB1925:
.LBB1921:
	.loc 1 946 0
	stw 0,0(3)
.LVL322:
.LEHB20:
.LBB1844:
.LBB1845:
.LBB1846:
.LBB1847:
	.loc 1 338 0
	.cfi_offset 31, -4
	.cfi_offset 30, -8
	bl _ZN7sigslot15single_threaded4lockEv
.LEHE20:
.LVL323:
.LBE1847:
.LBE1846:
.LBE1845:
	.loc 3 56 0
	mr 29,28
	lwzu 31,4(29)
.LVL324:
.LBB1878:
	.loc 1 954 0
	cmpw 7,31,29
	beq- 7,.L229
.LVL325:
.L267:
	.loc 1 956 0
	lwz 3,8(31)
	lwz 9,0(3)
	lwz 0,8(9)
	mtctr 0
.LEHB21:
	bctrl
.LBB1848:
.LBB1849:
.LBB1850:
.LBB1851:
	.loc 1 338 0
	lwz 9,0(3)
.LBE1851:
.LBE1850:
.LBE1849:
.LBE1848:
	.loc 1 956 0
	mr 30,3
.LVL326:
	stw 28,8(1)
.LVL327:
.LBB1860:
.LBB1859:
.LBB1853:
.LBB1852:
	.loc 1 338 0
	lwz 0,8(9)
	mtctr 0
	bctrl
.LVL328:
.LBE1852:
.LBE1853:
.LBB1854:
.LBB1855:
	.file 10 "d:\\devkitpro\\devkitppc\\bin\\../lib/gcc/powerpc-eabi/4.6.3/../../../../powerpc-eabi/include/c++/4.6.3/bits/stl_set.h"
	.loc 10 528 0
	addi 3,30,4
	addi 4,1,8
	bl _ZNSt8_Rb_treeIPN7sigslot12_signal_baseINS0_15single_threadedEEES4_St9_IdentityIS4_ESt4lessIS4_ESaIS4_EE5eraseERKS4_
.LVL329:
.LBE1855:
.LBE1854:
.LBB1856:
.LBB1857:
.LBB1858:
	.loc 1 343 0
	lwz 9,0(30)
	mr 3,30
	lwz 0,12(9)
	mtctr 0
	bctrl
.LVL330:
.LBE1858:
.LBE1857:
.LBE1856:
.LBE1859:
.LBE1860:
	.loc 1 957 0
	lwz 3,8(31)
	cmpwi 7,3,0
	beq- 7,.L231
	lwz 9,0(3)
	lwz 0,4(9)
	mtctr 0
	bctrl
.LEHE21:
.L231:
.LVL331:
.LBB1861:
.LBB1862:
	.loc 4 234 0
	lwz 31,0(31)
.LVL332:
.LBE1862:
.LBE1861:
	.loc 1 954 0
	cmpw 7,29,31
	bne+ 7,.L267
.LBE1878:
	.loc 3 56 0
	lwz 31,4(28)
.LVL333:
.LBB1879:
.LBB1863:
.LBB1864:
	.loc 4 1162 0
	cmpw 7,29,31
	bne+ 7,.L269
	b .L229
.LVL334:
.L262:
	.loc 4 1163 0
	mr 31,30
.LVL335:
.L269:
.LBB1865:
.LBB1866:
	.file 11 "d:\\devkitpro\\devkitppc\\bin\\../lib/gcc/powerpc-eabi/4.6.3/../../../../powerpc-eabi/include/c++/4.6.3/bits/list.tcc"
	.loc 11 112 0
	lwz 30,0(31)
.LVL336:
.LBB1867:
.LBB1868:
	.loc 4 1532 0
	mr 3,31
	bl _ZNSt8__detail15_List_node_base9_M_unhookEv
.LVL337:
.LBB1869:
.LBB1870:
.LBB1871:
	.loc 7 98 0
	mr 3,31
	bl _ZdlPv
.LVL338:
.LBE1871:
.LBE1870:
.LBE1869:
.LBE1868:
.LBE1867:
.LBE1866:
.LBE1865:
	.loc 4 1162 0
	cmpw 7,29,30
	bne+ 7,.L262
.LVL339:
.L229:
.LBE1864:
.LBE1863:
.LBB1872:
.LBB1873:
.LBB1874:
	.loc 1 343 0
	lwz 9,0(28)
	mr 3,28
	lwz 0,12(9)
	mtctr 0
.LEHB22:
	bctrl
.LEHE22:
.LVL340:
.LBE1874:
.LBE1873:
.LBE1872:
.LBE1879:
.LBE1844:
.LBB1881:
.LBB1882:
.LBB1883:
.LBB1884:
.LBB1885:
.LBB1886:
	.loc 11 70 0
	lwz 3,4(28)
.LVL341:
	.loc 11 71 0
	cmpw 7,3,29
	bne+ 7,.L271
	b .L247
.LVL342:
.L263:
	.loc 11 74 0
	mr 3,31
.LVL343:
.L271:
.LBB1887:
	lwz 31,0(3)
.LVL344:
.LBB1888:
.LBB1889:
.LBB1890:
	.loc 7 98 0
	bl _ZdlPv
.LVL345:
.LBE1890:
.LBE1889:
.LBE1888:
.LBE1887:
	.loc 11 71 0
	cmpw 7,31,29
	bne+ 7,.L263
.LVL346:
.L247:
.LBE1886:
.LBE1885:
.LBE1884:
.LBE1883:
.LBE1882:
.LBE1881:
.LBB1891:
.LBB1892:
.LBB1893:
.LBB1894:
.LBB1895:
.LBB1896:
	.loc 1 105 0
	lis 9,_ZTVN7sigslot15single_threadedE+8@ha
.LBE1896:
.LBE1895:
.LBE1894:
.LBE1893:
.LBE1892:
.LBE1891:
.LBE1921:
.LBE1925:
.LBE1929:
	.loc 1 946 0
	mr 3,28
.LBB1930:
.LBB1926:
.LBB1922:
.LBB1902:
.LBB1901:
.LBB1900:
.LBB1899:
.LBB1898:
.LBB1897:
	.loc 1 105 0
	la 0,_ZTVN7sigslot15single_threadedE+8@l(9)
	stw 0,0(28)
.LBE1897:
.LBE1898:
.LBE1899:
.LBE1900:
.LBE1901:
.LBE1902:
.LBE1922:
.LBE1926:
.LBE1930:
	.loc 1 946 0
	bl _ZdlPv
	lwz 0,44(1)
	lwz 28,24(1)
.LVL347:
	mtlr 0
	lwz 29,28(1)
.LVL348:
	lwz 30,32(1)
	lwz 31,36(1)
	addi 1,1,40
	.cfi_remember_state
.LCFI47:
	.cfi_def_cfa_offset 0
	.cfi_restore 31
	.cfi_restore 30
	.cfi_restore 29
	.cfi_restore 28
	blr
.LVL349:
.L265:
.LCFI48:
	.cfi_restore_state
	mr 31,3
.L239:
.LVL350:
.LBB1931:
.LBB1927:
.LBB1923:
.LBB1903:
.LBB1904:
.LBB1905:
.LBB1906:
.LBB1907:
.LBB1908:
	.loc 11 70 0
	lwz 3,4(28)
.LVL351:
	.loc 11 71 0
	cmpw 7,3,29
	beq- 7,.L256
.LVL352:
.L272:
.LBB1909:
	.loc 11 74 0
	lwz 30,0(3)
.LVL353:
.LBB1910:
.LBB1911:
.LBB1912:
	.loc 7 98 0
	bl _ZdlPv
.LVL354:
.LBE1912:
.LBE1911:
.LBE1910:
.LBE1909:
	.loc 11 71 0
	cmpw 7,30,29
	beq- 7,.L256
	.loc 11 74 0
	mr 3,30
	b .L272
.LVL355:
.L266:
.LBE1908:
.LBE1907:
.LBE1906:
.LBE1905:
.LBE1904:
.LBE1903:
.LBB1913:
.LBB1880:
.LBB1875:
.LBB1876:
.LBB1877:
	.loc 1 343 0
	lwz 9,0(28)
	mr 31,3
.LVL356:
	mr 3,28
	lwz 0,12(9)
	mtctr 0
	bctrl
	b .L239
.LVL357:
.L256:
.LBE1877:
.LBE1876:
.LBE1875:
.LBE1880:
.LBE1913:
.LBB1914:
.LBB1915:
.LBB1916:
.LBB1917:
.LBB1918:
.LBB1919:
	.loc 1 105 0
	lis 9,_ZTVN7sigslot15single_threadedE+8@ha
	mr 3,31
	la 0,_ZTVN7sigslot15single_threadedE+8@l(9)
	stw 0,0(28)
.LEHB23:
	bl _Unwind_Resume
.LEHE23:
.LBE1919:
.LBE1918:
.LBE1917:
.LBE1916:
.LBE1915:
.LBE1914:
.LBE1923:
.LBE1927:
.LBE1931:
	.cfi_endproc
.LFE1518:
	.section	.gcc_except_table
.LLSDA1518:
	.byte	0xff
	.byte	0xff
	.byte	0x1
	.uleb128 .LLSDACSE1518-.LLSDACSB1518
.LLSDACSB1518:
	.uleb128 .LEHB20-.LFB1518
	.uleb128 .LEHE20-.LEHB20
	.uleb128 .L265-.LFB1518
	.uleb128 0
	.uleb128 .LEHB21-.LFB1518
	.uleb128 .LEHE21-.LEHB21
	.uleb128 .L266-.LFB1518
	.uleb128 0
	.uleb128 .LEHB22-.LFB1518
	.uleb128 .LEHE22-.LEHB22
	.uleb128 .L265-.LFB1518
	.uleb128 0
	.uleb128 .LEHB23-.LFB1518
	.uleb128 .LEHE23-.LEHB23
	.uleb128 0
	.uleb128 0
.LLSDACSE1518:
	.section	.text._ZN7sigslot13_signal_base3IP10GuiElementiiNS_15single_threadedEED0Ev,"axG",@progbits,_ZN7sigslot13_signal_base3IP10GuiElementiiNS_15single_threadedEED5Ev,comdat
	.size	_ZN7sigslot13_signal_base3IP10GuiElementiiNS_15single_threadedEED0Ev, .-_ZN7sigslot13_signal_base3IP10GuiElementiiNS_15single_threadedEED0Ev
	.section	.text._ZN7sigslot13_signal_base2IP10GuiElementbNS_15single_threadedEED0Ev,"axG",@progbits,_ZN7sigslot13_signal_base2IP10GuiElementbNS_15single_threadedEED5Ev,comdat
	.align 2
	.weak	_ZN7sigslot13_signal_base2IP10GuiElementbNS_15single_threadedEED0Ev
	.type	_ZN7sigslot13_signal_base2IP10GuiElementbNS_15single_threadedEED0Ev, @function
_ZN7sigslot13_signal_base2IP10GuiElementbNS_15single_threadedEED0Ev:
.LFB1511:
	.loc 1 823 0
	.cfi_startproc
	.cfi_personality 0,__gxx_personality_v0
	.cfi_lsda 0,.LLSDA1511
.LVL358:
	mflr 0
	stwu 1,-40(1)
.LCFI49:
	.cfi_def_cfa_offset 40
	.cfi_register 65, 0
.LBB2027:
.LBB2028:
.LBB2029:
	.loc 1 826 0
	lis 9,_ZTVN7sigslot13_signal_base2IP10GuiElementbNS_15single_threadedEEE+8@ha
.LBE2029:
.LBE2028:
.LBE2027:
	.loc 1 823 0
	stw 28,24(1)
	mr 28,3
	.cfi_offset 28, -16
.LVL359:
	stw 0,44(1)
.LBB2114:
.LBB2110:
.LBB2106:
	.loc 1 826 0
	la 0,_ZTVN7sigslot13_signal_base2IP10GuiElementbNS_15single_threadedEEE+8@l(9)
	.cfi_offset 65, 4
.LBE2106:
.LBE2110:
.LBE2114:
	.loc 1 823 0
	stw 29,28(1)
	addi 29,3,4
	.cfi_offset 29, -12
	stw 30,32(1)
	stw 31,36(1)
.LBB2115:
.LBB2111:
.LBB2107:
	.loc 1 826 0
	stw 0,0(3)
.LVL360:
.LEHB24:
.LBB2030:
.LBB2031:
.LBB2032:
.LBB2033:
	.loc 1 338 0
	.cfi_offset 31, -4
	.cfi_offset 30, -8
	bl _ZN7sigslot15single_threaded4lockEv
.LEHE24:
.LVL361:
.LBE2033:
.LBE2032:
.LBE2031:
	.loc 3 56 0
	mr 29,28
.LVL362:
	lwzu 31,4(29)
.LVL363:
.LBB2064:
	.loc 1 834 0
	cmpw 7,31,29
	beq- 7,.L274
.LVL364:
.L312:
	.loc 1 836 0
	lwz 3,8(31)
	lwz 9,0(3)
	lwz 0,8(9)
	mtctr 0
.LEHB25:
	bctrl
.LBB2034:
.LBB2035:
.LBB2036:
.LBB2037:
	.loc 1 338 0
	lwz 9,0(3)
.LBE2037:
.LBE2036:
.LBE2035:
.LBE2034:
	.loc 1 836 0
	mr 30,3
.LVL365:
	stw 28,8(1)
.LVL366:
.LBB2046:
.LBB2045:
.LBB2039:
.LBB2038:
	.loc 1 338 0
	lwz 0,8(9)
	mtctr 0
	bctrl
.LVL367:
.LBE2038:
.LBE2039:
.LBB2040:
.LBB2041:
	.loc 10 528 0
	addi 3,30,4
	addi 4,1,8
	bl _ZNSt8_Rb_treeIPN7sigslot12_signal_baseINS0_15single_threadedEEES4_St9_IdentityIS4_ESt4lessIS4_ESaIS4_EE5eraseERKS4_
.LVL368:
.LBE2041:
.LBE2040:
.LBB2042:
.LBB2043:
.LBB2044:
	.loc 1 343 0
	lwz 9,0(30)
	mr 3,30
	lwz 0,12(9)
	mtctr 0
	bctrl
.LVL369:
.LBE2044:
.LBE2043:
.LBE2042:
.LBE2045:
.LBE2046:
	.loc 1 837 0
	lwz 3,8(31)
	cmpwi 7,3,0
	beq- 7,.L276
	lwz 9,0(3)
	lwz 0,4(9)
	mtctr 0
	bctrl
.LEHE25:
.L276:
.LVL370:
.LBB2047:
.LBB2048:
	.loc 4 234 0
	lwz 31,0(31)
.LVL371:
.LBE2048:
.LBE2047:
	.loc 1 834 0
	cmpw 7,29,31
	bne+ 7,.L312
.LBE2064:
	.loc 3 56 0
	lwz 31,4(28)
.LVL372:
.LBB2065:
.LBB2049:
.LBB2050:
	.loc 4 1162 0
	cmpw 7,29,31
	bne+ 7,.L314
	b .L274
.LVL373:
.L307:
	.loc 4 1163 0
	mr 31,30
.LVL374:
.L314:
.LBB2051:
.LBB2052:
	.loc 11 112 0
	lwz 30,0(31)
.LVL375:
.LBB2053:
.LBB2054:
	.loc 4 1532 0
	mr 3,31
	bl _ZNSt8__detail15_List_node_base9_M_unhookEv
.LVL376:
.LBB2055:
.LBB2056:
.LBB2057:
	.loc 7 98 0
	mr 3,31
	bl _ZdlPv
.LVL377:
.LBE2057:
.LBE2056:
.LBE2055:
.LBE2054:
.LBE2053:
.LBE2052:
.LBE2051:
	.loc 4 1162 0
	cmpw 7,29,30
	bne+ 7,.L307
.LVL378:
.L274:
.LBE2050:
.LBE2049:
.LBB2058:
.LBB2059:
.LBB2060:
	.loc 1 343 0
	lwz 9,0(28)
	mr 3,28
	lwz 0,12(9)
	mtctr 0
.LEHB26:
	bctrl
.LEHE26:
.LVL379:
.LBE2060:
.LBE2059:
.LBE2058:
.LBE2065:
.LBE2030:
.LBB2067:
.LBB2068:
.LBB2069:
.LBB2070:
.LBB2071:
.LBB2072:
	.loc 11 70 0
	lwz 3,4(28)
.LVL380:
	.loc 11 71 0
	cmpw 7,3,29
	bne+ 7,.L316
	b .L292
.LVL381:
.L308:
	.loc 11 74 0
	mr 3,31
.LVL382:
.L316:
.LBB2073:
	lwz 31,0(3)
.LVL383:
.LBB2074:
.LBB2075:
.LBB2076:
	.loc 7 98 0
	bl _ZdlPv
.LVL384:
.LBE2076:
.LBE2075:
.LBE2074:
.LBE2073:
	.loc 11 71 0
	cmpw 7,31,29
	bne+ 7,.L308
.LVL385:
.L292:
.LBE2072:
.LBE2071:
.LBE2070:
.LBE2069:
.LBE2068:
.LBE2067:
.LBB2077:
.LBB2078:
.LBB2079:
.LBB2080:
.LBB2081:
.LBB2082:
	.loc 1 105 0
	lis 9,_ZTVN7sigslot15single_threadedE+8@ha
.LBE2082:
.LBE2081:
.LBE2080:
.LBE2079:
.LBE2078:
.LBE2077:
.LBE2107:
.LBE2111:
.LBE2115:
	.loc 1 826 0
	mr 3,28
.LBB2116:
.LBB2112:
.LBB2108:
.LBB2088:
.LBB2087:
.LBB2086:
.LBB2085:
.LBB2084:
.LBB2083:
	.loc 1 105 0
	la 0,_ZTVN7sigslot15single_threadedE+8@l(9)
	stw 0,0(28)
.LBE2083:
.LBE2084:
.LBE2085:
.LBE2086:
.LBE2087:
.LBE2088:
.LBE2108:
.LBE2112:
.LBE2116:
	.loc 1 826 0
	bl _ZdlPv
	lwz 0,44(1)
	lwz 28,24(1)
.LVL386:
	mtlr 0
	lwz 29,28(1)
.LVL387:
	lwz 30,32(1)
	lwz 31,36(1)
	addi 1,1,40
	.cfi_remember_state
.LCFI50:
	.cfi_def_cfa_offset 0
	.cfi_restore 31
	.cfi_restore 30
	.cfi_restore 29
	.cfi_restore 28
	blr
.LVL388:
.L310:
.LCFI51:
	.cfi_restore_state
	mr 31,3
.L284:
.LVL389:
.LBB2117:
.LBB2113:
.LBB2109:
.LBB2089:
.LBB2090:
.LBB2091:
.LBB2092:
.LBB2093:
.LBB2094:
	.loc 11 70 0
	lwz 3,4(28)
.LVL390:
	.loc 11 71 0
	cmpw 7,3,29
	beq- 7,.L301
.LVL391:
.L317:
.LBB2095:
	.loc 11 74 0
	lwz 30,0(3)
.LVL392:
.LBB2096:
.LBB2097:
.LBB2098:
	.loc 7 98 0
	bl _ZdlPv
.LVL393:
.LBE2098:
.LBE2097:
.LBE2096:
.LBE2095:
	.loc 11 71 0
	cmpw 7,30,29
	beq- 7,.L301
	.loc 11 74 0
	mr 3,30
	b .L317
.LVL394:
.L311:
.LBE2094:
.LBE2093:
.LBE2092:
.LBE2091:
.LBE2090:
.LBE2089:
.LBB2099:
.LBB2066:
.LBB2061:
.LBB2062:
.LBB2063:
	.loc 1 343 0
	lwz 9,0(28)
	mr 31,3
.LVL395:
	mr 3,28
	lwz 0,12(9)
	mtctr 0
	bctrl
	b .L284
.LVL396:
.L301:
.LBE2063:
.LBE2062:
.LBE2061:
.LBE2066:
.LBE2099:
.LBB2100:
.LBB2101:
.LBB2102:
.LBB2103:
.LBB2104:
.LBB2105:
	.loc 1 105 0
	lis 9,_ZTVN7sigslot15single_threadedE+8@ha
	mr 3,31
	la 0,_ZTVN7sigslot15single_threadedE+8@l(9)
	stw 0,0(28)
.LEHB27:
	bl _Unwind_Resume
.LEHE27:
.LBE2105:
.LBE2104:
.LBE2103:
.LBE2102:
.LBE2101:
.LBE2100:
.LBE2109:
.LBE2113:
.LBE2117:
	.cfi_endproc
.LFE1511:
	.section	.gcc_except_table
.LLSDA1511:
	.byte	0xff
	.byte	0xff
	.byte	0x1
	.uleb128 .LLSDACSE1511-.LLSDACSB1511
.LLSDACSB1511:
	.uleb128 .LEHB24-.LFB1511
	.uleb128 .LEHE24-.LEHB24
	.uleb128 .L310-.LFB1511
	.uleb128 0
	.uleb128 .LEHB25-.LFB1511
	.uleb128 .LEHE25-.LEHB25
	.uleb128 .L311-.LFB1511
	.uleb128 0
	.uleb128 .LEHB26-.LFB1511
	.uleb128 .LEHE26-.LEHB26
	.uleb128 .L310-.LFB1511
	.uleb128 0
	.uleb128 .LEHB27-.LFB1511
	.uleb128 .LEHE27-.LEHB27
	.uleb128 0
	.uleb128 0
.LLSDACSE1511:
	.section	.text._ZN7sigslot13_signal_base2IP10GuiElementbNS_15single_threadedEED0Ev,"axG",@progbits,_ZN7sigslot13_signal_base2IP10GuiElementbNS_15single_threadedEED5Ev,comdat
	.size	_ZN7sigslot13_signal_base2IP10GuiElementbNS_15single_threadedEED0Ev, .-_ZN7sigslot13_signal_base2IP10GuiElementbNS_15single_threadedEED0Ev
	.section	.text._ZN7sigslot13_signal_base3IP10GuiElementiiNS_15single_threadedEED2Ev,"axG",@progbits,_ZN7sigslot13_signal_base3IP10GuiElementiiNS_15single_threadedEED5Ev,comdat
	.align 2
	.weak	_ZN7sigslot13_signal_base3IP10GuiElementiiNS_15single_threadedEED2Ev
	.type	_ZN7sigslot13_signal_base3IP10GuiElementiiNS_15single_threadedEED2Ev, @function
_ZN7sigslot13_signal_base3IP10GuiElementiiNS_15single_threadedEED2Ev:
.LFB1516:
	.loc 1 943 0
	.cfi_startproc
	.cfi_personality 0,__gxx_personality_v0
	.cfi_lsda 0,.LLSDA1516
.LVL397:
	mflr 0
	stwu 1,-40(1)
.LCFI52:
	.cfi_def_cfa_offset 40
	.cfi_register 65, 0
.LBB2264:
	.loc 1 946 0
	lis 9,_ZTVN7sigslot13_signal_base3IP10GuiElementiiNS_15single_threadedEEE+8@ha
.LBE2264:
	.loc 1 943 0
	stw 28,24(1)
	mr 28,3
	.cfi_offset 28, -16
	stw 0,44(1)
.LBB2347:
	.loc 1 946 0
	la 0,_ZTVN7sigslot13_signal_base3IP10GuiElementiiNS_15single_threadedEEE+8@l(9)
	.cfi_offset 65, 4
.LBE2347:
	.loc 1 943 0
	stw 29,28(1)
	addi 29,3,4
	.cfi_offset 29, -12
	stw 30,32(1)
	stw 31,36(1)
.LBB2348:
	.loc 1 946 0
	stw 0,0(3)
.LVL398:
.LEHB28:
.LBB2265:
.LBB2266:
.LBB2267:
.LBB2268:
	.loc 1 338 0
	.cfi_offset 31, -4
	.cfi_offset 30, -8
	bl _ZN7sigslot15single_threaded4lockEv
.LEHE28:
.LVL399:
.LBE2268:
.LBE2267:
.LBE2266:
	.loc 3 56 0
	mr 29,28
	lwzu 31,4(29)
.LVL400:
.LBB2299:
	.loc 1 954 0
	cmpw 7,31,29
	beq- 7,.L319
.LVL401:
.L356:
	.loc 1 956 0
	lwz 3,8(31)
	lwz 9,0(3)
	lwz 0,8(9)
	mtctr 0
.LEHB29:
	bctrl
.LBB2269:
.LBB2270:
.LBB2271:
.LBB2272:
	.loc 1 338 0
	lwz 9,0(3)
.LBE2272:
.LBE2271:
.LBE2270:
.LBE2269:
	.loc 1 956 0
	mr 30,3
.LVL402:
	stw 28,8(1)
.LVL403:
.LBB2281:
.LBB2280:
.LBB2274:
.LBB2273:
	.loc 1 338 0
	lwz 0,8(9)
	mtctr 0
	bctrl
.LVL404:
.LBE2273:
.LBE2274:
.LBB2275:
.LBB2276:
	.loc 10 528 0
	addi 3,30,4
	addi 4,1,8
	bl _ZNSt8_Rb_treeIPN7sigslot12_signal_baseINS0_15single_threadedEEES4_St9_IdentityIS4_ESt4lessIS4_ESaIS4_EE5eraseERKS4_
.LVL405:
.LBE2276:
.LBE2275:
.LBB2277:
.LBB2278:
.LBB2279:
	.loc 1 343 0
	lwz 9,0(30)
	mr 3,30
	lwz 0,12(9)
	mtctr 0
	bctrl
.LVL406:
.LBE2279:
.LBE2278:
.LBE2277:
.LBE2280:
.LBE2281:
	.loc 1 957 0
	lwz 3,8(31)
	cmpwi 7,3,0
	beq- 7,.L321
	lwz 9,0(3)
	lwz 0,4(9)
	mtctr 0
	bctrl
.LEHE29:
.L321:
.LVL407:
.LBB2282:
.LBB2283:
	.loc 4 234 0
	lwz 31,0(31)
.LVL408:
.LBE2283:
.LBE2282:
	.loc 1 954 0
	cmpw 7,29,31
	bne+ 7,.L356
.LBE2299:
	.loc 3 56 0
	lwz 31,4(28)
.LVL409:
.LBB2300:
.LBB2284:
.LBB2285:
	.loc 4 1162 0
	cmpw 7,29,31
	bne+ 7,.L358
	b .L319
.LVL410:
.L351:
	.loc 4 1163 0
	mr 31,30
.LVL411:
.L358:
.LBB2286:
.LBB2287:
	.loc 11 112 0
	lwz 30,0(31)
.LVL412:
.LBB2288:
.LBB2289:
	.loc 4 1532 0
	mr 3,31
	bl _ZNSt8__detail15_List_node_base9_M_unhookEv
.LVL413:
.LBB2290:
.LBB2291:
.LBB2292:
	.loc 7 98 0
	mr 3,31
	bl _ZdlPv
.LVL414:
.LBE2292:
.LBE2291:
.LBE2290:
.LBE2289:
.LBE2288:
.LBE2287:
.LBE2286:
	.loc 4 1162 0
	cmpw 7,29,30
	bne+ 7,.L351
.LVL415:
.L319:
.LBE2285:
.LBE2284:
.LBB2293:
.LBB2294:
.LBB2295:
	.loc 1 343 0
	lwz 9,0(28)
	mr 3,28
	lwz 0,12(9)
	mtctr 0
.LEHB30:
	bctrl
.LEHE30:
.LVL416:
.LBE2295:
.LBE2294:
.LBE2293:
.LBE2300:
.LBE2265:
.LBB2302:
.LBB2303:
.LBB2304:
.LBB2305:
.LBB2306:
.LBB2307:
	.loc 11 70 0
	lwz 3,4(28)
.LVL417:
	.loc 11 71 0
	cmpw 7,3,29
	bne+ 7,.L360
	b .L337
.LVL418:
.L352:
	.loc 11 74 0
	mr 3,31
.LVL419:
.L360:
.LBB2308:
	lwz 31,0(3)
.LVL420:
.LBB2309:
.LBB2310:
.LBB2311:
	.loc 7 98 0
	bl _ZdlPv
.LVL421:
.LBE2311:
.LBE2310:
.LBE2309:
.LBE2308:
	.loc 11 71 0
	cmpw 7,31,29
	bne+ 7,.L352
.LVL422:
.L337:
.LBE2307:
.LBE2306:
.LBE2305:
.LBE2304:
.LBE2303:
.LBE2302:
.LBB2312:
.LBB2313:
.LBB2314:
.LBB2315:
.LBB2316:
.LBB2317:
	.loc 1 105 0
	lis 9,_ZTVN7sigslot15single_threadedE+8@ha
.LBE2317:
.LBE2316:
.LBE2315:
.LBE2314:
.LBE2313:
.LBE2312:
.LBE2348:
	.loc 1 946 0
	lwz 29,28(1)
.LVL423:
.LBB2349:
.LBB2328:
.LBB2326:
.LBB2324:
.LBB2322:
.LBB2320:
.LBB2318:
	.loc 1 105 0
	la 0,_ZTVN7sigslot15single_threadedE+8@l(9)
.LBE2318:
.LBE2320:
.LBE2322:
.LBE2324:
.LBE2326:
.LBE2328:
.LBE2349:
	.loc 1 946 0
	lwz 30,32(1)
.LBB2350:
.LBB2329:
.LBB2327:
.LBB2325:
.LBB2323:
.LBB2321:
.LBB2319:
	.loc 1 105 0
	stw 0,0(28)
.LBE2319:
.LBE2321:
.LBE2323:
.LBE2325:
.LBE2327:
.LBE2329:
.LBE2350:
	.loc 1 946 0
	lwz 0,44(1)
	lwz 28,24(1)
.LVL424:
	mtlr 0
	lwz 31,36(1)
	addi 1,1,40
	.cfi_remember_state
.LCFI53:
	.cfi_def_cfa_offset 0
	.cfi_restore 31
	.cfi_restore 30
	.cfi_restore 29
	.cfi_restore 28
	blr
.LVL425:
.L354:
.LCFI54:
	.cfi_restore_state
	mr 31,3
.L329:
.LVL426:
.LBB2351:
.LBB2330:
.LBB2331:
.LBB2332:
.LBB2333:
.LBB2334:
.LBB2335:
	.loc 11 70 0
	lwz 3,4(28)
.LVL427:
	.loc 11 71 0
	cmpw 7,3,29
	beq- 7,.L348
.LVL428:
.L361:
.LBB2336:
	.loc 11 74 0
	lwz 30,0(3)
.LVL429:
.LBB2337:
.LBB2338:
.LBB2339:
	.loc 7 98 0
	bl _ZdlPv
.LVL430:
.LBE2339:
.LBE2338:
.LBE2337:
.LBE2336:
	.loc 11 71 0
	cmpw 7,30,29
	beq- 7,.L348
	.loc 11 74 0
	mr 3,30
	b .L361
.LVL431:
.L355:
.LBE2335:
.LBE2334:
.LBE2333:
.LBE2332:
.LBE2331:
.LBE2330:
.LBB2340:
.LBB2301:
.LBB2296:
.LBB2297:
.LBB2298:
	.loc 1 343 0
	lwz 9,0(28)
	mr 31,3
.LVL432:
	mr 3,28
	lwz 0,12(9)
	mtctr 0
	bctrl
	b .L329
.LVL433:
.L348:
.LBE2298:
.LBE2297:
.LBE2296:
.LBE2301:
.LBE2340:
.LBB2341:
.LBB2342:
.LBB2343:
.LBB2344:
.LBB2345:
.LBB2346:
	.loc 1 105 0
	lis 9,_ZTVN7sigslot15single_threadedE+8@ha
	mr 3,31
	la 0,_ZTVN7sigslot15single_threadedE+8@l(9)
	stw 0,0(28)
.LEHB31:
	bl _Unwind_Resume
.LEHE31:
.LBE2346:
.LBE2345:
.LBE2344:
.LBE2343:
.LBE2342:
.LBE2341:
.LBE2351:
	.cfi_endproc
.LFE1516:
	.section	.gcc_except_table
.LLSDA1516:
	.byte	0xff
	.byte	0xff
	.byte	0x1
	.uleb128 .LLSDACSE1516-.LLSDACSB1516
.LLSDACSB1516:
	.uleb128 .LEHB28-.LFB1516
	.uleb128 .LEHE28-.LEHB28
	.uleb128 .L354-.LFB1516
	.uleb128 0
	.uleb128 .LEHB29-.LFB1516
	.uleb128 .LEHE29-.LEHB29
	.uleb128 .L355-.LFB1516
	.uleb128 0
	.uleb128 .LEHB30-.LFB1516
	.uleb128 .LEHE30-.LEHB30
	.uleb128 .L354-.LFB1516
	.uleb128 0
	.uleb128 .LEHB31-.LFB1516
	.uleb128 .LEHE31-.LEHB31
	.uleb128 0
	.uleb128 0
.LLSDACSE1516:
	.section	.text._ZN7sigslot13_signal_base3IP10GuiElementiiNS_15single_threadedEED2Ev,"axG",@progbits,_ZN7sigslot13_signal_base3IP10GuiElementiiNS_15single_threadedEED5Ev,comdat
	.size	_ZN7sigslot13_signal_base3IP10GuiElementiiNS_15single_threadedEED2Ev, .-_ZN7sigslot13_signal_base3IP10GuiElementiiNS_15single_threadedEED2Ev
	.section	.text._ZN7sigslot7signal3IP10GuiElementiiNS_15single_threadedEED2Ev,"axG",@progbits,_ZN7sigslot7signal3IP10GuiElementiiNS_15single_threadedEED5Ev,comdat
	.align 2
	.weak	_ZN7sigslot7signal3IP10GuiElementiiNS_15single_threadedEED2Ev
	.type	_ZN7sigslot7signal3IP10GuiElementiiNS_15single_threadedEED2Ev, @function
_ZN7sigslot7signal3IP10GuiElementiiNS_15single_threadedEED2Ev:
.LFB1483:
	.loc 1 2302 0
	.cfi_startproc
	.cfi_personality 0,__gxx_personality_v0
	.cfi_lsda 0,.LLSDA1483
.LVL434:
	mflr 0
	stwu 1,-40(1)
.LCFI55:
	.cfi_def_cfa_offset 40
	.cfi_register 65, 0
.LBB2449:
.LBB2450:
.LBB2451:
.LBB2452:
	.loc 1 946 0
	lis 9,_ZTVN7sigslot13_signal_base3IP10GuiElementiiNS_15single_threadedEEE+8@ha
.LBE2452:
.LBE2451:
.LBE2450:
.LBE2449:
	.loc 1 2302 0
	stw 28,24(1)
	mr 28,3
	.cfi_offset 28, -16
.LVL435:
	stw 0,44(1)
.LBB2550:
.LBB2545:
.LBB2540:
.LBB2535:
	.loc 1 946 0
	la 0,_ZTVN7sigslot13_signal_base3IP10GuiElementiiNS_15single_threadedEEE+8@l(9)
	.cfi_offset 65, 4
.LBE2535:
.LBE2540:
.LBE2545:
.LBE2550:
	.loc 1 2302 0
	stw 29,28(1)
	addi 29,3,4
	.cfi_offset 29, -12
	stw 30,32(1)
	stw 31,36(1)
.LBB2551:
.LBB2546:
.LBB2541:
.LBB2536:
	.loc 1 946 0
	stw 0,0(3)
.LVL436:
.LEHB32:
.LBB2453:
.LBB2454:
.LBB2455:
.LBB2456:
	.loc 1 338 0
	.cfi_offset 31, -4
	.cfi_offset 30, -8
	bl _ZN7sigslot15single_threaded4lockEv
.LEHE32:
.LVL437:
.LBE2456:
.LBE2455:
.LBE2454:
	.loc 3 56 0
	mr 29,28
.LVL438:
	lwzu 31,4(29)
.LVL439:
.LBB2487:
	.loc 1 954 0
	cmpw 7,31,29
	beq- 7,.L363
.LVL440:
.L401:
	.loc 1 956 0
	lwz 3,8(31)
	lwz 9,0(3)
	lwz 0,8(9)
	mtctr 0
.LEHB33:
	bctrl
.LBB2457:
.LBB2458:
.LBB2459:
.LBB2460:
	.loc 1 338 0
	lwz 9,0(3)
.LBE2460:
.LBE2459:
.LBE2458:
.LBE2457:
	.loc 1 956 0
	mr 30,3
.LVL441:
	stw 28,8(1)
.LVL442:
.LBB2469:
.LBB2468:
.LBB2462:
.LBB2461:
	.loc 1 338 0
	lwz 0,8(9)
	mtctr 0
	bctrl
.LVL443:
.LBE2461:
.LBE2462:
.LBB2463:
.LBB2464:
	.loc 10 528 0
	addi 3,30,4
	addi 4,1,8
	bl _ZNSt8_Rb_treeIPN7sigslot12_signal_baseINS0_15single_threadedEEES4_St9_IdentityIS4_ESt4lessIS4_ESaIS4_EE5eraseERKS4_
.LVL444:
.LBE2464:
.LBE2463:
.LBB2465:
.LBB2466:
.LBB2467:
	.loc 1 343 0
	lwz 9,0(30)
	mr 3,30
	lwz 0,12(9)
	mtctr 0
	bctrl
.LVL445:
.LBE2467:
.LBE2466:
.LBE2465:
.LBE2468:
.LBE2469:
	.loc 1 957 0
	lwz 3,8(31)
	cmpwi 7,3,0
	beq- 7,.L365
	lwz 9,0(3)
	lwz 0,4(9)
	mtctr 0
	bctrl
.LEHE33:
.L365:
.LVL446:
.LBB2470:
.LBB2471:
	.loc 4 234 0
	lwz 31,0(31)
.LVL447:
.LBE2471:
.LBE2470:
	.loc 1 954 0
	cmpw 7,29,31
	bne+ 7,.L401
.LBE2487:
	.loc 3 56 0
	lwz 31,4(28)
.LVL448:
.LBB2488:
.LBB2472:
.LBB2473:
	.loc 4 1162 0
	cmpw 7,29,31
	bne+ 7,.L403
	b .L363
.LVL449:
.L396:
	.loc 4 1163 0
	mr 31,30
.LVL450:
.L403:
.LBB2474:
.LBB2475:
	.loc 11 112 0
	lwz 30,0(31)
.LVL451:
.LBB2476:
.LBB2477:
	.loc 4 1532 0
	mr 3,31
	bl _ZNSt8__detail15_List_node_base9_M_unhookEv
.LVL452:
.LBB2478:
.LBB2479:
.LBB2480:
	.loc 7 98 0
	mr 3,31
	bl _ZdlPv
.LVL453:
.LBE2480:
.LBE2479:
.LBE2478:
.LBE2477:
.LBE2476:
.LBE2475:
.LBE2474:
	.loc 4 1162 0
	cmpw 7,29,30
	bne+ 7,.L396
.LVL454:
.L363:
.LBE2473:
.LBE2472:
.LBB2481:
.LBB2482:
.LBB2483:
	.loc 1 343 0
	lwz 9,0(28)
	mr 3,28
	lwz 0,12(9)
	mtctr 0
.LEHB34:
	bctrl
.LEHE34:
.LBE2483:
.LBE2482:
.LBE2481:
.LBE2488:
.LBE2453:
.LBB2490:
.LBB2491:
.LBB2492:
.LBB2493:
.LBB2494:
.LBB2495:
	.loc 11 70 0
	lwz 3,4(28)
.LVL455:
	.loc 11 71 0
	cmpw 7,3,29
	bne+ 7,.L405
	b .L381
.LVL456:
.L397:
	.loc 11 74 0
	mr 3,31
.LVL457:
.L405:
.LBB2496:
	lwz 31,0(3)
.LVL458:
.LBB2497:
.LBB2498:
.LBB2499:
	.loc 7 98 0
	bl _ZdlPv
.LVL459:
.LBE2499:
.LBE2498:
.LBE2497:
.LBE2496:
	.loc 11 71 0
	cmpw 7,31,29
	bne+ 7,.L397
.LVL460:
.L381:
.LBE2495:
.LBE2494:
.LBE2493:
.LBE2492:
.LBE2491:
.LBE2490:
.LBB2500:
.LBB2501:
.LBB2502:
.LBB2503:
.LBB2504:
.LBB2505:
	.loc 1 105 0
	lis 9,_ZTVN7sigslot15single_threadedE+8@ha
.LBE2505:
.LBE2504:
.LBE2503:
.LBE2502:
.LBE2501:
.LBE2500:
.LBE2536:
.LBE2541:
.LBE2546:
.LBE2551:
	.loc 1 2305 0
	lwz 29,28(1)
.LVL461:
.LBB2552:
.LBB2547:
.LBB2542:
.LBB2537:
.LBB2516:
.LBB2514:
.LBB2512:
.LBB2510:
.LBB2508:
.LBB2506:
	.loc 1 105 0
	la 0,_ZTVN7sigslot15single_threadedE+8@l(9)
.LBE2506:
.LBE2508:
.LBE2510:
.LBE2512:
.LBE2514:
.LBE2516:
.LBE2537:
.LBE2542:
.LBE2547:
.LBE2552:
	.loc 1 2305 0
	lwz 30,32(1)
.LBB2553:
.LBB2548:
.LBB2543:
.LBB2538:
.LBB2517:
.LBB2515:
.LBB2513:
.LBB2511:
.LBB2509:
.LBB2507:
	.loc 1 105 0
	stw 0,0(28)
.LBE2507:
.LBE2509:
.LBE2511:
.LBE2513:
.LBE2515:
.LBE2517:
.LBE2538:
.LBE2543:
.LBE2548:
.LBE2553:
	.loc 1 2305 0
	lwz 0,44(1)
	lwz 28,24(1)
.LVL462:
	mtlr 0
	lwz 31,36(1)
	addi 1,1,40
	.cfi_remember_state
.LCFI56:
	.cfi_def_cfa_offset 0
	.cfi_restore 31
	.cfi_restore 30
	.cfi_restore 29
	.cfi_restore 28
	blr
.LVL463:
.L399:
.LCFI57:
	.cfi_restore_state
	mr 31,3
.L373:
.LBB2554:
.LBB2549:
.LBB2544:
.LBB2539:
.LBB2518:
.LBB2519:
.LBB2520:
.LBB2521:
.LBB2522:
.LBB2523:
	.loc 11 70 0
	lwz 3,4(28)
.LVL464:
	.loc 11 71 0
	cmpw 7,3,29
	beq- 7,.L390
.LVL465:
.L406:
.LBB2524:
	.loc 11 74 0
	lwz 30,0(3)
.LVL466:
.LBB2525:
.LBB2526:
.LBB2527:
	.loc 7 98 0
	bl _ZdlPv
.LVL467:
.LBE2527:
.LBE2526:
.LBE2525:
.LBE2524:
	.loc 11 71 0
	cmpw 7,30,29
	beq- 7,.L390
	.loc 11 74 0
	mr 3,30
	b .L406
.LVL468:
.L400:
.LBE2523:
.LBE2522:
.LBE2521:
.LBE2520:
.LBE2519:
.LBE2518:
.LBB2528:
.LBB2489:
.LBB2484:
.LBB2485:
.LBB2486:
	.loc 1 343 0
	lwz 9,0(28)
	mr 31,3
.LVL469:
	mr 3,28
	lwz 0,12(9)
	mtctr 0
	bctrl
	b .L373
.LVL470:
.L390:
.LBE2486:
.LBE2485:
.LBE2484:
.LBE2489:
.LBE2528:
.LBB2529:
.LBB2530:
.LBB2531:
.LBB2532:
.LBB2533:
.LBB2534:
	.loc 1 105 0
	lis 9,_ZTVN7sigslot15single_threadedE+8@ha
	mr 3,31
	la 0,_ZTVN7sigslot15single_threadedE+8@l(9)
	stw 0,0(28)
.LEHB35:
	bl _Unwind_Resume
.LEHE35:
.LBE2534:
.LBE2533:
.LBE2532:
.LBE2531:
.LBE2530:
.LBE2529:
.LBE2539:
.LBE2544:
.LBE2549:
.LBE2554:
	.cfi_endproc
.LFE1483:
	.section	.gcc_except_table
.LLSDA1483:
	.byte	0xff
	.byte	0xff
	.byte	0x1
	.uleb128 .LLSDACSE1483-.LLSDACSB1483
.LLSDACSB1483:
	.uleb128 .LEHB32-.LFB1483
	.uleb128 .LEHE32-.LEHB32
	.uleb128 .L399-.LFB1483
	.uleb128 0
	.uleb128 .LEHB33-.LFB1483
	.uleb128 .LEHE33-.LEHB33
	.uleb128 .L400-.LFB1483
	.uleb128 0
	.uleb128 .LEHB34-.LFB1483
	.uleb128 .LEHE34-.LEHB34
	.uleb128 .L399-.LFB1483
	.uleb128 0
	.uleb128 .LEHB35-.LFB1483
	.uleb128 .LEHE35-.LEHB35
	.uleb128 0
	.uleb128 0
.LLSDACSE1483:
	.section	.text._ZN7sigslot7signal3IP10GuiElementiiNS_15single_threadedEED2Ev,"axG",@progbits,_ZN7sigslot7signal3IP10GuiElementiiNS_15single_threadedEED5Ev,comdat
	.size	_ZN7sigslot7signal3IP10GuiElementiiNS_15single_threadedEED2Ev, .-_ZN7sigslot7signal3IP10GuiElementiiNS_15single_threadedEED2Ev
	.section	.text._ZN7sigslot7signal3IP10GuiElementiiNS_15single_threadedEED0Ev,"axG",@progbits,_ZN7sigslot7signal3IP10GuiElementiiNS_15single_threadedEED5Ev,comdat
	.align 2
	.weak	_ZN7sigslot7signal3IP10GuiElementiiNS_15single_threadedEED0Ev
	.type	_ZN7sigslot7signal3IP10GuiElementiiNS_15single_threadedEED0Ev, @function
_ZN7sigslot7signal3IP10GuiElementiiNS_15single_threadedEED0Ev:
.LFB1485:
	.loc 1 2302 0
	.cfi_startproc
	.cfi_personality 0,__gxx_personality_v0
	.cfi_lsda 0,.LLSDA1485
.LVL471:
	mflr 0
	stwu 1,-40(1)
.LCFI58:
	.cfi_def_cfa_offset 40
	.cfi_register 65, 0
.LBB2653:
.LBB2654:
.LBB2655:
.LBB2656:
.LBB2657:
.LBB2658:
	.loc 1 946 0
	lis 9,_ZTVN7sigslot13_signal_base3IP10GuiElementiiNS_15single_threadedEEE+8@ha
.LBE2658:
.LBE2657:
.LBE2656:
.LBE2655:
.LBE2654:
.LBE2653:
	.loc 1 2302 0
	stw 28,24(1)
	mr 28,3
	.cfi_offset 28, -16
.LVL472:
	stw 0,44(1)
.LBB2755:
.LBB2751:
.LBB2747:
.LBB2743:
.LBB2739:
.LBB2735:
	.loc 1 946 0
	la 0,_ZTVN7sigslot13_signal_base3IP10GuiElementiiNS_15single_threadedEEE+8@l(9)
	.cfi_offset 65, 4
.LBE2735:
.LBE2739:
.LBE2743:
.LBE2747:
.LBE2751:
.LBE2755:
	.loc 1 2302 0
	stw 29,28(1)
	addi 29,3,4
	.cfi_offset 29, -12
	stw 30,32(1)
	stw 31,36(1)
.LBB2756:
.LBB2752:
.LBB2748:
.LBB2744:
.LBB2740:
.LBB2736:
	.loc 1 946 0
	stw 0,0(3)
.LVL473:
.LEHB36:
.LBB2659:
.LBB2660:
.LBB2661:
.LBB2662:
	.loc 1 338 0
	.cfi_offset 31, -4
	.cfi_offset 30, -8
	bl _ZN7sigslot15single_threaded4lockEv
.LEHE36:
.LVL474:
.LBE2662:
.LBE2661:
.LBE2660:
	.loc 3 56 0
	mr 29,28
.LVL475:
	lwzu 31,4(29)
.LVL476:
.LBB2693:
	.loc 1 954 0
	cmpw 7,31,29
	beq- 7,.L408
.LVL477:
.L447:
	.loc 1 956 0
	lwz 3,8(31)
	lwz 9,0(3)
	lwz 0,8(9)
	mtctr 0
.LEHB37:
	bctrl
.LBB2663:
.LBB2664:
.LBB2665:
.LBB2666:
	.loc 1 338 0
	lwz 9,0(3)
.LBE2666:
.LBE2665:
.LBE2664:
.LBE2663:
	.loc 1 956 0
	mr 30,3
.LVL478:
	stw 28,8(1)
.LVL479:
.LBB2675:
.LBB2674:
.LBB2668:
.LBB2667:
	.loc 1 338 0
	lwz 0,8(9)
	mtctr 0
	bctrl
.LVL480:
.LBE2667:
.LBE2668:
.LBB2669:
.LBB2670:
	.loc 10 528 0
	addi 3,30,4
	addi 4,1,8
	bl _ZNSt8_Rb_treeIPN7sigslot12_signal_baseINS0_15single_threadedEEES4_St9_IdentityIS4_ESt4lessIS4_ESaIS4_EE5eraseERKS4_
.LVL481:
.LBE2670:
.LBE2669:
.LBB2671:
.LBB2672:
.LBB2673:
	.loc 1 343 0
	lwz 9,0(30)
	mr 3,30
	lwz 0,12(9)
	mtctr 0
	bctrl
.LVL482:
.LBE2673:
.LBE2672:
.LBE2671:
.LBE2674:
.LBE2675:
	.loc 1 957 0
	lwz 3,8(31)
	cmpwi 7,3,0
	beq- 7,.L410
	lwz 9,0(3)
	lwz 0,4(9)
	mtctr 0
	bctrl
.LEHE37:
.L410:
.LVL483:
.LBB2676:
.LBB2677:
	.loc 4 234 0
	lwz 31,0(31)
.LVL484:
.LBE2677:
.LBE2676:
	.loc 1 954 0
	cmpw 7,29,31
	bne+ 7,.L447
.LBE2693:
	.loc 3 56 0
	lwz 31,4(28)
.LVL485:
.LBB2694:
.LBB2678:
.LBB2679:
	.loc 4 1162 0
	cmpw 7,29,31
	bne+ 7,.L449
	b .L408
.LVL486:
.L442:
	.loc 4 1163 0
	mr 31,30
.LVL487:
.L449:
.LBB2680:
.LBB2681:
	.loc 11 112 0
	lwz 30,0(31)
.LVL488:
.LBB2682:
.LBB2683:
	.loc 4 1532 0
	mr 3,31
	bl _ZNSt8__detail15_List_node_base9_M_unhookEv
.LVL489:
.LBB2684:
.LBB2685:
.LBB2686:
	.loc 7 98 0
	mr 3,31
	bl _ZdlPv
.LVL490:
.LBE2686:
.LBE2685:
.LBE2684:
.LBE2683:
.LBE2682:
.LBE2681:
.LBE2680:
	.loc 4 1162 0
	cmpw 7,29,30
	bne+ 7,.L442
.LVL491:
.L408:
.LBE2679:
.LBE2678:
.LBB2687:
.LBB2688:
.LBB2689:
	.loc 1 343 0
	lwz 9,0(28)
	mr 3,28
	lwz 0,12(9)
	mtctr 0
.LEHB38:
	bctrl
.LEHE38:
.LBE2689:
.LBE2688:
.LBE2687:
.LBE2694:
.LBE2659:
.LBB2696:
.LBB2697:
.LBB2698:
.LBB2699:
.LBB2700:
.LBB2701:
	.loc 11 70 0
	lwz 3,4(28)
.LVL492:
	.loc 11 71 0
	cmpw 7,3,29
	bne+ 7,.L451
	b .L426
.LVL493:
.L443:
	.loc 11 74 0
	mr 3,31
.LVL494:
.L451:
.LBB2702:
	lwz 31,0(3)
.LVL495:
.LBB2703:
.LBB2704:
.LBB2705:
	.loc 7 98 0
	bl _ZdlPv
.LVL496:
.LBE2705:
.LBE2704:
.LBE2703:
.LBE2702:
	.loc 11 71 0
	cmpw 7,31,29
	bne+ 7,.L443
.LVL497:
.L426:
.LBE2701:
.LBE2700:
.LBE2699:
.LBE2698:
.LBE2697:
.LBE2696:
.LBB2706:
.LBB2707:
.LBB2708:
.LBB2709:
.LBB2710:
.LBB2711:
	.loc 1 105 0
	lis 9,_ZTVN7sigslot15single_threadedE+8@ha
.LBE2711:
.LBE2710:
.LBE2709:
.LBE2708:
.LBE2707:
.LBE2706:
.LBE2736:
.LBE2740:
.LBE2744:
.LBE2748:
.LBE2752:
.LBE2756:
	.loc 1 2305 0
	mr 3,28
.LBB2757:
.LBB2753:
.LBB2749:
.LBB2745:
.LBB2741:
.LBB2737:
.LBB2717:
.LBB2716:
.LBB2715:
.LBB2714:
.LBB2713:
.LBB2712:
	.loc 1 105 0
	la 0,_ZTVN7sigslot15single_threadedE+8@l(9)
	stw 0,0(28)
.LBE2712:
.LBE2713:
.LBE2714:
.LBE2715:
.LBE2716:
.LBE2717:
.LBE2737:
.LBE2741:
.LBE2745:
.LBE2749:
.LBE2753:
.LBE2757:
	.loc 1 2305 0
	bl _ZdlPv
	lwz 0,44(1)
	lwz 28,24(1)
.LVL498:
	mtlr 0
	lwz 29,28(1)
.LVL499:
	lwz 30,32(1)
	lwz 31,36(1)
	addi 1,1,40
	.cfi_remember_state
.LCFI59:
	.cfi_def_cfa_offset 0
	.cfi_restore 31
	.cfi_restore 30
	.cfi_restore 29
	.cfi_restore 28
	blr
.LVL500:
.L445:
.LCFI60:
	.cfi_restore_state
	mr 31,3
.L418:
.LBB2758:
.LBB2754:
.LBB2750:
.LBB2746:
.LBB2742:
.LBB2738:
.LBB2718:
.LBB2719:
.LBB2720:
.LBB2721:
.LBB2722:
.LBB2723:
	.loc 11 70 0
	lwz 3,4(28)
.LVL501:
	.loc 11 71 0
	cmpw 7,3,29
	beq- 7,.L435
.LVL502:
.L452:
.LBB2724:
	.loc 11 74 0
	lwz 30,0(3)
.LVL503:
.LBB2725:
.LBB2726:
.LBB2727:
	.loc 7 98 0
	bl _ZdlPv
.LVL504:
.LBE2727:
.LBE2726:
.LBE2725:
.LBE2724:
	.loc 11 71 0
	cmpw 7,30,29
	beq- 7,.L435
	.loc 11 74 0
	mr 3,30
	b .L452
.LVL505:
.L446:
.LBE2723:
.LBE2722:
.LBE2721:
.LBE2720:
.LBE2719:
.LBE2718:
.LBB2728:
.LBB2695:
.LBB2690:
.LBB2691:
.LBB2692:
	.loc 1 343 0
	lwz 9,0(28)
	mr 31,3
.LVL506:
	mr 3,28
	lwz 0,12(9)
	mtctr 0
	bctrl
	b .L418
.LVL507:
.L435:
.LBE2692:
.LBE2691:
.LBE2690:
.LBE2695:
.LBE2728:
.LBB2729:
.LBB2730:
.LBB2731:
.LBB2732:
.LBB2733:
.LBB2734:
	.loc 1 105 0
	lis 9,_ZTVN7sigslot15single_threadedE+8@ha
	mr 3,31
	la 0,_ZTVN7sigslot15single_threadedE+8@l(9)
	stw 0,0(28)
.LEHB39:
	bl _Unwind_Resume
.LEHE39:
.LBE2734:
.LBE2733:
.LBE2732:
.LBE2731:
.LBE2730:
.LBE2729:
.LBE2738:
.LBE2742:
.LBE2746:
.LBE2750:
.LBE2754:
.LBE2758:
	.cfi_endproc
.LFE1485:
	.section	.gcc_except_table
.LLSDA1485:
	.byte	0xff
	.byte	0xff
	.byte	0x1
	.uleb128 .LLSDACSE1485-.LLSDACSB1485
.LLSDACSB1485:
	.uleb128 .LEHB36-.LFB1485
	.uleb128 .LEHE36-.LEHB36
	.uleb128 .L445-.LFB1485
	.uleb128 0
	.uleb128 .LEHB37-.LFB1485
	.uleb128 .LEHE37-.LEHB37
	.uleb128 .L446-.LFB1485
	.uleb128 0
	.uleb128 .LEHB38-.LFB1485
	.uleb128 .LEHE38-.LEHB38
	.uleb128 .L445-.LFB1485
	.uleb128 0
	.uleb128 .LEHB39-.LFB1485
	.uleb128 .LEHE39-.LEHB39
	.uleb128 0
	.uleb128 0
.LLSDACSE1485:
	.section	.text._ZN7sigslot7signal3IP10GuiElementiiNS_15single_threadedEED0Ev,"axG",@progbits,_ZN7sigslot7signal3IP10GuiElementiiNS_15single_threadedEED5Ev,comdat
	.size	_ZN7sigslot7signal3IP10GuiElementiiNS_15single_threadedEED0Ev, .-_ZN7sigslot7signal3IP10GuiElementiiNS_15single_threadedEED0Ev
	.section	.text._ZN7sigslot13_signal_base2IP10GuiElementbNS_15single_threadedEED2Ev,"axG",@progbits,_ZN7sigslot13_signal_base2IP10GuiElementbNS_15single_threadedEED5Ev,comdat
	.align 2
	.weak	_ZN7sigslot13_signal_base2IP10GuiElementbNS_15single_threadedEED2Ev
	.type	_ZN7sigslot13_signal_base2IP10GuiElementbNS_15single_threadedEED2Ev, @function
_ZN7sigslot13_signal_base2IP10GuiElementbNS_15single_threadedEED2Ev:
.LFB1509:
	.loc 1 823 0
	.cfi_startproc
	.cfi_personality 0,__gxx_personality_v0
	.cfi_lsda 0,.LLSDA1509
.LVL508:
	mflr 0
	stwu 1,-40(1)
.LCFI61:
	.cfi_def_cfa_offset 40
	.cfi_register 65, 0
.LBB2905:
	.loc 1 826 0
	lis 9,_ZTVN7sigslot13_signal_base2IP10GuiElementbNS_15single_threadedEEE+8@ha
.LBE2905:
	.loc 1 823 0
	stw 28,24(1)
	mr 28,3
	.cfi_offset 28, -16
	stw 0,44(1)
.LBB2988:
	.loc 1 826 0
	la 0,_ZTVN7sigslot13_signal_base2IP10GuiElementbNS_15single_threadedEEE+8@l(9)
	.cfi_offset 65, 4
.LBE2988:
	.loc 1 823 0
	stw 29,28(1)
	addi 29,3,4
	.cfi_offset 29, -12
	stw 30,32(1)
	stw 31,36(1)
.LBB2989:
	.loc 1 826 0
	stw 0,0(3)
.LVL509:
.LEHB40:
.LBB2906:
.LBB2907:
.LBB2908:
.LBB2909:
	.loc 1 338 0
	.cfi_offset 31, -4
	.cfi_offset 30, -8
	bl _ZN7sigslot15single_threaded4lockEv
.LEHE40:
.LVL510:
.LBE2909:
.LBE2908:
.LBE2907:
	.loc 3 56 0
	mr 29,28
.LVL511:
	lwzu 31,4(29)
.LVL512:
.LBB2940:
	.loc 1 834 0
	cmpw 7,31,29
	beq- 7,.L454
.LVL513:
.L491:
	.loc 1 836 0
	lwz 3,8(31)
	lwz 9,0(3)
	lwz 0,8(9)
	mtctr 0
.LEHB41:
	bctrl
.LBB2910:
.LBB2911:
.LBB2912:
.LBB2913:
	.loc 1 338 0
	lwz 9,0(3)
.LBE2913:
.LBE2912:
.LBE2911:
.LBE2910:
	.loc 1 836 0
	mr 30,3
.LVL514:
	stw 28,8(1)
.LVL515:
.LBB2922:
.LBB2921:
.LBB2915:
.LBB2914:
	.loc 1 338 0
	lwz 0,8(9)
	mtctr 0
	bctrl
.LVL516:
.LBE2914:
.LBE2915:
.LBB2916:
.LBB2917:
	.loc 10 528 0
	addi 3,30,4
	addi 4,1,8
	bl _ZNSt8_Rb_treeIPN7sigslot12_signal_baseINS0_15single_threadedEEES4_St9_IdentityIS4_ESt4lessIS4_ESaIS4_EE5eraseERKS4_
.LVL517:
.LBE2917:
.LBE2916:
.LBB2918:
.LBB2919:
.LBB2920:
	.loc 1 343 0
	lwz 9,0(30)
	mr 3,30
	lwz 0,12(9)
	mtctr 0
	bctrl
.LVL518:
.LBE2920:
.LBE2919:
.LBE2918:
.LBE2921:
.LBE2922:
	.loc 1 837 0
	lwz 3,8(31)
	cmpwi 7,3,0
	beq- 7,.L456
	lwz 9,0(3)
	lwz 0,4(9)
	mtctr 0
	bctrl
.LEHE41:
.L456:
.LVL519:
.LBB2923:
.LBB2924:
	.loc 4 234 0
	lwz 31,0(31)
.LVL520:
.LBE2924:
.LBE2923:
	.loc 1 834 0
	cmpw 7,29,31
	bne+ 7,.L491
.LBE2940:
	.loc 3 56 0
	lwz 31,4(28)
.LVL521:
.LBB2941:
.LBB2925:
.LBB2926:
	.loc 4 1162 0
	cmpw 7,29,31
	bne+ 7,.L493
	b .L454
.LVL522:
.L486:
	.loc 4 1163 0
	mr 31,30
.LVL523:
.L493:
.LBB2927:
.LBB2928:
	.loc 11 112 0
	lwz 30,0(31)
.LVL524:
.LBB2929:
.LBB2930:
	.loc 4 1532 0
	mr 3,31
	bl _ZNSt8__detail15_List_node_base9_M_unhookEv
.LVL525:
.LBB2931:
.LBB2932:
.LBB2933:
	.loc 7 98 0
	mr 3,31
	bl _ZdlPv
.LVL526:
.LBE2933:
.LBE2932:
.LBE2931:
.LBE2930:
.LBE2929:
.LBE2928:
.LBE2927:
	.loc 4 1162 0
	cmpw 7,29,30
	bne+ 7,.L486
.LVL527:
.L454:
.LBE2926:
.LBE2925:
.LBB2934:
.LBB2935:
.LBB2936:
	.loc 1 343 0
	lwz 9,0(28)
	mr 3,28
	lwz 0,12(9)
	mtctr 0
.LEHB42:
	bctrl
.LEHE42:
.LVL528:
.LBE2936:
.LBE2935:
.LBE2934:
.LBE2941:
.LBE2906:
.LBB2943:
.LBB2944:
.LBB2945:
.LBB2946:
.LBB2947:
.LBB2948:
	.loc 11 70 0
	lwz 3,4(28)
.LVL529:
	.loc 11 71 0
	cmpw 7,3,29
	bne+ 7,.L495
	b .L472
.LVL530:
.L487:
	.loc 11 74 0
	mr 3,31
.LVL531:
.L495:
.LBB2949:
	lwz 31,0(3)
.LVL532:
.LBB2950:
.LBB2951:
.LBB2952:
	.loc 7 98 0
	bl _ZdlPv
.LVL533:
.LBE2952:
.LBE2951:
.LBE2950:
.LBE2949:
	.loc 11 71 0
	cmpw 7,31,29
	bne+ 7,.L487
.LVL534:
.L472:
.LBE2948:
.LBE2947:
.LBE2946:
.LBE2945:
.LBE2944:
.LBE2943:
.LBB2953:
.LBB2954:
.LBB2955:
.LBB2956:
.LBB2957:
.LBB2958:
	.loc 1 105 0
	lis 9,_ZTVN7sigslot15single_threadedE+8@ha
.LBE2958:
.LBE2957:
.LBE2956:
.LBE2955:
.LBE2954:
.LBE2953:
.LBE2989:
	.loc 1 826 0
	lwz 29,28(1)
.LVL535:
.LBB2990:
.LBB2969:
.LBB2967:
.LBB2965:
.LBB2963:
.LBB2961:
.LBB2959:
	.loc 1 105 0
	la 0,_ZTVN7sigslot15single_threadedE+8@l(9)
.LBE2959:
.LBE2961:
.LBE2963:
.LBE2965:
.LBE2967:
.LBE2969:
.LBE2990:
	.loc 1 826 0
	lwz 30,32(1)
.LBB2991:
.LBB2970:
.LBB2968:
.LBB2966:
.LBB2964:
.LBB2962:
.LBB2960:
	.loc 1 105 0
	stw 0,0(28)
.LBE2960:
.LBE2962:
.LBE2964:
.LBE2966:
.LBE2968:
.LBE2970:
.LBE2991:
	.loc 1 826 0
	lwz 0,44(1)
	lwz 28,24(1)
.LVL536:
	mtlr 0
	lwz 31,36(1)
	addi 1,1,40
	.cfi_remember_state
.LCFI62:
	.cfi_def_cfa_offset 0
	.cfi_restore 31
	.cfi_restore 30
	.cfi_restore 29
	.cfi_restore 28
	blr
.LVL537:
.L489:
.LCFI63:
	.cfi_restore_state
	mr 31,3
.L464:
.LVL538:
.LBB2992:
.LBB2971:
.LBB2972:
.LBB2973:
.LBB2974:
.LBB2975:
.LBB2976:
	.loc 11 70 0
	lwz 3,4(28)
.LVL539:
	.loc 11 71 0
	cmpw 7,3,29
	beq- 7,.L483
.LVL540:
.L496:
.LBB2977:
	.loc 11 74 0
	lwz 30,0(3)
.LVL541:
.LBB2978:
.LBB2979:
.LBB2980:
	.loc 7 98 0
	bl _ZdlPv
.LVL542:
.LBE2980:
.LBE2979:
.LBE2978:
.LBE2977:
	.loc 11 71 0
	cmpw 7,30,29
	beq- 7,.L483
	.loc 11 74 0
	mr 3,30
	b .L496
.LVL543:
.L490:
.LBE2976:
.LBE2975:
.LBE2974:
.LBE2973:
.LBE2972:
.LBE2971:
.LBB2981:
.LBB2942:
.LBB2937:
.LBB2938:
.LBB2939:
	.loc 1 343 0
	lwz 9,0(28)
	mr 31,3
.LVL544:
	mr 3,28
	lwz 0,12(9)
	mtctr 0
	bctrl
	b .L464
.LVL545:
.L483:
.LBE2939:
.LBE2938:
.LBE2937:
.LBE2942:
.LBE2981:
.LBB2982:
.LBB2983:
.LBB2984:
.LBB2985:
.LBB2986:
.LBB2987:
	.loc 1 105 0
	lis 9,_ZTVN7sigslot15single_threadedE+8@ha
	mr 3,31
	la 0,_ZTVN7sigslot15single_threadedE+8@l(9)
	stw 0,0(28)
.LEHB43:
	bl _Unwind_Resume
.LEHE43:
.LBE2987:
.LBE2986:
.LBE2985:
.LBE2984:
.LBE2983:
.LBE2982:
.LBE2992:
	.cfi_endproc
.LFE1509:
	.section	.gcc_except_table
.LLSDA1509:
	.byte	0xff
	.byte	0xff
	.byte	0x1
	.uleb128 .LLSDACSE1509-.LLSDACSB1509
.LLSDACSB1509:
	.uleb128 .LEHB40-.LFB1509
	.uleb128 .LEHE40-.LEHB40
	.uleb128 .L489-.LFB1509
	.uleb128 0
	.uleb128 .LEHB41-.LFB1509
	.uleb128 .LEHE41-.LEHB41
	.uleb128 .L490-.LFB1509
	.uleb128 0
	.uleb128 .LEHB42-.LFB1509
	.uleb128 .LEHE42-.LEHB42
	.uleb128 .L489-.LFB1509
	.uleb128 0
	.uleb128 .LEHB43-.LFB1509
	.uleb128 .LEHE43-.LEHB43
	.uleb128 0
	.uleb128 0
.LLSDACSE1509:
	.section	.text._ZN7sigslot13_signal_base2IP10GuiElementbNS_15single_threadedEED2Ev,"axG",@progbits,_ZN7sigslot13_signal_base2IP10GuiElementbNS_15single_threadedEED5Ev,comdat
	.size	_ZN7sigslot13_signal_base2IP10GuiElementbNS_15single_threadedEED2Ev, .-_ZN7sigslot13_signal_base2IP10GuiElementbNS_15single_threadedEED2Ev
	.section	.text._ZN7sigslot7signal2IP10GuiElementbNS_15single_threadedEED2Ev,"axG",@progbits,_ZN7sigslot7signal2IP10GuiElementbNS_15single_threadedEED5Ev,comdat
	.align 2
	.weak	_ZN7sigslot7signal2IP10GuiElementbNS_15single_threadedEED2Ev
	.type	_ZN7sigslot7signal2IP10GuiElementbNS_15single_threadedEED2Ev, @function
_ZN7sigslot7signal2IP10GuiElementbNS_15single_threadedEED2Ev:
.LFB1479:
	.loc 1 2235 0
	.cfi_startproc
	.cfi_personality 0,__gxx_personality_v0
	.cfi_lsda 0,.LLSDA1479
.LVL546:
	mflr 0
	stwu 1,-40(1)
.LCFI64:
	.cfi_def_cfa_offset 40
	.cfi_register 65, 0
.LBB3090:
.LBB3091:
.LBB3092:
.LBB3093:
	.loc 1 826 0
	lis 9,_ZTVN7sigslot13_signal_base2IP10GuiElementbNS_15single_threadedEEE+8@ha
.LBE3093:
.LBE3092:
.LBE3091:
.LBE3090:
	.loc 1 2235 0
	stw 28,24(1)
	mr 28,3
	.cfi_offset 28, -16
.LVL547:
	stw 0,44(1)
.LBB3191:
.LBB3186:
.LBB3181:
.LBB3176:
	.loc 1 826 0
	la 0,_ZTVN7sigslot13_signal_base2IP10GuiElementbNS_15single_threadedEEE+8@l(9)
	.cfi_offset 65, 4
.LBE3176:
.LBE3181:
.LBE3186:
.LBE3191:
	.loc 1 2235 0
	stw 29,28(1)
	addi 29,3,4
	.cfi_offset 29, -12
	stw 30,32(1)
	stw 31,36(1)
.LBB3192:
.LBB3187:
.LBB3182:
.LBB3177:
	.loc 1 826 0
	stw 0,0(3)
.LVL548:
.LEHB44:
.LBB3094:
.LBB3095:
.LBB3096:
.LBB3097:
	.loc 1 338 0
	.cfi_offset 31, -4
	.cfi_offset 30, -8
	bl _ZN7sigslot15single_threaded4lockEv
.LEHE44:
.LVL549:
.LBE3097:
.LBE3096:
.LBE3095:
	.loc 3 56 0
	mr 29,28
.LVL550:
	lwzu 31,4(29)
.LVL551:
.LBB3128:
	.loc 1 834 0
	cmpw 7,31,29
	beq- 7,.L498
.LVL552:
.L536:
	.loc 1 836 0
	lwz 3,8(31)
	lwz 9,0(3)
	lwz 0,8(9)
	mtctr 0
.LEHB45:
	bctrl
.LBB3098:
.LBB3099:
.LBB3100:
.LBB3101:
	.loc 1 338 0
	lwz 9,0(3)
.LBE3101:
.LBE3100:
.LBE3099:
.LBE3098:
	.loc 1 836 0
	mr 30,3
.LVL553:
	stw 28,8(1)
.LVL554:
.LBB3110:
.LBB3109:
.LBB3103:
.LBB3102:
	.loc 1 338 0
	lwz 0,8(9)
	mtctr 0
	bctrl
.LVL555:
.LBE3102:
.LBE3103:
.LBB3104:
.LBB3105:
	.loc 10 528 0
	addi 3,30,4
	addi 4,1,8
	bl _ZNSt8_Rb_treeIPN7sigslot12_signal_baseINS0_15single_threadedEEES4_St9_IdentityIS4_ESt4lessIS4_ESaIS4_EE5eraseERKS4_
.LVL556:
.LBE3105:
.LBE3104:
.LBB3106:
.LBB3107:
.LBB3108:
	.loc 1 343 0
	lwz 9,0(30)
	mr 3,30
	lwz 0,12(9)
	mtctr 0
	bctrl
.LVL557:
.LBE3108:
.LBE3107:
.LBE3106:
.LBE3109:
.LBE3110:
	.loc 1 837 0
	lwz 3,8(31)
	cmpwi 7,3,0
	beq- 7,.L500
	lwz 9,0(3)
	lwz 0,4(9)
	mtctr 0
	bctrl
.LEHE45:
.L500:
.LVL558:
.LBB3111:
.LBB3112:
	.loc 4 234 0
	lwz 31,0(31)
.LVL559:
.LBE3112:
.LBE3111:
	.loc 1 834 0
	cmpw 7,29,31
	bne+ 7,.L536
.LBE3128:
	.loc 3 56 0
	lwz 31,4(28)
.LVL560:
.LBB3129:
.LBB3113:
.LBB3114:
	.loc 4 1162 0
	cmpw 7,29,31
	bne+ 7,.L538
	b .L498
.LVL561:
.L531:
	.loc 4 1163 0
	mr 31,30
.LVL562:
.L538:
.LBB3115:
.LBB3116:
	.loc 11 112 0
	lwz 30,0(31)
.LVL563:
.LBB3117:
.LBB3118:
	.loc 4 1532 0
	mr 3,31
	bl _ZNSt8__detail15_List_node_base9_M_unhookEv
.LVL564:
.LBB3119:
.LBB3120:
.LBB3121:
	.loc 7 98 0
	mr 3,31
	bl _ZdlPv
.LVL565:
.LBE3121:
.LBE3120:
.LBE3119:
.LBE3118:
.LBE3117:
.LBE3116:
.LBE3115:
	.loc 4 1162 0
	cmpw 7,29,30
	bne+ 7,.L531
.LVL566:
.L498:
.LBE3114:
.LBE3113:
.LBB3122:
.LBB3123:
.LBB3124:
	.loc 1 343 0
	lwz 9,0(28)
	mr 3,28
	lwz 0,12(9)
	mtctr 0
.LEHB46:
	bctrl
.LEHE46:
.LBE3124:
.LBE3123:
.LBE3122:
.LBE3129:
.LBE3094:
.LBB3131:
.LBB3132:
.LBB3133:
.LBB3134:
.LBB3135:
.LBB3136:
	.loc 11 70 0
	lwz 3,4(28)
.LVL567:
	.loc 11 71 0
	cmpw 7,3,29
	bne+ 7,.L540
	b .L516
.LVL568:
.L532:
	.loc 11 74 0
	mr 3,31
.LVL569:
.L540:
.LBB3137:
	lwz 31,0(3)
.LVL570:
.LBB3138:
.LBB3139:
.LBB3140:
	.loc 7 98 0
	bl _ZdlPv
.LVL571:
.LBE3140:
.LBE3139:
.LBE3138:
.LBE3137:
	.loc 11 71 0
	cmpw 7,31,29
	bne+ 7,.L532
.LVL572:
.L516:
.LBE3136:
.LBE3135:
.LBE3134:
.LBE3133:
.LBE3132:
.LBE3131:
.LBB3141:
.LBB3142:
.LBB3143:
.LBB3144:
.LBB3145:
.LBB3146:
	.loc 1 105 0
	lis 9,_ZTVN7sigslot15single_threadedE+8@ha
.LBE3146:
.LBE3145:
.LBE3144:
.LBE3143:
.LBE3142:
.LBE3141:
.LBE3177:
.LBE3182:
.LBE3187:
.LBE3192:
	.loc 1 2238 0
	lwz 29,28(1)
.LVL573:
.LBB3193:
.LBB3188:
.LBB3183:
.LBB3178:
.LBB3157:
.LBB3155:
.LBB3153:
.LBB3151:
.LBB3149:
.LBB3147:
	.loc 1 105 0
	la 0,_ZTVN7sigslot15single_threadedE+8@l(9)
.LBE3147:
.LBE3149:
.LBE3151:
.LBE3153:
.LBE3155:
.LBE3157:
.LBE3178:
.LBE3183:
.LBE3188:
.LBE3193:
	.loc 1 2238 0
	lwz 30,32(1)
.LBB3194:
.LBB3189:
.LBB3184:
.LBB3179:
.LBB3158:
.LBB3156:
.LBB3154:
.LBB3152:
.LBB3150:
.LBB3148:
	.loc 1 105 0
	stw 0,0(28)
.LBE3148:
.LBE3150:
.LBE3152:
.LBE3154:
.LBE3156:
.LBE3158:
.LBE3179:
.LBE3184:
.LBE3189:
.LBE3194:
	.loc 1 2238 0
	lwz 0,44(1)
	lwz 28,24(1)
.LVL574:
	mtlr 0
	lwz 31,36(1)
	addi 1,1,40
	.cfi_remember_state
.LCFI65:
	.cfi_def_cfa_offset 0
	.cfi_restore 31
	.cfi_restore 30
	.cfi_restore 29
	.cfi_restore 28
	blr
.LVL575:
.L534:
.LCFI66:
	.cfi_restore_state
	mr 31,3
.L508:
.LBB3195:
.LBB3190:
.LBB3185:
.LBB3180:
.LBB3159:
.LBB3160:
.LBB3161:
.LBB3162:
.LBB3163:
.LBB3164:
	.loc 11 70 0
	lwz 3,4(28)
.LVL576:
	.loc 11 71 0
	cmpw 7,3,29
	beq- 7,.L525
.LVL577:
.L541:
.LBB3165:
	.loc 11 74 0
	lwz 30,0(3)
.LVL578:
.LBB3166:
.LBB3167:
.LBB3168:
	.loc 7 98 0
	bl _ZdlPv
.LVL579:
.LBE3168:
.LBE3167:
.LBE3166:
.LBE3165:
	.loc 11 71 0
	cmpw 7,30,29
	beq- 7,.L525
	.loc 11 74 0
	mr 3,30
	b .L541
.LVL580:
.L535:
.LBE3164:
.LBE3163:
.LBE3162:
.LBE3161:
.LBE3160:
.LBE3159:
.LBB3169:
.LBB3130:
.LBB3125:
.LBB3126:
.LBB3127:
	.loc 1 343 0
	lwz 9,0(28)
	mr 31,3
.LVL581:
	mr 3,28
	lwz 0,12(9)
	mtctr 0
	bctrl
	b .L508
.LVL582:
.L525:
.LBE3127:
.LBE3126:
.LBE3125:
.LBE3130:
.LBE3169:
.LBB3170:
.LBB3171:
.LBB3172:
.LBB3173:
.LBB3174:
.LBB3175:
	.loc 1 105 0
	lis 9,_ZTVN7sigslot15single_threadedE+8@ha
	mr 3,31
	la 0,_ZTVN7sigslot15single_threadedE+8@l(9)
	stw 0,0(28)
.LEHB47:
	bl _Unwind_Resume
.LEHE47:
.LBE3175:
.LBE3174:
.LBE3173:
.LBE3172:
.LBE3171:
.LBE3170:
.LBE3180:
.LBE3185:
.LBE3190:
.LBE3195:
	.cfi_endproc
.LFE1479:
	.section	.gcc_except_table
.LLSDA1479:
	.byte	0xff
	.byte	0xff
	.byte	0x1
	.uleb128 .LLSDACSE1479-.LLSDACSB1479
.LLSDACSB1479:
	.uleb128 .LEHB44-.LFB1479
	.uleb128 .LEHE44-.LEHB44
	.uleb128 .L534-.LFB1479
	.uleb128 0
	.uleb128 .LEHB45-.LFB1479
	.uleb128 .LEHE45-.LEHB45
	.uleb128 .L535-.LFB1479
	.uleb128 0
	.uleb128 .LEHB46-.LFB1479
	.uleb128 .LEHE46-.LEHB46
	.uleb128 .L534-.LFB1479
	.uleb128 0
	.uleb128 .LEHB47-.LFB1479
	.uleb128 .LEHE47-.LEHB47
	.uleb128 0
	.uleb128 0
.LLSDACSE1479:
	.section	.text._ZN7sigslot7signal2IP10GuiElementbNS_15single_threadedEED2Ev,"axG",@progbits,_ZN7sigslot7signal2IP10GuiElementbNS_15single_threadedEED5Ev,comdat
	.size	_ZN7sigslot7signal2IP10GuiElementbNS_15single_threadedEED2Ev, .-_ZN7sigslot7signal2IP10GuiElementbNS_15single_threadedEED2Ev
	.section	.text._ZN12GuiChecksignD2Ev,"axG",@progbits,_ZN12GuiChecksignD5Ev,comdat
	.align 2
	.weak	_ZN12GuiChecksignD2Ev
	.type	_ZN12GuiChecksignD2Ev, @function
_ZN12GuiChecksignD2Ev:
.LFB1709:
	.loc 6 29 0
	.cfi_startproc
	.cfi_personality 0,__gxx_personality_v0
	.cfi_lsda 0,.LLSDA1709
.LVL583:
	mflr 0
	stwu 1,-48(1)
.LCFI67:
	.cfi_def_cfa_offset 48
	.cfi_register 65, 0
.LBB3399:
.LBB3400:
.LBB3401:
.LBB3402:
	.loc 2 89 0
	lis 9,_ZTV10GuiElement+8@ha
.LBE3402:
.LBE3401:
.LBE3400:
.LBE3399:
	.loc 6 29 0
	stw 27,28(1)
.LBB3679:
.LBB3674:
.LBB3669:
.LBB3664:
.LBB3403:
.LBB3404:
.LBB3405:
	.loc 1 2305 0
	addi 27,3,16
	.cfi_offset 27, -20
.LBE3405:
.LBE3404:
.LBE3403:
.LBE3664:
.LBE3669:
.LBE3674:
.LBE3679:
	.loc 6 29 0
	stw 0,52(1)
.LBB3680:
.LBB3675:
.LBB3670:
.LBB3665:
	.loc 2 89 0
	la 0,_ZTV10GuiElement+8@l(9)
	.cfi_offset 65, 4
.LBB3539:
.LBB3530:
.LBB3521:
.LBB3406:
.LBB3407:
.LBB3408:
	.loc 1 946 0
	lis 9,_ZTVN7sigslot13_signal_base3IP10GuiElementiiNS_15single_threadedEEE+8@ha
.LBE3408:
.LBE3407:
.LBE3406:
.LBE3521:
.LBE3530:
.LBE3539:
.LBE3665:
.LBE3670:
.LBE3675:
.LBE3680:
	.loc 6 29 0
	stw 28,32(1)
	stw 29,36(1)
	mr 28,3
	.cfi_offset 29, -12
	.cfi_offset 28, -16
.LVL584:
	stw 26,24(1)
	addi 29,28,20
	stw 30,40(1)
	stw 31,44(1)
.LBB3681:
.LBB3676:
.LBB3671:
.LBB3666:
	.loc 2 89 0
	stw 0,0(3)
.LVL585:
.LBB3540:
.LBB3531:
.LBB3522:
.LBB3513:
.LBB3505:
.LBB3497:
	.loc 1 946 0
	la 0,_ZTVN7sigslot13_signal_base3IP10GuiElementiiNS_15single_threadedEEE+8@l(9)
.LBB3409:
.LBB3410:
.LBB3411:
.LBB3412:
	.loc 1 338 0
	lis 9,_ZN7sigslot15single_threaded4lockEv@ha
.LBE3412:
.LBE3411:
.LBE3410:
.LBE3409:
	.loc 1 946 0
	stw 0,16(3)
.LVL586:
.LBB3445:
.LBB3441:
.LBB3414:
.LBB3413:
	.loc 1 338 0
	la 9,_ZN7sigslot15single_threaded4lockEv@l(9)
	mr 3,27
.LVL587:
	mtctr 9
.LEHB48:
	.cfi_offset 31, -4
	.cfi_offset 30, -8
	.cfi_offset 26, -24
	bctrl
.LEHE48:
.LBE3413:
.LBE3414:
.LBE3441:
	.loc 3 56 0
	mr 29,28
.LVL588:
	lwzu 31,20(29)
.LVL589:
.LBB3442:
	.loc 1 954 0
	cmpw 7,31,29
	beq- 7,.L544
.LVL590:
.L623:
	.loc 1 956 0
	lwz 3,8(31)
	lwz 9,0(3)
	lwz 0,8(9)
	mtctr 0
.LEHB49:
	bctrl
	stw 27,8(1)
	mr 30,3
.LVL591:
.LBB3415:
.LBB3416:
.LBB3417:
.LBB3418:
	.loc 1 338 0
	lwz 9,0(3)
	lwz 0,8(9)
	mtctr 0
	bctrl
.LVL592:
.LBE3418:
.LBE3417:
.LBB3419:
.LBB3420:
	.loc 10 528 0
	addi 3,30,4
	addi 4,1,8
	bl _ZNSt8_Rb_treeIPN7sigslot12_signal_baseINS0_15single_threadedEEES4_St9_IdentityIS4_ESt4lessIS4_ESaIS4_EE5eraseERKS4_
.LVL593:
.LBE3420:
.LBE3419:
.LBB3421:
.LBB3422:
.LBB3423:
	.loc 1 343 0
	lwz 9,0(30)
	mr 3,30
	lwz 0,12(9)
	mtctr 0
	bctrl
.LVL594:
.LBE3423:
.LBE3422:
.LBE3421:
.LBE3416:
.LBE3415:
	.loc 1 957 0
	lwz 3,8(31)
	cmpwi 7,3,0
	beq- 7,.L546
	lwz 9,0(3)
	lwz 0,4(9)
	mtctr 0
	bctrl
.LEHE49:
.L546:
.LVL595:
.LBB3424:
.LBB3425:
	.loc 4 234 0
	lwz 31,0(31)
.LVL596:
.LBE3425:
.LBE3424:
	.loc 1 954 0
	cmpw 7,29,31
	bne+ 7,.L623
.LBE3442:
	.loc 3 56 0
	lwz 31,20(28)
.LVL597:
.LBB3443:
.LBB3426:
.LBB3427:
	.loc 4 1162 0
	cmpw 7,29,31
	bne+ 7,.L626
	b .L544
.LVL598:
.L612:
	.loc 4 1163 0
	mr 31,30
.LVL599:
.L626:
.LBB3428:
.LBB3429:
	.loc 11 112 0
	lwz 30,0(31)
.LVL600:
.LBB3430:
.LBB3431:
	.loc 4 1532 0
	mr 3,31
	bl _ZNSt8__detail15_List_node_base9_M_unhookEv
.LVL601:
.LBB3432:
.LBB3433:
.LBB3434:
	.loc 7 98 0
	mr 3,31
	bl _ZdlPv
.LVL602:
.LBE3434:
.LBE3433:
.LBE3432:
.LBE3431:
.LBE3430:
.LBE3429:
.LBE3428:
	.loc 4 1162 0
	cmpw 7,29,30
	bne+ 7,.L612
.LVL603:
.L544:
.LBE3427:
.LBE3426:
.LBB3435:
.LBB3436:
.LBB3437:
	.loc 1 343 0
	lwz 9,16(28)
	mr 3,27
	lwz 0,12(9)
	mtctr 0
.LEHB50:
	bctrl
.LEHE50:
.LBE3437:
.LBE3436:
.LBE3435:
.LBE3443:
.LBE3445:
.LBB3446:
.LBB3447:
.LBB3448:
.LBB3449:
.LBB3450:
.LBB3451:
	.loc 11 70 0
	lwz 3,20(28)
.LVL604:
	.loc 11 71 0
	cmpw 7,3,29
	bne+ 7,.L628
	b .L562
.LVL605:
.L613:
	.loc 11 74 0
	mr 3,31
.LVL606:
.L628:
.LBB3452:
	lwz 31,0(3)
.LVL607:
.LBB3453:
.LBB3454:
.LBB3455:
	.loc 7 98 0
	bl _ZdlPv
.LVL608:
.LBE3455:
.LBE3454:
.LBE3453:
.LBE3452:
	.loc 11 71 0
	cmpw 7,31,29
	bne+ 7,.L613
.LVL609:
.L562:
.LBE3451:
.LBE3450:
.LBE3449:
.LBE3448:
.LBE3447:
.LBE3446:
.LBE3497:
.LBE3505:
.LBE3513:
.LBE3522:
.LBE3531:
.LBE3540:
.LBB3541:
.LBB3542:
.LBB3543:
.LBB3544:
.LBB3545:
.LBB3546:
	.loc 1 826 0
	lis 9,_ZTVN7sigslot13_signal_base2IP10GuiElementbNS_15single_threadedEEE+8@ha
.LBE3546:
.LBE3545:
.LBE3544:
.LBE3543:
.LBE3542:
.LBE3541:
.LBB3651:
.LBB3532:
.LBB3523:
.LBB3514:
.LBB3506:
.LBB3498:
.LBB3456:
.LBB3457:
.LBB3458:
.LBB3459:
.LBB3460:
.LBB3461:
	.loc 1 105 0
	lis 26,_ZTVN7sigslot15single_threadedE+8@ha
.LBE3461:
.LBE3460:
.LBE3459:
.LBE3458:
.LBE3457:
.LBE3456:
.LBE3498:
.LBE3506:
.LBE3514:
.LBE3523:
.LBE3532:
.LBE3651:
.LBB3652:
.LBB3645:
.LBB3639:
.LBB3633:
.LBB3627:
.LBB3621:
	.loc 1 826 0
	la 0,_ZTVN7sigslot13_signal_base2IP10GuiElementbNS_15single_threadedEEE+8@l(9)
.LBB3547:
.LBB3548:
.LBB3549:
.LBB3550:
	.loc 1 338 0
	lis 9,_ZN7sigslot15single_threaded4lockEv@ha
.LBE3550:
.LBE3549:
.LBE3548:
.LBE3547:
.LBE3621:
.LBE3627:
.LBE3633:
.LBE3639:
.LBE3645:
.LBE3652:
.LBB3653:
.LBB3533:
.LBB3524:
.LBB3515:
.LBB3507:
.LBB3499:
.LBB3472:
.LBB3470:
.LBB3468:
.LBB3466:
.LBB3464:
.LBB3462:
	.loc 1 105 0
	la 26,_ZTVN7sigslot15single_threadedE+8@l(26)
.LBE3462:
.LBE3464:
.LBE3466:
.LBE3468:
.LBE3470:
.LBE3472:
.LBE3499:
.LBE3507:
.LBE3515:
.LBE3524:
.LBE3533:
.LBE3653:
.LBB3654:
.LBB3646:
.LBB3640:
	.loc 1 2238 0
	addi 27,28,4
.LVL610:
.LBB3634:
.LBB3628:
.LBB3622:
.LBB3586:
.LBB3581:
.LBB3553:
.LBB3551:
	.loc 1 338 0
	la 9,_ZN7sigslot15single_threaded4lockEv@l(9)
.LBE3551:
.LBE3553:
.LBE3581:
.LBE3586:
.LBE3622:
.LBE3628:
.LBE3634:
.LBE3640:
.LBE3646:
.LBE3654:
.LBB3655:
.LBB3534:
.LBB3525:
.LBB3516:
.LBB3508:
.LBB3500:
.LBB3473:
.LBB3471:
.LBB3469:
.LBB3467:
.LBB3465:
.LBB3463:
	.loc 1 105 0
	stw 26,16(28)
.LVL611:
.LBE3463:
.LBE3465:
.LBE3467:
.LBE3469:
.LBE3471:
.LBE3473:
.LBE3500:
.LBE3508:
.LBE3516:
.LBE3525:
.LBE3534:
.LBE3655:
.LBB3656:
.LBB3647:
.LBB3641:
.LBB3635:
.LBB3629:
.LBB3623:
	.loc 1 826 0
	stw 0,4(28)
.LVL612:
.LBB3587:
.LBB3582:
.LBB3554:
.LBB3552:
	.loc 1 338 0
	mr 3,27
	mtctr 9
	addi 29,28,8
.LVL613:
.LEHB51:
	bctrl
.LEHE51:
.LBE3552:
.LBE3554:
.LBE3582:
	.loc 3 56 0
	mr 29,28
	lwzu 31,8(29)
.LVL614:
.LBB3583:
	.loc 1 834 0
	cmpw 7,31,29
	beq- 7,.L577
.LVL615:
.L622:
	.loc 1 836 0
	lwz 3,8(31)
	lwz 9,0(3)
	lwz 0,8(9)
	mtctr 0
.LEHB52:
	bctrl
	stw 27,8(1)
	mr 30,3
.LVL616:
.LBB3555:
.LBB3556:
.LBB3557:
.LBB3558:
	.loc 1 338 0
	lwz 9,0(3)
	lwz 0,8(9)
	mtctr 0
	bctrl
.LVL617:
.LBE3558:
.LBE3557:
.LBB3559:
.LBB3560:
	.loc 10 528 0
	addi 3,30,4
	addi 4,1,8
.LVL618:
	bl _ZNSt8_Rb_treeIPN7sigslot12_signal_baseINS0_15single_threadedEEES4_St9_IdentityIS4_ESt4lessIS4_ESaIS4_EE5eraseERKS4_
.LVL619:
.LBE3560:
.LBE3559:
.LBB3561:
.LBB3562:
.LBB3563:
	.loc 1 343 0
	lwz 9,0(30)
	mr 3,30
	lwz 0,12(9)
	mtctr 0
	bctrl
.LVL620:
.LBE3563:
.LBE3562:
.LBE3561:
.LBE3556:
.LBE3555:
	.loc 1 837 0
	lwz 3,8(31)
	cmpwi 7,3,0
	beq- 7,.L579
	lwz 9,0(3)
	lwz 0,4(9)
	mtctr 0
	bctrl
.LEHE52:
.L579:
.LVL621:
.LBB3564:
.LBB3565:
	.loc 4 234 0
	lwz 31,0(31)
.LVL622:
.LBE3565:
.LBE3564:
	.loc 1 834 0
	cmpw 7,29,31
	bne+ 7,.L622
.LBE3583:
	.loc 3 56 0
	lwz 31,8(28)
.LVL623:
.LBB3584:
.LBB3566:
.LBB3567:
	.loc 4 1162 0
	cmpw 7,29,31
	bne+ 7,.L631
	b .L577
.LVL624:
.L615:
	.loc 4 1163 0
	mr 31,30
.LVL625:
.L631:
.LBB3568:
.LBB3569:
	.loc 11 112 0
	lwz 30,0(31)
.LVL626:
.LBB3570:
.LBB3571:
	.loc 4 1532 0
	mr 3,31
	bl _ZNSt8__detail15_List_node_base9_M_unhookEv
.LVL627:
.LBB3572:
.LBB3573:
.LBB3574:
	.loc 7 98 0
	mr 3,31
	bl _ZdlPv
.LVL628:
.LBE3574:
.LBE3573:
.LBE3572:
.LBE3571:
.LBE3570:
.LBE3569:
.LBE3568:
	.loc 4 1162 0
	cmpw 7,29,30
	bne+ 7,.L615
.LVL629:
.L577:
.LBE3567:
.LBE3566:
.LBB3575:
.LBB3576:
.LBB3577:
	.loc 1 343 0
	lwz 9,4(28)
	mr 3,27
	lwz 0,12(9)
	mtctr 0
.LEHB53:
	bctrl
.LEHE53:
.LBE3577:
.LBE3576:
.LBE3575:
.LBE3584:
.LBE3587:
.LBB3588:
.LBB3589:
.LBB3590:
.LBB3591:
.LBB3592:
.LBB3593:
	.loc 11 70 0
	lwz 3,8(28)
.LVL630:
	.loc 11 71 0
	cmpw 7,3,29
	bne+ 7,.L633
	b .L595
.LVL631:
.L616:
	.loc 11 74 0
	mr 3,31
.LVL632:
.L633:
.LBB3594:
	lwz 31,0(3)
.LVL633:
.LBB3595:
.LBB3596:
.LBB3597:
	.loc 7 98 0
	bl _ZdlPv
.LVL634:
.LBE3597:
.LBE3596:
.LBE3595:
.LBE3594:
	.loc 11 71 0
	cmpw 7,31,29
	bne+ 7,.L616
.LVL635:
.L595:
.LBE3593:
.LBE3592:
.LBE3591:
.LBE3590:
.LBE3589:
.LBE3588:
.LBE3623:
.LBE3629:
.LBE3635:
.LBE3641:
.LBE3647:
.LBE3656:
.LBE3666:
.LBE3671:
.LBE3676:
.LBE3681:
	.loc 6 29 0
	lwz 0,52(1)
.LBB3682:
.LBB3677:
.LBB3672:
.LBB3667:
.LBB3657:
.LBB3648:
.LBB3642:
.LBB3636:
.LBB3630:
.LBB3624:
.LBB3598:
.LBB3599:
.LBB3600:
.LBB3601:
.LBB3602:
.LBB3603:
	.loc 1 105 0
	stw 26,4(28)
.LBE3603:
.LBE3602:
.LBE3601:
.LBE3600:
.LBE3599:
.LBE3598:
.LBE3624:
.LBE3630:
.LBE3636:
.LBE3642:
.LBE3648:
.LBE3657:
.LBE3667:
.LBE3672:
.LBE3677:
.LBE3682:
	.loc 6 29 0
	mtlr 0
	lwz 26,24(1)
	lwz 27,28(1)
.LVL636:
	lwz 28,32(1)
.LVL637:
	lwz 29,36(1)
.LVL638:
	lwz 30,40(1)
	lwz 31,44(1)
	addi 1,1,48
	.cfi_remember_state
.LCFI68:
	.cfi_def_cfa_offset 0
	.cfi_restore 31
	.cfi_restore 30
	.cfi_restore 29
	.cfi_restore 28
	.cfi_restore 27
	.cfi_restore 26
	blr
.LVL639:
.L618:
.LCFI69:
	.cfi_restore_state
	mr 31,3
.L554:
.LBB3683:
.LBB3678:
.LBB3673:
.LBB3668:
.LBB3658:
.LBB3535:
.LBB3526:
.LBB3517:
.LBB3509:
.LBB3501:
.LBB3474:
.LBB3475:
.LBB3476:
.LBB3477:
.LBB3478:
.LBB3479:
	.loc 11 70 0
	lwz 3,20(28)
.LVL640:
	.loc 11 71 0
	cmpw 7,3,29
	beq- 7,.L571
.LVL641:
.L630:
.LBB3480:
	.loc 11 74 0
	lwz 30,0(3)
.LVL642:
.LBB3481:
.LBB3482:
.LBB3483:
	.loc 7 98 0
	bl _ZdlPv
.LVL643:
.LBE3483:
.LBE3482:
.LBE3481:
.LBE3480:
	.loc 11 71 0
	cmpw 7,30,29
	beq- 7,.L571
	.loc 11 74 0
	mr 3,30
	b .L630
.LVL644:
.L621:
.LBE3479:
.LBE3478:
.LBE3477:
.LBE3476:
.LBE3475:
.LBE3474:
.LBE3501:
.LBE3509:
.LBE3517:
.LBE3526:
.LBE3535:
.LBE3658:
.LBB3659:
.LBB3649:
.LBB3643:
.LBB3637:
.LBB3631:
.LBB3625:
.LBB3604:
.LBB3585:
.LBB3578:
.LBB3579:
.LBB3580:
	.loc 1 343 0
	lwz 9,4(28)
	mr 31,3
.LVL645:
	mr 3,27
	lwz 0,12(9)
	mtctr 0
	bctrl
.LVL646:
.L587:
.LBE3580:
.LBE3579:
.LBE3578:
.LBE3585:
.LBE3604:
.LBB3605:
.LBB3606:
.LBB3607:
.LBB3608:
.LBB3609:
.LBB3610:
	.loc 11 70 0
	lwz 3,8(28)
.LVL647:
	.loc 11 71 0
	cmpw 7,3,29
	beq- 7,.L604
.LVL648:
.L634:
.LBB3611:
	.loc 11 74 0
	lwz 30,0(3)
.LVL649:
.LBB3612:
.LBB3613:
.LBB3614:
	.loc 7 98 0
	bl _ZdlPv
.LVL650:
.LBE3614:
.LBE3613:
.LBE3612:
.LBE3611:
	.loc 11 71 0
	cmpw 7,30,29
	beq- 7,.L604
	.loc 11 74 0
	mr 3,30
	b .L634
.LVL651:
.L571:
.LBE3610:
.LBE3609:
.LBE3608:
.LBE3607:
.LBE3606:
.LBE3605:
.LBE3625:
.LBE3631:
.LBE3637:
.LBE3643:
.LBE3649:
.LBE3659:
.LBB3660:
.LBB3536:
.LBB3527:
.LBB3518:
.LBB3510:
.LBB3502:
.LBB3484:
.LBB3485:
.LBB3486:
.LBB3487:
.LBB3488:
.LBB3489:
	.loc 1 105 0
	lis 9,_ZTVN7sigslot15single_threadedE+8@ha
.LBE3489:
.LBE3488:
.LBE3487:
.LBE3486:
.LBE3485:
.LBE3484:
.LBE3502:
.LBE3510:
.LBE3518:
.LBE3527:
.LBE3536:
.LBE3660:
	.loc 2 89 0
	addi 3,28,4
.LBB3661:
.LBB3537:
.LBB3528:
.LBB3519:
.LBB3511:
.LBB3503:
.LBB3495:
.LBB3494:
.LBB3493:
.LBB3492:
.LBB3491:
.LBB3490:
	.loc 1 105 0
	la 0,_ZTVN7sigslot15single_threadedE+8@l(9)
	stw 0,16(28)
.LBE3490:
.LBE3491:
.LBE3492:
.LBE3493:
.LBE3494:
.LBE3495:
.LBE3503:
.LBE3511:
.LBE3519:
.LBE3528:
.LBE3537:
.LBE3661:
	.loc 2 89 0
	bl _ZN7sigslot7signal2IP10GuiElementbNS_15single_threadedEED1Ev
	mr 3,31
.LEHB54:
	bl _Unwind_Resume
.LVL652:
.L604:
.LBB3662:
.LBB3650:
.LBB3644:
.LBB3638:
.LBB3632:
.LBB3626:
.LBB3615:
.LBB3616:
.LBB3617:
.LBB3618:
.LBB3619:
.LBB3620:
	.loc 1 105 0
	stw 26,4(28)
	mr 3,31
	bl _Unwind_Resume
.LEHE54:
.LVL653:
.L620:
	mr 31,3
	b .L587
.LVL654:
.L619:
.LBE3620:
.LBE3619:
.LBE3618:
.LBE3617:
.LBE3616:
.LBE3615:
.LBE3626:
.LBE3632:
.LBE3638:
.LBE3644:
.LBE3650:
.LBE3662:
.LBB3663:
.LBB3538:
.LBB3529:
.LBB3520:
.LBB3512:
.LBB3504:
.LBB3496:
.LBB3444:
.LBB3438:
.LBB3439:
.LBB3440:
	.loc 1 343 0
	lwz 9,16(28)
	mr 31,3
.LVL655:
	mr 3,27
	lwz 0,12(9)
	mtctr 0
	bctrl
	b .L554
.LBE3440:
.LBE3439:
.LBE3438:
.LBE3444:
.LBE3496:
.LBE3504:
.LBE3512:
.LBE3520:
.LBE3529:
.LBE3538:
.LBE3663:
.LBE3668:
.LBE3673:
.LBE3678:
.LBE3683:
	.cfi_endproc
.LFE1709:
	.section	.gcc_except_table
.LLSDA1709:
	.byte	0xff
	.byte	0xff
	.byte	0x1
	.uleb128 .LLSDACSE1709-.LLSDACSB1709
.LLSDACSB1709:
	.uleb128 .LEHB48-.LFB1709
	.uleb128 .LEHE48-.LEHB48
	.uleb128 .L618-.LFB1709
	.uleb128 0
	.uleb128 .LEHB49-.LFB1709
	.uleb128 .LEHE49-.LEHB49
	.uleb128 .L619-.LFB1709
	.uleb128 0
	.uleb128 .LEHB50-.LFB1709
	.uleb128 .LEHE50-.LEHB50
	.uleb128 .L618-.LFB1709
	.uleb128 0
	.uleb128 .LEHB51-.LFB1709
	.uleb128 .LEHE51-.LEHB51
	.uleb128 .L620-.LFB1709
	.uleb128 0
	.uleb128 .LEHB52-.LFB1709
	.uleb128 .LEHE52-.LEHB52
	.uleb128 .L621-.LFB1709
	.uleb128 0
	.uleb128 .LEHB53-.LFB1709
	.uleb128 .LEHE53-.LEHB53
	.uleb128 .L620-.LFB1709
	.uleb128 0
	.uleb128 .LEHB54-.LFB1709
	.uleb128 .LEHE54-.LEHB54
	.uleb128 0
	.uleb128 0
.LLSDACSE1709:
	.section	.text._ZN12GuiChecksignD2Ev,"axG",@progbits,_ZN12GuiChecksignD5Ev,comdat
	.size	_ZN12GuiChecksignD2Ev, .-_ZN12GuiChecksignD2Ev
	.section	.text._ZN12GuiChecksignD0Ev,"axG",@progbits,_ZN12GuiChecksignD5Ev,comdat
	.align 2
	.weak	_ZN12GuiChecksignD0Ev
	.type	_ZN12GuiChecksignD0Ev, @function
_ZN12GuiChecksignD0Ev:
.LFB1711:
	.loc 6 29 0
	.cfi_startproc
	.cfi_personality 0,__gxx_personality_v0
	.cfi_lsda 0,.LLSDA1711
.LVL656:
	mflr 0
	stwu 1,-48(1)
.LCFI70:
	.cfi_def_cfa_offset 48
	.cfi_register 65, 0
.LBB3888:
.LBB3889:
.LBB3890:
.LBB3891:
.LBB3892:
.LBB3893:
	.loc 2 89 0
	lis 9,_ZTV10GuiElement+8@ha
.LBE3893:
.LBE3892:
.LBE3891:
.LBE3890:
.LBE3889:
.LBE3888:
	.loc 6 29 0
	stw 27,28(1)
.LBB4169:
.LBB4165:
.LBB4161:
.LBB4157:
.LBB4153:
.LBB4149:
.LBB3894:
.LBB3895:
.LBB3896:
	.loc 1 2305 0
	addi 27,3,16
	.cfi_offset 27, -20
.LBE3896:
.LBE3895:
.LBE3894:
.LBE4149:
.LBE4153:
.LBE4157:
.LBE4161:
.LBE4165:
.LBE4169:
	.loc 6 29 0
	stw 0,52(1)
.LBB4170:
.LBB4166:
.LBB4162:
.LBB4158:
.LBB4154:
.LBB4150:
	.loc 2 89 0
	la 0,_ZTV10GuiElement+8@l(9)
	.cfi_offset 65, 4
.LBB4030:
.LBB4021:
.LBB4012:
.LBB3897:
.LBB3898:
.LBB3899:
	.loc 1 946 0
	lis 9,_ZTVN7sigslot13_signal_base3IP10GuiElementiiNS_15single_threadedEEE+8@ha
.LBE3899:
.LBE3898:
.LBE3897:
.LBE4012:
.LBE4021:
.LBE4030:
.LBE4150:
.LBE4154:
.LBE4158:
.LBE4162:
.LBE4166:
.LBE4170:
	.loc 6 29 0
	stw 28,32(1)
	stw 29,36(1)
	mr 28,3
	.cfi_offset 29, -12
	.cfi_offset 28, -16
.LVL657:
	stw 26,24(1)
	addi 29,28,20
	stw 30,40(1)
	stw 31,44(1)
.LBB4171:
.LBB4167:
.LBB4163:
.LBB4159:
.LBB4155:
.LBB4151:
	.loc 2 89 0
	stw 0,0(3)
.LVL658:
.LBB4031:
.LBB4022:
.LBB4013:
.LBB4004:
.LBB3996:
.LBB3988:
	.loc 1 946 0
	la 0,_ZTVN7sigslot13_signal_base3IP10GuiElementiiNS_15single_threadedEEE+8@l(9)
.LBB3900:
.LBB3901:
.LBB3902:
.LBB3903:
	.loc 1 338 0
	lis 9,_ZN7sigslot15single_threaded4lockEv@ha
.LBE3903:
.LBE3902:
.LBE3901:
.LBE3900:
	.loc 1 946 0
	stw 0,16(3)
.LVL659:
.LBB3936:
.LBB3932:
.LBB3905:
.LBB3904:
	.loc 1 338 0
	la 9,_ZN7sigslot15single_threaded4lockEv@l(9)
	mr 3,27
.LVL660:
	mtctr 9
.LEHB55:
	.cfi_offset 31, -4
	.cfi_offset 30, -8
	.cfi_offset 26, -24
	bctrl
.LEHE55:
.LBE3904:
.LBE3905:
.LBE3932:
	.loc 3 56 0
	mr 29,28
.LVL661:
	lwzu 31,20(29)
.LVL662:
.LBB3933:
	.loc 1 954 0
	cmpw 7,31,29
	beq- 7,.L637
.LVL663:
.L717:
	.loc 1 956 0
	lwz 3,8(31)
	lwz 9,0(3)
	lwz 0,8(9)
	mtctr 0
.LEHB56:
	bctrl
	stw 27,8(1)
	mr 30,3
.LVL664:
.LBB3906:
.LBB3907:
.LBB3908:
.LBB3909:
	.loc 1 338 0
	lwz 9,0(3)
	lwz 0,8(9)
	mtctr 0
	bctrl
.LVL665:
.LBE3909:
.LBE3908:
.LBB3910:
.LBB3911:
	.loc 10 528 0
	addi 3,30,4
	addi 4,1,8
	bl _ZNSt8_Rb_treeIPN7sigslot12_signal_baseINS0_15single_threadedEEES4_St9_IdentityIS4_ESt4lessIS4_ESaIS4_EE5eraseERKS4_
.LVL666:
.LBE3911:
.LBE3910:
.LBB3912:
.LBB3913:
.LBB3914:
	.loc 1 343 0
	lwz 9,0(30)
	mr 3,30
	lwz 0,12(9)
	mtctr 0
	bctrl
.LVL667:
.LBE3914:
.LBE3913:
.LBE3912:
.LBE3907:
.LBE3906:
	.loc 1 957 0
	lwz 3,8(31)
	cmpwi 7,3,0
	beq- 7,.L639
	lwz 9,0(3)
	lwz 0,4(9)
	mtctr 0
	bctrl
.LEHE56:
.L639:
.LVL668:
.LBB3915:
.LBB3916:
	.loc 4 234 0
	lwz 31,0(31)
.LVL669:
.LBE3916:
.LBE3915:
	.loc 1 954 0
	cmpw 7,29,31
	bne+ 7,.L717
.LBE3933:
	.loc 3 56 0
	lwz 31,20(28)
.LVL670:
.LBB3934:
.LBB3917:
.LBB3918:
	.loc 4 1162 0
	cmpw 7,29,31
	bne+ 7,.L720
	b .L637
.LVL671:
.L706:
	.loc 4 1163 0
	mr 31,30
.LVL672:
.L720:
.LBB3919:
.LBB3920:
	.loc 11 112 0
	lwz 30,0(31)
.LVL673:
.LBB3921:
.LBB3922:
	.loc 4 1532 0
	mr 3,31
	bl _ZNSt8__detail15_List_node_base9_M_unhookEv
.LVL674:
.LBB3923:
.LBB3924:
.LBB3925:
	.loc 7 98 0
	mr 3,31
	bl _ZdlPv
.LVL675:
.LBE3925:
.LBE3924:
.LBE3923:
.LBE3922:
.LBE3921:
.LBE3920:
.LBE3919:
	.loc 4 1162 0
	cmpw 7,29,30
	bne+ 7,.L706
.LVL676:
.L637:
.LBE3918:
.LBE3917:
.LBB3926:
.LBB3927:
.LBB3928:
	.loc 1 343 0
	lwz 9,16(28)
	mr 3,27
	lwz 0,12(9)
	mtctr 0
.LEHB57:
	bctrl
.LEHE57:
.LBE3928:
.LBE3927:
.LBE3926:
.LBE3934:
.LBE3936:
.LBB3937:
.LBB3938:
.LBB3939:
.LBB3940:
.LBB3941:
.LBB3942:
	.loc 11 70 0
	lwz 3,20(28)
.LVL677:
	.loc 11 71 0
	cmpw 7,3,29
	bne+ 7,.L722
	b .L655
.LVL678:
.L707:
	.loc 11 74 0
	mr 3,31
.LVL679:
.L722:
.LBB3943:
	lwz 31,0(3)
.LVL680:
.LBB3944:
.LBB3945:
.LBB3946:
	.loc 7 98 0
	bl _ZdlPv
.LVL681:
.LBE3946:
.LBE3945:
.LBE3944:
.LBE3943:
	.loc 11 71 0
	cmpw 7,31,29
	bne+ 7,.L707
.LVL682:
.L655:
.LBE3942:
.LBE3941:
.LBE3940:
.LBE3939:
.LBE3938:
.LBE3937:
.LBE3988:
.LBE3996:
.LBE4004:
.LBE4013:
.LBE4022:
.LBE4031:
.LBB4032:
.LBB4033:
.LBB4034:
.LBB4035:
.LBB4036:
.LBB4037:
	.loc 1 826 0
	lis 9,_ZTVN7sigslot13_signal_base2IP10GuiElementbNS_15single_threadedEEE+8@ha
.LBE4037:
.LBE4036:
.LBE4035:
.LBE4034:
.LBE4033:
.LBE4032:
.LBB4137:
.LBB4023:
.LBB4014:
.LBB4005:
.LBB3997:
.LBB3989:
.LBB3947:
.LBB3948:
.LBB3949:
.LBB3950:
.LBB3951:
.LBB3952:
	.loc 1 105 0
	lis 26,_ZTVN7sigslot15single_threadedE+8@ha
.LBE3952:
.LBE3951:
.LBE3950:
.LBE3949:
.LBE3948:
.LBE3947:
.LBE3989:
.LBE3997:
.LBE4005:
.LBE4014:
.LBE4023:
.LBE4137:
.LBB4138:
.LBB4132:
.LBB4127:
.LBB4122:
.LBB4117:
.LBB4112:
	.loc 1 826 0
	la 0,_ZTVN7sigslot13_signal_base2IP10GuiElementbNS_15single_threadedEEE+8@l(9)
.LBB4038:
.LBB4039:
.LBB4040:
.LBB4041:
	.loc 1 338 0
	lis 9,_ZN7sigslot15single_threaded4lockEv@ha
.LBE4041:
.LBE4040:
.LBE4039:
.LBE4038:
.LBE4112:
.LBE4117:
.LBE4122:
.LBE4127:
.LBE4132:
.LBE4138:
.LBB4139:
.LBB4024:
.LBB4015:
.LBB4006:
.LBB3998:
.LBB3990:
.LBB3963:
.LBB3961:
.LBB3959:
.LBB3957:
.LBB3955:
.LBB3953:
	.loc 1 105 0
	la 26,_ZTVN7sigslot15single_threadedE+8@l(26)
.LBE3953:
.LBE3955:
.LBE3957:
.LBE3959:
.LBE3961:
.LBE3963:
.LBE3990:
.LBE3998:
.LBE4006:
.LBE4015:
.LBE4024:
.LBE4139:
.LBB4140:
.LBB4133:
.LBB4128:
	.loc 1 2238 0
	addi 27,28,4
.LVL683:
.LBB4123:
.LBB4118:
.LBB4113:
.LBB4077:
.LBB4072:
.LBB4044:
.LBB4042:
	.loc 1 338 0
	la 9,_ZN7sigslot15single_threaded4lockEv@l(9)
.LBE4042:
.LBE4044:
.LBE4072:
.LBE4077:
.LBE4113:
.LBE4118:
.LBE4123:
.LBE4128:
.LBE4133:
.LBE4140:
.LBB4141:
.LBB4025:
.LBB4016:
.LBB4007:
.LBB3999:
.LBB3991:
.LBB3964:
.LBB3962:
.LBB3960:
.LBB3958:
.LBB3956:
.LBB3954:
	.loc 1 105 0
	stw 26,16(28)
.LVL684:
.LBE3954:
.LBE3956:
.LBE3958:
.LBE3960:
.LBE3962:
.LBE3964:
.LBE3991:
.LBE3999:
.LBE4007:
.LBE4016:
.LBE4025:
.LBE4141:
.LBB4142:
.LBB4134:
.LBB4129:
.LBB4124:
.LBB4119:
.LBB4114:
	.loc 1 826 0
	stw 0,4(28)
.LVL685:
.LBB4078:
.LBB4073:
.LBB4045:
.LBB4043:
	.loc 1 338 0
	mr 3,27
	mtctr 9
	addi 29,28,8
.LVL686:
.LEHB58:
	bctrl
.LEHE58:
.LBE4043:
.LBE4045:
.LBE4073:
	.loc 3 56 0
	mr 29,28
	lwzu 31,8(29)
.LVL687:
.LBB4074:
	.loc 1 834 0
	cmpw 7,31,29
	beq- 7,.L670
.LVL688:
.L716:
	.loc 1 836 0
	lwz 3,8(31)
	lwz 9,0(3)
	lwz 0,8(9)
	mtctr 0
.LEHB59:
	bctrl
	stw 27,8(1)
	mr 30,3
.LVL689:
.LBB4046:
.LBB4047:
.LBB4048:
.LBB4049:
	.loc 1 338 0
	lwz 9,0(3)
	lwz 0,8(9)
	mtctr 0
	bctrl
.LVL690:
.LBE4049:
.LBE4048:
.LBB4050:
.LBB4051:
	.loc 10 528 0
	addi 3,30,4
	addi 4,1,8
.LVL691:
	bl _ZNSt8_Rb_treeIPN7sigslot12_signal_baseINS0_15single_threadedEEES4_St9_IdentityIS4_ESt4lessIS4_ESaIS4_EE5eraseERKS4_
.LVL692:
.LBE4051:
.LBE4050:
.LBB4052:
.LBB4053:
.LBB4054:
	.loc 1 343 0
	lwz 9,0(30)
	mr 3,30
	lwz 0,12(9)
	mtctr 0
	bctrl
.LVL693:
.LBE4054:
.LBE4053:
.LBE4052:
.LBE4047:
.LBE4046:
	.loc 1 837 0
	lwz 3,8(31)
	cmpwi 7,3,0
	beq- 7,.L672
	lwz 9,0(3)
	lwz 0,4(9)
	mtctr 0
	bctrl
.LEHE59:
.L672:
.LVL694:
.LBB4055:
.LBB4056:
	.loc 4 234 0
	lwz 31,0(31)
.LVL695:
.LBE4056:
.LBE4055:
	.loc 1 834 0
	cmpw 7,29,31
	bne+ 7,.L716
.LBE4074:
	.loc 3 56 0
	lwz 31,8(28)
.LVL696:
.LBB4075:
.LBB4057:
.LBB4058:
	.loc 4 1162 0
	cmpw 7,29,31
	bne+ 7,.L725
	b .L670
.LVL697:
.L709:
	.loc 4 1163 0
	mr 31,30
.LVL698:
.L725:
.LBB4059:
.LBB4060:
	.loc 11 112 0
	lwz 30,0(31)
.LVL699:
.LBB4061:
.LBB4062:
	.loc 4 1532 0
	mr 3,31
	bl _ZNSt8__detail15_List_node_base9_M_unhookEv
.LVL700:
.LBB4063:
.LBB4064:
.LBB4065:
	.loc 7 98 0
	mr 3,31
	bl _ZdlPv
.LVL701:
.LBE4065:
.LBE4064:
.LBE4063:
.LBE4062:
.LBE4061:
.LBE4060:
.LBE4059:
	.loc 4 1162 0
	cmpw 7,29,30
	bne+ 7,.L709
.LVL702:
.L670:
.LBE4058:
.LBE4057:
.LBB4066:
.LBB4067:
.LBB4068:
	.loc 1 343 0
	lwz 9,4(28)
	mr 3,27
	lwz 0,12(9)
	mtctr 0
.LEHB60:
	bctrl
.LEHE60:
.LBE4068:
.LBE4067:
.LBE4066:
.LBE4075:
.LBE4078:
.LBB4079:
.LBB4080:
.LBB4081:
.LBB4082:
.LBB4083:
.LBB4084:
	.loc 11 70 0
	lwz 3,8(28)
.LVL703:
	.loc 11 71 0
	cmpw 7,3,29
	bne+ 7,.L727
	b .L688
.LVL704:
.L710:
	.loc 11 74 0
	mr 3,31
.LVL705:
.L727:
.LBB4085:
	lwz 31,0(3)
.LVL706:
.LBB4086:
.LBB4087:
.LBB4088:
	.loc 7 98 0
	bl _ZdlPv
.LVL707:
.LBE4088:
.LBE4087:
.LBE4086:
.LBE4085:
	.loc 11 71 0
	cmpw 7,31,29
	bne+ 7,.L710
.LVL708:
.L688:
.LBE4084:
.LBE4083:
.LBE4082:
.LBE4081:
.LBE4080:
.LBE4079:
.LBB4089:
.LBB4090:
.LBB4091:
.LBB4092:
.LBB4093:
.LBB4094:
	.loc 1 105 0
	stw 26,4(28)
.LBE4094:
.LBE4093:
.LBE4092:
.LBE4091:
.LBE4090:
.LBE4089:
.LBE4114:
.LBE4119:
.LBE4124:
.LBE4129:
.LBE4134:
.LBE4142:
.LBE4151:
.LBE4155:
.LBE4159:
.LBE4163:
.LBE4167:
.LBE4171:
	.loc 6 29 0
	mr 3,28
	bl _ZdlPv
	lwz 0,52(1)
	lwz 26,24(1)
	mtlr 0
	lwz 27,28(1)
.LVL709:
	lwz 28,32(1)
.LVL710:
	lwz 29,36(1)
.LVL711:
	lwz 30,40(1)
	lwz 31,44(1)
	addi 1,1,48
	.cfi_remember_state
.LCFI71:
	.cfi_def_cfa_offset 0
	.cfi_restore 31
	.cfi_restore 30
	.cfi_restore 29
	.cfi_restore 28
	.cfi_restore 27
	.cfi_restore 26
	blr
.LVL712:
.L712:
.LCFI72:
	.cfi_restore_state
	mr 31,3
.L647:
.LBB4172:
.LBB4168:
.LBB4164:
.LBB4160:
.LBB4156:
.LBB4152:
.LBB4143:
.LBB4026:
.LBB4017:
.LBB4008:
.LBB4000:
.LBB3992:
.LBB3965:
.LBB3966:
.LBB3967:
.LBB3968:
.LBB3969:
.LBB3970:
	.loc 11 70 0
	lwz 3,20(28)
.LVL713:
	.loc 11 71 0
	cmpw 7,3,29
	beq- 7,.L664
.LVL714:
.L724:
.LBB3971:
	.loc 11 74 0
	lwz 30,0(3)
.LVL715:
.LBB3972:
.LBB3973:
.LBB3974:
	.loc 7 98 0
	bl _ZdlPv
.LVL716:
.LBE3974:
.LBE3973:
.LBE3972:
.LBE3971:
	.loc 11 71 0
	cmpw 7,30,29
	beq- 7,.L664
	.loc 11 74 0
	mr 3,30
	b .L724
.LVL717:
.L715:
.LBE3970:
.LBE3969:
.LBE3968:
.LBE3967:
.LBE3966:
.LBE3965:
.LBE3992:
.LBE4000:
.LBE4008:
.LBE4017:
.LBE4026:
.LBE4143:
.LBB4144:
.LBB4135:
.LBB4130:
.LBB4125:
.LBB4120:
.LBB4115:
.LBB4095:
.LBB4076:
.LBB4069:
.LBB4070:
.LBB4071:
	.loc 1 343 0
	lwz 9,4(28)
	mr 31,3
.LVL718:
	mr 3,27
	lwz 0,12(9)
	mtctr 0
	bctrl
.LVL719:
.L680:
.LBE4071:
.LBE4070:
.LBE4069:
.LBE4076:
.LBE4095:
.LBB4096:
.LBB4097:
.LBB4098:
.LBB4099:
.LBB4100:
.LBB4101:
	.loc 11 70 0
	lwz 3,8(28)
.LVL720:
	.loc 11 71 0
	cmpw 7,3,29
	beq- 7,.L697
.LVL721:
.L728:
.LBB4102:
	.loc 11 74 0
	lwz 30,0(3)
.LVL722:
.LBB4103:
.LBB4104:
.LBB4105:
	.loc 7 98 0
	bl _ZdlPv
.LVL723:
.LBE4105:
.LBE4104:
.LBE4103:
.LBE4102:
	.loc 11 71 0
	cmpw 7,30,29
	beq- 7,.L697
	.loc 11 74 0
	mr 3,30
	b .L728
.LVL724:
.L664:
.LBE4101:
.LBE4100:
.LBE4099:
.LBE4098:
.LBE4097:
.LBE4096:
.LBE4115:
.LBE4120:
.LBE4125:
.LBE4130:
.LBE4135:
.LBE4144:
.LBB4145:
.LBB4027:
.LBB4018:
.LBB4009:
.LBB4001:
.LBB3993:
.LBB3975:
.LBB3976:
.LBB3977:
.LBB3978:
.LBB3979:
.LBB3980:
	.loc 1 105 0
	lis 9,_ZTVN7sigslot15single_threadedE+8@ha
.LBE3980:
.LBE3979:
.LBE3978:
.LBE3977:
.LBE3976:
.LBE3975:
.LBE3993:
.LBE4001:
.LBE4009:
.LBE4018:
.LBE4027:
.LBE4145:
	.loc 2 89 0
	addi 3,28,4
.LBB4146:
.LBB4028:
.LBB4019:
.LBB4010:
.LBB4002:
.LBB3994:
.LBB3986:
.LBB3985:
.LBB3984:
.LBB3983:
.LBB3982:
.LBB3981:
	.loc 1 105 0
	la 0,_ZTVN7sigslot15single_threadedE+8@l(9)
	stw 0,16(28)
.LBE3981:
.LBE3982:
.LBE3983:
.LBE3984:
.LBE3985:
.LBE3986:
.LBE3994:
.LBE4002:
.LBE4010:
.LBE4019:
.LBE4028:
.LBE4146:
	.loc 2 89 0
	bl _ZN7sigslot7signal2IP10GuiElementbNS_15single_threadedEED1Ev
	mr 3,31
.LEHB61:
	bl _Unwind_Resume
.LVL725:
.L697:
.LBB4147:
.LBB4136:
.LBB4131:
.LBB4126:
.LBB4121:
.LBB4116:
.LBB4106:
.LBB4107:
.LBB4108:
.LBB4109:
.LBB4110:
.LBB4111:
	.loc 1 105 0
	stw 26,4(28)
	mr 3,31
	bl _Unwind_Resume
.LEHE61:
.LVL726:
.L714:
	mr 31,3
	b .L680
.LVL727:
.L713:
.LBE4111:
.LBE4110:
.LBE4109:
.LBE4108:
.LBE4107:
.LBE4106:
.LBE4116:
.LBE4121:
.LBE4126:
.LBE4131:
.LBE4136:
.LBE4147:
.LBB4148:
.LBB4029:
.LBB4020:
.LBB4011:
.LBB4003:
.LBB3995:
.LBB3987:
.LBB3935:
.LBB3929:
.LBB3930:
.LBB3931:
	.loc 1 343 0
	lwz 9,16(28)
	mr 31,3
.LVL728:
	mr 3,27
	lwz 0,12(9)
	mtctr 0
	bctrl
	b .L647
.LBE3931:
.LBE3930:
.LBE3929:
.LBE3935:
.LBE3987:
.LBE3995:
.LBE4003:
.LBE4011:
.LBE4020:
.LBE4029:
.LBE4148:
.LBE4152:
.LBE4156:
.LBE4160:
.LBE4164:
.LBE4168:
.LBE4172:
	.cfi_endproc
.LFE1711:
	.section	.gcc_except_table
.LLSDA1711:
	.byte	0xff
	.byte	0xff
	.byte	0x1
	.uleb128 .LLSDACSE1711-.LLSDACSB1711
.LLSDACSB1711:
	.uleb128 .LEHB55-.LFB1711
	.uleb128 .LEHE55-.LEHB55
	.uleb128 .L712-.LFB1711
	.uleb128 0
	.uleb128 .LEHB56-.LFB1711
	.uleb128 .LEHE56-.LEHB56
	.uleb128 .L713-.LFB1711
	.uleb128 0
	.uleb128 .LEHB57-.LFB1711
	.uleb128 .LEHE57-.LEHB57
	.uleb128 .L712-.LFB1711
	.uleb128 0
	.uleb128 .LEHB58-.LFB1711
	.uleb128 .LEHE58-.LEHB58
	.uleb128 .L714-.LFB1711
	.uleb128 0
	.uleb128 .LEHB59-.LFB1711
	.uleb128 .LEHE59-.LEHB59
	.uleb128 .L715-.LFB1711
	.uleb128 0
	.uleb128 .LEHB60-.LFB1711
	.uleb128 .LEHE60-.LEHB60
	.uleb128 .L714-.LFB1711
	.uleb128 0
	.uleb128 .LEHB61-.LFB1711
	.uleb128 .LEHE61-.LEHB61
	.uleb128 0
	.uleb128 0
.LLSDACSE1711:
	.section	.text._ZN12GuiChecksignD0Ev,"axG",@progbits,_ZN12GuiChecksignD5Ev,comdat
	.size	_ZN12GuiChecksignD0Ev, .-_ZN12GuiChecksignD0Ev
	.section	.text._ZN7sigslot7signal2IP10GuiElementbNS_15single_threadedEED0Ev,"axG",@progbits,_ZN7sigslot7signal2IP10GuiElementbNS_15single_threadedEED5Ev,comdat
	.align 2
	.weak	_ZN7sigslot7signal2IP10GuiElementbNS_15single_threadedEED0Ev
	.type	_ZN7sigslot7signal2IP10GuiElementbNS_15single_threadedEED0Ev, @function
_ZN7sigslot7signal2IP10GuiElementbNS_15single_threadedEED0Ev:
.LFB1481:
	.loc 1 2235 0
	.cfi_startproc
	.cfi_personality 0,__gxx_personality_v0
	.cfi_lsda 0,.LLSDA1481
.LVL729:
	mflr 0
	stwu 1,-40(1)
.LCFI73:
	.cfi_def_cfa_offset 40
	.cfi_register 65, 0
.LBB4271:
.LBB4272:
.LBB4273:
.LBB4274:
.LBB4275:
.LBB4276:
	.loc 1 826 0
	lis 9,_ZTVN7sigslot13_signal_base2IP10GuiElementbNS_15single_threadedEEE+8@ha
.LBE4276:
.LBE4275:
.LBE4274:
.LBE4273:
.LBE4272:
.LBE4271:
	.loc 1 2235 0
	stw 28,24(1)
	mr 28,3
	.cfi_offset 28, -16
.LVL730:
	stw 0,44(1)
.LBB4373:
.LBB4369:
.LBB4365:
.LBB4361:
.LBB4357:
.LBB4353:
	.loc 1 826 0
	la 0,_ZTVN7sigslot13_signal_base2IP10GuiElementbNS_15single_threadedEEE+8@l(9)
	.cfi_offset 65, 4
.LBE4353:
.LBE4357:
.LBE4361:
.LBE4365:
.LBE4369:
.LBE4373:
	.loc 1 2235 0
	stw 29,28(1)
	addi 29,3,4
	.cfi_offset 29, -12
	stw 30,32(1)
	stw 31,36(1)
.LBB4374:
.LBB4370:
.LBB4366:
.LBB4362:
.LBB4358:
.LBB4354:
	.loc 1 826 0
	stw 0,0(3)
.LVL731:
.LEHB62:
.LBB4277:
.LBB4278:
.LBB4279:
.LBB4280:
	.loc 1 338 0
	.cfi_offset 31, -4
	.cfi_offset 30, -8
	bl _ZN7sigslot15single_threaded4lockEv
.LEHE62:
.LVL732:
.LBE4280:
.LBE4279:
.LBE4278:
	.loc 3 56 0
	mr 29,28
.LVL733:
	lwzu 31,4(29)
.LVL734:
.LBB4311:
	.loc 1 834 0
	cmpw 7,31,29
	beq- 7,.L730
.LVL735:
.L769:
	.loc 1 836 0
	lwz 3,8(31)
	lwz 9,0(3)
	lwz 0,8(9)
	mtctr 0
.LEHB63:
	bctrl
.LBB4281:
.LBB4282:
.LBB4283:
.LBB4284:
	.loc 1 338 0
	lwz 9,0(3)
.LBE4284:
.LBE4283:
.LBE4282:
.LBE4281:
	.loc 1 836 0
	mr 30,3
.LVL736:
	stw 28,8(1)
.LVL737:
.LBB4293:
.LBB4292:
.LBB4286:
.LBB4285:
	.loc 1 338 0
	lwz 0,8(9)
	mtctr 0
	bctrl
.LVL738:
.LBE4285:
.LBE4286:
.LBB4287:
.LBB4288:
	.loc 10 528 0
	addi 3,30,4
	addi 4,1,8
	bl _ZNSt8_Rb_treeIPN7sigslot12_signal_baseINS0_15single_threadedEEES4_St9_IdentityIS4_ESt4lessIS4_ESaIS4_EE5eraseERKS4_
.LVL739:
.LBE4288:
.LBE4287:
.LBB4289:
.LBB4290:
.LBB4291:
	.loc 1 343 0
	lwz 9,0(30)
	mr 3,30
	lwz 0,12(9)
	mtctr 0
	bctrl
.LVL740:
.LBE4291:
.LBE4290:
.LBE4289:
.LBE4292:
.LBE4293:
	.loc 1 837 0
	lwz 3,8(31)
	cmpwi 7,3,0
	beq- 7,.L732
	lwz 9,0(3)
	lwz 0,4(9)
	mtctr 0
	bctrl
.LEHE63:
.L732:
.LVL741:
.LBB4294:
.LBB4295:
	.loc 4 234 0
	lwz 31,0(31)
.LVL742:
.LBE4295:
.LBE4294:
	.loc 1 834 0
	cmpw 7,29,31
	bne+ 7,.L769
.LBE4311:
	.loc 3 56 0
	lwz 31,4(28)
.LVL743:
.LBB4312:
.LBB4296:
.LBB4297:
	.loc 4 1162 0
	cmpw 7,29,31
	bne+ 7,.L771
	b .L730
.LVL744:
.L764:
	.loc 4 1163 0
	mr 31,30
.LVL745:
.L771:
.LBB4298:
.LBB4299:
	.loc 11 112 0
	lwz 30,0(31)
.LVL746:
.LBB4300:
.LBB4301:
	.loc 4 1532 0
	mr 3,31
	bl _ZNSt8__detail15_List_node_base9_M_unhookEv
.LVL747:
.LBB4302:
.LBB4303:
.LBB4304:
	.loc 7 98 0
	mr 3,31
	bl _ZdlPv
.LVL748:
.LBE4304:
.LBE4303:
.LBE4302:
.LBE4301:
.LBE4300:
.LBE4299:
.LBE4298:
	.loc 4 1162 0
	cmpw 7,29,30
	bne+ 7,.L764
.LVL749:
.L730:
.LBE4297:
.LBE4296:
.LBB4305:
.LBB4306:
.LBB4307:
	.loc 1 343 0
	lwz 9,0(28)
	mr 3,28
	lwz 0,12(9)
	mtctr 0
.LEHB64:
	bctrl
.LEHE64:
.LBE4307:
.LBE4306:
.LBE4305:
.LBE4312:
.LBE4277:
.LBB4314:
.LBB4315:
.LBB4316:
.LBB4317:
.LBB4318:
.LBB4319:
	.loc 11 70 0
	lwz 3,4(28)
.LVL750:
	.loc 11 71 0
	cmpw 7,3,29
	bne+ 7,.L773
	b .L748
.LVL751:
.L765:
	.loc 11 74 0
	mr 3,31
.LVL752:
.L773:
.LBB4320:
	lwz 31,0(3)
.LVL753:
.LBB4321:
.LBB4322:
.LBB4323:
	.loc 7 98 0
	bl _ZdlPv
.LVL754:
.LBE4323:
.LBE4322:
.LBE4321:
.LBE4320:
	.loc 11 71 0
	cmpw 7,31,29
	bne+ 7,.L765
.LVL755:
.L748:
.LBE4319:
.LBE4318:
.LBE4317:
.LBE4316:
.LBE4315:
.LBE4314:
.LBB4324:
.LBB4325:
.LBB4326:
.LBB4327:
.LBB4328:
.LBB4329:
	.loc 1 105 0
	lis 9,_ZTVN7sigslot15single_threadedE+8@ha
.LBE4329:
.LBE4328:
.LBE4327:
.LBE4326:
.LBE4325:
.LBE4324:
.LBE4354:
.LBE4358:
.LBE4362:
.LBE4366:
.LBE4370:
.LBE4374:
	.loc 1 2238 0
	mr 3,28
.LBB4375:
.LBB4371:
.LBB4367:
.LBB4363:
.LBB4359:
.LBB4355:
.LBB4335:
.LBB4334:
.LBB4333:
.LBB4332:
.LBB4331:
.LBB4330:
	.loc 1 105 0
	la 0,_ZTVN7sigslot15single_threadedE+8@l(9)
	stw 0,0(28)
.LBE4330:
.LBE4331:
.LBE4332:
.LBE4333:
.LBE4334:
.LBE4335:
.LBE4355:
.LBE4359:
.LBE4363:
.LBE4367:
.LBE4371:
.LBE4375:
	.loc 1 2238 0
	bl _ZdlPv
	lwz 0,44(1)
	lwz 28,24(1)
.LVL756:
	mtlr 0
	lwz 29,28(1)
.LVL757:
	lwz 30,32(1)
	lwz 31,36(1)
	addi 1,1,40
	.cfi_remember_state
.LCFI74:
	.cfi_def_cfa_offset 0
	.cfi_restore 31
	.cfi_restore 30
	.cfi_restore 29
	.cfi_restore 28
	blr
.LVL758:
.L767:
.LCFI75:
	.cfi_restore_state
	mr 31,3
.L740:
.LBB4376:
.LBB4372:
.LBB4368:
.LBB4364:
.LBB4360:
.LBB4356:
.LBB4336:
.LBB4337:
.LBB4338:
.LBB4339:
.LBB4340:
.LBB4341:
	.loc 11 70 0
	lwz 3,4(28)
.LVL759:
	.loc 11 71 0
	cmpw 7,3,29
	beq- 7,.L757
.LVL760:
.L774:
.LBB4342:
	.loc 11 74 0
	lwz 30,0(3)
.LVL761:
.LBB4343:
.LBB4344:
.LBB4345:
	.loc 7 98 0
	bl _ZdlPv
.LVL762:
.LBE4345:
.LBE4344:
.LBE4343:
.LBE4342:
	.loc 11 71 0
	cmpw 7,30,29
	beq- 7,.L757
	.loc 11 74 0
	mr 3,30
	b .L774
.LVL763:
.L768:
.LBE4341:
.LBE4340:
.LBE4339:
.LBE4338:
.LBE4337:
.LBE4336:
.LBB4346:
.LBB4313:
.LBB4308:
.LBB4309:
.LBB4310:
	.loc 1 343 0
	lwz 9,0(28)
	mr 31,3
.LVL764:
	mr 3,28
	lwz 0,12(9)
	mtctr 0
	bctrl
	b .L740
.LVL765:
.L757:
.LBE4310:
.LBE4309:
.LBE4308:
.LBE4313:
.LBE4346:
.LBB4347:
.LBB4348:
.LBB4349:
.LBB4350:
.LBB4351:
.LBB4352:
	.loc 1 105 0
	lis 9,_ZTVN7sigslot15single_threadedE+8@ha
	mr 3,31
	la 0,_ZTVN7sigslot15single_threadedE+8@l(9)
	stw 0,0(28)
.LEHB65:
	bl _Unwind_Resume
.LEHE65:
.LBE4352:
.LBE4351:
.LBE4350:
.LBE4349:
.LBE4348:
.LBE4347:
.LBE4356:
.LBE4360:
.LBE4364:
.LBE4368:
.LBE4372:
.LBE4376:
	.cfi_endproc
.LFE1481:
	.section	.gcc_except_table
.LLSDA1481:
	.byte	0xff
	.byte	0xff
	.byte	0x1
	.uleb128 .LLSDACSE1481-.LLSDACSB1481
.LLSDACSB1481:
	.uleb128 .LEHB62-.LFB1481
	.uleb128 .LEHE62-.LEHB62
	.uleb128 .L767-.LFB1481
	.uleb128 0
	.uleb128 .LEHB63-.LFB1481
	.uleb128 .LEHE63-.LEHB63
	.uleb128 .L768-.LFB1481
	.uleb128 0
	.uleb128 .LEHB64-.LFB1481
	.uleb128 .LEHE64-.LEHB64
	.uleb128 .L767-.LFB1481
	.uleb128 0
	.uleb128 .LEHB65-.LFB1481
	.uleb128 .LEHE65-.LEHB65
	.uleb128 0
	.uleb128 0
.LLSDACSE1481:
	.section	.text._ZN7sigslot7signal2IP10GuiElementbNS_15single_threadedEED0Ev,"axG",@progbits,_ZN7sigslot7signal2IP10GuiElementbNS_15single_threadedEED5Ev,comdat
	.size	_ZN7sigslot7signal2IP10GuiElementbNS_15single_threadedEED0Ev, .-_ZN7sigslot7signal2IP10GuiElementbNS_15single_threadedEED0Ev
	.weak	_ZTS12GuiChecksign
	.section	.rodata._ZTS12GuiChecksign,"aG",@progbits,_ZTS12GuiChecksign,comdat
	.align 2
	.type	_ZTS12GuiChecksign, @object
	.size	_ZTS12GuiChecksign, 15
_ZTS12GuiChecksign:
	.string	"12GuiChecksign"
	.weak	_ZTI12GuiChecksign
	.section	.rodata._ZTI12GuiChecksign,"aG",@progbits,_ZTI12GuiChecksign,comdat
	.align 2
	.type	_ZTI12GuiChecksign, @object
	.size	_ZTI12GuiChecksign, 12
_ZTI12GuiChecksign:
	.long	_ZTVN10__cxxabiv120__si_class_type_infoE+8
	.long	_ZTS12GuiChecksign
	.long	_ZTI10GuiElement
	.weak	_ZTV12GuiChecksign
	.section	.rodata._ZTV12GuiChecksign,"aG",@progbits,_ZTV12GuiChecksign,comdat
	.align 3
	.type	_ZTV12GuiChecksign, @object
	.size	_ZTV12GuiChecksign, 208
_ZTV12GuiChecksign:
	.long	0
	.long	_ZTI12GuiChecksign
	.long	_ZN12GuiChecksignD1Ev
	.long	_ZN12GuiChecksignD0Ev
	.long	_ZN10GuiElement9SetParentEPS_
	.long	_ZN10GuiElement9GetParentEv
	.long	_ZN10GuiElement7GetLeftEv
	.long	_ZN10GuiElement6GetTopEv
	.long	_ZN10GuiElement12GetZPositionEv
	.long	_ZN10GuiElement10GetLeftPosEv
	.long	_ZN10GuiElement9GetTopPosEv
	.long	_ZN10GuiElement8GetWidthEv
	.long	_ZN10GuiElement9GetHeightEv
	.long	_ZN12GuiChecksign7SetSizeEii
	.long	_ZN10GuiElement10SetVisibleEb
	.long	_ZN10GuiElement9IsVisibleEv
	.long	_ZN10GuiElement12IsSelectableEv
	.long	_ZN10GuiElement11IsClickableEv
	.long	_ZN10GuiElement10IsHoldableEv
	.long	_ZN10GuiElement13SetSelectableEb
	.long	_ZN10GuiElement12SetClickableEb
	.long	_ZN10GuiElement11SetHoldableEb
	.long	_ZN10GuiElement8SetStateEii
	.long	_ZN10GuiElement8GetStateEv
	.long	_ZN10GuiElement12GetStateChanEv
	.long	_ZN10GuiElement10ResetStateEv
	.long	_ZN10GuiElement8SetAlphaEi
	.long	_ZN10GuiElement8GetAlphaEv
	.long	_ZN10GuiElement8SetScaleEf
	.long	_ZN10GuiElement9SetScaleXEf
	.long	_ZN10GuiElement9SetScaleYEf
	.long	_ZN10GuiElement8GetScaleEv
	.long	_ZN10GuiElement9GetScaleXEv
	.long	_ZN10GuiElement9GetScaleYEv
	.long	_ZN10GuiElement6RumbleEv
	.long	_ZN10GuiElement9SetRumbleEb
	.long	_ZN10GuiElement9SetEffectEiii
	.long	_ZN10GuiElement15SetEffectOnOverEiii
	.long	_ZN10GuiElement13SetEffectGrowEv
	.long	_ZN10GuiElement12ResetEffectsEv
	.long	_ZNK10GuiElement9GetEffectEv
	.long	_ZNK10GuiElement10IsAnimatedEv
	.long	_ZN10GuiElement9SetBoundsE4RectIiE
	.long	_ZN10GuiElement8IsInsideEii
	.long	_ZN10GuiElement11SetPositionEii
	.long	_ZN10GuiElement11SetPositionEiii
	.long	_ZN10GuiElement11GetSelectedEv
	.long	_ZN10GuiElement12SetAlignmentEi
	.long	_ZNK10GuiElement12GetAlignmentEv
	.long	_ZN10GuiElement6UpdateEP10GuiTrigger
	.long	_ZN12GuiChecksign4DrawEv
	.long	_ZN10GuiElement13UpdateEffectsEv
	.weak	_ZTVN7sigslot7signal2IP10GuiElementbNS_15single_threadedEEE
	.section	.rodata._ZTVN7sigslot7signal2IP10GuiElementbNS_15single_threadedEEE,"aG",@progbits,_ZTVN7sigslot7signal2IP10GuiElementbNS_15single_threadedEEE,comdat
	.align 3
	.type	_ZTVN7sigslot7signal2IP10GuiElementbNS_15single_threadedEEE, @object
	.size	_ZTVN7sigslot7signal2IP10GuiElementbNS_15single_threadedEEE, 32
_ZTVN7sigslot7signal2IP10GuiElementbNS_15single_threadedEEE:
	.long	0
	.long	_ZTIN7sigslot7signal2IP10GuiElementbNS_15single_threadedEEE
	.long	_ZN7sigslot7signal2IP10GuiElementbNS_15single_threadedEED1Ev
	.long	_ZN7sigslot7signal2IP10GuiElementbNS_15single_threadedEED0Ev
	.long	_ZN7sigslot15single_threaded4lockEv
	.long	_ZN7sigslot15single_threaded6unlockEv
	.long	_ZN7sigslot13_signal_base2IP10GuiElementbNS_15single_threadedEE15slot_disconnectEPNS_9has_slotsIS3_EE
	.long	_ZN7sigslot13_signal_base2IP10GuiElementbNS_15single_threadedEE14slot_duplicateEPKNS_9has_slotsIS3_EEPS6_
	.weak	_ZTVN7sigslot13_signal_base2IP10GuiElementbNS_15single_threadedEEE
	.section	.rodata._ZTVN7sigslot13_signal_base2IP10GuiElementbNS_15single_threadedEEE,"aG",@progbits,_ZTVN7sigslot13_signal_base2IP10GuiElementbNS_15single_threadedEEE,comdat
	.align 3
	.type	_ZTVN7sigslot13_signal_base2IP10GuiElementbNS_15single_threadedEEE, @object
	.size	_ZTVN7sigslot13_signal_base2IP10GuiElementbNS_15single_threadedEEE, 32
_ZTVN7sigslot13_signal_base2IP10GuiElementbNS_15single_threadedEEE:
	.long	0
	.long	_ZTIN7sigslot13_signal_base2IP10GuiElementbNS_15single_threadedEEE
	.long	_ZN7sigslot13_signal_base2IP10GuiElementbNS_15single_threadedEED1Ev
	.long	_ZN7sigslot13_signal_base2IP10GuiElementbNS_15single_threadedEED0Ev
	.long	_ZN7sigslot15single_threaded4lockEv
	.long	_ZN7sigslot15single_threaded6unlockEv
	.long	_ZN7sigslot13_signal_base2IP10GuiElementbNS_15single_threadedEE15slot_disconnectEPNS_9has_slotsIS3_EE
	.long	_ZN7sigslot13_signal_base2IP10GuiElementbNS_15single_threadedEE14slot_duplicateEPKNS_9has_slotsIS3_EEPS6_
	.weak	_ZTVN7sigslot12_signal_baseINS_15single_threadedEEE
	.section	.rodata._ZTVN7sigslot12_signal_baseINS_15single_threadedEEE,"aG",@progbits,_ZTVN7sigslot12_signal_baseINS_15single_threadedEEE,comdat
	.align 3
	.type	_ZTVN7sigslot12_signal_baseINS_15single_threadedEEE, @object
	.size	_ZTVN7sigslot12_signal_baseINS_15single_threadedEEE, 32
_ZTVN7sigslot12_signal_baseINS_15single_threadedEEE:
	.long	0
	.long	_ZTIN7sigslot12_signal_baseINS_15single_threadedEEE
	.long	_ZN7sigslot12_signal_baseINS_15single_threadedEED1Ev
	.long	_ZN7sigslot12_signal_baseINS_15single_threadedEED0Ev
	.long	_ZN7sigslot15single_threaded4lockEv
	.long	_ZN7sigslot15single_threaded6unlockEv
	.long	__cxa_pure_virtual
	.long	__cxa_pure_virtual
	.weak	_ZTVN7sigslot15single_threadedE
	.section	.rodata._ZTVN7sigslot15single_threadedE,"aG",@progbits,_ZTVN7sigslot15single_threadedE,comdat
	.align 3
	.type	_ZTVN7sigslot15single_threadedE, @object
	.size	_ZTVN7sigslot15single_threadedE, 24
_ZTVN7sigslot15single_threadedE:
	.long	0
	.long	_ZTIN7sigslot15single_threadedE
	.long	_ZN7sigslot15single_threadedD1Ev
	.long	_ZN7sigslot15single_threadedD0Ev
	.long	_ZN7sigslot15single_threaded4lockEv
	.long	_ZN7sigslot15single_threaded6unlockEv
	.weak	_ZTVN7sigslot7signal3IP10GuiElementiiNS_15single_threadedEEE
	.section	.rodata._ZTVN7sigslot7signal3IP10GuiElementiiNS_15single_threadedEEE,"aG",@progbits,_ZTVN7sigslot7signal3IP10GuiElementiiNS_15single_threadedEEE,comdat
	.align 3
	.type	_ZTVN7sigslot7signal3IP10GuiElementiiNS_15single_threadedEEE, @object
	.size	_ZTVN7sigslot7signal3IP10GuiElementiiNS_15single_threadedEEE, 32
_ZTVN7sigslot7signal3IP10GuiElementiiNS_15single_threadedEEE:
	.long	0
	.long	_ZTIN7sigslot7signal3IP10GuiElementiiNS_15single_threadedEEE
	.long	_ZN7sigslot7signal3IP10GuiElementiiNS_15single_threadedEED1Ev
	.long	_ZN7sigslot7signal3IP10GuiElementiiNS_15single_threadedEED0Ev
	.long	_ZN7sigslot15single_threaded4lockEv
	.long	_ZN7sigslot15single_threaded6unlockEv
	.long	_ZN7sigslot13_signal_base3IP10GuiElementiiNS_15single_threadedEE15slot_disconnectEPNS_9has_slotsIS3_EE
	.long	_ZN7sigslot13_signal_base3IP10GuiElementiiNS_15single_threadedEE14slot_duplicateEPKNS_9has_slotsIS3_EEPS6_
	.weak	_ZTVN7sigslot13_signal_base3IP10GuiElementiiNS_15single_threadedEEE
	.section	.rodata._ZTVN7sigslot13_signal_base3IP10GuiElementiiNS_15single_threadedEEE,"aG",@progbits,_ZTVN7sigslot13_signal_base3IP10GuiElementiiNS_15single_threadedEEE,comdat
	.align 3
	.type	_ZTVN7sigslot13_signal_base3IP10GuiElementiiNS_15single_threadedEEE, @object
	.size	_ZTVN7sigslot13_signal_base3IP10GuiElementiiNS_15single_threadedEEE, 32
_ZTVN7sigslot13_signal_base3IP10GuiElementiiNS_15single_threadedEEE:
	.long	0
	.long	_ZTIN7sigslot13_signal_base3IP10GuiElementiiNS_15single_threadedEEE
	.long	_ZN7sigslot13_signal_base3IP10GuiElementiiNS_15single_threadedEED1Ev
	.long	_ZN7sigslot13_signal_base3IP10GuiElementiiNS_15single_threadedEED0Ev
	.long	_ZN7sigslot15single_threaded4lockEv
	.long	_ZN7sigslot15single_threaded6unlockEv
	.long	_ZN7sigslot13_signal_base3IP10GuiElementiiNS_15single_threadedEE15slot_disconnectEPNS_9has_slotsIS3_EE
	.long	_ZN7sigslot13_signal_base3IP10GuiElementiiNS_15single_threadedEE14slot_duplicateEPKNS_9has_slotsIS3_EEPS6_
	.weak	_ZTIN7sigslot7signal2IP10GuiElementbNS_15single_threadedEEE
	.section	.rodata._ZTIN7sigslot7signal2IP10GuiElementbNS_15single_threadedEEE,"aG",@progbits,_ZTIN7sigslot7signal2IP10GuiElementbNS_15single_threadedEEE,comdat
	.align 2
	.type	_ZTIN7sigslot7signal2IP10GuiElementbNS_15single_threadedEEE, @object
	.size	_ZTIN7sigslot7signal2IP10GuiElementbNS_15single_threadedEEE, 12
_ZTIN7sigslot7signal2IP10GuiElementbNS_15single_threadedEEE:
	.long	_ZTVN10__cxxabiv120__si_class_type_infoE+8
	.long	_ZTSN7sigslot7signal2IP10GuiElementbNS_15single_threadedEEE
	.long	_ZTIN7sigslot13_signal_base2IP10GuiElementbNS_15single_threadedEEE
	.weak	_ZTIN7sigslot13_signal_base2IP10GuiElementbNS_15single_threadedEEE
	.section	.rodata._ZTIN7sigslot13_signal_base2IP10GuiElementbNS_15single_threadedEEE,"aG",@progbits,_ZTIN7sigslot13_signal_base2IP10GuiElementbNS_15single_threadedEEE,comdat
	.align 2
	.type	_ZTIN7sigslot13_signal_base2IP10GuiElementbNS_15single_threadedEEE, @object
	.size	_ZTIN7sigslot13_signal_base2IP10GuiElementbNS_15single_threadedEEE, 12
_ZTIN7sigslot13_signal_base2IP10GuiElementbNS_15single_threadedEEE:
	.long	_ZTVN10__cxxabiv120__si_class_type_infoE+8
	.long	_ZTSN7sigslot13_signal_base2IP10GuiElementbNS_15single_threadedEEE
	.long	_ZTIN7sigslot12_signal_baseINS_15single_threadedEEE
	.weak	_ZTIN7sigslot12_signal_baseINS_15single_threadedEEE
	.section	.rodata._ZTIN7sigslot12_signal_baseINS_15single_threadedEEE,"aG",@progbits,_ZTIN7sigslot12_signal_baseINS_15single_threadedEEE,comdat
	.align 2
	.type	_ZTIN7sigslot12_signal_baseINS_15single_threadedEEE, @object
	.size	_ZTIN7sigslot12_signal_baseINS_15single_threadedEEE, 12
_ZTIN7sigslot12_signal_baseINS_15single_threadedEEE:
	.long	_ZTVN10__cxxabiv120__si_class_type_infoE+8
	.long	_ZTSN7sigslot12_signal_baseINS_15single_threadedEEE
	.long	_ZTIN7sigslot15single_threadedE
	.weak	_ZTIN7sigslot15single_threadedE
	.section	.sdata._ZTIN7sigslot15single_threadedE,"awG",@progbits,_ZTIN7sigslot15single_threadedE,comdat
	.align 2
	.type	_ZTIN7sigslot15single_threadedE, @object
	.size	_ZTIN7sigslot15single_threadedE, 8
_ZTIN7sigslot15single_threadedE:
	.long	_ZTVN10__cxxabiv117__class_type_infoE+8
	.long	_ZTSN7sigslot15single_threadedE
	.weak	_ZTIN7sigslot7signal3IP10GuiElementiiNS_15single_threadedEEE
	.section	.rodata._ZTIN7sigslot7signal3IP10GuiElementiiNS_15single_threadedEEE,"aG",@progbits,_ZTIN7sigslot7signal3IP10GuiElementiiNS_15single_threadedEEE,comdat
	.align 2
	.type	_ZTIN7sigslot7signal3IP10GuiElementiiNS_15single_threadedEEE, @object
	.size	_ZTIN7sigslot7signal3IP10GuiElementiiNS_15single_threadedEEE, 12
_ZTIN7sigslot7signal3IP10GuiElementiiNS_15single_threadedEEE:
	.long	_ZTVN10__cxxabiv120__si_class_type_infoE+8
	.long	_ZTSN7sigslot7signal3IP10GuiElementiiNS_15single_threadedEEE
	.long	_ZTIN7sigslot13_signal_base3IP10GuiElementiiNS_15single_threadedEEE
	.weak	_ZTIN7sigslot13_signal_base3IP10GuiElementiiNS_15single_threadedEEE
	.section	.rodata._ZTIN7sigslot13_signal_base3IP10GuiElementiiNS_15single_threadedEEE,"aG",@progbits,_ZTIN7sigslot13_signal_base3IP10GuiElementiiNS_15single_threadedEEE,comdat
	.align 2
	.type	_ZTIN7sigslot13_signal_base3IP10GuiElementiiNS_15single_threadedEEE, @object
	.size	_ZTIN7sigslot13_signal_base3IP10GuiElementiiNS_15single_threadedEEE, 12
_ZTIN7sigslot13_signal_base3IP10GuiElementiiNS_15single_threadedEEE:
	.long	_ZTVN10__cxxabiv120__si_class_type_infoE+8
	.long	_ZTSN7sigslot13_signal_base3IP10GuiElementiiNS_15single_threadedEEE
	.long	_ZTIN7sigslot12_signal_baseINS_15single_threadedEEE
	.weak	_ZTSN7sigslot7signal2IP10GuiElementbNS_15single_threadedEEE
	.section	.rodata._ZTSN7sigslot7signal2IP10GuiElementbNS_15single_threadedEEE,"aG",@progbits,_ZTSN7sigslot7signal2IP10GuiElementbNS_15single_threadedEEE,comdat
	.align 2
	.type	_ZTSN7sigslot7signal2IP10GuiElementbNS_15single_threadedEEE, @object
	.size	_ZTSN7sigslot7signal2IP10GuiElementbNS_15single_threadedEEE, 56
_ZTSN7sigslot7signal2IP10GuiElementbNS_15single_threadedEEE:
	.string	"N7sigslot7signal2IP10GuiElementbNS_15single_threadedEEE"
	.weak	_ZTSN7sigslot13_signal_base2IP10GuiElementbNS_15single_threadedEEE
	.section	.rodata._ZTSN7sigslot13_signal_base2IP10GuiElementbNS_15single_threadedEEE,"aG",@progbits,_ZTSN7sigslot13_signal_base2IP10GuiElementbNS_15single_threadedEEE,comdat
	.align 2
	.type	_ZTSN7sigslot13_signal_base2IP10GuiElementbNS_15single_threadedEEE, @object
	.size	_ZTSN7sigslot13_signal_base2IP10GuiElementbNS_15single_threadedEEE, 63
_ZTSN7sigslot13_signal_base2IP10GuiElementbNS_15single_threadedEEE:
	.string	"N7sigslot13_signal_base2IP10GuiElementbNS_15single_threadedEEE"
	.weak	_ZTSN7sigslot12_signal_baseINS_15single_threadedEEE
	.section	.rodata._ZTSN7sigslot12_signal_baseINS_15single_threadedEEE,"aG",@progbits,_ZTSN7sigslot12_signal_baseINS_15single_threadedEEE,comdat
	.align 2
	.type	_ZTSN7sigslot12_signal_baseINS_15single_threadedEEE, @object
	.size	_ZTSN7sigslot12_signal_baseINS_15single_threadedEEE, 48
_ZTSN7sigslot12_signal_baseINS_15single_threadedEEE:
	.string	"N7sigslot12_signal_baseINS_15single_threadedEEE"
	.weak	_ZTSN7sigslot15single_threadedE
	.section	.rodata._ZTSN7sigslot15single_threadedE,"aG",@progbits,_ZTSN7sigslot15single_threadedE,comdat
	.align 2
	.type	_ZTSN7sigslot15single_threadedE, @object
	.size	_ZTSN7sigslot15single_threadedE, 28
_ZTSN7sigslot15single_threadedE:
	.string	"N7sigslot15single_threadedE"
	.weak	_ZTSN7sigslot7signal3IP10GuiElementiiNS_15single_threadedEEE
	.section	.rodata._ZTSN7sigslot7signal3IP10GuiElementiiNS_15single_threadedEEE,"aG",@progbits,_ZTSN7sigslot7signal3IP10GuiElementiiNS_15single_threadedEEE,comdat
	.align 2
	.type	_ZTSN7sigslot7signal3IP10GuiElementiiNS_15single_threadedEEE, @object
	.size	_ZTSN7sigslot7signal3IP10GuiElementiiNS_15single_threadedEEE, 57
_ZTSN7sigslot7signal3IP10GuiElementiiNS_15single_threadedEEE:
	.string	"N7sigslot7signal3IP10GuiElementiiNS_15single_threadedEEE"
	.weak	_ZTSN7sigslot13_signal_base3IP10GuiElementiiNS_15single_threadedEEE
	.section	.rodata._ZTSN7sigslot13_signal_base3IP10GuiElementiiNS_15single_threadedEEE,"aG",@progbits,_ZTSN7sigslot13_signal_base3IP10GuiElementiiNS_15single_threadedEEE,comdat
	.align 2
	.type	_ZTSN7sigslot13_signal_base3IP10GuiElementiiNS_15single_threadedEEE, @object
	.size	_ZTSN7sigslot13_signal_base3IP10GuiElementiiNS_15single_threadedEEE, 64
_ZTSN7sigslot13_signal_base3IP10GuiElementiiNS_15single_threadedEEE:
	.string	"N7sigslot13_signal_base3IP10GuiElementiiNS_15single_threadedEEE"
	.weak	_ZN7sigslot15single_threadedD1Ev
	.set	_ZN7sigslot15single_threadedD1Ev,_ZN7sigslot15single_threadedD2Ev
	.weak	_ZN7sigslot12_signal_baseINS_15single_threadedEED1Ev
	.set	_ZN7sigslot12_signal_baseINS_15single_threadedEED1Ev,_ZN7sigslot12_signal_baseINS_15single_threadedEED2Ev
	.weak	_ZN7sigslot13_signal_base3IP10GuiElementiiNS_15single_threadedEED1Ev
	.set	_ZN7sigslot13_signal_base3IP10GuiElementiiNS_15single_threadedEED1Ev,_ZN7sigslot13_signal_base3IP10GuiElementiiNS_15single_threadedEED2Ev
	.weak	_ZN7sigslot7signal3IP10GuiElementiiNS_15single_threadedEED1Ev
	.set	_ZN7sigslot7signal3IP10GuiElementiiNS_15single_threadedEED1Ev,_ZN7sigslot7signal3IP10GuiElementiiNS_15single_threadedEED2Ev
	.weak	_ZN7sigslot13_signal_base2IP10GuiElementbNS_15single_threadedEED1Ev
	.set	_ZN7sigslot13_signal_base2IP10GuiElementbNS_15single_threadedEED1Ev,_ZN7sigslot13_signal_base2IP10GuiElementbNS_15single_threadedEED2Ev
	.weak	_ZN7sigslot7signal2IP10GuiElementbNS_15single_threadedEED1Ev
	.set	_ZN7sigslot7signal2IP10GuiElementbNS_15single_threadedEED1Ev,_ZN7sigslot7signal2IP10GuiElementbNS_15single_threadedEED2Ev
	.weak	_ZN12GuiChecksignD1Ev
	.set	_ZN12GuiChecksignD1Ev,_ZN12GuiChecksignD2Ev
	.section	.rodata.cst4,"aM",@progbits,4
	.align 2
.LC1:
	.4byte	1501560836
.LC2:
	.4byte	1132396544
.LC3:
	.4byte	1056964608
.LC4:
	.4byte	1036831949
.LC5:
	.4byte	1059481190
.LC6:
	.4byte	1050253722
	.section	".text"
.Letext0:
	.file 12 "d:\\devkitpro\\devkitppc\\bin\\../lib/gcc/powerpc-eabi/4.6.3/../../../../powerpc-eabi/include/stdint.h"
	.file 13 "d:/devkitPro/libogc/include/gctypes.h"
	.file 14 "d:\\devkitpro\\devkitppc\\bin\\../lib/gcc/powerpc-eabi/4.6.3/../../../../powerpc-eabi/include/machine/_types.h"
	.file 15 "d:\\devkitpro\\devkitppc\\bin\\../lib/gcc/powerpc-eabi/4.6.3/../../../../powerpc-eabi/include/sys/lock.h"
	.file 16 "d:\\devkitpro\\devkitppc\\bin\\../lib/gcc/powerpc-eabi/4.6.3/include/stddef.h"
	.file 17 "d:\\devkitpro\\devkitppc\\bin\\../lib/gcc/powerpc-eabi/4.6.3/../../../../powerpc-eabi/include/sys/_types.h"
	.file 18 "d:\\devkitpro\\devkitppc\\bin\\../lib/gcc/powerpc-eabi/4.6.3/../../../../powerpc-eabi/include/sys/reent.h"
	.file 19 "d:\\devkitpro\\devkitppc\\bin\\../lib/gcc/powerpc-eabi/4.6.3/../../../../powerpc-eabi/include/time.h"
	.file 20 "<built-in>"
	.file 21 "d:\\devkitpro\\devkitppc\\bin\\../lib/gcc/powerpc-eabi/4.6.3/../../../../powerpc-eabi/include/wchar.h"
	.file 22 "d:\\devkitpro\\devkitppc\\bin\\../lib/gcc/powerpc-eabi/4.6.3/../../../../powerpc-eabi/include/c++/4.6.3/cwchar"
	.file 23 "d:\\devkitpro\\devkitppc\\bin\\../lib/gcc/powerpc-eabi/4.6.3/../../../../powerpc-eabi/include/c++/4.6.3/powerpc-eabi/bits/c++config.h"
	.file 24 "d:\\devkitpro\\devkitppc\\bin\\../lib/gcc/powerpc-eabi/4.6.3/../../../../powerpc-eabi/include/c++/4.6.3/clocale"
	.file 25 "d:\\devkitpro\\devkitppc\\bin\\../lib/gcc/powerpc-eabi/4.6.3/../../../../powerpc-eabi/include/c++/4.6.3/bits/basic_string.h"
	.file 26 "d:\\devkitpro\\devkitppc\\bin\\../lib/gcc/powerpc-eabi/4.6.3/../../../../powerpc-eabi/include/c++/4.6.3/bits/move.h"
	.file 27 "d:\\devkitpro\\devkitppc\\bin\\../lib/gcc/powerpc-eabi/4.6.3/../../../../powerpc-eabi/include/c++/4.6.3/bits/cpp_type_traits.h"
	.file 28 "d:\\devkitpro\\devkitppc\\bin\\../lib/gcc/powerpc-eabi/4.6.3/../../../../powerpc-eabi/include/c++/4.6.3/debug/debug.h"
	.file 29 "d:\\devkitpro\\devkitppc\\bin\\../lib/gcc/powerpc-eabi/4.6.3/../../../../powerpc-eabi/include/c++/4.6.3/bits/char_traits.h"
	.file 30 "d:\\devkitpro\\devkitppc\\bin\\../lib/gcc/powerpc-eabi/4.6.3/../../../../powerpc-eabi/include/c++/4.6.3/bits/allocator.h"
	.file 31 "d:\\devkitpro\\devkitppc\\bin\\../lib/gcc/powerpc-eabi/4.6.3/../../../../powerpc-eabi/include/locale.h"
	.file 32 "d:\\devkitpro\\devkitppc\\bin\\../lib/gcc/powerpc-eabi/4.6.3/../../../../powerpc-eabi/include/c++/4.6.3/powerpc-eabi/bits/atomic_word.h"
	.file 33 "d:\\devkitpro\\devkitppc\\bin\\../lib/gcc/powerpc-eabi/4.6.3/../../../../powerpc-eabi/include/c++/4.6.3/ext/numeric_traits.h"
	.file 34 "d:\\devkitpro\\devkitppc\\bin\\../lib/gcc/powerpc-eabi/4.6.3/../../../../powerpc-eabi/include/c++/4.6.3/bits/basic_string.tcc"
	.file 35 "d:\\devkitpro\\devkitppc\\bin\\../lib/gcc/powerpc-eabi/4.6.3/../../../../powerpc-eabi/include/c++/4.6.3/bits/stl_iterator_base_types.h"
	.file 36 "d:\\devkitpro\\devkitppc\\bin\\../lib/gcc/powerpc-eabi/4.6.3/../../../../powerpc-eabi/include/c++/4.6.3/bits/stl_iterator.h"
	.file 37 "d:\\devkitpro\\devkitppc\\bin\\../lib/gcc/powerpc-eabi/4.6.3/../../../../powerpc-eabi/include/c++/4.6.3/bits/stl_function.h"
	.file 38 "d:\\devkitpro\\devkitppc\\bin\\../lib/gcc/powerpc-eabi/4.6.3/../../../../powerpc-eabi/include/c++/4.6.3/bits/stl_pair.h"
	.file 39 "d:\\devkitpro\\devkitppc\\bin\\../lib/gcc/powerpc-eabi/4.6.3/../../../../powerpc-eabi/include/c++/4.6.3/new"