   1              		.file	"gui_text.cpp"
   2              		.section	".text"
   3              	.Ltext0:
   4              		.section	.text._ZN7sigslot15single_threadedD2Ev,"axG",@progbits,_ZN7sigslot15single_threadedD5Ev,c
   5              		.align 2
   6              		.weak	_ZN7sigslot15single_threadedD2Ev
   7              		.type	_ZN7sigslot15single_threadedD2Ev, @function
   8              	_ZN7sigslot15single_threadedD2Ev:
   9              	.LFB1148:
  10              		.file 1 "d:/Projects/SaveGameManager/savegame-manager-gx/trunk/source/GUI/../sigslot.h"
  11              		.loc 1 104 0
  12              		.cfi_startproc
  13              	.LVL0:
  14              	.LBB1949:
  15              		.loc 1 105 0
  16 0000 3D200000 		lis 9,_ZTVN7sigslot15single_threadedE+8@ha
  17              	.LBE1949:
  18              		.loc 1 107 0
  19              	.LBB1950:
  20              		.loc 1 105 0
  21 0004 38090008 		la 0,_ZTVN7sigslot15single_threadedE+8@l(9)
  22 0008 90030000 		stw 0,0(3)
  23              	.LBE1950:
  24              		.loc 1 107 0
  25 000c 4E800020 		blr
  26              		.cfi_endproc
  27              	.LFE1148:
  28              		.size	_ZN7sigslot15single_threadedD2Ev, .-_ZN7sigslot15single_threadedD2Ev
  29              		.section	.text._ZN7sigslot15single_threaded4lockEv,"axG",@progbits,_ZN7sigslot15single_threaded4lo
  30              		.align 2
  31              		.weak	_ZN7sigslot15single_threaded4lockEv
  32              		.type	_ZN7sigslot15single_threaded4lockEv, @function
  33              	_ZN7sigslot15single_threaded4lockEv:
  34              	.LFB1151:
  35              		.loc 1 109 0
  36              		.cfi_startproc
  37              	.LVL1:
  38              		.loc 1 112 0
  39 0000 4E800020 		blr
  40              		.cfi_endproc
  41              	.LFE1151:
  42              		.size	_ZN7sigslot15single_threaded4lockEv, .-_ZN7sigslot15single_threaded4lockEv
  43              		.section	.text._ZN7sigslot15single_threaded6unlockEv,"axG",@progbits,_ZN7sigslot15single_threaded6
  44              		.align 2
  45              		.weak	_ZN7sigslot15single_threaded6unlockEv
  46              		.type	_ZN7sigslot15single_threaded6unlockEv, @function
  47              	_ZN7sigslot15single_threaded6unlockEv:
  48              	.LFB1152:
  49              		.loc 1 114 0
  50              		.cfi_startproc
  51              	.LVL2:
  52              		.loc 1 117 0
  53 0000 4E800020 		blr
  54              		.cfi_endproc
  55              	.LFE1152:
  56              		.size	_ZN7sigslot15single_threaded6unlockEv, .-_ZN7sigslot15single_threaded6unlockEv
  57              		.section	.text._ZN10GuiElement9SetParentEPS_,"axG",@progbits,_ZN10GuiElement9SetParentEPS_,comdat
  58              		.align 2
  59              		.weak	_ZN10GuiElement9SetParentEPS_
  60              		.type	_ZN10GuiElement9SetParentEPS_, @function
  61              	_ZN10GuiElement9SetParentEPS_:
  62              	.LFB1384:
  63              		.file 2 "d:/Projects/SaveGameManager/savegame-manager-gx/trunk/source/GUI/gui_element.h"
  64              		.loc 2 92 0
  65              		.cfi_startproc
  66              	.LVL3:
  67              		.loc 2 92 0
  68 0000 90830060 		stw 4,96(3)
  69 0004 4E800020 		blr
  70              		.cfi_endproc
  71              	.LFE1384:
  72              		.size	_ZN10GuiElement9SetParentEPS_, .-_ZN10GuiElement9SetParentEPS_
  73              		.section	.text._ZN10GuiElement9GetParentEv,"axG",@progbits,_ZN10GuiElement9GetParentEv,comdat
  74              		.align 2
  75              		.weak	_ZN10GuiElement9GetParentEv
  76              		.type	_ZN10GuiElement9GetParentEv, @function
  77              	_ZN10GuiElement9GetParentEv:
  78              	.LFB1385:
  79              		.loc 2 95 0
  80              		.cfi_startproc
  81              	.LVL4:
  82              		.loc 2 95 0
  83 0000 80630060 		lwz 3,96(3)
  84              	.LVL5:
  85 0004 4E800020 		blr
  86              		.cfi_endproc
  87              	.LFE1385:
  88              		.size	_ZN10GuiElement9GetParentEv, .-_ZN10GuiElement9GetParentEv
  89              		.section	.text._ZN10GuiElement12GetZPositionEv,"axG",@progbits,_ZN10GuiElement12GetZPositionEv,com
  90              		.align 2
  91              		.weak	_ZN10GuiElement12GetZPositionEv
  92              		.type	_ZN10GuiElement12GetZPositionEv, @function
  93              	_ZN10GuiElement12GetZPositionEv:
  94              	.LFB1386:
  95              		.loc 2 106 0
  96              		.cfi_startproc
  97              	.LVL6:
  98 0000 7C0802A6 		mflr 0
  99 0004 9421FFF0 		stwu 1,-16(1)
 100              	.LCFI0:
 101              		.cfi_def_cfa_offset 16
 102              		.cfi_register 65, 0
 103 0008 93E1000C 		stw 31,12(1)
 104 000c 7C7F1B78 		mr 31,3
 105              		.cfi_offset 31, -4
 106 0010 90010014 		stw 0,20(1)
 107              	.LBB1951:
 108              		.loc 2 110 0
 109 0014 81630060 		lwz 11,96(3)
 110              		.loc 2 108 0
 111 0018 38600000 		li 3,0
 112              	.LVL7:
 113              		.loc 2 110 0
 114 001c 2F8B0000 		cmpwi 7,11,0
 115 0020 419E0018 		beq- 7,.L8
 116              		.cfi_offset 65, 4
 117              		.loc 2 111 0
 118 0024 812B0000 		lwz 9,0(11)
 119 0028 7D635B78 		mr 3,11
 120 002c 80090018 		lwz 0,24(9)
 121 0030 7C0903A6 		mtctr 0
 122 0034 4E800421 		bctrl
 123              	.LVL8:
 124              	.L8:
 125              		.loc 2 113 0
 126 0038 801F0034 		lwz 0,52(31)
 127              	.LBE1951:
 128              		.loc 2 114 0
 129 003c 83E1000C 		lwz 31,12(1)
 130              	.LVL9:
 131 0040 7C630214 		add 3,3,0
 132              	.LVL10:
 133 0044 80010014 		lwz 0,20(1)
 134 0048 38210010 		addi 1,1,16
 135              	.LCFI1:
 136              		.cfi_def_cfa_offset 0
 137              		.cfi_restore 31
 138 004c 7C0803A6 		mtlr 0
 139 0050 4E800020 		blr
 140              		.cfi_endproc
 141              	.LFE1386:
 142              		.size	_ZN10GuiElement12GetZPositionEv, .-_ZN10GuiElement12GetZPositionEv
 143              		.section	.text._ZN10GuiElement10GetLeftPosEv,"axG",@progbits,_ZN10GuiElement10GetLeftPosEv,comdat
 144              		.align 2
 145              		.weak	_ZN10GuiElement10GetLeftPosEv
 146              		.type	_ZN10GuiElement10GetLeftPosEv, @function
 147              	_ZN10GuiElement10GetLeftPosEv:
 148              	.LFB1387:
 149              		.loc 2 116 0
 150              		.cfi_startproc
 151              	.LVL11:
 152              		.loc 2 116 0
 153 0000 8063002C 		lwz 3,44(3)
 154              	.LVL12:
 155 0004 4E800020 		blr
 156              		.cfi_endproc
 157              	.LFE1387:
 158              		.size	_ZN10GuiElement10GetLeftPosEv, .-_ZN10GuiElement10GetLeftPosEv
 159              		.section	.text._ZN10GuiElement9GetTopPosEv,"axG",@progbits,_ZN10GuiElement9GetTopPosEv,comdat
 160              		.align 2
 161              		.weak	_ZN10GuiElement9GetTopPosEv
 162              		.type	_ZN10GuiElement9GetTopPosEv, @function
 163              	_ZN10GuiElement9GetTopPosEv:
 164              	.LFB1388:
 165              		.loc 2 118 0
 166              		.cfi_startproc
 167              	.LVL13:
 168              		.loc 2 118 0
 169 0000 80630030 		lwz 3,48(3)
 170              	.LVL14:
 171 0004 4E800020 		blr
 172              		.cfi_endproc
 173              	.LFE1388:
 174              		.size	_ZN10GuiElement9GetTopPosEv, .-_ZN10GuiElement9GetTopPosEv
 175              		.section	.text._ZN10GuiElement8GetWidthEv,"axG",@progbits,_ZN10GuiElement8GetWidthEv,comdat
 176              		.align 2
 177              		.weak	_ZN10GuiElement8GetWidthEv
 178              		.type	_ZN10GuiElement8GetWidthEv, @function
 179              	_ZN10GuiElement8GetWidthEv:
 180              	.LFB1389:
 181              		.loc 2 121 0
 182              		.cfi_startproc
 183              	.LVL15:
 184              		.loc 2 121 0
 185 0000 80630024 		lwz 3,36(3)
 186              	.LVL16:
 187 0004 4E800020 		blr
 188              		.cfi_endproc
 189              	.LFE1389:
 190              		.size	_ZN10GuiElement8GetWidthEv, .-_ZN10GuiElement8GetWidthEv
 191              		.section	.text._ZN10GuiElement9GetHeightEv,"axG",@progbits,_ZN10GuiElement9GetHeightEv,comdat
 192              		.align 2
 193              		.weak	_ZN10GuiElement9GetHeightEv
 194              		.type	_ZN10GuiElement9GetHeightEv, @function
 195              	_ZN10GuiElement9GetHeightEv:
 196              	.LFB1390:
 197              		.loc 2 124 0
 198              		.cfi_startproc
 199              	.LVL17:
 200              		.loc 2 124 0
 201 0000 80630028 		lwz 3,40(3)
 202              	.LVL18:
 203 0004 4E800020 		blr
 204              		.cfi_endproc
 205              	.LFE1390:
 206              		.size	_ZN10GuiElement9GetHeightEv, .-_ZN10GuiElement9GetHeightEv
 207              		.section	.text._ZN10GuiElement7SetSizeEii,"axG",@progbits,_ZN10GuiElement7SetSizeEii,comdat
 208              		.align 2
 209              		.weak	_ZN10GuiElement7SetSizeEii
 210              		.type	_ZN10GuiElement7SetSizeEii, @function
 211              	_ZN10GuiElement7SetSizeEii:
 212              	.LFB1391:
 213              		.loc 2 128 0
 214              		.cfi_startproc
 215              	.LVL19:
 216              		.loc 2 130 0
 217 0000 90830024 		stw 4,36(3)
 218              		.loc 2 132 0
 219              		.loc 2 131 0
 220 0004 90A30028 		stw 5,40(3)
 221              		.loc 2 132 0
 222 0008 4E800020 		blr
 223              		.cfi_endproc
 224              	.LFE1391:
 225              		.size	_ZN10GuiElement7SetSizeEii, .-_ZN10GuiElement7SetSizeEii
 226              		.section	.text._ZN10GuiElement10SetVisibleEb,"axG",@progbits,_ZN10GuiElement10SetVisibleEb,comdat
 227              		.align 2
 228              		.weak	_ZN10GuiElement10SetVisibleEb
 229              		.type	_ZN10GuiElement10SetVisibleEb, @function
 230              	_ZN10GuiElement10SetVisibleEb:
 231              	.LFB1392:
 232              		.loc 2 135 0
 233              		.cfi_startproc
 234              		.cfi_personality 0,__gxx_personality_v0
 235              		.cfi_lsda 0,.LLSDA1392
 236              	.LVL20:
 237 0000 7C0802A6 		mflr 0
 238 0004 9421FFE0 		stwu 1,-32(1)
 239              	.LCFI2:
 240              		.cfi_def_cfa_offset 32
 241              		.cfi_register 65, 0
 242 0008 9361000C 		stw 27,12(1)
 243              	.LBB1952:
 244              	.LBB1953:
 245              		.loc 1 2270 0
 246 000c 3B630004 		addi 27,3,4
 247              		.cfi_offset 27, -20
 248              	.LBE1953:
 249              	.LBE1952:
 250              		.loc 2 135 0
 251 0010 90010024 		stw 0,36(1)
 252 0014 93C10018 		stw 30,24(1)
 253 0018 7C7E1B78 		mr 30,3
 254              		.cfi_offset 30, -8
 255              		.cfi_offset 65, 4
 256              	.LBB1976:
 257              	.LBB1970:
 258              	.LBB1954:
 259              	.LBB1955:
 260              		.loc 1 338 0
 261 001c 81230004 		lwz 9,4(3)
 262 0020 7F63DB78 		mr 3,27
 263              	.LVL21:
 264              	.LBE1955:
 265              	.LBE1954:
 266              	.LBE1970:
 267              	.LBE1976:
 268              		.loc 2 135 0
 269 0024 93810010 		stw 28,16(1)
 270 0028 7C9C2378 		mr 28,4
 271              		.cfi_offset 28, -16
 272              	.LBB1977:
 273              	.LBB1971:
 274              	.LBB1959:
 275              	.LBB1956:
 276              		.loc 1 338 0
 277 002c 80090008 		lwz 0,8(9)
 278              	.LBE1956:
 279              	.LBE1959:
 280              	.LBE1971:
 281              	.LBE1977:
 282              		.loc 2 135 0
 283 0030 93A10014 		stw 29,20(1)
 284              	.LBB1978:
 285              		.file 3 "d:/Projects/SaveGameManager/savegame-manager-gx/trunk/source/GUI/gui_text.cpp"
 286              		.loc 3 531 0
 287 0034 7FDDF378 		mr 29,30
 288              		.cfi_offset 29, -12
 289              	.LBE1978:
 290              		.loc 2 135 0
 291 0038 93E1001C 		stw 31,28(1)
 292              	.LBB1979:
 293              	.LBB1972:
 294              	.LBB1960:
 295              	.LBB1957:
 296              		.loc 1 338 0
 297 003c 7C0903A6 		mtctr 0
 298              	.LBE1957:
 299              	.LBE1960:
 300              	.LBE1972:
 301              	.LBE1979:
 302              		.loc 2 137 0
 303 0040 989E001D 		stb 4,29(30)
 304              	.LVL22:
 305              	.LEHB0:
 306              	.LBB1980:
 307              	.LBB1973:
 308              	.LBB1961:
 309              	.LBB1958:
 310              		.loc 1 338 0
 311              		.cfi_offset 31, -4
 312 0044 4E800421 		bctrl
 313              	.LEHE0:
 314              	.LVL23:
 315              	.LBE1958:
 316              	.LBE1961:
 317              	.LBE1973:
 318              		.loc 3 531 0
 319 0048 87FD0008 		lwzu 31,8(29)
 320              	.LVL24:
 321              	.LBB1974:
 322              		.loc 1 2274 0
 323 004c 7F9FE800 		cmpw 7,31,29
 324 0050 419E002C 		beq- 7,.L17
 325              	.LVL25:
 326              	.L24:
 327              		.loc 1 2279 0
 328 0054 807F0008 		lwz 3,8(31)
 329 0058 7FC4F378 		mr 4,30
 330 005c 7F85E378 		mr 5,28
 331              	.LBB1962:
 332              	.LBB1963:
 333              		.file 4 "d:\\devkitpro\\devkitppc\\bin\\../lib/gcc/powerpc-eabi/4.6.3/../../../../powerpc-eabi/inc
 334              		.loc 4 234 0
 335 0060 83FF0000 		lwz 31,0(31)
 336              	.LVL26:
 337              	.LBE1963:
 338              	.LBE1962:
 339              		.loc 1 2279 0
 340 0064 81230000 		lwz 9,0(3)
 341 0068 8009000C 		lwz 0,12(9)
 342 006c 7C0903A6 		mtctr 0
 343              	.LEHB1:
 344 0070 4E800421 		bctrl
 345              	.LEHE1:
 346              	.LVL27:
 347              		.loc 1 2274 0
 348 0074 7F9DF800 		cmpw 7,29,31
 349 0078 409EFFDC 		bne+ 7,.L24
 350              	.LVL28:
 351              	.L17:
 352              	.LBB1964:
 353              	.LBB1965:
 354              	.LBB1966:
 355              		.loc 1 343 0
 356 007c 813E0004 		lwz 9,4(30)
 357 0080 7F63DB78 		mr 3,27
 358 0084 8009000C 		lwz 0,12(9)
 359 0088 7C0903A6 		mtctr 0
 360              	.LEHB2:
 361 008c 4E800421 		bctrl
 362              	.LEHE2:
 363              	.LBE1966:
 364              	.LBE1965:
 365              	.LBE1964:
 366              	.LBE1974:
 367              	.LBE1980:
 368              		.loc 2 139 0
 369 0090 80010024 		lwz 0,36(1)
 370 0094 8361000C 		lwz 27,12(1)
 371              	.LVL29:
 372 0098 7C0803A6 		mtlr 0
 373 009c 83810010 		lwz 28,16(1)
 374              	.LVL30:
 375 00a0 83A10014 		lwz 29,20(1)
 376 00a4 83C10018 		lwz 30,24(1)
 377              	.LVL31:
 378 00a8 83E1001C 		lwz 31,28(1)
 379              	.LVL32:
 380 00ac 38210020 		addi 1,1,32
 381              		.cfi_remember_state
 382              	.LCFI3:
 383              		.cfi_def_cfa_offset 0
 384              		.cfi_restore 31
 385              		.cfi_restore 30
 386              		.cfi_restore 29
 387              		.cfi_restore 28
 388              		.cfi_restore 27
 389 00b0 4E800020 		blr
 390              	.LVL33:
 391              	.L23:
 392              	.LCFI4:
 393              		.cfi_restore_state
 394              	.LBB1981:
 395              	.LBB1975:
 396              	.LBB1967:
 397              	.LBB1968:
 398              	.LBB1969:
 399              		.loc 1 343 0
 400 00b4 813E0004 		lwz 9,4(30)
 401 00b8 7C7F1B78 		mr 31,3
 402              	.LVL34:
 403 00bc 7F63DB78 		mr 3,27
 404 00c0 8009000C 		lwz 0,12(9)
 405 00c4 7C0903A6 		mtctr 0
 406 00c8 4E800421 		bctrl
 407 00cc 7FE3FB78 		mr 3,31
 408              	.LEHB3:
 409 00d0 48000001 		bl _Unwind_Resume
 410              	.LEHE3:
 411              	.LBE1969:
 412              	.LBE1968:
 413              	.LBE1967:
 414              	.LBE1975:
 415              	.LBE1981:
 416              		.cfi_endproc
 417              	.LFE1392:
 418              		.globl __gxx_personality_v0
 419              		.section	.gcc_except_table,"a",@progbits
 420              	.LLSDA1392:
 421 0000 FF       		.byte	0xff
 422 0001 FF       		.byte	0xff
 423 0002 01       		.byte	0x1
 424 0003 13       		.uleb128 .LLSDACSE1392-.LLSDACSB1392
 425              	.LLSDACSB1392:
 426 0004 44       		.uleb128 .LEHB0-.LFB1392
 427 0005 04       		.uleb128 .LEHE0-.LEHB0
 428 0006 00       		.uleb128 0
 429 0007 00       		.uleb128 0
 430 0008 70       		.uleb128 .LEHB1-.LFB1392
 431 0009 04       		.uleb128 .LEHE1-.LEHB1
 432 000a B401     		.uleb128 .L23-.LFB1392
 433 000c 00       		.uleb128 0
 434 000d 8C01     		.uleb128 .LEHB2-.LFB1392
 435 000f 04       		.uleb128 .LEHE2-.LEHB2
 436 0010 00       		.uleb128 0
 437 0011 00       		.uleb128 0
 438 0012 D001     		.uleb128 .LEHB3-.LFB1392
 439 0014 04       		.uleb128 .LEHE3-.LEHB3
 440 0015 00       		.uleb128 0
 441 0016 00       		.uleb128 0
 442              	.LLSDACSE1392:
 443              		.section	.text._ZN10GuiElement10SetVisibleEb,"axG",@progbits,_ZN10GuiElement10SetVisibleEb,comdat
 444              		.size	_ZN10GuiElement10SetVisibleEb, .-_ZN10GuiElement10SetVisibleEb
 445              		.section	.text._ZN10GuiElement9IsVisibleEv,"axG",@progbits,_ZN10GuiElement9IsVisibleEv,comdat
 446              		.align 2
 447              		.weak	_ZN10GuiElement9IsVisibleEv
 448              		.type	_ZN10GuiElement9IsVisibleEv, @function
 449              	_ZN10GuiElement9IsVisibleEv:
 450              	.LFB1393:
 451              		.loc 2 142 0
 452              		.cfi_startproc
 453              	.LVL35:
 454              		.loc 2 142 0
 455 0000 8863001D 		lbz 3,29(3)
 456              	.LVL36:
 457 0004 4E800020 		blr
 458              		.cfi_endproc
 459              	.LFE1393:
 460              		.size	_ZN10GuiElement9IsVisibleEv, .-_ZN10GuiElement9IsVisibleEv
 461              		.section	.text._ZN10GuiElement12IsSelectableEv,"axG",@progbits,_ZN10GuiElement12IsSelectableEv,com
 462              		.align 2
 463              		.weak	_ZN10GuiElement12IsSelectableEv
 464              		.type	_ZN10GuiElement12IsSelectableEv, @function
 465              	_ZN10GuiElement12IsSelectableEv:
 466              	.LFB1394:
 467              		.loc 2 145 0
 468              		.cfi_startproc
 469              	.LVL37:
 470              		.loc 2 149 0
 471 0000 80030048 		lwz 0,72(3)
 472 0004 39200000 		li 9,0
 473 0008 2F800004 		cmpwi 7,0,4
 474 000c 419E0010 		beq- 7,.L27
 475              		.loc 2 149 0 is_stmt 0 discriminator 1
 476 0010 2F800002 		cmpwi 7,0,2
 477 0014 419E0008 		beq- 7,.L27
 478              		.loc 2 149 0 discriminator 3
 479 0018 8923001E 		lbz 9,30(3)
 480              	.L27:
 481              		.loc 2 150 0 is_stmt 1 discriminator 5
 482 001c 7D234B78 		mr 3,9
 483              	.LVL38:
 484 0020 4E800020 		blr
 485              		.cfi_endproc
 486              	.LFE1394:
 487              		.size	_ZN10GuiElement12IsSelectableEv, .-_ZN10GuiElement12IsSelectableEv
 488              		.section	.text._ZN10GuiElement11IsClickableEv,"axG",@progbits,_ZN10GuiElement11IsClickableEv,comda
 489              		.align 2
 490              		.weak	_ZN10GuiElement11IsClickableEv
 491              		.type	_ZN10GuiElement11IsClickableEv, @function
 492              	_ZN10GuiElement11IsClickableEv:
 493              	.LFB1395:
 494              		.loc 2 153 0
 495              		.cfi_startproc
 496              	.LVL39:
 497              		.loc 2 158 0
 498 0000 80030048 		lwz 0,72(3)
 499 0004 39200000 		li 9,0
 500 0008 2F800004 		cmpwi 7,0,4
 501 000c 419E0018 		beq- 7,.L31
 502              		.loc 2 158 0 is_stmt 0 discriminator 1
 503 0010 2F800002 		cmpwi 7,0,2
 504 0014 419E0010 		beq- 7,.L31
 505              		.loc 2 158 0 discriminator 3
 506 0018 2F800003 		cmpwi 7,0,3
 507 001c 419E0008 		beq- 7,.L31
 508              		.loc 2 158 0 discriminator 4
 509 0020 8923001F 		lbz 9,31(3)
 510              	.L31:
 511              		.loc 2 159 0 is_stmt 1 discriminator 6
 512 0024 7D234B78 		mr 3,9
 513              	.LVL40:
 514 0028 4E800020 		blr
 515              		.cfi_endproc
 516              	.LFE1395:
 517              		.size	_ZN10GuiElement11IsClickableEv, .-_ZN10GuiElement11IsClickableEv
 518              		.section	.text._ZN10GuiElement10IsHoldableEv,"axG",@progbits,_ZN10GuiElement10IsHoldableEv,comdat
 519              		.align 2
 520              		.weak	_ZN10GuiElement10IsHoldableEv
 521              		.type	_ZN10GuiElement10IsHoldableEv, @function
 522              	_ZN10GuiElement10IsHoldableEv:
 523              	.LFB1396:
 524              		.loc 2 162 0
 525              		.cfi_startproc
 526              	.LVL41:
 527              		.loc 2 162 0
 528 0000 81230048 		lwz 9,72(3)
 529 0004 38000000 		li 0,0
 530 0008 2F890004 		cmpwi 7,9,4
 531 000c 419E0008 		beq- 7,.L36
 532              		.loc 2 162 0 is_stmt 0 discriminator 1
 533 0010 88030020 		lbz 0,32(3)
 534              	.L36:
 535              		.loc 2 162 0 discriminator 4
 536 0014 7C030378 		mr 3,0
 537              	.LVL42:
 538 0018 4E800020 		blr
 539              		.cfi_endproc
 540              	.LFE1396:
 541              		.size	_ZN10GuiElement10IsHoldableEv, .-_ZN10GuiElement10IsHoldableEv
 542              		.section	.text._ZN10GuiElement13SetSelectableEb,"axG",@progbits,_ZN10GuiElement13SetSelectableEb,c
 543              		.align 2
 544              		.weak	_ZN10GuiElement13SetSelectableEb
 545              		.type	_ZN10GuiElement13SetSelectableEb, @function
 546              	_ZN10GuiElement13SetSelectableEb:
 547              	.LFB1397:
 548              		.loc 2 165 0 is_stmt 1
 549              		.cfi_startproc
 550              	.LVL43:
 551              		.loc 2 165 0
 552 0000 9883001E 		stb 4,30(3)
 553 0004 4E800020 		blr
 554              		.cfi_endproc
 555              	.LFE1397:
 556              		.size	_ZN10GuiElement13SetSelectableEb, .-_ZN10GuiElement13SetSelectableEb
 557              		.section	.text._ZN10GuiElement12SetClickableEb,"axG",@progbits,_ZN10GuiElement12SetClickableEb,com
 558              		.align 2
 559              		.weak	_ZN10GuiElement12SetClickableEb
 560              		.type	_ZN10GuiElement12SetClickableEb, @function
 561              	_ZN10GuiElement12SetClickableEb:
 562              	.LFB1398:
 563              		.loc 2 168 0
 564              		.cfi_startproc
 565              	.LVL44:
 566              		.loc 2 168 0
 567 0000 9883001F 		stb 4,31(3)
 568 0004 4E800020 		blr
 569              		.cfi_endproc
 570              	.LFE1398:
 571              		.size	_ZN10GuiElement12SetClickableEb, .-_ZN10GuiElement12SetClickableEb
 572              		.section	.text._ZN10GuiElement11SetHoldableEb,"axG",@progbits,_ZN10GuiElement11SetHoldableEb,comda
 573              		.align 2
 574              		.weak	_ZN10GuiElement11SetHoldableEb
 575              		.type	_ZN10GuiElement11SetHoldableEb, @function
 576              	_ZN10GuiElement11SetHoldableEb:
 577              	.LFB1399:
 578              		.loc 2 171 0
 579              		.cfi_startproc
 580              	.LVL45:
 581              		.loc 2 171 0
 582 0000 98830020 		stb 4,32(3)
 583 0004 4E800020 		blr
 584              		.cfi_endproc
 585              	.LFE1399:
 586              		.size	_ZN10GuiElement11SetHoldableEb, .-_ZN10GuiElement11SetHoldableEb
 587              		.section	.text._ZN10GuiElement8GetStateEv,"axG",@progbits,_ZN10GuiElement8GetStateEv,comdat
 588              		.align 2
 589              		.weak	_ZN10GuiElement8GetStateEv
 590              		.type	_ZN10GuiElement8GetStateEv, @function
 591              	_ZN10GuiElement8GetStateEv:
 592              	.LFB1400:
 593              		.loc 2 178 0
 594              		.cfi_startproc
 595              	.LVL46:
 596              		.loc 2 178 0
 597 0000 80630048 		lwz 3,72(3)
 598              	.LVL47:
 599 0004 4E800020 		blr
 600              		.cfi_endproc
 601              	.LFE1400:
 602              		.size	_ZN10GuiElement8GetStateEv, .-_ZN10GuiElement8GetStateEv
 603              		.section	.text._ZN10GuiElement12GetStateChanEv,"axG",@progbits,_ZN10GuiElement12GetStateChanEv,com
 604              		.align 2
 605              		.weak	_ZN10GuiElement12GetStateChanEv
 606              		.type	_ZN10GuiElement12GetStateChanEv, @function
 607              	_ZN10GuiElement12GetStateChanEv:
 608              	.LFB1401:
 609              		.loc 2 181 0
 610              		.cfi_startproc
 611              	.LVL48:
 612              		.loc 2 181 0
 613 0000 8063004C 		lwz 3,76(3)
 614              	.LVL49:
 615 0004 4E800020 		blr
 616              		.cfi_endproc
 617              	.LFE1401:
 618              		.size	_ZN10GuiElement12GetStateChanEv, .-_ZN10GuiElement12GetStateChanEv
 619              		.section	.text._ZN10GuiElement8SetAlphaEi,"axG",@progbits,_ZN10GuiElement8SetAlphaEi,comdat
 620              		.align 2
 621              		.weak	_ZN10GuiElement8SetAlphaEi
 622              		.type	_ZN10GuiElement8SetAlphaEi, @function
 623              	_ZN10GuiElement8SetAlphaEi:
 624              	.LFB1403:
 625              		.loc 2 190 0
 626              		.cfi_startproc
 627              	.LVL50:
 628              		.loc 2 190 0
 629 0000 90830038 		stw 4,56(3)
 630 0004 4E800020 		blr
 631              		.cfi_endproc
 632              	.LFE1403:
 633              		.size	_ZN10GuiElement8SetAlphaEi, .-_ZN10GuiElement8SetAlphaEi
 634              		.section	.text._ZN10GuiElement8GetAlphaEv,"axG",@progbits,_ZN10GuiElement8GetAlphaEv,comdat
 635              		.align 2
 636              		.weak	_ZN10GuiElement8GetAlphaEv
 637              		.type	_ZN10GuiElement8GetAlphaEv, @function
 638              	_ZN10GuiElement8GetAlphaEv:
 639              	.LFB1404:
 640              		.loc 2 194 0
 641              		.cfi_startproc
 642              	.LVL51:
 643 0000 7C0802A6 		mflr 0
 644 0004 9421FFD8 		stwu 1,-40(1)
 645              	.LCFI5:
 646              		.cfi_def_cfa_offset 40
 647              		.cfi_register 65, 0
 648 0008 93E10024 		stw 31,36(1)
 649 000c 9001002C 		stw 0,44(1)
 650              	.LBB1982:
 651              		.loc 2 198 0
 652 0010 83E3006C 		lwz 31,108(3)
 653              		.cfi_offset 65, 4
 654              		.cfi_offset 31, -4
 655 0014 2F9F0000 		cmpwi 7,31,0
 656 0018 419C0094 		blt- 7,.L47
 657              	.L45:
 658              	.LVL52:
 659              		.loc 2 203 0
 660 001c 80630060 		lwz 3,96(3)
 661              	.LVL53:
 662 0020 2F830000 		cmpwi 7,3,0
 663 0024 419E0070 		beq- 7,.L46
 664              		.loc 2 204 0
 665 0028 81230000 		lwz 9,0(3)
 666 002c 6FFF8000 		xoris 31,31,0x8000
 667              	.LVL54:
 668 0030 80090064 		lwz 0,100(9)
 669 0034 7C0903A6 		mtctr 0
 670 0038 4E800421 		bctrl
 671 003c 3C004330 		lis 0,0x4330
 672 0040 6C638000 		xoris 3,3,0x8000
 673 0044 90010010 		stw 0,16(1)
 674 0048 90610014 		stw 3,20(1)
 675 004c 3D200000 		lis 9,.LC1@ha
 676 0050 C0090000 		lfs 0,.LC1@l(9)
 677 0054 3D200000 		lis 9,.LC2@ha
 678 0058 C9A10010 		lfd 13,16(1)
 679 005c C1890004 		lfs 12,.LC2@l(9)
 680 0060 39210018 		addi 9,1,24
 681 0064 FDAD0028 		fsub 13,13,0
 682 0068 93E1000C 		stw 31,12(1)
 683 006c 90010008 		stw 0,8(1)
 684 0070 FDA06818 		frsp 13,13
 685 0074 EDAD6024 		fdivs 13,13,12
 686 0078 C9810008 		lfd 12,8(1)
 687 007c FC0C0028 		fsub 0,12,0
 688 0080 FC000018 		frsp 0,0
 689 0084 EC000372 		fmuls 0,0,13
 690 0088 FC00001E 		fctiwz 0,0
 691 008c 7C004FAE 		stfiwx 0,0,9
 692 0090 83E10018 		lwz 31,24(1)
 693              	.LVL55:
 694              	.L46:
 695              	.LBE1982:
 696              		.loc 2 207 0
 697 0094 8001002C 		lwz 0,44(1)
 698 0098 7FE3FB78 		mr 3,31
 699 009c 83E10024 		lwz 31,36(1)
 700              	.LVL56:
 701 00a0 7C0803A6 		mtlr 0
 702 00a4 38210028 		addi 1,1,40
 703              		.cfi_remember_state
 704              	.LCFI6:
 705              		.cfi_def_cfa_offset 0
 706              		.cfi_restore 31
 707 00a8 4E800020 		blr
 708              	.LVL57:
 709              	.L47:
 710              	.LCFI7:
 711              		.cfi_restore_state
 712              	.LBB1983:
 713              		.loc 2 201 0
 714 00ac 83E30038 		lwz 31,56(3)
 715              	.LVL58:
 716 00b0 4BFFFF6C 		b .L45
 717              	.LBE1983:
 718              		.cfi_endproc
 719              	.LFE1404:
 720              		.size	_ZN10GuiElement8GetAlphaEv, .-_ZN10GuiElement8GetAlphaEv
 721              		.section	.text._ZN10GuiElement8SetScaleEf,"axG",@progbits,_ZN10GuiElement8SetScaleEf,comdat
 722              		.align 2
 723              		.weak	_ZN10GuiElement8SetScaleEf
 724              		.type	_ZN10GuiElement8SetScaleEf, @function
 725              	_ZN10GuiElement8SetScaleEf:
 726              	.LFB1405:
 727              		.loc 2 210 0
 728              		.cfi_startproc
 729              	.LVL59:
 730              		.loc 2 212 0
 731 0000 D023003C 		stfs 1,60(3)
 732              		.loc 2 214 0
 733              		.loc 2 213 0
 734 0004 D0230040 		stfs 1,64(3)
 735              		.loc 2 214 0
 736 0008 4E800020 		blr
 737              		.cfi_endproc
 738              	.LFE1405:
 739              		.size	_ZN10GuiElement8SetScaleEf, .-_ZN10GuiElement8SetScaleEf
 740              		.section	.text._ZN10GuiElement9SetScaleXEf,"axG",@progbits,_ZN10GuiElement9SetScaleXEf,comdat
 741              		.align 2
 742              		.weak	_ZN10GuiElement9SetScaleXEf
 743              		.type	_ZN10GuiElement9SetScaleXEf, @function
 744              	_ZN10GuiElement9SetScaleXEf:
 745              	.LFB1406:
 746              		.loc 2 217 0
 747              		.cfi_startproc
 748              	.LVL60:
 749              		.loc 2 217 0
 750 0000 D023003C 		stfs 1,60(3)
 751 0004 4E800020 		blr
 752              		.cfi_endproc
 753              	.LFE1406:
 754              		.size	_ZN10GuiElement9SetScaleXEf, .-_ZN10GuiElement9SetScaleXEf
 755              		.section	.text._ZN10GuiElement9SetScaleYEf,"axG",@progbits,_ZN10GuiElement9SetScaleYEf,comdat
 756              		.align 2
 757              		.weak	_ZN10GuiElement9SetScaleYEf
 758              		.type	_ZN10GuiElement9SetScaleYEf, @function
 759              	_ZN10GuiElement9SetScaleYEf:
 760              	.LFB1407:
 761              		.loc 2 220 0
 762              		.cfi_startproc
 763              	.LVL61:
 764              		.loc 2 220 0
 765 0000 D0230040 		stfs 1,64(3)
 766 0004 4E800020 		blr
 767              		.cfi_endproc
 768              	.LFE1407:
 769              		.size	_ZN10GuiElement9SetScaleYEf, .-_ZN10GuiElement9SetScaleYEf
 770              		.section	.text._ZN10GuiElement8GetScaleEv,"axG",@progbits,_ZN10GuiElement8GetScaleEv,comdat
 771              		.align 2
 772              		.weak	_ZN10GuiElement8GetScaleEv
 773              		.type	_ZN10GuiElement8GetScaleEv, @function
 774              	_ZN10GuiElement8GetScaleEv:
 775              	.LFB1408:
 776              		.loc 2 223 0
 777              		.cfi_startproc
 778              	.LVL62:
 779 0000 7C0802A6 		mflr 0
 780 0004 9421FFF0 		stwu 1,-16(1)
 781              	.LCFI8:
 782              		.cfi_def_cfa_offset 16
 783              		.cfi_register 65, 0
 784              	.LBB1984:
 785              		.loc 2 225 0
 786 0008 3D200000 		lis 9,.LC3@ha
 787              	.LBE1984:
 788              		.loc 2 223 0
 789 000c DBE10008 		stfd 31,8(1)
 790 0010 90010014 		stw 0,20(1)
 791              	.LBB1985:
 792              		.loc 2 225 0
 793 0014 C0030040 		lfs 0,64(3)
 794 0018 C3E3003C 		lfs 31,60(3)
 795              		.cfi_offset 65, 4
 796              		.cfi_offset 63, -8
 797              		.loc 2 227 0
 798 001c 81630060 		lwz 11,96(3)
 799              		.loc 2 225 0
 800 0020 EFFF002A 		fadds 31,31,0
 801 0024 C0090008 		lfs 0,.LC3@l(9)
 802              		.loc 2 227 0
 803 0028 2F8B0000 		cmpwi 7,11,0
 804              		.loc 2 225 0
 805 002c EFFF0032 		fmuls 31,31,0
 806 0030 C0030070 		lfs 0,112(3)
 807 0034 EFFF0032 		fmuls 31,31,0
 808              	.LVL63:
 809              		.loc 2 227 0
 810 0038 419E001C 		beq- 7,.L52
 811              		.loc 2 228 0
 812 003c 812B0000 		lwz 9,0(11)
 813 0040 7D635B78 		mr 3,11
 814              	.LVL64:
 815 0044 80090074 		lwz 0,116(9)
 816 0048 7C0903A6 		mtctr 0
 817 004c 4E800421 		bctrl
 818 0050 EFFF0072 		fmuls 31,31,1
 819              	.LVL65:
 820              	.L52:
 821              	.LBE1985:
 822              		.loc 2 231 0
 823 0054 80010014 		lwz 0,20(1)
 824 0058 FC20F890 		fmr 1,31
 825 005c CBE10008 		lfd 31,8(1)
 826              	.LVL66:
 827 0060 7C0803A6 		mtlr 0
 828 0064 38210010 		addi 1,1,16
 829              	.LCFI9:
 830              		.cfi_def_cfa_offset 0
 831              		.cfi_restore 63
 832 0068 4E800020 		blr
 833              		.cfi_endproc
 834              	.LFE1408:
 835              		.size	_ZN10GuiElement8GetScaleEv, .-_ZN10GuiElement8GetScaleEv
 836              		.section	.text._ZN10GuiElement9GetScaleXEv,"axG",@progbits,_ZN10GuiElement9GetScaleXEv,comdat
 837              		.align 2
 838              		.weak	_ZN10GuiElement9GetScaleXEv
 839              		.type	_ZN10GuiElement9GetScaleXEv, @function
 840              	_ZN10GuiElement9GetScaleXEv:
 841              	.LFB1409:
 842              		.loc 2 234 0
 843              		.cfi_startproc
 844              	.LVL67:
 845 0000 7C0802A6 		mflr 0
 846 0004 9421FFF0 		stwu 1,-16(1)
 847              	.LCFI10:
 848              		.cfi_def_cfa_offset 16
 849              		.cfi_register 65, 0
 850 0008 DBE10008 		stfd 31,8(1)
 851 000c 90010014 		stw 0,20(1)
 852              	.LBB1986:
 853              		.loc 2 238 0
 854 0010 81630060 		lwz 11,96(3)
 855              		.loc 2 236 0
 856 0014 C3E3003C 		lfs 31,60(3)
 857              		.cfi_offset 65, 4
 858              		.cfi_offset 63, -8
 859              		.loc 2 238 0
 860 0018 2F8B0000 		cmpwi 7,11,0
 861              		.loc 2 236 0
 862 001c C0030070 		lfs 0,112(3)
 863 0020 EFFF0032 		fmuls 31,31,0
 864              	.LVL68:
 865              		.loc 2 238 0
 866 0024 419E001C 		beq- 7,.L54
 867              		.loc 2 239 0
 868 0028 812B0000 		lwz 9,0(11)
 869 002c 7D635B78 		mr 3,11
 870              	.LVL69:
 871 0030 80090078 		lwz 0,120(9)
 872 0034 7C0903A6 		mtctr 0
 873 0038 4E800421 		bctrl
 874 003c EFFF0072 		fmuls 31,31,1
 875              	.LVL70:
 876              	.L54:
 877              	.LBE1986:
 878              		.loc 2 242 0
 879 0040 80010014 		lwz 0,20(1)
 880 0044 FC20F890 		fmr 1,31
 881 0048 CBE10008 		lfd 31,8(1)
 882              	.LVL71:
 883 004c 7C0803A6 		mtlr 0
 884 0050 38210010 		addi 1,1,16
 885              	.LCFI11:
 886              		.cfi_def_cfa_offset 0
 887              		.cfi_restore 63
 888 0054 4E800020 		blr
 889              		.cfi_endproc
 890              	.LFE1409:
 891              		.size	_ZN10GuiElement9GetScaleXEv, .-_ZN10GuiElement9GetScaleXEv
 892              		.section	.text._ZN10GuiElement9GetScaleYEv,"axG",@progbits,_ZN10GuiElement9GetScaleYEv,comdat
 893              		.align 2
 894              		.weak	_ZN10GuiElement9GetScaleYEv
 895              		.type	_ZN10GuiElement9GetScaleYEv, @function
 896              	_ZN10GuiElement9GetScaleYEv:
 897              	.LFB1410:
 898              		.loc 2 245 0
 899              		.cfi_startproc
 900              	.LVL72:
 901 0000 7C0802A6 		mflr 0
 902 0004 9421FFF0 		stwu 1,-16(1)
 903              	.LCFI12:
 904              		.cfi_def_cfa_offset 16
 905              		.cfi_register 65, 0
 906 0008 DBE10008 		stfd 31,8(1)
 907 000c 90010014 		stw 0,20(1)
 908              	.LBB1987:
 909              		.loc 2 249 0
 910 0010 81630060 		lwz 11,96(3)
 911              		.loc 2 247 0
 912 0014 C3E30040 		lfs 31,64(3)
 913              		.cfi_offset 65, 4
 914              		.cfi_offset 63, -8
 915              		.loc 2 249 0
 916 0018 2F8B0000 		cmpwi 7,11,0
 917              		.loc 2 247 0
 918 001c C0030070 		lfs 0,112(3)
 919 0020 EFFF0032 		fmuls 31,31,0
 920              	.LVL73:
 921              		.loc 2 249 0
 922 0024 419E001C 		beq- 7,.L56
 923              		.loc 2 250 0
 924 0028 812B0000 		lwz 9,0(11)
 925 002c 7D635B78 		mr 3,11
 926              	.LVL74:
 927 0030 8009007C 		lwz 0,124(9)
 928 0034 7C0903A6 		mtctr 0
 929 0038 4E800421 		bctrl
 930 003c EFFF0072 		fmuls 31,31,1
 931              	.LVL75:
 932              	.L56:
 933              	.LBE1987:
 934              		.loc 2 253 0
 935 0040 80010014 		lwz 0,20(1)
 936 0044 FC20F890 		fmr 1,31
 937 0048 CBE10008 		lfd 31,8(1)
 938              	.LVL76:
 939 004c 7C0803A6 		mtlr 0
 940 0050 38210010 		addi 1,1,16
 941              	.LCFI13:
 942              		.cfi_def_cfa_offset 0
 943              		.cfi_restore 63
 944 0054 4E800020 		blr
 945              		.cfi_endproc
 946              	.LFE1410:
 947              		.size	_ZN10GuiElement9GetScaleYEv, .-_ZN10GuiElement9GetScaleYEv
 948              		.section	.text._ZN10GuiElement6RumbleEv,"axG",@progbits,_ZN10GuiElement6RumbleEv,comdat
 949              		.align 2
 950              		.weak	_ZN10GuiElement6RumbleEv
 951              		.type	_ZN10GuiElement6RumbleEv, @function
 952              	_ZN10GuiElement6RumbleEv:
 953              	.LFB1411:
 954              		.loc 2 256 0
 955              		.cfi_startproc
 956              	.LVL77:
 957              		.loc 2 256 0
 958 0000 8863001C 		lbz 3,28(3)
 959              	.LVL78:
 960 0004 4E800020 		blr
 961              		.cfi_endproc
 962              	.LFE1411:
 963              		.size	_ZN10GuiElement6RumbleEv, .-_ZN10GuiElement6RumbleEv
 964              		.section	.text._ZN10GuiElement9SetRumbleEb,"axG",@progbits,_ZN10GuiElement9SetRumbleEb,comdat
 965              		.align 2
 966              		.weak	_ZN10GuiElement9SetRumbleEb
 967              		.type	_ZN10GuiElement9SetRumbleEb, @function
 968              	_ZN10GuiElement9SetRumbleEb:
 969              	.LFB1412:
 970              		.loc 2 259 0
 971              		.cfi_startproc
 972              	.LVL79:
 973              		.loc 2 259 0
 974 0000 9883001C 		stb 4,28(3)
 975 0004 4E800020 		blr
 976              		.cfi_endproc
 977              	.LFE1412:
 978              		.size	_ZN10GuiElement9SetRumbleEb, .-_ZN10GuiElement9SetRumbleEb
 979              		.section	.text._ZN10GuiElement13SetEffectGrowEv,"axG",@progbits,_ZN10GuiElement13SetEffectGrowEv,c
 980              		.align 2
 981              		.weak	_ZN10GuiElement13SetEffectGrowEv
 982              		.type	_ZN10GuiElement13SetEffectGrowEv, @function
 983              	_ZN10GuiElement13SetEffectGrowEv:
 984              	.LFB1413:
 985              		.loc 2 271 0
 986              		.cfi_startproc
 987              	.LVL80:
 988 0000 7C0802A6 		mflr 0
 989 0004 9421FFF8 		stwu 1,-8(1)
 990              	.LCFI14:
 991              		.cfi_def_cfa_offset 8
 992              		.cfi_register 65, 0
 993 0008 81230000 		lwz 9,0(3)
 994 000c 38800100 		li 4,256
 995 0010 38A00004 		li 5,4
 996 0014 38C0006E 		li 6,110
 997 0018 9001000C 		stw 0,12(1)
 998              		.loc 2 271 0
 999 001c 8009008C 		lwz 0,140(9)
 1000              		.cfi_offset 65, 4
 1001 0020 7C0903A6 		mtctr 0
 1002 0024 4E800421 		bctrl
 1003              	.LVL81:
 1004 0028 8001000C 		lwz 0,12(1)
 1005 002c 38210008 		addi 1,1,8
 1006              	.LCFI15:
 1007              		.cfi_def_cfa_offset 0
 1008 0030 7C0803A6 		mtlr 0
 1009 0034 4E800020 		blr
 1010              		.cfi_endproc
 1011              	.LFE1413:
 1012              		.size	_ZN10GuiElement13SetEffectGrowEv, .-_ZN10GuiElement13SetEffectGrowEv
 1013              		.section	.text._ZNK10GuiElement9GetEffectEv,"axG",@progbits,_ZNK10GuiElement9GetEffectEv,comdat
 1014              		.align 2
 1015              		.weak	_ZNK10GuiElement9GetEffectEv
 1016              		.type	_ZNK10GuiElement9GetEffectEv, @function
 1017              	_ZNK10GuiElement9GetEffectEv:
 1018              	.LFB1414:
 1019              		.loc 2 276 0
 1020              		.cfi_startproc
 1021              	.LVL82:
 1022              		.loc 2 276 0
 1023 0000 80630078 		lwz 3,120(3)
 1024              	.LVL83:
 1025 0004 4E800020 		blr
 1026              		.cfi_endproc
 1027              	.LFE1414:
 1028              		.size	_ZNK10GuiElement9GetEffectEv, .-_ZNK10GuiElement9GetEffectEv
 1029              		.section	.text._ZNK10GuiElement10IsAnimatedEv,"axG",@progbits,_ZNK10GuiElement10IsAnimatedEv,comda
 1030              		.align 2
 1031              		.weak	_ZNK10GuiElement10IsAnimatedEv
 1032              		.type	_ZNK10GuiElement10IsAnimatedEv, @function
 1033              	_ZNK10GuiElement10IsAnimatedEv:
 1034              	.LFB1415:
 1035              		.loc 2 278 0
 1036              		.cfi_startproc
 1037              	.LVL84:
 1038 0000 7C0802A6 		mflr 0
 1039 0004 9421FFF8 		stwu 1,-8(1)
 1040              	.LCFI16:
 1041              		.cfi_def_cfa_offset 8
 1042              		.cfi_register 65, 0
 1043 0008 9001000C 		stw 0,12(1)
 1044              		.loc 2 278 0
 1045 000c 81230000 		lwz 9,0(3)
 1046 0010 80090098 		lwz 0,152(9)
 1047              		.cfi_offset 65, 4
 1048 0014 7C0903A6 		mtctr 0
 1049 0018 4E800421 		bctrl
 1050              	.LVL85:
 1051 001c 7C60FE70 		srawi 0,3,31
 1052 0020 7C630050 		subf 3,3,0
 1053 0024 8001000C 		lwz 0,12(1)
 1054 0028 54630FFE 		srwi 3,3,31
 1055 002c 7C0803A6 		mtlr 0
 1056 0030 38210008 		addi 1,1,8
 1057              	.LCFI17:
 1058              		.cfi_def_cfa_offset 0
 1059 0034 4E800020 		blr
 1060              		.cfi_endproc
 1061              	.LFE1415:
 1062              		.size	_ZNK10GuiElement10IsAnimatedEv, .-_ZNK10GuiElement10IsAnimatedEv
 1063              		.section	.text._ZN10GuiElement9SetBoundsE4RectIiE,"axG",@progbits,_ZN10GuiElement9SetBoundsE4RectI
 1064              		.align 2
 1065              		.weak	_ZN10GuiElement9SetBoundsE4RectIiE
 1066              		.type	_ZN10GuiElement9SetBoundsE4RectIiE, @function
 1067              	_ZN10GuiElement9SetBoundsE4RectIiE:
 1068              	.LFB1416:
 1069              		.loc 2 280 0
 1070              		.cfi_startproc
 1071              	.LVL86:
 1072              	.LBB1988:
 1073              	.LBB1989:
 1074              		.file 5 "d:/Projects/SaveGameManager/savegame-manager-gx/trunk/source/GUI/../Tools/Rect.h"
 1075              		.loc 5 30 0
 1076 0000 81440000 		lwz 10,0(4)
 1077              	.LBE1989:
 1078              	.LBE1988:
 1079              		.loc 2 280 0
 1080              	.LBB1991:
 1081              	.LBB1990:
 1082              		.loc 5 31 0
 1083 0004 81640008 		lwz 11,8(4)
 1084              		.loc 5 32 0
 1085 0008 81240004 		lwz 9,4(4)
 1086              		.loc 5 33 0
 1087 000c 8004000C 		lwz 0,12(4)
 1088              	.LVL87:
 1089              		.loc 5 30 0
 1090 0010 91430050 		stw 10,80(3)
 1091              		.loc 5 31 0
 1092 0014 91630058 		stw 11,88(3)
 1093              		.loc 5 32 0
 1094 0018 91230054 		stw 9,84(3)
 1095              		.loc 5 33 0
 1096 001c 9003005C 		stw 0,92(3)
 1097              	.LBE1990:
 1098              	.LBE1991:
 1099              		.loc 2 280 0
 1100 0020 4E800020 		blr
 1101              		.cfi_endproc
 1102              	.LFE1416:
 1103              		.size	_ZN10GuiElement9SetBoundsE4RectIiE, .-_ZN10GuiElement9SetBoundsE4RectIiE
 1104              		.section	.text._ZN10GuiElement8IsInsideEii,"axG",@progbits,_ZN10GuiElement8IsInsideEii,comdat
 1105              		.align 2
 1106              		.weak	_ZN10GuiElement8IsInsideEii
 1107              		.type	_ZN10GuiElement8IsInsideEii, @function
 1108              	_ZN10GuiElement8IsInsideEii:
 1109              	.LFB1417:
 1110              		.loc 2 285 0
 1111              		.cfi_startproc
 1112              	.LVL88:
 1113 0000 7C0802A6 		mflr 0
 1114 0004 9421FFE8 		stwu 1,-24(1)
 1115              	.LCFI18:
 1116              		.cfi_def_cfa_offset 24
 1117              		.cfi_register 65, 0
 1118 0008 93810008 		stw 28,8(1)
 1119 000c 7CBC2B78 		mr 28,5
 1120              		.cfi_offset 28, -16
 1121 0010 9001001C 		stw 0,28(1)
 1122 0014 93A1000C 		stw 29,12(1)
 1123              		.loc 2 290 0
 1124 0018 3BA00000 		li 29,0
 1125              		.cfi_offset 29, -12
 1126              		.cfi_offset 65, 4
 1127              		.loc 2 287 0
 1128 001c 81230000 		lwz 9,0(3)
 1129              		.loc 2 285 0
 1130 0020 93C10010 		stw 30,16(1)
 1131 0024 7C9E2378 		mr 30,4
 1132              		.cfi_offset 30, -8
 1133              		.loc 2 287 0
 1134 0028 80090010 		lwz 0,16(9)
 1135              		.loc 2 285 0
 1136 002c 93E10014 		stw 31,20(1)
 1137              		.loc 2 285 0
 1138 0030 7C7F1B78 		mr 31,3
 1139              		.cfi_offset 31, -4
 1140              		.loc 2 287 0
 1141 0034 7C0903A6 		mtctr 0
 1142 0038 4E800421 		bctrl
 1143              	.LVL89:
 1144              		.loc 2 290 0
 1145 003c 7F83F000 		cmpw 7,3,30
 1146 0040 419C0028 		blt- 7,.L68
 1147              	.L64:
 1148              		.loc 2 291 0 discriminator 6
 1149 0044 8001001C 		lwz 0,28(1)
 1150 0048 7FA3EB78 		mr 3,29
 1151 004c 83810008 		lwz 28,8(1)
 1152              	.LVL90:
 1153 0050 7C0803A6 		mtlr 0
 1154 0054 83A1000C 		lwz 29,12(1)
 1155 0058 83C10010 		lwz 30,16(1)
 1156              	.LVL91:
 1157 005c 83E10014 		lwz 31,20(1)
 1158              	.LVL92:
 1159 0060 38210018 		addi 1,1,24
 1160              		.cfi_remember_state
 1161              	.LCFI19:
 1162              		.cfi_def_cfa_offset 0
 1163              		.cfi_restore 31
 1164              		.cfi_restore 30
 1165              		.cfi_restore 29
 1166              		.cfi_restore 28
 1167 0064 4E800020 		blr
 1168              	.LVL93:
 1169              	.L68:
 1170              	.LCFI20:
 1171              		.cfi_restore_state
 1172              		.loc 2 288 0 discriminator 1
 1173 0068 813F0000 		lwz 9,0(31)
 1174 006c 7FE3FB78 		mr 3,31
 1175 0070 80090010 		lwz 0,16(9)
 1176 0074 7C0903A6 		mtctr 0
 1177 0078 4E800421 		bctrl
 1178              		.loc 2 290 0 discriminator 1
 1179 007c 801F0024 		lwz 0,36(31)
 1180 0080 7C030214 		add 0,3,0
 1181 0084 7F9E0000 		cmpw 7,30,0
 1182 0088 409CFFBC 		bge+ 7,.L64
 1183              		.loc 2 289 0 discriminator 3
 1184 008c 813F0000 		lwz 9,0(31)
 1185 0090 7FE3FB78 		mr 3,31
 1186 0094 80090014 		lwz 0,20(9)
 1187 0098 7C0903A6 		mtctr 0
 1188 009c 4E800421 		bctrl
 1189              		.loc 2 290 0 discriminator 3
 1190 00a0 7F83E000 		cmpw 7,3,28
 1191 00a4 409CFFA0 		bge+ 7,.L64
 1192              		.loc 2 290 0 is_stmt 0 discriminator 4
 1193 00a8 813F0000 		lwz 9,0(31)
 1194 00ac 7FE3FB78 		mr 3,31
 1195 00b0 80090014 		lwz 0,20(9)
 1196 00b4 7C0903A6 		mtctr 0
 1197 00b8 4E800421 		bctrl
 1198 00bc 801F0028 		lwz 0,40(31)
 1199 00c0 7C030214 		add 0,3,0
 1200              		.loc 2 285 0 is_stmt 1 discriminator 4
 1201 00c4 7F9C0000 		cmpw 7,28,0
 1202 00c8 7FA00026 		mfcr 29
 1203 00cc 57BDEFFE 		rlwinm 29,29,29,1
 1204 00d0 4BFFFF74 		b .L64
 1205              		.cfi_endproc
 1206              	.LFE1417:
 1207              		.size	_ZN10GuiElement8IsInsideEii, .-_ZN10GuiElement8IsInsideEii
 1208              		.section	.text._ZN10GuiElement11SetPositionEii,"axG",@progbits,_ZN10GuiElement11SetPositionEii,com
 1209              		.align 2
 1210              		.weak	_ZN10GuiElement11SetPositionEii
 1211              		.type	_ZN10GuiElement11SetPositionEii, @function
 1212              	_ZN10GuiElement11SetPositionEii:
 1213              	.LFB1418:
 1214              		.loc 2 295 0
 1215              		.cfi_startproc
 1216              	.LVL94:
 1217              		.loc 2 297 0
 1218 0000 9083002C 		stw 4,44(3)
 1219              		.loc 2 299 0
 1220              		.loc 2 298 0
 1221 0004 90A30030 		stw 5,48(3)
 1222              		.loc 2 299 0
 1223 0008 4E800020 		blr
 1224              		.cfi_endproc
 1225              	.LFE1418:
 1226              		.size	_ZN10GuiElement11SetPositionEii, .-_ZN10GuiElement11SetPositionEii
 1227              		.section	.text._ZN10GuiElement11SetPositionEiii,"axG",@progbits,_ZN10GuiElement11SetPositionEiii,c
 1228              		.align 2
 1229              		.weak	_ZN10GuiElement11SetPositionEiii
 1230              		.type	_ZN10GuiElement11SetPositionEiii, @function
 1231              	_ZN10GuiElement11SetPositionEiii:
 1232              	.LFB1419:
 1233              		.loc 2 304 0
 1234              		.cfi_startproc
 1235              	.LVL95:
 1236              		.loc 2 306 0
 1237 0000 9083002C 		stw 4,44(3)
 1238              		.loc 2 309 0
 1239              		.loc 2 307 0
 1240 0004 90A30030 		stw 5,48(3)
 1241              		.loc 2 308 0
 1242 0008 90C30034 		stw 6,52(3)
 1243              		.loc 2 309 0
 1244 000c 4E800020 		blr
 1245              		.cfi_endproc
 1246              	.LFE1419:
 1247              		.size	_ZN10GuiElement11SetPositionEiii, .-_ZN10GuiElement11SetPositionEiii
 1248              		.section	.text._ZN10GuiElement11GetSelectedEv,"axG",@progbits,_ZN10GuiElement11GetSelectedEv,comda
 1249              		.align 2
 1250              		.weak	_ZN10GuiElement11GetSelectedEv
 1251              		.type	_ZN10GuiElement11GetSelectedEv, @function
 1252              	_ZN10GuiElement11GetSelectedEv:
 1253              	.LFB1420:
 1254              		.loc 2 312 0
 1255              		.cfi_startproc
 1256              	.LVL96:
 1257              		.loc 2 312 0
 1258 0000 3860FFFF 		li 3,-1
 1259              	.LVL97:
 1260 0004 4E800020 		blr
 1261              		.cfi_endproc
 1262              	.LFE1420:
 1263              		.size	_ZN10GuiElement11GetSelectedEv, .-_ZN10GuiElement11GetSelectedEv
 1264              		.section	.text._ZN10GuiElement12SetAlignmentEi,"axG",@progbits,_ZN10GuiElement12SetAlignmentEi,com
 1265              		.align 2
 1266              		.weak	_ZN10GuiElement12SetAlignmentEi
 1267              		.type	_ZN10GuiElement12SetAlignmentEi, @function
 1268              	_ZN10GuiElement12SetAlignmentEi:
 1269              	.LFB1421:
 1270              		.loc 2 316 0
 1271              		.cfi_startproc
 1272              	.LVL98:
 1273              		.loc 2 316 0
 1274 0000 90830044 		stw 4,68(3)
 1275 0004 4E800020 		blr
 1276              		.cfi_endproc
 1277              	.LFE1421:
 1278              		.size	_ZN10GuiElement12SetAlignmentEi, .-_ZN10GuiElement12SetAlignmentEi
 1279              		.section	.text._ZNK10GuiElement12GetAlignmentEv,"axG",@progbits,_ZNK10GuiElement12GetAlignmentEv,c
 1280              		.align 2
 1281              		.weak	_ZNK10GuiElement12GetAlignmentEv
 1282              		.type	_ZNK10GuiElement12GetAlignmentEv, @function
 1283              	_ZNK10GuiElement12GetAlignmentEv:
 1284              	.LFB1422:
 1285              		.loc 2 318 0
 1286              		.cfi_startproc
 1287              	.LVL99:
 1288              		.loc 2 318 0
 1289 0000 80630044 		lwz 3,68(3)
 1290              	.LVL100:
 1291 0004 4E800020 		blr
 1292              		.cfi_endproc
 1293              	.LFE1422:
 1294              		.size	_ZNK10GuiElement12GetAlignmentEv, .-_ZNK10GuiElement12GetAlignmentEv
 1295              		.section	.text._ZN10GuiElement6UpdateEP10GuiTrigger,"axG",@progbits,_ZN10GuiElement6UpdateEP10GuiT
 1296              		.align 2
 1297              		.weak	_ZN10GuiElement6UpdateEP10GuiTrigger
 1298              		.type	_ZN10GuiElement6UpdateEP10GuiTrigger, @function
 1299              	_ZN10GuiElement6UpdateEP10GuiTrigger:
 1300              	.LFB1423:
 1301              		.loc 2 321 0
 1302              		.cfi_startproc
 1303              	.LVL101:
 1304              		.loc 2 321 0
 1305 0000 4E800020 		blr
 1306              		.cfi_endproc
 1307              	.LFE1423:
 1308              		.size	_ZN10GuiElement6UpdateEP10GuiTrigger, .-_ZN10GuiElement6UpdateEP10GuiTrigger
 1309              		.section	.text._ZN7GuiText7SetTextESs,"axG",@progbits,_ZN7GuiText7SetTextESs,comdat
 1310              		.align 2
 1311              		.weak	_ZN7GuiText7SetTextESs
 1312              		.type	_ZN7GuiText7SetTextESs, @function
 1313              	_ZN7GuiText7SetTextESs:
 1314              	.LFB1427:
 1315              		.file 6 "d:/Projects/SaveGameManager/savegame-manager-gx/trunk/source/GUI/gui_text.h"
 1316              		.loc 6 51 0
 1317              		.cfi_startproc
 1318              	.LVL102:
 1319 0000 7C0802A6 		mflr 0
 1320 0004 9421FFF8 		stwu 1,-8(1)
 1321              	.LCFI21:
 1322              		.cfi_def_cfa_offset 8
 1323              		.cfi_register 65, 0
 1324 0008 81230000 		lwz 9,0(3)
 1325 000c 9001000C 		stw 0,12(1)
 1326              		.loc 6 51 0
 1327 0010 800900C8 		lwz 0,200(9)
 1328              		.cfi_offset 65, 4
 1329 0014 80840000 		lwz 4,0(4)
 1330              	.LVL103:
 1331 0018 7C0903A6 		mtctr 0
 1332 001c 4E800421 		bctrl
 1333              	.LVL104:
 1334 0020 8001000C 		lwz 0,12(1)
 1335 0024 38210008 		addi 1,1,8
 1336              	.LCFI22:
 1337              		.cfi_def_cfa_offset 0
 1338 0028 7C0803A6 		mtlr 0
 1339 002c 4E800020 		blr
 1340              		.cfi_endproc
 1341              	.LFE1427:
 1342              		.size	_ZN7GuiText7SetTextESs, .-_ZN7GuiText7SetTextESs
 1343              		.section	.text._ZN7GuiText7SetTextESbIwSt11char_traitsIwESaIwEE,"axG",@progbits,_ZN7GuiText7SetTex
 1344              		.align 2
 1345              		.weak	_ZN7GuiText7SetTextESbIwSt11char_traitsIwESaIwEE
 1346              		.type	_ZN7GuiText7SetTextESbIwSt11char_traitsIwESaIwEE, @function
 1347              	_ZN7GuiText7SetTextESbIwSt11char_traitsIwESaIwEE:
 1348              	.LFB1428:
 1349              		.loc 6 53 0
 1350              		.cfi_startproc
 1351              	.LVL105:
 1352 0000 7C0802A6 		mflr 0
 1353 0004 9421FFF8 		stwu 1,-8(1)
 1354              	.LCFI23:
 1355              		.cfi_def_cfa_offset 8
 1356              		.cfi_register 65, 0
 1357 0008 81230000 		lwz 9,0(3)
 1358 000c 9001000C 		stw 0,12(1)
 1359              		.loc 6 53 0
 1360 0010 800900D0 		lwz 0,208(9)
 1361              		.cfi_offset 65, 4
 1362 0014 80840000 		lwz 4,0(4)
 1363              	.LVL106:
 1364 0018 7C0903A6 		mtctr 0
 1365 001c 4E800421 		bctrl
 1366              	.LVL107:
 1367 0020 8001000C 		lwz 0,12(1)
 1368 0024 38210008 		addi 1,1,8
 1369              	.LCFI24:
 1370              		.cfi_def_cfa_offset 0
 1371 0028 7C0803A6 		mtlr 0
 1372 002c 4E800020 		blr
 1373              		.cfi_endproc
 1374              	.LFE1428:
 1375              		.size	_ZN7GuiText7SetTextESbIwSt11char_traitsIwESaIwEE, .-_ZN7GuiText7SetTextESbIwSt11char_traitsI
 1376              		.section	.text._ZNK7GuiText7GetTextEv,"axG",@progbits,_ZNK7GuiText7GetTextEv,comdat
 1377              		.align 2
 1378              		.weak	_ZNK7GuiText7GetTextEv
 1379              		.type	_ZNK7GuiText7GetTextEv, @function
 1380              	_ZNK7GuiText7GetTextEv:
 1381              	.LFB1429:
 1382              		.loc 6 75 0
 1383              		.cfi_startproc
 1384              	.LVL108:
 1385              		.loc 6 75 0
 1386 0000 80630090 		lwz 3,144(3)
 1387              	.LVL109:
 1388 0004 4E800020 		blr
 1389              		.cfi_endproc
 1390              	.LFE1429:
 1391              		.size	_ZNK7GuiText7GetTextEv, .-_ZNK7GuiText7GetTextEv
 1392              		.section	.text._ZN7GuiText13GetLinesCountEv,"axG",@progbits,_ZN7GuiText13GetLinesCountEv,comdat
 1393              		.align 2
 1394              		.weak	_ZN7GuiText13GetLinesCountEv
 1395              		.type	_ZN7GuiText13GetLinesCountEv, @function
 1396              	_ZN7GuiText13GetLinesCountEv:
 1397              	.LFB1431:
 1398              		.loc 6 83 0
 1399              		.cfi_startproc
 1400              	.LVL110:
 1401              		.loc 6 83 0
 1402 0000 38600001 		li 3,1
 1403              	.LVL111:
 1404 0004 4E800020 		blr
 1405              		.cfi_endproc
 1406              	.LFE1431:
 1407              		.size	_ZN7GuiText13GetLinesCountEv, .-_ZN7GuiText13GetLinesCountEv
 1408              		.section	.text._ZN7GuiText11GetTextLineEi,"axG",@progbits,_ZN7GuiText11GetTextLineEi,comdat
 1409              		.align 2
 1410              		.weak	_ZN7GuiText11GetTextLineEi
 1411              		.type	_ZN7GuiText11GetTextLineEi, @function
 1412              	_ZN7GuiText11GetTextLineEi:
 1413              	.LFB1435:
 1414              		.loc 6 92 0
 1415              		.cfi_startproc
 1416              	.LVL112:
 1417              	.LBB1992:
 1418              	.LBB1993:
 1419              		.loc 3 278 0
 1420 0000 2C040000 		cmpwi 0,4,0
 1421              	.LVL113:
 1422 0004 4180001C 		blt- 0,.L80
 1423              	.LVL114:
 1424              	.LBE1993:
 1425              		.loc 3 531 0
 1426 0008 81230094 		lwz 9,148(3)
 1427              	.LBB1996:
 1428              	.LBB1994:
 1429              	.LBB1995:
 1430              		.file 7 "d:\\devkitpro\\devkitppc\\bin\\../lib/gcc/powerpc-eabi/4.6.3/../../../../powerpc-eabi/inc
 1431              		.loc 7 571 0
 1432 000c 80030098 		lwz 0,152(3)
 1433 0010 7C090050 		subf 0,9,0
 1434 0014 7C001670 		srawi 0,0,2
 1435              	.LBE1995:
 1436              	.LBE1994:
 1437              		.loc 3 278 0
 1438 0018 7F840000 		cmpw 7,4,0
 1439 001c 419C000C 		blt- 7,.L81
 1440              	.LVL115:
 1441              	.L80:
 1442              		.loc 3 279 0
 1443 0020 80630090 		lwz 3,144(3)
 1444              	.LVL116:
 1445              	.LBE1996:
 1446              	.LBE1992:
 1447              		.loc 6 92 0
 1448 0024 4E800020 		blr
 1449              	.LVL117:
 1450              	.L81:
 1451              	.LBB1998:
 1452              	.LBB1997:
 1453              		.loc 3 281 0
 1454 0028 5484103A 		slwi 4,4,2
 1455              	.LVL118:
 1456 002c 7C69202E 		lwzx 3,9,4
 1457              	.LVL119:
 1458 0030 4E800020 		blr
 1459              	.LBE1997:
 1460              	.LBE1998:
 1461              		.cfi_endproc
 1462              	.LFE1435:
 1463              		.size	_ZN7GuiText11GetTextLineEi, .-_ZN7GuiText11GetTextLineEi
 1464              		.section	.text._ZN7sigslot12_signal_baseINS_15single_threadedEED2Ev,"axG",@progbits,_ZN7sigslot12_
 1465              		.align 2
 1466              		.weak	_ZN7sigslot12_signal_baseINS_15single_threadedEED2Ev
 1467              		.type	_ZN7sigslot12_signal_baseINS_15single_threadedEED2Ev, @function
 1468              	_ZN7sigslot12_signal_baseINS_15single_threadedEED2Ev:
 1469              	.LFB1623:
 1470              		.loc 1 466 0
 1471              		.cfi_startproc
 1472              	.LVL120:
 1473              	.LBB1999:
 1474              	.LBB2000:
 1475              	.LBB2001:
 1476              	.LBB2002:
 1477              		.loc 1 105 0
 1478 0000 3D200000 		lis 9,_ZTVN7sigslot15single_threadedE+8@ha
 1479              	.LBE2002:
 1480              	.LBE2001:
 1481              	.LBE2000:
 1482              	.LBE1999:
 1483              		.loc 1 466 0
 1484              	.LBB2006:
 1485              	.LBB2005:
 1486              	.LBB2004:
 1487              	.LBB2003:
 1488              		.loc 1 105 0
 1489 0004 38090008 		la 0,_ZTVN7sigslot15single_threadedE+8@l(9)
 1490 0008 90030000 		stw 0,0(3)
 1491              	.LBE2003:
 1492              	.LBE2004:
 1493              	.LBE2005:
 1494              	.LBE2006:
 1495              		.loc 1 466 0
 1496 000c 4E800020 		blr
 1497              		.cfi_endproc
 1498              	.LFE1623:
 1499              		.size	_ZN7sigslot12_signal_baseINS_15single_threadedEED2Ev, .-_ZN7sigslot12_signal_baseINS_15singl
 1500              		.section	.text._ZN7sigslot13_signal_base3IP10GuiElementiiNS_15single_threadedEE14slot_duplicateEPK
 1501              		.align 2
 1502              		.weak	_ZN7sigslot13_signal_base3IP10GuiElementiiNS_15single_threadedEE14slot_duplicateEPKNS_9has_s
 1503              		.type	_ZN7sigslot13_signal_base3IP10GuiElementiiNS_15single_threadedEE14slot_duplicateEPKNS_9has_s
 1504              	_ZN7sigslot13_signal_base3IP10GuiElementiiNS_15single_threadedEE14slot_duplicateEPKNS_9has_slotsIS3
 1505              	.LFB1952:
 1506              		.loc 1 926 0
 1507              		.cfi_startproc
 1508              		.cfi_personality 0,__gxx_personality_v0
 1509              		.cfi_lsda 0,.LLSDA1952
 1510              	.LVL121:
 1511 0000 7C0802A6 		mflr 0
 1512 0004 9421FFE0 		stwu 1,-32(1)
 1513              	.LCFI25:
 1514              		.cfi_def_cfa_offset 32
 1515              		.cfi_register 65, 0
 1516 0008 93410008 		stw 26,8(1)
 1517 000c 7CBA2B78 		mr 26,5
 1518              		.cfi_offset 26, -24
 1519 0010 90010024 		stw 0,36(1)
 1520 0014 9361000C 		stw 27,12(1)
 1521 0018 7C7B1B78 		mr 27,3
 1522              		.cfi_offset 27, -20
 1523              		.cfi_offset 65, 4
 1524              	.LVL122:
 1525              	.LBB2007:
 1526              	.LBB2008:
 1527              	.LBB2009:
 1528              		.loc 1 338 0
 1529 001c 81230000 		lwz 9,0(3)
 1530              	.LBE2009:
 1531              	.LBE2008:
 1532              	.LBE2007:
 1533              		.loc 1 926 0
 1534 0020 93A10014 		stw 29,20(1)
 1535 0024 7C9D2378 		mr 29,4
 1536              		.cfi_offset 29, -12
 1537              	.LBB2038:
 1538              	.LBB2014:
 1539              	.LBB2010:
 1540              		.loc 1 338 0
 1541 0028 80090008 		lwz 0,8(9)
 1542              	.LBE2010:
 1543              	.LBE2014:
 1544              	.LBE2038:
 1545              		.loc 1 926 0
 1546 002c 93C10018 		stw 30,24(1)
 1547              	.LBB2039:
 1548              	.LBB2015:
 1549              	.LBB2011:
 1550              		.loc 3 531 0
 1551 0030 7F7EDB78 		mr 30,27
 1552              		.cfi_offset 30, -8
 1553              	.LBE2011:
 1554              	.LBE2015:
 1555              	.LBE2039:
 1556              		.loc 1 926 0
 1557 0034 93E1001C 		stw 31,28(1)
 1558              	.LBB2040:
 1559              	.LBB2016:
 1560              	.LBB2012:
 1561              		.loc 1 338 0
 1562 0038 7C0903A6 		mtctr 0
 1563              	.LBE2012:
 1564              	.LBE2016:
 1565              	.LBE2040:
 1566              		.loc 1 926 0
 1567 003c 93810010 		stw 28,16(1)
 1568              	.LEHB4:
 1569              	.LBB2041:
 1570              	.LBB2017:
 1571              	.LBB2013:
 1572              		.loc 1 338 0
 1573              		.cfi_offset 28, -16
 1574              		.cfi_offset 31, -4
 1575 0040 4E800421 		bctrl
 1576              	.LEHE4:
 1577              	.LVL123:
 1578              		.loc 3 531 0
 1579 0044 87FE0004 		lwzu 31,4(30)
 1580              	.LVL124:
 1581              	.LBE2013:
 1582              	.LBE2017:
 1583              		.loc 1 932 0
 1584 0048 7F9FF000 		cmpw 7,31,30
 1585 004c 40BE0014 		bne+ 7,.L96
 1586 0050 48000070 		b .L87
 1587              	.LVL125:
 1588              	.L88:
 1589              	.LBB2018:
 1590              	.LBB2019:
 1591              		.loc 4 154 0
 1592 0054 83FF0000 		lwz 31,0(31)
 1593              	.LVL126:
 1594              	.LBE2019:
 1595              	.LBE2018:
 1596              		.loc 1 932 0
 1597 0058 7F9EF800 		cmpw 7,30,31
 1598 005c 419E0064 		beq- 7,.L87
 1599              	.LVL127:
 1600              	.L96:
 1601              		.loc 1 934 0
 1602 0060 807F0008 		lwz 3,8(31)
 1603 0064 81230000 		lwz 9,0(3)
 1604 0068 80090008 		lwz 0,8(9)
 1605 006c 7C0903A6 		mtctr 0
 1606              	.LEHB5:
 1607 0070 4E800421 		bctrl
 1608 0074 7F9D1800 		cmpw 7,29,3
 1609 0078 409EFFDC 		bne+ 7,.L88
 1610              	.LVL128:
 1611              		.loc 1 936 0
 1612 007c 807F0008 		lwz 3,8(31)
 1613 0080 7F44D378 		mr 4,26
 1614 0084 81230000 		lwz 9,0(3)
 1615 0088 80090014 		lwz 0,20(9)
 1616 008c 7C0903A6 		mtctr 0
 1617 0090 4E800421 		bctrl
 1618 0094 7C7C1B78 		mr 28,3
 1619              	.LVL129:
 1620              	.LBB2021:
 1621              	.LBB2022:
 1622              	.LBB2023:
 1623              	.LBB2024:
 1624              	.LBB2025:
 1625              	.LBB2026:
 1626              	.LBB2027:
 1627              	.LBB2028:
 1628              		.file 8 "d:\\devkitpro\\devkitppc\\bin\\../lib/gcc/powerpc-eabi/4.6.3/../../../../powerpc-eabi/inc
 1629              		.loc 8 92 0
 1630 0098 3860000C 		li 3,12
 1631 009c 48000001 		bl _Znwj
 1632              	.LEHE5:
 1633              	.LVL130:
 1634              	.LBE2028:
 1635              	.LBE2027:
 1636              	.LBE2026:
 1637              	.LBB2029:
 1638              	.LBB2030:
 1639              		.loc 8 108 0 discriminator 1
 1640 00a0 2F83FFF8 		cmpwi 7,3,-8
 1641 00a4 419E0008 		beq- 7,.L90
 1642              		.loc 8 108 0 is_stmt 0
 1643 00a8 93830008 		stw 28,8(3)
 1644              	.L90:
 1645              	.LVL131:
 1646              	.LBE2030:
 1647              	.LBE2029:
 1648              	.LBE2025:
 1649              	.LBE2024:
 1650              		.loc 4 1516 0 is_stmt 1
 1651 00ac 7FC4F378 		mr 4,30
 1652 00b0 48000001 		bl _ZNSt8__detail15_List_node_base7_M_hookEPS0_
 1653              	.LVL132:
 1654              	.LBE2023:
 1655              	.LBE2022:
 1656              	.LBE2021:
 1657              	.LBB2031:
 1658              	.LBB2020:
 1659              		.loc 4 154 0
 1660 00b4 83FF0000 		lwz 31,0(31)
 1661              	.LVL133:
 1662              	.LBE2020:
 1663              	.LBE2031:
 1664              		.loc 1 932 0
 1665 00b8 7F9EF800 		cmpw 7,30,31
 1666 00bc 409EFFA4 		bne+ 7,.L96
 1667              	.LVL134:
 1668              	.L87:
 1669              	.LBB2032:
 1670              	.LBB2033:
 1671              	.LBB2034:
 1672              		.loc 1 343 0
 1673 00c0 813B0000 		lwz 9,0(27)
 1674 00c4 7F63DB78 		mr 3,27
 1675 00c8 8009000C 		lwz 0,12(9)
 1676 00cc 7C0903A6 		mtctr 0
 1677              	.LEHB6:
 1678 00d0 4E800421 		bctrl
 1679              	.LEHE6:
 1680              	.LBE2034:
 1681              	.LBE2033:
 1682              	.LBE2032:
 1683              	.LBE2041:
 1684              		.loc 1 941 0
 1685 00d4 80010024 		lwz 0,36(1)
 1686 00d8 83410008 		lwz 26,8(1)
 1687              	.LVL135:
 1688 00dc 7C0803A6 		mtlr 0
 1689 00e0 8361000C 		lwz 27,12(1)
 1690              	.LVL136:
 1691 00e4 83810010 		lwz 28,16(1)
 1692 00e8 83A10014 		lwz 29,20(1)
 1693              	.LVL137:
 1694 00ec 83C10018 		lwz 30,24(1)
 1695              	.LVL138:
 1696 00f0 83E1001C 		lwz 31,28(1)
 1697              	.LVL139:
 1698 00f4 38210020 		addi 1,1,32
 1699              		.cfi_remember_state
 1700              	.LCFI26:
 1701              		.cfi_def_cfa_offset 0
 1702              		.cfi_restore 31
 1703              		.cfi_restore 30
 1704              		.cfi_restore 29
 1705              		.cfi_restore 28
 1706              		.cfi_restore 27
 1707              		.cfi_restore 26
 1708 00f8 4E800020 		blr
 1709              	.LVL140:
 1710              	.L95:
 1711              	.LCFI27:
 1712              		.cfi_restore_state
 1713              	.LBB2042:
 1714              	.LBB2035:
 1715              	.LBB2036:
 1716              	.LBB2037:
 1717              		.loc 1 343 0
 1718 00fc 813B0000 		lwz 9,0(27)
 1719 0100 7C7F1B78 		mr 31,3
 1720              	.LVL141:
 1721 0104 7F63DB78 		mr 3,27
 1722 0108 8009000C 		lwz 0,12(9)
 1723 010c 7C0903A6 		mtctr 0
 1724 0110 4E800421 		bctrl
 1725 0114 7FE3FB78 		mr 3,31
 1726              	.LEHB7:
 1727 0118 48000001 		bl _Unwind_Resume
 1728              	.LEHE7:
 1729              	.LBE2037:
 1730              	.LBE2036:
 1731              	.LBE2035:
 1732              	.LBE2042:
 1733              		.cfi_endproc
 1734              	.LFE1952:
 1735              		.section	.gcc_except_table
 1736              	.LLSDA1952:
 1737 0017 FF       		.byte	0xff
 1738 0018 FF       		.byte	0xff
 1739 0019 01       		.byte	0x1
 1740 001a 13       		.uleb128 .LLSDACSE1952-.LLSDACSB1952
 1741              	.LLSDACSB1952:
 1742 001b 40       		.uleb128 .LEHB4-.LFB1952
 1743 001c 04       		.uleb128 .LEHE4-.LEHB4
 1744 001d 00       		.uleb128 0
 1745 001e 00       		.uleb128 0
 1746 001f 70       		.uleb128 .LEHB5-.LFB1952
 1747 0020 30       		.uleb128 .LEHE5-.LEHB5
 1748 0021 FC01     		.uleb128 .L95-.LFB1952
 1749 0023 00       		.uleb128 0
 1750 0024 D001     		.uleb128 .LEHB6-.LFB1952
 1751 0026 04       		.uleb128 .LEHE6-.LEHB6
 1752 0027 00       		.uleb128 0
 1753 0028 00       		.uleb128 0
 1754 0029 9802     		.uleb128 .LEHB7-.LFB1952
 1755 002b 04       		.uleb128 .LEHE7-.LEHB7
 1756 002c 00       		.uleb128 0
 1757 002d 00       		.uleb128 0
 1758              	.LLSDACSE1952:
 1759              		.section	.text._ZN7sigslot13_signal_base3IP10GuiElementiiNS_15single_threadedEE14slot_duplicateEPK
 1760              		.size	_ZN7sigslot13_signal_base3IP10GuiElementiiNS_15single_threadedEE14slot_duplicateEPKNS_9has_s
 1761              		.section	.text._ZN7sigslot13_signal_base2IP10GuiElementbNS_15single_threadedEE14slot_duplicateEPKN
 1762              		.align 2
 1763              		.weak	_ZN7sigslot13_signal_base2IP10GuiElementbNS_15single_threadedEE14slot_duplicateEPKNS_9has_sl
 1764              		.type	_ZN7sigslot13_signal_base2IP10GuiElementbNS_15single_threadedEE14slot_duplicateEPKNS_9has_sl
 1765              	_ZN7sigslot13_signal_base2IP10GuiElementbNS_15single_threadedEE14slot_duplicateEPKNS_9has_slotsIS3_
 1766              	.LFB1954:
 1767              		.loc 1 806 0
 1768              		.cfi_startproc
 1769              		.cfi_personality 0,__gxx_personality_v0
 1770              		.cfi_lsda 0,.LLSDA1954
 1771              	.LVL142:
 1772 0000 7C0802A6 		mflr 0
 1773 0004 9421FFE0 		stwu 1,-32(1)
 1774              	.LCFI28:
 1775              		.cfi_def_cfa_offset 32
 1776              		.cfi_register 65, 0
 1777 0008 93410008 		stw 26,8(1)
 1778 000c 7CBA2B78 		mr 26,5
 1779              		.cfi_offset 26, -24
 1780 0010 90010024 		stw 0,36(1)
 1781 0014 9361000C 		stw 27,12(1)
 1782 0018 7C7B1B78 		mr 27,3
 1783              		.cfi_offset 27, -20
 1784              		.cfi_offset 65, 4
 1785              	.LVL143:
 1786              	.LBB2043:
 1787              	.LBB2044:
 1788              	.LBB2045:
 1789              		.loc 1 338 0
 1790 001c 81230000 		lwz 9,0(3)
 1791              	.LBE2045:
 1792              	.LBE2044:
 1793              	.LBE2043:
 1794              		.loc 1 806 0
 1795 0020 93A10014 		stw 29,20(1)
 1796 0024 7C9D2378 		mr 29,4
 1797              		.cfi_offset 29, -12
 1798              	.LBB2074:
 1799              	.LBB2050:
 1800              	.LBB2046:
 1801              		.loc 1 338 0
 1802 0028 80090008 		lwz 0,8(9)
 1803              	.LBE2046:
 1804              	.LBE2050:
 1805              	.LBE2074:
 1806              		.loc 1 806 0
 1807 002c 93C10018 		stw 30,24(1)
 1808              	.LBB2075:
 1809              	.LBB2051:
 1810              	.LBB2047:
 1811              		.loc 3 531 0
 1812 0030 7F7EDB78 		mr 30,27
 1813              		.cfi_offset 30, -8
 1814              	.LBE2047:
 1815              	.LBE2051:
 1816              	.LBE2075:
 1817              		.loc 1 806 0
 1818 0034 93E1001C 		stw 31,28(1)
 1819              	.LBB2076:
 1820              	.LBB2052:
 1821              	.LBB2048:
 1822              		.loc 1 338 0
 1823 0038 7C0903A6 		mtctr 0
 1824              	.LBE2048:
 1825              	.LBE2052:
 1826              	.LBE2076:
 1827              		.loc 1 806 0
 1828 003c 93810010 		stw 28,16(1)
 1829              	.LEHB8:
 1830              	.LBB2077:
 1831              	.LBB2053:
 1832              	.LBB2049:
 1833              		.loc 1 338 0
 1834              		.cfi_offset 28, -16
 1835              		.cfi_offset 31, -4
 1836 0040 4E800421 		bctrl
 1837              	.LEHE8:
 1838              	.LVL144:
 1839              		.loc 3 531 0
 1840 0044 87FE0004 		lwzu 31,4(30)
 1841              	.LVL145:
 1842              	.LBE2049:
 1843              	.LBE2053:
 1844              		.loc 1 812 0
 1845 0048 7F9FF000 		cmpw 7,31,30
 1846 004c 40BE0014 		bne+ 7,.L108
 1847 0050 48000070 		b .L99
 1848              	.LVL146:
 1849              	.L100:
 1850              	.LBB2054:
 1851              	.LBB2055:
 1852              		.loc 4 154 0
 1853 0054 83FF0000 		lwz 31,0(31)
 1854              	.LVL147:
 1855              	.LBE2055:
 1856              	.LBE2054:
 1857              		.loc 1 812 0
 1858 0058 7F9EF800 		cmpw 7,30,31
 1859 005c 419E0064 		beq- 7,.L99
 1860              	.LVL148:
 1861              	.L108:
 1862              		.loc 1 814 0
 1863 0060 807F0008 		lwz 3,8(31)
 1864 0064 81230000 		lwz 9,0(3)
 1865 0068 80090008 		lwz 0,8(9)
 1866 006c 7C0903A6 		mtctr 0
 1867              	.LEHB9:
 1868 0070 4E800421 		bctrl
 1869 0074 7F9D1800 		cmpw 7,29,3
 1870 0078 409EFFDC 		bne+ 7,.L100
 1871              	.LVL149:
 1872              		.loc 1 816 0
 1873 007c 807F0008 		lwz 3,8(31)
 1874 0080 7F44D378 		mr 4,26
 1875 0084 81230000 		lwz 9,0(3)
 1876 0088 80090014 		lwz 0,20(9)
 1877 008c 7C0903A6 		mtctr 0
 1878 0090 4E800421 		bctrl
 1879 0094 7C7C1B78 		mr 28,3
 1880              	.LVL150:
 1881              	.LBB2057:
 1882              	.LBB2058:
 1883              	.LBB2059:
 1884              	.LBB2060:
 1885              	.LBB2061:
 1886              	.LBB2062:
 1887              	.LBB2063:
 1888              	.LBB2064:
 1889              		.loc 8 92 0
 1890 0098 3860000C 		li 3,12
 1891 009c 48000001 		bl _Znwj
 1892              	.LEHE9:
 1893              	.LVL151:
 1894              	.LBE2064:
 1895              	.LBE2063:
 1896              	.LBE2062:
 1897              	.LBB2065:
 1898              	.LBB2066:
 1899              		.loc 8 108 0 discriminator 1
 1900 00a0 2F83FFF8 		cmpwi 7,3,-8
 1901 00a4 419E0008 		beq- 7,.L102
 1902              		.loc 8 108 0 is_stmt 0
 1903 00a8 93830008 		stw 28,8(3)
 1904              	.L102:
 1905              	.LVL152:
 1906              	.LBE2066:
 1907              	.LBE2065:
 1908              	.LBE2061:
 1909              	.LBE2060:
 1910              		.loc 4 1516 0 is_stmt 1
 1911 00ac 7FC4F378 		mr 4,30
 1912 00b0 48000001 		bl _ZNSt8__detail15_List_node_base7_M_hookEPS0_
 1913              	.LVL153:
 1914              	.LBE2059:
 1915              	.LBE2058:
 1916              	.LBE2057:
 1917              	.LBB2067:
 1918              	.LBB2056:
 1919              		.loc 4 154 0
 1920 00b4 83FF0000 		lwz 31,0(31)
 1921              	.LVL154:
 1922              	.LBE2056:
 1923              	.LBE2067:
 1924              		.loc 1 812 0
 1925 00b8 7F9EF800 		cmpw 7,30,31
 1926 00bc 409EFFA4 		bne+ 7,.L108
 1927              	.LVL155:
 1928              	.L99:
 1929              	.LBB2068:
 1930              	.LBB2069:
 1931              	.LBB2070:
 1932              		.loc 1 343 0
 1933 00c0 813B0000 		lwz 9,0(27)
 1934 00c4 7F63DB78 		mr 3,27
 1935 00c8 8009000C 		lwz 0,12(9)
 1936 00cc 7C0903A6 		mtctr 0
 1937              	.LEHB10:
 1938 00d0 4E800421 		bctrl
 1939              	.LEHE10:
 1940              	.LBE2070:
 1941              	.LBE2069:
 1942              	.LBE2068:
 1943              	.LBE2077:
 1944              		.loc 1 821 0
 1945 00d4 80010024 		lwz 0,36(1)
 1946 00d8 83410008 		lwz 26,8(1)
 1947              	.LVL156:
 1948 00dc 7C0803A6 		mtlr 0
 1949 00e0 8361000C 		lwz 27,12(1)
 1950              	.LVL157:
 1951 00e4 83810010 		lwz 28,16(1)
 1952 00e8 83A10014 		lwz 29,20(1)
 1953              	.LVL158:
 1954 00ec 83C10018 		lwz 30,24(1)
 1955              	.LVL159:
 1956 00f0 83E1001C 		lwz 31,28(1)
 1957              	.LVL160:
 1958 00f4 38210020 		addi 1,1,32
 1959              		.cfi_remember_state
 1960              	.LCFI29:
 1961              		.cfi_def_cfa_offset 0
 1962              		.cfi_restore 31
 1963              		.cfi_restore 30
 1964              		.cfi_restore 29
 1965              		.cfi_restore 28
 1966              		.cfi_restore 27
 1967              		.cfi_restore 26
 1968 00f8 4E800020 		blr
 1969              	.LVL161:
 1970              	.L107:
 1971              	.LCFI30:
 1972              		.cfi_restore_state
 1973              	.LBB2078:
 1974              	.LBB2071:
 1975              	.LBB2072:
 1976              	.LBB2073:
 1977              		.loc 1 343 0
 1978 00fc 813B0000 		lwz 9,0(27)
 1979 0100 7C7F1B78 		mr 31,3
 1980              	.LVL162:
 1981 0104 7F63DB78 		mr 3,27
 1982 0108 8009000C 		lwz 0,12(9)
 1983 010c 7C0903A6 		mtctr 0
 1984 0110 4E800421 		bctrl
 1985 0114 7FE3FB78 		mr 3,31
 1986              	.LEHB11:
 1987 0118 48000001 		bl _Unwind_Resume
 1988              	.LEHE11:
 1989              	.LBE2073:
 1990              	.LBE2072:
 1991              	.LBE2071:
 1992              	.LBE2078:
 1993              		.cfi_endproc
 1994              	.LFE1954:
 1995              		.section	.gcc_except_table
 1996              	.LLSDA1954:
 1997 002e FF       		.byte	0xff
 1998 002f FF       		.byte	0xff
 1999 0030 01       		.byte	0x1
 2000 0031 13       		.uleb128 .LLSDACSE1954-.LLSDACSB1954
 2001              	.LLSDACSB1954:
 2002 0032 40       		.uleb128 .LEHB8-.LFB1954
 2003 0033 04       		.uleb128 .LEHE8-.LEHB8
 2004 0034 00       		.uleb128 0
 2005 0035 00       		.uleb128 0
 2006 0036 70       		.uleb128 .LEHB9-.LFB1954
 2007 0037 30       		.uleb128 .LEHE9-.LEHB9
 2008 0038 FC01     		.uleb128 .L107-.LFB1954
 2009 003a 00       		.uleb128 0
 2010 003b D001     		.uleb128 .LEHB10-.LFB1954
 2011 003d 04       		.uleb128 .LEHE10-.LEHB10
 2012 003e 00       		.uleb128 0
 2013 003f 00       		.uleb128 0
 2014 0040 9802     		.uleb128 .LEHB11-.LFB1954
 2015 0042 04       		.uleb128 .LEHE11-.LEHB11
 2016 0043 00       		.uleb128 0
 2017 0044 00       		.uleb128 0
 2018              	.LLSDACSE1954:
 2019              		.section	.text._ZN7sigslot13_signal_base2IP10GuiElementbNS_15single_threadedEE14slot_duplicateEPKN
 2020              		.size	_ZN7sigslot13_signal_base2IP10GuiElementbNS_15single_threadedEE14slot_duplicateEPKNS_9has_sl
 2021              		.section	.text._ZN7sigslot12_signal_baseINS_15single_threadedEED0Ev,"axG",@progbits,_ZN7sigslot12_
 2022              		.align 2
 2023              		.weak	_ZN7sigslot12_signal_baseINS_15single_threadedEED0Ev
 2024              		.type	_ZN7sigslot12_signal_baseINS_15single_threadedEED0Ev, @function
 2025              	_ZN7sigslot12_signal_baseINS_15single_threadedEED0Ev:
 2026              	.LFB1625:
 2027              		.loc 1 466 0
 2028              		.cfi_startproc
 2029              	.LVL163:
 2030 0000 7C0802A6 		mflr 0
 2031 0004 9421FFF8 		stwu 1,-8(1)
 2032              	.LCFI31:
 2033              		.cfi_def_cfa_offset 8
 2034              		.cfi_register 65, 0
 2035              	.LBB2079:
 2036              	.LBB2080:
 2037              	.LBB2081:
 2038              	.LBB2082:
 2039              	.LBB2083:
 2040              	.LBB2084:
 2041              		.loc 1 105 0
 2042 0008 3D200000 		lis 9,_ZTVN7sigslot15single_threadedE+8@ha
 2043              	.LBE2084:
 2044              	.LBE2083:
 2045              	.LBE2082:
 2046              	.LBE2081:
 2047              	.LBE2080:
 2048              	.LBE2079:
 2049              		.loc 1 466 0
 2050 000c 9001000C 		stw 0,12(1)
 2051              	.LBB2090:
 2052              	.LBB2089:
 2053              	.LBB2088:
 2054              	.LBB2087:
 2055              	.LBB2086:
 2056              	.LBB2085:
 2057              		.loc 1 105 0
 2058 0010 38090008 		la 0,_ZTVN7sigslot15single_threadedE+8@l(9)
 2059              		.cfi_offset 65, 4
 2060 0014 90030000 		stw 0,0(3)
 2061              	.LBE2085:
 2062              	.LBE2086:
 2063              	.LBE2087:
 2064              	.LBE2088:
 2065              	.LBE2089:
 2066              	.LBE2090:
 2067              		.loc 1 466 0
 2068 0018 48000001 		bl _ZdlPv
 2069              	.LVL164:
 2070 001c 8001000C 		lwz 0,12(1)
 2071 0020 38210008 		addi 1,1,8
 2072              	.LCFI32:
 2073              		.cfi_def_cfa_offset 0
 2074 0024 7C0803A6 		mtlr 0
 2075 0028 4E800020 		blr
 2076              		.cfi_endproc
 2077              	.LFE1625:
 2078              		.size	_ZN7sigslot12_signal_baseINS_15single_threadedEED0Ev, .-_ZN7sigslot12_signal_baseINS_15singl
 2079              		.section	.text._ZN7sigslot15single_threadedD0Ev,"axG",@progbits,_ZN7sigslot15single_threadedD5Ev,c
 2080              		.align 2
 2081              		.weak	_ZN7sigslot15single_threadedD0Ev
 2082              		.type	_ZN7sigslot15single_threadedD0Ev, @function
 2083              	_ZN7sigslot15single_threadedD0Ev:
 2084              	.LFB1150:
 2085              		.loc 1 104 0
 2086              		.cfi_startproc
 2087              	.LVL165:
 2088 0000 7C0802A6 		mflr 0
 2089 0004 9421FFF8 		stwu 1,-8(1)
 2090              	.LCFI33:
 2091              		.cfi_def_cfa_offset 8
 2092              		.cfi_register 65, 0
 2093              	.LBB2091:
 2094              	.LBB2092:
 2095              	.LBB2093:
 2096              		.loc 1 105 0
 2097 0008 3D200000 		lis 9,_ZTVN7sigslot15single_threadedE+8@ha
 2098              	.LBE2093:
 2099              	.LBE2092:
 2100              	.LBE2091:
 2101              		.loc 1 104 0
 2102 000c 9001000C 		stw 0,12(1)
 2103              	.LBB2096:
 2104              	.LBB2095:
 2105              	.LBB2094:
 2106              		.loc 1 105 0
 2107 0010 38090008 		la 0,_ZTVN7sigslot15single_threadedE+8@l(9)
 2108              		.cfi_offset 65, 4
 2109 0014 90030000 		stw 0,0(3)
 2110              	.LBE2094:
 2111              	.LBE2095:
 2112              	.LBE2096:
 2113              		.loc 1 107 0
 2114 0018 48000001 		bl _ZdlPv
 2115              	.LVL166:
 2116 001c 8001000C 		lwz 0,12(1)
 2117 0020 38210008 		addi 1,1,8
 2118              	.LCFI34:
 2119              		.cfi_def_cfa_offset 0
 2120 0024 7C0803A6 		mtlr 0
 2121 0028 4E800020 		blr
 2122              		.cfi_endproc
 2123              	.LFE1150:
 2124              		.size	_ZN7sigslot15single_threadedD0Ev, .-_ZN7sigslot15single_threadedD0Ev
 2125              		.section	.text._ZN7sigslot13_signal_base3IP10GuiElementiiNS_15single_threadedEE15slot_disconnectEP
 2126              		.align 2
 2127              		.weak	_ZN7sigslot13_signal_base3IP10GuiElementiiNS_15single_threadedEE15slot_disconnectEPNS_9has_s
 2128              		.type	_ZN7sigslot13_signal_base3IP10GuiElementiiNS_15single_threadedEE15slot_disconnectEPNS_9has_s
 2129              	_ZN7sigslot13_signal_base3IP10GuiElementiiNS_15single_threadedEE15slot_disconnectEPNS_9has_slotsIS3
 2130              	.LFB1951:
 2131              		.loc 1 990 0
 2132              		.cfi_startproc
 2133              		.cfi_personality 0,__gxx_personality_v0
 2134              		.cfi_lsda 0,.LLSDA1951
 2135              	.LVL167:
 2136 0000 7C0802A6 		mflr 0
 2137 0004 9421FFE0 		stwu 1,-32(1)
 2138              	.LCFI35:
 2139              		.cfi_def_cfa_offset 32
 2140              		.cfi_register 65, 0
 2141 0008 9361000C 		stw 27,12(1)
 2142 000c 7C7B1B78 		mr 27,3
 2143              		.cfi_offset 27, -20
 2144              	.LVL168:
 2145 0010 90010024 		stw 0,36(1)
 2146 0014 93810010 		stw 28,16(1)
 2147 0018 7C9C2378 		mr 28,4
 2148              		.cfi_offset 28, -16
 2149              		.cfi_offset 65, 4
 2150              	.LBB2097:
 2151              	.LBB2098:
 2152              	.LBB2099:
 2153              		.loc 1 338 0
 2154 001c 81230000 		lwz 9,0(3)
 2155              	.LBE2099:
 2156              	.LBE2098:
 2157              	.LBE2097:
 2158              		.loc 1 990 0
 2159 0020 93A10014 		stw 29,20(1)
 2160              	.LBB2120:
 2161              	.LBB2102:
 2162              	.LBB2100:
 2163              		.loc 3 531 0
 2164 0024 7F7DDB78 		mr 29,27
 2165              		.cfi_offset 29, -12
 2166              		.loc 1 338 0
 2167 0028 80090008 		lwz 0,8(9)
 2168              	.LBE2100:
 2169              	.LBE2102:
 2170              	.LBE2120:
 2171              		.loc 1 990 0
 2172 002c 93E1001C 		stw 31,28(1)
 2173 0030 93C10018 		stw 30,24(1)
 2174              	.LBB2121:
 2175              	.LBB2103:
 2176              	.LBB2101:
 2177              		.loc 1 338 0
 2178 0034 7C0903A6 		mtctr 0
 2179              	.LEHB12:
 2180              		.cfi_offset 30, -8
 2181              		.cfi_offset 31, -4
 2182 0038 4E800421 		bctrl
 2183              	.LEHE12:
 2184              	.LVL169:
 2185              		.loc 3 531 0
 2186 003c 87FD0004 		lwzu 31,4(29)
 2187              	.LVL170:
 2188              	.LBE2101:
 2189              	.LBE2103:
 2190              		.loc 1 996 0
 2191 0040 7F9FE800 		cmpw 7,31,29
 2192 0044 40BE0014 		bne+ 7,.L129
 2193 0048 48000064 		b .L118
 2194              	.LVL171:
 2195              	.L119:
 2196              		.loc 1 996 0 is_stmt 0 discriminator 1
 2197 004c 7F9DF000 		cmpw 7,29,30
 2198 0050 419E005C 		beq- 7,.L118
 2199              	.L127:
 2200              		.loc 1 996 0
 2201 0054 7FDFF378 		mr 31,30
 2202              	.LVL172:
 2203              	.L129:
 2204              	.LBB2104:
 2205              		.loc 1 1001 0 is_stmt 1
 2206 0058 807F0008 		lwz 3,8(31)
 2207              	.LBB2105:
 2208              	.LBB2106:
 2209              		.loc 4 154 0
 2210 005c 83DF0000 		lwz 30,0(31)
 2211              	.LVL173:
 2212              	.LBE2106:
 2213              	.LBE2105:
 2214              		.loc 1 1001 0
 2215 0060 81230000 		lwz 9,0(3)
 2216 0064 80090008 		lwz 0,8(9)
 2217 0068 7C0903A6 		mtctr 0
 2218              	.LEHB13:
 2219 006c 4E800421 		bctrl
 2220              	.LVL174:
 2221 0070 7F9C1800 		cmpw 7,28,3
 2222 0074 409EFFD8 		bne+ 7,.L119
 2223              	.LVL175:
 2224              		.loc 1 1003 0
 2225 0078 807F0008 		lwz 3,8(31)
 2226 007c 2F830000 		cmpwi 7,3,0
 2227 0080 419E0014 		beq- 7,.L120
 2228              		.loc 1 1003 0 is_stmt 0 discriminator 1
 2229 0084 81230000 		lwz 9,0(3)
 2230 0088 80090004 		lwz 0,4(9)
 2231 008c 7C0903A6 		mtctr 0
 2232 0090 4E800421 		bctrl
 2233              	.LEHE13:
 2234              	.L120:
 2235              	.LVL176:
 2236              	.LBB2107:
 2237              	.LBB2108:
 2238              	.LBB2109:
 2239              	.LBB2110:
 2240              		.loc 4 1532 0 is_stmt 1
 2241 0094 7FE3FB78 		mr 3,31
 2242 0098 48000001 		bl _ZNSt8__detail15_List_node_base9_M_unhookEv
 2243              	.LVL177:
 2244              	.LBB2111:
 2245              	.LBB2112:
 2246              	.LBB2113:
 2247              		.loc 8 98 0
 2248 009c 7FE3FB78 		mr 3,31
 2249 00a0 48000001 		bl _ZdlPv
 2250              	.LVL178:
 2251              	.LBE2113:
 2252              	.LBE2112:
 2253              	.LBE2111:
 2254              	.LBE2110:
 2255              	.LBE2109:
 2256              	.LBE2108:
 2257              	.LBE2107:
 2258              	.LBE2104:
 2259              		.loc 1 996 0
 2260 00a4 7F9DF000 		cmpw 7,29,30
 2261 00a8 409EFFAC 		bne+ 7,.L127
 2262              	.LVL179:
 2263              	.L118:
 2264              	.LBB2114:
 2265              	.LBB2115:
 2266              	.LBB2116:
 2267              		.loc 1 343 0
 2268 00ac 813B0000 		lwz 9,0(27)
 2269 00b0 7F63DB78 		mr 3,27
 2270 00b4 8009000C 		lwz 0,12(9)
 2271 00b8 7C0903A6 		mtctr 0
 2272              	.LEHB14:
 2273 00bc 4E800421 		bctrl
 2274              	.LEHE14:
 2275              	.LBE2116:
 2276              	.LBE2115:
 2277              	.LBE2114:
 2278              	.LBE2121:
 2279              		.loc 1 1010 0
 2280 00c0 80010024 		lwz 0,36(1)
 2281 00c4 8361000C 		lwz 27,12(1)
 2282              	.LVL180:
 2283 00c8 7C0803A6 		mtlr 0
 2284 00cc 83810010 		lwz 28,16(1)
 2285              	.LVL181:
 2286 00d0 83A10014 		lwz 29,20(1)
 2287              	.LVL182:
 2288 00d4 83C10018 		lwz 30,24(1)
 2289 00d8 83E1001C 		lwz 31,28(1)
 2290 00dc 38210020 		addi 1,1,32
 2291              		.cfi_remember_state
 2292              	.LCFI36:
 2293              		.cfi_def_cfa_offset 0
 2294              		.cfi_restore 31
 2295              		.cfi_restore 30
 2296              		.cfi_restore 29
 2297              		.cfi_restore 28
 2298              		.cfi_restore 27
 2299 00e0 4E800020 		blr
 2300              	.LVL183:
 2301              	.L128:
 2302              	.LCFI37:
 2303              		.cfi_restore_state
 2304              	.LBB2122:
 2305              	.LBB2117:
 2306              	.LBB2118:
 2307              	.LBB2119:
 2308              		.loc 1 343 0
 2309 00e4 813B0000 		lwz 9,0(27)
 2310 00e8 7C7F1B78 		mr 31,3
 2311              	.LVL184:
 2312 00ec 7F63DB78 		mr 3,27
 2313 00f0 8009000C 		lwz 0,12(9)
 2314 00f4 7C0903A6 		mtctr 0
 2315 00f8 4E800421 		bctrl
 2316 00fc 7FE3FB78 		mr 3,31
 2317              	.LEHB15:
 2318 0100 48000001 		bl _Unwind_Resume
 2319              	.LEHE15:
 2320              	.LBE2119:
 2321              	.LBE2118:
 2322              	.LBE2117:
 2323              	.LBE2122:
 2324              		.cfi_endproc
 2325              	.LFE1951:
 2326              		.section	.gcc_except_table
 2327              	.LLSDA1951:
 2328 0045 FF       		.byte	0xff
 2329 0046 FF       		.byte	0xff
 2330 0047 01       		.byte	0x1
 2331 0048 13       		.uleb128 .LLSDACSE1951-.LLSDACSB1951
 2332              	.LLSDACSB1951:
 2333 0049 38       		.uleb128 .LEHB12-.LFB1951
 2334 004a 04       		.uleb128 .LEHE12-.LEHB12
 2335 004b 00       		.uleb128 0
 2336 004c 00       		.uleb128 0
 2337 004d 6C       		.uleb128 .LEHB13-.LFB1951
 2338 004e 28       		.uleb128 .LEHE13-.LEHB13
 2339 004f E401     		.uleb128 .L128-.LFB1951
 2340 0051 00       		.uleb128 0
 2341 0052 BC01     		.uleb128 .LEHB14-.LFB1951
 2342 0054 04       		.uleb128 .LEHE14-.LEHB14
 2343 0055 00       		.uleb128 0
 2344 0056 00       		.uleb128 0
 2345 0057 8002     		.uleb128 .LEHB15-.LFB1951
 2346 0059 04       		.uleb128 .LEHE15-.LEHB15
 2347 005a 00       		.uleb128 0
 2348 005b 00       		.uleb128 0
 2349              	.LLSDACSE1951:
 2350              		.section	.text._ZN7sigslot13_signal_base3IP10GuiElementiiNS_15single_threadedEE15slot_disconnectEP
 2351              		.size	_ZN7sigslot13_signal_base3IP10GuiElementiiNS_15single_threadedEE15slot_disconnectEPNS_9has_s
 2352              		.section	.text._ZN7sigslot13_signal_base2IP10GuiElementbNS_15single_threadedEE15slot_disconnectEPN
 2353              		.align 2
 2354              		.weak	_ZN7sigslot13_signal_base2IP10GuiElementbNS_15single_threadedEE15slot_disconnectEPNS_9has_sl
 2355              		.type	_ZN7sigslot13_signal_base2IP10GuiElementbNS_15single_threadedEE15slot_disconnectEPNS_9has_sl
 2356              	_ZN7sigslot13_signal_base2IP10GuiElementbNS_15single_threadedEE15slot_disconnectEPNS_9has_slotsIS3_
 2357              	.LFB1953:
 2358              		.loc 1 870 0
 2359              		.cfi_startproc
 2360              		.cfi_personality 0,__gxx_personality_v0
 2361              		.cfi_lsda 0,.LLSDA1953
 2362              	.LVL185:
 2363 0000 7C0802A6 		mflr 0
 2364 0004 9421FFE0 		stwu 1,-32(1)
 2365              	.LCFI38:
 2366              		.cfi_def_cfa_offset 32
 2367              		.cfi_register 65, 0
 2368 0008 9361000C 		stw 27,12(1)
 2369 000c 7C7B1B78 		mr 27,3
 2370              		.cfi_offset 27, -20
 2371              	.LVL186:
 2372 0010 90010024 		stw 0,36(1)
 2373 0014 93810010 		stw 28,16(1)
 2374 0018 7C9C2378 		mr 28,4
 2375              		.cfi_offset 28, -16
 2376              		.cfi_offset 65, 4
 2377              	.LBB2123:
 2378              	.LBB2124:
 2379              	.LBB2125:
 2380              		.loc 1 338 0
 2381 001c 81230000 		lwz 9,0(3)
 2382              	.LBE2125:
 2383              	.LBE2124:
 2384              	.LBE2123:
 2385              		.loc 1 870 0
 2386 0020 93A10014 		stw 29,20(1)
 2387              	.LBB2146:
 2388              	.LBB2128:
 2389              	.LBB2126:
 2390              		.loc 3 531 0
 2391 0024 7F7DDB78 		mr 29,27
 2392              		.cfi_offset 29, -12
 2393              		.loc 1 338 0
 2394 0028 80090008 		lwz 0,8(9)
 2395              	.LBE2126:
 2396              	.LBE2128:
 2397              	.LBE2146:
 2398              		.loc 1 870 0
 2399 002c 93E1001C 		stw 31,28(1)
 2400 0030 93C10018 		stw 30,24(1)
 2401              	.LBB2147:
 2402              	.LBB2129:
 2403              	.LBB2127:
 2404              		.loc 1 338 0
 2405 0034 7C0903A6 		mtctr 0
 2406              	.LEHB16:
 2407              		.cfi_offset 30, -8
 2408              		.cfi_offset 31, -4
 2409 0038 4E800421 		bctrl
 2410              	.LEHE16:
 2411              	.LVL187:
 2412              		.loc 3 531 0
 2413 003c 87FD0004 		lwzu 31,4(29)
 2414              	.LVL188:
 2415              	.LBE2127:
 2416              	.LBE2129:
 2417              		.loc 1 876 0
 2418 0040 7F9FE800 		cmpw 7,31,29
 2419 0044 40BE0014 		bne+ 7,.L142
 2420 0048 48000064 		b .L131
 2421              	.LVL189:
 2422              	.L132:
 2423              		.loc 1 876 0 is_stmt 0 discriminator 1
 2424 004c 7F9DF000 		cmpw 7,29,30
 2425 0050 419E005C 		beq- 7,.L131
 2426              	.L140:
 2427              		.loc 1 876 0
 2428 0054 7FDFF378 		mr 31,30
 2429              	.LVL190:
 2430              	.L142:
 2431              	.LBB2130:
 2432              		.loc 1 881 0 is_stmt 1
 2433 0058 807F0008 		lwz 3,8(31)
 2434              	.LBB2131:
 2435              	.LBB2132:
 2436              		.loc 4 154 0
 2437 005c 83DF0000 		lwz 30,0(31)
 2438              	.LVL191:
 2439              	.LBE2132:
 2440              	.LBE2131:
 2441              		.loc 1 881 0
 2442 0060 81230000 		lwz 9,0(3)
 2443 0064 80090008 		lwz 0,8(9)
 2444 0068 7C0903A6 		mtctr 0
 2445              	.LEHB17:
 2446 006c 4E800421 		bctrl
 2447              	.LVL192:
 2448 0070 7F9C1800 		cmpw 7,28,3
 2449 0074 409EFFD8 		bne+ 7,.L132
 2450              	.LVL193:
 2451              		.loc 1 883 0
 2452 0078 807F0008 		lwz 3,8(31)
 2453 007c 2F830000 		cmpwi 7,3,0
 2454 0080 419E0014 		beq- 7,.L133
 2455              		.loc 1 883 0 is_stmt 0 discriminator 1
 2456 0084 81230000 		lwz 9,0(3)
 2457 0088 80090004 		lwz 0,4(9)
 2458 008c 7C0903A6 		mtctr 0
 2459 0090 4E800421 		bctrl
 2460              	.LEHE17:
 2461              	.L133:
 2462              	.LVL194:
 2463              	.LBB2133:
 2464              	.LBB2134:
 2465              	.LBB2135:
 2466              	.LBB2136:
 2467              		.loc 4 1532 0 is_stmt 1
 2468 0094 7FE3FB78 		mr 3,31
 2469 0098 48000001 		bl _ZNSt8__detail15_List_node_base9_M_unhookEv
 2470              	.LVL195:
 2471              	.LBB2137:
 2472              	.LBB2138:
 2473              	.LBB2139:
 2474              		.loc 8 98 0
 2475 009c 7FE3FB78 		mr 3,31
 2476 00a0 48000001 		bl _ZdlPv
 2477              	.LVL196:
 2478              	.LBE2139:
 2479              	.LBE2138:
 2480              	.LBE2137:
 2481              	.LBE2136:
 2482              	.LBE2135:
 2483              	.LBE2134:
 2484              	.LBE2133:
 2485              	.LBE2130:
 2486              		.loc 1 876 0
 2487 00a4 7F9DF000 		cmpw 7,29,30
 2488 00a8 409EFFAC 		bne+ 7,.L140
 2489              	.LVL197:
 2490              	.L131:
 2491              	.LBB2140:
 2492              	.LBB2141:
 2493              	.LBB2142:
 2494              		.loc 1 343 0
 2495 00ac 813B0000 		lwz 9,0(27)
 2496 00b0 7F63DB78 		mr 3,27
 2497 00b4 8009000C 		lwz 0,12(9)
 2498 00b8 7C0903A6 		mtctr 0
 2499              	.LEHB18:
 2500 00bc 4E800421 		bctrl
 2501              	.LEHE18:
 2502              	.LBE2142:
 2503              	.LBE2141:
 2504              	.LBE2140:
 2505              	.LBE2147:
 2506              		.loc 1 890 0
 2507 00c0 80010024 		lwz 0,36(1)
 2508 00c4 8361000C 		lwz 27,12(1)
 2509              	.LVL198:
 2510 00c8 7C0803A6 		mtlr 0
 2511 00cc 83810010 		lwz 28,16(1)
 2512              	.LVL199:
 2513 00d0 83A10014 		lwz 29,20(1)
 2514              	.LVL200:
 2515 00d4 83C10018 		lwz 30,24(1)
 2516 00d8 83E1001C 		lwz 31,28(1)
 2517 00dc 38210020 		addi 1,1,32
 2518              		.cfi_remember_state
 2519              	.LCFI39:
 2520              		.cfi_def_cfa_offset 0
 2521              		.cfi_restore 31
 2522              		.cfi_restore 30
 2523              		.cfi_restore 29
 2524              		.cfi_restore 28
 2525              		.cfi_restore 27
 2526 00e0 4E800020 		blr
 2527              	.LVL201:
 2528              	.L141:
 2529              	.LCFI40:
 2530              		.cfi_restore_state
 2531              	.LBB2148:
 2532              	.LBB2143:
 2533              	.LBB2144:
 2534              	.LBB2145:
 2535              		.loc 1 343 0
 2536 00e4 813B0000 		lwz 9,0(27)
 2537 00e8 7C7F1B78 		mr 31,3
 2538              	.LVL202:
 2539 00ec 7F63DB78 		mr 3,27
 2540 00f0 8009000C 		lwz 0,12(9)
 2541 00f4 7C0903A6 		mtctr 0
 2542 00f8 4E800421 		bctrl
 2543 00fc 7FE3FB78 		mr 3,31
 2544              	.LEHB19:
 2545 0100 48000001 		bl _Unwind_Resume
 2546              	.LEHE19:
 2547              	.LBE2145:
 2548              	.LBE2144:
 2549              	.LBE2143:
 2550              	.LBE2148:
 2551              		.cfi_endproc
 2552              	.LFE1953:
 2553              		.section	.gcc_except_table
 2554              	.LLSDA1953:
 2555 005c FF       		.byte	0xff
 2556 005d FF       		.byte	0xff
 2557 005e 01       		.byte	0x1
 2558 005f 13       		.uleb128 .LLSDACSE1953-.LLSDACSB1953
 2559              	.LLSDACSB1953:
 2560 0060 38       		.uleb128 .LEHB16-.LFB1953
 2561 0061 04       		.uleb128 .LEHE16-.LEHB16
 2562 0062 00       		.uleb128 0
 2563 0063 00       		.uleb128 0
 2564 0064 6C       		.uleb128 .LEHB17-.LFB1953
 2565 0065 28       		.uleb128 .LEHE17-.LEHB17
 2566 0066 E401     		.uleb128 .L141-.LFB1953
 2567 0068 00       		.uleb128 0
 2568 0069 BC01     		.uleb128 .LEHB18-.LFB1953
 2569 006b 04       		.uleb128 .LEHE18-.LEHB18
 2570 006c 00       		.uleb128 0
 2571 006d 00       		.uleb128 0
 2572 006e 8002     		.uleb128 .LEHB19-.LFB1953
 2573 0070 04       		.uleb128 .LEHE19-.LEHB19
 2574 0071 00       		.uleb128 0
 2575 0072 00       		.uleb128 0
 2576              	.LLSDACSE1953:
 2577              		.section	.text._ZN7sigslot13_signal_base2IP10GuiElementbNS_15single_threadedEE15slot_disconnectEPN
 2578              		.size	_ZN7sigslot13_signal_base2IP10GuiElementbNS_15single_threadedEE15slot_disconnectEPNS_9has_sl
 2579              		.section	".text"
 2580              		.align 2
 2581              		.globl _ZN7GuiText8SetTextfEPKcz
 2582              		.type	_ZN7GuiText8SetTextfEPKcz, @function
 2583              	_ZN7GuiText8SetTextfEPKcz:
 2584              	.LFB1548:
 2585              		.loc 3 169 0
 2586              		.cfi_startproc
 2587              	.LVL203:
 2588 0000 7C0802A6 		mflr 0
 2589 0004 9421FF88 		stwu 1,-120(1)
 2590              	.LCFI41:
 2591              		.cfi_def_cfa_offset 120
 2592              		.cfi_register 65, 0
 2593 0008 93E10074 		stw 31,116(1)
 2594 000c 7C7F1B78 		mr 31,3
 2595              		.cfi_offset 31, -4
 2596 0010 9001007C 		stw 0,124(1)
 2597 0014 93C10070 		stw 30,112(1)
 2598 0018 90A10018 		stw 5,24(1)
 2599 001c 90C1001C 		stw 6,28(1)
 2600 0020 90E10020 		stw 7,32(1)
 2601 0024 91010024 		stw 8,36(1)
 2602 0028 91210028 		stw 9,40(1)
 2603 002c 9141002C 		stw 10,44(1)
 2604 0030 40860024 		bne- 1,.L144
 2605              		.cfi_offset 30, -8
 2606              		.cfi_offset 65, 4
 2607              		.loc 3 169 0
 2608 0034 D8210030 		stfd 1,48(1)
 2609 0038 D8410038 		stfd 2,56(1)
 2610 003c D8610040 		stfd 3,64(1)
 2611 0040 D8810048 		stfd 4,72(1)
 2612 0044 D8A10050 		stfd 5,80(1)
 2613 0048 D8C10058 		stfd 6,88(1)
 2614 004c D8E10060 		stfd 7,96(1)
 2615 0050 D9010068 		stfd 8,104(1)
 2616              	.L144:
 2617              	.LBB2149:
 2618              		.loc 3 170 0
 2619 0054 7C9E2379 		mr. 30,4
 2620 0058 4182008C 		beq- 0,.L149
 2621              	.LVL204:
 2622              	.L145:
 2623              		.loc 3 175 0
 2624 005c 7C290B78 		mr 9,1
 2625 0060 38010080 		addi 0,1,128
 2626 0064 94090010 		stwu 0,16(9)
 2627 0068 39600002 		li 11,2
 2628              		.loc 3 173 0
 2629 006c 38000000 		li 0,0
 2630              		.loc 3 176 0
 2631 0070 38610008 		addi 3,1,8
 2632 0074 7FC4F378 		mr 4,30
 2633 0078 38A1000C 		addi 5,1,12
 2634              		.loc 3 173 0
 2635 007c 90010008 		stw 0,8(1)
 2636              	.LVL205:
 2637              		.loc 3 175 0
 2638 0080 9961000C 		stb 11,12(1)
 2639 0084 9801000D 		stb 0,13(1)
 2640 0088 91210014 		stw 9,20(1)
 2641              		.loc 3 176 0
 2642 008c 48000001 		bl vasprintf
 2643 0090 2F830000 		cmpwi 7,3,0
 2644 0094 80610008 		lwz 3,8(1)
 2645 0098 419C0028 		blt- 7,.L146
 2646              		.loc 3 176 0 is_stmt 0 discriminator 1
 2647 009c 2F830000 		cmpwi 7,3,0
 2648 00a0 419E0020 		beq- 7,.L146
 2649              		.loc 3 178 0 is_stmt 1 discriminator 4
 2650 00a4 813F0000 		lwz 9,0(31)
 2651 00a8 7C641B78 		mr 4,3
 2652 00ac 7FE3FB78 		mr 3,31
 2653 00b0 800900C8 		lwz 0,200(9)
 2654 00b4 7C0903A6 		mtctr 0
 2655 00b8 4E800421 		bctrl
 2656 00bc 80610008 		lwz 3,8(1)
 2657              	.L146:
 2658              		.loc 3 182 0
 2659 00c0 2F830000 		cmpwi 7,3,0
 2660 00c4 419E0008 		beq- 7,.L143
 2661              		.loc 3 183 0
 2662 00c8 48000001 		bl free
 2663              	.L143:
 2664              	.LBE2149:
 2665              		.loc 3 184 0
 2666 00cc 8001007C 		lwz 0,124(1)
 2667 00d0 83C10070 		lwz 30,112(1)
 2668              	.LVL206:
 2669 00d4 7C0803A6 		mtlr 0
 2670 00d8 83E10074 		lwz 31,116(1)
 2671              	.LVL207:
 2672 00dc 38210078 		addi 1,1,120
 2673              		.cfi_remember_state
 2674              	.LCFI42:
 2675              		.cfi_def_cfa_offset 0
 2676              		.cfi_restore 31
 2677              		.cfi_restore 30
 2678 00e0 4E800020 		blr
 2679              	.LVL208:
 2680              	.L149:
 2681              	.LCFI43:
 2682              		.cfi_restore_state
 2683              	.LBB2150:
 2684              		.loc 3 171 0
 2685 00e4 813F0000 		lwz 9,0(31)
 2686 00e8 7FE3FB78 		mr 3,31
 2687              	.LVL209:
 2688 00ec 800900C8 		lwz 0,200(9)
 2689 00f0 7C0903A6 		mtctr 0
 2690 00f4 4E800421 		bctrl
 2691              	.LVL210:
 2692 00f8 4BFFFF64 		b .L145
 2693              	.LBE2150:
 2694              		.cfi_endproc
 2695              	.LFE1548:
 2696              		.size	_ZN7GuiText8SetTextfEPKcz, .-_ZN7GuiText8SetTextfEPKcz
 2697              		.section	.text._ZN10GuiElement10ResetStateEv,"axG",@progbits,_ZN10GuiElement10ResetStateEv,comdat
 2698              		.align 2
 2699              		.weak	_ZN10GuiElement10ResetStateEv
 2700              		.type	_ZN10GuiElement10ResetStateEv, @function
 2701              	_ZN10GuiElement10ResetStateEv:
 2702              	.LFB1402:
 2703              		.loc 2 183 0
 2704              		.cfi_startproc
 2705              	.LVL211:
 2706 0000 7C0802A6 		mflr 0
 2707 0004 9421FFF8 		stwu 1,-8(1)
 2708              	.LCFI44:
 2709              		.cfi_def_cfa_offset 8
 2710              		.cfi_register 65, 0
 2711 0008 9001000C 		stw 0,12(1)
 2712              		.loc 2 185 0
 2713 000c 80030048 		lwz 0,72(3)
 2714              		.cfi_offset 65, 4
 2715 0010 2F800004 		cmpwi 7,0,4
 2716 0014 419E001C 		beq- 7,.L150
 2717              	.LVL212:
 2718              	.LBB2153:
 2719              	.LBB2154:
 2720              		.loc 2 186 0
 2721 0018 81230000 		lwz 9,0(3)
 2722 001c 38800000 		li 4,0
 2723 0020 38A0FFFF 		li 5,-1
 2724 0024 80090050 		lwz 0,80(9)
 2725 0028 7C0903A6 		mtctr 0
 2726 002c 4E800421 		bctrl
 2727              	.LVL213:
 2728              	.L150:
 2729              	.LBE2154:
 2730              	.LBE2153:
 2731              		.loc 2 187 0
 2732 0030 8001000C 		lwz 0,12(1)
 2733 0034 38210008 		addi 1,1,8
 2734              	.LCFI45:
 2735              		.cfi_def_cfa_offset 0
 2736 0038 7C0803A6 		mtlr 0
 2737 003c 4E800020 		blr
 2738              		.cfi_endproc
 2739              	.LFE1402:
 2740              		.size	_ZN10GuiElement10ResetStateEv, .-_ZN10GuiElement10ResetStateEv
 2741              		.section	".text"
 2742              		.align 2
 2743              		.globl _ZNK7GuiText6toUTF8Ev
 2744              		.type	_ZNK7GuiText6toUTF8Ev, @function
 2745              	_ZNK7GuiText6toUTF8Ev:
 2746              	.LFB1559:
 2747              		.loc 3 304 0
 2748              		.cfi_startproc
 2749              		.cfi_personality 0,__gxx_personality_v0
 2750              		.cfi_lsda 0,.LLSDA1559
 2751              	.LVL214:
 2752 00fc 7C0802A6 		mflr 0
 2753 0100 9421FFE0 		stwu 1,-32(1)
 2754              	.LCFI46:
 2755              		.cfi_def_cfa_offset 32
 2756              		.cfi_register 65, 0
 2757 0104 93E1001C 		stw 31,28(1)
 2758 0108 7C7F1B78 		mr 31,3
 2759              		.cfi_offset 31, -4
 2760 010c 90010024 		stw 0,36(1)
 2761              		.loc 3 305 0
 2762 0110 80840090 		lwz 4,144(4)
 2763              	.LVL215:
 2764 0114 2F840000 		cmpwi 7,4,0
 2765 0118 419E0048 		beq- 7,.L166
 2766              		.cfi_offset 65, 4
 2767              		.loc 3 308 0
 2768 011c 3861000C 		addi 3,1,12
 2769              	.LVL216:
 2770              	.LEHB20:
 2771 0120 48000001 		bl _ZN7wStringC1EPKw
 2772              	.LEHE20:
 2773 0124 7FE3FB78 		mr 3,31
 2774 0128 3881000C 		addi 4,1,12
 2775              	.LEHB21:
 2776 012c 48000001 		bl _ZNK7wString6toUTF8Ev
 2777              	.LEHE21:
 2778              	.LVL217:
 2779              	.LBB2189:
 2780              	.LBB2190:
 2781              	.LBB2191:
 2782              	.LBB2192:
 2783              	.LBB2193:
 2784              	.LBB2194:
 2785              	.LBB2195:
 2786              	.LBB2196:
 2787              		.file 9 "d:\\devkitpro\\devkitppc\\bin\\../lib/gcc/powerpc-eabi/4.6.3/../../../../powerpc-eabi/inc
 2788              		.loc 9 288 0
 2789 0130 8121000C 		lwz 9,12(1)
 2790              	.LBE2196:
 2791              	.LBE2195:
 2792              	.LBE2194:
 2793              	.LBB2197:
 2794              	.LBB2198:
 2795              		.loc 9 235 0
 2796 0134 3D600000 		lis 11,_ZNSbIwSt11char_traitsIwESaIwEE4_Rep20_S_empty_rep_storageE@ha
 2797 0138 380B0000 		la 0,_ZNSbIwSt11char_traitsIwESaIwEE4_Rep20_S_empty_rep_storageE@l(11)
 2798              	.LBE2198:
 2799              	.LBE2197:
 2800              		.loc 9 534 0
 2801 013c 3869FFF4 		addi 3,9,-12
 2802              	.LVL218:
 2803              	.LBB2207:
 2804              	.LBB2205:
 2805              		.loc 9 235 0
 2806 0140 7F830000 		cmpw 7,3,0
 2807 0144 409E0040 		bne- 7,.L167
 2808              	.LVL219:
 2809              	.L152:
 2810              	.LBE2205:
 2811              	.LBE2207:
 2812              	.LBE2193:
 2813              	.LBE2192:
 2814              	.LBE2191:
 2815              	.LBE2190:
 2816              	.LBE2189:
 2817              		.loc 3 309 0
 2818 0148 80010024 		lwz 0,36(1)
 2819 014c 7FE3FB78 		mr 3,31
 2820 0150 83E1001C 		lwz 31,28(1)
 2821              	.LVL220:
 2822 0154 7C0803A6 		mtlr 0
 2823 0158 38210020 		addi 1,1,32
 2824              		.cfi_remember_state
 2825              	.LCFI47:
 2826              		.cfi_def_cfa_offset 0
 2827              		.cfi_restore 31
 2828 015c 4E800020 		blr
 2829              	.LVL221:
 2830              	.L166:
 2831              	.LCFI48:
 2832              		.cfi_restore_state
 2833              	.LBB2213:
 2834              	.LBB2214:
 2835              	.LBB2215:
 2836              		.loc 9 270 0
 2837 0160 3D200000 		lis 9,_ZNSs4_Rep20_S_empty_rep_storageE+12@ha
 2838 0164 3809000C 		la 0,_ZNSs4_Rep20_S_empty_rep_storageE+12@l(9)
 2839 0168 90030000 		stw 0,0(3)
 2840              	.LBE2215:
 2841              	.LBE2214:
 2842              	.LBE2213:
 2843              		.loc 3 309 0
 2844 016c 7FE3FB78 		mr 3,31
 2845              	.LVL222:
 2846 0170 80010024 		lwz 0,36(1)
 2847 0174 83E1001C 		lwz 31,28(1)
 2848              	.LVL223:
 2849 0178 7C0803A6 		mtlr 0
 2850 017c 38210020 		addi 1,1,32
 2851              		.cfi_remember_state
 2852              		.cfi_restore 31
 2853              	.LCFI49:
 2854              		.cfi_def_cfa_offset 0
 2855 0180 4E800020 		blr
 2856              	.LVL224:
 2857              	.L167:
 2858              	.LCFI50:
 2859              		.cfi_restore_state
 2860              	.LBB2216:
 2861              	.LBB2212:
 2862              	.LBB2211:
 2863              	.LBB2210:
 2864              	.LBB2209:
 2865              	.LBB2208:
 2866              	.LBB2206:
 2867              	.LBB2199:
 2868              	.LBB2200:
 2869              	.LBB2201:
 2870              		.file 10 "d:\\devkitpro\\devkitppc\\bin\\../lib/gcc/powerpc-eabi/4.6.3/../../../../powerpc-eabi/in
 2871              		.loc 10 66 0
 2872 0184 8169FFFC 		lwz 11,-4(9)
 2873              	.LVL225:
 2874              	.LBE2201:
 2875              	.LBE2200:
 2876              	.LBE2199:
 2877              		.loc 9 240 0
 2878 0188 2F8B0000 		cmpwi 7,11,0
 2879              	.LBB2204:
 2880              	.LBB2203:
 2881              	.LBB2202:
 2882              		.loc 10 67 0
 2883 018c 396BFFFF 		addi 11,11,-1
 2884 0190 9169FFFC 		stw 11,-4(9)
 2885              	.LBE2202:
 2886              	.LBE2203:
 2887              	.LBE2204:
 2888              		.loc 9 240 0
 2889 0194 419DFFB4 		bgt+ 7,.L152
 2890              		.loc 9 244 0
 2891 0198 38810008 		addi 4,1,8
 2892 019c 48000001 		bl _ZNSbIwSt11char_traitsIwESaIwEE4_Rep10_M_destroyERKS1_
 2893              	.LVL226:
 2894 01a0 4BFFFFA8 		b .L152
 2895              	.LVL227:
 2896              	.L165:
 2897 01a4 7C7F1B78 		mr 31,3
 2898              	.LVL228:
 2899              	.LBE2206:
 2900              	.LBE2208:
 2901              	.LBE2209:
 2902              	.LBE2210:
 2903              	.LBE2211:
 2904              	.LBE2212:
 2905              	.LBE2216:
 2906              	.LBB2217:
 2907              	.LBB2218:
 2908              	.LBB2219:
 2909              		.file 11 "d:/Projects/SaveGameManager/savegame-manager-gx/trunk/source/GUI/../TextOperations/wstri
 2910              		.loc 11 10 0
 2911 01a8 3861000C 		addi 3,1,12
 2912              	.LVL229:
 2913 01ac 48000001 		bl _ZNSbIwSt11char_traitsIwESaIwEED2Ev
 2914              	.LVL230:
 2915 01b0 7FE3FB78 		mr 3,31
 2916              	.LEHB22:
 2917 01b4 48000001 		bl _Unwind_Resume
 2918              	.LEHE22:
 2919              	.LBE2219:
 2920              	.LBE2218:
 2921              	.LBE2217:
 2922              		.cfi_endproc
 2923              	.LFE1559:
 2924              		.section	.gcc_except_table
 2925              	.LLSDA1559:
 2926 0073 FF       		.byte	0xff
 2927 0074 FF       		.byte	0xff
 2928 0075 01       		.byte	0x1
 2929 0076 0E       		.uleb128 .LLSDACSE1559-.LLSDACSB1559
 2930              	.LLSDACSB1559:
 2931 0077 24       		.uleb128 .LEHB20-.LFB1559
 2932 0078 04       		.uleb128 .LEHE20-.LEHB20
 2933 0079 00       		.uleb128 0
 2934 007a 00       		.uleb128 0
 2935 007b 30       		.uleb128 .LEHB21-.LFB1559
 2936 007c 04       		.uleb128 .LEHE21-.LEHB21
 2937 007d A801     		.uleb128 .L165-.LFB1559
 2938 007f 00       		.uleb128 0
 2939 0080 B801     		.uleb128 .LEHB22-.LFB1559
 2940 0082 04       		.uleb128 .LEHE22-.LEHB22
 2941 0083 00       		.uleb128 0
 2942 0084 00       		.uleb128 0
 2943              	.LLSDACSE1559:
 2944              		.section	".text"
 2945              		.size	_ZNK7GuiText6toUTF8Ev, .-_ZNK7GuiText6toUTF8Ev
 2946              		.align 2
 2947              		.globl _ZN7GuiText7SetTextEPKw
 2948              		.type	_ZN7GuiText7SetTextEPKw, @function
 2949              	_ZN7GuiText7SetTextEPKw:
 2950              	.LFB1549:
 2951              		.loc 3 188 0
 2952              		.cfi_startproc
 2953              	.LVL231:
 2954 01b8 7C0802A6 		mflr 0
 2955 01bc 9421FFE8 		stwu 1,-24(1)
 2956              	.LCFI51:
 2957              		.cfi_def_cfa_offset 24
 2958              		.cfi_register 65, 0
 2959 01c0 93E10014 		stw 31,20(1)
 2960 01c4 7C7F1B78 		mr 31,3
 2961              		.cfi_offset 31, -4
 2962 01c8 9001001C 		stw 0,28(1)
 2963 01cc 93C10010 		stw 30,16(1)
 2964 01d0 7C9E2378 		mr 30,4
 2965              		.cfi_offset 30, -8
 2966              		.cfi_offset 65, 4
 2967              	.LBB2244:
 2968              		.loc 3 189 0
 2969 01d4 80630090 		lwz 3,144(3)
 2970              	.LVL232:
 2971              	.LBE2244:
 2972              		.loc 3 188 0
 2973 01d8 93A1000C 		stw 29,12(1)
 2974              	.LBB2262:
 2975              		.loc 3 189 0
 2976 01dc 2F830000 		cmpwi 7,3,0
 2977 01e0 419E0008 		beq- 7,.L169
 2978              		.cfi_offset 29, -12
 2979              		.loc 3 190 0 discriminator 1
 2980 01e4 48000001 		bl _ZdaPv
 2981              	.LVL233:
 2982              	.L169:
 2983              	.LBB2245:
 2984              		.loc 3 531 0
 2985 01e8 817F0094 		lwz 11,148(31)
 2986 01ec 813F0098 		lwz 9,152(31)
 2987              	.LBB2246:
 2988              	.LBB2247:
 2989              	.LBB2248:
 2990              		.loc 7 571 0
 2991 01f0 7C0B4850 		subf 0,11,9
 2992              	.LBE2248:
 2993              	.LBE2247:
 2994              		.loc 3 218 0
 2995 01f4 540AF0BF 		srwi. 10,0,2
 2996              	.LBE2246:
 2997              	.LBE2245:
 2998              		.loc 3 191 0
 2999 01f8 38000000 		li 0,0
 3000 01fc 901F0090 		stw 0,144(31)
 3001              	.LVL234:
 3002              	.LBB2257:
 3003              	.LBB2253:
 3004              		.loc 3 531 0
 3005 0200 7D605B78 		mr 0,11
 3006              		.loc 3 218 0
 3007 0204 4182003C 		beq- 0,.L170
 3008 0208 3BA00000 		li 29,0
 3009              	.LVL235:
 3010              	.L172:
 3011              		.loc 3 220 0
 3012 020c 57AA103A 		slwi 10,29,2
 3013              		.loc 3 218 0
 3014 0210 3BBD0001 		addi 29,29,1
 3015              	.LVL236:
 3016              		.loc 3 220 0
 3017 0214 7C6B502E 		lwzx 3,11,10
 3018 0218 2F830000 		cmpwi 7,3,0
 3019 021c 419E0010 		beq- 7,.L171
 3020              		.loc 3 221 0
 3021 0220 48000001 		bl _ZdaPv
 3022 0224 801F0094 		lwz 0,148(31)
 3023 0228 813F0098 		lwz 9,152(31)
 3024              	.L171:
 3025              	.LVL237:
 3026              	.LBB2251:
 3027              	.LBB2249:
 3028              		.loc 7 571 0
 3029 022c 7D404850 		subf 10,0,9
 3030              	.LBE2249:
 3031              	.LBE2251:
 3032              		.loc 3 531 0
 3033 0230 7C0B0378 		mr 11,0
 3034              	.LBB2252:
 3035              	.LBB2250:
 3036              		.loc 7 571 0
 3037 0234 7D4A1670 		srawi 10,10,2
 3038              	.LBE2250:
 3039              	.LBE2252:
 3040              		.loc 3 218 0
 3041 0238 7F9D5040 		cmplw 7,29,10
 3042 023c 419CFFD0 		blt+ 7,.L172
 3043              	.LVL238:
 3044              	.L170:
 3045              	.LBE2253:
 3046              	.LBE2257:
 3047              	.LBB2258:
 3048              		.loc 3 198 0
 3049 0240 2F9E0000 		cmpwi 7,30,0
 3050              	.LBE2258:
 3051              	.LBB2260:
 3052              	.LBB2254:
 3053              	.LBB2255:
 3054              	.LBB2256:
 3055              		.loc 7 1256 0
 3056 0244 901F0098 		stw 0,152(31)
 3057              	.LBE2256:
 3058              	.LBE2255:
 3059              	.LBE2254:
 3060              	.LBE2260:
 3061              		.loc 3 195 0
 3062 0248 38000000 		li 0,0
 3063              	.LVL239:
 3064 024c 901F00A4 		stw 0,164(31)
 3065              		.loc 3 196 0
 3066 0250 38000008 		li 0,8
 3067 0254 901F00A8 		stw 0,168(31)
 3068              	.LBB2261:
 3069              		.loc 3 198 0
 3070 0258 419E0088 		beq- 7,.L168
 3071              	.LBB2259:
 3072              		.loc 3 200 0
 3073 025c 7FC3F378 		mr 3,30
 3074 0260 48000001 		bl wcslen
 3075              	.LVL240:
 3076 0264 3C800000 		lis 4,_ZSt7nothrow@ha
 3077 0268 38630001 		addi 3,3,1
 3078 026c 38840000 		la 4,_ZSt7nothrow@l(4)
 3079 0270 5463103A 		slwi 3,3,2
 3080 0274 48000001 		bl _ZnajRKSt9nothrow_t
 3081              		.loc 3 201 0
 3082 0278 2F830000 		cmpwi 7,3,0
 3083              		.loc 3 200 0
 3084 027c 907F0090 		stw 3,144(31)
 3085              		.loc 3 201 0
 3086 0280 419E0060 		beq- 7,.L168
 3087              	.LVL241:
 3088              	.LBE2259:
 3089              	.LBE2261:
 3090              	.LBE2262:
 3091              	.LBB2263:
 3092              	.LBB2264:
 3093              		.loc 3 204 0
 3094 0284 7FC4F378 		mr 4,30
 3095 0288 48000001 		bl wcscpy
 3096              	.LBB2265:
 3097              		.loc 3 206 0
 3098 028c 801F00CC 		lwz 0,204(31)
 3099 0290 2F800000 		cmpwi 7,0,0
 3100 0294 419E0034 		beq- 7,.L174
 3101 0298 807F0090 		lwz 3,144(31)
 3102 029c 3BC00000 		li 30,0
 3103              	.LVL242:
 3104 02a0 48000010 		b .L175
 3105              	.L176:
 3106              	.LVL243:
 3107              	.LBB2266:
 3108              		.loc 3 209 0
 3109 02a4 807F0090 		lwz 3,144(31)
 3110 02a8 813F00CC 		lwz 9,204(31)
 3111 02ac 7D23012E 		stwx 9,3,0
 3112              	.LVL244:
 3113              	.L175:
 3114              		.loc 3 208 0
 3115 02b0 48000001 		bl wcslen
 3116              		.loc 3 209 0
 3117 02b4 57C0103A 		slwi 0,30,2
 3118              		.loc 3 208 0
 3119 02b8 7F9E1840 		cmplw 7,30,3
 3120 02bc 3BDE0001 		addi 30,30,1
 3121              	.LVL245:
 3122 02c0 57DE063E 		rlwinm 30,30,0,0xff
 3123              	.LVL246:
 3124 02c4 419CFFE0 		blt+ 7,.L176
 3125              	.L174:
 3126              	.LBE2266:
 3127              	.LBE2265:
 3128              		.loc 3 212 0
 3129 02c8 3D200000 		lis 9,fontSystem@ha
 3130 02cc 809F0090 		lwz 4,144(31)
 3131 02d0 80690000 		lwz 3,fontSystem@l(9)
 3132 02d4 A8BF00C6 		lha 5,198(31)
 3133 02d8 48000001 		bl _ZN10FreeTypeGX8getWidthEPKws
 3134 02dc 907F00C0 		stw 3,192(31)
 3135              	.LVL247:
 3136              	.L168:
 3137              	.LBE2264:
 3138              	.LBE2263:
 3139              		.loc 3 214 0
 3140 02e0 8001001C 		lwz 0,28(1)
 3141 02e4 83A1000C 		lwz 29,12(1)
 3142 02e8 7C0803A6 		mtlr 0
 3143 02ec 83C10010 		lwz 30,16(1)
 3144 02f0 83E10014 		lwz 31,20(1)
 3145              	.LVL248:
 3146 02f4 38210018 		addi 1,1,24
 3147              	.LCFI52:
 3148              		.cfi_def_cfa_offset 0
 3149              		.cfi_restore 31
 3150              		.cfi_restore 30
 3151              		.cfi_restore 29
 3152 02f8 4E800020 		blr
 3153              		.cfi_endproc
 3154              	.LFE1549:
 3155              		.size	_ZN7GuiText7SetTextEPKw, .-_ZN7GuiText7SetTextEPKw
 3156              		.align 2
 3157              		.globl _ZN7GuiText7SetTextEPKc
 3158              		.type	_ZN7GuiText7SetTextEPKc, @function
 3159              	_ZN7GuiText7SetTextEPKc:
 3160              	.LFB1547:
 3161              		.loc 3 142 0
 3162              		.cfi_startproc
 3163              	.LVL249:
 3164 02fc 7C0802A6 		mflr 0
 3165 0300 9421FFE8 		stwu 1,-24(1)
 3166              	.LCFI53:
 3167              		.cfi_def_cfa_offset 24
 3168              		.cfi_register 65, 0
 3169 0304 93E10014 		stw 31,20(1)
 3170 0308 7C7F1B78 		mr 31,3
 3171              		.cfi_offset 31, -4
 3172 030c 9001001C 		stw 0,28(1)
 3173 0310 93A1000C 		stw 29,12(1)
 3174 0314 7C9D2378 		mr 29,4
 3175              		.cfi_offset 29, -12
 3176              		.cfi_offset 65, 4
 3177              	.LBB2286:
 3178              		.loc 3 143 0
 3179 0318 80630090 		lwz 3,144(3)
 3180              	.LVL250:
 3181              	.LBE2286:
 3182              		.loc 3 142 0
 3183 031c 93C10010 		stw 30,16(1)
 3184              	.LBB2309:
 3185              		.loc 3 143 0
 3186 0320 2F830000 		cmpwi 7,3,0
 3187 0324 419E0008 		beq- 7,.L180
 3188              		.cfi_offset 30, -8
 3189              		.loc 3 144 0 discriminator 1
 3190 0328 48000001 		bl _ZdaPv
 3191              	.LVL251:
 3192              	.L180:
 3193              	.LBB2287:
 3194              		.loc 3 531 0
 3195 032c 817F0094 		lwz 11,148(31)
 3196 0330 813F0098 		lwz 9,152(31)
 3197              	.LBB2288:
 3198              	.LBB2289:
 3199              	.LBB2290:
 3200              		.loc 7 571 0
 3201 0334 7C0B4850 		subf 0,11,9
 3202              	.LBE2290:
 3203              	.LBE2289:
 3204              		.loc 3 218 0
 3205 0338 540AF0BF 		srwi. 10,0,2
 3206              	.LBE2288:
 3207              	.LBE2287:
 3208              		.loc 3 145 0
 3209 033c 38000000 		li 0,0
 3210 0340 901F0090 		stw 0,144(31)
 3211              	.LVL252:
 3212              	.LBB2299:
 3213              	.LBB2295:
 3214              		.loc 3 531 0
 3215 0344 7D605B78 		mr 0,11
 3216              		.loc 3 218 0
 3217 0348 4182003C 		beq- 0,.L181
 3218 034c 3BC00000 		li 30,0
 3219              	.LVL253:
 3220              	.L183:
 3221              		.loc 3 220 0
 3222 0350 57CA103A 		slwi 10,30,2
 3223              		.loc 3 218 0
 3224 0354 3BDE0001 		addi 30,30,1
 3225              	.LVL254:
 3226              		.loc 3 220 0
 3227 0358 7C6B502E 		lwzx 3,11,10
 3228 035c 2F830000 		cmpwi 7,3,0
 3229 0360 419E0010 		beq- 7,.L182
 3230              		.loc 3 221 0
 3231 0364 48000001 		bl _ZdaPv
 3232 0368 801F0094 		lwz 0,148(31)
 3233 036c 813F0098 		lwz 9,152(31)
 3234              	.L182:
 3235              	.LVL255:
 3236              	.LBB2293:
 3237              	.LBB2291:
 3238              		.loc 7 571 0
 3239 0370 7D404850 		subf 10,0,9
 3240              	.LBE2291:
 3241              	.LBE2293:
 3242              		.loc 3 531 0
 3243 0374 7C0B0378 		mr 11,0
 3244              	.LBB2294:
 3245              	.LBB2292:
 3246              		.loc 7 571 0
 3247 0378 7D4A1670 		srawi 10,10,2
 3248              	.LBE2292:
 3249              	.LBE2294:
 3250              		.loc 3 218 0
 3251 037c 7F9E5040 		cmplw 7,30,10
 3252 0380 419CFFD0 		blt+ 7,.L183
 3253              	.LVL256:
 3254              	.L181:
 3255              	.LBE2295:
 3256              	.LBE2299:
 3257              	.LBB2300:
 3258              		.loc 3 152 0
 3259 0384 2F9D0000 		cmpwi 7,29,0
 3260              	.LBE2300:
 3261              	.LBB2306:
 3262              	.LBB2296:
 3263              	.LBB2297:
 3264              	.LBB2298:
 3265              		.loc 7 1256 0
 3266 0388 901F0098 		stw 0,152(31)
 3267              	.LBE2298:
 3268              	.LBE2297:
 3269              	.LBE2296:
 3270              	.LBE2306:
 3271              		.loc 3 149 0
 3272 038c 38000000 		li 0,0
 3273              	.LVL257:
 3274 0390 901F00A4 		stw 0,164(31)
 3275              		.loc 3 150 0
 3276 0394 38000008 		li 0,8
 3277 0398 901F00A8 		stw 0,168(31)
 3278              	.LBB2307:
 3279              		.loc 3 152 0
 3280 039c 419E0040 		beq- 7,.L179
 3281              	.LBB2301:
 3282              		.loc 3 154 0
 3283 03a0 7FA3EB78 		mr 3,29
 3284 03a4 48000001 		bl _Z14charToWideCharPKc
 3285              	.LVL258:
 3286              		.loc 3 155 0
 3287 03a8 2F830000 		cmpwi 7,3,0
 3288              		.loc 3 154 0
 3289 03ac 7C641B78 		mr 4,3
 3290 03b0 907F0090 		stw 3,144(31)
 3291              		.loc 3 155 0
 3292 03b4 419E0028 		beq- 7,.L179
 3293              	.LBB2302:
 3294              		.loc 3 158 0
 3295 03b8 801F00CC 		lwz 0,204(31)
 3296 03bc 3BC00000 		li 30,0
 3297 03c0 2F800000 		cmpwi 7,0,0
 3298 03c4 409E003C 		bne- 7,.L191
 3299              	.L186:
 3300              	.LBE2302:
 3301              		.loc 3 164 0
 3302 03c8 3D200000 		lis 9,fontSystem@ha
 3303 03cc A8BF00C6 		lha 5,198(31)
 3304 03d0 80690000 		lwz 3,fontSystem@l(9)
 3305 03d4 48000001 		bl _ZN10FreeTypeGX8getWidthEPKws
 3306 03d8 907F00C0 		stw 3,192(31)
 3307              	.L179:
 3308              	.LBE2301:
 3309              	.LBE2307:
 3310              	.LBE2309:
 3311              		.loc 3 166 0
 3312 03dc 8001001C 		lwz 0,28(1)
 3313 03e0 83A1000C 		lwz 29,12(1)
 3314              	.LVL259:
 3315 03e4 7C0803A6 		mtlr 0
 3316 03e8 83C10010 		lwz 30,16(1)
 3317 03ec 83E10014 		lwz 31,20(1)
 3318              	.LVL260:
 3319 03f0 38210018 		addi 1,1,24
 3320              		.cfi_remember_state
 3321              	.LCFI54:
 3322              		.cfi_def_cfa_offset 0
 3323              		.cfi_restore 31
 3324              		.cfi_restore 30
 3325              		.cfi_restore 29
 3326 03f4 4E800020 		blr
 3327              	.LVL261:
 3328              	.L187:
 3329              	.LCFI55:
 3330              		.cfi_restore_state
 3331              	.LBB2310:
 3332              	.LBB2308:
 3333              	.LBB2305:
 3334              	.LBB2304:
 3335              	.LBB2303:
 3336              		.loc 3 161 0 discriminator 2
 3337 03f8 813F00CC 		lwz 9,204(31)
 3338 03fc 7D24012E 		stwx 9,4,0
 3339              	.LVL262:
 3340              	.L191:
 3341              		.loc 3 160 0 discriminator 1
 3342 0400 7C832378 		mr 3,4
 3343 0404 48000001 		bl wcslen
 3344              		.loc 3 161 0 discriminator 1
 3345 0408 57C0103A 		slwi 0,30,2
 3346              		.loc 3 160 0 discriminator 1
 3347 040c 7F9E1840 		cmplw 7,30,3
 3348 0410 3BDE0001 		addi 30,30,1
 3349              	.LVL263:
 3350              		.loc 3 161 0 discriminator 1
 3351 0414 809F0090 		lwz 4,144(31)
 3352              		.loc 3 160 0 discriminator 1
 3353 0418 57DE063E 		rlwinm 30,30,0,0xff
 3354              	.LVL264:
 3355 041c 419CFFDC 		blt+ 7,.L187
 3356 0420 4BFFFFA8 		b .L186
 3357              	.LBE2303:
 3358              	.LBE2304:
 3359              	.LBE2305:
 3360              	.LBE2308:
 3361              	.LBE2310:
 3362              		.cfi_endproc
 3363              	.LFE1547:
 3364              		.size	_ZN7GuiText7SetTextEPKc, .-_ZN7GuiText7SetTextEPKc
 3365              		.align 2
 3366              		.globl _ZN7GuiText16ClearDynamicTextEv
 3367              		.type	_ZN7GuiText16ClearDynamicTextEv, @function
 3368              	_ZN7GuiText16ClearDynamicTextEv:
 3369              	.LFB1550:
 3370              		.loc 3 217 0
 3371              		.cfi_startproc
 3372              	.LVL265:
 3373 0424 7C0802A6 		mflr 0
 3374 0428 9421FFF0 		stwu 1,-16(1)
 3375              	.LCFI56:
 3376              		.cfi_def_cfa_offset 16
 3377              		.cfi_register 65, 0
 3378 042c 93C10008 		stw 30,8(1)
 3379 0430 7C7E1B78 		mr 30,3
 3380              		.cfi_offset 30, -8
 3381 0434 90010014 		stw 0,20(1)
 3382 0438 93E1000C 		stw 31,12(1)
 3383              	.LBB2323:
 3384              		.loc 3 531 0
 3385 043c 81630094 		lwz 11,148(3)
 3386 0440 81230098 		lwz 9,152(3)
 3387 0444 7D605B78 		mr 0,11
 3388              		.cfi_offset 31, -4
 3389              		.cfi_offset 65, 4
 3390              	.LBB2324:
 3391              	.LBB2325:
 3392              		.loc 7 571 0
 3393 0448 7D4B4850 		subf 10,11,9
 3394              	.LBE2325:
 3395              	.LBE2324:
 3396              		.loc 3 218 0
 3397 044c 5548F0BF 		srwi. 8,10,2
 3398 0450 4182003C 		beq- 0,.L193
 3399 0454 3BE00000 		li 31,0
 3400              	.LVL266:
 3401              	.L195:
 3402              		.loc 3 220 0
 3403 0458 57EA103A 		slwi 10,31,2
 3404              		.loc 3 218 0
 3405 045c 3BFF0001 		addi 31,31,1
 3406              	.LVL267:
 3407              		.loc 3 220 0
 3408 0460 7C6B502E 		lwzx 3,11,10
 3409 0464 2F830000 		cmpwi 7,3,0
 3410 0468 419E0010 		beq- 7,.L194
 3411              		.loc 3 221 0
 3412 046c 48000001 		bl _ZdaPv
 3413 0470 801E0094 		lwz 0,148(30)
 3414 0474 813E0098 		lwz 9,152(30)
 3415              	.L194:
 3416              	.LVL268:
 3417              	.LBB2328:
 3418              	.LBB2326:
 3419              		.loc 7 571 0
 3420 0478 7D404850 		subf 10,0,9
 3421              	.LBE2326:
 3422              	.LBE2328:
 3423              		.loc 3 531 0
 3424 047c 7C0B0378 		mr 11,0
 3425              	.LBB2329:
 3426              	.LBB2327:
 3427              		.loc 7 571 0
 3428 0480 7D4A1670 		srawi 10,10,2
 3429              	.LBE2327:
 3430              	.LBE2329:
 3431              		.loc 3 218 0
 3432 0484 7F9F5040 		cmplw 7,31,10
 3433 0488 419CFFD0 		blt+ 7,.L195
 3434              	.LVL269:
 3435              	.L193:
 3436              	.LBE2323:
 3437              	.LBB2330:
 3438              	.LBB2331:
 3439              	.LBB2332:
 3440              		.loc 7 1256 0
 3441 048c 901E0098 		stw 0,152(30)
 3442              	.LBE2332:
 3443              	.LBE2331:
 3444              	.LBE2330:
 3445              		.loc 3 224 0
 3446 0490 80010014 		lwz 0,20(1)
 3447              	.LVL270:
 3448 0494 83C10008 		lwz 30,8(1)
 3449              	.LVL271:
 3450 0498 7C0803A6 		mtlr 0
 3451 049c 83E1000C 		lwz 31,12(1)
 3452 04a0 38210010 		addi 1,1,16
 3453              	.LCFI57:
 3454              		.cfi_def_cfa_offset 0
 3455              		.cfi_restore 31
 3456              		.cfi_restore 30
 3457 04a4 4E800020 		blr
 3458              		.cfi_endproc
 3459              	.LFE1550:
 3460              		.size	_ZN7GuiText16ClearDynamicTextEv, .-_ZN7GuiText16ClearDynamicTextEv
 3461              		.align 2
 3462              		.globl _ZN7GuiText10SetPresetsEi9_gx_colorii
 3463              		.type	_ZN7GuiText10SetPresetsEi9_gx_colorii, @function
 3464              	_ZN7GuiText10SetPresetsEi9_gx_colorii:
 3465              	.LFB1551:
 3466              		.loc 3 227 0
 3467              		.cfi_startproc
 3468              	.LVL272:
 3469              		.loc 3 228 0
 3470 04a8 3D600000 		lis 11,.LANCHOR0@ha
 3471              		.loc 3 229 0
 3472 04ac 3D200000 		lis 9,.LANCHOR1@ha
 3473              		.loc 3 227 0
 3474 04b0 80040000 		lwz 0,0(4)
 3475              		.loc 3 228 0
 3476 04b4 394B0000 		la 10,.LANCHOR0@l(11)
 3477              		.loc 3 229 0
 3478 04b8 39090000 		la 8,.LANCHOR1@l(9)
 3479              		.loc 3 231 0
 3480 04bc 90CA0004 		stw 6,4(10)
 3481              		.loc 3 230 0
 3482 04c0 90A80004 		stw 5,4(8)
 3483              		.loc 3 232 0
 3484              		.loc 3 228 0
 3485 04c4 906B0000 		stw 3,.LANCHOR0@l(11)
 3486              		.loc 3 229 0
 3487 04c8 90090000 		stw 0,.LANCHOR1@l(9)
 3488              		.loc 3 232 0
 3489 04cc 4E800020 		blr
 3490              		.cfi_endproc
 3491              	.LFE1551:
 3492              		.size	_ZN7GuiText10SetPresetsEi9_gx_colorii, .-_ZN7GuiText10SetPresetsEi9_gx_colorii
 3493              		.align 2
 3494              		.globl _ZN7GuiText11SetFontSizeEi
 3495              		.type	_ZN7GuiText11SetFontSizeEi, @function
 3496              	_ZN7GuiText11SetFontSizeEi:
 3497              	.LFB1552:
 3498              		.loc 3 235 0
 3499              		.cfi_startproc
 3500              	.LVL273:
 3501              		.loc 3 236 0
 3502 04d0 908300B0 		stw 4,176(3)
 3503              		.loc 3 237 0
 3504 04d4 4E800020 		blr
 3505              		.cfi_endproc
 3506              	.LFE1552:
 3507              		.size	_ZN7GuiText11SetFontSizeEi, .-_ZN7GuiText11SetFontSizeEi
 3508              		.align 2
 3509              		.globl _ZN7GuiText11SetMaxWidthEii
 3510              		.type	_ZN7GuiText11SetMaxWidthEii, @function
 3511              	_ZN7GuiText11SetMaxWidthEii:
 3512              	.LFB1553:
 3513              		.loc 3 240 0
 3514              		.cfi_startproc
 3515              	.LVL274:
 3516              		.loc 3 244 0
 3517 04d8 2F850002 		cmpwi 7,5,2
 3518              		.loc 3 240 0
 3519 04dc 7C0802A6 		mflr 0
 3520 04e0 9421FFF0 		stwu 1,-16(1)
 3521              	.LCFI58:
 3522              		.cfi_def_cfa_offset 16
 3523              		.cfi_register 65, 0
 3524 04e4 93E1000C 		stw 31,12(1)
 3525 04e8 7C7F1B78 		mr 31,3
 3526              		.cfi_offset 31, -4
 3527 04ec 90010014 		stw 0,20(1)
 3528 04f0 93C10008 		stw 30,8(1)
 3529              		.loc 3 241 0
 3530 04f4 908300B4 		stw 4,180(3)
 3531              		.loc 3 242 0
 3532 04f8 90A300A0 		stw 5,160(3)
 3533              		.loc 3 244 0
 3534 04fc 40BE001C 		bne+ 7,.L201
 3535              		.cfi_offset 30, -8
 3536              		.cfi_offset 65, 4
 3537              		.loc 3 246 0
 3538 0500 38000000 		li 0,0
 3539 0504 900300A4 		stw 0,164(3)
 3540              		.loc 3 247 0
 3541 0508 38000008 		li 0,8
 3542 050c 900300A8 		stw 0,168(3)
 3543              		.loc 3 248 0
 3544 0510 38000005 		li 0,5
 3545 0514 900300AC 		stw 0,172(3)
 3546              	.L201:
 3547              	.LVL275:
 3548              	.LBB2347:
 3549              		.loc 3 531 0
 3550 0518 817F0094 		lwz 11,148(31)
 3551 051c 813F0098 		lwz 9,152(31)
 3552              	.LBB2348:
 3553 0520 7D605B78 		mr 0,11
 3554              	.LBB2349:
 3555              	.LBB2350:
 3556              		.loc 7 571 0
 3557 0524 7D4B4850 		subf 10,11,9
 3558              	.LBE2350:
 3559              	.LBE2349:
 3560              		.loc 3 218 0
 3561 0528 5548F0BF 		srwi. 8,10,2
 3562 052c 4182003C 		beq- 0,.L202
 3563 0530 3BC00000 		li 30,0
 3564              	.LVL276:
 3565              	.L204:
 3566              		.loc 3 220 0
 3567 0534 57CA103A 		slwi 10,30,2
 3568              		.loc 3 218 0
 3569 0538 3BDE0001 		addi 30,30,1
 3570              	.LVL277:
 3571              		.loc 3 220 0
 3572 053c 7C6B502E 		lwzx 3,11,10
 3573 0540 2F830000 		cmpwi 7,3,0
 3574 0544 419E0010 		beq- 7,.L203
 3575              		.loc 3 221 0
 3576 0548 48000001 		bl _ZdaPv
 3577 054c 801F0094 		lwz 0,148(31)
 3578 0550 813F0098 		lwz 9,152(31)
 3579              	.L203:
 3580              	.LVL278:
 3581              	.LBB2353:
 3582              	.LBB2351:
 3583              		.loc 7 571 0
 3584 0554 7D404850 		subf 10,0,9
 3585              	.LBE2351:
 3586              	.LBE2353:
 3587              		.loc 3 531 0
 3588 0558 7C0B0378 		mr 11,0
 3589              	.LBB2354:
 3590              	.LBB2352:
 3591              		.loc 7 571 0
 3592 055c 7D4A1670 		srawi 10,10,2
 3593              	.LBE2352:
 3594              	.LBE2354:
 3595              		.loc 3 218 0
 3596 0560 7F9E5040 		cmplw 7,30,10
 3597 0564 419CFFD0 		blt+ 7,.L204
 3598              	.LVL279:
 3599              	.L202:
 3600              	.LBE2348:
 3601              	.LBB2355:
 3602              	.LBB2356:
 3603              	.LBB2357:
 3604              		.loc 7 1256 0
 3605 0568 901F0098 		stw 0,152(31)
 3606              	.LBE2357:
 3607              	.LBE2356:
 3608              	.LBE2355:
 3609              	.LBE2347:
 3610              		.loc 3 252 0
 3611 056c 80010014 		lwz 0,20(1)
 3612              	.LVL280:
 3613 0570 83C10008 		lwz 30,8(1)
 3614 0574 7C0803A6 		mtlr 0
 3615 0578 83E1000C 		lwz 31,12(1)
 3616              	.LVL281:
 3617 057c 38210010 		addi 1,1,16
 3618              	.LCFI59:
 3619              		.cfi_def_cfa_offset 0
 3620              		.cfi_restore 31
 3621              		.cfi_restore 30
 3622 0580 4E800020 		blr
 3623              		.cfi_endproc
 3624              	.LFE1553:
 3625              		.size	_ZN7GuiText11SetMaxWidthEii, .-_ZN7GuiText11SetMaxWidthEii
 3626              		.align 2
 3627              		.globl _ZN7GuiText8SetColorE9_gx_color
 3628              		.type	_ZN7GuiText8SetColorE9_gx_color, @function
 3629              	_ZN7GuiText8SetColorE9_gx_color:
 3630              	.LFB1554:
 3631              		.loc 3 255 0
 3632              		.cfi_startproc
 3633              	.LVL282:
 3634              		.loc 3 255 0
 3635 0584 80040000 		lwz 0,0(4)
 3636              		.loc 3 258 0
 3637              		.loc 3 257 0
 3638 0588 5409063E 		rlwinm 9,0,0,0xff
 3639              	.LVL283:
 3640              		.loc 3 256 0
 3641 058c 900300B8 		stw 0,184(3)
 3642              	.LVL284:
 3643              		.loc 3 257 0
 3644 0590 91230038 		stw 9,56(3)
 3645              		.loc 3 258 0
 3646 0594 4E800020 		blr
 3647              		.cfi_endproc
 3648              	.LFE1554:
 3649              		.size	_ZN7GuiText8SetColorE9_gx_color, .-_ZN7GuiText8SetColorE9_gx_color
 3650              		.align 2
 3651              		.globl _ZN7GuiText12GetTextWidthEv
 3652              		.type	_ZN7GuiText12GetTextWidthEv, @function
 3653              	_ZN7GuiText12GetTextWidthEv:
 3654              	.LFB1555:
 3655              		.loc 3 261 0
 3656              		.cfi_startproc
 3657              	.LVL285:
 3658 0598 7C0802A6 		mflr 0
 3659 059c 9421FFF8 		stwu 1,-8(1)
 3660              	.LCFI60:
 3661              		.cfi_def_cfa_offset 8
 3662              		.cfi_register 65, 0
 3663 05a0 7C691B78 		mr 9,3
 3664 05a4 9001000C 		stw 0,12(1)
 3665              		.loc 3 262 0
 3666 05a8 80830090 		lwz 4,144(3)
 3667              		.loc 3 263 0
 3668 05ac 38600000 		li 3,0
 3669              	.LVL286:
 3670              		.loc 3 262 0
 3671 05b0 2F840000 		cmpwi 7,4,0
 3672 05b4 419E0014 		beq- 7,.L209
 3673              		.cfi_offset 65, 4
 3674              		.loc 3 265 0
 3675 05b8 3D600000 		lis 11,fontSystem@ha
 3676 05bc A8A900C6 		lha 5,198(9)
 3677 05c0 806B0000 		lwz 3,fontSystem@l(11)
 3678 05c4 48000001 		bl _ZN10FreeTypeGX8getWidthEPKws
 3679              	.LVL287:
 3680              	.L209:
 3681              		.loc 3 266 0
 3682 05c8 8001000C 		lwz 0,12(1)
 3683 05cc 38210008 		addi 1,1,8
 3684              	.LCFI61:
 3685              		.cfi_def_cfa_offset 0
 3686 05d0 7C0803A6 		mtlr 0
 3687 05d4 4E800020 		blr
 3688              		.cfi_endproc
 3689              	.LFE1555:
 3690              		.size	_ZN7GuiText12GetTextWidthEv, .-_ZN7GuiText12GetTextWidthEv
 3691              		.align 2
 3692              		.globl _ZN7GuiText12GetTextWidthEi
 3693              		.type	_ZN7GuiText12GetTextWidthEi, @function
 3694              	_ZN7GuiText12GetTextWidthEi:
 3695              	.LFB1556:
 3696              		.loc 3 269 0
 3697              		.cfi_startproc
 3698              	.LVL288:
 3699              		.loc 3 270 0
 3700 05d8 2C040000 		cmpwi 0,4,0
 3701              		.loc 3 269 0
 3702 05dc 7C0802A6 		mflr 0
 3703 05e0 9421FFF8 		stwu 1,-8(1)
 3704              	.LCFI62:
 3705              		.cfi_def_cfa_offset 8
 3706              		.cfi_register 65, 0
 3707 05e4 7C691B78 		mr 9,3
 3708 05e8 9001000C 		stw 0,12(1)
 3709              		.loc 3 270 0
 3710 05ec 4180001C 		blt- 0,.L212
 3711              		.cfi_offset 65, 4
 3712              		.loc 3 531 0 discriminator 2
 3713 05f0 81630094 		lwz 11,148(3)
 3714              	.LBB2364:
 3715              	.LBB2365:
 3716              		.loc 7 571 0 discriminator 2
 3717 05f4 80030098 		lwz 0,152(3)
 3718 05f8 7C0B0050 		subf 0,11,0
 3719 05fc 7C001670 		srawi 0,0,2
 3720              	.LBE2365:
 3721              	.LBE2364:
 3722              		.loc 3 270 0 discriminator 2
 3723 0600 7F840000 		cmpw 7,4,0
 3724 0604 419C0034 		blt- 7,.L213
 3725              	.L212:
 3726              	.LVL289:
 3727              	.LBB2366:
 3728              	.LBB2367:
 3729              		.loc 3 262 0 discriminator 4
 3730 0608 80890090 		lwz 4,144(9)
 3731              	.LVL290:
 3732              		.loc 3 263 0 discriminator 4
 3733 060c 38600000 		li 3,0
 3734              	.LVL291:
 3735              		.loc 3 262 0 discriminator 4
 3736 0610 2F840000 		cmpwi 7,4,0
 3737 0614 419E003C 		beq- 7,.L215
 3738              		.loc 3 265 0
 3739 0618 3D600000 		lis 11,fontSystem@ha
 3740 061c A8A900C6 		lha 5,198(9)
 3741 0620 806B0000 		lwz 3,fontSystem@l(11)
 3742 0624 48000001 		bl _ZN10FreeTypeGX8getWidthEPKws
 3743              	.LVL292:
 3744              	.LBE2367:
 3745              	.LBE2366:
 3746              		.loc 3 274 0
 3747 0628 8001000C 		lwz 0,12(1)
 3748 062c 38210008 		addi 1,1,8
 3749              		.cfi_remember_state
 3750              	.LCFI63:
 3751              		.cfi_def_cfa_offset 0
 3752 0630 7C0803A6 		mtlr 0
 3753 0634 4E800020 		blr
 3754              	.LVL293:
 3755              	.L213:
 3756              	.LCFI64:
 3757              		.cfi_restore_state
 3758              		.loc 3 273 0
 3759 0638 5484103A 		slwi 4,4,2
 3760              	.LVL294:
 3761 063c 3D400000 		lis 10,fontSystem@ha
 3762 0640 806A0000 		lwz 3,fontSystem@l(10)
 3763              	.LVL295:
 3764 0644 7C8B202E 		lwzx 4,11,4
 3765 0648 A8A900C6 		lha 5,198(9)
 3766 064c 48000001 		bl _ZN10FreeTypeGX8getWidthEPKws
 3767              	.LVL296:
 3768              	.L215:
 3769              		.loc 3 274 0
 3770 0650 8001000C 		lwz 0,12(1)
 3771 0654 38210008 		addi 1,1,8
 3772              	.LCFI65:
 3773              		.cfi_def_cfa_offset 0
 3774 0658 7C0803A6 		mtlr 0
 3775 065c 4E800020 		blr
 3776              		.cfi_endproc
 3777              	.LFE1556:
 3778              		.size	_ZN7GuiText12GetTextWidthEi, .-_ZN7GuiText12GetTextWidthEi
 3779              		.align 2
 3780              		.globl _ZN7GuiText10GetDynTextEi
 3781              		.type	_ZN7GuiText10GetDynTextEi, @function
 3782              	_ZN7GuiText10GetDynTextEi:
 3783              	.LFB1557:
 3784              		.loc 3 277 0
 3785              		.cfi_startproc
 3786              	.LVL297:
 3787              		.loc 3 278 0
 3788 0660 2C040000 		cmpwi 0,4,0
 3789 0664 4180001C 		blt- 0,.L218
 3790              		.loc 3 531 0 discriminator 2
 3791 0668 81230094 		lwz 9,148(3)
 3792              	.LBB2368:
 3793              	.LBB2369:
 3794              		.loc 7 571 0 discriminator 2
 3795 066c 80030098 		lwz 0,152(3)
 3796 0670 7C090050 		subf 0,9,0
 3797 0674 7C001670 		srawi 0,0,2
 3798              	.LBE2369:
 3799              	.LBE2368:
 3800              		.loc 3 278 0 discriminator 2
 3801 0678 7F840000 		cmpw 7,4,0
 3802 067c 419C000C 		blt- 7,.L219
 3803              	.L218:
 3804              		.loc 3 279 0 discriminator 4
 3805 0680 80630090 		lwz 3,144(3)
 3806              	.LVL298:
 3807              		.loc 3 282 0 discriminator 4
 3808 0684 4E800020 		blr
 3809              	.LVL299:
 3810              	.L219:
 3811              		.loc 3 281 0
 3812 0688 5484103A 		slwi 4,4,2
 3813              	.LVL300:
 3814 068c 7C69202E 		lwzx 3,9,4
 3815              	.LVL301:
 3816 0690 4E800020 		blr
 3817              		.cfi_endproc
 3818              	.LFE1557:
 3819              		.size	_ZN7GuiText10GetDynTextEi, .-_ZN7GuiText10GetDynTextEi
 3820              		.align 2
 3821              		.globl _ZN7GuiText7SetFontEPKhj
 3822              		.type	_ZN7GuiText7SetFontEPKhj, @function
 3823              	_ZN7GuiText7SetFontEPKhj:
 3824              	.LFB1558:
 3825              		.loc 3 288 0
 3826              		.cfi_startproc
 3827              		.cfi_personality 0,__gxx_personality_v0
 3828              		.cfi_lsda 0,.LLSDA1558
 3829              	.LVL302:
 3830 0694 9421FFE8 		stwu 1,-24(1)
 3831              	.LCFI66:
 3832              		.cfi_def_cfa_offset 24
 3833 0698 7C0802A6 		mflr 0
 3834 069c 93810008 		stw 28,8(1)
 3835              		.loc 3 289 0
 3836 06a0 7C9C2379 		mr. 28,4
 3837              		.cfi_offset 28, -16
 3838              		.cfi_register 65, 0
 3839              		.loc 3 288 0
 3840 06a4 93A1000C 		stw 29,12(1)
 3841 06a8 7CBD2B78 		mr 29,5
 3842              		.cfi_offset 29, -12
 3843 06ac 93E10014 		stw 31,20(1)
 3844 06b0 7C7F1B78 		mr 31,3
 3845              		.cfi_offset 31, -4
 3846 06b4 9001001C 		stw 0,28(1)
 3847 06b8 93C10010 		stw 30,16(1)
 3848              		.loc 3 289 0
 3849 06bc 41820088 		beq- 0,.L226
 3850              		.cfi_offset 30, -8
 3851              		.cfi_offset 65, 4
 3852              		.loc 3 289 0 is_stmt 0 discriminator 1
 3853 06c0 2F850000 		cmpwi 7,5,0
 3854 06c4 419E0080 		beq- 7,.L226
 3855              		.loc 3 292 0 is_stmt 1
 3856 06c8 83C300BC 		lwz 30,188(3)
 3857 06cc 2F9E0000 		cmpwi 7,30,0
 3858 06d0 419E001C 		beq- 7,.L223
 3859              		.loc 3 294 0
 3860 06d4 7FC3F378 		mr 3,30
 3861              	.LVL303:
 3862              	.LEHB23:
 3863 06d8 48000001 		bl _ZN10FreeTypeGXD1Ev
 3864              	.LVL304:
 3865 06dc 7FC3F378 		mr 3,30
 3866 06e0 48000001 		bl _ZdlPv
 3867              		.loc 3 295 0
 3868 06e4 38000000 		li 0,0
 3869 06e8 901F00BC 		stw 0,188(31)
 3870              	.L223:
 3871              		.loc 3 297 0
 3872 06ec 3860003C 		li 3,60
 3873 06f0 48000001 		bl _Znwj
 3874              	.LEHE23:
 3875 06f4 7F84E378 		mr 4,28
 3876 06f8 7FA5EB78 		mr 5,29
 3877 06fc 38C00000 		li 6,0
 3878 0700 7C7E1B78 		mr 30,3
 3879              	.LEHB24:
 3880 0704 48000001 		bl _ZN10FreeTypeGXC1EPKhlb
 3881              	.LEHE24:
 3882              		.loc 3 297 0 is_stmt 0 discriminator 1
 3883 0708 93DF00BC 		stw 30,188(31)
 3884              		.loc 3 298 0 is_stmt 1 discriminator 1
 3885 070c 7FC3F378 		mr 3,30
 3886 0710 809F0090 		lwz 4,144(31)
 3887 0714 A8BF00C6 		lha 5,198(31)
 3888              	.LEHB25:
 3889 0718 48000001 		bl _ZN10FreeTypeGX8getWidthEPKws
 3890              		.loc 3 301 0 discriminator 1
 3891 071c 8001001C 		lwz 0,28(1)
 3892              		.loc 3 298 0 discriminator 1
 3893 0720 907F00C0 		stw 3,192(31)
 3894              		.loc 3 300 0 discriminator 1
 3895 0724 38600001 		li 3,1
 3896              		.loc 3 301 0 discriminator 1
 3897 0728 7C0803A6 		mtlr 0
 3898 072c 83810008 		lwz 28,8(1)
 3899              	.LVL305:
 3900 0730 83A1000C 		lwz 29,12(1)
 3901              	.LVL306:
 3902 0734 83C10010 		lwz 30,16(1)
 3903 0738 83E10014 		lwz 31,20(1)
 3904              	.LVL307:
 3905 073c 38210018 		addi 1,1,24
 3906              		.cfi_remember_state
 3907              	.LCFI67:
 3908              		.cfi_def_cfa_offset 0
 3909              		.cfi_restore 31
 3910              		.cfi_restore 30
 3911              		.cfi_restore 29
 3912              		.cfi_restore 28
 3913 0740 4E800020 		blr
 3914              	.LVL308:
 3915              	.L226:
 3916              	.LCFI68:
 3917              		.cfi_restore_state
 3918              		.loc 3 301 0 is_stmt 0
 3919 0744 8001001C 		lwz 0,28(1)
 3920              		.loc 3 290 0 is_stmt 1
 3921 0748 38600000 		li 3,0
 3922              	.LVL309:
 3923              		.loc 3 301 0
 3924 074c 83810008 		lwz 28,8(1)
 3925 0750 7C0803A6 		mtlr 0
 3926 0754 83A1000C 		lwz 29,12(1)
 3927 0758 83C10010 		lwz 30,16(1)
 3928 075c 83E10014 		lwz 31,20(1)
 3929              	.LVL310:
 3930 0760 38210018 		addi 1,1,24
 3931              		.cfi_remember_state
 3932              		.cfi_restore 28
 3933              		.cfi_restore 29
 3934              		.cfi_restore 30
 3935              		.cfi_restore 31
 3936              	.LCFI69:
 3937              		.cfi_def_cfa_offset 0
 3938 0764 4E800020 		blr
 3939              	.LVL311:
 3940              	.L227:
 3941              	.LCFI70:
 3942              		.cfi_restore_state
 3943 0768 7C7F1B78 		mr 31,3
 3944              	.LVL312:
 3945              		.loc 3 297 0
 3946 076c 7FC3F378 		mr 3,30
 3947 0770 48000001 		bl _ZdlPv
 3948 0774 7FE3FB78 		mr 3,31
 3949 0778 48000001 		bl _Unwind_Resume
 3950              	.LEHE25:
 3951              		.cfi_endproc
 3952              	.LFE1558:
 3953              		.section	.gcc_except_table
 3954              	.LLSDA1558:
 3955 0085 FF       		.byte	0xff
 3956 0086 FF       		.byte	0xff
 3957 0087 01       		.byte	0x1
 3958 0088 0E       		.uleb128 .LLSDACSE1558-.LLSDACSB1558
 3959              	.LLSDACSB1558:
 3960 0089 44       		.uleb128 .LEHB23-.LFB1558
 3961 008a 1C       		.uleb128 .LEHE23-.LEHB23
 3962 008b 00       		.uleb128 0
 3963 008c 00       		.uleb128 0
 3964 008d 70       		.uleb128 .LEHB24-.LFB1558
 3965 008e 04       		.uleb128 .LEHE24-.LEHB24
 3966 008f D401     		.uleb128 .L227-.LFB1558
 3967 0091 00       		.uleb128 0
 3968 0092 8401     		.uleb128 .LEHB25-.LFB1558
 3969 0094 64       		.uleb128 .LEHE25-.LEHB25
 3970 0095 00       		.uleb128 0
 3971 0096 00       		.uleb128 0
 3972              	.LLSDACSE1558:
 3973              		.section	".text"
 3974              		.size	_ZN7GuiText7SetFontEPKhj, .-_ZN7GuiText7SetFontEPKhj
 3975              		.section	.text._ZNSt6vectorIPwSaIS0_EED2Ev,"axG",@progbits,_ZNSt6vectorIPwSaIS0_EED5Ev,comdat
 3976              		.align 2
 3977              		.weak	_ZNSt6vectorIPwSaIS0_EED2Ev
 3978              		.type	_ZNSt6vectorIPwSaIS0_EED2Ev, @function
 3979              	_ZNSt6vectorIPwSaIS0_EED2Ev:
 3980              	.LFB1599:
 3981              		.loc 7 349 0
 3982              		.cfi_startproc
 3983              	.LVL313:
 3984 0000 7C0802A6 		mflr 0
 3985 0004 9421FFF8 		stwu 1,-8(1)
 3986              	.LCFI71:
 3987              		.cfi_def_cfa_offset 8
 3988              		.cfi_register 65, 0
 3989 0008 9001000C 		stw 0,12(1)
 3990              		.loc 3 531 0
 3991 000c 80630000 		lwz 3,0(3)
 3992              	.LVL314:
 3993              	.LBB2382:
 3994              	.LBB2383:
 3995              	.LBB2384:
 3996              	.LBB2385:
 3997              		.loc 7 155 0
 3998 0010 2F830000 		cmpwi 7,3,0
 3999 0014 419E0008 		beq- 7,.L228
 4000              		.cfi_offset 65, 4
 4001              	.LVL315:
 4002              	.LBB2386:
 4003              	.LBB2387:
 4004              		.loc 8 98 0
 4005 0018 48000001 		bl _ZdlPv
 4006              	.LVL316:
 4007              	.L228:
 4008              	.LBE2387:
 4009              	.LBE2386:
 4010              	.LBE2385:
 4011              	.LBE2384:
 4012              	.LBE2383:
 4013              	.LBE2382:
 4014              		.loc 7 351 0
 4015 001c 8001000C 		lwz 0,12(1)
 4016 0020 38210008 		addi 1,1,8
 4017              	.LCFI72:
 4018              		.cfi_def_cfa_offset 0
 4019 0024 7C0803A6 		mtlr 0
 4020 0028 4E800020 		blr
 4021              		.cfi_endproc
 4022              	.LFE1599:
 4023              		.size	_ZNSt6vectorIPwSaIS0_EED2Ev, .-_ZNSt6vectorIPwSaIS0_EED2Ev
 4024              		.section	.text._ZNSt6vectorIPwSaIS0_EE14_M_fill_insertEN9__gnu_cxx17__normal_iteratorIPS0_S2_EEjRK
 4025              		.align 2
 4026              		.weak	_ZNSt6vectorIPwSaIS0_EE14_M_fill_insertEN9__gnu_cxx17__normal_iteratorIPS0_S2_EEjRKS0_
 4027              		.type	_ZNSt6vectorIPwSaIS0_EE14_M_fill_insertEN9__gnu_cxx17__normal_iteratorIPS0_S2_EEjRKS0_, @fun
 4028              	_ZNSt6vectorIPwSaIS0_EE14_M_fill_insertEN9__gnu_cxx17__normal_iteratorIPS0_S2_EEjRKS0_:
 4029              	.LFB1748:
 4030              		.file 12 "d:\\devkitpro\\devkitppc\\bin\\../lib/gcc/powerpc-eabi/4.6.3/../../../../powerpc-eabi/in
 4031              		.loc 12 377 0
 4032              		.cfi_startproc
 4033              	.LVL317:
 4034 0000 9421FFD8 		stwu 1,-40(1)
 4035              	.LCFI73:
 4036              		.cfi_def_cfa_offset 40
 4037 0004 7C0802A6 		mflr 0
 4038 0008 93C10020 		stw 30,32(1)
 4039              	.LBB2494:
 4040              		.loc 12 380 0
 4041 000c 7CBE2B79 		mr. 30,5
 4042              		.cfi_offset 30, -8
 4043              		.cfi_register 65, 0
 4044              	.LBE2494:
 4045              		.loc 12 377 0
 4046 0010 9001002C 		stw 0,44(1)
 4047 0014 93A1001C 		stw 29,28(1)
 4048 0018 93E10024 		stw 31,36(1)
 4049 001c 7C7F1B78 		mr 31,3
 4050              		.cfi_offset 31, -4
 4051              		.cfi_offset 29, -12
 4052              		.cfi_offset 65, 4
 4053 0020 93410010 		stw 26,16(1)
 4054 0024 93610014 		stw 27,20(1)
 4055 0028 93810018 		stw 28,24(1)
 4056              		.loc 12 377 0
 4057 002c 83A40000 		lwz 29,0(4)
 4058              	.LBB2791:
 4059              		.loc 12 380 0
 4060 0030 41820088 		beq- 0,.L234
 4061              		.cfi_offset 28, -16
 4062              		.cfi_offset 27, -20
 4063              		.cfi_offset 26, -24
 4064              	.LBB2495:
 4065              		.loc 12 382 0
 4066 0034 83630004 		lwz 27,4(3)
 4067 0038 80030008 		lwz 0,8(3)
 4068 003c 7C1B0050 		subf 0,27,0
 4069 0040 7C001670 		srawi 0,0,2
 4070 0044 7F9E0040 		cmplw 7,30,0
 4071 0048 419D0098 		bgt- 7,.L236
 4072              	.LBB2496:
 4073              	.LBB2497:
 4074              	.LBB2498:
 4075              		.file 13 "d:\\devkitpro\\devkitppc\\bin\\../lib/gcc/powerpc-eabi/4.6.3/../../../../powerpc-eabi/in
 4076              		.loc 13 892 0
 4077 004c 7C1DD850 		subf 0,29,27
 4078              	.LBE2498:
 4079              	.LBE2497:
 4080              		.loc 12 385 0
 4081 0050 83860000 		lwz 28,0(6)
 4082              	.LVL318:
 4083              	.LBB2500:
 4084              	.LBB2499:
 4085              		.loc 13 892 0
 4086 0054 7C001670 		srawi 0,0,2
 4087              	.LVL319:
 4088              	.LBE2499:
 4089              	.LBE2500:
 4090              		.loc 12 388 0
 4091 0058 7F9E0040 		cmplw 7,30,0
 4092 005c 419C0218 		blt- 7,.L264
 4093              	.LVL320:
 4094              	.LBB2501:
 4095              	.LBB2502:
 4096              	.LBB2503:
 4097              	.LBB2504:
 4098              	.LBB2505:
 4099              	.LBB2506:
 4100              	.LBB2507:
 4101              	.LBB2508:
 4102              		.file 14 "d:\\devkitpro\\devkitppc\\bin\\../lib/gcc/powerpc-eabi/4.6.3/../../../../powerpc-eabi/in
 4103              		.loc 14 743 0
 4104 0060 7FC0F051 		subf. 30,0,30
 4105              		.loc 12 382 0
 4106 0064 7F69DB78 		mr 9,27
 4107              		.loc 14 743 0
 4108 0068 41820018 		beq- 0,.L241
 4109              	.LBE2508:
 4110              	.LBE2507:
 4111              	.LBE2506:
 4112              	.LBE2505:
 4113              	.LBE2504:
 4114              	.LBE2503:
 4115              	.LBE2502:
 4116              	.LBE2501:
 4117              	.LBB2516:
 4118              	.LBB2517:
 4119              	.LBB2518:
 4120              	.LBB2519:
 4121              	.LBB2520:
 4122              	.LBB2521:
 4123              	.LBB2522:
 4124              	.LBB2523:
 4125              	.LBB2524:
 4126              	.LBB2525:
 4127              	.LBB2526:
 4128              		.loc 12 377 0
 4129 006c 7FC903A6 		mtctr 30
 4130              	.LBE2526:
 4131              	.LBE2525:
 4132              	.LBE2524:
 4133              	.LBE2523:
 4134              	.LBE2522:
 4135              	.LBE2521:
 4136              	.LBE2520:
 4137              	.LBE2519:
 4138              	.LBE2518:
 4139              	.LBE2517:
 4140              	.LBE2516:
 4141              	.LBB2537:
 4142              	.LBB2515:
 4143              	.LBB2514:
 4144              	.LBB2513:
 4145              	.LBB2512:
 4146              	.LBB2511:
 4147              	.LBB2510:
 4148              	.LBB2509:
 4149 0070 393BFFFC 		addi 9,27,-4
 4150              	.LVL321:
 4151              	.L242:
 4152              		.loc 14 745 0
 4153 0074 97890004 		stwu 28,4(9)
 4154              		.loc 14 743 0
 4155 0078 4200FFFC 		bdnz .L242
 4156 007c 813F0004 		lwz 9,4(31)
 4157              	.L241:
 4158              	.LBE2509:
 4159              	.LBE2510:
 4160              	.LBE2511:
 4161              	.LBE2512:
 4162              	.LBE2513:
 4163              	.LBE2514:
 4164              	.LBE2515:
 4165              	.LBE2537:
 4166              	.LBB2538:
 4167              	.LBB2539:
 4168              	.LBB2540:
 4169              	.LBB2541:
 4170              	.LBB2542:
 4171              	.LBB2543:
 4172              	.LBB2544:
 4173              	.LBB2545:
 4174              	.LBB2546:
 4175              	.LBB2547:
 4176              	.LBB2548:
 4177              		.loc 14 365 0
 4178 0080 2F800000 		cmpwi 7,0,0
 4179              	.LBE2548:
 4180              	.LBE2547:
 4181              	.LBE2546:
 4182              	.LBE2545:
 4183              	.LBE2544:
 4184              	.LBE2543:
 4185              	.LBE2542:
 4186              	.LBE2541:
 4187              	.LBE2540:
 4188              	.LBE2539:
 4189              	.LBE2538:
 4190              		.loc 12 406 0
 4191 0084 57DE103A 		slwi 30,30,2
 4192 0088 7C69F214 		add 3,9,30
 4193              	.LVL322:
 4194 008c 907F0004 		stw 3,4(31)
 4195              	.LVL323:
 4196              	.LBB2569:
 4197              	.LBB2567:
 4198              	.LBB2565:
 4199              	.LBB2563:
 4200              	.LBB2561:
 4201              	.LBB2559:
 4202              	.LBB2557:
 4203              	.LBB2555:
 4204              	.LBB2553:
 4205              	.LBB2551:
 4206              	.LBB2549:
 4207              		.loc 14 365 0
 4208 0090 409E01CC 		bne- 7,.L243
 4209 0094 3BC00000 		li 30,0
 4210              	.LVL324:
 4211              	.L244:
 4212              	.LBE2549:
 4213              	.LBE2551:
 4214              	.LBE2553:
 4215              	.LBE2555:
 4216              	.LBE2557:
 4217              	.LBE2559:
 4218              	.LBE2561:
 4219              	.LBE2563:
 4220              	.LBE2565:
 4221              	.LBE2567:
 4222              	.LBE2569:
 4223              	.LBB2570:
 4224              	.LBB2571:
 4225              	.LBB2572:
 4226              		.loc 14 686 0
 4227 0098 7F9BE800 		cmpw 7,27,29
 4228              	.LBE2572:
 4229              	.LBE2571:
 4230              	.LBE2570:
 4231              		.loc 12 410 0
 4232 009c 7C63F214 		add 3,3,30
 4233 00a0 907F0004 		stw 3,4(31)
 4234              	.LVL325:
 4235              	.LBB2575:
 4236              	.LBB2574:
 4237              	.LBB2573:
 4238              		.loc 14 686 0
 4239 00a4 419E0014 		beq- 7,.L234
 4240              	.LVL326:
 4241              	.L245:
 4242              		.loc 14 687 0
 4243 00a8 939D0000 		stw 28,0(29)
 4244 00ac 3BBD0004 		addi 29,29,4
 4245              		.loc 14 686 0
 4246 00b0 7F9BE800 		cmpw 7,27,29
 4247 00b4 409EFFF4 		bne+ 7,.L245
 4248              	.LVL327:
 4249              	.L234:
 4250              	.LBE2573:
 4251              	.LBE2574:
 4252              	.LBE2575:
 4253              	.LBE2496:
 4254              	.LBE2495:
 4255              	.LBE2791:
 4256              		.loc 12 464 0
 4257 00b8 8001002C 		lwz 0,44(1)
 4258 00bc 83410010 		lwz 26,16(1)
 4259 00c0 7C0803A6 		mtlr 0
 4260 00c4 83610014 		lwz 27,20(1)
 4261 00c8 83810018 		lwz 28,24(1)
 4262 00cc 83A1001C 		lwz 29,28(1)
 4263 00d0 83C10020 		lwz 30,32(1)
 4264 00d4 83E10024 		lwz 31,36(1)
 4265              	.LVL328:
 4266 00d8 38210028 		addi 1,1,40
 4267              		.cfi_remember_state
 4268              	.LCFI74:
 4269              		.cfi_def_cfa_offset 0
 4270              		.cfi_restore 31
 4271              		.cfi_restore 30
 4272              		.cfi_restore 29
 4273              		.cfi_restore 28
 4274              		.cfi_restore 27
 4275              		.cfi_restore 26
 4276 00dc 4E800020 		blr
 4277              	.LVL329:
 4278              	.L236:
 4279              	.LCFI75:
 4280              		.cfi_restore_state
 4281              	.LBB2792:
 4282              	.LBB2787:
 4283              	.LBB2605:
 4284              	.LBB2606:
 4285              	.LBB2607:
 4286              	.LBB2608:
 4287              	.LBB2609:
 4288              		.loc 7 571 0
 4289 00e0 81230000 		lwz 9,0(3)
 4290              	.LBE2609:
 4291              	.LBE2608:
 4292              		.loc 7 1241 0
 4293 00e4 3D603FFF 		lis 11,0x3fff
 4294 00e8 616BFFFF 		ori 11,11,65535
 4295              	.LBB2611:
 4296              	.LBB2610:
 4297              		.loc 7 571 0
 4298 00ec 7F69D850 		subf 27,9,27
 4299 00f0 7F601670 		srawi 0,27,2
 4300              	.LBE2610:
 4301              	.LBE2611:
 4302              		.loc 7 1241 0
 4303 00f4 7D605850 		subf 11,0,11
 4304 00f8 7F9E5840 		cmplw 7,30,11
 4305 00fc 419D01E8 		bgt- 7,.L265
 4306              	.LVL330:
 4307              		.loc 7 1244 0
 4308 0100 7F80F040 		cmplw 7,0,30
 4309 0104 7C0B0378 		mr 11,0
 4310 0108 419C00CC 		blt- 7,.L266
 4311 010c 7D6B0214 		add 11,11,0
 4312              	.LVL331:
 4313              		.loc 7 1245 0
 4314 0110 7F805840 		cmplw 7,0,11
 4315 0114 409D00D0 		ble- 7,.L267
 4316              	.L248:
 4317              	.LVL332:
 4318              	.LBE2607:
 4319              	.LBE2606:
 4320              	.LBB2614:
 4321              	.LBB2615:
 4322              		.loc 13 892 0
 4323 0118 7F69E850 		subf 27,9,29
 4324              	.LBE2615:
 4325              	.LBE2614:
 4326              		.loc 12 418 0
 4327 011c 3B40FFFC 		li 26,-4
 4328              	.LBB2618:
 4329              	.LBB2616:
 4330              		.loc 13 892 0
 4331 0120 7F7B1670 		srawi 27,27,2
 4332              	.LVL333:
 4333              	.L254:
 4334              	.LBE2616:
 4335              	.LBE2618:
 4336              	.LBB2619:
 4337              	.LBB2620:
 4338              	.LBB2621:
 4339              	.LBB2622:
 4340              		.loc 8 92 0
 4341 0124 7F43D378 		mr 3,26
 4342              	.LVL334:
 4343 0128 90C10008 		stw 6,8(1)
 4344 012c 48000001 		bl _Znwj
 4345              	.LVL335:
 4346 0130 80C10008 		lwz 6,8(1)
 4347 0134 7C7C1B78 		mr 28,3
 4348              	.L249:
 4349              	.LVL336:
 4350              	.LBE2622:
 4351              	.LBE2621:
 4352              	.LBE2620:
 4353              	.LBE2619:
 4354              		.loc 12 424 0
 4355 0138 577B103A 		slwi 27,27,2
 4356              	.LVL337:
 4357              	.LBB2631:
 4358              	.LBB2627:
 4359              	.LBB2625:
 4360              	.LBB2623:
 4361              		.loc 3 531 0
 4362 013c 80060000 		lwz 0,0(6)
 4363              	.LVL338:
 4364              	.LBE2623:
 4365              	.LBE2625:
 4366              	.LBE2627:
 4367              	.LBE2631:
 4368              		.loc 12 424 0
 4369 0140 7F7CDA14 		add 27,28,27
 4370              	.LBB2632:
 4371              	.LBB2628:
 4372              		.loc 12 377 0
 4373 0144 7FC903A6 		mtctr 30
 4374              	.LBB2626:
 4375              	.LBB2624:
 4376 0148 3B7BFFFC 		addi 27,27,-4
 4377              	.LVL339:
 4378              	.L250:
 4379              	.LBE2624:
 4380              	.LBE2626:
 4381              	.LBE2628:
 4382              	.LBE2632:
 4383              	.LBB2633:
 4384              	.LBB2634:
 4385              	.LBB2635:
 4386              	.LBB2636:
 4387              	.LBB2637:
 4388              	.LBB2638:
 4389              	.LBB2639:
 4390              	.LBB2640:
 4391              		.loc 14 745 0
 4392 014c 941B0004 		stwu 0,4(27)
 4393              		.loc 14 743 0
 4394 0150 4200FFFC 		bdnz .L250
 4395              	.LVL340:
 4396              	.LBE2640:
 4397              	.LBE2639:
 4398              	.LBE2638:
 4399              	.LBE2637:
 4400              	.LBE2636:
 4401              	.LBE2635:
 4402              	.LBE2634:
 4403              	.LBE2633:
 4404              		.loc 12 429 0
 4405 0154 809F0000 		lwz 4,0(31)
 4406              	.LVL341:
 4407              	.LBB2641:
 4408              	.LBB2642:
 4409              	.LBB2643:
 4410              	.LBB2644:
 4411              	.LBB2645:
 4412              	.LBB2646:
 4413              	.LBB2647:
 4414              	.LBB2648:
 4415              	.LBB2649:
 4416              	.LBB2650:
 4417              	.LBB2651:
 4418              		.loc 14 365 0
 4419 0158 3B600000 		li 27,0
 4420              		.loc 14 364 0
 4421 015c 7C04E850 		subf 0,4,29
 4422              	.LVL342:
 4423              		.loc 14 365 0
 4424 0160 7C001671 		srawi. 0,0,2
 4425              	.LVL343:
 4426 0164 408200B0 		bne- 0,.L268
 4427              	.LBE2651:
 4428              	.LBE2650:
 4429              	.LBE2649:
 4430              	.LBE2648:
 4431              	.LBE2647:
 4432              	.LBE2646:
 4433              	.LBE2645:
 4434              	.LBE2644:
 4435              	.LBE2643:
 4436              	.LBE2642:
 4437              	.LBE2641:
 4438              	.LBB2692:
 4439              	.LBB2693:
 4440              	.LBB2694:
 4441              	.LBB2695:
 4442              	.LBB2696:
 4443              	.LBB2697:
 4444              	.LBB2698:
 4445              	.LBB2699:
 4446              	.LBB2700:
 4447              	.LBB2701:
 4448              	.LBB2702:
 4449              		.loc 14 364 0
 4450 0168 801F0004 		lwz 0,4(31)
 4451              	.LVL344:
 4452              	.LBE2702:
 4453              	.LBE2701:
 4454              	.LBE2700:
 4455              	.LBE2699:
 4456              	.LBE2698:
 4457              	.LBE2697:
 4458              	.LBE2696:
 4459              	.LBE2695:
 4460              	.LBE2694:
 4461              	.LBE2693:
 4462              	.LBE2692:
 4463              	.LBB2763:
 4464              	.LBB2688:
 4465              	.LBB2684:
 4466              	.LBB2680:
 4467              	.LBB2676:
 4468              	.LBB2672:
 4469              	.LBB2668:
 4470              	.LBB2664:
 4471              	.LBB2660:
 4472              	.LBB2656:
 4473              	.LBB2652:
 4474              		.loc 14 367 0
 4475 016c 7F7CDA14 		add 27,28,27
 4476              	.LVL345:
 4477              	.LBE2652:
 4478              	.LBE2656:
 4479              	.LBE2660:
 4480              	.LBE2664:
 4481              	.LBE2668:
 4482              	.LBE2672:
 4483              	.LBE2676:
 4484              	.LBE2680:
 4485              	.LBE2684:
 4486              	.LBE2688:
 4487              	.LBE2763:
 4488              		.loc 12 434 0
 4489 0170 57DE103A 		slwi 30,30,2
 4490              	.LVL346:
 4491              	.LBB2764:
 4492              	.LBB2757:
 4493              	.LBB2751:
 4494              	.LBB2745:
 4495              	.LBB2739:
 4496              	.LBB2733:
 4497              	.LBB2727:
 4498              	.LBB2721:
 4499              	.LBB2715:
 4500              	.LBB2709:
 4501              	.LBB2703:
 4502              		.loc 14 364 0
 4503 0174 7C1D0050 		subf 0,29,0
 4504              	.LBE2703:
 4505              	.LBE2709:
 4506              	.LBE2715:
 4507              	.LBE2721:
 4508              	.LBE2727:
 4509              	.LBE2733:
 4510              	.LBE2739:
 4511              	.LBE2745:
 4512              	.LBE2751:
 4513              	.LBE2757:
 4514              	.LBE2764:
 4515              		.loc 12 434 0
 4516 0178 7FDBF214 		add 30,27,30
 4517              	.LVL347:
 4518              	.LBB2765:
 4519              	.LBB2758:
 4520              	.LBB2752:
 4521              	.LBB2746:
 4522              	.LBB2740:
 4523              	.LBB2734:
 4524              	.LBB2728:
 4525              	.LBB2722:
 4526              	.LBB2716:
 4527              	.LBB2710:
 4528              	.LBB2704:
 4529              		.loc 14 365 0
 4530 017c 7C001671 		srawi. 0,0,2
 4531              	.LVL348:
 4532 0180 3B600000 		li 27,0
 4533 0184 408200C0 		bne- 0,.L269
 4534              	.LVL349:
 4535              	.L252:
 4536              	.LBE2704:
 4537              	.LBE2710:
 4538              	.LBE2716:
 4539              	.LBE2722:
 4540              	.LBE2728:
 4541              	.LBE2734:
 4542              	.LBE2740:
 4543              	.LBE2746:
 4544              	.LBE2752:
 4545              	.LBE2758:
 4546              	.LBE2765:
 4547              		.loc 12 456 0
 4548 0188 807F0000 		lwz 3,0(31)
 4549              	.LBB2766:
 4550              	.LBB2759:
 4551              	.LBB2753:
 4552              	.LBB2747:
 4553              	.LBB2741:
 4554              	.LBB2735:
 4555              	.LBB2729:
 4556              	.LBB2723:
 4557              	.LBB2717:
 4558              	.LBB2711:
 4559              	.LBB2705:
 4560              		.loc 14 367 0
 4561 018c 7F7EDA14 		add 27,30,27
 4562              	.LVL350:
 4563              	.LBE2705:
 4564              	.LBE2711:
 4565              	.LBE2717:
 4566              	.LBE2723:
 4567              	.LBE2729:
 4568              	.LBE2735:
 4569              	.LBE2741:
 4570              	.LBE2747:
 4571              	.LBE2753:
 4572              	.LBE2759:
 4573              	.LBE2766:
 4574              	.LBB2767:
 4575              	.LBB2768:
 4576              		.loc 7 155 0
 4577 0190 2F830000 		cmpwi 7,3,0
 4578 0194 419E0008 		beq- 7,.L253
 4579              	.LVL351:
 4580              	.LBB2769:
 4581              	.LBB2770:
 4582              		.loc 8 98 0
 4583 0198 48000001 		bl _ZdlPv
 4584              	.LVL352:
 4585              	.L253:
 4586              	.LBE2770:
 4587              	.LBE2769:
 4588              	.LBE2768:
 4589              	.LBE2767:
 4590              	.LBE2605:
 4591              	.LBE2787:
 4592              	.LBE2792:
 4593              		.loc 12 464 0
 4594 019c 8001002C 		lwz 0,44(1)
 4595              	.LBB2793:
 4596              	.LBB2788:
 4597              	.LBB2782:
 4598              		.loc 12 461 0
 4599 01a0 7F5CD214 		add 26,28,26
 4600              		.loc 12 459 0
 4601 01a4 939F0000 		stw 28,0(31)
 4602              	.LBE2782:
 4603              	.LBE2788:
 4604              	.LBE2793:
 4605              		.loc 12 464 0
 4606 01a8 7C0803A6 		mtlr 0
 4607              	.LBB2794:
 4608              	.LBB2789:
 4609              	.LBB2783:
 4610              		.loc 12 460 0
 4611 01ac 937F0004 		stw 27,4(31)
 4612              		.loc 12 461 0
 4613 01b0 935F0008 		stw 26,8(31)
 4614              	.LBE2783:
 4615              	.LBE2789:
 4616              	.LBE2794:
 4617              		.loc 12 464 0
 4618 01b4 83610014 		lwz 27,20(1)
 4619 01b8 83410010 		lwz 26,16(1)
 4620 01bc 83810018 		lwz 28,24(1)
 4621              	.LVL353:
 4622 01c0 83A1001C 		lwz 29,28(1)
 4623              	.LVL354:
 4624 01c4 83C10020 		lwz 30,32(1)
 4625              	.LVL355:
 4626 01c8 83E10024 		lwz 31,36(1)
 4627              	.LVL356:
 4628 01cc 38210028 		addi 1,1,40
 4629              		.cfi_remember_state
 4630              		.cfi_restore 26
 4631              		.cfi_restore 27
 4632              		.cfi_restore 28
 4633              		.cfi_restore 29
 4634              		.cfi_restore 30
 4635              		.cfi_restore 31
 4636              	.LCFI76:
 4637              		.cfi_def_cfa_offset 0
 4638 01d0 4E800020 		blr
 4639              	.LVL357:
 4640              	.L266:
 4641              	.LCFI77:
 4642              		.cfi_restore_state
 4643              	.LBB2795:
 4644              	.LBB2790:
 4645              	.LBB2784:
 4646              	.LBB2771:
 4647              	.LBB2612:
 4648              		.loc 7 1244 0
 4649 01d4 7FCBF378 		mr 11,30
 4650 01d8 7D6B0214 		add 11,11,0
 4651              	.LVL358:
 4652              		.loc 7 1245 0
 4653 01dc 7F805840 		cmplw 7,0,11
 4654 01e0 41BDFF38 		bgt- 7,.L248
 4655              	.L267:
 4656              	.LVL359:
 4657 01e4 3C003FFF 		lis 0,0x3fff
 4658 01e8 6000FFFF 		ori 0,0,65535
 4659 01ec 7F8B0040 		cmplw 7,11,0
 4660 01f0 41BDFF28 		bgt- 7,.L248
 4661              	.LVL360:
 4662              	.LBE2612:
 4663              	.LBE2771:
 4664              	.LBB2772:
 4665              	.LBB2629:
 4666              		.loc 7 150 0
 4667 01f4 2F8B0000 		cmpwi 7,11,0
 4668              	.LBE2629:
 4669              	.LBE2772:
 4670              	.LBB2773:
 4671              	.LBB2617:
 4672              		.loc 13 892 0
 4673 01f8 7D29E850 		subf 9,9,29
 4674 01fc 7D3B1670 		srawi 27,9,2
 4675              	.LVL361:
 4676              	.LBE2617:
 4677              	.LBE2773:
 4678              	.LBB2774:
 4679              	.LBB2630:
 4680              		.loc 7 150 0
 4681 0200 3B400000 		li 26,0
 4682 0204 3B800000 		li 28,0
 4683 0208 419EFF30 		beq+ 7,.L249
 4684 020c 557A103A 		slwi 26,11,2
 4685 0210 4BFFFF14 		b .L254
 4686              	.LVL362:
 4687              	.L268:
 4688              	.LBE2630:
 4689              	.LBE2774:
 4690              	.LBB2775:
 4691              	.LBB2689:
 4692              	.LBB2685:
 4693              	.LBB2681:
 4694              	.LBB2677:
 4695              	.LBB2673:
 4696              	.LBB2669:
 4697              	.LBB2665:
 4698              	.LBB2661:
 4699              	.LBB2657:
 4700              	.LBB2653:
 4701              		.loc 14 366 0
 4702 0214 541B103A 		slwi 27,0,2
 4703 0218 7F83E378 		mr 3,28
 4704 021c 7F65DB78 		mr 5,27
 4705              	.LBE2653:
 4706              	.LBE2657:
 4707              	.LBE2661:
 4708              	.LBE2665:
 4709              	.LBE2669:
 4710              	.LBE2673:
 4711              	.LBE2677:
 4712              	.LBE2681:
 4713              	.LBE2685:
 4714              	.LBE2689:
 4715              	.LBE2775:
 4716              		.loc 12 434 0
 4717 0220 57DE103A 		slwi 30,30,2
 4718              	.LVL363:
 4719              	.LBB2776:
 4720              	.LBB2690:
 4721              	.LBB2686:
 4722              	.LBB2682:
 4723              	.LBB2678:
 4724              	.LBB2674:
 4725              	.LBB2670:
 4726              	.LBB2666:
 4727              	.LBB2662:
 4728              	.LBB2658:
 4729              	.LBB2654:
 4730              		.loc 14 366 0
 4731 0224 48000001 		bl memmove
 4732              	.LVL364:
 4733              	.LBE2654:
 4734              	.LBE2658:
 4735              	.LBE2662:
 4736              	.LBE2666:
 4737              	.LBE2670:
 4738              	.LBE2674:
 4739              	.LBE2678:
 4740              	.LBE2682:
 4741              	.LBE2686:
 4742              	.LBE2690:
 4743              	.LBE2776:
 4744              	.LBB2777:
 4745              	.LBB2760:
 4746              	.LBB2754:
 4747              	.LBB2748:
 4748              	.LBB2742:
 4749              	.LBB2736:
 4750              	.LBB2730:
 4751              	.LBB2724:
 4752              	.LBB2718:
 4753              	.LBB2712:
 4754              	.LBB2706:
 4755              		.loc 14 364 0
 4756 0228 801F0004 		lwz 0,4(31)
 4757              	.LBE2706:
 4758              	.LBE2712:
 4759              	.LBE2718:
 4760              	.LBE2724:
 4761              	.LBE2730:
 4762              	.LBE2736:
 4763              	.LBE2742:
 4764              	.LBE2748:
 4765              	.LBE2754:
 4766              	.LBE2760:
 4767              	.LBE2777:
 4768              	.LBB2778:
 4769              	.LBB2691:
 4770              	.LBB2687:
 4771              	.LBB2683:
 4772              	.LBB2679:
 4773              	.LBB2675:
 4774              	.LBB2671:
 4775              	.LBB2667:
 4776              	.LBB2663:
 4777              	.LBB2659:
 4778              	.LBB2655:
 4779              		.loc 14 367 0
 4780 022c 7F7CDA14 		add 27,28,27
 4781              	.LVL365:
 4782              	.LBE2655:
 4783              	.LBE2659:
 4784              	.LBE2663:
 4785              	.LBE2667:
 4786              	.LBE2671:
 4787              	.LBE2675:
 4788              	.LBE2679:
 4789              	.LBE2683:
 4790              	.LBE2687:
 4791              	.LBE2691:
 4792              	.LBE2778:
 4793              	.LBB2779:
 4794              	.LBB2761:
 4795              	.LBB2755:
 4796              	.LBB2749:
 4797              	.LBB2743:
 4798              	.LBB2737:
 4799              	.LBB2731:
 4800              	.LBB2725:
 4801              	.LBB2719:
 4802              	.LBB2713:
 4803              	.LBB2707:
 4804              		.loc 14 364 0
 4805 0230 7C1D0050 		subf 0,29,0
 4806              	.LBE2707:
 4807              	.LBE2713:
 4808              	.LBE2719:
 4809              	.LBE2725:
 4810              	.LBE2731:
 4811              	.LBE2737:
 4812              	.LBE2743:
 4813              	.LBE2749:
 4814              	.LBE2755:
 4815              	.LBE2761:
 4816              	.LBE2779:
 4817              		.loc 12 434 0
 4818 0234 7FDBF214 		add 30,27,30
 4819              	.LVL366:
 4820              	.LBB2780:
 4821              	.LBB2762:
 4822              	.LBB2756:
 4823              	.LBB2750:
 4824              	.LBB2744:
 4825              	.LBB2738:
 4826              	.LBB2732:
 4827              	.LBB2726:
 4828              	.LBB2720:
 4829              	.LBB2714:
 4830              	.LBB2708:
 4831              		.loc 14 365 0
 4832 0238 7C001671 		srawi. 0,0,2
 4833              	.LVL367:
 4834 023c 3B600000 		li 27,0
 4835 0240 4182FF48 		beq+ 0,.L252
 4836              	.LVL368:
 4837              	.L269:
 4838              		.loc 14 366 0
 4839 0244 541B103A 		slwi 27,0,2
 4840 0248 7FC3F378 		mr 3,30
 4841 024c 7FA4EB78 		mr 4,29
 4842 0250 7F65DB78 		mr 5,27
 4843 0254 48000001 		bl memmove
 4844 0258 4BFFFF30 		b .L252
 4845              	.LVL369:
 4846              	.L243:
 4847              	.LBE2708:
 4848              	.LBE2714:
 4849              	.LBE2720:
 4850              	.LBE2726:
 4851              	.LBE2732:
 4852              	.LBE2738:
 4853              	.LBE2744:
 4854              	.LBE2750:
 4855              	.LBE2756:
 4856              	.LBE2762:
 4857              	.LBE2780:
 4858              	.LBE2784:
 4859              	.LBB2785:
 4860              	.LBB2576:
 4861              	.LBB2568:
 4862              	.LBB2566:
 4863              	.LBB2564:
 4864              	.LBB2562:
 4865              	.LBB2560:
 4866              	.LBB2558:
 4867              	.LBB2556:
 4868              	.LBB2554:
 4869              	.LBB2552:
 4870              	.LBB2550:
 4871 025c 541E103A 		slwi 30,0,2
 4872 0260 7FA4EB78 		mr 4,29
 4873 0264 7FC5F378 		mr 5,30
 4874              	.LVL370:
 4875 0268 48000001 		bl memmove
 4876              	.LVL371:
 4877 026c 807F0004 		lwz 3,4(31)
 4878 0270 4BFFFE28 		b .L244
 4879              	.LVL372:
 4880              	.L264:
 4881              	.LBE2550:
 4882              	.LBE2552:
 4883              	.LBE2554:
 4884              	.LBE2556:
 4885              	.LBE2558:
 4886              	.LBE2560:
 4887              	.LBE2562:
 4888              	.LBE2564:
 4889              	.LBE2566:
 4890              	.LBE2568:
 4891              	.LBE2576:
 4892              		.loc 12 390 0
 4893 0274 57DE103A 		slwi 30,30,2
 4894              	.LVL373:
 4895              	.LBB2577:
 4896              	.LBB2536:
 4897              	.LBB2535:
 4898              	.LBB2534:
 4899              	.LBB2533:
 4900              	.LBB2532:
 4901              	.LBB2531:
 4902              	.LBB2530:
 4903              	.LBB2529:
 4904              	.LBB2528:
 4905              	.LBB2527:
 4906              		.loc 12 382 0
 4907 0278 7F60DB78 		mr 0,27
 4908              	.LVL374:
 4909              		.loc 14 365 0
 4910 027c 7FC51671 		srawi. 5,30,2
 4911              	.LVL375:
 4912              		.loc 14 364 0
 4913 0280 7F5ED850 		subf 26,30,27
 4914              		.loc 14 365 0
 4915 0284 41A20018 		beq+ 0,.L238
 4916              		.loc 14 366 0
 4917 0288 7F63DB78 		mr 3,27
 4918 028c 7F44D378 		mr 4,26
 4919 0290 54A5103A 		slwi 5,5,2
 4920 0294 48000001 		bl memmove
 4921              	.LVL376:
 4922 0298 801F0004 		lwz 0,4(31)
 4923              	.L238:
 4924              	.LBE2527:
 4925              	.LBE2528:
 4926              	.LBE2529:
 4927              	.LBE2530:
 4928              	.LBE2531:
 4929              	.LBE2532:
 4930              	.LBE2533:
 4931              	.LBE2534:
 4932              	.LBE2535:
 4933              	.LBE2536:
 4934              	.LBE2577:
 4935              	.LBB2578:
 4936              	.LBB2579:
 4937              	.LBB2580:
 4938              	.LBB2581:
 4939              	.LBB2582:
 4940              	.LBB2583:
 4941              		.loc 14 559 0
 4942 029c 7F5DD050 		subf 26,29,26
 4943              	.LBE2583:
 4944              	.LBE2582:
 4945              	.LBE2581:
 4946              	.LBE2580:
 4947              	.LBE2579:
 4948              	.LBE2578:
 4949              		.loc 12 394 0
 4950 02a0 7C00F214 		add 0,0,30
 4951              	.LBB2599:
 4952              	.LBB2596:
 4953              	.LBB2593:
 4954              	.LBB2590:
 4955              	.LBB2587:
 4956              	.LBB2584:
 4957              		.loc 14 560 0
 4958 02a4 7F5A1671 		srawi. 26,26,2
 4959              	.LBE2584:
 4960              	.LBE2587:
 4961              	.LBE2590:
 4962              	.LBE2593:
 4963              	.LBE2596:
 4964              	.LBE2599:
 4965              		.loc 12 394 0
 4966 02a8 901F0004 		stw 0,4(31)
 4967              	.LVL377:
 4968              	.LBB2600:
 4969              	.LBB2597:
 4970              	.LBB2594:
 4971              	.LBB2591:
 4972              	.LBB2588:
 4973              	.LBB2585:
 4974              		.loc 14 560 0
 4975 02ac 40820024 		bne- 0,.L270
 4976              	.L239:
 4977              	.LVL378:
 4978              	.LBE2585:
 4979              	.LBE2588:
 4980              	.LBE2591:
 4981              	.LBE2594:
 4982              	.LBE2597:
 4983              	.LBE2600:
 4984              		.loc 12 397 0
 4985 02b0 7FDDF214 		add 30,29,30
 4986              	.LVL379:
 4987              	.LBB2601:
 4988              	.LBB2602:
 4989              	.LBB2603:
 4990              		.loc 14 686 0
 4991 02b4 7F9EE800 		cmpw 7,30,29
 4992 02b8 41BEFE00 		beq- 7,.L234
 4993              	.LVL380:
 4994              	.L240:
 4995              		.loc 14 687 0
 4996 02bc 939D0000 		stw 28,0(29)
 4997 02c0 3BBD0004 		addi 29,29,4
 4998              		.loc 14 686 0
 4999 02c4 7F9EE800 		cmpw 7,30,29
 5000 02c8 409EFFF4 		bne+ 7,.L240
 5001 02cc 4BFFFDEC 		b .L234
 5002              	.LVL381:
 5003              	.L270:
 5004              	.LBE2603:
 5005              	.LBE2602:
 5006              	.LBE2601:
 5007              	.LBB2604:
 5008              	.LBB2598:
 5009              	.LBB2595:
 5010              	.LBB2592:
 5011              	.LBB2589:
 5012              	.LBB2586:
 5013              		.loc 14 561 0
 5014 02d0 5745103A 		slwi 5,26,2
 5015 02d4 7FA4EB78 		mr 4,29
 5016 02d8 7C65D850 		subf 3,5,27
 5017 02dc 48000001 		bl memmove
 5018 02e0 4BFFFFD0 		b .L239
 5019              	.LVL382:
 5020              	.L265:
 5021              	.LBE2586:
 5022              	.LBE2589:
 5023              	.LBE2592:
 5024              	.LBE2595:
 5025              	.LBE2598:
 5026              	.LBE2604:
 5027              	.LBE2785:
 5028              	.LBB2786:
 5029              	.LBB2781:
 5030              	.LBB2613:
 5031              		.loc 7 1242 0
 5032 02e4 3C600000 		lis 3,.LC4@ha
 5033 02e8 38630000 		la 3,.LC4@l(3)
 5034 02ec 48000001 		bl _ZSt20__throw_length_errorPKc
 5035              	.LVL383:
 5036              	.LVL384:
 5037              	.LVL385:
 5038              	.LBE2613:
 5039              	.LBE2781:
 5040              	.LBE2786:
 5041              	.LBE2790:
 5042              	.LBE2795:
 5043              		.cfi_endproc
 5044              	.LFE1748:
 5045              		.size	_ZNSt6vectorIPwSaIS0_EE14_M_fill_insertEN9__gnu_cxx17__normal_iteratorIPS0_S2_EEjRKS0_, .-_Z
 5046              		.section	".text"
 5047              		.align 2
 5048              		.globl _ZN7GuiText10ScrollTextEv
 5049              		.type	_ZN7GuiText10ScrollTextEv, @function
 5050              	_ZN7GuiText10ScrollTextEv:
 5051              	.LFB1564:
 5052              		.loc 3 339 0
 5053              		.cfi_startproc
 5054              	.LVL386:
 5055 077c 7C0802A6 		mflr 0
 5056 0780 9421FFC0 		stwu 1,-64(1)
 5057              	.LCFI78:
 5058              		.cfi_def_cfa_offset 64
 5059              		.cfi_register 65, 0
 5060 0784 93E1003C 		stw 31,60(1)
 5061 0788 7C7F1B78 		mr 31,3
 5062              		.cfi_offset 31, -4
 5063 078c 90010044 		stw 0,68(1)
 5064 0790 93210024 		stw 25,36(1)
 5065              	.LBB2837:
 5066              		.loc 3 531 0
 5067 0794 81230098 		lwz 9,152(3)
 5068              	.LBB2838:
 5069              	.LBB2839:
 5070              	.LBB2840:
 5071              		.loc 7 571 0
 5072 0798 80030094 		lwz 0,148(3)
 5073              		.cfi_offset 25, -28
 5074              		.cfi_offset 65, 4
 5075              	.LBE2840:
 5076              	.LBE2839:
 5077              	.LBE2838:
 5078              	.LBE2837:
 5079              		.loc 3 339 0
 5080 079c 93410028 		stw 26,40(1)
 5081              	.LBB2869:
 5082              	.LBB2859:
 5083              	.LBB2842:
 5084              	.LBB2841:
 5085              		.loc 7 571 0
 5086 07a0 7C004850 		subf 0,0,9
 5087              	.LBE2841:
 5088              	.LBE2842:
 5089              	.LBE2859:
 5090              	.LBE2869:
 5091              		.loc 3 339 0
 5092 07a4 9361002C 		stw 27,44(1)
 5093              	.LBB2870:
 5094              	.LBB2860:
 5095              		.loc 3 340 0
 5096 07a8 7C001671 		srawi. 0,0,2
 5097              	.LBE2860:
 5098              	.LBE2870:
 5099              		.loc 3 339 0
 5100 07ac 93810030 		stw 28,48(1)
 5101 07b0 93A10034 		stw 29,52(1)
 5102 07b4 93C10038 		stw 30,56(1)
 5103              	.LBB2871:
 5104              	.LBB2861:
 5105              		.loc 3 340 0
 5106 07b8 41820060 		beq- 0,.L301
 5107              		.cfi_offset 30, -8
 5108              		.cfi_offset 29, -12
 5109              		.cfi_offset 28, -16
 5110              		.cfi_offset 27, -20
 5111              		.cfi_offset 26, -24
 5112              	.LBE2861:
 5113              		.loc 3 361 0
 5114 07bc 3D200000 		lis 9,frameCount@ha
 5115 07c0 80090000 		lwz 0,frameCount@l(9)
 5116 07c4 812300AC 		lwz 9,172(3)
 5117 07c8 7D604B96 		divwu 11,0,9
 5118 07cc 7D2B49D6 		mullw 9,11,9
 5119 07d0 7F804800 		cmpw 7,0,9
 5120 07d4 409E0018 		bne- 7,.L271
 5121              		.loc 3 366 0
 5122 07d8 83C300A8 		lwz 30,168(3)
 5123 07dc 2F9E0000 		cmpwi 7,30,0
 5124 07e0 419E014C 		beq- 7,.L279
 5125              		.loc 3 368 0
 5126 07e4 3BDEFFFF 		addi 30,30,-1
 5127 07e8 93C300A8 		stw 30,168(3)
 5128              	.L271:
 5129              	.LBE2871:
 5130              		.loc 3 410 0
 5131 07ec 80010044 		lwz 0,68(1)
 5132 07f0 83210024 		lwz 25,36(1)
 5133 07f4 7C0803A6 		mtlr 0
 5134 07f8 83410028 		lwz 26,40(1)
 5135 07fc 8361002C 		lwz 27,44(1)
 5136 0800 83810030 		lwz 28,48(1)
 5137 0804 83A10034 		lwz 29,52(1)
 5138 0808 83C10038 		lwz 30,56(1)
 5139 080c 83E1003C 		lwz 31,60(1)
 5140 0810 38210040 		addi 1,1,64
 5141              		.cfi_remember_state
 5142              	.LCFI79:
 5143              		.cfi_def_cfa_offset 0
 5144              		.cfi_restore 31
 5145              		.cfi_restore 30
 5146              		.cfi_restore 29
 5147              		.cfi_restore 28
 5148              		.cfi_restore 27
 5149              		.cfi_restore 26
 5150              		.cfi_restore 25
 5151 0814 4E800020 		blr
 5152              	.L301:
 5153              	.LCFI80:
 5154              		.cfi_restore_state
 5155              	.LVL387:
 5156              	.LBB2872:
 5157              	.LBB2862:
 5158              	.LBB2843:
 5159              	.LBB2844:
 5160              	.LBB2845:
 5161              	.LBB2846:
 5162              	.LBB2847:
 5163              		.loc 7 944 0
 5164 0818 7C240B78 		mr 4,1
 5165              	.LBE2847:
 5166              	.LBE2846:
 5167              	.LBE2845:
 5168              	.LBE2844:
 5169              	.LBE2843:
 5170              		.loc 3 340 0
 5171 081c 90010008 		stw 0,8(1)
 5172              	.LVL388:
 5173              	.LBB2856:
 5174              	.LBB2854:
 5175              	.LBB2852:
 5176              	.LBB2850:
 5177              	.LBB2848:
 5178              		.loc 7 944 0
 5179 0820 95240018 		stwu 9,24(4)
 5180 0824 38630094 		addi 3,3,148
 5181              	.LVL389:
 5182 0828 38A00001 		li 5,1
 5183 082c 38C10008 		addi 6,1,8
 5184 0830 48000001 		bl _ZNSt6vectorIPwSaIS0_EE14_M_fill_insertEN9__gnu_cxx17__normal_iteratorIPS0_S2_EEjRKS0_
 5185              	.LBE2848:
 5186              	.LBE2850:
 5187              	.LBE2852:
 5188              	.LBE2854:
 5189              		.loc 3 346 0
 5190 0834 807F00B4 		lwz 3,180(31)
 5191              	.LBB2855:
 5192              	.LBB2853:
 5193              	.LBB2851:
 5194              	.LBB2849:
 5195              		.loc 3 531 0
 5196 0838 83DF0094 		lwz 30,148(31)
 5197              	.LVL390:
 5198              	.LBE2849:
 5199              	.LBE2851:
 5200              	.LBE2853:
 5201              	.LBE2855:
 5202              		.loc 3 346 0
 5203 083c 5463103A 		slwi 3,3,2
 5204 0840 48000001 		bl _Znaj
 5205              		.loc 3 348 0
 5206 0844 38000000 		li 0,0
 5207              		.loc 3 346 0
 5208 0848 907E0000 		stw 3,0(30)
 5209              		.loc 3 348 0
 5210 084c 817F0090 		lwz 11,144(31)
 5211 0850 810B0000 		lwz 8,0(11)
 5212 0854 2F880000 		cmpwi 7,8,0
 5213 0858 419E0098 		beq- 7,.L273
 5214 085c 813F00B4 		lwz 9,180(31)
 5215 0860 2F890000 		cmpwi 7,9,0
 5216 0864 409D008C 		ble- 7,.L273
 5217 0868 7D695B78 		mr 9,11
 5218 086c 39400000 		li 10,0
 5219 0870 3BA00000 		li 29,0
 5220 0874 3BC00000 		li 30,0
 5221 0878 48000010 		b .L274
 5222              	.LVL391:
 5223              	.L302:
 5224              		.loc 3 348 0 is_stmt 0 discriminator 2
 5225 087c 80FF00B4 		lwz 7,180(31)
 5226 0880 7F87E800 		cmpw 7,7,29
 5227 0884 409D006C 		ble- 7,.L273
 5228              	.LVL392:
 5229              	.L274:
 5230              		.loc 3 352 0 is_stmt 1 discriminator 5
 5231 0888 807F00BC 		lwz 3,188(31)
 5232              		.loc 3 350 0 discriminator 5
 5233 088c 80FF0094 		lwz 7,148(31)
 5234              		.loc 3 352 0 discriminator 5
 5235 0890 2F830000 		cmpwi 7,3,0
 5236              		.loc 3 350 0 discriminator 5
 5237 0894 80E70000 		lwz 7,0(7)
 5238 0898 7D07012E 		stwx 8,7,0
 5239              		.loc 3 352 0 discriminator 5
 5240 089c 40BE000C 		bne+ 7,.L276
 5241              		.loc 3 352 0 is_stmt 0 discriminator 2
 5242 08a0 3D000000 		lis 8,fontSystem@ha
 5243 08a4 80680000 		lwz 3,fontSystem@l(8)
 5244              	.L276:
 5245              		.loc 3 352 0 discriminator 3
 5246 08a8 2F9E0000 		cmpwi 7,30,0
 5247 08ac 380AFFFF 		addi 0,10,-1
 5248              		.loc 3 354 0 is_stmt 1 discriminator 3
 5249 08b0 3BDE0001 		addi 30,30,1
 5250              		.loc 3 352 0 discriminator 3
 5251 08b4 5400103A 		slwi 0,0,2
 5252 08b8 808B0000 		lwz 4,0(11)
 5253 08bc 38C00000 		li 6,0
 5254 08c0 A8BF00C6 		lha 5,198(31)
 5255 08c4 419E0008 		beq- 7,.L275
 5256              		.loc 3 352 0 is_stmt 0 discriminator 4
 5257 08c8 7CC9002E 		lwzx 6,9,0
 5258              	.L275:
 5259              		.loc 3 352 0 discriminator 6
 5260 08cc 48000001 		bl _ZN10FreeTypeGX12getCharWidthEwsw
 5261              	.LVL393:
 5262              		.loc 3 348 0 is_stmt 1 discriminator 6
 5263 08d0 813F0090 		lwz 9,144(31)
 5264              		.loc 3 338 0 discriminator 6
 5265 08d4 57C0103A 		slwi 0,30,2
 5266              		.loc 3 352 0 discriminator 6
 5267 08d8 7FBD1A14 		add 29,29,3
 5268              	.LVL394:
 5269              		.loc 3 348 0 discriminator 6
 5270 08dc 7D09002E 		lwzx 8,9,0
 5271 08e0 7FCAF378 		mr 10,30
 5272 08e4 7D690214 		add 11,9,0
 5273 08e8 2F880000 		cmpwi 7,8,0
 5274 08ec 40BEFF90 		bne- 7,.L302
 5275              	.LVL395:
 5276              	.L273:
 5277              		.loc 3 356 0
 5278 08f0 813F0094 		lwz 9,148(31)
 5279 08f4 39600000 		li 11,0
 5280              	.LBE2856:
 5281              	.LBE2862:
 5282              	.LBE2872:
 5283              		.loc 3 410 0
 5284 08f8 83210024 		lwz 25,36(1)
 5285              	.LBB2873:
 5286              	.LBB2863:
 5287              	.LBB2857:
 5288              		.loc 3 356 0
 5289 08fc 81290000 		lwz 9,0(9)
 5290              	.LBE2857:
 5291              	.LBE2863:
 5292              	.LBE2873:
 5293              		.loc 3 410 0
 5294 0900 83410028 		lwz 26,40(1)
 5295              	.LBB2874:
 5296              	.LBB2864:
 5297              	.LBB2858:
 5298              		.loc 3 356 0
 5299 0904 7D69012E 		stwx 11,9,0
 5300              	.LBE2858:
 5301              	.LBE2864:
 5302              	.LBE2874:
 5303              		.loc 3 410 0
 5304 0908 80010044 		lwz 0,68(1)
 5305 090c 8361002C 		lwz 27,44(1)
 5306 0910 7C0803A6 		mtlr 0
 5307 0914 83810030 		lwz 28,48(1)
 5308 0918 83A10034 		lwz 29,52(1)
 5309 091c 83C10038 		lwz 30,56(1)
 5310 0920 83E1003C 		lwz 31,60(1)
 5311              	.LVL396:
 5312 0924 38210040 		addi 1,1,64
 5313              		.cfi_remember_state
 5314              		.cfi_restore 25
 5315              		.cfi_restore 26
 5316              		.cfi_restore 27
 5317              		.cfi_restore 28
 5318              		.cfi_restore 29
 5319              		.cfi_restore 30
 5320              		.cfi_restore 31
 5321              	.LCFI81:
 5322              		.cfi_def_cfa_offset 0
 5323 0928 4E800020 		blr
 5324              	.LVL397:
 5325              	.L279:
 5326              	.LCFI82:
 5327              		.cfi_restore_state
 5328              	.LBB2875:
 5329              		.loc 3 372 0
 5330 092c 80630090 		lwz 3,144(3)
 5331              	.LVL398:
 5332 0930 48000001 		bl wcslen
 5333              		.loc 3 374 0
 5334 0934 83BF00A4 		lwz 29,164(31)
 5335              		.loc 3 372 0
 5336 0938 7C7A1B78 		mr 26,3
 5337              	.LVL399:
 5338              		.loc 3 374 0
 5339 093c 3BBD0001 		addi 29,29,1
 5340              		.loc 3 375 0
 5341 0940 7F83E800 		cmpw 7,3,29
 5342              		.loc 3 374 0
 5343 0944 93BF00A4 		stw 29,164(31)
 5344              		.loc 3 375 0
 5345 0948 409C0014 		bge- 7,.L280
 5346              		.loc 3 378 0
 5347 094c 38000008 		li 0,8
 5348              		.loc 3 377 0
 5349 0950 93DF00A4 		stw 30,164(31)
 5350              		.loc 3 378 0
 5351 0954 901F00A8 		stw 0,168(31)
 5352 0958 3BA00000 		li 29,0
 5353              	.L280:
 5354              	.LVL400:
 5355              		.loc 3 531 0
 5356 095c 813F0094 		lwz 9,148(31)
 5357              	.LVL401:
 5358              	.LBB2865:
 5359              	.LBB2866:
 5360              		.loc 7 571 0
 5361 0960 837F0098 		lwz 27,152(31)
 5362 0964 7F69D850 		subf 27,9,27
 5363              	.LBE2866:
 5364              	.LBE2865:
 5365              		.loc 3 382 0
 5366 0968 577B003A 		rlwinm 27,27,0,0,29
 5367              	.LBB2867:
 5368              	.LBB2868:
 5369              		.loc 7 696 0
 5370 096c 3B7BFFFC 		addi 27,27,-4
 5371              	.LBE2868:
 5372              	.LBE2867:
 5373              		.loc 3 384 0
 5374 0970 7D69D82E 		lwzx 11,9,27
 5375 0974 2F8B0000 		cmpwi 7,11,0
 5376 0978 419E0204 		beq- 7,.L303
 5377              	.LVL402:
 5378              	.L281:
 5379              		.loc 3 388 0 discriminator 1
 5380 097c 801F00B4 		lwz 0,180(31)
 5381 0980 3BC00000 		li 30,0
 5382 0984 2F800000 		cmpwi 7,0,0
 5383 0988 409D01C0 		ble- 7,.L282
 5384              		.loc 3 388 0 is_stmt 0
 5385 098c 3B800000 		li 28,0
 5386 0990 48000074 		b .L293
 5387              	.LVL403:
 5388              	.L305:
 5389              		.loc 3 405 0 is_stmt 1
 5390 0994 807F00BC 		lwz 3,188(31)
 5391              		.loc 3 390 0
 5392 0998 57A0103A 		slwi 0,29,2
 5393              		.loc 3 404 0
 5394 099c 813F0090 		lwz 9,144(31)
 5395 09a0 57C7103A 		slwi 7,30,2
 5396              		.loc 3 405 0
 5397 09a4 2F830000 		cmpwi 7,3,0
 5398              		.loc 3 390 0
 5399 09a8 7FB9EB78 		mr 25,29
 5400              		.loc 3 404 0
 5401 09ac 7CC9002E 		lwzx 6,9,0
 5402              		.loc 3 390 0
 5403 09b0 7FA8EB78 		mr 8,29
 5404              		.loc 3 404 0
 5405 09b4 7D490214 		add 10,9,0
 5406              		.loc 3 390 0
 5407 09b8 3BBD0001 		addi 29,29,1
 5408              	.LVL404:
 5409              		.loc 3 404 0
 5410 09bc 7CCB392E 		stwx 6,11,7
 5411              		.loc 3 405 0
 5412 09c0 419E0150 		beq- 7,.L304
 5413              	.LVL405:
 5414              	.L290:
 5415              		.loc 3 405 0 is_stmt 0 discriminator 3
 5416 09c4 2F880000 		cmpwi 7,8,0
 5417 09c8 808A0000 		lwz 4,0(10)
 5418 09cc A8BF00C6 		lha 5,198(31)
 5419 09d0 38C00000 		li 6,0
 5420 09d4 409D0010 		ble- 7,.L291
 5421              		.loc 3 405 0 discriminator 4
 5422 09d8 3B39FFFF 		addi 25,25,-1
 5423 09dc 5739103A 		slwi 25,25,2
 5424 09e0 7CC9C82E 		lwzx 6,9,25
 5425              	.L291:
 5426              		.loc 3 405 0 discriminator 6
 5427 09e4 48000001 		bl _ZN10FreeTypeGX12getCharWidthEwsw
 5428              	.LVL406:
 5429              		.loc 3 388 0 is_stmt 1 discriminator 6
 5430 09e8 801F00B4 		lwz 0,180(31)
 5431              		.loc 3 405 0 discriminator 6
 5432 09ec 7F9C1A14 		add 28,28,3
 5433              	.LVL407:
 5434              		.loc 3 388 0 discriminator 6
 5435 09f0 813F0094 		lwz 9,148(31)
 5436 09f4 7F80E000 		cmpw 7,0,28
 5437              		.loc 3 407 0 discriminator 6
 5438 09f8 3BDE0001 		addi 30,30,1
 5439              	.LVL408:
 5440              		.loc 3 388 0 discriminator 6
 5441 09fc 409D0144 		ble- 7,.L292
 5442              		.loc 3 388 0 is_stmt 0
 5443 0a00 7D69D82E 		lwzx 11,9,27
 5444              	.LVL409:
 5445              	.L293:
 5446              		.loc 3 390 0 is_stmt 1
 5447 0a04 7F9AE800 		cmpw 7,26,29
 5448 0a08 41BDFF8C 		bgt- 7,.L305
 5449              		.loc 3 393 0
 5450 0a0c 807F00BC 		lwz 3,188(31)
 5451              		.loc 3 392 0
 5452 0a10 57C0103A 		slwi 0,30,2
 5453 0a14 39200020 		li 9,32
 5454 0a18 3B3E0001 		addi 25,30,1
 5455              	.LVL410:
 5456              		.loc 3 393 0
 5457 0a1c 2F830000 		cmpwi 7,3,0
 5458              		.loc 3 392 0
 5459 0a20 7D2B012E 		stwx 9,11,0
 5460              		.loc 3 393 0
 5461 0a24 419E00F8 		beq- 7,.L306
 5462              	.L285:
 5463              		.loc 3 393 0 is_stmt 0 discriminator 3
 5464 0a28 2F9D0000 		cmpwi 7,29,0
 5465 0a2c A8BF00C6 		lha 5,198(31)
 5466 0a30 38C00000 		li 6,0
 5467 0a34 409D0014 		ble- 7,.L286
 5468              		.loc 3 393 0 discriminator 4
 5469 0a38 3BBDFFFF 		addi 29,29,-1
 5470              	.LVL411:
 5471 0a3c 813F0090 		lwz 9,144(31)
 5472 0a40 57BD103A 		slwi 29,29,2
 5473              	.LVL412:
 5474 0a44 7CC9E82E 		lwzx 6,9,29
 5475              	.L286:
 5476              		.loc 3 393 0 discriminator 6
 5477 0a48 38800020 		li 4,32
 5478              		.loc 3 394 0 is_stmt 1 discriminator 6
 5479 0a4c 5739103A 		slwi 25,25,2
 5480              	.LVL413:
 5481              		.loc 3 393 0 discriminator 6
 5482 0a50 48000001 		bl _ZN10FreeTypeGX12getCharWidthEwsw
 5483              		.loc 3 395 0 discriminator 6
 5484 0a54 801F00BC 		lwz 0,188(31)
 5485              		.loc 3 394 0 discriminator 6
 5486 0a58 813F0094 		lwz 9,148(31)
 5487 0a5c 39600020 		li 11,32
 5488              		.loc 3 395 0 discriminator 6
 5489 0a60 2F800000 		cmpwi 7,0,0
 5490              		.loc 3 393 0 discriminator 6
 5491 0a64 7F83E214 		add 28,3,28
 5492              	.LVL414:
 5493              		.loc 3 394 0 discriminator 6
 5494 0a68 7D29D82E 		lwzx 9,9,27
 5495 0a6c 3BBE0002 		addi 29,30,2
 5496              	.LVL415:
 5497 0a70 7D69C92E 		stwx 11,9,25
 5498              		.loc 3 395 0 discriminator 6
 5499 0a74 419E00C0 		beq- 7,.L307
 5500              	.L287:
 5501              		.loc 3 395 0 is_stmt 0 discriminator 3
 5502 0a78 A8BF00C6 		lha 5,198(31)
 5503 0a7c 7C030378 		mr 3,0
 5504 0a80 38800020 		li 4,32
 5505 0a84 38C00020 		li 6,32
 5506 0a88 48000001 		bl _ZN10FreeTypeGX12getCharWidthEwsw
 5507              		.loc 3 397 0 is_stmt 1 discriminator 3
 5508 0a8c 801F00BC 		lwz 0,188(31)
 5509              		.loc 3 396 0 discriminator 3
 5510 0a90 813F0094 		lwz 9,148(31)
 5511 0a94 57BD103A 		slwi 29,29,2
 5512              	.LVL416:
 5513              		.loc 3 397 0 discriminator 3
 5514 0a98 2F800000 		cmpwi 7,0,0
 5515              		.loc 3 396 0 discriminator 3
 5516 0a9c 39600020 		li 11,32
 5517 0aa0 7D29D82E 		lwzx 9,9,27
 5518              		.loc 3 395 0 discriminator 3
 5519 0aa4 7F83E214 		add 28,3,28
 5520              	.LVL417:
 5521              		.loc 3 396 0 discriminator 3
 5522 0aa8 3BDE0003 		addi 30,30,3
 5523              	.LVL418:
 5524 0aac 7D69E92E 		stwx 11,9,29
 5525              		.loc 3 397 0 discriminator 3
 5526 0ab0 419E0078 		beq- 7,.L308
 5527              	.L288:
 5528 0ab4 A8BF00C6 		lha 5,198(31)
 5529 0ab8 7C030378 		mr 3,0
 5530 0abc 38800020 		li 4,32
 5531 0ac0 38C00020 		li 6,32
 5532 0ac4 48000001 		bl _ZN10FreeTypeGX12getCharWidthEwsw
 5533              		.loc 3 400 0 discriminator 3
 5534 0ac8 801F00B4 		lwz 0,180(31)
 5535              		.loc 3 397 0 discriminator 3
 5536 0acc 7F83E214 		add 28,3,28
 5537              	.LVL419:
 5538              		.loc 3 400 0 discriminator 3
 5539 0ad0 813F0094 		lwz 9,148(31)
 5540 0ad4 7F9C0000 		cmpw 7,28,0
 5541 0ad8 409C0068 		bge- 7,.L292
 5542              		.loc 3 405 0
 5543 0adc 807F00BC 		lwz 3,188(31)
 5544              		.loc 3 400 0
 5545 0ae0 38000000 		li 0,0
 5546 0ae4 7D69D82E 		lwzx 11,9,27
 5547              		.loc 3 404 0
 5548 0ae8 57C7103A 		slwi 7,30,2
 5549 0aec 813F0090 		lwz 9,144(31)
 5550              		.loc 3 405 0
 5551 0af0 2F830000 		cmpwi 7,3,0
 5552              		.loc 3 400 0
 5553 0af4 3BA00001 		li 29,1
 5554 0af8 3B200000 		li 25,0
 5555              		.loc 3 404 0
 5556 0afc 7CC9002E 		lwzx 6,9,0
 5557              		.loc 3 398 0
 5558 0b00 39000000 		li 8,0
 5559              	.LVL420:
 5560              		.loc 3 404 0
 5561 0b04 7D490214 		add 10,9,0
 5562 0b08 7CCB392E 		stwx 6,11,7
 5563              		.loc 3 405 0
 5564 0b0c 409EFEB8 		bne+ 7,.L290
 5565              	.LVL421:
 5566              	.L304:
 5567              		.loc 3 405 0 is_stmt 0 discriminator 2
 5568 0b10 3D600000 		lis 11,fontSystem@ha
 5569 0b14 806B0000 		lwz 3,fontSystem@l(11)
 5570 0b18 4BFFFEAC 		b .L290
 5571              	.LVL422:
 5572              	.L306:
 5573              		.loc 3 393 0 is_stmt 1 discriminator 2
 5574 0b1c 3D200000 		lis 9,fontSystem@ha
 5575 0b20 80690000 		lwz 3,fontSystem@l(9)
 5576 0b24 4BFFFF04 		b .L285
 5577              	.LVL423:
 5578              	.L308:
 5579              		.loc 3 397 0 discriminator 2
 5580 0b28 3D200000 		lis 9,fontSystem@ha
 5581 0b2c 80090000 		lwz 0,fontSystem@l(9)
 5582 0b30 4BFFFF84 		b .L288
 5583              	.LVL424:
 5584              	.L307:
 5585              		.loc 3 395 0 discriminator 2
 5586 0b34 3D200000 		lis 9,fontSystem@ha
 5587 0b38 80090000 		lwz 0,fontSystem@l(9)
 5588 0b3c 4BFFFF3C 		b .L287
 5589              	.LVL425:
 5590              	.L292:
 5591              		.loc 3 388 0
 5592 0b40 7D69D82E 		lwzx 11,9,27
 5593 0b44 57DE103A 		slwi 30,30,2
 5594              	.LVL426:
 5595              	.L282:
 5596              		.loc 3 409 0
 5597 0b48 38000000 		li 0,0
 5598              	.LBE2875:
 5599              		.loc 3 410 0
 5600 0b4c 83210024 		lwz 25,36(1)
 5601              	.LBB2876:
 5602              		.loc 3 409 0
 5603 0b50 7C0BF12E 		stwx 0,11,30
 5604              	.LBE2876:
 5605              		.loc 3 410 0
 5606 0b54 80010044 		lwz 0,68(1)
 5607 0b58 83410028 		lwz 26,40(1)
 5608              	.LVL427:
 5609 0b5c 7C0803A6 		mtlr 0
 5610 0b60 8361002C 		lwz 27,44(1)
 5611 0b64 83810030 		lwz 28,48(1)
 5612 0b68 83A10034 		lwz 29,52(1)
 5613 0b6c 83C10038 		lwz 30,56(1)
 5614 0b70 83E1003C 		lwz 31,60(1)
 5615              	.LVL428:
 5616 0b74 38210040 		addi 1,1,64
 5617              		.cfi_remember_state
 5618              		.cfi_restore 25
 5619              		.cfi_restore 26
 5620              		.cfi_restore 27
 5621              		.cfi_restore 28
 5622              		.cfi_restore 29
 5623              		.cfi_restore 30
 5624              		.cfi_restore 31
 5625              	.LCFI83:
 5626              		.cfi_def_cfa_offset 0
 5627 0b78 4E800020 		blr
 5628              	.LVL429:
 5629              	.L303:
 5630              	.LCFI84:
 5631              		.cfi_restore_state
 5632              	.LBB2877:
 5633              		.loc 3 384 0 discriminator 1
 5634 0b7c 807F00B4 		lwz 3,180(31)
 5635              	.LVL430:
 5636 0b80 5463103A 		slwi 3,3,2
 5637 0b84 48000001 		bl _Znaj
 5638              	.LVL431:
 5639 0b88 813F0094 		lwz 9,148(31)
 5640 0b8c 7D69D82E 		lwzx 11,9,27
 5641 0b90 4BFFFDEC 		b .L281
 5642              	.LBE2877:
 5643              		.cfi_endproc
 5644              	.LFE1564:
 5645              		.size	_ZN7GuiText10ScrollTextEv, .-_ZN7GuiText10ScrollTextEv
 5646              		.align 2
 5647              		.globl _ZN7GuiText8WrapTextEv
 5648              		.type	_ZN7GuiText8WrapTextEv, @function
 5649              	_ZN7GuiText8WrapTextEv:
 5650              	.LFB1565:
 5651              		.loc 3 413 0
 5652              		.cfi_startproc
 5653              	.LVL432:
 5654 0b94 7C0802A6 		mflr 0
 5655 0b98 9421FFA8 		stwu 1,-88(1)
 5656              	.LCFI85:
 5657              		.cfi_def_cfa_offset 88
 5658              		.cfi_register 65, 0
 5659 0b9c 92E10034 		stw 23,52(1)
 5660 0ba0 9001005C 		stw 0,92(1)
 5661 0ba4 93E10054 		stw 31,84(1)
 5662 0ba8 7C7F1B78 		mr 31,3
 5663              		.cfi_offset 31, -4
 5664              		.cfi_offset 65, 4
 5665              		.cfi_offset 23, -36
 5666              	.LBB2913:
 5667              		.loc 3 531 0
 5668 0bac 82E30094 		lwz 23,148(3)
 5669 0bb0 81630098 		lwz 11,152(3)
 5670              	.LBE2913:
 5671              		.loc 3 413 0
 5672 0bb4 92610024 		stw 19,36(1)
 5673              	.LBB2930:
 5674              	.LBB2914:
 5675              	.LBB2915:
 5676              		.loc 7 571 0
 5677 0bb8 7C175850 		subf 0,23,11
 5678              	.LBE2915:
 5679              	.LBE2914:
 5680              	.LBE2930:
 5681              		.loc 3 413 0
 5682 0bbc 92810028 		stw 20,40(1)
 5683              	.LBB2931:
 5684              		.loc 3 414 0
 5685 0bc0 5409F0BF 		srwi. 9,0,2
 5686              	.LBE2931:
 5687              		.loc 3 413 0
 5688 0bc4 92A1002C 		stw 21,44(1)
 5689 0bc8 92C10030 		stw 22,48(1)
 5690 0bcc 93010038 		stw 24,56(1)
 5691 0bd0 9321003C 		stw 25,60(1)
 5692 0bd4 93410040 		stw 26,64(1)
 5693 0bd8 93610044 		stw 27,68(1)
 5694 0bdc 93810048 		stw 28,72(1)
 5695 0be0 93A1004C 		stw 29,76(1)
 5696 0be4 93C10050 		stw 30,80(1)
 5697              	.LBB2932:
 5698              		.loc 3 414 0
 5699 0be8 40820188 		bne- 0,.L309
 5700              		.cfi_offset 30, -8
 5701              		.cfi_offset 29, -12
 5702              		.cfi_offset 28, -16
 5703              		.cfi_offset 27, -20
 5704              		.cfi_offset 26, -24
 5705              		.cfi_offset 25, -28
 5706              		.cfi_offset 24, -32
 5707              		.cfi_offset 22, -40
 5708              		.cfi_offset 21, -44
 5709              		.cfi_offset 20, -48
 5710              		.cfi_offset 19, -52
 5711              	.LVL433:
 5712              		.loc 3 423 0 discriminator 1
 5713 0bec 81230090 		lwz 9,144(3)
 5714 0bf0 81490000 		lwz 10,0(9)
 5715 0bf4 2F8A0000 		cmpwi 7,10,0
 5716 0bf8 419E0178 		beq- 7,.L309
 5717              		.loc 3 423 0 is_stmt 0
 5718 0bfc 814300C8 		lwz 10,200(3)
 5719 0c00 2F8A0000 		cmpwi 7,10,0
 5720 0c04 409D016C 		ble- 7,.L309
 5721 0c08 3BA00000 		li 29,0
 5722 0c0c 3AA00000 		li 21,0
 5723 0c10 3B800000 		li 28,0
 5724 0c14 3A60FFFF 		li 19,-1
 5725 0c18 3A80FFFF 		li 20,-1
 5726 0c1c 3B400000 		li 26,0
 5727 0c20 3BC00000 		li 30,0
 5728 0c24 3B600000 		li 27,0
 5729 0c28 48000050 		b .L311
 5730              	.LVL434:
 5731              	.L330:
 5732              		.loc 3 436 0 is_stmt 1
 5733 0c2c 813F0090 		lwz 9,144(31)
 5734              		.loc 3 458 0
 5735 0c30 57CB103A 		slwi 11,30,2
 5736 0c34 381E0001 		addi 0,30,1
 5737              	.LVL435:
 5738 0c38 7D69582E 		lwzx 11,9,11
 5739 0c3c 2F8B0020 		cmpwi 7,11,32
 5740 0c40 419E0108 		beq- 7,.L327
 5741              	.L321:
 5742              		.loc 3 423 0
 5743 0c44 541D103A 		slwi 29,0,2
 5744              		.loc 3 463 0
 5745 0c48 7C1E0378 		mr 30,0
 5746              	.LVL436:
 5747              		.loc 3 423 0
 5748 0c4c 7C09E82E 		lwzx 0,9,29
 5749              	.LVL437:
 5750 0c50 7FD5F378 		mr 21,30
 5751 0c54 2F800000 		cmpwi 7,0,0
 5752 0c58 419E0118 		beq- 7,.L309
 5753              	.LVL438:
 5754              	.L331:
 5755              		.loc 3 423 0 is_stmt 0 discriminator 2
 5756 0c5c 801F00C8 		lwz 0,200(31)
 5757 0c60 7F9A0000 		cmpw 7,26,0
 5758 0c64 409C010C 		bge- 7,.L309
 5759              		.loc 3 423 0
 5760 0c68 82FF0094 		lwz 23,148(31)
 5761              		.loc 3 464 0 is_stmt 1
 5762 0c6c 7F3BCB78 		mr 27,25
 5763              		.loc 3 423 0
 5764 0c70 817F0098 		lwz 11,152(31)
 5765 0c74 7C175850 		subf 0,23,11
 5766              	.LVL439:
 5767              	.L311:
 5768              	.LBB2916:
 5769              	.LBB2917:
 5770              		.loc 7 571 0 discriminator 5
 5771 0c78 7C001670 		srawi 0,0,2
 5772              	.LBE2917:
 5773              	.LBE2916:
 5774              		.loc 3 425 0 discriminator 5
 5775 0c7c 5758103A 		slwi 24,26,2
 5776 0c80 7F9A0000 		cmpw 7,26,0
 5777 0c84 409C0130 		bge- 7,.L328
 5778              		.loc 3 434 0
 5779 0c88 807F00BC 		lwz 3,188(31)
 5780              		.loc 3 432 0
 5781 0c8c 3B3B0001 		addi 25,27,1
 5782              		.loc 3 431 0
 5783 0c90 7C09E82E 		lwzx 0,9,29
 5784 0c94 5776103A 		slwi 22,27,2
 5785              		.loc 3 434 0
 5786 0c98 2F830000 		cmpwi 7,3,0
 5787              		.loc 3 431 0
 5788 0c9c 7D77C02E 		lwzx 11,23,24
 5789              		.loc 3 432 0
 5790 0ca0 5737103A 		slwi 23,25,2
 5791              		.loc 3 431 0
 5792 0ca4 7FA9EA14 		add 29,9,29
 5793 0ca8 7C0BB12E 		stwx 0,11,22
 5794              		.loc 3 432 0
 5795 0cac 38000000 		li 0,0
 5796 0cb0 7C0BB92E 		stwx 0,11,23
 5797              		.loc 3 434 0
 5798 0cb4 419E0170 		beq- 7,.L329
 5799              	.L314:
 5800              		.loc 3 434 0 is_stmt 0 discriminator 3
 5801 0cb8 2F9E0000 		cmpwi 7,30,0
 5802 0cbc 809D0000 		lwz 4,0(29)
 5803 0cc0 A8BF00C6 		lha 5,198(31)
 5804 0cc4 38C00000 		li 6,0
 5805 0cc8 419E0010 		beq- 7,.L315
 5806              		.loc 3 434 0 discriminator 4
 5807 0ccc 3AB5FFFF 		addi 21,21,-1
 5808 0cd0 56B5103A 		slwi 21,21,2
 5809 0cd4 7CC9A82E 		lwzx 6,9,21
 5810              	.L315:
 5811              		.loc 3 434 0 discriminator 6
 5812 0cd8 48000001 		bl _ZN10FreeTypeGX12getCharWidthEwsw
 5813              		.loc 3 436 0 is_stmt 1 discriminator 6
 5814 0cdc 801F00B4 		lwz 0,180(31)
 5815              		.loc 3 434 0 discriminator 6
 5816 0ce0 7F9C1A14 		add 28,28,3
 5817              	.LVL440:
 5818              		.loc 3 436 0 discriminator 6
 5819 0ce4 7F9C0000 		cmpw 7,28,0
 5820 0ce8 41BCFF44 		blt- 7,.L330
 5821              		.loc 3 438 0
 5822 0cec 2F94FFFF 		cmpwi 7,20,-1
 5823 0cf0 419E0020 		beq- 7,.L318
 5824              		.loc 3 440 0
 5825 0cf4 813F0094 		lwz 9,148(31)
 5826 0cf8 5673103A 		slwi 19,19,2
 5827 0cfc 38000000 		li 0,0
 5828 0d00 7E9EA378 		mr 30,20
 5829 0d04 7D29C02E 		lwzx 9,9,24
 5830 0d08 7C09992E 		stwx 0,9,19
 5831              	.LVL441:
 5832              		.loc 3 443 0
 5833 0d0c 3A60FFFF 		li 19,-1
 5834              	.LVL442:
 5835              	.L318:
 5836              		.loc 3 446 0
 5837 0d10 801F00C8 		lwz 0,200(31)
 5838 0d14 3B5A0001 		addi 26,26,1
 5839 0d18 813F0090 		lwz 9,144(31)
 5840 0d1c 7F9A0000 		cmpw 7,26,0
 5841 0d20 381E0001 		addi 0,30,1
 5842 0d24 419E010C 		beq- 7,.L319
 5843              	.L320:
 5844              	.LVL443:
 5845              		.loc 3 458 0
 5846 0d28 57CB103A 		slwi 11,30,2
 5847              		.loc 3 443 0
 5848 0d2c 3B200000 		li 25,0
 5849              		.loc 3 458 0
 5850 0d30 7D69582E 		lwzx 11,9,11
 5851              		.loc 3 454 0
 5852 0d34 3B800000 		li 28,0
 5853 0d38 3A80FFFF 		li 20,-1
 5854              		.loc 3 456 0
 5855 0d3c 3B60FFFF 		li 27,-1
 5856              	.LVL444:
 5857              		.loc 3 458 0
 5858 0d40 2F8B0020 		cmpwi 7,11,32
 5859 0d44 409EFF00 		bne+ 7,.L321
 5860              	.LVL445:
 5861              	.L327:
 5862              		.loc 3 458 0 is_stmt 0 discriminator 1
 5863 0d48 2F9BFFFF 		cmpwi 7,27,-1
 5864 0d4c 41BEFEF8 		beq- 7,.L321
 5865              		.loc 3 423 0 is_stmt 1
 5866 0d50 541D103A 		slwi 29,0,2
 5867              		.loc 3 460 0
 5868 0d54 7FD4F378 		mr 20,30
 5869              	.LVL446:
 5870              		.loc 3 463 0
 5871 0d58 7C1E0378 		mr 30,0
 5872              	.LVL447:
 5873              		.loc 3 423 0
 5874 0d5c 7C09E82E 		lwzx 0,9,29
 5875              		.loc 3 458 0
 5876 0d60 7F73DB78 		mr 19,27
 5877              	.LVL448:
 5878              		.loc 3 423 0
 5879 0d64 7FD5F378 		mr 21,30
 5880 0d68 2F800000 		cmpwi 7,0,0
 5881 0d6c 40BEFEF0 		bne- 7,.L331
 5882              	.LVL449:
 5883              	.L309:
 5884              	.LBE2932:
 5885              		.loc 3 466 0
 5886 0d70 8001005C 		lwz 0,92(1)
 5887 0d74 82610024 		lwz 19,36(1)
 5888 0d78 7C0803A6 		mtlr 0
 5889 0d7c 82810028 		lwz 20,40(1)
 5890 0d80 82A1002C 		lwz 21,44(1)
 5891 0d84 82C10030 		lwz 22,48(1)
 5892 0d88 82E10034 		lwz 23,52(1)
 5893 0d8c 83010038 		lwz 24,56(1)
 5894 0d90 8321003C 		lwz 25,60(1)
 5895 0d94 83410040 		lwz 26,64(1)
 5896 0d98 83610044 		lwz 27,68(1)
 5897 0d9c 83810048 		lwz 28,72(1)
 5898 0da0 83A1004C 		lwz 29,76(1)
 5899 0da4 83C10050 		lwz 30,80(1)
 5900 0da8 83E10054 		lwz 31,84(1)
 5901              	.LVL450:
 5902 0dac 38210058 		addi 1,1,88
 5903              		.cfi_remember_state
 5904              	.LCFI86:
 5905              		.cfi_def_cfa_offset 0
 5906              		.cfi_restore 31
 5907              		.cfi_restore 30
 5908              		.cfi_restore 29
 5909              		.cfi_restore 28
 5910              		.cfi_restore 27
 5911              		.cfi_restore 26
 5912              		.cfi_restore 25
 5913              		.cfi_restore 24
 5914              		.cfi_restore 23
 5915              		.cfi_restore 22
 5916              		.cfi_restore 21
 5917              		.cfi_restore 20
 5918              		.cfi_restore 19
 5919 0db0 4E800020 		blr
 5920              	.LVL451:
 5921              	.L328:
 5922              	.LCFI87:
 5923              		.cfi_restore_state
 5924              	.LBB2933:
 5925              		.loc 3 427 0
 5926 0db4 38BA0001 		addi 5,26,1
 5927              	.LVL452:
 5928 0db8 39200000 		li 9,0
 5929              	.LBB2918:
 5930              	.LBB2919:
 5931              		.loc 7 631 0
 5932 0dbc 7F850040 		cmplw 7,5,0
 5933              	.LBE2919:
 5934              	.LBE2918:
 5935              		.loc 3 427 0
 5936 0dc0 91210008 		stw 9,8(1)
 5937              	.LBB2926:
 5938              	.LBB2924:
 5939              		.loc 7 631 0
 5940 0dc4 419D00B0 		bgt- 7,.L332
 5941              		.loc 7 633 0
 5942 0dc8 409C0010 		bge- 7,.L313
 5943              	.LVL453:
 5944              		.loc 7 634 0
 5945 0dcc 54A5103A 		slwi 5,5,2
 5946              	.LVL454:
 5947 0dd0 7CB72A14 		add 5,23,5
 5948              	.LBB2920:
 5949              	.LBB2921:
 5950              		.loc 7 1256 0
 5951 0dd4 90BF0098 		stw 5,152(31)
 5952              	.LVL455:
 5953              	.L313:
 5954              	.LBE2921:
 5955              	.LBE2920:
 5956              	.LBE2924:
 5957              	.LBE2926:
 5958              		.loc 3 428 0
 5959 0dd8 807F00B4 		lwz 3,180(31)
 5960              	.LBB2927:
 5961              	.LBB2928:
 5962              		.loc 7 696 0
 5963 0ddc 5758103A 		slwi 24,26,2
 5964              	.LBE2928:
 5965              	.LBE2927:
 5966              		.loc 3 432 0
 5967 0de0 3B3B0001 		addi 25,27,1
 5968              		.loc 3 431 0
 5969 0de4 5776103A 		slwi 22,27,2
 5970              		.loc 3 428 0
 5971 0de8 5463103A 		slwi 3,3,2
 5972 0dec 48000001 		bl _Znaj
 5973 0df0 7C77C12E 		stwx 3,23,24
 5974              		.loc 3 434 0
 5975 0df4 807F00BC 		lwz 3,188(31)
 5976              		.loc 3 428 0
 5977 0df8 82FF0094 		lwz 23,148(31)
 5978 0dfc 813F0090 		lwz 9,144(31)
 5979              		.loc 3 434 0
 5980 0e00 2F830000 		cmpwi 7,3,0
 5981              		.loc 3 431 0
 5982 0e04 7D77C02E 		lwzx 11,23,24
 5983              		.loc 3 432 0
 5984 0e08 5737103A 		slwi 23,25,2
 5985              		.loc 3 431 0
 5986 0e0c 7C09E82E 		lwzx 0,9,29
 5987 0e10 7FA9EA14 		add 29,9,29
 5988 0e14 7C0BB12E 		stwx 0,11,22
 5989              		.loc 3 432 0
 5990 0e18 38000000 		li 0,0
 5991 0e1c 7C0BB92E 		stwx 0,11,23
 5992              		.loc 3 434 0
 5993 0e20 409EFE98 		bne+ 7,.L314
 5994              	.LVL456:
 5995              	.L329:
 5996              		.loc 3 434 0 is_stmt 0 discriminator 2
 5997 0e24 3D600000 		lis 11,fontSystem@ha
 5998 0e28 806B0000 		lwz 3,fontSystem@l(11)
 5999 0e2c 4BFFFE8C 		b .L314
 6000              	.LVL457:
 6001              	.L319:
 6002              		.loc 3 446 0 is_stmt 1 discriminator 1
 6003 0e30 540B103A 		slwi 11,0,2
 6004 0e34 7D69582E 		lwzx 11,9,11
 6005 0e38 2F8B0000 		cmpwi 7,11,0
 6006 0e3c 41BEFEEC 		beq- 7,.L320
 6007              		.loc 3 448 0
 6008 0e40 817F0094 		lwz 11,148(31)
 6009 0e44 391BFFFE 		addi 8,27,-2
 6010              		.loc 3 449 0
 6011 0e48 3B7BFFFF 		addi 27,27,-1
 6012              		.loc 3 448 0
 6013 0e4c 3940002E 		li 10,46
 6014 0e50 7D6BC02E 		lwzx 11,11,24
 6015 0e54 5508103A 		slwi 8,8,2
 6016              		.loc 3 449 0
 6017 0e58 577B103A 		slwi 27,27,2
 6018              		.loc 3 448 0
 6019 0e5c 7D4B412E 		stwx 10,11,8
 6020              		.loc 3 449 0
 6021 0e60 7D4BD92E 		stwx 10,11,27
 6022              		.loc 3 450 0
 6023 0e64 7D4BB12E 		stwx 10,11,22
 6024              		.loc 3 451 0
 6025 0e68 39400000 		li 10,0
 6026 0e6c 7D4BB92E 		stwx 10,11,23
 6027 0e70 4BFFFEB8 		b .L320
 6028              	.LVL458:
 6029              	.L332:
 6030              	.LBB2929:
 6031              	.LBB2925:
 6032              	.LBB2922:
 6033              	.LBB2923:
 6034              		.loc 7 944 0
 6035 0e74 7C240B78 		mr 4,1
 6036 0e78 387F0094 		addi 3,31,148
 6037 0e7c 95640018 		stwu 11,24(4)
 6038 0e80 7CA02850 		subf 5,0,5
 6039              	.LVL459:
 6040 0e84 38C10008 		addi 6,1,8
 6041 0e88 48000001 		bl _ZNSt6vectorIPwSaIS0_EE14_M_fill_insertEN9__gnu_cxx17__normal_iteratorIPS0_S2_EEjRKS0_
 6042              	.LVL460:
 6043 0e8c 82FF0094 		lwz 23,148(31)
 6044 0e90 4BFFFF48 		b .L313
 6045              	.LBE2923:
 6046              	.LBE2922:
 6047              	.LBE2925:
 6048              	.LBE2929:
 6049              	.LBE2933:
 6050              		.cfi_endproc
 6051              	.LFE1565:
 6052              		.size	_ZN7GuiText8WrapTextEv, .-_ZN7GuiText8WrapTextEv
 6053              		.align 2
 6054              		.globl _ZN7GuiText14MakeDottedTextEv
 6055              		.type	_ZN7GuiText14MakeDottedTextEv, @function
 6056              	_ZN7GuiText14MakeDottedTextEv:
 6057              	.LFB1563:
 6058              		.loc 3 312 0
 6059              		.cfi_startproc
 6060              	.LVL461:
 6061 0e94 7C0802A6 		mflr 0
 6062 0e98 9421FFC8 		stwu 1,-56(1)
 6063              	.LCFI88:
 6064              		.cfi_def_cfa_offset 56
 6065              		.cfi_register 65, 0
 6066              	.LBB2963:
 6067              		.loc 3 314 0
 6068 0e9c 39600000 		li 11,0
 6069              	.LBE2963:
 6070              		.loc 3 312 0
 6071 0ea0 93C10030 		stw 30,48(1)
 6072 0ea4 9001003C 		stw 0,60(1)
 6073 0ea8 93410020 		stw 26,32(1)
 6074              	.LBB2980:
 6075              		.loc 3 531 0
 6076 0eac 83C30094 		lwz 30,148(3)
 6077              		.cfi_offset 26, -24
 6078              		.cfi_offset 65, 4
 6079              		.cfi_offset 30, -8
 6080 0eb0 81230098 		lwz 9,152(3)
 6081              	.LBE2980:
 6082              		.loc 3 312 0
 6083 0eb4 93E10034 		stw 31,52(1)
 6084 0eb8 7C7F1B78 		mr 31,3
 6085              		.cfi_offset 31, -4
 6086              	.LBB2981:
 6087              	.LBB2964:
 6088              	.LBB2965:
 6089              		.loc 7 571 0
 6090 0ebc 7F5E4850 		subf 26,30,9
 6091              	.LBE2965:
 6092              	.LBE2964:
 6093              	.LBE2981:
 6094              		.loc 3 312 0
 6095 0ec0 93610024 		stw 27,36(1)
 6096              	.LBB2982:
 6097              	.LBB2967:
 6098              	.LBB2966:
 6099              		.loc 7 571 0
 6100 0ec4 7F5A1670 		srawi 26,26,2
 6101              	.LVL462:
 6102              	.LBE2966:
 6103              	.LBE2967:
 6104              	.LBE2982:
 6105              		.loc 3 312 0
 6106 0ec8 93810028 		stw 28,40(1)
 6107              	.LBB2983:
 6108              		.loc 3 314 0
 6109 0ecc 381A0001 		addi 0,26,1
 6110              	.LVL463:
 6111              	.LBE2983:
 6112              		.loc 3 312 0
 6113 0ed0 93A1002C 		stw 29,44(1)
 6114              	.LBB2984:
 6115              	.LBB2968:
 6116              	.LBB2969:
 6117              		.loc 7 631 0
 6118 0ed4 7F80D040 		cmplw 7,0,26
 6119              	.LBE2969:
 6120              	.LBE2968:
 6121              		.loc 3 314 0
 6122 0ed8 91610008 		stw 11,8(1)
 6123              	.LVL464:
 6124              	.LBB2976:
 6125              	.LBB2974:
 6126              		.loc 7 631 0
 6127 0edc 419D0164 		bgt- 7,.L344
 6128              		.cfi_offset 29, -12
 6129              		.cfi_offset 28, -16
 6130              		.cfi_offset 27, -20
 6131              	.LVL465:
 6132              		.loc 7 633 0
 6133 0ee0 409C0010 		bge- 7,.L335
 6134              	.LVL466:
 6135              		.loc 7 634 0
 6136 0ee4 5400103A 		slwi 0,0,2
 6137              	.LVL467:
 6138 0ee8 7C1E0214 		add 0,30,0
 6139              	.LBB2970:
 6140              	.LBB2971:
 6141              		.loc 7 1256 0
 6142 0eec 90030098 		stw 0,152(3)
 6143              	.LVL468:
 6144              	.L335:
 6145              	.LBE2971:
 6146              	.LBE2970:
 6147              	.LBE2974:
 6148              	.LBE2976:
 6149              		.loc 3 317 0
 6150 0ef0 807F00B4 		lwz 3,180(31)
 6151              	.LBB2977:
 6152              	.LBB2978:
 6153              		.loc 7 696 0
 6154 0ef4 575A103A 		slwi 26,26,2
 6155              	.LVL469:
 6156              	.LBE2978:
 6157              	.LBE2977:
 6158              		.loc 3 317 0
 6159 0ef8 5463103A 		slwi 3,3,2
 6160 0efc 48000001 		bl _Znaj
 6161 0f00 7C7ED12E 		stwx 3,30,26
 6162              		.loc 3 319 0
 6163 0f04 813F0090 		lwz 9,144(31)
 6164 0f08 80890000 		lwz 4,0(9)
 6165 0f0c 2F840000 		cmpwi 7,4,0
 6166 0f10 419E0094 		beq- 7,.L345
 6167 0f14 3BA00000 		li 29,0
 6168 0f18 3B600000 		li 27,0
 6169 0f1c 3B800000 		li 28,0
 6170 0f20 3BC00000 		li 30,0
 6171 0f24 48000058 		b .L336
 6172              	.LVL470:
 6173              	.L338:
 6174              		.loc 3 321 0 discriminator 3
 6175 0f28 A8BF00C6 		lha 5,198(31)
 6176 0f2c 419E0008 		beq- 7,.L339
 6177              		.loc 3 321 0 is_stmt 0 discriminator 4
 6178 0f30 7CC9002E 		lwzx 6,9,0
 6179              	.L339:
 6180              		.loc 3 321 0 discriminator 6
 6181 0f34 48000001 		bl _ZN10FreeTypeGX12getCharWidthEwsw
 6182              		.loc 3 322 0 is_stmt 1 discriminator 6
 6183 0f38 801F00B4 		lwz 0,180(31)
 6184              		.loc 3 321 0 discriminator 6
 6185 0f3c 7F9C1A14 		add 28,28,3
 6186              	.LVL471:
 6187              		.loc 3 322 0 discriminator 6
 6188 0f40 2F1E0002 		cmpwi 6,30,2
 6189 0f44 7F9C0000 		cmpw 7,28,0
 6190 0f48 419C0008 		blt- 7,.L340
 6191              		.loc 3 322 0 is_stmt 0 discriminator 1
 6192 0f4c 41990094 		bgt- 6,.L346
 6193              	.L340:
 6194              		.loc 3 331 0 is_stmt 1
 6195 0f50 813F0090 		lwz 9,144(31)
 6196              		.loc 3 333 0
 6197 0f54 3BDE0001 		addi 30,30,1
 6198              	.LVL472:
 6199              		.loc 3 331 0
 6200 0f58 817F0094 		lwz 11,148(31)
 6201              		.loc 3 319 0
 6202 0f5c 7FDBF378 		mr 27,30
 6203              		.loc 3 331 0
 6204 0f60 7C09E82E 		lwzx 0,9,29
 6205 0f64 7D6BD02E 		lwzx 11,11,26
 6206 0f68 7C0BE92E 		stwx 0,11,29
 6207              		.loc 3 311 0
 6208 0f6c 57DD103A 		slwi 29,30,2
 6209              		.loc 3 319 0
 6210 0f70 7C89E82E 		lwzx 4,9,29
 6211 0f74 2F840000 		cmpwi 7,4,0
 6212 0f78 419E0038 		beq- 7,.L337
 6213              	.LVL473:
 6214              	.L336:
 6215              		.loc 3 321 0
 6216 0f7c 807F00BC 		lwz 3,188(31)
 6217 0f80 381BFFFF 		addi 0,27,-1
 6218 0f84 2F9E0000 		cmpwi 7,30,0
 6219 0f88 5400103A 		slwi 0,0,2
 6220 0f8c 2F030000 		cmpwi 6,3,0
 6221 0f90 38C00000 		li 6,0
 6222 0f94 409AFF94 		bne+ 6,.L338
 6223              		.loc 3 321 0 is_stmt 0 discriminator 2
 6224 0f98 3D600000 		lis 11,fontSystem@ha
 6225 0f9c 806B0000 		lwz 3,fontSystem@l(11)
 6226 0fa0 4BFFFF88 		b .L338
 6227              	.LVL474:
 6228              	.L345:
 6229              		.loc 3 319 0 is_stmt 1
 6230 0fa4 813F0094 		lwz 9,148(31)
 6231 0fa8 3BA00000 		li 29,0
 6232 0fac 7D69D02E 		lwzx 11,9,26
 6233              	.LVL475:
 6234              	.L337:
 6235              		.loc 3 335 0
 6236 0fb0 38000000 		li 0,0
 6237              	.LBE2984:
 6238              		.loc 3 336 0
 6239 0fb4 83410020 		lwz 26,32(1)
 6240              	.LBB2985:
 6241              		.loc 3 335 0
 6242 0fb8 7C0BE92E 		stwx 0,11,29
 6243              	.LBE2985:
 6244              		.loc 3 336 0
 6245 0fbc 8001003C 		lwz 0,60(1)
 6246 0fc0 83610024 		lwz 27,36(1)
 6247 0fc4 7C0803A6 		mtlr 0
 6248 0fc8 83810028 		lwz 28,40(1)
 6249 0fcc 83A1002C 		lwz 29,44(1)
 6250 0fd0 83C10030 		lwz 30,48(1)
 6251 0fd4 83E10034 		lwz 31,52(1)
 6252              	.LVL476:
 6253 0fd8 38210038 		addi 1,1,56
 6254              		.cfi_remember_state
 6255              	.LCFI89:
 6256              		.cfi_def_cfa_offset 0
 6257              		.cfi_restore 31
 6258              		.cfi_restore 30
 6259              		.cfi_restore 29
 6260              		.cfi_restore 28
 6261              		.cfi_restore 27
 6262              		.cfi_restore 26
 6263 0fdc 4E800020 		blr
 6264              	.LVL477:
 6265              	.L346:
 6266              	.LCFI90:
 6267              		.cfi_restore_state
 6268              	.LBB2986:
 6269              		.loc 3 324 0
 6270 0fe0 817F0094 		lwz 11,148(31)
 6271 0fe4 393BFFFE 		addi 9,27,-2
 6272              		.loc 3 325 0
 6273 0fe8 3B7BFFFF 		addi 27,27,-1
 6274              		.loc 3 324 0
 6275 0fec 3800002E 		li 0,46
 6276 0ff0 7D6BD02E 		lwzx 11,11,26
 6277              		.loc 3 325 0
 6278 0ff4 577B103A 		slwi 27,27,2
 6279              		.loc 3 327 0
 6280 0ff8 3BDE0001 		addi 30,30,1
 6281              		.loc 3 324 0
 6282 0ffc 5529103A 		slwi 9,9,2
 6283 1000 7C0B492E 		stwx 0,11,9
 6284              		.loc 3 325 0
 6285 1004 7C0BD92E 		stwx 0,11,27
 6286              		.loc 3 326 0
 6287 1008 7C0BE92E 		stwx 0,11,29
 6288              	.LVL478:
 6289 100c 57DD103A 		slwi 29,30,2
 6290              	.LVL479:
 6291              		.loc 3 335 0
 6292 1010 38000000 		li 0,0
 6293              	.LBE2986:
 6294              		.loc 3 336 0
 6295 1014 83410020 		lwz 26,32(1)
 6296              	.LBB2987:
 6297              		.loc 3 335 0
 6298 1018 7C0BE92E 		stwx 0,11,29
 6299              	.LBE2987:
 6300              		.loc 3 336 0
 6301 101c 8001003C 		lwz 0,60(1)
 6302 1020 83610024 		lwz 27,36(1)
 6303 1024 7C0803A6 		mtlr 0
 6304 1028 83810028 		lwz 28,40(1)
 6305              	.LVL480:
 6306 102c 83A1002C 		lwz 29,44(1)
 6307 1030 83C10030 		lwz 30,48(1)
 6308 1034 83E10034 		lwz 31,52(1)
 6309              	.LVL481:
 6310 1038 38210038 		addi 1,1,56
 6311              		.cfi_remember_state
 6312              		.cfi_restore 26
 6313              		.cfi_restore 27
 6314              		.cfi_restore 28
 6315              		.cfi_restore 29
 6316              		.cfi_restore 30
 6317              		.cfi_restore 31
 6318              	.LCFI91:
 6319              		.cfi_def_cfa_offset 0
 6320 103c 4E800020 		blr
 6321              	.LVL482:
 6322              	.L344:
 6323              	.LCFI92:
 6324              		.cfi_restore_state
 6325              	.LBB2988:
 6326              	.LBB2979:
 6327              	.LBB2975:
 6328              	.LBB2972:
 6329              	.LBB2973:
 6330              		.loc 7 944 0
 6331 1040 7C240B78 		mr 4,1
 6332 1044 38630094 		addi 3,3,148
 6333              	.LVL483:
 6334 1048 95240018 		stwu 9,24(4)
 6335 104c 38A00001 		li 5,1
 6336 1050 38C10008 		addi 6,1,8
 6337 1054 48000001 		bl _ZNSt6vectorIPwSaIS0_EE14_M_fill_insertEN9__gnu_cxx17__normal_iteratorIPS0_S2_EEjRKS0_
 6338              	.LVL484:
 6339 1058 83DF0094 		lwz 30,148(31)
 6340 105c 4BFFFE94 		b .L335
 6341              	.LBE2973:
 6342              	.LBE2972:
 6343              	.LBE2975:
 6344              	.LBE2979:
 6345              	.LBE2988:
 6346              		.cfi_endproc
 6347              	.LFE1563:
 6348              		.size	_ZN7GuiText14MakeDottedTextEv, .-_ZN7GuiText14MakeDottedTextEv
 6349              		.align 2
 6350              		.globl _ZN7GuiText4DrawEv
 6351              		.type	_ZN7GuiText4DrawEv, @function
 6352              	_ZN7GuiText4DrawEv:
 6353              	.LFB1566:
 6354              		.loc 3 472 0
 6355              		.cfi_startproc
 6356              	.LVL485:
 6357 1060 7C0802A6 		mflr 0
 6358 1064 9421FFB8 		stwu 1,-72(1)
 6359              	.LCFI93:
 6360              		.cfi_def_cfa_offset 72
 6361              		.cfi_register 65, 0
 6362 1068 93E1003C 		stw 31,60(1)
 6363 106c 7C7F1B78 		mr 31,3
 6364              		.cfi_offset 31, -12
 6365 1070 9001004C 		stw 0,76(1)
 6366 1074 DBE10040 		stfd 31,64(1)
 6367              	.LBB3021:
 6368              		.loc 3 473 0
 6369 1078 80030090 		lwz 0,144(3)
 6370              		.cfi_offset 63, -8
 6371              		.cfi_offset 65, 4
 6372              	.LBE3021:
 6373              		.loc 3 472 0
 6374 107c 93010020 		stw 24,32(1)
 6375              	.LBB3022:
 6376              		.loc 3 473 0
 6377 1080 2F800000 		cmpwi 7,0,0
 6378              	.LBE3022:
 6379              		.loc 3 472 0
 6380 1084 93210024 		stw 25,36(1)
 6381 1088 93410028 		stw 26,40(1)
 6382 108c 9361002C 		stw 27,44(1)
 6383 1090 93810030 		stw 28,48(1)
 6384 1094 93A10034 		stw 29,52(1)
 6385 1098 93C10038 		stw 30,56(1)
 6386              	.LBB3023:
 6387              		.loc 3 473 0
 6388 109c 419E001C 		beq- 7,.L347
 6389              		.cfi_offset 30, -16
 6390              		.cfi_offset 29, -20
 6391              		.cfi_offset 28, -24
 6392              		.cfi_offset 27, -28
 6393              		.cfi_offset 26, -32
 6394              		.cfi_offset 25, -36
 6395              		.cfi_offset 24, -40
 6396              		.loc 3 476 0
 6397 10a0 81230000 		lwz 9,0(3)
 6398 10a4 80090034 		lwz 0,52(9)
 6399 10a8 7C0903A6 		mtctr 0
 6400 10ac 4E800421 		bctrl
 6401              	.LVL486:
 6402 10b0 2F830000 		cmpwi 7,3,0
 6403 10b4 409E0038 		bne- 7,.L369
 6404              	.L347:
 6405              	.LBE3023:
 6406              		.loc 3 531 0
 6407 10b8 8001004C 		lwz 0,76(1)
 6408 10bc 83010020 		lwz 24,32(1)
 6409 10c0 7C0803A6 		mtlr 0
 6410 10c4 83210024 		lwz 25,36(1)
 6411 10c8 83410028 		lwz 26,40(1)
 6412 10cc 8361002C 		lwz 27,44(1)
 6413 10d0 83810030 		lwz 28,48(1)
 6414 10d4 83A10034 		lwz 29,52(1)
 6415 10d8 83C10038 		lwz 30,56(1)
 6416 10dc 83E1003C 		lwz 31,60(1)
 6417              	.LVL487:
 6418 10e0 CBE10040 		lfd 31,64(1)
 6419 10e4 38210048 		addi 1,1,72
 6420              		.cfi_remember_state
 6421              	.LCFI94:
 6422              		.cfi_def_cfa_offset 0
 6423              		.cfi_restore 63
 6424              		.cfi_restore 31
 6425              		.cfi_restore 30
 6426              		.cfi_restore 29
 6427              		.cfi_restore 28
 6428              		.cfi_restore 27
 6429              		.cfi_restore 26
 6430              		.cfi_restore 25
 6431              		.cfi_restore 24
 6432 10e8 4E800020 		blr
 6433              	.LVL488:
 6434              	.L369:
 6435              	.LCFI95:
 6436              		.cfi_restore_state
 6437              	.LBB3024:
 6438              	.LBB3025:
 6439              		.loc 3 480 0
 6440 10ec 813F0000 		lwz 9,0(31)
 6441 10f0 7FE3FB78 		mr 3,31
 6442              		.loc 3 479 0
 6443 10f4 83BF00B8 		lwz 29,184(31)
 6444              	.LVL489:
 6445              		.loc 3 480 0
 6446 10f8 80090064 		lwz 0,100(9)
 6447 10fc 7C0903A6 		mtctr 0
 6448 1100 4E800421 		bctrl
 6449              		.loc 3 482 0
 6450 1104 801F00B0 		lwz 0,176(31)
 6451 1108 3D600000 		lis 11,.LC1@ha
 6452              		.loc 3 480 0
 6453 110c 507D063E 		rlwimi 29,3,0,24,31
 6454              	.LVL490:
 6455              		.loc 3 482 0
 6456 1110 6C008000 		xoris 0,0,0x8000
 6457 1114 C00B0000 		lfs 0,.LC1@l(11)
 6458 1118 90010014 		stw 0,20(1)
 6459 111c 3C004330 		lis 0,0x4330
 6460 1120 90010010 		stw 0,16(1)
 6461 1124 7FE3FB78 		mr 3,31
 6462 1128 813F0000 		lwz 9,0(31)
 6463 112c CBE10010 		lfd 31,16(1)
 6464 1130 80090074 		lwz 0,116(9)
 6465 1134 FFFF0028 		fsub 31,31,0
 6466 1138 7C0903A6 		mtctr 0
 6467 113c FFE0F818 		frsp 31,31
 6468 1140 4E800421 		bctrl
 6469 1144 3921001C 		addi 9,1,28
 6470 1148 EFFF0072 		fmuls 31,31,1
 6471              		.loc 3 484 0
 6472 114c 801F00C4 		lwz 0,196(31)
 6473              		.loc 3 482 0
 6474 1150 FFE0F81E 		fctiwz 31,31
 6475 1154 7FE04FAE 		stfiwx 31,0,9
 6476 1158 80A1001C 		lwz 5,28(1)
 6477              	.LVL491:
 6478              		.loc 3 484 0
 6479 115c 7F850000 		cmpw 7,5,0
 6480 1160 419E002C 		beq- 7,.L349
 6481              		.loc 3 488 0
 6482 1164 809F0090 		lwz 4,144(31)
 6483              		.loc 3 486 0
 6484 1168 90BF00C4 		stw 5,196(31)
 6485              		.loc 3 488 0
 6486 116c 2F840000 		cmpwi 7,4,0
 6487 1170 419E001C 		beq- 7,.L349
 6488              		.loc 3 489 0
 6489 1174 807F00BC 		lwz 3,188(31)
 6490 1178 2F830000 		cmpwi 7,3,0
 6491 117c 419E02D0 		beq- 7,.L370
 6492              	.LVL492:
 6493              	.L350:
 6494 1180 7CA50734 		extsh 5,5
 6495 1184 48000001 		bl _ZN10FreeTypeGX8getWidthEPKws
 6496              	.LVL493:
 6497 1188 907F00C0 		stw 3,192(31)
 6498              	.L349:
 6499              	.LBB3026:
 6500              		.loc 3 492 0
 6501 118c 801F00B4 		lwz 0,180(31)
 6502 1190 2F800000 		cmpwi 7,0,0
 6503 1194 409D012C 		ble- 7,.L351
 6504 1198 813F00C0 		lwz 9,192(31)
 6505 119c 7F804800 		cmpw 7,0,9
 6506 11a0 419D0120 		bgt- 7,.L351
 6507              	.LBB3027:
 6508              		.loc 3 494 0
 6509 11a4 801F00A0 		lwz 0,160(31)
 6510 11a8 2F800001 		cmpwi 7,0,1
 6511 11ac 419E01E4 		beq- 7,.L371
 6512              	.LBB3028:
 6513              		.loc 3 503 0
 6514 11b0 2F800002 		cmpwi 7,0,2
 6515 11b4 419E02D0 		beq- 7,.L372
 6516              	.LBB3029:
 6517              		.loc 3 510 0
 6518 11b8 2F800000 		cmpwi 7,0,0
 6519 11bc 409E018C 		bne- 7,.L354
 6520              	.LBB3030:
 6521              		.loc 3 514 0
 6522 11c0 801F0044 		lwz 0,68(31)
 6523              		.loc 3 512 0
 6524 11c4 837F00C4 		lwz 27,196(31)
 6525              		.loc 3 514 0
 6526 11c8 70090020 		andi. 9,0,32
 6527              		.loc 3 512 0
 6528 11cc 3B7B0006 		addi 27,27,6
 6529              	.LVL494:
 6530              		.loc 3 514 0
 6531 11d0 40820288 		bne- 0,.L358
 6532 11d4 813F0098 		lwz 9,152(31)
 6533              		.loc 3 513 0
 6534 11d8 3B800000 		li 28,0
 6535              		.loc 3 514 0
 6536 11dc 801F0094 		lwz 0,148(31)
 6537 11e0 7C004850 		subf 0,0,9
 6538 11e4 7C001670 		srawi 0,0,2
 6539              	.LVL495:
 6540              	.L359:
 6541              		.loc 3 517 0
 6542 11e8 2F800000 		cmpwi 7,0,0
 6543 11ec 419E02B8 		beq- 7,.L373
 6544              	.L360:
 6545              	.LBB3031:
 6546              		.loc 3 520 0
 6547 11f0 579C043E 		rlwinm 28,28,0,0xffff
 6548              	.LVL496:
 6549 11f4 577B043E 		rlwinm 27,27,0,0xffff
 6550              	.LVL497:
 6551              	.LBE3031:
 6552              		.loc 3 513 0
 6553 11f8 3BC00000 		li 30,0
 6554 11fc 480000A8 		b .L362
 6555              	.L361:
 6556              	.LBB3038:
 6557              		.loc 3 522 0
 6558 1200 813F0000 		lwz 9,0(31)
 6559 1204 80090010 		lwz 0,16(9)
 6560 1208 7C0903A6 		mtctr 0
 6561 120c 4E800421 		bctrl
 6562 1210 813F0000 		lwz 9,0(31)
 6563 1214 7C791B78 		mr 25,3
 6564 1218 7FE3FB78 		mr 3,31
 6565 121c 80090014 		lwz 0,20(9)
 6566 1220 7C0903A6 		mtctr 0
 6567 1224 4E800421 		bctrl
 6568 1228 813F0000 		lwz 9,0(31)
 6569 122c 7C781B78 		mr 24,3
 6570 1230 7FE3FB78 		mr 3,31
 6571 1234 80090018 		lwz 0,24(9)
 6572 1238 7C0903A6 		mtctr 0
 6573 123c 4E800421 		bctrl
 6574              	.LVL498:
 6575 1240 93A10018 		stw 29,24(1)
 6576 1244 57C0103A 		slwi 0,30,2
 6577 1248 7CBCC214 		add 5,28,24
 6578 124c 813F0094 		lwz 9,148(31)
 6579 1250 7C660734 		extsh 6,3
 6580 1254 A91F00C6 		lha 8,198(31)
 6581 1258 7F43D378 		mr 3,26
 6582 125c 7CE9002E 		lwzx 7,9,0
 6583 1260 7F240734 		extsh 4,25
 6584 1264 A15F0046 		lhz 10,70(31)
 6585 1268 38000000 		li 0,0
 6586 126c 39210018 		addi 9,1,24
 6587 1270 7CA50734 		extsh 5,5
 6588 1274 90010008 		stw 0,8(1)
 6589              		.loc 3 520 0
 6590 1278 3BDE0001 		addi 30,30,1
 6591              	.LVL499:
 6592              		.loc 3 522 0
 6593 127c 9001000C 		stw 0,12(1)
 6594 1280 48000001 		bl _ZN10FreeTypeGX8drawTextEsssPKws9_gx_colorttt
 6595              	.LVL500:
 6596              	.LBB3032:
 6597              	.LBB3033:
 6598              		.loc 7 571 0
 6599 1284 813F0098 		lwz 9,152(31)
 6600              	.LBE3033:
 6601              	.LBE3032:
 6602              		.loc 3 520 0
 6603 1288 7F9CDA14 		add 28,28,27
 6604              	.LBB3036:
 6605              	.LBB3034:
 6606              		.loc 7 571 0
 6607 128c 801F0094 		lwz 0,148(31)
 6608              	.LBE3034:
 6609              	.LBE3036:
 6610              		.loc 3 520 0
 6611 1290 579C043E 		rlwinm 28,28,0,0xffff
 6612              	.LBB3037:
 6613              	.LBB3035:
 6614              		.loc 7 571 0
 6615 1294 7C004850 		subf 0,0,9
 6616 1298 7C001670 		srawi 0,0,2
 6617              	.LBE3035:
 6618              	.LBE3037:
 6619              		.loc 3 520 0
 6620 129c 7F9E0040 		cmplw 7,30,0
 6621 12a0 409C00A8 		bge- 7,.L354
 6622              	.LVL501:
 6623              	.L362:
 6624              		.loc 3 522 0
 6625 12a4 835F00BC 		lwz 26,188(31)
 6626 12a8 7FE3FB78 		mr 3,31
 6627 12ac 2F9A0000 		cmpwi 7,26,0
 6628 12b0 409EFF50 		bne+ 7,.L361
 6629 12b4 3D200000 		lis 9,fontSystem@ha
 6630 12b8 83490000 		lwz 26,fontSystem@l(9)
 6631 12bc 4BFFFF44 		b .L361
 6632              	.L351:
 6633              	.LBE3038:
 6634              	.LBE3030:
 6635              	.LBE3029:
 6636              	.LBE3028:
 6637              	.LBE3027:
 6638              		.loc 3 528 0
 6639 12c0 839F00BC 		lwz 28,188(31)
 6640 12c4 2F9C0000 		cmpwi 7,28,0
 6641 12c8 419E0178 		beq- 7,.L374
 6642              	.L363:
 6643 12cc 813F0000 		lwz 9,0(31)
 6644 12d0 7FE3FB78 		mr 3,31
 6645 12d4 80090010 		lwz 0,16(9)
 6646 12d8 7C0903A6 		mtctr 0
 6647 12dc 4E800421 		bctrl
 6648 12e0 813F0000 		lwz 9,0(31)
 6649 12e4 7C7B1B78 		mr 27,3
 6650 12e8 7FE3FB78 		mr 3,31
 6651 12ec 80090014 		lwz 0,20(9)
 6652 12f0 7C0903A6 		mtctr 0
 6653 12f4 4E800421 		bctrl
 6654 12f8 813F0000 		lwz 9,0(31)
 6655 12fc 7C7E1B78 		mr 30,3
 6656 1300 7FE3FB78 		mr 3,31
 6657 1304 80090018 		lwz 0,24(9)
 6658 1308 7C0903A6 		mtctr 0
 6659 130c 4E800421 		bctrl
 6660 1310 7C290B78 		mr 9,1
 6661 1314 97A90018 		stwu 29,24(9)
 6662 1318 7C660734 		extsh 6,3
 6663 131c 7F640734 		extsh 4,27
 6664 1320 7F83E378 		mr 3,28
 6665 1324 A01F00C2 		lhz 0,194(31)
 6666 1328 7FC50734 		extsh 5,30
 6667 132c 80FF0090 		lwz 7,144(31)
 6668 1330 A91F00C6 		lha 8,198(31)
 6669 1334 A15F0046 		lhz 10,70(31)
 6670 1338 90010008 		stw 0,8(1)
 6671 133c 38000000 		li 0,0
 6672 1340 9001000C 		stw 0,12(1)
 6673 1344 48000001 		bl _ZN10FreeTypeGX8drawTextEsssPKws9_gx_colorttt
 6674              	.L354:
 6675              	.LBE3026:
 6676              		.loc 3 530 0
 6677 1348 813F0000 		lwz 9,0(31)
 6678 134c 7FE3FB78 		mr 3,31
 6679 1350 800900C4 		lwz 0,196(9)
 6680 1354 7C0903A6 		mtctr 0
 6681 1358 4E800421 		bctrl
 6682              	.LBE3025:
 6683              	.LBE3024:
 6684              		.loc 3 531 0
 6685 135c 8001004C 		lwz 0,76(1)
 6686 1360 83010020 		lwz 24,32(1)
 6687 1364 7C0803A6 		mtlr 0
 6688 1368 83210024 		lwz 25,36(1)
 6689 136c 83410028 		lwz 26,40(1)
 6690 1370 8361002C 		lwz 27,44(1)
 6691 1374 83810030 		lwz 28,48(1)
 6692 1378 83A10034 		lwz 29,52(1)
 6693              	.LVL502:
 6694 137c 83C10038 		lwz 30,56(1)
 6695 1380 83E1003C 		lwz 31,60(1)
 6696              	.LVL503:
 6697 1384 CBE10040 		lfd 31,64(1)
 6698              	.LVL504:
 6699 1388 38210048 		addi 1,1,72
 6700              		.cfi_remember_state
 6701              		.cfi_restore 24
 6702              		.cfi_restore 25
 6703              		.cfi_restore 26
 6704              		.cfi_restore 27
 6705              		.cfi_restore 28
 6706              		.cfi_restore 29
 6707              		.cfi_restore 30
 6708              		.cfi_restore 31
 6709              		.cfi_restore 63
 6710              	.LCFI96:
 6711              		.cfi_def_cfa_offset 0
 6712 138c 4E800020 		blr
 6713              	.LVL505:
 6714              	.L371:
 6715              	.LCFI97:
 6716              		.cfi_restore_state
 6717              	.LBB3070:
 6718              	.LBB3068:
 6719              	.LBB3065:
 6720              	.LBB3062:
 6721              	.LBB3056:
 6722              	.LBB3057:
 6723              		.loc 7 571 0
 6724 1390 813F0098 		lwz 9,152(31)
 6725 1394 801F0094 		lwz 0,148(31)
 6726 1398 7C004850 		subf 0,0,9
 6727              	.LBE3057:
 6728              	.LBE3056:
 6729              		.loc 3 496 0
 6730 139c 5409F0BF 		srwi. 9,0,2
 6731 13a0 41820124 		beq- 0,.L375
 6732              	.L366:
 6733              	.LBB3058:
 6734              		.loc 3 508 0
 6735 13a4 839F00BC 		lwz 28,188(31)
 6736 13a8 2F9C0000 		cmpwi 7,28,0
 6737 13ac 419E0124 		beq- 7,.L376
 6738              	.L357:
 6739 13b0 813F0000 		lwz 9,0(31)
 6740 13b4 7FE3FB78 		mr 3,31
 6741 13b8 80090010 		lwz 0,16(9)
 6742 13bc 7C0903A6 		mtctr 0
 6743 13c0 4E800421 		bctrl
 6744 13c4 813F0000 		lwz 9,0(31)
 6745 13c8 7C7B1B78 		mr 27,3
 6746 13cc 7FE3FB78 		mr 3,31
 6747 13d0 80090014 		lwz 0,20(9)
 6748 13d4 7C0903A6 		mtctr 0
 6749 13d8 4E800421 		bctrl
 6750 13dc 813F0000 		lwz 9,0(31)
 6751 13e0 7C7E1B78 		mr 30,3
 6752 13e4 7FE3FB78 		mr 3,31
 6753 13e8 80090018 		lwz 0,24(9)
 6754 13ec 7C0903A6 		mtctr 0
 6755 13f0 4E800421 		bctrl
 6756              	.LBE3058:
 6757              	.LBE3062:
 6758              	.LBE3065:
 6759              	.LBE3068:
 6760              		.loc 3 531 0
 6761 13f4 817F0094 		lwz 11,148(31)
 6762              	.LVL506:
 6763              	.LBB3069:
 6764              	.LBB3066:
 6765              	.LBB3063:
 6766              	.LBB3059:
 6767              	.LBB3046:
 6768              	.LBB3047:
 6769              		.loc 7 571 0
 6770 13f8 815F0098 		lwz 10,152(31)
 6771              	.LBE3047:
 6772              	.LBE3046:
 6773              		.loc 3 508 0
 6774 13fc 7C290B78 		mr 9,1
 6775 1400 97A90018 		stwu 29,24(9)
 6776 1404 7C660734 		extsh 6,3
 6777              	.LBB3049:
 6778              	.LBB3048:
 6779              		.loc 7 571 0
 6780 1408 7D4B5050 		subf 10,11,10
 6781              	.LBE3048:
 6782              	.LBE3049:
 6783              		.loc 3 508 0
 6784 140c 7F83E378 		mr 3,28
 6785              	.LBB3050:
 6786              	.LBB3051:
 6787              		.loc 7 696 0
 6788 1410 554A003A 		rlwinm 10,10,0,0,29
 6789              	.LBE3051:
 6790              	.LBE3050:
 6791              		.loc 3 508 0
 6792 1414 A91F00C6 		lha 8,198(31)
 6793 1418 380AFFFC 		addi 0,10,-4
 6794 141c A15F0046 		lhz 10,70(31)
 6795 1420 7CEB002E 		lwzx 7,11,0
 6796 1424 7F640734 		extsh 4,27
 6797 1428 38000000 		li 0,0
 6798 142c 7FC50734 		extsh 5,30
 6799 1430 90010008 		stw 0,8(1)
 6800 1434 9001000C 		stw 0,12(1)
 6801 1438 48000001 		bl _ZN10FreeTypeGX8drawTextEsssPKws9_gx_colorttt
 6802              	.LVL507:
 6803 143c 4BFFFF0C 		b .L354
 6804              	.L374:
 6805              	.LBE3059:
 6806              	.LBE3063:
 6807              		.loc 3 528 0
 6808 1440 3D200000 		lis 9,fontSystem@ha
 6809 1444 83890000 		lwz 28,fontSystem@l(9)
 6810 1448 4BFFFE84 		b .L363
 6811              	.LVL508:
 6812              	.L370:
 6813              	.LBE3066:
 6814              		.loc 3 489 0
 6815 144c 3D200000 		lis 9,fontSystem@ha
 6816 1450 80690000 		lwz 3,fontSystem@l(9)
 6817 1454 4BFFFD2C 		b .L350
 6818              	.LVL509:
 6819              	.L358:
 6820              	.LBB3067:
 6821              	.LBB3064:
 6822              	.LBB3060:
 6823              	.LBB3052:
 6824              	.LBB3044:
 6825              	.LBB3039:
 6826              	.LBB3040:
 6827              		.loc 7 571 0
 6828 1458 817F0098 		lwz 11,152(31)
 6829              	.LBE3040:
 6830              	.LBE3039:
 6831              		.loc 3 515 0
 6832 145c 7F690E70 		srawi 9,27,1
 6833 1460 7D290194 		addze 9,9
 6834              	.LBB3042:
 6835              	.LBB3041:
 6836              		.loc 7 571 0
 6837 1464 801F0094 		lwz 0,148(31)
 6838 1468 7C005850 		subf 0,0,11
 6839 146c 7C001670 		srawi 0,0,2
 6840              	.LBE3041:
 6841              	.LBE3042:
 6842              		.loc 3 515 0
 6843 1470 7F80D9D6 		mullw 28,0,27
 6844 1474 7F9C00D0 		neg 28,28
 6845 1478 579CF87E 		srwi 28,28,1
 6846 147c 7F9C4A14 		add 28,28,9
 6847              	.LVL510:
 6848 1480 4BFFFD68 		b .L359
 6849              	.LVL511:
 6850              	.L372:
 6851              	.LBE3044:
 6852              	.LBE3052:
 6853              		.loc 3 505 0
 6854 1484 7FE3FB78 		mr 3,31
 6855 1488 48000001 		bl _ZN7GuiText10ScrollTextEv
 6856              	.L368:
 6857              	.LBB3053:
 6858              	.LBB3054:
 6859              		.loc 7 571 0
 6860 148c 813F0098 		lwz 9,152(31)
 6861 1490 801F0094 		lwz 0,148(31)
 6862 1494 7C004850 		subf 0,0,9
 6863              	.LBE3054:
 6864              	.LBE3053:
 6865              		.loc 3 507 0
 6866 1498 5409F0BF 		srwi. 9,0,2
 6867 149c 4182FEAC 		beq+ 0,.L354
 6868 14a0 4BFFFF04 		b .L366
 6869              	.LVL512:
 6870              	.L373:
 6871              	.LBB3055:
 6872              	.LBB3045:
 6873              		.loc 3 518 0
 6874 14a4 7FE3FB78 		mr 3,31
 6875 14a8 48000001 		bl _ZN7GuiText8WrapTextEv
 6876 14ac 813F0098 		lwz 9,152(31)
 6877 14b0 801F0094 		lwz 0,148(31)
 6878 14b4 7C004850 		subf 0,0,9
 6879              	.LVL513:
 6880              	.LBB3043:
 6881              		.loc 3 520 0
 6882 14b8 5409F0BF 		srwi. 9,0,2
 6883 14bc 4082FD34 		bne+ 0,.L360
 6884 14c0 4BFFFE88 		b .L354
 6885              	.LVL514:
 6886              	.L375:
 6887              	.LBE3043:
 6888              	.LBE3045:
 6889              	.LBE3055:
 6890              	.LBE3060:
 6891              		.loc 3 497 0
 6892 14c4 7FE3FB78 		mr 3,31
 6893 14c8 48000001 		bl _ZN7GuiText14MakeDottedTextEv
 6894 14cc 4BFFFFC0 		b .L368
 6895              	.L376:
 6896              	.LBB3061:
 6897              		.loc 3 508 0
 6898 14d0 3D200000 		lis 9,fontSystem@ha
 6899 14d4 83890000 		lwz 28,fontSystem@l(9)
 6900 14d8 4BFFFED8 		b .L357
 6901              	.LBE3061:
 6902              	.LBE3064:
 6903              	.LBE3067:
 6904              	.LBE3069:
 6905              	.LBE3070:
 6906              		.cfi_endproc
 6907              	.LFE1566:
 6908              		.size	_ZN7GuiText4DrawEv, .-_ZN7GuiText4DrawEv
 6909              		.section	.text._ZNSt8_Rb_treeIPN7sigslot12_signal_baseINS0_15single_threadedEEES4_St9_IdentityIS4_
 6910              		.align 2
 6911              		.weak	_ZNSt8_Rb_treeIPN7sigslot12_signal_baseINS0_15single_threadedEEES4_St9_IdentityIS4_ESt4lessI
 6912              		.type	_ZNSt8_Rb_treeIPN7sigslot12_signal_baseINS0_15single_threadedEEES4_St9_IdentityIS4_ESt4lessI
 6913              	_ZNSt8_Rb_treeIPN7sigslot12_signal_baseINS0_15single_threadedEEES4_St9_IdentityIS4_ESt4lessIS4_ESaI
 6914              	.LFB1918:
 6915              		.file 15 "d:\\devkitpro\\devkitppc\\bin\\../lib/gcc/powerpc-eabi/4.6.3/../../../../powerpc-eabi/in
 6916              		.loc 15 1068 0
 6917              		.cfi_startproc
 6918              	.LVL515:
 6919 0000 9421FFC8 		stwu 1,-56(1)
 6920              	.LCFI98:
 6921              		.cfi_def_cfa_offset 56
 6922 0004 7C0802A6 		mflr 0
 6923 0008 92C10010 		stw 22,16(1)
 6924              	.LBB3187:
 6925              		.loc 15 1072 0
 6926 000c 7C962379 		mr. 22,4
 6927              		.cfi_offset 22, -40
 6928              		.cfi_register 65, 0
 6929              	.LBE3187:
 6930              		.loc 15 1068 0
 6931 0010 93C10030 		stw 30,48(1)
 6932 0014 7C7E1B78 		mr 30,3
 6933              		.cfi_offset 30, -8
 6934 0018 9001003C 		stw 0,60(1)
 6935 001c 92A1000C 		stw 21,12(1)
 6936 0020 92E10014 		stw 23,20(1)
 6937 0024 93010018 		stw 24,24(1)
 6938 0028 9321001C 		stw 25,28(1)
 6939 002c 93410020 		stw 26,32(1)
 6940 0030 93610024 		stw 27,36(1)
 6941 0034 93810028 		stw 28,40(1)
 6942 0038 93A1002C 		stw 29,44(1)
 6943 003c 93E10034 		stw 31,52(1)
 6944              	.LBB3272:
 6945              		.loc 15 1072 0
 6946 0040 41820168 		beq- 0,.L377
 6947              		.cfi_offset 31, -4
 6948              		.cfi_offset 29, -12
 6949              		.cfi_offset 28, -16
 6950              		.cfi_offset 27, -20
 6951              		.cfi_offset 26, -24
 6952              		.cfi_offset 25, -28
 6953              		.cfi_offset 24, -32
 6954              		.cfi_offset 23, -36
 6955              		.cfi_offset 21, -44
 6956              		.cfi_offset 65, 4
 6957              	.LVL516:
 6958              	.L423:
 6959              		.loc 3 531 0
 6960 0044 8376000C 		lwz 27,12(22)
 6961              	.LVL517:
 6962              	.LBB3188:
 6963              	.LBB3189:
 6964              	.LBB3190:
 6965              		.loc 15 1072 0
 6966 0048 2F9B0000 		cmpwi 7,27,0
 6967 004c 419E0140 		beq- 7,.L379
 6968              	.LVL518:
 6969              	.L424:
 6970              	.LBE3190:
 6971              		.loc 3 531 0
 6972 0050 835B000C 		lwz 26,12(27)
 6973              	.LVL519:
 6974              	.LBB3266:
 6975              	.LBB3191:
 6976              	.LBB3192:
 6977              	.LBB3193:
 6978              		.loc 15 1072 0
 6979 0054 2F9A0000 		cmpwi 7,26,0
 6980 0058 419E0118 		beq- 7,.L380
 6981              	.LVL520:
 6982              	.L425:
 6983              	.LBE3193:
 6984              		.loc 3 531 0
 6985 005c 833A000C 		lwz 25,12(26)
 6986              	.LVL521:
 6987              	.LBB3259:
 6988              	.LBB3194:
 6989              	.LBB3195:
 6990              	.LBB3196:
 6991              		.loc 15 1072 0
 6992 0060 2F990000 		cmpwi 7,25,0
 6993 0064 419E00F0 		beq- 7,.L381
 6994              	.LVL522:
 6995              	.L426:
 6996              	.LBE3196:
 6997              		.loc 3 531 0
 6998 0068 8319000C 		lwz 24,12(25)
 6999              	.LVL523:
 7000              	.LBB3252:
 7001              	.LBB3197:
 7002              	.LBB3198:
 7003              	.LBB3199:
 7004              		.loc 15 1072 0
 7005 006c 2F980000 		cmpwi 7,24,0
 7006 0070 419E00C8 		beq- 7,.L382
 7007              	.LVL524:
 7008              	.L427:
 7009              	.LBE3199:
 7010              		.loc 3 531 0
 7011 0074 82F8000C 		lwz 23,12(24)
 7012              	.LVL525:
 7013              	.LBB3245:
 7014              	.LBB3200:
 7015              	.LBB3201:
 7016              	.LBB3202:
 7017              		.loc 15 1072 0
 7018 0078 2F970000 		cmpwi 7,23,0
 7019 007c 419E00A0 		beq- 7,.L383
 7020              	.LVL526:
 7021              	.L428:
 7022              	.LBE3202:
