   1              		.file	"gui_arrowoption.cpp"
   2              		.section	".text"
   3              	.Ltext0:
   4              		.section	.text._ZN7sigslot15single_threadedD2Ev,"axG",@progbits,_ZN7sigslot15single_threadedD5Ev,c
   5              		.align 2
   6              		.weak	_ZN7sigslot15single_threadedD2Ev
   7              		.type	_ZN7sigslot15single_threadedD2Ev, @function
   8              	_ZN7sigslot15single_threadedD2Ev:
   9              	.LFB1243:
  10              		.file 1 "d:/Projects/SaveGameManager/savegame-manager-gx/trunk/source/GUI/../sigslot.h"
  11              		.loc 1 104 0
  12              		.cfi_startproc
  13              	.LVL0:
  14              	.LBB3628:
  15              		.loc 1 105 0
  16 0000 3D200000 		lis 9,_ZTVN7sigslot15single_threadedE+8@ha
  17              	.LBE3628:
  18              		.loc 1 107 0
  19              	.LBB3629:
  20              		.loc 1 105 0
  21 0004 38090008 		la 0,_ZTVN7sigslot15single_threadedE+8@l(9)
  22 0008 90030000 		stw 0,0(3)
  23              	.LBE3629:
  24              		.loc 1 107 0
  25 000c 4E800020 		blr
  26              		.cfi_endproc
  27              	.LFE1243:
  28              		.size	_ZN7sigslot15single_threadedD2Ev, .-_ZN7sigslot15single_threadedD2Ev
  29              		.section	.text._ZN7sigslot15single_threaded4lockEv,"axG",@progbits,_ZN7sigslot15single_threaded4lo
  30              		.align 2
  31              		.weak	_ZN7sigslot15single_threaded4lockEv
  32              		.type	_ZN7sigslot15single_threaded4lockEv, @function
  33              	_ZN7sigslot15single_threaded4lockEv:
  34              	.LFB1246:
  35              		.loc 1 109 0
  36              		.cfi_startproc
  37              	.LVL1:
  38              		.loc 1 112 0
  39 0000 4E800020 		blr
  40              		.cfi_endproc
  41              	.LFE1246:
  42              		.size	_ZN7sigslot15single_threaded4lockEv, .-_ZN7sigslot15single_threaded4lockEv
  43              		.section	.text._ZN7sigslot15single_threaded6unlockEv,"axG",@progbits,_ZN7sigslot15single_threaded6
  44              		.align 2
  45              		.weak	_ZN7sigslot15single_threaded6unlockEv
  46              		.type	_ZN7sigslot15single_threaded6unlockEv, @function
  47              	_ZN7sigslot15single_threaded6unlockEv:
  48              	.LFB1247:
  49              		.loc 1 114 0
  50              		.cfi_startproc
  51              	.LVL2:
  52              		.loc 1 117 0
  53 0000 4E800020 		blr
  54              		.cfi_endproc
  55              	.LFE1247:
  56              		.size	_ZN7sigslot15single_threaded6unlockEv, .-_ZN7sigslot15single_threaded6unlockEv
  57              		.section	.text._ZN10GuiElement9SetParentEPS_,"axG",@progbits,_ZN10GuiElement9SetParentEPS_,comdat
  58              		.align 2
  59              		.weak	_ZN10GuiElement9SetParentEPS_
  60              		.type	_ZN10GuiElement9SetParentEPS_, @function
  61              	_ZN10GuiElement9SetParentEPS_:
  62              	.LFB1479:
  63              		.file 2 "d:/Projects/SaveGameManager/savegame-manager-gx/trunk/source/GUI/gui_element.h"
  64              		.loc 2 92 0
  65              		.cfi_startproc
  66              	.LVL3:
  67              		.loc 2 92 0
  68 0000 90830060 		stw 4,96(3)
  69 0004 4E800020 		blr
  70              		.cfi_endproc
  71              	.LFE1479:
  72              		.size	_ZN10GuiElement9SetParentEPS_, .-_ZN10GuiElement9SetParentEPS_
  73              		.section	.text._ZN10GuiElement9GetParentEv,"axG",@progbits,_ZN10GuiElement9GetParentEv,comdat
  74              		.align 2
  75              		.weak	_ZN10GuiElement9GetParentEv
  76              		.type	_ZN10GuiElement9GetParentEv, @function
  77              	_ZN10GuiElement9GetParentEv:
  78              	.LFB1480:
  79              		.loc 2 95 0
  80              		.cfi_startproc
  81              	.LVL4:
  82              		.loc 2 95 0
  83 0000 80630060 		lwz 3,96(3)
  84              	.LVL5:
  85 0004 4E800020 		blr
  86              		.cfi_endproc
  87              	.LFE1480:
  88              		.size	_ZN10GuiElement9GetParentEv, .-_ZN10GuiElement9GetParentEv
  89              		.section	.text._ZN10GuiElement12GetZPositionEv,"axG",@progbits,_ZN10GuiElement12GetZPositionEv,com
  90              		.align 2
  91              		.weak	_ZN10GuiElement12GetZPositionEv
  92              		.type	_ZN10GuiElement12GetZPositionEv, @function
  93              	_ZN10GuiElement12GetZPositionEv:
  94              	.LFB1481:
  95              		.loc 2 106 0
  96              		.cfi_startproc
  97              	.LVL6:
  98 0000 7C0802A6 		mflr 0
  99 0004 9421FFF0 		stwu 1,-16(1)
 100              	.LCFI0:
 101              		.cfi_def_cfa_offset 16
 102              		.cfi_register 65, 0
 103 0008 93E1000C 		stw 31,12(1)
 104 000c 7C7F1B78 		mr 31,3
 105              		.cfi_offset 31, -4
 106 0010 90010014 		stw 0,20(1)
 107              	.LBB3630:
 108              		.loc 2 110 0
 109 0014 81630060 		lwz 11,96(3)
 110              		.loc 2 108 0
 111 0018 38600000 		li 3,0
 112              	.LVL7:
 113              		.loc 2 110 0
 114 001c 2F8B0000 		cmpwi 7,11,0
 115 0020 419E0018 		beq- 7,.L8
 116              		.cfi_offset 65, 4
 117              		.loc 2 111 0
 118 0024 812B0000 		lwz 9,0(11)
 119 0028 7D635B78 		mr 3,11
 120 002c 80090018 		lwz 0,24(9)
 121 0030 7C0903A6 		mtctr 0
 122 0034 4E800421 		bctrl
 123              	.LVL8:
 124              	.L8:
 125              		.loc 2 113 0
 126 0038 801F0034 		lwz 0,52(31)
 127              	.LBE3630:
 128              		.loc 2 114 0
 129 003c 83E1000C 		lwz 31,12(1)
 130              	.LVL9:
 131 0040 7C630214 		add 3,3,0
 132              	.LVL10:
 133 0044 80010014 		lwz 0,20(1)
 134 0048 38210010 		addi 1,1,16
 135              	.LCFI1:
 136              		.cfi_def_cfa_offset 0
 137              		.cfi_restore 31
 138 004c 7C0803A6 		mtlr 0
 139 0050 4E800020 		blr
 140              		.cfi_endproc
 141              	.LFE1481:
 142              		.size	_ZN10GuiElement12GetZPositionEv, .-_ZN10GuiElement12GetZPositionEv
 143              		.section	.text._ZN10GuiElement10GetLeftPosEv,"axG",@progbits,_ZN10GuiElement10GetLeftPosEv,comdat
 144              		.align 2
 145              		.weak	_ZN10GuiElement10GetLeftPosEv
 146              		.type	_ZN10GuiElement10GetLeftPosEv, @function
 147              	_ZN10GuiElement10GetLeftPosEv:
 148              	.LFB1482:
 149              		.loc 2 116 0
 150              		.cfi_startproc
 151              	.LVL11:
 152              		.loc 2 116 0
 153 0000 8063002C 		lwz 3,44(3)
 154              	.LVL12:
 155 0004 4E800020 		blr
 156              		.cfi_endproc
 157              	.LFE1482:
 158              		.size	_ZN10GuiElement10GetLeftPosEv, .-_ZN10GuiElement10GetLeftPosEv
 159              		.section	.text._ZN10GuiElement9GetTopPosEv,"axG",@progbits,_ZN10GuiElement9GetTopPosEv,comdat
 160              		.align 2
 161              		.weak	_ZN10GuiElement9GetTopPosEv
 162              		.type	_ZN10GuiElement9GetTopPosEv, @function
 163              	_ZN10GuiElement9GetTopPosEv:
 164              	.LFB1483:
 165              		.loc 2 118 0
 166              		.cfi_startproc
 167              	.LVL13:
 168              		.loc 2 118 0
 169 0000 80630030 		lwz 3,48(3)
 170              	.LVL14:
 171 0004 4E800020 		blr
 172              		.cfi_endproc
 173              	.LFE1483:
 174              		.size	_ZN10GuiElement9GetTopPosEv, .-_ZN10GuiElement9GetTopPosEv
 175              		.section	.text._ZN10GuiElement8GetWidthEv,"axG",@progbits,_ZN10GuiElement8GetWidthEv,comdat
 176              		.align 2
 177              		.weak	_ZN10GuiElement8GetWidthEv
 178              		.type	_ZN10GuiElement8GetWidthEv, @function
 179              	_ZN10GuiElement8GetWidthEv:
 180              	.LFB1484:
 181              		.loc 2 121 0
 182              		.cfi_startproc
 183              	.LVL15:
 184              		.loc 2 121 0
 185 0000 80630024 		lwz 3,36(3)
 186              	.LVL16:
 187 0004 4E800020 		blr
 188              		.cfi_endproc
 189              	.LFE1484:
 190              		.size	_ZN10GuiElement8GetWidthEv, .-_ZN10GuiElement8GetWidthEv
 191              		.section	.text._ZN10GuiElement9GetHeightEv,"axG",@progbits,_ZN10GuiElement9GetHeightEv,comdat
 192              		.align 2
 193              		.weak	_ZN10GuiElement9GetHeightEv
 194              		.type	_ZN10GuiElement9GetHeightEv, @function
 195              	_ZN10GuiElement9GetHeightEv:
 196              	.LFB1485:
 197              		.loc 2 124 0
 198              		.cfi_startproc
 199              	.LVL17:
 200              		.loc 2 124 0
 201 0000 80630028 		lwz 3,40(3)
 202              	.LVL18:
 203 0004 4E800020 		blr
 204              		.cfi_endproc
 205              	.LFE1485:
 206              		.size	_ZN10GuiElement9GetHeightEv, .-_ZN10GuiElement9GetHeightEv
 207              		.section	.text._ZN10GuiElement7SetSizeEii,"axG",@progbits,_ZN10GuiElement7SetSizeEii,comdat
 208              		.align 2
 209              		.weak	_ZN10GuiElement7SetSizeEii
 210              		.type	_ZN10GuiElement7SetSizeEii, @function
 211              	_ZN10GuiElement7SetSizeEii:
 212              	.LFB1486:
 213              		.loc 2 128 0
 214              		.cfi_startproc
 215              	.LVL19:
 216              		.loc 2 130 0
 217 0000 90830024 		stw 4,36(3)
 218              		.loc 2 132 0
 219              		.loc 2 131 0
 220 0004 90A30028 		stw 5,40(3)
 221              		.loc 2 132 0
 222 0008 4E800020 		blr
 223              		.cfi_endproc
 224              	.LFE1486:
 225              		.size	_ZN10GuiElement7SetSizeEii, .-_ZN10GuiElement7SetSizeEii
 226              		.section	.text._ZN10GuiElement9IsVisibleEv,"axG",@progbits,_ZN10GuiElement9IsVisibleEv,comdat
 227              		.align 2
 228              		.weak	_ZN10GuiElement9IsVisibleEv
 229              		.type	_ZN10GuiElement9IsVisibleEv, @function
 230              	_ZN10GuiElement9IsVisibleEv:
 231              	.LFB1488:
 232              		.loc 2 142 0
 233              		.cfi_startproc
 234              	.LVL20:
 235              		.loc 2 142 0
 236 0000 8863001D 		lbz 3,29(3)
 237              	.LVL21:
 238 0004 4E800020 		blr
 239              		.cfi_endproc
 240              	.LFE1488:
 241              		.size	_ZN10GuiElement9IsVisibleEv, .-_ZN10GuiElement9IsVisibleEv
 242              		.section	.text._ZN10GuiElement12IsSelectableEv,"axG",@progbits,_ZN10GuiElement12IsSelectableEv,com
 243              		.align 2
 244              		.weak	_ZN10GuiElement12IsSelectableEv
 245              		.type	_ZN10GuiElement12IsSelectableEv, @function
 246              	_ZN10GuiElement12IsSelectableEv:
 247              	.LFB1489:
 248              		.loc 2 145 0
 249              		.cfi_startproc
 250              	.LVL22:
 251              		.loc 2 149 0
 252 0000 80030048 		lwz 0,72(3)
 253 0004 39200000 		li 9,0
 254 0008 2F800004 		cmpwi 7,0,4
 255 000c 419E0010 		beq- 7,.L18
 256              		.loc 2 149 0 is_stmt 0 discriminator 1
 257 0010 2F800002 		cmpwi 7,0,2
 258 0014 419E0008 		beq- 7,.L18
 259              		.loc 2 149 0 discriminator 3
 260 0018 8923001E 		lbz 9,30(3)
 261              	.L18:
 262              		.loc 2 150 0 is_stmt 1 discriminator 5
 263 001c 7D234B78 		mr 3,9
 264              	.LVL23:
 265 0020 4E800020 		blr
 266              		.cfi_endproc
 267              	.LFE1489:
 268              		.size	_ZN10GuiElement12IsSelectableEv, .-_ZN10GuiElement12IsSelectableEv
 269              		.section	.text._ZN10GuiElement11IsClickableEv,"axG",@progbits,_ZN10GuiElement11IsClickableEv,comda
 270              		.align 2
 271              		.weak	_ZN10GuiElement11IsClickableEv
 272              		.type	_ZN10GuiElement11IsClickableEv, @function
 273              	_ZN10GuiElement11IsClickableEv:
 274              	.LFB1490:
 275              		.loc 2 153 0
 276              		.cfi_startproc
 277              	.LVL24:
 278              		.loc 2 158 0
 279 0000 80030048 		lwz 0,72(3)
 280 0004 39200000 		li 9,0
 281 0008 2F800004 		cmpwi 7,0,4
 282 000c 419E0018 		beq- 7,.L22
 283              		.loc 2 158 0 is_stmt 0 discriminator 1
 284 0010 2F800002 		cmpwi 7,0,2
 285 0014 419E0010 		beq- 7,.L22
 286              		.loc 2 158 0 discriminator 3
 287 0018 2F800003 		cmpwi 7,0,3
 288 001c 419E0008 		beq- 7,.L22
 289              		.loc 2 158 0 discriminator 4
 290 0020 8923001F 		lbz 9,31(3)
 291              	.L22:
 292              		.loc 2 159 0 is_stmt 1 discriminator 6
 293 0024 7D234B78 		mr 3,9
 294              	.LVL25:
 295 0028 4E800020 		blr
 296              		.cfi_endproc
 297              	.LFE1490:
 298              		.size	_ZN10GuiElement11IsClickableEv, .-_ZN10GuiElement11IsClickableEv
 299              		.section	.text._ZN10GuiElement10IsHoldableEv,"axG",@progbits,_ZN10GuiElement10IsHoldableEv,comdat
 300              		.align 2
 301              		.weak	_ZN10GuiElement10IsHoldableEv
 302              		.type	_ZN10GuiElement10IsHoldableEv, @function
 303              	_ZN10GuiElement10IsHoldableEv:
 304              	.LFB1491:
 305              		.loc 2 162 0
 306              		.cfi_startproc
 307              	.LVL26:
 308              		.loc 2 162 0
 309 0000 81230048 		lwz 9,72(3)
 310 0004 38000000 		li 0,0
 311 0008 2F890004 		cmpwi 7,9,4
 312 000c 419E0008 		beq- 7,.L27
 313              		.loc 2 162 0 is_stmt 0 discriminator 1
 314 0010 88030020 		lbz 0,32(3)
 315              	.L27:
 316              		.loc 2 162 0 discriminator 4
 317 0014 7C030378 		mr 3,0
 318              	.LVL27:
 319 0018 4E800020 		blr
 320              		.cfi_endproc
 321              	.LFE1491:
 322              		.size	_ZN10GuiElement10IsHoldableEv, .-_ZN10GuiElement10IsHoldableEv
 323              		.section	.text._ZN10GuiElement13SetSelectableEb,"axG",@progbits,_ZN10GuiElement13SetSelectableEb,c
 324              		.align 2
 325              		.weak	_ZN10GuiElement13SetSelectableEb
 326              		.type	_ZN10GuiElement13SetSelectableEb, @function
 327              	_ZN10GuiElement13SetSelectableEb:
 328              	.LFB1492:
 329              		.loc 2 165 0 is_stmt 1
 330              		.cfi_startproc
 331              	.LVL28:
 332              		.loc 2 165 0
 333 0000 9883001E 		stb 4,30(3)
 334 0004 4E800020 		blr
 335              		.cfi_endproc
 336              	.LFE1492:
 337              		.size	_ZN10GuiElement13SetSelectableEb, .-_ZN10GuiElement13SetSelectableEb
 338              		.section	.text._ZN10GuiElement12SetClickableEb,"axG",@progbits,_ZN10GuiElement12SetClickableEb,com
 339              		.align 2
 340              		.weak	_ZN10GuiElement12SetClickableEb
 341              		.type	_ZN10GuiElement12SetClickableEb, @function
 342              	_ZN10GuiElement12SetClickableEb:
 343              	.LFB1493:
 344              		.loc 2 168 0
 345              		.cfi_startproc
 346              	.LVL29:
 347              		.loc 2 168 0
 348 0000 9883001F 		stb 4,31(3)
 349 0004 4E800020 		blr
 350              		.cfi_endproc
 351              	.LFE1493:
 352              		.size	_ZN10GuiElement12SetClickableEb, .-_ZN10GuiElement12SetClickableEb
 353              		.section	.text._ZN10GuiElement11SetHoldableEb,"axG",@progbits,_ZN10GuiElement11SetHoldableEb,comda
 354              		.align 2
 355              		.weak	_ZN10GuiElement11SetHoldableEb
 356              		.type	_ZN10GuiElement11SetHoldableEb, @function
 357              	_ZN10GuiElement11SetHoldableEb:
 358              	.LFB1494:
 359              		.loc 2 171 0
 360              		.cfi_startproc
 361              	.LVL30:
 362              		.loc 2 171 0
 363 0000 98830020 		stb 4,32(3)
 364 0004 4E800020 		blr
 365              		.cfi_endproc
 366              	.LFE1494:
 367              		.size	_ZN10GuiElement11SetHoldableEb, .-_ZN10GuiElement11SetHoldableEb
 368              		.section	.text._ZN10GuiElement8GetStateEv,"axG",@progbits,_ZN10GuiElement8GetStateEv,comdat
 369              		.align 2
 370              		.weak	_ZN10GuiElement8GetStateEv
 371              		.type	_ZN10GuiElement8GetStateEv, @function
 372              	_ZN10GuiElement8GetStateEv:
 373              	.LFB1495:
 374              		.loc 2 178 0
 375              		.cfi_startproc
 376              	.LVL31:
 377              		.loc 2 178 0
 378 0000 80630048 		lwz 3,72(3)
 379              	.LVL32:
 380 0004 4E800020 		blr
 381              		.cfi_endproc
 382              	.LFE1495:
 383              		.size	_ZN10GuiElement8GetStateEv, .-_ZN10GuiElement8GetStateEv
 384              		.section	.text._ZN10GuiElement12GetStateChanEv,"axG",@progbits,_ZN10GuiElement12GetStateChanEv,com
 385              		.align 2
 386              		.weak	_ZN10GuiElement12GetStateChanEv
 387              		.type	_ZN10GuiElement12GetStateChanEv, @function
 388              	_ZN10GuiElement12GetStateChanEv:
 389              	.LFB1496:
 390              		.loc 2 181 0
 391              		.cfi_startproc
 392              	.LVL33:
 393              		.loc 2 181 0
 394 0000 8063004C 		lwz 3,76(3)
 395              	.LVL34:
 396 0004 4E800020 		blr
 397              		.cfi_endproc
 398              	.LFE1496:
 399              		.size	_ZN10GuiElement12GetStateChanEv, .-_ZN10GuiElement12GetStateChanEv
 400              		.section	.text._ZN10GuiElement8SetAlphaEi,"axG",@progbits,_ZN10GuiElement8SetAlphaEi,comdat
 401              		.align 2
 402              		.weak	_ZN10GuiElement8SetAlphaEi
 403              		.type	_ZN10GuiElement8SetAlphaEi, @function
 404              	_ZN10GuiElement8SetAlphaEi:
 405              	.LFB1498:
 406              		.loc 2 190 0
 407              		.cfi_startproc
 408              	.LVL35:
 409              		.loc 2 190 0
 410 0000 90830038 		stw 4,56(3)
 411 0004 4E800020 		blr
 412              		.cfi_endproc
 413              	.LFE1498:
 414              		.size	_ZN10GuiElement8SetAlphaEi, .-_ZN10GuiElement8SetAlphaEi
 415              		.section	.text._ZN10GuiElement8GetAlphaEv,"axG",@progbits,_ZN10GuiElement8GetAlphaEv,comdat
 416              		.align 2
 417              		.weak	_ZN10GuiElement8GetAlphaEv
 418              		.type	_ZN10GuiElement8GetAlphaEv, @function
 419              	_ZN10GuiElement8GetAlphaEv:
 420              	.LFB1499:
 421              		.loc 2 194 0
 422              		.cfi_startproc
 423              	.LVL36:
 424 0000 7C0802A6 		mflr 0
 425 0004 9421FFD8 		stwu 1,-40(1)
 426              	.LCFI2:
 427              		.cfi_def_cfa_offset 40
 428              		.cfi_register 65, 0
 429 0008 93E10024 		stw 31,36(1)
 430 000c 9001002C 		stw 0,44(1)
 431              	.LBB3631:
 432              		.loc 2 198 0
 433 0010 83E3006C 		lwz 31,108(3)
 434              		.cfi_offset 65, 4
 435              		.cfi_offset 31, -4
 436 0014 2F9F0000 		cmpwi 7,31,0
 437 0018 419C0094 		blt- 7,.L38
 438              	.L36:
 439              	.LVL37:
 440              		.loc 2 203 0
 441 001c 80630060 		lwz 3,96(3)
 442              	.LVL38:
 443 0020 2F830000 		cmpwi 7,3,0
 444 0024 419E0070 		beq- 7,.L37
 445              		.loc 2 204 0
 446 0028 81230000 		lwz 9,0(3)
 447 002c 6FFF8000 		xoris 31,31,0x8000
 448              	.LVL39:
 449 0030 80090064 		lwz 0,100(9)
 450 0034 7C0903A6 		mtctr 0
 451 0038 4E800421 		bctrl
 452 003c 3C004330 		lis 0,0x4330
 453 0040 6C638000 		xoris 3,3,0x8000
 454 0044 90010010 		stw 0,16(1)
 455 0048 90610014 		stw 3,20(1)
 456 004c 3D200000 		lis 9,.LC1@ha
 457 0050 C0090000 		lfs 0,.LC1@l(9)
 458 0054 3D200000 		lis 9,.LC2@ha
 459 0058 C9A10010 		lfd 13,16(1)
 460 005c C1890004 		lfs 12,.LC2@l(9)
 461 0060 39210018 		addi 9,1,24
 462 0064 FDAD0028 		fsub 13,13,0
 463 0068 93E1000C 		stw 31,12(1)
 464 006c 90010008 		stw 0,8(1)
 465 0070 FDA06818 		frsp 13,13
 466 0074 EDAD6024 		fdivs 13,13,12
 467 0078 C9810008 		lfd 12,8(1)
 468 007c FC0C0028 		fsub 0,12,0
 469 0080 FC000018 		frsp 0,0
 470 0084 EC000372 		fmuls 0,0,13
 471 0088 FC00001E 		fctiwz 0,0
 472 008c 7C004FAE 		stfiwx 0,0,9
 473 0090 83E10018 		lwz 31,24(1)
 474              	.LVL40:
 475              	.L37:
 476              	.LBE3631:
 477              		.loc 2 207 0
 478 0094 8001002C 		lwz 0,44(1)
 479 0098 7FE3FB78 		mr 3,31
 480 009c 83E10024 		lwz 31,36(1)
 481              	.LVL41:
 482 00a0 7C0803A6 		mtlr 0
 483 00a4 38210028 		addi 1,1,40
 484              		.cfi_remember_state
 485              	.LCFI3:
 486              		.cfi_def_cfa_offset 0
 487              		.cfi_restore 31
 488 00a8 4E800020 		blr
 489              	.LVL42:
 490              	.L38:
 491              	.LCFI4:
 492              		.cfi_restore_state
 493              	.LBB3632:
 494              		.loc 2 201 0
 495 00ac 83E30038 		lwz 31,56(3)
 496              	.LVL43:
 497 00b0 4BFFFF6C 		b .L36
 498              	.LBE3632:
 499              		.cfi_endproc
 500              	.LFE1499:
 501              		.size	_ZN10GuiElement8GetAlphaEv, .-_ZN10GuiElement8GetAlphaEv
 502              		.section	.text._ZN10GuiElement8SetScaleEf,"axG",@progbits,_ZN10GuiElement8SetScaleEf,comdat
 503              		.align 2
 504              		.weak	_ZN10GuiElement8SetScaleEf
 505              		.type	_ZN10GuiElement8SetScaleEf, @function
 506              	_ZN10GuiElement8SetScaleEf:
 507              	.LFB1500:
 508              		.loc 2 210 0
 509              		.cfi_startproc
 510              	.LVL44:
 511              		.loc 2 212 0
 512 0000 D023003C 		stfs 1,60(3)
 513              		.loc 2 214 0
 514              		.loc 2 213 0
 515 0004 D0230040 		stfs 1,64(3)
 516              		.loc 2 214 0
 517 0008 4E800020 		blr
 518              		.cfi_endproc
 519              	.LFE1500:
 520              		.size	_ZN10GuiElement8SetScaleEf, .-_ZN10GuiElement8SetScaleEf
 521              		.section	.text._ZN10GuiElement9SetScaleXEf,"axG",@progbits,_ZN10GuiElement9SetScaleXEf,comdat
 522              		.align 2
 523              		.weak	_ZN10GuiElement9SetScaleXEf
 524              		.type	_ZN10GuiElement9SetScaleXEf, @function
 525              	_ZN10GuiElement9SetScaleXEf:
 526              	.LFB1501:
 527              		.loc 2 217 0
 528              		.cfi_startproc
 529              	.LVL45:
 530              		.loc 2 217 0
 531 0000 D023003C 		stfs 1,60(3)
 532 0004 4E800020 		blr
 533              		.cfi_endproc
 534              	.LFE1501:
 535              		.size	_ZN10GuiElement9SetScaleXEf, .-_ZN10GuiElement9SetScaleXEf
 536              		.section	.text._ZN10GuiElement9SetScaleYEf,"axG",@progbits,_ZN10GuiElement9SetScaleYEf,comdat
 537              		.align 2
 538              		.weak	_ZN10GuiElement9SetScaleYEf
 539              		.type	_ZN10GuiElement9SetScaleYEf, @function
 540              	_ZN10GuiElement9SetScaleYEf:
 541              	.LFB1502:
 542              		.loc 2 220 0
 543              		.cfi_startproc
 544              	.LVL46:
 545              		.loc 2 220 0
 546 0000 D0230040 		stfs 1,64(3)
 547 0004 4E800020 		blr
 548              		.cfi_endproc
 549              	.LFE1502:
 550              		.size	_ZN10GuiElement9SetScaleYEf, .-_ZN10GuiElement9SetScaleYEf
 551              		.section	.text._ZN10GuiElement8GetScaleEv,"axG",@progbits,_ZN10GuiElement8GetScaleEv,comdat
 552              		.align 2
 553              		.weak	_ZN10GuiElement8GetScaleEv
 554              		.type	_ZN10GuiElement8GetScaleEv, @function
 555              	_ZN10GuiElement8GetScaleEv:
 556              	.LFB1503:
 557              		.loc 2 223 0
 558              		.cfi_startproc
 559              	.LVL47:
 560 0000 7C0802A6 		mflr 0
 561 0004 9421FFF0 		stwu 1,-16(1)
 562              	.LCFI5:
 563              		.cfi_def_cfa_offset 16
 564              		.cfi_register 65, 0
 565              	.LBB3633:
 566              		.loc 2 225 0
 567 0008 3D200000 		lis 9,.LC3@ha
 568              	.LBE3633:
 569              		.loc 2 223 0
 570 000c DBE10008 		stfd 31,8(1)
 571 0010 90010014 		stw 0,20(1)
 572              	.LBB3634:
 573              		.loc 2 225 0
 574 0014 C0030040 		lfs 0,64(3)
 575 0018 C3E3003C 		lfs 31,60(3)
 576              		.cfi_offset 65, 4
 577              		.cfi_offset 63, -8
 578              		.loc 2 227 0
 579 001c 81630060 		lwz 11,96(3)
 580              		.loc 2 225 0
 581 0020 EFFF002A 		fadds 31,31,0
 582 0024 C0090008 		lfs 0,.LC3@l(9)
 583              		.loc 2 227 0
 584 0028 2F8B0000 		cmpwi 7,11,0
 585              		.loc 2 225 0
 586 002c EFFF0032 		fmuls 31,31,0
 587 0030 C0030070 		lfs 0,112(3)
 588 0034 EFFF0032 		fmuls 31,31,0
 589              	.LVL48:
 590              		.loc 2 227 0
 591 0038 419E001C 		beq- 7,.L43
 592              		.loc 2 228 0
 593 003c 812B0000 		lwz 9,0(11)
 594 0040 7D635B78 		mr 3,11
 595              	.LVL49:
 596 0044 80090074 		lwz 0,116(9)
 597 0048 7C0903A6 		mtctr 0
 598 004c 4E800421 		bctrl
 599 0050 EFFF0072 		fmuls 31,31,1
 600              	.LVL50:
 601              	.L43:
 602              	.LBE3634:
 603              		.loc 2 231 0
 604 0054 80010014 		lwz 0,20(1)
 605 0058 FC20F890 		fmr 1,31
 606 005c CBE10008 		lfd 31,8(1)
 607              	.LVL51:
 608 0060 7C0803A6 		mtlr 0
 609 0064 38210010 		addi 1,1,16
 610              	.LCFI6:
 611              		.cfi_def_cfa_offset 0
 612              		.cfi_restore 63
 613 0068 4E800020 		blr
 614              		.cfi_endproc
 615              	.LFE1503:
 616              		.size	_ZN10GuiElement8GetScaleEv, .-_ZN10GuiElement8GetScaleEv
 617              		.section	.text._ZN10GuiElement9GetScaleXEv,"axG",@progbits,_ZN10GuiElement9GetScaleXEv,comdat
 618              		.align 2
 619              		.weak	_ZN10GuiElement9GetScaleXEv
 620              		.type	_ZN10GuiElement9GetScaleXEv, @function
 621              	_ZN10GuiElement9GetScaleXEv:
 622              	.LFB1504:
 623              		.loc 2 234 0
 624              		.cfi_startproc
 625              	.LVL52:
 626 0000 7C0802A6 		mflr 0
 627 0004 9421FFF0 		stwu 1,-16(1)
 628              	.LCFI7:
 629              		.cfi_def_cfa_offset 16
 630              		.cfi_register 65, 0
 631 0008 DBE10008 		stfd 31,8(1)
 632 000c 90010014 		stw 0,20(1)
 633              	.LBB3635:
 634              		.loc 2 238 0
 635 0010 81630060 		lwz 11,96(3)
 636              		.loc 2 236 0
 637 0014 C3E3003C 		lfs 31,60(3)
 638              		.cfi_offset 65, 4
 639              		.cfi_offset 63, -8
 640              		.loc 2 238 0
 641 0018 2F8B0000 		cmpwi 7,11,0
 642              		.loc 2 236 0
 643 001c C0030070 		lfs 0,112(3)
 644 0020 EFFF0032 		fmuls 31,31,0
 645              	.LVL53:
 646              		.loc 2 238 0
 647 0024 419E001C 		beq- 7,.L45
 648              		.loc 2 239 0
 649 0028 812B0000 		lwz 9,0(11)
 650 002c 7D635B78 		mr 3,11
 651              	.LVL54:
 652 0030 80090078 		lwz 0,120(9)
 653 0034 7C0903A6 		mtctr 0
 654 0038 4E800421 		bctrl
 655 003c EFFF0072 		fmuls 31,31,1
 656              	.LVL55:
 657              	.L45:
 658              	.LBE3635:
 659              		.loc 2 242 0
 660 0040 80010014 		lwz 0,20(1)
 661 0044 FC20F890 		fmr 1,31
 662 0048 CBE10008 		lfd 31,8(1)
 663              	.LVL56:
 664 004c 7C0803A6 		mtlr 0
 665 0050 38210010 		addi 1,1,16
 666              	.LCFI8:
 667              		.cfi_def_cfa_offset 0
 668              		.cfi_restore 63
 669 0054 4E800020 		blr
 670              		.cfi_endproc
 671              	.LFE1504:
 672              		.size	_ZN10GuiElement9GetScaleXEv, .-_ZN10GuiElement9GetScaleXEv
 673              		.section	.text._ZN10GuiElement9GetScaleYEv,"axG",@progbits,_ZN10GuiElement9GetScaleYEv,comdat
 674              		.align 2
 675              		.weak	_ZN10GuiElement9GetScaleYEv
 676              		.type	_ZN10GuiElement9GetScaleYEv, @function
 677              	_ZN10GuiElement9GetScaleYEv:
 678              	.LFB1505:
 679              		.loc 2 245 0
 680              		.cfi_startproc
 681              	.LVL57:
 682 0000 7C0802A6 		mflr 0
 683 0004 9421FFF0 		stwu 1,-16(1)
 684              	.LCFI9:
 685              		.cfi_def_cfa_offset 16
 686              		.cfi_register 65, 0
 687 0008 DBE10008 		stfd 31,8(1)
 688 000c 90010014 		stw 0,20(1)
 689              	.LBB3636:
 690              		.loc 2 249 0
 691 0010 81630060 		lwz 11,96(3)
 692              		.loc 2 247 0
 693 0014 C3E30040 		lfs 31,64(3)
 694              		.cfi_offset 65, 4
 695              		.cfi_offset 63, -8
 696              		.loc 2 249 0
 697 0018 2F8B0000 		cmpwi 7,11,0
 698              		.loc 2 247 0
 699 001c C0030070 		lfs 0,112(3)
 700 0020 EFFF0032 		fmuls 31,31,0
 701              	.LVL58:
 702              		.loc 2 249 0
 703 0024 419E001C 		beq- 7,.L47
 704              		.loc 2 250 0
 705 0028 812B0000 		lwz 9,0(11)
 706 002c 7D635B78 		mr 3,11
 707              	.LVL59:
 708 0030 8009007C 		lwz 0,124(9)
 709 0034 7C0903A6 		mtctr 0
 710 0038 4E800421 		bctrl
 711 003c EFFF0072 		fmuls 31,31,1
 712              	.LVL60:
 713              	.L47:
 714              	.LBE3636:
 715              		.loc 2 253 0
 716 0040 80010014 		lwz 0,20(1)
 717 0044 FC20F890 		fmr 1,31
 718 0048 CBE10008 		lfd 31,8(1)
 719              	.LVL61:
 720 004c 7C0803A6 		mtlr 0
 721 0050 38210010 		addi 1,1,16
 722              	.LCFI10:
 723              		.cfi_def_cfa_offset 0
 724              		.cfi_restore 63
 725 0054 4E800020 		blr
 726              		.cfi_endproc
 727              	.LFE1505:
 728              		.size	_ZN10GuiElement9GetScaleYEv, .-_ZN10GuiElement9GetScaleYEv
 729              		.section	.text._ZN10GuiElement6RumbleEv,"axG",@progbits,_ZN10GuiElement6RumbleEv,comdat
 730              		.align 2
 731              		.weak	_ZN10GuiElement6RumbleEv
 732              		.type	_ZN10GuiElement6RumbleEv, @function
 733              	_ZN10GuiElement6RumbleEv:
 734              	.LFB1506:
 735              		.loc 2 256 0
 736              		.cfi_startproc
 737              	.LVL62:
 738              		.loc 2 256 0
 739 0000 8863001C 		lbz 3,28(3)
 740              	.LVL63:
 741 0004 4E800020 		blr
 742              		.cfi_endproc
 743              	.LFE1506:
 744              		.size	_ZN10GuiElement6RumbleEv, .-_ZN10GuiElement6RumbleEv
 745              		.section	.text._ZN10GuiElement9SetRumbleEb,"axG",@progbits,_ZN10GuiElement9SetRumbleEb,comdat
 746              		.align 2
 747              		.weak	_ZN10GuiElement9SetRumbleEb
 748              		.type	_ZN10GuiElement9SetRumbleEb, @function
 749              	_ZN10GuiElement9SetRumbleEb:
 750              	.LFB1507:
 751              		.loc 2 259 0
 752              		.cfi_startproc
 753              	.LVL64:
 754              		.loc 2 259 0
 755 0000 9883001C 		stb 4,28(3)
 756 0004 4E800020 		blr
 757              		.cfi_endproc
 758              	.LFE1507:
 759              		.size	_ZN10GuiElement9SetRumbleEb, .-_ZN10GuiElement9SetRumbleEb
 760              		.section	.text._ZN10GuiElement13SetEffectGrowEv,"axG",@progbits,_ZN10GuiElement13SetEffectGrowEv,c
 761              		.align 2
 762              		.weak	_ZN10GuiElement13SetEffectGrowEv
 763              		.type	_ZN10GuiElement13SetEffectGrowEv, @function
 764              	_ZN10GuiElement13SetEffectGrowEv:
 765              	.LFB1508:
 766              		.loc 2 271 0
 767              		.cfi_startproc
 768              	.LVL65:
 769 0000 7C0802A6 		mflr 0
 770 0004 9421FFF8 		stwu 1,-8(1)
 771              	.LCFI11:
 772              		.cfi_def_cfa_offset 8
 773              		.cfi_register 65, 0
 774 0008 81230000 		lwz 9,0(3)
 775 000c 38800100 		li 4,256
 776 0010 38A00004 		li 5,4
 777 0014 38C0006E 		li 6,110
 778 0018 9001000C 		stw 0,12(1)
 779              		.loc 2 271 0
 780 001c 8009008C 		lwz 0,140(9)
 781              		.cfi_offset 65, 4
 782 0020 7C0903A6 		mtctr 0
 783 0024 4E800421 		bctrl
 784              	.LVL66:
 785 0028 8001000C 		lwz 0,12(1)
 786 002c 38210008 		addi 1,1,8
 787              	.LCFI12:
 788              		.cfi_def_cfa_offset 0
 789 0030 7C0803A6 		mtlr 0
 790 0034 4E800020 		blr
 791              		.cfi_endproc
 792              	.LFE1508:
 793              		.size	_ZN10GuiElement13SetEffectGrowEv, .-_ZN10GuiElement13SetEffectGrowEv
 794              		.section	.text._ZNK10GuiElement9GetEffectEv,"axG",@progbits,_ZNK10GuiElement9GetEffectEv,comdat
 795              		.align 2
 796              		.weak	_ZNK10GuiElement9GetEffectEv
 797              		.type	_ZNK10GuiElement9GetEffectEv, @function
 798              	_ZNK10GuiElement9GetEffectEv:
 799              	.LFB1509:
 800              		.loc 2 276 0
 801              		.cfi_startproc
 802              	.LVL67:
 803              		.loc 2 276 0
 804 0000 80630078 		lwz 3,120(3)
 805              	.LVL68:
 806 0004 4E800020 		blr
 807              		.cfi_endproc
 808              	.LFE1509:
 809              		.size	_ZNK10GuiElement9GetEffectEv, .-_ZNK10GuiElement9GetEffectEv
 810              		.section	.text._ZNK10GuiElement10IsAnimatedEv,"axG",@progbits,_ZNK10GuiElement10IsAnimatedEv,comda
 811              		.align 2
 812              		.weak	_ZNK10GuiElement10IsAnimatedEv
 813              		.type	_ZNK10GuiElement10IsAnimatedEv, @function
 814              	_ZNK10GuiElement10IsAnimatedEv:
 815              	.LFB1510:
 816              		.loc 2 278 0
 817              		.cfi_startproc
 818              	.LVL69:
 819 0000 7C0802A6 		mflr 0
 820 0004 9421FFF8 		stwu 1,-8(1)
 821              	.LCFI13:
 822              		.cfi_def_cfa_offset 8
 823              		.cfi_register 65, 0
 824 0008 9001000C 		stw 0,12(1)
 825              		.loc 2 278 0
 826 000c 81230000 		lwz 9,0(3)
 827 0010 80090098 		lwz 0,152(9)
 828              		.cfi_offset 65, 4
 829 0014 7C0903A6 		mtctr 0
 830 0018 4E800421 		bctrl
 831              	.LVL70:
 832 001c 7C60FE70 		srawi 0,3,31
 833 0020 7C630050 		subf 3,3,0
 834 0024 8001000C 		lwz 0,12(1)
 835 0028 54630FFE 		srwi 3,3,31
 836 002c 7C0803A6 		mtlr 0
 837 0030 38210008 		addi 1,1,8
 838              	.LCFI14:
 839              		.cfi_def_cfa_offset 0
 840 0034 4E800020 		blr
 841              		.cfi_endproc
 842              	.LFE1510:
 843              		.size	_ZNK10GuiElement10IsAnimatedEv, .-_ZNK10GuiElement10IsAnimatedEv
 844              		.section	.text._ZN10GuiElement8IsInsideEii,"axG",@progbits,_ZN10GuiElement8IsInsideEii,comdat
 845              		.align 2
 846              		.weak	_ZN10GuiElement8IsInsideEii
 847              		.type	_ZN10GuiElement8IsInsideEii, @function
 848              	_ZN10GuiElement8IsInsideEii:
 849              	.LFB1512:
 850              		.loc 2 285 0
 851              		.cfi_startproc
 852              	.LVL71:
 853 0000 7C0802A6 		mflr 0
 854 0004 9421FFE8 		stwu 1,-24(1)
 855              	.LCFI15:
 856              		.cfi_def_cfa_offset 24
 857              		.cfi_register 65, 0
 858 0008 93810008 		stw 28,8(1)
 859 000c 7CBC2B78 		mr 28,5
 860              		.cfi_offset 28, -16
 861 0010 9001001C 		stw 0,28(1)
 862 0014 93A1000C 		stw 29,12(1)
 863              		.loc 2 290 0
 864 0018 3BA00000 		li 29,0
 865              		.cfi_offset 29, -12
 866              		.cfi_offset 65, 4
 867              		.loc 2 287 0
 868 001c 81230000 		lwz 9,0(3)
 869              		.loc 2 285 0
 870 0020 93C10010 		stw 30,16(1)
 871 0024 7C9E2378 		mr 30,4
 872              		.cfi_offset 30, -8
 873              		.loc 2 287 0
 874 0028 80090010 		lwz 0,16(9)
 875              		.loc 2 285 0
 876 002c 93E10014 		stw 31,20(1)
 877              		.loc 2 285 0
 878 0030 7C7F1B78 		mr 31,3
 879              		.cfi_offset 31, -4
 880              		.loc 2 287 0
 881 0034 7C0903A6 		mtctr 0
 882 0038 4E800421 		bctrl
 883              	.LVL72:
 884              		.loc 2 290 0
 885 003c 7F83F000 		cmpw 7,3,30
 886 0040 419C0028 		blt- 7,.L58
 887              	.L54:
 888              		.loc 2 291 0 discriminator 6
 889 0044 8001001C 		lwz 0,28(1)
 890 0048 7FA3EB78 		mr 3,29
 891 004c 83810008 		lwz 28,8(1)
 892              	.LVL73:
 893 0050 7C0803A6 		mtlr 0
 894 0054 83A1000C 		lwz 29,12(1)
 895 0058 83C10010 		lwz 30,16(1)
 896              	.LVL74:
 897 005c 83E10014 		lwz 31,20(1)
 898              	.LVL75:
 899 0060 38210018 		addi 1,1,24
 900              		.cfi_remember_state
 901              	.LCFI16:
 902              		.cfi_def_cfa_offset 0
 903              		.cfi_restore 31
 904              		.cfi_restore 30
 905              		.cfi_restore 29
 906              		.cfi_restore 28
 907 0064 4E800020 		blr
 908              	.LVL76:
 909              	.L58:
 910              	.LCFI17:
 911              		.cfi_restore_state
 912              		.loc 2 288 0 discriminator 1
 913 0068 813F0000 		lwz 9,0(31)
 914 006c 7FE3FB78 		mr 3,31
 915 0070 80090010 		lwz 0,16(9)
 916 0074 7C0903A6 		mtctr 0
 917 0078 4E800421 		bctrl
 918              		.loc 2 290 0 discriminator 1
 919 007c 801F0024 		lwz 0,36(31)
 920 0080 7C030214 		add 0,3,0
 921 0084 7F9E0000 		cmpw 7,30,0
 922 0088 409CFFBC 		bge+ 7,.L54
 923              		.loc 2 289 0 discriminator 3
 924 008c 813F0000 		lwz 9,0(31)
 925 0090 7FE3FB78 		mr 3,31
 926 0094 80090014 		lwz 0,20(9)
 927 0098 7C0903A6 		mtctr 0
 928 009c 4E800421 		bctrl
 929              		.loc 2 290 0 discriminator 3
 930 00a0 7F83E000 		cmpw 7,3,28
 931 00a4 409CFFA0 		bge+ 7,.L54
 932              		.loc 2 290 0 is_stmt 0 discriminator 4
 933 00a8 813F0000 		lwz 9,0(31)
 934 00ac 7FE3FB78 		mr 3,31
 935 00b0 80090014 		lwz 0,20(9)
 936 00b4 7C0903A6 		mtctr 0
 937 00b8 4E800421 		bctrl
 938 00bc 801F0028 		lwz 0,40(31)
 939 00c0 7C030214 		add 0,3,0
 940              		.loc 2 285 0 is_stmt 1 discriminator 4
 941 00c4 7F9C0000 		cmpw 7,28,0
 942 00c8 7FA00026 		mfcr 29
 943 00cc 57BDEFFE 		rlwinm 29,29,29,1
 944 00d0 4BFFFF74 		b .L54
 945              		.cfi_endproc
 946              	.LFE1512:
 947              		.size	_ZN10GuiElement8IsInsideEii, .-_ZN10GuiElement8IsInsideEii
 948              		.section	.text._ZN10GuiElement11SetPositionEii,"axG",@progbits,_ZN10GuiElement11SetPositionEii,com
 949              		.align 2
 950              		.weak	_ZN10GuiElement11SetPositionEii
 951              		.type	_ZN10GuiElement11SetPositionEii, @function
 952              	_ZN10GuiElement11SetPositionEii:
 953              	.LFB1513:
 954              		.loc 2 295 0
 955              		.cfi_startproc
 956              	.LVL77:
 957              		.loc 2 297 0
 958 0000 9083002C 		stw 4,44(3)
 959              		.loc 2 299 0
 960              		.loc 2 298 0
 961 0004 90A30030 		stw 5,48(3)
 962              		.loc 2 299 0
 963 0008 4E800020 		blr
 964              		.cfi_endproc
 965              	.LFE1513:
 966              		.size	_ZN10GuiElement11SetPositionEii, .-_ZN10GuiElement11SetPositionEii
 967              		.section	.text._ZN10GuiElement11SetPositionEiii,"axG",@progbits,_ZN10GuiElement11SetPositionEiii,c
 968              		.align 2
 969              		.weak	_ZN10GuiElement11SetPositionEiii
 970              		.type	_ZN10GuiElement11SetPositionEiii, @function
 971              	_ZN10GuiElement11SetPositionEiii:
 972              	.LFB1514:
 973              		.loc 2 304 0
 974              		.cfi_startproc
 975              	.LVL78:
 976              		.loc 2 306 0
 977 0000 9083002C 		stw 4,44(3)
 978              		.loc 2 309 0
 979              		.loc 2 307 0
 980 0004 90A30030 		stw 5,48(3)
 981              		.loc 2 308 0
 982 0008 90C30034 		stw 6,52(3)
 983              		.loc 2 309 0
 984 000c 4E800020 		blr
 985              		.cfi_endproc
 986              	.LFE1514:
 987              		.size	_ZN10GuiElement11SetPositionEiii, .-_ZN10GuiElement11SetPositionEiii
 988              		.section	.text._ZN10GuiElement12SetAlignmentEi,"axG",@progbits,_ZN10GuiElement12SetAlignmentEi,com
 989              		.align 2
 990              		.weak	_ZN10GuiElement12SetAlignmentEi
 991              		.type	_ZN10GuiElement12SetAlignmentEi, @function
 992              	_ZN10GuiElement12SetAlignmentEi:
 993              	.LFB1516:
 994              		.loc 2 316 0
 995              		.cfi_startproc
 996              	.LVL79:
 997              		.loc 2 316 0
 998 0000 90830044 		stw 4,68(3)
 999 0004 4E800020 		blr
 1000              		.cfi_endproc
 1001              	.LFE1516:
 1002              		.size	_ZN10GuiElement12SetAlignmentEi, .-_ZN10GuiElement12SetAlignmentEi
 1003              		.section	.text._ZNK10GuiElement12GetAlignmentEv,"axG",@progbits,_ZNK10GuiElement12GetAlignmentEv,c
 1004              		.align 2
 1005              		.weak	_ZNK10GuiElement12GetAlignmentEv
 1006              		.type	_ZNK10GuiElement12GetAlignmentEv, @function
 1007              	_ZNK10GuiElement12GetAlignmentEv:
 1008              	.LFB1517:
 1009              		.loc 2 318 0
 1010              		.cfi_startproc
 1011              	.LVL80:
 1012              		.loc 2 318 0
 1013 0000 80630044 		lwz 3,68(3)
 1014              	.LVL81:
 1015 0004 4E800020 		blr
 1016              		.cfi_endproc
 1017              	.LFE1517:
 1018              		.size	_ZNK10GuiElement12GetAlignmentEv, .-_ZNK10GuiElement12GetAlignmentEv
 1019              		.section	.text._ZN8GuiFrame4showEv,"axG",@progbits,_ZN8GuiFrame4showEv,comdat
 1020              		.align 2
 1021              		.weak	_ZN8GuiFrame4showEv
 1022              		.type	_ZN8GuiFrame4showEv, @function
 1023              	_ZN8GuiFrame4showEv:
 1024              	.LFB1542:
 1025              		.file 3 "d:/Projects/SaveGameManager/savegame-manager-gx/trunk/source/GUI/gui_frame.h"
 1026              		.loc 3 79 0
 1027              		.cfi_startproc
 1028              	.LVL82:
 1029              		.loc 3 79 0
 1030 0000 4E800020 		blr
 1031              		.cfi_endproc
 1032              	.LFE1542:
 1033              		.size	_ZN8GuiFrame4showEv, .-_ZN8GuiFrame4showEv
 1034              		.section	.text._ZN8GuiFrame4hideEv,"axG",@progbits,_ZN8GuiFrame4hideEv,comdat
 1035              		.align 2
 1036              		.weak	_ZN8GuiFrame4hideEv
 1037              		.type	_ZN8GuiFrame4hideEv, @function
 1038              	_ZN8GuiFrame4hideEv:
 1039              	.LFB1543:
 1040              		.loc 3 81 0
 1041              		.cfi_startproc
 1042              	.LVL83:
 1043              		.loc 3 81 0
 1044 0000 4E800020 		blr
 1045              		.cfi_endproc
 1046              	.LFE1543:
 1047              		.size	_ZN8GuiFrame4hideEv, .-_ZN8GuiFrame4hideEv
 1048              		.section	.text._ZN8GuiFrame4execEv,"axG",@progbits,_ZN8GuiFrame4execEv,comdat
 1049              		.align 2
 1050              		.weak	_ZN8GuiFrame4execEv
 1051              		.type	_ZN8GuiFrame4execEv, @function
 1052              	_ZN8GuiFrame4execEv:
 1053              	.LFB1544:
 1054              		.loc 3 83 0
 1055              		.cfi_startproc
 1056              	.LVL84:
 1057              		.loc 3 83 0
 1058 0000 4E800020 		blr
 1059              		.cfi_endproc
 1060              	.LFE1544:
 1061              		.size	_ZN8GuiFrame4execEv, .-_ZN8GuiFrame4execEv
 1062              		.section	.text._ZN8GuiFrame12updateEventsEv,"axG",@progbits,_ZN8GuiFrame12updateEventsEv,comdat
 1063              		.align 2
 1064              		.weak	_ZN8GuiFrame12updateEventsEv
 1065              		.type	_ZN8GuiFrame12updateEventsEv, @function
 1066              	_ZN8GuiFrame12updateEventsEv:
 1067              	.LFB1545:
 1068              		.loc 3 85 0
 1069              		.cfi_startproc
 1070              	.LVL85:
 1071              		.loc 3 85 0
 1072 0000 4E800020 		blr
 1073              		.cfi_endproc
 1074              	.LFE1545:
 1075              		.size	_ZN8GuiFrame12updateEventsEv, .-_ZN8GuiFrame12updateEventsEv
 1076              		.section	".text"
 1077              		.align 2
 1078              		.globl _ZN14GuiArrowOption13OnButtonClickEP9GuiButtoniRK6_POINT
 1079              		.type	_ZN14GuiArrowOption13OnButtonClickEP9GuiButtoniRK6_POINT, @function
 1080              	_ZN14GuiArrowOption13OnButtonClickEP9GuiButtoniRK6_POINT:
 1081              	.LFB1578:
 1082              		.file 4 "d:/Projects/SaveGameManager/savegame-manager-gx/trunk/source/GUI/gui_arrowoption.cpp"
 1083              		.loc 4 166 0
 1084              		.cfi_startproc
 1085              		.cfi_personality 0,__gxx_personality_v0
 1086              		.cfi_lsda 0,.LLSDA1578
 1087              	.LVL86:
 1088 0000 7C0802A6 		mflr 0
 1089 0004 9421FFD8 		stwu 1,-40(1)
 1090              	.LCFI18:
 1091              		.cfi_def_cfa_offset 40
 1092              		.cfi_register 65, 0
 1093 0008 9321000C 		stw 25,12(1)
 1094              	.LBB3652:
 1095              	.LBB3653:
 1096              		.loc 1 2338 0
 1097 000c 3B2300E4 		addi 25,3,228
 1098              		.cfi_offset 25, -28
 1099              	.LBE3653:
 1100              	.LBE3652:
 1101              		.loc 4 166 0
 1102 0010 9001002C 		stw 0,44(1)
 1103 0014 93410010 		stw 26,16(1)
 1104 0018 7C7A1B78 		mr 26,3
 1105              		.cfi_offset 26, -24
 1106              		.cfi_offset 65, 4
 1107              	.LVL87:
 1108              	.LBB3676:
 1109              	.LBB3670:
 1110              	.LBB3654:
 1111              	.LBB3655:
 1112              		.loc 1 338 0
 1113 001c 812300E4 		lwz 9,228(3)
 1114 0020 7F23CB78 		mr 3,25
 1115              	.LVL88:
 1116              	.LBE3655:
 1117              	.LBE3654:
 1118              	.LBE3670:
 1119              	.LBE3676:
 1120              		.loc 4 166 0
 1121 0024 93610014 		stw 27,20(1)
 1122 0028 7C9B2378 		mr 27,4
 1123              		.cfi_offset 27, -20
 1124              	.LVL89:
 1125              	.LBB3677:
 1126              	.LBB3671:
 1127              	.LBB3659:
 1128              	.LBB3656:
 1129              		.loc 1 338 0
 1130 002c 80090008 		lwz 0,8(9)
 1131              	.LBE3656:
 1132              	.LBE3659:
 1133              	.LBE3671:
 1134              	.LBE3677:
 1135              		.loc 4 166 0
 1136 0030 93810018 		stw 28,24(1)
 1137 0034 7CBC2B78 		mr 28,5
 1138              		.cfi_offset 28, -16
 1139              	.LVL90:
 1140 0038 93A1001C 		stw 29,28(1)
 1141              	.LBB3678:
 1142              	.LBB3672:
 1143              	.LBB3660:
 1144              	.LBB3657:
 1145              		.loc 1 338 0
 1146 003c 7C0903A6 		mtctr 0
 1147              	.LBE3657:
 1148              	.LBE3660:
 1149              	.LBE3672:
 1150              	.LBE3678:
 1151              		.loc 4 166 0
 1152 0040 93C10020 		stw 30,32(1)
 1153              	.LBB3679:
 1154              		.loc 4 226 0
 1155 0044 7F5ED378 		mr 30,26
 1156              		.cfi_offset 30, -8
 1157              		.cfi_offset 29, -12
 1158              	.LBE3679:
 1159              		.loc 4 166 0
 1160 0048 93E10024 		stw 31,36(1)
 1161              		.loc 4 166 0
 1162 004c 7CDD3378 		mr 29,6
 1163              	.LVL91:
 1164              	.LEHB0:
 1165              	.LBB3680:
 1166              	.LBB3673:
 1167              	.LBB3661:
 1168              	.LBB3658:
 1169              		.loc 1 338 0
 1170              		.cfi_offset 31, -4
 1171 0050 4E800421 		bctrl
 1172              	.LEHE0:
 1173              	.LVL92:
 1174              	.LBE3658:
 1175              	.LBE3661:
 1176              	.LBE3673:
 1177              		.loc 4 226 0
 1178 0054 87FE00E8 		lwzu 31,232(30)
 1179              	.LVL93:
 1180              	.LBB3674:
 1181              		.loc 1 2342 0
 1182 0058 7F9FF000 		cmpw 7,31,30
 1183 005c 419E0030 		beq- 7,.L68
 1184              	.LVL94:
 1185              	.L75:
 1186              		.loc 1 2347 0
 1187 0060 807F0008 		lwz 3,8(31)
 1188 0064 7F64DB78 		mr 4,27
 1189 0068 7F85E378 		mr 5,28
 1190 006c 7FA6EB78 		mr 6,29
 1191 0070 81230000 		lwz 9,0(3)
 1192              	.LBB3662:
 1193              	.LBB3663:
 1194              		.file 5 "d:\\devkitpro\\devkitppc\\bin\\../lib/gcc/powerpc-eabi/4.6.3/../../../../powerpc-eabi/inc
 1195              		.loc 5 234 0
 1196 0074 83FF0000 		lwz 31,0(31)
 1197              	.LVL95:
 1198              	.LBE3663:
 1199              	.LBE3662:
 1200              		.loc 1 2347 0
 1201 0078 8009000C 		lwz 0,12(9)
 1202 007c 7C0903A6 		mtctr 0
 1203              	.LEHB1:
 1204 0080 4E800421 		bctrl
 1205              	.LEHE1:
 1206              	.LVL96:
 1207              		.loc 1 2342 0
 1208 0084 7F9EF800 		cmpw 7,30,31
 1209 0088 409EFFD8 		bne+ 7,.L75
 1210              	.LVL97:
 1211              	.L68:
 1212              	.LBB3664:
 1213              	.LBB3665:
 1214              	.LBB3666:
 1215              		.loc 1 343 0
 1216 008c 813A00E4 		lwz 9,228(26)
 1217 0090 7F23CB78 		mr 3,25
 1218 0094 8009000C 		lwz 0,12(9)
 1219 0098 7C0903A6 		mtctr 0
 1220              	.LEHB2:
 1221 009c 4E800421 		bctrl
 1222              	.LEHE2:
 1223              	.LBE3666:
 1224              	.LBE3665:
 1225              	.LBE3664:
 1226              	.LBE3674:
 1227              	.LBE3680:
 1228              		.loc 4 168 0
 1229 00a0 8001002C 		lwz 0,44(1)
 1230 00a4 8321000C 		lwz 25,12(1)
 1231              	.LVL98:
 1232 00a8 7C0803A6 		mtlr 0
 1233 00ac 83410010 		lwz 26,16(1)
 1234              	.LVL99:
 1235 00b0 83610014 		lwz 27,20(1)
 1236              	.LVL100:
 1237 00b4 83810018 		lwz 28,24(1)
 1238              	.LVL101:
 1239 00b8 83A1001C 		lwz 29,28(1)
 1240              	.LVL102:
 1241 00bc 83C10020 		lwz 30,32(1)
 1242              	.LVL103:
 1243 00c0 83E10024 		lwz 31,36(1)
 1244              	.LVL104:
 1245 00c4 38210028 		addi 1,1,40
 1246              		.cfi_remember_state
 1247              	.LCFI19:
 1248              		.cfi_def_cfa_offset 0
 1249              		.cfi_restore 31
 1250              		.cfi_restore 30
 1251              		.cfi_restore 29
 1252              		.cfi_restore 28
 1253              		.cfi_restore 27
 1254              		.cfi_restore 26
 1255              		.cfi_restore 25
 1256 00c8 4E800020 		blr
 1257              	.LVL105:
 1258              	.L74:
 1259              	.LCFI20:
 1260              		.cfi_restore_state
 1261              	.LBB3681:
 1262              	.LBB3675:
 1263              	.LBB3667:
 1264              	.LBB3668:
 1265              	.LBB3669:
 1266              		.loc 1 343 0
 1267 00cc 813A00E4 		lwz 9,228(26)
 1268 00d0 7C7F1B78 		mr 31,3
 1269              	.LVL106:
 1270 00d4 7F23CB78 		mr 3,25
 1271 00d8 8009000C 		lwz 0,12(9)
 1272 00dc 7C0903A6 		mtctr 0
 1273 00e0 4E800421 		bctrl
 1274 00e4 7FE3FB78 		mr 3,31
 1275              	.LEHB3:
 1276 00e8 48000001 		bl _Unwind_Resume
 1277              	.LEHE3:
 1278              	.LBE3669:
 1279              	.LBE3668:
 1280              	.LBE3667:
 1281              	.LBE3675:
 1282              	.LBE3681:
 1283              		.cfi_endproc
 1284              	.LFE1578:
 1285              		.globl __gxx_personality_v0
 1286              		.section	.gcc_except_table,"a",@progbits
 1287              	.LLSDA1578:
 1288 0000 FF       		.byte	0xff
 1289 0001 FF       		.byte	0xff
 1290 0002 01       		.byte	0x1
 1291 0003 14       		.uleb128 .LLSDACSE1578-.LLSDACSB1578
 1292              	.LLSDACSB1578:
 1293 0004 50       		.uleb128 .LEHB0-.LFB1578
 1294 0005 04       		.uleb128 .LEHE0-.LEHB0
 1295 0006 00       		.uleb128 0
 1296 0007 00       		.uleb128 0
 1297 0008 8001     		.uleb128 .LEHB1-.LFB1578
 1298 000a 04       		.uleb128 .LEHE1-.LEHB1
 1299 000b CC01     		.uleb128 .L74-.LFB1578
 1300 000d 00       		.uleb128 0
 1301 000e 9C01     		.uleb128 .LEHB2-.LFB1578
 1302 0010 04       		.uleb128 .LEHE2-.LEHB2
 1303 0011 00       		.uleb128 0
 1304 0012 00       		.uleb128 0
 1305 0013 E801     		.uleb128 .LEHB3-.LFB1578
 1306 0015 04       		.uleb128 .LEHE3-.LEHB3
 1307 0016 00       		.uleb128 0
 1308 0017 00       		.uleb128 0
 1309              	.LLSDACSE1578:
 1310              		.section	".text"
 1311              		.size	_ZN14GuiArrowOption13OnButtonClickEP9GuiButtoniRK6_POINT, .-_ZN14GuiArrowOption13OnButtonCli
 1312              		.section	.text._ZN7sigslot12_signal_baseINS_15single_threadedEED2Ev,"axG",@progbits,_ZN7sigslot12_
 1313              		.align 2
 1314              		.weak	_ZN7sigslot12_signal_baseINS_15single_threadedEED2Ev
 1315              		.type	_ZN7sigslot12_signal_baseINS_15single_threadedEED2Ev, @function
 1316              	_ZN7sigslot12_signal_baseINS_15single_threadedEED2Ev:
 1317              	.LFB1671:
 1318              		.loc 1 466 0
 1319              		.cfi_startproc
 1320              	.LVL107:
 1321              	.LBB3682:
 1322              	.LBB3683:
 1323              	.LBB3684:
 1324              	.LBB3685:
 1325              		.loc 1 105 0
 1326 0000 3D200000 		lis 9,_ZTVN7sigslot15single_threadedE+8@ha
 1327              	.LBE3685:
 1328              	.LBE3684:
 1329              	.LBE3683:
 1330              	.LBE3682:
 1331              		.loc 1 466 0
 1332              	.LBB3689:
 1333              	.LBB3688:
 1334              	.LBB3687:
 1335              	.LBB3686:
 1336              		.loc 1 105 0
 1337 0004 38090008 		la 0,_ZTVN7sigslot15single_threadedE+8@l(9)
 1338 0008 90030000 		stw 0,0(3)
 1339              	.LBE3686:
 1340              	.LBE3687:
 1341              	.LBE3688:
 1342              	.LBE3689:
 1343              		.loc 1 466 0
 1344 000c 4E800020 		blr
 1345              		.cfi_endproc
 1346              	.LFE1671:
 1347              		.size	_ZN7sigslot12_signal_baseINS_15single_threadedEED2Ev, .-_ZN7sigslot12_signal_baseINS_15singl
 1348              		.section	.text._ZN7sigslot17_connection_base3IP9GuiButtoniRK6_POINTNS_15single_threadedEED2Ev,"axG
 1349              		.align 2
 1350              		.weak	_ZN7sigslot17_connection_base3IP9GuiButtoniRK6_POINTNS_15single_threadedEED2Ev
 1351              		.type	_ZN7sigslot17_connection_base3IP9GuiButtoniRK6_POINTNS_15single_threadedEED2Ev, @function
 1352              	_ZN7sigslot17_connection_base3IP9GuiButtoniRK6_POINTNS_15single_threadedEED2Ev:
 1353              	.LFB1884:
 1354              		.loc 1 387 0
 1355              		.cfi_startproc
 1356              	.LVL108:
 1357              	.LBB3690:
 1358              		.loc 1 387 0
 1359 0000 3D200000 		lis 9,_ZTVN7sigslot17_connection_base3IP9GuiButtoniRK6_POINTNS_15single_threadedEEE+8@ha
 1360              	.LBE3690:
 1361              	.LBB3691:
 1362 0004 38090008 		la 0,_ZTVN7sigslot17_connection_base3IP9GuiButtoniRK6_POINTNS_15single_threadedEEE+8@l(9)
 1363 0008 90030000 		stw 0,0(3)
 1364              	.LBE3691:
 1365 000c 4E800020 		blr
 1366              		.cfi_endproc
 1367              	.LFE1884:
 1368              		.size	_ZN7sigslot17_connection_base3IP9GuiButtoniRK6_POINTNS_15single_threadedEED2Ev, .-_ZN7sigslo
 1369              		.section	.text._ZN7sigslot12_connection3I14GuiArrowOptionP9GuiButtoniRK6_POINTNS_15single_threaded
 1370              		.align 2
 1371              		.weak	_ZN7sigslot12_connection3I14GuiArrowOptionP9GuiButtoniRK6_POINTNS_15single_threadedEED2Ev
 1372              		.type	_ZN7sigslot12_connection3I14GuiArrowOptionP9GuiButtoniRK6_POINTNS_15single_threadedEED2Ev, @
 1373              	_ZN7sigslot12_connection3I14GuiArrowOptionP9GuiButtoniRK6_POINTNS_15single_threadedEED2Ev:
 1374              	.LFB2284:
 1375              		.loc 1 1783 0
 1376              		.cfi_startproc
 1377              	.LVL109:
 1378              	.LBB3692:
 1379              	.LBB3693:
 1380              	.LBB3694:
 1381              	.LBB3695:
 1382              		.loc 1 387 0
 1383 0000 3D200000 		lis 9,_ZTVN7sigslot17_connection_base3IP9GuiButtoniRK6_POINTNS_15single_threadedEEE+8@ha
 1384              	.LBE3695:
 1385              	.LBE3694:
 1386              	.LBE3693:
 1387              	.LBE3692:
 1388              		.loc 1 1786 0
 1389              	.LBB3699:
 1390              	.LBB3698:
 1391              	.LBB3697:
 1392              	.LBB3696:
 1393              		.loc 1 387 0
 1394 0004 38090008 		la 0,_ZTVN7sigslot17_connection_base3IP9GuiButtoniRK6_POINTNS_15single_threadedEEE+8@l(9)
 1395 0008 90030000 		stw 0,0(3)
 1396              	.LBE3696:
 1397              	.LBE3697:
 1398              	.LBE3698:
 1399              	.LBE3699:
 1400              		.loc 1 1786 0
 1401 000c 4E800020 		blr
 1402              		.cfi_endproc
 1403              	.LFE2284:
 1404              		.size	_ZN7sigslot12_connection3I14GuiArrowOptionP9GuiButtoniRK6_POINTNS_15single_threadedEED2Ev, .
 1405              		.section	.text._ZNK7sigslot12_connection3I14GuiArrowOptionP9GuiButtoniRK6_POINTNS_15single_threade
 1406              		.align 2
 1407              		.weak	_ZNK7sigslot12_connection3I14GuiArrowOptionP9GuiButtoniRK6_POINTNS_15single_threadedEE7getde
 1408              		.type	_ZNK7sigslot12_connection3I14GuiArrowOptionP9GuiButtoniRK6_POINTNS_15single_threadedEE7getde
 1409              	_ZNK7sigslot12_connection3I14GuiArrowOptionP9GuiButtoniRK6_POINTNS_15single_threadedEE7getdestEv:
 1410              	.LFB2287:
 1411              		.loc 1 1804 0
 1412              		.cfi_startproc
 1413              	.LVL110:
 1414              		.loc 1 1806 0
 1415 0000 81230004 		lwz 9,4(3)
 1416 0004 38600000 		li 3,0
 1417              	.LVL111:
 1418 0008 2F890000 		cmpwi 7,9,0
 1419 000c 4D9E0020 		beqlr- 7
 1420              		.loc 1 1806 0 is_stmt 0 discriminator 1
 1421 0010 386900B0 		addi 3,9,176
 1422              		.loc 1 1807 0 is_stmt 1 discriminator 1
 1423 0014 4E800020 		blr
 1424              		.cfi_endproc
 1425              	.LFE2287:
 1426              		.size	_ZNK7sigslot12_connection3I14GuiArrowOptionP9GuiButtoniRK6_POINTNS_15single_threadedEE7getde
 1427              		.section	.text._ZN7sigslot12_connection3I14GuiArrowOptionP9GuiButtoniRK6_POINTNS_15single_threaded
 1428              		.align 2
 1429              		.weak	_ZN7sigslot12_connection3I14GuiArrowOptionP9GuiButtoniRK6_POINTNS_15single_threadedEE4emitES
 1430              		.type	_ZN7sigslot12_connection3I14GuiArrowOptionP9GuiButtoniRK6_POINTNS_15single_threadedEE4emitES
 1431              	_ZN7sigslot12_connection3I14GuiArrowOptionP9GuiButtoniRK6_POINTNS_15single_threadedEE4emitES3_iS6_:
 1432              	.LFB2288:
 1433              		.loc 1 1799 0
 1434              		.cfi_startproc
 1435              	.LVL112:
 1436 0000 7C0802A6 		mflr 0
 1437 0004 9421FFF8 		stwu 1,-8(1)
 1438              	.LCFI21:
 1439              		.cfi_def_cfa_offset 8
 1440              		.cfi_register 65, 0
 1441 0008 9001000C 		stw 0,12(1)
 1442              		.loc 1 1801 0
 1443 000c 80030008 		lwz 0,8(3)
 1444              		.cfi_offset 65, 4
 1445 0010 81630004 		lwz 11,4(3)
 1446 0014 70090001 		andi. 9,0,1
 1447 0018 8123000C 		lwz 9,12(3)
 1448 001c 40820020 		bne- 0,.L88
 1449 0020 7C0903A6 		mtctr 0
 1450 0024 7C6B4A14 		add 3,11,9
 1451              	.LVL113:
 1452 0028 4E800421 		bctrl
 1453              	.LVL114:
 1454              		.loc 1 1802 0
 1455 002c 8001000C 		lwz 0,12(1)
 1456 0030 38210008 		addi 1,1,8
 1457              		.cfi_remember_state
 1458              	.LCFI22:
 1459              		.cfi_def_cfa_offset 0
 1460 0034 7C0803A6 		mtlr 0
 1461 0038 4E800020 		blr
 1462              	.LVL115:
 1463              	.L88:
 1464              	.LCFI23:
 1465              		.cfi_restore_state
 1466              		.loc 1 1801 0 discriminator 1
 1467 003c 7D4B482E 		lwzx 10,11,9
 1468 0040 7C6B4A14 		add 3,11,9
 1469              	.LVL116:
 1470 0044 7D2A0214 		add 9,10,0
 1471 0048 8009FFFF 		lwz 0,-1(9)
 1472 004c 7C0903A6 		mtctr 0
 1473 0050 4E800421 		bctrl
 1474              	.LVL117:
 1475              		.loc 1 1802 0 discriminator 1
 1476 0054 8001000C 		lwz 0,12(1)
 1477 0058 38210008 		addi 1,1,8
 1478              	.LCFI24:
 1479              		.cfi_def_cfa_offset 0
 1480 005c 7C0803A6 		mtlr 0
 1481 0060 4E800020 		blr
 1482              		.cfi_endproc
 1483              	.LFE2288:
 1484              		.size	_ZN7sigslot12_connection3I14GuiArrowOptionP9GuiButtoniRK6_POINTNS_15single_threadedEE4emitES
 1485              		.section	.text._ZN7sigslot12_connection3I14GuiArrowOptionP9GuiButtoniRK6_POINTNS_15single_threaded
 1486              		.align 2
 1487              		.weak	_ZN7sigslot12_connection3I14GuiArrowOptionP9GuiButtoniRK6_POINTNS_15single_threadedEE9duplic
 1488              		.type	_ZN7sigslot12_connection3I14GuiArrowOptionP9GuiButtoniRK6_POINTNS_15single_threadedEE9duplic
 1489              	_ZN7sigslot12_connection3I14GuiArrowOptionP9GuiButtoniRK6_POINTNS_15single_threadedEE9duplicateEPNS
 1490              	.LFB2296:
 1491              		.loc 1 1794 0
 1492              		.cfi_startproc
 1493              	.LVL118:
 1494 0000 9421FFF0 		stwu 1,-16(1)
 1495              	.LCFI25:
 1496              		.cfi_def_cfa_offset 16
 1497 0004 7C0802A6 		mflr 0
 1498 0008 93C10008 		stw 30,8(1)
 1499 000c 7C9E2378 		mr 30,4
 1500              		.cfi_offset 30, -8
 1501              		.cfi_register 65, 0
 1502 0010 93E1000C 		stw 31,12(1)
 1503 0014 7C7F1B78 		mr 31,3
 1504              		.cfi_offset 31, -4
 1505              		.loc 1 1796 0
 1506 0018 38600010 		li 3,16
 1507              	.LVL119:
 1508              		.loc 1 1794 0
 1509 001c 90010014 		stw 0,20(1)
 1510              		.loc 1 1796 0
 1511              		.cfi_offset 65, 4
 1512 0020 48000001 		bl _Znwj
 1513              	.LVL120:
 1514 0024 2F9E0000 		cmpwi 7,30,0
 1515 0028 38000000 		li 0,0
 1516 002c 419E0008 		beq- 7,.L91
 1517              		.loc 1 1796 0 is_stmt 0 discriminator 1
 1518 0030 381EFF50 		addi 0,30,-176
 1519              	.L91:
 1520              	.LVL121:
 1521              		.loc 1 1796 0 discriminator 3
 1522 0034 817F0008 		lwz 11,8(31)
 1523              	.LVL122:
 1524              	.LBB3700:
 1525              	.LBB3701:
 1526              		.loc 1 1778 0 is_stmt 1 discriminator 3
 1527 0038 3D400000 		lis 10,_ZTVN7sigslot12_connection3I14GuiArrowOptionP9GuiButtoniRK6_POINTNS_15single_threadedEEE+8@
 1528              	.LBE3701:
 1529              	.LBE3700:
 1530              		.loc 1 1796 0 discriminator 3
 1531 003c 813F000C 		lwz 9,12(31)
 1532              	.LVL123:
 1533              	.LBB3704:
 1534              	.LBB3702:
 1535              		.loc 1 1778 0 discriminator 3
 1536 0040 394A0008 		la 10,_ZTVN7sigslot12_connection3I14GuiArrowOptionP9GuiButtoniRK6_POINTNS_15single_threadedEEE+8@l
 1537              		.loc 1 1780 0 discriminator 3
 1538 0044 91630008 		stw 11,8(3)
 1539 0048 9123000C 		stw 9,12(3)
 1540              		.loc 1 1779 0 discriminator 3
 1541 004c 90030004 		stw 0,4(3)
 1542              	.LBE3702:
 1543              	.LBE3704:
 1544              		.loc 1 1797 0 discriminator 3
 1545 0050 80010014 		lwz 0,20(1)
 1546              	.LVL124:
 1547 0054 83C10008 		lwz 30,8(1)
 1548              	.LVL125:
 1549 0058 7C0803A6 		mtlr 0
 1550 005c 83E1000C 		lwz 31,12(1)
 1551              	.LVL126:
 1552              	.LBB3705:
 1553              	.LBB3703:
 1554              		.loc 1 1778 0 discriminator 3
 1555 0060 91430000 		stw 10,0(3)
 1556              	.LBE3703:
 1557              	.LBE3705:
 1558              		.loc 1 1797 0 discriminator 3
 1559 0064 38210010 		addi 1,1,16
 1560              	.LCFI26:
 1561              		.cfi_def_cfa_offset 0
 1562              		.cfi_restore 31
 1563              		.cfi_restore 30
 1564 0068 4E800020 		blr
 1565              		.cfi_endproc
 1566              	.LFE2296:
 1567              		.size	_ZN7sigslot12_connection3I14GuiArrowOptionP9GuiButtoniRK6_POINTNS_15single_threadedEE9duplic
 1568              		.section	.text._ZN7sigslot12_connection3I14GuiArrowOptionP9GuiButtoniRK6_POINTNS_15single_threaded
 1569              		.align 2
 1570              		.weak	_ZN7sigslot12_connection3I14GuiArrowOptionP9GuiButtoniRK6_POINTNS_15single_threadedEE5cloneE
 1571              		.type	_ZN7sigslot12_connection3I14GuiArrowOptionP9GuiButtoniRK6_POINTNS_15single_threadedEE5cloneE
 1572              	_ZN7sigslot12_connection3I14GuiArrowOptionP9GuiButtoniRK6_POINTNS_15single_threadedEE5cloneEv:
 1573              	.LFB2289:
 1574              		.loc 1 1789 0
 1575              		.cfi_startproc
 1576              	.LVL127:
 1577 0000 9421FFF0 		stwu 1,-16(1)
 1578              	.LCFI27:
 1579              		.cfi_def_cfa_offset 16
 1580 0004 7C0802A6 		mflr 0
 1581 0008 93E1000C 		stw 31,12(1)
 1582 000c 7C7F1B78 		mr 31,3
 1583              		.cfi_offset 31, -4
 1584              		.cfi_register 65, 0
 1585              		.loc 1 1791 0
 1586 0010 38600010 		li 3,16
 1587              	.LVL128:
 1588              		.loc 1 1789 0
 1589 0014 90010014 		stw 0,20(1)
 1590              		.loc 1 1791 0
 1591              		.cfi_offset 65, 4
 1592 0018 48000001 		bl _Znwj
 1593              		.loc 4 226 0
 1594 001c 801F0004 		lwz 0,4(31)
 1595              	.LVL129:
 1596              	.LBB3706:
 1597              	.LBB3707:
 1598              		.loc 1 1767 0
 1599 0020 3D600000 		lis 11,_ZTVN7sigslot12_connection3I14GuiArrowOptionP9GuiButtoniRK6_POINTNS_15single_threadedEEE+8@
 1600 0024 396B0008 		la 11,_ZTVN7sigslot12_connection3I14GuiArrowOptionP9GuiButtoniRK6_POINTNS_15single_threadedEEE+8@l
 1601 0028 90030004 		stw 0,4(3)
 1602 002c 91630000 		stw 11,0(3)
 1603 0030 815F0008 		lwz 10,8(31)
 1604 0034 817F000C 		lwz 11,12(31)
 1605 0038 91430008 		stw 10,8(3)
 1606 003c 9163000C 		stw 11,12(3)
 1607              	.LBE3707:
 1608              	.LBE3706:
 1609              		.loc 1 1792 0
 1610 0040 80010014 		lwz 0,20(1)
 1611 0044 83E1000C 		lwz 31,12(1)
 1612              	.LVL130:
 1613 0048 7C0803A6 		mtlr 0
 1614 004c 38210010 		addi 1,1,16
 1615              	.LCFI28:
 1616              		.cfi_def_cfa_offset 0
 1617              		.cfi_restore 31
 1618 0050 4E800020 		blr
 1619              		.cfi_endproc
 1620              	.LFE2289:
 1621              		.size	_ZN7sigslot12_connection3I14GuiArrowOptionP9GuiButtoniRK6_POINTNS_15single_threadedEE5cloneE
 1622              		.section	.text._ZN7sigslot13_signal_base3IP10GuiElementiRK6_POINTNS_15single_threadedEE14slot_dupl
 1623              		.align 2
 1624              		.weak	_ZN7sigslot13_signal_base3IP10GuiElementiRK6_POINTNS_15single_threadedEE14slot_duplicateEPKN
 1625              		.type	_ZN7sigslot13_signal_base3IP10GuiElementiRK6_POINTNS_15single_threadedEE14slot_duplicateEPKN
 1626              	_ZN7sigslot13_signal_base3IP10GuiElementiRK6_POINTNS_15single_threadedEE14slot_duplicateEPKNS_9has_
 1627              	.LFB2298:
 1628              		.loc 1 926 0
 1629              		.cfi_startproc
 1630              		.cfi_personality 0,__gxx_personality_v0
 1631              		.cfi_lsda 0,.LLSDA2298
 1632              	.LVL131:
 1633 0000 7C0802A6 		mflr 0
 1634 0004 9421FFE0 		stwu 1,-32(1)
 1635              	.LCFI29:
 1636              		.cfi_def_cfa_offset 32
 1637              		.cfi_register 65, 0
 1638 0008 93410008 		stw 26,8(1)
 1639 000c 7CBA2B78 		mr 26,5
 1640              		.cfi_offset 26, -24
 1641 0010 90010024 		stw 0,36(1)
 1642 0014 9361000C 		stw 27,12(1)
 1643 0018 7C7B1B78 		mr 27,3
 1644              		.cfi_offset 27, -20
 1645              		.cfi_offset 65, 4
 1646              	.LVL132:
 1647              	.LBB3708:
 1648              	.LBB3709:
 1649              	.LBB3710:
 1650              		.loc 1 338 0
 1651 001c 81230000 		lwz 9,0(3)
 1652              	.LBE3710:
 1653              	.LBE3709:
 1654              	.LBE3708:
 1655              		.loc 1 926 0
 1656 0020 93A10014 		stw 29,20(1)
 1657 0024 7C9D2378 		mr 29,4
 1658              		.cfi_offset 29, -12
 1659              	.LBB3739:
 1660              	.LBB3715:
 1661              	.LBB3711:
 1662              		.loc 1 338 0
 1663 0028 80090008 		lwz 0,8(9)
 1664              	.LBE3711:
 1665              	.LBE3715:
 1666              	.LBE3739:
 1667              		.loc 1 926 0
 1668 002c 93C10018 		stw 30,24(1)
 1669              	.LBB3740:
 1670              	.LBB3716:
 1671              	.LBB3712:
 1672              		.loc 4 226 0
 1673 0030 7F7EDB78 		mr 30,27
 1674              		.cfi_offset 30, -8
 1675              	.LBE3712:
 1676              	.LBE3716:
 1677              	.LBE3740:
 1678              		.loc 1 926 0
 1679 0034 93E1001C 		stw 31,28(1)
 1680              	.LBB3741:
 1681              	.LBB3717:
 1682              	.LBB3713:
 1683              		.loc 1 338 0
 1684 0038 7C0903A6 		mtctr 0
 1685              	.LBE3713:
 1686              	.LBE3717:
 1687              	.LBE3741:
 1688              		.loc 1 926 0
 1689 003c 93810010 		stw 28,16(1)
 1690              	.LEHB4:
 1691              	.LBB3742:
 1692              	.LBB3718:
 1693              	.LBB3714:
 1694              		.loc 1 338 0
 1695              		.cfi_offset 28, -16
 1696              		.cfi_offset 31, -4
 1697 0040 4E800421 		bctrl
 1698              	.LEHE4:
 1699              	.LVL133:
 1700              		.loc 4 226 0
 1701 0044 87FE0004 		lwzu 31,4(30)
 1702              	.LVL134:
 1703              	.LBE3714:
 1704              	.LBE3718:
 1705              		.loc 1 932 0
 1706 0048 7F9FF000 		cmpw 7,31,30
 1707 004c 40BE0014 		bne+ 7,.L104
 1708 0050 48000070 		b .L95
 1709              	.LVL135:
 1710              	.L96:
 1711              	.LBB3719:
 1712              	.LBB3720:
 1713              		.loc 5 154 0
 1714 0054 83FF0000 		lwz 31,0(31)
 1715              	.LVL136:
 1716              	.LBE3720:
 1717              	.LBE3719:
 1718              		.loc 1 932 0
 1719 0058 7F9EF800 		cmpw 7,30,31
 1720 005c 419E0064 		beq- 7,.L95
 1721              	.LVL137:
 1722              	.L104:
 1723              		.loc 1 934 0
 1724 0060 807F0008 		lwz 3,8(31)
 1725 0064 81230000 		lwz 9,0(3)
 1726 0068 80090008 		lwz 0,8(9)
 1727 006c 7C0903A6 		mtctr 0
 1728              	.LEHB5:
 1729 0070 4E800421 		bctrl
 1730 0074 7F9D1800 		cmpw 7,29,3
 1731 0078 409EFFDC 		bne+ 7,.L96
 1732              	.LVL138:
 1733              		.loc 1 936 0
 1734 007c 807F0008 		lwz 3,8(31)
 1735 0080 7F44D378 		mr 4,26
 1736 0084 81230000 		lwz 9,0(3)
 1737 0088 80090014 		lwz 0,20(9)
 1738 008c 7C0903A6 		mtctr 0
 1739 0090 4E800421 		bctrl
 1740 0094 7C7C1B78 		mr 28,3
 1741              	.LVL139:
 1742              	.LBB3722:
 1743              	.LBB3723:
 1744              	.LBB3724:
 1745              	.LBB3725:
 1746              	.LBB3726:
 1747              	.LBB3727:
 1748              	.LBB3728:
 1749              	.LBB3729:
 1750              		.file 6 "d:\\devkitpro\\devkitppc\\bin\\../lib/gcc/powerpc-eabi/4.6.3/../../../../powerpc-eabi/inc
 1751              		.loc 6 92 0
 1752 0098 3860000C 		li 3,12
 1753 009c 48000001 		bl _Znwj
 1754              	.LEHE5:
 1755              	.LVL140:
 1756              	.LBE3729:
 1757              	.LBE3728:
 1758              	.LBE3727:
 1759              	.LBB3730:
 1760              	.LBB3731:
 1761              		.loc 6 108 0 discriminator 1
 1762 00a0 2F83FFF8 		cmpwi 7,3,-8
 1763 00a4 419E0008 		beq- 7,.L98
 1764              		.loc 6 108 0 is_stmt 0
 1765 00a8 93830008 		stw 28,8(3)
 1766              	.L98:
 1767              	.LVL141:
 1768              	.LBE3731:
 1769              	.LBE3730:
 1770              	.LBE3726:
 1771              	.LBE3725:
 1772              		.loc 5 1516 0 is_stmt 1
 1773 00ac 7FC4F378 		mr 4,30
 1774 00b0 48000001 		bl _ZNSt8__detail15_List_node_base7_M_hookEPS0_
 1775              	.LVL142:
 1776              	.LBE3724:
 1777              	.LBE3723:
 1778              	.LBE3722:
 1779              	.LBB3732:
 1780              	.LBB3721:
 1781              		.loc 5 154 0
 1782 00b4 83FF0000 		lwz 31,0(31)
 1783              	.LVL143:
 1784              	.LBE3721:
 1785              	.LBE3732:
 1786              		.loc 1 932 0
 1787 00b8 7F9EF800 		cmpw 7,30,31
 1788 00bc 409EFFA4 		bne+ 7,.L104
 1789              	.LVL144:
 1790              	.L95:
 1791              	.LBB3733:
 1792              	.LBB3734:
 1793              	.LBB3735:
 1794              		.loc 1 343 0
 1795 00c0 813B0000 		lwz 9,0(27)
 1796 00c4 7F63DB78 		mr 3,27
 1797 00c8 8009000C 		lwz 0,12(9)
 1798 00cc 7C0903A6 		mtctr 0
 1799              	.LEHB6:
 1800 00d0 4E800421 		bctrl
 1801              	.LEHE6:
 1802              	.LBE3735:
 1803              	.LBE3734:
 1804              	.LBE3733:
 1805              	.LBE3742:
 1806              		.loc 1 941 0
 1807 00d4 80010024 		lwz 0,36(1)
 1808 00d8 83410008 		lwz 26,8(1)
 1809              	.LVL145:
 1810 00dc 7C0803A6 		mtlr 0
 1811 00e0 8361000C 		lwz 27,12(1)
 1812              	.LVL146:
 1813 00e4 83810010 		lwz 28,16(1)
 1814 00e8 83A10014 		lwz 29,20(1)
 1815              	.LVL147:
 1816 00ec 83C10018 		lwz 30,24(1)
 1817              	.LVL148:
 1818 00f0 83E1001C 		lwz 31,28(1)
 1819              	.LVL149:
 1820 00f4 38210020 		addi 1,1,32
 1821              		.cfi_remember_state
 1822              	.LCFI30:
 1823              		.cfi_def_cfa_offset 0
 1824              		.cfi_restore 31
 1825              		.cfi_restore 30
 1826              		.cfi_restore 29
 1827              		.cfi_restore 28
 1828              		.cfi_restore 27
 1829              		.cfi_restore 26
 1830 00f8 4E800020 		blr
 1831              	.LVL150:
 1832              	.L103:
 1833              	.LCFI31:
 1834              		.cfi_restore_state
 1835              	.LBB3743:
 1836              	.LBB3736:
 1837              	.LBB3737:
 1838              	.LBB3738:
 1839              		.loc 1 343 0
 1840 00fc 813B0000 		lwz 9,0(27)
 1841 0100 7C7F1B78 		mr 31,3
 1842              	.LVL151:
 1843 0104 7F63DB78 		mr 3,27
 1844 0108 8009000C 		lwz 0,12(9)
 1845 010c 7C0903A6 		mtctr 0
 1846 0110 4E800421 		bctrl
 1847 0114 7FE3FB78 		mr 3,31
 1848              	.LEHB7:
 1849 0118 48000001 		bl _Unwind_Resume
 1850              	.LEHE7:
 1851              	.LBE3738:
 1852              	.LBE3737:
 1853              	.LBE3736:
 1854              	.LBE3743:
 1855              		.cfi_endproc
 1856              	.LFE2298:
 1857              		.section	.gcc_except_table
 1858              	.LLSDA2298:
 1859 0018 FF       		.byte	0xff
 1860 0019 FF       		.byte	0xff
 1861 001a 01       		.byte	0x1
 1862 001b 13       		.uleb128 .LLSDACSE2298-.LLSDACSB2298
 1863              	.LLSDACSB2298:
 1864 001c 40       		.uleb128 .LEHB4-.LFB2298
 1865 001d 04       		.uleb128 .LEHE4-.LEHB4
 1866 001e 00       		.uleb128 0
 1867 001f 00       		.uleb128 0
 1868 0020 70       		.uleb128 .LEHB5-.LFB2298
 1869 0021 30       		.uleb128 .LEHE5-.LEHB5
 1870 0022 FC01     		.uleb128 .L103-.LFB2298
 1871 0024 00       		.uleb128 0
 1872 0025 D001     		.uleb128 .LEHB6-.LFB2298
 1873 0027 04       		.uleb128 .LEHE6-.LEHB6
 1874 0028 00       		.uleb128 0
 1875 0029 00       		.uleb128 0
 1876 002a 9802     		.uleb128 .LEHB7-.LFB2298
 1877 002c 04       		.uleb128 .LEHE7-.LEHB7
 1878 002d 00       		.uleb128 0
 1879 002e 00       		.uleb128 0
 1880              	.LLSDACSE2298:
 1881              		.section	.text._ZN7sigslot13_signal_base3IP10GuiElementiRK6_POINTNS_15single_threadedEE14slot_dupl
 1882              		.size	_ZN7sigslot13_signal_base3IP10GuiElementiRK6_POINTNS_15single_threadedEE14slot_duplicateEPKN
 1883              		.section	.text._ZN7sigslot12_connection3I14GuiArrowOptionP9GuiButtoniRK6_POINTNS_15single_threaded
 1884              		.align 2
 1885              		.weak	_ZN7sigslot12_connection3I14GuiArrowOptionP9GuiButtoniRK6_POINTNS_15single_threadedEED0Ev
 1886              		.type	_ZN7sigslot12_connection3I14GuiArrowOptionP9GuiButtoniRK6_POINTNS_15single_threadedEED0Ev, @
 1887              	_ZN7sigslot12_connection3I14GuiArrowOptionP9GuiButtoniRK6_POINTNS_15single_threadedEED0Ev:
 1888              	.LFB2286:
 1889              		.loc 1 1783 0
 1890              		.cfi_startproc
 1891              	.LVL152:
 1892 0000 7C0802A6 		mflr 0
 1893 0004 9421FFF8 		stwu 1,-8(1)
 1894              	.LCFI32:
 1895              		.cfi_def_cfa_offset 8
 1896              		.cfi_register 65, 0
 1897              	.LBB3744:
 1898              	.LBB3745:
 1899              	.LBB3746:
 1900              	.LBB3747:
 1901              	.LBB3748:
 1902              	.LBB3749:
 1903              		.loc 1 387 0
 1904 0008 3D200000 		lis 9,_ZTVN7sigslot17_connection_base3IP9GuiButtoniRK6_POINTNS_15single_threadedEEE+8@ha
 1905              	.LBE3749:
 1906              	.LBE3748:
 1907              	.LBE3747:
 1908              	.LBE3746:
 1909              	.LBE3745:
 1910              	.LBE3744:
 1911              		.loc 1 1783 0
 1912 000c 9001000C 		stw 0,12(1)
 1913              	.LBB3755:
 1914              	.LBB3754:
 1915              	.LBB3753:
 1916              	.LBB3752:
 1917              	.LBB3751:
 1918              	.LBB3750:
 1919              		.loc 1 387 0
 1920 0010 38090008 		la 0,_ZTVN7sigslot17_connection_base3IP9GuiButtoniRK6_POINTNS_15single_threadedEEE+8@l(9)
 1921              		.cfi_offset 65, 4
 1922 0014 90030000 		stw 0,0(3)
 1923              	.LBE3750:
 1924              	.LBE3751:
 1925              	.LBE3752:
 1926              	.LBE3753:
 1927              	.LBE3754:
 1928              	.LBE3755:
 1929              		.loc 1 1786 0
 1930 0018 48000001 		bl _ZdlPv
 1931              	.LVL153:
 1932 001c 8001000C 		lwz 0,12(1)
 1933 0020 38210008 		addi 1,1,8
 1934              	.LCFI33:
 1935              		.cfi_def_cfa_offset 0
 1936 0024 7C0803A6 		mtlr 0
 1937 0028 4E800020 		blr
 1938              		.cfi_endproc
 1939              	.LFE2286:
 1940              		.size	_ZN7sigslot12_connection3I14GuiArrowOptionP9GuiButtoniRK6_POINTNS_15single_threadedEED0Ev, .
 1941              		.section	.text._ZN7sigslot17_connection_base3IP9GuiButtoniRK6_POINTNS_15single_threadedEED0Ev,"axG
 1942              		.align 2
 1943              		.weak	_ZN7sigslot17_connection_base3IP9GuiButtoniRK6_POINTNS_15single_threadedEED0Ev
 1944              		.type	_ZN7sigslot17_connection_base3IP9GuiButtoniRK6_POINTNS_15single_threadedEED0Ev, @function
 1945              	_ZN7sigslot17_connection_base3IP9GuiButtoniRK6_POINTNS_15single_threadedEED0Ev:
 1946              	.LFB1886:
 1947              		.loc 1 387 0
 1948              		.cfi_startproc
 1949              	.LVL154:
 1950 0000 7C0802A6 		mflr 0
 1951 0004 9421FFF8 		stwu 1,-8(1)
 1952              	.LCFI34:
 1953              		.cfi_def_cfa_offset 8
 1954              		.cfi_register 65, 0
 1955              	.LBB3756:
 1956              	.LBB3757:
 1957              	.LBB3758:
 1958 0008 3D200000 		lis 9,_ZTVN7sigslot17_connection_base3IP9GuiButtoniRK6_POINTNS_15single_threadedEEE+8@ha
 1959              	.LBE3758:
 1960              	.LBE3757:
 1961              	.LBE3756:
 1962 000c 9001000C 		stw 0,12(1)
 1963              	.LBB3761:
 1964              	.LBB3760:
 1965              	.LBB3759:
 1966              		.loc 1 387 0
 1967 0010 38090008 		la 0,_ZTVN7sigslot17_connection_base3IP9GuiButtoniRK6_POINTNS_15single_threadedEEE+8@l(9)
 1968              		.cfi_offset 65, 4
 1969 0014 90030000 		stw 0,0(3)
 1970              	.LBE3759:
 1971              	.LBE3760:
 1972              	.LBE3761:
 1973 0018 48000001 		bl _ZdlPv
 1974              	.LVL155:
 1975 001c 8001000C 		lwz 0,12(1)
 1976 0020 38210008 		addi 1,1,8
 1977              	.LCFI35:
 1978              		.cfi_def_cfa_offset 0
 1979 0024 7C0803A6 		mtlr 0
 1980 0028 4E800020 		blr
 1981              		.cfi_endproc
 1982              	.LFE1886:
 1983              		.size	_ZN7sigslot17_connection_base3IP9GuiButtoniRK6_POINTNS_15single_threadedEED0Ev, .-_ZN7sigslo
 1984              		.section	.text._ZN7sigslot12_signal_baseINS_15single_threadedEED0Ev,"axG",@progbits,_ZN7sigslot12_
 1985              		.align 2
 1986              		.weak	_ZN7sigslot12_signal_baseINS_15single_threadedEED0Ev
 1987              		.type	_ZN7sigslot12_signal_baseINS_15single_threadedEED0Ev, @function
 1988              	_ZN7sigslot12_signal_baseINS_15single_threadedEED0Ev:
 1989              	.LFB1673:
 1990              		.loc 1 466 0
 1991              		.cfi_startproc
 1992              	.LVL156:
 1993 0000 7C0802A6 		mflr 0
 1994 0004 9421FFF8 		stwu 1,-8(1)
 1995              	.LCFI36:
 1996              		.cfi_def_cfa_offset 8
 1997              		.cfi_register 65, 0
 1998              	.LBB3762:
 1999              	.LBB3763:
 2000              	.LBB3764:
 2001              	.LBB3765:
 2002              	.LBB3766:
 2003              	.LBB3767:
 2004              		.loc 1 105 0
 2005 0008 3D200000 		lis 9,_ZTVN7sigslot15single_threadedE+8@ha
 2006              	.LBE3767:
 2007              	.LBE3766:
 2008              	.LBE3765:
 2009              	.LBE3764:
 2010              	.LBE3763:
 2011              	.LBE3762:
 2012              		.loc 1 466 0
 2013 000c 9001000C 		stw 0,12(1)
 2014              	.LBB3773:
 2015              	.LBB3772:
 2016              	.LBB3771:
 2017              	.LBB3770:
 2018              	.LBB3769:
 2019              	.LBB3768:
 2020              		.loc 1 105 0
 2021 0010 38090008 		la 0,_ZTVN7sigslot15single_threadedE+8@l(9)
 2022              		.cfi_offset 65, 4
 2023 0014 90030000 		stw 0,0(3)
 2024              	.LBE3768:
 2025              	.LBE3769:
 2026              	.LBE3770:
 2027              	.LBE3771:
 2028              	.LBE3772:
 2029              	.LBE3773:
 2030              		.loc 1 466 0
 2031 0018 48000001 		bl _ZdlPv
 2032              	.LVL157:
 2033 001c 8001000C 		lwz 0,12(1)
 2034 0020 38210008 		addi 1,1,8
 2035              	.LCFI37:
 2036              		.cfi_def_cfa_offset 0
 2037 0024 7C0803A6 		mtlr 0
 2038 0028 4E800020 		blr
 2039              		.cfi_endproc
 2040              	.LFE1673:
 2041              		.size	_ZN7sigslot12_signal_baseINS_15single_threadedEED0Ev, .-_ZN7sigslot12_signal_baseINS_15singl
 2042              		.section	.text._ZN7sigslot15single_threadedD0Ev,"axG",@progbits,_ZN7sigslot15single_threadedD5Ev,c
 2043              		.align 2
 2044              		.weak	_ZN7sigslot15single_threadedD0Ev
 2045              		.type	_ZN7sigslot15single_threadedD0Ev, @function
 2046              	_ZN7sigslot15single_threadedD0Ev:
 2047              	.LFB1245:
 2048              		.loc 1 104 0
 2049              		.cfi_startproc
 2050              	.LVL158:
 2051 0000 7C0802A6 		mflr 0
 2052 0004 9421FFF8 		stwu 1,-8(1)
 2053              	.LCFI38:
 2054              		.cfi_def_cfa_offset 8
 2055              		.cfi_register 65, 0
 2056              	.LBB3774:
 2057              	.LBB3775:
 2058              	.LBB3776:
 2059              		.loc 1 105 0
 2060 0008 3D200000 		lis 9,_ZTVN7sigslot15single_threadedE+8@ha
 2061              	.LBE3776:
 2062              	.LBE3775:
 2063              	.LBE3774:
 2064              		.loc 1 104 0
 2065 000c 9001000C 		stw 0,12(1)
 2066              	.LBB3779:
 2067              	.LBB3778:
 2068              	.LBB3777:
 2069              		.loc 1 105 0
 2070 0010 38090008 		la 0,_ZTVN7sigslot15single_threadedE+8@l(9)
 2071              		.cfi_offset 65, 4
 2072 0014 90030000 		stw 0,0(3)
 2073              	.LBE3777:
 2074              	.LBE3778:
 2075              	.LBE3779:
 2076              		.loc 1 107 0
 2077 0018 48000001 		bl _ZdlPv
 2078              	.LVL159:
 2079 001c 8001000C 		lwz 0,12(1)
 2080 0020 38210008 		addi 1,1,8
 2081              	.LCFI39:
 2082              		.cfi_def_cfa_offset 0
 2083 0024 7C0803A6 		mtlr 0
 2084 0028 4E800020 		blr
 2085              		.cfi_endproc
 2086              	.LFE1245:
 2087              		.size	_ZN7sigslot15single_threadedD0Ev, .-_ZN7sigslot15single_threadedD0Ev
 2088              		.section	.text._ZN7sigslot13_signal_base3IP10GuiElementiRK6_POINTNS_15single_threadedEE15slot_disc
 2089              		.align 2
 2090              		.weak	_ZN7sigslot13_signal_base3IP10GuiElementiRK6_POINTNS_15single_threadedEE15slot_disconnectEPN
 2091              		.type	_ZN7sigslot13_signal_base3IP10GuiElementiRK6_POINTNS_15single_threadedEE15slot_disconnectEPN
 2092              	_ZN7sigslot13_signal_base3IP10GuiElementiRK6_POINTNS_15single_threadedEE15slot_disconnectEPNS_9has_
 2093              	.LFB2297:
 2094              		.loc 1 990 0
 2095              		.cfi_startproc
 2096              		.cfi_personality 0,__gxx_personality_v0
 2097              		.cfi_lsda 0,.LLSDA2297
 2098              	.LVL160:
 2099 0000 7C0802A6 		mflr 0
 2100 0004 9421FFE0 		stwu 1,-32(1)
 2101              	.LCFI40:
 2102              		.cfi_def_cfa_offset 32
 2103              		.cfi_register 65, 0
 2104 0008 9361000C 		stw 27,12(1)
 2105 000c 7C7B1B78 		mr 27,3
 2106              		.cfi_offset 27, -20
 2107              	.LVL161:
 2108 0010 90010024 		stw 0,36(1)
 2109 0014 93810010 		stw 28,16(1)
 2110 0018 7C9C2378 		mr 28,4
 2111              		.cfi_offset 28, -16
 2112              		.cfi_offset 65, 4
 2113              	.LBB3780:
 2114              	.LBB3781:
 2115              	.LBB3782:
 2116              		.loc 1 338 0
 2117 001c 81230000 		lwz 9,0(3)
 2118              	.LBE3782:
 2119              	.LBE3781:
 2120              	.LBE3780:
 2121              		.loc 1 990 0
 2122 0020 93A10014 		stw 29,20(1)
 2123              	.LBB3803:
 2124              	.LBB3785:
 2125              	.LBB3783:
 2126              		.loc 4 226 0
 2127 0024 7F7DDB78 		mr 29,27
 2128              		.cfi_offset 29, -12
 2129              		.loc 1 338 0
 2130 0028 80090008 		lwz 0,8(9)
 2131              	.LBE3783:
 2132              	.LBE3785:
 2133              	.LBE3803:
 2134              		.loc 1 990 0
 2135 002c 93E1001C 		stw 31,28(1)
 2136 0030 93C10018 		stw 30,24(1)
 2137              	.LBB3804:
 2138              	.LBB3786:
 2139              	.LBB3784:
 2140              		.loc 1 338 0
 2141 0034 7C0903A6 		mtctr 0
 2142              	.LEHB8:
 2143              		.cfi_offset 30, -8
 2144              		.cfi_offset 31, -4
 2145 0038 4E800421 		bctrl
 2146              	.LEHE8:
 2147              	.LVL162:
 2148              		.loc 4 226 0
 2149 003c 87FD0004 		lwzu 31,4(29)
 2150              	.LVL163:
 2151              	.LBE3784:
 2152              	.LBE3786:
 2153              		.loc 1 996 0
 2154 0040 7F9FE800 		cmpw 7,31,29
 2155 0044 40BE0014 		bne+ 7,.L132
 2156 0048 48000064 		b .L121
 2157              	.LVL164:
 2158              	.L122:
 2159              		.loc 1 996 0 is_stmt 0 discriminator 1
 2160 004c 7F9DF000 		cmpw 7,29,30
 2161 0050 419E005C 		beq- 7,.L121
 2162              	.L130:
 2163              		.loc 1 996 0
 2164 0054 7FDFF378 		mr 31,30
 2165              	.LVL165:
 2166              	.L132:
 2167              	.LBB3787:
 2168              		.loc 1 1001 0 is_stmt 1
 2169 0058 807F0008 		lwz 3,8(31)
 2170              	.LBB3788:
 2171              	.LBB3789:
 2172              		.loc 5 154 0
 2173 005c 83DF0000 		lwz 30,0(31)
 2174              	.LVL166:
 2175              	.LBE3789:
 2176              	.LBE3788:
 2177              		.loc 1 1001 0
 2178 0060 81230000 		lwz 9,0(3)
 2179 0064 80090008 		lwz 0,8(9)
 2180 0068 7C0903A6 		mtctr 0
 2181              	.LEHB9:
 2182 006c 4E800421 		bctrl
 2183              	.LVL167:
 2184 0070 7F9C1800 		cmpw 7,28,3
 2185 0074 409EFFD8 		bne+ 7,.L122
 2186              	.LVL168:
 2187              		.loc 1 1003 0
 2188 0078 807F0008 		lwz 3,8(31)
 2189 007c 2F830000 		cmpwi 7,3,0
 2190 0080 419E0014 		beq- 7,.L123
 2191              		.loc 1 1003 0 is_stmt 0 discriminator 1
 2192 0084 81230000 		lwz 9,0(3)
 2193 0088 80090004 		lwz 0,4(9)
 2194 008c 7C0903A6 		mtctr 0
 2195 0090 4E800421 		bctrl
 2196              	.LEHE9:
 2197              	.L123:
 2198              	.LVL169:
 2199              	.LBB3790:
 2200              	.LBB3791:
 2201              	.LBB3792:
 2202              	.LBB3793:
 2203              		.loc 5 1532 0 is_stmt 1
 2204 0094 7FE3FB78 		mr 3,31
 2205 0098 48000001 		bl _ZNSt8__detail15_List_node_base9_M_unhookEv
 2206              	.LVL170:
 2207              	.LBB3794:
 2208              	.LBB3795:
 2209              	.LBB3796:
 2210              		.loc 6 98 0
 2211 009c 7FE3FB78 		mr 3,31
 2212 00a0 48000001 		bl _ZdlPv
 2213              	.LVL171:
 2214              	.LBE3796:
 2215              	.LBE3795:
 2216              	.LBE3794:
 2217              	.LBE3793:
 2218              	.LBE3792:
 2219              	.LBE3791:
 2220              	.LBE3790:
 2221              	.LBE3787:
 2222              		.loc 1 996 0
 2223 00a4 7F9DF000 		cmpw 7,29,30
 2224 00a8 409EFFAC 		bne+ 7,.L130
 2225              	.LVL172:
 2226              	.L121:
 2227              	.LBB3797:
 2228              	.LBB3798:
 2229              	.LBB3799:
 2230              		.loc 1 343 0
 2231 00ac 813B0000 		lwz 9,0(27)
 2232 00b0 7F63DB78 		mr 3,27
 2233 00b4 8009000C 		lwz 0,12(9)
 2234 00b8 7C0903A6 		mtctr 0
 2235              	.LEHB10:
 2236 00bc 4E800421 		bctrl
 2237              	.LEHE10:
 2238              	.LBE3799:
 2239              	.LBE3798:
 2240              	.LBE3797:
 2241              	.LBE3804:
 2242              		.loc 1 1010 0
 2243 00c0 80010024 		lwz 0,36(1)
 2244 00c4 8361000C 		lwz 27,12(1)
 2245              	.LVL173:
 2246 00c8 7C0803A6 		mtlr 0
 2247 00cc 83810010 		lwz 28,16(1)
 2248              	.LVL174:
 2249 00d0 83A10014 		lwz 29,20(1)
 2250              	.LVL175:
 2251 00d4 83C10018 		lwz 30,24(1)
 2252 00d8 83E1001C 		lwz 31,28(1)
 2253 00dc 38210020 		addi 1,1,32
 2254              		.cfi_remember_state
 2255              	.LCFI41:
 2256              		.cfi_def_cfa_offset 0
 2257              		.cfi_restore 31
 2258              		.cfi_restore 30
 2259              		.cfi_restore 29
 2260              		.cfi_restore 28
 2261              		.cfi_restore 27
 2262 00e0 4E800020 		blr
 2263              	.LVL176:
 2264              	.L131:
 2265              	.LCFI42:
 2266              		.cfi_restore_state
 2267              	.LBB3805:
 2268              	.LBB3800:
 2269              	.LBB3801:
 2270              	.LBB3802:
 2271              		.loc 1 343 0
 2272 00e4 813B0000 		lwz 9,0(27)
 2273 00e8 7C7F1B78 		mr 31,3
 2274              	.LVL177:
 2275 00ec 7F63DB78 		mr 3,27
 2276 00f0 8009000C 		lwz 0,12(9)
 2277 00f4 7C0903A6 		mtctr 0
 2278 00f8 4E800421 		bctrl
 2279 00fc 7FE3FB78 		mr 3,31
 2280              	.LEHB11:
 2281 0100 48000001 		bl _Unwind_Resume
 2282              	.LEHE11:
 2283              	.LBE3802:
 2284              	.LBE3801:
 2285              	.LBE3800:
 2286              	.LBE3805:
 2287              		.cfi_endproc
 2288              	.LFE2297:
 2289              		.section	.gcc_except_table
 2290              	.LLSDA2297:
 2291 002f FF       		.byte	0xff
 2292 0030 FF       		.byte	0xff
 2293 0031 01       		.byte	0x1
 2294 0032 13       		.uleb128 .LLSDACSE2297-.LLSDACSB2297
 2295              	.LLSDACSB2297:
 2296 0033 38       		.uleb128 .LEHB8-.LFB2297
 2297 0034 04       		.uleb128 .LEHE8-.LEHB8
 2298 0035 00       		.uleb128 0
 2299 0036 00       		.uleb128 0
 2300 0037 6C       		.uleb128 .LEHB9-.LFB2297
 2301 0038 28       		.uleb128 .LEHE9-.LEHB9
 2302 0039 E401     		.uleb128 .L131-.LFB2297
 2303 003b 00       		.uleb128 0
 2304 003c BC01     		.uleb128 .LEHB10-.LFB2297
 2305 003e 04       		.uleb128 .LEHE10-.LEHB10
 2306 003f 00       		.uleb128 0
 2307 0040 00       		.uleb128 0
 2308 0041 8002     		.uleb128 .LEHB11-.LFB2297
 2309 0043 04       		.uleb128 .LEHE11-.LEHB11
 2310 0044 00       		.uleb128 0
 2311 0045 00       		.uleb128 0
 2312              	.LLSDACSE2297:
 2313              		.section	.text._ZN7sigslot13_signal_base3IP10GuiElementiRK6_POINTNS_15single_threadedEE15slot_disc
 2314              		.size	_ZN7sigslot13_signal_base3IP10GuiElementiRK6_POINTNS_15single_threadedEE15slot_disconnectEPN
 2315              		.section	.text._ZN16SimpleGuiTriggerD2Ev,"axG",@progbits,_ZN16SimpleGuiTriggerD5Ev,comdat
 2316              		.align 2
 2317              		.weak	_ZN16SimpleGuiTriggerD2Ev
 2318              		.type	_ZN16SimpleGuiTriggerD2Ev, @function
 2319              	_ZN16SimpleGuiTriggerD2Ev:
 2320              	.LFB1567:
 2321              		.file 7 "d:/Projects/SaveGameManager/savegame-manager-gx/trunk/source/GUI/gui_trigger.h"
 2322              		.loc 7 91 0
 2323              		.cfi_startproc
 2324              	.LVL178:
 2325 0000 7C0802A6 		mflr 0
 2326 0004 9421FFF8 		stwu 1,-8(1)
 2327              	.LCFI43:
 2328              		.cfi_def_cfa_offset 8
 2329              		.cfi_register 65, 0
 2330              	.LBB3807:
 2331 0008 3D200000 		lis 9,_ZTV16SimpleGuiTrigger+8@ha
 2332              	.LBE3807:
 2333 000c 9001000C 		stw 0,12(1)
 2334              	.LBB3808:
 2335              		.loc 7 91 0
 2336 0010 38090008 		la 0,_ZTV16SimpleGuiTrigger+8@l(9)
 2337              		.cfi_offset 65, 4
 2338 0014 90030000 		stw 0,0(3)
 2339 0018 48000001 		bl _ZN10GuiTriggerD2Ev
 2340              	.LVL179:
 2341              	.LBE3808:
 2342 001c 8001000C 		lwz 0,12(1)
 2343 0020 38210008 		addi 1,1,8
 2344              	.LCFI44:
 2345              		.cfi_def_cfa_offset 0
 2346 0024 7C0803A6 		mtlr 0
 2347 0028 4E800020 		blr
 2348              		.cfi_endproc
 2349              	.LFE1567:
 2350              		.size	_ZN16SimpleGuiTriggerD2Ev, .-_ZN16SimpleGuiTriggerD2Ev
 2351              		.section	.text._ZN16SimpleGuiTriggerD0Ev,"axG",@progbits,_ZN16SimpleGuiTriggerD5Ev,comdat
 2352              		.align 2
 2353              		.weak	_ZN16SimpleGuiTriggerD0Ev
 2354              		.type	_ZN16SimpleGuiTriggerD0Ev, @function
 2355              	_ZN16SimpleGuiTriggerD0Ev:
 2356              	.LFB1569:
 2357              		.loc 7 91 0
 2358              		.cfi_startproc
 2359              	.LVL180:
 2360 0000 7C0802A6 		mflr 0
 2361 0004 9421FFF0 		stwu 1,-16(1)
 2362              	.LCFI45:
 2363              		.cfi_def_cfa_offset 16
 2364              		.cfi_register 65, 0
 2365              	.LBB3812:
 2366              	.LBB3813:
 2367              	.LBB3814:
 2368 0008 3D200000 		lis 9,_ZTV16SimpleGuiTrigger+8@ha
 2369              	.LBE3814:
 2370              	.LBE3813:
 2371              	.LBE3812:
 2372 000c 93E1000C 		stw 31,12(1)
 2373 0010 7C7F1B78 		mr 31,3
 2374              		.cfi_offset 31, -4
 2375              	.LVL181:
 2376 0014 90010014 		stw 0,20(1)
 2377              	.LBB3817:
 2378              	.LBB3816:
 2379              	.LBB3815:
 2380              		.loc 7 91 0
 2381 0018 38090008 		la 0,_ZTV16SimpleGuiTrigger+8@l(9)
 2382              		.cfi_offset 65, 4
 2383 001c 90030000 		stw 0,0(3)
 2384 0020 48000001 		bl _ZN10GuiTriggerD2Ev
 2385              	.LVL182:
 2386              	.LBE3815:
 2387              	.LBE3816:
 2388              	.LBE3817:
 2389 0024 7FE3FB78 		mr 3,31
 2390 0028 48000001 		bl _ZdlPv
 2391 002c 80010014 		lwz 0,20(1)
 2392 0030 83E1000C 		lwz 31,12(1)
 2393              	.LVL183:
 2394 0034 7C0803A6 		mtlr 0
 2395 0038 38210010 		addi 1,1,16
 2396              	.LCFI46:
 2397              		.cfi_def_cfa_offset 0
 2398              		.cfi_restore 31
 2399 003c 4E800020 		blr
 2400              		.cfi_endproc
 2401              	.LFE1569:
 2402              		.size	_ZN16SimpleGuiTriggerD0Ev, .-_ZN16SimpleGuiTriggerD0Ev
 2403              		.section	".text"
 2404              		.align 2
 2405              		.globl _ZN14GuiArrowOption17OnLeftButtonClickEP9GuiButtoniRK6_POINT
 2406              		.type	_ZN14GuiArrowOption17OnLeftButtonClickEP9GuiButtoniRK6_POINT, @function
 2407              	_ZN14GuiArrowOption17OnLeftButtonClickEP9GuiButtoniRK6_POINT:
 2408              	.LFB1580:
 2409              		.loc 4 176 0
 2410              		.cfi_startproc
 2411              		.cfi_personality 0,__gxx_personality_v0
 2412              		.cfi_lsda 0,.LLSDA1580
 2413              	.LVL184:
 2414 00ec 7C0802A6 		mflr 0
 2415 00f0 9421FFD8 		stwu 1,-40(1)
 2416              	.LCFI47:
 2417              		.cfi_def_cfa_offset 40
 2418              		.cfi_register 65, 0
 2419 00f4 9321000C 		stw 25,12(1)
 2420              	.LBB3833:
 2421              	.LBB3834:
 2422              		.loc 1 2338 0
 2423 00f8 3B2300CC 		addi 25,3,204
 2424              		.cfi_offset 25, -28
 2425              	.LBE3834:
 2426              	.LBE3833:
 2427              		.loc 4 176 0
 2428 00fc 9001002C 		stw 0,44(1)
 2429 0100 93410010 		stw 26,16(1)
 2430 0104 7C7A1B78 		mr 26,3
 2431              		.cfi_offset 26, -24
 2432              		.cfi_offset 65, 4
 2433              	.LVL185:
 2434              	.LBB3857:
 2435              	.LBB3851:
 2436              	.LBB3835:
 2437              	.LBB3836:
 2438              		.loc 1 338 0
 2439 0108 812300CC 		lwz 9,204(3)
 2440 010c 7F23CB78 		mr 3,25
 2441              	.LVL186:
 2442              	.LBE3836:
 2443              	.LBE3835:
 2444              	.LBE3851:
 2445              	.LBE3857:
 2446              		.loc 4 176 0
 2447 0110 93610014 		stw 27,20(1)
 2448 0114 7C9B2378 		mr 27,4
 2449              		.cfi_offset 27, -20
 2450              	.LVL187:
 2451              	.LBB3858:
 2452              	.LBB3852:
 2453              	.LBB3840:
 2454              	.LBB3837:
 2455              		.loc 1 338 0
 2456 0118 80090008 		lwz 0,8(9)
 2457              	.LBE3837:
 2458              	.LBE3840:
 2459              	.LBE3852:
 2460              	.LBE3858:
 2461              		.loc 4 176 0
 2462 011c 93810018 		stw 28,24(1)
 2463 0120 7CBC2B78 		mr 28,5
 2464              		.cfi_offset 28, -16
 2465              	.LVL188:
 2466 0124 93A1001C 		stw 29,28(1)
 2467              	.LBB3859:
 2468              	.LBB3853:
 2469              	.LBB3841:
 2470              	.LBB3838:
 2471              		.loc 1 338 0
 2472 0128 7C0903A6 		mtctr 0
 2473              	.LBE3838:
 2474              	.LBE3841:
 2475              	.LBE3853:
 2476              	.LBE3859:
 2477              		.loc 4 176 0
 2478 012c 93C10020 		stw 30,32(1)
 2479              	.LBB3860:
 2480              		.loc 4 226 0
 2481 0130 7F5ED378 		mr 30,26
 2482              		.cfi_offset 30, -8
 2483              		.cfi_offset 29, -12
 2484              	.LBE3860:
 2485              		.loc 4 176 0
 2486 0134 93E10024 		stw 31,36(1)
 2487              		.loc 4 176 0
 2488 0138 7CDD3378 		mr 29,6
 2489              	.LVL189:
 2490              	.LEHB12:
 2491              	.LBB3861:
 2492              	.LBB3854:
 2493              	.LBB3842:
 2494              	.LBB3839:
 2495              		.loc 1 338 0
 2496              		.cfi_offset 31, -4
 2497 013c 4E800421 		bctrl
 2498              	.LEHE12:
 2499              	.LVL190:
 2500              	.LBE3839:
 2501              	.LBE3842:
 2502              	.LBE3854:
 2503              		.loc 4 226 0
 2504 0140 87FE00D0 		lwzu 31,208(30)
 2505              	.LVL191:
 2506              	.LBB3855:
 2507              		.loc 1 2342 0
 2508 0144 7F9FF000 		cmpw 7,31,30
 2509 0148 419E0030 		beq- 7,.L139
 2510              	.LVL192:
 2511              	.L146:
 2512              		.loc 1 2347 0
 2513 014c 807F0008 		lwz 3,8(31)
 2514 0150 7F64DB78 		mr 4,27
 2515 0154 7F85E378 		mr 5,28
 2516 0158 7FA6EB78 		mr 6,29
 2517 015c 81230000 		lwz 9,0(3)
 2518              	.LBB3843:
 2519              	.LBB3844:
 2520              		.loc 5 234 0
 2521 0160 83FF0000 		lwz 31,0(31)
 2522              	.LVL193:
 2523              	.LBE3844:
 2524              	.LBE3843:
 2525              		.loc 1 2347 0
 2526 0164 8009000C 		lwz 0,12(9)
 2527 0168 7C0903A6 		mtctr 0
 2528              	.LEHB13:
 2529 016c 4E800421 		bctrl
 2530              	.LEHE13:
 2531              	.LVL194:
 2532              		.loc 1 2342 0
 2533 0170 7F9EF800 		cmpw 7,30,31
 2534 0174 409EFFD8 		bne+ 7,.L146
 2535              	.LVL195:
 2536              	.L139:
 2537              	.LBB3845:
 2538              	.LBB3846:
 2539              	.LBB3847:
 2540              		.loc 1 343 0
 2541 0178 813A00CC 		lwz 9,204(26)
 2542 017c 7F23CB78 		mr 3,25
 2543 0180 8009000C 		lwz 0,12(9)
 2544 0184 7C0903A6 		mtctr 0
 2545              	.LEHB14:
 2546 0188 4E800421 		bctrl
 2547              	.LEHE14:
 2548              	.LBE3847:
 2549              	.LBE3846:
 2550              	.LBE3845:
 2551              	.LBE3855:
 2552              	.LBE3861:
 2553              		.loc 4 178 0
 2554 018c 8001002C 		lwz 0,44(1)
 2555 0190 8321000C 		lwz 25,12(1)
 2556              	.LVL196:
 2557 0194 7C0803A6 		mtlr 0
 2558 0198 83410010 		lwz 26,16(1)
 2559              	.LVL197:
 2560 019c 83610014 		lwz 27,20(1)
 2561              	.LVL198:
 2562 01a0 83810018 		lwz 28,24(1)
 2563              	.LVL199:
 2564 01a4 83A1001C 		lwz 29,28(1)
 2565              	.LVL200:
 2566 01a8 83C10020 		lwz 30,32(1)
 2567              	.LVL201:
 2568 01ac 83E10024 		lwz 31,36(1)
 2569              	.LVL202:
 2570 01b0 38210028 		addi 1,1,40
 2571              		.cfi_remember_state
 2572              	.LCFI48:
 2573              		.cfi_def_cfa_offset 0
 2574              		.cfi_restore 31
 2575              		.cfi_restore 30
 2576              		.cfi_restore 29
 2577              		.cfi_restore 28
 2578              		.cfi_restore 27
 2579              		.cfi_restore 26
 2580              		.cfi_restore 25
 2581 01b4 4E800020 		blr
 2582              	.LVL203:
 2583              	.L145:
 2584              	.LCFI49:
 2585              		.cfi_restore_state
 2586              	.LBB3862:
 2587              	.LBB3856:
 2588              	.LBB3848:
 2589              	.LBB3849:
 2590              	.LBB3850:
 2591              		.loc 1 343 0
 2592 01b8 813A00CC 		lwz 9,204(26)
 2593 01bc 7C7F1B78 		mr 31,3
 2594              	.LVL204:
 2595 01c0 7F23CB78 		mr 3,25
 2596 01c4 8009000C 		lwz 0,12(9)
 2597 01c8 7C0903A6 		mtctr 0
 2598 01cc 4E800421 		bctrl
 2599 01d0 7FE3FB78 		mr 3,31
 2600              	.LEHB15:
 2601 01d4 48000001 		bl _Unwind_Resume
 2602              	.LEHE15:
 2603              	.LBE3850:
 2604              	.LBE3849:
 2605              	.LBE3848:
 2606              	.LBE3856:
 2607              	.LBE3862:
 2608              		.cfi_endproc
 2609              	.LFE1580:
 2610              		.section	.gcc_except_table
 2611              	.LLSDA1580:
 2612 0046 FF       		.byte	0xff
 2613 0047 FF       		.byte	0xff
 2614 0048 01       		.byte	0x1
 2615 0049 14       		.uleb128 .LLSDACSE1580-.LLSDACSB1580
 2616              	.LLSDACSB1580:
 2617 004a 50       		.uleb128 .LEHB12-.LFB1580
 2618 004b 04       		.uleb128 .LEHE12-.LEHB12
 2619 004c 00       		.uleb128 0
 2620 004d 00       		.uleb128 0
 2621 004e 8001     		.uleb128 .LEHB13-.LFB1580
 2622 0050 04       		.uleb128 .LEHE13-.LEHB13
 2623 0051 CC01     		.uleb128 .L145-.LFB1580
 2624 0053 00       		.uleb128 0
 2625 0054 9C01     		.uleb128 .LEHB14-.LFB1580
 2626 0056 04       		.uleb128 .LEHE14-.LEHB14
 2627 0057 00       		.uleb128 0
 2628 0058 00       		.uleb128 0
 2629 0059 E801     		.uleb128 .LEHB15-.LFB1580
 2630 005b 04       		.uleb128 .LEHE15-.LEHB15
 2631 005c 00       		.uleb128 0
 2632 005d 00       		.uleb128 0
 2633              	.LLSDACSE1580:
 2634              		.section	".text"
 2635              		.size	_ZN14GuiArrowOption17OnLeftButtonClickEP9GuiButtoniRK6_POINT, .-_ZN14GuiArrowOption17OnLeftB
 2636              		.align 2
 2637              		.globl _ZN14GuiArrowOption18OnRightButtonClickEP9GuiButtoniRK6_POINT
 2638              		.type	_ZN14GuiArrowOption18OnRightButtonClickEP9GuiButtoniRK6_POINT, @function
 2639              	_ZN14GuiArrowOption18OnRightButtonClickEP9GuiButtoniRK6_POINT:
 2640              	.LFB1579:
 2641              		.loc 4 171 0
 2642              		.cfi_startproc
 2643              		.cfi_personality 0,__gxx_personality_v0
 2644              		.cfi_lsda 0,.LLSDA1579
 2645              	.LVL205:
 2646 01d8 7C0802A6 		mflr 0
 2647 01dc 9421FFD8 		stwu 1,-40(1)
 2648              	.LCFI50:
 2649              		.cfi_def_cfa_offset 40
 2650              		.cfi_register 65, 0
 2651 01e0 9321000C 		stw 25,12(1)
 2652              	.LBB3878:
 2653              	.LBB3879:
 2654              		.loc 1 2338 0
 2655 01e4 3B2300D8 		addi 25,3,216
 2656              		.cfi_offset 25, -28
 2657              	.LBE3879:
 2658              	.LBE3878:
 2659              		.loc 4 171 0
 2660 01e8 9001002C 		stw 0,44(1)
 2661 01ec 93410010 		stw 26,16(1)
 2662 01f0 7C7A1B78 		mr 26,3
 2663              		.cfi_offset 26, -24
 2664              		.cfi_offset 65, 4
 2665              	.LVL206:
 2666              	.LBB3902:
 2667              	.LBB3896:
 2668              	.LBB3880:
 2669              	.LBB3881:
 2670              		.loc 1 338 0
 2671 01f4 812300D8 		lwz 9,216(3)
 2672 01f8 7F23CB78 		mr 3,25
 2673              	.LVL207:
 2674              	.LBE3881:
 2675              	.LBE3880:
 2676              	.LBE3896:
 2677              	.LBE3902:
 2678              		.loc 4 171 0
 2679 01fc 93610014 		stw 27,20(1)
 2680 0200 7C9B2378 		mr 27,4
 2681              		.cfi_offset 27, -20
 2682              	.LVL208:
 2683              	.LBB3903:
 2684              	.LBB3897:
 2685              	.LBB3885:
 2686              	.LBB3882:
 2687              		.loc 1 338 0
 2688 0204 80090008 		lwz 0,8(9)
 2689              	.LBE3882:
 2690              	.LBE3885:
 2691              	.LBE3897:
 2692              	.LBE3903:
 2693              		.loc 4 171 0
 2694 0208 93810018 		stw 28,24(1)
 2695 020c 7CBC2B78 		mr 28,5
 2696              		.cfi_offset 28, -16
 2697              	.LVL209:
 2698 0210 93A1001C 		stw 29,28(1)
 2699              	.LBB3904:
 2700              	.LBB3898:
 2701              	.LBB3886:
 2702              	.LBB3883:
 2703              		.loc 1 338 0
 2704 0214 7C0903A6 		mtctr 0
 2705              	.LBE3883:
 2706              	.LBE3886:
 2707              	.LBE3898:
 2708              	.LBE3904:
 2709              		.loc 4 171 0
 2710 0218 93C10020 		stw 30,32(1)
 2711              	.LBB3905:
 2712              		.loc 4 226 0
 2713 021c 7F5ED378 		mr 30,26
 2714              		.cfi_offset 30, -8
 2715              		.cfi_offset 29, -12
 2716              	.LBE3905:
 2717              		.loc 4 171 0
 2718 0220 93E10024 		stw 31,36(1)
 2719              		.loc 4 171 0
 2720 0224 7CDD3378 		mr 29,6
 2721              	.LVL210:
 2722              	.LEHB16:
 2723              	.LBB3906:
 2724              	.LBB3899:
 2725              	.LBB3887:
 2726              	.LBB3884:
 2727              		.loc 1 338 0
 2728              		.cfi_offset 31, -4
 2729 0228 4E800421 		bctrl
 2730              	.LEHE16:
 2731              	.LVL211:
 2732              	.LBE3884:
 2733              	.LBE3887:
 2734              	.LBE3899:
 2735              		.loc 4 226 0
 2736 022c 87FE00DC 		lwzu 31,220(30)
 2737              	.LVL212:
 2738              	.LBB3900:
 2739              		.loc 1 2342 0
 2740 0230 7F9FF000 		cmpw 7,31,30
 2741 0234 419E0030 		beq- 7,.L148
 2742              	.LVL213:
 2743              	.L155:
 2744              		.loc 1 2347 0
 2745 0238 807F0008 		lwz 3,8(31)
 2746 023c 7F64DB78 		mr 4,27
 2747 0240 7F85E378 		mr 5,28
 2748 0244 7FA6EB78 		mr 6,29
 2749 0248 81230000 		lwz 9,0(3)
 2750              	.LBB3888:
 2751              	.LBB3889:
 2752              		.loc 5 234 0
 2753 024c 83FF0000 		lwz 31,0(31)
 2754              	.LVL214:
 2755              	.LBE3889:
 2756              	.LBE3888:
 2757              		.loc 1 2347 0
 2758 0250 8009000C 		lwz 0,12(9)
 2759 0254 7C0903A6 		mtctr 0
 2760              	.LEHB17:
 2761 0258 4E800421 		bctrl
 2762              	.LEHE17:
 2763              	.LVL215:
 2764              		.loc 1 2342 0
 2765 025c 7F9EF800 		cmpw 7,30,31
 2766 0260 409EFFD8 		bne+ 7,.L155
 2767              	.LVL216:
 2768              	.L148:
 2769              	.LBB3890:
 2770              	.LBB3891:
 2771              	.LBB3892:
 2772              		.loc 1 343 0
 2773 0264 813A00D8 		lwz 9,216(26)
 2774 0268 7F23CB78 		mr 3,25
 2775 026c 8009000C 		lwz 0,12(9)
 2776 0270 7C0903A6 		mtctr 0
 2777              	.LEHB18:
 2778 0274 4E800421 		bctrl
 2779              	.LEHE18:
 2780              	.LBE3892:
 2781              	.LBE3891:
 2782              	.LBE3890:
 2783              	.LBE3900:
 2784              	.LBE3906:
 2785              		.loc 4 173 0
 2786 0278 8001002C 		lwz 0,44(1)
 2787 027c 8321000C 		lwz 25,12(1)
 2788              	.LVL217:
 2789 0280 7C0803A6 		mtlr 0
 2790 0284 83410010 		lwz 26,16(1)
 2791              	.LVL218:
 2792 0288 83610014 		lwz 27,20(1)
 2793              	.LVL219:
 2794 028c 83810018 		lwz 28,24(1)
 2795              	.LVL220:
 2796 0290 83A1001C 		lwz 29,28(1)
 2797              	.LVL221:
 2798 0294 83C10020 		lwz 30,32(1)
 2799              	.LVL222:
 2800 0298 83E10024 		lwz 31,36(1)
 2801              	.LVL223:
 2802 029c 38210028 		addi 1,1,40
 2803              		.cfi_remember_state
 2804              	.LCFI51:
 2805              		.cfi_def_cfa_offset 0
 2806              		.cfi_restore 31
 2807              		.cfi_restore 30
 2808              		.cfi_restore 29
 2809              		.cfi_restore 28
 2810              		.cfi_restore 27
 2811              		.cfi_restore 26
 2812              		.cfi_restore 25
 2813 02a0 4E800020 		blr
 2814              	.LVL224:
 2815              	.L154:
 2816              	.LCFI52:
 2817              		.cfi_restore_state
 2818              	.LBB3907:
 2819              	.LBB3901:
 2820              	.LBB3893:
 2821              	.LBB3894:
 2822              	.LBB3895:
 2823              		.loc 1 343 0
 2824 02a4 813A00D8 		lwz 9,216(26)
 2825 02a8 7C7F1B78 		mr 31,3
 2826              	.LVL225:
 2827 02ac 7F23CB78 		mr 3,25
 2828 02b0 8009000C 		lwz 0,12(9)
 2829 02b4 7C0903A6 		mtctr 0
 2830 02b8 4E800421 		bctrl
 2831 02bc 7FE3FB78 		mr 3,31
 2832              	.LEHB19:
 2833 02c0 48000001 		bl _Unwind_Resume
 2834              	.LEHE19:
 2835              	.LBE3895:
 2836              	.LBE3894:
 2837              	.LBE3893:
 2838              	.LBE3901:
 2839              	.LBE3907:
 2840              		.cfi_endproc
 2841              	.LFE1579:
 2842              		.section	.gcc_except_table
 2843              	.LLSDA1579:
 2844 005e FF       		.byte	0xff
 2845 005f FF       		.byte	0xff
 2846 0060 01       		.byte	0x1
 2847 0061 14       		.uleb128 .LLSDACSE1579-.LLSDACSB1579
 2848              	.LLSDACSB1579:
 2849 0062 50       		.uleb128 .LEHB16-.LFB1579
 2850 0063 04       		.uleb128 .LEHE16-.LEHB16
 2851 0064 00       		.uleb128 0
 2852 0065 00       		.uleb128 0
 2853 0066 8001     		.uleb128 .LEHB17-.LFB1579
 2854 0068 04       		.uleb128 .LEHE17-.LEHB17
 2855 0069 CC01     		.uleb128 .L154-.LFB1579
 2856 006b 00       		.uleb128 0
 2857 006c 9C01     		.uleb128 .LEHB18-.LFB1579
 2858 006e 04       		.uleb128 .LEHE18-.LEHB18
 2859 006f 00       		.uleb128 0
 2860 0070 00       		.uleb128 0
 2861 0071 E801     		.uleb128 .LEHB19-.LFB1579
 2862 0073 04       		.uleb128 .LEHE19-.LEHB19
 2863 0074 00       		.uleb128 0
 2864 0075 00       		.uleb128 0
 2865              	.LLSDACSE1579:
 2866              		.section	".text"
 2867              		.size	_ZN14GuiArrowOption18OnRightButtonClickEP9GuiButtoniRK6_POINT, .-_ZN14GuiArrowOption18OnRigh
 2868              		.align 2
 2869              		.globl _ZN14GuiArrowOption13SetOptionNameEiPKc
 2870              		.type	_ZN14GuiArrowOption13SetOptionNameEiPKc, @function
 2871              	_ZN14GuiArrowOption13SetOptionNameEiPKc:
 2872              	.LFB1574:
 2873              		.loc 4 100 0
 2874              		.cfi_startproc
 2875              	.LVL226:
 2876 02c4 9421FFD8 		stwu 1,-40(1)
 2877              	.LCFI53:
 2878              		.cfi_def_cfa_offset 40
 2879 02c8 7C0802A6 		mflr 0
 2880 02cc 93C10020 		stw 30,32(1)
 2881              	.LBB3959:
 2882              		.loc 4 101 0
 2883 02d0 7C9E2379 		mr. 30,4
 2884              		.cfi_offset 30, -8
 2885              		.cfi_register 65, 0
 2886              	.LBE3959:
 2887              		.loc 4 100 0
 2888 02d4 9321000C 		stw 25,12(1)
 2889 02d8 7CB92B78 		mr 25,5
 2890              		.cfi_offset 25, -28
 2891 02dc 93E10024 		stw 31,36(1)
 2892 02e0 7C7F1B78 		mr 31,3
 2893              		.cfi_offset 31, -4
 2894 02e4 9001002C 		stw 0,44(1)
 2895 02e8 93410010 		stw 26,16(1)
 2896 02ec 93610014 		stw 27,20(1)
 2897 02f0 93810018 		stw 28,24(1)
 2898 02f4 93A1001C 		stw 29,28(1)
 2899              	.LBB4005:
 2900              		.loc 4 101 0
 2901 02f8 4180011C 		blt- 0,.L156
 2902              		.cfi_offset 29, -12
 2903              		.cfi_offset 28, -16
 2904              		.cfi_offset 27, -20
 2905              		.cfi_offset 26, -24
 2906              		.cfi_offset 65, 4
 2907              		.loc 4 226 0 discriminator 2
 2908 02fc 812300FC 		lwz 9,252(3)
 2909              	.LBB3960:
 2910              	.LBB3961:
 2911              		.file 8 "d:\\devkitpro\\devkitppc\\bin\\../lib/gcc/powerpc-eabi/4.6.3/../../../../powerpc-eabi/inc
 2912              		.loc 8 571 0 discriminator 2
 2913 0300 80030100 		lwz 0,256(3)
 2914 0304 7C090050 		subf 0,9,0
 2915 0308 7C001670 		srawi 0,0,2
 2916              	.LBE3961:
 2917              	.LBE3960:
 2918              		.loc 4 101 0 discriminator 2
 2919 030c 7F9E0000 		cmpw 7,30,0
 2920 0310 409C0104 		bge- 7,.L156
 2921              	.LVL227:
 2922              	.LBB3962:
 2923              	.LBB3963:
 2924              	.LBB3964:
 2925              		.loc 8 718 0
 2926 0314 7F9E0040 		cmplw 7,30,0
 2927 0318 409C0128 		bge- 7,.L168
 2928              	.LVL228:
 2929              	.LBE3964:
 2930              	.LBE3963:
 2931              	.LBB3965:
 2932              	.LBB3966:
 2933              		.loc 8 696 0
 2934 031c 57DD103A 		slwi 29,30,2
 2935              	.LBE3966:
 2936              	.LBE3965:
 2937              	.LBE3962:
 2938              		.loc 4 104 0
 2939 0320 7C69E82E 		lwzx 3,9,29
 2940              	.LVL229:
 2941 0324 81230000 		lwz 9,0(3)
 2942 0328 80090014 		lwz 0,20(9)
 2943 032c 7C0903A6 		mtctr 0
 2944 0330 4E800421 		bctrl
 2945              	.LVL230:
 2946              	.LBB3967:
 2947              	.LBB3968:
 2948              		.loc 4 226 0
 2949 0334 813F00FC 		lwz 9,252(31)
 2950              	.LBB3969:
 2951              	.LBB3970:
 2952              	.LBB3971:
 2953              		.loc 8 571 0
 2954 0338 801F0100 		lwz 0,256(31)
 2955              	.LBE3971:
 2956              	.LBE3970:
 2957              	.LBE3969:
 2958              	.LBE3968:
 2959              	.LBE3967:
 2960              		.loc 4 104 0
 2961 033c 7C7C1B78 		mr 28,3
 2962              	.LVL231:
 2963              	.LBB3976:
 2964              	.LBB3975:
 2965              	.LBB3974:
 2966              	.LBB3973:
 2967              	.LBB3972:
 2968              		.loc 8 571 0
 2969 0340 7C090050 		subf 0,9,0
 2970 0344 7C001670 		srawi 0,0,2
 2971              	.LBE3972:
 2972              	.LBE3973:
 2973              		.loc 8 718 0
 2974 0348 7F9E0040 		cmplw 7,30,0
 2975 034c 409C00F4 		bge- 7,.L168
 2976              	.LBE3974:
 2977              	.LBE3975:
 2978              	.LBE3976:
 2979              		.loc 4 105 0
 2980 0350 7C69E82E 		lwzx 3,9,29
 2981              	.LVL232:
 2982 0354 81230000 		lwz 9,0(3)
 2983 0358 80090010 		lwz 0,16(9)
 2984 035c 7C0903A6 		mtctr 0
 2985 0360 4E800421 		bctrl
 2986              	.LBB3977:
 2987              	.LBB3978:
 2988              		.loc 4 226 0
 2989 0364 813F00FC 		lwz 9,252(31)
 2990              	.LBB3979:
 2991              	.LBB3980:
 2992              	.LBB3981:
 2993              		.loc 8 571 0
 2994 0368 801F0100 		lwz 0,256(31)
 2995              	.LBE3981:
 2996              	.LBE3980:
 2997              	.LBE3979:
 2998              	.LBE3978:
 2999              	.LBE3977:
 3000              		.loc 4 105 0
 3001 036c 7C7B1B78 		mr 27,3
 3002              	.LVL233:
 3003              	.LBB3986:
 3004              	.LBB3985:
 3005              	.LBB3984:
 3006              	.LBB3983:
 3007              	.LBB3982:
 3008              		.loc 8 571 0
 3009 0370 7C090050 		subf 0,9,0
 3010 0374 7C001670 		srawi 0,0,2
 3011              	.LBE3982:
 3012              	.LBE3983:
 3013              		.loc 8 718 0
 3014 0378 7F9E0040 		cmplw 7,30,0
 3015 037c 409C00C4 		bge- 7,.L168
 3016              	.LBE3984:
 3017              	.LBE3985:
 3018              	.LBE3986:
 3019              		.loc 4 105 0
 3020 0380 7C69E82E 		lwzx 3,9,29
 3021 0384 48000001 		bl _ZN7GuiText12GetTextWidthEv
 3022              	.LBB3987:
 3023              	.LBB3988:
 3024              		.loc 4 226 0
 3025 0388 813F00FC 		lwz 9,252(31)
 3026              	.LBB3989:
 3027              	.LBB3990:
 3028              	.LBB3991:
 3029              		.loc 8 571 0
 3030 038c 801F0100 		lwz 0,256(31)
 3031              	.LBE3991:
 3032              	.LBE3990:
 3033              	.LBE3989:
 3034              	.LBE3988:
 3035              	.LBE3987:
 3036              		.loc 4 105 0
 3037 0390 7C7A1B78 		mr 26,3
 3038              	.LVL234:
 3039              	.LBB3996:
 3040              	.LBB3995:
 3041              	.LBB3994:
 3042              	.LBB3993:
 3043              	.LBB3992:
 3044              		.loc 8 571 0
 3045 0394 7C090050 		subf 0,9,0
 3046 0398 7C001670 		srawi 0,0,2
 3047              	.LBE3992:
 3048              	.LBE3993:
 3049              		.loc 8 718 0
 3050 039c 7F9E0040 		cmplw 7,30,0
 3051 03a0 409C00A0 		bge- 7,.L168
 3052              	.LBE3994:
 3053              	.LBE3995:
 3054              	.LBE3996:
 3055              		.loc 4 107 0
 3056 03a4 7C69E82E 		lwzx 3,9,29
 3057              	.LVL235:
 3058 03a8 7F24CB78 		mr 4,25
 3059 03ac 81230000 		lwz 9,0(3)
 3060 03b0 800900D8 		lwz 0,216(9)
 3061 03b4 7C0903A6 		mtctr 0
 3062 03b8 4CC63182 		crxor 6,6,6
 3063 03bc 4E800421 		bctrl
 3064              	.LVL236:
 3065              	.LBB3997:
 3066              	.LBB3998:
 3067              		.loc 4 226 0
 3068 03c0 813F00FC 		lwz 9,252(31)
 3069              	.LBB3999:
 3070              	.LBB4000:
 3071              	.LBB4001:
 3072              		.loc 8 571 0
 3073 03c4 801F0100 		lwz 0,256(31)
 3074 03c8 7C090050 		subf 0,9,0
 3075 03cc 7C001670 		srawi 0,0,2
 3076              	.LBE4001:
 3077              	.LBE4000:
 3078              		.loc 8 718 0
 3079 03d0 7F9E0040 		cmplw 7,30,0
 3080 03d4 409C006C 		bge- 7,.L168
 3081              	.LVL237:
 3082              	.LBE3999:
 3083              	.LBE3998:
 3084              	.LBE3997:
 3085              		.loc 4 108 0
 3086 03d8 7FC9E82E 		lwzx 30,9,29
 3087              	.LVL238:
 3088              		.loc 4 105 0
 3089 03dc 7F5A0E70 		srawi 26,26,1
 3090 03e0 7F5A0194 		addze 26,26
 3091              	.LVL239:
 3092 03e4 7F7BD214 		add 27,27,26
 3093              	.LVL240:
 3094              		.loc 4 108 0
 3095 03e8 813E0000 		lwz 9,0(30)
 3096 03ec 7FC3F378 		mr 3,30
 3097 03f0 83E900A8 		lwz 31,168(9)
 3098              	.LVL241:
 3099 03f4 48000001 		bl _ZN7GuiText12GetTextWidthEv
 3100 03f8 7C600E70 		srawi 0,3,1
 3101 03fc 7C000194 		addze 0,0
 3102 0400 7F85E378 		mr 5,28
 3103 0404 7FC3F378 		mr 3,30
 3104 0408 7FE903A6 		mtctr 31
 3105 040c 7C80D850 		subf 4,0,27
 3106 0410 4E800421 		bctrl
 3107              	.LVL242:
 3108              	.L156:
 3109              	.LBE4005:
 3110              		.loc 4 109 0
 3111 0414 8001002C 		lwz 0,44(1)
 3112 0418 8321000C 		lwz 25,12(1)
 3113              	.LVL243:
 3114 041c 7C0803A6 		mtlr 0
 3115 0420 83410010 		lwz 26,16(1)
 3116 0424 83610014 		lwz 27,20(1)
 3117 0428 83810018 		lwz 28,24(1)
 3118 042c 83A1001C 		lwz 29,28(1)
 3119 0430 83C10020 		lwz 30,32(1)
 3120 0434 83E10024 		lwz 31,36(1)
 3121 0438 38210028 		addi 1,1,40
 3122              		.cfi_remember_state
 3123              	.LCFI54:
 3124              		.cfi_def_cfa_offset 0
 3125              		.cfi_restore 31
 3126              		.cfi_restore 30
 3127              		.cfi_restore 29
 3128              		.cfi_restore 28
 3129              		.cfi_restore 27
 3130              		.cfi_restore 26
 3131              		.cfi_restore 25
 3132 043c 4E800020 		blr
 3133              	.LVL244:
 3134              	.L168:
 3135              	.LCFI55:
 3136              		.cfi_restore_state
 3137              	.LBB4006:
 3138              	.LBB4004:
 3139              	.LBB4003:
 3140              	.LBB4002:
 3141              		.loc 8 719 0
 3142 0440 3C600000 		lis 3,.LC4@ha
 3143 0444 38630000 		la 3,.LC4@l(3)
 3144 0448 48000001 		bl _ZSt20__throw_out_of_rangePKc
 3145              	.LBE4002:
 3146              	.LBE4003:
 3147              	.LBE4004:
 3148              	.LBE4006:
 3149              		.cfi_endproc
 3150              	.LFE1574:
 3151              		.size	_ZN14GuiArrowOption13SetOptionNameEiPKc, .-_ZN14GuiArrowOption13SetOptionNameEiPKc
 3152              		.align 2
 3153              		.globl _ZN14GuiArrowOption14SetOptionValueEiPKc
 3154              		.type	_ZN14GuiArrowOption14SetOptionValueEiPKc, @function
 3155              	_ZN14GuiArrowOption14SetOptionValueEiPKc:
 3156              	.LFB1575:
 3157              		.loc 4 112 0
 3158              		.cfi_startproc
 3159              	.LVL245:
 3160 044c 9421FFD0 		stwu 1,-48(1)
 3161              	.LCFI56:
 3162              		.cfi_def_cfa_offset 48
 3163 0450 7C0802A6 		mflr 0
 3164 0454 93C10028 		stw 30,40(1)
 3165              	.LBB4098:
 3166              		.loc 4 113 0
 3167 0458 7C9E2379 		mr. 30,4
 3168              		.cfi_offset 30, -8
 3169              		.cfi_register 65, 0
 3170              	.LBE4098:
 3171              		.loc 4 112 0
 3172 045c 93410018 		stw 26,24(1)
 3173 0460 7CBA2B78 		mr 26,5
 3174              		.cfi_offset 26, -24
 3175 0464 93E1002C 		stw 31,44(1)
 3176 0468 7C7F1B78 		mr 31,3
 3177              		.cfi_offset 31, -4
 3178 046c 90010034 		stw 0,52(1)
 3179 0470 92E1000C 		stw 23,12(1)
 3180 0474 93010010 		stw 24,16(1)
 3181 0478 93210014 		stw 25,20(1)
 3182 047c 9361001C 		stw 27,28(1)
 3183 0480 93810020 		stw 28,32(1)
 3184 0484 93A10024 		stw 29,36(1)
 3185              	.LBB4174:
 3186              		.loc 4 113 0
 3187 0488 4180025C 		blt- 0,.L169
 3188              		.cfi_offset 29, -12
 3189              		.cfi_offset 28, -16
 3190              		.cfi_offset 27, -20
 3191              		.cfi_offset 25, -28
 3192              		.cfi_offset 24, -32
 3193              		.cfi_offset 23, -36
 3194              		.cfi_offset 65, 4
 3195              		.loc 4 226 0 discriminator 2
 3196 048c 81230108 		lwz 9,264(3)
 3197              	.LBB4099:
 3198              	.LBB4100:
 3199              		.loc 8 571 0 discriminator 2
 3200 0490 8003010C 		lwz 0,268(3)
 3201 0494 7C090050 		subf 0,9,0
 3202 0498 7C001670 		srawi 0,0,2
 3203              	.LBE4100:
 3204              	.LBE4099:
 3205              		.loc 4 113 0 discriminator 2
 3206 049c 7F9E0000 		cmpw 7,30,0
 3207 04a0 409C0244 		bge- 7,.L169
 3208              	.LVL246:
 3209              	.LBB4101:
 3210              	.LBB4102:
 3211              	.LBB4103:
 3212              		.loc 8 718 0
 3213 04a4 7F9E0040 		cmplw 7,30,0
 3214 04a8 409C0270 		bge- 7,.L186
 3215              	.LVL247:
 3216              	.LBE4103:
 3217              	.LBE4102:
 3218              	.LBB4104:
 3219              	.LBB4105:
 3220              		.loc 8 696 0
 3221 04ac 57DD103A 		slwi 29,30,2
 3222              	.LBE4105:
 3223              	.LBE4104:
 3224              	.LBE4101:
 3225              		.loc 4 116 0
 3226 04b0 7C69E82E 		lwzx 3,9,29
 3227              	.LVL248:
 3228 04b4 81230000 		lwz 9,0(3)
 3229 04b8 80090014 		lwz 0,20(9)
 3230 04bc 7C0903A6 		mtctr 0
 3231 04c0 4E800421 		bctrl
 3232              	.LVL249:
 3233 04c4 813F0000 		lwz 9,0(31)
 3234 04c8 7C7B1B78 		mr 27,3
 3235 04cc 7FE3FB78 		mr 3,31
 3236 04d0 80090014 		lwz 0,20(9)
 3237 04d4 7C0903A6 		mtctr 0
 3238 04d8 4E800421 		bctrl
 3239              	.LBB4106:
 3240              	.LBB4107:
 3241              		.loc 4 226 0
 3242 04dc 813F0108 		lwz 9,264(31)
 3243              	.LBB4108:
 3244              	.LBB4109:
 3245              	.LBB4110:
 3246              		.loc 8 571 0
 3247 04e0 801F010C 		lwz 0,268(31)
 3248              	.LBE4110:
 3249              	.LBE4109:
 3250              	.LBE4108:
 3251              	.LBE4107:
 3252              	.LBE4106:
 3253              		.loc 4 116 0
 3254 04e4 7C7C1B78 		mr 28,3
 3255              	.LVL250:
 3256              	.LBB4115:
 3257              	.LBB4114:
 3258              	.LBB4113:
 3259              	.LBB4112:
 3260              	.LBB4111:
 3261              		.loc 8 571 0
 3262 04e8 7C090050 		subf 0,9,0
 3263 04ec 7C001670 		srawi 0,0,2
 3264              	.LBE4111:
 3265              	.LBE4112:
 3266              		.loc 8 718 0
 3267 04f0 7F9E0040 		cmplw 7,30,0
 3268 04f4 409C0224 		bge- 7,.L186
 3269              	.LBE4113:
 3270              	.LBE4114:
 3271              	.LBE4115:
 3272              		.loc 4 117 0
 3273 04f8 7C69E82E 		lwzx 3,9,29
 3274              	.LVL251:
 3275 04fc 81230000 		lwz 9,0(3)
 3276 0500 80090010 		lwz 0,16(9)
 3277 0504 7C0903A6 		mtctr 0
 3278 0508 4E800421 		bctrl
 3279              	.LBB4116:
 3280              	.LBB4117:
 3281              		.loc 4 226 0
 3282 050c 813F0108 		lwz 9,264(31)
 3283              	.LBB4118:
 3284              	.LBB4119:
 3285              	.LBB4120:
 3286              		.loc 8 571 0
 3287 0510 801F010C 		lwz 0,268(31)
 3288              	.LBE4120:
 3289              	.LBE4119:
 3290              	.LBE4118:
 3291              	.LBE4117:
 3292              	.LBE4116:
 3293              		.loc 4 117 0
 3294 0514 7C771B78 		mr 23,3
 3295              	.LVL252:
 3296              	.LBB4125:
 3297              	.LBB4124:
 3298              	.LBB4123:
 3299              	.LBB4122:
 3300              	.LBB4121:
 3301              		.loc 8 571 0
 3302 0518 7C090050 		subf 0,9,0
 3303 051c 7C001670 		srawi 0,0,2
 3304              	.LBE4121:
 3305              	.LBE4122:
 3306              		.loc 8 718 0
 3307 0520 7F9E0040 		cmplw 7,30,0
 3308 0524 409C01F4 		bge- 7,.L186
 3309              	.LBE4123:
 3310              	.LBE4124:
 3311              	.LBE4125:
 3312              		.loc 4 117 0
 3313 0528 7C69E82E 		lwzx 3,9,29
 3314 052c 48000001 		bl _ZN7GuiText12GetTextWidthEv
 3315 0530 813F0000 		lwz 9,0(31)
 3316 0534 7C791B78 		mr 25,3
 3317 0538 7FE3FB78 		mr 3,31
 3318 053c 80090010 		lwz 0,16(9)
 3319 0540 7C0903A6 		mtctr 0
 3320 0544 4E800421 		bctrl
 3321              	.LBB4126:
 3322              	.LBB4127:
 3323              		.loc 4 226 0
 3324 0548 813F0108 		lwz 9,264(31)
 3325              	.LBB4128:
 3326              	.LBB4129:
 3327              	.LBB4130:
 3328              		.loc 8 571 0
 3329 054c 801F010C 		lwz 0,268(31)
 3330              	.LBE4130:
 3331              	.LBE4129:
 3332              	.LBE4128:
 3333              	.LBE4127:
 3334              	.LBE4126:
 3335              		.loc 4 117 0
 3336 0550 7C781B78 		mr 24,3
 3337              	.LVL253:
 3338              	.LBB4135:
 3339              	.LBB4134:
 3340              	.LBB4133:
 3341              	.LBB4132:
 3342              	.LBB4131:
 3343              		.loc 8 571 0
 3344 0554 7C090050 		subf 0,9,0
 3345 0558 7C001670 		srawi 0,0,2
 3346              	.LBE4131:
 3347              	.LBE4132:
 3348              		.loc 8 718 0
 3349 055c 7F9E0040 		cmplw 7,30,0
 3350 0560 409C01B8 		bge- 7,.L186
 3351              	.LBE4133:
 3352              	.LBE4134:
 3353              	.LBE4135:
 3354              		.loc 4 119 0
 3355 0564 7C69E82E 		lwzx 3,9,29
 3356              	.LVL254:
 3357 0568 7F44D378 		mr 4,26
 3358 056c 81230000 		lwz 9,0(3)
 3359 0570 800900D8 		lwz 0,216(9)
 3360 0574 7C0903A6 		mtctr 0
 3361 0578 4CC63182 		crxor 6,6,6
 3362 057c 4E800421 		bctrl
 3363              	.LVL255:
 3364              	.LBB4136:
 3365              	.LBB4137:
 3366              		.loc 4 226 0
 3367 0580 813F0108 		lwz 9,264(31)
 3368              	.LBB4138:
 3369              	.LBB4139:
 3370              	.LBB4140:
 3371              		.loc 8 571 0
 3372 0584 801F010C 		lwz 0,268(31)
 3373 0588 7C090050 		subf 0,9,0
 3374 058c 7C001670 		srawi 0,0,2
 3375              	.LBE4140:
 3376              	.LBE4139:
 3377              		.loc 8 718 0
 3378 0590 7F9E0040 		cmplw 7,30,0
 3379 0594 409C0184 		bge- 7,.L186
 3380              	.LBE4138:
 3381              	.LBE4137:
 3382              	.LBE4136:
 3383              		.loc 4 121 0
 3384 0598 7C69E82E 		lwzx 3,9,29
 3385 059c 48000001 		bl _ZN7GuiText12GetTextWidthEv
 3386              	.LBB4141:
 3387              	.LBB4142:
 3388              		.loc 4 226 0
 3389 05a0 813F0108 		lwz 9,264(31)
 3390              	.LBB4143:
 3391              	.LBB4144:
 3392              	.LBB4145:
 3393              		.loc 8 571 0
 3394 05a4 801F010C 		lwz 0,268(31)
 3395              	.LBE4145:
 3396              	.LBE4144:
 3397              	.LBE4143:
 3398              	.LBE4142:
 3399              	.LBE4141:
 3400              		.loc 4 121 0
 3401 05a8 7C7A1B78 		mr 26,3
 3402              	.LVL256:
 3403              	.LBB4150:
 3404              	.LBB4149:
 3405              	.LBB4148:
 3406              	.LBB4147:
 3407              	.LBB4146:
 3408              		.loc 8 571 0
 3409 05ac 7C090050 		subf 0,9,0
 3410 05b0 7C001670 		srawi 0,0,2
 3411              	.LBE4146:
 3412              	.LBE4147:
 3413              		.loc 8 718 0
 3414 05b4 7F9E0040 		cmplw 7,30,0
 3415 05b8 409C0160 		bge- 7,.L186
 3416              	.LBE4148:
 3417              	.LBE4149:
 3418              	.LBE4150:
 3419              		.loc 4 123 0
 3420 05bc 7C69E82E 		lwzx 3,9,29
 3421              	.LVL257:
 3422              		.loc 4 117 0
 3423 05c0 7F390E70 		srawi 25,25,1
 3424 05c4 7F390194 		addze 25,25
 3425              	.LVL258:
 3426 05c8 7F37CA14 		add 25,23,25
 3427              	.LVL259:
 3428              		.loc 4 123 0
 3429 05cc 81230000 		lwz 9,0(3)
 3430              		.loc 4 117 0
 3431 05d0 7F38C850 		subf 25,24,25
 3432              		.loc 4 123 0
 3433 05d4 7F580E70 		srawi 24,26,1
 3434 05d8 7F180194 		addze 24,24
 3435              		.loc 4 116 0
 3436 05dc 7F9CD850 		subf 28,28,27
 3437              	.LVL260:
 3438              		.loc 4 123 0
 3439 05e0 800900A8 		lwz 0,168(9)
 3440 05e4 7F78C850 		subf 27,24,25
 3441 05e8 7F64DB78 		mr 4,27
 3442 05ec 7F85E378 		mr 5,28
 3443 05f0 7C0903A6 		mtctr 0
 3444 05f4 4E800421 		bctrl
 3445              	.LVL261:
 3446              	.LBB4151:
 3447              	.LBB4152:
 3448              		.loc 4 226 0
 3449 05f8 813F0114 		lwz 9,276(31)
 3450              	.LBB4153:
 3451              	.LBB4154:
 3452              	.LBB4155:
 3453              		.loc 8 571 0
 3454 05fc 801F0118 		lwz 0,280(31)
 3455 0600 7C090050 		subf 0,9,0
 3456 0604 7C001670 		srawi 0,0,2
 3457              	.LBE4155:
 3458              	.LBE4154:
 3459              		.loc 8 718 0
 3460 0608 7F9E0040 		cmplw 7,30,0
 3461 060c 409C010C 		bge- 7,.L186
 3462              	.LVL262:
 3463              	.LBE4153:
 3464              	.LBE4152:
 3465              	.LBE4151:
 3466              		.loc 4 125 0
 3467 0610 7C69E82E 		lwzx 3,9,29
 3468 0614 7F44D378 		mr 4,26
 3469 0618 38A00012 		li 5,18
 3470 061c 81230000 		lwz 9,0(3)
 3471 0620 8009002C 		lwz 0,44(9)
 3472 0624 7C0903A6 		mtctr 0
 3473 0628 4E800421 		bctrl
 3474              	.LVL263:
 3475              	.LBB4156:
 3476              	.LBB4157:
 3477              		.loc 4 226 0
 3478 062c 813F0114 		lwz 9,276(31)
 3479              	.LBB4158:
 3480              	.LBB4159:
 3481              	.LBB4160:
 3482              		.loc 8 571 0
 3483 0630 801F0118 		lwz 0,280(31)
 3484 0634 7C090050 		subf 0,9,0
 3485 0638 7C001670 		srawi 0,0,2
 3486              	.LBE4160:
 3487              	.LBE4159:
 3488              		.loc 8 718 0
 3489 063c 7F9E0040 		cmplw 7,30,0
 3490 0640 409C00D8 		bge- 7,.L186
 3491              	.LBE4158:
 3492              	.LBE4157:
 3493              	.LBE4156:
 3494              		.loc 4 126 0
 3495 0644 7C69E82E 		lwzx 3,9,29
 3496 0648 7F64DB78 		mr 4,27
 3497 064c 7F85E378 		mr 5,28
 3498 0650 81230000 		lwz 9,0(3)
 3499 0654 800900A8 		lwz 0,168(9)
 3500 0658 7C0903A6 		mtctr 0
 3501 065c 4E800421 		bctrl
 3502              	.LVL264:
 3503              	.LBB4161:
 3504              	.LBB4162:
 3505              		.loc 4 226 0
 3506 0660 813F012C 		lwz 9,300(31)
 3507              	.LBB4163:
 3508              	.LBB4164:
 3509              	.LBB4165:
 3510              		.loc 8 571 0
 3511 0664 801F0130 		lwz 0,304(31)
 3512 0668 7C090050 		subf 0,9,0
 3513 066c 7C001670 		srawi 0,0,2
 3514              	.LBE4165:
 3515              	.LBE4164:
 3516              		.loc 8 718 0
 3517 0670 7F9E0040 		cmplw 7,30,0
 3518 0674 409C00A4 		bge- 7,.L186
 3519              	.LBE4163:
 3520              	.LBE4162:
 3521              	.LBE4161:
 3522              		.loc 4 127 0
 3523 0678 7EE9E82E 		lwzx 23,9,29
 3524 067c 81370000 		lwz 9,0(23)
 3525 0680 7EE3BB78 		mr 3,23
 3526 0684 80090024 		lwz 0,36(9)
 3527 0688 834900A8 		lwz 26,168(9)
 3528              	.LVL265:
 3529 068c 7C0903A6 		mtctr 0
 3530 0690 4E800421 		bctrl
 3531 0694 7F85E378 		mr 5,28
 3532 0698 7C83D850 		subf 4,3,27
 3533 069c 7F4903A6 		mtctr 26
 3534 06a0 3884FFF6 		addi 4,4,-10
 3535 06a4 7EE3BB78 		mr 3,23
 3536 06a8 4E800421 		bctrl
 3537              	.LVL266:
 3538              	.LBB4166:
 3539              	.LBB4167:
 3540              		.loc 4 226 0
 3541 06ac 813F0120 		lwz 9,288(31)
 3542              	.LBB4168:
 3543              	.LBB4169:
 3544              	.LBB4170:
 3545              		.loc 8 571 0
 3546 06b0 801F0124 		lwz 0,292(31)
 3547 06b4 7C090050 		subf 0,9,0
 3548 06b8 7C001670 		srawi 0,0,2
 3549              	.LBE4170:
 3550              	.LBE4169:
 3551              		.loc 8 718 0
 3552 06bc 7F9E0040 		cmplw 7,30,0
 3553 06c0 409C0058 		bge- 7,.L186
 3554              	.LVL267:
 3555              	.LBE4168:
 3556              	.LBE4167:
 3557              	.LBE4166:
 3558              		.loc 4 128 0
 3559 06c4 7C69E82E 		lwzx 3,9,29
 3560 06c8 7F38CA14 		add 25,24,25
 3561 06cc 3899000A 		addi 4,25,10
 3562 06d0 7F85E378 		mr 5,28
 3563 06d4 81230000 		lwz 9,0(3)
 3564 06d8 800900A8 		lwz 0,168(9)
 3565 06dc 7C0903A6 		mtctr 0
 3566 06e0 4E800421 		bctrl
 3567              	.LVL268:
 3568              	.L169:
 3569              	.LBE4174:
 3570              		.loc 4 129 0
 3571 06e4 80010034 		lwz 0,52(1)
 3572 06e8 82E1000C 		lwz 23,12(1)
 3573 06ec 7C0803A6 		mtlr 0
 3574 06f0 83010010 		lwz 24,16(1)
 3575 06f4 83210014 		lwz 25,20(1)
 3576 06f8 83410018 		lwz 26,24(1)
 3577 06fc 8361001C 		lwz 27,28(1)
 3578 0700 83810020 		lwz 28,32(1)
 3579 0704 83A10024 		lwz 29,36(1)
 3580 0708 83C10028 		lwz 30,40(1)
 3581              	.LVL269:
 3582 070c 83E1002C 		lwz 31,44(1)
 3583              	.LVL270:
 3584 0710 38210030 		addi 1,1,48
 3585              		.cfi_remember_state
 3586              	.LCFI57:
 3587              		.cfi_def_cfa_offset 0
 3588              		.cfi_restore 31
 3589              		.cfi_restore 30
 3590              		.cfi_restore 29
 3591              		.cfi_restore 28
 3592              		.cfi_restore 27
 3593              		.cfi_restore 26
 3594              		.cfi_restore 25
 3595              		.cfi_restore 24
 3596              		.cfi_restore 23
 3597 0714 4E800020 		blr
 3598              	.LVL271:
 3599              	.L186:
 3600              	.LCFI58:
 3601              		.cfi_restore_state
 3602              	.LBB4175:
 3603              	.LBB4173:
 3604              	.LBB4172:
 3605              	.LBB4171:
 3606              		.loc 8 719 0
 3607 0718 3C600000 		lis 3,.LC4@ha
 3608 071c 38630000 		la 3,.LC4@l(3)
 3609 0720 48000001 		bl _ZSt20__throw_out_of_rangePKc
 3610              	.LBE4171:
 3611              	.LBE4172:
 3612              	.LBE4173:
 3613              	.LBE4175:
 3614              		.cfi_endproc
 3615              	.LFE1575:
 3616              		.size	_ZN14GuiArrowOption14SetOptionValueEiPKc, .-_ZN14GuiArrowOption14SetOptionValueEiPKc
 3617              		.align 2
 3618              		.globl _ZN14GuiArrowOption12RemoveOptionEi
 3619              		.type	_ZN14GuiArrowOption12RemoveOptionEi, @function
 3620              	_ZN14GuiArrowOption12RemoveOptionEi:
 3621              	.LFB1576:
 3622              		.loc 4 132 0
 3623              		.cfi_startproc
 3624              	.LVL272:
 3625 0724 9421FFE8 		stwu 1,-24(1)
 3626              	.LCFI59:
 3627              		.cfi_def_cfa_offset 24
 3628 0728 7C0802A6 		mflr 0
 3629 072c 93A1000C 		stw 29,12(1)
 3630              		.loc 4 133 0
 3631 0730 7C9D2379 		mr. 29,4
 3632              		.cfi_offset 29, -12
 3633              		.cfi_register 65, 0
 3634              		.loc 4 132 0
 3635 0734 93E10014 		stw 31,20(1)
 3636 0738 7C7F1B78 		mr 31,3
 3637              		.cfi_offset 31, -4
 3638 073c 9001001C 		stw 0,28(1)
 3639 0740 93C10010 		stw 30,16(1)
 3640              		.loc 4 133 0
 3641 0744 418003B8 		blt- 0,.L187
 3642              		.cfi_offset 30, -8
 3643              		.cfi_offset 65, 4
 3644              	.LBB4423:
 3645              	.LBB4424:
 3646              		.loc 8 571 0 discriminator 2
 3647 0748 81230118 		lwz 9,280(3)
 3648 074c 80030114 		lwz 0,276(3)
 3649 0750 7C004850 		subf 0,0,9
 3650 0754 7C001670 		srawi 0,0,2
 3651              	.LBE4424:
 3652              	.LBE4423:
 3653              		.loc 4 133 0 discriminator 2
 3654 0758 7F80E800 		cmpw 7,0,29
 3655 075c 409D03A0 		ble- 7,.L187
 3656              	.LVL273:
 3657              	.LBB4425:
 3658              	.LBB4426:
 3659              		.loc 4 226 0
 3660 0760 812300FC 		lwz 9,252(3)
 3661              	.LBB4427:
 3662              	.LBB4428:
 3663              	.LBB4429:
 3664              		.loc 8 571 0
 3665 0764 80030100 		lwz 0,256(3)
 3666 0768 7C090050 		subf 0,9,0
 3667 076c 7C001670 		srawi 0,0,2
 3668              	.LBE4429:
 3669              	.LBE4428:
 3670              		.loc 8 718 0
 3671 0770 7F9D0040 		cmplw 7,29,0
 3672 0774 409C041C 		bge- 7,.L222
 3673              	.LVL274:
 3674              	.LBE4427:
 3675              	.LBE4426:
 3676              	.LBB4430:
 3677              	.LBB4431:
 3678              		.loc 8 696 0
 3679 0778 57BE103A 		slwi 30,29,2
 3680              	.LBE4431:
 3681              	.LBE4430:
 3682              	.LBE4425:
 3683              		.loc 4 136 0
 3684 077c 7C89F02E 		lwzx 4,9,30
 3685              	.LVL275:
 3686 0780 48000001 		bl _ZN8GuiFrame6RemoveEP10GuiElement
 3687              	.LVL276:
 3688              	.LBB4432:
 3689              	.LBB4433:
 3690              		.loc 4 226 0
 3691 0784 813F00FC 		lwz 9,252(31)
 3692              	.LBB4434:
 3693              	.LBB4435:
 3694              	.LBB4436:
 3695              		.loc 8 571 0
 3696 0788 801F0100 		lwz 0,256(31)
 3697 078c 7C090050 		subf 0,9,0
 3698 0790 7C001670 		srawi 0,0,2
 3699              	.LBE4436:
 3700              	.LBE4435:
 3701              		.loc 8 718 0
 3702 0794 7F9D0040 		cmplw 7,29,0
 3703 0798 409C03F8 		bge- 7,.L222
 3704              	.LBE4434:
 3705              	.LBE4433:
 3706              	.LBE4432:
 3707              		.loc 4 137 0
 3708 079c 7C69F02E 		lwzx 3,9,30
 3709 07a0 2F830000 		cmpwi 7,3,0
 3710 07a4 419E0014 		beq- 7,.L191
 3711              		.loc 4 137 0 is_stmt 0 discriminator 1
 3712 07a8 81230000 		lwz 9,0(3)
 3713 07ac 80090004 		lwz 0,4(9)
 3714 07b0 7C0903A6 		mtctr 0
 3715 07b4 4E800421 		bctrl
 3716              	.L191:
 3717              	.LVL277:
 3718              	.LBB4437:
 3719              	.LBB4438:
 3720              		.loc 4 226 0 is_stmt 1
 3721 07b8 813F0108 		lwz 9,264(31)
 3722              	.LBB4439:
 3723              	.LBB4440:
 3724              	.LBB4441:
 3725              		.loc 8 571 0
 3726 07bc 801F010C 		lwz 0,268(31)
 3727 07c0 7C090050 		subf 0,9,0
 3728 07c4 7C001670 		srawi 0,0,2
 3729              	.LBE4441:
 3730              	.LBE4440:
 3731              		.loc 8 718 0
 3732 07c8 7F9D0040 		cmplw 7,29,0
 3733 07cc 409C03C4 		bge- 7,.L222
 3734              	.LBE4439:
 3735              	.LBE4438:
 3736              	.LBE4437:
 3737              		.loc 4 138 0
 3738 07d0 7C89F02E 		lwzx 4,9,30
 3739 07d4 7FE3FB78 		mr 3,31
 3740 07d8 48000001 		bl _ZN8GuiFrame6RemoveEP10GuiElement
 3741              	.LVL278:
 3742              	.LBB4442:
 3743              	.LBB4443:
 3744              		.loc 4 226 0
 3745 07dc 813F0108 		lwz 9,264(31)
 3746              	.LBB4444:
 3747              	.LBB4445:
 3748              	.LBB4446:
 3749              		.loc 8 571 0
 3750 07e0 801F010C 		lwz 0,268(31)
 3751 07e4 7C090050 		subf 0,9,0
 3752 07e8 7C001670 		srawi 0,0,2
 3753              	.LBE4446:
 3754              	.LBE4445:
 3755              		.loc 8 718 0
 3756 07ec 7F9D0040 		cmplw 7,29,0
 3757 07f0 409C03A0 		bge- 7,.L222
 3758              	.LBE4444:
 3759              	.LBE4443:
 3760              	.LBE4442:
 3761              		.loc 4 139 0
 3762 07f4 7C69F02E 		lwzx 3,9,30
 3763 07f8 2F830000 		cmpwi 7,3,0
 3764 07fc 419E0014 		beq- 7,.L194
 3765              		.loc 4 139 0 is_stmt 0 discriminator 1
 3766 0800 81230000 		lwz 9,0(3)
 3767 0804 80090004 		lwz 0,4(9)
 3768 0808 7C0903A6 		mtctr 0
 3769 080c 4E800421 		bctrl
 3770              	.L194:
 3771              	.LVL279:
 3772              	.LBB4447:
 3773              	.LBB4448:
 3774              		.loc 4 226 0 is_stmt 1
 3775 0810 813F0114 		lwz 9,276(31)
 3776              	.LBB4449:
 3777              	.LBB4450:
 3778              	.LBB4451:
 3779              		.loc 8 571 0
 3780 0814 801F0118 		lwz 0,280(31)
 3781 0818 7C090050 		subf 0,9,0
 3782 081c 7C001670 		srawi 0,0,2
 3783              	.LBE4451:
 3784              	.LBE4450:
 3785              		.loc 8 718 0
 3786 0820 7F9D0040 		cmplw 7,29,0
 3787 0824 409C036C 		bge- 7,.L222
 3788              	.LVL280:
 3789              	.LBE4449:
 3790              	.LBE4448:
 3791              	.LBE4447:
 3792              		.loc 4 140 0
 3793 0828 7C89F02E 		lwzx 4,9,30
 3794 082c 7FE3FB78 		mr 3,31
 3795 0830 48000001 		bl _ZN8GuiFrame6RemoveEP10GuiElement
 3796              	.LVL281:
 3797              	.LBB4452:
 3798              	.LBB4453:
 3799              		.loc 4 226 0
 3800 0834 813F0114 		lwz 9,276(31)
 3801              	.LBB4454:
 3802              	.LBB4455:
 3803              	.LBB4456:
 3804              		.loc 8 571 0
 3805 0838 801F0118 		lwz 0,280(31)
 3806 083c 7C090050 		subf 0,9,0
 3807 0840 7C001670 		srawi 0,0,2
 3808              	.LBE4456:
 3809              	.LBE4455:
 3810              		.loc 8 718 0
 3811 0844 7F9D0040 		cmplw 7,29,0
 3812 0848 409C0348 		bge- 7,.L222
 3813              	.LBE4454:
 3814              	.LBE4453:
 3815              	.LBE4452:
 3816              		.loc 4 141 0
 3817 084c 7C69F02E 		lwzx 3,9,30
 3818 0850 2F830000 		cmpwi 7,3,0
 3819 0854 419E0014 		beq- 7,.L197
 3820              		.loc 4 141 0 is_stmt 0 discriminator 1
 3821 0858 81230000 		lwz 9,0(3)
 3822 085c 80090004 		lwz 0,4(9)
 3823 0860 7C0903A6 		mtctr 0
 3824 0864 4E800421 		bctrl
 3825              	.L197:
 3826              	.LVL282:
 3827              	.LBB4457:
 3828              	.LBB4458:
 3829              		.loc 4 226 0 is_stmt 1
 3830 0868 813F0138 		lwz 9,312(31)
 3831              	.LBB4459:
 3832              	.LBB4460:
 3833              	.LBB4461:
 3834              		.loc 8 571 0
 3835 086c 801F013C 		lwz 0,316(31)
 3836 0870 7C090050 		subf 0,9,0
 3837 0874 7C001670 		srawi 0,0,2
 3838              	.LBE4461:
 3839              	.LBE4460:
 3840              		.loc 8 718 0
 3841 0878 7F9D0040 		cmplw 7,29,0
 3842 087c 409C0314 		bge- 7,.L222
 3843              	.LVL283:
 3844              	.LBE4459:
 3845              	.LBE4458:
 3846              	.LBE4457:
 3847              		.loc 4 142 0
 3848 0880 7C89F02E 		lwzx 4,9,30
 3849 0884 7FE3FB78 		mr 3,31
 3850 0888 48000001 		bl _ZN8GuiFrame6RemoveEP10GuiElement
 3851              	.LVL284:
 3852              	.LBB4462:
 3853              	.LBB4463:
 3854              		.loc 4 226 0
 3855 088c 813F0138 		lwz 9,312(31)
 3856              	.LBB4464:
 3857              	.LBB4465:
 3858              	.LBB4466:
 3859              		.loc 8 571 0
 3860 0890 801F013C 		lwz 0,316(31)
 3861 0894 7C090050 		subf 0,9,0
 3862 0898 7C001670 		srawi 0,0,2
 3863              	.LBE4466:
 3864              	.LBE4465:
 3865              		.loc 8 718 0
 3866 089c 7F9D0040 		cmplw 7,29,0
 3867 08a0 409C02F0 		bge- 7,.L222
 3868              	.LBE4464:
 3869              	.LBE4463:
 3870              	.LBE4462:
 3871              		.loc 4 143 0
 3872 08a4 7C69F02E 		lwzx 3,9,30
 3873 08a8 2F830000 		cmpwi 7,3,0
 3874 08ac 419E0014 		beq- 7,.L200
 3875              		.loc 4 143 0 is_stmt 0 discriminator 1
 3876 08b0 81230000 		lwz 9,0(3)
 3877 08b4 80090004 		lwz 0,4(9)
 3878 08b8 7C0903A6 		mtctr 0
 3879 08bc 4E800421 		bctrl
 3880              	.L200:
 3881              	.LVL285:
 3882              	.LBB4467:
 3883              	.LBB4468:
 3884              		.loc 4 226 0 is_stmt 1
 3885 08c0 813F012C 		lwz 9,300(31)
 3886              	.LBB4469:
 3887              	.LBB4470:
 3888              	.LBB4471:
 3889              		.loc 8 571 0
 3890 08c4 801F0130 		lwz 0,304(31)
 3891 08c8 7C090050 		subf 0,9,0
 3892 08cc 7C001670 		srawi 0,0,2
 3893              	.LBE4471:
 3894              	.LBE4470:
 3895              		.loc 8 718 0
 3896 08d0 7F9D0040 		cmplw 7,29,0
 3897 08d4 409C02BC 		bge- 7,.L222
 3898              	.LBE4469:
 3899              	.LBE4468:
 3900              	.LBE4467:
 3901              		.loc 4 144 0
 3902 08d8 7C89F02E 		lwzx 4,9,30
 3903 08dc 7FE3FB78 		mr 3,31
 3904 08e0 48000001 		bl _ZN8GuiFrame6RemoveEP10GuiElement
 3905              	.LVL286:
 3906              	.LBB4472:
 3907              	.LBB4473:
 3908              		.loc 4 226 0
 3909 08e4 813F012C 		lwz 9,300(31)
 3910              	.LBB4474:
 3911              	.LBB4475:
 3912              	.LBB4476:
 3913              		.loc 8 571 0
 3914 08e8 801F0130 		lwz 0,304(31)
 3915 08ec 7C090050 		subf 0,9,0
 3916 08f0 7C001670 		srawi 0,0,2
 3917              	.LBE4476:
 3918              	.LBE4475:
 3919              		.loc 8 718 0
 3920 08f4 7F9D0040 		cmplw 7,29,0
 3921 08f8 409C0298 		bge- 7,.L222
 3922              	.LBE4474:
 3923              	.LBE4473:
 3924              	.LBE4472:
 3925              		.loc 4 145 0
 3926 08fc 7C69F02E 		lwzx 3,9,30
 3927 0900 2F830000 		cmpwi 7,3,0
 3928 0904 419E0014 		beq- 7,.L203
 3929              		.loc 4 145 0 is_stmt 0 discriminator 1
 3930 0908 81230000 		lwz 9,0(3)
 3931 090c 80090004 		lwz 0,4(9)
 3932 0910 7C0903A6 		mtctr 0
 3933 0914 4E800421 		bctrl
 3934              	.L203:
 3935              	.LVL287:
 3936              	.LBB4477:
 3937              	.LBB4478:
 3938              		.loc 4 226 0 is_stmt 1
 3939 0918 813F0144 		lwz 9,324(31)
 3940              	.LBB4479:
 3941              	.LBB4480:
 3942              	.LBB4481:
 3943              		.loc 8 571 0
 3944 091c 801F0148 		lwz 0,328(31)
 3945 0920 7C090050 		subf 0,9,0
 3946 0924 7C001670 		srawi 0,0,2
 3947              	.LBE4481:
 3948              	.LBE4480:
 3949              		.loc 8 718 0
 3950 0928 7F9D0040 		cmplw 7,29,0
 3951 092c 409C0264 		bge- 7,.L222
 3952              	.LBE4479:
 3953              	.LBE4478:
 3954              	.LBE4477:
 3955              		.loc 4 146 0
 3956 0930 7C89F02E 		lwzx 4,9,30
 3957 0934 7FE3FB78 		mr 3,31
 3958 0938 48000001 		bl _ZN8GuiFrame6RemoveEP10GuiElement
 3959              	.LVL288:
 3960              	.LBB4482:
 3961              	.LBB4483:
 3962              		.loc 4 226 0
 3963 093c 813F0144 		lwz 9,324(31)
 3964              	.LBB4484:
 3965              	.LBB4485:
 3966              	.LBB4486:
 3967              		.loc 8 571 0
 3968 0940 801F0148 		lwz 0,328(31)
 3969 0944 7C090050 		subf 0,9,0
 3970 0948 7C001670 		srawi 0,0,2
 3971              	.LBE4486:
 3972              	.LBE4485:
 3973              		.loc 8 718 0
 3974 094c 7F9D0040 		cmplw 7,29,0
 3975 0950 409C0240 		bge- 7,.L222
 3976              	.LBE4484:
 3977              	.LBE4483:
 3978              	.LBE4482:
 3979              		.loc 4 147 0
 3980 0954 7C69F02E 		lwzx 3,9,30
 3981 0958 2F830000 		cmpwi 7,3,0
 3982 095c 419E0014 		beq- 7,.L206
 3983              		.loc 4 147 0 is_stmt 0 discriminator 1
 3984 0960 81230000 		lwz 9,0(3)
 3985 0964 80090004 		lwz 0,4(9)
 3986 0968 7C0903A6 		mtctr 0
 3987 096c 4E800421 		bctrl
 3988              	.L206:
 3989              	.LVL289:
 3990              	.LBB4487:
 3991              	.LBB4488:
 3992              		.loc 4 226 0 is_stmt 1
 3993 0970 813F0120 		lwz 9,288(31)
 3994              	.LBB4489:
 3995              	.LBB4490:
 3996              	.LBB4491:
 3997              		.loc 8 571 0
 3998 0974 801F0124 		lwz 0,292(31)
 3999 0978 7C090050 		subf 0,9,0
 4000 097c 7C001670 		srawi 0,0,2
 4001              	.LBE4491:
 4002              	.LBE4490:
 4003              		.loc 8 718 0
 4004 0980 7F9D0040 		cmplw 7,29,0
 4005 0984 409C020C 		bge- 7,.L222
 4006              	.LBE4489:
 4007              	.LBE4488:
 4008              	.LBE4487:
 4009              		.loc 4 148 0
 4010 0988 7C89F02E 		lwzx 4,9,30
 4011 098c 7FE3FB78 		mr 3,31
 4012 0990 48000001 		bl _ZN8GuiFrame6RemoveEP10GuiElement
 4013              	.LVL290:
 4014              	.LBB4492:
 4015              	.LBB4493:
 4016              		.loc 4 226 0
 4017 0994 813F0120 		lwz 9,288(31)
 4018              	.LBB4494:
 4019              	.LBB4495:
 4020              	.LBB4496:
 4021              		.loc 8 571 0
 4022 0998 801F0124 		lwz 0,292(31)
 4023 099c 7C090050 		subf 0,9,0
 4024 09a0 7C001670 		srawi 0,0,2
 4025              	.LBE4496:
 4026              	.LBE4495:
 4027              		.loc 8 718 0
 4028 09a4 7F9D0040 		cmplw 7,29,0
 4029 09a8 409C01E8 		bge- 7,.L222
 4030              	.LVL291:
 4031              	.LBE4494:
 4032              	.LBE4493:
 4033              	.LBE4492:
 4034              		.loc 4 149 0
 4035 09ac 7C69F02E 		lwzx 3,9,30
 4036 09b0 2F830000 		cmpwi 7,3,0
 4037 09b4 419E0014 		beq- 7,.L209
 4038              		.loc 4 149 0 is_stmt 0 discriminator 1
 4039 09b8 81230000 		lwz 9,0(3)
 4040 09bc 80090004 		lwz 0,4(9)
 4041 09c0 7C0903A6 		mtctr 0
 4042 09c4 4E800421 		bctrl
 4043              	.L209:
 4044              	.LVL292:
 4045              	.LBB4499:
 4046              	.LBB4500:
 4047              		.file 9 "d:\\devkitpro\\devkitppc\\bin\\../lib/gcc/powerpc-eabi/4.6.3/../../../../powerpc-eabi/inc
 4048              		.loc 9 773 0 is_stmt 1
 4049 09c8 807F00FC 		lwz 3,252(31)
 4050              	.LBE4500:
 4051              	.LBE4499:
 4052              	.LBB4502:
 4053              	.LBB4503:
 4054              	.LBB4504:
 4055              		.loc 4 226 0
 4056 09cc 813F0100 		lwz 9,256(31)
 4057              	.LBE4504:
 4058              	.LBE4503:
 4059              	.LBE4502:
 4060              	.LBB4523:
 4061              	.LBB4501:
 4062              		.loc 9 773 0
 4063 09d0 7C63F214 		add 3,3,30
 4064              	.LVL293:
 4065              	.LBE4501:
 4066              	.LBE4523:
 4067              	.LBB4524:
 4068              	.LBB4519:
 4069              	.LBB4505:
 4070              	.LBB4506:
 4071 09d4 38830004 		addi 4,3,4
 4072              	.LVL294:
 4073              	.LBE4506:
 4074              	.LBE4505:
 4075              		.file 10 "d:\\devkitpro\\devkitppc\\bin\\../lib/gcc/powerpc-eabi/4.6.3/../../../../powerpc-eabi/in
 4076              		.loc 10 138 0
 4077 09d8 7F844800 		cmpw 7,4,9
 4078 09dc 419E0010 		beq- 7,.L210
 4079              	.LVL295:
 4080              	.LBB4507:
 4081              	.LBB4508:
 4082              	.LBB4509:
 4083              	.LBB4510:
 4084              	.LBB4511:
 4085              	.LBB4512:
 4086              		.file 11 "d:\\devkitpro\\devkitppc\\bin\\../lib/gcc/powerpc-eabi/4.6.3/../../../../powerpc-eabi/in
 4087              		.loc 11 364 0
 4088 09e0 7CA44850 		subf 5,4,9
 4089              	.LVL296:
 4090              		.loc 11 365 0
 4091 09e4 7CA51671 		srawi. 5,5,2
 4092              	.LVL297:
 4093 09e8 40820198 		bne- 0,.L223
 4094              	.LVL298:
 4095              	.L210:
 4096              	.LBE4512:
 4097              	.LBE4511:
 4098              	.LBE4510:
 4099              	.LBE4509:
 4100              	.LBE4508:
 4101              	.LBE4507:
 4102              	.LBE4519:
 4103              	.LBE4524:
 4104              	.LBB4525:
 4105              	.LBB4526:
 4106              		.loc 9 773 0
 4107 09ec 807F0108 		lwz 3,264(31)
 4108              	.LBE4526:
 4109              	.LBE4525:
 4110              	.LBB4528:
 4111              	.LBB4520:
 4112              		.loc 10 140 0
 4113 09f0 3929FFFC 		addi 9,9,-4
 4114              	.LBE4520:
 4115              	.LBE4528:
 4116              	.LBB4529:
 4117              	.LBB4530:
 4118              	.LBB4531:
 4119              		.loc 4 226 0
 4120 09f4 817F010C 		lwz 11,268(31)
 4121              	.LBE4531:
 4122              	.LBE4530:
 4123              	.LBE4529:
 4124              	.LBB4550:
 4125              	.LBB4527:
 4126              		.loc 9 773 0
 4127 09f8 7C63F214 		add 3,3,30
 4128              	.LBE4527:
 4129              	.LBE4550:
 4130              	.LBB4551:
 4131              	.LBB4521:
 4132              		.loc 10 140 0
 4133 09fc 913F0100 		stw 9,256(31)
 4134              	.LVL299:
 4135              	.LBE4521:
 4136              	.LBE4551:
 4137              	.LBB4552:
 4138              	.LBB4546:
 4139              	.LBB4532:
 4140              	.LBB4533:
 4141              		.loc 9 773 0
 4142 0a00 38830004 		addi 4,3,4
 4143              	.LBE4533:
 4144              	.LBE4532:
 4145              		.loc 10 138 0
 4146 0a04 7F845800 		cmpw 7,4,11
 4147 0a08 419E0010 		beq- 7,.L211
 4148              	.LVL300:
 4149              	.LBB4534:
 4150              	.LBB4535:
 4151              	.LBB4536:
 4152              	.LBB4537:
 4153              	.LBB4538:
 4154              	.LBB4539:
 4155              		.loc 11 364 0
 4156 0a0c 7CA45850 		subf 5,4,11
 4157              	.LVL301:
 4158              		.loc 11 365 0
 4159 0a10 7CA51671 		srawi. 5,5,2
 4160              	.LVL302:
 4161 0a14 4082015C 		bne- 0,.L224
 4162              	.LVL303:
 4163              	.L211:
 4164              	.LBE4539:
 4165              	.LBE4538:
 4166              	.LBE4537:
 4167              	.LBE4536:
 4168              	.LBE4535:
 4169              	.LBE4534:
 4170              	.LBE4546:
 4171              	.LBE4552:
 4172              	.LBB4553:
 4173              	.LBB4554:
 4174              		.loc 9 773 0
 4175 0a18 807F0114 		lwz 3,276(31)
 4176              	.LBE4554:
 4177              	.LBE4553:
 4178              	.LBB4556:
 4179              	.LBB4547:
 4180              		.loc 10 140 0
 4181 0a1c 396BFFFC 		addi 11,11,-4
 4182              	.LBE4547:
 4183              	.LBE4556:
 4184              	.LBB4557:
 4185              	.LBB4558:
 4186              	.LBB4559:
 4187              		.loc 4 226 0
 4188 0a20 813F0118 		lwz 9,280(31)
 4189              	.LBE4559:
 4190              	.LBE4558:
 4191              	.LBE4557:
 4192              	.LBB4578:
 4193              	.LBB4555:
 4194              		.loc 9 773 0
 4195 0a24 7C63F214 		add 3,3,30
 4196              	.LBE4555:
 4197              	.LBE4578:
 4198              	.LBB4579:
 4199              	.LBB4548:
 4200              		.loc 10 140 0
 4201 0a28 917F010C 		stw 11,268(31)
 4202              	.LVL304:
 4203              	.LBE4548:
 4204              	.LBE4579:
 4205              	.LBB4580:
 4206              	.LBB4574:
 4207              	.LBB4560:
 4208              	.LBB4561:
 4209              		.loc 9 773 0
 4210 0a2c 38830004 		addi 4,3,4
 4211              	.LBE4561:
 4212              	.LBE4560:
 4213              		.loc 10 138 0
 4214 0a30 7F844800 		cmpw 7,4,9
 4215 0a34 419E0010 		beq- 7,.L212
 4216              	.LVL305:
 4217              	.LBB4562:
 4218              	.LBB4563:
 4219              	.LBB4564:
 4220              	.LBB4565:
 4221              	.LBB4566:
 4222              	.LBB4567:
 4223              		.loc 11 364 0
 4224 0a38 7CA44850 		subf 5,4,9
 4225              	.LVL306:
 4226              		.loc 11 365 0
 4227 0a3c 7CA51671 		srawi. 5,5,2
 4228              	.LVL307:
 4229 0a40 40820120 		bne- 0,.L225
 4230              	.LVL308:
 4231              	.L212:
 4232              	.LBE4567:
 4233              	.LBE4566:
 4234              	.LBE4565:
 4235              	.LBE4564:
 4236              	.LBE4563:
 4237              	.LBE4562:
 4238              	.LBE4574:
 4239              	.LBE4580:
 4240              	.LBB4581:
 4241              	.LBB4582:
 4242              		.loc 9 773 0
 4243 0a44 807F0138 		lwz 3,312(31)
 4244              	.LBE4582:
 4245              	.LBE4581:
 4246              	.LBB4584:
 4247              	.LBB4575:
 4248              		.loc 10 140 0
 4249 0a48 3929FFFC 		addi 9,9,-4
 4250              	.LBE4575:
 4251              	.LBE4584:
 4252              	.LBB4585:
 4253              	.LBB4586:
 4254              	.LBB4587:
 4255              		.loc 4 226 0
 4256 0a4c 817F013C 		lwz 11,316(31)
 4257              	.LBE4587:
 4258              	.LBE4586:
 4259              	.LBE4585:
 4260              	.LBB4606:
 4261              	.LBB4583:
 4262              		.loc 9 773 0
 4263 0a50 7C63F214 		add 3,3,30
 4264              	.LBE4583:
 4265              	.LBE4606:
 4266              	.LBB4607:
 4267              	.LBB4576:
 4268              		.loc 10 140 0
 4269 0a54 913F0118 		stw 9,280(31)
 4270              	.LVL309:
 4271              	.LBE4576:
 4272              	.LBE4607:
 4273              	.LBB4608:
 4274              	.LBB4602:
 4275              	.LBB4588:
 4276              	.LBB4589:
 4277              		.loc 9 773 0
 4278 0a58 38830004 		addi 4,3,4
 4279              	.LBE4589:
 4280              	.LBE4588:
 4281              		.loc 10 138 0
 4282 0a5c 7F845800 		cmpw 7,4,11
 4283 0a60 419E0010 		beq- 7,.L213
 4284              	.LVL310:
 4285              	.LBB4590:
 4286              	.LBB4591:
 4287              	.LBB4592:
 4288              	.LBB4593:
 4289              	.LBB4594:
 4290              	.LBB4595:
 4291              		.loc 11 364 0
 4292 0a64 7CA45850 		subf 5,4,11
 4293              	.LVL311:
 4294              		.loc 11 365 0
 4295 0a68 7CA51671 		srawi. 5,5,2
 4296              	.LVL312:
 4297 0a6c 408200E4 		bne- 0,.L226
 4298              	.LVL313:
 4299              	.L213:
 4300              	.LBE4595:
 4301              	.LBE4594:
 4302              	.LBE4593:
 4303              	.LBE4592:
 4304              	.LBE4591:
 4305              	.LBE4590:
 4306              	.LBE4602:
 4307              	.LBE4608:
 4308              	.LBB4609:
 4309              	.LBB4610:
 4310              		.loc 9 773 0
 4311 0a70 807F012C 		lwz 3,300(31)
 4312              	.LBE4610:
 4313              	.LBE4609:
 4314              	.LBB4612:
 4315              	.LBB4603:
 4316              		.loc 10 140 0
 4317 0a74 396BFFFC 		addi 11,11,-4
 4318              	.LBE4603:
 4319              	.LBE4612:
 4320              	.LBB4613:
 4321              	.LBB4614:
 4322              	.LBB4615:
 4323              		.loc 4 226 0
 4324 0a78 813F0130 		lwz 9,304(31)
 4325              	.LBE4615:
 4326              	.LBE4614:
 4327              	.LBE4613:
 4328              	.LBB4634:
 4329              	.LBB4611:
 4330              		.loc 9 773 0
 4331 0a7c 7C63F214 		add 3,3,30
 4332              	.LBE4611:
 4333              	.LBE4634:
 4334              	.LBB4635:
 4335              	.LBB4604:
 4336              		.loc 10 140 0
 4337 0a80 917F013C 		stw 11,316(31)
 4338              	.LVL314:
 4339              	.LBE4604:
 4340              	.LBE4635:
 4341              	.LBB4636:
 4342              	.LBB4630:
 4343              	.LBB4616:
 4344              	.LBB4617:
 4345              		.loc 9 773 0
 4346 0a84 38830004 		addi 4,3,4
 4347              	.LBE4617:
 4348              	.LBE4616:
 4349              		.loc 10 138 0
 4350 0a88 7F844800 		cmpw 7,4,9
 4351 0a8c 419E0010 		beq- 7,.L214
 4352              	.LVL315:
 4353              	.LBB4618:
 4354              	.LBB4619:
 4355              	.LBB4620:
 4356              	.LBB4621:
 4357              	.LBB4622:
 4358              	.LBB4623:
 4359              		.loc 11 364 0
 4360 0a90 7CA44850 		subf 5,4,9
 4361              	.LVL316:
 4362              		.loc 11 365 0
 4363 0a94 7CA51671 		srawi. 5,5,2
 4364              	.LVL317:
 4365 0a98 408200A8 		bne- 0,.L227
 4366              	.LVL318:
 4367              	.L214:
 4368              	.LBE4623:
 4369              	.LBE4622:
 4370              	.LBE4621:
 4371              	.LBE4620:
 4372              	.LBE4619:
 4373              	.LBE4618:
 4374              	.LBE4630:
 4375              	.LBE4636:
 4376              	.LBB4637:
 4377              	.LBB4638:
 4378              		.loc 9 773 0
 4379 0a9c 807F0144 		lwz 3,324(31)
 4380              	.LBE4638:
 4381              	.LBE4637:
 4382              	.LBB4640:
 4383              	.LBB4631:
 4384              		.loc 10 140 0
 4385 0aa0 3929FFFC 		addi 9,9,-4
 4386              	.LBE4631:
 4387              	.LBE4640:
 4388              	.LBB4641:
 4389              	.LBB4642:
 4390              	.LBB4643:
 4391              		.loc 4 226 0
 4392 0aa4 817F0148 		lwz 11,328(31)
 4393              	.LBE4643:
 4394              	.LBE4642:
 4395              	.LBE4641:
 4396              	.LBB4662:
 4397              	.LBB4639:
 4398              		.loc 9 773 0
 4399 0aa8 7C63F214 		add 3,3,30
 4400              	.LBE4639:
 4401              	.LBE4662:
 4402              	.LBB4663:
 4403              	.LBB4632:
 4404              		.loc 10 140 0
 4405 0aac 913F0130 		stw 9,304(31)
 4406              	.LVL319:
 4407              	.LBE4632:
 4408              	.LBE4663:
 4409              	.LBB4664:
 4410              	.LBB4658:
 4411              	.LBB4644:
 4412              	.LBB4645:
 4413              		.loc 9 773 0
 4414 0ab0 38830004 		addi 4,3,4
 4415              	.LBE4645:
 4416              	.LBE4644:
 4417              		.loc 10 138 0
 4418 0ab4 7F845800 		cmpw 7,4,11
 4419 0ab8 419E0010 		beq- 7,.L215
 4420              	.LVL320:
 4421              	.LBB4646:
 4422              	.LBB4647:
 4423              	.LBB4648:
 4424              	.LBB4649:
 4425              	.LBB4650:
 4426              	.LBB4651:
 4427              		.loc 11 364 0
 4428 0abc 7CA45850 		subf 5,4,11
 4429              	.LVL321:
 4430              		.loc 11 365 0
 4431 0ac0 7CA51671 		srawi. 5,5,2
 4432              	.LVL322:
 4433 0ac4 4082006C 		bne- 0,.L228
 4434              	.LVL323:
 4435              	.L215:
 4436              	.LBE4651:
 4437              	.LBE4650:
 4438              	.LBE4649:
 4439              	.LBE4648:
 4440              	.LBE4647:
 4441              	.LBE4646:
 4442              	.LBE4658:
 4443              	.LBE4664:
 4444              	.LBB4665:
 4445              	.LBB4666:
 4446              		.loc 9 773 0
 4447 0ac8 807F0120 		lwz 3,288(31)
 4448              	.LBE4666:
 4449              	.LBE4665:
 4450              	.LBB4668:
 4451              	.LBB4659:
 4452              		.loc 10 140 0
 4453 0acc 396BFFFC 		addi 11,11,-4
 4454              	.LBE4659:
 4455              	.LBE4668:
 4456              	.LBB4669:
 4457              	.LBB4670:
 4458              	.LBB4671:
 4459              		.loc 4 226 0
 4460 0ad0 813F0124 		lwz 9,292(31)
 4461              	.LBE4671:
 4462              	.LBE4670:
 4463              	.LBE4669:
 4464              	.LBB4688:
 4465              	.LBB4667:
 4466              		.loc 9 773 0
 4467 0ad4 7C63F214 		add 3,3,30
 4468              	.LBE4667:
 4469              	.LBE4688:
 4470              	.LBB4689:
 4471              	.LBB4660:
 4472              		.loc 10 140 0
 4473 0ad8 917F0148 		stw 11,328(31)
 4474              	.LVL324:
 4475              	.LBE4660:
 4476              	.LBE4689:
 4477              	.LBB4690:
 4478              	.LBB4686:
 4479              	.LBB4672:
 4480              	.LBB4673:
 4481              		.loc 9 773 0
 4482 0adc 38830004 		addi 4,3,4
 4483              	.LBE4673:
 4484              	.LBE4672:
 4485              		.loc 10 138 0
 4486 0ae0 7F844800 		cmpw 7,4,9
 4487 0ae4 419E0010 		beq- 7,.L216
 4488              	.LVL325:
 4489              	.LBB4674:
 4490              	.LBB4675:
 4491              	.LBB4676:
 4492              	.LBB4677:
 4493              	.LBB4678:
 4494              	.LBB4679:
 4495              		.loc 11 364 0
 4496 0ae8 7CA44850 		subf 5,4,9
 4497              	.LVL326:
 4498              		.loc 11 365 0
 4499 0aec 7CA51671 		srawi. 5,5,2
 4500              	.LVL327:
 4501 0af0 40820028 		bne- 0,.L229
 4502              	.LVL328:
 4503              	.L216:
 4504              	.LBE4679:
 4505              	.LBE4678:
 4506              	.LBE4677:
 4507              	.LBE4676:
 4508              	.LBE4675:
 4509              	.LBE4674:
 4510              		.loc 10 140 0
 4511 0af4 3929FFFC 		addi 9,9,-4
 4512 0af8 913F0124 		stw 9,292(31)
 4513              	.LVL329:
 4514              	.L187:
 4515              	.LBE4686:
 4516              	.LBE4690:
 4517              		.loc 4 158 0
 4518 0afc 8001001C 		lwz 0,28(1)
 4519 0b00 83A1000C 		lwz 29,12(1)
 4520              	.LVL330:
 4521 0b04 7C0803A6 		mtlr 0
 4522 0b08 83C10010 		lwz 30,16(1)
 4523 0b0c 83E10014 		lwz 31,20(1)
 4524              	.LVL331:
 4525 0b10 38210018 		addi 1,1,24
 4526              		.cfi_remember_state
 4527              	.LCFI60:
 4528              		.cfi_def_cfa_offset 0
 4529              		.cfi_restore 31
 4530              		.cfi_restore 30
 4531              		.cfi_restore 29
 4532 0b14 4E800020 		blr
 4533              	.LVL332:
 4534              	.L229:
 4535              	.LCFI61:
 4536              		.cfi_restore_state
 4537              	.LBB4691:
 4538              	.LBB4687:
 4539              	.LBB4685:
 4540              	.LBB4684:
 4541              	.LBB4683:
 4542              	.LBB4682:
 4543              	.LBB4681:
 4544              	.LBB4680:
 4545              		.loc 11 366 0
 4546 0b18 54A5103A 		slwi 5,5,2
 4547              	.LVL333:
 4548 0b1c 48000001 		bl memmove
 4549              	.LVL334:
 4550 0b20 813F0124 		lwz 9,292(31)
 4551              	.LBE4680:
 4552              	.LBE4681:
 4553              	.LBE4682:
 4554              	.LBE4683:
 4555              	.LBE4684:
 4556              	.LBE4685:
 4557              		.loc 10 140 0
 4558 0b24 3929FFFC 		addi 9,9,-4
 4559 0b28 913F0124 		stw 9,292(31)
 4560 0b2c 4BFFFFD0 		b .L187
 4561              	.LVL335:
 4562              	.L228:
 4563              	.LBE4687:
 4564              	.LBE4691:
 4565              	.LBB4692:
 4566              	.LBB4661:
 4567              	.LBB4657:
 4568              	.LBB4656:
 4569              	.LBB4655:
 4570              	.LBB4654:
 4571              	.LBB4653:
 4572              	.LBB4652:
 4573              		.loc 11 366 0
 4574 0b30 54A5103A 		slwi 5,5,2
 4575              	.LVL336:
 4576 0b34 48000001 		bl memmove
 4577              	.LVL337:
 4578 0b38 817F0148 		lwz 11,328(31)
 4579 0b3c 4BFFFF8C 		b .L215
 4580              	.LVL338:
 4581              	.L227:
 4582              	.LBE4652:
 4583              	.LBE4653:
 4584              	.LBE4654:
 4585              	.LBE4655:
 4586              	.LBE4656:
 4587              	.LBE4657:
 4588              	.LBE4661:
 4589              	.LBE4692:
 4590              	.LBB4693:
 4591              	.LBB4633:
 4592              	.LBB4629:
 4593              	.LBB4628:
 4594              	.LBB4627:
 4595              	.LBB4626:
 4596              	.LBB4625:
 4597              	.LBB4624:
 4598 0b40 54A5103A 		slwi 5,5,2
 4599              	.LVL339:
 4600 0b44 48000001 		bl memmove
 4601              	.LVL340:
 4602 0b48 813F0130 		lwz 9,304(31)
 4603 0b4c 4BFFFF50 		b .L214
 4604              	.LVL341:
 4605              	.L226:
 4606              	.LBE4624:
 4607              	.LBE4625:
 4608              	.LBE4626:
 4609              	.LBE4627:
 4610              	.LBE4628:
 4611              	.LBE4629:
 4612              	.LBE4633:
 4613              	.LBE4693:
 4614              	.LBB4694:
 4615              	.LBB4605:
 4616              	.LBB4601:
 4617              	.LBB4600:
 4618              	.LBB4599:
 4619              	.LBB4598:
 4620              	.LBB4597:
 4621              	.LBB4596:
 4622 0b50 54A5103A 		slwi 5,5,2
 4623              	.LVL342:
 4624 0b54 48000001 		bl memmove
 4625              	.LVL343:
 4626 0b58 817F013C 		lwz 11,316(31)
 4627 0b5c 4BFFFF14 		b .L213
 4628              	.LVL344:
 4629              	.L225:
 4630              	.LBE4596:
 4631              	.LBE4597:
 4632              	.LBE4598:
 4633              	.LBE4599:
 4634              	.LBE4600:
 4635              	.LBE4601:
 4636              	.LBE4605:
 4637              	.LBE4694:
 4638              	.LBB4695:
 4639              	.LBB4577:
 4640              	.LBB4573:
 4641              	.LBB4572:
 4642              	.LBB4571:
 4643              	.LBB4570:
 4644              	.LBB4569:
 4645              	.LBB4568:
 4646 0b60 54A5103A 		slwi 5,5,2
 4647              	.LVL345:
 4648 0b64 48000001 		bl memmove
 4649              	.LVL346:
 4650 0b68 813F0118 		lwz 9,280(31)
 4651 0b6c 4BFFFED8 		b .L212
 4652              	.LVL347:
 4653              	.L224:
 4654              	.LBE4568:
 4655              	.LBE4569:
 4656              	.LBE4570:
 4657              	.LBE4571:
 4658              	.LBE4572:
 4659              	.LBE4573:
 4660              	.LBE4577:
 4661              	.LBE4695:
 4662              	.LBB4696:
 4663              	.LBB4549:
 4664              	.LBB4545:
 4665              	.LBB4544:
 4666              	.LBB4543:
 4667              	.LBB4542:
 4668              	.LBB4541:
 4669              	.LBB4540:
 4670 0b70 54A5103A 		slwi 5,5,2
 4671              	.LVL348:
 4672 0b74 48000001 		bl memmove
 4673              	.LVL349:
 4674 0b78 817F010C 		lwz 11,268(31)
 4675 0b7c 4BFFFE9C 		b .L211
 4676              	.LVL350:
 4677              	.L223:
 4678              	.LBE4540:
 4679              	.LBE4541:
 4680              	.LBE4542:
 4681              	.LBE4543:
 4682              	.LBE4544:
 4683              	.LBE4545:
 4684              	.LBE4549:
 4685              	.LBE4696:
 4686              	.LBB4697:
 4687              	.LBB4522:
 4688              	.LBB4518:
 4689              	.LBB4517:
 4690              	.LBB4516:
 4691              	.LBB4515:
 4692              	.LBB4514:
 4693              	.LBB4513:
 4694 0b80 54A5103A 		slwi 5,5,2
 4695              	.LVL351:
 4696 0b84 48000001 		bl memmove
 4697              	.LVL352:
 4698 0b88 813F0100 		lwz 9,256(31)
 4699 0b8c 4BFFFE60 		b .L210
 4700              	.LVL353:
 4701              	.L222:
 4702              	.LBE4513:
 4703              	.LBE4514:
 4704              	.LBE4515:
 4705              	.LBE4516:
 4706              	.LBE4517:
 4707              	.LBE4518:
 4708              	.LBE4522:
 4709              	.LBE4697:
 4710              	.LBB4698:
 4711              	.LBB4498:
 4712              	.LBB4497:
 4713              		.loc 8 719 0
 4714 0b90 3C600000 		lis 3,.LC4@ha
 4715 0b94 38630000 		la 3,.LC4@l(3)
 4716 0b98 48000001 		bl _ZSt20__throw_out_of_rangePKc
 4717              	.LBE4497:
 4718              	.LBE4498:
 4719              	.LBE4698:
 4720              		.cfi_endproc
 4721              	.LFE1576:
 4722              		.size	_ZN14GuiArrowOption12RemoveOptionEi, .-_ZN14GuiArrowOption12RemoveOptionEi
 4723              		.align 2
 4724              		.globl _ZN14GuiArrowOption14GetOptionCountEv
 4725              		.type	_ZN14GuiArrowOption14GetOptionCountEv, @function
 4726              	_ZN14GuiArrowOption14GetOptionCountEv:
 4727              	.LFB1577:
 4728              		.loc 4 161 0
 4729              		.cfi_startproc
 4730              	.LVL354:
 4731              	.LBB4699:
 4732              	.LBB4700:
 4733              		.loc 8 571 0
 4734 0b9c 81230118 		lwz 9,280(3)
 4735 0ba0 80030114 		lwz 0,276(3)
 4736              	.LBE4700:
 4737              	.LBE4699:
 4738              		.loc 4 163 0
 4739              	.LBB4702:
 4740              	.LBB4701:
 4741              		.loc 8 571 0
 4742 0ba4 7C604850 		subf 3,0,9
 4743              	.LVL355:
 4744              	.LBE4701:
 4745              	.LBE4702:
 4746              		.loc 4 163 0
 4747 0ba8 7C631670 		srawi 3,3,2
 4748 0bac 4E800020 		blr
 4749              		.cfi_endproc
 4750              	.LFE1577:
 4751              		.size	_ZN14GuiArrowOption14GetOptionCountEv, .-_ZN14GuiArrowOption14GetOptionCountEv
 4752              		.align 2
 4753              		.globl _ZN14GuiArrowOption9GetButtonEi
 4754              		.type	_ZN14GuiArrowOption9GetButtonEi, @function
 4755              	_ZN14GuiArrowOption9GetButtonEi:
 4756              	.LFB1581:
 4757              		.loc 4 181 0
 4758              		.cfi_startproc
 4759              	.LVL356:
 4760              		.loc 4 182 0
 4761 0bb0 2C040000 		cmpwi 0,4,0
 4762              		.loc 4 181 0
 4763 0bb4 7C0802A6 		mflr 0
 4764 0bb8 9421FFF8 		stwu 1,-8(1)
 4765              	.LCFI62:
 4766              		.cfi_def_cfa_offset 8
 4767              		.cfi_register 65, 0
 4768 0bbc 9001000C 		stw 0,12(1)
 4769              		.loc 4 182 0
 4770 0bc0 41800040 		blt- 0,.L236
 4771              		.cfi_offset 65, 4
 4772              		.loc 4 226 0 discriminator 2
 4773 0bc4 81230114 		lwz 9,276(3)
 4774              	.LBB4713:
 4775              	.LBB4714:
 4776              		.loc 8 571 0 discriminator 2
 4777 0bc8 80030118 		lwz 0,280(3)
 4778              	.LBE4714:
 4779              	.LBE4713:
 4780              		.loc 4 183 0 discriminator 2
 4781 0bcc 38600000 		li 3,0
 4782              	.LVL357:
 4783              	.LBB4716:
 4784              	.LBB4715:
 4785              		.loc 8 571 0 discriminator 2
 4786 0bd0 7C090050 		subf 0,9,0
 4787 0bd4 7C001670 		srawi 0,0,2
 4788              	.LBE4715:
 4789              	.LBE4716:
 4790              		.loc 4 182 0 discriminator 2
 4791 0bd8 7F840000 		cmpw 7,4,0
 4792 0bdc 409C0014 		bge- 7,.L232
 4793              	.LVL358:
 4794              	.LBB4717:
 4795              	.LBB4718:
 4796              	.LBB4719:
 4797              		.loc 8 718 0
 4798 0be0 7F840040 		cmplw 7,4,0
 4799 0be4 409C0030 		bge- 7,.L240
 4800              	.LVL359:
 4801              	.LBE4719:
 4802              	.LBE4718:
 4803              	.LBE4717:
 4804              		.loc 4 185 0
 4805 0be8 5484103A 		slwi 4,4,2
 4806              	.LVL360:
 4807 0bec 7C69202E 		lwzx 3,9,4
 4808              	.LVL361:
 4809              	.L232:
 4810              		.loc 4 186 0
 4811 0bf0 8001000C 		lwz 0,12(1)
 4812 0bf4 38210008 		addi 1,1,8
 4813              		.cfi_remember_state
 4814              	.LCFI63:
 4815              		.cfi_def_cfa_offset 0
 4816 0bf8 7C0803A6 		mtlr 0
 4817 0bfc 4E800020 		blr
 4818              	.LVL362:
 4819              	.L236:
 4820              	.LCFI64:
 4821              		.cfi_restore_state
 4822 0c00 8001000C 		lwz 0,12(1)
 4823              		.loc 4 183 0
 4824 0c04 38600000 		li 3,0
 4825              	.LVL363:
 4826              		.loc 4 186 0
 4827 0c08 38210008 		addi 1,1,8
 4828              		.cfi_remember_state
 4829              	.LCFI65:
 4830              		.cfi_def_cfa_offset 0
 4831 0c0c 7C0803A6 		mtlr 0
 4832 0c10 4E800020 		blr
 4833              	.LVL364:
 4834              	.L240:
 4835              	.LCFI66:
 4836              		.cfi_restore_state
 4837              	.LBB4722:
 4838              	.LBB4721:
 4839              	.LBB4720:
 4840              		.loc 8 719 0
 4841 0c14 3C600000 		lis 3,.LC4@ha
 4842 0c18 38630000 		la 3,.LC4@l(3)
 4843 0c1c 48000001 		bl _ZSt20__throw_out_of_rangePKc
 4844              	.LVL365:
 4845              	.LVL366:
 4846              	.LVL367:
 4847              	.LBE4720:
 4848              	.LBE4721:
 4849              	.LBE4722:
 4850              		.cfi_endproc
 4851              	.LFE1581:
 4852              		.size	_ZN14GuiArrowOption9GetButtonEi, .-_ZN14GuiArrowOption9GetButtonEi
 4853              		.align 2
 4854              		.globl _ZN14GuiArrowOption13GetButtonLeftEi
 4855              		.type	_ZN14GuiArrowOption13GetButtonLeftEi, @function
 4856              	_ZN14GuiArrowOption13GetButtonLeftEi:
 4857              	.LFB1582:
 4858              		.loc 4 189 0
 4859              		.cfi_startproc
 4860              	.LVL368:
 4861              		.loc 4 190 0
 4862 0c20 2C040000 		cmpwi 0,4,0
 4863              		.loc 4 189 0
 4864 0c24 7C0802A6 		mflr 0
 4865 0c28 9421FFF8 		stwu 1,-8(1)
 4866              	.LCFI67:
 4867              		.cfi_def_cfa_offset 8
 4868              		.cfi_register 65, 0
 4869 0c2c 9001000C 		stw 0,12(1)
 4870              		.loc 4 190 0
 4871 0c30 41800040 		blt- 0,.L246
 4872              		.cfi_offset 65, 4
 4873              		.loc 4 226 0 discriminator 2
 4874 0c34 8123012C 		lwz 9,300(3)
 4875              	.LBB4733:
 4876              	.LBB4734:
 4877              		.loc 8 571 0 discriminator 2
 4878 0c38 80030130 		lwz 0,304(3)
 4879              	.LBE4734:
 4880              	.LBE4733:
 4881              		.loc 4 191 0 discriminator 2
 4882 0c3c 38600000 		li 3,0
 4883              	.LVL369:
 4884              	.LBB4736:
 4885              	.LBB4735:
 4886              		.loc 8 571 0 discriminator 2
 4887 0c40 7C090050 		subf 0,9,0
 4888 0c44 7C001670 		srawi 0,0,2
 4889              	.LBE4735:
 4890              	.LBE4736:
 4891              		.loc 4 190 0 discriminator 2
 4892 0c48 7F840000 		cmpw 7,4,0
 4893 0c4c 409C0014 		bge- 7,.L242
 4894              	.LVL370:
 4895              	.LBB4737:
 4896              	.LBB4738:
 4897              	.LBB4739:
 4898              		.loc 8 718 0
 4899 0c50 7F840040 		cmplw 7,4,0
 4900 0c54 409C0030 		bge- 7,.L250
 4901              	.LVL371:
 4902              	.LBE4739:
 4903              	.LBE4738:
 4904              	.LBE4737:
 4905              		.loc 4 193 0
 4906 0c58 5484103A 		slwi 4,4,2
 4907              	.LVL372:
 4908 0c5c 7C69202E 		lwzx 3,9,4
 4909              	.LVL373:
 4910              	.L242:
 4911              		.loc 4 194 0
 4912 0c60 8001000C 		lwz 0,12(1)
 4913 0c64 38210008 		addi 1,1,8
 4914              		.cfi_remember_state
 4915              	.LCFI68:
 4916              		.cfi_def_cfa_offset 0
 4917 0c68 7C0803A6 		mtlr 0
 4918 0c6c 4E800020 		blr
 4919              	.LVL374:
 4920              	.L246:
 4921              	.LCFI69:
 4922              		.cfi_restore_state
 4923 0c70 8001000C 		lwz 0,12(1)
 4924              		.loc 4 191 0
 4925 0c74 38600000 		li 3,0
 4926              	.LVL375:
 4927              		.loc 4 194 0
 4928 0c78 38210008 		addi 1,1,8
 4929              		.cfi_remember_state
 4930              	.LCFI70:
 4931              		.cfi_def_cfa_offset 0
 4932 0c7c 7C0803A6 		mtlr 0
 4933 0c80 4E800020 		blr
 4934              	.LVL376:
 4935              	.L250:
 4936              	.LCFI71:
 4937              		.cfi_restore_state
 4938              	.LBB4742:
 4939              	.LBB4741:
 4940              	.LBB4740:
 4941              		.loc 8 719 0
 4942 0c84 3C600000 		lis 3,.LC4@ha
 4943 0c88 38630000 		la 3,.LC4@l(3)
 4944 0c8c 48000001 		bl _ZSt20__throw_out_of_rangePKc
 4945              	.LVL377:
 4946              	.LVL378:
 4947              	.LVL379:
 4948              	.LBE4740:
 4949              	.LBE4741:
 4950              	.LBE4742:
 4951              		.cfi_endproc
 4952              	.LFE1582:
 4953              		.size	_ZN14GuiArrowOption13GetButtonLeftEi, .-_ZN14GuiArrowOption13GetButtonLeftEi
 4954              		.align 2
 4955              		.globl _ZN14GuiArrowOption14GetButtonRightEi
 4956              		.type	_ZN14GuiArrowOption14GetButtonRightEi, @function
 4957              	_ZN14GuiArrowOption14GetButtonRightEi:
 4958              	.LFB1583:
 4959              		.loc 4 197 0
 4960              		.cfi_startproc
 4961              	.LVL380:
 4962              		.loc 4 198 0
 4963 0c90 2C040000 		cmpwi 0,4,0
 4964              		.loc 4 197 0
 4965 0c94 7C0802A6 		mflr 0
 4966 0c98 9421FFF8 		stwu 1,-8(1)
 4967              	.LCFI72:
 4968              		.cfi_def_cfa_offset 8
 4969              		.cfi_register 65, 0
 4970 0c9c 9001000C 		stw 0,12(1)
 4971              		.loc 4 198 0
 4972 0ca0 41800040 		blt- 0,.L256
 4973              		.cfi_offset 65, 4
 4974              		.loc 4 226 0 discriminator 2
 4975 0ca4 81230120 		lwz 9,288(3)
 4976              	.LBB4753:
 4977              	.LBB4754:
 4978              		.loc 8 571 0 discriminator 2
 4979 0ca8 80030124 		lwz 0,292(3)
 4980              	.LBE4754:
 4981              	.LBE4753:
 4982              		.loc 4 199 0 discriminator 2
 4983 0cac 38600000 		li 3,0
 4984              	.LVL381:
 4985              	.LBB4756:
 4986              	.LBB4755:
 4987              		.loc 8 571 0 discriminator 2
 4988 0cb0 7C090050 		subf 0,9,0
 4989 0cb4 7C001670 		srawi 0,0,2
 4990              	.LBE4755:
 4991              	.LBE4756:
 4992              		.loc 4 198 0 discriminator 2
 4993 0cb8 7F840000 		cmpw 7,4,0
 4994 0cbc 409C0014 		bge- 7,.L252
 4995              	.LVL382:
 4996              	.LBB4757:
 4997              	.LBB4758:
 4998              	.LBB4759:
 4999              		.loc 8 718 0
 5000 0cc0 7F840040 		cmplw 7,4,0
 5001 0cc4 409C0030 		bge- 7,.L260
 5002              	.LVL383:
 5003              	.LBE4759:
 5004              	.LBE4758:
 5005              	.LBE4757:
 5006              		.loc 4 201 0
 5007 0cc8 5484103A 		slwi 4,4,2
 5008              	.LVL384:
 5009 0ccc 7C69202E 		lwzx 3,9,4
 5010              	.LVL385:
 5011              	.L252:
 5012              		.loc 4 202 0
 5013 0cd0 8001000C 		lwz 0,12(1)
 5014 0cd4 38210008 		addi 1,1,8
 5015              		.cfi_remember_state
 5016              	.LCFI73:
 5017              		.cfi_def_cfa_offset 0
 5018 0cd8 7C0803A6 		mtlr 0
 5019 0cdc 4E800020 		blr
 5020              	.LVL386:
 5021              	.L256:
 5022              	.LCFI74:
 5023              		.cfi_restore_state
 5024 0ce0 8001000C 		lwz 0,12(1)
 5025              		.loc 4 199 0
 5026 0ce4 38600000 		li 3,0
 5027              	.LVL387:
 5028              		.loc 4 202 0
 5029 0ce8 38210008 		addi 1,1,8
 5030              		.cfi_remember_state
 5031              	.LCFI75:
 5032              		.cfi_def_cfa_offset 0
 5033 0cec 7C0803A6 		mtlr 0
 5034 0cf0 4E800020 		blr
 5035              	.LVL388:
 5036              	.L260:
 5037              	.LCFI76:
 5038              		.cfi_restore_state
 5039              	.LBB4762:
 5040              	.LBB4761:
 5041              	.LBB4760:
 5042              		.loc 8 719 0
 5043 0cf4 3C600000 		lis 3,.LC4@ha
 5044 0cf8 38630000 		la 3,.LC4@l(3)
 5045 0cfc 48000001 		bl _ZSt20__throw_out_of_rangePKc
 5046              	.LVL389:
 5047              	.LVL390:
 5048              	.LVL391:
 5049              	.LBE4760:
 5050              	.LBE4761:
 5051              	.LBE4762:
 5052              		.cfi_endproc
 5053              	.LFE1583:
 5054              		.size	_ZN14GuiArrowOption14GetButtonRightEi, .-_ZN14GuiArrowOption14GetButtonRightEi
 5055              		.align 2
 5056              		.globl _ZN14GuiArrowOption9ClearListEv
 5057              		.type	_ZN14GuiArrowOption9ClearListEv, @function
 5058              	_ZN14GuiArrowOption9ClearListEv:
 5059              	.LFB1584:
 5060              		.loc 4 205 0
 5061              		.cfi_startproc
 5062              	.LVL392:
 5063 0d00 9421FFE8 		stwu 1,-24(1)
 5064              	.LCFI77:
 5065              		.cfi_def_cfa_offset 24
 5066 0d04 7C0802A6 		mflr 0
 5067 0d08 93E10014 		stw 31,20(1)
 5068 0d0c 7C7F1B78 		mr 31,3
 5069              		.cfi_offset 31, -4
 5070              		.cfi_register 65, 0
 5071 0d10 9001001C 		stw 0,28(1)
 5072 0d14 93A1000C 		stw 29,12(1)
 5073 0d18 93C10010 		stw 30,16(1)
 5074              	.LBB4851:
 5075              		.loc 4 206 0
 5076              		.cfi_offset 30, -8
 5077              		.cfi_offset 29, -12
 5078              		.cfi_offset 65, 4
 5079 0d1c 48000001 		bl _ZN8GuiFrame9RemoveAllEv
 5080              	.LVL393:
 5081              		.loc 4 226 0
 5082 0d20 801F0114 		lwz 0,276(31)
 5083              	.LBB4852:
 5084              	.LBB4853:
 5085              	.LBB4854:
 5086              		.loc 8 571 0
 5087 0d24 813F0118 		lwz 9,280(31)
 5088 0d28 7D204850 		subf 9,0,9
 5089              	.LBE4854:
 5090              	.LBE4853:
 5091              		.loc 4 208 0
 5092 0d2c 552BF0BF 		srwi. 11,9,2
 5093 0d30 418201AC 		beq- 0,.L262
 5094              	.LVL394:
 5095              	.LBB4856:
 5096              	.LBB4857:
 5097              		.loc 4 226 0
 5098 0d34 813F00FC 		lwz 9,252(31)
 5099              	.LBB4858:
 5100              		.loc 8 718 0
 5101 0d38 3BC00000 		li 30,0
 5102              	.LBB4859:
 5103              	.LBB4860:
 5104              		.loc 8 571 0
 5105 0d3c 801F0100 		lwz 0,256(31)
 5106 0d40 7C090050 		subf 0,9,0
 5107              	.LBE4860:
 5108              	.LBE4859:
 5109              		.loc 8 718 0
 5110 0d44 540BF0BF 		srwi. 11,0,2
 5111 0d48 40A20020 		bne+ 0,.L264
 5112 0d4c 480001E0 		b .L281
 5113              	.LVL395:
 5114              	.L278:
 5115              	.LBE4858:
 5116              		.loc 4 226 0
 5117 0d50 813F00FC 		lwz 9,252(31)
 5118              	.LBB4863:
 5119              	.LBB4862:
 5120              	.LBB4861:
 5121              		.loc 8 571 0
 5122 0d54 801F0100 		lwz 0,256(31)
 5123 0d58 7C090050 		subf 0,9,0
 5124 0d5c 7C001670 		srawi 0,0,2
 5125              	.LBE4861:
 5126              	.LBE4862:
 5127              		.loc 8 718 0
 5128 0d60 7F9E0040 		cmplw 7,30,0
 5129 0d64 409C01C8 		bge- 7,.L281
 5130              	.LVL396:
 5131              	.L264:
 5132              		.loc 4 204 0
 5133 0d68 57DD103A 		slwi 29,30,2
 5134              	.LBE4863:
 5135              	.LBE4857:
 5136              	.LBE4856:
 5137              		.loc 4 210 0
 5138 0d6c 7C69E82E 		lwzx 3,9,29
 5139 0d70 2F830000 		cmpwi 7,3,0
 5140 0d74 419E0014 		beq- 7,.L265
 5141              		.loc 4 210 0 is_stmt 0 discriminator 1
 5142 0d78 81230000 		lwz 9,0(3)
 5143 0d7c 80090004 		lwz 0,4(9)
 5144 0d80 7C0903A6 		mtctr 0
 5145 0d84 4E800421 		bctrl
 5146              	.L265:
 5147              	.LVL397:
 5148              	.LBB4864:
 5149              	.LBB4865:
 5150              		.loc 4 226 0 is_stmt 1
 5151 0d88 813F0108 		lwz 9,264(31)
 5152              	.LBB4866:
 5153              	.LBB4867:
 5154              	.LBB4868:
 5155              		.loc 8 571 0
 5156 0d8c 801F010C 		lwz 0,268(31)
 5157 0d90 7C090050 		subf 0,9,0
 5158 0d94 7C001670 		srawi 0,0,2
 5159              	.LBE4868:
 5160              	.LBE4867:
 5161              		.loc 8 718 0
 5162 0d98 7F80F040 		cmplw 7,0,30
 5163 0d9c 409D0190 		ble- 7,.L281
 5164              	.LBE4866:
 5165              	.LBE4865:
 5166              	.LBE4864:
 5167              		.loc 4 211 0
 5168 0da0 7C69E82E 		lwzx 3,9,29
 5169 0da4 2F830000 		cmpwi 7,3,0
 5170 0da8 419E0014 		beq- 7,.L267
 5171              		.loc 4 211 0 is_stmt 0 discriminator 1
 5172 0dac 81230000 		lwz 9,0(3)
 5173 0db0 80090004 		lwz 0,4(9)
 5174 0db4 7C0903A6 		mtctr 0
 5175 0db8 4E800421 		bctrl
 5176              	.L267:
 5177              	.LVL398:
 5178              	.LBB4869:
 5179              	.LBB4870:
 5180              		.loc 4 226 0 is_stmt 1
 5181 0dbc 813F0114 		lwz 9,276(31)
 5182              	.LBB4871:
 5183              	.LBB4872:
 5184              	.LBB4873:
 5185              		.loc 8 571 0
 5186 0dc0 801F0118 		lwz 0,280(31)
 5187 0dc4 7C090050 		subf 0,9,0
 5188 0dc8 7C001670 		srawi 0,0,2
 5189              	.LBE4873:
 5190              	.LBE4872:
 5191              		.loc 8 718 0
 5192 0dcc 7F80F040 		cmplw 7,0,30
 5193 0dd0 409D015C 		ble- 7,.L281
 5194              	.LVL399:
 5195              	.LBE4871:
 5196              	.LBE4870:
 5197              	.LBE4869:
 5198              		.loc 4 212 0
 5199 0dd4 7C69E82E 		lwzx 3,9,29
 5200 0dd8 2F830000 		cmpwi 7,3,0
 5201 0ddc 419E0014 		beq- 7,.L269
 5202              		.loc 4 212 0 is_stmt 0 discriminator 1
 5203 0de0 81230000 		lwz 9,0(3)
 5204 0de4 80090004 		lwz 0,4(9)
 5205 0de8 7C0903A6 		mtctr 0
 5206 0dec 4E800421 		bctrl
 5207              	.L269:
 5208              	.LVL400:
 5209              	.LBB4874:
 5210              	.LBB4875:
 5211              		.loc 4 226 0 is_stmt 1
 5212 0df0 813F0138 		lwz 9,312(31)
 5213              	.LBB4876:
 5214              	.LBB4877:
 5215              	.LBB4878:
 5216              		.loc 8 571 0
 5217 0df4 801F013C 		lwz 0,316(31)
 5218 0df8 7C090050 		subf 0,9,0
 5219 0dfc 7C001670 		srawi 0,0,2
 5220              	.LBE4878:
 5221              	.LBE4877:
 5222              		.loc 8 718 0
 5223 0e00 7F80F040 		cmplw 7,0,30
 5224 0e04 409D0128 		ble- 7,.L281
 5225              	.LVL401:
 5226              	.LBE4876:
 5227              	.LBE4875:
 5228              	.LBE4874:
 5229              		.loc 4 213 0
 5230 0e08 7C69E82E 		lwzx 3,9,29
 5231 0e0c 2F830000 		cmpwi 7,3,0
 5232 0e10 419E0014 		beq- 7,.L271
 5233              		.loc 4 213 0 is_stmt 0 discriminator 1
 5234 0e14 81230000 		lwz 9,0(3)
 5235 0e18 80090004 		lwz 0,4(9)
 5236 0e1c 7C0903A6 		mtctr 0
 5237 0e20 4E800421 		bctrl
 5238              	.L271:
 5239              	.LVL402:
 5240              	.LBB4879:
 5241              	.LBB4880:
 5242              		.loc 4 226 0 is_stmt 1
 5243 0e24 813F012C 		lwz 9,300(31)
 5244              	.LBB4881:
 5245              	.LBB4882:
 5246              	.LBB4883:
 5247              		.loc 8 571 0
 5248 0e28 801F0130 		lwz 0,304(31)
 5249 0e2c 7C090050 		subf 0,9,0
 5250 0e30 7C001670 		srawi 0,0,2
 5251              	.LBE4883:
 5252              	.LBE4882:
 5253              		.loc 8 718 0
 5254 0e34 7F80F040 		cmplw 7,0,30
 5255 0e38 409D00F4 		ble- 7,.L281
 5256              	.LBE4881:
 5257              	.LBE4880:
 5258              	.LBE4879:
 5259              		.loc 4 214 0
 5260 0e3c 7C69E82E 		lwzx 3,9,29
 5261 0e40 2F830000 		cmpwi 7,3,0
 5262 0e44 419E0014 		beq- 7,.L273
 5263              		.loc 4 214 0 is_stmt 0 discriminator 1
 5264 0e48 81230000 		lwz 9,0(3)
 5265 0e4c 80090004 		lwz 0,4(9)
 5266 0e50 7C0903A6 		mtctr 0
 5267 0e54 4E800421 		bctrl
 5268              	.L273:
 5269              	.LVL403:
 5270              	.LBB4884:
 5271              	.LBB4885:
 5272              		.loc 4 226 0 is_stmt 1
 5273 0e58 813F0144 		lwz 9,324(31)
 5274              	.LBB4886:
 5275              	.LBB4887:
 5276              	.LBB4888:
 5277              		.loc 8 571 0
 5278 0e5c 801F0148 		lwz 0,328(31)
 5279 0e60 7C090050 		subf 0,9,0
 5280 0e64 7C001670 		srawi 0,0,2
 5281              	.LBE4888:
 5282              	.LBE4887:
 5283              		.loc 8 718 0
 5284 0e68 7F9E0040 		cmplw 7,30,0
 5285 0e6c 409C00C0 		bge- 7,.L281
 5286              	.LBE4886:
 5287              	.LBE4885:
 5288              	.LBE4884:
 5289              		.loc 4 215 0
 5290 0e70 7C69E82E 		lwzx 3,9,29
 5291 0e74 2F830000 		cmpwi 7,3,0
 5292 0e78 419E0014 		beq- 7,.L275
 5293              		.loc 4 215 0 is_stmt 0 discriminator 1
 5294 0e7c 81230000 		lwz 9,0(3)
 5295 0e80 80090004 		lwz 0,4(9)
 5296 0e84 7C0903A6 		mtctr 0
 5297 0e88 4E800421 		bctrl
 5298              	.L275:
 5299              	.LVL404:
 5300              	.LBB4889:
 5301              	.LBB4890:
 5302              		.loc 4 226 0 is_stmt 1
 5303 0e8c 813F0120 		lwz 9,288(31)
 5304              	.LBB4891:
 5305              	.LBB4892:
 5306              	.LBB4893:
 5307              		.loc 8 571 0
 5308 0e90 801F0124 		lwz 0,292(31)
 5309 0e94 7C090050 		subf 0,9,0
 5310 0e98 7C001670 		srawi 0,0,2
 5311              	.LBE4893:
 5312              	.LBE4892:
 5313              		.loc 8 718 0
 5314 0e9c 7F9E0040 		cmplw 7,30,0
 5315 0ea0 409C008C 		bge- 7,.L281
 5316              	.LBE4891:
 5317              	.LBE4890:
 5318              	.LBE4889:
 5319              		.loc 4 216 0
 5320 0ea4 7C69E82E 		lwzx 3,9,29
 5321 0ea8 2F830000 		cmpwi 7,3,0
 5322 0eac 419E0014 		beq- 7,.L277
 5323              		.loc 4 216 0 is_stmt 0 discriminator 1
 5324 0eb0 81230000 		lwz 9,0(3)
 5325 0eb4 80090004 		lwz 0,4(9)
 5326 0eb8 7C0903A6 		mtctr 0
 5327 0ebc 4E800421 		bctrl
 5328              	.L277:
 5329              		.loc 4 226 0 is_stmt 1
 5330 0ec0 801F0114 		lwz 0,276(31)
 5331              		.loc 4 208 0
 5332 0ec4 3BDE0001 		addi 30,30,1
 5333              	.LVL405:
 5334              	.LBB4896:
 5335              	.LBB4855:
 5336              		.loc 8 571 0
 5337 0ec8 813F0118 		lwz 9,280(31)
 5338 0ecc 7D204850 		subf 9,0,9
 5339 0ed0 7D291670 		srawi 9,9,2
 5340              	.LBE4855:
 5341              	.LBE4896:
 5342              		.loc 4 208 0
 5343 0ed4 7F9E4840 		cmplw 7,30,9
 5344 0ed8 419CFE78 		blt+ 7,.L278
 5345              	.LVL406:
 5346              	.L262:
 5347              	.LBE4852:
 5348              	.LBB4898:
 5349              	.LBB4899:
 5350              	.LBB4900:
 5351              		.loc 8 1256 0
 5352 0edc 901F0118 		stw 0,280(31)
 5353              	.LBE4900:
 5354              	.LBE4899:
 5355              	.LBE4898:
 5356              	.LBE4851:
 5357              		.loc 4 226 0
 5358 0ee0 8001001C 		lwz 0,28(1)
 5359              	.LBB4950:
 5360              	.LBB4901:
 5361              	.LBB4902:
 5362              	.LBB4903:
 5363              	.LBB4904:
 5364              		.loc 8 1256 0
 5365 0ee4 80DF00FC 		lwz 6,252(31)
 5366              	.LBE4904:
 5367              	.LBE4903:
 5368              	.LBE4902:
 5369              	.LBE4901:
 5370              	.LBE4950:
 5371              		.loc 4 226 0
 5372 0ee8 7C0803A6 		mtlr 0
 5373              	.LBB4951:
 5374              	.LBB4908:
 5375              	.LBB4909:
 5376              	.LBB4910:
 5377              	.LBB4911:
 5378              		.loc 8 1256 0
 5379 0eec 80FF0108 		lwz 7,264(31)
 5380              	.LBE4911:
 5381              	.LBE4910:
 5382              	.LBE4909:
 5383              	.LBE4908:
 5384              	.LBB4915:
 5385              	.LBB4916:
 5386              	.LBB4917:
 5387              	.LBB4918:
 5388 0ef0 811F0138 		lwz 8,312(31)
 5389              	.LBE4918:
 5390              	.LBE4917:
 5391              	.LBE4916:
 5392              	.LBE4915:
 5393              	.LBB4922:
 5394              	.LBB4923:
 5395              	.LBB4924:
 5396              	.LBB4925:
 5397 0ef4 815F012C 		lwz 10,300(31)
 5398              	.LBE4925:
 5399              	.LBE4924:
 5400              	.LBE4923:
 5401              	.LBE4922:
 5402              	.LBB4929:
 5403              	.LBB4930:
 5404              	.LBB4931:
 5405              	.LBB4932:
 5406 0ef8 817F0144 		lwz 11,324(31)
 5407              	.LBE4932:
 5408              	.LBE4931:
 5409              	.LBE4930:
 5410              	.LBE4929:
 5411              	.LBB4936:
 5412              	.LBB4937:
 5413              	.LBB4938:
 5414              	.LBB4939:
 5415 0efc 813F0120 		lwz 9,288(31)
 5416              	.LBE4939:
 5417              	.LBE4938:
 5418              	.LBE4937:
 5419              	.LBE4936:
 5420              	.LBB4943:
 5421              	.LBB4907:
 5422              	.LBB4906:
 5423              	.LBB4905:
 5424 0f00 90DF0100 		stw 6,256(31)
 5425              	.LVL407:
 5426              	.LBE4905:
 5427              	.LBE4906:
 5428              	.LBE4907:
 5429              	.LBE4943:
 5430              	.LBB4944:
 5431              	.LBB4914:
 5432              	.LBB4913:
 5433              	.LBB4912:
 5434 0f04 90FF010C 		stw 7,268(31)
 5435              	.LVL408:
 5436              	.LBE4912:
 5437              	.LBE4913:
 5438              	.LBE4914:
 5439              	.LBE4944:
 5440              	.LBB4945:
 5441              	.LBB4921:
 5442              	.LBB4920:
 5443              	.LBB4919:
 5444 0f08 911F013C 		stw 8,316(31)
 5445              	.LVL409:
 5446              	.LBE4919:
 5447              	.LBE4920:
 5448              	.LBE4921:
 5449              	.LBE4945:
 5450              	.LBB4946:
 5451              	.LBB4928:
 5452              	.LBB4927:
 5453              	.LBB4926:
 5454 0f0c 915F0130 		stw 10,304(31)
 5455              	.LVL410:
 5456              	.LBE4926:
 5457              	.LBE4927:
 5458              	.LBE4928:
 5459              	.LBE4946:
 5460              	.LBB4947:
 5461              	.LBB4935:
 5462              	.LBB4934:
 5463              	.LBB4933:
 5464 0f10 917F0148 		stw 11,328(31)
 5465              	.LVL411:
 5466              	.LBE4933:
 5467              	.LBE4934:
 5468              	.LBE4935:
 5469              	.LBE4947:
 5470              	.LBB4948:
 5471              	.LBB4942:
 5472              	.LBB4941:
 5473              	.LBB4940:
 5474 0f14 913F0124 		stw 9,292(31)
 5475              	.LBE4940:
 5476              	.LBE4941:
 5477              	.LBE4942:
 5478              	.LBE4948:
 5479              	.LBE4951:
 5480              		.loc 4 226 0
 5481 0f18 83A1000C 		lwz 29,12(1)
 5482 0f1c 83C10010 		lwz 30,16(1)
 5483 0f20 83E10014 		lwz 31,20(1)
 5484              	.LVL412:
 5485 0f24 38210018 		addi 1,1,24
 5486              		.cfi_remember_state
 5487              	.LCFI78:
 5488              		.cfi_def_cfa_offset 0
 5489              		.cfi_restore 31
 5490              		.cfi_restore 30
 5491              		.cfi_restore 29
 5492 0f28 4E800020 		blr
 5493              	.LVL413:
 5494              	.L281:
 5495              	.LCFI79:
 5496              		.cfi_restore_state
 5497              	.LBB4952:
 5498              	.LBB4949:
 5499              	.LBB4897:
 5500              	.LBB4895:
 5501              	.LBB4894:
 5502              		.loc 8 719 0
 5503 0f2c 3C600000 		lis 3,.LC4@ha
 5504 0f30 38630000 		la 3,.LC4@l(3)
 5505 0f34 48000001 		bl _ZSt20__throw_out_of_rangePKc
 5506              	.LBE4894:
 5507              	.LBE4895:
 5508              	.LBE4897:
 5509              	.LBE4949:
 5510              	.LBE4952:
 5511              		.cfi_endproc
 5512              	.LFE1584:
 5513              		.size	_ZN14GuiArrowOption9ClearListEv, .-_ZN14GuiArrowOption9ClearListEv
 5514              		.section	.text._ZNSt6vectorIP7GuiTextSaIS1_EED2Ev,"axG",@progbits,_ZNSt6vectorIP7GuiTextSaIS1_EED5
 5515              		.align 2
 5516              		.weak	_ZNSt6vectorIP7GuiTextSaIS1_EED2Ev
 5517              		.type	_ZNSt6vectorIP7GuiTextSaIS1_EED2Ev, @function
 5518              	_ZNSt6vectorIP7GuiTextSaIS1_EED2Ev:
 5519              	.LFB1626:
 5520              		.loc 8 349 0
 5521              		.cfi_startproc
 5522              	.LVL414:
 5523 0000 7C0802A6 		mflr 0
 5524 0004 9421FFF8 		stwu 1,-8(1)
 5525              	.LCFI80:
 5526              		.cfi_def_cfa_offset 8
 5527              		.cfi_register 65, 0
 5528 0008 9001000C 		stw 0,12(1)
 5529              		.loc 4 226 0
 5530 000c 80630000 		lwz 3,0(3)
 5531              	.LVL415:
 5532              	.LBB4965:
 5533              	.LBB4966:
 5534              	.LBB4967:
 5535              	.LBB4968:
 5536              		.loc 8 155 0
 5537 0010 2F830000 		cmpwi 7,3,0
 5538 0014 419E0008 		beq- 7,.L282
 5539              		.cfi_offset 65, 4
 5540              	.LVL416:
 5541              	.LBB4969:
 5542              	.LBB4970:
 5543              		.loc 6 98 0
 5544 0018 48000001 		bl _ZdlPv
 5545              	.LVL417:
 5546              	.L282:
 5547              	.LBE4970:
 5548              	.LBE4969:
 5549              	.LBE4968:
 5550              	.LBE4967:
 5551              	.LBE4966:
 5552              	.LBE4965:
 5553              		.loc 8 351 0
 5554 001c 8001000C 		lwz 0,12(1)
 5555 0020 38210008 		addi 1,1,8
 5556              	.LCFI81:
 5557              		.cfi_def_cfa_offset 0
 5558 0024 7C0803A6 		mtlr 0
 5559 0028 4E800020 		blr
 5560              		.cfi_endproc
 5561              	.LFE1626:
 5562              		.size	_ZNSt6vectorIP7GuiTextSaIS1_EED2Ev, .-_ZNSt6vectorIP7GuiTextSaIS1_EED2Ev
 5563              		.section	.text._ZNSt6vectorIP9GuiButtonSaIS1_EED2Ev,"axG",@progbits,_ZNSt6vectorIP9GuiButtonSaIS1_
 5564              		.align 2
 5565              		.weak	_ZNSt6vectorIP9GuiButtonSaIS1_EED2Ev
 5566              		.type	_ZNSt6vectorIP9GuiButtonSaIS1_EED2Ev, @function
 5567              	_ZNSt6vectorIP9GuiButtonSaIS1_EED2Ev:
 5568              	.LFB1632:
 5569              		.loc 8 349 0
 5570              		.cfi_startproc
 5571              	.LVL418:
 5572 0000 7C0802A6 		mflr 0
 5573 0004 9421FFF8 		stwu 1,-8(1)
 5574              	.LCFI82:
 5575              		.cfi_def_cfa_offset 8
 5576              		.cfi_register 65, 0
 5577 0008 9001000C 		stw 0,12(1)
 5578              		.loc 4 226 0
 5579 000c 80630000 		lwz 3,0(3)
 5580              	.LVL419:
 5581              	.LBB4983:
 5582              	.LBB4984:
 5583              	.LBB4985:
 5584              	.LBB4986:
 5585              		.loc 8 155 0
 5586 0010 2F830000 		cmpwi 7,3,0
 5587 0014 419E0008 		beq- 7,.L288
 5588              		.cfi_offset 65, 4
 5589              	.LVL420:
 5590              	.LBB4987:
 5591              	.LBB4988:
 5592              		.loc 6 98 0
 5593 0018 48000001 		bl _ZdlPv
 5594              	.LVL421:
 5595              	.L288:
 5596              	.LBE4988:
 5597              	.LBE4987:
 5598              	.LBE4986:
 5599              	.LBE4985:
 5600              	.LBE4984:
 5601              	.LBE4983:
 5602              		.loc 8 351 0
 5603 001c 8001000C 		lwz 0,12(1)
 5604 0020 38210008 		addi 1,1,8
 5605              	.LCFI83:
 5606              		.cfi_def_cfa_offset 0
 5607 0024 7C0803A6 		mtlr 0
 5608 0028 4E800020 		blr
 5609              		.cfi_endproc
 5610              	.LFE1632:
 5611              		.size	_ZNSt6vectorIP9GuiButtonSaIS1_EED2Ev, .-_ZNSt6vectorIP9GuiButtonSaIS1_EED2Ev
 5612              		.section	.text._ZNSt6vectorIP8GuiImageSaIS1_EED2Ev,"axG",@progbits,_ZNSt6vectorIP8GuiImageSaIS1_EE
 5613              		.align 2
 5614              		.weak	_ZNSt6vectorIP8GuiImageSaIS1_EED2Ev
 5615              		.type	_ZNSt6vectorIP8GuiImageSaIS1_EED2Ev, @function
 5616              	_ZNSt6vectorIP8GuiImageSaIS1_EED2Ev:
 5617              	.LFB1638:
 5618              		.loc 8 349 0
 5619              		.cfi_startproc
 5620              	.LVL422:
 5621 0000 7C0802A6 		mflr 0
 5622 0004 9421FFF8 		stwu 1,-8(1)
 5623              	.LCFI84:
 5624              		.cfi_def_cfa_offset 8
 5625              		.cfi_register 65, 0
 5626 0008 9001000C 		stw 0,12(1)
 5627              		.loc 4 226 0
 5628 000c 80630000 		lwz 3,0(3)
 5629              	.LVL423:
 5630              	.LBB5001:
 5631              	.LBB5002:
 5632              	.LBB5003:
 5633              	.LBB5004:
 5634              		.loc 8 155 0
 5635 0010 2F830000 		cmpwi 7,3,0
 5636 0014 419E0008 		beq- 7,.L294
 5637              		.cfi_offset 65, 4
 5638              	.LVL424:
 5639              	.LBB5005:
 5640              	.LBB5006:
 5641              		.loc 6 98 0
 5642 0018 48000001 		bl _ZdlPv
 5643              	.LVL425:
 5644              	.L294:
 5645              	.LBE5006:
 5646              	.LBE5005:
 5647              	.LBE5004:
 5648              	.LBE5003:
 5649              	.LBE5002:
 5650              	.LBE5001:
 5651              		.loc 8 351 0
 5652 001c 8001000C 		lwz 0,12(1)
 5653 0020 38210008 		addi 1,1,8
 5654              	.LCFI85:
 5655              		.cfi_def_cfa_offset 0
 5656 0024 7C0803A6 		mtlr 0
 5657 0028 4E800020 		blr
 5658              		.cfi_endproc
 5659              	.LFE1638:
 5660              		.size	_ZNSt6vectorIP8GuiImageSaIS1_EED2Ev, .-_ZNSt6vectorIP8GuiImageSaIS1_EED2Ev
 5661              		.section	.text._ZNSt6vectorIP7GuiTextSaIS1_EE13_M_insert_auxEN9__gnu_cxx17__normal_iteratorIPS1_S3
 5662              		.align 2
 5663              		.weak	_ZNSt6vectorIP7GuiTextSaIS1_EE13_M_insert_auxEN9__gnu_cxx17__normal_iteratorIPS1_S3_EERKS1_
 5664              		.type	_ZNSt6vectorIP7GuiTextSaIS1_EE13_M_insert_auxEN9__gnu_cxx17__normal_iteratorIPS1_S3_EERKS1_,
 5665              	_ZNSt6vectorIP7GuiTextSaIS1_EE13_M_insert_auxEN9__gnu_cxx17__normal_iteratorIPS1_S3_EERKS1_:
 5666              	.LFB1770:
 5667              		.loc 10 300 0
 5668              		.cfi_startproc
 5669              	.LVL426:
 5670 0000 7C0802A6 		mflr 0
 5671 0004 9421FFD8 		stwu 1,-40(1)
 5672              	.LCFI86:
 5673              		.cfi_def_cfa_offset 40
 5674              		.cfi_register 65, 0
 5675 0008 93610014 		stw 27,20(1)
 5676 000c 9001002C 		stw 0,44(1)
 5677 0010 93C10020 		stw 30,32(1)
 5678              	.LBB5069:
 5679              		.loc 10 304 0
 5680 0014 83630004 		lwz 27,4(3)
 5681              		.cfi_offset 30, -8
 5682              		.cfi_offset 65, 4
 5683              		.cfi_offset 27, -20
 5684 0018 80030008 		lwz 0,8(3)
 5685              	.LBE5069:
 5686              		.loc 10 300 0
 5687 001c 93E10024 		stw 31,36(1)
 5688 0020 7C7F1B78 		mr 31,3
 5689              		.cfi_offset 31, -4
 5690              	.LBB5194:
 5691              		.loc 10 304 0
 5692 0024 7F9B0000 		cmpw 7,27,0
 5693              	.LBE5194:
 5694              		.loc 10 300 0
 5695 0028 93410010 		stw 26,16(1)
 5696 002c 93810018 		stw 28,24(1)
 5697 0030 93A1001C 		stw 29,28(1)
 5698              		.loc 10 300 0
 5699 0034 83C40000 		lwz 30,0(4)
 5700              	.LVL427:
 5701              	.LBB5195:
 5702              		.loc 10 304 0
 5703 0038 419E0078 		beq- 7,.L301
 5704              		.cfi_offset 29, -12
 5705              		.cfi_offset 28, -16
 5706              		.cfi_offset 26, -24
 5707              	.LVL428:
 5708              	.LBB5070:
 5709              	.LBB5071:
 5710              	.LBB5072:
 5711              		.loc 6 108 0
 5712 003c 2F9B0000 		cmpwi 7,27,0
 5713 0040 38600000 		li 3,0
 5714              	.LVL429:
 5715 0044 419E0010 		beq- 7,.L302
 5716 0048 801BFFFC 		lwz 0,-4(27)
 5717 004c 901B0000 		stw 0,0(27)
 5718 0050 807F0004 		lwz 3,4(31)
 5719              	.L302:
 5720              	.LBE5072:
 5721              	.LBE5071:
 5722              		.loc 10 313 0
 5723 0054 3803FFFC 		addi 0,3,-4
 5724              		.loc 10 309 0
 5725 0058 39230004 		addi 9,3,4
 5726              	.LBB5073:
 5727              	.LBB5074:
 5728              	.LBB5075:
 5729              	.LBB5076:
 5730              	.LBB5077:
 5731              	.LBB5078:
 5732              		.loc 11 559 0
 5733 005c 7C1E0050 		subf 0,30,0
 5734              	.LBE5078:
 5735              	.LBE5077:
 5736              	.LBE5076:
 5737              	.LBE5075:
 5738              	.LBE5074:
 5739              	.LBE5073:
 5740              		.loc 10 309 0
 5741 0060 913F0004 		stw 9,4(31)
 5742              	.LBB5094:
 5743              	.LBB5091:
 5744              	.LBB5088:
 5745              	.LBB5085:
 5746              	.LBB5082:
 5747              	.LBB5079:
 5748              		.loc 11 560 0
 5749 0064 7C001671 		srawi. 0,0,2
 5750              	.LBE5079:
 5751              	.LBE5082:
 5752              	.LBE5085:
 5753              	.LBE5088:
 5754              	.LBE5091:
 5755              	.LBE5094:
 5756              		.loc 10 311 0
 5757 0068 83E50000 		lwz 31,0(5)
 5758              	.LVL430:
 5759              	.LBB5095:
 5760              	.LBB5092:
 5761              	.LBB5089:
 5762              	.LBB5086:
 5763              	.LBB5083:
 5764              	.LBB5080:
 5765              		.loc 11 560 0
 5766 006c 40820030 		bne- 0,.L317
 5767              	.LVL431:
 5768              	.L303:
 5769              	.LBE5080:
 5770              	.LBE5083:
 5771              	.LBE5086:
 5772              	.LBE5089:
 5773              	.LBE5092:
 5774              	.LBE5095:
 5775              	.LBE5070:
 5776              	.LBE5195:
 5777              		.loc 10 373 0
 5778 0070 8001002C 		lwz 0,44(1)
 5779              	.LBB5196:
 5780              	.LBB5097:
 5781              		.loc 10 317 0
 5782 0074 93FE0000 		stw 31,0(30)
 5783              	.LBE5097:
 5784              	.LBE5196:
 5785              		.loc 10 373 0
 5786 0078 7C0803A6 		mtlr 0
 5787 007c 83410010 		lwz 26,16(1)
 5788 0080 83610014 		lwz 27,20(1)
 5789              	.LVL432:
 5790 0084 83810018 		lwz 28,24(1)
 5791 0088 83A1001C 		lwz 29,28(1)
 5792 008c 83C10020 		lwz 30,32(1)
 5793              	.LVL433:
 5794 0090 83E10024 		lwz 31,36(1)
 5795              	.LVL434:
 5796 0094 38210028 		addi 1,1,40
 5797              		.cfi_remember_state
 5798              	.LCFI87:
 5799              		.cfi_def_cfa_offset 0
 5800              		.cfi_restore 31
 5801              		.cfi_restore 30
 5802              		.cfi_restore 29
 5803              		.cfi_restore 28
 5804              		.cfi_restore 27
 5805              		.cfi_restore 26
 5806 0098 4E800020 		blr
 5807              	.LVL435:
 5808              	.L317:
 5809              	.LCFI88:
 5810              		.cfi_restore_state
 5811              	.LBB5197:
 5812              	.LBB5098:
 5813              	.LBB5096:
 5814              	.LBB5093:
 5815              	.LBB5090:
 5816              	.LBB5087:
 5817              	.LBB5084:
 5818              	.LBB5081:
 5819              		.loc 11 561 0
 5820 009c 5405103A 		slwi 5,0,2
 5821              	.LVL436:
 5822 00a0 7FC4F378 		mr 4,30
 5823 00a4 7C651850 		subf 3,5,3
 5824              	.LVL437:
 5825 00a8 48000001 		bl memmove
 5826              	.LVL438:
 5827 00ac 4BFFFFC4 		b .L303
 5828              	.LVL439:
 5829              	.L301:
 5830              	.LBE5081:
 5831              	.LBE5084:
 5832              	.LBE5087:
 5833              	.LBE5090:
 5834              	.LBE5093:
 5835              	.LBE5096:
 5836              	.LBE5098:
 5837              	.LBB5099:
 5838              	.LBB5100:
 5839              	.LBB5101:
 5840              	.LBB5102:
 5841              	.LBB5103:
 5842              		.loc 8 571 0
 5843 00b0 83830000 		lwz 28,0(3)
 5844 00b4 7F7CD850 		subf 27,28,27
 5845              	.LBE5103:
 5846              	.LBE5102:
 5847              	.LBB5104:
 5848              	.LBB5105:
 5849              		.loc 11 215 0
 5850 00b8 7F7B1671 		srawi. 27,27,2
 5851 00bc 418200E8 		beq- 0,.L305
 5852              	.LBE5105:
 5853              	.LBE5104:
 5854              		.loc 8 1244 0
 5855 00c0 5760083C 		slwi 0,27,1
 5856              	.LVL440:
 5857              		.loc 8 1245 0
 5858 00c4 7F9B0040 		cmplw 7,27,0
 5859 00c8 409D00EC 		ble- 7,.L318
 5860              	.L306:
 5861              	.LVL441:
 5862              	.LBE5101:
 5863              	.LBE5100:
 5864              	.LBB5108:
 5865              	.LBB5109:
 5866              		.loc 9 892 0
 5867 00cc 7F9CF050 		subf 28,28,30
 5868              	.LBE5109:
 5869              	.LBE5108:
 5870              		.loc 10 326 0
 5871 00d0 3B60FFFC 		li 27,-4
 5872              	.LBB5115:
 5873              	.LBB5110:
 5874              		.loc 9 892 0
 5875 00d4 7F9C1670 		srawi 28,28,2
 5876              	.LVL442:
 5877              	.L312:
 5878              	.LBE5110:
 5879              	.LBE5115:
 5880              	.LBB5116:
 5881              	.LBB5117:
 5882              	.LBB5118:
 5883              	.LBB5119:
 5884              		.loc 6 92 0
 5885 00d8 7F63DB78 		mr 3,27
 5886              	.LVL443:
 5887 00dc 90A10008 		stw 5,8(1)
 5888 00e0 48000001 		bl _Znwj
 5889              	.LVL444:
 5890 00e4 80A10008 		lwz 5,8(1)
 5891 00e8 7C7D1B78 		mr 29,3
 5892              	.L307:
 5893              	.LVL445:
 5894              	.LBE5119:
 5895              	.LBE5118:
 5896              	.LBE5117:
 5897              	.LBE5116:
 5898              		.loc 10 335 0
 5899 00ec 579C103A 		slwi 28,28,2
 5900              	.LVL446:
 5901 00f0 7C1DE214 		add 0,29,28
 5902              	.LVL447:
 5903              	.LBB5122:
 5904              	.LBB5123:
 5905              		.loc 6 108 0
 5906 00f4 2F800000 		cmpwi 7,0,0
 5907 00f8 419E000C 		beq- 7,.L308
 5908 00fc 80050000 		lwz 0,0(5)
 5909              	.LVL448:
 5910 0100 7C1DE12E 		stwx 0,29,28
 5911              	.L308:
 5912              	.LVL449:
 5913              	.LBE5123:
 5914              	.LBE5122:
 5915              		.loc 10 343 0
 5916 0104 809F0000 		lwz 4,0(31)
 5917              	.LVL450:
 5918              	.LBB5124:
 5919              	.LBB5125:
 5920              	.LBB5126:
 5921              	.LBB5127:
 5922              	.LBB5128:
 5923              	.LBB5129:
 5924              	.LBB5130:
 5925              	.LBB5131:
 5926              	.LBB5132:
 5927              	.LBB5133:
 5928              	.LBB5134:
 5929              		.loc 11 365 0
 5930 0108 3B800000 		li 28,0
 5931              		.loc 11 364 0
 5932 010c 7C04F050 		subf 0,4,30
 5933              	.LVL451:
 5934              		.loc 11 365 0
 5935 0110 7C001671 		srawi. 0,0,2
 5936              	.LVL452:
 5937 0114 41A20014 		beq+ 0,.L309
 5938              		.loc 11 366 0
 5939 0118 541C103A 		slwi 28,0,2
 5940 011c 7FA3EB78 		mr 3,29
 5941 0120 7F85E378 		mr 5,28
 5942              	.LVL453:
 5943 0124 48000001 		bl memmove
 5944              	.LVL454:
 5945              	.L309:
 5946              	.LBE5134:
 5947              	.LBE5133:
 5948              	.LBE5132:
 5949              	.LBE5131:
 5950              	.LBE5130:
 5951              	.LBE5129:
 5952              	.LBE5128:
 5953              	.LBE5127:
 5954              	.LBE5126:
 5955              	.LBE5125:
 5956              	.LBE5124:
 5957              	.LBB5145:
 5958              	.LBB5146:
 5959              	.LBB5147:
 5960              	.LBB5148:
 5961              	.LBB5149:
 5962              	.LBB5150:
 5963              	.LBB5151:
 5964              	.LBB5152:
 5965              	.LBB5153:
 5966              	.LBB5154:
 5967              	.LBB5155:
 5968              		.loc 11 364 0
 5969 0128 801F0004 		lwz 0,4(31)
 5970              	.LBE5155:
 5971              	.LBE5154:
 5972              	.LBE5153:
 5973              	.LBE5152:
 5974              	.LBE5151:
 5975              	.LBE5150:
 5976              	.LBE5149:
 5977              	.LBE5148:
 5978              	.LBE5147:
 5979              	.LBE5146:
 5980              	.LBE5145:
 5981              	.LBB5176:
 5982              	.LBB5144:
 5983              	.LBB5143:
 5984              	.LBB5142:
 5985              	.LBB5141:
 5986              	.LBB5140:
 5987              	.LBB5139:
 5988              	.LBB5138:
 5989              	.LBB5137:
 5990              	.LBB5136:
 5991              	.LBB5135:
 5992              		.loc 11 367 0
 5993 012c 7F9DE214 		add 28,29,28
 5994              	.LVL455:
 5995              	.LBE5135:
 5996              	.LBE5136:
 5997              	.LBE5137:
 5998              	.LBE5138:
 5999              	.LBE5139:
 6000              	.LBE5140:
 6001              	.LBE5141:
 6002              	.LBE5142:
 6003              	.LBE5143:
 6004              	.LBE5144:
 6005              	.LBE5176:
 6006              		.loc 10 347 0
 6007 0130 3B5C0004 		addi 26,28,4
 6008              	.LBB5177:
 6009              	.LBB5174:
 6010              	.LBB5172:
 6011              	.LBB5170:
 6012              	.LBB5168:
 6013              	.LBB5166:
 6014              	.LBB5164:
 6015              	.LBB5162:
 6016              	.LBB5160:
 6017              	.LBB5158:
 6018              	.LBB5156:
 6019              		.loc 11 365 0
 6020 0134 3B800000 		li 28,0
 6021              		.loc 11 364 0
 6022 0138 7C1E0050 		subf 0,30,0
 6023              	.LVL456:
 6024              		.loc 11 365 0
 6025 013c 7C001671 		srawi. 0,0,2
 6026              	.LVL457:
 6027 0140 41A20018 		beq+ 0,.L310
 6028              		.loc 11 366 0
 6029 0144 541C103A 		slwi 28,0,2
 6030 0148 7F43D378 		mr 3,26
 6031 014c 7FC4F378 		mr 4,30
 6032 0150 7F85E378 		mr 5,28
 6033 0154 48000001 		bl memmove
 6034              	.LVL458:
 6035              	.L310:
 6036              	.LBE5156:
 6037              	.LBE5158:
 6038              	.LBE5160:
 6039              	.LBE5162:
 6040              	.LBE5164:
 6041              	.LBE5166:
 6042              	.LBE5168:
 6043              	.LBE5170:
 6044              	.LBE5172:
 6045              	.LBE5174:
 6046              	.LBE5177:
 6047              		.loc 10 366 0
 6048 0158 807F0000 		lwz 3,0(31)
 6049              	.LBB5178:
 6050              	.LBB5175:
 6051              	.LBB5173:
 6052              	.LBB5171:
 6053              	.LBB5169:
 6054              	.LBB5167:
 6055              	.LBB5165:
 6056              	.LBB5163:
 6057              	.LBB5161:
 6058              	.LBB5159:
 6059              	.LBB5157:
 6060              		.loc 11 367 0
 6061 015c 7F9AE214 		add 28,26,28
 6062              	.LVL459:
 6063              	.LBE5157:
 6064              	.LBE5159:
 6065              	.LBE5161:
 6066              	.LBE5163:
 6067              	.LBE5165:
 6068              	.LBE5167:
 6069              	.LBE5169:
 6070              	.LBE5171:
 6071              	.LBE5173:
 6072              	.LBE5175:
 6073              	.LBE5178:
 6074              	.LBB5179:
 6075              	.LBB5180:
 6076              		.loc 8 155 0
 6077 0160 2F830000 		cmpwi 7,3,0
 6078 0164 419E0008 		beq- 7,.L311
 6079              	.LVL460:
 6080              	.LBB5181:
 6081              	.LBB5182:
 6082              		.loc 6 98 0
 6083 0168 48000001 		bl _ZdlPv
 6084              	.LVL461:
 6085              	.L311:
 6086              	.LBE5182:
 6087              	.LBE5181:
 6088              	.LBE5180:
 6089              	.LBE5179:
 6090              	.LBE5099:
 6091              	.LBE5197:
 6092              		.loc 10 373 0
 6093 016c 8001002C 		lwz 0,44(1)
 6094              	.LBB5198:
 6095              	.LBB5191:
 6096              		.loc 10 371 0
 6097 0170 7F7DDA14 		add 27,29,27
 6098              		.loc 10 369 0
 6099 0174 93BF0000 		stw 29,0(31)
 6100              	.LBE5191:
 6101              	.LBE5198:
 6102              		.loc 10 373 0
 6103 0178 7C0803A6 		mtlr 0
 6104              	.LBB5199:
 6105              	.LBB5192:
 6106              		.loc 10 370 0
 6107 017c 939F0004 		stw 28,4(31)
 6108              		.loc 10 371 0
 6109 0180 937F0008 		stw 27,8(31)
 6110              	.LBE5192:
 6111              	.LBE5199:
 6112              		.loc 10 373 0
 6113 0184 83410010 		lwz 26,16(1)
 6114              	.LVL462:
 6115 0188 83610014 		lwz 27,20(1)
 6116 018c 83810018 		lwz 28,24(1)
 6117 0190 83A1001C 		lwz 29,28(1)
 6118              	.LVL463:
 6119 0194 83C10020 		lwz 30,32(1)
 6120              	.LVL464:
 6121 0198 83E10024 		lwz 31,36(1)
 6122              	.LVL465:
 6123 019c 38210028 		addi 1,1,40
 6124              		.cfi_remember_state
 6125              		.cfi_restore 26
 6126              		.cfi_restore 27
 6127              		.cfi_restore 28
 6128              		.cfi_restore 29
 6129              		.cfi_restore 30
 6130              		.cfi_restore 31
 6131              	.LCFI89:
 6132              		.cfi_def_cfa_offset 0
 6133 01a0 4E800020 		blr
 6134              	.LVL466:
 6135              	.L305:
 6136              	.LCFI90:
 6137              		.cfi_restore_state
 6138              	.LBB5200:
 6139              	.LBB5193:
 6140              	.LBB5183:
 6141              	.LBB5111:
 6142              		.loc 9 892 0
 6143 01a4 7F9CF050 		subf 28,28,30
 6144              	.LBE5111:
 6145              	.LBE5183:
 6146              		.loc 10 326 0
 6147 01a8 3B600004 		li 27,4
 6148              	.LBB5184:
 6149              	.LBB5112:
 6150              		.loc 9 892 0
 6151 01ac 7F9C1670 		srawi 28,28,2
 6152              	.LVL467:
 6153 01b0 4BFFFF28 		b .L312
 6154              	.LVL468:
 6155              	.L318:
 6156              	.LBE5112:
 6157              	.LBE5184:
 6158              	.LBB5185:
 6159              	.LBB5106:
 6160              		.loc 8 1245 0
 6161 01b4 3D203FFF 		lis 9,0x3fff
 6162 01b8 6129FFFF 		ori 9,9,65535
 6163 01bc 7F804840 		cmplw 7,0,9
 6164 01c0 419DFF0C 		bgt+ 7,.L306
 6165              	.LBE5106:
 6166              	.LBE5185:
 6167              	.LBB5186:
 6168              	.LBB5120:
 6169              		.loc 8 150 0
 6170 01c4 2F800000 		cmpwi 7,0,0
 6171              	.LBE5120:
 6172              	.LBE5186:
 6173              	.LBB5187:
 6174              	.LBB5113:
 6175              		.loc 9 892 0
 6176 01c8 7F9CF050 		subf 28,28,30
 6177              	.LBE5113:
 6178              	.LBE5187:
 6179              	.LBB5188:
 6180              	.LBB5107:
 6181              		.loc 8 1245 0
 6182 01cc 577B1838 		slwi 27,27,3
 6183              	.LVL469:
 6184              	.LBE5107:
 6185              	.LBE5188:
 6186              	.LBB5189:
 6187              	.LBB5114:
 6188              		.loc 9 892 0
 6189 01d0 7F9C1670 		srawi 28,28,2
 6190              	.LVL470:
 6191              	.LBE5114:
 6192              	.LBE5189:
 6193              	.LBB5190:
 6194              	.LBB5121:
 6195              		.loc 8 150 0
 6196 01d4 3BA00000 		li 29,0
 6197 01d8 419EFF14 		beq+ 7,.L307
 6198 01dc 4BFFFEFC 		b .L312
 6199              	.LBE5121:
 6200              	.LBE5190:
 6201              	.LBE5193:
 6202              	.LBE5200:
 6203              		.cfi_endproc
 6204              	.LFE1770:
 6205              		.size	_ZNSt6vectorIP7GuiTextSaIS1_EE13_M_insert_auxEN9__gnu_cxx17__normal_iteratorIPS1_S3_EERKS1_,
 6206              		.section	.text._ZNSt6vectorIP9GuiButtonSaIS1_EE13_M_insert_auxEN9__gnu_cxx17__normal_iteratorIPS1_
 6207              		.align 2
 6208              		.weak	_ZNSt6vectorIP9GuiButtonSaIS1_EE13_M_insert_auxEN9__gnu_cxx17__normal_iteratorIPS1_S3_EERKS1
 6209              		.type	_ZNSt6vectorIP9GuiButtonSaIS1_EE13_M_insert_auxEN9__gnu_cxx17__normal_iteratorIPS1_S3_EERKS1
 6210              	_ZNSt6vectorIP9GuiButtonSaIS1_EE13_M_insert_auxEN9__gnu_cxx17__normal_iteratorIPS1_S3_EERKS1_:
 6211              	.LFB1773:
 6212              		.loc 10 300 0
 6213              		.cfi_startproc
 6214              	.LVL471:
 6215 0000 7C0802A6 		mflr 0
 6216 0004 9421FFD8 		stwu 1,-40(1)
 6217              	.LCFI91:
 6218              		.cfi_def_cfa_offset 40
 6219              		.cfi_register 65, 0
 6220 0008 93610014 		stw 27,20(1)
 6221 000c 9001002C 		stw 0,44(1)
 6222 0010 93C10020 		stw 30,32(1)
 6223              	.LBB5263:
 6224              		.loc 10 304 0
 6225 0014 83630004 		lwz 27,4(3)
 6226              		.cfi_offset 30, -8
 6227              		.cfi_offset 65, 4
 6228              		.cfi_offset 27, -20
 6229 0018 80030008 		lwz 0,8(3)
 6230              	.LBE5263:
 6231              		.loc 10 300 0
 6232 001c 93E10024 		stw 31,36(1)
 6233 0020 7C7F1B78 		mr 31,3
 6234              		.cfi_offset 31, -4
 6235              	.LBB5388:
 6236              		.loc 10 304 0
 6237 0024 7F9B0000 		cmpw 7,27,0
 6238              	.LBE5388:
 6239              		.loc 10 300 0
 6240 0028 93410010 		stw 26,16(1)
 6241 002c 93810018 		stw 28,24(1)
 6242 0030 93A1001C 		stw 29,28(1)
 6243              		.loc 10 300 0
 6244 0034 83C40000 		lwz 30,0(4)
 6245              	.LVL472:
 6246              	.LBB5389:
 6247              		.loc 10 304 0
 6248 0038 419E0078 		beq- 7,.L320
 6249              		.cfi_offset 29, -12
 6250              		.cfi_offset 28, -16
 6251              		.cfi_offset 26, -24
 6252              	.LVL473:
 6253              	.LBB5264:
 6254              	.LBB5265:
 6255              	.LBB5266:
 6256              		.loc 6 108 0
 6257 003c 2F9B0000 		cmpwi 7,27,0
 6258 0040 38600000 		li 3,0
 6259              	.LVL474:
 6260 0044 419E0010 		beq- 7,.L321
 6261 0048 801BFFFC 		lwz 0,-4(27)
 6262 004c 901B0000 		stw 0,0(27)
 6263 0050 807F0004 		lwz 3,4(31)
 6264              	.L321:
 6265              	.LBE5266:
 6266              	.LBE5265:
 6267              		.loc 10 313 0
 6268 0054 3803FFFC 		addi 0,3,-4
 6269              		.loc 10 309 0
 6270 0058 39230004 		addi 9,3,4
 6271              	.LBB5267:
 6272              	.LBB5268:
 6273              	.LBB5269:
 6274              	.LBB5270:
 6275              	.LBB5271:
 6276              	.LBB5272:
 6277              		.loc 11 559 0
 6278 005c 7C1E0050 		subf 0,30,0
 6279              	.LBE5272:
 6280              	.LBE5271:
 6281              	.LBE5270:
 6282              	.LBE5269:
 6283              	.LBE5268:
 6284              	.LBE5267:
 6285              		.loc 10 309 0
 6286 0060 913F0004 		stw 9,4(31)
 6287              	.LBB5288:
 6288              	.LBB5285:
 6289              	.LBB5282:
 6290              	.LBB5279:
 6291              	.LBB5276:
 6292              	.LBB5273:
 6293              		.loc 11 560 0
 6294 0064 7C001671 		srawi. 0,0,2
 6295              	.LBE5273:
 6296              	.LBE5276:
 6297              	.LBE5279:
 6298              	.LBE5282:
 6299              	.LBE5285:
 6300              	.LBE5288:
 6301              		.loc 10 311 0
 6302 0068 83E50000 		lwz 31,0(5)
 6303              	.LVL475:
 6304              	.LBB5289:
 6305              	.LBB5286:
 6306              	.LBB5283:
 6307              	.LBB5280:
 6308              	.LBB5277:
 6309              	.LBB5274:
 6310              		.loc 11 560 0
 6311 006c 40820030 		bne- 0,.L336
 6312              	.LVL476:
 6313              	.L322:
 6314              	.LBE5274:
 6315              	.LBE5277:
 6316              	.LBE5280:
 6317              	.LBE5283:
 6318              	.LBE5286:
 6319              	.LBE5289:
 6320              	.LBE5264:
 6321              	.LBE5389:
 6322              		.loc 10 373 0
 6323 0070 8001002C 		lwz 0,44(1)
 6324              	.LBB5390:
 6325              	.LBB5291:
 6326              		.loc 10 317 0
 6327 0074 93FE0000 		stw 31,0(30)
 6328              	.LBE5291:
 6329              	.LBE5390:
 6330              		.loc 10 373 0
 6331 0078 7C0803A6 		mtlr 0
 6332 007c 83410010 		lwz 26,16(1)
 6333 0080 83610014 		lwz 27,20(1)
 6334              	.LVL477:
 6335 0084 83810018 		lwz 28,24(1)
 6336 0088 83A1001C 		lwz 29,28(1)
 6337 008c 83C10020 		lwz 30,32(1)
 6338              	.LVL478:
 6339 0090 83E10024 		lwz 31,36(1)
 6340              	.LVL479:
 6341 0094 38210028 		addi 1,1,40
 6342              		.cfi_remember_state
 6343              	.LCFI92:
 6344              		.cfi_def_cfa_offset 0
 6345              		.cfi_restore 31
 6346              		.cfi_restore 30
 6347              		.cfi_restore 29
 6348              		.cfi_restore 28
 6349              		.cfi_restore 27
 6350              		.cfi_restore 26
 6351 0098 4E800020 		blr
 6352              	.LVL480:
 6353              	.L336:
 6354              	.LCFI93:
 6355              		.cfi_restore_state
 6356              	.LBB5391:
 6357              	.LBB5292:
 6358              	.LBB5290:
 6359              	.LBB5287:
 6360              	.LBB5284:
 6361              	.LBB5281:
 6362              	.LBB5278:
 6363              	.LBB5275:
 6364              		.loc 11 561 0
 6365 009c 5405103A 		slwi 5,0,2
 6366              	.LVL481:
 6367 00a0 7FC4F378 		mr 4,30
 6368 00a4 7C651850 		subf 3,5,3
 6369              	.LVL482:
 6370 00a8 48000001 		bl memmove
 6371              	.LVL483:
 6372 00ac 4BFFFFC4 		b .L322
 6373              	.LVL484:
 6374              	.L320:
 6375              	.LBE5275:
 6376              	.LBE5278:
 6377              	.LBE5281:
 6378              	.LBE5284:
 6379              	.LBE5287:
 6380              	.LBE5290:
 6381              	.LBE5292:
 6382              	.LBB5293:
 6383              	.LBB5294:
 6384              	.LBB5295:
 6385              	.LBB5296:
 6386              	.LBB5297:
 6387              		.loc 8 571 0
 6388 00b0 83830000 		lwz 28,0(3)
 6389 00b4 7F7CD850 		subf 27,28,27
 6390              	.LBE5297:
 6391              	.LBE5296:
 6392              	.LBB5298:
 6393              	.LBB5299:
 6394              		.loc 11 215 0
 6395 00b8 7F7B1671 		srawi. 27,27,2
 6396 00bc 418200E8 		beq- 0,.L324
 6397              	.LBE5299:
 6398              	.LBE5298:
 6399              		.loc 8 1244 0
 6400 00c0 5760083C 		slwi 0,27,1
 6401              	.LVL485:
 6402              		.loc 8 1245 0
 6403 00c4 7F9B0040 		cmplw 7,27,0
 6404 00c8 409D00EC 		ble- 7,.L337
 6405              	.L325:
 6406              	.LVL486:
 6407              	.LBE5295:
 6408              	.LBE5294:
 6409              	.LBB5302:
 6410              	.LBB5303:
 6411              		.loc 9 892 0
 6412 00cc 7F9CF050 		subf 28,28,30
 6413              	.LBE5303:
 6414              	.LBE5302:
 6415              		.loc 10 326 0
 6416 00d0 3B60FFFC 		li 27,-4
 6417              	.LBB5309:
 6418              	.LBB5304:
 6419              		.loc 9 892 0
 6420 00d4 7F9C1670 		srawi 28,28,2
 6421              	.LVL487:
 6422              	.L331:
 6423              	.LBE5304:
 6424              	.LBE5309:
 6425              	.LBB5310:
 6426              	.LBB5311:
 6427              	.LBB5312:
 6428              	.LBB5313:
 6429              		.loc 6 92 0
 6430 00d8 7F63DB78 		mr 3,27
 6431              	.LVL488:
 6432 00dc 90A10008 		stw 5,8(1)
 6433 00e0 48000001 		bl _Znwj
 6434              	.LVL489:
 6435 00e4 80A10008 		lwz 5,8(1)
 6436 00e8 7C7D1B78 		mr 29,3
 6437              	.L326:
 6438              	.LVL490:
 6439              	.LBE5313:
 6440              	.LBE5312:
 6441              	.LBE5311:
 6442              	.LBE5310:
 6443              		.loc 10 335 0
 6444 00ec 579C103A 		slwi 28,28,2
 6445              	.LVL491:
 6446 00f0 7C1DE214 		add 0,29,28
 6447              	.LVL492:
 6448              	.LBB5316:
 6449              	.LBB5317:
 6450              		.loc 6 108 0
 6451 00f4 2F800000 		cmpwi 7,0,0
 6452 00f8 419E000C 		beq- 7,.L327
 6453 00fc 80050000 		lwz 0,0(5)
 6454              	.LVL493:
 6455 0100 7C1DE12E 		stwx 0,29,28
 6456              	.L327:
 6457              	.LVL494:
 6458              	.LBE5317:
 6459              	.LBE5316:
 6460              		.loc 10 343 0
 6461 0104 809F0000 		lwz 4,0(31)
 6462              	.LVL495:
 6463              	.LBB5318:
 6464              	.LBB5319:
 6465              	.LBB5320:
 6466              	.LBB5321:
 6467              	.LBB5322:
 6468              	.LBB5323:
 6469              	.LBB5324:
 6470              	.LBB5325:
 6471              	.LBB5326:
 6472              	.LBB5327:
 6473              	.LBB5328:
 6474              		.loc 11 365 0
 6475 0108 3B800000 		li 28,0
 6476              		.loc 11 364 0
 6477 010c 7C04F050 		subf 0,4,30
 6478              	.LVL496:
 6479              		.loc 11 365 0
 6480 0110 7C001671 		srawi. 0,0,2
 6481              	.LVL497:
 6482 0114 41A20014 		beq+ 0,.L328
 6483              		.loc 11 366 0
 6484 0118 541C103A 		slwi 28,0,2
 6485 011c 7FA3EB78 		mr 3,29
 6486 0120 7F85E378 		mr 5,28
 6487              	.LVL498:
 6488 0124 48000001 		bl memmove
 6489              	.LVL499:
 6490              	.L328:
 6491              	.LBE5328:
 6492              	.LBE5327:
 6493              	.LBE5326:
 6494              	.LBE5325:
 6495              	.LBE5324:
 6496              	.LBE5323:
 6497              	.LBE5322:
 6498              	.LBE5321:
 6499              	.LBE5320:
 6500              	.LBE5319:
 6501              	.LBE5318:
 6502              	.LBB5339:
 6503              	.LBB5340:
 6504              	.LBB5341:
 6505              	.LBB5342:
 6506              	.LBB5343:
 6507              	.LBB5344:
 6508              	.LBB5345:
 6509              	.LBB5346:
 6510              	.LBB5347:
 6511              	.LBB5348:
 6512              	.LBB5349:
 6513              		.loc 11 364 0
 6514 0128 801F0004 		lwz 0,4(31)
 6515              	.LBE5349:
 6516              	.LBE5348:
 6517              	.LBE5347:
 6518              	.LBE5346:
 6519              	.LBE5345:
 6520              	.LBE5344:
 6521              	.LBE5343:
 6522              	.LBE5342:
 6523              	.LBE5341:
 6524              	.LBE5340:
 6525              	.LBE5339:
 6526              	.LBB5370:
 6527              	.LBB5338:
 6528              	.LBB5337:
 6529              	.LBB5336:
 6530              	.LBB5335:
 6531              	.LBB5334:
 6532              	.LBB5333:
 6533              	.LBB5332:
 6534              	.LBB5331:
 6535              	.LBB5330:
 6536              	.LBB5329:
 6537              		.loc 11 367 0
 6538 012c 7F9DE214 		add 28,29,28
 6539              	.LVL500:
 6540              	.LBE5329:
 6541              	.LBE5330:
 6542              	.LBE5331:
 6543              	.LBE5332:
 6544              	.LBE5333:
 6545              	.LBE5334:
 6546              	.LBE5335:
 6547              	.LBE5336:
 6548              	.LBE5337:
 6549              	.LBE5338:
 6550              	.LBE5370:
 6551              		.loc 10 347 0
 6552 0130 3B5C0004 		addi 26,28,4
 6553              	.LBB5371:
 6554              	.LBB5368:
 6555              	.LBB5366:
 6556              	.LBB5364:
 6557              	.LBB5362:
 6558              	.LBB5360:
 6559              	.LBB5358:
 6560              	.LBB5356:
 6561              	.LBB5354:
 6562              	.LBB5352:
 6563              	.LBB5350:
 6564              		.loc 11 365 0
 6565 0134 3B800000 		li 28,0
 6566              		.loc 11 364 0
 6567 0138 7C1E0050 		subf 0,30,0
 6568              	.LVL501:
 6569              		.loc 11 365 0
 6570 013c 7C001671 		srawi. 0,0,2
 6571              	.LVL502:
 6572 0140 41A20018 		beq+ 0,.L329
 6573              		.loc 11 366 0
 6574 0144 541C103A 		slwi 28,0,2
 6575 0148 7F43D378 		mr 3,26
 6576 014c 7FC4F378 		mr 4,30
 6577 0150 7F85E378 		mr 5,28
 6578 0154 48000001 		bl memmove
 6579              	.LVL503:
 6580              	.L329:
 6581              	.LBE5350:
 6582              	.LBE5352:
 6583              	.LBE5354:
 6584              	.LBE5356:
 6585              	.LBE5358:
 6586              	.LBE5360:
 6587              	.LBE5362:
 6588              	.LBE5364:
 6589              	.LBE5366:
 6590              	.LBE5368:
 6591              	.LBE5371:
 6592              		.loc 10 366 0
 6593 0158 807F0000 		lwz 3,0(31)
 6594              	.LBB5372:
 6595              	.LBB5369:
 6596              	.LBB5367:
 6597              	.LBB5365:
 6598              	.LBB5363:
 6599              	.LBB5361:
 6600              	.LBB5359:
 6601              	.LBB5357:
 6602              	.LBB5355:
 6603              	.LBB5353:
 6604              	.LBB5351:
 6605              		.loc 11 367 0
 6606 015c 7F9AE214 		add 28,26,28
 6607              	.LVL504:
 6608              	.LBE5351:
 6609              	.LBE5353:
 6610              	.LBE5355:
 6611              	.LBE5357:
 6612              	.LBE5359:
 6613              	.LBE5361:
 6614              	.LBE5363:
 6615              	.LBE5365:
 6616              	.LBE5367:
 6617              	.LBE5369:
 6618              	.LBE5372:
 6619              	.LBB5373:
 6620              	.LBB5374:
 6621              		.loc 8 155 0
 6622 0160 2F830000 		cmpwi 7,3,0
 6623 0164 419E0008 		beq- 7,.L330
 6624              	.LVL505:
 6625              	.LBB5375:
 6626              	.LBB5376:
 6627              		.loc 6 98 0
 6628 0168 48000001 		bl _ZdlPv
 6629              	.LVL506:
 6630              	.L330:
 6631              	.LBE5376:
 6632              	.LBE5375:
 6633              	.LBE5374:
 6634              	.LBE5373:
 6635              	.LBE5293:
 6636              	.LBE5391:
 6637              		.loc 10 373 0
 6638 016c 8001002C 		lwz 0,44(1)
 6639              	.LBB5392:
 6640              	.LBB5385:
 6641              		.loc 10 371 0
 6642 0170 7F7DDA14 		add 27,29,27
 6643              		.loc 10 369 0
 6644 0174 93BF0000 		stw 29,0(31)
 6645              	.LBE5385:
 6646              	.LBE5392:
 6647              		.loc 10 373 0
 6648 0178 7C0803A6 		mtlr 0
 6649              	.LBB5393:
 6650              	.LBB5386:
 6651              		.loc 10 370 0
 6652 017c 939F0004 		stw 28,4(31)
 6653              		.loc 10 371 0
 6654 0180 937F0008 		stw 27,8(31)
 6655              	.LBE5386:
 6656              	.LBE5393:
 6657              		.loc 10 373 0
 6658 0184 83410010 		lwz 26,16(1)
 6659              	.LVL507:
 6660 0188 83610014 		lwz 27,20(1)
 6661 018c 83810018 		lwz 28,24(1)
 6662 0190 83A1001C 		lwz 29,28(1)
 6663              	.LVL508:
 6664 0194 83C10020 		lwz 30,32(1)
 6665              	.LVL509:
 6666 0198 83E10024 		lwz 31,36(1)
 6667              	.LVL510:
 6668 019c 38210028 		addi 1,1,40
 6669              		.cfi_remember_state
 6670              		.cfi_restore 26
 6671              		.cfi_restore 27
 6672              		.cfi_restore 28
 6673              		.cfi_restore 29
 6674              		.cfi_restore 30
 6675              		.cfi_restore 31
 6676              	.LCFI94:
 6677              		.cfi_def_cfa_offset 0
 6678 01a0 4E800020 		blr
 6679              	.LVL511:
 6680              	.L324:
 6681              	.LCFI95:
 6682              		.cfi_restore_state
 6683              	.LBB5394:
 6684              	.LBB5387:
 6685              	.LBB5377:
 6686              	.LBB5305:
 6687              		.loc 9 892 0
 6688 01a4 7F9CF050 		subf 28,28,30
 6689              	.LBE5305:
 6690              	.LBE5377:
 6691              		.loc 10 326 0
 6692 01a8 3B600004 		li 27,4
 6693              	.LBB5378:
 6694              	.LBB5306:
 6695              		.loc 9 892 0
 6696 01ac 7F9C1670 		srawi 28,28,2
 6697              	.LVL512:
 6698 01b0 4BFFFF28 		b .L331
 6699              	.LVL513:
 6700              	.L337:
 6701              	.LBE5306:
 6702              	.LBE5378:
 6703              	.LBB5379:
 6704              	.LBB5300:
 6705              		.loc 8 1245 0
 6706 01b4 3D203FFF 		lis 9,0x3fff
 6707 01b8 6129FFFF 		ori 9,9,65535
 6708 01bc 7F804840 		cmplw 7,0,9
 6709 01c0 419DFF0C 		bgt+ 7,.L325
 6710              	.LBE5300:
 6711              	.LBE5379:
 6712              	.LBB5380:
 6713              	.LBB5314:
 6714              		.loc 8 150 0
 6715 01c4 2F800000 		cmpwi 7,0,0
 6716              	.LBE5314:
 6717              	.LBE5380:
 6718              	.LBB5381:
 6719              	.LBB5307:
 6720              		.loc 9 892 0
 6721 01c8 7F9CF050 		subf 28,28,30
 6722              	.LBE5307:
 6723              	.LBE5381:
 6724              	.LBB5382:
 6725              	.LBB5301:
 6726              		.loc 8 1245 0
 6727 01cc 577B1838 		slwi 27,27,3
 6728              	.LVL514:
 6729              	.LBE5301:
 6730              	.LBE5382:
 6731              	.LBB5383:
 6732              	.LBB5308:
 6733              		.loc 9 892 0
 6734 01d0 7F9C1670 		srawi 28,28,2
 6735              	.LVL515:
 6736              	.LBE5308:
 6737              	.LBE5383:
 6738              	.LBB5384:
 6739              	.LBB5315:
 6740              		.loc 8 150 0
 6741 01d4 3BA00000 		li 29,0
 6742 01d8 419EFF14 		beq+ 7,.L326
 6743 01dc 4BFFFEFC 		b .L331
 6744              	.LBE5315:
 6745              	.LBE5384:
 6746              	.LBE5387:
 6747              	.LBE5394:
 6748              		.cfi_endproc
 6749              	.LFE1773:
 6750              		.size	_ZNSt6vectorIP9GuiButtonSaIS1_EE13_M_insert_auxEN9__gnu_cxx17__normal_iteratorIPS1_S3_EERKS1
 6751              		.section	.text._ZNSt6vectorIP8GuiImageSaIS1_EE13_M_insert_auxEN9__gnu_cxx17__normal_iteratorIPS1_S
 6752              		.align 2
 6753              		.weak	_ZNSt6vectorIP8GuiImageSaIS1_EE13_M_insert_auxEN9__gnu_cxx17__normal_iteratorIPS1_S3_EERKS1_
 6754              		.type	_ZNSt6vectorIP8GuiImageSaIS1_EE13_M_insert_auxEN9__gnu_cxx17__normal_iteratorIPS1_S3_EERKS1_
 6755              	_ZNSt6vectorIP8GuiImageSaIS1_EE13_M_insert_auxEN9__gnu_cxx17__normal_iteratorIPS1_S3_EERKS1_:
 6756              	.LFB1776:
 6757              		.loc 10 300 0
 6758              		.cfi_startproc
 6759              	.LVL516:
 6760 0000 7C0802A6 		mflr 0
 6761 0004 9421FFD8 		stwu 1,-40(1)
 6762              	.LCFI96:
 6763              		.cfi_def_cfa_offset 40
 6764              		.cfi_register 65, 0
 6765 0008 93610014 		stw 27,20(1)
 6766 000c 9001002C 		stw 0,44(1)
 6767 0010 93C10020 		stw 30,32(1)
 6768              	.LBB5457:
 6769              		.loc 10 304 0
 6770 0014 83630004 		lwz 27,4(3)
 6771              		.cfi_offset 30, -8
 6772              		.cfi_offset 65, 4
 6773              		.cfi_offset 27, -20
 6774 0018 80030008 		lwz 0,8(3)
 6775              	.LBE5457:
 6776              		.loc 10 300 0
 6777 001c 93E10024 		stw 31,36(1)
 6778 0020 7C7F1B78 		mr 31,3
 6779              		.cfi_offset 31, -4
 6780              	.LBB5582:
 6781              		.loc 10 304 0
 6782 0024 7F9B0000 		cmpw 7,27,0
 6783              	.LBE5582:
 6784              		.loc 10 300 0
 6785 0028 93410010 		stw 26,16(1)
 6786 002c 93810018 		stw 28,24(1)
 6787 0030 93A1001C 		stw 29,28(1)
 6788              		.loc 10 300 0
 6789 0034 83C40000 		lwz 30,0(4)
 6790              	.LVL517:
 6791              	.LBB5583:
 6792              		.loc 10 304 0
 6793 0038 419E0078 		beq- 7,.L339
 6794              		.cfi_offset 29, -12
 6795              		.cfi_offset 28, -16
 6796              		.cfi_offset 26, -24
 6797              	.LVL518:
 6798              	.LBB5458:
 6799              	.LBB5459:
 6800              	.LBB5460:
 6801              		.loc 6 108 0
 6802 003c 2F9B0000 		cmpwi 7,27,0
 6803 0040 38600000 		li 3,0
 6804              	.LVL519:
 6805 0044 419E0010 		beq- 7,.L340
 6806 0048 801BFFFC 		lwz 0,-4(27)
 6807 004c 901B0000 		stw 0,0(27)
 6808 0050 807F0004 		lwz 3,4(31)
 6809              	.L340:
 6810              	.LBE5460:
 6811              	.LBE5459:
 6812              		.loc 10 313 0
 6813 0054 3803FFFC 		addi 0,3,-4
 6814              		.loc 10 309 0
 6815 0058 39230004 		addi 9,3,4
 6816              	.LBB5461:
 6817              	.LBB5462:
 6818              	.LBB5463:
 6819              	.LBB5464:
 6820              	.LBB5465:
 6821              	.LBB5466:
 6822              		.loc 11 559 0
 6823 005c 7C1E0050 		subf 0,30,0
 6824              	.LBE5466:
 6825              	.LBE5465:
 6826              	.LBE5464:
 6827              	.LBE5463:
 6828              	.LBE5462:
 6829              	.LBE5461:
 6830              		.loc 10 309 0
 6831 0060 913F0004 		stw 9,4(31)
 6832              	.LBB5482:
 6833              	.LBB5479:
 6834              	.LBB5476:
 6835              	.LBB5473:
 6836              	.LBB5470:
 6837              	.LBB5467:
 6838              		.loc 11 560 0
 6839 0064 7C001671 		srawi. 0,0,2
 6840              	.LBE5467:
 6841              	.LBE5470:
 6842              	.LBE5473:
 6843              	.LBE5476:
 6844              	.LBE5479:
 6845              	.LBE5482:
 6846              		.loc 10 311 0
 6847 0068 83E50000 		lwz 31,0(5)
 6848              	.LVL520:
 6849              	.LBB5483:
 6850              	.LBB5480:
 6851              	.LBB5477:
 6852              	.LBB5474:
 6853              	.LBB5471:
 6854              	.LBB5468:
 6855              		.loc 11 560 0
 6856 006c 40820030 		bne- 0,.L355
 6857              	.LVL521:
 6858              	.L341:
 6859              	.LBE5468:
 6860              	.LBE5471:
 6861              	.LBE5474:
 6862              	.LBE5477:
 6863              	.LBE5480:
 6864              	.LBE5483:
 6865              	.LBE5458:
 6866              	.LBE5583:
 6867              		.loc 10 373 0
 6868 0070 8001002C 		lwz 0,44(1)
 6869              	.LBB5584:
 6870              	.LBB5485:
 6871              		.loc 10 317 0
 6872 0074 93FE0000 		stw 31,0(30)
 6873              	.LBE5485:
 6874              	.LBE5584:
 6875              		.loc 10 373 0
 6876 0078 7C0803A6 		mtlr 0
 6877 007c 83410010 		lwz 26,16(1)
 6878 0080 83610014 		lwz 27,20(1)
 6879              	.LVL522:
 6880 0084 83810018 		lwz 28,24(1)
 6881 0088 83A1001C 		lwz 29,28(1)
 6882 008c 83C10020 		lwz 30,32(1)
 6883              	.LVL523:
 6884 0090 83E10024 		lwz 31,36(1)
 6885              	.LVL524:
 6886 0094 38210028 		addi 1,1,40
 6887              		.cfi_remember_state
 6888              	.LCFI97:
 6889              		.cfi_def_cfa_offset 0
 6890              		.cfi_restore 31
 6891              		.cfi_restore 30
 6892              		.cfi_restore 29
 6893              		.cfi_restore 28
 6894              		.cfi_restore 27
 6895              		.cfi_restore 26
 6896 0098 4E800020 		blr
 6897              	.LVL525:
 6898              	.L355:
 6899              	.LCFI98:
 6900              		.cfi_restore_state
 6901              	.LBB5585:
 6902              	.LBB5486:
 6903              	.LBB5484:
 6904              	.LBB5481:
 6905              	.LBB5478:
 6906              	.LBB5475:
 6907              	.LBB5472:
 6908              	.LBB5469:
 6909              		.loc 11 561 0
 6910 009c 5405103A 		slwi 5,0,2
 6911              	.LVL526:
 6912 00a0 7FC4F378 		mr 4,30
 6913 00a4 7C651850 		subf 3,5,3
 6914              	.LVL527:
 6915 00a8 48000001 		bl memmove
 6916              	.LVL528:
 6917 00ac 4BFFFFC4 		b .L341
 6918              	.LVL529:
 6919              	.L339:
 6920              	.LBE5469:
 6921              	.LBE5472:
 6922              	.LBE5475:
 6923              	.LBE5478:
 6924              	.LBE5481:
 6925              	.LBE5484:
 6926              	.LBE5486:
 6927              	.LBB5487:
 6928              	.LBB5488:
 6929              	.LBB5489:
 6930              	.LBB5490:
 6931              	.LBB5491:
 6932              		.loc 8 571 0
 6933 00b0 83830000 		lwz 28,0(3)
 6934 00b4 7F7CD850 		subf 27,28,27
 6935              	.LBE5491:
 6936              	.LBE5490:
 6937              	.LBB5492:
 6938              	.LBB5493:
 6939              		.loc 11 215 0
 6940 00b8 7F7B1671 		srawi. 27,27,2
 6941 00bc 418200E8 		beq- 0,.L343
 6942              	.LBE5493:
 6943              	.LBE5492:
 6944              		.loc 8 1244 0
 6945 00c0 5760083C 		slwi 0,27,1
 6946              	.LVL530:
 6947              		.loc 8 1245 0
 6948 00c4 7F9B0040 		cmplw 7,27,0
 6949 00c8 409D00EC 		ble- 7,.L356
 6950              	.L344:
 6951              	.LVL531:
 6952              	.LBE5489:
 6953              	.LBE5488:
 6954              	.LBB5496:
 6955              	.LBB5497:
 6956              		.loc 9 892 0
 6957 00cc 7F9CF050 		subf 28,28,30
 6958              	.LBE5497:
 6959              	.LBE5496:
 6960              		.loc 10 326 0
 6961 00d0 3B60FFFC 		li 27,-4
 6962              	.LBB5503:
 6963              	.LBB5498:
 6964              		.loc 9 892 0
 6965 00d4 7F9C1670 		srawi 28,28,2
 6966              	.LVL532:
 6967              	.L350:
 6968              	.LBE5498:
 6969              	.LBE5503:
 6970              	.LBB5504:
 6971              	.LBB5505:
 6972              	.LBB5506:
 6973              	.LBB5507:
 6974              		.loc 6 92 0
 6975 00d8 7F63DB78 		mr 3,27
 6976              	.LVL533:
 6977 00dc 90A10008 		stw 5,8(1)
 6978 00e0 48000001 		bl _Znwj
 6979              	.LVL534:
 6980 00e4 80A10008 		lwz 5,8(1)
 6981 00e8 7C7D1B78 		mr 29,3
 6982              	.L345:
 6983              	.LVL535:
 6984              	.LBE5507:
 6985              	.LBE5506:
 6986              	.LBE5505:
 6987              	.LBE5504:
 6988              		.loc 10 335 0
 6989 00ec 579C103A 		slwi 28,28,2
 6990              	.LVL536:
 6991 00f0 7C1DE214 		add 0,29,28
 6992              	.LVL537:
 6993              	.LBB5510:
 6994              	.LBB5511:
 6995              		.loc 6 108 0
 6996 00f4 2F800000 		cmpwi 7,0,0
 6997 00f8 419E000C 		beq- 7,.L346
 6998 00fc 80050000 		lwz 0,0(5)
 6999              	.LVL538:
 7000 0100 7C1DE12E 		stwx 0,29,28
 7001              	.L346:
 7002              	.LVL539:
 7003              	.LBE5511:
 7004              	.LBE5510:
 7005              		.loc 10 343 0
 7006 0104 809F0000 		lwz 4,0(31)
 7007              	.LVL540:
 7008              	.LBB5512:
 7009              	.LBB5513:
 7010              	.LBB5514:
 7011              	.LBB5515:
 7012              	.LBB5516:
 7013              	.LBB5517:
 7014              	.LBB5518:
 7015              	.LBB5519:
 7016              	.LBB5520:
 7017              	.LBB5521:
 7018              	.LBB5522:
 7019              		.loc 11 365 0
 7020 0108 3B800000 		li 28,0
 7021              		.loc 11 364 0
 7022 010c 7C04F050 		subf 0,4,30
 7023              	.LVL541:
 7024              		.loc 11 365 0
 7025 0110 7C001671 		srawi. 0,0,2
 7026              	.LVL542:
 7027 0114 41A20014 		beq+ 0,.L347
 7028              		.loc 11 366 0
 7029 0118 541C103A 		slwi 28,0,2
 7030 011c 7FA3EB78 		mr 3,29
 7031 0120 7F85E378 		mr 5,28
 7032              	.LVL543:
 7033 0124 48000001 		bl memmove
 7034              	.LVL544:
 7035              	.L347:
 7036              	.LBE5522:
 7037              	.LBE5521:
 7038              	.LBE5520:
 7039              	.LBE5519:
 7040              	.LBE5518:
 7041              	.LBE5517:
 7042              	.LBE5516:
 7043              	.LBE5515:
 7044              	.LBE5514:
 7045              	.LBE5513:
 7046              	.LBE5512:
 7047              	.LBB5533:
 7048              	.LBB5534:
 7049              	.LBB5535:
 7050              	.LBB5536:
 7051              	.LBB5537:
 7052              	.LBB5538:
 7053              	.LBB5539:
 7054              	.LBB5540:
 7055              	.LBB5541:
 7056              	.LBB5542:
 7057              	.LBB5543:
 7058              		.loc 11 364 0
 7059 0128 801F0004 		lwz 0,4(31)
 7060              	.LBE5543:
 7061              	.LBE5542:
 7062              	.LBE5541:
 7063              	.LBE5540:
 7064              	.LBE5539:
 7065              	.LBE5538:
 7066              	.LBE5537:
 7067              	.LBE5536:
 7068              	.LBE5535:
 7069              	.LBE5534:
 7070              	.LBE5533:
 7071              	.LBB5564:
 7072              	.LBB5532:
 7073              	.LBB5531:
 7074              	.LBB5530:
 7075              	.LBB5529:
 7076              	.LBB5528:
 7077              	.LBB5527:
 7078              	.LBB5526:
 7079              	.LBB5525:
 7080              	.LBB5524:
 7081              	.LBB5523:
 7082              		.loc 11 367 0
 7083 012c 7F9DE214 		add 28,29,28
 7084              	.LVL545:
