   1              		.file	"gui_checkbox.cpp"
   2              		.section	".text"
   3              	.Ltext0:
   4              		.section	.text._ZN7sigslot15single_threadedD2Ev,"axG",@progbits,_ZN7sigslot15single_threadedD5Ev,c
   5              		.align 2
   6              		.weak	_ZN7sigslot15single_threadedD2Ev
   7              		.type	_ZN7sigslot15single_threadedD2Ev, @function
   8              	_ZN7sigslot15single_threadedD2Ev:
   9              	.LFB1148:
  10              		.file 1 "d:/Projects/SaveGameManager/savegame-manager-gx/trunk/source/GUI/../sigslot.h"
  11              		.loc 1 104 0
  12              		.cfi_startproc
  13              	.LVL0:
  14              	.LBB1394:
  15              		.loc 1 105 0
  16 0000 3D200000 		lis 9,_ZTVN7sigslot15single_threadedE+8@ha
  17              	.LBE1394:
  18              		.loc 1 107 0
  19              	.LBB1395:
  20              		.loc 1 105 0
  21 0004 38090008 		la 0,_ZTVN7sigslot15single_threadedE+8@l(9)
  22 0008 90030000 		stw 0,0(3)
  23              	.LBE1395:
  24              		.loc 1 107 0
  25 000c 4E800020 		blr
  26              		.cfi_endproc
  27              	.LFE1148:
  28              		.size	_ZN7sigslot15single_threadedD2Ev, .-_ZN7sigslot15single_threadedD2Ev
  29              		.section	.text._ZN7sigslot15single_threaded4lockEv,"axG",@progbits,_ZN7sigslot15single_threaded4lo
  30              		.align 2
  31              		.weak	_ZN7sigslot15single_threaded4lockEv
  32              		.type	_ZN7sigslot15single_threaded4lockEv, @function
  33              	_ZN7sigslot15single_threaded4lockEv:
  34              	.LFB1151:
  35              		.loc 1 109 0
  36              		.cfi_startproc
  37              	.LVL1:
  38              		.loc 1 112 0
  39 0000 4E800020 		blr
  40              		.cfi_endproc
  41              	.LFE1151:
  42              		.size	_ZN7sigslot15single_threaded4lockEv, .-_ZN7sigslot15single_threaded4lockEv
  43              		.section	.text._ZN7sigslot15single_threaded6unlockEv,"axG",@progbits,_ZN7sigslot15single_threaded6
  44              		.align 2
  45              		.weak	_ZN7sigslot15single_threaded6unlockEv
  46              		.type	_ZN7sigslot15single_threaded6unlockEv, @function
  47              	_ZN7sigslot15single_threaded6unlockEv:
  48              	.LFB1152:
  49              		.loc 1 114 0
  50              		.cfi_startproc
  51              	.LVL2:
  52              		.loc 1 117 0
  53 0000 4E800020 		blr
  54              		.cfi_endproc
  55              	.LFE1152:
  56              		.size	_ZN7sigslot15single_threaded6unlockEv, .-_ZN7sigslot15single_threaded6unlockEv
  57              		.section	.text._ZN10GuiElement9SetParentEPS_,"axG",@progbits,_ZN10GuiElement9SetParentEPS_,comdat
  58              		.align 2
  59              		.weak	_ZN10GuiElement9SetParentEPS_
  60              		.type	_ZN10GuiElement9SetParentEPS_, @function
  61              	_ZN10GuiElement9SetParentEPS_:
  62              	.LFB1384:
  63              		.file 2 "d:/Projects/SaveGameManager/savegame-manager-gx/trunk/source/GUI/gui_element.h"
  64              		.loc 2 92 0
  65              		.cfi_startproc
  66              	.LVL3:
  67              		.loc 2 92 0
  68 0000 90830060 		stw 4,96(3)
  69 0004 4E800020 		blr
  70              		.cfi_endproc
  71              	.LFE1384:
  72              		.size	_ZN10GuiElement9SetParentEPS_, .-_ZN10GuiElement9SetParentEPS_
  73              		.section	.text._ZN10GuiElement9GetParentEv,"axG",@progbits,_ZN10GuiElement9GetParentEv,comdat
  74              		.align 2
  75              		.weak	_ZN10GuiElement9GetParentEv
  76              		.type	_ZN10GuiElement9GetParentEv, @function
  77              	_ZN10GuiElement9GetParentEv:
  78              	.LFB1385:
  79              		.loc 2 95 0
  80              		.cfi_startproc
  81              	.LVL4:
  82              		.loc 2 95 0
  83 0000 80630060 		lwz 3,96(3)
  84              	.LVL5:
  85 0004 4E800020 		blr
  86              		.cfi_endproc
  87              	.LFE1385:
  88              		.size	_ZN10GuiElement9GetParentEv, .-_ZN10GuiElement9GetParentEv
  89              		.section	.text._ZN10GuiElement12GetZPositionEv,"axG",@progbits,_ZN10GuiElement12GetZPositionEv,com
  90              		.align 2
  91              		.weak	_ZN10GuiElement12GetZPositionEv
  92              		.type	_ZN10GuiElement12GetZPositionEv, @function
  93              	_ZN10GuiElement12GetZPositionEv:
  94              	.LFB1386:
  95              		.loc 2 106 0
  96              		.cfi_startproc
  97              	.LVL6:
  98 0000 7C0802A6 		mflr 0
  99 0004 9421FFF0 		stwu 1,-16(1)
 100              	.LCFI0:
 101              		.cfi_def_cfa_offset 16
 102              		.cfi_register 65, 0
 103 0008 93E1000C 		stw 31,12(1)
 104 000c 7C7F1B78 		mr 31,3
 105              		.cfi_offset 31, -4
 106 0010 90010014 		stw 0,20(1)
 107              	.LBB1396:
 108              		.loc 2 110 0
 109 0014 81630060 		lwz 11,96(3)
 110              		.loc 2 108 0
 111 0018 38600000 		li 3,0
 112              	.LVL7:
 113              		.loc 2 110 0
 114 001c 2F8B0000 		cmpwi 7,11,0
 115 0020 419E0018 		beq- 7,.L8
 116              		.cfi_offset 65, 4
 117              		.loc 2 111 0
 118 0024 812B0000 		lwz 9,0(11)
 119 0028 7D635B78 		mr 3,11
 120 002c 80090018 		lwz 0,24(9)
 121 0030 7C0903A6 		mtctr 0
 122 0034 4E800421 		bctrl
 123              	.LVL8:
 124              	.L8:
 125              		.loc 2 113 0
 126 0038 801F0034 		lwz 0,52(31)
 127              	.LBE1396:
 128              		.loc 2 114 0
 129 003c 83E1000C 		lwz 31,12(1)
 130              	.LVL9:
 131 0040 7C630214 		add 3,3,0
 132              	.LVL10:
 133 0044 80010014 		lwz 0,20(1)
 134 0048 38210010 		addi 1,1,16
 135              	.LCFI1:
 136              		.cfi_def_cfa_offset 0
 137              		.cfi_restore 31
 138 004c 7C0803A6 		mtlr 0
 139 0050 4E800020 		blr
 140              		.cfi_endproc
 141              	.LFE1386:
 142              		.size	_ZN10GuiElement12GetZPositionEv, .-_ZN10GuiElement12GetZPositionEv
 143              		.section	.text._ZN10GuiElement10GetLeftPosEv,"axG",@progbits,_ZN10GuiElement10GetLeftPosEv,comdat
 144              		.align 2
 145              		.weak	_ZN10GuiElement10GetLeftPosEv
 146              		.type	_ZN10GuiElement10GetLeftPosEv, @function
 147              	_ZN10GuiElement10GetLeftPosEv:
 148              	.LFB1387:
 149              		.loc 2 116 0
 150              		.cfi_startproc
 151              	.LVL11:
 152              		.loc 2 116 0
 153 0000 8063002C 		lwz 3,44(3)
 154              	.LVL12:
 155 0004 4E800020 		blr
 156              		.cfi_endproc
 157              	.LFE1387:
 158              		.size	_ZN10GuiElement10GetLeftPosEv, .-_ZN10GuiElement10GetLeftPosEv
 159              		.section	.text._ZN10GuiElement9GetTopPosEv,"axG",@progbits,_ZN10GuiElement9GetTopPosEv,comdat
 160              		.align 2
 161              		.weak	_ZN10GuiElement9GetTopPosEv
 162              		.type	_ZN10GuiElement9GetTopPosEv, @function
 163              	_ZN10GuiElement9GetTopPosEv:
 164              	.LFB1388:
 165              		.loc 2 118 0
 166              		.cfi_startproc
 167              	.LVL13:
 168              		.loc 2 118 0
 169 0000 80630030 		lwz 3,48(3)
 170              	.LVL14:
 171 0004 4E800020 		blr
 172              		.cfi_endproc
 173              	.LFE1388:
 174              		.size	_ZN10GuiElement9GetTopPosEv, .-_ZN10GuiElement9GetTopPosEv
 175              		.section	.text._ZN10GuiElement8GetWidthEv,"axG",@progbits,_ZN10GuiElement8GetWidthEv,comdat
 176              		.align 2
 177              		.weak	_ZN10GuiElement8GetWidthEv
 178              		.type	_ZN10GuiElement8GetWidthEv, @function
 179              	_ZN10GuiElement8GetWidthEv:
 180              	.LFB1389:
 181              		.loc 2 121 0
 182              		.cfi_startproc
 183              	.LVL15:
 184              		.loc 2 121 0
 185 0000 80630024 		lwz 3,36(3)
 186              	.LVL16:
 187 0004 4E800020 		blr
 188              		.cfi_endproc
 189              	.LFE1389:
 190              		.size	_ZN10GuiElement8GetWidthEv, .-_ZN10GuiElement8GetWidthEv
 191              		.section	.text._ZN10GuiElement9GetHeightEv,"axG",@progbits,_ZN10GuiElement9GetHeightEv,comdat
 192              		.align 2
 193              		.weak	_ZN10GuiElement9GetHeightEv
 194              		.type	_ZN10GuiElement9GetHeightEv, @function
 195              	_ZN10GuiElement9GetHeightEv:
 196              	.LFB1390:
 197              		.loc 2 124 0
 198              		.cfi_startproc
 199              	.LVL17:
 200              		.loc 2 124 0
 201 0000 80630028 		lwz 3,40(3)
 202              	.LVL18:
 203 0004 4E800020 		blr
 204              		.cfi_endproc
 205              	.LFE1390:
 206              		.size	_ZN10GuiElement9GetHeightEv, .-_ZN10GuiElement9GetHeightEv
 207              		.section	.text._ZN10GuiElement10SetVisibleEb,"axG",@progbits,_ZN10GuiElement10SetVisibleEb,comdat
 208              		.align 2
 209              		.weak	_ZN10GuiElement10SetVisibleEb
 210              		.type	_ZN10GuiElement10SetVisibleEb, @function
 211              	_ZN10GuiElement10SetVisibleEb:
 212              	.LFB1392:
 213              		.loc 2 135 0
 214              		.cfi_startproc
 215              		.cfi_personality 0,__gxx_personality_v0
 216              		.cfi_lsda 0,.LLSDA1392
 217              	.LVL19:
 218 0000 7C0802A6 		mflr 0
 219 0004 9421FFE0 		stwu 1,-32(1)
 220              	.LCFI2:
 221              		.cfi_def_cfa_offset 32
 222              		.cfi_register 65, 0
 223 0008 9361000C 		stw 27,12(1)
 224              	.LBB1397:
 225              	.LBB1398:
 226              		.loc 1 2270 0
 227 000c 3B630004 		addi 27,3,4
 228              		.cfi_offset 27, -20
 229              	.LBE1398:
 230              	.LBE1397:
 231              		.loc 2 135 0
 232 0010 90010024 		stw 0,36(1)
 233 0014 93C10018 		stw 30,24(1)
 234 0018 7C7E1B78 		mr 30,3
 235              		.cfi_offset 30, -8
 236              		.cfi_offset 65, 4
 237              	.LBB1421:
 238              	.LBB1415:
 239              	.LBB1399:
 240              	.LBB1400:
 241              		.loc 1 338 0
 242 001c 81230004 		lwz 9,4(3)
 243 0020 7F63DB78 		mr 3,27
 244              	.LVL20:
 245              	.LBE1400:
 246              	.LBE1399:
 247              	.LBE1415:
 248              	.LBE1421:
 249              		.loc 2 135 0
 250 0024 93810010 		stw 28,16(1)
 251 0028 7C9C2378 		mr 28,4
 252              		.cfi_offset 28, -16
 253              	.LBB1422:
 254              	.LBB1416:
 255              	.LBB1404:
 256              	.LBB1401:
 257              		.loc 1 338 0
 258 002c 80090008 		lwz 0,8(9)
 259              	.LBE1401:
 260              	.LBE1404:
 261              	.LBE1416:
 262              	.LBE1422:
 263              		.loc 2 135 0
 264 0030 93A10014 		stw 29,20(1)
 265              	.LBB1423:
 266              		.file 3 "d:/Projects/SaveGameManager/savegame-manager-gx/trunk/source/GUI/gui_checkbox.cpp"
 267              		.loc 3 144 0
 268 0034 7FDDF378 		mr 29,30
 269              		.cfi_offset 29, -12
 270              	.LBE1423:
 271              		.loc 2 135 0
 272 0038 93E1001C 		stw 31,28(1)
 273              	.LBB1424:
 274              	.LBB1417:
 275              	.LBB1405:
 276              	.LBB1402:
 277              		.loc 1 338 0
 278 003c 7C0903A6 		mtctr 0
 279              	.LBE1402:
 280              	.LBE1405:
 281              	.LBE1417:
 282              	.LBE1424:
 283              		.loc 2 137 0
 284 0040 989E001D 		stb 4,29(30)
 285              	.LVL21:
 286              	.LEHB0:
 287              	.LBB1425:
 288              	.LBB1418:
 289              	.LBB1406:
 290              	.LBB1403:
 291              		.loc 1 338 0
 292              		.cfi_offset 31, -4
 293 0044 4E800421 		bctrl
 294              	.LEHE0:
 295              	.LVL22:
 296              	.LBE1403:
 297              	.LBE1406:
 298              	.LBE1418:
 299              		.loc 3 144 0
 300 0048 87FD0008 		lwzu 31,8(29)
 301              	.LVL23:
 302              	.LBB1419:
 303              		.loc 1 2274 0
 304 004c 7F9FE800 		cmpw 7,31,29
 305 0050 419E002C 		beq- 7,.L16
 306              	.LVL24:
 307              	.L23:
 308              		.loc 1 2279 0
 309 0054 807F0008 		lwz 3,8(31)
 310 0058 7FC4F378 		mr 4,30
 311 005c 7F85E378 		mr 5,28
 312              	.LBB1407:
 313              	.LBB1408:
 314              		.file 4 "d:\\devkitpro\\devkitppc\\bin\\../lib/gcc/powerpc-eabi/4.6.3/../../../../powerpc-eabi/inc
 315              		.loc 4 234 0
 316 0060 83FF0000 		lwz 31,0(31)
 317              	.LVL25:
 318              	.LBE1408:
 319              	.LBE1407:
 320              		.loc 1 2279 0
 321 0064 81230000 		lwz 9,0(3)
 322 0068 8009000C 		lwz 0,12(9)
 323 006c 7C0903A6 		mtctr 0
 324              	.LEHB1:
 325 0070 4E800421 		bctrl
 326              	.LEHE1:
 327              	.LVL26:
 328              		.loc 1 2274 0
 329 0074 7F9DF800 		cmpw 7,29,31
 330 0078 409EFFDC 		bne+ 7,.L23
 331              	.LVL27:
 332              	.L16:
 333              	.LBB1409:
 334              	.LBB1410:
 335              	.LBB1411:
 336              		.loc 1 343 0
 337 007c 813E0004 		lwz 9,4(30)
 338 0080 7F63DB78 		mr 3,27
 339 0084 8009000C 		lwz 0,12(9)
 340 0088 7C0903A6 		mtctr 0
 341              	.LEHB2:
 342 008c 4E800421 		bctrl
 343              	.LEHE2:
 344              	.LBE1411:
 345              	.LBE1410:
 346              	.LBE1409:
 347              	.LBE1419:
 348              	.LBE1425:
 349              		.loc 2 139 0
 350 0090 80010024 		lwz 0,36(1)
 351 0094 8361000C 		lwz 27,12(1)
 352              	.LVL28:
 353 0098 7C0803A6 		mtlr 0
 354 009c 83810010 		lwz 28,16(1)
 355              	.LVL29:
 356 00a0 83A10014 		lwz 29,20(1)
 357 00a4 83C10018 		lwz 30,24(1)
 358              	.LVL30:
 359 00a8 83E1001C 		lwz 31,28(1)
 360              	.LVL31:
 361 00ac 38210020 		addi 1,1,32
 362              		.cfi_remember_state
 363              	.LCFI3:
 364              		.cfi_def_cfa_offset 0
 365              		.cfi_restore 31
 366              		.cfi_restore 30
 367              		.cfi_restore 29
 368              		.cfi_restore 28
 369              		.cfi_restore 27
 370 00b0 4E800020 		blr
 371              	.LVL32:
 372              	.L22:
 373              	.LCFI4:
 374              		.cfi_restore_state
 375              	.LBB1426:
 376              	.LBB1420:
 377              	.LBB1412:
 378              	.LBB1413:
 379              	.LBB1414:
 380              		.loc 1 343 0
 381 00b4 813E0004 		lwz 9,4(30)
 382 00b8 7C7F1B78 		mr 31,3
 383              	.LVL33:
 384 00bc 7F63DB78 		mr 3,27
 385 00c0 8009000C 		lwz 0,12(9)
 386 00c4 7C0903A6 		mtctr 0
 387 00c8 4E800421 		bctrl
 388 00cc 7FE3FB78 		mr 3,31
 389              	.LEHB3:
 390 00d0 48000001 		bl _Unwind_Resume
 391              	.LEHE3:
 392              	.LBE1414:
 393              	.LBE1413:
 394              	.LBE1412:
 395              	.LBE1420:
 396              	.LBE1426:
 397              		.cfi_endproc
 398              	.LFE1392:
 399              		.globl __gxx_personality_v0
 400              		.section	.gcc_except_table,"a",@progbits
 401              	.LLSDA1392:
 402 0000 FF       		.byte	0xff
 403 0001 FF       		.byte	0xff
 404 0002 01       		.byte	0x1
 405 0003 13       		.uleb128 .LLSDACSE1392-.LLSDACSB1392
 406              	.LLSDACSB1392:
 407 0004 44       		.uleb128 .LEHB0-.LFB1392
 408 0005 04       		.uleb128 .LEHE0-.LEHB0
 409 0006 00       		.uleb128 0
 410 0007 00       		.uleb128 0
 411 0008 70       		.uleb128 .LEHB1-.LFB1392
 412 0009 04       		.uleb128 .LEHE1-.LEHB1
 413 000a B401     		.uleb128 .L22-.LFB1392
 414 000c 00       		.uleb128 0
 415 000d 8C01     		.uleb128 .LEHB2-.LFB1392
 416 000f 04       		.uleb128 .LEHE2-.LEHB2
 417 0010 00       		.uleb128 0
 418 0011 00       		.uleb128 0
 419 0012 D001     		.uleb128 .LEHB3-.LFB1392
 420 0014 04       		.uleb128 .LEHE3-.LEHB3
 421 0015 00       		.uleb128 0
 422 0016 00       		.uleb128 0
 423              	.LLSDACSE1392:
 424              		.section	.text._ZN10GuiElement10SetVisibleEb,"axG",@progbits,_ZN10GuiElement10SetVisibleEb,comdat
 425              		.size	_ZN10GuiElement10SetVisibleEb, .-_ZN10GuiElement10SetVisibleEb
 426              		.section	.text._ZN10GuiElement9IsVisibleEv,"axG",@progbits,_ZN10GuiElement9IsVisibleEv,comdat
 427              		.align 2
 428              		.weak	_ZN10GuiElement9IsVisibleEv
 429              		.type	_ZN10GuiElement9IsVisibleEv, @function
 430              	_ZN10GuiElement9IsVisibleEv:
 431              	.LFB1393:
 432              		.loc 2 142 0
 433              		.cfi_startproc
 434              	.LVL34:
 435              		.loc 2 142 0
 436 0000 8863001D 		lbz 3,29(3)
 437              	.LVL35:
 438 0004 4E800020 		blr
 439              		.cfi_endproc
 440              	.LFE1393:
 441              		.size	_ZN10GuiElement9IsVisibleEv, .-_ZN10GuiElement9IsVisibleEv
 442              		.section	.text._ZN10GuiElement12IsSelectableEv,"axG",@progbits,_ZN10GuiElement12IsSelectableEv,com
 443              		.align 2
 444              		.weak	_ZN10GuiElement12IsSelectableEv
 445              		.type	_ZN10GuiElement12IsSelectableEv, @function
 446              	_ZN10GuiElement12IsSelectableEv:
 447              	.LFB1394:
 448              		.loc 2 145 0
 449              		.cfi_startproc
 450              	.LVL36:
 451              		.loc 2 149 0
 452 0000 80030048 		lwz 0,72(3)
 453 0004 39200000 		li 9,0
 454 0008 2F800004 		cmpwi 7,0,4
 455 000c 419E0010 		beq- 7,.L26
 456              		.loc 2 149 0 is_stmt 0 discriminator 1
 457 0010 2F800002 		cmpwi 7,0,2
 458 0014 419E0008 		beq- 7,.L26
 459              		.loc 2 149 0 discriminator 3
 460 0018 8923001E 		lbz 9,30(3)
 461              	.L26:
 462              		.loc 2 150 0 is_stmt 1 discriminator 5
 463 001c 7D234B78 		mr 3,9
 464              	.LVL37:
 465 0020 4E800020 		blr
 466              		.cfi_endproc
 467              	.LFE1394:
 468              		.size	_ZN10GuiElement12IsSelectableEv, .-_ZN10GuiElement12IsSelectableEv
 469              		.section	.text._ZN10GuiElement11IsClickableEv,"axG",@progbits,_ZN10GuiElement11IsClickableEv,comda
 470              		.align 2
 471              		.weak	_ZN10GuiElement11IsClickableEv
 472              		.type	_ZN10GuiElement11IsClickableEv, @function
 473              	_ZN10GuiElement11IsClickableEv:
 474              	.LFB1395:
 475              		.loc 2 153 0
 476              		.cfi_startproc
 477              	.LVL38:
 478              		.loc 2 158 0
 479 0000 80030048 		lwz 0,72(3)
 480 0004 39200000 		li 9,0
 481 0008 2F800004 		cmpwi 7,0,4
 482 000c 419E0018 		beq- 7,.L30
 483              		.loc 2 158 0 is_stmt 0 discriminator 1
 484 0010 2F800002 		cmpwi 7,0,2
 485 0014 419E0010 		beq- 7,.L30
 486              		.loc 2 158 0 discriminator 3
 487 0018 2F800003 		cmpwi 7,0,3
 488 001c 419E0008 		beq- 7,.L30
 489              		.loc 2 158 0 discriminator 4
 490 0020 8923001F 		lbz 9,31(3)
 491              	.L30:
 492              		.loc 2 159 0 is_stmt 1 discriminator 6
 493 0024 7D234B78 		mr 3,9
 494              	.LVL39:
 495 0028 4E800020 		blr
 496              		.cfi_endproc
 497              	.LFE1395:
 498              		.size	_ZN10GuiElement11IsClickableEv, .-_ZN10GuiElement11IsClickableEv
 499              		.section	.text._ZN10GuiElement10IsHoldableEv,"axG",@progbits,_ZN10GuiElement10IsHoldableEv,comdat
 500              		.align 2
 501              		.weak	_ZN10GuiElement10IsHoldableEv
 502              		.type	_ZN10GuiElement10IsHoldableEv, @function
 503              	_ZN10GuiElement10IsHoldableEv:
 504              	.LFB1396:
 505              		.loc 2 162 0
 506              		.cfi_startproc
 507              	.LVL40:
 508              		.loc 2 162 0
 509 0000 81230048 		lwz 9,72(3)
 510 0004 38000000 		li 0,0
 511 0008 2F890004 		cmpwi 7,9,4
 512 000c 419E0008 		beq- 7,.L35
 513              		.loc 2 162 0 is_stmt 0 discriminator 1
 514 0010 88030020 		lbz 0,32(3)
 515              	.L35:
 516              		.loc 2 162 0 discriminator 4
 517 0014 7C030378 		mr 3,0
 518              	.LVL41:
 519 0018 4E800020 		blr
 520              		.cfi_endproc
 521              	.LFE1396:
 522              		.size	_ZN10GuiElement10IsHoldableEv, .-_ZN10GuiElement10IsHoldableEv
 523              		.section	.text._ZN10GuiElement13SetSelectableEb,"axG",@progbits,_ZN10GuiElement13SetSelectableEb,c
 524              		.align 2
 525              		.weak	_ZN10GuiElement13SetSelectableEb
 526              		.type	_ZN10GuiElement13SetSelectableEb, @function
 527              	_ZN10GuiElement13SetSelectableEb:
 528              	.LFB1397:
 529              		.loc 2 165 0 is_stmt 1
 530              		.cfi_startproc
 531              	.LVL42:
 532              		.loc 2 165 0
 533 0000 9883001E 		stb 4,30(3)
 534 0004 4E800020 		blr
 535              		.cfi_endproc
 536              	.LFE1397:
 537              		.size	_ZN10GuiElement13SetSelectableEb, .-_ZN10GuiElement13SetSelectableEb
 538              		.section	.text._ZN10GuiElement12SetClickableEb,"axG",@progbits,_ZN10GuiElement12SetClickableEb,com
 539              		.align 2
 540              		.weak	_ZN10GuiElement12SetClickableEb
 541              		.type	_ZN10GuiElement12SetClickableEb, @function
 542              	_ZN10GuiElement12SetClickableEb:
 543              	.LFB1398:
 544              		.loc 2 168 0
 545              		.cfi_startproc
 546              	.LVL43:
 547              		.loc 2 168 0
 548 0000 9883001F 		stb 4,31(3)
 549 0004 4E800020 		blr
 550              		.cfi_endproc
 551              	.LFE1398:
 552              		.size	_ZN10GuiElement12SetClickableEb, .-_ZN10GuiElement12SetClickableEb
 553              		.section	.text._ZN10GuiElement11SetHoldableEb,"axG",@progbits,_ZN10GuiElement11SetHoldableEb,comda
 554              		.align 2
 555              		.weak	_ZN10GuiElement11SetHoldableEb
 556              		.type	_ZN10GuiElement11SetHoldableEb, @function
 557              	_ZN10GuiElement11SetHoldableEb:
 558              	.LFB1399:
 559              		.loc 2 171 0
 560              		.cfi_startproc
 561              	.LVL44:
 562              		.loc 2 171 0
 563 0000 98830020 		stb 4,32(3)
 564 0004 4E800020 		blr
 565              		.cfi_endproc
 566              	.LFE1399:
 567              		.size	_ZN10GuiElement11SetHoldableEb, .-_ZN10GuiElement11SetHoldableEb
 568              		.section	.text._ZN10GuiElement8GetStateEv,"axG",@progbits,_ZN10GuiElement8GetStateEv,comdat
 569              		.align 2
 570              		.weak	_ZN10GuiElement8GetStateEv
 571              		.type	_ZN10GuiElement8GetStateEv, @function
 572              	_ZN10GuiElement8GetStateEv:
 573              	.LFB1400:
 574              		.loc 2 178 0
 575              		.cfi_startproc
 576              	.LVL45:
 577              		.loc 2 178 0
 578 0000 80630048 		lwz 3,72(3)
 579              	.LVL46:
 580 0004 4E800020 		blr
 581              		.cfi_endproc
 582              	.LFE1400:
 583              		.size	_ZN10GuiElement8GetStateEv, .-_ZN10GuiElement8GetStateEv
 584              		.section	.text._ZN10GuiElement12GetStateChanEv,"axG",@progbits,_ZN10GuiElement12GetStateChanEv,com
 585              		.align 2
 586              		.weak	_ZN10GuiElement12GetStateChanEv
 587              		.type	_ZN10GuiElement12GetStateChanEv, @function
 588              	_ZN10GuiElement12GetStateChanEv:
 589              	.LFB1401:
 590              		.loc 2 181 0
 591              		.cfi_startproc
 592              	.LVL47:
 593              		.loc 2 181 0
 594 0000 8063004C 		lwz 3,76(3)
 595              	.LVL48:
 596 0004 4E800020 		blr
 597              		.cfi_endproc
 598              	.LFE1401:
 599              		.size	_ZN10GuiElement12GetStateChanEv, .-_ZN10GuiElement12GetStateChanEv
 600              		.section	.text._ZN10GuiElement8SetAlphaEi,"axG",@progbits,_ZN10GuiElement8SetAlphaEi,comdat
 601              		.align 2
 602              		.weak	_ZN10GuiElement8SetAlphaEi
 603              		.type	_ZN10GuiElement8SetAlphaEi, @function
 604              	_ZN10GuiElement8SetAlphaEi:
 605              	.LFB1403:
 606              		.loc 2 190 0
 607              		.cfi_startproc
 608              	.LVL49:
 609              		.loc 2 190 0
 610 0000 90830038 		stw 4,56(3)
 611 0004 4E800020 		blr
 612              		.cfi_endproc
 613              	.LFE1403:
 614              		.size	_ZN10GuiElement8SetAlphaEi, .-_ZN10GuiElement8SetAlphaEi
 615              		.section	.text._ZN10GuiElement8GetAlphaEv,"axG",@progbits,_ZN10GuiElement8GetAlphaEv,comdat
 616              		.align 2
 617              		.weak	_ZN10GuiElement8GetAlphaEv
 618              		.type	_ZN10GuiElement8GetAlphaEv, @function
 619              	_ZN10GuiElement8GetAlphaEv:
 620              	.LFB1404:
 621              		.loc 2 194 0
 622              		.cfi_startproc
 623              	.LVL50:
 624 0000 7C0802A6 		mflr 0
 625 0004 9421FFD8 		stwu 1,-40(1)
 626              	.LCFI5:
 627              		.cfi_def_cfa_offset 40
 628              		.cfi_register 65, 0
 629 0008 93E10024 		stw 31,36(1)
 630 000c 9001002C 		stw 0,44(1)
 631              	.LBB1427:
 632              		.loc 2 198 0
 633 0010 83E3006C 		lwz 31,108(3)
 634              		.cfi_offset 65, 4
 635              		.cfi_offset 31, -4
 636 0014 2F9F0000 		cmpwi 7,31,0
 637 0018 419C0094 		blt- 7,.L46
 638              	.L44:
 639              	.LVL51:
 640              		.loc 2 203 0
 641 001c 80630060 		lwz 3,96(3)
 642              	.LVL52:
 643 0020 2F830000 		cmpwi 7,3,0
 644 0024 419E0070 		beq- 7,.L45
 645              		.loc 2 204 0
 646 0028 81230000 		lwz 9,0(3)
 647 002c 6FFF8000 		xoris 31,31,0x8000
 648              	.LVL53:
 649 0030 80090064 		lwz 0,100(9)
 650 0034 7C0903A6 		mtctr 0
 651 0038 4E800421 		bctrl
 652 003c 3C004330 		lis 0,0x4330
 653 0040 6C638000 		xoris 3,3,0x8000
 654 0044 90010010 		stw 0,16(1)
 655 0048 90610014 		stw 3,20(1)
 656 004c 3D200000 		lis 9,.LC1@ha
 657 0050 C0090000 		lfs 0,.LC1@l(9)
 658 0054 3D200000 		lis 9,.LC2@ha
 659 0058 C9A10010 		lfd 13,16(1)
 660 005c C1890004 		lfs 12,.LC2@l(9)
 661 0060 39210018 		addi 9,1,24
 662 0064 FDAD0028 		fsub 13,13,0
 663 0068 93E1000C 		stw 31,12(1)
 664 006c 90010008 		stw 0,8(1)
 665 0070 FDA06818 		frsp 13,13
 666 0074 EDAD6024 		fdivs 13,13,12
 667 0078 C9810008 		lfd 12,8(1)
 668 007c FC0C0028 		fsub 0,12,0
 669 0080 FC000018 		frsp 0,0
 670 0084 EC000372 		fmuls 0,0,13
 671 0088 FC00001E 		fctiwz 0,0
 672 008c 7C004FAE 		stfiwx 0,0,9
 673 0090 83E10018 		lwz 31,24(1)
 674              	.LVL54:
 675              	.L45:
 676              	.LBE1427:
 677              		.loc 2 207 0
 678 0094 8001002C 		lwz 0,44(1)
 679 0098 7FE3FB78 		mr 3,31
 680 009c 83E10024 		lwz 31,36(1)
 681              	.LVL55:
 682 00a0 7C0803A6 		mtlr 0
 683 00a4 38210028 		addi 1,1,40
 684              		.cfi_remember_state
 685              	.LCFI6:
 686              		.cfi_def_cfa_offset 0
 687              		.cfi_restore 31
 688 00a8 4E800020 		blr
 689              	.LVL56:
 690              	.L46:
 691              	.LCFI7:
 692              		.cfi_restore_state
 693              	.LBB1428:
 694              		.loc 2 201 0
 695 00ac 83E30038 		lwz 31,56(3)
 696              	.LVL57:
 697 00b0 4BFFFF6C 		b .L44
 698              	.LBE1428:
 699              		.cfi_endproc
 700              	.LFE1404:
 701              		.size	_ZN10GuiElement8GetAlphaEv, .-_ZN10GuiElement8GetAlphaEv
 702              		.section	.text._ZN10GuiElement8SetScaleEf,"axG",@progbits,_ZN10GuiElement8SetScaleEf,comdat
 703              		.align 2
 704              		.weak	_ZN10GuiElement8SetScaleEf
 705              		.type	_ZN10GuiElement8SetScaleEf, @function
 706              	_ZN10GuiElement8SetScaleEf:
 707              	.LFB1405:
 708              		.loc 2 210 0
 709              		.cfi_startproc
 710              	.LVL58:
 711              		.loc 2 212 0
 712 0000 D023003C 		stfs 1,60(3)
 713              		.loc 2 214 0
 714              		.loc 2 213 0
 715 0004 D0230040 		stfs 1,64(3)
 716              		.loc 2 214 0
 717 0008 4E800020 		blr
 718              		.cfi_endproc
 719              	.LFE1405:
 720              		.size	_ZN10GuiElement8SetScaleEf, .-_ZN10GuiElement8SetScaleEf
 721              		.section	.text._ZN10GuiElement9SetScaleXEf,"axG",@progbits,_ZN10GuiElement9SetScaleXEf,comdat
 722              		.align 2
 723              		.weak	_ZN10GuiElement9SetScaleXEf
 724              		.type	_ZN10GuiElement9SetScaleXEf, @function
 725              	_ZN10GuiElement9SetScaleXEf:
 726              	.LFB1406:
 727              		.loc 2 217 0
 728              		.cfi_startproc
 729              	.LVL59:
 730              		.loc 2 217 0
 731 0000 D023003C 		stfs 1,60(3)
 732 0004 4E800020 		blr
 733              		.cfi_endproc
 734              	.LFE1406:
 735              		.size	_ZN10GuiElement9SetScaleXEf, .-_ZN10GuiElement9SetScaleXEf
 736              		.section	.text._ZN10GuiElement9SetScaleYEf,"axG",@progbits,_ZN10GuiElement9SetScaleYEf,comdat
 737              		.align 2
 738              		.weak	_ZN10GuiElement9SetScaleYEf
 739              		.type	_ZN10GuiElement9SetScaleYEf, @function
 740              	_ZN10GuiElement9SetScaleYEf:
 741              	.LFB1407:
 742              		.loc 2 220 0
 743              		.cfi_startproc
 744              	.LVL60:
 745              		.loc 2 220 0
 746 0000 D0230040 		stfs 1,64(3)
 747 0004 4E800020 		blr
 748              		.cfi_endproc
 749              	.LFE1407:
 750              		.size	_ZN10GuiElement9SetScaleYEf, .-_ZN10GuiElement9SetScaleYEf
 751              		.section	.text._ZN10GuiElement8GetScaleEv,"axG",@progbits,_ZN10GuiElement8GetScaleEv,comdat
 752              		.align 2
 753              		.weak	_ZN10GuiElement8GetScaleEv
 754              		.type	_ZN10GuiElement8GetScaleEv, @function
 755              	_ZN10GuiElement8GetScaleEv:
 756              	.LFB1408:
 757              		.loc 2 223 0
 758              		.cfi_startproc
 759              	.LVL61:
 760 0000 7C0802A6 		mflr 0
 761 0004 9421FFF0 		stwu 1,-16(1)
 762              	.LCFI8:
 763              		.cfi_def_cfa_offset 16
 764              		.cfi_register 65, 0
 765              	.LBB1429:
 766              		.loc 2 225 0
 767 0008 3D200000 		lis 9,.LC3@ha
 768              	.LBE1429:
 769              		.loc 2 223 0
 770 000c DBE10008 		stfd 31,8(1)
 771 0010 90010014 		stw 0,20(1)
 772              	.LBB1430:
 773              		.loc 2 225 0
 774 0014 C0030040 		lfs 0,64(3)
 775 0018 C3E3003C 		lfs 31,60(3)
 776              		.cfi_offset 65, 4
 777              		.cfi_offset 63, -8
 778              		.loc 2 227 0
 779 001c 81630060 		lwz 11,96(3)
 780              		.loc 2 225 0
 781 0020 EFFF002A 		fadds 31,31,0
 782 0024 C0090008 		lfs 0,.LC3@l(9)
 783              		.loc 2 227 0
 784 0028 2F8B0000 		cmpwi 7,11,0
 785              		.loc 2 225 0
 786 002c EFFF0032 		fmuls 31,31,0
 787 0030 C0030070 		lfs 0,112(3)
 788 0034 EFFF0032 		fmuls 31,31,0
 789              	.LVL62:
 790              		.loc 2 227 0
 791 0038 419E001C 		beq- 7,.L51
 792              		.loc 2 228 0
 793 003c 812B0000 		lwz 9,0(11)
 794 0040 7D635B78 		mr 3,11
 795              	.LVL63:
 796 0044 80090074 		lwz 0,116(9)
 797 0048 7C0903A6 		mtctr 0
 798 004c 4E800421 		bctrl
 799 0050 EFFF0072 		fmuls 31,31,1
 800              	.LVL64:
 801              	.L51:
 802              	.LBE1430:
 803              		.loc 2 231 0
 804 0054 80010014 		lwz 0,20(1)
 805 0058 FC20F890 		fmr 1,31
 806 005c CBE10008 		lfd 31,8(1)
 807              	.LVL65:
 808 0060 7C0803A6 		mtlr 0
 809 0064 38210010 		addi 1,1,16
 810              	.LCFI9:
 811              		.cfi_def_cfa_offset 0
 812              		.cfi_restore 63
 813 0068 4E800020 		blr
 814              		.cfi_endproc
 815              	.LFE1408:
 816              		.size	_ZN10GuiElement8GetScaleEv, .-_ZN10GuiElement8GetScaleEv
 817              		.section	.text._ZN10GuiElement9GetScaleXEv,"axG",@progbits,_ZN10GuiElement9GetScaleXEv,comdat
 818              		.align 2
 819              		.weak	_ZN10GuiElement9GetScaleXEv
 820              		.type	_ZN10GuiElement9GetScaleXEv, @function
 821              	_ZN10GuiElement9GetScaleXEv:
 822              	.LFB1409:
 823              		.loc 2 234 0
 824              		.cfi_startproc
 825              	.LVL66:
 826 0000 7C0802A6 		mflr 0
 827 0004 9421FFF0 		stwu 1,-16(1)
 828              	.LCFI10:
 829              		.cfi_def_cfa_offset 16
 830              		.cfi_register 65, 0
 831 0008 DBE10008 		stfd 31,8(1)
 832 000c 90010014 		stw 0,20(1)
 833              	.LBB1431:
 834              		.loc 2 238 0
 835 0010 81630060 		lwz 11,96(3)
 836              		.loc 2 236 0
 837 0014 C3E3003C 		lfs 31,60(3)
 838              		.cfi_offset 65, 4
 839              		.cfi_offset 63, -8
 840              		.loc 2 238 0
 841 0018 2F8B0000 		cmpwi 7,11,0
 842              		.loc 2 236 0
 843 001c C0030070 		lfs 0,112(3)
 844 0020 EFFF0032 		fmuls 31,31,0
 845              	.LVL67:
 846              		.loc 2 238 0
 847 0024 419E001C 		beq- 7,.L53
 848              		.loc 2 239 0
 849 0028 812B0000 		lwz 9,0(11)
 850 002c 7D635B78 		mr 3,11
 851              	.LVL68:
 852 0030 80090078 		lwz 0,120(9)
 853 0034 7C0903A6 		mtctr 0
 854 0038 4E800421 		bctrl
 855 003c EFFF0072 		fmuls 31,31,1
 856              	.LVL69:
 857              	.L53:
 858              	.LBE1431:
 859              		.loc 2 242 0
 860 0040 80010014 		lwz 0,20(1)
 861 0044 FC20F890 		fmr 1,31
 862 0048 CBE10008 		lfd 31,8(1)
 863              	.LVL70:
 864 004c 7C0803A6 		mtlr 0
 865 0050 38210010 		addi 1,1,16
 866              	.LCFI11:
 867              		.cfi_def_cfa_offset 0
 868              		.cfi_restore 63
 869 0054 4E800020 		blr
 870              		.cfi_endproc
 871              	.LFE1409:
 872              		.size	_ZN10GuiElement9GetScaleXEv, .-_ZN10GuiElement9GetScaleXEv
 873              		.section	.text._ZN10GuiElement9GetScaleYEv,"axG",@progbits,_ZN10GuiElement9GetScaleYEv,comdat
 874              		.align 2
 875              		.weak	_ZN10GuiElement9GetScaleYEv
 876              		.type	_ZN10GuiElement9GetScaleYEv, @function
 877              	_ZN10GuiElement9GetScaleYEv:
 878              	.LFB1410:
 879              		.loc 2 245 0
 880              		.cfi_startproc
 881              	.LVL71:
 882 0000 7C0802A6 		mflr 0
 883 0004 9421FFF0 		stwu 1,-16(1)
 884              	.LCFI12:
 885              		.cfi_def_cfa_offset 16
 886              		.cfi_register 65, 0
 887 0008 DBE10008 		stfd 31,8(1)
 888 000c 90010014 		stw 0,20(1)
 889              	.LBB1432:
 890              		.loc 2 249 0
 891 0010 81630060 		lwz 11,96(3)
 892              		.loc 2 247 0
 893 0014 C3E30040 		lfs 31,64(3)
 894              		.cfi_offset 65, 4
 895              		.cfi_offset 63, -8
 896              		.loc 2 249 0
 897 0018 2F8B0000 		cmpwi 7,11,0
 898              		.loc 2 247 0
 899 001c C0030070 		lfs 0,112(3)
 900 0020 EFFF0032 		fmuls 31,31,0
 901              	.LVL72:
 902              		.loc 2 249 0
 903 0024 419E001C 		beq- 7,.L55
 904              		.loc 2 250 0
 905 0028 812B0000 		lwz 9,0(11)
 906 002c 7D635B78 		mr 3,11
 907              	.LVL73:
 908 0030 8009007C 		lwz 0,124(9)
 909 0034 7C0903A6 		mtctr 0
 910 0038 4E800421 		bctrl
 911 003c EFFF0072 		fmuls 31,31,1
 912              	.LVL74:
 913              	.L55:
 914              	.LBE1432:
 915              		.loc 2 253 0
 916 0040 80010014 		lwz 0,20(1)
 917 0044 FC20F890 		fmr 1,31
 918 0048 CBE10008 		lfd 31,8(1)
 919              	.LVL75:
 920 004c 7C0803A6 		mtlr 0
 921 0050 38210010 		addi 1,1,16
 922              	.LCFI13:
 923              		.cfi_def_cfa_offset 0
 924              		.cfi_restore 63
 925 0054 4E800020 		blr
 926              		.cfi_endproc
 927              	.LFE1410:
 928              		.size	_ZN10GuiElement9GetScaleYEv, .-_ZN10GuiElement9GetScaleYEv
 929              		.section	.text._ZN10GuiElement6RumbleEv,"axG",@progbits,_ZN10GuiElement6RumbleEv,comdat
 930              		.align 2
 931              		.weak	_ZN10GuiElement6RumbleEv
 932              		.type	_ZN10GuiElement6RumbleEv, @function
 933              	_ZN10GuiElement6RumbleEv:
 934              	.LFB1411:
 935              		.loc 2 256 0
 936              		.cfi_startproc
 937              	.LVL76:
 938              		.loc 2 256 0
 939 0000 8863001C 		lbz 3,28(3)
 940              	.LVL77:
 941 0004 4E800020 		blr
 942              		.cfi_endproc
 943              	.LFE1411:
 944              		.size	_ZN10GuiElement6RumbleEv, .-_ZN10GuiElement6RumbleEv
 945              		.section	.text._ZN10GuiElement9SetRumbleEb,"axG",@progbits,_ZN10GuiElement9SetRumbleEb,comdat
 946              		.align 2
 947              		.weak	_ZN10GuiElement9SetRumbleEb
 948              		.type	_ZN10GuiElement9SetRumbleEb, @function
 949              	_ZN10GuiElement9SetRumbleEb:
 950              	.LFB1412:
 951              		.loc 2 259 0
 952              		.cfi_startproc
 953              	.LVL78:
 954              		.loc 2 259 0
 955 0000 9883001C 		stb 4,28(3)
 956 0004 4E800020 		blr
 957              		.cfi_endproc
 958              	.LFE1412:
 959              		.size	_ZN10GuiElement9SetRumbleEb, .-_ZN10GuiElement9SetRumbleEb
 960              		.section	.text._ZN10GuiElement13SetEffectGrowEv,"axG",@progbits,_ZN10GuiElement13SetEffectGrowEv,c
 961              		.align 2
 962              		.weak	_ZN10GuiElement13SetEffectGrowEv
 963              		.type	_ZN10GuiElement13SetEffectGrowEv, @function
 964              	_ZN10GuiElement13SetEffectGrowEv:
 965              	.LFB1413:
 966              		.loc 2 271 0
 967              		.cfi_startproc
 968              	.LVL79:
 969 0000 7C0802A6 		mflr 0
 970 0004 9421FFF8 		stwu 1,-8(1)
 971              	.LCFI14:
 972              		.cfi_def_cfa_offset 8
 973              		.cfi_register 65, 0
 974 0008 81230000 		lwz 9,0(3)
 975 000c 38800100 		li 4,256
 976 0010 38A00004 		li 5,4
 977 0014 38C0006E 		li 6,110
 978 0018 9001000C 		stw 0,12(1)
 979              		.loc 2 271 0
 980 001c 8009008C 		lwz 0,140(9)
 981              		.cfi_offset 65, 4
 982 0020 7C0903A6 		mtctr 0
 983 0024 4E800421 		bctrl
 984              	.LVL80:
 985 0028 8001000C 		lwz 0,12(1)
 986 002c 38210008 		addi 1,1,8
 987              	.LCFI15:
 988              		.cfi_def_cfa_offset 0
 989 0030 7C0803A6 		mtlr 0
 990 0034 4E800020 		blr
 991              		.cfi_endproc
 992              	.LFE1413:
 993              		.size	_ZN10GuiElement13SetEffectGrowEv, .-_ZN10GuiElement13SetEffectGrowEv
 994              		.section	.text._ZNK10GuiElement9GetEffectEv,"axG",@progbits,_ZNK10GuiElement9GetEffectEv,comdat
 995              		.align 2
 996              		.weak	_ZNK10GuiElement9GetEffectEv
 997              		.type	_ZNK10GuiElement9GetEffectEv, @function
 998              	_ZNK10GuiElement9GetEffectEv:
 999              	.LFB1414:
 1000              		.loc 2 276 0
 1001              		.cfi_startproc
 1002              	.LVL81:
 1003              		.loc 2 276 0
 1004 0000 80630078 		lwz 3,120(3)
 1005              	.LVL82:
 1006 0004 4E800020 		blr
 1007              		.cfi_endproc
 1008              	.LFE1414:
 1009              		.size	_ZNK10GuiElement9GetEffectEv, .-_ZNK10GuiElement9GetEffectEv
 1010              		.section	.text._ZNK10GuiElement10IsAnimatedEv,"axG",@progbits,_ZNK10GuiElement10IsAnimatedEv,comda
 1011              		.align 2
 1012              		.weak	_ZNK10GuiElement10IsAnimatedEv
 1013              		.type	_ZNK10GuiElement10IsAnimatedEv, @function
 1014              	_ZNK10GuiElement10IsAnimatedEv:
 1015              	.LFB1415:
 1016              		.loc 2 278 0
 1017              		.cfi_startproc
 1018              	.LVL83:
 1019 0000 7C0802A6 		mflr 0
 1020 0004 9421FFF8 		stwu 1,-8(1)
 1021              	.LCFI16:
 1022              		.cfi_def_cfa_offset 8
 1023              		.cfi_register 65, 0
 1024 0008 9001000C 		stw 0,12(1)
 1025              		.loc 2 278 0
 1026 000c 81230000 		lwz 9,0(3)
 1027 0010 80090098 		lwz 0,152(9)
 1028              		.cfi_offset 65, 4
 1029 0014 7C0903A6 		mtctr 0
 1030 0018 4E800421 		bctrl
 1031              	.LVL84:
 1032 001c 7C60FE70 		srawi 0,3,31
 1033 0020 7C630050 		subf 3,3,0
 1034 0024 8001000C 		lwz 0,12(1)
 1035 0028 54630FFE 		srwi 3,3,31
 1036 002c 7C0803A6 		mtlr 0
 1037 0030 38210008 		addi 1,1,8
 1038              	.LCFI17:
 1039              		.cfi_def_cfa_offset 0
 1040 0034 4E800020 		blr
 1041              		.cfi_endproc
 1042              	.LFE1415:
 1043              		.size	_ZNK10GuiElement10IsAnimatedEv, .-_ZNK10GuiElement10IsAnimatedEv
 1044              		.section	.text._ZN10GuiElement8IsInsideEii,"axG",@progbits,_ZN10GuiElement8IsInsideEii,comdat
 1045              		.align 2
 1046              		.weak	_ZN10GuiElement8IsInsideEii
 1047              		.type	_ZN10GuiElement8IsInsideEii, @function
 1048              	_ZN10GuiElement8IsInsideEii:
 1049              	.LFB1417:
 1050              		.loc 2 285 0
 1051              		.cfi_startproc
 1052              	.LVL85:
 1053 0000 7C0802A6 		mflr 0
 1054 0004 9421FFE8 		stwu 1,-24(1)
 1055              	.LCFI18:
 1056              		.cfi_def_cfa_offset 24
 1057              		.cfi_register 65, 0
 1058 0008 93810008 		stw 28,8(1)
 1059 000c 7CBC2B78 		mr 28,5
 1060              		.cfi_offset 28, -16
 1061 0010 9001001C 		stw 0,28(1)
 1062 0014 93A1000C 		stw 29,12(1)
 1063              		.loc 2 290 0
 1064 0018 3BA00000 		li 29,0
 1065              		.cfi_offset 29, -12
 1066              		.cfi_offset 65, 4
 1067              		.loc 2 287 0
 1068 001c 81230000 		lwz 9,0(3)
 1069              		.loc 2 285 0
 1070 0020 93C10010 		stw 30,16(1)
 1071 0024 7C9E2378 		mr 30,4
 1072              		.cfi_offset 30, -8
 1073              		.loc 2 287 0
 1074 0028 80090010 		lwz 0,16(9)
 1075              		.loc 2 285 0
 1076 002c 93E10014 		stw 31,20(1)
 1077              		.loc 2 285 0
 1078 0030 7C7F1B78 		mr 31,3
 1079              		.cfi_offset 31, -4
 1080              		.loc 2 287 0
 1081 0034 7C0903A6 		mtctr 0
 1082 0038 4E800421 		bctrl
 1083              	.LVL86:
 1084              		.loc 2 290 0
 1085 003c 7F83F000 		cmpw 7,3,30
 1086 0040 419C0028 		blt- 7,.L66
 1087              	.L62:
 1088              		.loc 2 291 0 discriminator 6
 1089 0044 8001001C 		lwz 0,28(1)
 1090 0048 7FA3EB78 		mr 3,29
 1091 004c 83810008 		lwz 28,8(1)
 1092              	.LVL87:
 1093 0050 7C0803A6 		mtlr 0
 1094 0054 83A1000C 		lwz 29,12(1)
 1095 0058 83C10010 		lwz 30,16(1)
 1096              	.LVL88:
 1097 005c 83E10014 		lwz 31,20(1)
 1098              	.LVL89:
 1099 0060 38210018 		addi 1,1,24
 1100              		.cfi_remember_state
 1101              	.LCFI19:
 1102              		.cfi_def_cfa_offset 0
 1103              		.cfi_restore 31
 1104              		.cfi_restore 30
 1105              		.cfi_restore 29
 1106              		.cfi_restore 28
 1107 0064 4E800020 		blr
 1108              	.LVL90:
 1109              	.L66:
 1110              	.LCFI20:
 1111              		.cfi_restore_state
 1112              		.loc 2 288 0 discriminator 1
 1113 0068 813F0000 		lwz 9,0(31)
 1114 006c 7FE3FB78 		mr 3,31
 1115 0070 80090010 		lwz 0,16(9)
 1116 0074 7C0903A6 		mtctr 0
 1117 0078 4E800421 		bctrl
 1118              		.loc 2 290 0 discriminator 1
 1119 007c 801F0024 		lwz 0,36(31)
 1120 0080 7C030214 		add 0,3,0
 1121 0084 7F9E0000 		cmpw 7,30,0
 1122 0088 409CFFBC 		bge+ 7,.L62
 1123              		.loc 2 289 0 discriminator 3
 1124 008c 813F0000 		lwz 9,0(31)
 1125 0090 7FE3FB78 		mr 3,31
 1126 0094 80090014 		lwz 0,20(9)
 1127 0098 7C0903A6 		mtctr 0
 1128 009c 4E800421 		bctrl
 1129              		.loc 2 290 0 discriminator 3
 1130 00a0 7F83E000 		cmpw 7,3,28
 1131 00a4 409CFFA0 		bge+ 7,.L62
 1132              		.loc 2 290 0 is_stmt 0 discriminator 4
 1133 00a8 813F0000 		lwz 9,0(31)
 1134 00ac 7FE3FB78 		mr 3,31
 1135 00b0 80090014 		lwz 0,20(9)
 1136 00b4 7C0903A6 		mtctr 0
 1137 00b8 4E800421 		bctrl
 1138 00bc 801F0028 		lwz 0,40(31)
 1139 00c0 7C030214 		add 0,3,0
 1140              		.loc 2 285 0 is_stmt 1 discriminator 4
 1141 00c4 7F9C0000 		cmpw 7,28,0
 1142 00c8 7FA00026 		mfcr 29
 1143 00cc 57BDEFFE 		rlwinm 29,29,29,1
 1144 00d0 4BFFFF74 		b .L62
 1145              		.cfi_endproc
 1146              	.LFE1417:
 1147              		.size	_ZN10GuiElement8IsInsideEii, .-_ZN10GuiElement8IsInsideEii
 1148              		.section	.text._ZN10GuiElement11SetPositionEii,"axG",@progbits,_ZN10GuiElement11SetPositionEii,com
 1149              		.align 2
 1150              		.weak	_ZN10GuiElement11SetPositionEii
 1151              		.type	_ZN10GuiElement11SetPositionEii, @function
 1152              	_ZN10GuiElement11SetPositionEii:
 1153              	.LFB1418:
 1154              		.loc 2 295 0
 1155              		.cfi_startproc
 1156              	.LVL91:
 1157              		.loc 2 297 0
 1158 0000 9083002C 		stw 4,44(3)
 1159              		.loc 2 299 0
 1160              		.loc 2 298 0
 1161 0004 90A30030 		stw 5,48(3)
 1162              		.loc 2 299 0
 1163 0008 4E800020 		blr
 1164              		.cfi_endproc
 1165              	.LFE1418:
 1166              		.size	_ZN10GuiElement11SetPositionEii, .-_ZN10GuiElement11SetPositionEii
 1167              		.section	.text._ZN10GuiElement11SetPositionEiii,"axG",@progbits,_ZN10GuiElement11SetPositionEiii,c
 1168              		.align 2
 1169              		.weak	_ZN10GuiElement11SetPositionEiii
 1170              		.type	_ZN10GuiElement11SetPositionEiii, @function
 1171              	_ZN10GuiElement11SetPositionEiii:
 1172              	.LFB1419:
 1173              		.loc 2 304 0
 1174              		.cfi_startproc
 1175              	.LVL92:
 1176              		.loc 2 306 0
 1177 0000 9083002C 		stw 4,44(3)
 1178              		.loc 2 309 0
 1179              		.loc 2 307 0
 1180 0004 90A30030 		stw 5,48(3)
 1181              		.loc 2 308 0
 1182 0008 90C30034 		stw 6,52(3)
 1183              		.loc 2 309 0
 1184 000c 4E800020 		blr
 1185              		.cfi_endproc
 1186              	.LFE1419:
 1187              		.size	_ZN10GuiElement11SetPositionEiii, .-_ZN10GuiElement11SetPositionEiii
 1188              		.section	.text._ZN10GuiElement11GetSelectedEv,"axG",@progbits,_ZN10GuiElement11GetSelectedEv,comda
 1189              		.align 2
 1190              		.weak	_ZN10GuiElement11GetSelectedEv
 1191              		.type	_ZN10GuiElement11GetSelectedEv, @function
 1192              	_ZN10GuiElement11GetSelectedEv:
 1193              	.LFB1420:
 1194              		.loc 2 312 0
 1195              		.cfi_startproc
 1196              	.LVL93:
 1197              		.loc 2 312 0
 1198 0000 3860FFFF 		li 3,-1
 1199              	.LVL94:
 1200 0004 4E800020 		blr
 1201              		.cfi_endproc
 1202              	.LFE1420:
 1203              		.size	_ZN10GuiElement11GetSelectedEv, .-_ZN10GuiElement11GetSelectedEv
 1204              		.section	.text._ZNK10GuiElement12GetAlignmentEv,"axG",@progbits,_ZNK10GuiElement12GetAlignmentEv,c
 1205              		.align 2
 1206              		.weak	_ZNK10GuiElement12GetAlignmentEv
 1207              		.type	_ZNK10GuiElement12GetAlignmentEv, @function
 1208              	_ZNK10GuiElement12GetAlignmentEv:
 1209              	.LFB1422:
 1210              		.loc 2 318 0
 1211              		.cfi_startproc
 1212              	.LVL95:
 1213              		.loc 2 318 0
 1214 0000 80630044 		lwz 3,68(3)
 1215              	.LVL96:
 1216 0004 4E800020 		blr
 1217              		.cfi_endproc
 1218              	.LFE1422:
 1219              		.size	_ZNK10GuiElement12GetAlignmentEv, .-_ZNK10GuiElement12GetAlignmentEv
 1220              		.section	".text"
 1221              		.align 2
 1222              		.globl _ZN11GuiCheckbox7SetSizeEii
 1223              		.type	_ZN11GuiCheckbox7SetSizeEii, @function
 1224              	_ZN11GuiCheckbox7SetSizeEii:
 1225              	.LFB1604:
 1226              		.loc 3 62 0
 1227              		.cfi_startproc
 1228              	.LVL97:
 1229 0000 7C0802A6 		mflr 0
 1230 0004 9421FFF8 		stwu 1,-8(1)
 1231              	.LCFI21:
 1232              		.cfi_def_cfa_offset 8
 1233              		.cfi_register 65, 0
 1234              		.loc 3 72 0
 1235 0008 81030000 		lwz 8,0(3)
 1236              		.loc 3 65 0
 1237 000c 3944FFFC 		addi 10,4,-4
 1238 0010 3965FFFC 		addi 11,5,-4
 1239              		.loc 3 63 0
 1240 0014 90830024 		stw 4,36(3)
 1241              		.loc 3 62 0
 1242 0018 9001000C 		stw 0,12(1)
 1243              	.LBB1447:
 1244              	.LBB1448:
 1245              		.loc 2 297 0
 1246 001c 38000002 		li 0,2
 1247              		.cfi_offset 65, 4
 1248 0020 90030164 		stw 0,356(3)
 1249              		.loc 2 298 0
 1250 0024 90030168 		stw 0,360(3)
 1251              	.LBE1448:
 1252              	.LBE1447:
 1253              	.LBB1449:
 1254              	.LBB1450:
 1255              		.loc 2 297 0
 1256 0028 900301FC 		stw 0,508(3)
 1257              		.loc 2 298 0
 1258 002c 90030200 		stw 0,512(3)
 1259              	.LBE1450:
 1260              	.LBE1449:
 1261              	.LBB1451:
 1262              	.LBB1452:
 1263              		.loc 2 297 0
 1264 0030 90030338 		stw 0,824(3)
 1265              		.loc 2 298 0
 1266 0034 9003033C 		stw 0,828(3)
 1267              	.LBE1452:
 1268              	.LBE1451:
 1269              		.loc 3 72 0
 1270 0038 800800B4 		lwz 0,180(8)
 1271              	.LBB1453:
 1272              	.LBB1454:
 1273              		.file 5 "d:/Projects/SaveGameManager/savegame-manager-gx/trunk/source/GUI/gui_box.hpp"
 1274              		.loc 5 39 0
 1275 003c 9083028C 		stw 4,652(3)
 1276              	.LBE1454:
 1277              	.LBE1453:
 1278              		.loc 3 72 0
 1279 0040 7C0903A6 		mtctr 0
 1280              		.loc 3 64 0
 1281 0044 90A30028 		stw 5,40(3)
 1282              	.LVL98:
 1283              	.LBB1456:
 1284              	.LBB1457:
 1285              		.file 6 "d:/Projects/SaveGameManager/savegame-manager-gx/trunk/source/GUI/gui_checksign.hpp"
 1286              		.loc 6 36 0
 1287 0048 9143015C 		stw 10,348(3)
 1288 004c 91630160 		stw 11,352(3)
 1289              	.LVL99:
 1290              	.LBE1457:
 1291              	.LBE1456:
 1292              	.LBB1458:
 1293              	.LBB1459:
 1294              		.file 7 "d:/Projects/SaveGameManager/savegame-manager-gx/trunk/source/GUI/gui_cross.hpp"
 1295              		.loc 7 36 0
 1296 0050 914301F4 		stw 10,500(3)
 1297 0054 916301F8 		stw 11,504(3)
 1298              	.LVL100:
 1299              	.LBE1459:
 1300              	.LBE1458:
 1301              	.LBB1460:
 1302              	.LBB1455:
 1303              		.loc 5 39 0
 1304 0058 90A30290 		stw 5,656(3)
 1305              	.LVL101:
 1306              	.LBE1455:
 1307              	.LBE1460:
 1308              	.LBB1461:
 1309              	.LBB1462:
 1310 005c 91430330 		stw 10,816(3)
 1311 0060 91630334 		stw 11,820(3)
 1312              	.LVL102:
 1313              	.LBE1462:
 1314              	.LBE1461:
 1315              		.loc 3 72 0
 1316 0064 80830044 		lwz 4,68(3)
 1317              	.LVL103:
 1318 0068 4E800421 		bctrl
 1319              	.LVL104:
 1320              		.loc 3 73 0
 1321 006c 8001000C 		lwz 0,12(1)
 1322 0070 38210008 		addi 1,1,8
 1323              	.LCFI22:
 1324              		.cfi_def_cfa_offset 0
 1325 0074 7C0803A6 		mtlr 0
 1326 0078 4E800020 		blr
 1327              		.cfi_endproc
 1328              	.LFE1604:
 1329              		.size	_ZN11GuiCheckbox7SetSizeEii, .-_ZN11GuiCheckbox7SetSizeEii
 1330              		.align 2
 1331              		.globl _ZN11GuiCheckbox12SetAlignmentEi
 1332              		.type	_ZN11GuiCheckbox12SetAlignmentEi, @function
 1333              	_ZN11GuiCheckbox12SetAlignmentEi:
 1334              	.LFB1608:
 1335              		.loc 3 96 0
 1336              		.cfi_startproc
 1337              	.LVL105:
 1338              	.LBB1463:
 1339              		.loc 3 103 0
 1340 007c 5480077E 		rlwinm 0,4,0,29,31
 1341              	.LBB1464:
 1342              	.LBB1465:
 1343              		.loc 2 316 0
 1344 0080 90830044 		stw 4,68(3)
 1345              	.LBE1465:
 1346              	.LBE1464:
 1347              		.loc 3 106 0
 1348 0084 2F800004 		cmpwi 7,0,4
 1349              	.LVL106:
 1350              	.LBB1466:
 1351              	.LBB1467:
 1352              		.loc 2 316 0
 1353 0088 9083017C 		stw 4,380(3)
 1354              	.LVL107:
 1355              	.LBE1467:
 1356              	.LBE1466:
 1357              	.LBB1468:
 1358              	.LBB1469:
 1359 008c 90830214 		stw 4,532(3)
 1360              	.LVL108:
 1361              	.LBE1469:
 1362              	.LBE1468:
 1363              	.LBB1470:
 1364              	.LBB1471:
 1365 0090 908302AC 		stw 4,684(3)
 1366              	.LVL109:
 1367              	.LBE1471:
 1368              	.LBE1470:
 1369              	.LBB1472:
 1370              	.LBB1473:
 1371 0094 90830350 		stw 4,848(3)
 1372              	.LBE1473:
 1373              	.LBE1472:
 1374              		.loc 3 104 0
 1375 0098 54840676 		rlwinm 4,4,0,25,27
 1376              	.LVL110:
 1377              		.loc 3 106 0
 1378 009c 419E0030 		beq- 7,.L77
 1379              	.LVL111:
 1380              		.loc 3 112 0
 1381 00a0 2F800002 		cmpwi 7,0,2
 1382 00a4 419E0054 		beq- 7,.L78
 1383              	.LVL112:
 1384              	.L74:
 1385              		.loc 3 118 0
 1386 00a8 2F840040 		cmpwi 7,4,64
 1387 00ac 419E0038 		beq- 7,.L79
 1388              	.L75:
 1389              		.loc 3 124 0
 1390 00b0 2F840020 		cmpwi 7,4,32
 1391 00b4 4CBE0020 		bnelr+ 7
 1392              	.LVL113:
 1393              	.LBB1474:
 1394              	.LBB1475:
 1395              		.loc 2 298 0
 1396 00b8 38000000 		li 0,0
 1397 00bc 90030168 		stw 0,360(3)
 1398              	.LVL114:
 1399              	.LBE1475:
 1400              	.LBE1474:
 1401              	.LBB1476:
 1402              	.LBB1477:
 1403 00c0 90030200 		stw 0,512(3)
 1404              	.LVL115:
 1405              	.LBE1477:
 1406              	.LBE1476:
 1407              	.LBB1478:
 1408              	.LBB1479:
 1409 00c4 9003033C 		stw 0,828(3)
 1410 00c8 4E800020 		blr
 1411              	.LVL116:
 1412              	.L77:
 1413              	.LBE1479:
 1414              	.LBE1478:
 1415              		.loc 3 118 0
 1416 00cc 2F840040 		cmpwi 7,4,64
 1417              	.LBB1480:
 1418              	.LBB1481:
 1419              		.loc 2 297 0
 1420 00d0 3800FFFE 		li 0,-2
 1421              	.LVL117:
 1422 00d4 90030164 		stw 0,356(3)
 1423              	.LVL118:
 1424              	.LBE1481:
 1425              	.LBE1480:
 1426              	.LBB1482:
 1427              	.LBB1483:
 1428 00d8 900301FC 		stw 0,508(3)
 1429              	.LVL119:
 1430              	.LBE1483:
 1431              	.LBE1482:
 1432              	.LBB1484:
 1433              	.LBB1485:
 1434 00dc 90030338 		stw 0,824(3)
 1435              	.LBE1485:
 1436              	.LBE1484:
 1437              		.loc 3 118 0
 1438 00e0 409EFFD0 		bne+ 7,.L75
 1439              	.LVL120:
 1440              	.L79:
 1441              	.LBB1486:
 1442              	.LBB1487:
 1443              		.loc 2 298 0
 1444 00e4 3800FFFE 		li 0,-2
 1445 00e8 90030168 		stw 0,360(3)
 1446              	.LVL121:
 1447              	.LBE1487:
 1448              	.LBE1486:
 1449              	.LBB1488:
 1450              	.LBB1489:
 1451 00ec 90030200 		stw 0,512(3)
 1452              	.LVL122:
 1453              	.LBE1489:
 1454              	.LBE1488:
 1455              	.LBB1490:
 1456              	.LBB1491:
 1457 00f0 9003033C 		stw 0,828(3)
 1458 00f4 4E800020 		blr
 1459              	.LVL123:
 1460              	.L78:
 1461              	.LBE1491:
 1462              	.LBE1490:
 1463              	.LBB1492:
 1464              	.LBB1493:
 1465              		.loc 2 297 0
 1466 00f8 38000000 		li 0,0
 1467              	.LVL124:
 1468 00fc 90030164 		stw 0,356(3)
 1469              	.LVL125:
 1470              	.LBE1493:
 1471              	.LBE1492:
 1472              	.LBB1494:
 1473              	.LBB1495:
 1474 0100 900301FC 		stw 0,508(3)
 1475              	.LVL126:
 1476              	.LBE1495:
 1477              	.LBE1494:
 1478              	.LBB1496:
 1479              	.LBB1497:
 1480 0104 90030338 		stw 0,824(3)
 1481 0108 4BFFFFA0 		b .L74
 1482              	.LBE1497:
 1483              	.LBE1496:
 1484              	.LBE1463:
 1485              		.cfi_endproc
 1486              	.LFE1608:
 1487              		.size	_ZN11GuiCheckbox12SetAlignmentEi, .-_ZN11GuiCheckbox12SetAlignmentEi
 1488              		.section	.text._ZN7sigslot12_signal_baseINS_15single_threadedEED2Ev,"axG",@progbits,_ZN7sigslot12_
 1489              		.align 2
 1490              		.weak	_ZN7sigslot12_signal_baseINS_15single_threadedEED2Ev
 1491              		.type	_ZN7sigslot12_signal_baseINS_15single_threadedEED2Ev, @function
 1492              	_ZN7sigslot12_signal_baseINS_15single_threadedEED2Ev:
 1493              	.LFB1639:
 1494              		.loc 1 466 0
 1495              		.cfi_startproc
 1496              	.LVL127:
 1497              	.LBB1498:
 1498              	.LBB1499:
 1499              	.LBB1500:
 1500              	.LBB1501:
 1501              		.loc 1 105 0
 1502 0000 3D200000 		lis 9,_ZTVN7sigslot15single_threadedE+8@ha
 1503              	.LBE1501:
 1504              	.LBE1500:
 1505              	.LBE1499:
 1506              	.LBE1498:
 1507              		.loc 1 466 0
 1508              	.LBB1505:
 1509              	.LBB1504:
 1510              	.LBB1503:
 1511              	.LBB1502:
 1512              		.loc 1 105 0
 1513 0004 38090008 		la 0,_ZTVN7sigslot15single_threadedE+8@l(9)
 1514 0008 90030000 		stw 0,0(3)
 1515              	.LBE1502:
 1516              	.LBE1503:
 1517              	.LBE1504:
 1518              	.LBE1505:
 1519              		.loc 1 466 0
 1520 000c 4E800020 		blr
 1521              		.cfi_endproc
 1522              	.LFE1639:
 1523              		.size	_ZN7sigslot12_signal_baseINS_15single_threadedEED2Ev, .-_ZN7sigslot12_signal_baseINS_15singl
 1524              		.section	.text._ZN7sigslot12_signal_baseINS_15single_threadedEED0Ev,"axG",@progbits,_ZN7sigslot12_
 1525              		.align 2
 1526              		.weak	_ZN7sigslot12_signal_baseINS_15single_threadedEED0Ev
 1527              		.type	_ZN7sigslot12_signal_baseINS_15single_threadedEED0Ev, @function
 1528              	_ZN7sigslot12_signal_baseINS_15single_threadedEED0Ev:
 1529              	.LFB1641:
 1530              		.loc 1 466 0
 1531              		.cfi_startproc
 1532              	.LVL128:
 1533 0000 7C0802A6 		mflr 0
 1534 0004 9421FFF8 		stwu 1,-8(1)
 1535              	.LCFI23:
 1536              		.cfi_def_cfa_offset 8
 1537              		.cfi_register 65, 0
 1538              	.LBB1506:
 1539              	.LBB1507:
 1540              	.LBB1508:
 1541              	.LBB1509:
 1542              	.LBB1510:
 1543              	.LBB1511:
 1544              		.loc 1 105 0
 1545 0008 3D200000 		lis 9,_ZTVN7sigslot15single_threadedE+8@ha
 1546              	.LBE1511:
 1547              	.LBE1510:
 1548              	.LBE1509:
 1549              	.LBE1508:
 1550              	.LBE1507:
 1551              	.LBE1506:
 1552              		.loc 1 466 0
 1553 000c 9001000C 		stw 0,12(1)
 1554              	.LBB1517:
 1555              	.LBB1516:
 1556              	.LBB1515:
 1557              	.LBB1514:
 1558              	.LBB1513:
 1559              	.LBB1512:
 1560              		.loc 1 105 0
 1561 0010 38090008 		la 0,_ZTVN7sigslot15single_threadedE+8@l(9)
 1562              		.cfi_offset 65, 4
 1563 0014 90030000 		stw 0,0(3)
 1564              	.LBE1512:
 1565              	.LBE1513:
 1566              	.LBE1514:
 1567              	.LBE1515:
 1568              	.LBE1516:
 1569              	.LBE1517:
 1570              		.loc 1 466 0
 1571 0018 48000001 		bl _ZdlPv
 1572              	.LVL129:
 1573 001c 8001000C 		lwz 0,12(1)
 1574 0020 38210008 		addi 1,1,8
 1575              	.LCFI24:
 1576              		.cfi_def_cfa_offset 0
 1577 0024 7C0803A6 		mtlr 0
 1578 0028 4E800020 		blr
 1579              		.cfi_endproc
 1580              	.LFE1641:
 1581              		.size	_ZN7sigslot12_signal_baseINS_15single_threadedEED0Ev, .-_ZN7sigslot12_signal_baseINS_15singl
 1582              		.section	.text._ZN7sigslot15single_threadedD0Ev,"axG",@progbits,_ZN7sigslot15single_threadedD5Ev,c
 1583              		.align 2
 1584              		.weak	_ZN7sigslot15single_threadedD0Ev
 1585              		.type	_ZN7sigslot15single_threadedD0Ev, @function
 1586              	_ZN7sigslot15single_threadedD0Ev:
 1587              	.LFB1150:
 1588              		.loc 1 104 0
 1589              		.cfi_startproc
 1590              	.LVL130:
 1591 0000 7C0802A6 		mflr 0
 1592 0004 9421FFF8 		stwu 1,-8(1)
 1593              	.LCFI25:
 1594              		.cfi_def_cfa_offset 8
 1595              		.cfi_register 65, 0
 1596              	.LBB1518:
 1597              	.LBB1519:
 1598              	.LBB1520:
 1599              		.loc 1 105 0
 1600 0008 3D200000 		lis 9,_ZTVN7sigslot15single_threadedE+8@ha
 1601              	.LBE1520:
 1602              	.LBE1519:
 1603              	.LBE1518:
 1604              		.loc 1 104 0
 1605 000c 9001000C 		stw 0,12(1)
 1606              	.LBB1523:
 1607              	.LBB1522:
 1608              	.LBB1521:
 1609              		.loc 1 105 0
 1610 0010 38090008 		la 0,_ZTVN7sigslot15single_threadedE+8@l(9)
 1611              		.cfi_offset 65, 4
 1612 0014 90030000 		stw 0,0(3)
 1613              	.LBE1521:
 1614              	.LBE1522:
 1615              	.LBE1523:
 1616              		.loc 1 107 0
 1617 0018 48000001 		bl _ZdlPv
 1618              	.LVL131:
 1619 001c 8001000C 		lwz 0,12(1)
 1620 0020 38210008 		addi 1,1,8
 1621              	.LCFI26:
 1622              		.cfi_def_cfa_offset 0
 1623 0024 7C0803A6 		mtlr 0
 1624 0028 4E800020 		blr
 1625              		.cfi_endproc
 1626              	.LFE1150:
 1627              		.size	_ZN7sigslot15single_threadedD0Ev, .-_ZN7sigslot15single_threadedD0Ev
 1628              		.section	.text._ZN7sigslot13_signal_base3IP10GuiElementiiNS_15single_threadedEE15slot_disconnectEP
 1629              		.align 2
 1630              		.weak	_ZN7sigslot13_signal_base3IP10GuiElementiiNS_15single_threadedEE15slot_disconnectEPNS_9has_s
 1631              		.type	_ZN7sigslot13_signal_base3IP10GuiElementiiNS_15single_threadedEE15slot_disconnectEPNS_9has_s
 1632              	_ZN7sigslot13_signal_base3IP10GuiElementiiNS_15single_threadedEE15slot_disconnectEPNS_9has_slotsIS3
 1633              	.LFB1852:
 1634              		.loc 1 990 0
 1635              		.cfi_startproc
 1636              		.cfi_personality 0,__gxx_personality_v0
 1637              		.cfi_lsda 0,.LLSDA1852
 1638              	.LVL132:
 1639 0000 7C0802A6 		mflr 0
 1640 0004 9421FFE0 		stwu 1,-32(1)
 1641              	.LCFI27:
 1642              		.cfi_def_cfa_offset 32
 1643              		.cfi_register 65, 0
 1644 0008 9361000C 		stw 27,12(1)
 1645 000c 7C7B1B78 		mr 27,3
 1646              		.cfi_offset 27, -20
 1647              	.LVL133:
 1648 0010 90010024 		stw 0,36(1)
 1649 0014 93810010 		stw 28,16(1)
 1650 0018 7C9C2378 		mr 28,4
 1651              		.cfi_offset 28, -16
 1652              		.cfi_offset 65, 4
 1653              	.LBB1524:
 1654              	.LBB1525:
 1655              	.LBB1526:
 1656              		.loc 1 338 0
 1657 001c 81230000 		lwz 9,0(3)
 1658              	.LBE1526:
 1659              	.LBE1525:
 1660              	.LBE1524:
 1661              		.loc 1 990 0
 1662 0020 93A10014 		stw 29,20(1)
 1663              	.LBB1547:
 1664              	.LBB1529:
 1665              	.LBB1527:
 1666              		.loc 3 144 0
 1667 0024 7F7DDB78 		mr 29,27
 1668              		.cfi_offset 29, -12
 1669              		.loc 1 338 0
 1670 0028 80090008 		lwz 0,8(9)
 1671              	.LBE1527:
 1672              	.LBE1529:
 1673              	.LBE1547:
 1674              		.loc 1 990 0
 1675 002c 93E1001C 		stw 31,28(1)
 1676 0030 93C10018 		stw 30,24(1)
 1677              	.LBB1548:
 1678              	.LBB1530:
 1679              	.LBB1528:
 1680              		.loc 1 338 0
 1681 0034 7C0903A6 		mtctr 0
 1682              	.LEHB4:
 1683              		.cfi_offset 30, -8
 1684              		.cfi_offset 31, -4
 1685 0038 4E800421 		bctrl
 1686              	.LEHE4:
 1687              	.LVL134:
 1688              		.loc 3 144 0
 1689 003c 87FD0004 		lwzu 31,4(29)
 1690              	.LVL135:
 1691              	.LBE1528:
 1692              	.LBE1530:
 1693              		.loc 1 996 0
 1694 0040 7F9FE800 		cmpw 7,31,29
 1695 0044 40BE0014 		bne+ 7,.L102
 1696 0048 48000064 		b .L91
 1697              	.LVL136:
 1698              	.L92:
 1699              		.loc 1 996 0 is_stmt 0 discriminator 1
 1700 004c 7F9DF000 		cmpw 7,29,30
 1701 0050 419E005C 		beq- 7,.L91
 1702              	.L100:
 1703              		.loc 1 996 0
 1704 0054 7FDFF378 		mr 31,30
 1705              	.LVL137:
 1706              	.L102:
 1707              	.LBB1531:
 1708              		.loc 1 1001 0 is_stmt 1
 1709 0058 807F0008 		lwz 3,8(31)
 1710              	.LBB1532:
 1711              	.LBB1533:
 1712              		.loc 4 154 0
 1713 005c 83DF0000 		lwz 30,0(31)
 1714              	.LVL138:
 1715              	.LBE1533:
 1716              	.LBE1532:
 1717              		.loc 1 1001 0
 1718 0060 81230000 		lwz 9,0(3)
 1719 0064 80090008 		lwz 0,8(9)
 1720 0068 7C0903A6 		mtctr 0
 1721              	.LEHB5:
 1722 006c 4E800421 		bctrl
 1723              	.LVL139:
 1724 0070 7F9C1800 		cmpw 7,28,3
 1725 0074 409EFFD8 		bne+ 7,.L92
 1726              	.LVL140:
 1727              		.loc 1 1003 0
 1728 0078 807F0008 		lwz 3,8(31)
 1729 007c 2F830000 		cmpwi 7,3,0
 1730 0080 419E0014 		beq- 7,.L93
 1731              		.loc 1 1003 0 is_stmt 0 discriminator 1
 1732 0084 81230000 		lwz 9,0(3)
 1733 0088 80090004 		lwz 0,4(9)
 1734 008c 7C0903A6 		mtctr 0
 1735 0090 4E800421 		bctrl
 1736              	.LEHE5:
 1737              	.L93:
 1738              	.LVL141:
 1739              	.LBB1534:
 1740              	.LBB1535:
 1741              	.LBB1536:
 1742              	.LBB1537:
 1743              		.loc 4 1532 0 is_stmt 1
 1744 0094 7FE3FB78 		mr 3,31
 1745 0098 48000001 		bl _ZNSt8__detail15_List_node_base9_M_unhookEv
 1746              	.LVL142:
 1747              	.LBB1538:
 1748              	.LBB1539:
 1749              	.LBB1540:
 1750              		.file 8 "d:\\devkitpro\\devkitppc\\bin\\../lib/gcc/powerpc-eabi/4.6.3/../../../../powerpc-eabi/inc
 1751              		.loc 8 98 0
 1752 009c 7FE3FB78 		mr 3,31
 1753 00a0 48000001 		bl _ZdlPv
 1754              	.LVL143:
 1755              	.LBE1540:
 1756              	.LBE1539:
 1757              	.LBE1538:
 1758              	.LBE1537:
 1759              	.LBE1536:
 1760              	.LBE1535:
 1761              	.LBE1534:
 1762              	.LBE1531:
 1763              		.loc 1 996 0
 1764 00a4 7F9DF000 		cmpw 7,29,30
 1765 00a8 409EFFAC 		bne+ 7,.L100
 1766              	.LVL144:
 1767              	.L91:
 1768              	.LBB1541:
 1769              	.LBB1542:
 1770              	.LBB1543:
 1771              		.loc 1 343 0
 1772 00ac 813B0000 		lwz 9,0(27)
 1773 00b0 7F63DB78 		mr 3,27
 1774 00b4 8009000C 		lwz 0,12(9)
 1775 00b8 7C0903A6 		mtctr 0
 1776              	.LEHB6:
 1777 00bc 4E800421 		bctrl
 1778              	.LEHE6:
 1779              	.LBE1543:
 1780              	.LBE1542:
 1781              	.LBE1541:
 1782              	.LBE1548:
 1783              		.loc 1 1010 0
 1784 00c0 80010024 		lwz 0,36(1)
 1785 00c4 8361000C 		lwz 27,12(1)
 1786              	.LVL145:
 1787 00c8 7C0803A6 		mtlr 0
 1788 00cc 83810010 		lwz 28,16(1)
 1789              	.LVL146:
 1790 00d0 83A10014 		lwz 29,20(1)
 1791              	.LVL147:
 1792 00d4 83C10018 		lwz 30,24(1)
 1793 00d8 83E1001C 		lwz 31,28(1)
 1794 00dc 38210020 		addi 1,1,32
 1795              		.cfi_remember_state
 1796              	.LCFI28:
 1797              		.cfi_def_cfa_offset 0
 1798              		.cfi_restore 31
 1799              		.cfi_restore 30
 1800              		.cfi_restore 29
 1801              		.cfi_restore 28
 1802              		.cfi_restore 27
 1803 00e0 4E800020 		blr
 1804              	.LVL148:
 1805              	.L101:
 1806              	.LCFI29:
 1807              		.cfi_restore_state
 1808              	.LBB1549:
 1809              	.LBB1544:
 1810              	.LBB1545:
 1811              	.LBB1546:
 1812              		.loc 1 343 0
 1813 00e4 813B0000 		lwz 9,0(27)
 1814 00e8 7C7F1B78 		mr 31,3
 1815              	.LVL149:
 1816 00ec 7F63DB78 		mr 3,27
 1817 00f0 8009000C 		lwz 0,12(9)
 1818 00f4 7C0903A6 		mtctr 0
 1819 00f8 4E800421 		bctrl
 1820 00fc 7FE3FB78 		mr 3,31
 1821              	.LEHB7:
 1822 0100 48000001 		bl _Unwind_Resume
 1823              	.LEHE7:
 1824              	.LBE1546:
 1825              	.LBE1545:
 1826              	.LBE1544:
 1827              	.LBE1549:
 1828              		.cfi_endproc
 1829              	.LFE1852:
 1830              		.section	.gcc_except_table
 1831              	.LLSDA1852:
 1832 0017 FF       		.byte	0xff
 1833 0018 FF       		.byte	0xff
 1834 0019 01       		.byte	0x1
 1835 001a 13       		.uleb128 .LLSDACSE1852-.LLSDACSB1852
 1836              	.LLSDACSB1852:
 1837 001b 38       		.uleb128 .LEHB4-.LFB1852
 1838 001c 04       		.uleb128 .LEHE4-.LEHB4
 1839 001d 00       		.uleb128 0
 1840 001e 00       		.uleb128 0
 1841 001f 6C       		.uleb128 .LEHB5-.LFB1852
 1842 0020 28       		.uleb128 .LEHE5-.LEHB5
 1843 0021 E401     		.uleb128 .L101-.LFB1852
 1844 0023 00       		.uleb128 0
 1845 0024 BC01     		.uleb128 .LEHB6-.LFB1852
 1846 0026 04       		.uleb128 .LEHE6-.LEHB6
 1847 0027 00       		.uleb128 0
 1848 0028 00       		.uleb128 0
 1849 0029 8002     		.uleb128 .LEHB7-.LFB1852
 1850 002b 04       		.uleb128 .LEHE7-.LEHB7
 1851 002c 00       		.uleb128 0
 1852 002d 00       		.uleb128 0
 1853              	.LLSDACSE1852:
 1854              		.section	.text._ZN7sigslot13_signal_base3IP10GuiElementiiNS_15single_threadedEE15slot_disconnectEP
 1855              		.size	_ZN7sigslot13_signal_base3IP10GuiElementiiNS_15single_threadedEE15slot_disconnectEPNS_9has_s
 1856              		.section	.text._ZN7sigslot13_signal_base2IP10GuiElementbNS_15single_threadedEE15slot_disconnectEPN
 1857              		.align 2
 1858              		.weak	_ZN7sigslot13_signal_base2IP10GuiElementbNS_15single_threadedEE15slot_disconnectEPNS_9has_sl
 1859              		.type	_ZN7sigslot13_signal_base2IP10GuiElementbNS_15single_threadedEE15slot_disconnectEPNS_9has_sl
 1860              	_ZN7sigslot13_signal_base2IP10GuiElementbNS_15single_threadedEE15slot_disconnectEPNS_9has_slotsIS3_
 1861              	.LFB1854:
 1862              		.loc 1 870 0
 1863              		.cfi_startproc
 1864              		.cfi_personality 0,__gxx_personality_v0
 1865              		.cfi_lsda 0,.LLSDA1854
 1866              	.LVL150:
 1867 0000 7C0802A6 		mflr 0
 1868 0004 9421FFE0 		stwu 1,-32(1)
 1869              	.LCFI30:
 1870              		.cfi_def_cfa_offset 32
 1871              		.cfi_register 65, 0
 1872 0008 9361000C 		stw 27,12(1)
 1873 000c 7C7B1B78 		mr 27,3
 1874              		.cfi_offset 27, -20
 1875              	.LVL151:
 1876 0010 90010024 		stw 0,36(1)
 1877 0014 93810010 		stw 28,16(1)
 1878 0018 7C9C2378 		mr 28,4
 1879              		.cfi_offset 28, -16
 1880              		.cfi_offset 65, 4
 1881              	.LBB1550:
 1882              	.LBB1551:
 1883              	.LBB1552:
 1884              		.loc 1 338 0
 1885 001c 81230000 		lwz 9,0(3)
 1886              	.LBE1552:
 1887              	.LBE1551:
 1888              	.LBE1550:
 1889              		.loc 1 870 0
 1890 0020 93A10014 		stw 29,20(1)
 1891              	.LBB1573:
 1892              	.LBB1555:
 1893              	.LBB1553:
 1894              		.loc 3 144 0
 1895 0024 7F7DDB78 		mr 29,27
 1896              		.cfi_offset 29, -12
 1897              		.loc 1 338 0
 1898 0028 80090008 		lwz 0,8(9)
 1899              	.LBE1553:
 1900              	.LBE1555:
 1901              	.LBE1573:
 1902              		.loc 1 870 0
 1903 002c 93E1001C 		stw 31,28(1)
 1904 0030 93C10018 		stw 30,24(1)
 1905              	.LBB1574:
 1906              	.LBB1556:
 1907              	.LBB1554:
 1908              		.loc 1 338 0
 1909 0034 7C0903A6 		mtctr 0
 1910              	.LEHB8:
 1911              		.cfi_offset 30, -8
 1912              		.cfi_offset 31, -4
 1913 0038 4E800421 		bctrl
 1914              	.LEHE8:
 1915              	.LVL152:
 1916              		.loc 3 144 0
 1917 003c 87FD0004 		lwzu 31,4(29)
 1918              	.LVL153:
 1919              	.LBE1554:
 1920              	.LBE1556:
 1921              		.loc 1 876 0
 1922 0040 7F9FE800 		cmpw 7,31,29
 1923 0044 40BE0014 		bne+ 7,.L115
 1924 0048 48000064 		b .L104
 1925              	.LVL154:
 1926              	.L105:
 1927              		.loc 1 876 0 is_stmt 0 discriminator 1
 1928 004c 7F9DF000 		cmpw 7,29,30
 1929 0050 419E005C 		beq- 7,.L104
 1930              	.L113:
 1931              		.loc 1 876 0
 1932 0054 7FDFF378 		mr 31,30
 1933              	.LVL155:
 1934              	.L115:
 1935              	.LBB1557:
 1936              		.loc 1 881 0 is_stmt 1
 1937 0058 807F0008 		lwz 3,8(31)
 1938              	.LBB1558:
 1939              	.LBB1559:
 1940              		.loc 4 154 0
 1941 005c 83DF0000 		lwz 30,0(31)
 1942              	.LVL156:
 1943              	.LBE1559:
 1944              	.LBE1558:
 1945              		.loc 1 881 0
 1946 0060 81230000 		lwz 9,0(3)
 1947 0064 80090008 		lwz 0,8(9)
 1948 0068 7C0903A6 		mtctr 0
 1949              	.LEHB9:
 1950 006c 4E800421 		bctrl
 1951              	.LVL157:
 1952 0070 7F9C1800 		cmpw 7,28,3
 1953 0074 409EFFD8 		bne+ 7,.L105
 1954              	.LVL158:
 1955              		.loc 1 883 0
 1956 0078 807F0008 		lwz 3,8(31)
 1957 007c 2F830000 		cmpwi 7,3,0
 1958 0080 419E0014 		beq- 7,.L106
 1959              		.loc 1 883 0 is_stmt 0 discriminator 1
 1960 0084 81230000 		lwz 9,0(3)
 1961 0088 80090004 		lwz 0,4(9)
 1962 008c 7C0903A6 		mtctr 0
 1963 0090 4E800421 		bctrl
 1964              	.LEHE9:
 1965              	.L106:
 1966              	.LVL159:
 1967              	.LBB1560:
 1968              	.LBB1561:
 1969              	.LBB1562:
 1970              	.LBB1563:
 1971              		.loc 4 1532 0 is_stmt 1
 1972 0094 7FE3FB78 		mr 3,31
 1973 0098 48000001 		bl _ZNSt8__detail15_List_node_base9_M_unhookEv
 1974              	.LVL160:
 1975              	.LBB1564:
 1976              	.LBB1565:
 1977              	.LBB1566:
 1978              		.loc 8 98 0
 1979 009c 7FE3FB78 		mr 3,31
 1980 00a0 48000001 		bl _ZdlPv
 1981              	.LVL161:
 1982              	.LBE1566:
 1983              	.LBE1565:
 1984              	.LBE1564:
 1985              	.LBE1563:
 1986              	.LBE1562:
 1987              	.LBE1561:
 1988              	.LBE1560:
 1989              	.LBE1557:
 1990              		.loc 1 876 0
 1991 00a4 7F9DF000 		cmpw 7,29,30
 1992 00a8 409EFFAC 		bne+ 7,.L113
 1993              	.LVL162:
 1994              	.L104:
 1995              	.LBB1567:
 1996              	.LBB1568:
 1997              	.LBB1569:
 1998              		.loc 1 343 0
 1999 00ac 813B0000 		lwz 9,0(27)
 2000 00b0 7F63DB78 		mr 3,27
 2001 00b4 8009000C 		lwz 0,12(9)
 2002 00b8 7C0903A6 		mtctr 0
 2003              	.LEHB10:
 2004 00bc 4E800421 		bctrl
 2005              	.LEHE10:
 2006              	.LBE1569:
 2007              	.LBE1568:
 2008              	.LBE1567:
 2009              	.LBE1574:
 2010              		.loc 1 890 0
 2011 00c0 80010024 		lwz 0,36(1)
 2012 00c4 8361000C 		lwz 27,12(1)
 2013              	.LVL163:
 2014 00c8 7C0803A6 		mtlr 0
 2015 00cc 83810010 		lwz 28,16(1)
 2016              	.LVL164:
 2017 00d0 83A10014 		lwz 29,20(1)
 2018              	.LVL165:
 2019 00d4 83C10018 		lwz 30,24(1)
 2020 00d8 83E1001C 		lwz 31,28(1)
 2021 00dc 38210020 		addi 1,1,32
 2022              		.cfi_remember_state
 2023              	.LCFI31:
 2024              		.cfi_def_cfa_offset 0
 2025              		.cfi_restore 31
 2026              		.cfi_restore 30
 2027              		.cfi_restore 29
 2028              		.cfi_restore 28
 2029              		.cfi_restore 27
 2030 00e0 4E800020 		blr
 2031              	.LVL166:
 2032              	.L114:
 2033              	.LCFI32:
 2034              		.cfi_restore_state
 2035              	.LBB1575:
 2036              	.LBB1570:
 2037              	.LBB1571:
 2038              	.LBB1572:
 2039              		.loc 1 343 0
 2040 00e4 813B0000 		lwz 9,0(27)
 2041 00e8 7C7F1B78 		mr 31,3
 2042              	.LVL167:
 2043 00ec 7F63DB78 		mr 3,27
 2044 00f0 8009000C 		lwz 0,12(9)
 2045 00f4 7C0903A6 		mtctr 0
 2046 00f8 4E800421 		bctrl
 2047 00fc 7FE3FB78 		mr 3,31
 2048              	.LEHB11:
 2049 0100 48000001 		bl _Unwind_Resume
 2050              	.LEHE11:
 2051              	.LBE1572:
 2052              	.LBE1571:
 2053              	.LBE1570:
 2054              	.LBE1575:
 2055              		.cfi_endproc
 2056              	.LFE1854:
 2057              		.section	.gcc_except_table
 2058              	.LLSDA1854:
 2059 002e FF       		.byte	0xff
 2060 002f FF       		.byte	0xff
 2061 0030 01       		.byte	0x1
 2062 0031 13       		.uleb128 .LLSDACSE1854-.LLSDACSB1854
 2063              	.LLSDACSB1854:
 2064 0032 38       		.uleb128 .LEHB8-.LFB1854
 2065 0033 04       		.uleb128 .LEHE8-.LEHB8
 2066 0034 00       		.uleb128 0
 2067 0035 00       		.uleb128 0
 2068 0036 6C       		.uleb128 .LEHB9-.LFB1854
 2069 0037 28       		.uleb128 .LEHE9-.LEHB9
 2070 0038 E401     		.uleb128 .L114-.LFB1854
 2071 003a 00       		.uleb128 0
 2072 003b BC01     		.uleb128 .LEHB10-.LFB1854
 2073 003d 04       		.uleb128 .LEHE10-.LEHB10
 2074 003e 00       		.uleb128 0
 2075 003f 00       		.uleb128 0
 2076 0040 8002     		.uleb128 .LEHB11-.LFB1854
 2077 0042 04       		.uleb128 .LEHE11-.LEHB11
 2078 0043 00       		.uleb128 0
 2079 0044 00       		.uleb128 0
 2080              	.LLSDACSE1854:
 2081              		.section	.text._ZN7sigslot13_signal_base2IP10GuiElementbNS_15single_threadedEE15slot_disconnectEPN
 2082              		.size	_ZN7sigslot13_signal_base2IP10GuiElementbNS_15single_threadedEE15slot_disconnectEPNS_9has_sl
 2083              		.section	.text._ZN7sigslot13_signal_base3IP10GuiElementiiNS_15single_threadedEE14slot_duplicateEPK
 2084              		.align 2
 2085              		.weak	_ZN7sigslot13_signal_base3IP10GuiElementiiNS_15single_threadedEE14slot_duplicateEPKNS_9has_s
 2086              		.type	_ZN7sigslot13_signal_base3IP10GuiElementiiNS_15single_threadedEE14slot_duplicateEPKNS_9has_s
 2087              	_ZN7sigslot13_signal_base3IP10GuiElementiiNS_15single_threadedEE14slot_duplicateEPKNS_9has_slotsIS3
 2088              	.LFB1853:
 2089              		.loc 1 926 0
 2090              		.cfi_startproc
 2091              		.cfi_personality 0,__gxx_personality_v0
 2092              		.cfi_lsda 0,.LLSDA1853
 2093              	.LVL168:
 2094 0000 7C0802A6 		mflr 0
 2095 0004 9421FFE0 		stwu 1,-32(1)
 2096              	.LCFI33:
 2097              		.cfi_def_cfa_offset 32
 2098              		.cfi_register 65, 0
 2099 0008 93410008 		stw 26,8(1)
 2100 000c 7CBA2B78 		mr 26,5
 2101              		.cfi_offset 26, -24
 2102 0010 90010024 		stw 0,36(1)
 2103 0014 9361000C 		stw 27,12(1)
 2104 0018 7C7B1B78 		mr 27,3
 2105              		.cfi_offset 27, -20
 2106              		.cfi_offset 65, 4
 2107              	.LVL169:
 2108              	.LBB1576:
 2109              	.LBB1577:
 2110              	.LBB1578:
 2111              		.loc 1 338 0
 2112 001c 81230000 		lwz 9,0(3)
 2113              	.LBE1578:
 2114              	.LBE1577:
 2115              	.LBE1576:
 2116              		.loc 1 926 0
 2117 0020 93A10014 		stw 29,20(1)
 2118 0024 7C9D2378 		mr 29,4
 2119              		.cfi_offset 29, -12
 2120              	.LBB1607:
 2121              	.LBB1583:
 2122              	.LBB1579:
 2123              		.loc 1 338 0
 2124 0028 80090008 		lwz 0,8(9)
 2125              	.LBE1579:
 2126              	.LBE1583:
 2127              	.LBE1607:
 2128              		.loc 1 926 0
 2129 002c 93C10018 		stw 30,24(1)
 2130              	.LBB1608:
 2131              	.LBB1584:
 2132              	.LBB1580:
 2133              		.loc 3 144 0
 2134 0030 7F7EDB78 		mr 30,27
 2135              		.cfi_offset 30, -8
 2136              	.LBE1580:
 2137              	.LBE1584:
 2138              	.LBE1608:
 2139              		.loc 1 926 0
 2140 0034 93E1001C 		stw 31,28(1)
 2141              	.LBB1609:
 2142              	.LBB1585:
 2143              	.LBB1581:
 2144              		.loc 1 338 0
 2145 0038 7C0903A6 		mtctr 0
 2146              	.LBE1581:
 2147              	.LBE1585:
 2148              	.LBE1609:
 2149              		.loc 1 926 0
 2150 003c 93810010 		stw 28,16(1)
 2151              	.LEHB12:
 2152              	.LBB1610:
 2153              	.LBB1586:
 2154              	.LBB1582:
 2155              		.loc 1 338 0
 2156              		.cfi_offset 28, -16
 2157              		.cfi_offset 31, -4
 2158 0040 4E800421 		bctrl
 2159              	.LEHE12:
 2160              	.LVL170:
 2161              		.loc 3 144 0
 2162 0044 87FE0004 		lwzu 31,4(30)
 2163              	.LVL171:
 2164              	.LBE1582:
 2165              	.LBE1586:
 2166              		.loc 1 932 0
 2167 0048 7F9FF000 		cmpw 7,31,30
 2168 004c 40BE0014 		bne+ 7,.L126
 2169 0050 48000070 		b .L117
 2170              	.LVL172:
 2171              	.L118:
 2172              	.LBB1587:
 2173              	.LBB1588:
 2174              		.loc 4 154 0
 2175 0054 83FF0000 		lwz 31,0(31)
 2176              	.LVL173:
 2177              	.LBE1588:
 2178              	.LBE1587:
 2179              		.loc 1 932 0
 2180 0058 7F9EF800 		cmpw 7,30,31
 2181 005c 419E0064 		beq- 7,.L117
 2182              	.LVL174:
 2183              	.L126:
 2184              		.loc 1 934 0
 2185 0060 807F0008 		lwz 3,8(31)
 2186 0064 81230000 		lwz 9,0(3)
 2187 0068 80090008 		lwz 0,8(9)
 2188 006c 7C0903A6 		mtctr 0
 2189              	.LEHB13:
 2190 0070 4E800421 		bctrl
 2191 0074 7F9D1800 		cmpw 7,29,3
 2192 0078 409EFFDC 		bne+ 7,.L118
 2193              	.LVL175:
 2194              		.loc 1 936 0
 2195 007c 807F0008 		lwz 3,8(31)
 2196 0080 7F44D378 		mr 4,26
 2197 0084 81230000 		lwz 9,0(3)
 2198 0088 80090014 		lwz 0,20(9)
 2199 008c 7C0903A6 		mtctr 0
 2200 0090 4E800421 		bctrl
 2201 0094 7C7C1B78 		mr 28,3
 2202              	.LVL176:
 2203              	.LBB1590:
 2204              	.LBB1591:
 2205              	.LBB1592:
 2206              	.LBB1593:
 2207              	.LBB1594:
 2208              	.LBB1595:
 2209              	.LBB1596:
 2210              	.LBB1597:
 2211              		.loc 8 92 0
 2212 0098 3860000C 		li 3,12
 2213 009c 48000001 		bl _Znwj
 2214              	.LEHE13:
 2215              	.LVL177:
 2216              	.LBE1597:
 2217              	.LBE1596:
 2218              	.LBE1595:
 2219              	.LBB1598:
 2220              	.LBB1599:
 2221              		.loc 8 108 0 discriminator 1
 2222 00a0 2F83FFF8 		cmpwi 7,3,-8
 2223 00a4 419E0008 		beq- 7,.L120
 2224              		.loc 8 108 0 is_stmt 0
 2225 00a8 93830008 		stw 28,8(3)
 2226              	.L120:
 2227              	.LVL178:
 2228              	.LBE1599:
 2229              	.LBE1598:
 2230              	.LBE1594:
 2231              	.LBE1593:
 2232              		.loc 4 1516 0 is_stmt 1
 2233 00ac 7FC4F378 		mr 4,30
 2234 00b0 48000001 		bl _ZNSt8__detail15_List_node_base7_M_hookEPS0_
 2235              	.LVL179:
 2236              	.LBE1592:
 2237              	.LBE1591:
 2238              	.LBE1590:
 2239              	.LBB1600:
 2240              	.LBB1589:
 2241              		.loc 4 154 0
 2242 00b4 83FF0000 		lwz 31,0(31)
 2243              	.LVL180:
 2244              	.LBE1589:
 2245              	.LBE1600:
 2246              		.loc 1 932 0
 2247 00b8 7F9EF800 		cmpw 7,30,31
 2248 00bc 409EFFA4 		bne+ 7,.L126
 2249              	.LVL181:
 2250              	.L117:
 2251              	.LBB1601:
 2252              	.LBB1602:
 2253              	.LBB1603:
 2254              		.loc 1 343 0
 2255 00c0 813B0000 		lwz 9,0(27)
 2256 00c4 7F63DB78 		mr 3,27
 2257 00c8 8009000C 		lwz 0,12(9)
 2258 00cc 7C0903A6 		mtctr 0
 2259              	.LEHB14:
 2260 00d0 4E800421 		bctrl
 2261              	.LEHE14:
 2262              	.LBE1603:
 2263              	.LBE1602:
 2264              	.LBE1601:
 2265              	.LBE1610:
 2266              		.loc 1 941 0
 2267 00d4 80010024 		lwz 0,36(1)
 2268 00d8 83410008 		lwz 26,8(1)
 2269              	.LVL182:
 2270 00dc 7C0803A6 		mtlr 0
 2271 00e0 8361000C 		lwz 27,12(1)
 2272              	.LVL183:
 2273 00e4 83810010 		lwz 28,16(1)
 2274 00e8 83A10014 		lwz 29,20(1)
 2275              	.LVL184:
 2276 00ec 83C10018 		lwz 30,24(1)
 2277              	.LVL185:
 2278 00f0 83E1001C 		lwz 31,28(1)
 2279              	.LVL186:
 2280 00f4 38210020 		addi 1,1,32
 2281              		.cfi_remember_state
 2282              	.LCFI34:
 2283              		.cfi_def_cfa_offset 0
 2284              		.cfi_restore 31
 2285              		.cfi_restore 30
 2286              		.cfi_restore 29
 2287              		.cfi_restore 28
 2288              		.cfi_restore 27
 2289              		.cfi_restore 26
 2290 00f8 4E800020 		blr
 2291              	.LVL187:
 2292              	.L125:
 2293              	.LCFI35:
 2294              		.cfi_restore_state
 2295              	.LBB1611:
 2296              	.LBB1604:
 2297              	.LBB1605:
 2298              	.LBB1606:
 2299              		.loc 1 343 0
 2300 00fc 813B0000 		lwz 9,0(27)
 2301 0100 7C7F1B78 		mr 31,3
 2302              	.LVL188:
 2303 0104 7F63DB78 		mr 3,27
 2304 0108 8009000C 		lwz 0,12(9)
 2305 010c 7C0903A6 		mtctr 0
 2306 0110 4E800421 		bctrl
 2307 0114 7FE3FB78 		mr 3,31
 2308              	.LEHB15:
 2309 0118 48000001 		bl _Unwind_Resume
 2310              	.LEHE15:
 2311              	.LBE1606:
 2312              	.LBE1605:
 2313              	.LBE1604:
 2314              	.LBE1611:
 2315              		.cfi_endproc
 2316              	.LFE1853:
 2317              		.section	.gcc_except_table
 2318              	.LLSDA1853:
 2319 0045 FF       		.byte	0xff
 2320 0046 FF       		.byte	0xff
 2321 0047 01       		.byte	0x1
 2322 0048 13       		.uleb128 .LLSDACSE1853-.LLSDACSB1853
 2323              	.LLSDACSB1853:
 2324 0049 40       		.uleb128 .LEHB12-.LFB1853
 2325 004a 04       		.uleb128 .LEHE12-.LEHB12
 2326 004b 00       		.uleb128 0
 2327 004c 00       		.uleb128 0
 2328 004d 70       		.uleb128 .LEHB13-.LFB1853
 2329 004e 30       		.uleb128 .LEHE13-.LEHB13
 2330 004f FC01     		.uleb128 .L125-.LFB1853
 2331 0051 00       		.uleb128 0
 2332 0052 D001     		.uleb128 .LEHB14-.LFB1853
 2333 0054 04       		.uleb128 .LEHE14-.LEHB14
 2334 0055 00       		.uleb128 0
 2335 0056 00       		.uleb128 0
 2336 0057 9802     		.uleb128 .LEHB15-.LFB1853
 2337 0059 04       		.uleb128 .LEHE15-.LEHB15
 2338 005a 00       		.uleb128 0
 2339 005b 00       		.uleb128 0
 2340              	.LLSDACSE1853:
 2341              		.section	.text._ZN7sigslot13_signal_base3IP10GuiElementiiNS_15single_threadedEE14slot_duplicateEPK
 2342              		.size	_ZN7sigslot13_signal_base3IP10GuiElementiiNS_15single_threadedEE14slot_duplicateEPKNS_9has_s
 2343              		.section	.text._ZN7sigslot13_signal_base2IP10GuiElementbNS_15single_threadedEE14slot_duplicateEPKN
 2344              		.align 2
 2345              		.weak	_ZN7sigslot13_signal_base2IP10GuiElementbNS_15single_threadedEE14slot_duplicateEPKNS_9has_sl
 2346              		.type	_ZN7sigslot13_signal_base2IP10GuiElementbNS_15single_threadedEE14slot_duplicateEPKNS_9has_sl
 2347              	_ZN7sigslot13_signal_base2IP10GuiElementbNS_15single_threadedEE14slot_duplicateEPKNS_9has_slotsIS3_
 2348              	.LFB1855:
 2349              		.loc 1 806 0
 2350              		.cfi_startproc
 2351              		.cfi_personality 0,__gxx_personality_v0
 2352              		.cfi_lsda 0,.LLSDA1855
 2353              	.LVL189:
 2354 0000 7C0802A6 		mflr 0
 2355 0004 9421FFE0 		stwu 1,-32(1)
 2356              	.LCFI36:
 2357              		.cfi_def_cfa_offset 32
 2358              		.cfi_register 65, 0
 2359 0008 93410008 		stw 26,8(1)
 2360 000c 7CBA2B78 		mr 26,5
 2361              		.cfi_offset 26, -24
 2362 0010 90010024 		stw 0,36(1)
 2363 0014 9361000C 		stw 27,12(1)
 2364 0018 7C7B1B78 		mr 27,3
 2365              		.cfi_offset 27, -20
 2366              		.cfi_offset 65, 4
 2367              	.LVL190:
 2368              	.LBB1612:
 2369              	.LBB1613:
 2370              	.LBB1614:
 2371              		.loc 1 338 0
 2372 001c 81230000 		lwz 9,0(3)
 2373              	.LBE1614:
 2374              	.LBE1613:
 2375              	.LBE1612:
 2376              		.loc 1 806 0
 2377 0020 93A10014 		stw 29,20(1)
 2378 0024 7C9D2378 		mr 29,4
 2379              		.cfi_offset 29, -12
 2380              	.LBB1643:
 2381              	.LBB1619:
 2382              	.LBB1615:
 2383              		.loc 1 338 0
 2384 0028 80090008 		lwz 0,8(9)
 2385              	.LBE1615:
 2386              	.LBE1619:
 2387              	.LBE1643:
 2388              		.loc 1 806 0
 2389 002c 93C10018 		stw 30,24(1)
 2390              	.LBB1644:
 2391              	.LBB1620:
 2392              	.LBB1616:
 2393              		.loc 3 144 0
 2394 0030 7F7EDB78 		mr 30,27
 2395              		.cfi_offset 30, -8
 2396              	.LBE1616:
 2397              	.LBE1620:
 2398              	.LBE1644:
 2399              		.loc 1 806 0
 2400 0034 93E1001C 		stw 31,28(1)
 2401              	.LBB1645:
 2402              	.LBB1621:
 2403              	.LBB1617:
 2404              		.loc 1 338 0
 2405 0038 7C0903A6 		mtctr 0
 2406              	.LBE1617:
 2407              	.LBE1621:
 2408              	.LBE1645:
 2409              		.loc 1 806 0
 2410 003c 93810010 		stw 28,16(1)
 2411              	.LEHB16:
 2412              	.LBB1646:
 2413              	.LBB1622:
 2414              	.LBB1618:
 2415              		.loc 1 338 0
 2416              		.cfi_offset 28, -16
 2417              		.cfi_offset 31, -4
 2418 0040 4E800421 		bctrl
 2419              	.LEHE16:
 2420              	.LVL191:
 2421              		.loc 3 144 0
 2422 0044 87FE0004 		lwzu 31,4(30)
 2423              	.LVL192:
 2424              	.LBE1618:
 2425              	.LBE1622:
 2426              		.loc 1 812 0
 2427 0048 7F9FF000 		cmpw 7,31,30
 2428 004c 40BE0014 		bne+ 7,.L138
 2429 0050 48000070 		b .L129
 2430              	.LVL193:
 2431              	.L130:
 2432              	.LBB1623:
 2433              	.LBB1624:
 2434              		.loc 4 154 0
 2435 0054 83FF0000 		lwz 31,0(31)
 2436              	.LVL194:
 2437              	.LBE1624:
 2438              	.LBE1623:
 2439              		.loc 1 812 0
 2440 0058 7F9EF800 		cmpw 7,30,31
 2441 005c 419E0064 		beq- 7,.L129
 2442              	.LVL195:
 2443              	.L138:
 2444              		.loc 1 814 0
 2445 0060 807F0008 		lwz 3,8(31)
 2446 0064 81230000 		lwz 9,0(3)
 2447 0068 80090008 		lwz 0,8(9)
 2448 006c 7C0903A6 		mtctr 0
 2449              	.LEHB17:
 2450 0070 4E800421 		bctrl
 2451 0074 7F9D1800 		cmpw 7,29,3
 2452 0078 409EFFDC 		bne+ 7,.L130
 2453              	.LVL196:
 2454              		.loc 1 816 0
 2455 007c 807F0008 		lwz 3,8(31)
 2456 0080 7F44D378 		mr 4,26
 2457 0084 81230000 		lwz 9,0(3)
 2458 0088 80090014 		lwz 0,20(9)
 2459 008c 7C0903A6 		mtctr 0
 2460 0090 4E800421 		bctrl
 2461 0094 7C7C1B78 		mr 28,3
 2462              	.LVL197:
 2463              	.LBB1626:
 2464              	.LBB1627:
 2465              	.LBB1628:
 2466              	.LBB1629:
 2467              	.LBB1630:
 2468              	.LBB1631:
 2469              	.LBB1632:
 2470              	.LBB1633:
 2471              		.loc 8 92 0
 2472 0098 3860000C 		li 3,12
 2473 009c 48000001 		bl _Znwj
 2474              	.LEHE17:
 2475              	.LVL198:
 2476              	.LBE1633:
 2477              	.LBE1632:
 2478              	.LBE1631:
 2479              	.LBB1634:
 2480              	.LBB1635:
 2481              		.loc 8 108 0 discriminator 1
 2482 00a0 2F83FFF8 		cmpwi 7,3,-8
 2483 00a4 419E0008 		beq- 7,.L132
 2484              		.loc 8 108 0 is_stmt 0
 2485 00a8 93830008 		stw 28,8(3)
 2486              	.L132:
 2487              	.LVL199:
 2488              	.LBE1635:
 2489              	.LBE1634:
 2490              	.LBE1630:
 2491              	.LBE1629:
 2492              		.loc 4 1516 0 is_stmt 1
 2493 00ac 7FC4F378 		mr 4,30
 2494 00b0 48000001 		bl _ZNSt8__detail15_List_node_base7_M_hookEPS0_
 2495              	.LVL200:
 2496              	.LBE1628:
 2497              	.LBE1627:
 2498              	.LBE1626:
 2499              	.LBB1636:
 2500              	.LBB1625:
 2501              		.loc 4 154 0
 2502 00b4 83FF0000 		lwz 31,0(31)
 2503              	.LVL201:
 2504              	.LBE1625:
 2505              	.LBE1636:
 2506              		.loc 1 812 0
 2507 00b8 7F9EF800 		cmpw 7,30,31
 2508 00bc 409EFFA4 		bne+ 7,.L138
 2509              	.LVL202:
 2510              	.L129:
 2511              	.LBB1637:
 2512              	.LBB1638:
 2513              	.LBB1639:
 2514              		.loc 1 343 0
 2515 00c0 813B0000 		lwz 9,0(27)
 2516 00c4 7F63DB78 		mr 3,27
 2517 00c8 8009000C 		lwz 0,12(9)
 2518 00cc 7C0903A6 		mtctr 0
 2519              	.LEHB18:
 2520 00d0 4E800421 		bctrl
 2521              	.LEHE18:
 2522              	.LBE1639:
 2523              	.LBE1638:
 2524              	.LBE1637:
 2525              	.LBE1646:
 2526              		.loc 1 821 0
 2527 00d4 80010024 		lwz 0,36(1)
 2528 00d8 83410008 		lwz 26,8(1)
 2529              	.LVL203:
 2530 00dc 7C0803A6 		mtlr 0
 2531 00e0 8361000C 		lwz 27,12(1)
 2532              	.LVL204:
 2533 00e4 83810010 		lwz 28,16(1)
 2534 00e8 83A10014 		lwz 29,20(1)
 2535              	.LVL205:
 2536 00ec 83C10018 		lwz 30,24(1)
 2537              	.LVL206:
 2538 00f0 83E1001C 		lwz 31,28(1)
 2539              	.LVL207:
 2540 00f4 38210020 		addi 1,1,32
 2541              		.cfi_remember_state
 2542              	.LCFI37:
 2543              		.cfi_def_cfa_offset 0
 2544              		.cfi_restore 31
 2545              		.cfi_restore 30
 2546              		.cfi_restore 29
 2547              		.cfi_restore 28
 2548              		.cfi_restore 27
 2549              		.cfi_restore 26
 2550 00f8 4E800020 		blr
 2551              	.LVL208:
 2552              	.L137:
 2553              	.LCFI38:
 2554              		.cfi_restore_state
 2555              	.LBB1647:
 2556              	.LBB1640:
 2557              	.LBB1641:
 2558              	.LBB1642:
 2559              		.loc 1 343 0
 2560 00fc 813B0000 		lwz 9,0(27)
 2561 0100 7C7F1B78 		mr 31,3
 2562              	.LVL209:
 2563 0104 7F63DB78 		mr 3,27
 2564 0108 8009000C 		lwz 0,12(9)
 2565 010c 7C0903A6 		mtctr 0
 2566 0110 4E800421 		bctrl
 2567 0114 7FE3FB78 		mr 3,31
 2568              	.LEHB19:
 2569 0118 48000001 		bl _Unwind_Resume
 2570              	.LEHE19:
 2571              	.LBE1642:
 2572              	.LBE1641:
 2573              	.LBE1640:
 2574              	.LBE1647:
 2575              		.cfi_endproc
 2576              	.LFE1855:
 2577              		.section	.gcc_except_table
 2578              	.LLSDA1855:
 2579 005c FF       		.byte	0xff
 2580 005d FF       		.byte	0xff
 2581 005e 01       		.byte	0x1
 2582 005f 13       		.uleb128 .LLSDACSE1855-.LLSDACSB1855
 2583              	.LLSDACSB1855:
 2584 0060 40       		.uleb128 .LEHB16-.LFB1855
 2585 0061 04       		.uleb128 .LEHE16-.LEHB16
 2586 0062 00       		.uleb128 0
 2587 0063 00       		.uleb128 0
 2588 0064 70       		.uleb128 .LEHB17-.LFB1855
 2589 0065 30       		.uleb128 .LEHE17-.LEHB17
 2590 0066 FC01     		.uleb128 .L137-.LFB1855
 2591 0068 00       		.uleb128 0
 2592 0069 D001     		.uleb128 .LEHB18-.LFB1855
 2593 006b 04       		.uleb128 .LEHE18-.LEHB18
 2594 006c 00       		.uleb128 0
 2595 006d 00       		.uleb128 0
 2596 006e 9802     		.uleb128 .LEHB19-.LFB1855
 2597 0070 04       		.uleb128 .LEHE19-.LEHB19
 2598 0071 00       		.uleb128 0
 2599 0072 00       		.uleb128 0
 2600              	.LLSDACSE1855:
 2601              		.section	.text._ZN7sigslot13_signal_base2IP10GuiElementbNS_15single_threadedEE14slot_duplicateEPKN
 2602              		.size	_ZN7sigslot13_signal_base2IP10GuiElementbNS_15single_threadedEE14slot_duplicateEPKNS_9has_sl
 2603              		.section	".text"
 2604              		.align 2
 2605              		.globl _ZN11GuiCheckbox8SetStateEii
 2606              		.type	_ZN11GuiCheckbox8SetStateEii, @function
 2607              	_ZN11GuiCheckbox8SetStateEii:
 2608              	.LFB1607:
 2609              		.loc 3 88 0
 2610              		.cfi_startproc
 2611              	.LVL210:
 2612              		.loc 3 89 0
 2613 010c 2F840002 		cmpwi 7,4,2
 2614              		.loc 3 88 0
 2615 0110 7C0802A6 		mflr 0
 2616 0114 9421FFF8 		stwu 1,-8(1)
 2617              	.LCFI39:
 2618              		.cfi_def_cfa_offset 8
 2619              		.cfi_register 65, 0
 2620 0118 9001000C 		stw 0,12(1)
 2621              		.loc 3 89 0
 2622 011c 40BE0010 		bne+ 7,.L141
 2623              		.cfi_offset 65, 4
 2624              		.loc 3 90 0
 2625 0120 880303B4 		lbz 0,948(3)
 2626 0124 68000001 		xori 0,0,1
 2627 0128 980303B4 		stb 0,948(3)
 2628              	.L141:
 2629              		.loc 3 92 0
 2630 012c 48000001 		bl _ZN10GuiElement8SetStateEii
 2631              	.LVL211:
 2632              		.loc 3 93 0
 2633 0130 8001000C 		lwz 0,12(1)
 2634 0134 38210008 		addi 1,1,8
 2635              	.LCFI40:
 2636              		.cfi_def_cfa_offset 0
 2637 0138 7C0803A6 		mtlr 0
 2638 013c 4E800020 		blr
 2639              		.cfi_endproc
 2640              	.LFE1607:
 2641              		.size	_ZN11GuiCheckbox8SetStateEii, .-_ZN11GuiCheckbox8SetStateEii
 2642              		.section	.text._ZN10GuiElement10ResetStateEv,"axG",@progbits,_ZN10GuiElement10ResetStateEv,comdat
 2643              		.align 2
 2644              		.weak	_ZN10GuiElement10ResetStateEv
 2645              		.type	_ZN10GuiElement10ResetStateEv, @function
 2646              	_ZN10GuiElement10ResetStateEv:
 2647              	.LFB1402:
 2648              		.loc 2 183 0
 2649              		.cfi_startproc
 2650              	.LVL212:
 2651 0000 7C0802A6 		mflr 0
 2652 0004 9421FFF8 		stwu 1,-8(1)
 2653              	.LCFI41:
 2654              		.cfi_def_cfa_offset 8
 2655              		.cfi_register 65, 0
 2656 0008 9001000C 		stw 0,12(1)
 2657              		.loc 2 185 0
 2658 000c 80030048 		lwz 0,72(3)
 2659              		.cfi_offset 65, 4
 2660 0010 2F800004 		cmpwi 7,0,4
 2661 0014 419E001C 		beq- 7,.L142
 2662              	.LVL213:
 2663              	.LBB1650:
 2664              	.LBB1651:
 2665              		.loc 2 186 0
 2666 0018 81230000 		lwz 9,0(3)
 2667 001c 38800000 		li 4,0
 2668 0020 38A0FFFF 		li 5,-1
 2669 0024 80090050 		lwz 0,80(9)
 2670 0028 7C0903A6 		mtctr 0
 2671 002c 4E800421 		bctrl
 2672              	.LVL214:
 2673              	.L142:
 2674              	.LBE1651:
 2675              	.LBE1650:
 2676              		.loc 2 187 0
 2677 0030 8001000C 		lwz 0,12(1)
 2678 0034 38210008 		addi 1,1,8
 2679              	.LCFI42:
 2680              		.cfi_def_cfa_offset 0
 2681 0038 7C0803A6 		mtlr 0
 2682 003c 4E800020 		blr
 2683              		.cfi_endproc
 2684              	.LFE1402:
 2685              		.size	_ZN10GuiElement10ResetStateEv, .-_ZN10GuiElement10ResetStateEv
 2686              		.section	".text"
 2687              		.align 2
 2688              		.globl _ZN11GuiCheckbox4DrawEv
 2689              		.type	_ZN11GuiCheckbox4DrawEv, @function
 2690              	_ZN11GuiCheckbox4DrawEv:
 2691              	.LFB1609:
 2692              		.loc 3 133 0
 2693              		.cfi_startproc
 2694              	.LVL215:
 2695 0140 9421FFF0 		stwu 1,-16(1)
 2696              	.LCFI43:
 2697              		.cfi_def_cfa_offset 16
 2698 0144 7C0802A6 		mflr 0
 2699 0148 93E1000C 		stw 31,12(1)
 2700 014c 7C7F1B78 		mr 31,3
 2701              		.cfi_offset 31, -4
 2702              		.cfi_register 65, 0
 2703 0150 90010014 		stw 0,20(1)
 2704              		.loc 3 134 0
 2705              		.cfi_offset 65, 4
 2706 0154 48000001 		bl _ZN9GuiButton4DrawEv
 2707              	.LVL216:
 2708              		.loc 3 135 0
 2709 0158 387F0268 		addi 3,31,616
 2710 015c 48000001 		bl _ZN6GuiBox4DrawEv
 2711              		.loc 3 136 0
 2712 0160 387F030C 		addi 3,31,780
 2713 0164 48000001 		bl _ZN6GuiBox4DrawEv
 2714              		.loc 3 137 0
 2715 0168 881F03B4 		lbz 0,948(31)
 2716 016c 2F800000 		cmpwi 7,0,0
 2717 0170 419E0018 		beq- 7,.L144
 2718              	.LVL217:
 2719              	.LBB1654:
 2720              	.LBB1655:
 2721              		.loc 3 139 0
 2722 0174 801F03B0 		lwz 0,944(31)
 2723 0178 2F800000 		cmpwi 7,0,0
 2724 017c 419E0020 		beq- 7,.L147
 2725              		.loc 3 142 0
 2726 0180 387F01D0 		addi 3,31,464
 2727 0184 48000001 		bl _ZN8GuiCross4DrawEv
 2728              	.LVL218:
 2729              	.L144:
 2730              	.LBE1655:
 2731              	.LBE1654:
 2732              		.loc 3 144 0
 2733 0188 80010014 		lwz 0,20(1)
 2734 018c 83E1000C 		lwz 31,12(1)
 2735              	.LVL219:
 2736 0190 7C0803A6 		mtlr 0
 2737 0194 38210010 		addi 1,1,16
 2738              		.cfi_remember_state
 2739              	.LCFI44:
 2740              		.cfi_def_cfa_offset 0
 2741              		.cfi_restore 31
 2742 0198 4E800020 		blr
 2743              	.LVL220:
 2744              	.L147:
 2745              	.LCFI45:
 2746              		.cfi_restore_state
 2747              	.LBB1657:
 2748              	.LBB1656:
 2749              		.loc 3 140 0
 2750 019c 387F0138 		addi 3,31,312
 2751 01a0 48000001 		bl _ZN12GuiChecksign4DrawEv
 2752              	.LBE1656:
 2753              	.LBE1657:
 2754              		.loc 3 144 0
 2755 01a4 80010014 		lwz 0,20(1)
 2756 01a8 83E1000C 		lwz 31,12(1)
 2757              	.LVL221:
 2758 01ac 7C0803A6 		mtlr 0
 2759 01b0 38210010 		addi 1,1,16
 2760              		.cfi_restore 31
 2761              	.LCFI46:
 2762              		.cfi_def_cfa_offset 0
 2763 01b4 4E800020 		blr
 2764              		.cfi_endproc
 2765              	.LFE1609:
 2766              		.size	_ZN11GuiCheckbox4DrawEv, .-_ZN11GuiCheckbox4DrawEv
 2767              		.align 2
 2768              		.globl _ZN11GuiCheckbox12SetClickSizeEii
 2769              		.type	_ZN11GuiCheckbox12SetClickSizeEii, @function
 2770              	_ZN11GuiCheckbox12SetClickSizeEii:
 2771              	.LFB1605:
 2772              		.loc 3 76 0
 2773              		.cfi_startproc
 2774              	.LVL222:
 2775              		.loc 3 77 0
 2776 01b8 90830024 		stw 4,36(3)
 2777              		.loc 3 79 0
 2778              		.loc 3 78 0
 2779 01bc 90A30028 		stw 5,40(3)
 2780              		.loc 3 79 0
 2781 01c0 4E800020 		blr
 2782              		.cfi_endproc
 2783              	.LFE1605:
 2784              		.size	_ZN11GuiCheckbox12SetClickSizeEii, .-_ZN11GuiCheckbox12SetClickSizeEii
 2785              		.align 2
 2786              		.globl _ZN11GuiCheckbox14SetTransparentEb
 2787              		.type	_ZN11GuiCheckbox14SetTransparentEb, @function
 2788              	_ZN11GuiCheckbox14SetTransparentEb:
 2789              	.LFB1606:
 2790              		.loc 3 82 0
 2791              		.cfi_startproc
 2792              	.LVL223:
 2793              	.LBB1658:
 2794              	.LBB1659:
 2795              		.loc 5 40 0
 2796 01c4 98830308 		stb 4,776(3)
 2797              	.LVL224:
 2798              	.LBE1659:
 2799              	.LBE1658:
 2800              		.loc 3 85 0
 2801              	.LBB1660:
 2802              	.LBB1661:
 2803              		.loc 5 40 0
 2804 01c8 988303AC 		stb 4,940(3)
 2805              	.LBE1661:
 2806              	.LBE1660:
 2807              		.loc 3 85 0
 2808 01cc 4E800020 		blr
 2809              		.cfi_endproc
 2810              	.LFE1606:
 2811              		.size	_ZN11GuiCheckbox14SetTransparentEb, .-_ZN11GuiCheckbox14SetTransparentEb
 2812              		.section	.text._ZNSt8_Rb_treeIPN7sigslot12_signal_baseINS0_15single_threadedEEES4_St9_IdentityIS4_
 2813              		.align 2
 2814              		.weak	_ZNSt8_Rb_treeIPN7sigslot12_signal_baseINS0_15single_threadedEEES4_St9_IdentityIS4_ESt4lessI
 2815              		.type	_ZNSt8_Rb_treeIPN7sigslot12_signal_baseINS0_15single_threadedEEES4_St9_IdentityIS4_ESt4lessI
 2816              	_ZNSt8_Rb_treeIPN7sigslot12_signal_baseINS0_15single_threadedEEES4_St9_IdentityIS4_ESt4lessIS4_ESaI
 2817              	.LFB1814:
 2818              		.file 9 "d:\\devkitpro\\devkitppc\\bin\\../lib/gcc/powerpc-eabi/4.6.3/../../../../powerpc-eabi/inc
 2819              		.loc 9 1068 0
 2820              		.cfi_startproc
 2821              	.LVL225:
 2822 0000 9421FFC8 		stwu 1,-56(1)
 2823              	.LCFI47:
 2824              		.cfi_def_cfa_offset 56
 2825 0004 7C0802A6 		mflr 0
 2826 0008 92C10010 		stw 22,16(1)
 2827              	.LBB1778:
 2828              		.loc 9 1072 0
 2829 000c 7C962379 		mr. 22,4
 2830              		.cfi_offset 22, -40
 2831              		.cfi_register 65, 0
 2832              	.LBE1778:
 2833              		.loc 9 1068 0
 2834 0010 93C10030 		stw 30,48(1)
 2835 0014 7C7E1B78 		mr 30,3
 2836              		.cfi_offset 30, -8
 2837 0018 9001003C 		stw 0,60(1)
 2838 001c 92A1000C 		stw 21,12(1)
 2839 0020 92E10014 		stw 23,20(1)
 2840 0024 93010018 		stw 24,24(1)
 2841 0028 9321001C 		stw 25,28(1)
 2842 002c 93410020 		stw 26,32(1)
 2843 0030 93610024 		stw 27,36(1)
 2844 0034 93810028 		stw 28,40(1)
 2845 0038 93A1002C 		stw 29,44(1)
 2846 003c 93E10034 		stw 31,52(1)
 2847              	.LBB1863:
 2848              		.loc 9 1072 0
 2849 0040 41820168 		beq- 0,.L150
 2850              		.cfi_offset 31, -4
 2851              		.cfi_offset 29, -12
 2852              		.cfi_offset 28, -16
 2853              		.cfi_offset 27, -20
 2854              		.cfi_offset 26, -24
 2855              		.cfi_offset 25, -28
 2856              		.cfi_offset 24, -32
 2857              		.cfi_offset 23, -36
 2858              		.cfi_offset 21, -44
 2859              		.cfi_offset 65, 4
 2860              	.LVL226:
 2861              	.L196:
 2862              		.loc 3 144 0
 2863 0044 8376000C 		lwz 27,12(22)
 2864              	.LVL227:
 2865              	.LBB1779:
 2866              	.LBB1780:
 2867              	.LBB1781:
 2868              		.loc 9 1072 0
 2869 0048 2F9B0000 		cmpwi 7,27,0
 2870 004c 419E0140 		beq- 7,.L152
 2871              	.LVL228:
 2872              	.L197:
 2873              	.LBE1781:
 2874              		.loc 3 144 0
 2875 0050 835B000C 		lwz 26,12(27)
 2876              	.LVL229:
 2877              	.LBB1857:
 2878              	.LBB1782:
 2879              	.LBB1783:
 2880              	.LBB1784:
 2881              		.loc 9 1072 0
 2882 0054 2F9A0000 		cmpwi 7,26,0
 2883 0058 419E0118 		beq- 7,.L153
 2884              	.LVL230:
 2885              	.L198:
 2886              	.LBE1784:
 2887              		.loc 3 144 0
 2888 005c 833A000C 		lwz 25,12(26)
 2889              	.LVL231:
 2890              	.LBB1850:
 2891              	.LBB1785:
 2892              	.LBB1786:
 2893              	.LBB1787:
 2894              		.loc 9 1072 0
 2895 0060 2F990000 		cmpwi 7,25,0
 2896 0064 419E00F0 		beq- 7,.L154
 2897              	.LVL232:
 2898              	.L199:
 2899              	.LBE1787:
 2900              		.loc 3 144 0
 2901 0068 8319000C 		lwz 24,12(25)
 2902              	.LVL233:
 2903              	.LBB1843:
 2904              	.LBB1788:
 2905              	.LBB1789:
 2906              	.LBB1790:
 2907              		.loc 9 1072 0
 2908 006c 2F980000 		cmpwi 7,24,0
 2909 0070 419E00C8 		beq- 7,.L155
 2910              	.LVL234:
 2911              	.L200:
 2912              	.LBE1790:
 2913              		.loc 3 144 0
 2914 0074 82F8000C 		lwz 23,12(24)
 2915              	.LVL235:
 2916              	.LBB1836:
 2917              	.LBB1791:
 2918              	.LBB1792:
 2919              	.LBB1793:
 2920              		.loc 9 1072 0
 2921 0078 2F970000 		cmpwi 7,23,0
 2922 007c 419E00A0 		beq- 7,.L156
 2923              	.LVL236:
 2924              	.L201:
 2925              	.LBE1793:
 2926              		.loc 3 144 0
 2927 0080 8397000C 		lwz 28,12(23)
 2928              	.LVL237:
 2929              	.LBB1829:
 2930              	.LBB1794:
 2931              	.LBB1795:
 2932              	.LBB1796:
 2933              		.loc 9 1072 0
 2934 0084 2F9C0000 		cmpwi 7,28,0
 2935 0088 419E0078 		beq- 7,.L157
 2936              	.LVL238:
 2937              	.L202:
 2938              	.LBE1796:
 2939              		.loc 3 144 0
 2940 008c 83BC000C 		lwz 29,12(28)
 2941              	.LVL239:
 2942              	.LBB1822:
 2943              	.LBB1797:
 2944              	.LBB1798:
 2945              	.LBB1799:
 2946              		.loc 9 1072 0
 2947 0090 2F9D0000 		cmpwi 7,29,0
 2948 0094 419E0050 		beq- 7,.L158
 2949              	.LVL240:
 2950              	.L203:
 2951              	.LBE1799:
 2952              		.loc 3 144 0
 2953 0098 83FD000C 		lwz 31,12(29)
 2954              	.LVL241:
 2955              	.LBB1815:
 2956              	.LBB1800:
 2957              	.LBB1801:
 2958              	.LBB1802:
 2959              		.loc 9 1072 0
 2960 009c 2F9F0000 		cmpwi 7,31,0
 2961 00a0 419E0028 		beq- 7,.L159
 2962              	.LVL242:
 2963              	.L204:
 2964              	.LBB1803:
 2965              		.loc 9 1074 0
 2966 00a4 809F000C 		lwz 4,12(31)
 2967 00a8 7FC3F378 		mr 3,30
 2968 00ac 48000001 		bl _ZNSt8_Rb_treeIPN7sigslot12_signal_baseINS0_15single_threadedEEES4_St9_IdentityIS4_ESt4lessIS4_
 2969              	.LBE1803:
 2970              	.LBE1802:
 2971              		.loc 3 144 0
 2972 00b0 82BF0008 		lwz 21,8(31)
 2973              	.LVL243:
 2974              	.LBB1809:
 2975              	.LBB1808:
 2976              	.LBB1804:
 2977              	.LBB1805:
 2978              	.LBB1806:
 2979              	.LBB1807:
 2980              		.loc 8 98 0
 2981 00b4 7FE3FB78 		mr 3,31
 2982 00b8 48000001 		bl _ZdlPv
 2983              	.LVL244:
 2984              	.LBE1807:
 2985              	.LBE1806:
 2986              	.LBE1805:
 2987              	.LBE1804:
 2988              	.LBE1808:
 2989              		.loc 9 1072 0
 2990 00bc 2F950000 		cmpwi 7,21,0
 2991              		.loc 9 1077 0
 2992 00c0 7EBFAB78 		mr 31,21
 2993              	.LVL245:
 2994              		.loc 9 1072 0
 2995 00c4 409EFFE0 		bne+ 7,.L204
 2996              	.LVL246:
 2997              	.L159:
 2998              	.LBE1809:
 2999              	.LBE1801:
 3000              	.LBE1800:
 3001              	.LBE1815:
 3002              		.loc 3 144 0
 3003 00c8 83FD0008 		lwz 31,8(29)
 3004              	.LVL247:
 3005              	.LBB1816:
 3006              	.LBB1814:
 3007              	.LBB1810:
 3008              	.LBB1811:
 3009              	.LBB1812:
 3010              	.LBB1813:
 3011              		.loc 8 98 0
 3012 00cc 7FA3EB78 		mr 3,29
 3013 00d0 48000001 		bl _ZdlPv
 3014              	.LVL248:
 3015              	.LBE1813:
 3016              	.LBE1812:
 3017              	.LBE1811:
 3018              	.LBE1810:
 3019              	.LBE1814:
 3020              		.loc 9 1072 0
 3021 00d4 2F9F0000 		cmpwi 7,31,0
 3022 00d8 419E000C 		beq- 7,.L158
 3023              		.loc 9 1077 0
 3024 00dc 7FFDFB78 		mr 29,31
 3025              	.LVL249:
 3026 00e0 4BFFFFB8 		b .L203
 3027              	.LVL250:
 3028              	.L158:
 3029              	.LBE1816:
 3030              	.LBE1798:
 3031              	.LBE1797:
 3032              	.LBE1822:
 3033              		.loc 3 144 0
 3034 00e4 83FC0008 		lwz 31,8(28)
 3035              	.LVL251:
 3036              	.LBB1823:
 3037              	.LBB1821:
 3038              	.LBB1817:
 3039              	.LBB1818:
 3040              	.LBB1819:
 3041              	.LBB1820:
 3042              		.loc 8 98 0
 3043 00e8 7F83E378 		mr 3,28
 3044 00ec 48000001 		bl _ZdlPv
 3045              	.LVL252:
 3046              	.LBE1820:
 3047              	.LBE1819:
 3048              	.LBE1818:
 3049              	.LBE1817:
 3050              	.LBE1821:
 3051              		.loc 9 1072 0
 3052 00f0 2F9F0000 		cmpwi 7,31,0
 3053 00f4 419E000C 		beq- 7,.L157
 3054              		.loc 9 1077 0
 3055 00f8 7FFCFB78 		mr 28,31
 3056              	.LVL253:
 3057 00fc 4BFFFF90 		b .L202
 3058              	.LVL254:
 3059              	.L157:
 3060              	.LBE1823:
 3061              	.LBE1795:
 3062              	.LBE1794:
 3063              	.LBE1829:
 3064              		.loc 3 144 0
 3065 0100 83F70008 		lwz 31,8(23)
 3066              	.LVL255:
 3067              	.LBB1830:
 3068              	.LBB1828:
 3069              	.LBB1824:
 3070              	.LBB1825:
 3071              	.LBB1826:
 3072              	.LBB1827:
 3073              		.loc 8 98 0
 3074 0104 7EE3BB78 		mr 3,23
 3075 0108 48000001 		bl _ZdlPv
 3076              	.LVL256:
 3077              	.LBE1827:
 3078              	.LBE1826:
 3079              	.LBE1825:
 3080              	.LBE1824:
 3081              	.LBE1828:
 3082              		.loc 9 1072 0
 3083 010c 2F9F0000 		cmpwi 7,31,0
 3084 0110 419E000C 		beq- 7,.L156
 3085              		.loc 9 1077 0
 3086 0114 7FF7FB78 		mr 23,31
 3087              	.LVL257:
 3088 0118 4BFFFF68 		b .L201
 3089              	.LVL258:
 3090              	.L156:
 3091              	.LBE1830:
 3092              	.LBE1792:
 3093              	.LBE1791:
 3094              	.LBE1836:
 3095              		.loc 3 144 0
 3096 011c 83F80008 		lwz 31,8(24)
 3097              	.LVL259:
 3098              	.LBB1837:
 3099              	.LBB1835:
 3100              	.LBB1831:
 3101              	.LBB1832:
 3102              	.LBB1833:
 3103              	.LBB1834:
 3104              		.loc 8 98 0
 3105 0120 7F03C378 		mr 3,24
 3106 0124 48000001 		bl _ZdlPv
 3107              	.LVL260:
 3108              	.LBE1834:
 3109              	.LBE1833:
 3110              	.LBE1832:
 3111              	.LBE1831:
 3112              	.LBE1835:
 3113              		.loc 9 1072 0
 3114 0128 2F9F0000 		cmpwi 7,31,0
 3115 012c 419E000C 		beq- 7,.L155
 3116              		.loc 9 1077 0
 3117 0130 7FF8FB78 		mr 24,31
 3118              	.LVL261:
 3119 0134 4BFFFF40 		b .L200
 3120              	.LVL262:
 3121              	.L155:
 3122              	.LBE1837:
 3123              	.LBE1789:
 3124              	.LBE1788:
 3125              	.LBE1843:
 3126              		.loc 3 144 0
 3127 0138 83F90008 		lwz 31,8(25)
 3128              	.LVL263:
 3129              	.LBB1844:
 3130              	.LBB1842:
 3131              	.LBB1838:
 3132              	.LBB1839:
 3133              	.LBB1840:
 3134              	.LBB1841:
 3135              		.loc 8 98 0
 3136 013c 7F23CB78 		mr 3,25
 3137 0140 48000001 		bl _ZdlPv
 3138              	.LVL264:
 3139              	.LBE1841:
 3140              	.LBE1840:
 3141              	.LBE1839:
 3142              	.LBE1838:
 3143              	.LBE1842:
 3144              		.loc 9 1072 0
 3145 0144 2F9F0000 		cmpwi 7,31,0
 3146 0148 419E000C 		beq- 7,.L154
 3147              		.loc 9 1077 0
 3148 014c 7FF9FB78 		mr 25,31
 3149              	.LVL265:
 3150 0150 4BFFFF18 		b .L199
 3151              	.LVL266:
 3152              	.L154:
 3153              	.LBE1844:
 3154              	.LBE1786:
 3155              	.LBE1785:
 3156              	.LBE1850:
 3157              		.loc 3 144 0
 3158 0154 83FA0008 		lwz 31,8(26)
 3159              	.LVL267:
 3160              	.LBB1851:
 3161              	.LBB1849:
 3162              	.LBB1845:
 3163              	.LBB1846:
 3164              	.LBB1847:
 3165              	.LBB1848:
 3166              		.loc 8 98 0
 3167 0158 7F43D378 		mr 3,26
 3168 015c 48000001 		bl _ZdlPv
 3169              	.LVL268:
 3170              	.LBE1848:
 3171              	.LBE1847:
 3172              	.LBE1846:
 3173              	.LBE1845:
 3174              	.LBE1849:
 3175              		.loc 9 1072 0
 3176 0160 2F9F0000 		cmpwi 7,31,0
 3177 0164 419E000C 		beq- 7,.L153
 3178              		.loc 9 1077 0
 3179 0168 7FFAFB78 		mr 26,31
 3180              	.LVL269:
 3181 016c 4BFFFEF0 		b .L198
 3182              	.LVL270:
 3183              	.L153:
 3184              	.LBE1851:
 3185              	.LBE1783:
 3186              	.LBE1782:
 3187              	.LBE1857:
 3188              		.loc 3 144 0
 3189 0170 83FB0008 		lwz 31,8(27)
 3190              	.LVL271:
 3191              	.LBB1858:
 3192              	.LBB1856:
 3193              	.LBB1852:
 3194              	.LBB1853:
 3195              	.LBB1854:
 3196              	.LBB1855:
 3197              		.loc 8 98 0
 3198 0174 7F63DB78 		mr 3,27
 3199 0178 48000001 		bl _ZdlPv
 3200              	.LVL272:
 3201              	.LBE1855:
 3202              	.LBE1854:
 3203              	.LBE1853:
 3204              	.LBE1852:
 3205              	.LBE1856:
 3206              		.loc 9 1072 0
 3207 017c 2F9F0000 		cmpwi 7,31,0
 3208 0180 419E000C 		beq- 7,.L152
 3209              		.loc 9 1077 0
 3210 0184 7FFBFB78 		mr 27,31
 3211              	.LVL273:
 3212 0188 4BFFFEC8 		b .L197
 3213              	.LVL274:
 3214              	.L152:
 3215              		.loc 3 144 0
 3216 018c 83F60008 		lwz 31,8(22)
 3217              	.LVL275:
 3218              	.LBE1858:
 3219              	.LBE1780:
 3220              	.LBB1859:
 3221              	.LBB1860:
 3222              	.LBB1861:
 3223              	.LBB1862:
 3224              		.loc 8 98 0
 3225 0190 7EC3B378 		mr 3,22
 3226 0194 48000001 		bl _ZdlPv
 3227              	.LVL276:
 3228              	.LBE1862:
 3229              	.LBE1861:
 3230              	.LBE1860:
 3231              	.LBE1859:
 3232              	.LBE1779:
 3233              		.loc 9 1072 0
 3234 0198 2F9F0000 		cmpwi 7,31,0
 3235 019c 419E000C 		beq- 7,.L150
 3236              		.loc 9 1077 0
 3237 01a0 7FF6FB78 		mr 22,31
 3238              	.LVL277:
 3239 01a4 4BFFFEA0 		b .L196
 3240              	.LVL278:
 3241              	.L150:
 3242              	.LBE1863:
 3243              		.loc 9 1079 0
 3244 01a8 8001003C 		lwz 0,60(1)
 3245 01ac 82A1000C 		lwz 21,12(1)
 3246 01b0 7C0803A6 		mtlr 0
 3247 01b4 82C10010 		lwz 22,16(1)
 3248 01b8 82E10014 		lwz 23,20(1)
 3249 01bc 83010018 		lwz 24,24(1)
 3250 01c0 8321001C 		lwz 25,28(1)
 3251 01c4 83410020 		lwz 26,32(1)
 3252 01c8 83610024 		lwz 27,36(1)
 3253 01cc 83810028 		lwz 28,40(1)
 3254 01d0 83A1002C 		lwz 29,44(1)
 3255 01d4 83C10030 		lwz 30,48(1)
 3256              	.LVL279:
 3257 01d8 83E10034 		lwz 31,52(1)
 3258 01dc 38210038 		addi 1,1,56
 3259              	.LCFI48:
 3260              		.cfi_def_cfa_offset 0
 3261              		.cfi_restore 31
 3262              		.cfi_restore 30
 3263              		.cfi_restore 29
 3264              		.cfi_restore 28
 3265              		.cfi_restore 27
 3266              		.cfi_restore 26
 3267              		.cfi_restore 25
 3268              		.cfi_restore 24
 3269              		.cfi_restore 23
 3270              		.cfi_restore 22
 3271              		.cfi_restore 21
 3272 01e0 4E800020 		blr
 3273              		.cfi_endproc
 3274              	.LFE1814:
 3275              		.size	_ZNSt8_Rb_treeIPN7sigslot12_signal_baseINS0_15single_threadedEEES4_St9_IdentityIS4_ESt4lessI
 3276              		.section	.text._ZNSt8_Rb_treeIPN7sigslot12_signal_baseINS0_15single_threadedEEES4_St9_IdentityIS4_
 3277              		.align 2
 3278              		.weak	_ZNSt8_Rb_treeIPN7sigslot12_signal_baseINS0_15single_threadedEEES4_St9_IdentityIS4_ESt4lessI
 3279              		.type	_ZNSt8_Rb_treeIPN7sigslot12_signal_baseINS0_15single_threadedEEES4_St9_IdentityIS4_ESt4lessI
 3280              	_ZNSt8_Rb_treeIPN7sigslot12_signal_baseINS0_15single_threadedEEES4_St9_IdentityIS4_ESt4lessIS4_ESaI
 3281              	.LFB1758:
 3282              		.loc 9 1510 0
 3283              		.cfi_startproc
 3284              	.LVL280:
 3285 0000 7C0802A6 		mflr 0
 3286 0004 9421FFE0 		stwu 1,-32(1)
 3287              	.LCFI49:
 3288              		.cfi_def_cfa_offset 32
 3289              		.cfi_register 65, 0
 3290 0008 93810010 		stw 28,16(1)
 3291              	.LBB1864:
 3292              	.LBB1865:
 3293              		.loc 9 1155 0
 3294 000c 3B830004 		addi 28,3,4
 3295              		.cfi_offset 28, -16
 3296              	.LBE1865:
 3297              	.LBE1864:
 3298              		.loc 9 1510 0
 3299 0010 90010024 		stw 0,36(1)
 3300 0014 93410008 		stw 26,8(1)
 3301              	.LBB1921:
 3302              	.LBB1886:
 3303              	.LBB1866:
 3304              		.loc 9 1155 0
 3305 0018 7F9AE378 		mr 26,28
 3306              		.cfi_offset 26, -24
 3307              		.cfi_offset 65, 4
 3308              	.LBE1866:
 3309              		.loc 3 144 0
 3310 001c 80030008 		lwz 0,8(3)
 3311              	.LBE1886:
 3312              	.LBE1921:
 3313              		.loc 9 1510 0
 3314 0020 93A10014 		stw 29,20(1)
 3315              	.LBB1922:
 3316              	.LBB1887:
 3317              	.LBB1879:
 3318              		.loc 9 1155 0
 3319 0024 7F9DE378 		mr 29,28
 3320              		.cfi_offset 29, -12
 3321              		.loc 9 1156 0
 3322 0028 2F800000 		cmpwi 7,0,0
 3323              	.LBE1879:
 3324              	.LBE1887:
 3325              	.LBE1922:
 3326              		.loc 9 1510 0
 3327 002c 93C10018 		stw 30,24(1)
 3328 0030 9361000C 		stw 27,12(1)
 3329 0034 7C7E1B78 		mr 30,3
 3330              		.cfi_offset 27, -20
 3331              		.cfi_offset 30, -8
 3332              	.LVL281:
 3333 0038 93E1001C 		stw 31,28(1)
 3334              	.LBB1923:
 3335              	.LBB1888:
 3336              	.LBB1880:
 3337              		.loc 9 1156 0
 3338 003c 419E0040 		beq- 7,.L206
 3339              		.cfi_offset 31, -4
 3340              	.LVL282:
 3341 0040 81640000 		lwz 11,0(4)
 3342 0044 7C1A0378 		mr 26,0
 3343 0048 48000010 		b .L217
 3344              	.LVL283:
 3345              	.L236:
 3346              	.LBE1880:
 3347              		.loc 3 144 0
 3348 004c 835A000C 		lwz 26,12(26)
 3349              	.LVL284:
 3350              	.LBB1881:
 3351              		.loc 9 1156 0
 3352 0050 2F9A0000 		cmpwi 7,26,0
 3353 0054 419E0024 		beq- 7,.L235
 3354              	.L217:
 3355              	.LVL285:
 3356              	.LBE1881:
 3357              		.loc 3 144 0
 3358 0058 813A0010 		lwz 9,16(26)
 3359              	.LBB1882:
 3360              	.LBB1867:
 3361              		.loc 9 1158 0
 3362 005c 7F895840 		cmplw 7,9,11
 3363 0060 41BCFFEC 		blt- 7,.L236
 3364              	.LVL286:
 3365              	.LBB1868:
 3366              		.loc 9 1160 0
 3367 0064 409D0094 		ble- 7,.L209
 3368              	.LVL287:
 3369              	.LBE1868:
 3370              	.LBE1867:
 3371              	.LBE1882:
 3372              		.loc 3 144 0
 3373 0068 7F5DD378 		mr 29,26
 3374              		.loc 9 1161 0
 3375 006c 835A0008 		lwz 26,8(26)
 3376              	.LVL288:
 3377              	.LBB1883:
 3378              		.loc 9 1156 0
 3379 0070 2F9A0000 		cmpwi 7,26,0
 3380 0074 409EFFE4 		bne+ 7,.L217
 3381              	.LVL289:
 3382              	.L235:
 3383 0078 7FBAEB78 		mr 26,29
 3384              	.LVL290:
 3385              	.L206:
 3386              	.LBE1883:
 3387              	.LBE1888:
 3388              	.LBB1889:
 3389              	.LBB1890:
 3390              		.loc 3 144 0
 3391 007c 813E000C 		lwz 9,12(30)
 3392              	.LBE1890:
 3393              	.LBE1889:
 3394              	.LBB1917:
 3395              	.LBB1884:
 3396 0080 837E0014 		lwz 27,20(30)
 3397              	.LVL291:
 3398              	.LBE1884:
 3399              	.LBE1917:
 3400              	.LBB1918:
 3401              	.LBB1915:
 3402              	.LBB1891:
 3403              		.loc 9 1500 0
 3404 0084 7F89D000 		cmpw 7,9,26
 3405 0088 419E00DC 		beq- 7,.L218
 3406              	.L222:
 3407              	.LVL292:
 3408              		.loc 9 1503 0
 3409 008c 7F9AE800 		cmpw 7,26,29
 3410 0090 419E0100 		beq- 7,.L237
 3411              	.LVL293:
 3412              	.L233:
 3413              	.LBB1892:
 3414              	.LBB1893:
 3415              		.loc 9 277 0
 3416 0094 7F43D378 		mr 3,26
 3417 0098 48000001 		bl _ZSt18_Rb_tree_incrementPKSt18_Rb_tree_node_base
 3418              	.LBE1893:
 3419              	.LBE1892:
 3420              	.LBB1895:
 3421              	.LBB1896:
 3422              	.LBB1897:
 3423              		.loc 9 1489 0
 3424 009c 7F84E378 		mr 4,28
 3425              	.LBE1897:
 3426              	.LBE1896:
 3427              	.LBE1895:
 3428              	.LBB1908:
 3429              	.LBB1894:
 3430              		.loc 9 277 0
 3431 00a0 7C7F1B78 		mr 31,3
 3432              	.LVL294:
 3433              	.LBE1894:
 3434              	.LBE1908:
 3435              	.LBB1909:
 3436              	.LBB1905:
 3437              	.LBB1902:
 3438              		.loc 9 1489 0
 3439 00a4 7F43D378 		mr 3,26
 3440              	.LVL295:
 3441 00a8 48000001 		bl _ZSt28_Rb_tree_rebalance_for_erasePSt18_Rb_tree_node_baseRS_
 3442              	.LBE1902:
 3443              	.LBE1905:
 3444              	.LBE1909:
 3445              		.loc 9 277 0
 3446 00ac 7FFAFB78 		mr 26,31
 3447              	.LVL296:
 3448              	.LBB1910:
 3449              	.LBB1906:
 3450              	.LBB1903:
 3451              	.LBB1898:
 3452              	.LBB1899:
 3453              	.LBB1900:
 3454              	.LBB1901:
 3455              		.loc 8 98 0
 3456 00b0 48000001 		bl _ZdlPv
 3457              	.LBE1901:
 3458              	.LBE1900:
 3459              	.LBE1899:
 3460              	.LBE1898:
 3461              	.LBE1903:
 3462              	.LBE1906:
 3463              	.LBE1910:
 3464              		.loc 9 1503 0
 3465 00b4 7F9FE800 		cmpw 7,31,29
 3466              	.LBB1911:
 3467              	.LBB1907:
 3468              	.LBB1904:
 3469              		.loc 9 1491 0
 3470 00b8 813E0014 		lwz 9,20(30)
 3471 00bc 3809FFFF 		addi 0,9,-1
 3472 00c0 901E0014 		stw 0,20(30)
 3473              	.LBE1904:
 3474              	.LBE1907:
 3475              	.LBE1911:
 3476              		.loc 9 1503 0
 3477 00c4 409EFFD0 		bne+ 7,.L233
 3478 00c8 7F60D850 		subf 27,0,27
 3479              	.LVL297:
 3480              	.L220:
 3481              	.LBE1891:
 3482              	.LBE1915:
 3483              	.LBE1918:
 3484              	.LBE1923:
 3485              		.loc 9 1517 0
 3486 00cc 80010024 		lwz 0,36(1)
 3487 00d0 7F63DB78 		mr 3,27
 3488 00d4 83410008 		lwz 26,8(1)
 3489 00d8 7C0803A6 		mtlr 0
 3490 00dc 8361000C 		lwz 27,12(1)
 3491 00e0 83810010 		lwz 28,16(1)
 3492 00e4 83A10014 		lwz 29,20(1)
 3493              	.LVL298:
 3494 00e8 83C10018 		lwz 30,24(1)
 3495              	.LVL299:
 3496 00ec 83E1001C 		lwz 31,28(1)
 3497 00f0 38210020 		addi 1,1,32
 3498              		.cfi_remember_state
 3499              	.LCFI50:
 3500              		.cfi_def_cfa_offset 0
 3501              		.cfi_restore 31
 3502              		.cfi_restore 30
 3503              		.cfi_restore 29
 3504              		.cfi_restore 28
 3505              		.cfi_restore 27
 3506              		.cfi_restore 26
 3507 00f4 4E800020 		blr
 3508              	.LVL300:
 3509              	.L209:
 3510              	.LCFI51:
 3511              		.cfi_restore_state
 3512              	.LBB1924:
 3513              	.LBB1919:
 3514              		.loc 3 144 0
 3515 00f8 815A0008 		lwz 10,8(26)
 3516              	.LVL301:
 3517 00fc 813A000C 		lwz 9,12(26)
 3518              	.LVL302:
 3519              	.L234:
 3520              	.LBB1885:
 3521              	.LBB1878:
 3522              	.LBB1877:
 3523              	.LBB1869:
 3524              	.LBB1870:
 3525              	.LBB1871:
 3526              		.loc 9 1089 0
 3527 0100 2F8A0000 		cmpwi 7,10,0
 3528 0104 419E0020 		beq- 7,.L210
 3529              	.L238:
 3530              	.LVL303:
 3531              		.loc 9 1090 0
 3532 0108 810A0010 		lwz 8,16(10)
 3533 010c 7F885840 		cmplw 7,8,11
 3534 0110 419C004C 		blt- 7,.L211
 3535              	.LVL304:
 3536              	.LBE1871:
 3537              		.loc 3 144 0
 3538 0114 7D5A5378 		mr 26,10
 3539              		.loc 9 1091 0
 3540 0118 814A0008 		lwz 10,8(10)
 3541              	.LVL305:
 3542              	.LBB1872:
 3543              		.loc 9 1089 0
 3544 011c 2F8A0000 		cmpwi 7,10,0
 3545 0120 409EFFE8 		bne+ 7,.L238
 3546              	.LVL306:
 3547              	.L210:
 3548              	.LBE1872:
 3549              	.LBE1870:
 3550              	.LBB1873:
 3551              	.LBB1874:
 3552              		.loc 9 1121 0
 3553 0124 2F890000 		cmpwi 7,9,0
 3554 0128 41BEFF54 		beq- 7,.L206
 3555              	.LVL307:
 3556              		.loc 9 1122 0
 3557 012c 81490010 		lwz 10,16(9)
 3558 0130 7F8A5840 		cmplw 7,10,11
 3559 0134 409D0020 		ble- 7,.L214
 3560              	.LVL308:
 3561              	.L239:
 3562              	.LBE1874:
 3563              		.loc 3 144 0
 3564 0138 7D3D4B78 		mr 29,9
 3565              		.loc 9 1123 0
 3566 013c 81290008 		lwz 9,8(9)
 3567              	.LVL309:
 3568              	.LBB1875:
 3569              		.loc 9 1121 0
 3570 0140 2F890000 		cmpwi 7,9,0
 3571 0144 41BEFF38 		beq- 7,.L206
 3572              	.LVL310:
 3573              		.loc 9 1122 0
 3574 0148 81490010 		lwz 10,16(9)
 3575 014c 7F8A5840 		cmplw 7,10,11
 3576 0150 41BDFFE8 		bgt- 7,.L239
 3577              	.LVL311:
 3578              	.L214:
 3579              	.LBE1875:
 3580              		.loc 3 144 0
 3581 0154 8129000C 		lwz 9,12(9)
 3582              	.LVL312:
 3583 0158 4BFFFFCC 		b .L210
 3584              	.LVL313:
 3585              	.L211:
 3586              	.LBE1873:
 3587              	.LBB1876:
 3588 015c 814A000C 		lwz 10,12(10)
 3589              	.LVL314:
 3590 0160 4BFFFFA0 		b .L234
 3591              	.LVL315:
 3592              	.L218:
 3593              	.LBE1876:
 3594              	.LBE1869:
 3595              	.LBE1877:
 3596              	.LBE1878:
 3597              	.LBE1885:
 3598              	.LBE1919:
 3599              	.LBB1920:
 3600              	.LBB1916:
 3601              	.LBB1914:
 3602              		.loc 9 1500 0
 3603 0164 7F9CE800 		cmpw 7,28,29
 3604 0168 409EFF24 		bne+ 7,.L222
 3605              	.LVL316:
 3606              	.LBB1912:
 3607              	.LBB1913:
 3608              		.loc 9 809 0
 3609 016c 7C040378 		mr 4,0
 3610              	.LVL317:
 3611 0170 7FC3F378 		mr 3,30
 3612              	.LVL318:
 3613 0174 48000001 		bl _ZNSt8_Rb_treeIPN7sigslot12_signal_baseINS0_15single_threadedEEES4_St9_IdentityIS4_ESt4lessIS4_
 3614              	.LVL319:
 3615              		.loc 9 811 0
 3616 0178 38000000 		li 0,0
 3617              		.loc 9 810 0
 3618 017c 939E000C 		stw 28,12(30)
 3619              	.LVL320:
 3620              		.loc 9 811 0
 3621 0180 901E0008 		stw 0,8(30)
 3622              	.LVL321:
 3623              		.loc 9 812 0
 3624 0184 939E0010 		stw 28,16(30)
 3625              		.loc 9 813 0
 3626 0188 901E0014 		stw 0,20(30)
 3627 018c 4BFFFF40 		b .L220
 3628              	.LVL322:
 3629              	.L237:
 3630              	.LBE1913:
 3631              	.LBE1912:
 3632              		.loc 9 1503 0
 3633 0190 3B600000 		li 27,0
 3634 0194 4BFFFF38 		b .L220
 3635              	.LBE1914:
 3636              	.LBE1916:
 3637              	.LBE1920:
 3638              	.LBE1924:
 3639              		.cfi_endproc
 3640              	.LFE1758:
 3641              		.size	_ZNSt8_Rb_treeIPN7sigslot12_signal_baseINS0_15single_threadedEEES4_St9_IdentityIS4_ESt4lessI
 3642              		.section	.text._ZN7sigslot13_signal_base3IP10GuiElementiiNS_15single_threadedEED0Ev,"axG",@progbit
 3643              		.align 2
 3644              		.weak	_ZN7sigslot13_signal_base3IP10GuiElementiiNS_15single_threadedEED0Ev
 3645              		.type	_ZN7sigslot13_signal_base3IP10GuiElementiiNS_15single_threadedEED0Ev, @function
 3646              	_ZN7sigslot13_signal_base3IP10GuiElementiiNS_15single_threadedEED0Ev:
 3647              	.LFB1654:
 3648              		.loc 1 943 0
 3649              		.cfi_startproc
 3650              		.cfi_personality 0,__gxx_personality_v0
 3651              		.cfi_lsda 0,.LLSDA1654
 3652              	.LVL323:
 3653 0000 7C0802A6 		mflr 0
 3654 0004 9421FFD8 		stwu 1,-40(1)
 3655              	.LCFI52:
 3656              		.cfi_def_cfa_offset 40
 3657              		.cfi_register 65, 0
 3658              	.LBB2020:
 3659              	.LBB2021:
 3660              	.LBB2022:
 3661              		.loc 1 946 0
 3662 0008 3D200000 		lis 9,_ZTVN7sigslot13_signal_base3IP10GuiElementiiNS_15single_threadedEEE+8@ha
 3663              	.LBE2022:
 3664              	.LBE2021:
 3665              	.LBE2020:
 3666              		.loc 1 943 0
 3667 000c 93810018 		stw 28,24(1)
 3668 0010 7C7C1B78 		mr 28,3
 3669              		.cfi_offset 28, -16
 3670              	.LVL324:
 3671 0014 9001002C 		stw 0,44(1)
 3672              	.LBB2107:
 3673              	.LBB2103:
 3674              	.LBB2099:
 3675              		.loc 1 946 0
 3676 0018 38090008 		la 0,_ZTVN7sigslot13_signal_base3IP10GuiElementiiNS_15single_threadedEEE+8@l(9)
 3677              		.cfi_offset 65, 4
 3678              	.LBE2099:
 3679              	.LBE2103:
 3680              	.LBE2107:
 3681              		.loc 1 943 0
 3682 001c 93A1001C 		stw 29,28(1)
 3683 0020 3BA30004 		addi 29,3,4
 3684              		.cfi_offset 29, -12
 3685 0024 93C10020 		stw 30,32(1)
 3686 0028 93E10024 		stw 31,36(1)
 3687              	.LBB2108:
 3688              	.LBB2104:
 3689              	.LBB2100:
 3690              		.loc 1 946 0
 3691 002c 90030000 		stw 0,0(3)
 3692              	.LVL325:
 3693              	.LEHB20:
 3694              	.LBB2023:
 3695              	.LBB2024:
 3696              	.LBB2025:
 3697              	.LBB2026:
 3698              		.loc 1 338 0
 3699              		.cfi_offset 31, -4
 3700              		.cfi_offset 30, -8
 3701 0030 48000001 		bl _ZN7sigslot15single_threaded4lockEv
 3702              	.LEHE20:
 3703              	.LVL326:
 3704              	.LBE2026:
 3705              	.LBE2025:
 3706              	.LBE2024:
 3707              		.loc 3 144 0
 3708 0034 7F9DE378 		mr 29,28
 3709 0038 87FD0004 		lwzu 31,4(29)
 3710              	.LVL327:
 3711              	.LBB2057:
 3712              		.loc 1 954 0
 3713 003c 7F9FE800 		cmpw 7,31,29
 3714 0040 419E00A8 		beq- 7,.L241
 3715              	.LVL328:
 3716              	.L279:
 3717              		.loc 1 956 0
 3718 0044 807F0008 		lwz 3,8(31)
 3719 0048 81230000 		lwz 9,0(3)
 3720 004c 80090008 		lwz 0,8(9)
 3721 0050 7C0903A6 		mtctr 0
 3722              	.LEHB21:
 3723 0054 4E800421 		bctrl
 3724              	.LBB2027:
 3725              	.LBB2028:
 3726              	.LBB2029:
 3727              	.LBB2030:
 3728              		.loc 1 338 0
 3729 0058 81230000 		lwz 9,0(3)
 3730              	.LBE2030:
 3731              	.LBE2029:
 3732              	.LBE2028:
 3733              	.LBE2027:
 3734              		.loc 1 956 0
 3735 005c 7C7E1B78 		mr 30,3
 3736              	.LVL329:
 3737 0060 93810008 		stw 28,8(1)
 3738              	.LVL330:
 3739              	.LBB2039:
 3740              	.LBB2038:
 3741              	.LBB2032:
 3742              	.LBB2031:
 3743              		.loc 1 338 0
 3744 0064 80090008 		lwz 0,8(9)
 3745 0068 7C0903A6 		mtctr 0
 3746 006c 4E800421 		bctrl
 3747              	.LVL331:
 3748              	.LBE2031:
 3749              	.LBE2032:
 3750              	.LBB2033:
 3751              	.LBB2034:
 3752              		.file 10 "d:\\devkitpro\\devkitppc\\bin\\../lib/gcc/powerpc-eabi/4.6.3/../../../../powerpc-eabi/in
 3753              		.loc 10 528 0
 3754 0070 387E0004 		addi 3,30,4
 3755 0074 38810008 		addi 4,1,8
 3756 0078 48000001 		bl _ZNSt8_Rb_treeIPN7sigslot12_signal_baseINS0_15single_threadedEEES4_St9_IdentityIS4_ESt4lessIS4_
 3757              	.LVL332:
 3758              	.LBE2034:
 3759              	.LBE2033:
 3760              	.LBB2035:
 3761              	.LBB2036:
 3762              	.LBB2037:
 3763              		.loc 1 343 0
 3764 007c 813E0000 		lwz 9,0(30)
 3765 0080 7FC3F378 		mr 3,30
 3766 0084 8009000C 		lwz 0,12(9)
 3767 0088 7C0903A6 		mtctr 0
 3768 008c 4E800421 		bctrl
 3769              	.LVL333:
 3770              	.LBE2037:
 3771              	.LBE2036:
 3772              	.LBE2035:
 3773              	.LBE2038:
 3774              	.LBE2039:
 3775              		.loc 1 957 0
 3776 0090 807F0008 		lwz 3,8(31)
 3777 0094 2F830000 		cmpwi 7,3,0
 3778 0098 419E0014 		beq- 7,.L243
 3779 009c 81230000 		lwz 9,0(3)
 3780 00a0 80090004 		lwz 0,4(9)
 3781 00a4 7C0903A6 		mtctr 0
 3782 00a8 4E800421 		bctrl
 3783              	.LEHE21:
 3784              	.L243:
 3785              	.LVL334:
 3786              	.LBB2040:
 3787              	.LBB2041:
 3788              		.loc 4 234 0
 3789 00ac 83FF0000 		lwz 31,0(31)
 3790              	.LVL335:
 3791              	.LBE2041:
 3792              	.LBE2040:
 3793              		.loc 1 954 0
 3794 00b0 7F9DF800 		cmpw 7,29,31
 3795 00b4 409EFF90 		bne+ 7,.L279
 3796              	.LBE2057:
 3797              		.loc 3 144 0
 3798 00b8 83FC0004 		lwz 31,4(28)
 3799              	.LVL336:
 3800              	.LBB2058:
 3801              	.LBB2042:
 3802              	.LBB2043:
 3803              		.loc 4 1162 0
 3804 00bc 7F9DF800 		cmpw 7,29,31
 3805 00c0 40BE000C 		bne+ 7,.L281
 3806 00c4 48000024 		b .L241
 3807              	.LVL337:
 3808              	.L274:
 3809              		.loc 4 1163 0
 3810 00c8 7FDFF378 		mr 31,30
 3811              	.LVL338:
 3812              	.L281:
 3813              	.LBB2044:
 3814              	.LBB2045:
 3815              		.file 11 "d:\\devkitpro\\devkitppc\\bin\\../lib/gcc/powerpc-eabi/4.6.3/../../../../powerpc-eabi/in
 3816              		.loc 11 112 0
 3817 00cc 83DF0000 		lwz 30,0(31)
 3818              	.LVL339:
 3819              	.LBB2046:
 3820              	.LBB2047:
 3821              		.loc 4 1532 0
 3822 00d0 7FE3FB78 		mr 3,31
 3823 00d4 48000001 		bl _ZNSt8__detail15_List_node_base9_M_unhookEv
 3824              	.LVL340:
 3825              	.LBB2048:
 3826              	.LBB2049:
 3827              	.LBB2050:
 3828              		.loc 8 98 0
 3829 00d8 7FE3FB78 		mr 3,31
 3830 00dc 48000001 		bl _ZdlPv
 3831              	.LVL341:
 3832              	.LBE2050:
 3833              	.LBE2049:
 3834              	.LBE2048:
 3835              	.LBE2047:
 3836              	.LBE2046:
 3837              	.LBE2045:
 3838              	.LBE2044:
 3839              		.loc 4 1162 0
 3840 00e0 7F9DF000 		cmpw 7,29,30
 3841 00e4 409EFFE4 		bne+ 7,.L274
 3842              	.LVL342:
 3843              	.L241:
 3844              	.LBE2043:
 3845              	.LBE2042:
 3846              	.LBB2051:
 3847              	.LBB2052:
 3848              	.LBB2053:
 3849              		.loc 1 343 0
 3850 00e8 813C0000 		lwz 9,0(28)
 3851 00ec 7F83E378 		mr 3,28
 3852 00f0 8009000C 		lwz 0,12(9)
 3853 00f4 7C0903A6 		mtctr 0
 3854              	.LEHB22:
 3855 00f8 4E800421 		bctrl
 3856              	.LEHE22:
 3857              	.LVL343:
 3858              	.LBE2053:
 3859              	.LBE2052:
 3860              	.LBE2051:
 3861              	.LBE2058:
 3862              	.LBE2023:
 3863              	.LBB2060:
 3864              	.LBB2061:
 3865              	.LBB2062:
 3866              	.LBB2063:
 3867              	.LBB2064:
 3868              	.LBB2065:
 3869              		.loc 11 70 0
 3870 00fc 807C0004 		lwz 3,4(28)
 3871              	.LVL344:
 3872              		.loc 11 71 0
 3873 0100 7F83E800 		cmpw 7,3,29
 3874 0104 40BE000C 		bne+ 7,.L283
 3875 0108 48000018 		b .L259
 3876              	.LVL345:
 3877              	.L275:
 3878              		.loc 11 74 0
 3879 010c 7FE3FB78 		mr 3,31
 3880              	.LVL346:
 3881              	.L283:
 3882              	.LBB2066:
 3883 0110 83E30000 		lwz 31,0(3)
 3884              	.LVL347:
 3885              	.LBB2067:
 3886              	.LBB2068:
 3887              	.LBB2069:
 3888              		.loc 8 98 0
 3889 0114 48000001 		bl _ZdlPv
 3890              	.LVL348:
 3891              	.LBE2069:
 3892              	.LBE2068:
 3893              	.LBE2067:
 3894              	.LBE2066:
 3895              		.loc 11 71 0
 3896 0118 7F9FE800 		cmpw 7,31,29
 3897 011c 409EFFF0 		bne+ 7,.L275
 3898              	.LVL349:
 3899              	.L259:
 3900              	.LBE2065:
 3901              	.LBE2064:
 3902              	.LBE2063:
 3903              	.LBE2062:
 3904              	.LBE2061:
 3905              	.LBE2060:
 3906              	.LBB2070:
 3907              	.LBB2071:
 3908              	.LBB2072:
 3909              	.LBB2073:
 3910              	.LBB2074:
 3911              	.LBB2075:
 3912              		.loc 1 105 0
 3913 0120 3D200000 		lis 9,_ZTVN7sigslot15single_threadedE+8@ha
 3914              	.LBE2075:
 3915              	.LBE2074:
 3916              	.LBE2073:
 3917              	.LBE2072:
 3918              	.LBE2071:
 3919              	.LBE2070:
 3920              	.LBE2100:
 3921              	.LBE2104:
 3922              	.LBE2108:
 3923              		.loc 1 946 0
 3924 0124 7F83E378 		mr 3,28
 3925              	.LBB2109:
 3926              	.LBB2105:
 3927              	.LBB2101:
 3928              	.LBB2081:
 3929              	.LBB2080:
 3930              	.LBB2079:
 3931              	.LBB2078:
 3932              	.LBB2077:
 3933              	.LBB2076:
 3934              		.loc 1 105 0
 3935 0128 38090008 		la 0,_ZTVN7sigslot15single_threadedE+8@l(9)
 3936 012c 901C0000 		stw 0,0(28)
 3937              	.LBE2076:
 3938              	.LBE2077:
 3939              	.LBE2078:
 3940              	.LBE2079:
 3941              	.LBE2080:
 3942              	.LBE2081:
 3943              	.LBE2101:
 3944              	.LBE2105:
 3945              	.LBE2109:
 3946              		.loc 1 946 0
 3947 0130 48000001 		bl _ZdlPv
 3948 0134 8001002C 		lwz 0,44(1)
 3949 0138 83810018 		lwz 28,24(1)
 3950              	.LVL350:
 3951 013c 7C0803A6 		mtlr 0
 3952 0140 83A1001C 		lwz 29,28(1)
 3953              	.LVL351:
 3954 0144 83C10020 		lwz 30,32(1)
 3955 0148 83E10024 		lwz 31,36(1)
 3956 014c 38210028 		addi 1,1,40
 3957              		.cfi_remember_state
 3958              	.LCFI53:
 3959              		.cfi_def_cfa_offset 0
 3960              		.cfi_restore 31
 3961              		.cfi_restore 30
 3962              		.cfi_restore 29
 3963              		.cfi_restore 28
 3964 0150 4E800020 		blr
 3965              	.LVL352:
 3966              	.L277:
 3967              	.LCFI54:
 3968              		.cfi_restore_state
 3969 0154 7C7F1B78 		mr 31,3
 3970              	.L251:
 3971              	.LVL353:
 3972              	.LBB2110:
 3973              	.LBB2106:
 3974              	.LBB2102:
 3975              	.LBB2082:
 3976              	.LBB2083:
 3977              	.LBB2084:
 3978              	.LBB2085:
 3979              	.LBB2086:
 3980              	.LBB2087:
 3981              		.loc 11 70 0
 3982 0158 807C0004 		lwz 3,4(28)
 3983              	.LVL354:
 3984              		.loc 11 71 0
 3985 015c 7F83E800 		cmpw 7,3,29
 3986 0160 419E0038 		beq- 7,.L268
 3987              	.LVL355:
 3988              	.L284:
 3989              	.LBB2088:
 3990              		.loc 11 74 0
 3991 0164 83C30000 		lwz 30,0(3)
 3992              	.LVL356:
 3993              	.LBB2089:
 3994              	.LBB2090:
 3995              	.LBB2091:
 3996              		.loc 8 98 0
 3997 0168 48000001 		bl _ZdlPv
 3998              	.LVL357:
 3999              	.LBE2091:
 4000              	.LBE2090:
 4001              	.LBE2089:
 4002              	.LBE2088:
 4003              		.loc 11 71 0
 4004 016c 7F9EE800 		cmpw 7,30,29
 4005 0170 419E0028 		beq- 7,.L268
 4006              		.loc 11 74 0
 4007 0174 7FC3F378 		mr 3,30
 4008 0178 4BFFFFEC 		b .L284
 4009              	.LVL358:
 4010              	.L278:
 4011              	.LBE2087:
 4012              	.LBE2086:
 4013              	.LBE2085:
 4014              	.LBE2084:
 4015              	.LBE2083:
 4016              	.LBE2082:
 4017              	.LBB2092:
 4018              	.LBB2059:
 4019              	.LBB2054:
 4020              	.LBB2055:
 4021              	.LBB2056:
 4022              		.loc 1 343 0
 4023 017c 813C0000 		lwz 9,0(28)
 4024 0180 7C7F1B78 		mr 31,3
 4025              	.LVL359:
 4026 0184 7F83E378 		mr 3,28
 4027 0188 8009000C 		lwz 0,12(9)
 4028 018c 7C0903A6 		mtctr 0
 4029 0190 4E800421 		bctrl
 4030 0194 4BFFFFC4 		b .L251
 4031              	.LVL360:
 4032              	.L268:
 4033              	.LBE2056:
 4034              	.LBE2055:
 4035              	.LBE2054:
 4036              	.LBE2059:
 4037              	.LBE2092:
 4038              	.LBB2093:
 4039              	.LBB2094:
 4040              	.LBB2095:
 4041              	.LBB2096:
 4042              	.LBB2097:
 4043              	.LBB2098:
 4044              		.loc 1 105 0
 4045 0198 3D200000 		lis 9,_ZTVN7sigslot15single_threadedE+8@ha
 4046 019c 7FE3FB78 		mr 3,31
 4047 01a0 38090008 		la 0,_ZTVN7sigslot15single_threadedE+8@l(9)
 4048 01a4 901C0000 		stw 0,0(28)
 4049              	.LEHB23:
 4050 01a8 48000001 		bl _Unwind_Resume
 4051              	.LEHE23:
 4052              	.LBE2098:
 4053              	.LBE2097:
 4054              	.LBE2096:
 4055              	.LBE2095:
 4056              	.LBE2094:
 4057              	.LBE2093:
 4058              	.LBE2102:
 4059              	.LBE2106:
 4060              	.LBE2110:
 4061              		.cfi_endproc
 4062              	.LFE1654:
 4063              		.section	.gcc_except_table
 4064              	.LLSDA1654:
 4065 0073 FF       		.byte	0xff
 4066 0074 FF       		.byte	0xff
 4067 0075 01       		.byte	0x1
 4068 0076 15       		.uleb128 .LLSDACSE1654-.LLSDACSB1654
 4069              	.LLSDACSB1654:
 4070 0077 30       		.uleb128 .LEHB20-.LFB1654
 4071 0078 04       		.uleb128 .LEHE20-.LEHB20
 4072 0079 D402     		.uleb128 .L277-.LFB1654
 4073 007b 00       		.uleb128 0
 4074 007c 54       		.uleb128 .LEHB21-.LFB1654
 4075 007d 58       		.uleb128 .LEHE21-.LEHB21
 4076 007e FC02     		.uleb128 .L278-.LFB1654
 4077 0080 00       		.uleb128 0
 4078 0081 F801     		.uleb128 .LEHB22-.LFB1654
 4079 0083 04       		.uleb128 .LEHE22-.LEHB22
 4080 0084 D402     		.uleb128 .L277-.LFB1654
 4081 0086 00       		.uleb128 0
 4082 0087 A803     		.uleb128 .LEHB23-.LFB1654
 4083 0089 04       		.uleb128 .LEHE23-.LEHB23
 4084 008a 00       		.uleb128 0
 4085 008b 00       		.uleb128 0
 4086              	.LLSDACSE1654:
 4087              		.section	.text._ZN7sigslot13_signal_base3IP10GuiElementiiNS_15single_threadedEED0Ev,"axG",@progbit
 4088              		.size	_ZN7sigslot13_signal_base3IP10GuiElementiiNS_15single_threadedEED0Ev, .-_ZN7sigslot13_signal
 4089              		.section	.text._ZN7sigslot7signal2IP10GuiElementbNS_15single_threadedEED2Ev,"axG",@progbits,_ZN7si
 4090              		.align 2
 4091              		.weak	_ZN7sigslot7signal2IP10GuiElementbNS_15single_threadedEED2Ev
 4092              		.type	_ZN7sigslot7signal2IP10GuiElementbNS_15single_threadedEED2Ev, @function
 4093              	_ZN7sigslot7signal2IP10GuiElementbNS_15single_threadedEED2Ev:
 4094              	.LFB1615:
 4095              		.loc 1 2235 0
 4096              		.cfi_startproc
 4097              		.cfi_personality 0,__gxx_personality_v0
 4098              		.cfi_lsda 0,.LLSDA1615
 4099              	.LVL361:
 4100 0000 7C0802A6 		mflr 0
 4101 0004 9421FFD8 		stwu 1,-40(1)
 4102              	.LCFI55:
 4103              		.cfi_def_cfa_offset 40
 4104              		.cfi_register 65, 0
 4105              	.LBB2208:
 4106              	.LBB2209:
 4107              	.LBB2210:
 4108              	.LBB2211:
 4109              		.loc 1 826 0
 4110 0008 3D200000 		lis 9,_ZTVN7sigslot13_signal_base2IP10GuiElementbNS_15single_threadedEEE+8@ha
 4111              	.LBE2211:
 4112              	.LBE2210:
 4113              	.LBE2209:
 4114              	.LBE2208:
 4115              		.loc 1 2235 0
 4116 000c 93810018 		stw 28,24(1)
 4117 0010 7C7C1B78 		mr 28,3
 4118              		.cfi_offset 28, -16
 4119              	.LVL362:
 4120 0014 9001002C 		stw 0,44(1)
 4121              	.LBB2309:
 4122              	.LBB2304:
 4123              	.LBB2299:
 4124              	.LBB2294:
 4125              		.loc 1 826 0
 4126 0018 38090008 		la 0,_ZTVN7sigslot13_signal_base2IP10GuiElementbNS_15single_threadedEEE+8@l(9)
 4127              		.cfi_offset 65, 4
 4128              	.LBE2294:
 4129              	.LBE2299:
 4130              	.LBE2304:
 4131              	.LBE2309:
 4132              		.loc 1 2235 0
 4133 001c 93A1001C 		stw 29,28(1)
 4134 0020 3BA30004 		addi 29,3,4
 4135              		.cfi_offset 29, -12
 4136 0024 93C10020 		stw 30,32(1)
 4137 0028 93E10024 		stw 31,36(1)
 4138              	.LBB2310:
 4139              	.LBB2305:
 4140              	.LBB2300:
 4141              	.LBB2295:
 4142              		.loc 1 826 0
 4143 002c 90030000 		stw 0,0(3)
 4144              	.LVL363:
 4145              	.LEHB24:
 4146              	.LBB2212:
 4147              	.LBB2213:
 4148              	.LBB2214:
 4149              	.LBB2215:
 4150              		.loc 1 338 0
 4151              		.cfi_offset 31, -4
 4152              		.cfi_offset 30, -8
 4153 0030 48000001 		bl _ZN7sigslot15single_threaded4lockEv
 4154              	.LEHE24:
 4155              	.LVL364:
 4156              	.LBE2215:
 4157              	.LBE2214:
 4158              	.LBE2213:
 4159              		.loc 3 144 0
 4160 0034 7F9DE378 		mr 29,28
 4161 0038 87FD0004 		lwzu 31,4(29)
 4162              	.LVL365:
 4163              	.LBB2246:
 4164              		.loc 1 834 0
 4165 003c 7F9FE800 		cmpw 7,31,29
 4166 0040 419E00A8 		beq- 7,.L286
 4167              	.LVL366:
 4168              	.L324:
 4169              		.loc 1 836 0
 4170 0044 807F0008 		lwz 3,8(31)
 4171 0048 81230000 		lwz 9,0(3)
 4172 004c 80090008 		lwz 0,8(9)
 4173 0050 7C0903A6 		mtctr 0
 4174              	.LEHB25:
 4175 0054 4E800421 		bctrl
 4176              	.LBB2216:
 4177              	.LBB2217:
 4178              	.LBB2218:
 4179              	.LBB2219:
 4180              		.loc 1 338 0
 4181 0058 81230000 		lwz 9,0(3)
 4182              	.LBE2219:
 4183              	.LBE2218:
 4184              	.LBE2217:
 4185              	.LBE2216:
 4186              		.loc 1 836 0
 4187 005c 7C7E1B78 		mr 30,3
 4188              	.LVL367:
 4189 0060 93810008 		stw 28,8(1)
 4190              	.LVL368:
 4191              	.LBB2228:
 4192              	.LBB2227:
 4193              	.LBB2221:
 4194              	.LBB2220:
 4195              		.loc 1 338 0
 4196 0064 80090008 		lwz 0,8(9)
 4197 0068 7C0903A6 		mtctr 0
 4198 006c 4E800421 		bctrl
 4199              	.LVL369:
 4200              	.LBE2220:
 4201              	.LBE2221:
 4202              	.LBB2222:
 4203              	.LBB2223:
 4204              		.loc 10 528 0
 4205 0070 387E0004 		addi 3,30,4
 4206 0074 38810008 		addi 4,1,8
 4207 0078 48000001 		bl _ZNSt8_Rb_treeIPN7sigslot12_signal_baseINS0_15single_threadedEEES4_St9_IdentityIS4_ESt4lessIS4_
 4208              	.LVL370:
 4209              	.LBE2223:
 4210              	.LBE2222:
 4211              	.LBB2224:
 4212              	.LBB2225:
 4213              	.LBB2226:
 4214              		.loc 1 343 0
 4215 007c 813E0000 		lwz 9,0(30)
 4216 0080 7FC3F378 		mr 3,30
 4217 0084 8009000C 		lwz 0,12(9)
 4218 0088 7C0903A6 		mtctr 0
 4219 008c 4E800421 		bctrl
 4220              	.LVL371:
 4221              	.LBE2226:
 4222              	.LBE2225:
 4223              	.LBE2224:
 4224              	.LBE2227:
 4225              	.LBE2228:
 4226              		.loc 1 837 0
 4227 0090 807F0008 		lwz 3,8(31)
 4228 0094 2F830000 		cmpwi 7,3,0
 4229 0098 419E0014 		beq- 7,.L288
 4230 009c 81230000 		lwz 9,0(3)
 4231 00a0 80090004 		lwz 0,4(9)
 4232 00a4 7C0903A6 		mtctr 0
 4233 00a8 4E800421 		bctrl
 4234              	.LEHE25:
 4235              	.L288:
 4236              	.LVL372:
 4237              	.LBB2229:
 4238              	.LBB2230:
 4239              		.loc 4 234 0
 4240 00ac 83FF0000 		lwz 31,0(31)
 4241              	.LVL373:
 4242              	.LBE2230:
 4243              	.LBE2229:
 4244              		.loc 1 834 0
 4245 00b0 7F9DF800 		cmpw 7,29,31
 4246 00b4 409EFF90 		bne+ 7,.L324
 4247              	.LBE2246:
 4248              		.loc 3 144 0
 4249 00b8 83FC0004 		lwz 31,4(28)
 4250              	.LVL374:
 4251              	.LBB2247:
 4252              	.LBB2231:
 4253              	.LBB2232:
 4254              		.loc 4 1162 0
 4255 00bc 7F9DF800 		cmpw 7,29,31
 4256 00c0 40BE000C 		bne+ 7,.L326
 4257 00c4 48000024 		b .L286
 4258              	.LVL375:
 4259              	.L319:
 4260              		.loc 4 1163 0
 4261 00c8 7FDFF378 		mr 31,30
 4262              	.LVL376:
 4263              	.L326:
 4264              	.LBB2233:
 4265              	.LBB2234:
 4266              		.loc 11 112 0
 4267 00cc 83DF0000 		lwz 30,0(31)
 4268              	.LVL377:
 4269              	.LBB2235:
 4270              	.LBB2236:
 4271              		.loc 4 1532 0
 4272 00d0 7FE3FB78 		mr 3,31
 4273 00d4 48000001 		bl _ZNSt8__detail15_List_node_base9_M_unhookEv
 4274              	.LVL378:
 4275              	.LBB2237:
 4276              	.LBB2238:
 4277              	.LBB2239:
 4278              		.loc 8 98 0
 4279 00d8 7FE3FB78 		mr 3,31
 4280 00dc 48000001 		bl _ZdlPv
 4281              	.LVL379:
 4282              	.LBE2239:
 4283              	.LBE2238:
 4284              	.LBE2237:
 4285              	.LBE2236:
 4286              	.LBE2235:
 4287              	.LBE2234:
 4288              	.LBE2233:
 4289              		.loc 4 1162 0
 4290 00e0 7F9DF000 		cmpw 7,29,30
 4291 00e4 409EFFE4 		bne+ 7,.L319
 4292              	.LVL380:
 4293              	.L286:
 4294              	.LBE2232:
 4295              	.LBE2231:
 4296              	.LBB2240:
 4297              	.LBB2241:
 4298              	.LBB2242:
 4299              		.loc 1 343 0
 4300 00e8 813C0000 		lwz 9,0(28)
 4301 00ec 7F83E378 		mr 3,28
 4302 00f0 8009000C 		lwz 0,12(9)
 4303 00f4 7C0903A6 		mtctr 0
 4304              	.LEHB26:
 4305 00f8 4E800421 		bctrl
 4306              	.LEHE26:
 4307              	.LBE2242:
 4308              	.LBE2241:
 4309              	.LBE2240:
 4310              	.LBE2247:
 4311              	.LBE2212:
 4312              	.LBB2249:
 4313              	.LBB2250:
 4314              	.LBB2251:
 4315              	.LBB2252:
 4316              	.LBB2253:
 4317              	.LBB2254:
 4318              		.loc 11 70 0
 4319 00fc 807C0004 		lwz 3,4(28)
 4320              	.LVL381:
 4321              		.loc 11 71 0
 4322 0100 7F83E800 		cmpw 7,3,29
 4323 0104 40BE000C 		bne+ 7,.L328
 4324 0108 48000018 		b .L304
 4325              	.LVL382:
 4326              	.L320:
 4327              		.loc 11 74 0
 4328 010c 7FE3FB78 		mr 3,31
 4329              	.LVL383:
 4330              	.L328:
 4331              	.LBB2255:
 4332 0110 83E30000 		lwz 31,0(3)
 4333              	.LVL384:
 4334              	.LBB2256:
 4335              	.LBB2257:
 4336              	.LBB2258:
 4337              		.loc 8 98 0
 4338 0114 48000001 		bl _ZdlPv
 4339              	.LVL385:
 4340              	.LBE2258:
 4341              	.LBE2257:
 4342              	.LBE2256:
 4343              	.LBE2255:
 4344              		.loc 11 71 0
 4345 0118 7F9FE800 		cmpw 7,31,29
 4346 011c 409EFFF0 		bne+ 7,.L320
 4347              	.LVL386:
 4348              	.L304:
 4349              	.LBE2254:
 4350              	.LBE2253:
 4351              	.LBE2252:
 4352              	.LBE2251:
 4353              	.LBE2250:
 4354              	.LBE2249:
 4355              	.LBB2259:
 4356              	.LBB2260:
 4357              	.LBB2261:
 4358              	.LBB2262:
 4359              	.LBB2263:
 4360              	.LBB2264:
 4361              		.loc 1 105 0
 4362 0120 3D200000 		lis 9,_ZTVN7sigslot15single_threadedE+8@ha
 4363              	.LBE2264:
 4364              	.LBE2263:
 4365              	.LBE2262:
 4366              	.LBE2261:
 4367              	.LBE2260:
 4368              	.LBE2259:
 4369              	.LBE2295:
 4370              	.LBE2300:
 4371              	.LBE2305:
 4372              	.LBE2310:
 4373              		.loc 1 2238 0
 4374 0124 83A1001C 		lwz 29,28(1)
 4375              	.LVL387:
 4376              	.LBB2311:
 4377              	.LBB2306:
 4378              	.LBB2301:
 4379              	.LBB2296:
 4380              	.LBB2275:
 4381              	.LBB2273:
 4382              	.LBB2271:
 4383              	.LBB2269:
 4384              	.LBB2267:
 4385              	.LBB2265:
 4386              		.loc 1 105 0
 4387 0128 38090008 		la 0,_ZTVN7sigslot15single_threadedE+8@l(9)
 4388              	.LBE2265:
 4389              	.LBE2267:
 4390              	.LBE2269:
 4391              	.LBE2271:
 4392              	.LBE2273:
 4393              	.LBE2275:
 4394              	.LBE2296:
 4395              	.LBE2301:
 4396              	.LBE2306:
 4397              	.LBE2311:
 4398              		.loc 1 2238 0
 4399 012c 83C10020 		lwz 30,32(1)
 4400              	.LBB2312:
 4401              	.LBB2307:
 4402              	.LBB2302:
 4403              	.LBB2297:
 4404              	.LBB2276:
 4405              	.LBB2274:
 4406              	.LBB2272:
 4407              	.LBB2270:
 4408              	.LBB2268:
 4409              	.LBB2266:
 4410              		.loc 1 105 0
 4411 0130 901C0000 		stw 0,0(28)
 4412              	.LBE2266:
 4413              	.LBE2268:
 4414              	.LBE2270:
 4415              	.LBE2272:
 4416              	.LBE2274:
 4417              	.LBE2276:
 4418              	.LBE2297:
 4419              	.LBE2302:
 4420              	.LBE2307:
 4421              	.LBE2312:
 4422              		.loc 1 2238 0
 4423 0134 8001002C 		lwz 0,44(1)
 4424 0138 83810018 		lwz 28,24(1)
 4425              	.LVL388:
 4426 013c 7C0803A6 		mtlr 0
 4427 0140 83E10024 		lwz 31,36(1)
 4428 0144 38210028 		addi 1,1,40
 4429              		.cfi_remember_state
 4430              	.LCFI56:
 4431              		.cfi_def_cfa_offset 0
 4432              		.cfi_restore 31
 4433              		.cfi_restore 30
 4434              		.cfi_restore 29
 4435              		.cfi_restore 28
 4436 0148 4E800020 		blr
 4437              	.LVL389:
 4438              	.L322:
 4439              	.LCFI57:
 4440              		.cfi_restore_state
 4441 014c 7C7F1B78 		mr 31,3
 4442              	.L296:
 4443              	.LBB2313:
 4444              	.LBB2308:
 4445              	.LBB2303:
 4446              	.LBB2298:
 4447              	.LBB2277:
 4448              	.LBB2278:
 4449              	.LBB2279:
 4450              	.LBB2280:
 4451              	.LBB2281:
 4452              	.LBB2282:
 4453              		.loc 11 70 0
 4454 0150 807C0004 		lwz 3,4(28)
 4455              	.LVL390:
 4456              		.loc 11 71 0
 4457 0154 7F83E800 		cmpw 7,3,29
 4458 0158 419E0038 		beq- 7,.L313
 4459              	.LVL391:
 4460              	.L329:
 4461              	.LBB2283:
 4462              		.loc 11 74 0
 4463 015c 83C30000 		lwz 30,0(3)
 4464              	.LVL392:
 4465              	.LBB2284:
 4466              	.LBB2285:
 4467              	.LBB2286:
 4468              		.loc 8 98 0
 4469 0160 48000001 		bl _ZdlPv
 4470              	.LVL393:
 4471              	.LBE2286:
 4472              	.LBE2285:
 4473              	.LBE2284:
 4474              	.LBE2283:
 4475              		.loc 11 71 0
 4476 0164 7F9EE800 		cmpw 7,30,29
 4477 0168 419E0028 		beq- 7,.L313
 4478              		.loc 11 74 0
 4479 016c 7FC3F378 		mr 3,30
 4480 0170 4BFFFFEC 		b .L329
 4481              	.LVL394:
 4482              	.L323:
 4483              	.LBE2282:
 4484              	.LBE2281:
 4485              	.LBE2280:
 4486              	.LBE2279:
 4487              	.LBE2278:
 4488              	.LBE2277:
 4489              	.LBB2287:
 4490              	.LBB2248:
 4491              	.LBB2243:
 4492              	.LBB2244:
 4493              	.LBB2245:
 4494              		.loc 1 343 0
 4495 0174 813C0000 		lwz 9,0(28)
 4496 0178 7C7F1B78 		mr 31,3
 4497              	.LVL395:
 4498 017c 7F83E378 		mr 3,28
 4499 0180 8009000C 		lwz 0,12(9)
 4500 0184 7C0903A6 		mtctr 0
 4501 0188 4E800421 		bctrl
 4502 018c 4BFFFFC4 		b .L296
 4503              	.LVL396:
 4504              	.L313:
 4505              	.LBE2245:
 4506              	.LBE2244:
 4507              	.LBE2243:
 4508              	.LBE2248:
 4509              	.LBE2287:
 4510              	.LBB2288:
 4511              	.LBB2289:
 4512              	.LBB2290:
 4513              	.LBB2291:
 4514              	.LBB2292:
 4515              	.LBB2293:
 4516              		.loc 1 105 0
 4517 0190 3D200000 		lis 9,_ZTVN7sigslot15single_threadedE+8@ha
 4518 0194 7FE3FB78 		mr 3,31
 4519 0198 38090008 		la 0,_ZTVN7sigslot15single_threadedE+8@l(9)
 4520 019c 901C0000 		stw 0,0(28)
 4521              	.LEHB27:
 4522 01a0 48000001 		bl _Unwind_Resume
 4523              	.LEHE27:
 4524              	.LBE2293:
 4525              	.LBE2292:
 4526              	.LBE2291:
 4527              	.LBE2290:
 4528              	.LBE2289:
 4529              	.LBE2288:
 4530              	.LBE2298:
 4531              	.LBE2303:
 4532              	.LBE2308:
 4533              	.LBE2313:
 4534              		.cfi_endproc
 4535              	.LFE1615:
 4536              		.section	.gcc_except_table
 4537              	.LLSDA1615:
 4538 008c FF       		.byte	0xff
 4539 008d FF       		.byte	0xff
 4540 008e 01       		.byte	0x1
 4541 008f 15       		.uleb128 .LLSDACSE1615-.LLSDACSB1615
 4542              	.LLSDACSB1615:
 4543 0090 30       		.uleb128 .LEHB24-.LFB1615
 4544 0091 04       		.uleb128 .LEHE24-.LEHB24
 4545 0092 CC02     		.uleb128 .L322-.LFB1615
 4546 0094 00       		.uleb128 0
 4547 0095 54       		.uleb128 .LEHB25-.LFB1615
 4548 0096 58       		.uleb128 .LEHE25-.LEHB25
 4549 0097 F402     		.uleb128 .L323-.LFB1615
 4550 0099 00       		.uleb128 0
 4551 009a F801     		.uleb128 .LEHB26-.LFB1615
 4552 009c 04       		.uleb128 .LEHE26-.LEHB26
 4553 009d CC02     		.uleb128 .L322-.LFB1615
 4554 009f 00       		.uleb128 0
 4555 00a0 A003     		.uleb128 .LEHB27-.LFB1615
 4556 00a2 04       		.uleb128 .LEHE27-.LEHB27
 4557 00a3 00       		.uleb128 0
 4558 00a4 00       		.uleb128 0
 4559              	.LLSDACSE1615:
 4560              		.section	.text._ZN7sigslot7signal2IP10GuiElementbNS_15single_threadedEED2Ev,"axG",@progbits,_ZN7si
 4561              		.size	_ZN7sigslot7signal2IP10GuiElementbNS_15single_threadedEED2Ev, .-_ZN7sigslot7signal2IP10GuiEl
 4562              		.section	.text._ZN7sigslot13_signal_base2IP10GuiElementbNS_15single_threadedEED2Ev,"axG",@progbits
 4563              		.align 2
 4564              		.weak	_ZN7sigslot13_signal_base2IP10GuiElementbNS_15single_threadedEED2Ev
 4565              		.type	_ZN7sigslot13_signal_base2IP10GuiElementbNS_15single_threadedEED2Ev, @function
 4566              	_ZN7sigslot13_signal_base2IP10GuiElementbNS_15single_threadedEED2Ev:
 4567              	.LFB1645:
 4568              		.loc 1 823 0
 4569              		.cfi_startproc
 4570              		.cfi_personality 0,__gxx_personality_v0
 4571              		.cfi_lsda 0,.LLSDA1645
 4572              	.LVL397:
 4573 0000 7C0802A6 		mflr 0
 4574 0004 9421FFD8 		stwu 1,-40(1)
 4575              	.LCFI58:
 4576              		.cfi_def_cfa_offset 40
 4577              		.cfi_register 65, 0
 4578              	.LBB2460:
 4579              		.loc 1 826 0
 4580 0008 3D200000 		lis 9,_ZTVN7sigslot13_signal_base2IP10GuiElementbNS_15single_threadedEEE+8@ha
 4581              	.LBE2460:
 4582              		.loc 1 823 0
 4583 000c 93810018 		stw 28,24(1)
 4584 0010 7C7C1B78 		mr 28,3
 4585              		.cfi_offset 28, -16
 4586 0014 9001002C 		stw 0,44(1)
 4587              	.LBB2543:
 4588              		.loc 1 826 0
 4589 0018 38090008 		la 0,_ZTVN7sigslot13_signal_base2IP10GuiElementbNS_15single_threadedEEE+8@l(9)
 4590              		.cfi_offset 65, 4
 4591              	.LBE2543:
 4592              		.loc 1 823 0
 4593 001c 93A1001C 		stw 29,28(1)
 4594 0020 3BA30004 		addi 29,3,4
 4595              		.cfi_offset 29, -12
 4596 0024 93C10020 		stw 30,32(1)
 4597 0028 93E10024 		stw 31,36(1)
 4598              	.LBB2544:
 4599              		.loc 1 826 0
 4600 002c 90030000 		stw 0,0(3)
 4601              	.LVL398:
 4602              	.LEHB28:
 4603              	.LBB2461:
 4604              	.LBB2462:
 4605              	.LBB2463:
 4606              	.LBB2464:
 4607              		.loc 1 338 0
 4608              		.cfi_offset 31, -4
 4609              		.cfi_offset 30, -8
 4610 0030 48000001 		bl _ZN7sigslot15single_threaded4lockEv
 4611              	.LEHE28:
 4612              	.LVL399:
 4613              	.LBE2464:
 4614              	.LBE2463:
 4615              	.LBE2462:
 4616              		.loc 3 144 0
 4617 0034 7F9DE378 		mr 29,28
 4618 0038 87FD0004 		lwzu 31,4(29)
 4619              	.LVL400:
 4620              	.LBB2495:
 4621              		.loc 1 834 0
 4622 003c 7F9FE800 		cmpw 7,31,29
 4623 0040 419E00A8 		beq- 7,.L331
 4624              	.LVL401:
 4625              	.L368:
 4626              		.loc 1 836 0
 4627 0044 807F0008 		lwz 3,8(31)
 4628 0048 81230000 		lwz 9,0(3)
 4629 004c 80090008 		lwz 0,8(9)
 4630 0050 7C0903A6 		mtctr 0
 4631              	.LEHB29:
 4632 0054 4E800421 		bctrl
 4633              	.LBB2465:
 4634              	.LBB2466:
 4635              	.LBB2467:
 4636              	.LBB2468:
 4637              		.loc 1 338 0
 4638 0058 81230000 		lwz 9,0(3)
 4639              	.LBE2468:
 4640              	.LBE2467:
 4641              	.LBE2466:
 4642              	.LBE2465:
 4643              		.loc 1 836 0
 4644 005c 7C7E1B78 		mr 30,3
 4645              	.LVL402:
 4646 0060 93810008 		stw 28,8(1)
 4647              	.LVL403:
 4648              	.LBB2477:
 4649              	.LBB2476:
 4650              	.LBB2470:
 4651              	.LBB2469:
 4652              		.loc 1 338 0
 4653 0064 80090008 		lwz 0,8(9)
 4654 0068 7C0903A6 		mtctr 0
 4655 006c 4E800421 		bctrl
 4656              	.LVL404:
 4657              	.LBE2469:
 4658              	.LBE2470:
 4659              	.LBB2471:
 4660              	.LBB2472:
 4661              		.loc 10 528 0
 4662 0070 387E0004 		addi 3,30,4
 4663 0074 38810008 		addi 4,1,8
 4664 0078 48000001 		bl _ZNSt8_Rb_treeIPN7sigslot12_signal_baseINS0_15single_threadedEEES4_St9_IdentityIS4_ESt4lessIS4_
 4665              	.LVL405:
 4666              	.LBE2472:
 4667              	.LBE2471:
 4668              	.LBB2473:
 4669              	.LBB2474:
 4670              	.LBB2475:
 4671              		.loc 1 343 0
 4672 007c 813E0000 		lwz 9,0(30)
 4673 0080 7FC3F378 		mr 3,30
 4674 0084 8009000C 		lwz 0,12(9)
 4675 0088 7C0903A6 		mtctr 0
 4676 008c 4E800421 		bctrl
 4677              	.LVL406:
 4678              	.LBE2475:
 4679              	.LBE2474:
 4680              	.LBE2473:
 4681              	.LBE2476:
 4682              	.LBE2477:
 4683              		.loc 1 837 0
 4684 0090 807F0008 		lwz 3,8(31)
 4685 0094 2F830000 		cmpwi 7,3,0
 4686 0098 419E0014 		beq- 7,.L333
 4687 009c 81230000 		lwz 9,0(3)
 4688 00a0 80090004 		lwz 0,4(9)
 4689 00a4 7C0903A6 		mtctr 0
 4690 00a8 4E800421 		bctrl
 4691              	.LEHE29:
 4692              	.L333:
 4693              	.LVL407:
 4694              	.LBB2478:
 4695              	.LBB2479:
 4696              		.loc 4 234 0
 4697 00ac 83FF0000 		lwz 31,0(31)
 4698              	.LVL408:
 4699              	.LBE2479:
 4700              	.LBE2478:
 4701              		.loc 1 834 0
 4702 00b0 7F9DF800 		cmpw 7,29,31
 4703 00b4 409EFF90 		bne+ 7,.L368
 4704              	.LBE2495:
 4705              		.loc 3 144 0
 4706 00b8 83FC0004 		lwz 31,4(28)
 4707              	.LVL409:
 4708              	.LBB2496:
 4709              	.LBB2480:
 4710              	.LBB2481:
 4711              		.loc 4 1162 0
 4712 00bc 7F9DF800 		cmpw 7,29,31
 4713 00c0 40BE000C 		bne+ 7,.L370
 4714 00c4 48000024 		b .L331
 4715              	.LVL410:
 4716              	.L363:
 4717              		.loc 4 1163 0
 4718 00c8 7FDFF378 		mr 31,30
 4719              	.LVL411:
 4720              	.L370:
 4721              	.LBB2482:
 4722              	.LBB2483:
 4723              		.loc 11 112 0
 4724 00cc 83DF0000 		lwz 30,0(31)
 4725              	.LVL412:
 4726              	.LBB2484:
 4727              	.LBB2485:
 4728              		.loc 4 1532 0
 4729 00d0 7FE3FB78 		mr 3,31
 4730 00d4 48000001 		bl _ZNSt8__detail15_List_node_base9_M_unhookEv
 4731              	.LVL413:
 4732              	.LBB2486:
 4733              	.LBB2487:
 4734              	.LBB2488:
 4735              		.loc 8 98 0
 4736 00d8 7FE3FB78 		mr 3,31
 4737 00dc 48000001 		bl _ZdlPv
 4738              	.LVL414:
 4739              	.LBE2488:
 4740              	.LBE2487:
 4741              	.LBE2486:
 4742              	.LBE2485:
 4743              	.LBE2484:
 4744              	.LBE2483:
 4745              	.LBE2482:
 4746              		.loc 4 1162 0
 4747 00e0 7F9DF000 		cmpw 7,29,30
 4748 00e4 409EFFE4 		bne+ 7,.L363
 4749              	.LVL415:
 4750              	.L331:
 4751              	.LBE2481:
 4752              	.LBE2480:
 4753              	.LBB2489:
 4754              	.LBB2490:
 4755              	.LBB2491:
 4756              		.loc 1 343 0
 4757 00e8 813C0000 		lwz 9,0(28)
 4758 00ec 7F83E378 		mr 3,28
 4759 00f0 8009000C 		lwz 0,12(9)
 4760 00f4 7C0903A6 		mtctr 0
 4761              	.LEHB30:
 4762 00f8 4E800421 		bctrl
 4763              	.LEHE30:
 4764              	.LVL416:
 4765              	.LBE2491:
 4766              	.LBE2490:
 4767              	.LBE2489:
 4768              	.LBE2496:
 4769              	.LBE2461:
 4770              	.LBB2498:
 4771              	.LBB2499:
 4772              	.LBB2500:
 4773              	.LBB2501:
 4774              	.LBB2502:
 4775              	.LBB2503:
 4776              		.loc 11 70 0
 4777 00fc 807C0004 		lwz 3,4(28)
 4778              	.LVL417:
 4779              		.loc 11 71 0
 4780 0100 7F83E800 		cmpw 7,3,29
 4781 0104 40BE000C 		bne+ 7,.L372
 4782 0108 48000018 		b .L349
 4783              	.LVL418:
 4784              	.L364:
 4785              		.loc 11 74 0
 4786 010c 7FE3FB78 		mr 3,31
 4787              	.LVL419:
 4788              	.L372:
 4789              	.LBB2504:
 4790 0110 83E30000 		lwz 31,0(3)
 4791              	.LVL420:
 4792              	.LBB2505:
 4793              	.LBB2506:
 4794              	.LBB2507:
 4795              		.loc 8 98 0
 4796 0114 48000001 		bl _ZdlPv
 4797              	.LVL421:
 4798              	.LBE2507:
 4799              	.LBE2506:
 4800              	.LBE2505:
 4801              	.LBE2504:
 4802              		.loc 11 71 0
 4803 0118 7F9FE800 		cmpw 7,31,29
 4804 011c 409EFFF0 		bne+ 7,.L364
 4805              	.LVL422:
 4806              	.L349:
 4807              	.LBE2503:
 4808              	.LBE2502:
 4809              	.LBE2501:
 4810              	.LBE2500:
 4811              	.LBE2499:
 4812              	.LBE2498:
 4813              	.LBB2508:
 4814              	.LBB2509:
 4815              	.LBB2510:
 4816              	.LBB2511:
 4817              	.LBB2512:
 4818              	.LBB2513:
 4819              		.loc 1 105 0
 4820 0120 3D200000 		lis 9,_ZTVN7sigslot15single_threadedE+8@ha
 4821              	.LBE2513:
 4822              	.LBE2512:
 4823              	.LBE2511:
 4824              	.LBE2510:
 4825              	.LBE2509:
 4826              	.LBE2508:
 4827              	.LBE2544:
 4828              		.loc 1 826 0
 4829 0124 83A1001C 		lwz 29,28(1)
 4830              	.LVL423:
 4831              	.LBB2545:
 4832              	.LBB2524:
 4833              	.LBB2522:
 4834              	.LBB2520:
 4835              	.LBB2518:
 4836              	.LBB2516:
 4837              	.LBB2514:
 4838              		.loc 1 105 0
 4839 0128 38090008 		la 0,_ZTVN7sigslot15single_threadedE+8@l(9)
 4840              	.LBE2514:
 4841              	.LBE2516:
 4842              	.LBE2518:
 4843              	.LBE2520:
 4844              	.LBE2522:
 4845              	.LBE2524:
 4846              	.LBE2545:
 4847              		.loc 1 826 0
 4848 012c 83C10020 		lwz 30,32(1)
 4849              	.LBB2546:
 4850              	.LBB2525:
 4851              	.LBB2523:
 4852              	.LBB2521:
 4853              	.LBB2519:
 4854              	.LBB2517:
 4855              	.LBB2515:
 4856              		.loc 1 105 0
 4857 0130 901C0000 		stw 0,0(28)
 4858              	.LBE2515:
 4859              	.LBE2517:
 4860              	.LBE2519:
 4861              	.LBE2521:
 4862              	.LBE2523:
 4863              	.LBE2525:
 4864              	.LBE2546:
 4865              		.loc 1 826 0
 4866 0134 8001002C 		lwz 0,44(1)
 4867 0138 83810018 		lwz 28,24(1)
 4868              	.LVL424:
 4869 013c 7C0803A6 		mtlr 0
 4870 0140 83E10024 		lwz 31,36(1)
 4871 0144 38210028 		addi 1,1,40
 4872              		.cfi_remember_state
 4873              	.LCFI59:
 4874              		.cfi_def_cfa_offset 0
 4875              		.cfi_restore 31
 4876              		.cfi_restore 30
 4877              		.cfi_restore 29
 4878              		.cfi_restore 28
 4879 0148 4E800020 		blr
 4880              	.LVL425:
 4881              	.L366:
 4882              	.LCFI60:
 4883              		.cfi_restore_state
 4884 014c 7C7F1B78 		mr 31,3
 4885              	.L341:
 4886              	.LVL426:
 4887              	.LBB2547:
 4888              	.LBB2526:
 4889              	.LBB2527:
 4890              	.LBB2528:
 4891              	.LBB2529:
 4892              	.LBB2530:
 4893              	.LBB2531:
 4894              		.loc 11 70 0
 4895 0150 807C0004 		lwz 3,4(28)
 4896              	.LVL427:
 4897              		.loc 11 71 0
 4898 0154 7F83E800 		cmpw 7,3,29
 4899 0158 419E0038 		beq- 7,.L360
 4900              	.LVL428:
 4901              	.L373:
 4902              	.LBB2532:
 4903              		.loc 11 74 0
 4904 015c 83C30000 		lwz 30,0(3)
 4905              	.LVL429:
 4906              	.LBB2533:
 4907              	.LBB2534:
 4908              	.LBB2535:
 4909              		.loc 8 98 0
 4910 0160 48000001 		bl _ZdlPv
 4911              	.LVL430:
 4912              	.LBE2535:
 4913              	.LBE2534:
 4914              	.LBE2533:
 4915              	.LBE2532:
 4916              		.loc 11 71 0
 4917 0164 7F9EE800 		cmpw 7,30,29
 4918 0168 419E0028 		beq- 7,.L360
 4919              		.loc 11 74 0
 4920 016c 7FC3F378 		mr 3,30
 4921 0170 4BFFFFEC 		b .L373
 4922              	.LVL431:
 4923              	.L367:
 4924              	.LBE2531:
 4925              	.LBE2530:
 4926              	.LBE2529:
 4927              	.LBE2528:
 4928              	.LBE2527:
 4929              	.LBE2526:
 4930              	.LBB2536:
 4931              	.LBB2497:
 4932              	.LBB2492:
 4933              	.LBB2493:
 4934              	.LBB2494:
 4935              		.loc 1 343 0
 4936 0174 813C0000 		lwz 9,0(28)
 4937 0178 7C7F1B78 		mr 31,3
 4938              	.LVL432:
 4939 017c 7F83E378 		mr 3,28
 4940 0180 8009000C 		lwz 0,12(9)
 4941 0184 7C0903A6 		mtctr 0
 4942 0188 4E800421 		bctrl
 4943 018c 4BFFFFC4 		b .L341
 4944              	.LVL433:
 4945              	.L360:
 4946              	.LBE2494:
 4947              	.LBE2493:
 4948              	.LBE2492:
 4949              	.LBE2497:
 4950              	.LBE2536:
 4951              	.LBB2537:
 4952              	.LBB2538:
 4953              	.LBB2539:
 4954              	.LBB2540:
 4955              	.LBB2541:
 4956              	.LBB2542:
 4957              		.loc 1 105 0
 4958 0190 3D200000 		lis 9,_ZTVN7sigslot15single_threadedE+8@ha
 4959 0194 7FE3FB78 		mr 3,31
 4960 0198 38090008 		la 0,_ZTVN7sigslot15single_threadedE+8@l(9)
 4961 019c 901C0000 		stw 0,0(28)
 4962              	.LEHB31:
 4963 01a0 48000001 		bl _Unwind_Resume
 4964              	.LEHE31:
 4965              	.LBE2542:
 4966              	.LBE2541:
 4967              	.LBE2540:
 4968              	.LBE2539:
 4969              	.LBE2538:
 4970              	.LBE2537:
 4971              	.LBE2547:
 4972              		.cfi_endproc
 4973              	.LFE1645:
 4974              		.section	.gcc_except_table
 4975              	.LLSDA1645:
 4976 00a5 FF       		.byte	0xff
 4977 00a6 FF       		.byte	0xff
 4978 00a7 01       		.byte	0x1
 4979 00a8 15       		.uleb128 .LLSDACSE1645-.LLSDACSB1645
 4980              	.LLSDACSB1645:
 4981 00a9 30       		.uleb128 .LEHB28-.LFB1645
 4982 00aa 04       		.uleb128 .LEHE28-.LEHB28
 4983 00ab CC02     		.uleb128 .L366-.LFB1645
 4984 00ad 00       		.uleb128 0
 4985 00ae 54       		.uleb128 .LEHB29-.LFB1645
 4986 00af 58       		.uleb128 .LEHE29-.LEHB29
 4987 00b0 F402     		.uleb128 .L367-.LFB1645
 4988 00b2 00       		.uleb128 0
 4989 00b3 F801     		.uleb128 .LEHB30-.LFB1645
 4990 00b5 04       		.uleb128 .LEHE30-.LEHB30
 4991 00b6 CC02     		.uleb128 .L366-.LFB1645
 4992 00b8 00       		.uleb128 0
 4993 00b9 A003     		.uleb128 .LEHB31-.LFB1645
 4994 00bb 04       		.uleb128 .LEHE31-.LEHB31
 4995 00bc 00       		.uleb128 0
 4996 00bd 00       		.uleb128 0
 4997              	.LLSDACSE1645:
 4998              		.section	.text._ZN7sigslot13_signal_base2IP10GuiElementbNS_15single_threadedEED2Ev,"axG",@progbits
 4999              		.size	_ZN7sigslot13_signal_base2IP10GuiElementbNS_15single_threadedEED2Ev, .-_ZN7sigslot13_signal_
 5000              		.section	.text._ZN7sigslot7signal2IP10GuiElementbNS_15single_threadedEED0Ev,"axG",@progbits,_ZN7si
 5001              		.align 2
 5002              		.weak	_ZN7sigslot7signal2IP10GuiElementbNS_15single_threadedEED0Ev
 5003              		.type	_ZN7sigslot7signal2IP10GuiElementbNS_15single_threadedEED0Ev, @function
 5004              	_ZN7sigslot7signal2IP10GuiElementbNS_15single_threadedEED0Ev:
 5005              	.LFB1617:
 5006              		.loc 1 2235 0
 5007              		.cfi_startproc
 5008              		.cfi_personality 0,__gxx_personality_v0
 5009              		.cfi_lsda 0,.LLSDA1617
 5010              	.LVL434:
 5011 0000 7C0802A6 		mflr 0
 5012 0004 9421FFD8 		stwu 1,-40(1)
 5013              	.LCFI61:
 5014              		.cfi_def_cfa_offset 40
 5015              		.cfi_register 65, 0
 5016              	.LBB2646:
 5017              	.LBB2647:
 5018              	.LBB2648:
 5019              	.LBB2649:
 5020              	.LBB2650:
 5021              	.LBB2651:
 5022              		.loc 1 826 0
 5023 0008 3D200000 		lis 9,_ZTVN7sigslot13_signal_base2IP10GuiElementbNS_15single_threadedEEE+8@ha
 5024              	.LBE2651:
 5025              	.LBE2650:
 5026              	.LBE2649:
 5027              	.LBE2648:
 5028              	.LBE2647:
 5029              	.LBE2646:
 5030              		.loc 1 2235 0
 5031 000c 93810018 		stw 28,24(1)
 5032 0010 7C7C1B78 		mr 28,3
 5033              		.cfi_offset 28, -16
 5034              	.LVL435:
 5035 0014 9001002C 		stw 0,44(1)
 5036              	.LBB2748:
 5037              	.LBB2744:
 5038              	.LBB2740:
 5039              	.LBB2736:
 5040              	.LBB2732:
 5041              	.LBB2728:
 5042              		.loc 1 826 0
 5043 0018 38090008 		la 0,_ZTVN7sigslot13_signal_base2IP10GuiElementbNS_15single_threadedEEE+8@l(9)
 5044              		.cfi_offset 65, 4
 5045              	.LBE2728:
 5046              	.LBE2732:
 5047              	.LBE2736:
 5048              	.LBE2740:
 5049              	.LBE2744:
 5050              	.LBE2748:
 5051              		.loc 1 2235 0
 5052 001c 93A1001C 		stw 29,28(1)
 5053 0020 3BA30004 		addi 29,3,4
 5054              		.cfi_offset 29, -12
 5055 0024 93C10020 		stw 30,32(1)
 5056 0028 93E10024 		stw 31,36(1)
 5057              	.LBB2749:
 5058              	.LBB2745:
 5059              	.LBB2741:
 5060              	.LBB2737:
 5061              	.LBB2733:
 5062              	.LBB2729:
 5063              		.loc 1 826 0
 5064 002c 90030000 		stw 0,0(3)
 5065              	.LVL436:
 5066              	.LEHB32:
 5067              	.LBB2652:
 5068              	.LBB2653:
 5069              	.LBB2654:
 5070              	.LBB2655:
 5071              		.loc 1 338 0
 5072              		.cfi_offset 31, -4
 5073              		.cfi_offset 30, -8
 5074 0030 48000001 		bl _ZN7sigslot15single_threaded4lockEv
 5075              	.LEHE32:
 5076              	.LVL437:
 5077              	.LBE2655:
 5078              	.LBE2654:
 5079              	.LBE2653:
 5080              		.loc 3 144 0
 5081 0034 7F9DE378 		mr 29,28
 5082              	.LVL438:
 5083 0038 87FD0004 		lwzu 31,4(29)
 5084              	.LVL439:
 5085              	.LBB2686:
 5086              		.loc 1 834 0
 5087 003c 7F9FE800 		cmpw 7,31,29
 5088 0040 419E00A8 		beq- 7,.L375
 5089              	.LVL440:
 5090              	.L414:
 5091              		.loc 1 836 0
 5092 0044 807F0008 		lwz 3,8(31)
 5093 0048 81230000 		lwz 9,0(3)
 5094 004c 80090008 		lwz 0,8(9)
 5095 0050 7C0903A6 		mtctr 0
 5096              	.LEHB33:
 5097 0054 4E800421 		bctrl
 5098              	.LBB2656:
 5099              	.LBB2657:
 5100              	.LBB2658:
 5101              	.LBB2659:
 5102              		.loc 1 338 0
 5103 0058 81230000 		lwz 9,0(3)
 5104              	.LBE2659:
 5105              	.LBE2658:
 5106              	.LBE2657:
 5107              	.LBE2656:
 5108              		.loc 1 836 0
 5109 005c 7C7E1B78 		mr 30,3
 5110              	.LVL441:
 5111 0060 93810008 		stw 28,8(1)
 5112              	.LVL442:
 5113              	.LBB2668:
 5114              	.LBB2667:
 5115              	.LBB2661:
 5116              	.LBB2660:
 5117              		.loc 1 338 0
 5118 0064 80090008 		lwz 0,8(9)
 5119 0068 7C0903A6 		mtctr 0
 5120 006c 4E800421 		bctrl
 5121              	.LVL443:
 5122              	.LBE2660:
 5123              	.LBE2661:
 5124              	.LBB2662:
 5125              	.LBB2663:
 5126              		.loc 10 528 0
 5127 0070 387E0004 		addi 3,30,4
 5128 0074 38810008 		addi 4,1,8
 5129 0078 48000001 		bl _ZNSt8_Rb_treeIPN7sigslot12_signal_baseINS0_15single_threadedEEES4_St9_IdentityIS4_ESt4lessIS4_
 5130              	.LVL444:
 5131              	.LBE2663:
 5132              	.LBE2662:
 5133              	.LBB2664:
 5134              	.LBB2665:
 5135              	.LBB2666:
 5136              		.loc 1 343 0
 5137 007c 813E0000 		lwz 9,0(30)
 5138 0080 7FC3F378 		mr 3,30
 5139 0084 8009000C 		lwz 0,12(9)
 5140 0088 7C0903A6 		mtctr 0
 5141 008c 4E800421 		bctrl
 5142              	.LVL445:
 5143              	.LBE2666:
 5144              	.LBE2665:
 5145              	.LBE2664:
 5146              	.LBE2667:
 5147              	.LBE2668:
 5148              		.loc 1 837 0
 5149 0090 807F0008 		lwz 3,8(31)
 5150 0094 2F830000 		cmpwi 7,3,0
 5151 0098 419E0014 		beq- 7,.L377
 5152 009c 81230000 		lwz 9,0(3)
 5153 00a0 80090004 		lwz 0,4(9)
 5154 00a4 7C0903A6 		mtctr 0
 5155 00a8 4E800421 		bctrl
 5156              	.LEHE33:
 5157              	.L377:
 5158              	.LVL446:
 5159              	.LBB2669:
 5160              	.LBB2670:
 5161              		.loc 4 234 0
 5162 00ac 83FF0000 		lwz 31,0(31)
 5163              	.LVL447:
 5164              	.LBE2670:
 5165              	.LBE2669:
 5166              		.loc 1 834 0
 5167 00b0 7F9DF800 		cmpw 7,29,31
 5168 00b4 409EFF90 		bne+ 7,.L414
 5169              	.LBE2686:
 5170              		.loc 3 144 0
 5171 00b8 83FC0004 		lwz 31,4(28)
 5172              	.LVL448:
 5173              	.LBB2687:
 5174              	.LBB2671:
 5175              	.LBB2672:
 5176              		.loc 4 1162 0
 5177 00bc 7F9DF800 		cmpw 7,29,31
 5178 00c0 40BE000C 		bne+ 7,.L416
 5179 00c4 48000024 		b .L375
 5180              	.LVL449:
 5181              	.L409:
 5182              		.loc 4 1163 0
 5183 00c8 7FDFF378 		mr 31,30
 5184              	.LVL450:
 5185              	.L416:
 5186              	.LBB2673:
 5187              	.LBB2674:
 5188              		.loc 11 112 0
 5189 00cc 83DF0000 		lwz 30,0(31)
 5190              	.LVL451:
 5191              	.LBB2675:
 5192              	.LBB2676:
 5193              		.loc 4 1532 0
 5194 00d0 7FE3FB78 		mr 3,31
 5195 00d4 48000001 		bl _ZNSt8__detail15_List_node_base9_M_unhookEv
 5196              	.LVL452:
 5197              	.LBB2677:
 5198              	.LBB2678:
 5199              	.LBB2679:
 5200              		.loc 8 98 0
 5201 00d8 7FE3FB78 		mr 3,31
 5202 00dc 48000001 		bl _ZdlPv
 5203              	.LVL453:
 5204              	.LBE2679:
 5205              	.LBE2678:
 5206              	.LBE2677:
 5207              	.LBE2676:
 5208              	.LBE2675:
 5209              	.LBE2674:
 5210              	.LBE2673:
 5211              		.loc 4 1162 0
 5212 00e0 7F9DF000 		cmpw 7,29,30
 5213 00e4 409EFFE4 		bne+ 7,.L409
 5214              	.LVL454:
 5215              	.L375:
 5216              	.LBE2672:
 5217              	.LBE2671:
 5218              	.LBB2680:
 5219              	.LBB2681:
 5220              	.LBB2682:
 5221              		.loc 1 343 0
 5222 00e8 813C0000 		lwz 9,0(28)
 5223 00ec 7F83E378 		mr 3,28
 5224 00f0 8009000C 		lwz 0,12(9)
 5225 00f4 7C0903A6 		mtctr 0
 5226              	.LEHB34:
 5227 00f8 4E800421 		bctrl
 5228              	.LEHE34:
 5229              	.LBE2682:
 5230              	.LBE2681:
 5231              	.LBE2680:
 5232              	.LBE2687:
 5233              	.LBE2652:
 5234              	.LBB2689:
 5235              	.LBB2690:
 5236              	.LBB2691:
 5237              	.LBB2692:
 5238              	.LBB2693:
 5239              	.LBB2694:
 5240              		.loc 11 70 0
 5241 00fc 807C0004 		lwz 3,4(28)
 5242              	.LVL455:
 5243              		.loc 11 71 0
 5244 0100 7F83E800 		cmpw 7,3,29
 5245 0104 40BE000C 		bne+ 7,.L418
 5246 0108 48000018 		b .L393
 5247              	.LVL456:
 5248              	.L410:
 5249              		.loc 11 74 0
 5250 010c 7FE3FB78 		mr 3,31
 5251              	.LVL457:
 5252              	.L418:
 5253              	.LBB2695:
 5254 0110 83E30000 		lwz 31,0(3)
 5255              	.LVL458:
 5256              	.LBB2696:
 5257              	.LBB2697:
 5258              	.LBB2698:
 5259              		.loc 8 98 0
 5260 0114 48000001 		bl _ZdlPv
 5261              	.LVL459:
 5262              	.LBE2698:
 5263              	.LBE2697:
 5264              	.LBE2696:
 5265              	.LBE2695:
 5266              		.loc 11 71 0
 5267 0118 7F9FE800 		cmpw 7,31,29
 5268 011c 409EFFF0 		bne+ 7,.L410
 5269              	.LVL460:
 5270              	.L393:
 5271              	.LBE2694:
 5272              	.LBE2693:
 5273              	.LBE2692:
 5274              	.LBE2691:
 5275              	.LBE2690:
 5276              	.LBE2689:
 5277              	.LBB2699:
 5278              	.LBB2700:
 5279              	.LBB2701:
 5280              	.LBB2702:
 5281              	.LBB2703:
 5282              	.LBB2704:
 5283              		.loc 1 105 0
 5284 0120 3D200000 		lis 9,_ZTVN7sigslot15single_threadedE+8@ha
 5285              	.LBE2704:
 5286              	.LBE2703:
 5287              	.LBE2702:
 5288              	.LBE2701:
 5289              	.LBE2700:
 5290              	.LBE2699:
 5291              	.LBE2729:
 5292              	.LBE2733:
 5293              	.LBE2737:
 5294              	.LBE2741:
 5295              	.LBE2745:
 5296              	.LBE2749:
 5297              		.loc 1 2238 0
 5298 0124 7F83E378 		mr 3,28
 5299              	.LBB2750:
 5300              	.LBB2746:
 5301              	.LBB2742:
 5302              	.LBB2738:
 5303              	.LBB2734:
 5304              	.LBB2730:
 5305              	.LBB2710:
 5306              	.LBB2709:
 5307              	.LBB2708:
 5308              	.LBB2707:
 5309              	.LBB2706:
 5310              	.LBB2705:
 5311              		.loc 1 105 0
 5312 0128 38090008 		la 0,_ZTVN7sigslot15single_threadedE+8@l(9)
 5313 012c 901C0000 		stw 0,0(28)
 5314              	.LBE2705:
 5315              	.LBE2706:
 5316              	.LBE2707:
 5317              	.LBE2708:
 5318              	.LBE2709:
 5319              	.LBE2710:
 5320              	.LBE2730:
 5321              	.LBE2734:
 5322              	.LBE2738:
 5323              	.LBE2742:
 5324              	.LBE2746:
 5325              	.LBE2750:
 5326              		.loc 1 2238 0
 5327 0130 48000001 		bl _ZdlPv
 5328 0134 8001002C 		lwz 0,44(1)
 5329 0138 83810018 		lwz 28,24(1)
 5330              	.LVL461:
 5331 013c 7C0803A6 		mtlr 0
 5332 0140 83A1001C 		lwz 29,28(1)
 5333              	.LVL462:
 5334 0144 83C10020 		lwz 30,32(1)
 5335 0148 83E10024 		lwz 31,36(1)
 5336 014c 38210028 		addi 1,1,40
 5337              		.cfi_remember_state
 5338              	.LCFI62:
 5339              		.cfi_def_cfa_offset 0
 5340              		.cfi_restore 31
 5341              		.cfi_restore 30
 5342              		.cfi_restore 29
 5343              		.cfi_restore 28
 5344 0150 4E800020 		blr
 5345              	.LVL463:
 5346              	.L412:
 5347              	.LCFI63:
 5348              		.cfi_restore_state
 5349 0154 7C7F1B78 		mr 31,3
 5350              	.L385:
 5351              	.LBB2751:
 5352              	.LBB2747:
 5353              	.LBB2743:
 5354              	.LBB2739:
 5355              	.LBB2735:
 5356              	.LBB2731:
 5357              	.LBB2711:
 5358              	.LBB2712:
 5359              	.LBB2713:
 5360              	.LBB2714:
 5361              	.LBB2715:
 5362              	.LBB2716:
 5363              		.loc 11 70 0
 5364 0158 807C0004 		lwz 3,4(28)
 5365              	.LVL464:
 5366              		.loc 11 71 0
 5367 015c 7F83E800 		cmpw 7,3,29
 5368 0160 419E0038 		beq- 7,.L402
 5369              	.LVL465:
 5370              	.L419:
 5371              	.LBB2717:
 5372              		.loc 11 74 0
 5373 0164 83C30000 		lwz 30,0(3)
 5374              	.LVL466:
 5375              	.LBB2718:
 5376              	.LBB2719:
 5377              	.LBB2720:
 5378              		.loc 8 98 0
 5379 0168 48000001 		bl _ZdlPv
 5380              	.LVL467:
 5381              	.LBE2720:
 5382              	.LBE2719:
 5383              	.LBE2718:
 5384              	.LBE2717:
 5385              		.loc 11 71 0
 5386 016c 7F9EE800 		cmpw 7,30,29
 5387 0170 419E0028 		beq- 7,.L402
 5388              		.loc 11 74 0
 5389 0174 7FC3F378 		mr 3,30
 5390 0178 4BFFFFEC 		b .L419
 5391              	.LVL468:
 5392              	.L413:
 5393              	.LBE2716:
 5394              	.LBE2715:
 5395              	.LBE2714:
 5396              	.LBE2713:
 5397              	.LBE2712:
 5398              	.LBE2711:
 5399              	.LBB2721:
 5400              	.LBB2688:
 5401              	.LBB2683:
 5402              	.LBB2684:
 5403              	.LBB2685:
 5404              		.loc 1 343 0
 5405 017c 813C0000 		lwz 9,0(28)
 5406 0180 7C7F1B78 		mr 31,3
 5407              	.LVL469:
 5408 0184 7F83E378 		mr 3,28
 5409 0188 8009000C 		lwz 0,12(9)
 5410 018c 7C0903A6 		mtctr 0
 5411 0190 4E800421 		bctrl
 5412 0194 4BFFFFC4 		b .L385
 5413              	.LVL470:
 5414              	.L402:
 5415              	.LBE2685:
 5416              	.LBE2684:
 5417              	.LBE2683:
 5418              	.LBE2688:
 5419              	.LBE2721:
 5420              	.LBB2722:
 5421              	.LBB2723:
 5422              	.LBB2724:
 5423              	.LBB2725:
 5424              	.LBB2726:
 5425              	.LBB2727:
 5426              		.loc 1 105 0
 5427 0198 3D200000 		lis 9,_ZTVN7sigslot15single_threadedE+8@ha
 5428 019c 7FE3FB78 		mr 3,31
 5429 01a0 38090008 		la 0,_ZTVN7sigslot15single_threadedE+8@l(9)
 5430 01a4 901C0000 		stw 0,0(28)
 5431              	.LEHB35:
 5432 01a8 48000001 		bl _Unwind_Resume
 5433              	.LEHE35:
 5434              	.LBE2727:
 5435              	.LBE2726:
 5436              	.LBE2725:
 5437              	.LBE2724:
 5438              	.LBE2723:
 5439              	.LBE2722:
 5440              	.LBE2731:
 5441              	.LBE2735:
 5442              	.LBE2739:
 5443              	.LBE2743:
 5444              	.LBE2747:
 5445              	.LBE2751:
 5446              		.cfi_endproc
 5447              	.LFE1617:
 5448              		.section	.gcc_except_table
 5449              	.LLSDA1617:
 5450 00be FF       		.byte	0xff
 5451 00bf FF       		.byte	0xff
 5452 00c0 01       		.byte	0x1
 5453 00c1 15       		.uleb128 .LLSDACSE1617-.LLSDACSB1617
 5454              	.LLSDACSB1617:
 5455 00c2 30       		.uleb128 .LEHB32-.LFB1617
 5456 00c3 04       		.uleb128 .LEHE32-.LEHB32
 5457 00c4 D402     		.uleb128 .L412-.LFB1617
 5458 00c6 00       		.uleb128 0
 5459 00c7 54       		.uleb128 .LEHB33-.LFB1617
 5460 00c8 58       		.uleb128 .LEHE33-.LEHB33
 5461 00c9 FC02     		.uleb128 .L413-.LFB1617
 5462 00cb 00       		.uleb128 0
 5463 00cc F801     		.uleb128 .LEHB34-.LFB1617
 5464 00ce 04       		.uleb128 .LEHE34-.LEHB34
 5465 00cf D402     		.uleb128 .L412-.LFB1617
 5466 00d1 00       		.uleb128 0
 5467 00d2 A803     		.uleb128 .LEHB35-.LFB1617
 5468 00d4 04       		.uleb128 .LEHE35-.LEHB35
 5469 00d5 00       		.uleb128 0
 5470 00d6 00       		.uleb128 0
 5471              	.LLSDACSE1617:
 5472              		.section	.text._ZN7sigslot7signal2IP10GuiElementbNS_15single_threadedEED0Ev,"axG",@progbits,_ZN7si
 5473              		.size	_ZN7sigslot7signal2IP10GuiElementbNS_15single_threadedEED0Ev, .-_ZN7sigslot7signal2IP10GuiEl
 5474              		.section	.text._ZN7sigslot13_signal_base2IP10GuiElementbNS_15single_threadedEED0Ev,"axG",@progbits
 5475              		.align 2
 5476              		.weak	_ZN7sigslot13_signal_base2IP10GuiElementbNS_15single_threadedEED0Ev
 5477              		.type	_ZN7sigslot13_signal_base2IP10GuiElementbNS_15single_threadedEED0Ev, @function
 5478              	_ZN7sigslot13_signal_base2IP10GuiElementbNS_15single_threadedEED0Ev:
 5479              	.LFB1647:
 5480              		.loc 1 823 0
 5481              		.cfi_startproc
 5482              		.cfi_personality 0,__gxx_personality_v0
 5483              		.cfi_lsda 0,.LLSDA1647
 5484              	.LVL471:
 5485 0000 7C0802A6 		mflr 0
 5486 0004 9421FFD8 		stwu 1,-40(1)
 5487              	.LCFI64:
 5488              		.cfi_def_cfa_offset 40
 5489              		.cfi_register 65, 0
 5490              	.LBB2847:
 5491              	.LBB2848:
 5492              	.LBB2849:
 5493              		.loc 1 826 0
 5494 0008 3D200000 		lis 9,_ZTVN7sigslot13_signal_base2IP10GuiElementbNS_15single_threadedEEE+8@ha
 5495              	.LBE2849:
 5496              	.LBE2848:
 5497              	.LBE2847:
 5498              		.loc 1 823 0
 5499 000c 93810018 		stw 28,24(1)
 5500 0010 7C7C1B78 		mr 28,3
 5501              		.cfi_offset 28, -16
 5502              	.LVL472:
 5503 0014 9001002C 		stw 0,44(1)
 5504              	.LBB2934:
 5505              	.LBB2930:
 5506              	.LBB2926:
 5507              		.loc 1 826 0
 5508 0018 38090008 		la 0,_ZTVN7sigslot13_signal_base2IP10GuiElementbNS_15single_threadedEEE+8@l(9)
 5509              		.cfi_offset 65, 4
 5510              	.LBE2926:
 5511              	.LBE2930:
 5512              	.LBE2934:
 5513              		.loc 1 823 0
 5514 001c 93A1001C 		stw 29,28(1)
 5515 0020 3BA30004 		addi 29,3,4
 5516              		.cfi_offset 29, -12
 5517 0024 93C10020 		stw 30,32(1)
 5518 0028 93E10024 		stw 31,36(1)
 5519              	.LBB2935:
 5520              	.LBB2931:
 5521              	.LBB2927:
 5522              		.loc 1 826 0
 5523 002c 90030000 		stw 0,0(3)
 5524              	.LVL473:
 5525              	.LEHB36:
 5526              	.LBB2850:
 5527              	.LBB2851:
 5528              	.LBB2852:
 5529              	.LBB2853:
 5530              		.loc 1 338 0
 5531              		.cfi_offset 31, -4
 5532              		.cfi_offset 30, -8
 5533 0030 48000001 		bl _ZN7sigslot15single_threaded4lockEv
 5534              	.LEHE36:
 5535              	.LVL474:
 5536              	.LBE2853:
 5537              	.LBE2852:
 5538              	.LBE2851:
 5539              		.loc 3 144 0
 5540 0034 7F9DE378 		mr 29,28
 5541              	.LVL475:
 5542 0038 87FD0004 		lwzu 31,4(29)
 5543              	.LVL476:
 5544              	.LBB2884:
 5545              		.loc 1 834 0
 5546 003c 7F9FE800 		cmpw 7,31,29
 5547 0040 419E00A8 		beq- 7,.L421
 5548              	.LVL477:
 5549              	.L459:
 5550              		.loc 1 836 0
 5551 0044 807F0008 		lwz 3,8(31)
 5552 0048 81230000 		lwz 9,0(3)
 5553 004c 80090008 		lwz 0,8(9)
 5554 0050 7C0903A6 		mtctr 0
 5555              	.LEHB37:
 5556 0054 4E800421 		bctrl
 5557              	.LBB2854:
 5558              	.LBB2855:
 5559              	.LBB2856:
 5560              	.LBB2857:
 5561              		.loc 1 338 0
 5562 0058 81230000 		lwz 9,0(3)
 5563              	.LBE2857:
 5564              	.LBE2856:
 5565              	.LBE2855:
 5566              	.LBE2854:
 5567              		.loc 1 836 0
 5568 005c 7C7E1B78 		mr 30,3
 5569              	.LVL478:
 5570 0060 93810008 		stw 28,8(1)
 5571              	.LVL479:
 5572              	.LBB2866:
 5573              	.LBB2865:
 5574              	.LBB2859:
 5575              	.LBB2858:
 5576              		.loc 1 338 0
 5577 0064 80090008 		lwz 0,8(9)
 5578 0068 7C0903A6 		mtctr 0
 5579 006c 4E800421 		bctrl
 5580              	.LVL480:
 5581              	.LBE2858:
 5582              	.LBE2859:
 5583              	.LBB2860:
 5584              	.LBB2861:
 5585              		.loc 10 528 0
 5586 0070 387E0004 		addi 3,30,4
 5587 0074 38810008 		addi 4,1,8
 5588 0078 48000001 		bl _ZNSt8_Rb_treeIPN7sigslot12_signal_baseINS0_15single_threadedEEES4_St9_IdentityIS4_ESt4lessIS4_
 5589              	.LVL481:
 5590              	.LBE2861:
 5591              	.LBE2860:
 5592              	.LBB2862:
 5593              	.LBB2863:
 5594              	.LBB2864:
 5595              		.loc 1 343 0
 5596 007c 813E0000 		lwz 9,0(30)
 5597 0080 7FC3F378 		mr 3,30
 5598 0084 8009000C 		lwz 0,12(9)
 5599 0088 7C0903A6 		mtctr 0
 5600 008c 4E800421 		bctrl
 5601              	.LVL482:
 5602              	.LBE2864:
 5603              	.LBE2863:
 5604              	.LBE2862:
 5605              	.LBE2865:
 5606              	.LBE2866:
 5607              		.loc 1 837 0
 5608 0090 807F0008 		lwz 3,8(31)
 5609 0094 2F830000 		cmpwi 7,3,0
 5610 0098 419E0014 		beq- 7,.L423
 5611 009c 81230000 		lwz 9,0(3)
 5612 00a0 80090004 		lwz 0,4(9)
 5613 00a4 7C0903A6 		mtctr 0
 5614 00a8 4E800421 		bctrl
 5615              	.LEHE37:
 5616              	.L423:
 5617              	.LVL483:
 5618              	.LBB2867:
 5619              	.LBB2868:
 5620              		.loc 4 234 0
 5621 00ac 83FF0000 		lwz 31,0(31)
 5622              	.LVL484:
 5623              	.LBE2868:
 5624              	.LBE2867:
 5625              		.loc 1 834 0
 5626 00b0 7F9DF800 		cmpw 7,29,31
 5627 00b4 409EFF90 		bne+ 7,.L459
 5628              	.LBE2884:
 5629              		.loc 3 144 0
 5630 00b8 83FC0004 		lwz 31,4(28)
 5631              	.LVL485:
 5632              	.LBB2885:
 5633              	.LBB2869:
 5634              	.LBB2870:
 5635              		.loc 4 1162 0
 5636 00bc 7F9DF800 		cmpw 7,29,31
 5637 00c0 40BE000C 		bne+ 7,.L461
 5638 00c4 48000024 		b .L421
 5639              	.LVL486:
 5640              	.L454:
 5641              		.loc 4 1163 0
 5642 00c8 7FDFF378 		mr 31,30
 5643              	.LVL487:
 5644              	.L461:
 5645              	.LBB2871:
 5646              	.LBB2872:
 5647              		.loc 11 112 0
 5648 00cc 83DF0000 		lwz 30,0(31)
 5649              	.LVL488:
 5650              	.LBB2873:
 5651              	.LBB2874:
 5652              		.loc 4 1532 0
 5653 00d0 7FE3FB78 		mr 3,31
 5654 00d4 48000001 		bl _ZNSt8__detail15_List_node_base9_M_unhookEv
 5655              	.LVL489:
 5656              	.LBB2875:
 5657              	.LBB2876:
 5658              	.LBB2877:
 5659              		.loc 8 98 0
 5660 00d8 7FE3FB78 		mr 3,31
 5661 00dc 48000001 		bl _ZdlPv
 5662              	.LVL490:
 5663              	.LBE2877:
 5664              	.LBE2876:
 5665              	.LBE2875:
 5666              	.LBE2874:
 5667              	.LBE2873:
 5668              	.LBE2872:
 5669              	.LBE2871:
 5670              		.loc 4 1162 0
 5671 00e0 7F9DF000 		cmpw 7,29,30
 5672 00e4 409EFFE4 		bne+ 7,.L454
 5673              	.LVL491:
 5674              	.L421:
 5675              	.LBE2870:
 5676              	.LBE2869:
 5677              	.LBB2878:
 5678              	.LBB2879:
 5679              	.LBB2880:
 5680              		.loc 1 343 0
 5681 00e8 813C0000 		lwz 9,0(28)
 5682 00ec 7F83E378 		mr 3,28
 5683 00f0 8009000C 		lwz 0,12(9)
 5684 00f4 7C0903A6 		mtctr 0
 5685              	.LEHB38:
 5686 00f8 4E800421 		bctrl
 5687              	.LEHE38:
 5688              	.LVL492:
 5689              	.LBE2880:
 5690              	.LBE2879:
 5691              	.LBE2878:
 5692              	.LBE2885:
 5693              	.LBE2850:
 5694              	.LBB2887:
 5695              	.LBB2888:
 5696              	.LBB2889:
 5697              	.LBB2890:
 5698              	.LBB2891:
 5699              	.LBB2892:
 5700              		.loc 11 70 0
 5701 00fc 807C0004 		lwz 3,4(28)
 5702              	.LVL493:
 5703              		.loc 11 71 0
 5704 0100 7F83E800 		cmpw 7,3,29
 5705 0104 40BE000C 		bne+ 7,.L463
 5706 0108 48000018 		b .L439
 5707              	.LVL494:
 5708              	.L455:
 5709              		.loc 11 74 0
 5710 010c 7FE3FB78 		mr 3,31
 5711              	.LVL495:
 5712              	.L463:
 5713              	.LBB2893:
 5714 0110 83E30000 		lwz 31,0(3)
 5715              	.LVL496:
 5716              	.LBB2894:
 5717              	.LBB2895:
 5718              	.LBB2896:
 5719              		.loc 8 98 0
 5720 0114 48000001 		bl _ZdlPv
 5721              	.LVL497:
 5722              	.LBE2896:
 5723              	.LBE2895:
 5724              	.LBE2894:
 5725              	.LBE2893:
 5726              		.loc 11 71 0
 5727 0118 7F9FE800 		cmpw 7,31,29
 5728 011c 409EFFF0 		bne+ 7,.L455
 5729              	.LVL498:
 5730              	.L439:
 5731              	.LBE2892:
 5732              	.LBE2891:
 5733              	.LBE2890:
 5734              	.LBE2889:
 5735              	.LBE2888:
 5736              	.LBE2887:
 5737              	.LBB2897:
 5738              	.LBB2898:
 5739              	.LBB2899:
 5740              	.LBB2900:
 5741              	.LBB2901:
 5742              	.LBB2902:
 5743              		.loc 1 105 0
 5744 0120 3D200000 		lis 9,_ZTVN7sigslot15single_threadedE+8@ha
 5745              	.LBE2902:
 5746              	.LBE2901:
 5747              	.LBE2900:
 5748              	.LBE2899:
 5749              	.LBE2898:
 5750              	.LBE2897:
 5751              	.LBE2927:
 5752              	.LBE2931:
 5753              	.LBE2935:
 5754              		.loc 1 826 0
 5755 0124 7F83E378 		mr 3,28
 5756              	.LBB2936:
 5757              	.LBB2932:
 5758              	.LBB2928:
 5759              	.LBB2908:
 5760              	.LBB2907:
 5761              	.LBB2906:
 5762              	.LBB2905:
 5763              	.LBB2904:
 5764              	.LBB2903:
 5765              		.loc 1 105 0
 5766 0128 38090008 		la 0,_ZTVN7sigslot15single_threadedE+8@l(9)
 5767 012c 901C0000 		stw 0,0(28)
 5768              	.LBE2903:
 5769              	.LBE2904:
 5770              	.LBE2905:
 5771              	.LBE2906:
 5772              	.LBE2907:
 5773              	.LBE2908:
 5774              	.LBE2928:
 5775              	.LBE2932:
 5776              	.LBE2936:
 5777              		.loc 1 826 0
 5778 0130 48000001 		bl _ZdlPv
 5779 0134 8001002C 		lwz 0,44(1)
 5780 0138 83810018 		lwz 28,24(1)
 5781              	.LVL499:
 5782 013c 7C0803A6 		mtlr 0
 5783 0140 83A1001C 		lwz 29,28(1)
 5784              	.LVL500:
 5785 0144 83C10020 		lwz 30,32(1)
 5786 0148 83E10024 		lwz 31,36(1)
 5787 014c 38210028 		addi 1,1,40
 5788              		.cfi_remember_state
 5789              	.LCFI65:
 5790              		.cfi_def_cfa_offset 0
 5791              		.cfi_restore 31
 5792              		.cfi_restore 30
 5793              		.cfi_restore 29
 5794              		.cfi_restore 28
 5795 0150 4E800020 		blr
 5796              	.LVL501:
 5797              	.L457:
 5798              	.LCFI66:
 5799              		.cfi_restore_state
 5800 0154 7C7F1B78 		mr 31,3
 5801              	.L431:
 5802              	.LVL502:
 5803              	.LBB2937:
 5804              	.LBB2933:
 5805              	.LBB2929:
 5806              	.LBB2909:
 5807              	.LBB2910:
 5808              	.LBB2911:
 5809              	.LBB2912:
 5810              	.LBB2913:
 5811              	.LBB2914:
 5812              		.loc 11 70 0
 5813 0158 807C0004 		lwz 3,4(28)
 5814              	.LVL503:
 5815              		.loc 11 71 0
 5816 015c 7F83E800 		cmpw 7,3,29
 5817 0160 419E0038 		beq- 7,.L448
 5818              	.LVL504:
 5819              	.L464:
 5820              	.LBB2915:
 5821              		.loc 11 74 0
 5822 0164 83C30000 		lwz 30,0(3)
 5823              	.LVL505:
 5824              	.LBB2916:
 5825              	.LBB2917:
 5826              	.LBB2918:
 5827              		.loc 8 98 0
 5828 0168 48000001 		bl _ZdlPv
 5829              	.LVL506:
 5830              	.LBE2918:
 5831              	.LBE2917:
 5832              	.LBE2916:
 5833              	.LBE2915:
 5834              		.loc 11 71 0
 5835 016c 7F9EE800 		cmpw 7,30,29
 5836 0170 419E0028 		beq- 7,.L448
 5837              		.loc 11 74 0
 5838 0174 7FC3F378 		mr 3,30
 5839 0178 4BFFFFEC 		b .L464
 5840              	.LVL507:
 5841              	.L458:
 5842              	.LBE2914:
 5843              	.LBE2913:
 5844              	.LBE2912:
 5845              	.LBE2911:
 5846              	.LBE2910:
 5847              	.LBE2909:
 5848              	.LBB2919:
 5849              	.LBB2886:
 5850              	.LBB2881:
 5851              	.LBB2882:
 5852              	.LBB2883:
 5853              		.loc 1 343 0
 5854 017c 813C0000 		lwz 9,0(28)
 5855 0180 7C7F1B78 		mr 31,3
 5856              	.LVL508:
 5857 0184 7F83E378 		mr 3,28
 5858 0188 8009000C 		lwz 0,12(9)
 5859 018c 7C0903A6 		mtctr 0
 5860 0190 4E800421 		bctrl
 5861 0194 4BFFFFC4 		b .L431
 5862              	.LVL509:
 5863              	.L448:
 5864              	.LBE2883:
 5865              	.LBE2882:
 5866              	.LBE2881:
 5867              	.LBE2886:
 5868              	.LBE2919:
 5869              	.LBB2920:
 5870              	.LBB2921:
 5871              	.LBB2922:
 5872              	.LBB2923:
 5873              	.LBB2924:
 5874              	.LBB2925:
 5875              		.loc 1 105 0
 5876 0198 3D200000 		lis 9,_ZTVN7sigslot15single_threadedE+8@ha
 5877 019c 7FE3FB78 		mr 3,31
 5878 01a0 38090008 		la 0,_ZTVN7sigslot15single_threadedE+8@l(9)
 5879 01a4 901C0000 		stw 0,0(28)
 5880              	.LEHB39:
 5881 01a8 48000001 		bl _Unwind_Resume
 5882              	.LEHE39:
 5883              	.LBE2925:
 5884              	.LBE2924:
 5885              	.LBE2923:
 5886              	.LBE2922:
 5887              	.LBE2921:
 5888              	.LBE2920:
 5889              	.LBE2929:
 5890              	.LBE2933:
 5891              	.LBE2937:
 5892              		.cfi_endproc
 5893              	.LFE1647:
 5894              		.section	.gcc_except_table
 5895              	.LLSDA1647:
 5896 00d7 FF       		.byte	0xff
 5897 00d8 FF       		.byte	0xff
 5898 00d9 01       		.byte	0x1
 5899 00da 15       		.uleb128 .LLSDACSE1647-.LLSDACSB1647
 5900              	.LLSDACSB1647:
 5901 00db 30       		.uleb128 .LEHB36-.LFB1647
 5902 00dc 04       		.uleb128 .LEHE36-.LEHB36
 5903 00dd D402     		.uleb128 .L457-.LFB1647
 5904 00df 00       		.uleb128 0
 5905 00e0 54       		.uleb128 .LEHB37-.LFB1647
 5906 00e1 58       		.uleb128 .LEHE37-.LEHB37
 5907 00e2 FC02     		.uleb128 .L458-.LFB1647
 5908 00e4 00       		.uleb128 0
 5909 00e5 F801     		.uleb128 .LEHB38-.LFB1647
 5910 00e7 04       		.uleb128 .LEHE38-.LEHB38
 5911 00e8 D402     		.uleb128 .L457-.LFB1647
 5912 00ea 00       		.uleb128 0
 5913 00eb A803     		.uleb128 .LEHB39-.LFB1647
 5914 00ed 04       		.uleb128 .LEHE39-.LEHB39
 5915 00ee 00       		.uleb128 0
 5916 00ef 00       		.uleb128 0
 5917              	.LLSDACSE1647:
 5918              		.section	.text._ZN7sigslot13_signal_base2IP10GuiElementbNS_15single_threadedEED0Ev,"axG",@progbits
 5919              		.size	_ZN7sigslot13_signal_base2IP10GuiElementbNS_15single_threadedEED0Ev, .-_ZN7sigslot13_signal_
 5920              		.section	.text._ZN7sigslot13_signal_base3IP10GuiElementiiNS_15single_threadedEED2Ev,"axG",@progbit
 5921              		.align 2
 5922              		.weak	_ZN7sigslot13_signal_base3IP10GuiElementiiNS_15single_threadedEED2Ev
 5923              		.type	_ZN7sigslot13_signal_base3IP10GuiElementiiNS_15single_threadedEED2Ev, @function
 5924              	_ZN7sigslot13_signal_base3IP10GuiElementiiNS_15single_threadedEED2Ev:
 5925              	.LFB1652:
 5926              		.loc 1 943 0
 5927              		.cfi_startproc
 5928              		.cfi_personality 0,__gxx_personality_v0
 5929              		.cfi_lsda 0,.LLSDA1652
 5930              	.LVL510:
 5931 0000 7C0802A6 		mflr 0
 5932 0004 9421FFD8 		stwu 1,-40(1)
 5933              	.LCFI67:
 5934              		.cfi_def_cfa_offset 40
 5935              		.cfi_register 65, 0
 5936              	.LBB3084:
 5937              		.loc 1 946 0
 5938 0008 3D200000 		lis 9,_ZTVN7sigslot13_signal_base3IP10GuiElementiiNS_15single_threadedEEE+8@ha
 5939              	.LBE3084:
 5940              		.loc 1 943 0
 5941 000c 93810018 		stw 28,24(1)
 5942 0010 7C7C1B78 		mr 28,3
 5943              		.cfi_offset 28, -16
 5944 0014 9001002C 		stw 0,44(1)
 5945              	.LBB3167:
 5946              		.loc 1 946 0
 5947 0018 38090008 		la 0,_ZTVN7sigslot13_signal_base3IP10GuiElementiiNS_15single_threadedEEE+8@l(9)
 5948              		.cfi_offset 65, 4
 5949              	.LBE3167:
 5950              		.loc 1 943 0
 5951 001c 93A1001C 		stw 29,28(1)
 5952 0020 3BA30004 		addi 29,3,4
 5953              		.cfi_offset 29, -12
 5954 0024 93C10020 		stw 30,32(1)
 5955 0028 93E10024 		stw 31,36(1)
 5956              	.LBB3168:
 5957              		.loc 1 946 0
 5958 002c 90030000 		stw 0,0(3)
 5959              	.LVL511:
 5960              	.LEHB40:
 5961              	.LBB3085:
 5962              	.LBB3086:
 5963              	.LBB3087:
 5964              	.LBB3088:
 5965              		.loc 1 338 0
 5966              		.cfi_offset 31, -4
 5967              		.cfi_offset 30, -8
 5968 0030 48000001 		bl _ZN7sigslot15single_threaded4lockEv
 5969              	.LEHE40:
 5970              	.LVL512:
 5971              	.LBE3088:
 5972              	.LBE3087:
 5973              	.LBE3086:
 5974              		.loc 3 144 0
 5975 0034 7F9DE378 		mr 29,28
 5976              	.LVL513:
 5977 0038 87FD0004 		lwzu 31,4(29)
 5978              	.LVL514:
 5979              	.LBB3119:
 5980              		.loc 1 954 0
 5981 003c 7F9FE800 		cmpw 7,31,29
 5982 0040 419E00A8 		beq- 7,.L466
 5983              	.LVL515:
 5984              	.L503:
 5985              		.loc 1 956 0
 5986 0044 807F0008 		lwz 3,8(31)
 5987 0048 81230000 		lwz 9,0(3)
 5988 004c 80090008 		lwz 0,8(9)
 5989 0050 7C0903A6 		mtctr 0
 5990              	.LEHB41:
 5991 0054 4E800421 		bctrl
 5992              	.LBB3089:
 5993              	.LBB3090:
 5994              	.LBB3091:
 5995              	.LBB3092:
 5996              		.loc 1 338 0
 5997 0058 81230000 		lwz 9,0(3)
 5998              	.LBE3092:
 5999              	.LBE3091:
 6000              	.LBE3090:
 6001              	.LBE3089:
 6002              		.loc 1 956 0
 6003 005c 7C7E1B78 		mr 30,3
 6004              	.LVL516:
 6005 0060 93810008 		stw 28,8(1)
 6006              	.LVL517:
 6007              	.LBB3101:
 6008              	.LBB3100:
 6009              	.LBB3094:
 6010              	.LBB3093:
 6011              		.loc 1 338 0
 6012 0064 80090008 		lwz 0,8(9)
 6013 0068 7C0903A6 		mtctr 0
 6014 006c 4E800421 		bctrl
 6015              	.LVL518:
 6016              	.LBE3093:
 6017              	.LBE3094:
 6018              	.LBB3095:
 6019              	.LBB3096:
 6020              		.loc 10 528 0
 6021 0070 387E0004 		addi 3,30,4
 6022 0074 38810008 		addi 4,1,8
 6023 0078 48000001 		bl _ZNSt8_Rb_treeIPN7sigslot12_signal_baseINS0_15single_threadedEEES4_St9_IdentityIS4_ESt4lessIS4_
 6024              	.LVL519:
 6025              	.LBE3096:
 6026              	.LBE3095:
 6027              	.LBB3097:
 6028              	.LBB3098:
 6029              	.LBB3099:
 6030              		.loc 1 343 0
 6031 007c 813E0000 		lwz 9,0(30)
 6032 0080 7FC3F378 		mr 3,30
 6033 0084 8009000C 		lwz 0,12(9)
 6034 0088 7C0903A6 		mtctr 0
 6035 008c 4E800421 		bctrl
 6036              	.LVL520:
 6037              	.LBE3099:
 6038              	.LBE3098:
 6039              	.LBE3097:
 6040              	.LBE3100:
 6041              	.LBE3101:
 6042              		.loc 1 957 0
 6043 0090 807F0008 		lwz 3,8(31)
 6044 0094 2F830000 		cmpwi 7,3,0
 6045 0098 419E0014 		beq- 7,.L468
 6046 009c 81230000 		lwz 9,0(3)
 6047 00a0 80090004 		lwz 0,4(9)
 6048 00a4 7C0903A6 		mtctr 0
 6049 00a8 4E800421 		bctrl
 6050              	.LEHE41:
 6051              	.L468:
 6052              	.LVL521:
 6053              	.LBB3102:
 6054              	.LBB3103:
 6055              		.loc 4 234 0
 6056 00ac 83FF0000 		lwz 31,0(31)
 6057              	.LVL522:
 6058              	.LBE3103:
 6059              	.LBE3102:
 6060              		.loc 1 954 0
 6061 00b0 7F9DF800 		cmpw 7,29,31
 6062 00b4 409EFF90 		bne+ 7,.L503
 6063              	.LBE3119:
 6064              		.loc 3 144 0
 6065 00b8 83FC0004 		lwz 31,4(28)
 6066              	.LVL523:
 6067              	.LBB3120:
 6068              	.LBB3104:
 6069              	.LBB3105:
 6070              		.loc 4 1162 0
 6071 00bc 7F9DF800 		cmpw 7,29,31
 6072 00c0 40BE000C 		bne+ 7,.L505
 6073 00c4 48000024 		b .L466
 6074              	.LVL524:
 6075              	.L498:
 6076              		.loc 4 1163 0
 6077 00c8 7FDFF378 		mr 31,30
 6078              	.LVL525:
 6079              	.L505:
 6080              	.LBB3106:
 6081              	.LBB3107:
 6082              		.loc 11 112 0
 6083 00cc 83DF0000 		lwz 30,0(31)
 6084              	.LVL526:
 6085              	.LBB3108:
 6086              	.LBB3109:
 6087              		.loc 4 1532 0
 6088 00d0 7FE3FB78 		mr 3,31
 6089 00d4 48000001 		bl _ZNSt8__detail15_List_node_base9_M_unhookEv
 6090              	.LVL527:
 6091              	.LBB3110:
 6092              	.LBB3111:
 6093              	.LBB3112:
 6094              		.loc 8 98 0
 6095 00d8 7FE3FB78 		mr 3,31
 6096 00dc 48000001 		bl _ZdlPv
 6097              	.LVL528:
 6098              	.LBE3112:
 6099              	.LBE3111:
 6100              	.LBE3110:
 6101              	.LBE3109:
 6102              	.LBE3108:
 6103              	.LBE3107:
 6104              	.LBE3106:
 6105              		.loc 4 1162 0
 6106 00e0 7F9DF000 		cmpw 7,29,30
 6107 00e4 409EFFE4 		bne+ 7,.L498
 6108              	.LVL529:
 6109              	.L466:
 6110              	.LBE3105:
 6111              	.LBE3104:
 6112              	.LBB3113:
 6113              	.LBB3114:
 6114              	.LBB3115:
 6115              		.loc 1 343 0
 6116 00e8 813C0000 		lwz 9,0(28)
 6117 00ec 7F83E378 		mr 3,28
 6118 00f0 8009000C 		lwz 0,12(9)
 6119 00f4 7C0903A6 		mtctr 0
 6120              	.LEHB42:
 6121 00f8 4E800421 		bctrl
 6122              	.LEHE42:
 6123              	.LVL530:
 6124              	.LBE3115:
 6125              	.LBE3114:
 6126              	.LBE3113:
 6127              	.LBE3120:
 6128              	.LBE3085:
 6129              	.LBB3122:
 6130              	.LBB3123:
 6131              	.LBB3124:
 6132              	.LBB3125:
 6133              	.LBB3126:
 6134              	.LBB3127:
 6135              		.loc 11 70 0
 6136 00fc 807C0004 		lwz 3,4(28)
 6137              	.LVL531:
 6138              		.loc 11 71 0
 6139 0100 7F83E800 		cmpw 7,3,29
 6140 0104 40BE000C 		bne+ 7,.L507
 6141 0108 48000018 		b .L484
 6142              	.LVL532:
 6143              	.L499:
 6144              		.loc 11 74 0
 6145 010c 7FE3FB78 		mr 3,31
 6146              	.LVL533:
 6147              	.L507:
 6148              	.LBB3128:
 6149 0110 83E30000 		lwz 31,0(3)
 6150              	.LVL534:
 6151              	.LBB3129:
 6152              	.LBB3130:
 6153              	.LBB3131:
 6154              		.loc 8 98 0
 6155 0114 48000001 		bl _ZdlPv
 6156              	.LVL535:
 6157              	.LBE3131:
 6158              	.LBE3130:
 6159              	.LBE3129:
 6160              	.LBE3128:
 6161              		.loc 11 71 0
 6162 0118 7F9FE800 		cmpw 7,31,29
 6163 011c 409EFFF0 		bne+ 7,.L499
 6164              	.LVL536:
 6165              	.L484:
 6166              	.LBE3127:
 6167              	.LBE3126:
 6168              	.LBE3125:
 6169              	.LBE3124:
 6170              	.LBE3123:
 6171              	.LBE3122:
 6172              	.LBB3132:
 6173              	.LBB3133:
 6174              	.LBB3134:
 6175              	.LBB3135:
 6176              	.LBB3136:
 6177              	.LBB3137:
 6178              		.loc 1 105 0
 6179 0120 3D200000 		lis 9,_ZTVN7sigslot15single_threadedE+8@ha
 6180              	.LBE3137:
 6181              	.LBE3136:
 6182              	.LBE3135:
 6183              	.LBE3134:
 6184              	.LBE3133:
 6185              	.LBE3132:
 6186              	.LBE3168:
 6187              		.loc 1 946 0
 6188 0124 83A1001C 		lwz 29,28(1)
 6189              	.LVL537:
 6190              	.LBB3169:
 6191              	.LBB3148:
 6192              	.LBB3146:
 6193              	.LBB3144:
 6194              	.LBB3142:
 6195              	.LBB3140:
 6196              	.LBB3138:
 6197              		.loc 1 105 0
 6198 0128 38090008 		la 0,_ZTVN7sigslot15single_threadedE+8@l(9)
 6199              	.LBE3138:
 6200              	.LBE3140:
 6201              	.LBE3142:
 6202              	.LBE3144:
 6203              	.LBE3146:
 6204              	.LBE3148:
 6205              	.LBE3169:
 6206              		.loc 1 946 0
 6207 012c 83C10020 		lwz 30,32(1)
 6208              	.LBB3170:
 6209              	.LBB3149:
 6210              	.LBB3147:
 6211              	.LBB3145:
 6212              	.LBB3143:
 6213              	.LBB3141:
 6214              	.LBB3139:
 6215              		.loc 1 105 0
 6216 0130 901C0000 		stw 0,0(28)
 6217              	.LBE3139:
 6218              	.LBE3141:
 6219              	.LBE3143:
 6220              	.LBE3145:
 6221              	.LBE3147:
 6222              	.LBE3149:
 6223              	.LBE3170:
 6224              		.loc 1 946 0
 6225 0134 8001002C 		lwz 0,44(1)
 6226 0138 83810018 		lwz 28,24(1)
 6227              	.LVL538:
 6228 013c 7C0803A6 		mtlr 0
 6229 0140 83E10024 		lwz 31,36(1)
 6230 0144 38210028 		addi 1,1,40
 6231              		.cfi_remember_state
 6232              	.LCFI68:
 6233              		.cfi_def_cfa_offset 0
 6234              		.cfi_restore 31
 6235              		.cfi_restore 30
 6236              		.cfi_restore 29
 6237              		.cfi_restore 28
 6238 0148 4E800020 		blr
 6239              	.LVL539:
 6240              	.L501:
 6241              	.LCFI69:
 6242              		.cfi_restore_state
 6243 014c 7C7F1B78 		mr 31,3
 6244              	.L476:
 6245              	.LVL540:
 6246              	.LBB3171:
 6247              	.LBB3150:
 6248              	.LBB3151:
 6249              	.LBB3152:
 6250              	.LBB3153:
 6251              	.LBB3154:
 6252              	.LBB3155:
 6253              		.loc 11 70 0
 6254 0150 807C0004 		lwz 3,4(28)
 6255              	.LVL541:
 6256              		.loc 11 71 0
 6257 0154 7F83E800 		cmpw 7,3,29
 6258 0158 419E0038 		beq- 7,.L495
 6259              	.LVL542:
 6260              	.L508:
 6261              	.LBB3156:
 6262              		.loc 11 74 0
 6263 015c 83C30000 		lwz 30,0(3)
 6264              	.LVL543:
 6265              	.LBB3157:
 6266              	.LBB3158:
 6267              	.LBB3159:
 6268              		.loc 8 98 0
 6269 0160 48000001 		bl _ZdlPv
 6270              	.LVL544:
 6271              	.LBE3159:
 6272              	.LBE3158:
 6273              	.LBE3157:
 6274              	.LBE3156:
 6275              		.loc 11 71 0
 6276 0164 7F9EE800 		cmpw 7,30,29
 6277 0168 419E0028 		beq- 7,.L495
 6278              		.loc 11 74 0
 6279 016c 7FC3F378 		mr 3,30
 6280 0170 4BFFFFEC 		b .L508
 6281              	.LVL545:
 6282              	.L502:
 6283              	.LBE3155:
 6284              	.LBE3154:
 6285              	.LBE3153:
 6286              	.LBE3152:
 6287              	.LBE3151:
 6288              	.LBE3150:
 6289              	.LBB3160:
 6290              	.LBB3121:
 6291              	.LBB3116:
 6292              	.LBB3117:
 6293              	.LBB3118:
 6294              		.loc 1 343 0
 6295 0174 813C0000 		lwz 9,0(28)
 6296 0178 7C7F1B78 		mr 31,3
 6297              	.LVL546:
 6298 017c 7F83E378 		mr 3,28
 6299 0180 8009000C 		lwz 0,12(9)
 6300 0184 7C0903A6 		mtctr 0
 6301 0188 4E800421 		bctrl
 6302 018c 4BFFFFC4 		b .L476
 6303              	.LVL547:
 6304              	.L495:
 6305              	.LBE3118:
 6306              	.LBE3117:
 6307              	.LBE3116:
 6308              	.LBE3121:
 6309              	.LBE3160:
 6310              	.LBB3161:
 6311              	.LBB3162:
 6312              	.LBB3163:
 6313              	.LBB3164:
 6314              	.LBB3165:
 6315              	.LBB3166:
 6316              		.loc 1 105 0
 6317 0190 3D200000 		lis 9,_ZTVN7sigslot15single_threadedE+8@ha
 6318 0194 7FE3FB78 		mr 3,31
 6319 0198 38090008 		la 0,_ZTVN7sigslot15single_threadedE+8@l(9)
 6320 019c 901C0000 		stw 0,0(28)
 6321              	.LEHB43:
 6322 01a0 48000001 		bl _Unwind_Resume
 6323              	.LEHE43:
 6324              	.LBE3166:
 6325              	.LBE3165:
 6326              	.LBE3164:
 6327              	.LBE3163:
 6328              	.LBE3162:
 6329              	.LBE3161:
 6330              	.LBE3171:
 6331              		.cfi_endproc
 6332              	.LFE1652:
 6333              		.section	.gcc_except_table
 6334              	.LLSDA1652:
 6335 00f0 FF       		.byte	0xff
 6336 00f1 FF       		.byte	0xff
 6337 00f2 01       		.byte	0x1
 6338 00f3 15       		.uleb128 .LLSDACSE1652-.LLSDACSB1652
 6339              	.LLSDACSB1652:
 6340 00f4 30       		.uleb128 .LEHB40-.LFB1652
 6341 00f5 04       		.uleb128 .LEHE40-.LEHB40
 6342 00f6 CC02     		.uleb128 .L501-.LFB1652
 6343 00f8 00       		.uleb128 0
 6344 00f9 54       		.uleb128 .LEHB41-.LFB1652
 6345 00fa 58       		.uleb128 .LEHE41-.LEHB41
 6346 00fb F402     		.uleb128 .L502-.LFB1652
 6347 00fd 00       		.uleb128 0
 6348 00fe F801     		.uleb128 .LEHB42-.LFB1652
 6349 0100 04       		.uleb128 .LEHE42-.LEHB42
 6350 0101 CC02     		.uleb128 .L501-.LFB1652
 6351 0103 00       		.uleb128 0
 6352 0104 A003     		.uleb128 .LEHB43-.LFB1652
 6353 0106 04       		.uleb128 .LEHE43-.LEHB43
 6354 0107 00       		.uleb128 0
 6355 0108 00       		.uleb128 0
 6356              	.LLSDACSE1652:
 6357              		.section	.text._ZN7sigslot13_signal_base3IP10GuiElementiiNS_15single_threadedEED2Ev,"axG",@progbit
 6358              		.size	_ZN7sigslot13_signal_base3IP10GuiElementiiNS_15single_threadedEED2Ev, .-_ZN7sigslot13_signal
 6359              		.section	.text._ZN10GuiElementD2Ev,"axG",@progbits,_ZN10GuiElementD5Ev,comdat
 6360              		.align 2
 6361              		.weak	_ZN10GuiElementD2Ev
 6362              		.type	_ZN10GuiElementD2Ev, @function
 6363              	_ZN10GuiElementD2Ev:
 6364              	.LFB1381:
 6365              		.loc 2 89 0
 6366              		.cfi_startproc
 6367              		.cfi_personality 0,__gxx_personality_v0
 6368              		.cfi_lsda 0,.LLSDA1381
 6369              	.LVL548:
 6370 0000 7C0802A6 		mflr 0
 6371 0004 9421FFD0 		stwu 1,-48(1)
 6372              	.LCFI70:
 6373              		.cfi_def_cfa_offset 48
 6374              		.cfi_register 65, 0
 6375              	.LBB3374:
 6376 0008 3D200000 		lis 9,_ZTV10GuiElement+8@ha
 6377              	.LBE3374:
 6378 000c 9361001C 		stw 27,28(1)
 6379              	.LBB3636:
 6380              	.LBB3375:
 6381              	.LBB3376:
 6382              	.LBB3377:
 6383              		.loc 1 2305 0
 6384 0010 3B630010 		addi 27,3,16
 6385              		.cfi_offset 27, -20
 6386              	.LBE3377:
 6387              	.LBE3376:
 6388              	.LBE3375:
 6389              	.LBE3636:
 6390              		.loc 2 89 0
 6391 0014 90010034 		stw 0,52(1)
 6392              	.LBB3637:
 6393 0018 38090008 		la 0,_ZTV10GuiElement+8@l(9)
 6394              		.cfi_offset 65, 4
 6395              	.LBB3511:
 6396              	.LBB3502:
 6397              	.LBB3493:
 6398              	.LBB3378:
 6399              	.LBB3379:
 6400              	.LBB3380:
 6401              		.loc 1 946 0
 6402 001c 3D200000 		lis 9,_ZTVN7sigslot13_signal_base3IP10GuiElementiiNS_15single_threadedEEE+8@ha
 6403              	.LBE3380:
 6404              	.LBE3379:
 6405              	.LBE3378:
 6406              	.LBE3493:
 6407              	.LBE3502:
 6408              	.LBE3511:
 6409              	.LBE3637:
 6410              		.loc 2 89 0
 6411 0020 93810020 		stw 28,32(1)
 6412 0024 93A10024 		stw 29,36(1)
 6413 0028 7C7C1B78 		mr 28,3
 6414              		.cfi_offset 29, -12
 6415              		.cfi_offset 28, -16
 6416 002c 93410018 		stw 26,24(1)
 6417 0030 3BBC0014 		addi 29,28,20
 6418 0034 93C10028 		stw 30,40(1)
 6419 0038 93E1002C 		stw 31,44(1)
 6420              	.LBB3638:
 6421              		.loc 2 89 0
 6422 003c 90030000 		stw 0,0(3)
 6423              	.LVL549:
 6424              	.LBB3512:
 6425              	.LBB3503:
 6426              	.LBB3494:
 6427              	.LBB3485:
 6428              	.LBB3477:
 6429              	.LBB3469:
 6430              		.loc 1 946 0
 6431 0040 38090008 		la 0,_ZTVN7sigslot13_signal_base3IP10GuiElementiiNS_15single_threadedEEE+8@l(9)
 6432              	.LBB3381:
 6433              	.LBB3382:
 6434              	.LBB3383:
 6435              	.LBB3384:
 6436              		.loc 1 338 0
 6437 0044 3D200000 		lis 9,_ZN7sigslot15single_threaded4lockEv@ha
 6438              	.LBE3384:
 6439              	.LBE3383:
 6440              	.LBE3382:
 6441              	.LBE3381:
 6442              		.loc 1 946 0
 6443 0048 90030010 		stw 0,16(3)
 6444              	.LVL550:
 6445              	.LBB3417:
 6446              	.LBB3413:
 6447              	.LBB3386:
 6448              	.LBB3385:
 6449              		.loc 1 338 0
 6450 004c 39290000 		la 9,_ZN7sigslot15single_threaded4lockEv@l(9)
 6451 0050 7F63DB78 		mr 3,27
 6452              	.LVL551:
 6453 0054 7D2903A6 		mtctr 9
 6454              	.LEHB44:
 6455              		.cfi_offset 31, -4
 6456              		.cfi_offset 30, -8
 6457              		.cfi_offset 26, -24
 6458 0058 4E800421 		bctrl
 6459              	.LEHE44:
 6460              	.LBE3385:
 6461              	.LBE3386:
 6462              	.LBE3413:
 6463              		.loc 3 144 0
 6464 005c 7F9DE378 		mr 29,28
 6465 0060 87FD0014 		lwzu 31,20(29)
 6466              	.LVL552:
 6467              	.LBB3414:
 6468              		.loc 1 954 0
 6469 0064 7F9FE800 		cmpw 7,31,29
 6470 0068 419E00A8 		beq- 7,.L511
 6471              	.LVL553:
 6472              	.L589:
 6473              		.loc 1 956 0
 6474 006c 807F0008 		lwz 3,8(31)
 6475 0070 81230000 		lwz 9,0(3)
 6476 0074 80090008 		lwz 0,8(9)
 6477 0078 7C0903A6 		mtctr 0
 6478              	.LEHB45:
 6479 007c 4E800421 		bctrl
 6480 0080 93610008 		stw 27,8(1)
 6481 0084 7C7E1B78 		mr 30,3
 6482              	.LVL554:
 6483              	.LBB3387:
 6484              	.LBB3388:
 6485              	.LBB3389:
 6486              	.LBB3390:
 6487              		.loc 1 338 0
 6488 0088 81230000 		lwz 9,0(3)
 6489 008c 80090008 		lwz 0,8(9)
 6490 0090 7C0903A6 		mtctr 0
 6491 0094 4E800421 		bctrl
 6492              	.LVL555:
 6493              	.LBE3390:
 6494              	.LBE3389:
 6495              	.LBB3391:
 6496              	.LBB3392:
 6497              		.loc 10 528 0
 6498 0098 387E0004 		addi 3,30,4
 6499 009c 38810008 		addi 4,1,8
 6500 00a0 48000001 		bl _ZNSt8_Rb_treeIPN7sigslot12_signal_baseINS0_15single_threadedEEES4_St9_IdentityIS4_ESt4lessIS4_
 6501              	.LVL556:
 6502              	.LBE3392:
 6503              	.LBE3391:
 6504              	.LBB3393:
 6505              	.LBB3394:
 6506              	.LBB3395:
 6507              		.loc 1 343 0
 6508 00a4 813E0000 		lwz 9,0(30)
 6509 00a8 7FC3F378 		mr 3,30
 6510 00ac 8009000C 		lwz 0,12(9)
 6511 00b0 7C0903A6 		mtctr 0
 6512 00b4 4E800421 		bctrl
 6513              	.LVL557:
 6514              	.LBE3395:
 6515              	.LBE3394:
 6516              	.LBE3393:
 6517              	.LBE3388:
 6518              	.LBE3387:
 6519              		.loc 1 957 0
 6520 00b8 807F0008 		lwz 3,8(31)
 6521 00bc 2F830000 		cmpwi 7,3,0
 6522 00c0 419E0014 		beq- 7,.L513
 6523 00c4 81230000 		lwz 9,0(3)
 6524 00c8 80090004 		lwz 0,4(9)
 6525 00cc 7C0903A6 		mtctr 0
 6526 00d0 4E800421 		bctrl
 6527              	.LEHE45:
 6528              	.L513:
 6529              	.LVL558:
 6530              	.LBB3396:
 6531              	.LBB3397:
 6532              		.loc 4 234 0
 6533 00d4 83FF0000 		lwz 31,0(31)
 6534              	.LVL559:
 6535              	.LBE3397:
 6536              	.LBE3396:
 6537              		.loc 1 954 0
 6538 00d8 7F9DF800 		cmpw 7,29,31
 6539 00dc 409EFF90 		bne+ 7,.L589
 6540              	.LBE3414:
 6541              		.loc 3 144 0
 6542 00e0 83FC0014 		lwz 31,20(28)
 6543              	.LVL560:
 6544              	.LBB3415:
 6545              	.LBB3398:
 6546              	.LBB3399:
 6547              		.loc 4 1162 0
 6548 00e4 7F9DF800 		cmpw 7,29,31
 6549 00e8 40BE000C 		bne+ 7,.L592
 6550 00ec 48000024 		b .L511
 6551              	.LVL561:
 6552              	.L578:
 6553              		.loc 4 1163 0
 6554 00f0 7FDFF378 		mr 31,30
 6555              	.LVL562:
 6556              	.L592:
 6557              	.LBB3400:
 6558              	.LBB3401:
 6559              		.loc 11 112 0
 6560 00f4 83DF0000 		lwz 30,0(31)
 6561              	.LVL563:
 6562              	.LBB3402:
 6563              	.LBB3403:
 6564              		.loc 4 1532 0
 6565 00f8 7FE3FB78 		mr 3,31
 6566 00fc 48000001 		bl _ZNSt8__detail15_List_node_base9_M_unhookEv
 6567              	.LVL564:
 6568              	.LBB3404:
 6569              	.LBB3405:
 6570              	.LBB3406:
 6571              		.loc 8 98 0
 6572 0100 7FE3FB78 		mr 3,31
 6573 0104 48000001 		bl _ZdlPv
 6574              	.LVL565:
 6575              	.LBE3406:
 6576              	.LBE3405:
 6577              	.LBE3404:
 6578              	.LBE3403:
 6579              	.LBE3402:
 6580              	.LBE3401:
 6581              	.LBE3400:
 6582              		.loc 4 1162 0
 6583 0108 7F9DF000 		cmpw 7,29,30
 6584 010c 409EFFE4 		bne+ 7,.L578
 6585              	.LVL566:
 6586              	.L511:
 6587              	.LBE3399:
 6588              	.LBE3398:
 6589              	.LBB3407:
 6590              	.LBB3408:
 6591              	.LBB3409:
 6592              		.loc 1 343 0
 6593 0110 813C0010 		lwz 9,16(28)
 6594 0114 7F63DB78 		mr 3,27
 6595 0118 8009000C 		lwz 0,12(9)
 6596 011c 7C0903A6 		mtctr 0
 6597              	.LEHB46:
 6598 0120 4E800421 		bctrl
 6599              	.LEHE46:
 6600              	.LBE3409:
 6601              	.LBE3408:
 6602              	.LBE3407:
 6603              	.LBE3415:
 6604              	.LBE3417:
 6605              	.LBB3418:
 6606              	.LBB3419:
 6607              	.LBB3420:
 6608              	.LBB3421:
 6609              	.LBB3422:
 6610              	.LBB3423:
 6611              		.loc 11 70 0
 6612 0124 807C0014 		lwz 3,20(28)
 6613              	.LVL567:
 6614              		.loc 11 71 0
 6615 0128 7F83E800 		cmpw 7,3,29
 6616 012c 40BE000C 		bne+ 7,.L594
 6617 0130 48000018 		b .L529
 6618              	.LVL568:
 6619              	.L579:
 6620              		.loc 11 74 0
 6621 0134 7FE3FB78 		mr 3,31
 6622              	.LVL569:
 6623              	.L594:
 6624              	.LBB3424:
 6625 0138 83E30000 		lwz 31,0(3)
 6626              	.LVL570:
 6627              	.LBB3425:
 6628              	.LBB3426:
 6629              	.LBB3427:
 6630              		.loc 8 98 0
 6631 013c 48000001 		bl _ZdlPv
 6632              	.LVL571:
 6633              	.LBE3427:
 6634              	.LBE3426:
 6635              	.LBE3425:
 6636              	.LBE3424:
 6637              		.loc 11 71 0
 6638 0140 7F9FE800 		cmpw 7,31,29
 6639 0144 409EFFF0 		bne+ 7,.L579
 6640              	.LVL572:
 6641              	.L529:
 6642              	.LBE3423:
 6643              	.LBE3422:
 6644              	.LBE3421:
 6645              	.LBE3420:
 6646              	.LBE3419:
 6647              	.LBE3418:
 6648              	.LBE3469:
 6649              	.LBE3477:
 6650              	.LBE3485:
 6651              	.LBE3494:
 6652              	.LBE3503:
 6653              	.LBE3512:
 6654              	.LBB3513:
 6655              	.LBB3514:
 6656              	.LBB3515:
 6657              	.LBB3516:
 6658              	.LBB3517:
 6659              	.LBB3518:
 6660              		.loc 1 826 0
 6661 0148 3D200000 		lis 9,_ZTVN7sigslot13_signal_base2IP10GuiElementbNS_15single_threadedEEE+8@ha
 6662              	.LBE3518:
 6663              	.LBE3517:
 6664              	.LBE3516:
 6665              	.LBE3515:
 6666              	.LBE3514:
 6667              	.LBE3513:
 6668              	.LBB3623:
 6669              	.LBB3504:
 6670              	.LBB3495:
 6671              	.LBB3486:
 6672              	.LBB3478:
 6673              	.LBB3470:
 6674              	.LBB3428:
 6675              	.LBB3429:
 6676              	.LBB3430:
 6677              	.LBB3431:
 6678              	.LBB3432:
 6679              	.LBB3433:
 6680              		.loc 1 105 0
 6681 014c 3F400000 		lis 26,_ZTVN7sigslot15single_threadedE+8@ha
 6682              	.LBE3433:
 6683              	.LBE3432:
 6684              	.LBE3431:
 6685              	.LBE3430:
 6686              	.LBE3429:
 6687              	.LBE3428:
 6688              	.LBE3470:
 6689              	.LBE3478:
 6690              	.LBE3486:
 6691              	.LBE3495:
 6692              	.LBE3504:
 6693              	.LBE3623:
 6694              	.LBB3624:
 6695              	.LBB3617:
 6696              	.LBB3611:
 6697              	.LBB3605:
 6698              	.LBB3599:
 6699              	.LBB3593:
 6700              		.loc 1 826 0
 6701 0150 38090008 		la 0,_ZTVN7sigslot13_signal_base2IP10GuiElementbNS_15single_threadedEEE+8@l(9)
 6702              	.LBB3519:
 6703              	.LBB3520:
 6704              	.LBB3521:
 6705              	.LBB3522:
 6706              		.loc 1 338 0
 6707 0154 3D200000 		lis 9,_ZN7sigslot15single_threaded4lockEv@ha
 6708              	.LBE3522:
 6709              	.LBE3521:
 6710              	.LBE3520:
 6711              	.LBE3519:
 6712              	.LBE3593:
 6713              	.LBE3599:
 6714              	.LBE3605:
 6715              	.LBE3611:
 6716              	.LBE3617:
 6717              	.LBE3624:
 6718              	.LBB3625:
 6719              	.LBB3505:
 6720              	.LBB3496:
 6721              	.LBB3487:
 6722              	.LBB3479:
 6723              	.LBB3471:
 6724              	.LBB3444:
 6725              	.LBB3442:
 6726              	.LBB3440:
 6727              	.LBB3438:
 6728              	.LBB3436:
 6729              	.LBB3434:
 6730              		.loc 1 105 0
 6731 0158 3B5A0008 		la 26,_ZTVN7sigslot15single_threadedE+8@l(26)
 6732              	.LBE3434:
 6733              	.LBE3436:
 6734              	.LBE3438:
 6735              	.LBE3440:
 6736              	.LBE3442:
 6737              	.LBE3444:
 6738              	.LBE3471:
 6739              	.LBE3479:
 6740              	.LBE3487:
 6741              	.LBE3496:
 6742              	.LBE3505:
 6743              	.LBE3625:
 6744              	.LBB3626:
 6745              	.LBB3618:
 6746              	.LBB3612:
 6747              		.loc 1 2238 0
 6748 015c 3B7C0004 		addi 27,28,4
 6749              	.LVL573:
 6750              	.LBB3606:
 6751              	.LBB3600:
 6752              	.LBB3594:
 6753              	.LBB3558:
 6754              	.LBB3553:
 6755              	.LBB3525:
 6756              	.LBB3523:
 6757              		.loc 1 338 0
 6758 0160 39290000 		la 9,_ZN7sigslot15single_threaded4lockEv@l(9)
 6759              	.LBE3523:
 6760              	.LBE3525:
 6761              	.LBE3553:
 6762              	.LBE3558:
 6763              	.LBE3594:
 6764              	.LBE3600:
 6765              	.LBE3606:
 6766              	.LBE3612:
 6767              	.LBE3618:
 6768              	.LBE3626:
 6769              	.LBB3627:
 6770              	.LBB3506:
 6771              	.LBB3497:
 6772              	.LBB3488:
 6773              	.LBB3480:
 6774              	.LBB3472:
 6775              	.LBB3445:
 6776              	.LBB3443:
 6777              	.LBB3441:
 6778              	.LBB3439:
 6779              	.LBB3437:
 6780              	.LBB3435:
 6781              		.loc 1 105 0
 6782 0164 935C0010 		stw 26,16(28)
 6783              	.LVL574:
 6784              	.LBE3435:
 6785              	.LBE3437:
 6786              	.LBE3439:
 6787              	.LBE3441:
 6788              	.LBE3443:
 6789              	.LBE3445:
 6790              	.LBE3472:
 6791              	.LBE3480:
 6792              	.LBE3488:
 6793              	.LBE3497:
 6794              	.LBE3506:
 6795              	.LBE3627:
 6796              	.LBB3628:
 6797              	.LBB3619:
 6798              	.LBB3613:
 6799              	.LBB3607:
 6800              	.LBB3601:
 6801              	.LBB3595:
 6802              		.loc 1 826 0
 6803 0168 901C0004 		stw 0,4(28)
 6804              	.LVL575:
 6805              	.LBB3559:
 6806              	.LBB3554:
 6807              	.LBB3526:
 6808              	.LBB3524:
 6809              		.loc 1 338 0
 6810 016c 7F63DB78 		mr 3,27
 6811 0170 7D2903A6 		mtctr 9
 6812 0174 3BBC0008 		addi 29,28,8
 6813              	.LVL576:
 6814              	.LEHB47:
 6815 0178 4E800421 		bctrl
 6816              	.LEHE47:
 6817              	.LBE3524:
 6818              	.LBE3526:
 6819              	.LBE3554:
 6820              		.loc 3 144 0
 6821 017c 7F9DE378 		mr 29,28
 6822 0180 87FD0008 		lwzu 31,8(29)
 6823              	.LVL577:
 6824              	.LBB3555:
 6825              		.loc 1 834 0
 6826 0184 7F9FE800 		cmpw 7,31,29
 6827 0188 419E00A8 		beq- 7,.L544
 6828              	.LVL578:
 6829              	.L588:
 6830              		.loc 1 836 0
 6831 018c 807F0008 		lwz 3,8(31)
 6832 0190 81230000 		lwz 9,0(3)
 6833 0194 80090008 		lwz 0,8(9)
 6834 0198 7C0903A6 		mtctr 0
 6835              	.LEHB48:
 6836 019c 4E800421 		bctrl
 6837 01a0 93610008 		stw 27,8(1)
 6838 01a4 7C7E1B78 		mr 30,3
 6839              	.LVL579:
 6840              	.LBB3527:
 6841              	.LBB3528:
 6842              	.LBB3529:
 6843              	.LBB3530:
 6844              		.loc 1 338 0
 6845 01a8 81230000 		lwz 9,0(3)
 6846 01ac 80090008 		lwz 0,8(9)
 6847 01b0 7C0903A6 		mtctr 0
 6848 01b4 4E800421 		bctrl
 6849              	.LVL580:
 6850              	.LBE3530:
 6851              	.LBE3529:
 6852              	.LBB3531:
 6853              	.LBB3532:
 6854              		.loc 10 528 0
 6855 01b8 387E0004 		addi 3,30,4
 6856 01bc 38810008 		addi 4,1,8
 6857              	.LVL581:
 6858 01c0 48000001 		bl _ZNSt8_Rb_treeIPN7sigslot12_signal_baseINS0_15single_threadedEEES4_St9_IdentityIS4_ESt4lessIS4_
 6859              	.LVL582:
 6860              	.LBE3532:
 6861              	.LBE3531:
 6862              	.LBB3533:
 6863              	.LBB3534:
 6864              	.LBB3535:
 6865              		.loc 1 343 0
 6866 01c4 813E0000 		lwz 9,0(30)
 6867 01c8 7FC3F378 		mr 3,30
 6868 01cc 8009000C 		lwz 0,12(9)
 6869 01d0 7C0903A6 		mtctr 0
 6870 01d4 4E800421 		bctrl
 6871              	.LVL583:
 6872              	.LBE3535:
 6873              	.LBE3534:
 6874              	.LBE3533:
 6875              	.LBE3528:
 6876              	.LBE3527:
 6877              		.loc 1 837 0
 6878 01d8 807F0008 		lwz 3,8(31)
 6879 01dc 2F830000 		cmpwi 7,3,0
 6880 01e0 419E0014 		beq- 7,.L546
 6881 01e4 81230000 		lwz 9,0(3)
 6882 01e8 80090004 		lwz 0,4(9)
 6883 01ec 7C0903A6 		mtctr 0
 6884 01f0 4E800421 		bctrl
 6885              	.LEHE48:
 6886              	.L546:
 6887              	.LVL584:
 6888              	.LBB3536:
 6889              	.LBB3537:
 6890              		.loc 4 234 0
 6891 01f4 83FF0000 		lwz 31,0(31)
 6892              	.LVL585:
 6893              	.LBE3537:
 6894              	.LBE3536:
 6895              		.loc 1 834 0
 6896 01f8 7F9DF800 		cmpw 7,29,31
 6897 01fc 409EFF90 		bne+ 7,.L588
 6898              	.LBE3555:
 6899              		.loc 3 144 0
 6900 0200 83FC0008 		lwz 31,8(28)
 6901              	.LVL586:
 6902              	.LBB3556:
 6903              	.LBB3538:
 6904              	.LBB3539:
 6905              		.loc 4 1162 0
 6906 0204 7F9DF800 		cmpw 7,29,31
 6907 0208 40BE000C 		bne+ 7,.L597
 6908 020c 48000024 		b .L544
 6909              	.LVL587:
 6910              	.L581:
 6911              		.loc 4 1163 0
 6912 0210 7FDFF378 		mr 31,30
 6913              	.LVL588:
 6914              	.L597:
 6915              	.LBB3540:
 6916              	.LBB3541:
 6917              		.loc 11 112 0
 6918 0214 83DF0000 		lwz 30,0(31)
 6919              	.LVL589:
 6920              	.LBB3542:
 6921              	.LBB3543:
 6922              		.loc 4 1532 0
 6923 0218 7FE3FB78 		mr 3,31
 6924 021c 48000001 		bl _ZNSt8__detail15_List_node_base9_M_unhookEv
 6925              	.LVL590:
 6926              	.LBB3544:
 6927              	.LBB3545:
 6928              	.LBB3546:
 6929              		.loc 8 98 0
 6930 0220 7FE3FB78 		mr 3,31
 6931 0224 48000001 		bl _ZdlPv
 6932              	.LVL591:
 6933              	.LBE3546:
 6934              	.LBE3545:
 6935              	.LBE3544:
 6936              	.LBE3543:
 6937              	.LBE3542:
 6938              	.LBE3541:
 6939              	.LBE3540:
 6940              		.loc 4 1162 0
 6941 0228 7F9DF000 		cmpw 7,29,30
 6942 022c 409EFFE4 		bne+ 7,.L581
 6943              	.LVL592:
 6944              	.L544:
 6945              	.LBE3539:
 6946              	.LBE3538:
 6947              	.LBB3547:
 6948              	.LBB3548:
 6949              	.LBB3549:
 6950              		.loc 1 343 0
 6951 0230 813C0004 		lwz 9,4(28)
 6952 0234 7F63DB78 		mr 3,27
 6953 0238 8009000C 		lwz 0,12(9)
 6954 023c 7C0903A6 		mtctr 0
 6955              	.LEHB49:
 6956 0240 4E800421 		bctrl
 6957              	.LEHE49:
 6958              	.LBE3549:
 6959              	.LBE3548:
 6960              	.LBE3547:
 6961              	.LBE3556:
 6962              	.LBE3559:
 6963              	.LBB3560:
 6964              	.LBB3561:
 6965              	.LBB3562:
 6966              	.LBB3563:
 6967              	.LBB3564:
 6968              	.LBB3565:
 6969              		.loc 11 70 0
 6970 0244 807C0008 		lwz 3,8(28)
 6971              	.LVL593:
 6972              		.loc 11 71 0
 6973 0248 7F83E800 		cmpw 7,3,29
 6974 024c 40BE000C 		bne+ 7,.L599
 6975 0250 48000018 		b .L562
 6976              	.LVL594:
 6977              	.L582:
 6978              		.loc 11 74 0
 6979 0254 7FE3FB78 		mr 3,31
 6980              	.LVL595:
 6981              	.L599:
 6982              	.LBB3566:
 6983 0258 83E30000 		lwz 31,0(3)
 6984              	.LVL596:
 6985              	.LBB3567:
 6986              	.LBB3568:
 6987              	.LBB3569:
 6988              		.loc 8 98 0
 6989 025c 48000001 		bl _ZdlPv
 6990              	.LVL597:
 6991              	.LBE3569:
 6992              	.LBE3568:
 6993              	.LBE3567:
 6994              	.LBE3566:
 6995              		.loc 11 71 0
 6996 0260 7F9FE800 		cmpw 7,31,29
 6997 0264 409EFFF0 		bne+ 7,.L582
 6998              	.LVL598:
 6999              	.L562:
 7000              	.LBE3565:
 7001              	.LBE3564:
 7002              	.LBE3563:
 7003              	.LBE3562:
 7004              	.LBE3561:
 7005              	.LBE3560:
 7006              	.LBE3595:
 7007              	.LBE3601:
 7008              	.LBE3607:
 7009              	.LBE3613:
 7010              	.LBE3619:
 7011              	.LBE3628:
 7012              	.LBE3638:
 7013              		.loc 2 89 0
 7014 0268 80010034 		lwz 0,52(1)
 7015              	.LBB3639:
 7016              	.LBB3629:
 7017              	.LBB3620:
 7018              	.LBB3614:
 7019              	.LBB3608:
 7020              	.LBB3602:
 7021              	.LBB3596:
 7022              	.LBB3570:
 7023              	.LBB3571:
 7024              	.LBB3572:
 7025              	.LBB3573:
 7026              	.LBB3574:
 7027              	.LBB3575:
 7028              		.loc 1 105 0
 7029 026c 935C0004 		stw 26,4(28)
 7030              	.LBE3575:
 7031              	.LBE3574:
 7032              	.LBE3573:
 7033              	.LBE3572:
 7034              	.LBE3571:
 7035              	.LBE3570:
 7036              	.LBE3596:
 7037              	.LBE3602:
 7038              	.LBE3608:
 7039              	.LBE3614:
 7040              	.LBE3620:
 7041              	.LBE3629:
 7042              	.LBE3639:
 7043              		.loc 2 89 0
 7044 0270 7C0803A6 		mtlr 0
 7045 0274 83410018 		lwz 26,24(1)
 7046 0278 8361001C 		lwz 27,28(1)
 7047              	.LVL599:
 7048 027c 83810020 		lwz 28,32(1)
 7049              	.LVL600:
 7050 0280 83A10024 		lwz 29,36(1)
 7051              	.LVL601:
 7052 0284 83C10028 		lwz 30,40(1)
 7053 0288 83E1002C 		lwz 31,44(1)
 7054 028c 38210030 		addi 1,1,48
 7055              		.cfi_remember_state
 7056              	.LCFI71:
 7057              		.cfi_def_cfa_offset 0
 7058              		.cfi_restore 31
 7059              		.cfi_restore 30
 7060              		.cfi_restore 29
 7061              		.cfi_restore 28
 7062              		.cfi_restore 27
 7063              		.cfi_restore 26
 7064 0290 4E800020 		blr
 7065              	.LVL602:
 7066              	.L584:
 7067              	.LCFI72:
 7068              		.cfi_restore_state
 7069 0294 7C7F1B78 		mr 31,3
 7070              	.L521:
 7071              	.LBB3640:
 7072              	.LBB3630:
 7073              	.LBB3507:
 7074              	.LBB3498:
 7075              	.LBB3489:
 7076              	.LBB3481:
 7077              	.LBB3473:
 7078              	.LBB3446:
 7079              	.LBB3447:
 7080              	.LBB3448:
 7081              	.LBB3449:
 7082              	.LBB3450:
 7083              	.LBB3451:
 7084              		.loc 11 70 0
 7085 0298 807C0014 		lwz 3,20(28)
 7086              	.LVL603:
 7087              		.loc 11 71 0
 7088 029c 7F83E800 		cmpw 7,3,29
 7089 02a0 419E0058 		beq- 7,.L538
 7090              	.LVL604:
 7091              	.L596:
 7092              	.LBB3452:
 7093              		.loc 11 74 0
 7094 02a4 83C30000 		lwz 30,0(3)
 7095              	.LVL605:
 7096              	.LBB3453:
 7097              	.LBB3454:
 7098              	.LBB3455:
 7099              		.loc 8 98 0
 7100 02a8 48000001 		bl _ZdlPv
 7101              	.LVL606:
 7102              	.LBE3455:
 7103              	.LBE3454:
 7104              	.LBE3453:
 7105              	.LBE3452:
 7106              		.loc 11 71 0
 7107 02ac 7F9EE800 		cmpw 7,30,29
 7108 02b0 419E0048 		beq- 7,.L538
 7109              		.loc 11 74 0
 7110 02b4 7FC3F378 		mr 3,30
 7111 02b8 4BFFFFEC 		b .L596
 7112              	.LVL607:
 7113              	.L587:
 7114              	.LBE3451:
 7115              	.LBE3450:
 7116              	.LBE3449:
 7117              	.LBE3448:
 7118              	.LBE3447:
 7119              	.LBE3446:
 7120              	.LBE3473:
 7121              	.LBE3481:
 7122              	.LBE3489:
 7123              	.LBE3498:
 7124              	.LBE3507:
 7125              	.LBE3630:
 7126              	.LBB3631:
 7127              	.LBB3621:
 7128              	.LBB3615:
 7129              	.LBB3609:
 7130              	.LBB3603:
 7131              	.LBB3597:
 7132              	.LBB3576:
 7133              	.LBB3557:
 7134              	.LBB3550:
 7135              	.LBB3551:
 7136              	.LBB3552:
 7137              		.loc 1 343 0
 7138 02bc 813C0004 		lwz 9,4(28)
 7139 02c0 7C7F1B78 		mr 31,3
 7140              	.LVL608:
 7141 02c4 7F63DB78 		mr 3,27
 7142 02c8 8009000C 		lwz 0,12(9)
 7143 02cc 7C0903A6 		mtctr 0
 7144 02d0 4E800421 		bctrl
 7145              	.LVL609:
 7146              	.L554:
 7147              	.LBE3552:
 7148              	.LBE3551:
 7149              	.LBE3550:
 7150              	.LBE3557:
 7151              	.LBE3576:
 7152              	.LBB3577:
 7153              	.LBB3578:
 7154              	.LBB3579:
