   1              		.file	"gui_sound.cpp"
   2              		.section	".text"
   3              	.Ltext0:
   4              		.align 2
   5              		.globl SoundCallback
   6              		.type	SoundCallback, @function
   7              	SoundCallback:
   8              	.LFB1545:
   9              		.file 1 "d:/Projects/SaveGameManager/savegame-manager-gx/trunk/source/GUI/gui_sound.cpp"
  10              		.loc 1 45 0
  11              		.cfi_startproc
  12              		.cfi_personality 0,__gxx_personality_v0
  13              		.cfi_lsda 0,.LLSDA1545
  14              	.LVL0:
  15 0000 9421FFE8 		stwu 1,-24(1)
  16              	.LCFI0:
  17              		.cfi_def_cfa_offset 24
  18 0004 7C0802A6 		mflr 0
  19 0008 93A1000C 		stw 29,12(1)
  20              	.LBB1594:
  21              	.LBB1595:
  22              	.LBB1596:
  23              		.file 2 "d:/Projects/SaveGameManager/savegame-manager-gx/trunk/source/GUI/../SoundOperations/Sound
  24              		.loc 2 38 0
  25 000c 3FA00000 		lis 29,_ZN12SoundHandler8instanceE@ha
  26              		.cfi_offset 29, -12
  27              		.cfi_register 65, 0
  28              	.LBE1596:
  29              	.LBE1595:
  30              	.LBE1594:
  31              		.loc 1 45 0
  32 0010 93C10010 		stw 30,16(1)
  33              	.LBB1629:
  34              	.LBB1602:
  35              	.LBB1597:
  36              		.loc 2 38 0
  37 0014 83DD0000 		lwz 30,_ZN12SoundHandler8instanceE@l(29)
  38              		.cfi_offset 30, -8
  39              	.LBE1597:
  40              	.LBE1602:
  41              	.LBE1629:
  42              		.loc 1 45 0
  43 0018 93E10014 		stw 31,20(1)
  44 001c 7C7F1B78 		mr 31,3
  45              		.cfi_offset 31, -4
  46              	.LBB1630:
  47              	.LBB1603:
  48              	.LBB1598:
  49              		.loc 2 38 0
  50 0020 2F9E0000 		cmpwi 7,30,0
  51              	.LBE1598:
  52              	.LBE1603:
  53              	.LBE1630:
  54              		.loc 1 45 0
  55 0024 9001001C 		stw 0,28(1)
  56 0028 93810008 		stw 28,8(1)
  57              	.LBB1631:
  58              	.LBB1604:
  59              	.LBB1599:
  60              		.loc 2 38 0
  61 002c 419E0168 		beq- 7,.L21
  62              		.cfi_offset 28, -16
  63              		.cfi_offset 65, 4
  64              	.LVL1:
  65              	.L2:
  66              	.LBE1599:
  67              	.LBE1604:
  68              	.LBB1605:
  69              	.LBB1606:
  70              		.loc 2 47 0
  71 0030 2B9F000F 		cmplwi 7,31,15
  72 0034 419D0078 		bgt- 7,.L1
  73 0038 381F0004 		addi 0,31,4
  74 003c 5400103A 		slwi 0,0,2
  75 0040 7FDE002E 		lwzx 30,30,0
  76              	.LBE1606:
  77              	.LBE1605:
  78              		.loc 1 47 0
  79 0044 2F9E0000 		cmpwi 7,30,0
  80 0048 419E0064 		beq- 7,.L1
  81              		.loc 1 50 0
  82 004c 813E0000 		lwz 9,0(30)
  83 0050 7FC3F378 		mr 3,30
  84 0054 80090038 		lwz 0,56(9)
  85 0058 7C0903A6 		mtctr 0
  86              	.LEHB0:
  87 005c 4E800421 		bctrl
  88              		.loc 1 52 0
  89 0060 813E0000 		lwz 9,0(30)
  90              		.loc 1 50 0
  91 0064 2F830000 		cmpwi 7,3,0
  92              		.loc 1 52 0
  93 0068 7FC3F378 		mr 3,30
  94              		.loc 1 50 0
  95 006c 419E0060 		beq- 7,.L6
  96              		.loc 1 52 0
  97 0070 80090028 		lwz 0,40(9)
  98 0074 7C0903A6 		mtctr 0
  99 0078 4E800421 		bctrl
 100 007c 813E0000 		lwz 9,0(30)
 101 0080 7C7C1B78 		mr 28,3
 102 0084 7FC3F378 		mr 3,30
 103 0088 80090024 		lwz 0,36(9)
 104 008c 7C0903A6 		mtctr 0
 105 0090 4E800421 		bctrl
 106 0094 7F84E378 		mr 4,28
 107 0098 7C651B78 		mr 5,3
 108 009c 7FE3FB78 		mr 3,31
 109 00a0 48000001 		bl ASND_AddVoice
 110 00a4 2F830000 		cmpwi 7,3,0
 111 00a8 419E00B4 		beq- 7,.L22
 112              	.L1:
 113              	.LBE1631:
 114              		.loc 1 68 0
 115 00ac 8001001C 		lwz 0,28(1)
 116 00b0 83810008 		lwz 28,8(1)
 117 00b4 7C0803A6 		mtlr 0
 118 00b8 83A1000C 		lwz 29,12(1)
 119 00bc 83C10010 		lwz 30,16(1)
 120 00c0 83E10014 		lwz 31,20(1)
 121              	.LVL2:
 122 00c4 38210018 		addi 1,1,24
 123              		.cfi_remember_state
 124              	.LCFI1:
 125              		.cfi_def_cfa_offset 0
 126              		.cfi_restore 31
 127              		.cfi_restore 30
 128              		.cfi_restore 29
 129              		.cfi_restore 28
 130 00c8 4E800020 		blr
 131              	.LVL3:
 132              	.L6:
 133              	.LCFI2:
 134              		.cfi_restore_state
 135              	.LBB1632:
 136              		.loc 1 58 0
 137 00cc 80090044 		lwz 0,68(9)
 138 00d0 7C0903A6 		mtctr 0
 139 00d4 4E800421 		bctrl
 140 00d8 2F830000 		cmpwi 7,3,0
 141 00dc 419E004C 		beq- 7,.L9
 142              		.loc 1 60 0
 143 00e0 7FE3FB78 		mr 3,31
 144 00e4 48000001 		bl ASND_StopVoice
 145              		.loc 1 61 0
 146 00e8 2F9F0000 		cmpwi 7,31,0
 147 00ec 40BEFFC0 		bne- 7,.L1
 148              	.LBB1607:
 149              	.LBB1608:
 150              		.file 3 "d:/Projects/SaveGameManager/savegame-manager-gx/trunk/source/GUI/../SoundOperations/Music
 151              		.loc 3 38 0
 152 00f0 3FC00000 		lis 30,_ZN11MusicPlayer8instanceE@ha
 153 00f4 83FE0000 		lwz 31,_ZN11MusicPlayer8instanceE@l(30)
 154              	.LVL4:
 155 00f8 2F9F0000 		cmpwi 7,31,0
 156 00fc 419E00C8 		beq- 7,.L23
 157              	.L10:
 158              	.LVL5:
 159              	.LBE1608:
 160              	.LBE1607:
 161              	.LBB1611:
 162              	.LBB1612:
 163              		.loc 3 59 0
 164 0100 38000001 		li 0,1
 165              	.LBE1612:
 166              	.LBE1611:
 167              	.LBE1632:
 168              		.loc 1 68 0
 169 0104 83810008 		lwz 28,8(1)
 170              	.LBB1633:
 171              	.LBB1614:
 172              	.LBB1613:
 173              		.loc 3 59 0
 174 0108 981F00DB 		stb 0,219(31)
 175              	.LBE1613:
 176              	.LBE1614:
 177              	.LBE1633:
 178              		.loc 1 68 0
 179 010c 8001001C 		lwz 0,28(1)
 180 0110 83A1000C 		lwz 29,12(1)
 181 0114 7C0803A6 		mtlr 0
 182 0118 83C10010 		lwz 30,16(1)
 183 011c 83E10014 		lwz 31,20(1)
 184 0120 38210018 		addi 1,1,24
 185              		.cfi_remember_state
 186              		.cfi_restore 28
 187              		.cfi_restore 29
 188              		.cfi_restore 30
 189              		.cfi_restore 31
 190              	.LCFI3:
 191              		.cfi_def_cfa_offset 0
 192 0124 4E800020 		blr
 193              	.LVL6:
 194              	.L9:
 195              	.LCFI4:
 196              		.cfi_restore_state
 197              	.LBB1634:
 198              	.LBB1615:
 199              	.LBB1616:
 200              		.loc 2 38 0
 201 0128 83FD0000 		lwz 31,_ZN12SoundHandler8instanceE@l(29)
 202              	.LVL7:
 203 012c 2F9F0000 		cmpwi 7,31,0
 204 0130 419E007C 		beq- 7,.L24
 205              	.L12:
 206              	.LBE1616:
 207              	.LBE1615:
 208              	.LBB1619:
 209              	.LBB1620:
 210              		.loc 2 48 0
 211 0134 807F0008 		lwz 3,8(31)
 212 0138 48000001 		bl LWP_ThreadSignal
 213              	.LBE1620:
 214              	.LBE1619:
 215              	.LBE1634:
 216              		.loc 1 68 0
 217 013c 8001001C 		lwz 0,28(1)
 218 0140 83810008 		lwz 28,8(1)
 219 0144 7C0803A6 		mtlr 0
 220 0148 83A1000C 		lwz 29,12(1)
 221 014c 83C10010 		lwz 30,16(1)
 222 0150 83E10014 		lwz 31,20(1)
 223 0154 38210018 		addi 1,1,24
 224              		.cfi_remember_state
 225              		.cfi_restore 28
 226              		.cfi_restore 29
 227              		.cfi_restore 30
 228              		.cfi_restore 31
 229              	.LCFI5:
 230              		.cfi_def_cfa_offset 0
 231 0158 4E800020 		blr
 232              	.LVL8:
 233              	.L22:
 234              	.LCFI6:
 235              		.cfi_restore_state
 236              	.LBB1635:
 237              		.loc 1 54 0
 238 015c 813E0000 		lwz 9,0(30)
 239 0160 7FC3F378 		mr 3,30
 240 0164 80090034 		lwz 0,52(9)
 241 0168 7C0903A6 		mtctr 0
 242 016c 4E800421 		bctrl
 243              	.LBB1621:
 244              	.LBB1622:
 245              		.loc 2 38 0
 246 0170 83FD0000 		lwz 31,_ZN12SoundHandler8instanceE@l(29)
 247              	.LVL9:
 248 0174 2F9F0000 		cmpwi 7,31,0
 249 0178 409EFFBC 		bne+ 7,.L12
 250 017c 38600050 		li 3,80
 251 0180 48000001 		bl _Znwj
 252              	.LEHE0:
 253 0184 7C7F1B78 		mr 31,3
 254              	.LEHB1:
 255 0188 48000001 		bl _ZN12SoundHandlerC1Ev
 256              	.LEHE1:
 257              	.LBE1622:
 258              	.LBE1621:
 259              	.LBB1623:
 260              	.LBB1617:
 261 018c 93FD0000 		stw 31,_ZN12SoundHandler8instanceE@l(29)
 262 0190 4BFFFFA4 		b .L12
 263              	.LVL10:
 264              	.L21:
 265              	.LBE1617:
 266              	.LBE1623:
 267              	.LBB1624:
 268              	.LBB1600:
 269 0194 38600050 		li 3,80
 270              	.LVL11:
 271              	.LEHB2:
 272 0198 48000001 		bl _Znwj
 273              	.LEHE2:
 274 019c 7C7E1B78 		mr 30,3
 275              	.LEHB3:
 276 01a0 48000001 		bl _ZN12SoundHandlerC1Ev
 277              	.LEHE3:
 278 01a4 93DD0000 		stw 30,_ZN12SoundHandler8instanceE@l(29)
 279 01a8 4BFFFE88 		b .L2
 280              	.LVL12:
 281              	.L24:
 282              	.LBE1600:
 283              	.LBE1624:
 284              	.LBB1625:
 285              	.LBB1618:
 286 01ac 38600050 		li 3,80
 287              	.LEHB4:
 288 01b0 48000001 		bl _Znwj
 289              	.LEHE4:
 290 01b4 7C7F1B78 		mr 31,3
 291              	.LEHB5:
 292 01b8 48000001 		bl _ZN12SoundHandlerC1Ev
 293              	.LEHE5:
 294 01bc 93FD0000 		stw 31,_ZN12SoundHandler8instanceE@l(29)
 295 01c0 4BFFFF74 		b .L12
 296              	.L23:
 297              	.LBE1618:
 298              	.LBE1625:
 299              	.LBB1626:
 300              	.LBB1609:
 301              		.loc 3 38 0
 302 01c4 3860027C 		li 3,636
 303              	.LEHB6:
 304 01c8 48000001 		bl _Znwj
 305              	.LEHE6:
 306 01cc 7C7F1B78 		mr 31,3
 307              	.LEHB7:
 308 01d0 48000001 		bl _ZN11MusicPlayerC1Ev
 309              	.LEHE7:
 310 01d4 93FE0000 		stw 31,_ZN11MusicPlayer8instanceE@l(30)
 311 01d8 4BFFFF28 		b .L10
 312              	.LVL13:
 313              	.L15:
 314 01dc 7C7F1B78 		mr 31,3
 315              	.LVL14:
 316              	.LBE1609:
 317              	.LBE1626:
 318              	.LBB1627:
 319              	.LBB1601:
 320              		.loc 2 38 0
 321 01e0 7FC3F378 		mr 3,30
 322 01e4 48000001 		bl _ZdlPv
 323 01e8 7FE3FB78 		mr 3,31
 324              	.LEHB8:
 325 01ec 48000001 		bl _Unwind_Resume
 326              	.L14:
 327              	.L18:
 328 01f0 7C7E1B78 		mr 30,3
 329              	.LBE1601:
 330              	.LBE1627:
 331              	.LBB1628:
 332              	.LBB1610:
 333              		.loc 3 38 0
 334 01f4 7FE3FB78 		mr 3,31
 335 01f8 48000001 		bl _ZdlPv
 336 01fc 7FC3F378 		mr 3,30
 337 0200 48000001 		bl _Unwind_Resume
 338              	.LEHE8:
 339              	.L16:
 340 0204 4BFFFFEC 		b .L18
 341              	.L17:
 342 0208 4BFFFFE8 		b .L18
 343              	.LBE1610:
 344              	.LBE1628:
 345              	.LBE1635:
 346              		.cfi_endproc
 347              	.LFE1545:
 348              		.globl __gxx_personality_v0
 349              		.section	.gcc_except_table,"a",@progbits
 350              	.LLSDA1545:
 351 0000 FF       		.byte	0xff
 352 0001 FF       		.byte	0xff
 353 0002 01       		.byte	0x1
 354 0003 31       		.uleb128 .LLSDACSE1545-.LLSDACSB1545
 355              	.LLSDACSB1545:
 356 0004 5C       		.uleb128 .LEHB0-.LFB1545
 357 0005 A802     		.uleb128 .LEHE0-.LEHB0
 358 0007 00       		.uleb128 0
 359 0008 00       		.uleb128 0
 360 0009 8803     		.uleb128 .LEHB1-.LFB1545
 361 000b 04       		.uleb128 .LEHE1-.LEHB1
 362 000c 8404     		.uleb128 .L16-.LFB1545
 363 000e 00       		.uleb128 0
 364 000f 9803     		.uleb128 .LEHB2-.LFB1545
 365 0011 04       		.uleb128 .LEHE2-.LEHB2
 366 0012 00       		.uleb128 0
 367 0013 00       		.uleb128 0
 368 0014 A003     		.uleb128 .LEHB3-.LFB1545
 369 0016 04       		.uleb128 .LEHE3-.LEHB3
 370 0017 DC03     		.uleb128 .L15-.LFB1545
 371 0019 00       		.uleb128 0
 372 001a B003     		.uleb128 .LEHB4-.LFB1545
 373 001c 04       		.uleb128 .LEHE4-.LEHB4
 374 001d 00       		.uleb128 0
 375 001e 00       		.uleb128 0
 376 001f B803     		.uleb128 .LEHB5-.LFB1545
 377 0021 04       		.uleb128 .LEHE5-.LEHB5
 378 0022 8804     		.uleb128 .L17-.LFB1545
 379 0024 00       		.uleb128 0
 380 0025 C803     		.uleb128 .LEHB6-.LFB1545
 381 0027 04       		.uleb128 .LEHE6-.LEHB6
 382 0028 00       		.uleb128 0
 383 0029 00       		.uleb128 0
 384 002a D003     		.uleb128 .LEHB7-.LFB1545
 385 002c 04       		.uleb128 .LEHE7-.LEHB7
 386 002d F003     		.uleb128 .L14-.LFB1545
 387 002f 00       		.uleb128 0
 388 0030 EC03     		.uleb128 .LEHB8-.LFB1545
 389 0032 18       		.uleb128 .LEHE8-.LEHB8
 390 0033 00       		.uleb128 0
 391 0034 00       		.uleb128 0
 392              	.LLSDACSE1545:
 393              		.section	".text"
 394              		.size	SoundCallback, .-SoundCallback
 395              		.align 2
 396              		.globl _ZN8GuiSound10FreeMemoryEv
 397              		.type	_ZN8GuiSound10FreeMemoryEv, @function
 398              	_ZN8GuiSound10FreeMemoryEv:
 399              	.LFB1556:
 400              		.loc 1 112 0
 401              		.cfi_startproc
 402              		.cfi_personality 0,__gxx_personality_v0
 403              		.cfi_lsda 0,.LLSDA1556
 404              	.LVL15:
 405 020c 7C0802A6 		mflr 0
 406 0210 9421FFE8 		stwu 1,-24(1)
 407              	.LCFI7:
 408              		.cfi_def_cfa_offset 24
 409              		.cfi_register 65, 0
 410 0214 93E10014 		stw 31,20(1)
 411 0218 7C7F1B78 		mr 31,3
 412              		.cfi_offset 31, -4
 413              	.LVL16:
 414 021c 9001001C 		stw 0,28(1)
 415 0220 93A1000C 		stw 29,12(1)
 416              	.LBB1656:
 417              	.LBB1657:
 418              	.LBB1658:
 419              	.LBB1659:
 420              		.loc 2 38 0
 421 0224 3FA00000 		lis 29,_ZN12SoundHandler8instanceE@ha
 422              		.cfi_offset 29, -12
 423              		.cfi_offset 65, 4
 424              	.LBE1659:
 425              	.LBE1658:
 426              		.loc 1 279 0
 427 0228 8063000C 		lwz 3,12(3)
 428              	.LVL17:
 429              	.LBE1657:
 430              	.LBE1656:
 431              		.loc 1 112 0
 432 022c 93C10010 		stw 30,16(1)
 433              	.LBB1687:
 434              	.LBB1684:
 435              		.loc 1 279 0
 436 0230 2B83000F 		cmplwi 7,3,15
 437              	.LBB1663:
 438              	.LBB1660:
 439              		.loc 2 38 0
 440 0234 83DD0000 		lwz 30,_ZN12SoundHandler8instanceE@l(29)
 441              		.cfi_offset 30, -8
 442              	.LBE1660:
 443              	.LBE1663:
 444              		.loc 1 279 0
 445 0238 409D0064 		ble- 7,.L46
 446              	.L29:
 447              	.LBE1684:
 448              	.LBE1687:
 449              	.LBB1688:
 450              	.LBB1689:
 451              		.loc 2 38 0
 452 023c 2F9E0000 		cmpwi 7,30,0
 453 0240 419E00F8 		beq- 7,.L47
 454              	.L37:
 455              	.LBE1689:
 456              	.LBE1688:
 457              		.loc 1 115 0
 458 0244 809F000C 		lwz 4,12(31)
 459 0248 7FC3F378 		mr 3,30
 460              	.LEHB9:
 461 024c 48000001 		bl _ZN12SoundHandler13RemoveDecoderEi
 462              		.loc 1 117 0
 463 0250 881F001C 		lbz 0,28(31)
 464 0254 2F800000 		cmpwi 7,0,0
 465 0258 419E0020 		beq- 7,.L39
 466              		.loc 1 117 0 is_stmt 0 discriminator 1
 467 025c 807F0004 		lwz 3,4(31)
 468 0260 2F830000 		cmpwi 7,3,0
 469 0264 419E0014 		beq- 7,.L39
 470              		.loc 1 119 0 is_stmt 1
 471 0268 48000001 		bl free
 472              		.loc 1 120 0
 473 026c 38000000 		li 0,0
 474 0270 901F0004 		stw 0,4(31)
 475              		.loc 1 121 0
 476 0274 981F001C 		stb 0,28(31)
 477              	.L39:
 478              		.loc 1 124 0
 479 0278 38000000 		li 0,0
 480              		.loc 1 125 0
 481 027c 83A1000C 		lwz 29,12(1)
 482              		.loc 1 124 0
 483 0280 901F0018 		stw 0,24(31)
 484              		.loc 1 125 0
 485 0284 8001001C 		lwz 0,28(1)
 486 0288 83C10010 		lwz 30,16(1)
 487 028c 7C0803A6 		mtlr 0
 488 0290 83E10014 		lwz 31,20(1)
 489              	.LVL18:
 490 0294 38210018 		addi 1,1,24
 491              		.cfi_remember_state
 492              	.LCFI8:
 493              		.cfi_def_cfa_offset 0
 494              		.cfi_restore 31
 495              		.cfi_restore 30
 496              		.cfi_restore 29
 497 0298 4E800020 		blr
 498              	.LVL19:
 499              	.L46:
 500              	.LCFI9:
 501              		.cfi_restore_state
 502              	.LBB1691:
 503              	.LBB1685:
 504              		.loc 1 282 0
 505 029c 48000001 		bl ASND_StopVoice
 506              	.LBB1664:
 507              	.LBB1665:
 508              		.loc 2 38 0
 509 02a0 83DD0000 		lwz 30,_ZN12SoundHandler8instanceE@l(29)
 510 02a4 2F9E0000 		cmpwi 7,30,0
 511 02a8 419E00A8 		beq- 7,.L48
 512              	.L27:
 513              	.LBE1665:
 514              	.LBE1664:
 515              		.loc 1 284 0
 516 02ac 813F000C 		lwz 9,12(31)
 517              	.LVL20:
 518              	.LBB1667:
 519              	.LBB1668:
 520              		.loc 2 47 0
 521 02b0 2B89000F 		cmplwi 7,9,15
 522 02b4 41BDFF88 		bgt- 7,.L29
 523 02b8 39290004 		addi 9,9,4
 524 02bc 5529103A 		slwi 9,9,2
 525 02c0 7C7E482E 		lwzx 3,30,9
 526              	.LBE1668:
 527              	.LBE1667:
 528              		.loc 1 285 0
 529 02c4 2F830000 		cmpwi 7,3,0
 530 02c8 41BEFF74 		beq- 7,.L29
 531              		.loc 1 288 0
 532 02cc 81230000 		lwz 9,0(3)
 533 02d0 80090050 		lwz 0,80(9)
 534 02d4 7C0903A6 		mtctr 0
 535 02d8 4E800421 		bctrl
 536              	.LVL21:
 537              	.LBB1669:
 538              	.LBB1670:
 539              	.LBB1671:
 540              	.LBB1672:
 541              		.loc 2 38 0
 542 02dc 83DD0000 		lwz 30,_ZN12SoundHandler8instanceE@l(29)
 543 02e0 2F9E0000 		cmpwi 7,30,0
 544 02e4 419E009C 		beq- 7,.L49
 545              	.L31:
 546              	.LBE1672:
 547              	.LBE1671:
 548              		.loc 1 344 0
 549 02e8 813F000C 		lwz 9,12(31)
 550              	.LVL22:
 551              	.LBB1674:
 552              	.LBB1675:
 553              		.loc 2 47 0
 554 02ec 2B89000F 		cmplwi 7,9,15
 555 02f0 419D002C 		bgt- 7,.L33
 556 02f4 39290004 		addi 9,9,4
 557 02f8 5529103A 		slwi 9,9,2
 558 02fc 7C7E482E 		lwzx 3,30,9
 559              	.LBE1675:
 560              	.LBE1674:
 561              		.loc 1 345 0
 562 0300 2F830000 		cmpwi 7,3,0
 563 0304 419E0018 		beq- 7,.L33
 564              		.loc 1 348 0
 565 0308 81230000 		lwz 9,0(3)
 566 030c 80090014 		lwz 0,20(9)
 567 0310 7C0903A6 		mtctr 0
 568 0314 4E800421 		bctrl
 569              	.LVL23:
 570 0318 83DD0000 		lwz 30,_ZN12SoundHandler8instanceE@l(29)
 571              	.L33:
 572              	.LBE1670:
 573              	.LBE1669:
 574              	.LBB1678:
 575              	.LBB1661:
 576              		.loc 2 38 0
 577 031c 2F9E0000 		cmpwi 7,30,0
 578 0320 419E0048 		beq- 7,.L50
 579              	.L35:
 580              	.LBE1661:
 581              	.LBE1678:
 582              	.LBB1679:
 583              	.LBB1680:
 584              		.loc 2 48 0
 585 0324 807E0008 		lwz 3,8(30)
 586 0328 48000001 		bl LWP_ThreadSignal
 587 032c 83DD0000 		lwz 30,_ZN12SoundHandler8instanceE@l(29)
 588              	.LBE1680:
 589              	.LBE1679:
 590              	.LBE1685:
 591              	.LBE1691:
 592              	.LBB1692:
 593              	.LBB1690:
 594              		.loc 2 38 0
 595 0330 2F9E0000 		cmpwi 7,30,0
 596 0334 409EFF10 		bne+ 7,.L37
 597              	.LVL24:
 598              	.L47:
 599 0338 38600050 		li 3,80
 600 033c 48000001 		bl _Znwj
 601              	.LEHE9:
 602 0340 7C7E1B78 		mr 30,3
 603              	.LEHB10:
 604 0344 48000001 		bl _ZN12SoundHandlerC1Ev
 605              	.LEHE10:
 606 0348 93DD0000 		stw 30,_ZN12SoundHandler8instanceE@l(29)
 607 034c 4BFFFEF8 		b .L37
 608              	.L48:
 609              	.LBE1690:
 610              	.LBE1692:
 611              	.LBB1693:
 612              	.LBB1686:
 613              	.LBB1681:
 614              	.LBB1666:
 615 0350 38600050 		li 3,80
 616              	.LEHB11:
 617 0354 48000001 		bl _Znwj
 618              	.LEHE11:
 619 0358 7C7E1B78 		mr 30,3
 620              	.LEHB12:
 621 035c 48000001 		bl _ZN12SoundHandlerC1Ev
 622              	.LEHE12:
 623 0360 93DD0000 		stw 30,_ZN12SoundHandler8instanceE@l(29)
 624 0364 4BFFFF48 		b .L27
 625              	.LVL25:
 626              	.L50:
 627              	.LBE1666:
 628              	.LBE1681:
 629              	.LBB1682:
 630              	.LBB1662:
 631 0368 38600050 		li 3,80
 632              	.LEHB13:
 633 036c 48000001 		bl _Znwj
 634              	.LEHE13:
 635 0370 7C7E1B78 		mr 30,3
 636              	.LEHB14:
 637 0374 48000001 		bl _ZN12SoundHandlerC1Ev
 638              	.LEHE14:
 639 0378 93DD0000 		stw 30,_ZN12SoundHandler8instanceE@l(29)
 640 037c 4BFFFFA8 		b .L35
 641              	.L49:
 642              	.LBE1662:
 643              	.LBE1682:
 644              	.LBB1683:
 645              	.LBB1677:
 646              	.LBB1676:
 647              	.LBB1673:
 648 0380 38600050 		li 3,80
 649              	.LEHB15:
 650 0384 48000001 		bl _Znwj
 651              	.LEHE15:
 652 0388 7C7E1B78 		mr 30,3
 653              	.LEHB16:
 654 038c 48000001 		bl _ZN12SoundHandlerC1Ev
 655              	.LEHE16:
 656 0390 93DD0000 		stw 30,_ZN12SoundHandler8instanceE@l(29)
 657 0394 4BFFFF54 		b .L31
 658              	.LVL26:
 659              	.L44:
 660              	.L45:
 661 0398 7C7F1B78 		mr 31,3
 662              	.LVL27:
 663 039c 7FC3F378 		mr 3,30
 664 03a0 48000001 		bl _ZdlPv
 665 03a4 7FE3FB78 		mr 3,31
 666              	.LEHB17:
 667 03a8 48000001 		bl _Unwind_Resume
 668              	.LEHE17:
 669              	.LVL28:
 670              	.L42:
 671 03ac 4BFFFFEC 		b .L45
 672              	.LVL29:
 673              	.L41:
 674 03b0 4BFFFFE8 		b .L45
 675              	.LVL30:
 676              	.L43:
 677 03b4 4BFFFFE4 		b .L45
 678              	.LBE1673:
 679              	.LBE1676:
 680              	.LBE1677:
 681              	.LBE1683:
 682              	.LBE1686:
 683              	.LBE1693:
 684              		.cfi_endproc
 685              	.LFE1556:
 686              		.section	.gcc_except_table
 687              	.LLSDA1556:
 688 0035 FF       		.byte	0xff
 689 0036 FF       		.byte	0xff
 690 0037 01       		.byte	0x1
 691 0038 31       		.uleb128 .LLSDACSE1556-.LLSDACSB1556
 692              	.LLSDACSB1556:
 693 0039 40       		.uleb128 .LEHB9-.LFB1556
 694 003a F401     		.uleb128 .LEHE9-.LEHB9
 695 003c 00       		.uleb128 0
 696 003d 00       		.uleb128 0
 697 003e B802     		.uleb128 .LEHB10-.LFB1556
 698 0040 04       		.uleb128 .LEHE10-.LEHB10
 699 0041 8C03     		.uleb128 .L44-.LFB1556
 700 0043 00       		.uleb128 0
 701 0044 C802     		.uleb128 .LEHB11-.LFB1556
 702 0046 04       		.uleb128 .LEHE11-.LEHB11
 703 0047 00       		.uleb128 0
 704 0048 00       		.uleb128 0
 705 0049 D002     		.uleb128 .LEHB12-.LFB1556
 706 004b 04       		.uleb128 .LEHE12-.LEHB12
 707 004c A403     		.uleb128 .L41-.LFB1556
 708 004e 00       		.uleb128 0
 709 004f E002     		.uleb128 .LEHB13-.LFB1556
 710 0051 04       		.uleb128 .LEHE13-.LEHB13
 711 0052 00       		.uleb128 0
 712 0053 00       		.uleb128 0
 713 0054 E802     		.uleb128 .LEHB14-.LFB1556
 714 0056 04       		.uleb128 .LEHE14-.LEHB14
 715 0057 A803     		.uleb128 .L43-.LFB1556
 716 0059 00       		.uleb128 0
 717 005a F802     		.uleb128 .LEHB15-.LFB1556
 718 005c 04       		.uleb128 .LEHE15-.LEHB15
 719 005d 00       		.uleb128 0
 720 005e 00       		.uleb128 0
 721 005f 8003     		.uleb128 .LEHB16-.LFB1556
 722 0061 04       		.uleb128 .LEHE16-.LEHB16
 723 0062 A003     		.uleb128 .L42-.LFB1556
 724 0064 00       		.uleb128 0
 725 0065 9C03     		.uleb128 .LEHB17-.LFB1556
 726 0067 04       		.uleb128 .LEHE17-.LEHB17
 727 0068 00       		.uleb128 0
 728 0069 00       		.uleb128 0
 729              	.LLSDACSE1556:
 730              		.section	".text"
 731              		.size	_ZN8GuiSound10FreeMemoryEv, .-_ZN8GuiSound10FreeMemoryEv
 732              		.align 2
 733              		.globl _ZN8GuiSoundD2Ev
 734              		.type	_ZN8GuiSoundD2Ev, @function
 735              	_ZN8GuiSoundD2Ev:
 736              	.LFB1553:
 737              		.loc 1 104 0
 738              		.cfi_startproc
 739              	.LVL31:
 740 03b8 7C0802A6 		mflr 0
 741 03bc 9421FFF0 		stwu 1,-16(1)
 742              	.LCFI10:
 743              		.cfi_def_cfa_offset 16
 744              		.cfi_register 65, 0
 745              	.LBB1695:
 746 03c0 3D200000 		lis 9,_ZTV8GuiSound+8@ha
 747              	.LBE1695:
 748 03c4 93E1000C 		stw 31,12(1)
 749 03c8 7C7F1B78 		mr 31,3
 750              		.cfi_offset 31, -4
 751 03cc 90010014 		stw 0,20(1)
 752              	.LBB1696:
 753              		.loc 1 104 0
 754 03d0 38090008 		la 0,_ZTV8GuiSound+8@l(9)
 755              		.cfi_offset 65, 4
 756 03d4 90030000 		stw 0,0(3)
 757              		.loc 1 106 0
 758 03d8 48000001 		bl _ZN8GuiSound10FreeMemoryEv
 759              	.LVL32:
 760              		.loc 1 107 0
 761 03dc 801F000C 		lwz 0,12(31)
 762 03e0 2F800000 		cmpwi 7,0,0
 763 03e4 409D0014 		ble- 7,.L51
 764              		.loc 1 108 0
 765 03e8 3D200000 		lis 9,.LANCHOR0@ha
 766 03ec 39600000 		li 11,0
 767 03f0 39290000 		la 9,.LANCHOR0@l(9)
 768 03f4 7D6901AE 		stbx 11,9,0
 769              	.L51:
 770              	.LBE1696:
 771              		.loc 1 109 0
 772 03f8 80010014 		lwz 0,20(1)
 773 03fc 83E1000C 		lwz 31,12(1)
 774              	.LVL33:
 775 0400 7C0803A6 		mtlr 0
 776 0404 38210010 		addi 1,1,16
 777              	.LCFI11:
 778              		.cfi_def_cfa_offset 0
 779              		.cfi_restore 31
 780 0408 4E800020 		blr
 781              		.cfi_endproc
 782              	.LFE1553:
 783              		.size	_ZN8GuiSoundD2Ev, .-_ZN8GuiSoundD2Ev
 784              		.align 2
 785              		.globl _ZN8GuiSoundD0Ev
 786              		.type	_ZN8GuiSoundD0Ev, @function
 787              	_ZN8GuiSoundD0Ev:
 788              	.LFB1555:
 789              		.loc 1 104 0
 790              		.cfi_startproc
 791              	.LVL34:
 792 040c 7C0802A6 		mflr 0
 793 0410 9421FFF0 		stwu 1,-16(1)
 794              	.LCFI12:
 795              		.cfi_def_cfa_offset 16
 796              		.cfi_register 65, 0
 797              	.LBB1700:
 798              	.LBB1701:
 799              	.LBB1702:
 800 0414 3D200000 		lis 9,_ZTV8GuiSound+8@ha
 801              	.LBE1702:
 802              	.LBE1701:
 803              	.LBE1700:
 804 0418 93E1000C 		stw 31,12(1)
 805 041c 7C7F1B78 		mr 31,3
 806              		.cfi_offset 31, -4
 807              	.LVL35:
 808 0420 90010014 		stw 0,20(1)
 809              	.LBB1705:
 810              	.LBB1704:
 811              	.LBB1703:
 812              		.loc 1 104 0
 813 0424 38090008 		la 0,_ZTV8GuiSound+8@l(9)
 814              		.cfi_offset 65, 4
 815 0428 90030000 		stw 0,0(3)
 816              		.loc 1 106 0
 817 042c 48000001 		bl _ZN8GuiSound10FreeMemoryEv
 818              	.LVL36:
 819              		.loc 1 107 0
 820 0430 801F000C 		lwz 0,12(31)
 821 0434 2F800000 		cmpwi 7,0,0
 822 0438 409D0014 		ble- 7,.L55
 823              		.loc 1 108 0
 824 043c 3D200000 		lis 9,.LANCHOR0@ha
 825 0440 39600000 		li 11,0
 826 0444 39290000 		la 9,.LANCHOR0@l(9)
 827 0448 7D6901AE 		stbx 11,9,0
 828              	.LVL37:
 829              	.L55:
 830              	.LBE1703:
 831              	.LBE1704:
 832              	.LBE1705:
 833              		.loc 1 109 0 discriminator 1
 834 044c 7FE3FB78 		mr 3,31
 835 0450 48000001 		bl _ZdlPv
 836 0454 80010014 		lwz 0,20(1)
 837 0458 83E1000C 		lwz 31,12(1)
 838              	.LVL38:
 839 045c 7C0803A6 		mtlr 0
 840 0460 38210010 		addi 1,1,16
 841              	.LCFI13:
 842              		.cfi_def_cfa_offset 0
 843              		.cfi_restore 31
 844 0464 4E800020 		blr
 845              		.cfi_endproc
 846              	.LFE1555:
 847              		.size	_ZN8GuiSoundD0Ev, .-_ZN8GuiSoundD0Ev
 848              		.align 2
 849              		.globl _ZN8GuiSound15LoadSoundEffectEPKhi
 850              		.type	_ZN8GuiSound15LoadSoundEffectEPKhi, @function
 851              	_ZN8GuiSound15LoadSoundEffectEPKhi:
 852              	.LFB1559:
 853              		.loc 1 208 0
 854              		.cfi_startproc
 855              		.cfi_personality 0,__gxx_personality_v0
 856              		.cfi_lsda 0,.LLSDA1559
 857              	.LVL39:
 858 0468 9421FF88 		stwu 1,-120(1)
 859              	.LCFI14:
 860              		.cfi_def_cfa_offset 120
 861 046c 7C0802A6 		mflr 0
 862 0470 93C10070 		stw 30,112(1)
 863 0474 7C7E1B78 		mr 30,3
 864              		.cfi_offset 30, -8
 865              		.cfi_register 65, 0
 866              	.LBB1706:
 867              		.loc 1 209 0
 868 0478 38610008 		addi 3,1,8
 869              	.LVL40:
 870              	.LBE1706:
 871              		.loc 1 208 0
 872 047c 9001007C 		stw 0,124(1)
 873 0480 93E10074 		stw 31,116(1)
 874              	.LEHB18:
 875              	.LBB1709:
 876              		.loc 1 209 0
 877              		.cfi_offset 31, -4
 878              		.cfi_offset 65, 4
 879 0484 48000001 		bl _ZN10WavDecoderC1EPKhi
 880              	.LEHE18:
 881              	.LVL41:
 882              		.loc 1 210 0
 883 0488 38610008 		addi 3,1,8
 884              	.LEHB19:
 885 048c 48000001 		bl _ZN12SoundDecoder6RewindEv
 886              	.LVL42:
 887              		.loc 1 213 0
 888 0490 38601000 		li 3,4096
 889              		.loc 1 212 0
 890 0494 3BE00000 		li 31,0
 891              		.loc 1 213 0
 892 0498 48000001 		bl malloc
 893              		.loc 1 214 0
 894 049c 38800000 		li 4,0
 895              		.loc 1 213 0
 896 04a0 907E0004 		stw 3,4(30)
 897              		.loc 1 214 0
 898 04a4 38A01000 		li 5,4096
 899 04a8 48000001 		bl memset
 900 04ac 48000028 		b .L60
 901              	.LVL43:
 902              	.L57:
 903              	.LBB1707:
 904              		.loc 1 226 0
 905 04b0 909E0004 		stw 4,4(30)
 906              		.loc 1 228 0
 907 04b4 38610008 		addi 3,1,8
 908              	.LVL44:
 909 04b8 7C84FA14 		add 4,4,31
 910              	.LVL45:
 911 04bc 38A01000 		li 5,4096
 912 04c0 7FE6FB78 		mr 6,31
 913 04c4 48000001 		bl _ZN10WavDecoder4ReadEPhii
 914              	.LEHE19:
 915              	.LVL46:
 916              		.loc 1 229 0
 917 04c8 2C030000 		cmpwi 0,3,0
 918 04cc 40810058 		ble- 0,.L59
 919              		.loc 1 232 0
 920 04d0 7FFF1A14 		add 31,31,3
 921              	.LVL47:
 922              	.L60:
 923              		.loc 1 218 0
 924 04d4 807E0004 		lwz 3,4(30)
 925 04d8 389F1000 		addi 4,31,4096
 926 04dc 48000001 		bl realloc
 927              	.LVL48:
 928              		.loc 1 219 0
 929 04e0 7C641B79 		mr. 4,3
 930 04e4 4082FFCC 		bne+ 0,.L57
 931              		.loc 1 221 0
 932 04e8 807E0004 		lwz 3,4(30)
 933              	.LVL49:
 934              		.loc 1 223 0
 935 04ec 3BE00000 		li 31,0
 936              	.LVL50:
 937              		.loc 1 221 0
 938 04f0 90810068 		stw 4,104(1)
 939 04f4 48000001 		bl free
 940              	.LVL51:
 941              		.loc 1 222 0
 942 04f8 80810068 		lwz 4,104(1)
 943              	.LBE1707:
 944              		.loc 1 239 0
 945 04fc 38610008 		addi 3,1,8
 946              	.LBB1708:
 947              		.loc 1 222 0
 948 0500 909E0004 		stw 4,4(30)
 949              	.LEHB20:
 950              	.LBE1708:
 951              		.loc 1 239 0
 952 0504 48000001 		bl _ZN10WavDecoderD1Ev
 953              	.LBE1709:
 954              		.loc 1 240 0
 955 0508 8001007C 		lwz 0,124(1)
 956 050c 7FE3FB78 		mr 3,31
 957 0510 83C10070 		lwz 30,112(1)
 958              	.LVL52:
 959 0514 7C0803A6 		mtlr 0
 960 0518 83E10074 		lwz 31,116(1)
 961 051c 38210078 		addi 1,1,120
 962              		.cfi_remember_state
 963              	.LCFI15:
 964              		.cfi_def_cfa_offset 0
 965              		.cfi_restore 31
 966              		.cfi_restore 30
 967 0520 4E800020 		blr
 968              	.LVL53:
 969              	.L59:
 970              	.LCFI16:
 971              		.cfi_restore_state
 972              	.LBB1710:
 973              		.loc 1 235 0
 974 0524 807E0004 		lwz 3,4(30)
 975              	.LVL54:
 976 0528 7FE4FB78 		mr 4,31
 977 052c 48000001 		bl realloc
 978              		.loc 1 237 0
 979 0530 38000001 		li 0,1
 980              		.loc 1 235 0
 981 0534 907E0004 		stw 3,4(30)
 982              		.loc 1 239 0
 983 0538 38610008 		addi 3,1,8
 984              		.loc 1 236 0
 985 053c 93FE0018 		stw 31,24(30)
 986              		.loc 1 239 0
 987 0540 3BE00001 		li 31,1
 988              	.LVL55:
 989              		.loc 1 237 0
 990 0544 981E001C 		stb 0,28(30)
 991              		.loc 1 239 0
 992 0548 48000001 		bl _ZN10WavDecoderD1Ev
 993              	.LEHE20:
 994              	.LVL56:
 995              	.LBE1710:
 996              		.loc 1 240 0
 997 054c 8001007C 		lwz 0,124(1)
 998 0550 7FE3FB78 		mr 3,31
 999 0554 83C10070 		lwz 30,112(1)
 1000              	.LVL57:
 1001 0558 7C0803A6 		mtlr 0
 1002 055c 83E10074 		lwz 31,116(1)
 1003 0560 38210078 		addi 1,1,120
 1004              		.cfi_remember_state
 1005              		.cfi_restore 30
 1006              		.cfi_restore 31
 1007              	.LCFI17:
 1008              		.cfi_def_cfa_offset 0
 1009 0564 4E800020 		blr
 1010              	.LVL58:
 1011              	.L62:
 1012              	.LCFI18:
 1013              		.cfi_restore_state
 1014 0568 7C7F1B78 		mr 31,3
 1015              	.LBB1711:
 1016              		.loc 1 239 0
 1017 056c 38610008 		addi 3,1,8
 1018 0570 48000001 		bl _ZN10WavDecoderD1Ev
 1019 0574 7FE3FB78 		mr 3,31
 1020              	.LEHB21:
 1021 0578 48000001 		bl _Unwind_Resume
 1022              	.LEHE21:
 1023              	.LBE1711:
 1024              		.cfi_endproc
 1025              	.LFE1559:
 1026              		.section	.gcc_except_table
 1027              	.LLSDA1559:
 1028 006a FF       		.byte	0xff
 1029 006b FF       		.byte	0xff
 1030 006c 01       		.byte	0x1
 1031 006d 13       		.uleb128 .LLSDACSE1559-.LLSDACSB1559
 1032              	.LLSDACSB1559:
 1033 006e 1C       		.uleb128 .LEHB18-.LFB1559
 1034 006f 04       		.uleb128 .LEHE18-.LEHB18
 1035 0070 00       		.uleb128 0
 1036 0071 00       		.uleb128 0
 1037 0072 24       		.uleb128 .LEHB19-.LFB1559
 1038 0073 3C       		.uleb128 .LEHE19-.LEHB19
 1039 0074 8002     		.uleb128 .L62-.LFB1559
 1040 0076 00       		.uleb128 0
 1041 0077 9C01     		.uleb128 .LEHB20-.LFB1559
 1042 0079 48       		.uleb128 .LEHE20-.LEHB20
 1043 007a 00       		.uleb128 0
 1044 007b 00       		.uleb128 0
 1045 007c 9002     		.uleb128 .LEHB21-.LFB1559
 1046 007e 04       		.uleb128 .LEHE21-.LEHB21
 1047 007f 00       		.uleb128 0
 1048 0080 00       		.uleb128 0
 1049              	.LLSDACSE1559:
 1050              		.section	".text"
 1051              		.size	_ZN8GuiSound15LoadSoundEffectEPKhi, .-_ZN8GuiSound15LoadSoundEffectEPKhi
 1052              		.align 2
 1053              		.globl _ZN8GuiSound4LoadEPKhib
 1054              		.type	_ZN8GuiSound4LoadEPKhib, @function
 1055              	_ZN8GuiSound4LoadEPKhib:
 1056              	.LFB1558:
 1057              		.loc 1 168 0
 1058              		.cfi_startproc
 1059              		.cfi_personality 0,__gxx_personality_v0
 1060              		.cfi_lsda 0,.LLSDA1558
 1061              	.LVL59:
 1062 057c 9421FFD0 		stwu 1,-48(1)
 1063              	.LCFI19:
 1064              		.cfi_def_cfa_offset 48
 1065 0580 7C0802A6 		mflr 0
 1066 0584 7D800026 		mfcr 12
 1067 0588 93C10028 		stw 30,40(1)
 1068 058c 7C9E2378 		mr 30,4
 1069              		.cfi_offset 30, -8
 1070              		.cfi_register 70, 12
 1071              		.cfi_register 65, 0
 1072 0590 93810020 		stw 28,32(1)
 1073 0594 7CDC3378 		mr 28,6
 1074              		.cfi_offset 28, -16
 1075 0598 93A10024 		stw 29,36(1)
 1076 059c 7CBD2B78 		mr 29,5
 1077              		.cfi_offset 29, -12
 1078 05a0 93E1002C 		stw 31,44(1)
 1079 05a4 7C7F1B78 		mr 31,3
 1080              		.cfi_offset 31, -4
 1081 05a8 90010034 		stw 0,52(1)
 1082 05ac 9181001C 		stw 12,28(1)
 1083              	.LEHB22:
 1084              	.LBB1733:
 1085              		.loc 1 169 0
 1086              		.cfi_offset 70, -20
 1087              		.cfi_offset 65, 4
 1088 05b0 48000001 		bl _ZN8GuiSound10FreeMemoryEv
 1089              	.LVL60:
 1090              		.loc 1 171 0
 1091 05b4 2F9E0000 		cmpwi 7,30,0
 1092 05b8 419E0110 		beq- 7,.L85
 1093              		.loc 1 174 0
 1094 05bc 2E1C0000 		cmpwi 4,28,0
 1095 05c0 801E0000 		lwz 0,0(30)
 1096 05c4 41920134 		beq- 4,.L92
 1097              	.L66:
 1098              		.loc 1 179 0
 1099 05c8 6C09494D 		xoris 9,0,0x494d
 1100 05cc 2F894435 		cmpwi 7,9,17461
 1101 05d0 419E0190 		beq 7,.L93
 1102              		.loc 1 185 0
 1103 05d4 93DF0004 		stw 30,4(31)
 1104              		.loc 1 186 0
 1105 05d8 93BF0008 		stw 29,8(31)
 1106              		.loc 1 187 0
 1107 05dc 9B9F001C 		stb 28,28(31)
 1108              	.LVL61:
 1109              	.L71:
 1110              	.LBB1734:
 1111              	.LBB1735:
 1112              		.loc 2 38 0
 1113 05e0 3FC00000 		lis 30,_ZN12SoundHandler8instanceE@ha
 1114              	.LVL62:
 1115 05e4 83BE0000 		lwz 29,_ZN12SoundHandler8instanceE@l(30)
 1116 05e8 2F9D0000 		cmpwi 7,29,0
 1117 05ec 419E01C4 		beq- 7,.L94
 1118              	.L72:
 1119              	.LBE1735:
 1120              	.LBE1734:
 1121              		.loc 1 190 0
 1122 05f0 809F000C 		lwz 4,12(31)
 1123 05f4 7FA3EB78 		mr 3,29
 1124 05f8 80BF0004 		lwz 5,4(31)
 1125 05fc 80DF0008 		lwz 6,8(31)
 1126 0600 48000001 		bl _ZN12SoundHandler10AddDecoderEiPKhi
 1127              	.LBB1737:
 1128              	.LBB1738:
 1129              		.loc 2 38 0
 1130 0604 83BE0000 		lwz 29,_ZN12SoundHandler8instanceE@l(30)
 1131 0608 2F9D0000 		cmpwi 7,29,0
 1132 060c 419E01BC 		beq- 7,.L95
 1133              	.L74:
 1134              	.LBE1738:
 1135              	.LBE1737:
 1136              		.loc 1 192 0
 1137 0610 813F000C 		lwz 9,12(31)
 1138              	.LVL63:
 1139              	.LBB1741:
 1140              	.LBB1742:
 1141              		.loc 2 47 0
 1142 0614 2B89000F 		cmplwi 7,9,15
 1143 0618 419D00B0 		bgt- 7,.L85
 1144 061c 39290004 		addi 9,9,4
 1145 0620 5529103A 		slwi 9,9,2
 1146 0624 7C7D482E 		lwzx 3,29,9
 1147              	.LBE1742:
 1148              	.LBE1741:
 1149              		.loc 1 193 0
 1150 0628 2F830000 		cmpwi 7,3,0
 1151 062c 419E009C 		beq- 7,.L85
 1152              		.loc 1 196 0
 1153 0630 81230000 		lwz 9,0(3)
 1154 0634 80090038 		lwz 0,56(9)
 1155 0638 7C0903A6 		mtctr 0
 1156 063c 4E800421 		bctrl
 1157              	.LVL64:
 1158              	.LBB1743:
 1159              	.LBB1744:
 1160              		.loc 2 38 0
 1161 0640 83BE0000 		lwz 29,_ZN12SoundHandler8instanceE@l(30)
 1162              	.LBE1744:
 1163              	.LBE1743:
 1164              		.loc 1 196 0
 1165 0644 2F830000 		cmpwi 7,3,0
 1166 0648 419E00D4 		beq- 7,.L96
 1167              	.LBB1747:
 1168              	.LBB1748:
 1169              	.LBB1749:
 1170              	.LBB1750:
 1171              		.loc 2 38 0
 1172 064c 2F9D0000 		cmpwi 7,29,0
 1173              	.LBE1750:
 1174              	.LBE1749:
 1175              	.LBE1748:
 1176              	.LBE1747:
 1177              		.loc 1 202 0
 1178 0650 8B9F0014 		lbz 28,20(31)
 1179              	.LVL65:
 1180              	.LBB1761:
 1181              	.LBB1759:
 1182              	.LBB1753:
 1183              	.LBB1751:
 1184              		.loc 2 38 0
 1185 0654 419E018C 		beq- 7,.L97
 1186              	.L81:
 1187              	.LBE1751:
 1188              	.LBE1753:
 1189              		.loc 1 335 0
 1190 0658 813F000C 		lwz 9,12(31)
 1191              	.LVL66:
 1192              	.LBB1754:
 1193              	.LBB1755:
 1194              		.loc 1 204 0
 1195 065c 3BE00001 		li 31,1
 1196              	.LVL67:
 1197              		.loc 2 47 0
 1198 0660 2B89000F 		cmplwi 7,9,15
 1199 0664 419D0068 		bgt- 7,.L64
 1200 0668 39290004 		addi 9,9,4
 1201              	.LVL68:
 1202              	.LBE1755:
 1203              	.LBE1754:
 1204              		.loc 1 204 0
 1205 066c 3BE00001 		li 31,1
 1206              	.LBB1757:
 1207              	.LBB1756:
 1208              		.loc 2 47 0
 1209 0670 5529103A 		slwi 9,9,2
 1210              	.LVL69:
 1211 0674 7C7D482E 		lwzx 3,29,9
 1212              	.LBE1756:
 1213              	.LBE1757:
 1214              		.loc 1 336 0
 1215 0678 2F830000 		cmpwi 7,3,0
 1216 067c 419E0050 		beq- 7,.L64
 1217              		.loc 1 339 0
 1218 0680 81230000 		lwz 9,0(3)
 1219 0684 6B840001 		xori 4,28,1
 1220 0688 7C840034 		cntlzw 4,4
 1221 068c 80090048 		lwz 0,72(9)
 1222 0690 5484D97E 		srwi 4,4,5
 1223 0694 7C0903A6 		mtctr 0
 1224 0698 4E800421 		bctrl
 1225              	.LBE1759:
 1226              	.LBE1761:
 1227              	.LBE1733:
 1228              		.loc 1 205 0
 1229 069c 80010034 		lwz 0,52(1)
 1230 06a0 8181001C 		lwz 12,28(1)
 1231 06a4 7FE3FB78 		mr 3,31
 1232 06a8 7C0803A6 		mtlr 0
 1233 06ac 83810020 		lwz 28,32(1)
 1234              	.LVL70:
 1235 06b0 83A10024 		lwz 29,36(1)
 1236 06b4 7D808120 		mtcrf 8,12
 1237 06b8 83C10028 		lwz 30,40(1)
 1238 06bc 83E1002C 		lwz 31,44(1)
 1239 06c0 38210030 		addi 1,1,48
 1240              		.cfi_remember_state
 1241              		.cfi_restore 28
 1242              		.cfi_restore 29
 1243              		.cfi_restore 30
 1244              		.cfi_restore 31
 1245              		.cfi_restore 70
 1246              	.LCFI20:
 1247              		.cfi_def_cfa_offset 0
 1248 06c4 4E800020 		blr
 1249              	.LVL71:
 1250              	.L85:
 1251              	.LCFI21:
 1252              		.cfi_restore_state
 1253              	.LBB1776:
 1254              		.loc 1 194 0
 1255 06c8 3BE00000 		li 31,0
 1256              	.LVL72:
 1257              	.L64:
 1258              	.LBE1776:
 1259              		.loc 1 205 0
 1260 06cc 80010034 		lwz 0,52(1)
 1261 06d0 7FE3FB78 		mr 3,31
 1262 06d4 8181001C 		lwz 12,28(1)
 1263 06d8 7C0803A6 		mtlr 0
 1264 06dc 83810020 		lwz 28,32(1)
 1265 06e0 83A10024 		lwz 29,36(1)
 1266 06e4 7D808120 		mtcrf 8,12
 1267 06e8 83C10028 		lwz 30,40(1)
 1268 06ec 83E1002C 		lwz 31,44(1)
 1269 06f0 38210030 		addi 1,1,48
 1270              		.cfi_remember_state
 1271              	.LCFI22:
 1272              		.cfi_def_cfa_offset 0
 1273              		.cfi_restore 70
 1274              		.cfi_restore 31
 1275              		.cfi_restore 30
 1276              		.cfi_restore 29
 1277              		.cfi_restore 28
 1278 06f4 4E800020 		blr
 1279              	.LVL73:
 1280              	.L92:
 1281              	.LCFI23:
 1282              		.cfi_restore_state
 1283              	.LBB1777:
 1284              		.loc 1 174 0 discriminator 1
 1285 06f8 6C095249 		xoris 9,0,0x5249
 1286 06fc 2F894646 		cmpwi 7,9,17990
 1287 0700 409EFEC8 		bne 7,.L66
 1288              		.loc 1 176 0
 1289 0704 7FE3FB78 		mr 3,31
 1290 0708 7FC4F378 		mr 4,30
 1291 070c 7FA5EB78 		mr 5,29
 1292 0710 48000001 		bl _ZN8GuiSound15LoadSoundEffectEPKhi
 1293 0714 7C7F1B78 		mr 31,3
 1294              	.LVL74:
 1295 0718 4BFFFFB4 		b .L64
 1296              	.LVL75:
 1297              	.L96:
 1298              	.LBB1762:
 1299              	.LBB1745:
 1300              		.loc 2 38 0
 1301 071c 2F9D0000 		cmpwi 7,29,0
 1302 0720 419E0100 		beq- 7,.L98
 1303              	.L79:
 1304              	.LBE1745:
 1305              	.LBE1762:
 1306              		.loc 1 198 0
 1307 0724 809F000C 		lwz 4,12(31)
 1308 0728 7FA3EB78 		mr 3,29
 1309              		.loc 1 199 0
 1310 072c 3BE00000 		li 31,0
 1311              	.LVL76:
 1312              		.loc 1 198 0
 1313 0730 48000001 		bl _ZN12SoundHandler13RemoveDecoderEi
 1314              	.LBE1777:
 1315              		.loc 1 205 0
 1316 0734 80010034 		lwz 0,52(1)
 1317 0738 8181001C 		lwz 12,28(1)
 1318 073c 7FE3FB78 		mr 3,31
 1319 0740 7C0803A6 		mtlr 0
 1320 0744 83810020 		lwz 28,32(1)
 1321 0748 83A10024 		lwz 29,36(1)
 1322 074c 7D808120 		mtcrf 8,12
 1323 0750 83C10028 		lwz 30,40(1)
 1324 0754 83E1002C 		lwz 31,44(1)
 1325 0758 38210030 		addi 1,1,48
 1326              		.cfi_remember_state
 1327              		.cfi_restore 28
 1328              		.cfi_restore 29
 1329              		.cfi_restore 30
 1330              		.cfi_restore 31
 1331              		.cfi_restore 70
 1332              	.LCFI24:
 1333              		.cfi_def_cfa_offset 0
 1334 075c 4E800020 		blr
 1335              	.LVL77:
 1336              	.L93:
 1337              	.LCFI25:
 1338              		.cfi_restore_state
 1339              	.LBB1778:
 1340              	.LBB1763:
 1341              	.LBB1764:
 1342              	.LBB1765:
 1343              		.loc 1 354 0
 1344 0760 813E0020 		lwz 9,32(30)
 1345 0764 3C004C5A 		lis 0,0x4c5a
 1346 0768 60003737 		ori 0,0,14135
 1347              	.LBE1765:
 1348              		.loc 1 353 0
 1349 076c 3B9E0020 		addi 28,30,32
 1350              	.LVL78:
 1351              	.LBB1767:
 1352              		.loc 1 354 0
 1353 0770 7F890000 		cmpw 7,9,0
 1354 0774 419E0084 		beq- 7,.L99
 1355              		.loc 1 362 0
 1356 0778 3BBDFFE0 		addi 29,29,-32
 1357              	.LVL79:
 1358 077c 93BF0008 		stw 29,8(31)
 1359              		.loc 1 363 0
 1360 0780 7FA3EB78 		mr 3,29
 1361 0784 48000001 		bl malloc
 1362              		.loc 1 364 0
 1363 0788 7F84E378 		mr 4,28
 1364              		.loc 1 363 0
 1365 078c 907F0004 		stw 3,4(31)
 1366              		.loc 1 364 0
 1367 0790 7FA5EB78 		mr 5,29
 1368 0794 48000001 		bl memcpy
 1369              	.LVL80:
 1370              	.L69:
 1371              	.LBE1767:
 1372              		.loc 1 367 0
 1373 0798 41B2000C 		beq+ 4,.L70
 1374              		.loc 1 368 0
 1375 079c 7FC3F378 		mr 3,30
 1376 07a0 48000001 		bl free
 1377              	.LVL81:
 1378              	.L70:
 1379              		.loc 1 370 0
 1380 07a4 38000001 		li 0,1
 1381 07a8 981F001C 		stb 0,28(31)
 1382 07ac 4BFFFE34 		b .L71
 1383              	.LVL82:
 1384              	.L94:
 1385              	.LBE1764:
 1386              	.LBE1763:
 1387              	.LBB1770:
 1388              	.LBB1736:
 1389              		.loc 2 38 0
 1390 07b0 38600050 		li 3,80
 1391 07b4 48000001 		bl _Znwj
 1392              	.LEHE22:
 1393 07b8 7C7D1B78 		mr 29,3
 1394              	.LEHB23:
 1395 07bc 48000001 		bl _ZN12SoundHandlerC1Ev
 1396              	.LEHE23:
 1397 07c0 93BE0000 		stw 29,_ZN12SoundHandler8instanceE@l(30)
 1398 07c4 4BFFFE2C 		b .L72
 1399              	.L95:
 1400              	.LBE1736:
 1401              	.LBE1770:
 1402              	.LBB1771:
 1403              	.LBB1739:
 1404 07c8 38600050 		li 3,80
 1405              	.LEHB24:
 1406 07cc 48000001 		bl _Znwj
 1407              	.LEHE24:
 1408 07d0 7C7D1B78 		mr 29,3
 1409              	.LEHB25:
 1410 07d4 48000001 		bl _ZN12SoundHandlerC1Ev
 1411              	.LEHE25:
 1412 07d8 93BE0000 		stw 29,_ZN12SoundHandler8instanceE@l(30)
 1413 07dc 4BFFFE34 		b .L74
 1414              	.LVL83:
 1415              	.L97:
 1416              	.LBE1739:
 1417              	.LBE1771:
 1418              	.LBB1772:
 1419              	.LBB1760:
 1420              	.LBB1758:
 1421              	.LBB1752:
 1422 07e0 38600050 		li 3,80
 1423              	.LEHB26:
 1424 07e4 48000001 		bl _Znwj
 1425              	.LEHE26:
 1426 07e8 7C7D1B78 		mr 29,3
 1427              	.LEHB27:
 1428 07ec 48000001 		bl _ZN12SoundHandlerC1Ev
 1429              	.LEHE27:
 1430 07f0 93BE0000 		stw 29,_ZN12SoundHandler8instanceE@l(30)
 1431 07f4 4BFFFE64 		b .L81
 1432              	.LVL84:
 1433              	.L99:
 1434              	.LBE1752:
 1435              	.LBE1758:
 1436              	.LBE1760:
 1437              	.LBE1772:
 1438              	.LBB1773:
 1439              	.LBB1769:
 1440              	.LBB1768:
 1441              	.LBB1766:
 1442              		.loc 1 356 0
 1443 07f8 38000000 		li 0,0
 1444 07fc 7C250B78 		mr 5,1
 1445 0800 94050008 		stwu 0,8(5)
 1446              	.LVL85:
 1447              		.loc 1 357 0
 1448 0804 7F83E378 		mr 3,28
 1449 0808 389DFFE0 		addi 4,29,-32
 1450              	.LEHB28:
 1451 080c 48000001 		bl uncompressLZ77
 1452              		.loc 1 358 0
 1453 0810 80010008 		lwz 0,8(1)
 1454              		.loc 1 357 0
 1455 0814 907F0004 		stw 3,4(31)
 1456              		.loc 1 358 0
 1457 0818 901F0008 		stw 0,8(31)
 1458 081c 4BFFFF7C 		b .L69
 1459              	.LVL86:
 1460              	.L98:
 1461              	.LBE1766:
 1462              	.LBE1768:
 1463              	.LBE1769:
 1464              	.LBE1773:
 1465              	.LBB1774:
 1466              	.LBB1746:
 1467              		.loc 2 38 0
 1468 0820 38600050 		li 3,80
 1469 0824 48000001 		bl _Znwj
 1470              	.LEHE28:
 1471 0828 7C7D1B78 		mr 29,3
 1472              	.LEHB29:
 1473 082c 48000001 		bl _ZN12SoundHandlerC1Ev
 1474              	.LEHE29:
 1475 0830 93BE0000 		stw 29,_ZN12SoundHandler8instanceE@l(30)
 1476 0834 4BFFFEF0 		b .L79
 1477              	.LVL87:
 1478              	.L90:
 1479              	.L91:
 1480 0838 7C7F1B78 		mr 31,3
 1481              	.LVL88:
 1482              	.LBE1746:
 1483              	.LBE1774:
 1484              	.LBB1775:
 1485              	.LBB1740:
 1486 083c 7FA3EB78 		mr 3,29
 1487 0840 48000001 		bl _ZdlPv
 1488 0844 7FE3FB78 		mr 3,31
 1489              	.LEHB30:
 1490 0848 48000001 		bl _Unwind_Resume
 1491              	.LEHE30:
 1492              	.LVL89:
 1493              	.L89:
 1494 084c 4BFFFFEC 		b .L91
 1495              	.L88:
 1496 0850 4BFFFFE8 		b .L91
 1497              	.L87:
 1498 0854 4BFFFFE4 		b .L91
 1499              	.LBE1740:
 1500              	.LBE1775:
 1501              	.LBE1778:
 1502              		.cfi_endproc
 1503              	.LFE1558:
 1504              		.section	.gcc_except_table
 1505              	.LLSDA1558:
 1506 0081 FF       		.byte	0xff
 1507 0082 FF       		.byte	0xff
 1508 0083 01       		.byte	0x1
 1509 0084 31       		.uleb128 .LLSDACSE1558-.LLSDACSB1558
 1510              	.LLSDACSB1558:
 1511 0085 34       		.uleb128 .LEHB22-.LFB1558
 1512 0086 8804     		.uleb128 .LEHE22-.LEHB22
 1513 0088 00       		.uleb128 0
 1514 0089 00       		.uleb128 0
 1515 008a C004     		.uleb128 .LEHB23-.LFB1558
 1516 008c 04       		.uleb128 .LEHE23-.LEHB23
 1517 008d D805     		.uleb128 .L87-.LFB1558
 1518 008f 00       		.uleb128 0
 1519 0090 D004     		.uleb128 .LEHB24-.LFB1558
 1520 0092 04       		.uleb128 .LEHE24-.LEHB24
 1521 0093 00       		.uleb128 0
 1522 0094 00       		.uleb128 0
 1523 0095 D804     		.uleb128 .LEHB25-.LFB1558
 1524 0097 04       		.uleb128 .LEHE25-.LEHB25
 1525 0098 D405     		.uleb128 .L88-.LFB1558
 1526 009a 00       		.uleb128 0
 1527 009b E804     		.uleb128 .LEHB26-.LFB1558
 1528 009d 04       		.uleb128 .LEHE26-.LEHB26
 1529 009e 00       		.uleb128 0
 1530 009f 00       		.uleb128 0
 1531 00a0 F004     		.uleb128 .LEHB27-.LFB1558
 1532 00a2 04       		.uleb128 .LEHE27-.LEHB27
 1533 00a3 BC05     		.uleb128 .L90-.LFB1558
 1534 00a5 00       		.uleb128 0
 1535 00a6 9005     		.uleb128 .LEHB28-.LFB1558
 1536 00a8 1C       		.uleb128 .LEHE28-.LEHB28
 1537 00a9 00       		.uleb128 0
 1538 00aa 00       		.uleb128 0
 1539 00ab B005     		.uleb128 .LEHB29-.LFB1558
 1540 00ad 04       		.uleb128 .LEHE29-.LEHB29
 1541 00ae D005     		.uleb128 .L89-.LFB1558
 1542 00b0 00       		.uleb128 0
 1543 00b1 CC05     		.uleb128 .LEHB30-.LFB1558
 1544 00b3 04       		.uleb128 .LEHE30-.LEHB30
 1545 00b4 00       		.uleb128 0
 1546 00b5 00       		.uleb128 0
 1547              	.LLSDACSE1558:
 1548              		.section	".text"
 1549              		.size	_ZN8GuiSound4LoadEPKhib, .-_ZN8GuiSound4LoadEPKhib
 1550              		.align 2
 1551              		.globl _ZN8GuiSoundC2EPKhibi
 1552              		.type	_ZN8GuiSoundC2EPKhibi, @function
 1553              	_ZN8GuiSoundC2EPKhibi:
 1554              	.LFB1550:
 1555              		.loc 1 85 0
 1556              		.cfi_startproc
 1557              	.LVL90:
 1558              	.LBB1779:
 1559              		.loc 1 89 0
 1560 0858 2C070000 		cmpwi 0,7,0
 1561              		.loc 1 85 0
 1562 085c 3D200000 		lis 9,_ZTV8GuiSound+8@ha
 1563              		.loc 1 87 0
 1564 0860 38000000 		li 0,0
 1565              		.loc 1 85 0
 1566 0864 39290008 		la 9,_ZTV8GuiSound+8@l(9)
 1567 0868 91230000 		stw 9,0(3)
 1568              		.loc 1 87 0
 1569 086c 90030004 		stw 0,4(3)
 1570              		.loc 1 88 0
 1571 0870 90030008 		stw 0,8(3)
 1572              		.loc 1 89 0
 1573 0874 41800038 		blt- 0,.L121
 1574              		.loc 1 92 0
 1575 0878 90E3000C 		stw 7,12(3)
 1576              	.LVL91:
 1577              	.L104:
 1578              		.loc 1 94 0
 1579 087c 40810014 		ble- 0,.L105
 1580              		.loc 1 95 0
 1581 0880 3D200000 		lis 9,.LANCHOR0@ha
 1582 0884 38000001 		li 0,1
 1583 0888 39290000 		la 9,.LANCHOR0@l(9)
 1584 088c 7C0939AE 		stbx 0,9,7
 1585              	.L105:
 1586              		.loc 1 98 0
 1587 0890 38000000 		li 0,0
 1588              		.loc 1 97 0
 1589 0894 392000FF 		li 9,255
 1590 0898 91230010 		stw 9,16(3)
 1591              		.loc 1 98 0
 1592 089c 90030018 		stw 0,24(3)
 1593              		.loc 1 99 0
 1594 08a0 98030014 		stb 0,20(3)
 1595              		.loc 1 100 0
 1596 08a4 9803001C 		stb 0,28(3)
 1597              	.LBE1779:
 1598              		.loc 1 102 0
 1599              	.LBB1784:
 1600              		.loc 1 101 0
 1601 08a8 48000000 		b _ZN8GuiSound4LoadEPKhib
 1602              	.LVL92:
 1603              	.L121:
 1604              	.LBB1780:
 1605              	.LBB1781:
 1606              		.loc 1 37 0
 1607 08ac 3D200000 		lis 9,.LANCHOR0@ha
 1608 08b0 38E00001 		li 7,1
 1609              	.LVL93:
 1610 08b4 39290000 		la 9,.LANCHOR0@l(9)
 1611 08b8 88090001 		lbz 0,1(9)
 1612 08bc 2F800000 		cmpwi 7,0,0
 1613 08c0 419E00E4 		beq- 7,.L103
 1614              	.LVL94:
 1615 08c4 88090002 		lbz 0,2(9)
 1616              		.loc 1 35 0
 1617 08c8 38E00002 		li 7,2
 1618              		.loc 1 37 0
 1619 08cc 2F800000 		cmpwi 7,0,0
 1620 08d0 419E00D4 		beq- 7,.L103
 1621              	.LVL95:
 1622 08d4 88090003 		lbz 0,3(9)
 1623              		.loc 1 35 0
 1624 08d8 38E00003 		li 7,3
 1625              		.loc 1 37 0
 1626 08dc 2F800000 		cmpwi 7,0,0
 1627 08e0 419E00C4 		beq- 7,.L103
 1628              	.LVL96:
 1629 08e4 88090004 		lbz 0,4(9)
 1630              		.loc 1 35 0
 1631 08e8 38E00004 		li 7,4
 1632              		.loc 1 37 0
 1633 08ec 2F800000 		cmpwi 7,0,0
 1634 08f0 419E00B4 		beq- 7,.L103
 1635              	.LVL97:
 1636 08f4 88090005 		lbz 0,5(9)
 1637              		.loc 1 35 0
 1638 08f8 38E00005 		li 7,5
 1639              		.loc 1 37 0
 1640 08fc 2F800000 		cmpwi 7,0,0
 1641 0900 419E00A4 		beq- 7,.L103
 1642              	.LVL98:
 1643 0904 88090006 		lbz 0,6(9)
 1644              		.loc 1 35 0
 1645 0908 38E00006 		li 7,6
 1646              		.loc 1 37 0
 1647 090c 2F800000 		cmpwi 7,0,0
 1648 0910 419E0094 		beq- 7,.L103
 1649              	.LVL99:
 1650 0914 88090007 		lbz 0,7(9)
 1651              		.loc 1 35 0
 1652 0918 38E00007 		li 7,7
 1653              		.loc 1 37 0
 1654 091c 2F800000 		cmpwi 7,0,0
 1655 0920 419E0084 		beq- 7,.L103
 1656              	.LVL100:
 1657 0924 88090008 		lbz 0,8(9)
 1658              		.loc 1 35 0
 1659 0928 38E00008 		li 7,8
 1660              		.loc 1 37 0
 1661 092c 2F800000 		cmpwi 7,0,0
 1662 0930 419E0074 		beq- 7,.L103
 1663              	.LVL101:
 1664 0934 88090009 		lbz 0,9(9)
 1665              		.loc 1 35 0
 1666 0938 38E00009 		li 7,9
 1667              		.loc 1 37 0
 1668 093c 2F800000 		cmpwi 7,0,0
 1669 0940 419E0064 		beq- 7,.L103
 1670              	.LVL102:
 1671 0944 8809000A 		lbz 0,10(9)
 1672              		.loc 1 35 0
 1673 0948 38E0000A 		li 7,10
 1674              		.loc 1 37 0
 1675 094c 2F800000 		cmpwi 7,0,0
 1676 0950 419E0054 		beq- 7,.L103
 1677              	.LVL103:
 1678 0954 8809000B 		lbz 0,11(9)
 1679              		.loc 1 35 0
 1680 0958 38E0000B 		li 7,11
 1681              		.loc 1 37 0
 1682 095c 2F800000 		cmpwi 7,0,0
 1683 0960 419E0044 		beq- 7,.L103
 1684              	.LVL104:
 1685 0964 8809000C 		lbz 0,12(9)
 1686              		.loc 1 35 0
 1687 0968 38E0000C 		li 7,12
 1688              		.loc 1 37 0
 1689 096c 2F800000 		cmpwi 7,0,0
 1690 0970 419E0034 		beq- 7,.L103
 1691              	.LVL105:
 1692 0974 8809000D 		lbz 0,13(9)
 1693              		.loc 1 35 0
 1694 0978 38E0000D 		li 7,13
 1695              		.loc 1 37 0
 1696 097c 2F800000 		cmpwi 7,0,0
 1697 0980 419E0024 		beq- 7,.L103
 1698              	.LVL106:
 1699 0984 8809000E 		lbz 0,14(9)
 1700              		.loc 1 35 0
 1701 0988 38E0000E 		li 7,14
 1702              		.loc 1 37 0
 1703 098c 2F800000 		cmpwi 7,0,0
 1704 0990 419E0014 		beq- 7,.L103
 1705              	.LVL107:
 1706 0994 8809000F 		lbz 0,15(9)
 1707              		.loc 1 41 0
 1708 0998 38E0FFFF 		li 7,-1
 1709              		.loc 1 37 0
 1710 099c 2F800000 		cmpwi 7,0,0
 1711 09a0 419E0010 		beq- 7,.L122
 1712              	.LVL108:
 1713              	.L103:
 1714              	.LBE1781:
 1715              	.LBE1780:
 1716              		.loc 1 90 0
 1717 09a4 90E3000C 		stw 7,12(3)
 1718 09a8 2C070000 		cmpwi 0,7,0
 1719 09ac 4BFFFED0 		b .L104
 1720              	.LVL109:
 1721              	.L122:
 1722              	.LBB1783:
 1723              	.LBB1782:
 1724              		.loc 1 37 0
 1725 09b0 38E0000F 		li 7,15
 1726 09b4 4BFFFFF0 		b .L103
 1727              	.LBE1782:
 1728              	.LBE1783:
 1729              	.LBE1784:
 1730              		.cfi_endproc
 1731              	.LFE1550:
 1732              		.size	_ZN8GuiSoundC2EPKhibi, .-_ZN8GuiSoundC2EPKhibi
 1733              		.align 2
 1734              		.globl _ZN8GuiSound4LoadEPKc
 1735              		.type	_ZN8GuiSound4LoadEPKc, @function
 1736              	_ZN8GuiSound4LoadEPKc:
 1737              	.LFB1557:
 1738              		.loc 1 128 0
 1739              		.cfi_startproc
 1740              		.cfi_personality 0,__gxx_personality_v0
 1741              		.cfi_lsda 0,.LLSDA1557
 1742              	.LVL110:
 1743 09b8 9421FFC8 		stwu 1,-56(1)
 1744              	.LCFI26:
 1745              		.cfi_def_cfa_offset 56
 1746 09bc 7C0802A6 		mflr 0
 1747 09c0 93E10034 		stw 31,52(1)
 1748 09c4 7C9F2378 		mr 31,4
 1749              		.cfi_offset 31, -4
 1750              		.cfi_register 65, 0
 1751 09c8 93C10030 		stw 30,48(1)
 1752 09cc 7C7E1B78 		mr 30,3
 1753              		.cfi_offset 30, -8
 1754 09d0 9001003C 		stw 0,60(1)
 1755 09d4 93810028 		stw 28,40(1)
 1756 09d8 93A1002C 		stw 29,44(1)
 1757              	.LEHB31:
 1758              	.LBB1828:
 1759              		.loc 1 129 0
 1760              		.cfi_offset 29, -12
 1761              		.cfi_offset 28, -16
 1762              		.cfi_offset 65, 4
 1763 09dc 48000001 		bl _ZN8GuiSound10FreeMemoryEv
 1764              	.LVL111:
 1765              		.loc 1 131 0
 1766 09e0 2F9F0000 		cmpwi 7,31,0
 1767 09e4 419E0120 		beq- 7,.L149
 1768              		.loc 1 135 0
 1769 09e8 3C800000 		lis 4,.LC0@ha
 1770 09ec 7FE3FB78 		mr 3,31
 1771 09f0 38840000 		la 4,.LC0@l(4)
 1772 09f4 48000001 		bl fopen
 1773              	.LVL112:
 1774              		.loc 1 136 0
 1775 09f8 7C7D1B79 		mr. 29,3
 1776 09fc 41820108 		beq- 0,.L149
 1777              		.loc 1 139 0
 1778 0a00 38800001 		li 4,1
 1779 0a04 38A00004 		li 5,4
 1780 0a08 7FA6EB78 		mr 6,29
 1781 0a0c 38610014 		addi 3,1,20
 1782              	.LVL113:
 1783 0a10 48000001 		bl fread
 1784              	.LVL114:
 1785              		.loc 1 140 0
 1786 0a14 7FA3EB78 		mr 3,29
 1787 0a18 48000001 		bl fclose
 1788              	.LVL115:
 1789              	.LBB1829:
 1790              		.loc 1 142 0
 1791 0a1c 81210014 		lwz 9,20(1)
 1792 0a20 6D20494D 		xoris 0,9,0x494d
 1793 0a24 2F804435 		cmpwi 7,0,17461
 1794 0a28 419E0104 		beq 7,.L157
 1795              	.LBE1829:
 1796              	.LBB1855:
 1797              	.LBB1856:
 1798              		.loc 2 38 0
 1799 0a2c 3FA00000 		lis 29,_ZN12SoundHandler8instanceE@ha
 1800              	.LVL116:
 1801 0a30 839D0000 		lwz 28,_ZN12SoundHandler8instanceE@l(29)
 1802 0a34 2F9C0000 		cmpwi 7,28,0
 1803 0a38 419E01FC 		beq- 7,.L158
 1804              	.L134:
 1805              	.LBE1856:
 1806              	.LBE1855:
 1807              		.loc 1 150 0
 1808 0a3c 809E000C 		lwz 4,12(30)
 1809 0a40 7FE5FB78 		mr 5,31
 1810 0a44 7F83E378 		mr 3,28
 1811 0a48 48000001 		bl _ZN12SoundHandler10AddDecoderEiPKc
 1812              	.LBB1859:
 1813              	.LBB1860:
 1814              		.loc 2 38 0
 1815 0a4c 83FD0000 		lwz 31,_ZN12SoundHandler8instanceE@l(29)
 1816              	.LVL117:
 1817 0a50 2F9F0000 		cmpwi 7,31,0
 1818 0a54 419E01F8 		beq- 7,.L159
 1819              	.L136:
 1820              	.LBE1860:
 1821              	.LBE1859:
 1822              		.loc 1 152 0
 1823 0a58 813E000C 		lwz 9,12(30)
 1824              	.LVL118:
 1825              	.LBB1862:
 1826              	.LBB1863:
 1827              		.loc 2 47 0
 1828 0a5c 2B89000F 		cmplwi 7,9,15
 1829 0a60 419D00A4 		bgt- 7,.L149
 1830 0a64 39290004 		addi 9,9,4
 1831 0a68 5529103A 		slwi 9,9,2
 1832 0a6c 7C7F482E 		lwzx 3,31,9
 1833              	.LBE1863:
 1834              	.LBE1862:
 1835              		.loc 1 153 0
 1836 0a70 2F830000 		cmpwi 7,3,0
 1837 0a74 419E0090 		beq- 7,.L149
 1838              		.loc 1 156 0
 1839 0a78 81230000 		lwz 9,0(3)
 1840 0a7c 80090038 		lwz 0,56(9)
 1841 0a80 7C0903A6 		mtctr 0
 1842 0a84 4E800421 		bctrl
 1843              	.LVL119:
 1844              	.LBB1864:
 1845              	.LBB1865:
 1846              		.loc 2 38 0
 1847 0a88 83FD0000 		lwz 31,_ZN12SoundHandler8instanceE@l(29)
 1848              	.LBE1865:
 1849              	.LBE1864:
 1850              		.loc 1 156 0
 1851 0a8c 2F830000 		cmpwi 7,3,0
 1852 0a90 419E0150 		beq- 7,.L160
 1853              	.LBB1869:
 1854              	.LBB1870:
 1855              	.LBB1871:
 1856              	.LBB1872:
 1857              		.loc 2 38 0
 1858 0a94 2F9F0000 		cmpwi 7,31,0
 1859              	.LBE1872:
 1860              	.LBE1871:
 1861              	.LBE1870:
 1862              	.LBE1869:
 1863              		.loc 1 162 0
 1864 0a98 8B9E0014 		lbz 28,20(30)
 1865              	.LVL120:
 1866              	.LBB1884:
 1867              	.LBB1881:
 1868              	.LBB1875:
 1869              	.LBB1873:
 1870              		.loc 2 38 0
 1871 0a9c 419E0180 		beq- 7,.L161
 1872              	.L143:
 1873              	.LBE1873:
 1874              	.LBE1875:
 1875              		.loc 1 335 0
 1876 0aa0 813E000C 		lwz 9,12(30)
 1877              	.LVL121:
 1878              	.LBB1876:
 1879              	.LBB1877:
 1880              		.loc 2 47 0
 1881 0aa4 2B89000F 		cmplwi 7,9,15
 1882 0aa8 419D0110 		bgt- 7,.L162
 1883 0aac 39290004 		addi 9,9,4
 1884 0ab0 5529103A 		slwi 9,9,2
 1885 0ab4 7C7F482E 		lwzx 3,31,9
 1886              	.LBE1877:
 1887              	.LBE1876:
 1888              		.loc 1 164 0
 1889 0ab8 3BE00001 		li 31,1
 1890              		.loc 1 336 0
 1891 0abc 2F830000 		cmpwi 7,3,0
 1892 0ac0 419E0048 		beq- 7,.L124
 1893              		.loc 1 339 0
 1894 0ac4 81230000 		lwz 9,0(3)
 1895 0ac8 6B840001 		xori 4,28,1
 1896 0acc 7C840034 		cntlzw 4,4
 1897 0ad0 80090048 		lwz 0,72(9)
 1898 0ad4 5484D97E 		srwi 4,4,5
 1899 0ad8 7C0903A6 		mtctr 0
 1900 0adc 4E800421 		bctrl
 1901              	.LVL122:
 1902              	.LBE1881:
 1903              	.LBE1884:
 1904              	.LBE1828:
 1905              		.loc 1 165 0
 1906 0ae0 8001003C 		lwz 0,60(1)
 1907 0ae4 7FE3FB78 		mr 3,31
 1908 0ae8 83810028 		lwz 28,40(1)
 1909              	.LVL123:
 1910 0aec 7C0803A6 		mtlr 0
 1911 0af0 83A1002C 		lwz 29,44(1)
 1912 0af4 83C10030 		lwz 30,48(1)
 1913              	.LVL124:
 1914 0af8 83E10034 		lwz 31,52(1)
 1915 0afc 38210038 		addi 1,1,56
 1916              		.cfi_remember_state
 1917              		.cfi_restore 28
 1918              		.cfi_restore 29
 1919              		.cfi_restore 30
 1920              		.cfi_restore 31
 1921              	.LCFI27:
 1922              		.cfi_def_cfa_offset 0
 1923 0b00 4E800020 		blr
 1924              	.LVL125:
 1925              	.L149:
 1926              	.LCFI28:
 1927              		.cfi_restore_state
 1928              	.LBB1897:
 1929              		.loc 1 154 0
 1930 0b04 3BE00000 		li 31,0
 1931              	.L124:
 1932              	.LBE1897:
 1933              		.loc 1 165 0
 1934 0b08 8001003C 		lwz 0,60(1)
 1935 0b0c 7FE3FB78 		mr 3,31
 1936 0b10 83810028 		lwz 28,40(1)
 1937 0b14 7C0803A6 		mtlr 0
 1938 0b18 83A1002C 		lwz 29,44(1)
 1939 0b1c 83C10030 		lwz 30,48(1)
 1940              	.LVL126:
 1941 0b20 83E10034 		lwz 31,52(1)
 1942 0b24 38210038 		addi 1,1,56
 1943              		.cfi_remember_state
 1944              	.LCFI29:
 1945              		.cfi_def_cfa_offset 0
 1946              		.cfi_restore 31
 1947              		.cfi_restore 30
 1948              		.cfi_restore 29
 1949              		.cfi_restore 28
 1950 0b28 4E800020 		blr
 1951              	.LVL127:
 1952              	.L157:
 1953              	.LCFI30:
 1954              		.cfi_restore_state
 1955              	.LBB1898:
 1956              	.LBB1885:
 1957              	.LBB1830:
 1958              		.loc 1 146 0
 1959 0b2c 7FE4FB78 		mr 4,31
 1960 0b30 38A10009 		addi 5,1,9
 1961 0b34 3861000C 		addi 3,1,12
 1962              		.loc 1 144 0
 1963 0b38 38000000 		li 0,0
 1964              		.loc 1 145 0
 1965 0b3c 39400000 		li 10,0
 1966 0b40 39600000 		li 11,0
 1967              		.loc 1 144 0
 1968 0b44 90010010 		stw 0,16(1)
 1969              	.LVL128:
 1970              		.loc 1 145 0
 1971 0b48 91410018 		stw 10,24(1)
 1972              	.LVL129:
 1973 0b4c 9161001C 		stw 11,28(1)
 1974              	.LVL130:
 1975              		.loc 1 146 0
 1976 0b50 48000001 		bl _ZNSsC1EPKcRKSaIcE
 1977              	.LEHE31:
 1978 0b54 3861000C 		addi 3,1,12
 1979 0b58 38810010 		addi 4,1,16
 1980 0b5c 38A10018 		addi 5,1,24
 1981              	.LEHB32:
 1982 0b60 48000001 		bl _Z13LoadFileToMemSsPPhPy
 1983              	.LEHE32:
 1984              	.LVL131:
 1985              	.LBB1831:
 1986              	.LBB1832:
 1987              	.LBB1833:
 1988              	.LBB1834:
 1989              	.LBB1835:
 1990              	.LBB1836:
 1991              		.file 4 "d:\\devkitpro\\devkitppc\\bin\\../lib/gcc/powerpc-eabi/4.6.3/../../../../powerpc-eabi/inc
 1992              		.loc 4 288 0
 1993 0b64 8121000C 		lwz 9,12(1)
 1994              	.LBE1836:
 1995              	.LBE1835:
 1996              	.LBE1834:
 1997              	.LBB1837:
 1998              	.LBB1838:
 1999              		.loc 4 235 0
 2000 0b68 3D600000 		lis 11,_ZNSs4_Rep20_S_empty_rep_storageE@ha
 2001 0b6c 380B0000 		la 0,_ZNSs4_Rep20_S_empty_rep_storageE@l(11)
 2002              	.LBE1838:
 2003              	.LBE1837:
 2004              		.loc 4 534 0
 2005 0b70 3869FFF4 		addi 3,9,-12
 2006              	.LVL132:
 2007              	.LBB1847:
 2008              	.LBB1845:
 2009              		.loc 4 235 0
 2010 0b74 7F830000 		cmpw 7,3,0
 2011 0b78 409E0104 		bne- 7,.L163
 2012              	.LVL133:
 2013              	.L133:
 2014              	.LBE1845:
 2015              	.LBE1847:
 2016              	.LBE1833:
 2017              	.LBE1832:
 2018              	.LBE1831:
 2019              		.loc 1 147 0 discriminator 1
 2020 0b7c 80810010 		lwz 4,16(1)
 2021 0b80 7FC3F378 		mr 3,30
 2022 0b84 80A1001C 		lwz 5,28(1)
 2023 0b88 38C00001 		li 6,1
 2024              	.LEHB33:
 2025 0b8c 48000001 		bl _ZN8GuiSound4LoadEPKhib
 2026              	.LBE1830:
 2027              	.LBE1885:
 2028              	.LBE1898:
 2029              		.loc 1 165 0 discriminator 1
 2030 0b90 8001003C 		lwz 0,60(1)
 2031              	.LBB1899:
 2032              	.LBB1886:
 2033              	.LBB1852:
 2034              		.loc 1 147 0 discriminator 1
 2035 0b94 7C7F1B78 		mr 31,3
 2036              	.LVL134:
 2037              	.LBE1852:
 2038              	.LBE1886:
 2039              	.LBE1899:
 2040              		.loc 1 165 0 discriminator 1
 2041 0b98 83810028 		lwz 28,40(1)
 2042 0b9c 7C0803A6 		mtlr 0
 2043 0ba0 7FE3FB78 		mr 3,31
 2044 0ba4 83A1002C 		lwz 29,44(1)
 2045              	.LVL135:
 2046 0ba8 83C10030 		lwz 30,48(1)
 2047              	.LVL136:
 2048 0bac 83E10034 		lwz 31,52(1)
 2049 0bb0 38210038 		addi 1,1,56
 2050              		.cfi_remember_state
 2051              		.cfi_restore 28
 2052              		.cfi_restore 29
 2053              		.cfi_restore 30
 2054              		.cfi_restore 31
 2055              	.LCFI31:
 2056              		.cfi_def_cfa_offset 0
 2057 0bb4 4E800020 		blr
 2058              	.LVL137:
 2059              	.L162:
 2060              	.LCFI32:
 2061              		.cfi_restore_state
 2062              		.loc 1 165 0 is_stmt 0
 2063 0bb8 8001003C 		lwz 0,60(1)
 2064              	.LBB1900:
 2065              	.LBB1887:
 2066              	.LBB1882:
 2067              	.LBB1879:
 2068              	.LBB1878:
 2069              		.loc 1 164 0 is_stmt 1
 2070 0bbc 3BE00001 		li 31,1
 2071              	.LBE1878:
 2072              	.LBE1879:
 2073              	.LBE1882:
 2074              	.LBE1887:
 2075              	.LBE1900:
 2076              		.loc 1 165 0
 2077 0bc0 7FE3FB78 		mr 3,31
 2078 0bc4 83810028 		lwz 28,40(1)
 2079              	.LVL138:
 2080 0bc8 7C0803A6 		mtlr 0
 2081 0bcc 83A1002C 		lwz 29,44(1)
 2082 0bd0 83C10030 		lwz 30,48(1)
 2083              	.LVL139:
 2084 0bd4 83E10034 		lwz 31,52(1)
 2085 0bd8 38210038 		addi 1,1,56
 2086              		.cfi_remember_state
 2087              		.cfi_restore 28
 2088              		.cfi_restore 29
 2089              		.cfi_restore 30
 2090              		.cfi_restore 31
 2091              	.LCFI33:
 2092              		.cfi_def_cfa_offset 0
 2093 0bdc 4E800020 		blr
 2094              	.LVL140:
 2095              	.L160:
 2096              	.LCFI34:
 2097              		.cfi_restore_state
 2098              	.LBB1901:
 2099              	.LBB1888:
 2100              	.LBB1866:
 2101              		.loc 2 38 0
 2102 0be0 2F9F0000 		cmpwi 7,31,0
 2103 0be4 419E0080 		beq- 7,.L164
 2104              	.L141:
 2105              	.LBE1866:
 2106              	.LBE1888:
 2107              		.loc 1 158 0
 2108 0be8 809E000C 		lwz 4,12(30)
 2109 0bec 7FE3FB78 		mr 3,31
 2110              		.loc 1 159 0
 2111 0bf0 3BE00000 		li 31,0
 2112              		.loc 1 158 0
 2113 0bf4 48000001 		bl _ZN12SoundHandler13RemoveDecoderEi
 2114              	.LBE1901:
 2115              		.loc 1 165 0
 2116 0bf8 8001003C 		lwz 0,60(1)
 2117 0bfc 7FE3FB78 		mr 3,31
 2118 0c00 83810028 		lwz 28,40(1)
 2119 0c04 7C0803A6 		mtlr 0
 2120 0c08 83A1002C 		lwz 29,44(1)
 2121 0c0c 83C10030 		lwz 30,48(1)
 2122              	.LVL141:
 2123 0c10 83E10034 		lwz 31,52(1)
 2124 0c14 38210038 		addi 1,1,56
 2125              		.cfi_remember_state
 2126              		.cfi_restore 28
 2127              		.cfi_restore 29
 2128              		.cfi_restore 30
 2129              		.cfi_restore 31
 2130              	.LCFI35:
 2131              		.cfi_def_cfa_offset 0
 2132 0c18 4E800020 		blr
 2133              	.LVL142:
 2134              	.L161:
 2135              	.LCFI36:
 2136              		.cfi_restore_state
 2137              	.LBB1902:
 2138              	.LBB1889:
 2139              	.LBB1883:
 2140              	.LBB1880:
 2141              	.LBB1874:
 2142              		.loc 2 38 0
 2143 0c1c 38600050 		li 3,80
 2144 0c20 48000001 		bl _Znwj
 2145              	.LEHE33:
 2146 0c24 7C7F1B78 		mr 31,3
 2147              	.LEHB34:
 2148 0c28 48000001 		bl _ZN12SoundHandlerC1Ev
 2149              	.LEHE34:
 2150 0c2c 93FD0000 		stw 31,_ZN12SoundHandler8instanceE@l(29)
 2151 0c30 4BFFFE70 		b .L143
 2152              	.LVL143:
 2153              	.L158:
 2154              	.LBE1874:
 2155              	.LBE1880:
 2156              	.LBE1883:
 2157              	.LBE1889:
 2158              	.LBB1890:
 2159              	.LBB1857:
 2160 0c34 38600050 		li 3,80
 2161              	.LEHB35:
 2162 0c38 48000001 		bl _Znwj
 2163              	.LEHE35:
 2164 0c3c 7C7C1B78 		mr 28,3
 2165              	.LEHB36:
 2166 0c40 48000001 		bl _ZN12SoundHandlerC1Ev
 2167              	.LEHE36:
 2168 0c44 939D0000 		stw 28,_ZN12SoundHandler8instanceE@l(29)
 2169 0c48 4BFFFDF4 		b .L134
 2170              	.LVL144:
 2171              	.L159:
 2172              	.LBE1857:
 2173              	.LBE1890:
 2174              	.LBB1891:
 2175              	.LBB1861:
 2176 0c4c 38600050 		li 3,80
 2177              	.LEHB37:
 2178 0c50 48000001 		bl _Znwj
 2179              	.LEHE37:
 2180 0c54 7C7F1B78 		mr 31,3
 2181              	.LEHB38:
 2182 0c58 48000001 		bl _ZN12SoundHandlerC1Ev
 2183              	.LEHE38:
 2184 0c5c 93FD0000 		stw 31,_ZN12SoundHandler8instanceE@l(29)
 2185 0c60 4BFFFDF8 		b .L136
 2186              	.L164:
 2187              	.LBE1861:
 2188              	.LBE1891:
 2189              	.LBB1892:
 2190              	.LBB1867:
 2191 0c64 38600050 		li 3,80
 2192              	.LEHB39:
 2193 0c68 48000001 		bl _Znwj
 2194              	.LEHE39:
 2195 0c6c 7C7F1B78 		mr 31,3
 2196              	.LEHB40:
 2197 0c70 48000001 		bl _ZN12SoundHandlerC1Ev
 2198              	.LEHE40:
 2199 0c74 93FD0000 		stw 31,_ZN12SoundHandler8instanceE@l(29)
 2200 0c78 4BFFFF70 		b .L141
 2201              	.LVL145:
 2202              	.L163:
 2203              	.LBE1867:
 2204              	.LBE1892:
 2205              	.LBB1893:
 2206              	.LBB1853:
 2207              	.LBB1851:
 2208              	.LBB1850:
 2209              	.LBB1849:
 2210              	.LBB1848:
 2211              	.LBB1846:
 2212              	.LBB1839:
 2213              	.LBB1840:
 2214              	.LBB1841:
 2215              		.file 5 "d:\\devkitpro\\devkitppc\\bin\\../lib/gcc/powerpc-eabi/4.6.3/../../../../powerpc-eabi/inc
 2216              		.loc 5 66 0
 2217 0c7c 8169FFFC 		lwz 11,-4(9)
 2218              	.LVL146:
 2219              	.LBE1841:
 2220              	.LBE1840:
 2221              	.LBE1839:
 2222              		.loc 4 240 0
 2223 0c80 2F8B0000 		cmpwi 7,11,0
 2224              	.LBB1844:
 2225              	.LBB1843:
 2226              	.LBB1842:
 2227              		.loc 5 67 0
 2228 0c84 396BFFFF 		addi 11,11,-1
 2229 0c88 9169FFFC 		stw 11,-4(9)
 2230              	.LBE1842:
 2231              	.LBE1843:
 2232              	.LBE1844:
 2233              		.loc 4 240 0
 2234 0c8c 419DFEF0 		bgt+ 7,.L133
 2235              		.loc 4 244 0
 2236 0c90 38810008 		addi 4,1,8
 2237 0c94 48000001 		bl _ZNSs4_Rep10_M_destroyERKSaIcE
 2238              	.LVL147:
 2239 0c98 4BFFFEE4 		b .L133
 2240              	.LVL148:
 2241              	.L154:
 2242              	.L156:
 2243 0c9c 7C7E1B78 		mr 30,3
 2244              	.LVL149:
 2245              	.LBE1846:
 2246              	.LBE1848:
 2247              	.LBE1849:
 2248              	.LBE1850:
 2249              	.LBE1851:
 2250              	.LBE1853:
 2251              	.LBE1893:
 2252              	.LBB1894:
 2253              	.LBB1868:
 2254              		.loc 2 38 0
 2255 0ca0 7FE3FB78 		mr 3,31
 2256 0ca4 48000001 		bl _ZdlPv
 2257 0ca8 7FC3F378 		mr 3,30
 2258              	.LEHB41:
 2259 0cac 48000001 		bl _Unwind_Resume
 2260              	.LVL150:
 2261              	.L151:
 2262 0cb0 7C7F1B78 		mr 31,3
 2263              	.LVL151:
 2264              	.LBE1868:
 2265              	.LBE1894:
 2266              	.LBB1895:
 2267              	.LBB1854:
 2268              		.loc 1 146 0
 2269 0cb4 3861000C 		addi 3,1,12
 2270 0cb8 48000001 		bl _ZNSsD1Ev
 2271 0cbc 7FE3FB78 		mr 3,31
 2272 0cc0 48000001 		bl _Unwind_Resume
 2273              	.LVL152:
 2274              	.L155:
 2275 0cc4 4BFFFFD8 		b .L156
 2276              	.LVL153:
 2277              	.L152:
 2278 0cc8 7C7F1B78 		mr 31,3
 2279              	.LVL154:
 2280              	.LBE1854:
 2281              	.LBE1895:
 2282              	.LBB1896:
 2283              	.LBB1858:
 2284              		.loc 2 38 0
 2285 0ccc 7F83E378 		mr 3,28
 2286 0cd0 48000001 		bl _ZdlPv
 2287 0cd4 7FE3FB78 		mr 3,31
 2288 0cd8 48000001 		bl _Unwind_Resume
 2289              	.LEHE41:
 2290              	.L153:
 2291 0cdc 4BFFFFC0 		b .L156
 2292              	.LBE1858:
 2293              	.LBE1896:
 2294              	.LBE1902:
 2295              		.cfi_endproc
 2296              	.LFE1557:
 2297              		.section	.gcc_except_table
 2298              	.LLSDA1557:
 2299 00b6 FF       		.byte	0xff
 2300 00b7 FF       		.byte	0xff
 2301 00b8 01       		.byte	0x1
 2302 00b9 3D       		.uleb128 .LLSDACSE1557-.LLSDACSB1557
 2303              	.LLSDACSB1557:
 2304 00ba 24       		.uleb128 .LEHB31-.LFB1557
 2305 00bb F802     		.uleb128 .LEHE31-.LEHB31
 2306 00bd 00       		.uleb128 0
 2307 00be 00       		.uleb128 0
 2308 00bf A803     		.uleb128 .LEHB32-.LFB1557
 2309 00c1 04       		.uleb128 .LEHE32-.LEHB32
 2310 00c2 F805     		.uleb128 .L151-.LFB1557
 2311 00c4 00       		.uleb128 0
 2312 00c5 D403     		.uleb128 .LEHB33-.LFB1557
 2313 00c7 9801     		.uleb128 .LEHE33-.LEHB33
 2314 00c9 00       		.uleb128 0
 2315 00ca 00       		.uleb128 0
 2316 00cb F004     		.uleb128 .LEHB34-.LFB1557
 2317 00cd 04       		.uleb128 .LEHE34-.LEHB34
 2318 00ce 8C06     		.uleb128 .L155-.LFB1557
 2319 00d0 00       		.uleb128 0
 2320 00d1 8005     		.uleb128 .LEHB35-.LFB1557
 2321 00d3 04       		.uleb128 .LEHE35-.LEHB35
 2322 00d4 00       		.uleb128 0
 2323 00d5 00       		.uleb128 0
 2324 00d6 8805     		.uleb128 .LEHB36-.LFB1557
 2325 00d8 04       		.uleb128 .LEHE36-.LEHB36
 2326 00d9 9006     		.uleb128 .L152-.LFB1557
 2327 00db 00       		.uleb128 0
 2328 00dc 9805     		.uleb128 .LEHB37-.LFB1557
 2329 00de 04       		.uleb128 .LEHE37-.LEHB37
 2330 00df 00       		.uleb128 0
 2331 00e0 00       		.uleb128 0
 2332 00e1 A005     		.uleb128 .LEHB38-.LFB1557
 2333 00e3 04       		.uleb128 .LEHE38-.LEHB38
 2334 00e4 A406     		.uleb128 .L153-.LFB1557
 2335 00e6 00       		.uleb128 0
 2336 00e7 B005     		.uleb128 .LEHB39-.LFB1557
 2337 00e9 04       		.uleb128 .LEHE39-.LEHB39
 2338 00ea 00       		.uleb128 0
 2339 00eb 00       		.uleb128 0
 2340 00ec B805     		.uleb128 .LEHB40-.LFB1557
 2341 00ee 04       		.uleb128 .LEHE40-.LEHB40
 2342 00ef E405     		.uleb128 .L154-.LFB1557
 2343 00f1 00       		.uleb128 0
 2344 00f2 F405     		.uleb128 .LEHB41-.LFB1557
 2345 00f4 30       		.uleb128 .LEHE41-.LEHB41
 2346 00f5 00       		.uleb128 0
 2347 00f6 00       		.uleb128 0
 2348              	.LLSDACSE1557:
 2349              		.section	".text"
 2350              		.size	_ZN8GuiSound4LoadEPKc, .-_ZN8GuiSound4LoadEPKc
 2351              		.align 2
 2352              		.globl _ZN8GuiSoundC2EPKc
 2353              		.type	_ZN8GuiSoundC2EPKc, @function
 2354              	_ZN8GuiSoundC2EPKc:
 2355              	.LFB1547:
 2356              		.loc 1 70 0
 2357              		.cfi_startproc
 2358              	.LVL155:
 2359              	.LBB1903:
 2360              	.LBB1904:
 2361              	.LBB1905:
 2362              		.loc 1 37 0
 2363 0ce0 3D200000 		lis 9,.LANCHOR0@ha
 2364              	.LBE1905:
 2365              	.LBE1904:
 2366              		.loc 1 70 0
 2367 0ce4 3D600000 		lis 11,_ZTV8GuiSound+8@ha
 2368              	.LBB1912:
 2369              	.LBB1906:
 2370              		.loc 1 37 0
 2371 0ce8 39290000 		la 9,.LANCHOR0@l(9)
 2372              	.LBE1906:
 2373              	.LBE1912:
 2374              		.loc 1 70 0
 2375 0cec 396B0008 		la 11,_ZTV8GuiSound+8@l(11)
 2376              	.LBB1913:
 2377              	.LBB1907:
 2378              		.loc 1 37 0
 2379 0cf0 88090001 		lbz 0,1(9)
 2380              	.LBE1907:
 2381              	.LBE1913:
 2382              		.loc 1 70 0
 2383 0cf4 91630000 		stw 11,0(3)
 2384              	.LBB1914:
 2385              	.LBB1908:
 2386              		.loc 1 37 0
 2387 0cf8 2F800000 		cmpwi 7,0,0
 2388              	.LBE1908:
 2389              	.LBE1914:
 2390              		.loc 1 72 0
 2391 0cfc 38000000 		li 0,0
 2392 0d00 90030004 		stw 0,4(3)
 2393              		.loc 1 73 0
 2394 0d04 90030008 		stw 0,8(3)
 2395              	.LVL156:
 2396              	.LBB1915:
 2397              	.LBB1909:
 2398              		.loc 1 37 0
 2399 0d08 419E00FC 		beq- 7,.L168
 2400              	.LVL157:
 2401 0d0c 88090002 		lbz 0,2(9)
 2402 0d10 2F800000 		cmpwi 7,0,0
 2403 0d14 419E00F8 		beq- 7,.L169
 2404              	.LVL158:
 2405 0d18 88090003 		lbz 0,3(9)
 2406 0d1c 2F800000 		cmpwi 7,0,0
 2407 0d20 419E00F4 		beq- 7,.L170
 2408              	.LVL159:
 2409 0d24 88090004 		lbz 0,4(9)
 2410 0d28 2F800000 		cmpwi 7,0,0
 2411 0d2c 419E00F0 		beq- 7,.L171
 2412              	.LVL160:
 2413 0d30 88090005 		lbz 0,5(9)
 2414 0d34 2F800000 		cmpwi 7,0,0
 2415 0d38 419E00EC 		beq- 7,.L172
 2416              	.LVL161:
 2417 0d3c 88090006 		lbz 0,6(9)
 2418 0d40 2F800000 		cmpwi 7,0,0
 2419 0d44 419E00E8 		beq- 7,.L173
 2420              	.LVL162:
 2421 0d48 88090007 		lbz 0,7(9)
 2422 0d4c 2F800000 		cmpwi 7,0,0
 2423 0d50 419E00E4 		beq- 7,.L174
 2424              	.LVL163:
 2425 0d54 88090008 		lbz 0,8(9)
 2426 0d58 2F800000 		cmpwi 7,0,0
 2427 0d5c 419E00E0 		beq- 7,.L175
 2428              	.LVL164:
 2429 0d60 88090009 		lbz 0,9(9)
 2430 0d64 2F800000 		cmpwi 7,0,0
 2431 0d68 419E00DC 		beq- 7,.L176
 2432              	.LVL165:
 2433 0d6c 8809000A 		lbz 0,10(9)
 2434 0d70 2F800000 		cmpwi 7,0,0
 2435 0d74 419E00D8 		beq- 7,.L177
 2436              	.LVL166:
 2437 0d78 8809000B 		lbz 0,11(9)
 2438 0d7c 2F800000 		cmpwi 7,0,0
 2439 0d80 419E00D4 		beq- 7,.L178
 2440              	.LVL167:
 2441 0d84 8809000C 		lbz 0,12(9)
 2442 0d88 2F800000 		cmpwi 7,0,0
 2443 0d8c 419E00D0 		beq- 7,.L179
 2444              	.LVL168:
 2445 0d90 8809000D 		lbz 0,13(9)
 2446 0d94 2F800000 		cmpwi 7,0,0
 2447 0d98 419E00CC 		beq- 7,.L180
 2448              	.LVL169:
 2449 0d9c 8809000E 		lbz 0,14(9)
 2450 0da0 2F800000 		cmpwi 7,0,0
 2451 0da4 419E00C8 		beq- 7,.L181
 2452              	.LVL170:
 2453 0da8 8809000F 		lbz 0,15(9)
 2454 0dac 2F800000 		cmpwi 7,0,0
 2455 0db0 419E0028 		beq- 7,.L182
 2456              	.LVL171:
 2457              	.LBE1909:
 2458              	.LBE1915:
 2459              		.loc 1 74 0
 2460 0db4 3800FFFF 		li 0,-1
 2461              		.loc 1 78 0
 2462 0db8 392000FF 		li 9,255
 2463              		.loc 1 74 0
 2464 0dbc 9003000C 		stw 0,12(3)
 2465              		.loc 1 79 0
 2466 0dc0 38000000 		li 0,0
 2467              		.loc 1 78 0
 2468 0dc4 91230010 		stw 9,16(3)
 2469              		.loc 1 79 0
 2470 0dc8 90030018 		stw 0,24(3)
 2471              		.loc 1 80 0
 2472 0dcc 98030014 		stb 0,20(3)
 2473              		.loc 1 81 0
 2474 0dd0 9803001C 		stb 0,28(3)
 2475              	.LBE1903:
 2476              		.loc 1 83 0
 2477              	.LBB1918:
 2478              		.loc 1 82 0
 2479 0dd4 48000000 		b _ZN8GuiSound4LoadEPKc
 2480              	.LVL172:
 2481              	.L182:
 2482              	.LBB1916:
 2483              	.LBB1910:
 2484              		.loc 1 37 0
 2485 0dd8 3800000F 		li 0,15
 2486              	.LVL173:
 2487              	.L166:
 2488              	.LBE1910:
 2489              	.LBE1916:
 2490              		.loc 1 76 0
 2491 0ddc 39600001 		li 11,1
 2492              		.loc 1 74 0
 2493 0de0 9003000C 		stw 0,12(3)
 2494              		.loc 1 76 0
 2495 0de4 7D6901AE 		stbx 11,9,0
 2496              		.loc 1 79 0
 2497 0de8 38000000 		li 0,0
 2498              		.loc 1 78 0
 2499 0dec 392000FF 		li 9,255
 2500              		.loc 1 79 0
 2501 0df0 90030018 		stw 0,24(3)
 2502              		.loc 1 78 0
 2503 0df4 91230010 		stw 9,16(3)
 2504              		.loc 1 80 0
 2505 0df8 98030014 		stb 0,20(3)
 2506              		.loc 1 81 0
 2507 0dfc 9803001C 		stb 0,28(3)
 2508              	.LBE1918:
 2509              		.loc 1 83 0
 2510              	.LBB1919:
 2511              		.loc 1 82 0
 2512 0e00 48000000 		b _ZN8GuiSound4LoadEPKc
 2513              	.LVL174:
 2514              	.L168:
 2515              	.LBB1917:
 2516              	.LBB1911:
 2517              		.loc 1 35 0
 2518 0e04 38000001 		li 0,1
 2519 0e08 4BFFFFD4 		b .L166
 2520              	.LVL175:
 2521              	.L169:
 2522 0e0c 38000002 		li 0,2
 2523 0e10 4BFFFFCC 		b .L166
 2524              	.LVL176:
 2525              	.L170:
 2526 0e14 38000003 		li 0,3
 2527 0e18 4BFFFFC4 		b .L166
 2528              	.LVL177:
 2529              	.L171:
 2530 0e1c 38000004 		li 0,4
 2531 0e20 4BFFFFBC 		b .L166
 2532              	.LVL178:
 2533              	.L172:
 2534 0e24 38000005 		li 0,5
 2535 0e28 4BFFFFB4 		b .L166
 2536              	.LVL179:
 2537              	.L173:
 2538 0e2c 38000006 		li 0,6
 2539 0e30 4BFFFFAC 		b .L166
 2540              	.LVL180:
 2541              	.L174:
 2542 0e34 38000007 		li 0,7
 2543 0e38 4BFFFFA4 		b .L166
 2544              	.LVL181:
 2545              	.L175:
 2546 0e3c 38000008 		li 0,8
 2547 0e40 4BFFFF9C 		b .L166
 2548              	.LVL182:
 2549              	.L176:
 2550 0e44 38000009 		li 0,9
 2551 0e48 4BFFFF94 		b .L166
 2552              	.LVL183:
 2553              	.L177:
 2554 0e4c 3800000A 		li 0,10
 2555 0e50 4BFFFF8C 		b .L166
 2556              	.LVL184:
 2557              	.L178:
 2558 0e54 3800000B 		li 0,11
 2559 0e58 4BFFFF84 		b .L166
 2560              	.LVL185:
 2561              	.L179:
 2562 0e5c 3800000C 		li 0,12
 2563 0e60 4BFFFF7C 		b .L166
 2564              	.LVL186:
 2565              	.L180:
 2566 0e64 3800000D 		li 0,13
 2567 0e68 4BFFFF74 		b .L166
 2568              	.LVL187:
 2569              	.L181:
 2570 0e6c 3800000E 		li 0,14
 2571 0e70 4BFFFF6C 		b .L166
 2572              	.LBE1911:
 2573              	.LBE1917:
 2574              	.LBE1919:
 2575              		.cfi_endproc
 2576              	.LFE1547:
 2577              		.size	_ZN8GuiSoundC2EPKc, .-_ZN8GuiSoundC2EPKc
 2578              		.align 2
 2579              		.globl _ZN8GuiSound4PlayEv
 2580              		.type	_ZN8GuiSound4PlayEv, @function
 2581              	_ZN8GuiSound4PlayEv:
 2582              	.LFB1560:
 2583              		.loc 1 243 0
 2584              		.cfi_startproc
 2585              		.cfi_personality 0,__gxx_personality_v0
 2586              		.cfi_lsda 0,.LLSDA1560
 2587              	.LVL188:
 2588 0e74 7C0802A6 		mflr 0
 2589 0e78 9421FFD8 		stwu 1,-40(1)
 2590              	.LCFI37:
 2591              		.cfi_def_cfa_offset 40
 2592              		.cfi_register 65, 0
 2593 0e7c 93E10024 		stw 31,36(1)
 2594 0e80 7C7F1B78 		mr 31,3
 2595              		.cfi_offset 31, -4
 2596 0e84 9001002C 		stw 0,44(1)
 2597 0e88 93410010 		stw 26,16(1)
 2598              	.LBB1932:
 2599              		.loc 1 244 0
 2600 0e8c 80030018 		lwz 0,24(3)
 2601              		.cfi_offset 26, -24
 2602              		.cfi_offset 65, 4
 2603              	.LBE1932:
 2604              		.loc 1 243 0
 2605 0e90 93610014 		stw 27,20(1)
 2606              	.LBB1957:
 2607              		.loc 1 244 0
 2608 0e94 2F800000 		cmpwi 7,0,0
 2609              	.LBE1957:
 2610              		.loc 1 243 0
 2611 0e98 93810018 		stw 28,24(1)
 2612 0e9c 93A1001C 		stw 29,28(1)
 2613 0ea0 93C10020 		stw 30,32(1)
 2614              	.LBB1958:
 2615              		.loc 1 246 0
 2616 0ea4 8063000C 		lwz 3,12(3)
 2617              	.LVL189:
 2618              		.loc 1 244 0
 2619 0ea8 409E0170 		bne- 7,.L193
 2620              		.cfi_offset 30, -8
 2621              		.cfi_offset 29, -12
 2622              		.cfi_offset 28, -16
 2623              		.cfi_offset 27, -20
 2624              	.LVL190:
 2625              	.LBB1933:
 2626              	.LBB1934:
 2627              		.loc 1 308 0
 2628 0eac 2B83000F 		cmplwi 7,3,15
 2629 0eb0 409D002C 		ble- 7,.L194
 2630              	.L183:
 2631              	.LBE1934:
 2632              	.LBE1933:
 2633              	.LBE1958:
 2634              		.loc 1 275 0
 2635 0eb4 8001002C 		lwz 0,44(1)
 2636 0eb8 83410010 		lwz 26,16(1)
 2637 0ebc 7C0803A6 		mtlr 0
 2638 0ec0 83610014 		lwz 27,20(1)
 2639 0ec4 83810018 		lwz 28,24(1)
 2640 0ec8 83A1001C 		lwz 29,28(1)
 2641 0ecc 83C10020 		lwz 30,32(1)
 2642 0ed0 83E10024 		lwz 31,36(1)
 2643              	.LVL191:
 2644 0ed4 38210028 		addi 1,1,40
 2645              		.cfi_remember_state
 2646              	.LCFI38:
 2647              		.cfi_def_cfa_offset 0
 2648              		.cfi_restore 31
 2649              		.cfi_restore 30
 2650              		.cfi_restore 29
 2651              		.cfi_restore 28
 2652              		.cfi_restore 27
 2653              		.cfi_restore 26
 2654 0ed8 4E800020 		blr
 2655              	.LVL192:
 2656              	.L194:
 2657              	.LCFI39:
 2658              		.cfi_restore_state
 2659              	.LEHB42:
 2660              	.LBB1959:
 2661              	.LBB1936:
 2662              	.LBB1935:
 2663              		.loc 1 311 0
 2664 0edc 48000001 		bl ASND_StatusVoice
 2665              	.LVL193:
 2666              		.loc 1 313 0
 2667 0ee0 3863FFFF 		addi 3,3,-1
 2668              	.LVL194:
 2669 0ee4 2B830001 		cmplwi 7,3,1
 2670 0ee8 40BDFFCC 		ble- 7,.L183
 2671              	.LBE1935:
 2672              	.LBE1936:
 2673              		.loc 1 254 0
 2674 0eec 813F000C 		lwz 9,12(31)
 2675 0ef0 2B89000F 		cmplwi 7,9,15
 2676 0ef4 41BDFFC0 		bgt- 7,.L183
 2677              	.LBB1937:
 2678              	.LBB1938:
 2679              		.loc 2 38 0
 2680 0ef8 3FA00000 		lis 29,_ZN12SoundHandler8instanceE@ha
 2681 0efc 83DD0000 		lwz 30,_ZN12SoundHandler8instanceE@l(29)
 2682 0f00 2F9E0000 		cmpwi 7,30,0
 2683 0f04 419E01B4 		beq- 7,.L195
 2684              	.LVL195:
 2685              	.L186:
 2686              	.LBE1938:
 2687              	.LBE1937:
 2688              	.LBB1942:
 2689              	.LBB1943:
 2690              		.loc 2 47 0
 2691 0f08 38090004 		addi 0,9,4
 2692 0f0c 5400103A 		slwi 0,0,2
 2693 0f10 7FDE002E 		lwzx 30,30,0
 2694              	.LBE1943:
 2695              	.LBE1942:
 2696              		.loc 1 258 0
 2697 0f14 2F9E0000 		cmpwi 7,30,0
 2698 0f18 41BEFF9C 		beq- 7,.L183
 2699              		.loc 1 261 0
 2700 0f1c 813E0000 		lwz 9,0(30)
 2701 0f20 7FC3F378 		mr 3,30
 2702 0f24 80090044 		lwz 0,68(9)
 2703 0f28 7C0903A6 		mtctr 0
 2704 0f2c 4E800421 		bctrl
 2705 0f30 2F830000 		cmpwi 7,3,0
 2706 0f34 409E013C 		bne- 7,.L196
 2707              	.L188:
 2708              		.loc 1 269 0
 2709 0f38 813E0000 		lwz 9,0(30)
 2710 0f3c 7FC3F378 		mr 3,30
 2711 0f40 80090028 		lwz 0,40(9)
 2712 0f44 7C0903A6 		mtctr 0
 2713 0f48 4E800421 		bctrl
 2714              		.loc 1 270 0
 2715 0f4c 813E0000 		lwz 9,0(30)
 2716              		.loc 1 269 0
 2717 0f50 7C7A1B78 		mr 26,3
 2718              	.LVL196:
 2719              		.loc 1 270 0
 2720 0f54 7FC3F378 		mr 3,30
 2721              	.LVL197:
 2722 0f58 80090024 		lwz 0,36(9)
 2723 0f5c 7C0903A6 		mtctr 0
 2724 0f60 4E800421 		bctrl
 2725              		.loc 1 271 0
 2726 0f64 813E0000 		lwz 9,0(30)
 2727              		.loc 1 270 0
 2728 0f68 7C7B1B78 		mr 27,3
 2729              	.LVL198:
 2730              		.loc 1 271 0
 2731 0f6c 7FC3F378 		mr 3,30
 2732              	.LVL199:
 2733 0f70 80090034 		lwz 0,52(9)
 2734 0f74 7C0903A6 		mtctr 0
 2735 0f78 4E800421 		bctrl
 2736              	.LBB1945:
 2737              	.LBB1946:
 2738              		.loc 2 38 0
 2739 0f7c 839D0000 		lwz 28,_ZN12SoundHandler8instanceE@l(29)
 2740 0f80 2F9C0000 		cmpwi 7,28,0
 2741 0f84 419E0158 		beq- 7,.L197
 2742              	.L189:
 2743              	.LBE1946:
 2744              	.LBE1945:
 2745              	.LBB1949:
 2746              	.LBB1950:
 2747              		.loc 2 48 0
 2748 0f88 807C0008 		lwz 3,8(28)
 2749 0f8c 48000001 		bl LWP_ThreadSignal
 2750              	.LBE1950:
 2751              	.LBE1949:
 2752              		.loc 1 274 0
 2753 0f90 813E0000 		lwz 9,0(30)
 2754 0f94 7FC3F378 		mr 3,30
 2755 0f98 839F000C 		lwz 28,12(31)
 2756 0f9c 80090018 		lwz 0,24(9)
 2757 0fa0 7C0903A6 		mtctr 0
 2758 0fa4 4E800421 		bctrl
 2759 0fa8 813E0000 		lwz 9,0(30)
 2760 0fac 7C7D1B78 		mr 29,3
 2761 0fb0 7FC3F378 		mr 3,30
 2762 0fb4 8009001C 		lwz 0,28(9)
 2763 0fb8 7C0903A6 		mtctr 0
 2764 0fbc 4E800421 		bctrl
 2765 0fc0 813F0010 		lwz 9,16(31)
 2766 0fc4 3D600000 		lis 11,SoundCallback@ha
 2767 0fc8 7C651B78 		mr 5,3
 2768 0fcc 380B0000 		la 0,SoundCallback@l(11)
 2769 0fd0 7F83E378 		mr 3,28
 2770 0fd4 7FA4EB78 		mr 4,29
 2771 0fd8 7F47D378 		mr 7,26
 2772 0fdc 7F68DB78 		mr 8,27
 2773 0fe0 38C00000 		li 6,0
 2774 0fe4 7D2A4B78 		mr 10,9
 2775 0fe8 90010008 		stw 0,8(1)
 2776 0fec 48000001 		bl ASND_SetVoice
 2777              	.LBE1959:
 2778              		.loc 1 275 0
 2779 0ff0 8001002C 		lwz 0,44(1)
 2780 0ff4 83410010 		lwz 26,16(1)
 2781              	.LVL200:
 2782 0ff8 7C0803A6 		mtlr 0
 2783 0ffc 83610014 		lwz 27,20(1)
 2784              	.LVL201:
 2785 1000 83810018 		lwz 28,24(1)
 2786 1004 83A1001C 		lwz 29,28(1)
 2787 1008 83C10020 		lwz 30,32(1)
 2788 100c 83E10024 		lwz 31,36(1)
 2789              	.LVL202:
 2790 1010 38210028 		addi 1,1,40
 2791              		.cfi_remember_state
 2792              		.cfi_restore 26
 2793              		.cfi_restore 27
 2794              		.cfi_restore 28
 2795              		.cfi_restore 29
 2796              		.cfi_restore 30
 2797              		.cfi_restore 31
 2798              	.LCFI40:
 2799              		.cfi_def_cfa_offset 0
 2800 1014 4E800020 		blr
 2801              	.LVL203:
 2802              	.L193:
 2803              	.LCFI41:
 2804              		.cfi_restore_state
 2805              	.LBB1960:
 2806              		.loc 1 246 0
 2807 1018 48000001 		bl ASND_StopVoice
 2808              		.loc 1 247 0
 2809 101c 813F0010 		lwz 9,16(31)
 2810 1020 807F000C 		lwz 3,12(31)
 2811 1024 38000000 		li 0,0
 2812 1028 80FF0004 		lwz 7,4(31)
 2813 102c 38800003 		li 4,3
 2814 1030 811F0018 		lwz 8,24(31)
 2815 1034 38A07D00 		li 5,32000
 2816 1038 38C00000 		li 6,0
 2817 103c 7D2A4B78 		mr 10,9
 2818 1040 90010008 		stw 0,8(1)
 2819 1044 48000001 		bl ASND_SetVoice
 2820              	.LBE1960:
 2821              		.loc 1 275 0
 2822 1048 8001002C 		lwz 0,44(1)
 2823 104c 83410010 		lwz 26,16(1)
 2824 1050 7C0803A6 		mtlr 0
 2825 1054 83610014 		lwz 27,20(1)
 2826 1058 83810018 		lwz 28,24(1)
 2827 105c 83A1001C 		lwz 29,28(1)
 2828 1060 83C10020 		lwz 30,32(1)
 2829 1064 83E10024 		lwz 31,36(1)
 2830              	.LVL204:
 2831 1068 38210028 		addi 1,1,40
 2832              		.cfi_remember_state
 2833              		.cfi_restore 26
 2834              		.cfi_restore 27
 2835              		.cfi_restore 28
 2836              		.cfi_restore 29
 2837              		.cfi_restore 30
 2838              		.cfi_restore 31
 2839              	.LCFI42:
 2840              		.cfi_def_cfa_offset 0
 2841 106c 4E800020 		blr
 2842              	.LVL205:
 2843              	.L196:
 2844              	.LCFI43:
 2845              		.cfi_restore_state
 2846              	.LBB1961:
 2847              		.loc 1 263 0
 2848 1070 807F000C 		lwz 3,12(31)
 2849 1074 48000001 		bl ASND_StopVoice
 2850              		.loc 1 264 0
 2851 1078 813E0000 		lwz 9,0(30)
 2852 107c 7FC3F378 		mr 3,30
 2853 1080 80090050 		lwz 0,80(9)
 2854 1084 7C0903A6 		mtctr 0
 2855 1088 4E800421 		bctrl
 2856              		.loc 1 265 0
 2857 108c 813E0000 		lwz 9,0(30)
 2858 1090 7FC3F378 		mr 3,30
 2859 1094 80090014 		lwz 0,20(9)
 2860 1098 7C0903A6 		mtctr 0
 2861 109c 4E800421 		bctrl
 2862              		.loc 1 266 0
 2863 10a0 813E0000 		lwz 9,0(30)
 2864 10a4 7FC3F378 		mr 3,30
 2865 10a8 80090020 		lwz 0,32(9)
 2866 10ac 7C0903A6 		mtctr 0
 2867 10b0 4E800421 		bctrl
 2868 10b4 4BFFFE84 		b .L188
 2869              	.LVL206:
 2870              	.L195:
 2871              	.LBB1951:
 2872              	.LBB1939:
 2873              		.loc 2 38 0
 2874 10b8 38600050 		li 3,80
 2875              	.LVL207:
 2876 10bc 48000001 		bl _Znwj
 2877              	.LEHE42:
 2878 10c0 7C7E1B78 		mr 30,3
 2879              	.LEHB43:
 2880 10c4 48000001 		bl _ZN12SoundHandlerC1Ev
 2881              	.LEHE43:
 2882              	.LBE1939:
 2883              	.LBE1951:
 2884              		.loc 1 257 0
 2885 10c8 813F000C 		lwz 9,12(31)
 2886              	.LVL208:
 2887              	.LBB1952:
 2888              	.LBB1940:
 2889              		.loc 2 38 0
 2890 10cc 93DD0000 		stw 30,_ZN12SoundHandler8instanceE@l(29)
 2891              	.LBE1940:
 2892              	.LBE1952:
 2893              	.LBB1953:
 2894              	.LBB1944:
 2895              		.loc 2 47 0
 2896 10d0 2B89000F 		cmplwi 7,9,15
 2897 10d4 419DFDE0 		bgt+ 7,.L183
 2898 10d8 4BFFFE30 		b .L186
 2899              	.LVL209:
 2900              	.L197:
 2901              	.LBE1944:
 2902              	.LBE1953:
 2903              	.LBB1954:
 2904              	.LBB1947:
 2905              		.loc 2 38 0
 2906 10dc 38600050 		li 3,80
 2907              	.LEHB44:
 2908 10e0 48000001 		bl _Znwj
 2909              	.LEHE44:
 2910 10e4 7C7C1B78 		mr 28,3
 2911              	.LEHB45:
 2912 10e8 48000001 		bl _ZN12SoundHandlerC1Ev
 2913              	.LEHE45:
 2914 10ec 939D0000 		stw 28,_ZN12SoundHandler8instanceE@l(29)
 2915 10f0 4BFFFE98 		b .L189
 2916              	.LVL210:
 2917              	.L191:
 2918 10f4 7C7F1B78 		mr 31,3
 2919              	.LVL211:
 2920              	.LBE1947:
 2921              	.LBE1954:
 2922              	.LBB1955:
 2923              	.LBB1941:
 2924 10f8 7FC3F378 		mr 3,30
 2925 10fc 48000001 		bl _ZdlPv
 2926 1100 7FE3FB78 		mr 3,31
 2927              	.LEHB46:
 2928 1104 48000001 		bl _Unwind_Resume
 2929              	.LVL212:
 2930              	.L192:
 2931 1108 7C7F1B78 		mr 31,3
 2932              	.LVL213:
 2933              	.LBE1941:
 2934              	.LBE1955:
 2935              	.LBB1956:
 2936              	.LBB1948:
 2937 110c 7F83E378 		mr 3,28
 2938 1110 48000001 		bl _ZdlPv
 2939 1114 7FE3FB78 		mr 3,31
 2940 1118 48000001 		bl _Unwind_Resume
 2941              	.LEHE46:
 2942              	.LBE1948:
 2943              	.LBE1956:
 2944              	.LBE1961:
 2945              		.cfi_endproc
 2946              	.LFE1560:
 2947              		.section	.gcc_except_table
 2948              	.LLSDA1560:
 2949 00f7 FF       		.byte	0xff
 2950 00f8 FF       		.byte	0xff
 2951 00f9 01       		.byte	0x1
 2952 00fa 1B       		.uleb128 .LLSDACSE1560-.LLSDACSB1560
 2953              	.LLSDACSB1560:
 2954 00fb 68       		.uleb128 .LEHB42-.LFB1560
 2955 00fc E403     		.uleb128 .LEHE42-.LEHB42
 2956 00fe 00       		.uleb128 0
 2957 00ff 00       		.uleb128 0
 2958 0100 D004     		.uleb128 .LEHB43-.LFB1560
 2959 0102 04       		.uleb128 .LEHE43-.LEHB43
 2960 0103 8005     		.uleb128 .L191-.LFB1560
 2961 0105 00       		.uleb128 0
 2962 0106 EC04     		.uleb128 .LEHB44-.LFB1560
 2963 0108 04       		.uleb128 .LEHE44-.LEHB44
 2964 0109 00       		.uleb128 0
 2965 010a 00       		.uleb128 0
 2966 010b F404     		.uleb128 .LEHB45-.LFB1560
 2967 010d 04       		.uleb128 .LEHE45-.LEHB45
 2968 010e 9405     		.uleb128 .L192-.LFB1560
 2969 0110 00       		.uleb128 0
 2970 0111 9005     		.uleb128 .LEHB46-.LFB1560
 2971 0113 18       		.uleb128 .LEHE46-.LEHB46
 2972 0114 00       		.uleb128 0
 2973 0115 00       		.uleb128 0
 2974              	.LLSDACSE1560:
 2975              		.section	".text"
 2976              		.size	_ZN8GuiSound4PlayEv, .-_ZN8GuiSound4PlayEv
 2977              		.align 2
 2978              		.globl _ZN8GuiSound4StopEv
 2979              		.type	_ZN8GuiSound4StopEv, @function
 2980              	_ZN8GuiSound4StopEv:
 2981              	.LFB1561:
 2982              		.loc 1 278 0
 2983              		.cfi_startproc
 2984              		.cfi_personality 0,__gxx_personality_v0
 2985              		.cfi_lsda 0,.LLSDA1561
 2986              	.LVL214:
 2987 111c 7C0802A6 		mflr 0
 2988 1120 9421FFE8 		stwu 1,-24(1)
 2989              	.LCFI44:
 2990              		.cfi_def_cfa_offset 24
 2991              		.cfi_register 65, 0
 2992 1124 93E10014 		stw 31,20(1)
 2993 1128 7C7F1B78 		mr 31,3
 2994              		.cfi_offset 31, -4
 2995 112c 9001001C 		stw 0,28(1)
 2996 1130 93A1000C 		stw 29,12(1)
 2997              	.LBB1978:
 2998              		.loc 1 279 0
 2999 1134 8063000C 		lwz 3,12(3)
 3000              	.LVL215:
 3001              	.LBE1978:
 3002              		.loc 1 278 0
 3003 1138 93C10010 		stw 30,16(1)
 3004              	.LBB2003:
 3005              		.loc 1 279 0
 3006 113c 2B83000F 		cmplwi 7,3,15
 3007 1140 409D0020 		ble- 7,.L213
 3008              		.cfi_offset 30, -8
 3009              		.cfi_offset 29, -12
 3010              		.cfi_offset 65, 4
 3011              	.L198:
 3012              	.LBE2003:
 3013              		.loc 1 291 0
 3014 1144 8001001C 		lwz 0,28(1)
 3015 1148 83A1000C 		lwz 29,12(1)
 3016 114c 7C0803A6 		mtlr 0
 3017 1150 83C10010 		lwz 30,16(1)
 3018 1154 83E10014 		lwz 31,20(1)
 3019              	.LVL216:
 3020 1158 38210018 		addi 1,1,24
 3021              		.cfi_remember_state
 3022              	.LCFI45:
 3023              		.cfi_def_cfa_offset 0
 3024              		.cfi_restore 31
 3025              		.cfi_restore 30
 3026              		.cfi_restore 29
 3027 115c 4E800020 		blr
 3028              	.LVL217:
 3029              	.L213:
 3030              	.LCFI46:
 3031              		.cfi_restore_state
 3032              	.LBB2004:
 3033              	.LBB1979:
 3034              	.LBB1980:
 3035              		.loc 2 38 0
 3036 1160 3FA00000 		lis 29,_ZN12SoundHandler8instanceE@ha
 3037              	.LEHB47:
 3038              	.LBE1980:
 3039              	.LBE1979:
 3040              		.loc 1 282 0
 3041 1164 48000001 		bl ASND_StopVoice
 3042              	.LBB1983:
 3043              	.LBB1981:
 3044              		.loc 2 38 0
 3045 1168 83DD0000 		lwz 30,_ZN12SoundHandler8instanceE@l(29)
 3046 116c 2F9E0000 		cmpwi 7,30,0
 3047 1170 419E00A0 		beq- 7,.L214
 3048              	.L200:
 3049              	.LBE1981:
 3050              	.LBE1983:
 3051              		.loc 1 284 0
 3052 1174 813F000C 		lwz 9,12(31)
 3053              	.LVL218:
 3054              	.LBB1984:
 3055              	.LBB1985:
 3056              		.loc 2 47 0
 3057 1178 2B89000F 		cmplwi 7,9,15
 3058 117c 41BDFFC8 		bgt- 7,.L198
 3059 1180 39290004 		addi 9,9,4
 3060 1184 5529103A 		slwi 9,9,2
 3061 1188 7C7E482E 		lwzx 3,30,9
 3062              	.LBE1985:
 3063              	.LBE1984:
 3064              		.loc 1 285 0
 3065 118c 2F830000 		cmpwi 7,3,0
 3066 1190 41BEFFB4 		beq- 7,.L198
 3067              		.loc 1 288 0
 3068 1194 81230000 		lwz 9,0(3)
 3069 1198 80090050 		lwz 0,80(9)
 3070 119c 7C0903A6 		mtctr 0
 3071 11a0 4E800421 		bctrl
 3072              	.LVL219:
 3073              	.LBB1986:
 3074              	.LBB1987:
 3075              	.LBB1988:
 3076              	.LBB1989:
 3077              		.loc 2 38 0
 3078 11a4 83DD0000 		lwz 30,_ZN12SoundHandler8instanceE@l(29)
 3079 11a8 2F9E0000 		cmpwi 7,30,0
 3080 11ac 419E0094 		beq- 7,.L215
 3081              	.L203:
 3082              	.LBE1989:
 3083              	.LBE1988:
 3084              		.loc 1 344 0
 3085 11b0 813F000C 		lwz 9,12(31)
 3086              	.LVL220:
 3087              	.LBB1991:
 3088              	.LBB1992:
 3089              		.loc 2 47 0
 3090 11b4 2B89000F 		cmplwi 7,9,15
 3091 11b8 419D002C 		bgt- 7,.L205
 3092 11bc 39290004 		addi 9,9,4
 3093 11c0 5529103A 		slwi 9,9,2
 3094 11c4 7C7E482E 		lwzx 3,30,9
 3095              	.LBE1992:
 3096              	.LBE1991:
 3097              		.loc 1 345 0
 3098 11c8 2F830000 		cmpwi 7,3,0
 3099 11cc 419E0018 		beq- 7,.L205
 3100              		.loc 1 348 0
 3101 11d0 81230000 		lwz 9,0(3)
 3102 11d4 80090014 		lwz 0,20(9)
 3103 11d8 7C0903A6 		mtctr 0
 3104 11dc 4E800421 		bctrl
 3105              	.LVL221:
 3106 11e0 83DD0000 		lwz 30,_ZN12SoundHandler8instanceE@l(29)
 3107              	.L205:
 3108              	.LBE1987:
 3109              	.LBE1986:
 3110              	.LBB1995:
 3111              	.LBB1996:
 3112              		.loc 2 38 0
 3113 11e4 2F9E0000 		cmpwi 7,30,0
 3114 11e8 419E0040 		beq- 7,.L216
 3115              	.L207:
 3116              	.LBE1996:
 3117              	.LBE1995:
 3118              	.LBB1998:
 3119              	.LBB1999:
 3120              		.loc 2 48 0
 3121 11ec 807E0008 		lwz 3,8(30)
 3122 11f0 48000001 		bl LWP_ThreadSignal
 3123              	.LBE1999:
 3124              	.LBE1998:
 3125              	.LBE2004:
 3126              		.loc 1 291 0
 3127 11f4 8001001C 		lwz 0,28(1)
 3128 11f8 83A1000C 		lwz 29,12(1)
 3129 11fc 7C0803A6 		mtlr 0
 3130 1200 83C10010 		lwz 30,16(1)
 3131 1204 83E10014 		lwz 31,20(1)
 3132              	.LVL222:
 3133 1208 38210018 		addi 1,1,24
 3134              		.cfi_remember_state
 3135              		.cfi_restore 29
 3136              		.cfi_restore 30
 3137              		.cfi_restore 31
 3138              	.LCFI47:
 3139              		.cfi_def_cfa_offset 0
 3140 120c 4E800020 		blr
 3141              	.LVL223:
 3142              	.L214:
 3143              	.LCFI48:
 3144              		.cfi_restore_state
 3145              	.LBB2005:
 3146              	.LBB2000:
 3147              	.LBB1982:
 3148              		.loc 2 38 0
 3149 1210 38600050 		li 3,80
 3150 1214 48000001 		bl _Znwj
 3151              	.LEHE47:
 3152 1218 7C7E1B78 		mr 30,3
 3153              	.LEHB48:
 3154 121c 48000001 		bl _ZN12SoundHandlerC1Ev
 3155              	.LEHE48:
 3156 1220 93DD0000 		stw 30,_ZN12SoundHandler8instanceE@l(29)
 3157 1224 4BFFFF50 		b .L200
 3158              	.LVL224:
 3159              	.L216:
 3160              	.LBE1982:
 3161              	.LBE2000:
 3162              	.LBB2001:
 3163              	.LBB1997:
 3164 1228 38600050 		li 3,80
 3165              	.LEHB49:
 3166 122c 48000001 		bl _Znwj
 3167              	.LEHE49:
 3168 1230 7C7E1B78 		mr 30,3
 3169              	.LEHB50:
 3170 1234 48000001 		bl _ZN12SoundHandlerC1Ev
 3171              	.LEHE50:
 3172 1238 93DD0000 		stw 30,_ZN12SoundHandler8instanceE@l(29)
 3173 123c 4BFFFFB0 		b .L207
 3174              	.L215:
 3175              	.LBE1997:
 3176              	.LBE2001:
 3177              	.LBB2002:
 3178              	.LBB1994:
 3179              	.LBB1993:
 3180              	.LBB1990:
 3181 1240 38600050 		li 3,80
 3182              	.LEHB51:
 3183 1244 48000001 		bl _Znwj
 3184              	.LEHE51:
 3185 1248 7C7E1B78 		mr 30,3
 3186              	.LEHB52:
 3187 124c 48000001 		bl _ZN12SoundHandlerC1Ev
 3188              	.LEHE52:
 3189 1250 93DD0000 		stw 30,_ZN12SoundHandler8instanceE@l(29)
 3190 1254 4BFFFF5C 		b .L203
 3191              	.LVL225:
 3192              	.L209:
 3193              	.L212:
 3194 1258 7C7F1B78 		mr 31,3
 3195              	.LVL226:
 3196 125c 7FC3F378 		mr 3,30
 3197 1260 48000001 		bl _ZdlPv
 3198 1264 7FE3FB78 		mr 3,31
 3199              	.LEHB53:
 3200 1268 48000001 		bl _Unwind_Resume
 3201              	.LEHE53:
 3202              	.LVL227:
 3203              	.L211:
 3204 126c 4BFFFFEC 		b .L212
 3205              	.L210:
 3206 1270 4BFFFFE8 		b .L212
 3207              	.LBE1990:
 3208              	.LBE1993:
 3209              	.LBE1994:
 3210              	.LBE2002:
 3211              	.LBE2005:
 3212              		.cfi_endproc
 3213              	.LFE1561:
 3214              		.section	.gcc_except_table
 3215              	.LLSDA1561:
 3216 0116 FF       		.byte	0xff
 3217 0117 FF       		.byte	0xff
 3218 0118 01       		.byte	0x1
 3219 0119 26       		.uleb128 .LLSDACSE1561-.LLSDACSB1561
 3220              	.LLSDACSB1561:
 3221 011a 48       		.uleb128 .LEHB47-.LFB1561
 3222 011b B401     		.uleb128 .LEHE47-.LEHB47
 3223 011d 00       		.uleb128 0
 3224 011e 00       		.uleb128 0
 3225 011f 8002     		.uleb128 .LEHB48-.LFB1561
 3226 0121 04       		.uleb128 .LEHE48-.LEHB48
 3227 0122 BC02     		.uleb128 .L209-.LFB1561
 3228 0124 00       		.uleb128 0
 3229 0125 9002     		.uleb128 .LEHB49-.LFB1561
 3230 0127 04       		.uleb128 .LEHE49-.LEHB49
 3231 0128 00       		.uleb128 0
 3232 0129 00       		.uleb128 0
 3233 012a 9802     		.uleb128 .LEHB50-.LFB1561
 3234 012c 04       		.uleb128 .LEHE50-.LEHB50
 3235 012d D002     		.uleb128 .L211-.LFB1561
 3236 012f 00       		.uleb128 0
 3237 0130 A802     		.uleb128 .LEHB51-.LFB1561
 3238 0132 04       		.uleb128 .LEHE51-.LEHB51
 3239 0133 00       		.uleb128 0
 3240 0134 00       		.uleb128 0
 3241 0135 B002     		.uleb128 .LEHB52-.LFB1561
 3242 0137 04       		.uleb128 .LEHE52-.LEHB52
 3243 0138 D402     		.uleb128 .L210-.LFB1561
 3244 013a 00       		.uleb128 0
 3245 013b CC02     		.uleb128 .LEHB53-.LFB1561
 3246 013d 04       		.uleb128 .LEHE53-.LEHB53
 3247 013e 00       		.uleb128 0
 3248 013f 00       		.uleb128 0
 3249              	.LLSDACSE1561:
 3250              		.section	".text"
 3251              		.size	_ZN8GuiSound4StopEv, .-_ZN8GuiSound4StopEv
 3252              		.align 2
 3253              		.globl _ZN8GuiSound5PauseEv
 3254              		.type	_ZN8GuiSound5PauseEv, @function
 3255              	_ZN8GuiSound5PauseEv:
 3256              	.LFB1562:
 3257              		.loc 1 294 0
 3258              		.cfi_startproc
 3259              	.LVL228:
 3260 1274 7C0802A6 		mflr 0
 3261 1278 9421FFF8 		stwu 1,-8(1)
 3262              	.LCFI49:
 3263              		.cfi_def_cfa_offset 8
 3264              		.cfi_register 65, 0
 3265 127c 9001000C 		stw 0,12(1)
 3266              		.loc 1 295 0
 3267 1280 8063000C 		lwz 3,12(3)
 3268              	.LVL229:
 3269 1284 2B83000F 		cmplwi 7,3,15
 3270 1288 41BD0008 		bgt+ 7,.L217
 3271              		.cfi_offset 65, 4
 3272              		.loc 1 298 0
 3273 128c 48000001 		bl ASND_StopVoice
 3274              	.L217:
 3275              		.loc 1 299 0
 3276 1290 8001000C 		lwz 0,12(1)
 3277 1294 38210008 		addi 1,1,8
 3278              	.LCFI50:
 3279              		.cfi_def_cfa_offset 0
 3280 1298 7C0803A6 		mtlr 0
 3281 129c 4E800020 		blr
 3282              		.cfi_endproc
 3283              	.LFE1562:
 3284              		.size	_ZN8GuiSound5PauseEv, .-_ZN8GuiSound5PauseEv
 3285              		.align 2
 3286              		.globl _ZN8GuiSound6ResumeEv
 3287              		.type	_ZN8GuiSound6ResumeEv, @function
 3288              	_ZN8GuiSound6ResumeEv:
 3289              	.LFB1563:
 3290              		.loc 1 302 0
 3291              		.cfi_startproc
 3292              	.LVL230:
 3293              		.loc 1 304 0
 3294              		.loc 1 303 0
 3295 12a0 48000000 		b _ZN8GuiSound4PlayEv
 3296              	.LVL231:
 3297              		.cfi_endproc
 3298              	.LFE1563:
 3299              		.size	_ZN8GuiSound6ResumeEv, .-_ZN8GuiSound6ResumeEv
 3300              		.align 2
 3301              		.globl _ZN8GuiSound9IsPlayingEv
 3302              		.type	_ZN8GuiSound9IsPlayingEv, @function
 3303              	_ZN8GuiSound9IsPlayingEv:
 3304              	.LFB1564:
 3305              		.loc 1 307 0
 3306              		.cfi_startproc
 3307              	.LVL232:
 3308 12a4 7C0802A6 		mflr 0
 3309 12a8 9421FFF8 		stwu 1,-8(1)
 3310              	.LCFI51:
 3311              		.cfi_def_cfa_offset 8
 3312              		.cfi_register 65, 0
 3313 12ac 9001000C 		stw 0,12(1)
 3314              	.LBB2006:
 3315              		.loc 1 308 0
 3316 12b0 8003000C 		lwz 0,12(3)
 3317              		.cfi_offset 65, 4
 3318              		.loc 1 309 0
 3319 12b4 38600000 		li 3,0
 3320              	.LVL233:
 3321              		.loc 1 308 0
 3322 12b8 2B80000F 		cmplwi 7,0,15
 3323 12bc 41BD001C 		bgt+ 7,.L221
 3324              		.loc 1 311 0
 3325 12c0 7C030378 		mr 3,0
 3326 12c4 48000001 		bl ASND_StatusVoice
 3327              	.LVL234:
 3328              		.loc 1 313 0
 3329 12c8 3863FFFF 		addi 3,3,-1
 3330              	.LVL235:
 3331              		.loc 1 306 0
 3332 12cc 20630001 		subfic 3,3,1
 3333 12d0 38600000 		li 3,0
 3334 12d4 7C631914 		adde 3,3,3
 3335              	.LVL236:
 3336              	.L221:
 3337              	.LBE2006:
 3338              		.loc 1 317 0
 3339 12d8 8001000C 		lwz 0,12(1)
 3340 12dc 38210008 		addi 1,1,8
 3341              	.LCFI52:
 3342              		.cfi_def_cfa_offset 0
 3343 12e0 7C0803A6 		mtlr 0
 3344 12e4 4E800020 		blr
 3345              		.cfi_endproc
 3346              	.LFE1564:
 3347              		.size	_ZN8GuiSound9IsPlayingEv, .-_ZN8GuiSound9IsPlayingEv
 3348              		.align 2
 3349              		.globl _ZN8GuiSound9SetVolumeEi
 3350              		.type	_ZN8GuiSound9SetVolumeEi, @function
 3351              	_ZN8GuiSound9SetVolumeEi:
 3352              	.LFB1565:
 3353              		.loc 1 320 0
 3354              		.cfi_startproc
 3355              	.LVL237:
 3356 12e8 7C0802A6 		mflr 0
 3357 12ec 9421FFF8 		stwu 1,-8(1)
 3358              	.LCFI53:
 3359              		.cfi_def_cfa_offset 8
 3360              		.cfi_register 65, 0
 3361 12f0 9001000C 		stw 0,12(1)
 3362              	.LBB2007:
 3363              		.loc 1 321 0
 3364 12f4 8003000C 		lwz 0,12(3)
 3365              		.cfi_offset 65, 4
 3366 12f8 2B80000F 		cmplwi 7,0,15
 3367 12fc 419D0054 		bgt- 7,.L223
 3368              		.loc 1 324 0
 3369 1300 2F840000 		cmpwi 7,4,0
 3370 1304 419C004C 		blt- 7,.L223
 3371              	.LVL238:
 3372              	.LBB2008:
 3373              		.loc 1 327 0
 3374 1308 1C8400FF 		mulli 4,4,255
 3375              	.LVL239:
 3376 130c 3D6051EB 		lis 11,0x51eb
 3377 1310 616B851F 		ori 11,11,34079
 3378 1314 7D645896 		mulhw 11,4,11
 3379 1318 7C84FE70 		srawi 4,4,31
 3380 131c 7D6B2E70 		srawi 11,11,5
 3381 1320 7D645850 		subf 11,4,11
 3382              	.LBE2008:
 3383              		.loc 1 324 0
 3384 1324 2F8B00FF 		cmpwi 7,11,255
 3385 1328 409D0008 		ble- 7,.L225
 3386 132c 396000FF 		li 11,255
 3387              	.L225:
 3388 1330 7D6958F8 		nor 9,11,11
 3389 1334 7D29FE70 		srawi 9,9,31
 3390 1338 7D694838 		and 9,11,9
 3391              	.LBB2009:
 3392              		.loc 1 327 0
 3393 133c 91230010 		stw 9,16(3)
 3394              	.LBE2009:
 3395              		.loc 1 328 0
 3396 1340 7D244B78 		mr 4,9
 3397 1344 7C030378 		mr 3,0
 3398              	.LVL240:
 3399 1348 7D254B78 		mr 5,9
 3400 134c 48000001 		bl ASND_ChangeVolumeVoice
 3401              	.LVL241:
 3402              	.L223:
 3403              	.LBE2007:
 3404              		.loc 1 329 0
 3405 1350 8001000C 		lwz 0,12(1)
 3406 1354 38210008 		addi 1,1,8
 3407              	.LCFI54:
 3408              		.cfi_def_cfa_offset 0
 3409 1358 7C0803A6 		mtlr 0
 3410 135c 4E800020 		blr
 3411              		.cfi_endproc
 3412              	.LFE1565:
 3413              		.size	_ZN8GuiSound9SetVolumeEi, .-_ZN8GuiSound9SetVolumeEi
 3414              		.align 2
 3415              		.globl _ZN8GuiSound7SetLoopEh
 3416              		.type	_ZN8GuiSound7SetLoopEh, @function
 3417              	_ZN8GuiSound7SetLoopEh:
 3418              	.LFB1566:
 3419              		.loc 1 332 0
 3420              		.cfi_startproc
 3421              		.cfi_personality 0,__gxx_personality_v0
 3422              		.cfi_lsda 0,.LLSDA1566
 3423              	.LVL242:
 3424 1360 9421FFE8 		stwu 1,-24(1)
 3425              	.LCFI55:
 3426              		.cfi_def_cfa_offset 24
 3427 1364 7C0802A6 		mflr 0
 3428 1368 93810008 		stw 28,8(1)
 3429              	.LBB2015:
 3430              	.LBB2016:
 3431              	.LBB2017:
 3432              		.loc 2 38 0
 3433 136c 3F800000 		lis 28,_ZN12SoundHandler8instanceE@ha
 3434              		.cfi_offset 28, -16
 3435              		.cfi_register 65, 0
 3436              	.LBE2017:
 3437              	.LBE2016:
 3438              	.LBE2015:
 3439              		.loc 1 332 0
 3440 1370 93A1000C 		stw 29,12(1)
 3441              	.LBB2028:
 3442              	.LBB2022:
 3443              	.LBB2018:
 3444              		.loc 2 38 0
 3445 1374 83BC0000 		lwz 29,_ZN12SoundHandler8instanceE@l(28)
 3446              		.cfi_offset 29, -12
 3447              	.LBE2018:
 3448              	.LBE2022:
 3449              	.LBE2028:
 3450              		.loc 1 332 0
 3451 1378 93E10014 		stw 31,20(1)
 3452 137c 7C7F1B78 		mr 31,3
 3453              		.cfi_offset 31, -4
 3454              	.LBB2029:
 3455              	.LBB2023:
 3456              	.LBB2019:
 3457              		.loc 2 38 0
 3458 1380 2F9D0000 		cmpwi 7,29,0
 3459              	.LBE2019:
 3460              	.LBE2023:
 3461              	.LBE2029:
 3462              		.loc 1 332 0
 3463 1384 93C10010 		stw 30,16(1)
 3464 1388 9001001C 		stw 0,28(1)
 3465              		.loc 1 332 0
 3466 138c 7C9E2378 		mr 30,4
 3467              		.cfi_offset 65, 4
 3468              		.cfi_offset 30, -8
 3469              	.LBB2030:
 3470              		.loc 1 333 0
 3471 1390 989F0014 		stb 4,20(31)
 3472              	.LBB2024:
 3473              	.LBB2020:
 3474              		.loc 2 38 0
 3475 1394 419E0060 		beq- 7,.L233
 3476              	.LVL243:
 3477              	.L228:
 3478              	.LBE2020:
 3479              	.LBE2024:
 3480              		.loc 1 335 0
 3481 1398 813F000C 		lwz 9,12(31)
 3482              	.LVL244:
 3483              	.LBB2025:
 3484              	.LBB2026:
 3485              		.loc 2 47 0
 3486 139c 2B89000F 		cmplwi 7,9,15
 3487 13a0 419D0034 		bgt- 7,.L227
 3488 13a4 39290004 		addi 9,9,4
 3489 13a8 5529103A 		slwi 9,9,2
 3490 13ac 7C7D482E 		lwzx 3,29,9
 3491              	.LBE2026:
 3492              	.LBE2025:
 3493              		.loc 1 336 0
 3494 13b0 2F830000 		cmpwi 7,3,0
 3495 13b4 419E0020 		beq- 7,.L227
 3496              		.loc 1 339 0
 3497 13b8 81230000 		lwz 9,0(3)
 3498 13bc 6BC40001 		xori 4,30,1
 3499 13c0 7C840034 		cntlzw 4,4
 3500 13c4 80090048 		lwz 0,72(9)
 3501 13c8 5484D97E 		srwi 4,4,5
 3502 13cc 7C0903A6 		mtctr 0
 3503              	.LEHB54:
 3504 13d0 4E800421 		bctrl
 3505              	.LVL245:
 3506              	.L227:
 3507              	.LBE2030:
 3508              		.loc 1 340 0
 3509 13d4 8001001C 		lwz 0,28(1)
 3510 13d8 83810008 		lwz 28,8(1)
 3511 13dc 7C0803A6 		mtlr 0
 3512 13e0 83A1000C 		lwz 29,12(1)
 3513 13e4 83C10010 		lwz 30,16(1)
 3514 13e8 83E10014 		lwz 31,20(1)
 3515              	.LVL246:
 3516 13ec 38210018 		addi 1,1,24
 3517              		.cfi_remember_state
 3518              	.LCFI56:
 3519              		.cfi_def_cfa_offset 0
 3520              		.cfi_restore 31
 3521              		.cfi_restore 30
 3522              		.cfi_restore 29
 3523              		.cfi_restore 28
 3524 13f0 4E800020 		blr
 3525              	.LVL247:
 3526              	.L233:
 3527              	.LCFI57:
 3528              		.cfi_restore_state
 3529              	.LBB2031:
 3530              	.LBB2027:
 3531              	.LBB2021:
 3532              		.loc 2 38 0
 3533 13f4 38600050 		li 3,80
 3534              	.LVL248:
 3535 13f8 48000001 		bl _Znwj
 3536              	.LEHE54:
 3537              	.LVL249:
 3538 13fc 7C7D1B78 		mr 29,3
 3539              	.LEHB55:
 3540 1400 48000001 		bl _ZN12SoundHandlerC1Ev
 3541              	.LEHE55:
 3542 1404 93BC0000 		stw 29,_ZN12SoundHandler8instanceE@l(28)
 3543 1408 4BFFFF90 		b .L228
 3544              	.L232:
 3545 140c 7C7F1B78 		mr 31,3
 3546              	.LVL250:
 3547 1410 7FA3EB78 		mr 3,29
 3548 1414 48000001 		bl _ZdlPv
 3549 1418 7FE3FB78 		mr 3,31
 3550              	.LEHB56:
 3551 141c 48000001 		bl _Unwind_Resume
 3552              	.LEHE56:
 3553              	.LBE2021:
 3554              	.LBE2027:
 3555              	.LBE2031:
 3556              		.cfi_endproc
 3557              	.LFE1566:
 3558              		.section	.gcc_except_table
 3559              	.LLSDA1566:
 3560 0140 FF       		.byte	0xff
 3561 0141 FF       		.byte	0xff
 3562 0142 01       		.byte	0x1
 3563 0143 0F       		.uleb128 .LLSDACSE1566-.LLSDACSB1566
 3564              	.LLSDACSB1566:
 3565 0144 70       		.uleb128 .LEHB54-.LFB1566
 3566 0145 2C       		.uleb128 .LEHE54-.LEHB54
 3567 0146 00       		.uleb128 0
 3568 0147 00       		.uleb128 0
 3569 0148 A001     		.uleb128 .LEHB55-.LFB1566
 3570 014a 04       		.uleb128 .LEHE55-.LEHB55
 3571 014b AC01     		.uleb128 .L232-.LFB1566
 3572 014d 00       		.uleb128 0
 3573 014e BC01     		.uleb128 .LEHB56-.LFB1566
 3574 0150 04       		.uleb128 .LEHE56-.LEHB56
 3575 0151 00       		.uleb128 0
 3576 0152 00       		.uleb128 0
 3577              	.LLSDACSE1566:
 3578              		.section	".text"
 3579              		.size	_ZN8GuiSound7SetLoopEh, .-_ZN8GuiSound7SetLoopEh
 3580              		.align 2
 3581              		.globl _ZN8GuiSound6RewindEv
 3582              		.type	_ZN8GuiSound6RewindEv, @function
 3583              	_ZN8GuiSound6RewindEv:
 3584              	.LFB1567:
 3585              		.loc 1 343 0
 3586              		.cfi_startproc
 3587              		.cfi_personality 0,__gxx_personality_v0
 3588              		.cfi_lsda 0,.LLSDA1567
 3589              	.LVL251:
 3590 1420 9421FFE8 		stwu 1,-24(1)
 3591              	.LCFI58:
 3592              		.cfi_def_cfa_offset 24
 3593 1424 7C0802A6 		mflr 0
 3594 1428 93C10010 		stw 30,16(1)
 3595              	.LBB2037:
 3596              	.LBB2038:
 3597              	.LBB2039:
 3598              		.loc 2 38 0
 3599 142c 3FC00000 		lis 30,_ZN12SoundHandler8instanceE@ha
 3600              		.cfi_offset 30, -8
 3601              		.cfi_register 65, 0
 3602              	.LBE2039:
 3603              	.LBE2038:
 3604              	.LBE2037:
 3605              		.loc 1 343 0
 3606 1430 93E10014 		stw 31,20(1)
 3607              	.LBB2050:
 3608              	.LBB2044:
 3609              	.LBB2040:
 3610              		.loc 2 38 0
 3611 1434 83FE0000 		lwz 31,_ZN12SoundHandler8instanceE@l(30)
 3612              		.cfi_offset 31, -4
 3613              	.LBE2040:
 3614              	.LBE2044:
 3615              	.LBE2050:
 3616              		.loc 1 343 0
 3617 1438 93A1000C 		stw 29,12(1)
 3618 143c 7C7D1B78 		mr 29,3
 3619              		.cfi_offset 29, -12
 3620              	.LBB2051:
 3621              	.LBB2045:
 3622              	.LBB2041:
 3623              		.loc 2 38 0
 3624 1440 2F9F0000 		cmpwi 7,31,0
 3625              	.LBE2041:
 3626              	.LBE2045:
 3627              	.LBE2051:
 3628              		.loc 1 343 0
 3629 1444 9001001C 		stw 0,28(1)
 3630              	.LBB2052:
 3631              	.LBB2046:
 3632              	.LBB2042:
 3633              		.loc 2 38 0
 3634 1448 419E0050 		beq- 7,.L240
 3635              		.cfi_offset 65, 4
 3636              	.LVL252:
 3637              	.L235:
 3638              	.LBE2042:
 3639              	.LBE2046:
 3640              		.loc 1 344 0
 3641 144c 813D000C 		lwz 9,12(29)
 3642              	.LVL253:
 3643              	.LBB2047:
 3644              	.LBB2048:
 3645              		.loc 2 47 0
 3646 1450 2B89000F 		cmplwi 7,9,15
 3647 1454 419D0028 		bgt- 7,.L234
 3648 1458 39290004 		addi 9,9,4
 3649 145c 5529103A 		slwi 9,9,2
 3650 1460 7C7F482E 		lwzx 3,31,9
 3651              	.LBE2048:
 3652              	.LBE2047:
 3653              		.loc 1 345 0
 3654 1464 2F830000 		cmpwi 7,3,0
 3655 1468 419E0014 		beq- 7,.L234
 3656              		.loc 1 348 0
 3657 146c 81230000 		lwz 9,0(3)
 3658 1470 80090014 		lwz 0,20(9)
 3659 1474 7C0903A6 		mtctr 0
 3660              	.LEHB57:
 3661 1478 4E800421 		bctrl
 3662              	.LVL254:
 3663              	.L234:
 3664              	.LBE2052:
 3665              		.loc 1 349 0
 3666 147c 8001001C 		lwz 0,28(1)
 3667 1480 83A1000C 		lwz 29,12(1)
 3668              	.LVL255:
 3669 1484 7C0803A6 		mtlr 0
 3670 1488 83C10010 		lwz 30,16(1)
 3671 148c 83E10014 		lwz 31,20(1)
 3672 1490 38210018 		addi 1,1,24
 3673              		.cfi_remember_state
 3674              	.LCFI59:
 3675              		.cfi_def_cfa_offset 0
 3676              		.cfi_restore 31
 3677              		.cfi_restore 30
 3678              		.cfi_restore 29
 3679 1494 4E800020 		blr
 3680              	.LVL256:
 3681              	.L240:
 3682              	.LCFI60:
 3683              		.cfi_restore_state
 3684              	.LBB2053:
 3685              	.LBB2049:
 3686              	.LBB2043:
 3687              		.loc 2 38 0
 3688 1498 38600050 		li 3,80
 3689              	.LVL257:
 3690 149c 48000001 		bl _Znwj
 3691              	.LEHE57:
 3692 14a0 7C7F1B78 		mr 31,3
 3693              	.LEHB58:
 3694 14a4 48000001 		bl _ZN12SoundHandlerC1Ev
 3695              	.LEHE58:
 3696 14a8 93FE0000 		stw 31,_ZN12SoundHandler8instanceE@l(30)
 3697 14ac 4BFFFFA0 		b .L235
 3698              	.L239:
 3699 14b0 7C7E1B78 		mr 30,3
 3700 14b4 7FE3FB78 		mr 3,31
 3701 14b8 48000001 		bl _ZdlPv
 3702 14bc 7FC3F378 		mr 3,30
 3703              	.LEHB59:
 3704 14c0 48000001 		bl _Unwind_Resume
 3705              	.LEHE59:
 3706              	.LBE2043:
 3707              	.LBE2049:
 3708              	.LBE2053:
 3709              		.cfi_endproc
 3710              	.LFE1567:
 3711              		.section	.gcc_except_table
 3712              	.LLSDA1567:
 3713 0153 FF       		.byte	0xff
 3714 0154 FF       		.byte	0xff
 3715 0155 01       		.byte	0x1
 3716 0156 0F       		.uleb128 .LLSDACSE1567-.LLSDACSB1567
 3717              	.LLSDACSB1567:
 3718 0157 58       		.uleb128 .LEHB57-.LFB1567
 3719 0158 28       		.uleb128 .LEHE57-.LEHB57
 3720 0159 00       		.uleb128 0
 3721 015a 00       		.uleb128 0
 3722 015b 8401     		.uleb128 .LEHB58-.LFB1567
 3723 015d 04       		.uleb128 .LEHE58-.LEHB58
 3724 015e 9001     		.uleb128 .L239-.LFB1567
 3725 0160 00       		.uleb128 0
 3726 0161 A001     		.uleb128 .LEHB59-.LFB1567
 3727 0163 04       		.uleb128 .LEHE59-.LEHB59
 3728 0164 00       		.uleb128 0
 3729 0165 00       		.uleb128 0
 3730              	.LLSDACSE1567:
 3731              		.section	".text"
 3732              		.size	_ZN8GuiSound6RewindEv, .-_ZN8GuiSound6RewindEv
 3733              		.align 2
 3734              		.globl _ZN8GuiSound18UncompressSoundbinEPKhib
 3735              		.type	_ZN8GuiSound18UncompressSoundbinEPKhib, @function
 3736              	_ZN8GuiSound18UncompressSoundbinEPKhib:
 3737              	.LFB1568:
 3738              		.loc 1 352 0
 3739              		.cfi_startproc
 3740              	.LVL258:
 3741 14c4 7C0802A6 		mflr 0
 3742 14c8 9421FFD0 		stwu 1,-48(1)
 3743              	.LCFI61:
 3744              		.cfi_def_cfa_offset 48
 3745              		.cfi_register 65, 0
 3746 14cc 9361001C 		stw 27,28(1)
 3747              	.LBB2054:
 3748              		.loc 1 353 0
 3749 14d0 3B640020 		addi 27,4,32
 3750              		.cfi_offset 27, -20
 3751              	.LVL259:
 3752              	.LBE2054:
 3753              		.loc 1 352 0
 3754 14d4 90010034 		stw 0,52(1)
 3755              	.LBB2061:
 3756              	.LBB2055:
 3757              		.loc 1 354 0
 3758 14d8 3C004C5A 		lis 0,0x4c5a
 3759              		.cfi_offset 65, 4
 3760 14dc 60003737 		ori 0,0,14135
 3761              	.LBE2055:
 3762              	.LBE2061:
 3763              		.loc 1 352 0
 3764 14e0 93A10024 		stw 29,36(1)
 3765              	.LBB2062:
 3766              	.LBB2057:
 3767              		.loc 1 354 0
 3768 14e4 81240020 		lwz 9,32(4)
 3769              	.LBE2057:
 3770              	.LBE2062:
 3771              		.loc 1 352 0
 3772 14e8 7CDD3378 		mr 29,6
 3773              		.cfi_offset 29, -12
 3774 14ec 93C10028 		stw 30,40(1)
 3775 14f0 7C9E2378 		mr 30,4
 3776              		.cfi_offset 30, -8
 3777              	.LBB2063:
 3778              	.LBB2058:
 3779              		.loc 1 354 0
 3780 14f4 7F890000 		cmpw 7,9,0
 3781              	.LBE2058:
 3782              	.LBE2063:
 3783              		.loc 1 352 0
 3784 14f8 93E1002C 		stw 31,44(1)
 3785 14fc 93810020 		stw 28,32(1)
 3786              		.loc 1 352 0
 3787 1500 7C7F1B78 		mr 31,3
 3788              		.cfi_offset 28, -16
 3789              		.cfi_offset 31, -4
 3790              	.LBB2064:
 3791              	.LBB2059:
 3792              		.loc 1 354 0
 3793 1504 419E0060 		beq- 7,.L245
 3794              		.loc 1 362 0
 3795 1508 3B85FFE0 		addi 28,5,-32
 3796 150c 93830008 		stw 28,8(3)
 3797              		.loc 1 363 0
 3798 1510 7F83E378 		mr 3,28
 3799              	.LVL260:
 3800 1514 48000001 		bl malloc
 3801              	.LVL261:
 3802              		.loc 1 364 0
 3803 1518 7F64DB78 		mr 4,27
 3804              		.loc 1 363 0
 3805 151c 907F0004 		stw 3,4(31)
 3806              		.loc 1 364 0
 3807 1520 7F85E378 		mr 5,28
 3808 1524 48000001 		bl memcpy
 3809              	.LVL262:
 3810              	.L243:
 3811              	.LBE2059:
 3812              		.loc 1 367 0
 3813 1528 2F9D0000 		cmpwi 7,29,0
 3814 152c 41BE000C 		beq+ 7,.L244
 3815              		.loc 1 368 0
 3816 1530 7FC3F378 		mr 3,30
 3817 1534 48000001 		bl free
 3818              	.LVL263:
 3819              	.L244:
 3820              		.loc 1 370 0
 3821 1538 38000001 		li 0,1
 3822              	.LBE2064:
 3823              		.loc 1 371 0
 3824 153c 8361001C 		lwz 27,28(1)
 3825              	.LVL264:
 3826              	.LBB2065:
 3827              		.loc 1 370 0
 3828 1540 981F001C 		stb 0,28(31)
 3829              	.LBE2065:
 3830              		.loc 1 371 0
 3831 1544 80010034 		lwz 0,52(1)
 3832 1548 83810020 		lwz 28,32(1)
 3833 154c 7C0803A6 		mtlr 0
 3834 1550 83A10024 		lwz 29,36(1)
 3835 1554 83C10028 		lwz 30,40(1)
 3836              	.LVL265:
 3837 1558 83E1002C 		lwz 31,44(1)
 3838              	.LVL266:
 3839 155c 38210030 		addi 1,1,48
 3840              		.cfi_remember_state
 3841              	.LCFI62:
 3842              		.cfi_def_cfa_offset 0
 3843              		.cfi_restore 31
 3844              		.cfi_restore 30
 3845              		.cfi_restore 29
 3846              		.cfi_restore 28
 3847              		.cfi_restore 27
 3848 1560 4E800020 		blr
 3849              	.LVL267:
 3850              	.L245:
 3851              	.LCFI63:
 3852              		.cfi_restore_state
 3853              	.LBB2066:
 3854              	.LBB2060:
 3855              	.LBB2056:
 3856              		.loc 1 356 0
 3857 1564 7C290B78 		mr 9,1
 3858 1568 38000000 		li 0,0
 3859 156c 94090008 		stwu 0,8(9)
 3860              	.LVL268:
 3861              		.loc 1 357 0
 3862 1570 3885FFE0 		addi 4,5,-32
 3863              	.LVL269:
 3864 1574 7F63DB78 		mr 3,27
 3865              	.LVL270:
 3866 1578 7D254B78 		mr 5,9
 3867              	.LVL271:
 3868 157c 48000001 		bl uncompressLZ77
 3869              	.LVL272:
 3870              		.loc 1 358 0
 3871 1580 80010008 		lwz 0,8(1)
 3872              		.loc 1 357 0
 3873 1584 907F0004 		stw 3,4(31)
 3874              		.loc 1 358 0
 3875 1588 901F0008 		stw 0,8(31)
 3876 158c 4BFFFF9C 		b .L243
 3877              	.LBE2056:
 3878              	.LBE2060:
 3879              	.LBE2066:
 3880              		.cfi_endproc
 3881              	.LFE1568:
 3882              		.size	_ZN8GuiSound18UncompressSoundbinEPKhib, .-_ZN8GuiSound18UncompressSoundbinEPKhib
 3883              		.weak	_ZTS8GuiSound
 3884              		.section	.rodata._ZTS8GuiSound,"aG",@progbits,_ZTS8GuiSound,comdat
 3885              		.align 2
 3886              		.type	_ZTS8GuiSound, @object
 3887              		.size	_ZTS8GuiSound, 10
 3888              	_ZTS8GuiSound:
 3889 0000 38477569 		.string	"8GuiSound"
 3889      536F756E 
 3889      6400
 3890              		.weak	_ZTI8GuiSound
 3891              		.section	.sdata._ZTI8GuiSound,"awG",@progbits,_ZTI8GuiSound,comdat
 3892              		.align 2
 3893              		.type	_ZTI8GuiSound, @object
 3894              		.size	_ZTI8GuiSound, 8
 3895              	_ZTI8GuiSound:
 3896 0000 00000008 		.long	_ZTVN10__cxxabiv117__class_type_infoE+8
 3897 0004 00000000 		.long	_ZTS8GuiSound
 3898              		.weak	_ZTV8GuiSound
 3899              		.section	.rodata._ZTV8GuiSound,"aG",@progbits,_ZTV8GuiSound,comdat
 3900              		.align 3
 3901              		.type	_ZTV8GuiSound, @object
 3902              		.size	_ZTV8GuiSound, 16
 3903              	_ZTV8GuiSound:
 3904 0000 00000000 		.long	0
 3905 0004 00000000 		.long	_ZTI8GuiSound
 3906 0008 00000000 		.long	_ZN8GuiSoundD1Ev
 3907 000c 00000000 		.long	_ZN8GuiSoundD0Ev
 3908              		.globl _ZN8GuiSoundD1Ev
 3909              		.set	_ZN8GuiSoundD1Ev,_ZN8GuiSoundD2Ev
 3910              		.globl _ZN8GuiSoundC1EPKhibi
 3911              		.set	_ZN8GuiSoundC1EPKhibi,_ZN8GuiSoundC2EPKhibi
 3912              		.globl _ZN8GuiSoundC1EPKc
 3913              		.set	_ZN8GuiSoundC1EPKc,_ZN8GuiSoundC2EPKc
 3914              		.section	".data"
 3915              		.align 2
 3916              		.set	.LANCHOR0,. + 0
 3917              		.type	_ZL9VoiceUsed, @object
 3918              		.size	_ZL9VoiceUsed, 16
 3919              	_ZL9VoiceUsed:
 3920 0000 01       		.byte	1
 3921 0001 00       		.byte	0
 3922 0002 00       		.byte	0
 3923 0003 00       		.byte	0
 3924 0004 00       		.byte	0
 3925 0005 00       		.byte	0
 3926 0006 00       		.byte	0
 3927 0007 00       		.byte	0
 3928 0008 00       		.byte	0
 3929 0009 00       		.byte	0
 3930 000a 00       		.byte	0
 3931 000b 00       		.byte	0
 3932 000c 00       		.byte	0
 3933 000d 00       		.byte	0
 3934 000e 00       		.byte	0
 3935 000f 00       		.byte	0
 3936              		.section	.rodata.str1.4,"aMS",@progbits,1
 3937              		.align 2
 3938              	.LC0:
 3939 0000 726200   		.string	"rb"
 3940              		.section	".text"
 3941              	.Letext0:
 3942              		.file 6 "d:\\devkitpro\\devkitppc\\bin\\../lib/gcc/powerpc-eabi/4.6.3/../../../../powerpc-eabi/inc
 3943              		.file 7 "d:/devkitPro/libogc/include/gctypes.h"
 3944              		.file 8 "d:/devkitPro/libogc/include/ogc/lwp.h"
 3945              		.file 9 "d:/devkitPro/libogc/include/ogc/gx.h"
 3946              		.file 10 "d:\\devkitpro\\devkitppc\\bin\\../lib/gcc/powerpc-eabi/4.6.3/../../../../powerpc-eabi/in
 3947              		.file 11 "d:\\devkitpro\\devkitppc\\bin\\../lib/gcc/powerpc-eabi/4.6.3/../../../../powerpc-eabi/in
 3948              		.file 12 "d:\\devkitpro\\devkitppc\\bin\\../lib/gcc/powerpc-eabi/4.6.3/include/stddef.h"
 3949              		.file 13 "d:\\devkitpro\\devkitppc\\bin\\../lib/gcc/powerpc-eabi/4.6.3/../../../../powerpc-eabi/in
 3950              		.file 14 "d:\\devkitpro\\devkitppc\\bin\\../lib/gcc/powerpc-eabi/4.6.3/../../../../powerpc-eabi/in
 3951              		.file 15 "d:\\devkitpro\\devkitppc\\bin\\../lib/gcc/powerpc-eabi/4.6.3/../../../../powerpc-eabi/in
 3952              		.file 16 "d:\\devkitpro\\devkitppc\\bin\\../lib/gcc/powerpc-eabi/4.6.3/../../../../powerpc-eabi/in
 3953              		.file 17 "d:\\devkitpro\\devkitppc\\bin\\../lib/gcc/powerpc-eabi/4.6.3/../../../../powerpc-eabi/in
 3954              		.file 18 "d:\\devkitpro\\devkitppc\\bin\\../lib/gcc/powerpc-eabi/4.6.3/../../../../powerpc-eabi/in
 3955              		.file 19 "d:\\devkitpro\\devkitppc\\bin\\../lib/gcc/powerpc-eabi/4.6.3/../../../../powerpc-eabi/in
 3956              		.file 20 "d:\\devkitpro\\devkitppc\\bin\\../lib/gcc/powerpc-eabi/4.6.3/../../../../powerpc-eabi/in
 3957              		.file 21 "d:\\devkitpro\\devkitppc\\bin\\../lib/gcc/powerpc-eabi/4.6.3/../../../../powerpc-eabi/in
 3958              		.file 22 "d:\\devkitpro\\devkitppc\\bin\\../lib/gcc/powerpc-eabi/4.6.3/../../../../powerpc-eabi/in
 3959              		.file 23 "d:\\devkitpro\\devkitppc\\bin\\../lib/gcc/powerpc-eabi/4.6.3/../../../../powerpc-eabi/in
 3960              		.file 24 "d:\\devkitpro\\devkitppc\\bin\\../lib/gcc/powerpc-eabi/4.6.3/../../../../powerpc-eabi/in
 3961              		.file 25 "d:\\devkitpro\\devkitppc\\bin\\../lib/gcc/powerpc-eabi/4.6.3/../../../../powerpc-eabi/in
 3962              		.file 26 "d:\\devkitpro\\devkitppc\\bin\\../lib/gcc/powerpc-eabi/4.6.3/../../../../powerpc-eabi/in
 3963              		.file 27 "d:\\devkitpro\\devkitppc\\bin\\../lib/gcc/powerpc-eabi/4.6.3/../../../../powerpc-eabi/in
 3964              		.file 28 "d:\\devkitpro\\devkitppc\\bin\\../lib/gcc/powerpc-eabi/4.6.3/../../../../powerpc-eabi/in
 3965              		.file 29 "d:\\devkitpro\\devkitppc\\bin\\../lib/gcc/powerpc-eabi/4.6.3/../../../../powerpc-eabi/in
 3966              		.file 30 "d:\\devkitpro\\devkitppc\\bin\\../lib/gcc/powerpc-eabi/4.6.3/../../../../powerpc-eabi/in
 3967              		.file 31 "<built-in>"
 3968              		.file 32 "d:\\devkitpro\\devkitppc\\bin\\../lib/gcc/powerpc-eabi/4.6.3/../../../../powerpc-eabi/in
 3969              		.file 33 "d:\\devkitpro\\devkitppc\\bin\\../lib/gcc/powerpc-eabi/4.6.3/../../../../powerpc-eabi/in
 3970              		.file 34 "d:\\devkitpro\\devkitppc\\bin\\../lib/gcc/powerpc-eabi/4.6.3/../../../../powerpc-eabi/in
 3971              		.file 35 "d:\\devkitpro\\devkitppc\\bin\\../lib/gcc/powerpc-eabi/4.6.3/../../../../powerpc-eabi/in
 3972              		.file 36 "d:\\devkitpro\\devkitppc\\bin\\../lib/gcc/powerpc-eabi/4.6.3/../../../../powerpc-eabi/in
 3973              		.file 37 "d:\\devkitpro\\devkitppc\\bin\\../lib/gcc/powerpc-eabi/4.6.3/../../../../powerpc-eabi/in
 3974              		.file 38 "d:/Projects/SaveGameManager/savegame-manager-gx/trunk/source/GUI/../SoundOperations/../G
 3975              		.file 39 "d:/Projects/SaveGameManager/savegame-manager-gx/trunk/source/GUI/../SoundOperations/../G
 3976              		.file 40 "d:\\devkitpro\\devkitppc\\bin\\../lib/gcc/powerpc-eabi/4.6.3/../../../../powerpc-eabi/in
 3977              		.file 41 "d:/Projects/SaveGameManager/savegame-manager-gx/trunk/source/GUI/../SoundOperations/../G
 3978              		.file 42 "d:\\devkitpro\\devkitppc\\bin\\../lib/gcc/powerpc-eabi/4.6.3/../../../../powerpc-eabi/in
 3979              		.file 43 "d:\\devkitpro\\devkitppc\\bin\\../lib/gcc/powerpc-eabi/4.6.3/../../../../powerpc-eabi/in
 3980              		.file 44 "d:\\devkitpro\\devkitppc\\bin\\../lib/gcc/powerpc-eabi/4.6.3/../../../../powerpc-eabi/in
 3981              		.file 45 "d:/Projects/SaveGameManager/savegame-manager-gx/trunk/source/GUI/../SoundOperations/Buff
 3982              		.file 46 "d:\\devkitpro\\devkitppc\\bin\\../lib/gcc/powerpc-eabi/4.6.3/../../../../powerpc-eabi/in
 3983              		.file 47 "d:/Projects/SaveGameManager/savegame-manager-gx/trunk/source/GUI/gui_sound.h"
 3984              		.file 48 "d:/Projects/SaveGameManager/savegame-manager-gx/trunk/source/GUI/../SoundOperations/../C
 3985              		.file 49 "d:\\devkitpro\\devkitppc\\bin\\../lib/gcc/powerpc-eabi/4.6.3/../../../../powerpc-eabi/in