	.file	"gui_tooltip.cpp"
	.section	".text"
.Ltext0:
	.section	.text._ZN7sigslot15single_threadedD2Ev,"axG",@progbits,_ZN7sigslot15single_threadedD5Ev,comdat
	.align 2
	.weak	_ZN7sigslot15single_threadedD2Ev
	.type	_ZN7sigslot15single_threadedD2Ev, @function
_ZN7sigslot15single_threadedD2Ev:
.LFB1148:
	.file 1 "d:/Projects/SaveGameManager/savegame-manager-gx/trunk/source/GUI/../sigslot.h"
	.loc 1 104 0
	.cfi_startproc
.LVL0:
.LBB1402:
	.loc 1 105 0
	lis 9,_ZTVN7sigslot15single_threadedE+8@ha
.LBE1402:
	.loc 1 107 0
.LBB1403:
	.loc 1 105 0
	la 0,_ZTVN7sigslot15single_threadedE+8@l(9)
	stw 0,0(3)
.LBE1403:
	.loc 1 107 0
	blr
	.cfi_endproc
.LFE1148:
	.size	_ZN7sigslot15single_threadedD2Ev, .-_ZN7sigslot15single_threadedD2Ev
	.section	.text._ZN7sigslot15single_threaded4lockEv,"axG",@progbits,_ZN7sigslot15single_threaded4lockEv,comdat
	.align 2
	.weak	_ZN7sigslot15single_threaded4lockEv
	.type	_ZN7sigslot15single_threaded4lockEv, @function
_ZN7sigslot15single_threaded4lockEv:
.LFB1151:
	.loc 1 109 0
	.cfi_startproc
.LVL1:
	.loc 1 112 0
	blr
	.cfi_endproc
.LFE1151:
	.size	_ZN7sigslot15single_threaded4lockEv, .-_ZN7sigslot15single_threaded4lockEv
	.section	.text._ZN7sigslot15single_threaded6unlockEv,"axG",@progbits,_ZN7sigslot15single_threaded6unlockEv,comdat
	.align 2
	.weak	_ZN7sigslot15single_threaded6unlockEv
	.type	_ZN7sigslot15single_threaded6unlockEv, @function
_ZN7sigslot15single_threaded6unlockEv:
.LFB1152:
	.loc 1 114 0
	.cfi_startproc
.LVL2:
	.loc 1 117 0
	blr
	.cfi_endproc
.LFE1152:
	.size	_ZN7sigslot15single_threaded6unlockEv, .-_ZN7sigslot15single_threaded6unlockEv
	.section	.text._ZN10GuiElement9SetParentEPS_,"axG",@progbits,_ZN10GuiElement9SetParentEPS_,comdat
	.align 2
	.weak	_ZN10GuiElement9SetParentEPS_
	.type	_ZN10GuiElement9SetParentEPS_, @function
_ZN10GuiElement9SetParentEPS_:
.LFB1384:
	.file 2 "d:/Projects/SaveGameManager/savegame-manager-gx/trunk/source/GUI/gui_element.h"
	.loc 2 92 0
	.cfi_startproc
.LVL3:
	.loc 2 92 0
	stw 4,96(3)
	blr
	.cfi_endproc
.LFE1384:
	.size	_ZN10GuiElement9SetParentEPS_, .-_ZN10GuiElement9SetParentEPS_
	.section	.text._ZN10GuiElement9GetParentEv,"axG",@progbits,_ZN10GuiElement9GetParentEv,comdat
	.align 2
	.weak	_ZN10GuiElement9GetParentEv
	.type	_ZN10GuiElement9GetParentEv, @function
_ZN10GuiElement9GetParentEv:
.LFB1385:
	.loc 2 95 0
	.cfi_startproc
.LVL4:
	.loc 2 95 0
	lwz 3,96(3)
.LVL5:
	blr
	.cfi_endproc
.LFE1385:
	.size	_ZN10GuiElement9GetParentEv, .-_ZN10GuiElement9GetParentEv
	.section	.text._ZN10GuiElement12GetZPositionEv,"axG",@progbits,_ZN10GuiElement12GetZPositionEv,comdat
	.align 2
	.weak	_ZN10GuiElement12GetZPositionEv
	.type	_ZN10GuiElement12GetZPositionEv, @function
_ZN10GuiElement12GetZPositionEv:
.LFB1386:
	.loc 2 106 0
	.cfi_startproc
.LVL6:
	mflr 0
	stwu 1,-16(1)
.LCFI0:
	.cfi_def_cfa_offset 16
	.cfi_register 65, 0
	stw 31,12(1)
	mr 31,3
	.cfi_offset 31, -4
	stw 0,20(1)
.LBB1404:
	.loc 2 110 0
	lwz 11,96(3)
	.loc 2 108 0
	li 3,0
.LVL7:
	.loc 2 110 0
	cmpwi 7,11,0
	beq- 7,.L8
	.cfi_offset 65, 4
	.loc 2 111 0
	lwz 9,0(11)
	mr 3,11
	lwz 0,24(9)
	mtctr 0
	bctrl
.LVL8:
.L8:
	.loc 2 113 0
	lwz 0,52(31)
.LBE1404:
	.loc 2 114 0
	lwz 31,12(1)
.LVL9:
	add 3,3,0
.LVL10:
	lwz 0,20(1)
	addi 1,1,16
.LCFI1:
	.cfi_def_cfa_offset 0
	.cfi_restore 31
	mtlr 0
	blr
	.cfi_endproc
.LFE1386:
	.size	_ZN10GuiElement12GetZPositionEv, .-_ZN10GuiElement12GetZPositionEv
	.section	.text._ZN10GuiElement10GetLeftPosEv,"axG",@progbits,_ZN10GuiElement10GetLeftPosEv,comdat
	.align 2
	.weak	_ZN10GuiElement10GetLeftPosEv
	.type	_ZN10GuiElement10GetLeftPosEv, @function
_ZN10GuiElement10GetLeftPosEv:
.LFB1387:
	.loc 2 116 0
	.cfi_startproc
.LVL11:
	.loc 2 116 0
	lwz 3,44(3)
.LVL12:
	blr
	.cfi_endproc
.LFE1387:
	.size	_ZN10GuiElement10GetLeftPosEv, .-_ZN10GuiElement10GetLeftPosEv
	.section	.text._ZN10GuiElement9GetTopPosEv,"axG",@progbits,_ZN10GuiElement9GetTopPosEv,comdat
	.align 2
	.weak	_ZN10GuiElement9GetTopPosEv
	.type	_ZN10GuiElement9GetTopPosEv, @function
_ZN10GuiElement9GetTopPosEv:
.LFB1388:
	.loc 2 118 0
	.cfi_startproc
.LVL13:
	.loc 2 118 0
	lwz 3,48(3)
.LVL14:
	blr
	.cfi_endproc
.LFE1388:
	.size	_ZN10GuiElement9GetTopPosEv, .-_ZN10GuiElement9GetTopPosEv
	.section	.text._ZN10GuiElement8GetWidthEv,"axG",@progbits,_ZN10GuiElement8GetWidthEv,comdat
	.align 2
	.weak	_ZN10GuiElement8GetWidthEv
	.type	_ZN10GuiElement8GetWidthEv, @function
_ZN10GuiElement8GetWidthEv:
.LFB1389:
	.loc 2 121 0
	.cfi_startproc
.LVL15:
	.loc 2 121 0
	lwz 3,36(3)
.LVL16:
	blr
	.cfi_endproc
.LFE1389:
	.size	_ZN10GuiElement8GetWidthEv, .-_ZN10GuiElement8GetWidthEv
	.section	.text._ZN10GuiElement9GetHeightEv,"axG",@progbits,_ZN10GuiElement9GetHeightEv,comdat
	.align 2
	.weak	_ZN10GuiElement9GetHeightEv
	.type	_ZN10GuiElement9GetHeightEv, @function
_ZN10GuiElement9GetHeightEv:
.LFB1390:
	.loc 2 124 0
	.cfi_startproc
.LVL17:
	.loc 2 124 0
	lwz 3,40(3)
.LVL18:
	blr
	.cfi_endproc
.LFE1390:
	.size	_ZN10GuiElement9GetHeightEv, .-_ZN10GuiElement9GetHeightEv
	.section	.text._ZN10GuiElement7SetSizeEii,"axG",@progbits,_ZN10GuiElement7SetSizeEii,comdat
	.align 2
	.weak	_ZN10GuiElement7SetSizeEii
	.type	_ZN10GuiElement7SetSizeEii, @function
_ZN10GuiElement7SetSizeEii:
.LFB1391:
	.loc 2 128 0
	.cfi_startproc
.LVL19:
	.loc 2 130 0
	stw 4,36(3)
	.loc 2 132 0
	.loc 2 131 0
	stw 5,40(3)
	.loc 2 132 0
	blr
	.cfi_endproc
.LFE1391:
	.size	_ZN10GuiElement7SetSizeEii, .-_ZN10GuiElement7SetSizeEii
	.section	.text._ZN10GuiElement10SetVisibleEb,"axG",@progbits,_ZN10GuiElement10SetVisibleEb,comdat
	.align 2
	.weak	_ZN10GuiElement10SetVisibleEb
	.type	_ZN10GuiElement10SetVisibleEb, @function
_ZN10GuiElement10SetVisibleEb:
.LFB1392:
	.loc 2 135 0
	.cfi_startproc
	.cfi_personality 0,__gxx_personality_v0
	.cfi_lsda 0,.LLSDA1392
.LVL20:
	mflr 0
	stwu 1,-32(1)
.LCFI2:
	.cfi_def_cfa_offset 32
	.cfi_register 65, 0
	stw 27,12(1)
.LBB1419:
.LBB1420:
	.loc 1 2270 0
	addi 27,3,4
	.cfi_offset 27, -20
.LBE1420:
.LBE1419:
	.loc 2 135 0
	stw 0,36(1)
	stw 30,24(1)
	mr 30,3
	.cfi_offset 30, -8
	.cfi_offset 65, 4
.LBB1443:
.LBB1437:
.LBB1421:
.LBB1422:
	.loc 1 338 0
	lwz 9,4(3)
	mr 3,27
.LVL21:
.LBE1422:
.LBE1421:
.LBE1437:
.LBE1443:
	.loc 2 135 0
	stw 28,16(1)
	mr 28,4
	.cfi_offset 28, -16
.LBB1444:
.LBB1438:
.LBB1426:
.LBB1423:
	.loc 1 338 0
	lwz 0,8(9)
.LBE1423:
.LBE1426:
.LBE1438:
.LBE1444:
	.loc 2 135 0
	stw 29,20(1)
.LBB1445:
	.file 3 "d:/Projects/SaveGameManager/savegame-manager-gx/trunk/source/GUI/gui_tooltip.cpp"
	.loc 3 160 0
	mr 29,30
	.cfi_offset 29, -12
.LBE1445:
	.loc 2 135 0
	stw 31,28(1)
.LBB1446:
.LBB1439:
.LBB1427:
.LBB1424:
	.loc 1 338 0
	mtctr 0
.LBE1424:
.LBE1427:
.LBE1439:
.LBE1446:
	.loc 2 137 0
	stb 4,29(30)
.LVL22:
.LEHB0:
.LBB1447:
.LBB1440:
.LBB1428:
.LBB1425:
	.loc 1 338 0
	.cfi_offset 31, -4
	bctrl
.LEHE0:
.LVL23:
.LBE1425:
.LBE1428:
.LBE1440:
	.loc 3 160 0
	lwzu 31,8(29)
.LVL24:
.LBB1441:
	.loc 1 2274 0
	cmpw 7,31,29
	beq- 7,.L17
.LVL25:
.L24:
	.loc 1 2279 0
	lwz 3,8(31)
	mr 4,30
	mr 5,28
.LBB1429:
.LBB1430:
	.file 4 "d:\\devkitpro\\devkitppc\\bin\\../lib/gcc/powerpc-eabi/4.6.3/../../../../powerpc-eabi/include/c++/4.6.3/bits/stl_list.h"
	.loc 4 234 0
	lwz 31,0(31)
.LVL26:
.LBE1430:
.LBE1429:
	.loc 1 2279 0
	lwz 9,0(3)
	lwz 0,12(9)
	mtctr 0
.LEHB1:
	bctrl
.LEHE1:
.LVL27:
	.loc 1 2274 0
	cmpw 7,29,31
	bne+ 7,.L24
.LVL28:
.L17:
.LBB1431:
.LBB1432:
.LBB1433:
	.loc 1 343 0
	lwz 9,4(30)
	mr 3,27
	lwz 0,12(9)
	mtctr 0
.LEHB2:
	bctrl
.LEHE2:
.LBE1433:
.LBE1432:
.LBE1431:
.LBE1441:
.LBE1447:
	.loc 2 139 0
	lwz 0,36(1)
	lwz 27,12(1)
.LVL29:
	mtlr 0
	lwz 28,16(1)
.LVL30:
	lwz 29,20(1)
	lwz 30,24(1)
.LVL31:
	lwz 31,28(1)
.LVL32:
	addi 1,1,32
	.cfi_remember_state
.LCFI3:
	.cfi_def_cfa_offset 0
	.cfi_restore 31
	.cfi_restore 30
	.cfi_restore 29
	.cfi_restore 28
	.cfi_restore 27
	blr
.LVL33:
.L23:
.LCFI4:
	.cfi_restore_state
.LBB1448:
.LBB1442:
.LBB1434:
.LBB1435:
.LBB1436:
	.loc 1 343 0
	lwz 9,4(30)
	mr 31,3
.LVL34:
	mr 3,27
	lwz 0,12(9)
	mtctr 0
	bctrl
	mr 3,31
.LEHB3:
	bl _Unwind_Resume
.LEHE3:
.LBE1436:
.LBE1435:
.LBE1434:
.LBE1442:
.LBE1448:
	.cfi_endproc
.LFE1392:
	.globl __gxx_personality_v0
	.section	.gcc_except_table,"a",@progbits
.LLSDA1392:
	.byte	0xff
	.byte	0xff
	.byte	0x1
	.uleb128 .LLSDACSE1392-.LLSDACSB1392
.LLSDACSB1392:
	.uleb128 .LEHB0-.LFB1392
	.uleb128 .LEHE0-.LEHB0
	.uleb128 0
	.uleb128 0
	.uleb128 .LEHB1-.LFB1392
	.uleb128 .LEHE1-.LEHB1
	.uleb128 .L23-.LFB1392
	.uleb128 0
	.uleb128 .LEHB2-.LFB1392
	.uleb128 .LEHE2-.LEHB2
	.uleb128 0
	.uleb128 0
	.uleb128 .LEHB3-.LFB1392
	.uleb128 .LEHE3-.LEHB3
	.uleb128 0
	.uleb128 0
.LLSDACSE1392:
	.section	.text._ZN10GuiElement10SetVisibleEb,"axG",@progbits,_ZN10GuiElement10SetVisibleEb,comdat
	.size	_ZN10GuiElement10SetVisibleEb, .-_ZN10GuiElement10SetVisibleEb
	.section	.text._ZN10GuiElement9IsVisibleEv,"axG",@progbits,_ZN10GuiElement9IsVisibleEv,comdat
	.align 2
	.weak	_ZN10GuiElement9IsVisibleEv
	.type	_ZN10GuiElement9IsVisibleEv, @function
_ZN10GuiElement9IsVisibleEv:
.LFB1393:
	.loc 2 142 0
	.cfi_startproc
.LVL35:
	.loc 2 142 0
	lbz 3,29(3)
.LVL36:
	blr
	.cfi_endproc
.LFE1393:
	.size	_ZN10GuiElement9IsVisibleEv, .-_ZN10GuiElement9IsVisibleEv
	.section	.text._ZN10GuiElement12IsSelectableEv,"axG",@progbits,_ZN10GuiElement12IsSelectableEv,comdat
	.align 2
	.weak	_ZN10GuiElement12IsSelectableEv
	.type	_ZN10GuiElement12IsSelectableEv, @function
_ZN10GuiElement12IsSelectableEv:
.LFB1394:
	.loc 2 145 0
	.cfi_startproc
.LVL37:
	.loc 2 149 0
	lwz 0,72(3)
	li 9,0
	cmpwi 7,0,4
	beq- 7,.L27
	.loc 2 149 0 is_stmt 0 discriminator 1
	cmpwi 7,0,2
	beq- 7,.L27
	.loc 2 149 0 discriminator 3
	lbz 9,30(3)
.L27:
	.loc 2 150 0 is_stmt 1 discriminator 5
	mr 3,9
.LVL38:
	blr
	.cfi_endproc
.LFE1394:
	.size	_ZN10GuiElement12IsSelectableEv, .-_ZN10GuiElement12IsSelectableEv
	.section	.text._ZN10GuiElement11IsClickableEv,"axG",@progbits,_ZN10GuiElement11IsClickableEv,comdat
	.align 2
	.weak	_ZN10GuiElement11IsClickableEv
	.type	_ZN10GuiElement11IsClickableEv, @function
_ZN10GuiElement11IsClickableEv:
.LFB1395:
	.loc 2 153 0
	.cfi_startproc
.LVL39:
	.loc 2 158 0
	lwz 0,72(3)
	li 9,0
	cmpwi 7,0,4
	beq- 7,.L31
	.loc 2 158 0 is_stmt 0 discriminator 1
	cmpwi 7,0,2
	beq- 7,.L31
	.loc 2 158 0 discriminator 3
	cmpwi 7,0,3
	beq- 7,.L31
	.loc 2 158 0 discriminator 4
	lbz 9,31(3)
.L31:
	.loc 2 159 0 is_stmt 1 discriminator 6
	mr 3,9
.LVL40:
	blr
	.cfi_endproc
.LFE1395:
	.size	_ZN10GuiElement11IsClickableEv, .-_ZN10GuiElement11IsClickableEv
	.section	.text._ZN10GuiElement10IsHoldableEv,"axG",@progbits,_ZN10GuiElement10IsHoldableEv,comdat
	.align 2
	.weak	_ZN10GuiElement10IsHoldableEv
	.type	_ZN10GuiElement10IsHoldableEv, @function
_ZN10GuiElement10IsHoldableEv:
.LFB1396:
	.loc 2 162 0
	.cfi_startproc
.LVL41:
	.loc 2 162 0
	lwz 9,72(3)
	li 0,0
	cmpwi 7,9,4
	beq- 7,.L36
	.loc 2 162 0 is_stmt 0 discriminator 1
	lbz 0,32(3)
.L36:
	.loc 2 162 0 discriminator 4
	mr 3,0
.LVL42:
	blr
	.cfi_endproc
.LFE1396:
	.size	_ZN10GuiElement10IsHoldableEv, .-_ZN10GuiElement10IsHoldableEv
	.section	.text._ZN10GuiElement13SetSelectableEb,"axG",@progbits,_ZN10GuiElement13SetSelectableEb,comdat
	.align 2
	.weak	_ZN10GuiElement13SetSelectableEb
	.type	_ZN10GuiElement13SetSelectableEb, @function
_ZN10GuiElement13SetSelectableEb:
.LFB1397:
	.loc 2 165 0 is_stmt 1
	.cfi_startproc
.LVL43:
	.loc 2 165 0
	stb 4,30(3)
	blr
	.cfi_endproc
.LFE1397:
	.size	_ZN10GuiElement13SetSelectableEb, .-_ZN10GuiElement13SetSelectableEb
	.section	.text._ZN10GuiElement12SetClickableEb,"axG",@progbits,_ZN10GuiElement12SetClickableEb,comdat
	.align 2
	.weak	_ZN10GuiElement12SetClickableEb
	.type	_ZN10GuiElement12SetClickableEb, @function
_ZN10GuiElement12SetClickableEb:
.LFB1398:
	.loc 2 168 0
	.cfi_startproc
.LVL44:
	.loc 2 168 0
	stb 4,31(3)
	blr
	.cfi_endproc
.LFE1398:
	.size	_ZN10GuiElement12SetClickableEb, .-_ZN10GuiElement12SetClickableEb
	.section	.text._ZN10GuiElement11SetHoldableEb,"axG",@progbits,_ZN10GuiElement11SetHoldableEb,comdat
	.align 2
	.weak	_ZN10GuiElement11SetHoldableEb
	.type	_ZN10GuiElement11SetHoldableEb, @function
_ZN10GuiElement11SetHoldableEb:
.LFB1399:
	.loc 2 171 0
	.cfi_startproc
.LVL45:
	.loc 2 171 0
	stb 4,32(3)
	blr
	.cfi_endproc
.LFE1399:
	.size	_ZN10GuiElement11SetHoldableEb, .-_ZN10GuiElement11SetHoldableEb
	.section	.text._ZN10GuiElement8GetStateEv,"axG",@progbits,_ZN10GuiElement8GetStateEv,comdat
	.align 2
	.weak	_ZN10GuiElement8GetStateEv
	.type	_ZN10GuiElement8GetStateEv, @function
_ZN10GuiElement8GetStateEv:
.LFB1400:
	.loc 2 178 0
	.cfi_startproc
.LVL46:
	.loc 2 178 0
	lwz 3,72(3)
.LVL47:
	blr
	.cfi_endproc
.LFE1400:
	.size	_ZN10GuiElement8GetStateEv, .-_ZN10GuiElement8GetStateEv
	.section	.text._ZN10GuiElement12GetStateChanEv,"axG",@progbits,_ZN10GuiElement12GetStateChanEv,comdat
	.align 2
	.weak	_ZN10GuiElement12GetStateChanEv
	.type	_ZN10GuiElement12GetStateChanEv, @function
_ZN10GuiElement12GetStateChanEv:
.LFB1401:
	.loc 2 181 0
	.cfi_startproc
.LVL48:
	.loc 2 181 0
	lwz 3,76(3)
.LVL49:
	blr
	.cfi_endproc
.LFE1401:
	.size	_ZN10GuiElement12GetStateChanEv, .-_ZN10GuiElement12GetStateChanEv
	.section	.text._ZN10GuiElement8SetAlphaEi,"axG",@progbits,_ZN10GuiElement8SetAlphaEi,comdat
	.align 2
	.weak	_ZN10GuiElement8SetAlphaEi
	.type	_ZN10GuiElement8SetAlphaEi, @function
_ZN10GuiElement8SetAlphaEi:
.LFB1403:
	.loc 2 190 0
	.cfi_startproc
.LVL50:
	.loc 2 190 0
	stw 4,56(3)
	blr
	.cfi_endproc
.LFE1403:
	.size	_ZN10GuiElement8SetAlphaEi, .-_ZN10GuiElement8SetAlphaEi
	.section	.text._ZN10GuiElement8GetAlphaEv,"axG",@progbits,_ZN10GuiElement8GetAlphaEv,comdat
	.align 2
	.weak	_ZN10GuiElement8GetAlphaEv
	.type	_ZN10GuiElement8GetAlphaEv, @function
_ZN10GuiElement8GetAlphaEv:
.LFB1404:
	.loc 2 194 0
	.cfi_startproc
.LVL51:
	mflr 0
	stwu 1,-40(1)
.LCFI5:
	.cfi_def_cfa_offset 40
	.cfi_register 65, 0
	stw 31,36(1)
	stw 0,44(1)
.LBB1449:
	.loc 2 198 0
	lwz 31,108(3)
	.cfi_offset 65, 4
	.cfi_offset 31, -4
	cmpwi 7,31,0
	blt- 7,.L47
.L45:
.LVL52:
	.loc 2 203 0
	lwz 3,96(3)
.LVL53:
	cmpwi 7,3,0
	beq- 7,.L46
	.loc 2 204 0
	lwz 9,0(3)
	xoris 31,31,0x8000
.LVL54:
	lwz 0,100(9)
	mtctr 0
	bctrl
	lis 0,0x4330
	xoris 3,3,0x8000
	stw 0,16(1)
	stw 3,20(1)
	lis 9,.LC1@ha
	lfs 0,.LC1@l(9)
	lis 9,.LC2@ha
	lfd 13,16(1)
	lfs 12,.LC2@l(9)
	addi 9,1,24
	fsub 13,13,0
	stw 31,12(1)
	stw 0,8(1)
	frsp 13,13
	fdivs 13,13,12
	lfd 12,8(1)
	fsub 0,12,0
	frsp 0,0
	fmuls 0,0,13
	fctiwz 0,0
	stfiwx 0,0,9
	lwz 31,24(1)
.LVL55:
.L46:
.LBE1449:
	.loc 2 207 0
	lwz 0,44(1)
	mr 3,31
	lwz 31,36(1)
.LVL56:
	mtlr 0
	addi 1,1,40
	.cfi_remember_state
.LCFI6:
	.cfi_def_cfa_offset 0
	.cfi_restore 31
	blr
.LVL57:
.L47:
.LCFI7:
	.cfi_restore_state
.LBB1450:
	.loc 2 201 0
	lwz 31,56(3)
.LVL58:
	b .L45
.LBE1450:
	.cfi_endproc
.LFE1404:
	.size	_ZN10GuiElement8GetAlphaEv, .-_ZN10GuiElement8GetAlphaEv
	.section	.text._ZN10GuiElement8SetScaleEf,"axG",@progbits,_ZN10GuiElement8SetScaleEf,comdat
	.align 2
	.weak	_ZN10GuiElement8SetScaleEf
	.type	_ZN10GuiElement8SetScaleEf, @function
_ZN10GuiElement8SetScaleEf:
.LFB1405:
	.loc 2 210 0
	.cfi_startproc
.LVL59:
	.loc 2 212 0
	stfs 1,60(3)
	.loc 2 214 0
	.loc 2 213 0
	stfs 1,64(3)
	.loc 2 214 0
	blr
	.cfi_endproc
.LFE1405:
	.size	_ZN10GuiElement8SetScaleEf, .-_ZN10GuiElement8SetScaleEf
	.section	.text._ZN10GuiElement9SetScaleXEf,"axG",@progbits,_ZN10GuiElement9SetScaleXEf,comdat
	.align 2
	.weak	_ZN10GuiElement9SetScaleXEf
	.type	_ZN10GuiElement9SetScaleXEf, @function
_ZN10GuiElement9SetScaleXEf:
.LFB1406:
	.loc 2 217 0
	.cfi_startproc
.LVL60:
	.loc 2 217 0
	stfs 1,60(3)
	blr
	.cfi_endproc
.LFE1406:
	.size	_ZN10GuiElement9SetScaleXEf, .-_ZN10GuiElement9SetScaleXEf
	.section	.text._ZN10GuiElement9SetScaleYEf,"axG",@progbits,_ZN10GuiElement9SetScaleYEf,comdat
	.align 2
	.weak	_ZN10GuiElement9SetScaleYEf
	.type	_ZN10GuiElement9SetScaleYEf, @function
_ZN10GuiElement9SetScaleYEf:
.LFB1407:
	.loc 2 220 0
	.cfi_startproc
.LVL61:
	.loc 2 220 0
	stfs 1,64(3)
	blr
	.cfi_endproc
.LFE1407:
	.size	_ZN10GuiElement9SetScaleYEf, .-_ZN10GuiElement9SetScaleYEf
	.section	.text._ZN10GuiElement8GetScaleEv,"axG",@progbits,_ZN10GuiElement8GetScaleEv,comdat
	.align 2
	.weak	_ZN10GuiElement8GetScaleEv
	.type	_ZN10GuiElement8GetScaleEv, @function
_ZN10GuiElement8GetScaleEv:
.LFB1408:
	.loc 2 223 0
	.cfi_startproc
.LVL62:
	mflr 0
	stwu 1,-16(1)
.LCFI8:
	.cfi_def_cfa_offset 16
	.cfi_register 65, 0
.LBB1451:
	.loc 2 225 0
	lis 9,.LC3@ha
.LBE1451:
	.loc 2 223 0
	stfd 31,8(1)
	stw 0,20(1)
.LBB1452:
	.loc 2 225 0
	lfs 0,64(3)
	lfs 31,60(3)
	.cfi_offset 65, 4
	.cfi_offset 63, -8
	.loc 2 227 0
	lwz 11,96(3)
	.loc 2 225 0
	fadds 31,31,0
	lfs 0,.LC3@l(9)
	.loc 2 227 0
	cmpwi 7,11,0
	.loc 2 225 0
	fmuls 31,31,0
	lfs 0,112(3)
	fmuls 31,31,0
.LVL63:
	.loc 2 227 0
	beq- 7,.L52
	.loc 2 228 0
	lwz 9,0(11)
	mr 3,11
.LVL64:
	lwz 0,116(9)
	mtctr 0
	bctrl
	fmuls 31,31,1
.LVL65:
.L52:
.LBE1452:
	.loc 2 231 0
	lwz 0,20(1)
	fmr 1,31
	lfd 31,8(1)
.LVL66:
	mtlr 0
	addi 1,1,16
.LCFI9:
	.cfi_def_cfa_offset 0
	.cfi_restore 63
	blr
	.cfi_endproc
.LFE1408:
	.size	_ZN10GuiElement8GetScaleEv, .-_ZN10GuiElement8GetScaleEv
	.section	.text._ZN10GuiElement9GetScaleXEv,"axG",@progbits,_ZN10GuiElement9GetScaleXEv,comdat
	.align 2
	.weak	_ZN10GuiElement9GetScaleXEv
	.type	_ZN10GuiElement9GetScaleXEv, @function
_ZN10GuiElement9GetScaleXEv:
.LFB1409:
	.loc 2 234 0
	.cfi_startproc
.LVL67:
	mflr 0
	stwu 1,-16(1)
.LCFI10:
	.cfi_def_cfa_offset 16
	.cfi_register 65, 0
	stfd 31,8(1)
	stw 0,20(1)
.LBB1453:
	.loc 2 238 0
	lwz 11,96(3)
	.loc 2 236 0
	lfs 31,60(3)
	.cfi_offset 65, 4
	.cfi_offset 63, -8
	.loc 2 238 0
	cmpwi 7,11,0
	.loc 2 236 0
	lfs 0,112(3)
	fmuls 31,31,0
.LVL68:
	.loc 2 238 0
	beq- 7,.L54
	.loc 2 239 0
	lwz 9,0(11)
	mr 3,11
.LVL69:
	lwz 0,120(9)
	mtctr 0
	bctrl
	fmuls 31,31,1
.LVL70:
.L54:
.LBE1453:
	.loc 2 242 0
	lwz 0,20(1)
	fmr 1,31
	lfd 31,8(1)
.LVL71:
	mtlr 0
	addi 1,1,16
.LCFI11:
	.cfi_def_cfa_offset 0
	.cfi_restore 63
	blr
	.cfi_endproc
.LFE1409:
	.size	_ZN10GuiElement9GetScaleXEv, .-_ZN10GuiElement9GetScaleXEv
	.section	.text._ZN10GuiElement9GetScaleYEv,"axG",@progbits,_ZN10GuiElement9GetScaleYEv,comdat
	.align 2
	.weak	_ZN10GuiElement9GetScaleYEv
	.type	_ZN10GuiElement9GetScaleYEv, @function
_ZN10GuiElement9GetScaleYEv:
.LFB1410:
	.loc 2 245 0
	.cfi_startproc
.LVL72:
	mflr 0
	stwu 1,-16(1)
.LCFI12:
	.cfi_def_cfa_offset 16
	.cfi_register 65, 0
	stfd 31,8(1)
	stw 0,20(1)
.LBB1454:
	.loc 2 249 0
	lwz 11,96(3)
	.loc 2 247 0
	lfs 31,64(3)
	.cfi_offset 65, 4
	.cfi_offset 63, -8
	.loc 2 249 0
	cmpwi 7,11,0
	.loc 2 247 0
	lfs 0,112(3)
	fmuls 31,31,0
.LVL73:
	.loc 2 249 0
	beq- 7,.L56
	.loc 2 250 0
	lwz 9,0(11)
	mr 3,11
.LVL74:
	lwz 0,124(9)
	mtctr 0
	bctrl
	fmuls 31,31,1
.LVL75:
.L56:
.LBE1454:
	.loc 2 253 0
	lwz 0,20(1)
	fmr 1,31
	lfd 31,8(1)
.LVL76:
	mtlr 0
	addi 1,1,16
.LCFI13:
	.cfi_def_cfa_offset 0
	.cfi_restore 63
	blr
	.cfi_endproc
.LFE1410:
	.size	_ZN10GuiElement9GetScaleYEv, .-_ZN10GuiElement9GetScaleYEv
	.section	.text._ZN10GuiElement6RumbleEv,"axG",@progbits,_ZN10GuiElement6RumbleEv,comdat
	.align 2
	.weak	_ZN10GuiElement6RumbleEv
	.type	_ZN10GuiElement6RumbleEv, @function
_ZN10GuiElement6RumbleEv:
.LFB1411:
	.loc 2 256 0
	.cfi_startproc
.LVL77:
	.loc 2 256 0
	lbz 3,28(3)
.LVL78:
	blr
	.cfi_endproc
.LFE1411:
	.size	_ZN10GuiElement6RumbleEv, .-_ZN10GuiElement6RumbleEv
	.section	.text._ZN10GuiElement9SetRumbleEb,"axG",@progbits,_ZN10GuiElement9SetRumbleEb,comdat
	.align 2
	.weak	_ZN10GuiElement9SetRumbleEb
	.type	_ZN10GuiElement9SetRumbleEb, @function
_ZN10GuiElement9SetRumbleEb:
.LFB1412:
	.loc 2 259 0
	.cfi_startproc
.LVL79:
	.loc 2 259 0
	stb 4,28(3)
	blr
	.cfi_endproc
.LFE1412:
	.size	_ZN10GuiElement9SetRumbleEb, .-_ZN10GuiElement9SetRumbleEb
	.section	.text._ZN10GuiElement13SetEffectGrowEv,"axG",@progbits,_ZN10GuiElement13SetEffectGrowEv,comdat
	.align 2
	.weak	_ZN10GuiElement13SetEffectGrowEv
	.type	_ZN10GuiElement13SetEffectGrowEv, @function
_ZN10GuiElement13SetEffectGrowEv:
.LFB1413:
	.loc 2 271 0
	.cfi_startproc
.LVL80:
	mflr 0
	stwu 1,-8(1)
.LCFI14:
	.cfi_def_cfa_offset 8
	.cfi_register 65, 0
	lwz 9,0(3)
	li 4,256
	li 5,4
	li 6,110
	stw 0,12(1)
	.loc 2 271 0
	lwz 0,140(9)
	.cfi_offset 65, 4
	mtctr 0
	bctrl
.LVL81:
	lwz 0,12(1)
	addi 1,1,8
.LCFI15:
	.cfi_def_cfa_offset 0
	mtlr 0
	blr
	.cfi_endproc
.LFE1413:
	.size	_ZN10GuiElement13SetEffectGrowEv, .-_ZN10GuiElement13SetEffectGrowEv
	.section	.text._ZNK10GuiElement9GetEffectEv,"axG",@progbits,_ZNK10GuiElement9GetEffectEv,comdat
	.align 2
	.weak	_ZNK10GuiElement9GetEffectEv
	.type	_ZNK10GuiElement9GetEffectEv, @function
_ZNK10GuiElement9GetEffectEv:
.LFB1414:
	.loc 2 276 0
	.cfi_startproc
.LVL82:
	.loc 2 276 0
	lwz 3,120(3)
.LVL83:
	blr
	.cfi_endproc
.LFE1414:
	.size	_ZNK10GuiElement9GetEffectEv, .-_ZNK10GuiElement9GetEffectEv
	.section	.text._ZNK10GuiElement10IsAnimatedEv,"axG",@progbits,_ZNK10GuiElement10IsAnimatedEv,comdat
	.align 2
	.weak	_ZNK10GuiElement10IsAnimatedEv
	.type	_ZNK10GuiElement10IsAnimatedEv, @function
_ZNK10GuiElement10IsAnimatedEv:
.LFB1415:
	.loc 2 278 0
	.cfi_startproc
.LVL84:
	mflr 0
	stwu 1,-8(1)
.LCFI16:
	.cfi_def_cfa_offset 8
	.cfi_register 65, 0
	stw 0,12(1)
	.loc 2 278 0
	lwz 9,0(3)
	lwz 0,152(9)
	.cfi_offset 65, 4
	mtctr 0
	bctrl
.LVL85:
	srawi 0,3,31
	subf 3,3,0
	lwz 0,12(1)
	srwi 3,3,31
	mtlr 0
	addi 1,1,8
.LCFI17:
	.cfi_def_cfa_offset 0
	blr
	.cfi_endproc
.LFE1415:
	.size	_ZNK10GuiElement10IsAnimatedEv, .-_ZNK10GuiElement10IsAnimatedEv
	.section	.text._ZN10GuiElement9SetBoundsE4RectIiE,"axG",@progbits,_ZN10GuiElement9SetBoundsE4RectIiE,comdat
	.align 2
	.weak	_ZN10GuiElement9SetBoundsE4RectIiE
	.type	_ZN10GuiElement9SetBoundsE4RectIiE, @function
_ZN10GuiElement9SetBoundsE4RectIiE:
.LFB1416:
	.loc 2 280 0
	.cfi_startproc
.LVL86:
.LBB1455:
.LBB1456:
	.file 5 "d:/Projects/SaveGameManager/savegame-manager-gx/trunk/source/GUI/../Tools/Rect.h"
	.loc 5 30 0
	lwz 10,0(4)
.LBE1456:
.LBE1455:
	.loc 2 280 0
.LBB1458:
.LBB1457:
	.loc 5 31 0
	lwz 11,8(4)
	.loc 5 32 0
	lwz 9,4(4)
	.loc 5 33 0
	lwz 0,12(4)
.LVL87:
	.loc 5 30 0
	stw 10,80(3)
	.loc 5 31 0
	stw 11,88(3)
	.loc 5 32 0
	stw 9,84(3)
	.loc 5 33 0
	stw 0,92(3)
.LBE1457:
.LBE1458:
	.loc 2 280 0
	blr
	.cfi_endproc
.LFE1416:
	.size	_ZN10GuiElement9SetBoundsE4RectIiE, .-_ZN10GuiElement9SetBoundsE4RectIiE
	.section	.text._ZN10GuiElement8IsInsideEii,"axG",@progbits,_ZN10GuiElement8IsInsideEii,comdat
	.align 2
	.weak	_ZN10GuiElement8IsInsideEii
	.type	_ZN10GuiElement8IsInsideEii, @function
_ZN10GuiElement8IsInsideEii:
.LFB1417:
	.loc 2 285 0
	.cfi_startproc
.LVL88:
	mflr 0
	stwu 1,-24(1)
.LCFI18:
	.cfi_def_cfa_offset 24
	.cfi_register 65, 0
	stw 28,8(1)
	mr 28,5
	.cfi_offset 28, -16
	stw 0,28(1)
	stw 29,12(1)
	.loc 2 290 0
	li 29,0
	.cfi_offset 29, -12
	.cfi_offset 65, 4
	.loc 2 287 0
	lwz 9,0(3)
	.loc 2 285 0
	stw 30,16(1)
	mr 30,4
	.cfi_offset 30, -8
	.loc 2 287 0
	lwz 0,16(9)
	.loc 2 285 0
	stw 31,20(1)
	.loc 2 285 0
	mr 31,3
	.cfi_offset 31, -4
	.loc 2 287 0
	mtctr 0
	bctrl
.LVL89:
	.loc 2 290 0
	cmpw 7,3,30
	blt- 7,.L68
.L64:
	.loc 2 291 0 discriminator 6
	lwz 0,28(1)
	mr 3,29
	lwz 28,8(1)
.LVL90:
	mtlr 0
	lwz 29,12(1)
	lwz 30,16(1)
.LVL91:
	lwz 31,20(1)
.LVL92:
	addi 1,1,24
	.cfi_remember_state
.LCFI19:
	.cfi_def_cfa_offset 0
	.cfi_restore 31
	.cfi_restore 30
	.cfi_restore 29
	.cfi_restore 28
	blr
.LVL93:
.L68:
.LCFI20:
	.cfi_restore_state
	.loc 2 288 0 discriminator 1
	lwz 9,0(31)
	mr 3,31
	lwz 0,16(9)
	mtctr 0
	bctrl
	.loc 2 290 0 discriminator 1
	lwz 0,36(31)
	add 0,3,0
	cmpw 7,30,0
	bge+ 7,.L64
	.loc 2 289 0 discriminator 3
	lwz 9,0(31)
	mr 3,31
	lwz 0,20(9)
	mtctr 0
	bctrl
	.loc 2 290 0 discriminator 3
	cmpw 7,3,28
	bge+ 7,.L64
	.loc 2 290 0 is_stmt 0 discriminator 4
	lwz 9,0(31)
	mr 3,31
	lwz 0,20(9)
	mtctr 0
	bctrl
	lwz 0,40(31)
	add 0,3,0
	.loc 2 285 0 is_stmt 1 discriminator 4
	cmpw 7,28,0
	mfcr 29
	rlwinm 29,29,29,1
	b .L64
	.cfi_endproc
.LFE1417:
	.size	_ZN10GuiElement8IsInsideEii, .-_ZN10GuiElement8IsInsideEii
	.section	.text._ZN10GuiElement11SetPositionEii,"axG",@progbits,_ZN10GuiElement11SetPositionEii,comdat
	.align 2
	.weak	_ZN10GuiElement11SetPositionEii
	.type	_ZN10GuiElement11SetPositionEii, @function
_ZN10GuiElement11SetPositionEii:
.LFB1418:
	.loc 2 295 0
	.cfi_startproc
.LVL94:
	.loc 2 297 0
	stw 4,44(3)
	.loc 2 299 0
	.loc 2 298 0
	stw 5,48(3)
	.loc 2 299 0
	blr
	.cfi_endproc
.LFE1418:
	.size	_ZN10GuiElement11SetPositionEii, .-_ZN10GuiElement11SetPositionEii
	.section	.text._ZN10GuiElement11SetPositionEiii,"axG",@progbits,_ZN10GuiElement11SetPositionEiii,comdat
	.align 2
	.weak	_ZN10GuiElement11SetPositionEiii
	.type	_ZN10GuiElement11SetPositionEiii, @function
_ZN10GuiElement11SetPositionEiii:
.LFB1419:
	.loc 2 304 0
	.cfi_startproc
.LVL95:
	.loc 2 306 0
	stw 4,44(3)
	.loc 2 309 0
	.loc 2 307 0
	stw 5,48(3)
	.loc 2 308 0
	stw 6,52(3)
	.loc 2 309 0
	blr
	.cfi_endproc
.LFE1419:
	.size	_ZN10GuiElement11SetPositionEiii, .-_ZN10GuiElement11SetPositionEiii
	.section	.text._ZN10GuiElement11GetSelectedEv,"axG",@progbits,_ZN10GuiElement11GetSelectedEv,comdat
	.align 2
	.weak	_ZN10GuiElement11GetSelectedEv
	.type	_ZN10GuiElement11GetSelectedEv, @function
_ZN10GuiElement11GetSelectedEv:
.LFB1420:
	.loc 2 312 0
	.cfi_startproc
.LVL96:
	.loc 2 312 0
	li 3,-1
.LVL97:
	blr
	.cfi_endproc
.LFE1420:
	.size	_ZN10GuiElement11GetSelectedEv, .-_ZN10GuiElement11GetSelectedEv
	.section	.text._ZN10GuiElement12SetAlignmentEi,"axG",@progbits,_ZN10GuiElement12SetAlignmentEi,comdat
	.align 2
	.weak	_ZN10GuiElement12SetAlignmentEi
	.type	_ZN10GuiElement12SetAlignmentEi, @function
_ZN10GuiElement12SetAlignmentEi:
.LFB1421:
	.loc 2 316 0
	.cfi_startproc
.LVL98:
	.loc 2 316 0
	stw 4,68(3)
	blr
	.cfi_endproc
.LFE1421:
	.size	_ZN10GuiElement12SetAlignmentEi, .-_ZN10GuiElement12SetAlignmentEi
	.section	.text._ZNK10GuiElement12GetAlignmentEv,"axG",@progbits,_ZNK10GuiElement12GetAlignmentEv,comdat
	.align 2
	.weak	_ZNK10GuiElement12GetAlignmentEv
	.type	_ZNK10GuiElement12GetAlignmentEv, @function
_ZNK10GuiElement12GetAlignmentEv:
.LFB1422:
	.loc 2 318 0
	.cfi_startproc
.LVL99:
	.loc 2 318 0
	lwz 3,68(3)
.LVL100:
	blr
	.cfi_endproc
.LFE1422:
	.size	_ZNK10GuiElement12GetAlignmentEv, .-_ZNK10GuiElement12GetAlignmentEv
	.section	.text._ZN10GuiElement6UpdateEP10GuiTrigger,"axG",@progbits,_ZN10GuiElement6UpdateEP10GuiTrigger,comdat
	.align 2
	.weak	_ZN10GuiElement6UpdateEP10GuiTrigger
	.type	_ZN10GuiElement6UpdateEP10GuiTrigger, @function
_ZN10GuiElement6UpdateEP10GuiTrigger:
.LFB1423:
	.loc 2 321 0
	.cfi_startproc
.LVL101:
	.loc 2 321 0
	blr
	.cfi_endproc
.LFE1423:
	.size	_ZN10GuiElement6UpdateEP10GuiTrigger, .-_ZN10GuiElement6UpdateEP10GuiTrigger
	.section	.text._ZN7sigslot12_signal_baseINS_15single_threadedEED2Ev,"axG",@progbits,_ZN7sigslot12_signal_baseINS_15single_threadedEED5Ev,comdat
	.align 2
	.weak	_ZN7sigslot12_signal_baseINS_15single_threadedEED2Ev
	.type	_ZN7sigslot12_signal_baseINS_15single_threadedEED2Ev, @function
_ZN7sigslot12_signal_baseINS_15single_threadedEED2Ev:
.LFB1623:
	.loc 1 466 0
	.cfi_startproc
.LVL102:
.LBB1459:
.LBB1460:
.LBB1461:
.LBB1462:
	.loc 1 105 0
	lis 9,_ZTVN7sigslot15single_threadedE+8@ha
.LBE1462:
.LBE1461:
.LBE1460:
.LBE1459:
	.loc 1 466 0
.LBB1466:
.LBB1465:
.LBB1464:
.LBB1463:
	.loc 1 105 0
	la 0,_ZTVN7sigslot15single_threadedE+8@l(9)
	stw 0,0(3)
.LBE1463:
.LBE1464:
.LBE1465:
.LBE1466:
	.loc 1 466 0
	blr
	.cfi_endproc
.LFE1623:
	.size	_ZN7sigslot12_signal_baseINS_15single_threadedEED2Ev, .-_ZN7sigslot12_signal_baseINS_15single_threadedEED2Ev
	.section	.text._ZN7sigslot13_signal_base3IP10GuiElementiiNS_15single_threadedEE14slot_duplicateEPKNS_9has_slotsIS3_EEPS6_,"axG",@progbits,_ZN7sigslot13_signal_base3IP10GuiElementiiNS_15single_threadedEE14slot_duplicateEPKNS_9has_slotsIS3_EEPS6_,comdat
	.align 2
	.weak	_ZN7sigslot13_signal_base3IP10GuiElementiiNS_15single_threadedEE14slot_duplicateEPKNS_9has_slotsIS3_EEPS6_
	.type	_ZN7sigslot13_signal_base3IP10GuiElementiiNS_15single_threadedEE14slot_duplicateEPKNS_9has_slotsIS3_EEPS6_, @function
_ZN7sigslot13_signal_base3IP10GuiElementiiNS_15single_threadedEE14slot_duplicateEPKNS_9has_slotsIS3_EEPS6_:
.LFB1861:
	.loc 1 926 0
	.cfi_startproc
	.cfi_personality 0,__gxx_personality_v0
	.cfi_lsda 0,.LLSDA1861
.LVL103:
	mflr 0
	stwu 1,-32(1)
.LCFI21:
	.cfi_def_cfa_offset 32
	.cfi_register 65, 0
	stw 26,8(1)
	mr 26,5
	.cfi_offset 26, -24
	stw 0,36(1)
	stw 27,12(1)
	mr 27,3
	.cfi_offset 27, -20
	.cfi_offset 65, 4
.LVL104:
.LBB1467:
.LBB1468:
.LBB1469:
	.loc 1 338 0
	lwz 9,0(3)
.LBE1469:
.LBE1468:
.LBE1467:
	.loc 1 926 0
	stw 29,20(1)
	mr 29,4
	.cfi_offset 29, -12
.LBB1498:
.LBB1474:
.LBB1470:
	.loc 1 338 0
	lwz 0,8(9)
.LBE1470:
.LBE1474:
.LBE1498:
	.loc 1 926 0
	stw 30,24(1)
.LBB1499:
.LBB1475:
.LBB1471:
	.loc 3 160 0
	mr 30,27
	.cfi_offset 30, -8
.LBE1471:
.LBE1475:
.LBE1499:
	.loc 1 926 0
	stw 31,28(1)
.LBB1500:
.LBB1476:
.LBB1472:
	.loc 1 338 0
	mtctr 0
.LBE1472:
.LBE1476:
.LBE1500:
	.loc 1 926 0
	stw 28,16(1)
.LEHB4:
.LBB1501:
.LBB1477:
.LBB1473:
	.loc 1 338 0
	.cfi_offset 28, -16
	.cfi_offset 31, -4
	bctrl
.LEHE4:
.LVL105:
	.loc 3 160 0
	lwzu 31,4(30)
.LVL106:
.LBE1473:
.LBE1477:
	.loc 1 932 0
	cmpw 7,31,30
	bne+ 7,.L88
	b .L79
.LVL107:
.L80:
.LBB1478:
.LBB1479:
	.loc 4 154 0
	lwz 31,0(31)
.LVL108:
.LBE1479:
.LBE1478:
	.loc 1 932 0
	cmpw 7,30,31
	beq- 7,.L79
.LVL109:
.L88:
	.loc 1 934 0
	lwz 3,8(31)
	lwz 9,0(3)
	lwz 0,8(9)
	mtctr 0
.LEHB5:
	bctrl
	cmpw 7,29,3
	bne+ 7,.L80
.LVL110:
	.loc 1 936 0
	lwz 3,8(31)
	mr 4,26
	lwz 9,0(3)
	lwz 0,20(9)
	mtctr 0
	bctrl
	mr 28,3
.LVL111:
.LBB1481:
.LBB1482:
.LBB1483:
.LBB1484:
.LBB1485:
.LBB1486:
.LBB1487:
.LBB1488:
	.file 6 "d:\\devkitpro\\devkitppc\\bin\\../lib/gcc/powerpc-eabi/4.6.3/../../../../powerpc-eabi/include/c++/4.6.3/ext/new_allocator.h"
	.loc 6 92 0
	li 3,12
	bl _Znwj
.LEHE5:
.LVL112:
.LBE1488:
.LBE1487:
.LBE1486:
.LBB1489:
.LBB1490:
	.loc 6 108 0 discriminator 1
	cmpwi 7,3,-8
	beq- 7,.L82
	.loc 6 108 0 is_stmt 0
	stw 28,8(3)
.L82:
.LVL113:
.LBE1490:
.LBE1489:
.LBE1485:
.LBE1484:
	.loc 4 1516 0 is_stmt 1
	mr 4,30
	bl _ZNSt8__detail15_List_node_base7_M_hookEPS0_
.LVL114:
.LBE1483:
.LBE1482:
.LBE1481:
.LBB1491:
.LBB1480:
	.loc 4 154 0
	lwz 31,0(31)
.LVL115:
.LBE1480:
.LBE1491:
	.loc 1 932 0
	cmpw 7,30,31
	bne+ 7,.L88
.LVL116:
.L79:
.LBB1492:
.LBB1493:
.LBB1494:
	.loc 1 343 0
	lwz 9,0(27)
	mr 3,27
	lwz 0,12(9)
	mtctr 0
.LEHB6:
	bctrl
.LEHE6:
.LBE1494:
.LBE1493:
.LBE1492:
.LBE1501:
	.loc 1 941 0
	lwz 0,36(1)
	lwz 26,8(1)
.LVL117:
	mtlr 0
	lwz 27,12(1)
.LVL118:
	lwz 28,16(1)
	lwz 29,20(1)
.LVL119:
	lwz 30,24(1)
.LVL120:
	lwz 31,28(1)
.LVL121:
	addi 1,1,32
	.cfi_remember_state
.LCFI22:
	.cfi_def_cfa_offset 0
	.cfi_restore 31
	.cfi_restore 30
	.cfi_restore 29
	.cfi_restore 28
	.cfi_restore 27
	.cfi_restore 26
	blr
.LVL122:
.L87:
.LCFI23:
	.cfi_restore_state
.LBB1502:
.LBB1495:
.LBB1496:
.LBB1497:
	.loc 1 343 0
	lwz 9,0(27)
	mr 31,3
.LVL123:
	mr 3,27
	lwz 0,12(9)
	mtctr 0
	bctrl
	mr 3,31
.LEHB7:
	bl _Unwind_Resume
.LEHE7:
.LBE1497:
.LBE1496:
.LBE1495:
.LBE1502:
	.cfi_endproc
.LFE1861:
	.section	.gcc_except_table
.LLSDA1861:
	.byte	0xff
	.byte	0xff
	.byte	0x1
	.uleb128 .LLSDACSE1861-.LLSDACSB1861
.LLSDACSB1861:
	.uleb128 .LEHB4-.LFB1861
	.uleb128 .LEHE4-.LEHB4
	.uleb128 0
	.uleb128 0
	.uleb128 .LEHB5-.LFB1861
	.uleb128 .LEHE5-.LEHB5
	.uleb128 .L87-.LFB1861
	.uleb128 0
	.uleb128 .LEHB6-.LFB1861
	.uleb128 .LEHE6-.LEHB6
	.uleb128 0
	.uleb128 0
	.uleb128 .LEHB7-.LFB1861
	.uleb128 .LEHE7-.LEHB7
	.uleb128 0
	.uleb128 0
.LLSDACSE1861:
	.section	.text._ZN7sigslot13_signal_base3IP10GuiElementiiNS_15single_threadedEE14slot_duplicateEPKNS_9has_slotsIS3_EEPS6_,"axG",@progbits,_ZN7sigslot13_signal_base3IP10GuiElementiiNS_15single_threadedEE14slot_duplicateEPKNS_9has_slotsIS3_EEPS6_,comdat
	.size	_ZN7sigslot13_signal_base3IP10GuiElementiiNS_15single_threadedEE14slot_duplicateEPKNS_9has_slotsIS3_EEPS6_, .-_ZN7sigslot13_signal_base3IP10GuiElementiiNS_15single_threadedEE14slot_duplicateEPKNS_9has_slotsIS3_EEPS6_
	.section	.text._ZN7sigslot13_signal_base2IP10GuiElementbNS_15single_threadedEE14slot_duplicateEPKNS_9has_slotsIS3_EEPS6_,"axG",@progbits,_ZN7sigslot13_signal_base2IP10GuiElementbNS_15single_threadedEE14slot_duplicateEPKNS_9has_slotsIS3_EEPS6_,comdat
	.align 2
	.weak	_ZN7sigslot13_signal_base2IP10GuiElementbNS_15single_threadedEE14slot_duplicateEPKNS_9has_slotsIS3_EEPS6_
	.type	_ZN7sigslot13_signal_base2IP10GuiElementbNS_15single_threadedEE14slot_duplicateEPKNS_9has_slotsIS3_EEPS6_, @function
_ZN7sigslot13_signal_base2IP10GuiElementbNS_15single_threadedEE14slot_duplicateEPKNS_9has_slotsIS3_EEPS6_:
.LFB1863:
	.loc 1 806 0
	.cfi_startproc
	.cfi_personality 0,__gxx_personality_v0
	.cfi_lsda 0,.LLSDA1863
.LVL124:
	mflr 0
	stwu 1,-32(1)
.LCFI24:
	.cfi_def_cfa_offset 32
	.cfi_register 65, 0
	stw 26,8(1)
	mr 26,5
	.cfi_offset 26, -24
	stw 0,36(1)
	stw 27,12(1)
	mr 27,3
	.cfi_offset 27, -20
	.cfi_offset 65, 4
.LVL125:
.LBB1503:
.LBB1504:
.LBB1505:
	.loc 1 338 0
	lwz 9,0(3)
.LBE1505:
.LBE1504:
.LBE1503:
	.loc 1 806 0
	stw 29,20(1)
	mr 29,4
	.cfi_offset 29, -12
.LBB1534:
.LBB1510:
.LBB1506:
	.loc 1 338 0
	lwz 0,8(9)
.LBE1506:
.LBE1510:
.LBE1534:
	.loc 1 806 0
	stw 30,24(1)
.LBB1535:
.LBB1511:
.LBB1507:
	.loc 3 160 0
	mr 30,27
	.cfi_offset 30, -8
.LBE1507:
.LBE1511:
.LBE1535:
	.loc 1 806 0
	stw 31,28(1)
.LBB1536:
.LBB1512:
.LBB1508:
	.loc 1 338 0
	mtctr 0
.LBE1508:
.LBE1512:
.LBE1536:
	.loc 1 806 0
	stw 28,16(1)
.LEHB8:
.LBB1537:
.LBB1513:
.LBB1509:
	.loc 1 338 0
	.cfi_offset 28, -16
	.cfi_offset 31, -4
	bctrl
.LEHE8:
.LVL126:
	.loc 3 160 0
	lwzu 31,4(30)
.LVL127:
.LBE1509:
.LBE1513:
	.loc 1 812 0
	cmpw 7,31,30
	bne+ 7,.L100
	b .L91
.LVL128:
.L92:
.LBB1514:
.LBB1515:
	.loc 4 154 0
	lwz 31,0(31)
.LVL129:
.LBE1515:
.LBE1514:
	.loc 1 812 0
	cmpw 7,30,31
	beq- 7,.L91
.LVL130:
.L100:
	.loc 1 814 0
	lwz 3,8(31)
	lwz 9,0(3)
	lwz 0,8(9)
	mtctr 0
.LEHB9:
	bctrl
	cmpw 7,29,3
	bne+ 7,.L92
.LVL131:
	.loc 1 816 0
	lwz 3,8(31)
	mr 4,26
	lwz 9,0(3)
	lwz 0,20(9)
	mtctr 0
	bctrl
	mr 28,3
.LVL132:
.LBB1517:
.LBB1518:
.LBB1519:
.LBB1520:
.LBB1521:
.LBB1522:
.LBB1523:
.LBB1524:
	.loc 6 92 0
	li 3,12
	bl _Znwj
.LEHE9:
.LVL133:
.LBE1524:
.LBE1523:
.LBE1522:
.LBB1525:
.LBB1526:
	.loc 6 108 0 discriminator 1
	cmpwi 7,3,-8
	beq- 7,.L94
	.loc 6 108 0 is_stmt 0
	stw 28,8(3)
.L94:
.LVL134:
.LBE1526:
.LBE1525:
.LBE1521:
.LBE1520:
	.loc 4 1516 0 is_stmt 1
	mr 4,30
	bl _ZNSt8__detail15_List_node_base7_M_hookEPS0_
.LVL135:
.LBE1519:
.LBE1518:
.LBE1517:
.LBB1527:
.LBB1516:
	.loc 4 154 0
	lwz 31,0(31)
.LVL136:
.LBE1516:
.LBE1527:
	.loc 1 812 0
	cmpw 7,30,31
	bne+ 7,.L100
.LVL137:
.L91:
.LBB1528:
.LBB1529:
.LBB1530:
	.loc 1 343 0
	lwz 9,0(27)
	mr 3,27
	lwz 0,12(9)
	mtctr 0
.LEHB10:
	bctrl
.LEHE10:
.LBE1530:
.LBE1529:
.LBE1528:
.LBE1537:
	.loc 1 821 0
	lwz 0,36(1)
	lwz 26,8(1)
.LVL138:
	mtlr 0
	lwz 27,12(1)
.LVL139:
	lwz 28,16(1)
	lwz 29,20(1)
.LVL140:
	lwz 30,24(1)
.LVL141:
	lwz 31,28(1)
.LVL142:
	addi 1,1,32
	.cfi_remember_state
.LCFI25:
	.cfi_def_cfa_offset 0
	.cfi_restore 31
	.cfi_restore 30
	.cfi_restore 29
	.cfi_restore 28
	.cfi_restore 27
	.cfi_restore 26
	blr
.LVL143:
.L99:
.LCFI26:
	.cfi_restore_state
.LBB1538:
.LBB1531:
.LBB1532:
.LBB1533:
	.loc 1 343 0
	lwz 9,0(27)
	mr 31,3
.LVL144:
	mr 3,27
	lwz 0,12(9)
	mtctr 0
	bctrl
	mr 3,31
.LEHB11:
	bl _Unwind_Resume
.LEHE11:
.LBE1533:
.LBE1532:
.LBE1531:
.LBE1538:
	.cfi_endproc
.LFE1863:
	.section	.gcc_except_table
.LLSDA1863:
	.byte	0xff
	.byte	0xff
	.byte	0x1
	.uleb128 .LLSDACSE1863-.LLSDACSB1863
.LLSDACSB1863:
	.uleb128 .LEHB8-.LFB1863
	.uleb128 .LEHE8-.LEHB8
	.uleb128 0
	.uleb128 0
	.uleb128 .LEHB9-.LFB1863
	.uleb128 .LEHE9-.LEHB9
	.uleb128 .L99-.LFB1863
	.uleb128 0
	.uleb128 .LEHB10-.LFB1863
	.uleb128 .LEHE10-.LEHB10
	.uleb128 0
	.uleb128 0
	.uleb128 .LEHB11-.LFB1863
	.uleb128 .LEHE11-.LEHB11
	.uleb128 0
	.uleb128 0
.LLSDACSE1863:
	.section	.text._ZN7sigslot13_signal_base2IP10GuiElementbNS_15single_threadedEE14slot_duplicateEPKNS_9has_slotsIS3_EEPS6_,"axG",@progbits,_ZN7sigslot13_signal_base2IP10GuiElementbNS_15single_threadedEE14slot_duplicateEPKNS_9has_slotsIS3_EEPS6_,comdat
	.size	_ZN7sigslot13_signal_base2IP10GuiElementbNS_15single_threadedEE14slot_duplicateEPKNS_9has_slotsIS3_EEPS6_, .-_ZN7sigslot13_signal_base2IP10GuiElementbNS_15single_threadedEE14slot_duplicateEPKNS_9has_slotsIS3_EEPS6_
	.section	.text._ZN7sigslot12_signal_baseINS_15single_threadedEED0Ev,"axG",@progbits,_ZN7sigslot12_signal_baseINS_15single_threadedEED5Ev,comdat
	.align 2
	.weak	_ZN7sigslot12_signal_baseINS_15single_threadedEED0Ev
	.type	_ZN7sigslot12_signal_baseINS_15single_threadedEED0Ev, @function
_ZN7sigslot12_signal_baseINS_15single_threadedEED0Ev:
.LFB1625:
	.loc 1 466 0
	.cfi_startproc
.LVL145:
	mflr 0
	stwu 1,-8(1)
.LCFI27:
	.cfi_def_cfa_offset 8
	.cfi_register 65, 0
.LBB1539:
.LBB1540:
.LBB1541:
.LBB1542:
.LBB1543:
.LBB1544:
	.loc 1 105 0
	lis 9,_ZTVN7sigslot15single_threadedE+8@ha
.LBE1544:
.LBE1543:
.LBE1542:
.LBE1541:
.LBE1540:
.LBE1539:
	.loc 1 466 0
	stw 0,12(1)
.LBB1550:
.LBB1549:
.LBB1548:
.LBB1547:
.LBB1546:
.LBB1545:
	.loc 1 105 0
	la 0,_ZTVN7sigslot15single_threadedE+8@l(9)
	.cfi_offset 65, 4
	stw 0,0(3)
.LBE1545:
.LBE1546:
.LBE1547:
.LBE1548:
.LBE1549:
.LBE1550:
	.loc 1 466 0
	bl _ZdlPv
.LVL146:
	lwz 0,12(1)
	addi 1,1,8
.LCFI28:
	.cfi_def_cfa_offset 0
	mtlr 0
	blr
	.cfi_endproc
.LFE1625:
	.size	_ZN7sigslot12_signal_baseINS_15single_threadedEED0Ev, .-_ZN7sigslot12_signal_baseINS_15single_threadedEED0Ev
	.section	.text._ZN7sigslot15single_threadedD0Ev,"axG",@progbits,_ZN7sigslot15single_threadedD5Ev,comdat
	.align 2
	.weak	_ZN7sigslot15single_threadedD0Ev
	.type	_ZN7sigslot15single_threadedD0Ev, @function
_ZN7sigslot15single_threadedD0Ev:
.LFB1150:
	.loc 1 104 0
	.cfi_startproc
.LVL147:
	mflr 0
	stwu 1,-8(1)
.LCFI29:
	.cfi_def_cfa_offset 8
	.cfi_register 65, 0
.LBB1551:
.LBB1552:
.LBB1553:
	.loc 1 105 0
	lis 9,_ZTVN7sigslot15single_threadedE+8@ha
.LBE1553:
.LBE1552:
.LBE1551:
	.loc 1 104 0
	stw 0,12(1)
.LBB1556:
.LBB1555:
.LBB1554:
	.loc 1 105 0
	la 0,_ZTVN7sigslot15single_threadedE+8@l(9)
	.cfi_offset 65, 4
	stw 0,0(3)
.LBE1554:
.LBE1555:
.LBE1556:
	.loc 1 107 0
	bl _ZdlPv
.LVL148:
	lwz 0,12(1)
	addi 1,1,8
.LCFI30:
	.cfi_def_cfa_offset 0
	mtlr 0
	blr
	.cfi_endproc
.LFE1150:
	.size	_ZN7sigslot15single_threadedD0Ev, .-_ZN7sigslot15single_threadedD0Ev
	.section	.text._ZN7sigslot13_signal_base3IP10GuiElementiiNS_15single_threadedEE15slot_disconnectEPNS_9has_slotsIS3_EE,"axG",@progbits,_ZN7sigslot13_signal_base3IP10GuiElementiiNS_15single_threadedEE15slot_disconnectEPNS_9has_slotsIS3_EE,comdat
	.align 2
	.weak	_ZN7sigslot13_signal_base3IP10GuiElementiiNS_15single_threadedEE15slot_disconnectEPNS_9has_slotsIS3_EE
	.type	_ZN7sigslot13_signal_base3IP10GuiElementiiNS_15single_threadedEE15slot_disconnectEPNS_9has_slotsIS3_EE, @function
_ZN7sigslot13_signal_base3IP10GuiElementiiNS_15single_threadedEE15slot_disconnectEPNS_9has_slotsIS3_EE:
.LFB1860:
	.loc 1 990 0
	.cfi_startproc
	.cfi_personality 0,__gxx_personality_v0
	.cfi_lsda 0,.LLSDA1860
.LVL149:
	mflr 0
	stwu 1,-32(1)
.LCFI31:
	.cfi_def_cfa_offset 32
	.cfi_register 65, 0
	stw 27,12(1)
	mr 27,3
	.cfi_offset 27, -20
.LVL150:
	stw 0,36(1)
	stw 28,16(1)
	mr 28,4
	.cfi_offset 28, -16
	.cfi_offset 65, 4
.LBB1557:
.LBB1558:
.LBB1559:
	.loc 1 338 0
	lwz 9,0(3)
.LBE1559:
.LBE1558:
.LBE1557:
	.loc 1 990 0
	stw 29,20(1)
.LBB1580:
.LBB1562:
.LBB1560:
	.loc 3 160 0
	mr 29,27
	.cfi_offset 29, -12
	.loc 1 338 0
	lwz 0,8(9)
.LBE1560:
.LBE1562:
.LBE1580:
	.loc 1 990 0
	stw 31,28(1)
	stw 30,24(1)
.LBB1581:
.LBB1563:
.LBB1561:
	.loc 1 338 0
	mtctr 0
.LEHB12:
	.cfi_offset 30, -8
	.cfi_offset 31, -4
	bctrl
.LEHE12:
.LVL151:
	.loc 3 160 0
	lwzu 31,4(29)
.LVL152:
.LBE1561:
.LBE1563:
	.loc 1 996 0
	cmpw 7,31,29
	bne+ 7,.L121
	b .L110
.LVL153:
.L111:
	.loc 1 996 0 is_stmt 0 discriminator 1
	cmpw 7,29,30
	beq- 7,.L110
.L119:
	.loc 1 996 0
	mr 31,30
.LVL154:
.L121:
.LBB1564:
	.loc 1 1001 0 is_stmt 1
	lwz 3,8(31)
.LBB1565:
.LBB1566:
	.loc 4 154 0
	lwz 30,0(31)
.LVL155:
.LBE1566:
.LBE1565:
	.loc 1 1001 0
	lwz 9,0(3)
	lwz 0,8(9)
	mtctr 0
.LEHB13:
	bctrl
.LVL156:
	cmpw 7,28,3
	bne+ 7,.L111
.LVL157:
	.loc 1 1003 0
	lwz 3,8(31)
	cmpwi 7,3,0
	beq- 7,.L112
	.loc 1 1003 0 is_stmt 0 discriminator 1
	lwz 9,0(3)
	lwz 0,4(9)
	mtctr 0
	bctrl
.LEHE13:
.L112:
.LVL158:
.LBB1567:
.LBB1568:
.LBB1569:
.LBB1570:
	.loc 4 1532 0 is_stmt 1
	mr 3,31
	bl _ZNSt8__detail15_List_node_base9_M_unhookEv
.LVL159:
.LBB1571:
.LBB1572:
.LBB1573:
	.loc 6 98 0
	mr 3,31
	bl _ZdlPv
.LVL160:
.LBE1573:
.LBE1572:
.LBE1571:
.LBE1570:
.LBE1569:
.LBE1568:
.LBE1567:
.LBE1564:
	.loc 1 996 0
	cmpw 7,29,30
	bne+ 7,.L119
.LVL161:
.L110:
.LBB1574:
.LBB1575:
.LBB1576:
	.loc 1 343 0
	lwz 9,0(27)
	mr 3,27
	lwz 0,12(9)
	mtctr 0
.LEHB14:
	bctrl
.LEHE14:
.LBE1576:
.LBE1575:
.LBE1574:
.LBE1581:
	.loc 1 1010 0
	lwz 0,36(1)
	lwz 27,12(1)
.LVL162:
	mtlr 0
	lwz 28,16(1)
.LVL163:
	lwz 29,20(1)
.LVL164:
	lwz 30,24(1)
	lwz 31,28(1)
	addi 1,1,32
	.cfi_remember_state
.LCFI32:
	.cfi_def_cfa_offset 0
	.cfi_restore 31
	.cfi_restore 30
	.cfi_restore 29
	.cfi_restore 28
	.cfi_restore 27
	blr
.LVL165:
.L120:
.LCFI33:
	.cfi_restore_state
.LBB1582:
.LBB1577:
.LBB1578:
.LBB1579:
	.loc 1 343 0
	lwz 9,0(27)
	mr 31,3
.LVL166:
	mr 3,27
	lwz 0,12(9)
	mtctr 0
	bctrl
	mr 3,31
.LEHB15:
	bl _Unwind_Resume
.LEHE15:
.LBE1579:
.LBE1578:
.LBE1577:
.LBE1582:
	.cfi_endproc
.LFE1860:
	.section	.gcc_except_table
.LLSDA1860:
	.byte	0xff
	.byte	0xff
	.byte	0x1
	.uleb128 .LLSDACSE1860-.LLSDACSB1860
.LLSDACSB1860:
	.uleb128 .LEHB12-.LFB1860
	.uleb128 .LEHE12-.LEHB12
	.uleb128 0
	.uleb128 0
	.uleb128 .LEHB13-.LFB1860
	.uleb128 .LEHE13-.LEHB13
	.uleb128 .L120-.LFB1860
	.uleb128 0
	.uleb128 .LEHB14-.LFB1860
	.uleb128 .LEHE14-.LEHB14
	.uleb128 0
	.uleb128 0
	.uleb128 .LEHB15-.LFB1860
	.uleb128 .LEHE15-.LEHB15
	.uleb128 0
	.uleb128 0
.LLSDACSE1860:
	.section	.text._ZN7sigslot13_signal_base3IP10GuiElementiiNS_15single_threadedEE15slot_disconnectEPNS_9has_slotsIS3_EE,"axG",@progbits,_ZN7sigslot13_signal_base3IP10GuiElementiiNS_15single_threadedEE15slot_disconnectEPNS_9has_slotsIS3_EE,comdat
	.size	_ZN7sigslot13_signal_base3IP10GuiElementiiNS_15single_threadedEE15slot_disconnectEPNS_9has_slotsIS3_EE, .-_ZN7sigslot13_signal_base3IP10GuiElementiiNS_15single_threadedEE15slot_disconnectEPNS_9has_slotsIS3_EE
	.section	.text._ZN7sigslot13_signal_base2IP10GuiElementbNS_15single_threadedEE15slot_disconnectEPNS_9has_slotsIS3_EE,"axG",@progbits,_ZN7sigslot13_signal_base2IP10GuiElementbNS_15single_threadedEE15slot_disconnectEPNS_9has_slotsIS3_EE,comdat
	.align 2
	.weak	_ZN7sigslot13_signal_base2IP10GuiElementbNS_15single_threadedEE15slot_disconnectEPNS_9has_slotsIS3_EE
	.type	_ZN7sigslot13_signal_base2IP10GuiElementbNS_15single_threadedEE15slot_disconnectEPNS_9has_slotsIS3_EE, @function
_ZN7sigslot13_signal_base2IP10GuiElementbNS_15single_threadedEE15slot_disconnectEPNS_9has_slotsIS3_EE:
.LFB1862:
	.loc 1 870 0
	.cfi_startproc
	.cfi_personality 0,__gxx_personality_v0
	.cfi_lsda 0,.LLSDA1862
.LVL167:
	mflr 0
	stwu 1,-32(1)
.LCFI34:
	.cfi_def_cfa_offset 32
	.cfi_register 65, 0
	stw 27,12(1)
	mr 27,3
	.cfi_offset 27, -20
.LVL168:
	stw 0,36(1)
	stw 28,16(1)
	mr 28,4
	.cfi_offset 28, -16
	.cfi_offset 65, 4
.LBB1583:
.LBB1584:
.LBB1585:
	.loc 1 338 0
	lwz 9,0(3)
.LBE1585:
.LBE1584:
.LBE1583:
	.loc 1 870 0
	stw 29,20(1)
.LBB1606:
.LBB1588:
.LBB1586:
	.loc 3 160 0
	mr 29,27
	.cfi_offset 29, -12
	.loc 1 338 0
	lwz 0,8(9)
.LBE1586:
.LBE1588:
.LBE1606:
	.loc 1 870 0
	stw 31,28(1)
	stw 30,24(1)
.LBB1607:
.LBB1589:
.LBB1587:
	.loc 1 338 0
	mtctr 0
.LEHB16:
	.cfi_offset 30, -8
	.cfi_offset 31, -4
	bctrl
.LEHE16:
.LVL169:
	.loc 3 160 0
	lwzu 31,4(29)
.LVL170:
.LBE1587:
.LBE1589:
	.loc 1 876 0
	cmpw 7,31,29
	bne+ 7,.L134
	b .L123
.LVL171:
.L124:
	.loc 1 876 0 is_stmt 0 discriminator 1
	cmpw 7,29,30
	beq- 7,.L123
.L132:
	.loc 1 876 0
	mr 31,30
.LVL172:
.L134:
.LBB1590:
	.loc 1 881 0 is_stmt 1
	lwz 3,8(31)
.LBB1591:
.LBB1592:
	.loc 4 154 0
	lwz 30,0(31)
.LVL173:
.LBE1592:
.LBE1591:
	.loc 1 881 0
	lwz 9,0(3)
	lwz 0,8(9)
	mtctr 0
.LEHB17:
	bctrl
.LVL174:
	cmpw 7,28,3
	bne+ 7,.L124
.LVL175:
	.loc 1 883 0
	lwz 3,8(31)
	cmpwi 7,3,0
	beq- 7,.L125
	.loc 1 883 0 is_stmt 0 discriminator 1
	lwz 9,0(3)
	lwz 0,4(9)
	mtctr 0
	bctrl
.LEHE17:
.L125:
.LVL176:
.LBB1593:
.LBB1594:
.LBB1595:
.LBB1596:
	.loc 4 1532 0 is_stmt 1
	mr 3,31
	bl _ZNSt8__detail15_List_node_base9_M_unhookEv
.LVL177:
.LBB1597:
.LBB1598:
.LBB1599:
	.loc 6 98 0
	mr 3,31
	bl _ZdlPv
.LVL178:
.LBE1599:
.LBE1598:
.LBE1597:
.LBE1596:
.LBE1595:
.LBE1594:
.LBE1593:
.LBE1590:
	.loc 1 876 0
	cmpw 7,29,30
	bne+ 7,.L132
.LVL179:
.L123:
.LBB1600:
.LBB1601:
.LBB1602:
	.loc 1 343 0
	lwz 9,0(27)
	mr 3,27
	lwz 0,12(9)
	mtctr 0
.LEHB18:
	bctrl
.LEHE18:
.LBE1602:
.LBE1601:
.LBE1600:
.LBE1607:
	.loc 1 890 0
	lwz 0,36(1)
	lwz 27,12(1)
.LVL180:
	mtlr 0
	lwz 28,16(1)
.LVL181:
	lwz 29,20(1)
.LVL182:
	lwz 30,24(1)
	lwz 31,28(1)
	addi 1,1,32
	.cfi_remember_state
.LCFI35:
	.cfi_def_cfa_offset 0
	.cfi_restore 31
	.cfi_restore 30
	.cfi_restore 29
	.cfi_restore 28
	.cfi_restore 27
	blr
.LVL183:
.L133:
.LCFI36:
	.cfi_restore_state
.LBB1608:
.LBB1603:
.LBB1604:
.LBB1605:
	.loc 1 343 0
	lwz 9,0(27)
	mr 31,3
.LVL184:
	mr 3,27
	lwz 0,12(9)
	mtctr 0
	bctrl
	mr 3,31
.LEHB19:
	bl _Unwind_Resume
.LEHE19:
.LBE1605:
.LBE1604:
.LBE1603:
.LBE1608:
	.cfi_endproc
.LFE1862:
	.section	.gcc_except_table
.LLSDA1862:
	.byte	0xff
	.byte	0xff
	.byte	0x1
	.uleb128 .LLSDACSE1862-.LLSDACSB1862
.LLSDACSB1862:
	.uleb128 .LEHB16-.LFB1862
	.uleb128 .LEHE16-.LEHB16
	.uleb128 0
	.uleb128 0
	.uleb128 .LEHB17-.LFB1862
	.uleb128 .LEHE17-.LEHB17
	.uleb128 .L133-.LFB1862
	.uleb128 0
	.uleb128 .LEHB18-.LFB1862
	.uleb128 .LEHE18-.LEHB18
	.uleb128 0
	.uleb128 0
	.uleb128 .LEHB19-.LFB1862
	.uleb128 .LEHE19-.LEHB19
	.uleb128 0
	.uleb128 0
.LLSDACSE1862:
	.section	.text._ZN7sigslot13_signal_base2IP10GuiElementbNS_15single_threadedEE15slot_disconnectEPNS_9has_slotsIS3_EE,"axG",@progbits,_ZN7sigslot13_signal_base2IP10GuiElementbNS_15single_threadedEE15slot_disconnectEPNS_9has_slotsIS3_EE,comdat
	.size	_ZN7sigslot13_signal_base2IP10GuiElementbNS_15single_threadedEE15slot_disconnectEPNS_9has_slotsIS3_EE, .-_ZN7sigslot13_signal_base2IP10GuiElementbNS_15single_threadedEE15slot_disconnectEPNS_9has_slotsIS3_EE
	.section	.text._ZN10GuiElement10ResetStateEv,"axG",@progbits,_ZN10GuiElement10ResetStateEv,comdat
	.align 2
	.weak	_ZN10GuiElement10ResetStateEv
	.type	_ZN10GuiElement10ResetStateEv, @function
_ZN10GuiElement10ResetStateEv:
.LFB1402:
	.loc 2 183 0
	.cfi_startproc
.LVL185:
	mflr 0
	stwu 1,-8(1)
.LCFI37:
	.cfi_def_cfa_offset 8
	.cfi_register 65, 0
	stw 0,12(1)
	.loc 2 185 0
	lwz 0,72(3)
	.cfi_offset 65, 4
	cmpwi 7,0,4
	beq- 7,.L135
.LVL186:
.LBB1611:
.LBB1612:
	.loc 2 186 0
	lwz 9,0(3)
	li 4,0
	li 5,-1
	lwz 0,80(9)
	mtctr 0
	bctrl
.LVL187:
.L135:
.LBE1612:
.LBE1611:
	.loc 2 187 0
	lwz 0,12(1)
	addi 1,1,8
.LCFI38:
	.cfi_def_cfa_offset 0
	mtlr 0
	blr
	.cfi_endproc
.LFE1402:
	.size	_ZN10GuiElement10ResetStateEv, .-_ZN10GuiElement10ResetStateEv
	.section	".text"
	.align 2
	.globl _ZN10GuiTooltip4DrawEv
	.type	_ZN10GuiTooltip4DrawEv, @function
_ZN10GuiTooltip4DrawEv:
.LFB1575:
	.loc 3 146 0
	.cfi_startproc
.LVL188:
	mflr 0
	stwu 1,-24(1)
.LCFI39:
	.cfi_def_cfa_offset 24
	.cfi_register 65, 0
	.loc 3 147 0
	lis 9,Settings+108@ha
	.loc 3 146 0
	stw 31,20(1)
	mr 31,3
	.cfi_offset 31, -4
	stw 0,28(1)
	.loc 3 147 0
	lwz 0,Settings+108@l(9)
	.cfi_offset 65, 4
	lis 9,.LC1@ha
	lfs 0,.LC1@l(9)
	xoris 0,0,0x8000
	stw 0,12(1)
	lis 0,0x4330
	stw 0,8(1)
	lfd 13,8(1)
	fsub 0,13,0
	lfs 13,144(3)
	frsp 0,0
	fcmpu 7,13,0
	beq- 7,.L138
.LVL189:
.LBB1619:
.LBB1620:
	.loc 3 142 0
	stfs 0,144(3)
.LVL190:
.L138:
.LBE1620:
.LBE1619:
	.loc 3 150 0
	lwz 9,0(31)
	mr 3,31
.LVL191:
	lwz 0,52(9)
	mtctr 0
	bctrl
	cmpwi 7,3,0
	beq- 7,.L146
.L139:
	.loc 3 150 0 is_stmt 0 discriminator 2
	lwz 0,72(31)
	cmpwi 7,0,4
	beq- 7,.L137
.LVL192:
.LBB1621:
.LBB1622:
	.loc 3 153 0 is_stmt 1
	lwz 3,156(31)
	lwz 9,0(3)
	lwz 0,192(9)
	mtctr 0
	bctrl
	.loc 3 154 0
	lwz 3,160(31)
	lwz 9,0(3)
	lwz 0,192(9)
	mtctr 0
	bctrl
	.loc 3 155 0
	lwz 3,164(31)
	lwz 9,0(3)
	lwz 0,192(9)
	mtctr 0
	bctrl
	.loc 3 156 0
	lwz 3,180(31)
	cmpwi 7,3,0
	beq- 7,.L143
	.loc 3 157 0
	lwz 9,0(3)
	lwz 0,192(9)
	mtctr 0
	bctrl
.L143:
	.loc 3 159 0
	lwz 9,0(31)
	mr 3,31
	lwz 0,196(9)
	mtctr 0
	bctrl
.LVL193:
.L137:
.LBE1622:
.LBE1621:
	.loc 3 160 0
	lwz 0,28(1)
	lwz 31,20(1)
.LVL194:
	mtlr 0
	addi 1,1,24
	.cfi_remember_state
.LCFI40:
	.cfi_def_cfa_offset 0
	.cfi_restore 31
	blr
.LVL195:
.L146:
.LCFI41:
	.cfi_restore_state
	.loc 3 150 0 discriminator 1
	lwz 9,0(31)
	mr 3,31
	lwz 0,152(9)
	mtctr 0
	bctrl
	cmpwi 7,3,0
	bne- 7,.L139
	.loc 3 160 0
	lwz 0,28(1)
	lwz 31,20(1)
.LVL196:
	mtlr 0
	addi 1,1,24
	.cfi_restore 31
.LCFI42:
	.cfi_def_cfa_offset 0
	blr
	.cfi_endproc
.LFE1575:
	.size	_ZN10GuiTooltip4DrawEv, .-_ZN10GuiTooltip4DrawEv
	.align 2
	.globl _ZN10GuiTooltip12InternalInitEv
	.type	_ZN10GuiTooltip12InternalInitEv, @function
_ZN10GuiTooltip12InternalInitEv:
.LFB1565:
	.loc 3 54 0
	.cfi_startproc
	.cfi_personality 0,__gxx_personality_v0
	.cfi_lsda 0,.LLSDA1565
.LVL197:
	mflr 0
	stwu 1,-24(1)
.LCFI43:
	.cfi_def_cfa_offset 24
	.cfi_register 65, 0
	.loc 3 57 0
	lis 9,Settings+108@ha
	.loc 3 54 0
	stw 30,16(1)
	stw 0,28(1)
	.loc 3 57 0
	lwz 0,Settings+108@l(9)
	.cfi_offset 65, 4
	.cfi_offset 30, -8
	lis 9,.LC1@ha
	lfs 0,.LC1@l(9)
	.loc 3 56 0
	li 9,22
	.loc 3 57 0
	xoris 0,0,0x8000
	.loc 3 54 0
	stw 31,20(1)
	.loc 3 57 0
	stw 0,12(1)
	lis 0,0x4330
	stw 0,8(1)
	.loc 3 55 0
	li 0,0
	.loc 3 54 0
	mr 31,3
	.cfi_offset 31, -4
	.loc 3 57 0
	lfd 13,8(1)
	.loc 3 55 0
	stw 0,180(3)
	.loc 3 57 0
	fsub 0,13,0
	.loc 3 58 0
	stb 0,152(3)
	stb 0,153(3)
	stb 0,154(3)
	li 0,-1
	.loc 3 57 0
	frsp 0,0
	.loc 3 56 0
	stw 9,148(3)
	.loc 3 58 0
	stb 0,155(3)
	.loc 3 57 0
	stfs 0,144(3)
	.loc 3 60 0
	lis 3,.LC4@ha
.LVL198:
	la 3,.LC4@l(3)
.LEHB20:
	bl _ZN9Resources12GetImageDataEPKc
	stw 3,168(31)
	.loc 3 61 0
	lis 3,.LC5@ha
	la 3,.LC5@l(3)
	bl _ZN9Resources12GetImageDataEPKc
	stw 3,172(31)
	.loc 3 62 0
	lis 3,.LC6@ha
	la 3,.LC6@l(3)
	bl _ZN9Resources12GetImageDataEPKc
	stw 3,176(31)
	.loc 3 63 0
	li 3,196
	bl _Znwj
.LEHE20:
	lwz 4,168(31)
	mr 30,3
.LEHB21:
	bl _ZN8GuiImageC1EP12GuiImageData
.LEHE21:
	.loc 3 63 0 is_stmt 0 discriminator 1
	stw 30,156(31)
	.loc 3 64 0 is_stmt 1 discriminator 1
	li 3,196
.LEHB22:
	bl _Znwj
.LEHE22:
	lwz 4,172(31)
	mr 30,3
.LEHB23:
	bl _ZN8GuiImageC1EP12GuiImageData
.LEHE23:
	stw 30,160(31)
	.loc 3 65 0 discriminator 1
	li 3,196
.LEHB24:
	bl _Znwj
.LEHE24:
	lwz 4,176(31)
	mr 30,3
.LEHB25:
	bl _ZN8GuiImageC1EP12GuiImageData
.LEHE25:
	.loc 3 67 0 discriminator 1
	lwz 3,156(31)
	.loc 3 65 0 discriminator 1
	stw 30,164(31)
	.loc 3 67 0 discriminator 1
	lwz 9,0(3)
	lwz 0,40(9)
	mtctr 0
.LEHB26:
	bctrl
	.loc 3 69 0 discriminator 1
	lwz 9,156(31)
	.loc 3 67 0 discriminator 1
	stw 3,40(31)
	.loc 3 69 0 discriminator 1
	mr 4,31
	lwz 11,0(9)
	mr 3,9
	lwz 0,8(11)
	mtctr 0
	bctrl
	.loc 3 70 0 discriminator 1
	lwz 3,160(31)
	mr 4,31
	lwz 9,0(3)
	lwz 0,8(9)
	mtctr 0
	bctrl
	.loc 3 71 0 discriminator 1
	lwz 3,164(31)
	mr 4,31
	lwz 9,0(3)
	lwz 0,8(9)
	mtctr 0
	bctrl
	.loc 3 72 0 discriminator 1
	lwz 0,28(1)
	lwz 30,16(1)
	mtlr 0
	lwz 31,20(1)
.LVL199:
	addi 1,1,24
	.cfi_remember_state
.LCFI44:
	.cfi_def_cfa_offset 0
	.cfi_restore 31
	.cfi_restore 30
	blr
.LVL200:
.L151:
.L154:
.LCFI45:
	.cfi_restore_state
	mr 31,3
.LVL201:
	.loc 3 64 0
	mr 3,30
	bl _ZdlPv
	mr 3,31
	bl _Unwind_Resume
.LEHE26:
.LVL202:
.L153:
	b .L154
.L152:
	b .L154
	.cfi_endproc
.LFE1565:
	.section	.gcc_except_table
.LLSDA1565:
	.byte	0xff
	.byte	0xff
	.byte	0x1
	.uleb128 .LLSDACSE1565-.LLSDACSB1565
.LLSDACSB1565:
	.uleb128 .LEHB20-.LFB1565
	.uleb128 .LEHE20-.LEHB20
	.uleb128 0
	.uleb128 0
	.uleb128 .LEHB21-.LFB1565
	.uleb128 .LEHE21-.LEHB21
	.uleb128 .L151-.LFB1565
	.uleb128 0
	.uleb128 .LEHB22-.LFB1565
	.uleb128 .LEHE22-.LEHB22
	.uleb128 0
	.uleb128 0
	.uleb128 .LEHB23-.LFB1565
	.uleb128 .LEHE23-.LEHB23
	.uleb128 .L152-.LFB1565
	.uleb128 0
	.uleb128 .LEHB24-.LFB1565
	.uleb128 .LEHE24-.LEHB24
	.uleb128 0
	.uleb128 0
	.uleb128 .LEHB25-.LFB1565
	.uleb128 .LEHE25-.LEHB25
	.uleb128 .L153-.LFB1565
	.uleb128 0
	.uleb128 .LEHB26-.LFB1565
	.uleb128 .LEHE26-.LEHB26
	.uleb128 0
	.uleb128 0
.LLSDACSE1565:
	.section	".text"
	.size	_ZN10GuiTooltip12InternalInitEv, .-_ZN10GuiTooltip12InternalInitEv
	.align 2
	.globl _ZN10GuiTooltip7SetTextEPKw
	.type	_ZN10GuiTooltip7SetTextEPKw, @function
_ZN10GuiTooltip7SetTextEPKw:
.LFB1571:
	.loc 3 97 0
	.cfi_startproc
	.cfi_personality 0,__gxx_personality_v0
	.cfi_lsda 0,.LLSDA1571
.LVL203:
	mflr 0
	stwu 1,-64(1)
.LCFI46:
	.cfi_def_cfa_offset 64
	.cfi_register 65, 0
	stw 31,60(1)
	mr 31,3
	.cfi_offset 31, -4
	stw 0,68(1)
	stw 29,52(1)
	mr 29,4
	.cfi_offset 29, -12
	.cfi_offset 65, 4
.LBB1623:
	.loc 3 98 0
	lwz 3,180(3)
.LVL204:
.LBE1623:
	.loc 3 97 0
	stw 27,44(1)
.LBB1624:
	.loc 3 98 0
	cmpwi 7,3,0
.LBE1624:
	.loc 3 97 0
	stw 28,48(1)
	stw 30,56(1)
.LBB1625:
	.loc 3 98 0
	beq- 7,.L156
	.cfi_offset 30, -8
	.cfi_offset 28, -16
	.cfi_offset 27, -20
	.loc 3 99 0 discriminator 1
	lwz 9,0(3)
	lwz 0,4(9)
	mtctr 0
.LEHB27:
	bctrl
.LVL205:
.L156:
	.loc 3 103 0
	cmpwi 7,29,0
	.loc 3 100 0
	li 0,0
	stw 0,180(31)
.LVL206:
	.loc 3 103 0
	beq- 7,.L159
	.loc 3 105 0
	li 3,208
	bl _Znwj
.LEHE27:
	lwz 0,152(31)
	mr 6,1
	mr 4,29
	stwu 0,8(6)
	mr 30,3
	lwz 5,148(31)
.LEHB28:
	bl _ZN7GuiTextC1EPKwi9_gx_color
.LEHE28:
	.loc 3 106 0 discriminator 1
	lwz 9,0(30)
	mr 3,30
	.loc 3 105 0 discriminator 1
	stw 30,180(31)
	.loc 3 106 0 discriminator 1
	mr 4,31
	lwz 0,8(9)
	mtctr 0
.LEHB29:
	bctrl
	.loc 3 107 0 discriminator 1
	lwz 3,180(31)
	li 4,34
	lwz 9,0(3)
	lwz 0,180(9)
	mtctr 0
	bctrl
	.loc 3 108 0 discriminator 1
	lwz 3,180(31)
	bl _ZN7GuiText12GetTextWidthEv
	mr 30,3
	lwz 3,160(31)
	lwz 9,0(3)
	lwz 0,36(9)
	mtctr 0
	bctrl
	addi 9,30,-12
	lis 0,0x4330
	xoris 9,9,0x8000
	xoris 3,3,0x8000
	stw 9,20(1)
	stw 0,16(1)
	lis 9,.LC1@ha
	stw 0,24(1)
	stw 3,28(1)
	lfs 0,.LC1@l(9)
	addi 9,1,32
	lfd 13,16(1)
	lfd 12,24(1)
	fsub 13,13,0
	fsub 0,12,0
	frsp 13,13
	frsp 0,0
	fdivs 0,13,0
	fctiwz 0,0
	stfiwx 0,0,9
	lwz 30,32(1)
.LVL207:
	.loc 3 110 0 discriminator 1
	nor 0,30,30
	srawi 0,0,31
	and 30,30,0
.LVL208:
.L157:
	.loc 3 112 0
	lwz 3,156(31)
	lwz 28,160(31)
	lwz 9,0(3)
	lwz 0,36(9)
	lwz 9,0(28)
	mtctr 0
	lwz 29,168(9)
.LVL209:
	bctrl
	li 5,0
	mtctr 29
	mr 4,3
	mr 3,28
	bctrl
	.loc 3 113 0
	lwz 3,160(31)
	mr 4,30
	bl _ZN8GuiImage17SetTileHorizontalEi
	.loc 3 114 0
	lwz 3,156(31)
	lwz 28,164(31)
	lwz 9,0(3)
	lwz 0,36(9)
	lwz 9,0(28)
	mtctr 0
	lwz 29,168(9)
	bctrl
	mr 27,3
	lwz 3,160(31)
	lwz 9,0(3)
	lwz 0,36(9)
	mtctr 0
	bctrl
	li 5,0
	mullw 0,30,3
	mtctr 29
	mr 3,28
	add 4,27,0
	bctrl
	.loc 3 115 0
	lwz 3,156(31)
	lwz 9,0(3)
	lwz 0,36(9)
	mtctr 0
	bctrl
	mr 29,3
	lwz 3,160(31)
	lwz 9,0(3)
	lwz 0,36(9)
	mtctr 0
	bctrl
	lwz 9,164(31)
	mullw 30,30,3
.LVL210:
	lwz 11,0(9)
	mr 3,9
	lwz 0,36(11)
	add 30,29,30
	mtctr 0
	bctrl
.LBE1625:
	.loc 3 116 0
	lwz 0,68(1)
.LBB1626:
	.loc 3 115 0
	add 30,30,3
.LBE1626:
	.loc 3 116 0
	lwz 27,44(1)
	mtlr 0
.LBB1627:
	.loc 3 115 0
	stw 30,36(31)
.LBE1627:
	.loc 3 116 0
	lwz 28,48(1)
	lwz 29,52(1)
	lwz 30,56(1)
	lwz 31,60(1)
.LVL211:
	addi 1,1,64
	.cfi_remember_state
.LCFI47:
	.cfi_def_cfa_offset 0
	.cfi_restore 31
	.cfi_restore 30
	.cfi_restore 29
	.cfi_restore 28
	.cfi_restore 27
	blr
.LVL212:
.L159:
.LCFI48:
	.cfi_restore_state
.LBB1628:
	.loc 3 102 0
	li 30,0
	b .L157
.L161:
	mr 31,3
.LVL213:
	.loc 3 105 0
	mr 3,30
	bl _ZdlPv
	mr 3,31
	bl _Unwind_Resume
.LEHE29:
.LBE1628:
	.cfi_endproc
.LFE1571:
	.section	.gcc_except_table
.LLSDA1571:
	.byte	0xff
	.byte	0xff
	.byte	0x1
	.uleb128 .LLSDACSE1571-.LLSDACSB1571
.LLSDACSB1571:
	.uleb128 .LEHB27-.LFB1571
	.uleb128 .LEHE27-.LEHB27
	.uleb128 0
	.uleb128 0
	.uleb128 .LEHB28-.LFB1571
	.uleb128 .LEHE28-.LEHB28
	.uleb128 .L161-.LFB1571
	.uleb128 0
	.uleb128 .LEHB29-.LFB1571
	.uleb128 .LEHE29-.LEHB29
	.uleb128 0
	.uleb128 0
.LLSDACSE1571:
	.section	".text"
	.size	_ZN10GuiTooltip7SetTextEPKw, .-_ZN10GuiTooltip7SetTextEPKw
	.align 2
	.globl _ZN10GuiTooltip7SetTextEPKc
	.type	_ZN10GuiTooltip7SetTextEPKc, @function
_ZN10GuiTooltip7SetTextEPKc:
.LFB1570:
	.loc 3 89 0
	.cfi_startproc
.LVL214:
	.loc 3 90 0
	cmpwi 0,4,0
	.loc 3 89 0
	mflr 0
	stwu 1,-16(1)
.LCFI49:
	.cfi_def_cfa_offset 16
	.cfi_register 65, 0
	stw 31,12(1)
	mr 31,3
	.cfi_offset 31, -4
	stw 0,20(1)
	.loc 3 90 0
	beq- 0,.L162
	.cfi_offset 65, 4
	.loc 3 93 0
	mr 3,4
.LVL215:
	bl _Z14charToWideCharPKc
.LVL216:
	.loc 3 94 0
	lwz 0,20(1)
	.loc 3 93 0
	mr 4,3
	mr 3,31
	.loc 3 94 0
	mtlr 0
	lwz 31,12(1)
.LVL217:
	addi 1,1,16
	.cfi_remember_state
.LCFI50:
	.cfi_def_cfa_offset 0
	.cfi_restore 31
	.loc 3 93 0
	b _ZN10GuiTooltip7SetTextEPKw
.LVL218:
.L162:
.LCFI51:
	.cfi_restore_state
	.loc 3 94 0
	lwz 0,20(1)
	lwz 31,12(1)
	mtlr 0
	addi 1,1,16
.LCFI52:
	.cfi_def_cfa_offset 0
	.cfi_restore 31
	blr
	.cfi_endproc
.LFE1570:
	.size	_ZN10GuiTooltip7SetTextEPKc, .-_ZN10GuiTooltip7SetTextEPKc
	.align 2
	.globl _ZN10GuiTooltip11SetFontSizeEi
	.type	_ZN10GuiTooltip11SetFontSizeEi, @function
_ZN10GuiTooltip11SetFontSizeEi:
.LFB1572:
	.loc 3 119 0
	.cfi_startproc
	.cfi_personality 0,__gxx_personality_v0
	.cfi_lsda 0,.LLSDA1572
.LVL219:
	mflr 0
	stwu 1,-32(1)
.LCFI53:
	.cfi_def_cfa_offset 32
	.cfi_register 65, 0
	stw 31,28(1)
	mr 31,3
	.cfi_offset 31, -4
	stw 0,36(1)
.LBB1687:
	.loc 3 120 0
	stw 4,148(31)
.LBB1688:
	.loc 3 122 0
	lwz 3,180(3)
.LVL220:
	cmpwi 7,3,0
	beq- 7,.L164
	.cfi_offset 65, 4
.LBB1689:
	.loc 3 124 0
	lwz 9,0(3)
	lwz 0,220(9)
	mtctr 0
.LEHB30:
	bctrl
.LVL221:
	addi 5,1,10
	mr 4,3
	addi 3,1,16
	bl _ZNSbIwSt11char_traitsIwESaIwEEC1EPKwRKS1_
.LEHE30:
	.loc 3 125 0
	addi 3,1,12
	addi 4,1,16
.LEHB31:
	bl _ZNSbIwSt11char_traitsIwESaIwEEC1ERKS2_
.LEHE31:
.LVL222:
.LBB1690:
.LBB1691:
	.file 7 "d:/Projects/SaveGameManager/savegame-manager-gx/trunk/source/GUI/gui_tooltip.h"
	.loc 7 40 0 discriminator 1
	lwz 4,12(1)
	mr 3,31
.LEHB32:
	bl _ZN10GuiTooltip7SetTextEPKw
.LEHE32:
.LVL223:
.LBE1691:
.LBE1690:
.LBB1692:
.LBB1693:
.LBB1694:
.LBB1695:
.LBB1696:
.LBB1697:
	.file 8 "d:\\devkitpro\\devkitppc\\bin\\../lib/gcc/powerpc-eabi/4.6.3/../../../../powerpc-eabi/include/c++/4.6.3/bits/basic_string.h"
	.loc 8 288 0
	lwz 9,12(1)
.LBE1697:
.LBE1696:
.LBE1695:
.LBB1698:
.LBB1699:
	.loc 8 235 0
	lis 31,_ZNSbIwSt11char_traitsIwESaIwEE4_Rep20_S_empty_rep_storageE@ha
.LVL224:
	la 31,_ZNSbIwSt11char_traitsIwESaIwEE4_Rep20_S_empty_rep_storageE@l(31)
.LBE1699:
.LBE1698:
	.loc 8 534 0
	addi 3,9,-12
.LVL225:
.LBB1708:
.LBB1706:
	.loc 8 235 0
	cmpw 7,3,31
	bne- 7,.L183
.LVL226:
.L173:
.LBE1706:
.LBE1708:
.LBE1694:
.LBE1693:
.LBE1692:
.LBB1712:
.LBB1713:
.LBB1714:
.LBB1715:
.LBB1716:
.LBB1717:
	.loc 8 288 0
	lwz 9,16(1)
.LBE1717:
.LBE1716:
.LBE1715:
	.loc 8 534 0
	addi 3,9,-12
.LVL227:
.LBB1718:
.LBB1719:
	.loc 8 235 0
	cmpw 7,3,31
	bne- 7,.L184
.LVL228:
.L164:
.LBE1719:
.LBE1718:
.LBE1714:
.LBE1713:
.LBE1712:
.LBE1689:
.LBE1688:
.LBE1687:
	.loc 3 127 0
	lwz 0,36(1)
	lwz 31,28(1)
	mtlr 0
	addi 1,1,32
	.cfi_remember_state
.LCFI54:
	.cfi_def_cfa_offset 0
	.cfi_restore 31
	blr
.LVL229:
.L183:
.LCFI55:
	.cfi_restore_state
.LBB1734:
.LBB1733:
.LBB1732:
.LBB1730:
.LBB1711:
.LBB1710:
.LBB1709:
.LBB1707:
.LBB1700:
.LBB1701:
.LBB1702:
	.file 9 "d:\\devkitpro\\devkitppc\\bin\\../lib/gcc/powerpc-eabi/4.6.3/../../../../powerpc-eabi/include/c++/4.6.3/ext/atomicity.h"
	.loc 9 66 0
	lwz 11,-4(9)
.LVL230:
.LBE1702:
.LBE1701:
.LBE1700:
	.loc 8 240 0
	cmpwi 7,11,0
.LBB1705:
.LBB1704:
.LBB1703:
	.loc 9 67 0
	addi 11,11,-1
	stw 11,-4(9)
.LBE1703:
.LBE1704:
.LBE1705:
	.loc 8 240 0
	bgt+ 7,.L173
	.loc 8 244 0
	addi 4,1,9
	bl _ZNSbIwSt11char_traitsIwESaIwEE4_Rep10_M_destroyERKS1_
.LVL231:
	b .L173
.LVL232:
.L184:
.LBE1707:
.LBE1709:
.LBE1710:
.LBE1711:
.LBE1730:
.LBB1731:
.LBB1729:
.LBB1728:
.LBB1727:
.LBB1726:
.LBB1720:
.LBB1721:
.LBB1722:
	.loc 9 66 0
	lwz 11,-4(9)
.LVL233:
.LBE1722:
.LBE1721:
.LBE1720:
	.loc 8 240 0
	cmpwi 7,11,0
.LBB1725:
.LBB1724:
.LBB1723:
	.loc 9 67 0
	addi 11,11,-1
	stw 11,-4(9)
.LBE1723:
.LBE1724:
.LBE1725:
	.loc 8 240 0
	bgt+ 7,.L164
	.loc 8 244 0
	addi 4,1,8
	bl _ZNSbIwSt11char_traitsIwESaIwEE4_Rep10_M_destroyERKS1_
.LVL234:
	b .L164
.LVL235:
.L182:
	mr 31,3
.LVL236:
.LBE1726:
.LBE1727:
.LBE1728:
.LBE1729:
.LBE1731:
	.loc 3 125 0
	addi 3,1,12
.LVL237:
	bl _ZNSbIwSt11char_traitsIwESaIwEED1Ev
.LVL238:
.L180:
	addi 3,1,16
	bl _ZNSbIwSt11char_traitsIwESaIwEED1Ev
	mr 3,31
.LEHB33:
	bl _Unwind_Resume
.LEHE33:
.LVL239:
.L181:
	mr 31,3
.LVL240:
	b .L180
.LBE1732:
.LBE1733:
.LBE1734:
	.cfi_endproc
.LFE1572:
	.section	.gcc_except_table
.LLSDA1572:
	.byte	0xff
	.byte	0xff
	.byte	0x1
	.uleb128 .LLSDACSE1572-.LLSDACSB1572
.LLSDACSB1572:
	.uleb128 .LEHB30-.LFB1572
	.uleb128 .LEHE30-.LEHB30
	.uleb128 0
	.uleb128 0
	.uleb128 .LEHB31-.LFB1572
	.uleb128 .LEHE31-.LEHB31
	.uleb128 .L181-.LFB1572
	.uleb128 0
	.uleb128 .LEHB32-.LFB1572
	.uleb128 .LEHE32-.LEHB32
	.uleb128 .L182-.LFB1572
	.uleb128 0
	.uleb128 .LEHB33-.LFB1572
	.uleb128 .LEHE33-.LEHB33
	.uleb128 0
	.uleb128 0
.LLSDACSE1572:
	.section	".text"
	.size	_ZN10GuiTooltip11SetFontSizeEi, .-_ZN10GuiTooltip11SetFontSizeEi
	.align 2
	.globl _ZN10GuiTooltip8SetColorE9_gx_color
	.type	_ZN10GuiTooltip8SetColorE9_gx_color, @function
_ZN10GuiTooltip8SetColorE9_gx_color:
.LFB1573:
	.loc 3 130 0
	.cfi_startproc
	.cfi_personality 0,__gxx_personality_v0
	.cfi_lsda 0,.LLSDA1573
.LVL241:
	mflr 0
	stwu 1,-32(1)
.LCFI56:
	.cfi_def_cfa_offset 32
	.cfi_register 65, 0
	stw 31,28(1)
	mr 31,3
	.cfi_offset 31, -4
	stw 0,36(1)
.LBB1793:
.LBB1794:
	.loc 3 133 0
	lwz 3,180(3)
.LVL242:
.LBE1794:
.LBE1793:
	.loc 3 130 0
	lwz 0,0(4)
	.cfi_offset 65, 4
.LBB1842:
.LBB1839:
	.loc 3 133 0
	cmpwi 7,3,0
.LBE1839:
	.loc 3 131 0
	stw 0,152(31)
.LBB1840:
	.loc 3 133 0
	beq- 7,.L185
.LBB1795:
	.loc 3 135 0
	lwz 9,0(3)
	lwz 0,220(9)
	mtctr 0
.LEHB34:
	bctrl
	addi 5,1,10
	mr 4,3
	addi 3,1,16
	bl _ZNSbIwSt11char_traitsIwESaIwEEC1EPKwRKS1_
.LEHE34:
	.loc 3 136 0
	addi 3,1,12
	addi 4,1,16
.LEHB35:
	bl _ZNSbIwSt11char_traitsIwESaIwEEC1ERKS2_
.LEHE35:
.LVL243:
.LBB1796:
.LBB1797:
	.loc 7 40 0 discriminator 1
	lwz 4,12(1)
	mr 3,31
.LEHB36:
	bl _ZN10GuiTooltip7SetTextEPKw
.LEHE36:
.LVL244:
.LBE1797:
.LBE1796:
.LBB1798:
.LBB1799:
.LBB1800:
.LBB1801:
.LBB1802:
.LBB1803:
	.loc 8 288 0
	lwz 9,12(1)
.LBE1803:
.LBE1802:
.LBE1801:
.LBB1804:
.LBB1805:
	.loc 8 235 0
	lis 31,_ZNSbIwSt11char_traitsIwESaIwEE4_Rep20_S_empty_rep_storageE@ha
.LVL245:
	la 31,_ZNSbIwSt11char_traitsIwESaIwEE4_Rep20_S_empty_rep_storageE@l(31)
.LBE1805:
.LBE1804:
	.loc 8 534 0
	addi 3,9,-12
.LVL246:
.LBB1814:
.LBB1812:
	.loc 8 235 0
	cmpw 7,3,31
	bne- 7,.L204
.LVL247:
.L194:
.LBE1812:
.LBE1814:
.LBE1800:
.LBE1799:
.LBE1798:
.LBB1818:
.LBB1819:
.LBB1820:
.LBB1821:
.LBB1822:
.LBB1823:
	.loc 8 288 0
	lwz 9,16(1)
.LBE1823:
.LBE1822:
.LBE1821:
	.loc 8 534 0
	addi 3,9,-12
.LVL248:
.LBB1824:
.LBB1825:
	.loc 8 235 0
	cmpw 7,3,31
	bne- 7,.L205
.LVL249:
.L185:
.LBE1825:
.LBE1824:
.LBE1820:
.LBE1819:
.LBE1818:
.LBE1795:
.LBE1840:
.LBE1842:
	.loc 3 138 0
	lwz 0,36(1)
	lwz 31,28(1)
	mtlr 0
	addi 1,1,32
	.cfi_remember_state
.LCFI57:
	.cfi_def_cfa_offset 0
	.cfi_restore 31
	blr
.LVL250:
.L204:
.LCFI58:
	.cfi_restore_state
.LBB1843:
.LBB1841:
.LBB1838:
.LBB1836:
.LBB1817:
.LBB1816:
.LBB1815:
.LBB1813:
.LBB1806:
.LBB1807:
.LBB1808:
	.loc 9 66 0
	lwz 11,-4(9)
.LVL251:
.LBE1808:
.LBE1807:
.LBE1806:
	.loc 8 240 0
	cmpwi 7,11,0
.LBB1811:
.LBB1810:
.LBB1809:
	.loc 9 67 0
	addi 11,11,-1
	stw 11,-4(9)
.LBE1809:
.LBE1810:
.LBE1811:
	.loc 8 240 0
	bgt+ 7,.L194
	.loc 8 244 0
	addi 4,1,9
	bl _ZNSbIwSt11char_traitsIwESaIwEE4_Rep10_M_destroyERKS1_
.LVL252:
	b .L194
.LVL253:
.L205:
.LBE1813:
.LBE1815:
.LBE1816:
.LBE1817:
.LBE1836:
.LBB1837:
.LBB1835:
.LBB1834:
.LBB1833:
.LBB1832:
.LBB1826:
.LBB1827:
.LBB1828:
	.loc 9 66 0
	lwz 11,-4(9)
.LVL254:
.LBE1828:
.LBE1827:
.LBE1826:
	.loc 8 240 0
	cmpwi 7,11,0
.LBB1831:
.LBB1830:
.LBB1829:
	.loc 9 67 0
	addi 11,11,-1
	stw 11,-4(9)
.LBE1829:
.LBE1830:
.LBE1831:
	.loc 8 240 0
	bgt+ 7,.L185
	.loc 8 244 0
	addi 4,1,8
	bl _ZNSbIwSt11char_traitsIwESaIwEE4_Rep10_M_destroyERKS1_
.LVL255:
	b .L185
.LVL256:
.L203:
	mr 31,3
.LVL257:
.LBE1832:
.LBE1833:
.LBE1834:
.LBE1835:
.LBE1837:
	.loc 3 136 0
	addi 3,1,12
.LVL258:
	bl _ZNSbIwSt11char_traitsIwESaIwEED1Ev
.LVL259:
.L201:
	addi 3,1,16
	bl _ZNSbIwSt11char_traitsIwESaIwEED1Ev
	mr 3,31
.LEHB37:
	bl _Unwind_Resume
.LEHE37:
.LVL260:
.L202:
	mr 31,3
.LVL261:
	b .L201
.LBE1838:
.LBE1841:
.LBE1843:
	.cfi_endproc
.LFE1573:
	.section	.gcc_except_table
.LLSDA1573:
	.byte	0xff
	.byte	0xff
	.byte	0x1
	.uleb128 .LLSDACSE1573-.LLSDACSB1573
.LLSDACSB1573:
	.uleb128 .LEHB34-.LFB1573
	.uleb128 .LEHE34-.LEHB34
	.uleb128 0
	.uleb128 0
	.uleb128 .LEHB35-.LFB1573
	.uleb128 .LEHE35-.LEHB35
	.uleb128 .L202-.LFB1573
	.uleb128 0
	.uleb128 .LEHB36-.LFB1573
	.uleb128 .LEHE36-.LEHB36
	.uleb128 .L203-.LFB1573
	.uleb128 0
	.uleb128 .LEHB37-.LFB1573
	.uleb128 .LEHE37-.LEHB37
	.uleb128 0
	.uleb128 0
.LLSDACSE1573:
	.section	".text"
	.size	_ZN10GuiTooltip8SetColorE9_gx_color, .-_ZN10GuiTooltip8SetColorE9_gx_color
	.align 2
	.globl _ZN10GuiTooltip13SetElapseTimeEf
	.type	_ZN10GuiTooltip13SetElapseTimeEf, @function
_ZN10GuiTooltip13SetElapseTimeEf:
.LFB1574:
	.loc 3 141 0
	.cfi_startproc
.LVL262:
	.loc 3 142 0
	stfs 1,144(3)
	.loc 3 143 0
	blr
	.cfi_endproc
.LFE1574:
	.size	_ZN10GuiTooltip13SetElapseTimeEf, .-_ZN10GuiTooltip13SetElapseTimeEf
	.section	.text._ZNSt8_Rb_treeIPN7sigslot12_signal_baseINS0_15single_threadedEEES4_St9_IdentityIS4_ESt4lessIS4_ESaIS4_EE8_M_eraseEPSt13_Rb_tree_nodeIS4_E,"axG",@progbits,_ZNSt8_Rb_treeIPN7sigslot12_signal_baseINS0_15single_threadedEEES4_St9_IdentityIS4_ESt4lessIS4_ESaIS4_EE8_M_eraseEPSt13_Rb_tree_nodeIS4_E,comdat
	.align 2
	.weak	_ZNSt8_Rb_treeIPN7sigslot12_signal_baseINS0_15single_threadedEEES4_St9_IdentityIS4_ESt4lessIS4_ESaIS4_EE8_M_eraseEPSt13_Rb_tree_nodeIS4_E
	.type	_ZNSt8_Rb_treeIPN7sigslot12_signal_baseINS0_15single_threadedEEES4_St9_IdentityIS4_ESt4lessIS4_ESaIS4_EE8_M_eraseEPSt13_Rb_tree_nodeIS4_E, @function
_ZNSt8_Rb_treeIPN7sigslot12_signal_baseINS0_15single_threadedEEES4_St9_IdentityIS4_ESt4lessIS4_ESaIS4_EE8_M_eraseEPSt13_Rb_tree_nodeIS4_E:
.LFB1829:
	.file 10 "d:\\devkitpro\\devkitppc\\bin\\../lib/gcc/powerpc-eabi/4.6.3/../../../../powerpc-eabi/include/c++/4.6.3/bits/stl_tree.h"
	.loc 10 1068 0
	.cfi_startproc
.LVL263:
	stwu 1,-56(1)
.LCFI59:
	.cfi_def_cfa_offset 56
	mflr 0
	stw 22,16(1)
.LBB1960:
	.loc 10 1072 0
	mr. 22,4
	.cfi_offset 22, -40
	.cfi_register 65, 0
.LBE1960:
	.loc 10 1068 0
	stw 30,48(1)
	mr 30,3
	.cfi_offset 30, -8
	stw 0,60(1)
	stw 21,12(1)
	stw 23,20(1)
	stw 24,24(1)
	stw 25,28(1)
	stw 26,32(1)
	stw 27,36(1)
	stw 28,40(1)
	stw 29,44(1)
	stw 31,52(1)
.LBB2045:
	.loc 10 1072 0
	beq- 0,.L207
	.cfi_offset 31, -4
	.cfi_offset 29, -12
	.cfi_offset 28, -16
	.cfi_offset 27, -20
	.cfi_offset 26, -24
	.cfi_offset 25, -28
	.cfi_offset 24, -32
	.cfi_offset 23, -36
	.cfi_offset 21, -44
	.cfi_offset 65, 4
.LVL264:
.L253:
	.loc 3 160 0
	lwz 27,12(22)
.LVL265:
.LBB1961:
.LBB1962:
.LBB1963:
	.loc 10 1072 0
	cmpwi 7,27,0
	beq- 7,.L209
.LVL266:
.L254:
.LBE1963:
	.loc 3 160 0
	lwz 26,12(27)
.LVL267:
.LBB2039:
.LBB1964:
.LBB1965:
.LBB1966:
	.loc 10 1072 0
	cmpwi 7,26,0
	beq- 7,.L210
.LVL268:
.L255:
.LBE1966:
	.loc 3 160 0
	lwz 25,12(26)
.LVL269:
.LBB2032:
.LBB1967:
.LBB1968:
.LBB1969:
	.loc 10 1072 0
	cmpwi 7,25,0
	beq- 7,.L211
.LVL270:
.L256:
.LBE1969:
	.loc 3 160 0
	lwz 24,12(25)
.LVL271:
.LBB2025:
.LBB1970:
.LBB1971:
.LBB1972:
	.loc 10 1072 0
	cmpwi 7,24,0
	beq- 7,.L212
.LVL272:
.L257:
.LBE1972:
	.loc 3 160 0
	lwz 23,12(24)
.LVL273:
.LBB2018:
.LBB1973:
.LBB1974:
.LBB1975:
	.loc 10 1072 0
	cmpwi 7,23,0
	beq- 7,.L213
.LVL274:
.L258:
.LBE1975:
	.loc 3 160 0
	lwz 28,12(23)
.LVL275:
.LBB2011:
.LBB1976:
.LBB1977:
.LBB1978:
	.loc 10 1072 0
	cmpwi 7,28,0
	beq- 7,.L214
.LVL276:
.L259:
.LBE1978:
	.loc 3 160 0
	lwz 29,12(28)
.LVL277:
.LBB2004:
.LBB1979:
.LBB1980:
.LBB1981:
	.loc 10 1072 0
	cmpwi 7,29,0
	beq- 7,.L215
.LVL278:
.L260:
.LBE1981:
	.loc 3 160 0
	lwz 31,12(29)
.LVL279:
.LBB1997:
.LBB1982:
.LBB1983:
.LBB1984:
	.loc 10 1072 0
	cmpwi 7,31,0
	beq- 7,.L216
.LVL280:
.L261:
.LBB1985:
	.loc 10 1074 0
	lwz 4,12(31)
	mr 3,30
	bl _ZNSt8_Rb_treeIPN7sigslot12_signal_baseINS0_15single_threadedEEES4_St9_IdentityIS4_ESt4lessIS4_ESaIS4_EE8_M_eraseEPSt13_Rb_tree_nodeIS4_E
.LBE1985:
.LBE1984:
	.loc 3 160 0
	lwz 21,8(31)
.LVL281:
.LBB1991:
.LBB1990:
.LBB1986:
.LBB1987:
.LBB1988:
.LBB1989:
	.loc 6 98 0
	mr 3,31
	bl _ZdlPv
.LVL282:
.LBE1989:
.LBE1988:
.LBE1987:
.LBE1986:
.LBE1990:
	.loc 10 1072 0
	cmpwi 7,21,0
	.loc 10 1077 0
	mr 31,21
.LVL283:
	.loc 10 1072 0
	bne+ 7,.L261
.LVL284:
.L216:
.LBE1991:
.LBE1983:
.LBE1982:
.LBE1997:
	.loc 3 160 0
	lwz 31,8(29)
.LVL285:
.LBB1998:
.LBB1996:
.LBB1992:
.LBB1993:
.LBB1994:
.LBB1995:
	.loc 6 98 0
	mr 3,29
	bl _ZdlPv
.LVL286:
.LBE1995:
.LBE1994:
.LBE1993:
.LBE1992:
.LBE1996:
	.loc 10 1072 0
	cmpwi 7,31,0
	beq- 7,.L215
	.loc 10 1077 0
	mr 29,31
.LVL287:
	b .L260
.LVL288:
.L215:
.LBE1998:
.LBE1980:
.LBE1979:
.LBE2004:
	.loc 3 160 0
	lwz 31,8(28)
.LVL289:
.LBB2005:
.LBB2003:
.LBB1999:
.LBB2000:
.LBB2001:
.LBB2002:
	.loc 6 98 0
	mr 3,28
	bl _ZdlPv
.LVL290:
.LBE2002:
.LBE2001:
.LBE2000:
.LBE1999:
.LBE2003:
	.loc 10 1072 0
	cmpwi 7,31,0
	beq- 7,.L214
	.loc 10 1077 0
	mr 28,31
.LVL291:
	b .L259
.LVL292:
.L214:
.LBE2005:
.LBE1977:
.LBE1976:
.LBE2011:
	.loc 3 160 0
	lwz 31,8(23)
.LVL293:
.LBB2012:
.LBB2010:
.LBB2006:
.LBB2007:
.LBB2008:
.LBB2009:
	.loc 6 98 0
	mr 3,23
	bl _ZdlPv
.LVL294:
.LBE2009:
.LBE2008:
.LBE2007:
.LBE2006:
.LBE2010:
	.loc 10 1072 0
	cmpwi 7,31,0
	beq- 7,.L213
	.loc 10 1077 0
	mr 23,31
.LVL295:
	b .L258
.LVL296:
.L213:
.LBE2012:
.LBE1974:
.LBE1973:
.LBE2018:
	.loc 3 160 0
	lwz 31,8(24)
.LVL297:
.LBB2019:
.LBB2017:
.LBB2013:
.LBB2014:
.LBB2015:
.LBB2016:
	.loc 6 98 0
	mr 3,24
	bl _ZdlPv
.LVL298:
.LBE2016:
.LBE2015:
.LBE2014:
.LBE2013:
.LBE2017:
	.loc 10 1072 0
	cmpwi 7,31,0
	beq- 7,.L212
	.loc 10 1077 0
	mr 24,31
.LVL299:
	b .L257
.LVL300:
.L212:
.LBE2019:
.LBE1971:
.LBE1970:
.LBE2025:
	.loc 3 160 0
	lwz 31,8(25)
.LVL301:
.LBB2026:
.LBB2024:
.LBB2020:
.LBB2021:
.LBB2022:
.LBB2023:
	.loc 6 98 0
	mr 3,25
	bl _ZdlPv
.LVL302:
.LBE2023:
.LBE2022:
.LBE2021:
.LBE2020:
.LBE2024:
	.loc 10 1072 0
	cmpwi 7,31,0
	beq- 7,.L211
	.loc 10 1077 0
	mr 25,31
.LVL303:
	b .L256
.LVL304:
.L211:
.LBE2026:
.LBE1968:
.LBE1967:
.LBE2032:
	.loc 3 160 0
	lwz 31,8(26)
.LVL305:
.LBB2033:
.LBB2031:
.LBB2027:
.LBB2028:
.LBB2029:
.LBB2030:
	.loc 6 98 0
	mr 3,26
	bl _ZdlPv
.LVL306:
.LBE2030:
.LBE2029:
.LBE2028:
.LBE2027:
.LBE2031:
	.loc 10 1072 0
	cmpwi 7,31,0
	beq- 7,.L210
	.loc 10 1077 0
	mr 26,31
.LVL307:
	b .L255
.LVL308:
.L210:
.LBE2033:
.LBE1965:
.LBE1964:
.LBE2039:
	.loc 3 160 0
	lwz 31,8(27)
.LVL309:
.LBB2040:
.LBB2038:
.LBB2034:
.LBB2035:
.LBB2036:
.LBB2037:
	.loc 6 98 0
	mr 3,27
	bl _ZdlPv
.LVL310:
.LBE2037:
.LBE2036:
.LBE2035:
.LBE2034:
.LBE2038:
	.loc 10 1072 0
	cmpwi 7,31,0
	beq- 7,.L209
	.loc 10 1077 0
	mr 27,31
.LVL311:
	b .L254
.LVL312:
.L209:
	.loc 3 160 0
	lwz 31,8(22)
.LVL313:
.LBE2040:
.LBE1962:
.LBB2041:
.LBB2042:
.LBB2043:
.LBB2044:
	.loc 6 98 0
	mr 3,22
	bl _ZdlPv
.LVL314:
.LBE2044:
.LBE2043:
.LBE2042:
.LBE2041:
.LBE1961:
	.loc 10 1072 0
	cmpwi 7,31,0
	beq- 7,.L207
	.loc 10 1077 0
	mr 22,31
.LVL315:
	b .L253
.LVL316:
.L207:
.LBE2045:
	.loc 10 1079 0
	lwz 0,60(1)
	lwz 21,12(1)
	mtlr 0
	lwz 22,16(1)
	lwz 23,20(1)
	lwz 24,24(1)
	lwz 25,28(1)
	lwz 26,32(1)
	lwz 27,36(1)
	lwz 28,40(1)
	lwz 29,44(1)
	lwz 30,48(1)
.LVL317:
	lwz 31,52(1)
	addi 1,1,56
.LCFI60:
	.cfi_def_cfa_offset 0
	.cfi_restore 31
	.cfi_restore 30
	.cfi_restore 29
	.cfi_restore 28
	.cfi_restore 27
	.cfi_restore 26
	.cfi_restore 25
	.cfi_restore 24
	.cfi_restore 23
	.cfi_restore 22
	.cfi_restore 21
	blr
	.cfi_endproc
.LFE1829:
	.size	_ZNSt8_Rb_treeIPN7sigslot12_signal_baseINS0_15single_threadedEEES4_St9_IdentityIS4_ESt4lessIS4_ESaIS4_EE8_M_eraseEPSt13_Rb_tree_nodeIS4_E, .-_ZNSt8_Rb_treeIPN7sigslot12_signal_baseINS0_15single_threadedEEES4_St9_IdentityIS4_ESt4lessIS4_ESaIS4_EE8_M_eraseEPSt13_Rb_tree_nodeIS4_E
	.section	.text._ZNSt8_Rb_treeIPN7sigslot12_signal_baseINS0_15single_threadedEEES4_St9_IdentityIS4_ESt4lessIS4_ESaIS4_EE5eraseERKS4_,"axG",@progbits,_ZNSt8_Rb_treeIPN7sigslot12_signal_baseINS0_15single_threadedEEES4_St9_IdentityIS4_ESt4lessIS4_ESaIS4_EE5eraseERKS4_,comdat
	.align 2
	.weak	_ZNSt8_Rb_treeIPN7sigslot12_signal_baseINS0_15single_threadedEEES4_St9_IdentityIS4_ESt4lessIS4_ESaIS4_EE5eraseERKS4_
	.type	_ZNSt8_Rb_treeIPN7sigslot12_signal_baseINS0_15single_threadedEEES4_St9_IdentityIS4_ESt4lessIS4_ESaIS4_EE5eraseERKS4_, @function
_ZNSt8_Rb_treeIPN7sigslot12_signal_baseINS0_15single_threadedEEES4_St9_IdentityIS4_ESt4lessIS4_ESaIS4_EE5eraseERKS4_:
.LFB1773:
	.loc 10 1510 0
	.cfi_startproc
.LVL318:
	mflr 0
	stwu 1,-32(1)
.LCFI61:
	.cfi_def_cfa_offset 32
	.cfi_register 65, 0
	stw 28,16(1)
.LBB2046:
.LBB2047:
	.loc 10 1155 0
	addi 28,3,4
	.cfi_offset 28, -16
.LBE2047:
.LBE2046:
	.loc 10 1510 0
	stw 0,36(1)
	stw 26,8(1)
.LBB2103:
.LBB2068:
.LBB2048:
	.loc 10 1155 0
	mr 26,28
	.cfi_offset 26, -24
	.cfi_offset 65, 4
.LBE2048:
	.loc 3 160 0
	lwz 0,8(3)
.LBE2068:
.LBE2103:
	.loc 10 1510 0
	stw 29,20(1)
.LBB2104:
.LBB2069:
.LBB2061:
	.loc 10 1155 0
	mr 29,28
	.cfi_offset 29, -12
	.loc 10 1156 0
	cmpwi 7,0,0
.LBE2061:
.LBE2069:
.LBE2104:
	.loc 10 1510 0
	stw 30,24(1)
	stw 27,12(1)
	mr 30,3
	.cfi_offset 27, -20
	.cfi_offset 30, -8
.LVL319:
	stw 31,28(1)
.LBB2105:
.LBB2070:
.LBB2062:
	.loc 10 1156 0
	beq- 7,.L263
	.cfi_offset 31, -4
	lwz 11,0(4)
	mr 26,0
	b .L274
.LVL320:
.L293:
.LBE2062:
	.loc 3 160 0
	lwz 26,12(26)
.LVL321:
.LBB2063:
	.loc 10 1156 0
	cmpwi 7,26,0
	beq- 7,.L292
.L274:
.LVL322:
.LBE2063:
	.loc 3 160 0
	lwz 9,16(26)
.LBB2064:
.LBB2049:
	.loc 10 1158 0
	cmplw 7,9,11
	blt- 7,.L293
.LVL323:
.LBB2050:
	.loc 10 1160 0
	ble- 7,.L266
.LVL324:
.LBE2050:
.LBE2049:
.LBE2064:
	.loc 3 160 0
	mr 29,26
	.loc 10 1161 0
	lwz 26,8(26)
.LVL325:
.LBB2065:
	.loc 10 1156 0
	cmpwi 7,26,0
	bne+ 7,.L274
.LVL326:
.L292:
	mr 26,29
.LVL327:
.L263:
.LBE2065:
.LBE2070:
.LBB2071:
.LBB2072:
	.loc 3 160 0
	lwz 9,12(30)
.LBE2072:
.LBE2071:
.LBB2099:
.LBB2066:
	lwz 27,20(30)
.LVL328:
.LBE2066:
.LBE2099:
.LBB2100:
.LBB2097:
.LBB2073:
	.loc 10 1500 0
	cmpw 7,9,26
	beq- 7,.L275
.L279:
.LVL329:
	.loc 10 1503 0
	cmpw 7,26,29
	beq- 7,.L294
.LVL330:
.L290:
.LBB2074:
.LBB2075:
	.loc 10 277 0
	mr 3,26
	bl _ZSt18_Rb_tree_incrementPKSt18_Rb_tree_node_base
.LBE2075:
.LBE2074:
.LBB2077:
.LBB2078:
.LBB2079:
	.loc 10 1489 0
	mr 4,28
.LBE2079:
.LBE2078:
.LBE2077:
.LBB2090:
.LBB2076:
	.loc 10 277 0
	mr 31,3
.LVL331:
.LBE2076:
.LBE2090:
.LBB2091:
.LBB2087:
.LBB2084:
	.loc 10 1489 0
	mr 3,26
.LVL332:
	bl _ZSt28_Rb_tree_rebalance_for_erasePSt18_Rb_tree_node_baseRS_
.LBE2084:
.LBE2087:
.LBE2091:
	.loc 10 277 0
	mr 26,31
.LVL333:
.LBB2092:
.LBB2088:
.LBB2085:
.LBB2080:
.LBB2081:
.LBB2082:
.LBB2083:
	.loc 6 98 0
	bl _ZdlPv
.LBE2083:
.LBE2082:
.LBE2081:
.LBE2080:
.LBE2085:
.LBE2088:
.LBE2092:
	.loc 10 1503 0
	cmpw 7,31,29
.LBB2093:
.LBB2089:
.LBB2086:
	.loc 10 1491 0
	lwz 9,20(30)
	addi 0,9,-1
	stw 0,20(30)
.LBE2086:
.LBE2089:
.LBE2093:
	.loc 10 1503 0
	bne+ 7,.L290
	subf 27,0,27
.LVL334:
.L277:
.LBE2073:
.LBE2097:
.LBE2100:
.LBE2105:
	.loc 10 1517 0
	lwz 0,36(1)
	mr 3,27
	lwz 26,8(1)
	mtlr 0
	lwz 27,12(1)
	lwz 28,16(1)
	lwz 29,20(1)
.LVL335:
	lwz 30,24(1)
.LVL336:
	lwz 31,28(1)
	addi 1,1,32
	.cfi_remember_state
.LCFI62:
	.cfi_def_cfa_offset 0
	.cfi_restore 31
	.cfi_restore 30
	.cfi_restore 29
	.cfi_restore 28
	.cfi_restore 27
	.cfi_restore 26
	blr
.LVL337:
.L266:
.LCFI63:
	.cfi_restore_state
.LBB2106:
.LBB2101:
	.loc 3 160 0
	lwz 10,8(26)
.LVL338:
	lwz 9,12(26)
.LVL339:
.L291:
.LBB2067:
.LBB2060:
.LBB2059:
.LBB2051:
.LBB2052:
.LBB2053:
	.loc 10 1089 0
	cmpwi 7,10,0
	beq- 7,.L267
.L295:
.LVL340:
	.loc 10 1090 0
	lwz 8,16(10)
	cmplw 7,8,11
	blt- 7,.L268
.LVL341:
.LBE2053:
	.loc 3 160 0
	mr 26,10
	.loc 10 1091 0
	lwz 10,8(10)
.LVL342:
.LBB2054:
	.loc 10 1089 0
	cmpwi 7,10,0
	bne+ 7,.L295
.LVL343:
.L267:
.LBE2054:
.LBE2052:
.LBB2055:
.LBB2056:
	.loc 10 1121 0
	cmpwi 7,9,0
	beq- 7,.L263
.LVL344:
	.loc 10 1122 0
	lwz 10,16(9)
	cmplw 7,10,11
	ble- 7,.L271
.LVL345:
.L296:
.LBE2056:
	.loc 3 160 0
	mr 29,9
	.loc 10 1123 0
	lwz 9,8(9)
.LVL346:
.LBB2057:
	.loc 10 1121 0
	cmpwi 7,9,0
	beq- 7,.L263
.LVL347:
	.loc 10 1122 0
	lwz 10,16(9)
	cmplw 7,10,11
	bgt- 7,.L296
.LVL348:
.L271:
.LBE2057:
	.loc 3 160 0
	lwz 9,12(9)
.LVL349:
	b .L267
.LVL350:
.L268:
.LBE2055:
.LBB2058:
	lwz 10,12(10)
.LVL351:
	b .L291
.LVL352:
.L275:
.LBE2058:
.LBE2051:
.LBE2059:
.LBE2060:
.LBE2067:
.LBE2101:
.LBB2102:
.LBB2098:
.LBB2096:
	.loc 10 1500 0
	cmpw 7,28,29
	bne+ 7,.L279
.LVL353:
.LBB2094:
.LBB2095:
	.loc 10 809 0
	mr 4,0
.LVL354:
	mr 3,30
.LVL355:
	bl _ZNSt8_Rb_treeIPN7sigslot12_signal_baseINS0_15single_threadedEEES4_St9_IdentityIS4_ESt4lessIS4_ESaIS4_EE8_M_eraseEPSt13_Rb_tree_nodeIS4_E
.LVL356:
	.loc 10 811 0
	li 0,0
	.loc 10 810 0
	stw 28,12(30)
.LVL357:
	.loc 10 811 0
	stw 0,8(30)
.LVL358:
	.loc 10 812 0
	stw 28,16(30)
	.loc 10 813 0
	stw 0,20(30)
	b .L277
.LVL359:
.L294:
.LBE2095:
.LBE2094:
	.loc 10 1503 0
	li 27,0
	b .L277
.LBE2096:
.LBE2098:
.LBE2102:
.LBE2106:
	.cfi_endproc
.LFE1773:
	.size	_ZNSt8_Rb_treeIPN7sigslot12_signal_baseINS0_15single_threadedEEES4_St9_IdentityIS4_ESt4lessIS4_ESaIS4_EE5eraseERKS4_, .-_ZNSt8_Rb_treeIPN7sigslot12_signal_baseINS0_15single_threadedEEES4_St9_IdentityIS4_ESt4lessIS4_ESaIS4_EE5eraseERKS4_
	.section	.text._ZN7sigslot7signal2IP10GuiElementbNS_15single_threadedEED2Ev,"axG",@progbits,_ZN7sigslot7signal2IP10GuiElementbNS_15single_threadedEED5Ev,comdat
	.align 2
	.weak	_ZN7sigslot7signal2IP10GuiElementbNS_15single_threadedEED2Ev
	.type	_ZN7sigslot7signal2IP10GuiElementbNS_15single_threadedEED2Ev, @function
_ZN7sigslot7signal2IP10GuiElementbNS_15single_threadedEED2Ev:
.LFB1581:
	.loc 1 2235 0
	.cfi_startproc
	.cfi_personality 0,__gxx_personality_v0
	.cfi_lsda 0,.LLSDA1581
.LVL360:
	mflr 0
	stwu 1,-40(1)
.LCFI64:
	.cfi_def_cfa_offset 40
	.cfi_register 65, 0
.LBB2204:
.LBB2205:
.LBB2206:
.LBB2207:
	.loc 1 826 0
	lis 9,_ZTVN7sigslot13_signal_base2IP10GuiElementbNS_15single_threadedEEE+8@ha
.LBE2207:
.LBE2206:
.LBE2205:
.LBE2204:
	.loc 1 2235 0
	stw 28,24(1)
	mr 28,3
	.cfi_offset 28, -16
.LVL361:
	stw 0,44(1)
.LBB2305:
.LBB2300:
.LBB2295:
.LBB2290:
	.loc 1 826 0
	la 0,_ZTVN7sigslot13_signal_base2IP10GuiElementbNS_15single_threadedEEE+8@l(9)
	.cfi_offset 65, 4
.LBE2290:
.LBE2295:
.LBE2300:
.LBE2305:
	.loc 1 2235 0
	stw 29,28(1)
	addi 29,3,4
	.cfi_offset 29, -12
	stw 30,32(1)
	stw 31,36(1)
.LBB2306:
.LBB2301:
.LBB2296:
.LBB2291:
	.loc 1 826 0
	stw 0,0(3)
.LVL362:
.LEHB38:
.LBB2208:
.LBB2209:
.LBB2210:
.LBB2211:
	.loc 1 338 0
	.cfi_offset 31, -4
	.cfi_offset 30, -8
	bl _ZN7sigslot15single_threaded4lockEv
.LEHE38:
.LVL363:
.LBE2211:
.LBE2210:
.LBE2209:
	.loc 3 160 0
	mr 29,28
	lwzu 31,4(29)
.LVL364:
.LBB2242:
	.loc 1 834 0
	cmpw 7,31,29
	beq- 7,.L298
.LVL365:
.L336:
	.loc 1 836 0
	lwz 3,8(31)
	lwz 9,0(3)
	lwz 0,8(9)
	mtctr 0
.LEHB39:
	bctrl
.LBB2212:
.LBB2213:
.LBB2214:
.LBB2215:
	.loc 1 338 0
	lwz 9,0(3)
.LBE2215:
.LBE2214:
.LBE2213:
.LBE2212:
	.loc 1 836 0
	mr 30,3
.LVL366:
	stw 28,8(1)
.LVL367:
.LBB2224:
.LBB2223:
.LBB2217:
.LBB2216:
	.loc 1 338 0
	lwz 0,8(9)
	mtctr 0
	bctrl
.LVL368:
.LBE2216:
.LBE2217:
.LBB2218:
.LBB2219:
	.file 11 "d:\\devkitpro\\devkitppc\\bin\\../lib/gcc/powerpc-eabi/4.6.3/../../../../powerpc-eabi/include/c++/4.6.3/bits/stl_set.h"
	.loc 11 528 0
	addi 3,30,4
	addi 4,1,8
	bl _ZNSt8_Rb_treeIPN7sigslot12_signal_baseINS0_15single_threadedEEES4_St9_IdentityIS4_ESt4lessIS4_ESaIS4_EE5eraseERKS4_
.LVL369:
.LBE2219:
.LBE2218:
.LBB2220:
.LBB2221:
.LBB2222:
	.loc 1 343 0
	lwz 9,0(30)
	mr 3,30
	lwz 0,12(9)
	mtctr 0
	bctrl
.LVL370:
.LBE2222:
.LBE2221:
.LBE2220:
.LBE2223:
.LBE2224:
	.loc 1 837 0
	lwz 3,8(31)
	cmpwi 7,3,0
	beq- 7,.L300
	lwz 9,0(3)
	lwz 0,4(9)
	mtctr 0
	bctrl
.LEHE39:
.L300:
.LVL371:
.LBB2225:
.LBB2226:
	.loc 4 234 0
	lwz 31,0(31)
.LVL372:
.LBE2226:
.LBE2225:
	.loc 1 834 0
	cmpw 7,29,31
	bne+ 7,.L336
.LBE2242:
	.loc 3 160 0
	lwz 31,4(28)
.LVL373:
.LBB2243:
.LBB2227:
.LBB2228:
	.loc 4 1162 0
	cmpw 7,29,31
	bne+ 7,.L338
	b .L298
.LVL374:
.L331:
	.loc 4 1163 0
	mr 31,30
.LVL375:
.L338:
.LBB2229:
.LBB2230:
	.file 12 "d:\\devkitpro\\devkitppc\\bin\\../lib/gcc/powerpc-eabi/4.6.3/../../../../powerpc-eabi/include/c++/4.6.3/bits/list.tcc"
	.loc 12 112 0
	lwz 30,0(31)
.LVL376:
.LBB2231:
.LBB2232:
	.loc 4 1532 0
	mr 3,31
	bl _ZNSt8__detail15_List_node_base9_M_unhookEv
.LVL377:
.LBB2233:
.LBB2234:
.LBB2235:
	.loc 6 98 0
	mr 3,31
	bl _ZdlPv
.LVL378:
.LBE2235:
.LBE2234:
.LBE2233:
.LBE2232:
.LBE2231:
.LBE2230:
.LBE2229:
	.loc 4 1162 0
	cmpw 7,29,30
	bne+ 7,.L331
.LVL379:
.L298:
.LBE2228:
.LBE2227:
.LBB2236:
.LBB2237:
.LBB2238:
	.loc 1 343 0
	lwz 9,0(28)
	mr 3,28
	lwz 0,12(9)
	mtctr 0
.LEHB40:
	bctrl
.LEHE40:
.LBE2238:
.LBE2237:
.LBE2236:
.LBE2243:
.LBE2208:
.LBB2245:
.LBB2246:
.LBB2247:
.LBB2248:
.LBB2249:
.LBB2250:
	.loc 12 70 0
	lwz 3,4(28)
.LVL380:
	.loc 12 71 0
	cmpw 7,3,29
	bne+ 7,.L340
	b .L316
.LVL381:
.L332:
	.loc 12 74 0
	mr 3,31
.LVL382:
.L340:
.LBB2251:
	lwz 31,0(3)
.LVL383:
.LBB2252:
.LBB2253:
.LBB2254:
	.loc 6 98 0
	bl _ZdlPv
.LVL384:
.LBE2254:
.LBE2253:
.LBE2252:
.LBE2251:
	.loc 12 71 0
	cmpw 7,31,29
	bne+ 7,.L332
.LVL385:
.L316:
.LBE2250:
.LBE2249:
.LBE2248:
.LBE2247:
.LBE2246:
.LBE2245:
.LBB2255:
.LBB2256:
.LBB2257:
.LBB2258:
.LBB2259:
.LBB2260:
	.loc 1 105 0
	lis 9,_ZTVN7sigslot15single_threadedE+8@ha
.LBE2260:
.LBE2259:
.LBE2258:
.LBE2257:
.LBE2256:
.LBE2255:
.LBE2291:
.LBE2296:
.LBE2301:
.LBE2306:
	.loc 1 2238 0
	lwz 29,28(1)
.LVL386:
.LBB2307:
.LBB2302:
.LBB2297:
.LBB2292:
.LBB2271:
.LBB2269:
.LBB2267:
.LBB2265:
.LBB2263:
.LBB2261:
	.loc 1 105 0
	la 0,_ZTVN7sigslot15single_threadedE+8@l(9)
.LBE2261:
.LBE2263:
.LBE2265:
.LBE2267:
.LBE2269:
.LBE2271:
.LBE2292:
.LBE2297:
.LBE2302:
.LBE2307:
	.loc 1 2238 0
	lwz 30,32(1)
.LBB2308:
.LBB2303:
.LBB2298:
.LBB2293:
.LBB2272:
.LBB2270:
.LBB2268:
.LBB2266:
.LBB2264:
.LBB2262:
	.loc 1 105 0
	stw 0,0(28)
.LBE2262:
.LBE2264:
.LBE2266:
.LBE2268:
.LBE2270:
.LBE2272:
.LBE2293:
.LBE2298:
.LBE2303:
.LBE2308:
	.loc 1 2238 0
	lwz 0,44(1)
	lwz 28,24(1)
.LVL387:
	mtlr 0
	lwz 31,36(1)
	addi 1,1,40
	.cfi_remember_state
.LCFI65:
	.cfi_def_cfa_offset 0
	.cfi_restore 31
	.cfi_restore 30
	.cfi_restore 29
	.cfi_restore 28
	blr
.LVL388:
.L334:
.LCFI66:
	.cfi_restore_state
	mr 31,3
.L308:
.LBB2309:
.LBB2304:
.LBB2299:
.LBB2294:
.LBB2273:
.LBB2274:
.LBB2275:
.LBB2276:
.LBB2277:
.LBB2278:
	.loc 12 70 0
	lwz 3,4(28)
.LVL389:
	.loc 12 71 0
	cmpw 7,3,29
	beq- 7,.L325
.LVL390:
.L341:
.LBB2279:
	.loc 12 74 0
	lwz 30,0(3)
.LVL391:
.LBB2280:
.LBB2281:
.LBB2282:
	.loc 6 98 0
	bl _ZdlPv
.LVL392:
.LBE2282:
.LBE2281:
.LBE2280:
.LBE2279:
	.loc 12 71 0
	cmpw 7,30,29
	beq- 7,.L325
	.loc 12 74 0
	mr 3,30
	b .L341
.LVL393:
.L335:
.LBE2278:
.LBE2277:
.LBE2276:
.LBE2275:
.LBE2274:
.LBE2273:
.LBB2283:
.LBB2244:
.LBB2239:
.LBB2240:
.LBB2241:
	.loc 1 343 0
	lwz 9,0(28)
	mr 31,3
.LVL394:
	mr 3,28
	lwz 0,12(9)
	mtctr 0
	bctrl
	b .L308
.LVL395:
.L325:
.LBE2241:
.LBE2240:
.LBE2239:
.LBE2244:
.LBE2283:
.LBB2284:
.LBB2285:
.LBB2286:
.LBB2287:
.LBB2288:
.LBB2289:
	.loc 1 105 0
	lis 9,_ZTVN7sigslot15single_threadedE+8@ha
	mr 3,31
	la 0,_ZTVN7sigslot15single_threadedE+8@l(9)
	stw 0,0(28)
.LEHB41:
	bl _Unwind_Resume
.LEHE41:
.LBE2289:
.LBE2288:
.LBE2287:
.LBE2286:
.LBE2285:
.LBE2284:
.LBE2294:
.LBE2299:
.LBE2304:
.LBE2309:
	.cfi_endproc
.LFE1581:
	.section	.gcc_except_table
.LLSDA1581:
	.byte	0xff
	.byte	0xff
	.byte	0x1
	.uleb128 .LLSDACSE1581-.LLSDACSB1581
.LLSDACSB1581:
	.uleb128 .LEHB38-.LFB1581
	.uleb128 .LEHE38-.LEHB38
	.uleb128 .L334-.LFB1581
	.uleb128 0
	.uleb128 .LEHB39-.LFB1581
	.uleb128 .LEHE39-.LEHB39
	.uleb128 .L335-.LFB1581
	.uleb128 0
	.uleb128 .LEHB40-.LFB1581
	.uleb128 .LEHE40-.LEHB40
	.uleb128 .L334-.LFB1581
	.uleb128 0
	.uleb128 .LEHB41-.LFB1581
	.uleb128 .LEHE41-.LEHB41
	.uleb128 0
	.uleb128 0
.LLSDACSE1581:
	.section	.text._ZN7sigslot7signal2IP10GuiElementbNS_15single_threadedEED2Ev,"axG",@progbits,_ZN7sigslot7signal2IP10GuiElementbNS_15single_threadedEED5Ev,comdat
	.size	_ZN7sigslot7signal2IP10GuiElementbNS_15single_threadedEED2Ev, .-_ZN7sigslot7signal2IP10GuiElementbNS_15single_threadedEED2Ev
	.section	.text._ZN7sigslot13_signal_base3IP10GuiElementiiNS_15single_threadedEED2Ev,"axG",@progbits,_ZN7sigslot13_signal_base3IP10GuiElementiiNS_15single_threadedEED5Ev,comdat
	.align 2
	.weak	_ZN7sigslot13_signal_base3IP10GuiElementiiNS_15single_threadedEED2Ev
	.type	_ZN7sigslot13_signal_base3IP10GuiElementiiNS_15single_threadedEED2Ev, @function
_ZN7sigslot13_signal_base3IP10GuiElementiiNS_15single_threadedEED2Ev:
.LFB1636:
	.loc 1 943 0
	.cfi_startproc
	.cfi_personality 0,__gxx_personality_v0
	.cfi_lsda 0,.LLSDA1636
.LVL396:
	mflr 0
	stwu 1,-40(1)
.LCFI67:
	.cfi_def_cfa_offset 40
	.cfi_register 65, 0
.LBB2456:
	.loc 1 946 0
	lis 9,_ZTVN7sigslot13_signal_base3IP10GuiElementiiNS_15single_threadedEEE+8@ha
.LBE2456:
	.loc 1 943 0
	stw 28,24(1)
	mr 28,3
	.cfi_offset 28, -16
	stw 0,44(1)
.LBB2539:
	.loc 1 946 0
	la 0,_ZTVN7sigslot13_signal_base3IP10GuiElementiiNS_15single_threadedEEE+8@l(9)
	.cfi_offset 65, 4
.LBE2539:
	.loc 1 943 0
	stw 29,28(1)
	addi 29,3,4
	.cfi_offset 29, -12
	stw 30,32(1)
	stw 31,36(1)
.LBB2540:
	.loc 1 946 0
	stw 0,0(3)
.LVL397:
.LEHB42:
.LBB2457:
.LBB2458:
.LBB2459:
.LBB2460:
	.loc 1 338 0
	.cfi_offset 31, -4
	.cfi_offset 30, -8
	bl _ZN7sigslot15single_threaded4lockEv
.LEHE42:
.LVL398:
.LBE2460:
.LBE2459:
.LBE2458:
	.loc 3 160 0
	mr 29,28
.LVL399:
	lwzu 31,4(29)
.LVL400:
.LBB2491:
	.loc 1 954 0
	cmpw 7,31,29
	beq- 7,.L343
.LVL401:
.L380:
	.loc 1 956 0
	lwz 3,8(31)
	lwz 9,0(3)
	lwz 0,8(9)
	mtctr 0
.LEHB43:
	bctrl
.LBB2461:
.LBB2462:
.LBB2463:
.LBB2464:
	.loc 1 338 0
	lwz 9,0(3)
.LBE2464:
.LBE2463:
.LBE2462:
.LBE2461:
	.loc 1 956 0
	mr 30,3
.LVL402:
	stw 28,8(1)
.LVL403:
.LBB2473:
.LBB2472:
.LBB2466:
.LBB2465:
	.loc 1 338 0
	lwz 0,8(9)
	mtctr 0
	bctrl
.LVL404:
.LBE2465:
.LBE2466:
.LBB2467:
.LBB2468:
	.loc 11 528 0
	addi 3,30,4
	addi 4,1,8
	bl _ZNSt8_Rb_treeIPN7sigslot12_signal_baseINS0_15single_threadedEEES4_St9_IdentityIS4_ESt4lessIS4_ESaIS4_EE5eraseERKS4_
.LVL405:
.LBE2468:
.LBE2467:
.LBB2469:
.LBB2470:
.LBB2471:
	.loc 1 343 0
	lwz 9,0(30)
	mr 3,30
	lwz 0,12(9)
	mtctr 0
	bctrl
.LVL406:
.LBE2471:
.LBE2470:
.LBE2469:
.LBE2472:
.LBE2473:
	.loc 1 957 0
	lwz 3,8(31)
	cmpwi 7,3,0
	beq- 7,.L345
	lwz 9,0(3)
	lwz 0,4(9)
	mtctr 0
	bctrl
.LEHE43:
.L345:
.LVL407:
.LBB2474:
.LBB2475:
	.loc 4 234 0
	lwz 31,0(31)
.LVL408:
.LBE2475:
.LBE2474:
	.loc 1 954 0
	cmpw 7,29,31
	bne+ 7,.L380
.LBE2491:
	.loc 3 160 0
	lwz 31,4(28)
.LVL409:
.LBB2492:
.LBB2476:
.LBB2477:
	.loc 4 1162 0
	cmpw 7,29,31
	bne+ 7,.L382
	b .L343
.LVL410:
.L375:
	.loc 4 1163 0
	mr 31,30
.LVL411:
.L382:
.LBB2478:
.LBB2479:
	.loc 12 112 0
	lwz 30,0(31)
.LVL412:
.LBB2480:
.LBB2481:
	.loc 4 1532 0
	mr 3,31
	bl _ZNSt8__detail15_List_node_base9_M_unhookEv
.LVL413:
.LBB2482:
.LBB2483:
.LBB2484:
	.loc 6 98 0
	mr 3,31
	bl _ZdlPv
.LVL414:
.LBE2484:
.LBE2483:
.LBE2482:
.LBE2481:
.LBE2480:
.LBE2479:
.LBE2478:
	.loc 4 1162 0
	cmpw 7,29,30
	bne+ 7,.L375
.LVL415:
.L343:
.LBE2477:
.LBE2476:
.LBB2485:
.LBB2486:
.LBB2487:
	.loc 1 343 0
	lwz 9,0(28)
	mr 3,28
	lwz 0,12(9)
	mtctr 0
.LEHB44:
	bctrl
.LEHE44:
.LVL416:
.LBE2487:
.LBE2486:
.LBE2485:
.LBE2492:
.LBE2457:
.LBB2494:
.LBB2495:
.LBB2496:
.LBB2497:
.LBB2498:
.LBB2499:
	.loc 12 70 0
	lwz 3,4(28)
.LVL417:
	.loc 12 71 0
	cmpw 7,3,29
	bne+ 7,.L384
	b .L361
.LVL418:
.L376:
	.loc 12 74 0
	mr 3,31
.LVL419:
.L384:
.LBB2500:
	lwz 31,0(3)
.LVL420:
.LBB2501:
.LBB2502:
.LBB2503:
	.loc 6 98 0
	bl _ZdlPv
.LVL421:
.LBE2503:
.LBE2502:
.LBE2501:
.LBE2500:
	.loc 12 71 0
	cmpw 7,31,29
	bne+ 7,.L376
.LVL422:
.L361:
.LBE2499:
.LBE2498:
.LBE2497:
.LBE2496:
.LBE2495:
.LBE2494:
.LBB2504:
.LBB2505:
.LBB2506:
.LBB2507:
.LBB2508:
.LBB2509:
	.loc 1 105 0
	lis 9,_ZTVN7sigslot15single_threadedE+8@ha
.LBE2509:
.LBE2508:
.LBE2507:
.LBE2506:
.LBE2505:
.LBE2504:
.LBE2540:
	.loc 1 946 0
	lwz 29,28(1)
.LVL423:
.LBB2541:
.LBB2520:
.LBB2518:
.LBB2516:
.LBB2514:
.LBB2512:
.LBB2510:
	.loc 1 105 0
	la 0,_ZTVN7sigslot15single_threadedE+8@l(9)
.LBE2510:
.LBE2512:
.LBE2514:
.LBE2516:
.LBE2518:
.LBE2520:
.LBE2541:
	.loc 1 946 0
	lwz 30,32(1)
.LBB2542:
.LBB2521:
.LBB2519:
.LBB2517:
.LBB2515:
.LBB2513:
.LBB2511:
	.loc 1 105 0
	stw 0,0(28)
.LBE2511:
.LBE2513:
.LBE2515:
.LBE2517:
.LBE2519:
.LBE2521:
.LBE2542:
	.loc 1 946 0
	lwz 0,44(1)
	lwz 28,24(1)
.LVL424:
	mtlr 0
	lwz 31,36(1)
	addi 1,1,40
	.cfi_remember_state
.LCFI68:
	.cfi_def_cfa_offset 0
	.cfi_restore 31
	.cfi_restore 30
	.cfi_restore 29
	.cfi_restore 28
	blr
.LVL425:
.L378:
.LCFI69:
	.cfi_restore_state
	mr 31,3
.L353:
.LVL426:
.LBB2543:
.LBB2522:
.LBB2523:
.LBB2524:
.LBB2525:
.LBB2526:
.LBB2527:
	.loc 12 70 0
	lwz 3,4(28)
.LVL427:
	.loc 12 71 0
	cmpw 7,3,29
	beq- 7,.L372
.LVL428:
.L385:
.LBB2528:
	.loc 12 74 0
	lwz 30,0(3)
.LVL429:
.LBB2529:
.LBB2530:
.LBB2531:
	.loc 6 98 0
	bl _ZdlPv
.LVL430:
.LBE2531:
.LBE2530:
.LBE2529:
.LBE2528:
	.loc 12 71 0
	cmpw 7,30,29
	beq- 7,.L372
	.loc 12 74 0
	mr 3,30
	b .L385
.LVL431:
.L379:
.LBE2527:
.LBE2526:
.LBE2525:
.LBE2524:
.LBE2523:
.LBE2522:
.LBB2532:
.LBB2493:
.LBB2488:
.LBB2489:
.LBB2490:
	.loc 1 343 0
	lwz 9,0(28)
	mr 31,3
.LVL432:
	mr 3,28
	lwz 0,12(9)
	mtctr 0
	bctrl
	b .L353
.LVL433:
.L372:
.LBE2490:
.LBE2489:
.LBE2488:
.LBE2493:
.LBE2532:
.LBB2533:
.LBB2534:
.LBB2535:
.LBB2536:
.LBB2537:
.LBB2538:
	.loc 1 105 0
	lis 9,_ZTVN7sigslot15single_threadedE+8@ha
	mr 3,31
	la 0,_ZTVN7sigslot15single_threadedE+8@l(9)
	stw 0,0(28)
.LEHB45:
	bl _Unwind_Resume
.LEHE45:
.LBE2538:
.LBE2537:
.LBE2536:
.LBE2535:
.LBE2534:
.LBE2533:
.LBE2543:
	.cfi_endproc
.LFE1636:
	.section	.gcc_except_table
.LLSDA1636:
	.byte	0xff
	.byte	0xff
	.byte	0x1
	.uleb128 .LLSDACSE1636-.LLSDACSB1636
.LLSDACSB1636:
	.uleb128 .LEHB42-.LFB1636
	.uleb128 .LEHE42-.LEHB42
	.uleb128 .L378-.LFB1636
	.uleb128 0
	.uleb128 .LEHB43-.LFB1636
	.uleb128 .LEHE43-.LEHB43
	.uleb128 .L379-.LFB1636
	.uleb128 0
	.uleb128 .LEHB44-.LFB1636
	.uleb128 .LEHE44-.LEHB44
	.uleb128 .L378-.LFB1636
	.uleb128 0
	.uleb128 .LEHB45-.LFB1636
	.uleb128 .LEHE45-.LEHB45
	.uleb128 0
	.uleb128 0
.LLSDACSE1636:
	.section	.text._ZN7sigslot13_signal_base3IP10GuiElementiiNS_15single_threadedEED2Ev,"axG",@progbits,_ZN7sigslot13_signal_base3IP10GuiElementiiNS_15single_threadedEED5Ev,comdat
	.size	_ZN7sigslot13_signal_base3IP10GuiElementiiNS_15single_threadedEED2Ev, .-_ZN7sigslot13_signal_base3IP10GuiElementiiNS_15single_threadedEED2Ev
	.section	.text._ZN7sigslot7signal3IP10GuiElementiiNS_15single_threadedEED0Ev,"axG",@progbits,_ZN7sigslot7signal3IP10GuiElementiiNS_15single_threadedEED5Ev,comdat
	.align 2
	.weak	_ZN7sigslot7signal3IP10GuiElementiiNS_15single_threadedEED0Ev
	.type	_ZN7sigslot7signal3IP10GuiElementiiNS_15single_threadedEED0Ev, @function
_ZN7sigslot7signal3IP10GuiElementiiNS_15single_threadedEED0Ev:
.LFB1587:
	.loc 1 2302 0
	.cfi_startproc
	.cfi_personality 0,__gxx_personality_v0
	.cfi_lsda 0,.LLSDA1587
.LVL434:
	mflr 0
	stwu 1,-40(1)
.LCFI70:
	.cfi_def_cfa_offset 40
	.cfi_register 65, 0
.LBB2642:
.LBB2643:
.LBB2644:
.LBB2645:
.LBB2646:
.LBB2647:
	.loc 1 946 0
	lis 9,_ZTVN7sigslot13_signal_base3IP10GuiElementiiNS_15single_threadedEEE+8@ha
.LBE2647:
.LBE2646:
.LBE2645:
.LBE2644:
.LBE2643:
.LBE2642:
	.loc 1 2302 0
	stw 28,24(1)
	mr 28,3
	.cfi_offset 28, -16
.LVL435:
	stw 0,44(1)
.LBB2744:
.LBB2740:
.LBB2736:
.LBB2732:
.LBB2728:
.LBB2724:
	.loc 1 946 0
	la 0,_ZTVN7sigslot13_signal_base3IP10GuiElementiiNS_15single_threadedEEE+8@l(9)
	.cfi_offset 65, 4
.LBE2724:
.LBE2728:
.LBE2732:
.LBE2736:
.LBE2740:
.LBE2744:
	.loc 1 2302 0
	stw 29,28(1)
	addi 29,3,4
	.cfi_offset 29, -12
	stw 30,32(1)
	stw 31,36(1)
.LBB2745:
.LBB2741:
.LBB2737:
.LBB2733:
.LBB2729:
.LBB2725:
	.loc 1 946 0
	stw 0,0(3)
.LVL436:
.LEHB46:
.LBB2648:
.LBB2649:
.LBB2650:
.LBB2651:
	.loc 1 338 0
	.cfi_offset 31, -4
	.cfi_offset 30, -8
	bl _ZN7sigslot15single_threaded4lockEv
.LEHE46:
.LVL437:
.LBE2651:
.LBE2650:
.LBE2649:
	.loc 3 160 0
	mr 29,28
.LVL438:
	lwzu 31,4(29)
.LVL439:
.LBB2682:
	.loc 1 954 0
	cmpw 7,31,29
	beq- 7,.L387
.LVL440:
.L426:
	.loc 1 956 0
	lwz 3,8(31)
	lwz 9,0(3)
	lwz 0,8(9)
	mtctr 0
.LEHB47:
	bctrl
.LBB2652:
.LBB2653:
.LBB2654:
.LBB2655:
	.loc 1 338 0
	lwz 9,0(3)
.LBE2655:
.LBE2654:
.LBE2653:
.LBE2652:
	.loc 1 956 0
	mr 30,3
.LVL441:
	stw 28,8(1)
.LVL442:
.LBB2664:
.LBB2663:
.LBB2657:
.LBB2656:
	.loc 1 338 0
	lwz 0,8(9)
	mtctr 0
	bctrl
.LVL443:
.LBE2656:
.LBE2657:
.LBB2658:
.LBB2659:
	.loc 11 528 0
	addi 3,30,4
	addi 4,1,8
	bl _ZNSt8_Rb_treeIPN7sigslot12_signal_baseINS0_15single_threadedEEES4_St9_IdentityIS4_ESt4lessIS4_ESaIS4_EE5eraseERKS4_
.LVL444:
.LBE2659:
.LBE2658:
.LBB2660:
.LBB2661:
.LBB2662:
	.loc 1 343 0
	lwz 9,0(30)
	mr 3,30
	lwz 0,12(9)
	mtctr 0
	bctrl
.LVL445:
.LBE2662:
.LBE2661:
.LBE2660:
.LBE2663:
.LBE2664:
	.loc 1 957 0
	lwz 3,8(31)
	cmpwi 7,3,0
	beq- 7,.L389
	lwz 9,0(3)
	lwz 0,4(9)
	mtctr 0
	bctrl
.LEHE47:
.L389:
.LVL446:
.LBB2665:
.LBB2666:
	.loc 4 234 0
	lwz 31,0(31)
.LVL447:
.LBE2666:
.LBE2665:
	.loc 1 954 0
	cmpw 7,29,31
	bne+ 7,.L426
.LBE2682:
	.loc 3 160 0
	lwz 31,4(28)
.LVL448:
.LBB2683:
.LBB2667:
.LBB2668:
	.loc 4 1162 0
	cmpw 7,29,31
	bne+ 7,.L428
	b .L387
.LVL449:
.L421:
	.loc 4 1163 0
	mr 31,30
.LVL450:
.L428:
.LBB2669:
.LBB2670:
	.loc 12 112 0
	lwz 30,0(31)
.LVL451:
.LBB2671:
.LBB2672:
	.loc 4 1532 0
	mr 3,31
	bl _ZNSt8__detail15_List_node_base9_M_unhookEv
.LVL452:
.LBB2673:
.LBB2674:
.LBB2675:
	.loc 6 98 0
	mr 3,31
	bl _ZdlPv
.LVL453:
.LBE2675:
.LBE2674:
.LBE2673:
.LBE2672:
.LBE2671:
.LBE2670:
.LBE2669:
	.loc 4 1162 0
	cmpw 7,29,30
	bne+ 7,.L421
.LVL454:
.L387:
.LBE2668:
.LBE2667:
.LBB2676:
.LBB2677:
.LBB2678:
	.loc 1 343 0
	lwz 9,0(28)
	mr 3,28
	lwz 0,12(9)
	mtctr 0
.LEHB48:
	bctrl
.LEHE48:
.LBE2678:
.LBE2677:
.LBE2676:
.LBE2683:
.LBE2648:
.LBB2685:
.LBB2686:
.LBB2687:
.LBB2688:
.LBB2689:
.LBB2690:
	.loc 12 70 0
	lwz 3,4(28)
.LVL455:
	.loc 12 71 0
	cmpw 7,3,29
	bne+ 7,.L430
	b .L405
.LVL456:
.L422:
	.loc 12 74 0
	mr 3,31
.LVL457:
.L430:
.LBB2691:
	lwz 31,0(3)
.LVL458:
.LBB2692:
.LBB2693:
.LBB2694:
	.loc 6 98 0
	bl _ZdlPv
.LVL459:
.LBE2694:
.LBE2693:
.LBE2692:
.LBE2691:
	.loc 12 71 0
	cmpw 7,31,29
	bne+ 7,.L422
.LVL460:
.L405:
.LBE2690:
.LBE2689:
.LBE2688:
.LBE2687:
.LBE2686:
.LBE2685:
.LBB2695:
.LBB2696:
.LBB2697:
.LBB2698:
.LBB2699:
.LBB2700:
	.loc 1 105 0
	lis 9,_ZTVN7sigslot15single_threadedE+8@ha
.LBE2700:
.LBE2699:
.LBE2698:
.LBE2697:
.LBE2696:
.LBE2695:
.LBE2725:
.LBE2729:
.LBE2733:
.LBE2737:
.LBE2741:
.LBE2745:
	.loc 1 2305 0
	mr 3,28
.LBB2746:
.LBB2742:
.LBB2738:
.LBB2734:
.LBB2730:
.LBB2726:
.LBB2706:
.LBB2705:
.LBB2704:
.LBB2703:
.LBB2702:
.LBB2701:
	.loc 1 105 0
	la 0,_ZTVN7sigslot15single_threadedE+8@l(9)
	stw 0,0(28)
.LBE2701:
.LBE2702:
.LBE2703:
.LBE2704:
.LBE2705:
.LBE2706:
.LBE2726:
.LBE2730:
.LBE2734:
.LBE2738:
.LBE2742:
.LBE2746:
	.loc 1 2305 0
	bl _ZdlPv
	lwz 0,44(1)
	lwz 28,24(1)
.LVL461:
	mtlr 0
	lwz 29,28(1)
.LVL462:
	lwz 30,32(1)
	lwz 31,36(1)
	addi 1,1,40
	.cfi_remember_state
.LCFI71:
	.cfi_def_cfa_offset 0
	.cfi_restore 31
	.cfi_restore 30
	.cfi_restore 29
	.cfi_restore 28
	blr
.LVL463:
.L424:
.LCFI72:
	.cfi_restore_state
	mr 31,3
.L397:
.LBB2747:
.LBB2743:
.LBB2739:
.LBB2735:
.LBB2731:
.LBB2727:
.LBB2707:
.LBB2708:
.LBB2709:
.LBB2710:
.LBB2711:
.LBB2712:
	.loc 12 70 0
	lwz 3,4(28)
.LVL464:
	.loc 12 71 0
	cmpw 7,3,29
	beq- 7,.L414
.LVL465:
.L431:
.LBB2713:
	.loc 12 74 0
	lwz 30,0(3)
.LVL466:
.LBB2714:
.LBB2715:
.LBB2716:
	.loc 6 98 0
	bl _ZdlPv
.LVL467:
.LBE2716:
.LBE2715:
.LBE2714:
.LBE2713:
	.loc 12 71 0
	cmpw 7,30,29
	beq- 7,.L414
	.loc 12 74 0
	mr 3,30
	b .L431
.LVL468:
.L425:
.LBE2712:
.LBE2711:
.LBE2710:
.LBE2709:
.LBE2708:
.LBE2707:
.LBB2717:
.LBB2684:
.LBB2679:
.LBB2680:
.LBB2681:
	.loc 1 343 0
	lwz 9,0(28)
	mr 31,3
.LVL469:
	mr 3,28
	lwz 0,12(9)
	mtctr 0
	bctrl
	b .L397
.LVL470:
.L414:
.LBE2681:
.LBE2680:
.LBE2679:
.LBE2684:
.LBE2717:
.LBB2718:
.LBB2719:
.LBB2720:
.LBB2721:
.LBB2722:
.LBB2723:
	.loc 1 105 0
	lis 9,_ZTVN7sigslot15single_threadedE+8@ha
	mr 3,31
	la 0,_ZTVN7sigslot15single_threadedE+8@l(9)
	stw 0,0(28)
.LEHB49:
	bl _Unwind_Resume
.LEHE49:
.LBE2723:
.LBE2722:
.LBE2721:
.LBE2720:
.LBE2719:
.LBE2718:
.LBE2727:
.LBE2731:
.LBE2735:
.LBE2739:
.LBE2743:
.LBE2747:
	.cfi_endproc
.LFE1587:
	.section	.gcc_except_table
.LLSDA1587:
	.byte	0xff
	.byte	0xff
	.byte	0x1
	.uleb128 .LLSDACSE1587-.LLSDACSB1587
.LLSDACSB1587:
	.uleb128 .LEHB46-.LFB1587
	.uleb128 .LEHE46-.LEHB46
	.uleb128 .L424-.LFB1587
	.uleb128 0
	.uleb128 .LEHB47-.LFB1587
	.uleb128 .LEHE47-.LEHB47
	.uleb128 .L425-.LFB1587
	.uleb128 0
	.uleb128 .LEHB48-.LFB1587
	.uleb128 .LEHE48-.LEHB48
	.uleb128 .L424-.LFB1587
	.uleb128 0
	.uleb128 .LEHB49-.LFB1587
	.uleb128 .LEHE49-.LEHB49
	.uleb128 0
	.uleb128 0
.LLSDACSE1587:
	.section	.text._ZN7sigslot7signal3IP10GuiElementiiNS_15single_threadedEED0Ev,"axG",@progbits,_ZN7sigslot7signal3IP10GuiElementiiNS_15single_threadedEED5Ev,comdat
	.size	_ZN7sigslot7signal3IP10GuiElementiiNS_15single_threadedEED0Ev, .-_ZN7sigslot7signal3IP10GuiElementiiNS_15single_threadedEED0Ev
	.section	.text._ZN7sigslot13_signal_base3IP10GuiElementiiNS_15single_threadedEED0Ev,"axG",@progbits,_ZN7sigslot13_signal_base3IP10GuiElementiiNS_15single_threadedEED5Ev,comdat
	.align 2
	.weak	_ZN7sigslot13_signal_base3IP10GuiElementiiNS_15single_threadedEED0Ev
	.type	_ZN7sigslot13_signal_base3IP10GuiElementiiNS_15single_threadedEED0Ev, @function
_ZN7sigslot13_signal_base3IP10GuiElementiiNS_15single_threadedEED0Ev:
.LFB1638:
	.loc 1 943 0
	.cfi_startproc
	.cfi_personality 0,__gxx_personality_v0
	.cfi_lsda 0,.LLSDA1638
.LVL471:
	mflr 0
	stwu 1,-40(1)
.LCFI73:
	.cfi_def_cfa_offset 40
	.cfi_register 65, 0
.LBB2843:
.LBB2844:
.LBB2845:
	.loc 1 946 0
	lis 9,_ZTVN7sigslot13_signal_base3IP10GuiElementiiNS_15single_threadedEEE+8@ha
.LBE2845:
.LBE2844:
.LBE2843:
	.loc 1 943 0
	stw 28,24(1)
	mr 28,3
	.cfi_offset 28, -16
.LVL472:
	stw 0,44(1)
.LBB2930:
.LBB2926:
.LBB2922:
	.loc 1 946 0
	la 0,_ZTVN7sigslot13_signal_base3IP10GuiElementiiNS_15single_threadedEEE+8@l(9)
	.cfi_offset 65, 4
.LBE2922:
.LBE2926:
.LBE2930:
	.loc 1 943 0
	stw 29,28(1)
	addi 29,3,4
	.cfi_offset 29, -12
	stw 30,32(1)
	stw 31,36(1)
.LBB2931:
.LBB2927:
.LBB2923:
	.loc 1 946 0
	stw 0,0(3)
.LVL473:
.LEHB50:
.LBB2846:
.LBB2847:
.LBB2848:
.LBB2849:
	.loc 1 338 0
	.cfi_offset 31, -4
	.cfi_offset 30, -8
	bl _ZN7sigslot15single_threaded4lockEv
.LEHE50:
.LVL474:
.LBE2849:
.LBE2848:
.LBE2847:
	.loc 3 160 0
	mr 29,28
.LVL475:
	lwzu 31,4(29)
.LVL476:
.LBB2880:
	.loc 1 954 0
	cmpw 7,31,29
	beq- 7,.L433
.LVL477:
.L471:
	.loc 1 956 0
	lwz 3,8(31)
	lwz 9,0(3)
	lwz 0,8(9)
	mtctr 0
.LEHB51:
	bctrl
.LBB2850:
.LBB2851:
.LBB2852:
.LBB2853:
	.loc 1 338 0
	lwz 9,0(3)
.LBE2853:
.LBE2852:
.LBE2851:
.LBE2850:
	.loc 1 956 0
	mr 30,3
.LVL478:
	stw 28,8(1)
.LVL479:
.LBB2862:
.LBB2861:
.LBB2855:
.LBB2854:
	.loc 1 338 0
	lwz 0,8(9)
	mtctr 0
	bctrl
.LVL480:
.LBE2854:
.LBE2855:
.LBB2856:
.LBB2857:
	.loc 11 528 0
	addi 3,30,4
	addi 4,1,8
	bl _ZNSt8_Rb_treeIPN7sigslot12_signal_baseINS0_15single_threadedEEES4_St9_IdentityIS4_ESt4lessIS4_ESaIS4_EE5eraseERKS4_
.LVL481:
.LBE2857:
.LBE2856:
.LBB2858:
.LBB2859:
.LBB2860:
	.loc 1 343 0
	lwz 9,0(30)
	mr 3,30
	lwz 0,12(9)
	mtctr 0
	bctrl
.LVL482:
.LBE2860:
.LBE2859:
.LBE2858:
.LBE2861:
.LBE2862:
	.loc 1 957 0
	lwz 3,8(31)
	cmpwi 7,3,0
	beq- 7,.L435
	lwz 9,0(3)
	lwz 0,4(9)
	mtctr 0
	bctrl
.LEHE51:
.L435:
.LVL483:
.LBB2863:
.LBB2864:
	.loc 4 234 0
	lwz 31,0(31)
.LVL484:
.LBE2864:
.LBE2863:
	.loc 1 954 0
	cmpw 7,29,31
	bne+ 7,.L471
.LBE2880:
	.loc 3 160 0
	lwz 31,4(28)
.LVL485:
.LBB2881:
.LBB2865:
.LBB2866:
	.loc 4 1162 0
	cmpw 7,29,31
	bne+ 7,.L473
	b .L433
.LVL486:
.L466:
	.loc 4 1163 0
	mr 31,30
.LVL487:
.L473:
.LBB2867:
.LBB2868:
	.loc 12 112 0
	lwz 30,0(31)
.LVL488:
.LBB2869:
.LBB2870:
	.loc 4 1532 0
	mr 3,31
	bl _ZNSt8__detail15_List_node_base9_M_unhookEv
.LVL489:
.LBB2871:
.LBB2872:
.LBB2873:
	.loc 6 98 0
	mr 3,31
	bl _ZdlPv
.LVL490:
.LBE2873:
.LBE2872:
.LBE2871:
.LBE2870:
.LBE2869:
.LBE2868:
.LBE2867:
	.loc 4 1162 0
	cmpw 7,29,30
	bne+ 7,.L466
.LVL491:
.L433:
.LBE2866:
.LBE2865:
.LBB2874:
.LBB2875:
.LBB2876:
	.loc 1 343 0
	lwz 9,0(28)
	mr 3,28
	lwz 0,12(9)
	mtctr 0
.LEHB52:
	bctrl
.LEHE52:
.LVL492:
.LBE2876:
.LBE2875:
.LBE2874:
.LBE2881:
.LBE2846:
.LBB2883:
.LBB2884:
.LBB2885:
.LBB2886:
.LBB2887:
.LBB2888:
	.loc 12 70 0
	lwz 3,4(28)
.LVL493:
	.loc 12 71 0
	cmpw 7,3,29
	bne+ 7,.L475
	b .L451
.LVL494:
.L467:
	.loc 12 74 0
	mr 3,31
.LVL495:
.L475:
.LBB2889:
	lwz 31,0(3)
.LVL496:
.LBB2890:
.LBB2891:
.LBB2892:
	.loc 6 98 0
	bl _ZdlPv
.LVL497:
.LBE2892:
.LBE2891:
.LBE2890:
.LBE2889:
	.loc 12 71 0
	cmpw 7,31,29
	bne+ 7,.L467
.LVL498:
.L451:
.LBE2888:
.LBE2887:
.LBE2886:
.LBE2885:
.LBE2884:
.LBE2883:
.LBB2893:
.LBB2894:
.LBB2895:
.LBB2896:
.LBB2897:
.LBB2898:
	.loc 1 105 0
	lis 9,_ZTVN7sigslot15single_threadedE+8@ha
.LBE2898:
.LBE2897:
.LBE2896:
.LBE2895:
.LBE2894:
.LBE2893:
.LBE2923:
.LBE2927:
.LBE2931:
	.loc 1 946 0
	mr 3,28
.LBB2932:
.LBB2928:
.LBB2924:
.LBB2904:
.LBB2903:
.LBB2902:
.LBB2901:
.LBB2900:
.LBB2899:
	.loc 1 105 0
	la 0,_ZTVN7sigslot15single_threadedE+8@l(9)
	stw 0,0(28)
.LBE2899:
.LBE2900:
.LBE2901:
.LBE2902:
.LBE2903:
.LBE2904:
.LBE2924:
.LBE2928:
.LBE2932:
	.loc 1 946 0
	bl _ZdlPv
	lwz 0,44(1)
	lwz 28,24(1)
.LVL499:
	mtlr 0
	lwz 29,28(1)
.LVL500:
	lwz 30,32(1)
	lwz 31,36(1)
	addi 1,1,40
	.cfi_remember_state
.LCFI74:
	.cfi_def_cfa_offset 0
	.cfi_restore 31
	.cfi_restore 30
	.cfi_restore 29
	.cfi_restore 28
	blr
.LVL501:
.L469:
.LCFI75:
	.cfi_restore_state
	mr 31,3
.L443:
.LVL502:
.LBB2933:
.LBB2929:
.LBB2925:
.LBB2905:
.LBB2906:
.LBB2907:
.LBB2908:
.LBB2909:
.LBB2910:
	.loc 12 70 0
	lwz 3,4(28)
.LVL503:
	.loc 12 71 0
	cmpw 7,3,29
	beq- 7,.L460
.LVL504:
.L476:
.LBB2911:
	.loc 12 74 0
	lwz 30,0(3)
.LVL505:
.LBB2912:
.LBB2913:
.LBB2914:
	.loc 6 98 0
	bl _ZdlPv
.LVL506:
.LBE2914:
.LBE2913:
.LBE2912:
.LBE2911:
	.loc 12 71 0
	cmpw 7,30,29
	beq- 7,.L460
	.loc 12 74 0
	mr 3,30
	b .L476
.LVL507:
.L470:
.LBE2910:
.LBE2909:
.LBE2908:
.LBE2907:
.LBE2906:
.LBE2905:
.LBB2915:
.LBB2882:
.LBB2877:
.LBB2878:
.LBB2879:
	.loc 1 343 0
	lwz 9,0(28)
	mr 31,3
.LVL508:
	mr 3,28
	lwz 0,12(9)
	mtctr 0
	bctrl
	b .L443
.LVL509:
.L460:
.LBE2879:
.LBE2878:
.LBE2877:
.LBE2882:
.LBE2915:
.LBB2916:
.LBB2917:
.LBB2918:
.LBB2919:
.LBB2920:
.LBB2921:
	.loc 1 105 0
	lis 9,_ZTVN7sigslot15single_threadedE+8@ha
	mr 3,31
	la 0,_ZTVN7sigslot15single_threadedE+8@l(9)
	stw 0,0(28)
.LEHB53:
	bl _Unwind_Resume
.LEHE53:
.LBE2921:
.LBE2920:
.LBE2919:
.LBE2918:
.LBE2917:
.LBE2916:
.LBE2925:
.LBE2929:
.LBE2933:
	.cfi_endproc
.LFE1638:
	.section	.gcc_except_table
.LLSDA1638:
	.byte	0xff
	.byte	0xff
	.byte	0x1
	.uleb128 .LLSDACSE1638-.LLSDACSB1638
.LLSDACSB1638:
	.uleb128 .LEHB50-.LFB1638
	.uleb128 .LEHE50-.LEHB50
	.uleb128 .L469-.LFB1638
	.uleb128 0
	.uleb128 .LEHB51-.LFB1638
	.uleb128 .LEHE51-.LEHB51
	.uleb128 .L470-.LFB1638
	.uleb128 0
	.uleb128 .LEHB52-.LFB1638
	.uleb128 .LEHE52-.LEHB52
	.uleb128 .L469-.LFB1638
	.uleb128 0
	.uleb128 .LEHB53-.LFB1638
	.uleb128 .LEHE53-.LEHB53
	.uleb128 0
	.uleb128 0
.LLSDACSE1638:
	.section	.text._ZN7sigslot13_signal_base3IP10GuiElementiiNS_15single_threadedEED0Ev,"axG",@progbits,_ZN7sigslot13_signal_base3IP10GuiElementiiNS_15single_threadedEED5Ev,comdat
	.size	_ZN7sigslot13_signal_base3IP10GuiElementiiNS_15single_threadedEED0Ev, .-_ZN7sigslot13_signal_base3IP10GuiElementiiNS_15single_threadedEED0Ev
	.section	.text._ZN7sigslot7signal3IP10GuiElementiiNS_15single_threadedEED2Ev,"axG",@progbits,_ZN7sigslot7signal3IP10GuiElementiiNS_15single_threadedEED5Ev,comdat
	.align 2
	.weak	_ZN7sigslot7signal3IP10GuiElementiiNS_15single_threadedEED2Ev
	.type	_ZN7sigslot7signal3IP10GuiElementiiNS_15single_threadedEED2Ev, @function
_ZN7sigslot7signal3IP10GuiElementiiNS_15single_threadedEED2Ev:
.LFB1585:
	.loc 1 2302 0
	.cfi_startproc
	.cfi_personality 0,__gxx_personality_v0
	.cfi_lsda 0,.LLSDA1585
.LVL510:
	mflr 0
	stwu 1,-40(1)
.LCFI76:
	.cfi_def_cfa_offset 40
	.cfi_register 65, 0
.LBB3031:
.LBB3032:
.LBB3033:
.LBB3034:
	.loc 1 946 0
	lis 9,_ZTVN7sigslot13_signal_base3IP10GuiElementiiNS_15single_threadedEEE+8@ha
.LBE3034:
.LBE3033:
.LBE3032:
.LBE3031:
	.loc 1 2302 0
	stw 28,24(1)
	mr 28,3
	.cfi_offset 28, -16
.LVL511:
	stw 0,44(1)
.LBB3132:
.LBB3127:
.LBB3122:
.LBB3117:
	.loc 1 946 0
	la 0,_ZTVN7sigslot13_signal_base3IP10GuiElementiiNS_15single_threadedEEE+8@l(9)
	.cfi_offset 65, 4
.LBE3117:
.LBE3122:
.LBE3127:
.LBE3132:
	.loc 1 2302 0
	stw 29,28(1)
	addi 29,3,4
	.cfi_offset 29, -12
	stw 30,32(1)
	stw 31,36(1)
.LBB3133:
.LBB3128:
.LBB3123:
.LBB3118:
	.loc 1 946 0
	stw 0,0(3)
.LVL512:
.LEHB54:
.LBB3035:
.LBB3036:
.LBB3037:
.LBB3038:
	.loc 1 338 0
	.cfi_offset 31, -4
	.cfi_offset 30, -8
	bl _ZN7sigslot15single_threaded4lockEv
.LEHE54:
.LVL513:
.LBE3038:
.LBE3037:
.LBE3036:
	.loc 3 160 0
	mr 29,28
	lwzu 31,4(29)
.LVL514:
.LBB3069:
	.loc 1 954 0
	cmpw 7,31,29
	beq- 7,.L478
.LVL515:
.L516:
	.loc 1 956 0
	lwz 3,8(31)
	lwz 9,0(3)
	lwz 0,8(9)
	mtctr 0
.LEHB55:
	bctrl
.LBB3039:
.LBB3040:
.LBB3041:
.LBB3042:
	.loc 1 338 0
	lwz 9,0(3)
.LBE3042:
.LBE3041:
.LBE3040:
.LBE3039:
	.loc 1 956 0
	mr 30,3
.LVL516:
	stw 28,8(1)
.LVL517:
.LBB3051:
.LBB3050:
.LBB3044:
.LBB3043:
	.loc 1 338 0
	lwz 0,8(9)
	mtctr 0
	bctrl
.LVL518:
.LBE3043:
.LBE3044:
.LBB3045:
.LBB3046:
	.loc 11 528 0
	addi 3,30,4
	addi 4,1,8
	bl _ZNSt8_Rb_treeIPN7sigslot12_signal_baseINS0_15single_threadedEEES4_St9_IdentityIS4_ESt4lessIS4_ESaIS4_EE5eraseERKS4_
.LVL519:
.LBE3046:
.LBE3045:
.LBB3047:
.LBB3048:
.LBB3049:
	.loc 1 343 0
	lwz 9,0(30)
	mr 3,30
	lwz 0,12(9)
	mtctr 0
	bctrl
.LVL520:
.LBE3049:
.LBE3048:
.LBE3047:
.LBE3050:
.LBE3051:
	.loc 1 957 0
	lwz 3,8(31)
	cmpwi 7,3,0
	beq- 7,.L480
	lwz 9,0(3)
	lwz 0,4(9)
	mtctr 0
	bctrl
.LEHE55:
.L480:
.LVL521:
.LBB3052:
.LBB3053:
	.loc 4 234 0
	lwz 31,0(31)
.LVL522:
.LBE3053:
.LBE3052:
	.loc 1 954 0
	cmpw 7,29,31
	bne+ 7,.L516
.LBE3069:
	.loc 3 160 0
	lwz 31,4(28)
.LVL523:
.LBB3070:
.LBB3054:
.LBB3055:
	.loc 4 1162 0
	cmpw 7,29,31
	bne+ 7,.L518
	b .L478
.LVL524:
.L511:
	.loc 4 1163 0
	mr 31,30
.LVL525:
.L518:
.LBB3056:
.LBB3057:
	.loc 12 112 0
	lwz 30,0(31)
.LVL526:
.LBB3058:
.LBB3059:
	.loc 4 1532 0
	mr 3,31
	bl _ZNSt8__detail15_List_node_base9_M_unhookEv
.LVL527:
.LBB3060:
.LBB3061:
.LBB3062:
	.loc 6 98 0
	mr 3,31
	bl _ZdlPv
.LVL528:
.LBE3062:
.LBE3061:
.LBE3060:
.LBE3059:
.LBE3058:
.LBE3057:
.LBE3056:
	.loc 4 1162 0
	cmpw 7,29,30
	bne+ 7,.L511
.LVL529:
.L478:
.LBE3055:
.LBE3054:
.LBB3063:
.LBB3064:
.LBB3065:
	.loc 1 343 0
	lwz 9,0(28)
	mr 3,28
	lwz 0,12(9)
	mtctr 0
.LEHB56:
	bctrl
.LEHE56:
.LBE3065:
.LBE3064:
.LBE3063:
.LBE3070:
.LBE3035:
.LBB3072:
.LBB3073:
.LBB3074:
.LBB3075:
.LBB3076:
.LBB3077:
	.loc 12 70 0
	lwz 3,4(28)
.LVL530:
	.loc 12 71 0
	cmpw 7,3,29
	bne+ 7,.L520
	b .L496
.LVL531:
.L512:
	.loc 12 74 0
	mr 3,31
.LVL532:
.L520:
.LBB3078:
	lwz 31,0(3)
.LVL533:
.LBB3079:
.LBB3080:
.LBB3081:
	.loc 6 98 0
	bl _ZdlPv
.LVL534:
.LBE3081:
.LBE3080:
.LBE3079:
.LBE3078:
	.loc 12 71 0
	cmpw 7,31,29
	bne+ 7,.L512
.LVL535:
.L496:
.LBE3077:
.LBE3076:
.LBE3075:
.LBE3074:
.LBE3073:
.LBE3072:
.LBB3082:
.LBB3083:
.LBB3084:
.LBB3085:
.LBB3086:
.LBB3087:
	.loc 1 105 0
	lis 9,_ZTVN7sigslot15single_threadedE+8@ha
.LBE3087:
.LBE3086:
.LBE3085:
.LBE3084:
.LBE3083:
.LBE3082:
.LBE3118:
.LBE3123:
.LBE3128:
.LBE3133:
	.loc 1 2305 0
	lwz 29,28(1)
.LVL536:
.LBB3134:
.LBB3129:
.LBB3124:
.LBB3119:
.LBB3098:
.LBB3096:
.LBB3094:
.LBB3092:
.LBB3090:
.LBB3088:
	.loc 1 105 0
	la 0,_ZTVN7sigslot15single_threadedE+8@l(9)
.LBE3088:
.LBE3090:
.LBE3092:
.LBE3094:
.LBE3096:
.LBE3098:
.LBE3119:
.LBE3124:
.LBE3129:
.LBE3134:
	.loc 1 2305 0
	lwz 30,32(1)
.LBB3135:
.LBB3130:
.LBB3125:
.LBB3120:
.LBB3099:
.LBB3097:
.LBB3095:
.LBB3093:
.LBB3091:
.LBB3089:
	.loc 1 105 0
	stw 0,0(28)
.LBE3089:
.LBE3091:
.LBE3093:
.LBE3095:
.LBE3097:
.LBE3099:
.LBE3120:
.LBE3125:
.LBE3130:
.LBE3135:
	.loc 1 2305 0
	lwz 0,44(1)
	lwz 28,24(1)
.LVL537:
	mtlr 0
	lwz 31,36(1)
	addi 1,1,40
	.cfi_remember_state
.LCFI77:
	.cfi_def_cfa_offset 0
	.cfi_restore 31
	.cfi_restore 30
	.cfi_restore 29
	.cfi_restore 28
	blr
.LVL538:
.L514:
.LCFI78:
	.cfi_restore_state
	mr 31,3
.L488:
.LBB3136:
.LBB3131:
.LBB3126:
.LBB3121:
.LBB3100:
.LBB3101:
.LBB3102:
.LBB3103:
.LBB3104:
.LBB3105:
	.loc 12 70 0
	lwz 3,4(28)
.LVL539:
	.loc 12 71 0
	cmpw 7,3,29
	beq- 7,.L505
.LVL540:
.L521:
.LBB3106:
	.loc 12 74 0
	lwz 30,0(3)
.LVL541:
.LBB3107:
.LBB3108:
.LBB3109:
	.loc 6 98 0
	bl _ZdlPv
.LVL542:
.LBE3109:
.LBE3108:
.LBE3107:
.LBE3106:
	.loc 12 71 0
	cmpw 7,30,29
	beq- 7,.L505
	.loc 12 74 0
	mr 3,30
	b .L521
.LVL543:
.L515:
.LBE3105:
.LBE3104:
.LBE3103:
.LBE3102:
.LBE3101:
.LBE3100:
.LBB3110:
.LBB3071:
.LBB3066:
.LBB3067:
.LBB3068:
	.loc 1 343 0
	lwz 9,0(28)
	mr 31,3
.LVL544:
	mr 3,28
	lwz 0,12(9)
	mtctr 0
	bctrl
	b .L488
.LVL545:
.L505:
.LBE3068:
.LBE3067:
.LBE3066:
.LBE3071:
.LBE3110:
.LBB3111:
.LBB3112:
.LBB3113:
.LBB3114:
.LBB3115:
.LBB3116:
	.loc 1 105 0
	lis 9,_ZTVN7sigslot15single_threadedE+8@ha
	mr 3,31
	la 0,_ZTVN7sigslot15single_threadedE+8@l(9)
	stw 0,0(28)
.LEHB57:
	bl _Unwind_Resume
.LEHE57:
.LBE3116:
.LBE3115:
.LBE3114:
.LBE3113:
.LBE3112:
.LBE3111:
.LBE3121:
.LBE3126:
.LBE3131:
.LBE3136:
	.cfi_endproc
.LFE1585:
	.section	.gcc_except_table
.LLSDA1585:
	.byte	0xff
	.byte	0xff
	.byte	0x1
	.uleb128 .LLSDACSE1585-.LLSDACSB1585
.LLSDACSB1585:
	.uleb128 .LEHB54-.LFB1585
	.uleb128 .LEHE54-.LEHB54
	.uleb128 .L514-.LFB1585
	.uleb128 0
	.uleb128 .LEHB55-.LFB1585
	.uleb128 .LEHE55-.LEHB55
	.uleb128 .L515-.LFB1585
	.uleb128 0
	.uleb128 .LEHB56-.LFB1585
	.uleb128 .LEHE56-.LEHB56
	.uleb128 .L514-.LFB1585
	.uleb128 0
	.uleb128 .LEHB57-.LFB1585
	.uleb128 .LEHE57-.LEHB57
	.uleb128 0
	.uleb128 0
.LLSDACSE1585:
	.section	.text._ZN7sigslot7signal3IP10GuiElementiiNS_15single_threadedEED2Ev,"axG",@progbits,_ZN7sigslot7signal3IP10GuiElementiiNS_15single_threadedEED5Ev,comdat
	.size	_ZN7sigslot7signal3IP10GuiElementiiNS_15single_threadedEED2Ev, .-_ZN7sigslot7signal3IP10GuiElementiiNS_15single_threadedEED2Ev
	.section	.text._ZN7sigslot13_signal_base2IP10GuiElementbNS_15single_threadedEED0Ev,"axG",@progbits,_ZN7sigslot13_signal_base2IP10GuiElementbNS_15single_threadedEED5Ev,comdat
	.align 2
	.weak	_ZN7sigslot13_signal_base2IP10GuiElementbNS_15single_threadedEED0Ev
	.type	_ZN7sigslot13_signal_base2IP10GuiElementbNS_15single_threadedEED0Ev, @function
_ZN7sigslot13_signal_base2IP10GuiElementbNS_15single_threadedEED0Ev:
.LFB1631:
	.loc 1 823 0
	.cfi_startproc
	.cfi_personality 0,__gxx_personality_v0
	.cfi_lsda 0,.LLSDA1631
.LVL546:
	mflr 0
	stwu 1,-40(1)
.LCFI79:
	.cfi_def_cfa_offset 40
	.cfi_register 65, 0
.LBB3232:
.LBB3233:
.LBB3234:
	.loc 1 826 0
	lis 9,_ZTVN7sigslot13_signal_base2IP10GuiElementbNS_15single_threadedEEE+8@ha
.LBE3234:
.LBE3233:
.LBE3232:
	.loc 1 823 0
	stw 28,24(1)
	mr 28,3
	.cfi_offset 28, -16
.LVL547:
	stw 0,44(1)
.LBB3319:
.LBB3315:
.LBB3311:
	.loc 1 826 0
	la 0,_ZTVN7sigslot13_signal_base2IP10GuiElementbNS_15single_threadedEEE+8@l(9)
	.cfi_offset 65, 4
.LBE3311:
.LBE3315:
.LBE3319:
	.loc 1 823 0
	stw 29,28(1)
	addi 29,3,4
	.cfi_offset 29, -12
	stw 30,32(1)
	stw 31,36(1)
.LBB3320:
.LBB3316:
.LBB3312:
	.loc 1 826 0
	stw 0,0(3)
.LVL548:
.LEHB58:
.LBB3235:
.LBB3236:
.LBB3237:
.LBB3238:
	.loc 1 338 0
	.cfi_offset 31, -4
	.cfi_offset 30, -8
	bl _ZN7sigslot15single_threaded4lockEv
.LEHE58:
.LVL549:
.LBE3238:
.LBE3237:
.LBE3236:
	.loc 3 160 0
	mr 29,28
.LVL550:
	lwzu 31,4(29)
.LVL551:
.LBB3269:
	.loc 1 834 0
	cmpw 7,31,29
	beq- 7,.L523
.LVL552:
.L561:
	.loc 1 836 0
	lwz 3,8(31)
	lwz 9,0(3)
	lwz 0,8(9)
	mtctr 0
.LEHB59:
	bctrl
.LBB3239:
.LBB3240:
.LBB3241:
.LBB3242:
	.loc 1 338 0
	lwz 9,0(3)
.LBE3242:
.LBE3241:
.LBE3240:
.LBE3239:
	.loc 1 836 0
	mr 30,3
.LVL553:
	stw 28,8(1)
.LVL554:
.LBB3251:
.LBB3250:
.LBB3244:
.LBB3243:
	.loc 1 338 0
	lwz 0,8(9)
	mtctr 0
	bctrl
.LVL555:
.LBE3243:
.LBE3244:
.LBB3245:
.LBB3246:
	.loc 11 528 0
	addi 3,30,4
	addi 4,1,8
	bl _ZNSt8_Rb_treeIPN7sigslot12_signal_baseINS0_15single_threadedEEES4_St9_IdentityIS4_ESt4lessIS4_ESaIS4_EE5eraseERKS4_
.LVL556:
.LBE3246:
.LBE3245:
.LBB3247:
.LBB3248:
.LBB3249:
	.loc 1 343 0
	lwz 9,0(30)
	mr 3,30
	lwz 0,12(9)
	mtctr 0
	bctrl
.LVL557:
.LBE3249:
.LBE3248:
.LBE3247:
.LBE3250:
.LBE3251:
	.loc 1 837 0
	lwz 3,8(31)
	cmpwi 7,3,0
	beq- 7,.L525
	lwz 9,0(3)
	lwz 0,4(9)
	mtctr 0
	bctrl
.LEHE59:
.L525:
.LVL558:
.LBB3252:
.LBB3253:
	.loc 4 234 0
	lwz 31,0(31)
.LVL559:
.LBE3253:
.LBE3252:
	.loc 1 834 0
	cmpw 7,29,31
	bne+ 7,.L561
.LBE3269:
	.loc 3 160 0
	lwz 31,4(28)
.LVL560:
.LBB3270:
.LBB3254:
.LBB3255:
	.loc 4 1162 0
	cmpw 7,29,31
	bne+ 7,.L563
	b .L523
.LVL561:
.L556:
	.loc 4 1163 0
	mr 31,30
.LVL562:
.L563:
.LBB3256:
.LBB3257:
	.loc 12 112 0
	lwz 30,0(31)
.LVL563:
.LBB3258:
.LBB3259:
	.loc 4 1532 0
	mr 3,31
	bl _ZNSt8__detail15_List_node_base9_M_unhookEv
.LVL564:
.LBB3260:
.LBB3261:
.LBB3262:
	.loc 6 98 0
	mr 3,31
	bl _ZdlPv
.LVL565:
.LBE3262:
.LBE3261:
.LBE3260:
.LBE3259:
.LBE3258:
.LBE3257:
.LBE3256:
	.loc 4 1162 0
	cmpw 7,29,30
	bne+ 7,.L556
.LVL566:
.L523:
.LBE3255:
.LBE3254:
.LBB3263:
.LBB3264:
.LBB3265:
	.loc 1 343 0
	lwz 9,0(28)
	mr 3,28
	lwz 0,12(9)
	mtctr 0
.LEHB60:
	bctrl
.LEHE60:
.LVL567:
.LBE3265:
.LBE3264:
.LBE3263:
.LBE3270:
.LBE3235:
.LBB3272:
.LBB3273:
.LBB3274:
.LBB3275:
.LBB3276:
.LBB3277:
	.loc 12 70 0
	lwz 3,4(28)
.LVL568:
	.loc 12 71 0
	cmpw 7,3,29
	bne+ 7,.L565
	b .L541
.LVL569:
.L557:
	.loc 12 74 0
	mr 3,31
.LVL570:
.L565:
.LBB3278:
	lwz 31,0(3)
.LVL571:
.LBB3279:
.LBB3280:
.LBB3281:
	.loc 6 98 0
	bl _ZdlPv
.LVL572:
.LBE3281:
.LBE3280:
.LBE3279:
.LBE3278:
	.loc 12 71 0
	cmpw 7,31,29
	bne+ 7,.L557
.LVL573:
.L541:
.LBE3277:
.LBE3276:
.LBE3275:
.LBE3274:
.LBE3273:
.LBE3272:
.LBB3282:
.LBB3283:
.LBB3284:
.LBB3285:
.LBB3286:
.LBB3287:
	.loc 1 105 0
	lis 9,_ZTVN7sigslot15single_threadedE+8@ha
.LBE3287:
.LBE3286:
.LBE3285:
.LBE3284:
.LBE3283:
.LBE3282:
.LBE3312:
.LBE3316:
.LBE3320:
	.loc 1 826 0
	mr 3,28
.LBB3321:
.LBB3317:
.LBB3313:
.LBB3293:
.LBB3292:
.LBB3291:
.LBB3290:
.LBB3289:
.LBB3288:
	.loc 1 105 0
	la 0,_ZTVN7sigslot15single_threadedE+8@l(9)
	stw 0,0(28)
.LBE3288:
.LBE3289:
.LBE3290:
.LBE3291:
.LBE3292:
.LBE3293:
.LBE3313:
.LBE3317:
.LBE3321:
	.loc 1 826 0
	bl _ZdlPv
	lwz 0,44(1)
	lwz 28,24(1)
.LVL574:
	mtlr 0
	lwz 29,28(1)
.LVL575:
	lwz 30,32(1)
	lwz 31,36(1)
	addi 1,1,40
	.cfi_remember_state
.LCFI80:
	.cfi_def_cfa_offset 0
	.cfi_restore 31
	.cfi_restore 30
	.cfi_restore 29
	.cfi_restore 28
	blr
.LVL576:
.L559:
.LCFI81:
	.cfi_restore_state
	mr 31,3
.L533:
.LVL577:
.LBB3322:
.LBB3318:
.LBB3314:
.LBB3294:
.LBB3295:
.LBB3296:
.LBB3297:
.LBB3298:
.LBB3299:
	.loc 12 70 0
	lwz 3,4(28)
.LVL578:
	.loc 12 71 0
	cmpw 7,3,29
	beq- 7,.L550
.LVL579:
.L566:
.LBB3300:
	.loc 12 74 0
	lwz 30,0(3)
.LVL580:
.LBB3301:
.LBB3302:
.LBB3303:
	.loc 6 98 0
	bl _ZdlPv
.LVL581:
.LBE3303:
.LBE3302:
.LBE3301:
.LBE3300:
	.loc 12 71 0
	cmpw 7,30,29
	beq- 7,.L550
	.loc 12 74 0
	mr 3,30
	b .L566
.LVL582:
.L560:
.LBE3299:
.LBE3298:
.LBE3297:
.LBE3296:
.LBE3295:
.LBE3294:
.LBB3304:
.LBB3271:
.LBB3266:
.LBB3267:
.LBB3268:
	.loc 1 343 0
	lwz 9,0(28)
	mr 31,3
.LVL583:
	mr 3,28
	lwz 0,12(9)
	mtctr 0
	bctrl
	b .L533
.LVL584:
.L550:
.LBE3268:
.LBE3267:
.LBE3266:
.LBE3271:
.LBE3304:
.LBB3305:
.LBB3306:
.LBB3307:
.LBB3308:
.LBB3309:
.LBB3310:
	.loc 1 105 0
	lis 9,_ZTVN7sigslot15single_threadedE+8@ha
	mr 3,31
	la 0,_ZTVN7sigslot15single_threadedE+8@l(9)
	stw 0,0(28)
.LEHB61:
	bl _Unwind_Resume
.LEHE61:
.LBE3310:
.LBE3309:
.LBE3308:
.LBE3307:
.LBE3306:
.LBE3305:
.LBE3314:
.LBE3318:
.LBE3322:
	.cfi_endproc
.LFE1631:
	.section	.gcc_except_table
.LLSDA1631:
	.byte	0xff
	.byte	0xff
	.byte	0x1
	.uleb128 .LLSDACSE1631-.LLSDACSB1631
.LLSDACSB1631:
	.uleb128 .LEHB58-.LFB1631
	.uleb128 .LEHE58-.LEHB58
	.uleb128 .L559-.LFB1631
	.uleb128 0
	.uleb128 .LEHB59-.LFB1631
	.uleb128 .LEHE59-.LEHB59
	.uleb128 .L560-.LFB1631
	.uleb128 0
	.uleb128 .LEHB60-.LFB1631
	.uleb128 .LEHE60-.LEHB60
	.uleb128 .L559-.LFB1631
	.uleb128 0
	.uleb128 .LEHB61-.LFB1631
	.uleb128 .LEHE61-.LEHB61
	.uleb128 0
	.uleb128 0
.LLSDACSE1631:
	.section	.text._ZN7sigslot13_signal_base2IP10GuiElementbNS_15single_threadedEED0Ev,"axG",@progbits,_ZN7sigslot13_signal_base2IP10GuiElementbNS_15single_threadedEED5Ev,comdat
	.size	_ZN7sigslot13_signal_base2IP10GuiElementbNS_15single_threadedEED0Ev, .-_ZN7sigslot13_signal_base2IP10GuiElementbNS_15single_threadedEED0Ev
	.section	.text._ZN7sigslot13_signal_base2IP10GuiElementbNS_15single_threadedEED2Ev,"axG",@progbits,_ZN7sigslot13_signal_base2IP10GuiElementbNS_15single_threadedEED5Ev,comdat
	.align 2
	.weak	_ZN7sigslot13_signal_base2IP10GuiElementbNS_15single_threadedEED2Ev
	.type	_ZN7sigslot13_signal_base2IP10GuiElementbNS_15single_threadedEED2Ev, @function
_ZN7sigslot13_signal_base2IP10GuiElementbNS_15single_threadedEED2Ev:
.LFB1629:
	.loc 1 823 0
	.cfi_startproc
	.cfi_personality 0,__gxx_personality_v0
	.cfi_lsda 0,.LLSDA1629
.LVL585:
	mflr 0
	stwu 1,-40(1)
.LCFI82:
	.cfi_def_cfa_offset 40
	.cfi_register 65, 0
.LBB3469:
	.loc 1 826 0
	lis 9,_ZTVN7sigslot13_signal_base2IP10GuiElementbNS_15single_threadedEEE+8@ha
.LBE3469:
	.loc 1 823 0
	stw 28,24(1)
	mr 28,3
	.cfi_offset 28, -16
	stw 0,44(1)
.LBB3552:
	.loc 1 826 0
	la 0,_ZTVN7sigslot13_signal_base2IP10GuiElementbNS_15single_threadedEEE+8@l(9)
	.cfi_offset 65, 4
.LBE3552:
	.loc 1 823 0
	stw 29,28(1)
	addi 29,3,4
	.cfi_offset 29, -12
	stw 30,32(1)
	stw 31,36(1)
.LBB3553:
	.loc 1 826 0
	stw 0,0(3)
.LVL586:
.LEHB62:
.LBB3470:
.LBB3471:
.LBB3472:
.LBB3473:
	.loc 1 338 0
	.cfi_offset 31, -4
	.cfi_offset 30, -8
	bl _ZN7sigslot15single_threaded4lockEv
.LEHE62:
.LVL587:
.LBE3473:
.LBE3472:
.LBE3471:
	.loc 3 160 0
	mr 29,28
	lwzu 31,4(29)
.LVL588:
.LBB3504:
	.loc 1 834 0
	cmpw 7,31,29
	beq- 7,.L568
.LVL589:
.L605:
	.loc 1 836 0
	lwz 3,8(31)
	lwz 9,0(3)
	lwz 0,8(9)
	mtctr 0
.LEHB63:
	bctrl
.LBB3474:
.LBB3475:
.LBB3476:
.LBB3477:
	.loc 1 338 0
	lwz 9,0(3)
.LBE3477:
.LBE3476:
.LBE3475:
.LBE3474:
	.loc 1 836 0
	mr 30,3
.LVL590:
	stw 28,8(1)
.LVL591:
.LBB3486:
.LBB3485:
.LBB3479:
.LBB3478:
	.loc 1 338 0
	lwz 0,8(9)
	mtctr 0
	bctrl
.LVL592:
.LBE3478:
.LBE3479:
.LBB3480:
.LBB3481:
	.loc 11 528 0
	addi 3,30,4
	addi 4,1,8
	bl _ZNSt8_Rb_treeIPN7sigslot12_signal_baseINS0_15single_threadedEEES4_St9_IdentityIS4_ESt4lessIS4_ESaIS4_EE5eraseERKS4_
.LVL593:
.LBE3481:
.LBE3480:
.LBB3482:
.LBB3483:
.LBB3484:
	.loc 1 343 0
	lwz 9,0(30)
	mr 3,30
	lwz 0,12(9)
	mtctr 0
	bctrl
.LVL594:
.LBE3484:
.LBE3483:
.LBE3482:
.LBE3485:
.LBE3486:
	.loc 1 837 0
	lwz 3,8(31)
	cmpwi 7,3,0
	beq- 7,.L570
	lwz 9,0(3)
	lwz 0,4(9)
	mtctr 0
	bctrl
.LEHE63:
.L570:
.LVL595:
.LBB3487:
.LBB3488:
	.loc 4 234 0
	lwz 31,0(31)
.LVL596:
.LBE3488:
.LBE3487:
	.loc 1 834 0
	cmpw 7,29,31
	bne+ 7,.L605
.LBE3504:
	.loc 3 160 0
	lwz 31,4(28)
.LVL597:
.LBB3505:
.LBB3489:
.LBB3490:
	.loc 4 1162 0
	cmpw 7,29,31
	bne+ 7,.L607
	b .L568
.LVL598:
.L600:
	.loc 4 1163 0
	mr 31,30
.LVL599:
.L607:
.LBB3491:
.LBB3492:
	.loc 12 112 0
	lwz 30,0(31)
.LVL600:
.LBB3493:
.LBB3494:
	.loc 4 1532 0
	mr 3,31
	bl _ZNSt8__detail15_List_node_base9_M_unhookEv
.LVL601:
.LBB3495:
.LBB3496:
.LBB3497:
	.loc 6 98 0
	mr 3,31
	bl _ZdlPv
.LVL602:
.LBE3497:
.LBE3496:
.LBE3495:
.LBE3494:
.LBE3493:
.LBE3492:
.LBE3491:
	.loc 4 1162 0
	cmpw 7,29,30
	bne+ 7,.L600
.LVL603:
.L568:
.LBE3490:
.LBE3489:
.LBB3498:
.LBB3499:
.LBB3500:
	.loc 1 343 0
	lwz 9,0(28)
	mr 3,28
	lwz 0,12(9)
	mtctr 0
.LEHB64:
	bctrl
.LEHE64:
.LVL604:
.LBE3500:
.LBE3499:
.LBE3498:
.LBE3505:
.LBE3470:
.LBB3507:
.LBB3508:
.LBB3509:
.LBB3510:
.LBB3511:
.LBB3512:
	.loc 12 70 0
	lwz 3,4(28)
.LVL605:
	.loc 12 71 0
	cmpw 7,3,29
	bne+ 7,.L609
	b .L586
.LVL606:
.L601:
	.loc 12 74 0
	mr 3,31
.LVL607:
.L609:
.LBB3513:
	lwz 31,0(3)
.LVL608:
.LBB3514:
.LBB3515:
.LBB3516:
	.loc 6 98 0
	bl _ZdlPv
.LVL609:
.LBE3516:
.LBE3515:
.LBE3514:
.LBE3513:
	.loc 12 71 0
	cmpw 7,31,29
	bne+ 7,.L601
.LVL610:
.L586:
.LBE3512:
.LBE3511:
.LBE3510:
.LBE3509:
.LBE3508:
.LBE3507:
.LBB3517:
.LBB3518:
.LBB3519:
.LBB3520:
.LBB3521:
.LBB3522:
	.loc 1 105 0
	lis 9,_ZTVN7sigslot15single_threadedE+8@ha
.LBE3522:
.LBE3521:
.LBE3520:
.LBE3519:
.LBE3518:
.LBE3517:
.LBE3553:
	.loc 1 826 0
	lwz 29,28(1)
.LVL611:
.LBB3554:
.LBB3533:
.LBB3531:
.LBB3529:
.LBB3527:
.LBB3525:
.LBB3523:
	.loc 1 105 0
	la 0,_ZTVN7sigslot15single_threadedE+8@l(9)
.LBE3523:
.LBE3525:
.LBE3527:
.LBE3529:
.LBE3531:
.LBE3533:
.LBE3554:
	.loc 1 826 0
	lwz 30,32(1)
.LBB3555:
.LBB3534:
.LBB3532:
.LBB3530:
.LBB3528:
.LBB3526:
.LBB3524:
	.loc 1 105 0
	stw 0,0(28)
.LBE3524:
.LBE3526:
.LBE3528:
.LBE3530:
.LBE3532:
.LBE3534:
.LBE3555:
	.loc 1 826 0
	lwz 0,44(1)
	lwz 28,24(1)
.LVL612:
	mtlr 0
	lwz 31,36(1)
	addi 1,1,40
	.cfi_remember_state
.LCFI83:
	.cfi_def_cfa_offset 0
	.cfi_restore 31
	.cfi_restore 30
	.cfi_restore 29
	.cfi_restore 28
	blr
.LVL613:
.L603:
.LCFI84:
	.cfi_restore_state
	mr 31,3
.L578:
.LVL614:
.LBB3556:
.LBB3535:
.LBB3536:
.LBB3537:
.LBB3538:
.LBB3539:
.LBB3540:
	.loc 12 70 0
	lwz 3,4(28)
.LVL615:
	.loc 12 71 0
	cmpw 7,3,29
	beq- 7,.L597
.LVL616:
.L610:
.LBB3541:
	.loc 12 74 0
	lwz 30,0(3)
.LVL617:
.LBB3542:
.LBB3543:
.LBB3544:
	.loc 6 98 0
	bl _ZdlPv
.LVL618:
.LBE3544:
.LBE3543:
.LBE3542:
.LBE3541:
	.loc 12 71 0
	cmpw 7,30,29
	beq- 7,.L597
	.loc 12 74 0
	mr 3,30
	b .L610
.LVL619:
.L604:
.LBE3540:
.LBE3539:
.LBE3538:
.LBE3537:
.LBE3536:
.LBE3535:
.LBB3545:
.LBB3506:
.LBB3501:
.LBB3502:
.LBB3503:
	.loc 1 343 0
	lwz 9,0(28)
	mr 31,3
.LVL620:
	mr 3,28
	lwz 0,12(9)
	mtctr 0
	bctrl
	b .L578
.LVL621:
.L597:
.LBE3503:
.LBE3502:
.LBE3501:
.LBE3506:
.LBE3545:
.LBB3546:
.LBB3547:
.LBB3548:
.LBB3549:
.LBB3550:
.LBB3551:
	.loc 1 105 0
	lis 9,_ZTVN7sigslot15single_threadedE+8@ha
	mr 3,31
	la 0,_ZTVN7sigslot15single_threadedE+8@l(9)
	stw 0,0(28)
.LEHB65:
	bl _Unwind_Resume
.LEHE65:
.LBE3551:
.LBE3550:
.LBE3549:
.LBE3548:
.LBE3547:
.LBE3546:
.LBE3556:
	.cfi_endproc
.LFE1629:
	.section	.gcc_except_table
.LLSDA1629:
	.byte	0xff
	.byte	0xff
	.byte	0x1
	.uleb128 .LLSDACSE1629-.LLSDACSB1629
.LLSDACSB1629:
	.uleb128 .LEHB62-.LFB1629
	.uleb128 .LEHE62-.LEHB62
	.uleb128 .L603-.LFB1629
	.uleb128 0
	.uleb128 .LEHB63-.LFB1629
	.uleb128 .LEHE63-.LEHB63
	.uleb128 .L604-.LFB1629
	.uleb128 0
	.uleb128 .LEHB64-.LFB1629
	.uleb128 .LEHE64-.LEHB64
	.uleb128 .L603-.LFB1629
	.uleb128 0
	.uleb128 .LEHB65-.LFB1629
	.uleb128 .LEHE65-.LEHB65
	.uleb128 0
	.uleb128 0
.LLSDACSE1629:
	.section	.text._ZN7sigslot13_signal_base2IP10GuiElementbNS_15single_threadedEED2Ev,"axG",@progbits,_ZN7sigslot13_signal_base2IP10GuiElementbNS_15single_threadedEED5Ev,comdat
	.size	_ZN7sigslot13_signal_base2IP10GuiElementbNS_15single_threadedEED2Ev, .-_ZN7sigslot13_signal_base2IP10GuiElementbNS_15single_threadedEED2Ev
	.section	.text._ZN10GuiElementD0Ev,"axG",@progbits,_ZN10GuiElementD5Ev,comdat
	.align 2
	.weak	_ZN10GuiElementD0Ev
	.type	_ZN10GuiElementD0Ev, @function
_ZN10GuiElementD0Ev:
.LFB1383:
	.loc 2 89 0
	.cfi_startproc
	.cfi_personality 0,__gxx_personality_v0
	.cfi_lsda 0,.LLSDA1383
.LVL622:
	mflr 0
	stwu 1,-48(1)
.LCFI85:
	.cfi_def_cfa_offset 48
	.cfi_register 65, 0
.LBB3758:
.LBB3759:
.LBB3760:
	lis 9,_ZTV10GuiElement+8@ha
.LBE3760:
.LBE3759:
.LBE3758:
	stw 27,28(1)
.LBB4024:
.LBB4020:
.LBB4016:
.LBB3761:
.LBB3762:
.LBB3763:
	.loc 1 2305 0
	addi 27,3,16
	.cfi_offset 27, -20
.LBE3763:
.LBE3762:
.LBE3761:
.LBE4016:
.LBE4020:
.LBE4024:
	.loc 2 89 0
	stw 0,52(1)
.LBB4025:
.LBB4021:
.LBB4017:
	la 0,_ZTV10GuiElement+8@l(9)
	.cfi_offset 65, 4
.LBB3897:
.LBB3888:
.LBB3879:
.LBB3764:
.LBB3765:
.LBB3766:
	.loc 1 946 0
	lis 9,_ZTVN7sigslot13_signal_base3IP10GuiElementiiNS_15single_threadedEEE+8@ha
.LBE3766:
.LBE3765:
.LBE3764:
.LBE3879:
.LBE3888:
.LBE3897:
.LBE4017:
.LBE4021:
.LBE4025:
	.loc 2 89 0
	stw 28,32(1)
	stw 29,36(1)
	mr 28,3
	.cfi_offset 29, -12
	.cfi_offset 28, -16
.LVL623:
	stw 26,24(1)
	addi 29,28,20
	stw 30,40(1)
	stw 31,44(1)
.LBB4026:
.LBB4022:
.LBB4018:
	.loc 2 89 0
	stw 0,0(3)
.LVL624:
.LBB3898:
.LBB3889:
.LBB3880:
.LBB3871:
.LBB3863:
.LBB3855:
	.loc 1 946 0
	la 0,_ZTVN7sigslot13_signal_base3IP10GuiElementiiNS_15single_threadedEEE+8@l(9)
.LBB3767:
.LBB3768:
.LBB3769:
.LBB3770:
	.loc 1 338 0
	lis 9,_ZN7sigslot15single_threaded4lockEv@ha
.LBE3770:
.LBE3769:
.LBE3768:
.LBE3767:
	.loc 1 946 0
	stw 0,16(3)
.LVL625:
.LBB3803:
.LBB3799:
.LBB3772:
.LBB3771:
	.loc 1 338 0
	la 9,_ZN7sigslot15single_threaded4lockEv@l(9)
	mr 3,27
.LVL626:
	mtctr 9
.LEHB66:
	.cfi_offset 31, -4
	.cfi_offset 30, -8
	.cfi_offset 26, -24
	bctrl
.LEHE66:
.LBE3771:
.LBE3772:
.LBE3799:
	.loc 3 160 0
	mr 29,28
.LVL627:
	lwzu 31,20(29)
.LVL628:
.LBB3800:
	.loc 1 954 0
	cmpw 7,31,29
	beq- 7,.L613
.LVL629:
.L692:
	.loc 1 956 0
	lwz 3,8(31)
	lwz 9,0(3)
	lwz 0,8(9)
	mtctr 0
.LEHB67:
	bctrl
	stw 27,8(1)
	mr 30,3
.LVL630:
.LBB3773:
.LBB3774:
.LBB3775:
.LBB3776:
	.loc 1 338 0
	lwz 9,0(3)
	lwz 0,8(9)
	mtctr 0
	bctrl
.LVL631:
.LBE3776:
.LBE3775:
.LBB3777:
.LBB3778:
	.loc 11 528 0
	addi 3,30,4
	addi 4,1,8
	bl _ZNSt8_Rb_treeIPN7sigslot12_signal_baseINS0_15single_threadedEEES4_St9_IdentityIS4_ESt4lessIS4_ESaIS4_EE5eraseERKS4_
.LVL632:
.LBE3778:
.LBE3777:
.LBB3779:
.LBB3780:
.LBB3781:
	.loc 1 343 0
	lwz 9,0(30)
	mr 3,30
	lwz 0,12(9)
	mtctr 0
	bctrl
.LVL633:
.LBE3781:
.LBE3780:
.LBE3779:
.LBE3774:
.LBE3773:
	.loc 1 957 0
	lwz 3,8(31)
	cmpwi 7,3,0
	beq- 7,.L615
	lwz 9,0(3)
	lwz 0,4(9)
	mtctr 0
	bctrl
.LEHE67:
.L615:
.LVL634:
.LBB3782:
.LBB3783:
	.loc 4 234 0
	lwz 31,0(31)
.LVL635:
.LBE3783:
.LBE3782:
	.loc 1 954 0
	cmpw 7,29,31
	bne+ 7,.L692
.LBE3800:
	.loc 3 160 0
	lwz 31,20(28)
.LVL636:
.LBB3801:
.LBB3784:
.LBB3785:
	.loc 4 1162 0
	cmpw 7,29,31
	bne+ 7,.L695
	b .L613
.LVL637:
.L681:
	.loc 4 1163 0
	mr 31,30
.LVL638:
.L695:
.LBB3786:
.LBB3787:
	.loc 12 112 0
	lwz 30,0(31)
.LVL639:
.LBB3788:
.LBB3789:
	.loc 4 1532 0
	mr 3,31
	bl _ZNSt8__detail15_List_node_base9_M_unhookEv
.LVL640:
.LBB3790:
.LBB3791:
.LBB3792:
	.loc 6 98 0
	mr 3,31
	bl _ZdlPv
.LVL641:
.LBE3792:
.LBE3791:
.LBE3790:
.LBE3789:
.LBE3788:
.LBE3787:
.LBE3786:
	.loc 4 1162 0
	cmpw 7,29,30
	bne+ 7,.L681
.LVL642:
.L613:
.LBE3785:
.LBE3784:
.LBB3793:
.LBB3794:
.LBB3795:
	.loc 1 343 0
	lwz 9,16(28)
	mr 3,27
	lwz 0,12(9)
	mtctr 0
.LEHB68:
	bctrl
.LEHE68:
.LBE3795:
.LBE3794:
.LBE3793:
.LBE3801:
.LBE3803:
.LBB3804:
.LBB3805:
.LBB3806:
.LBB3807:
.LBB3808:
.LBB3809:
	.loc 12 70 0
	lwz 3,20(28)
.LVL643:
	.loc 12 71 0
	cmpw 7,3,29
	bne+ 7,.L697
	b .L631
.LVL644:
.L682:
	.loc 12 74 0
	mr 3,31
.LVL645:
.L697:
.LBB3810:
	lwz 31,0(3)
.LVL646:
.LBB3811:
.LBB3812:
.LBB3813:
	.loc 6 98 0
	bl _ZdlPv
.LVL647:
.LBE3813:
.LBE3812:
.LBE3811:
.LBE3810:
	.loc 12 71 0
	cmpw 7,31,29
	bne+ 7,.L682
.LVL648:
.L631:
.LBE3809:
.LBE3808:
.LBE3807:
.LBE3806:
.LBE3805:
.LBE3804:
.LBE3855:
.LBE3863:
.LBE3871:
.LBE3880:
.LBE3889:
.LBE3898:
.LBB3899:
.LBB3900:
.LBB3901:
.LBB3902:
.LBB3903:
.LBB3904:
	.loc 1 826 0
	lis 9,_ZTVN7sigslot13_signal_base2IP10GuiElementbNS_15single_threadedEEE+8@ha
.LBE3904:
.LBE3903:
.LBE3902:
.LBE3901:
.LBE3900:
.LBE3899:
.LBB4004:
.LBB3890:
.LBB3881:
.LBB3872:
.LBB3864:
.LBB3856:
.LBB3814:
.LBB3815:
.LBB3816:
.LBB3817:
.LBB3818:
.LBB3819:
	.loc 1 105 0
	lis 26,_ZTVN7sigslot15single_threadedE+8@ha
.LBE3819:
.LBE3818:
.LBE3817:
.LBE3816:
.LBE3815:
.LBE3814:
.LBE3856:
.LBE3864:
.LBE3872:
.LBE3881:
.LBE3890:
.LBE4004:
.LBB4005:
.LBB3999:
.LBB3994:
.LBB3989:
.LBB3984:
.LBB3979:
	.loc 1 826 0
	la 0,_ZTVN7sigslot13_signal_base2IP10GuiElementbNS_15single_threadedEEE+8@l(9)
.LBB3905:
.LBB3906:
.LBB3907:
.LBB3908:
	.loc 1 338 0
	lis 9,_ZN7sigslot15single_threaded4lockEv@ha
.LBE3908:
.LBE3907:
.LBE3906:
.LBE3905:
.LBE3979:
.LBE3984:
.LBE3989:
.LBE3994:
.LBE3999:
.LBE4005:
.LBB4006:
.LBB3891:
.LBB3882:
.LBB3873:
.LBB3865:
.LBB3857:
.LBB3830:
.LBB3828:
.LBB3826:
.LBB3824:
.LBB3822:
.LBB3820:
	.loc 1 105 0
	la 26,_ZTVN7sigslot15single_threadedE+8@l(26)
.LBE3820:
.LBE3822:
.LBE3824:
.LBE3826:
.LBE3828:
.LBE3830:
.LBE3857:
.LBE3865:
.LBE3873:
.LBE3882:
.LBE3891:
.LBE4006:
.LBB4007:
.LBB4000:
.LBB3995:
	.loc 1 2238 0
	addi 27,28,4
.LVL649:
.LBB3990:
.LBB3985:
.LBB3980:
.LBB3944:
.LBB3939:
.LBB3911:
.LBB3909:
	.loc 1 338 0
	la 9,_ZN7sigslot15single_threaded4lockEv@l(9)
.LBE3909:
.LBE3911:
.LBE3939:
.LBE3944:
.LBE3980:
.LBE3985:
.LBE3990:
.LBE3995:
.LBE4000:
.LBE4007:
.LBB4008:
.LBB3892:
.LBB3883:
.LBB3874:
.LBB3866:
.LBB3858:
.LBB3831:
.LBB3829:
.LBB3827:
.LBB3825:
.LBB3823:
.LBB3821:
	.loc 1 105 0
	stw 26,16(28)
.LVL650:
.LBE3821:
.LBE3823:
.LBE3825:
.LBE3827:
.LBE3829:
.LBE3831:
.LBE3858:
.LBE3866:
.LBE3874:
.LBE3883:
.LBE3892:
.LBE4008:
.LBB4009:
.LBB4001:
.LBB3996:
.LBB3991:
.LBB3986:
.LBB3981:
	.loc 1 826 0
	stw 0,4(28)
.LVL651:
.LBB3945:
.LBB3940:
.LBB3912:
.LBB3910:
	.loc 1 338 0
	mr 3,27
	mtctr 9
	addi 29,28,8
.LVL652:
.LEHB69:
	bctrl
.LEHE69:
.LBE3910:
.LBE3912:
.LBE3940:
	.loc 3 160 0
	mr 29,28
	lwzu 31,8(29)
.LVL653:
.LBB3941:
	.loc 1 834 0
	cmpw 7,31,29
	beq- 7,.L646
.LVL654:
.L691:
	.loc 1 836 0
	lwz 3,8(31)
	lwz 9,0(3)
	lwz 0,8(9)
	mtctr 0
.LEHB70:
	bctrl
	stw 27,8(1)
	mr 30,3
.LVL655:
.LBB3913:
.LBB3914:
.LBB3915:
.LBB3916:
	.loc 1 338 0
	lwz 9,0(3)
	lwz 0,8(9)
	mtctr 0
	bctrl
.LVL656:
.LBE3916:
.LBE3915:
.LBB3917:
.LBB3918:
	.loc 11 528 0
	addi 3,30,4
	addi 4,1,8
.LVL657:
	bl _ZNSt8_Rb_treeIPN7sigslot12_signal_baseINS0_15single_threadedEEES4_St9_IdentityIS4_ESt4lessIS4_ESaIS4_EE5eraseERKS4_
.LVL658:
.LBE3918:
.LBE3917:
.LBB3919:
.LBB3920:
.LBB3921:
	.loc 1 343 0
	lwz 9,0(30)
	mr 3,30
	lwz 0,12(9)
	mtctr 0
	bctrl
.LVL659:
.LBE3921:
.LBE3920:
.LBE3919:
.LBE3914:
.LBE3913:
	.loc 1 837 0
	lwz 3,8(31)
	cmpwi 7,3,0
	beq- 7,.L648
	lwz 9,0(3)
	lwz 0,4(9)
	mtctr 0
	bctrl
.LEHE70:
.L648:
.LVL660:
.LBB3922:
.LBB3923:
	.loc 4 234 0
	lwz 31,0(31)
.LVL661:
.LBE3923:
.LBE3922:
	.loc 1 834 0
	cmpw 7,29,31
	bne+ 7,.L691
.LBE3941:
	.loc 3 160 0
	lwz 31,8(28)
.LVL662:
.LBB3942:
.LBB3924:
.LBB3925:
	.loc 4 1162 0
	cmpw 7,29,31
	bne+ 7,.L700
	b .L646
.LVL663:
.L684:
	.loc 4 1163 0
	mr 31,30
.LVL664:
.L700:
.LBB3926:
.LBB3927:
	.loc 12 112 0
	lwz 30,0(31)
.LVL665:
.LBB3928:
.LBB3929:
	.loc 4 1532 0
	mr 3,31
	bl _ZNSt8__detail15_List_node_base9_M_unhookEv
.LVL666:
.LBB3930:
.LBB3931:
.LBB3932:
	.loc 6 98 0
	mr 3,31
	bl _ZdlPv
.LVL667:
.LBE3932:
.LBE3931:
.LBE3930:
.LBE3929:
.LBE3928:
.LBE3927:
.LBE3926:
	.loc 4 1162 0
	cmpw 7,29,30
	bne+ 7,.L684
.LVL668:
.L646:
.LBE3925:
.LBE3924:
.LBB3933:
.LBB3934:
.LBB3935:
	.loc 1 343 0
	lwz 9,4(28)
	mr 3,27
	lwz 0,12(9)
	mtctr 0
.LEHB71:
	bctrl
.LEHE71:
.LBE3935:
.LBE3934:
.LBE3933:
.LBE3942:
.LBE3945:
.LBB3946:
.LBB3947:
.LBB3948:
.LBB3949:
.LBB3950:
.LBB3951:
	.loc 12 70 0
	lwz 3,8(28)
.LVL669:
	.loc 12 71 0
	cmpw 7,3,29
	bne+ 7,.L702
	b .L664
.LVL670:
.L685:
	.loc 12 74 0
	mr 3,31
.LVL671:
.L702:
.LBB3952:
	lwz 31,0(3)
.LVL672:
.LBB3953:
.LBB3954:
.LBB3955:
	.loc 6 98 0
	bl _ZdlPv
.LVL673:
.LBE3955:
.LBE3954:
.LBE3953:
.LBE3952:
	.loc 12 71 0
	cmpw 7,31,29
	bne+ 7,.L685
.LVL674:
.L664:
.LBE3951:
.LBE3950:
.LBE3949:
.LBE3948:
.LBE3947:
.LBE3946:
.LBB3956:
.LBB3957:
.LBB3958:
.LBB3959:
.LBB3960:
.LBB3961:
	.loc 1 105 0
	stw 26,4(28)
.LBE3961:
.LBE3960:
.LBE3959:
.LBE3958:
.LBE3957:
.LBE3956:
.LBE3981:
.LBE3986:
.LBE3991:
.LBE3996:
.LBE4001:
.LBE4009:
.LBE4018:
.LBE4022:
.LBE4026:
	.loc 2 89 0
	mr 3,28
	bl _ZdlPv
	lwz 0,52(1)
	lwz 26,24(1)
	mtlr 0
	lwz 27,28(1)
.LVL675:
	lwz 28,32(1)
.LVL676:
	lwz 29,36(1)
.LVL677:
	lwz 30,40(1)
	lwz 31,44(1)
	addi 1,1,48
	.cfi_remember_state
.LCFI86:
	.cfi_def_cfa_offset 0
	.cfi_restore 31
	.cfi_restore 30
	.cfi_restore 29
	.cfi_restore 28
	.cfi_restore 27
	.cfi_restore 26
	blr
.LVL678:
.L687:
.LCFI87:
	.cfi_restore_state
	mr 31,3
.L623:
.LBB4027:
.LBB4023:
.LBB4019:
.LBB4010:
.LBB3893:
.LBB3884:
.LBB3875:
.LBB3867:
.LBB3859:
.LBB3832:
.LBB3833:
.LBB3834:
.LBB3835:
.LBB3836:
.LBB3837:
	.loc 12 70 0
	lwz 3,20(28)
.LVL679:
	.loc 12 71 0
	cmpw 7,3,29
	beq- 7,.L640
.LVL680:
.L699:
.LBB3838:
	.loc 12 74 0
	lwz 30,0(3)
.LVL681:
.LBB3839:
.LBB3840:
.LBB3841:
	.loc 6 98 0
	bl _ZdlPv
.LVL682:
.LBE3841:
.LBE3840:
.LBE3839:
.LBE3838:
	.loc 12 71 0
	cmpw 7,30,29
	beq- 7,.L640
	.loc 12 74 0
	mr 3,30
	b .L699
.LVL683:
.L690:
.LBE3837:
.LBE3836:
.LBE3835:
.LBE3834:
.LBE3833:
.LBE3832:
.LBE3859:
.LBE3867:
.LBE3875:
.LBE3884:
.LBE3893:
.LBE4010:
.LBB4011:
.LBB4002:
.LBB3997:
.LBB3992:
.LBB3987:
.LBB3982:
.LBB3962:
.LBB3943:
.LBB3936:
.LBB3937:
.LBB3938:
	.loc 1 343 0
	lwz 9,4(28)
	mr 31,3
.LVL684:
	mr 3,27
	lwz 0,12(9)
	mtctr 0
	bctrl
.LVL685:
.L656:
.LBE3938:
.LBE3937:
.LBE3936:
.LBE3943:
.LBE3962:
.LBB3963:
.LBB3964:
.LBB3965:
.LBB3966:
.LBB3967:
.LBB3968:
	.loc 12 70 0
	lwz 3,8(28)
.LVL686:
	.loc 12 71 0
	cmpw 7,3,29
	beq- 7,.L673
.LVL687:
.L703:
.LBB3969:
	.loc 12 74 0
	lwz 30,0(3)
.LVL688:
.LBB3970:
.LBB3971:
.LBB3972:
	.loc 6 98 0
	bl _ZdlPv
.LVL689:
.LBE3972:
.LBE3971:
.LBE3970:
.LBE3969:
	.loc 12 71 0
	cmpw 7,30,29
	beq- 7,.L673
	.loc 12 74 0
	mr 3,30
	b .L703
.LVL690:
.L640:
.LBE3968:
.LBE3967:
.LBE3966:
.LBE3965:
.LBE3964:
.LBE3963:
.LBE3982:
.LBE3987:
.LBE3992:
.LBE3997:
.LBE4002:
.LBE4011:
.LBB4012:
.LBB3894:
.LBB3885:
.LBB3876:
.LBB3868:
.LBB3860:
.LBB3842:
.LBB3843:
.LBB3844:
.LBB3845:
.LBB3846:
.LBB3847:
	.loc 1 105 0
	lis 9,_ZTVN7sigslot15single_threadedE+8@ha
.LBE3847:
.LBE3846:
.LBE3845:
.LBE3844:
.LBE3843:
.LBE3842:
.LBE3860:
.LBE3868:
.LBE3876:
.LBE3885:
.LBE3894:
.LBE4012:
	.loc 2 89 0
	addi 3,28,4
.LBB4013:
.LBB3895:
.LBB3886:
.LBB3877:
.LBB3869:
.LBB3861:
.LBB3853:
.LBB3852:
.LBB3851:
.LBB3850:
.LBB3849:
.LBB3848:
	.loc 1 105 0
	la 0,_ZTVN7sigslot15single_threadedE+8@l(9)
	stw 0,16(28)
.LBE3848:
.LBE3849:
.LBE3850:
.LBE3851:
.LBE3852:
.LBE3853:
.LBE3861:
.LBE3869:
.LBE3877:
.LBE3886:
.LBE3895:
.LBE4013:
	.loc 2 89 0
	bl _ZN7sigslot7signal2IP10GuiElementbNS_15single_threadedEED1Ev
	mr 3,31
.LEHB72:
	bl _Unwind_Resume
.LVL691:
.L673:
.LBB4014:
.LBB4003:
.LBB3998:
.LBB3993:
.LBB3988:
.LBB3983:
.LBB3973:
.LBB3974:
.LBB3975:
.LBB3976:
.LBB3977:
.LBB3978:
	.loc 1 105 0
	stw 26,4(28)
	mr 3,31
	bl _Unwind_Resume
.LEHE72:
.LVL692:
.L689:
	mr 31,3
	b .L656
.LVL693:
.L688:
.LBE3978:
.LBE3977:
.LBE3976:
.LBE3975:
.LBE3974:
.LBE3973:
.LBE3983:
.LBE3988:
.LBE3993:
.LBE3998:
.LBE4003:
.LBE4014:
.LBB4015:
.LBB3896:
.LBB3887:
.LBB3878:
.LBB3870:
.LBB3862:
.LBB3854:
.LBB3802:
.LBB3796:
.LBB3797:
.LBB3798:
	.loc 1 343 0
	lwz 9,16(28)
	mr 31,3
.LVL694:
	mr 3,27
	lwz 0,12(9)
	mtctr 0
	bctrl
	b .L623
.LBE3798:
.LBE3797:
.LBE3796:
.LBE3802:
.LBE3854:
.LBE3862:
.LBE3870:
.LBE3878:
.LBE3887:
.LBE3896:
.LBE4015:
.LBE4019:
.LBE4023:
.LBE4027:
	.cfi_endproc
.LFE1383:
	.section	.gcc_except_table
.LLSDA1383:
	.byte	0xff
	.byte	0xff
	.byte	0x1
	.uleb128 .LLSDACSE1383-.LLSDACSB1383
.LLSDACSB1383:
	.uleb128 .LEHB66-.LFB1383
	.uleb128 .LEHE66-.LEHB66
	.uleb128 .L687-.LFB1383
	.uleb128 0
	.uleb128 .LEHB67-.LFB1383
	.uleb128 .LEHE67-.LEHB67
	.uleb128 .L688-.LFB1383
	.uleb128 0
	.uleb128 .LEHB68-.LFB1383
	.uleb128 .LEHE68-.LEHB68
	.uleb128 .L687-.LFB1383
	.uleb128 0
	.uleb128 .LEHB69-.LFB1383
	.uleb128 .LEHE69-.LEHB69
	.uleb128 .L689-.LFB1383
	.uleb128 0
	.uleb128 .LEHB70-.LFB1383
	.uleb128 .LEHE70-.LEHB70
	.uleb128 .L690-.LFB1383
	.uleb128 0
	.uleb128 .LEHB71-.LFB1383
	.uleb128 .LEHE71-.LEHB71
	.uleb128 .L689-.LFB1383
	.uleb128 0
	.uleb128 .LEHB72-.LFB1383
	.uleb128 .LEHE72-.LEHB72
	.uleb128 0
	.uleb128 0
.LLSDACSE1383:
	.section	.text._ZN10GuiElementD0Ev,"axG",@progbits,_ZN10GuiElementD5Ev,comdat
	.size	_ZN10GuiElementD0Ev, .-_ZN10GuiElementD0Ev
	.section	.text._ZN7sigslot7signal2IP10GuiElementbNS_15single_threadedEED0Ev,"axG",@progbits,_ZN7sigslot7signal2IP10GuiElementbNS_15single_threadedEED5Ev,comdat
	.align 2
	.weak	_ZN7sigslot7signal2IP10GuiElementbNS_15single_threadedEED0Ev
	.type	_ZN7sigslot7signal2IP10GuiElementbNS_15single_threadedEED0Ev, @function
_ZN7sigslot7signal2IP10GuiElementbNS_15single_threadedEED0Ev:
.LFB1583:
	.loc 1 2235 0
	.cfi_startproc
	.cfi_personality 0,__gxx_personality_v0
	.cfi_lsda 0,.LLSDA1583
.LVL695:
	mflr 0
	stwu 1,-40(1)
.LCFI88:
	.cfi_def_cfa_offset 40
	.cfi_register 65, 0
.LBB4126:
.LBB4127:
.LBB4128:
.LBB4129:
.LBB4130:
.LBB4131:
	.loc 1 826 0
	lis 9,_ZTVN7sigslot13_signal_base2IP10GuiElementbNS_15single_threadedEEE+8@ha
.LBE4131:
.LBE4130:
.LBE4129:
.LBE4128:
.LBE4127:
.LBE4126:
	.loc 1 2235 0
	stw 28,24(1)
	mr 28,3
	.cfi_offset 28, -16
.LVL696:
	stw 0,44(1)
.LBB4228:
.LBB4224:
.LBB4220:
.LBB4216:
.LBB4212:
.LBB4208:
	.loc 1 826 0
	la 0,_ZTVN7sigslot13_signal_base2IP10GuiElementbNS_15single_threadedEEE+8@l(9)
	.cfi_offset 65, 4
.LBE4208:
.LBE4212:
.LBE4216:
.LBE4220:
.LBE4224:
.LBE4228:
	.loc 1 2235 0
	stw 29,28(1)
	addi 29,3,4
	.cfi_offset 29, -12
	stw 30,32(1)
	stw 31,36(1)
.LBB4229:
.LBB4225:
.LBB4221:
.LBB4217:
.LBB4213:
.LBB4209:
	.loc 1 826 0
	stw 0,0(3)
.LVL697:
.LEHB73:
.LBB4132:
.LBB4133:
.LBB4134:
.LBB4135:
	.loc 1 338 0
	.cfi_offset 31, -4
	.cfi_offset 30, -8
	bl _ZN7sigslot15single_threaded4lockEv
.LEHE73:
.LVL698:
.LBE4135:
.LBE4134:
.LBE4133:
	.loc 3 160 0
	mr 29,28
.LVL699:
	lwzu 31,4(29)
.LVL700:
.LBB4166:
	.loc 1 834 0
	cmpw 7,31,29
	beq- 7,.L705
.LVL701:
.L744:
	.loc 1 836 0
	lwz 3,8(31)
	lwz 9,0(3)
	lwz 0,8(9)
	mtctr 0
.LEHB74:
	bctrl
.LBB4136:
.LBB4137:
.LBB4138:
.LBB4139:
	.loc 1 338 0
	lwz 9,0(3)
.LBE4139:
.LBE4138:
.LBE4137:
.LBE4136:
	.loc 1 836 0
	mr 30,3
.LVL702:
	stw 28,8(1)
.LVL703:
.LBB4148:
.LBB4147:
.LBB4141:
.LBB4140:
	.loc 1 338 0
	lwz 0,8(9)
	mtctr 0
	bctrl
.LVL704:
.LBE4140:
.LBE4141:
.LBB4142:
.LBB4143:
	.loc 11 528 0
	addi 3,30,4
	addi 4,1,8
	bl _ZNSt8_Rb_treeIPN7sigslot12_signal_baseINS0_15single_threadedEEES4_St9_IdentityIS4_ESt4lessIS4_ESaIS4_EE5eraseERKS4_
.LVL705:
.LBE4143:
.LBE4142:
.LBB4144:
.LBB4145:
.LBB4146:
	.loc 1 343 0
	lwz 9,0(30)
	mr 3,30
	lwz 0,12(9)
	mtctr 0
	bctrl
.LVL706:
.LBE4146:
.LBE4145:
.LBE4144:
.LBE4147:
.LBE4148:
	.loc 1 837 0
	lwz 3,8(31)
	cmpwi 7,3,0
	beq- 7,.L707
	lwz 9,0(3)
	lwz 0,4(9)
	mtctr 0
	bctrl
.LEHE74:
.L707:
.LVL707:
.LBB4149:
.LBB4150:
	.loc 4 234 0
	lwz 31,0(31)
.LVL708:
.LBE4150:
.LBE4149:
	.loc 1 834 0
	cmpw 7,29,31
	bne+ 7,.L744
.LBE4166:
	.loc 3 160 0
	lwz 31,4(28)
.LVL709:
.LBB4167:
.LBB4151:
.LBB4152:
	.loc 4 1162 0
	cmpw 7,29,31
	bne+ 7,.L746
	b .L705
.LVL710:
.L739:
	.loc 4 1163 0
	mr 31,30
.LVL711:
.L746:
.LBB4153:
.LBB4154:
	.loc 12 112 0
	lwz 30,0(31)
.LVL712:
.LBB4155:
.LBB4156:
	.loc 4 1532 0
	mr 3,31
	bl _ZNSt8__detail15_List_node_base9_M_unhookEv
.LVL713:
.LBB4157:
.LBB4158:
.LBB4159:
	.loc 6 98 0
	mr 3,31
	bl _ZdlPv
.LVL714:
.LBE4159:
.LBE4158:
.LBE4157:
.LBE4156:
.LBE4155:
.LBE4154:
.LBE4153:
	.loc 4 1162 0
	cmpw 7,29,30
	bne+ 7,.L739
.LVL715:
.L705:
.LBE4152:
.LBE4151:
.LBB4160:
.LBB4161:
.LBB4162:
	.loc 1 343 0
	lwz 9,0(28)
	mr 3,28
	lwz 0,12(9)
	mtctr 0
.LEHB75:
	bctrl
.LEHE75:
.LBE4162:
.LBE4161:
.LBE4160:
.LBE4167:
.LBE4132:
.LBB4169:
.LBB4170:
.LBB4171:
.LBB4172:
.LBB4173:
.LBB4174:
	.loc 12 70 0
	lwz 3,4(28)
.LVL716:
	.loc 12 71 0
	cmpw 7,3,29
	bne+ 7,.L748
	b .L723
.LVL717:
.L740:
	.loc 12 74 0
	mr 3,31
.LVL718:
.L748:
.LBB4175:
	lwz 31,0(3)
.LVL719:
.LBB4176:
.LBB4177:
.LBB4178:
	.loc 6 98 0
	bl _ZdlPv
.LVL720:
.LBE4178:
.LBE4177:
.LBE4176:
.LBE4175:
	.loc 12 71 0
	cmpw 7,31,29
	bne+ 7,.L740
.LVL721:
.L723:
.LBE4174:
.LBE4173:
.LBE4172:
.LBE4171:
.LBE4170:
.LBE4169:
.LBB4179:
.LBB4180:
.LBB4181:
.LBB4182:
.LBB4183:
.LBB4184:
	.loc 1 105 0
	lis 9,_ZTVN7sigslot15single_threadedE+8@ha
.LBE4184:
.LBE4183:
.LBE4182:
.LBE4181:
.LBE4180:
.LBE4179:
.LBE4209:
.LBE4213:
.LBE4217:
.LBE4221:
.LBE4225:
.LBE4229:
	.loc 1 2238 0
	mr 3,28
.LBB4230:
.LBB4226:
.LBB4222:
.LBB4218:
.LBB4214:
.LBB4210:
.LBB4190:
.LBB4189:
.LBB4188:
.LBB4187:
.LBB4186:
.LBB4185:
	.loc 1 105 0
	la 0,_ZTVN7sigslot15single_threadedE+8@l(9)
	stw 0,0(28)
.LBE4185:
.LBE4186:
.LBE4187:
.LBE4188:
.LBE4189:
.LBE4190:
.LBE4210:
.LBE4214:
.LBE4218:
.LBE4222:
.LBE4226:
.LBE4230:
	.loc 1 2238 0
	bl _ZdlPv
	lwz 0,44(1)
	lwz 28,24(1)
.LVL722:
	mtlr 0
	lwz 29,28(1)
.LVL723:
	lwz 30,32(1)
	lwz 31,36(1)
	addi 1,1,40
	.cfi_remember_state
.LCFI89:
	.cfi_def_cfa_offset 0
	.cfi_restore 31
	.cfi_restore 30
	.cfi_restore 29
	.cfi_restore 28
	blr
.LVL724:
.L742:
.LCFI90:
	.cfi_restore_state
	mr 31,3
.L715:
.LBB4231:
.LBB4227:
.LBB4223:
.LBB4219:
.LBB4215:
.LBB4211:
.LBB4191:
.LBB4192:
.LBB4193:
.LBB4194:
.LBB4195:
.LBB4196:
	.loc 12 70 0
	lwz 3,4(28)
.LVL725:
	.loc 12 71 0
	cmpw 7,3,29
	beq- 7,.L732
.LVL726:
.L749:
.LBB4197:
	.loc 12 74 0
	lwz 30,0(3)
.LVL727:
.LBB4198:
.LBB4199:
.LBB4200:
	.loc 6 98 0
	bl _ZdlPv
.LVL728:
.LBE4200:
.LBE4199:
.LBE4198:
.LBE4197:
	.loc 12 71 0
	cmpw 7,30,29
	beq- 7,.L732
	.loc 12 74 0
	mr 3,30
	b .L749
.LVL729:
.L743:
.LBE4196:
.LBE4195:
.LBE4194:
.LBE4193:
.LBE4192:
.LBE4191:
.LBB4201:
.LBB4168:
.LBB4163:
.LBB4164:
.LBB4165:
	.loc 1 343 0
	lwz 9,0(28)
	mr 31,3
.LVL730:
	mr 3,28
	lwz 0,12(9)
	mtctr 0
	bctrl
	b .L715
.LVL731:
.L732:
.LBE4165:
.LBE4164:
.LBE4163:
.LBE4168:
.LBE4201:
.LBB4202:
.LBB4203:
.LBB4204:
.LBB4205:
.LBB4206:
.LBB4207:
	.loc 1 105 0
	lis 9,_ZTVN7sigslot15single_threadedE+8@ha
	mr 3,31
	la 0,_ZTVN7sigslot15single_threadedE+8@l(9)
	stw 0,0(28)
.LEHB76:
	bl _Unwind_Resume
.LEHE76:
.LBE4207:
.LBE4206:
.LBE4205:
.LBE4204:
.LBE4203:
.LBE4202:
.LBE4211:
.LBE4215:
.LBE4219:
.LBE4223:
.LBE4227:
.LBE4231:
	.cfi_endproc
.LFE1583:
	.section	.gcc_except_table
.LLSDA1583:
	.byte	0xff
	.byte	0xff
	.byte	0x1
	.uleb128 .LLSDACSE1583-.LLSDACSB1583
.LLSDACSB1583:
	.uleb128 .LEHB73-.LFB1583
	.uleb128 .LEHE73-.LEHB73
	.uleb128 .L742-.LFB1583
	.uleb128 0
	.uleb128 .LEHB74-.LFB1583
	.uleb128 .LEHE74-.LEHB74
	.uleb128 .L743-.LFB1583
	.uleb128 0
	.uleb128 .LEHB75-.LFB1583
	.uleb128 .LEHE75-.LEHB75
	.uleb128 .L742-.LFB1583
	.uleb128 0
	.uleb128 .LEHB76-.LFB1583
	.uleb128 .LEHE76-.LEHB76
	.uleb128 0
	.uleb128 0
.LLSDACSE1583:
	.section	.text._ZN7sigslot7signal2IP10GuiElementbNS_15single_threadedEED0Ev,"axG",@progbits,_ZN7sigslot7signal2IP10GuiElementbNS_15single_threadedEED5Ev,comdat
	.size	_ZN7sigslot7signal2IP10GuiElementbNS_15single_threadedEED0Ev, .-_ZN7sigslot7signal2IP10GuiElementbNS_15single_threadedEED0Ev
	.section	.text._ZN10GuiElementD2Ev,"axG",@progbits,_ZN10GuiElementD5Ev,comdat
	.align 2
	.weak	_ZN10GuiElementD2Ev
	.type	_ZN10GuiElementD2Ev, @function
_ZN10GuiElementD2Ev:
.LFB1381:
	.loc 2 89 0
	.cfi_startproc
	.cfi_personality 0,__gxx_personality_v0
	.cfi_lsda 0,.LLSDA1381
.LVL732:
	mflr 0
	stwu 1,-48(1)
.LCFI91:
	.cfi_def_cfa_offset 48
	.cfi_register 65, 0
.LBB4434:
	lis 9,_ZTV10GuiElement+8@ha
.LBE4434:
	stw 27,28(1)
.LBB4696:
.LBB4435:
.LBB4436:
.LBB4437:
	.loc 1 2305 0
	addi 27,3,16
	.cfi_offset 27, -20
.LBE4437:
.LBE4436:
.LBE4435:
.LBE4696:
	.loc 2 89 0
	stw 0,52(1)
.LBB4697:
	la 0,_ZTV10GuiElement+8@l(9)
	.cfi_offset 65, 4
.LBB4571:
.LBB4562:
.LBB4553:
.LBB4438:
.LBB4439:
.LBB4440:
	.loc 1 946 0
	lis 9,_ZTVN7sigslot13_signal_base3IP10GuiElementiiNS_15single_threadedEEE+8@ha
.LBE4440:
.LBE4439:
.LBE4438:
.LBE4553:
.LBE4562:
.LBE4571:
.LBE4697:
	.loc 2 89 0
	stw 28,32(1)
	stw 29,36(1)
	mr 28,3
	.cfi_offset 29, -12
	.cfi_offset 28, -16
	stw 26,24(1)
	addi 29,28,20
	stw 30,40(1)
	stw 31,44(1)
.LBB4698:
	.loc 2 89 0
	stw 0,0(3)
.LVL733:
.LBB4572:
.LBB4563:
.LBB4554:
.LBB4545:
.LBB4537:
.LBB4529:
	.loc 1 946 0
	la 0,_ZTVN7sigslot13_signal_base3IP10GuiElementiiNS_15single_threadedEEE+8@l(9)
.LBB4441:
.LBB4442:
.LBB4443:
.LBB4444:
	.loc 1 338 0
	lis 9,_ZN7sigslot15single_threaded4lockEv@ha
.LBE4444:
.LBE4443:
.LBE4442:
.LBE4441:
	.loc 1 946 0
	stw 0,16(3)
.LVL734:
.LBB4477:
.LBB4473:
.LBB4446:
.LBB4445:
	.loc 1 338 0
	la 9,_ZN7sigslot15single_threaded4lockEv@l(9)
	mr 3,27
.LVL735:
	mtctr 9
.LEHB77:
	.cfi_offset 31, -4
	.cfi_offset 30, -8
	.cfi_offset 26, -24
	bctrl
.LEHE77:
.LBE4445:
.LBE4446:
.LBE4473:
	.loc 3 160 0
	mr 29,28
	lwzu 31,20(29)
.LVL736:
.LBB4474:
	.loc 1 954 0
	cmpw 7,31,29
	beq- 7,.L752
.LVL737:
.L830:
	.loc 1 956 0
	lwz 3,8(31)
	lwz 9,0(3)
	lwz 0,8(9)
	mtctr 0
.LEHB78:
	bctrl
	stw 27,8(1)
	mr 30,3
.LVL738:
.LBB4447:
.LBB4448:
.LBB4449:
.LBB4450:
	.loc 1 338 0
	lwz 9,0(3)
	lwz 0,8(9)
	mtctr 0
	bctrl
.LVL739:
.LBE4450:
.LBE4449:
.LBB4451:
.LBB4452:
	.loc 11 528 0
	addi 3,30,4
	addi 4,1,8
	bl _ZNSt8_Rb_treeIPN7sigslot12_signal_baseINS0_15single_threadedEEES4_St9_IdentityIS4_ESt4lessIS4_ESaIS4_EE5eraseERKS4_
.LVL740:
.LBE4452:
.LBE4451:
.LBB4453:
.LBB4454:
.LBB4455:
	.loc 1 343 0
	lwz 9,0(30)
	mr 3,30
	lwz 0,12(9)
	mtctr 0
	bctrl
.LVL741:
.LBE4455:
.LBE4454:
.LBE4453:
.LBE4448:
.LBE4447:
	.loc 1 957 0
	lwz 3,8(31)
	cmpwi 7,3,0
	beq- 7,.L754
	lwz 9,0(3)
	lwz 0,4(9)
	mtctr 0
	bctrl
.LEHE78:
.L754:
.LVL742:
.LBB4456:
.LBB4457:
	.loc 4 234 0
	lwz 31,0(31)
.LVL743:
.LBE4457:
.LBE4456:
	.loc 1 954 0
	cmpw 7,29,31
	bne+ 7,.L830
.LBE4474:
	.loc 3 160 0
	lwz 31,20(28)
.LVL744:
.LBB4475:
.LBB4458:
.LBB4459:
	.loc 4 1162 0
	cmpw 7,29,31
	bne+ 7,.L833
	b .L752
.LVL745:
.L819:
	.loc 4 1163 0
	mr 31,30
.LVL746:
.L833:
.LBB4460:
.LBB4461:
	.loc 12 112 0
	lwz 30,0(31)
.LVL747:
.LBB4462:
.LBB4463:
	.loc 4 1532 0
	mr 3,31
	bl _ZNSt8__detail15_List_node_base9_M_unhookEv
.LVL748:
.LBB4464:
.LBB4465:
.LBB4466:
	.loc 6 98 0
	mr 3,31
	bl _ZdlPv
.LVL749:
.LBE4466:
.LBE4465:
.LBE4464:
.LBE4463:
.LBE4462:
.LBE4461:
.LBE4460:
	.loc 4 1162 0
	cmpw 7,29,30
	bne+ 7,.L819
.LVL750:
.L752:
.LBE4459:
.LBE4458:
.LBB4467:
.LBB4468:
.LBB4469:
	.loc 1 343 0
	lwz 9,16(28)
	mr 3,27
	lwz 0,12(9)
	mtctr 0
.LEHB79:
	bctrl
.LEHE79:
.LBE4469:
.LBE4468:
.LBE4467:
.LBE4475:
.LBE4477:
.LBB4478:
.LBB4479:
.LBB4480:
.LBB4481:
.LBB4482:
.LBB4483:
	.loc 12 70 0
	lwz 3,20(28)
.LVL751:
	.loc 12 71 0
	cmpw 7,3,29
	bne+ 7,.L835
	b .L770
.LVL752:
.L820:
	.loc 12 74 0
	mr 3,31
.LVL753:
.L835:
.LBB4484:
	lwz 31,0(3)
.LVL754:
.LBB4485:
.LBB4486:
.LBB4487:
	.loc 6 98 0
	bl _ZdlPv
.LVL755:
.LBE4487:
.LBE4486:
.LBE4485:
.LBE4484:
	.loc 12 71 0
	cmpw 7,31,29
	bne+ 7,.L820
.LVL756:
.L770:
.LBE4483:
.LBE4482:
.LBE4481:
.LBE4480:
.LBE4479:
.LBE4478:
.LBE4529:
.LBE4537:
.LBE4545:
.LBE4554:
.LBE4563:
.LBE4572:
.LBB4573:
.LBB4574:
.LBB4575:
.LBB4576:
.LBB4577:
.LBB4578:
	.loc 1 826 0
	lis 9,_ZTVN7sigslot13_signal_base2IP10GuiElementbNS_15single_threadedEEE+8@ha
.LBE4578:
.LBE4577:
.LBE4576:
.LBE4575:
.LBE4574:
.LBE4573:
.LBB4683:
.LBB4564:
.LBB4555:
.LBB4546:
.LBB4538:
.LBB4530:
.LBB4488:
.LBB4489:
.LBB4490:
.LBB4491:
.LBB4492:
.LBB4493:
	.loc 1 105 0
	lis 26,_ZTVN7sigslot15single_threadedE+8@ha
.LBE4493:
.LBE4492:
.LBE4491:
.LBE4490:
.LBE4489:
.LBE4488:
.LBE4530:
.LBE4538:
.LBE4546:
.LBE4555:
.LBE4564:
.LBE4683:
.LBB4684:
.LBB4677:
.LBB4671:
.LBB4665:
.LBB4659:
.LBB4653:
	.loc 1 826 0
	la 0,_ZTVN7sigslot13_signal_base2IP10GuiElementbNS_15single_threadedEEE+8@l(9)
.LBB4579:
.LBB4580:
.LBB4581:
.LBB4582:
	.loc 1 338 0
	lis 9,_ZN7sigslot15single_threaded4lockEv@ha
.LBE4582:
.LBE4581:
.LBE4580:
.LBE4579:
.LBE4653:
.LBE4659:
.LBE4665:
.LBE4671:
.LBE4677:
.LBE4684:
.LBB4685:
.LBB4565:
.LBB4556:
.LBB4547:
.LBB4539:
.LBB4531:
.LBB4504:
.LBB4502:
.LBB4500:
.LBB4498:
.LBB4496:
.LBB4494:
	.loc 1 105 0
	la 26,_ZTVN7sigslot15single_threadedE+8@l(26)
.LBE4494:
.LBE4496:
.LBE4498:
.LBE4500:
.LBE4502:
.LBE4504:
.LBE4531:
.LBE4539:
.LBE4547:
.LBE4556:
.LBE4565:
.LBE4685:
.LBB4686:
.LBB4678:
.LBB4672:
	.loc 1 2238 0
	addi 27,28,4
.LVL757:
.LBB4666:
.LBB4660:
.LBB4654:
.LBB4618:
.LBB4613:
.LBB4585:
.LBB4583:
	.loc 1 338 0
	la 9,_ZN7sigslot15single_threaded4lockEv@l(9)
.LBE4583:
.LBE4585:
.LBE4613:
.LBE4618:
.LBE4654:
.LBE4660:
.LBE4666:
.LBE4672:
.LBE4678:
.LBE4686:
.LBB4687:
.LBB4566:
.LBB4557:
.LBB4548:
.LBB4540:
.LBB4532:
.LBB4505:
.LBB4503:
.LBB4501:
.LBB4499:
.LBB4497:
.LBB4495:
	.loc 1 105 0
	stw 26,16(28)
.LVL758:
.LBE4495:
.LBE4497:
.LBE4499:
.LBE4501:
.LBE4503:
.LBE4505:
.LBE4532:
.LBE4540:
.LBE4548:
.LBE4557:
.LBE4566:
.LBE4687:
.LBB4688:
.LBB4679:
.LBB4673:
.LBB4667:
.LBB4661:
.LBB4655:
	.loc 1 826 0
	stw 0,4(28)
.LVL759:
.LBB4619:
.LBB4614:
.LBB4586:
.LBB4584:
	.loc 1 338 0
	mr 3,27
	mtctr 9
	addi 29,28,8
.LVL760:
.LEHB80:
	bctrl
.LEHE80:
.LBE4584:
.LBE4586:
.LBE4614:
	.loc 3 160 0
	mr 29,28
	lwzu 31,8(29)
.LVL761:
.LBB4615:
	.loc 1 834 0
	cmpw 7,31,29
	beq- 7,.L785
.LVL762:
.L829:
	.loc 1 836 0
	lwz 3,8(31)
	lwz 9,0(3)
	lwz 0,8(9)
	mtctr 0
.LEHB81:
	bctrl
	stw 27,8(1)
	mr 30,3
.LVL763:
.LBB4587:
.LBB4588:
.LBB4589:
.LBB4590:
	.loc 1 338 0
	lwz 9,0(3)
	lwz 0,8(9)
	mtctr 0
	bctrl
.LVL764:
.LBE4590:
.LBE4589:
.LBB4591:
.LBB4592:
	.loc 11 528 0
	addi 3,30,4
	addi 4,1,8
.LVL765:
	bl _ZNSt8_Rb_treeIPN7sigslot12_signal_baseINS0_15single_threadedEEES4_St9_IdentityIS4_ESt4lessIS4_ESaIS4_EE5eraseERKS4_
.LVL766:
.LBE4592:
.LBE4591:
.LBB4593:
.LBB4594:
.LBB4595:
	.loc 1 343 0
	lwz 9,0(30)
	mr 3,30
	lwz 0,12(9)
	mtctr 0
	bctrl
.LVL767:
.LBE4595:
.LBE4594:
.LBE4593:
.LBE4588:
.LBE4587:
	.loc 1 837 0
	lwz 3,8(31)
	cmpwi 7,3,0
	beq- 7,.L787
	lwz 9,0(3)
	lwz 0,4(9)
	mtctr 0
	bctrl
.LEHE81:
.L787:
.LVL768:
.LBB4596:
.LBB4597:
	.loc 4 234 0
	lwz 31,0(31)
.LVL769:
.LBE4597:
.LBE4596:
	.loc 1 834 0
	cmpw 7,29,31
	bne+ 7,.L829
.LBE4615:
	.loc 3 160 0
	lwz 31,8(28)
.LVL770:
.LBB4616:
.LBB4598:
.LBB4599:
	.loc 4 1162 0
	cmpw 7,29,31
	bne+ 7,.L838
	b .L785
.LVL771:
.L822:
	.loc 4 1163 0
	mr 31,30
.LVL772:
.L838:
.LBB4600:
.LBB4601:
	.loc 12 112 0
	lwz 30,0(31)
.LVL773:
.LBB4602:
.LBB4603:
	.loc 4 1532 0
	mr 3,31
	bl _ZNSt8__detail15_List_node_base9_M_unhookEv
.LVL774:
.LBB4604:
.LBB4605:
.LBB4606:
	.loc 6 98 0
	mr 3,31
	bl _ZdlPv
.LVL775:
.LBE4606:
.LBE4605:
.LBE4604:
.LBE4603:
.LBE4602:
.LBE4601:
.LBE4600:
	.loc 4 1162 0
	cmpw 7,29,30
	bne+ 7,.L822
.LVL776:
.L785:
.LBE4599:
.LBE4598:
.LBB4607:
.LBB4608:
.LBB4609:
	.loc 1 343 0
	lwz 9,4(28)
	mr 3,27
	lwz 0,12(9)
	mtctr 0
.LEHB82:
	bctrl
.LEHE82:
.LBE4609:
.LBE4608:
.LBE4607:
.LBE4616:
.LBE4619:
.LBB4620:
.LBB4621:
.LBB4622:
.LBB4623:
.LBB4624:
.LBB4625:
	.loc 12 70 0
	lwz 3,8(28)
.LVL777:
	.loc 12 71 0
	cmpw 7,3,29
	bne+ 7,.L840
	b .L803
.LVL778:
.L823:
	.loc 12 74 0
	mr 3,31
.LVL779:
.L840:
.LBB4626:
	lwz 31,0(3)
.LVL780:
.LBB4627:
.LBB4628:
.LBB4629:
	.loc 6 98 0
	bl _ZdlPv
.LVL781:
.LBE4629:
.LBE4628:
.LBE4627:
.LBE4626:
	.loc 12 71 0
	cmpw 7,31,29
	bne+ 7,.L823
.LVL782:
.L803:
.LBE4625:
.LBE4624:
.LBE4623:
.LBE4622:
.LBE4621:
.LBE4620:
.LBE4655:
.LBE4661:
.LBE4667:
.LBE4673:
.LBE4679:
.LBE4688:
.LBE4698:
	.loc 2 89 0
	lwz 0,52(1)
.LBB4699:
.LBB4689:
.LBB4680:
.LBB4674:
.LBB4668:
.LBB4662:
.LBB4656:
.LBB4630:
.LBB4631:
.LBB4632:
.LBB4633:
.LBB4634:
.LBB4635:
	.loc 1 105 0
	stw 26,4(28)
.LBE4635:
.LBE4634:
.LBE4633:
.LBE4632:
.LBE4631:
.LBE4630:
.LBE4656:
.LBE4662:
.LBE4668:
.LBE4674:
.LBE4680:
.LBE4689:
.LBE4699:
	.loc 2 89 0
	mtlr 0
	lwz 26,24(1)
	lwz 27,28(1)
.LVL783:
	lwz 28,32(1)
.LVL784:
	lwz 29,36(1)
.LVL785:
	lwz 30,40(1)
	lwz 31,44(1)
	addi 1,1,48
	.cfi_remember_state
.LCFI92:
	.cfi_def_cfa_offset 0
	.cfi_restore 31
	.cfi_restore 30
	.cfi_restore 29
	.cfi_restore 28
	.cfi_restore 27
	.cfi_restore 26
	blr
.LVL786:
.L825:
.LCFI93:
	.cfi_restore_state
	mr 31,3
.L762:
.LBB4700:
.LBB4690:
.LBB4567:
.LBB4558:
.LBB4549:
.LBB4541:
.LBB4533:
.LBB4506:
.LBB4507:
.LBB4508:
.LBB4509:
.LBB4510:
.LBB4511:
	.loc 12 70 0
	lwz 3,20(28)
.LVL787:
	.loc 12 71 0
	cmpw 7,3,29
	beq- 7,.L779
.LVL788:
.L837:
.LBB4512:
	.loc 12 74 0
	lwz 30,0(3)
.LVL789:
.LBB4513:
.LBB4514:
.LBB4515:
	.loc 6 98 0
	bl _ZdlPv
.LVL790:
.LBE4515:
.LBE4514:
.LBE4513:
.LBE4512:
	.loc 12 71 0
	cmpw 7,30,29
	beq- 7,.L779
	.loc 12 74 0
	mr 3,30
	b .L837
.LVL791:
.L828:
.LBE4511:
.LBE4510:
.LBE4509:
.LBE4508:
.LBE4507:
.LBE4506:
.LBE4533:
.LBE4541:
.LBE4549:
.LBE4558:
.LBE4567:
.LBE4690:
.LBB4691:
.LBB4681:
.LBB4675:
.LBB4669:
.LBB4663:
.LBB4657:
.LBB4636:
.LBB4617:
.LBB4610:
.LBB4611:
.LBB4612:
	.loc 1 343 0
	lwz 9,4(28)
	mr 31,3
.LVL792:
	mr 3,27
	lwz 0,12(9)
	mtctr 0
	bctrl
.LVL793:
.L795:
.LBE4612:
.LBE4611:
.LBE4610:
.LBE4617:
.LBE4636:
.LBB4637:
.LBB4638:
.LBB4639:
.LBB4640:
.LBB4641:
.LBB4642:
	.loc 12 70 0
	lwz 3,8(28)
.LVL794:
	.loc 12 71 0
	cmpw 7,3,29
	beq- 7,.L812
.LVL795:
.L841:
.LBB4643:
	.loc 12 74 0
	lwz 30,0(3)
.LVL796:
.LBB4644:
.LBB4645:
.LBB4646:
	.loc 6 98 0
	bl _ZdlPv
.LVL797:
.LBE4646:
.LBE4645:
.LBE4644:
.LBE4643:
	.loc 12 71 0
	cmpw 7,30,29
	beq- 7,.L812
	.loc 12 74 0
	mr 3,30
	b .L841
.LVL798:
.L779:
.LBE4642:
.LBE4641:
.LBE4640:
.LBE4639:
.LBE4638:
.LBE4637:
.LBE4657:
.LBE4663:
.LBE4669:
.LBE4675:
.LBE4681:
.LBE4691:
.LBB4692:
.LBB4568:
.LBB4559:
.LBB4550:
.LBB4542:
.LBB4534:
.LBB4516:
.LBB4517:
.LBB4518:
.LBB4519:
.LBB4520:
.LBB4521:
	.loc 1 105 0
	lis 9,_ZTVN7sigslot15single_threadedE+8@ha
.LBE4521:
.LBE4520:
.LBE4519:
.LBE4518:
.LBE4517:
.LBE4516:
.LBE4534:
.LBE4542:
.LBE4550:
.LBE4559:
.LBE4568:
.LBE4692:
	.loc 2 89 0
	addi 3,28,4
.LBB4693:
.LBB4569:
.LBB4560:
.LBB4551:
.LBB4543:
.LBB4535:
.LBB4527:
.LBB4526:
.LBB4525:
.LBB4524:
.LBB4523:
.LBB4522:
	.loc 1 105 0
	la 0,_ZTVN7sigslot15single_threadedE+8@l(9)
	stw 0,16(28)
.LBE4522:
.LBE4523:
.LBE4524:
.LBE4525:
.LBE4526:
.LBE4527:
.LBE4535:
.LBE4543:
.LBE4551:
.LBE4560:
.LBE4569:
.LBE4693:
	.loc 2 89 0
	bl _ZN7sigslot7signal2IP10GuiElementbNS_15single_threadedEED1Ev
	mr 3,31
.LEHB83:
	bl _Unwind_Resume
.LVL799:
.L812:
.LBB4694:
.LBB4682:
.LBB4676:
.LBB4670:
.LBB4664:
.LBB4658:
.LBB4647:
.LBB4648:
.LBB4649:
.LBB4650:
.LBB4651:
.LBB4652:
	.loc 1 105 0
	stw 26,4(28)
	mr 3,31
	bl _Unwind_Resume
.LEHE83:
.LVL800:
.L827:
	mr 31,3
	b .L795
.LVL801:
.L826:
.LBE4652:
.LBE4651:
.LBE4650:
.LBE4649:
.LBE4648:
.LBE4647:
.LBE4658:
.LBE4664:
.LBE4670:
.LBE4676:
.LBE4682:
.LBE4694:
.LBB4695:
.LBB4570:
.LBB4561:
.LBB4552:
.LBB4544:
.LBB4536:
.LBB4528:
.LBB4476:
.LBB4470:
.LBB4471:
.LBB4472:
	.loc 1 343 0
	lwz 9,16(28)
	mr 31,3
.LVL802:
	mr 3,27
	lwz 0,12(9)
	mtctr 0
	bctrl
	b .L762
.LBE4472:
.LBE4471:
.LBE4470:
.LBE4476:
.LBE4528:
.LBE4536:
.LBE4544:
.LBE4552:
.LBE4561:
.LBE4570:
.LBE4695:
.LBE4700:
	.cfi_endproc
.LFE1381:
	.section	.gcc_except_table
.LLSDA1381:
	.byte	0xff
	.byte	0xff
	.byte	0x1
	.uleb128 .LLSDACSE1381-.LLSDACSB1381
.LLSDACSB1381:
	.uleb128 .LEHB77-.LFB1381
	.uleb128 .LEHE77-.LEHB77
	.uleb128 .L825-.LFB1381
	.uleb128 0
	.uleb128 .LEHB78-.LFB1381
	.uleb128 .LEHE78-.LEHB78
	.uleb128 .L826-.LFB1381
	.uleb128 0
	.uleb128 .LEHB79-.LFB1381
	.uleb128 .LEHE79-.LEHB79
	.uleb128 .L825-.LFB1381
	.uleb128 0
	.uleb128 .LEHB80-.LFB1381
	.uleb128 .LEHE80-.LEHB80
	.uleb128 .L827-.LFB1381
	.uleb128 0
	.uleb128 .LEHB81-.LFB1381
	.uleb128 .LEHE81-.LEHB81
	.uleb128 .L828-.LFB1381
	.uleb128 0
	.uleb128 .LEHB82-.LFB1381
	.uleb128 .LEHE82-.LEHB82
	.uleb128 .L827-.LFB1381
	.uleb128 0
	.uleb128 .LEHB83-.LFB1381
	.uleb128 .LEHE83-.LEHB83
	.uleb128 0
	.uleb128 0
.LLSDACSE1381:
	.section	.text._ZN10GuiElementD2Ev,"axG",@progbits,_ZN10GuiElementD5Ev,comdat
	.size	_ZN10GuiElementD2Ev, .-_ZN10GuiElementD2Ev
	.section	".text"
	.align 2
	.globl _ZN10GuiTooltipD2Ev
	.type	_ZN10GuiTooltipD2Ev, @function
_ZN10GuiTooltipD2Ev:
.LFB1567:
	.loc 3 74 0
	.cfi_startproc
	.cfi_personality 0,__gxx_personality_v0
	.cfi_lsda 0,.LLSDA1567
.LVL803:
	mflr 0
	stwu 1,-48(1)
.LCFI94:
	.cfi_def_cfa_offset 48
	.cfi_register 65, 0
.LBB4903:
	lis 9,_ZTV10GuiTooltip+8@ha
.LBE4903:
	stw 28,32(1)
	mr 28,3
	.cfi_offset 28, -16
	stw 0,52(1)
.LBB5156:
	la 0,_ZTV10GuiTooltip+8@l(9)
	.cfi_offset 65, 4
.LBE5156:
	stw 26,24(1)
.LBB5157:
	.loc 3 76 0
	lwz 3,180(3)
.LVL804:
.LBE5157:
	.loc 3 74 0
	stw 27,28(1)
.LBB5158:
	.loc 3 76 0
	cmpwi 7,3,0
.LBE5158:
	.loc 3 74 0
	stw 29,36(1)
	stw 30,40(1)
	stw 31,44(1)
.LBB5159:
	.loc 3 74 0
	stw 0,0(28)
	.loc 3 76 0
	beq- 7,.L843
	.cfi_offset 31, -4
	.cfi_offset 30, -8
	.cfi_offset 29, -12
	.cfi_offset 27, -20
	.cfi_offset 26, -24
	.loc 3 77 0 discriminator 1
	lwz 9,0(3)
	lwz 0,4(9)
	mtctr 0
.LEHB84:
	bctrl
.L843:
	.loc 3 79 0
	lwz 3,156(28)
	cmpwi 7,3,0
	beq- 7,.L844
	.loc 3 79 0 is_stmt 0 discriminator 1
	lwz 9,0(3)
	lwz 0,4(9)
	mtctr 0
	bctrl
.L844:
	.loc 3 80 0 is_stmt 1
	lwz 3,160(28)
	cmpwi 7,3,0
	beq- 7,.L845
	.loc 3 80 0 is_stmt 0 discriminator 1
	lwz 9,0(3)
	lwz 0,4(9)
	mtctr 0
	bctrl
.L845:
	.loc 3 81 0 is_stmt 1
	lwz 3,164(28)
	cmpwi 7,3,0
	beq- 7,.L846
	.loc 3 81 0 is_stmt 0 discriminator 1
	lwz 9,0(3)
	lwz 0,4(9)
	mtctr 0
	bctrl
.L846:
	.loc 3 83 0 is_stmt 1
	lwz 3,168(28)
	bl _ZN9Resources6RemoveEP12GuiImageData
	.loc 3 84 0
	lwz 3,172(28)
	bl _ZN9Resources6RemoveEP12GuiImageData
	.loc 3 85 0
	lwz 3,176(28)
	bl _ZN9Resources6RemoveEP12GuiImageData
.LEHE84:
.LVL805:
.LBB4904:
.LBB4905:
.LBB4906:
	.loc 2 89 0
	lis 9,_ZTV10GuiElement+8@ha
.LBB4907:
.LBB4908:
.LBB4909:
	.loc 1 2305 0
	addi 27,28,16
.LBE4909:
.LBE4908:
.LBE4907:
	.loc 2 89 0
	la 0,_ZTV10GuiElement+8@l(9)
.LBB5033:
.LBB5026:
.LBB5019:
.LBB4910:
.LBB4911:
.LBB4912:
	.loc 1 946 0
	lis 9,_ZTVN7sigslot13_signal_base3IP10GuiElementiiNS_15single_threadedEEE+8@ha
.LBE4912:
.LBE4911:
.LBE4910:
.LBE5019:
.LBE5026:
.LBE5033:
	.loc 2 89 0
	stw 0,0(28)
.LVL806:
.LBB5034:
.LBB5027:
.LBB5020:
.LBB5013:
.LBB5007:
.LBB5001:
	.loc 1 946 0
	la 0,_ZTVN7sigslot13_signal_base3IP10GuiElementiiNS_15single_threadedEEE+8@l(9)
.LBB4913:
.LBB4914:
.LBB4915:
.LBB4916:
	.loc 1 338 0
	lis 9,_ZN7sigslot15single_threaded4lockEv@ha
.LBE4916:
.LBE4915:
.LBE4914:
.LBE4913:
	.loc 1 946 0
	stw 0,16(28)
.LVL807:
.LBB4949:
.LBB4945:
.LBB4918:
.LBB4917:
	.loc 1 338 0
	la 9,_ZN7sigslot15single_threaded4lockEv@l(9)
	mr 3,27
	mtctr 9
	addi 29,28,20
.LEHB85:
	bctrl
.LEHE85:
.LBE4917:
.LBE4918:
.LBE4945:
	.loc 3 160 0
	mr 29,28
	lwzu 31,20(29)
.LVL808:
.LBB4946:
	.loc 1 954 0
	cmpw 7,31,29
	beq- 7,.L848
.LVL809:
.L929:
	.loc 1 956 0
	lwz 3,8(31)
	lwz 9,0(3)
	lwz 0,8(9)
	mtctr 0
.LEHB86:
	bctrl
	stw 27,8(1)
	mr 30,3
.LVL810:
.LBB4919:
.LBB4920:
.LBB4921:
.LBB4922:
	.loc 1 338 0
	lwz 9,0(3)
	lwz 0,8(9)
	mtctr 0
	bctrl
.LVL811:
.LBE4922:
.LBE4921:
.LBB4923:
.LBB4924:
	.loc 11 528 0
	addi 3,30,4
	addi 4,1,8
	bl _ZNSt8_Rb_treeIPN7sigslot12_signal_baseINS0_15single_threadedEEES4_St9_IdentityIS4_ESt4lessIS4_ESaIS4_EE5eraseERKS4_
.LVL812:
.LBE4924:
.LBE4923:
.LBB4925:
.LBB4926:
.LBB4927:
	.loc 1 343 0
	lwz 9,0(30)
	mr 3,30
	lwz 0,12(9)
	mtctr 0
	bctrl
.LVL813:
.LBE4927:
.LBE4926:
.LBE4925:
.LBE4920:
.LBE4919:
	.loc 1 957 0
	lwz 3,8(31)
	cmpwi 7,3,0
	beq- 7,.L850
	lwz 9,0(3)
	lwz 0,4(9)
	mtctr 0
	bctrl
.LEHE86:
.L850:
.LVL814:
.LBB4928:
.LBB4929:
	.loc 4 234 0
	lwz 31,0(31)
.LVL815:
.LBE4929:
.LBE4928:
	.loc 1 954 0
	cmpw 7,29,31
	bne+ 7,.L929
.LBE4946:
	.loc 3 160 0
	lwz 31,20(28)
.LVL816:
.LBB4947:
.LBB4930:
.LBB4931:
	.loc 4 1162 0
	cmpw 7,29,31
	bne+ 7,.L932
	b .L848
.LVL817:
.L917:
	.loc 4 1163 0
	mr 31,30
.LVL818:
.L932:
.LBB4932:
.LBB4933:
	.loc 12 112 0
	lwz 30,0(31)
.LVL819:
.LBB4934:
.LBB4935:
	.loc 4 1532 0
	mr 3,31
	bl _ZNSt8__detail15_List_node_base9_M_unhookEv
.LVL820:
.LBB4936:
.LBB4937:
.LBB4938:
	.loc 6 98 0
	mr 3,31
	bl _ZdlPv
.LVL821:
.LBE4938:
.LBE4937:
.LBE4936:
.LBE4935:
.LBE4934:
.LBE4933:
.LBE4932:
	.loc 4 1162 0
	cmpw 7,29,30
	bne+ 7,.L917
.LVL822:
.L848:
.LBE4931:
.LBE4930:
.LBB4939:
.LBB4940:
.LBB4941:
	.loc 1 343 0
	lwz 9,16(28)
	mr 3,27
	lwz 0,12(9)
	mtctr 0
.LEHB87:
	bctrl
.LEHE87:
.LBE4941:
.LBE4940:
.LBE4939:
.LBE4947:
.LBE4949:
.LBB4950:
.LBB4951:
.LBB4952:
.LBB4953:
.LBB4954:
.LBB4955:
	.loc 12 70 0
	lwz 3,20(28)
.LVL823:
	.loc 12 71 0
	cmpw 7,3,29
	bne+ 7,.L934
	b .L866
.LVL824:
.L918:
	.loc 12 74 0
	mr 3,31
.LVL825:
.L934:
.LBB4956:
	lwz 31,0(3)
.LVL826:
.LBB4957:
.LBB4958:
.LBB4959:
	.loc 6 98 0
	bl _ZdlPv
.LVL827:
.LBE4959:
.LBE4958:
.LBE4957:
.LBE4956:
	.loc 12 71 0
	cmpw 7,31,29
	bne+ 7,.L918
.LVL828:
.L866:
.LBE4955:
.LBE4954:
.LBE4953:
.LBE4952:
.LBE4951:
.LBE4950:
.LBE5001:
.LBE5007:
.LBE5013:
.LBE5020:
.LBE5027:
.LBE5034:
.LBB5035:
.LBB5036:
.LBB5037:
.LBB5038:
.LBB5039:
.LBB5040:
	.loc 1 826 0
	lis 9,_ZTVN7sigslot13_signal_base2IP10GuiElementbNS_15single_threadedEEE+8@ha
.LBE5040:
.LBE5039:
.LBE5038:
.LBE5037:
.LBE5036:
.LBE5035:
.LBB5140:
.LBB5028:
.LBB5021:
.LBB5014:
.LBB5008:
.LBB5002:
.LBB4960:
.LBB4961:
.LBB4962:
.LBB4963:
.LBB4964:
.LBB4965:
	.loc 1 105 0
	lis 26,_ZTVN7sigslot15single_threadedE+8@ha
.LBE4965:
.LBE4964:
.LBE4963:
.LBE4962:
.LBE4961:
.LBE4960:
.LBE5002:
.LBE5008:
.LBE5014:
.LBE5021:
.LBE5028:
.LBE5140:
.LBB5141:
.LBB5135:
.LBB5130:
.LBB5125:
.LBB5120:
.LBB5115:
	.loc 1 826 0
	la 0,_ZTVN7sigslot13_signal_base2IP10GuiElementbNS_15single_threadedEEE+8@l(9)
.LBB5041:
.LBB5042:
.LBB5043:
.LBB5044:
	.loc 1 338 0
	lis 9,_ZN7sigslot15single_threaded4lockEv@ha
.LBE5044:
.LBE5043:
.LBE5042:
.LBE5041:
.LBE5115:
.LBE5120:
.LBE5125:
.LBE5130:
.LBE5135:
.LBE5141:
.LBB5142:
.LBB5029:
.LBB5022:
.LBB5015:
.LBB5009:
.LBB5003:
.LBB4976:
.LBB4974:
.LBB4972:
.LBB4970:
.LBB4968:
.LBB4966:
	.loc 1 105 0
	la 26,_ZTVN7sigslot15single_threadedE+8@l(26)
.LBE4966:
.LBE4968:
.LBE4970:
.LBE4972:
.LBE4974:
.LBE4976:
.LBE5003:
.LBE5009:
.LBE5015:
.LBE5022:
.LBE5029:
.LBE5142:
.LBB5143:
.LBB5136:
.LBB5131:
	.loc 1 2238 0
	addi 27,28,4
.LVL829:
.LBB5126:
.LBB5121:
.LBB5116:
.LBB5080:
.LBB5075:
.LBB5047:
.LBB5045:
	.loc 1 338 0
	la 9,_ZN7sigslot15single_threaded4lockEv@l(9)
.LBE5045:
.LBE5047:
.LBE5075:
.LBE5080:
.LBE5116:
.LBE5121:
.LBE5126:
.LBE5131:
.LBE5136:
.LBE5143:
.LBB5144:
.LBB5030:
.LBB5023:
.LBB5016:
.LBB5010:
.LBB5004:
.LBB4977:
.LBB4975:
.LBB4973:
.LBB4971:
.LBB4969:
.LBB4967:
	.loc 1 105 0
	stw 26,16(28)
.LVL830:
.LBE4967:
.LBE4969:
.LBE4971:
.LBE4973:
.LBE4975:
.LBE4977:
.LBE5004:
.LBE5010:
.LBE5016:
.LBE5023:
.LBE5030:
.LBE5144:
.LBB5145:
.LBB5137:
.LBB5132:
.LBB5127:
.LBB5122:
.LBB5117:
	.loc 1 826 0
	stw 0,4(28)
.LVL831:
.LBB5081:
.LBB5076:
.LBB5048:
.LBB5046:
	.loc 1 338 0
	mr 3,27
	mtctr 9
	addi 29,28,8
.LVL832:
.LEHB88:
	bctrl
.LEHE88:
.LBE5046:
.LBE5048:
.LBE5076:
	.loc 3 160 0
	mr 29,28
	lwzu 31,8(29)
.LVL833:
.LBB5077:
	.loc 1 834 0
	cmpw 7,31,29
	beq- 7,.L881
.LVL834:
.L928:
	.loc 1 836 0
	lwz 3,8(31)
	lwz 9,0(3)
	lwz 0,8(9)
	mtctr 0
.LEHB89:
	bctrl
	stw 27,8(1)
	mr 30,3
.LVL835:
.LBB5049:
.LBB5050:
.LBB5051:
.LBB5052:
	.loc 1 338 0
	lwz 9,0(3)
	lwz 0,8(9)
	mtctr 0
	bctrl
.LVL836:
.LBE5052:
.LBE5051:
.LBB5053:
.LBB5054:
	.loc 11 528 0
	addi 3,30,4
	addi 4,1,8
.LVL837:
	bl _ZNSt8_Rb_treeIPN7sigslot12_signal_baseINS0_15single_threadedEEES4_St9_IdentityIS4_ESt4lessIS4_ESaIS4_EE5eraseERKS4_
.LVL838:
.LBE5054:
.LBE5053:
.LBB5055:
.LBB5056:
.LBB5057:
	.loc 1 343 0
	lwz 9,0(30)
	mr 3,30
	lwz 0,12(9)
	mtctr 0
	bctrl
.LVL839:
.LBE5057:
.LBE5056:
.LBE5055:
.LBE5050:
.LBE5049:
	.loc 1 837 0
	lwz 3,8(31)
	cmpwi 7,3,0
	beq- 7,.L883
	lwz 9,0(3)
	lwz 0,4(9)
	mtctr 0
	bctrl
.LEHE89:
.L883:
.LVL840:
.LBB5058:
.LBB5059:
	.loc 4 234 0
	lwz 31,0(31)
.LVL841:
.LBE5059:
.LBE5058:
	.loc 1 834 0
	cmpw 7,29,31
	bne+ 7,.L928
.LBE5077:
	.loc 3 160 0
	lwz 31,8(28)
.LVL842:
.LBB5078:
.LBB5060:
.LBB5061:
	.loc 4 1162 0
	cmpw 7,29,31
	bne+ 7,.L937
	b .L881
.LVL843:
.L920:
	.loc 4 1163 0
	mr 31,30
.LVL844:
.L937:
.LBB5062:
.LBB5063:
	.loc 12 112 0
	lwz 30,0(31)
.LVL845:
.LBB5064:
.LBB5065:
	.loc 4 1532 0
	mr 3,31
	bl _ZNSt8__detail15_List_node_base9_M_unhookEv
.LVL846:
.LBB5066:
.LBB5067:
.LBB5068:
	.loc 6 98 0
	mr 3,31
	bl _ZdlPv
.LVL847:
.LBE5068:
.LBE5067:
.LBE5066:
.LBE5065:
.LBE5064:
.LBE5063:
.LBE5062:
	.loc 4 1162 0
	cmpw 7,29,30
	bne+ 7,.L920
.LVL848:
.L881:
.LBE5061:
.LBE5060:
.LBB5069:
.LBB5070:
.LBB5071:
	.loc 1 343 0
	lwz 9,4(28)
	mr 3,27
	lwz 0,12(9)
	mtctr 0
.LEHB90:
	bctrl
.LEHE90:
.LBE5071:
.LBE5070:
.LBE5069:
.LBE5078:
.LBE5081:
.LBB5082:
.LBB5083:
.LBB5084:
.LBB5085:
.LBB5086:
.LBB5087:
	.loc 12 70 0
	lwz 3,8(28)
.LVL849:
	.loc 12 71 0
	cmpw 7,3,29
	bne+ 7,.L939
	b .L899
.LVL850:
.L921:
	.loc 12 74 0
	mr 3,31
.LVL851:
.L939:
.LBB5088:
	lwz 31,0(3)
.LVL852:
.LBB5089:
.LBB5090:
.LBB5091:
	.loc 6 98 0
	bl _ZdlPv
.LVL853:
.LBE5091:
.LBE5090:
.LBE5089:
.LBE5088:
	.loc 12 71 0
	cmpw 7,31,29
	bne+ 7,.L921
.LVL854:
.L899:
.LBE5087:
.LBE5086:
.LBE5085:
.LBE5084:
.LBE5083:
.LBE5082:
.LBE5117:
.LBE5122:
.LBE5127:
.LBE5132:
.LBE5137:
.LBE5145:
.LBE4906:
.LBE4905:
.LBE4904:
.LBE5159:
	.loc 3 86 0
	lwz 0,52(1)
.LBB5160:
.LBB5154:
.LBB5152:
.LBB5150:
.LBB5146:
.LBB5138:
.LBB5133:
.LBB5128:
.LBB5123:
.LBB5118:
.LBB5092:
.LBB5093:
.LBB5094:
.LBB5095:
.LBB5096:
.LBB5097:
	.loc 1 105 0
	stw 26,4(28)
.LBE5097:
.LBE5096:
.LBE5095:
.LBE5094:
.LBE5093:
.LBE5092:
.LBE5118:
.LBE5123:
.LBE5128:
.LBE5133:
.LBE5138:
.LBE5146:
.LBE5150:
.LBE5152:
.LBE5154:
.LBE5160:
	.loc 3 86 0
	mtlr 0
	lwz 26,24(1)
	lwz 27,28(1)
.LVL855:
	lwz 28,32(1)
.LVL856:
	lwz 29,36(1)
.LVL857:
	lwz 30,40(1)
	lwz 31,44(1)
	addi 1,1,48
	.cfi_remember_state
.LCFI95:
	.cfi_def_cfa_offset 0
	.cfi_restore 31
	.cfi_restore 30
	.cfi_restore 29
	.cfi_restore 28
	.cfi_restore 27
	.cfi_restore 26
	blr
.LVL858:
.L923:
.LCFI96:
	.cfi_restore_state
	mr 31,3
.LBB5161:
	.loc 3 74 0
	mr 3,28
	bl _ZN10GuiElementD2Ev
	mr 3,31
.LEHB91:
	bl _Unwind_Resume
.LEHE91:
.LVL859:
.L927:
.LBB5155:
.LBB5153:
.LBB5151:
.LBB5147:
.LBB5139:
.LBB5134:
.LBB5129:
.LBB5124:
.LBB5119:
.LBB5098:
.LBB5079:
.LBB5072:
.LBB5073:
.LBB5074:
	.loc 1 343 0
	lwz 9,4(28)
	mr 31,3
.LVL860:
	mr 3,27
	lwz 0,12(9)
	mtctr 0
	bctrl
.LVL861:
.L891:
.LBE5074:
.LBE5073:
.LBE5072:
.LBE5079:
.LBE5098:
.LBB5099:
.LBB5100:
.LBB5101:
.LBB5102:
.LBB5103:
.LBB5104:
	.loc 12 70 0
	lwz 3,8(28)
.LVL862:
	.loc 12 71 0
	cmpw 7,3,29
	beq- 7,.L908
.LVL863:
.L940:
.LBB5105:
	.loc 12 74 0
	lwz 30,0(3)
.LVL864:
.LBB5106:
.LBB5107:
.LBB5108:
	.loc 6 98 0
	bl _ZdlPv
.LVL865:
.LBE5108:
.LBE5107:
.LBE5106:
.LBE5105:
	.loc 12 71 0
	cmpw 7,30,29
	beq- 7,.L908
	.loc 12 74 0
	mr 3,30
	b .L940
.LVL866:
.L926:
	mr 31,3
	b .L891
.L908:
.LBE5104:
.LBE5103:
.LBE5102:
.LBE5101:
.LBE5100:
.LBE5099:
.LBB5109:
.LBB5110:
.LBB5111:
.LBB5112:
.LBB5113:
.LBB5114:
	.loc 1 105 0
	stw 26,4(28)
	mr 3,31
.LEHB92:
	bl _Unwind_Resume
.LEHE92:
.LVL867:
.L925:
.LBE5114:
.LBE5113:
.LBE5112:
.LBE5111:
.LBE5110:
.LBE5109:
.LBE5119:
.LBE5124:
.LBE5129:
.LBE5134:
.LBE5139:
.LBE5147:
.LBB5148:
.LBB5031:
.LBB5024:
.LBB5017:
.LBB5011:
.LBB5005:
.LBB4978:
.LBB4948:
.LBB4942:
.LBB4943:
.LBB4944:
	.loc 1 343 0
	lwz 9,16(28)
	mr 31,3
.LVL868:
	mr 3,27
	lwz 0,12(9)
	mtctr 0
	bctrl
.LVL869:
.L858:
.LBE4944:
.LBE4943:
.LBE4942:
.LBE4948:
.LBE4978:
.LBB4979:
.LBB4980:
.LBB4981:
.LBB4982:
.LBB4983:
.LBB4984:
	.loc 12 70 0
	lwz 3,20(28)
.LVL870:
	.loc 12 71 0
	cmpw 7,3,29
	beq- 7,.L875
.LVL871:
.L936:
.LBB4985:
	.loc 12 74 0
	lwz 30,0(3)
.LVL872:
.LBB4986:
.LBB4987:
.LBB4988:
	.loc 6 98 0
	bl _ZdlPv
.LVL873:
.LBE4988:
.LBE4987:
.LBE4986:
.LBE4985:
	.loc 12 71 0
	cmpw 7,30,29
	beq- 7,.L875
	.loc 12 74 0
	mr 3,30
	b .L936
.LVL874:
.L924:
	mr 31,3
	b .L858
.L875:
.LBE4984:
.LBE4983:
.LBE4982:
.LBE4981:
.LBE4980:
.LBE4979:
.LBB4989:
.LBB4990:
.LBB4991:
.LBB4992:
.LBB4993:
.LBB4994:
	.loc 1 105 0
	lis 9,_ZTVN7sigslot15single_threadedE+8@ha
.LBE4994:
.LBE4993:
.LBE4992:
.LBE4991:
.LBE4990:
.LBE4989:
.LBE5005:
.LBE5011:
.LBE5017:
.LBE5024:
.LBE5031:
.LBE5148:
	.loc 2 89 0
	addi 3,28,4
.LBB5149:
.LBB5032:
.LBB5025:
.LBB5018:
.LBB5012:
.LBB5006:
.LBB5000:
.LBB4999:
.LBB4998:
.LBB4997:
.LBB4996:
.LBB4995:
	.loc 1 105 0
	la 0,_ZTVN7sigslot15single_threadedE+8@l(9)
	stw 0,16(28)
.LBE4995:
.LBE4996:
.LBE4997:
.LBE4998:
.LBE4999:
.LBE5000:
.LBE5006:
.LBE5012:
.LBE5018:
.LBE5025:
.LBE5032:
.LBE5149:
	.loc 2 89 0
	bl _ZN7sigslot7signal2IP10GuiElementbNS_15single_threadedEED1Ev
	mr 3,31
.LEHB93:
	bl _Unwind_Resume
.LEHE93:
.LBE5151:
.LBE5153:
.LBE5155:
.LBE5161:
	.cfi_endproc
.LFE1567:
	.section	.gcc_except_table
.LLSDA1567:
	.byte	0xff
	.byte	0xff
	.byte	0x1
	.uleb128 .LLSDACSE1567-.LLSDACSB1567
.LLSDACSB1567:
	.uleb128 .LEHB84-.LFB1567
	.uleb128 .LEHE84-.LEHB84
	.uleb128 .L923-.LFB1567
	.uleb128 0
	.uleb128 .LEHB85-.LFB1567
	.uleb128 .LEHE85-.LEHB85
	.uleb128 .L924-.LFB1567
	.uleb128 0
	.uleb128 .LEHB86-.LFB1567
	.uleb128 .LEHE86-.LEHB86
	.uleb128 .L925-.LFB1567
	.uleb128 0
	.uleb128 .LEHB87-.LFB1567
	.uleb128 .LEHE87-.LEHB87
	.uleb128 .L924-.LFB1567
	.uleb128 0
	.uleb128 .LEHB88-.LFB1567
	.uleb128 .LEHE88-.LEHB88
	.uleb128 .L926-.LFB1567
	.uleb128 0
	.uleb128 .LEHB89-.LFB1567
	.uleb128 .LEHE89-.LEHB89
	.uleb128 .L927-.LFB1567
	.uleb128 0
	.uleb128 .LEHB90-.LFB1567
	.uleb128 .LEHE90-.LEHB90
	.uleb128 .L926-.LFB1567
	.uleb128 0
	.uleb128 .LEHB91-.LFB1567
	.uleb128 .LEHE91-.LEHB91
	.uleb128 0
	.uleb128 0
	.uleb128 .LEHB92-.LFB1567
	.uleb128 .LEHE92-.LEHB92
	.uleb128 0
	.uleb128 0
	.uleb128 .LEHB93-.LFB1567
	.uleb128 .LEHE93-.LEHB93
	.uleb128 0
	.uleb128 0
.LLSDACSE1567:
	.section	".text"
	.size	_ZN10GuiTooltipD2Ev, .-_ZN10GuiTooltipD2Ev
	.align 2
	.globl _ZN10GuiTooltipD0Ev
	.type	_ZN10GuiTooltipD0Ev, @function
_ZN10GuiTooltipD0Ev:
.LFB1569:
	.loc 3 74 0
	.cfi_startproc
.LVL875:
	stwu 1,-16(1)
.LCFI97:
	.cfi_def_cfa_offset 16
	mflr 0
	stw 31,12(1)
	mr 31,3
	.cfi_offset 31, -4
	.cfi_register 65, 0
	stw 0,20(1)
	.loc 3 86 0
	.cfi_offset 65, 4
	bl _ZN10GuiTooltipD1Ev
.LVL876:
	mr 3,31
	bl _ZdlPv
	lwz 0,20(1)
	lwz 31,12(1)
.LVL877:
	mtlr 0
	addi 1,1,16
.LCFI98:
	.cfi_def_cfa_offset 0
	.cfi_restore 31
	blr
	.cfi_endproc
.LFE1569:
	.size	_ZN10GuiTooltipD0Ev, .-_ZN10GuiTooltipD0Ev
	.align 2
	.globl _ZN10GuiTooltipC2ESbIwSt11char_traitsIwESaIwEE
	.type	_ZN10GuiTooltipC2ESbIwSt11char_traitsIwESaIwEE, @function
_ZN10GuiTooltipC2ESbIwSt11char_traitsIwESaIwEE:
.LFB1563:
	.loc 3 45 0
	.cfi_startproc
	.cfi_personality 0,__gxx_personality_v0
	.cfi_lsda 0,.LLSDA1563
.LVL878:
	mflr 0
	stwu 1,-40(1)
.LCFI99:
	.cfi_def_cfa_offset 40
	.cfi_register 65, 0
	stw 30,32(1)
	mr 30,3
	.cfi_offset 30, -8
	stw 0,44(1)
	stw 31,36(1)
	mr 31,4
	.cfi_offset 31, -4
	.cfi_offset 65, 4
	stw 28,24(1)
	stw 29,28(1)
.LEHB94:
.LBB5205:
	.loc 3 45 0
	.cfi_offset 29, -12
	.cfi_offset 28, -16
	bl _ZN10GuiElementC2Ev
.LEHE94:
.LVL879:
	lis 9,_ZTV10GuiTooltip+8@ha
	.loc 3 47 0
	mr 3,30
	.loc 3 45 0
	la 0,_ZTV10GuiTooltip+8@l(9)
	stw 0,0(30)
.LEHB95:
	.loc 3 47 0
	bl _ZN10GuiTooltip12InternalInitEv
	.loc 3 49 0
	addi 3,1,12
	mr 4,31
	bl _ZNSbIwSt11char_traitsIwESaIwEEC1ERKS2_
.LEHE95:
.LVL880:
.LBB5206:
.LBB5207:
	.loc 7 40 0 discriminator 1
	lwz 4,12(1)
	mr 3,30
.LEHB96:
	bl _ZN10GuiTooltip7SetTextEPKw
.LEHE96:
.LVL881:
.LBE5207:
.LBE5206:
.LBB5208:
.LBB5209:
.LBB5210:
.LBB5211:
.LBB5212:
.LBB5213:
	.loc 8 288 0
	lwz 9,12(1)
.LBE5213:
.LBE5212:
.LBE5211:
.LBB5214:
.LBB5215:
	.loc 8 235 0
	lis 11,_ZNSbIwSt11char_traitsIwESaIwEE4_Rep20_S_empty_rep_storageE@ha
	la 0,_ZNSbIwSt11char_traitsIwESaIwEE4_Rep20_S_empty_rep_storageE@l(11)
.LBE5215:
.LBE5214:
	.loc 8 534 0
	addi 3,9,-12
.LVL882:
.LBB5224:
.LBB5222:
	.loc 8 235 0
	cmpw 7,3,0
	bne- 7,.L963
.LVL883:
.L949:
.LBE5222:
.LBE5224:
.LBE5210:
.LBE5209:
.LBE5208:
.LBB5228:
.LBB5229:
.LBB5230:
.LBB5231:
.LBB5232:
.LBB5233:
	.loc 1 338 0 discriminator 1
	lwz 9,4(30)
.LBE5233:
.LBE5232:
.LBE5231:
.LBE5230:
	.loc 2 137 0 discriminator 1
	li 0,0
	stb 0,29(30)
.LVL884:
.LBB5247:
.LBB5244:
	.loc 1 2270 0 discriminator 1
	addi 28,30,4
.LVL885:
.LBB5235:
.LBB5234:
	.loc 1 338 0 discriminator 1
	lwz 0,8(9)
	mr 3,28
	mtctr 0
.LEHB97:
	bctrl
.LEHE97:
.LVL886:
.LBE5234:
.LBE5235:
.LBE5244:
	.loc 3 160 0
	mr 29,30
	lwzu 31,8(29)
.LVL887:
.LBB5245:
	.loc 1 2274 0
	cmpw 7,31,29
	beq- 7,.L950
.LVL888:
.L961:
	.loc 1 2279 0
	lwz 3,8(31)
	mr 4,30
	li 5,0
.LBB5236:
.LBB5237:
	.loc 4 234 0
	lwz 31,0(31)
.LVL889:
.LBE5237:
.LBE5236:
	.loc 1 2279 0
	lwz 9,0(3)
	lwz 0,12(9)
	mtctr 0
.LEHB98:
	bctrl
.LEHE98:
.LVL890:
	.loc 1 2274 0
	cmpw 7,29,31
	bne+ 7,.L961
.LVL891:
.L950:
.LBB5238:
.LBB5239:
.LBB5240:
	.loc 1 343 0
	lwz 9,4(30)
	mr 3,28
	lwz 0,12(9)
	mtctr 0
.LEHB99:
	bctrl
.LEHE99:
.LBE5240:
.LBE5239:
.LBE5238:
.LBE5245:
.LBE5247:
.LBE5229:
.LBE5228:
.LBE5205:
	.loc 3 51 0
	lwz 0,44(1)
	lwz 28,24(1)
	mtlr 0
	lwz 29,28(1)
	lwz 30,32(1)
.LVL892:
	lwz 31,36(1)
.LVL893:
	addi 1,1,40
	.cfi_remember_state
.LCFI100:
	.cfi_def_cfa_offset 0
	.cfi_restore 31
	.cfi_restore 30
	.cfi_restore 29
	.cfi_restore 28
	blr
.LVL894:
.L958:
.LCFI101:
	.cfi_restore_state
	mr 31,3
.L955:
.LBB5252:
	.loc 3 45 0
	mr 3,30
	bl _ZN10GuiElementD2Ev
	mr 3,31
.LEHB100:
	bl _Unwind_Resume
.LEHE100:
.LVL895:
.L960:
.LBB5250:
.LBB5249:
.LBB5248:
.LBB5246:
.LBB5241:
.LBB5242:
.LBB5243:
	.loc 1 343 0
	lwz 9,4(30)
	mr 31,3
.LVL896:
	mr 3,28
	lwz 0,12(9)
	mtctr 0
	bctrl
	b .L955
.LVL897:
.L963:
.LBE5243:
.LBE5242:
.LBE5241:
.LBE5246:
.LBE5248:
.LBE5249:
.LBE5250:
.LBB5251:
.LBB5227:
.LBB5226:
.LBB5225:
.LBB5223:
.LBB5216:
.LBB5217:
.LBB5218:
	.loc 9 66 0
	lwz 11,-4(9)
.LVL898:
.LBE5218:
.LBE5217:
.LBE5216:
	.loc 8 240 0
	cmpwi 7,11,0
.LBB5221:
.LBB5220:
.LBB5219:
	.loc 9 67 0
	addi 11,11,-1
	stw 11,-4(9)
.LBE5219:
.LBE5220:
.LBE5221:
	.loc 8 240 0
	bgt+ 7,.L949
	.loc 8 244 0
	addi 4,1,8
	bl _ZNSbIwSt11char_traitsIwESaIwEE4_Rep10_M_destroyERKS1_
.LVL899:
	b .L949
.LVL900:
.L959:
	mr 31,3
.LVL901:
.LBE5223:
.LBE5225:
.LBE5226:
.LBE5227:
.LBE5251:
	.loc 3 49 0
	addi 3,1,12
.LVL902:
	bl _ZNSbIwSt11char_traitsIwESaIwEED1Ev
.LVL903:
	b .L955
.LBE5252:
	.cfi_endproc
.LFE1563:
	.section	.gcc_except_table
.LLSDA1563:
	.byte	0xff
	.byte	0xff
	.byte	0x1
	.uleb128 .LLSDACSE1563-.LLSDACSB1563
.LLSDACSB1563:
	.uleb128 .LEHB94-.LFB1563
	.uleb128 .LEHE94-.LEHB94
	.uleb128 0
	.uleb128 0
	.uleb128 .LEHB95-.LFB1563
	.uleb128 .LEHE95-.LEHB95
	.uleb128 .L958-.LFB1563
	.uleb128 0
	.uleb128 .LEHB96-.LFB1563
	.uleb128 .LEHE96-.LEHB96
	.uleb128 .L959-.LFB1563
	.uleb128 0
	.uleb128 .LEHB97-.LFB1563
	.uleb128 .LEHE97-.LEHB97
	.uleb128 .L958-.LFB1563
	.uleb128 0
	.uleb128 .LEHB98-.LFB1563
	.uleb128 .LEHE98-.LEHB98
	.uleb128 .L960-.LFB1563
	.uleb128 0
	.uleb128 .LEHB99-.LFB1563
	.uleb128 .LEHE99-.LEHB99
	.uleb128 .L958-.LFB1563
	.uleb128 0
	.uleb128 .LEHB100-.LFB1563
	.uleb128 .LEHE100-.LEHB100
	.uleb128 0
	.uleb128 0
.LLSDACSE1563:
	.section	".text"
	.size	_ZN10GuiTooltipC2ESbIwSt11char_traitsIwESaIwEE, .-_ZN10GuiTooltipC2ESbIwSt11char_traitsIwESaIwEE
	.align 2
	.globl _ZN10GuiTooltipC2ESs
	.type	_ZN10GuiTooltipC2ESs, @function
_ZN10GuiTooltipC2ESs:
.LFB1560:
	.loc 3 37 0
	.cfi_startproc
	.cfi_personality 0,__gxx_personality_v0
	.cfi_lsda 0,.LLSDA1560
.LVL904:
	mflr 0
	stwu 1,-40(1)
.LCFI102:
	.cfi_def_cfa_offset 40
	.cfi_register 65, 0
	stw 30,32(1)
	mr 30,3
	.cfi_offset 30, -8
	stw 0,44(1)
	stw 31,36(1)
	mr 31,4
	.cfi_offset 31, -4
	.cfi_offset 65, 4
	stw 28,24(1)
	stw 29,28(1)
.LEHB101:
.LBB5298:
	.loc 3 37 0
	.cfi_offset 29, -12
	.cfi_offset 28, -16
	bl _ZN10GuiElementC2Ev
.LEHE101:
.LVL905:
	lis 9,_ZTV10GuiTooltip+8@ha
	.loc 3 39 0
	mr 3,30
	.loc 3 37 0
	la 0,_ZTV10GuiTooltip+8@l(9)
	stw 0,0(30)
.LEHB102:
	.loc 3 39 0
	bl _ZN10GuiTooltip12InternalInitEv
	.loc 3 41 0
	addi 3,1,12
	mr 4,31
	bl _ZNSsC1ERKSs
.LEHE102:
.LVL906:
.LBB5299:
.LBB5300:
.LBB5301:
.LBB5302:
	.loc 8 288 0 discriminator 1
	lwz 3,12(1)
.LVL907:
.LBE5302:
.LBE5301:
.LBE5300:
.LBB5303:
.LBB5304:
	.loc 3 90 0 discriminator 1
	cmpwi 7,3,0
	beq- 7,.L979
.LEHB103:
	.loc 3 93 0
	bl _Z14charToWideCharPKc
.LVL908:
	mr 4,3
	mr 3,30
	bl _ZN10GuiTooltip7SetTextEPKw
.LEHE103:
	lwz 9,12(1)
.L965:
.LVL909:
.LBE5304:
.LBE5303:
.LBE5299:
.LBB5307:
.LBB5308:
.LBB5309:
.LBB5310:
.LBB5311:
	.loc 8 235 0
	lis 11,_ZNSs4_Rep20_S_empty_rep_storageE@ha
.LBE5311:
.LBE5310:
	.loc 8 534 0
	addi 3,9,-12
.LVL910:
.LBB5320:
.LBB5318:
	.loc 8 235 0
	la 0,_ZNSs4_Rep20_S_empty_rep_storageE@l(11)
	cmpw 7,3,0
	bne- 7,.L986
.LVL911:
.L971:
.LBE5318:
.LBE5320:
.LBE5309:
.LBE5308:
.LBE5307:
.LBB5324:
.LBB5325:
.LBB5326:
.LBB5327:
.LBB5328:
.LBB5329:
	.loc 1 338 0 discriminator 1
	lwz 9,4(30)
.LBE5329:
.LBE5328:
.LBE5327:
.LBE5326:
	.loc 2 137 0 discriminator 1
	li 0,0
	stb 0,29(30)
.LVL912:
.LBB5343:
.LBB5340:
	.loc 1 2270 0 discriminator 1
	addi 28,30,4
.LVL913:
.LBB5331:
.LBB5330:
	.loc 1 338 0 discriminator 1
	lwz 0,8(9)
	mr 3,28
	mtctr 0
.LEHB104:
	bctrl
.LEHE104:
.LVL914:
.LBE5330:
.LBE5331:
.LBE5340:
	.loc 3 160 0
	mr 29,30
	lwzu 31,8(29)
.LVL915:
.LBB5341:
	.loc 1 2274 0
	cmpw 7,31,29
	beq- 7,.L972
.LVL916:
.L984:
	.loc 1 2279 0
	lwz 3,8(31)
	mr 4,30
	li 5,0
.LBB5332:
.LBB5333:
	.loc 4 234 0
	lwz 31,0(31)
.LVL917:
.LBE5333:
.LBE5332:
	.loc 1 2279 0
	lwz 9,0(3)
	lwz 0,12(9)
	mtctr 0
.LEHB105:
	bctrl
.LEHE105:
.LVL918:
	.loc 1 2274 0
	cmpw 7,29,31
	bne+ 7,.L984
.LVL919:
.L972:
.LBB5334:
.LBB5335:
.LBB5336:
	.loc 1 343 0
	lwz 9,4(30)
	mr 3,28
	lwz 0,12(9)
	mtctr 0
.LEHB106:
	bctrl
.LEHE106:
.LBE5336:
.LBE5335:
.LBE5334:
.LBE5341:
.LBE5343:
.LBE5325:
.LBE5324:
.LBE5298:
	.loc 3 43 0
	lwz 0,44(1)
	lwz 28,24(1)
	mtlr 0
	lwz 29,28(1)
	lwz 30,32(1)
.LVL920:
	lwz 31,36(1)
.LVL921:
	addi 1,1,40
	.cfi_remember_state
.LCFI103:
	.cfi_def_cfa_offset 0
	.cfi_restore 31
	.cfi_restore 30
	.cfi_restore 29
	.cfi_restore 28
	blr
.LVL922:
.L979:
.LCFI104:
	.cfi_restore_state
.LBB5349:
.LBB5346:
.LBB5306:
.LBB5305:
	.loc 3 90 0
	li 9,0
	b .L965
.LVL923:
.L981:
	mr 31,3
.L977:
.LBE5305:
.LBE5306:
.LBE5346:
	.loc 3 37 0
	mr 3,30
	bl _ZN10GuiElementD2Ev
	mr 3,31
.LEHB107:
	bl _Unwind_Resume
.LEHE107:
.LVL924:
.L983:
.LBB5347:
.LBB5345:
.LBB5344:
.LBB5342:
.LBB5337:
.LBB5338:
.LBB5339:
	.loc 1 343 0
	lwz 9,4(30)
	mr 31,3
.LVL925:
	mr 3,28
	lwz 0,12(9)
	mtctr 0
	bctrl
	b .L977
.LVL926:
.L986:
.LBE5339:
.LBE5338:
.LBE5337:
.LBE5342:
.LBE5344:
.LBE5345:
.LBE5347:
.LBB5348:
.LBB5323:
.LBB5322:
.LBB5321:
.LBB5319:
.LBB5312:
.LBB5313:
.LBB5314:
	.loc 9 66 0
	lwz 11,-4(9)
.LVL927:
.LBE5314:
.LBE5313:
.LBE5312:
	.loc 8 240 0
	cmpwi 7,11,0
.LBB5317:
.LBB5316:
.LBB5315:
	.loc 9 67 0
	addi 11,11,-1
	stw 11,-4(9)
.LBE5315:
.LBE5316:
.LBE5317:
	.loc 8 240 0
	bgt+ 7,.L971
	.loc 8 244 0
	addi 4,1,8
	bl _ZNSs4_Rep10_M_destroyERKSaIcE
.LVL928:
	b .L971
.LVL929:
.L982:
	mr 31,3
.LVL930:
.LBE5319:
.LBE5321:
.LBE5322:
.LBE5323:
.LBE5348:
	.loc 3 41 0
	addi 3,1,12
.LVL931:
	bl _ZNSsD1Ev
.LVL932:
	b .L977
.LBE5349:
	.cfi_endproc
.LFE1560:
	.section	.gcc_except_table
.LLSDA1560:
	.byte	0xff
	.byte	0xff
	.byte	0x1
	.uleb128 .LLSDACSE1560-.LLSDACSB1560
.LLSDACSB1560:
	.uleb128 .LEHB101-.LFB1560
	.uleb128 .LEHE101-.LEHB101
	.uleb128 0
	.uleb128 0
	.uleb128 .LEHB102-.LFB1560
	.uleb128 .LEHE102-.LEHB102
	.uleb128 .L981-.LFB1560
	.uleb128 0
	.uleb128 .LEHB103-.LFB1560
	.uleb128 .LEHE103-.LEHB103
	.uleb128 .L982-.LFB1560
	.uleb128 0
	.uleb128 .LEHB104-.LFB1560
	.uleb128 .LEHE104-.LEHB104
	.uleb128 .L981-.LFB1560
	.uleb128 0
	.uleb128 .LEHB105-.LFB1560
	.uleb128 .LEHE105-.LEHB105
	.uleb128 .L983-.LFB1560
	.uleb128 0
	.uleb128 .LEHB106-.LFB1560
	.uleb128 .LEHE106-.LEHB106
	.uleb128 .L981-.LFB1560
	.uleb128 0
	.uleb128 .LEHB107-.LFB1560
	.uleb128 .LEHE107-.LEHB107
	.uleb128 0
	.uleb128 0
.LLSDACSE1560:
	.section	".text"
	.size	_ZN10GuiTooltipC2ESs, .-_ZN10GuiTooltipC2ESs
	.align 2
	.globl _ZN10GuiTooltipC2EPKw
	.type	_ZN10GuiTooltipC2EPKw, @function
_ZN10GuiTooltipC2EPKw:
.LFB1557:
	.loc 3 29 0
	.cfi_startproc
	.cfi_personality 0,__gxx_personality_v0
	.cfi_lsda 0,.LLSDA1557
.LVL933:
	mflr 0
	stwu 1,-24(1)
.LCFI105:
	.cfi_def_cfa_offset 24
	.cfi_register 65, 0
	stw 30,16(1)
	mr 30,3
	.cfi_offset 30, -8
	stw 0,28(1)
	stw 31,20(1)
	mr 31,4
	.cfi_offset 31, -4
	.cfi_offset 65, 4
	stw 28,8(1)
	stw 29,12(1)
.LEHB108:
.LBB5367:
	.loc 3 29 0
	.cfi_offset 29, -12
	.cfi_offset 28, -16
	bl _ZN10GuiElementC2Ev
.LEHE108:
.LVL934:
	lis 9,_ZTV10GuiTooltip+8@ha
	.loc 3 31 0
	mr 3,30
	.loc 3 29 0
	la 0,_ZTV10GuiTooltip+8@l(9)
	stw 0,0(30)
.LEHB109:
	.loc 3 31 0
	bl _ZN10GuiTooltip12InternalInitEv
	.loc 3 33 0
	mr 3,30
	mr 4,31
	bl _ZN10GuiTooltip7SetTextEPKw
.LVL935:
.LBB5368:
.LBB5369:
.LBB5370:
.LBB5371:
.LBB5372:
.LBB5373:
	.loc 1 338 0
	lwz 9,4(30)
.LBE5373:
.LBE5372:
.LBE5371:
.LBE5370:
	.loc 2 137 0
	li 0,0
	stb 0,29(30)
.LVL936:
.LBB5387:
.LBB5384:
	.loc 1 2270 0
	addi 28,30,4
.LVL937:
.LBB5375:
.LBB5374:
	.loc 1 338 0
	lwz 0,8(9)
	mr 3,28
	mtctr 0
	bctrl
.LEHE109:
.LVL938:
.LBE5374:
.LBE5375:
.LBE5384:
	.loc 3 160 0
	mr 29,30
	lwzu 31,8(29)
.LVL939:
.LBB5385:
	.loc 1 2274 0
	cmpw 7,31,29
	beq- 7,.L988
.LVL940:
.L997:
	.loc 1 2279 0
	lwz 3,8(31)
	mr 4,30
	li 5,0
.LBB5376:
.LBB5377:
	.loc 4 234 0
	lwz 31,0(31)
.LVL941:
.LBE5377:
.LBE5376:
	.loc 1 2279 0
	lwz 9,0(3)
	lwz 0,12(9)
	mtctr 0
.LEHB110:
	bctrl
.LEHE110:
.LVL942:
	.loc 1 2274 0
	cmpw 7,29,31
	bne+ 7,.L997
.LVL943:
.L988:
.LBB5378:
.LBB5379:
.LBB5380:
	.loc 1 343 0
	lwz 9,4(30)
	mr 3,28
	lwz 0,12(9)
	mtctr 0
.LEHB111:
	bctrl
.LEHE111:
.LBE5380:
.LBE5379:
.LBE5378:
.LBE5385:
.LBE5387:
.LBE5369:
.LBE5368:
.LBE5367:
	.loc 3 35 0
	lwz 0,28(1)
	lwz 28,8(1)
	mtlr 0
	lwz 29,12(1)
	lwz 30,16(1)
.LVL944:
	lwz 31,20(1)
.LVL945:
	addi 1,1,24
	.cfi_remember_state
.LCFI106:
	.cfi_def_cfa_offset 0
	.cfi_restore 31
	.cfi_restore 30
	.cfi_restore 29
	.cfi_restore 28
	blr
.LVL946:
.L995:
.LCFI107:
	.cfi_restore_state
	mr 31,3
.L993:
.LBB5391:
	.loc 3 29 0
	mr 3,30
	bl _ZN10GuiElementD2Ev
	mr 3,31
.LEHB112:
	bl _Unwind_Resume
.LEHE112:
.LVL947:
.L996:
.LBB5390:
.LBB5389:
.LBB5388:
.LBB5386:
.LBB5381:
.LBB5382:
.LBB5383:
	.loc 1 343 0
	lwz 9,4(30)
	mr 31,3
.LVL948:
	mr 3,28
	lwz 0,12(9)
	mtctr 0
	bctrl
	b .L993
.LBE5383:
.LBE5382:
.LBE5381:
.LBE5386:
.LBE5388:
.LBE5389:
.LBE5390:
.LBE5391:
	.cfi_endproc
.LFE1557:
	.section	.gcc_except_table
.LLSDA1557:
	.byte	0xff
	.byte	0xff
	.byte	0x1
	.uleb128 .LLSDACSE1557-.LLSDACSB1557
.LLSDACSB1557:
	.uleb128 .LEHB108-.LFB1557
	.uleb128 .LEHE108-.LEHB108
	.uleb128 0
	.uleb128 0
	.uleb128 .LEHB109-.LFB1557
	.uleb128 .LEHE109-.LEHB109
	.uleb128 .L995-.LFB1557
	.uleb128 0
	.uleb128 .LEHB110-.LFB1557
	.uleb128 .LEHE110-.LEHB110
	.uleb128 .L996-.LFB1557
	.uleb128 0
	.uleb128 .LEHB111-.LFB1557
	.uleb128 .LEHE111-.LEHB111
	.uleb128 .L995-.LFB1557
	.uleb128 0
	.uleb128 .LEHB112-.LFB1557
	.uleb128 .LEHE112-.LEHB112
	.uleb128 0
	.uleb128 0
.LLSDACSE1557:
	.section	".text"
	.size	_ZN10GuiTooltipC2EPKw, .-_ZN10GuiTooltipC2EPKw
	.align 2
	.globl _ZN10GuiTooltipC2EPKc
	.type	_ZN10GuiTooltipC2EPKc, @function
_ZN10GuiTooltipC2EPKc:
.LFB1554:
	.loc 3 21 0
	.cfi_startproc
	.cfi_personality 0,__gxx_personality_v0
	.cfi_lsda 0,.LLSDA1554
.LVL949:
	mflr 0
	stwu 1,-24(1)
.LCFI108:
	.cfi_def_cfa_offset 24
	.cfi_register 65, 0
	stw 30,16(1)
	mr 30,3
	.cfi_offset 30, -8
	stw 0,28(1)
	stw 31,20(1)
	mr 31,4
	.cfi_offset 31, -4
	.cfi_offset 65, 4
	stw 28,8(1)
	stw 29,12(1)
.LEHB113:
.LBB5411:
	.loc 3 21 0
	.cfi_offset 29, -12
	.cfi_offset 28, -16
	bl _ZN10GuiElementC2Ev
.LEHE113:
.LVL950:
	lis 9,_ZTV10GuiTooltip+8@ha
	.loc 3 23 0
	mr 3,30
	.loc 3 21 0
	la 0,_ZTV10GuiTooltip+8@l(9)
	stw 0,0(30)
.LEHB114:
	.loc 3 23 0
	bl _ZN10GuiTooltip12InternalInitEv
.LVL951:
.LBB5412:
.LBB5413:
	.loc 3 90 0
	cmpwi 7,31,0
	beq- 7,.L1000
	.loc 3 93 0
	mr 3,31
	bl _Z14charToWideCharPKc
	mr 4,3
	mr 3,30
	bl _ZN10GuiTooltip7SetTextEPKw
.L1000:
.LVL952:
.LBE5413:
.LBE5412:
.LBB5414:
.LBB5415:
.LBB5416:
.LBB5417:
.LBB5418:
.LBB5419:
	.loc 1 338 0
	lwz 9,4(30)
.LBE5419:
.LBE5418:
.LBE5417:
.LBE5416:
	.loc 2 137 0
	li 0,0
	stb 0,29(30)
.LVL953:
.LBB5433:
.LBB5430:
	.loc 1 2270 0
	addi 28,30,4
.LVL954:
.LBB5421:
.LBB5420:
	.loc 1 338 0
	lwz 0,8(9)
	mr 3,28
	mtctr 0
	bctrl
.LEHE114:
.LVL955:
.LBE5420:
.LBE5421:
.LBE5430:
	.loc 3 160 0
	mr 29,30
	lwzu 31,8(29)
.LVL956:
.LBB5431:
	.loc 1 2274 0
	cmpw 7,31,29
	beq- 7,.L1001
.LVL957:
.L1010:
	.loc 1 2279 0
	lwz 3,8(31)
	mr 4,30
	li 5,0
.LBB5422:
.LBB5423:
	.loc 4 234 0
	lwz 31,0(31)
.LVL958:
.LBE5423:
.LBE5422:
	.loc 1 2279 0
	lwz 9,0(3)
	lwz 0,12(9)
	mtctr 0
.LEHB115:
	bctrl
.LEHE115:
.LVL959:
	.loc 1 2274 0
	cmpw 7,29,31
	bne+ 7,.L1010
.LVL960:
.L1001:
.LBB5424:
.LBB5425:
.LBB5426:
	.loc 1 343 0
	lwz 9,4(30)
	mr 3,28
	lwz 0,12(9)
	mtctr 0
.LEHB116:
	bctrl
.LEHE116:
.LBE5426:
.LBE5425:
.LBE5424:
.LBE5431:
.LBE5433:
.LBE5415:
.LBE5414:
.LBE5411:
	.loc 3 27 0
	lwz 0,28(1)
	lwz 28,8(1)
	mtlr 0
	lwz 29,12(1)
	lwz 30,16(1)
.LVL961:
	lwz 31,20(1)
.LVL962:
	addi 1,1,24
	.cfi_remember_state
.LCFI109:
	.cfi_def_cfa_offset 0
	.cfi_restore 31
	.cfi_restore 30
	.cfi_restore 29
	.cfi_restore 28
	blr
.LVL963:
.L1008:
.LCFI110:
	.cfi_restore_state
	mr 31,3
.L1006:
.LBB5437:
	.loc 3 21 0
	mr 3,30
	bl _ZN10GuiElementD2Ev
	mr 3,31
.LEHB117:
	bl _Unwind_Resume
.LEHE117:
.LVL964:
.L1009:
.LBB5436:
.LBB5435:
.LBB5434:
.LBB5432:
.LBB5427:
.LBB5428:
.LBB5429:
	.loc 1 343 0
	lwz 9,4(30)
	mr 31,3
.LVL965:
	mr 3,28
	lwz 0,12(9)
	mtctr 0
	bctrl
	b .L1006
.LBE5429:
.LBE5428:
.LBE5427:
.LBE5432:
.LBE5434:
.LBE5435:
.LBE5436:
.LBE5437:
	.cfi_endproc
.LFE1554:
	.section	.gcc_except_table
.LLSDA1554:
	.byte	0xff
	.byte	0xff
	.byte	0x1
	.uleb128 .LLSDACSE1554-.LLSDACSB1554
.LLSDACSB1554:
	.uleb128 .LEHB113-.LFB1554
	.uleb128 .LEHE113-.LEHB113
	.uleb128 0
	.uleb128 0
	.uleb128 .LEHB114-.LFB1554
	.uleb128 .LEHE114-.LEHB114
	.uleb128 .L1008-.LFB1554
	.uleb128 0
	.uleb128 .LEHB115-.LFB1554
	.uleb128 .LEHE115-.LEHB115
	.uleb128 .L1009-.LFB1554
	.uleb128 0
	.uleb128 .LEHB116-.LFB1554
	.uleb128 .LEHE116-.LEHB116
	.uleb128 .L1008-.LFB1554
	.uleb128 0
	.uleb128 .LEHB117-.LFB1554
	.uleb128 .LEHE117-.LEHB117
	.uleb128 0
	.uleb128 0
.LLSDACSE1554:
	.section	".text"
	.size	_ZN10GuiTooltipC2EPKc, .-_ZN10GuiTooltipC2EPKc
	.section	.text.startup,"ax",@progbits
	.align 2
	.type	_GLOBAL__sub_I__ZN10GuiTooltipC2EPKc, @function
_GLOBAL__sub_I__ZN10GuiTooltipC2EPKc:
.LFB1882:
	.loc 3 160 0
	.cfi_startproc
.LVL966:
.LBB5438:
.LBB5439:
	.file 13 "d:/Projects/SaveGameManager/savegame-manager-gx/trunk/source/GUI/../TextOperations/FreeTypeGX.h"
	.loc 13 92 0
	lis 11,.LANCHOR0@ha
	li 0,-1
	la 9,.LANCHOR0@l(11)
	stb 0,.LANCHOR0@l(11)
	stb 0,1(9)
	stb 0,2(9)
	stb 0,3(9)
.LBE5439:
.LBE5438:
	.loc 3 160 0
	blr
	.cfi_endproc
.LFE1882:
	.size	_GLOBAL__sub_I__ZN10GuiTooltipC2EPKc, .-_GLOBAL__sub_I__ZN10GuiTooltipC2EPKc
	.section	.ctors,"aw",@progbits
	.align 2
	.long	_GLOBAL__sub_I__ZN10GuiTooltipC2EPKc
	.weak	_ZTS10GuiTooltip
	.section	.rodata._ZTS10GuiTooltip,"aG",@progbits,_ZTS10GuiTooltip,comdat
	.align 2
	.type	_ZTS10GuiTooltip, @object
	.size	_ZTS10GuiTooltip, 13
_ZTS10GuiTooltip:
	.string	"10GuiTooltip"
	.weak	_ZTI10GuiTooltip
	.section	.rodata._ZTI10GuiTooltip,"aG",@progbits,_ZTI10GuiTooltip,comdat
	.align 2
	.type	_ZTI10GuiTooltip, @object
	.size	_ZTI10GuiTooltip, 12
_ZTI10GuiTooltip:
	.long	_ZTVN10__cxxabiv120__si_class_type_infoE+8
	.long	_ZTS10GuiTooltip
	.long	_ZTI10GuiElement
	.weak	_ZTV10GuiTooltip
	.section	.rodata._ZTV10GuiTooltip,"aG",@progbits,_ZTV10GuiTooltip,comdat
	.align 3
	.type	_ZTV10GuiTooltip, @object
	.size	_ZTV10GuiTooltip, 208
_ZTV10GuiTooltip:
	.long	0
	.long	_ZTI10GuiTooltip
	.long	_ZN10GuiTooltipD1Ev
	.long	_ZN10GuiTooltipD0Ev
	.long	_ZN10GuiElement9SetParentEPS_
	.long	_ZN10GuiElement9GetParentEv
	.long	_ZN10GuiElement7GetLeftEv
	.long	_ZN10GuiElement6GetTopEv
	.long	_ZN10GuiElement12GetZPositionEv
	.long	_ZN10GuiElement10GetLeftPosEv
	.long	_ZN10GuiElement9GetTopPosEv
	.long	_ZN10GuiElement8GetWidthEv
	.long	_ZN10GuiElement9GetHeightEv
	.long	_ZN10GuiElement7SetSizeEii
	.long	_ZN10GuiElement10SetVisibleEb
	.long	_ZN10GuiElement9IsVisibleEv
	.long	_ZN10GuiElement12IsSelectableEv
	.long	_ZN10GuiElement11IsClickableEv
	.long	_ZN10GuiElement10IsHoldableEv
	.long	_ZN10GuiElement13SetSelectableEb
	.long	_ZN10GuiElement12SetClickableEb
	.long	_ZN10GuiElement11SetHoldableEb
	.long	_ZN10GuiElement8SetStateEii
	.long	_ZN10GuiElement8GetStateEv
	.long	_ZN10GuiElement12GetStateChanEv
	.long	_ZN10GuiElement10ResetStateEv
	.long	_ZN10GuiElement8SetAlphaEi
	.long	_ZN10GuiElement8GetAlphaEv
	.long	_ZN10GuiElement8SetScaleEf
	.long	_ZN10GuiElement9SetScaleXEf
	.long	_ZN10GuiElement9SetScaleYEf
	.long	_ZN10GuiElement8GetScaleEv
	.long	_ZN10GuiElement9GetScaleXEv
	.long	_ZN10GuiElement9GetScaleYEv
	.long	_ZN10GuiElement6RumbleEv
	.long	_ZN10GuiElement9SetRumbleEb
	.long	_ZN10GuiElement9SetEffectEiii
	.long	_ZN10GuiElement15SetEffectOnOverEiii
	.long	_ZN10GuiElement13SetEffectGrowEv
	.long	_ZN10GuiElement12ResetEffectsEv
	.long	_ZNK10GuiElement9GetEffectEv
	.long	_ZNK10GuiElement10IsAnimatedEv
	.long	_ZN10GuiElement9SetBoundsE4RectIiE
	.long	_ZN10GuiElement8IsInsideEii
	.long	_ZN10GuiElement11SetPositionEii
	.long	_ZN10GuiElement11SetPositionEiii
	.long	_ZN10GuiElement11GetSelectedEv
	.long	_ZN10GuiElement12SetAlignmentEi
	.long	_ZNK10GuiElement12GetAlignmentEv
	.long	_ZN10GuiElement6UpdateEP10GuiTrigger
	.long	_ZN10GuiTooltip4DrawEv
	.long	_ZN10GuiElement13UpdateEffectsEv
	.weak	_ZTVN7sigslot7signal2IP10GuiElementbNS_15single_threadedEEE
	.section	.rodata._ZTVN7sigslot7signal2IP10GuiElementbNS_15single_threadedEEE,"aG",@progbits,_ZTVN7sigslot7signal2IP10GuiElementbNS_15single_threadedEEE,comdat
	.align 3
	.type	_ZTVN7sigslot7signal2IP10GuiElementbNS_15single_threadedEEE, @object
	.size	_ZTVN7sigslot7signal2IP10GuiElementbNS_15single_threadedEEE, 32
_ZTVN7sigslot7signal2IP10GuiElementbNS_15single_threadedEEE:
	.long	0
	.long	_ZTIN7sigslot7signal2IP10GuiElementbNS_15single_threadedEEE
	.long	_ZN7sigslot7signal2IP10GuiElementbNS_15single_threadedEED1Ev
	.long	_ZN7sigslot7signal2IP10GuiElementbNS_15single_threadedEED0Ev
	.long	_ZN7sigslot15single_threaded4lockEv
	.long	_ZN7sigslot15single_threaded6unlockEv
	.long	_ZN7sigslot13_signal_base2IP10GuiElementbNS_15single_threadedEE15slot_disconnectEPNS_9has_slotsIS3_EE
	.long	_ZN7sigslot13_signal_base2IP10GuiElementbNS_15single_threadedEE14slot_duplicateEPKNS_9has_slotsIS3_EEPS6_
	.weak	_ZTVN7sigslot13_signal_base2IP10GuiElementbNS_15single_threadedEEE
	.section	.rodata._ZTVN7sigslot13_signal_base2IP10GuiElementbNS_15single_threadedEEE,"aG",@progbits,_ZTVN7sigslot13_signal_base2IP10GuiElementbNS_15single_threadedEEE,comdat
	.align 3
	.type	_ZTVN7sigslot13_signal_base2IP10GuiElementbNS_15single_threadedEEE, @object
	.size	_ZTVN7sigslot13_signal_base2IP10GuiElementbNS_15single_threadedEEE, 32
_ZTVN7sigslot13_signal_base2IP10GuiElementbNS_15single_threadedEEE:
	.long	0
	.long	_ZTIN7sigslot13_signal_base2IP10GuiElementbNS_15single_threadedEEE
	.long	_ZN7sigslot13_signal_base2IP10GuiElementbNS_15single_threadedEED1Ev
	.long	_ZN7sigslot13_signal_base2IP10GuiElementbNS_15single_threadedEED0Ev
	.long	_ZN7sigslot15single_threaded4lockEv
	.long	_ZN7sigslot15single_threaded6unlockEv
	.long	_ZN7sigslot13_signal_base2IP10GuiElementbNS_15single_threadedEE15slot_disconnectEPNS_9has_slotsIS3_EE
	.long	_ZN7sigslot13_signal_base2IP10GuiElementbNS_15single_threadedEE14slot_duplicateEPKNS_9has_slotsIS3_EEPS6_
	.weak	_ZTVN7sigslot12_signal_baseINS_15single_threadedEEE
	.section	.rodata._ZTVN7sigslot12_signal_baseINS_15single_threadedEEE,"aG",@progbits,_ZTVN7sigslot12_signal_baseINS_15single_threadedEEE,comdat
	.align 3
	.type	_ZTVN7sigslot12_signal_baseINS_15single_threadedEEE, @object
	.size	_ZTVN7sigslot12_signal_baseINS_15single_threadedEEE, 32
_ZTVN7sigslot12_signal_baseINS_15single_threadedEEE:
	.long	0
	.long	_ZTIN7sigslot12_signal_baseINS_15single_threadedEEE
	.long	_ZN7sigslot12_signal_baseINS_15single_threadedEED1Ev
	.long	_ZN7sigslot12_signal_baseINS_15single_threadedEED0Ev
	.long	_ZN7sigslot15single_threaded4lockEv
	.long	_ZN7sigslot15single_threaded6unlockEv
	.long	__cxa_pure_virtual
	.long	__cxa_pure_virtual
	.weak	_ZTVN7sigslot15single_threadedE
	.section	.rodata._ZTVN7sigslot15single_threadedE,"aG",@progbits,_ZTVN7sigslot15single_threadedE,comdat
	.align 3
	.type	_ZTVN7sigslot15single_threadedE, @object
	.size	_ZTVN7sigslot15single_threadedE, 24
_ZTVN7sigslot15single_threadedE:
	.long	0
	.long	_ZTIN7sigslot15single_threadedE
	.long	_ZN7sigslot15single_threadedD1Ev
	.long	_ZN7sigslot15single_threadedD0Ev
	.long	_ZN7sigslot15single_threaded4lockEv
	.long	_ZN7sigslot15single_threaded6unlockEv
	.weak	_ZTVN7sigslot7signal3IP10GuiElementiiNS_15single_threadedEEE
	.section	.rodata._ZTVN7sigslot7signal3IP10GuiElementiiNS_15single_threadedEEE,"aG",@progbits,_ZTVN7sigslot7signal3IP10GuiElementiiNS_15single_threadedEEE,comdat
	.align 3
	.type	_ZTVN7sigslot7signal3IP10GuiElementiiNS_15single_threadedEEE, @object
	.size	_ZTVN7sigslot7signal3IP10GuiElementiiNS_15single_threadedEEE, 32
_ZTVN7sigslot7signal3IP10GuiElementiiNS_15single_threadedEEE:
	.long	0
	.long	_ZTIN7sigslot7signal3IP10GuiElementiiNS_15single_threadedEEE
	.long	_ZN7sigslot7signal3IP10GuiElementiiNS_15single_threadedEED1Ev
	.long	_ZN7sigslot7signal3IP10GuiElementiiNS_15single_threadedEED0Ev
	.long	_ZN7sigslot15single_threaded4lockEv
	.long	_ZN7sigslot15single_threaded6unlockEv
	.long	_ZN7sigslot13_signal_base3IP10GuiElementiiNS_15single_threadedEE15slot_disconnectEPNS_9has_slotsIS3_EE
	.long	_ZN7sigslot13_signal_base3IP10GuiElementiiNS_15single_threadedEE14slot_duplicateEPKNS_9has_slotsIS3_EEPS6_
	.weak	_ZTVN7sigslot13_signal_base3IP10GuiElementiiNS_15single_threadedEEE
	.section	.rodata._ZTVN7sigslot13_signal_base3IP10GuiElementiiNS_15single_threadedEEE,"aG",@progbits,_ZTVN7sigslot13_signal_base3IP10GuiElementiiNS_15single_threadedEEE,comdat
	.align 3
	.type	_ZTVN7sigslot13_signal_base3IP10GuiElementiiNS_15single_threadedEEE, @object
	.size	_ZTVN7sigslot13_signal_base3IP10GuiElementiiNS_15single_threadedEEE, 32
_ZTVN7sigslot13_signal_base3IP10GuiElementiiNS_15single_threadedEEE:
	.long	0
	.long	_ZTIN7sigslot13_signal_base3IP10GuiElementiiNS_15single_threadedEEE
	.long	_ZN7sigslot13_signal_base3IP10GuiElementiiNS_15single_threadedEED1Ev
	.long	_ZN7sigslot13_signal_base3IP10GuiElementiiNS_15single_threadedEED0Ev
	.long	_ZN7sigslot15single_threaded4lockEv
	.long	_ZN7sigslot15single_threaded6unlockEv
	.long	_ZN7sigslot13_signal_base3IP10GuiElementiiNS_15single_threadedEE15slot_disconnectEPNS_9has_slotsIS3_EE
	.long	_ZN7sigslot13_signal_base3IP10GuiElementiiNS_15single_threadedEE14slot_duplicateEPKNS_9has_slotsIS3_EEPS6_
	.weak	_ZTIN7sigslot7signal2IP10GuiElementbNS_15single_threadedEEE
	.section	.rodata._ZTIN7sigslot7signal2IP10GuiElementbNS_15single_threadedEEE,"aG",@progbits,_ZTIN7sigslot7signal2IP10GuiElementbNS_15single_threadedEEE,comdat
	.align 2
	.type	_ZTIN7sigslot7signal2IP10GuiElementbNS_15single_threadedEEE, @object
	.size	_ZTIN7sigslot7signal2IP10GuiElementbNS_15single_threadedEEE, 12
_ZTIN7sigslot7signal2IP10GuiElementbNS_15single_threadedEEE:
	.long	_ZTVN10__cxxabiv120__si_class_type_infoE+8
	.long	_ZTSN7sigslot7signal2IP10GuiElementbNS_15single_threadedEEE
	.long	_ZTIN7sigslot13_signal_base2IP10GuiElementbNS_15single_threadedEEE
	.weak	_ZTIN7sigslot13_signal_base2IP10GuiElementbNS_15single_threadedEEE
	.section	.rodata._ZTIN7sigslot13_signal_base2IP10GuiElementbNS_15single_threadedEEE,"aG",@progbits,_ZTIN7sigslot13_signal_base2IP10GuiElementbNS_15single_threadedEEE,comdat
	.align 2
	.type	_ZTIN7sigslot13_signal_base2IP10GuiElementbNS_15single_threadedEEE, @object
	.size	_ZTIN7sigslot13_signal_base2IP10GuiElementbNS_15single_threadedEEE, 12
_ZTIN7sigslot13_signal_base2IP10GuiElementbNS_15single_threadedEEE:
	.long	_ZTVN10__cxxabiv120__si_class_type_infoE+8
	.long	_ZTSN7sigslot13_signal_base2IP10GuiElementbNS_15single_threadedEEE
	.long	_ZTIN7sigslot12_signal_baseINS_15single_threadedEEE
	.weak	_ZTIN7sigslot12_signal_baseINS_15single_threadedEEE
	.section	.rodata._ZTIN7sigslot12_signal_baseINS_15single_threadedEEE,"aG",@progbits,_ZTIN7sigslot12_signal_baseINS_15single_threadedEEE,comdat
	.align 2
	.type	_ZTIN7sigslot12_signal_baseINS_15single_threadedEEE, @object
	.size	_ZTIN7sigslot12_signal_baseINS_15single_threadedEEE, 12
_ZTIN7sigslot12_signal_baseINS_15single_threadedEEE:
	.long	_ZTVN10__cxxabiv120__si_class_type_infoE+8
	.long	_ZTSN7sigslot12_signal_baseINS_15single_threadedEEE
	.long	_ZTIN7sigslot15single_threadedE
	.weak	_ZTIN7sigslot15single_threadedE
	.section	.sdata._ZTIN7sigslot15single_threadedE,"awG",@progbits,_ZTIN7sigslot15single_threadedE,comdat
	.align 2
	.type	_ZTIN7sigslot15single_threadedE, @object
	.size	_ZTIN7sigslot15single_threadedE, 8
_ZTIN7sigslot15single_threadedE:
	.long	_ZTVN10__cxxabiv117__class_type_infoE+8
	.long	_ZTSN7sigslot15single_threadedE
	.weak	_ZTIN7sigslot7signal3IP10GuiElementiiNS_15single_threadedEEE
	.section	.rodata._ZTIN7sigslot7signal3IP10GuiElementiiNS_15single_threadedEEE,"aG",@progbits,_ZTIN7sigslot7signal3IP10GuiElementiiNS_15single_threadedEEE,comdat
	.align 2
	.type	_ZTIN7sigslot7signal3IP10GuiElementiiNS_15single_threadedEEE, @object
	.size	_ZTIN7sigslot7signal3IP10GuiElementiiNS_15single_threadedEEE, 12
_ZTIN7sigslot7signal3IP10GuiElementiiNS_15single_threadedEEE:
	.long	_ZTVN10__cxxabiv120__si_class_type_infoE+8
	.long	_ZTSN7sigslot7signal3IP10GuiElementiiNS_15single_threadedEEE
	.long	_ZTIN7sigslot13_signal_base3IP10GuiElementiiNS_15single_threadedEEE
	.weak	_ZTIN7sigslot13_signal_base3IP10GuiElementiiNS_15single_threadedEEE
	.section	.rodata._ZTIN7sigslot13_signal_base3IP10GuiElementiiNS_15single_threadedEEE,"aG",@progbits,_ZTIN7sigslot13_signal_base3IP10GuiElementiiNS_15single_threadedEEE,comdat
	.align 2
	.type	_ZTIN7sigslot13_signal_base3IP10GuiElementiiNS_15single_threadedEEE, @object
	.size	_ZTIN7sigslot13_signal_base3IP10GuiElementiiNS_15single_threadedEEE, 12
_ZTIN7sigslot13_signal_base3IP10GuiElementiiNS_15single_threadedEEE:
	.long	_ZTVN10__cxxabiv120__si_class_type_infoE+8
	.long	_ZTSN7sigslot13_signal_base3IP10GuiElementiiNS_15single_threadedEEE
	.long	_ZTIN7sigslot12_signal_baseINS_15single_threadedEEE
	.weak	_ZTSN7sigslot7signal2IP10GuiElementbNS_15single_threadedEEE
	.section	.rodata._ZTSN7sigslot7signal2IP10GuiElementbNS_15single_threadedEEE,"aG",@progbits,_ZTSN7sigslot7signal2IP10GuiElementbNS_15single_threadedEEE,comdat
	.align 2
	.type	_ZTSN7sigslot7signal2IP10GuiElementbNS_15single_threadedEEE, @object
	.size	_ZTSN7sigslot7signal2IP10GuiElementbNS_15single_threadedEEE, 56
_ZTSN7sigslot7signal2IP10GuiElementbNS_15single_threadedEEE:
	.string	"N7sigslot7signal2IP10GuiElementbNS_15single_threadedEEE"
	.weak	_ZTSN7sigslot13_signal_base2IP10GuiElementbNS_15single_threadedEEE
	.section	.rodata._ZTSN7sigslot13_signal_base2IP10GuiElementbNS_15single_threadedEEE,"aG",@progbits,_ZTSN7sigslot13_signal_base2IP10GuiElementbNS_15single_threadedEEE,comdat
	.align 2
	.type	_ZTSN7sigslot13_signal_base2IP10GuiElementbNS_15single_threadedEEE, @object
	.size	_ZTSN7sigslot13_signal_base2IP10GuiElementbNS_15single_threadedEEE, 63
_ZTSN7sigslot13_signal_base2IP10GuiElementbNS_15single_threadedEEE:
	.string	"N7sigslot13_signal_base2IP10GuiElementbNS_15single_threadedEEE"
	.weak	_ZTSN7sigslot12_signal_baseINS_15single_threadedEEE
	.section	.rodata._ZTSN7sigslot12_signal_baseINS_15single_threadedEEE,"aG",@progbits,_ZTSN7sigslot12_signal_baseINS_15single_threadedEEE,comdat
	.align 2
	.type	_ZTSN7sigslot12_signal_baseINS_15single_threadedEEE, @object
	.size	_ZTSN7sigslot12_signal_baseINS_15single_threadedEEE, 48
_ZTSN7sigslot12_signal_baseINS_15single_threadedEEE:
	.string	"N7sigslot12_signal_baseINS_15single_threadedEEE"
	.weak	_ZTSN7sigslot15single_threadedE
	.section	.rodata._ZTSN7sigslot15single_threadedE,"aG",@progbits,_ZTSN7sigslot15single_threadedE,comdat
	.align 2
	.type	_ZTSN7sigslot15single_threadedE, @object
	.size	_ZTSN7sigslot15single_threadedE, 28
_ZTSN7sigslot15single_threadedE:
	.string	"N7sigslot15single_threadedE"
	.weak	_ZTSN7sigslot7signal3IP10GuiElementiiNS_15single_threadedEEE
	.section	.rodata._ZTSN7sigslot7signal3IP10GuiElementiiNS_15single_threadedEEE,"aG",@progbits,_ZTSN7sigslot7signal3IP10GuiElementiiNS_15single_threadedEEE,comdat
	.align 2
	.type	_ZTSN7sigslot7signal3IP10GuiElementiiNS_15single_threadedEEE, @object
	.size	_ZTSN7sigslot7signal3IP10GuiElementiiNS_15single_threadedEEE, 57
_ZTSN7sigslot7signal3IP10GuiElementiiNS_15single_threadedEEE:
	.string	"N7sigslot7signal3IP10GuiElementiiNS_15single_threadedEEE"
	.weak	_ZTSN7sigslot13_signal_base3IP10GuiElementiiNS_15single_threadedEEE
	.section	.rodata._ZTSN7sigslot13_signal_base3IP10GuiElementiiNS_15single_threadedEEE,"aG",@progbits,_ZTSN7sigslot13_signal_base3IP10GuiElementiiNS_15single_threadedEEE,comdat
	.align 2
	.type	_ZTSN7sigslot13_signal_base3IP10GuiElementiiNS_15single_threadedEEE, @object
	.size	_ZTSN7sigslot13_signal_base3IP10GuiElementiiNS_15single_threadedEEE, 64
_ZTSN7sigslot13_signal_base3IP10GuiElementiiNS_15single_threadedEEE:
	.string	"N7sigslot13_signal_base3IP10GuiElementiiNS_15single_threadedEEE"
	.weak	_ZN7sigslot15single_threadedD1Ev
	.set	_ZN7sigslot15single_threadedD1Ev,_ZN7sigslot15single_threadedD2Ev
	.weak	_ZN7sigslot12_signal_baseINS_15single_threadedEED1Ev
	.set	_ZN7sigslot12_signal_baseINS_15single_threadedEED1Ev,_ZN7sigslot12_signal_baseINS_15single_threadedEED2Ev
	.weak	_ZN7sigslot7signal2IP10GuiElementbNS_15single_threadedEED1Ev
	.set	_ZN7sigslot7signal2IP10GuiElementbNS_15single_threadedEED1Ev,_ZN7sigslot7signal2IP10GuiElementbNS_15single_threadedEED2Ev
	.weak	_ZN7sigslot13_signal_base3IP10GuiElementiiNS_15single_threadedEED1Ev
	.set	_ZN7sigslot13_signal_base3IP10GuiElementiiNS_15single_threadedEED1Ev,_ZN7sigslot13_signal_base3IP10GuiElementiiNS_15single_threadedEED2Ev
	.weak	_ZN7sigslot7signal3IP10GuiElementiiNS_15single_threadedEED1Ev
	.set	_ZN7sigslot7signal3IP10GuiElementiiNS_15single_threadedEED1Ev,_ZN7sigslot7signal3IP10GuiElementiiNS_15single_threadedEED2Ev
	.weak	_ZN7sigslot13_signal_base2IP10GuiElementbNS_15single_threadedEED1Ev
	.set	_ZN7sigslot13_signal_base2IP10GuiElementbNS_15single_threadedEED1Ev,_ZN7sigslot13_signal_base2IP10GuiElementbNS_15single_threadedEED2Ev
	.weak	_ZN10GuiElementD1Ev
	.set	_ZN10GuiElementD1Ev,_ZN10GuiElementD2Ev
	.globl _ZN10GuiTooltipD1Ev
	.set	_ZN10GuiTooltipD1Ev,_ZN10GuiTooltipD2Ev
	.globl _ZN10GuiTooltipC1ESbIwSt11char_traitsIwESaIwEE
	.set	_ZN10GuiTooltipC1ESbIwSt11char_traitsIwESaIwEE,_ZN10GuiTooltipC2ESbIwSt11char_traitsIwESaIwEE
	.globl _ZN10GuiTooltipC1ESs
	.set	_ZN10GuiTooltipC1ESs,_ZN10GuiTooltipC2ESs
	.globl _ZN10GuiTooltipC1EPKw
	.set	_ZN10GuiTooltipC1EPKw,_ZN10GuiTooltipC2EPKw
	.globl _ZN10GuiTooltipC1EPKc
	.set	_ZN10GuiTooltipC1EPKc,_ZN10GuiTooltipC2EPKc
	.section	.rodata.cst4,"aM",@progbits,4
	.align 2
.LC1:
	.4byte	1501560836
.LC2:
	.4byte	1132396544
.LC3:
	.4byte	1056964608
	.section	.rodata.str1.4,"aMS",@progbits,1
	.align 2
.LC4:
	.string	"tooltip_left.png"
	.zero	3
.LC5:
	.string	"tooltip_tile.png"
	.zero	3
.LC6:
	.string	"tooltip_right.png"
	.section	".bss"
	.set	.LANCHOR0,. + 0
	.type	_ZL9ftgxWhite, @object
	.size	_ZL9ftgxWhite, 4
_ZL9ftgxWhite:
	.zero	4
	.section	".text"
.Letext0:
	.file 14 "d:\\devkitpro\\devkitppc\\bin\\../lib/gcc/powerpc-eabi/4.6.3/../../../../powerpc-eabi/include/stdint.h"
	.file 15 "d:/devkitPro/libogc/include/gctypes.h"
	.file 16 "d:/devkitPro/libogc/include/ogc/gx.h"
	.file 17 "d:\\devkitpro\\devkitppc\\bin\\../lib/gcc/powerpc-eabi/4.6.3/../../../../powerpc-eabi/include/machine/_types.h"
	.file 18 "d:\\devkitpro\\devkitppc\\bin\\../lib/gcc/powerpc-eabi/4.6.3/../../../../powerpc-eabi/include/sys/lock.h"
	.file 19 "d:\\devkitpro\\devkitppc\\bin\\../lib/gcc/powerpc-eabi/4.6.3/include/stddef.h"
	.file 20 "d:\\devkitpro\\devkitppc\\bin\\../lib/gcc/powerpc-eabi/4.6.3/../../../../powerpc-eabi/include/sys/_types.h"
	.file 21 "d:\\devkitpro\\devkitppc\\bin\\../lib/gcc/powerpc-eabi/4.6.3/../../../../powerpc-eabi/include/sys/reent.h"
	.file 22 "d:\\devkitpro\\devkitppc\\bin\\../lib/gcc/powerpc-eabi/4.6.3/../../../../powerpc-eabi/include/time.h"
	.file 23 "<built-in>"
	.file 24 "d:\\devkitpro\\devkitppc\\bin\\../lib/gcc/powerpc-eabi/4.6.3/../../../../powerpc-eabi/include/stdio.h"
	.file 25 "d:\\devkitpro\\devkitppc\\bin\\../lib/gcc/powerpc-eabi/4.6.3/../../../../powerpc-eabi/include/wchar.h"
	.file 26 "d:\\devkitpro\\devkitppc\\bin\\../lib/gcc/powerpc-eabi/4.6.3/../../../../powerpc-eabi/include/c++/4.6.3/cwchar"
	.file 27 "d:\\devkitpro\\devkitppc\\bin\\../lib/gcc/powerpc-eabi/4.6.3/../../../../powerpc-eabi/include/c++/4.6.3/powerpc-eabi/bits/c++config.h"
	.file 28 "d:\\devkitpro\\devkitppc\\bin\\../lib/gcc/powerpc-eabi/4.6.3/../../../../powerpc-eabi/include/c++/4.6.3/clocale"
	.file 29 "d:\\devkitpro\\devkitppc\\bin\\../lib/gcc/powerpc-eabi/4.6.3/../../../../powerpc-eabi/include/c++/4.6.3/bits/stringfwd.h"
	.file 30 "d:\\devkitpro\\devkitppc\\bin\\../lib/gcc/powerpc-eabi/4.6.3/../../../../powerpc-eabi/include/c++/4.6.3/bits/move.h"
	.file 31 "d:\\devkitpro\\devkitppc\\bin\\../lib/gcc/powerpc-eabi/4.6.3/../../../../powerpc-eabi/include/c++/4.6.3/bits/cpp_type_traits.h"
	.file 32 "d:\\devkitpro\\devkitppc\\bin\\../lib/gcc/powerpc-eabi/4.6.3/../../../../powerpc-eabi/include/c++/4.6.3/debug/debug.h"
	.file 33 "d:\\devkitpro\\devkitppc\\bin\\../lib/gcc/powerpc-eabi/4.6.3/../../../../powerpc-eabi/include/c++/4.6.3/bits/char_traits.h"
	.file 34 "d:\\devkitpro\\devkitppc\\bin\\../lib/gcc/powerpc-eabi/4.6.3/../../../../powerpc-eabi/include/c++/4.6.3/bits/allocator.h"
	.file 35 "d:\\devkitpro\\devkitppc\\bin\\../lib/gcc/powerpc-eabi/4.6.3/../../../../powerpc-eabi/include/locale.h"
	.file 36 "d:\\devkitpro\\devkitppc\\bin\\../lib/gcc/powerpc-eabi/4.6.3/../../../../powerpc-eabi/include/c++/4.6.3/powerpc-eabi/bits/atomic_word.h"
	.file 37 "d:\\devkitpro\\devkitppc\\bin\\../lib/gcc/powerpc-eabi/4.6.3/../../../../powerpc-eabi/include/c++/4.6.3/ext/numeric_traits.h"
	.file 38 "d:\\devkitpro\\devkitppc\\bin\\../lib/gcc/powerpc-eabi/4.6.3/../../../../powerpc-eabi/include/c++/4.6.3/bits/basic_string.tcc"
	.file 39 "d:\\devkitpro\\devkitppc\\bin\\../lib/gcc/powerpc-eabi/4.6.3/../../../../powerpc-eabi/include/c++/4.6.3/bits/stl_iterator_base_types.h"
	.file 40 "d:\\devkitpro\\devkitppc\\bin\\../lib/gcc/powerpc-eabi/4.6.3/../../../../powerpc-eabi/include/c++/4.6.3/bits/stl_iterator.h"
	.file 41 "d:/Projects/SaveGameManager/savegame-manager-gx/trunk/source/GUI/../Settings/../FileOperations/FileExtensions.h"
	.file 42 "d:/Projects/SaveGameManager/savegame-manager-gx/trunk/source/GUI/../Settings/../Controls/AppControls.hpp"
	.file 43 "d:/Projects/SaveGameManager/savegame-manager-gx/trunk/source/GUI/../Settings/CSettings.h"
	.file 44 "d:/devkitPro/libogc/include/freetype/config/ftconfig.h"
	.file 45 "d:\\devkitpro\\devkitppc\\bin\\../lib/gcc/powerpc-eabi/4.6.3/../../../../powerpc-eabi/include/c++/4.6.3/bits/stl_function.h"
	.file 46 "d:\\devkitpro\\devkitppc\\bin\\../lib/gcc/powerpc-eabi/4.6.3/../../../../powerpc-eabi/include/c++/4.6.3/bits/stl_pair.h"
	.file 47 "d:\\devkitpro\\devkitppc\\bin\\../lib/gcc/powerpc-eabi/4.6.3/../../../../powerpc-eabi/include/c++/4.6.3/new"