	.file	"gui_image.cpp"
	.section	".text"
.Ltext0:
	.section	.text._ZN7sigslot15single_threadedD2Ev,"axG",@progbits,_ZN7sigslot15single_threadedD5Ev,comdat
	.align 2
	.weak	_ZN7sigslot15single_threadedD2Ev
	.type	_ZN7sigslot15single_threadedD2Ev, @function
_ZN7sigslot15single_threadedD2Ev:
.LFB1148:
	.file 1 "d:/Projects/SaveGameManager/savegame-manager-gx/trunk/source/GUI/../sigslot.h"
	.loc 1 104 0
	.cfi_startproc
.LVL0:
.LBB1364:
	.loc 1 105 0
	lis 9,_ZTVN7sigslot15single_threadedE+8@ha
.LBE1364:
	.loc 1 107 0
.LBB1365:
	.loc 1 105 0
	la 0,_ZTVN7sigslot15single_threadedE+8@l(9)
	stw 0,0(3)
.LBE1365:
	.loc 1 107 0
	blr
	.cfi_endproc
.LFE1148:
	.size	_ZN7sigslot15single_threadedD2Ev, .-_ZN7sigslot15single_threadedD2Ev
	.section	.text._ZN7sigslot15single_threaded4lockEv,"axG",@progbits,_ZN7sigslot15single_threaded4lockEv,comdat
	.align 2
	.weak	_ZN7sigslot15single_threaded4lockEv
	.type	_ZN7sigslot15single_threaded4lockEv, @function
_ZN7sigslot15single_threaded4lockEv:
.LFB1151:
	.loc 1 109 0
	.cfi_startproc
.LVL1:
	.loc 1 112 0
	blr
	.cfi_endproc
.LFE1151:
	.size	_ZN7sigslot15single_threaded4lockEv, .-_ZN7sigslot15single_threaded4lockEv
	.section	.text._ZN7sigslot15single_threaded6unlockEv,"axG",@progbits,_ZN7sigslot15single_threaded6unlockEv,comdat
	.align 2
	.weak	_ZN7sigslot15single_threaded6unlockEv
	.type	_ZN7sigslot15single_threaded6unlockEv, @function
_ZN7sigslot15single_threaded6unlockEv:
.LFB1152:
	.loc 1 114 0
	.cfi_startproc
.LVL2:
	.loc 1 117 0
	blr
	.cfi_endproc
.LFE1152:
	.size	_ZN7sigslot15single_threaded6unlockEv, .-_ZN7sigslot15single_threaded6unlockEv
	.section	.text._ZN10GuiElement9SetParentEPS_,"axG",@progbits,_ZN10GuiElement9SetParentEPS_,comdat
	.align 2
	.weak	_ZN10GuiElement9SetParentEPS_
	.type	_ZN10GuiElement9SetParentEPS_, @function
_ZN10GuiElement9SetParentEPS_:
.LFB1384:
	.file 2 "d:/Projects/SaveGameManager/savegame-manager-gx/trunk/source/GUI/gui_element.h"
	.loc 2 92 0
	.cfi_startproc
.LVL3:
	.loc 2 92 0
	stw 4,96(3)
	blr
	.cfi_endproc
.LFE1384:
	.size	_ZN10GuiElement9SetParentEPS_, .-_ZN10GuiElement9SetParentEPS_
	.section	.text._ZN10GuiElement9GetParentEv,"axG",@progbits,_ZN10GuiElement9GetParentEv,comdat
	.align 2
	.weak	_ZN10GuiElement9GetParentEv
	.type	_ZN10GuiElement9GetParentEv, @function
_ZN10GuiElement9GetParentEv:
.LFB1385:
	.loc 2 95 0
	.cfi_startproc
.LVL4:
	.loc 2 95 0
	lwz 3,96(3)
.LVL5:
	blr
	.cfi_endproc
.LFE1385:
	.size	_ZN10GuiElement9GetParentEv, .-_ZN10GuiElement9GetParentEv
	.section	.text._ZN10GuiElement12GetZPositionEv,"axG",@progbits,_ZN10GuiElement12GetZPositionEv,comdat
	.align 2
	.weak	_ZN10GuiElement12GetZPositionEv
	.type	_ZN10GuiElement12GetZPositionEv, @function
_ZN10GuiElement12GetZPositionEv:
.LFB1386:
	.loc 2 106 0
	.cfi_startproc
.LVL6:
	mflr 0
	stwu 1,-16(1)
.LCFI0:
	.cfi_def_cfa_offset 16
	.cfi_register 65, 0
	stw 31,12(1)
	mr 31,3
	.cfi_offset 31, -4
	stw 0,20(1)
.LBB1366:
	.loc 2 110 0
	lwz 11,96(3)
	.loc 2 108 0
	li 3,0
.LVL7:
	.loc 2 110 0
	cmpwi 7,11,0
	beq- 7,.L8
	.cfi_offset 65, 4
	.loc 2 111 0
	lwz 9,0(11)
	mr 3,11
	lwz 0,24(9)
	mtctr 0
	bctrl
.LVL8:
.L8:
	.loc 2 113 0
	lwz 0,52(31)
.LBE1366:
	.loc 2 114 0
	lwz 31,12(1)
.LVL9:
	add 3,3,0
.LVL10:
	lwz 0,20(1)
	addi 1,1,16
.LCFI1:
	.cfi_def_cfa_offset 0
	.cfi_restore 31
	mtlr 0
	blr
	.cfi_endproc
.LFE1386:
	.size	_ZN10GuiElement12GetZPositionEv, .-_ZN10GuiElement12GetZPositionEv
	.section	.text._ZN10GuiElement10GetLeftPosEv,"axG",@progbits,_ZN10GuiElement10GetLeftPosEv,comdat
	.align 2
	.weak	_ZN10GuiElement10GetLeftPosEv
	.type	_ZN10GuiElement10GetLeftPosEv, @function
_ZN10GuiElement10GetLeftPosEv:
.LFB1387:
	.loc 2 116 0
	.cfi_startproc
.LVL11:
	.loc 2 116 0
	lwz 3,44(3)
.LVL12:
	blr
	.cfi_endproc
.LFE1387:
	.size	_ZN10GuiElement10GetLeftPosEv, .-_ZN10GuiElement10GetLeftPosEv
	.section	.text._ZN10GuiElement9GetTopPosEv,"axG",@progbits,_ZN10GuiElement9GetTopPosEv,comdat
	.align 2
	.weak	_ZN10GuiElement9GetTopPosEv
	.type	_ZN10GuiElement9GetTopPosEv, @function
_ZN10GuiElement9GetTopPosEv:
.LFB1388:
	.loc 2 118 0
	.cfi_startproc
.LVL13:
	.loc 2 118 0
	lwz 3,48(3)
.LVL14:
	blr
	.cfi_endproc
.LFE1388:
	.size	_ZN10GuiElement9GetTopPosEv, .-_ZN10GuiElement9GetTopPosEv
	.section	.text._ZN10GuiElement8GetWidthEv,"axG",@progbits,_ZN10GuiElement8GetWidthEv,comdat
	.align 2
	.weak	_ZN10GuiElement8GetWidthEv
	.type	_ZN10GuiElement8GetWidthEv, @function
_ZN10GuiElement8GetWidthEv:
.LFB1389:
	.loc 2 121 0
	.cfi_startproc
.LVL15:
	.loc 2 121 0
	lwz 3,36(3)
.LVL16:
	blr
	.cfi_endproc
.LFE1389:
	.size	_ZN10GuiElement8GetWidthEv, .-_ZN10GuiElement8GetWidthEv
	.section	.text._ZN10GuiElement9GetHeightEv,"axG",@progbits,_ZN10GuiElement9GetHeightEv,comdat
	.align 2
	.weak	_ZN10GuiElement9GetHeightEv
	.type	_ZN10GuiElement9GetHeightEv, @function
_ZN10GuiElement9GetHeightEv:
.LFB1390:
	.loc 2 124 0
	.cfi_startproc
.LVL17:
	.loc 2 124 0
	lwz 3,40(3)
.LVL18:
	blr
	.cfi_endproc
.LFE1390:
	.size	_ZN10GuiElement9GetHeightEv, .-_ZN10GuiElement9GetHeightEv
	.section	.text._ZN10GuiElement10SetVisibleEb,"axG",@progbits,_ZN10GuiElement10SetVisibleEb,comdat
	.align 2
	.weak	_ZN10GuiElement10SetVisibleEb
	.type	_ZN10GuiElement10SetVisibleEb, @function
_ZN10GuiElement10SetVisibleEb:
.LFB1392:
	.loc 2 135 0
	.cfi_startproc
	.cfi_personality 0,__gxx_personality_v0
	.cfi_lsda 0,.LLSDA1392
.LVL19:
	mflr 0
	stwu 1,-32(1)
.LCFI2:
	.cfi_def_cfa_offset 32
	.cfi_register 65, 0
	stw 27,12(1)
.LBB1367:
.LBB1368:
	.loc 1 2270 0
	addi 27,3,4
	.cfi_offset 27, -20
.LBE1368:
.LBE1367:
	.loc 2 135 0
	stw 0,36(1)
	stw 30,24(1)
	mr 30,3
	.cfi_offset 30, -8
	.cfi_offset 65, 4
.LBB1391:
.LBB1385:
.LBB1369:
.LBB1370:
	.loc 1 338 0
	lwz 9,4(3)
	mr 3,27
.LVL20:
.LBE1370:
.LBE1369:
.LBE1385:
.LBE1391:
	.loc 2 135 0
	stw 28,16(1)
	mr 28,4
	.cfi_offset 28, -16
.LBB1392:
.LBB1386:
.LBB1374:
.LBB1371:
	.loc 1 338 0
	lwz 0,8(9)
.LBE1371:
.LBE1374:
.LBE1386:
.LBE1392:
	.loc 2 135 0
	stw 29,20(1)
.LBB1393:
	.file 3 "d:/Projects/SaveGameManager/savegame-manager-gx/trunk/source/GUI/gui_image.cpp"
	.loc 3 389 0
	mr 29,30
	.cfi_offset 29, -12
.LBE1393:
	.loc 2 135 0
	stw 31,28(1)
.LBB1394:
.LBB1387:
.LBB1375:
.LBB1372:
	.loc 1 338 0
	mtctr 0
.LBE1372:
.LBE1375:
.LBE1387:
.LBE1394:
	.loc 2 137 0
	stb 4,29(30)
.LVL21:
.LEHB0:
.LBB1395:
.LBB1388:
.LBB1376:
.LBB1373:
	.loc 1 338 0
	.cfi_offset 31, -4
	bctrl
.LEHE0:
.LVL22:
.LBE1373:
.LBE1376:
.LBE1388:
	.loc 3 389 0
	lwzu 31,8(29)
.LVL23:
.LBB1389:
	.loc 1 2274 0
	cmpw 7,31,29
	beq- 7,.L16
.LVL24:
.L23:
	.loc 1 2279 0
	lwz 3,8(31)
	mr 4,30
	mr 5,28
.LBB1377:
.LBB1378:
	.file 4 "d:\\devkitpro\\devkitppc\\bin\\../lib/gcc/powerpc-eabi/4.6.3/../../../../powerpc-eabi/include/c++/4.6.3/bits/stl_list.h"
	.loc 4 234 0
	lwz 31,0(31)
.LVL25:
.LBE1378:
.LBE1377:
	.loc 1 2279 0
	lwz 9,0(3)
	lwz 0,12(9)
	mtctr 0
.LEHB1:
	bctrl
.LEHE1:
.LVL26:
	.loc 1 2274 0
	cmpw 7,29,31
	bne+ 7,.L23
.LVL27:
.L16:
.LBB1379:
.LBB1380:
.LBB1381:
	.loc 1 343 0
	lwz 9,4(30)
	mr 3,27
	lwz 0,12(9)
	mtctr 0
.LEHB2:
	bctrl
.LEHE2:
.LBE1381:
.LBE1380:
.LBE1379:
.LBE1389:
.LBE1395:
	.loc 2 139 0
	lwz 0,36(1)
	lwz 27,12(1)
.LVL28:
	mtlr 0
	lwz 28,16(1)
.LVL29:
	lwz 29,20(1)
	lwz 30,24(1)
.LVL30:
	lwz 31,28(1)
.LVL31:
	addi 1,1,32
	.cfi_remember_state
.LCFI3:
	.cfi_def_cfa_offset 0
	.cfi_restore 31
	.cfi_restore 30
	.cfi_restore 29
	.cfi_restore 28
	.cfi_restore 27
	blr
.LVL32:
.L22:
.LCFI4:
	.cfi_restore_state
.LBB1396:
.LBB1390:
.LBB1382:
.LBB1383:
.LBB1384:
	.loc 1 343 0
	lwz 9,4(30)
	mr 31,3
.LVL33:
	mr 3,27
	lwz 0,12(9)
	mtctr 0
	bctrl
	mr 3,31
.LEHB3:
	bl _Unwind_Resume
.LEHE3:
.LBE1384:
.LBE1383:
.LBE1382:
.LBE1390:
.LBE1396:
	.cfi_endproc
.LFE1392:
	.globl __gxx_personality_v0
	.section	.gcc_except_table,"a",@progbits
.LLSDA1392:
	.byte	0xff
	.byte	0xff
	.byte	0x1
	.uleb128 .LLSDACSE1392-.LLSDACSB1392
.LLSDACSB1392:
	.uleb128 .LEHB0-.LFB1392
	.uleb128 .LEHE0-.LEHB0
	.uleb128 0
	.uleb128 0
	.uleb128 .LEHB1-.LFB1392
	.uleb128 .LEHE1-.LEHB1
	.uleb128 .L22-.LFB1392
	.uleb128 0
	.uleb128 .LEHB2-.LFB1392
	.uleb128 .LEHE2-.LEHB2
	.uleb128 0
	.uleb128 0
	.uleb128 .LEHB3-.LFB1392
	.uleb128 .LEHE3-.LEHB3
	.uleb128 0
	.uleb128 0
.LLSDACSE1392:
	.section	.text._ZN10GuiElement10SetVisibleEb,"axG",@progbits,_ZN10GuiElement10SetVisibleEb,comdat
	.size	_ZN10GuiElement10SetVisibleEb, .-_ZN10GuiElement10SetVisibleEb
	.section	.text._ZN10GuiElement9IsVisibleEv,"axG",@progbits,_ZN10GuiElement9IsVisibleEv,comdat
	.align 2
	.weak	_ZN10GuiElement9IsVisibleEv
	.type	_ZN10GuiElement9IsVisibleEv, @function
_ZN10GuiElement9IsVisibleEv:
.LFB1393:
	.loc 2 142 0
	.cfi_startproc
.LVL34:
	.loc 2 142 0
	lbz 3,29(3)
.LVL35:
	blr
	.cfi_endproc
.LFE1393:
	.size	_ZN10GuiElement9IsVisibleEv, .-_ZN10GuiElement9IsVisibleEv
	.section	.text._ZN10GuiElement12IsSelectableEv,"axG",@progbits,_ZN10GuiElement12IsSelectableEv,comdat
	.align 2
	.weak	_ZN10GuiElement12IsSelectableEv
	.type	_ZN10GuiElement12IsSelectableEv, @function
_ZN10GuiElement12IsSelectableEv:
.LFB1394:
	.loc 2 145 0
	.cfi_startproc
.LVL36:
	.loc 2 149 0
	lwz 0,72(3)
	li 9,0
	cmpwi 7,0,4
	beq- 7,.L26
	.loc 2 149 0 is_stmt 0 discriminator 1
	cmpwi 7,0,2
	beq- 7,.L26
	.loc 2 149 0 discriminator 3
	lbz 9,30(3)
.L26:
	.loc 2 150 0 is_stmt 1 discriminator 5
	mr 3,9
.LVL37:
	blr
	.cfi_endproc
.LFE1394:
	.size	_ZN10GuiElement12IsSelectableEv, .-_ZN10GuiElement12IsSelectableEv
	.section	.text._ZN10GuiElement11IsClickableEv,"axG",@progbits,_ZN10GuiElement11IsClickableEv,comdat
	.align 2
	.weak	_ZN10GuiElement11IsClickableEv
	.type	_ZN10GuiElement11IsClickableEv, @function
_ZN10GuiElement11IsClickableEv:
.LFB1395:
	.loc 2 153 0
	.cfi_startproc
.LVL38:
	.loc 2 158 0
	lwz 0,72(3)
	li 9,0
	cmpwi 7,0,4
	beq- 7,.L30
	.loc 2 158 0 is_stmt 0 discriminator 1
	cmpwi 7,0,2
	beq- 7,.L30
	.loc 2 158 0 discriminator 3
	cmpwi 7,0,3
	beq- 7,.L30
	.loc 2 158 0 discriminator 4
	lbz 9,31(3)
.L30:
	.loc 2 159 0 is_stmt 1 discriminator 6
	mr 3,9
.LVL39:
	blr
	.cfi_endproc
.LFE1395:
	.size	_ZN10GuiElement11IsClickableEv, .-_ZN10GuiElement11IsClickableEv
	.section	.text._ZN10GuiElement10IsHoldableEv,"axG",@progbits,_ZN10GuiElement10IsHoldableEv,comdat
	.align 2
	.weak	_ZN10GuiElement10IsHoldableEv
	.type	_ZN10GuiElement10IsHoldableEv, @function
_ZN10GuiElement10IsHoldableEv:
.LFB1396:
	.loc 2 162 0
	.cfi_startproc
.LVL40:
	.loc 2 162 0
	lwz 9,72(3)
	li 0,0
	cmpwi 7,9,4
	beq- 7,.L35
	.loc 2 162 0 is_stmt 0 discriminator 1
	lbz 0,32(3)
.L35:
	.loc 2 162 0 discriminator 4
	mr 3,0
.LVL41:
	blr
	.cfi_endproc
.LFE1396:
	.size	_ZN10GuiElement10IsHoldableEv, .-_ZN10GuiElement10IsHoldableEv
	.section	.text._ZN10GuiElement13SetSelectableEb,"axG",@progbits,_ZN10GuiElement13SetSelectableEb,comdat
	.align 2
	.weak	_ZN10GuiElement13SetSelectableEb
	.type	_ZN10GuiElement13SetSelectableEb, @function
_ZN10GuiElement13SetSelectableEb:
.LFB1397:
	.loc 2 165 0 is_stmt 1
	.cfi_startproc
.LVL42:
	.loc 2 165 0
	stb 4,30(3)
	blr
	.cfi_endproc
.LFE1397:
	.size	_ZN10GuiElement13SetSelectableEb, .-_ZN10GuiElement13SetSelectableEb
	.section	.text._ZN10GuiElement12SetClickableEb,"axG",@progbits,_ZN10GuiElement12SetClickableEb,comdat
	.align 2
	.weak	_ZN10GuiElement12SetClickableEb
	.type	_ZN10GuiElement12SetClickableEb, @function
_ZN10GuiElement12SetClickableEb:
.LFB1398:
	.loc 2 168 0
	.cfi_startproc
.LVL43:
	.loc 2 168 0
	stb 4,31(3)
	blr
	.cfi_endproc
.LFE1398:
	.size	_ZN10GuiElement12SetClickableEb, .-_ZN10GuiElement12SetClickableEb
	.section	.text._ZN10GuiElement11SetHoldableEb,"axG",@progbits,_ZN10GuiElement11SetHoldableEb,comdat
	.align 2
	.weak	_ZN10GuiElement11SetHoldableEb
	.type	_ZN10GuiElement11SetHoldableEb, @function
_ZN10GuiElement11SetHoldableEb:
.LFB1399:
	.loc 2 171 0
	.cfi_startproc
.LVL44:
	.loc 2 171 0
	stb 4,32(3)
	blr
	.cfi_endproc
.LFE1399:
	.size	_ZN10GuiElement11SetHoldableEb, .-_ZN10GuiElement11SetHoldableEb
	.section	.text._ZN10GuiElement8GetStateEv,"axG",@progbits,_ZN10GuiElement8GetStateEv,comdat
	.align 2
	.weak	_ZN10GuiElement8GetStateEv
	.type	_ZN10GuiElement8GetStateEv, @function
_ZN10GuiElement8GetStateEv:
.LFB1400:
	.loc 2 178 0
	.cfi_startproc
.LVL45:
	.loc 2 178 0
	lwz 3,72(3)
.LVL46:
	blr
	.cfi_endproc
.LFE1400:
	.size	_ZN10GuiElement8GetStateEv, .-_ZN10GuiElement8GetStateEv
	.section	.text._ZN10GuiElement12GetStateChanEv,"axG",@progbits,_ZN10GuiElement12GetStateChanEv,comdat
	.align 2
	.weak	_ZN10GuiElement12GetStateChanEv
	.type	_ZN10GuiElement12GetStateChanEv, @function
_ZN10GuiElement12GetStateChanEv:
.LFB1401:
	.loc 2 181 0
	.cfi_startproc
.LVL47:
	.loc 2 181 0
	lwz 3,76(3)
.LVL48:
	blr
	.cfi_endproc
.LFE1401:
	.size	_ZN10GuiElement12GetStateChanEv, .-_ZN10GuiElement12GetStateChanEv
	.section	.text._ZN10GuiElement8SetAlphaEi,"axG",@progbits,_ZN10GuiElement8SetAlphaEi,comdat
	.align 2
	.weak	_ZN10GuiElement8SetAlphaEi
	.type	_ZN10GuiElement8SetAlphaEi, @function
_ZN10GuiElement8SetAlphaEi:
.LFB1403:
	.loc 2 190 0
	.cfi_startproc
.LVL49:
	.loc 2 190 0
	stw 4,56(3)
	blr
	.cfi_endproc
.LFE1403:
	.size	_ZN10GuiElement8SetAlphaEi, .-_ZN10GuiElement8SetAlphaEi
	.section	.text._ZN10GuiElement8GetAlphaEv,"axG",@progbits,_ZN10GuiElement8GetAlphaEv,comdat
	.align 2
	.weak	_ZN10GuiElement8GetAlphaEv
	.type	_ZN10GuiElement8GetAlphaEv, @function
_ZN10GuiElement8GetAlphaEv:
.LFB1404:
	.loc 2 194 0
	.cfi_startproc
.LVL50:
	mflr 0
	stwu 1,-40(1)
.LCFI5:
	.cfi_def_cfa_offset 40
	.cfi_register 65, 0
	stw 31,36(1)
	stw 0,44(1)
.LBB1397:
	.loc 2 198 0
	lwz 31,108(3)
	.cfi_offset 65, 4
	.cfi_offset 31, -4
	cmpwi 7,31,0
	blt- 7,.L46
.L44:
.LVL51:
	.loc 2 203 0
	lwz 3,96(3)
.LVL52:
	cmpwi 7,3,0
	beq- 7,.L45
	.loc 2 204 0
	lwz 9,0(3)
	xoris 31,31,0x8000
.LVL53:
	lwz 0,100(9)
	mtctr 0
	bctrl
	lis 0,0x4330
	xoris 3,3,0x8000
	stw 0,16(1)
	stw 3,20(1)
	lis 9,.LC1@ha
	lfs 0,.LC1@l(9)
	lis 9,.LC2@ha
	lfd 13,16(1)
	lfs 12,.LC2@l(9)
	addi 9,1,24
	fsub 13,13,0
	stw 31,12(1)
	stw 0,8(1)
	frsp 13,13
	fdivs 13,13,12
	lfd 12,8(1)
	fsub 0,12,0
	frsp 0,0
	fmuls 0,0,13
	fctiwz 0,0
	stfiwx 0,0,9
	lwz 31,24(1)
.LVL54:
.L45:
.LBE1397:
	.loc 2 207 0
	lwz 0,44(1)
	mr 3,31
	lwz 31,36(1)
.LVL55:
	mtlr 0
	addi 1,1,40
	.cfi_remember_state
.LCFI6:
	.cfi_def_cfa_offset 0
	.cfi_restore 31
	blr
.LVL56:
.L46:
.LCFI7:
	.cfi_restore_state
.LBB1398:
	.loc 2 201 0
	lwz 31,56(3)
.LVL57:
	b .L44
.LBE1398:
	.cfi_endproc
.LFE1404:
	.size	_ZN10GuiElement8GetAlphaEv, .-_ZN10GuiElement8GetAlphaEv
	.section	.text._ZN10GuiElement8SetScaleEf,"axG",@progbits,_ZN10GuiElement8SetScaleEf,comdat
	.align 2
	.weak	_ZN10GuiElement8SetScaleEf
	.type	_ZN10GuiElement8SetScaleEf, @function
_ZN10GuiElement8SetScaleEf:
.LFB1405:
	.loc 2 210 0
	.cfi_startproc
.LVL58:
	.loc 2 212 0
	stfs 1,60(3)
	.loc 2 214 0
	.loc 2 213 0
	stfs 1,64(3)
	.loc 2 214 0
	blr
	.cfi_endproc
.LFE1405:
	.size	_ZN10GuiElement8SetScaleEf, .-_ZN10GuiElement8SetScaleEf
	.section	.text._ZN10GuiElement9SetScaleXEf,"axG",@progbits,_ZN10GuiElement9SetScaleXEf,comdat
	.align 2
	.weak	_ZN10GuiElement9SetScaleXEf
	.type	_ZN10GuiElement9SetScaleXEf, @function
_ZN10GuiElement9SetScaleXEf:
.LFB1406:
	.loc 2 217 0
	.cfi_startproc
.LVL59:
	.loc 2 217 0
	stfs 1,60(3)
	blr
	.cfi_endproc
.LFE1406:
	.size	_ZN10GuiElement9SetScaleXEf, .-_ZN10GuiElement9SetScaleXEf
	.section	.text._ZN10GuiElement9SetScaleYEf,"axG",@progbits,_ZN10GuiElement9SetScaleYEf,comdat
	.align 2
	.weak	_ZN10GuiElement9SetScaleYEf
	.type	_ZN10GuiElement9SetScaleYEf, @function
_ZN10GuiElement9SetScaleYEf:
.LFB1407:
	.loc 2 220 0
	.cfi_startproc
.LVL60:
	.loc 2 220 0
	stfs 1,64(3)
	blr
	.cfi_endproc
.LFE1407:
	.size	_ZN10GuiElement9SetScaleYEf, .-_ZN10GuiElement9SetScaleYEf
	.section	.text._ZN10GuiElement8GetScaleEv,"axG",@progbits,_ZN10GuiElement8GetScaleEv,comdat
	.align 2
	.weak	_ZN10GuiElement8GetScaleEv
	.type	_ZN10GuiElement8GetScaleEv, @function
_ZN10GuiElement8GetScaleEv:
.LFB1408:
	.loc 2 223 0
	.cfi_startproc
.LVL61:
	mflr 0
	stwu 1,-16(1)
.LCFI8:
	.cfi_def_cfa_offset 16
	.cfi_register 65, 0
.LBB1399:
	.loc 2 225 0
	lis 9,.LC3@ha
.LBE1399:
	.loc 2 223 0
	stfd 31,8(1)
	stw 0,20(1)
.LBB1400:
	.loc 2 225 0
	lfs 0,64(3)
	lfs 31,60(3)
	.cfi_offset 65, 4
	.cfi_offset 63, -8
	.loc 2 227 0
	lwz 11,96(3)
	.loc 2 225 0
	fadds 31,31,0
	lfs 0,.LC3@l(9)
	.loc 2 227 0
	cmpwi 7,11,0
	.loc 2 225 0
	fmuls 31,31,0
	lfs 0,112(3)
	fmuls 31,31,0
.LVL62:
	.loc 2 227 0
	beq- 7,.L51
	.loc 2 228 0
	lwz 9,0(11)
	mr 3,11
.LVL63:
	lwz 0,116(9)
	mtctr 0
	bctrl
	fmuls 31,31,1
.LVL64:
.L51:
.LBE1400:
	.loc 2 231 0
	lwz 0,20(1)
	fmr 1,31
	lfd 31,8(1)
.LVL65:
	mtlr 0
	addi 1,1,16
.LCFI9:
	.cfi_def_cfa_offset 0
	.cfi_restore 63
	blr
	.cfi_endproc
.LFE1408:
	.size	_ZN10GuiElement8GetScaleEv, .-_ZN10GuiElement8GetScaleEv
	.section	.text._ZN10GuiElement9GetScaleXEv,"axG",@progbits,_ZN10GuiElement9GetScaleXEv,comdat
	.align 2
	.weak	_ZN10GuiElement9GetScaleXEv
	.type	_ZN10GuiElement9GetScaleXEv, @function
_ZN10GuiElement9GetScaleXEv:
.LFB1409:
	.loc 2 234 0
	.cfi_startproc
.LVL66:
	mflr 0
	stwu 1,-16(1)
.LCFI10:
	.cfi_def_cfa_offset 16
	.cfi_register 65, 0
	stfd 31,8(1)
	stw 0,20(1)
.LBB1401:
	.loc 2 238 0
	lwz 11,96(3)
	.loc 2 236 0
	lfs 31,60(3)
	.cfi_offset 65, 4
	.cfi_offset 63, -8
	.loc 2 238 0
	cmpwi 7,11,0
	.loc 2 236 0
	lfs 0,112(3)
	fmuls 31,31,0
.LVL67:
	.loc 2 238 0
	beq- 7,.L53
	.loc 2 239 0
	lwz 9,0(11)
	mr 3,11
.LVL68:
	lwz 0,120(9)
	mtctr 0
	bctrl
	fmuls 31,31,1
.LVL69:
.L53:
.LBE1401:
	.loc 2 242 0
	lwz 0,20(1)
	fmr 1,31
	lfd 31,8(1)
.LVL70:
	mtlr 0
	addi 1,1,16
.LCFI11:
	.cfi_def_cfa_offset 0
	.cfi_restore 63
	blr
	.cfi_endproc
.LFE1409:
	.size	_ZN10GuiElement9GetScaleXEv, .-_ZN10GuiElement9GetScaleXEv
	.section	.text._ZN10GuiElement9GetScaleYEv,"axG",@progbits,_ZN10GuiElement9GetScaleYEv,comdat
	.align 2
	.weak	_ZN10GuiElement9GetScaleYEv
	.type	_ZN10GuiElement9GetScaleYEv, @function
_ZN10GuiElement9GetScaleYEv:
.LFB1410:
	.loc 2 245 0
	.cfi_startproc
.LVL71:
	mflr 0
	stwu 1,-16(1)
.LCFI12:
	.cfi_def_cfa_offset 16
	.cfi_register 65, 0
	stfd 31,8(1)
	stw 0,20(1)
.LBB1402:
	.loc 2 249 0
	lwz 11,96(3)
	.loc 2 247 0
	lfs 31,64(3)
	.cfi_offset 65, 4
	.cfi_offset 63, -8
	.loc 2 249 0
	cmpwi 7,11,0
	.loc 2 247 0
	lfs 0,112(3)
	fmuls 31,31,0
.LVL72:
	.loc 2 249 0
	beq- 7,.L55
	.loc 2 250 0
	lwz 9,0(11)
	mr 3,11
.LVL73:
	lwz 0,124(9)
	mtctr 0
	bctrl
	fmuls 31,31,1
.LVL74:
.L55:
.LBE1402:
	.loc 2 253 0
	lwz 0,20(1)
	fmr 1,31
	lfd 31,8(1)
.LVL75:
	mtlr 0
	addi 1,1,16
.LCFI13:
	.cfi_def_cfa_offset 0
	.cfi_restore 63
	blr
	.cfi_endproc
.LFE1410:
	.size	_ZN10GuiElement9GetScaleYEv, .-_ZN10GuiElement9GetScaleYEv
	.section	.text._ZN10GuiElement6RumbleEv,"axG",@progbits,_ZN10GuiElement6RumbleEv,comdat
	.align 2
	.weak	_ZN10GuiElement6RumbleEv
	.type	_ZN10GuiElement6RumbleEv, @function
_ZN10GuiElement6RumbleEv:
.LFB1411:
	.loc 2 256 0
	.cfi_startproc
.LVL76:
	.loc 2 256 0
	lbz 3,28(3)
.LVL77:
	blr
	.cfi_endproc
.LFE1411:
	.size	_ZN10GuiElement6RumbleEv, .-_ZN10GuiElement6RumbleEv
	.section	.text._ZN10GuiElement9SetRumbleEb,"axG",@progbits,_ZN10GuiElement9SetRumbleEb,comdat
	.align 2
	.weak	_ZN10GuiElement9SetRumbleEb
	.type	_ZN10GuiElement9SetRumbleEb, @function
_ZN10GuiElement9SetRumbleEb:
.LFB1412:
	.loc 2 259 0
	.cfi_startproc
.LVL78:
	.loc 2 259 0
	stb 4,28(3)
	blr
	.cfi_endproc
.LFE1412:
	.size	_ZN10GuiElement9SetRumbleEb, .-_ZN10GuiElement9SetRumbleEb
	.section	.text._ZN10GuiElement13SetEffectGrowEv,"axG",@progbits,_ZN10GuiElement13SetEffectGrowEv,comdat
	.align 2
	.weak	_ZN10GuiElement13SetEffectGrowEv
	.type	_ZN10GuiElement13SetEffectGrowEv, @function
_ZN10GuiElement13SetEffectGrowEv:
.LFB1413:
	.loc 2 271 0
	.cfi_startproc
.LVL79:
	mflr 0
	stwu 1,-8(1)
.LCFI14:
	.cfi_def_cfa_offset 8
	.cfi_register 65, 0
	lwz 9,0(3)
	li 4,256
	li 5,4
	li 6,110
	stw 0,12(1)
	.loc 2 271 0
	lwz 0,140(9)
	.cfi_offset 65, 4
	mtctr 0
	bctrl
.LVL80:
	lwz 0,12(1)
	addi 1,1,8
.LCFI15:
	.cfi_def_cfa_offset 0
	mtlr 0
	blr
	.cfi_endproc
.LFE1413:
	.size	_ZN10GuiElement13SetEffectGrowEv, .-_ZN10GuiElement13SetEffectGrowEv
	.section	.text._ZNK10GuiElement9GetEffectEv,"axG",@progbits,_ZNK10GuiElement9GetEffectEv,comdat
	.align 2
	.weak	_ZNK10GuiElement9GetEffectEv
	.type	_ZNK10GuiElement9GetEffectEv, @function
_ZNK10GuiElement9GetEffectEv:
.LFB1414:
	.loc 2 276 0
	.cfi_startproc
.LVL81:
	.loc 2 276 0
	lwz 3,120(3)
.LVL82:
	blr
	.cfi_endproc
.LFE1414:
	.size	_ZNK10GuiElement9GetEffectEv, .-_ZNK10GuiElement9GetEffectEv
	.section	.text._ZNK10GuiElement10IsAnimatedEv,"axG",@progbits,_ZNK10GuiElement10IsAnimatedEv,comdat
	.align 2
	.weak	_ZNK10GuiElement10IsAnimatedEv
	.type	_ZNK10GuiElement10IsAnimatedEv, @function
_ZNK10GuiElement10IsAnimatedEv:
.LFB1415:
	.loc 2 278 0
	.cfi_startproc
.LVL83:
	mflr 0
	stwu 1,-8(1)
.LCFI16:
	.cfi_def_cfa_offset 8
	.cfi_register 65, 0
	stw 0,12(1)
	.loc 2 278 0
	lwz 9,0(3)
	lwz 0,152(9)
	.cfi_offset 65, 4
	mtctr 0
	bctrl
.LVL84:
	srawi 0,3,31
	subf 3,3,0
	lwz 0,12(1)
	srwi 3,3,31
	mtlr 0
	addi 1,1,8
.LCFI17:
	.cfi_def_cfa_offset 0
	blr
	.cfi_endproc
.LFE1415:
	.size	_ZNK10GuiElement10IsAnimatedEv, .-_ZNK10GuiElement10IsAnimatedEv
	.section	.text._ZN10GuiElement9SetBoundsE4RectIiE,"axG",@progbits,_ZN10GuiElement9SetBoundsE4RectIiE,comdat
	.align 2
	.weak	_ZN10GuiElement9SetBoundsE4RectIiE
	.type	_ZN10GuiElement9SetBoundsE4RectIiE, @function
_ZN10GuiElement9SetBoundsE4RectIiE:
.LFB1416:
	.loc 2 280 0
	.cfi_startproc
.LVL85:
.LBB1403:
.LBB1404:
	.file 5 "d:/Projects/SaveGameManager/savegame-manager-gx/trunk/source/GUI/../Tools/Rect.h"
	.loc 5 30 0
	lwz 10,0(4)
.LBE1404:
.LBE1403:
	.loc 2 280 0
.LBB1406:
.LBB1405:
	.loc 5 31 0
	lwz 11,8(4)
	.loc 5 32 0
	lwz 9,4(4)
	.loc 5 33 0
	lwz 0,12(4)
.LVL86:
	.loc 5 30 0
	stw 10,80(3)
	.loc 5 31 0
	stw 11,88(3)
	.loc 5 32 0
	stw 9,84(3)
	.loc 5 33 0
	stw 0,92(3)
.LBE1405:
.LBE1406:
	.loc 2 280 0
	blr
	.cfi_endproc
.LFE1416:
	.size	_ZN10GuiElement9SetBoundsE4RectIiE, .-_ZN10GuiElement9SetBoundsE4RectIiE
	.section	.text._ZN10GuiElement8IsInsideEii,"axG",@progbits,_ZN10GuiElement8IsInsideEii,comdat
	.align 2
	.weak	_ZN10GuiElement8IsInsideEii
	.type	_ZN10GuiElement8IsInsideEii, @function
_ZN10GuiElement8IsInsideEii:
.LFB1417:
	.loc 2 285 0
	.cfi_startproc
.LVL87:
	mflr 0
	stwu 1,-24(1)
.LCFI18:
	.cfi_def_cfa_offset 24
	.cfi_register 65, 0
	stw 28,8(1)
	mr 28,5
	.cfi_offset 28, -16
	stw 0,28(1)
	stw 29,12(1)
	.loc 2 290 0
	li 29,0
	.cfi_offset 29, -12
	.cfi_offset 65, 4
	.loc 2 287 0
	lwz 9,0(3)
	.loc 2 285 0
	stw 30,16(1)
	mr 30,4
	.cfi_offset 30, -8
	.loc 2 287 0
	lwz 0,16(9)
	.loc 2 285 0
	stw 31,20(1)
	.loc 2 285 0
	mr 31,3
	.cfi_offset 31, -4
	.loc 2 287 0
	mtctr 0
	bctrl
.LVL88:
	.loc 2 290 0
	cmpw 7,3,30
	blt- 7,.L67
.L63:
	.loc 2 291 0 discriminator 6
	lwz 0,28(1)
	mr 3,29
	lwz 28,8(1)
.LVL89:
	mtlr 0
	lwz 29,12(1)
	lwz 30,16(1)
.LVL90:
	lwz 31,20(1)
.LVL91:
	addi 1,1,24
	.cfi_remember_state
.LCFI19:
	.cfi_def_cfa_offset 0
	.cfi_restore 31
	.cfi_restore 30
	.cfi_restore 29
	.cfi_restore 28
	blr
.LVL92:
.L67:
.LCFI20:
	.cfi_restore_state
	.loc 2 288 0 discriminator 1
	lwz 9,0(31)
	mr 3,31
	lwz 0,16(9)
	mtctr 0
	bctrl
	.loc 2 290 0 discriminator 1
	lwz 0,36(31)
	add 0,3,0
	cmpw 7,30,0
	bge+ 7,.L63
	.loc 2 289 0 discriminator 3
	lwz 9,0(31)
	mr 3,31
	lwz 0,20(9)
	mtctr 0
	bctrl
	.loc 2 290 0 discriminator 3
	cmpw 7,3,28
	bge+ 7,.L63
	.loc 2 290 0 is_stmt 0 discriminator 4
	lwz 9,0(31)
	mr 3,31
	lwz 0,20(9)
	mtctr 0
	bctrl
	lwz 0,40(31)
	add 0,3,0
	.loc 2 285 0 is_stmt 1 discriminator 4
	cmpw 7,28,0
	mfcr 29
	rlwinm 29,29,29,1
	b .L63
	.cfi_endproc
.LFE1417:
	.size	_ZN10GuiElement8IsInsideEii, .-_ZN10GuiElement8IsInsideEii
	.section	.text._ZN10GuiElement11SetPositionEii,"axG",@progbits,_ZN10GuiElement11SetPositionEii,comdat
	.align 2
	.weak	_ZN10GuiElement11SetPositionEii
	.type	_ZN10GuiElement11SetPositionEii, @function
_ZN10GuiElement11SetPositionEii:
.LFB1418:
	.loc 2 295 0
	.cfi_startproc
.LVL93:
	.loc 2 297 0
	stw 4,44(3)
	.loc 2 299 0
	.loc 2 298 0
	stw 5,48(3)
	.loc 2 299 0
	blr
	.cfi_endproc
.LFE1418:
	.size	_ZN10GuiElement11SetPositionEii, .-_ZN10GuiElement11SetPositionEii
	.section	.text._ZN10GuiElement11SetPositionEiii,"axG",@progbits,_ZN10GuiElement11SetPositionEiii,comdat
	.align 2
	.weak	_ZN10GuiElement11SetPositionEiii
	.type	_ZN10GuiElement11SetPositionEiii, @function
_ZN10GuiElement11SetPositionEiii:
.LFB1419:
	.loc 2 304 0
	.cfi_startproc
.LVL94:
	.loc 2 306 0
	stw 4,44(3)
	.loc 2 309 0
	.loc 2 307 0
	stw 5,48(3)
	.loc 2 308 0
	stw 6,52(3)
	.loc 2 309 0
	blr
	.cfi_endproc
.LFE1419:
	.size	_ZN10GuiElement11SetPositionEiii, .-_ZN10GuiElement11SetPositionEiii
	.section	.text._ZN10GuiElement11GetSelectedEv,"axG",@progbits,_ZN10GuiElement11GetSelectedEv,comdat
	.align 2
	.weak	_ZN10GuiElement11GetSelectedEv
	.type	_ZN10GuiElement11GetSelectedEv, @function
_ZN10GuiElement11GetSelectedEv:
.LFB1420:
	.loc 2 312 0
	.cfi_startproc
.LVL95:
	.loc 2 312 0
	li 3,-1
.LVL96:
	blr
	.cfi_endproc
.LFE1420:
	.size	_ZN10GuiElement11GetSelectedEv, .-_ZN10GuiElement11GetSelectedEv
	.section	.text._ZN10GuiElement12SetAlignmentEi,"axG",@progbits,_ZN10GuiElement12SetAlignmentEi,comdat
	.align 2
	.weak	_ZN10GuiElement12SetAlignmentEi
	.type	_ZN10GuiElement12SetAlignmentEi, @function
_ZN10GuiElement12SetAlignmentEi:
.LFB1421:
	.loc 2 316 0
	.cfi_startproc
.LVL97:
	.loc 2 316 0
	stw 4,68(3)
	blr
	.cfi_endproc
.LFE1421:
	.size	_ZN10GuiElement12SetAlignmentEi, .-_ZN10GuiElement12SetAlignmentEi
	.section	.text._ZNK10GuiElement12GetAlignmentEv,"axG",@progbits,_ZNK10GuiElement12GetAlignmentEv,comdat
	.align 2
	.weak	_ZNK10GuiElement12GetAlignmentEv
	.type	_ZNK10GuiElement12GetAlignmentEv, @function
_ZNK10GuiElement12GetAlignmentEv:
.LFB1422:
	.loc 2 318 0
	.cfi_startproc
.LVL98:
	.loc 2 318 0
	lwz 3,68(3)
.LVL99:
	blr
	.cfi_endproc
.LFE1422:
	.size	_ZNK10GuiElement12GetAlignmentEv, .-_ZNK10GuiElement12GetAlignmentEv
	.section	.text._ZN10GuiElement6UpdateEP10GuiTrigger,"axG",@progbits,_ZN10GuiElement6UpdateEP10GuiTrigger,comdat
	.align 2
	.weak	_ZN10GuiElement6UpdateEP10GuiTrigger
	.type	_ZN10GuiElement6UpdateEP10GuiTrigger, @function
_ZN10GuiElement6UpdateEP10GuiTrigger:
.LFB1423:
	.loc 2 321 0
	.cfi_startproc
.LVL100:
	.loc 2 321 0
	blr
	.cfi_endproc
.LFE1423:
	.size	_ZN10GuiElement6UpdateEP10GuiTrigger, .-_ZN10GuiElement6UpdateEP10GuiTrigger
	.section	".text"
	.align 2
	.globl _ZN8GuiImage7SetSizeEii
	.type	_ZN8GuiImage7SetSizeEii, @function
_ZN8GuiImage7SetSizeEii:
.LFB1571:
	.loc 3 222 0
	.cfi_startproc
.LVL101:
	.loc 3 223 0
	lwz 9,144(3)
	addi 9,9,-1
	cmplwi 7,9,1
	bgtlr+ 7
	.loc 3 226 0
	stw 4,36(3)
	.loc 3 227 0
	stw 5,40(3)
	blr
	.cfi_endproc
.LFE1571:
	.size	_ZN8GuiImage7SetSizeEii, .-_ZN8GuiImage7SetSizeEii
	.section	.text._ZN7sigslot12_signal_baseINS_15single_threadedEED2Ev,"axG",@progbits,_ZN7sigslot12_signal_baseINS_15single_threadedEED5Ev,comdat
	.align 2
	.weak	_ZN7sigslot12_signal_baseINS_15single_threadedEED2Ev
	.type	_ZN7sigslot12_signal_baseINS_15single_threadedEED2Ev, @function
_ZN7sigslot12_signal_baseINS_15single_threadedEED2Ev:
.LFB1606:
	.loc 1 466 0
	.cfi_startproc
.LVL102:
.LBB1407:
.LBB1408:
.LBB1409:
.LBB1410:
	.loc 1 105 0
	lis 9,_ZTVN7sigslot15single_threadedE+8@ha
.LBE1410:
.LBE1409:
.LBE1408:
.LBE1407:
	.loc 1 466 0
.LBB1414:
.LBB1413:
.LBB1412:
.LBB1411:
	.loc 1 105 0
	la 0,_ZTVN7sigslot15single_threadedE+8@l(9)
	stw 0,0(3)
.LBE1411:
.LBE1412:
.LBE1413:
.LBE1414:
	.loc 1 466 0
	blr
	.cfi_endproc
.LFE1606:
	.size	_ZN7sigslot12_signal_baseINS_15single_threadedEED2Ev, .-_ZN7sigslot12_signal_baseINS_15single_threadedEED2Ev
	.section	.text._ZN7sigslot13_signal_base3IP10GuiElementiiNS_15single_threadedEE14slot_duplicateEPKNS_9has_slotsIS3_EEPS6_,"axG",@progbits,_ZN7sigslot13_signal_base3IP10GuiElementiiNS_15single_threadedEE14slot_duplicateEPKNS_9has_slotsIS3_EEPS6_,comdat
	.align 2
	.weak	_ZN7sigslot13_signal_base3IP10GuiElementiiNS_15single_threadedEE14slot_duplicateEPKNS_9has_slotsIS3_EEPS6_
	.type	_ZN7sigslot13_signal_base3IP10GuiElementiiNS_15single_threadedEE14slot_duplicateEPKNS_9has_slotsIS3_EEPS6_, @function
_ZN7sigslot13_signal_base3IP10GuiElementiiNS_15single_threadedEE14slot_duplicateEPKNS_9has_slotsIS3_EEPS6_:
.LFB1811:
	.loc 1 926 0
	.cfi_startproc
	.cfi_personality 0,__gxx_personality_v0
	.cfi_lsda 0,.LLSDA1811
.LVL103:
	mflr 0
	stwu 1,-32(1)
.LCFI21:
	.cfi_def_cfa_offset 32
	.cfi_register 65, 0
	stw 26,8(1)
	mr 26,5
	.cfi_offset 26, -24
	stw 0,36(1)
	stw 27,12(1)
	mr 27,3
	.cfi_offset 27, -20
	.cfi_offset 65, 4
.LVL104:
.LBB1415:
.LBB1416:
.LBB1417:
	.loc 1 338 0
	lwz 9,0(3)
.LBE1417:
.LBE1416:
.LBE1415:
	.loc 1 926 0
	stw 29,20(1)
	mr 29,4
	.cfi_offset 29, -12
.LBB1446:
.LBB1422:
.LBB1418:
	.loc 1 338 0
	lwz 0,8(9)
.LBE1418:
.LBE1422:
.LBE1446:
	.loc 1 926 0
	stw 30,24(1)
.LBB1447:
.LBB1423:
.LBB1419:
	.loc 3 389 0
	mr 30,27
	.cfi_offset 30, -8
.LBE1419:
.LBE1423:
.LBE1447:
	.loc 1 926 0
	stw 31,28(1)
.LBB1448:
.LBB1424:
.LBB1420:
	.loc 1 338 0
	mtctr 0
.LBE1420:
.LBE1424:
.LBE1448:
	.loc 1 926 0
	stw 28,16(1)
.LEHB4:
.LBB1449:
.LBB1425:
.LBB1421:
	.loc 1 338 0
	.cfi_offset 28, -16
	.cfi_offset 31, -4
	bctrl
.LEHE4:
.LVL105:
	.loc 3 389 0
	lwzu 31,4(30)
.LVL106:
.LBE1421:
.LBE1425:
	.loc 1 932 0
	cmpw 7,31,30
	bne+ 7,.L89
	b .L80
.LVL107:
.L81:
.LBB1426:
.LBB1427:
	.loc 4 154 0
	lwz 31,0(31)
.LVL108:
.LBE1427:
.LBE1426:
	.loc 1 932 0
	cmpw 7,30,31
	beq- 7,.L80
.LVL109:
.L89:
	.loc 1 934 0
	lwz 3,8(31)
	lwz 9,0(3)
	lwz 0,8(9)
	mtctr 0
.LEHB5:
	bctrl
	cmpw 7,29,3
	bne+ 7,.L81
.LVL110:
	.loc 1 936 0
	lwz 3,8(31)
	mr 4,26
	lwz 9,0(3)
	lwz 0,20(9)
	mtctr 0
	bctrl
	mr 28,3
.LVL111:
.LBB1429:
.LBB1430:
.LBB1431:
.LBB1432:
.LBB1433:
.LBB1434:
.LBB1435:
.LBB1436:
	.file 6 "d:\\devkitpro\\devkitppc\\bin\\../lib/gcc/powerpc-eabi/4.6.3/../../../../powerpc-eabi/include/c++/4.6.3/ext/new_allocator.h"
	.loc 6 92 0
	li 3,12
	bl _Znwj
.LEHE5:
.LVL112:
.LBE1436:
.LBE1435:
.LBE1434:
.LBB1437:
.LBB1438:
	.loc 6 108 0 discriminator 1
	cmpwi 7,3,-8
	beq- 7,.L83
	.loc 6 108 0 is_stmt 0
	stw 28,8(3)
.L83:
.LVL113:
.LBE1438:
.LBE1437:
.LBE1433:
.LBE1432:
	.loc 4 1516 0 is_stmt 1
	mr 4,30
	bl _ZNSt8__detail15_List_node_base7_M_hookEPS0_
.LVL114:
.LBE1431:
.LBE1430:
.LBE1429:
.LBB1439:
.LBB1428:
	.loc 4 154 0
	lwz 31,0(31)
.LVL115:
.LBE1428:
.LBE1439:
	.loc 1 932 0
	cmpw 7,30,31
	bne+ 7,.L89
.LVL116:
.L80:
.LBB1440:
.LBB1441:
.LBB1442:
	.loc 1 343 0
	lwz 9,0(27)
	mr 3,27
	lwz 0,12(9)
	mtctr 0
.LEHB6:
	bctrl
.LEHE6:
.LBE1442:
.LBE1441:
.LBE1440:
.LBE1449:
	.loc 1 941 0
	lwz 0,36(1)
	lwz 26,8(1)
.LVL117:
	mtlr 0
	lwz 27,12(1)
.LVL118:
	lwz 28,16(1)
	lwz 29,20(1)
.LVL119:
	lwz 30,24(1)
.LVL120:
	lwz 31,28(1)
.LVL121:
	addi 1,1,32
	.cfi_remember_state
.LCFI22:
	.cfi_def_cfa_offset 0
	.cfi_restore 31
	.cfi_restore 30
	.cfi_restore 29
	.cfi_restore 28
	.cfi_restore 27
	.cfi_restore 26
	blr
.LVL122:
.L88:
.LCFI23:
	.cfi_restore_state
.LBB1450:
.LBB1443:
.LBB1444:
.LBB1445:
	.loc 1 343 0
	lwz 9,0(27)
	mr 31,3
.LVL123:
	mr 3,27
	lwz 0,12(9)
	mtctr 0
	bctrl
	mr 3,31
.LEHB7:
	bl _Unwind_Resume
.LEHE7:
.LBE1445:
.LBE1444:
.LBE1443:
.LBE1450:
	.cfi_endproc
.LFE1811:
	.section	.gcc_except_table
.LLSDA1811:
	.byte	0xff
	.byte	0xff
	.byte	0x1
	.uleb128 .LLSDACSE1811-.LLSDACSB1811
.LLSDACSB1811:
	.uleb128 .LEHB4-.LFB1811
	.uleb128 .LEHE4-.LEHB4
	.uleb128 0
	.uleb128 0
	.uleb128 .LEHB5-.LFB1811
	.uleb128 .LEHE5-.LEHB5
	.uleb128 .L88-.LFB1811
	.uleb128 0
	.uleb128 .LEHB6-.LFB1811
	.uleb128 .LEHE6-.LEHB6
	.uleb128 0
	.uleb128 0
	.uleb128 .LEHB7-.LFB1811
	.uleb128 .LEHE7-.LEHB7
	.uleb128 0
	.uleb128 0
.LLSDACSE1811:
	.section	.text._ZN7sigslot13_signal_base3IP10GuiElementiiNS_15single_threadedEE14slot_duplicateEPKNS_9has_slotsIS3_EEPS6_,"axG",@progbits,_ZN7sigslot13_signal_base3IP10GuiElementiiNS_15single_threadedEE14slot_duplicateEPKNS_9has_slotsIS3_EEPS6_,comdat
	.size	_ZN7sigslot13_signal_base3IP10GuiElementiiNS_15single_threadedEE14slot_duplicateEPKNS_9has_slotsIS3_EEPS6_, .-_ZN7sigslot13_signal_base3IP10GuiElementiiNS_15single_threadedEE14slot_duplicateEPKNS_9has_slotsIS3_EEPS6_
	.section	.text._ZN7sigslot13_signal_base2IP10GuiElementbNS_15single_threadedEE14slot_duplicateEPKNS_9has_slotsIS3_EEPS6_,"axG",@progbits,_ZN7sigslot13_signal_base2IP10GuiElementbNS_15single_threadedEE14slot_duplicateEPKNS_9has_slotsIS3_EEPS6_,comdat
	.align 2
	.weak	_ZN7sigslot13_signal_base2IP10GuiElementbNS_15single_threadedEE14slot_duplicateEPKNS_9has_slotsIS3_EEPS6_
	.type	_ZN7sigslot13_signal_base2IP10GuiElementbNS_15single_threadedEE14slot_duplicateEPKNS_9has_slotsIS3_EEPS6_, @function
_ZN7sigslot13_signal_base2IP10GuiElementbNS_15single_threadedEE14slot_duplicateEPKNS_9has_slotsIS3_EEPS6_:
.LFB1813:
	.loc 1 806 0
	.cfi_startproc
	.cfi_personality 0,__gxx_personality_v0
	.cfi_lsda 0,.LLSDA1813
.LVL124:
	mflr 0
	stwu 1,-32(1)
.LCFI24:
	.cfi_def_cfa_offset 32
	.cfi_register 65, 0
	stw 26,8(1)
	mr 26,5
	.cfi_offset 26, -24
	stw 0,36(1)
	stw 27,12(1)
	mr 27,3
	.cfi_offset 27, -20
	.cfi_offset 65, 4
.LVL125:
.LBB1451:
.LBB1452:
.LBB1453:
	.loc 1 338 0
	lwz 9,0(3)
.LBE1453:
.LBE1452:
.LBE1451:
	.loc 1 806 0
	stw 29,20(1)
	mr 29,4
	.cfi_offset 29, -12
.LBB1482:
.LBB1458:
.LBB1454:
	.loc 1 338 0
	lwz 0,8(9)
.LBE1454:
.LBE1458:
.LBE1482:
	.loc 1 806 0
	stw 30,24(1)
.LBB1483:
.LBB1459:
.LBB1455:
	.loc 3 389 0
	mr 30,27
	.cfi_offset 30, -8
.LBE1455:
.LBE1459:
.LBE1483:
	.loc 1 806 0
	stw 31,28(1)
.LBB1484:
.LBB1460:
.LBB1456:
	.loc 1 338 0
	mtctr 0
.LBE1456:
.LBE1460:
.LBE1484:
	.loc 1 806 0
	stw 28,16(1)
.LEHB8:
.LBB1485:
.LBB1461:
.LBB1457:
	.loc 1 338 0
	.cfi_offset 28, -16
	.cfi_offset 31, -4
	bctrl
.LEHE8:
.LVL126:
	.loc 3 389 0
	lwzu 31,4(30)
.LVL127:
.LBE1457:
.LBE1461:
	.loc 1 812 0
	cmpw 7,31,30
	bne+ 7,.L101
	b .L92
.LVL128:
.L93:
.LBB1462:
.LBB1463:
	.loc 4 154 0
	lwz 31,0(31)
.LVL129:
.LBE1463:
.LBE1462:
	.loc 1 812 0
	cmpw 7,30,31
	beq- 7,.L92
.LVL130:
.L101:
	.loc 1 814 0
	lwz 3,8(31)
	lwz 9,0(3)
	lwz 0,8(9)
	mtctr 0
.LEHB9:
	bctrl
	cmpw 7,29,3
	bne+ 7,.L93
.LVL131:
	.loc 1 816 0
	lwz 3,8(31)
	mr 4,26
	lwz 9,0(3)
	lwz 0,20(9)
	mtctr 0
	bctrl
	mr 28,3
.LVL132:
.LBB1465:
.LBB1466:
.LBB1467:
.LBB1468:
.LBB1469:
.LBB1470:
.LBB1471:
.LBB1472:
	.loc 6 92 0
	li 3,12
	bl _Znwj
.LEHE9:
.LVL133:
.LBE1472:
.LBE1471:
.LBE1470:
.LBB1473:
.LBB1474:
	.loc 6 108 0 discriminator 1
	cmpwi 7,3,-8
	beq- 7,.L95
	.loc 6 108 0 is_stmt 0
	stw 28,8(3)
.L95:
.LVL134:
.LBE1474:
.LBE1473:
.LBE1469:
.LBE1468:
	.loc 4 1516 0 is_stmt 1
	mr 4,30
	bl _ZNSt8__detail15_List_node_base7_M_hookEPS0_
.LVL135:
.LBE1467:
.LBE1466:
.LBE1465:
.LBB1475:
.LBB1464:
	.loc 4 154 0
	lwz 31,0(31)
.LVL136:
.LBE1464:
.LBE1475:
	.loc 1 812 0
	cmpw 7,30,31
	bne+ 7,.L101
.LVL137:
.L92:
.LBB1476:
.LBB1477:
.LBB1478:
	.loc 1 343 0
	lwz 9,0(27)
	mr 3,27
	lwz 0,12(9)
	mtctr 0
.LEHB10:
	bctrl
.LEHE10:
.LBE1478:
.LBE1477:
.LBE1476:
.LBE1485:
	.loc 1 821 0
	lwz 0,36(1)
	lwz 26,8(1)
.LVL138:
	mtlr 0
	lwz 27,12(1)
.LVL139:
	lwz 28,16(1)
	lwz 29,20(1)
.LVL140:
	lwz 30,24(1)
.LVL141:
	lwz 31,28(1)
.LVL142:
	addi 1,1,32
	.cfi_remember_state
.LCFI25:
	.cfi_def_cfa_offset 0
	.cfi_restore 31
	.cfi_restore 30
	.cfi_restore 29
	.cfi_restore 28
	.cfi_restore 27
	.cfi_restore 26
	blr
.LVL143:
.L100:
.LCFI26:
	.cfi_restore_state
.LBB1486:
.LBB1479:
.LBB1480:
.LBB1481:
	.loc 1 343 0
	lwz 9,0(27)
	mr 31,3
.LVL144:
	mr 3,27
	lwz 0,12(9)
	mtctr 0
	bctrl
	mr 3,31
.LEHB11:
	bl _Unwind_Resume
.LEHE11:
.LBE1481:
.LBE1480:
.LBE1479:
.LBE1486:
	.cfi_endproc
.LFE1813:
	.section	.gcc_except_table
.LLSDA1813:
	.byte	0xff
	.byte	0xff
	.byte	0x1
	.uleb128 .LLSDACSE1813-.LLSDACSB1813
.LLSDACSB1813:
	.uleb128 .LEHB8-.LFB1813
	.uleb128 .LEHE8-.LEHB8
	.uleb128 0
	.uleb128 0
	.uleb128 .LEHB9-.LFB1813
	.uleb128 .LEHE9-.LEHB9
	.uleb128 .L100-.LFB1813
	.uleb128 0
	.uleb128 .LEHB10-.LFB1813
	.uleb128 .LEHE10-.LEHB10
	.uleb128 0
	.uleb128 0
	.uleb128 .LEHB11-.LFB1813
	.uleb128 .LEHE11-.LEHB11
	.uleb128 0
	.uleb128 0
.LLSDACSE1813:
	.section	.text._ZN7sigslot13_signal_base2IP10GuiElementbNS_15single_threadedEE14slot_duplicateEPKNS_9has_slotsIS3_EEPS6_,"axG",@progbits,_ZN7sigslot13_signal_base2IP10GuiElementbNS_15single_threadedEE14slot_duplicateEPKNS_9has_slotsIS3_EEPS6_,comdat
	.size	_ZN7sigslot13_signal_base2IP10GuiElementbNS_15single_threadedEE14slot_duplicateEPKNS_9has_slotsIS3_EEPS6_, .-_ZN7sigslot13_signal_base2IP10GuiElementbNS_15single_threadedEE14slot_duplicateEPKNS_9has_slotsIS3_EEPS6_
	.section	.text._ZN7sigslot12_signal_baseINS_15single_threadedEED0Ev,"axG",@progbits,_ZN7sigslot12_signal_baseINS_15single_threadedEED5Ev,comdat
	.align 2
	.weak	_ZN7sigslot12_signal_baseINS_15single_threadedEED0Ev
	.type	_ZN7sigslot12_signal_baseINS_15single_threadedEED0Ev, @function
_ZN7sigslot12_signal_baseINS_15single_threadedEED0Ev:
.LFB1608:
	.loc 1 466 0
	.cfi_startproc
.LVL145:
	mflr 0
	stwu 1,-8(1)
.LCFI27:
	.cfi_def_cfa_offset 8
	.cfi_register 65, 0
.LBB1487:
.LBB1488:
.LBB1489:
.LBB1490:
.LBB1491:
.LBB1492:
	.loc 1 105 0
	lis 9,_ZTVN7sigslot15single_threadedE+8@ha
.LBE1492:
.LBE1491:
.LBE1490:
.LBE1489:
.LBE1488:
.LBE1487:
	.loc 1 466 0
	stw 0,12(1)
.LBB1498:
.LBB1497:
.LBB1496:
.LBB1495:
.LBB1494:
.LBB1493:
	.loc 1 105 0
	la 0,_ZTVN7sigslot15single_threadedE+8@l(9)
	.cfi_offset 65, 4
	stw 0,0(3)
.LBE1493:
.LBE1494:
.LBE1495:
.LBE1496:
.LBE1497:
.LBE1498:
	.loc 1 466 0
	bl _ZdlPv
.LVL146:
	lwz 0,12(1)
	addi 1,1,8
.LCFI28:
	.cfi_def_cfa_offset 0
	mtlr 0
	blr
	.cfi_endproc
.LFE1608:
	.size	_ZN7sigslot12_signal_baseINS_15single_threadedEED0Ev, .-_ZN7sigslot12_signal_baseINS_15single_threadedEED0Ev
	.section	.text._ZN7sigslot15single_threadedD0Ev,"axG",@progbits,_ZN7sigslot15single_threadedD5Ev,comdat
	.align 2
	.weak	_ZN7sigslot15single_threadedD0Ev
	.type	_ZN7sigslot15single_threadedD0Ev, @function
_ZN7sigslot15single_threadedD0Ev:
.LFB1150:
	.loc 1 104 0
	.cfi_startproc
.LVL147:
	mflr 0
	stwu 1,-8(1)
.LCFI29:
	.cfi_def_cfa_offset 8
	.cfi_register 65, 0
.LBB1499:
.LBB1500:
.LBB1501:
	.loc 1 105 0
	lis 9,_ZTVN7sigslot15single_threadedE+8@ha
.LBE1501:
.LBE1500:
.LBE1499:
	.loc 1 104 0
	stw 0,12(1)
.LBB1504:
.LBB1503:
.LBB1502:
	.loc 1 105 0
	la 0,_ZTVN7sigslot15single_threadedE+8@l(9)
	.cfi_offset 65, 4
	stw 0,0(3)
.LBE1502:
.LBE1503:
.LBE1504:
	.loc 1 107 0
	bl _ZdlPv
.LVL148:
	lwz 0,12(1)
	addi 1,1,8
.LCFI30:
	.cfi_def_cfa_offset 0
	mtlr 0
	blr
	.cfi_endproc
.LFE1150:
	.size	_ZN7sigslot15single_threadedD0Ev, .-_ZN7sigslot15single_threadedD0Ev
	.section	.text._ZN7sigslot13_signal_base3IP10GuiElementiiNS_15single_threadedEE15slot_disconnectEPNS_9has_slotsIS3_EE,"axG",@progbits,_ZN7sigslot13_signal_base3IP10GuiElementiiNS_15single_threadedEE15slot_disconnectEPNS_9has_slotsIS3_EE,comdat
	.align 2
	.weak	_ZN7sigslot13_signal_base3IP10GuiElementiiNS_15single_threadedEE15slot_disconnectEPNS_9has_slotsIS3_EE
	.type	_ZN7sigslot13_signal_base3IP10GuiElementiiNS_15single_threadedEE15slot_disconnectEPNS_9has_slotsIS3_EE, @function
_ZN7sigslot13_signal_base3IP10GuiElementiiNS_15single_threadedEE15slot_disconnectEPNS_9has_slotsIS3_EE:
.LFB1810:
	.loc 1 990 0
	.cfi_startproc
	.cfi_personality 0,__gxx_personality_v0
	.cfi_lsda 0,.LLSDA1810
.LVL149:
	mflr 0
	stwu 1,-32(1)
.LCFI31:
	.cfi_def_cfa_offset 32
	.cfi_register 65, 0
	stw 27,12(1)
	mr 27,3
	.cfi_offset 27, -20
.LVL150:
	stw 0,36(1)
	stw 28,16(1)
	mr 28,4
	.cfi_offset 28, -16
	.cfi_offset 65, 4
.LBB1505:
.LBB1506:
.LBB1507:
	.loc 1 338 0
	lwz 9,0(3)
.LBE1507:
.LBE1506:
.LBE1505:
	.loc 1 990 0
	stw 29,20(1)
.LBB1528:
.LBB1510:
.LBB1508:
	.loc 3 389 0
	mr 29,27
	.cfi_offset 29, -12
	.loc 1 338 0
	lwz 0,8(9)
.LBE1508:
.LBE1510:
.LBE1528:
	.loc 1 990 0
	stw 31,28(1)
	stw 30,24(1)
.LBB1529:
.LBB1511:
.LBB1509:
	.loc 1 338 0
	mtctr 0
.LEHB12:
	.cfi_offset 30, -8
	.cfi_offset 31, -4
	bctrl
.LEHE12:
.LVL151:
	.loc 3 389 0
	lwzu 31,4(29)
.LVL152:
.LBE1509:
.LBE1511:
	.loc 1 996 0
	cmpw 7,31,29
	bne+ 7,.L122
	b .L111
.LVL153:
.L112:
	.loc 1 996 0 is_stmt 0 discriminator 1
	cmpw 7,29,30
	beq- 7,.L111
.L120:
	.loc 1 996 0
	mr 31,30
.LVL154:
.L122:
.LBB1512:
	.loc 1 1001 0 is_stmt 1
	lwz 3,8(31)
.LBB1513:
.LBB1514:
	.loc 4 154 0
	lwz 30,0(31)
.LVL155:
.LBE1514:
.LBE1513:
	.loc 1 1001 0
	lwz 9,0(3)
	lwz 0,8(9)
	mtctr 0
.LEHB13:
	bctrl
.LVL156:
	cmpw 7,28,3
	bne+ 7,.L112
.LVL157:
	.loc 1 1003 0
	lwz 3,8(31)
	cmpwi 7,3,0
	beq- 7,.L113
	.loc 1 1003 0 is_stmt 0 discriminator 1
	lwz 9,0(3)
	lwz 0,4(9)
	mtctr 0
	bctrl
.LEHE13:
.L113:
.LVL158:
.LBB1515:
.LBB1516:
.LBB1517:
.LBB1518:
	.loc 4 1532 0 is_stmt 1
	mr 3,31
	bl _ZNSt8__detail15_List_node_base9_M_unhookEv
.LVL159:
.LBB1519:
.LBB1520:
.LBB1521:
	.loc 6 98 0
	mr 3,31
	bl _ZdlPv
.LVL160:
.LBE1521:
.LBE1520:
.LBE1519:
.LBE1518:
.LBE1517:
.LBE1516:
.LBE1515:
.LBE1512:
	.loc 1 996 0
	cmpw 7,29,30
	bne+ 7,.L120
.LVL161:
.L111:
.LBB1522:
.LBB1523:
.LBB1524:
	.loc 1 343 0
	lwz 9,0(27)
	mr 3,27
	lwz 0,12(9)
	mtctr 0
.LEHB14:
	bctrl
.LEHE14:
.LBE1524:
.LBE1523:
.LBE1522:
.LBE1529:
	.loc 1 1010 0
	lwz 0,36(1)
	lwz 27,12(1)
.LVL162:
	mtlr 0
	lwz 28,16(1)
.LVL163:
	lwz 29,20(1)
.LVL164:
	lwz 30,24(1)
	lwz 31,28(1)
	addi 1,1,32
	.cfi_remember_state
.LCFI32:
	.cfi_def_cfa_offset 0
	.cfi_restore 31
	.cfi_restore 30
	.cfi_restore 29
	.cfi_restore 28
	.cfi_restore 27
	blr
.LVL165:
.L121:
.LCFI33:
	.cfi_restore_state
.LBB1530:
.LBB1525:
.LBB1526:
.LBB1527:
	.loc 1 343 0
	lwz 9,0(27)
	mr 31,3
.LVL166:
	mr 3,27
	lwz 0,12(9)
	mtctr 0
	bctrl
	mr 3,31
.LEHB15:
	bl _Unwind_Resume
.LEHE15:
.LBE1527:
.LBE1526:
.LBE1525:
.LBE1530:
	.cfi_endproc
.LFE1810:
	.section	.gcc_except_table
.LLSDA1810:
	.byte	0xff
	.byte	0xff
	.byte	0x1
	.uleb128 .LLSDACSE1810-.LLSDACSB1810
.LLSDACSB1810:
	.uleb128 .LEHB12-.LFB1810
	.uleb128 .LEHE12-.LEHB12
	.uleb128 0
	.uleb128 0
	.uleb128 .LEHB13-.LFB1810
	.uleb128 .LEHE13-.LEHB13
	.uleb128 .L121-.LFB1810
	.uleb128 0
	.uleb128 .LEHB14-.LFB1810
	.uleb128 .LEHE14-.LEHB14
	.uleb128 0
	.uleb128 0
	.uleb128 .LEHB15-.LFB1810
	.uleb128 .LEHE15-.LEHB15
	.uleb128 0
	.uleb128 0
.LLSDACSE1810:
	.section	.text._ZN7sigslot13_signal_base3IP10GuiElementiiNS_15single_threadedEE15slot_disconnectEPNS_9has_slotsIS3_EE,"axG",@progbits,_ZN7sigslot13_signal_base3IP10GuiElementiiNS_15single_threadedEE15slot_disconnectEPNS_9has_slotsIS3_EE,comdat
	.size	_ZN7sigslot13_signal_base3IP10GuiElementiiNS_15single_threadedEE15slot_disconnectEPNS_9has_slotsIS3_EE, .-_ZN7sigslot13_signal_base3IP10GuiElementiiNS_15single_threadedEE15slot_disconnectEPNS_9has_slotsIS3_EE
	.section	.text._ZN7sigslot13_signal_base2IP10GuiElementbNS_15single_threadedEE15slot_disconnectEPNS_9has_slotsIS3_EE,"axG",@progbits,_ZN7sigslot13_signal_base2IP10GuiElementbNS_15single_threadedEE15slot_disconnectEPNS_9has_slotsIS3_EE,comdat
	.align 2
	.weak	_ZN7sigslot13_signal_base2IP10GuiElementbNS_15single_threadedEE15slot_disconnectEPNS_9has_slotsIS3_EE
	.type	_ZN7sigslot13_signal_base2IP10GuiElementbNS_15single_threadedEE15slot_disconnectEPNS_9has_slotsIS3_EE, @function
_ZN7sigslot13_signal_base2IP10GuiElementbNS_15single_threadedEE15slot_disconnectEPNS_9has_slotsIS3_EE:
.LFB1812:
	.loc 1 870 0
	.cfi_startproc
	.cfi_personality 0,__gxx_personality_v0
	.cfi_lsda 0,.LLSDA1812
.LVL167:
	mflr 0
	stwu 1,-32(1)
.LCFI34:
	.cfi_def_cfa_offset 32
	.cfi_register 65, 0
	stw 27,12(1)
	mr 27,3
	.cfi_offset 27, -20
.LVL168:
	stw 0,36(1)
	stw 28,16(1)
	mr 28,4
	.cfi_offset 28, -16
	.cfi_offset 65, 4
.LBB1531:
.LBB1532:
.LBB1533:
	.loc 1 338 0
	lwz 9,0(3)
.LBE1533:
.LBE1532:
.LBE1531:
	.loc 1 870 0
	stw 29,20(1)
.LBB1554:
.LBB1536:
.LBB1534:
	.loc 3 389 0
	mr 29,27
	.cfi_offset 29, -12
	.loc 1 338 0
	lwz 0,8(9)
.LBE1534:
.LBE1536:
.LBE1554:
	.loc 1 870 0
	stw 31,28(1)
	stw 30,24(1)
.LBB1555:
.LBB1537:
.LBB1535:
	.loc 1 338 0
	mtctr 0
.LEHB16:
	.cfi_offset 30, -8
	.cfi_offset 31, -4
	bctrl
.LEHE16:
.LVL169:
	.loc 3 389 0
	lwzu 31,4(29)
.LVL170:
.LBE1535:
.LBE1537:
	.loc 1 876 0
	cmpw 7,31,29
	bne+ 7,.L135
	b .L124
.LVL171:
.L125:
	.loc 1 876 0 is_stmt 0 discriminator 1
	cmpw 7,29,30
	beq- 7,.L124
.L133:
	.loc 1 876 0
	mr 31,30
.LVL172:
.L135:
.LBB1538:
	.loc 1 881 0 is_stmt 1
	lwz 3,8(31)
.LBB1539:
.LBB1540:
	.loc 4 154 0
	lwz 30,0(31)
.LVL173:
.LBE1540:
.LBE1539:
	.loc 1 881 0
	lwz 9,0(3)
	lwz 0,8(9)
	mtctr 0
.LEHB17:
	bctrl
.LVL174:
	cmpw 7,28,3
	bne+ 7,.L125
.LVL175:
	.loc 1 883 0
	lwz 3,8(31)
	cmpwi 7,3,0
	beq- 7,.L126
	.loc 1 883 0 is_stmt 0 discriminator 1
	lwz 9,0(3)
	lwz 0,4(9)
	mtctr 0
	bctrl
.LEHE17:
.L126:
.LVL176:
.LBB1541:
.LBB1542:
.LBB1543:
.LBB1544:
	.loc 4 1532 0 is_stmt 1
	mr 3,31
	bl _ZNSt8__detail15_List_node_base9_M_unhookEv
.LVL177:
.LBB1545:
.LBB1546:
.LBB1547:
	.loc 6 98 0
	mr 3,31
	bl _ZdlPv
.LVL178:
.LBE1547:
.LBE1546:
.LBE1545:
.LBE1544:
.LBE1543:
.LBE1542:
.LBE1541:
.LBE1538:
	.loc 1 876 0
	cmpw 7,29,30
	bne+ 7,.L133
.LVL179:
.L124:
.LBB1548:
.LBB1549:
.LBB1550:
	.loc 1 343 0
	lwz 9,0(27)
	mr 3,27
	lwz 0,12(9)
	mtctr 0
.LEHB18:
	bctrl
.LEHE18:
.LBE1550:
.LBE1549:
.LBE1548:
.LBE1555:
	.loc 1 890 0
	lwz 0,36(1)
	lwz 27,12(1)
.LVL180:
	mtlr 0
	lwz 28,16(1)
.LVL181:
	lwz 29,20(1)
.LVL182:
	lwz 30,24(1)
	lwz 31,28(1)
	addi 1,1,32
	.cfi_remember_state
.LCFI35:
	.cfi_def_cfa_offset 0
	.cfi_restore 31
	.cfi_restore 30
	.cfi_restore 29
	.cfi_restore 28
	.cfi_restore 27
	blr
.LVL183:
.L134:
.LCFI36:
	.cfi_restore_state
.LBB1556:
.LBB1551:
.LBB1552:
.LBB1553:
	.loc 1 343 0
	lwz 9,0(27)
	mr 31,3
.LVL184:
	mr 3,27
	lwz 0,12(9)
	mtctr 0
	bctrl
	mr 3,31
.LEHB19:
	bl _Unwind_Resume
.LEHE19:
.LBE1553:
.LBE1552:
.LBE1551:
.LBE1556:
	.cfi_endproc
.LFE1812:
	.section	.gcc_except_table
.LLSDA1812:
	.byte	0xff
	.byte	0xff
	.byte	0x1
	.uleb128 .LLSDACSE1812-.LLSDACSB1812
.LLSDACSB1812:
	.uleb128 .LEHB16-.LFB1812
	.uleb128 .LEHE16-.LEHB16
	.uleb128 0
	.uleb128 0
	.uleb128 .LEHB17-.LFB1812
	.uleb128 .LEHE17-.LEHB17
	.uleb128 .L134-.LFB1812
	.uleb128 0
	.uleb128 .LEHB18-.LFB1812
	.uleb128 .LEHE18-.LEHB18
	.uleb128 0
	.uleb128 0
	.uleb128 .LEHB19-.LFB1812
	.uleb128 .LEHE19-.LEHB19
	.uleb128 0
	.uleb128 0
.LLSDACSE1812:
	.section	.text._ZN7sigslot13_signal_base2IP10GuiElementbNS_15single_threadedEE15slot_disconnectEPNS_9has_slotsIS3_EE,"axG",@progbits,_ZN7sigslot13_signal_base2IP10GuiElementbNS_15single_threadedEE15slot_disconnectEPNS_9has_slotsIS3_EE,comdat
	.size	_ZN7sigslot13_signal_base2IP10GuiElementbNS_15single_threadedEE15slot_disconnectEPNS_9has_slotsIS3_EE, .-_ZN7sigslot13_signal_base2IP10GuiElementbNS_15single_threadedEE15slot_disconnectEPNS_9has_slotsIS3_EE
	.section	.text._ZN10GuiElement10ResetStateEv,"axG",@progbits,_ZN10GuiElement10ResetStateEv,comdat
	.align 2
	.weak	_ZN10GuiElement10ResetStateEv
	.type	_ZN10GuiElement10ResetStateEv, @function
_ZN10GuiElement10ResetStateEv:
.LFB1402:
	.loc 2 183 0
	.cfi_startproc
.LVL185:
	mflr 0
	stwu 1,-8(1)
.LCFI37:
	.cfi_def_cfa_offset 8
	.cfi_register 65, 0
	stw 0,12(1)
	.loc 2 185 0
	lwz 0,72(3)
	.cfi_offset 65, 4
	cmpwi 7,0,4
	beq- 7,.L136
.LVL186:
.LBB1559:
.LBB1560:
	.loc 2 186 0
	lwz 9,0(3)
	li 4,0
	li 5,-1
	lwz 0,80(9)
	mtctr 0
	bctrl
.LVL187:
.L136:
.LBE1560:
.LBE1559:
	.loc 2 187 0
	lwz 0,12(1)
	addi 1,1,8
.LCFI38:
	.cfi_def_cfa_offset 0
	mtlr 0
	blr
	.cfi_endproc
.LFE1402:
	.size	_ZN10GuiElement10ResetStateEv, .-_ZN10GuiElement10ResetStateEv
	.section	".text"
	.align 2
	.globl _ZN8GuiImage4DrawEv
	.type	_ZN8GuiImage4DrawEv, @function
_ZN8GuiImage4DrawEv:
.LFB1574:
	.loc 3 315 0
	.cfi_startproc
.LVL188:
	mflr 0
	stwu 1,-536(1)
.LCFI39:
	.cfi_def_cfa_offset 536
	.cfi_register 65, 0
	mfcr 12
	stw 31,516(1)
	mr 31,3
	.cfi_offset 31, -20
	.cfi_register 70, 12
	stw 0,540(1)
	stfd 30,520(1)
.LBB1575:
	.loc 3 316 0
	lwz 9,0(3)
.LBE1575:
	.loc 3 315 0
	stfd 31,528(1)
.LBB1576:
	.loc 3 316 0
	lwz 0,52(9)
	.cfi_offset 63, -8
	.cfi_offset 62, -16
	.cfi_offset 65, 4
.LBE1576:
	.loc 3 315 0
	stw 22,480(1)
	stw 23,484(1)
.LBB1577:
	.loc 3 316 0
	mtctr 0
.LBE1577:
	.loc 3 315 0
	stw 24,488(1)
	stw 25,492(1)
	stw 26,496(1)
	stw 27,500(1)
	stw 28,504(1)
	stw 29,508(1)
	stw 30,512(1)
	stw 12,476(1)
.LBB1578:
	.loc 3 316 0
	.cfi_offset 70, -60
	.cfi_offset 30, -24
	.cfi_offset 29, -28
	.cfi_offset 28, -32
	.cfi_offset 27, -36
	.cfi_offset 26, -40
	.cfi_offset 25, -44
	.cfi_offset 24, -48
	.cfi_offset 23, -52
	.cfi_offset 22, -56
	bctrl
.LVL189:
	cmpwi 7,3,0
	beq- 7,.L138
	.loc 3 316 0 is_stmt 0 discriminator 2
	lwz 0,160(31)
	cmpwi 7,0,0
	bne- 7,.L174
.L138:
.LBE1578:
	.loc 3 389 0 is_stmt 1
	lwz 0,540(1)
	lwz 12,476(1)
	mtlr 0
	lwz 22,480(1)
	lwz 23,484(1)
	mtcrf 8,12
	lwz 24,488(1)
	lwz 25,492(1)
	lwz 26,496(1)
	lwz 27,500(1)
	lwz 28,504(1)
	lwz 29,508(1)
	lwz 30,512(1)
	lwz 31,516(1)
.LVL190:
	lfd 30,520(1)
	lfd 31,528(1)
	addi 1,1,536
	.cfi_remember_state
.LCFI40:
	.cfi_def_cfa_offset 0
	.cfi_restore 70
	.cfi_restore 63
	.cfi_restore 62
	.cfi_restore 31
	.cfi_restore 30
	.cfi_restore 29
	.cfi_restore 28
	.cfi_restore 27
	.cfi_restore 26
	.cfi_restore 25
	.cfi_restore 24
	.cfi_restore 23
	.cfi_restore 22
	blr
.LVL191:
.L174:
.LCFI41:
	.cfi_restore_state
.LBB1579:
	.loc 3 316 0 discriminator 3
	lwz 0,156(31)
	cmpwi 7,0,0
	beq- 7,.L138
.LVL192:
.LBE1579:
.LBB1580:
.LBB1581:
	.loc 3 320 0
	lwz 9,80(31)
	lis 0,0xbad
	ori 0,0,47806
	li 28,1
	cmpw 7,9,0
	beq- 7,.L141
	lwz 9,84(31)
	cmpw 7,9,0
	beq- 7,.L141
	lwz 9,88(31)
	cmpw 7,9,0
	beq- 7,.L141
	.loc 3 314 0
	lwz 28,92(31)
	xor 28,28,0
	cntlzw 28,28
	srwi 28,28,5
.L141:
.LVL193:
	.loc 3 322 0
	lwz 9,0(31)
	mr 3,31
	lwz 0,16(9)
	mtctr 0
	bctrl
	.loc 3 323 0
	lwz 9,0(31)
	.loc 3 322 0
	mr 30,3
.LVL194:
	.loc 3 323 0
	mr 3,31
.LVL195:
	lwz 0,20(9)
	mtctr 0
	bctrl
	.loc 3 324 0
	lwz 9,0(31)
	.loc 3 323 0
	mr 24,3
.LVL196:
	.loc 3 324 0
	mr 3,31
.LVL197:
	lwz 0,24(9)
	mtctr 0
	bctrl
	.loc 3 325 0
	lwz 9,0(31)
	.loc 3 324 0
	mr 29,3
.LVL198:
	.loc 3 325 0
	mr 3,31
.LVL199:
	lwz 0,120(9)
	mtctr 0
	bctrl
	.loc 3 326 0
	lwz 9,0(31)
	mr 3,31
	.loc 3 325 0
	fmr 30,1
.LVL200:
	.loc 3 326 0
	lwz 0,124(9)
	mtctr 0
	bctrl
.LVL201:
	.loc 3 327 0
	lwz 9,0(31)
	mr 3,31
	.loc 3 326 0
	fmr 31,1
.LVL202:
	.loc 3 327 0
	lwz 0,100(9)
	mtctr 0
	bctrl
.LVL203:
.LBB1582:
	.loc 3 329 0
	lwz 0,148(31)
.LBE1582:
	.loc 3 327 0
	rlwinm 23,3,0,0xff
.LVL204:
.LBB1593:
	.loc 3 329 0
	cmpwi 6,0,0
	beq- 6,.L142
	lwz 9,156(31)
	cmpwi 7,9,0
	ble- 7,.L143
	lwz 11,160(31)
	li 25,0
	cmpwi 6,11,0
	ble- 6,.L175
	cmpwi 4,28,0
	lis 22,.LC1@ha
.LBB1583:
.LBB1584:
	.loc 3 337 0
	lis 28,0x4330
.LVL205:
.L172:
	.loc 3 332 0
	ble- 7,.L150
	lwz 4,36(31)
	li 27,0
	la 26,.LC1@l(22)
	b .L151
.LVL206:
.L177:
	.loc 3 335 0
	mullw 11,27,4
	xoris 0,29,0x8000
	stw 28,32(1)
	fmr 5,30
	stw 28,40(1)
	fmr 6,31
	stw 0,52(1)
	rlwinm 4,4,0,0xffff
	mullw 9,5,25
	add 11,30,11
	xoris 11,11,0x8000
	stw 28,48(1)
	stw 11,36(1)
	rlwinm 5,5,0,0xffff
	lfs 0,0(26)
	mr 7,23
	add 9,24,9
	lfd 1,32(1)
	xoris 9,9,0x8000
	lfd 3,48(1)
	stw 9,44(1)
	fsub 1,1,0
	fsub 3,3,0
	.loc 3 332 0
	addi 27,27,1
	.loc 3 335 0
	lfd 2,40(1)
	frsp 1,1
	lwz 3,148(31)
	fsub 2,2,0
	lbz 6,168(31)
	frsp 3,3
	lfs 4,152(31)
	frsp 2,2
	bl _Z12Menu_DrawImgPhtthffffffh
.LVL207:
	.loc 3 332 0
	lwz 9,156(31)
	cmpw 7,27,9
	bge- 7,.L176
.L148:
.LBE1584:
.LBE1583:
	.loc 3 329 0
	lwz 4,36(31)
.LVL208:
.L151:
.LBB1587:
.LBB1585:
	.loc 3 335 0
	lwz 5,40(31)
	.loc 3 334 0
	bne- 4,.L177
	.loc 3 337 0
	mullw 6,27,4
	lwz 10,80(31)
	lwz 11,88(31)
	xoris 8,29,0x8000
	lwz 9,84(31)
	xoris 10,10,0x8000
	lwz 0,92(31)
	xoris 11,11,0x8000
	mullw 7,25,5
	add 6,30,6
	xoris 9,9,0x8000
	stw 28,56(1)
	xoris 6,6,0x8000
	stw 9,100(1)
	xoris 0,0,0x8000
	stw 6,60(1)
	add 7,24,7
	stw 28,64(1)
	xoris 7,7,0x8000
	stw 8,76(1)
	stw 7,68(1)
	fmr 5,30
	stw 28,72(1)
	fmr 6,31
	stw 10,84(1)
	rlwinm 4,4,0,0xffff
	stw 28,80(1)
	rlwinm 5,5,0,0xffff
	stw 11,92(1)
	mr 7,23
	stw 28,88(1)
	.loc 3 332 0
	addi 27,27,1
	.loc 3 337 0
	stw 28,96(1)
	stw 0,108(1)
	stw 28,104(1)
	lfs 0,0(26)
	lfd 1,56(1)
	lfd 2,64(1)
	lfd 3,72(1)
	fsub 1,1,0
	lfd 7,80(1)
	fsub 2,2,0
	lfd 8,88(1)
	fsub 3,3,0
	lfd 13,96(1)
	fsub 7,7,0
	lfd 12,104(1)
	fsub 8,8,0
	fsub 13,13,0
	lfs 4,152(31)
	fsub 0,12,0
	lwz 3,148(31)
	frsp 1,1
	lbz 6,168(31)
	frsp 13,13
	frsp 0,0
	frsp 2,2
	frsp 3,3
	stfs 13,8(1)
	frsp 7,7
	stfs 0,12(1)
	frsp 8,8
	bl _Z15Menu_DrawImgCutPhtthffffffhffff
.LVL209:
	.loc 3 332 0
	lwz 9,156(31)
	cmpw 7,27,9
	blt+ 7,.L148
.L176:
	lwz 11,160(31)
.LVL210:
.L150:
.LBE1585:
	.loc 3 331 0
	addi 25,25,1
.LVL211:
	cmpw 7,25,11
	bge- 7,.L149
	cmpwi 7,9,0
	b .L172
.LVL212:
.L142:
.LBE1587:
.LBB1588:
	.loc 3 360 0
	lwz 9,144(31)
	cmpwi 7,9,1
	beq- 7,.L178
	.loc 3 364 0
	cmpwi 7,9,2
	beq- 7,.L179
	.loc 3 368 0
	lwz 27,192(31)
	cmpwi 7,27,0
	beq- 7,.L160
	.loc 3 371 0
	lfs 0,152(31)
	addi 11,1,464
	lwz 9,0(31)
	mr 3,31
	fctiwz 0,0
	stfiwx 0,0,11
	lwz 0,100(9)
	lwz 28,464(1)
.LVL213:
	mtctr 0
	bctrl
	fmr 1,30
	fmr 2,31
	lwz 9,80(31)
	lwz 10,88(31)
	mr 8,3
	lwz 11,84(31)
	mr 3,27
	lwz 0,92(31)
	mr 4,30
	mr 5,24
	mr 6,29
	mr 7,28
	stw 11,8(1)
	stw 0,12(1)
	bl _ZN8GifImage4DrawEiiiiffiiiii
.LVL214:
.L149:
.LBE1588:
.LBE1593:
.LBB1594:
	.loc 3 381 0
	lwz 9,164(31)
	cmpwi 7,9,0
	ble- 7,.L162
.LBB1595:
.LBB1596:
	.loc 3 384 0
	lwz 11,40(31)
.LBE1596:
	.loc 3 383 0
	li 0,0
	stb 0,16(1)
.LBB1597:
	.loc 3 384 0
	cmpwi 7,11,0
.LBE1597:
	.loc 3 383 0
	stb 0,17(1)
	stb 0,18(1)
	stb 9,19(1)
.LVL215:
.LBB1598:
	.loc 3 384 0
	ble- 7,.L162
	lis 26,.LC1@ha
	lis 27,.LC4@ha
	li 28,0
	la 26,.LC1@l(26)
	la 27,.LC4@l(27)
.LVL216:
.L163:
	.loc 3 385 0
	lwz 9,36(31)
	.loc 3 314 0
	add 10,28,30
	.loc 3 385 0
	lis 0,0x4330
	xoris 10,10,0x8000
	xoris 9,9,0x8000
	xoris 8,30,0x8000
	xoris 11,29,0x8000
	stw 0,432(1)
	stw 0,440(1)
	addi 3,1,16
	stw 0,448(1)
	li 4,0
	stw 0,456(1)
	li 5,1
	stw 8,436(1)
	.loc 3 384 0
	addi 28,28,6
	.loc 3 385 0
	stw 10,444(1)
	stw 11,452(1)
	stw 9,460(1)
	lfs 0,0(26)
	lfd 1,432(1)
	lfd 2,440(1)
	lfd 3,448(1)
	fsub 1,1,0
	lfd 4,456(1)
	fsub 2,2,0
	fsub 3,3,0
	lfs 5,0(27)
	fsub 4,4,0
	frsp 1,1
	frsp 2,2
	frsp 3,3
	frsp 4,4
	bl _Z18Menu_DrawRectanglefffffP9_gx_colorbb
.LVL217:
	.loc 3 384 0
	lwz 0,40(31)
	cmpw 7,28,0
	blt+ 7,.L163
.LVL218:
.L162:
.LBE1598:
.LBE1595:
.LBE1594:
	.loc 3 388 0
	lwz 9,0(31)
	mr 3,31
	lwz 0,196(9)
	mtctr 0
	bctrl
	b .L138
.LVL219:
.L175:
	cmpwi 4,28,0
	lis 26,.LC1@ha
.LBB1599:
.LBB1590:
.LBB1586:
	.loc 3 332 0
	lwz 4,36(31)
.LBE1586:
.LBE1590:
	.loc 3 329 0
	li 28,0
.LVL220:
	la 26,.LC1@l(26)
.LBB1591:
	.loc 3 344 0
	beq- 4,.L152
.L180:
	.loc 3 345 0
	mullw 8,28,4
	lis 9,0x4330
	xoris 10,24,0x8000
	stw 9,112(1)
	xoris 11,29,0x8000
	stw 10,124(1)
	stw 9,120(1)
	fmr 5,30
	add 8,30,8
	stw 11,132(1)
	xoris 8,8,0x8000
	stw 9,128(1)
	stw 8,116(1)
	fmr 6,31
	lfs 0,0(26)
	mr 3,0
	lfd 1,112(1)
	rlwinm 4,4,0,0xffff
	lfd 2,120(1)
	mr 7,23
	lfd 3,128(1)
	fsub 1,1,0
	fsub 2,2,0
	lhz 5,42(31)
	fsub 3,3,0
	lbz 6,168(31)
	frsp 1,1
	lfs 4,152(31)
	frsp 2,2
	frsp 3,3
	bl _Z12Menu_DrawImgPhtthffffffh
.L153:
	.loc 3 342 0
	lwz 0,156(31)
	addi 28,28,1
.LVL221:
	cmpw 7,28,0
	bge- 7,.L149
	lwz 0,148(31)
	lwz 4,36(31)
	.loc 3 344 0
	bne- 4,.L180
.LVL222:
.L152:
	.loc 3 347 0
	mullw 3,28,4
	lwz 7,80(31)
	lwz 8,88(31)
	lis 9,0x4330
	lwz 10,84(31)
	xoris 5,24,0x8000
	lwz 11,92(31)
	xoris 6,29,0x8000
	add 3,30,3
	xoris 7,7,0x8000
	xoris 3,3,0x8000
	xoris 8,8,0x8000
	xoris 10,10,0x8000
	xoris 11,11,0x8000
	stw 3,140(1)
	fmr 5,30
	stw 7,164(1)
	fmr 6,31
	stw 9,136(1)
	mr 3,0
	stw 5,148(1)
	rlwinm 4,4,0,0xffff
	stw 9,144(1)
	mr 7,23
	stw 6,156(1)
	stw 9,152(1)
	stw 9,160(1)
	stw 8,172(1)
	stw 9,168(1)
	stw 10,180(1)
	stw 9,176(1)
	stw 11,188(1)
	stw 9,184(1)
	lfs 0,0(26)
	lfd 1,136(1)
	lfd 2,144(1)
	lfd 3,152(1)
	fsub 1,1,0
	lfd 7,160(1)
	fsub 2,2,0
	lfd 8,168(1)
	fsub 3,3,0
	lfd 13,176(1)
	fsub 7,7,0
	lfd 12,184(1)
	fsub 8,8,0
	fsub 13,13,0
	lfs 4,152(31)
	fsub 0,12,0
	lhz 5,42(31)
	frsp 1,1
	lbz 6,168(31)
	frsp 13,13
	frsp 0,0
	frsp 2,2
	frsp 3,3
	stfs 13,8(1)
	frsp 7,7
	stfs 0,12(1)
	frsp 8,8
	bl _Z15Menu_DrawImgCutPhtthffffffhffff
	b .L153
.LVL223:
.L143:
.LBE1591:
.LBB1592:
	.loc 3 350 0
	lwz 9,160(31)
	cmpwi 7,9,0
	ble- 7,.L142
	cmpwi 4,28,0
	lis 26,.LC1@ha
	lwz 5,40(31)
	li 28,0
.LVL224:
	la 26,.LC1@l(26)
.LBB1589:
	.loc 3 354 0
	beq- 4,.L155
.L181:
	.loc 3 355 0
	mullw 10,28,5
	lis 9,0x4330
	xoris 8,30,0x8000
	stw 9,192(1)
	xoris 11,29,0x8000
	stw 8,196(1)
	stw 9,200(1)
	fmr 5,30
	add 10,24,10
	stw 11,212(1)
	xoris 10,10,0x8000
	stw 9,208(1)
	stw 10,204(1)
	fmr 6,31
	lfs 0,0(26)
	mr 3,0
	lfd 1,192(1)
	rlwinm 5,5,0,0xffff
	lfd 2,200(1)
	mr 7,23
	lfd 3,208(1)
	fsub 1,1,0
	fsub 2,2,0
	lhz 4,38(31)
	fsub 3,3,0
	lbz 6,168(31)
	frsp 1,1
	lfs 4,152(31)
	frsp 2,2
	frsp 3,3
	bl _Z12Menu_DrawImgPhtthffffffh
.L156:
	.loc 3 352 0
	lwz 0,160(31)
	addi 28,28,1
.LVL225:
	cmpw 7,28,0
	bge- 7,.L149
	lwz 0,148(31)
	lwz 5,40(31)
	.loc 3 354 0
	bne- 4,.L181
.LVL226:
.L155:
	.loc 3 357 0
	mullw 4,28,5
	lwz 7,80(31)
	lwz 8,88(31)
	lis 9,0x4330
	lwz 10,84(31)
	xoris 3,30,0x8000
	lwz 11,92(31)
	xoris 6,29,0x8000
	add 4,24,4
	xoris 7,7,0x8000
	xoris 4,4,0x8000
	xoris 8,8,0x8000
	xoris 10,10,0x8000
	xoris 11,11,0x8000
	stw 3,220(1)
	fmr 5,30
	stw 7,244(1)
	fmr 6,31
	stw 9,216(1)
	mr 3,0
	stw 4,228(1)
	rlwinm 5,5,0,0xffff
	stw 9,224(1)
	mr 7,23
	stw 6,236(1)
	stw 9,232(1)
	stw 9,240(1)
	stw 8,252(1)
	stw 9,248(1)
	stw 10,260(1)
	stw 9,256(1)
	stw 11,268(1)
	stw 9,264(1)
	lfs 0,0(26)
	lfd 1,216(1)
	lfd 2,224(1)
	lfd 3,232(1)
	fsub 1,1,0
	lfd 7,240(1)
	fsub 2,2,0
	lfd 8,248(1)
	fsub 3,3,0
	lfd 13,256(1)
	fsub 7,7,0
	lfd 12,264(1)
	fsub 8,8,0
	fsub 13,13,0
	lfs 4,152(31)
	fsub 0,12,0
	lhz 4,38(31)
	frsp 1,1
	lbz 6,168(31)
	frsp 13,13
	frsp 0,0
	frsp 2,2
	frsp 3,3
	stfs 13,8(1)
	frsp 7,7
	stfs 0,12(1)
	frsp 8,8
	bl _Z15Menu_DrawImgCutPhtthffffffhffff
	b .L156
.LVL227:
.L160:
.LBE1589:
	.loc 3 373 0
	beq- 6,.L149
	.loc 3 375 0
	cmpwi 7,28,0
	beq- 7,.L161
	.loc 3 376 0
	lis 9,0x4330
	xoris 10,30,0x8000
	xoris 24,24,0x8000
.LVL228:
	xoris 11,29,0x8000
	stw 10,356(1)
	lis 26,.LC1@ha
	stw 9,352(1)
	fmr 5,30
	stw 24,364(1)
	fmr 6,31
	stw 9,360(1)
	mr 3,0
	stw 11,372(1)
	mr 7,23
	stw 9,368(1)
	lfs 0,.LC1@l(26)
	lfd 1,352(1)
	lfd 2,360(1)
	lfd 3,368(1)
	fsub 1,1,0
	fsub 2,2,0
	lhz 4,38(31)
	fsub 3,3,0
	lhz 5,42(31)
	frsp 1,1
	lbz 6,168(31)
	frsp 2,2
	lfs 4,152(31)
	frsp 3,3
	bl _Z12Menu_DrawImgPhtthffffffh
	b .L149
.LVL229:
.L179:
	.loc 3 366 0
	lwz 11,36(31)
	lis 0,0x4330
	lwz 9,40(31)
	xoris 8,30,0x8000
	xoris 24,24,0x8000
.LVL230:
	xoris 10,29,0x8000
	xoris 11,11,0x8000
	xoris 9,9,0x8000
	stw 8,316(1)
	lis 26,.LC1@ha
	stw 0,312(1)
	addi 3,31,169
	stw 24,324(1)
	li 4,1
	stw 0,320(1)
	li 5,1
	stw 10,332(1)
	stw 0,328(1)
	stw 11,340(1)
	stw 0,336(1)
	stw 9,348(1)
	stw 0,344(1)
	lfs 0,.LC1@l(26)
	lfd 1,312(1)
	lfd 2,320(1)
	lfd 3,328(1)
	fsub 1,1,0
	lfd 4,336(1)
	fsub 2,2,0
	lfd 5,344(1)
	fsub 3,3,0
	fsub 4,4,0
	fsub 5,5,0
	frsp 1,1
	frsp 2,2
	frsp 3,3
	frsp 4,4
	frsp 5,5
	bl _Z18Menu_DrawRectanglefffffP9_gx_colorbb
	b .L149
.LVL231:
.L178:
	.loc 3 362 0
	lwz 11,36(31)
	lis 0,0x4330
	lwz 9,40(31)
	xoris 8,30,0x8000
	xoris 24,24,0x8000
.LVL232:
	xoris 10,29,0x8000
	xoris 11,11,0x8000
	xoris 9,9,0x8000
	stw 8,276(1)
	lis 26,.LC1@ha
	stw 0,272(1)
	addi 3,31,169
	stw 24,284(1)
	li 4,0
	stw 0,280(1)
	li 5,1
	stw 10,292(1)
	stw 0,288(1)
	stw 11,300(1)
	stw 0,296(1)
	stw 9,308(1)
	stw 0,304(1)
	lfs 0,.LC1@l(26)
	lfd 1,272(1)
	lfd 2,280(1)
	lfd 3,288(1)
	fsub 1,1,0
	lfd 4,296(1)
	fsub 2,2,0
	lfd 5,304(1)
	fsub 3,3,0
	fsub 4,4,0
	fsub 5,5,0
	frsp 1,1
	frsp 2,2
	frsp 3,3
	frsp 4,4
	frsp 5,5
	bl _Z18Menu_DrawRectanglefffffP9_gx_colorbb
	b .L149
.LVL233:
.L161:
	.loc 3 378 0
	lwz 7,80(31)
	lis 9,0x4330
	lwz 8,88(31)
	xoris 5,30,0x8000
	lwz 10,84(31)
	xoris 6,29,0x8000
	lwz 11,92(31)
	xoris 24,24,0x8000
.LVL234:
	xoris 7,7,0x8000
	xoris 8,8,0x8000
	xoris 10,10,0x8000
	xoris 11,11,0x8000
	stw 7,404(1)
	lis 26,.LC1@ha
	stw 5,380(1)
	fmr 5,30
	stw 9,376(1)
	fmr 6,31
	stw 24,388(1)
	mr 3,0
	stw 9,384(1)
	mr 7,23
	stw 6,396(1)
	stw 9,392(1)
	stw 9,400(1)
	stw 8,412(1)
	stw 9,408(1)
	stw 10,420(1)
	stw 9,416(1)
	stw 11,428(1)
	stw 9,424(1)
	lfs 0,.LC1@l(26)
	lfd 1,376(1)
	lfd 2,384(1)
	lfd 3,392(1)
	fsub 1,1,0
	lfd 7,400(1)
	fsub 2,2,0
	lfd 8,408(1)
	fsub 3,3,0
	lfd 13,416(1)
	fsub 7,7,0
	lfd 12,424(1)
	fsub 8,8,0
	fsub 13,13,0
	lfs 4,152(31)
	fsub 0,12,0
	lhz 4,38(31)
	frsp 1,1
	lhz 5,42(31)
	frsp 13,13
	lbz 6,168(31)
	frsp 0,0
	frsp 2,2
	frsp 3,3
	stfs 13,8(1)
	frsp 7,7
	stfs 0,12(1)
	frsp 8,8
	bl _Z15Menu_DrawImgCutPhtthffffffhffff
	b .L149
.LBE1592:
.LBE1599:
.LBE1581:
.LBE1580:
	.cfi_endproc
.LFE1574:
	.size	_ZN8GuiImage4DrawEv, .-_ZN8GuiImage4DrawEv
	.align 2
	.globl _ZN8GuiImageC2Ev
	.type	_ZN8GuiImageC2Ev, @function
_ZN8GuiImageC2Ev:
.LFB1542:
	.loc 3 24 0
	.cfi_startproc
.LVL235:
	mflr 0
	stwu 1,-16(1)
.LCFI42:
	.cfi_def_cfa_offset 16
	.cfi_register 65, 0
	stw 31,12(1)
	mr 31,3
	.cfi_offset 31, -4
	stw 0,20(1)
.LBB1600:
	.loc 3 24 0
	.cfi_offset 65, 4
	bl _ZN10GuiElementC2Ev
.LVL236:
	lis 11,_ZTV8GuiImage+8@ha
	.loc 3 26 0
	li 0,0
	.loc 3 24 0
	la 11,_ZTV8GuiImage+8@l(11)
	.loc 3 30 0
	li 9,-1
	.loc 3 24 0
	stw 11,0(31)
	.loc 3 29 0
	li 11,0
	stw 11,152(31)
	.loc 3 33 0
	li 11,6
	.loc 3 34 0
	stb 0,169(31)
	stb 0,170(31)
	stb 0,171(31)
	.loc 3 33 0
	stb 11,168(31)
	.loc 3 34 0
	stb 9,172(31)
	.loc 3 26 0
	stw 0,148(31)
	.loc 3 27 0
	stw 0,36(31)
	.loc 3 28 0
	stw 0,40(31)
	.loc 3 32 0
	stw 0,164(31)
	.loc 3 35 0
	stw 0,192(31)
	.loc 3 36 0
	li 0,3
	stw 0,144(31)
.LBE1600:
	.loc 3 37 0
	lwz 0,20(1)
.LBB1601:
	.loc 3 30 0
	stw 9,156(31)
.LBE1601:
	.loc 3 37 0
	mtlr 0
.LBB1602:
	.loc 3 31 0
	stw 9,160(31)
.LBE1602:
	.loc 3 37 0
	lwz 31,12(1)
.LVL237:
	addi 1,1,16
.LCFI43:
	.cfi_def_cfa_offset 0
	.cfi_restore 31
	blr
	.cfi_endproc
.LFE1542:
	.size	_ZN8GuiImageC2Ev, .-_ZN8GuiImageC2Ev
	.align 2
	.globl _ZN8GuiImageC2EPhii
	.type	_ZN8GuiImageC2EPhii, @function
_ZN8GuiImageC2EPhii:
.LFB1548:
	.loc 3 68 0
	.cfi_startproc
.LVL238:
	mflr 0
	stwu 1,-24(1)
.LCFI44:
	.cfi_def_cfa_offset 24
	.cfi_register 65, 0
	stw 28,8(1)
	mr 28,6
	.cfi_offset 28, -16
	stw 0,28(1)
	stw 29,12(1)
	mr 29,5
	.cfi_offset 29, -12
	.cfi_offset 65, 4
	stw 30,16(1)
	mr 30,4
	.cfi_offset 30, -8
	stw 31,20(1)
	.loc 3 68 0
	mr 31,3
	.cfi_offset 31, -4
.LBB1603:
	bl _ZN10GuiElementC2Ev
.LVL239:
	lis 11,_ZTV8GuiImage+8@ha
	la 11,_ZTV8GuiImage+8@l(11)
	.loc 3 76 0
	li 0,0
	.loc 3 68 0
	stw 11,0(31)
	.loc 3 73 0
	li 11,0
	.loc 3 74 0
	li 9,-1
	.loc 3 73 0
	stw 11,152(31)
	.loc 3 77 0
	li 11,6
	.loc 3 78 0
	stb 0,169(31)
	.loc 3 77 0
	stb 11,168(31)
	.loc 3 78 0
	stb 0,170(31)
	stb 0,171(31)
	stb 9,172(31)
	.loc 3 76 0
	stw 0,164(31)
	.loc 3 79 0
	stw 0,192(31)
	.loc 3 80 0
	stw 0,144(31)
.LBE1603:
	.loc 3 81 0
	lwz 0,28(1)
.LBB1604:
	.loc 3 70 0
	stw 30,148(31)
.LBE1604:
	.loc 3 81 0
	mtlr 0
.LBB1605:
	.loc 3 71 0
	stw 29,36(31)
	.loc 3 72 0
	stw 28,40(31)
	.loc 3 74 0
	stw 9,156(31)
	.loc 3 75 0
	stw 9,160(31)
.LBE1605:
	.loc 3 81 0
	lwz 28,8(1)
.LVL240:
	lwz 29,12(1)
.LVL241:
	lwz 30,16(1)
.LVL242:
	lwz 31,20(1)
.LVL243:
	addi 1,1,24
.LCFI45:
	.cfi_def_cfa_offset 0
	.cfi_restore 31
	.cfi_restore 30
	.cfi_restore 29
	.cfi_restore 28
	blr
	.cfi_endproc
.LFE1548:
	.size	_ZN8GuiImageC2EPhii, .-_ZN8GuiImageC2EPhii
	.align 2
	.globl _ZN8GuiImageC2Eii9_gx_color
	.type	_ZN8GuiImageC2Eii9_gx_color, @function
_ZN8GuiImageC2Eii9_gx_color:
.LFB1551:
	.loc 3 83 0
	.cfi_startproc
.LVL244:
	mflr 0
	stwu 1,-24(1)
.LCFI46:
	.cfi_def_cfa_offset 24
	.cfi_register 65, 0
	stw 28,8(1)
	stw 0,28(1)
	stw 29,12(1)
	mr 29,5
	.cfi_offset 29, -12
	.cfi_offset 65, 4
	.cfi_offset 28, -16
	stw 30,16(1)
	mr 30,4
	.cfi_offset 30, -8
	stw 31,20(1)
	.loc 3 83 0
	mr 31,3
	.cfi_offset 31, -4
	lwz 28,0(6)
.LBB1606:
	bl _ZN10GuiElementC2Ev
.LVL245:
	.loc 3 89 0
	li 9,-1
	.loc 3 85 0
	li 0,0
	.loc 3 89 0
	stw 9,156(31)
	.loc 3 83 0
	lis 11,_ZTV8GuiImage+8@ha
	.loc 3 90 0
	stw 9,160(31)
	.loc 3 92 0
	li 9,6
	stb 9,168(31)
	.loc 3 83 0
	la 11,_ZTV8GuiImage+8@l(11)
	.loc 3 95 0
	stw 28,169(31)
	.loc 3 93 0
	li 9,1
	.loc 3 85 0
	stw 0,148(31)
	.loc 3 91 0
	stw 0,164(31)
	.loc 3 94 0
	stw 0,192(31)
.LBE1606:
	.loc 3 96 0
	lwz 0,28(1)
.LBB1607:
	.loc 3 83 0
	stw 11,0(31)
	.loc 3 88 0
	li 11,0
.LBE1607:
	.loc 3 96 0
	mtlr 0
.LBB1608:
	.loc 3 86 0
	stw 30,36(31)
	.loc 3 87 0
	stw 29,40(31)
	.loc 3 88 0
	stw 11,152(31)
	.loc 3 93 0
	stw 9,144(31)
.LBE1608:
	.loc 3 96 0
	lwz 28,8(1)
	lwz 29,12(1)
.LVL246:
	lwz 30,16(1)
.LVL247:
	lwz 31,20(1)
.LVL248:
	addi 1,1,24
.LCFI47:
	.cfi_def_cfa_offset 0
	.cfi_restore 31
	.cfi_restore 30
	.cfi_restore 29
	.cfi_restore 28
	blr
	.cfi_endproc
.LFE1551:
	.size	_ZN8GuiImageC2Eii9_gx_color, .-_ZN8GuiImageC2Eii9_gx_color
	.align 2
	.globl _ZN8GuiImageC2EiiP9_gx_color
	.type	_ZN8GuiImageC2EiiP9_gx_color, @function
_ZN8GuiImageC2EiiP9_gx_color:
.LFB1554:
	.loc 3 98 0
	.cfi_startproc
.LVL249:
	mflr 0
	stwu 1,-24(1)
.LCFI48:
	.cfi_def_cfa_offset 24
	.cfi_register 65, 0
	stw 28,8(1)
	mr 28,5
	.cfi_offset 28, -16
	stw 0,28(1)
	stw 29,12(1)
	mr 29,4
	.cfi_offset 29, -12
	.cfi_offset 65, 4
	stw 30,16(1)
	mr 30,6
	.cfi_offset 30, -8
	stw 31,20(1)
	.loc 3 98 0
	mr 31,3
	.cfi_offset 31, -4
.LBB1609:
	bl _ZN10GuiElementC2Ev
.LVL250:
.LBB1610:
	.loc 3 104 0
	li 9,-1
.LBE1610:
	.loc 3 98 0
	lis 11,_ZTV8GuiImage+8@ha
.LBB1613:
	.loc 3 104 0
	stw 9,156(31)
	.loc 3 105 0
	stw 9,160(31)
.LBE1613:
	.loc 3 98 0
	la 11,_ZTV8GuiImage+8@l(11)
.LBB1614:
	.loc 3 107 0
	li 9,6
.LBE1614:
	.loc 3 98 0
	stw 11,0(31)
.LBB1615:
	.loc 3 107 0
	stb 9,168(31)
	.loc 3 100 0
	li 0,0
	.loc 3 108 0
	li 9,2
	.loc 3 103 0
	li 11,0
	.loc 3 100 0
	stw 0,148(31)
	.loc 3 101 0
	stw 29,36(31)
	.loc 3 102 0
	stw 28,40(31)
	.loc 3 106 0
	stw 0,164(31)
	.loc 3 109 0
	stw 0,192(31)
.LVL251:
	.loc 3 103 0
	stw 11,152(31)
	.loc 3 108 0
	stw 9,144(31)
.LBB1611:
	.loc 3 112 0
	lwz 9,0(30)
	stw 9,169(31)
.LVL252:
	lwz 9,4(30)
	stw 9,173(31)
.LVL253:
	lwz 9,8(30)
	stw 9,177(31)
.LVL254:
	lwz 9,12(30)
.LBE1611:
	.loc 3 114 0
	stw 0,185(31)
.LBB1612:
	.loc 3 112 0
	stw 9,181(31)
.LVL255:
.LBE1612:
.LBE1615:
.LBE1609:
	.loc 3 115 0
	lwz 0,28(1)
	lwz 28,8(1)
.LVL256:
	mtlr 0
	lwz 29,12(1)
.LVL257:
	lwz 30,16(1)
.LVL258:
	lwz 31,20(1)
.LVL259:
	addi 1,1,24
.LCFI49:
	.cfi_def_cfa_offset 0
	.cfi_restore 31
	.cfi_restore 30
	.cfi_restore 29
	.cfi_restore 28
	blr
	.cfi_endproc
.LFE1554:
	.size	_ZN8GuiImageC2EiiP9_gx_color, .-_ZN8GuiImageC2EiiP9_gx_color
	.align 2
	.globl _ZN8GuiImage8GetImageEv
	.type	_ZN8GuiImage8GetImageEv, @function
_ZN8GuiImage8GetImageEv:
.LFB1560:
	.loc 3 125 0
	.cfi_startproc
.LVL260:
	mflr 0
	stwu 1,-8(1)
.LCFI50:
	.cfi_def_cfa_offset 8
	.cfi_register 65, 0
	stw 0,12(1)
	.loc 3 126 0
	lwz 0,148(3)
	.cfi_offset 65, 4
	cmpwi 7,0,0
	beq- 7,.L188
.LVL261:
.L187:
	.loc 3 127 0 discriminator 6
	mr 3,0
	lwz 0,12(1)
	addi 1,1,8
	.cfi_remember_state
.LCFI51:
	.cfi_def_cfa_offset 0
	mtlr 0
	blr
.LVL262:
.L188:
.LCFI52:
	.cfi_restore_state
	.loc 3 126 0 discriminator 2
	lwz 3,192(3)
.LVL263:
	cmpwi 7,3,0
	beq- 7,.L187
	.loc 3 126 0 is_stmt 0 discriminator 3
	li 4,0
	bl _ZN8GifImage13GetFrameImageEi
	mr 0,3
	.loc 3 127 0 is_stmt 1 discriminator 3
	mr 3,0
	lwz 0,12(1)
	addi 1,1,8
.LCFI53:
	.cfi_def_cfa_offset 0
	mtlr 0
	blr
	.cfi_endproc
.LFE1560:
	.size	_ZN8GuiImage8GetImageEv, .-_ZN8GuiImage8GetImageEv
	.align 2
	.globl _ZN8GuiImage8SetImageEP12GuiImageData
	.type	_ZN8GuiImage8SetImageEP12GuiImageData, @function
_ZN8GuiImage8SetImageEP12GuiImageData:
.LFB1561:
	.loc 3 130 0
	.cfi_startproc
.LVL264:
	mflr 0
	stwu 1,-16(1)
.LCFI54:
	.cfi_def_cfa_offset 16
	.cfi_register 65, 0
	.loc 3 135 0
	cmpwi 0,4,0
	.loc 3 130 0
	stw 31,12(1)
	mr 31,3
	.cfi_offset 31, -4
	stw 0,20(1)
	.loc 3 131 0
	li 0,0
	.cfi_offset 65, 4
	stw 0,148(3)
	.loc 3 132 0
	stw 0,36(3)
	.loc 3 133 0
	stw 0,40(3)
	.loc 3 134 0
	li 0,6
	stb 0,168(3)
	.loc 3 135 0
	beq- 0,.L190
	.loc 3 389 0
	lwz 0,12(4)
	.loc 3 137 0
	stw 0,36(3)
	.loc 3 389 0
	lwz 0,8(4)
	.loc 3 138 0
	stw 0,40(3)
	.loc 3 389 0
	lbz 0,16(4)
	.loc 3 139 0
	stb 0,168(3)
	.loc 3 389 0
	lwz 9,20(4)
	.loc 3 140 0
	stw 9,192(3)
	.loc 3 389 0
	lwz 0,4(4)
.LBB1616:
.LBB1617:
	.file 7 "d:/Projects/SaveGameManager/savegame-manager-gx/trunk/source/GUI/gui_imagedata.h"
	.loc 7 42 0
	cmpwi 7,0,0
	beq- 7,.L192
.LVL265:
.L191:
.LBE1617:
.LBE1616:
	.loc 3 143 0
	cmpwi 7,9,0
	.loc 3 141 0
	stw 0,148(31)
	.loc 3 143 0
	beq- 7,.L190
	.loc 3 145 0
	li 0,0
	stw 0,148(31)
	.loc 3 389 0
	lwz 0,4(9)
	.loc 3 146 0
	stw 0,36(31)
	.loc 3 389 0
	lwz 0,8(9)
	.loc 3 147 0
	stw 0,40(31)
.L190:
	.loc 3 150 0
	li 0,3
	stw 0,144(31)
	.loc 3 151 0
	lwz 0,20(1)
	lwz 31,12(1)
.LVL266:
	mtlr 0
	addi 1,1,16
	.cfi_remember_state
.LCFI55:
	.cfi_def_cfa_offset 0
	.cfi_restore 31
	blr
.LVL267:
.L192:
.LCFI56:
	.cfi_restore_state
.LBB1621:
.LBB1620:
.LBB1618:
.LBB1619:
	.loc 7 42 0
	lwz 3,20(4)
.LVL268:
	cmpwi 7,3,0
	beq- 7,.L191
	li 4,0
.LVL269:
	bl _ZN8GifImage13GetFrameImageEi
	lwz 9,192(31)
	mr 0,3
	b .L191
.LBE1619:
.LBE1618:
.LBE1620:
.LBE1621:
	.cfi_endproc
.LFE1561:
	.size	_ZN8GuiImage8SetImageEP12GuiImageData, .-_ZN8GuiImage8SetImageEP12GuiImageData
	.align 2
	.globl _ZN8GuiImage8SetImageEPhiii
	.type	_ZN8GuiImage8SetImageEPhiii, @function
_ZN8GuiImage8SetImageEPhiii:
.LFB1562:
	.loc 3 154 0
	.cfi_startproc
.LVL270:
	.loc 3 159 0
	li 0,0
	.loc 3 155 0
	stw 5,36(3)
	.loc 3 156 0
	stw 6,40(3)
	.loc 3 162 0
	.loc 3 157 0
	stb 7,168(3)
	.loc 3 159 0
	stw 0,192(3)
	.loc 3 160 0
	stw 4,148(3)
	.loc 3 161 0
	stw 0,144(3)
	.loc 3 162 0
	blr
	.cfi_endproc
.LFE1562:
	.size	_ZN8GuiImage8SetImageEPhiii, .-_ZN8GuiImage8SetImageEPhiii
	.align 2
	.globl _ZN8GuiImage8GetAngleEv
	.type	_ZN8GuiImage8GetAngleEv, @function
_ZN8GuiImage8GetAngleEv:
.LFB1563:
	.loc 3 165 0
	.cfi_startproc
.LVL271:
	.loc 3 167 0
	lfs 1,152(3)
	blr
	.cfi_endproc
.LFE1563:
	.size	_ZN8GuiImage8GetAngleEv, .-_ZN8GuiImage8GetAngleEv
	.align 2
	.globl _ZN8GuiImage8SetAngleEf
	.type	_ZN8GuiImage8SetAngleEf, @function
_ZN8GuiImage8SetAngleEf:
.LFB1564:
	.loc 3 170 0
	.cfi_startproc
.LVL272:
	.loc 3 171 0
	stfs 1,152(3)
	.loc 3 172 0
	blr
	.cfi_endproc
.LFE1564:
	.size	_ZN8GuiImage8SetAngleEf, .-_ZN8GuiImage8SetAngleEf
	.align 2
	.globl _ZN8GuiImage17SetTileHorizontalEi
	.type	_ZN8GuiImage17SetTileHorizontalEi, @function
_ZN8GuiImage17SetTileHorizontalEi:
.LFB1565:
	.loc 3 175 0
	.cfi_startproc
.LVL273:
	.loc 3 176 0
	stw 4,156(3)
	.loc 3 177 0
	blr
	.cfi_endproc
.LFE1565:
	.size	_ZN8GuiImage17SetTileHorizontalEi, .-_ZN8GuiImage17SetTileHorizontalEi
	.align 2
	.globl _ZN8GuiImage15SetTileVerticalEi
	.type	_ZN8GuiImage15SetTileVerticalEi, @function
_ZN8GuiImage15SetTileVerticalEi:
.LFB1566:
	.loc 3 180 0
	.cfi_startproc
.LVL274:
	.loc 3 181 0
	stw 4,160(3)
	.loc 3 182 0
	blr
	.cfi_endproc
.LFE1566:
	.size	_ZN8GuiImage15SetTileVerticalEi, .-_ZN8GuiImage15SetTileVerticalEi
	.align 2
	.globl _ZN8GuiImage8GetPixelEii
	.type	_ZN8GuiImage8GetPixelEii, @function
_ZN8GuiImage8GetPixelEii:
.LFB1567:
	.loc 3 185 0
	.cfi_startproc
.LVL275:
	mflr 0
	stwu 1,-24(1)
.LCFI57:
	.cfi_def_cfa_offset 24
	.cfi_register 65, 0
	stw 29,12(1)
	mr 29,5
	.cfi_offset 29, -12
	stw 0,28(1)
	stw 30,16(1)
	mr 30,4
	.cfi_offset 30, -8
	.cfi_offset 65, 4
.LBB1622:
	.loc 3 186 0
	lwz 0,148(3)
.LBE1622:
	.loc 3 185 0
	stw 31,20(1)
	.loc 3 185 0
	mr 31,3
	.cfi_offset 31, -4
.LBB1623:
	.loc 3 186 0
	cmpwi 7,0,0
	beq- 7,.L199
	.loc 3 186 0 is_stmt 0 discriminator 2
	lwz 9,0(3)
	lwz 0,36(9)
	mtctr 0
	bctrl
.LVL276:
	cmpwi 7,3,0
	ble- 7,.L199
	.loc 3 186 0 discriminator 3
	cmpwi 7,30,0
	blt- 7,.L199
	.loc 3 186 0 discriminator 4
	cmpwi 7,29,0
	blt- 7,.L199
	.loc 3 189 0 is_stmt 1
	lwz 9,0(31)
	mr 3,31
	lwz 0,36(9)
	mtctr 0
	bctrl
	rlwinm 0,29,2,0,27
	mullw 0,0,3
	rlwinm 9,30,0,30,31
	rlwinm 29,29,2,28,29
.LVL277:
	rlwinm 30,30,4,0,25
.LVL278:
	add 29,29,9
	.loc 3 191 0
	lwz 9,148(31)
	.loc 3 189 0
	add 0,0,30
	slwi 29,29,1
	add 29,0,29
.LVL279:
	.loc 3 195 0
	li 3,0
	.loc 3 191 0
	lbzux 0,9,29
.LVL280:
.LBE1623:
	.loc 3 196 0
	lwz 30,16(1)
.LBB1624:
	.loc 3 195 0
	lbz 10,1(9)
	.loc 3 193 0
	lbz 11,32(9)
.LVL281:
	.loc 3 195 0
	rlwimi 3,10,24,0,7
	.loc 3 194 0
	lbz 9,33(9)
.LVL282:
	.loc 3 195 0
	rlwimi 3,11,16,8,15
.LBE1624:
	.loc 3 196 0
	lwz 29,12(1)
.LVL283:
.LBB1625:
	.loc 3 195 0
	rlwimi 3,9,8,16,23
.LBE1625:
	.loc 3 196 0
	lwz 31,20(1)
.LVL284:
.LBB1626:
	.loc 3 195 0
	rlwimi 3,0,0,24,31
.LBE1626:
	.loc 3 196 0
	lwz 0,28(1)
.LVL285:
	addi 1,1,24
	.cfi_remember_state
.LCFI58:
	.cfi_def_cfa_offset 0
	.cfi_restore 31
	.cfi_restore 30
	.cfi_restore 29
	mtlr 0
	blr
.LVL286:
.L199:
.LCFI59:
	.cfi_restore_state
	.loc 3 196 0 is_stmt 0 discriminator 6
	lwz 0,28(1)
.LBB1627:
	.loc 3 187 0 is_stmt 1 discriminator 6
	li 3,0
.LBE1627:
	.loc 3 196 0 discriminator 6
	lwz 29,12(1)
.LVL287:
	mtlr 0
	lwz 30,16(1)
.LVL288:
	lwz 31,20(1)
.LVL289:
	addi 1,1,24
	.cfi_restore 29
	.cfi_restore 30
	.cfi_restore 31
.LCFI60:
	.cfi_def_cfa_offset 0
	blr
	.cfi_endproc
.LFE1567:
	.size	_ZN8GuiImage8GetPixelEii, .-_ZN8GuiImage8GetPixelEii
	.align 2
	.globl _ZN8GuiImage8SetPixelEii9_gx_color
	.type	_ZN8GuiImage8SetPixelEii9_gx_color, @function
_ZN8GuiImage8SetPixelEii9_gx_color:
.LFB1568:
	.loc 3 199 0
	.cfi_startproc
.LVL290:
	mflr 0
	stwu 1,-24(1)
.LCFI61:
	.cfi_def_cfa_offset 24
	.cfi_register 65, 0
	stw 28,8(1)
	stw 0,28(1)
	stw 29,12(1)
	mr 29,5
	.cfi_offset 29, -12
	.cfi_offset 65, 4
	.cfi_offset 28, -16
.LBB1628:
	.loc 3 200 0
	lwz 0,148(3)
.LBE1628:
	.loc 3 199 0
	stw 30,16(1)
	mr 30,4
	.cfi_offset 30, -8
.LBB1629:
	.loc 3 200 0
	cmpwi 7,0,0
.LBE1629:
	.loc 3 199 0
	stw 31,20(1)
	.loc 3 199 0
	lwz 28,0(6)
	mr 31,3
	.cfi_offset 31, -4
.LBB1630:
	.loc 3 200 0
	beq- 7,.L202
	.loc 3 200 0 is_stmt 0 discriminator 2
	lwz 9,0(3)
	lwz 0,36(9)
	mtctr 0
	bctrl
.LVL291:
	cmpwi 7,3,0
	ble- 7,.L202
	.loc 3 200 0 discriminator 3
	cmpwi 7,30,0
	blt- 7,.L202
	.loc 3 200 0 discriminator 4
	cmpwi 7,29,0
	blt- 7,.L202
	.loc 3 203 0 is_stmt 1
	lwz 9,0(31)
	mr 3,31
	lwz 0,36(9)
	mtctr 0
	bctrl
	rlwinm 0,29,2,0,27
	mullw 0,0,3
	rlwinm 9,30,0,30,31
	rlwinm 29,29,2,28,29
.LVL292:
	rlwinm 30,30,4,0,25
.LVL293:
	add 29,29,9
	.loc 3 204 0
	lwz 9,148(31)
	.loc 3 203 0
	add 0,0,30
	slwi 29,29,1
	add 0,0,29
.LVL294:
	.loc 3 205 0
	rlwinm 10,28,8,24,31
	.loc 3 204 0
	stbx 28,9,0
	.loc 3 206 0
	rlwinm 11,28,16,24,31
	.loc 3 207 0
	rlwinm 28,28,24,24,31
	.loc 3 205 0
	lwz 9,148(31)
	add 9,9,0
	stb 10,1(9)
	.loc 3 206 0
	lwz 9,148(31)
	add 9,9,0
	stb 11,32(9)
	.loc 3 207 0
	lwz 30,148(31)
	add 30,30,0
	stb 28,33(30)
.LVL295:
.L202:
.LBE1630:
	.loc 3 208 0
	lwz 0,28(1)
	lwz 28,8(1)
	mtlr 0
	lwz 29,12(1)
	lwz 30,16(1)
	lwz 31,20(1)
.LVL296:
	addi 1,1,24
.LCFI62:
	.cfi_def_cfa_offset 0
	.cfi_restore 31
	.cfi_restore 30
	.cfi_restore 29
	.cfi_restore 28
	blr
	.cfi_endproc
.LFE1568:
	.size	_ZN8GuiImage8SetPixelEii9_gx_color, .-_ZN8GuiImage8SetPixelEii9_gx_color
	.align 2
	.globl _ZN8GuiImage9SetStripeEi
	.type	_ZN8GuiImage9SetStripeEi, @function
_ZN8GuiImage9SetStripeEi:
.LFB1569:
	.loc 3 211 0
	.cfi_startproc
.LVL297:
	.loc 3 212 0
	stw 4,164(3)
	.loc 3 213 0
	blr
	.cfi_endproc
.LFE1569:
	.size	_ZN8GuiImage9SetStripeEi, .-_ZN8GuiImage9SetStripeEi
	.align 2
	.globl _ZN8GuiImage13SetImageColorEP9_gx_colori
	.type	_ZN8GuiImage13SetImageColorEP9_gx_colori, @function
_ZN8GuiImage13SetImageColorEP9_gx_colori:
.LFB1570:
	.loc 3 216 0
	.cfi_startproc
.LVL298:
.LBB1631:
	.loc 3 217 0
	cmpwi 0,5,0
	blelr- 0
	.loc 3 215 0
	slwi 5,5,2
.LVL299:
	addi 3,3,165
.LVL300:
.LBE1631:
	addi 5,5,-4
	li 9,0
	srwi 5,5,2
	addi 5,5,1
	mtctr 5
.LVL301:
.L208:
.LBB1632:
	.loc 3 218 0 discriminator 2
	lwzx 0,4,9
	addi 9,9,4
	stwu 0,4(3)
	.loc 3 217 0 discriminator 2
	bdnz .L208
	blr
.LBE1632:
	.cfi_endproc
.LFE1570:
	.size	_ZN8GuiImage13SetImageColorEP9_gx_colori, .-_ZN8GuiImage13SetImageColorEP9_gx_colori
	.align 2
	.globl _ZN8GuiImage12SetGrayscaleEv
	.type	_ZN8GuiImage12SetGrayscaleEv, @function
_ZN8GuiImage12SetGrayscaleEv:
.LFB1572:
	.loc 3 231 0
	.cfi_startproc
.LVL302:
	mflr 0
	stwu 1,-16(1)
.LCFI63:
	.cfi_def_cfa_offset 16
	.cfi_register 65, 0
	stw 30,8(1)
	stw 0,20(1)
	stw 31,12(1)
.LBB1633:
.LBB1634:
	.loc 3 235 0
	lwz 0,36(3)
	.cfi_offset 31, -4
	.cfi_offset 65, 4
	.cfi_offset 30, -8
	lwz 11,40(3)
	cmpwi 7,0,0
	ble- 7,.L214
.LBB1635:
	.loc 3 244 0
	lis 31,0x8080
.LBE1635:
	.loc 3 235 0
	li 30,0
.LBB1636:
	.loc 3 244 0
	ori 31,31,32897
.LVL303:
.L212:
	.loc 3 237 0 discriminator 1
	cmpwi 7,11,0
	ble- 7,.L215
	.loc 3 237 0 is_stmt 0
	rlwinm 12,30,4,0,25
	rlwinm 4,30,0,30,31
	li 9,0
.LVL304:
.L216:
	.loc 3 239 0 is_stmt 1 discriminator 2
	rlwinm 10,9,2,0,27
	rlwinm 8,9,2,28,29
	mullw 0,10,0
	add 8,8,4
	slwi 8,8,1
	.loc 3 240 0 discriminator 2
	lwz 11,148(3)
	.loc 3 237 0 discriminator 2
	addi 9,9,1
	.loc 3 239 0 discriminator 2
	add 10,0,12
	add 10,10,8
.LVL305:
	.loc 3 241 0 discriminator 2
	addi 8,10,32
	.loc 3 240 0 discriminator 2
	addi 7,10,1
.LVL306:
	.loc 3 244 0 discriminator 2
	lbzx 5,11,8
	.loc 3 242 0 discriminator 2
	addi 10,10,33
.LVL307:
	.loc 3 244 0 discriminator 2
	lbzx 0,11,7
.LVL308:
	lbzx 6,11,10
	mulli 5,5,150
	mulli 0,0,77
.LVL309:
	mulli 6,6,28
	add 0,0,5
	add 0,0,6
	mulhw 6,0,31
	add 0,6,0
	.loc 3 246 0 discriminator 2
	rlwinm 0,0,25,24,31
	stbx 0,11,7
	.loc 3 247 0 discriminator 2
	lwz 11,148(3)
	stbx 0,11,8
	.loc 3 248 0 discriminator 2
	lwz 11,148(3)
	stbx 0,11,10
	.loc 3 237 0 discriminator 2
	lwz 11,40(3)
.LBE1636:
	.loc 3 235 0 discriminator 2
	lwz 0,36(3)
.LBB1637:
	.loc 3 237 0 discriminator 2
	cmpw 7,11,9
	bgt+ 7,.L216
.LVL310:
.L215:
.LBE1637:
	.loc 3 235 0
	addi 30,30,1
.LVL311:
	cmpw 7,30,0
	blt+ 7,.L212
.LVL312:
.L214:
.LBE1634:
	.loc 3 252 0
	mullw 0,0,11
	slwi 4,0,2
	.loc 3 253 0
	andi. 0,4,28
	beq- 0,.L217
	.loc 3 253 0 is_stmt 0 discriminator 1
	srawi 4,4,5
	addze 4,4
	slwi 4,4,5
.LVL313:
	addi 4,4,32
.LVL314:
.L217:
	.loc 3 254 0 is_stmt 1
	lwz 3,148(3)
.LVL315:
	bl DCFlushRange
.LBE1633:
	.loc 3 255 0
	lwz 0,20(1)
	lwz 30,8(1)
	mtlr 0
	lwz 31,12(1)
	addi 1,1,16
.LCFI64:
	.cfi_def_cfa_offset 0
	.cfi_restore 31
	.cfi_restore 30
	blr
	.cfi_endproc
.LFE1572:
	.size	_ZN8GuiImage12SetGrayscaleEv, .-_ZN8GuiImage12SetGrayscaleEv
	.align 2
	.globl _ZN8GuiImage11ColorStripeEi
	.type	_ZN8GuiImage11ColorStripeEi, @function
_ZN8GuiImage11ColorStripeEi:
.LFB1573:
	.loc 3 258 0
	.cfi_startproc
.LVL316:
	mflr 0
	stwu 1,-40(1)
.LCFI65:
	.cfi_def_cfa_offset 40
	.cfi_register 65, 0
	stw 30,32(1)
	mr 30,3
	.cfi_offset 30, -8
	stw 0,44(1)
.LBB1638:
	.loc 3 263 0
	mr 3,30
.LBE1638:
	.loc 3 258 0
	stw 27,20(1)
.LBB1639:
	.loc 3 261 0
	li 27,0
	.cfi_offset 27, -20
	.cfi_offset 65, 4
.LVL317:
	.loc 3 263 0
	lwz 9,0(30)
.LBE1639:
	.loc 3 258 0
	stw 29,28(1)
.LBB1640:
	.loc 3 263 0
	li 29,0
	.cfi_offset 29, -12
.LVL318:
	lwz 0,40(9)
.LBE1640:
	.loc 3 258 0
	stw 31,36(1)
	mr 31,4
	.cfi_offset 31, -4
	stw 28,24(1)
.LBB1641:
	.loc 3 263 0
	mtctr 0
	.cfi_offset 28, -16
	bctrl
.LVL319:
	cmpw 7,29,3
	bge- 7,.L240
.LVL320:
.L234:
	.loc 3 265 0
	lis 0,0x5555
	srawi 9,29,31
	ori 0,0,21846
	mulhw 0,29,0
	subf 0,9,0
	mulli 0,0,3
	cmpw 7,29,0
	bne- 7,.L220
	.loc 3 266 0
	xori 27,27,1
.LVL321:
.L220:
	cmpwi 7,27,0
	.loc 3 285 0
	li 28,0
	.loc 3 266 0
	bne- 7,.L239
	b .L226
.LVL322:
.L241:
	.loc 3 270 0
	bl _ZN8GuiImage8GetPixelEii
.LVL323:
	.loc 3 306 0
	mr 4,28
.LVL324:
	.loc 3 270 0
	srwi 10,3,24
.LVL325:
	rlwinm 11,3,16,24,31
.LVL326:
	.loc 3 294 0
	cmpw 7,31,10
	.loc 3 270 0
	rlwinm 9,3,24,24,31
.LVL327:
	.loc 3 298 0
	cmpw 6,31,11
	.loc 3 292 0
	subf 10,31,10
.LVL328:
	.loc 3 294 0
	mfcr 6
	rlwinm 6,6,29,1
	.loc 3 302 0
	cmpw 7,31,9
	.loc 3 298 0
	mfcr 7
	rlwinm 7,7,25,1
	.loc 3 292 0
	rlwinm 10,10,0,0xff
	.loc 3 294 0
	neg 6,6
	.loc 3 270 0
	mr 0,3
.LVL329:
	.loc 3 294 0
	and 10,10,6
.LVL330:
	.loc 3 302 0
	mfcr 8
	rlwinm 8,8,29,1
	.loc 3 304 0
	li 6,-1
	.loc 3 296 0
	subf 11,31,11
.LVL331:
	.loc 3 298 0
	neg 7,7
	.loc 3 304 0
	rlwimi 0,6,0,24,31
.LVL332:
	.loc 3 296 0
	rlwinm 11,11,0,0xff
	.loc 3 300 0
	subf 9,31,9
.LVL333:
	.loc 3 298 0
	and 11,11,7
.LVL334:
	.loc 3 302 0
	neg 8,8
	.loc 3 306 0
	rlwimi 0,10,24,0,7
	.loc 3 300 0
	rlwinm 9,9,0,0xff
	.loc 3 302 0
	and 9,9,8
.LVL335:
	.loc 3 306 0
	rlwimi 0,11,16,8,15
	mr 6,1
	rlwimi 0,9,8,16,23
	stwu 0,8(6)
	mr 3,30
	mr 5,29
	.loc 3 268 0
	addi 28,28,1
.LVL336:
	.loc 3 306 0
	bl _ZN8GuiImage8SetPixelEii9_gx_color
.LVL337:
.L226:
	.loc 3 268 0
	lwz 9,0(30)
	mr 3,30
	lwz 0,36(9)
	mtctr 0
	bctrl
	.loc 3 270 0
	mr 4,28
	.loc 3 268 0
	cmpw 7,28,3
	.loc 3 270 0
	mr 5,29
	mr 3,30
	.loc 3 268 0
	blt+ 7,.L241
.LVL338:
.L222:
	.loc 3 263 0
	addi 29,29,1
.LVL339:
.L242:
	lwz 9,0(30)
	mr 3,30
	lwz 0,40(9)
	mtctr 0
	bctrl
.LVL340:
	cmpw 7,29,3
	blt+ 7,.L234
.LVL341:
.L240:
.LBE1641:
	.loc 3 309 0
	lwz 0,44(1)
	lwz 27,20(1)
.LVL342:
	mtlr 0
	lwz 28,24(1)
	lwz 29,28(1)
.LVL343:
	lwz 30,32(1)
.LVL344:
	lwz 31,36(1)
.LVL345:
	addi 1,1,40
	.cfi_remember_state
.LCFI66:
	.cfi_def_cfa_offset 0
	.cfi_restore 31
	.cfi_restore 30
	.cfi_restore 29
	.cfi_restore 28
	.cfi_restore 27
	blr
.LVL346:
.L239:
.LCFI67:
	.cfi_restore_state
.LBB1642:
	.loc 3 268 0 discriminator 1
	lwz 9,0(30)
	mr 3,30
	lwz 0,36(9)
	mtctr 0
	bctrl
	.loc 3 270 0 discriminator 1
	mr 4,28
	.loc 3 268 0 discriminator 1
	cmpw 7,28,3
	.loc 3 270 0 discriminator 1
	mr 5,29
	mr 3,30
	.loc 3 268 0 discriminator 1
	bge- 7,.L222
.LVL347:
.L233:
	.loc 3 270 0
	bl _ZN8GuiImage8GetPixelEii
.LVL348:
	.loc 3 274 0
	subfic 9,31,255
.LVL349:
	.loc 3 270 0
	srwi 11,3,24
.LVL350:
	mr 0,3
.LVL351:
	.loc 3 274 0
	cmpw 7,11,9
	.loc 3 275 0
	add 7,11,31
	.loc 3 270 0
	rlwinm 11,0,16,24,31
.LVL352:
	.loc 3 287 0
	li 10,-1
	.loc 3 278 0
	cmpw 1,9,11
	.loc 3 279 0
	add 8,11,31
	.loc 3 270 0
	rlwinm 11,0,24,24,31
	.loc 3 306 0
	mr 6,1
	.loc 3 287 0
	rlwimi 0,10,0,24,31
	.loc 3 282 0
	cmpw 6,9,11
	.loc 3 306 0
	mr 4,28
	mr 3,30
	mr 5,29
.LVL353:
	.loc 3 283 0
	add 10,11,31
	.loc 3 277 0
	li 9,255
	.loc 3 274 0
	bge- 7,.L230
.LVL354:
	.loc 3 275 0
	rlwinm 9,7,0,0xff
.LVL355:
.L230:
	.loc 3 306 0
	rlwimi 0,9,24,0,7
	.loc 3 281 0
	li 9,255
.LVL356:
	.loc 3 278 0
	ble- 1,.L231
	.loc 3 279 0
	rlwinm 9,8,0,0xff
.LVL357:
.L231:
	.loc 3 306 0
	rlwimi 0,9,16,8,15
	.loc 3 285 0
	li 9,255
.LVL358:
	.loc 3 282 0
	ble- 6,.L232
	.loc 3 283 0
	rlwinm 9,10,0,0xff
.LVL359:
.L232:
	.loc 3 306 0
	rlwimi 0,9,8,16,23
	.loc 3 268 0
	addi 28,28,1
	.loc 3 306 0
	stwu 0,8(6)
	bl _ZN8GuiImage8SetPixelEii9_gx_color
.LVL360:
	.loc 3 268 0
	lwz 9,0(30)
	mr 3,30
	lwz 0,36(9)
	mtctr 0
	bctrl
	.loc 3 270 0
	mr 4,28
	.loc 3 268 0
	cmpw 7,28,3
	.loc 3 270 0
	mr 5,29
	mr 3,30
	.loc 3 268 0
	blt+ 7,.L233
	.loc 3 263 0
	addi 29,29,1
.LVL361:
	b .L242
.LBE1642:
	.cfi_endproc
.LFE1573:
	.size	_ZN8GuiImage11ColorStripeEi, .-_ZN8GuiImage11ColorStripeEi
	.section	.text._ZNSt8_Rb_treeIPN7sigslot12_signal_baseINS0_15single_threadedEEES4_St9_IdentityIS4_ESt4lessIS4_ESaIS4_EE8_M_eraseEPSt13_Rb_tree_nodeIS4_E,"axG",@progbits,_ZNSt8_Rb_treeIPN7sigslot12_signal_baseINS0_15single_threadedEEES4_St9_IdentityIS4_ESt4lessIS4_ESaIS4_EE8_M_eraseEPSt13_Rb_tree_nodeIS4_E,comdat
	.align 2
	.weak	_ZNSt8_Rb_treeIPN7sigslot12_signal_baseINS0_15single_threadedEEES4_St9_IdentityIS4_ESt4lessIS4_ESaIS4_EE8_M_eraseEPSt13_Rb_tree_nodeIS4_E
	.type	_ZNSt8_Rb_treeIPN7sigslot12_signal_baseINS0_15single_threadedEEES4_St9_IdentityIS4_ESt4lessIS4_ESaIS4_EE8_M_eraseEPSt13_Rb_tree_nodeIS4_E, @function
_ZNSt8_Rb_treeIPN7sigslot12_signal_baseINS0_15single_threadedEEES4_St9_IdentityIS4_ESt4lessIS4_ESaIS4_EE8_M_eraseEPSt13_Rb_tree_nodeIS4_E:
.LFB1780:
	.file 8 "d:\\devkitpro\\devkitppc\\bin\\../lib/gcc/powerpc-eabi/4.6.3/../../../../powerpc-eabi/include/c++/4.6.3/bits/stl_tree.h"
	.loc 8 1068 0
	.cfi_startproc
.LVL362:
	stwu 1,-56(1)
.LCFI68:
	.cfi_def_cfa_offset 56
	mflr 0
	stw 22,16(1)
.LBB1759:
	.loc 8 1072 0
	mr. 22,4
	.cfi_offset 22, -40
	.cfi_register 65, 0
.LBE1759:
	.loc 8 1068 0
	stw 30,48(1)
	mr 30,3
	.cfi_offset 30, -8
	stw 0,60(1)
	stw 21,12(1)
	stw 23,20(1)
	stw 24,24(1)
	stw 25,28(1)
	stw 26,32(1)
	stw 27,36(1)
	stw 28,40(1)
	stw 29,44(1)
	stw 31,52(1)
.LBB1844:
	.loc 8 1072 0
	beq- 0,.L243
	.cfi_offset 31, -4
	.cfi_offset 29, -12
	.cfi_offset 28, -16
	.cfi_offset 27, -20
	.cfi_offset 26, -24
	.cfi_offset 25, -28
	.cfi_offset 24, -32
	.cfi_offset 23, -36
	.cfi_offset 21, -44
	.cfi_offset 65, 4
.LVL363:
.L289:
	.loc 3 389 0
	lwz 27,12(22)
.LVL364:
.LBB1760:
.LBB1761:
.LBB1762:
	.loc 8 1072 0
	cmpwi 7,27,0
	beq- 7,.L245
.LVL365:
.L290:
.LBE1762:
	.loc 3 389 0
	lwz 26,12(27)
.LVL366:
.LBB1838:
.LBB1763:
.LBB1764:
.LBB1765:
	.loc 8 1072 0
	cmpwi 7,26,0
	beq- 7,.L246
.LVL367:
.L291:
.LBE1765:
	.loc 3 389 0
	lwz 25,12(26)
.LVL368:
.LBB1831:
.LBB1766:
.LBB1767:
.LBB1768:
	.loc 8 1072 0
	cmpwi 7,25,0
	beq- 7,.L247
.LVL369:
.L292:
.LBE1768:
	.loc 3 389 0
	lwz 24,12(25)
.LVL370:
.LBB1824:
.LBB1769:
.LBB1770:
.LBB1771:
	.loc 8 1072 0
	cmpwi 7,24,0
	beq- 7,.L248
.LVL371:
.L293:
.LBE1771:
	.loc 3 389 0
	lwz 23,12(24)
.LVL372:
.LBB1817:
.LBB1772:
.LBB1773:
.LBB1774:
	.loc 8 1072 0
	cmpwi 7,23,0
	beq- 7,.L249
.LVL373:
.L294:
.LBE1774:
	.loc 3 389 0
	lwz 28,12(23)
.LVL374:
.LBB1810:
.LBB1775:
.LBB1776:
.LBB1777:
	.loc 8 1072 0
	cmpwi 7,28,0
	beq- 7,.L250
.LVL375:
.L295:
.LBE1777:
	.loc 3 389 0
	lwz 29,12(28)
.LVL376:
.LBB1803:
.LBB1778:
.LBB1779:
.LBB1780:
	.loc 8 1072 0
	cmpwi 7,29,0
	beq- 7,.L251
.LVL377:
.L296:
.LBE1780:
	.loc 3 389 0
	lwz 31,12(29)
.LVL378:
.LBB1796:
.LBB1781:
.LBB1782:
.LBB1783:
	.loc 8 1072 0
	cmpwi 7,31,0
	beq- 7,.L252
.LVL379:
.L297:
.LBB1784:
	.loc 8 1074 0
	lwz 4,12(31)
	mr 3,30
	bl _ZNSt8_Rb_treeIPN7sigslot12_signal_baseINS0_15single_threadedEEES4_St9_IdentityIS4_ESt4lessIS4_ESaIS4_EE8_M_eraseEPSt13_Rb_tree_nodeIS4_E
.LBE1784:
.LBE1783:
	.loc 3 389 0
	lwz 21,8(31)
.LVL380:
.LBB1790:
.LBB1789:
.LBB1785:
.LBB1786:
.LBB1787:
.LBB1788:
	.loc 6 98 0
	mr 3,31
	bl _ZdlPv
.LVL381:
.LBE1788:
.LBE1787:
.LBE1786:
.LBE1785:
.LBE1789:
	.loc 8 1072 0
	cmpwi 7,21,0
	.loc 8 1077 0
	mr 31,21
.LVL382:
	.loc 8 1072 0
	bne+ 7,.L297
.LVL383:
.L252:
.LBE1790:
.LBE1782:
.LBE1781:
.LBE1796:
	.loc 3 389 0
	lwz 31,8(29)
.LVL384:
.LBB1797:
.LBB1795:
.LBB1791:
.LBB1792:
.LBB1793:
.LBB1794:
	.loc 6 98 0
	mr 3,29
	bl _ZdlPv
.LVL385:
.LBE1794:
.LBE1793:
.LBE1792:
.LBE1791:
.LBE1795:
	.loc 8 1072 0
	cmpwi 7,31,0
	beq- 7,.L251
	.loc 8 1077 0
	mr 29,31
.LVL386:
	b .L296
.LVL387:
.L251:
.LBE1797:
.LBE1779:
.LBE1778:
.LBE1803:
	.loc 3 389 0
	lwz 31,8(28)
.LVL388:
.LBB1804:
.LBB1802:
.LBB1798:
.LBB1799:
.LBB1800:
.LBB1801:
	.loc 6 98 0
	mr 3,28
	bl _ZdlPv
.LVL389:
.LBE1801:
.LBE1800:
.LBE1799:
.LBE1798:
.LBE1802:
	.loc 8 1072 0
	cmpwi 7,31,0
	beq- 7,.L250
	.loc 8 1077 0
	mr 28,31
.LVL390:
	b .L295
.LVL391:
.L250:
.LBE1804:
.LBE1776:
.LBE1775:
.LBE1810:
	.loc 3 389 0
	lwz 31,8(23)
.LVL392:
.LBB1811:
.LBB1809:
.LBB1805:
.LBB1806:
.LBB1807:
.LBB1808:
	.loc 6 98 0
	mr 3,23
	bl _ZdlPv
.LVL393:
.LBE1808:
.LBE1807:
.LBE1806:
.LBE1805:
.LBE1809:
	.loc 8 1072 0
	cmpwi 7,31,0
	beq- 7,.L249
	.loc 8 1077 0
	mr 23,31
.LVL394:
	b .L294
.LVL395:
.L249:
.LBE1811:
.LBE1773:
.LBE1772:
.LBE1817:
	.loc 3 389 0
	lwz 31,8(24)
.LVL396:
.LBB1818:
.LBB1816:
.LBB1812:
.LBB1813:
.LBB1814:
.LBB1815:
	.loc 6 98 0
	mr 3,24
	bl _ZdlPv
.LVL397:
.LBE1815:
.LBE1814:
.LBE1813:
.LBE1812:
.LBE1816:
	.loc 8 1072 0
	cmpwi 7,31,0
	beq- 7,.L248
	.loc 8 1077 0
	mr 24,31
.LVL398:
	b .L293
.LVL399:
.L248:
.LBE1818:
.LBE1770:
.LBE1769:
.LBE1824:
	.loc 3 389 0
	lwz 31,8(25)
.LVL400:
.LBB1825:
.LBB1823:
.LBB1819:
.LBB1820:
.LBB1821:
.LBB1822:
	.loc 6 98 0
	mr 3,25
	bl _ZdlPv
.LVL401:
.LBE1822:
.LBE1821:
.LBE1820:
.LBE1819:
.LBE1823:
	.loc 8 1072 0
	cmpwi 7,31,0
	beq- 7,.L247
	.loc 8 1077 0
	mr 25,31
.LVL402:
	b .L292
.LVL403:
.L247:
.LBE1825:
.LBE1767:
.LBE1766:
.LBE1831:
	.loc 3 389 0
	lwz 31,8(26)
.LVL404:
.LBB1832:
.LBB1830:
.LBB1826:
.LBB1827:
.LBB1828:
.LBB1829:
	.loc 6 98 0
	mr 3,26
	bl _ZdlPv
.LVL405:
.LBE1829:
.LBE1828:
.LBE1827:
.LBE1826:
.LBE1830:
	.loc 8 1072 0
	cmpwi 7,31,0
	beq- 7,.L246
	.loc 8 1077 0
	mr 26,31
.LVL406:
	b .L291
.LVL407:
.L246:
.LBE1832:
.LBE1764:
.LBE1763:
.LBE1838:
	.loc 3 389 0
	lwz 31,8(27)
.LVL408:
.LBB1839:
.LBB1837:
.LBB1833:
.LBB1834:
.LBB1835:
.LBB1836:
	.loc 6 98 0
	mr 3,27
	bl _ZdlPv
.LVL409:
.LBE1836:
.LBE1835:
.LBE1834:
.LBE1833:
.LBE1837:
	.loc 8 1072 0
	cmpwi 7,31,0
	beq- 7,.L245
	.loc 8 1077 0
	mr 27,31
.LVL410:
	b .L290
.LVL411:
.L245:
	.loc 3 389 0
	lwz 31,8(22)
.LVL412:
.LBE1839:
.LBE1761:
.LBB1840:
.LBB1841:
.LBB1842:
.LBB1843:
	.loc 6 98 0
	mr 3,22
	bl _ZdlPv
.LVL413:
.LBE1843:
.LBE1842:
.LBE1841:
.LBE1840:
.LBE1760:
	.loc 8 1072 0
	cmpwi 7,31,0
	beq- 7,.L243
	.loc 8 1077 0
	mr 22,31
.LVL414:
	b .L289
.LVL415:
.L243:
.LBE1844:
	.loc 8 1079 0
	lwz 0,60(1)
	lwz 21,12(1)
	mtlr 0
	lwz 22,16(1)
	lwz 23,20(1)
	lwz 24,24(1)
	lwz 25,28(1)
	lwz 26,32(1)
	lwz 27,36(1)
	lwz 28,40(1)
	lwz 29,44(1)
	lwz 30,48(1)
.LVL416:
	lwz 31,52(1)
	addi 1,1,56
.LCFI69:
	.cfi_def_cfa_offset 0
	.cfi_restore 31
	.cfi_restore 30
	.cfi_restore 29
	.cfi_restore 28
	.cfi_restore 27
	.cfi_restore 26
	.cfi_restore 25
	.cfi_restore 24
	.cfi_restore 23
	.cfi_restore 22
	.cfi_restore 21
	blr
	.cfi_endproc
.LFE1780:
	.size	_ZNSt8_Rb_treeIPN7sigslot12_signal_baseINS0_15single_threadedEEES4_St9_IdentityIS4_ESt4lessIS4_ESaIS4_EE8_M_eraseEPSt13_Rb_tree_nodeIS4_E, .-_ZNSt8_Rb_treeIPN7sigslot12_signal_baseINS0_15single_threadedEEES4_St9_IdentityIS4_ESt4lessIS4_ESaIS4_EE8_M_eraseEPSt13_Rb_tree_nodeIS4_E
	.section	.text._ZNSt8_Rb_treeIPN7sigslot12_signal_baseINS0_15single_threadedEEES4_St9_IdentityIS4_ESt4lessIS4_ESaIS4_EE5eraseERKS4_,"axG",@progbits,_ZNSt8_Rb_treeIPN7sigslot12_signal_baseINS0_15single_threadedEEES4_St9_IdentityIS4_ESt4lessIS4_ESaIS4_EE5eraseERKS4_,comdat
	.align 2
	.weak	_ZNSt8_Rb_treeIPN7sigslot12_signal_baseINS0_15single_threadedEEES4_St9_IdentityIS4_ESt4lessIS4_ESaIS4_EE5eraseERKS4_
	.type	_ZNSt8_Rb_treeIPN7sigslot12_signal_baseINS0_15single_threadedEEES4_St9_IdentityIS4_ESt4lessIS4_ESaIS4_EE5eraseERKS4_, @function
_ZNSt8_Rb_treeIPN7sigslot12_signal_baseINS0_15single_threadedEEES4_St9_IdentityIS4_ESt4lessIS4_ESaIS4_EE5eraseERKS4_:
.LFB1724:
	.loc 8 1510 0
	.cfi_startproc
.LVL417:
	mflr 0
	stwu 1,-32(1)
.LCFI70:
	.cfi_def_cfa_offset 32
	.cfi_register 65, 0
	stw 28,16(1)
.LBB1845:
.LBB1846:
	.loc 8 1155 0
	addi 28,3,4
	.cfi_offset 28, -16
.LBE1846:
.LBE1845:
	.loc 8 1510 0
	stw 0,36(1)
	stw 26,8(1)
.LBB1902:
.LBB1867:
.LBB1847:
	.loc 8 1155 0
	mr 26,28
	.cfi_offset 26, -24
	.cfi_offset 65, 4
.LBE1847:
	.loc 3 389 0
	lwz 0,8(3)
.LBE1867:
.LBE1902:
	.loc 8 1510 0
	stw 29,20(1)
.LBB1903:
.LBB1868:
.LBB1860:
	.loc 8 1155 0
	mr 29,28
	.cfi_offset 29, -12
	.loc 8 1156 0
	cmpwi 7,0,0
.LBE1860:
.LBE1868:
.LBE1903:
	.loc 8 1510 0
	stw 30,24(1)
	stw 27,12(1)
	mr 30,3
	.cfi_offset 27, -20
	.cfi_offset 30, -8
.LVL418:
	stw 31,28(1)
.LBB1904:
.LBB1869:
.LBB1861:
	.loc 8 1156 0
	beq- 7,.L299
	.cfi_offset 31, -4
.LVL419:
	lwz 11,0(4)
	mr 26,0
	b .L310
.LVL420:
.L329:
.LBE1861:
	.loc 3 389 0
	lwz 26,12(26)
.LVL421:
.LBB1862:
	.loc 8 1156 0
	cmpwi 7,26,0
	beq- 7,.L328
.L310:
.LVL422:
.LBE1862:
	.loc 3 389 0
	lwz 9,16(26)
.LBB1863:
.LBB1848:
	.loc 8 1158 0
	cmplw 7,9,11
	blt- 7,.L329
.LVL423:
.LBB1849:
	.loc 8 1160 0
	ble- 7,.L302
.LVL424:
.LBE1849:
.LBE1848:
.LBE1863:
	.loc 3 389 0
	mr 29,26
	.loc 8 1161 0
	lwz 26,8(26)
.LVL425:
.LBB1864:
	.loc 8 1156 0
	cmpwi 7,26,0
	bne+ 7,.L310
.LVL426:
.L328:
	mr 26,29
.LVL427:
.L299:
.LBE1864:
.LBE1869:
.LBB1870:
.LBB1871:
	.loc 3 389 0
	lwz 9,12(30)
.LBE1871:
.LBE1870:
.LBB1898:
.LBB1865:
	lwz 27,20(30)
.LVL428:
.LBE1865:
.LBE1898:
.LBB1899:
.LBB1896:
.LBB1872:
	.loc 8 1500 0
	cmpw 7,9,26
	beq- 7,.L311
.L315:
.LVL429:
	.loc 8 1503 0
	cmpw 7,26,29
	beq- 7,.L330
.LVL430:
.L326:
.LBB1873:
.LBB1874:
	.loc 8 277 0
	mr 3,26
	bl _ZSt18_Rb_tree_incrementPKSt18_Rb_tree_node_base
.LBE1874:
.LBE1873:
.LBB1876:
.LBB1877:
.LBB1878:
	.loc 8 1489 0
	mr 4,28
.LBE1878:
.LBE1877:
.LBE1876:
.LBB1889:
.LBB1875:
	.loc 8 277 0
	mr 31,3
.LVL431:
.LBE1875:
.LBE1889:
.LBB1890:
.LBB1886:
.LBB1883:
	.loc 8 1489 0
	mr 3,26
.LVL432:
	bl _ZSt28_Rb_tree_rebalance_for_erasePSt18_Rb_tree_node_baseRS_
.LBE1883:
.LBE1886:
.LBE1890:
	.loc 8 277 0
	mr 26,31
.LVL433:
.LBB1891:
.LBB1887:
.LBB1884:
.LBB1879:
.LBB1880:
.LBB1881:
.LBB1882:
	.loc 6 98 0
	bl _ZdlPv
.LBE1882:
.LBE1881:
.LBE1880:
.LBE1879:
.LBE1884:
.LBE1887:
.LBE1891:
	.loc 8 1503 0
	cmpw 7,31,29
.LBB1892:
.LBB1888:
.LBB1885:
	.loc 8 1491 0
	lwz 9,20(30)
	addi 0,9,-1
	stw 0,20(30)
.LBE1885:
.LBE1888:
.LBE1892:
	.loc 8 1503 0
	bne+ 7,.L326
	subf 27,0,27
.LVL434:
.L313:
.LBE1872:
.LBE1896:
.LBE1899:
.LBE1904:
	.loc 8 1517 0
	lwz 0,36(1)
	mr 3,27
	lwz 26,8(1)
	mtlr 0
	lwz 27,12(1)
	lwz 28,16(1)
	lwz 29,20(1)
.LVL435:
	lwz 30,24(1)
.LVL436:
	lwz 31,28(1)
	addi 1,1,32
	.cfi_remember_state
.LCFI71:
	.cfi_def_cfa_offset 0
	.cfi_restore 31
	.cfi_restore 30
	.cfi_restore 29
	.cfi_restore 28
	.cfi_restore 27
	.cfi_restore 26
	blr
.LVL437:
.L302:
.LCFI72:
	.cfi_restore_state
.LBB1905:
.LBB1900:
	.loc 3 389 0
	lwz 10,8(26)
.LVL438:
	lwz 9,12(26)
.LVL439:
.L327:
.LBB1866:
.LBB1859:
.LBB1858:
.LBB1850:
.LBB1851:
.LBB1852:
	.loc 8 1089 0
	cmpwi 7,10,0
	beq- 7,.L303
.L331:
.LVL440:
	.loc 8 1090 0
	lwz 8,16(10)
	cmplw 7,8,11
	blt- 7,.L304
.LVL441:
.LBE1852:
	.loc 3 389 0
	mr 26,10
	.loc 8 1091 0
	lwz 10,8(10)
.LVL442:
.LBB1853:
	.loc 8 1089 0
	cmpwi 7,10,0
	bne+ 7,.L331
.LVL443:
.L303:
.LBE1853:
.LBE1851:
.LBB1854:
.LBB1855:
	.loc 8 1121 0
	cmpwi 7,9,0
	beq- 7,.L299
.LVL444:
	.loc 8 1122 0
	lwz 10,16(9)
	cmplw 7,10,11
	ble- 7,.L307
.LVL445:
.L332:
.LBE1855:
	.loc 3 389 0
	mr 29,9
	.loc 8 1123 0
	lwz 9,8(9)
.LVL446:
.LBB1856:
	.loc 8 1121 0
	cmpwi 7,9,0
	beq- 7,.L299
.LVL447:
	.loc 8 1122 0
	lwz 10,16(9)
	cmplw 7,10,11
	bgt- 7,.L332
.LVL448:
.L307:
.LBE1856:
	.loc 3 389 0
	lwz 9,12(9)
.LVL449:
	b .L303
.LVL450:
.L304:
.LBE1854:
.LBB1857:
	lwz 10,12(10)
.LVL451:
	b .L327
.LVL452:
.L311:
.LBE1857:
.LBE1850:
.LBE1858:
.LBE1859:
.LBE1866:
.LBE1900:
.LBB1901:
.LBB1897:
.LBB1895:
	.loc 8 1500 0
	cmpw 7,28,29
	bne+ 7,.L315
.LVL453:
.LBB1893:
.LBB1894:
	.loc 8 809 0
	mr 4,0
.LVL454:
	mr 3,30
.LVL455:
	bl _ZNSt8_Rb_treeIPN7sigslot12_signal_baseINS0_15single_threadedEEES4_St9_IdentityIS4_ESt4lessIS4_ESaIS4_EE8_M_eraseEPSt13_Rb_tree_nodeIS4_E
.LVL456:
	.loc 8 811 0
	li 0,0
	.loc 8 810 0
	stw 28,12(30)
.LVL457:
	.loc 8 811 0
	stw 0,8(30)
.LVL458:
	.loc 8 812 0
	stw 28,16(30)
	.loc 8 813 0
	stw 0,20(30)
	b .L313
.LVL459:
.L330:
.LBE1894:
.LBE1893:
	.loc 8 1503 0
	li 27,0
	b .L313
.LBE1895:
.LBE1897:
.LBE1901:
.LBE1905:
	.cfi_endproc
.LFE1724:
	.size	_ZNSt8_Rb_treeIPN7sigslot12_signal_baseINS0_15single_threadedEEES4_St9_IdentityIS4_ESt4lessIS4_ESaIS4_EE5eraseERKS4_, .-_ZNSt8_Rb_treeIPN7sigslot12_signal_baseINS0_15single_threadedEEES4_St9_IdentityIS4_ESt4lessIS4_ESaIS4_EE5eraseERKS4_
	.section	.text._ZN7sigslot7signal3IP10GuiElementiiNS_15single_threadedEED2Ev,"axG",@progbits,_ZN7sigslot7signal3IP10GuiElementiiNS_15single_threadedEED5Ev,comdat
	.align 2
	.weak	_ZN7sigslot7signal3IP10GuiElementiiNS_15single_threadedEED2Ev
	.type	_ZN7sigslot7signal3IP10GuiElementiiNS_15single_threadedEED2Ev, @function
_ZN7sigslot7signal3IP10GuiElementiiNS_15single_threadedEED2Ev:
.LFB1584:
	.loc 1 2302 0
	.cfi_startproc
	.cfi_personality 0,__gxx_personality_v0
	.cfi_lsda 0,.LLSDA1584
.LVL460:
	mflr 0
	stwu 1,-40(1)
.LCFI73:
	.cfi_def_cfa_offset 40
	.cfi_register 65, 0
.LBB2003:
.LBB2004:
.LBB2005:
.LBB2006:
	.loc 1 946 0
	lis 9,_ZTVN7sigslot13_signal_base3IP10GuiElementiiNS_15single_threadedEEE+8@ha
.LBE2006:
.LBE2005:
.LBE2004:
.LBE2003:
	.loc 1 2302 0
	stw 28,24(1)
	mr 28,3
	.cfi_offset 28, -16
.LVL461:
	stw 0,44(1)
.LBB2104:
.LBB2099:
.LBB2094:
.LBB2089:
	.loc 1 946 0
	la 0,_ZTVN7sigslot13_signal_base3IP10GuiElementiiNS_15single_threadedEEE+8@l(9)
	.cfi_offset 65, 4
.LBE2089:
.LBE2094:
.LBE2099:
.LBE2104:
	.loc 1 2302 0
	stw 29,28(1)
	addi 29,3,4
	.cfi_offset 29, -12
	stw 30,32(1)
	stw 31,36(1)
.LBB2105:
.LBB2100:
.LBB2095:
.LBB2090:
	.loc 1 946 0
	stw 0,0(3)
.LVL462:
.LEHB20:
.LBB2007:
.LBB2008:
.LBB2009:
.LBB2010:
	.loc 1 338 0
	.cfi_offset 31, -4
	.cfi_offset 30, -8
	bl _ZN7sigslot15single_threaded4lockEv
.LEHE20:
.LVL463:
.LBE2010:
.LBE2009:
.LBE2008:
	.loc 3 389 0
	mr 29,28
.LVL464:
	lwzu 31,4(29)
.LVL465:
.LBB2041:
	.loc 1 954 0
	cmpw 7,31,29
	beq- 7,.L334
.LVL466:
.L372:
	.loc 1 956 0
	lwz 3,8(31)
	lwz 9,0(3)
	lwz 0,8(9)
	mtctr 0
.LEHB21:
	bctrl
.LBB2011:
.LBB2012:
.LBB2013:
.LBB2014:
	.loc 1 338 0
	lwz 9,0(3)
.LBE2014:
.LBE2013:
.LBE2012:
.LBE2011:
	.loc 1 956 0
	mr 30,3
.LVL467:
	stw 28,8(1)
.LVL468:
.LBB2023:
.LBB2022:
.LBB2016:
.LBB2015:
	.loc 1 338 0
	lwz 0,8(9)
	mtctr 0
	bctrl
.LVL469:
.LBE2015:
.LBE2016:
.LBB2017:
.LBB2018:
	.file 9 "d:\\devkitpro\\devkitppc\\bin\\../lib/gcc/powerpc-eabi/4.6.3/../../../../powerpc-eabi/include/c++/4.6.3/bits/stl_set.h"
	.loc 9 528 0
	addi 3,30,4
	addi 4,1,8
	bl _ZNSt8_Rb_treeIPN7sigslot12_signal_baseINS0_15single_threadedEEES4_St9_IdentityIS4_ESt4lessIS4_ESaIS4_EE5eraseERKS4_
.LVL470:
.LBE2018:
.LBE2017:
.LBB2019:
.LBB2020:
.LBB2021:
	.loc 1 343 0
	lwz 9,0(30)
	mr 3,30
	lwz 0,12(9)
	mtctr 0
	bctrl
.LVL471:
.LBE2021:
.LBE2020:
.LBE2019:
.LBE2022:
.LBE2023:
	.loc 1 957 0
	lwz 3,8(31)
	cmpwi 7,3,0
	beq- 7,.L336
	lwz 9,0(3)
	lwz 0,4(9)
	mtctr 0
	bctrl
.LEHE21:
.L336:
.LVL472:
.LBB2024:
.LBB2025:
	.loc 4 234 0
	lwz 31,0(31)
.LVL473:
.LBE2025:
.LBE2024:
	.loc 1 954 0
	cmpw 7,29,31
	bne+ 7,.L372
.LBE2041:
	.loc 3 389 0
	lwz 31,4(28)
.LVL474:
.LBB2042:
.LBB2026:
.LBB2027:
	.loc 4 1162 0
	cmpw 7,29,31
	bne+ 7,.L374
	b .L334
.LVL475:
.L367:
	.loc 4 1163 0
	mr 31,30
.LVL476:
.L374:
.LBB2028:
.LBB2029:
	.file 10 "d:\\devkitpro\\devkitppc\\bin\\../lib/gcc/powerpc-eabi/4.6.3/../../../../powerpc-eabi/include/c++/4.6.3/bits/list.tcc"
	.loc 10 112 0
	lwz 30,0(31)
.LVL477:
.LBB2030:
.LBB2031:
	.loc 4 1532 0
	mr 3,31
	bl _ZNSt8__detail15_List_node_base9_M_unhookEv
.LVL478:
.LBB2032:
.LBB2033:
.LBB2034:
	.loc 6 98 0
	mr 3,31
	bl _ZdlPv
.LVL479:
.LBE2034:
.LBE2033:
.LBE2032:
.LBE2031:
.LBE2030:
.LBE2029:
.LBE2028:
	.loc 4 1162 0
	cmpw 7,29,30
	bne+ 7,.L367
.LVL480:
.L334:
.LBE2027:
.LBE2026:
.LBB2035:
.LBB2036:
.LBB2037:
	.loc 1 343 0
	lwz 9,0(28)
	mr 3,28
	lwz 0,12(9)
	mtctr 0
.LEHB22:
	bctrl
.LEHE22:
.LBE2037:
.LBE2036:
.LBE2035:
.LBE2042:
.LBE2007:
.LBB2044:
.LBB2045:
.LBB2046:
.LBB2047:
.LBB2048:
.LBB2049:
	.loc 10 70 0
	lwz 3,4(28)
.LVL481:
	.loc 10 71 0
	cmpw 7,3,29
	bne+ 7,.L376
	b .L352
.LVL482:
.L368:
	.loc 10 74 0
	mr 3,31
.LVL483:
.L376:
.LBB2050:
	lwz 31,0(3)
.LVL484:
.LBB2051:
.LBB2052:
.LBB2053:
	.loc 6 98 0
	bl _ZdlPv
.LVL485:
.LBE2053:
.LBE2052:
.LBE2051:
.LBE2050:
	.loc 10 71 0
	cmpw 7,31,29
	bne+ 7,.L368
.LVL486:
.L352:
.LBE2049:
.LBE2048:
.LBE2047:
.LBE2046:
.LBE2045:
.LBE2044:
.LBB2054:
.LBB2055:
.LBB2056:
.LBB2057:
.LBB2058:
.LBB2059:
	.loc 1 105 0
	lis 9,_ZTVN7sigslot15single_threadedE+8@ha
.LBE2059:
.LBE2058:
.LBE2057:
.LBE2056:
.LBE2055:
.LBE2054:
.LBE2090:
.LBE2095:
.LBE2100:
.LBE2105:
	.loc 1 2305 0
	lwz 29,28(1)
.LVL487:
.LBB2106:
.LBB2101:
.LBB2096:
.LBB2091:
.LBB2070:
.LBB2068:
.LBB2066:
.LBB2064:
.LBB2062:
.LBB2060:
	.loc 1 105 0
	la 0,_ZTVN7sigslot15single_threadedE+8@l(9)
.LBE2060:
.LBE2062:
.LBE2064:
.LBE2066:
.LBE2068:
.LBE2070:
.LBE2091:
.LBE2096:
.LBE2101:
.LBE2106:
	.loc 1 2305 0
	lwz 30,32(1)
.LBB2107:
.LBB2102:
.LBB2097:
.LBB2092:
.LBB2071:
.LBB2069:
.LBB2067:
.LBB2065:
.LBB2063:
.LBB2061:
	.loc 1 105 0
	stw 0,0(28)
.LBE2061:
.LBE2063:
.LBE2065:
.LBE2067:
.LBE2069:
.LBE2071:
.LBE2092:
.LBE2097:
.LBE2102:
.LBE2107:
	.loc 1 2305 0
	lwz 0,44(1)
	lwz 28,24(1)
.LVL488:
	mtlr 0
	lwz 31,36(1)
	addi 1,1,40
	.cfi_remember_state
.LCFI74:
	.cfi_def_cfa_offset 0
	.cfi_restore 31
	.cfi_restore 30
	.cfi_restore 29
	.cfi_restore 28
	blr
.LVL489:
.L370:
.LCFI75:
	.cfi_restore_state
	mr 31,3
.L344:
.LBB2108:
.LBB2103:
.LBB2098:
.LBB2093:
.LBB2072:
.LBB2073:
.LBB2074:
.LBB2075:
.LBB2076:
.LBB2077:
	.loc 10 70 0
	lwz 3,4(28)
.LVL490:
	.loc 10 71 0
	cmpw 7,3,29
	beq- 7,.L361
.LVL491:
.L377:
.LBB2078:
	.loc 10 74 0
	lwz 30,0(3)
.LVL492:
.LBB2079:
.LBB2080:
.LBB2081:
	.loc 6 98 0
	bl _ZdlPv
.LVL493:
.LBE2081:
.LBE2080:
.LBE2079:
.LBE2078:
	.loc 10 71 0
	cmpw 7,30,29
	beq- 7,.L361
	.loc 10 74 0
	mr 3,30
	b .L377
.LVL494:
.L371:
.LBE2077:
.LBE2076:
.LBE2075:
.LBE2074:
.LBE2073:
.LBE2072:
.LBB2082:
.LBB2043:
.LBB2038:
.LBB2039:
.LBB2040:
	.loc 1 343 0
	lwz 9,0(28)
	mr 31,3
.LVL495:
	mr 3,28
	lwz 0,12(9)
	mtctr 0
	bctrl
	b .L344
.LVL496:
.L361:
.LBE2040:
.LBE2039:
.LBE2038:
.LBE2043:
.LBE2082:
.LBB2083:
.LBB2084:
.LBB2085:
.LBB2086:
.LBB2087:
.LBB2088:
	.loc 1 105 0
	lis 9,_ZTVN7sigslot15single_threadedE+8@ha
	mr 3,31
	la 0,_ZTVN7sigslot15single_threadedE+8@l(9)
	stw 0,0(28)
.LEHB23:
	bl _Unwind_Resume
.LEHE23:
.LBE2088:
.LBE2087:
.LBE2086:
.LBE2085:
.LBE2084:
.LBE2083:
.LBE2093:
.LBE2098:
.LBE2103:
.LBE2108:
	.cfi_endproc
.LFE1584:
	.section	.gcc_except_table
.LLSDA1584:
	.byte	0xff
	.byte	0xff
	.byte	0x1
	.uleb128 .LLSDACSE1584-.LLSDACSB1584
.LLSDACSB1584:
	.uleb128 .LEHB20-.LFB1584
	.uleb128 .LEHE20-.LEHB20
	.uleb128 .L370-.LFB1584
	.uleb128 0
	.uleb128 .LEHB21-.LFB1584
	.uleb128 .LEHE21-.LEHB21
	.uleb128 .L371-.LFB1584
	.uleb128 0
	.uleb128 .LEHB22-.LFB1584
	.uleb128 .LEHE22-.LEHB22
	.uleb128 .L370-.LFB1584
	.uleb128 0
	.uleb128 .LEHB23-.LFB1584
	.uleb128 .LEHE23-.LEHB23
	.uleb128 0
	.uleb128 0
.LLSDACSE1584:
	.section	.text._ZN7sigslot7signal3IP10GuiElementiiNS_15single_threadedEED2Ev,"axG",@progbits,_ZN7sigslot7signal3IP10GuiElementiiNS_15single_threadedEED5Ev,comdat
	.size	_ZN7sigslot7signal3IP10GuiElementiiNS_15single_threadedEED2Ev, .-_ZN7sigslot7signal3IP10GuiElementiiNS_15single_threadedEED2Ev
	.section	.text._ZN7sigslot13_signal_base3IP10GuiElementiiNS_15single_threadedEED0Ev,"axG",@progbits,_ZN7sigslot13_signal_base3IP10GuiElementiiNS_15single_threadedEED5Ev,comdat
	.align 2
	.weak	_ZN7sigslot13_signal_base3IP10GuiElementiiNS_15single_threadedEED0Ev
	.type	_ZN7sigslot13_signal_base3IP10GuiElementiiNS_15single_threadedEED0Ev, @function
_ZN7sigslot13_signal_base3IP10GuiElementiiNS_15single_threadedEED0Ev:
.LFB1621:
	.loc 1 943 0
	.cfi_startproc
	.cfi_personality 0,__gxx_personality_v0
	.cfi_lsda 0,.LLSDA1621
.LVL497:
	mflr 0
	stwu 1,-40(1)
.LCFI76:
	.cfi_def_cfa_offset 40
	.cfi_register 65, 0
.LBB2204:
.LBB2205:
.LBB2206:
	.loc 1 946 0
	lis 9,_ZTVN7sigslot13_signal_base3IP10GuiElementiiNS_15single_threadedEEE+8@ha
.LBE2206:
.LBE2205:
.LBE2204:
	.loc 1 943 0
	stw 28,24(1)
	mr 28,3
	.cfi_offset 28, -16
.LVL498:
	stw 0,44(1)
.LBB2291:
.LBB2287:
.LBB2283:
	.loc 1 946 0
	la 0,_ZTVN7sigslot13_signal_base3IP10GuiElementiiNS_15single_threadedEEE+8@l(9)
	.cfi_offset 65, 4
.LBE2283:
.LBE2287:
.LBE2291:
	.loc 1 943 0
	stw 29,28(1)
	addi 29,3,4
	.cfi_offset 29, -12
	stw 30,32(1)
	stw 31,36(1)
.LBB2292:
.LBB2288:
.LBB2284:
	.loc 1 946 0
	stw 0,0(3)
.LVL499:
.LEHB24:
.LBB2207:
.LBB2208:
.LBB2209:
.LBB2210:
	.loc 1 338 0
	.cfi_offset 31, -4
	.cfi_offset 30, -8
	bl _ZN7sigslot15single_threaded4lockEv
.LEHE24:
.LVL500:
.LBE2210:
.LBE2209:
.LBE2208:
	.loc 3 389 0
	mr 29,28
	lwzu 31,4(29)
.LVL501:
.LBB2241:
	.loc 1 954 0
	cmpw 7,31,29
	beq- 7,.L379
.LVL502:
.L417:
	.loc 1 956 0
	lwz 3,8(31)
	lwz 9,0(3)
	lwz 0,8(9)
	mtctr 0
.LEHB25:
	bctrl
.LBB2211:
.LBB2212:
.LBB2213:
.LBB2214:
	.loc 1 338 0
	lwz 9,0(3)
.LBE2214:
.LBE2213:
.LBE2212:
.LBE2211:
	.loc 1 956 0
	mr 30,3
.LVL503:
	stw 28,8(1)
.LVL504:
.LBB2223:
.LBB2222:
.LBB2216:
.LBB2215:
	.loc 1 338 0
	lwz 0,8(9)
	mtctr 0
	bctrl
.LVL505:
.LBE2215:
.LBE2216:
.LBB2217:
.LBB2218:
	.loc 9 528 0
	addi 3,30,4
	addi 4,1,8
	bl _ZNSt8_Rb_treeIPN7sigslot12_signal_baseINS0_15single_threadedEEES4_St9_IdentityIS4_ESt4lessIS4_ESaIS4_EE5eraseERKS4_
.LVL506:
.LBE2218:
.LBE2217:
.LBB2219:
.LBB2220:
.LBB2221:
	.loc 1 343 0
	lwz 9,0(30)
	mr 3,30
	lwz 0,12(9)
	mtctr 0
	bctrl
.LVL507:
.LBE2221:
.LBE2220:
.LBE2219:
.LBE2222:
.LBE2223:
	.loc 1 957 0
	lwz 3,8(31)
	cmpwi 7,3,0
	beq- 7,.L381
	lwz 9,0(3)
	lwz 0,4(9)
	mtctr 0
	bctrl
.LEHE25:
.L381:
.LVL508:
.LBB2224:
.LBB2225:
	.loc 4 234 0
	lwz 31,0(31)
.LVL509:
.LBE2225:
.LBE2224:
	.loc 1 954 0
	cmpw 7,29,31
	bne+ 7,.L417
.LBE2241:
	.loc 3 389 0
	lwz 31,4(28)
.LVL510:
.LBB2242:
.LBB2226:
.LBB2227:
	.loc 4 1162 0
	cmpw 7,29,31
	bne+ 7,.L419
	b .L379
.LVL511:
.L412:
	.loc 4 1163 0
	mr 31,30
.LVL512:
.L419:
.LBB2228:
.LBB2229:
	.loc 10 112 0
	lwz 30,0(31)
.LVL513:
.LBB2230:
.LBB2231:
	.loc 4 1532 0
	mr 3,31
	bl _ZNSt8__detail15_List_node_base9_M_unhookEv
.LVL514:
.LBB2232:
.LBB2233:
.LBB2234:
	.loc 6 98 0
	mr 3,31
	bl _ZdlPv
.LVL515:
.LBE2234:
.LBE2233:
.LBE2232:
.LBE2231:
.LBE2230:
.LBE2229:
.LBE2228:
	.loc 4 1162 0
	cmpw 7,29,30
	bne+ 7,.L412
.LVL516:
.L379:
.LBE2227:
.LBE2226:
.LBB2235:
.LBB2236:
.LBB2237:
	.loc 1 343 0
	lwz 9,0(28)
	mr 3,28
	lwz 0,12(9)
	mtctr 0
.LEHB26:
	bctrl
.LEHE26:
.LVL517:
.LBE2237:
.LBE2236:
.LBE2235:
.LBE2242:
.LBE2207:
.LBB2244:
.LBB2245:
.LBB2246:
.LBB2247:
.LBB2248:
.LBB2249:
	.loc 10 70 0
	lwz 3,4(28)
.LVL518:
	.loc 10 71 0
	cmpw 7,3,29
	bne+ 7,.L421
	b .L397
.LVL519:
.L413:
	.loc 10 74 0
	mr 3,31
.LVL520:
.L421:
.LBB2250:
	lwz 31,0(3)
.LVL521:
.LBB2251:
.LBB2252:
.LBB2253:
	.loc 6 98 0
	bl _ZdlPv
.LVL522:
.LBE2253:
.LBE2252:
.LBE2251:
.LBE2250:
	.loc 10 71 0
	cmpw 7,31,29
	bne+ 7,.L413
.LVL523:
.L397:
.LBE2249:
.LBE2248:
.LBE2247:
.LBE2246:
.LBE2245:
.LBE2244:
.LBB2254:
.LBB2255:
.LBB2256:
.LBB2257:
.LBB2258:
.LBB2259:
	.loc 1 105 0
	lis 9,_ZTVN7sigslot15single_threadedE+8@ha
.LBE2259:
.LBE2258:
.LBE2257:
.LBE2256:
.LBE2255:
.LBE2254:
.LBE2284:
.LBE2288:
.LBE2292:
	.loc 1 946 0
	mr 3,28
.LBB2293:
.LBB2289:
.LBB2285:
.LBB2265:
.LBB2264:
.LBB2263:
.LBB2262:
.LBB2261:
.LBB2260:
	.loc 1 105 0
	la 0,_ZTVN7sigslot15single_threadedE+8@l(9)
	stw 0,0(28)
.LBE2260:
.LBE2261:
.LBE2262:
.LBE2263:
.LBE2264:
.LBE2265:
.LBE2285:
.LBE2289:
.LBE2293:
	.loc 1 946 0
	bl _ZdlPv
	lwz 0,44(1)
	lwz 28,24(1)
.LVL524:
	mtlr 0
	lwz 29,28(1)
.LVL525:
	lwz 30,32(1)
	lwz 31,36(1)
	addi 1,1,40
	.cfi_remember_state
.LCFI77:
	.cfi_def_cfa_offset 0
	.cfi_restore 31
	.cfi_restore 30
	.cfi_restore 29
	.cfi_restore 28
	blr
.LVL526:
.L415:
.LCFI78:
	.cfi_restore_state
	mr 31,3
.L389:
.LVL527:
.LBB2294:
.LBB2290:
.LBB2286:
.LBB2266:
.LBB2267:
.LBB2268:
.LBB2269:
.LBB2270:
.LBB2271:
	.loc 10 70 0
	lwz 3,4(28)
.LVL528:
	.loc 10 71 0
	cmpw 7,3,29
	beq- 7,.L406
.LVL529:
.L422:
.LBB2272:
	.loc 10 74 0
	lwz 30,0(3)
.LVL530:
.LBB2273:
.LBB2274:
.LBB2275:
	.loc 6 98 0
	bl _ZdlPv
.LVL531:
.LBE2275:
.LBE2274:
.LBE2273:
.LBE2272:
	.loc 10 71 0
	cmpw 7,30,29
	beq- 7,.L406
	.loc 10 74 0
	mr 3,30
	b .L422
.LVL532:
.L416:
.LBE2271:
.LBE2270:
.LBE2269:
.LBE2268:
.LBE2267:
.LBE2266:
.LBB2276:
.LBB2243:
.LBB2238:
.LBB2239:
.LBB2240:
	.loc 1 343 0
	lwz 9,0(28)
	mr 31,3
.LVL533:
	mr 3,28
	lwz 0,12(9)
	mtctr 0
	bctrl
	b .L389
.LVL534:
.L406:
.LBE2240:
.LBE2239:
.LBE2238:
.LBE2243:
.LBE2276:
.LBB2277:
.LBB2278:
.LBB2279:
.LBB2280:
.LBB2281:
.LBB2282:
	.loc 1 105 0
	lis 9,_ZTVN7sigslot15single_threadedE+8@ha
	mr 3,31
	la 0,_ZTVN7sigslot15single_threadedE+8@l(9)
	stw 0,0(28)
.LEHB27:
	bl _Unwind_Resume
.LEHE27:
.LBE2282:
.LBE2281:
.LBE2280:
.LBE2279:
.LBE2278:
.LBE2277:
.LBE2286:
.LBE2290:
.LBE2294:
	.cfi_endproc
.LFE1621:
	.section	.gcc_except_table
.LLSDA1621:
	.byte	0xff
	.byte	0xff
	.byte	0x1
	.uleb128 .LLSDACSE1621-.LLSDACSB1621
.LLSDACSB1621:
	.uleb128 .LEHB24-.LFB1621
	.uleb128 .LEHE24-.LEHB24
	.uleb128 .L415-.LFB1621
	.uleb128 0
	.uleb128 .LEHB25-.LFB1621
	.uleb128 .LEHE25-.LEHB25
	.uleb128 .L416-.LFB1621
	.uleb128 0
	.uleb128 .LEHB26-.LFB1621
	.uleb128 .LEHE26-.LEHB26
	.uleb128 .L415-.LFB1621
	.uleb128 0
	.uleb128 .LEHB27-.LFB1621
	.uleb128 .LEHE27-.LEHB27
	.uleb128 0
	.uleb128 0
.LLSDACSE1621:
	.section	.text._ZN7sigslot13_signal_base3IP10GuiElementiiNS_15single_threadedEED0Ev,"axG",@progbits,_ZN7sigslot13_signal_base3IP10GuiElementiiNS_15single_threadedEED5Ev,comdat
	.size	_ZN7sigslot13_signal_base3IP10GuiElementiiNS_15single_threadedEED0Ev, .-_ZN7sigslot13_signal_base3IP10GuiElementiiNS_15single_threadedEED0Ev
	.section	.text._ZN7sigslot13_signal_base3IP10GuiElementiiNS_15single_threadedEED2Ev,"axG",@progbits,_ZN7sigslot13_signal_base3IP10GuiElementiiNS_15single_threadedEED5Ev,comdat
	.align 2
	.weak	_ZN7sigslot13_signal_base3IP10GuiElementiiNS_15single_threadedEED2Ev
	.type	_ZN7sigslot13_signal_base3IP10GuiElementiiNS_15single_threadedEED2Ev, @function
_ZN7sigslot13_signal_base3IP10GuiElementiiNS_15single_threadedEED2Ev:
.LFB1619:
	.loc 1 943 0
	.cfi_startproc
	.cfi_personality 0,__gxx_personality_v0
	.cfi_lsda 0,.LLSDA1619
.LVL535:
	mflr 0
	stwu 1,-40(1)
.LCFI79:
	.cfi_def_cfa_offset 40
	.cfi_register 65, 0
.LBB2441:
	.loc 1 946 0
	lis 9,_ZTVN7sigslot13_signal_base3IP10GuiElementiiNS_15single_threadedEEE+8@ha
.LBE2441:
	.loc 1 943 0
	stw 28,24(1)
	mr 28,3
	.cfi_offset 28, -16
	stw 0,44(1)
.LBB2524:
	.loc 1 946 0
	la 0,_ZTVN7sigslot13_signal_base3IP10GuiElementiiNS_15single_threadedEEE+8@l(9)
	.cfi_offset 65, 4
.LBE2524:
	.loc 1 943 0
	stw 29,28(1)
	addi 29,3,4
	.cfi_offset 29, -12
	stw 30,32(1)
	stw 31,36(1)
.LBB2525:
	.loc 1 946 0
	stw 0,0(3)
.LVL536:
.LEHB28:
.LBB2442:
.LBB2443:
.LBB2444:
.LBB2445:
	.loc 1 338 0
	.cfi_offset 31, -4
	.cfi_offset 30, -8
	bl _ZN7sigslot15single_threaded4lockEv
.LEHE28:
.LVL537:
.LBE2445:
.LBE2444:
.LBE2443:
	.loc 3 389 0
	mr 29,28
.LVL538:
	lwzu 31,4(29)
.LVL539:
.LBB2476:
	.loc 1 954 0
	cmpw 7,31,29
	beq- 7,.L424
.LVL540:
.L461:
	.loc 1 956 0
	lwz 3,8(31)
	lwz 9,0(3)
	lwz 0,8(9)
	mtctr 0
.LEHB29:
	bctrl
.LBB2446:
.LBB2447:
.LBB2448:
.LBB2449:
	.loc 1 338 0
	lwz 9,0(3)
.LBE2449:
.LBE2448:
.LBE2447:
.LBE2446:
	.loc 1 956 0
	mr 30,3
.LVL541:
	stw 28,8(1)
.LVL542:
.LBB2458:
.LBB2457:
.LBB2451:
.LBB2450:
	.loc 1 338 0
	lwz 0,8(9)
	mtctr 0
	bctrl
.LVL543:
.LBE2450:
.LBE2451:
.LBB2452:
.LBB2453:
	.loc 9 528 0
	addi 3,30,4
	addi 4,1,8
	bl _ZNSt8_Rb_treeIPN7sigslot12_signal_baseINS0_15single_threadedEEES4_St9_IdentityIS4_ESt4lessIS4_ESaIS4_EE5eraseERKS4_
.LVL544:
.LBE2453:
.LBE2452:
.LBB2454:
.LBB2455:
.LBB2456:
	.loc 1 343 0
	lwz 9,0(30)
	mr 3,30
	lwz 0,12(9)
	mtctr 0
	bctrl
.LVL545:
.LBE2456:
.LBE2455:
.LBE2454:
.LBE2457:
.LBE2458:
	.loc 1 957 0
	lwz 3,8(31)
	cmpwi 7,3,0
	beq- 7,.L426
	lwz 9,0(3)
	lwz 0,4(9)
	mtctr 0
	bctrl
.LEHE29:
.L426:
.LVL546:
.LBB2459:
.LBB2460:
	.loc 4 234 0
	lwz 31,0(31)
.LVL547:
.LBE2460:
.LBE2459:
	.loc 1 954 0
	cmpw 7,29,31
	bne+ 7,.L461
.LBE2476:
	.loc 3 389 0
	lwz 31,4(28)
.LVL548:
.LBB2477:
.LBB2461:
.LBB2462:
	.loc 4 1162 0
	cmpw 7,29,31
	bne+ 7,.L463
	b .L424
.LVL549:
.L456:
	.loc 4 1163 0
	mr 31,30
.LVL550:
.L463:
.LBB2463:
.LBB2464:
	.loc 10 112 0
	lwz 30,0(31)
.LVL551:
.LBB2465:
.LBB2466:
	.loc 4 1532 0
	mr 3,31
	bl _ZNSt8__detail15_List_node_base9_M_unhookEv
.LVL552:
.LBB2467:
.LBB2468:
.LBB2469:
	.loc 6 98 0
	mr 3,31
	bl _ZdlPv
.LVL553:
.LBE2469:
.LBE2468:
.LBE2467:
.LBE2466:
.LBE2465:
.LBE2464:
.LBE2463:
	.loc 4 1162 0
	cmpw 7,29,30
	bne+ 7,.L456
.LVL554:
.L424:
.LBE2462:
.LBE2461:
.LBB2470:
.LBB2471:
.LBB2472:
	.loc 1 343 0
	lwz 9,0(28)
	mr 3,28
	lwz 0,12(9)
	mtctr 0
.LEHB30:
	bctrl
.LEHE30:
.LVL555:
.LBE2472:
.LBE2471:
.LBE2470:
.LBE2477:
.LBE2442:
.LBB2479:
.LBB2480:
.LBB2481:
.LBB2482:
.LBB2483:
.LBB2484:
	.loc 10 70 0
	lwz 3,4(28)
.LVL556:
	.loc 10 71 0
	cmpw 7,3,29
	bne+ 7,.L465
	b .L442
.LVL557:
.L457:
	.loc 10 74 0
	mr 3,31
.LVL558:
.L465:
.LBB2485:
	lwz 31,0(3)
.LVL559:
.LBB2486:
.LBB2487:
.LBB2488:
	.loc 6 98 0
	bl _ZdlPv
.LVL560:
.LBE2488:
.LBE2487:
.LBE2486:
.LBE2485:
	.loc 10 71 0
	cmpw 7,31,29
	bne+ 7,.L457
.LVL561:
.L442:
.LBE2484:
.LBE2483:
.LBE2482:
.LBE2481:
.LBE2480:
.LBE2479:
.LBB2489:
.LBB2490:
.LBB2491:
.LBB2492:
.LBB2493:
.LBB2494:
	.loc 1 105 0
	lis 9,_ZTVN7sigslot15single_threadedE+8@ha
.LBE2494:
.LBE2493:
.LBE2492:
.LBE2491:
.LBE2490:
.LBE2489:
.LBE2525:
	.loc 1 946 0
	lwz 29,28(1)
.LVL562:
.LBB2526:
.LBB2505:
.LBB2503:
.LBB2501:
.LBB2499:
.LBB2497:
.LBB2495:
	.loc 1 105 0
	la 0,_ZTVN7sigslot15single_threadedE+8@l(9)
.LBE2495:
.LBE2497:
.LBE2499:
.LBE2501:
.LBE2503:
.LBE2505:
.LBE2526:
	.loc 1 946 0
	lwz 30,32(1)
.LBB2527:
.LBB2506:
.LBB2504:
.LBB2502:
.LBB2500:
.LBB2498:
.LBB2496:
	.loc 1 105 0
	stw 0,0(28)
.LBE2496:
.LBE2498:
.LBE2500:
.LBE2502:
.LBE2504:
.LBE2506:
.LBE2527:
	.loc 1 946 0
	lwz 0,44(1)
	lwz 28,24(1)
.LVL563:
	mtlr 0
	lwz 31,36(1)
	addi 1,1,40
	.cfi_remember_state
.LCFI80:
	.cfi_def_cfa_offset 0
	.cfi_restore 31
	.cfi_restore 30
	.cfi_restore 29
	.cfi_restore 28
	blr
.LVL564:
.L459:
.LCFI81:
	.cfi_restore_state
	mr 31,3
.L434:
.LVL565:
.LBB2528:
.LBB2507:
.LBB2508:
.LBB2509:
.LBB2510:
.LBB2511:
.LBB2512:
	.loc 10 70 0
	lwz 3,4(28)
.LVL566:
	.loc 10 71 0
	cmpw 7,3,29
	beq- 7,.L453
.LVL567:
.L466:
.LBB2513:
	.loc 10 74 0
	lwz 30,0(3)
.LVL568:
.LBB2514:
.LBB2515:
.LBB2516:
	.loc 6 98 0
	bl _ZdlPv
.LVL569:
.LBE2516:
.LBE2515:
.LBE2514:
.LBE2513:
	.loc 10 71 0
	cmpw 7,30,29
	beq- 7,.L453
	.loc 10 74 0
	mr 3,30
	b .L466
.LVL570:
.L460:
.LBE2512:
.LBE2511:
.LBE2510:
.LBE2509:
.LBE2508:
.LBE2507:
.LBB2517:
.LBB2478:
.LBB2473:
.LBB2474:
.LBB2475:
	.loc 1 343 0
	lwz 9,0(28)
	mr 31,3
.LVL571:
	mr 3,28
	lwz 0,12(9)
	mtctr 0
	bctrl
	b .L434
.LVL572:
.L453:
.LBE2475:
.LBE2474:
.LBE2473:
.LBE2478:
.LBE2517:
.LBB2518:
.LBB2519:
.LBB2520:
.LBB2521:
.LBB2522:
.LBB2523:
	.loc 1 105 0
	lis 9,_ZTVN7sigslot15single_threadedE+8@ha
	mr 3,31
	la 0,_ZTVN7sigslot15single_threadedE+8@l(9)
	stw 0,0(28)
.LEHB31:
	bl _Unwind_Resume
.LEHE31:
.LBE2523:
.LBE2522:
.LBE2521:
.LBE2520:
.LBE2519:
.LBE2518:
.LBE2528:
	.cfi_endproc
.LFE1619:
	.section	.gcc_except_table
.LLSDA1619:
	.byte	0xff
	.byte	0xff
	.byte	0x1
	.uleb128 .LLSDACSE1619-.LLSDACSB1619
.LLSDACSB1619:
	.uleb128 .LEHB28-.LFB1619
	.uleb128 .LEHE28-.LEHB28
	.uleb128 .L459-.LFB1619
	.uleb128 0
	.uleb128 .LEHB29-.LFB1619
	.uleb128 .LEHE29-.LEHB29
	.uleb128 .L460-.LFB1619
	.uleb128 0
	.uleb128 .LEHB30-.LFB1619
	.uleb128 .LEHE30-.LEHB30
	.uleb128 .L459-.LFB1619
	.uleb128 0
	.uleb128 .LEHB31-.LFB1619
	.uleb128 .LEHE31-.LEHB31
	.uleb128 0
	.uleb128 0
.LLSDACSE1619:
	.section	.text._ZN7sigslot13_signal_base3IP10GuiElementiiNS_15single_threadedEED2Ev,"axG",@progbits,_ZN7sigslot13_signal_base3IP10GuiElementiiNS_15single_threadedEED5Ev,comdat
	.size	_ZN7sigslot13_signal_base3IP10GuiElementiiNS_15single_threadedEED2Ev, .-_ZN7sigslot13_signal_base3IP10GuiElementiiNS_15single_threadedEED2Ev
	.section	.text._ZN7sigslot7signal3IP10GuiElementiiNS_15single_threadedEED0Ev,"axG",@progbits,_ZN7sigslot7signal3IP10GuiElementiiNS_15single_threadedEED5Ev,comdat
	.align 2
	.weak	_ZN7sigslot7signal3IP10GuiElementiiNS_15single_threadedEED0Ev
	.type	_ZN7sigslot7signal3IP10GuiElementiiNS_15single_threadedEED0Ev, @function
_ZN7sigslot7signal3IP10GuiElementiiNS_15single_threadedEED0Ev:
.LFB1586:
	.loc 1 2302 0
	.cfi_startproc
	.cfi_personality 0,__gxx_personality_v0
	.cfi_lsda 0,.LLSDA1586
.LVL573:
	mflr 0
	stwu 1,-40(1)
.LCFI82:
	.cfi_def_cfa_offset 40
	.cfi_register 65, 0
.LBB2627:
.LBB2628:
.LBB2629:
.LBB2630:
.LBB2631:
.LBB2632:
	.loc 1 946 0
	lis 9,_ZTVN7sigslot13_signal_base3IP10GuiElementiiNS_15single_threadedEEE+8@ha
.LBE2632:
.LBE2631:
.LBE2630:
.LBE2629:
.LBE2628:
.LBE2627:
	.loc 1 2302 0
	stw 28,24(1)
	mr 28,3
	.cfi_offset 28, -16
.LVL574:
	stw 0,44(1)
.LBB2729:
.LBB2725:
.LBB2721:
.LBB2717:
.LBB2713:
.LBB2709:
	.loc 1 946 0
	la 0,_ZTVN7sigslot13_signal_base3IP10GuiElementiiNS_15single_threadedEEE+8@l(9)
	.cfi_offset 65, 4
.LBE2709:
.LBE2713:
.LBE2717:
.LBE2721:
.LBE2725:
.LBE2729:
	.loc 1 2302 0
	stw 29,28(1)
	addi 29,3,4
	.cfi_offset 29, -12
	stw 30,32(1)
	stw 31,36(1)
.LBB2730:
.LBB2726:
.LBB2722:
.LBB2718:
.LBB2714:
.LBB2710:
	.loc 1 946 0
	stw 0,0(3)
.LVL575:
.LEHB32:
.LBB2633:
.LBB2634:
.LBB2635:
.LBB2636:
	.loc 1 338 0
	.cfi_offset 31, -4
	.cfi_offset 30, -8
	bl _ZN7sigslot15single_threaded4lockEv
.LEHE32:
.LVL576:
.LBE2636:
.LBE2635:
.LBE2634:
	.loc 3 389 0
	mr 29,28
.LVL577:
	lwzu 31,4(29)
.LVL578:
.LBB2667:
	.loc 1 954 0
	cmpw 7,31,29
	beq- 7,.L468
.LVL579:
.L507:
	.loc 1 956 0
	lwz 3,8(31)
	lwz 9,0(3)
	lwz 0,8(9)
	mtctr 0
.LEHB33:
	bctrl
.LBB2637:
.LBB2638:
.LBB2639:
.LBB2640:
	.loc 1 338 0
	lwz 9,0(3)
.LBE2640:
.LBE2639:
.LBE2638:
.LBE2637:
	.loc 1 956 0
	mr 30,3
.LVL580:
	stw 28,8(1)
.LVL581:
.LBB2649:
.LBB2648:
.LBB2642:
.LBB2641:
	.loc 1 338 0
	lwz 0,8(9)
	mtctr 0
	bctrl
.LVL582:
.LBE2641:
.LBE2642:
.LBB2643:
.LBB2644:
	.loc 9 528 0
	addi 3,30,4
	addi 4,1,8
	bl _ZNSt8_Rb_treeIPN7sigslot12_signal_baseINS0_15single_threadedEEES4_St9_IdentityIS4_ESt4lessIS4_ESaIS4_EE5eraseERKS4_
.LVL583:
.LBE2644:
.LBE2643:
.LBB2645:
.LBB2646:
.LBB2647:
	.loc 1 343 0
	lwz 9,0(30)
	mr 3,30
	lwz 0,12(9)
	mtctr 0
	bctrl
.LVL584:
.LBE2647:
.LBE2646:
.LBE2645:
.LBE2648:
.LBE2649:
	.loc 1 957 0
	lwz 3,8(31)
	cmpwi 7,3,0
	beq- 7,.L470
	lwz 9,0(3)
	lwz 0,4(9)
	mtctr 0
	bctrl
.LEHE33:
.L470:
.LVL585:
.LBB2650:
.LBB2651:
	.loc 4 234 0
	lwz 31,0(31)
.LVL586:
.LBE2651:
.LBE2650:
	.loc 1 954 0
	cmpw 7,29,31
	bne+ 7,.L507
.LBE2667:
	.loc 3 389 0
	lwz 31,4(28)
.LVL587:
.LBB2668:
.LBB2652:
.LBB2653:
	.loc 4 1162 0
	cmpw 7,29,31
	bne+ 7,.L509
	b .L468
.LVL588:
.L502:
	.loc 4 1163 0
	mr 31,30
.LVL589:
.L509:
.LBB2654:
.LBB2655:
	.loc 10 112 0
	lwz 30,0(31)
.LVL590:
.LBB2656:
.LBB2657:
	.loc 4 1532 0
	mr 3,31
	bl _ZNSt8__detail15_List_node_base9_M_unhookEv
.LVL591:
.LBB2658:
.LBB2659:
.LBB2660:
	.loc 6 98 0
	mr 3,31
	bl _ZdlPv
.LVL592:
.LBE2660:
.LBE2659:
.LBE2658:
.LBE2657:
.LBE2656:
.LBE2655:
.LBE2654:
	.loc 4 1162 0
	cmpw 7,29,30
	bne+ 7,.L502
.LVL593:
.L468:
.LBE2653:
.LBE2652:
.LBB2661:
.LBB2662:
.LBB2663:
	.loc 1 343 0
	lwz 9,0(28)
	mr 3,28
	lwz 0,12(9)
	mtctr 0
.LEHB34:
	bctrl
.LEHE34:
.LBE2663:
.LBE2662:
.LBE2661:
.LBE2668:
.LBE2633:
.LBB2670:
.LBB2671:
.LBB2672:
.LBB2673:
.LBB2674:
.LBB2675:
	.loc 10 70 0
	lwz 3,4(28)
.LVL594:
	.loc 10 71 0
	cmpw 7,3,29
	bne+ 7,.L511
	b .L486
.LVL595:
.L503:
	.loc 10 74 0
	mr 3,31
.LVL596:
.L511:
.LBB2676:
	lwz 31,0(3)
.LVL597:
.LBB2677:
.LBB2678:
.LBB2679:
	.loc 6 98 0
	bl _ZdlPv
.LVL598:
.LBE2679:
.LBE2678:
.LBE2677:
.LBE2676:
	.loc 10 71 0
	cmpw 7,31,29
	bne+ 7,.L503
.LVL599:
.L486:
.LBE2675:
.LBE2674:
.LBE2673:
.LBE2672:
.LBE2671:
.LBE2670:
.LBB2680:
.LBB2681:
.LBB2682:
.LBB2683:
.LBB2684:
.LBB2685:
	.loc 1 105 0
	lis 9,_ZTVN7sigslot15single_threadedE+8@ha
.LBE2685:
.LBE2684:
.LBE2683:
.LBE2682:
.LBE2681:
.LBE2680:
.LBE2710:
.LBE2714:
.LBE2718:
.LBE2722:
.LBE2726:
.LBE2730:
	.loc 1 2305 0
	mr 3,28
.LBB2731:
.LBB2727:
.LBB2723:
.LBB2719:
.LBB2715:
.LBB2711:
.LBB2691:
.LBB2690:
.LBB2689:
.LBB2688:
.LBB2687:
.LBB2686:
	.loc 1 105 0
	la 0,_ZTVN7sigslot15single_threadedE+8@l(9)
	stw 0,0(28)
.LBE2686:
.LBE2687:
.LBE2688:
.LBE2689:
.LBE2690:
.LBE2691:
.LBE2711:
.LBE2715:
.LBE2719:
.LBE2723:
.LBE2727:
.LBE2731:
	.loc 1 2305 0
	bl _ZdlPv
	lwz 0,44(1)
	lwz 28,24(1)
.LVL600:
	mtlr 0
	lwz 29,28(1)
.LVL601:
	lwz 30,32(1)
	lwz 31,36(1)
	addi 1,1,40
	.cfi_remember_state
.LCFI83:
	.cfi_def_cfa_offset 0
	.cfi_restore 31
	.cfi_restore 30
	.cfi_restore 29
	.cfi_restore 28
	blr
.LVL602:
.L505:
.LCFI84:
	.cfi_restore_state
	mr 31,3
.L478:
.LBB2732:
.LBB2728:
.LBB2724:
.LBB2720:
.LBB2716:
.LBB2712:
.LBB2692:
.LBB2693:
.LBB2694:
.LBB2695:
.LBB2696:
.LBB2697:
	.loc 10 70 0
	lwz 3,4(28)
.LVL603:
	.loc 10 71 0
	cmpw 7,3,29
	beq- 7,.L495
.LVL604:
.L512:
.LBB2698:
	.loc 10 74 0
	lwz 30,0(3)
.LVL605:
.LBB2699:
.LBB2700:
.LBB2701:
	.loc 6 98 0
	bl _ZdlPv
.LVL606:
.LBE2701:
.LBE2700:
.LBE2699:
.LBE2698:
	.loc 10 71 0
	cmpw 7,30,29
	beq- 7,.L495
	.loc 10 74 0
	mr 3,30
	b .L512
.LVL607:
.L506:
.LBE2697:
.LBE2696:
.LBE2695:
.LBE2694:
.LBE2693:
.LBE2692:
.LBB2702:
.LBB2669:
.LBB2664:
.LBB2665:
.LBB2666:
	.loc 1 343 0
	lwz 9,0(28)
	mr 31,3
.LVL608:
	mr 3,28
	lwz 0,12(9)
	mtctr 0
	bctrl
	b .L478
.LVL609:
.L495:
.LBE2666:
.LBE2665:
.LBE2664:
.LBE2669:
.LBE2702:
.LBB2703:
.LBB2704:
.LBB2705:
.LBB2706:
.LBB2707:
.LBB2708:
	.loc 1 105 0
	lis 9,_ZTVN7sigslot15single_threadedE+8@ha
	mr 3,31
	la 0,_ZTVN7sigslot15single_threadedE+8@l(9)
	stw 0,0(28)
.LEHB35:
	bl _Unwind_Resume
.LEHE35:
.LBE2708:
.LBE2707:
.LBE2706:
.LBE2705:
.LBE2704:
.LBE2703:
.LBE2712:
.LBE2716:
.LBE2720:
.LBE2724:
.LBE2728:
.LBE2732:
	.cfi_endproc
.LFE1586:
	.section	.gcc_except_table
.LLSDA1586:
	.byte	0xff
	.byte	0xff
	.byte	0x1
	.uleb128 .LLSDACSE1586-.LLSDACSB1586
.LLSDACSB1586:
	.uleb128 .LEHB32-.LFB1586
	.uleb128 .LEHE32-.LEHB32
	.uleb128 .L505-.LFB1586
	.uleb128 0
	.uleb128 .LEHB33-.LFB1586
	.uleb128 .LEHE33-.LEHB33
	.uleb128 .L506-.LFB1586
	.uleb128 0
	.uleb128 .LEHB34-.LFB1586
	.uleb128 .LEHE34-.LEHB34
	.uleb128 .L505-.LFB1586
	.uleb128 0
	.uleb128 .LEHB35-.LFB1586
	.uleb128 .LEHE35-.LEHB35
	.uleb128 0
	.uleb128 0
.LLSDACSE1586:
	.section	.text._ZN7sigslot7signal3IP10GuiElementiiNS_15single_threadedEED0Ev,"axG",@progbits,_ZN7sigslot7signal3IP10GuiElementiiNS_15single_threadedEED5Ev,comdat
	.size	_ZN7sigslot7signal3IP10GuiElementiiNS_15single_threadedEED0Ev, .-_ZN7sigslot7signal3IP10GuiElementiiNS_15single_threadedEED0Ev
	.section	.text._ZN7sigslot13_signal_base2IP10GuiElementbNS_15single_threadedEED2Ev,"axG",@progbits,_ZN7sigslot13_signal_base2IP10GuiElementbNS_15single_threadedEED5Ev,comdat
	.align 2
	.weak	_ZN7sigslot13_signal_base2IP10GuiElementbNS_15single_threadedEED2Ev
	.type	_ZN7sigslot13_signal_base2IP10GuiElementbNS_15single_threadedEED2Ev, @function
_ZN7sigslot13_signal_base2IP10GuiElementbNS_15single_threadedEED2Ev:
.LFB1612:
	.loc 1 823 0
	.cfi_startproc
	.cfi_personality 0,__gxx_personality_v0
	.cfi_lsda 0,.LLSDA1612
.LVL610:
	mflr 0
	stwu 1,-40(1)
.LCFI85:
	.cfi_def_cfa_offset 40
	.cfi_register 65, 0
.LBB2879:
	.loc 1 826 0
	lis 9,_ZTVN7sigslot13_signal_base2IP10GuiElementbNS_15single_threadedEEE+8@ha
.LBE2879:
	.loc 1 823 0
	stw 28,24(1)
	mr 28,3
	.cfi_offset 28, -16
	stw 0,44(1)
.LBB2962:
	.loc 1 826 0
	la 0,_ZTVN7sigslot13_signal_base2IP10GuiElementbNS_15single_threadedEEE+8@l(9)
	.cfi_offset 65, 4
.LBE2962:
	.loc 1 823 0
	stw 29,28(1)
	addi 29,3,4
	.cfi_offset 29, -12
	stw 30,32(1)
	stw 31,36(1)
.LBB2963:
	.loc 1 826 0
	stw 0,0(3)
.LVL611:
.LEHB36:
.LBB2880:
.LBB2881:
.LBB2882:
.LBB2883:
	.loc 1 338 0
	.cfi_offset 31, -4
	.cfi_offset 30, -8
	bl _ZN7sigslot15single_threaded4lockEv
.LEHE36:
.LVL612:
.LBE2883:
.LBE2882:
.LBE2881:
	.loc 3 389 0
	mr 29,28
	lwzu 31,4(29)
.LVL613:
.LBB2914:
	.loc 1 834 0
	cmpw 7,31,29
	beq- 7,.L514
.LVL614:
.L551:
	.loc 1 836 0
	lwz 3,8(31)
	lwz 9,0(3)
	lwz 0,8(9)
	mtctr 0
.LEHB37:
	bctrl
.LBB2884:
.LBB2885:
.LBB2886:
.LBB2887:
	.loc 1 338 0
	lwz 9,0(3)
.LBE2887:
.LBE2886:
.LBE2885:
.LBE2884:
	.loc 1 836 0
	mr 30,3
.LVL615:
	stw 28,8(1)
.LVL616:
.LBB2896:
.LBB2895:
.LBB2889:
.LBB2888:
	.loc 1 338 0
	lwz 0,8(9)
	mtctr 0
	bctrl
.LVL617:
.LBE2888:
.LBE2889:
.LBB2890:
.LBB2891:
	.loc 9 528 0
	addi 3,30,4
	addi 4,1,8
	bl _ZNSt8_Rb_treeIPN7sigslot12_signal_baseINS0_15single_threadedEEES4_St9_IdentityIS4_ESt4lessIS4_ESaIS4_EE5eraseERKS4_
.LVL618:
.LBE2891:
.LBE2890:
.LBB2892:
.LBB2893:
.LBB2894:
	.loc 1 343 0
	lwz 9,0(30)
	mr 3,30
	lwz 0,12(9)
	mtctr 0
	bctrl
.LVL619:
.LBE2894:
.LBE2893:
.LBE2892:
.LBE2895:
.LBE2896:
	.loc 1 837 0
	lwz 3,8(31)
	cmpwi 7,3,0
	beq- 7,.L516
	lwz 9,0(3)
	lwz 0,4(9)
	mtctr 0
	bctrl
.LEHE37:
.L516:
.LVL620:
.LBB2897:
.LBB2898:
	.loc 4 234 0
	lwz 31,0(31)
.LVL621:
.LBE2898:
.LBE2897:
	.loc 1 834 0
	cmpw 7,29,31
	bne+ 7,.L551
.LBE2914:
	.loc 3 389 0
	lwz 31,4(28)
.LVL622:
.LBB2915:
.LBB2899:
.LBB2900:
	.loc 4 1162 0
	cmpw 7,29,31
	bne+ 7,.L553
	b .L514
.LVL623:
.L546:
	.loc 4 1163 0
	mr 31,30
.LVL624:
.L553:
.LBB2901:
.LBB2902:
	.loc 10 112 0
	lwz 30,0(31)
.LVL625:
.LBB2903:
.LBB2904:
	.loc 4 1532 0
	mr 3,31
	bl _ZNSt8__detail15_List_node_base9_M_unhookEv
.LVL626:
.LBB2905:
.LBB2906:
.LBB2907:
	.loc 6 98 0
	mr 3,31
	bl _ZdlPv
.LVL627:
.LBE2907:
.LBE2906:
.LBE2905:
.LBE2904:
.LBE2903:
.LBE2902:
.LBE2901:
	.loc 4 1162 0
	cmpw 7,29,30
	bne+ 7,.L546
.LVL628:
.L514:
.LBE2900:
.LBE2899:
.LBB2908:
.LBB2909:
.LBB2910:
	.loc 1 343 0
	lwz 9,0(28)
	mr 3,28
	lwz 0,12(9)
	mtctr 0
.LEHB38:
	bctrl
.LEHE38:
.LVL629:
.LBE2910:
.LBE2909:
.LBE2908:
.LBE2915:
.LBE2880:
.LBB2917:
.LBB2918:
.LBB2919:
.LBB2920:
.LBB2921:
.LBB2922:
	.loc 10 70 0
	lwz 3,4(28)
.LVL630:
	.loc 10 71 0
	cmpw 7,3,29
	bne+ 7,.L555
	b .L532
.LVL631:
.L547:
	.loc 10 74 0
	mr 3,31
.LVL632:
.L555:
.LBB2923:
	lwz 31,0(3)
.LVL633:
.LBB2924:
.LBB2925:
.LBB2926:
	.loc 6 98 0
	bl _ZdlPv
.LVL634:
.LBE2926:
.LBE2925:
.LBE2924:
.LBE2923:
	.loc 10 71 0
	cmpw 7,31,29
	bne+ 7,.L547
.LVL635:
.L532:
.LBE2922:
.LBE2921:
.LBE2920:
.LBE2919:
.LBE2918:
.LBE2917:
.LBB2927:
.LBB2928:
.LBB2929:
.LBB2930:
.LBB2931:
.LBB2932:
	.loc 1 105 0
	lis 9,_ZTVN7sigslot15single_threadedE+8@ha
.LBE2932:
.LBE2931:
.LBE2930:
.LBE2929:
.LBE2928:
.LBE2927:
.LBE2963:
	.loc 1 826 0
	lwz 29,28(1)
.LVL636:
.LBB2964:
.LBB2943:
.LBB2941:
.LBB2939:
.LBB2937:
.LBB2935:
.LBB2933:
	.loc 1 105 0
	la 0,_ZTVN7sigslot15single_threadedE+8@l(9)
.LBE2933:
.LBE2935:
.LBE2937:
.LBE2939:
.LBE2941:
.LBE2943:
.LBE2964:
	.loc 1 826 0
	lwz 30,32(1)
.LBB2965:
.LBB2944:
.LBB2942:
.LBB2940:
.LBB2938:
.LBB2936:
.LBB2934:
	.loc 1 105 0
	stw 0,0(28)
.LBE2934:
.LBE2936:
.LBE2938:
.LBE2940:
.LBE2942:
.LBE2944:
.LBE2965:
	.loc 1 826 0
	lwz 0,44(1)
	lwz 28,24(1)
.LVL637:
	mtlr 0
	lwz 31,36(1)
	addi 1,1,40
	.cfi_remember_state
.LCFI86:
	.cfi_def_cfa_offset 0
	.cfi_restore 31
	.cfi_restore 30
	.cfi_restore 29
	.cfi_restore 28
	blr
.LVL638:
.L549:
.LCFI87:
	.cfi_restore_state
	mr 31,3
.L524:
.LVL639:
.LBB2966:
.LBB2945:
.LBB2946:
.LBB2947:
.LBB2948:
.LBB2949:
.LBB2950:
	.loc 10 70 0
	lwz 3,4(28)
.LVL640:
	.loc 10 71 0
	cmpw 7,3,29
	beq- 7,.L543
.LVL641:
.L556:
.LBB2951:
	.loc 10 74 0
	lwz 30,0(3)
.LVL642:
.LBB2952:
.LBB2953:
.LBB2954:
	.loc 6 98 0
	bl _ZdlPv
.LVL643:
.LBE2954:
.LBE2953:
.LBE2952:
.LBE2951:
	.loc 10 71 0
	cmpw 7,30,29
	beq- 7,.L543
	.loc 10 74 0
	mr 3,30
	b .L556
.LVL644:
.L550:
.LBE2950:
.LBE2949:
.LBE2948:
.LBE2947:
.LBE2946:
.LBE2945:
.LBB2955:
.LBB2916:
.LBB2911:
.LBB2912:
.LBB2913:
	.loc 1 343 0
	lwz 9,0(28)
	mr 31,3
.LVL645:
	mr 3,28
	lwz 0,12(9)
	mtctr 0
	bctrl
	b .L524
.LVL646:
.L543:
.LBE2913:
.LBE2912:
.LBE2911:
.LBE2916:
.LBE2955:
.LBB2956:
.LBB2957:
.LBB2958:
.LBB2959:
.LBB2960:
.LBB2961:
	.loc 1 105 0
	lis 9,_ZTVN7sigslot15single_threadedE+8@ha
	mr 3,31
	la 0,_ZTVN7sigslot15single_threadedE+8@l(9)
	stw 0,0(28)
.LEHB39:
	bl _Unwind_Resume
.LEHE39:
.LBE2961:
.LBE2960:
.LBE2959:
.LBE2958:
.LBE2957:
.LBE2956:
.LBE2966:
	.cfi_endproc
.LFE1612:
	.section	.gcc_except_table
.LLSDA1612:
	.byte	0xff
	.byte	0xff
	.byte	0x1
	.uleb128 .LLSDACSE1612-.LLSDACSB1612
.LLSDACSB1612:
	.uleb128 .LEHB36-.LFB1612
	.uleb128 .LEHE36-.LEHB36
	.uleb128 .L549-.LFB1612
	.uleb128 0
	.uleb128 .LEHB37-.LFB1612
	.uleb128 .LEHE37-.LEHB37
	.uleb128 .L550-.LFB1612
	.uleb128 0
	.uleb128 .LEHB38-.LFB1612
	.uleb128 .LEHE38-.LEHB38
	.uleb128 .L549-.LFB1612
	.uleb128 0
	.uleb128 .LEHB39-.LFB1612
	.uleb128 .LEHE39-.LEHB39
	.uleb128 0
	.uleb128 0
.LLSDACSE1612:
	.section	.text._ZN7sigslot13_signal_base2IP10GuiElementbNS_15single_threadedEED2Ev,"axG",@progbits,_ZN7sigslot13_signal_base2IP10GuiElementbNS_15single_threadedEED5Ev,comdat
	.size	_ZN7sigslot13_signal_base2IP10GuiElementbNS_15single_threadedEED2Ev, .-_ZN7sigslot13_signal_base2IP10GuiElementbNS_15single_threadedEED2Ev
	.section	.text._ZN7sigslot13_signal_base2IP10GuiElementbNS_15single_threadedEED0Ev,"axG",@progbits,_ZN7sigslot13_signal_base2IP10GuiElementbNS_15single_threadedEED5Ev,comdat
	.align 2
	.weak	_ZN7sigslot13_signal_base2IP10GuiElementbNS_15single_threadedEED0Ev
	.type	_ZN7sigslot13_signal_base2IP10GuiElementbNS_15single_threadedEED0Ev, @function
_ZN7sigslot13_signal_base2IP10GuiElementbNS_15single_threadedEED0Ev:
.LFB1614:
	.loc 1 823 0
	.cfi_startproc
	.cfi_personality 0,__gxx_personality_v0
	.cfi_lsda 0,.LLSDA1614
.LVL647:
	mflr 0
	stwu 1,-40(1)
.LCFI88:
	.cfi_def_cfa_offset 40
	.cfi_register 65, 0
.LBB3062:
.LBB3063:
.LBB3064:
	.loc 1 826 0
	lis 9,_ZTVN7sigslot13_signal_base2IP10GuiElementbNS_15single_threadedEEE+8@ha
.LBE3064:
.LBE3063:
.LBE3062:
	.loc 1 823 0
	stw 28,24(1)
	mr 28,3
	.cfi_offset 28, -16
.LVL648:
	stw 0,44(1)
.LBB3149:
.LBB3145:
.LBB3141:
	.loc 1 826 0
	la 0,_ZTVN7sigslot13_signal_base2IP10GuiElementbNS_15single_threadedEEE+8@l(9)
	.cfi_offset 65, 4
.LBE3141:
.LBE3145:
.LBE3149:
	.loc 1 823 0
	stw 29,28(1)
	addi 29,3,4
	.cfi_offset 29, -12
	stw 30,32(1)
	stw 31,36(1)
.LBB3150:
.LBB3146:
.LBB3142:
	.loc 1 826 0
	stw 0,0(3)
.LVL649:
.LEHB40:
.LBB3065:
.LBB3066:
.LBB3067:
.LBB3068:
	.loc 1 338 0
	.cfi_offset 31, -4
	.cfi_offset 30, -8
	bl _ZN7sigslot15single_threaded4lockEv
.LEHE40:
.LVL650:
.LBE3068:
.LBE3067:
.LBE3066:
	.loc 3 389 0
	mr 29,28
.LVL651:
	lwzu 31,4(29)
.LVL652:
.LBB3099:
	.loc 1 834 0
	cmpw 7,31,29
	beq- 7,.L558
.LVL653:
.L596:
	.loc 1 836 0
	lwz 3,8(31)
	lwz 9,0(3)
	lwz 0,8(9)
	mtctr 0
.LEHB41:
	bctrl
.LBB3069:
.LBB3070:
.LBB3071:
.LBB3072:
	.loc 1 338 0
	lwz 9,0(3)
.LBE3072:
.LBE3071:
.LBE3070:
.LBE3069:
	.loc 1 836 0
	mr 30,3
.LVL654:
	stw 28,8(1)
.LVL655:
.LBB3081:
.LBB3080:
.LBB3074:
.LBB3073:
	.loc 1 338 0
	lwz 0,8(9)
	mtctr 0
	bctrl
.LVL656:
.LBE3073:
.LBE3074:
.LBB3075:
.LBB3076:
	.loc 9 528 0
	addi 3,30,4
	addi 4,1,8
	bl _ZNSt8_Rb_treeIPN7sigslot12_signal_baseINS0_15single_threadedEEES4_St9_IdentityIS4_ESt4lessIS4_ESaIS4_EE5eraseERKS4_
.LVL657:
.LBE3076:
.LBE3075:
.LBB3077:
.LBB3078:
.LBB3079:
	.loc 1 343 0
	lwz 9,0(30)
	mr 3,30
	lwz 0,12(9)
	mtctr 0
	bctrl
.LVL658:
.LBE3079:
.LBE3078:
.LBE3077:
.LBE3080:
.LBE3081:
	.loc 1 837 0
	lwz 3,8(31)
	cmpwi 7,3,0
	beq- 7,.L560
	lwz 9,0(3)
	lwz 0,4(9)
	mtctr 0
	bctrl
.LEHE41:
.L560:
.LVL659:
.LBB3082:
.LBB3083:
	.loc 4 234 0
	lwz 31,0(31)
.LVL660:
.LBE3083:
.LBE3082:
	.loc 1 834 0
	cmpw 7,29,31
	bne+ 7,.L596
.LBE3099:
	.loc 3 389 0
	lwz 31,4(28)
.LVL661:
.LBB3100:
.LBB3084:
.LBB3085:
	.loc 4 1162 0
	cmpw 7,29,31
	bne+ 7,.L598
	b .L558
.LVL662:
.L591:
	.loc 4 1163 0
	mr 31,30
.LVL663:
.L598:
.LBB3086:
.LBB3087:
	.loc 10 112 0
	lwz 30,0(31)
.LVL664:
.LBB3088:
.LBB3089:
	.loc 4 1532 0
	mr 3,31
	bl _ZNSt8__detail15_List_node_base9_M_unhookEv
.LVL665:
.LBB3090:
.LBB3091:
.LBB3092:
	.loc 6 98 0
	mr 3,31
	bl _ZdlPv
.LVL666:
.LBE3092:
.LBE3091:
.LBE3090:
.LBE3089:
.LBE3088:
.LBE3087:
.LBE3086:
	.loc 4 1162 0
	cmpw 7,29,30
	bne+ 7,.L591
.LVL667:
.L558:
.LBE3085:
.LBE3084:
.LBB3093:
.LBB3094:
.LBB3095:
	.loc 1 343 0
	lwz 9,0(28)
	mr 3,28
	lwz 0,12(9)
	mtctr 0
.LEHB42:
	bctrl
.LEHE42:
.LVL668:
.LBE3095:
.LBE3094:
.LBE3093:
.LBE3100:
.LBE3065:
.LBB3102:
.LBB3103:
.LBB3104:
.LBB3105:
.LBB3106:
.LBB3107:
	.loc 10 70 0
	lwz 3,4(28)
.LVL669:
	.loc 10 71 0
	cmpw 7,3,29
	bne+ 7,.L600
	b .L576
.LVL670:
.L592:
	.loc 10 74 0
	mr 3,31
.LVL671:
.L600:
.LBB3108:
	lwz 31,0(3)
.LVL672:
.LBB3109:
.LBB3110:
.LBB3111:
	.loc 6 98 0
	bl _ZdlPv
.LVL673:
.LBE3111:
.LBE3110:
.LBE3109:
.LBE3108:
	.loc 10 71 0
	cmpw 7,31,29
	bne+ 7,.L592
.LVL674:
.L576:
.LBE3107:
.LBE3106:
.LBE3105:
.LBE3104:
.LBE3103:
.LBE3102:
.LBB3112:
.LBB3113:
.LBB3114:
.LBB3115:
.LBB3116:
.LBB3117:
	.loc 1 105 0
	lis 9,_ZTVN7sigslot15single_threadedE+8@ha
.LBE3117:
.LBE3116:
.LBE3115:
.LBE3114:
.LBE3113:
.LBE3112:
.LBE3142:
.LBE3146:
.LBE3150:
	.loc 1 826 0
	mr 3,28
.LBB3151:
.LBB3147:
.LBB3143:
.LBB3123:
.LBB3122:
.LBB3121:
.LBB3120:
.LBB3119:
.LBB3118:
	.loc 1 105 0
	la 0,_ZTVN7sigslot15single_threadedE+8@l(9)
	stw 0,0(28)
.LBE3118:
.LBE3119:
.LBE3120:
.LBE3121:
.LBE3122:
.LBE3123:
.LBE3143:
.LBE3147:
.LBE3151:
	.loc 1 826 0
	bl _ZdlPv
	lwz 0,44(1)
	lwz 28,24(1)
.LVL675:
	mtlr 0
	lwz 29,28(1)
.LVL676:
	lwz 30,32(1)
	lwz 31,36(1)
	addi 1,1,40
	.cfi_remember_state
.LCFI89:
	.cfi_def_cfa_offset 0
	.cfi_restore 31
	.cfi_restore 30
	.cfi_restore 29
	.cfi_restore 28
	blr
.LVL677:
.L594:
.LCFI90:
	.cfi_restore_state
	mr 31,3
.L568:
.LVL678:
.LBB3152:
.LBB3148:
.LBB3144:
.LBB3124:
.LBB3125:
.LBB3126:
.LBB3127:
.LBB3128:
.LBB3129:
	.loc 10 70 0
	lwz 3,4(28)
.LVL679:
	.loc 10 71 0
	cmpw 7,3,29
	beq- 7,.L585
.LVL680:
.L601:
.LBB3130:
	.loc 10 74 0
	lwz 30,0(3)
.LVL681:
.LBB3131:
.LBB3132:
.LBB3133:
	.loc 6 98 0
	bl _ZdlPv
.LVL682:
.LBE3133:
.LBE3132:
.LBE3131:
.LBE3130:
	.loc 10 71 0
	cmpw 7,30,29
	beq- 7,.L585
	.loc 10 74 0
	mr 3,30
	b .L601
.LVL683:
.L595:
.LBE3129:
.LBE3128:
.LBE3127:
.LBE3126:
.LBE3125:
.LBE3124:
.LBB3134:
.LBB3101:
.LBB3096:
.LBB3097:
.LBB3098:
	.loc 1 343 0
	lwz 9,0(28)
	mr 31,3
.LVL684:
	mr 3,28
	lwz 0,12(9)
	mtctr 0
	bctrl
	b .L568
.LVL685:
.L585:
.LBE3098:
.LBE3097:
.LBE3096:
.LBE3101:
.LBE3134:
.LBB3135:
.LBB3136:
.LBB3137:
.LBB3138:
.LBB3139:
.LBB3140:
	.loc 1 105 0
	lis 9,_ZTVN7sigslot15single_threadedE+8@ha
	mr 3,31
	la 0,_ZTVN7sigslot15single_threadedE+8@l(9)
	stw 0,0(28)
.LEHB43:
	bl _Unwind_Resume
.LEHE43:
.LBE3140:
.LBE3139:
.LBE3138:
.LBE3137:
.LBE3136:
.LBE3135:
.LBE3144:
.LBE3148:
.LBE3152:
	.cfi_endproc
.LFE1614:
	.section	.gcc_except_table
.LLSDA1614:
	.byte	0xff
	.byte	0xff
	.byte	0x1
	.uleb128 .LLSDACSE1614-.LLSDACSB1614
.LLSDACSB1614:
	.uleb128 .LEHB40-.LFB1614
	.uleb128 .LEHE40-.LEHB40
	.uleb128 .L594-.LFB1614
	.uleb128 0
	.uleb128 .LEHB41-.LFB1614
	.uleb128 .LEHE41-.LEHB41
	.uleb128 .L595-.LFB1614
	.uleb128 0
	.uleb128 .LEHB42-.LFB1614
	.uleb128 .LEHE42-.LEHB42
	.uleb128 .L594-.LFB1614
	.uleb128 0
	.uleb128 .LEHB43-.LFB1614
	.uleb128 .LEHE43-.LEHB43
	.uleb128 0
	.uleb128 0
.LLSDACSE1614:
	.section	.text._ZN7sigslot13_signal_base2IP10GuiElementbNS_15single_threadedEED0Ev,"axG",@progbits,_ZN7sigslot13_signal_base2IP10GuiElementbNS_15single_threadedEED5Ev,comdat
	.size	_ZN7sigslot13_signal_base2IP10GuiElementbNS_15single_threadedEED0Ev, .-_ZN7sigslot13_signal_base2IP10GuiElementbNS_15single_threadedEED0Ev
	.section	.text._ZN7sigslot7signal2IP10GuiElementbNS_15single_threadedEED2Ev,"axG",@progbits,_ZN7sigslot7signal2IP10GuiElementbNS_15single_threadedEED5Ev,comdat
	.align 2
	.weak	_ZN7sigslot7signal2IP10GuiElementbNS_15single_threadedEED2Ev
	.type	_ZN7sigslot7signal2IP10GuiElementbNS_15single_threadedEED2Ev, @function
_ZN7sigslot7signal2IP10GuiElementbNS_15single_threadedEED2Ev:
.LFB1580:
	.loc 1 2235 0
	.cfi_startproc
	.cfi_personality 0,__gxx_personality_v0
	.cfi_lsda 0,.LLSDA1580
.LVL686:
	mflr 0
	stwu 1,-40(1)
.LCFI91:
	.cfi_def_cfa_offset 40
	.cfi_register 65, 0
.LBB3250:
.LBB3251:
.LBB3252:
.LBB3253:
	.loc 1 826 0
	lis 9,_ZTVN7sigslot13_signal_base2IP10GuiElementbNS_15single_threadedEEE+8@ha
.LBE3253:
.LBE3252:
.LBE3251:
.LBE3250:
	.loc 1 2235 0
	stw 28,24(1)
	mr 28,3
	.cfi_offset 28, -16
.LVL687:
	stw 0,44(1)
.LBB3351:
.LBB3346:
.LBB3341:
.LBB3336:
	.loc 1 826 0
	la 0,_ZTVN7sigslot13_signal_base2IP10GuiElementbNS_15single_threadedEEE+8@l(9)
	.cfi_offset 65, 4
.LBE3336:
.LBE3341:
.LBE3346:
.LBE3351:
	.loc 1 2235 0
	stw 29,28(1)
	addi 29,3,4
	.cfi_offset 29, -12
	stw 30,32(1)
	stw 31,36(1)
.LBB3352:
.LBB3347:
.LBB3342:
.LBB3337:
	.loc 1 826 0
	stw 0,0(3)
.LVL688:
.LEHB44:
.LBB3254:
.LBB3255:
.LBB3256:
.LBB3257:
	.loc 1 338 0
	.cfi_offset 31, -4
	.cfi_offset 30, -8
	bl _ZN7sigslot15single_threaded4lockEv
.LEHE44:
.LVL689:
.LBE3257:
.LBE3256:
.LBE3255:
	.loc 3 389 0
	mr 29,28
.LVL690:
	lwzu 31,4(29)
.LVL691:
.LBB3288:
	.loc 1 834 0
	cmpw 7,31,29
	beq- 7,.L603
.LVL692:
.L641:
	.loc 1 836 0
	lwz 3,8(31)
	lwz 9,0(3)
	lwz 0,8(9)
	mtctr 0
.LEHB45:
	bctrl
.LBB3258:
.LBB3259:
.LBB3260:
.LBB3261:
	.loc 1 338 0
	lwz 9,0(3)
.LBE3261:
.LBE3260:
.LBE3259:
.LBE3258:
	.loc 1 836 0
	mr 30,3
.LVL693:
	stw 28,8(1)
.LVL694:
.LBB3270:
.LBB3269:
.LBB3263:
.LBB3262:
	.loc 1 338 0
	lwz 0,8(9)
	mtctr 0
	bctrl
.LVL695:
.LBE3262:
.LBE3263:
.LBB3264:
.LBB3265:
	.loc 9 528 0
	addi 3,30,4
	addi 4,1,8
	bl _ZNSt8_Rb_treeIPN7sigslot12_signal_baseINS0_15single_threadedEEES4_St9_IdentityIS4_ESt4lessIS4_ESaIS4_EE5eraseERKS4_
.LVL696:
.LBE3265:
.LBE3264:
.LBB3266:
.LBB3267:
.LBB3268:
	.loc 1 343 0
	lwz 9,0(30)
	mr 3,30
	lwz 0,12(9)
	mtctr 0
	bctrl
.LVL697:
.LBE3268:
.LBE3267:
.LBE3266:
.LBE3269:
.LBE3270:
	.loc 1 837 0
	lwz 3,8(31)
	cmpwi 7,3,0
	beq- 7,.L605
	lwz 9,0(3)
	lwz 0,4(9)
	mtctr 0
	bctrl
.LEHE45:
.L605:
.LVL698:
.LBB3271:
.LBB3272:
	.loc 4 234 0
	lwz 31,0(31)
.LVL699:
.LBE3272:
.LBE3271:
	.loc 1 834 0
	cmpw 7,29,31
	bne+ 7,.L641
.LBE3288:
	.loc 3 389 0
	lwz 31,4(28)
.LVL700:
.LBB3289:
.LBB3273:
.LBB3274:
	.loc 4 1162 0
	cmpw 7,29,31
	bne+ 7,.L643
	b .L603
.LVL701:
.L636:
	.loc 4 1163 0
	mr 31,30
.LVL702:
.L643:
.LBB3275:
.LBB3276:
	.loc 10 112 0
	lwz 30,0(31)
.LVL703:
.LBB3277:
.LBB3278:
	.loc 4 1532 0
	mr 3,31
	bl _ZNSt8__detail15_List_node_base9_M_unhookEv
.LVL704:
.LBB3279:
.LBB3280:
.LBB3281:
	.loc 6 98 0
	mr 3,31
	bl _ZdlPv
.LVL705:
.LBE3281:
.LBE3280:
.LBE3279:
.LBE3278:
.LBE3277:
.LBE3276:
.LBE3275:
	.loc 4 1162 0
	cmpw 7,29,30
	bne+ 7,.L636
.LVL706:
.L603:
.LBE3274:
.LBE3273:
.LBB3282:
.LBB3283:
.LBB3284:
	.loc 1 343 0
	lwz 9,0(28)
	mr 3,28
	lwz 0,12(9)
	mtctr 0
.LEHB46:
	bctrl
.LEHE46:
.LBE3284:
.LBE3283:
.LBE3282:
.LBE3289:
.LBE3254:
.LBB3291:
.LBB3292:
.LBB3293:
.LBB3294:
.LBB3295:
.LBB3296:
	.loc 10 70 0
	lwz 3,4(28)
.LVL707:
	.loc 10 71 0
	cmpw 7,3,29
	bne+ 7,.L645
	b .L621
.LVL708:
.L637:
	.loc 10 74 0
	mr 3,31
.LVL709:
.L645:
.LBB3297:
	lwz 31,0(3)
.LVL710:
.LBB3298:
.LBB3299:
.LBB3300:
	.loc 6 98 0
	bl _ZdlPv
.LVL711:
.LBE3300:
.LBE3299:
.LBE3298:
.LBE3297:
	.loc 10 71 0
	cmpw 7,31,29
	bne+ 7,.L637
.LVL712:
.L621:
.LBE3296:
.LBE3295:
.LBE3294:
.LBE3293:
.LBE3292:
.LBE3291:
.LBB3301:
.LBB3302:
.LBB3303:
.LBB3304:
.LBB3305:
.LBB3306:
	.loc 1 105 0
	lis 9,_ZTVN7sigslot15single_threadedE+8@ha
.LBE3306:
.LBE3305:
.LBE3304:
.LBE3303:
.LBE3302:
.LBE3301:
.LBE3337:
.LBE3342:
.LBE3347:
.LBE3352:
	.loc 1 2238 0
	lwz 29,28(1)
.LVL713:
.LBB3353:
.LBB3348:
.LBB3343:
.LBB3338:
.LBB3317:
.LBB3315:
.LBB3313:
.LBB3311:
.LBB3309:
.LBB3307:
	.loc 1 105 0
	la 0,_ZTVN7sigslot15single_threadedE+8@l(9)
.LBE3307:
.LBE3309:
.LBE3311:
.LBE3313:
.LBE3315:
.LBE3317:
.LBE3338:
.LBE3343:
.LBE3348:
.LBE3353:
	.loc 1 2238 0
	lwz 30,32(1)
.LBB3354:
.LBB3349:
.LBB3344:
.LBB3339:
.LBB3318:
.LBB3316:
.LBB3314:
.LBB3312:
.LBB3310:
.LBB3308:
	.loc 1 105 0
	stw 0,0(28)
.LBE3308:
.LBE3310:
.LBE3312:
.LBE3314:
.LBE3316:
.LBE3318:
.LBE3339:
.LBE3344:
.LBE3349:
.LBE3354:
	.loc 1 2238 0
	lwz 0,44(1)
	lwz 28,24(1)
.LVL714:
	mtlr 0
	lwz 31,36(1)
	addi 1,1,40
	.cfi_remember_state
.LCFI92:
	.cfi_def_cfa_offset 0
	.cfi_restore 31
	.cfi_restore 30
	.cfi_restore 29
	.cfi_restore 28
	blr
.LVL715:
.L639:
.LCFI93:
	.cfi_restore_state
	mr 31,3
.L613:
.LBB3355:
.LBB3350:
.LBB3345:
.LBB3340:
.LBB3319:
.LBB3320:
.LBB3321:
.LBB3322:
.LBB3323:
.LBB3324:
	.loc 10 70 0
	lwz 3,4(28)
.LVL716:
	.loc 10 71 0
	cmpw 7,3,29
	beq- 7,.L630
.LVL717:
.L646:
.LBB3325:
	.loc 10 74 0
	lwz 30,0(3)
.LVL718:
.LBB3326:
.LBB3327:
.LBB3328:
	.loc 6 98 0
	bl _ZdlPv
.LVL719:
.LBE3328:
.LBE3327:
.LBE3326:
.LBE3325:
	.loc 10 71 0
	cmpw 7,30,29
	beq- 7,.L630
	.loc 10 74 0
	mr 3,30
	b .L646
.LVL720:
.L640:
.LBE3324:
.LBE3323:
.LBE3322:
.LBE3321:
.LBE3320:
.LBE3319:
.LBB3329:
.LBB3290:
.LBB3285:
.LBB3286:
.LBB3287:
	.loc 1 343 0
	lwz 9,0(28)
	mr 31,3
.LVL721:
	mr 3,28
	lwz 0,12(9)
	mtctr 0
	bctrl
	b .L613
.LVL722:
.L630:
.LBE3287:
.LBE3286:
.LBE3285:
.LBE3290:
.LBE3329:
.LBB3330:
.LBB3331:
.LBB3332:
.LBB3333:
.LBB3334:
.LBB3335:
	.loc 1 105 0
	lis 9,_ZTVN7sigslot15single_threadedE+8@ha
	mr 3,31
	la 0,_ZTVN7sigslot15single_threadedE+8@l(9)
	stw 0,0(28)
.LEHB47:
	bl _Unwind_Resume
.LEHE47:
.LBE3335:
.LBE3334:
.LBE3333:
.LBE3332:
.LBE3331:
.LBE3330:
.LBE3340:
.LBE3345:
.LBE3350:
.LBE3355:
	.cfi_endproc
.LFE1580:
	.section	.gcc_except_table
.LLSDA1580:
	.byte	0xff
	.byte	0xff
	.byte	0x1
	.uleb128 .LLSDACSE1580-.LLSDACSB1580
.LLSDACSB1580:
	.uleb128 .LEHB44-.LFB1580
	.uleb128 .LEHE44-.LEHB44
	.uleb128 .L639-.LFB1580
	.uleb128 0
	.uleb128 .LEHB45-.LFB1580
	.uleb128 .LEHE45-.LEHB45
	.uleb128 .L640-.LFB1580
	.uleb128 0
	.uleb128 .LEHB46-.LFB1580
	.uleb128 .LEHE46-.LEHB46
	.uleb128 .L639-.LFB1580
	.uleb128 0
	.uleb128 .LEHB47-.LFB1580
	.uleb128 .LEHE47-.LEHB47
	.uleb128 0
	.uleb128 0
.LLSDACSE1580:
	.section	.text._ZN7sigslot7signal2IP10GuiElementbNS_15single_threadedEED2Ev,"axG",@progbits,_ZN7sigslot7signal2IP10GuiElementbNS_15single_threadedEED5Ev,comdat
	.size	_ZN7sigslot7signal2IP10GuiElementbNS_15single_threadedEED2Ev, .-_ZN7sigslot7signal2IP10GuiElementbNS_15single_threadedEED2Ev
	.section	.text._ZN10GuiElementD2Ev,"axG",@progbits,_ZN10GuiElementD5Ev,comdat
	.align 2
	.weak	_ZN10GuiElementD2Ev
	.type	_ZN10GuiElementD2Ev, @function
_ZN10GuiElementD2Ev:
.LFB1381:
	.loc 2 89 0
	.cfi_startproc
	.cfi_personality 0,__gxx_personality_v0
	.cfi_lsda 0,.LLSDA1381
.LVL723:
	mflr 0
	stwu 1,-48(1)
.LCFI94:
	.cfi_def_cfa_offset 48
	.cfi_register 65, 0
.LBB3558:
	lis 9,_ZTV10GuiElement+8@ha
.LBE3558:
	stw 27,28(1)
.LBB3820:
.LBB3559:
.LBB3560:
.LBB3561:
	.loc 1 2305 0
	addi 27,3,16
	.cfi_offset 27, -20
.LBE3561:
.LBE3560:
.LBE3559:
.LBE3820:
	.loc 2 89 0
	stw 0,52(1)
.LBB3821:
	la 0,_ZTV10GuiElement+8@l(9)
	.cfi_offset 65, 4
.LBB3695:
.LBB3686:
.LBB3677:
.LBB3562:
.LBB3563:
.LBB3564:
	.loc 1 946 0
	lis 9,_ZTVN7sigslot13_signal_base3IP10GuiElementiiNS_15single_threadedEEE+8@ha
.LBE3564:
.LBE3563:
.LBE3562:
.LBE3677:
.LBE3686:
.LBE3695:
.LBE3821:
	.loc 2 89 0
	stw 28,32(1)
	stw 29,36(1)
	mr 28,3
	.cfi_offset 29, -12
	.cfi_offset 28, -16
	stw 26,24(1)
	addi 29,28,20
	stw 30,40(1)
	stw 31,44(1)
.LBB3822:
	.loc 2 89 0
	stw 0,0(3)
.LVL724:
.LBB3696:
.LBB3687:
.LBB3678:
.LBB3669:
.LBB3661:
.LBB3653:
	.loc 1 946 0
	la 0,_ZTVN7sigslot13_signal_base3IP10GuiElementiiNS_15single_threadedEEE+8@l(9)
.LBB3565:
.LBB3566:
.LBB3567:
.LBB3568:
	.loc 1 338 0
	lis 9,_ZN7sigslot15single_threaded4lockEv@ha
.LBE3568:
.LBE3567:
.LBE3566:
.LBE3565:
	.loc 1 946 0
	stw 0,16(3)
.LVL725:
.LBB3601:
.LBB3597:
.LBB3570:
.LBB3569:
	.loc 1 338 0
	la 9,_ZN7sigslot15single_threaded4lockEv@l(9)
	mr 3,27
.LVL726:
	mtctr 9
.LEHB48:
	.cfi_offset 31, -4
	.cfi_offset 30, -8
	.cfi_offset 26, -24
	bctrl
.LEHE48:
.LBE3569:
.LBE3570:
.LBE3597:
	.loc 3 389 0
	mr 29,28
	lwzu 31,20(29)
.LVL727:
.LBB3598:
	.loc 1 954 0
	cmpw 7,31,29
	beq- 7,.L649
.LVL728:
.L727:
	.loc 1 956 0
	lwz 3,8(31)
	lwz 9,0(3)
	lwz 0,8(9)
	mtctr 0
.LEHB49:
	bctrl
	stw 27,8(1)
	mr 30,3
.LVL729:
.LBB3571:
.LBB3572:
.LBB3573:
.LBB3574:
	.loc 1 338 0
	lwz 9,0(3)
	lwz 0,8(9)
	mtctr 0
	bctrl
.LVL730:
.LBE3574:
.LBE3573:
.LBB3575:
.LBB3576:
	.loc 9 528 0
	addi 3,30,4
	addi 4,1,8
	bl _ZNSt8_Rb_treeIPN7sigslot12_signal_baseINS0_15single_threadedEEES4_St9_IdentityIS4_ESt4lessIS4_ESaIS4_EE5eraseERKS4_
.LVL731:
.LBE3576:
.LBE3575:
.LBB3577:
.LBB3578:
.LBB3579:
	.loc 1 343 0
	lwz 9,0(30)
	mr 3,30
	lwz 0,12(9)
	mtctr 0
	bctrl
.LVL732:
.LBE3579:
.LBE3578:
.LBE3577:
.LBE3572:
.LBE3571:
	.loc 1 957 0
	lwz 3,8(31)
	cmpwi 7,3,0
	beq- 7,.L651
	lwz 9,0(3)
	lwz 0,4(9)
	mtctr 0
	bctrl
.LEHE49:
.L651:
.LVL733:
.LBB3580:
.LBB3581:
	.loc 4 234 0
	lwz 31,0(31)
.LVL734:
.LBE3581:
.LBE3580:
	.loc 1 954 0
	cmpw 7,29,31
	bne+ 7,.L727
.LBE3598:
	.loc 3 389 0
	lwz 31,20(28)
.LVL735:
.LBB3599:
.LBB3582:
.LBB3583:
	.loc 4 1162 0
	cmpw 7,29,31
	bne+ 7,.L730
	b .L649
.LVL736:
.L716:
	.loc 4 1163 0
	mr 31,30
.LVL737:
.L730:
.LBB3584:
.LBB3585:
	.loc 10 112 0
	lwz 30,0(31)
.LVL738:
.LBB3586:
.LBB3587:
	.loc 4 1532 0
	mr 3,31
	bl _ZNSt8__detail15_List_node_base9_M_unhookEv
.LVL739:
.LBB3588:
.LBB3589:
.LBB3590:
	.loc 6 98 0
	mr 3,31
	bl _ZdlPv
.LVL740:
.LBE3590:
.LBE3589:
.LBE3588:
.LBE3587:
.LBE3586:
.LBE3585:
.LBE3584:
	.loc 4 1162 0
	cmpw 7,29,30
	bne+ 7,.L716
.LVL741:
.L649:
.LBE3583:
.LBE3582:
.LBB3591:
.LBB3592:
.LBB3593:
	.loc 1 343 0
	lwz 9,16(28)
	mr 3,27
	lwz 0,12(9)
	mtctr 0
.LEHB50:
	bctrl
.LEHE50:
.LBE3593:
.LBE3592:
.LBE3591:
.LBE3599:
.LBE3601:
.LBB3602:
.LBB3603:
.LBB3604:
.LBB3605:
.LBB3606:
.LBB3607:
	.loc 10 70 0
	lwz 3,20(28)
.LVL742:
	.loc 10 71 0
	cmpw 7,3,29
	bne+ 7,.L732
	b .L667
.LVL743:
.L717:
	.loc 10 74 0
	mr 3,31
.LVL744:
.L732:
.LBB3608:
	lwz 31,0(3)
.LVL745:
.LBB3609:
.LBB3610:
.LBB3611:
	.loc 6 98 0
	bl _ZdlPv
.LVL746:
.LBE3611:
.LBE3610:
.LBE3609:
.LBE3608:
	.loc 10 71 0
	cmpw 7,31,29
	bne+ 7,.L717
.LVL747:
.L667:
.LBE3607:
.LBE3606:
.LBE3605:
.LBE3604:
.LBE3603:
.LBE3602:
.LBE3653:
.LBE3661:
.LBE3669:
.LBE3678:
.LBE3687:
.LBE3696:
.LBB3697:
.LBB3698:
.LBB3699:
.LBB3700:
.LBB3701:
.LBB3702:
	.loc 1 826 0
	lis 9,_ZTVN7sigslot13_signal_base2IP10GuiElementbNS_15single_threadedEEE+8@ha
.LBE3702:
.LBE3701:
.LBE3700:
.LBE3699:
.LBE3698:
.LBE3697:
.LBB3807:
.LBB3688:
.LBB3679:
.LBB3670:
.LBB3662:
.LBB3654:
.LBB3612:
.LBB3613:
.LBB3614:
.LBB3615:
.LBB3616:
.LBB3617:
	.loc 1 105 0
	lis 26,_ZTVN7sigslot15single_threadedE+8@ha
.LBE3617:
.LBE3616:
.LBE3615:
.LBE3614:
.LBE3613:
.LBE3612:
.LBE3654:
.LBE3662:
.LBE3670:
.LBE3679:
.LBE3688:
.LBE3807:
.LBB3808:
.LBB3801:
.LBB3795:
.LBB3789:
.LBB3783:
.LBB3777:
	.loc 1 826 0
	la 0,_ZTVN7sigslot13_signal_base2IP10GuiElementbNS_15single_threadedEEE+8@l(9)
.LBB3703:
.LBB3704:
.LBB3705:
.LBB3706:
	.loc 1 338 0
	lis 9,_ZN7sigslot15single_threaded4lockEv@ha
.LBE3706:
.LBE3705:
.LBE3704:
.LBE3703:
.LBE3777:
.LBE3783:
.LBE3789:
.LBE3795:
.LBE3801:
.LBE3808:
.LBB3809:
.LBB3689:
.LBB3680:
.LBB3671:
.LBB3663:
.LBB3655:
.LBB3628:
.LBB3626:
.LBB3624:
.LBB3622:
.LBB3620:
.LBB3618:
	.loc 1 105 0
	la 26,_ZTVN7sigslot15single_threadedE+8@l(26)
.LBE3618:
.LBE3620:
.LBE3622:
.LBE3624:
.LBE3626:
.LBE3628:
.LBE3655:
.LBE3663:
.LBE3671:
.LBE3680:
.LBE3689:
.LBE3809:
.LBB3810:
.LBB3802:
.LBB3796:
	.loc 1 2238 0
	addi 27,28,4
.LVL748:
.LBB3790:
.LBB3784:
.LBB3778:
.LBB3742:
.LBB3737:
.LBB3709:
.LBB3707:
	.loc 1 338 0
	la 9,_ZN7sigslot15single_threaded4lockEv@l(9)
.LBE3707:
.LBE3709:
.LBE3737:
.LBE3742:
.LBE3778:
.LBE3784:
.LBE3790:
.LBE3796:
.LBE3802:
.LBE3810:
.LBB3811:
.LBB3690:
.LBB3681:
.LBB3672:
.LBB3664:
.LBB3656:
.LBB3629:
.LBB3627:
.LBB3625:
.LBB3623:
.LBB3621:
.LBB3619:
	.loc 1 105 0
	stw 26,16(28)
.LVL749:
.LBE3619:
.LBE3621:
.LBE3623:
.LBE3625:
.LBE3627:
.LBE3629:
.LBE3656:
.LBE3664:
.LBE3672:
.LBE3681:
.LBE3690:
.LBE3811:
.LBB3812:
.LBB3803:
.LBB3797:
.LBB3791:
.LBB3785:
.LBB3779:
	.loc 1 826 0
	stw 0,4(28)
.LVL750:
.LBB3743:
.LBB3738:
.LBB3710:
.LBB3708:
	.loc 1 338 0
	mr 3,27
	mtctr 9
	addi 29,28,8
.LVL751:
.LEHB51:
	bctrl
.LEHE51:
.LBE3708:
.LBE3710:
.LBE3738:
	.loc 3 389 0
	mr 29,28
	lwzu 31,8(29)
.LVL752:
.LBB3739:
	.loc 1 834 0
	cmpw 7,31,29
	beq- 7,.L682
.LVL753:
.L726:
	.loc 1 836 0
	lwz 3,8(31)
	lwz 9,0(3)
	lwz 0,8(9)
	mtctr 0
.LEHB52:
	bctrl
	stw 27,8(1)
	mr 30,3
.LVL754:
.LBB3711:
.LBB3712:
.LBB3713:
.LBB3714:
	.loc 1 338 0
	lwz 9,0(3)
	lwz 0,8(9)
	mtctr 0
	bctrl
.LVL755:
.LBE3714:
.LBE3713:
.LBB3715:
.LBB3716:
	.loc 9 528 0
	addi 3,30,4
	addi 4,1,8
.LVL756:
	bl _ZNSt8_Rb_treeIPN7sigslot12_signal_baseINS0_15single_threadedEEES4_St9_IdentityIS4_ESt4lessIS4_ESaIS4_EE5eraseERKS4_
.LVL757:
.LBE3716:
.LBE3715:
.LBB3717:
.LBB3718:
.LBB3719:
	.loc 1 343 0
	lwz 9,0(30)
	mr 3,30
	lwz 0,12(9)
	mtctr 0
	bctrl
.LVL758:
.LBE3719:
.LBE3718:
.LBE3717:
.LBE3712:
.LBE3711:
	.loc 1 837 0
	lwz 3,8(31)
	cmpwi 7,3,0
	beq- 7,.L684
	lwz 9,0(3)
	lwz 0,4(9)
	mtctr 0
	bctrl
.LEHE52:
.L684:
.LVL759:
.LBB3720:
.LBB3721:
	.loc 4 234 0
	lwz 31,0(31)
.LVL760:
.LBE3721:
.LBE3720:
	.loc 1 834 0
	cmpw 7,29,31
	bne+ 7,.L726
.LBE3739:
	.loc 3 389 0
	lwz 31,8(28)
.LVL761:
.LBB3740:
.LBB3722:
.LBB3723:
	.loc 4 1162 0
	cmpw 7,29,31
	bne+ 7,.L735
	b .L682
.LVL762:
.L719:
	.loc 4 1163 0
	mr 31,30
.LVL763:
.L735:
.LBB3724:
.LBB3725:
	.loc 10 112 0
	lwz 30,0(31)
.LVL764:
.LBB3726:
.LBB3727:
	.loc 4 1532 0
	mr 3,31
	bl _ZNSt8__detail15_List_node_base9_M_unhookEv
.LVL765:
.LBB3728:
.LBB3729:
.LBB3730:
	.loc 6 98 0
	mr 3,31
	bl _ZdlPv
.LVL766:
.LBE3730:
.LBE3729:
.LBE3728:
.LBE3727:
.LBE3726:
.LBE3725:
.LBE3724:
	.loc 4 1162 0
	cmpw 7,29,30
	bne+ 7,.L719
.LVL767:
.L682:
.LBE3723:
.LBE3722:
.LBB3731:
.LBB3732:
.LBB3733:
	.loc 1 343 0
	lwz 9,4(28)
	mr 3,27
	lwz 0,12(9)
	mtctr 0
.LEHB53:
	bctrl
.LEHE53:
.LBE3733:
.LBE3732:
.LBE3731:
.LBE3740:
.LBE3743:
.LBB3744:
.LBB3745:
.LBB3746:
.LBB3747:
.LBB3748:
.LBB3749:
	.loc 10 70 0
	lwz 3,8(28)
.LVL768:
	.loc 10 71 0
	cmpw 7,3,29
	bne+ 7,.L737
	b .L700
.LVL769:
.L720:
	.loc 10 74 0
	mr 3,31
.LVL770:
.L737:
.LBB3750:
	lwz 31,0(3)
.LVL771:
.LBB3751:
.LBB3752:
.LBB3753:
	.loc 6 98 0
	bl _ZdlPv
.LVL772:
.LBE3753:
.LBE3752:
.LBE3751:
.LBE3750:
	.loc 10 71 0
	cmpw 7,31,29
	bne+ 7,.L720
.LVL773:
.L700:
.LBE3749:
.LBE3748:
.LBE3747:
.LBE3746:
.LBE3745:
.LBE3744:
.LBE3779:
.LBE3785:
.LBE3791:
.LBE3797:
.LBE3803:
.LBE3812:
.LBE3822:
	.loc 2 89 0
	lwz 0,52(1)
.LBB3823:
.LBB3813:
.LBB3804:
.LBB3798:
.LBB3792:
.LBB3786:
.LBB3780:
.LBB3754:
.LBB3755:
.LBB3756:
.LBB3757:
.LBB3758:
.LBB3759:
	.loc 1 105 0
	stw 26,4(28)
.LBE3759:
.LBE3758:
.LBE3757:
.LBE3756:
.LBE3755:
.LBE3754:
.LBE3780:
.LBE3786:
.LBE3792:
.LBE3798:
.LBE3804:
.LBE3813:
.LBE3823:
	.loc 2 89 0
	mtlr 0
	lwz 26,24(1)
	lwz 27,28(1)
.LVL774:
	lwz 28,32(1)
.LVL775:
	lwz 29,36(1)
.LVL776:
	lwz 30,40(1)
	lwz 31,44(1)
	addi 1,1,48
	.cfi_remember_state
.LCFI95:
	.cfi_def_cfa_offset 0
	.cfi_restore 31
	.cfi_restore 30
	.cfi_restore 29
	.cfi_restore 28
	.cfi_restore 27
	.cfi_restore 26
	blr
.LVL777:
.L722:
.LCFI96:
	.cfi_restore_state
	mr 31,3
.L659:
.LBB3824:
.LBB3814:
.LBB3691:
.LBB3682:
.LBB3673:
.LBB3665:
.LBB3657:
.LBB3630:
.LBB3631:
.LBB3632:
.LBB3633:
.LBB3634:
.LBB3635:
	.loc 10 70 0
	lwz 3,20(28)
.LVL778:
	.loc 10 71 0
	cmpw 7,3,29
	beq- 7,.L676
.LVL779:
.L734:
.LBB3636:
	.loc 10 74 0
	lwz 30,0(3)
.LVL780:
.LBB3637:
.LBB3638:
.LBB3639:
	.loc 6 98 0
	bl _ZdlPv
.LVL781:
.LBE3639:
.LBE3638:
.LBE3637:
.LBE3636:
	.loc 10 71 0
	cmpw 7,30,29
	beq- 7,.L676
	.loc 10 74 0
	mr 3,30
	b .L734
.LVL782:
.L725:
.LBE3635:
.LBE3634:
.LBE3633:
.LBE3632:
.LBE3631:
.LBE3630:
.LBE3657:
.LBE3665:
.LBE3673:
.LBE3682:
.LBE3691:
.LBE3814:
.LBB3815:
.LBB3805:
.LBB3799:
.LBB3793:
.LBB3787:
.LBB3781:
.LBB3760:
.LBB3741:
.LBB3734:
.LBB3735:
.LBB3736:
	.loc 1 343 0
	lwz 9,4(28)
	mr 31,3
.LVL783:
	mr 3,27
	lwz 0,12(9)
	mtctr 0
	bctrl
.LVL784:
.L692:
.LBE3736:
.LBE3735:
.LBE3734:
.LBE3741:
.LBE3760:
.LBB3761:
.LBB3762:
.LBB3763:
.LBB3764:
.LBB3765:
.LBB3766:
	.loc 10 70 0
	lwz 3,8(28)
.LVL785:
	.loc 10 71 0
	cmpw 7,3,29
	beq- 7,.L709
.LVL786:
.L738:
.LBB3767:
	.loc 10 74 0
	lwz 30,0(3)
.LVL787:
.LBB3768:
.LBB3769:
.LBB3770:
	.loc 6 98 0
	bl _ZdlPv
.LVL788:
.LBE3770:
.LBE3769:
.LBE3768:
.LBE3767:
	.loc 10 71 0
	cmpw 7,30,29
	beq- 7,.L709
	.loc 10 74 0
	mr 3,30
	b .L738
.LVL789:
.L676:
.LBE3766:
.LBE3765:
.LBE3764:
.LBE3763:
.LBE3762:
.LBE3761:
.LBE3781:
.LBE3787:
.LBE3793:
.LBE3799:
.LBE3805:
.LBE3815:
.LBB3816:
.LBB3692:
.LBB3683:
.LBB3674:
.LBB3666:
.LBB3658:
.LBB3640:
.LBB3641:
.LBB3642:
.LBB3643:
.LBB3644:
.LBB3645:
	.loc 1 105 0
	lis 9,_ZTVN7sigslot15single_threadedE+8@ha
.LBE3645:
.LBE3644:
.LBE3643:
.LBE3642:
.LBE3641:
.LBE3640:
.LBE3658:
.LBE3666:
.LBE3674:
.LBE3683:
.LBE3692:
.LBE3816:
	.loc 2 89 0
	addi 3,28,4
.LBB3817:
.LBB3693:
.LBB3684:
.LBB3675:
.LBB3667:
.LBB3659:
.LBB3651:
.LBB3650:
.LBB3649:
.LBB3648:
.LBB3647:
.LBB3646:
	.loc 1 105 0
	la 0,_ZTVN7sigslot15single_threadedE+8@l(9)
	stw 0,16(28)
.LBE3646:
.LBE3647:
.LBE3648:
.LBE3649:
.LBE3650:
.LBE3651:
.LBE3659:
.LBE3667:
.LBE3675:
.LBE3684:
.LBE3693:
.LBE3817:
	.loc 2 89 0
	bl _ZN7sigslot7signal2IP10GuiElementbNS_15single_threadedEED1Ev
	mr 3,31
.LEHB54:
	bl _Unwind_Resume
.LVL790:
.L709:
.LBB3818:
.LBB3806:
.LBB3800:
.LBB3794:
.LBB3788:
.LBB3782:
.LBB3771:
.LBB3772:
.LBB3773:
.LBB3774:
.LBB3775:
.LBB3776:
	.loc 1 105 0
	stw 26,4(28)
	mr 3,31
	bl _Unwind_Resume
.LEHE54:
.LVL791:
.L724:
	mr 31,3
	b .L692
.LVL792:
.L723:
.LBE3776:
.LBE3775:
.LBE3774:
.LBE3773:
.LBE3772:
.LBE3771:
.LBE3782:
.LBE3788:
.LBE3794:
.LBE3800:
.LBE3806:
.LBE3818:
.LBB3819:
.LBB3694:
.LBB3685:
.LBB3676:
.LBB3668:
.LBB3660:
.LBB3652:
.LBB3600:
.LBB3594:
.LBB3595:
.LBB3596:
	.loc 1 343 0
	lwz 9,16(28)
	mr 31,3
.LVL793:
	mr 3,27
	lwz 0,12(9)
	mtctr 0
	bctrl
	b .L659
.LBE3596:
.LBE3595:
.LBE3594:
.LBE3600:
.LBE3652:
.LBE3660:
.LBE3668:
.LBE3676:
.LBE3685:
.LBE3694:
.LBE3819:
.LBE3824:
	.cfi_endproc
.LFE1381:
	.section	.gcc_except_table
.LLSDA1381:
	.byte	0xff
	.byte	0xff
	.byte	0x1
	.uleb128 .LLSDACSE1381-.LLSDACSB1381
.LLSDACSB1381:
	.uleb128 .LEHB48-.LFB1381
	.uleb128 .LEHE48-.LEHB48
	.uleb128 .L722-.LFB1381
	.uleb128 0
	.uleb128 .LEHB49-.LFB1381
	.uleb128 .LEHE49-.LEHB49
	.uleb128 .L723-.LFB1381
	.uleb128 0
	.uleb128 .LEHB50-.LFB1381
	.uleb128 .LEHE50-.LEHB50
	.uleb128 .L722-.LFB1381
	.uleb128 0
	.uleb128 .LEHB51-.LFB1381
	.uleb128 .LEHE51-.LEHB51
	.uleb128 .L724-.LFB1381
	.uleb128 0
	.uleb128 .LEHB52-.LFB1381
	.uleb128 .LEHE52-.LEHB52
	.uleb128 .L725-.LFB1381
	.uleb128 0
	.uleb128 .LEHB53-.LFB1381
	.uleb128 .LEHE53-.LEHB53
	.uleb128 .L724-.LFB1381
	.uleb128 0
	.uleb128 .LEHB54-.LFB1381
	.uleb128 .LEHE54-.LEHB54
	.uleb128 0
	.uleb128 0
.LLSDACSE1381:
	.section	.text._ZN10GuiElementD2Ev,"axG",@progbits,_ZN10GuiElementD5Ev,comdat
	.size	_ZN10GuiElementD2Ev, .-_ZN10GuiElementD2Ev
	.section	".text"
	.align 2
	.globl _ZN8GuiImageC2EP12GuiImageData
	.type	_ZN8GuiImageC2EP12GuiImageData, @function
_ZN8GuiImageC2EP12GuiImageData:
.LFB1545:
	.loc 3 39 0
	.cfi_startproc
	.cfi_personality 0,__gxx_personality_v0
	.cfi_lsda 0,.LLSDA1545
.LVL794:
	stwu 1,-16(1)
.LCFI97:
	.cfi_def_cfa_offset 16
	mflr 0
	stw 30,8(1)
	mr 30,4
	.cfi_offset 30, -8
	.cfi_register 65, 0
	stw 0,20(1)
	stw 31,12(1)
	.loc 3 39 0
	mr 31,3
	.cfi_offset 31, -4
	.cfi_offset 65, 4
.LEHB55:
.LBB3825:
	bl _ZN10GuiElementC2Ev
.LEHE55:
.LVL795:
	.loc 3 46 0
	cmpwi 7,30,0
	.loc 3 41 0
	li 0,0
	.loc 3 39 0
	lis 9,_ZTV8GuiImage+8@ha
	la 9,_ZTV8GuiImage+8@l(9)
	.loc 3 41 0
	stw 0,148(31)
	.loc 3 42 0
	stw 0,36(31)
	.loc 3 43 0
	stw 0,40(31)
	.loc 3 44 0
	stw 0,192(31)
	.loc 3 45 0
	li 0,6
	.loc 3 39 0
	stw 9,0(31)
	.loc 3 45 0
	stb 0,168(31)
	.loc 3 46 0
	beq- 7,.L740
	.loc 3 389 0
	lwz 0,4(30)
.LBB3826:
.LBB3827:
	.loc 7 42 0
	cmpwi 7,0,0
	beq- 7,.L744
.L741:
.LBE3827:
.LBE3826:
	.loc 3 48 0
	stw 0,148(31)
	.loc 3 389 0
	lwz 0,12(30)
	.loc 3 49 0
	stw 0,36(31)
	.loc 3 389 0
	lwz 0,8(30)
	.loc 3 50 0
	stw 0,40(31)
	.loc 3 389 0
	lbz 0,16(30)
	.loc 3 51 0
	stb 0,168(31)
	.loc 3 389 0
	lwz 9,20(30)
	.loc 3 53 0
	cmpwi 7,9,0
	.loc 3 52 0
	stw 9,192(31)
	.loc 3 53 0
	beq- 7,.L740
	.loc 3 55 0
	li 0,0
	stw 0,148(31)
	.loc 3 389 0
	lwz 0,4(9)
	.loc 3 56 0
	stw 0,36(31)
	.loc 3 389 0
	lwz 0,8(9)
	.loc 3 57 0
	stw 0,40(31)
.L740:
	.loc 3 63 0
	li 0,0
	.loc 3 61 0
	li 9,-1
	.loc 3 64 0
	stb 0,169(31)
	.loc 3 60 0
	li 11,0
	.loc 3 64 0
	stb 0,170(31)
	stb 0,171(31)
	stb 9,172(31)
	.loc 3 63 0
	stw 0,164(31)
	.loc 3 65 0
	li 0,3
	stw 0,144(31)
.LBE3825:
	.loc 3 66 0
	lwz 0,20(1)
.LBB3832:
	.loc 3 60 0
	stw 11,152(31)
.LBE3832:
	.loc 3 66 0
	mtlr 0
.LBB3833:
	.loc 3 61 0
	stw 9,156(31)
	.loc 3 62 0
	stw 9,160(31)
.LBE3833:
	.loc 3 66 0
	lwz 30,8(1)
.LVL796:
	lwz 31,12(1)
.LVL797:
	addi 1,1,16
	.cfi_remember_state
.LCFI98:
	.cfi_def_cfa_offset 0
	.cfi_restore 31
	.cfi_restore 30
	blr
.LVL798:
.L744:
.LCFI99:
	.cfi_restore_state
.LBB3834:
.LBB3831:
.LBB3830:
.LBB3828:
.LBB3829:
	.loc 7 42 0
	lwz 3,20(30)
	cmpwi 7,3,0
	beq- 7,.L741
	li 4,0
.LEHB56:
	bl _ZN8GifImage13GetFrameImageEi
.LEHE56:
	mr 0,3
	b .L741
.L743:
	mr 30,3
.LVL799:
.LBE3829:
.LBE3828:
.LBE3830:
.LBE3831:
	.loc 3 39 0
	mr 3,31
	bl _ZN10GuiElementD2Ev
	mr 3,30
.LEHB57:
	bl _Unwind_Resume
.LEHE57:
.LBE3834:
	.cfi_endproc
.LFE1545:
	.section	.gcc_except_table
.LLSDA1545:
	.byte	0xff
	.byte	0xff
	.byte	0x1
	.uleb128 .LLSDACSE1545-.LLSDACSB1545
.LLSDACSB1545:
	.uleb128 .LEHB55-.LFB1545
	.uleb128 .LEHE55-.LEHB55
	.uleb128 0
	.uleb128 0
	.uleb128 .LEHB56-.LFB1545
	.uleb128 .LEHE56-.LEHB56
	.uleb128 .L743-.LFB1545
	.uleb128 0
	.uleb128 .LEHB57-.LFB1545
	.uleb128 .LEHE57-.LEHB57
	.uleb128 0
	.uleb128 0
.LLSDACSE1545:
	.section	".text"
	.size	_ZN8GuiImageC2EP12GuiImageData, .-_ZN8GuiImageC2EP12GuiImageData
	.section	.text._ZN10GuiElementD0Ev,"axG",@progbits,_ZN10GuiElementD5Ev,comdat
	.align 2
	.weak	_ZN10GuiElementD0Ev
	.type	_ZN10GuiElementD0Ev, @function
_ZN10GuiElementD0Ev:
.LFB1383:
	.loc 2 89 0
	.cfi_startproc
	.cfi_personality 0,__gxx_personality_v0
	.cfi_lsda 0,.LLSDA1383
.LVL800:
	mflr 0
	stwu 1,-48(1)
.LCFI100:
	.cfi_def_cfa_offset 48
	.cfi_register 65, 0
.LBB4036:
.LBB4037:
.LBB4038:
	lis 9,_ZTV10GuiElement+8@ha
.LBE4038:
.LBE4037:
.LBE4036:
	stw 27,28(1)
.LBB4302:
.LBB4298:
.LBB4294:
.LBB4039:
.LBB4040:
.LBB4041:
	.loc 1 2305 0
	addi 27,3,16
	.cfi_offset 27, -20
.LBE4041:
.LBE4040:
.LBE4039:
.LBE4294:
.LBE4298:
.LBE4302:
	.loc 2 89 0
	stw 0,52(1)
.LBB4303:
.LBB4299:
.LBB4295:
	la 0,_ZTV10GuiElement+8@l(9)
	.cfi_offset 65, 4
.LBB4175:
.LBB4166:
.LBB4157:
.LBB4042:
.LBB4043:
.LBB4044:
	.loc 1 946 0
	lis 9,_ZTVN7sigslot13_signal_base3IP10GuiElementiiNS_15single_threadedEEE+8@ha
.LBE4044:
.LBE4043:
.LBE4042:
.LBE4157:
.LBE4166:
.LBE4175:
.LBE4295:
.LBE4299:
.LBE4303:
	.loc 2 89 0
	stw 28,32(1)
	stw 29,36(1)
	mr 28,3
	.cfi_offset 29, -12
	.cfi_offset 28, -16
.LVL801:
	stw 26,24(1)
	addi 29,28,20
	stw 30,40(1)
	stw 31,44(1)
.LBB4304:
.LBB4300:
.LBB4296:
	.loc 2 89 0
	stw 0,0(3)
.LVL802:
.LBB4176:
.LBB4167:
.LBB4158:
.LBB4149:
.LBB4141:
.LBB4133:
	.loc 1 946 0
	la 0,_ZTVN7sigslot13_signal_base3IP10GuiElementiiNS_15single_threadedEEE+8@l(9)
.LBB4045:
.LBB4046:
.LBB4047:
.LBB4048:
	.loc 1 338 0
	lis 9,_ZN7sigslot15single_threaded4lockEv@ha
.LBE4048:
.LBE4047:
.LBE4046:
.LBE4045:
	.loc 1 946 0
	stw 0,16(3)
.LVL803:
.LBB4081:
.LBB4077:
.LBB4050:
.LBB4049:
	.loc 1 338 0
	la 9,_ZN7sigslot15single_threaded4lockEv@l(9)
	mr 3,27
.LVL804:
	mtctr 9
.LEHB58:
	.cfi_offset 31, -4
	.cfi_offset 30, -8
	.cfi_offset 26, -24
	bctrl
.LEHE58:
.LBE4049:
.LBE4050:
.LBE4077:
	.loc 3 389 0
	mr 29,28
	lwzu 31,20(29)
.LVL805:
.LBB4078:
	.loc 1 954 0
	cmpw 7,31,29
	beq- 7,.L747
.LVL806:
.L826:
	.loc 1 956 0
	lwz 3,8(31)
	lwz 9,0(3)
	lwz 0,8(9)
	mtctr 0
.LEHB59:
	bctrl
	stw 27,8(1)
	mr 30,3
.LVL807:
.LBB4051:
.LBB4052:
.LBB4053:
.LBB4054:
	.loc 1 338 0
	lwz 9,0(3)
	lwz 0,8(9)
	mtctr 0
	bctrl
.LVL808:
.LBE4054:
.LBE4053:
.LBB4055:
.LBB4056:
	.loc 9 528 0
	addi 3,30,4
	addi 4,1,8
	bl _ZNSt8_Rb_treeIPN7sigslot12_signal_baseINS0_15single_threadedEEES4_St9_IdentityIS4_ESt4lessIS4_ESaIS4_EE5eraseERKS4_
.LVL809:
.LBE4056:
.LBE4055:
.LBB4057:
.LBB4058:
.LBB4059:
	.loc 1 343 0
	lwz 9,0(30)
	mr 3,30
	lwz 0,12(9)
	mtctr 0
	bctrl
.LVL810:
.LBE4059:
.LBE4058:
.LBE4057:
.LBE4052:
.LBE4051:
	.loc 1 957 0
	lwz 3,8(31)
	cmpwi 7,3,0
	beq- 7,.L749
	lwz 9,0(3)
	lwz 0,4(9)
	mtctr 0
	bctrl
.LEHE59:
.L749:
.LVL811:
.LBB4060:
.LBB4061:
	.loc 4 234 0
	lwz 31,0(31)
.LVL812:
.LBE4061:
.LBE4060:
	.loc 1 954 0
	cmpw 7,29,31
	bne+ 7,.L826
.LBE4078:
	.loc 3 389 0
	lwz 31,20(28)
.LVL813:
.LBB4079:
.LBB4062:
.LBB4063:
	.loc 4 1162 0
	cmpw 7,29,31
	bne+ 7,.L829
	b .L747
.LVL814:
.L815:
	.loc 4 1163 0
	mr 31,30
.LVL815:
.L829:
.LBB4064:
.LBB4065:
	.loc 10 112 0
	lwz 30,0(31)
.LVL816:
.LBB4066:
.LBB4067:
	.loc 4 1532 0
	mr 3,31
	bl _ZNSt8__detail15_List_node_base9_M_unhookEv
.LVL817:
.LBB4068:
.LBB4069:
.LBB4070:
	.loc 6 98 0
	mr 3,31
	bl _ZdlPv
.LVL818:
.LBE4070:
.LBE4069:
.LBE4068:
.LBE4067:
.LBE4066:
.LBE4065:
.LBE4064:
	.loc 4 1162 0
	cmpw 7,29,30
	bne+ 7,.L815
.LVL819:
.L747:
.LBE4063:
.LBE4062:
.LBB4071:
.LBB4072:
.LBB4073:
	.loc 1 343 0
	lwz 9,16(28)
	mr 3,27
	lwz 0,12(9)
	mtctr 0
.LEHB60:
	bctrl
.LEHE60:
.LBE4073:
.LBE4072:
.LBE4071:
.LBE4079:
.LBE4081:
.LBB4082:
.LBB4083:
.LBB4084:
.LBB4085:
.LBB4086:
.LBB4087:
	.loc 10 70 0
	lwz 3,20(28)
.LVL820:
	.loc 10 71 0
	cmpw 7,3,29
	bne+ 7,.L831
	b .L765
.LVL821:
.L816:
	.loc 10 74 0
	mr 3,31
.LVL822:
.L831:
.LBB4088:
	lwz 31,0(3)
.LVL823:
.LBB4089:
.LBB4090:
.LBB4091:
	.loc 6 98 0
	bl _ZdlPv
.LVL824:
.LBE4091:
.LBE4090:
.LBE4089:
.LBE4088:
	.loc 10 71 0
	cmpw 7,31,29
	bne+ 7,.L816
.LVL825:
.L765:
.LBE4087:
.LBE4086:
.LBE4085:
.LBE4084:
.LBE4083:
.LBE4082:
.LBE4133:
.LBE4141:
.LBE4149:
.LBE4158:
.LBE4167:
.LBE4176:
.LBB4177:
.LBB4178:
.LBB4179:
.LBB4180:
.LBB4181:
.LBB4182:
	.loc 1 826 0
	lis 9,_ZTVN7sigslot13_signal_base2IP10GuiElementbNS_15single_threadedEEE+8@ha
.LBE4182:
.LBE4181:
.LBE4180:
.LBE4179:
.LBE4178:
.LBE4177:
.LBB4282:
.LBB4168:
.LBB4159:
.LBB4150:
.LBB4142:
.LBB4134:
.LBB4092:
.LBB4093:
.LBB4094:
.LBB4095:
.LBB4096:
.LBB4097:
	.loc 1 105 0
	lis 26,_ZTVN7sigslot15single_threadedE+8@ha
.LBE4097:
.LBE4096:
.LBE4095:
.LBE4094:
.LBE4093:
.LBE4092:
.LBE4134:
.LBE4142:
.LBE4150:
.LBE4159:
.LBE4168:
.LBE4282:
.LBB4283:
.LBB4277:
.LBB4272:
.LBB4267:
.LBB4262:
.LBB4257:
	.loc 1 826 0
	la 0,_ZTVN7sigslot13_signal_base2IP10GuiElementbNS_15single_threadedEEE+8@l(9)
.LBB4183:
.LBB4184:
.LBB4185:
.LBB4186:
	.loc 1 338 0
	lis 9,_ZN7sigslot15single_threaded4lockEv@ha
.LBE4186:
.LBE4185:
.LBE4184:
.LBE4183:
.LBE4257:
.LBE4262:
.LBE4267:
.LBE4272:
.LBE4277:
.LBE4283:
.LBB4284:
.LBB4169:
.LBB4160:
.LBB4151:
.LBB4143:
.LBB4135:
.LBB4108:
.LBB4106:
.LBB4104:
.LBB4102:
.LBB4100:
.LBB4098:
	.loc 1 105 0
	la 26,_ZTVN7sigslot15single_threadedE+8@l(26)
.LBE4098:
.LBE4100:
.LBE4102:
.LBE4104:
.LBE4106:
.LBE4108:
.LBE4135:
.LBE4143:
.LBE4151:
.LBE4160:
.LBE4169:
.LBE4284:
.LBB4285:
.LBB4278:
.LBB4273:
	.loc 1 2238 0
	addi 27,28,4
.LVL826:
.LBB4268:
.LBB4263:
.LBB4258:
.LBB4222:
.LBB4217:
.LBB4189:
.LBB4187:
	.loc 1 338 0
	la 9,_ZN7sigslot15single_threaded4lockEv@l(9)
.LBE4187:
.LBE4189:
.LBE4217:
.LBE4222:
.LBE4258:
.LBE4263:
.LBE4268:
.LBE4273:
.LBE4278:
.LBE4285:
.LBB4286:
.LBB4170:
.LBB4161:
.LBB4152:
.LBB4144:
.LBB4136:
.LBB4109:
.LBB4107:
.LBB4105:
.LBB4103:
.LBB4101:
.LBB4099:
	.loc 1 105 0
	stw 26,16(28)
.LVL827:
.LBE4099:
.LBE4101:
.LBE4103:
.LBE4105:
.LBE4107:
.LBE4109:
.LBE4136:
.LBE4144:
.LBE4152:
.LBE4161:
.LBE4170:
.LBE4286:
.LBB4287:
.LBB4279:
.LBB4274:
.LBB4269:
.LBB4264:
.LBB4259:
	.loc 1 826 0
	stw 0,4(28)
.LVL828:
.LBB4223:
.LBB4218:
.LBB4190:
.LBB4188:
	.loc 1 338 0
	mr 3,27
	mtctr 9
	addi 29,28,8
.LVL829:
.LEHB61:
	bctrl
.LEHE61:
.LBE4188:
.LBE4190:
.LBE4218:
	.loc 3 389 0
	mr 29,28
	lwzu 31,8(29)
.LVL830:
.LBB4219:
	.loc 1 834 0
	cmpw 7,31,29
	beq- 7,.L780
.LVL831:
.L825:
	.loc 1 836 0
	lwz 3,8(31)
	lwz 9,0(3)
	lwz 0,8(9)
	mtctr 0
.LEHB62:
	bctrl
	stw 27,8(1)
	mr 30,3
.LVL832:
.LBB4191:
.LBB4192:
.LBB4193:
.LBB4194:
	.loc 1 338 0
	lwz 9,0(3)
	lwz 0,8(9)
	mtctr 0
	bctrl
.LVL833:
.LBE4194:
.LBE4193:
.LBB4195:
.LBB4196:
	.loc 9 528 0
	addi 3,30,4
	addi 4,1,8
.LVL834:
	bl _ZNSt8_Rb_treeIPN7sigslot12_signal_baseINS0_15single_threadedEEES4_St9_IdentityIS4_ESt4lessIS4_ESaIS4_EE5eraseERKS4_
.LVL835:
.LBE4196:
.LBE4195:
.LBB4197:
.LBB4198:
.LBB4199:
	.loc 1 343 0
	lwz 9,0(30)
	mr 3,30
	lwz 0,12(9)
	mtctr 0
	bctrl
.LVL836:
.LBE4199:
.LBE4198:
.LBE4197:
.LBE4192:
.LBE4191:
	.loc 1 837 0
	lwz 3,8(31)
	cmpwi 7,3,0
	beq- 7,.L782
	lwz 9,0(3)
	lwz 0,4(9)
	mtctr 0
	bctrl
.LEHE62:
.L782:
.LVL837:
.LBB4200:
.LBB4201:
	.loc 4 234 0
	lwz 31,0(31)
.LVL838:
.LBE4201:
.LBE4200:
	.loc 1 834 0
	cmpw 7,29,31
	bne+ 7,.L825
.LBE4219:
	.loc 3 389 0
	lwz 31,8(28)
.LVL839:
.LBB4220:
.LBB4202:
.LBB4203:
	.loc 4 1162 0
	cmpw 7,29,31
	bne+ 7,.L834
	b .L780
.LVL840:
.L818:
	.loc 4 1163 0
	mr 31,30
.LVL841:
.L834:
.LBB4204:
.LBB4205:
	.loc 10 112 0
	lwz 30,0(31)
.LVL842:
.LBB4206:
.LBB4207:
	.loc 4 1532 0
	mr 3,31
	bl _ZNSt8__detail15_List_node_base9_M_unhookEv
.LVL843:
.LBB4208:
.LBB4209:
.LBB4210:
	.loc 6 98 0
	mr 3,31
	bl _ZdlPv
.LVL844:
.LBE4210:
.LBE4209:
.LBE4208:
.LBE4207:
.LBE4206:
.LBE4205:
.LBE4204:
	.loc 4 1162 0
	cmpw 7,29,30
	bne+ 7,.L818
.LVL845:
.L780:
.LBE4203:
.LBE4202:
.LBB4211:
.LBB4212:
.LBB4213:
	.loc 1 343 0
	lwz 9,4(28)
	mr 3,27
	lwz 0,12(9)
	mtctr 0
.LEHB63:
	bctrl
.LEHE63:
.LBE4213:
.LBE4212:
.LBE4211:
.LBE4220:
.LBE4223:
.LBB4224:
.LBB4225:
.LBB4226:
.LBB4227:
.LBB4228:
.LBB4229:
	.loc 10 70 0
	lwz 3,8(28)
.LVL846:
	.loc 10 71 0
	cmpw 7,3,29
	bne+ 7,.L836
	b .L798
.LVL847:
.L819:
	.loc 10 74 0
	mr 3,31
.LVL848:
.L836:
.LBB4230:
	lwz 31,0(3)
.LVL849:
.LBB4231:
.LBB4232:
.LBB4233:
	.loc 6 98 0
	bl _ZdlPv
.LVL850:
.LBE4233:
.LBE4232:
.LBE4231:
.LBE4230:
	.loc 10 71 0
	cmpw 7,31,29
	bne+ 7,.L819
.LVL851:
.L798:
.LBE4229:
.LBE4228:
.LBE4227:
.LBE4226:
.LBE4225:
.LBE4224:
.LBB4234:
.LBB4235:
.LBB4236:
.LBB4237:
.LBB4238:
.LBB4239:
	.loc 1 105 0
	stw 26,4(28)
.LBE4239:
.LBE4238:
.LBE4237:
.LBE4236:
.LBE4235:
.LBE4234:
.LBE4259:
.LBE4264:
.LBE4269:
.LBE4274:
.LBE4279:
.LBE4287:
.LBE4296:
.LBE4300:
.LBE4304:
	.loc 2 89 0
	mr 3,28
	bl _ZdlPv
	lwz 0,52(1)
	lwz 26,24(1)
	mtlr 0
	lwz 27,28(1)
.LVL852:
	lwz 28,32(1)
.LVL853:
	lwz 29,36(1)
.LVL854:
	lwz 30,40(1)
	lwz 31,44(1)
	addi 1,1,48
	.cfi_remember_state
.LCFI101:
	.cfi_def_cfa_offset 0
	.cfi_restore 31
	.cfi_restore 30
	.cfi_restore 29
	.cfi_restore 28
	.cfi_restore 27
	.cfi_restore 26
	blr
.LVL855:
.L821:
.LCFI102:
	.cfi_restore_state
	mr 31,3
.L757:
.LBB4305:
.LBB4301:
.LBB4297:
.LBB4288:
.LBB4171:
.LBB4162:
.LBB4153:
.LBB4145:
.LBB4137:
.LBB4110:
.LBB4111:
.LBB4112:
.LBB4113:
.LBB4114:
.LBB4115:
	.loc 10 70 0
	lwz 3,20(28)
.LVL856:
	.loc 10 71 0
	cmpw 7,3,29
	beq- 7,.L774
.LVL857:
.L833:
.LBB4116:
	.loc 10 74 0
	lwz 30,0(3)
.LVL858:
.LBB4117:
.LBB4118:
.LBB4119:
	.loc 6 98 0
	bl _ZdlPv
.LVL859:
.LBE4119:
.LBE4118:
.LBE4117:
.LBE4116:
	.loc 10 71 0
	cmpw 7,30,29
	beq- 7,.L774
	.loc 10 74 0
	mr 3,30
	b .L833
.LVL860:
.L824:
.LBE4115:
.LBE4114:
.LBE4113:
.LBE4112:
.LBE4111:
.LBE4110:
.LBE4137:
.LBE4145:
.LBE4153:
.LBE4162:
.LBE4171:
.LBE4288:
.LBB4289:
.LBB4280:
.LBB4275:
.LBB4270:
.LBB4265:
.LBB4260:
.LBB4240:
.LBB4221:
.LBB4214:
.LBB4215:
.LBB4216:
	.loc 1 343 0
	lwz 9,4(28)
	mr 31,3
.LVL861:
	mr 3,27
	lwz 0,12(9)
	mtctr 0
	bctrl
.LVL862:
.L790:
.LBE4216:
.LBE4215:
.LBE4214:
.LBE4221:
.LBE4240:
.LBB4241:
.LBB4242:
.LBB4243:
.LBB4244:
.LBB4245:
.LBB4246:
	.loc 10 70 0
	lwz 3,8(28)
.LVL863:
	.loc 10 71 0
	cmpw 7,3,29
	beq- 7,.L807
.LVL864:
.L837:
.LBB4247:
	.loc 10 74 0
	lwz 30,0(3)
.LVL865:
.LBB4248:
.LBB4249:
.LBB4250:
	.loc 6 98 0
	bl _ZdlPv
.LVL866:
.LBE4250:
.LBE4249:
.LBE4248:
.LBE4247:
	.loc 10 71 0
	cmpw 7,30,29
	beq- 7,.L807
	.loc 10 74 0
	mr 3,30
	b .L837
.LVL867:
.L774:
.LBE4246:
.LBE4245:
.LBE4244:
.LBE4243:
.LBE4242:
.LBE4241:
.LBE4260:
.LBE4265:
.LBE4270:
.LBE4275:
.LBE4280:
.LBE4289:
.LBB4290:
.LBB4172:
.LBB4163:
.LBB4154:
.LBB4146:
.LBB4138:
.LBB4120:
.LBB4121:
.LBB4122:
.LBB4123:
.LBB4124:
.LBB4125:
	.loc 1 105 0
	lis 9,_ZTVN7sigslot15single_threadedE+8@ha
.LBE4125:
.LBE4124:
.LBE4123:
.LBE4122:
.LBE4121:
.LBE4120:
.LBE4138:
.LBE4146:
.LBE4154:
.LBE4163:
.LBE4172:
.LBE4290:
	.loc 2 89 0
	addi 3,28,4
.LBB4291:
.LBB4173:
.LBB4164:
.LBB4155:
.LBB4147:
.LBB4139:
.LBB4131:
.LBB4130:
.LBB4129:
.LBB4128:
.LBB4127:
.LBB4126:
	.loc 1 105 0
	la 0,_ZTVN7sigslot15single_threadedE+8@l(9)
	stw 0,16(28)
.LBE4126:
.LBE4127:
.LBE4128:
.LBE4129:
.LBE4130:
.LBE4131:
.LBE4139:
.LBE4147:
.LBE4155:
.LBE4164:
.LBE4173:
.LBE4291:
	.loc 2 89 0
	bl _ZN7sigslot7signal2IP10GuiElementbNS_15single_threadedEED1Ev
	mr 3,31
.LEHB64:
	bl _Unwind_Resume
.LVL868:
.L807:
.LBB4292:
.LBB4281:
.LBB4276:
.LBB4271:
.LBB4266:
.LBB4261:
.LBB4251:
.LBB4252:
.LBB4253:
.LBB4254:
.LBB4255:
.LBB4256:
	.loc 1 105 0
	stw 26,4(28)
	mr 3,31
	bl _Unwind_Resume
.LEHE64:
.LVL869:
.L823:
	mr 31,3
	b .L790
.LVL870:
.L822:
.LBE4256:
.LBE4255:
.LBE4254:
.LBE4253:
.LBE4252:
.LBE4251:
.LBE4261:
.LBE4266:
.LBE4271:
.LBE4276:
.LBE4281:
.LBE4292:
.LBB4293:
.LBB4174:
.LBB4165:
.LBB4156:
.LBB4148:
.LBB4140:
.LBB4132:
.LBB4080:
.LBB4074:
.LBB4075:
.LBB4076:
	.loc 1 343 0
	lwz 9,16(28)
	mr 31,3
.LVL871:
	mr 3,27
	lwz 0,12(9)
	mtctr 0
	bctrl
	b .L757
.LBE4076:
.LBE4075:
.LBE4074:
.LBE4080:
.LBE4132:
.LBE4140:
.LBE4148:
.LBE4156:
.LBE4165:
.LBE4174:
.LBE4293:
.LBE4297:
.LBE4301:
.LBE4305:
	.cfi_endproc
.LFE1383:
	.section	.gcc_except_table
.LLSDA1383:
	.byte	0xff
	.byte	0xff
	.byte	0x1
	.uleb128 .LLSDACSE1383-.LLSDACSB1383
.LLSDACSB1383:
	.uleb128 .LEHB58-.LFB1383
	.uleb128 .LEHE58-.LEHB58
	.uleb128 .L821-.LFB1383
	.uleb128 0
	.uleb128 .LEHB59-.LFB1383
	.uleb128 .LEHE59-.LEHB59
	.uleb128 .L822-.LFB1383
	.uleb128 0
	.uleb128 .LEHB60-.LFB1383
	.uleb128 .LEHE60-.LEHB60
	.uleb128 .L821-.LFB1383
	.uleb128 0
	.uleb128 .LEHB61-.LFB1383
	.uleb128 .LEHE61-.LEHB61
	.uleb128 .L823-.LFB1383
	.uleb128 0
	.uleb128 .LEHB62-.LFB1383
	.uleb128 .LEHE62-.LEHB62
	.uleb128 .L824-.LFB1383
	.uleb128 0
	.uleb128 .LEHB63-.LFB1383
	.uleb128 .LEHE63-.LEHB63
	.uleb128 .L823-.LFB1383
	.uleb128 0
	.uleb128 .LEHB64-.LFB1383
	.uleb128 .LEHE64-.LEHB64
	.uleb128 0
	.uleb128 0
.LLSDACSE1383:
	.section	.text._ZN10GuiElementD0Ev,"axG",@progbits,_ZN10GuiElementD5Ev,comdat
	.size	_ZN10GuiElementD0Ev, .-_ZN10GuiElementD0Ev
	.section	".text"
	.align 2
	.globl _ZN8GuiImageD2Ev
	.type	_ZN8GuiImageD2Ev, @function
_ZN8GuiImageD2Ev:
.LFB1557:
	.loc 3 120 0
	.cfi_startproc
	.cfi_personality 0,__gxx_personality_v0
	.cfi_lsda 0,.LLSDA1557
.LVL872:
	mflr 0
	stwu 1,-48(1)
.LCFI103:
	.cfi_def_cfa_offset 48
	.cfi_register 65, 0
.LBB4509:
.LBB4510:
.LBB4511:
.LBB4512:
	.loc 2 89 0
	lis 9,_ZTV10GuiElement+8@ha
.LBE4512:
.LBE4511:
.LBE4510:
.LBE4509:
	.loc 3 120 0
	stw 27,28(1)
.LBB4789:
.LBB4784:
.LBB4779:
.LBB4774:
.LBB4513:
.LBB4514:
.LBB4515:
	.loc 1 2305 0
	addi 27,3,16
	.cfi_offset 27, -20
.LBE4515:
.LBE4514:
.LBE4513:
.LBE4774:
.LBE4779:
.LBE4784:
.LBE4789:
	.loc 3 120 0
	stw 0,52(1)
.LBB4790:
.LBB4785:
.LBB4780:
.LBB4775:
	.loc 2 89 0
	la 0,_ZTV10GuiElement+8@l(9)
	.cfi_offset 65, 4
.LBB4649:
.LBB4640:
.LBB4631:
.LBB4516:
.LBB4517:
.LBB4518:
	.loc 1 946 0
	lis 9,_ZTVN7sigslot13_signal_base3IP10GuiElementiiNS_15single_threadedEEE+8@ha
.LBE4518:
.LBE4517:
.LBE4516:
.LBE4631:
.LBE4640:
.LBE4649:
.LBE4775:
.LBE4780:
.LBE4785:
.LBE4790:
	.loc 3 120 0
	stw 28,32(1)
	stw 29,36(1)
	mr 28,3
	.cfi_offset 29, -12
	.cfi_offset 28, -16
.LVL873:
	stw 26,24(1)
	addi 29,28,20
	stw 30,40(1)
	stw 31,44(1)
.LBB4791:
.LBB4786:
.LBB4781:
.LBB4776:
	.loc 2 89 0
	stw 0,0(3)
.LVL874:
.LBB4650:
.LBB4641:
.LBB4632:
.LBB4623:
.LBB4615:
.LBB4607:
	.loc 1 946 0
	la 0,_ZTVN7sigslot13_signal_base3IP10GuiElementiiNS_15single_threadedEEE+8@l(9)
.LBB4519:
.LBB4520:
.LBB4521:
.LBB4522:
	.loc 1 338 0
	lis 9,_ZN7sigslot15single_threaded4lockEv@ha
.LBE4522:
.LBE4521:
.LBE4520:
.LBE4519:
	.loc 1 946 0
	stw 0,16(3)
.LVL875:
.LBB4555:
.LBB4551:
.LBB4524:
.LBB4523:
	.loc 1 338 0
	la 9,_ZN7sigslot15single_threaded4lockEv@l(9)
	mr 3,27
.LVL876:
	mtctr 9
.LEHB65:
	.cfi_offset 31, -4
	.cfi_offset 30, -8
	.cfi_offset 26, -24
	bctrl
.LEHE65:
.LBE4523:
.LBE4524:
.LBE4551:
	.loc 3 389 0
	mr 29,28
.LVL877:
	lwzu 31,20(29)
.LVL878:
.LBB4552:
	.loc 1 954 0
	cmpw 7,31,29
	beq- 7,.L840
.LVL879:
.L919:
	.loc 1 956 0
	lwz 3,8(31)
	lwz 9,0(3)
	lwz 0,8(9)
	mtctr 0
.LEHB66:
	bctrl
	stw 27,8(1)
	mr 30,3
.LVL880:
.LBB4525:
.LBB4526:
.LBB4527:
.LBB4528:
	.loc 1 338 0
	lwz 9,0(3)
	lwz 0,8(9)
	mtctr 0
	bctrl
.LVL881:
.LBE4528:
.LBE4527:
.LBB4529:
.LBB4530:
	.loc 9 528 0
	addi 3,30,4
	addi 4,1,8
	bl _ZNSt8_Rb_treeIPN7sigslot12_signal_baseINS0_15single_threadedEEES4_St9_IdentityIS4_ESt4lessIS4_ESaIS4_EE5eraseERKS4_
.LVL882:
.LBE4530:
.LBE4529:
.LBB4531:
.LBB4532:
.LBB4533:
	.loc 1 343 0
	lwz 9,0(30)
	mr 3,30
	lwz 0,12(9)
	mtctr 0
	bctrl
.LVL883:
.LBE4533:
.LBE4532:
.LBE4531:
.LBE4526:
.LBE4525:
	.loc 1 957 0
	lwz 3,8(31)
	cmpwi 7,3,0
	beq- 7,.L842
	lwz 9,0(3)
	lwz 0,4(9)
	mtctr 0
	bctrl
.LEHE66:
.L842:
.LVL884:
.LBB4534:
.LBB4535:
	.loc 4 234 0
	lwz 31,0(31)
.LVL885:
.LBE4535:
.LBE4534:
	.loc 1 954 0
	cmpw 7,29,31
	bne+ 7,.L919
.LBE4552:
	.loc 3 389 0
	lwz 31,20(28)
.LVL886:
.LBB4553:
.LBB4536:
.LBB4537:
	.loc 4 1162 0
	cmpw 7,29,31
	bne+ 7,.L922
	b .L840
.LVL887:
.L908:
	.loc 4 1163 0
	mr 31,30
.LVL888:
.L922:
.LBB4538:
.LBB4539:
	.loc 10 112 0
	lwz 30,0(31)
.LVL889:
.LBB4540:
.LBB4541:
	.loc 4 1532 0
	mr 3,31
	bl _ZNSt8__detail15_List_node_base9_M_unhookEv
.LVL890:
.LBB4542:
.LBB4543:
.LBB4544:
	.loc 6 98 0
	mr 3,31
	bl _ZdlPv
.LVL891:
.LBE4544:
.LBE4543:
.LBE4542:
.LBE4541:
.LBE4540:
.LBE4539:
.LBE4538:
	.loc 4 1162 0
	cmpw 7,29,30
	bne+ 7,.L908
.LVL892:
.L840:
.LBE4537:
.LBE4536:
.LBB4545:
.LBB4546:
.LBB4547:
	.loc 1 343 0
	lwz 9,16(28)
	mr 3,27
	lwz 0,12(9)
	mtctr 0
.LEHB67:
	bctrl
.LEHE67:
.LBE4547:
.LBE4546:
.LBE4545:
.LBE4553:
.LBE4555:
.LBB4556:
.LBB4557:
.LBB4558:
.LBB4559:
.LBB4560:
.LBB4561:
	.loc 10 70 0
	lwz 3,20(28)
.LVL893:
	.loc 10 71 0
	cmpw 7,3,29
	bne+ 7,.L924
	b .L858
.LVL894:
.L909:
	.loc 10 74 0
	mr 3,31
.LVL895:
.L924:
.LBB4562:
	lwz 31,0(3)
.LVL896:
.LBB4563:
.LBB4564:
.LBB4565:
	.loc 6 98 0
	bl _ZdlPv
.LVL897:
.LBE4565:
.LBE4564:
.LBE4563:
.LBE4562:
	.loc 10 71 0
	cmpw 7,31,29
	bne+ 7,.L909
.LVL898:
.L858:
.LBE4561:
.LBE4560:
.LBE4559:
.LBE4558:
.LBE4557:
.LBE4556:
.LBE4607:
.LBE4615:
.LBE4623:
.LBE4632:
.LBE4641:
.LBE4650:
.LBB4651:
.LBB4652:
.LBB4653:
.LBB4654:
.LBB4655:
.LBB4656:
	.loc 1 826 0
	lis 9,_ZTVN7sigslot13_signal_base2IP10GuiElementbNS_15single_threadedEEE+8@ha
.LBE4656:
.LBE4655:
.LBE4654:
.LBE4653:
.LBE4652:
.LBE4651:
.LBB4761:
.LBB4642:
.LBB4633:
.LBB4624:
.LBB4616:
.LBB4608:
.LBB4566:
.LBB4567:
.LBB4568:
.LBB4569:
.LBB4570:
.LBB4571:
	.loc 1 105 0
	lis 26,_ZTVN7sigslot15single_threadedE+8@ha
.LBE4571:
.LBE4570:
.LBE4569:
.LBE4568:
.LBE4567:
.LBE4566:
.LBE4608:
.LBE4616:
.LBE4624:
.LBE4633:
.LBE4642:
.LBE4761:
.LBB4762:
.LBB4755:
.LBB4749:
.LBB4743:
.LBB4737:
.LBB4731:
	.loc 1 826 0
	la 0,_ZTVN7sigslot13_signal_base2IP10GuiElementbNS_15single_threadedEEE+8@l(9)
.LBB4657:
.LBB4658:
.LBB4659:
.LBB4660:
	.loc 1 338 0
	lis 9,_ZN7sigslot15single_threaded4lockEv@ha
.LBE4660:
.LBE4659:
.LBE4658:
.LBE4657:
.LBE4731:
.LBE4737:
.LBE4743:
.LBE4749:
.LBE4755:
.LBE4762:
.LBB4763:
.LBB4643:
.LBB4634:
.LBB4625:
.LBB4617:
.LBB4609:
.LBB4582:
.LBB4580:
.LBB4578:
.LBB4576:
.LBB4574:
.LBB4572:
	.loc 1 105 0
	la 26,_ZTVN7sigslot15single_threadedE+8@l(26)
.LBE4572:
.LBE4574:
.LBE4576:
.LBE4578:
.LBE4580:
.LBE4582:
.LBE4609:
.LBE4617:
.LBE4625:
.LBE4634:
.LBE4643:
.LBE4763:
.LBB4764:
.LBB4756:
.LBB4750:
	.loc 1 2238 0
	addi 27,28,4
.LVL899:
.LBB4744:
.LBB4738:
.LBB4732:
.LBB4696:
.LBB4691:
.LBB4663:
.LBB4661:
	.loc 1 338 0
	la 9,_ZN7sigslot15single_threaded4lockEv@l(9)
.LBE4661:
.LBE4663:
.LBE4691:
.LBE4696:
.LBE4732:
.LBE4738:
.LBE4744:
.LBE4750:
.LBE4756:
.LBE4764:
.LBB4765:
.LBB4644:
.LBB4635:
.LBB4626:
.LBB4618:
.LBB4610:
.LBB4583:
.LBB4581:
.LBB4579:
.LBB4577:
.LBB4575:
.LBB4573:
	.loc 1 105 0
	stw 26,16(28)
.LVL900:
.LBE4573:
.LBE4575:
.LBE4577:
.LBE4579:
.LBE4581:
.LBE4583:
.LBE4610:
.LBE4618:
.LBE4626:
.LBE4635:
.LBE4644:
.LBE4765:
.LBB4766:
.LBB4757:
.LBB4751:
.LBB4745:
.LBB4739:
.LBB4733:
	.loc 1 826 0
	stw 0,4(28)
.LVL901:
.LBB4697:
.LBB4692:
.LBB4664:
.LBB4662:
	.loc 1 338 0
	mr 3,27
	mtctr 9
	addi 29,28,8
.LVL902:
.LEHB68:
	bctrl
.LEHE68:
.LBE4662:
.LBE4664:
.LBE4692:
	.loc 3 389 0
	mr 29,28
	lwzu 31,8(29)
.LVL903:
.LBB4693:
	.loc 1 834 0
	cmpw 7,31,29
	beq- 7,.L873
.LVL904:
.L918:
	.loc 1 836 0
	lwz 3,8(31)
	lwz 9,0(3)
	lwz 0,8(9)
	mtctr 0
.LEHB69:
	bctrl
	stw 27,8(1)
	mr 30,3
.LVL905:
.LBB4665:
.LBB4666:
.LBB4667:
.LBB4668:
	.loc 1 338 0
	lwz 9,0(3)
	lwz 0,8(9)
	mtctr 0
	bctrl
.LVL906:
.LBE4668:
.LBE4667:
.LBB4669:
.LBB4670:
	.loc 9 528 0
	addi 3,30,4
	addi 4,1,8
.LVL907:
	bl _ZNSt8_Rb_treeIPN7sigslot12_signal_baseINS0_15single_threadedEEES4_St9_IdentityIS4_ESt4lessIS4_ESaIS4_EE5eraseERKS4_
.LVL908:
.LBE4670:
.LBE4669:
.LBB4671:
.LBB4672:
.LBB4673:
	.loc 1 343 0
	lwz 9,0(30)
	mr 3,30
	lwz 0,12(9)
	mtctr 0
	bctrl
.LVL909:
.LBE4673:
.LBE4672:
.LBE4671:
.LBE4666:
.LBE4665:
	.loc 1 837 0
	lwz 3,8(31)
	cmpwi 7,3,0
	beq- 7,.L875
	lwz 9,0(3)
	lwz 0,4(9)
	mtctr 0
	bctrl
.LEHE69:
.L875:
.LVL910:
.LBB4674:
.LBB4675:
	.loc 4 234 0
	lwz 31,0(31)
.LVL911:
.LBE4675:
.LBE4674:
	.loc 1 834 0
	cmpw 7,29,31
	bne+ 7,.L918
.LBE4693:
	.loc 3 389 0
	lwz 31,8(28)
.LVL912:
.LBB4694:
.LBB4676:
.LBB4677:
	.loc 4 1162 0
	cmpw 7,29,31
	bne+ 7,.L927
	b .L873
.LVL913:
.L911:
	.loc 4 1163 0
	mr 31,30
.LVL914:
.L927:
.LBB4678:
.LBB4679:
	.loc 10 112 0
	lwz 30,0(31)
.LVL915:
.LBB4680:
.LBB4681:
	.loc 4 1532 0
	mr 3,31
	bl _ZNSt8__detail15_List_node_base9_M_unhookEv
.LVL916:
.LBB4682:
.LBB4683:
.LBB4684:
	.loc 6 98 0
	mr 3,31
	bl _ZdlPv
.LVL917:
.LBE4684:
.LBE4683:
.LBE4682:
.LBE4681:
.LBE4680:
.LBE4679:
.LBE4678:
	.loc 4 1162 0
	cmpw 7,29,30
	bne+ 7,.L911
.LVL918:
.L873:
.LBE4677:
.LBE4676:
.LBB4685:
.LBB4686:
.LBB4687:
	.loc 1 343 0
	lwz 9,4(28)
	mr 3,27
	lwz 0,12(9)
	mtctr 0
.LEHB70:
	bctrl
.LEHE70:
.LBE4687:
.LBE4686:
.LBE4685:
.LBE4694:
.LBE4697:
.LBB4698:
.LBB4699:
.LBB4700:
.LBB4701:
.LBB4702:
.LBB4703:
	.loc 10 70 0
	lwz 3,8(28)
.LVL919:
	.loc 10 71 0
	cmpw 7,3,29
	bne+ 7,.L929
	b .L891
.LVL920:
.L912:
	.loc 10 74 0
	mr 3,31
.LVL921:
.L929:
.LBB4704:
	lwz 31,0(3)
.LVL922:
.LBB4705:
.LBB4706:
.LBB4707:
	.loc 6 98 0
	bl _ZdlPv
.LVL923:
.LBE4707:
.LBE4706:
.LBE4705:
.LBE4704:
	.loc 10 71 0
	cmpw 7,31,29
	bne+ 7,.L912
.LVL924:
.L891:
.LBE4703:
.LBE4702:
.LBE4701:
.LBE4700:
.LBE4699:
.LBE4698:
.LBE4733:
.LBE4739:
.LBE4745:
.LBE4751:
.LBE4757:
.LBE4766:
.LBE4776:
.LBE4781:
.LBE4786:
.LBE4791:
	.loc 3 122 0
	lwz 0,52(1)
.LBB4792:
.LBB4787:
.LBB4782:
.LBB4777:
.LBB4767:
.LBB4758:
.LBB4752:
.LBB4746:
.LBB4740:
.LBB4734:
.LBB4708:
.LBB4709:
.LBB4710:
.LBB4711:
.LBB4712:
.LBB4713:
	.loc 1 105 0
	stw 26,4(28)
.LBE4713:
.LBE4712:
.LBE4711:
.LBE4710:
.LBE4709:
.LBE4708:
.LBE4734:
.LBE4740:
.LBE4746:
.LBE4752:
.LBE4758:
.LBE4767:
.LBE4777:
.LBE4782:
.LBE4787:
.LBE4792:
	.loc 3 122 0
	mtlr 0
	lwz 26,24(1)
	lwz 27,28(1)
.LVL925:
	lwz 28,32(1)
.LVL926:
	lwz 29,36(1)
.LVL927:
	lwz 30,40(1)
	lwz 31,44(1)
	addi 1,1,48
	.cfi_remember_state
.LCFI104:
	.cfi_def_cfa_offset 0
	.cfi_restore 31
	.cfi_restore 30
	.cfi_restore 29
	.cfi_restore 28
	.cfi_restore 27
	.cfi_restore 26
	blr
.LVL928:
.L914:
.LCFI105:
	.cfi_restore_state
	mr 31,3
.L850:
.LBB4793:
.LBB4788:
.LBB4783:
.LBB4778:
.LBB4768:
.LBB4645:
.LBB4636:
.LBB4627:
.LBB4619:
.LBB4611:
.LBB4584:
.LBB4585:
.LBB4586:
.LBB4587:
.LBB4588:
.LBB4589:
	.loc 10 70 0
	lwz 3,20(28)
.LVL929:
	.loc 10 71 0
	cmpw 7,3,29
	beq- 7,.L867
.LVL930:
.L926:
.LBB4590:
	.loc 10 74 0
	lwz 30,0(3)
.LVL931:
.LBB4591:
.LBB4592:
.LBB4593:
	.loc 6 98 0
	bl _ZdlPv
.LVL932:
.LBE4593:
.LBE4592:
.LBE4591:
.LBE4590:
	.loc 10 71 0
	cmpw 7,30,29
	beq- 7,.L867
	.loc 10 74 0
	mr 3,30
	b .L926
.LVL933:
.L917:
.LBE4589:
.LBE4588:
.LBE4587:
.LBE4586:
.LBE4585:
.LBE4584:
.LBE4611:
.LBE4619:
.LBE4627:
.LBE4636:
.LBE4645:
.LBE4768:
.LBB4769:
.LBB4759:
.LBB4753:
.LBB4747:
.LBB4741:
.LBB4735:
.LBB4714:
.LBB4695:
.LBB4688:
.LBB4689:
.LBB4690:
	.loc 1 343 0
	lwz 9,4(28)
	mr 31,3
.LVL934:
	mr 3,27
	lwz 0,12(9)
	mtctr 0
	bctrl
.LVL935:
.L883:
.LBE4690:
.LBE4689:
.LBE4688:
.LBE4695:
.LBE4714:
.LBB4715:
.LBB4716:
.LBB4717:
.LBB4718:
.LBB4719:
.LBB4720:
	.loc 10 70 0
	lwz 3,8(28)
.LVL936:
	.loc 10 71 0
	cmpw 7,3,29
	beq- 7,.L900
.LVL937:
.L930:
.LBB4721:
	.loc 10 74 0
	lwz 30,0(3)
.LVL938:
.LBB4722:
.LBB4723:
.LBB4724:
	.loc 6 98 0
	bl _ZdlPv
.LVL939:
.LBE4724:
.LBE4723:
.LBE4722:
.LBE4721:
	.loc 10 71 0
	cmpw 7,30,29
	beq- 7,.L900
	.loc 10 74 0
	mr 3,30
	b .L930
.LVL940:
.L867:
.LBE4720:
.LBE4719:
.LBE4718:
.LBE4717:
.LBE4716:
.LBE4715:
.LBE4735:
.LBE4741:
.LBE4747:
.LBE4753:
.LBE4759:
.LBE4769:
.LBB4770:
.LBB4646:
.LBB4637:
.LBB4628:
.LBB4620:
.LBB4612:
.LBB4594:
.LBB4595:
.LBB4596:
.LBB4597:
.LBB4598:
.LBB4599:
	.loc 1 105 0
	lis 9,_ZTVN7sigslot15single_threadedE+8@ha
.LBE4599:
.LBE4598:
.LBE4597:
.LBE4596:
.LBE4595:
.LBE4594:
.LBE4612:
.LBE4620:
.LBE4628:
.LBE4637:
.LBE4646:
.LBE4770:
	.loc 2 89 0
	addi 3,28,4
.LBB4771:
.LBB4647:
.LBB4638:
.LBB4629:
.LBB4621:
.LBB4613:
.LBB4605:
.LBB4604:
.LBB4603:
.LBB4602:
.LBB4601:
.LBB4600:
	.loc 1 105 0
	la 0,_ZTVN7sigslot15single_threadedE+8@l(9)
	stw 0,16(28)
.LBE4600:
.LBE4601:
.LBE4602:
.LBE4603:
.LBE4604:
.LBE4605:
.LBE4613:
.LBE4621:
.LBE4629:
.LBE4638:
.LBE4647:
.LBE4771:
	.loc 2 89 0
	bl _ZN7sigslot7signal2IP10GuiElementbNS_15single_threadedEED1Ev
	mr 3,31
.LEHB71:
	bl _Unwind_Resume
.LVL941:
.L900:
.LBB4772:
.LBB4760:
.LBB4754:
.LBB4748:
.LBB4742:
.LBB4736:
.LBB4725:
.LBB4726:
.LBB4727:
.LBB4728:
.LBB4729:
.LBB4730:
	.loc 1 105 0
	stw 26,4(28)
	mr 3,31
	bl _Unwind_Resume
.LEHE71:
.LVL942:
.L916:
	mr 31,3
	b .L883
.LVL943:
.L915:
.LBE4730:
.LBE4729:
.LBE4728:
.LBE4727:
.LBE4726:
.LBE4725:
.LBE4736:
.LBE4742:
.LBE4748:
.LBE4754:
.LBE4760:
.LBE4772:
.LBB4773:
.LBB4648:
.LBB4639:
.LBB4630:
.LBB4622:
.LBB4614:
.LBB4606:
.LBB4554:
.LBB4548:
.LBB4549:
.LBB4550:
	.loc 1 343 0
	lwz 9,16(28)
	mr 31,3
.LVL944:
	mr 3,27
	lwz 0,12(9)
	mtctr 0
	bctrl
	b .L850
.LBE4550:
.LBE4549:
.LBE4548:
.LBE4554:
.LBE4606:
.LBE4614:
.LBE4622:
.LBE4630:
.LBE4639:
.LBE4648:
.LBE4773:
.LBE4778:
.LBE4783:
.LBE4788:
.LBE4793:
	.cfi_endproc
.LFE1557:
	.section	.gcc_except_table
.LLSDA1557:
	.byte	0xff
	.byte	0xff
	.byte	0x1
	.uleb128 .LLSDACSE1557-.LLSDACSB1557
.LLSDACSB1557:
	.uleb128 .LEHB65-.LFB1557
	.uleb128 .LEHE65-.LEHB65
	.uleb128 .L914-.LFB1557
	.uleb128 0
	.uleb128 .LEHB66-.LFB1557
	.uleb128 .LEHE66-.LEHB66
	.uleb128 .L915-.LFB1557
	.uleb128 0
	.uleb128 .LEHB67-.LFB1557
	.uleb128 .LEHE67-.LEHB67
	.uleb128 .L914-.LFB1557
	.uleb128 0
	.uleb128 .LEHB68-.LFB1557
	.uleb128 .LEHE68-.LEHB68
	.uleb128 .L916-.LFB1557
	.uleb128 0
	.uleb128 .LEHB69-.LFB1557
	.uleb128 .LEHE69-.LEHB69
	.uleb128 .L917-.LFB1557
	.uleb128 0
	.uleb128 .LEHB70-.LFB1557
	.uleb128 .LEHE70-.LEHB70
	.uleb128 .L916-.LFB1557
	.uleb128 0
	.uleb128 .LEHB71-.LFB1557
	.uleb128 .LEHE71-.LEHB71
	.uleb128 0
	.uleb128 0
.LLSDACSE1557:
	.section	".text"
	.size	_ZN8GuiImageD2Ev, .-_ZN8GuiImageD2Ev
	.align 2
	.globl _ZN8GuiImageD0Ev
	.type	_ZN8GuiImageD0Ev, @function
_ZN8GuiImageD0Ev:
.LFB1559:
	.loc 3 120 0
	.cfi_startproc
	.cfi_personality 0,__gxx_personality_v0
	.cfi_lsda 0,.LLSDA1559
.LVL945:
	mflr 0
	stwu 1,-48(1)
.LCFI106:
	.cfi_def_cfa_offset 48
	.cfi_register 65, 0
.LBB4998:
.LBB4999:
.LBB5000:
.LBB5001:
.LBB5002:
.LBB5003:
	.loc 2 89 0
	lis 9,_ZTV10GuiElement+8@ha
.LBE5003:
.LBE5002:
.LBE5001:
.LBE5000:
.LBE4999:
.LBE4998:
	.loc 3 120 0
	stw 27,28(1)
.LBB5279:
.LBB5275:
.LBB5271:
.LBB5267:
.LBB5263:
.LBB5259:
.LBB5004:
.LBB5005:
.LBB5006:
	.loc 1 2305 0
	addi 27,3,16
	.cfi_offset 27, -20
.LBE5006:
.LBE5005:
.LBE5004:
.LBE5259:
.LBE5263:
.LBE5267:
.LBE5271:
.LBE5275:
.LBE5279:
	.loc 3 120 0
	stw 0,52(1)
.LBB5280:
.LBB5276:
.LBB5272:
.LBB5268:
.LBB5264:
.LBB5260:
	.loc 2 89 0
	la 0,_ZTV10GuiElement+8@l(9)
	.cfi_offset 65, 4
.LBB5140:
.LBB5131:
.LBB5122:
.LBB5007:
.LBB5008:
.LBB5009:
	.loc 1 946 0
	lis 9,_ZTVN7sigslot13_signal_base3IP10GuiElementiiNS_15single_threadedEEE+8@ha
.LBE5009:
.LBE5008:
.LBE5007:
.LBE5122:
.LBE5131:
.LBE5140:
.LBE5260:
.LBE5264:
.LBE5268:
.LBE5272:
.LBE5276:
.LBE5280:
	.loc 3 120 0
	stw 28,32(1)
	stw 29,36(1)
	mr 28,3
	.cfi_offset 29, -12
	.cfi_offset 28, -16
.LVL946:
	stw 26,24(1)
	addi 29,28,20
	stw 30,40(1)
	stw 31,44(1)
.LBB5281:
.LBB5277:
.LBB5273:
.LBB5269:
.LBB5265:
.LBB5261:
	.loc 2 89 0
	stw 0,0(3)
.LVL947:
.LBB5141:
.LBB5132:
.LBB5123:
.LBB5114:
.LBB5106:
.LBB5098:
	.loc 1 946 0
	la 0,_ZTVN7sigslot13_signal_base3IP10GuiElementiiNS_15single_threadedEEE+8@l(9)
.LBB5010:
.LBB5011:
.LBB5012:
.LBB5013:
	.loc 1 338 0
	lis 9,_ZN7sigslot15single_threaded4lockEv@ha
.LBE5013:
.LBE5012:
.LBE5011:
.LBE5010:
	.loc 1 946 0
	stw 0,16(3)
.LVL948:
.LBB5046:
.LBB5042:
.LBB5015:
.LBB5014:
	.loc 1 338 0
	la 9,_ZN7sigslot15single_threaded4lockEv@l(9)
	mr 3,27
.LVL949:
	mtctr 9
.LEHB72:
	.cfi_offset 31, -4
	.cfi_offset 30, -8
	.cfi_offset 26, -24
	bctrl
.LEHE72:
.LBE5014:
.LBE5015:
.LBE5042:
	.loc 3 389 0
	mr 29,28
	lwzu 31,20(29)
.LVL950:
.LBB5043:
	.loc 1 954 0
	cmpw 7,31,29
	beq- 7,.L933
.LVL951:
.L1013:
	.loc 1 956 0
	lwz 3,8(31)
	lwz 9,0(3)
	lwz 0,8(9)
	mtctr 0
.LEHB73:
	bctrl
	stw 27,8(1)
	mr 30,3
.LVL952:
.LBB5016:
.LBB5017:
.LBB5018:
.LBB5019:
	.loc 1 338 0
	lwz 9,0(3)
	lwz 0,8(9)
	mtctr 0
	bctrl
.LVL953:
.LBE5019:
.LBE5018:
.LBB5020:
.LBB5021:
	.loc 9 528 0
	addi 3,30,4
	addi 4,1,8
	bl _ZNSt8_Rb_treeIPN7sigslot12_signal_baseINS0_15single_threadedEEES4_St9_IdentityIS4_ESt4lessIS4_ESaIS4_EE5eraseERKS4_
.LVL954:
.LBE5021:
.LBE5020:
.LBB5022:
.LBB5023:
.LBB5024:
	.loc 1 343 0
	lwz 9,0(30)
	mr 3,30
	lwz 0,12(9)
	mtctr 0
	bctrl
.LVL955:
.LBE5024:
.LBE5023:
.LBE5022:
.LBE5017:
.LBE5016:
	.loc 1 957 0
	lwz 3,8(31)
	cmpwi 7,3,0
	beq- 7,.L935
	lwz 9,0(3)
	lwz 0,4(9)
	mtctr 0
	bctrl
.LEHE73:
.L935:
.LVL956:
.LBB5025:
.LBB5026:
	.loc 4 234 0
	lwz 31,0(31)
.LVL957:
.LBE5026:
.LBE5025:
	.loc 1 954 0
	cmpw 7,29,31
	bne+ 7,.L1013
.LBE5043:
	.loc 3 389 0
	lwz 31,20(28)
.LVL958:
.LBB5044:
.LBB5027:
.LBB5028:
	.loc 4 1162 0
	cmpw 7,29,31
	bne+ 7,.L1016
	b .L933
.LVL959:
.L1002:
	.loc 4 1163 0
	mr 31,30
.LVL960:
.L1016:
.LBB5029:
.LBB5030:
	.loc 10 112 0
	lwz 30,0(31)
.LVL961:
.LBB5031:
.LBB5032:
	.loc 4 1532 0
	mr 3,31
	bl _ZNSt8__detail15_List_node_base9_M_unhookEv
.LVL962:
.LBB5033:
.LBB5034:
.LBB5035:
	.loc 6 98 0
	mr 3,31
	bl _ZdlPv
.LVL963:
.LBE5035:
.LBE5034:
.LBE5033:
.LBE5032:
.LBE5031:
.LBE5030:
.LBE5029:
	.loc 4 1162 0
	cmpw 7,29,30
	bne+ 7,.L1002
.LVL964:
.L933:
.LBE5028:
.LBE5027:
.LBB5036:
.LBB5037:
.LBB5038:
	.loc 1 343 0
	lwz 9,16(28)
	mr 3,27
	lwz 0,12(9)
	mtctr 0
.LEHB74:
	bctrl
.LEHE74:
.LBE5038:
.LBE5037:
.LBE5036:
.LBE5044:
.LBE5046:
.LBB5047:
.LBB5048:
.LBB5049:
.LBB5050:
.LBB5051:
.LBB5052:
	.loc 10 70 0
	lwz 3,20(28)
.LVL965:
	.loc 10 71 0
	cmpw 7,3,29
	bne+ 7,.L1018
	b .L951
.LVL966:
.L1003:
	.loc 10 74 0
	mr 3,31
.LVL967:
.L1018:
.LBB5053:
	lwz 31,0(3)
.LVL968:
.LBB5054:
.LBB5055:
.LBB5056:
	.loc 6 98 0
	bl _ZdlPv
.LVL969:
.LBE5056:
.LBE5055:
.LBE5054:
.LBE5053:
	.loc 10 71 0
	cmpw 7,31,29
	bne+ 7,.L1003
.LVL970:
.L951:
.LBE5052:
.LBE5051:
.LBE5050:
.LBE5049:
.LBE5048:
.LBE5047:
.LBE5098:
.LBE5106:
.LBE5114:
.LBE5123:
.LBE5132:
.LBE5141:
.LBB5142:
.LBB5143:
.LBB5144:
.LBB5145:
.LBB5146:
.LBB5147:
	.loc 1 826 0
	lis 9,_ZTVN7sigslot13_signal_base2IP10GuiElementbNS_15single_threadedEEE+8@ha
.LBE5147:
.LBE5146:
.LBE5145:
.LBE5144:
.LBE5143:
.LBE5142:
.LBB5247:
.LBB5133:
.LBB5124:
.LBB5115:
.LBB5107:
.LBB5099:
.LBB5057:
.LBB5058:
.LBB5059:
.LBB5060:
.LBB5061:
.LBB5062:
	.loc 1 105 0
	lis 26,_ZTVN7sigslot15single_threadedE+8@ha
.LBE5062:
.LBE5061:
.LBE5060:
.LBE5059:
.LBE5058:
.LBE5057:
.LBE5099:
.LBE5107:
.LBE5115:
.LBE5124:
.LBE5133:
.LBE5247:
.LBB5248:
.LBB5242:
.LBB5237:
.LBB5232:
.LBB5227:
.LBB5222:
	.loc 1 826 0
	la 0,_ZTVN7sigslot13_signal_base2IP10GuiElementbNS_15single_threadedEEE+8@l(9)
.LBB5148:
.LBB5149:
.LBB5150:
.LBB5151:
	.loc 1 338 0
	lis 9,_ZN7sigslot15single_threaded4lockEv@ha
.LBE5151:
.LBE5150:
.LBE5149:
.LBE5148:
.LBE5222:
.LBE5227:
.LBE5232:
.LBE5237:
.LBE5242:
.LBE5248:
.LBB5249:
.LBB5134:
.LBB5125:
.LBB5116:
.LBB5108:
.LBB5100:
.LBB5073:
.LBB5071:
.LBB5069:
.LBB5067:
.LBB5065:
.LBB5063:
	.loc 1 105 0
	la 26,_ZTVN7sigslot15single_threadedE+8@l(26)
.LBE5063:
.LBE5065:
.LBE5067:
.LBE5069:
.LBE5071:
.LBE5073:
.LBE5100:
.LBE5108:
.LBE5116:
.LBE5125:
.LBE5134:
.LBE5249:
.LBB5250:
.LBB5243:
.LBB5238:
	.loc 1 2238 0
	addi 27,28,4
.LVL971:
.LBB5233:
.LBB5228:
.LBB5223:
.LBB5187:
.LBB5182:
.LBB5154:
.LBB5152:
	.loc 1 338 0
	la 9,_ZN7sigslot15single_threaded4lockEv@l(9)
.LBE5152:
.LBE5154:
.LBE5182:
.LBE5187:
.LBE5223:
.LBE5228:
.LBE5233:
.LBE5238:
.LBE5243:
.LBE5250:
.LBB5251:
.LBB5135:
.LBB5126:
.LBB5117:
.LBB5109:
.LBB5101:
.LBB5074:
.LBB5072:
.LBB5070:
.LBB5068:
.LBB5066:
.LBB5064:
	.loc 1 105 0
	stw 26,16(28)
.LVL972:
.LBE5064:
.LBE5066:
.LBE5068:
.LBE5070:
.LBE5072:
.LBE5074:
.LBE5101:
.LBE5109:
.LBE5117:
.LBE5126:
.LBE5135:
.LBE5251:
.LBB5252:
.LBB5244:
.LBB5239:
.LBB5234:
.LBB5229:
.LBB5224:
	.loc 1 826 0
	stw 0,4(28)
.LVL973:
.LBB5188:
.LBB5183:
.LBB5155:
.LBB5153:
	.loc 1 338 0
	mr 3,27
	mtctr 9
	addi 29,28,8
.LVL974:
.LEHB75:
	bctrl
.LEHE75:
.LBE5153:
.LBE5155:
.LBE5183:
	.loc 3 389 0
	mr 29,28
	lwzu 31,8(29)
.LVL975:
.LBB5184:
	.loc 1 834 0
	cmpw 7,31,29
	beq- 7,.L966
.LVL976:
.L1012:
	.loc 1 836 0
	lwz 3,8(31)
	lwz 9,0(3)
	lwz 0,8(9)
	mtctr 0
.LEHB76:
	bctrl
	stw 27,8(1)
	mr 30,3
.LVL977:
.LBB5156:
.LBB5157:
.LBB5158:
.LBB5159:
	.loc 1 338 0
	lwz 9,0(3)
	lwz 0,8(9)
	mtctr 0
	bctrl
.LVL978:
.LBE5159:
.LBE5158:
.LBB5160:
.LBB5161:
	.loc 9 528 0
	addi 3,30,4
	addi 4,1,8
.LVL979:
	bl _ZNSt8_Rb_treeIPN7sigslot12_signal_baseINS0_15single_threadedEEES4_St9_IdentityIS4_ESt4lessIS4_ESaIS4_EE5eraseERKS4_
.LVL980:
.LBE5161:
.LBE5160:
.LBB5162:
.LBB5163:
.LBB5164:
	.loc 1 343 0
	lwz 9,0(30)
	mr 3,30
	lwz 0,12(9)
	mtctr 0
	bctrl
.LVL981:
.LBE5164:
.LBE5163:
.LBE5162:
.LBE5157:
.LBE5156:
	.loc 1 837 0
	lwz 3,8(31)
	cmpwi 7,3,0
	beq- 7,.L968
	lwz 9,0(3)
	lwz 0,4(9)
	mtctr 0
	bctrl
.LEHE76:
.L968:
.LVL982:
.LBB5165:
.LBB5166:
	.loc 4 234 0
	lwz 31,0(31)
.LVL983:
.LBE5166:
.LBE5165:
	.loc 1 834 0
	cmpw 7,29,31
	bne+ 7,.L1012
.LBE5184:
	.loc 3 389 0
	lwz 31,8(28)
.LVL984:
.LBB5185:
.LBB5167:
.LBB5168:
	.loc 4 1162 0
	cmpw 7,29,31
	bne+ 7,.L1021
	b .L966
.LVL985:
.L1005:
	.loc 4 1163 0
	mr 31,30
.LVL986:
.L1021:
.LBB5169:
.LBB5170:
	.loc 10 112 0
	lwz 30,0(31)
.LVL987:
.LBB5171:
.LBB5172:
	.loc 4 1532 0
	mr 3,31
	bl _ZNSt8__detail15_List_node_base9_M_unhookEv
.LVL988:
.LBB5173:
.LBB5174:
.LBB5175:
	.loc 6 98 0
	mr 3,31
	bl _ZdlPv
.LVL989:
.LBE5175:
.LBE5174:
.LBE5173:
.LBE5172:
.LBE5171:
.LBE5170:
.LBE5169:
	.loc 4 1162 0
	cmpw 7,29,30
	bne+ 7,.L1005
.LVL990:
.L966:
.LBE5168:
.LBE5167:
.LBB5176:
.LBB5177:
.LBB5178:
	.loc 1 343 0
	lwz 9,4(28)
	mr 3,27
	lwz 0,12(9)
	mtctr 0
.LEHB77:
	bctrl
.LEHE77:
.LBE5178:
.LBE5177:
.LBE5176:
.LBE5185:
.LBE5188:
.LBB5189:
.LBB5190:
.LBB5191:
.LBB5192:
.LBB5193:
.LBB5194:
	.loc 10 70 0
	lwz 3,8(28)
.LVL991:
	.loc 10 71 0
	cmpw 7,3,29
	bne+ 7,.L1023
	b .L984
.LVL992:
.L1006:
	.loc 10 74 0
	mr 3,31
.LVL993:
.L1023:
.LBB5195:
	lwz 31,0(3)
.LVL994:
.LBB5196:
.LBB5197:
.LBB5198:
	.loc 6 98 0
	bl _ZdlPv
.LVL995:
.LBE5198:
.LBE5197:
.LBE5196:
.LBE5195:
	.loc 10 71 0
	cmpw 7,31,29
	bne+ 7,.L1006
.LVL996:
.L984:
.LBE5194:
.LBE5193:
.LBE5192:
.LBE5191:
.LBE5190:
.LBE5189:
.LBB5199:
.LBB5200:
.LBB5201:
.LBB5202:
.LBB5203:
.LBB5204:
	.loc 1 105 0
	stw 26,4(28)
.LBE5204:
.LBE5203:
.LBE5202:
.LBE5201:
.LBE5200:
.LBE5199:
.LBE5224:
.LBE5229:
.LBE5234:
.LBE5239:
.LBE5244:
.LBE5252:
.LBE5261:
.LBE5265:
.LBE5269:
.LBE5273:
.LBE5277:
.LBE5281:
	.loc 3 122 0
	mr 3,28
	bl _ZdlPv
	lwz 0,52(1)
	lwz 26,24(1)
	mtlr 0
	lwz 27,28(1)
.LVL997:
	lwz 28,32(1)
.LVL998:
	lwz 29,36(1)
.LVL999:
	lwz 30,40(1)
	lwz 31,44(1)
	addi 1,1,48
	.cfi_remember_state
.LCFI107:
	.cfi_def_cfa_offset 0
	.cfi_restore 31
	.cfi_restore 30
	.cfi_restore 29
	.cfi_restore 28
	.cfi_restore 27
	.cfi_restore 26
	blr
.LVL1000:
.L1008:
.LCFI108:
	.cfi_restore_state
	mr 31,3
.L943:
.LBB5282:
.LBB5278:
.LBB5274:
.LBB5270:
.LBB5266:
.LBB5262:
.LBB5253:
.LBB5136:
.LBB5127:
.LBB5118:
.LBB5110:
.LBB5102:
.LBB5075:
.LBB5076:
.LBB5077:
.LBB5078:
.LBB5079:
.LBB5080:
	.loc 10 70 0
	lwz 3,20(28)
.LVL1001:
	.loc 10 71 0
	cmpw 7,3,29
	beq- 7,.L960
.LVL1002:
.L1020:
.LBB5081:
	.loc 10 74 0
	lwz 30,0(3)
.LVL1003:
.LBB5082:
.LBB5083:
.LBB5084:
	.loc 6 98 0
	bl _ZdlPv
.LVL1004:
.LBE5084:
.LBE5083:
.LBE5082:
.LBE5081:
	.loc 10 71 0
	cmpw 7,30,29
	beq- 7,.L960
	.loc 10 74 0
	mr 3,30
	b .L1020
.LVL1005:
.L1011:
.LBE5080:
.LBE5079:
.LBE5078:
.LBE5077:
.LBE5076:
.LBE5075:
.LBE5102:
.LBE5110:
.LBE5118:
.LBE5127:
.LBE5136:
.LBE5253:
.LBB5254:
.LBB5245:
.LBB5240:
.LBB5235:
.LBB5230:
.LBB5225:
.LBB5205:
.LBB5186:
.LBB5179:
.LBB5180:
.LBB5181:
	.loc 1 343 0
	lwz 9,4(28)
	mr 31,3
.LVL1006:
	mr 3,27
	lwz 0,12(9)
	mtctr 0
	bctrl
.LVL1007:
.L976:
.LBE5181:
.LBE5180:
.LBE5179:
.LBE5186:
.LBE5205:
.LBB5206:
.LBB5207:
.LBB5208:
.LBB5209:
.LBB5210:
.LBB5211:
	.loc 10 70 0
	lwz 3,8(28)
.LVL1008:
	.loc 10 71 0
	cmpw 7,3,29
	beq- 7,.L993
.LVL1009:
.L1024:
.LBB5212:
	.loc 10 74 0
	lwz 30,0(3)
.LVL1010:
.LBB5213:
.LBB5214:
.LBB5215:
	.loc 6 98 0
	bl _ZdlPv
.LVL1011:
.LBE5215:
.LBE5214:
.LBE5213:
.LBE5212:
	.loc 10 71 0
	cmpw 7,30,29
	beq- 7,.L993
	.loc 10 74 0
	mr 3,30
	b .L1024
.LVL1012:
.L960:
.LBE5211:
.LBE5210:
.LBE5209:
.LBE5208:
.LBE5207:
.LBE5206:
.LBE5225:
.LBE5230:
.LBE5235:
.LBE5240:
.LBE5245:
.LBE5254:
.LBB5255:
.LBB5137:
.LBB5128:
.LBB5119:
.LBB5111:
.LBB5103:
.LBB5085:
.LBB5086:
.LBB5087:
.LBB5088:
.LBB5089:
.LBB5090:
	.loc 1 105 0
	lis 9,_ZTVN7sigslot15single_threadedE+8@ha
.LBE5090:
.LBE5089:
.LBE5088:
.LBE5087:
.LBE5086:
.LBE5085:
.LBE5103:
.LBE5111:
.LBE5119:
.LBE5128:
.LBE5137:
.LBE5255:
	.loc 2 89 0
	addi 3,28,4
.LBB5256:
.LBB5138:
.LBB5129:
.LBB5120:
.LBB5112:
.LBB5104:
.LBB5096:
.LBB5095:
.LBB5094:
.LBB5093:
.LBB5092:
.LBB5091:
	.loc 1 105 0
	la 0,_ZTVN7sigslot15single_threadedE+8@l(9)
	stw 0,16(28)
.LBE5091:
.LBE5092:
.LBE5093:
.LBE5094:
.LBE5095:
.LBE5096:
.LBE5104:
.LBE5112:
.LBE5120:
.LBE5129:
.LBE5138:
.LBE5256:
	.loc 2 89 0
	bl _ZN7sigslot7signal2IP10GuiElementbNS_15single_threadedEED1Ev
	mr 3,31
.LEHB78:
	bl _Unwind_Resume
.LVL1013:
.L993:
.LBB5257:
.LBB5246:
.LBB5241:
.LBB5236:
.LBB5231:
.LBB5226:
.LBB5216:
.LBB5217:
.LBB5218:
.LBB5219:
.LBB5220:
.LBB5221:
	.loc 1 105 0
	stw 26,4(28)
	mr 3,31
	bl _Unwind_Resume
.LEHE78:
.LVL1014:
.L1010:
	mr 31,3
	b .L976
.LVL1015:
.L1009:
.LBE5221:
.LBE5220:
.LBE5219:
.LBE5218:
.LBE5217:
.LBE5216:
.LBE5226:
.LBE5231:
.LBE5236:
.LBE5241:
.LBE5246:
.LBE5257:
.LBB5258:
.LBB5139:
.LBB5130:
.LBB5121:
.LBB5113:
.LBB5105:
.LBB5097:
.LBB5045:
.LBB5039:
.LBB5040:
.LBB5041:
	.loc 1 343 0
	lwz 9,16(28)
	mr 31,3
.LVL1016:
	mr 3,27
	lwz 0,12(9)
	mtctr 0
	bctrl
	b .L943
.LBE5041:
.LBE5040:
.LBE5039:
.LBE5045:
.LBE5097:
.LBE5105:
.LBE5113:
.LBE5121:
.LBE5130:
.LBE5139:
.LBE5258:
.LBE5262:
.LBE5266:
.LBE5270:
.LBE5274:
.LBE5278:
.LBE5282:
	.cfi_endproc
.LFE1559:
	.section	.gcc_except_table
.LLSDA1559:
	.byte	0xff
	.byte	0xff
	.byte	0x1
	.uleb128 .LLSDACSE1559-.LLSDACSB1559
.LLSDACSB1559:
	.uleb128 .LEHB72-.LFB1559
	.uleb128 .LEHE72-.LEHB72
	.uleb128 .L1008-.LFB1559
	.uleb128 0
	.uleb128 .LEHB73-.LFB1559
	.uleb128 .LEHE73-.LEHB73
	.uleb128 .L1009-.LFB1559
	.uleb128 0
	.uleb128 .LEHB74-.LFB1559
	.uleb128 .LEHE74-.LEHB74
	.uleb128 .L1008-.LFB1559
	.uleb128 0
	.uleb128 .LEHB75-.LFB1559
	.uleb128 .LEHE75-.LEHB75
	.uleb128 .L1010-.LFB1559
	.uleb128 0
	.uleb128 .LEHB76-.LFB1559
	.uleb128 .LEHE76-.LEHB76
	.uleb128 .L1011-.LFB1559
	.uleb128 0
	.uleb128 .LEHB77-.LFB1559
	.uleb128 .LEHE77-.LEHB77
	.uleb128 .L1010-.LFB1559
	.uleb128 0
	.uleb128 .LEHB78-.LFB1559
	.uleb128 .LEHE78-.LEHB78
	.uleb128 0
	.uleb128 0
.LLSDACSE1559:
	.section	".text"
	.size	_ZN8GuiImageD0Ev, .-_ZN8GuiImageD0Ev
	.section	.text._ZN7sigslot7signal2IP10GuiElementbNS_15single_threadedEED0Ev,"axG",@progbits,_ZN7sigslot7signal2IP10GuiElementbNS_15single_threadedEED5Ev,comdat
	.align 2
	.weak	_ZN7sigslot7signal2IP10GuiElementbNS_15single_threadedEED0Ev
	.type	_ZN7sigslot7signal2IP10GuiElementbNS_15single_threadedEED0Ev, @function
_ZN7sigslot7signal2IP10GuiElementbNS_15single_threadedEED0Ev:
.LFB1582:
	.loc 1 2235 0
	.cfi_startproc
	.cfi_personality 0,__gxx_personality_v0
	.cfi_lsda 0,.LLSDA1582
.LVL1017:
	mflr 0
	stwu 1,-40(1)
.LCFI109:
	.cfi_def_cfa_offset 40
	.cfi_register 65, 0
.LBB5381:
.LBB5382:
.LBB5383:
.LBB5384:
.LBB5385:
.LBB5386:
	.loc 1 826 0
	lis 9,_ZTVN7sigslot13_signal_base2IP10GuiElementbNS_15single_threadedEEE+8@ha
.LBE5386:
.LBE5385:
.LBE5384:
.LBE5383:
.LBE5382:
.LBE5381:
	.loc 1 2235 0
	stw 28,24(1)
	mr 28,3
	.cfi_offset 28, -16
.LVL1018:
	stw 0,44(1)
.LBB5483:
.LBB5479:
.LBB5475:
.LBB5471:
.LBB5467:
.LBB5463:
	.loc 1 826 0
	la 0,_ZTVN7sigslot13_signal_base2IP10GuiElementbNS_15single_threadedEEE+8@l(9)
	.cfi_offset 65, 4
.LBE5463:
.LBE5467:
.LBE5471:
.LBE5475:
.LBE5479:
.LBE5483:
	.loc 1 2235 0
	stw 29,28(1)
	addi 29,3,4
	.cfi_offset 29, -12
	stw 30,32(1)
	stw 31,36(1)
.LBB5484:
.LBB5480:
.LBB5476:
.LBB5472:
.LBB5468:
.LBB5464:
	.loc 1 826 0
	stw 0,0(3)
.LVL1019:
.LEHB79:
.LBB5387:
.LBB5388:
.LBB5389:
.LBB5390:
	.loc 1 338 0
	.cfi_offset 31, -4
	.cfi_offset 30, -8
	bl _ZN7sigslot15single_threaded4lockEv
.LEHE79:
.LVL1020:
.LBE5390:
.LBE5389:
.LBE5388:
	.loc 3 389 0
	mr 29,28
.LVL1021:
	lwzu 31,4(29)
.LVL1022:
.LBB5421:
	.loc 1 834 0
	cmpw 7,31,29
	beq- 7,.L1026
.LVL1023:
.L1065:
	.loc 1 836 0
	lwz 3,8(31)
	lwz 9,0(3)
	lwz 0,8(9)
	mtctr 0
.LEHB80:
	bctrl
.LBB5391:
.LBB5392:
.LBB5393:
.LBB5394:
	.loc 1 338 0
	lwz 9,0(3)
.LBE5394:
.LBE5393:
.LBE5392:
.LBE5391:
	.loc 1 836 0
	mr 30,3
.LVL1024:
	stw 28,8(1)
.LVL1025:
.LBB5403:
.LBB5402:
.LBB5396:
.LBB5395:
	.loc 1 338 0
	lwz 0,8(9)
	mtctr 0
	bctrl
.LVL1026:
.LBE5395:
.LBE5396:
.LBB5397:
.LBB5398:
	.loc 9 528 0
	addi 3,30,4
	addi 4,1,8
	bl _ZNSt8_Rb_treeIPN7sigslot12_signal_baseINS0_15single_threadedEEES4_St9_IdentityIS4_ESt4lessIS4_ESaIS4_EE5eraseERKS4_
.LVL1027:
.LBE5398:
.LBE5397:
.LBB5399:
.LBB5400:
.LBB5401:
	.loc 1 343 0
	lwz 9,0(30)
	mr 3,30
	lwz 0,12(9)
	mtctr 0
	bctrl
.LVL1028:
.LBE5401:
.LBE5400:
.LBE5399:
.LBE5402:
.LBE5403:
	.loc 1 837 0
	lwz 3,8(31)
	cmpwi 7,3,0
	beq- 7,.L1028
	lwz 9,0(3)
	lwz 0,4(9)
	mtctr 0
	bctrl
.LEHE80:
.L1028:
.LVL1029:
.LBB5404:
.LBB5405:
	.loc 4 234 0
	lwz 31,0(31)
.LVL1030:
.LBE5405:
.LBE5404:
	.loc 1 834 0
	cmpw 7,29,31
	bne+ 7,.L1065
.LBE5421:
	.loc 3 389 0
	lwz 31,4(28)
.LVL1031:
.LBB5422:
.LBB5406:
.LBB5407:
	.loc 4 1162 0
	cmpw 7,29,31
	bne+ 7,.L1067
	b .L1026
.LVL1032:
.L1060:
	.loc 4 1163 0
	mr 31,30
.LVL1033:
.L1067:
.LBB5408:
.LBB5409:
	.loc 10 112 0
	lwz 30,0(31)
.LVL1034:
.LBB5410:
.LBB5411:
	.loc 4 1532 0
	mr 3,31
	bl _ZNSt8__detail15_List_node_base9_M_unhookEv
.LVL1035:
.LBB5412:
.LBB5413:
.LBB5414:
	.loc 6 98 0
	mr 3,31
	bl _ZdlPv
.LVL1036:
.LBE5414:
.LBE5413:
.LBE5412:
.LBE5411:
.LBE5410:
.LBE5409:
.LBE5408:
	.loc 4 1162 0
	cmpw 7,29,30
	bne+ 7,.L1060
.LVL1037:
.L1026:
.LBE5407:
.LBE5406:
.LBB5415:
.LBB5416:
.LBB5417:
	.loc 1 343 0
	lwz 9,0(28)
	mr 3,28
	lwz 0,12(9)
	mtctr 0
.LEHB81:
	bctrl
.LEHE81:
.LBE5417:
.LBE5416:
.LBE5415:
.LBE5422:
.LBE5387:
.LBB5424:
.LBB5425:
.LBB5426:
.LBB5427:
.LBB5428:
.LBB5429:
	.loc 10 70 0
	lwz 3,4(28)
.LVL1038:
	.loc 10 71 0
	cmpw 7,3,29
	bne+ 7,.L1069
	b .L1044
.LVL1039:
.L1061:
	.loc 10 74 0
	mr 3,31
.LVL1040:
.L1069:
.LBB5430:
	lwz 31,0(3)
.LVL1041:
.LBB5431:
.LBB5432:
.LBB5433:
	.loc 6 98 0
	bl _ZdlPv
.LVL1042:
.LBE5433:
.LBE5432:
.LBE5431:
.LBE5430:
	.loc 10 71 0
	cmpw 7,31,29
	bne+ 7,.L1061
.LVL1043:
.L1044:
.LBE5429:
.LBE5428:
.LBE5427:
.LBE5426:
.LBE5425:
.LBE5424:
.LBB5434:
.LBB5435:
.LBB5436:
.LBB5437:
.LBB5438:
.LBB5439:
	.loc 1 105 0
	lis 9,_ZTVN7sigslot15single_threadedE+8@ha
.LBE5439:
.LBE5438:
.LBE5437:
.LBE5436:
.LBE5435:
.LBE5434:
.LBE5464:
.LBE5468:
.LBE5472:
.LBE5476:
.LBE5480:
.LBE5484:
	.loc 1 2238 0
	mr 3,28
.LBB5485:
.LBB5481:
.LBB5477:
.LBB5473:
.LBB5469:
.LBB5465:
.LBB5445:
.LBB5444:
.LBB5443:
.LBB5442:
.LBB5441:
.LBB5440:
	.loc 1 105 0
	la 0,_ZTVN7sigslot15single_threadedE+8@l(9)
	stw 0,0(28)
.LBE5440:
.LBE5441:
.LBE5442:
.LBE5443:
.LBE5444:
.LBE5445:
.LBE5465:
.LBE5469:
.LBE5473:
.LBE5477:
.LBE5481:
.LBE5485:
	.loc 1 2238 0
	bl _ZdlPv
	lwz 0,44(1)
	lwz 28,24(1)
.LVL1044:
	mtlr 0
	lwz 29,28(1)
.LVL1045:
	lwz 30,32(1)
	lwz 31,36(1)
	addi 1,1,40
	.cfi_remember_state
.LCFI110:
	.cfi_def_cfa_offset 0
	.cfi_restore 31
	.cfi_restore 30
	.cfi_restore 29
	.cfi_restore 28
	blr
.LVL1046:
.L1063:
.LCFI111:
	.cfi_restore_state
	mr 31,3
.L1036:
.LBB5486:
.LBB5482:
.LBB5478:
.LBB5474:
.LBB5470:
.LBB5466:
.LBB5446:
.LBB5447:
.LBB5448:
.LBB5449:
.LBB5450:
.LBB5451:
	.loc 10 70 0
	lwz 3,4(28)
.LVL1047:
	.loc 10 71 0
	cmpw 7,3,29
	beq- 7,.L1053
.LVL1048:
.L1070:
.LBB5452:
	.loc 10 74 0
	lwz 30,0(3)
.LVL1049:
.LBB5453:
.LBB5454:
.LBB5455:
	.loc 6 98 0
	bl _ZdlPv
.LVL1050:
.LBE5455:
.LBE5454:
.LBE5453:
.LBE5452:
	.loc 10 71 0
	cmpw 7,30,29
	beq- 7,.L1053
	.loc 10 74 0
	mr 3,30
	b .L1070
.LVL1051:
.L1064:
.LBE5451:
.LBE5450:
.LBE5449:
.LBE5448:
.LBE5447:
.LBE5446:
.LBB5456:
.LBB5423:
.LBB5418:
.LBB5419:
.LBB5420:
	.loc 1 343 0
	lwz 9,0(28)
	mr 31,3
.LVL1052:
	mr 3,28
	lwz 0,12(9)
	mtctr 0
	bctrl
	b .L1036
.LVL1053:
.L1053:
.LBE5420:
.LBE5419:
.LBE5418:
.LBE5423:
.LBE5456:
.LBB5457:
.LBB5458:
.LBB5459:
.LBB5460:
.LBB5461:
.LBB5462:
	.loc 1 105 0
	lis 9,_ZTVN7sigslot15single_threadedE+8@ha
	mr 3,31
	la 0,_ZTVN7sigslot15single_threadedE+8@l(9)
	stw 0,0(28)
.LEHB82:
	bl _Unwind_Resume
.LEHE82:
.LBE5462:
.LBE5461:
.LBE5460:
.LBE5459:
.LBE5458:
.LBE5457:
.LBE5466:
.LBE5470:
.LBE5474:
.LBE5478:
.LBE5482:
.LBE5486:
	.cfi_endproc
.LFE1582:
	.section	.gcc_except_table
.LLSDA1582:
	.byte	0xff
	.byte	0xff
	.byte	0x1
	.uleb128 .LLSDACSE1582-.LLSDACSB1582
.LLSDACSB1582:
	.uleb128 .LEHB79-.LFB1582
	.uleb128 .LEHE79-.LEHB79
	.uleb128 .L1063-.LFB1582
	.uleb128 0
	.uleb128 .LEHB80-.LFB1582
	.uleb128 .LEHE80-.LEHB80
	.uleb128 .L1064-.LFB1582
	.uleb128 0
	.uleb128 .LEHB81-.LFB1582
	.uleb128 .LEHE81-.LEHB81
	.uleb128 .L1063-.LFB1582
	.uleb128 0
	.uleb128 .LEHB82-.LFB1582
	.uleb128 .LEHE82-.LEHB82
	.uleb128 0
	.uleb128 0
.LLSDACSE1582:
	.section	.text._ZN7sigslot7signal2IP10GuiElementbNS_15single_threadedEED0Ev,"axG",@progbits,_ZN7sigslot7signal2IP10GuiElementbNS_15single_threadedEED5Ev,comdat
	.size	_ZN7sigslot7signal2IP10GuiElementbNS_15single_threadedEED0Ev, .-_ZN7sigslot7signal2IP10GuiElementbNS_15single_threadedEED0Ev
	.weak	_ZTS8GuiImage
	.section	.rodata._ZTS8GuiImage,"aG",@progbits,_ZTS8GuiImage,comdat
	.align 2
	.type	_ZTS8GuiImage, @object
	.size	_ZTS8GuiImage, 10
_ZTS8GuiImage:
	.string	"8GuiImage"
	.weak	_ZTI8GuiImage
	.section	.rodata._ZTI8GuiImage,"aG",@progbits,_ZTI8GuiImage,comdat
	.align 2
	.type	_ZTI8GuiImage, @object
	.size	_ZTI8GuiImage, 12
_ZTI8GuiImage:
	.long	_ZTVN10__cxxabiv120__si_class_type_infoE+8
	.long	_ZTS8GuiImage
	.long	_ZTI10GuiElement
	.weak	_ZTV8GuiImage
	.section	.rodata._ZTV8GuiImage,"aG",@progbits,_ZTV8GuiImage,comdat
	.align 3
	.type	_ZTV8GuiImage, @object
	.size	_ZTV8GuiImage, 208
_ZTV8GuiImage:
	.long	0
	.long	_ZTI8GuiImage
	.long	_ZN8GuiImageD1Ev
	.long	_ZN8GuiImageD0Ev
	.long	_ZN10GuiElement9SetParentEPS_
	.long	_ZN10GuiElement9GetParentEv
	.long	_ZN10GuiElement7GetLeftEv
	.long	_ZN10GuiElement6GetTopEv
	.long	_ZN10GuiElement12GetZPositionEv
	.long	_ZN10GuiElement10GetLeftPosEv
	.long	_ZN10GuiElement9GetTopPosEv
	.long	_ZN10GuiElement8GetWidthEv
	.long	_ZN10GuiElement9GetHeightEv
	.long	_ZN8GuiImage7SetSizeEii
	.long	_ZN10GuiElement10SetVisibleEb
	.long	_ZN10GuiElement9IsVisibleEv
	.long	_ZN10GuiElement12IsSelectableEv
	.long	_ZN10GuiElement11IsClickableEv
	.long	_ZN10GuiElement10IsHoldableEv
	.long	_ZN10GuiElement13SetSelectableEb
	.long	_ZN10GuiElement12SetClickableEb
	.long	_ZN10GuiElement11SetHoldableEb
	.long	_ZN10GuiElement8SetStateEii
	.long	_ZN10GuiElement8GetStateEv
	.long	_ZN10GuiElement12GetStateChanEv
	.long	_ZN10GuiElement10ResetStateEv
	.long	_ZN10GuiElement8SetAlphaEi
	.long	_ZN10GuiElement8GetAlphaEv
	.long	_ZN10GuiElement8SetScaleEf
	.long	_ZN10GuiElement9SetScaleXEf
	.long	_ZN10GuiElement9SetScaleYEf
	.long	_ZN10GuiElement8GetScaleEv
	.long	_ZN10GuiElement9GetScaleXEv
	.long	_ZN10GuiElement9GetScaleYEv
	.long	_ZN10GuiElement6RumbleEv
	.long	_ZN10GuiElement9SetRumbleEb
	.long	_ZN10GuiElement9SetEffectEiii
	.long	_ZN10GuiElement15SetEffectOnOverEiii
	.long	_ZN10GuiElement13SetEffectGrowEv
	.long	_ZN10GuiElement12ResetEffectsEv
	.long	_ZNK10GuiElement9GetEffectEv
	.long	_ZNK10GuiElement10IsAnimatedEv
	.long	_ZN10GuiElement9SetBoundsE4RectIiE
	.long	_ZN10GuiElement8IsInsideEii
	.long	_ZN10GuiElement11SetPositionEii
	.long	_ZN10GuiElement11SetPositionEiii
	.long	_ZN10GuiElement11GetSelectedEv
	.long	_ZN10GuiElement12SetAlignmentEi
	.long	_ZNK10GuiElement12GetAlignmentEv
	.long	_ZN10GuiElement6UpdateEP10GuiTrigger
	.long	_ZN8GuiImage4DrawEv
	.long	_ZN10GuiElement13UpdateEffectsEv
	.weak	_ZTVN7sigslot7signal2IP10GuiElementbNS_15single_threadedEEE
	.section	.rodata._ZTVN7sigslot7signal2IP10GuiElementbNS_15single_threadedEEE,"aG",@progbits,_ZTVN7sigslot7signal2IP10GuiElementbNS_15single_threadedEEE,comdat
	.align 3
	.type	_ZTVN7sigslot7signal2IP10GuiElementbNS_15single_threadedEEE, @object
	.size	_ZTVN7sigslot7signal2IP10GuiElementbNS_15single_threadedEEE, 32
_ZTVN7sigslot7signal2IP10GuiElementbNS_15single_threadedEEE:
	.long	0
	.long	_ZTIN7sigslot7signal2IP10GuiElementbNS_15single_threadedEEE
	.long	_ZN7sigslot7signal2IP10GuiElementbNS_15single_threadedEED1Ev
	.long	_ZN7sigslot7signal2IP10GuiElementbNS_15single_threadedEED0Ev
	.long	_ZN7sigslot15single_threaded4lockEv
	.long	_ZN7sigslot15single_threaded6unlockEv
	.long	_ZN7sigslot13_signal_base2IP10GuiElementbNS_15single_threadedEE15slot_disconnectEPNS_9has_slotsIS3_EE
	.long	_ZN7sigslot13_signal_base2IP10GuiElementbNS_15single_threadedEE14slot_duplicateEPKNS_9has_slotsIS3_EEPS6_
	.weak	_ZTVN7sigslot13_signal_base2IP10GuiElementbNS_15single_threadedEEE
	.section	.rodata._ZTVN7sigslot13_signal_base2IP10GuiElementbNS_15single_threadedEEE,"aG",@progbits,_ZTVN7sigslot13_signal_base2IP10GuiElementbNS_15single_threadedEEE,comdat
	.align 3
	.type	_ZTVN7sigslot13_signal_base2IP10GuiElementbNS_15single_threadedEEE, @object
	.size	_ZTVN7sigslot13_signal_base2IP10GuiElementbNS_15single_threadedEEE, 32
_ZTVN7sigslot13_signal_base2IP10GuiElementbNS_15single_threadedEEE:
	.long	0
	.long	_ZTIN7sigslot13_signal_base2IP10GuiElementbNS_15single_threadedEEE
	.long	_ZN7sigslot13_signal_base2IP10GuiElementbNS_15single_threadedEED1Ev
	.long	_ZN7sigslot13_signal_base2IP10GuiElementbNS_15single_threadedEED0Ev
	.long	_ZN7sigslot15single_threaded4lockEv
	.long	_ZN7sigslot15single_threaded6unlockEv
	.long	_ZN7sigslot13_signal_base2IP10GuiElementbNS_15single_threadedEE15slot_disconnectEPNS_9has_slotsIS3_EE
	.long	_ZN7sigslot13_signal_base2IP10GuiElementbNS_15single_threadedEE14slot_duplicateEPKNS_9has_slotsIS3_EEPS6_
	.weak	_ZTVN7sigslot12_signal_baseINS_15single_threadedEEE
	.section	.rodata._ZTVN7sigslot12_signal_baseINS_15single_threadedEEE,"aG",@progbits,_ZTVN7sigslot12_signal_baseINS_15single_threadedEEE,comdat
	.align 3
	.type	_ZTVN7sigslot12_signal_baseINS_15single_threadedEEE, @object
	.size	_ZTVN7sigslot12_signal_baseINS_15single_threadedEEE, 32
_ZTVN7sigslot12_signal_baseINS_15single_threadedEEE:
	.long	0
	.long	_ZTIN7sigslot12_signal_baseINS_15single_threadedEEE
	.long	_ZN7sigslot12_signal_baseINS_15single_threadedEED1Ev
	.long	_ZN7sigslot12_signal_baseINS_15single_threadedEED0Ev
	.long	_ZN7sigslot15single_threaded4lockEv
	.long	_ZN7sigslot15single_threaded6unlockEv
	.long	__cxa_pure_virtual
	.long	__cxa_pure_virtual
	.weak	_ZTVN7sigslot15single_threadedE
	.section	.rodata._ZTVN7sigslot15single_threadedE,"aG",@progbits,_ZTVN7sigslot15single_threadedE,comdat
	.align 3
	.type	_ZTVN7sigslot15single_threadedE, @object
	.size	_ZTVN7sigslot15single_threadedE, 24
_ZTVN7sigslot15single_threadedE:
	.long	0
	.long	_ZTIN7sigslot15single_threadedE
	.long	_ZN7sigslot15single_threadedD1Ev
	.long	_ZN7sigslot15single_threadedD0Ev
	.long	_ZN7sigslot15single_threaded4lockEv
	.long	_ZN7sigslot15single_threaded6unlockEv
	.weak	_ZTVN7sigslot7signal3IP10GuiElementiiNS_15single_threadedEEE
	.section	.rodata._ZTVN7sigslot7signal3IP10GuiElementiiNS_15single_threadedEEE,"aG",@progbits,_ZTVN7sigslot7signal3IP10GuiElementiiNS_15single_threadedEEE,comdat
	.align 3
	.type	_ZTVN7sigslot7signal3IP10GuiElementiiNS_15single_threadedEEE, @object
	.size	_ZTVN7sigslot7signal3IP10GuiElementiiNS_15single_threadedEEE, 32
_ZTVN7sigslot7signal3IP10GuiElementiiNS_15single_threadedEEE:
	.long	0
	.long	_ZTIN7sigslot7signal3IP10GuiElementiiNS_15single_threadedEEE
	.long	_ZN7sigslot7signal3IP10GuiElementiiNS_15single_threadedEED1Ev
	.long	_ZN7sigslot7signal3IP10GuiElementiiNS_15single_threadedEED0Ev
	.long	_ZN7sigslot15single_threaded4lockEv
	.long	_ZN7sigslot15single_threaded6unlockEv
	.long	_ZN7sigslot13_signal_base3IP10GuiElementiiNS_15single_threadedEE15slot_disconnectEPNS_9has_slotsIS3_EE
	.long	_ZN7sigslot13_signal_base3IP10GuiElementiiNS_15single_threadedEE14slot_duplicateEPKNS_9has_slotsIS3_EEPS6_
	.weak	_ZTVN7sigslot13_signal_base3IP10GuiElementiiNS_15single_threadedEEE
	.section	.rodata._ZTVN7sigslot13_signal_base3IP10GuiElementiiNS_15single_threadedEEE,"aG",@progbits,_ZTVN7sigslot13_signal_base3IP10GuiElementiiNS_15single_threadedEEE,comdat
	.align 3
	.type	_ZTVN7sigslot13_signal_base3IP10GuiElementiiNS_15single_threadedEEE, @object
	.size	_ZTVN7sigslot13_signal_base3IP10GuiElementiiNS_15single_threadedEEE, 32
_ZTVN7sigslot13_signal_base3IP10GuiElementiiNS_15single_threadedEEE:
	.long	0
	.long	_ZTIN7sigslot13_signal_base3IP10GuiElementiiNS_15single_threadedEEE
	.long	_ZN7sigslot13_signal_base3IP10GuiElementiiNS_15single_threadedEED1Ev
	.long	_ZN7sigslot13_signal_base3IP10GuiElementiiNS_15single_threadedEED0Ev
	.long	_ZN7sigslot15single_threaded4lockEv
	.long	_ZN7sigslot15single_threaded6unlockEv
	.long	_ZN7sigslot13_signal_base3IP10GuiElementiiNS_15single_threadedEE15slot_disconnectEPNS_9has_slotsIS3_EE
	.long	_ZN7sigslot13_signal_base3IP10GuiElementiiNS_15single_threadedEE14slot_duplicateEPKNS_9has_slotsIS3_EEPS6_
	.weak	_ZTIN7sigslot7signal2IP10GuiElementbNS_15single_threadedEEE
	.section	.rodata._ZTIN7sigslot7signal2IP10GuiElementbNS_15single_threadedEEE,"aG",@progbits,_ZTIN7sigslot7signal2IP10GuiElementbNS_15single_threadedEEE,comdat
	.align 2
	.type	_ZTIN7sigslot7signal2IP10GuiElementbNS_15single_threadedEEE, @object
	.size	_ZTIN7sigslot7signal2IP10GuiElementbNS_15single_threadedEEE, 12
_ZTIN7sigslot7signal2IP10GuiElementbNS_15single_threadedEEE:
	.long	_ZTVN10__cxxabiv120__si_class_type_infoE+8
	.long	_ZTSN7sigslot7signal2IP10GuiElementbNS_15single_threadedEEE
	.long	_ZTIN7sigslot13_signal_base2IP10GuiElementbNS_15single_threadedEEE
	.weak	_ZTIN7sigslot13_signal_base2IP10GuiElementbNS_15single_threadedEEE
	.section	.rodata._ZTIN7sigslot13_signal_base2IP10GuiElementbNS_15single_threadedEEE,"aG",@progbits,_ZTIN7sigslot13_signal_base2IP10GuiElementbNS_15single_threadedEEE,comdat
	.align 2
	.type	_ZTIN7sigslot13_signal_base2IP10GuiElementbNS_15single_threadedEEE, @object
	.size	_ZTIN7sigslot13_signal_base2IP10GuiElementbNS_15single_threadedEEE, 12
_ZTIN7sigslot13_signal_base2IP10GuiElementbNS_15single_threadedEEE:
	.long	_ZTVN10__cxxabiv120__si_class_type_infoE+8
	.long	_ZTSN7sigslot13_signal_base2IP10GuiElementbNS_15single_threadedEEE
	.long	_ZTIN7sigslot12_signal_baseINS_15single_threadedEEE
	.weak	_ZTIN7sigslot12_signal_baseINS_15single_threadedEEE
	.section	.rodata._ZTIN7sigslot12_signal_baseINS_15single_threadedEEE,"aG",@progbits,_ZTIN7sigslot12_signal_baseINS_15single_threadedEEE,comdat
	.align 2
	.type	_ZTIN7sigslot12_signal_baseINS_15single_threadedEEE, @object
	.size	_ZTIN7sigslot12_signal_baseINS_15single_threadedEEE, 12
_ZTIN7sigslot12_signal_baseINS_15single_threadedEEE:
	.long	_ZTVN10__cxxabiv120__si_class_type_infoE+8
	.long	_ZTSN7sigslot12_signal_baseINS_15single_threadedEEE
	.long	_ZTIN7sigslot15single_threadedE
	.weak	_ZTIN7sigslot15single_threadedE
	.section	.sdata._ZTIN7sigslot15single_threadedE,"awG",@progbits,_ZTIN7sigslot15single_threadedE,comdat
	.align 2
	.type	_ZTIN7sigslot15single_threadedE, @object
	.size	_ZTIN7sigslot15single_threadedE, 8
_ZTIN7sigslot15single_threadedE:
	.long	_ZTVN10__cxxabiv117__class_type_infoE+8
	.long	_ZTSN7sigslot15single_threadedE
	.weak	_ZTIN7sigslot7signal3IP10GuiElementiiNS_15single_threadedEEE
	.section	.rodata._ZTIN7sigslot7signal3IP10GuiElementiiNS_15single_threadedEEE,"aG",@progbits,_ZTIN7sigslot7signal3IP10GuiElementiiNS_15single_threadedEEE,comdat
	.align 2
	.type	_ZTIN7sigslot7signal3IP10GuiElementiiNS_15single_threadedEEE, @object
	.size	_ZTIN7sigslot7signal3IP10GuiElementiiNS_15single_threadedEEE, 12
_ZTIN7sigslot7signal3IP10GuiElementiiNS_15single_threadedEEE:
	.long	_ZTVN10__cxxabiv120__si_class_type_infoE+8
	.long	_ZTSN7sigslot7signal3IP10GuiElementiiNS_15single_threadedEEE
	.long	_ZTIN7sigslot13_signal_base3IP10GuiElementiiNS_15single_threadedEEE
	.weak	_ZTIN7sigslot13_signal_base3IP10GuiElementiiNS_15single_threadedEEE
	.section	.rodata._ZTIN7sigslot13_signal_base3IP10GuiElementiiNS_15single_threadedEEE,"aG",@progbits,_ZTIN7sigslot13_signal_base3IP10GuiElementiiNS_15single_threadedEEE,comdat
	.align 2
	.type	_ZTIN7sigslot13_signal_base3IP10GuiElementiiNS_15single_threadedEEE, @object
	.size	_ZTIN7sigslot13_signal_base3IP10GuiElementiiNS_15single_threadedEEE, 12
_ZTIN7sigslot13_signal_base3IP10GuiElementiiNS_15single_threadedEEE:
	.long	_ZTVN10__cxxabiv120__si_class_type_infoE+8
	.long	_ZTSN7sigslot13_signal_base3IP10GuiElementiiNS_15single_threadedEEE
	.long	_ZTIN7sigslot12_signal_baseINS_15single_threadedEEE
	.weak	_ZTSN7sigslot7signal2IP10GuiElementbNS_15single_threadedEEE
	.section	.rodata._ZTSN7sigslot7signal2IP10GuiElementbNS_15single_threadedEEE,"aG",@progbits,_ZTSN7sigslot7signal2IP10GuiElementbNS_15single_threadedEEE,comdat
	.align 2
	.type	_ZTSN7sigslot7signal2IP10GuiElementbNS_15single_threadedEEE, @object
	.size	_ZTSN7sigslot7signal2IP10GuiElementbNS_15single_threadedEEE, 56
_ZTSN7sigslot7signal2IP10GuiElementbNS_15single_threadedEEE:
	.string	"N7sigslot7signal2IP10GuiElementbNS_15single_threadedEEE"
	.weak	_ZTSN7sigslot13_signal_base2IP10GuiElementbNS_15single_threadedEEE
	.section	.rodata._ZTSN7sigslot13_signal_base2IP10GuiElementbNS_15single_threadedEEE,"aG",@progbits,_ZTSN7sigslot13_signal_base2IP10GuiElementbNS_15single_threadedEEE,comdat
	.align 2
	.type	_ZTSN7sigslot13_signal_base2IP10GuiElementbNS_15single_threadedEEE, @object
	.size	_ZTSN7sigslot13_signal_base2IP10GuiElementbNS_15single_threadedEEE, 63
_ZTSN7sigslot13_signal_base2IP10GuiElementbNS_15single_threadedEEE:
	.string	"N7sigslot13_signal_base2IP10GuiElementbNS_15single_threadedEEE"
	.weak	_ZTSN7sigslot12_signal_baseINS_15single_threadedEEE
	.section	.rodata._ZTSN7sigslot12_signal_baseINS_15single_threadedEEE,"aG",@progbits,_ZTSN7sigslot12_signal_baseINS_15single_threadedEEE,comdat
	.align 2
	.type	_ZTSN7sigslot12_signal_baseINS_15single_threadedEEE, @object
	.size	_ZTSN7sigslot12_signal_baseINS_15single_threadedEEE, 48
_ZTSN7sigslot12_signal_baseINS_15single_threadedEEE:
	.string	"N7sigslot12_signal_baseINS_15single_threadedEEE"
	.weak	_ZTSN7sigslot15single_threadedE
	.section	.rodata._ZTSN7sigslot15single_threadedE,"aG",@progbits,_ZTSN7sigslot15single_threadedE,comdat
	.align 2
	.type	_ZTSN7sigslot15single_threadedE, @object
	.size	_ZTSN7sigslot15single_threadedE, 28
_ZTSN7sigslot15single_threadedE:
	.string	"N7sigslot15single_threadedE"
	.weak	_ZTSN7sigslot7signal3IP10GuiElementiiNS_15single_threadedEEE
	.section	.rodata._ZTSN7sigslot7signal3IP10GuiElementiiNS_15single_threadedEEE,"aG",@progbits,_ZTSN7sigslot7signal3IP10GuiElementiiNS_15single_threadedEEE,comdat
	.align 2
	.type	_ZTSN7sigslot7signal3IP10GuiElementiiNS_15single_threadedEEE, @object
	.size	_ZTSN7sigslot7signal3IP10GuiElementiiNS_15single_threadedEEE, 57
_ZTSN7sigslot7signal3IP10GuiElementiiNS_15single_threadedEEE:
	.string	"N7sigslot7signal3IP10GuiElementiiNS_15single_threadedEEE"
	.weak	_ZTSN7sigslot13_signal_base3IP10GuiElementiiNS_15single_threadedEEE
	.section	.rodata._ZTSN7sigslot13_signal_base3IP10GuiElementiiNS_15single_threadedEEE,"aG",@progbits,_ZTSN7sigslot13_signal_base3IP10GuiElementiiNS_15single_threadedEEE,comdat
	.align 2
	.type	_ZTSN7sigslot13_signal_base3IP10GuiElementiiNS_15single_threadedEEE, @object
	.size	_ZTSN7sigslot13_signal_base3IP10GuiElementiiNS_15single_threadedEEE, 64
_ZTSN7sigslot13_signal_base3IP10GuiElementiiNS_15single_threadedEEE:
	.string	"N7sigslot13_signal_base3IP10GuiElementiiNS_15single_threadedEEE"
	.weak	_ZN7sigslot15single_threadedD1Ev
	.set	_ZN7sigslot15single_threadedD1Ev,_ZN7sigslot15single_threadedD2Ev
	.weak	_ZN7sigslot12_signal_baseINS_15single_threadedEED1Ev
	.set	_ZN7sigslot12_signal_baseINS_15single_threadedEED1Ev,_ZN7sigslot12_signal_baseINS_15single_threadedEED2Ev
	.globl _ZN8GuiImageC1Ev
	.set	_ZN8GuiImageC1Ev,_ZN8GuiImageC2Ev
	.globl _ZN8GuiImageC1EPhii
	.set	_ZN8GuiImageC1EPhii,_ZN8GuiImageC2EPhii
	.globl _ZN8GuiImageC1Eii9_gx_color
	.set	_ZN8GuiImageC1Eii9_gx_color,_ZN8GuiImageC2Eii9_gx_color
	.globl _ZN8GuiImageC1EiiP9_gx_color
	.set	_ZN8GuiImageC1EiiP9_gx_color,_ZN8GuiImageC2EiiP9_gx_color
	.weak	_ZN7sigslot7signal3IP10GuiElementiiNS_15single_threadedEED1Ev
	.set	_ZN7sigslot7signal3IP10GuiElementiiNS_15single_threadedEED1Ev,_ZN7sigslot7signal3IP10GuiElementiiNS_15single_threadedEED2Ev
	.weak	_ZN7sigslot13_signal_base3IP10GuiElementiiNS_15single_threadedEED1Ev
	.set	_ZN7sigslot13_signal_base3IP10GuiElementiiNS_15single_threadedEED1Ev,_ZN7sigslot13_signal_base3IP10GuiElementiiNS_15single_threadedEED2Ev
	.weak	_ZN7sigslot13_signal_base2IP10GuiElementbNS_15single_threadedEED1Ev
	.set	_ZN7sigslot13_signal_base2IP10GuiElementbNS_15single_threadedEED1Ev,_ZN7sigslot13_signal_base2IP10GuiElementbNS_15single_threadedEED2Ev
	.weak	_ZN7sigslot7signal2IP10GuiElementbNS_15single_threadedEED1Ev
	.set	_ZN7sigslot7signal2IP10GuiElementbNS_15single_threadedEED1Ev,_ZN7sigslot7signal2IP10GuiElementbNS_15single_threadedEED2Ev
	.weak	_ZN10GuiElementD1Ev
	.set	_ZN10GuiElementD1Ev,_ZN10GuiElementD2Ev
	.globl _ZN8GuiImageC1EP12GuiImageData
	.set	_ZN8GuiImageC1EP12GuiImageData,_ZN8GuiImageC2EP12GuiImageData
	.globl _ZN8GuiImageD1Ev
	.set	_ZN8GuiImageD1Ev,_ZN8GuiImageD2Ev
	.section	.rodata.cst4,"aM",@progbits,4
	.align 2
.LC1:
	.4byte	1501560836
.LC2:
	.4byte	1132396544
.LC3:
	.4byte	1056964608
.LC4:
	.4byte	1077936128
	.section	".text"
.Letext0:
	.file 11 "d:\\devkitpro\\devkitppc\\bin\\../lib/gcc/powerpc-eabi/4.6.3/../../../../powerpc-eabi/include/stdint.h"
	.file 12 "d:/devkitPro/libogc/include/gctypes.h"
	.file 13 "d:/devkitPro/libogc/include/ogc/gx.h"
	.file 14 "d:\\devkitpro\\devkitppc\\bin\\../lib/gcc/powerpc-eabi/4.6.3/../../../../powerpc-eabi/include/machine/_types.h"
	.file 15 "d:\\devkitpro\\devkitppc\\bin\\../lib/gcc/powerpc-eabi/4.6.3/../../../../powerpc-eabi/include/sys/lock.h"
	.file 16 "d:\\devkitpro\\devkitppc\\bin\\../lib/gcc/powerpc-eabi/4.6.3/include/stddef.h"
	.file 17 "d:\\devkitpro\\devkitppc\\bin\\../lib/gcc/powerpc-eabi/4.6.3/../../../../powerpc-eabi/include/sys/_types.h"
	.file 18 "d:\\devkitpro\\devkitppc\\bin\\../lib/gcc/powerpc-eabi/4.6.3/../../../../powerpc-eabi/include/sys/reent.h"
	.file 19 "d:\\devkitpro\\devkitppc\\bin\\../lib/gcc/powerpc-eabi/4.6.3/../../../../powerpc-eabi/include/time.h"
	.file 20 "<built-in>"
	.file 21 "d:\\devkitpro\\devkitppc\\bin\\../lib/gcc/powerpc-eabi/4.6.3/../../../../powerpc-eabi/include/wchar.h"
	.file 22 "d:\\devkitpro\\devkitppc\\bin\\../lib/gcc/powerpc-eabi/4.6.3/../../../../powerpc-eabi/include/c++/4.6.3/cwchar"
	.file 23 "d:\\devkitpro\\devkitppc\\bin\\../lib/gcc/powerpc-eabi/4.6.3/../../../../powerpc-eabi/include/c++/4.6.3/powerpc-eabi/bits/c++config.h"
	.file 24 "d:\\devkitpro\\devkitppc\\bin\\../lib/gcc/powerpc-eabi/4.6.3/../../../../powerpc-eabi/include/c++/4.6.3/clocale"
	.file 25 "d:\\devkitpro\\devkitppc\\bin\\../lib/gcc/powerpc-eabi/4.6.3/../../../../powerpc-eabi/include/c++/4.6.3/bits/move.h"
	.file 26 "d:\\devkitpro\\devkitppc\\bin\\../lib/gcc/powerpc-eabi/4.6.3/../../../../powerpc-eabi/include/c++/4.6.3/bits/cpp_type_traits.h"
	.file 27 "d:\\devkitpro\\devkitppc\\bin\\../lib/gcc/powerpc-eabi/4.6.3/../../../../powerpc-eabi/include/c++/4.6.3/debug/debug.h"
	.file 28 "d:\\devkitpro\\devkitppc\\bin\\../lib/gcc/powerpc-eabi/4.6.3/../../../../powerpc-eabi/include/locale.h"
	.file 29 "d:\\devkitpro\\devkitppc\\bin\\../lib/gcc/powerpc-eabi/4.6.3/../../../../powerpc-eabi/include/c++/4.6.3/ext/numeric_traits.h"
	.file 30 "d:\\devkitpro\\devkitppc\\bin\\../lib/gcc/powerpc-eabi/4.6.3/../../../../powerpc-eabi/include/c++/4.6.3/bits/allocator.h"
	.file 31 "d:/Projects/SaveGameManager/savegame-manager-gx/trunk/source/GUI/gui_image.h"
	.file 32 "d:\\devkitpro\\devkitppc\\bin\\../lib/gcc/powerpc-eabi/4.6.3/../../../../powerpc-eabi/include/c++/4.6.3/bits/stl_function.h"
	.file 33 "d:\\devkitpro\\devkitppc\\bin\\../lib/gcc/powerpc-eabi/4.6.3/../../../../powerpc-eabi/include/c++/4.6.3/bits/stl_pair.h"
	.file 34 "d:/Projects/SaveGameManager/savegame-manager-gx/trunk/source/GUI/../ImageOperations/GifImage.hpp"
	.file 35 "d:\\devkitpro\\devkitppc\\bin\\../lib/gcc/powerpc-eabi/4.6.3/../../../../powerpc-eabi/include/c++/4.6.3/new"