   1              		.file	"gui_optionbrowser.cpp"
   2              		.section	".text"
   3              	.Ltext0:
   4              		.section	.text._ZN7sigslot15single_threadedD2Ev,"axG",@progbits,_ZN7sigslot15single_threadedD5Ev,c
   5              		.align 2
   6              		.weak	_ZN7sigslot15single_threadedD2Ev
   7              		.type	_ZN7sigslot15single_threadedD2Ev, @function
   8              	_ZN7sigslot15single_threadedD2Ev:
   9              	.LFB1148:
  10              		.file 1 "d:/Projects/SaveGameManager/savegame-manager-gx/trunk/source/GUI/../sigslot.h"
  11              		.loc 1 104 0
  12              		.cfi_startproc
  13              	.LVL0:
  14              	.LBB2512:
  15              		.loc 1 105 0
  16 0000 3D200000 		lis 9,_ZTVN7sigslot15single_threadedE+8@ha
  17              	.LBE2512:
  18              		.loc 1 107 0
  19              	.LBB2513:
  20              		.loc 1 105 0
  21 0004 38090008 		la 0,_ZTVN7sigslot15single_threadedE+8@l(9)
  22 0008 90030000 		stw 0,0(3)
  23              	.LBE2513:
  24              		.loc 1 107 0
  25 000c 4E800020 		blr
  26              		.cfi_endproc
  27              	.LFE1148:
  28              		.size	_ZN7sigslot15single_threadedD2Ev, .-_ZN7sigslot15single_threadedD2Ev
  29              		.section	.text._ZN7sigslot15single_threaded4lockEv,"axG",@progbits,_ZN7sigslot15single_threaded4lo
  30              		.align 2
  31              		.weak	_ZN7sigslot15single_threaded4lockEv
  32              		.type	_ZN7sigslot15single_threaded4lockEv, @function
  33              	_ZN7sigslot15single_threaded4lockEv:
  34              	.LFB1151:
  35              		.loc 1 109 0
  36              		.cfi_startproc
  37              	.LVL1:
  38              		.loc 1 112 0
  39 0000 4E800020 		blr
  40              		.cfi_endproc
  41              	.LFE1151:
  42              		.size	_ZN7sigslot15single_threaded4lockEv, .-_ZN7sigslot15single_threaded4lockEv
  43              		.section	.text._ZN7sigslot15single_threaded6unlockEv,"axG",@progbits,_ZN7sigslot15single_threaded6
  44              		.align 2
  45              		.weak	_ZN7sigslot15single_threaded6unlockEv
  46              		.type	_ZN7sigslot15single_threaded6unlockEv, @function
  47              	_ZN7sigslot15single_threaded6unlockEv:
  48              	.LFB1152:
  49              		.loc 1 114 0
  50              		.cfi_startproc
  51              	.LVL2:
  52              		.loc 1 117 0
  53 0000 4E800020 		blr
  54              		.cfi_endproc
  55              	.LFE1152:
  56              		.size	_ZN7sigslot15single_threaded6unlockEv, .-_ZN7sigslot15single_threaded6unlockEv
  57              		.section	.text._ZN10GuiElement9SetParentEPS_,"axG",@progbits,_ZN10GuiElement9SetParentEPS_,comdat
  58              		.align 2
  59              		.weak	_ZN10GuiElement9SetParentEPS_
  60              		.type	_ZN10GuiElement9SetParentEPS_, @function
  61              	_ZN10GuiElement9SetParentEPS_:
  62              	.LFB1384:
  63              		.file 2 "d:/Projects/SaveGameManager/savegame-manager-gx/trunk/source/GUI/gui_element.h"
  64              		.loc 2 92 0
  65              		.cfi_startproc
  66              	.LVL3:
  67              		.loc 2 92 0
  68 0000 90830060 		stw 4,96(3)
  69 0004 4E800020 		blr
  70              		.cfi_endproc
  71              	.LFE1384:
  72              		.size	_ZN10GuiElement9SetParentEPS_, .-_ZN10GuiElement9SetParentEPS_
  73              		.section	.text._ZN10GuiElement9GetParentEv,"axG",@progbits,_ZN10GuiElement9GetParentEv,comdat
  74              		.align 2
  75              		.weak	_ZN10GuiElement9GetParentEv
  76              		.type	_ZN10GuiElement9GetParentEv, @function
  77              	_ZN10GuiElement9GetParentEv:
  78              	.LFB1385:
  79              		.loc 2 95 0
  80              		.cfi_startproc
  81              	.LVL4:
  82              		.loc 2 95 0
  83 0000 80630060 		lwz 3,96(3)
  84              	.LVL5:
  85 0004 4E800020 		blr
  86              		.cfi_endproc
  87              	.LFE1385:
  88              		.size	_ZN10GuiElement9GetParentEv, .-_ZN10GuiElement9GetParentEv
  89              		.section	.text._ZN10GuiElement12GetZPositionEv,"axG",@progbits,_ZN10GuiElement12GetZPositionEv,com
  90              		.align 2
  91              		.weak	_ZN10GuiElement12GetZPositionEv
  92              		.type	_ZN10GuiElement12GetZPositionEv, @function
  93              	_ZN10GuiElement12GetZPositionEv:
  94              	.LFB1386:
  95              		.loc 2 106 0
  96              		.cfi_startproc
  97              	.LVL6:
  98 0000 7C0802A6 		mflr 0
  99 0004 9421FFF0 		stwu 1,-16(1)
 100              	.LCFI0:
 101              		.cfi_def_cfa_offset 16
 102              		.cfi_register 65, 0
 103 0008 93E1000C 		stw 31,12(1)
 104 000c 7C7F1B78 		mr 31,3
 105              		.cfi_offset 31, -4
 106 0010 90010014 		stw 0,20(1)
 107              	.LBB2514:
 108              		.loc 2 110 0
 109 0014 81630060 		lwz 11,96(3)
 110              		.loc 2 108 0
 111 0018 38600000 		li 3,0
 112              	.LVL7:
 113              		.loc 2 110 0
 114 001c 2F8B0000 		cmpwi 7,11,0
 115 0020 419E0018 		beq- 7,.L8
 116              		.cfi_offset 65, 4
 117              		.loc 2 111 0
 118 0024 812B0000 		lwz 9,0(11)
 119 0028 7D635B78 		mr 3,11
 120 002c 80090018 		lwz 0,24(9)
 121 0030 7C0903A6 		mtctr 0
 122 0034 4E800421 		bctrl
 123              	.LVL8:
 124              	.L8:
 125              		.loc 2 113 0
 126 0038 801F0034 		lwz 0,52(31)
 127              	.LBE2514:
 128              		.loc 2 114 0
 129 003c 83E1000C 		lwz 31,12(1)
 130              	.LVL9:
 131 0040 7C630214 		add 3,3,0
 132              	.LVL10:
 133 0044 80010014 		lwz 0,20(1)
 134 0048 38210010 		addi 1,1,16
 135              	.LCFI1:
 136              		.cfi_def_cfa_offset 0
 137              		.cfi_restore 31
 138 004c 7C0803A6 		mtlr 0
 139 0050 4E800020 		blr
 140              		.cfi_endproc
 141              	.LFE1386:
 142              		.size	_ZN10GuiElement12GetZPositionEv, .-_ZN10GuiElement12GetZPositionEv
 143              		.section	.text._ZN10GuiElement10GetLeftPosEv,"axG",@progbits,_ZN10GuiElement10GetLeftPosEv,comdat
 144              		.align 2
 145              		.weak	_ZN10GuiElement10GetLeftPosEv
 146              		.type	_ZN10GuiElement10GetLeftPosEv, @function
 147              	_ZN10GuiElement10GetLeftPosEv:
 148              	.LFB1387:
 149              		.loc 2 116 0
 150              		.cfi_startproc
 151              	.LVL11:
 152              		.loc 2 116 0
 153 0000 8063002C 		lwz 3,44(3)
 154              	.LVL12:
 155 0004 4E800020 		blr
 156              		.cfi_endproc
 157              	.LFE1387:
 158              		.size	_ZN10GuiElement10GetLeftPosEv, .-_ZN10GuiElement10GetLeftPosEv
 159              		.section	.text._ZN10GuiElement9GetTopPosEv,"axG",@progbits,_ZN10GuiElement9GetTopPosEv,comdat
 160              		.align 2
 161              		.weak	_ZN10GuiElement9GetTopPosEv
 162              		.type	_ZN10GuiElement9GetTopPosEv, @function
 163              	_ZN10GuiElement9GetTopPosEv:
 164              	.LFB1388:
 165              		.loc 2 118 0
 166              		.cfi_startproc
 167              	.LVL13:
 168              		.loc 2 118 0
 169 0000 80630030 		lwz 3,48(3)
 170              	.LVL14:
 171 0004 4E800020 		blr
 172              		.cfi_endproc
 173              	.LFE1388:
 174              		.size	_ZN10GuiElement9GetTopPosEv, .-_ZN10GuiElement9GetTopPosEv
 175              		.section	.text._ZN10GuiElement8GetWidthEv,"axG",@progbits,_ZN10GuiElement8GetWidthEv,comdat
 176              		.align 2
 177              		.weak	_ZN10GuiElement8GetWidthEv
 178              		.type	_ZN10GuiElement8GetWidthEv, @function
 179              	_ZN10GuiElement8GetWidthEv:
 180              	.LFB1389:
 181              		.loc 2 121 0
 182              		.cfi_startproc
 183              	.LVL15:
 184              		.loc 2 121 0
 185 0000 80630024 		lwz 3,36(3)
 186              	.LVL16:
 187 0004 4E800020 		blr
 188              		.cfi_endproc
 189              	.LFE1389:
 190              		.size	_ZN10GuiElement8GetWidthEv, .-_ZN10GuiElement8GetWidthEv
 191              		.section	.text._ZN10GuiElement9GetHeightEv,"axG",@progbits,_ZN10GuiElement9GetHeightEv,comdat
 192              		.align 2
 193              		.weak	_ZN10GuiElement9GetHeightEv
 194              		.type	_ZN10GuiElement9GetHeightEv, @function
 195              	_ZN10GuiElement9GetHeightEv:
 196              	.LFB1390:
 197              		.loc 2 124 0
 198              		.cfi_startproc
 199              	.LVL17:
 200              		.loc 2 124 0
 201 0000 80630028 		lwz 3,40(3)
 202              	.LVL18:
 203 0004 4E800020 		blr
 204              		.cfi_endproc
 205              	.LFE1390:
 206              		.size	_ZN10GuiElement9GetHeightEv, .-_ZN10GuiElement9GetHeightEv
 207              		.section	.text._ZN10GuiElement7SetSizeEii,"axG",@progbits,_ZN10GuiElement7SetSizeEii,comdat
 208              		.align 2
 209              		.weak	_ZN10GuiElement7SetSizeEii
 210              		.type	_ZN10GuiElement7SetSizeEii, @function
 211              	_ZN10GuiElement7SetSizeEii:
 212              	.LFB1391:
 213              		.loc 2 128 0
 214              		.cfi_startproc
 215              	.LVL19:
 216              		.loc 2 130 0
 217 0000 90830024 		stw 4,36(3)
 218              		.loc 2 132 0
 219              		.loc 2 131 0
 220 0004 90A30028 		stw 5,40(3)
 221              		.loc 2 132 0
 222 0008 4E800020 		blr
 223              		.cfi_endproc
 224              	.LFE1391:
 225              		.size	_ZN10GuiElement7SetSizeEii, .-_ZN10GuiElement7SetSizeEii
 226              		.section	.text._ZN10GuiElement10SetVisibleEb,"axG",@progbits,_ZN10GuiElement10SetVisibleEb,comdat
 227              		.align 2
 228              		.weak	_ZN10GuiElement10SetVisibleEb
 229              		.type	_ZN10GuiElement10SetVisibleEb, @function
 230              	_ZN10GuiElement10SetVisibleEb:
 231              	.LFB1392:
 232              		.loc 2 135 0
 233              		.cfi_startproc
 234              		.cfi_personality 0,__gxx_personality_v0
 235              		.cfi_lsda 0,.LLSDA1392
 236              	.LVL20:
 237 0000 7C0802A6 		mflr 0
 238 0004 9421FFE0 		stwu 1,-32(1)
 239              	.LCFI2:
 240              		.cfi_def_cfa_offset 32
 241              		.cfi_register 65, 0
 242 0008 9361000C 		stw 27,12(1)
 243              	.LBB2515:
 244              	.LBB2516:
 245              		.loc 1 2270 0
 246 000c 3B630004 		addi 27,3,4
 247              		.cfi_offset 27, -20
 248              	.LBE2516:
 249              	.LBE2515:
 250              		.loc 2 135 0
 251 0010 90010024 		stw 0,36(1)
 252 0014 93C10018 		stw 30,24(1)
 253 0018 7C7E1B78 		mr 30,3
 254              		.cfi_offset 30, -8
 255              		.cfi_offset 65, 4
 256              	.LBB2539:
 257              	.LBB2533:
 258              	.LBB2517:
 259              	.LBB2518:
 260              		.loc 1 338 0
 261 001c 81230004 		lwz 9,4(3)
 262 0020 7F63DB78 		mr 3,27
 263              	.LVL21:
 264              	.LBE2518:
 265              	.LBE2517:
 266              	.LBE2533:
 267              	.LBE2539:
 268              		.loc 2 135 0
 269 0024 93810010 		stw 28,16(1)
 270 0028 7C9C2378 		mr 28,4
 271              		.cfi_offset 28, -16
 272              	.LBB2540:
 273              	.LBB2534:
 274              	.LBB2522:
 275              	.LBB2519:
 276              		.loc 1 338 0
 277 002c 80090008 		lwz 0,8(9)
 278              	.LBE2519:
 279              	.LBE2522:
 280              	.LBE2534:
 281              	.LBE2540:
 282              		.loc 2 135 0
 283 0030 93A10014 		stw 29,20(1)
 284              	.LBB2541:
 285              		.file 3 "d:/Projects/SaveGameManager/savegame-manager-gx/trunk/source/GUI/gui_optionbrowser.cpp"
 286              		.loc 3 226 0
 287 0034 7FDDF378 		mr 29,30
 288              		.cfi_offset 29, -12
 289              	.LBE2541:
 290              		.loc 2 135 0
 291 0038 93E1001C 		stw 31,28(1)
 292              	.LBB2542:
 293              	.LBB2535:
 294              	.LBB2523:
 295              	.LBB2520:
 296              		.loc 1 338 0
 297 003c 7C0903A6 		mtctr 0
 298              	.LBE2520:
 299              	.LBE2523:
 300              	.LBE2535:
 301              	.LBE2542:
 302              		.loc 2 137 0
 303 0040 989E001D 		stb 4,29(30)
 304              	.LVL22:
 305              	.LEHB0:
 306              	.LBB2543:
 307              	.LBB2536:
 308              	.LBB2524:
 309              	.LBB2521:
 310              		.loc 1 338 0
 311              		.cfi_offset 31, -4
 312 0044 4E800421 		bctrl
 313              	.LEHE0:
 314              	.LVL23:
 315              	.LBE2521:
 316              	.LBE2524:
 317              	.LBE2536:
 318              		.loc 3 226 0
 319 0048 87FD0008 		lwzu 31,8(29)
 320              	.LVL24:
 321              	.LBB2537:
 322              		.loc 1 2274 0
 323 004c 7F9FE800 		cmpw 7,31,29
 324 0050 419E002C 		beq- 7,.L17
 325              	.LVL25:
 326              	.L24:
 327              		.loc 1 2279 0
 328 0054 807F0008 		lwz 3,8(31)
 329 0058 7FC4F378 		mr 4,30
 330 005c 7F85E378 		mr 5,28
 331              	.LBB2525:
 332              	.LBB2526:
 333              		.file 4 "d:\\devkitpro\\devkitppc\\bin\\../lib/gcc/powerpc-eabi/4.6.3/../../../../powerpc-eabi/inc
 334              		.loc 4 234 0
 335 0060 83FF0000 		lwz 31,0(31)
 336              	.LVL26:
 337              	.LBE2526:
 338              	.LBE2525:
 339              		.loc 1 2279 0
 340 0064 81230000 		lwz 9,0(3)
 341 0068 8009000C 		lwz 0,12(9)
 342 006c 7C0903A6 		mtctr 0
 343              	.LEHB1:
 344 0070 4E800421 		bctrl
 345              	.LEHE1:
 346              	.LVL27:
 347              		.loc 1 2274 0
 348 0074 7F9DF800 		cmpw 7,29,31
 349 0078 409EFFDC 		bne+ 7,.L24
 350              	.LVL28:
 351              	.L17:
 352              	.LBB2527:
 353              	.LBB2528:
 354              	.LBB2529:
 355              		.loc 1 343 0
 356 007c 813E0004 		lwz 9,4(30)
 357 0080 7F63DB78 		mr 3,27
 358 0084 8009000C 		lwz 0,12(9)
 359 0088 7C0903A6 		mtctr 0
 360              	.LEHB2:
 361 008c 4E800421 		bctrl
 362              	.LEHE2:
 363              	.LBE2529:
 364              	.LBE2528:
 365              	.LBE2527:
 366              	.LBE2537:
 367              	.LBE2543:
 368              		.loc 2 139 0
 369 0090 80010024 		lwz 0,36(1)
 370 0094 8361000C 		lwz 27,12(1)
 371              	.LVL29:
 372 0098 7C0803A6 		mtlr 0
 373 009c 83810010 		lwz 28,16(1)
 374              	.LVL30:
 375 00a0 83A10014 		lwz 29,20(1)
 376 00a4 83C10018 		lwz 30,24(1)
 377              	.LVL31:
 378 00a8 83E1001C 		lwz 31,28(1)
 379              	.LVL32:
 380 00ac 38210020 		addi 1,1,32
 381              		.cfi_remember_state
 382              	.LCFI3:
 383              		.cfi_def_cfa_offset 0
 384              		.cfi_restore 31
 385              		.cfi_restore 30
 386              		.cfi_restore 29
 387              		.cfi_restore 28
 388              		.cfi_restore 27
 389 00b0 4E800020 		blr
 390              	.LVL33:
 391              	.L23:
 392              	.LCFI4:
 393              		.cfi_restore_state
 394              	.LBB2544:
 395              	.LBB2538:
 396              	.LBB2530:
 397              	.LBB2531:
 398              	.LBB2532:
 399              		.loc 1 343 0
 400 00b4 813E0004 		lwz 9,4(30)
 401 00b8 7C7F1B78 		mr 31,3
 402              	.LVL34:
 403 00bc 7F63DB78 		mr 3,27
 404 00c0 8009000C 		lwz 0,12(9)
 405 00c4 7C0903A6 		mtctr 0
 406 00c8 4E800421 		bctrl
 407 00cc 7FE3FB78 		mr 3,31
 408              	.LEHB3:
 409 00d0 48000001 		bl _Unwind_Resume
 410              	.LEHE3:
 411              	.LBE2532:
 412              	.LBE2531:
 413              	.LBE2530:
 414              	.LBE2538:
 415              	.LBE2544:
 416              		.cfi_endproc
 417              	.LFE1392:
 418              		.globl __gxx_personality_v0
 419              		.section	.gcc_except_table,"a",@progbits
 420              	.LLSDA1392:
 421 0000 FF       		.byte	0xff
 422 0001 FF       		.byte	0xff
 423 0002 01       		.byte	0x1
 424 0003 13       		.uleb128 .LLSDACSE1392-.LLSDACSB1392
 425              	.LLSDACSB1392:
 426 0004 44       		.uleb128 .LEHB0-.LFB1392
 427 0005 04       		.uleb128 .LEHE0-.LEHB0
 428 0006 00       		.uleb128 0
 429 0007 00       		.uleb128 0
 430 0008 70       		.uleb128 .LEHB1-.LFB1392
 431 0009 04       		.uleb128 .LEHE1-.LEHB1
 432 000a B401     		.uleb128 .L23-.LFB1392
 433 000c 00       		.uleb128 0
 434 000d 8C01     		.uleb128 .LEHB2-.LFB1392
 435 000f 04       		.uleb128 .LEHE2-.LEHB2
 436 0010 00       		.uleb128 0
 437 0011 00       		.uleb128 0
 438 0012 D001     		.uleb128 .LEHB3-.LFB1392
 439 0014 04       		.uleb128 .LEHE3-.LEHB3
 440 0015 00       		.uleb128 0
 441 0016 00       		.uleb128 0
 442              	.LLSDACSE1392:
 443              		.section	.text._ZN10GuiElement10SetVisibleEb,"axG",@progbits,_ZN10GuiElement10SetVisibleEb,comdat
 444              		.size	_ZN10GuiElement10SetVisibleEb, .-_ZN10GuiElement10SetVisibleEb
 445              		.section	.text._ZN10GuiElement9IsVisibleEv,"axG",@progbits,_ZN10GuiElement9IsVisibleEv,comdat
 446              		.align 2
 447              		.weak	_ZN10GuiElement9IsVisibleEv
 448              		.type	_ZN10GuiElement9IsVisibleEv, @function
 449              	_ZN10GuiElement9IsVisibleEv:
 450              	.LFB1393:
 451              		.loc 2 142 0
 452              		.cfi_startproc
 453              	.LVL35:
 454              		.loc 2 142 0
 455 0000 8863001D 		lbz 3,29(3)
 456              	.LVL36:
 457 0004 4E800020 		blr
 458              		.cfi_endproc
 459              	.LFE1393:
 460              		.size	_ZN10GuiElement9IsVisibleEv, .-_ZN10GuiElement9IsVisibleEv
 461              		.section	.text._ZN10GuiElement12IsSelectableEv,"axG",@progbits,_ZN10GuiElement12IsSelectableEv,com
 462              		.align 2
 463              		.weak	_ZN10GuiElement12IsSelectableEv
 464              		.type	_ZN10GuiElement12IsSelectableEv, @function
 465              	_ZN10GuiElement12IsSelectableEv:
 466              	.LFB1394:
 467              		.loc 2 145 0
 468              		.cfi_startproc
 469              	.LVL37:
 470              		.loc 2 149 0
 471 0000 80030048 		lwz 0,72(3)
 472 0004 39200000 		li 9,0
 473 0008 2F800004 		cmpwi 7,0,4
 474 000c 419E0010 		beq- 7,.L27
 475              		.loc 2 149 0 is_stmt 0 discriminator 1
 476 0010 2F800002 		cmpwi 7,0,2
 477 0014 419E0008 		beq- 7,.L27
 478              		.loc 2 149 0 discriminator 3
 479 0018 8923001E 		lbz 9,30(3)
 480              	.L27:
 481              		.loc 2 150 0 is_stmt 1 discriminator 5
 482 001c 7D234B78 		mr 3,9
 483              	.LVL38:
 484 0020 4E800020 		blr
 485              		.cfi_endproc
 486              	.LFE1394:
 487              		.size	_ZN10GuiElement12IsSelectableEv, .-_ZN10GuiElement12IsSelectableEv
 488              		.section	.text._ZN10GuiElement11IsClickableEv,"axG",@progbits,_ZN10GuiElement11IsClickableEv,comda
 489              		.align 2
 490              		.weak	_ZN10GuiElement11IsClickableEv
 491              		.type	_ZN10GuiElement11IsClickableEv, @function
 492              	_ZN10GuiElement11IsClickableEv:
 493              	.LFB1395:
 494              		.loc 2 153 0
 495              		.cfi_startproc
 496              	.LVL39:
 497              		.loc 2 158 0
 498 0000 80030048 		lwz 0,72(3)
 499 0004 39200000 		li 9,0
 500 0008 2F800004 		cmpwi 7,0,4
 501 000c 419E0018 		beq- 7,.L31
 502              		.loc 2 158 0 is_stmt 0 discriminator 1
 503 0010 2F800002 		cmpwi 7,0,2
 504 0014 419E0010 		beq- 7,.L31
 505              		.loc 2 158 0 discriminator 3
 506 0018 2F800003 		cmpwi 7,0,3
 507 001c 419E0008 		beq- 7,.L31
 508              		.loc 2 158 0 discriminator 4
 509 0020 8923001F 		lbz 9,31(3)
 510              	.L31:
 511              		.loc 2 159 0 is_stmt 1 discriminator 6
 512 0024 7D234B78 		mr 3,9
 513              	.LVL40:
 514 0028 4E800020 		blr
 515              		.cfi_endproc
 516              	.LFE1395:
 517              		.size	_ZN10GuiElement11IsClickableEv, .-_ZN10GuiElement11IsClickableEv
 518              		.section	.text._ZN10GuiElement10IsHoldableEv,"axG",@progbits,_ZN10GuiElement10IsHoldableEv,comdat
 519              		.align 2
 520              		.weak	_ZN10GuiElement10IsHoldableEv
 521              		.type	_ZN10GuiElement10IsHoldableEv, @function
 522              	_ZN10GuiElement10IsHoldableEv:
 523              	.LFB1396:
 524              		.loc 2 162 0
 525              		.cfi_startproc
 526              	.LVL41:
 527              		.loc 2 162 0
 528 0000 81230048 		lwz 9,72(3)
 529 0004 38000000 		li 0,0
 530 0008 2F890004 		cmpwi 7,9,4
 531 000c 419E0008 		beq- 7,.L36
 532              		.loc 2 162 0 is_stmt 0 discriminator 1
 533 0010 88030020 		lbz 0,32(3)
 534              	.L36:
 535              		.loc 2 162 0 discriminator 4
 536 0014 7C030378 		mr 3,0
 537              	.LVL42:
 538 0018 4E800020 		blr
 539              		.cfi_endproc
 540              	.LFE1396:
 541              		.size	_ZN10GuiElement10IsHoldableEv, .-_ZN10GuiElement10IsHoldableEv
 542              		.section	.text._ZN10GuiElement13SetSelectableEb,"axG",@progbits,_ZN10GuiElement13SetSelectableEb,c
 543              		.align 2
 544              		.weak	_ZN10GuiElement13SetSelectableEb
 545              		.type	_ZN10GuiElement13SetSelectableEb, @function
 546              	_ZN10GuiElement13SetSelectableEb:
 547              	.LFB1397:
 548              		.loc 2 165 0 is_stmt 1
 549              		.cfi_startproc
 550              	.LVL43:
 551              		.loc 2 165 0
 552 0000 9883001E 		stb 4,30(3)
 553 0004 4E800020 		blr
 554              		.cfi_endproc
 555              	.LFE1397:
 556              		.size	_ZN10GuiElement13SetSelectableEb, .-_ZN10GuiElement13SetSelectableEb
 557              		.section	.text._ZN10GuiElement12SetClickableEb,"axG",@progbits,_ZN10GuiElement12SetClickableEb,com
 558              		.align 2
 559              		.weak	_ZN10GuiElement12SetClickableEb
 560              		.type	_ZN10GuiElement12SetClickableEb, @function
 561              	_ZN10GuiElement12SetClickableEb:
 562              	.LFB1398:
 563              		.loc 2 168 0
 564              		.cfi_startproc
 565              	.LVL44:
 566              		.loc 2 168 0
 567 0000 9883001F 		stb 4,31(3)
 568 0004 4E800020 		blr
 569              		.cfi_endproc
 570              	.LFE1398:
 571              		.size	_ZN10GuiElement12SetClickableEb, .-_ZN10GuiElement12SetClickableEb
 572              		.section	.text._ZN10GuiElement11SetHoldableEb,"axG",@progbits,_ZN10GuiElement11SetHoldableEb,comda
 573              		.align 2
 574              		.weak	_ZN10GuiElement11SetHoldableEb
 575              		.type	_ZN10GuiElement11SetHoldableEb, @function
 576              	_ZN10GuiElement11SetHoldableEb:
 577              	.LFB1399:
 578              		.loc 2 171 0
 579              		.cfi_startproc
 580              	.LVL45:
 581              		.loc 2 171 0
 582 0000 98830020 		stb 4,32(3)
 583 0004 4E800020 		blr
 584              		.cfi_endproc
 585              	.LFE1399:
 586              		.size	_ZN10GuiElement11SetHoldableEb, .-_ZN10GuiElement11SetHoldableEb
 587              		.section	.text._ZN10GuiElement8GetStateEv,"axG",@progbits,_ZN10GuiElement8GetStateEv,comdat
 588              		.align 2
 589              		.weak	_ZN10GuiElement8GetStateEv
 590              		.type	_ZN10GuiElement8GetStateEv, @function
 591              	_ZN10GuiElement8GetStateEv:
 592              	.LFB1400:
 593              		.loc 2 178 0
 594              		.cfi_startproc
 595              	.LVL46:
 596              		.loc 2 178 0
 597 0000 80630048 		lwz 3,72(3)
 598              	.LVL47:
 599 0004 4E800020 		blr
 600              		.cfi_endproc
 601              	.LFE1400:
 602              		.size	_ZN10GuiElement8GetStateEv, .-_ZN10GuiElement8GetStateEv
 603              		.section	.text._ZN10GuiElement12GetStateChanEv,"axG",@progbits,_ZN10GuiElement12GetStateChanEv,com
 604              		.align 2
 605              		.weak	_ZN10GuiElement12GetStateChanEv
 606              		.type	_ZN10GuiElement12GetStateChanEv, @function
 607              	_ZN10GuiElement12GetStateChanEv:
 608              	.LFB1401:
 609              		.loc 2 181 0
 610              		.cfi_startproc
 611              	.LVL48:
 612              		.loc 2 181 0
 613 0000 8063004C 		lwz 3,76(3)
 614              	.LVL49:
 615 0004 4E800020 		blr
 616              		.cfi_endproc
 617              	.LFE1401:
 618              		.size	_ZN10GuiElement12GetStateChanEv, .-_ZN10GuiElement12GetStateChanEv
 619              		.section	.text._ZN10GuiElement8SetAlphaEi,"axG",@progbits,_ZN10GuiElement8SetAlphaEi,comdat
 620              		.align 2
 621              		.weak	_ZN10GuiElement8SetAlphaEi
 622              		.type	_ZN10GuiElement8SetAlphaEi, @function
 623              	_ZN10GuiElement8SetAlphaEi:
 624              	.LFB1403:
 625              		.loc 2 190 0
 626              		.cfi_startproc
 627              	.LVL50:
 628              		.loc 2 190 0
 629 0000 90830038 		stw 4,56(3)
 630 0004 4E800020 		blr
 631              		.cfi_endproc
 632              	.LFE1403:
 633              		.size	_ZN10GuiElement8SetAlphaEi, .-_ZN10GuiElement8SetAlphaEi
 634              		.section	.text._ZN10GuiElement8GetAlphaEv,"axG",@progbits,_ZN10GuiElement8GetAlphaEv,comdat
 635              		.align 2
 636              		.weak	_ZN10GuiElement8GetAlphaEv
 637              		.type	_ZN10GuiElement8GetAlphaEv, @function
 638              	_ZN10GuiElement8GetAlphaEv:
 639              	.LFB1404:
 640              		.loc 2 194 0
 641              		.cfi_startproc
 642              	.LVL51:
 643 0000 7C0802A6 		mflr 0
 644 0004 9421FFD8 		stwu 1,-40(1)
 645              	.LCFI5:
 646              		.cfi_def_cfa_offset 40
 647              		.cfi_register 65, 0
 648 0008 93E10024 		stw 31,36(1)
 649 000c 9001002C 		stw 0,44(1)
 650              	.LBB2545:
 651              		.loc 2 198 0
 652 0010 83E3006C 		lwz 31,108(3)
 653              		.cfi_offset 65, 4
 654              		.cfi_offset 31, -4
 655 0014 2F9F0000 		cmpwi 7,31,0
 656 0018 419C0094 		blt- 7,.L47
 657              	.L45:
 658              	.LVL52:
 659              		.loc 2 203 0
 660 001c 80630060 		lwz 3,96(3)
 661              	.LVL53:
 662 0020 2F830000 		cmpwi 7,3,0
 663 0024 419E0070 		beq- 7,.L46
 664              		.loc 2 204 0
 665 0028 81230000 		lwz 9,0(3)
 666 002c 6FFF8000 		xoris 31,31,0x8000
 667              	.LVL54:
 668 0030 80090064 		lwz 0,100(9)
 669 0034 7C0903A6 		mtctr 0
 670 0038 4E800421 		bctrl
 671 003c 3C004330 		lis 0,0x4330
 672 0040 6C638000 		xoris 3,3,0x8000
 673 0044 90010010 		stw 0,16(1)
 674 0048 90610014 		stw 3,20(1)
 675 004c 3D200000 		lis 9,.LC1@ha
 676 0050 C0090000 		lfs 0,.LC1@l(9)
 677 0054 3D200000 		lis 9,.LC2@ha
 678 0058 C9A10010 		lfd 13,16(1)
 679 005c C1890004 		lfs 12,.LC2@l(9)
 680 0060 39210018 		addi 9,1,24
 681 0064 FDAD0028 		fsub 13,13,0
 682 0068 93E1000C 		stw 31,12(1)
 683 006c 90010008 		stw 0,8(1)
 684 0070 FDA06818 		frsp 13,13
 685 0074 EDAD6024 		fdivs 13,13,12
 686 0078 C9810008 		lfd 12,8(1)
 687 007c FC0C0028 		fsub 0,12,0
 688 0080 FC000018 		frsp 0,0
 689 0084 EC000372 		fmuls 0,0,13
 690 0088 FC00001E 		fctiwz 0,0
 691 008c 7C004FAE 		stfiwx 0,0,9
 692 0090 83E10018 		lwz 31,24(1)
 693              	.LVL55:
 694              	.L46:
 695              	.LBE2545:
 696              		.loc 2 207 0
 697 0094 8001002C 		lwz 0,44(1)
 698 0098 7FE3FB78 		mr 3,31
 699 009c 83E10024 		lwz 31,36(1)
 700              	.LVL56:
 701 00a0 7C0803A6 		mtlr 0
 702 00a4 38210028 		addi 1,1,40
 703              		.cfi_remember_state
 704              	.LCFI6:
 705              		.cfi_def_cfa_offset 0
 706              		.cfi_restore 31
 707 00a8 4E800020 		blr
 708              	.LVL57:
 709              	.L47:
 710              	.LCFI7:
 711              		.cfi_restore_state
 712              	.LBB2546:
 713              		.loc 2 201 0
 714 00ac 83E30038 		lwz 31,56(3)
 715              	.LVL58:
 716 00b0 4BFFFF6C 		b .L45
 717              	.LBE2546:
 718              		.cfi_endproc
 719              	.LFE1404:
 720              		.size	_ZN10GuiElement8GetAlphaEv, .-_ZN10GuiElement8GetAlphaEv
 721              		.section	.text._ZN10GuiElement8SetScaleEf,"axG",@progbits,_ZN10GuiElement8SetScaleEf,comdat
 722              		.align 2
 723              		.weak	_ZN10GuiElement8SetScaleEf
 724              		.type	_ZN10GuiElement8SetScaleEf, @function
 725              	_ZN10GuiElement8SetScaleEf:
 726              	.LFB1405:
 727              		.loc 2 210 0
 728              		.cfi_startproc
 729              	.LVL59:
 730              		.loc 2 212 0
 731 0000 D023003C 		stfs 1,60(3)
 732              		.loc 2 214 0
 733              		.loc 2 213 0
 734 0004 D0230040 		stfs 1,64(3)
 735              		.loc 2 214 0
 736 0008 4E800020 		blr
 737              		.cfi_endproc
 738              	.LFE1405:
 739              		.size	_ZN10GuiElement8SetScaleEf, .-_ZN10GuiElement8SetScaleEf
 740              		.section	.text._ZN10GuiElement9SetScaleXEf,"axG",@progbits,_ZN10GuiElement9SetScaleXEf,comdat
 741              		.align 2
 742              		.weak	_ZN10GuiElement9SetScaleXEf
 743              		.type	_ZN10GuiElement9SetScaleXEf, @function
 744              	_ZN10GuiElement9SetScaleXEf:
 745              	.LFB1406:
 746              		.loc 2 217 0
 747              		.cfi_startproc
 748              	.LVL60:
 749              		.loc 2 217 0
 750 0000 D023003C 		stfs 1,60(3)
 751 0004 4E800020 		blr
 752              		.cfi_endproc
 753              	.LFE1406:
 754              		.size	_ZN10GuiElement9SetScaleXEf, .-_ZN10GuiElement9SetScaleXEf
 755              		.section	.text._ZN10GuiElement9SetScaleYEf,"axG",@progbits,_ZN10GuiElement9SetScaleYEf,comdat
 756              		.align 2
 757              		.weak	_ZN10GuiElement9SetScaleYEf
 758              		.type	_ZN10GuiElement9SetScaleYEf, @function
 759              	_ZN10GuiElement9SetScaleYEf:
 760              	.LFB1407:
 761              		.loc 2 220 0
 762              		.cfi_startproc
 763              	.LVL61:
 764              		.loc 2 220 0
 765 0000 D0230040 		stfs 1,64(3)
 766 0004 4E800020 		blr
 767              		.cfi_endproc
 768              	.LFE1407:
 769              		.size	_ZN10GuiElement9SetScaleYEf, .-_ZN10GuiElement9SetScaleYEf
 770              		.section	.text._ZN10GuiElement8GetScaleEv,"axG",@progbits,_ZN10GuiElement8GetScaleEv,comdat
 771              		.align 2
 772              		.weak	_ZN10GuiElement8GetScaleEv
 773              		.type	_ZN10GuiElement8GetScaleEv, @function
 774              	_ZN10GuiElement8GetScaleEv:
 775              	.LFB1408:
 776              		.loc 2 223 0
 777              		.cfi_startproc
 778              	.LVL62:
 779 0000 7C0802A6 		mflr 0
 780 0004 9421FFF0 		stwu 1,-16(1)
 781              	.LCFI8:
 782              		.cfi_def_cfa_offset 16
 783              		.cfi_register 65, 0
 784              	.LBB2547:
 785              		.loc 2 225 0
 786 0008 3D200000 		lis 9,.LC3@ha
 787              	.LBE2547:
 788              		.loc 2 223 0
 789 000c DBE10008 		stfd 31,8(1)
 790 0010 90010014 		stw 0,20(1)
 791              	.LBB2548:
 792              		.loc 2 225 0
 793 0014 C0030040 		lfs 0,64(3)
 794 0018 C3E3003C 		lfs 31,60(3)
 795              		.cfi_offset 65, 4
 796              		.cfi_offset 63, -8
 797              		.loc 2 227 0
 798 001c 81630060 		lwz 11,96(3)
 799              		.loc 2 225 0
 800 0020 EFFF002A 		fadds 31,31,0
 801 0024 C0090008 		lfs 0,.LC3@l(9)
 802              		.loc 2 227 0
 803 0028 2F8B0000 		cmpwi 7,11,0
 804              		.loc 2 225 0
 805 002c EFFF0032 		fmuls 31,31,0
 806 0030 C0030070 		lfs 0,112(3)
 807 0034 EFFF0032 		fmuls 31,31,0
 808              	.LVL63:
 809              		.loc 2 227 0
 810 0038 419E001C 		beq- 7,.L52
 811              		.loc 2 228 0
 812 003c 812B0000 		lwz 9,0(11)
 813 0040 7D635B78 		mr 3,11
 814              	.LVL64:
 815 0044 80090074 		lwz 0,116(9)
 816 0048 7C0903A6 		mtctr 0
 817 004c 4E800421 		bctrl
 818 0050 EFFF0072 		fmuls 31,31,1
 819              	.LVL65:
 820              	.L52:
 821              	.LBE2548:
 822              		.loc 2 231 0
 823 0054 80010014 		lwz 0,20(1)
 824 0058 FC20F890 		fmr 1,31
 825 005c CBE10008 		lfd 31,8(1)
 826              	.LVL66:
 827 0060 7C0803A6 		mtlr 0
 828 0064 38210010 		addi 1,1,16
 829              	.LCFI9:
 830              		.cfi_def_cfa_offset 0
 831              		.cfi_restore 63
 832 0068 4E800020 		blr
 833              		.cfi_endproc
 834              	.LFE1408:
 835              		.size	_ZN10GuiElement8GetScaleEv, .-_ZN10GuiElement8GetScaleEv
 836              		.section	.text._ZN10GuiElement9GetScaleXEv,"axG",@progbits,_ZN10GuiElement9GetScaleXEv,comdat
 837              		.align 2
 838              		.weak	_ZN10GuiElement9GetScaleXEv
 839              		.type	_ZN10GuiElement9GetScaleXEv, @function
 840              	_ZN10GuiElement9GetScaleXEv:
 841              	.LFB1409:
 842              		.loc 2 234 0
 843              		.cfi_startproc
 844              	.LVL67:
 845 0000 7C0802A6 		mflr 0
 846 0004 9421FFF0 		stwu 1,-16(1)
 847              	.LCFI10:
 848              		.cfi_def_cfa_offset 16
 849              		.cfi_register 65, 0
 850 0008 DBE10008 		stfd 31,8(1)
 851 000c 90010014 		stw 0,20(1)
 852              	.LBB2549:
 853              		.loc 2 238 0
 854 0010 81630060 		lwz 11,96(3)
 855              		.loc 2 236 0
 856 0014 C3E3003C 		lfs 31,60(3)
 857              		.cfi_offset 65, 4
 858              		.cfi_offset 63, -8
 859              		.loc 2 238 0
 860 0018 2F8B0000 		cmpwi 7,11,0
 861              		.loc 2 236 0
 862 001c C0030070 		lfs 0,112(3)
 863 0020 EFFF0032 		fmuls 31,31,0
 864              	.LVL68:
 865              		.loc 2 238 0
 866 0024 419E001C 		beq- 7,.L54
 867              		.loc 2 239 0
 868 0028 812B0000 		lwz 9,0(11)
 869 002c 7D635B78 		mr 3,11
 870              	.LVL69:
 871 0030 80090078 		lwz 0,120(9)
 872 0034 7C0903A6 		mtctr 0
 873 0038 4E800421 		bctrl
 874 003c EFFF0072 		fmuls 31,31,1
 875              	.LVL70:
 876              	.L54:
 877              	.LBE2549:
 878              		.loc 2 242 0
 879 0040 80010014 		lwz 0,20(1)
 880 0044 FC20F890 		fmr 1,31
 881 0048 CBE10008 		lfd 31,8(1)
 882              	.LVL71:
 883 004c 7C0803A6 		mtlr 0
 884 0050 38210010 		addi 1,1,16
 885              	.LCFI11:
 886              		.cfi_def_cfa_offset 0
 887              		.cfi_restore 63
 888 0054 4E800020 		blr
 889              		.cfi_endproc
 890              	.LFE1409:
 891              		.size	_ZN10GuiElement9GetScaleXEv, .-_ZN10GuiElement9GetScaleXEv
 892              		.section	.text._ZN10GuiElement9GetScaleYEv,"axG",@progbits,_ZN10GuiElement9GetScaleYEv,comdat
 893              		.align 2
 894              		.weak	_ZN10GuiElement9GetScaleYEv
 895              		.type	_ZN10GuiElement9GetScaleYEv, @function
 896              	_ZN10GuiElement9GetScaleYEv:
 897              	.LFB1410:
 898              		.loc 2 245 0
 899              		.cfi_startproc
 900              	.LVL72:
 901 0000 7C0802A6 		mflr 0
 902 0004 9421FFF0 		stwu 1,-16(1)
 903              	.LCFI12:
 904              		.cfi_def_cfa_offset 16
 905              		.cfi_register 65, 0
 906 0008 DBE10008 		stfd 31,8(1)
 907 000c 90010014 		stw 0,20(1)
 908              	.LBB2550:
 909              		.loc 2 249 0
 910 0010 81630060 		lwz 11,96(3)
 911              		.loc 2 247 0
 912 0014 C3E30040 		lfs 31,64(3)
 913              		.cfi_offset 65, 4
 914              		.cfi_offset 63, -8
 915              		.loc 2 249 0
 916 0018 2F8B0000 		cmpwi 7,11,0
 917              		.loc 2 247 0
 918 001c C0030070 		lfs 0,112(3)
 919 0020 EFFF0032 		fmuls 31,31,0
 920              	.LVL73:
 921              		.loc 2 249 0
 922 0024 419E001C 		beq- 7,.L56
 923              		.loc 2 250 0
 924 0028 812B0000 		lwz 9,0(11)
 925 002c 7D635B78 		mr 3,11
 926              	.LVL74:
 927 0030 8009007C 		lwz 0,124(9)
 928 0034 7C0903A6 		mtctr 0
 929 0038 4E800421 		bctrl
 930 003c EFFF0072 		fmuls 31,31,1
 931              	.LVL75:
 932              	.L56:
 933              	.LBE2550:
 934              		.loc 2 253 0
 935 0040 80010014 		lwz 0,20(1)
 936 0044 FC20F890 		fmr 1,31
 937 0048 CBE10008 		lfd 31,8(1)
 938              	.LVL76:
 939 004c 7C0803A6 		mtlr 0
 940 0050 38210010 		addi 1,1,16
 941              	.LCFI13:
 942              		.cfi_def_cfa_offset 0
 943              		.cfi_restore 63
 944 0054 4E800020 		blr
 945              		.cfi_endproc
 946              	.LFE1410:
 947              		.size	_ZN10GuiElement9GetScaleYEv, .-_ZN10GuiElement9GetScaleYEv
 948              		.section	.text._ZN10GuiElement6RumbleEv,"axG",@progbits,_ZN10GuiElement6RumbleEv,comdat
 949              		.align 2
 950              		.weak	_ZN10GuiElement6RumbleEv
 951              		.type	_ZN10GuiElement6RumbleEv, @function
 952              	_ZN10GuiElement6RumbleEv:
 953              	.LFB1411:
 954              		.loc 2 256 0
 955              		.cfi_startproc
 956              	.LVL77:
 957              		.loc 2 256 0
 958 0000 8863001C 		lbz 3,28(3)
 959              	.LVL78:
 960 0004 4E800020 		blr
 961              		.cfi_endproc
 962              	.LFE1411:
 963              		.size	_ZN10GuiElement6RumbleEv, .-_ZN10GuiElement6RumbleEv
 964              		.section	.text._ZN10GuiElement9SetRumbleEb,"axG",@progbits,_ZN10GuiElement9SetRumbleEb,comdat
 965              		.align 2
 966              		.weak	_ZN10GuiElement9SetRumbleEb
 967              		.type	_ZN10GuiElement9SetRumbleEb, @function
 968              	_ZN10GuiElement9SetRumbleEb:
 969              	.LFB1412:
 970              		.loc 2 259 0
 971              		.cfi_startproc
 972              	.LVL79:
 973              		.loc 2 259 0
 974 0000 9883001C 		stb 4,28(3)
 975 0004 4E800020 		blr
 976              		.cfi_endproc
 977              	.LFE1412:
 978              		.size	_ZN10GuiElement9SetRumbleEb, .-_ZN10GuiElement9SetRumbleEb
 979              		.section	.text._ZN10GuiElement13SetEffectGrowEv,"axG",@progbits,_ZN10GuiElement13SetEffectGrowEv,c
 980              		.align 2
 981              		.weak	_ZN10GuiElement13SetEffectGrowEv
 982              		.type	_ZN10GuiElement13SetEffectGrowEv, @function
 983              	_ZN10GuiElement13SetEffectGrowEv:
 984              	.LFB1413:
 985              		.loc 2 271 0
 986              		.cfi_startproc
 987              	.LVL80:
 988 0000 7C0802A6 		mflr 0
 989 0004 9421FFF8 		stwu 1,-8(1)
 990              	.LCFI14:
 991              		.cfi_def_cfa_offset 8
 992              		.cfi_register 65, 0
 993 0008 81230000 		lwz 9,0(3)
 994 000c 38800100 		li 4,256
 995 0010 38A00004 		li 5,4
 996 0014 38C0006E 		li 6,110
 997 0018 9001000C 		stw 0,12(1)
 998              		.loc 2 271 0
 999 001c 8009008C 		lwz 0,140(9)
 1000              		.cfi_offset 65, 4
 1001 0020 7C0903A6 		mtctr 0
 1002 0024 4E800421 		bctrl
 1003              	.LVL81:
 1004 0028 8001000C 		lwz 0,12(1)
 1005 002c 38210008 		addi 1,1,8
 1006              	.LCFI15:
 1007              		.cfi_def_cfa_offset 0
 1008 0030 7C0803A6 		mtlr 0
 1009 0034 4E800020 		blr
 1010              		.cfi_endproc
 1011              	.LFE1413:
 1012              		.size	_ZN10GuiElement13SetEffectGrowEv, .-_ZN10GuiElement13SetEffectGrowEv
 1013              		.section	.text._ZNK10GuiElement9GetEffectEv,"axG",@progbits,_ZNK10GuiElement9GetEffectEv,comdat
 1014              		.align 2
 1015              		.weak	_ZNK10GuiElement9GetEffectEv
 1016              		.type	_ZNK10GuiElement9GetEffectEv, @function
 1017              	_ZNK10GuiElement9GetEffectEv:
 1018              	.LFB1414:
 1019              		.loc 2 276 0
 1020              		.cfi_startproc
 1021              	.LVL82:
 1022              		.loc 2 276 0
 1023 0000 80630078 		lwz 3,120(3)
 1024              	.LVL83:
 1025 0004 4E800020 		blr
 1026              		.cfi_endproc
 1027              	.LFE1414:
 1028              		.size	_ZNK10GuiElement9GetEffectEv, .-_ZNK10GuiElement9GetEffectEv
 1029              		.section	.text._ZNK10GuiElement10IsAnimatedEv,"axG",@progbits,_ZNK10GuiElement10IsAnimatedEv,comda
 1030              		.align 2
 1031              		.weak	_ZNK10GuiElement10IsAnimatedEv
 1032              		.type	_ZNK10GuiElement10IsAnimatedEv, @function
 1033              	_ZNK10GuiElement10IsAnimatedEv:
 1034              	.LFB1415:
 1035              		.loc 2 278 0
 1036              		.cfi_startproc
 1037              	.LVL84:
 1038 0000 7C0802A6 		mflr 0
 1039 0004 9421FFF8 		stwu 1,-8(1)
 1040              	.LCFI16:
 1041              		.cfi_def_cfa_offset 8
 1042              		.cfi_register 65, 0
 1043 0008 9001000C 		stw 0,12(1)
 1044              		.loc 2 278 0
 1045 000c 81230000 		lwz 9,0(3)
 1046 0010 80090098 		lwz 0,152(9)
 1047              		.cfi_offset 65, 4
 1048 0014 7C0903A6 		mtctr 0
 1049 0018 4E800421 		bctrl
 1050              	.LVL85:
 1051 001c 7C60FE70 		srawi 0,3,31
 1052 0020 7C630050 		subf 3,3,0
 1053 0024 8001000C 		lwz 0,12(1)
 1054 0028 54630FFE 		srwi 3,3,31
 1055 002c 7C0803A6 		mtlr 0
 1056 0030 38210008 		addi 1,1,8
 1057              	.LCFI17:
 1058              		.cfi_def_cfa_offset 0
 1059 0034 4E800020 		blr
 1060              		.cfi_endproc
 1061              	.LFE1415:
 1062              		.size	_ZNK10GuiElement10IsAnimatedEv, .-_ZNK10GuiElement10IsAnimatedEv
 1063              		.section	.text._ZN10GuiElement9SetBoundsE4RectIiE,"axG",@progbits,_ZN10GuiElement9SetBoundsE4RectI
 1064              		.align 2
 1065              		.weak	_ZN10GuiElement9SetBoundsE4RectIiE
 1066              		.type	_ZN10GuiElement9SetBoundsE4RectIiE, @function
 1067              	_ZN10GuiElement9SetBoundsE4RectIiE:
 1068              	.LFB1416:
 1069              		.loc 2 280 0
 1070              		.cfi_startproc
 1071              	.LVL86:
 1072              	.LBB2551:
 1073              	.LBB2552:
 1074              		.file 5 "d:/Projects/SaveGameManager/savegame-manager-gx/trunk/source/GUI/../Tools/Rect.h"
 1075              		.loc 5 30 0
 1076 0000 81440000 		lwz 10,0(4)
 1077              	.LBE2552:
 1078              	.LBE2551:
 1079              		.loc 2 280 0
 1080              	.LBB2554:
 1081              	.LBB2553:
 1082              		.loc 5 31 0
 1083 0004 81640008 		lwz 11,8(4)
 1084              		.loc 5 32 0
 1085 0008 81240004 		lwz 9,4(4)
 1086              		.loc 5 33 0
 1087 000c 8004000C 		lwz 0,12(4)
 1088              	.LVL87:
 1089              		.loc 5 30 0
 1090 0010 91430050 		stw 10,80(3)
 1091              		.loc 5 31 0
 1092 0014 91630058 		stw 11,88(3)
 1093              		.loc 5 32 0
 1094 0018 91230054 		stw 9,84(3)
 1095              		.loc 5 33 0
 1096 001c 9003005C 		stw 0,92(3)
 1097              	.LBE2553:
 1098              	.LBE2554:
 1099              		.loc 2 280 0
 1100 0020 4E800020 		blr
 1101              		.cfi_endproc
 1102              	.LFE1416:
 1103              		.size	_ZN10GuiElement9SetBoundsE4RectIiE, .-_ZN10GuiElement9SetBoundsE4RectIiE
 1104              		.section	.text._ZN10GuiElement8IsInsideEii,"axG",@progbits,_ZN10GuiElement8IsInsideEii,comdat
 1105              		.align 2
 1106              		.weak	_ZN10GuiElement8IsInsideEii
 1107              		.type	_ZN10GuiElement8IsInsideEii, @function
 1108              	_ZN10GuiElement8IsInsideEii:
 1109              	.LFB1417:
 1110              		.loc 2 285 0
 1111              		.cfi_startproc
 1112              	.LVL88:
 1113 0000 7C0802A6 		mflr 0
 1114 0004 9421FFE8 		stwu 1,-24(1)
 1115              	.LCFI18:
 1116              		.cfi_def_cfa_offset 24
 1117              		.cfi_register 65, 0
 1118 0008 93810008 		stw 28,8(1)
 1119 000c 7CBC2B78 		mr 28,5
 1120              		.cfi_offset 28, -16
 1121 0010 9001001C 		stw 0,28(1)
 1122 0014 93A1000C 		stw 29,12(1)
 1123              		.loc 2 290 0
 1124 0018 3BA00000 		li 29,0
 1125              		.cfi_offset 29, -12
 1126              		.cfi_offset 65, 4
 1127              		.loc 2 287 0
 1128 001c 81230000 		lwz 9,0(3)
 1129              		.loc 2 285 0
 1130 0020 93C10010 		stw 30,16(1)
 1131 0024 7C9E2378 		mr 30,4
 1132              		.cfi_offset 30, -8
 1133              		.loc 2 287 0
 1134 0028 80090010 		lwz 0,16(9)
 1135              		.loc 2 285 0
 1136 002c 93E10014 		stw 31,20(1)
 1137              		.loc 2 285 0
 1138 0030 7C7F1B78 		mr 31,3
 1139              		.cfi_offset 31, -4
 1140              		.loc 2 287 0
 1141 0034 7C0903A6 		mtctr 0
 1142 0038 4E800421 		bctrl
 1143              	.LVL89:
 1144              		.loc 2 290 0
 1145 003c 7F83F000 		cmpw 7,3,30
 1146 0040 419C0028 		blt- 7,.L68
 1147              	.L64:
 1148              		.loc 2 291 0 discriminator 6
 1149 0044 8001001C 		lwz 0,28(1)
 1150 0048 7FA3EB78 		mr 3,29
 1151 004c 83810008 		lwz 28,8(1)
 1152              	.LVL90:
 1153 0050 7C0803A6 		mtlr 0
 1154 0054 83A1000C 		lwz 29,12(1)
 1155 0058 83C10010 		lwz 30,16(1)
 1156              	.LVL91:
 1157 005c 83E10014 		lwz 31,20(1)
 1158              	.LVL92:
 1159 0060 38210018 		addi 1,1,24
 1160              		.cfi_remember_state
 1161              	.LCFI19:
 1162              		.cfi_def_cfa_offset 0
 1163              		.cfi_restore 31
 1164              		.cfi_restore 30
 1165              		.cfi_restore 29
 1166              		.cfi_restore 28
 1167 0064 4E800020 		blr
 1168              	.LVL93:
 1169              	.L68:
 1170              	.LCFI20:
 1171              		.cfi_restore_state
 1172              		.loc 2 288 0 discriminator 1
 1173 0068 813F0000 		lwz 9,0(31)
 1174 006c 7FE3FB78 		mr 3,31
 1175 0070 80090010 		lwz 0,16(9)
 1176 0074 7C0903A6 		mtctr 0
 1177 0078 4E800421 		bctrl
 1178              		.loc 2 290 0 discriminator 1
 1179 007c 801F0024 		lwz 0,36(31)
 1180 0080 7C030214 		add 0,3,0
 1181 0084 7F9E0000 		cmpw 7,30,0
 1182 0088 409CFFBC 		bge+ 7,.L64
 1183              		.loc 2 289 0 discriminator 3
 1184 008c 813F0000 		lwz 9,0(31)
 1185 0090 7FE3FB78 		mr 3,31
 1186 0094 80090014 		lwz 0,20(9)
 1187 0098 7C0903A6 		mtctr 0
 1188 009c 4E800421 		bctrl
 1189              		.loc 2 290 0 discriminator 3
 1190 00a0 7F83E000 		cmpw 7,3,28
 1191 00a4 409CFFA0 		bge+ 7,.L64
 1192              		.loc 2 290 0 is_stmt 0 discriminator 4
 1193 00a8 813F0000 		lwz 9,0(31)
 1194 00ac 7FE3FB78 		mr 3,31
 1195 00b0 80090014 		lwz 0,20(9)
 1196 00b4 7C0903A6 		mtctr 0
 1197 00b8 4E800421 		bctrl
 1198 00bc 801F0028 		lwz 0,40(31)
 1199 00c0 7C030214 		add 0,3,0
 1200              		.loc 2 285 0 is_stmt 1 discriminator 4
 1201 00c4 7F9C0000 		cmpw 7,28,0
 1202 00c8 7FA00026 		mfcr 29
 1203 00cc 57BDEFFE 		rlwinm 29,29,29,1
 1204 00d0 4BFFFF74 		b .L64
 1205              		.cfi_endproc
 1206              	.LFE1417:
 1207              		.size	_ZN10GuiElement8IsInsideEii, .-_ZN10GuiElement8IsInsideEii
 1208              		.section	.text._ZN10GuiElement11SetPositionEii,"axG",@progbits,_ZN10GuiElement11SetPositionEii,com
 1209              		.align 2
 1210              		.weak	_ZN10GuiElement11SetPositionEii
 1211              		.type	_ZN10GuiElement11SetPositionEii, @function
 1212              	_ZN10GuiElement11SetPositionEii:
 1213              	.LFB1418:
 1214              		.loc 2 295 0
 1215              		.cfi_startproc
 1216              	.LVL94:
 1217              		.loc 2 297 0
 1218 0000 9083002C 		stw 4,44(3)
 1219              		.loc 2 299 0
 1220              		.loc 2 298 0
 1221 0004 90A30030 		stw 5,48(3)
 1222              		.loc 2 299 0
 1223 0008 4E800020 		blr
 1224              		.cfi_endproc
 1225              	.LFE1418:
 1226              		.size	_ZN10GuiElement11SetPositionEii, .-_ZN10GuiElement11SetPositionEii
 1227              		.section	.text._ZN10GuiElement11SetPositionEiii,"axG",@progbits,_ZN10GuiElement11SetPositionEiii,c
 1228              		.align 2
 1229              		.weak	_ZN10GuiElement11SetPositionEiii
 1230              		.type	_ZN10GuiElement11SetPositionEiii, @function
 1231              	_ZN10GuiElement11SetPositionEiii:
 1232              	.LFB1419:
 1233              		.loc 2 304 0
 1234              		.cfi_startproc
 1235              	.LVL95:
 1236              		.loc 2 306 0
 1237 0000 9083002C 		stw 4,44(3)
 1238              		.loc 2 309 0
 1239              		.loc 2 307 0
 1240 0004 90A30030 		stw 5,48(3)
 1241              		.loc 2 308 0
 1242 0008 90C30034 		stw 6,52(3)
 1243              		.loc 2 309 0
 1244 000c 4E800020 		blr
 1245              		.cfi_endproc
 1246              	.LFE1419:
 1247              		.size	_ZN10GuiElement11SetPositionEiii, .-_ZN10GuiElement11SetPositionEiii
 1248              		.section	.text._ZN10GuiElement11GetSelectedEv,"axG",@progbits,_ZN10GuiElement11GetSelectedEv,comda
 1249              		.align 2
 1250              		.weak	_ZN10GuiElement11GetSelectedEv
 1251              		.type	_ZN10GuiElement11GetSelectedEv, @function
 1252              	_ZN10GuiElement11GetSelectedEv:
 1253              	.LFB1420:
 1254              		.loc 2 312 0
 1255              		.cfi_startproc
 1256              	.LVL96:
 1257              		.loc 2 312 0
 1258 0000 3860FFFF 		li 3,-1
 1259              	.LVL97:
 1260 0004 4E800020 		blr
 1261              		.cfi_endproc
 1262              	.LFE1420:
 1263              		.size	_ZN10GuiElement11GetSelectedEv, .-_ZN10GuiElement11GetSelectedEv
 1264              		.section	.text._ZN10GuiElement12SetAlignmentEi,"axG",@progbits,_ZN10GuiElement12SetAlignmentEi,com
 1265              		.align 2
 1266              		.weak	_ZN10GuiElement12SetAlignmentEi
 1267              		.type	_ZN10GuiElement12SetAlignmentEi, @function
 1268              	_ZN10GuiElement12SetAlignmentEi:
 1269              	.LFB1421:
 1270              		.loc 2 316 0
 1271              		.cfi_startproc
 1272              	.LVL98:
 1273              		.loc 2 316 0
 1274 0000 90830044 		stw 4,68(3)
 1275 0004 4E800020 		blr
 1276              		.cfi_endproc
 1277              	.LFE1421:
 1278              		.size	_ZN10GuiElement12SetAlignmentEi, .-_ZN10GuiElement12SetAlignmentEi
 1279              		.section	.text._ZNK10GuiElement12GetAlignmentEv,"axG",@progbits,_ZNK10GuiElement12GetAlignmentEv,c
 1280              		.align 2
 1281              		.weak	_ZNK10GuiElement12GetAlignmentEv
 1282              		.type	_ZNK10GuiElement12GetAlignmentEv, @function
 1283              	_ZNK10GuiElement12GetAlignmentEv:
 1284              	.LFB1422:
 1285              		.loc 2 318 0
 1286              		.cfi_startproc
 1287              	.LVL99:
 1288              		.loc 2 318 0
 1289 0000 80630044 		lwz 3,68(3)
 1290              	.LVL100:
 1291 0004 4E800020 		blr
 1292              		.cfi_endproc
 1293              	.LFE1422:
 1294              		.size	_ZNK10GuiElement12GetAlignmentEv, .-_ZNK10GuiElement12GetAlignmentEv
 1295              		.section	".text"
 1296              		.align 2
 1297              		.globl _ZN16GuiOptionBrowser13OnButtonClickEP9GuiButtoniRK6_POINT
 1298              		.type	_ZN16GuiOptionBrowser13OnButtonClickEP9GuiButtoniRK6_POINT, @function
 1299              	_ZN16GuiOptionBrowser13OnButtonClickEP9GuiButtoniRK6_POINT:
 1300              	.LFB1574:
 1301              		.loc 3 113 0
 1302              		.cfi_startproc
 1303              		.cfi_personality 0,__gxx_personality_v0
 1304              		.cfi_lsda 0,.LLSDA1574
 1305              	.LVL101:
 1306 0000 7C0802A6 		mflr 0
 1307 0004 9421FFE0 		stwu 1,-32(1)
 1308              	.LCFI21:
 1309              		.cfi_def_cfa_offset 32
 1310              		.cfi_register 65, 0
 1311 0008 93C10018 		stw 30,24(1)
 1312 000c 7C7E1B78 		mr 30,3
 1313              		.cfi_offset 30, -8
 1314 0010 90010024 		stw 0,36(1)
 1315 0014 9361000C 		stw 27,12(1)
 1316              	.LBB2555:
 1317              		.loc 3 116 0
 1318 0018 800300CC 		lwz 0,204(3)
 1319              		.cfi_offset 27, -20
 1320              		.cfi_offset 65, 4
 1321              	.LBE2555:
 1322              		.loc 3 113 0
 1323 001c 93810010 		stw 28,16(1)
 1324              	.LBB2581:
 1325              		.loc 3 116 0
 1326 0020 7F802000 		cmpw 7,0,4
 1327              	.LBE2581:
 1328              		.loc 3 113 0
 1329 0024 93A10014 		stw 29,20(1)
 1330 0028 93E1001C 		stw 31,28(1)
 1331              	.LBB2582:
 1332              		.loc 3 116 0
 1333 002c 419E0088 		beq- 7,.L81
 1334              		.cfi_offset 31, -4
 1335              		.cfi_offset 29, -12
 1336              		.cfi_offset 28, -16
 1337              	.LVL102:
 1338 0030 800300D0 		lwz 0,208(3)
 1339 0034 7F802000 		cmpw 7,0,4
 1340 0038 419E0110 		beq- 7,.L82
 1341              	.LVL103:
 1342 003c 800300D4 		lwz 0,212(3)
 1343 0040 7F802000 		cmpw 7,0,4
 1344 0044 419E010C 		beq- 7,.L83
 1345              	.LVL104:
 1346 0048 800300D8 		lwz 0,216(3)
 1347 004c 7F802000 		cmpw 7,0,4
 1348 0050 419E0108 		beq- 7,.L84
 1349              	.LVL105:
 1350 0054 800300DC 		lwz 0,220(3)
 1351 0058 7F802000 		cmpw 7,0,4
 1352 005c 419E0104 		beq- 7,.L85
 1353              	.LVL106:
 1354 0060 800300E0 		lwz 0,224(3)
 1355 0064 7F802000 		cmpw 7,0,4
 1356 0068 419E0100 		beq- 7,.L86
 1357              	.LVL107:
 1358 006c 800300E4 		lwz 0,228(3)
 1359 0070 7F802000 		cmpw 7,0,4
 1360 0074 419E00FC 		beq- 7,.L87
 1361              	.LVL108:
 1362 0078 800300E8 		lwz 0,232(3)
 1363 007c 7F802000 		cmpw 7,0,4
 1364 0080 419E00F8 		beq- 7,.L88
 1365              	.LVL109:
 1366 0084 800300EC 		lwz 0,236(3)
 1367 0088 7F802000 		cmpw 7,0,4
 1368 008c 419E00F4 		beq- 7,.L92
 1369              	.LBE2582:
 1370              		.loc 3 122 0
 1371 0090 80010024 		lwz 0,36(1)
 1372 0094 8361000C 		lwz 27,12(1)
 1373 0098 7C0803A6 		mtlr 0
 1374 009c 83810010 		lwz 28,16(1)
 1375 00a0 83A10014 		lwz 29,20(1)
 1376 00a4 83C10018 		lwz 30,24(1)
 1377 00a8 83E1001C 		lwz 31,28(1)
 1378 00ac 38210020 		addi 1,1,32
 1379              		.cfi_remember_state
 1380              	.LCFI22:
 1381              		.cfi_def_cfa_offset 0
 1382              		.cfi_restore 31
 1383              		.cfi_restore 30
 1384              		.cfi_restore 29
 1385              		.cfi_restore 28
 1386              		.cfi_restore 27
 1387 00b0 4E800020 		blr
 1388              	.LVL110:
 1389              	.L81:
 1390              	.LCFI23:
 1391              		.cfi_restore_state
 1392              	.LBB2583:
 1393              		.loc 3 114 0
 1394 00b4 38000000 		li 0,0
 1395              	.LVL111:
 1396              	.L75:
 1397              	.LBB2556:
 1398              	.LBB2557:
 1399              	.LBB2558:
 1400              	.LBB2559:
 1401              		.loc 1 338 0
 1402 00b8 813E00AC 		lwz 9,172(30)
 1403              	.LBE2559:
 1404              	.LBE2558:
 1405              		.loc 1 2270 0
 1406 00bc 3B7E00AC 		addi 27,30,172
 1407              	.LBB2563:
 1408              	.LBB2560:
 1409              		.loc 1 338 0
 1410 00c0 7F63DB78 		mr 3,27
 1411              	.LVL112:
 1412              	.LBE2560:
 1413              	.LBE2563:
 1414              	.LBE2557:
 1415              	.LBE2556:
 1416              		.loc 3 118 0
 1417 00c4 839E00BC 		lwz 28,188(30)
 1418              	.LBB2578:
 1419              	.LBB2574:
 1420              	.LBB2564:
 1421              	.LBB2561:
 1422              		.loc 1 338 0
 1423 00c8 81290008 		lwz 9,8(9)
 1424              	.LBE2561:
 1425              	.LBE2564:
 1426              	.LBE2574:
 1427              		.loc 3 226 0
 1428 00cc 7FDDF378 		mr 29,30
 1429              	.LBE2578:
 1430              		.loc 3 118 0
 1431 00d0 7F80E214 		add 28,0,28
 1432              	.LVL113:
 1433              	.LBB2579:
 1434              	.LBB2575:
 1435              	.LBB2565:
 1436              	.LBB2562:
 1437              		.loc 1 338 0
 1438 00d4 7D2903A6 		mtctr 9
 1439              	.LEHB4:
 1440 00d8 4E800421 		bctrl
 1441              	.LEHE4:
 1442              	.LVL114:
 1443              	.LBE2562:
 1444              	.LBE2565:
 1445              	.LBE2575:
 1446              		.loc 3 226 0
 1447 00dc 87FD00B0 		lwzu 31,176(29)
 1448              	.LVL115:
 1449              	.LBB2576:
 1450              		.loc 1 2274 0
 1451 00e0 7F9FE800 		cmpw 7,31,29
 1452 00e4 419E002C 		beq- 7,.L77
 1453              	.LVL116:
 1454              	.L91:
 1455              		.loc 1 2279 0
 1456 00e8 807F0008 		lwz 3,8(31)
 1457 00ec 7FC4F378 		mr 4,30
 1458 00f0 7F85E378 		mr 5,28
 1459              	.LBB2566:
 1460              	.LBB2567:
 1461              		.loc 4 234 0
 1462 00f4 83FF0000 		lwz 31,0(31)
 1463              	.LVL117:
 1464              	.LBE2567:
 1465              	.LBE2566:
 1466              		.loc 1 2279 0
 1467 00f8 81230000 		lwz 9,0(3)
 1468 00fc 8009000C 		lwz 0,12(9)
 1469 0100 7C0903A6 		mtctr 0
 1470              	.LEHB5:
 1471 0104 4E800421 		bctrl
 1472              	.LEHE5:
 1473              	.LVL118:
 1474              		.loc 1 2274 0
 1475 0108 7F9DF800 		cmpw 7,29,31
 1476 010c 409EFFDC 		bne+ 7,.L91
 1477              	.LVL119:
 1478              	.L77:
 1479              	.LBB2568:
 1480              	.LBB2569:
 1481              	.LBB2570:
 1482              		.loc 1 343 0
 1483 0110 813E00AC 		lwz 9,172(30)
 1484 0114 7F63DB78 		mr 3,27
 1485 0118 8009000C 		lwz 0,12(9)
 1486 011c 7C0903A6 		mtctr 0
 1487              	.LEHB6:
 1488 0120 4E800421 		bctrl
 1489              	.LEHE6:
 1490              	.LBE2570:
 1491              	.LBE2569:
 1492              	.LBE2568:
 1493              	.LBE2576:
 1494              	.LBE2579:
 1495              	.LBE2583:
 1496              		.loc 3 122 0
 1497 0124 80010024 		lwz 0,36(1)
 1498 0128 8361000C 		lwz 27,12(1)
 1499 012c 7C0803A6 		mtlr 0
 1500 0130 83810010 		lwz 28,16(1)
 1501              	.LVL120:
 1502 0134 83A10014 		lwz 29,20(1)
 1503 0138 83C10018 		lwz 30,24(1)
 1504              	.LVL121:
 1505 013c 83E1001C 		lwz 31,28(1)
 1506              	.LVL122:
 1507 0140 38210020 		addi 1,1,32
 1508              		.cfi_remember_state
 1509              		.cfi_restore 27
 1510              		.cfi_restore 28
 1511              		.cfi_restore 29
 1512              		.cfi_restore 30
 1513              		.cfi_restore 31
 1514              	.LCFI24:
 1515              		.cfi_def_cfa_offset 0
 1516 0144 4E800020 		blr
 1517              	.LVL123:
 1518              	.L82:
 1519              	.LCFI25:
 1520              		.cfi_restore_state
 1521              	.LBB2584:
 1522              		.loc 3 114 0
 1523 0148 38000001 		li 0,1
 1524 014c 4BFFFF6C 		b .L75
 1525              	.LVL124:
 1526              	.L83:
 1527 0150 38000002 		li 0,2
 1528 0154 4BFFFF64 		b .L75
 1529              	.LVL125:
 1530              	.L84:
 1531 0158 38000003 		li 0,3
 1532 015c 4BFFFF5C 		b .L75
 1533              	.LVL126:
 1534              	.L85:
 1535 0160 38000004 		li 0,4
 1536 0164 4BFFFF54 		b .L75
 1537              	.LVL127:
 1538              	.L86:
 1539 0168 38000005 		li 0,5
 1540 016c 4BFFFF4C 		b .L75
 1541              	.LVL128:
 1542              	.L87:
 1543 0170 38000006 		li 0,6
 1544 0174 4BFFFF44 		b .L75
 1545              	.LVL129:
 1546              	.L88:
 1547 0178 38000007 		li 0,7
 1548 017c 4BFFFF3C 		b .L75
 1549              	.LVL130:
 1550              	.L92:
 1551              		.loc 3 116 0
 1552 0180 38000008 		li 0,8
 1553 0184 4BFFFF34 		b .L75
 1554              	.LVL131:
 1555              	.L90:
 1556              	.LBB2580:
 1557              	.LBB2577:
 1558              	.LBB2571:
 1559              	.LBB2572:
 1560              	.LBB2573:
 1561              		.loc 1 343 0
 1562 0188 813E00AC 		lwz 9,172(30)
 1563 018c 7C7F1B78 		mr 31,3
 1564              	.LVL132:
 1565 0190 7F63DB78 		mr 3,27
 1566 0194 8009000C 		lwz 0,12(9)
 1567 0198 7C0903A6 		mtctr 0
 1568 019c 4E800421 		bctrl
 1569 01a0 7FE3FB78 		mr 3,31
 1570              	.LEHB7:
 1571 01a4 48000001 		bl _Unwind_Resume
 1572              	.LEHE7:
 1573              	.LBE2573:
 1574              	.LBE2572:
 1575              	.LBE2571:
 1576              	.LBE2577:
 1577              	.LBE2580:
 1578              	.LBE2584:
 1579              		.cfi_endproc
 1580              	.LFE1574:
 1581              		.section	.gcc_except_table
 1582              	.LLSDA1574:
 1583 0017 FF       		.byte	0xff
 1584 0018 FF       		.byte	0xff
 1585 0019 01       		.byte	0x1
 1586 001a 15       		.uleb128 .LLSDACSE1574-.LLSDACSB1574
 1587              	.LLSDACSB1574:
 1588 001b D801     		.uleb128 .LEHB4-.LFB1574
 1589 001d 04       		.uleb128 .LEHE4-.LEHB4
 1590 001e 00       		.uleb128 0
 1591 001f 00       		.uleb128 0
 1592 0020 8402     		.uleb128 .LEHB5-.LFB1574
 1593 0022 04       		.uleb128 .LEHE5-.LEHB5
 1594 0023 8803     		.uleb128 .L90-.LFB1574
 1595 0025 00       		.uleb128 0
 1596 0026 A002     		.uleb128 .LEHB6-.LFB1574
 1597 0028 04       		.uleb128 .LEHE6-.LEHB6
 1598 0029 00       		.uleb128 0
 1599 002a 00       		.uleb128 0
 1600 002b A403     		.uleb128 .LEHB7-.LFB1574
 1601 002d 04       		.uleb128 .LEHE7-.LEHB7
 1602 002e 00       		.uleb128 0
 1603 002f 00       		.uleb128 0
 1604              	.LLSDACSE1574:
 1605              		.section	".text"
 1606              		.size	_ZN16GuiOptionBrowser13OnButtonClickEP9GuiButtoniRK6_POINT, .-_ZN16GuiOptionBrowser13OnButto
 1607              		.section	.text._ZN7sigslot12_signal_baseINS_15single_threadedEED2Ev,"axG",@progbits,_ZN7sigslot12_
 1608              		.align 2
 1609              		.weak	_ZN7sigslot12_signal_baseINS_15single_threadedEED2Ev
 1610              		.type	_ZN7sigslot12_signal_baseINS_15single_threadedEED2Ev, @function
 1611              	_ZN7sigslot12_signal_baseINS_15single_threadedEED2Ev:
 1612              	.LFB1628:
 1613              		.loc 1 466 0
 1614              		.cfi_startproc
 1615              	.LVL133:
 1616              	.LBB2585:
 1617              	.LBB2586:
 1618              	.LBB2587:
 1619              	.LBB2588:
 1620              		.loc 1 105 0
 1621 0000 3D200000 		lis 9,_ZTVN7sigslot15single_threadedE+8@ha
 1622              	.LBE2588:
 1623              	.LBE2587:
 1624              	.LBE2586:
 1625              	.LBE2585:
 1626              		.loc 1 466 0
 1627              	.LBB2592:
 1628              	.LBB2591:
 1629              	.LBB2590:
 1630              	.LBB2589:
 1631              		.loc 1 105 0
 1632 0004 38090008 		la 0,_ZTVN7sigslot15single_threadedE+8@l(9)
 1633 0008 90030000 		stw 0,0(3)
 1634              	.LBE2589:
 1635              	.LBE2590:
 1636              	.LBE2591:
 1637              	.LBE2592:
 1638              		.loc 1 466 0
 1639 000c 4E800020 		blr
 1640              		.cfi_endproc
 1641              	.LFE1628:
 1642              		.size	_ZN7sigslot12_signal_baseINS_15single_threadedEED2Ev, .-_ZN7sigslot12_signal_baseINS_15singl
 1643              		.section	.text._ZN7sigslot17_connection_base2IiiNS_15single_threadedEED2Ev,"axG",@progbits,_ZN7sig
 1644              		.align 2
 1645              		.weak	_ZN7sigslot17_connection_base2IiiNS_15single_threadedEED2Ev
 1646              		.type	_ZN7sigslot17_connection_base2IiiNS_15single_threadedEED2Ev, @function
 1647              	_ZN7sigslot17_connection_base2IiiNS_15single_threadedEED2Ev:
 1648              	.LFB1755:
 1649              		.loc 1 376 0
 1650              		.cfi_startproc
 1651              	.LVL134:
 1652              	.LBB2593:
 1653              		.loc 1 376 0
 1654 0000 3D200000 		lis 9,_ZTVN7sigslot17_connection_base2IiiNS_15single_threadedEEE+8@ha
 1655              	.LBE2593:
 1656              	.LBB2594:
 1657 0004 38090008 		la 0,_ZTVN7sigslot17_connection_base2IiiNS_15single_threadedEEE+8@l(9)
 1658 0008 90030000 		stw 0,0(3)
 1659              	.LBE2594:
 1660 000c 4E800020 		blr
 1661              		.cfi_endproc
 1662              	.LFE1755:
 1663              		.size	_ZN7sigslot17_connection_base2IiiNS_15single_threadedEED2Ev, .-_ZN7sigslot17_connection_base
 1664              		.section	.text._ZN7sigslot17_connection_base3IP9GuiButtoniRK6_POINTNS_15single_threadedEED2Ev,"axG
 1665              		.align 2
 1666              		.weak	_ZN7sigslot17_connection_base3IP9GuiButtoniRK6_POINTNS_15single_threadedEED2Ev
 1667              		.type	_ZN7sigslot17_connection_base3IP9GuiButtoniRK6_POINTNS_15single_threadedEED2Ev, @function
 1668              	_ZN7sigslot17_connection_base3IP9GuiButtoniRK6_POINTNS_15single_threadedEED2Ev:
 1669              	.LFB1762:
 1670              		.loc 1 387 0
 1671              		.cfi_startproc
 1672              	.LVL135:
 1673              	.LBB2595:
 1674              		.loc 1 387 0
 1675 0000 3D200000 		lis 9,_ZTVN7sigslot17_connection_base3IP9GuiButtoniRK6_POINTNS_15single_threadedEEE+8@ha
 1676              	.LBE2595:
 1677              	.LBB2596:
 1678 0004 38090008 		la 0,_ZTVN7sigslot17_connection_base3IP9GuiButtoniRK6_POINTNS_15single_threadedEEE+8@l(9)
 1679 0008 90030000 		stw 0,0(3)
 1680              	.LBE2596:
 1681 000c 4E800020 		blr
 1682              		.cfi_endproc
 1683              	.LFE1762:
 1684              		.size	_ZN7sigslot17_connection_base3IP9GuiButtoniRK6_POINTNS_15single_threadedEED2Ev, .-_ZN7sigslo
 1685              		.section	.text._ZN7sigslot12_connection3I16GuiOptionBrowserP9GuiButtoniRK6_POINTNS_15single_thread
 1686              		.align 2
 1687              		.weak	_ZN7sigslot12_connection3I16GuiOptionBrowserP9GuiButtoniRK6_POINTNS_15single_threadedEED2Ev
 1688              		.type	_ZN7sigslot12_connection3I16GuiOptionBrowserP9GuiButtoniRK6_POINTNS_15single_threadedEED2Ev,
 1689              	_ZN7sigslot12_connection3I16GuiOptionBrowserP9GuiButtoniRK6_POINTNS_15single_threadedEED2Ev:
 1690              	.LFB2074:
 1691              		.loc 1 1783 0
 1692              		.cfi_startproc
 1693              	.LVL136:
 1694              	.LBB2597:
 1695              	.LBB2598:
 1696              	.LBB2599:
 1697              	.LBB2600:
 1698              		.loc 1 387 0
 1699 0000 3D200000 		lis 9,_ZTVN7sigslot17_connection_base3IP9GuiButtoniRK6_POINTNS_15single_threadedEEE+8@ha
 1700              	.LBE2600:
 1701              	.LBE2599:
 1702              	.LBE2598:
 1703              	.LBE2597:
 1704              		.loc 1 1786 0
 1705              	.LBB2604:
 1706              	.LBB2603:
 1707              	.LBB2602:
 1708              	.LBB2601:
 1709              		.loc 1 387 0
 1710 0004 38090008 		la 0,_ZTVN7sigslot17_connection_base3IP9GuiButtoniRK6_POINTNS_15single_threadedEEE+8@l(9)
 1711 0008 90030000 		stw 0,0(3)
 1712              	.LBE2601:
 1713              	.LBE2602:
 1714              	.LBE2603:
 1715              	.LBE2604:
 1716              		.loc 1 1786 0
 1717 000c 4E800020 		blr
 1718              		.cfi_endproc
 1719              	.LFE2074:
 1720              		.size	_ZN7sigslot12_connection3I16GuiOptionBrowserP9GuiButtoniRK6_POINTNS_15single_threadedEED2Ev,
 1721              		.section	.text._ZNK7sigslot12_connection3I16GuiOptionBrowserP9GuiButtoniRK6_POINTNS_15single_threa
 1722              		.align 2
 1723              		.weak	_ZNK7sigslot12_connection3I16GuiOptionBrowserP9GuiButtoniRK6_POINTNS_15single_threadedEE7get
 1724              		.type	_ZNK7sigslot12_connection3I16GuiOptionBrowserP9GuiButtoniRK6_POINTNS_15single_threadedEE7get
 1725              	_ZNK7sigslot12_connection3I16GuiOptionBrowserP9GuiButtoniRK6_POINTNS_15single_threadedEE7getdestEv:
 1726              	.LFB2077:
 1727              		.loc 1 1804 0
 1728              		.cfi_startproc
 1729              	.LVL137:
 1730              		.loc 1 1806 0
 1731 0000 81230004 		lwz 9,4(3)
 1732 0004 38600000 		li 3,0
 1733              	.LVL138:
 1734 0008 2F890000 		cmpwi 7,9,0
 1735 000c 4D9E0020 		beqlr- 7
 1736              		.loc 1 1806 0 is_stmt 0 discriminator 1
 1737 0010 38690090 		addi 3,9,144
 1738              		.loc 1 1807 0 is_stmt 1 discriminator 1
 1739 0014 4E800020 		blr
 1740              		.cfi_endproc
 1741              	.LFE2077:
 1742              		.size	_ZNK7sigslot12_connection3I16GuiOptionBrowserP9GuiButtoniRK6_POINTNS_15single_threadedEE7get
 1743              		.section	.text._ZN7sigslot12_connection3I16GuiOptionBrowserP9GuiButtoniRK6_POINTNS_15single_thread
 1744              		.align 2
 1745              		.weak	_ZN7sigslot12_connection3I16GuiOptionBrowserP9GuiButtoniRK6_POINTNS_15single_threadedEE4emit
 1746              		.type	_ZN7sigslot12_connection3I16GuiOptionBrowserP9GuiButtoniRK6_POINTNS_15single_threadedEE4emit
 1747              	_ZN7sigslot12_connection3I16GuiOptionBrowserP9GuiButtoniRK6_POINTNS_15single_threadedEE4emitES3_iS6
 1748              	.LFB2078:
 1749              		.loc 1 1799 0
 1750              		.cfi_startproc
 1751              	.LVL139:
 1752 0000 7C0802A6 		mflr 0
 1753 0004 9421FFF8 		stwu 1,-8(1)
 1754              	.LCFI26:
 1755              		.cfi_def_cfa_offset 8
 1756              		.cfi_register 65, 0
 1757 0008 9001000C 		stw 0,12(1)
 1758              		.loc 1 1801 0
 1759 000c 80030008 		lwz 0,8(3)
 1760              		.cfi_offset 65, 4
 1761 0010 81630004 		lwz 11,4(3)
 1762 0014 70090001 		andi. 9,0,1
 1763 0018 8123000C 		lwz 9,12(3)
 1764 001c 40820020 		bne- 0,.L107
 1765 0020 7C0903A6 		mtctr 0
 1766 0024 7C6B4A14 		add 3,11,9
 1767              	.LVL140:
 1768 0028 4E800421 		bctrl
 1769              	.LVL141:
 1770              		.loc 1 1802 0
 1771 002c 8001000C 		lwz 0,12(1)
 1772 0030 38210008 		addi 1,1,8
 1773              		.cfi_remember_state
 1774              	.LCFI27:
 1775              		.cfi_def_cfa_offset 0
 1776 0034 7C0803A6 		mtlr 0
 1777 0038 4E800020 		blr
 1778              	.LVL142:
 1779              	.L107:
 1780              	.LCFI28:
 1781              		.cfi_restore_state
 1782              		.loc 1 1801 0 discriminator 1
 1783 003c 7D4B482E 		lwzx 10,11,9
 1784 0040 7C6B4A14 		add 3,11,9
 1785              	.LVL143:
 1786 0044 7D2A0214 		add 9,10,0
 1787 0048 8009FFFF 		lwz 0,-1(9)
 1788 004c 7C0903A6 		mtctr 0
 1789 0050 4E800421 		bctrl
 1790              	.LVL144:
 1791              		.loc 1 1802 0 discriminator 1
 1792 0054 8001000C 		lwz 0,12(1)
 1793 0058 38210008 		addi 1,1,8
 1794              	.LCFI29:
 1795              		.cfi_def_cfa_offset 0
 1796 005c 7C0803A6 		mtlr 0
 1797 0060 4E800020 		blr
 1798              		.cfi_endproc
 1799              	.LFE2078:
 1800              		.size	_ZN7sigslot12_connection3I16GuiOptionBrowserP9GuiButtoniRK6_POINTNS_15single_threadedEE4emit
 1801              		.section	.text._ZN7sigslot12_connection2I16GuiOptionBrowseriiNS_15single_threadedEED2Ev,"axG",@pro
 1802              		.align 2
 1803              		.weak	_ZN7sigslot12_connection2I16GuiOptionBrowseriiNS_15single_threadedEED2Ev
 1804              		.type	_ZN7sigslot12_connection2I16GuiOptionBrowseriiNS_15single_threadedEED2Ev, @function
 1805              	_ZN7sigslot12_connection2I16GuiOptionBrowseriiNS_15single_threadedEED2Ev:
 1806              	.LFB2088:
 1807              		.loc 1 1735 0
 1808              		.cfi_startproc
 1809              	.LVL145:
 1810              	.LBB2605:
 1811              	.LBB2606:
 1812              	.LBB2607:
 1813              	.LBB2608:
 1814              		.loc 1 376 0
 1815 0000 3D200000 		lis 9,_ZTVN7sigslot17_connection_base2IiiNS_15single_threadedEEE+8@ha
 1816              	.LBE2608:
 1817              	.LBE2607:
 1818              	.LBE2606:
 1819              	.LBE2605:
 1820              		.loc 1 1738 0
 1821              	.LBB2612:
 1822              	.LBB2611:
 1823              	.LBB2610:
 1824              	.LBB2609:
 1825              		.loc 1 376 0
 1826 0004 38090008 		la 0,_ZTVN7sigslot17_connection_base2IiiNS_15single_threadedEEE+8@l(9)
 1827 0008 90030000 		stw 0,0(3)
 1828              	.LBE2609:
 1829              	.LBE2610:
 1830              	.LBE2611:
 1831              	.LBE2612:
 1832              		.loc 1 1738 0
 1833 000c 4E800020 		blr
 1834              		.cfi_endproc
 1835              	.LFE2088:
 1836              		.size	_ZN7sigslot12_connection2I16GuiOptionBrowseriiNS_15single_threadedEED2Ev, .-_ZN7sigslot12_co
 1837              		.section	.text._ZNK7sigslot12_connection2I16GuiOptionBrowseriiNS_15single_threadedEE7getdestEv,"ax
 1838              		.align 2
 1839              		.weak	_ZNK7sigslot12_connection2I16GuiOptionBrowseriiNS_15single_threadedEE7getdestEv
 1840              		.type	_ZNK7sigslot12_connection2I16GuiOptionBrowseriiNS_15single_threadedEE7getdestEv, @function
 1841              	_ZNK7sigslot12_connection2I16GuiOptionBrowseriiNS_15single_threadedEE7getdestEv:
 1842              	.LFB2091:
 1843              		.loc 1 1756 0
 1844              		.cfi_startproc
 1845              	.LVL146:
 1846              		.loc 1 1758 0
 1847 0000 81230004 		lwz 9,4(3)
 1848 0004 38600000 		li 3,0
 1849              	.LVL147:
 1850 0008 2F890000 		cmpwi 7,9,0
 1851 000c 4D9E0020 		beqlr- 7
 1852              		.loc 1 1758 0 is_stmt 0 discriminator 1
 1853 0010 38690090 		addi 3,9,144
 1854              		.loc 1 1759 0 is_stmt 1 discriminator 1
 1855 0014 4E800020 		blr
 1856              		.cfi_endproc
 1857              	.LFE2091:
 1858              		.size	_ZNK7sigslot12_connection2I16GuiOptionBrowseriiNS_15single_threadedEE7getdestEv, .-_ZNK7sigs
 1859              		.section	.text._ZN7sigslot12_connection2I16GuiOptionBrowseriiNS_15single_threadedEE4emitEii,"axG",
 1860              		.align 2
 1861              		.weak	_ZN7sigslot12_connection2I16GuiOptionBrowseriiNS_15single_threadedEE4emitEii
 1862              		.type	_ZN7sigslot12_connection2I16GuiOptionBrowseriiNS_15single_threadedEE4emitEii, @function
 1863              	_ZN7sigslot12_connection2I16GuiOptionBrowseriiNS_15single_threadedEE4emitEii:
 1864              	.LFB2092:
 1865              		.loc 1 1751 0
 1866              		.cfi_startproc
 1867              	.LVL148:
 1868 0000 7C0802A6 		mflr 0
 1869 0004 9421FFF8 		stwu 1,-8(1)
 1870              	.LCFI30:
 1871              		.cfi_def_cfa_offset 8
 1872              		.cfi_register 65, 0
 1873 0008 9001000C 		stw 0,12(1)
 1874              		.loc 1 1753 0
 1875 000c 80030008 		lwz 0,8(3)
 1876              		.cfi_offset 65, 4
 1877 0010 81630004 		lwz 11,4(3)
 1878 0014 70090001 		andi. 9,0,1
 1879 0018 8123000C 		lwz 9,12(3)
 1880 001c 40820020 		bne- 0,.L116
 1881 0020 7C0903A6 		mtctr 0
 1882 0024 7C6B4A14 		add 3,11,9
 1883              	.LVL149:
 1884 0028 4E800421 		bctrl
 1885              	.LVL150:
 1886              		.loc 1 1754 0
 1887 002c 8001000C 		lwz 0,12(1)
 1888 0030 38210008 		addi 1,1,8
 1889              		.cfi_remember_state
 1890              	.LCFI31:
 1891              		.cfi_def_cfa_offset 0
 1892 0034 7C0803A6 		mtlr 0
 1893 0038 4E800020 		blr
 1894              	.LVL151:
 1895              	.L116:
 1896              	.LCFI32:
 1897              		.cfi_restore_state
 1898              		.loc 1 1753 0 discriminator 1
 1899 003c 7D4B482E 		lwzx 10,11,9
 1900 0040 7C6B4A14 		add 3,11,9
 1901              	.LVL152:
 1902 0044 7D2A0214 		add 9,10,0
 1903 0048 8009FFFF 		lwz 0,-1(9)
 1904 004c 7C0903A6 		mtctr 0
 1905 0050 4E800421 		bctrl
 1906              	.LVL153:
 1907              		.loc 1 1754 0 discriminator 1
 1908 0054 8001000C 		lwz 0,12(1)
 1909 0058 38210008 		addi 1,1,8
 1910              	.LCFI33:
 1911              		.cfi_def_cfa_offset 0
 1912 005c 7C0803A6 		mtlr 0
 1913 0060 4E800020 		blr
 1914              		.cfi_endproc
 1915              	.LFE2092:
 1916              		.size	_ZN7sigslot12_connection2I16GuiOptionBrowseriiNS_15single_threadedEE4emitEii, .-_ZN7sigslot1
 1917              		.section	.text._ZN7sigslot12_connection2I16GuiOptionBrowseriiNS_15single_threadedEE9duplicateEPNS_
 1918              		.align 2
 1919              		.weak	_ZN7sigslot12_connection2I16GuiOptionBrowseriiNS_15single_threadedEE9duplicateEPNS_9has_slot
 1920              		.type	_ZN7sigslot12_connection2I16GuiOptionBrowseriiNS_15single_threadedEE9duplicateEPNS_9has_slot
 1921              	_ZN7sigslot12_connection2I16GuiOptionBrowseriiNS_15single_threadedEE9duplicateEPNS_9has_slotsIS2_EE
 1922              	.LFB2100:
 1923              		.loc 1 1746 0
 1924              		.cfi_startproc
 1925              	.LVL154:
 1926 0000 9421FFF0 		stwu 1,-16(1)
 1927              	.LCFI34:
 1928              		.cfi_def_cfa_offset 16
 1929 0004 7C0802A6 		mflr 0
 1930 0008 93C10008 		stw 30,8(1)
 1931 000c 7C9E2378 		mr 30,4
 1932              		.cfi_offset 30, -8
 1933              		.cfi_register 65, 0
 1934 0010 93E1000C 		stw 31,12(1)
 1935 0014 7C7F1B78 		mr 31,3
 1936              		.cfi_offset 31, -4
 1937              		.loc 1 1748 0
 1938 0018 38600010 		li 3,16
 1939              	.LVL155:
 1940              		.loc 1 1746 0
 1941 001c 90010014 		stw 0,20(1)
 1942              		.loc 1 1748 0
 1943              		.cfi_offset 65, 4
 1944 0020 48000001 		bl _Znwj
 1945              	.LVL156:
 1946 0024 2F9E0000 		cmpwi 7,30,0
 1947 0028 38000000 		li 0,0
 1948 002c 419E0008 		beq- 7,.L119
 1949              		.loc 1 1748 0 is_stmt 0 discriminator 1
 1950 0030 381EFF70 		addi 0,30,-144
 1951              	.L119:
 1952              	.LVL157:
 1953              		.loc 1 1748 0 discriminator 3
 1954 0034 817F0008 		lwz 11,8(31)
 1955              	.LVL158:
 1956              	.LBB2613:
 1957              	.LBB2614:
 1958              		.loc 1 1730 0 is_stmt 1 discriminator 3
 1959 0038 3D400000 		lis 10,_ZTVN7sigslot12_connection2I16GuiOptionBrowseriiNS_15single_threadedEEE+8@ha
 1960              	.LBE2614:
 1961              	.LBE2613:
 1962              		.loc 1 1748 0 discriminator 3
 1963 003c 813F000C 		lwz 9,12(31)
 1964              	.LVL159:
 1965              	.LBB2617:
 1966              	.LBB2615:
 1967              		.loc 1 1730 0 discriminator 3
 1968 0040 394A0008 		la 10,_ZTVN7sigslot12_connection2I16GuiOptionBrowseriiNS_15single_threadedEEE+8@l(10)
 1969              		.loc 1 1732 0 discriminator 3
 1970 0044 91630008 		stw 11,8(3)
 1971 0048 9123000C 		stw 9,12(3)
 1972              		.loc 1 1731 0 discriminator 3
 1973 004c 90030004 		stw 0,4(3)
 1974              	.LBE2615:
 1975              	.LBE2617:
 1976              		.loc 1 1749 0 discriminator 3
 1977 0050 80010014 		lwz 0,20(1)
 1978              	.LVL160:
 1979 0054 83C10008 		lwz 30,8(1)
 1980              	.LVL161:
 1981 0058 7C0803A6 		mtlr 0
 1982 005c 83E1000C 		lwz 31,12(1)
 1983              	.LVL162:
 1984              	.LBB2618:
 1985              	.LBB2616:
 1986              		.loc 1 1730 0 discriminator 3
 1987 0060 91430000 		stw 10,0(3)
 1988              	.LBE2616:
 1989              	.LBE2618:
 1990              		.loc 1 1749 0 discriminator 3
 1991 0064 38210010 		addi 1,1,16
 1992              	.LCFI35:
 1993              		.cfi_def_cfa_offset 0
 1994              		.cfi_restore 31
 1995              		.cfi_restore 30
 1996 0068 4E800020 		blr
 1997              		.cfi_endproc
 1998              	.LFE2100:
 1999              		.size	_ZN7sigslot12_connection2I16GuiOptionBrowseriiNS_15single_threadedEE9duplicateEPNS_9has_slot
 2000              		.section	.text._ZN7sigslot12_connection3I16GuiOptionBrowserP9GuiButtoniRK6_POINTNS_15single_thread
 2001              		.align 2
 2002              		.weak	_ZN7sigslot12_connection3I16GuiOptionBrowserP9GuiButtoniRK6_POINTNS_15single_threadedEE9dupl
 2003              		.type	_ZN7sigslot12_connection3I16GuiOptionBrowserP9GuiButtoniRK6_POINTNS_15single_threadedEE9dupl
 2004              	_ZN7sigslot12_connection3I16GuiOptionBrowserP9GuiButtoniRK6_POINTNS_15single_threadedEE9duplicateEP
 2005              	.LFB2086:
 2006              		.loc 1 1794 0
 2007              		.cfi_startproc
 2008              	.LVL163:
 2009 0000 9421FFF0 		stwu 1,-16(1)
 2010              	.LCFI36:
 2011              		.cfi_def_cfa_offset 16
 2012 0004 7C0802A6 		mflr 0
 2013 0008 93C10008 		stw 30,8(1)
 2014 000c 7C9E2378 		mr 30,4
 2015              		.cfi_offset 30, -8
 2016              		.cfi_register 65, 0
 2017 0010 93E1000C 		stw 31,12(1)
 2018 0014 7C7F1B78 		mr 31,3
 2019              		.cfi_offset 31, -4
 2020              		.loc 1 1796 0
 2021 0018 38600010 		li 3,16
 2022              	.LVL164:
 2023              		.loc 1 1794 0
 2024 001c 90010014 		stw 0,20(1)
 2025              		.loc 1 1796 0
 2026              		.cfi_offset 65, 4
 2027 0020 48000001 		bl _Znwj
 2028              	.LVL165:
 2029 0024 2F9E0000 		cmpwi 7,30,0
 2030 0028 38000000 		li 0,0
 2031 002c 419E0008 		beq- 7,.L122
 2032              		.loc 1 1796 0 is_stmt 0 discriminator 1
 2033 0030 381EFF70 		addi 0,30,-144
 2034              	.L122:
 2035              	.LVL166:
 2036              		.loc 1 1796 0 discriminator 3
 2037 0034 817F0008 		lwz 11,8(31)
 2038              	.LVL167:
 2039              	.LBB2619:
 2040              	.LBB2620:
 2041              		.loc 1 1778 0 is_stmt 1 discriminator 3
 2042 0038 3D400000 		lis 10,_ZTVN7sigslot12_connection3I16GuiOptionBrowserP9GuiButtoniRK6_POINTNS_15single_threadedEEE+
 2043              	.LBE2620:
 2044              	.LBE2619:
 2045              		.loc 1 1796 0 discriminator 3
 2046 003c 813F000C 		lwz 9,12(31)
 2047              	.LVL168:
 2048              	.LBB2623:
 2049              	.LBB2621:
 2050              		.loc 1 1778 0 discriminator 3
 2051 0040 394A0008 		la 10,_ZTVN7sigslot12_connection3I16GuiOptionBrowserP9GuiButtoniRK6_POINTNS_15single_threadedEEE+8
 2052              		.loc 1 1780 0 discriminator 3
 2053 0044 91630008 		stw 11,8(3)
 2054 0048 9123000C 		stw 9,12(3)
 2055              		.loc 1 1779 0 discriminator 3
 2056 004c 90030004 		stw 0,4(3)
 2057              	.LBE2621:
 2058              	.LBE2623:
 2059              		.loc 1 1797 0 discriminator 3
 2060 0050 80010014 		lwz 0,20(1)
 2061              	.LVL169:
 2062 0054 83C10008 		lwz 30,8(1)
 2063              	.LVL170:
 2064 0058 7C0803A6 		mtlr 0
 2065 005c 83E1000C 		lwz 31,12(1)
 2066              	.LVL171:
 2067              	.LBB2624:
 2068              	.LBB2622:
 2069              		.loc 1 1778 0 discriminator 3
 2070 0060 91430000 		stw 10,0(3)
 2071              	.LBE2622:
 2072              	.LBE2624:
 2073              		.loc 1 1797 0 discriminator 3
 2074 0064 38210010 		addi 1,1,16
 2075              	.LCFI37:
 2076              		.cfi_def_cfa_offset 0
 2077              		.cfi_restore 31
 2078              		.cfi_restore 30
 2079 0068 4E800020 		blr
 2080              		.cfi_endproc
 2081              	.LFE2086:
 2082              		.size	_ZN7sigslot12_connection3I16GuiOptionBrowserP9GuiButtoniRK6_POINTNS_15single_threadedEE9dupl
 2083              		.section	.text._ZN7sigslot12_connection3I16GuiOptionBrowserP9GuiButtoniRK6_POINTNS_15single_thread
 2084              		.align 2
 2085              		.weak	_ZN7sigslot12_connection3I16GuiOptionBrowserP9GuiButtoniRK6_POINTNS_15single_threadedEE5clon
 2086              		.type	_ZN7sigslot12_connection3I16GuiOptionBrowserP9GuiButtoniRK6_POINTNS_15single_threadedEE5clon
 2087              	_ZN7sigslot12_connection3I16GuiOptionBrowserP9GuiButtoniRK6_POINTNS_15single_threadedEE5cloneEv:
 2088              	.LFB2079:
 2089              		.loc 1 1789 0
 2090              		.cfi_startproc
 2091              	.LVL172:
 2092 0000 9421FFF0 		stwu 1,-16(1)
 2093              	.LCFI38:
 2094              		.cfi_def_cfa_offset 16
 2095 0004 7C0802A6 		mflr 0
 2096 0008 93E1000C 		stw 31,12(1)
 2097 000c 7C7F1B78 		mr 31,3
 2098              		.cfi_offset 31, -4
 2099              		.cfi_register 65, 0
 2100              		.loc 1 1791 0
 2101 0010 38600010 		li 3,16
 2102              	.LVL173:
 2103              		.loc 1 1789 0
 2104 0014 90010014 		stw 0,20(1)
 2105              		.loc 1 1791 0
 2106              		.cfi_offset 65, 4
 2107 0018 48000001 		bl _Znwj
 2108              		.loc 3 226 0
 2109 001c 801F0004 		lwz 0,4(31)
 2110              	.LVL174:
 2111              	.LBB2625:
 2112              	.LBB2626:
 2113              		.loc 1 1767 0
 2114 0020 3D600000 		lis 11,_ZTVN7sigslot12_connection3I16GuiOptionBrowserP9GuiButtoniRK6_POINTNS_15single_threadedEEE+
 2115 0024 396B0008 		la 11,_ZTVN7sigslot12_connection3I16GuiOptionBrowserP9GuiButtoniRK6_POINTNS_15single_threadedEEE+8
 2116 0028 90030004 		stw 0,4(3)
 2117 002c 91630000 		stw 11,0(3)
 2118 0030 815F0008 		lwz 10,8(31)
 2119 0034 817F000C 		lwz 11,12(31)
 2120 0038 91430008 		stw 10,8(3)
 2121 003c 9163000C 		stw 11,12(3)
 2122              	.LBE2626:
 2123              	.LBE2625:
 2124              		.loc 1 1792 0
 2125 0040 80010014 		lwz 0,20(1)
 2126 0044 83E1000C 		lwz 31,12(1)
 2127              	.LVL175:
 2128 0048 7C0803A6 		mtlr 0
 2129 004c 38210010 		addi 1,1,16
 2130              	.LCFI39:
 2131              		.cfi_def_cfa_offset 0
 2132              		.cfi_restore 31
 2133 0050 4E800020 		blr
 2134              		.cfi_endproc
 2135              	.LFE2079:
 2136              		.size	_ZN7sigslot12_connection3I16GuiOptionBrowserP9GuiButtoniRK6_POINTNS_15single_threadedEE5clon
 2137              		.section	.text._ZN7sigslot12_connection2I16GuiOptionBrowseriiNS_15single_threadedEE5cloneEv,"axG",
 2138              		.align 2
 2139              		.weak	_ZN7sigslot12_connection2I16GuiOptionBrowseriiNS_15single_threadedEE5cloneEv
 2140              		.type	_ZN7sigslot12_connection2I16GuiOptionBrowseriiNS_15single_threadedEE5cloneEv, @function
 2141              	_ZN7sigslot12_connection2I16GuiOptionBrowseriiNS_15single_threadedEE5cloneEv:
 2142              	.LFB2093:
 2143              		.loc 1 1741 0
 2144              		.cfi_startproc
 2145              	.LVL176:
 2146 0000 9421FFF0 		stwu 1,-16(1)
 2147              	.LCFI40:
 2148              		.cfi_def_cfa_offset 16
 2149 0004 7C0802A6 		mflr 0
 2150 0008 93E1000C 		stw 31,12(1)
 2151 000c 7C7F1B78 		mr 31,3
 2152              		.cfi_offset 31, -4
 2153              		.cfi_register 65, 0
 2154              		.loc 1 1743 0
 2155 0010 38600010 		li 3,16
 2156              	.LVL177:
 2157              		.loc 1 1741 0
 2158 0014 90010014 		stw 0,20(1)
 2159              		.loc 1 1743 0
 2160              		.cfi_offset 65, 4
 2161 0018 48000001 		bl _Znwj
 2162              		.loc 3 226 0
 2163 001c 801F0004 		lwz 0,4(31)
 2164              	.LVL178:
 2165              	.LBB2627:
 2166              	.LBB2628:
 2167              		.loc 1 1719 0
 2168 0020 3D600000 		lis 11,_ZTVN7sigslot12_connection2I16GuiOptionBrowseriiNS_15single_threadedEEE+8@ha
 2169 0024 396B0008 		la 11,_ZTVN7sigslot12_connection2I16GuiOptionBrowseriiNS_15single_threadedEEE+8@l(11)
 2170 0028 90030004 		stw 0,4(3)
 2171 002c 91630000 		stw 11,0(3)
 2172 0030 815F0008 		lwz 10,8(31)
 2173 0034 817F000C 		lwz 11,12(31)
 2174 0038 91430008 		stw 10,8(3)
 2175 003c 9163000C 		stw 11,12(3)
 2176              	.LBE2628:
 2177              	.LBE2627:
 2178              		.loc 1 1744 0
 2179 0040 80010014 		lwz 0,20(1)
 2180 0044 83E1000C 		lwz 31,12(1)
 2181              	.LVL179:
 2182 0048 7C0803A6 		mtlr 0
 2183 004c 38210010 		addi 1,1,16
 2184              	.LCFI41:
 2185              		.cfi_def_cfa_offset 0
 2186              		.cfi_restore 31
 2187 0050 4E800020 		blr
 2188              		.cfi_endproc
 2189              	.LFE2093:
 2190              		.size	_ZN7sigslot12_connection2I16GuiOptionBrowseriiNS_15single_threadedEE5cloneEv, .-_ZN7sigslot1
 2191              		.section	.text._ZN7sigslot13_signal_base2IP16GuiOptionBrowseriNS_15single_threadedEE14slot_duplica
 2192              		.align 2
 2193              		.weak	_ZN7sigslot13_signal_base2IP16GuiOptionBrowseriNS_15single_threadedEE14slot_duplicateEPKNS_9
 2194              		.type	_ZN7sigslot13_signal_base2IP16GuiOptionBrowseriNS_15single_threadedEE14slot_duplicateEPKNS_9
 2195              	_ZN7sigslot13_signal_base2IP16GuiOptionBrowseriNS_15single_threadedEE14slot_duplicateEPKNS_9has_slo
 2196              	.LFB2102:
 2197              		.loc 1 806 0
 2198              		.cfi_startproc
 2199              		.cfi_personality 0,__gxx_personality_v0
 2200              		.cfi_lsda 0,.LLSDA2102
 2201              	.LVL180:
 2202 0000 7C0802A6 		mflr 0
 2203 0004 9421FFE0 		stwu 1,-32(1)
 2204              	.LCFI42:
 2205              		.cfi_def_cfa_offset 32
 2206              		.cfi_register 65, 0
 2207 0008 93410008 		stw 26,8(1)
 2208 000c 7CBA2B78 		mr 26,5
 2209              		.cfi_offset 26, -24
 2210 0010 90010024 		stw 0,36(1)
 2211 0014 9361000C 		stw 27,12(1)
 2212 0018 7C7B1B78 		mr 27,3
 2213              		.cfi_offset 27, -20
 2214              		.cfi_offset 65, 4
 2215              	.LVL181:
 2216              	.LBB2629:
 2217              	.LBB2630:
 2218              	.LBB2631:
 2219              		.loc 1 338 0
 2220 001c 81230000 		lwz 9,0(3)
 2221              	.LBE2631:
 2222              	.LBE2630:
 2223              	.LBE2629:
 2224              		.loc 1 806 0
 2225 0020 93A10014 		stw 29,20(1)
 2226 0024 7C9D2378 		mr 29,4
 2227              		.cfi_offset 29, -12
 2228              	.LBB2660:
 2229              	.LBB2636:
 2230              	.LBB2632:
 2231              		.loc 1 338 0
 2232 0028 80090008 		lwz 0,8(9)
 2233              	.LBE2632:
 2234              	.LBE2636:
 2235              	.LBE2660:
 2236              		.loc 1 806 0
 2237 002c 93C10018 		stw 30,24(1)
 2238              	.LBB2661:
 2239              	.LBB2637:
 2240              	.LBB2633:
 2241              		.loc 3 226 0
 2242 0030 7F7EDB78 		mr 30,27
 2243              		.cfi_offset 30, -8
 2244              	.LBE2633:
 2245              	.LBE2637:
 2246              	.LBE2661:
 2247              		.loc 1 806 0
 2248 0034 93E1001C 		stw 31,28(1)
 2249              	.LBB2662:
 2250              	.LBB2638:
 2251              	.LBB2634:
 2252              		.loc 1 338 0
 2253 0038 7C0903A6 		mtctr 0
 2254              	.LBE2634:
 2255              	.LBE2638:
 2256              	.LBE2662:
 2257              		.loc 1 806 0
 2258 003c 93810010 		stw 28,16(1)
 2259              	.LEHB8:
 2260              	.LBB2663:
 2261              	.LBB2639:
 2262              	.LBB2635:
 2263              		.loc 1 338 0
 2264              		.cfi_offset 28, -16
 2265              		.cfi_offset 31, -4
 2266 0040 4E800421 		bctrl
 2267              	.LEHE8:
 2268              	.LVL182:
 2269              		.loc 3 226 0
 2270 0044 87FE0004 		lwzu 31,4(30)
 2271              	.LVL183:
 2272              	.LBE2635:
 2273              	.LBE2639:
 2274              		.loc 1 812 0
 2275 0048 7F9FF000 		cmpw 7,31,30
 2276 004c 40BE0014 		bne+ 7,.L136
 2277 0050 48000070 		b .L127
 2278              	.LVL184:
 2279              	.L128:
 2280              	.LBB2640:
 2281              	.LBB2641:
 2282              		.loc 4 154 0
 2283 0054 83FF0000 		lwz 31,0(31)
 2284              	.LVL185:
 2285              	.LBE2641:
 2286              	.LBE2640:
 2287              		.loc 1 812 0
 2288 0058 7F9EF800 		cmpw 7,30,31
 2289 005c 419E0064 		beq- 7,.L127
 2290              	.LVL186:
 2291              	.L136:
 2292              		.loc 1 814 0
 2293 0060 807F0008 		lwz 3,8(31)
 2294 0064 81230000 		lwz 9,0(3)
 2295 0068 80090008 		lwz 0,8(9)
 2296 006c 7C0903A6 		mtctr 0
 2297              	.LEHB9:
 2298 0070 4E800421 		bctrl
 2299 0074 7F9D1800 		cmpw 7,29,3
 2300 0078 409EFFDC 		bne+ 7,.L128
 2301              	.LVL187:
 2302              		.loc 1 816 0
 2303 007c 807F0008 		lwz 3,8(31)
 2304 0080 7F44D378 		mr 4,26
 2305 0084 81230000 		lwz 9,0(3)
 2306 0088 80090014 		lwz 0,20(9)
 2307 008c 7C0903A6 		mtctr 0
 2308 0090 4E800421 		bctrl
 2309 0094 7C7C1B78 		mr 28,3
 2310              	.LVL188:
 2311              	.LBB2643:
 2312              	.LBB2644:
 2313              	.LBB2645:
 2314              	.LBB2646:
 2315              	.LBB2647:
 2316              	.LBB2648:
 2317              	.LBB2649:
 2318              	.LBB2650:
 2319              		.file 6 "d:\\devkitpro\\devkitppc\\bin\\../lib/gcc/powerpc-eabi/4.6.3/../../../../powerpc-eabi/inc
 2320              		.loc 6 92 0
 2321 0098 3860000C 		li 3,12
 2322 009c 48000001 		bl _Znwj
 2323              	.LEHE9:
 2324              	.LVL189:
 2325              	.LBE2650:
 2326              	.LBE2649:
 2327              	.LBE2648:
 2328              	.LBB2651:
 2329              	.LBB2652:
 2330              		.loc 6 108 0 discriminator 1
 2331 00a0 2F83FFF8 		cmpwi 7,3,-8
 2332 00a4 419E0008 		beq- 7,.L130
 2333              		.loc 6 108 0 is_stmt 0
 2334 00a8 93830008 		stw 28,8(3)
 2335              	.L130:
 2336              	.LVL190:
 2337              	.LBE2652:
 2338              	.LBE2651:
 2339              	.LBE2647:
 2340              	.LBE2646:
 2341              		.loc 4 1516 0 is_stmt 1
 2342 00ac 7FC4F378 		mr 4,30
 2343 00b0 48000001 		bl _ZNSt8__detail15_List_node_base7_M_hookEPS0_
 2344              	.LVL191:
 2345              	.LBE2645:
 2346              	.LBE2644:
 2347              	.LBE2643:
 2348              	.LBB2653:
 2349              	.LBB2642:
 2350              		.loc 4 154 0
 2351 00b4 83FF0000 		lwz 31,0(31)
 2352              	.LVL192:
 2353              	.LBE2642:
 2354              	.LBE2653:
 2355              		.loc 1 812 0
 2356 00b8 7F9EF800 		cmpw 7,30,31
 2357 00bc 409EFFA4 		bne+ 7,.L136
 2358              	.LVL193:
 2359              	.L127:
 2360              	.LBB2654:
 2361              	.LBB2655:
 2362              	.LBB2656:
 2363              		.loc 1 343 0
 2364 00c0 813B0000 		lwz 9,0(27)
 2365 00c4 7F63DB78 		mr 3,27
 2366 00c8 8009000C 		lwz 0,12(9)
 2367 00cc 7C0903A6 		mtctr 0
 2368              	.LEHB10:
 2369 00d0 4E800421 		bctrl
 2370              	.LEHE10:
 2371              	.LBE2656:
 2372              	.LBE2655:
 2373              	.LBE2654:
 2374              	.LBE2663:
 2375              		.loc 1 821 0
 2376 00d4 80010024 		lwz 0,36(1)
 2377 00d8 83410008 		lwz 26,8(1)
 2378              	.LVL194:
 2379 00dc 7C0803A6 		mtlr 0
 2380 00e0 8361000C 		lwz 27,12(1)
 2381              	.LVL195:
 2382 00e4 83810010 		lwz 28,16(1)
 2383 00e8 83A10014 		lwz 29,20(1)
 2384              	.LVL196:
 2385 00ec 83C10018 		lwz 30,24(1)
 2386              	.LVL197:
 2387 00f0 83E1001C 		lwz 31,28(1)
 2388              	.LVL198:
 2389 00f4 38210020 		addi 1,1,32
 2390              		.cfi_remember_state
 2391              	.LCFI43:
 2392              		.cfi_def_cfa_offset 0
 2393              		.cfi_restore 31
 2394              		.cfi_restore 30
 2395              		.cfi_restore 29
 2396              		.cfi_restore 28
 2397              		.cfi_restore 27
 2398              		.cfi_restore 26
 2399 00f8 4E800020 		blr
 2400              	.LVL199:
 2401              	.L135:
 2402              	.LCFI44:
 2403              		.cfi_restore_state
 2404              	.LBB2664:
 2405              	.LBB2657:
 2406              	.LBB2658:
 2407              	.LBB2659:
 2408              		.loc 1 343 0
 2409 00fc 813B0000 		lwz 9,0(27)
 2410 0100 7C7F1B78 		mr 31,3
 2411              	.LVL200:
 2412 0104 7F63DB78 		mr 3,27
 2413 0108 8009000C 		lwz 0,12(9)
 2414 010c 7C0903A6 		mtctr 0
 2415 0110 4E800421 		bctrl
 2416 0114 7FE3FB78 		mr 3,31
 2417              	.LEHB11:
 2418 0118 48000001 		bl _Unwind_Resume
 2419              	.LEHE11:
 2420              	.LBE2659:
 2421              	.LBE2658:
 2422              	.LBE2657:
 2423              	.LBE2664:
 2424              		.cfi_endproc
 2425              	.LFE2102:
 2426              		.section	.gcc_except_table
 2427              	.LLSDA2102:
 2428 0030 FF       		.byte	0xff
 2429 0031 FF       		.byte	0xff
 2430 0032 01       		.byte	0x1
 2431 0033 13       		.uleb128 .LLSDACSE2102-.LLSDACSB2102
 2432              	.LLSDACSB2102:
 2433 0034 40       		.uleb128 .LEHB8-.LFB2102
 2434 0035 04       		.uleb128 .LEHE8-.LEHB8
 2435 0036 00       		.uleb128 0
 2436 0037 00       		.uleb128 0
 2437 0038 70       		.uleb128 .LEHB9-.LFB2102
 2438 0039 30       		.uleb128 .LEHE9-.LEHB9
 2439 003a FC01     		.uleb128 .L135-.LFB2102
 2440 003c 00       		.uleb128 0
 2441 003d D001     		.uleb128 .LEHB10-.LFB2102
 2442 003f 04       		.uleb128 .LEHE10-.LEHB10
 2443 0040 00       		.uleb128 0
 2444 0041 00       		.uleb128 0
 2445 0042 9802     		.uleb128 .LEHB11-.LFB2102
 2446 0044 04       		.uleb128 .LEHE11-.LEHB11
 2447 0045 00       		.uleb128 0
 2448 0046 00       		.uleb128 0
 2449              	.LLSDACSE2102:
 2450              		.section	.text._ZN7sigslot13_signal_base2IP16GuiOptionBrowseriNS_15single_threadedEE14slot_duplica
 2451              		.size	_ZN7sigslot13_signal_base2IP16GuiOptionBrowseriNS_15single_threadedEE14slot_duplicateEPKNS_9
 2452              		.section	.text._ZN7sigslot13_signal_base3IP10GuiElementiiNS_15single_threadedEE14slot_duplicateEPK
 2453              		.align 2
 2454              		.weak	_ZN7sigslot13_signal_base3IP10GuiElementiiNS_15single_threadedEE14slot_duplicateEPKNS_9has_s
 2455              		.type	_ZN7sigslot13_signal_base3IP10GuiElementiiNS_15single_threadedEE14slot_duplicateEPKNS_9has_s
 2456              	_ZN7sigslot13_signal_base3IP10GuiElementiiNS_15single_threadedEE14slot_duplicateEPKNS_9has_slotsIS3
 2457              	.LFB2104:
 2458              		.loc 1 926 0
 2459              		.cfi_startproc
 2460              		.cfi_personality 0,__gxx_personality_v0
 2461              		.cfi_lsda 0,.LLSDA2104
 2462              	.LVL201:
 2463 0000 7C0802A6 		mflr 0
 2464 0004 9421FFE0 		stwu 1,-32(1)
 2465              	.LCFI45:
 2466              		.cfi_def_cfa_offset 32
 2467              		.cfi_register 65, 0
 2468 0008 93410008 		stw 26,8(1)
 2469 000c 7CBA2B78 		mr 26,5
 2470              		.cfi_offset 26, -24
 2471 0010 90010024 		stw 0,36(1)
 2472 0014 9361000C 		stw 27,12(1)
 2473 0018 7C7B1B78 		mr 27,3
 2474              		.cfi_offset 27, -20
 2475              		.cfi_offset 65, 4
 2476              	.LVL202:
 2477              	.LBB2665:
 2478              	.LBB2666:
 2479              	.LBB2667:
 2480              		.loc 1 338 0
 2481 001c 81230000 		lwz 9,0(3)
 2482              	.LBE2667:
 2483              	.LBE2666:
 2484              	.LBE2665:
 2485              		.loc 1 926 0
 2486 0020 93A10014 		stw 29,20(1)
 2487 0024 7C9D2378 		mr 29,4
 2488              		.cfi_offset 29, -12
 2489              	.LBB2696:
 2490              	.LBB2672:
 2491              	.LBB2668:
 2492              		.loc 1 338 0
 2493 0028 80090008 		lwz 0,8(9)
 2494              	.LBE2668:
 2495              	.LBE2672:
 2496              	.LBE2696:
 2497              		.loc 1 926 0
 2498 002c 93C10018 		stw 30,24(1)
 2499              	.LBB2697:
 2500              	.LBB2673:
 2501              	.LBB2669:
 2502              		.loc 3 226 0
 2503 0030 7F7EDB78 		mr 30,27
 2504              		.cfi_offset 30, -8
 2505              	.LBE2669:
 2506              	.LBE2673:
 2507              	.LBE2697:
 2508              		.loc 1 926 0
 2509 0034 93E1001C 		stw 31,28(1)
 2510              	.LBB2698:
 2511              	.LBB2674:
 2512              	.LBB2670:
 2513              		.loc 1 338 0
 2514 0038 7C0903A6 		mtctr 0
 2515              	.LBE2670:
 2516              	.LBE2674:
 2517              	.LBE2698:
 2518              		.loc 1 926 0
 2519 003c 93810010 		stw 28,16(1)
 2520              	.LEHB12:
 2521              	.LBB2699:
 2522              	.LBB2675:
 2523              	.LBB2671:
 2524              		.loc 1 338 0
 2525              		.cfi_offset 28, -16
 2526              		.cfi_offset 31, -4
 2527 0040 4E800421 		bctrl
 2528              	.LEHE12:
 2529              	.LVL203:
 2530              		.loc 3 226 0
 2531 0044 87FE0004 		lwzu 31,4(30)
 2532              	.LVL204:
 2533              	.LBE2671:
 2534              	.LBE2675:
 2535              		.loc 1 932 0
 2536 0048 7F9FF000 		cmpw 7,31,30
 2537 004c 40BE0014 		bne+ 7,.L148
 2538 0050 48000070 		b .L139
 2539              	.LVL205:
 2540              	.L140:
 2541              	.LBB2676:
 2542              	.LBB2677:
 2543              		.loc 4 154 0
 2544 0054 83FF0000 		lwz 31,0(31)
 2545              	.LVL206:
 2546              	.LBE2677:
 2547              	.LBE2676:
 2548              		.loc 1 932 0
 2549 0058 7F9EF800 		cmpw 7,30,31
 2550 005c 419E0064 		beq- 7,.L139
 2551              	.LVL207:
 2552              	.L148:
 2553              		.loc 1 934 0
 2554 0060 807F0008 		lwz 3,8(31)
 2555 0064 81230000 		lwz 9,0(3)
 2556 0068 80090008 		lwz 0,8(9)
 2557 006c 7C0903A6 		mtctr 0
 2558              	.LEHB13:
 2559 0070 4E800421 		bctrl
 2560 0074 7F9D1800 		cmpw 7,29,3
 2561 0078 409EFFDC 		bne+ 7,.L140
 2562              	.LVL208:
 2563              		.loc 1 936 0
 2564 007c 807F0008 		lwz 3,8(31)
 2565 0080 7F44D378 		mr 4,26
 2566 0084 81230000 		lwz 9,0(3)
 2567 0088 80090014 		lwz 0,20(9)
 2568 008c 7C0903A6 		mtctr 0
 2569 0090 4E800421 		bctrl
 2570 0094 7C7C1B78 		mr 28,3
 2571              	.LVL209:
 2572              	.LBB2679:
 2573              	.LBB2680:
 2574              	.LBB2681:
 2575              	.LBB2682:
 2576              	.LBB2683:
 2577              	.LBB2684:
 2578              	.LBB2685:
 2579              	.LBB2686:
 2580              		.loc 6 92 0
 2581 0098 3860000C 		li 3,12
 2582 009c 48000001 		bl _Znwj
 2583              	.LEHE13:
 2584              	.LVL210:
 2585              	.LBE2686:
 2586              	.LBE2685:
 2587              	.LBE2684:
 2588              	.LBB2687:
 2589              	.LBB2688:
 2590              		.loc 6 108 0 discriminator 1
 2591 00a0 2F83FFF8 		cmpwi 7,3,-8
 2592 00a4 419E0008 		beq- 7,.L142
 2593              		.loc 6 108 0 is_stmt 0
 2594 00a8 93830008 		stw 28,8(3)
 2595              	.L142:
 2596              	.LVL211:
 2597              	.LBE2688:
 2598              	.LBE2687:
 2599              	.LBE2683:
 2600              	.LBE2682:
 2601              		.loc 4 1516 0 is_stmt 1
 2602 00ac 7FC4F378 		mr 4,30
 2603 00b0 48000001 		bl _ZNSt8__detail15_List_node_base7_M_hookEPS0_
 2604              	.LVL212:
 2605              	.LBE2681:
 2606              	.LBE2680:
 2607              	.LBE2679:
 2608              	.LBB2689:
 2609              	.LBB2678:
 2610              		.loc 4 154 0
 2611 00b4 83FF0000 		lwz 31,0(31)
 2612              	.LVL213:
 2613              	.LBE2678:
 2614              	.LBE2689:
 2615              		.loc 1 932 0
 2616 00b8 7F9EF800 		cmpw 7,30,31
 2617 00bc 409EFFA4 		bne+ 7,.L148
 2618              	.LVL214:
 2619              	.L139:
 2620              	.LBB2690:
 2621              	.LBB2691:
 2622              	.LBB2692:
 2623              		.loc 1 343 0
 2624 00c0 813B0000 		lwz 9,0(27)
 2625 00c4 7F63DB78 		mr 3,27
 2626 00c8 8009000C 		lwz 0,12(9)
 2627 00cc 7C0903A6 		mtctr 0
 2628              	.LEHB14:
 2629 00d0 4E800421 		bctrl
 2630              	.LEHE14:
 2631              	.LBE2692:
 2632              	.LBE2691:
 2633              	.LBE2690:
 2634              	.LBE2699:
 2635              		.loc 1 941 0
 2636 00d4 80010024 		lwz 0,36(1)
 2637 00d8 83410008 		lwz 26,8(1)
 2638              	.LVL215:
 2639 00dc 7C0803A6 		mtlr 0
 2640 00e0 8361000C 		lwz 27,12(1)
 2641              	.LVL216:
 2642 00e4 83810010 		lwz 28,16(1)
 2643 00e8 83A10014 		lwz 29,20(1)
 2644              	.LVL217:
 2645 00ec 83C10018 		lwz 30,24(1)
 2646              	.LVL218:
 2647 00f0 83E1001C 		lwz 31,28(1)
 2648              	.LVL219:
 2649 00f4 38210020 		addi 1,1,32
 2650              		.cfi_remember_state
 2651              	.LCFI46:
 2652              		.cfi_def_cfa_offset 0
 2653              		.cfi_restore 31
 2654              		.cfi_restore 30
 2655              		.cfi_restore 29
 2656              		.cfi_restore 28
 2657              		.cfi_restore 27
 2658              		.cfi_restore 26
 2659 00f8 4E800020 		blr
 2660              	.LVL220:
 2661              	.L147:
 2662              	.LCFI47:
 2663              		.cfi_restore_state
 2664              	.LBB2700:
 2665              	.LBB2693:
 2666              	.LBB2694:
 2667              	.LBB2695:
 2668              		.loc 1 343 0
 2669 00fc 813B0000 		lwz 9,0(27)
 2670 0100 7C7F1B78 		mr 31,3
 2671              	.LVL221:
 2672 0104 7F63DB78 		mr 3,27
 2673 0108 8009000C 		lwz 0,12(9)
 2674 010c 7C0903A6 		mtctr 0
 2675 0110 4E800421 		bctrl
 2676 0114 7FE3FB78 		mr 3,31
 2677              	.LEHB15:
 2678 0118 48000001 		bl _Unwind_Resume
 2679              	.LEHE15:
 2680              	.LBE2695:
 2681              	.LBE2694:
 2682              	.LBE2693:
 2683              	.LBE2700:
 2684              		.cfi_endproc
 2685              	.LFE2104:
 2686              		.section	.gcc_except_table
 2687              	.LLSDA2104:
 2688 0047 FF       		.byte	0xff
 2689 0048 FF       		.byte	0xff
 2690 0049 01       		.byte	0x1
 2691 004a 13       		.uleb128 .LLSDACSE2104-.LLSDACSB2104
 2692              	.LLSDACSB2104:
 2693 004b 40       		.uleb128 .LEHB12-.LFB2104
 2694 004c 04       		.uleb128 .LEHE12-.LEHB12
 2695 004d 00       		.uleb128 0
 2696 004e 00       		.uleb128 0
 2697 004f 70       		.uleb128 .LEHB13-.LFB2104
 2698 0050 30       		.uleb128 .LEHE13-.LEHB13
 2699 0051 FC01     		.uleb128 .L147-.LFB2104
 2700 0053 00       		.uleb128 0
 2701 0054 D001     		.uleb128 .LEHB14-.LFB2104
 2702 0056 04       		.uleb128 .LEHE14-.LEHB14
 2703 0057 00       		.uleb128 0
 2704 0058 00       		.uleb128 0
 2705 0059 9802     		.uleb128 .LEHB15-.LFB2104
 2706 005b 04       		.uleb128 .LEHE15-.LEHB15
 2707 005c 00       		.uleb128 0
 2708 005d 00       		.uleb128 0
 2709              	.LLSDACSE2104:
 2710              		.section	.text._ZN7sigslot13_signal_base3IP10GuiElementiiNS_15single_threadedEE14slot_duplicateEPK
 2711              		.size	_ZN7sigslot13_signal_base3IP10GuiElementiiNS_15single_threadedEE14slot_duplicateEPKNS_9has_s
 2712              		.section	.text._ZN7sigslot13_signal_base2IP10GuiElementbNS_15single_threadedEE14slot_duplicateEPKN
 2713              		.align 2
 2714              		.weak	_ZN7sigslot13_signal_base2IP10GuiElementbNS_15single_threadedEE14slot_duplicateEPKNS_9has_sl
 2715              		.type	_ZN7sigslot13_signal_base2IP10GuiElementbNS_15single_threadedEE14slot_duplicateEPKNS_9has_sl
 2716              	_ZN7sigslot13_signal_base2IP10GuiElementbNS_15single_threadedEE14slot_duplicateEPKNS_9has_slotsIS3_
 2717              	.LFB2106:
 2718              		.loc 1 806 0
 2719              		.cfi_startproc
 2720              		.cfi_personality 0,__gxx_personality_v0
 2721              		.cfi_lsda 0,.LLSDA2106
 2722              	.LVL222:
 2723 0000 7C0802A6 		mflr 0
 2724 0004 9421FFE0 		stwu 1,-32(1)
 2725              	.LCFI48:
 2726              		.cfi_def_cfa_offset 32
 2727              		.cfi_register 65, 0
 2728 0008 93410008 		stw 26,8(1)
 2729 000c 7CBA2B78 		mr 26,5
 2730              		.cfi_offset 26, -24
 2731 0010 90010024 		stw 0,36(1)
 2732 0014 9361000C 		stw 27,12(1)
 2733 0018 7C7B1B78 		mr 27,3
 2734              		.cfi_offset 27, -20
 2735              		.cfi_offset 65, 4
 2736              	.LVL223:
 2737              	.LBB2701:
 2738              	.LBB2702:
 2739              	.LBB2703:
 2740              		.loc 1 338 0
 2741 001c 81230000 		lwz 9,0(3)
 2742              	.LBE2703:
 2743              	.LBE2702:
 2744              	.LBE2701:
 2745              		.loc 1 806 0
 2746 0020 93A10014 		stw 29,20(1)
 2747 0024 7C9D2378 		mr 29,4
 2748              		.cfi_offset 29, -12
 2749              	.LBB2732:
 2750              	.LBB2708:
 2751              	.LBB2704:
 2752              		.loc 1 338 0
 2753 0028 80090008 		lwz 0,8(9)
 2754              	.LBE2704:
 2755              	.LBE2708:
 2756              	.LBE2732:
 2757              		.loc 1 806 0
 2758 002c 93C10018 		stw 30,24(1)
 2759              	.LBB2733:
 2760              	.LBB2709:
 2761              	.LBB2705:
 2762              		.loc 3 226 0
 2763 0030 7F7EDB78 		mr 30,27
 2764              		.cfi_offset 30, -8
 2765              	.LBE2705:
 2766              	.LBE2709:
 2767              	.LBE2733:
 2768              		.loc 1 806 0
 2769 0034 93E1001C 		stw 31,28(1)
 2770              	.LBB2734:
 2771              	.LBB2710:
 2772              	.LBB2706:
 2773              		.loc 1 338 0
 2774 0038 7C0903A6 		mtctr 0
 2775              	.LBE2706:
 2776              	.LBE2710:
 2777              	.LBE2734:
 2778              		.loc 1 806 0
 2779 003c 93810010 		stw 28,16(1)
 2780              	.LEHB16:
 2781              	.LBB2735:
 2782              	.LBB2711:
 2783              	.LBB2707:
 2784              		.loc 1 338 0
 2785              		.cfi_offset 28, -16
 2786              		.cfi_offset 31, -4
 2787 0040 4E800421 		bctrl
 2788              	.LEHE16:
 2789              	.LVL224:
 2790              		.loc 3 226 0
 2791 0044 87FE0004 		lwzu 31,4(30)
 2792              	.LVL225:
 2793              	.LBE2707:
 2794              	.LBE2711:
 2795              		.loc 1 812 0
 2796 0048 7F9FF000 		cmpw 7,31,30
 2797 004c 40BE0014 		bne+ 7,.L160
 2798 0050 48000070 		b .L151
 2799              	.LVL226:
 2800              	.L152:
 2801              	.LBB2712:
 2802              	.LBB2713:
 2803              		.loc 4 154 0
 2804 0054 83FF0000 		lwz 31,0(31)
 2805              	.LVL227:
 2806              	.LBE2713:
 2807              	.LBE2712:
 2808              		.loc 1 812 0
 2809 0058 7F9EF800 		cmpw 7,30,31
 2810 005c 419E0064 		beq- 7,.L151
 2811              	.LVL228:
 2812              	.L160:
 2813              		.loc 1 814 0
 2814 0060 807F0008 		lwz 3,8(31)
 2815 0064 81230000 		lwz 9,0(3)
 2816 0068 80090008 		lwz 0,8(9)
 2817 006c 7C0903A6 		mtctr 0
 2818              	.LEHB17:
 2819 0070 4E800421 		bctrl
 2820 0074 7F9D1800 		cmpw 7,29,3
 2821 0078 409EFFDC 		bne+ 7,.L152
 2822              	.LVL229:
 2823              		.loc 1 816 0
 2824 007c 807F0008 		lwz 3,8(31)
 2825 0080 7F44D378 		mr 4,26
 2826 0084 81230000 		lwz 9,0(3)
 2827 0088 80090014 		lwz 0,20(9)
 2828 008c 7C0903A6 		mtctr 0
 2829 0090 4E800421 		bctrl
 2830 0094 7C7C1B78 		mr 28,3
 2831              	.LVL230:
 2832              	.LBB2715:
 2833              	.LBB2716:
 2834              	.LBB2717:
 2835              	.LBB2718:
 2836              	.LBB2719:
 2837              	.LBB2720:
 2838              	.LBB2721:
 2839              	.LBB2722:
 2840              		.loc 6 92 0
 2841 0098 3860000C 		li 3,12
 2842 009c 48000001 		bl _Znwj
 2843              	.LEHE17:
 2844              	.LVL231:
 2845              	.LBE2722:
 2846              	.LBE2721:
 2847              	.LBE2720:
 2848              	.LBB2723:
 2849              	.LBB2724:
 2850              		.loc 6 108 0 discriminator 1
 2851 00a0 2F83FFF8 		cmpwi 7,3,-8
 2852 00a4 419E0008 		beq- 7,.L154
 2853              		.loc 6 108 0 is_stmt 0
 2854 00a8 93830008 		stw 28,8(3)
 2855              	.L154:
 2856              	.LVL232:
 2857              	.LBE2724:
 2858              	.LBE2723:
 2859              	.LBE2719:
 2860              	.LBE2718:
 2861              		.loc 4 1516 0 is_stmt 1
 2862 00ac 7FC4F378 		mr 4,30
 2863 00b0 48000001 		bl _ZNSt8__detail15_List_node_base7_M_hookEPS0_
 2864              	.LVL233:
 2865              	.LBE2717:
 2866              	.LBE2716:
 2867              	.LBE2715:
 2868              	.LBB2725:
 2869              	.LBB2714:
 2870              		.loc 4 154 0
 2871 00b4 83FF0000 		lwz 31,0(31)
 2872              	.LVL234:
 2873              	.LBE2714:
 2874              	.LBE2725:
 2875              		.loc 1 812 0
 2876 00b8 7F9EF800 		cmpw 7,30,31
 2877 00bc 409EFFA4 		bne+ 7,.L160
 2878              	.LVL235:
 2879              	.L151:
 2880              	.LBB2726:
 2881              	.LBB2727:
 2882              	.LBB2728:
 2883              		.loc 1 343 0
 2884 00c0 813B0000 		lwz 9,0(27)
 2885 00c4 7F63DB78 		mr 3,27
 2886 00c8 8009000C 		lwz 0,12(9)
 2887 00cc 7C0903A6 		mtctr 0
 2888              	.LEHB18:
 2889 00d0 4E800421 		bctrl
 2890              	.LEHE18:
 2891              	.LBE2728:
 2892              	.LBE2727:
 2893              	.LBE2726:
 2894              	.LBE2735:
 2895              		.loc 1 821 0
 2896 00d4 80010024 		lwz 0,36(1)
 2897 00d8 83410008 		lwz 26,8(1)
 2898              	.LVL236:
 2899 00dc 7C0803A6 		mtlr 0
 2900 00e0 8361000C 		lwz 27,12(1)
 2901              	.LVL237:
 2902 00e4 83810010 		lwz 28,16(1)
 2903 00e8 83A10014 		lwz 29,20(1)
 2904              	.LVL238:
 2905 00ec 83C10018 		lwz 30,24(1)
 2906              	.LVL239:
 2907 00f0 83E1001C 		lwz 31,28(1)
 2908              	.LVL240:
 2909 00f4 38210020 		addi 1,1,32
 2910              		.cfi_remember_state
 2911              	.LCFI49:
 2912              		.cfi_def_cfa_offset 0
 2913              		.cfi_restore 31
 2914              		.cfi_restore 30
 2915              		.cfi_restore 29
 2916              		.cfi_restore 28
 2917              		.cfi_restore 27
 2918              		.cfi_restore 26
 2919 00f8 4E800020 		blr
 2920              	.LVL241:
 2921              	.L159:
 2922              	.LCFI50:
 2923              		.cfi_restore_state
 2924              	.LBB2736:
 2925              	.LBB2729:
 2926              	.LBB2730:
 2927              	.LBB2731:
 2928              		.loc 1 343 0
 2929 00fc 813B0000 		lwz 9,0(27)
 2930 0100 7C7F1B78 		mr 31,3
 2931              	.LVL242:
 2932 0104 7F63DB78 		mr 3,27
 2933 0108 8009000C 		lwz 0,12(9)
 2934 010c 7C0903A6 		mtctr 0
 2935 0110 4E800421 		bctrl
 2936 0114 7FE3FB78 		mr 3,31
 2937              	.LEHB19:
 2938 0118 48000001 		bl _Unwind_Resume
 2939              	.LEHE19:
 2940              	.LBE2731:
 2941              	.LBE2730:
 2942              	.LBE2729:
 2943              	.LBE2736:
 2944              		.cfi_endproc
 2945              	.LFE2106:
 2946              		.section	.gcc_except_table
 2947              	.LLSDA2106:
 2948 005e FF       		.byte	0xff
 2949 005f FF       		.byte	0xff
 2950 0060 01       		.byte	0x1
 2951 0061 13       		.uleb128 .LLSDACSE2106-.LLSDACSB2106
 2952              	.LLSDACSB2106:
 2953 0062 40       		.uleb128 .LEHB16-.LFB2106
 2954 0063 04       		.uleb128 .LEHE16-.LEHB16
 2955 0064 00       		.uleb128 0
 2956 0065 00       		.uleb128 0
 2957 0066 70       		.uleb128 .LEHB17-.LFB2106
 2958 0067 30       		.uleb128 .LEHE17-.LEHB17
 2959 0068 FC01     		.uleb128 .L159-.LFB2106
 2960 006a 00       		.uleb128 0
 2961 006b D001     		.uleb128 .LEHB18-.LFB2106
 2962 006d 04       		.uleb128 .LEHE18-.LEHB18
 2963 006e 00       		.uleb128 0
 2964 006f 00       		.uleb128 0
 2965 0070 9802     		.uleb128 .LEHB19-.LFB2106
 2966 0072 04       		.uleb128 .LEHE19-.LEHB19
 2967 0073 00       		.uleb128 0
 2968 0074 00       		.uleb128 0
 2969              	.LLSDACSE2106:
 2970              		.section	.text._ZN7sigslot13_signal_base2IP10GuiElementbNS_15single_threadedEE14slot_duplicateEPKN
 2971              		.size	_ZN7sigslot13_signal_base2IP10GuiElementbNS_15single_threadedEE14slot_duplicateEPKNS_9has_sl
 2972              		.section	.text._ZN7sigslot12_connection2I16GuiOptionBrowseriiNS_15single_threadedEED0Ev,"axG",@pro
 2973              		.align 2
 2974              		.weak	_ZN7sigslot12_connection2I16GuiOptionBrowseriiNS_15single_threadedEED0Ev
 2975              		.type	_ZN7sigslot12_connection2I16GuiOptionBrowseriiNS_15single_threadedEED0Ev, @function
 2976              	_ZN7sigslot12_connection2I16GuiOptionBrowseriiNS_15single_threadedEED0Ev:
 2977              	.LFB2090:
 2978              		.loc 1 1735 0
 2979              		.cfi_startproc
 2980              	.LVL243:
 2981 0000 7C0802A6 		mflr 0
 2982 0004 9421FFF8 		stwu 1,-8(1)
 2983              	.LCFI51:
 2984              		.cfi_def_cfa_offset 8
 2985              		.cfi_register 65, 0
 2986              	.LBB2737:
 2987              	.LBB2738:
 2988              	.LBB2739:
 2989              	.LBB2740:
 2990              	.LBB2741:
 2991              	.LBB2742:
 2992              		.loc 1 376 0
 2993 0008 3D200000 		lis 9,_ZTVN7sigslot17_connection_base2IiiNS_15single_threadedEEE+8@ha
 2994              	.LBE2742:
 2995              	.LBE2741:
 2996              	.LBE2740:
 2997              	.LBE2739:
 2998              	.LBE2738:
 2999              	.LBE2737:
 3000              		.loc 1 1735 0
 3001 000c 9001000C 		stw 0,12(1)
 3002              	.LBB2748:
 3003              	.LBB2747:
 3004              	.LBB2746:
 3005              	.LBB2745:
 3006              	.LBB2744:
 3007              	.LBB2743:
 3008              		.loc 1 376 0
 3009 0010 38090008 		la 0,_ZTVN7sigslot17_connection_base2IiiNS_15single_threadedEEE+8@l(9)
 3010              		.cfi_offset 65, 4
 3011 0014 90030000 		stw 0,0(3)
 3012              	.LBE2743:
 3013              	.LBE2744:
 3014              	.LBE2745:
 3015              	.LBE2746:
 3016              	.LBE2747:
 3017              	.LBE2748:
 3018              		.loc 1 1738 0
 3019 0018 48000001 		bl _ZdlPv
 3020              	.LVL244:
 3021 001c 8001000C 		lwz 0,12(1)
 3022 0020 38210008 		addi 1,1,8
 3023              	.LCFI52:
 3024              		.cfi_def_cfa_offset 0
 3025 0024 7C0803A6 		mtlr 0
 3026 0028 4E800020 		blr
 3027              		.cfi_endproc
 3028              	.LFE2090:
 3029              		.size	_ZN7sigslot12_connection2I16GuiOptionBrowseriiNS_15single_threadedEED0Ev, .-_ZN7sigslot12_co
 3030              		.section	.text._ZN7sigslot12_connection3I16GuiOptionBrowserP9GuiButtoniRK6_POINTNS_15single_thread
 3031              		.align 2
 3032              		.weak	_ZN7sigslot12_connection3I16GuiOptionBrowserP9GuiButtoniRK6_POINTNS_15single_threadedEED0Ev
 3033              		.type	_ZN7sigslot12_connection3I16GuiOptionBrowserP9GuiButtoniRK6_POINTNS_15single_threadedEED0Ev,
 3034              	_ZN7sigslot12_connection3I16GuiOptionBrowserP9GuiButtoniRK6_POINTNS_15single_threadedEED0Ev:
 3035              	.LFB2076:
 3036              		.loc 1 1783 0
 3037              		.cfi_startproc
 3038              	.LVL245:
 3039 0000 7C0802A6 		mflr 0
 3040 0004 9421FFF8 		stwu 1,-8(1)
 3041              	.LCFI53:
 3042              		.cfi_def_cfa_offset 8
 3043              		.cfi_register 65, 0
 3044              	.LBB2749:
 3045              	.LBB2750:
 3046              	.LBB2751:
 3047              	.LBB2752:
 3048              	.LBB2753:
 3049              	.LBB2754:
 3050              		.loc 1 387 0
 3051 0008 3D200000 		lis 9,_ZTVN7sigslot17_connection_base3IP9GuiButtoniRK6_POINTNS_15single_threadedEEE+8@ha
 3052              	.LBE2754:
 3053              	.LBE2753:
 3054              	.LBE2752:
 3055              	.LBE2751:
 3056              	.LBE2750:
 3057              	.LBE2749:
 3058              		.loc 1 1783 0
 3059 000c 9001000C 		stw 0,12(1)
 3060              	.LBB2760:
 3061              	.LBB2759:
 3062              	.LBB2758:
 3063              	.LBB2757:
 3064              	.LBB2756:
 3065              	.LBB2755:
 3066              		.loc 1 387 0
 3067 0010 38090008 		la 0,_ZTVN7sigslot17_connection_base3IP9GuiButtoniRK6_POINTNS_15single_threadedEEE+8@l(9)
 3068              		.cfi_offset 65, 4
 3069 0014 90030000 		stw 0,0(3)
 3070              	.LBE2755:
 3071              	.LBE2756:
 3072              	.LBE2757:
 3073              	.LBE2758:
 3074              	.LBE2759:
 3075              	.LBE2760:
 3076              		.loc 1 1786 0
 3077 0018 48000001 		bl _ZdlPv
 3078              	.LVL246:
 3079 001c 8001000C 		lwz 0,12(1)
 3080 0020 38210008 		addi 1,1,8
 3081              	.LCFI54:
 3082              		.cfi_def_cfa_offset 0
 3083 0024 7C0803A6 		mtlr 0
 3084 0028 4E800020 		blr
 3085              		.cfi_endproc
 3086              	.LFE2076:
 3087              		.size	_ZN7sigslot12_connection3I16GuiOptionBrowserP9GuiButtoniRK6_POINTNS_15single_threadedEED0Ev,
 3088              		.section	.text._ZN7sigslot17_connection_base3IP9GuiButtoniRK6_POINTNS_15single_threadedEED0Ev,"axG
 3089              		.align 2
 3090              		.weak	_ZN7sigslot17_connection_base3IP9GuiButtoniRK6_POINTNS_15single_threadedEED0Ev
 3091              		.type	_ZN7sigslot17_connection_base3IP9GuiButtoniRK6_POINTNS_15single_threadedEED0Ev, @function
 3092              	_ZN7sigslot17_connection_base3IP9GuiButtoniRK6_POINTNS_15single_threadedEED0Ev:
 3093              	.LFB1764:
 3094              		.loc 1 387 0
 3095              		.cfi_startproc
 3096              	.LVL247:
 3097 0000 7C0802A6 		mflr 0
 3098 0004 9421FFF8 		stwu 1,-8(1)
 3099              	.LCFI55:
 3100              		.cfi_def_cfa_offset 8
 3101              		.cfi_register 65, 0
 3102              	.LBB2761:
 3103              	.LBB2762:
 3104              	.LBB2763:
 3105 0008 3D200000 		lis 9,_ZTVN7sigslot17_connection_base3IP9GuiButtoniRK6_POINTNS_15single_threadedEEE+8@ha
 3106              	.LBE2763:
 3107              	.LBE2762:
 3108              	.LBE2761:
 3109 000c 9001000C 		stw 0,12(1)
 3110              	.LBB2766:
 3111              	.LBB2765:
 3112              	.LBB2764:
 3113              		.loc 1 387 0
 3114 0010 38090008 		la 0,_ZTVN7sigslot17_connection_base3IP9GuiButtoniRK6_POINTNS_15single_threadedEEE+8@l(9)
 3115              		.cfi_offset 65, 4
 3116 0014 90030000 		stw 0,0(3)
 3117              	.LBE2764:
 3118              	.LBE2765:
 3119              	.LBE2766:
 3120 0018 48000001 		bl _ZdlPv
 3121              	.LVL248:
 3122 001c 8001000C 		lwz 0,12(1)
 3123 0020 38210008 		addi 1,1,8
 3124              	.LCFI56:
 3125              		.cfi_def_cfa_offset 0
 3126 0024 7C0803A6 		mtlr 0
 3127 0028 4E800020 		blr
 3128              		.cfi_endproc
 3129              	.LFE1764:
 3130              		.size	_ZN7sigslot17_connection_base3IP9GuiButtoniRK6_POINTNS_15single_threadedEED0Ev, .-_ZN7sigslo
 3131              		.section	.text._ZN7sigslot17_connection_base2IiiNS_15single_threadedEED0Ev,"axG",@progbits,_ZN7sig
 3132              		.align 2
 3133              		.weak	_ZN7sigslot17_connection_base2IiiNS_15single_threadedEED0Ev
 3134              		.type	_ZN7sigslot17_connection_base2IiiNS_15single_threadedEED0Ev, @function
 3135              	_ZN7sigslot17_connection_base2IiiNS_15single_threadedEED0Ev:
 3136              	.LFB1757:
 3137              		.loc 1 376 0
 3138              		.cfi_startproc
 3139              	.LVL249:
 3140 0000 7C0802A6 		mflr 0
 3141 0004 9421FFF8 		stwu 1,-8(1)
 3142              	.LCFI57:
 3143              		.cfi_def_cfa_offset 8
 3144              		.cfi_register 65, 0
 3145              	.LBB2767:
 3146              	.LBB2768:
 3147              	.LBB2769:
 3148 0008 3D200000 		lis 9,_ZTVN7sigslot17_connection_base2IiiNS_15single_threadedEEE+8@ha
 3149              	.LBE2769:
 3150              	.LBE2768:
 3151              	.LBE2767:
 3152 000c 9001000C 		stw 0,12(1)
 3153              	.LBB2772:
 3154              	.LBB2771:
 3155              	.LBB2770:
 3156              		.loc 1 376 0
 3157 0010 38090008 		la 0,_ZTVN7sigslot17_connection_base2IiiNS_15single_threadedEEE+8@l(9)
 3158              		.cfi_offset 65, 4
 3159 0014 90030000 		stw 0,0(3)
 3160              	.LBE2770:
 3161              	.LBE2771:
 3162              	.LBE2772:
 3163 0018 48000001 		bl _ZdlPv
 3164              	.LVL250:
 3165 001c 8001000C 		lwz 0,12(1)
 3166 0020 38210008 		addi 1,1,8
 3167              	.LCFI58:
 3168              		.cfi_def_cfa_offset 0
 3169 0024 7C0803A6 		mtlr 0
 3170 0028 4E800020 		blr
 3171              		.cfi_endproc
 3172              	.LFE1757:
 3173              		.size	_ZN7sigslot17_connection_base2IiiNS_15single_threadedEED0Ev, .-_ZN7sigslot17_connection_base
 3174              		.section	.text._ZN7sigslot12_signal_baseINS_15single_threadedEED0Ev,"axG",@progbits,_ZN7sigslot12_
 3175              		.align 2
 3176              		.weak	_ZN7sigslot12_signal_baseINS_15single_threadedEED0Ev
 3177              		.type	_ZN7sigslot12_signal_baseINS_15single_threadedEED0Ev, @function
 3178              	_ZN7sigslot12_signal_baseINS_15single_threadedEED0Ev:
 3179              	.LFB1630:
 3180              		.loc 1 466 0
 3181              		.cfi_startproc
 3182              	.LVL251:
 3183 0000 7C0802A6 		mflr 0
 3184 0004 9421FFF8 		stwu 1,-8(1)
 3185              	.LCFI59:
 3186              		.cfi_def_cfa_offset 8
 3187              		.cfi_register 65, 0
 3188              	.LBB2773:
 3189              	.LBB2774:
 3190              	.LBB2775:
 3191              	.LBB2776:
 3192              	.LBB2777:
 3193              	.LBB2778:
 3194              		.loc 1 105 0
 3195 0008 3D200000 		lis 9,_ZTVN7sigslot15single_threadedE+8@ha
 3196              	.LBE2778:
 3197              	.LBE2777:
 3198              	.LBE2776:
 3199              	.LBE2775:
 3200              	.LBE2774:
 3201              	.LBE2773:
 3202              		.loc 1 466 0
 3203 000c 9001000C 		stw 0,12(1)
 3204              	.LBB2784:
 3205              	.LBB2783:
 3206              	.LBB2782:
 3207              	.LBB2781:
 3208              	.LBB2780:
 3209              	.LBB2779:
 3210              		.loc 1 105 0
 3211 0010 38090008 		la 0,_ZTVN7sigslot15single_threadedE+8@l(9)
 3212              		.cfi_offset 65, 4
 3213 0014 90030000 		stw 0,0(3)
 3214              	.LBE2779:
 3215              	.LBE2780:
 3216              	.LBE2781:
 3217              	.LBE2782:
 3218              	.LBE2783:
 3219              	.LBE2784:
 3220              		.loc 1 466 0
 3221 0018 48000001 		bl _ZdlPv
 3222              	.LVL252:
 3223 001c 8001000C 		lwz 0,12(1)
 3224 0020 38210008 		addi 1,1,8
 3225              	.LCFI60:
 3226              		.cfi_def_cfa_offset 0
 3227 0024 7C0803A6 		mtlr 0
 3228 0028 4E800020 		blr
 3229              		.cfi_endproc
 3230              	.LFE1630:
 3231              		.size	_ZN7sigslot12_signal_baseINS_15single_threadedEED0Ev, .-_ZN7sigslot12_signal_baseINS_15singl
 3232              		.section	.text._ZN7sigslot15single_threadedD0Ev,"axG",@progbits,_ZN7sigslot15single_threadedD5Ev,c
 3233              		.align 2
 3234              		.weak	_ZN7sigslot15single_threadedD0Ev
 3235              		.type	_ZN7sigslot15single_threadedD0Ev, @function
 3236              	_ZN7sigslot15single_threadedD0Ev:
 3237              	.LFB1150:
 3238              		.loc 1 104 0
 3239              		.cfi_startproc
 3240              	.LVL253:
 3241 0000 7C0802A6 		mflr 0
 3242 0004 9421FFF8 		stwu 1,-8(1)
 3243              	.LCFI61:
 3244              		.cfi_def_cfa_offset 8
 3245              		.cfi_register 65, 0
 3246              	.LBB2785:
 3247              	.LBB2786:
 3248              	.LBB2787:
 3249              		.loc 1 105 0
 3250 0008 3D200000 		lis 9,_ZTVN7sigslot15single_threadedE+8@ha
 3251              	.LBE2787:
 3252              	.LBE2786:
 3253              	.LBE2785:
 3254              		.loc 1 104 0
 3255 000c 9001000C 		stw 0,12(1)
 3256              	.LBB2790:
 3257              	.LBB2789:
 3258              	.LBB2788:
 3259              		.loc 1 105 0
 3260 0010 38090008 		la 0,_ZTVN7sigslot15single_threadedE+8@l(9)
 3261              		.cfi_offset 65, 4
 3262 0014 90030000 		stw 0,0(3)
 3263              	.LBE2788:
 3264              	.LBE2789:
 3265              	.LBE2790:
 3266              		.loc 1 107 0
 3267 0018 48000001 		bl _ZdlPv
 3268              	.LVL254:
 3269 001c 8001000C 		lwz 0,12(1)
 3270 0020 38210008 		addi 1,1,8
 3271              	.LCFI62:
 3272              		.cfi_def_cfa_offset 0
 3273 0024 7C0803A6 		mtlr 0
 3274 0028 4E800020 		blr
 3275              		.cfi_endproc
 3276              	.LFE1150:
 3277              		.size	_ZN7sigslot15single_threadedD0Ev, .-_ZN7sigslot15single_threadedD0Ev
 3278              		.section	.text._ZN7sigslot13_signal_base2IP16GuiOptionBrowseriNS_15single_threadedEE15slot_disconn
 3279              		.align 2
 3280              		.weak	_ZN7sigslot13_signal_base2IP16GuiOptionBrowseriNS_15single_threadedEE15slot_disconnectEPNS_9
 3281              		.type	_ZN7sigslot13_signal_base2IP16GuiOptionBrowseriNS_15single_threadedEE15slot_disconnectEPNS_9
 3282              	_ZN7sigslot13_signal_base2IP16GuiOptionBrowseriNS_15single_threadedEE15slot_disconnectEPNS_9has_slo
 3283              	.LFB2101:
 3284              		.loc 1 870 0
 3285              		.cfi_startproc
 3286              		.cfi_personality 0,__gxx_personality_v0
 3287              		.cfi_lsda 0,.LLSDA2101
 3288              	.LVL255:
 3289 0000 7C0802A6 		mflr 0
 3290 0004 9421FFE0 		stwu 1,-32(1)
 3291              	.LCFI63:
 3292              		.cfi_def_cfa_offset 32
 3293              		.cfi_register 65, 0
 3294 0008 9361000C 		stw 27,12(1)
 3295 000c 7C7B1B78 		mr 27,3
 3296              		.cfi_offset 27, -20
 3297              	.LVL256:
 3298 0010 90010024 		stw 0,36(1)
 3299 0014 93810010 		stw 28,16(1)
 3300 0018 7C9C2378 		mr 28,4
 3301              		.cfi_offset 28, -16
 3302              		.cfi_offset 65, 4
 3303              	.LBB2791:
 3304              	.LBB2792:
 3305              	.LBB2793:
 3306              		.loc 1 338 0
 3307 001c 81230000 		lwz 9,0(3)
 3308              	.LBE2793:
 3309              	.LBE2792:
 3310              	.LBE2791:
 3311              		.loc 1 870 0
 3312 0020 93A10014 		stw 29,20(1)
 3313              	.LBB2814:
 3314              	.LBB2796:
 3315              	.LBB2794:
 3316              		.loc 3 226 0
 3317 0024 7F7DDB78 		mr 29,27
 3318              		.cfi_offset 29, -12
 3319              		.loc 1 338 0
 3320 0028 80090008 		lwz 0,8(9)
 3321              	.LBE2794:
 3322              	.LBE2796:
 3323              	.LBE2814:
 3324              		.loc 1 870 0
 3325 002c 93E1001C 		stw 31,28(1)
 3326 0030 93C10018 		stw 30,24(1)
 3327              	.LBB2815:
 3328              	.LBB2797:
 3329              	.LBB2795:
 3330              		.loc 1 338 0
 3331 0034 7C0903A6 		mtctr 0
 3332              	.LEHB20:
 3333              		.cfi_offset 30, -8
 3334              		.cfi_offset 31, -4
 3335 0038 4E800421 		bctrl
 3336              	.LEHE20:
 3337              	.LVL257:
 3338              		.loc 3 226 0
 3339 003c 87FD0004 		lwzu 31,4(29)
 3340              	.LVL258:
 3341              	.LBE2795:
 3342              	.LBE2797:
 3343              		.loc 1 876 0
 3344 0040 7F9FE800 		cmpw 7,31,29
 3345 0044 40BE0014 		bne+ 7,.L195
 3346 0048 48000064 		b .L184
 3347              	.LVL259:
 3348              	.L185:
 3349              		.loc 1 876 0 is_stmt 0 discriminator 1
 3350 004c 7F9DF000 		cmpw 7,29,30
 3351 0050 419E005C 		beq- 7,.L184
 3352              	.L193:
 3353              		.loc 1 876 0
 3354 0054 7FDFF378 		mr 31,30
 3355              	.LVL260:
 3356              	.L195:
 3357              	.LBB2798:
 3358              		.loc 1 881 0 is_stmt 1
 3359 0058 807F0008 		lwz 3,8(31)
 3360              	.LBB2799:
 3361              	.LBB2800:
 3362              		.loc 4 154 0
 3363 005c 83DF0000 		lwz 30,0(31)
 3364              	.LVL261:
 3365              	.LBE2800:
 3366              	.LBE2799:
 3367              		.loc 1 881 0
 3368 0060 81230000 		lwz 9,0(3)
 3369 0064 80090008 		lwz 0,8(9)
 3370 0068 7C0903A6 		mtctr 0
 3371              	.LEHB21:
 3372 006c 4E800421 		bctrl
 3373              	.LVL262:
 3374 0070 7F9C1800 		cmpw 7,28,3
 3375 0074 409EFFD8 		bne+ 7,.L185
 3376              	.LVL263:
 3377              		.loc 1 883 0
 3378 0078 807F0008 		lwz 3,8(31)
 3379 007c 2F830000 		cmpwi 7,3,0
 3380 0080 419E0014 		beq- 7,.L186
 3381              		.loc 1 883 0 is_stmt 0 discriminator 1
 3382 0084 81230000 		lwz 9,0(3)
 3383 0088 80090004 		lwz 0,4(9)
 3384 008c 7C0903A6 		mtctr 0
 3385 0090 4E800421 		bctrl
 3386              	.LEHE21:
 3387              	.L186:
 3388              	.LVL264:
 3389              	.LBB2801:
 3390              	.LBB2802:
 3391              	.LBB2803:
 3392              	.LBB2804:
 3393              		.loc 4 1532 0 is_stmt 1
 3394 0094 7FE3FB78 		mr 3,31
 3395 0098 48000001 		bl _ZNSt8__detail15_List_node_base9_M_unhookEv
 3396              	.LVL265:
 3397              	.LBB2805:
 3398              	.LBB2806:
 3399              	.LBB2807:
 3400              		.loc 6 98 0
 3401 009c 7FE3FB78 		mr 3,31
 3402 00a0 48000001 		bl _ZdlPv
 3403              	.LVL266:
 3404              	.LBE2807:
 3405              	.LBE2806:
 3406              	.LBE2805:
 3407              	.LBE2804:
 3408              	.LBE2803:
 3409              	.LBE2802:
 3410              	.LBE2801:
 3411              	.LBE2798:
 3412              		.loc 1 876 0
 3413 00a4 7F9DF000 		cmpw 7,29,30
 3414 00a8 409EFFAC 		bne+ 7,.L193
 3415              	.LVL267:
 3416              	.L184:
 3417              	.LBB2808:
 3418              	.LBB2809:
 3419              	.LBB2810:
 3420              		.loc 1 343 0
 3421 00ac 813B0000 		lwz 9,0(27)
 3422 00b0 7F63DB78 		mr 3,27
 3423 00b4 8009000C 		lwz 0,12(9)
 3424 00b8 7C0903A6 		mtctr 0
 3425              	.LEHB22:
 3426 00bc 4E800421 		bctrl
 3427              	.LEHE22:
 3428              	.LBE2810:
 3429              	.LBE2809:
 3430              	.LBE2808:
 3431              	.LBE2815:
 3432              		.loc 1 890 0
 3433 00c0 80010024 		lwz 0,36(1)
 3434 00c4 8361000C 		lwz 27,12(1)
 3435              	.LVL268:
 3436 00c8 7C0803A6 		mtlr 0
 3437 00cc 83810010 		lwz 28,16(1)
 3438              	.LVL269:
 3439 00d0 83A10014 		lwz 29,20(1)
 3440              	.LVL270:
 3441 00d4 83C10018 		lwz 30,24(1)
 3442 00d8 83E1001C 		lwz 31,28(1)
 3443 00dc 38210020 		addi 1,1,32
 3444              		.cfi_remember_state
 3445              	.LCFI64:
 3446              		.cfi_def_cfa_offset 0
 3447              		.cfi_restore 31
 3448              		.cfi_restore 30
 3449              		.cfi_restore 29
 3450              		.cfi_restore 28
 3451              		.cfi_restore 27
 3452 00e0 4E800020 		blr
 3453              	.LVL271:
 3454              	.L194:
 3455              	.LCFI65:
 3456              		.cfi_restore_state
 3457              	.LBB2816:
 3458              	.LBB2811:
 3459              	.LBB2812:
 3460              	.LBB2813:
 3461              		.loc 1 343 0
 3462 00e4 813B0000 		lwz 9,0(27)
 3463 00e8 7C7F1B78 		mr 31,3
 3464              	.LVL272:
 3465 00ec 7F63DB78 		mr 3,27
 3466 00f0 8009000C 		lwz 0,12(9)
 3467 00f4 7C0903A6 		mtctr 0
 3468 00f8 4E800421 		bctrl
 3469 00fc 7FE3FB78 		mr 3,31
 3470              	.LEHB23:
 3471 0100 48000001 		bl _Unwind_Resume
 3472              	.LEHE23:
 3473              	.LBE2813:
 3474              	.LBE2812:
 3475              	.LBE2811:
 3476              	.LBE2816:
 3477              		.cfi_endproc
 3478              	.LFE2101:
 3479              		.section	.gcc_except_table
 3480              	.LLSDA2101:
 3481 0075 FF       		.byte	0xff
 3482 0076 FF       		.byte	0xff
 3483 0077 01       		.byte	0x1
 3484 0078 13       		.uleb128 .LLSDACSE2101-.LLSDACSB2101
 3485              	.LLSDACSB2101:
 3486 0079 38       		.uleb128 .LEHB20-.LFB2101
 3487 007a 04       		.uleb128 .LEHE20-.LEHB20
 3488 007b 00       		.uleb128 0
 3489 007c 00       		.uleb128 0
 3490 007d 6C       		.uleb128 .LEHB21-.LFB2101
 3491 007e 28       		.uleb128 .LEHE21-.LEHB21
 3492 007f E401     		.uleb128 .L194-.LFB2101
 3493 0081 00       		.uleb128 0
 3494 0082 BC01     		.uleb128 .LEHB22-.LFB2101
 3495 0084 04       		.uleb128 .LEHE22-.LEHB22
 3496 0085 00       		.uleb128 0
 3497 0086 00       		.uleb128 0
 3498 0087 8002     		.uleb128 .LEHB23-.LFB2101
 3499 0089 04       		.uleb128 .LEHE23-.LEHB23
 3500 008a 00       		.uleb128 0
 3501 008b 00       		.uleb128 0
 3502              	.LLSDACSE2101:
 3503              		.section	.text._ZN7sigslot13_signal_base2IP16GuiOptionBrowseriNS_15single_threadedEE15slot_disconn
 3504              		.size	_ZN7sigslot13_signal_base2IP16GuiOptionBrowseriNS_15single_threadedEE15slot_disconnectEPNS_9
 3505              		.section	.text._ZN7sigslot13_signal_base3IP10GuiElementiiNS_15single_threadedEE15slot_disconnectEP
 3506              		.align 2
 3507              		.weak	_ZN7sigslot13_signal_base3IP10GuiElementiiNS_15single_threadedEE15slot_disconnectEPNS_9has_s
 3508              		.type	_ZN7sigslot13_signal_base3IP10GuiElementiiNS_15single_threadedEE15slot_disconnectEPNS_9has_s
 3509              	_ZN7sigslot13_signal_base3IP10GuiElementiiNS_15single_threadedEE15slot_disconnectEPNS_9has_slotsIS3
 3510              	.LFB2103:
 3511              		.loc 1 990 0
 3512              		.cfi_startproc
 3513              		.cfi_personality 0,__gxx_personality_v0
 3514              		.cfi_lsda 0,.LLSDA2103
 3515              	.LVL273:
 3516 0000 7C0802A6 		mflr 0
 3517 0004 9421FFE0 		stwu 1,-32(1)
 3518              	.LCFI66:
 3519              		.cfi_def_cfa_offset 32
 3520              		.cfi_register 65, 0
 3521 0008 9361000C 		stw 27,12(1)
 3522 000c 7C7B1B78 		mr 27,3
 3523              		.cfi_offset 27, -20
 3524              	.LVL274:
 3525 0010 90010024 		stw 0,36(1)
 3526 0014 93810010 		stw 28,16(1)
 3527 0018 7C9C2378 		mr 28,4
 3528              		.cfi_offset 28, -16
 3529              		.cfi_offset 65, 4
 3530              	.LBB2817:
 3531              	.LBB2818:
 3532              	.LBB2819:
 3533              		.loc 1 338 0
 3534 001c 81230000 		lwz 9,0(3)
 3535              	.LBE2819:
 3536              	.LBE2818:
 3537              	.LBE2817:
 3538              		.loc 1 990 0
 3539 0020 93A10014 		stw 29,20(1)
 3540              	.LBB2840:
 3541              	.LBB2822:
 3542              	.LBB2820:
 3543              		.loc 3 226 0
 3544 0024 7F7DDB78 		mr 29,27
 3545              		.cfi_offset 29, -12
 3546              		.loc 1 338 0
 3547 0028 80090008 		lwz 0,8(9)
 3548              	.LBE2820:
 3549              	.LBE2822:
 3550              	.LBE2840:
 3551              		.loc 1 990 0
 3552 002c 93E1001C 		stw 31,28(1)
 3553 0030 93C10018 		stw 30,24(1)
 3554              	.LBB2841:
 3555              	.LBB2823:
 3556              	.LBB2821:
 3557              		.loc 1 338 0
 3558 0034 7C0903A6 		mtctr 0
 3559              	.LEHB24:
 3560              		.cfi_offset 30, -8
 3561              		.cfi_offset 31, -4
 3562 0038 4E800421 		bctrl
 3563              	.LEHE24:
 3564              	.LVL275:
 3565              		.loc 3 226 0
 3566 003c 87FD0004 		lwzu 31,4(29)
 3567              	.LVL276:
 3568              	.LBE2821:
 3569              	.LBE2823:
 3570              		.loc 1 996 0
 3571 0040 7F9FE800 		cmpw 7,31,29
 3572 0044 40BE0014 		bne+ 7,.L208
 3573 0048 48000064 		b .L197
 3574              	.LVL277:
 3575              	.L198:
 3576              		.loc 1 996 0 is_stmt 0 discriminator 1
 3577 004c 7F9DF000 		cmpw 7,29,30
 3578 0050 419E005C 		beq- 7,.L197
 3579              	.L206:
 3580              		.loc 1 996 0
 3581 0054 7FDFF378 		mr 31,30
 3582              	.LVL278:
 3583              	.L208:
 3584              	.LBB2824:
 3585              		.loc 1 1001 0 is_stmt 1
 3586 0058 807F0008 		lwz 3,8(31)
 3587              	.LBB2825:
 3588              	.LBB2826:
 3589              		.loc 4 154 0
 3590 005c 83DF0000 		lwz 30,0(31)
 3591              	.LVL279:
 3592              	.LBE2826:
 3593              	.LBE2825:
 3594              		.loc 1 1001 0
 3595 0060 81230000 		lwz 9,0(3)
 3596 0064 80090008 		lwz 0,8(9)
 3597 0068 7C0903A6 		mtctr 0
 3598              	.LEHB25:
 3599 006c 4E800421 		bctrl
 3600              	.LVL280:
 3601 0070 7F9C1800 		cmpw 7,28,3
 3602 0074 409EFFD8 		bne+ 7,.L198
 3603              	.LVL281:
 3604              		.loc 1 1003 0
 3605 0078 807F0008 		lwz 3,8(31)
 3606 007c 2F830000 		cmpwi 7,3,0
 3607 0080 419E0014 		beq- 7,.L199
 3608              		.loc 1 1003 0 is_stmt 0 discriminator 1
 3609 0084 81230000 		lwz 9,0(3)
 3610 0088 80090004 		lwz 0,4(9)
 3611 008c 7C0903A6 		mtctr 0
 3612 0090 4E800421 		bctrl
 3613              	.LEHE25:
 3614              	.L199:
 3615              	.LVL282:
 3616              	.LBB2827:
 3617              	.LBB2828:
 3618              	.LBB2829:
 3619              	.LBB2830:
 3620              		.loc 4 1532 0 is_stmt 1
 3621 0094 7FE3FB78 		mr 3,31
 3622 0098 48000001 		bl _ZNSt8__detail15_List_node_base9_M_unhookEv
 3623              	.LVL283:
 3624              	.LBB2831:
 3625              	.LBB2832:
 3626              	.LBB2833:
 3627              		.loc 6 98 0
 3628 009c 7FE3FB78 		mr 3,31
 3629 00a0 48000001 		bl _ZdlPv
 3630              	.LVL284:
 3631              	.LBE2833:
 3632              	.LBE2832:
 3633              	.LBE2831:
 3634              	.LBE2830:
 3635              	.LBE2829:
 3636              	.LBE2828:
 3637              	.LBE2827:
 3638              	.LBE2824:
 3639              		.loc 1 996 0
 3640 00a4 7F9DF000 		cmpw 7,29,30
 3641 00a8 409EFFAC 		bne+ 7,.L206
 3642              	.LVL285:
 3643              	.L197:
 3644              	.LBB2834:
 3645              	.LBB2835:
 3646              	.LBB2836:
 3647              		.loc 1 343 0
 3648 00ac 813B0000 		lwz 9,0(27)
 3649 00b0 7F63DB78 		mr 3,27
 3650 00b4 8009000C 		lwz 0,12(9)
 3651 00b8 7C0903A6 		mtctr 0
 3652              	.LEHB26:
 3653 00bc 4E800421 		bctrl
 3654              	.LEHE26:
 3655              	.LBE2836:
 3656              	.LBE2835:
 3657              	.LBE2834:
 3658              	.LBE2841:
 3659              		.loc 1 1010 0
 3660 00c0 80010024 		lwz 0,36(1)
 3661 00c4 8361000C 		lwz 27,12(1)
 3662              	.LVL286:
 3663 00c8 7C0803A6 		mtlr 0
 3664 00cc 83810010 		lwz 28,16(1)
 3665              	.LVL287:
 3666 00d0 83A10014 		lwz 29,20(1)
 3667              	.LVL288:
 3668 00d4 83C10018 		lwz 30,24(1)
 3669 00d8 83E1001C 		lwz 31,28(1)
 3670 00dc 38210020 		addi 1,1,32
 3671              		.cfi_remember_state
 3672              	.LCFI67:
 3673              		.cfi_def_cfa_offset 0
 3674              		.cfi_restore 31
 3675              		.cfi_restore 30
 3676              		.cfi_restore 29
 3677              		.cfi_restore 28
 3678              		.cfi_restore 27
 3679 00e0 4E800020 		blr
 3680              	.LVL289:
 3681              	.L207:
 3682              	.LCFI68:
 3683              		.cfi_restore_state
 3684              	.LBB2842:
 3685              	.LBB2837:
 3686              	.LBB2838:
 3687              	.LBB2839:
 3688              		.loc 1 343 0
 3689 00e4 813B0000 		lwz 9,0(27)
 3690 00e8 7C7F1B78 		mr 31,3
 3691              	.LVL290:
 3692 00ec 7F63DB78 		mr 3,27
 3693 00f0 8009000C 		lwz 0,12(9)
 3694 00f4 7C0903A6 		mtctr 0
 3695 00f8 4E800421 		bctrl
 3696 00fc 7FE3FB78 		mr 3,31
 3697              	.LEHB27:
 3698 0100 48000001 		bl _Unwind_Resume
 3699              	.LEHE27:
 3700              	.LBE2839:
 3701              	.LBE2838:
 3702              	.LBE2837:
 3703              	.LBE2842:
 3704              		.cfi_endproc
 3705              	.LFE2103:
 3706              		.section	.gcc_except_table
 3707              	.LLSDA2103:
 3708 008c FF       		.byte	0xff
 3709 008d FF       		.byte	0xff
 3710 008e 01       		.byte	0x1
 3711 008f 13       		.uleb128 .LLSDACSE2103-.LLSDACSB2103
 3712              	.LLSDACSB2103:
 3713 0090 38       		.uleb128 .LEHB24-.LFB2103
 3714 0091 04       		.uleb128 .LEHE24-.LEHB24
 3715 0092 00       		.uleb128 0
 3716 0093 00       		.uleb128 0
 3717 0094 6C       		.uleb128 .LEHB25-.LFB2103
 3718 0095 28       		.uleb128 .LEHE25-.LEHB25
 3719 0096 E401     		.uleb128 .L207-.LFB2103
 3720 0098 00       		.uleb128 0
 3721 0099 BC01     		.uleb128 .LEHB26-.LFB2103
 3722 009b 04       		.uleb128 .LEHE26-.LEHB26
 3723 009c 00       		.uleb128 0
 3724 009d 00       		.uleb128 0
 3725 009e 8002     		.uleb128 .LEHB27-.LFB2103
 3726 00a0 04       		.uleb128 .LEHE27-.LEHB27
 3727 00a1 00       		.uleb128 0
 3728 00a2 00       		.uleb128 0
 3729              	.LLSDACSE2103:
 3730              		.section	.text._ZN7sigslot13_signal_base3IP10GuiElementiiNS_15single_threadedEE15slot_disconnectEP
 3731              		.size	_ZN7sigslot13_signal_base3IP10GuiElementiiNS_15single_threadedEE15slot_disconnectEPNS_9has_s
 3732              		.section	.text._ZN7sigslot13_signal_base2IP10GuiElementbNS_15single_threadedEE15slot_disconnectEPN
 3733              		.align 2
 3734              		.weak	_ZN7sigslot13_signal_base2IP10GuiElementbNS_15single_threadedEE15slot_disconnectEPNS_9has_sl
 3735              		.type	_ZN7sigslot13_signal_base2IP10GuiElementbNS_15single_threadedEE15slot_disconnectEPNS_9has_sl
 3736              	_ZN7sigslot13_signal_base2IP10GuiElementbNS_15single_threadedEE15slot_disconnectEPNS_9has_slotsIS3_
 3737              	.LFB2105:
 3738              		.loc 1 870 0
 3739              		.cfi_startproc
 3740              		.cfi_personality 0,__gxx_personality_v0
 3741              		.cfi_lsda 0,.LLSDA2105
 3742              	.LVL291:
 3743 0000 7C0802A6 		mflr 0
 3744 0004 9421FFE0 		stwu 1,-32(1)
 3745              	.LCFI69:
 3746              		.cfi_def_cfa_offset 32
 3747              		.cfi_register 65, 0
 3748 0008 9361000C 		stw 27,12(1)
 3749 000c 7C7B1B78 		mr 27,3
 3750              		.cfi_offset 27, -20
 3751              	.LVL292:
 3752 0010 90010024 		stw 0,36(1)
 3753 0014 93810010 		stw 28,16(1)
 3754 0018 7C9C2378 		mr 28,4
 3755              		.cfi_offset 28, -16
 3756              		.cfi_offset 65, 4
 3757              	.LBB2843:
 3758              	.LBB2844:
 3759              	.LBB2845:
 3760              		.loc 1 338 0
 3761 001c 81230000 		lwz 9,0(3)
 3762              	.LBE2845:
 3763              	.LBE2844:
 3764              	.LBE2843:
 3765              		.loc 1 870 0
 3766 0020 93A10014 		stw 29,20(1)
 3767              	.LBB2866:
 3768              	.LBB2848:
 3769              	.LBB2846:
 3770              		.loc 3 226 0
 3771 0024 7F7DDB78 		mr 29,27
 3772              		.cfi_offset 29, -12
 3773              		.loc 1 338 0
 3774 0028 80090008 		lwz 0,8(9)
 3775              	.LBE2846:
 3776              	.LBE2848:
 3777              	.LBE2866:
 3778              		.loc 1 870 0
 3779 002c 93E1001C 		stw 31,28(1)
 3780 0030 93C10018 		stw 30,24(1)
 3781              	.LBB2867:
 3782              	.LBB2849:
 3783              	.LBB2847:
 3784              		.loc 1 338 0
 3785 0034 7C0903A6 		mtctr 0
 3786              	.LEHB28:
 3787              		.cfi_offset 30, -8
 3788              		.cfi_offset 31, -4
 3789 0038 4E800421 		bctrl
 3790              	.LEHE28:
 3791              	.LVL293:
 3792              		.loc 3 226 0
 3793 003c 87FD0004 		lwzu 31,4(29)
 3794              	.LVL294:
 3795              	.LBE2847:
 3796              	.LBE2849:
 3797              		.loc 1 876 0
 3798 0040 7F9FE800 		cmpw 7,31,29
 3799 0044 40BE0014 		bne+ 7,.L221
 3800 0048 48000064 		b .L210
 3801              	.LVL295:
 3802              	.L211:
 3803              		.loc 1 876 0 is_stmt 0 discriminator 1
 3804 004c 7F9DF000 		cmpw 7,29,30
 3805 0050 419E005C 		beq- 7,.L210
 3806              	.L219:
 3807              		.loc 1 876 0
 3808 0054 7FDFF378 		mr 31,30
 3809              	.LVL296:
 3810              	.L221:
 3811              	.LBB2850:
 3812              		.loc 1 881 0 is_stmt 1
 3813 0058 807F0008 		lwz 3,8(31)
 3814              	.LBB2851:
 3815              	.LBB2852:
 3816              		.loc 4 154 0
 3817 005c 83DF0000 		lwz 30,0(31)
 3818              	.LVL297:
 3819              	.LBE2852:
 3820              	.LBE2851:
 3821              		.loc 1 881 0
 3822 0060 81230000 		lwz 9,0(3)
 3823 0064 80090008 		lwz 0,8(9)
 3824 0068 7C0903A6 		mtctr 0
 3825              	.LEHB29:
 3826 006c 4E800421 		bctrl
 3827              	.LVL298:
 3828 0070 7F9C1800 		cmpw 7,28,3
 3829 0074 409EFFD8 		bne+ 7,.L211
 3830              	.LVL299:
 3831              		.loc 1 883 0
 3832 0078 807F0008 		lwz 3,8(31)
 3833 007c 2F830000 		cmpwi 7,3,0
 3834 0080 419E0014 		beq- 7,.L212
 3835              		.loc 1 883 0 is_stmt 0 discriminator 1
 3836 0084 81230000 		lwz 9,0(3)
 3837 0088 80090004 		lwz 0,4(9)
 3838 008c 7C0903A6 		mtctr 0
 3839 0090 4E800421 		bctrl
 3840              	.LEHE29:
 3841              	.L212:
 3842              	.LVL300:
 3843              	.LBB2853:
 3844              	.LBB2854:
 3845              	.LBB2855:
 3846              	.LBB2856:
 3847              		.loc 4 1532 0 is_stmt 1
 3848 0094 7FE3FB78 		mr 3,31
 3849 0098 48000001 		bl _ZNSt8__detail15_List_node_base9_M_unhookEv
 3850              	.LVL301:
 3851              	.LBB2857:
 3852              	.LBB2858:
 3853              	.LBB2859:
 3854              		.loc 6 98 0
 3855 009c 7FE3FB78 		mr 3,31
 3856 00a0 48000001 		bl _ZdlPv
 3857              	.LVL302:
 3858              	.LBE2859:
 3859              	.LBE2858:
 3860              	.LBE2857:
 3861              	.LBE2856:
 3862              	.LBE2855:
 3863              	.LBE2854:
 3864              	.LBE2853:
 3865              	.LBE2850:
 3866              		.loc 1 876 0
 3867 00a4 7F9DF000 		cmpw 7,29,30
 3868 00a8 409EFFAC 		bne+ 7,.L219
 3869              	.LVL303:
 3870              	.L210:
 3871              	.LBB2860:
 3872              	.LBB2861:
 3873              	.LBB2862:
 3874              		.loc 1 343 0
 3875 00ac 813B0000 		lwz 9,0(27)
 3876 00b0 7F63DB78 		mr 3,27
 3877 00b4 8009000C 		lwz 0,12(9)
 3878 00b8 7C0903A6 		mtctr 0
 3879              	.LEHB30:
 3880 00bc 4E800421 		bctrl
 3881              	.LEHE30:
 3882              	.LBE2862:
 3883              	.LBE2861:
 3884              	.LBE2860:
 3885              	.LBE2867:
 3886              		.loc 1 890 0
 3887 00c0 80010024 		lwz 0,36(1)
 3888 00c4 8361000C 		lwz 27,12(1)
 3889              	.LVL304:
 3890 00c8 7C0803A6 		mtlr 0
 3891 00cc 83810010 		lwz 28,16(1)
 3892              	.LVL305:
 3893 00d0 83A10014 		lwz 29,20(1)
 3894              	.LVL306:
 3895 00d4 83C10018 		lwz 30,24(1)
 3896 00d8 83E1001C 		lwz 31,28(1)
 3897 00dc 38210020 		addi 1,1,32
 3898              		.cfi_remember_state
 3899              	.LCFI70:
 3900              		.cfi_def_cfa_offset 0
 3901              		.cfi_restore 31
 3902              		.cfi_restore 30
 3903              		.cfi_restore 29
 3904              		.cfi_restore 28
 3905              		.cfi_restore 27
 3906 00e0 4E800020 		blr
 3907              	.LVL307:
 3908              	.L220:
 3909              	.LCFI71:
 3910              		.cfi_restore_state
 3911              	.LBB2868:
 3912              	.LBB2863:
 3913              	.LBB2864:
 3914              	.LBB2865:
 3915              		.loc 1 343 0
 3916 00e4 813B0000 		lwz 9,0(27)
 3917 00e8 7C7F1B78 		mr 31,3
 3918              	.LVL308:
 3919 00ec 7F63DB78 		mr 3,27
 3920 00f0 8009000C 		lwz 0,12(9)
 3921 00f4 7C0903A6 		mtctr 0
 3922 00f8 4E800421 		bctrl
 3923 00fc 7FE3FB78 		mr 3,31
 3924              	.LEHB31:
 3925 0100 48000001 		bl _Unwind_Resume
 3926              	.LEHE31:
 3927              	.LBE2865:
 3928              	.LBE2864:
 3929              	.LBE2863:
 3930              	.LBE2868:
 3931              		.cfi_endproc
 3932              	.LFE2105:
 3933              		.section	.gcc_except_table
 3934              	.LLSDA2105:
 3935 00a3 FF       		.byte	0xff
 3936 00a4 FF       		.byte	0xff
 3937 00a5 01       		.byte	0x1
 3938 00a6 13       		.uleb128 .LLSDACSE2105-.LLSDACSB2105
 3939              	.LLSDACSB2105:
 3940 00a7 38       		.uleb128 .LEHB28-.LFB2105
 3941 00a8 04       		.uleb128 .LEHE28-.LEHB28
 3942 00a9 00       		.uleb128 0
 3943 00aa 00       		.uleb128 0
 3944 00ab 6C       		.uleb128 .LEHB29-.LFB2105
 3945 00ac 28       		.uleb128 .LEHE29-.LEHB29
 3946 00ad E401     		.uleb128 .L220-.LFB2105
 3947 00af 00       		.uleb128 0
 3948 00b0 BC01     		.uleb128 .LEHB30-.LFB2105
 3949 00b2 04       		.uleb128 .LEHE30-.LEHB30
 3950 00b3 00       		.uleb128 0
 3951 00b4 00       		.uleb128 0
 3952 00b5 8002     		.uleb128 .LEHB31-.LFB2105
 3953 00b7 04       		.uleb128 .LEHE31-.LEHB31
 3954 00b8 00       		.uleb128 0
 3955 00b9 00       		.uleb128 0
 3956              	.LLSDACSE2105:
 3957              		.section	.text._ZN7sigslot13_signal_base2IP10GuiElementbNS_15single_threadedEE15slot_disconnectEPN
 3958              		.size	_ZN7sigslot13_signal_base2IP10GuiElementbNS_15single_threadedEE15slot_disconnectEPNS_9has_sl
 3959              		.section	".text"
 3960              		.align 2
 3961              		.globl _ZN16GuiOptionBrowser12OnListChangeEii
 3962              		.type	_ZN16GuiOptionBrowser12OnListChangeEii, @function
 3963              	_ZN16GuiOptionBrowser12OnListChangeEii:
 3964              	.LFB1576:
 3965              		.loc 3 145 0
 3966              		.cfi_startproc
 3967              	.LVL309:
 3968 01a8 7C0802A6 		mflr 0
 3969 01ac 9421FFE0 		stwu 1,-32(1)
 3970              	.LCFI72:
 3971              		.cfi_def_cfa_offset 32
 3972              		.cfi_register 65, 0
 3973 01b0 93810010 		stw 28,16(1)
 3974              	.LBB2869:
 3975              		.loc 3 148 0
 3976 01b4 3B800000 		li 28,0
 3977              		.cfi_offset 28, -16
 3978              	.LBE2869:
 3979              		.loc 3 145 0
 3980 01b8 93A10014 		stw 29,20(1)
 3981              	.LBB2879:
 3982              		.loc 3 150 0
 3983 01bc 3BA00000 		li 29,0
 3984              		.cfi_offset 29, -12
 3985              	.LBE2879:
 3986              		.loc 3 145 0
 3987 01c0 93C10018 		stw 30,24(1)
 3988              	.LBB2880:
 3989              		.loc 3 147 0
 3990 01c4 7C7E1B78 		mr 30,3
 3991              		.cfi_offset 30, -8
 3992              	.LBE2880:
 3993              		.loc 3 145 0
 3994 01c8 93E1001C 		stw 31,28(1)
 3995 01cc 7C7F1B78 		mr 31,3
 3996              		.cfi_offset 31, -4
 3997 01d0 90010024 		stw 0,36(1)
 3998 01d4 93410008 		stw 26,8(1)
 3999 01d8 9361000C 		stw 27,12(1)
 4000              	.LBB2881:
 4001              		.loc 3 146 0
 4002 01dc 908300B8 		stw 4,184(3)
 4003              		.loc 3 147 0
 4004 01e0 90A300BC 		stw 5,188(3)
 4005              	.LVL310:
 4006 01e4 480000AC 		b .L228
 4007              		.cfi_offset 27, -20
 4008              		.cfi_offset 26, -24
 4009              		.cfi_offset 65, 4
 4010              	.LVL311:
 4011              	.L231:
 4012              	.LBB2870:
 4013              		.loc 3 154 0
 4014 01e8 80090054 		lwz 0,84(9)
 4015 01ec 7C0903A6 		mtctr 0
 4016 01f0 4E800421 		bctrl
 4017              	.LVL312:
 4018 01f4 2F830004 		cmpwi 7,3,4
 4019 01f8 419E032C 		beq- 7,.L229
 4020              	.L224:
 4021              		.loc 3 160 0
 4022 01fc 837E00F0 		lwz 27,240(30)
 4023 0200 809F00BC 		lwz 4,188(31)
 4024 0204 813B0000 		lwz 9,0(27)
 4025 0208 807F00C8 		lwz 3,200(31)
 4026 020c 7C9D2214 		add 4,29,4
 4027 0210 834900C8 		lwz 26,200(9)
 4028 0214 48000001 		bl _ZN10OptionList7GetNameEi
 4029 0218 7C641B78 		mr 4,3
 4030 021c 7F4903A6 		mtctr 26
 4031 0220 7F63DB78 		mr 3,27
 4032 0224 4E800421 		bctrl
 4033              		.loc 3 161 0
 4034 0228 837E0138 		lwz 27,312(30)
 4035 022c 809F00BC 		lwz 4,188(31)
 4036 0230 813B0000 		lwz 9,0(27)
 4037 0234 807F00C8 		lwz 3,200(31)
 4038 0238 7C9D2214 		add 4,29,4
 4039 023c 834900C8 		lwz 26,200(9)
 4040 0240 48000001 		bl _ZN10OptionList8GetValueEi
 4041 0244 7C641B78 		mr 4,3
 4042 0248 7F4903A6 		mtctr 26
 4043 024c 7F63DB78 		mr 3,27
 4044 0250 4E800421 		bctrl
 4045              		.loc 3 163 0
 4046 0254 807E00F0 		lwz 3,240(30)
 4047 0258 48000001 		bl _ZN7GuiText12GetTextWidthEv
 4048 025c 7F83E000 		cmpw 7,3,28
 4049 0260 419D02B4 		bgt- 7,.L230
 4050              	.L225:
 4051              	.LVL313:
 4052              		.loc 3 166 0
 4053 0264 801F00C0 		lwz 0,192(31)
 4054 0268 393C0027 		addi 9,28,39
 4055 026c 7F890000 		cmpw 7,9,0
 4056              		.loc 3 167 0
 4057 0270 381C0028 		addi 0,28,40
 4058              		.loc 3 166 0
 4059 0274 419C0008 		blt- 7,.L226
 4060              		.loc 3 167 0
 4061 0278 901F00C0 		stw 0,192(31)
 4062              	.L226:
 4063              	.LVL314:
 4064              		.loc 3 150 0
 4065 027c 2F9D0008 		cmpwi 7,29,8
 4066 0280 3BDE0004 		addi 30,30,4
 4067 0284 3BBD0001 		addi 29,29,1
 4068              	.LVL315:
 4069 0288 419E006C 		beq- 7,.L227
 4070              	.L232:
 4071 028c 80BF00BC 		lwz 5,188(31)
 4072              	.LVL316:
 4073              	.L228:
 4074              		.loc 3 152 0
 4075 0290 813F00C8 		lwz 9,200(31)
 4076              	.LVL317:
 4077 0294 7CBD2A14 		add 5,29,5
 4078              		.loc 3 154 0
 4079 0298 807E00CC 		lwz 3,204(30)
 4080              		.loc 3 171 0
 4081 029c 38800000 		li 4,0
 4082              	.LBB2871:
 4083              	.LBB2872:
 4084              	.LBB2873:
 4085              		.file 7 "d:\\devkitpro\\devkitppc\\bin\\../lib/gcc/powerpc-eabi/4.6.3/../../../../powerpc-eabi/inc
 4086              		.loc 7 571 0
 4087 02a0 81690008 		lwz 11,8(9)
 4088 02a4 80090004 		lwz 0,4(9)
 4089              	.LBE2873:
 4090              	.LBE2872:
 4091              	.LBE2871:
 4092              		.loc 3 154 0
 4093 02a8 81230000 		lwz 9,0(3)
 4094              	.LBB2876:
 4095              	.LBB2875:
 4096              	.LBB2874:
 4097              		.loc 7 571 0
 4098 02ac 7C005850 		subf 0,0,11
 4099 02b0 7C001670 		srawi 0,0,2
 4100              	.LBE2874:
 4101              	.LBE2875:
 4102              	.LBE2876:
 4103              		.loc 3 152 0
 4104 02b4 7F850000 		cmpw 7,5,0
 4105 02b8 41BCFF30 		blt- 7,.L231
 4106              		.loc 3 171 0
 4107 02bc 80090030 		lwz 0,48(9)
 4108 02c0 7C0903A6 		mtctr 0
 4109 02c4 4E800421 		bctrl
 4110              	.LVL318:
 4111              		.loc 3 172 0
 4112 02c8 807E00CC 		lwz 3,204(30)
 4113 02cc 38800004 		li 4,4
 4114 02d0 38A0FFFF 		li 5,-1
 4115 02d4 81230000 		lwz 9,0(3)
 4116              		.loc 3 150 0
 4117 02d8 3BDE0004 		addi 30,30,4
 4118              		.loc 3 172 0
 4119 02dc 80090050 		lwz 0,80(9)
 4120 02e0 7C0903A6 		mtctr 0
 4121 02e4 4E800421 		bctrl
 4122              	.LVL319:
 4123              		.loc 3 150 0
 4124 02e8 2F9D0008 		cmpwi 7,29,8
 4125 02ec 3BBD0001 		addi 29,29,1
 4126              	.LVL320:
 4127 02f0 409EFF9C 		bne+ 7,.L232
 4128              	.L227:
 4129              	.LBE2870:
 4130              	.LBB2877:
 4131              		.loc 3 178 0
 4132 02f4 807F0138 		lwz 3,312(31)
 4133 02f8 38A00000 		li 5,0
 4134 02fc 809F00C0 		lwz 4,192(31)
 4135 0300 81230000 		lwz 9,0(3)
 4136 0304 800900A8 		lwz 0,168(9)
 4137 0308 7C0903A6 		mtctr 0
 4138 030c 4E800421 		bctrl
 4139              		.loc 3 179 0
 4140 0310 801F00C0 		lwz 0,192(31)
 4141 0314 809F0024 		lwz 4,36(31)
 4142 0318 38A00001 		li 5,1
 4143 031c 807F0138 		lwz 3,312(31)
 4144 0320 7C802050 		subf 4,0,4
 4145 0324 3884FFCE 		addi 4,4,-50
 4146 0328 48000001 		bl _ZN7GuiText11SetMaxWidthEii
 4147              	.LVL321:
 4148              		.loc 3 178 0
 4149 032c 807F013C 		lwz 3,316(31)
 4150 0330 809F00C0 		lwz 4,192(31)
 4151 0334 38A00000 		li 5,0
 4152 0338 81230000 		lwz 9,0(3)
 4153 033c 800900A8 		lwz 0,168(9)
 4154 0340 7C0903A6 		mtctr 0
 4155 0344 4E800421 		bctrl
 4156              		.loc 3 179 0
 4157 0348 801F00C0 		lwz 0,192(31)
 4158 034c 809F0024 		lwz 4,36(31)
 4159 0350 38A00001 		li 5,1
 4160 0354 807F013C 		lwz 3,316(31)
 4161 0358 7C802050 		subf 4,0,4
 4162 035c 3884FFCE 		addi 4,4,-50
 4163 0360 48000001 		bl _ZN7GuiText11SetMaxWidthEii
 4164              	.LVL322:
 4165              		.loc 3 178 0
 4166 0364 807F0140 		lwz 3,320(31)
 4167 0368 809F00C0 		lwz 4,192(31)
 4168 036c 38A00000 		li 5,0
 4169 0370 81230000 		lwz 9,0(3)
 4170 0374 800900A8 		lwz 0,168(9)
 4171 0378 7C0903A6 		mtctr 0
 4172 037c 4E800421 		bctrl
 4173              		.loc 3 179 0
 4174 0380 801F00C0 		lwz 0,192(31)
 4175 0384 809F0024 		lwz 4,36(31)
 4176 0388 38A00001 		li 5,1
 4177 038c 807F0140 		lwz 3,320(31)
 4178 0390 7C802050 		subf 4,0,4
 4179 0394 3884FFCE 		addi 4,4,-50
 4180 0398 48000001 		bl _ZN7GuiText11SetMaxWidthEii
 4181              	.LVL323:
 4182              		.loc 3 178 0
 4183 039c 807F0144 		lwz 3,324(31)
 4184 03a0 809F00C0 		lwz 4,192(31)
 4185 03a4 38A00000 		li 5,0
 4186 03a8 81230000 		lwz 9,0(3)
 4187 03ac 800900A8 		lwz 0,168(9)
 4188 03b0 7C0903A6 		mtctr 0
 4189 03b4 4E800421 		bctrl
 4190              		.loc 3 179 0
 4191 03b8 801F00C0 		lwz 0,192(31)
 4192 03bc 809F0024 		lwz 4,36(31)
 4193 03c0 38A00001 		li 5,1
 4194 03c4 807F0144 		lwz 3,324(31)
 4195 03c8 7C802050 		subf 4,0,4
 4196 03cc 3884FFCE 		addi 4,4,-50
 4197 03d0 48000001 		bl _ZN7GuiText11SetMaxWidthEii
 4198              	.LVL324:
 4199              		.loc 3 178 0
 4200 03d4 807F0148 		lwz 3,328(31)
 4201 03d8 809F00C0 		lwz 4,192(31)
 4202 03dc 38A00000 		li 5,0
 4203 03e0 81230000 		lwz 9,0(3)
 4204 03e4 800900A8 		lwz 0,168(9)
 4205 03e8 7C0903A6 		mtctr 0
 4206 03ec 4E800421 		bctrl
 4207              		.loc 3 179 0
 4208 03f0 801F00C0 		lwz 0,192(31)
 4209 03f4 809F0024 		lwz 4,36(31)
 4210 03f8 38A00001 		li 5,1
 4211 03fc 807F0148 		lwz 3,328(31)
 4212 0400 7C802050 		subf 4,0,4
 4213 0404 3884FFCE 		addi 4,4,-50
 4214 0408 48000001 		bl _ZN7GuiText11SetMaxWidthEii
 4215              	.LVL325:
 4216              		.loc 3 178 0
 4217 040c 807F014C 		lwz 3,332(31)
 4218 0410 809F00C0 		lwz 4,192(31)
 4219 0414 38A00000 		li 5,0
 4220 0418 81230000 		lwz 9,0(3)
 4221 041c 800900A8 		lwz 0,168(9)
 4222 0420 7C0903A6 		mtctr 0
 4223 0424 4E800421 		bctrl
 4224              		.loc 3 179 0
 4225 0428 801F00C0 		lwz 0,192(31)
 4226 042c 809F0024 		lwz 4,36(31)
 4227 0430 38A00001 		li 5,1
 4228 0434 807F014C 		lwz 3,332(31)
 4229 0438 7C802050 		subf 4,0,4
 4230 043c 3884FFCE 		addi 4,4,-50
 4231 0440 48000001 		bl _ZN7GuiText11SetMaxWidthEii
 4232              	.LVL326:
 4233              		.loc 3 178 0
 4234 0444 807F0150 		lwz 3,336(31)
 4235 0448 809F00C0 		lwz 4,192(31)
 4236 044c 38A00000 		li 5,0
 4237 0450 81230000 		lwz 9,0(3)
 4238 0454 800900A8 		lwz 0,168(9)
 4239 0458 7C0903A6 		mtctr 0
 4240 045c 4E800421 		bctrl
 4241              		.loc 3 179 0
 4242 0460 801F00C0 		lwz 0,192(31)
 4243 0464 809F0024 		lwz 4,36(31)
 4244 0468 38A00001 		li 5,1
 4245 046c 807F0150 		lwz 3,336(31)
 4246 0470 7C802050 		subf 4,0,4
 4247 0474 3884FFCE 		addi 4,4,-50
 4248 0478 48000001 		bl _ZN7GuiText11SetMaxWidthEii
 4249              	.LVL327:
 4250              		.loc 3 178 0
 4251 047c 807F0154 		lwz 3,340(31)
 4252 0480 809F00C0 		lwz 4,192(31)
 4253 0484 38A00000 		li 5,0
 4254 0488 81230000 		lwz 9,0(3)
 4255 048c 800900A8 		lwz 0,168(9)
 4256 0490 7C0903A6 		mtctr 0
 4257 0494 4E800421 		bctrl
 4258              		.loc 3 179 0
 4259 0498 801F00C0 		lwz 0,192(31)
 4260 049c 809F0024 		lwz 4,36(31)
 4261 04a0 38A00001 		li 5,1
 4262 04a4 807F0154 		lwz 3,340(31)
 4263 04a8 7C802050 		subf 4,0,4
 4264 04ac 3884FFCE 		addi 4,4,-50
 4265 04b0 48000001 		bl _ZN7GuiText11SetMaxWidthEii
 4266              	.LVL328:
 4267              		.loc 3 178 0
 4268 04b4 807F0158 		lwz 3,344(31)
 4269 04b8 809F00C0 		lwz 4,192(31)
 4270 04bc 38A00000 		li 5,0
 4271 04c0 81230000 		lwz 9,0(3)
 4272 04c4 800900A8 		lwz 0,168(9)
 4273 04c8 7C0903A6 		mtctr 0
 4274 04cc 4E800421 		bctrl
 4275              		.loc 3 179 0
 4276 04d0 801F00C0 		lwz 0,192(31)
 4277 04d4 809F0024 		lwz 4,36(31)
 4278 04d8 38A00001 		li 5,1
 4279 04dc 807F0158 		lwz 3,344(31)
 4280 04e0 7C802050 		subf 4,0,4
 4281 04e4 3884FFCE 		addi 4,4,-50
 4282 04e8 48000001 		bl _ZN7GuiText11SetMaxWidthEii
 4283              	.LVL329:
 4284              	.LBE2877:
 4285              	.LBE2881:
 4286              		.loc 3 181 0
 4287 04ec 80010024 		lwz 0,36(1)
 4288 04f0 83410008 		lwz 26,8(1)
 4289 04f4 7C0803A6 		mtlr 0
 4290 04f8 8361000C 		lwz 27,12(1)
 4291 04fc 83810010 		lwz 28,16(1)
 4292              	.LVL330:
 4293 0500 83A10014 		lwz 29,20(1)
 4294              	.LVL331:
 4295 0504 83C10018 		lwz 30,24(1)
 4296 0508 83E1001C 		lwz 31,28(1)
 4297              	.LVL332:
 4298 050c 38210020 		addi 1,1,32
 4299              		.cfi_remember_state
 4300              	.LCFI73:
 4301              		.cfi_def_cfa_offset 0
 4302              		.cfi_restore 31
 4303              		.cfi_restore 30
 4304              		.cfi_restore 29
 4305              		.cfi_restore 28
 4306              		.cfi_restore 27
 4307              		.cfi_restore 26
 4308 0510 4E800020 		blr
 4309              	.LVL333:
 4310              	.L230:
 4311              	.LCFI74:
 4312              		.cfi_restore_state
 4313              	.LBB2882:
 4314              	.LBB2878:
 4315              		.loc 3 164 0
 4316 0514 807E00F0 		lwz 3,240(30)
 4317 0518 48000001 		bl _ZN7GuiText12GetTextWidthEv
 4318 051c 7C7C1B78 		mr 28,3
 4319              	.LVL334:
 4320 0520 4BFFFD44 		b .L225
 4321              	.LVL335:
 4322              	.L229:
 4323              		.loc 3 156 0
 4324 0524 807E00CC 		lwz 3,204(30)
 4325 0528 38800001 		li 4,1
 4326 052c 81230000 		lwz 9,0(3)
 4327 0530 80090030 		lwz 0,48(9)
 4328 0534 7C0903A6 		mtctr 0
 4329 0538 4E800421 		bctrl
 4330              		.loc 3 157 0
 4331 053c 807E00CC 		lwz 3,204(30)
 4332 0540 38A0FFFF 		li 5,-1
 4333 0544 38800000 		li 4,0
 4334 0548 81230000 		lwz 9,0(3)
 4335 054c 80090050 		lwz 0,80(9)
 4336 0550 7C0903A6 		mtctr 0
 4337 0554 4E800421 		bctrl
 4338 0558 4BFFFCA4 		b .L224
 4339              	.LBE2878:
 4340              	.LBE2882:
 4341              		.cfi_endproc
 4342              	.LFE1576:
 4343              		.size	_ZN16GuiOptionBrowser12OnListChangeEii, .-_ZN16GuiOptionBrowser12OnListChangeEii
 4344              		.section	.text._ZN10GuiElement10ResetStateEv,"axG",@progbits,_ZN10GuiElement10ResetStateEv,comdat
 4345              		.align 2
 4346              		.weak	_ZN10GuiElement10ResetStateEv
 4347              		.type	_ZN10GuiElement10ResetStateEv, @function
 4348              	_ZN10GuiElement10ResetStateEv:
 4349              	.LFB1402:
 4350              		.loc 2 183 0
 4351              		.cfi_startproc
 4352              	.LVL336:
 4353 0000 7C0802A6 		mflr 0
 4354 0004 9421FFF8 		stwu 1,-8(1)
 4355              	.LCFI75:
 4356              		.cfi_def_cfa_offset 8
 4357              		.cfi_register 65, 0
 4358 0008 9001000C 		stw 0,12(1)
 4359              		.loc 2 185 0
 4360 000c 80030048 		lwz 0,72(3)
 4361              		.cfi_offset 65, 4
 4362 0010 2F800004 		cmpwi 7,0,4
 4363 0014 419E001C 		beq- 7,.L233
 4364              	.LVL337:
 4365              	.LBB2885:
 4366              	.LBB2886:
 4367              		.loc 2 186 0
 4368 0018 81230000 		lwz 9,0(3)
 4369 001c 38800000 		li 4,0
 4370 0020 38A0FFFF 		li 5,-1
 4371 0024 80090050 		lwz 0,80(9)
 4372 0028 7C0903A6 		mtctr 0
 4373 002c 4E800421 		bctrl
 4374              	.LVL338:
 4375              	.L233:
 4376              	.LBE2886:
 4377              	.LBE2885:
 4378              		.loc 2 187 0
 4379 0030 8001000C 		lwz 0,12(1)
 4380 0034 38210008 		addi 1,1,8
 4381              	.LCFI76:
 4382              		.cfi_def_cfa_offset 0
 4383 0038 7C0803A6 		mtlr 0
 4384 003c 4E800020 		blr
 4385              		.cfi_endproc
 4386              	.LFE1402:
 4387              		.size	_ZN10GuiElement10ResetStateEv, .-_ZN10GuiElement10ResetStateEv
 4388              		.section	".text"
 4389              		.align 2
 4390              		.globl _ZN16GuiOptionBrowser6UpdateEP10GuiTrigger
 4391              		.type	_ZN16GuiOptionBrowser6UpdateEP10GuiTrigger, @function
 4392              	_ZN16GuiOptionBrowser6UpdateEP10GuiTrigger:
 4393              	.LFB1577:
 4394              		.loc 3 184 0
 4395              		.cfi_startproc
 4396              	.LVL339:
 4397 055c 7C0802A6 		mflr 0
 4398 0560 9421FFD8 		stwu 1,-40(1)
 4399              	.LCFI77:
 4400              		.cfi_def_cfa_offset 40
 4401              		.cfi_register 65, 0
 4402 0564 93A1001C 		stw 29,28(1)
 4403 0568 7C9D2378 		mr 29,4
 4404              		.cfi_offset 29, -12
 4405 056c 9001002C 		stw 0,44(1)
 4406 0570 93C10020 		stw 30,32(1)
 4407 0574 7C7E1B78 		mr 30,3
 4408              		.cfi_offset 30, -8
 4409              		.cfi_offset 65, 4
 4410              	.LBB2899:
 4411              		.loc 3 185 0
 4412 0578 80030048 		lwz 0,72(3)
 4413              	.LBE2899:
 4414              		.loc 3 184 0
 4415 057c 93610014 		stw 27,20(1)
 4416              	.LBB2900:
 4417              		.loc 3 185 0
 4418 0580 2F800004 		cmpwi 7,0,4
 4419              	.LBE2900:
 4420              		.loc 3 184 0
 4421 0584 93810018 		stw 28,24(1)
 4422 0588 93E10024 		stw 31,36(1)
 4423              	.LBB2901:
 4424              		.loc 3 185 0
 4425 058c 419E0118 		beq- 7,.L235
 4426              		.cfi_offset 31, -4
 4427              		.cfi_offset 28, -16
 4428              		.cfi_offset 27, -20
 4429              		.loc 3 185 0 is_stmt 0 discriminator 1
 4430 0590 2F840000 		cmpwi 7,4,0
 4431 0594 419E0110 		beq- 7,.L235
 4432              	.LVL340:
 4433              	.LBE2901:
 4434              	.LBB2902:
 4435              	.LBB2903:
 4436              		.loc 3 188 0 is_stmt 1
 4437 0598 8063015C 		lwz 3,348(3)
 4438              	.LVL341:
 4439 059c 81230000 		lwz 9,0(3)
 4440 05a0 800900BC 		lwz 0,188(9)
 4441 05a4 7C0903A6 		mtctr 0
 4442 05a8 4E800421 		bctrl
 4443              	.LVL342:
 4444              		.loc 3 190 0
 4445 05ac 813E00C8 		lwz 9,200(30)
 4446              	.LBB2904:
 4447              	.LBB2905:
 4448              		.file 8 "d:/Projects/SaveGameManager/savegame-manager-gx/trunk/source/GUI/OptionList.hpp"
 4449              		.loc 8 33 0
 4450 05b0 39600000 		li 11,0
 4451 05b4 8809001C 		lbz 0,28(9)
 4452              	.LVL343:
 4453 05b8 9969001C 		stb 11,28(9)
 4454              	.LBE2905:
 4455              	.LBE2904:
 4456              		.loc 3 190 0
 4457 05bc 2F800000 		cmpwi 7,0,0
 4458 05c0 409E0238 		bne- 7,.L251
 4459              	.LVL344:
 4460              	.L237:
 4461              		.loc 3 183 0
 4462 05c4 3B9E00C8 		addi 28,30,200
 4463              	.LBE2903:
 4464              	.LBE2902:
 4465 05c8 3BE00000 		li 31,0
 4466              	.LVL345:
 4467              	.L246:
 4468              	.LBB2915:
 4469              	.LBB2913:
 4470              	.LBB2906:
 4471              	.LBB2907:
 4472              		.loc 3 195 0
 4473 05cc 801E00B8 		lwz 0,184(30)
 4474 05d0 7F80F800 		cmpw 7,0,31
 4475 05d4 409E00F4 		bne- 7,.L252
 4476              	.L238:
 4477              		.loc 3 200 0
 4478 05d8 807C0004 		lwz 3,4(28)
 4479 05dc 81230000 		lwz 9,0(3)
 4480 05e0 80090054 		lwz 0,84(9)
 4481 05e4 7C0903A6 		mtctr 0
 4482 05e8 4E800421 		bctrl
 4483 05ec 2F830000 		cmpwi 7,3,0
 4484 05f0 419E01AC 		beq- 7,.L241
 4485              	.L247:
 4486              		.loc 3 208 0
 4487 05f4 813D000C 		lwz 9,12(29)
 4488              		.loc 3 206 0
 4489 05f8 837D0008 		lwz 27,8(29)
 4490              	.LVL346:
 4491              		.loc 3 208 0
 4492 05fc 800900AC 		lwz 0,172(9)
 4493 0600 2F800000 		cmpwi 7,0,0
 4494 0604 409E00F0 		bne- 7,.L253
 4495              	.LVL347:
 4496              	.L248:
 4497              		.loc 3 211 0
 4498 0608 847C0004 		lwzu 3,4(28)
 4499 060c 7FA4EB78 		mr 4,29
 4500 0610 81230000 		lwz 9,0(3)
 4501 0614 800900BC 		lwz 0,188(9)
 4502 0618 7C0903A6 		mtctr 0
 4503 061c 4E800421 		bctrl
 4504              		.loc 3 214 0
 4505 0620 801E00B8 		lwz 0,184(30)
 4506              		.loc 3 212 0
 4507 0624 937D0008 		stw 27,8(29)
 4508              		.loc 3 214 0
 4509 0628 7F9F0000 		cmpw 7,31,0
 4510 062c 419E0020 		beq- 7,.L249
 4511 0630 807C0000 		lwz 3,0(28)
 4512 0634 81230000 		lwz 9,0(3)
 4513 0638 80090054 		lwz 0,84(9)
 4514 063c 7C0903A6 		mtctr 0
 4515 0640 4E800421 		bctrl
 4516 0644 2F830001 		cmpwi 7,3,1
 4517 0648 419E00FC 		beq- 7,.L245
 4518              	.L249:
 4519              	.LVL348:
 4520              	.LBE2907:
 4521              		.loc 3 193 0
 4522 064c 2F9F0008 		cmpwi 7,31,8
 4523 0650 3BFF0001 		addi 31,31,1
 4524              	.LVL349:
 4525 0654 409EFF78 		bne+ 7,.L246
 4526              	.LBE2906:
 4527              		.loc 3 221 0
 4528 0658 813E00C8 		lwz 9,200(30)
 4529              	.LVL350:
 4530 065c 807E015C 		lwz 3,348(30)
 4531              	.LBB2909:
 4532              	.LBB2910:
 4533              	.LBB2911:
 4534              		.loc 7 571 0
 4535 0660 80890008 		lwz 4,8(9)
 4536 0664 80090004 		lwz 0,4(9)
 4537 0668 7C802050 		subf 4,0,4
 4538              	.LBE2911:
 4539              	.LBE2910:
 4540              	.LBE2909:
 4541              		.loc 3 221 0
 4542 066c 7C841670 		srawi 4,4,2
 4543 0670 48000001 		bl _ZN9Scrollbar14SetEntrieCountEi
 4544              	.LVL351:
 4545              		.loc 3 222 0
 4546 0674 807E015C 		lwz 3,348(30)
 4547 0678 38800009 		li 4,9
 4548 067c 48000001 		bl _ZN9Scrollbar11SetPageSizeEi
 4549              		.loc 3 223 0
 4550 0680 807E015C 		lwz 3,348(30)
 4551 0684 38800000 		li 4,0
 4552 0688 48000001 		bl _ZN9Scrollbar10SetRowSizeEi
 4553              		.loc 3 224 0
 4554 068c 807E015C 		lwz 3,348(30)
 4555 0690 809E00B8 		lwz 4,184(30)
 4556 0694 48000001 		bl _ZN9Scrollbar15SetSelectedItemEi
 4557              		.loc 3 225 0
 4558 0698 807E015C 		lwz 3,348(30)
 4559 069c 809E00BC 		lwz 4,188(30)
 4560 06a0 48000001 		bl _ZN9Scrollbar16SetSelectedIndexEi
 4561              	.LVL352:
 4562              	.L235:
 4563              	.LBE2913:
 4564              	.LBE2915:
 4565              		.loc 3 226 0
 4566 06a4 8001002C 		lwz 0,44(1)
 4567 06a8 83610014 		lwz 27,20(1)
 4568 06ac 7C0803A6 		mtlr 0
 4569 06b0 83810018 		lwz 28,24(1)
 4570 06b4 83A1001C 		lwz 29,28(1)
 4571              	.LVL353:
 4572 06b8 83C10020 		lwz 30,32(1)
 4573              	.LVL354:
 4574 06bc 83E10024 		lwz 31,36(1)
 4575 06c0 38210028 		addi 1,1,40
 4576              		.cfi_remember_state
 4577              	.LCFI78:
 4578              		.cfi_def_cfa_offset 0
 4579              		.cfi_restore 31
 4580              		.cfi_restore 30
 4581              		.cfi_restore 29
 4582              		.cfi_restore 28
 4583              		.cfi_restore 27
 4584 06c4 4E800020 		blr
 4585              	.LVL355:
 4586              	.L252:
 4587              	.LCFI79:
 4588              		.cfi_restore_state
 4589              	.LBB2916:
 4590              	.LBB2914:
 4591              	.LBB2912:
 4592              	.LBB2908:
 4593              		.loc 3 195 0
 4594 06c8 807C0004 		lwz 3,4(28)
 4595 06cc 81230000 		lwz 9,0(3)
 4596 06d0 80090054 		lwz 0,84(9)
 4597 06d4 7C0903A6 		mtctr 0
 4598 06d8 4E800421 		bctrl
 4599 06dc 2F830001 		cmpwi 7,3,1
 4600 06e0 419E0088 		beq- 7,.L239
 4601              		.loc 3 200 0
 4602 06e4 801E00B8 		lwz 0,184(30)
 4603 06e8 7F9F0000 		cmpw 7,31,0
 4604 06ec 409EFF08 		bne+ 7,.L247
 4605 06f0 4BFFFEE8 		b .L238
 4606              	.LVL356:
 4607              	.L253:
 4608              		.loc 3 208 0
 4609 06f4 807C0004 		lwz 3,4(28)
 4610 06f8 C1A900B0 		lfs 13,176(9)
 4611 06fc C00900B4 		lfs 0,180(9)
 4612 0700 FDA0681E 		fctiwz 13,13
 4613 0704 81230000 		lwz 9,0(3)
 4614 0708 FC00001E 		fctiwz 0,0
 4615 070c 800900A4 		lwz 0,164(9)
 4616 0710 39210008 		addi 9,1,8
 4617 0714 7DA04FAE 		stfiwx 13,0,9
 4618 0718 3921000C 		addi 9,1,12
 4619 071c 7C004FAE 		stfiwx 0,0,9
 4620 0720 7C0903A6 		mtctr 0
 4621 0724 80810008 		lwz 4,8(1)
 4622 0728 80A1000C 		lwz 5,12(1)
 4623 072c 4E800421 		bctrl
 4624 0730 2F830000 		cmpwi 7,3,0
 4625 0734 40BEFED4 		bne- 7,.L248
 4626              		.loc 3 209 0
 4627 0738 3800FFFF 		li 0,-1
 4628 073c 901D0008 		stw 0,8(29)
 4629 0740 4BFFFEC8 		b .L248
 4630              	.L245:
 4631              		.loc 3 216 0
 4632 0744 93FE00B8 		stw 31,184(30)
 4633              		.loc 3 217 0
 4634 0748 38A00002 		li 5,2
 4635 074c 809E0024 		lwz 4,36(30)
 4636 0750 801E00C0 		lwz 0,192(30)
 4637 0754 807C006C 		lwz 3,108(28)
 4638 0758 7C802050 		subf 4,0,4
 4639 075c 3884FFC4 		addi 4,4,-60
 4640 0760 48000001 		bl _ZN7GuiText11SetMaxWidthEii
 4641 0764 4BFFFEE8 		b .L249
 4642              	.LVL357:
 4643              	.L239:
 4644              		.loc 3 197 0
 4645 0768 807C0004 		lwz 3,4(28)
 4646 076c 81230000 		lwz 9,0(3)
 4647 0770 8009005C 		lwz 0,92(9)
 4648 0774 7C0903A6 		mtctr 0
 4649 0778 4E800421 		bctrl
 4650              		.loc 3 198 0
 4651 077c 809E0024 		lwz 4,36(30)
 4652 0780 801E00C0 		lwz 0,192(30)
 4653 0784 38A00001 		li 5,1
 4654 0788 807C0070 		lwz 3,112(28)
 4655 078c 7C802050 		subf 4,0,4
 4656 0790 3884FFCE 		addi 4,4,-50
 4657 0794 48000001 		bl _ZN7GuiText11SetMaxWidthEii
 4658 0798 4BFFFE5C 		b .L247
 4659              	.L241:
 4660              		.loc 3 202 0
 4661 079c 813E00B8 		lwz 9,184(30)
 4662 07a0 38800001 		li 4,1
 4663 07a4 80BD0008 		lwz 5,8(29)
 4664 07a8 39290030 		addi 9,9,48
 4665 07ac 5529103A 		slwi 9,9,2
 4666 07b0 7D3E4A14 		add 9,30,9
 4667 07b4 8069000C 		lwz 3,12(9)
 4668 07b8 81230000 		lwz 9,0(3)
 4669 07bc 80090050 		lwz 0,80(9)
 4670 07c0 7C0903A6 		mtctr 0
 4671 07c4 4E800421 		bctrl
 4672              		.loc 3 203 0
 4673 07c8 813E00B8 		lwz 9,184(30)
 4674 07cc 809E0024 		lwz 4,36(30)
 4675 07d0 38A00002 		li 5,2
 4676 07d4 3929004C 		addi 9,9,76
 4677 07d8 801E00C0 		lwz 0,192(30)
 4678 07dc 5529103A 		slwi 9,9,2
 4679 07e0 7D3E4A14 		add 9,30,9
 4680 07e4 7C802050 		subf 4,0,4
 4681 07e8 80690008 		lwz 3,8(9)
 4682 07ec 3884FFC4 		addi 4,4,-60
 4683 07f0 48000001 		bl _ZN7GuiText11SetMaxWidthEii
 4684 07f4 4BFFFE00 		b .L247
 4685              	.LVL358:
 4686              	.L251:
 4687              	.LBE2908:
 4688              	.LBE2912:
 4689              		.loc 3 191 0
 4690 07f8 809E00B8 		lwz 4,184(30)
 4691 07fc 7FC3F378 		mr 3,30
 4692 0800 80BE00BC 		lwz 5,188(30)
 4693 0804 48000001 		bl _ZN16GuiOptionBrowser12OnListChangeEii
 4694              	.LVL359:
 4695 0808 4BFFFDBC 		b .L237
 4696              	.LBE2914:
 4697              	.LBE2916:
 4698              		.cfi_endproc
 4699              	.LFE1577:
 4700              		.size	_ZN16GuiOptionBrowser6UpdateEP10GuiTrigger, .-_ZN16GuiOptionBrowser6UpdateEP10GuiTrigger
 4701              		.align 2
 4702              		.globl _ZN16GuiOptionBrowser4DrawEv
 4703              		.type	_ZN16GuiOptionBrowser4DrawEv, @function
 4704              	_ZN16GuiOptionBrowser4DrawEv:
 4705              	.LFB1575:
 4706              		.loc 3 128 0
 4707              		.cfi_startproc
 4708              	.LVL360:
 4709 080c 7C0802A6 		mflr 0
 4710 0810 9421FFF0 		stwu 1,-16(1)
 4711              	.LCFI80:
 4712              		.cfi_def_cfa_offset 16
 4713              		.cfi_register 65, 0
 4714 0814 93E1000C 		stw 31,12(1)
 4715 0818 7C7F1B78 		mr 31,3
 4716              		.cfi_offset 31, -4
 4717 081c 90010014 		stw 0,20(1)
 4718              	.LBB2926:
 4719              		.loc 3 129 0
 4720 0820 81230000 		lwz 9,0(3)
 4721 0824 80090034 		lwz 0,52(9)
 4722              		.cfi_offset 65, 4
 4723 0828 7C0903A6 		mtctr 0
 4724 082c 4E800421 		bctrl
 4725              	.LVL361:
 4726 0830 2F830000 		cmpwi 7,3,0
 4727 0834 409E0018 		bne- 7,.L257
 4728              	.LBE2926:
 4729              		.loc 3 142 0
 4730 0838 80010014 		lwz 0,20(1)
 4731 083c 83E1000C 		lwz 31,12(1)
 4732              	.LVL362:
 4733 0840 7C0803A6 		mtlr 0
 4734 0844 38210010 		addi 1,1,16
 4735              		.cfi_remember_state
 4736              	.LCFI81:
 4737              		.cfi_def_cfa_offset 0
 4738              		.cfi_restore 31
 4739 0848 4E800020 		blr
 4740              	.LVL363:
 4741              	.L257:
 4742              	.LCFI82:
 4743              		.cfi_restore_state
 4744              	.LBB2927:
 4745              	.LBB2928:
 4746              		.loc 3 132 0
 4747 084c 807F0160 		lwz 3,352(31)
 4748 0850 81230000 		lwz 9,0(3)
 4749 0854 800900C0 		lwz 0,192(9)
 4750 0858 7C0903A6 		mtctr 0
 4751 085c 4E800421 		bctrl
 4752              	.LVL364:
 4753              	.LBB2929:
 4754              		.loc 3 134 0
 4755 0860 813F00C8 		lwz 9,200(31)
 4756              	.LVL365:
 4757 0864 817F00BC 		lwz 11,188(31)
 4758              	.LBB2930:
 4759              	.LBB2931:
 4760              	.LBB2932:
 4761              		.loc 7 571 0
 4762 0868 81490008 		lwz 10,8(9)
 4763 086c 80090004 		lwz 0,4(9)
 4764 0870 7C005050 		subf 0,0,10
 4765 0874 7C001670 		srawi 0,0,2
 4766              	.LBE2932:
 4767              	.LBE2931:
 4768              	.LBE2930:
 4769              		.loc 3 134 0
 4770 0878 7F8B0000 		cmpw 7,11,0
 4771 087c 409C01D8 		bge- 7,.L256
 4772              		.loc 3 136 0
 4773 0880 807F00CC 		lwz 3,204(31)
 4774 0884 81230000 		lwz 9,0(3)
 4775 0888 800900C0 		lwz 0,192(9)
 4776 088c 7C0903A6 		mtctr 0
 4777 0890 4E800421 		bctrl
 4778              	.LVL366:
 4779              		.loc 3 134 0
 4780 0894 813F00C8 		lwz 9,200(31)
 4781              	.LVL367:
 4782 0898 815F00BC 		lwz 10,188(31)
 4783              	.LBB2965:
 4784              	.LBB2949:
 4785              	.LBB2933:
 4786              		.loc 7 571 0
 4787 089c 81690008 		lwz 11,8(9)
 4788 08a0 80090004 		lwz 0,4(9)
 4789              	.LBE2933:
 4790              	.LBE2949:
 4791              	.LBE2965:
 4792              		.loc 3 134 0
 4793 08a4 392A0001 		addi 9,10,1
 4794              	.LBB2966:
 4795              	.LBB2950:
 4796              	.LBB2934:
 4797              		.loc 7 571 0
 4798 08a8 7C005850 		subf 0,0,11
 4799 08ac 7C001670 		srawi 0,0,2
 4800              	.LBE2934:
 4801              	.LBE2950:
 4802              	.LBE2966:
 4803              		.loc 3 134 0
 4804 08b0 7F890000 		cmpw 7,9,0
 4805 08b4 409C01A0 		bge- 7,.L256
 4806              		.loc 3 136 0
 4807 08b8 807F00D0 		lwz 3,208(31)
 4808 08bc 81230000 		lwz 9,0(3)
 4809 08c0 800900C0 		lwz 0,192(9)
 4810 08c4 7C0903A6 		mtctr 0
 4811 08c8 4E800421 		bctrl
 4812              	.LVL368:
 4813              		.loc 3 134 0
 4814 08cc 813F00C8 		lwz 9,200(31)
 4815              	.LVL369:
 4816 08d0 815F00BC 		lwz 10,188(31)
 4817              	.LBB2967:
 4818              	.LBB2951:
 4819              	.LBB2935:
 4820              		.loc 7 571 0
 4821 08d4 81690008 		lwz 11,8(9)
 4822 08d8 80090004 		lwz 0,4(9)
 4823              	.LBE2935:
 4824              	.LBE2951:
 4825              	.LBE2967:
 4826              		.loc 3 134 0
 4827 08dc 392A0002 		addi 9,10,2
 4828              	.LBB2968:
 4829              	.LBB2952:
 4830              	.LBB2936:
 4831              		.loc 7 571 0
 4832 08e0 7C005850 		subf 0,0,11
 4833 08e4 7C001670 		srawi 0,0,2
 4834              	.LBE2936:
 4835              	.LBE2952:
 4836              	.LBE2968:
 4837              		.loc 3 134 0
 4838 08e8 7F890000 		cmpw 7,9,0
 4839 08ec 409C0168 		bge- 7,.L256
 4840              		.loc 3 136 0
 4841 08f0 807F00D4 		lwz 3,212(31)
 4842 08f4 81230000 		lwz 9,0(3)
 4843 08f8 800900C0 		lwz 0,192(9)
 4844 08fc 7C0903A6 		mtctr 0
 4845 0900 4E800421 		bctrl
 4846              	.LVL370:
 4847              		.loc 3 134 0
 4848 0904 813F00C8 		lwz 9,200(31)
 4849              	.LVL371:
 4850 0908 815F00BC 		lwz 10,188(31)
 4851              	.LBB2969:
 4852              	.LBB2953:
 4853              	.LBB2937:
 4854              		.loc 7 571 0
 4855 090c 81690008 		lwz 11,8(9)
 4856 0910 80090004 		lwz 0,4(9)
 4857              	.LBE2937:
 4858              	.LBE2953:
 4859              	.LBE2969:
 4860              		.loc 3 134 0
 4861 0914 392A0003 		addi 9,10,3
 4862              	.LBB2970:
 4863              	.LBB2954:
 4864              	.LBB2938:
 4865              		.loc 7 571 0
 4866 0918 7C005850 		subf 0,0,11
 4867 091c 7C001670 		srawi 0,0,2
 4868              	.LBE2938:
 4869              	.LBE2954:
 4870              	.LBE2970:
 4871              		.loc 3 134 0
 4872 0920 7F890000 		cmpw 7,9,0
 4873 0924 409C0130 		bge- 7,.L256
 4874              		.loc 3 136 0
 4875 0928 807F00D8 		lwz 3,216(31)
 4876 092c 81230000 		lwz 9,0(3)
 4877 0930 800900C0 		lwz 0,192(9)
 4878 0934 7C0903A6 		mtctr 0
 4879 0938 4E800421 		bctrl
 4880              	.LVL372:
 4881              		.loc 3 134 0
 4882 093c 813F00C8 		lwz 9,200(31)
 4883              	.LVL373:
 4884 0940 815F00BC 		lwz 10,188(31)
 4885              	.LBB2971:
 4886              	.LBB2955:
 4887              	.LBB2939:
 4888              		.loc 7 571 0
 4889 0944 81690008 		lwz 11,8(9)
 4890 0948 80090004 		lwz 0,4(9)
 4891              	.LBE2939:
 4892              	.LBE2955:
 4893              	.LBE2971:
 4894              		.loc 3 134 0
 4895 094c 392A0004 		addi 9,10,4
 4896              	.LBB2972:
 4897              	.LBB2956:
 4898              	.LBB2940:
 4899              		.loc 7 571 0
 4900 0950 7C005850 		subf 0,0,11
 4901 0954 7C001670 		srawi 0,0,2
 4902              	.LBE2940:
 4903              	.LBE2956:
 4904              	.LBE2972:
 4905              		.loc 3 134 0
 4906 0958 7F890000 		cmpw 7,9,0
 4907 095c 409C00F8 		bge- 7,.L256
 4908              		.loc 3 136 0
 4909 0960 807F00DC 		lwz 3,220(31)
 4910 0964 81230000 		lwz 9,0(3)
 4911 0968 800900C0 		lwz 0,192(9)
 4912 096c 7C0903A6 		mtctr 0
 4913 0970 4E800421 		bctrl
 4914              	.LVL374:
 4915              		.loc 3 134 0
 4916 0974 813F00C8 		lwz 9,200(31)
 4917              	.LVL375:
 4918 0978 815F00BC 		lwz 10,188(31)
 4919              	.LBB2973:
 4920              	.LBB2957:
 4921              	.LBB2941:
 4922              		.loc 7 571 0
 4923 097c 81690008 		lwz 11,8(9)
 4924 0980 80090004 		lwz 0,4(9)
 4925              	.LBE2941:
 4926              	.LBE2957:
 4927              	.LBE2973:
 4928              		.loc 3 134 0
 4929 0984 392A0005 		addi 9,10,5
 4930              	.LBB2974:
 4931              	.LBB2958:
 4932              	.LBB2942:
 4933              		.loc 7 571 0
 4934 0988 7C005850 		subf 0,0,11
 4935 098c 7C001670 		srawi 0,0,2
 4936              	.LBE2942:
 4937              	.LBE2958:
 4938              	.LBE2974:
 4939              		.loc 3 134 0
 4940 0990 7F890000 		cmpw 7,9,0
 4941 0994 409C00C0 		bge- 7,.L256
 4942              		.loc 3 136 0
 4943 0998 807F00E0 		lwz 3,224(31)
 4944 099c 81230000 		lwz 9,0(3)
 4945 09a0 800900C0 		lwz 0,192(9)
 4946 09a4 7C0903A6 		mtctr 0
 4947 09a8 4E800421 		bctrl
 4948              	.LVL376:
 4949              		.loc 3 134 0
 4950 09ac 813F00C8 		lwz 9,200(31)
 4951              	.LVL377:
 4952 09b0 815F00BC 		lwz 10,188(31)
 4953              	.LBB2975:
 4954              	.LBB2959:
 4955              	.LBB2943:
 4956              		.loc 7 571 0
 4957 09b4 81690008 		lwz 11,8(9)
 4958 09b8 80090004 		lwz 0,4(9)
 4959              	.LBE2943:
 4960              	.LBE2959:
 4961              	.LBE2975:
 4962              		.loc 3 134 0
 4963 09bc 392A0006 		addi 9,10,6
 4964              	.LBB2976:
 4965              	.LBB2960:
 4966              	.LBB2944:
 4967              		.loc 7 571 0
 4968 09c0 7C005850 		subf 0,0,11
 4969 09c4 7C001670 		srawi 0,0,2
 4970              	.LBE2944:
 4971              	.LBE2960:
 4972              	.LBE2976:
 4973              		.loc 3 134 0
 4974 09c8 7F890000 		cmpw 7,9,0
 4975 09cc 409C0088 		bge- 7,.L256
 4976              		.loc 3 136 0
 4977 09d0 807F00E4 		lwz 3,228(31)
 4978 09d4 81230000 		lwz 9,0(3)
 4979 09d8 800900C0 		lwz 0,192(9)
 4980 09dc 7C0903A6 		mtctr 0
 4981 09e0 4E800421 		bctrl
 4982              	.LVL378:
 4983              		.loc 3 134 0
 4984 09e4 813F00C8 		lwz 9,200(31)
 4985              	.LVL379:
 4986 09e8 815F00BC 		lwz 10,188(31)
 4987              	.LBB2977:
 4988              	.LBB2961:
 4989              	.LBB2945:
 4990              		.loc 7 571 0
 4991 09ec 81690008 		lwz 11,8(9)
 4992 09f0 80090004 		lwz 0,4(9)
 4993              	.LBE2945:
 4994              	.LBE2961:
 4995              	.LBE2977:
 4996              		.loc 3 134 0
 4997 09f4 392A0007 		addi 9,10,7
 4998              	.LBB2978:
 4999              	.LBB2962:
 5000              	.LBB2946:
 5001              		.loc 7 571 0
 5002 09f8 7C005850 		subf 0,0,11
 5003 09fc 7C001670 		srawi 0,0,2
 5004              	.LBE2946:
 5005              	.LBE2962:
 5006              	.LBE2978:
 5007              		.loc 3 134 0
 5008 0a00 7F890000 		cmpw 7,9,0
 5009 0a04 409C0050 		bge- 7,.L256
 5010              		.loc 3 136 0
 5011 0a08 807F00E8 		lwz 3,232(31)
 5012 0a0c 81230000 		lwz 9,0(3)
 5013 0a10 800900C0 		lwz 0,192(9)
 5014 0a14 7C0903A6 		mtctr 0
 5015 0a18 4E800421 		bctrl
 5016              	.LVL380:
 5017              		.loc 3 134 0
 5018 0a1c 813F00C8 		lwz 9,200(31)
 5019              	.LVL381:
 5020 0a20 815F00BC 		lwz 10,188(31)
 5021              	.LBB2979:
 5022              	.LBB2963:
 5023              	.LBB2947:
 5024              		.loc 7 571 0
 5025 0a24 81690008 		lwz 11,8(9)
 5026 0a28 80090004 		lwz 0,4(9)
 5027              	.LBE2947:
 5028              	.LBE2963:
 5029              	.LBE2979:
 5030              		.loc 3 134 0
 5031 0a2c 392A0008 		addi 9,10,8
 5032              	.LBB2980:
 5033              	.LBB2964:
 5034              	.LBB2948:
 5035              		.loc 7 571 0
 5036 0a30 7C005850 		subf 0,0,11
 5037 0a34 7C001670 		srawi 0,0,2
 5038              	.LBE2948:
 5039              	.LBE2964:
 5040              	.LBE2980:
 5041              		.loc 3 134 0
 5042 0a38 7F890000 		cmpw 7,9,0
 5043 0a3c 409C0018 		bge- 7,.L256
 5044              		.loc 3 136 0
 5045 0a40 807F00EC 		lwz 3,236(31)
 5046 0a44 81230000 		lwz 9,0(3)
 5047 0a48 800900C0 		lwz 0,192(9)
 5048 0a4c 7C0903A6 		mtctr 0
 5049 0a50 4E800421 		bctrl
 5050              	.LVL382:
 5051              	.L256:
 5052              	.LBE2929:
 5053              		.loc 3 139 0
 5054 0a54 807F015C 		lwz 3,348(31)
 5055 0a58 81230000 		lwz 9,0(3)
 5056 0a5c 800900C0 		lwz 0,192(9)
 5057 0a60 7C0903A6 		mtctr 0
 5058 0a64 4E800421 		bctrl
 5059              		.loc 3 141 0
 5060 0a68 813F0000 		lwz 9,0(31)
 5061 0a6c 7FE3FB78 		mr 3,31
 5062 0a70 800900C4 		lwz 0,196(9)
 5063 0a74 7C0903A6 		mtctr 0
 5064 0a78 4E800421 		bctrl
 5065              	.LBE2928:
 5066              	.LBE2927:
 5067              		.loc 3 142 0
 5068 0a7c 80010014 		lwz 0,20(1)
 5069 0a80 83E1000C 		lwz 31,12(1)
 5070              	.LVL383:
 5071 0a84 7C0803A6 		mtlr 0
 5072 0a88 38210010 		addi 1,1,16
 5073              		.cfi_restore 31
 5074              	.LCFI83:
 5075              		.cfi_def_cfa_offset 0
 5076 0a8c 4E800020 		blr
 5077              		.cfi_endproc
 5078              	.LFE1575:
 5079              		.size	_ZN16GuiOptionBrowser4DrawEv, .-_ZN16GuiOptionBrowser4DrawEv
 5080              		.align 2
 5081              		.globl _ZN16GuiOptionBrowser15SetCol2PositionEi
 5082              		.type	_ZN16GuiOptionBrowser15SetCol2PositionEi, @function
 5083              	_ZN16GuiOptionBrowser15SetCol2PositionEi:
 5084              	.LFB1573:
 5085              		.loc 3 107 0
 5086              		.cfi_startproc
 5087              	.LVL384:
 5088 0a90 7C0802A6 		mflr 0
 5089 0a94 9421FFF0 		stwu 1,-16(1)
 5090              	.LCFI84:
 5091              		.cfi_def_cfa_offset 16
 5092              		.cfi_register 65, 0
 5093              	.LBB2981:
 5094              		.loc 3 109 0
 5095 0a98 38A00000 		li 5,0
 5096              	.LBE2981:
 5097              		.loc 3 107 0
 5098 0a9c 93E1000C 		stw 31,12(1)
 5099 0aa0 7C7F1B78 		mr 31,3
 5100              		.cfi_offset 31, -4
 5101 0aa4 90010014 		stw 0,20(1)
 5102 0aa8 93C10008 		stw 30,8(1)
 5103              		.loc 3 107 0
 5104 0aac 7C9E2378 		mr 30,4
 5105              		.cfi_offset 30, -8
 5106              		.cfi_offset 65, 4
 5107              	.LBB2982:
 5108              		.loc 3 109 0
 5109 0ab0 80630138 		lwz 3,312(3)
 5110              	.LVL385:
 5111 0ab4 81230000 		lwz 9,0(3)
 5112 0ab8 800900A8 		lwz 0,168(9)
 5113 0abc 7C0903A6 		mtctr 0
 5114 0ac0 4E800421 		bctrl
 5115              	.LVL386:
 5116 0ac4 807F013C 		lwz 3,316(31)
 5117 0ac8 7FC4F378 		mr 4,30
 5118 0acc 38A00000 		li 5,0
 5119 0ad0 81230000 		lwz 9,0(3)
 5120 0ad4 800900A8 		lwz 0,168(9)
 5121 0ad8 7C0903A6 		mtctr 0
 5122 0adc 4E800421 		bctrl
 5123              	.LVL387:
 5124 0ae0 807F0140 		lwz 3,320(31)
 5125 0ae4 7FC4F378 		mr 4,30
 5126 0ae8 38A00000 		li 5,0
 5127 0aec 81230000 		lwz 9,0(3)
 5128 0af0 800900A8 		lwz 0,168(9)
 5129 0af4 7C0903A6 		mtctr 0
 5130 0af8 4E800421 		bctrl
 5131              	.LVL388:
 5132 0afc 807F0144 		lwz 3,324(31)
 5133 0b00 7FC4F378 		mr 4,30
 5134 0b04 38A00000 		li 5,0
 5135 0b08 81230000 		lwz 9,0(3)
 5136 0b0c 800900A8 		lwz 0,168(9)
 5137 0b10 7C0903A6 		mtctr 0
 5138 0b14 4E800421 		bctrl
 5139              	.LVL389:
 5140 0b18 807F0148 		lwz 3,328(31)
 5141 0b1c 7FC4F378 		mr 4,30
 5142 0b20 38A00000 		li 5,0
 5143 0b24 81230000 		lwz 9,0(3)
 5144 0b28 800900A8 		lwz 0,168(9)
 5145 0b2c 7C0903A6 		mtctr 0
 5146 0b30 4E800421 		bctrl
 5147              	.LVL390:
 5148 0b34 807F014C 		lwz 3,332(31)
 5149 0b38 7FC4F378 		mr 4,30
 5150 0b3c 38A00000 		li 5,0
 5151 0b40 81230000 		lwz 9,0(3)
 5152 0b44 800900A8 		lwz 0,168(9)
 5153 0b48 7C0903A6 		mtctr 0
 5154 0b4c 4E800421 		bctrl
 5155              	.LVL391:
 5156 0b50 807F0150 		lwz 3,336(31)
 5157 0b54 7FC4F378 		mr 4,30
 5158 0b58 38A00000 		li 5,0
 5159 0b5c 81230000 		lwz 9,0(3)
 5160 0b60 800900A8 		lwz 0,168(9)
 5161 0b64 7C0903A6 		mtctr 0
 5162 0b68 4E800421 		bctrl
 5163              	.LVL392:
 5164 0b6c 807F0154 		lwz 3,340(31)
 5165 0b70 7FC4F378 		mr 4,30
 5166 0b74 38A00000 		li 5,0
 5167 0b78 81230000 		lwz 9,0(3)
 5168 0b7c 800900A8 		lwz 0,168(9)
 5169 0b80 7C0903A6 		mtctr 0
 5170 0b84 4E800421 		bctrl
 5171              	.LVL393:
 5172 0b88 807F0158 		lwz 3,344(31)
 5173 0b8c 7FC4F378 		mr 4,30
 5174 0b90 38A00000 		li 5,0
 5175 0b94 81230000 		lwz 9,0(3)
 5176 0b98 800900A8 		lwz 0,168(9)
 5177 0b9c 7C0903A6 		mtctr 0
 5178 0ba0 4E800421 		bctrl
 5179              	.LVL394:
 5180              	.LBE2982:
 5181              		.loc 3 110 0
 5182 0ba4 80010014 		lwz 0,20(1)
 5183 0ba8 83C10008 		lwz 30,8(1)
 5184              	.LVL395:
 5185 0bac 7C0803A6 		mtlr 0
 5186 0bb0 83E1000C 		lwz 31,12(1)
 5187              	.LVL396:
 5188 0bb4 38210010 		addi 1,1,16
 5189              	.LCFI85:
 5190              		.cfi_def_cfa_offset 0
 5191              		.cfi_restore 31
 5192              		.cfi_restore 30
 5193 0bb8 4E800020 		blr
 5194              		.cfi_endproc
 5195              	.LFE1573:
 5196              		.size	_ZN16GuiOptionBrowser15SetCol2PositionEi, .-_ZN16GuiOptionBrowser15SetCol2PositionEi
 5197              		.section	.text._ZNSt8_Rb_treeIPN7sigslot12_signal_baseINS0_15single_threadedEEES4_St9_IdentityIS4_
 5198              		.align 2
 5199              		.weak	_ZNSt8_Rb_treeIPN7sigslot12_signal_baseINS0_15single_threadedEEES4_St9_IdentityIS4_ESt4lessI
 5200              		.type	_ZNSt8_Rb_treeIPN7sigslot12_signal_baseINS0_15single_threadedEEES4_St9_IdentityIS4_ESt4lessI
 5201              	_ZNSt8_Rb_treeIPN7sigslot12_signal_baseINS0_15single_threadedEEES4_St9_IdentityIS4_ESt4lessIS4_ESaI
 5202              	.LFB1736:
 5203              		.file 9 "d:\\devkitpro\\devkitppc\\bin\\../lib/gcc/powerpc-eabi/4.6.3/../../../../powerpc-eabi/inc
 5204              		.loc 9 1068 0
 5205              		.cfi_startproc
 5206              	.LVL397:
 5207 0000 9421FFC8 		stwu 1,-56(1)
 5208              	.LCFI86:
 5209              		.cfi_def_cfa_offset 56
 5210 0004 7C0802A6 		mflr 0
 5211 0008 92C10010 		stw 22,16(1)
 5212              	.LBB3099:
 5213              		.loc 9 1072 0
 5214 000c 7C962379 		mr. 22,4
 5215              		.cfi_offset 22, -40
 5216              		.cfi_register 65, 0
 5217              	.LBE3099:
 5218              		.loc 9 1068 0
 5219 0010 93C10030 		stw 30,48(1)
 5220 0014 7C7E1B78 		mr 30,3
 5221              		.cfi_offset 30, -8
 5222 0018 9001003C 		stw 0,60(1)
 5223 001c 92A1000C 		stw 21,12(1)
 5224 0020 92E10014 		stw 23,20(1)
 5225 0024 93010018 		stw 24,24(1)
 5226 0028 9321001C 		stw 25,28(1)
 5227 002c 93410020 		stw 26,32(1)
 5228 0030 93610024 		stw 27,36(1)
 5229 0034 93810028 		stw 28,40(1)
 5230 0038 93A1002C 		stw 29,44(1)
 5231 003c 93E10034 		stw 31,52(1)
 5232              	.LBB3184:
 5233              		.loc 9 1072 0
 5234 0040 41820168 		beq- 0,.L259
 5235              		.cfi_offset 31, -4
 5236              		.cfi_offset 29, -12
 5237              		.cfi_offset 28, -16
 5238              		.cfi_offset 27, -20
 5239              		.cfi_offset 26, -24
 5240              		.cfi_offset 25, -28
 5241              		.cfi_offset 24, -32
 5242              		.cfi_offset 23, -36
 5243              		.cfi_offset 21, -44
 5244              		.cfi_offset 65, 4
 5245              	.LVL398:
 5246              	.L305:
 5247              		.loc 3 226 0
 5248 0044 8376000C 		lwz 27,12(22)
 5249              	.LVL399:
 5250              	.LBB3100:
 5251              	.LBB3101:
 5252              	.LBB3102:
 5253              		.loc 9 1072 0
 5254 0048 2F9B0000 		cmpwi 7,27,0
 5255 004c 419E0140 		beq- 7,.L261
 5256              	.LVL400:
 5257              	.L306:
 5258              	.LBE3102:
 5259              		.loc 3 226 0
 5260 0050 835B000C 		lwz 26,12(27)
 5261              	.LVL401:
 5262              	.LBB3178:
 5263              	.LBB3103:
 5264              	.LBB3104:
 5265              	.LBB3105:
 5266              		.loc 9 1072 0
 5267 0054 2F9A0000 		cmpwi 7,26,0
 5268 0058 419E0118 		beq- 7,.L262
 5269              	.LVL402:
 5270              	.L307:
 5271              	.LBE3105:
 5272              		.loc 3 226 0
 5273 005c 833A000C 		lwz 25,12(26)
 5274              	.LVL403:
 5275              	.LBB3171:
 5276              	.LBB3106:
 5277              	.LBB3107:
 5278              	.LBB3108:
 5279              		.loc 9 1072 0
 5280 0060 2F990000 		cmpwi 7,25,0
 5281 0064 419E00F0 		beq- 7,.L263
 5282              	.LVL404:
 5283              	.L308:
 5284              	.LBE3108:
 5285              		.loc 3 226 0
 5286 0068 8319000C 		lwz 24,12(25)
 5287              	.LVL405:
 5288              	.LBB3164:
 5289              	.LBB3109:
 5290              	.LBB3110:
 5291              	.LBB3111:
 5292              		.loc 9 1072 0
 5293 006c 2F980000 		cmpwi 7,24,0
 5294 0070 419E00C8 		beq- 7,.L264
 5295              	.LVL406:
 5296              	.L309:
 5297              	.LBE3111:
 5298              		.loc 3 226 0
 5299 0074 82F8000C 		lwz 23,12(24)
 5300              	.LVL407:
 5301              	.LBB3157:
 5302              	.LBB3112:
 5303              	.LBB3113:
 5304              	.LBB3114:
 5305              		.loc 9 1072 0
 5306 0078 2F970000 		cmpwi 7,23,0
 5307 007c 419E00A0 		beq- 7,.L265
 5308              	.LVL408:
 5309              	.L310:
 5310              	.LBE3114:
 5311              		.loc 3 226 0
 5312 0080 8397000C 		lwz 28,12(23)
 5313              	.LVL409:
 5314              	.LBB3150:
 5315              	.LBB3115:
 5316              	.LBB3116:
 5317              	.LBB3117:
 5318              		.loc 9 1072 0
 5319 0084 2F9C0000 		cmpwi 7,28,0
 5320 0088 419E0078 		beq- 7,.L266
 5321              	.LVL410:
 5322              	.L311:
 5323              	.LBE3117:
 5324              		.loc 3 226 0
 5325 008c 83BC000C 		lwz 29,12(28)
 5326              	.LVL411:
 5327              	.LBB3143:
 5328              	.LBB3118:
 5329              	.LBB3119:
 5330              	.LBB3120:
 5331              		.loc 9 1072 0
 5332 0090 2F9D0000 		cmpwi 7,29,0
 5333 0094 419E0050 		beq- 7,.L267
 5334              	.LVL412:
 5335              	.L312:
 5336              	.LBE3120:
 5337              		.loc 3 226 0
 5338 0098 83FD000C 		lwz 31,12(29)
 5339              	.LVL413:
 5340              	.LBB3136:
 5341              	.LBB3121:
 5342              	.LBB3122:
 5343              	.LBB3123:
 5344              		.loc 9 1072 0
 5345 009c 2F9F0000 		cmpwi 7,31,0
 5346 00a0 419E0028 		beq- 7,.L268
 5347              	.LVL414:
 5348              	.L313:
 5349              	.LBB3124:
 5350              		.loc 9 1074 0
 5351 00a4 809F000C 		lwz 4,12(31)
 5352 00a8 7FC3F378 		mr 3,30
 5353 00ac 48000001 		bl _ZNSt8_Rb_treeIPN7sigslot12_signal_baseINS0_15single_threadedEEES4_St9_IdentityIS4_ESt4lessIS4_
 5354              	.LBE3124:
 5355              	.LBE3123:
 5356              		.loc 3 226 0
 5357 00b0 82BF0008 		lwz 21,8(31)
 5358              	.LVL415:
 5359              	.LBB3130:
 5360              	.LBB3129:
 5361              	.LBB3125:
 5362              	.LBB3126:
 5363              	.LBB3127:
 5364              	.LBB3128:
 5365              		.loc 6 98 0
 5366 00b4 7FE3FB78 		mr 3,31
 5367 00b8 48000001 		bl _ZdlPv
 5368              	.LVL416:
 5369              	.LBE3128:
 5370              	.LBE3127:
 5371              	.LBE3126:
 5372              	.LBE3125:
 5373              	.LBE3129:
 5374              		.loc 9 1072 0
 5375 00bc 2F950000 		cmpwi 7,21,0
 5376              		.loc 9 1077 0
 5377 00c0 7EBFAB78 		mr 31,21
 5378              	.LVL417:
 5379              		.loc 9 1072 0
 5380 00c4 409EFFE0 		bne+ 7,.L313
 5381              	.LVL418:
 5382              	.L268:
 5383              	.LBE3130:
 5384              	.LBE3122:
 5385              	.LBE3121:
 5386              	.LBE3136:
 5387              		.loc 3 226 0
 5388 00c8 83FD0008 		lwz 31,8(29)
 5389              	.LVL419:
 5390              	.LBB3137:
 5391              	.LBB3135:
 5392              	.LBB3131:
 5393              	.LBB3132:
 5394              	.LBB3133:
 5395              	.LBB3134:
 5396              		.loc 6 98 0
 5397 00cc 7FA3EB78 		mr 3,29
 5398 00d0 48000001 		bl _ZdlPv
 5399              	.LVL420:
 5400              	.LBE3134:
 5401              	.LBE3133:
 5402              	.LBE3132:
 5403              	.LBE3131:
 5404              	.LBE3135:
 5405              		.loc 9 1072 0
 5406 00d4 2F9F0000 		cmpwi 7,31,0
 5407 00d8 419E000C 		beq- 7,.L267
 5408              		.loc 9 1077 0
 5409 00dc 7FFDFB78 		mr 29,31
 5410              	.LVL421:
 5411 00e0 4BFFFFB8 		b .L312
 5412              	.LVL422:
 5413              	.L267:
 5414              	.LBE3137:
 5415              	.LBE3119:
 5416              	.LBE3118:
 5417              	.LBE3143:
 5418              		.loc 3 226 0
 5419 00e4 83FC0008 		lwz 31,8(28)
 5420              	.LVL423:
 5421              	.LBB3144:
 5422              	.LBB3142:
 5423              	.LBB3138:
 5424              	.LBB3139:
 5425              	.LBB3140:
 5426              	.LBB3141:
 5427              		.loc 6 98 0
 5428 00e8 7F83E378 		mr 3,28
 5429 00ec 48000001 		bl _ZdlPv
 5430              	.LVL424:
 5431              	.LBE3141:
 5432              	.LBE3140:
 5433              	.LBE3139:
 5434              	.LBE3138:
 5435              	.LBE3142:
 5436              		.loc 9 1072 0
 5437 00f0 2F9F0000 		cmpwi 7,31,0
 5438 00f4 419E000C 		beq- 7,.L266
 5439              		.loc 9 1077 0
 5440 00f8 7FFCFB78 		mr 28,31
 5441              	.LVL425:
 5442 00fc 4BFFFF90 		b .L311
 5443              	.LVL426:
 5444              	.L266:
 5445              	.LBE3144:
 5446              	.LBE3116:
 5447              	.LBE3115:
 5448              	.LBE3150:
 5449              		.loc 3 226 0
 5450 0100 83F70008 		lwz 31,8(23)
 5451              	.LVL427:
 5452              	.LBB3151:
 5453              	.LBB3149:
 5454              	.LBB3145:
 5455              	.LBB3146:
 5456              	.LBB3147:
 5457              	.LBB3148:
 5458              		.loc 6 98 0
 5459 0104 7EE3BB78 		mr 3,23
 5460 0108 48000001 		bl _ZdlPv
 5461              	.LVL428:
 5462              	.LBE3148:
 5463              	.LBE3147:
 5464              	.LBE3146:
 5465              	.LBE3145:
 5466              	.LBE3149:
 5467              		.loc 9 1072 0
 5468 010c 2F9F0000 		cmpwi 7,31,0
 5469 0110 419E000C 		beq- 7,.L265
 5470              		.loc 9 1077 0
 5471 0114 7FF7FB78 		mr 23,31
 5472              	.LVL429:
 5473 0118 4BFFFF68 		b .L310
 5474              	.LVL430:
 5475              	.L265:
 5476              	.LBE3151:
 5477              	.LBE3113:
 5478              	.LBE3112:
 5479              	.LBE3157:
 5480              		.loc 3 226 0
 5481 011c 83F80008 		lwz 31,8(24)
 5482              	.LVL431:
 5483              	.LBB3158:
 5484              	.LBB3156:
 5485              	.LBB3152:
 5486              	.LBB3153:
 5487              	.LBB3154:
 5488              	.LBB3155:
 5489              		.loc 6 98 0
 5490 0120 7F03C378 		mr 3,24
 5491 0124 48000001 		bl _ZdlPv
 5492              	.LVL432:
 5493              	.LBE3155:
 5494              	.LBE3154:
 5495              	.LBE3153:
 5496              	.LBE3152:
 5497              	.LBE3156:
 5498              		.loc 9 1072 0
 5499 0128 2F9F0000 		cmpwi 7,31,0
 5500 012c 419E000C 		beq- 7,.L264
 5501              		.loc 9 1077 0
 5502 0130 7FF8FB78 		mr 24,31
 5503              	.LVL433:
 5504 0134 4BFFFF40 		b .L309
 5505              	.LVL434:
 5506              	.L264:
 5507              	.LBE3158:
 5508              	.LBE3110:
 5509              	.LBE3109:
 5510              	.LBE3164:
 5511              		.loc 3 226 0
 5512 0138 83F90008 		lwz 31,8(25)
 5513              	.LVL435:
 5514              	.LBB3165:
 5515              	.LBB3163:
 5516              	.LBB3159:
 5517              	.LBB3160:
 5518              	.LBB3161:
 5519              	.LBB3162:
 5520              		.loc 6 98 0
 5521 013c 7F23CB78 		mr 3,25
 5522 0140 48000001 		bl _ZdlPv
 5523              	.LVL436:
 5524              	.LBE3162:
 5525              	.LBE3161:
 5526              	.LBE3160:
 5527              	.LBE3159:
 5528              	.LBE3163:
 5529              		.loc 9 1072 0
 5530 0144 2F9F0000 		cmpwi 7,31,0
 5531 0148 419E000C 		beq- 7,.L263
 5532              		.loc 9 1077 0
 5533 014c 7FF9FB78 		mr 25,31
 5534              	.LVL437:
 5535 0150 4BFFFF18 		b .L308
 5536              	.LVL438:
 5537              	.L263:
 5538              	.LBE3165:
 5539              	.LBE3107:
 5540              	.LBE3106:
 5541              	.LBE3171:
 5542              		.loc 3 226 0
 5543 0154 83FA0008 		lwz 31,8(26)
 5544              	.LVL439:
 5545              	.LBB3172:
 5546              	.LBB3170:
 5547              	.LBB3166:
 5548              	.LBB3167:
 5549              	.LBB3168:
 5550              	.LBB3169:
 5551              		.loc 6 98 0
 5552 0158 7F43D378 		mr 3,26
 5553 015c 48000001 		bl _ZdlPv
 5554              	.LVL440:
 5555              	.LBE3169:
 5556              	.LBE3168:
 5557              	.LBE3167:
 5558              	.LBE3166:
 5559              	.LBE3170:
 5560              		.loc 9 1072 0
 5561 0160 2F9F0000 		cmpwi 7,31,0
 5562 0164 419E000C 		beq- 7,.L262
 5563              		.loc 9 1077 0
 5564 0168 7FFAFB78 		mr 26,31
 5565              	.LVL441:
 5566 016c 4BFFFEF0 		b .L307
 5567              	.LVL442:
 5568              	.L262:
 5569              	.LBE3172:
 5570              	.LBE3104:
 5571              	.LBE3103:
 5572              	.LBE3178:
 5573              		.loc 3 226 0
 5574 0170 83FB0008 		lwz 31,8(27)
 5575              	.LVL443:
 5576              	.LBB3179:
 5577              	.LBB3177:
 5578              	.LBB3173:
 5579              	.LBB3174:
 5580              	.LBB3175:
 5581              	.LBB3176:
 5582              		.loc 6 98 0
 5583 0174 7F63DB78 		mr 3,27
 5584 0178 48000001 		bl _ZdlPv
 5585              	.LVL444:
 5586              	.LBE3176:
 5587              	.LBE3175:
 5588              	.LBE3174:
 5589              	.LBE3173:
 5590              	.LBE3177:
 5591              		.loc 9 1072 0
 5592 017c 2F9F0000 		cmpwi 7,31,0
 5593 0180 419E000C 		beq- 7,.L261
 5594              		.loc 9 1077 0
 5595 0184 7FFBFB78 		mr 27,31
 5596              	.LVL445:
 5597 0188 4BFFFEC8 		b .L306
 5598              	.LVL446:
 5599              	.L261:
 5600              		.loc 3 226 0
 5601 018c 83F60008 		lwz 31,8(22)
 5602              	.LVL447:
 5603              	.LBE3179:
 5604              	.LBE3101:
 5605              	.LBB3180:
 5606              	.LBB3181:
 5607              	.LBB3182:
 5608              	.LBB3183:
 5609              		.loc 6 98 0
 5610 0190 7EC3B378 		mr 3,22
 5611 0194 48000001 		bl _ZdlPv
 5612              	.LVL448:
 5613              	.LBE3183:
 5614              	.LBE3182:
 5615              	.LBE3181:
 5616              	.LBE3180:
 5617              	.LBE3100:
 5618              		.loc 9 1072 0
 5619 0198 2F9F0000 		cmpwi 7,31,0
 5620 019c 419E000C 		beq- 7,.L259
 5621              		.loc 9 1077 0
 5622 01a0 7FF6FB78 		mr 22,31
 5623              	.LVL449:
 5624 01a4 4BFFFEA0 		b .L305
 5625              	.LVL450:
 5626              	.L259:
 5627              	.LBE3184:
 5628              		.loc 9 1079 0
 5629 01a8 8001003C 		lwz 0,60(1)
 5630 01ac 82A1000C 		lwz 21,12(1)
 5631 01b0 7C0803A6 		mtlr 0
 5632 01b4 82C10010 		lwz 22,16(1)
 5633 01b8 82E10014 		lwz 23,20(1)
 5634 01bc 83010018 		lwz 24,24(1)
 5635 01c0 8321001C 		lwz 25,28(1)
 5636 01c4 83410020 		lwz 26,32(1)
 5637 01c8 83610024 		lwz 27,36(1)
 5638 01cc 83810028 		lwz 28,40(1)
 5639 01d0 83A1002C 		lwz 29,44(1)
 5640 01d4 83C10030 		lwz 30,48(1)
 5641              	.LVL451:
 5642 01d8 83E10034 		lwz 31,52(1)
 5643 01dc 38210038 		addi 1,1,56
 5644              	.LCFI87:
 5645              		.cfi_def_cfa_offset 0
 5646              		.cfi_restore 31
 5647              		.cfi_restore 30
 5648              		.cfi_restore 29
 5649              		.cfi_restore 28
 5650              		.cfi_restore 27
 5651              		.cfi_restore 26
 5652              		.cfi_restore 25
 5653              		.cfi_restore 24
 5654              		.cfi_restore 23
 5655              		.cfi_restore 22
 5656              		.cfi_restore 21
 5657 01e0 4E800020 		blr
 5658              		.cfi_endproc
 5659              	.LFE1736:
 5660              		.size	_ZNSt8_Rb_treeIPN7sigslot12_signal_baseINS0_15single_threadedEEES4_St9_IdentityIS4_ESt4lessI
 5661              		.section	.text._ZN7sigslot9has_slotsINS_15single_threadedEED2Ev,"axG",@progbits,_ZN7sigslot9has_sl
 5662              		.align 2
 5663              		.weak	_ZN7sigslot9has_slotsINS_15single_threadedEED2Ev
 5664              		.type	_ZN7sigslot9has_slotsINS_15single_threadedEED2Ev, @function
 5665              	_ZN7sigslot9has_slotsINS_15single_threadedEED2Ev:
 5666              	.LFB1606:
 5667              		.loc 1 513 0
 5668              		.cfi_startproc
 5669              		.cfi_personality 0,__gxx_personality_v0
 5670              		.cfi_lsda 0,.LLSDA1606
 5671              	.LVL452:
 5672 0000 7C0802A6 		mflr 0
 5673 0004 9421FFE0 		stwu 1,-32(1)
 5674              	.LCFI88:
 5675              		.cfi_def_cfa_offset 32
 5676              		.cfi_register 65, 0
 5677              	.LBB3331:
 5678              		.loc 1 516 0
 5679 0008 3D200000 		lis 9,_ZTVN7sigslot9has_slotsINS_15single_threadedEEE+8@ha
 5680              	.LBE3331:
 5681              		.loc 1 513 0
 5682 000c 93810010 		stw 28,16(1)
 5683 0010 3B830004 		addi 28,3,4
 5684              		.cfi_offset 28, -16
 5685 0014 90010024 		stw 0,36(1)
 5686              	.LBB3407:
 5687              		.loc 1 516 0
 5688 0018 38090008 		la 0,_ZTVN7sigslot9has_slotsINS_15single_threadedEEE+8@l(9)
 5689              		.cfi_offset 65, 4
 5690              	.LBE3407:
 5691              		.loc 1 513 0
 5692 001c 93A10014 		stw 29,20(1)
 5693 0020 7C7D1B78 		mr 29,3
 5694              		.cfi_offset 29, -12
 5695 0024 93410008 		stw 26,8(1)
 5696 0028 9361000C 		stw 27,12(1)
 5697 002c 93C10018 		stw 30,24(1)
 5698 0030 93E1001C 		stw 31,28(1)
 5699              	.LBB3408:
 5700              		.loc 1 516 0
 5701 0034 90030000 		stw 0,0(3)
 5702              	.LVL453:
 5703              	.LEHB32:
 5704              	.LBB3332:
 5705              	.LBB3333:
 5706              	.LBB3334:
 5707              	.LBB3335:
 5708              		.loc 1 338 0
 5709              		.cfi_offset 31, -4
 5710              		.cfi_offset 30, -8
 5711              		.cfi_offset 27, -20
 5712              		.cfi_offset 26, -24
 5713 0038 48000001 		bl _ZN7sigslot15single_threaded4lockEv
 5714              	.LEHE32:
 5715              	.LVL454:
 5716              	.LBE3335:
 5717              	.LBE3334:
 5718              	.LBB3336:
 5719              		.loc 3 226 0
 5720 003c 83FD0010 		lwz 31,16(29)
 5721              	.LVL455:
 5722              	.LBE3336:
 5723              	.LBB3337:
 5724              	.LBB3338:
 5725              	.LBB3339:
 5726              		.loc 9 671 0
 5727 0040 3BDC0004 		addi 30,28,4
 5728              	.LVL456:
 5729              	.LBE3339:
 5730              	.LBE3338:
 5731              	.LBE3337:
 5732              		.loc 1 524 0
 5733 0044 7F9FF000 		cmpw 7,31,30
 5734 0048 419E0034 		beq- 7,.L315
 5735              	.LVL457:
 5736              	.L342:
 5737              		.loc 1 526 0
 5738 004c 807F0010 		lwz 3,16(31)
 5739 0050 7FA4EB78 		mr 4,29
 5740 0054 81230000 		lwz 9,0(3)
 5741 0058 80090010 		lwz 0,16(9)
 5742 005c 7C0903A6 		mtctr 0
 5743              	.LEHB33:
 5744 0060 4E800421 		bctrl
 5745              	.LEHE33:
 5746              	.LVL458:
 5747              	.LBB3340:
 5748              	.LBB3341:
 5749              		.loc 9 269 0
 5750 0064 7FE3FB78 		mr 3,31
 5751 0068 48000001 		bl _ZSt18_Rb_tree_incrementPKSt18_Rb_tree_node_base
 5752              	.LBE3341:
 5753              	.LBE3340:
 5754              		.loc 1 524 0
 5755 006c 7F9E1800 		cmpw 7,30,3
 5756              	.LBB3343:
 5757              	.LBB3342:
 5758              		.loc 9 269 0
 5759 0070 7C7F1B78 		mr 31,3
 5760              	.LVL459:
 5761              	.LBE3342:
 5762              	.LBE3343:
 5763              		.loc 1 524 0
 5764 0074 409EFFD8 		bne+ 7,.L342
 5765 0078 83FD0010 		lwz 31,16(29)
 5766              	.LVL460:
 5767              	.L315:
 5768              	.LBB3344:
 5769              	.LBB3345:
 5770              	.LBB3346:
 5771              	.LBB3347:
 5772              	.LBB3348:
 5773              	.LBB3349:
 5774              	.LBB3350:
 5775              		.loc 9 665 0
 5776 007c 3B5C0004 		addi 26,28,4
 5777              	.LBE3350:
 5778              	.LBE3349:
 5779              		.loc 9 1500 0
 5780 0080 7F9ED000 		cmpw 7,30,26
 5781 0084 419E0098 		beq- 7,.L317
 5782              	.LVL461:
 5783              		.loc 9 1503 0
 5784 0088 7F9EF800 		cmpw 7,30,31
 5785 008c 40BE000C 		bne+ 7,.L344
 5786 0090 48000038 		b .L318
 5787              	.LVL462:
 5788              	.L339:
 5789              		.loc 9 277 0
 5790 0094 7F7FDB78 		mr 31,27
 5791              	.LVL463:
 5792              	.L344:
 5793              	.LBB3351:
 5794              	.LBB3352:
 5795 0098 7FE3FB78 		mr 3,31
 5796 009c 48000001 		bl _ZSt18_Rb_tree_incrementPKSt18_Rb_tree_node_base
 5797              	.LBE3352:
 5798              	.LBE3351:
 5799              	.LBB3354:
 5800              	.LBB3355:
 5801              	.LBB3356:
 5802              		.loc 9 1489 0
 5803 00a0 7F44D378 		mr 4,26
 5804              	.LBE3356:
 5805              	.LBE3355:
 5806              	.LBE3354:
 5807              	.LBB3365:
 5808              	.LBB3353:
 5809              		.loc 9 277 0
 5810 00a4 7C7B1B78 		mr 27,3
 5811              	.LVL464:
 5812              	.LBE3353:
 5813              	.LBE3365:
 5814              	.LBB3366:
 5815              	.LBB3363:
 5816              	.LBB3361:
 5817              		.loc 9 1489 0
 5818 00a8 7FE3FB78 		mr 3,31
 5819              	.LVL465:
 5820 00ac 48000001 		bl _ZSt28_Rb_tree_rebalance_for_erasePSt18_Rb_tree_node_baseRS_
 5821              	.LBB3357:
 5822              	.LBB3358:
 5823              	.LBB3359:
 5824              	.LBB3360:
 5825              		.loc 6 98 0
 5826 00b0 48000001 		bl _ZdlPv
 5827              	.LBE3360:
 5828              	.LBE3359:
 5829              	.LBE3358:
 5830              	.LBE3357:
 5831              	.LBE3361:
 5832              	.LBE3363:
 5833              	.LBE3366:
 5834              		.loc 9 1503 0
 5835 00b4 7F9ED800 		cmpw 7,30,27
 5836              	.LBB3367:
 5837              	.LBB3364:
 5838              	.LBB3362:
 5839              		.loc 9 1491 0
 5840 00b8 813C0014 		lwz 9,20(28)
 5841 00bc 3809FFFF 		addi 0,9,-1
 5842 00c0 901C0014 		stw 0,20(28)
 5843              	.LBE3362:
 5844              	.LBE3364:
 5845              	.LBE3367:
 5846              		.loc 9 1503 0
 5847 00c4 409EFFD0 		bne+ 7,.L339
 5848              	.LVL466:
 5849              	.L318:
 5850              	.LBE3348:
 5851              	.LBE3347:
 5852              	.LBE3346:
 5853              	.LBE3345:
 5854              	.LBE3344:
 5855              	.LBB3376:
 5856              	.LBB3377:
 5857              	.LBB3378:
 5858              		.loc 1 343 0
 5859 00c8 813D0000 		lwz 9,0(29)
 5860 00cc 7FA3EB78 		mr 3,29
 5861 00d0 8009000C 		lwz 0,12(9)
 5862 00d4 7C0903A6 		mtctr 0
 5863              	.LEHB34:
 5864 00d8 4E800421 		bctrl
 5865              	.LEHE34:
 5866              	.LVL467:
 5867              	.LBE3378:
 5868              	.LBE3377:
 5869              	.LBE3376:
 5870              	.LBE3333:
 5871              	.LBE3332:
 5872              	.LBB3385:
 5873              	.LBB3386:
 5874              	.LBB3387:
 5875              	.LBB3388:
 5876              	.LBB3389:
 5877              		.loc 9 639 0
 5878 00dc 809D000C 		lwz 4,12(29)
 5879 00e0 7F83E378 		mr 3,28
 5880 00e4 48000001 		bl _ZNSt8_Rb_treeIPN7sigslot12_signal_baseINS0_15single_threadedEEES4_St9_IdentityIS4_ESt4lessIS4_
 5881              	.LVL468:
 5882              	.LBE3389:
 5883              	.LBE3388:
 5884              	.LBE3387:
 5885              	.LBE3386:
 5886              	.LBE3385:
 5887              	.LBB3390:
 5888              	.LBB3391:
 5889              	.LBB3392:
 5890              		.loc 1 105 0
 5891 00e8 3D200000 		lis 9,_ZTVN7sigslot15single_threadedE+8@ha
 5892 00ec 38090008 		la 0,_ZTVN7sigslot15single_threadedE+8@l(9)
 5893              	.LBE3392:
 5894              	.LBE3391:
 5895              	.LBE3390:
 5896              	.LBE3408:
 5897              		.loc 1 516 0
 5898 00f0 83410008 		lwz 26,8(1)
 5899              	.LBB3409:
 5900              	.LBB3395:
 5901              	.LBB3394:
 5902              	.LBB3393:
 5903              		.loc 1 105 0
 5904 00f4 901D0000 		stw 0,0(29)
 5905              	.LBE3393:
 5906              	.LBE3394:
 5907              	.LBE3395:
 5908              	.LBE3409:
 5909              		.loc 1 516 0
 5910 00f8 80010024 		lwz 0,36(1)
 5911 00fc 8361000C 		lwz 27,12(1)
 5912 0100 7C0803A6 		mtlr 0
 5913 0104 83810010 		lwz 28,16(1)
 5914              	.LVL469:
 5915 0108 83A10014 		lwz 29,20(1)
 5916              	.LVL470:
 5917 010c 83C10018 		lwz 30,24(1)
 5918              	.LVL471:
 5919 0110 83E1001C 		lwz 31,28(1)
 5920 0114 38210020 		addi 1,1,32
 5921              		.cfi_remember_state
 5922              	.LCFI89:
 5923              		.cfi_def_cfa_offset 0
 5924              		.cfi_restore 31
 5925              		.cfi_restore 30
 5926              		.cfi_restore 29
 5927              		.cfi_restore 28
 5928              		.cfi_restore 27
 5929              		.cfi_restore 26
 5930 0118 4E800020 		blr
 5931              	.LVL472:
 5932              	.L317:
 5933              	.LCFI90:
 5934              		.cfi_restore_state
 5935              	.LBB3410:
 5936              	.LBB3396:
 5937              	.LBB3383:
 5938              	.LBB3379:
 5939              	.LBB3375:
 5940              	.LBB3374:
 5941              	.LBB3373:
 5942              	.LBB3372:
 5943              	.LBB3368:
 5944              	.LBB3369:
 5945              	.LBB3370:
 5946              	.LBB3371:
 5947              		.loc 9 809 0
 5948 011c 809D000C 		lwz 4,12(29)
 5949 0120 7F83E378 		mr 3,28
 5950 0124 48000001 		bl _ZNSt8_Rb_treeIPN7sigslot12_signal_baseINS0_15single_threadedEEES4_St9_IdentityIS4_ESt4lessIS4_
 5951              	.LVL473:
 5952              		.loc 9 811 0
 5953 0128 38000000 		li 0,0
 5954              		.loc 9 810 0
 5955 012c 93DD0010 		stw 30,16(29)
 5956              	.LVL474:
 5957              		.loc 9 811 0
 5958 0130 901D000C 		stw 0,12(29)
 5959              	.LVL475:
 5960              		.loc 9 812 0
 5961 0134 93DD0014 		stw 30,20(29)
 5962              		.loc 9 813 0
 5963 0138 901D0018 		stw 0,24(29)
 5964 013c 4BFFFF8C 		b .L318
 5965              	.LVL476:
 5966              	.L340:
 5967 0140 7C7F1B78 		mr 31,3
 5968              	.L325:
 5969              	.LVL477:
 5970              	.LBE3371:
 5971              	.LBE3370:
 5972              	.LBE3369:
 5973              	.LBE3368:
 5974              	.LBE3372:
 5975              	.LBE3373:
 5976              	.LBE3374:
 5977              	.LBE3375:
 5978              	.LBE3379:
 5979              	.LBE3383:
 5980              	.LBE3396:
 5981              	.LBB3397:
 5982              	.LBB3398:
 5983              	.LBB3399:
 5984              	.LBB3400:
 5985              	.LBB3401:
 5986              	.LBB3402:
 5987              		.loc 9 639 0
 5988 0144 809D000C 		lwz 4,12(29)
 5989 0148 7F83E378 		mr 3,28
 5990 014c 48000001 		bl _ZNSt8_Rb_treeIPN7sigslot12_signal_baseINS0_15single_threadedEEES4_St9_IdentityIS4_ESt4lessIS4_
 5991              	.LVL478:
 5992              	.LBE3402:
 5993              	.LBE3401:
 5994              	.LBE3400:
 5995              	.LBE3399:
 5996              	.LBE3398:
 5997              	.LBE3397:
 5998              	.LBB3403:
 5999              	.LBB3404:
 6000              	.LBB3405:
 6001              		.loc 1 105 0
 6002 0150 3D200000 		lis 9,_ZTVN7sigslot15single_threadedE+8@ha
 6003 0154 38090008 		la 0,_ZTVN7sigslot15single_threadedE+8@l(9)
 6004 0158 7FE3FB78 		mr 3,31
 6005 015c 901D0000 		stw 0,0(29)
 6006              	.LEHB35:
 6007 0160 48000001 		bl _Unwind_Resume
 6008              	.LEHE35:
 6009              	.LVL479:
 6010              	.L341:
 6011              	.LBE3405:
 6012              	.LBE3404:
 6013              	.LBE3403:
 6014              	.LBB3406:
 6015              	.LBB3384:
 6016              	.LBB3380:
 6017              	.LBB3381:
 6018              	.LBB3382:
 6019              		.loc 1 343 0
 6020 0164 813D0000 		lwz 9,0(29)
 6021 0168 7C7F1B78 		mr 31,3
 6022              	.LVL480:
 6023 016c 7FA3EB78 		mr 3,29
 6024 0170 8009000C 		lwz 0,12(9)
 6025 0174 7C0903A6 		mtctr 0
 6026 0178 4E800421 		bctrl
 6027 017c 4BFFFFC8 		b .L325
 6028              	.LBE3382:
 6029              	.LBE3381:
 6030              	.LBE3380:
 6031              	.LBE3384:
 6032              	.LBE3406:
 6033              	.LBE3410:
 6034              		.cfi_endproc
 6035              	.LFE1606:
 6036              		.section	.gcc_except_table
 6037              	.LLSDA1606:
 6038 00ba FF       		.byte	0xff
 6039 00bb FF       		.byte	0xff
 6040 00bc 01       		.byte	0x1
 6041 00bd 15       		.uleb128 .LLSDACSE1606-.LLSDACSB1606
 6042              	.LLSDACSB1606:
 6043 00be 38       		.uleb128 .LEHB32-.LFB1606
 6044 00bf 04       		.uleb128 .LEHE32-.LEHB32
 6045 00c0 C002     		.uleb128 .L340-.LFB1606
 6046 00c2 00       		.uleb128 0
 6047 00c3 60       		.uleb128 .LEHB33-.LFB1606
 6048 00c4 04       		.uleb128 .LEHE33-.LEHB33
 6049 00c5 E402     		.uleb128 .L341-.LFB1606
 6050 00c7 00       		.uleb128 0
 6051 00c8 D801     		.uleb128 .LEHB34-.LFB1606
 6052 00ca 04       		.uleb128 .LEHE34-.LEHB34
 6053 00cb C002     		.uleb128 .L340-.LFB1606
 6054 00cd 00       		.uleb128 0
 6055 00ce E002     		.uleb128 .LEHB35-.LFB1606
 6056 00d0 04       		.uleb128 .LEHE35-.LEHB35
 6057 00d1 00       		.uleb128 0
 6058 00d2 00       		.uleb128 0
 6059              	.LLSDACSE1606:
 6060              		.section	.text._ZN7sigslot9has_slotsINS_15single_threadedEED2Ev,"axG",@progbits,_ZN7sigslot9has_sl
 6061              		.size	_ZN7sigslot9has_slotsINS_15single_threadedEED2Ev, .-_ZN7sigslot9has_slotsINS_15single_thread
 6062              		.section	.text._ZN7sigslot9has_slotsINS_15single_threadedEED0Ev,"axG",@progbits,_ZN7sigslot9has_sl
 6063              		.align 2
 6064              		.weak	_ZN7sigslot9has_slotsINS_15single_threadedEED0Ev
 6065              		.type	_ZN7sigslot9has_slotsINS_15single_threadedEED0Ev, @function
 6066              	_ZN7sigslot9has_slotsINS_15single_threadedEED0Ev:
 6067              	.LFB1608:
 6068              		.loc 1 513 0
 6069              		.cfi_startproc
 6070              		.cfi_personality 0,__gxx_personality_v0
 6071              		.cfi_lsda 0,.LLSDA1608
 6072              	.LVL481:
 6073 0000 7C0802A6 		mflr 0
 6074 0004 9421FFE0 		stwu 1,-32(1)
 6075              	.LCFI91:
 6076              		.cfi_def_cfa_offset 32
 6077              		.cfi_register 65, 0
 6078              	.LBB3504:
 6079              	.LBB3505:
 6080              	.LBB3506:
 6081              		.loc 1 516 0
 6082 0008 3D200000 		lis 9,_ZTVN7sigslot9has_slotsINS_15single_threadedEEE+8@ha
 6083              	.LBE3506:
 6084              	.LBE3505:
 6085              	.LBE3504:
 6086              		.loc 1 513 0
 6087 000c 93810010 		stw 28,16(1)
 6088 0010 3B830004 		addi 28,3,4
 6089              		.cfi_offset 28, -16
 6090 0014 90010024 		stw 0,36(1)
 6091              	.LBB3590:
 6092              	.LBB3586:
 6093              	.LBB3582:
 6094              		.loc 1 516 0
 6095 0018 38090008 		la 0,_ZTVN7sigslot9has_slotsINS_15single_threadedEEE+8@l(9)
 6096              		.cfi_offset 65, 4
 6097              	.LBE3582:
 6098              	.LBE3586:
 6099              	.LBE3590:
 6100              		.loc 1 513 0
 6101 001c 93A10014 		stw 29,20(1)
 6102 0020 7C7D1B78 		mr 29,3
 6103              		.cfi_offset 29, -12
 6104              	.LVL482:
 6105 0024 93410008 		stw 26,8(1)
 6106 0028 9361000C 		stw 27,12(1)
 6107 002c 93C10018 		stw 30,24(1)
 6108 0030 93E1001C 		stw 31,28(1)
 6109              	.LBB3591:
 6110              	.LBB3587:
 6111              	.LBB3583:
 6112              		.loc 1 516 0
 6113 0034 90030000 		stw 0,0(3)
 6114              	.LVL483:
 6115              	.LEHB36:
 6116              	.LBB3507:
 6117              	.LBB3508:
 6118              	.LBB3509:
 6119              	.LBB3510:
 6120              		.loc 1 338 0
 6121              		.cfi_offset 31, -4
 6122              		.cfi_offset 30, -8
 6123              		.cfi_offset 27, -20
 6124              		.cfi_offset 26, -24
 6125 0038 48000001 		bl _ZN7sigslot15single_threaded4lockEv
 6126              	.LEHE36:
 6127              	.LVL484:
 6128              	.LBE3510:
 6129              	.LBE3509:
 6130              	.LBB3511:
 6131              		.loc 3 226 0
 6132 003c 83FD0010 		lwz 31,16(29)
 6133              	.LVL485:
 6134              	.LBE3511:
 6135              	.LBB3512:
 6136              	.LBB3513:
 6137              	.LBB3514:
 6138              		.loc 9 671 0
 6139 0040 3BDC0004 		addi 30,28,4
 6140              	.LVL486:
 6141              	.LBE3514:
 6142              	.LBE3513:
 6143              	.LBE3512:
 6144              		.loc 1 524 0
 6145 0044 7F9FF000 		cmpw 7,31,30
 6146 0048 419E0034 		beq- 7,.L347
 6147              	.LVL487:
 6148              	.L375:
 6149              		.loc 1 526 0
 6150 004c 807F0010 		lwz 3,16(31)
 6151 0050 7FA4EB78 		mr 4,29
 6152 0054 81230000 		lwz 9,0(3)
 6153 0058 80090010 		lwz 0,16(9)
 6154 005c 7C0903A6 		mtctr 0
 6155              	.LEHB37:
 6156 0060 4E800421 		bctrl
 6157              	.LEHE37:
 6158              	.LVL488:
 6159              	.LBB3515:
 6160              	.LBB3516:
 6161              		.loc 9 269 0
 6162 0064 7FE3FB78 		mr 3,31
 6163 0068 48000001 		bl _ZSt18_Rb_tree_incrementPKSt18_Rb_tree_node_base
 6164              	.LBE3516:
 6165              	.LBE3515:
 6166              		.loc 1 524 0
 6167 006c 7F9E1800 		cmpw 7,30,3
 6168              	.LBB3518:
 6169              	.LBB3517:
 6170              		.loc 9 269 0
 6171 0070 7C7F1B78 		mr 31,3
 6172              	.LVL489:
 6173              	.LBE3517:
 6174              	.LBE3518:
 6175              		.loc 1 524 0
 6176 0074 409EFFD8 		bne+ 7,.L375
 6177 0078 83FD0010 		lwz 31,16(29)
 6178              	.LVL490:
 6179              	.L347:
 6180              	.LBB3519:
 6181              	.LBB3520:
 6182              	.LBB3521:
 6183              	.LBB3522:
 6184              	.LBB3523:
 6185              	.LBB3524:
 6186              	.LBB3525:
 6187              		.loc 9 665 0
 6188 007c 3B5C0004 		addi 26,28,4
 6189              	.LBE3525:
 6190              	.LBE3524:
 6191              		.loc 9 1500 0
 6192 0080 7F9ED000 		cmpw 7,30,26
 6193 0084 419E00A0 		beq- 7,.L349
 6194              	.LVL491:
 6195              		.loc 9 1503 0
 6196 0088 7F9EF800 		cmpw 7,30,31
 6197 008c 40BE000C 		bne+ 7,.L377
 6198 0090 48000038 		b .L350
 6199              	.LVL492:
 6200              	.L372:
 6201              		.loc 9 277 0
 6202 0094 7F7FDB78 		mr 31,27
 6203              	.LVL493:
 6204              	.L377:
 6205              	.LBB3526:
 6206              	.LBB3527:
 6207 0098 7FE3FB78 		mr 3,31
 6208 009c 48000001 		bl _ZSt18_Rb_tree_incrementPKSt18_Rb_tree_node_base
 6209              	.LBE3527:
 6210              	.LBE3526:
 6211              	.LBB3529:
 6212              	.LBB3530:
 6213              	.LBB3531:
 6214              		.loc 9 1489 0
 6215 00a0 7F44D378 		mr 4,26
 6216              	.LBE3531:
 6217              	.LBE3530:
 6218              	.LBE3529:
 6219              	.LBB3540:
 6220              	.LBB3528:
 6221              		.loc 9 277 0
 6222 00a4 7C7B1B78 		mr 27,3
 6223              	.LVL494:
 6224              	.LBE3528:
 6225              	.LBE3540:
 6226              	.LBB3541:
 6227              	.LBB3538:
 6228              	.LBB3536:
 6229              		.loc 9 1489 0
 6230 00a8 7FE3FB78 		mr 3,31
 6231              	.LVL495:
 6232 00ac 48000001 		bl _ZSt28_Rb_tree_rebalance_for_erasePSt18_Rb_tree_node_baseRS_
 6233              	.LBB3532:
 6234              	.LBB3533:
 6235              	.LBB3534:
 6236              	.LBB3535:
 6237              		.loc 6 98 0
 6238 00b0 48000001 		bl _ZdlPv
 6239              	.LBE3535:
 6240              	.LBE3534:
 6241              	.LBE3533:
 6242              	.LBE3532:
 6243              	.LBE3536:
 6244              	.LBE3538:
 6245              	.LBE3541:
 6246              		.loc 9 1503 0
 6247 00b4 7F9ED800 		cmpw 7,30,27
 6248              	.LBB3542:
 6249              	.LBB3539:
 6250              	.LBB3537:
 6251              		.loc 9 1491 0
 6252 00b8 813C0014 		lwz 9,20(28)
 6253 00bc 3809FFFF 		addi 0,9,-1
 6254 00c0 901C0014 		stw 0,20(28)
 6255              	.LBE3537:
 6256              	.LBE3539:
 6257              	.LBE3542:
 6258              		.loc 9 1503 0
 6259 00c4 409EFFD0 		bne+ 7,.L372
 6260              	.LVL496:
 6261              	.L350:
 6262              	.LBE3523:
 6263              	.LBE3522:
 6264              	.LBE3521:
 6265              	.LBE3520:
 6266              	.LBE3519:
 6267              	.LBB3551:
 6268              	.LBB3552:
 6269              	.LBB3553:
 6270              		.loc 1 343 0
 6271 00c8 813D0000 		lwz 9,0(29)
 6272 00cc 7FA3EB78 		mr 3,29
 6273 00d0 8009000C 		lwz 0,12(9)
 6274 00d4 7C0903A6 		mtctr 0
 6275              	.LEHB38:
 6276 00d8 4E800421 		bctrl
 6277              	.LEHE38:
 6278              	.LVL497:
 6279              	.LBE3553:
 6280              	.LBE3552:
 6281              	.LBE3551:
 6282              	.LBE3508:
 6283              	.LBE3507:
 6284              	.LBB3560:
 6285              	.LBB3561:
 6286              	.LBB3562:
 6287              	.LBB3563:
 6288              	.LBB3564:
 6289              		.loc 9 639 0
 6290 00dc 809D000C 		lwz 4,12(29)
 6291 00e0 7F83E378 		mr 3,28
 6292 00e4 48000001 		bl _ZNSt8_Rb_treeIPN7sigslot12_signal_baseINS0_15single_threadedEEES4_St9_IdentityIS4_ESt4lessIS4_
 6293              	.LVL498:
 6294              	.LBE3564:
 6295              	.LBE3563:
 6296              	.LBE3562:
 6297              	.LBE3561:
 6298              	.LBE3560:
 6299              	.LBB3565:
 6300              	.LBB3566:
 6301              	.LBB3567:
 6302              		.loc 1 105 0
 6303 00e8 3D200000 		lis 9,_ZTVN7sigslot15single_threadedE+8@ha
 6304 00ec 38090008 		la 0,_ZTVN7sigslot15single_threadedE+8@l(9)
 6305              	.LBE3567:
 6306              	.LBE3566:
 6307              	.LBE3565:
 6308              	.LBE3583:
 6309              	.LBE3587:
 6310              	.LBE3591:
 6311              		.loc 1 516 0
 6312 00f0 7FA3EB78 		mr 3,29
 6313              	.LBB3592:
 6314              	.LBB3588:
 6315              	.LBB3584:
 6316              	.LBB3570:
 6317              	.LBB3569:
 6318              	.LBB3568:
 6319              		.loc 1 105 0
 6320 00f4 901D0000 		stw 0,0(29)
 6321              	.LBE3568:
 6322              	.LBE3569:
 6323              	.LBE3570:
 6324              	.LBE3584:
 6325              	.LBE3588:
 6326              	.LBE3592:
 6327              		.loc 1 516 0
 6328 00f8 48000001 		bl _ZdlPv
 6329 00fc 80010024 		lwz 0,36(1)
 6330 0100 83410008 		lwz 26,8(1)
 6331 0104 7C0803A6 		mtlr 0
 6332 0108 8361000C 		lwz 27,12(1)
 6333 010c 83810010 		lwz 28,16(1)
 6334              	.LVL499:
 6335 0110 83A10014 		lwz 29,20(1)
 6336              	.LVL500:
 6337 0114 83C10018 		lwz 30,24(1)
 6338              	.LVL501:
 6339 0118 83E1001C 		lwz 31,28(1)
 6340 011c 38210020 		addi 1,1,32
 6341              		.cfi_remember_state
 6342              	.LCFI92:
 6343              		.cfi_def_cfa_offset 0
 6344              		.cfi_restore 31
 6345              		.cfi_restore 30
 6346              		.cfi_restore 29
 6347              		.cfi_restore 28
 6348              		.cfi_restore 27
 6349              		.cfi_restore 26
 6350 0120 4E800020 		blr
 6351              	.LVL502:
 6352              	.L349:
 6353              	.LCFI93:
 6354              		.cfi_restore_state
 6355              	.LBB3593:
 6356              	.LBB3589:
 6357              	.LBB3585:
 6358              	.LBB3571:
 6359              	.LBB3558:
 6360              	.LBB3554:
 6361              	.LBB3550:
 6362              	.LBB3549:
 6363              	.LBB3548:
 6364              	.LBB3547:
 6365              	.LBB3543:
 6366              	.LBB3544:
 6367              	.LBB3545:
 6368              	.LBB3546:
 6369              		.loc 9 809 0
 6370 0124 809D000C 		lwz 4,12(29)
 6371 0128 7F83E378 		mr 3,28
 6372 012c 48000001 		bl _ZNSt8_Rb_treeIPN7sigslot12_signal_baseINS0_15single_threadedEEES4_St9_IdentityIS4_ESt4lessIS4_
 6373              	.LVL503:
 6374              		.loc 9 811 0
 6375 0130 38000000 		li 0,0
 6376              		.loc 9 810 0
 6377 0134 93DD0010 		stw 30,16(29)
 6378              	.LVL504:
 6379              		.loc 9 811 0
 6380 0138 901D000C 		stw 0,12(29)
 6381              	.LVL505:
 6382              		.loc 9 812 0
 6383 013c 93DD0014 		stw 30,20(29)
 6384              		.loc 9 813 0
 6385 0140 901D0018 		stw 0,24(29)
 6386 0144 4BFFFF84 		b .L350
 6387              	.LVL506:
 6388              	.L373:
 6389 0148 7C7F1B78 		mr 31,3
 6390              	.L357:
 6391              	.LVL507:
 6392              	.LBE3546:
 6393              	.LBE3545:
 6394              	.LBE3544:
 6395              	.LBE3543:
 6396              	.LBE3547:
 6397              	.LBE3548:
 6398              	.LBE3549:
 6399              	.LBE3550:
 6400              	.LBE3554:
 6401              	.LBE3558:
 6402              	.LBE3571:
 6403              	.LBB3572:
 6404              	.LBB3573:
 6405              	.LBB3574:
 6406              	.LBB3575:
 6407              	.LBB3576:
 6408              	.LBB3577:
 6409              		.loc 9 639 0
 6410 014c 809D000C 		lwz 4,12(29)
 6411 0150 7F83E378 		mr 3,28
 6412 0154 48000001 		bl _ZNSt8_Rb_treeIPN7sigslot12_signal_baseINS0_15single_threadedEEES4_St9_IdentityIS4_ESt4lessIS4_
 6413              	.LVL508:
 6414              	.LBE3577:
 6415              	.LBE3576:
 6416              	.LBE3575:
 6417              	.LBE3574:
 6418              	.LBE3573:
 6419              	.LBE3572:
 6420              	.LBB3578:
 6421              	.LBB3579:
 6422              	.LBB3580:
 6423              		.loc 1 105 0
 6424 0158 3D200000 		lis 9,_ZTVN7sigslot15single_threadedE+8@ha
 6425 015c 38090008 		la 0,_ZTVN7sigslot15single_threadedE+8@l(9)
 6426 0160 7FE3FB78 		mr 3,31
 6427 0164 901D0000 		stw 0,0(29)
 6428              	.LEHB39:
 6429 0168 48000001 		bl _Unwind_Resume
 6430              	.LEHE39:
 6431              	.LVL509:
 6432              	.L374:
 6433              	.LBE3580:
 6434              	.LBE3579:
 6435              	.LBE3578:
 6436              	.LBB3581:
 6437              	.LBB3559:
 6438              	.LBB3555:
 6439              	.LBB3556:
 6440              	.LBB3557:
 6441              		.loc 1 343 0
 6442 016c 813D0000 		lwz 9,0(29)
 6443 0170 7C7F1B78 		mr 31,3
 6444              	.LVL510:
 6445 0174 7FA3EB78 		mr 3,29
 6446 0178 8009000C 		lwz 0,12(9)
 6447 017c 7C0903A6 		mtctr 0
 6448 0180 4E800421 		bctrl
 6449 0184 4BFFFFC8 		b .L357
 6450              	.LBE3557:
 6451              	.LBE3556:
 6452              	.LBE3555:
 6453              	.LBE3559:
 6454              	.LBE3581:
 6455              	.LBE3585:
 6456              	.LBE3589:
 6457              	.LBE3593:
 6458              		.cfi_endproc
 6459              	.LFE1608:
 6460              		.section	.gcc_except_table
 6461              	.LLSDA1608:
 6462 00d3 FF       		.byte	0xff
 6463 00d4 FF       		.byte	0xff
 6464 00d5 01       		.byte	0x1
 6465 00d6 15       		.uleb128 .LLSDACSE1608-.LLSDACSB1608
 6466              	.LLSDACSB1608:
 6467 00d7 38       		.uleb128 .LEHB36-.LFB1608
 6468 00d8 04       		.uleb128 .LEHE36-.LEHB36
 6469 00d9 C802     		.uleb128 .L373-.LFB1608
 6470 00db 00       		.uleb128 0
 6471 00dc 60       		.uleb128 .LEHB37-.LFB1608
 6472 00dd 04       		.uleb128 .LEHE37-.LEHB37
 6473 00de EC02     		.uleb128 .L374-.LFB1608
 6474 00e0 00       		.uleb128 0
 6475 00e1 D801     		.uleb128 .LEHB38-.LFB1608
 6476 00e3 04       		.uleb128 .LEHE38-.LEHB38
 6477 00e4 C802     		.uleb128 .L373-.LFB1608
 6478 00e6 00       		.uleb128 0
 6479 00e7 E802     		.uleb128 .LEHB39-.LFB1608
 6480 00e9 04       		.uleb128 .LEHE39-.LEHB39
 6481 00ea 00       		.uleb128 0
 6482 00eb 00       		.uleb128 0
 6483              	.LLSDACSE1608:
 6484              		.section	.text._ZN7sigslot9has_slotsINS_15single_threadedEED0Ev,"axG",@progbits,_ZN7sigslot9has_sl
 6485              		.size	_ZN7sigslot9has_slotsINS_15single_threadedEED0Ev, .-_ZN7sigslot9has_slotsINS_15single_thread
 6486              		.section	.text._ZNSt8_Rb_treeIPN7sigslot12_signal_baseINS0_15single_threadedEEES4_St9_IdentityIS4_
 6487              		.align 2
 6488              		.weak	_ZNSt8_Rb_treeIPN7sigslot12_signal_baseINS0_15single_threadedEEES4_St9_IdentityIS4_ESt4lessI
 6489              		.type	_ZNSt8_Rb_treeIPN7sigslot12_signal_baseINS0_15single_threadedEEES4_St9_IdentityIS4_ESt4lessI
 6490              	_ZNSt8_Rb_treeIPN7sigslot12_signal_baseINS0_15single_threadedEEES4_St9_IdentityIS4_ESt4lessIS4_ESaI
 6491              	.LFB1825:
 6492              		.loc 9 1264 0
 6493              		.cfi_startproc
 6494              	.LVL511:
 6495 0000 7C0802A6 		mflr 0
 6496 0004 9421FFE0 		stwu 1,-32(1)
 6497              	.LCFI94:
 6498              		.cfi_def_cfa_offset 32
 6499              		.cfi_register 65, 0
 6500 0008 93810010 		stw 28,16(1)
 6501 000c 90010024 		stw 0,36(1)
 6502 0010 9361000C 		stw 27,12(1)
 6503 0014 7C9B2378 		mr 27,4
 6504              		.cfi_offset 27, -20
 6505              		.cfi_offset 65, 4
 6506              		.cfi_offset 28, -16
 6507              	.LBB3633:
 6508              	.LBB3634:
 6509              	.LBB3635:
 6510              		.loc 3 226 0
 6511 0018 83830008 		lwz 28,8(3)
 6512              	.LVL512:
 6513              	.LBE3635:
 6514              	.LBE3634:
 6515              	.LBE3633:
 6516              		.loc 9 1264 0
 6517 001c 93A10014 		stw 29,20(1)
 6518              	.LBB3660:
 6519              	.LBB3652:
 6520              	.LBB3648:
 6521              		.loc 9 1272 0
 6522 0020 3BA30004 		addi 29,3,4
 6523              		.cfi_offset 29, -12
 6524              	.LVL513:
 6525              	.LBE3648:
 6526              	.LBE3652:
 6527              		.loc 9 1274 0
 6528 0024 2F9C0000 		cmpwi 7,28,0
 6529              	.LBE3660:
 6530              		.loc 9 1264 0
 6531 0028 93E1001C 		stw 31,28(1)
 6532 002c 93410008 		stw 26,8(1)
 6533 0030 7C7F1B78 		mr 31,3
 6534              		.cfi_offset 26, -24
 6535              		.cfi_offset 31, -4
 6536 0034 93C10018 		stw 30,24(1)
 6537              	.LBB3661:
 6538              		.loc 9 1274 0
 6539 0038 419E0084 		beq- 7,.L394
 6540              		.cfi_offset 30, -8
 6541              	.LVL514:
 6542 003c 81440000 		lwz 10,0(4)
 6543 0040 48000014 		b .L383
 6544              	.LVL515:
 6545              	.L402:
 6546              		.loc 3 226 0 discriminator 1
 6547 0044 801C0008 		lwz 0,8(28)
 6548              	.LVL516:
 6549              		.loc 9 1274 0 discriminator 1
 6550 0048 2F800000 		cmpwi 7,0,0
 6551 004c 419E0028 		beq- 7,.L401
 6552              	.LVL517:
 6553              	.L395:
 6554              		.loc 9 1274 0 is_stmt 0
 6555 0050 7C1C0378 		mr 28,0
 6556              	.LVL518:
 6557              	.L383:
 6558              		.loc 3 226 0 is_stmt 1
 6559 0054 813C0010 		lwz 9,16(28)
 6560 0058 39600001 		li 11,1
 6561              		.loc 9 1278 0
 6562 005c 7F895040 		cmplw 7,9,10
 6563 0060 41BDFFE4 		bgt- 7,.L402
 6564              		.loc 3 226 0 discriminator 2
 6565 0064 801C000C 		lwz 0,12(28)
 6566 0068 39600000 		li 11,0
 6567              	.LVL519:
 6568              		.loc 9 1274 0 discriminator 2
 6569 006c 2F800000 		cmpwi 7,0,0
 6570 0070 409EFFE0 		bne+ 7,.L395
 6571              	.LVL520:
 6572              	.L401:
 6573              		.loc 9 1281 0
 6574 0074 2F8B0000 		cmpwi 7,11,0
 6575 0078 7F83E378 		mr 3,28
 6576              	.LVL521:
 6577 007c 409E0044 		bne- 7,.L380
 6578              	.LVL522:
 6579              		.loc 9 1289 0
 6580 0080 7F8A4840 		cmplw 7,10,9
 6581 0084 419D0060 		bgt- 7,.L403
 6582              	.LVL523:
 6583              	.L390:
 6584              		.loc 9 1292 0
 6585 0088 38000000 		li 0,0
 6586 008c 38800000 		li 4,0
 6587 0090 5004C00E 		rlwimi 4,0,24,0,7
 6588              	.LBE3661:
 6589              		.loc 9 1293 0
 6590 0094 80010024 		lwz 0,36(1)
 6591 0098 83410008 		lwz 26,8(1)
 6592 009c 7C0803A6 		mtlr 0
 6593 00a0 8361000C 		lwz 27,12(1)
 6594              	.LVL524:
 6595 00a4 83810010 		lwz 28,16(1)
 6596 00a8 83A10014 		lwz 29,20(1)
 6597 00ac 83C10018 		lwz 30,24(1)
 6598 00b0 83E1001C 		lwz 31,28(1)
 6599              	.LVL525:
 6600 00b4 38210020 		addi 1,1,32
 6601              		.cfi_remember_state
 6602              	.LCFI95:
 6603              		.cfi_def_cfa_offset 0
 6604              		.cfi_restore 31
 6605              		.cfi_restore 30
 6606              		.cfi_restore 29
 6607              		.cfi_restore 28
 6608              		.cfi_restore 27
 6609              		.cfi_restore 26
 6610 00b8 4E800020 		blr
 6611              	.LVL526:
 6612              	.L394:
 6613              	.LCFI96:
 6614              		.cfi_restore_state
 6615              	.LBB3662:
 6616              		.loc 9 1272 0
 6617 00bc 7FBCEB78 		mr 28,29
 6618              	.LVL527:
 6619              	.L380:
 6620              		.loc 9 1283 0
 6621 00c0 801F000C 		lwz 0,12(31)
 6622 00c4 7F9C0000 		cmpw 7,28,0
 6623 00c8 419E003C 		beq- 7,.L404
 6624              	.LVL528:
 6625              	.LBB3653:
 6626              	.LBB3654:
 6627              		.loc 9 203 0
 6628 00cc 7F83E378 		mr 3,28
 6629 00d0 48000001 		bl _ZSt18_Rb_tree_decrementPSt18_Rb_tree_node_base
 6630              	.LVL529:
 6631 00d4 815B0000 		lwz 10,0(27)
 6632 00d8 81230010 		lwz 9,16(3)
 6633              	.LVL530:
 6634              	.LBE3654:
 6635              	.LBE3653:
 6636              		.loc 9 1289 0
 6637 00dc 7F8A4840 		cmplw 7,10,9
 6638 00e0 409DFFA8 		ble+ 7,.L390
 6639              	.LVL531:
 6640              	.L403:
 6641              	.LBB3655:
 6642              	.LBB3649:
 6643              		.loc 9 969 0
 6644 00e4 7F9CE800 		cmpw 7,28,29
 6645 00e8 3B400001 		li 26,1
 6646 00ec 419E0038 		beq- 7,.L391
 6647              	.LVL532:
 6648              		.loc 9 1264 0
 6649 00f0 835C0010 		lwz 26,16(28)
 6650 00f4 7F5A5010 		subfc 26,26,10
 6651 00f8 7F5AD110 		subfe 26,26,26
 6652 00fc 7F5A00D0 		neg 26,26
 6653 0100 48000024 		b .L391
 6654              	.LVL533:
 6655              	.L404:
 6656              	.LBE3649:
 6657              	.LBE3655:
 6658              	.LBB3656:
 6659              	.LBB3657:
 6660              		.loc 9 969 0
 6661 0104 7F9CE800 		cmpw 7,28,29
 6662 0108 3B400001 		li 26,1
 6663 010c 419E0018 		beq- 7,.L391
 6664              	.LVL534:
 6665              		.loc 9 1264 0
 6666 0110 835B0000 		lwz 26,0(27)
 6667 0114 801C0010 		lwz 0,16(28)
 6668              	.LVL535:
 6669 0118 7F40D010 		subfc 26,0,26
 6670 011c 7F5AD110 		subfe 26,26,26
 6671 0120 7F5A00D0 		neg 26,26
 6672              	.LVL536:
 6673              	.L391:
 6674              	.LBE3657:
 6675              	.LBE3656:
 6676              	.LBB3658:
 6677              	.LBB3650:
 6678              	.LBB3636:
 6679              	.LBB3637:
 6680              	.LBB3638:
 6681              	.LBB3639:
 6682              	.LBB3640:
 6683              		.loc 6 92 0
 6684 0124 38600014 		li 3,20
 6685 0128 48000001 		bl _Znwj
 6686              	.LBE3640:
 6687              	.LBE3639:
 6688              	.LBE3638:
 6689              	.LBB3643:
 6690              	.LBB3644:
 6691              		.loc 6 108 0
 6692 012c 2F83FFF0 		cmpwi 7,3,-16
 6693              	.LBE3644:
 6694              	.LBE3643:
 6695              	.LBB3646:
 6696              	.LBB3642:
 6697              	.LBB3641:
 6698              		.loc 6 92 0
 6699 0130 7C7E1B78 		mr 30,3
 6700              	.LVL537:
 6701              	.LBE3641:
 6702              	.LBE3642:
 6703              	.LBE3646:
 6704              	.LBB3647:
 6705              	.LBB3645:
 6706              		.loc 6 108 0
 6707 0134 419E000C 		beq- 7,.L393
 6708 0138 801B0000 		lwz 0,0(27)
 6709 013c 90030010 		stw 0,16(3)
 6710              	.L393:
 6711              	.LVL538:
 6712              	.LBE3645:
 6713              	.LBE3647:
 6714              	.LBE3637:
 6715              	.LBE3636:
 6716              		.loc 9 973 0
 6717 0140 7F43D378 		mr 3,26
 6718              	.LVL539:
 6719 0144 7FC4F378 		mr 4,30
 6720 0148 7F85E378 		mr 5,28
 6721 014c 7FA6EB78 		mr 6,29
 6722 0150 48000001 		bl _ZSt29_Rb_tree_insert_and_rebalancebPSt18_Rb_tree_node_baseS0_RS_
 6723              		.loc 9 976 0
 6724 0154 813F0014 		lwz 9,20(31)
 6725              		.loc 9 1291 0
 6726 0158 38800000 		li 4,0
 6727 015c 7FC3F378 		mr 3,30
 6728              		.loc 9 976 0
 6729 0160 38090001 		addi 0,9,1
 6730              	.LBE3650:
 6731              	.LBE3658:
 6732              	.LBE3662:
 6733              		.loc 9 1293 0
 6734 0164 83410008 		lwz 26,8(1)
 6735              	.LVL540:
 6736              	.LBB3663:
 6737              	.LBB3659:
 6738              	.LBB3651:
 6739              		.loc 9 976 0
 6740 0168 901F0014 		stw 0,20(31)
 6741              	.LVL541:
 6742              		.loc 9 1291 0
 6743 016c 38000001 		li 0,1
 6744 0170 5004C00E 		rlwimi 4,0,24,0,7
 6745              	.LBE3651:
 6746              	.LBE3659:
 6747              	.LBE3663:
 6748              		.loc 9 1293 0
 6749 0174 80010024 		lwz 0,36(1)
 6750 0178 8361000C 		lwz 27,12(1)
 6751              	.LVL542:
 6752 017c 7C0803A6 		mtlr 0
 6753 0180 83810010 		lwz 28,16(1)
 6754 0184 83A10014 		lwz 29,20(1)
 6755 0188 83C10018 		lwz 30,24(1)
 6756              	.LVL543:
 6757 018c 83E1001C 		lwz 31,28(1)
 6758              	.LVL544:
 6759 0190 38210020 		addi 1,1,32
 6760              		.cfi_restore 26
 6761              		.cfi_restore 27
 6762              		.cfi_restore 28
 6763              		.cfi_restore 29
 6764              		.cfi_restore 30
 6765              		.cfi_restore 31
 6766              	.LCFI97:
 6767              		.cfi_def_cfa_offset 0
 6768 0194 4E800020 		blr
 6769              		.cfi_endproc
 6770              	.LFE1825:
 6771              		.size	_ZNSt8_Rb_treeIPN7sigslot12_signal_baseINS0_15single_threadedEEES4_St9_IdentityIS4_ESt4lessI
 6772              		.section	.text._ZN7sigslot7signal3IP9GuiButtoniRK6_POINTNS_15single_threadedEE7connectI16GuiOption
 6773              		.align 2
 6774              		.weak	_ZN7sigslot7signal3IP9GuiButtoniRK6_POINTNS_15single_threadedEE7connectI16GuiOptionBrowserEE
 6775              		.type	_ZN7sigslot7signal3IP9GuiButtoniRK6_POINTNS_15single_threadedEE7connectI16GuiOptionBrowserEE
 6776              	_ZN7sigslot7signal3IP9GuiButtoniRK6_POINTNS_15single_threadedEE7connectI16GuiOptionBrowserEEvPT_MSA
 6777              	.LFB1617:
 6778              		.loc 1 2308 0
 6779              		.cfi_startproc
 6780              		.cfi_personality 0,__gxx_personality_v0
 6781              		.cfi_lsda 0,.LLSDA1617
 6782              	.LVL545:
 6783 0000 7C0802A6 		mflr 0
 6784 0004 9421FFD0 		stwu 1,-48(1)
 6785              	.LCFI98:
 6786              		.cfi_def_cfa_offset 48
 6787              		.cfi_register 65, 0
 6788 0008 9361001C 		stw 27,28(1)
 6789 000c 90010034 		stw 0,52(1)
 6790 0010 93C10028 		stw 30,40(1)
 6791 0014 7C9E2378 		mr 30,4
 6792              		.cfi_offset 30, -8
 6793              		.cfi_offset 65, 4
 6794              		.cfi_offset 27, -20
 6795              	.LBB3706:
 6796              	.LBB3707:
 6797              	.LBB3708:
 6798              		.loc 1 338 0
 6799 0018 81230000 		lwz 9,0(3)
 6800              	.LBE3708:
 6801              	.LBE3707:
 6802              	.LBE3706:
 6803              		.loc 1 2308 0
 6804 001c 93E1002C 		stw 31,44(1)
 6805 0020 7C7F1B78 		mr 31,3
 6806              		.cfi_offset 31, -4
 6807              	.LVL546:
 6808              	.LBB3761:
 6809              	.LBB3712:
 6810              	.LBB3709:
 6811              		.loc 1 338 0
 6812 0024 80090008 		lwz 0,8(9)
 6813              	.LBE3709:
 6814              	.LBE3712:
 6815              	.LBE3761:
 6816              		.loc 1 2308 0
 6817 0028 93810020 		stw 28,32(1)
 6818 002c 93A10024 		stw 29,36(1)
 6819              	.LBB3762:
 6820              	.LBB3713:
 6821              	.LBB3710:
 6822              		.loc 1 338 0
 6823 0030 7C0903A6 		mtctr 0
 6824              	.LBE3710:
 6825              	.LBE3713:
 6826              	.LBE3762:
 6827              		.loc 1 2308 0
