	.file	"gui_element.cpp"
	.section	".text"
.Ltext0:
	.section	.text._ZN7sigslot15single_threadedD2Ev,"axG",@progbits,_ZN7sigslot15single_threadedD5Ev,comdat
	.align 2
	.weak	_ZN7sigslot15single_threadedD2Ev
	.type	_ZN7sigslot15single_threadedD2Ev, @function
_ZN7sigslot15single_threadedD2Ev:
.LFB1148:
	.file 1 "d:/Projects/SaveGameManager/savegame-manager-gx/trunk/source/GUI/../sigslot.h"
	.loc 1 104 0
	.cfi_startproc
.LVL0:
.LBB1414:
	.loc 1 105 0
	lis 9,_ZTVN7sigslot15single_threadedE+8@ha
.LBE1414:
	.loc 1 107 0
.LBB1415:
	.loc 1 105 0
	la 0,_ZTVN7sigslot15single_threadedE+8@l(9)
	stw 0,0(3)
.LBE1415:
	.loc 1 107 0
	blr
	.cfi_endproc
.LFE1148:
	.size	_ZN7sigslot15single_threadedD2Ev, .-_ZN7sigslot15single_threadedD2Ev
	.section	.text._ZN7sigslot15single_threaded4lockEv,"axG",@progbits,_ZN7sigslot15single_threaded4lockEv,comdat
	.align 2
	.weak	_ZN7sigslot15single_threaded4lockEv
	.type	_ZN7sigslot15single_threaded4lockEv, @function
_ZN7sigslot15single_threaded4lockEv:
.LFB1151:
	.loc 1 109 0
	.cfi_startproc
.LVL1:
	.loc 1 112 0
	blr
	.cfi_endproc
.LFE1151:
	.size	_ZN7sigslot15single_threaded4lockEv, .-_ZN7sigslot15single_threaded4lockEv
	.section	.text._ZN7sigslot15single_threaded6unlockEv,"axG",@progbits,_ZN7sigslot15single_threaded6unlockEv,comdat
	.align 2
	.weak	_ZN7sigslot15single_threaded6unlockEv
	.type	_ZN7sigslot15single_threaded6unlockEv, @function
_ZN7sigslot15single_threaded6unlockEv:
.LFB1152:
	.loc 1 114 0
	.cfi_startproc
.LVL2:
	.loc 1 117 0
	blr
	.cfi_endproc
.LFE1152:
	.size	_ZN7sigslot15single_threaded6unlockEv, .-_ZN7sigslot15single_threaded6unlockEv
	.section	.text._ZN10GuiElement9SetParentEPS_,"axG",@progbits,_ZN10GuiElement9SetParentEPS_,comdat
	.align 2
	.weak	_ZN10GuiElement9SetParentEPS_
	.type	_ZN10GuiElement9SetParentEPS_, @function
_ZN10GuiElement9SetParentEPS_:
.LFB1384:
	.file 2 "d:/Projects/SaveGameManager/savegame-manager-gx/trunk/source/GUI/gui_element.h"
	.loc 2 92 0
	.cfi_startproc
.LVL3:
	.loc 2 92 0
	stw 4,96(3)
	blr
	.cfi_endproc
.LFE1384:
	.size	_ZN10GuiElement9SetParentEPS_, .-_ZN10GuiElement9SetParentEPS_
	.section	.text._ZN10GuiElement9GetParentEv,"axG",@progbits,_ZN10GuiElement9GetParentEv,comdat
	.align 2
	.weak	_ZN10GuiElement9GetParentEv
	.type	_ZN10GuiElement9GetParentEv, @function
_ZN10GuiElement9GetParentEv:
.LFB1385:
	.loc 2 95 0
	.cfi_startproc
.LVL4:
	.loc 2 95 0
	lwz 3,96(3)
.LVL5:
	blr
	.cfi_endproc
.LFE1385:
	.size	_ZN10GuiElement9GetParentEv, .-_ZN10GuiElement9GetParentEv
	.section	.text._ZN10GuiElement12GetZPositionEv,"axG",@progbits,_ZN10GuiElement12GetZPositionEv,comdat
	.align 2
	.weak	_ZN10GuiElement12GetZPositionEv
	.type	_ZN10GuiElement12GetZPositionEv, @function
_ZN10GuiElement12GetZPositionEv:
.LFB1386:
	.loc 2 106 0
	.cfi_startproc
.LVL6:
	mflr 0
	stwu 1,-16(1)
.LCFI0:
	.cfi_def_cfa_offset 16
	.cfi_register 65, 0
	stw 31,12(1)
	mr 31,3
	.cfi_offset 31, -4
	stw 0,20(1)
.LBB1416:
	.loc 2 110 0
	lwz 11,96(3)
	.loc 2 108 0
	li 3,0
.LVL7:
	.loc 2 110 0
	cmpwi 7,11,0
	beq- 7,.L8
	.cfi_offset 65, 4
	.loc 2 111 0
	lwz 9,0(11)
	mr 3,11
	lwz 0,24(9)
	mtctr 0
	bctrl
.LVL8:
.L8:
	.loc 2 113 0
	lwz 0,52(31)
.LBE1416:
	.loc 2 114 0
	lwz 31,12(1)
.LVL9:
	add 3,3,0
.LVL10:
	lwz 0,20(1)
	addi 1,1,16
.LCFI1:
	.cfi_def_cfa_offset 0
	.cfi_restore 31
	mtlr 0
	blr
	.cfi_endproc
.LFE1386:
	.size	_ZN10GuiElement12GetZPositionEv, .-_ZN10GuiElement12GetZPositionEv
	.section	.text._ZN10GuiElement10GetLeftPosEv,"axG",@progbits,_ZN10GuiElement10GetLeftPosEv,comdat
	.align 2
	.weak	_ZN10GuiElement10GetLeftPosEv
	.type	_ZN10GuiElement10GetLeftPosEv, @function
_ZN10GuiElement10GetLeftPosEv:
.LFB1387:
	.loc 2 116 0
	.cfi_startproc
.LVL11:
	.loc 2 116 0
	lwz 3,44(3)
.LVL12:
	blr
	.cfi_endproc
.LFE1387:
	.size	_ZN10GuiElement10GetLeftPosEv, .-_ZN10GuiElement10GetLeftPosEv
	.section	.text._ZN10GuiElement9GetTopPosEv,"axG",@progbits,_ZN10GuiElement9GetTopPosEv,comdat
	.align 2
	.weak	_ZN10GuiElement9GetTopPosEv
	.type	_ZN10GuiElement9GetTopPosEv, @function
_ZN10GuiElement9GetTopPosEv:
.LFB1388:
	.loc 2 118 0
	.cfi_startproc
.LVL13:
	.loc 2 118 0
	lwz 3,48(3)
.LVL14:
	blr
	.cfi_endproc
.LFE1388:
	.size	_ZN10GuiElement9GetTopPosEv, .-_ZN10GuiElement9GetTopPosEv
	.section	.text._ZN10GuiElement8GetWidthEv,"axG",@progbits,_ZN10GuiElement8GetWidthEv,comdat
	.align 2
	.weak	_ZN10GuiElement8GetWidthEv
	.type	_ZN10GuiElement8GetWidthEv, @function
_ZN10GuiElement8GetWidthEv:
.LFB1389:
	.loc 2 121 0
	.cfi_startproc
.LVL15:
	.loc 2 121 0
	lwz 3,36(3)
.LVL16:
	blr
	.cfi_endproc
.LFE1389:
	.size	_ZN10GuiElement8GetWidthEv, .-_ZN10GuiElement8GetWidthEv
	.section	.text._ZN10GuiElement9GetHeightEv,"axG",@progbits,_ZN10GuiElement9GetHeightEv,comdat
	.align 2
	.weak	_ZN10GuiElement9GetHeightEv
	.type	_ZN10GuiElement9GetHeightEv, @function
_ZN10GuiElement9GetHeightEv:
.LFB1390:
	.loc 2 124 0
	.cfi_startproc
.LVL17:
	.loc 2 124 0
	lwz 3,40(3)
.LVL18:
	blr
	.cfi_endproc
.LFE1390:
	.size	_ZN10GuiElement9GetHeightEv, .-_ZN10GuiElement9GetHeightEv
	.section	.text._ZN10GuiElement7SetSizeEii,"axG",@progbits,_ZN10GuiElement7SetSizeEii,comdat
	.align 2
	.weak	_ZN10GuiElement7SetSizeEii
	.type	_ZN10GuiElement7SetSizeEii, @function
_ZN10GuiElement7SetSizeEii:
.LFB1391:
	.loc 2 128 0
	.cfi_startproc
.LVL19:
	.loc 2 130 0
	stw 4,36(3)
	.loc 2 132 0
	.loc 2 131 0
	stw 5,40(3)
	.loc 2 132 0
	blr
	.cfi_endproc
.LFE1391:
	.size	_ZN10GuiElement7SetSizeEii, .-_ZN10GuiElement7SetSizeEii
	.section	.text._ZN10GuiElement10SetVisibleEb,"axG",@progbits,_ZN10GuiElement10SetVisibleEb,comdat
	.align 2
	.weak	_ZN10GuiElement10SetVisibleEb
	.type	_ZN10GuiElement10SetVisibleEb, @function
_ZN10GuiElement10SetVisibleEb:
.LFB1392:
	.loc 2 135 0
	.cfi_startproc
	.cfi_personality 0,__gxx_personality_v0
	.cfi_lsda 0,.LLSDA1392
.LVL20:
	mflr 0
	stwu 1,-32(1)
.LCFI2:
	.cfi_def_cfa_offset 32
	.cfi_register 65, 0
	stw 27,12(1)
.LBB1417:
.LBB1418:
	.loc 1 2270 0
	addi 27,3,4
	.cfi_offset 27, -20
.LBE1418:
.LBE1417:
	.loc 2 135 0
	stw 0,36(1)
	stw 30,24(1)
	mr 30,3
	.cfi_offset 30, -8
	.cfi_offset 65, 4
.LBB1441:
.LBB1435:
.LBB1419:
.LBB1420:
	.loc 1 338 0
	lwz 9,4(3)
	mr 3,27
.LVL21:
.LBE1420:
.LBE1419:
.LBE1435:
.LBE1441:
	.loc 2 135 0
	stw 28,16(1)
	mr 28,4
	.cfi_offset 28, -16
.LBB1442:
.LBB1436:
.LBB1424:
.LBB1421:
	.loc 1 338 0
	lwz 0,8(9)
.LBE1421:
.LBE1424:
.LBE1436:
.LBE1442:
	.loc 2 135 0
	stw 29,20(1)
.LBB1443:
	.file 3 "d:/Projects/SaveGameManager/savegame-manager-gx/trunk/source/GUI/gui_element.cpp"
	.loc 3 394 0
	mr 29,30
	.cfi_offset 29, -12
.LBE1443:
	.loc 2 135 0
	stw 31,28(1)
.LBB1444:
.LBB1437:
.LBB1425:
.LBB1422:
	.loc 1 338 0
	mtctr 0
.LBE1422:
.LBE1425:
.LBE1437:
.LBE1444:
	.loc 2 137 0
	stb 4,29(30)
.LVL22:
.LEHB0:
.LBB1445:
.LBB1438:
.LBB1426:
.LBB1423:
	.loc 1 338 0
	.cfi_offset 31, -4
	bctrl
.LEHE0:
.LVL23:
.LBE1423:
.LBE1426:
.LBE1438:
	.loc 3 394 0
	lwzu 31,8(29)
.LVL24:
.LBB1439:
	.loc 1 2274 0
	cmpw 7,31,29
	beq- 7,.L17
.LVL25:
.L24:
	.loc 1 2279 0
	lwz 3,8(31)
	mr 4,30
	mr 5,28
.LBB1427:
.LBB1428:
	.file 4 "d:\\devkitpro\\devkitppc\\bin\\../lib/gcc/powerpc-eabi/4.6.3/../../../../powerpc-eabi/include/c++/4.6.3/bits/stl_list.h"
	.loc 4 234 0
	lwz 31,0(31)
.LVL26:
.LBE1428:
.LBE1427:
	.loc 1 2279 0
	lwz 9,0(3)
	lwz 0,12(9)
	mtctr 0
.LEHB1:
	bctrl
.LEHE1:
.LVL27:
	.loc 1 2274 0
	cmpw 7,29,31
	bne+ 7,.L24
.LVL28:
.L17:
.LBB1429:
.LBB1430:
.LBB1431:
	.loc 1 343 0
	lwz 9,4(30)
	mr 3,27
	lwz 0,12(9)
	mtctr 0
.LEHB2:
	bctrl
.LEHE2:
.LBE1431:
.LBE1430:
.LBE1429:
.LBE1439:
.LBE1445:
	.loc 2 139 0
	lwz 0,36(1)
	lwz 27,12(1)
.LVL29:
	mtlr 0
	lwz 28,16(1)
.LVL30:
	lwz 29,20(1)
	lwz 30,24(1)
.LVL31:
	lwz 31,28(1)
.LVL32:
	addi 1,1,32
	.cfi_remember_state
.LCFI3:
	.cfi_def_cfa_offset 0
	.cfi_restore 31
	.cfi_restore 30
	.cfi_restore 29
	.cfi_restore 28
	.cfi_restore 27
	blr
.LVL33:
.L23:
.LCFI4:
	.cfi_restore_state
.LBB1446:
.LBB1440:
.LBB1432:
.LBB1433:
.LBB1434:
	.loc 1 343 0
	lwz 9,4(30)
	mr 31,3
.LVL34:
	mr 3,27
	lwz 0,12(9)
	mtctr 0
	bctrl
	mr 3,31
.LEHB3:
	bl _Unwind_Resume
.LEHE3:
.LBE1434:
.LBE1433:
.LBE1432:
.LBE1440:
.LBE1446:
	.cfi_endproc
.LFE1392:
	.globl __gxx_personality_v0
	.section	.gcc_except_table,"a",@progbits
.LLSDA1392:
	.byte	0xff
	.byte	0xff
	.byte	0x1
	.uleb128 .LLSDACSE1392-.LLSDACSB1392
.LLSDACSB1392:
	.uleb128 .LEHB0-.LFB1392
	.uleb128 .LEHE0-.LEHB0
	.uleb128 0
	.uleb128 0
	.uleb128 .LEHB1-.LFB1392
	.uleb128 .LEHE1-.LEHB1
	.uleb128 .L23-.LFB1392
	.uleb128 0
	.uleb128 .LEHB2-.LFB1392
	.uleb128 .LEHE2-.LEHB2
	.uleb128 0
	.uleb128 0
	.uleb128 .LEHB3-.LFB1392
	.uleb128 .LEHE3-.LEHB3
	.uleb128 0
	.uleb128 0
.LLSDACSE1392:
	.section	.text._ZN10GuiElement10SetVisibleEb,"axG",@progbits,_ZN10GuiElement10SetVisibleEb,comdat
	.size	_ZN10GuiElement10SetVisibleEb, .-_ZN10GuiElement10SetVisibleEb
	.section	.text._ZN10GuiElement9IsVisibleEv,"axG",@progbits,_ZN10GuiElement9IsVisibleEv,comdat
	.align 2
	.weak	_ZN10GuiElement9IsVisibleEv
	.type	_ZN10GuiElement9IsVisibleEv, @function
_ZN10GuiElement9IsVisibleEv:
.LFB1393:
	.loc 2 142 0
	.cfi_startproc
.LVL35:
	.loc 2 142 0
	lbz 3,29(3)
.LVL36:
	blr
	.cfi_endproc
.LFE1393:
	.size	_ZN10GuiElement9IsVisibleEv, .-_ZN10GuiElement9IsVisibleEv
	.section	.text._ZN10GuiElement12IsSelectableEv,"axG",@progbits,_ZN10GuiElement12IsSelectableEv,comdat
	.align 2
	.weak	_ZN10GuiElement12IsSelectableEv
	.type	_ZN10GuiElement12IsSelectableEv, @function
_ZN10GuiElement12IsSelectableEv:
.LFB1394:
	.loc 2 145 0
	.cfi_startproc
.LVL37:
	.loc 2 149 0
	lwz 0,72(3)
	li 9,0
	cmpwi 7,0,4
	beq- 7,.L27
	.loc 2 149 0 is_stmt 0 discriminator 1
	cmpwi 7,0,2
	beq- 7,.L27
	.loc 2 149 0 discriminator 3
	lbz 9,30(3)
.L27:
	.loc 2 150 0 is_stmt 1 discriminator 5
	mr 3,9
.LVL38:
	blr
	.cfi_endproc
.LFE1394:
	.size	_ZN10GuiElement12IsSelectableEv, .-_ZN10GuiElement12IsSelectableEv
	.section	.text._ZN10GuiElement11IsClickableEv,"axG",@progbits,_ZN10GuiElement11IsClickableEv,comdat
	.align 2
	.weak	_ZN10GuiElement11IsClickableEv
	.type	_ZN10GuiElement11IsClickableEv, @function
_ZN10GuiElement11IsClickableEv:
.LFB1395:
	.loc 2 153 0
	.cfi_startproc
.LVL39:
	.loc 2 158 0
	lwz 0,72(3)
	li 9,0
	cmpwi 7,0,4
	beq- 7,.L31
	.loc 2 158 0 is_stmt 0 discriminator 1
	cmpwi 7,0,2
	beq- 7,.L31
	.loc 2 158 0 discriminator 3
	cmpwi 7,0,3
	beq- 7,.L31
	.loc 2 158 0 discriminator 4
	lbz 9,31(3)
.L31:
	.loc 2 159 0 is_stmt 1 discriminator 6
	mr 3,9
.LVL40:
	blr
	.cfi_endproc
.LFE1395:
	.size	_ZN10GuiElement11IsClickableEv, .-_ZN10GuiElement11IsClickableEv
	.section	.text._ZN10GuiElement10IsHoldableEv,"axG",@progbits,_ZN10GuiElement10IsHoldableEv,comdat
	.align 2
	.weak	_ZN10GuiElement10IsHoldableEv
	.type	_ZN10GuiElement10IsHoldableEv, @function
_ZN10GuiElement10IsHoldableEv:
.LFB1396:
	.loc 2 162 0
	.cfi_startproc
.LVL41:
	.loc 2 162 0
	lwz 9,72(3)
	li 0,0
	cmpwi 7,9,4
	beq- 7,.L36
	.loc 2 162 0 is_stmt 0 discriminator 1
	lbz 0,32(3)
.L36:
	.loc 2 162 0 discriminator 4
	mr 3,0
.LVL42:
	blr
	.cfi_endproc
.LFE1396:
	.size	_ZN10GuiElement10IsHoldableEv, .-_ZN10GuiElement10IsHoldableEv
	.section	.text._ZN10GuiElement13SetSelectableEb,"axG",@progbits,_ZN10GuiElement13SetSelectableEb,comdat
	.align 2
	.weak	_ZN10GuiElement13SetSelectableEb
	.type	_ZN10GuiElement13SetSelectableEb, @function
_ZN10GuiElement13SetSelectableEb:
.LFB1397:
	.loc 2 165 0 is_stmt 1
	.cfi_startproc
.LVL43:
	.loc 2 165 0
	stb 4,30(3)
	blr
	.cfi_endproc
.LFE1397:
	.size	_ZN10GuiElement13SetSelectableEb, .-_ZN10GuiElement13SetSelectableEb
	.section	.text._ZN10GuiElement12SetClickableEb,"axG",@progbits,_ZN10GuiElement12SetClickableEb,comdat
	.align 2
	.weak	_ZN10GuiElement12SetClickableEb
	.type	_ZN10GuiElement12SetClickableEb, @function
_ZN10GuiElement12SetClickableEb:
.LFB1398:
	.loc 2 168 0
	.cfi_startproc
.LVL44:
	.loc 2 168 0
	stb 4,31(3)
	blr
	.cfi_endproc
.LFE1398:
	.size	_ZN10GuiElement12SetClickableEb, .-_ZN10GuiElement12SetClickableEb
	.section	.text._ZN10GuiElement11SetHoldableEb,"axG",@progbits,_ZN10GuiElement11SetHoldableEb,comdat
	.align 2
	.weak	_ZN10GuiElement11SetHoldableEb
	.type	_ZN10GuiElement11SetHoldableEb, @function
_ZN10GuiElement11SetHoldableEb:
.LFB1399:
	.loc 2 171 0
	.cfi_startproc
.LVL45:
	.loc 2 171 0
	stb 4,32(3)
	blr
	.cfi_endproc
.LFE1399:
	.size	_ZN10GuiElement11SetHoldableEb, .-_ZN10GuiElement11SetHoldableEb
	.section	.text._ZN10GuiElement8GetStateEv,"axG",@progbits,_ZN10GuiElement8GetStateEv,comdat
	.align 2
	.weak	_ZN10GuiElement8GetStateEv
	.type	_ZN10GuiElement8GetStateEv, @function
_ZN10GuiElement8GetStateEv:
.LFB1400:
	.loc 2 178 0
	.cfi_startproc
.LVL46:
	.loc 2 178 0
	lwz 3,72(3)
.LVL47:
	blr
	.cfi_endproc
.LFE1400:
	.size	_ZN10GuiElement8GetStateEv, .-_ZN10GuiElement8GetStateEv
	.section	.text._ZN10GuiElement12GetStateChanEv,"axG",@progbits,_ZN10GuiElement12GetStateChanEv,comdat
	.align 2
	.weak	_ZN10GuiElement12GetStateChanEv
	.type	_ZN10GuiElement12GetStateChanEv, @function
_ZN10GuiElement12GetStateChanEv:
.LFB1401:
	.loc 2 181 0
	.cfi_startproc
.LVL48:
	.loc 2 181 0
	lwz 3,76(3)
.LVL49:
	blr
	.cfi_endproc
.LFE1401:
	.size	_ZN10GuiElement12GetStateChanEv, .-_ZN10GuiElement12GetStateChanEv
	.section	.text._ZN10GuiElement8SetAlphaEi,"axG",@progbits,_ZN10GuiElement8SetAlphaEi,comdat
	.align 2
	.weak	_ZN10GuiElement8SetAlphaEi
	.type	_ZN10GuiElement8SetAlphaEi, @function
_ZN10GuiElement8SetAlphaEi:
.LFB1403:
	.loc 2 190 0
	.cfi_startproc
.LVL50:
	.loc 2 190 0
	stw 4,56(3)
	blr
	.cfi_endproc
.LFE1403:
	.size	_ZN10GuiElement8SetAlphaEi, .-_ZN10GuiElement8SetAlphaEi
	.section	.text._ZN10GuiElement8GetAlphaEv,"axG",@progbits,_ZN10GuiElement8GetAlphaEv,comdat
	.align 2
	.weak	_ZN10GuiElement8GetAlphaEv
	.type	_ZN10GuiElement8GetAlphaEv, @function
_ZN10GuiElement8GetAlphaEv:
.LFB1404:
	.loc 2 194 0
	.cfi_startproc
.LVL51:
	mflr 0
	stwu 1,-40(1)
.LCFI5:
	.cfi_def_cfa_offset 40
	.cfi_register 65, 0
	stw 31,36(1)
	stw 0,44(1)
.LBB1447:
	.loc 2 198 0
	lwz 31,108(3)
	.cfi_offset 65, 4
	.cfi_offset 31, -4
	cmpwi 7,31,0
	blt- 7,.L47
.L45:
.LVL52:
	.loc 2 203 0
	lwz 3,96(3)
.LVL53:
	cmpwi 7,3,0
	beq- 7,.L46
	.loc 2 204 0
	lwz 9,0(3)
	xoris 31,31,0x8000
.LVL54:
	lwz 0,100(9)
	mtctr 0
	bctrl
	lis 0,0x4330
	xoris 3,3,0x8000
	stw 0,16(1)
	stw 3,20(1)
	lis 9,.LC1@ha
	lfs 0,.LC1@l(9)
	lis 9,.LC2@ha
	lfd 13,16(1)
	lfs 12,.LC2@l(9)
	addi 9,1,24
	fsub 13,13,0
	stw 31,12(1)
	stw 0,8(1)
	frsp 13,13
	fdivs 13,13,12
	lfd 12,8(1)
	fsub 0,12,0
	frsp 0,0
	fmuls 0,0,13
	fctiwz 0,0
	stfiwx 0,0,9
	lwz 31,24(1)
.LVL55:
.L46:
.LBE1447:
	.loc 2 207 0
	lwz 0,44(1)
	mr 3,31
	lwz 31,36(1)
.LVL56:
	mtlr 0
	addi 1,1,40
	.cfi_remember_state
.LCFI6:
	.cfi_def_cfa_offset 0
	.cfi_restore 31
	blr
.LVL57:
.L47:
.LCFI7:
	.cfi_restore_state
.LBB1448:
	.loc 2 201 0
	lwz 31,56(3)
.LVL58:
	b .L45
.LBE1448:
	.cfi_endproc
.LFE1404:
	.size	_ZN10GuiElement8GetAlphaEv, .-_ZN10GuiElement8GetAlphaEv
	.section	.text._ZN10GuiElement8SetScaleEf,"axG",@progbits,_ZN10GuiElement8SetScaleEf,comdat
	.align 2
	.weak	_ZN10GuiElement8SetScaleEf
	.type	_ZN10GuiElement8SetScaleEf, @function
_ZN10GuiElement8SetScaleEf:
.LFB1405:
	.loc 2 210 0
	.cfi_startproc
.LVL59:
	.loc 2 212 0
	stfs 1,60(3)
	.loc 2 214 0
	.loc 2 213 0
	stfs 1,64(3)
	.loc 2 214 0
	blr
	.cfi_endproc
.LFE1405:
	.size	_ZN10GuiElement8SetScaleEf, .-_ZN10GuiElement8SetScaleEf
	.section	.text._ZN10GuiElement9SetScaleXEf,"axG",@progbits,_ZN10GuiElement9SetScaleXEf,comdat
	.align 2
	.weak	_ZN10GuiElement9SetScaleXEf
	.type	_ZN10GuiElement9SetScaleXEf, @function
_ZN10GuiElement9SetScaleXEf:
.LFB1406:
	.loc 2 217 0
	.cfi_startproc
.LVL60:
	.loc 2 217 0
	stfs 1,60(3)
	blr
	.cfi_endproc
.LFE1406:
	.size	_ZN10GuiElement9SetScaleXEf, .-_ZN10GuiElement9SetScaleXEf
	.section	.text._ZN10GuiElement9SetScaleYEf,"axG",@progbits,_ZN10GuiElement9SetScaleYEf,comdat
	.align 2
	.weak	_ZN10GuiElement9SetScaleYEf
	.type	_ZN10GuiElement9SetScaleYEf, @function
_ZN10GuiElement9SetScaleYEf:
.LFB1407:
	.loc 2 220 0
	.cfi_startproc
.LVL61:
	.loc 2 220 0
	stfs 1,64(3)
	blr
	.cfi_endproc
.LFE1407:
	.size	_ZN10GuiElement9SetScaleYEf, .-_ZN10GuiElement9SetScaleYEf
	.section	.text._ZN10GuiElement8GetScaleEv,"axG",@progbits,_ZN10GuiElement8GetScaleEv,comdat
	.align 2
	.weak	_ZN10GuiElement8GetScaleEv
	.type	_ZN10GuiElement8GetScaleEv, @function
_ZN10GuiElement8GetScaleEv:
.LFB1408:
	.loc 2 223 0
	.cfi_startproc
.LVL62:
	mflr 0
	stwu 1,-16(1)
.LCFI8:
	.cfi_def_cfa_offset 16
	.cfi_register 65, 0
.LBB1449:
	.loc 2 225 0
	lis 9,.LC3@ha
.LBE1449:
	.loc 2 223 0
	stfd 31,8(1)
	stw 0,20(1)
.LBB1450:
	.loc 2 225 0
	lfs 0,64(3)
	lfs 31,60(3)
	.cfi_offset 65, 4
	.cfi_offset 63, -8
	.loc 2 227 0
	lwz 11,96(3)
	.loc 2 225 0
	fadds 31,31,0
	lfs 0,.LC3@l(9)
	.loc 2 227 0
	cmpwi 7,11,0
	.loc 2 225 0
	fmuls 31,31,0
	lfs 0,112(3)
	fmuls 31,31,0
.LVL63:
	.loc 2 227 0
	beq- 7,.L52
	.loc 2 228 0
	lwz 9,0(11)
	mr 3,11
.LVL64:
	lwz 0,116(9)
	mtctr 0
	bctrl
	fmuls 31,31,1
.LVL65:
.L52:
.LBE1450:
	.loc 2 231 0
	lwz 0,20(1)
	fmr 1,31
	lfd 31,8(1)
.LVL66:
	mtlr 0
	addi 1,1,16
.LCFI9:
	.cfi_def_cfa_offset 0
	.cfi_restore 63
	blr
	.cfi_endproc
.LFE1408:
	.size	_ZN10GuiElement8GetScaleEv, .-_ZN10GuiElement8GetScaleEv
	.section	.text._ZN10GuiElement9GetScaleXEv,"axG",@progbits,_ZN10GuiElement9GetScaleXEv,comdat
	.align 2
	.weak	_ZN10GuiElement9GetScaleXEv
	.type	_ZN10GuiElement9GetScaleXEv, @function
_ZN10GuiElement9GetScaleXEv:
.LFB1409:
	.loc 2 234 0
	.cfi_startproc
.LVL67:
	mflr 0
	stwu 1,-16(1)
.LCFI10:
	.cfi_def_cfa_offset 16
	.cfi_register 65, 0
	stfd 31,8(1)
	stw 0,20(1)
.LBB1451:
	.loc 2 238 0
	lwz 11,96(3)
	.loc 2 236 0
	lfs 31,60(3)
	.cfi_offset 65, 4
	.cfi_offset 63, -8
	.loc 2 238 0
	cmpwi 7,11,0
	.loc 2 236 0
	lfs 0,112(3)
	fmuls 31,31,0
.LVL68:
	.loc 2 238 0
	beq- 7,.L54
	.loc 2 239 0
	lwz 9,0(11)
	mr 3,11
.LVL69:
	lwz 0,120(9)
	mtctr 0
	bctrl
	fmuls 31,31,1
.LVL70:
.L54:
.LBE1451:
	.loc 2 242 0
	lwz 0,20(1)
	fmr 1,31
	lfd 31,8(1)
.LVL71:
	mtlr 0
	addi 1,1,16
.LCFI11:
	.cfi_def_cfa_offset 0
	.cfi_restore 63
	blr
	.cfi_endproc
.LFE1409:
	.size	_ZN10GuiElement9GetScaleXEv, .-_ZN10GuiElement9GetScaleXEv
	.section	.text._ZN10GuiElement9GetScaleYEv,"axG",@progbits,_ZN10GuiElement9GetScaleYEv,comdat
	.align 2
	.weak	_ZN10GuiElement9GetScaleYEv
	.type	_ZN10GuiElement9GetScaleYEv, @function
_ZN10GuiElement9GetScaleYEv:
.LFB1410:
	.loc 2 245 0
	.cfi_startproc
.LVL72:
	mflr 0
	stwu 1,-16(1)
.LCFI12:
	.cfi_def_cfa_offset 16
	.cfi_register 65, 0
	stfd 31,8(1)
	stw 0,20(1)
.LBB1452:
	.loc 2 249 0
	lwz 11,96(3)
	.loc 2 247 0
	lfs 31,64(3)
	.cfi_offset 65, 4
	.cfi_offset 63, -8
	.loc 2 249 0
	cmpwi 7,11,0
	.loc 2 247 0
	lfs 0,112(3)
	fmuls 31,31,0
.LVL73:
	.loc 2 249 0
	beq- 7,.L56
	.loc 2 250 0
	lwz 9,0(11)
	mr 3,11
.LVL74:
	lwz 0,124(9)
	mtctr 0
	bctrl
	fmuls 31,31,1
.LVL75:
.L56:
.LBE1452:
	.loc 2 253 0
	lwz 0,20(1)
	fmr 1,31
	lfd 31,8(1)
.LVL76:
	mtlr 0
	addi 1,1,16
.LCFI13:
	.cfi_def_cfa_offset 0
	.cfi_restore 63
	blr
	.cfi_endproc
.LFE1410:
	.size	_ZN10GuiElement9GetScaleYEv, .-_ZN10GuiElement9GetScaleYEv
	.section	.text._ZN10GuiElement6RumbleEv,"axG",@progbits,_ZN10GuiElement6RumbleEv,comdat
	.align 2
	.weak	_ZN10GuiElement6RumbleEv
	.type	_ZN10GuiElement6RumbleEv, @function
_ZN10GuiElement6RumbleEv:
.LFB1411:
	.loc 2 256 0
	.cfi_startproc
.LVL77:
	.loc 2 256 0
	lbz 3,28(3)
.LVL78:
	blr
	.cfi_endproc
.LFE1411:
	.size	_ZN10GuiElement6RumbleEv, .-_ZN10GuiElement6RumbleEv
	.section	.text._ZN10GuiElement9SetRumbleEb,"axG",@progbits,_ZN10GuiElement9SetRumbleEb,comdat
	.align 2
	.weak	_ZN10GuiElement9SetRumbleEb
	.type	_ZN10GuiElement9SetRumbleEb, @function
_ZN10GuiElement9SetRumbleEb:
.LFB1412:
	.loc 2 259 0
	.cfi_startproc
.LVL79:
	.loc 2 259 0
	stb 4,28(3)
	blr
	.cfi_endproc
.LFE1412:
	.size	_ZN10GuiElement9SetRumbleEb, .-_ZN10GuiElement9SetRumbleEb
	.section	.text._ZN10GuiElement13SetEffectGrowEv,"axG",@progbits,_ZN10GuiElement13SetEffectGrowEv,comdat
	.align 2
	.weak	_ZN10GuiElement13SetEffectGrowEv
	.type	_ZN10GuiElement13SetEffectGrowEv, @function
_ZN10GuiElement13SetEffectGrowEv:
.LFB1413:
	.loc 2 271 0
	.cfi_startproc
.LVL80:
	mflr 0
	stwu 1,-8(1)
.LCFI14:
	.cfi_def_cfa_offset 8
	.cfi_register 65, 0
	lwz 9,0(3)
	li 4,256
	li 5,4
	li 6,110
	stw 0,12(1)
	.loc 2 271 0
	lwz 0,140(9)
	.cfi_offset 65, 4
	mtctr 0
	bctrl
.LVL81:
	lwz 0,12(1)
	addi 1,1,8
.LCFI15:
	.cfi_def_cfa_offset 0
	mtlr 0
	blr
	.cfi_endproc
.LFE1413:
	.size	_ZN10GuiElement13SetEffectGrowEv, .-_ZN10GuiElement13SetEffectGrowEv
	.section	.text._ZNK10GuiElement9GetEffectEv,"axG",@progbits,_ZNK10GuiElement9GetEffectEv,comdat
	.align 2
	.weak	_ZNK10GuiElement9GetEffectEv
	.type	_ZNK10GuiElement9GetEffectEv, @function
_ZNK10GuiElement9GetEffectEv:
.LFB1414:
	.loc 2 276 0
	.cfi_startproc
.LVL82:
	.loc 2 276 0
	lwz 3,120(3)
.LVL83:
	blr
	.cfi_endproc
.LFE1414:
	.size	_ZNK10GuiElement9GetEffectEv, .-_ZNK10GuiElement9GetEffectEv
	.section	.text._ZNK10GuiElement10IsAnimatedEv,"axG",@progbits,_ZNK10GuiElement10IsAnimatedEv,comdat
	.align 2
	.weak	_ZNK10GuiElement10IsAnimatedEv
	.type	_ZNK10GuiElement10IsAnimatedEv, @function
_ZNK10GuiElement10IsAnimatedEv:
.LFB1415:
	.loc 2 278 0
	.cfi_startproc
.LVL84:
	mflr 0
	stwu 1,-8(1)
.LCFI16:
	.cfi_def_cfa_offset 8
	.cfi_register 65, 0
	stw 0,12(1)
	.loc 2 278 0
	lwz 9,0(3)
	lwz 0,152(9)
	.cfi_offset 65, 4
	mtctr 0
	bctrl
.LVL85:
	srawi 0,3,31
	subf 3,3,0
	lwz 0,12(1)
	srwi 3,3,31
	mtlr 0
	addi 1,1,8
.LCFI17:
	.cfi_def_cfa_offset 0
	blr
	.cfi_endproc
.LFE1415:
	.size	_ZNK10GuiElement10IsAnimatedEv, .-_ZNK10GuiElement10IsAnimatedEv
	.section	.text._ZN10GuiElement9SetBoundsE4RectIiE,"axG",@progbits,_ZN10GuiElement9SetBoundsE4RectIiE,comdat
	.align 2
	.weak	_ZN10GuiElement9SetBoundsE4RectIiE
	.type	_ZN10GuiElement9SetBoundsE4RectIiE, @function
_ZN10GuiElement9SetBoundsE4RectIiE:
.LFB1416:
	.loc 2 280 0
	.cfi_startproc
.LVL86:
.LBB1453:
.LBB1454:
	.file 5 "d:/Projects/SaveGameManager/savegame-manager-gx/trunk/source/GUI/../Tools/Rect.h"
	.loc 5 30 0
	lwz 10,0(4)
.LBE1454:
.LBE1453:
	.loc 2 280 0
.LBB1456:
.LBB1455:
	.loc 5 31 0
	lwz 11,8(4)
	.loc 5 32 0
	lwz 9,4(4)
	.loc 5 33 0
	lwz 0,12(4)
.LVL87:
	.loc 5 30 0
	stw 10,80(3)
	.loc 5 31 0
	stw 11,88(3)
	.loc 5 32 0
	stw 9,84(3)
	.loc 5 33 0
	stw 0,92(3)
.LBE1455:
.LBE1456:
	.loc 2 280 0
	blr
	.cfi_endproc
.LFE1416:
	.size	_ZN10GuiElement9SetBoundsE4RectIiE, .-_ZN10GuiElement9SetBoundsE4RectIiE
	.section	.text._ZN10GuiElement8IsInsideEii,"axG",@progbits,_ZN10GuiElement8IsInsideEii,comdat
	.align 2
	.weak	_ZN10GuiElement8IsInsideEii
	.type	_ZN10GuiElement8IsInsideEii, @function
_ZN10GuiElement8IsInsideEii:
.LFB1417:
	.loc 2 285 0
	.cfi_startproc
.LVL88:
	mflr 0
	stwu 1,-24(1)
.LCFI18:
	.cfi_def_cfa_offset 24
	.cfi_register 65, 0
	stw 28,8(1)
	mr 28,5
	.cfi_offset 28, -16
	stw 0,28(1)
	stw 29,12(1)
	.loc 2 290 0
	li 29,0
	.cfi_offset 29, -12
	.cfi_offset 65, 4
	.loc 2 287 0
	lwz 9,0(3)
	.loc 2 285 0
	stw 30,16(1)
	mr 30,4
	.cfi_offset 30, -8
	.loc 2 287 0
	lwz 0,16(9)
	.loc 2 285 0
	stw 31,20(1)
	.loc 2 285 0
	mr 31,3
	.cfi_offset 31, -4
	.loc 2 287 0
	mtctr 0
	bctrl
.LVL89:
	.loc 2 290 0
	cmpw 7,3,30
	blt- 7,.L68
.L64:
	.loc 2 291 0 discriminator 6
	lwz 0,28(1)
	mr 3,29
	lwz 28,8(1)
.LVL90:
	mtlr 0
	lwz 29,12(1)
	lwz 30,16(1)
.LVL91:
	lwz 31,20(1)
.LVL92:
	addi 1,1,24
	.cfi_remember_state
.LCFI19:
	.cfi_def_cfa_offset 0
	.cfi_restore 31
	.cfi_restore 30
	.cfi_restore 29
	.cfi_restore 28
	blr
.LVL93:
.L68:
.LCFI20:
	.cfi_restore_state
	.loc 2 288 0 discriminator 1
	lwz 9,0(31)
	mr 3,31
	lwz 0,16(9)
	mtctr 0
	bctrl
	.loc 2 290 0 discriminator 1
	lwz 0,36(31)
	add 0,3,0
	cmpw 7,30,0
	bge+ 7,.L64
	.loc 2 289 0 discriminator 3
	lwz 9,0(31)
	mr 3,31
	lwz 0,20(9)
	mtctr 0
	bctrl
	.loc 2 290 0 discriminator 3
	cmpw 7,3,28
	bge+ 7,.L64
	.loc 2 290 0 is_stmt 0 discriminator 4
	lwz 9,0(31)
	mr 3,31
	lwz 0,20(9)
	mtctr 0
	bctrl
	lwz 0,40(31)
	add 0,3,0
	.loc 2 285 0 is_stmt 1 discriminator 4
	cmpw 7,28,0
	mfcr 29
	rlwinm 29,29,29,1
	b .L64
	.cfi_endproc
.LFE1417:
	.size	_ZN10GuiElement8IsInsideEii, .-_ZN10GuiElement8IsInsideEii
	.section	.text._ZN10GuiElement11SetPositionEii,"axG",@progbits,_ZN10GuiElement11SetPositionEii,comdat
	.align 2
	.weak	_ZN10GuiElement11SetPositionEii
	.type	_ZN10GuiElement11SetPositionEii, @function
_ZN10GuiElement11SetPositionEii:
.LFB1418:
	.loc 2 295 0
	.cfi_startproc
.LVL94:
	.loc 2 297 0
	stw 4,44(3)
	.loc 2 299 0
	.loc 2 298 0
	stw 5,48(3)
	.loc 2 299 0
	blr
	.cfi_endproc
.LFE1418:
	.size	_ZN10GuiElement11SetPositionEii, .-_ZN10GuiElement11SetPositionEii
	.section	.text._ZN10GuiElement11SetPositionEiii,"axG",@progbits,_ZN10GuiElement11SetPositionEiii,comdat
	.align 2
	.weak	_ZN10GuiElement11SetPositionEiii
	.type	_ZN10GuiElement11SetPositionEiii, @function
_ZN10GuiElement11SetPositionEiii:
.LFB1419:
	.loc 2 304 0
	.cfi_startproc
.LVL95:
	.loc 2 306 0
	stw 4,44(3)
	.loc 2 309 0
	.loc 2 307 0
	stw 5,48(3)
	.loc 2 308 0
	stw 6,52(3)
	.loc 2 309 0
	blr
	.cfi_endproc
.LFE1419:
	.size	_ZN10GuiElement11SetPositionEiii, .-_ZN10GuiElement11SetPositionEiii
	.section	.text._ZN10GuiElement11GetSelectedEv,"axG",@progbits,_ZN10GuiElement11GetSelectedEv,comdat
	.align 2
	.weak	_ZN10GuiElement11GetSelectedEv
	.type	_ZN10GuiElement11GetSelectedEv, @function
_ZN10GuiElement11GetSelectedEv:
.LFB1420:
	.loc 2 312 0
	.cfi_startproc
.LVL96:
	.loc 2 312 0
	li 3,-1
.LVL97:
	blr
	.cfi_endproc
.LFE1420:
	.size	_ZN10GuiElement11GetSelectedEv, .-_ZN10GuiElement11GetSelectedEv
	.section	.text._ZN10GuiElement12SetAlignmentEi,"axG",@progbits,_ZN10GuiElement12SetAlignmentEi,comdat
	.align 2
	.weak	_ZN10GuiElement12SetAlignmentEi
	.type	_ZN10GuiElement12SetAlignmentEi, @function
_ZN10GuiElement12SetAlignmentEi:
.LFB1421:
	.loc 2 316 0
	.cfi_startproc
.LVL98:
	.loc 2 316 0
	stw 4,68(3)
	blr
	.cfi_endproc
.LFE1421:
	.size	_ZN10GuiElement12SetAlignmentEi, .-_ZN10GuiElement12SetAlignmentEi
	.section	.text._ZNK10GuiElement12GetAlignmentEv,"axG",@progbits,_ZNK10GuiElement12GetAlignmentEv,comdat
	.align 2
	.weak	_ZNK10GuiElement12GetAlignmentEv
	.type	_ZNK10GuiElement12GetAlignmentEv, @function
_ZNK10GuiElement12GetAlignmentEv:
.LFB1422:
	.loc 2 318 0
	.cfi_startproc
.LVL99:
	.loc 2 318 0
	lwz 3,68(3)
.LVL100:
	blr
	.cfi_endproc
.LFE1422:
	.size	_ZNK10GuiElement12GetAlignmentEv, .-_ZNK10GuiElement12GetAlignmentEv
	.section	.text._ZN10GuiElement6UpdateEP10GuiTrigger,"axG",@progbits,_ZN10GuiElement6UpdateEP10GuiTrigger,comdat
	.align 2
	.weak	_ZN10GuiElement6UpdateEP10GuiTrigger
	.type	_ZN10GuiElement6UpdateEP10GuiTrigger, @function
_ZN10GuiElement6UpdateEP10GuiTrigger:
.LFB1423:
	.loc 2 321 0
	.cfi_startproc
.LVL101:
	.loc 2 321 0
	blr
	.cfi_endproc
.LFE1423:
	.size	_ZN10GuiElement6UpdateEP10GuiTrigger, .-_ZN10GuiElement6UpdateEP10GuiTrigger
	.section	.text._ZN10GuiElement4DrawEv,"axG",@progbits,_ZN10GuiElement4DrawEv,comdat
	.align 2
	.weak	_ZN10GuiElement4DrawEv
	.type	_ZN10GuiElement4DrawEv, @function
_ZN10GuiElement4DrawEv:
.LFB1424:
	.loc 2 323 0
	.cfi_startproc
.LVL102:
	.loc 2 323 0
	blr
	.cfi_endproc
.LFE1424:
	.size	_ZN10GuiElement4DrawEv, .-_ZN10GuiElement4DrawEv
	.section	".text"
	.align 2
	.globl _ZN10GuiElement8SetStateEii
	.type	_ZN10GuiElement8SetStateEii, @function
_ZN10GuiElement8SetStateEii:
.LFB1430:
	.loc 3 61 0
	.cfi_startproc
	.cfi_personality 0,__gxx_personality_v0
	.cfi_lsda 0,.LLSDA1430
.LVL103:
	mflr 0
	stwu 1,-32(1)
.LCFI21:
	.cfi_def_cfa_offset 32
	.cfi_register 65, 0
	stw 26,8(1)
.LBB1457:
.LBB1458:
	.loc 1 2338 0
	addi 26,3,16
	.cfi_offset 26, -24
.LBE1458:
.LBE1457:
	.loc 3 61 0
	stw 0,36(1)
	stw 30,24(1)
	mr 30,3
	.cfi_offset 30, -8
	.cfi_offset 65, 4
.LBB1481:
.LBB1475:
.LBB1459:
.LBB1460:
	.loc 1 338 0
	lwz 9,16(3)
	mr 3,26
.LVL104:
.LBE1460:
.LBE1459:
.LBE1475:
.LBE1481:
	.loc 3 61 0
	stw 27,12(1)
	mr 27,4
	.cfi_offset 27, -20
.LBB1482:
.LBB1476:
.LBB1464:
.LBB1461:
	.loc 1 338 0
	lwz 0,8(9)
.LBE1461:
.LBE1464:
.LBE1476:
.LBE1482:
	.loc 3 61 0
	stw 28,16(1)
	mr 28,5
	.cfi_offset 28, -16
	stw 29,20(1)
.LBB1483:
.LBB1477:
.LBB1465:
.LBB1462:
	.loc 1 338 0
	mtctr 0
.LBE1462:
.LBE1465:
.LBE1477:
.LBE1483:
	.loc 3 61 0
	stw 31,28(1)
.LBB1484:
	.loc 3 394 0
	mr 29,30
	.cfi_offset 31, -4
	.cfi_offset 29, -12
.LBE1484:
	.loc 3 62 0
	stw 4,72(30)
	.loc 3 63 0
	stw 5,76(30)
.LVL105:
.LEHB4:
.LBB1485:
.LBB1478:
.LBB1466:
.LBB1463:
	.loc 1 338 0
	bctrl
.LEHE4:
.LVL106:
.LBE1463:
.LBE1466:
.LBE1478:
	.loc 3 394 0
	lwzu 31,20(29)
.LVL107:
.LBB1479:
	.loc 1 2342 0
	cmpw 7,31,29
	beq- 7,.L77
.LVL108:
.L84:
	.loc 1 2347 0
	lwz 3,8(31)
	mr 4,30
	mr 5,27
	mr 6,28
	lwz 9,0(3)
.LBB1467:
.LBB1468:
	.loc 4 234 0
	lwz 31,0(31)
.LVL109:
.LBE1468:
.LBE1467:
	.loc 1 2347 0
	lwz 0,12(9)
	mtctr 0
.LEHB5:
	bctrl
.LEHE5:
.LVL110:
	.loc 1 2342 0
	cmpw 7,29,31
	bne+ 7,.L84
.LVL111:
.L77:
.LBB1469:
.LBB1470:
.LBB1471:
	.loc 1 343 0
	lwz 9,16(30)
	mr 3,26
	lwz 0,12(9)
	mtctr 0
.LEHB6:
	bctrl
.LEHE6:
.LBE1471:
.LBE1470:
.LBE1469:
.LBE1479:
.LBE1485:
	.loc 3 65 0
	lwz 0,36(1)
	lwz 26,8(1)
.LVL112:
	mtlr 0
	lwz 27,12(1)
.LVL113:
	lwz 28,16(1)
.LVL114:
	lwz 29,20(1)
	lwz 30,24(1)
.LVL115:
	lwz 31,28(1)
.LVL116:
	addi 1,1,32
	.cfi_remember_state
.LCFI22:
	.cfi_def_cfa_offset 0
	.cfi_restore 31
	.cfi_restore 30
	.cfi_restore 29
	.cfi_restore 28
	.cfi_restore 27
	.cfi_restore 26
	blr
.LVL117:
.L83:
.LCFI23:
	.cfi_restore_state
.LBB1486:
.LBB1480:
.LBB1472:
.LBB1473:
.LBB1474:
	.loc 1 343 0
	lwz 9,16(30)
	mr 31,3
.LVL118:
	mr 3,26
	lwz 0,12(9)
	mtctr 0
	bctrl
	mr 3,31
.LEHB7:
	bl _Unwind_Resume
.LEHE7:
.LBE1474:
.LBE1473:
.LBE1472:
.LBE1480:
.LBE1486:
	.cfi_endproc
.LFE1430:
	.section	.gcc_except_table
.LLSDA1430:
	.byte	0xff
	.byte	0xff
	.byte	0x1
	.uleb128 .LLSDACSE1430-.LLSDACSB1430
.LLSDACSB1430:
	.uleb128 .LEHB4-.LFB1430
	.uleb128 .LEHE4-.LEHB4
	.uleb128 0
	.uleb128 0
	.uleb128 .LEHB5-.LFB1430
	.uleb128 .LEHE5-.LEHB5
	.uleb128 .L83-.LFB1430
	.uleb128 0
	.uleb128 .LEHB6-.LFB1430
	.uleb128 .LEHE6-.LEHB6
	.uleb128 0
	.uleb128 0
	.uleb128 .LEHB7-.LFB1430
	.uleb128 .LEHE7-.LEHB7
	.uleb128 0
	.uleb128 0
.LLSDACSE1430:
	.section	".text"
	.size	_ZN10GuiElement8SetStateEii, .-_ZN10GuiElement8SetStateEii
	.align 2
	.globl _ZN10GuiElement7GetLeftEv
	.type	_ZN10GuiElement7GetLeftEv, @function
_ZN10GuiElement7GetLeftEv:
.LFB1431:
	.loc 3 73 0
	.cfi_startproc
.LVL119:
	mflr 0
	stwu 1,-16(1)
.LCFI24:
	.cfi_def_cfa_offset 16
	.cfi_register 65, 0
	stw 30,8(1)
.LBB1487:
	.loc 3 74 0
	li 30,0
	.cfi_offset 30, -8
.LBE1487:
	.loc 3 73 0
	stw 0,20(1)
	stw 31,12(1)
	.loc 3 73 0
	mr 31,3
	.cfi_offset 31, -4
	.cfi_offset 65, 4
.LBB1488:
	.loc 3 77 0
	lwz 11,96(3)
	.loc 3 75 0
	li 3,0
.LVL120:
	.loc 3 77 0
	cmpwi 7,11,0
	beq- 7,.L86
	.loc 3 79 0
	lwz 9,0(11)
	mr 3,11
	lwz 0,36(9)
	mtctr 0
	bctrl
	mr 30,3
.LVL121:
	.loc 3 80 0
	lwz 3,96(31)
.LVL122:
	lwz 9,0(3)
	lwz 0,16(9)
	mtctr 0
	bctrl
.LVL123:
.L86:
	.loc 3 87 0
	lwz 0,68(31)
	.loc 3 83 0
	lwz 9,100(31)
	.loc 3 87 0
	andi. 11,0,2
	.loc 3 83 0
	add 3,3,9
.LVL124:
	.loc 3 87 0
	bne- 0,.L91
	.loc 3 91 0
	andi. 9,0,4
	beq- 0,.L88
	.loc 3 93 0
	lwz 0,36(31)
	add 3,30,3
.LVL125:
	subf 3,0,3
.LVL126:
.L88:
	.loc 3 96 0
	lwz 0,44(31)
.LBE1488:
	.loc 3 97 0
	lwz 30,8(1)
.LVL127:
	add 3,3,0
.LVL128:
	lwz 0,20(1)
	lwz 31,12(1)
.LVL129:
	mtlr 0
	addi 1,1,16
	.cfi_remember_state
.LCFI25:
	.cfi_def_cfa_offset 0
	.cfi_restore 31
	.cfi_restore 30
	blr
.LVL130:
.L91:
.LCFI26:
	.cfi_restore_state
.LBB1489:
	.loc 3 89 0
	lwz 0,36(31)
	srawi 30,30,1
	addze 30,30
.LVL131:
	add 3,3,30
.LVL132:
.LBE1489:
	.loc 3 97 0
	lwz 30,8(1)
.LBB1490:
	.loc 3 89 0
	srawi 0,0,1
	addze 0,0
	subf 3,0,3
.LVL133:
	.loc 3 96 0
	lwz 0,44(31)
.LBE1490:
	.loc 3 97 0
	lwz 31,12(1)
.LVL134:
	add 3,3,0
.LVL135:
	lwz 0,20(1)
	addi 1,1,16
	.cfi_restore 30
	.cfi_restore 31
.LCFI27:
	.cfi_def_cfa_offset 0
	mtlr 0
	blr
	.cfi_endproc
.LFE1431:
	.size	_ZN10GuiElement7GetLeftEv, .-_ZN10GuiElement7GetLeftEv
	.align 2
	.globl _ZN10GuiElement6GetTopEv
	.type	_ZN10GuiElement6GetTopEv, @function
_ZN10GuiElement6GetTopEv:
.LFB1432:
	.loc 3 105 0
	.cfi_startproc
.LVL136:
	mflr 0
	stwu 1,-16(1)
.LCFI28:
	.cfi_def_cfa_offset 16
	.cfi_register 65, 0
	stw 30,8(1)
.LBB1491:
	.loc 3 106 0
	li 30,0
	.cfi_offset 30, -8
.LBE1491:
	.loc 3 105 0
	stw 0,20(1)
	stw 31,12(1)
	.loc 3 105 0
	mr 31,3
	.cfi_offset 31, -4
	.cfi_offset 65, 4
.LBB1492:
	.loc 3 109 0
	lwz 11,96(3)
	.loc 3 107 0
	li 3,0
.LVL137:
	.loc 3 109 0
	cmpwi 7,11,0
	beq- 7,.L93
	.loc 3 111 0
	lwz 9,0(11)
	mr 3,11
	lwz 0,40(9)
	mtctr 0
	bctrl
	mr 30,3
.LVL138:
	.loc 3 112 0
	lwz 3,96(31)
.LVL139:
	lwz 9,0(3)
	lwz 0,20(9)
	mtctr 0
	bctrl
.LVL140:
.L93:
	.loc 3 119 0
	lwz 0,68(31)
	.loc 3 115 0
	lwz 9,104(31)
	.loc 3 119 0
	andi. 11,0,32
	.loc 3 115 0
	add 3,3,9
.LVL141:
	.loc 3 119 0
	bne- 0,.L98
	.loc 3 123 0
	andi. 9,0,64
	beq- 0,.L95
	.loc 3 125 0
	lwz 0,40(31)
	add 3,3,30
.LVL142:
	subf 3,0,3
.LVL143:
.L95:
	.loc 3 128 0
	lwz 0,48(31)
.LBE1492:
	.loc 3 129 0
	lwz 30,8(1)
.LVL144:
	add 3,3,0
.LVL145:
	lwz 0,20(1)
	lwz 31,12(1)
.LVL146:
	mtlr 0
	addi 1,1,16
	.cfi_remember_state
.LCFI29:
	.cfi_def_cfa_offset 0
	.cfi_restore 31
	.cfi_restore 30
	blr
.LVL147:
.L98:
.LCFI30:
	.cfi_restore_state
.LBB1493:
	.loc 3 121 0
	lwz 0,40(31)
	srawi 30,30,1
	addze 30,30
.LVL148:
	add 3,30,3
.LVL149:
.LBE1493:
	.loc 3 129 0
	lwz 30,8(1)
.LBB1494:
	.loc 3 121 0
	srawi 0,0,1
	addze 0,0
	subf 3,0,3
.LVL150:
	.loc 3 128 0
	lwz 0,48(31)
.LBE1494:
	.loc 3 129 0
	lwz 31,12(1)
.LVL151:
	add 3,3,0
.LVL152:
	lwz 0,20(1)
	addi 1,1,16
	.cfi_restore 30
	.cfi_restore 31
.LCFI31:
	.cfi_def_cfa_offset 0
	mtlr 0
	blr
	.cfi_endproc
.LFE1432:
	.size	_ZN10GuiElement6GetTopEv, .-_ZN10GuiElement6GetTopEv
	.align 2
	.globl _ZN10GuiElement9SetEffectEiii
	.type	_ZN10GuiElement9SetEffectEiii, @function
_ZN10GuiElement9SetEffectEiii:
.LFB1433:
	.loc 3 132 0
	.cfi_startproc
.LVL153:
	mflr 0
	stwu 1,-64(1)
.LCFI32:
	.cfi_def_cfa_offset 64
	.cfi_register 65, 0
	stw 31,60(1)
	mr 31,3
	.cfi_offset 31, -4
	stw 0,68(1)
	.loc 3 133 0
	andi. 0,4,16
	.cfi_offset 65, 4
	beq- 0,.L100
	.loc 3 136 0
	andi. 0,4,1
	beq- 0,.L101
	.loc 3 138 0
	andi. 0,4,64
	bne- 0,.L123
	.loc 3 141 0
	lis 9,screenheight@ha
	lwz 0,screenheight@l(9)
	neg 0,0
	stw 0,104(3)
.LVL154:
.L100:
	.loc 3 166 0
	andi. 0,4,128
	beq- 0,.L108
	.loc 3 166 0 is_stmt 0 discriminator 1
	cmpwi 7,5,0
	ble- 7,.L109
	.loc 3 168 0 is_stmt 1
	li 0,0
	stw 0,108(31)
.L108:
	.loc 3 175 0
	andi. 0,4,1024
	beq- 0,.L110
	.loc 3 178 0
	andi. 0,4,4096
	beq- 0,.L111
	.loc 3 180 0
	lwz 0,44(31)
	cmpw 7,0,6
	blt- 7,.L121
	.loc 3 180 0 is_stmt 0 discriminator 2
	ble- 7,.L110
.L119:
	.loc 3 186 0 is_stmt 1 discriminator 1
	cmpwi 7,5,0
	ble- 7,.L110
.L115:
	.loc 3 188 0
	neg 5,5
.LVL155:
.L110:
	.loc 3 192 0
	lwz 0,120(31)
	.loc 3 193 0
	stw 5,124(31)
	.loc 3 192 0
	or 4,0,4
	.loc 3 195 0
	lwz 0,68(1)
	.loc 3 192 0
	stw 4,120(31)
	.loc 3 195 0
	mtlr 0
	.loc 3 194 0
	stw 6,128(31)
	.loc 3 195 0
	lwz 31,60(1)
.LVL156:
	addi 1,1,64
	.cfi_remember_state
.LCFI33:
	.cfi_def_cfa_offset 0
	.cfi_restore 31
	blr
.LVL157:
.L111:
.LCFI34:
	.cfi_restore_state
	.loc 3 184 0
	andi. 0,4,2048
	beq- 0,.L110
	.loc 3 186 0
	lwz 0,48(31)
	cmpw 7,6,0
	blt- 7,.L119
	.loc 3 186 0 is_stmt 0 discriminator 2
	ble- 7,.L110
.L121:
	.loc 3 186 0 discriminator 3
	cmpwi 7,5,0
	blt- 7,.L115
.LVL158:
	.loc 3 192 0 is_stmt 1
	lwz 0,120(31)
	.loc 3 193 0
	stw 5,124(31)
	.loc 3 192 0
	or 4,0,4
	.loc 3 195 0
	lwz 0,68(1)
	.loc 3 192 0
	stw 4,120(31)
	.loc 3 195 0
	mtlr 0
	.loc 3 194 0
	stw 6,128(31)
	.loc 3 195 0
	lwz 31,60(1)
.LVL159:
	addi 1,1,64
	.cfi_remember_state
	.cfi_restore 31
.LCFI35:
	.cfi_def_cfa_offset 0
	blr
.LVL160:
.L101:
.LCFI36:
	.cfi_restore_state
	.loc 3 143 0
	andi. 0,4,8
	beq- 0,.L103
	.loc 3 145 0
	andi. 0,4,64
	bne- 0,.L124
	.loc 3 148 0
	lis 9,screenwidth@ha
	lwz 0,screenwidth@l(9)
	neg 0,0
	stw 0,100(3)
	b .L100
.LVL161:
.L109:
	.loc 3 170 0 discriminator 1
	beq+ 7,.L108
	.loc 3 172 0
	lwz 0,56(31)
	stw 0,108(31)
	b .L108
.LVL162:
.L103:
	.loc 3 150 0
	andi. 0,4,2
	beq- 0,.L105
	.loc 3 152 0
	andi. 0,4,64
	bne- 0,.L125
	.loc 3 155 0
	lis 9,screenheight@ha
	lwz 0,screenheight@l(9)
	stw 0,104(3)
	b .L100
.L123:
	.loc 3 139 0
	lwz 9,0(3)
	lwz 0,40(9)
	stw 4,40(1)
	mtctr 0
	stw 5,44(1)
	stw 6,48(1)
	bctrl
.LVL163:
	lis 9,.LC1@ha
	neg 0,3
	lfs 0,.LC1@l(9)
	xoris 0,0,0x8000
	addi 9,31,104
	stw 0,12(1)
	lis 0,0x4330
	stw 0,8(1)
	lfd 12,8(1)
	lfs 13,64(31)
	fsub 0,12,0
	frsp 0,0
.L117:
	.loc 3 153 0
	fmuls 0,0,13
	lwz 4,40(1)
	lwz 5,44(1)
	lwz 6,48(1)
	fctiwz 0,0
	stfiwx 0,0,9
	b .L100
.LVL164:
.L105:
	.loc 3 157 0
	andi. 0,4,4
	beq- 0,.L100
	.loc 3 159 0
	andi. 0,4,64
	bne- 0,.L126
	.loc 3 162 0
	lis 9,screenwidth@ha
	lwz 0,screenwidth@l(9)
	stw 0,100(3)
	b .L100
.L125:
	.loc 3 153 0
	lwz 9,0(3)
	lwz 0,40(9)
	stw 4,40(1)
	mtctr 0
	stw 5,44(1)
	stw 6,48(1)
	bctrl
.LVL165:
	lis 0,0x4330
	xoris 3,3,0x8000
	stw 0,24(1)
	stw 3,28(1)
	lis 9,.LC1@ha
	lfs 0,.LC1@l(9)
	addi 9,31,104
	lfd 12,24(1)
	lfs 13,64(31)
	fsub 0,12,0
	frsp 0,0
	b .L117
.LVL166:
.L124:
	.loc 3 146 0
	lwz 9,0(3)
	lwz 0,36(9)
	stw 4,40(1)
	mtctr 0
	stw 5,44(1)
	stw 6,48(1)
	bctrl
.LVL167:
	lis 9,.LC1@ha
	neg 0,3
	lfs 0,.LC1@l(9)
	xoris 0,0,0x8000
	addi 9,31,100
	stw 0,20(1)
	lis 0,0x4330
	stw 0,16(1)
	lfd 12,16(1)
	lfs 13,60(31)
	fsub 0,12,0
	.loc 3 153 0
	frsp 0,0
	b .L117
.LVL168:
.L126:
	.loc 3 160 0
	lwz 9,0(3)
	lwz 0,36(9)
	stw 4,40(1)
	mtctr 0
	stw 5,44(1)
	stw 6,48(1)
	bctrl
.LVL169:
	lis 0,0x4330
	xoris 3,3,0x8000
	stw 0,32(1)
	stw 3,36(1)
	lis 9,.LC1@ha
	lfs 13,.LC1@l(9)
	addi 9,31,100
	lfd 12,32(1)
	lfs 0,60(31)
	fsub 13,12,13
	frsp 13,13
	b .L117
	.cfi_endproc
.LFE1433:
	.size	_ZN10GuiElement9SetEffectEiii, .-_ZN10GuiElement9SetEffectEiii
	.align 2
	.globl _ZN10GuiElement15SetEffectOnOverEiii
	.type	_ZN10GuiElement15SetEffectOnOverEiii, @function
_ZN10GuiElement15SetEffectOnOverEiii:
.LFB1434:
	.loc 3 202 0
	.cfi_startproc
.LVL170:
	.loc 3 203 0
	lwz 0,132(3)
	.loc 3 206 0
	.loc 3 204 0
	stw 5,136(3)
	.loc 3 203 0
	or 0,0,4
	.loc 3 205 0
	stw 6,140(3)
	.loc 3 203 0
	stw 0,132(3)
	.loc 3 206 0
	blr
	.cfi_endproc
.LFE1434:
	.size	_ZN10GuiElement15SetEffectOnOverEiii, .-_ZN10GuiElement15SetEffectOnOverEiii
	.align 2
	.globl _ZN10GuiElement12ResetEffectsEv
	.type	_ZN10GuiElement12ResetEffectsEv, @function
_ZN10GuiElement12ResetEffectsEv:
.LFB1435:
	.loc 3 209 0
	.cfi_startproc
.LVL171:
	.loc 3 212 0
	li 9,-1
	.loc 3 210 0
	li 0,0
	.loc 3 212 0
	stw 9,108(3)
	.loc 3 213 0
	lis 9,.LC4@ha
	lwz 9,.LC4@l(9)
	.loc 3 221 0
	.loc 3 210 0
	stw 0,104(3)
	.loc 3 211 0
	stw 0,100(3)
	.loc 3 213 0
	stw 9,112(3)
	.loc 3 214 0
	stw 0,116(3)
	.loc 3 215 0
	stw 0,120(3)
	.loc 3 216 0
	stw 0,124(3)
	.loc 3 217 0
	stw 0,128(3)
	.loc 3 218 0
	stw 0,132(3)
	.loc 3 219 0
	stw 0,136(3)
	.loc 3 220 0
	stw 0,140(3)
	.loc 3 221 0
	blr
	.cfi_endproc
.LFE1435:
	.size	_ZN10GuiElement12ResetEffectsEv, .-_ZN10GuiElement12ResetEffectsEv
	.align 2
	.globl _ZN10GuiElement13UpdateEffectsEv
	.type	_ZN10GuiElement13UpdateEffectsEv, @function
_ZN10GuiElement13UpdateEffectsEv:
.LFB1436:
	.loc 3 224 0
	.cfi_startproc
.LVL172:
	mflr 0
	stwu 1,-96(1)
.LCFI37:
	.cfi_def_cfa_offset 96
	.cfi_register 65, 0
	stw 31,92(1)
	mr 31,3
	.cfi_offset 31, -4
	stw 0,100(1)
	stw 29,84(1)
.LBB1495:
	.loc 3 225 0
	lwz 0,120(3)
	.cfi_offset 29, -12
	.cfi_offset 65, 4
.LBE1495:
	.loc 3 224 0
	stw 30,88(1)
.LBB1556:
	.loc 3 225 0
	andi. 9,0,112
	beq- 0,.L130
	.cfi_offset 30, -8
	.loc 3 227 0
	andi. 30,0,16
	beq- 0,.L131
	.loc 3 229 0
	andi. 9,0,8
	beq- 0,.L132
	.loc 3 231 0
	lwz 11,100(3)
	lwz 9,124(3)
	add 9,11,9
	.loc 3 233 0
	cmpwi 7,9,0
	.loc 3 231 0
	stw 9,100(3)
	.loc 3 233 0
	blt- 7,.L130
	.loc 3 235 0
	li 0,0
	stw 0,100(3)
	.loc 3 236 0
	stw 0,120(3)
.LBE1556:
	.loc 3 224 0
	li 0,0
.LVL173:
.L158:
.LBB1557:
	.loc 3 333 0
	rlwinm 9,0,0,21,21
.LBB1496:
	.loc 3 336 0
	cmpwi 7,9,0
	beq- 7,.L164
.LBB1497:
	.loc 3 338 0
	andi. 11,0,2048
	beq- 0,.L165
.LBB1498:
	.loc 3 340 0
	lwz 9,124(31)
	cmpwi 7,9,0
	ble- 7,.L166
	.loc 3 340 0 is_stmt 0 discriminator 1
	lwz 10,104(31)
	lwz 8,48(31)
	lwz 11,128(31)
	add 7,10,8
	cmpw 7,7,11
	bge- 7,.L167
.LVL174:
.LBB1499:
	.loc 3 342 0 is_stmt 1
	add. 9,9,10
	li 7,0
	blt- 0,.L168
	.loc 3 342 0 is_stmt 0 discriminator 1
	subf 7,8,11
	cmpw 7,7,9
	bgt- 7,.L200
.L168:
	.loc 3 342 0 discriminator 6
	stw 7,104(31)
	rlwinm 0,0,0,18,18
.LBE1499:
	b .L170
.LVL175:
.L136:
.LBE1498:
.LBE1497:
.LBE1496:
	.loc 3 281 0 is_stmt 1
	andi. 30,0,4
	bne- 0,.L201
	.loc 3 290 0
	andi. 9,0,1
	beq- 0,.L144
	.loc 3 294 0
	lis 9,screenheight@ha
	.loc 3 292 0
	lwz 29,104(3)
	lwz 11,124(3)
	.loc 3 294 0
	lwz 9,screenheight@l(9)
	.loc 3 292 0
	subf 29,11,29
	.loc 3 294 0
	neg 9,9
	.loc 3 292 0
	stw 29,104(3)
	.loc 3 294 0
	cmpw 7,29,9
	ble- 7,.L147
	.loc 3 296 0
	andi. 9,0,64
	beq+ 0,.L130
	.loc 3 296 0 is_stmt 0 discriminator 1
	lwz 9,0(3)
	lwz 0,40(9)
.L199:
	mtctr 0
	bctrl
	neg 3,3
	cmpw 7,29,3
	ble- 7,.L147
.L198:
	.loc 3 305 0 is_stmt 1
	lwz 0,120(31)
.L130:
	.loc 3 310 0
	andi. 9,0,128
	beq- 0,.L151
	.loc 3 312 0
	lwz 9,124(31)
	lwz 11,108(31)
	.loc 3 314 0
	cmpwi 7,9,0
	.loc 3 312 0
	add 9,9,11
	stw 9,108(31)
	.loc 3 314 0
	blt- 7,.L202
	.loc 3 319 0
	beq- 7,.L151
	.loc 3 319 0 is_stmt 0 discriminator 1
	lwz 11,56(31)
	cmpw 7,9,11
	bge- 7,.L157
.L151:
	.loc 3 322 0 is_stmt 1
	rlwinm 9,0,0,23,23
	.loc 3 325 0
	cmpwi 7,9,0
	beq- 7,.L158
	.loc 3 327 0
	lwz 9,124(31)
	lis 11,0x4330
	stw 11,24(1)
	xoris 10,9,0x8000
	.loc 3 329 0
	cmpwi 7,9,0
	.loc 3 327 0
	stw 10,28(1)
	lis 10,.LC1@ha
	lfs 13,.LC1@l(10)
	lis 10,.LC6@ha
	lfd 12,24(1)
	lfs 0,.LC6@l(10)
	fsub 12,12,13
	lfs 11,112(31)
	fdiv 12,12,0
	fadd 12,11,12
	frsp 12,12
	stfs 12,112(31)
	.loc 3 329 0
	blt- 7,.L203
	.loc 3 329 0 is_stmt 0 discriminator 2
	beq- 7,.L158
	.loc 3 329 0 discriminator 3
	lwz 9,128(31)
	stw 11,40(1)
	xoris 9,9,0x8000
	stw 9,44(1)
	lfd 11,40(1)
	fsub 13,11,13
	fdiv 0,13,0
	fcmpu 7,12,0
	cror 30,29,30
	bne- 7,.L158
.L160:
	.loc 3 332 0 is_stmt 1
	frsp 0,0
	.loc 3 333 0
	li 0,0
	stw 0,120(31)
	.loc 3 332 0
	stfs 0,112(31)
.L129:
.LBE1557:
	.loc 3 394 0
	lwz 0,100(1)
	lwz 29,84(1)
	mtlr 0
	lwz 30,88(1)
	lwz 31,92(1)
.LVL176:
	addi 1,1,96
	.cfi_remember_state
.LCFI38:
	.cfi_def_cfa_offset 0
	.cfi_restore 31
	.cfi_restore 30
	.cfi_restore 29
	blr
.LVL177:
.L165:
.LCFI39:
	.cfi_restore_state
.LBB1558:
.LBB1535:
.LBB1528:
.LBB1504:
	.loc 3 355 0
	andi. 9,0,4096
	bne- 0,.L174
.L164:
.LBB1505:
.LBB1506:
	.loc 3 369 0
	rlwinm 0,0,0,18,18
.L170:
.LBE1506:
.LBE1505:
.LBE1504:
.LBE1528:
.LBE1535:
.LBB1536:
	.loc 3 373 0
	cmpwi 7,0,0
	beq- 7,.L129
.LVL178:
.LBB1537:
	.loc 3 377 0
	lwz 10,128(31)
	lis 0,0x4330
	stw 0,48(1)
	lis 11,.LC1@ha
	xoris 9,10,0x8000
	lfs 12,.LC1@l(11)
	stw 9,52(1)
	lis 9,.LC7@ha
	lfs 11,.LC7@l(9)
	lfd 13,48(1)
	lfs 0,112(31)
	fsub 13,13,12
	frsp 13,13
	fmuls 13,13,11
	fcmpu 7,0,13
	cror 30,28,30
	bne- 7,.L182
	.loc 3 377 0 is_stmt 0 discriminator 1
	lwz 8,116(31)
	cmpwi 7,8,0
	beq- 7,.L204
.L182:
	.loc 3 381 0 is_stmt 1
	fcmpu 7,0,13
	bng- 7,.L184
	.loc 3 383 0
	li 0,1
	stw 0,116(31)
.L184:
	.loc 3 385 0
	addi 10,10,-10
	lis 0,0x4330
	xoris 10,10,0x8000
	stw 0,64(1)
	stw 10,68(1)
	lfs 12,.LC1@l(11)
	lfd 13,64(1)
	lfs 11,.LC7@l(9)
	fsub 13,13,12
	frsp 13,13
	fmuls 13,13,11
	fcmpu 7,0,13
	cror 30,29,30
	bne- 7,.L186
	.loc 3 385 0 is_stmt 0 discriminator 1
	lwz 9,116(31)
	cmpwi 7,9,0
	bne- 7,.L205
.L186:
	.loc 3 389 0 is_stmt 1
	fcmpu 7,0,13
	bnl- 7,.L129
	.loc 3 391 0
	li 0,0
.LBE1537:
.LBE1536:
.LBE1558:
	.loc 3 394 0
	lwz 29,84(1)
.LBB1559:
.LBB1544:
.LBB1538:
	.loc 3 391 0
	stw 0,116(31)
.LBE1538:
.LBE1544:
.LBE1559:
	.loc 3 394 0
	lwz 0,100(1)
	lwz 30,88(1)
	mtlr 0
	lwz 31,92(1)
.LVL179:
	addi 1,1,96
	.cfi_remember_state
	.cfi_restore 29
	.cfi_restore 30
	.cfi_restore 31
.LCFI40:
	.cfi_def_cfa_offset 0
	blr
.LVL180:
.L131:
.LCFI41:
	.cfi_restore_state
.LBB1560:
	.loc 3 270 0
	andi. 9,0,32
	beq- 0,.L130
	.loc 3 272 0
	andi. 29,0,8
	beq- 0,.L136
	.loc 3 276 0
	lis 9,screenwidth@ha
	.loc 3 274 0
	lwz 29,100(3)
	lwz 11,124(3)
	.loc 3 276 0
	lwz 9,screenwidth@l(9)
	.loc 3 274 0
	subf 29,11,29
	.loc 3 276 0
	neg 9,9
	.loc 3 274 0
	stw 29,100(3)
	.loc 3 276 0
	cmpw 7,29,9
	ble- 7,.L147
	.loc 3 278 0
	andi. 11,0,64
	beq+ 0,.L130
	.loc 3 278 0 is_stmt 0 discriminator 1
	lwz 9,0(3)
	lwz 0,36(9)
	b .L199
.LVL181:
.L157:
	.loc 3 322 0 is_stmt 1
	li 0,0
	.loc 3 321 0
	stw 11,108(31)
	.loc 3 322 0
	stw 0,120(31)
.LBB1545:
.LBB1529:
.LBB1520:
.LBB1515:
.LBB1510:
.LBB1507:
	.loc 3 363 0
	li 0,0
	b .L164
.LVL182:
.L204:
.LBE1507:
.LBE1510:
.LBE1515:
.LBE1520:
.LBE1529:
.LBE1545:
.LBB1546:
.LBB1539:
	.loc 3 379 0
	lwz 8,124(31)
	stw 0,56(1)
	xoris 0,8,0x8000
	lis 8,.LC8@ha
	stw 0,60(1)
	lfd 13,56(1)
	fsub 12,13,12
	lfs 13,.LC8@l(8)
	frsp 12,12
	fmadds 0,12,13,0
	stfs 0,112(31)
	b .L184
.LVL183:
.L202:
.LBE1539:
.LBE1546:
	.loc 3 314 0 discriminator 1
	cmpwi 7,9,0
	bgt+ 7,.L151
	.loc 3 316 0
	li 0,0
	stw 0,108(31)
	.loc 3 317 0
	stw 0,120(31)
.LBB1547:
.LBB1530:
.LBB1521:
.LBB1516:
.LBB1511:
.LBB1508:
	.loc 3 363 0
	li 0,0
	b .L164
.L203:
.LBE1508:
.LBE1511:
.LBE1516:
.LBE1521:
.LBE1530:
.LBE1547:
	.loc 3 329 0 discriminator 1
	lwz 9,128(31)
	stw 11,32(1)
	xoris 9,9,0x8000
	stw 9,36(1)
	lfd 11,32(1)
	fsub 13,11,13
	fdiv 0,13,0
	fcmpu 7,12,0
	cror 30,28,30
	beq- 7,.L160
	b .L158
.L174:
.LBB1548:
.LBB1531:
.LBB1522:
.LBB1517:
	.loc 3 357 0
	lwz 9,124(31)
	cmpwi 7,9,0
	ble- 7,.L175
	.loc 3 357 0 is_stmt 0 discriminator 1
	lwz 10,100(31)
	lwz 8,44(31)
	lwz 11,128(31)
	add 7,10,8
	cmpw 7,7,11
	bge- 7,.L176
.LVL184:
.LBB1512:
	.loc 3 359 0 is_stmt 1
	add. 9,9,10
	li 7,0
	blt- 0,.L177
	.loc 3 359 0 is_stmt 0 discriminator 1
	subf 7,8,11
	cmpw 7,7,9
	ble- 7,.L177
	mr 7,9
.L177:
	.loc 3 359 0 discriminator 6
	stw 7,100(31)
	rlwinm 0,0,0,18,18
.LBE1512:
	b .L170
.LVL185:
.L132:
.LBE1517:
.LBE1522:
.LBE1531:
.LBE1548:
	.loc 3 239 0 is_stmt 1
	andi. 11,0,4
	beq- 0,.L134
	.loc 3 241 0
	lwz 10,100(3)
	lwz 11,124(3)
	subf 11,11,10
	.loc 3 243 0
	cmpwi 7,11,0
	.loc 3 241 0
	stw 11,100(3)
	.loc 3 243 0
	bgt+ 7,.L130
	.loc 3 245 0
	stw 9,100(3)
.LBE1560:
	.loc 3 224 0
	li 0,0
.LBB1561:
	.loc 3 246 0
	stw 9,120(3)
	b .L158
.LVL186:
.L205:
.LBB1549:
.LBB1540:
	.loc 3 387 0
	lwz 9,124(31)
	stw 0,72(1)
	xoris 0,9,0x8000
	lis 9,.LC8@ha
	stw 0,76(1)
.LBE1540:
.LBE1549:
.LBE1561:
	.loc 3 394 0
	lwz 0,100(1)
.LBB1562:
.LBB1550:
.LBB1541:
	.loc 3 387 0
	lfd 13,72(1)
.LBE1541:
.LBE1550:
.LBE1562:
	.loc 3 394 0
	mtlr 0
	lwz 29,84(1)
.LBB1563:
.LBB1551:
.LBB1542:
	.loc 3 387 0
	fsub 12,13,12
	lfs 13,.LC8@l(9)
.LBE1542:
.LBE1551:
.LBE1563:
	.loc 3 394 0
	lwz 30,88(1)
.LBB1564:
.LBB1552:
.LBB1543:
	.loc 3 387 0
	frsp 12,12
	.loc 3 223 0
	fneg 12,12
	.loc 3 387 0
	fmadds 0,12,13,0
	stfs 0,112(31)
.LBE1543:
.LBE1552:
.LBE1564:
	.loc 3 394 0
	lwz 31,92(1)
.LVL187:
	addi 1,1,96
	.cfi_remember_state
	.cfi_restore 29
	.cfi_restore 30
	.cfi_restore 31
.LCFI42:
	.cfi_def_cfa_offset 0
	blr
.LVL188:
.L166:
.LCFI43:
	.cfi_restore_state
.LBB1565:
.LBB1553:
.LBB1532:
.LBB1523:
.LBB1500:
	.loc 3 344 0
	beq- 7,.L206
	.loc 3 344 0 is_stmt 0 discriminator 1
	lwz 8,104(31)
	lwz 10,48(31)
	lwz 11,128(31)
	add 7,8,10
	cmpw 7,7,11
	ble- 7,.L167
.LBB1501:
	.loc 3 346 0 is_stmt 1
	add 9,9,8
.LVL189:
	subf 11,10,11
.LVL190:
	cmpw 7,9,11
	blt- 7,.L172
	.loc 3 346 0 is_stmt 0 discriminator 1
	cmpwi 7,9,0
	mr 11,9
.LVL191:
	ble- 7,.L172
	li 11,0
.L172:
	.loc 3 346 0 discriminator 6
	stw 11,104(31)
	rlwinm 0,0,0,18,18
.LBE1501:
	b .L170
.LVL192:
.L208:
.LBE1500:
.LBE1523:
.LBB1524:
.LBB1518:
.LBB1513:
	.loc 3 361 0 is_stmt 1
	lwz 11,128(31)
.L176:
	.loc 3 367 0
	li 0,0
	.loc 3 368 0
	stw 11,44(31)
	.loc 3 367 0
	stw 0,100(31)
	.loc 3 369 0
	stw 0,120(31)
	b .L129
.L206:
.LBE1513:
.LBE1518:
.LBE1524:
.LBB1525:
.LBB1502:
	.loc 3 344 0
	lwz 11,128(31)
.L167:
	.loc 3 350 0
	li 0,0
	.loc 3 351 0
	stw 11,48(31)
	.loc 3 350 0
	stw 0,104(31)
	.loc 3 352 0
	stw 0,120(31)
.LBE1502:
.LBE1525:
.LBE1532:
.LBE1553:
.LBE1565:
	.loc 3 394 0
	lwz 0,100(1)
	lwz 29,84(1)
	mtlr 0
	lwz 30,88(1)
	lwz 31,92(1)
.LVL193:
	addi 1,1,96
	.cfi_remember_state
	.cfi_restore 29
	.cfi_restore 30
	.cfi_restore 31
.LCFI44:
	.cfi_def_cfa_offset 0
	blr
.LVL194:
.L134:
.LCFI45:
	.cfi_restore_state
.LBB1566:
	.loc 3 249 0
	andi. 9,0,1
	bne- 0,.L207
	.loc 3 259 0
	andi. 11,0,2
	beq- 0,.L130
	.loc 3 261 0
	lwz 10,104(3)
	lwz 11,124(3)
	subf 11,11,10
	.loc 3 263 0
	cmpwi 7,11,0
	.loc 3 261 0
	stw 11,104(3)
	.loc 3 263 0
	bgt+ 7,.L130
	.loc 3 265 0
	stw 9,104(3)
.LBE1566:
	.loc 3 224 0
	li 0,0
.LBB1567:
	.loc 3 266 0
	stw 9,120(3)
	b .L158
.LVL195:
.L200:
.LBB1554:
.LBB1533:
.LBB1526:
.LBB1503:
	.loc 3 342 0 discriminator 1
	mr 7,9
.LVL196:
	b .L168
.LVL197:
.L147:
.LBE1503:
.LBE1526:
.LBE1533:
.LBE1554:
	.loc 3 297 0 discriminator 4
	stw 30,120(31)
.LBE1567:
	.loc 3 224 0 discriminator 4
	li 0,0
	b .L158
.L201:
.LBB1568:
	.loc 3 283 0
	lwz 30,100(3)
	.loc 3 285 0
	lis 9,screenwidth@ha
	.loc 3 283 0
	lwz 11,124(3)
	.loc 3 285 0
	lwz 9,screenwidth@l(9)
	.loc 3 283 0
	add 30,30,11
	.loc 3 285 0
	cmpw 7,30,9
	.loc 3 283 0
	stw 30,100(3)
	.loc 3 285 0
	bge- 7,.L143
	.loc 3 287 0
	andi. 9,0,64
	beq+ 0,.L130
	.loc 3 287 0 is_stmt 0 discriminator 1
	lwz 9,0(3)
	xoris 30,30,0x8000
	lwz 0,36(9)
	mtctr 0
	bctrl
	lis 0,0x4330
	xoris 3,3,0x8000
	stw 0,16(1)
	stw 3,20(1)
	lis 9,.LC1@ha
	lfs 0,.LC1@l(9)
	lfd 11,16(1)
	stw 30,12(1)
	stw 0,8(1)
	fsub 11,11,0
	lfd 13,8(1)
	lfs 12,60(31)
	fsub 13,13,0
	frsp 0,11
	frsp 13,13
	fmuls 0,0,12
	fcmpu 7,13,0
	cror 30,29,30
	bne- 7,.L198
.L143:
	.loc 3 288 0 is_stmt 1 discriminator 4
	stw 29,120(31)
.LBE1568:
	.loc 3 224 0 discriminator 4
	li 0,0
	b .L158
.L207:
.LBB1569:
	.loc 3 251 0
	lwz 10,104(3)
	lwz 9,124(3)
	add 9,10,9
	.loc 3 253 0
	cmpwi 7,9,0
	.loc 3 251 0
	stw 9,104(3)
	.loc 3 253 0
	blt- 7,.L130
	.loc 3 255 0
	stw 11,104(3)
.LBE1569:
	.loc 3 224 0
	li 0,0
.LBB1570:
	.loc 3 256 0
	stw 11,120(3)
	b .L158
.L175:
.LBB1555:
.LBB1534:
.LBB1527:
.LBB1519:
.LBB1514:
	.loc 3 361 0
	beq- 7,.L208
	.loc 3 361 0 is_stmt 0 discriminator 1
	lwz 8,100(31)
	lwz 10,44(31)
	lwz 11,128(31)
	add 7,8,10
	cmpw 7,7,11
	ble- 7,.L176
.LBB1509:
	.loc 3 363 0 is_stmt 1
	add 9,9,8
.LVL198:
	subf 11,10,11
.LVL199:
	cmpw 7,9,11
	blt- 7,.L180
	.loc 3 363 0 is_stmt 0 discriminator 1
	cmpwi 7,9,0
	mr 11,9
.LVL200:
	ble- 7,.L180
	li 11,0
.L180:
	.loc 3 363 0 discriminator 6
	stw 11,100(31)
	rlwinm 0,0,0,18,18
.LBE1509:
	b .L170
.LVL201:
.L144:
.LBE1514:
.LBE1519:
.LBE1527:
.LBE1534:
.LBE1555:
	.loc 3 299 0 is_stmt 1
	andi. 11,0,2
	beq- 0,.L130
	.loc 3 301 0
	lwz 30,104(3)
	.loc 3 303 0
	lis 11,screenheight@ha
	.loc 3 301 0
	lwz 10,124(3)
	.loc 3 303 0
	lwz 11,screenheight@l(11)
	.loc 3 301 0
	add 30,30,10
	.loc 3 303 0
	cmpw 7,30,11
	.loc 3 301 0
	stw 30,104(3)
	.loc 3 303 0
	blt- 7,.L148
	.loc 3 304 0
	stw 9,120(3)
.LBE1570:
	.loc 3 224 0
	li 0,0
	b .L158
.L148:
.LBB1571:
	.loc 3 305 0
	andi. 9,0,64
	beq+ 0,.L130
	.loc 3 305 0 is_stmt 0 discriminator 1
	lwz 9,0(3)
	lwz 0,40(9)
	mtctr 0
	bctrl
	cmpw 7,30,3
	blt- 7,.L198
	.loc 3 306 0 is_stmt 1 discriminator 4
	li 0,0
	stw 0,120(31)
.LBE1571:
	.loc 3 224 0 discriminator 4
	li 0,0
	b .L158
	.cfi_endproc
.LFE1436:
	.size	_ZN10GuiElement13UpdateEffectsEv, .-_ZN10GuiElement13UpdateEffectsEv
	.section	.text._ZN7sigslot12_signal_baseINS_15single_threadedEED2Ev,"axG",@progbits,_ZN7sigslot12_signal_baseINS_15single_threadedEED5Ev,comdat
	.align 2
	.weak	_ZN7sigslot12_signal_baseINS_15single_threadedEED2Ev
	.type	_ZN7sigslot12_signal_baseINS_15single_threadedEED2Ev, @function
_ZN7sigslot12_signal_baseINS_15single_threadedEED2Ev:
.LFB1473:
	.loc 1 466 0
	.cfi_startproc
.LVL202:
.LBB1572:
.LBB1573:
.LBB1574:
.LBB1575:
	.loc 1 105 0
	lis 9,_ZTVN7sigslot15single_threadedE+8@ha
.LBE1575:
.LBE1574:
.LBE1573:
.LBE1572:
	.loc 1 466 0
.LBB1579:
.LBB1578:
.LBB1577:
.LBB1576:
	.loc 1 105 0
	la 0,_ZTVN7sigslot15single_threadedE+8@l(9)
	stw 0,0(3)
.LBE1576:
.LBE1577:
.LBE1578:
.LBE1579:
	.loc 1 466 0
	blr
	.cfi_endproc
.LFE1473:
	.size	_ZN7sigslot12_signal_baseINS_15single_threadedEED2Ev, .-_ZN7sigslot12_signal_baseINS_15single_threadedEED2Ev
	.section	.text._ZN7sigslot12_signal_baseINS_15single_threadedEED0Ev,"axG",@progbits,_ZN7sigslot12_signal_baseINS_15single_threadedEED5Ev,comdat
	.align 2
	.weak	_ZN7sigslot12_signal_baseINS_15single_threadedEED0Ev
	.type	_ZN7sigslot12_signal_baseINS_15single_threadedEED0Ev, @function
_ZN7sigslot12_signal_baseINS_15single_threadedEED0Ev:
.LFB1475:
	.loc 1 466 0
	.cfi_startproc
.LVL203:
	mflr 0
	stwu 1,-8(1)
.LCFI46:
	.cfi_def_cfa_offset 8
	.cfi_register 65, 0
.LBB1580:
.LBB1581:
.LBB1582:
.LBB1583:
.LBB1584:
.LBB1585:
	.loc 1 105 0
	lis 9,_ZTVN7sigslot15single_threadedE+8@ha
.LBE1585:
.LBE1584:
.LBE1583:
.LBE1582:
.LBE1581:
.LBE1580:
	.loc 1 466 0
	stw 0,12(1)
.LBB1591:
.LBB1590:
.LBB1589:
.LBB1588:
.LBB1587:
.LBB1586:
	.loc 1 105 0
	la 0,_ZTVN7sigslot15single_threadedE+8@l(9)
	.cfi_offset 65, 4
	stw 0,0(3)
.LBE1586:
.LBE1587:
.LBE1588:
.LBE1589:
.LBE1590:
.LBE1591:
	.loc 1 466 0
	bl _ZdlPv
.LVL204:
	lwz 0,12(1)
	addi 1,1,8
.LCFI47:
	.cfi_def_cfa_offset 0
	mtlr 0
	blr
	.cfi_endproc
.LFE1475:
	.size	_ZN7sigslot12_signal_baseINS_15single_threadedEED0Ev, .-_ZN7sigslot12_signal_baseINS_15single_threadedEED0Ev
	.section	.text._ZN7sigslot15single_threadedD0Ev,"axG",@progbits,_ZN7sigslot15single_threadedD5Ev,comdat
	.align 2
	.weak	_ZN7sigslot15single_threadedD0Ev
	.type	_ZN7sigslot15single_threadedD0Ev, @function
_ZN7sigslot15single_threadedD0Ev:
.LFB1150:
	.loc 1 104 0
	.cfi_startproc
.LVL205:
	mflr 0
	stwu 1,-8(1)
.LCFI48:
	.cfi_def_cfa_offset 8
	.cfi_register 65, 0
.LBB1592:
.LBB1593:
.LBB1594:
	.loc 1 105 0
	lis 9,_ZTVN7sigslot15single_threadedE+8@ha
.LBE1594:
.LBE1593:
.LBE1592:
	.loc 1 104 0
	stw 0,12(1)
.LBB1597:
.LBB1596:
.LBB1595:
	.loc 1 105 0
	la 0,_ZTVN7sigslot15single_threadedE+8@l(9)
	.cfi_offset 65, 4
	stw 0,0(3)
.LBE1595:
.LBE1596:
.LBE1597:
	.loc 1 107 0
	bl _ZdlPv
.LVL206:
	lwz 0,12(1)
	addi 1,1,8
.LCFI49:
	.cfi_def_cfa_offset 0
	mtlr 0
	blr
	.cfi_endproc
.LFE1150:
	.size	_ZN7sigslot15single_threadedD0Ev, .-_ZN7sigslot15single_threadedD0Ev
	.section	.text._ZN7sigslot13_signal_base3IP10GuiElementiiNS_15single_threadedEE15slot_disconnectEPNS_9has_slotsIS3_EE,"axG",@progbits,_ZN7sigslot13_signal_base3IP10GuiElementiiNS_15single_threadedEE15slot_disconnectEPNS_9has_slotsIS3_EE,comdat
	.align 2
	.weak	_ZN7sigslot13_signal_base3IP10GuiElementiiNS_15single_threadedEE15slot_disconnectEPNS_9has_slotsIS3_EE
	.type	_ZN7sigslot13_signal_base3IP10GuiElementiiNS_15single_threadedEE15slot_disconnectEPNS_9has_slotsIS3_EE, @function
_ZN7sigslot13_signal_base3IP10GuiElementiiNS_15single_threadedEE15slot_disconnectEPNS_9has_slotsIS3_EE:
.LFB1721:
	.loc 1 990 0
	.cfi_startproc
	.cfi_personality 0,__gxx_personality_v0
	.cfi_lsda 0,.LLSDA1721
.LVL207:
	mflr 0
	stwu 1,-32(1)
.LCFI50:
	.cfi_def_cfa_offset 32
	.cfi_register 65, 0
	stw 27,12(1)
	mr 27,3
	.cfi_offset 27, -20
.LVL208:
	stw 0,36(1)
	stw 28,16(1)
	mr 28,4
	.cfi_offset 28, -16
	.cfi_offset 65, 4
.LBB1598:
.LBB1599:
.LBB1600:
	.loc 1 338 0
	lwz 9,0(3)
.LBE1600:
.LBE1599:
.LBE1598:
	.loc 1 990 0
	stw 29,20(1)
.LBB1621:
.LBB1603:
.LBB1601:
	.loc 3 394 0
	mr 29,27
	.cfi_offset 29, -12
	.loc 1 338 0
	lwz 0,8(9)
.LBE1601:
.LBE1603:
.LBE1621:
	.loc 1 990 0
	stw 31,28(1)
	stw 30,24(1)
.LBB1622:
.LBB1604:
.LBB1602:
	.loc 1 338 0
	mtctr 0
.LEHB8:
	.cfi_offset 30, -8
	.cfi_offset 31, -4
	bctrl
.LEHE8:
.LVL209:
	.loc 3 394 0
	lwzu 31,4(29)
.LVL210:
.LBE1602:
.LBE1604:
	.loc 1 996 0
	cmpw 7,31,29
	bne+ 7,.L231
	b .L220
.LVL211:
.L221:
	.loc 1 996 0 is_stmt 0 discriminator 1
	cmpw 7,29,30
	beq- 7,.L220
.L229:
	.loc 1 996 0
	mr 31,30
.LVL212:
.L231:
.LBB1605:
	.loc 1 1001 0 is_stmt 1
	lwz 3,8(31)
.LBB1606:
.LBB1607:
	.loc 4 154 0
	lwz 30,0(31)
.LVL213:
.LBE1607:
.LBE1606:
	.loc 1 1001 0
	lwz 9,0(3)
	lwz 0,8(9)
	mtctr 0
.LEHB9:
	bctrl
.LVL214:
	cmpw 7,28,3
	bne+ 7,.L221
.LVL215:
	.loc 1 1003 0
	lwz 3,8(31)
	cmpwi 7,3,0
	beq- 7,.L222
	.loc 1 1003 0 is_stmt 0 discriminator 1
	lwz 9,0(3)
	lwz 0,4(9)
	mtctr 0
	bctrl
.LEHE9:
.L222:
.LVL216:
.LBB1608:
.LBB1609:
.LBB1610:
.LBB1611:
	.loc 4 1532 0 is_stmt 1
	mr 3,31
	bl _ZNSt8__detail15_List_node_base9_M_unhookEv
.LVL217:
.LBB1612:
.LBB1613:
.LBB1614:
	.file 6 "d:\\devkitpro\\devkitppc\\bin\\../lib/gcc/powerpc-eabi/4.6.3/../../../../powerpc-eabi/include/c++/4.6.3/ext/new_allocator.h"
	.loc 6 98 0
	mr 3,31
	bl _ZdlPv
.LVL218:
.LBE1614:
.LBE1613:
.LBE1612:
.LBE1611:
.LBE1610:
.LBE1609:
.LBE1608:
.LBE1605:
	.loc 1 996 0
	cmpw 7,29,30
	bne+ 7,.L229
.LVL219:
.L220:
.LBB1615:
.LBB1616:
.LBB1617:
	.loc 1 343 0
	lwz 9,0(27)
	mr 3,27
	lwz 0,12(9)
	mtctr 0
.LEHB10:
	bctrl
.LEHE10:
.LBE1617:
.LBE1616:
.LBE1615:
.LBE1622:
	.loc 1 1010 0
	lwz 0,36(1)
	lwz 27,12(1)
.LVL220:
	mtlr 0
	lwz 28,16(1)
.LVL221:
	lwz 29,20(1)
.LVL222:
	lwz 30,24(1)
	lwz 31,28(1)
	addi 1,1,32
	.cfi_remember_state
.LCFI51:
	.cfi_def_cfa_offset 0
	.cfi_restore 31
	.cfi_restore 30
	.cfi_restore 29
	.cfi_restore 28
	.cfi_restore 27
	blr
.LVL223:
.L230:
.LCFI52:
	.cfi_restore_state
.LBB1623:
.LBB1618:
.LBB1619:
.LBB1620:
	.loc 1 343 0
	lwz 9,0(27)
	mr 31,3
.LVL224:
	mr 3,27
	lwz 0,12(9)
	mtctr 0
	bctrl
	mr 3,31
.LEHB11:
	bl _Unwind_Resume
.LEHE11:
.LBE1620:
.LBE1619:
.LBE1618:
.LBE1623:
	.cfi_endproc
.LFE1721:
	.section	.gcc_except_table
.LLSDA1721:
	.byte	0xff
	.byte	0xff
	.byte	0x1
	.uleb128 .LLSDACSE1721-.LLSDACSB1721
.LLSDACSB1721:
	.uleb128 .LEHB8-.LFB1721
	.uleb128 .LEHE8-.LEHB8
	.uleb128 0
	.uleb128 0
	.uleb128 .LEHB9-.LFB1721
	.uleb128 .LEHE9-.LEHB9
	.uleb128 .L230-.LFB1721
	.uleb128 0
	.uleb128 .LEHB10-.LFB1721
	.uleb128 .LEHE10-.LEHB10
	.uleb128 0
	.uleb128 0
	.uleb128 .LEHB11-.LFB1721
	.uleb128 .LEHE11-.LEHB11
	.uleb128 0
	.uleb128 0
.LLSDACSE1721:
	.section	.text._ZN7sigslot13_signal_base3IP10GuiElementiiNS_15single_threadedEE15slot_disconnectEPNS_9has_slotsIS3_EE,"axG",@progbits,_ZN7sigslot13_signal_base3IP10GuiElementiiNS_15single_threadedEE15slot_disconnectEPNS_9has_slotsIS3_EE,comdat
	.size	_ZN7sigslot13_signal_base3IP10GuiElementiiNS_15single_threadedEE15slot_disconnectEPNS_9has_slotsIS3_EE, .-_ZN7sigslot13_signal_base3IP10GuiElementiiNS_15single_threadedEE15slot_disconnectEPNS_9has_slotsIS3_EE
	.section	.text._ZN7sigslot13_signal_base2IP10GuiElementbNS_15single_threadedEE15slot_disconnectEPNS_9has_slotsIS3_EE,"axG",@progbits,_ZN7sigslot13_signal_base2IP10GuiElementbNS_15single_threadedEE15slot_disconnectEPNS_9has_slotsIS3_EE,comdat
	.align 2
	.weak	_ZN7sigslot13_signal_base2IP10GuiElementbNS_15single_threadedEE15slot_disconnectEPNS_9has_slotsIS3_EE
	.type	_ZN7sigslot13_signal_base2IP10GuiElementbNS_15single_threadedEE15slot_disconnectEPNS_9has_slotsIS3_EE, @function
_ZN7sigslot13_signal_base2IP10GuiElementbNS_15single_threadedEE15slot_disconnectEPNS_9has_slotsIS3_EE:
.LFB1723:
	.loc 1 870 0
	.cfi_startproc
	.cfi_personality 0,__gxx_personality_v0
	.cfi_lsda 0,.LLSDA1723
.LVL225:
	mflr 0
	stwu 1,-32(1)
.LCFI53:
	.cfi_def_cfa_offset 32
	.cfi_register 65, 0
	stw 27,12(1)
	mr 27,3
	.cfi_offset 27, -20
.LVL226:
	stw 0,36(1)
	stw 28,16(1)
	mr 28,4
	.cfi_offset 28, -16
	.cfi_offset 65, 4
.LBB1624:
.LBB1625:
.LBB1626:
	.loc 1 338 0
	lwz 9,0(3)
.LBE1626:
.LBE1625:
.LBE1624:
	.loc 1 870 0
	stw 29,20(1)
.LBB1647:
.LBB1629:
.LBB1627:
	.loc 3 394 0
	mr 29,27
	.cfi_offset 29, -12
	.loc 1 338 0
	lwz 0,8(9)
.LBE1627:
.LBE1629:
.LBE1647:
	.loc 1 870 0
	stw 31,28(1)
	stw 30,24(1)
.LBB1648:
.LBB1630:
.LBB1628:
	.loc 1 338 0
	mtctr 0
.LEHB12:
	.cfi_offset 30, -8
	.cfi_offset 31, -4
	bctrl
.LEHE12:
.LVL227:
	.loc 3 394 0
	lwzu 31,4(29)
.LVL228:
.LBE1628:
.LBE1630:
	.loc 1 876 0
	cmpw 7,31,29
	bne+ 7,.L244
	b .L233
.LVL229:
.L234:
	.loc 1 876 0 is_stmt 0 discriminator 1
	cmpw 7,29,30
	beq- 7,.L233
.L242:
	.loc 1 876 0
	mr 31,30
.LVL230:
.L244:
.LBB1631:
	.loc 1 881 0 is_stmt 1
	lwz 3,8(31)
.LBB1632:
.LBB1633:
	.loc 4 154 0
	lwz 30,0(31)
.LVL231:
.LBE1633:
.LBE1632:
	.loc 1 881 0
	lwz 9,0(3)
	lwz 0,8(9)
	mtctr 0
.LEHB13:
	bctrl
.LVL232:
	cmpw 7,28,3
	bne+ 7,.L234
.LVL233:
	.loc 1 883 0
	lwz 3,8(31)
	cmpwi 7,3,0
	beq- 7,.L235
	.loc 1 883 0 is_stmt 0 discriminator 1
	lwz 9,0(3)
	lwz 0,4(9)
	mtctr 0
	bctrl
.LEHE13:
.L235:
.LVL234:
.LBB1634:
.LBB1635:
.LBB1636:
.LBB1637:
	.loc 4 1532 0 is_stmt 1
	mr 3,31
	bl _ZNSt8__detail15_List_node_base9_M_unhookEv
.LVL235:
.LBB1638:
.LBB1639:
.LBB1640:
	.loc 6 98 0
	mr 3,31
	bl _ZdlPv
.LVL236:
.LBE1640:
.LBE1639:
.LBE1638:
.LBE1637:
.LBE1636:
.LBE1635:
.LBE1634:
.LBE1631:
	.loc 1 876 0
	cmpw 7,29,30
	bne+ 7,.L242
.LVL237:
.L233:
.LBB1641:
.LBB1642:
.LBB1643:
	.loc 1 343 0
	lwz 9,0(27)
	mr 3,27
	lwz 0,12(9)
	mtctr 0
.LEHB14:
	bctrl
.LEHE14:
.LBE1643:
.LBE1642:
.LBE1641:
.LBE1648:
	.loc 1 890 0
	lwz 0,36(1)
	lwz 27,12(1)
.LVL238:
	mtlr 0
	lwz 28,16(1)
.LVL239:
	lwz 29,20(1)
.LVL240:
	lwz 30,24(1)
	lwz 31,28(1)
	addi 1,1,32
	.cfi_remember_state
.LCFI54:
	.cfi_def_cfa_offset 0
	.cfi_restore 31
	.cfi_restore 30
	.cfi_restore 29
	.cfi_restore 28
	.cfi_restore 27
	blr
.LVL241:
.L243:
.LCFI55:
	.cfi_restore_state
.LBB1649:
.LBB1644:
.LBB1645:
.LBB1646:
	.loc 1 343 0
	lwz 9,0(27)
	mr 31,3
.LVL242:
	mr 3,27
	lwz 0,12(9)
	mtctr 0
	bctrl
	mr 3,31
.LEHB15:
	bl _Unwind_Resume
.LEHE15:
.LBE1646:
.LBE1645:
.LBE1644:
.LBE1649:
	.cfi_endproc
.LFE1723:
	.section	.gcc_except_table
.LLSDA1723:
	.byte	0xff
	.byte	0xff
	.byte	0x1
	.uleb128 .LLSDACSE1723-.LLSDACSB1723
.LLSDACSB1723:
	.uleb128 .LEHB12-.LFB1723
	.uleb128 .LEHE12-.LEHB12
	.uleb128 0
	.uleb128 0
	.uleb128 .LEHB13-.LFB1723
	.uleb128 .LEHE13-.LEHB13
	.uleb128 .L243-.LFB1723
	.uleb128 0
	.uleb128 .LEHB14-.LFB1723
	.uleb128 .LEHE14-.LEHB14
	.uleb128 0
	.uleb128 0
	.uleb128 .LEHB15-.LFB1723
	.uleb128 .LEHE15-.LEHB15
	.uleb128 0
	.uleb128 0
.LLSDACSE1723:
	.section	.text._ZN7sigslot13_signal_base2IP10GuiElementbNS_15single_threadedEE15slot_disconnectEPNS_9has_slotsIS3_EE,"axG",@progbits,_ZN7sigslot13_signal_base2IP10GuiElementbNS_15single_threadedEE15slot_disconnectEPNS_9has_slotsIS3_EE,comdat
	.size	_ZN7sigslot13_signal_base2IP10GuiElementbNS_15single_threadedEE15slot_disconnectEPNS_9has_slotsIS3_EE, .-_ZN7sigslot13_signal_base2IP10GuiElementbNS_15single_threadedEE15slot_disconnectEPNS_9has_slotsIS3_EE
	.section	.text._ZN7sigslot13_signal_base3IP10GuiElementiiNS_15single_threadedEE14slot_duplicateEPKNS_9has_slotsIS3_EEPS6_,"axG",@progbits,_ZN7sigslot13_signal_base3IP10GuiElementiiNS_15single_threadedEE14slot_duplicateEPKNS_9has_slotsIS3_EEPS6_,comdat
	.align 2
	.weak	_ZN7sigslot13_signal_base3IP10GuiElementiiNS_15single_threadedEE14slot_duplicateEPKNS_9has_slotsIS3_EEPS6_
	.type	_ZN7sigslot13_signal_base3IP10GuiElementiiNS_15single_threadedEE14slot_duplicateEPKNS_9has_slotsIS3_EEPS6_, @function
_ZN7sigslot13_signal_base3IP10GuiElementiiNS_15single_threadedEE14slot_duplicateEPKNS_9has_slotsIS3_EEPS6_:
.LFB1722:
	.loc 1 926 0
	.cfi_startproc
	.cfi_personality 0,__gxx_personality_v0
	.cfi_lsda 0,.LLSDA1722
.LVL243:
	mflr 0
	stwu 1,-32(1)
.LCFI56:
	.cfi_def_cfa_offset 32
	.cfi_register 65, 0
	stw 26,8(1)
	mr 26,5
	.cfi_offset 26, -24
	stw 0,36(1)
	stw 27,12(1)
	mr 27,3
	.cfi_offset 27, -20
	.cfi_offset 65, 4
.LVL244:
.LBB1650:
.LBB1651:
.LBB1652:
	.loc 1 338 0
	lwz 9,0(3)
.LBE1652:
.LBE1651:
.LBE1650:
	.loc 1 926 0
	stw 29,20(1)
	mr 29,4
	.cfi_offset 29, -12
.LBB1681:
.LBB1657:
.LBB1653:
	.loc 1 338 0
	lwz 0,8(9)
.LBE1653:
.LBE1657:
.LBE1681:
	.loc 1 926 0
	stw 30,24(1)
.LBB1682:
.LBB1658:
.LBB1654:
	.loc 3 394 0
	mr 30,27
	.cfi_offset 30, -8
.LBE1654:
.LBE1658:
.LBE1682:
	.loc 1 926 0
	stw 31,28(1)
.LBB1683:
.LBB1659:
.LBB1655:
	.loc 1 338 0
	mtctr 0
.LBE1655:
.LBE1659:
.LBE1683:
	.loc 1 926 0
	stw 28,16(1)
.LEHB16:
.LBB1684:
.LBB1660:
.LBB1656:
	.loc 1 338 0
	.cfi_offset 28, -16
	.cfi_offset 31, -4
	bctrl
.LEHE16:
.LVL245:
	.loc 3 394 0
	lwzu 31,4(30)
.LVL246:
.LBE1656:
.LBE1660:
	.loc 1 932 0
	cmpw 7,31,30
	bne+ 7,.L255
	b .L246
.LVL247:
.L247:
.LBB1661:
.LBB1662:
	.loc 4 154 0
	lwz 31,0(31)
.LVL248:
.LBE1662:
.LBE1661:
	.loc 1 932 0
	cmpw 7,30,31
	beq- 7,.L246
.LVL249:
.L255:
	.loc 1 934 0
	lwz 3,8(31)
	lwz 9,0(3)
	lwz 0,8(9)
	mtctr 0
.LEHB17:
	bctrl
	cmpw 7,29,3
	bne+ 7,.L247
.LVL250:
	.loc 1 936 0
	lwz 3,8(31)
	mr 4,26
	lwz 9,0(3)
	lwz 0,20(9)
	mtctr 0
	bctrl
	mr 28,3
.LVL251:
.LBB1664:
.LBB1665:
.LBB1666:
.LBB1667:
.LBB1668:
.LBB1669:
.LBB1670:
.LBB1671:
	.loc 6 92 0
	li 3,12
	bl _Znwj
.LEHE17:
.LVL252:
.LBE1671:
.LBE1670:
.LBE1669:
.LBB1672:
.LBB1673:
	.loc 6 108 0 discriminator 1
	cmpwi 7,3,-8
	beq- 7,.L249
	.loc 6 108 0 is_stmt 0
	stw 28,8(3)
.L249:
.LVL253:
.LBE1673:
.LBE1672:
.LBE1668:
.LBE1667:
	.loc 4 1516 0 is_stmt 1
	mr 4,30
	bl _ZNSt8__detail15_List_node_base7_M_hookEPS0_
.LVL254:
.LBE1666:
.LBE1665:
.LBE1664:
.LBB1674:
.LBB1663:
	.loc 4 154 0
	lwz 31,0(31)
.LVL255:
.LBE1663:
.LBE1674:
	.loc 1 932 0
	cmpw 7,30,31
	bne+ 7,.L255
.LVL256:
.L246:
.LBB1675:
.LBB1676:
.LBB1677:
	.loc 1 343 0
	lwz 9,0(27)
	mr 3,27
	lwz 0,12(9)
	mtctr 0
.LEHB18:
	bctrl
.LEHE18:
.LBE1677:
.LBE1676:
.LBE1675:
.LBE1684:
	.loc 1 941 0
	lwz 0,36(1)
	lwz 26,8(1)
.LVL257:
	mtlr 0
	lwz 27,12(1)
.LVL258:
	lwz 28,16(1)
	lwz 29,20(1)
.LVL259:
	lwz 30,24(1)
.LVL260:
	lwz 31,28(1)
.LVL261:
	addi 1,1,32
	.cfi_remember_state
.LCFI57:
	.cfi_def_cfa_offset 0
	.cfi_restore 31
	.cfi_restore 30
	.cfi_restore 29
	.cfi_restore 28
	.cfi_restore 27
	.cfi_restore 26
	blr
.LVL262:
.L254:
.LCFI58:
	.cfi_restore_state
.LBB1685:
.LBB1678:
.LBB1679:
.LBB1680:
	.loc 1 343 0
	lwz 9,0(27)
	mr 31,3
.LVL263:
	mr 3,27
	lwz 0,12(9)
	mtctr 0
	bctrl
	mr 3,31
.LEHB19:
	bl _Unwind_Resume
.LEHE19:
.LBE1680:
.LBE1679:
.LBE1678:
.LBE1685:
	.cfi_endproc
.LFE1722:
	.section	.gcc_except_table
.LLSDA1722:
	.byte	0xff
	.byte	0xff
	.byte	0x1
	.uleb128 .LLSDACSE1722-.LLSDACSB1722
.LLSDACSB1722:
	.uleb128 .LEHB16-.LFB1722
	.uleb128 .LEHE16-.LEHB16
	.uleb128 0
	.uleb128 0
	.uleb128 .LEHB17-.LFB1722
	.uleb128 .LEHE17-.LEHB17
	.uleb128 .L254-.LFB1722
	.uleb128 0
	.uleb128 .LEHB18-.LFB1722
	.uleb128 .LEHE18-.LEHB18
	.uleb128 0
	.uleb128 0
	.uleb128 .LEHB19-.LFB1722
	.uleb128 .LEHE19-.LEHB19
	.uleb128 0
	.uleb128 0
.LLSDACSE1722:
	.section	.text._ZN7sigslot13_signal_base3IP10GuiElementiiNS_15single_threadedEE14slot_duplicateEPKNS_9has_slotsIS3_EEPS6_,"axG",@progbits,_ZN7sigslot13_signal_base3IP10GuiElementiiNS_15single_threadedEE14slot_duplicateEPKNS_9has_slotsIS3_EEPS6_,comdat
	.size	_ZN7sigslot13_signal_base3IP10GuiElementiiNS_15single_threadedEE14slot_duplicateEPKNS_9has_slotsIS3_EEPS6_, .-_ZN7sigslot13_signal_base3IP10GuiElementiiNS_15single_threadedEE14slot_duplicateEPKNS_9has_slotsIS3_EEPS6_
	.section	.text._ZN7sigslot13_signal_base2IP10GuiElementbNS_15single_threadedEE14slot_duplicateEPKNS_9has_slotsIS3_EEPS6_,"axG",@progbits,_ZN7sigslot13_signal_base2IP10GuiElementbNS_15single_threadedEE14slot_duplicateEPKNS_9has_slotsIS3_EEPS6_,comdat
	.align 2
	.weak	_ZN7sigslot13_signal_base2IP10GuiElementbNS_15single_threadedEE14slot_duplicateEPKNS_9has_slotsIS3_EEPS6_
	.type	_ZN7sigslot13_signal_base2IP10GuiElementbNS_15single_threadedEE14slot_duplicateEPKNS_9has_slotsIS3_EEPS6_, @function
_ZN7sigslot13_signal_base2IP10GuiElementbNS_15single_threadedEE14slot_duplicateEPKNS_9has_slotsIS3_EEPS6_:
.LFB1724:
	.loc 1 806 0
	.cfi_startproc
	.cfi_personality 0,__gxx_personality_v0
	.cfi_lsda 0,.LLSDA1724
.LVL264:
	mflr 0
	stwu 1,-32(1)
.LCFI59:
	.cfi_def_cfa_offset 32
	.cfi_register 65, 0
	stw 26,8(1)
	mr 26,5
	.cfi_offset 26, -24
	stw 0,36(1)
	stw 27,12(1)
	mr 27,3
	.cfi_offset 27, -20
	.cfi_offset 65, 4
.LVL265:
.LBB1686:
.LBB1687:
.LBB1688:
	.loc 1 338 0
	lwz 9,0(3)
.LBE1688:
.LBE1687:
.LBE1686:
	.loc 1 806 0
	stw 29,20(1)
	mr 29,4
	.cfi_offset 29, -12
.LBB1717:
.LBB1693:
.LBB1689:
	.loc 1 338 0
	lwz 0,8(9)
.LBE1689:
.LBE1693:
.LBE1717:
	.loc 1 806 0
	stw 30,24(1)
.LBB1718:
.LBB1694:
.LBB1690:
	.loc 3 394 0
	mr 30,27
	.cfi_offset 30, -8
.LBE1690:
.LBE1694:
.LBE1718:
	.loc 1 806 0
	stw 31,28(1)
.LBB1719:
.LBB1695:
.LBB1691:
	.loc 1 338 0
	mtctr 0
.LBE1691:
.LBE1695:
.LBE1719:
	.loc 1 806 0
	stw 28,16(1)
.LEHB20:
.LBB1720:
.LBB1696:
.LBB1692:
	.loc 1 338 0
	.cfi_offset 28, -16
	.cfi_offset 31, -4
	bctrl
.LEHE20:
.LVL266:
	.loc 3 394 0
	lwzu 31,4(30)
.LVL267:
.LBE1692:
.LBE1696:
	.loc 1 812 0
	cmpw 7,31,30
	bne+ 7,.L267
	b .L258
.LVL268:
.L259:
.LBB1697:
.LBB1698:
	.loc 4 154 0
	lwz 31,0(31)
.LVL269:
.LBE1698:
.LBE1697:
	.loc 1 812 0
	cmpw 7,30,31
	beq- 7,.L258
.LVL270:
.L267:
	.loc 1 814 0
	lwz 3,8(31)
	lwz 9,0(3)
	lwz 0,8(9)
	mtctr 0
.LEHB21:
	bctrl
	cmpw 7,29,3
	bne+ 7,.L259
.LVL271:
	.loc 1 816 0
	lwz 3,8(31)
	mr 4,26
	lwz 9,0(3)
	lwz 0,20(9)
	mtctr 0
	bctrl
	mr 28,3
.LVL272:
.LBB1700:
.LBB1701:
.LBB1702:
.LBB1703:
.LBB1704:
.LBB1705:
.LBB1706:
.LBB1707:
	.loc 6 92 0
	li 3,12
	bl _Znwj
.LEHE21:
.LVL273:
.LBE1707:
.LBE1706:
.LBE1705:
.LBB1708:
.LBB1709:
	.loc 6 108 0 discriminator 1
	cmpwi 7,3,-8
	beq- 7,.L261
	.loc 6 108 0 is_stmt 0
	stw 28,8(3)
.L261:
.LVL274:
.LBE1709:
.LBE1708:
.LBE1704:
.LBE1703:
	.loc 4 1516 0 is_stmt 1
	mr 4,30
	bl _ZNSt8__detail15_List_node_base7_M_hookEPS0_
.LVL275:
.LBE1702:
.LBE1701:
.LBE1700:
.LBB1710:
.LBB1699:
	.loc 4 154 0
	lwz 31,0(31)
.LVL276:
.LBE1699:
.LBE1710:
	.loc 1 812 0
	cmpw 7,30,31
	bne+ 7,.L267
.LVL277:
.L258:
.LBB1711:
.LBB1712:
.LBB1713:
	.loc 1 343 0
	lwz 9,0(27)
	mr 3,27
	lwz 0,12(9)
	mtctr 0
.LEHB22:
	bctrl
.LEHE22:
.LBE1713:
.LBE1712:
.LBE1711:
.LBE1720:
	.loc 1 821 0
	lwz 0,36(1)
	lwz 26,8(1)
.LVL278:
	mtlr 0
	lwz 27,12(1)
.LVL279:
	lwz 28,16(1)
	lwz 29,20(1)
.LVL280:
	lwz 30,24(1)
.LVL281:
	lwz 31,28(1)
.LVL282:
	addi 1,1,32
	.cfi_remember_state
.LCFI60:
	.cfi_def_cfa_offset 0
	.cfi_restore 31
	.cfi_restore 30
	.cfi_restore 29
	.cfi_restore 28
	.cfi_restore 27
	.cfi_restore 26
	blr
.LVL283:
.L266:
.LCFI61:
	.cfi_restore_state
.LBB1721:
.LBB1714:
.LBB1715:
.LBB1716:
	.loc 1 343 0
	lwz 9,0(27)
	mr 31,3
.LVL284:
	mr 3,27
	lwz 0,12(9)
	mtctr 0
	bctrl
	mr 3,31
.LEHB23:
	bl _Unwind_Resume
.LEHE23:
.LBE1716:
.LBE1715:
.LBE1714:
.LBE1721:
	.cfi_endproc
.LFE1724:
	.section	.gcc_except_table
.LLSDA1724:
	.byte	0xff
	.byte	0xff
	.byte	0x1
	.uleb128 .LLSDACSE1724-.LLSDACSB1724
.LLSDACSB1724:
	.uleb128 .LEHB20-.LFB1724
	.uleb128 .LEHE20-.LEHB20
	.uleb128 0
	.uleb128 0
	.uleb128 .LEHB21-.LFB1724
	.uleb128 .LEHE21-.LEHB21
	.uleb128 .L266-.LFB1724
	.uleb128 0
	.uleb128 .LEHB22-.LFB1724
	.uleb128 .LEHE22-.LEHB22
	.uleb128 0
	.uleb128 0
	.uleb128 .LEHB23-.LFB1724
	.uleb128 .LEHE23-.LEHB23
	.uleb128 0
	.uleb128 0
.LLSDACSE1724:
	.section	.text._ZN7sigslot13_signal_base2IP10GuiElementbNS_15single_threadedEE14slot_duplicateEPKNS_9has_slotsIS3_EEPS6_,"axG",@progbits,_ZN7sigslot13_signal_base2IP10GuiElementbNS_15single_threadedEE14slot_duplicateEPKNS_9has_slotsIS3_EEPS6_,comdat
	.size	_ZN7sigslot13_signal_base2IP10GuiElementbNS_15single_threadedEE14slot_duplicateEPKNS_9has_slotsIS3_EEPS6_, .-_ZN7sigslot13_signal_base2IP10GuiElementbNS_15single_threadedEE14slot_duplicateEPKNS_9has_slotsIS3_EEPS6_
	.section	.text._ZN10GuiElement10ResetStateEv,"axG",@progbits,_ZN10GuiElement10ResetStateEv,comdat
	.align 2
	.weak	_ZN10GuiElement10ResetStateEv
	.type	_ZN10GuiElement10ResetStateEv, @function
_ZN10GuiElement10ResetStateEv:
.LFB1402:
	.loc 2 183 0
	.cfi_startproc
.LVL285:
	mflr 0
	stwu 1,-8(1)
.LCFI62:
	.cfi_def_cfa_offset 8
	.cfi_register 65, 0
	stw 0,12(1)
	.loc 2 185 0
	lwz 0,72(3)
	.cfi_offset 65, 4
	cmpwi 7,0,4
	beq- 7,.L269
.LVL286:
.LBB1724:
.LBB1725:
	.loc 2 186 0
	lwz 9,0(3)
	li 4,0
	li 5,-1
	lwz 0,80(9)
	mtctr 0
	bctrl
.LVL287:
.L269:
.LBE1725:
.LBE1724:
	.loc 2 187 0
	lwz 0,12(1)
	addi 1,1,8
.LCFI63:
	.cfi_def_cfa_offset 0
	mtlr 0
	blr
	.cfi_endproc
.LFE1402:
	.size	_ZN10GuiElement10ResetStateEv, .-_ZN10GuiElement10ResetStateEv
	.section	".text"
	.align 2
	.globl _ZN10GuiElementC2Ev
	.type	_ZN10GuiElementC2Ev, @function
_ZN10GuiElementC2Ev:
.LFB1428:
	.loc 3 22 0
	.cfi_startproc
.LVL288:
.LBB1726:
	.loc 3 31 0
	lis 9,.LC4@ha
.LBB1727:
.LBB1728:
.LBB1729:
.LBB1730:
.LBB1731:
.LBB1732:
.LBB1733:
.LBB1734:
	.loc 4 380 0
	addi 6,3,8
.LBE1734:
.LBE1733:
.LBE1732:
.LBE1731:
.LBE1730:
.LBE1729:
.LBE1728:
.LBE1727:
	.loc 3 31 0
	lwz 11,.LC4@l(9)
.LBB1759:
.LBB1760:
.LBB1761:
.LBB1762:
.LBB1763:
.LBB1764:
.LBB1765:
.LBB1766:
	.loc 4 380 0
	addi 7,3,20
.LBE1766:
.LBE1765:
.LBE1764:
.LBE1763:
.LBE1762:
.LBE1761:
.LBE1760:
.LBE1759:
.LBB1784:
.LBB1785:
	.loc 5 17 0
	lis 9,0xbad
.LBE1785:
.LBE1784:
.LBB1791:
.LBB1753:
.LBB1750:
.LBB1747:
.LBB1744:
.LBB1741:
.LBB1737:
.LBB1735:
	.loc 4 380 0
	stw 6,8(3)
.LBE1735:
.LBE1737:
.LBE1741:
.LBE1744:
.LBE1747:
.LBE1750:
.LBE1753:
.LBE1791:
.LBB1792:
.LBB1786:
	.loc 5 17 0
	ori 9,9,47806
.LBE1786:
.LBE1792:
.LBB1793:
.LBB1754:
.LBB1751:
.LBB1748:
.LBB1745:
.LBB1742:
.LBB1738:
.LBB1736:
	.loc 4 381 0
	stw 6,12(3)
.LBE1736:
.LBE1738:
.LBE1742:
.LBE1745:
.LBE1748:
.LBE1751:
.LBE1754:
.LBE1793:
.LBB1794:
.LBB1779:
.LBB1777:
.LBB1775:
.LBB1773:
.LBB1771:
.LBB1769:
.LBB1767:
	.loc 4 380 0
	stw 7,20(3)
.LBE1767:
.LBE1769:
.LBE1771:
.LBE1773:
.LBE1775:
.LBE1777:
.LBE1779:
.LBE1794:
	.loc 3 23 0
	lis 5,_ZTV10GuiElement+8@ha
.LBB1795:
.LBB1780:
.LBB1778:
.LBB1776:
.LBB1774:
.LBB1772:
.LBB1770:
.LBB1768:
	.loc 4 381 0
	stw 7,24(3)
.LBE1768:
.LBE1770:
.LBE1772:
.LBE1774:
.LBE1776:
.LBE1778:
.LBE1780:
.LBE1795:
.LBB1796:
.LBB1755:
	.loc 1 2225 0
	lis 6,_ZTVN7sigslot7signal2IP10GuiElementbNS_15single_threadedEEE+8@ha
.LBE1755:
.LBE1796:
.LBB1797:
.LBB1781:
	.loc 1 2292 0
	lis 7,_ZTVN7sigslot7signal3IP10GuiElementiiNS_15single_threadedEEE+8@ha
.LBE1781:
.LBE1797:
.LBB1798:
.LBB1756:
.LBB1752:
.LBB1749:
.LBB1746:
.LBB1743:
.LBB1739:
.LBB1740:
	.loc 4 315 0
	li 0,0
.LBE1740:
.LBE1739:
.LBE1743:
.LBE1746:
.LBE1749:
.LBE1752:
.LBE1756:
.LBE1798:
	.loc 3 34 0
	li 10,-1
	.loc 3 36 0
	li 8,1
.LBB1799:
.LBB1787:
	.loc 5 17 0
	stw 9,80(3)
.LBE1787:
.LBE1799:
	.loc 3 23 0
	la 5,_ZTV10GuiElement+8@l(5)
.LBB1800:
.LBB1788:
	.loc 5 17 0
	stw 9,84(3)
.LBE1788:
.LBE1800:
.LBB1801:
.LBB1757:
	.loc 1 2225 0
	la 6,_ZTVN7sigslot7signal2IP10GuiElementbNS_15single_threadedEEE+8@l(6)
.LBE1757:
.LBE1801:
.LBB1802:
.LBB1789:
	.loc 5 17 0
	stw 9,88(3)
.LBE1789:
.LBE1802:
.LBB1803:
.LBB1782:
	.loc 1 2292 0
	la 7,_ZTVN7sigslot7signal3IP10GuiElementiiNS_15single_threadedEEE+8@l(7)
.LBE1782:
.LBE1803:
.LBB1804:
.LBB1790:
	.loc 5 17 0
	stw 9,92(3)
.LBE1790:
.LBE1804:
	.loc 3 30 0
	li 9,255
	.loc 3 25 0
	stw 0,44(3)
	.loc 3 26 0
	stw 0,48(3)
	.loc 3 27 0
	stw 0,52(3)
	.loc 3 28 0
	stw 0,36(3)
	.loc 3 29 0
	stw 0,40(3)
	.loc 3 33 0
	stw 0,72(3)
	.loc 3 35 0
	stw 0,96(3)
	.loc 3 37 0
	stb 0,30(3)
	.loc 3 38 0
	stb 0,31(3)
	.loc 3 39 0
	stb 0,32(3)
	.loc 3 41 0
	stw 0,104(3)
	.loc 3 42 0
	stw 0,100(3)
	.loc 3 45 0
	stw 0,116(3)
	.loc 3 23 0
	stw 5,0(3)
.LVL289:
.LBB1805:
.LBB1758:
	.loc 1 2225 0
	stw 6,4(3)
.LVL290:
.LBE1758:
.LBE1805:
.LBB1806:
.LBB1783:
	.loc 1 2292 0
	stw 7,16(3)
.LVL291:
.LBE1783:
.LBE1806:
	.loc 3 30 0
	stw 9,56(3)
	.loc 3 31 0
	stw 11,60(3)
	.loc 3 32 0
	stw 11,64(3)
	.loc 3 34 0
	stw 10,76(3)
	.loc 3 36 0
	stb 8,28(3)
	.loc 3 40 0
	stb 8,29(3)
	.loc 3 43 0
	stw 10,108(3)
	.loc 3 44 0
	stw 11,112(3)
	.loc 3 46 0
	stw 0,120(3)
.LBE1726:
	.loc 3 55 0
.LBB1807:
	.loc 3 47 0
	stw 0,124(3)
	.loc 3 48 0
	stw 0,128(3)
	.loc 3 49 0
	stw 0,132(3)
	.loc 3 50 0
	stw 0,136(3)
	.loc 3 51 0
	stw 0,140(3)
	.loc 3 54 0
	li 0,17
	stw 0,68(3)
.LBE1807:
	.loc 3 55 0
	blr
	.cfi_endproc
.LFE1428:
	.size	_ZN10GuiElementC2Ev, .-_ZN10GuiElementC2Ev
	.section	.text._ZNSt8_Rb_treeIPN7sigslot12_signal_baseINS0_15single_threadedEEES4_St9_IdentityIS4_ESt4lessIS4_ESaIS4_EE8_M_eraseEPSt13_Rb_tree_nodeIS4_E,"axG",@progbits,_ZNSt8_Rb_treeIPN7sigslot12_signal_baseINS0_15single_threadedEEES4_St9_IdentityIS4_ESt4lessIS4_ESaIS4_EE8_M_eraseEPSt13_Rb_tree_nodeIS4_E,comdat
	.align 2
	.weak	_ZNSt8_Rb_treeIPN7sigslot12_signal_baseINS0_15single_threadedEEES4_St9_IdentityIS4_ESt4lessIS4_ESaIS4_EE8_M_eraseEPSt13_Rb_tree_nodeIS4_E
	.type	_ZNSt8_Rb_treeIPN7sigslot12_signal_baseINS0_15single_threadedEEES4_St9_IdentityIS4_ESt4lessIS4_ESaIS4_EE8_M_eraseEPSt13_Rb_tree_nodeIS4_E, @function
_ZNSt8_Rb_treeIPN7sigslot12_signal_baseINS0_15single_threadedEEES4_St9_IdentityIS4_ESt4lessIS4_ESaIS4_EE8_M_eraseEPSt13_Rb_tree_nodeIS4_E:
.LFB1691:
	.file 7 "d:\\devkitpro\\devkitppc\\bin\\../lib/gcc/powerpc-eabi/4.6.3/../../../../powerpc-eabi/include/c++/4.6.3/bits/stl_tree.h"
	.loc 7 1068 0
	.cfi_startproc
.LVL292:
	stwu 1,-56(1)
.LCFI64:
	.cfi_def_cfa_offset 56
	mflr 0
	stw 22,16(1)
.LBB1924:
	.loc 7 1072 0
	mr. 22,4
	.cfi_offset 22, -40
	.cfi_register 65, 0
.LBE1924:
	.loc 7 1068 0
	stw 30,48(1)
	mr 30,3
	.cfi_offset 30, -8
	stw 0,60(1)
	stw 21,12(1)
	stw 23,20(1)
	stw 24,24(1)
	stw 25,28(1)
	stw 26,32(1)
	stw 27,36(1)
	stw 28,40(1)
	stw 29,44(1)
	stw 31,52(1)
.LBB2009:
	.loc 7 1072 0
	beq- 0,.L272
	.cfi_offset 31, -4
	.cfi_offset 29, -12
	.cfi_offset 28, -16
	.cfi_offset 27, -20
	.cfi_offset 26, -24
	.cfi_offset 25, -28
	.cfi_offset 24, -32
	.cfi_offset 23, -36
	.cfi_offset 21, -44
	.cfi_offset 65, 4
.LVL293:
.L318:
	.loc 3 394 0
	lwz 27,12(22)
.LVL294:
.LBB1925:
.LBB1926:
.LBB1927:
	.loc 7 1072 0
	cmpwi 7,27,0
	beq- 7,.L274
.LVL295:
.L319:
.LBE1927:
	.loc 3 394 0
	lwz 26,12(27)
.LVL296:
.LBB2003:
.LBB1928:
.LBB1929:
.LBB1930:
	.loc 7 1072 0
	cmpwi 7,26,0
	beq- 7,.L275
.LVL297:
.L320:
.LBE1930:
	.loc 3 394 0
	lwz 25,12(26)
.LVL298:
.LBB1996:
.LBB1931:
.LBB1932:
.LBB1933:
	.loc 7 1072 0
	cmpwi 7,25,0
	beq- 7,.L276
.LVL299:
.L321:
.LBE1933:
	.loc 3 394 0
	lwz 24,12(25)
.LVL300:
.LBB1989:
.LBB1934:
.LBB1935:
.LBB1936:
	.loc 7 1072 0
	cmpwi 7,24,0
	beq- 7,.L277
.LVL301:
.L322:
.LBE1936:
	.loc 3 394 0
	lwz 23,12(24)
.LVL302:
.LBB1982:
.LBB1937:
.LBB1938:
.LBB1939:
	.loc 7 1072 0
	cmpwi 7,23,0
	beq- 7,.L278
.LVL303:
.L323:
.LBE1939:
	.loc 3 394 0
	lwz 28,12(23)
.LVL304:
.LBB1975:
.LBB1940:
.LBB1941:
.LBB1942:
	.loc 7 1072 0
	cmpwi 7,28,0
	beq- 7,.L279
.LVL305:
.L324:
.LBE1942:
	.loc 3 394 0
	lwz 29,12(28)
.LVL306:
.LBB1968:
.LBB1943:
.LBB1944:
.LBB1945:
	.loc 7 1072 0
	cmpwi 7,29,0
	beq- 7,.L280
.LVL307:
.L325:
.LBE1945:
	.loc 3 394 0
	lwz 31,12(29)
.LVL308:
.LBB1961:
.LBB1946:
.LBB1947:
.LBB1948:
	.loc 7 1072 0
	cmpwi 7,31,0
	beq- 7,.L281
.LVL309:
.L326:
.LBB1949:
	.loc 7 1074 0
	lwz 4,12(31)
	mr 3,30
	bl _ZNSt8_Rb_treeIPN7sigslot12_signal_baseINS0_15single_threadedEEES4_St9_IdentityIS4_ESt4lessIS4_ESaIS4_EE8_M_eraseEPSt13_Rb_tree_nodeIS4_E
.LBE1949:
.LBE1948:
	.loc 3 394 0
	lwz 21,8(31)
.LVL310:
.LBB1955:
.LBB1954:
.LBB1950:
.LBB1951:
.LBB1952:
.LBB1953:
	.loc 6 98 0
	mr 3,31
	bl _ZdlPv
.LVL311:
.LBE1953:
.LBE1952:
.LBE1951:
.LBE1950:
.LBE1954:
	.loc 7 1072 0
	cmpwi 7,21,0
	.loc 7 1077 0
	mr 31,21
.LVL312:
	.loc 7 1072 0
	bne+ 7,.L326
.LVL313:
.L281:
.LBE1955:
.LBE1947:
.LBE1946:
.LBE1961:
	.loc 3 394 0
	lwz 31,8(29)
.LVL314:
.LBB1962:
.LBB1960:
.LBB1956:
.LBB1957:
.LBB1958:
.LBB1959:
	.loc 6 98 0
	mr 3,29
	bl _ZdlPv
.LVL315:
.LBE1959:
.LBE1958:
.LBE1957:
.LBE1956:
.LBE1960:
	.loc 7 1072 0
	cmpwi 7,31,0
	beq- 7,.L280
	.loc 7 1077 0
	mr 29,31
.LVL316:
	b .L325
.LVL317:
.L280:
.LBE1962:
.LBE1944:
.LBE1943:
.LBE1968:
	.loc 3 394 0
	lwz 31,8(28)
.LVL318:
.LBB1969:
.LBB1967:
.LBB1963:
.LBB1964:
.LBB1965:
.LBB1966:
	.loc 6 98 0
	mr 3,28
	bl _ZdlPv
.LVL319:
.LBE1966:
.LBE1965:
.LBE1964:
.LBE1963:
.LBE1967:
	.loc 7 1072 0
	cmpwi 7,31,0
	beq- 7,.L279
	.loc 7 1077 0
	mr 28,31
.LVL320:
	b .L324
.LVL321:
.L279:
.LBE1969:
.LBE1941:
.LBE1940:
.LBE1975:
	.loc 3 394 0
	lwz 31,8(23)
.LVL322:
.LBB1976:
.LBB1974:
.LBB1970:
.LBB1971:
.LBB1972:
.LBB1973:
	.loc 6 98 0
	mr 3,23
	bl _ZdlPv
.LVL323:
.LBE1973:
.LBE1972:
.LBE1971:
.LBE1970:
.LBE1974:
	.loc 7 1072 0
	cmpwi 7,31,0
	beq- 7,.L278
	.loc 7 1077 0
	mr 23,31
.LVL324:
	b .L323
.LVL325:
.L278:
.LBE1976:
.LBE1938:
.LBE1937:
.LBE1982:
	.loc 3 394 0
	lwz 31,8(24)
.LVL326:
.LBB1983:
.LBB1981:
.LBB1977:
.LBB1978:
.LBB1979:
.LBB1980:
	.loc 6 98 0
	mr 3,24
	bl _ZdlPv
.LVL327:
.LBE1980:
.LBE1979:
.LBE1978:
.LBE1977:
.LBE1981:
	.loc 7 1072 0
	cmpwi 7,31,0
	beq- 7,.L277
	.loc 7 1077 0
	mr 24,31
.LVL328:
	b .L322
.LVL329:
.L277:
.LBE1983:
.LBE1935:
.LBE1934:
.LBE1989:
	.loc 3 394 0
	lwz 31,8(25)
.LVL330:
.LBB1990:
.LBB1988:
.LBB1984:
.LBB1985:
.LBB1986:
.LBB1987:
	.loc 6 98 0
	mr 3,25
	bl _ZdlPv
.LVL331:
.LBE1987:
.LBE1986:
.LBE1985:
.LBE1984:
.LBE1988:
	.loc 7 1072 0
	cmpwi 7,31,0
	beq- 7,.L276
	.loc 7 1077 0
	mr 25,31
.LVL332:
	b .L321
.LVL333:
.L276:
.LBE1990:
.LBE1932:
.LBE1931:
.LBE1996:
	.loc 3 394 0
	lwz 31,8(26)
.LVL334:
.LBB1997:
.LBB1995:
.LBB1991:
.LBB1992:
.LBB1993:
.LBB1994:
	.loc 6 98 0
	mr 3,26
	bl _ZdlPv
.LVL335:
.LBE1994:
.LBE1993:
.LBE1992:
.LBE1991:
.LBE1995:
	.loc 7 1072 0
	cmpwi 7,31,0
	beq- 7,.L275
	.loc 7 1077 0
	mr 26,31
.LVL336:
	b .L320
.LVL337:
.L275:
.LBE1997:
.LBE1929:
.LBE1928:
.LBE2003:
	.loc 3 394 0
	lwz 31,8(27)
.LVL338:
.LBB2004:
.LBB2002:
.LBB1998:
.LBB1999:
.LBB2000:
.LBB2001:
	.loc 6 98 0
	mr 3,27
	bl _ZdlPv
.LVL339:
.LBE2001:
.LBE2000:
.LBE1999:
.LBE1998:
.LBE2002:
	.loc 7 1072 0
	cmpwi 7,31,0
	beq- 7,.L274
	.loc 7 1077 0
	mr 27,31
.LVL340:
	b .L319
.LVL341:
.L274:
	.loc 3 394 0
	lwz 31,8(22)
.LVL342:
.LBE2004:
.LBE1926:
.LBB2005:
.LBB2006:
.LBB2007:
.LBB2008:
	.loc 6 98 0
	mr 3,22
	bl _ZdlPv
.LVL343:
.LBE2008:
.LBE2007:
.LBE2006:
.LBE2005:
.LBE1925:
	.loc 7 1072 0
	cmpwi 7,31,0
	beq- 7,.L272
	.loc 7 1077 0
	mr 22,31
.LVL344:
	b .L318
.LVL345:
.L272:
.LBE2009:
	.loc 7 1079 0
	lwz 0,60(1)
	lwz 21,12(1)
	mtlr 0
	lwz 22,16(1)
	lwz 23,20(1)
	lwz 24,24(1)
	lwz 25,28(1)
	lwz 26,32(1)
	lwz 27,36(1)
	lwz 28,40(1)
	lwz 29,44(1)
	lwz 30,48(1)
.LVL346:
	lwz 31,52(1)
	addi 1,1,56
.LCFI65:
	.cfi_def_cfa_offset 0
	.cfi_restore 31
	.cfi_restore 30
	.cfi_restore 29
	.cfi_restore 28
	.cfi_restore 27
	.cfi_restore 26
	.cfi_restore 25
	.cfi_restore 24
	.cfi_restore 23
	.cfi_restore 22
	.cfi_restore 21
	blr
	.cfi_endproc
.LFE1691:
	.size	_ZNSt8_Rb_treeIPN7sigslot12_signal_baseINS0_15single_threadedEEES4_St9_IdentityIS4_ESt4lessIS4_ESaIS4_EE8_M_eraseEPSt13_Rb_tree_nodeIS4_E, .-_ZNSt8_Rb_treeIPN7sigslot12_signal_baseINS0_15single_threadedEEES4_St9_IdentityIS4_ESt4lessIS4_ESaIS4_EE8_M_eraseEPSt13_Rb_tree_nodeIS4_E
	.section	.text._ZNSt8_Rb_treeIPN7sigslot12_signal_baseINS0_15single_threadedEEES4_St9_IdentityIS4_ESt4lessIS4_ESaIS4_EE5eraseERKS4_,"axG",@progbits,_ZNSt8_Rb_treeIPN7sigslot12_signal_baseINS0_15single_threadedEEES4_St9_IdentityIS4_ESt4lessIS4_ESaIS4_EE5eraseERKS4_,comdat
	.align 2
	.weak	_ZNSt8_Rb_treeIPN7sigslot12_signal_baseINS0_15single_threadedEEES4_St9_IdentityIS4_ESt4lessIS4_ESaIS4_EE5eraseERKS4_
	.type	_ZNSt8_Rb_treeIPN7sigslot12_signal_baseINS0_15single_threadedEEES4_St9_IdentityIS4_ESt4lessIS4_ESaIS4_EE5eraseERKS4_, @function
_ZNSt8_Rb_treeIPN7sigslot12_signal_baseINS0_15single_threadedEEES4_St9_IdentityIS4_ESt4lessIS4_ESaIS4_EE5eraseERKS4_:
.LFB1623:
	.loc 7 1510 0
	.cfi_startproc
.LVL347:
	mflr 0
	stwu 1,-32(1)
.LCFI66:
	.cfi_def_cfa_offset 32
	.cfi_register 65, 0
	stw 28,16(1)
.LBB2010:
.LBB2011:
	.loc 7 1155 0
	addi 28,3,4
	.cfi_offset 28, -16
.LBE2011:
.LBE2010:
	.loc 7 1510 0
	stw 0,36(1)
	stw 26,8(1)
.LBB2067:
.LBB2032:
.LBB2012:
	.loc 7 1155 0
	mr 26,28
	.cfi_offset 26, -24
	.cfi_offset 65, 4
.LBE2012:
	.loc 3 394 0
	lwz 0,8(3)
.LBE2032:
.LBE2067:
	.loc 7 1510 0
	stw 29,20(1)
.LBB2068:
.LBB2033:
.LBB2025:
	.loc 7 1155 0
	mr 29,28
	.cfi_offset 29, -12
	.loc 7 1156 0
	cmpwi 7,0,0
.LBE2025:
.LBE2033:
.LBE2068:
	.loc 7 1510 0
	stw 30,24(1)
	stw 27,12(1)
	mr 30,3
	.cfi_offset 27, -20
	.cfi_offset 30, -8
.LVL348:
	stw 31,28(1)
.LBB2069:
.LBB2034:
.LBB2026:
	.loc 7 1156 0
	beq- 7,.L328
	.cfi_offset 31, -4
	lwz 11,0(4)
	mr 26,0
	b .L339
.LVL349:
.L358:
.LBE2026:
	.loc 3 394 0
	lwz 26,12(26)
.LVL350:
.LBB2027:
	.loc 7 1156 0
	cmpwi 7,26,0
	beq- 7,.L357
.L339:
.LVL351:
.LBE2027:
	.loc 3 394 0
	lwz 9,16(26)
.LBB2028:
.LBB2013:
	.loc 7 1158 0
	cmplw 7,9,11
	blt- 7,.L358
.LVL352:
.LBB2014:
	.loc 7 1160 0
	ble- 7,.L331
.LVL353:
.LBE2014:
.LBE2013:
.LBE2028:
	.loc 3 394 0
	mr 29,26
	.loc 7 1161 0
	lwz 26,8(26)
.LVL354:
.LBB2029:
	.loc 7 1156 0
	cmpwi 7,26,0
	bne+ 7,.L339
.LVL355:
.L357:
	mr 26,29
.LVL356:
.L328:
.LBE2029:
.LBE2034:
.LBB2035:
.LBB2036:
	.loc 3 394 0
	lwz 9,12(30)
.LBE2036:
.LBE2035:
.LBB2063:
.LBB2030:
	lwz 27,20(30)
.LVL357:
.LBE2030:
.LBE2063:
.LBB2064:
.LBB2061:
.LBB2037:
	.loc 7 1500 0
	cmpw 7,9,26
	beq- 7,.L340
.L344:
.LVL358:
	.loc 7 1503 0
	cmpw 7,26,29
	beq- 7,.L359
.LVL359:
.L355:
.LBB2038:
.LBB2039:
	.loc 7 277 0
	mr 3,26
	bl _ZSt18_Rb_tree_incrementPKSt18_Rb_tree_node_base
.LBE2039:
.LBE2038:
.LBB2041:
.LBB2042:
.LBB2043:
	.loc 7 1489 0
	mr 4,28
.LBE2043:
.LBE2042:
.LBE2041:
.LBB2054:
.LBB2040:
	.loc 7 277 0
	mr 31,3
.LVL360:
.LBE2040:
.LBE2054:
.LBB2055:
.LBB2051:
.LBB2048:
	.loc 7 1489 0
	mr 3,26
.LVL361:
	bl _ZSt28_Rb_tree_rebalance_for_erasePSt18_Rb_tree_node_baseRS_
.LBE2048:
.LBE2051:
.LBE2055:
	.loc 7 277 0
	mr 26,31
.LVL362:
.LBB2056:
.LBB2052:
.LBB2049:
.LBB2044:
.LBB2045:
.LBB2046:
.LBB2047:
	.loc 6 98 0
	bl _ZdlPv
.LBE2047:
.LBE2046:
.LBE2045:
.LBE2044:
.LBE2049:
.LBE2052:
.LBE2056:
	.loc 7 1503 0
	cmpw 7,31,29
.LBB2057:
.LBB2053:
.LBB2050:
	.loc 7 1491 0
	lwz 9,20(30)
	addi 0,9,-1
	stw 0,20(30)
.LBE2050:
.LBE2053:
.LBE2057:
	.loc 7 1503 0
	bne+ 7,.L355
	subf 27,0,27
.LVL363:
.L342:
.LBE2037:
.LBE2061:
.LBE2064:
.LBE2069:
	.loc 7 1517 0
	lwz 0,36(1)
	mr 3,27
	lwz 26,8(1)
	mtlr 0
	lwz 27,12(1)
	lwz 28,16(1)
	lwz 29,20(1)
.LVL364:
	lwz 30,24(1)
.LVL365:
	lwz 31,28(1)
	addi 1,1,32
	.cfi_remember_state
.LCFI67:
	.cfi_def_cfa_offset 0
	.cfi_restore 31
	.cfi_restore 30
	.cfi_restore 29
	.cfi_restore 28
	.cfi_restore 27
	.cfi_restore 26
	blr
.LVL366:
.L331:
.LCFI68:
	.cfi_restore_state
.LBB2070:
.LBB2065:
	.loc 3 394 0
	lwz 10,8(26)
.LVL367:
	lwz 9,12(26)
.LVL368:
.L356:
.LBB2031:
.LBB2024:
.LBB2023:
.LBB2015:
.LBB2016:
.LBB2017:
	.loc 7 1089 0
	cmpwi 7,10,0
	beq- 7,.L332
.L360:
.LVL369:
	.loc 7 1090 0
	lwz 8,16(10)
	cmplw 7,8,11
	blt- 7,.L333
.LVL370:
.LBE2017:
	.loc 3 394 0
	mr 26,10
	.loc 7 1091 0
	lwz 10,8(10)
.LVL371:
.LBB2018:
	.loc 7 1089 0
	cmpwi 7,10,0
	bne+ 7,.L360
.LVL372:
.L332:
.LBE2018:
.LBE2016:
.LBB2019:
.LBB2020:
	.loc 7 1121 0
	cmpwi 7,9,0
	beq- 7,.L328
.LVL373:
	.loc 7 1122 0
	lwz 10,16(9)
	cmplw 7,10,11
	ble- 7,.L336
.LVL374:
.L361:
.LBE2020:
	.loc 3 394 0
	mr 29,9
	.loc 7 1123 0
	lwz 9,8(9)
.LVL375:
.LBB2021:
	.loc 7 1121 0
	cmpwi 7,9,0
	beq- 7,.L328
.LVL376:
	.loc 7 1122 0
	lwz 10,16(9)
	cmplw 7,10,11
	bgt- 7,.L361
.LVL377:
.L336:
.LBE2021:
	.loc 3 394 0
	lwz 9,12(9)
.LVL378:
	b .L332
.LVL379:
.L333:
.LBE2019:
.LBB2022:
	lwz 10,12(10)
.LVL380:
	b .L356
.LVL381:
.L340:
.LBE2022:
.LBE2015:
.LBE2023:
.LBE2024:
.LBE2031:
.LBE2065:
.LBB2066:
.LBB2062:
.LBB2060:
	.loc 7 1500 0
	cmpw 7,28,29
	bne+ 7,.L344
.LVL382:
.LBB2058:
.LBB2059:
	.loc 7 809 0
	mr 4,0
.LVL383:
	mr 3,30
.LVL384:
	bl _ZNSt8_Rb_treeIPN7sigslot12_signal_baseINS0_15single_threadedEEES4_St9_IdentityIS4_ESt4lessIS4_ESaIS4_EE8_M_eraseEPSt13_Rb_tree_nodeIS4_E
.LVL385:
	.loc 7 811 0
	li 0,0
	.loc 7 810 0
	stw 28,12(30)
.LVL386:
	.loc 7 811 0
	stw 0,8(30)
.LVL387:
	.loc 7 812 0
	stw 28,16(30)
	.loc 7 813 0
	stw 0,20(30)
	b .L342
.LVL388:
.L359:
.LBE2059:
.LBE2058:
	.loc 7 1503 0
	li 27,0
	b .L342
.LBE2060:
.LBE2062:
.LBE2066:
.LBE2070:
	.cfi_endproc
.LFE1623:
	.size	_ZNSt8_Rb_treeIPN7sigslot12_signal_baseINS0_15single_threadedEEES4_St9_IdentityIS4_ESt4lessIS4_ESaIS4_EE5eraseERKS4_, .-_ZNSt8_Rb_treeIPN7sigslot12_signal_baseINS0_15single_threadedEEES4_St9_IdentityIS4_ESt4lessIS4_ESaIS4_EE5eraseERKS4_
	.section	.text._ZN7sigslot7signal3IP10GuiElementiiNS_15single_threadedEED2Ev,"axG",@progbits,_ZN7sigslot7signal3IP10GuiElementiiNS_15single_threadedEED5Ev,comdat
	.align 2
	.weak	_ZN7sigslot7signal3IP10GuiElementiiNS_15single_threadedEED2Ev
	.type	_ZN7sigslot7signal3IP10GuiElementiiNS_15single_threadedEED2Ev, @function
_ZN7sigslot7signal3IP10GuiElementiiNS_15single_threadedEED2Ev:
.LFB1446:
	.loc 1 2302 0
	.cfi_startproc
	.cfi_personality 0,__gxx_personality_v0
	.cfi_lsda 0,.LLSDA1446
.LVL389:
	mflr 0
	stwu 1,-40(1)
.LCFI69:
	.cfi_def_cfa_offset 40
	.cfi_register 65, 0
.LBB2168:
.LBB2169:
.LBB2170:
.LBB2171:
	.loc 1 946 0
	lis 9,_ZTVN7sigslot13_signal_base3IP10GuiElementiiNS_15single_threadedEEE+8@ha
.LBE2171:
.LBE2170:
.LBE2169:
.LBE2168:
	.loc 1 2302 0
	stw 28,24(1)
	mr 28,3
	.cfi_offset 28, -16
.LVL390:
	stw 0,44(1)
.LBB2269:
.LBB2264:
.LBB2259:
.LBB2254:
	.loc 1 946 0
	la 0,_ZTVN7sigslot13_signal_base3IP10GuiElementiiNS_15single_threadedEEE+8@l(9)
	.cfi_offset 65, 4
.LBE2254:
.LBE2259:
.LBE2264:
.LBE2269:
	.loc 1 2302 0
	stw 29,28(1)
	addi 29,3,4
	.cfi_offset 29, -12
	stw 30,32(1)
	stw 31,36(1)
.LBB2270:
.LBB2265:
.LBB2260:
.LBB2255:
	.loc 1 946 0
	stw 0,0(3)
.LVL391:
.LEHB24:
.LBB2172:
.LBB2173:
.LBB2174:
.LBB2175:
	.loc 1 338 0
	.cfi_offset 31, -4
	.cfi_offset 30, -8
	bl _ZN7sigslot15single_threaded4lockEv
.LEHE24:
.LVL392:
.LBE2175:
.LBE2174:
.LBE2173:
	.loc 3 394 0
	mr 29,28
.LVL393:
	lwzu 31,4(29)
.LVL394:
.LBB2206:
	.loc 1 954 0
	cmpw 7,31,29
	beq- 7,.L363
.LVL395:
.L401:
	.loc 1 956 0
	lwz 3,8(31)
	lwz 9,0(3)
	lwz 0,8(9)
	mtctr 0
.LEHB25:
	bctrl
.LBB2176:
.LBB2177:
.LBB2178:
.LBB2179:
	.loc 1 338 0
	lwz 9,0(3)
.LBE2179:
.LBE2178:
.LBE2177:
.LBE2176:
	.loc 1 956 0
	mr 30,3
.LVL396:
	stw 28,8(1)
.LVL397:
.LBB2188:
.LBB2187:
.LBB2181:
.LBB2180:
	.loc 1 338 0
	lwz 0,8(9)
	mtctr 0
	bctrl
.LVL398:
.LBE2180:
.LBE2181:
.LBB2182:
.LBB2183:
	.file 8 "d:\\devkitpro\\devkitppc\\bin\\../lib/gcc/powerpc-eabi/4.6.3/../../../../powerpc-eabi/include/c++/4.6.3/bits/stl_set.h"
	.loc 8 528 0
	addi 3,30,4
	addi 4,1,8
	bl _ZNSt8_Rb_treeIPN7sigslot12_signal_baseINS0_15single_threadedEEES4_St9_IdentityIS4_ESt4lessIS4_ESaIS4_EE5eraseERKS4_
.LVL399:
.LBE2183:
.LBE2182:
.LBB2184:
.LBB2185:
.LBB2186:
	.loc 1 343 0
	lwz 9,0(30)
	mr 3,30
	lwz 0,12(9)
	mtctr 0
	bctrl
.LVL400:
.LBE2186:
.LBE2185:
.LBE2184:
.LBE2187:
.LBE2188:
	.loc 1 957 0
	lwz 3,8(31)
	cmpwi 7,3,0
	beq- 7,.L365
	lwz 9,0(3)
	lwz 0,4(9)
	mtctr 0
	bctrl
.LEHE25:
.L365:
.LVL401:
.LBB2189:
.LBB2190:
	.loc 4 234 0
	lwz 31,0(31)
.LVL402:
.LBE2190:
.LBE2189:
	.loc 1 954 0
	cmpw 7,29,31
	bne+ 7,.L401
.LBE2206:
	.loc 3 394 0
	lwz 31,4(28)
.LVL403:
.LBB2207:
.LBB2191:
.LBB2192:
	.loc 4 1162 0
	cmpw 7,29,31
	bne+ 7,.L403
	b .L363
.LVL404:
.L396:
	.loc 4 1163 0
	mr 31,30
.LVL405:
.L403:
.LBB2193:
.LBB2194:
	.file 9 "d:\\devkitpro\\devkitppc\\bin\\../lib/gcc/powerpc-eabi/4.6.3/../../../../powerpc-eabi/include/c++/4.6.3/bits/list.tcc"
	.loc 9 112 0
	lwz 30,0(31)
.LVL406:
.LBB2195:
.LBB2196:
	.loc 4 1532 0
	mr 3,31
	bl _ZNSt8__detail15_List_node_base9_M_unhookEv
.LVL407:
.LBB2197:
.LBB2198:
.LBB2199:
	.loc 6 98 0
	mr 3,31
	bl _ZdlPv
.LVL408:
.LBE2199:
.LBE2198:
.LBE2197:
.LBE2196:
.LBE2195:
.LBE2194:
.LBE2193:
	.loc 4 1162 0
	cmpw 7,29,30
	bne+ 7,.L396
.LVL409:
.L363:
.LBE2192:
.LBE2191:
.LBB2200:
.LBB2201:
.LBB2202:
	.loc 1 343 0
	lwz 9,0(28)
	mr 3,28
	lwz 0,12(9)
	mtctr 0
.LEHB26:
	bctrl
.LEHE26:
.LBE2202:
.LBE2201:
.LBE2200:
.LBE2207:
.LBE2172:
.LBB2209:
.LBB2210:
.LBB2211:
.LBB2212:
.LBB2213:
.LBB2214:
	.loc 9 70 0
	lwz 3,4(28)
.LVL410:
	.loc 9 71 0
	cmpw 7,3,29
	bne+ 7,.L405
	b .L381
.LVL411:
.L397:
	.loc 9 74 0
	mr 3,31
.LVL412:
.L405:
.LBB2215:
	lwz 31,0(3)
.LVL413:
.LBB2216:
.LBB2217:
.LBB2218:
	.loc 6 98 0
	bl _ZdlPv
.LVL414:
.LBE2218:
.LBE2217:
.LBE2216:
.LBE2215:
	.loc 9 71 0
	cmpw 7,31,29
	bne+ 7,.L397
.LVL415:
.L381:
.LBE2214:
.LBE2213:
.LBE2212:
.LBE2211:
.LBE2210:
.LBE2209:
.LBB2219:
.LBB2220:
.LBB2221:
.LBB2222:
.LBB2223:
.LBB2224:
	.loc 1 105 0
	lis 9,_ZTVN7sigslot15single_threadedE+8@ha
.LBE2224:
.LBE2223:
.LBE2222:
.LBE2221:
.LBE2220:
.LBE2219:
.LBE2255:
.LBE2260:
.LBE2265:
.LBE2270:
	.loc 1 2305 0
	lwz 29,28(1)
.LVL416:
.LBB2271:
.LBB2266:
.LBB2261:
.LBB2256:
.LBB2235:
.LBB2233:
.LBB2231:
.LBB2229:
.LBB2227:
.LBB2225:
	.loc 1 105 0
	la 0,_ZTVN7sigslot15single_threadedE+8@l(9)
.LBE2225:
.LBE2227:
.LBE2229:
.LBE2231:
.LBE2233:
.LBE2235:
.LBE2256:
.LBE2261:
.LBE2266:
.LBE2271:
	.loc 1 2305 0
	lwz 30,32(1)
.LBB2272:
.LBB2267:
.LBB2262:
.LBB2257:
.LBB2236:
.LBB2234:
.LBB2232:
.LBB2230:
.LBB2228:
.LBB2226:
	.loc 1 105 0
	stw 0,0(28)
.LBE2226:
.LBE2228:
.LBE2230:
.LBE2232:
.LBE2234:
.LBE2236:
.LBE2257:
.LBE2262:
.LBE2267:
.LBE2272:
	.loc 1 2305 0
	lwz 0,44(1)
	lwz 28,24(1)
.LVL417:
	mtlr 0
	lwz 31,36(1)
	addi 1,1,40
	.cfi_remember_state
.LCFI70:
	.cfi_def_cfa_offset 0
	.cfi_restore 31
	.cfi_restore 30
	.cfi_restore 29
	.cfi_restore 28
	blr
.LVL418:
.L399:
.LCFI71:
	.cfi_restore_state
	mr 31,3
.L373:
.LBB2273:
.LBB2268:
.LBB2263:
.LBB2258:
.LBB2237:
.LBB2238:
.LBB2239:
.LBB2240:
.LBB2241:
.LBB2242:
	.loc 9 70 0
	lwz 3,4(28)
.LVL419:
	.loc 9 71 0
	cmpw 7,3,29
	beq- 7,.L390
.LVL420:
.L406:
.LBB2243:
	.loc 9 74 0
	lwz 30,0(3)
.LVL421:
.LBB2244:
.LBB2245:
.LBB2246:
	.loc 6 98 0
	bl _ZdlPv
.LVL422:
.LBE2246:
.LBE2245:
.LBE2244:
.LBE2243:
	.loc 9 71 0
	cmpw 7,30,29
	beq- 7,.L390
	.loc 9 74 0
	mr 3,30
	b .L406
.LVL423:
.L400:
.LBE2242:
.LBE2241:
.LBE2240:
.LBE2239:
.LBE2238:
.LBE2237:
.LBB2247:
.LBB2208:
.LBB2203:
.LBB2204:
.LBB2205:
	.loc 1 343 0
	lwz 9,0(28)
	mr 31,3
.LVL424:
	mr 3,28
	lwz 0,12(9)
	mtctr 0
	bctrl
	b .L373
.LVL425:
.L390:
.LBE2205:
.LBE2204:
.LBE2203:
.LBE2208:
.LBE2247:
.LBB2248:
.LBB2249:
.LBB2250:
.LBB2251:
.LBB2252:
.LBB2253:
	.loc 1 105 0
	lis 9,_ZTVN7sigslot15single_threadedE+8@ha
	mr 3,31
	la 0,_ZTVN7sigslot15single_threadedE+8@l(9)
	stw 0,0(28)
.LEHB27:
	bl _Unwind_Resume
.LEHE27:
.LBE2253:
.LBE2252:
.LBE2251:
.LBE2250:
.LBE2249:
.LBE2248:
.LBE2258:
.LBE2263:
.LBE2268:
.LBE2273:
	.cfi_endproc
.LFE1446:
	.section	.gcc_except_table
.LLSDA1446:
	.byte	0xff
	.byte	0xff
	.byte	0x1
	.uleb128 .LLSDACSE1446-.LLSDACSB1446
.LLSDACSB1446:
	.uleb128 .LEHB24-.LFB1446
	.uleb128 .LEHE24-.LEHB24
	.uleb128 .L399-.LFB1446
	.uleb128 0
	.uleb128 .LEHB25-.LFB1446
	.uleb128 .LEHE25-.LEHB25
	.uleb128 .L400-.LFB1446
	.uleb128 0
	.uleb128 .LEHB26-.LFB1446
	.uleb128 .LEHE26-.LEHB26
	.uleb128 .L399-.LFB1446
	.uleb128 0
	.uleb128 .LEHB27-.LFB1446
	.uleb128 .LEHE27-.LEHB27
	.uleb128 0
	.uleb128 0
.LLSDACSE1446:
	.section	.text._ZN7sigslot7signal3IP10GuiElementiiNS_15single_threadedEED2Ev,"axG",@progbits,_ZN7sigslot7signal3IP10GuiElementiiNS_15single_threadedEED5Ev,comdat
	.size	_ZN7sigslot7signal3IP10GuiElementiiNS_15single_threadedEED2Ev, .-_ZN7sigslot7signal3IP10GuiElementiiNS_15single_threadedEED2Ev
	.section	.text._ZN7sigslot7signal2IP10GuiElementbNS_15single_threadedEED0Ev,"axG",@progbits,_ZN7sigslot7signal2IP10GuiElementbNS_15single_threadedEED5Ev,comdat
	.align 2
	.weak	_ZN7sigslot7signal2IP10GuiElementbNS_15single_threadedEED0Ev
	.type	_ZN7sigslot7signal2IP10GuiElementbNS_15single_threadedEED0Ev, @function
_ZN7sigslot7signal2IP10GuiElementbNS_15single_threadedEED0Ev:
.LFB1444:
	.loc 1 2235 0
	.cfi_startproc
	.cfi_personality 0,__gxx_personality_v0
	.cfi_lsda 0,.LLSDA1444
.LVL426:
	mflr 0
	stwu 1,-40(1)
.LCFI72:
	.cfi_def_cfa_offset 40
	.cfi_register 65, 0
.LBB2372:
.LBB2373:
.LBB2374:
.LBB2375:
.LBB2376:
.LBB2377:
	.loc 1 826 0
	lis 9,_ZTVN7sigslot13_signal_base2IP10GuiElementbNS_15single_threadedEEE+8@ha
.LBE2377:
.LBE2376:
.LBE2375:
.LBE2374:
.LBE2373:
.LBE2372:
	.loc 1 2235 0
	stw 28,24(1)
	mr 28,3
	.cfi_offset 28, -16
.LVL427:
	stw 0,44(1)
.LBB2474:
.LBB2470:
.LBB2466:
.LBB2462:
.LBB2458:
.LBB2454:
	.loc 1 826 0
	la 0,_ZTVN7sigslot13_signal_base2IP10GuiElementbNS_15single_threadedEEE+8@l(9)
	.cfi_offset 65, 4
.LBE2454:
.LBE2458:
.LBE2462:
.LBE2466:
.LBE2470:
.LBE2474:
	.loc 1 2235 0
	stw 29,28(1)
	addi 29,3,4
	.cfi_offset 29, -12
	stw 30,32(1)
	stw 31,36(1)
.LBB2475:
.LBB2471:
.LBB2467:
.LBB2463:
.LBB2459:
.LBB2455:
	.loc 1 826 0
	stw 0,0(3)
.LVL428:
.LEHB28:
.LBB2378:
.LBB2379:
.LBB2380:
.LBB2381:
	.loc 1 338 0
	.cfi_offset 31, -4
	.cfi_offset 30, -8
	bl _ZN7sigslot15single_threaded4lockEv
.LEHE28:
.LVL429:
.LBE2381:
.LBE2380:
.LBE2379:
	.loc 3 394 0
	mr 29,28
.LVL430:
	lwzu 31,4(29)
.LVL431:
.LBB2412:
	.loc 1 834 0
	cmpw 7,31,29
	beq- 7,.L408
.LVL432:
.L447:
	.loc 1 836 0
	lwz 3,8(31)
	lwz 9,0(3)
	lwz 0,8(9)
	mtctr 0
.LEHB29:
	bctrl
.LBB2382:
.LBB2383:
.LBB2384:
.LBB2385:
	.loc 1 338 0
	lwz 9,0(3)
.LBE2385:
.LBE2384:
.LBE2383:
.LBE2382:
	.loc 1 836 0
	mr 30,3
.LVL433:
	stw 28,8(1)
.LVL434:
.LBB2394:
.LBB2393:
.LBB2387:
.LBB2386:
	.loc 1 338 0
	lwz 0,8(9)
	mtctr 0
	bctrl
.LVL435:
.LBE2386:
.LBE2387:
.LBB2388:
.LBB2389:
	.loc 8 528 0
	addi 3,30,4
	addi 4,1,8
	bl _ZNSt8_Rb_treeIPN7sigslot12_signal_baseINS0_15single_threadedEEES4_St9_IdentityIS4_ESt4lessIS4_ESaIS4_EE5eraseERKS4_
.LVL436:
.LBE2389:
.LBE2388:
.LBB2390:
.LBB2391:
.LBB2392:
	.loc 1 343 0
	lwz 9,0(30)
	mr 3,30
	lwz 0,12(9)
	mtctr 0
	bctrl
.LVL437:
.LBE2392:
.LBE2391:
.LBE2390:
.LBE2393:
.LBE2394:
	.loc 1 837 0
	lwz 3,8(31)
	cmpwi 7,3,0
	beq- 7,.L410
	lwz 9,0(3)
	lwz 0,4(9)
	mtctr 0
	bctrl
.LEHE29:
.L410:
.LVL438:
.LBB2395:
.LBB2396:
	.loc 4 234 0
	lwz 31,0(31)
.LVL439:
.LBE2396:
.LBE2395:
	.loc 1 834 0
	cmpw 7,29,31
	bne+ 7,.L447
.LBE2412:
	.loc 3 394 0
	lwz 31,4(28)
.LVL440:
.LBB2413:
.LBB2397:
.LBB2398:
	.loc 4 1162 0
	cmpw 7,29,31
	bne+ 7,.L449
	b .L408
.LVL441:
.L442:
	.loc 4 1163 0
	mr 31,30
.LVL442:
.L449:
.LBB2399:
.LBB2400:
	.loc 9 112 0
	lwz 30,0(31)
.LVL443:
.LBB2401:
.LBB2402:
	.loc 4 1532 0
	mr 3,31
	bl _ZNSt8__detail15_List_node_base9_M_unhookEv
.LVL444:
.LBB2403:
.LBB2404:
.LBB2405:
	.loc 6 98 0
	mr 3,31
	bl _ZdlPv
.LVL445:
.LBE2405:
.LBE2404:
.LBE2403:
.LBE2402:
.LBE2401:
.LBE2400:
.LBE2399:
	.loc 4 1162 0
	cmpw 7,29,30
	bne+ 7,.L442
.LVL446:
.L408:
.LBE2398:
.LBE2397:
.LBB2406:
.LBB2407:
.LBB2408:
	.loc 1 343 0
	lwz 9,0(28)
	mr 3,28
	lwz 0,12(9)
	mtctr 0
.LEHB30:
	bctrl
.LEHE30:
.LBE2408:
.LBE2407:
.LBE2406:
.LBE2413:
.LBE2378:
.LBB2415:
.LBB2416:
.LBB2417:
.LBB2418:
.LBB2419:
.LBB2420:
	.loc 9 70 0
	lwz 3,4(28)
.LVL447:
	.loc 9 71 0
	cmpw 7,3,29
	bne+ 7,.L451
	b .L426
.LVL448:
.L443:
	.loc 9 74 0
	mr 3,31
.LVL449:
.L451:
.LBB2421:
	lwz 31,0(3)
.LVL450:
.LBB2422:
.LBB2423:
.LBB2424:
	.loc 6 98 0
	bl _ZdlPv
.LVL451:
.LBE2424:
.LBE2423:
.LBE2422:
.LBE2421:
	.loc 9 71 0
	cmpw 7,31,29
	bne+ 7,.L443
.LVL452:
.L426:
.LBE2420:
.LBE2419:
.LBE2418:
.LBE2417:
.LBE2416:
.LBE2415:
.LBB2425:
.LBB2426:
.LBB2427:
.LBB2428:
.LBB2429:
.LBB2430:
	.loc 1 105 0
	lis 9,_ZTVN7sigslot15single_threadedE+8@ha
.LBE2430:
.LBE2429:
.LBE2428:
.LBE2427:
.LBE2426:
.LBE2425:
.LBE2455:
.LBE2459:
.LBE2463:
.LBE2467:
.LBE2471:
.LBE2475:
	.loc 1 2238 0
	mr 3,28
.LBB2476:
.LBB2472:
.LBB2468:
.LBB2464:
.LBB2460:
.LBB2456:
.LBB2436:
.LBB2435:
.LBB2434:
.LBB2433:
.LBB2432:
.LBB2431:
	.loc 1 105 0
	la 0,_ZTVN7sigslot15single_threadedE+8@l(9)
	stw 0,0(28)
.LBE2431:
.LBE2432:
.LBE2433:
.LBE2434:
.LBE2435:
.LBE2436:
.LBE2456:
.LBE2460:
.LBE2464:
.LBE2468:
.LBE2472:
.LBE2476:
	.loc 1 2238 0
	bl _ZdlPv
	lwz 0,44(1)
	lwz 28,24(1)
.LVL453:
	mtlr 0
	lwz 29,28(1)
.LVL454:
	lwz 30,32(1)
	lwz 31,36(1)
	addi 1,1,40
	.cfi_remember_state
.LCFI73:
	.cfi_def_cfa_offset 0
	.cfi_restore 31
	.cfi_restore 30
	.cfi_restore 29
	.cfi_restore 28
	blr
.LVL455:
.L445:
.LCFI74:
	.cfi_restore_state
	mr 31,3
.L418:
.LBB2477:
.LBB2473:
.LBB2469:
.LBB2465:
.LBB2461:
.LBB2457:
.LBB2437:
.LBB2438:
.LBB2439:
.LBB2440:
.LBB2441:
.LBB2442:
	.loc 9 70 0
	lwz 3,4(28)
.LVL456:
	.loc 9 71 0
	cmpw 7,3,29
	beq- 7,.L435
.LVL457:
.L452:
.LBB2443:
	.loc 9 74 0
	lwz 30,0(3)
.LVL458:
.LBB2444:
.LBB2445:
.LBB2446:
	.loc 6 98 0
	bl _ZdlPv
.LVL459:
.LBE2446:
.LBE2445:
.LBE2444:
.LBE2443:
	.loc 9 71 0
	cmpw 7,30,29
	beq- 7,.L435
	.loc 9 74 0
	mr 3,30
	b .L452
.LVL460:
.L446:
.LBE2442:
.LBE2441:
.LBE2440:
.LBE2439:
.LBE2438:
.LBE2437:
.LBB2447:
.LBB2414:
.LBB2409:
.LBB2410:
.LBB2411:
	.loc 1 343 0
	lwz 9,0(28)
	mr 31,3
.LVL461:
	mr 3,28
	lwz 0,12(9)
	mtctr 0
	bctrl
	b .L418
.LVL462:
.L435:
.LBE2411:
.LBE2410:
.LBE2409:
.LBE2414:
.LBE2447:
.LBB2448:
.LBB2449:
.LBB2450:
.LBB2451:
.LBB2452:
.LBB2453:
	.loc 1 105 0
	lis 9,_ZTVN7sigslot15single_threadedE+8@ha
	mr 3,31
	la 0,_ZTVN7sigslot15single_threadedE+8@l(9)
	stw 0,0(28)
.LEHB31:
	bl _Unwind_Resume
.LEHE31:
.LBE2453:
.LBE2452:
.LBE2451:
.LBE2450:
.LBE2449:
.LBE2448:
.LBE2457:
.LBE2461:
.LBE2465:
.LBE2469:
.LBE2473:
.LBE2477:
	.cfi_endproc
.LFE1444:
	.section	.gcc_except_table
.LLSDA1444:
	.byte	0xff
	.byte	0xff
	.byte	0x1
	.uleb128 .LLSDACSE1444-.LLSDACSB1444
.LLSDACSB1444:
	.uleb128 .LEHB28-.LFB1444
	.uleb128 .LEHE28-.LEHB28
	.uleb128 .L445-.LFB1444
	.uleb128 0
	.uleb128 .LEHB29-.LFB1444
	.uleb128 .LEHE29-.LEHB29
	.uleb128 .L446-.LFB1444
	.uleb128 0
	.uleb128 .LEHB30-.LFB1444
	.uleb128 .LEHE30-.LEHB30
	.uleb128 .L445-.LFB1444
	.uleb128 0
	.uleb128 .LEHB31-.LFB1444
	.uleb128 .LEHE31-.LEHB31
	.uleb128 0
	.uleb128 0
.LLSDACSE1444:
	.section	.text._ZN7sigslot7signal2IP10GuiElementbNS_15single_threadedEED0Ev,"axG",@progbits,_ZN7sigslot7signal2IP10GuiElementbNS_15single_threadedEED5Ev,comdat
	.size	_ZN7sigslot7signal2IP10GuiElementbNS_15single_threadedEED0Ev, .-_ZN7sigslot7signal2IP10GuiElementbNS_15single_threadedEED0Ev
	.section	.text._ZN7sigslot13_signal_base3IP10GuiElementiiNS_15single_threadedEED2Ev,"axG",@progbits,_ZN7sigslot13_signal_base3IP10GuiElementiiNS_15single_threadedEED5Ev,comdat
	.align 2
	.weak	_ZN7sigslot13_signal_base3IP10GuiElementiiNS_15single_threadedEED2Ev
	.type	_ZN7sigslot13_signal_base3IP10GuiElementiiNS_15single_threadedEED2Ev, @function
_ZN7sigslot13_signal_base3IP10GuiElementiiNS_15single_threadedEED2Ev:
.LFB1486:
	.loc 1 943 0
	.cfi_startproc
	.cfi_personality 0,__gxx_personality_v0
	.cfi_lsda 0,.LLSDA1486
.LVL463:
	mflr 0
	stwu 1,-40(1)
.LCFI75:
	.cfi_def_cfa_offset 40
	.cfi_register 65, 0
.LBB2624:
	.loc 1 946 0
	lis 9,_ZTVN7sigslot13_signal_base3IP10GuiElementiiNS_15single_threadedEEE+8@ha
.LBE2624:
	.loc 1 943 0
	stw 28,24(1)
	mr 28,3
	.cfi_offset 28, -16
	stw 0,44(1)
.LBB2707:
	.loc 1 946 0
	la 0,_ZTVN7sigslot13_signal_base3IP10GuiElementiiNS_15single_threadedEEE+8@l(9)
	.cfi_offset 65, 4
.LBE2707:
	.loc 1 943 0
	stw 29,28(1)
	addi 29,3,4
	.cfi_offset 29, -12
	stw 30,32(1)
	stw 31,36(1)
.LBB2708:
	.loc 1 946 0
	stw 0,0(3)
.LVL464:
.LEHB32:
.LBB2625:
.LBB2626:
.LBB2627:
.LBB2628:
	.loc 1 338 0
	.cfi_offset 31, -4
	.cfi_offset 30, -8
	bl _ZN7sigslot15single_threaded4lockEv
.LEHE32:
.LVL465:
.LBE2628:
.LBE2627:
.LBE2626:
	.loc 3 394 0
	mr 29,28
.LVL466:
	lwzu 31,4(29)
.LVL467:
.LBB2659:
	.loc 1 954 0
	cmpw 7,31,29
	beq- 7,.L454
.LVL468:
.L491:
	.loc 1 956 0
	lwz 3,8(31)
	lwz 9,0(3)
	lwz 0,8(9)
	mtctr 0
.LEHB33:
	bctrl
.LBB2629:
.LBB2630:
.LBB2631:
.LBB2632:
	.loc 1 338 0
	lwz 9,0(3)
.LBE2632:
.LBE2631:
.LBE2630:
.LBE2629:
	.loc 1 956 0
	mr 30,3
.LVL469:
	stw 28,8(1)
.LVL470:
.LBB2641:
.LBB2640:
.LBB2634:
.LBB2633:
	.loc 1 338 0
	lwz 0,8(9)
	mtctr 0
	bctrl
.LVL471:
.LBE2633:
.LBE2634:
.LBB2635:
.LBB2636:
	.loc 8 528 0
	addi 3,30,4
	addi 4,1,8
	bl _ZNSt8_Rb_treeIPN7sigslot12_signal_baseINS0_15single_threadedEEES4_St9_IdentityIS4_ESt4lessIS4_ESaIS4_EE5eraseERKS4_
.LVL472:
.LBE2636:
.LBE2635:
.LBB2637:
.LBB2638:
.LBB2639:
	.loc 1 343 0
	lwz 9,0(30)
	mr 3,30
	lwz 0,12(9)
	mtctr 0
	bctrl
.LVL473:
.LBE2639:
.LBE2638:
.LBE2637:
.LBE2640:
.LBE2641:
	.loc 1 957 0
	lwz 3,8(31)
	cmpwi 7,3,0
	beq- 7,.L456
	lwz 9,0(3)
	lwz 0,4(9)
	mtctr 0
	bctrl
.LEHE33:
.L456:
.LVL474:
.LBB2642:
.LBB2643:
	.loc 4 234 0
	lwz 31,0(31)
.LVL475:
.LBE2643:
.LBE2642:
	.loc 1 954 0
	cmpw 7,29,31
	bne+ 7,.L491
.LBE2659:
	.loc 3 394 0
	lwz 31,4(28)
.LVL476:
.LBB2660:
.LBB2644:
.LBB2645:
	.loc 4 1162 0
	cmpw 7,29,31
	bne+ 7,.L493
	b .L454
.LVL477:
.L486:
	.loc 4 1163 0
	mr 31,30
.LVL478:
.L493:
.LBB2646:
.LBB2647:
	.loc 9 112 0
	lwz 30,0(31)
.LVL479:
.LBB2648:
.LBB2649:
	.loc 4 1532 0
	mr 3,31
	bl _ZNSt8__detail15_List_node_base9_M_unhookEv
.LVL480:
.LBB2650:
.LBB2651:
.LBB2652:
	.loc 6 98 0
	mr 3,31
	bl _ZdlPv
.LVL481:
.LBE2652:
.LBE2651:
.LBE2650:
.LBE2649:
.LBE2648:
.LBE2647:
.LBE2646:
	.loc 4 1162 0
	cmpw 7,29,30
	bne+ 7,.L486
.LVL482:
.L454:
.LBE2645:
.LBE2644:
.LBB2653:
.LBB2654:
.LBB2655:
	.loc 1 343 0
	lwz 9,0(28)
	mr 3,28
	lwz 0,12(9)
	mtctr 0
.LEHB34:
	bctrl
.LEHE34:
.LVL483:
.LBE2655:
.LBE2654:
.LBE2653:
.LBE2660:
.LBE2625:
.LBB2662:
.LBB2663:
.LBB2664:
.LBB2665:
.LBB2666:
.LBB2667:
	.loc 9 70 0
	lwz 3,4(28)
.LVL484:
	.loc 9 71 0
	cmpw 7,3,29
	bne+ 7,.L495
	b .L472
.LVL485:
.L487:
	.loc 9 74 0
	mr 3,31
.LVL486:
.L495:
.LBB2668:
	lwz 31,0(3)
.LVL487:
.LBB2669:
.LBB2670:
.LBB2671:
	.loc 6 98 0
	bl _ZdlPv
.LVL488:
.LBE2671:
.LBE2670:
.LBE2669:
.LBE2668:
	.loc 9 71 0
	cmpw 7,31,29
	bne+ 7,.L487
.LVL489:
.L472:
.LBE2667:
.LBE2666:
.LBE2665:
.LBE2664:
.LBE2663:
.LBE2662:
.LBB2672:
.LBB2673:
.LBB2674:
.LBB2675:
.LBB2676:
.LBB2677:
	.loc 1 105 0
	lis 9,_ZTVN7sigslot15single_threadedE+8@ha
.LBE2677:
.LBE2676:
.LBE2675:
.LBE2674:
.LBE2673:
.LBE2672:
.LBE2708:
	.loc 1 946 0
	lwz 29,28(1)
.LVL490:
.LBB2709:
.LBB2688:
.LBB2686:
.LBB2684:
.LBB2682:
.LBB2680:
.LBB2678:
	.loc 1 105 0
	la 0,_ZTVN7sigslot15single_threadedE+8@l(9)
.LBE2678:
.LBE2680:
.LBE2682:
.LBE2684:
.LBE2686:
.LBE2688:
.LBE2709:
	.loc 1 946 0
	lwz 30,32(1)
.LBB2710:
.LBB2689:
.LBB2687:
.LBB2685:
.LBB2683:
.LBB2681:
.LBB2679:
	.loc 1 105 0
	stw 0,0(28)
.LBE2679:
.LBE2681:
.LBE2683:
.LBE2685:
.LBE2687:
.LBE2689:
.LBE2710:
	.loc 1 946 0
	lwz 0,44(1)
	lwz 28,24(1)
.LVL491:
	mtlr 0
	lwz 31,36(1)
	addi 1,1,40
	.cfi_remember_state
.LCFI76:
	.cfi_def_cfa_offset 0
	.cfi_restore 31
	.cfi_restore 30
	.cfi_restore 29
	.cfi_restore 28
	blr
.LVL492:
.L489:
.LCFI77:
	.cfi_restore_state
	mr 31,3
.L464:
.LVL493:
.LBB2711:
.LBB2690:
.LBB2691:
.LBB2692:
.LBB2693:
.LBB2694:
.LBB2695:
	.loc 9 70 0
	lwz 3,4(28)
.LVL494:
	.loc 9 71 0
	cmpw 7,3,29
	beq- 7,.L483
.LVL495:
.L496:
.LBB2696:
	.loc 9 74 0
	lwz 30,0(3)
.LVL496:
.LBB2697:
.LBB2698:
.LBB2699:
	.loc 6 98 0
	bl _ZdlPv
.LVL497:
.LBE2699:
.LBE2698:
.LBE2697:
.LBE2696:
	.loc 9 71 0
	cmpw 7,30,29
	beq- 7,.L483
	.loc 9 74 0
	mr 3,30
	b .L496
.LVL498:
.L490:
.LBE2695:
.LBE2694:
.LBE2693:
.LBE2692:
.LBE2691:
.LBE2690:
.LBB2700:
.LBB2661:
.LBB2656:
.LBB2657:
.LBB2658:
	.loc 1 343 0
	lwz 9,0(28)
	mr 31,3
.LVL499:
	mr 3,28
	lwz 0,12(9)
	mtctr 0
	bctrl
	b .L464
.LVL500:
.L483:
.LBE2658:
.LBE2657:
.LBE2656:
.LBE2661:
.LBE2700:
.LBB2701:
.LBB2702:
.LBB2703:
.LBB2704:
.LBB2705:
.LBB2706:
	.loc 1 105 0
	lis 9,_ZTVN7sigslot15single_threadedE+8@ha
	mr 3,31
	la 0,_ZTVN7sigslot15single_threadedE+8@l(9)
	stw 0,0(28)
.LEHB35:
	bl _Unwind_Resume
.LEHE35:
.LBE2706:
.LBE2705:
.LBE2704:
.LBE2703:
.LBE2702:
.LBE2701:
.LBE2711:
	.cfi_endproc
.LFE1486:
	.section	.gcc_except_table
.LLSDA1486:
	.byte	0xff
	.byte	0xff
	.byte	0x1
	.uleb128 .LLSDACSE1486-.LLSDACSB1486
.LLSDACSB1486:
	.uleb128 .LEHB32-.LFB1486
	.uleb128 .LEHE32-.LEHB32
	.uleb128 .L489-.LFB1486
	.uleb128 0
	.uleb128 .LEHB33-.LFB1486
	.uleb128 .LEHE33-.LEHB33
	.uleb128 .L490-.LFB1486
	.uleb128 0
	.uleb128 .LEHB34-.LFB1486
	.uleb128 .LEHE34-.LEHB34
	.uleb128 .L489-.LFB1486
	.uleb128 0
	.uleb128 .LEHB35-.LFB1486
	.uleb128 .LEHE35-.LEHB35
	.uleb128 0
	.uleb128 0
.LLSDACSE1486:
	.section	.text._ZN7sigslot13_signal_base3IP10GuiElementiiNS_15single_threadedEED2Ev,"axG",@progbits,_ZN7sigslot13_signal_base3IP10GuiElementiiNS_15single_threadedEED5Ev,comdat
	.size	_ZN7sigslot13_signal_base3IP10GuiElementiiNS_15single_threadedEED2Ev, .-_ZN7sigslot13_signal_base3IP10GuiElementiiNS_15single_threadedEED2Ev
	.section	.text._ZN7sigslot7signal3IP10GuiElementiiNS_15single_threadedEED0Ev,"axG",@progbits,_ZN7sigslot7signal3IP10GuiElementiiNS_15single_threadedEED5Ev,comdat
	.align 2
	.weak	_ZN7sigslot7signal3IP10GuiElementiiNS_15single_threadedEED0Ev
	.type	_ZN7sigslot7signal3IP10GuiElementiiNS_15single_threadedEED0Ev, @function
_ZN7sigslot7signal3IP10GuiElementiiNS_15single_threadedEED0Ev:
.LFB1448:
	.loc 1 2302 0
	.cfi_startproc
	.cfi_personality 0,__gxx_personality_v0
	.cfi_lsda 0,.LLSDA1448
.LVL501:
	mflr 0
	stwu 1,-40(1)
.LCFI78:
	.cfi_def_cfa_offset 40
	.cfi_register 65, 0
.LBB2810:
.LBB2811:
.LBB2812:
.LBB2813:
.LBB2814:
.LBB2815:
	.loc 1 946 0
	lis 9,_ZTVN7sigslot13_signal_base3IP10GuiElementiiNS_15single_threadedEEE+8@ha
.LBE2815:
.LBE2814:
.LBE2813:
.LBE2812:
.LBE2811:
.LBE2810:
	.loc 1 2302 0
	stw 28,24(1)
	mr 28,3
	.cfi_offset 28, -16
.LVL502:
	stw 0,44(1)
.LBB2912:
.LBB2908:
.LBB2904:
.LBB2900:
.LBB2896:
.LBB2892:
	.loc 1 946 0
	la 0,_ZTVN7sigslot13_signal_base3IP10GuiElementiiNS_15single_threadedEEE+8@l(9)
	.cfi_offset 65, 4
.LBE2892:
.LBE2896:
.LBE2900:
.LBE2904:
.LBE2908:
.LBE2912:
	.loc 1 2302 0
	stw 29,28(1)
	addi 29,3,4
	.cfi_offset 29, -12
	stw 30,32(1)
	stw 31,36(1)
.LBB2913:
.LBB2909:
.LBB2905:
.LBB2901:
.LBB2897:
.LBB2893:
	.loc 1 946 0
	stw 0,0(3)
.LVL503:
.LEHB36:
.LBB2816:
.LBB2817:
.LBB2818:
.LBB2819:
	.loc 1 338 0
	.cfi_offset 31, -4
	.cfi_offset 30, -8
	bl _ZN7sigslot15single_threaded4lockEv
.LEHE36:
.LVL504:
.LBE2819:
.LBE2818:
.LBE2817:
	.loc 3 394 0
	mr 29,28
.LVL505:
	lwzu 31,4(29)
.LVL506:
.LBB2850:
	.loc 1 954 0
	cmpw 7,31,29
	beq- 7,.L498
.LVL507:
.L537:
	.loc 1 956 0
	lwz 3,8(31)
	lwz 9,0(3)
	lwz 0,8(9)
	mtctr 0
.LEHB37:
	bctrl
.LBB2820:
.LBB2821:
.LBB2822:
.LBB2823:
	.loc 1 338 0
	lwz 9,0(3)
.LBE2823:
.LBE2822:
.LBE2821:
.LBE2820:
	.loc 1 956 0
	mr 30,3
.LVL508:
	stw 28,8(1)
.LVL509:
.LBB2832:
.LBB2831:
.LBB2825:
.LBB2824:
	.loc 1 338 0
	lwz 0,8(9)
	mtctr 0
	bctrl
.LVL510:
.LBE2824:
.LBE2825:
.LBB2826:
.LBB2827:
	.loc 8 528 0
	addi 3,30,4
	addi 4,1,8
	bl _ZNSt8_Rb_treeIPN7sigslot12_signal_baseINS0_15single_threadedEEES4_St9_IdentityIS4_ESt4lessIS4_ESaIS4_EE5eraseERKS4_
.LVL511:
.LBE2827:
.LBE2826:
.LBB2828:
.LBB2829:
.LBB2830:
	.loc 1 343 0
	lwz 9,0(30)
	mr 3,30
	lwz 0,12(9)
	mtctr 0
	bctrl
.LVL512:
.LBE2830:
.LBE2829:
.LBE2828:
.LBE2831:
.LBE2832:
	.loc 1 957 0
	lwz 3,8(31)
	cmpwi 7,3,0
	beq- 7,.L500
	lwz 9,0(3)
	lwz 0,4(9)
	mtctr 0
	bctrl
.LEHE37:
.L500:
.LVL513:
.LBB2833:
.LBB2834:
	.loc 4 234 0
	lwz 31,0(31)
.LVL514:
.LBE2834:
.LBE2833:
	.loc 1 954 0
	cmpw 7,29,31
	bne+ 7,.L537
.LBE2850:
	.loc 3 394 0
	lwz 31,4(28)
.LVL515:
.LBB2851:
.LBB2835:
.LBB2836:
	.loc 4 1162 0
	cmpw 7,29,31
	bne+ 7,.L539
	b .L498
.LVL516:
.L532:
	.loc 4 1163 0
	mr 31,30
.LVL517:
.L539:
.LBB2837:
.LBB2838:
	.loc 9 112 0
	lwz 30,0(31)
.LVL518:
.LBB2839:
.LBB2840:
	.loc 4 1532 0
	mr 3,31
	bl _ZNSt8__detail15_List_node_base9_M_unhookEv
.LVL519:
.LBB2841:
.LBB2842:
.LBB2843:
	.loc 6 98 0
	mr 3,31
	bl _ZdlPv
.LVL520:
.LBE2843:
.LBE2842:
.LBE2841:
.LBE2840:
.LBE2839:
.LBE2838:
.LBE2837:
	.loc 4 1162 0
	cmpw 7,29,30
	bne+ 7,.L532
.LVL521:
.L498:
.LBE2836:
.LBE2835:
.LBB2844:
.LBB2845:
.LBB2846:
	.loc 1 343 0
	lwz 9,0(28)
	mr 3,28
	lwz 0,12(9)
	mtctr 0
.LEHB38:
	bctrl
.LEHE38:
.LBE2846:
.LBE2845:
.LBE2844:
.LBE2851:
.LBE2816:
.LBB2853:
.LBB2854:
.LBB2855:
.LBB2856:
.LBB2857:
.LBB2858:
	.loc 9 70 0
	lwz 3,4(28)
.LVL522:
	.loc 9 71 0
	cmpw 7,3,29
	bne+ 7,.L541
	b .L516
.LVL523:
.L533:
	.loc 9 74 0
	mr 3,31
.LVL524:
.L541:
.LBB2859:
	lwz 31,0(3)
.LVL525:
.LBB2860:
.LBB2861:
.LBB2862:
	.loc 6 98 0
	bl _ZdlPv
.LVL526:
.LBE2862:
.LBE2861:
.LBE2860:
.LBE2859:
	.loc 9 71 0
	cmpw 7,31,29
	bne+ 7,.L533
.LVL527:
.L516:
.LBE2858:
.LBE2857:
.LBE2856:
.LBE2855:
.LBE2854:
.LBE2853:
.LBB2863:
.LBB2864:
.LBB2865:
.LBB2866:
.LBB2867:
.LBB2868:
	.loc 1 105 0
	lis 9,_ZTVN7sigslot15single_threadedE+8@ha
.LBE2868:
.LBE2867:
.LBE2866:
.LBE2865:
.LBE2864:
.LBE2863:
.LBE2893:
.LBE2897:
.LBE2901:
.LBE2905:
.LBE2909:
.LBE2913:
	.loc 1 2305 0
	mr 3,28
.LBB2914:
.LBB2910:
.LBB2906:
.LBB2902:
.LBB2898:
.LBB2894:
.LBB2874:
.LBB2873:
.LBB2872:
.LBB2871:
.LBB2870:
.LBB2869:
	.loc 1 105 0
	la 0,_ZTVN7sigslot15single_threadedE+8@l(9)
	stw 0,0(28)
.LBE2869:
.LBE2870:
.LBE2871:
.LBE2872:
.LBE2873:
.LBE2874:
.LBE2894:
.LBE2898:
.LBE2902:
.LBE2906:
.LBE2910:
.LBE2914:
	.loc 1 2305 0
	bl _ZdlPv
	lwz 0,44(1)
	lwz 28,24(1)
.LVL528:
	mtlr 0
	lwz 29,28(1)
.LVL529:
	lwz 30,32(1)
	lwz 31,36(1)
	addi 1,1,40
	.cfi_remember_state
.LCFI79:
	.cfi_def_cfa_offset 0
	.cfi_restore 31
	.cfi_restore 30
	.cfi_restore 29
	.cfi_restore 28
	blr
.LVL530:
.L535:
.LCFI80:
	.cfi_restore_state
	mr 31,3
.L508:
.LBB2915:
.LBB2911:
.LBB2907:
.LBB2903:
.LBB2899:
.LBB2895:
.LBB2875:
.LBB2876:
.LBB2877:
.LBB2878:
.LBB2879:
.LBB2880:
	.loc 9 70 0
	lwz 3,4(28)
.LVL531:
	.loc 9 71 0
	cmpw 7,3,29
	beq- 7,.L525
.LVL532:
.L542:
.LBB2881:
	.loc 9 74 0
	lwz 30,0(3)
.LVL533:
.LBB2882:
.LBB2883:
.LBB2884:
	.loc 6 98 0
	bl _ZdlPv
.LVL534:
.LBE2884:
.LBE2883:
.LBE2882:
.LBE2881:
	.loc 9 71 0
	cmpw 7,30,29
	beq- 7,.L525
	.loc 9 74 0
	mr 3,30
	b .L542
.LVL535:
.L536:
.LBE2880:
.LBE2879:
.LBE2878:
.LBE2877:
.LBE2876:
.LBE2875:
.LBB2885:
.LBB2852:
.LBB2847:
.LBB2848:
.LBB2849:
	.loc 1 343 0
	lwz 9,0(28)
	mr 31,3
.LVL536:
	mr 3,28
	lwz 0,12(9)
	mtctr 0
	bctrl
	b .L508
.LVL537:
.L525:
.LBE2849:
.LBE2848:
.LBE2847:
.LBE2852:
.LBE2885:
.LBB2886:
.LBB2887:
.LBB2888:
.LBB2889:
.LBB2890:
.LBB2891:
	.loc 1 105 0
	lis 9,_ZTVN7sigslot15single_threadedE+8@ha
	mr 3,31
	la 0,_ZTVN7sigslot15single_threadedE+8@l(9)
	stw 0,0(28)
.LEHB39:
	bl _Unwind_Resume
.LEHE39:
.LBE2891:
.LBE2890:
.LBE2889:
.LBE2888:
.LBE2887:
.LBE2886:
.LBE2895:
.LBE2899:
.LBE2903:
.LBE2907:
.LBE2911:
.LBE2915:
	.cfi_endproc
.LFE1448:
	.section	.gcc_except_table
.LLSDA1448:
	.byte	0xff
	.byte	0xff
	.byte	0x1
	.uleb128 .LLSDACSE1448-.LLSDACSB1448
.LLSDACSB1448:
	.uleb128 .LEHB36-.LFB1448
	.uleb128 .LEHE36-.LEHB36
	.uleb128 .L535-.LFB1448
	.uleb128 0
	.uleb128 .LEHB37-.LFB1448
	.uleb128 .LEHE37-.LEHB37
	.uleb128 .L536-.LFB1448
	.uleb128 0
	.uleb128 .LEHB38-.LFB1448
	.uleb128 .LEHE38-.LEHB38
	.uleb128 .L535-.LFB1448
	.uleb128 0
	.uleb128 .LEHB39-.LFB1448
	.uleb128 .LEHE39-.LEHB39
	.uleb128 0
	.uleb128 0
.LLSDACSE1448:
	.section	.text._ZN7sigslot7signal3IP10GuiElementiiNS_15single_threadedEED0Ev,"axG",@progbits,_ZN7sigslot7signal3IP10GuiElementiiNS_15single_threadedEED5Ev,comdat
	.size	_ZN7sigslot7signal3IP10GuiElementiiNS_15single_threadedEED0Ev, .-_ZN7sigslot7signal3IP10GuiElementiiNS_15single_threadedEED0Ev
	.section	.text._ZN7sigslot13_signal_base3IP10GuiElementiiNS_15single_threadedEED0Ev,"axG",@progbits,_ZN7sigslot13_signal_base3IP10GuiElementiiNS_15single_threadedEED5Ev,comdat
	.align 2
	.weak	_ZN7sigslot13_signal_base3IP10GuiElementiiNS_15single_threadedEED0Ev
	.type	_ZN7sigslot13_signal_base3IP10GuiElementiiNS_15single_threadedEED0Ev, @function
_ZN7sigslot13_signal_base3IP10GuiElementiiNS_15single_threadedEED0Ev:
.LFB1488:
	.loc 1 943 0
	.cfi_startproc
	.cfi_personality 0,__gxx_personality_v0
	.cfi_lsda 0,.LLSDA1488
.LVL538:
	mflr 0
	stwu 1,-40(1)
.LCFI81:
	.cfi_def_cfa_offset 40
	.cfi_register 65, 0
.LBB3011:
.LBB3012:
.LBB3013:
	.loc 1 946 0
	lis 9,_ZTVN7sigslot13_signal_base3IP10GuiElementiiNS_15single_threadedEEE+8@ha
.LBE3013:
.LBE3012:
.LBE3011:
	.loc 1 943 0
	stw 28,24(1)
	mr 28,3
	.cfi_offset 28, -16
.LVL539:
	stw 0,44(1)
.LBB3098:
.LBB3094:
.LBB3090:
	.loc 1 946 0
	la 0,_ZTVN7sigslot13_signal_base3IP10GuiElementiiNS_15single_threadedEEE+8@l(9)
	.cfi_offset 65, 4
.LBE3090:
.LBE3094:
.LBE3098:
	.loc 1 943 0
	stw 29,28(1)
	addi 29,3,4
	.cfi_offset 29, -12
	stw 30,32(1)
	stw 31,36(1)
.LBB3099:
.LBB3095:
.LBB3091:
	.loc 1 946 0
	stw 0,0(3)
.LVL540:
.LEHB40:
.LBB3014:
.LBB3015:
.LBB3016:
.LBB3017:
	.loc 1 338 0
	.cfi_offset 31, -4
	.cfi_offset 30, -8
	bl _ZN7sigslot15single_threaded4lockEv
.LEHE40:
.LVL541:
.LBE3017:
.LBE3016:
.LBE3015:
	.loc 3 394 0
	mr 29,28
.LVL542:
	lwzu 31,4(29)
.LVL543:
.LBB3048:
	.loc 1 954 0
	cmpw 7,31,29
	beq- 7,.L544
.LVL544:
.L582:
	.loc 1 956 0
	lwz 3,8(31)
	lwz 9,0(3)
	lwz 0,8(9)
	mtctr 0
.LEHB41:
	bctrl
.LBB3018:
.LBB3019:
.LBB3020:
.LBB3021:
	.loc 1 338 0
	lwz 9,0(3)
.LBE3021:
.LBE3020:
.LBE3019:
.LBE3018:
	.loc 1 956 0
	mr 30,3
.LVL545:
	stw 28,8(1)
.LVL546:
.LBB3030:
.LBB3029:
.LBB3023:
.LBB3022:
	.loc 1 338 0
	lwz 0,8(9)
	mtctr 0
	bctrl
.LVL547:
.LBE3022:
.LBE3023:
.LBB3024:
.LBB3025:
	.loc 8 528 0
	addi 3,30,4
	addi 4,1,8
	bl _ZNSt8_Rb_treeIPN7sigslot12_signal_baseINS0_15single_threadedEEES4_St9_IdentityIS4_ESt4lessIS4_ESaIS4_EE5eraseERKS4_
.LVL548:
.LBE3025:
.LBE3024:
.LBB3026:
.LBB3027:
.LBB3028:
	.loc 1 343 0
	lwz 9,0(30)
	mr 3,30
	lwz 0,12(9)
	mtctr 0
	bctrl
.LVL549:
.LBE3028:
.LBE3027:
.LBE3026:
.LBE3029:
.LBE3030:
	.loc 1 957 0
	lwz 3,8(31)
	cmpwi 7,3,0
	beq- 7,.L546
	lwz 9,0(3)
	lwz 0,4(9)
	mtctr 0
	bctrl
.LEHE41:
.L546:
.LVL550:
.LBB3031:
.LBB3032:
	.loc 4 234 0
	lwz 31,0(31)
.LVL551:
.LBE3032:
.LBE3031:
	.loc 1 954 0
	cmpw 7,29,31
	bne+ 7,.L582
.LBE3048:
	.loc 3 394 0
	lwz 31,4(28)
.LVL552:
.LBB3049:
.LBB3033:
.LBB3034:
	.loc 4 1162 0
	cmpw 7,29,31
	bne+ 7,.L584
	b .L544
.LVL553:
.L577:
	.loc 4 1163 0
	mr 31,30
.LVL554:
.L584:
.LBB3035:
.LBB3036:
	.loc 9 112 0
	lwz 30,0(31)
.LVL555:
.LBB3037:
.LBB3038:
	.loc 4 1532 0
	mr 3,31
	bl _ZNSt8__detail15_List_node_base9_M_unhookEv
.LVL556:
.LBB3039:
.LBB3040:
.LBB3041:
	.loc 6 98 0
	mr 3,31
	bl _ZdlPv
.LVL557:
.LBE3041:
.LBE3040:
.LBE3039:
.LBE3038:
.LBE3037:
.LBE3036:
.LBE3035:
	.loc 4 1162 0
	cmpw 7,29,30
	bne+ 7,.L577
.LVL558:
.L544:
.LBE3034:
.LBE3033:
.LBB3042:
.LBB3043:
.LBB3044:
	.loc 1 343 0
	lwz 9,0(28)
	mr 3,28
	lwz 0,12(9)
	mtctr 0
.LEHB42:
	bctrl
.LEHE42:
.LVL559:
.LBE3044:
.LBE3043:
.LBE3042:
.LBE3049:
.LBE3014:
.LBB3051:
.LBB3052:
.LBB3053:
.LBB3054:
.LBB3055:
.LBB3056:
	.loc 9 70 0
	lwz 3,4(28)
.LVL560:
	.loc 9 71 0
	cmpw 7,3,29
	bne+ 7,.L586
	b .L562
.LVL561:
.L578:
	.loc 9 74 0
	mr 3,31
.LVL562:
.L586:
.LBB3057:
	lwz 31,0(3)
.LVL563:
.LBB3058:
.LBB3059:
.LBB3060:
	.loc 6 98 0
	bl _ZdlPv
.LVL564:
.LBE3060:
.LBE3059:
.LBE3058:
.LBE3057:
	.loc 9 71 0
	cmpw 7,31,29
	bne+ 7,.L578
.LVL565:
.L562:
.LBE3056:
.LBE3055:
.LBE3054:
.LBE3053:
.LBE3052:
.LBE3051:
.LBB3061:
.LBB3062:
.LBB3063:
.LBB3064:
.LBB3065:
.LBB3066:
	.loc 1 105 0
	lis 9,_ZTVN7sigslot15single_threadedE+8@ha
.LBE3066:
.LBE3065:
.LBE3064:
.LBE3063:
.LBE3062:
.LBE3061:
.LBE3091:
.LBE3095:
.LBE3099:
	.loc 1 946 0
	mr 3,28
.LBB3100:
.LBB3096:
.LBB3092:
.LBB3072:
.LBB3071:
.LBB3070:
.LBB3069:
.LBB3068:
.LBB3067:
	.loc 1 105 0
	la 0,_ZTVN7sigslot15single_threadedE+8@l(9)
	stw 0,0(28)
.LBE3067:
.LBE3068:
.LBE3069:
.LBE3070:
.LBE3071:
.LBE3072:
.LBE3092:
.LBE3096:
.LBE3100:
	.loc 1 946 0
	bl _ZdlPv
	lwz 0,44(1)
	lwz 28,24(1)
.LVL566:
	mtlr 0
	lwz 29,28(1)
.LVL567:
	lwz 30,32(1)
	lwz 31,36(1)
	addi 1,1,40
	.cfi_remember_state
.LCFI82:
	.cfi_def_cfa_offset 0
	.cfi_restore 31
	.cfi_restore 30
	.cfi_restore 29
	.cfi_restore 28
	blr
.LVL568:
.L580:
.LCFI83:
	.cfi_restore_state
	mr 31,3
.L554:
.LVL569:
.LBB3101:
.LBB3097:
.LBB3093:
.LBB3073:
.LBB3074:
.LBB3075:
.LBB3076:
.LBB3077:
.LBB3078:
	.loc 9 70 0
	lwz 3,4(28)
.LVL570:
	.loc 9 71 0
	cmpw 7,3,29
	beq- 7,.L571
.LVL571:
.L587:
.LBB3079:
	.loc 9 74 0
	lwz 30,0(3)
.LVL572:
.LBB3080:
.LBB3081:
.LBB3082:
	.loc 6 98 0
	bl _ZdlPv
.LVL573:
.LBE3082:
.LBE3081:
.LBE3080:
.LBE3079:
	.loc 9 71 0
	cmpw 7,30,29
	beq- 7,.L571
	.loc 9 74 0
	mr 3,30
	b .L587
.LVL574:
.L581:
.LBE3078:
.LBE3077:
.LBE3076:
.LBE3075:
.LBE3074:
.LBE3073:
.LBB3083:
.LBB3050:
.LBB3045:
.LBB3046:
.LBB3047:
	.loc 1 343 0
	lwz 9,0(28)
	mr 31,3
.LVL575:
	mr 3,28
	lwz 0,12(9)
	mtctr 0
	bctrl
	b .L554
.LVL576:
.L571:
.LBE3047:
.LBE3046:
.LBE3045:
.LBE3050:
.LBE3083:
.LBB3084:
.LBB3085:
.LBB3086:
.LBB3087:
.LBB3088:
.LBB3089:
	.loc 1 105 0
	lis 9,_ZTVN7sigslot15single_threadedE+8@ha
	mr 3,31
	la 0,_ZTVN7sigslot15single_threadedE+8@l(9)
	stw 0,0(28)
.LEHB43:
	bl _Unwind_Resume
.LEHE43:
.LBE3089:
.LBE3088:
.LBE3087:
.LBE3086:
.LBE3085:
.LBE3084:
.LBE3093:
.LBE3097:
.LBE3101:
	.cfi_endproc
.LFE1488:
	.section	.gcc_except_table
.LLSDA1488:
	.byte	0xff
	.byte	0xff
	.byte	0x1
	.uleb128 .LLSDACSE1488-.LLSDACSB1488
.LLSDACSB1488:
	.uleb128 .LEHB40-.LFB1488
	.uleb128 .LEHE40-.LEHB40
	.uleb128 .L580-.LFB1488
	.uleb128 0
	.uleb128 .LEHB41-.LFB1488
	.uleb128 .LEHE41-.LEHB41
	.uleb128 .L581-.LFB1488
	.uleb128 0
	.uleb128 .LEHB42-.LFB1488
	.uleb128 .LEHE42-.LEHB42
	.uleb128 .L580-.LFB1488
	.uleb128 0
	.uleb128 .LEHB43-.LFB1488
	.uleb128 .LEHE43-.LEHB43
	.uleb128 0
	.uleb128 0
.LLSDACSE1488:
	.section	.text._ZN7sigslot13_signal_base3IP10GuiElementiiNS_15single_threadedEED0Ev,"axG",@progbits,_ZN7sigslot13_signal_base3IP10GuiElementiiNS_15single_threadedEED5Ev,comdat
	.size	_ZN7sigslot13_signal_base3IP10GuiElementiiNS_15single_threadedEED0Ev, .-_ZN7sigslot13_signal_base3IP10GuiElementiiNS_15single_threadedEED0Ev
	.section	.text._ZN7sigslot13_signal_base2IP10GuiElementbNS_15single_threadedEED2Ev,"axG",@progbits,_ZN7sigslot13_signal_base2IP10GuiElementbNS_15single_threadedEED5Ev,comdat
	.align 2
	.weak	_ZN7sigslot13_signal_base2IP10GuiElementbNS_15single_threadedEED2Ev
	.type	_ZN7sigslot13_signal_base2IP10GuiElementbNS_15single_threadedEED2Ev, @function
_ZN7sigslot13_signal_base2IP10GuiElementbNS_15single_threadedEED2Ev:
.LFB1479:
	.loc 1 823 0
	.cfi_startproc
	.cfi_personality 0,__gxx_personality_v0
	.cfi_lsda 0,.LLSDA1479
.LVL577:
	mflr 0
	stwu 1,-40(1)
.LCFI84:
	.cfi_def_cfa_offset 40
	.cfi_register 65, 0
.LBB3248:
	.loc 1 826 0
	lis 9,_ZTVN7sigslot13_signal_base2IP10GuiElementbNS_15single_threadedEEE+8@ha
.LBE3248:
	.loc 1 823 0
	stw 28,24(1)
	mr 28,3
	.cfi_offset 28, -16
	stw 0,44(1)
.LBB3331:
	.loc 1 826 0
	la 0,_ZTVN7sigslot13_signal_base2IP10GuiElementbNS_15single_threadedEEE+8@l(9)
	.cfi_offset 65, 4
.LBE3331:
	.loc 1 823 0
	stw 29,28(1)
	addi 29,3,4
	.cfi_offset 29, -12
	stw 30,32(1)
	stw 31,36(1)
.LBB3332:
	.loc 1 826 0
	stw 0,0(3)
.LVL578:
.LEHB44:
.LBB3249:
.LBB3250:
.LBB3251:
.LBB3252:
	.loc 1 338 0
	.cfi_offset 31, -4
	.cfi_offset 30, -8
	bl _ZN7sigslot15single_threaded4lockEv
.LEHE44:
.LVL579:
.LBE3252:
.LBE3251:
.LBE3250:
	.loc 3 394 0
	mr 29,28
	lwzu 31,4(29)
.LVL580:
.LBB3283:
	.loc 1 834 0
	cmpw 7,31,29
	beq- 7,.L589
.LVL581:
.L626:
	.loc 1 836 0
	lwz 3,8(31)
	lwz 9,0(3)
	lwz 0,8(9)
	mtctr 0
.LEHB45:
	bctrl
.LBB3253:
.LBB3254:
.LBB3255:
.LBB3256:
	.loc 1 338 0
	lwz 9,0(3)
.LBE3256:
.LBE3255:
.LBE3254:
.LBE3253:
	.loc 1 836 0
	mr 30,3
.LVL582:
	stw 28,8(1)
.LVL583:
.LBB3265:
.LBB3264:
.LBB3258:
.LBB3257:
	.loc 1 338 0
	lwz 0,8(9)
	mtctr 0
	bctrl
.LVL584:
.LBE3257:
.LBE3258:
.LBB3259:
.LBB3260:
	.loc 8 528 0
	addi 3,30,4
	addi 4,1,8
	bl _ZNSt8_Rb_treeIPN7sigslot12_signal_baseINS0_15single_threadedEEES4_St9_IdentityIS4_ESt4lessIS4_ESaIS4_EE5eraseERKS4_
.LVL585:
.LBE3260:
.LBE3259:
.LBB3261:
.LBB3262:
.LBB3263:
	.loc 1 343 0
	lwz 9,0(30)
	mr 3,30
	lwz 0,12(9)
	mtctr 0
	bctrl
.LVL586:
.LBE3263:
.LBE3262:
.LBE3261:
.LBE3264:
.LBE3265:
	.loc 1 837 0
	lwz 3,8(31)
	cmpwi 7,3,0
	beq- 7,.L591
	lwz 9,0(3)
	lwz 0,4(9)
	mtctr 0
	bctrl
.LEHE45:
.L591:
.LVL587:
.LBB3266:
.LBB3267:
	.loc 4 234 0
	lwz 31,0(31)
.LVL588:
.LBE3267:
.LBE3266:
	.loc 1 834 0
	cmpw 7,29,31
	bne+ 7,.L626
.LBE3283:
	.loc 3 394 0
	lwz 31,4(28)
.LVL589:
.LBB3284:
.LBB3268:
.LBB3269:
	.loc 4 1162 0
	cmpw 7,29,31
	bne+ 7,.L628
	b .L589
.LVL590:
.L621:
	.loc 4 1163 0
	mr 31,30
.LVL591:
.L628:
.LBB3270:
.LBB3271:
	.loc 9 112 0
	lwz 30,0(31)
.LVL592:
.LBB3272:
.LBB3273:
	.loc 4 1532 0
	mr 3,31
	bl _ZNSt8__detail15_List_node_base9_M_unhookEv
.LVL593:
.LBB3274:
.LBB3275:
.LBB3276:
	.loc 6 98 0
	mr 3,31
	bl _ZdlPv
.LVL594:
.LBE3276:
.LBE3275:
.LBE3274:
.LBE3273:
.LBE3272:
.LBE3271:
.LBE3270:
	.loc 4 1162 0
	cmpw 7,29,30
	bne+ 7,.L621
.LVL595:
.L589:
.LBE3269:
.LBE3268:
.LBB3277:
.LBB3278:
.LBB3279:
	.loc 1 343 0
	lwz 9,0(28)
	mr 3,28
	lwz 0,12(9)
	mtctr 0
.LEHB46:
	bctrl
.LEHE46:
.LVL596:
.LBE3279:
.LBE3278:
.LBE3277:
.LBE3284:
.LBE3249:
.LBB3286:
.LBB3287:
.LBB3288:
.LBB3289:
.LBB3290:
.LBB3291:
	.loc 9 70 0
	lwz 3,4(28)
.LVL597:
	.loc 9 71 0
	cmpw 7,3,29
	bne+ 7,.L630
	b .L607
.LVL598:
.L622:
	.loc 9 74 0
	mr 3,31
.LVL599:
.L630:
.LBB3292:
	lwz 31,0(3)
.LVL600:
.LBB3293:
.LBB3294:
.LBB3295:
	.loc 6 98 0
	bl _ZdlPv
.LVL601:
.LBE3295:
.LBE3294:
.LBE3293:
.LBE3292:
	.loc 9 71 0
	cmpw 7,31,29
	bne+ 7,.L622
.LVL602:
.L607:
.LBE3291:
.LBE3290:
.LBE3289:
.LBE3288:
.LBE3287:
.LBE3286:
.LBB3296:
.LBB3297:
.LBB3298:
.LBB3299:
.LBB3300:
.LBB3301:
	.loc 1 105 0
	lis 9,_ZTVN7sigslot15single_threadedE+8@ha
.LBE3301:
.LBE3300:
.LBE3299:
.LBE3298:
.LBE3297:
.LBE3296:
.LBE3332:
	.loc 1 826 0
	lwz 29,28(1)
.LVL603:
.LBB3333:
.LBB3312:
.LBB3310:
.LBB3308:
.LBB3306:
.LBB3304:
.LBB3302:
	.loc 1 105 0
	la 0,_ZTVN7sigslot15single_threadedE+8@l(9)
.LBE3302:
.LBE3304:
.LBE3306:
.LBE3308:
.LBE3310:
.LBE3312:
.LBE3333:
	.loc 1 826 0
	lwz 30,32(1)
.LBB3334:
.LBB3313:
.LBB3311:
.LBB3309:
.LBB3307:
.LBB3305:
.LBB3303:
	.loc 1 105 0
	stw 0,0(28)
.LBE3303:
.LBE3305:
.LBE3307:
.LBE3309:
.LBE3311:
.LBE3313:
.LBE3334:
	.loc 1 826 0
	lwz 0,44(1)
	lwz 28,24(1)
.LVL604:
	mtlr 0
	lwz 31,36(1)
	addi 1,1,40
	.cfi_remember_state
.LCFI85:
	.cfi_def_cfa_offset 0
	.cfi_restore 31
	.cfi_restore 30
	.cfi_restore 29
	.cfi_restore 28
	blr
.LVL605:
.L624:
.LCFI86:
	.cfi_restore_state
	mr 31,3
.L599:
.LVL606:
.LBB3335:
.LBB3314:
.LBB3315:
.LBB3316:
.LBB3317:
.LBB3318:
.LBB3319:
	.loc 9 70 0
	lwz 3,4(28)
.LVL607:
	.loc 9 71 0
	cmpw 7,3,29
	beq- 7,.L618
.LVL608:
.L631:
.LBB3320:
	.loc 9 74 0
	lwz 30,0(3)
.LVL609:
.LBB3321:
.LBB3322:
.LBB3323:
	.loc 6 98 0
	bl _ZdlPv
.LVL610:
.LBE3323:
.LBE3322:
.LBE3321:
.LBE3320:
	.loc 9 71 0
	cmpw 7,30,29
	beq- 7,.L618
	.loc 9 74 0
	mr 3,30
	b .L631
.LVL611:
.L625:
.LBE3319:
.LBE3318:
.LBE3317:
.LBE3316:
.LBE3315:
.LBE3314:
.LBB3324:
.LBB3285:
.LBB3280:
.LBB3281:
.LBB3282:
	.loc 1 343 0
	lwz 9,0(28)
	mr 31,3
.LVL612:
	mr 3,28
	lwz 0,12(9)
	mtctr 0
	bctrl
	b .L599
.LVL613:
.L618:
.LBE3282:
.LBE3281:
.LBE3280:
.LBE3285:
.LBE3324:
.LBB3325:
.LBB3326:
.LBB3327:
.LBB3328:
.LBB3329:
.LBB3330:
	.loc 1 105 0
	lis 9,_ZTVN7sigslot15single_threadedE+8@ha
	mr 3,31
	la 0,_ZTVN7sigslot15single_threadedE+8@l(9)
	stw 0,0(28)
.LEHB47:
	bl _Unwind_Resume
.LEHE47:
.LBE3330:
.LBE3329:
.LBE3328:
.LBE3327:
.LBE3326:
.LBE3325:
.LBE3335:
	.cfi_endproc
.LFE1479:
	.section	.gcc_except_table
.LLSDA1479:
	.byte	0xff
	.byte	0xff
	.byte	0x1
	.uleb128 .LLSDACSE1479-.LLSDACSB1479
.LLSDACSB1479:
	.uleb128 .LEHB44-.LFB1479
	.uleb128 .LEHE44-.LEHB44
	.uleb128 .L624-.LFB1479
	.uleb128 0
	.uleb128 .LEHB45-.LFB1479
	.uleb128 .LEHE45-.LEHB45
	.uleb128 .L625-.LFB1479
	.uleb128 0
	.uleb128 .LEHB46-.LFB1479
	.uleb128 .LEHE46-.LEHB46
	.uleb128 .L624-.LFB1479
	.uleb128 0
	.uleb128 .LEHB47-.LFB1479
	.uleb128 .LEHE47-.LEHB47
	.uleb128 0
	.uleb128 0
.LLSDACSE1479:
	.section	.text._ZN7sigslot13_signal_base2IP10GuiElementbNS_15single_threadedEED2Ev,"axG",@progbits,_ZN7sigslot13_signal_base2IP10GuiElementbNS_15single_threadedEED5Ev,comdat
	.size	_ZN7sigslot13_signal_base2IP10GuiElementbNS_15single_threadedEED2Ev, .-_ZN7sigslot13_signal_base2IP10GuiElementbNS_15single_threadedEED2Ev
	.section	.text._ZN7sigslot7signal2IP10GuiElementbNS_15single_threadedEED2Ev,"axG",@progbits,_ZN7sigslot7signal2IP10GuiElementbNS_15single_threadedEED5Ev,comdat
	.align 2
	.weak	_ZN7sigslot7signal2IP10GuiElementbNS_15single_threadedEED2Ev
	.type	_ZN7sigslot7signal2IP10GuiElementbNS_15single_threadedEED2Ev, @function
_ZN7sigslot7signal2IP10GuiElementbNS_15single_threadedEED2Ev:
.LFB1442:
	.loc 1 2235 0
	.cfi_startproc
	.cfi_personality 0,__gxx_personality_v0
	.cfi_lsda 0,.LLSDA1442
.LVL614:
	mflr 0
	stwu 1,-40(1)
.LCFI87:
	.cfi_def_cfa_offset 40
	.cfi_register 65, 0
.LBB3433:
.LBB3434:
.LBB3435:
.LBB3436:
	.loc 1 826 0
	lis 9,_ZTVN7sigslot13_signal_base2IP10GuiElementbNS_15single_threadedEEE+8@ha
.LBE3436:
.LBE3435:
.LBE3434:
.LBE3433:
	.loc 1 2235 0
	stw 28,24(1)
	mr 28,3
	.cfi_offset 28, -16
.LVL615:
	stw 0,44(1)
.LBB3534:
.LBB3529:
.LBB3524:
.LBB3519:
	.loc 1 826 0
	la 0,_ZTVN7sigslot13_signal_base2IP10GuiElementbNS_15single_threadedEEE+8@l(9)
	.cfi_offset 65, 4
.LBE3519:
.LBE3524:
.LBE3529:
.LBE3534:
	.loc 1 2235 0
	stw 29,28(1)
	addi 29,3,4
	.cfi_offset 29, -12
	stw 30,32(1)
	stw 31,36(1)
.LBB3535:
.LBB3530:
.LBB3525:
.LBB3520:
	.loc 1 826 0
	stw 0,0(3)
.LVL616:
.LEHB48:
.LBB3437:
.LBB3438:
.LBB3439:
.LBB3440:
	.loc 1 338 0
	.cfi_offset 31, -4
	.cfi_offset 30, -8
	bl _ZN7sigslot15single_threaded4lockEv
.LEHE48:
.LVL617:
.LBE3440:
.LBE3439:
.LBE3438:
	.loc 3 394 0
	mr 29,28
	lwzu 31,4(29)
.LVL618:
.LBB3471:
	.loc 1 834 0
	cmpw 7,31,29
	beq- 7,.L633
.LVL619:
.L671:
	.loc 1 836 0
	lwz 3,8(31)
	lwz 9,0(3)
	lwz 0,8(9)
	mtctr 0
.LEHB49:
	bctrl
.LBB3441:
.LBB3442:
.LBB3443:
.LBB3444:
	.loc 1 338 0
	lwz 9,0(3)
.LBE3444:
.LBE3443:
.LBE3442:
.LBE3441:
	.loc 1 836 0
	mr 30,3
.LVL620:
	stw 28,8(1)
.LVL621:
.LBB3453:
.LBB3452:
.LBB3446:
.LBB3445:
	.loc 1 338 0
	lwz 0,8(9)
	mtctr 0
	bctrl
.LVL622:
.LBE3445:
.LBE3446:
.LBB3447:
.LBB3448:
	.loc 8 528 0
	addi 3,30,4
	addi 4,1,8
	bl _ZNSt8_Rb_treeIPN7sigslot12_signal_baseINS0_15single_threadedEEES4_St9_IdentityIS4_ESt4lessIS4_ESaIS4_EE5eraseERKS4_
.LVL623:
.LBE3448:
.LBE3447:
.LBB3449:
.LBB3450:
.LBB3451:
	.loc 1 343 0
	lwz 9,0(30)
	mr 3,30
	lwz 0,12(9)
	mtctr 0
	bctrl
.LVL624:
.LBE3451:
.LBE3450:
.LBE3449:
.LBE3452:
.LBE3453:
	.loc 1 837 0
	lwz 3,8(31)
	cmpwi 7,3,0
	beq- 7,.L635
	lwz 9,0(3)
	lwz 0,4(9)
	mtctr 0
	bctrl
.LEHE49:
.L635:
.LVL625:
.LBB3454:
.LBB3455:
	.loc 4 234 0
	lwz 31,0(31)
.LVL626:
.LBE3455:
.LBE3454:
	.loc 1 834 0
	cmpw 7,29,31
	bne+ 7,.L671
.LBE3471:
	.loc 3 394 0
	lwz 31,4(28)
.LVL627:
.LBB3472:
.LBB3456:
.LBB3457:
	.loc 4 1162 0
	cmpw 7,29,31
	bne+ 7,.L673
	b .L633
.LVL628:
.L666:
	.loc 4 1163 0
	mr 31,30
.LVL629:
.L673:
.LBB3458:
.LBB3459:
	.loc 9 112 0
	lwz 30,0(31)
.LVL630:
.LBB3460:
.LBB3461:
	.loc 4 1532 0
	mr 3,31
	bl _ZNSt8__detail15_List_node_base9_M_unhookEv
.LVL631:
.LBB3462:
.LBB3463:
.LBB3464:
	.loc 6 98 0
	mr 3,31
	bl _ZdlPv
.LVL632:
.LBE3464:
.LBE3463:
.LBE3462:
.LBE3461:
.LBE3460:
.LBE3459:
.LBE3458:
	.loc 4 1162 0
	cmpw 7,29,30
	bne+ 7,.L666
.LVL633:
.L633:
.LBE3457:
.LBE3456:
.LBB3465:
.LBB3466:
.LBB3467:
	.loc 1 343 0
	lwz 9,0(28)
	mr 3,28
	lwz 0,12(9)
	mtctr 0
.LEHB50:
	bctrl
.LEHE50:
.LBE3467:
.LBE3466:
.LBE3465:
.LBE3472:
.LBE3437:
.LBB3474:
.LBB3475:
.LBB3476:
.LBB3477:
.LBB3478:
.LBB3479:
	.loc 9 70 0
	lwz 3,4(28)
.LVL634:
	.loc 9 71 0
	cmpw 7,3,29
	bne+ 7,.L675
	b .L651
.LVL635:
.L667:
	.loc 9 74 0
	mr 3,31
.LVL636:
.L675:
.LBB3480:
	lwz 31,0(3)
.LVL637:
.LBB3481:
.LBB3482:
.LBB3483:
	.loc 6 98 0
	bl _ZdlPv
.LVL638:
.LBE3483:
.LBE3482:
.LBE3481:
.LBE3480:
	.loc 9 71 0
	cmpw 7,31,29
	bne+ 7,.L667
.LVL639:
.L651:
.LBE3479:
.LBE3478:
.LBE3477:
.LBE3476:
.LBE3475:
.LBE3474:
.LBB3484:
.LBB3485:
.LBB3486:
.LBB3487:
.LBB3488:
.LBB3489:
	.loc 1 105 0
	lis 9,_ZTVN7sigslot15single_threadedE+8@ha
.LBE3489:
.LBE3488:
.LBE3487:
.LBE3486:
.LBE3485:
.LBE3484:
.LBE3520:
.LBE3525:
.LBE3530:
.LBE3535:
	.loc 1 2238 0
	lwz 29,28(1)
.LVL640:
.LBB3536:
.LBB3531:
.LBB3526:
.LBB3521:
.LBB3500:
.LBB3498:
.LBB3496:
.LBB3494:
.LBB3492:
.LBB3490:
	.loc 1 105 0
	la 0,_ZTVN7sigslot15single_threadedE+8@l(9)
.LBE3490:
.LBE3492:
.LBE3494:
.LBE3496:
.LBE3498:
.LBE3500:
.LBE3521:
.LBE3526:
.LBE3531:
.LBE3536:
	.loc 1 2238 0
	lwz 30,32(1)
.LBB3537:
.LBB3532:
.LBB3527:
.LBB3522:
.LBB3501:
.LBB3499:
.LBB3497:
.LBB3495:
.LBB3493:
.LBB3491:
	.loc 1 105 0
	stw 0,0(28)
.LBE3491:
.LBE3493:
.LBE3495:
.LBE3497:
.LBE3499:
.LBE3501:
.LBE3522:
.LBE3527:
.LBE3532:
.LBE3537:
	.loc 1 2238 0
	lwz 0,44(1)
	lwz 28,24(1)
.LVL641:
	mtlr 0
	lwz 31,36(1)
	addi 1,1,40
	.cfi_remember_state
.LCFI88:
	.cfi_def_cfa_offset 0
	.cfi_restore 31
	.cfi_restore 30
	.cfi_restore 29
	.cfi_restore 28
	blr
.LVL642:
.L669:
.LCFI89:
	.cfi_restore_state
	mr 31,3
.L643:
.LBB3538:
.LBB3533:
.LBB3528:
.LBB3523:
.LBB3502:
.LBB3503:
.LBB3504:
.LBB3505:
.LBB3506:
.LBB3507:
	.loc 9 70 0
	lwz 3,4(28)
.LVL643:
	.loc 9 71 0
	cmpw 7,3,29
	beq- 7,.L660
.LVL644:
.L676:
.LBB3508:
	.loc 9 74 0
	lwz 30,0(3)
.LVL645:
.LBB3509:
.LBB3510:
.LBB3511:
	.loc 6 98 0
	bl _ZdlPv
.LVL646:
.LBE3511:
.LBE3510:
.LBE3509:
.LBE3508:
	.loc 9 71 0
	cmpw 7,30,29
	beq- 7,.L660
	.loc 9 74 0
	mr 3,30
	b .L676
.LVL647:
.L670:
.LBE3507:
.LBE3506:
.LBE3505:
.LBE3504:
.LBE3503:
.LBE3502:
.LBB3512:
.LBB3473:
.LBB3468:
.LBB3469:
.LBB3470:
	.loc 1 343 0
	lwz 9,0(28)
	mr 31,3
.LVL648:
	mr 3,28
	lwz 0,12(9)
	mtctr 0
	bctrl
	b .L643
.LVL649:
.L660:
.LBE3470:
.LBE3469:
.LBE3468:
.LBE3473:
.LBE3512:
.LBB3513:
.LBB3514:
.LBB3515:
.LBB3516:
.LBB3517:
.LBB3518:
	.loc 1 105 0
	lis 9,_ZTVN7sigslot15single_threadedE+8@ha
	mr 3,31
	la 0,_ZTVN7sigslot15single_threadedE+8@l(9)
	stw 0,0(28)
.LEHB51:
	bl _Unwind_Resume
.LEHE51:
.LBE3518:
.LBE3517:
.LBE3516:
.LBE3515:
.LBE3514:
.LBE3513:
.LBE3523:
.LBE3528:
.LBE3533:
.LBE3538:
	.cfi_endproc
.LFE1442:
	.section	.gcc_except_table
.LLSDA1442:
	.byte	0xff
	.byte	0xff
	.byte	0x1
	.uleb128 .LLSDACSE1442-.LLSDACSB1442
.LLSDACSB1442:
	.uleb128 .LEHB48-.LFB1442
	.uleb128 .LEHE48-.LEHB48
	.uleb128 .L669-.LFB1442
	.uleb128 0
	.uleb128 .LEHB49-.LFB1442
	.uleb128 .LEHE49-.LEHB49
	.uleb128 .L670-.LFB1442
	.uleb128 0
	.uleb128 .LEHB50-.LFB1442
	.uleb128 .LEHE50-.LEHB50
	.uleb128 .L669-.LFB1442
	.uleb128 0
	.uleb128 .LEHB51-.LFB1442
	.uleb128 .LEHE51-.LEHB51
	.uleb128 0
	.uleb128 0
.LLSDACSE1442:
	.section	.text._ZN7sigslot7signal2IP10GuiElementbNS_15single_threadedEED2Ev,"axG",@progbits,_ZN7sigslot7signal2IP10GuiElementbNS_15single_threadedEED5Ev,comdat
	.size	_ZN7sigslot7signal2IP10GuiElementbNS_15single_threadedEED2Ev, .-_ZN7sigslot7signal2IP10GuiElementbNS_15single_threadedEED2Ev
	.section	.text._ZN10GuiElementD0Ev,"axG",@progbits,_ZN10GuiElementD5Ev,comdat
	.align 2
	.weak	_ZN10GuiElementD0Ev
	.type	_ZN10GuiElementD0Ev, @function
_ZN10GuiElementD0Ev:
.LFB1383:
	.loc 2 89 0
	.cfi_startproc
	.cfi_personality 0,__gxx_personality_v0
	.cfi_lsda 0,.LLSDA1383
.LVL650:
	mflr 0
	stwu 1,-48(1)
.LCFI90:
	.cfi_def_cfa_offset 48
	.cfi_register 65, 0
.LBB3740:
.LBB3741:
.LBB3742:
	lis 9,_ZTV10GuiElement+8@ha
.LBE3742:
.LBE3741:
.LBE3740:
	stw 27,28(1)
.LBB4006:
.LBB4002:
.LBB3998:
.LBB3743:
.LBB3744:
.LBB3745:
	.loc 1 2305 0
	addi 27,3,16
	.cfi_offset 27, -20
.LBE3745:
.LBE3744:
.LBE3743:
.LBE3998:
.LBE4002:
.LBE4006:
	.loc 2 89 0
	stw 0,52(1)
.LBB4007:
.LBB4003:
.LBB3999:
	la 0,_ZTV10GuiElement+8@l(9)
	.cfi_offset 65, 4
.LBB3879:
.LBB3870:
.LBB3861:
.LBB3746:
.LBB3747:
.LBB3748:
	.loc 1 946 0
	lis 9,_ZTVN7sigslot13_signal_base3IP10GuiElementiiNS_15single_threadedEEE+8@ha
.LBE3748:
.LBE3747:
.LBE3746:
.LBE3861:
.LBE3870:
.LBE3879:
.LBE3999:
.LBE4003:
.LBE4007:
	.loc 2 89 0
	stw 28,32(1)
	stw 29,36(1)
	mr 28,3
	.cfi_offset 29, -12
	.cfi_offset 28, -16
.LVL651:
	stw 26,24(1)
	addi 29,28,20
	stw 30,40(1)
	stw 31,44(1)
.LBB4008:
.LBB4004:
.LBB4000:
	.loc 2 89 0
	stw 0,0(3)
.LVL652:
.LBB3880:
.LBB3871:
.LBB3862:
.LBB3853:
.LBB3845:
.LBB3837:
	.loc 1 946 0
	la 0,_ZTVN7sigslot13_signal_base3IP10GuiElementiiNS_15single_threadedEEE+8@l(9)
.LBB3749:
.LBB3750:
.LBB3751:
.LBB3752:
	.loc 1 338 0
	lis 9,_ZN7sigslot15single_threaded4lockEv@ha
.LBE3752:
.LBE3751:
.LBE3750:
.LBE3749:
	.loc 1 946 0
	stw 0,16(3)
.LVL653:
.LBB3785:
.LBB3781:
.LBB3754:
.LBB3753:
	.loc 1 338 0
	la 9,_ZN7sigslot15single_threaded4lockEv@l(9)
	mr 3,27
.LVL654:
	mtctr 9
.LEHB52:
	.cfi_offset 31, -4
	.cfi_offset 30, -8
	.cfi_offset 26, -24
	bctrl
.LEHE52:
.LBE3753:
.LBE3754:
.LBE3781:
	.loc 3 394 0
	mr 29,28
	lwzu 31,20(29)
.LVL655:
.LBB3782:
	.loc 1 954 0
	cmpw 7,31,29
	beq- 7,.L679
.LVL656:
.L758:
	.loc 1 956 0
	lwz 3,8(31)
	lwz 9,0(3)
	lwz 0,8(9)
	mtctr 0
.LEHB53:
	bctrl
	stw 27,8(1)
	mr 30,3
.LVL657:
.LBB3755:
.LBB3756:
.LBB3757:
.LBB3758:
	.loc 1 338 0
	lwz 9,0(3)
	lwz 0,8(9)
	mtctr 0
	bctrl
.LVL658:
.LBE3758:
.LBE3757:
.LBB3759:
.LBB3760:
	.loc 8 528 0
	addi 3,30,4
	addi 4,1,8
	bl _ZNSt8_Rb_treeIPN7sigslot12_signal_baseINS0_15single_threadedEEES4_St9_IdentityIS4_ESt4lessIS4_ESaIS4_EE5eraseERKS4_
.LVL659:
.LBE3760:
.LBE3759:
.LBB3761:
.LBB3762:
.LBB3763:
	.loc 1 343 0
	lwz 9,0(30)
	mr 3,30
	lwz 0,12(9)
	mtctr 0
	bctrl
.LVL660:
.LBE3763:
.LBE3762:
.LBE3761:
.LBE3756:
.LBE3755:
	.loc 1 957 0
	lwz 3,8(31)
	cmpwi 7,3,0
	beq- 7,.L681
	lwz 9,0(3)
	lwz 0,4(9)
	mtctr 0
	bctrl
.LEHE53:
.L681:
.LVL661:
.LBB3764:
.LBB3765:
	.loc 4 234 0
	lwz 31,0(31)
.LVL662:
.LBE3765:
.LBE3764:
	.loc 1 954 0
	cmpw 7,29,31
	bne+ 7,.L758
.LBE3782:
	.loc 3 394 0
	lwz 31,20(28)
.LVL663:
.LBB3783:
.LBB3766:
.LBB3767:
	.loc 4 1162 0
	cmpw 7,29,31
	bne+ 7,.L761
	b .L679
.LVL664:
.L747:
	.loc 4 1163 0
	mr 31,30
.LVL665:
.L761:
.LBB3768:
.LBB3769:
	.loc 9 112 0
	lwz 30,0(31)
.LVL666:
.LBB3770:
.LBB3771:
	.loc 4 1532 0
	mr 3,31
	bl _ZNSt8__detail15_List_node_base9_M_unhookEv
.LVL667:
.LBB3772:
.LBB3773:
.LBB3774:
	.loc 6 98 0
	mr 3,31
	bl _ZdlPv
.LVL668:
.LBE3774:
.LBE3773:
.LBE3772:
.LBE3771:
.LBE3770:
.LBE3769:
.LBE3768:
	.loc 4 1162 0
	cmpw 7,29,30
	bne+ 7,.L747
.LVL669:
.L679:
.LBE3767:
.LBE3766:
.LBB3775:
.LBB3776:
.LBB3777:
	.loc 1 343 0
	lwz 9,16(28)
	mr 3,27
	lwz 0,12(9)
	mtctr 0
.LEHB54:
	bctrl
.LEHE54:
.LBE3777:
.LBE3776:
.LBE3775:
.LBE3783:
.LBE3785:
.LBB3786:
.LBB3787:
.LBB3788:
.LBB3789:
.LBB3790:
.LBB3791:
	.loc 9 70 0
	lwz 3,20(28)
.LVL670:
	.loc 9 71 0
	cmpw 7,3,29
	bne+ 7,.L763
	b .L697
.LVL671:
.L748:
	.loc 9 74 0
	mr 3,31
.LVL672:
.L763:
.LBB3792:
	lwz 31,0(3)
.LVL673:
.LBB3793:
.LBB3794:
.LBB3795:
	.loc 6 98 0
	bl _ZdlPv
.LVL674:
.LBE3795:
.LBE3794:
.LBE3793:
.LBE3792:
	.loc 9 71 0
	cmpw 7,31,29
	bne+ 7,.L748
.LVL675:
.L697:
.LBE3791:
.LBE3790:
.LBE3789:
.LBE3788:
.LBE3787:
.LBE3786:
.LBE3837:
.LBE3845:
.LBE3853:
.LBE3862:
.LBE3871:
.LBE3880:
.LBB3881:
.LBB3882:
.LBB3883:
.LBB3884:
.LBB3885:
.LBB3886:
	.loc 1 826 0
	lis 9,_ZTVN7sigslot13_signal_base2IP10GuiElementbNS_15single_threadedEEE+8@ha
.LBE3886:
.LBE3885:
.LBE3884:
.LBE3883:
.LBE3882:
.LBE3881:
.LBB3986:
.LBB3872:
.LBB3863:
.LBB3854:
.LBB3846:
.LBB3838:
.LBB3796:
.LBB3797:
.LBB3798:
.LBB3799:
.LBB3800:
.LBB3801:
	.loc 1 105 0
	lis 26,_ZTVN7sigslot15single_threadedE+8@ha
.LBE3801:
.LBE3800:
.LBE3799:
.LBE3798:
.LBE3797:
.LBE3796:
.LBE3838:
.LBE3846:
.LBE3854:
.LBE3863:
.LBE3872:
.LBE3986:
.LBB3987:
.LBB3981:
.LBB3976:
.LBB3971:
.LBB3966:
.LBB3961:
	.loc 1 826 0
	la 0,_ZTVN7sigslot13_signal_base2IP10GuiElementbNS_15single_threadedEEE+8@l(9)
.LBB3887:
.LBB3888:
.LBB3889:
.LBB3890:
	.loc 1 338 0
	lis 9,_ZN7sigslot15single_threaded4lockEv@ha
.LBE3890:
.LBE3889:
.LBE3888:
.LBE3887:
.LBE3961:
.LBE3966:
.LBE3971:
.LBE3976:
.LBE3981:
.LBE3987:
.LBB3988:
.LBB3873:
.LBB3864:
.LBB3855:
.LBB3847:
.LBB3839:
.LBB3812:
.LBB3810:
.LBB3808:
.LBB3806:
.LBB3804:
.LBB3802:
	.loc 1 105 0
	la 26,_ZTVN7sigslot15single_threadedE+8@l(26)
.LBE3802:
.LBE3804:
.LBE3806:
.LBE3808:
.LBE3810:
.LBE3812:
.LBE3839:
.LBE3847:
.LBE3855:
.LBE3864:
.LBE3873:
.LBE3988:
.LBB3989:
.LBB3982:
.LBB3977:
	.loc 1 2238 0
	addi 27,28,4
.LVL676:
.LBB3972:
.LBB3967:
.LBB3962:
.LBB3926:
.LBB3921:
.LBB3893:
.LBB3891:
	.loc 1 338 0
	la 9,_ZN7sigslot15single_threaded4lockEv@l(9)
.LBE3891:
.LBE3893:
.LBE3921:
.LBE3926:
.LBE3962:
.LBE3967:
.LBE3972:
.LBE3977:
.LBE3982:
.LBE3989:
.LBB3990:
.LBB3874:
.LBB3865:
.LBB3856:
.LBB3848:
.LBB3840:
.LBB3813:
.LBB3811:
.LBB3809:
.LBB3807:
.LBB3805:
.LBB3803:
	.loc 1 105 0
	stw 26,16(28)
.LVL677:
.LBE3803:
.LBE3805:
.LBE3807:
.LBE3809:
.LBE3811:
.LBE3813:
.LBE3840:
.LBE3848:
.LBE3856:
.LBE3865:
.LBE3874:
.LBE3990:
.LBB3991:
.LBB3983:
.LBB3978:
.LBB3973:
.LBB3968:
.LBB3963:
	.loc 1 826 0
	stw 0,4(28)
.LVL678:
.LBB3927:
.LBB3922:
.LBB3894:
.LBB3892:
	.loc 1 338 0
	mr 3,27
	mtctr 9
	addi 29,28,8
.LVL679:
.LEHB55:
	bctrl
.LEHE55:
.LBE3892:
.LBE3894:
.LBE3922:
	.loc 3 394 0
	mr 29,28
	lwzu 31,8(29)
.LVL680:
.LBB3923:
	.loc 1 834 0
	cmpw 7,31,29
	beq- 7,.L712
.LVL681:
.L757:
	.loc 1 836 0
	lwz 3,8(31)
	lwz 9,0(3)
	lwz 0,8(9)
	mtctr 0
.LEHB56:
	bctrl
	stw 27,8(1)
	mr 30,3
.LVL682:
.LBB3895:
.LBB3896:
.LBB3897:
.LBB3898:
	.loc 1 338 0
	lwz 9,0(3)
	lwz 0,8(9)
	mtctr 0
	bctrl
.LVL683:
.LBE3898:
.LBE3897:
.LBB3899:
.LBB3900:
	.loc 8 528 0
	addi 3,30,4
	addi 4,1,8
.LVL684:
	bl _ZNSt8_Rb_treeIPN7sigslot12_signal_baseINS0_15single_threadedEEES4_St9_IdentityIS4_ESt4lessIS4_ESaIS4_EE5eraseERKS4_
.LVL685:
.LBE3900:
.LBE3899:
.LBB3901:
.LBB3902:
.LBB3903:
	.loc 1 343 0
	lwz 9,0(30)
	mr 3,30
	lwz 0,12(9)
	mtctr 0
	bctrl
.LVL686:
.LBE3903:
.LBE3902:
.LBE3901:
.LBE3896:
.LBE3895:
	.loc 1 837 0
	lwz 3,8(31)
	cmpwi 7,3,0
	beq- 7,.L714
	lwz 9,0(3)
	lwz 0,4(9)
	mtctr 0
	bctrl
.LEHE56:
.L714:
.LVL687:
.LBB3904:
.LBB3905:
	.loc 4 234 0
	lwz 31,0(31)
.LVL688:
.LBE3905:
.LBE3904:
	.loc 1 834 0
	cmpw 7,29,31
	bne+ 7,.L757
.LBE3923:
	.loc 3 394 0
	lwz 31,8(28)
.LVL689:
.LBB3924:
.LBB3906:
.LBB3907:
	.loc 4 1162 0
	cmpw 7,29,31
	bne+ 7,.L766
	b .L712
.LVL690:
.L750:
	.loc 4 1163 0
	mr 31,30
.LVL691:
.L766:
.LBB3908:
.LBB3909:
	.loc 9 112 0
	lwz 30,0(31)
.LVL692:
.LBB3910:
.LBB3911:
	.loc 4 1532 0
	mr 3,31
	bl _ZNSt8__detail15_List_node_base9_M_unhookEv
.LVL693:
.LBB3912:
.LBB3913:
.LBB3914:
	.loc 6 98 0
	mr 3,31
	bl _ZdlPv
.LVL694:
.LBE3914:
.LBE3913:
.LBE3912:
.LBE3911:
.LBE3910:
.LBE3909:
.LBE3908:
	.loc 4 1162 0
	cmpw 7,29,30
	bne+ 7,.L750
.LVL695:
.L712:
.LBE3907:
.LBE3906:
.LBB3915:
.LBB3916:
.LBB3917:
	.loc 1 343 0
	lwz 9,4(28)
	mr 3,27
	lwz 0,12(9)
	mtctr 0
.LEHB57:
	bctrl
.LEHE57:
.LBE3917:
.LBE3916:
.LBE3915:
.LBE3924:
.LBE3927:
.LBB3928:
.LBB3929:
.LBB3930:
.LBB3931:
.LBB3932:
.LBB3933:
	.loc 9 70 0
	lwz 3,8(28)
.LVL696:
	.loc 9 71 0
	cmpw 7,3,29
	bne+ 7,.L768
	b .L730
.LVL697:
.L751:
	.loc 9 74 0
	mr 3,31
.LVL698:
.L768:
.LBB3934:
	lwz 31,0(3)
.LVL699:
.LBB3935:
.LBB3936:
.LBB3937:
	.loc 6 98 0
	bl _ZdlPv
.LVL700:
.LBE3937:
.LBE3936:
.LBE3935:
.LBE3934:
	.loc 9 71 0
	cmpw 7,31,29
	bne+ 7,.L751
.LVL701:
.L730:
.LBE3933:
.LBE3932:
.LBE3931:
.LBE3930:
.LBE3929:
.LBE3928:
.LBB3938:
.LBB3939:
.LBB3940:
.LBB3941:
.LBB3942:
.LBB3943:
	.loc 1 105 0
	stw 26,4(28)
.LBE3943:
.LBE3942:
.LBE3941:
.LBE3940:
.LBE3939:
.LBE3938:
.LBE3963:
.LBE3968:
.LBE3973:
.LBE3978:
.LBE3983:
.LBE3991:
.LBE4000:
.LBE4004:
.LBE4008:
	.loc 2 89 0
	mr 3,28
	bl _ZdlPv
	lwz 0,52(1)
	lwz 26,24(1)
	mtlr 0
	lwz 27,28(1)
.LVL702:
	lwz 28,32(1)
.LVL703:
	lwz 29,36(1)
.LVL704:
	lwz 30,40(1)
	lwz 31,44(1)
	addi 1,1,48
	.cfi_remember_state
.LCFI91:
	.cfi_def_cfa_offset 0
	.cfi_restore 31
	.cfi_restore 30
	.cfi_restore 29
	.cfi_restore 28
	.cfi_restore 27
	.cfi_restore 26
	blr
.LVL705:
.L753:
.LCFI92:
	.cfi_restore_state
	mr 31,3
.L689:
.LBB4009:
.LBB4005:
.LBB4001:
.LBB3992:
.LBB3875:
.LBB3866:
.LBB3857:
.LBB3849:
.LBB3841:
.LBB3814:
.LBB3815:
.LBB3816:
.LBB3817:
.LBB3818:
.LBB3819:
	.loc 9 70 0
	lwz 3,20(28)
.LVL706:
	.loc 9 71 0
	cmpw 7,3,29
	beq- 7,.L706
.LVL707:
.L765:
.LBB3820:
	.loc 9 74 0
	lwz 30,0(3)
.LVL708:
.LBB3821:
.LBB3822:
.LBB3823:
	.loc 6 98 0
	bl _ZdlPv
.LVL709:
.LBE3823:
.LBE3822:
.LBE3821:
.LBE3820:
	.loc 9 71 0
	cmpw 7,30,29
	beq- 7,.L706
	.loc 9 74 0
	mr 3,30
	b .L765
.LVL710:
.L756:
.LBE3819:
.LBE3818:
.LBE3817:
.LBE3816:
.LBE3815:
.LBE3814:
.LBE3841:
.LBE3849:
.LBE3857:
.LBE3866:
.LBE3875:
.LBE3992:
.LBB3993:
.LBB3984:
.LBB3979:
.LBB3974:
.LBB3969:
.LBB3964:
.LBB3944:
.LBB3925:
.LBB3918:
.LBB3919:
.LBB3920:
	.loc 1 343 0
	lwz 9,4(28)
	mr 31,3
.LVL711:
	mr 3,27
	lwz 0,12(9)
	mtctr 0
	bctrl
.LVL712:
.L722:
.LBE3920:
.LBE3919:
.LBE3918:
.LBE3925:
.LBE3944:
.LBB3945:
.LBB3946:
.LBB3947:
.LBB3948:
.LBB3949:
.LBB3950:
	.loc 9 70 0
	lwz 3,8(28)
.LVL713:
	.loc 9 71 0
	cmpw 7,3,29
	beq- 7,.L739
.LVL714:
.L769:
.LBB3951:
	.loc 9 74 0
	lwz 30,0(3)
.LVL715:
.LBB3952:
.LBB3953:
.LBB3954:
	.loc 6 98 0
	bl _ZdlPv
.LVL716:
.LBE3954:
.LBE3953:
.LBE3952:
.LBE3951:
	.loc 9 71 0
	cmpw 7,30,29
	beq- 7,.L739
	.loc 9 74 0
	mr 3,30
	b .L769
.LVL717:
.L706:
.LBE3950:
.LBE3949:
.LBE3948:
.LBE3947:
.LBE3946:
.LBE3945:
.LBE3964:
.LBE3969:
.LBE3974:
.LBE3979:
.LBE3984:
.LBE3993:
.LBB3994:
.LBB3876:
.LBB3867:
.LBB3858:
.LBB3850:
.LBB3842:
.LBB3824:
.LBB3825:
.LBB3826:
.LBB3827:
.LBB3828:
.LBB3829:
	.loc 1 105 0
	lis 9,_ZTVN7sigslot15single_threadedE+8@ha
.LBE3829:
.LBE3828:
.LBE3827:
.LBE3826:
.LBE3825:
.LBE3824:
.LBE3842:
.LBE3850:
.LBE3858:
.LBE3867:
.LBE3876:
.LBE3994:
	.loc 2 89 0
	addi 3,28,4
.LBB3995:
.LBB3877:
.LBB3868:
.LBB3859:
.LBB3851:
.LBB3843:
.LBB3835:
.LBB3834:
.LBB3833:
.LBB3832:
.LBB3831:
.LBB3830:
	.loc 1 105 0
	la 0,_ZTVN7sigslot15single_threadedE+8@l(9)
	stw 0,16(28)
.LBE3830:
.LBE3831:
.LBE3832:
.LBE3833:
.LBE3834:
.LBE3835:
.LBE3843:
.LBE3851:
.LBE3859:
.LBE3868:
.LBE3877:
.LBE3995:
	.loc 2 89 0
	bl _ZN7sigslot7signal2IP10GuiElementbNS_15single_threadedEED1Ev
	mr 3,31
.LEHB58:
	bl _Unwind_Resume
.LVL718:
.L739:
.LBB3996:
.LBB3985:
.LBB3980:
.LBB3975:
.LBB3970:
.LBB3965:
.LBB3955:
.LBB3956:
.LBB3957:
.LBB3958:
.LBB3959:
.LBB3960:
	.loc 1 105 0
	stw 26,4(28)
	mr 3,31
	bl _Unwind_Resume
.LEHE58:
.LVL719:
.L755:
	mr 31,3
	b .L722
.LVL720:
.L754:
.LBE3960:
.LBE3959:
.LBE3958:
.LBE3957:
.LBE3956:
.LBE3955:
.LBE3965:
.LBE3970:
.LBE3975:
.LBE3980:
.LBE3985:
.LBE3996:
.LBB3997:
.LBB3878:
.LBB3869:
.LBB3860:
.LBB3852:
.LBB3844:
.LBB3836:
.LBB3784:
.LBB3778:
.LBB3779:
.LBB3780:
	.loc 1 343 0
	lwz 9,16(28)
	mr 31,3
.LVL721:
	mr 3,27
	lwz 0,12(9)
	mtctr 0
	bctrl
	b .L689
.LBE3780:
.LBE3779:
.LBE3778:
.LBE3784:
.LBE3836:
.LBE3844:
.LBE3852:
.LBE3860:
.LBE3869:
.LBE3878:
.LBE3997:
.LBE4001:
.LBE4005:
.LBE4009:
	.cfi_endproc
.LFE1383:
	.section	.gcc_except_table
.LLSDA1383:
	.byte	0xff
	.byte	0xff
	.byte	0x1
	.uleb128 .LLSDACSE1383-.LLSDACSB1383
.LLSDACSB1383:
	.uleb128 .LEHB52-.LFB1383
	.uleb128 .LEHE52-.LEHB52
	.uleb128 .L753-.LFB1383
	.uleb128 0
	.uleb128 .LEHB53-.LFB1383
	.uleb128 .LEHE53-.LEHB53
	.uleb128 .L754-.LFB1383
	.uleb128 0
	.uleb128 .LEHB54-.LFB1383
	.uleb128 .LEHE54-.LEHB54
	.uleb128 .L753-.LFB1383
	.uleb128 0
	.uleb128 .LEHB55-.LFB1383
	.uleb128 .LEHE55-.LEHB55
	.uleb128 .L755-.LFB1383
	.uleb128 0
	.uleb128 .LEHB56-.LFB1383
	.uleb128 .LEHE56-.LEHB56
	.uleb128 .L756-.LFB1383
	.uleb128 0
	.uleb128 .LEHB57-.LFB1383
	.uleb128 .LEHE57-.LEHB57
	.uleb128 .L755-.LFB1383
	.uleb128 0
	.uleb128 .LEHB58-.LFB1383
	.uleb128 .LEHE58-.LEHB58
	.uleb128 0
	.uleb128 0
.LLSDACSE1383:
	.section	.text._ZN10GuiElementD0Ev,"axG",@progbits,_ZN10GuiElementD5Ev,comdat
	.size	_ZN10GuiElementD0Ev, .-_ZN10GuiElementD0Ev
	.section	.text._ZN7sigslot13_signal_base2IP10GuiElementbNS_15single_threadedEED0Ev,"axG",@progbits,_ZN7sigslot13_signal_base2IP10GuiElementbNS_15single_threadedEED5Ev,comdat
	.align 2
	.weak	_ZN7sigslot13_signal_base2IP10GuiElementbNS_15single_threadedEED0Ev
	.type	_ZN7sigslot13_signal_base2IP10GuiElementbNS_15single_threadedEED0Ev, @function
_ZN7sigslot13_signal_base2IP10GuiElementbNS_15single_threadedEED0Ev:
.LFB1481:
	.loc 1 823 0
	.cfi_startproc
	.cfi_personality 0,__gxx_personality_v0
	.cfi_lsda 0,.LLSDA1481
.LVL722:
	mflr 0
	stwu 1,-40(1)
.LCFI93:
	.cfi_def_cfa_offset 40
	.cfi_register 65, 0
.LBB4105:
.LBB4106:
.LBB4107:
	.loc 1 826 0
	lis 9,_ZTVN7sigslot13_signal_base2IP10GuiElementbNS_15single_threadedEEE+8@ha
.LBE4107:
.LBE4106:
.LBE4105:
	.loc 1 823 0
	stw 28,24(1)
	mr 28,3
	.cfi_offset 28, -16
.LVL723:
	stw 0,44(1)
.LBB4192:
.LBB4188:
.LBB4184:
	.loc 1 826 0
	la 0,_ZTVN7sigslot13_signal_base2IP10GuiElementbNS_15single_threadedEEE+8@l(9)
	.cfi_offset 65, 4
.LBE4184:
.LBE4188:
.LBE4192:
	.loc 1 823 0
	stw 29,28(1)
	addi 29,3,4
	.cfi_offset 29, -12
	stw 30,32(1)
	stw 31,36(1)
.LBB4193:
.LBB4189:
.LBB4185:
	.loc 1 826 0
	stw 0,0(3)
.LVL724:
.LEHB59:
.LBB4108:
.LBB4109:
.LBB4110:
.LBB4111:
	.loc 1 338 0
	.cfi_offset 31, -4
	.cfi_offset 30, -8
	bl _ZN7sigslot15single_threaded4lockEv
.LEHE59:
.LVL725:
.LBE4111:
.LBE4110:
.LBE4109:
	.loc 3 394 0
	mr 29,28
.LVL726:
	lwzu 31,4(29)
.LVL727:
.LBB4142:
	.loc 1 834 0
	cmpw 7,31,29
	beq- 7,.L771
.LVL728:
.L809:
	.loc 1 836 0
	lwz 3,8(31)
	lwz 9,0(3)
	lwz 0,8(9)
	mtctr 0
.LEHB60:
	bctrl
.LBB4112:
.LBB4113:
.LBB4114:
.LBB4115:
	.loc 1 338 0
	lwz 9,0(3)
.LBE4115:
.LBE4114:
.LBE4113:
.LBE4112:
	.loc 1 836 0
	mr 30,3
.LVL729:
	stw 28,8(1)
.LVL730:
.LBB4124:
.LBB4123:
.LBB4117:
.LBB4116:
	.loc 1 338 0
	lwz 0,8(9)
	mtctr 0
	bctrl
.LVL731:
.LBE4116:
.LBE4117:
.LBB4118:
.LBB4119:
	.loc 8 528 0
	addi 3,30,4
	addi 4,1,8
	bl _ZNSt8_Rb_treeIPN7sigslot12_signal_baseINS0_15single_threadedEEES4_St9_IdentityIS4_ESt4lessIS4_ESaIS4_EE5eraseERKS4_
.LVL732:
.LBE4119:
.LBE4118:
.LBB4120:
.LBB4121:
.LBB4122:
	.loc 1 343 0
	lwz 9,0(30)
	mr 3,30
	lwz 0,12(9)
	mtctr 0
	bctrl
.LVL733:
.LBE4122:
.LBE4121:
.LBE4120:
.LBE4123:
.LBE4124:
	.loc 1 837 0
	lwz 3,8(31)
	cmpwi 7,3,0
	beq- 7,.L773
	lwz 9,0(3)
	lwz 0,4(9)
	mtctr 0
	bctrl
.LEHE60:
.L773:
.LVL734:
.LBB4125:
.LBB4126:
	.loc 4 234 0
	lwz 31,0(31)
.LVL735:
.LBE4126:
.LBE4125:
	.loc 1 834 0
	cmpw 7,29,31
	bne+ 7,.L809
.LBE4142:
	.loc 3 394 0
	lwz 31,4(28)
.LVL736:
.LBB4143:
.LBB4127:
.LBB4128:
	.loc 4 1162 0
	cmpw 7,29,31
	bne+ 7,.L811
	b .L771
.LVL737:
.L804:
	.loc 4 1163 0
	mr 31,30
.LVL738:
.L811:
.LBB4129:
.LBB4130:
	.loc 9 112 0
	lwz 30,0(31)
.LVL739:
.LBB4131:
.LBB4132:
	.loc 4 1532 0
	mr 3,31
	bl _ZNSt8__detail15_List_node_base9_M_unhookEv
.LVL740:
.LBB4133:
.LBB4134:
.LBB4135:
	.loc 6 98 0
	mr 3,31
	bl _ZdlPv
.LVL741:
.LBE4135:
.LBE4134:
.LBE4133:
.LBE4132:
.LBE4131:
.LBE4130:
.LBE4129:
	.loc 4 1162 0
	cmpw 7,29,30
	bne+ 7,.L804
.LVL742:
.L771:
.LBE4128:
.LBE4127:
.LBB4136:
.LBB4137:
.LBB4138:
	.loc 1 343 0
	lwz 9,0(28)
	mr 3,28
	lwz 0,12(9)
	mtctr 0
.LEHB61:
	bctrl
.LEHE61:
.LVL743:
.LBE4138:
.LBE4137:
.LBE4136:
.LBE4143:
.LBE4108:
.LBB4145:
.LBB4146:
.LBB4147:
.LBB4148:
.LBB4149:
.LBB4150:
	.loc 9 70 0
	lwz 3,4(28)
.LVL744:
	.loc 9 71 0
	cmpw 7,3,29
	bne+ 7,.L813
	b .L789
.LVL745:
.L805:
	.loc 9 74 0
	mr 3,31
.LVL746:
.L813:
.LBB4151:
	lwz 31,0(3)
.LVL747:
.LBB4152:
.LBB4153:
.LBB4154:
	.loc 6 98 0
	bl _ZdlPv
.LVL748:
.LBE4154:
.LBE4153:
.LBE4152:
.LBE4151:
	.loc 9 71 0
	cmpw 7,31,29
	bne+ 7,.L805
.LVL749:
.L789:
.LBE4150:
.LBE4149:
.LBE4148:
.LBE4147:
.LBE4146:
.LBE4145:
.LBB4155:
.LBB4156:
.LBB4157:
.LBB4158:
.LBB4159:
.LBB4160:
	.loc 1 105 0
	lis 9,_ZTVN7sigslot15single_threadedE+8@ha
.LBE4160:
.LBE4159:
.LBE4158:
.LBE4157:
.LBE4156:
.LBE4155:
.LBE4185:
.LBE4189:
.LBE4193:
	.loc 1 826 0
	mr 3,28
.LBB4194:
.LBB4190:
.LBB4186:
.LBB4166:
.LBB4165:
.LBB4164:
.LBB4163:
.LBB4162:
.LBB4161:
	.loc 1 105 0
	la 0,_ZTVN7sigslot15single_threadedE+8@l(9)
	stw 0,0(28)
.LBE4161:
.LBE4162:
.LBE4163:
.LBE4164:
.LBE4165:
.LBE4166:
.LBE4186:
.LBE4190:
.LBE4194:
	.loc 1 826 0
	bl _ZdlPv
	lwz 0,44(1)
	lwz 28,24(1)
.LVL750:
	mtlr 0
	lwz 29,28(1)
.LVL751:
	lwz 30,32(1)
	lwz 31,36(1)
	addi 1,1,40
	.cfi_remember_state
.LCFI94:
	.cfi_def_cfa_offset 0
	.cfi_restore 31
	.cfi_restore 30
	.cfi_restore 29
	.cfi_restore 28
	blr
.LVL752:
.L807:
.LCFI95:
	.cfi_restore_state
	mr 31,3
.L781:
.LVL753:
.LBB4195:
.LBB4191:
.LBB4187:
.LBB4167:
.LBB4168:
.LBB4169:
.LBB4170:
.LBB4171:
.LBB4172:
	.loc 9 70 0
	lwz 3,4(28)
.LVL754:
	.loc 9 71 0
	cmpw 7,3,29
	beq- 7,.L798
.LVL755:
.L814:
.LBB4173:
	.loc 9 74 0
	lwz 30,0(3)
.LVL756:
.LBB4174:
.LBB4175:
.LBB4176:
	.loc 6 98 0
	bl _ZdlPv
.LVL757:
.LBE4176:
.LBE4175:
.LBE4174:
.LBE4173:
	.loc 9 71 0
	cmpw 7,30,29
	beq- 7,.L798
	.loc 9 74 0
	mr 3,30
	b .L814
.LVL758:
.L808:
.LBE4172:
.LBE4171:
.LBE4170:
.LBE4169:
.LBE4168:
.LBE4167:
.LBB4177:
.LBB4144:
.LBB4139:
.LBB4140:
.LBB4141:
	.loc 1 343 0
	lwz 9,0(28)
	mr 31,3
.LVL759:
	mr 3,28
	lwz 0,12(9)
	mtctr 0
	bctrl
	b .L781
.LVL760:
.L798:
.LBE4141:
.LBE4140:
.LBE4139:
.LBE4144:
.LBE4177:
.LBB4178:
.LBB4179:
.LBB4180:
.LBB4181:
.LBB4182:
.LBB4183:
	.loc 1 105 0
	lis 9,_ZTVN7sigslot15single_threadedE+8@ha
	mr 3,31
	la 0,_ZTVN7sigslot15single_threadedE+8@l(9)
	stw 0,0(28)
.LEHB62:
	bl _Unwind_Resume
.LEHE62:
.LBE4183:
.LBE4182:
.LBE4181:
.LBE4180:
.LBE4179:
.LBE4178:
.LBE4187:
.LBE4191:
.LBE4195:
	.cfi_endproc
.LFE1481:
	.section	.gcc_except_table
.LLSDA1481:
	.byte	0xff
	.byte	0xff
	.byte	0x1
	.uleb128 .LLSDACSE1481-.LLSDACSB1481
.LLSDACSB1481:
	.uleb128 .LEHB59-.LFB1481
	.uleb128 .LEHE59-.LEHB59
	.uleb128 .L807-.LFB1481
	.uleb128 0
	.uleb128 .LEHB60-.LFB1481
	.uleb128 .LEHE60-.LEHB60
	.uleb128 .L808-.LFB1481
	.uleb128 0
	.uleb128 .LEHB61-.LFB1481
	.uleb128 .LEHE61-.LEHB61
	.uleb128 .L807-.LFB1481
	.uleb128 0
	.uleb128 .LEHB62-.LFB1481
	.uleb128 .LEHE62-.LEHB62
	.uleb128 0
	.uleb128 0
.LLSDACSE1481:
	.section	.text._ZN7sigslot13_signal_base2IP10GuiElementbNS_15single_threadedEED0Ev,"axG",@progbits,_ZN7sigslot13_signal_base2IP10GuiElementbNS_15single_threadedEED5Ev,comdat
	.size	_ZN7sigslot13_signal_base2IP10GuiElementbNS_15single_threadedEED0Ev, .-_ZN7sigslot13_signal_base2IP10GuiElementbNS_15single_threadedEED0Ev
	.section	.text._ZN10GuiElementD2Ev,"axG",@progbits,_ZN10GuiElementD5Ev,comdat
	.align 2
	.weak	_ZN10GuiElementD2Ev
	.type	_ZN10GuiElementD2Ev, @function
_ZN10GuiElementD2Ev:
.LFB1381:
	.loc 2 89 0
	.cfi_startproc
	.cfi_personality 0,__gxx_personality_v0
	.cfi_lsda 0,.LLSDA1381
.LVL761:
	mflr 0
	stwu 1,-48(1)
.LCFI96:
	.cfi_def_cfa_offset 48
	.cfi_register 65, 0
.LBB4395:
	lis 9,_ZTV10GuiElement+8@ha
.LBE4395:
	stw 27,28(1)
.LBB4657:
.LBB4396:
.LBB4397:
.LBB4398:
	.loc 1 2305 0
	addi 27,3,16
	.cfi_offset 27, -20
.LBE4398:
.LBE4397:
.LBE4396:
.LBE4657:
	.loc 2 89 0
	stw 0,52(1)
.LBB4658:
	la 0,_ZTV10GuiElement+8@l(9)
	.cfi_offset 65, 4
.LBB4532:
.LBB4523:
.LBB4514:
.LBB4399:
.LBB4400:
.LBB4401:
	.loc 1 946 0
	lis 9,_ZTVN7sigslot13_signal_base3IP10GuiElementiiNS_15single_threadedEEE+8@ha
.LBE4401:
.LBE4400:
.LBE4399:
.LBE4514:
.LBE4523:
.LBE4532:
.LBE4658:
	.loc 2 89 0
	stw 28,32(1)
	stw 29,36(1)
	mr 28,3
	.cfi_offset 29, -12
	.cfi_offset 28, -16
	stw 26,24(1)
	addi 29,28,20
	stw 30,40(1)
	stw 31,44(1)
.LBB4659:
	.loc 2 89 0
	stw 0,0(3)
.LVL762:
.LBB4533:
.LBB4524:
.LBB4515:
.LBB4506:
.LBB4498:
.LBB4490:
	.loc 1 946 0
	la 0,_ZTVN7sigslot13_signal_base3IP10GuiElementiiNS_15single_threadedEEE+8@l(9)
.LBB4402:
.LBB4403:
.LBB4404:
.LBB4405:
	.loc 1 338 0
	lis 9,_ZN7sigslot15single_threaded4lockEv@ha
.LBE4405:
.LBE4404:
.LBE4403:
.LBE4402:
	.loc 1 946 0
	stw 0,16(3)
.LVL763:
.LBB4438:
.LBB4434:
.LBB4407:
.LBB4406:
	.loc 1 338 0
	la 9,_ZN7sigslot15single_threaded4lockEv@l(9)
	mr 3,27
.LVL764:
	mtctr 9
.LEHB63:
	.cfi_offset 31, -4
	.cfi_offset 30, -8
	.cfi_offset 26, -24
	bctrl
.LEHE63:
.LBE4406:
.LBE4407:
.LBE4434:
	.loc 3 394 0
	mr 29,28
	lwzu 31,20(29)
.LVL765:
.LBB4435:
	.loc 1 954 0
	cmpw 7,31,29
	beq- 7,.L817
.LVL766:
.L895:
	.loc 1 956 0
	lwz 3,8(31)
	lwz 9,0(3)
	lwz 0,8(9)
	mtctr 0
.LEHB64:
	bctrl
	stw 27,8(1)
	mr 30,3
.LVL767:
.LBB4408:
.LBB4409:
.LBB4410:
.LBB4411:
	.loc 1 338 0
	lwz 9,0(3)
	lwz 0,8(9)
	mtctr 0
	bctrl
.LVL768:
.LBE4411:
.LBE4410:
.LBB4412:
.LBB4413:
	.loc 8 528 0
	addi 3,30,4
	addi 4,1,8
	bl _ZNSt8_Rb_treeIPN7sigslot12_signal_baseINS0_15single_threadedEEES4_St9_IdentityIS4_ESt4lessIS4_ESaIS4_EE5eraseERKS4_
.LVL769:
.LBE4413:
.LBE4412:
.LBB4414:
.LBB4415:
.LBB4416:
	.loc 1 343 0
	lwz 9,0(30)
	mr 3,30
	lwz 0,12(9)
	mtctr 0
	bctrl
.LVL770:
.LBE4416:
.LBE4415:
.LBE4414:
.LBE4409:
.LBE4408:
	.loc 1 957 0
	lwz 3,8(31)
	cmpwi 7,3,0
	beq- 7,.L819
	lwz 9,0(3)
	lwz 0,4(9)
	mtctr 0
	bctrl
.LEHE64:
.L819:
.LVL771:
.LBB4417:
.LBB4418:
	.loc 4 234 0
	lwz 31,0(31)
.LVL772:
.LBE4418:
.LBE4417:
	.loc 1 954 0
	cmpw 7,29,31
	bne+ 7,.L895
.LBE4435:
	.loc 3 394 0
	lwz 31,20(28)
.LVL773:
.LBB4436:
.LBB4419:
.LBB4420:
	.loc 4 1162 0
	cmpw 7,29,31
	bne+ 7,.L898
	b .L817
.LVL774:
.L884:
	.loc 4 1163 0
	mr 31,30
.LVL775:
.L898:
.LBB4421:
.LBB4422:
	.loc 9 112 0
	lwz 30,0(31)
.LVL776:
.LBB4423:
.LBB4424:
	.loc 4 1532 0
	mr 3,31
	bl _ZNSt8__detail15_List_node_base9_M_unhookEv
.LVL777:
.LBB4425:
.LBB4426:
.LBB4427:
	.loc 6 98 0
	mr 3,31
	bl _ZdlPv
.LVL778:
.LBE4427:
.LBE4426:
.LBE4425:
.LBE4424:
.LBE4423:
.LBE4422:
.LBE4421:
	.loc 4 1162 0
	cmpw 7,29,30
	bne+ 7,.L884
.LVL779:
.L817:
.LBE4420:
.LBE4419:
.LBB4428:
.LBB4429:
.LBB4430:
	.loc 1 343 0
	lwz 9,16(28)
	mr 3,27
	lwz 0,12(9)
	mtctr 0
.LEHB65:
	bctrl
.LEHE65:
.LBE4430:
.LBE4429:
.LBE4428:
.LBE4436:
.LBE4438:
.LBB4439:
.LBB4440:
.LBB4441:
.LBB4442:
.LBB4443:
.LBB4444:
	.loc 9 70 0
	lwz 3,20(28)
.LVL780:
	.loc 9 71 0
	cmpw 7,3,29
	bne+ 7,.L900
	b .L835
.LVL781:
.L885:
	.loc 9 74 0
	mr 3,31
.LVL782:
.L900:
.LBB4445:
	lwz 31,0(3)
.LVL783:
.LBB4446:
.LBB4447:
.LBB4448:
	.loc 6 98 0
	bl _ZdlPv
.LVL784:
.LBE4448:
.LBE4447:
.LBE4446:
.LBE4445:
	.loc 9 71 0
	cmpw 7,31,29
	bne+ 7,.L885
.LVL785:
.L835:
.LBE4444:
.LBE4443:
.LBE4442:
.LBE4441:
.LBE4440:
.LBE4439:
.LBE4490:
.LBE4498:
.LBE4506:
.LBE4515:
.LBE4524:
.LBE4533:
.LBB4534:
.LBB4535:
.LBB4536:
.LBB4537:
.LBB4538:
.LBB4539:
	.loc 1 826 0
	lis 9,_ZTVN7sigslot13_signal_base2IP10GuiElementbNS_15single_threadedEEE+8@ha
.LBE4539:
.LBE4538:
.LBE4537:
.LBE4536:
.LBE4535:
.LBE4534:
.LBB4644:
.LBB4525:
.LBB4516:
.LBB4507:
.LBB4499:
.LBB4491:
.LBB4449:
.LBB4450:
.LBB4451:
.LBB4452:
.LBB4453:
.LBB4454:
	.loc 1 105 0
	lis 26,_ZTVN7sigslot15single_threadedE+8@ha
.LBE4454:
.LBE4453:
.LBE4452:
.LBE4451:
.LBE4450:
.LBE4449:
.LBE4491:
.LBE4499:
.LBE4507:
.LBE4516:
.LBE4525:
.LBE4644:
.LBB4645:
.LBB4638:
.LBB4632:
.LBB4626:
.LBB4620:
.LBB4614:
	.loc 1 826 0
	la 0,_ZTVN7sigslot13_signal_base2IP10GuiElementbNS_15single_threadedEEE+8@l(9)
.LBB4540:
.LBB4541:
.LBB4542:
.LBB4543:
	.loc 1 338 0
	lis 9,_ZN7sigslot15single_threaded4lockEv@ha
.LBE4543:
.LBE4542:
.LBE4541:
.LBE4540:
.LBE4614:
.LBE4620:
.LBE4626:
.LBE4632:
.LBE4638:
.LBE4645:
.LBB4646:
.LBB4526:
.LBB4517:
.LBB4508:
.LBB4500:
.LBB4492:
.LBB4465:
.LBB4463:
.LBB4461:
.LBB4459:
.LBB4457:
.LBB4455:
	.loc 1 105 0
	la 26,_ZTVN7sigslot15single_threadedE+8@l(26)
.LBE4455:
.LBE4457:
.LBE4459:
.LBE4461:
.LBE4463:
.LBE4465:
.LBE4492:
.LBE4500:
.LBE4508:
.LBE4517:
.LBE4526:
.LBE4646:
.LBB4647:
.LBB4639:
.LBB4633:
	.loc 1 2238 0
	addi 27,28,4
.LVL786:
.LBB4627:
.LBB4621:
.LBB4615:
.LBB4579:
.LBB4574:
.LBB4546:
.LBB4544:
	.loc 1 338 0
	la 9,_ZN7sigslot15single_threaded4lockEv@l(9)
.LBE4544:
.LBE4546:
.LBE4574:
.LBE4579:
.LBE4615:
.LBE4621:
.LBE4627:
.LBE4633:
.LBE4639:
.LBE4647:
.LBB4648:
.LBB4527:
.LBB4518:
.LBB4509:
.LBB4501:
.LBB4493:
.LBB4466:
.LBB4464:
.LBB4462:
.LBB4460:
.LBB4458:
.LBB4456:
	.loc 1 105 0
	stw 26,16(28)
.LVL787:
.LBE4456:
.LBE4458:
.LBE4460:
.LBE4462:
.LBE4464:
.LBE4466:
.LBE4493:
.LBE4501:
.LBE4509:
.LBE4518:
.LBE4527:
.LBE4648:
.LBB4649:
.LBB4640:
.LBB4634:
.LBB4628:
.LBB4622:
.LBB4616:
	.loc 1 826 0
	stw 0,4(28)
.LVL788:
.LBB4580:
.LBB4575:
.LBB4547:
.LBB4545:
	.loc 1 338 0
	mr 3,27
	mtctr 9
	addi 29,28,8
.LVL789:
.LEHB66:
	bctrl
.LEHE66:
.LBE4545:
.LBE4547:
.LBE4575:
	.loc 3 394 0
	mr 29,28
	lwzu 31,8(29)
.LVL790:
.LBB4576:
	.loc 1 834 0
	cmpw 7,31,29
	beq- 7,.L850
.LVL791:
.L894:
	.loc 1 836 0
	lwz 3,8(31)
	lwz 9,0(3)
	lwz 0,8(9)
	mtctr 0
.LEHB67:
	bctrl
	stw 27,8(1)
	mr 30,3
.LVL792:
.LBB4548:
.LBB4549:
.LBB4550:
.LBB4551:
	.loc 1 338 0
	lwz 9,0(3)
	lwz 0,8(9)
	mtctr 0
	bctrl
.LVL793:
.LBE4551:
.LBE4550:
.LBB4552:
.LBB4553:
	.loc 8 528 0
	addi 3,30,4
	addi 4,1,8
.LVL794:
	bl _ZNSt8_Rb_treeIPN7sigslot12_signal_baseINS0_15single_threadedEEES4_St9_IdentityIS4_ESt4lessIS4_ESaIS4_EE5eraseERKS4_
.LVL795:
.LBE4553:
.LBE4552:
.LBB4554:
.LBB4555:
.LBB4556:
	.loc 1 343 0
	lwz 9,0(30)
	mr 3,30
	lwz 0,12(9)
	mtctr 0
	bctrl
.LVL796:
.LBE4556:
.LBE4555:
.LBE4554:
.LBE4549:
.LBE4548:
	.loc 1 837 0
	lwz 3,8(31)
	cmpwi 7,3,0
	beq- 7,.L852
	lwz 9,0(3)
	lwz 0,4(9)
	mtctr 0
	bctrl
.LEHE67:
.L852:
.LVL797:
.LBB4557:
.LBB4558:
	.loc 4 234 0
	lwz 31,0(31)
.LVL798:
.LBE4558:
.LBE4557:
	.loc 1 834 0
	cmpw 7,29,31
	bne+ 7,.L894
.LBE4576:
	.loc 3 394 0
	lwz 31,8(28)
.LVL799:
.LBB4577:
.LBB4559:
.LBB4560:
	.loc 4 1162 0
	cmpw 7,29,31
	bne+ 7,.L903
	b .L850
.LVL800:
.L887:
	.loc 4 1163 0
	mr 31,30
.LVL801:
.L903:
.LBB4561:
.LBB4562:
	.loc 9 112 0
	lwz 30,0(31)
.LVL802:
.LBB4563:
.LBB4564:
	.loc 4 1532 0
	mr 3,31
	bl _ZNSt8__detail15_List_node_base9_M_unhookEv
.LVL803:
.LBB4565:
.LBB4566:
.LBB4567:
	.loc 6 98 0
	mr 3,31
	bl _ZdlPv
.LVL804:
.LBE4567:
.LBE4566:
.LBE4565:
.LBE4564:
.LBE4563:
.LBE4562:
.LBE4561:
	.loc 4 1162 0
	cmpw 7,29,30
	bne+ 7,.L887
.LVL805:
.L850:
.LBE4560:
.LBE4559:
.LBB4568:
.LBB4569:
.LBB4570:
	.loc 1 343 0
	lwz 9,4(28)
	mr 3,27
	lwz 0,12(9)
	mtctr 0
.LEHB68:
	bctrl
.LEHE68:
.LBE4570:
.LBE4569:
.LBE4568:
.LBE4577:
.LBE4580:
.LBB4581:
.LBB4582:
.LBB4583:
.LBB4584:
.LBB4585:
.LBB4586:
	.loc 9 70 0
	lwz 3,8(28)
.LVL806:
	.loc 9 71 0
	cmpw 7,3,29
	bne+ 7,.L905
	b .L868
.LVL807:
.L888:
	.loc 9 74 0
	mr 3,31
.LVL808:
.L905:
.LBB4587:
	lwz 31,0(3)
.LVL809:
.LBB4588:
.LBB4589:
.LBB4590:
	.loc 6 98 0
	bl _ZdlPv
.LVL810:
.LBE4590:
.LBE4589:
.LBE4588:
.LBE4587:
	.loc 9 71 0
	cmpw 7,31,29
	bne+ 7,.L888
.LVL811:
.L868:
.LBE4586:
.LBE4585:
.LBE4584:
.LBE4583:
.LBE4582:
.LBE4581:
.LBE4616:
.LBE4622:
.LBE4628:
.LBE4634:
.LBE4640:
.LBE4649:
.LBE4659:
	.loc 2 89 0
	lwz 0,52(1)
.LBB4660:
.LBB4650:
.LBB4641:
.LBB4635:
.LBB4629:
.LBB4623:
.LBB4617:
.LBB4591:
.LBB4592:
.LBB4593:
.LBB4594:
.LBB4595:
.LBB4596:
	.loc 1 105 0
	stw 26,4(28)
.LBE4596:
.LBE4595:
.LBE4594:
.LBE4593:
.LBE4592:
.LBE4591:
.LBE4617:
.LBE4623:
.LBE4629:
.LBE4635:
.LBE4641:
.LBE4650:
.LBE4660:
	.loc 2 89 0
	mtlr 0
	lwz 26,24(1)
	lwz 27,28(1)
.LVL812:
	lwz 28,32(1)
.LVL813:
	lwz 29,36(1)
.LVL814:
	lwz 30,40(1)
	lwz 31,44(1)
	addi 1,1,48
	.cfi_remember_state
.LCFI97:
	.cfi_def_cfa_offset 0
	.cfi_restore 31
	.cfi_restore 30
	.cfi_restore 29
	.cfi_restore 28
	.cfi_restore 27
	.cfi_restore 26
	blr
.LVL815:
.L890:
.LCFI98:
	.cfi_restore_state
	mr 31,3
.L827:
.LBB4661:
.LBB4651:
.LBB4528:
.LBB4519:
.LBB4510:
.LBB4502:
.LBB4494:
.LBB4467:
.LBB4468:
.LBB4469:
.LBB4470:
.LBB4471:
.LBB4472:
	.loc 9 70 0
	lwz 3,20(28)
.LVL816:
	.loc 9 71 0
	cmpw 7,3,29
	beq- 7,.L844
.LVL817:
.L902:
.LBB4473:
	.loc 9 74 0
	lwz 30,0(3)
.LVL818:
.LBB4474:
.LBB4475:
.LBB4476:
	.loc 6 98 0
	bl _ZdlPv
.LVL819:
.LBE4476:
.LBE4475:
.LBE4474:
.LBE4473:
	.loc 9 71 0
	cmpw 7,30,29
	beq- 7,.L844
	.loc 9 74 0
	mr 3,30
	b .L902
.LVL820:
.L893:
.LBE4472:
.LBE4471:
.LBE4470:
.LBE4469:
.LBE4468:
.LBE4467:
.LBE4494:
.LBE4502:
.LBE4510:
.LBE4519:
.LBE4528:
.LBE4651:
.LBB4652:
.LBB4642:
.LBB4636:
.LBB4630:
.LBB4624:
.LBB4618:
.LBB4597:
.LBB4578:
.LBB4571:
.LBB4572:
.LBB4573:
	.loc 1 343 0
	lwz 9,4(28)
	mr 31,3
.LVL821:
	mr 3,27
	lwz 0,12(9)
	mtctr 0
	bctrl
.LVL822:
.L860:
.LBE4573:
.LBE4572:
.LBE4571:
.LBE4578:
.LBE4597:
.LBB4598:
.LBB4599:
.LBB4600:
.LBB4601:
.LBB4602:
.LBB4603:
	.loc 9 70 0
	lwz 3,8(28)
.LVL823:
	.loc 9 71 0
	cmpw 7,3,29
	beq- 7,.L877
.LVL824:
.L906:
.LBB4604:
	.loc 9 74 0
	lwz 30,0(3)
.LVL825:
.LBB4605:
.LBB4606:
.LBB4607:
	.loc 6 98 0
	bl _ZdlPv
.LVL826:
.LBE4607:
.LBE4606:
.LBE4605:
.LBE4604:
	.loc 9 71 0
	cmpw 7,30,29
	beq- 7,.L877
	.loc 9 74 0
	mr 3,30
	b .L906
.LVL827:
.L844:
.LBE4603:
.LBE4602:
.LBE4601:
.LBE4600:
.LBE4599:
.LBE4598:
.LBE4618:
.LBE4624:
.LBE4630:
.LBE4636:
.LBE4642:
.LBE4652:
.LBB4653:
.LBB4529:
.LBB4520:
.LBB4511:
.LBB4503:
.LBB4495:
.LBB4477:
.LBB4478:
.LBB4479:
.LBB4480:
.LBB4481:
.LBB4482:
	.loc 1 105 0
	lis 9,_ZTVN7sigslot15single_threadedE+8@ha
.LBE4482:
.LBE4481:
.LBE4480:
.LBE4479:
.LBE4478:
.LBE4477:
.LBE4495:
.LBE4503:
.LBE4511:
.LBE4520:
.LBE4529:
.LBE4653:
	.loc 2 89 0
	addi 3,28,4
.LBB4654:
.LBB4530:
.LBB4521:
.LBB4512:
.LBB4504:
.LBB4496:
.LBB4488:
.LBB4487:
.LBB4486:
.LBB4485:
.LBB4484:
.LBB4483:
	.loc 1 105 0
	la 0,_ZTVN7sigslot15single_threadedE+8@l(9)
	stw 0,16(28)
.LBE4483:
.LBE4484:
.LBE4485:
.LBE4486:
.LBE4487:
.LBE4488:
.LBE4496:
.LBE4504:
.LBE4512:
.LBE4521:
.LBE4530:
.LBE4654:
	.loc 2 89 0
	bl _ZN7sigslot7signal2IP10GuiElementbNS_15single_threadedEED1Ev
	mr 3,31
.LEHB69:
	bl _Unwind_Resume
.LVL828:
.L877:
.LBB4655:
.LBB4643:
.LBB4637:
.LBB4631:
.LBB4625:
.LBB4619:
.LBB4608:
.LBB4609:
.LBB4610:
.LBB4611:
.LBB4612:
.LBB4613:
	.loc 1 105 0
	stw 26,4(28)
	mr 3,31
	bl _Unwind_Resume
.LEHE69:
.LVL829:
.L892:
	mr 31,3
	b .L860
.LVL830:
.L891:
.LBE4613:
.LBE4612:
.LBE4611:
.LBE4610:
.LBE4609:
.LBE4608:
.LBE4619:
.LBE4625:
.LBE4631:
.LBE4637:
.LBE4643:
.LBE4655:
.LBB4656:
.LBB4531:
.LBB4522:
.LBB4513:
.LBB4505:
.LBB4497:
.LBB4489:
.LBB4437:
.LBB4431:
.LBB4432:
.LBB4433:
	.loc 1 343 0
	lwz 9,16(28)
	mr 31,3
.LVL831:
	mr 3,27
	lwz 0,12(9)
	mtctr 0
	bctrl
	b .L827
.LBE4433:
.LBE4432:
.LBE4431:
.LBE4437:
.LBE4489:
.LBE4497:
.LBE4505:
.LBE4513:
.LBE4522:
.LBE4531:
.LBE4656:
.LBE4661:
	.cfi_endproc
.LFE1381:
	.section	.gcc_except_table
.LLSDA1381:
	.byte	0xff
	.byte	0xff
	.byte	0x1
	.uleb128 .LLSDACSE1381-.LLSDACSB1381
.LLSDACSB1381:
	.uleb128 .LEHB63-.LFB1381
	.uleb128 .LEHE63-.LEHB63
	.uleb128 .L890-.LFB1381
	.uleb128 0
	.uleb128 .LEHB64-.LFB1381
	.uleb128 .LEHE64-.LEHB64
	.uleb128 .L891-.LFB1381
	.uleb128 0
	.uleb128 .LEHB65-.LFB1381
	.uleb128 .LEHE65-.LEHB65
	.uleb128 .L890-.LFB1381
	.uleb128 0
	.uleb128 .LEHB66-.LFB1381
	.uleb128 .LEHE66-.LEHB66
	.uleb128 .L892-.LFB1381
	.uleb128 0
	.uleb128 .LEHB67-.LFB1381
	.uleb128 .LEHE67-.LEHB67
	.uleb128 .L893-.LFB1381
	.uleb128 0
	.uleb128 .LEHB68-.LFB1381
	.uleb128 .LEHE68-.LEHB68
	.uleb128 .L892-.LFB1381
	.uleb128 0
	.uleb128 .LEHB69-.LFB1381
	.uleb128 .LEHE69-.LEHB69
	.uleb128 0
	.uleb128 0
.LLSDACSE1381:
	.section	.text._ZN10GuiElementD2Ev,"axG",@progbits,_ZN10GuiElementD5Ev,comdat
	.size	_ZN10GuiElementD2Ev, .-_ZN10GuiElementD2Ev
	.weak	_ZTS10GuiElement
	.section	.rodata._ZTS10GuiElement,"aG",@progbits,_ZTS10GuiElement,comdat
	.align 2
	.type	_ZTS10GuiElement, @object
	.size	_ZTS10GuiElement, 13
_ZTS10GuiElement:
	.string	"10GuiElement"
	.weak	_ZTI10GuiElement
	.section	.sdata._ZTI10GuiElement,"awG",@progbits,_ZTI10GuiElement,comdat
	.align 2
	.type	_ZTI10GuiElement, @object
	.size	_ZTI10GuiElement, 8
_ZTI10GuiElement:
	.long	_ZTVN10__cxxabiv117__class_type_infoE+8
	.long	_ZTS10GuiElement
	.weak	_ZTV10GuiElement
	.section	.rodata._ZTV10GuiElement,"aG",@progbits,_ZTV10GuiElement,comdat
	.align 3
	.type	_ZTV10GuiElement, @object
	.size	_ZTV10GuiElement, 208
_ZTV10GuiElement:
	.long	0
	.long	_ZTI10GuiElement
	.long	_ZN10GuiElementD1Ev
	.long	_ZN10GuiElementD0Ev
	.long	_ZN10GuiElement9SetParentEPS_
	.long	_ZN10GuiElement9GetParentEv
	.long	_ZN10GuiElement7GetLeftEv
	.long	_ZN10GuiElement6GetTopEv
	.long	_ZN10GuiElement12GetZPositionEv
	.long	_ZN10GuiElement10GetLeftPosEv
	.long	_ZN10GuiElement9GetTopPosEv
	.long	_ZN10GuiElement8GetWidthEv
	.long	_ZN10GuiElement9GetHeightEv
	.long	_ZN10GuiElement7SetSizeEii
	.long	_ZN10GuiElement10SetVisibleEb
	.long	_ZN10GuiElement9IsVisibleEv
	.long	_ZN10GuiElement12IsSelectableEv
	.long	_ZN10GuiElement11IsClickableEv
	.long	_ZN10GuiElement10IsHoldableEv
	.long	_ZN10GuiElement13SetSelectableEb
	.long	_ZN10GuiElement12SetClickableEb
	.long	_ZN10GuiElement11SetHoldableEb
	.long	_ZN10GuiElement8SetStateEii
	.long	_ZN10GuiElement8GetStateEv
	.long	_ZN10GuiElement12GetStateChanEv
	.long	_ZN10GuiElement10ResetStateEv
	.long	_ZN10GuiElement8SetAlphaEi
	.long	_ZN10GuiElement8GetAlphaEv
	.long	_ZN10GuiElement8SetScaleEf
	.long	_ZN10GuiElement9SetScaleXEf
	.long	_ZN10GuiElement9SetScaleYEf
	.long	_ZN10GuiElement8GetScaleEv
	.long	_ZN10GuiElement9GetScaleXEv
	.long	_ZN10GuiElement9GetScaleYEv
	.long	_ZN10GuiElement6RumbleEv
	.long	_ZN10GuiElement9SetRumbleEb
	.long	_ZN10GuiElement9SetEffectEiii
	.long	_ZN10GuiElement15SetEffectOnOverEiii
	.long	_ZN10GuiElement13SetEffectGrowEv
	.long	_ZN10GuiElement12ResetEffectsEv
	.long	_ZNK10GuiElement9GetEffectEv
	.long	_ZNK10GuiElement10IsAnimatedEv
	.long	_ZN10GuiElement9SetBoundsE4RectIiE
	.long	_ZN10GuiElement8IsInsideEii
	.long	_ZN10GuiElement11SetPositionEii
	.long	_ZN10GuiElement11SetPositionEiii
	.long	_ZN10GuiElement11GetSelectedEv
	.long	_ZN10GuiElement12SetAlignmentEi
	.long	_ZNK10GuiElement12GetAlignmentEv
	.long	_ZN10GuiElement6UpdateEP10GuiTrigger
	.long	_ZN10GuiElement4DrawEv
	.long	_ZN10GuiElement13UpdateEffectsEv
	.weak	_ZTVN7sigslot15single_threadedE
	.section	.rodata._ZTVN7sigslot15single_threadedE,"aG",@progbits,_ZTVN7sigslot15single_threadedE,comdat
	.align 3
	.type	_ZTVN7sigslot15single_threadedE, @object
	.size	_ZTVN7sigslot15single_threadedE, 24
_ZTVN7sigslot15single_threadedE:
	.long	0
	.long	_ZTIN7sigslot15single_threadedE
	.long	_ZN7sigslot15single_threadedD1Ev
	.long	_ZN7sigslot15single_threadedD0Ev
	.long	_ZN7sigslot15single_threaded4lockEv
	.long	_ZN7sigslot15single_threaded6unlockEv
	.weak	_ZTVN7sigslot12_signal_baseINS_15single_threadedEEE
	.section	.rodata._ZTVN7sigslot12_signal_baseINS_15single_threadedEEE,"aG",@progbits,_ZTVN7sigslot12_signal_baseINS_15single_threadedEEE,comdat
	.align 3
	.type	_ZTVN7sigslot12_signal_baseINS_15single_threadedEEE, @object
	.size	_ZTVN7sigslot12_signal_baseINS_15single_threadedEEE, 32
_ZTVN7sigslot12_signal_baseINS_15single_threadedEEE:
	.long	0
	.long	_ZTIN7sigslot12_signal_baseINS_15single_threadedEEE
	.long	_ZN7sigslot12_signal_baseINS_15single_threadedEED1Ev
	.long	_ZN7sigslot12_signal_baseINS_15single_threadedEED0Ev
	.long	_ZN7sigslot15single_threaded4lockEv
	.long	_ZN7sigslot15single_threaded6unlockEv
	.long	__cxa_pure_virtual
	.long	__cxa_pure_virtual
	.weak	_ZTVN7sigslot13_signal_base2IP10GuiElementbNS_15single_threadedEEE
	.section	.rodata._ZTVN7sigslot13_signal_base2IP10GuiElementbNS_15single_threadedEEE,"aG",@progbits,_ZTVN7sigslot13_signal_base2IP10GuiElementbNS_15single_threadedEEE,comdat
	.align 3
	.type	_ZTVN7sigslot13_signal_base2IP10GuiElementbNS_15single_threadedEEE, @object
	.size	_ZTVN7sigslot13_signal_base2IP10GuiElementbNS_15single_threadedEEE, 32
_ZTVN7sigslot13_signal_base2IP10GuiElementbNS_15single_threadedEEE:
	.long	0
	.long	_ZTIN7sigslot13_signal_base2IP10GuiElementbNS_15single_threadedEEE
	.long	_ZN7sigslot13_signal_base2IP10GuiElementbNS_15single_threadedEED1Ev
	.long	_ZN7sigslot13_signal_base2IP10GuiElementbNS_15single_threadedEED0Ev
	.long	_ZN7sigslot15single_threaded4lockEv
	.long	_ZN7sigslot15single_threaded6unlockEv
	.long	_ZN7sigslot13_signal_base2IP10GuiElementbNS_15single_threadedEE15slot_disconnectEPNS_9has_slotsIS3_EE
	.long	_ZN7sigslot13_signal_base2IP10GuiElementbNS_15single_threadedEE14slot_duplicateEPKNS_9has_slotsIS3_EEPS6_
	.weak	_ZTVN7sigslot7signal2IP10GuiElementbNS_15single_threadedEEE
	.section	.rodata._ZTVN7sigslot7signal2IP10GuiElementbNS_15single_threadedEEE,"aG",@progbits,_ZTVN7sigslot7signal2IP10GuiElementbNS_15single_threadedEEE,comdat
	.align 3
	.type	_ZTVN7sigslot7signal2IP10GuiElementbNS_15single_threadedEEE, @object
	.size	_ZTVN7sigslot7signal2IP10GuiElementbNS_15single_threadedEEE, 32
_ZTVN7sigslot7signal2IP10GuiElementbNS_15single_threadedEEE:
	.long	0
	.long	_ZTIN7sigslot7signal2IP10GuiElementbNS_15single_threadedEEE
	.long	_ZN7sigslot7signal2IP10GuiElementbNS_15single_threadedEED1Ev
	.long	_ZN7sigslot7signal2IP10GuiElementbNS_15single_threadedEED0Ev
	.long	_ZN7sigslot15single_threaded4lockEv
	.long	_ZN7sigslot15single_threaded6unlockEv
	.long	_ZN7sigslot13_signal_base2IP10GuiElementbNS_15single_threadedEE15slot_disconnectEPNS_9has_slotsIS3_EE
	.long	_ZN7sigslot13_signal_base2IP10GuiElementbNS_15single_threadedEE14slot_duplicateEPKNS_9has_slotsIS3_EEPS6_
	.weak	_ZTVN7sigslot13_signal_base3IP10GuiElementiiNS_15single_threadedEEE
	.section	.rodata._ZTVN7sigslot13_signal_base3IP10GuiElementiiNS_15single_threadedEEE,"aG",@progbits,_ZTVN7sigslot13_signal_base3IP10GuiElementiiNS_15single_threadedEEE,comdat
	.align 3
	.type	_ZTVN7sigslot13_signal_base3IP10GuiElementiiNS_15single_threadedEEE, @object
	.size	_ZTVN7sigslot13_signal_base3IP10GuiElementiiNS_15single_threadedEEE, 32
_ZTVN7sigslot13_signal_base3IP10GuiElementiiNS_15single_threadedEEE:
	.long	0
	.long	_ZTIN7sigslot13_signal_base3IP10GuiElementiiNS_15single_threadedEEE
	.long	_ZN7sigslot13_signal_base3IP10GuiElementiiNS_15single_threadedEED1Ev
	.long	_ZN7sigslot13_signal_base3IP10GuiElementiiNS_15single_threadedEED0Ev
	.long	_ZN7sigslot15single_threaded4lockEv
	.long	_ZN7sigslot15single_threaded6unlockEv
	.long	_ZN7sigslot13_signal_base3IP10GuiElementiiNS_15single_threadedEE15slot_disconnectEPNS_9has_slotsIS3_EE
	.long	_ZN7sigslot13_signal_base3IP10GuiElementiiNS_15single_threadedEE14slot_duplicateEPKNS_9has_slotsIS3_EEPS6_
	.weak	_ZTVN7sigslot7signal3IP10GuiElementiiNS_15single_threadedEEE
	.section	.rodata._ZTVN7sigslot7signal3IP10GuiElementiiNS_15single_threadedEEE,"aG",@progbits,_ZTVN7sigslot7signal3IP10GuiElementiiNS_15single_threadedEEE,comdat
	.align 3
	.type	_ZTVN7sigslot7signal3IP10GuiElementiiNS_15single_threadedEEE, @object
	.size	_ZTVN7sigslot7signal3IP10GuiElementiiNS_15single_threadedEEE, 32
_ZTVN7sigslot7signal3IP10GuiElementiiNS_15single_threadedEEE:
	.long	0
	.long	_ZTIN7sigslot7signal3IP10GuiElementiiNS_15single_threadedEEE
	.long	_ZN7sigslot7signal3IP10GuiElementiiNS_15single_threadedEED1Ev
	.long	_ZN7sigslot7signal3IP10GuiElementiiNS_15single_threadedEED0Ev
	.long	_ZN7sigslot15single_threaded4lockEv
	.long	_ZN7sigslot15single_threaded6unlockEv
	.long	_ZN7sigslot13_signal_base3IP10GuiElementiiNS_15single_threadedEE15slot_disconnectEPNS_9has_slotsIS3_EE
	.long	_ZN7sigslot13_signal_base3IP10GuiElementiiNS_15single_threadedEE14slot_duplicateEPKNS_9has_slotsIS3_EEPS6_
	.weak	_ZTIN7sigslot15single_threadedE
	.section	.sdata._ZTIN7sigslot15single_threadedE,"awG",@progbits,_ZTIN7sigslot15single_threadedE,comdat
	.align 2
	.type	_ZTIN7sigslot15single_threadedE, @object
	.size	_ZTIN7sigslot15single_threadedE, 8
_ZTIN7sigslot15single_threadedE:
	.long	_ZTVN10__cxxabiv117__class_type_infoE+8
	.long	_ZTSN7sigslot15single_threadedE
	.weak	_ZTIN7sigslot12_signal_baseINS_15single_threadedEEE
	.section	.rodata._ZTIN7sigslot12_signal_baseINS_15single_threadedEEE,"aG",@progbits,_ZTIN7sigslot12_signal_baseINS_15single_threadedEEE,comdat
	.align 2
	.type	_ZTIN7sigslot12_signal_baseINS_15single_threadedEEE, @object
	.size	_ZTIN7sigslot12_signal_baseINS_15single_threadedEEE, 12
_ZTIN7sigslot12_signal_baseINS_15single_threadedEEE:
	.long	_ZTVN10__cxxabiv120__si_class_type_infoE+8
	.long	_ZTSN7sigslot12_signal_baseINS_15single_threadedEEE
	.long	_ZTIN7sigslot15single_threadedE
	.weak	_ZTIN7sigslot13_signal_base2IP10GuiElementbNS_15single_threadedEEE
	.section	.rodata._ZTIN7sigslot13_signal_base2IP10GuiElementbNS_15single_threadedEEE,"aG",@progbits,_ZTIN7sigslot13_signal_base2IP10GuiElementbNS_15single_threadedEEE,comdat
	.align 2
	.type	_ZTIN7sigslot13_signal_base2IP10GuiElementbNS_15single_threadedEEE, @object
	.size	_ZTIN7sigslot13_signal_base2IP10GuiElementbNS_15single_threadedEEE, 12
_ZTIN7sigslot13_signal_base2IP10GuiElementbNS_15single_threadedEEE:
	.long	_ZTVN10__cxxabiv120__si_class_type_infoE+8
	.long	_ZTSN7sigslot13_signal_base2IP10GuiElementbNS_15single_threadedEEE
	.long	_ZTIN7sigslot12_signal_baseINS_15single_threadedEEE
	.weak	_ZTIN7sigslot7signal2IP10GuiElementbNS_15single_threadedEEE
	.section	.rodata._ZTIN7sigslot7signal2IP10GuiElementbNS_15single_threadedEEE,"aG",@progbits,_ZTIN7sigslot7signal2IP10GuiElementbNS_15single_threadedEEE,comdat
	.align 2
	.type	_ZTIN7sigslot7signal2IP10GuiElementbNS_15single_threadedEEE, @object
	.size	_ZTIN7sigslot7signal2IP10GuiElementbNS_15single_threadedEEE, 12
_ZTIN7sigslot7signal2IP10GuiElementbNS_15single_threadedEEE:
	.long	_ZTVN10__cxxabiv120__si_class_type_infoE+8
	.long	_ZTSN7sigslot7signal2IP10GuiElementbNS_15single_threadedEEE
	.long	_ZTIN7sigslot13_signal_base2IP10GuiElementbNS_15single_threadedEEE
	.weak	_ZTIN7sigslot13_signal_base3IP10GuiElementiiNS_15single_threadedEEE
	.section	.rodata._ZTIN7sigslot13_signal_base3IP10GuiElementiiNS_15single_threadedEEE,"aG",@progbits,_ZTIN7sigslot13_signal_base3IP10GuiElementiiNS_15single_threadedEEE,comdat
	.align 2
	.type	_ZTIN7sigslot13_signal_base3IP10GuiElementiiNS_15single_threadedEEE, @object
	.size	_ZTIN7sigslot13_signal_base3IP10GuiElementiiNS_15single_threadedEEE, 12
_ZTIN7sigslot13_signal_base3IP10GuiElementiiNS_15single_threadedEEE:
	.long	_ZTVN10__cxxabiv120__si_class_type_infoE+8
	.long	_ZTSN7sigslot13_signal_base3IP10GuiElementiiNS_15single_threadedEEE
	.long	_ZTIN7sigslot12_signal_baseINS_15single_threadedEEE
	.weak	_ZTIN7sigslot7signal3IP10GuiElementiiNS_15single_threadedEEE
	.section	.rodata._ZTIN7sigslot7signal3IP10GuiElementiiNS_15single_threadedEEE,"aG",@progbits,_ZTIN7sigslot7signal3IP10GuiElementiiNS_15single_threadedEEE,comdat
	.align 2
	.type	_ZTIN7sigslot7signal3IP10GuiElementiiNS_15single_threadedEEE, @object
	.size	_ZTIN7sigslot7signal3IP10GuiElementiiNS_15single_threadedEEE, 12
_ZTIN7sigslot7signal3IP10GuiElementiiNS_15single_threadedEEE:
	.long	_ZTVN10__cxxabiv120__si_class_type_infoE+8
	.long	_ZTSN7sigslot7signal3IP10GuiElementiiNS_15single_threadedEEE
	.long	_ZTIN7sigslot13_signal_base3IP10GuiElementiiNS_15single_threadedEEE
	.weak	_ZTSN7sigslot15single_threadedE
	.section	.rodata._ZTSN7sigslot15single_threadedE,"aG",@progbits,_ZTSN7sigslot15single_threadedE,comdat
	.align 2
	.type	_ZTSN7sigslot15single_threadedE, @object
	.size	_ZTSN7sigslot15single_threadedE, 28
_ZTSN7sigslot15single_threadedE:
	.string	"N7sigslot15single_threadedE"
	.weak	_ZTSN7sigslot12_signal_baseINS_15single_threadedEEE
	.section	.rodata._ZTSN7sigslot12_signal_baseINS_15single_threadedEEE,"aG",@progbits,_ZTSN7sigslot12_signal_baseINS_15single_threadedEEE,comdat
	.align 2
	.type	_ZTSN7sigslot12_signal_baseINS_15single_threadedEEE, @object
	.size	_ZTSN7sigslot12_signal_baseINS_15single_threadedEEE, 48
_ZTSN7sigslot12_signal_baseINS_15single_threadedEEE:
	.string	"N7sigslot12_signal_baseINS_15single_threadedEEE"
	.weak	_ZTSN7sigslot13_signal_base2IP10GuiElementbNS_15single_threadedEEE
	.section	.rodata._ZTSN7sigslot13_signal_base2IP10GuiElementbNS_15single_threadedEEE,"aG",@progbits,_ZTSN7sigslot13_signal_base2IP10GuiElementbNS_15single_threadedEEE,comdat
	.align 2
	.type	_ZTSN7sigslot13_signal_base2IP10GuiElementbNS_15single_threadedEEE, @object
	.size	_ZTSN7sigslot13_signal_base2IP10GuiElementbNS_15single_threadedEEE, 63
_ZTSN7sigslot13_signal_base2IP10GuiElementbNS_15single_threadedEEE:
	.string	"N7sigslot13_signal_base2IP10GuiElementbNS_15single_threadedEEE"
	.weak	_ZTSN7sigslot7signal2IP10GuiElementbNS_15single_threadedEEE
	.section	.rodata._ZTSN7sigslot7signal2IP10GuiElementbNS_15single_threadedEEE,"aG",@progbits,_ZTSN7sigslot7signal2IP10GuiElementbNS_15single_threadedEEE,comdat
	.align 2
	.type	_ZTSN7sigslot7signal2IP10GuiElementbNS_15single_threadedEEE, @object
	.size	_ZTSN7sigslot7signal2IP10GuiElementbNS_15single_threadedEEE, 56
_ZTSN7sigslot7signal2IP10GuiElementbNS_15single_threadedEEE:
	.string	"N7sigslot7signal2IP10GuiElementbNS_15single_threadedEEE"
	.weak	_ZTSN7sigslot13_signal_base3IP10GuiElementiiNS_15single_threadedEEE
	.section	.rodata._ZTSN7sigslot13_signal_base3IP10GuiElementiiNS_15single_threadedEEE,"aG",@progbits,_ZTSN7sigslot13_signal_base3IP10GuiElementiiNS_15single_threadedEEE,comdat
	.align 2
	.type	_ZTSN7sigslot13_signal_base3IP10GuiElementiiNS_15single_threadedEEE, @object
	.size	_ZTSN7sigslot13_signal_base3IP10GuiElementiiNS_15single_threadedEEE, 64
_ZTSN7sigslot13_signal_base3IP10GuiElementiiNS_15single_threadedEEE:
	.string	"N7sigslot13_signal_base3IP10GuiElementiiNS_15single_threadedEEE"
	.weak	_ZTSN7sigslot7signal3IP10GuiElementiiNS_15single_threadedEEE
	.section	.rodata._ZTSN7sigslot7signal3IP10GuiElementiiNS_15single_threadedEEE,"aG",@progbits,_ZTSN7sigslot7signal3IP10GuiElementiiNS_15single_threadedEEE,comdat
	.align 2
	.type	_ZTSN7sigslot7signal3IP10GuiElementiiNS_15single_threadedEEE, @object
	.size	_ZTSN7sigslot7signal3IP10GuiElementiiNS_15single_threadedEEE, 57
_ZTSN7sigslot7signal3IP10GuiElementiiNS_15single_threadedEEE:
	.string	"N7sigslot7signal3IP10GuiElementiiNS_15single_threadedEEE"
	.weak	_ZN7sigslot15single_threadedD1Ev
	.set	_ZN7sigslot15single_threadedD1Ev,_ZN7sigslot15single_threadedD2Ev
	.weak	_ZN7sigslot12_signal_baseINS_15single_threadedEED1Ev
	.set	_ZN7sigslot12_signal_baseINS_15single_threadedEED1Ev,_ZN7sigslot12_signal_baseINS_15single_threadedEED2Ev
	.globl _ZN10GuiElementC1Ev
	.set	_ZN10GuiElementC1Ev,_ZN10GuiElementC2Ev
	.weak	_ZN7sigslot7signal3IP10GuiElementiiNS_15single_threadedEED1Ev
	.set	_ZN7sigslot7signal3IP10GuiElementiiNS_15single_threadedEED1Ev,_ZN7sigslot7signal3IP10GuiElementiiNS_15single_threadedEED2Ev
	.weak	_ZN7sigslot13_signal_base3IP10GuiElementiiNS_15single_threadedEED1Ev
	.set	_ZN7sigslot13_signal_base3IP10GuiElementiiNS_15single_threadedEED1Ev,_ZN7sigslot13_signal_base3IP10GuiElementiiNS_15single_threadedEED2Ev
	.weak	_ZN7sigslot13_signal_base2IP10GuiElementbNS_15single_threadedEED1Ev
	.set	_ZN7sigslot13_signal_base2IP10GuiElementbNS_15single_threadedEED1Ev,_ZN7sigslot13_signal_base2IP10GuiElementbNS_15single_threadedEED2Ev
	.weak	_ZN7sigslot7signal2IP10GuiElementbNS_15single_threadedEED1Ev
	.set	_ZN7sigslot7signal2IP10GuiElementbNS_15single_threadedEED1Ev,_ZN7sigslot7signal2IP10GuiElementbNS_15single_threadedEED2Ev
	.weak	_ZN10GuiElementD1Ev
	.set	_ZN10GuiElementD1Ev,_ZN10GuiElementD2Ev
	.section	.rodata.cst4,"aM",@progbits,4
	.align 2
.LC1:
	.4byte	1501560836
.LC2:
	.4byte	1132396544
.LC3:
	.4byte	1056964608
.LC4:
	.4byte	1065353216
.LC6:
	.4byte	1120403456
.LC7:
	.4byte	1008981770
.LC8:
	.4byte	981668463
	.section	".text"
.Letext0:
	.file 10 "d:\\devkitpro\\devkitppc\\bin\\../lib/gcc/powerpc-eabi/4.6.3/../../../../powerpc-eabi/include/stdint.h"
	.file 11 "d:/devkitPro/libogc/include/gctypes.h"
	.file 12 "d:/devkitPro/libogc/include/ogc/gx.h"
	.file 13 "d:\\devkitpro\\devkitppc\\bin\\../lib/gcc/powerpc-eabi/4.6.3/../../../../powerpc-eabi/include/machine/_types.h"
	.file 14 "d:\\devkitpro\\devkitppc\\bin\\../lib/gcc/powerpc-eabi/4.6.3/../../../../powerpc-eabi/include/sys/lock.h"
	.file 15 "d:\\devkitpro\\devkitppc\\bin\\../lib/gcc/powerpc-eabi/4.6.3/include/stddef.h"
	.file 16 "d:\\devkitpro\\devkitppc\\bin\\../lib/gcc/powerpc-eabi/4.6.3/../../../../powerpc-eabi/include/sys/_types.h"
	.file 17 "d:\\devkitpro\\devkitppc\\bin\\../lib/gcc/powerpc-eabi/4.6.3/../../../../powerpc-eabi/include/sys/reent.h"
	.file 18 "d:\\devkitpro\\devkitppc\\bin\\../lib/gcc/powerpc-eabi/4.6.3/../../../../powerpc-eabi/include/time.h"
	.file 19 "<built-in>"
	.file 20 "d:\\devkitpro\\devkitppc\\bin\\../lib/gcc/powerpc-eabi/4.6.3/../../../../powerpc-eabi/include/wchar.h"
	.file 21 "d:\\devkitpro\\devkitppc\\bin\\../lib/gcc/powerpc-eabi/4.6.3/../../../../powerpc-eabi/include/c++/4.6.3/cwchar"
	.file 22 "d:\\devkitpro\\devkitppc\\bin\\../lib/gcc/powerpc-eabi/4.6.3/../../../../powerpc-eabi/include/c++/4.6.3/powerpc-eabi/bits/c++config.h"
	.file 23 "d:\\devkitpro\\devkitppc\\bin\\../lib/gcc/powerpc-eabi/4.6.3/../../../../powerpc-eabi/include/c++/4.6.3/clocale"
	.file 24 "d:\\devkitpro\\devkitppc\\bin\\../lib/gcc/powerpc-eabi/4.6.3/../../../../powerpc-eabi/include/c++/4.6.3/bits/move.h"
	.file 25 "d:\\devkitpro\\devkitppc\\bin\\../lib/gcc/powerpc-eabi/4.6.3/../../../../powerpc-eabi/include/c++/4.6.3/bits/cpp_type_traits.h"
	.file 26 "d:\\devkitpro\\devkitppc\\bin\\../lib/gcc/powerpc-eabi/4.6.3/../../../../powerpc-eabi/include/c++/4.6.3/debug/debug.h"
	.file 27 "d:\\devkitpro\\devkitppc\\bin\\../lib/gcc/powerpc-eabi/4.6.3/../../../../powerpc-eabi/include/locale.h"
	.file 28 "d:\\devkitpro\\devkitppc\\bin\\../lib/gcc/powerpc-eabi/4.6.3/../../../../powerpc-eabi/include/c++/4.6.3/ext/numeric_traits.h"
	.file 29 "d:\\devkitpro\\devkitppc\\bin\\../lib/gcc/powerpc-eabi/4.6.3/../../../../powerpc-eabi/include/c++/4.6.3/bits/allocator.h"
	.file 30 "d:\\devkitpro\\devkitppc\\bin\\../lib/gcc/powerpc-eabi/4.6.3/../../../../powerpc-eabi/include/c++/4.6.3/bits/stl_function.h"
	.file 31 "d:\\devkitpro\\devkitppc\\bin\\../lib/gcc/powerpc-eabi/4.6.3/../../../../powerpc-eabi/include/c++/4.6.3/bits/stl_pair.h"
	.file 32 "d:\\devkitpro\\devkitppc\\bin\\../lib/gcc/powerpc-eabi/4.6.3/../../../../powerpc-eabi/include/c++/4.6.3/new"
	.file 33 "d:/Projects/SaveGameManager/savegame-manager-gx/trunk/source/GUI/../stdafx.h"