   1              		.file	"gui_frameimage.cpp"
   2              		.section	".text"
   3              	.Ltext0:
   4              		.section	.text._ZN7sigslot15single_threadedD2Ev,"axG",@progbits,_ZN7sigslot15single_threadedD5Ev,c
   5              		.align 2
   6              		.weak	_ZN7sigslot15single_threadedD2Ev
   7              		.type	_ZN7sigslot15single_threadedD2Ev, @function
   8              	_ZN7sigslot15single_threadedD2Ev:
   9              	.LFB1148:
  10              		.file 1 "d:/Projects/SaveGameManager/savegame-manager-gx/trunk/source/GUI/../sigslot.h"
  11              		.loc 1 104 0
  12              		.cfi_startproc
  13              	.LVL0:
  14              	.LBB1405:
  15              		.loc 1 105 0
  16 0000 3D200000 		lis 9,_ZTVN7sigslot15single_threadedE+8@ha
  17              	.LBE1405:
  18              		.loc 1 107 0
  19              	.LBB1406:
  20              		.loc 1 105 0
  21 0004 38090008 		la 0,_ZTVN7sigslot15single_threadedE+8@l(9)
  22 0008 90030000 		stw 0,0(3)
  23              	.LBE1406:
  24              		.loc 1 107 0
  25 000c 4E800020 		blr
  26              		.cfi_endproc
  27              	.LFE1148:
  28              		.size	_ZN7sigslot15single_threadedD2Ev, .-_ZN7sigslot15single_threadedD2Ev
  29              		.section	.text._ZN7sigslot15single_threaded4lockEv,"axG",@progbits,_ZN7sigslot15single_threaded4lo
  30              		.align 2
  31              		.weak	_ZN7sigslot15single_threaded4lockEv
  32              		.type	_ZN7sigslot15single_threaded4lockEv, @function
  33              	_ZN7sigslot15single_threaded4lockEv:
  34              	.LFB1151:
  35              		.loc 1 109 0
  36              		.cfi_startproc
  37              	.LVL1:
  38              		.loc 1 112 0
  39 0000 4E800020 		blr
  40              		.cfi_endproc
  41              	.LFE1151:
  42              		.size	_ZN7sigslot15single_threaded4lockEv, .-_ZN7sigslot15single_threaded4lockEv
  43              		.section	.text._ZN7sigslot15single_threaded6unlockEv,"axG",@progbits,_ZN7sigslot15single_threaded6
  44              		.align 2
  45              		.weak	_ZN7sigslot15single_threaded6unlockEv
  46              		.type	_ZN7sigslot15single_threaded6unlockEv, @function
  47              	_ZN7sigslot15single_threaded6unlockEv:
  48              	.LFB1152:
  49              		.loc 1 114 0
  50              		.cfi_startproc
  51              	.LVL2:
  52              		.loc 1 117 0
  53 0000 4E800020 		blr
  54              		.cfi_endproc
  55              	.LFE1152:
  56              		.size	_ZN7sigslot15single_threaded6unlockEv, .-_ZN7sigslot15single_threaded6unlockEv
  57              		.section	.text._ZN10GuiElement9SetParentEPS_,"axG",@progbits,_ZN10GuiElement9SetParentEPS_,comdat
  58              		.align 2
  59              		.weak	_ZN10GuiElement9SetParentEPS_
  60              		.type	_ZN10GuiElement9SetParentEPS_, @function
  61              	_ZN10GuiElement9SetParentEPS_:
  62              	.LFB1384:
  63              		.file 2 "d:/Projects/SaveGameManager/savegame-manager-gx/trunk/source/GUI/gui_element.h"
  64              		.loc 2 92 0
  65              		.cfi_startproc
  66              	.LVL3:
  67              		.loc 2 92 0
  68 0000 90830060 		stw 4,96(3)
  69 0004 4E800020 		blr
  70              		.cfi_endproc
  71              	.LFE1384:
  72              		.size	_ZN10GuiElement9SetParentEPS_, .-_ZN10GuiElement9SetParentEPS_
  73              		.section	.text._ZN10GuiElement9GetParentEv,"axG",@progbits,_ZN10GuiElement9GetParentEv,comdat
  74              		.align 2
  75              		.weak	_ZN10GuiElement9GetParentEv
  76              		.type	_ZN10GuiElement9GetParentEv, @function
  77              	_ZN10GuiElement9GetParentEv:
  78              	.LFB1385:
  79              		.loc 2 95 0
  80              		.cfi_startproc
  81              	.LVL4:
  82              		.loc 2 95 0
  83 0000 80630060 		lwz 3,96(3)
  84              	.LVL5:
  85 0004 4E800020 		blr
  86              		.cfi_endproc
  87              	.LFE1385:
  88              		.size	_ZN10GuiElement9GetParentEv, .-_ZN10GuiElement9GetParentEv
  89              		.section	.text._ZN10GuiElement12GetZPositionEv,"axG",@progbits,_ZN10GuiElement12GetZPositionEv,com
  90              		.align 2
  91              		.weak	_ZN10GuiElement12GetZPositionEv
  92              		.type	_ZN10GuiElement12GetZPositionEv, @function
  93              	_ZN10GuiElement12GetZPositionEv:
  94              	.LFB1386:
  95              		.loc 2 106 0
  96              		.cfi_startproc
  97              	.LVL6:
  98 0000 7C0802A6 		mflr 0
  99 0004 9421FFF0 		stwu 1,-16(1)
 100              	.LCFI0:
 101              		.cfi_def_cfa_offset 16
 102              		.cfi_register 65, 0
 103 0008 93E1000C 		stw 31,12(1)
 104 000c 7C7F1B78 		mr 31,3
 105              		.cfi_offset 31, -4
 106 0010 90010014 		stw 0,20(1)
 107              	.LBB1407:
 108              		.loc 2 110 0
 109 0014 81630060 		lwz 11,96(3)
 110              		.loc 2 108 0
 111 0018 38600000 		li 3,0
 112              	.LVL7:
 113              		.loc 2 110 0
 114 001c 2F8B0000 		cmpwi 7,11,0
 115 0020 419E0018 		beq- 7,.L8
 116              		.cfi_offset 65, 4
 117              		.loc 2 111 0
 118 0024 812B0000 		lwz 9,0(11)
 119 0028 7D635B78 		mr 3,11
 120 002c 80090018 		lwz 0,24(9)
 121 0030 7C0903A6 		mtctr 0
 122 0034 4E800421 		bctrl
 123              	.LVL8:
 124              	.L8:
 125              		.loc 2 113 0
 126 0038 801F0034 		lwz 0,52(31)
 127              	.LBE1407:
 128              		.loc 2 114 0
 129 003c 83E1000C 		lwz 31,12(1)
 130              	.LVL9:
 131 0040 7C630214 		add 3,3,0
 132              	.LVL10:
 133 0044 80010014 		lwz 0,20(1)
 134 0048 38210010 		addi 1,1,16
 135              	.LCFI1:
 136              		.cfi_def_cfa_offset 0
 137              		.cfi_restore 31
 138 004c 7C0803A6 		mtlr 0
 139 0050 4E800020 		blr
 140              		.cfi_endproc
 141              	.LFE1386:
 142              		.size	_ZN10GuiElement12GetZPositionEv, .-_ZN10GuiElement12GetZPositionEv
 143              		.section	.text._ZN10GuiElement10GetLeftPosEv,"axG",@progbits,_ZN10GuiElement10GetLeftPosEv,comdat
 144              		.align 2
 145              		.weak	_ZN10GuiElement10GetLeftPosEv
 146              		.type	_ZN10GuiElement10GetLeftPosEv, @function
 147              	_ZN10GuiElement10GetLeftPosEv:
 148              	.LFB1387:
 149              		.loc 2 116 0
 150              		.cfi_startproc
 151              	.LVL11:
 152              		.loc 2 116 0
 153 0000 8063002C 		lwz 3,44(3)
 154              	.LVL12:
 155 0004 4E800020 		blr
 156              		.cfi_endproc
 157              	.LFE1387:
 158              		.size	_ZN10GuiElement10GetLeftPosEv, .-_ZN10GuiElement10GetLeftPosEv
 159              		.section	.text._ZN10GuiElement9GetTopPosEv,"axG",@progbits,_ZN10GuiElement9GetTopPosEv,comdat
 160              		.align 2
 161              		.weak	_ZN10GuiElement9GetTopPosEv
 162              		.type	_ZN10GuiElement9GetTopPosEv, @function
 163              	_ZN10GuiElement9GetTopPosEv:
 164              	.LFB1388:
 165              		.loc 2 118 0
 166              		.cfi_startproc
 167              	.LVL13:
 168              		.loc 2 118 0
 169 0000 80630030 		lwz 3,48(3)
 170              	.LVL14:
 171 0004 4E800020 		blr
 172              		.cfi_endproc
 173              	.LFE1388:
 174              		.size	_ZN10GuiElement9GetTopPosEv, .-_ZN10GuiElement9GetTopPosEv
 175              		.section	.text._ZN10GuiElement8GetWidthEv,"axG",@progbits,_ZN10GuiElement8GetWidthEv,comdat
 176              		.align 2
 177              		.weak	_ZN10GuiElement8GetWidthEv
 178              		.type	_ZN10GuiElement8GetWidthEv, @function
 179              	_ZN10GuiElement8GetWidthEv:
 180              	.LFB1389:
 181              		.loc 2 121 0
 182              		.cfi_startproc
 183              	.LVL15:
 184              		.loc 2 121 0
 185 0000 80630024 		lwz 3,36(3)
 186              	.LVL16:
 187 0004 4E800020 		blr
 188              		.cfi_endproc
 189              	.LFE1389:
 190              		.size	_ZN10GuiElement8GetWidthEv, .-_ZN10GuiElement8GetWidthEv
 191              		.section	.text._ZN10GuiElement9GetHeightEv,"axG",@progbits,_ZN10GuiElement9GetHeightEv,comdat
 192              		.align 2
 193              		.weak	_ZN10GuiElement9GetHeightEv
 194              		.type	_ZN10GuiElement9GetHeightEv, @function
 195              	_ZN10GuiElement9GetHeightEv:
 196              	.LFB1390:
 197              		.loc 2 124 0
 198              		.cfi_startproc
 199              	.LVL17:
 200              		.loc 2 124 0
 201 0000 80630028 		lwz 3,40(3)
 202              	.LVL18:
 203 0004 4E800020 		blr
 204              		.cfi_endproc
 205              	.LFE1390:
 206              		.size	_ZN10GuiElement9GetHeightEv, .-_ZN10GuiElement9GetHeightEv
 207              		.section	.text._ZN10GuiElement7SetSizeEii,"axG",@progbits,_ZN10GuiElement7SetSizeEii,comdat
 208              		.align 2
 209              		.weak	_ZN10GuiElement7SetSizeEii
 210              		.type	_ZN10GuiElement7SetSizeEii, @function
 211              	_ZN10GuiElement7SetSizeEii:
 212              	.LFB1391:
 213              		.loc 2 128 0
 214              		.cfi_startproc
 215              	.LVL19:
 216              		.loc 2 130 0
 217 0000 90830024 		stw 4,36(3)
 218              		.loc 2 132 0
 219              		.loc 2 131 0
 220 0004 90A30028 		stw 5,40(3)
 221              		.loc 2 132 0
 222 0008 4E800020 		blr
 223              		.cfi_endproc
 224              	.LFE1391:
 225              		.size	_ZN10GuiElement7SetSizeEii, .-_ZN10GuiElement7SetSizeEii
 226              		.section	.text._ZN10GuiElement10SetVisibleEb,"axG",@progbits,_ZN10GuiElement10SetVisibleEb,comdat
 227              		.align 2
 228              		.weak	_ZN10GuiElement10SetVisibleEb
 229              		.type	_ZN10GuiElement10SetVisibleEb, @function
 230              	_ZN10GuiElement10SetVisibleEb:
 231              	.LFB1392:
 232              		.loc 2 135 0
 233              		.cfi_startproc
 234              		.cfi_personality 0,__gxx_personality_v0
 235              		.cfi_lsda 0,.LLSDA1392
 236              	.LVL20:
 237 0000 7C0802A6 		mflr 0
 238 0004 9421FFE0 		stwu 1,-32(1)
 239              	.LCFI2:
 240              		.cfi_def_cfa_offset 32
 241              		.cfi_register 65, 0
 242 0008 9361000C 		stw 27,12(1)
 243              	.LBB1408:
 244              	.LBB1409:
 245              		.loc 1 2270 0
 246 000c 3B630004 		addi 27,3,4
 247              		.cfi_offset 27, -20
 248              	.LBE1409:
 249              	.LBE1408:
 250              		.loc 2 135 0
 251 0010 90010024 		stw 0,36(1)
 252 0014 93C10018 		stw 30,24(1)
 253 0018 7C7E1B78 		mr 30,3
 254              		.cfi_offset 30, -8
 255              		.cfi_offset 65, 4
 256              	.LBB1432:
 257              	.LBB1426:
 258              	.LBB1410:
 259              	.LBB1411:
 260              		.loc 1 338 0
 261 001c 81230004 		lwz 9,4(3)
 262 0020 7F63DB78 		mr 3,27
 263              	.LVL21:
 264              	.LBE1411:
 265              	.LBE1410:
 266              	.LBE1426:
 267              	.LBE1432:
 268              		.loc 2 135 0
 269 0024 93810010 		stw 28,16(1)
 270 0028 7C9C2378 		mr 28,4
 271              		.cfi_offset 28, -16
 272              	.LBB1433:
 273              	.LBB1427:
 274              	.LBB1415:
 275              	.LBB1412:
 276              		.loc 1 338 0
 277 002c 80090008 		lwz 0,8(9)
 278              	.LBE1412:
 279              	.LBE1415:
 280              	.LBE1427:
 281              	.LBE1433:
 282              		.loc 2 135 0
 283 0030 93A10014 		stw 29,20(1)
 284              	.LBB1434:
 285              		.file 3 "d:/Projects/SaveGameManager/savegame-manager-gx/trunk/source/GUI/gui_frameimage.cpp"
 286              		.loc 3 302 0
 287 0034 7FDDF378 		mr 29,30
 288              		.cfi_offset 29, -12
 289              	.LBE1434:
 290              		.loc 2 135 0
 291 0038 93E1001C 		stw 31,28(1)
 292              	.LBB1435:
 293              	.LBB1428:
 294              	.LBB1416:
 295              	.LBB1413:
 296              		.loc 1 338 0
 297 003c 7C0903A6 		mtctr 0
 298              	.LBE1413:
 299              	.LBE1416:
 300              	.LBE1428:
 301              	.LBE1435:
 302              		.loc 2 137 0
 303 0040 989E001D 		stb 4,29(30)
 304              	.LVL22:
 305              	.LEHB0:
 306              	.LBB1436:
 307              	.LBB1429:
 308              	.LBB1417:
 309              	.LBB1414:
 310              		.loc 1 338 0
 311              		.cfi_offset 31, -4
 312 0044 4E800421 		bctrl
 313              	.LEHE0:
 314              	.LVL23:
 315              	.LBE1414:
 316              	.LBE1417:
 317              	.LBE1429:
 318              		.loc 3 302 0
 319 0048 87FD0008 		lwzu 31,8(29)
 320              	.LVL24:
 321              	.LBB1430:
 322              		.loc 1 2274 0
 323 004c 7F9FE800 		cmpw 7,31,29
 324 0050 419E002C 		beq- 7,.L17
 325              	.LVL25:
 326              	.L24:
 327              		.loc 1 2279 0
 328 0054 807F0008 		lwz 3,8(31)
 329 0058 7FC4F378 		mr 4,30
 330 005c 7F85E378 		mr 5,28
 331              	.LBB1418:
 332              	.LBB1419:
 333              		.file 4 "d:\\devkitpro\\devkitppc\\bin\\../lib/gcc/powerpc-eabi/4.6.3/../../../../powerpc-eabi/inc
 334              		.loc 4 234 0
 335 0060 83FF0000 		lwz 31,0(31)
 336              	.LVL26:
 337              	.LBE1419:
 338              	.LBE1418:
 339              		.loc 1 2279 0
 340 0064 81230000 		lwz 9,0(3)
 341 0068 8009000C 		lwz 0,12(9)
 342 006c 7C0903A6 		mtctr 0
 343              	.LEHB1:
 344 0070 4E800421 		bctrl
 345              	.LEHE1:
 346              	.LVL27:
 347              		.loc 1 2274 0
 348 0074 7F9DF800 		cmpw 7,29,31
 349 0078 409EFFDC 		bne+ 7,.L24
 350              	.LVL28:
 351              	.L17:
 352              	.LBB1420:
 353              	.LBB1421:
 354              	.LBB1422:
 355              		.loc 1 343 0
 356 007c 813E0004 		lwz 9,4(30)
 357 0080 7F63DB78 		mr 3,27
 358 0084 8009000C 		lwz 0,12(9)
 359 0088 7C0903A6 		mtctr 0
 360              	.LEHB2:
 361 008c 4E800421 		bctrl
 362              	.LEHE2:
 363              	.LBE1422:
 364              	.LBE1421:
 365              	.LBE1420:
 366              	.LBE1430:
 367              	.LBE1436:
 368              		.loc 2 139 0
 369 0090 80010024 		lwz 0,36(1)
 370 0094 8361000C 		lwz 27,12(1)
 371              	.LVL29:
 372 0098 7C0803A6 		mtlr 0
 373 009c 83810010 		lwz 28,16(1)
 374              	.LVL30:
 375 00a0 83A10014 		lwz 29,20(1)
 376 00a4 83C10018 		lwz 30,24(1)
 377              	.LVL31:
 378 00a8 83E1001C 		lwz 31,28(1)
 379              	.LVL32:
 380 00ac 38210020 		addi 1,1,32
 381              		.cfi_remember_state
 382              	.LCFI3:
 383              		.cfi_def_cfa_offset 0
 384              		.cfi_restore 31
 385              		.cfi_restore 30
 386              		.cfi_restore 29
 387              		.cfi_restore 28
 388              		.cfi_restore 27
 389 00b0 4E800020 		blr
 390              	.LVL33:
 391              	.L23:
 392              	.LCFI4:
 393              		.cfi_restore_state
 394              	.LBB1437:
 395              	.LBB1431:
 396              	.LBB1423:
 397              	.LBB1424:
 398              	.LBB1425:
 399              		.loc 1 343 0
 400 00b4 813E0004 		lwz 9,4(30)
 401 00b8 7C7F1B78 		mr 31,3
 402              	.LVL34:
 403 00bc 7F63DB78 		mr 3,27
 404 00c0 8009000C 		lwz 0,12(9)
 405 00c4 7C0903A6 		mtctr 0
 406 00c8 4E800421 		bctrl
 407 00cc 7FE3FB78 		mr 3,31
 408              	.LEHB3:
 409 00d0 48000001 		bl _Unwind_Resume
 410              	.LEHE3:
 411              	.LBE1425:
 412              	.LBE1424:
 413              	.LBE1423:
 414              	.LBE1431:
 415              	.LBE1437:
 416              		.cfi_endproc
 417              	.LFE1392:
 418              		.globl __gxx_personality_v0
 419              		.section	.gcc_except_table,"a",@progbits
 420              	.LLSDA1392:
 421 0000 FF       		.byte	0xff
 422 0001 FF       		.byte	0xff
 423 0002 01       		.byte	0x1
 424 0003 13       		.uleb128 .LLSDACSE1392-.LLSDACSB1392
 425              	.LLSDACSB1392:
 426 0004 44       		.uleb128 .LEHB0-.LFB1392
 427 0005 04       		.uleb128 .LEHE0-.LEHB0
 428 0006 00       		.uleb128 0
 429 0007 00       		.uleb128 0
 430 0008 70       		.uleb128 .LEHB1-.LFB1392
 431 0009 04       		.uleb128 .LEHE1-.LEHB1
 432 000a B401     		.uleb128 .L23-.LFB1392
 433 000c 00       		.uleb128 0
 434 000d 8C01     		.uleb128 .LEHB2-.LFB1392
 435 000f 04       		.uleb128 .LEHE2-.LEHB2
 436 0010 00       		.uleb128 0
 437 0011 00       		.uleb128 0
 438 0012 D001     		.uleb128 .LEHB3-.LFB1392
 439 0014 04       		.uleb128 .LEHE3-.LEHB3
 440 0015 00       		.uleb128 0
 441 0016 00       		.uleb128 0
 442              	.LLSDACSE1392:
 443              		.section	.text._ZN10GuiElement10SetVisibleEb,"axG",@progbits,_ZN10GuiElement10SetVisibleEb,comdat
 444              		.size	_ZN10GuiElement10SetVisibleEb, .-_ZN10GuiElement10SetVisibleEb
 445              		.section	.text._ZN10GuiElement9IsVisibleEv,"axG",@progbits,_ZN10GuiElement9IsVisibleEv,comdat
 446              		.align 2
 447              		.weak	_ZN10GuiElement9IsVisibleEv
 448              		.type	_ZN10GuiElement9IsVisibleEv, @function
 449              	_ZN10GuiElement9IsVisibleEv:
 450              	.LFB1393:
 451              		.loc 2 142 0
 452              		.cfi_startproc
 453              	.LVL35:
 454              		.loc 2 142 0
 455 0000 8863001D 		lbz 3,29(3)
 456              	.LVL36:
 457 0004 4E800020 		blr
 458              		.cfi_endproc
 459              	.LFE1393:
 460              		.size	_ZN10GuiElement9IsVisibleEv, .-_ZN10GuiElement9IsVisibleEv
 461              		.section	.text._ZN10GuiElement12IsSelectableEv,"axG",@progbits,_ZN10GuiElement12IsSelectableEv,com
 462              		.align 2
 463              		.weak	_ZN10GuiElement12IsSelectableEv
 464              		.type	_ZN10GuiElement12IsSelectableEv, @function
 465              	_ZN10GuiElement12IsSelectableEv:
 466              	.LFB1394:
 467              		.loc 2 145 0
 468              		.cfi_startproc
 469              	.LVL37:
 470              		.loc 2 149 0
 471 0000 80030048 		lwz 0,72(3)
 472 0004 39200000 		li 9,0
 473 0008 2F800004 		cmpwi 7,0,4
 474 000c 419E0010 		beq- 7,.L27
 475              		.loc 2 149 0 is_stmt 0 discriminator 1
 476 0010 2F800002 		cmpwi 7,0,2
 477 0014 419E0008 		beq- 7,.L27
 478              		.loc 2 149 0 discriminator 3
 479 0018 8923001E 		lbz 9,30(3)
 480              	.L27:
 481              		.loc 2 150 0 is_stmt 1 discriminator 5
 482 001c 7D234B78 		mr 3,9
 483              	.LVL38:
 484 0020 4E800020 		blr
 485              		.cfi_endproc
 486              	.LFE1394:
 487              		.size	_ZN10GuiElement12IsSelectableEv, .-_ZN10GuiElement12IsSelectableEv
 488              		.section	.text._ZN10GuiElement11IsClickableEv,"axG",@progbits,_ZN10GuiElement11IsClickableEv,comda
 489              		.align 2
 490              		.weak	_ZN10GuiElement11IsClickableEv
 491              		.type	_ZN10GuiElement11IsClickableEv, @function
 492              	_ZN10GuiElement11IsClickableEv:
 493              	.LFB1395:
 494              		.loc 2 153 0
 495              		.cfi_startproc
 496              	.LVL39:
 497              		.loc 2 158 0
 498 0000 80030048 		lwz 0,72(3)
 499 0004 39200000 		li 9,0
 500 0008 2F800004 		cmpwi 7,0,4
 501 000c 419E0018 		beq- 7,.L31
 502              		.loc 2 158 0 is_stmt 0 discriminator 1
 503 0010 2F800002 		cmpwi 7,0,2
 504 0014 419E0010 		beq- 7,.L31
 505              		.loc 2 158 0 discriminator 3
 506 0018 2F800003 		cmpwi 7,0,3
 507 001c 419E0008 		beq- 7,.L31
 508              		.loc 2 158 0 discriminator 4
 509 0020 8923001F 		lbz 9,31(3)
 510              	.L31:
 511              		.loc 2 159 0 is_stmt 1 discriminator 6
 512 0024 7D234B78 		mr 3,9
 513              	.LVL40:
 514 0028 4E800020 		blr
 515              		.cfi_endproc
 516              	.LFE1395:
 517              		.size	_ZN10GuiElement11IsClickableEv, .-_ZN10GuiElement11IsClickableEv
 518              		.section	.text._ZN10GuiElement10IsHoldableEv,"axG",@progbits,_ZN10GuiElement10IsHoldableEv,comdat
 519              		.align 2
 520              		.weak	_ZN10GuiElement10IsHoldableEv
 521              		.type	_ZN10GuiElement10IsHoldableEv, @function
 522              	_ZN10GuiElement10IsHoldableEv:
 523              	.LFB1396:
 524              		.loc 2 162 0
 525              		.cfi_startproc
 526              	.LVL41:
 527              		.loc 2 162 0
 528 0000 81230048 		lwz 9,72(3)
 529 0004 38000000 		li 0,0
 530 0008 2F890004 		cmpwi 7,9,4
 531 000c 419E0008 		beq- 7,.L36
 532              		.loc 2 162 0 is_stmt 0 discriminator 1
 533 0010 88030020 		lbz 0,32(3)
 534              	.L36:
 535              		.loc 2 162 0 discriminator 4
 536 0014 7C030378 		mr 3,0
 537              	.LVL42:
 538 0018 4E800020 		blr
 539              		.cfi_endproc
 540              	.LFE1396:
 541              		.size	_ZN10GuiElement10IsHoldableEv, .-_ZN10GuiElement10IsHoldableEv
 542              		.section	.text._ZN10GuiElement13SetSelectableEb,"axG",@progbits,_ZN10GuiElement13SetSelectableEb,c
 543              		.align 2
 544              		.weak	_ZN10GuiElement13SetSelectableEb
 545              		.type	_ZN10GuiElement13SetSelectableEb, @function
 546              	_ZN10GuiElement13SetSelectableEb:
 547              	.LFB1397:
 548              		.loc 2 165 0 is_stmt 1
 549              		.cfi_startproc
 550              	.LVL43:
 551              		.loc 2 165 0
 552 0000 9883001E 		stb 4,30(3)
 553 0004 4E800020 		blr
 554              		.cfi_endproc
 555              	.LFE1397:
 556              		.size	_ZN10GuiElement13SetSelectableEb, .-_ZN10GuiElement13SetSelectableEb
 557              		.section	.text._ZN10GuiElement12SetClickableEb,"axG",@progbits,_ZN10GuiElement12SetClickableEb,com
 558              		.align 2
 559              		.weak	_ZN10GuiElement12SetClickableEb
 560              		.type	_ZN10GuiElement12SetClickableEb, @function
 561              	_ZN10GuiElement12SetClickableEb:
 562              	.LFB1398:
 563              		.loc 2 168 0
 564              		.cfi_startproc
 565              	.LVL44:
 566              		.loc 2 168 0
 567 0000 9883001F 		stb 4,31(3)
 568 0004 4E800020 		blr
 569              		.cfi_endproc
 570              	.LFE1398:
 571              		.size	_ZN10GuiElement12SetClickableEb, .-_ZN10GuiElement12SetClickableEb
 572              		.section	.text._ZN10GuiElement11SetHoldableEb,"axG",@progbits,_ZN10GuiElement11SetHoldableEb,comda
 573              		.align 2
 574              		.weak	_ZN10GuiElement11SetHoldableEb
 575              		.type	_ZN10GuiElement11SetHoldableEb, @function
 576              	_ZN10GuiElement11SetHoldableEb:
 577              	.LFB1399:
 578              		.loc 2 171 0
 579              		.cfi_startproc
 580              	.LVL45:
 581              		.loc 2 171 0
 582 0000 98830020 		stb 4,32(3)
 583 0004 4E800020 		blr
 584              		.cfi_endproc
 585              	.LFE1399:
 586              		.size	_ZN10GuiElement11SetHoldableEb, .-_ZN10GuiElement11SetHoldableEb
 587              		.section	.text._ZN10GuiElement8GetStateEv,"axG",@progbits,_ZN10GuiElement8GetStateEv,comdat
 588              		.align 2
 589              		.weak	_ZN10GuiElement8GetStateEv
 590              		.type	_ZN10GuiElement8GetStateEv, @function
 591              	_ZN10GuiElement8GetStateEv:
 592              	.LFB1400:
 593              		.loc 2 178 0
 594              		.cfi_startproc
 595              	.LVL46:
 596              		.loc 2 178 0
 597 0000 80630048 		lwz 3,72(3)
 598              	.LVL47:
 599 0004 4E800020 		blr
 600              		.cfi_endproc
 601              	.LFE1400:
 602              		.size	_ZN10GuiElement8GetStateEv, .-_ZN10GuiElement8GetStateEv
 603              		.section	.text._ZN10GuiElement12GetStateChanEv,"axG",@progbits,_ZN10GuiElement12GetStateChanEv,com
 604              		.align 2
 605              		.weak	_ZN10GuiElement12GetStateChanEv
 606              		.type	_ZN10GuiElement12GetStateChanEv, @function
 607              	_ZN10GuiElement12GetStateChanEv:
 608              	.LFB1401:
 609              		.loc 2 181 0
 610              		.cfi_startproc
 611              	.LVL48:
 612              		.loc 2 181 0
 613 0000 8063004C 		lwz 3,76(3)
 614              	.LVL49:
 615 0004 4E800020 		blr
 616              		.cfi_endproc
 617              	.LFE1401:
 618              		.size	_ZN10GuiElement12GetStateChanEv, .-_ZN10GuiElement12GetStateChanEv
 619              		.section	.text._ZN10GuiElement8SetAlphaEi,"axG",@progbits,_ZN10GuiElement8SetAlphaEi,comdat
 620              		.align 2
 621              		.weak	_ZN10GuiElement8SetAlphaEi
 622              		.type	_ZN10GuiElement8SetAlphaEi, @function
 623              	_ZN10GuiElement8SetAlphaEi:
 624              	.LFB1403:
 625              		.loc 2 190 0
 626              		.cfi_startproc
 627              	.LVL50:
 628              		.loc 2 190 0
 629 0000 90830038 		stw 4,56(3)
 630 0004 4E800020 		blr
 631              		.cfi_endproc
 632              	.LFE1403:
 633              		.size	_ZN10GuiElement8SetAlphaEi, .-_ZN10GuiElement8SetAlphaEi
 634              		.section	.text._ZN10GuiElement8GetAlphaEv,"axG",@progbits,_ZN10GuiElement8GetAlphaEv,comdat
 635              		.align 2
 636              		.weak	_ZN10GuiElement8GetAlphaEv
 637              		.type	_ZN10GuiElement8GetAlphaEv, @function
 638              	_ZN10GuiElement8GetAlphaEv:
 639              	.LFB1404:
 640              		.loc 2 194 0
 641              		.cfi_startproc
 642              	.LVL51:
 643 0000 7C0802A6 		mflr 0
 644 0004 9421FFD8 		stwu 1,-40(1)
 645              	.LCFI5:
 646              		.cfi_def_cfa_offset 40
 647              		.cfi_register 65, 0
 648 0008 93E10024 		stw 31,36(1)
 649 000c 9001002C 		stw 0,44(1)
 650              	.LBB1438:
 651              		.loc 2 198 0
 652 0010 83E3006C 		lwz 31,108(3)
 653              		.cfi_offset 65, 4
 654              		.cfi_offset 31, -4
 655 0014 2F9F0000 		cmpwi 7,31,0
 656 0018 419C0094 		blt- 7,.L47
 657              	.L45:
 658              	.LVL52:
 659              		.loc 2 203 0
 660 001c 80630060 		lwz 3,96(3)
 661              	.LVL53:
 662 0020 2F830000 		cmpwi 7,3,0
 663 0024 419E0070 		beq- 7,.L46
 664              		.loc 2 204 0
 665 0028 81230000 		lwz 9,0(3)
 666 002c 6FFF8000 		xoris 31,31,0x8000
 667              	.LVL54:
 668 0030 80090064 		lwz 0,100(9)
 669 0034 7C0903A6 		mtctr 0
 670 0038 4E800421 		bctrl
 671 003c 3C004330 		lis 0,0x4330
 672 0040 6C638000 		xoris 3,3,0x8000
 673 0044 90010010 		stw 0,16(1)
 674 0048 90610014 		stw 3,20(1)
 675 004c 3D200000 		lis 9,.LC1@ha
 676 0050 C0090000 		lfs 0,.LC1@l(9)
 677 0054 3D200000 		lis 9,.LC2@ha
 678 0058 C9A10010 		lfd 13,16(1)
 679 005c C1890004 		lfs 12,.LC2@l(9)
 680 0060 39210018 		addi 9,1,24
 681 0064 FDAD0028 		fsub 13,13,0
 682 0068 93E1000C 		stw 31,12(1)
 683 006c 90010008 		stw 0,8(1)
 684 0070 FDA06818 		frsp 13,13
 685 0074 EDAD6024 		fdivs 13,13,12
 686 0078 C9810008 		lfd 12,8(1)
 687 007c FC0C0028 		fsub 0,12,0
 688 0080 FC000018 		frsp 0,0
 689 0084 EC000372 		fmuls 0,0,13
 690 0088 FC00001E 		fctiwz 0,0
 691 008c 7C004FAE 		stfiwx 0,0,9
 692 0090 83E10018 		lwz 31,24(1)
 693              	.LVL55:
 694              	.L46:
 695              	.LBE1438:
 696              		.loc 2 207 0
 697 0094 8001002C 		lwz 0,44(1)
 698 0098 7FE3FB78 		mr 3,31
 699 009c 83E10024 		lwz 31,36(1)
 700              	.LVL56:
 701 00a0 7C0803A6 		mtlr 0
 702 00a4 38210028 		addi 1,1,40
 703              		.cfi_remember_state
 704              	.LCFI6:
 705              		.cfi_def_cfa_offset 0
 706              		.cfi_restore 31
 707 00a8 4E800020 		blr
 708              	.LVL57:
 709              	.L47:
 710              	.LCFI7:
 711              		.cfi_restore_state
 712              	.LBB1439:
 713              		.loc 2 201 0
 714 00ac 83E30038 		lwz 31,56(3)
 715              	.LVL58:
 716 00b0 4BFFFF6C 		b .L45
 717              	.LBE1439:
 718              		.cfi_endproc
 719              	.LFE1404:
 720              		.size	_ZN10GuiElement8GetAlphaEv, .-_ZN10GuiElement8GetAlphaEv
 721              		.section	.text._ZN10GuiElement8SetScaleEf,"axG",@progbits,_ZN10GuiElement8SetScaleEf,comdat
 722              		.align 2
 723              		.weak	_ZN10GuiElement8SetScaleEf
 724              		.type	_ZN10GuiElement8SetScaleEf, @function
 725              	_ZN10GuiElement8SetScaleEf:
 726              	.LFB1405:
 727              		.loc 2 210 0
 728              		.cfi_startproc
 729              	.LVL59:
 730              		.loc 2 212 0
 731 0000 D023003C 		stfs 1,60(3)
 732              		.loc 2 214 0
 733              		.loc 2 213 0
 734 0004 D0230040 		stfs 1,64(3)
 735              		.loc 2 214 0
 736 0008 4E800020 		blr
 737              		.cfi_endproc
 738              	.LFE1405:
 739              		.size	_ZN10GuiElement8SetScaleEf, .-_ZN10GuiElement8SetScaleEf
 740              		.section	.text._ZN10GuiElement9SetScaleXEf,"axG",@progbits,_ZN10GuiElement9SetScaleXEf,comdat
 741              		.align 2
 742              		.weak	_ZN10GuiElement9SetScaleXEf
 743              		.type	_ZN10GuiElement9SetScaleXEf, @function
 744              	_ZN10GuiElement9SetScaleXEf:
 745              	.LFB1406:
 746              		.loc 2 217 0
 747              		.cfi_startproc
 748              	.LVL60:
 749              		.loc 2 217 0
 750 0000 D023003C 		stfs 1,60(3)
 751 0004 4E800020 		blr
 752              		.cfi_endproc
 753              	.LFE1406:
 754              		.size	_ZN10GuiElement9SetScaleXEf, .-_ZN10GuiElement9SetScaleXEf
 755              		.section	.text._ZN10GuiElement9SetScaleYEf,"axG",@progbits,_ZN10GuiElement9SetScaleYEf,comdat
 756              		.align 2
 757              		.weak	_ZN10GuiElement9SetScaleYEf
 758              		.type	_ZN10GuiElement9SetScaleYEf, @function
 759              	_ZN10GuiElement9SetScaleYEf:
 760              	.LFB1407:
 761              		.loc 2 220 0
 762              		.cfi_startproc
 763              	.LVL61:
 764              		.loc 2 220 0
 765 0000 D0230040 		stfs 1,64(3)
 766 0004 4E800020 		blr
 767              		.cfi_endproc
 768              	.LFE1407:
 769              		.size	_ZN10GuiElement9SetScaleYEf, .-_ZN10GuiElement9SetScaleYEf
 770              		.section	.text._ZN10GuiElement8GetScaleEv,"axG",@progbits,_ZN10GuiElement8GetScaleEv,comdat
 771              		.align 2
 772              		.weak	_ZN10GuiElement8GetScaleEv
 773              		.type	_ZN10GuiElement8GetScaleEv, @function
 774              	_ZN10GuiElement8GetScaleEv:
 775              	.LFB1408:
 776              		.loc 2 223 0
 777              		.cfi_startproc
 778              	.LVL62:
 779 0000 7C0802A6 		mflr 0
 780 0004 9421FFF0 		stwu 1,-16(1)
 781              	.LCFI8:
 782              		.cfi_def_cfa_offset 16
 783              		.cfi_register 65, 0
 784              	.LBB1440:
 785              		.loc 2 225 0
 786 0008 3D200000 		lis 9,.LC3@ha
 787              	.LBE1440:
 788              		.loc 2 223 0
 789 000c DBE10008 		stfd 31,8(1)
 790 0010 90010014 		stw 0,20(1)
 791              	.LBB1441:
 792              		.loc 2 225 0
 793 0014 C0030040 		lfs 0,64(3)
 794 0018 C3E3003C 		lfs 31,60(3)
 795              		.cfi_offset 65, 4
 796              		.cfi_offset 63, -8
 797              		.loc 2 227 0
 798 001c 81630060 		lwz 11,96(3)
 799              		.loc 2 225 0
 800 0020 EFFF002A 		fadds 31,31,0
 801 0024 C0090008 		lfs 0,.LC3@l(9)
 802              		.loc 2 227 0
 803 0028 2F8B0000 		cmpwi 7,11,0
 804              		.loc 2 225 0
 805 002c EFFF0032 		fmuls 31,31,0
 806 0030 C0030070 		lfs 0,112(3)
 807 0034 EFFF0032 		fmuls 31,31,0
 808              	.LVL63:
 809              		.loc 2 227 0
 810 0038 419E001C 		beq- 7,.L52
 811              		.loc 2 228 0
 812 003c 812B0000 		lwz 9,0(11)
 813 0040 7D635B78 		mr 3,11
 814              	.LVL64:
 815 0044 80090074 		lwz 0,116(9)
 816 0048 7C0903A6 		mtctr 0
 817 004c 4E800421 		bctrl
 818 0050 EFFF0072 		fmuls 31,31,1
 819              	.LVL65:
 820              	.L52:
 821              	.LBE1441:
 822              		.loc 2 231 0
 823 0054 80010014 		lwz 0,20(1)
 824 0058 FC20F890 		fmr 1,31
 825 005c CBE10008 		lfd 31,8(1)
 826              	.LVL66:
 827 0060 7C0803A6 		mtlr 0
 828 0064 38210010 		addi 1,1,16
 829              	.LCFI9:
 830              		.cfi_def_cfa_offset 0
 831              		.cfi_restore 63
 832 0068 4E800020 		blr
 833              		.cfi_endproc
 834              	.LFE1408:
 835              		.size	_ZN10GuiElement8GetScaleEv, .-_ZN10GuiElement8GetScaleEv
 836              		.section	.text._ZN10GuiElement9GetScaleXEv,"axG",@progbits,_ZN10GuiElement9GetScaleXEv,comdat
 837              		.align 2
 838              		.weak	_ZN10GuiElement9GetScaleXEv
 839              		.type	_ZN10GuiElement9GetScaleXEv, @function
 840              	_ZN10GuiElement9GetScaleXEv:
 841              	.LFB1409:
 842              		.loc 2 234 0
 843              		.cfi_startproc
 844              	.LVL67:
 845 0000 7C0802A6 		mflr 0
 846 0004 9421FFF0 		stwu 1,-16(1)
 847              	.LCFI10:
 848              		.cfi_def_cfa_offset 16
 849              		.cfi_register 65, 0
 850 0008 DBE10008 		stfd 31,8(1)
 851 000c 90010014 		stw 0,20(1)
 852              	.LBB1442:
 853              		.loc 2 238 0
 854 0010 81630060 		lwz 11,96(3)
 855              		.loc 2 236 0
 856 0014 C3E3003C 		lfs 31,60(3)
 857              		.cfi_offset 65, 4
 858              		.cfi_offset 63, -8
 859              		.loc 2 238 0
 860 0018 2F8B0000 		cmpwi 7,11,0
 861              		.loc 2 236 0
 862 001c C0030070 		lfs 0,112(3)
 863 0020 EFFF0032 		fmuls 31,31,0
 864              	.LVL68:
 865              		.loc 2 238 0
 866 0024 419E001C 		beq- 7,.L54
 867              		.loc 2 239 0
 868 0028 812B0000 		lwz 9,0(11)
 869 002c 7D635B78 		mr 3,11
 870              	.LVL69:
 871 0030 80090078 		lwz 0,120(9)
 872 0034 7C0903A6 		mtctr 0
 873 0038 4E800421 		bctrl
 874 003c EFFF0072 		fmuls 31,31,1
 875              	.LVL70:
 876              	.L54:
 877              	.LBE1442:
 878              		.loc 2 242 0
 879 0040 80010014 		lwz 0,20(1)
 880 0044 FC20F890 		fmr 1,31
 881 0048 CBE10008 		lfd 31,8(1)
 882              	.LVL71:
 883 004c 7C0803A6 		mtlr 0
 884 0050 38210010 		addi 1,1,16
 885              	.LCFI11:
 886              		.cfi_def_cfa_offset 0
 887              		.cfi_restore 63
 888 0054 4E800020 		blr
 889              		.cfi_endproc
 890              	.LFE1409:
 891              		.size	_ZN10GuiElement9GetScaleXEv, .-_ZN10GuiElement9GetScaleXEv
 892              		.section	.text._ZN10GuiElement9GetScaleYEv,"axG",@progbits,_ZN10GuiElement9GetScaleYEv,comdat
 893              		.align 2
 894              		.weak	_ZN10GuiElement9GetScaleYEv
 895              		.type	_ZN10GuiElement9GetScaleYEv, @function
 896              	_ZN10GuiElement9GetScaleYEv:
 897              	.LFB1410:
 898              		.loc 2 245 0
 899              		.cfi_startproc
 900              	.LVL72:
 901 0000 7C0802A6 		mflr 0
 902 0004 9421FFF0 		stwu 1,-16(1)
 903              	.LCFI12:
 904              		.cfi_def_cfa_offset 16
 905              		.cfi_register 65, 0
 906 0008 DBE10008 		stfd 31,8(1)
 907 000c 90010014 		stw 0,20(1)
 908              	.LBB1443:
 909              		.loc 2 249 0
 910 0010 81630060 		lwz 11,96(3)
 911              		.loc 2 247 0
 912 0014 C3E30040 		lfs 31,64(3)
 913              		.cfi_offset 65, 4
 914              		.cfi_offset 63, -8
 915              		.loc 2 249 0
 916 0018 2F8B0000 		cmpwi 7,11,0
 917              		.loc 2 247 0
 918 001c C0030070 		lfs 0,112(3)
 919 0020 EFFF0032 		fmuls 31,31,0
 920              	.LVL73:
 921              		.loc 2 249 0
 922 0024 419E001C 		beq- 7,.L56
 923              		.loc 2 250 0
 924 0028 812B0000 		lwz 9,0(11)
 925 002c 7D635B78 		mr 3,11
 926              	.LVL74:
 927 0030 8009007C 		lwz 0,124(9)
 928 0034 7C0903A6 		mtctr 0
 929 0038 4E800421 		bctrl
 930 003c EFFF0072 		fmuls 31,31,1
 931              	.LVL75:
 932              	.L56:
 933              	.LBE1443:
 934              		.loc 2 253 0
 935 0040 80010014 		lwz 0,20(1)
 936 0044 FC20F890 		fmr 1,31
 937 0048 CBE10008 		lfd 31,8(1)
 938              	.LVL76:
 939 004c 7C0803A6 		mtlr 0
 940 0050 38210010 		addi 1,1,16
 941              	.LCFI13:
 942              		.cfi_def_cfa_offset 0
 943              		.cfi_restore 63
 944 0054 4E800020 		blr
 945              		.cfi_endproc
 946              	.LFE1410:
 947              		.size	_ZN10GuiElement9GetScaleYEv, .-_ZN10GuiElement9GetScaleYEv
 948              		.section	.text._ZN10GuiElement6RumbleEv,"axG",@progbits,_ZN10GuiElement6RumbleEv,comdat
 949              		.align 2
 950              		.weak	_ZN10GuiElement6RumbleEv
 951              		.type	_ZN10GuiElement6RumbleEv, @function
 952              	_ZN10GuiElement6RumbleEv:
 953              	.LFB1411:
 954              		.loc 2 256 0
 955              		.cfi_startproc
 956              	.LVL77:
 957              		.loc 2 256 0
 958 0000 8863001C 		lbz 3,28(3)
 959              	.LVL78:
 960 0004 4E800020 		blr
 961              		.cfi_endproc
 962              	.LFE1411:
 963              		.size	_ZN10GuiElement6RumbleEv, .-_ZN10GuiElement6RumbleEv
 964              		.section	.text._ZN10GuiElement9SetRumbleEb,"axG",@progbits,_ZN10GuiElement9SetRumbleEb,comdat
 965              		.align 2
 966              		.weak	_ZN10GuiElement9SetRumbleEb
 967              		.type	_ZN10GuiElement9SetRumbleEb, @function
 968              	_ZN10GuiElement9SetRumbleEb:
 969              	.LFB1412:
 970              		.loc 2 259 0
 971              		.cfi_startproc
 972              	.LVL79:
 973              		.loc 2 259 0
 974 0000 9883001C 		stb 4,28(3)
 975 0004 4E800020 		blr
 976              		.cfi_endproc
 977              	.LFE1412:
 978              		.size	_ZN10GuiElement9SetRumbleEb, .-_ZN10GuiElement9SetRumbleEb
 979              		.section	.text._ZN10GuiElement13SetEffectGrowEv,"axG",@progbits,_ZN10GuiElement13SetEffectGrowEv,c
 980              		.align 2
 981              		.weak	_ZN10GuiElement13SetEffectGrowEv
 982              		.type	_ZN10GuiElement13SetEffectGrowEv, @function
 983              	_ZN10GuiElement13SetEffectGrowEv:
 984              	.LFB1413:
 985              		.loc 2 271 0
 986              		.cfi_startproc
 987              	.LVL80:
 988 0000 7C0802A6 		mflr 0
 989 0004 9421FFF8 		stwu 1,-8(1)
 990              	.LCFI14:
 991              		.cfi_def_cfa_offset 8
 992              		.cfi_register 65, 0
 993 0008 81230000 		lwz 9,0(3)
 994 000c 38800100 		li 4,256
 995 0010 38A00004 		li 5,4
 996 0014 38C0006E 		li 6,110
 997 0018 9001000C 		stw 0,12(1)
 998              		.loc 2 271 0
 999 001c 8009008C 		lwz 0,140(9)
 1000              		.cfi_offset 65, 4
 1001 0020 7C0903A6 		mtctr 0
 1002 0024 4E800421 		bctrl
 1003              	.LVL81:
 1004 0028 8001000C 		lwz 0,12(1)
 1005 002c 38210008 		addi 1,1,8
 1006              	.LCFI15:
 1007              		.cfi_def_cfa_offset 0
 1008 0030 7C0803A6 		mtlr 0
 1009 0034 4E800020 		blr
 1010              		.cfi_endproc
 1011              	.LFE1413:
 1012              		.size	_ZN10GuiElement13SetEffectGrowEv, .-_ZN10GuiElement13SetEffectGrowEv
 1013              		.section	.text._ZNK10GuiElement9GetEffectEv,"axG",@progbits,_ZNK10GuiElement9GetEffectEv,comdat
 1014              		.align 2
 1015              		.weak	_ZNK10GuiElement9GetEffectEv
 1016              		.type	_ZNK10GuiElement9GetEffectEv, @function
 1017              	_ZNK10GuiElement9GetEffectEv:
 1018              	.LFB1414:
 1019              		.loc 2 276 0
 1020              		.cfi_startproc
 1021              	.LVL82:
 1022              		.loc 2 276 0
 1023 0000 80630078 		lwz 3,120(3)
 1024              	.LVL83:
 1025 0004 4E800020 		blr
 1026              		.cfi_endproc
 1027              	.LFE1414:
 1028              		.size	_ZNK10GuiElement9GetEffectEv, .-_ZNK10GuiElement9GetEffectEv
 1029              		.section	.text._ZNK10GuiElement10IsAnimatedEv,"axG",@progbits,_ZNK10GuiElement10IsAnimatedEv,comda
 1030              		.align 2
 1031              		.weak	_ZNK10GuiElement10IsAnimatedEv
 1032              		.type	_ZNK10GuiElement10IsAnimatedEv, @function
 1033              	_ZNK10GuiElement10IsAnimatedEv:
 1034              	.LFB1415:
 1035              		.loc 2 278 0
 1036              		.cfi_startproc
 1037              	.LVL84:
 1038 0000 7C0802A6 		mflr 0
 1039 0004 9421FFF8 		stwu 1,-8(1)
 1040              	.LCFI16:
 1041              		.cfi_def_cfa_offset 8
 1042              		.cfi_register 65, 0
 1043 0008 9001000C 		stw 0,12(1)
 1044              		.loc 2 278 0
 1045 000c 81230000 		lwz 9,0(3)
 1046 0010 80090098 		lwz 0,152(9)
 1047              		.cfi_offset 65, 4
 1048 0014 7C0903A6 		mtctr 0
 1049 0018 4E800421 		bctrl
 1050              	.LVL85:
 1051 001c 7C60FE70 		srawi 0,3,31
 1052 0020 7C630050 		subf 3,3,0
 1053 0024 8001000C 		lwz 0,12(1)
 1054 0028 54630FFE 		srwi 3,3,31
 1055 002c 7C0803A6 		mtlr 0
 1056 0030 38210008 		addi 1,1,8
 1057              	.LCFI17:
 1058              		.cfi_def_cfa_offset 0
 1059 0034 4E800020 		blr
 1060              		.cfi_endproc
 1061              	.LFE1415:
 1062              		.size	_ZNK10GuiElement10IsAnimatedEv, .-_ZNK10GuiElement10IsAnimatedEv
 1063              		.section	.text._ZN10GuiElement9SetBoundsE4RectIiE,"axG",@progbits,_ZN10GuiElement9SetBoundsE4RectI
 1064              		.align 2
 1065              		.weak	_ZN10GuiElement9SetBoundsE4RectIiE
 1066              		.type	_ZN10GuiElement9SetBoundsE4RectIiE, @function
 1067              	_ZN10GuiElement9SetBoundsE4RectIiE:
 1068              	.LFB1416:
 1069              		.loc 2 280 0
 1070              		.cfi_startproc
 1071              	.LVL86:
 1072              	.LBB1444:
 1073              	.LBB1445:
 1074              		.file 5 "d:/Projects/SaveGameManager/savegame-manager-gx/trunk/source/GUI/../Tools/Rect.h"
 1075              		.loc 5 30 0
 1076 0000 81440000 		lwz 10,0(4)
 1077              	.LBE1445:
 1078              	.LBE1444:
 1079              		.loc 2 280 0
 1080              	.LBB1447:
 1081              	.LBB1446:
 1082              		.loc 5 31 0
 1083 0004 81640008 		lwz 11,8(4)
 1084              		.loc 5 32 0
 1085 0008 81240004 		lwz 9,4(4)
 1086              		.loc 5 33 0
 1087 000c 8004000C 		lwz 0,12(4)
 1088              	.LVL87:
 1089              		.loc 5 30 0
 1090 0010 91430050 		stw 10,80(3)
 1091              		.loc 5 31 0
 1092 0014 91630058 		stw 11,88(3)
 1093              		.loc 5 32 0
 1094 0018 91230054 		stw 9,84(3)
 1095              		.loc 5 33 0
 1096 001c 9003005C 		stw 0,92(3)
 1097              	.LBE1446:
 1098              	.LBE1447:
 1099              		.loc 2 280 0
 1100 0020 4E800020 		blr
 1101              		.cfi_endproc
 1102              	.LFE1416:
 1103              		.size	_ZN10GuiElement9SetBoundsE4RectIiE, .-_ZN10GuiElement9SetBoundsE4RectIiE
 1104              		.section	.text._ZN10GuiElement8IsInsideEii,"axG",@progbits,_ZN10GuiElement8IsInsideEii,comdat
 1105              		.align 2
 1106              		.weak	_ZN10GuiElement8IsInsideEii
 1107              		.type	_ZN10GuiElement8IsInsideEii, @function
 1108              	_ZN10GuiElement8IsInsideEii:
 1109              	.LFB1417:
 1110              		.loc 2 285 0
 1111              		.cfi_startproc
 1112              	.LVL88:
 1113 0000 7C0802A6 		mflr 0
 1114 0004 9421FFE8 		stwu 1,-24(1)
 1115              	.LCFI18:
 1116              		.cfi_def_cfa_offset 24
 1117              		.cfi_register 65, 0
 1118 0008 93810008 		stw 28,8(1)
 1119 000c 7CBC2B78 		mr 28,5
 1120              		.cfi_offset 28, -16
 1121 0010 9001001C 		stw 0,28(1)
 1122 0014 93A1000C 		stw 29,12(1)
 1123              		.loc 2 290 0
 1124 0018 3BA00000 		li 29,0
 1125              		.cfi_offset 29, -12
 1126              		.cfi_offset 65, 4
 1127              		.loc 2 287 0
 1128 001c 81230000 		lwz 9,0(3)
 1129              		.loc 2 285 0
 1130 0020 93C10010 		stw 30,16(1)
 1131 0024 7C9E2378 		mr 30,4
 1132              		.cfi_offset 30, -8
 1133              		.loc 2 287 0
 1134 0028 80090010 		lwz 0,16(9)
 1135              		.loc 2 285 0
 1136 002c 93E10014 		stw 31,20(1)
 1137              		.loc 2 285 0
 1138 0030 7C7F1B78 		mr 31,3
 1139              		.cfi_offset 31, -4
 1140              		.loc 2 287 0
 1141 0034 7C0903A6 		mtctr 0
 1142 0038 4E800421 		bctrl
 1143              	.LVL89:
 1144              		.loc 2 290 0
 1145 003c 7F83F000 		cmpw 7,3,30
 1146 0040 419C0028 		blt- 7,.L68
 1147              	.L64:
 1148              		.loc 2 291 0 discriminator 6
 1149 0044 8001001C 		lwz 0,28(1)
 1150 0048 7FA3EB78 		mr 3,29
 1151 004c 83810008 		lwz 28,8(1)
 1152              	.LVL90:
 1153 0050 7C0803A6 		mtlr 0
 1154 0054 83A1000C 		lwz 29,12(1)
 1155 0058 83C10010 		lwz 30,16(1)
 1156              	.LVL91:
 1157 005c 83E10014 		lwz 31,20(1)
 1158              	.LVL92:
 1159 0060 38210018 		addi 1,1,24
 1160              		.cfi_remember_state
 1161              	.LCFI19:
 1162              		.cfi_def_cfa_offset 0
 1163              		.cfi_restore 31
 1164              		.cfi_restore 30
 1165              		.cfi_restore 29
 1166              		.cfi_restore 28
 1167 0064 4E800020 		blr
 1168              	.LVL93:
 1169              	.L68:
 1170              	.LCFI20:
 1171              		.cfi_restore_state
 1172              		.loc 2 288 0 discriminator 1
 1173 0068 813F0000 		lwz 9,0(31)
 1174 006c 7FE3FB78 		mr 3,31
 1175 0070 80090010 		lwz 0,16(9)
 1176 0074 7C0903A6 		mtctr 0
 1177 0078 4E800421 		bctrl
 1178              		.loc 2 290 0 discriminator 1
 1179 007c 801F0024 		lwz 0,36(31)
 1180 0080 7C030214 		add 0,3,0
 1181 0084 7F9E0000 		cmpw 7,30,0
 1182 0088 409CFFBC 		bge+ 7,.L64
 1183              		.loc 2 289 0 discriminator 3
 1184 008c 813F0000 		lwz 9,0(31)
 1185 0090 7FE3FB78 		mr 3,31
 1186 0094 80090014 		lwz 0,20(9)
 1187 0098 7C0903A6 		mtctr 0
 1188 009c 4E800421 		bctrl
 1189              		.loc 2 290 0 discriminator 3
 1190 00a0 7F83E000 		cmpw 7,3,28
 1191 00a4 409CFFA0 		bge+ 7,.L64
 1192              		.loc 2 290 0 is_stmt 0 discriminator 4
 1193 00a8 813F0000 		lwz 9,0(31)
 1194 00ac 7FE3FB78 		mr 3,31
 1195 00b0 80090014 		lwz 0,20(9)
 1196 00b4 7C0903A6 		mtctr 0
 1197 00b8 4E800421 		bctrl
 1198 00bc 801F0028 		lwz 0,40(31)
 1199 00c0 7C030214 		add 0,3,0
 1200              		.loc 2 285 0 is_stmt 1 discriminator 4
 1201 00c4 7F9C0000 		cmpw 7,28,0
 1202 00c8 7FA00026 		mfcr 29
 1203 00cc 57BDEFFE 		rlwinm 29,29,29,1
 1204 00d0 4BFFFF74 		b .L64
 1205              		.cfi_endproc
 1206              	.LFE1417:
 1207              		.size	_ZN10GuiElement8IsInsideEii, .-_ZN10GuiElement8IsInsideEii
 1208              		.section	.text._ZN10GuiElement11SetPositionEii,"axG",@progbits,_ZN10GuiElement11SetPositionEii,com
 1209              		.align 2
 1210              		.weak	_ZN10GuiElement11SetPositionEii
 1211              		.type	_ZN10GuiElement11SetPositionEii, @function
 1212              	_ZN10GuiElement11SetPositionEii:
 1213              	.LFB1418:
 1214              		.loc 2 295 0
 1215              		.cfi_startproc
 1216              	.LVL94:
 1217              		.loc 2 297 0
 1218 0000 9083002C 		stw 4,44(3)
 1219              		.loc 2 299 0
 1220              		.loc 2 298 0
 1221 0004 90A30030 		stw 5,48(3)
 1222              		.loc 2 299 0
 1223 0008 4E800020 		blr
 1224              		.cfi_endproc
 1225              	.LFE1418:
 1226              		.size	_ZN10GuiElement11SetPositionEii, .-_ZN10GuiElement11SetPositionEii
 1227              		.section	.text._ZN10GuiElement11SetPositionEiii,"axG",@progbits,_ZN10GuiElement11SetPositionEiii,c
 1228              		.align 2
 1229              		.weak	_ZN10GuiElement11SetPositionEiii
 1230              		.type	_ZN10GuiElement11SetPositionEiii, @function
 1231              	_ZN10GuiElement11SetPositionEiii:
 1232              	.LFB1419:
 1233              		.loc 2 304 0
 1234              		.cfi_startproc
 1235              	.LVL95:
 1236              		.loc 2 306 0
 1237 0000 9083002C 		stw 4,44(3)
 1238              		.loc 2 309 0
 1239              		.loc 2 307 0
 1240 0004 90A30030 		stw 5,48(3)
 1241              		.loc 2 308 0
 1242 0008 90C30034 		stw 6,52(3)
 1243              		.loc 2 309 0
 1244 000c 4E800020 		blr
 1245              		.cfi_endproc
 1246              	.LFE1419:
 1247              		.size	_ZN10GuiElement11SetPositionEiii, .-_ZN10GuiElement11SetPositionEiii
 1248              		.section	.text._ZN10GuiElement11GetSelectedEv,"axG",@progbits,_ZN10GuiElement11GetSelectedEv,comda
 1249              		.align 2
 1250              		.weak	_ZN10GuiElement11GetSelectedEv
 1251              		.type	_ZN10GuiElement11GetSelectedEv, @function
 1252              	_ZN10GuiElement11GetSelectedEv:
 1253              	.LFB1420:
 1254              		.loc 2 312 0
 1255              		.cfi_startproc
 1256              	.LVL96:
 1257              		.loc 2 312 0
 1258 0000 3860FFFF 		li 3,-1
 1259              	.LVL97:
 1260 0004 4E800020 		blr
 1261              		.cfi_endproc
 1262              	.LFE1420:
 1263              		.size	_ZN10GuiElement11GetSelectedEv, .-_ZN10GuiElement11GetSelectedEv
 1264              		.section	.text._ZN10GuiElement12SetAlignmentEi,"axG",@progbits,_ZN10GuiElement12SetAlignmentEi,com
 1265              		.align 2
 1266              		.weak	_ZN10GuiElement12SetAlignmentEi
 1267              		.type	_ZN10GuiElement12SetAlignmentEi, @function
 1268              	_ZN10GuiElement12SetAlignmentEi:
 1269              	.LFB1421:
 1270              		.loc 2 316 0
 1271              		.cfi_startproc
 1272              	.LVL98:
 1273              		.loc 2 316 0
 1274 0000 90830044 		stw 4,68(3)
 1275 0004 4E800020 		blr
 1276              		.cfi_endproc
 1277              	.LFE1421:
 1278              		.size	_ZN10GuiElement12SetAlignmentEi, .-_ZN10GuiElement12SetAlignmentEi
 1279              		.section	.text._ZNK10GuiElement12GetAlignmentEv,"axG",@progbits,_ZNK10GuiElement12GetAlignmentEv,c
 1280              		.align 2
 1281              		.weak	_ZNK10GuiElement12GetAlignmentEv
 1282              		.type	_ZNK10GuiElement12GetAlignmentEv, @function
 1283              	_ZNK10GuiElement12GetAlignmentEv:
 1284              	.LFB1422:
 1285              		.loc 2 318 0
 1286              		.cfi_startproc
 1287              	.LVL99:
 1288              		.loc 2 318 0
 1289 0000 80630044 		lwz 3,68(3)
 1290              	.LVL100:
 1291 0004 4E800020 		blr
 1292              		.cfi_endproc
 1293              	.LFE1422:
 1294              		.size	_ZNK10GuiElement12GetAlignmentEv, .-_ZNK10GuiElement12GetAlignmentEv
 1295              		.section	.text._ZN10GuiElement6UpdateEP10GuiTrigger,"axG",@progbits,_ZN10GuiElement6UpdateEP10GuiT
 1296              		.align 2
 1297              		.weak	_ZN10GuiElement6UpdateEP10GuiTrigger
 1298              		.type	_ZN10GuiElement6UpdateEP10GuiTrigger, @function
 1299              	_ZN10GuiElement6UpdateEP10GuiTrigger:
 1300              	.LFB1423:
 1301              		.loc 2 321 0
 1302              		.cfi_startproc
 1303              	.LVL101:
 1304              		.loc 2 321 0
 1305 0000 4E800020 		blr
 1306              		.cfi_endproc
 1307              	.LFE1423:
 1308              		.size	_ZN10GuiElement6UpdateEP10GuiTrigger, .-_ZN10GuiElement6UpdateEP10GuiTrigger
 1309              		.section	.text._ZN7sigslot12_signal_baseINS_15single_threadedEED2Ev,"axG",@progbits,_ZN7sigslot12_
 1310              		.align 2
 1311              		.weak	_ZN7sigslot12_signal_baseINS_15single_threadedEED2Ev
 1312              		.type	_ZN7sigslot12_signal_baseINS_15single_threadedEED2Ev, @function
 1313              	_ZN7sigslot12_signal_baseINS_15single_threadedEED2Ev:
 1314              	.LFB1462:
 1315              		.loc 1 466 0
 1316              		.cfi_startproc
 1317              	.LVL102:
 1318              	.LBB1448:
 1319              	.LBB1449:
 1320              	.LBB1450:
 1321              	.LBB1451:
 1322              		.loc 1 105 0
 1323 0000 3D200000 		lis 9,_ZTVN7sigslot15single_threadedE+8@ha
 1324              	.LBE1451:
 1325              	.LBE1450:
 1326              	.LBE1449:
 1327              	.LBE1448:
 1328              		.loc 1 466 0
 1329              	.LBB1455:
 1330              	.LBB1454:
 1331              	.LBB1453:
 1332              	.LBB1452:
 1333              		.loc 1 105 0
 1334 0004 38090008 		la 0,_ZTVN7sigslot15single_threadedE+8@l(9)
 1335 0008 90030000 		stw 0,0(3)
 1336              	.LBE1452:
 1337              	.LBE1453:
 1338              	.LBE1454:
 1339              	.LBE1455:
 1340              		.loc 1 466 0
 1341 000c 4E800020 		blr
 1342              		.cfi_endproc
 1343              	.LFE1462:
 1344              		.size	_ZN7sigslot12_signal_baseINS_15single_threadedEED2Ev, .-_ZN7sigslot12_signal_baseINS_15singl
 1345              		.section	.text._ZN7sigslot13_signal_base3IP10GuiElementiiNS_15single_threadedEE14slot_duplicateEPK
 1346              		.align 2
 1347              		.weak	_ZN7sigslot13_signal_base3IP10GuiElementiiNS_15single_threadedEE14slot_duplicateEPKNS_9has_s
 1348              		.type	_ZN7sigslot13_signal_base3IP10GuiElementiiNS_15single_threadedEE14slot_duplicateEPKNS_9has_s
 1349              	_ZN7sigslot13_signal_base3IP10GuiElementiiNS_15single_threadedEE14slot_duplicateEPKNS_9has_slotsIS3
 1350              	.LFB1667:
 1351              		.loc 1 926 0
 1352              		.cfi_startproc
 1353              		.cfi_personality 0,__gxx_personality_v0
 1354              		.cfi_lsda 0,.LLSDA1667
 1355              	.LVL103:
 1356 0000 7C0802A6 		mflr 0
 1357 0004 9421FFE0 		stwu 1,-32(1)
 1358              	.LCFI21:
 1359              		.cfi_def_cfa_offset 32
 1360              		.cfi_register 65, 0
 1361 0008 93410008 		stw 26,8(1)
 1362 000c 7CBA2B78 		mr 26,5
 1363              		.cfi_offset 26, -24
 1364 0010 90010024 		stw 0,36(1)
 1365 0014 9361000C 		stw 27,12(1)
 1366 0018 7C7B1B78 		mr 27,3
 1367              		.cfi_offset 27, -20
 1368              		.cfi_offset 65, 4
 1369              	.LVL104:
 1370              	.LBB1456:
 1371              	.LBB1457:
 1372              	.LBB1458:
 1373              		.loc 1 338 0
 1374 001c 81230000 		lwz 9,0(3)
 1375              	.LBE1458:
 1376              	.LBE1457:
 1377              	.LBE1456:
 1378              		.loc 1 926 0
 1379 0020 93A10014 		stw 29,20(1)
 1380 0024 7C9D2378 		mr 29,4
 1381              		.cfi_offset 29, -12
 1382              	.LBB1487:
 1383              	.LBB1463:
 1384              	.LBB1459:
 1385              		.loc 1 338 0
 1386 0028 80090008 		lwz 0,8(9)
 1387              	.LBE1459:
 1388              	.LBE1463:
 1389              	.LBE1487:
 1390              		.loc 1 926 0
 1391 002c 93C10018 		stw 30,24(1)
 1392              	.LBB1488:
 1393              	.LBB1464:
 1394              	.LBB1460:
 1395              		.loc 3 302 0
 1396 0030 7F7EDB78 		mr 30,27
 1397              		.cfi_offset 30, -8
 1398              	.LBE1460:
 1399              	.LBE1464:
 1400              	.LBE1488:
 1401              		.loc 1 926 0
 1402 0034 93E1001C 		stw 31,28(1)
 1403              	.LBB1489:
 1404              	.LBB1465:
 1405              	.LBB1461:
 1406              		.loc 1 338 0
 1407 0038 7C0903A6 		mtctr 0
 1408              	.LBE1461:
 1409              	.LBE1465:
 1410              	.LBE1489:
 1411              		.loc 1 926 0
 1412 003c 93810010 		stw 28,16(1)
 1413              	.LEHB4:
 1414              	.LBB1490:
 1415              	.LBB1466:
 1416              	.LBB1462:
 1417              		.loc 1 338 0
 1418              		.cfi_offset 28, -16
 1419              		.cfi_offset 31, -4
 1420 0040 4E800421 		bctrl
 1421              	.LEHE4:
 1422              	.LVL105:
 1423              		.loc 3 302 0
 1424 0044 87FE0004 		lwzu 31,4(30)
 1425              	.LVL106:
 1426              	.LBE1462:
 1427              	.LBE1466:
 1428              		.loc 1 932 0
 1429 0048 7F9FF000 		cmpw 7,31,30
 1430 004c 40BE0014 		bne+ 7,.L88
 1431 0050 48000070 		b .L79
 1432              	.LVL107:
 1433              	.L80:
 1434              	.LBB1467:
 1435              	.LBB1468:
 1436              		.loc 4 154 0
 1437 0054 83FF0000 		lwz 31,0(31)
 1438              	.LVL108:
 1439              	.LBE1468:
 1440              	.LBE1467:
 1441              		.loc 1 932 0
 1442 0058 7F9EF800 		cmpw 7,30,31
 1443 005c 419E0064 		beq- 7,.L79
 1444              	.LVL109:
 1445              	.L88:
 1446              		.loc 1 934 0
 1447 0060 807F0008 		lwz 3,8(31)
 1448 0064 81230000 		lwz 9,0(3)
 1449 0068 80090008 		lwz 0,8(9)
 1450 006c 7C0903A6 		mtctr 0
 1451              	.LEHB5:
 1452 0070 4E800421 		bctrl
 1453 0074 7F9D1800 		cmpw 7,29,3
 1454 0078 409EFFDC 		bne+ 7,.L80
 1455              	.LVL110:
 1456              		.loc 1 936 0
 1457 007c 807F0008 		lwz 3,8(31)
 1458 0080 7F44D378 		mr 4,26
 1459 0084 81230000 		lwz 9,0(3)
 1460 0088 80090014 		lwz 0,20(9)
 1461 008c 7C0903A6 		mtctr 0
 1462 0090 4E800421 		bctrl
 1463 0094 7C7C1B78 		mr 28,3
 1464              	.LVL111:
 1465              	.LBB1470:
 1466              	.LBB1471:
 1467              	.LBB1472:
 1468              	.LBB1473:
 1469              	.LBB1474:
 1470              	.LBB1475:
 1471              	.LBB1476:
 1472              	.LBB1477:
 1473              		.file 6 "d:\\devkitpro\\devkitppc\\bin\\../lib/gcc/powerpc-eabi/4.6.3/../../../../powerpc-eabi/inc
 1474              		.loc 6 92 0
 1475 0098 3860000C 		li 3,12
 1476 009c 48000001 		bl _Znwj
 1477              	.LEHE5:
 1478              	.LVL112:
 1479              	.LBE1477:
 1480              	.LBE1476:
 1481              	.LBE1475:
 1482              	.LBB1478:
 1483              	.LBB1479:
 1484              		.loc 6 108 0 discriminator 1
 1485 00a0 2F83FFF8 		cmpwi 7,3,-8
 1486 00a4 419E0008 		beq- 7,.L82
 1487              		.loc 6 108 0 is_stmt 0
 1488 00a8 93830008 		stw 28,8(3)
 1489              	.L82:
 1490              	.LVL113:
 1491              	.LBE1479:
 1492              	.LBE1478:
 1493              	.LBE1474:
 1494              	.LBE1473:
 1495              		.loc 4 1516 0 is_stmt 1
 1496 00ac 7FC4F378 		mr 4,30
 1497 00b0 48000001 		bl _ZNSt8__detail15_List_node_base7_M_hookEPS0_
 1498              	.LVL114:
 1499              	.LBE1472:
 1500              	.LBE1471:
 1501              	.LBE1470:
 1502              	.LBB1480:
 1503              	.LBB1469:
 1504              		.loc 4 154 0
 1505 00b4 83FF0000 		lwz 31,0(31)
 1506              	.LVL115:
 1507              	.LBE1469:
 1508              	.LBE1480:
 1509              		.loc 1 932 0
 1510 00b8 7F9EF800 		cmpw 7,30,31
 1511 00bc 409EFFA4 		bne+ 7,.L88
 1512              	.LVL116:
 1513              	.L79:
 1514              	.LBB1481:
 1515              	.LBB1482:
 1516              	.LBB1483:
 1517              		.loc 1 343 0
 1518 00c0 813B0000 		lwz 9,0(27)
 1519 00c4 7F63DB78 		mr 3,27
 1520 00c8 8009000C 		lwz 0,12(9)
 1521 00cc 7C0903A6 		mtctr 0
 1522              	.LEHB6:
 1523 00d0 4E800421 		bctrl
 1524              	.LEHE6:
 1525              	.LBE1483:
 1526              	.LBE1482:
 1527              	.LBE1481:
 1528              	.LBE1490:
 1529              		.loc 1 941 0
 1530 00d4 80010024 		lwz 0,36(1)
 1531 00d8 83410008 		lwz 26,8(1)
 1532              	.LVL117:
 1533 00dc 7C0803A6 		mtlr 0
 1534 00e0 8361000C 		lwz 27,12(1)
 1535              	.LVL118:
 1536 00e4 83810010 		lwz 28,16(1)
 1537 00e8 83A10014 		lwz 29,20(1)
 1538              	.LVL119:
 1539 00ec 83C10018 		lwz 30,24(1)
 1540              	.LVL120:
 1541 00f0 83E1001C 		lwz 31,28(1)
 1542              	.LVL121:
 1543 00f4 38210020 		addi 1,1,32
 1544              		.cfi_remember_state
 1545              	.LCFI22:
 1546              		.cfi_def_cfa_offset 0
 1547              		.cfi_restore 31
 1548              		.cfi_restore 30
 1549              		.cfi_restore 29
 1550              		.cfi_restore 28
 1551              		.cfi_restore 27
 1552              		.cfi_restore 26
 1553 00f8 4E800020 		blr
 1554              	.LVL122:
 1555              	.L87:
 1556              	.LCFI23:
 1557              		.cfi_restore_state
 1558              	.LBB1491:
 1559              	.LBB1484:
 1560              	.LBB1485:
 1561              	.LBB1486:
 1562              		.loc 1 343 0
 1563 00fc 813B0000 		lwz 9,0(27)
 1564 0100 7C7F1B78 		mr 31,3
 1565              	.LVL123:
 1566 0104 7F63DB78 		mr 3,27
 1567 0108 8009000C 		lwz 0,12(9)
 1568 010c 7C0903A6 		mtctr 0
 1569 0110 4E800421 		bctrl
 1570 0114 7FE3FB78 		mr 3,31
 1571              	.LEHB7:
 1572 0118 48000001 		bl _Unwind_Resume
 1573              	.LEHE7:
 1574              	.LBE1486:
 1575              	.LBE1485:
 1576              	.LBE1484:
 1577              	.LBE1491:
 1578              		.cfi_endproc
 1579              	.LFE1667:
 1580              		.section	.gcc_except_table
 1581              	.LLSDA1667:
 1582 0017 FF       		.byte	0xff
 1583 0018 FF       		.byte	0xff
 1584 0019 01       		.byte	0x1
 1585 001a 13       		.uleb128 .LLSDACSE1667-.LLSDACSB1667
 1586              	.LLSDACSB1667:
 1587 001b 40       		.uleb128 .LEHB4-.LFB1667
 1588 001c 04       		.uleb128 .LEHE4-.LEHB4
 1589 001d 00       		.uleb128 0
 1590 001e 00       		.uleb128 0
 1591 001f 70       		.uleb128 .LEHB5-.LFB1667
 1592 0020 30       		.uleb128 .LEHE5-.LEHB5
 1593 0021 FC01     		.uleb128 .L87-.LFB1667
 1594 0023 00       		.uleb128 0
 1595 0024 D001     		.uleb128 .LEHB6-.LFB1667
 1596 0026 04       		.uleb128 .LEHE6-.LEHB6
 1597 0027 00       		.uleb128 0
 1598 0028 00       		.uleb128 0
 1599 0029 9802     		.uleb128 .LEHB7-.LFB1667
 1600 002b 04       		.uleb128 .LEHE7-.LEHB7
 1601 002c 00       		.uleb128 0
 1602 002d 00       		.uleb128 0
 1603              	.LLSDACSE1667:
 1604              		.section	.text._ZN7sigslot13_signal_base3IP10GuiElementiiNS_15single_threadedEE14slot_duplicateEPK
 1605              		.size	_ZN7sigslot13_signal_base3IP10GuiElementiiNS_15single_threadedEE14slot_duplicateEPKNS_9has_s
 1606              		.section	.text._ZN7sigslot13_signal_base2IP10GuiElementbNS_15single_threadedEE14slot_duplicateEPKN
 1607              		.align 2
 1608              		.weak	_ZN7sigslot13_signal_base2IP10GuiElementbNS_15single_threadedEE14slot_duplicateEPKNS_9has_sl
 1609              		.type	_ZN7sigslot13_signal_base2IP10GuiElementbNS_15single_threadedEE14slot_duplicateEPKNS_9has_sl
 1610              	_ZN7sigslot13_signal_base2IP10GuiElementbNS_15single_threadedEE14slot_duplicateEPKNS_9has_slotsIS3_
 1611              	.LFB1669:
 1612              		.loc 1 806 0
 1613              		.cfi_startproc
 1614              		.cfi_personality 0,__gxx_personality_v0
 1615              		.cfi_lsda 0,.LLSDA1669
 1616              	.LVL124:
 1617 0000 7C0802A6 		mflr 0
 1618 0004 9421FFE0 		stwu 1,-32(1)
 1619              	.LCFI24:
 1620              		.cfi_def_cfa_offset 32
 1621              		.cfi_register 65, 0
 1622 0008 93410008 		stw 26,8(1)
 1623 000c 7CBA2B78 		mr 26,5
 1624              		.cfi_offset 26, -24
 1625 0010 90010024 		stw 0,36(1)
 1626 0014 9361000C 		stw 27,12(1)
 1627 0018 7C7B1B78 		mr 27,3
 1628              		.cfi_offset 27, -20
 1629              		.cfi_offset 65, 4
 1630              	.LVL125:
 1631              	.LBB1492:
 1632              	.LBB1493:
 1633              	.LBB1494:
 1634              		.loc 1 338 0
 1635 001c 81230000 		lwz 9,0(3)
 1636              	.LBE1494:
 1637              	.LBE1493:
 1638              	.LBE1492:
 1639              		.loc 1 806 0
 1640 0020 93A10014 		stw 29,20(1)
 1641 0024 7C9D2378 		mr 29,4
 1642              		.cfi_offset 29, -12
 1643              	.LBB1523:
 1644              	.LBB1499:
 1645              	.LBB1495:
 1646              		.loc 1 338 0
 1647 0028 80090008 		lwz 0,8(9)
 1648              	.LBE1495:
 1649              	.LBE1499:
 1650              	.LBE1523:
 1651              		.loc 1 806 0
 1652 002c 93C10018 		stw 30,24(1)
 1653              	.LBB1524:
 1654              	.LBB1500:
 1655              	.LBB1496:
 1656              		.loc 3 302 0
 1657 0030 7F7EDB78 		mr 30,27
 1658              		.cfi_offset 30, -8
 1659              	.LBE1496:
 1660              	.LBE1500:
 1661              	.LBE1524:
 1662              		.loc 1 806 0
 1663 0034 93E1001C 		stw 31,28(1)
 1664              	.LBB1525:
 1665              	.LBB1501:
 1666              	.LBB1497:
 1667              		.loc 1 338 0
 1668 0038 7C0903A6 		mtctr 0
 1669              	.LBE1497:
 1670              	.LBE1501:
 1671              	.LBE1525:
 1672              		.loc 1 806 0
 1673 003c 93810010 		stw 28,16(1)
 1674              	.LEHB8:
 1675              	.LBB1526:
 1676              	.LBB1502:
 1677              	.LBB1498:
 1678              		.loc 1 338 0
 1679              		.cfi_offset 28, -16
 1680              		.cfi_offset 31, -4
 1681 0040 4E800421 		bctrl
 1682              	.LEHE8:
 1683              	.LVL126:
 1684              		.loc 3 302 0
 1685 0044 87FE0004 		lwzu 31,4(30)
 1686              	.LVL127:
 1687              	.LBE1498:
 1688              	.LBE1502:
 1689              		.loc 1 812 0
 1690 0048 7F9FF000 		cmpw 7,31,30
 1691 004c 40BE0014 		bne+ 7,.L100
 1692 0050 48000070 		b .L91
 1693              	.LVL128:
 1694              	.L92:
 1695              	.LBB1503:
 1696              	.LBB1504:
 1697              		.loc 4 154 0
 1698 0054 83FF0000 		lwz 31,0(31)
 1699              	.LVL129:
 1700              	.LBE1504:
 1701              	.LBE1503:
 1702              		.loc 1 812 0
 1703 0058 7F9EF800 		cmpw 7,30,31
 1704 005c 419E0064 		beq- 7,.L91
 1705              	.LVL130:
 1706              	.L100:
 1707              		.loc 1 814 0
 1708 0060 807F0008 		lwz 3,8(31)
 1709 0064 81230000 		lwz 9,0(3)
 1710 0068 80090008 		lwz 0,8(9)
 1711 006c 7C0903A6 		mtctr 0
 1712              	.LEHB9:
 1713 0070 4E800421 		bctrl
 1714 0074 7F9D1800 		cmpw 7,29,3
 1715 0078 409EFFDC 		bne+ 7,.L92
 1716              	.LVL131:
 1717              		.loc 1 816 0
 1718 007c 807F0008 		lwz 3,8(31)
 1719 0080 7F44D378 		mr 4,26
 1720 0084 81230000 		lwz 9,0(3)
 1721 0088 80090014 		lwz 0,20(9)
 1722 008c 7C0903A6 		mtctr 0
 1723 0090 4E800421 		bctrl
 1724 0094 7C7C1B78 		mr 28,3
 1725              	.LVL132:
 1726              	.LBB1506:
 1727              	.LBB1507:
 1728              	.LBB1508:
 1729              	.LBB1509:
 1730              	.LBB1510:
 1731              	.LBB1511:
 1732              	.LBB1512:
 1733              	.LBB1513:
 1734              		.loc 6 92 0
 1735 0098 3860000C 		li 3,12
 1736 009c 48000001 		bl _Znwj
 1737              	.LEHE9:
 1738              	.LVL133:
 1739              	.LBE1513:
 1740              	.LBE1512:
 1741              	.LBE1511:
 1742              	.LBB1514:
 1743              	.LBB1515:
 1744              		.loc 6 108 0 discriminator 1
 1745 00a0 2F83FFF8 		cmpwi 7,3,-8
 1746 00a4 419E0008 		beq- 7,.L94
 1747              		.loc 6 108 0 is_stmt 0
 1748 00a8 93830008 		stw 28,8(3)
 1749              	.L94:
 1750              	.LVL134:
 1751              	.LBE1515:
 1752              	.LBE1514:
 1753              	.LBE1510:
 1754              	.LBE1509:
 1755              		.loc 4 1516 0 is_stmt 1
 1756 00ac 7FC4F378 		mr 4,30
 1757 00b0 48000001 		bl _ZNSt8__detail15_List_node_base7_M_hookEPS0_
 1758              	.LVL135:
 1759              	.LBE1508:
 1760              	.LBE1507:
 1761              	.LBE1506:
 1762              	.LBB1516:
 1763              	.LBB1505:
 1764              		.loc 4 154 0
 1765 00b4 83FF0000 		lwz 31,0(31)
 1766              	.LVL136:
 1767              	.LBE1505:
 1768              	.LBE1516:
 1769              		.loc 1 812 0
 1770 00b8 7F9EF800 		cmpw 7,30,31
 1771 00bc 409EFFA4 		bne+ 7,.L100
 1772              	.LVL137:
 1773              	.L91:
 1774              	.LBB1517:
 1775              	.LBB1518:
 1776              	.LBB1519:
 1777              		.loc 1 343 0
 1778 00c0 813B0000 		lwz 9,0(27)
 1779 00c4 7F63DB78 		mr 3,27
 1780 00c8 8009000C 		lwz 0,12(9)
 1781 00cc 7C0903A6 		mtctr 0
 1782              	.LEHB10:
 1783 00d0 4E800421 		bctrl
 1784              	.LEHE10:
 1785              	.LBE1519:
 1786              	.LBE1518:
 1787              	.LBE1517:
 1788              	.LBE1526:
 1789              		.loc 1 821 0
 1790 00d4 80010024 		lwz 0,36(1)
 1791 00d8 83410008 		lwz 26,8(1)
 1792              	.LVL138:
 1793 00dc 7C0803A6 		mtlr 0
 1794 00e0 8361000C 		lwz 27,12(1)
 1795              	.LVL139:
 1796 00e4 83810010 		lwz 28,16(1)
 1797 00e8 83A10014 		lwz 29,20(1)
 1798              	.LVL140:
 1799 00ec 83C10018 		lwz 30,24(1)
 1800              	.LVL141:
 1801 00f0 83E1001C 		lwz 31,28(1)
 1802              	.LVL142:
 1803 00f4 38210020 		addi 1,1,32
 1804              		.cfi_remember_state
 1805              	.LCFI25:
 1806              		.cfi_def_cfa_offset 0
 1807              		.cfi_restore 31
 1808              		.cfi_restore 30
 1809              		.cfi_restore 29
 1810              		.cfi_restore 28
 1811              		.cfi_restore 27
 1812              		.cfi_restore 26
 1813 00f8 4E800020 		blr
 1814              	.LVL143:
 1815              	.L99:
 1816              	.LCFI26:
 1817              		.cfi_restore_state
 1818              	.LBB1527:
 1819              	.LBB1520:
 1820              	.LBB1521:
 1821              	.LBB1522:
 1822              		.loc 1 343 0
 1823 00fc 813B0000 		lwz 9,0(27)
 1824 0100 7C7F1B78 		mr 31,3
 1825              	.LVL144:
 1826 0104 7F63DB78 		mr 3,27
 1827 0108 8009000C 		lwz 0,12(9)
 1828 010c 7C0903A6 		mtctr 0
 1829 0110 4E800421 		bctrl
 1830 0114 7FE3FB78 		mr 3,31
 1831              	.LEHB11:
 1832 0118 48000001 		bl _Unwind_Resume
 1833              	.LEHE11:
 1834              	.LBE1522:
 1835              	.LBE1521:
 1836              	.LBE1520:
 1837              	.LBE1527:
 1838              		.cfi_endproc
 1839              	.LFE1669:
 1840              		.section	.gcc_except_table
 1841              	.LLSDA1669:
 1842 002e FF       		.byte	0xff
 1843 002f FF       		.byte	0xff
 1844 0030 01       		.byte	0x1
 1845 0031 13       		.uleb128 .LLSDACSE1669-.LLSDACSB1669
 1846              	.LLSDACSB1669:
 1847 0032 40       		.uleb128 .LEHB8-.LFB1669
 1848 0033 04       		.uleb128 .LEHE8-.LEHB8
 1849 0034 00       		.uleb128 0
 1850 0035 00       		.uleb128 0
 1851 0036 70       		.uleb128 .LEHB9-.LFB1669
 1852 0037 30       		.uleb128 .LEHE9-.LEHB9
 1853 0038 FC01     		.uleb128 .L99-.LFB1669
 1854 003a 00       		.uleb128 0
 1855 003b D001     		.uleb128 .LEHB10-.LFB1669
 1856 003d 04       		.uleb128 .LEHE10-.LEHB10
 1857 003e 00       		.uleb128 0
 1858 003f 00       		.uleb128 0
 1859 0040 9802     		.uleb128 .LEHB11-.LFB1669
 1860 0042 04       		.uleb128 .LEHE11-.LEHB11
 1861 0043 00       		.uleb128 0
 1862 0044 00       		.uleb128 0
 1863              	.LLSDACSE1669:
 1864              		.section	.text._ZN7sigslot13_signal_base2IP10GuiElementbNS_15single_threadedEE14slot_duplicateEPKN
 1865              		.size	_ZN7sigslot13_signal_base2IP10GuiElementbNS_15single_threadedEE14slot_duplicateEPKNS_9has_sl
 1866              		.section	.text._ZN7sigslot12_signal_baseINS_15single_threadedEED0Ev,"axG",@progbits,_ZN7sigslot12_
 1867              		.align 2
 1868              		.weak	_ZN7sigslot12_signal_baseINS_15single_threadedEED0Ev
 1869              		.type	_ZN7sigslot12_signal_baseINS_15single_threadedEED0Ev, @function
 1870              	_ZN7sigslot12_signal_baseINS_15single_threadedEED0Ev:
 1871              	.LFB1464:
 1872              		.loc 1 466 0
 1873              		.cfi_startproc
 1874              	.LVL145:
 1875 0000 7C0802A6 		mflr 0
 1876 0004 9421FFF8 		stwu 1,-8(1)
 1877              	.LCFI27:
 1878              		.cfi_def_cfa_offset 8
 1879              		.cfi_register 65, 0
 1880              	.LBB1528:
 1881              	.LBB1529:
 1882              	.LBB1530:
 1883              	.LBB1531:
 1884              	.LBB1532:
 1885              	.LBB1533:
 1886              		.loc 1 105 0
 1887 0008 3D200000 		lis 9,_ZTVN7sigslot15single_threadedE+8@ha
 1888              	.LBE1533:
 1889              	.LBE1532:
 1890              	.LBE1531:
 1891              	.LBE1530:
 1892              	.LBE1529:
 1893              	.LBE1528:
 1894              		.loc 1 466 0
 1895 000c 9001000C 		stw 0,12(1)
 1896              	.LBB1539:
 1897              	.LBB1538:
 1898              	.LBB1537:
 1899              	.LBB1536:
 1900              	.LBB1535:
 1901              	.LBB1534:
 1902              		.loc 1 105 0
 1903 0010 38090008 		la 0,_ZTVN7sigslot15single_threadedE+8@l(9)
 1904              		.cfi_offset 65, 4
 1905 0014 90030000 		stw 0,0(3)
 1906              	.LBE1534:
 1907              	.LBE1535:
 1908              	.LBE1536:
 1909              	.LBE1537:
 1910              	.LBE1538:
 1911              	.LBE1539:
 1912              		.loc 1 466 0
 1913 0018 48000001 		bl _ZdlPv
 1914              	.LVL146:
 1915 001c 8001000C 		lwz 0,12(1)
 1916 0020 38210008 		addi 1,1,8
 1917              	.LCFI28:
 1918              		.cfi_def_cfa_offset 0
 1919 0024 7C0803A6 		mtlr 0
 1920 0028 4E800020 		blr
 1921              		.cfi_endproc
 1922              	.LFE1464:
 1923              		.size	_ZN7sigslot12_signal_baseINS_15single_threadedEED0Ev, .-_ZN7sigslot12_signal_baseINS_15singl
 1924              		.section	.text._ZN7sigslot15single_threadedD0Ev,"axG",@progbits,_ZN7sigslot15single_threadedD5Ev,c
 1925              		.align 2
 1926              		.weak	_ZN7sigslot15single_threadedD0Ev
 1927              		.type	_ZN7sigslot15single_threadedD0Ev, @function
 1928              	_ZN7sigslot15single_threadedD0Ev:
 1929              	.LFB1150:
 1930              		.loc 1 104 0
 1931              		.cfi_startproc
 1932              	.LVL147:
 1933 0000 7C0802A6 		mflr 0
 1934 0004 9421FFF8 		stwu 1,-8(1)
 1935              	.LCFI29:
 1936              		.cfi_def_cfa_offset 8
 1937              		.cfi_register 65, 0
 1938              	.LBB1540:
 1939              	.LBB1541:
 1940              	.LBB1542:
 1941              		.loc 1 105 0
 1942 0008 3D200000 		lis 9,_ZTVN7sigslot15single_threadedE+8@ha
 1943              	.LBE1542:
 1944              	.LBE1541:
 1945              	.LBE1540:
 1946              		.loc 1 104 0
 1947 000c 9001000C 		stw 0,12(1)
 1948              	.LBB1545:
 1949              	.LBB1544:
 1950              	.LBB1543:
 1951              		.loc 1 105 0
 1952 0010 38090008 		la 0,_ZTVN7sigslot15single_threadedE+8@l(9)
 1953              		.cfi_offset 65, 4
 1954 0014 90030000 		stw 0,0(3)
 1955              	.LBE1543:
 1956              	.LBE1544:
 1957              	.LBE1545:
 1958              		.loc 1 107 0
 1959 0018 48000001 		bl _ZdlPv
 1960              	.LVL148:
 1961 001c 8001000C 		lwz 0,12(1)
 1962 0020 38210008 		addi 1,1,8
 1963              	.LCFI30:
 1964              		.cfi_def_cfa_offset 0
 1965 0024 7C0803A6 		mtlr 0
 1966 0028 4E800020 		blr
 1967              		.cfi_endproc
 1968              	.LFE1150:
 1969              		.size	_ZN7sigslot15single_threadedD0Ev, .-_ZN7sigslot15single_threadedD0Ev
 1970              		.section	.text._ZN7sigslot13_signal_base3IP10GuiElementiiNS_15single_threadedEE15slot_disconnectEP
 1971              		.align 2
 1972              		.weak	_ZN7sigslot13_signal_base3IP10GuiElementiiNS_15single_threadedEE15slot_disconnectEPNS_9has_s
 1973              		.type	_ZN7sigslot13_signal_base3IP10GuiElementiiNS_15single_threadedEE15slot_disconnectEPNS_9has_s
 1974              	_ZN7sigslot13_signal_base3IP10GuiElementiiNS_15single_threadedEE15slot_disconnectEPNS_9has_slotsIS3
 1975              	.LFB1666:
 1976              		.loc 1 990 0
 1977              		.cfi_startproc
 1978              		.cfi_personality 0,__gxx_personality_v0
 1979              		.cfi_lsda 0,.LLSDA1666
 1980              	.LVL149:
 1981 0000 7C0802A6 		mflr 0
 1982 0004 9421FFE0 		stwu 1,-32(1)
 1983              	.LCFI31:
 1984              		.cfi_def_cfa_offset 32
 1985              		.cfi_register 65, 0
 1986 0008 9361000C 		stw 27,12(1)
 1987 000c 7C7B1B78 		mr 27,3
 1988              		.cfi_offset 27, -20
 1989              	.LVL150:
 1990 0010 90010024 		stw 0,36(1)
 1991 0014 93810010 		stw 28,16(1)
 1992 0018 7C9C2378 		mr 28,4
 1993              		.cfi_offset 28, -16
 1994              		.cfi_offset 65, 4
 1995              	.LBB1546:
 1996              	.LBB1547:
 1997              	.LBB1548:
 1998              		.loc 1 338 0
 1999 001c 81230000 		lwz 9,0(3)
 2000              	.LBE1548:
 2001              	.LBE1547:
 2002              	.LBE1546:
 2003              		.loc 1 990 0
 2004 0020 93A10014 		stw 29,20(1)
 2005              	.LBB1569:
 2006              	.LBB1551:
 2007              	.LBB1549:
 2008              		.loc 3 302 0
 2009 0024 7F7DDB78 		mr 29,27
 2010              		.cfi_offset 29, -12
 2011              		.loc 1 338 0
 2012 0028 80090008 		lwz 0,8(9)
 2013              	.LBE1549:
 2014              	.LBE1551:
 2015              	.LBE1569:
 2016              		.loc 1 990 0
 2017 002c 93E1001C 		stw 31,28(1)
 2018 0030 93C10018 		stw 30,24(1)
 2019              	.LBB1570:
 2020              	.LBB1552:
 2021              	.LBB1550:
 2022              		.loc 1 338 0
 2023 0034 7C0903A6 		mtctr 0
 2024              	.LEHB12:
 2025              		.cfi_offset 30, -8
 2026              		.cfi_offset 31, -4
 2027 0038 4E800421 		bctrl
 2028              	.LEHE12:
 2029              	.LVL151:
 2030              		.loc 3 302 0
 2031 003c 87FD0004 		lwzu 31,4(29)
 2032              	.LVL152:
 2033              	.LBE1550:
 2034              	.LBE1552:
 2035              		.loc 1 996 0
 2036 0040 7F9FE800 		cmpw 7,31,29
 2037 0044 40BE0014 		bne+ 7,.L121
 2038 0048 48000064 		b .L110
 2039              	.LVL153:
 2040              	.L111:
 2041              		.loc 1 996 0 is_stmt 0 discriminator 1
 2042 004c 7F9DF000 		cmpw 7,29,30
 2043 0050 419E005C 		beq- 7,.L110
 2044              	.L119:
 2045              		.loc 1 996 0
 2046 0054 7FDFF378 		mr 31,30
 2047              	.LVL154:
 2048              	.L121:
 2049              	.LBB1553:
 2050              		.loc 1 1001 0 is_stmt 1
 2051 0058 807F0008 		lwz 3,8(31)
 2052              	.LBB1554:
 2053              	.LBB1555:
 2054              		.loc 4 154 0
 2055 005c 83DF0000 		lwz 30,0(31)
 2056              	.LVL155:
 2057              	.LBE1555:
 2058              	.LBE1554:
 2059              		.loc 1 1001 0
 2060 0060 81230000 		lwz 9,0(3)
 2061 0064 80090008 		lwz 0,8(9)
 2062 0068 7C0903A6 		mtctr 0
 2063              	.LEHB13:
 2064 006c 4E800421 		bctrl
 2065              	.LVL156:
 2066 0070 7F9C1800 		cmpw 7,28,3
 2067 0074 409EFFD8 		bne+ 7,.L111
 2068              	.LVL157:
 2069              		.loc 1 1003 0
 2070 0078 807F0008 		lwz 3,8(31)
 2071 007c 2F830000 		cmpwi 7,3,0
 2072 0080 419E0014 		beq- 7,.L112
 2073              		.loc 1 1003 0 is_stmt 0 discriminator 1
 2074 0084 81230000 		lwz 9,0(3)
 2075 0088 80090004 		lwz 0,4(9)
 2076 008c 7C0903A6 		mtctr 0
 2077 0090 4E800421 		bctrl
 2078              	.LEHE13:
 2079              	.L112:
 2080              	.LVL158:
 2081              	.LBB1556:
 2082              	.LBB1557:
 2083              	.LBB1558:
 2084              	.LBB1559:
 2085              		.loc 4 1532 0 is_stmt 1
 2086 0094 7FE3FB78 		mr 3,31
 2087 0098 48000001 		bl _ZNSt8__detail15_List_node_base9_M_unhookEv
 2088              	.LVL159:
 2089              	.LBB1560:
 2090              	.LBB1561:
 2091              	.LBB1562:
 2092              		.loc 6 98 0
 2093 009c 7FE3FB78 		mr 3,31
 2094 00a0 48000001 		bl _ZdlPv
 2095              	.LVL160:
 2096              	.LBE1562:
 2097              	.LBE1561:
 2098              	.LBE1560:
 2099              	.LBE1559:
 2100              	.LBE1558:
 2101              	.LBE1557:
 2102              	.LBE1556:
 2103              	.LBE1553:
 2104              		.loc 1 996 0
 2105 00a4 7F9DF000 		cmpw 7,29,30
 2106 00a8 409EFFAC 		bne+ 7,.L119
 2107              	.LVL161:
 2108              	.L110:
 2109              	.LBB1563:
 2110              	.LBB1564:
 2111              	.LBB1565:
 2112              		.loc 1 343 0
 2113 00ac 813B0000 		lwz 9,0(27)
 2114 00b0 7F63DB78 		mr 3,27
 2115 00b4 8009000C 		lwz 0,12(9)
 2116 00b8 7C0903A6 		mtctr 0
 2117              	.LEHB14:
 2118 00bc 4E800421 		bctrl
 2119              	.LEHE14:
 2120              	.LBE1565:
 2121              	.LBE1564:
 2122              	.LBE1563:
 2123              	.LBE1570:
 2124              		.loc 1 1010 0
 2125 00c0 80010024 		lwz 0,36(1)
 2126 00c4 8361000C 		lwz 27,12(1)
 2127              	.LVL162:
 2128 00c8 7C0803A6 		mtlr 0
 2129 00cc 83810010 		lwz 28,16(1)
 2130              	.LVL163:
 2131 00d0 83A10014 		lwz 29,20(1)
 2132              	.LVL164:
 2133 00d4 83C10018 		lwz 30,24(1)
 2134 00d8 83E1001C 		lwz 31,28(1)
 2135 00dc 38210020 		addi 1,1,32
 2136              		.cfi_remember_state
 2137              	.LCFI32:
 2138              		.cfi_def_cfa_offset 0
 2139              		.cfi_restore 31
 2140              		.cfi_restore 30
 2141              		.cfi_restore 29
 2142              		.cfi_restore 28
 2143              		.cfi_restore 27
 2144 00e0 4E800020 		blr
 2145              	.LVL165:
 2146              	.L120:
 2147              	.LCFI33:
 2148              		.cfi_restore_state
 2149              	.LBB1571:
 2150              	.LBB1566:
 2151              	.LBB1567:
 2152              	.LBB1568:
 2153              		.loc 1 343 0
 2154 00e4 813B0000 		lwz 9,0(27)
 2155 00e8 7C7F1B78 		mr 31,3
 2156              	.LVL166:
 2157 00ec 7F63DB78 		mr 3,27
 2158 00f0 8009000C 		lwz 0,12(9)
 2159 00f4 7C0903A6 		mtctr 0
 2160 00f8 4E800421 		bctrl
 2161 00fc 7FE3FB78 		mr 3,31
 2162              	.LEHB15:
 2163 0100 48000001 		bl _Unwind_Resume
 2164              	.LEHE15:
 2165              	.LBE1568:
 2166              	.LBE1567:
 2167              	.LBE1566:
 2168              	.LBE1571:
 2169              		.cfi_endproc
 2170              	.LFE1666:
 2171              		.section	.gcc_except_table
 2172              	.LLSDA1666:
 2173 0045 FF       		.byte	0xff
 2174 0046 FF       		.byte	0xff
 2175 0047 01       		.byte	0x1
 2176 0048 13       		.uleb128 .LLSDACSE1666-.LLSDACSB1666
 2177              	.LLSDACSB1666:
 2178 0049 38       		.uleb128 .LEHB12-.LFB1666
 2179 004a 04       		.uleb128 .LEHE12-.LEHB12
 2180 004b 00       		.uleb128 0
 2181 004c 00       		.uleb128 0
 2182 004d 6C       		.uleb128 .LEHB13-.LFB1666
 2183 004e 28       		.uleb128 .LEHE13-.LEHB13
 2184 004f E401     		.uleb128 .L120-.LFB1666
 2185 0051 00       		.uleb128 0
 2186 0052 BC01     		.uleb128 .LEHB14-.LFB1666
 2187 0054 04       		.uleb128 .LEHE14-.LEHB14
 2188 0055 00       		.uleb128 0
 2189 0056 00       		.uleb128 0
 2190 0057 8002     		.uleb128 .LEHB15-.LFB1666
 2191 0059 04       		.uleb128 .LEHE15-.LEHB15
 2192 005a 00       		.uleb128 0
 2193 005b 00       		.uleb128 0
 2194              	.LLSDACSE1666:
 2195              		.section	.text._ZN7sigslot13_signal_base3IP10GuiElementiiNS_15single_threadedEE15slot_disconnectEP
 2196              		.size	_ZN7sigslot13_signal_base3IP10GuiElementiiNS_15single_threadedEE15slot_disconnectEPNS_9has_s
 2197              		.section	.text._ZN7sigslot13_signal_base2IP10GuiElementbNS_15single_threadedEE15slot_disconnectEPN
 2198              		.align 2
 2199              		.weak	_ZN7sigslot13_signal_base2IP10GuiElementbNS_15single_threadedEE15slot_disconnectEPNS_9has_sl
 2200              		.type	_ZN7sigslot13_signal_base2IP10GuiElementbNS_15single_threadedEE15slot_disconnectEPNS_9has_sl
 2201              	_ZN7sigslot13_signal_base2IP10GuiElementbNS_15single_threadedEE15slot_disconnectEPNS_9has_slotsIS3_
 2202              	.LFB1668:
 2203              		.loc 1 870 0
 2204              		.cfi_startproc
 2205              		.cfi_personality 0,__gxx_personality_v0
 2206              		.cfi_lsda 0,.LLSDA1668
 2207              	.LVL167:
 2208 0000 7C0802A6 		mflr 0
 2209 0004 9421FFE0 		stwu 1,-32(1)
 2210              	.LCFI34:
 2211              		.cfi_def_cfa_offset 32
 2212              		.cfi_register 65, 0
 2213 0008 9361000C 		stw 27,12(1)
 2214 000c 7C7B1B78 		mr 27,3
 2215              		.cfi_offset 27, -20
 2216              	.LVL168:
 2217 0010 90010024 		stw 0,36(1)
 2218 0014 93810010 		stw 28,16(1)
 2219 0018 7C9C2378 		mr 28,4
 2220              		.cfi_offset 28, -16
 2221              		.cfi_offset 65, 4
 2222              	.LBB1572:
 2223              	.LBB1573:
 2224              	.LBB1574:
 2225              		.loc 1 338 0
 2226 001c 81230000 		lwz 9,0(3)
 2227              	.LBE1574:
 2228              	.LBE1573:
 2229              	.LBE1572:
 2230              		.loc 1 870 0
 2231 0020 93A10014 		stw 29,20(1)
 2232              	.LBB1595:
 2233              	.LBB1577:
 2234              	.LBB1575:
 2235              		.loc 3 302 0
 2236 0024 7F7DDB78 		mr 29,27
 2237              		.cfi_offset 29, -12
 2238              		.loc 1 338 0
 2239 0028 80090008 		lwz 0,8(9)
 2240              	.LBE1575:
 2241              	.LBE1577:
 2242              	.LBE1595:
 2243              		.loc 1 870 0
 2244 002c 93E1001C 		stw 31,28(1)
 2245 0030 93C10018 		stw 30,24(1)
 2246              	.LBB1596:
 2247              	.LBB1578:
 2248              	.LBB1576:
 2249              		.loc 1 338 0
 2250 0034 7C0903A6 		mtctr 0
 2251              	.LEHB16:
 2252              		.cfi_offset 30, -8
 2253              		.cfi_offset 31, -4
 2254 0038 4E800421 		bctrl
 2255              	.LEHE16:
 2256              	.LVL169:
 2257              		.loc 3 302 0
 2258 003c 87FD0004 		lwzu 31,4(29)
 2259              	.LVL170:
 2260              	.LBE1576:
 2261              	.LBE1578:
 2262              		.loc 1 876 0
 2263 0040 7F9FE800 		cmpw 7,31,29
 2264 0044 40BE0014 		bne+ 7,.L134
 2265 0048 48000064 		b .L123
 2266              	.LVL171:
 2267              	.L124:
 2268              		.loc 1 876 0 is_stmt 0 discriminator 1
 2269 004c 7F9DF000 		cmpw 7,29,30
 2270 0050 419E005C 		beq- 7,.L123
 2271              	.L132:
 2272              		.loc 1 876 0
 2273 0054 7FDFF378 		mr 31,30
 2274              	.LVL172:
 2275              	.L134:
 2276              	.LBB1579:
 2277              		.loc 1 881 0 is_stmt 1
 2278 0058 807F0008 		lwz 3,8(31)
 2279              	.LBB1580:
 2280              	.LBB1581:
 2281              		.loc 4 154 0
 2282 005c 83DF0000 		lwz 30,0(31)
 2283              	.LVL173:
 2284              	.LBE1581:
 2285              	.LBE1580:
 2286              		.loc 1 881 0
 2287 0060 81230000 		lwz 9,0(3)
 2288 0064 80090008 		lwz 0,8(9)
 2289 0068 7C0903A6 		mtctr 0
 2290              	.LEHB17:
 2291 006c 4E800421 		bctrl
 2292              	.LVL174:
 2293 0070 7F9C1800 		cmpw 7,28,3
 2294 0074 409EFFD8 		bne+ 7,.L124
 2295              	.LVL175:
 2296              		.loc 1 883 0
 2297 0078 807F0008 		lwz 3,8(31)
 2298 007c 2F830000 		cmpwi 7,3,0
 2299 0080 419E0014 		beq- 7,.L125
 2300              		.loc 1 883 0 is_stmt 0 discriminator 1
 2301 0084 81230000 		lwz 9,0(3)
 2302 0088 80090004 		lwz 0,4(9)
 2303 008c 7C0903A6 		mtctr 0
 2304 0090 4E800421 		bctrl
 2305              	.LEHE17:
 2306              	.L125:
 2307              	.LVL176:
 2308              	.LBB1582:
 2309              	.LBB1583:
 2310              	.LBB1584:
 2311              	.LBB1585:
 2312              		.loc 4 1532 0 is_stmt 1
 2313 0094 7FE3FB78 		mr 3,31
 2314 0098 48000001 		bl _ZNSt8__detail15_List_node_base9_M_unhookEv
 2315              	.LVL177:
 2316              	.LBB1586:
 2317              	.LBB1587:
 2318              	.LBB1588:
 2319              		.loc 6 98 0
 2320 009c 7FE3FB78 		mr 3,31
 2321 00a0 48000001 		bl _ZdlPv
 2322              	.LVL178:
 2323              	.LBE1588:
 2324              	.LBE1587:
 2325              	.LBE1586:
 2326              	.LBE1585:
 2327              	.LBE1584:
 2328              	.LBE1583:
 2329              	.LBE1582:
 2330              	.LBE1579:
 2331              		.loc 1 876 0
 2332 00a4 7F9DF000 		cmpw 7,29,30
 2333 00a8 409EFFAC 		bne+ 7,.L132
 2334              	.LVL179:
 2335              	.L123:
 2336              	.LBB1589:
 2337              	.LBB1590:
 2338              	.LBB1591:
 2339              		.loc 1 343 0
 2340 00ac 813B0000 		lwz 9,0(27)
 2341 00b0 7F63DB78 		mr 3,27
 2342 00b4 8009000C 		lwz 0,12(9)
 2343 00b8 7C0903A6 		mtctr 0
 2344              	.LEHB18:
 2345 00bc 4E800421 		bctrl
 2346              	.LEHE18:
 2347              	.LBE1591:
 2348              	.LBE1590:
 2349              	.LBE1589:
 2350              	.LBE1596:
 2351              		.loc 1 890 0
 2352 00c0 80010024 		lwz 0,36(1)
 2353 00c4 8361000C 		lwz 27,12(1)
 2354              	.LVL180:
 2355 00c8 7C0803A6 		mtlr 0
 2356 00cc 83810010 		lwz 28,16(1)
 2357              	.LVL181:
 2358 00d0 83A10014 		lwz 29,20(1)
 2359              	.LVL182:
 2360 00d4 83C10018 		lwz 30,24(1)
 2361 00d8 83E1001C 		lwz 31,28(1)
 2362 00dc 38210020 		addi 1,1,32
 2363              		.cfi_remember_state
 2364              	.LCFI35:
 2365              		.cfi_def_cfa_offset 0
 2366              		.cfi_restore 31
 2367              		.cfi_restore 30
 2368              		.cfi_restore 29
 2369              		.cfi_restore 28
 2370              		.cfi_restore 27
 2371 00e0 4E800020 		blr
 2372              	.LVL183:
 2373              	.L133:
 2374              	.LCFI36:
 2375              		.cfi_restore_state
 2376              	.LBB1597:
 2377              	.LBB1592:
 2378              	.LBB1593:
 2379              	.LBB1594:
 2380              		.loc 1 343 0
 2381 00e4 813B0000 		lwz 9,0(27)
 2382 00e8 7C7F1B78 		mr 31,3
 2383              	.LVL184:
 2384 00ec 7F63DB78 		mr 3,27
 2385 00f0 8009000C 		lwz 0,12(9)
 2386 00f4 7C0903A6 		mtctr 0
 2387 00f8 4E800421 		bctrl
 2388 00fc 7FE3FB78 		mr 3,31
 2389              	.LEHB19:
 2390 0100 48000001 		bl _Unwind_Resume
 2391              	.LEHE19:
 2392              	.LBE1594:
 2393              	.LBE1593:
 2394              	.LBE1592:
 2395              	.LBE1597:
 2396              		.cfi_endproc
 2397              	.LFE1668:
 2398              		.section	.gcc_except_table
 2399              	.LLSDA1668:
 2400 005c FF       		.byte	0xff
 2401 005d FF       		.byte	0xff
 2402 005e 01       		.byte	0x1
 2403 005f 13       		.uleb128 .LLSDACSE1668-.LLSDACSB1668
 2404              	.LLSDACSB1668:
 2405 0060 38       		.uleb128 .LEHB16-.LFB1668
 2406 0061 04       		.uleb128 .LEHE16-.LEHB16
 2407 0062 00       		.uleb128 0
 2408 0063 00       		.uleb128 0
 2409 0064 6C       		.uleb128 .LEHB17-.LFB1668
 2410 0065 28       		.uleb128 .LEHE17-.LEHB17
 2411 0066 E401     		.uleb128 .L133-.LFB1668
 2412 0068 00       		.uleb128 0
 2413 0069 BC01     		.uleb128 .LEHB18-.LFB1668
 2414 006b 04       		.uleb128 .LEHE18-.LEHB18
 2415 006c 00       		.uleb128 0
 2416 006d 00       		.uleb128 0
 2417 006e 8002     		.uleb128 .LEHB19-.LFB1668
 2418 0070 04       		.uleb128 .LEHE19-.LEHB19
 2419 0071 00       		.uleb128 0
 2420 0072 00       		.uleb128 0
 2421              	.LLSDACSE1668:
 2422              		.section	.text._ZN7sigslot13_signal_base2IP10GuiElementbNS_15single_threadedEE15slot_disconnectEPN
 2423              		.size	_ZN7sigslot13_signal_base2IP10GuiElementbNS_15single_threadedEE15slot_disconnectEPNS_9has_sl
 2424              		.section	.text._ZN10GuiElement10ResetStateEv,"axG",@progbits,_ZN10GuiElement10ResetStateEv,comdat
 2425              		.align 2
 2426              		.weak	_ZN10GuiElement10ResetStateEv
 2427              		.type	_ZN10GuiElement10ResetStateEv, @function
 2428              	_ZN10GuiElement10ResetStateEv:
 2429              	.LFB1402:
 2430              		.loc 2 183 0
 2431              		.cfi_startproc
 2432              	.LVL185:
 2433 0000 7C0802A6 		mflr 0
 2434 0004 9421FFF8 		stwu 1,-8(1)
 2435              	.LCFI37:
 2436              		.cfi_def_cfa_offset 8
 2437              		.cfi_register 65, 0
 2438 0008 9001000C 		stw 0,12(1)
 2439              		.loc 2 185 0
 2440 000c 80030048 		lwz 0,72(3)
 2441              		.cfi_offset 65, 4
 2442 0010 2F800004 		cmpwi 7,0,4
 2443 0014 419E001C 		beq- 7,.L135
 2444              	.LVL186:
 2445              	.LBB1600:
 2446              	.LBB1601:
 2447              		.loc 2 186 0
 2448 0018 81230000 		lwz 9,0(3)
 2449 001c 38800000 		li 4,0
 2450 0020 38A0FFFF 		li 5,-1
 2451 0024 80090050 		lwz 0,80(9)
 2452 0028 7C0903A6 		mtctr 0
 2453 002c 4E800421 		bctrl
 2454              	.LVL187:
 2455              	.L135:
 2456              	.LBE1601:
 2457              	.LBE1600:
 2458              		.loc 2 187 0
 2459 0030 8001000C 		lwz 0,12(1)
 2460 0034 38210008 		addi 1,1,8
 2461              	.LCFI38:
 2462              		.cfi_def_cfa_offset 0
 2463 0038 7C0803A6 		mtlr 0
 2464 003c 4E800020 		blr
 2465              		.cfi_endproc
 2466              	.LFE1402:
 2467              		.size	_ZN10GuiElement10ResetStateEv, .-_ZN10GuiElement10ResetStateEv
 2468              		.section	".text"
 2469              		.align 2
 2470              		.globl _ZN13GuiFrameImage14CreateDrawListEv
 2471              		.type	_ZN13GuiFrameImage14CreateDrawListEv, @function
 2472              	_ZN13GuiFrameImage14CreateDrawListEv:
 2473              	.LFB1434:
 2474              		.loc 3 46 0
 2475              		.cfi_startproc
 2476              	.LVL188:
 2477 0000 7C0802A6 		mflr 0
 2478 0004 9421FCC8 		stwu 1,-824(1)
 2479              	.LCFI39:
 2480              		.cfi_def_cfa_offset 824
 2481              		.cfi_register 65, 0
 2482 0008 93C102A0 		stw 30,672(1)
 2483 000c 7C7E1B78 		mr 30,3
 2484              		.cfi_offset 30, -152
 2485 0010 9001033C 		stw 0,828(1)
 2486 0014 DA6102D0 		stfd 19,720(1)
 2487              	.LBB1602:
 2488              		.loc 3 47 0
 2489 0018 808300A0 		lwz 4,160(3)
 2490 001c 8063009C 		lwz 3,156(3)
 2491              	.LVL189:
 2492 0020 38840040 		addi 4,4,64
 2493              	.LBE1602:
 2494              		.loc 3 46 0
 2495 0024 DA8102D8 		stfd 20,728(1)
 2496 0028 DAA102E0 		stfd 21,736(1)
 2497 002c DAC102E8 		stfd 22,744(1)
 2498 0030 DB210300 		stfd 25,768(1)
 2499 0034 DB610310 		stfd 27,784(1)
 2500 0038 DB810318 		stfd 28,792(1)
 2501 003c DBA10320 		stfd 29,800(1)
 2502 0040 DBC10328 		stfd 30,808(1)
 2503 0044 DBE10330 		stfd 31,816(1)
 2504 0048 9321028C 		stw 25,652(1)
 2505 004c 93410290 		stw 26,656(1)
 2506              	.LBB1834:
 2507              		.loc 3 59 0
 2508 0050 3F400000 		lis 26,.LC1@ha
 2509              		.cfi_offset 26, -168
 2510              		.cfi_offset 25, -172
 2511              		.cfi_offset 63, -8
 2512              		.cfi_offset 62, -16
 2513              		.cfi_offset 61, -24
 2514              		.cfi_offset 60, -32
 2515              		.cfi_offset 59, -40
 2516              		.cfi_offset 57, -56
 2517              		.cfi_offset 54, -80
 2518              		.cfi_offset 53, -88
 2519              		.cfi_offset 52, -96
 2520              		.cfi_offset 51, -104
 2521              		.cfi_offset 65, 4
 2522              	.LBE1834:
 2523              		.loc 3 46 0
 2524 0054 93610294 		stw 27,660(1)
 2525              	.LBB1835:
 2526              		.loc 3 59 0
 2527 0058 3F604330 		lis 27,0x4330
 2528              		.cfi_offset 27, -164
 2529              	.LBE1835:
 2530              		.loc 3 46 0
 2531 005c 93810298 		stw 28,664(1)
 2532 0060 93A1029C 		stw 29,668(1)
 2533 0064 93E102A4 		stw 31,676(1)
 2534 0068 D9C102A8 		stfd 14,680(1)
 2535 006c D9E102B0 		stfd 15,688(1)
 2536 0070 DA0102B8 		stfd 16,696(1)
 2537 0074 DA2102C0 		stfd 17,704(1)
 2538 0078 DA4102C8 		stfd 18,712(1)
 2539 007c DAE102F0 		stfd 23,752(1)
 2540 0080 DB0102F8 		stfd 24,760(1)
 2541 0084 DB410308 		stfd 26,776(1)
 2542 0088 92610274 		stw 19,628(1)
 2543 008c 92810278 		stw 20,632(1)
 2544 0090 92A1027C 		stw 21,636(1)
 2545 0094 92C10280 		stw 22,640(1)
 2546 0098 92E10284 		stw 23,644(1)
 2547 009c 93010288 		stw 24,648(1)
 2548              	.LBB1836:
 2549              		.loc 3 47 0
 2550              		.cfi_offset 24, -176
 2551              		.cfi_offset 23, -180
 2552              		.cfi_offset 22, -184
 2553              		.cfi_offset 21, -188
 2554              		.cfi_offset 20, -192
 2555              		.cfi_offset 19, -196
 2556              		.cfi_offset 58, -48
 2557              		.cfi_offset 56, -64
 2558              		.cfi_offset 55, -72
 2559              		.cfi_offset 50, -112
 2560              		.cfi_offset 49, -120
 2561              		.cfi_offset 48, -128
 2562              		.cfi_offset 47, -136
 2563              		.cfi_offset 46, -144
 2564              		.cfi_offset 31, -148
 2565              		.cfi_offset 29, -156
 2566              		.cfi_offset 28, -160
 2567 00a0 48000001 		bl GX_BeginDispList
 2568              		.loc 3 49 0
 2569 00a4 38600000 		li 3,0
 2570 00a8 38800004 		li 4,4
 2571 00ac 48000001 		bl GX_SetTevOp
 2572              		.loc 3 50 0
 2573 00b0 38800000 		li 4,0
 2574 00b4 3860000D 		li 3,13
 2575 00b8 48000001 		bl GX_SetVtxDesc
 2576              		.loc 3 52 0
 2577 00bc 813E0000 		lwz 9,0(30)
 2578 00c0 7FC3F378 		mr 3,30
 2579 00c4 80090024 		lwz 0,36(9)
 2580 00c8 7C0903A6 		mtctr 0
 2581 00cc 4E800421 		bctrl
 2582              		.loc 3 53 0
 2583 00d0 813E0000 		lwz 9,0(30)
 2584              		.loc 3 52 0
 2585 00d4 907E00CC 		stw 3,204(30)
 2586              		.loc 3 53 0
 2587 00d8 7FC3F378 		mr 3,30
 2588 00dc 80090028 		lwz 0,40(9)
 2589 00e0 7C0903A6 		mtctr 0
 2590 00e4 4E800421 		bctrl
 2591              		.loc 3 54 0
 2592 00e8 813E0000 		lwz 9,0(30)
 2593              		.loc 3 53 0
 2594 00ec 907E00D0 		stw 3,208(30)
 2595              		.loc 3 54 0
 2596 00f0 7FC3F378 		mr 3,30
 2597 00f4 80090010 		lwz 0,16(9)
 2598 00f8 7C0903A6 		mtctr 0
 2599 00fc 4E800421 		bctrl
 2600              		.loc 3 55 0
 2601 0100 813E0000 		lwz 9,0(30)
 2602              		.loc 3 54 0
 2603 0104 907E00C0 		stw 3,192(30)
 2604              		.loc 3 55 0
 2605 0108 7FC3F378 		mr 3,30
 2606 010c 80090014 		lwz 0,20(9)
 2607 0110 7C0903A6 		mtctr 0
 2608 0114 4E800421 		bctrl
 2609              		.loc 3 56 0
 2610 0118 813E0000 		lwz 9,0(30)
 2611              		.loc 3 55 0
 2612 011c 907E00C4 		stw 3,196(30)
 2613              		.loc 3 56 0
 2614 0120 7FC3F378 		mr 3,30
 2615 0124 80090018 		lwz 0,24(9)
 2616 0128 7C0903A6 		mtctr 0
 2617 012c 4E800421 		bctrl
 2618              		.loc 3 57 0
 2619 0130 813E0000 		lwz 9,0(30)
 2620              		.loc 3 56 0
 2621 0134 907E00C8 		stw 3,200(30)
 2622              		.loc 3 57 0
 2623 0138 7FC3F378 		mr 3,30
 2624 013c 80090064 		lwz 0,100(9)
 2625 0140 7C0903A6 		mtctr 0
 2626 0144 4E800421 		bctrl
 2627              		.loc 3 65 0
 2628 0148 813E00D0 		lwz 9,208(30)
 2629              		.loc 3 62 0
 2630 014c 811E00C0 		lwz 8,192(30)
 2631              		.loc 3 68 0
 2632 0150 38800000 		li 4,0
 2633              		.loc 3 65 0
 2634 0154 6D298000 		xoris 9,9,0x8000
 2635              		.loc 3 63 0
 2636 0158 815E00C4 		lwz 10,196(30)
 2637              		.loc 3 64 0
 2638 015c 817E00CC 		lwz 11,204(30)
 2639              		.loc 3 62 0
 2640 0160 6D088000 		xoris 8,8,0x8000
 2641              		.loc 3 60 0
 2642 0164 801E00C8 		lwz 0,200(30)
 2643              		.loc 3 63 0
 2644 0168 6D4A8000 		xoris 10,10,0x8000
 2645              		.loc 3 65 0
 2646 016c 91210034 		stw 9,52(1)
 2647              		.loc 3 59 0
 2648 0170 6C698000 		xoris 9,3,0x8000
 2649              		.loc 3 62 0
 2650 0174 9101001C 		stw 8,28(1)
 2651              		.loc 3 60 0
 2652 0178 6C008000 		xoris 0,0,0x8000
 2653              		.loc 3 59 0
 2654 017c 9121000C 		stw 9,12(1)
 2655              		.loc 3 64 0
 2656 0180 6D6B8000 		xoris 11,11,0x8000
 2657              		.loc 3 62 0
 2658 0184 93610018 		stw 27,24(1)
 2659              		.loc 3 68 0
 2660 0188 38A00004 		li 5,4
 2661              		.loc 3 59 0
 2662 018c 93610008 		stw 27,8(1)
 2663 0190 C3BA0000 		lfs 29,.LC1@l(26)
 2664              		.loc 3 62 0
 2665 0194 CB810018 		lfd 28,24(1)
 2666              		.loc 3 59 0
 2667 0198 CAC10008 		lfd 22,8(1)
 2668              		.loc 3 63 0
 2669 019c 91410024 		stw 10,36(1)
 2670              		.loc 3 62 0
 2671 01a0 FF9CE828 		fsub 28,28,29
 2672              		.loc 3 60 0
 2673 01a4 90010014 		stw 0,20(1)
 2674              		.loc 3 59 0
 2675 01a8 FED6E828 		fsub 22,22,29
 2676              		.loc 3 63 0
 2677 01ac 93610020 		stw 27,32(1)
 2678              		.loc 3 60 0
 2679 01b0 93610010 		stw 27,16(1)
 2680              		.loc 3 62 0
 2681 01b4 FF80E018 		frsp 28,28
 2682              		.loc 3 64 0
 2683 01b8 9161002C 		stw 11,44(1)
 2684              		.loc 3 59 0
 2685 01bc FEC0B018 		frsp 22,22
 2686              	.LVL190:
 2687              		.loc 3 64 0
 2688 01c0 93610028 		stw 27,40(1)
 2689              		.loc 3 65 0
 2690 01c4 93610030 		stw 27,48(1)
 2691              		.loc 3 63 0
 2692 01c8 CB210020 		lfd 25,32(1)
 2693              		.loc 3 60 0
 2694 01cc CBE10010 		lfd 31,16(1)
 2695              		.loc 3 64 0
 2696 01d0 CB610028 		lfd 27,40(1)
 2697              		.loc 3 63 0
 2698 01d4 FF39E828 		fsub 25,25,29
 2699              		.loc 3 65 0
 2700 01d8 CBC10030 		lfd 30,48(1)
 2701              		.loc 3 60 0
 2702 01dc FFFFE828 		fsub 31,31,29
 2703              		.loc 3 57 0
 2704 01e0 907E00D4 		stw 3,212(30)
 2705              		.loc 3 68 0
 2706 01e4 38600080 		li 3,128
 2707              		.loc 3 63 0
 2708 01e8 FF20C818 		frsp 25,25
 2709              		.loc 3 68 0
 2710 01ec 48000001 		bl GX_Begin
 2711              		.loc 3 69 0
 2712 01f0 C1BE0094 		lfs 13,148(30)
 2713              		.loc 3 60 0
 2714 01f4 FFE0F818 		frsp 31,31
 2715              	.LVL191:
 2716              	.LBB1603:
 2717              	.LBB1604:
 2718              		.file 7 "d:/devkitPro/libogc/include/ogc/gx.h"
 2719              		.loc 7 2123 0
 2720 01f8 3D200000 		lis 9,wgPipe@ha
 2721              	.LBE1604:
 2722              	.LBE1603:
 2723              		.loc 3 69 0
 2724 01fc EDBC682A 		fadds 13,28,13
 2725              	.LBB1609:
 2726              	.LBB1605:
 2727              		.loc 7 2123 0
 2728 0200 83E90000 		lwz 31,wgPipe@l(9)
 2729              	.LBE1605:
 2730              	.LBE1609:
 2731              		.loc 3 70 0
 2732 0204 FC00B01E 		fctiwz 0,22
 2733 0208 3921026C 		addi 9,1,620
 2734              		.loc 3 64 0
 2735 020c FF7BE828 		fsub 27,27,29
 2736              		.loc 3 83 0
 2737 0210 386000A0 		li 3,160
 2738              	.LBB1610:
 2739              	.LBB1606:
 2740              		.loc 7 2123 0
 2741 0214 D1BF0000 		stfs 13,0(31)
 2742              	.LBE1606:
 2743              	.LBE1610:
 2744              		.loc 3 83 0
 2745 0218 38800000 		li 4,0
 2746              	.LBB1611:
 2747              	.LBB1607:
 2748              		.loc 7 2124 0
 2749 021c D33F0000 		stfs 25,0(31)
 2750              	.LBE1607:
 2751              	.LBE1611:
 2752              		.loc 3 65 0
 2753 0220 FFDEE828 		fsub 30,30,29
 2754              	.LBB1612:
 2755              	.LBB1608:
 2756              		.loc 7 2125 0
 2757 0224 D3FF0000 		stfs 31,0(31)
 2758              	.LBE1608:
 2759              	.LBE1612:
 2760              		.loc 3 64 0
 2761 0228 FF60D818 		frsp 27,27
 2762              		.loc 3 70 0
 2763 022c 7C004FAE 		stfiwx 0,0,9
 2764              		.loc 3 65 0
 2765 0230 FFC0F018 		frsp 30,30
 2766              		.loc 3 70 0
 2767 0234 8321026C 		lwz 25,620(1)
 2768              		.loc 3 64 0
 2769 0238 EF7BE02A 		fadds 27,27,28
 2770              	.LVL192:
 2771              		.loc 3 70 0
 2772 023c 897E00A4 		lbz 11,164(30)
 2773 0240 893E00A5 		lbz 9,165(30)
 2774              		.loc 3 65 0
 2775 0244 EFDEC82A 		fadds 30,30,25
 2776              	.LVL193:
 2777              		.loc 3 70 0
 2778 0248 881E00A6 		lbz 0,166(30)
 2779 024c 7F3CCB78 		mr 28,25
 2780              	.LBB1613:
 2781              	.LBB1614:
 2782              		.loc 7 2229 0
 2783 0250 997F0000 		stb 11,0(31)
 2784              	.LBE1614:
 2785              	.LBE1613:
 2786              		.loc 3 70 0
 2787 0254 573D063E 		rlwinm 29,25,0,0xff
 2788              	.LBB1616:
 2789              	.LBB1615:
 2790              		.loc 7 2230 0
 2791 0258 993F0000 		stb 9,0(31)
 2792              	.LVL194:
 2793              		.loc 7 2231 0
 2794 025c 981F0000 		stb 0,0(31)
 2795              		.loc 7 2232 0
 2796 0260 9B3F0000 		stb 25,0(31)
 2797              	.LBE1615:
 2798              	.LBE1616:
 2799              		.loc 3 72 0
 2800 0264 C01E0094 		lfs 0,148(30)
 2801 0268 EC1B0028 		fsubs 0,27,0
 2802              	.LVL195:
 2803              	.LBB1617:
 2804              	.LBB1618:
 2805              		.loc 7 2123 0
 2806 026c D01F0000 		stfs 0,0(31)
 2807              		.loc 7 2124 0
 2808 0270 D33F0000 		stfs 25,0(31)
 2809              		.loc 7 2125 0
 2810 0274 D3FF0000 		stfs 31,0(31)
 2811              	.LBE1618:
 2812              	.LBE1617:
 2813              		.loc 3 73 0
 2814 0278 897E00A4 		lbz 11,164(30)
 2815              	.LVL196:
 2816 027c 893E00A5 		lbz 9,165(30)
 2817              	.LVL197:
 2818 0280 881E00A6 		lbz 0,166(30)
 2819              	.LVL198:
 2820              	.LBB1619:
 2821              	.LBB1620:
 2822              		.loc 7 2229 0
 2823 0284 997F0000 		stb 11,0(31)
 2824              		.loc 7 2230 0
 2825 0288 993F0000 		stb 9,0(31)
 2826              		.loc 7 2231 0
 2827 028c 981F0000 		stb 0,0(31)
 2828              		.loc 7 2232 0
 2829 0290 9B3F0000 		stb 25,0(31)
 2830              	.LBE1620:
 2831              	.LBE1619:
 2832              		.loc 3 75 0
 2833 0294 C01E0094 		lfs 0,148(30)
 2834              	.LVL199:
 2835 0298 EDBB0028 		fsubs 13,27,0
 2836              	.LVL200:
 2837 029c EC19002A 		fadds 0,25,0
 2838              	.LVL201:
 2839              	.LBB1621:
 2840              	.LBB1622:
 2841              		.loc 7 2123 0
 2842 02a0 D1BF0000 		stfs 13,0(31)
 2843              		.loc 7 2124 0
 2844 02a4 D01F0000 		stfs 0,0(31)
 2845              		.loc 7 2125 0
 2846 02a8 D3FF0000 		stfs 31,0(31)
 2847              	.LBE1622:
 2848              	.LBE1621:
 2849              		.loc 3 76 0
 2850 02ac 881E00AA 		lbz 0,170(30)
 2851              	.LVL202:
 2852 02b0 897E00A8 		lbz 11,168(30)
 2853              	.LVL203:
 2854 02b4 893E00A9 		lbz 9,169(30)
 2855              	.LVL204:
 2856              	.LBB1623:
 2857              	.LBB1624:
 2858              		.loc 7 2229 0
 2859 02b8 997F0000 		stb 11,0(31)
 2860              		.loc 7 2230 0
 2861 02bc 993F0000 		stb 9,0(31)
 2862              		.loc 7 2231 0
 2863 02c0 981F0000 		stb 0,0(31)
 2864              		.loc 7 2232 0
 2865 02c4 9B3F0000 		stb 25,0(31)
 2866              	.LBE1624:
 2867              	.LBE1623:
 2868              		.loc 3 78 0
 2869 02c8 C01E0094 		lfs 0,148(30)
 2870              	.LVL205:
 2871 02cc EDA0E02A 		fadds 13,0,28
 2872              	.LVL206:
 2873 02d0 EC19002A 		fadds 0,25,0
 2874              	.LVL207:
 2875              	.LBB1625:
 2876              	.LBB1626:
 2877              		.loc 7 2123 0
 2878 02d4 D1BF0000 		stfs 13,0(31)
 2879              		.loc 7 2124 0
 2880 02d8 D01F0000 		stfs 0,0(31)
 2881              		.loc 7 2125 0
 2882 02dc D3FF0000 		stfs 31,0(31)
 2883              	.LBE1626:
 2884              	.LBE1625:
 2885              		.loc 3 79 0
 2886 02e0 897E00A8 		lbz 11,168(30)
 2887              	.LVL208:
 2888 02e4 893E00A9 		lbz 9,169(30)
 2889              	.LVL209:
 2890 02e8 881E00AA 		lbz 0,170(30)
 2891              	.LVL210:
 2892              	.LBB1627:
 2893              	.LBB1628:
 2894              		.loc 7 2229 0
 2895 02ec 997F0000 		stb 11,0(31)
 2896              		.loc 7 2230 0
 2897 02f0 993F0000 		stb 9,0(31)
 2898              		.loc 7 2231 0
 2899 02f4 981F0000 		stb 0,0(31)
 2900              		.loc 7 2232 0
 2901 02f8 9B3F0000 		stb 25,0(31)
 2902              	.LBE1628:
 2903              	.LBE1627:
 2904              		.loc 3 83 0
 2905 02fc 80BE0090 		lwz 5,144(30)
 2906 0300 38A50001 		addi 5,5,1
 2907 0304 54A5043E 		rlwinm 5,5,0,0xffff
 2908 0308 48000001 		bl GX_Begin
 2909              	.LVL211:
 2910              	.LBB1629:
 2911              		.loc 3 86 0
 2912 030c 895E00B0 		lbz 10,176(30)
 2913              	.LVL212:
 2914              		.loc 3 87 0
 2915 0310 897E00B1 		lbz 11,177(30)
 2916              	.LVL213:
 2917              		.loc 3 88 0
 2918 0314 881E00B2 		lbz 0,178(30)
 2919              	.LVL214:
 2920              		.loc 3 89 0
 2921 0318 80DE0090 		lwz 6,144(30)
 2922 031c 88FE00A4 		lbz 7,164(30)
 2923              		.loc 3 90 0
 2924 0320 891E00A5 		lbz 8,165(30)
 2925              		.loc 3 89 0
 2926 0324 38C6FFFF 		addi 6,6,-1
 2927              		.loc 3 91 0
 2928 0328 893E00A6 		lbz 9,166(30)
 2929              		.loc 3 89 0
 2930 032c 7CEA3850 		subf 7,10,7
 2931              		.loc 3 92 0
 2932 0330 C01E0094 		lfs 0,148(30)
 2933              		.loc 3 90 0
 2934 0334 7D0B4050 		subf 8,11,8
 2935              		.loc 3 91 0
 2936 0338 7D204850 		subf 9,0,9
 2937              		.loc 3 89 0
 2938 033c 6CE78000 		xoris 7,7,0x8000
 2939              		.loc 3 90 0
 2940 0340 6D088000 		xoris 8,8,0x8000
 2941              		.loc 3 91 0
 2942 0344 6D298000 		xoris 9,9,0x8000
 2943              		.loc 3 92 0
 2944 0348 ED80E02A 		fadds 12,0,28
 2945              		.loc 3 89 0
 2946 034c 6CC68000 		xoris 6,6,0x8000
 2947              		.loc 3 92 0
 2948 0350 EDB9002A 		fadds 13,25,0
 2949              		.loc 3 89 0
 2950 0354 90C1003C 		stw 6,60(1)
 2951 0358 93610038 		stw 27,56(1)
 2952 035c 90E10044 		stw 7,68(1)
 2953 0360 93610040 		stw 27,64(1)
 2954              		.loc 3 90 0
 2955 0364 9101004C 		stw 8,76(1)
 2956 0368 93610048 		stw 27,72(1)
 2957              		.loc 3 91 0
 2958 036c 91210054 		stw 9,84(1)
 2959 0370 93610050 		stw 27,80(1)
 2960              		.loc 3 89 0
 2961 0374 C8010038 		lfd 0,56(1)
 2962 0378 CAA10040 		lfd 21,64(1)
 2963              		.loc 3 90 0
 2964 037c CA810048 		lfd 20,72(1)
 2965              		.loc 3 89 0
 2966 0380 FC00E828 		fsub 0,0,29
 2967              		.loc 3 91 0
 2968 0384 CA610050 		lfd 19,80(1)
 2969              		.loc 3 89 0
 2970 0388 FEB5E828 		fsub 21,21,29
 2971              	.LBB1630:
 2972              	.LBB1631:
 2973              		.loc 7 2123 0
 2974 038c D19F0000 		stfs 12,0(31)
 2975              	.LBE1631:
 2976              	.LBE1630:
 2977              		.loc 3 90 0
 2978 0390 FE94E828 		fsub 20,20,29
 2979              	.LBB1634:
 2980              	.LBB1632:
 2981              		.loc 7 2124 0
 2982 0394 D1BF0000 		stfs 13,0(31)
 2983              	.LBE1632:
 2984              	.LBE1634:
 2985              		.loc 3 91 0
 2986 0398 FE73E828 		fsub 19,19,29
 2987              	.LBB1635:
 2988              	.LBB1633:
 2989              		.loc 7 2125 0
 2990 039c D3FF0000 		stfs 31,0(31)
 2991              	.LBE1633:
 2992              	.LBE1635:
 2993              		.loc 3 89 0
 2994 03a0 FC000018 		frsp 0,0
 2995 03a4 FEA0A818 		frsp 21,21
 2996              		.loc 3 93 0
 2997 03a8 893E00AA 		lbz 9,170(30)
 2998              		.loc 3 90 0
 2999 03ac FE80A018 		frsp 20,20
 3000              		.loc 3 93 0
 3001 03b0 88FE00A8 		lbz 7,168(30)
 3002              		.loc 3 91 0
 3003 03b4 FE609818 		frsp 19,19
 3004              		.loc 3 93 0
 3005 03b8 891E00A9 		lbz 8,169(30)
 3006              		.loc 3 89 0
 3007 03bc EEB50024 		fdivs 21,21,0
 3008              	.LBB1636:
 3009              	.LBB1637:
 3010              		.loc 7 2229 0
 3011 03c0 98FF0000 		stb 7,0(31)
 3012              		.loc 7 2230 0
 3013 03c4 991F0000 		stb 8,0(31)
 3014              	.LVL215:
 3015              		.loc 7 2231 0
 3016 03c8 993F0000 		stb 9,0(31)
 3017              		.loc 7 2232 0
 3018 03cc 9B3F0000 		stb 25,0(31)
 3019              	.LBE1637:
 3020              	.LBE1636:
 3021              	.LBB1638:
 3022              		.loc 3 95 0
 3023 03d0 813E0090 		lwz 9,144(30)
 3024 03d4 2F890000 		cmpwi 7,9,0
 3025              	.LBE1638:
 3026              		.loc 3 90 0
 3027 03d8 EE940024 		fdivs 20,20,0
 3028              	.LVL216:
 3029              		.loc 3 91 0
 3030 03dc EE730024 		fdivs 19,19,0
 3031              	.LVL217:
 3032              	.LBB1645:
 3033              		.loc 3 95 0
 3034 03e0 409D016C 		ble- 7,.L138
 3035 03e4 6D4A8000 		xoris 10,10,0x8000
 3036              	.LVL218:
 3037 03e8 6D6B8000 		xoris 11,11,0x8000
 3038              	.LVL219:
 3039 03ec 6C008000 		xoris 0,0,0x8000
 3040              	.LVL220:
 3041 03f0 93610058 		stw 27,88(1)
 3042 03f4 93610060 		stw 27,96(1)
 3043 03f8 3EA00000 		lis 21,.LC4@ha
 3044 03fc 93610068 		stw 27,104(1)
 3045 0400 3F600000 		lis 27,.LC5@ha
 3046 0404 9141005C 		stw 10,92(1)
 3047 0408 3AC00000 		li 22,0
 3048 040c 91610064 		stw 11,100(1)
 3049 0410 3B000000 		li 24,0
 3050 0414 9001006C 		stw 0,108(1)
 3051 0418 3B3A0000 		la 25,.LC1@l(26)
 3052              	.LVL221:
 3053 041c CA010058 		lfd 16,88(1)
 3054 0420 3AB5000C 		la 21,.LC4@l(21)
 3055 0424 CA210060 		lfd 17,96(1)
 3056 0428 3B7B0010 		la 27,.LC5@l(27)
 3057 042c CA410068 		lfd 18,104(1)
 3058 0430 FE10E828 		fsub 16,16,29
 3059 0434 FE31E828 		fsub 17,17,29
 3060 0438 FE52E828 		fsub 18,18,29
 3061 043c FE008018 		frsp 16,16
 3062 0440 FE208818 		frsp 17,17
 3063 0444 FE409018 		frsp 18,18
 3064              	.LVL222:
 3065              	.L139:
 3066              		.loc 3 97 0 discriminator 2
 3067 0448 3929FFFF 		addi 9,9,-1
 3068              	.LVL223:
 3069 044c 6EC08000 		xoris 0,22,0x8000
 3070 0450 6D298000 		xoris 9,9,0x8000
 3071              	.LVL224:
 3072 0454 3EE04330 		lis 23,0x4330
 3073 0458 90010074 		stw 0,116(1)
 3074              		.loc 3 95 0 discriminator 2
 3075 045c 3AD6005A 		addi 22,22,90
 3076              	.LVL225:
 3077              		.loc 3 97 0 discriminator 2
 3078 0460 9121007C 		stw 9,124(1)
 3079 0464 92E10070 		stw 23,112(1)
 3080 0468 92E10078 		stw 23,120(1)
 3081 046c CAE10070 		lfd 23,112(1)
 3082 0470 C9810078 		lfd 12,120(1)
 3083 0474 C3B90000 		lfs 29,0(25)
 3084 0478 C1B50000 		lfs 13,0(21)
 3085 047c FEF7E828 		fsub 23,23,29
 3086 0480 C01B0000 		lfs 0,0(27)
 3087 0484 FD8CE828 		fsub 12,12,29
 3088              		.loc 3 98 0 discriminator 2
 3089 0488 C35E0094 		lfs 26,148(30)
 3090              		.loc 3 97 0 discriminator 2
 3091 048c FEE0B818 		frsp 23,23
 3092 0490 FD806018 		frsp 12,12
 3093              		.loc 3 98 0 discriminator 2
 3094 0494 FF00D090 		fmr 24,26
 3095              		.loc 3 97 0 discriminator 2
 3096 0498 EEF76024 		fdivs 23,23,12
 3097 049c EEF7682A 		fadds 23,23,13
 3098 04a0 EEF70032 		fmuls 23,23,0
 3099              		.loc 3 98 0 discriminator 2
 3100 04a4 FC20B890 		fmr 1,23
 3101 04a8 48000001 		bl cos
 3102              	.LVL226:
 3103 04ac EC1AE02A 		fadds 0,26,28
 3104 04b0 EF59D02A 		fadds 26,25,26
 3105 04b4 FC18007A 		fmadd 0,24,1,0
 3106 04b8 FC20B890 		fmr 1,23
 3107 04bc FEE00018 		frsp 23,0
 3108 04c0 48000001 		bl sin
 3109              		.loc 3 99 0 discriminator 2
 3110 04c4 6F008000 		xoris 0,24,0x8000
 3111              		.loc 3 98 0 discriminator 2
 3112 04c8 FF58D07A 		fmadd 26,24,1,26
 3113              		.loc 3 99 0 discriminator 2
 3114 04cc 39210260 		addi 9,1,608
 3115              	.LBB1639:
 3116              	.LBB1640:
 3117              		.loc 7 2123 0 discriminator 2
 3118 04d0 D2FF0000 		stfs 23,0(31)
 3119              	.LBE1640:
 3120              	.LBE1639:
 3121              		.loc 3 95 0 discriminator 2
 3122 04d4 3B180001 		addi 24,24,1
 3123              		.loc 3 98 0 discriminator 2
 3124 04d8 FF40D018 		frsp 26,26
 3125              	.LVL227:
 3126              	.LBB1642:
 3127              	.LBB1641:
 3128              		.loc 7 2124 0 discriminator 2
 3129 04dc D35F0000 		stfs 26,0(31)
 3130              		.loc 7 2125 0 discriminator 2
 3131 04e0 D3FF0000 		stfs 31,0(31)
 3132              	.LBE1641:
 3133              	.LBE1642:
 3134              		.loc 3 99 0 discriminator 2
 3135 04e4 90010084 		stw 0,132(1)
 3136 04e8 92E10080 		stw 23,128(1)
 3137 04ec C8010080 		lfd 0,128(1)
 3138 04f0 FFA0E828 		fsub 29,0,29
 3139 04f4 FFA0E818 		frsp 29,29
 3140 04f8 EDBD857A 		fmadds 13,29,21,16
 3141 04fc EC148F7A 		fmadds 0,20,29,17
 3142 0500 EFB3977A 		fmadds 29,19,29,18
 3143 0504 FDA0681E 		fctiwz 13,13
 3144 0508 FC00001E 		fctiwz 0,0
 3145 050c FFA0E81E 		fctiwz 29,29
 3146 0510 7DA04FAE 		stfiwx 13,0,9
 3147 0514 39210264 		addi 9,1,612
 3148 0518 7C004FAE 		stfiwx 0,0,9
 3149 051c 39210268 		addi 9,1,616
 3150 0520 7FA04FAE 		stfiwx 29,0,9
 3151 0524 81210264 		lwz 9,612(1)
 3152 0528 81610260 		lwz 11,608(1)
 3153 052c 80010268 		lwz 0,616(1)
 3154              	.LVL228:
 3155              	.LBB1643:
 3156              	.LBB1644:
 3157              		.loc 7 2229 0 discriminator 2
 3158 0530 997F0000 		stb 11,0(31)
 3159              		.loc 7 2230 0 discriminator 2
 3160 0534 993F0000 		stb 9,0(31)
 3161              		.loc 7 2231 0 discriminator 2
 3162 0538 981F0000 		stb 0,0(31)
 3163              		.loc 7 2232 0 discriminator 2
 3164 053c 9BBF0000 		stb 29,0(31)
 3165              	.LBE1644:
 3166              	.LBE1643:
 3167              		.loc 3 95 0 discriminator 2
 3168 0540 813E0090 		lwz 9,144(30)
 3169 0544 7F89C000 		cmpw 7,9,24
 3170 0548 419DFF00 		bgt+ 7,.L139
 3171              	.LVL229:
 3172              	.L138:
 3173              	.LBE1645:
 3174              	.LBE1629:
 3175              		.loc 3 105 0
 3176 054c 38600080 		li 3,128
 3177 0550 38800000 		li 4,0
 3178 0554 38A00004 		li 5,4
 3179 0558 48000001 		bl GX_Begin
 3180              		.loc 3 106 0
 3181 055c C01E0094 		lfs 0,148(30)
 3182              	.LBB1646:
 3183              	.LBB1647:
 3184              		.loc 7 2123 0
 3185 0560 D39F0000 		stfs 28,0(31)
 3186              	.LBE1647:
 3187              	.LBE1646:
 3188              		.loc 3 120 0
 3189 0564 386000A0 		li 3,160
 3190              		.loc 3 106 0
 3191 0568 EC19002A 		fadds 0,25,0
 3192              	.LVL230:
 3193              		.loc 3 120 0
 3194 056c 38800000 		li 4,0
 3195              	.LBB1649:
 3196              	.LBB1648:
 3197              		.loc 7 2124 0
 3198 0570 D01F0000 		stfs 0,0(31)
 3199              		.loc 7 2125 0
 3200 0574 D3FF0000 		stfs 31,0(31)
 3201              	.LBE1648:
 3202              	.LBE1649:
 3203              		.loc 3 107 0
 3204 0578 897E00B0 		lbz 11,176(30)
 3205 057c 893E00B1 		lbz 9,177(30)
 3206 0580 881E00B2 		lbz 0,178(30)
 3207              	.LVL231:
 3208              	.LBB1650:
 3209              	.LBB1651:
 3210              		.loc 7 2229 0
 3211 0584 997F0000 		stb 11,0(31)
 3212              		.loc 7 2230 0
 3213 0588 993F0000 		stb 9,0(31)
 3214              		.loc 7 2231 0
 3215 058c 981F0000 		stb 0,0(31)
 3216              		.loc 7 2232 0
 3217 0590 9B9F0000 		stb 28,0(31)
 3218              	.LBE1651:
 3219              	.LBE1650:
 3220              		.loc 3 109 0
 3221 0594 C01E0094 		lfs 0,148(30)
 3222              	.LVL232:
 3223 0598 EDA0E02A 		fadds 13,0,28
 3224 059c EC19002A 		fadds 0,25,0
 3225              	.LVL233:
 3226              	.LBB1652:
 3227              	.LBB1653:
 3228              		.loc 7 2123 0
 3229 05a0 D1BF0000 		stfs 13,0(31)
 3230              		.loc 7 2124 0
 3231 05a4 D01F0000 		stfs 0,0(31)
 3232              		.loc 7 2125 0
 3233 05a8 D3FF0000 		stfs 31,0(31)
 3234              	.LBE1653:
 3235              	.LBE1652:
 3236              		.loc 3 110 0
 3237 05ac 897E00A8 		lbz 11,168(30)
 3238              	.LVL234:
 3239 05b0 893E00A9 		lbz 9,169(30)
 3240              	.LVL235:
 3241 05b4 881E00AA 		lbz 0,170(30)
 3242              	.LVL236:
 3243              	.LBB1654:
 3244              	.LBB1655:
 3245              		.loc 7 2229 0
 3246 05b8 997F0000 		stb 11,0(31)
 3247              		.loc 7 2230 0
 3248 05bc 993F0000 		stb 9,0(31)
 3249              		.loc 7 2231 0
 3250 05c0 981F0000 		stb 0,0(31)
 3251              		.loc 7 2232 0
 3252 05c4 9B9F0000 		stb 28,0(31)
 3253              	.LBE1655:
 3254              	.LBE1654:
 3255              		.loc 3 112 0
 3256 05c8 C01E0094 		lfs 0,148(30)
 3257              	.LVL237:
 3258 05cc EDA0E02A 		fadds 13,0,28
 3259              	.LVL238:
 3260 05d0 EC1E0028 		fsubs 0,30,0
 3261              	.LVL239:
 3262              	.LBB1656:
 3263              	.LBB1657:
 3264              		.loc 7 2123 0
 3265 05d4 D1BF0000 		stfs 13,0(31)
 3266              		.loc 7 2124 0
 3267 05d8 D01F0000 		stfs 0,0(31)
 3268              		.loc 7 2125 0
 3269 05dc D3FF0000 		stfs 31,0(31)
 3270              	.LBE1657:
 3271              	.LBE1656:
 3272              		.loc 3 113 0
 3273 05e0 897E00AC 		lbz 11,172(30)
 3274              	.LVL240:
 3275 05e4 893E00AD 		lbz 9,173(30)
 3276              	.LVL241:
 3277 05e8 881E00AE 		lbz 0,174(30)
 3278              	.LVL242:
 3279              	.LBB1658:
 3280              	.LBB1659:
 3281              		.loc 7 2229 0
 3282 05ec 997F0000 		stb 11,0(31)
 3283              		.loc 7 2230 0
 3284 05f0 993F0000 		stb 9,0(31)
 3285              		.loc 7 2231 0
 3286 05f4 981F0000 		stb 0,0(31)
 3287              		.loc 7 2232 0
 3288 05f8 9B9F0000 		stb 28,0(31)
 3289              	.LBE1659:
 3290              	.LBE1658:
 3291              		.loc 3 115 0
 3292 05fc C01E0094 		lfs 0,148(30)
 3293              	.LVL243:
 3294              	.LBB1660:
 3295              	.LBB1661:
 3296              		.loc 7 2123 0
 3297 0600 D39F0000 		stfs 28,0(31)
 3298              	.LBE1661:
 3299              	.LBE1660:
 3300              		.loc 3 115 0
 3301 0604 EC1E0028 		fsubs 0,30,0
 3302              	.LVL244:
 3303              	.LBB1663:
 3304              	.LBB1662:
 3305              		.loc 7 2124 0
 3306 0608 D01F0000 		stfs 0,0(31)
 3307              		.loc 7 2125 0
 3308 060c D3FF0000 		stfs 31,0(31)
 3309              	.LBE1662:
 3310              	.LBE1663:
 3311              		.loc 3 116 0
 3312 0610 897E00B4 		lbz 11,180(30)
 3313              	.LVL245:
 3314 0614 893E00B5 		lbz 9,181(30)
 3315              	.LVL246:
 3316 0618 881E00B6 		lbz 0,182(30)
 3317              	.LVL247:
 3318              	.LBB1664:
 3319              	.LBB1665:
 3320              		.loc 7 2229 0
 3321 061c 997F0000 		stb 11,0(31)
 3322              		.loc 7 2230 0
 3323 0620 993F0000 		stb 9,0(31)
 3324              		.loc 7 2231 0
 3325 0624 981F0000 		stb 0,0(31)
 3326              		.loc 7 2232 0
 3327 0628 9B9F0000 		stb 28,0(31)
 3328              	.LBE1665:
 3329              	.LBE1664:
 3330              		.loc 3 120 0
 3331 062c 80BE0090 		lwz 5,144(30)
 3332 0630 38A50001 		addi 5,5,1
 3333 0634 54A50C3C 		rlwinm 5,5,1,16,30
 3334 0638 48000001 		bl GX_Begin
 3335              	.LVL248:
 3336              	.LBB1666:
 3337              		.loc 3 124 0
 3338 063c 891E00BC 		lbz 8,188(30)
 3339              	.LVL249:
 3340              		.loc 3 125 0
 3341 0640 895E00BD 		lbz 10,189(30)
 3342              	.LVL250:
 3343              		.loc 3 128 0
 3344 0644 3C004330 		lis 0,0x4330
 3345              		.loc 3 126 0
 3346 0648 897E00BE 		lbz 11,190(30)
 3347              	.LVL251:
 3348              		.loc 3 128 0
 3349 064c 80BE0090 		lwz 5,144(30)
 3350 0650 88DE00B4 		lbz 6,180(30)
 3351              		.loc 3 129 0
 3352 0654 88FE00B5 		lbz 7,181(30)
 3353              		.loc 3 128 0
 3354 0658 38A5FFFF 		addi 5,5,-1
 3355              		.loc 3 130 0
 3356 065c 893E00B6 		lbz 9,182(30)
 3357              		.loc 3 128 0
 3358 0660 7CC83050 		subf 6,8,6
 3359              		.loc 3 132 0
 3360 0664 C01E0094 		lfs 0,148(30)
 3361              		.loc 3 129 0
 3362 0668 7CEA3850 		subf 7,10,7
 3363              		.loc 3 130 0
 3364 066c 7D2B4850 		subf 9,11,9
 3365              		.loc 3 128 0
 3366 0670 6CC68000 		xoris 6,6,0x8000
 3367              		.loc 3 132 0
 3368 0674 EDA0E02A 		fadds 13,0,28
 3369              		.loc 3 129 0
 3370 0678 6CE78000 		xoris 7,7,0x8000
 3371              		.loc 3 130 0
 3372 067c 6D298000 		xoris 9,9,0x8000
 3373              		.loc 3 132 0
 3374 0680 EC1E0028 		fsubs 0,30,0
 3375              		.loc 3 128 0
 3376 0684 6CA58000 		xoris 5,5,0x8000
 3377 0688 90010088 		stw 0,136(1)
 3378 068c 90A1008C 		stw 5,140(1)
 3379 0690 90C10094 		stw 6,148(1)
 3380 0694 90010090 		stw 0,144(1)
 3381              		.loc 3 129 0
 3382 0698 90E1009C 		stw 7,156(1)
 3383 069c 90010098 		stw 0,152(1)
 3384              		.loc 3 130 0
 3385 06a0 912100A4 		stw 9,164(1)
 3386 06a4 900100A0 		stw 0,160(1)
 3387              		.loc 3 128 0
 3388 06a8 CA210088 		lfd 17,136(1)
 3389 06ac CA810090 		lfd 20,144(1)
 3390              	.LVL252:
 3391              		.loc 3 129 0
 3392 06b0 CA610098 		lfd 19,152(1)
 3393              	.LVL253:
 3394              		.loc 3 130 0
 3395 06b4 CA4100A0 		lfd 18,160(1)
 3396              	.LBB1667:
 3397              	.LBB1668:
 3398              		.loc 7 2123 0
 3399 06b8 D1BF0000 		stfs 13,0(31)
 3400              		.loc 7 2124 0
 3401 06bc D01F0000 		stfs 0,0(31)
 3402              		.loc 7 2125 0
 3403 06c0 D3FF0000 		stfs 31,0(31)
 3404              	.LBE1668:
 3405              	.LBE1667:
 3406              		.loc 3 128 0
 3407 06c4 C01A0000 		lfs 0,.LC1@l(26)
 3408              		.loc 3 133 0
 3409 06c8 893E00AE 		lbz 9,174(30)
 3410 06cc 88DE00AC 		lbz 6,172(30)
 3411              		.loc 3 128 0
 3412 06d0 FE310028 		fsub 17,17,0
 3413              		.loc 3 133 0
 3414 06d4 88FE00AD 		lbz 7,173(30)
 3415              		.loc 3 128 0
 3416 06d8 FE940028 		fsub 20,20,0
 3417              	.LBB1669:
 3418              	.LBB1670:
 3419              		.loc 7 2229 0
 3420 06dc 98DF0000 		stb 6,0(31)
 3421              	.LBE1670:
 3422              	.LBE1669:
 3423              		.loc 3 129 0
 3424 06e0 FE730028 		fsub 19,19,0
 3425              	.LBB1674:
 3426              	.LBB1671:
 3427              		.loc 7 2230 0
 3428 06e4 98FF0000 		stb 7,0(31)
 3429              	.LBE1671:
 3430              	.LBE1674:
 3431              		.loc 3 130 0
 3432 06e8 FE520028 		fsub 18,18,0
 3433              	.LBB1675:
 3434              	.LBB1672:
 3435              		.loc 7 2231 0
 3436 06ec 993F0000 		stb 9,0(31)
 3437              	.LBE1672:
 3438              	.LBE1675:
 3439              		.loc 3 127 0
 3440 06f0 3D200000 		lis 9,.LC6@ha
 3441 06f4 C2A90014 		lfs 21,.LC6@l(9)
 3442              	.LVL254:
 3443              		.loc 3 128 0
 3444 06f8 FE208818 		frsp 17,17
 3445              	.LBB1676:
 3446              	.LBB1673:
 3447              		.loc 7 2232 0
 3448 06fc 9B9F0000 		stb 28,0(31)
 3449              	.LBE1673:
 3450              	.LBE1676:
 3451              		.loc 3 128 0
 3452 0700 FE80A018 		frsp 20,20
 3453              		.loc 3 127 0
 3454 0704 EEB60572 		fmuls 21,22,21
 3455              	.LVL255:
 3456              	.LBB1677:
 3457              		.loc 3 135 0
 3458 0708 813E0090 		lwz 9,144(30)
 3459              	.LBE1677:
 3460              		.loc 3 129 0
 3461 070c FE609818 		frsp 19,19
 3462              		.loc 3 130 0
 3463 0710 FE409018 		frsp 18,18
 3464              	.LBB1684:
 3465              		.loc 3 135 0
 3466 0714 2F890000 		cmpwi 7,9,0
 3467              	.LBE1684:
 3468              		.loc 3 131 0
 3469 0718 EDB6A828 		fsubs 13,22,21
 3470              		.loc 3 128 0
 3471 071c EE948824 		fdivs 20,20,17
 3472              	.LVL256:
 3473              		.loc 3 129 0
 3474 0720 EE738824 		fdivs 19,19,17
 3475              	.LVL257:
 3476              		.loc 3 130 0
 3477 0724 EE528824 		fdivs 18,18,17
 3478              	.LVL258:
 3479              		.loc 3 131 0
 3480 0728 EE2D8824 		fdivs 17,13,17
 3481              	.LVL259:
 3482              	.LBB1685:
 3483              		.loc 3 135 0
 3484 072c 409D0184 		ble- 7,.L140
 3485 0730 6D088000 		xoris 8,8,0x8000
 3486              	.LVL260:
 3487 0734 6D4A8000 		xoris 10,10,0x8000
 3488              	.LVL261:
 3489 0738 6D6B8000 		xoris 11,11,0x8000
 3490              	.LVL262:
 3491 073c 910100AC 		stw 8,172(1)
 3492 0740 900100A8 		stw 0,168(1)
 3493 0744 3F600000 		lis 27,.LC5@ha
 3494 0748 914100B4 		stw 10,180(1)
 3495 074c 3EA00000 		lis 21,.LC7@ha
 3496 0750 900100B0 		stw 0,176(1)
 3497 0754 3F200000 		lis 25,.LC1@ha
 3498 0758 916100BC 		stw 11,188(1)
 3499 075c 3AC00000 		li 22,0
 3500 0760 900100B8 		stw 0,184(1)
 3501 0764 3B000000 		li 24,0
 3502 0768 C9C100A8 		lfd 14,168(1)
 3503 076c 3B390000 		la 25,.LC1@l(25)
 3504 0770 C9E100B0 		lfd 15,176(1)
 3505 0774 3B7B0010 		la 27,.LC5@l(27)
 3506 0778 CA0100B8 		lfd 16,184(1)
 3507 077c FDCE0028 		fsub 14,14,0
 3508 0780 FDEF0028 		fsub 15,15,0
 3509 0784 3AB50018 		la 21,.LC7@l(21)
 3510 0788 FE100028 		fsub 16,16,0
 3511 078c FDC07018 		frsp 14,14
 3512 0790 FDE07818 		frsp 15,15
 3513 0794 FE008018 		frsp 16,16
 3514              	.LVL263:
 3515              	.L141:
 3516              		.loc 3 137 0 discriminator 2
 3517 0798 3929FFFF 		addi 9,9,-1
 3518              	.LVL264:
 3519 079c 6EC08000 		xoris 0,22,0x8000
 3520 07a0 6D298000 		xoris 9,9,0x8000
 3521              	.LVL265:
 3522 07a4 3EE04330 		lis 23,0x4330
 3523 07a8 900100C4 		stw 0,196(1)
 3524              		.loc 3 135 0 discriminator 2
 3525 07ac 3AD6005A 		addi 22,22,90
 3526              	.LVL266:
 3527              		.loc 3 137 0 discriminator 2
 3528 07b0 912100CC 		stw 9,204(1)
 3529 07b4 92E100C0 		stw 23,192(1)
 3530 07b8 92E100C8 		stw 23,200(1)
 3531 07bc CAE100C0 		lfd 23,192(1)
 3532 07c0 C98100C8 		lfd 12,200(1)
 3533 07c4 C3B90000 		lfs 29,0(25)
 3534 07c8 C1B50000 		lfs 13,0(21)
 3535 07cc FEF7E828 		fsub 23,23,29
 3536 07d0 C01B0000 		lfs 0,0(27)
 3537 07d4 FD8CE828 		fsub 12,12,29
 3538              		.loc 3 138 0 discriminator 2
 3539 07d8 C35E0094 		lfs 26,148(30)
 3540              		.loc 3 137 0 discriminator 2
 3541 07dc FEE0B818 		frsp 23,23
 3542 07e0 FD806018 		frsp 12,12
 3543              		.loc 3 138 0 discriminator 2
 3544 07e4 FF00D090 		fmr 24,26
 3545              		.loc 3 137 0 discriminator 2
 3546 07e8 EEF76024 		fdivs 23,23,12
 3547 07ec EEF7682A 		fadds 23,23,13
 3548 07f0 EEF70032 		fmuls 23,23,0
 3549              		.loc 3 138 0 discriminator 2
 3550 07f4 FC20B890 		fmr 1,23
 3551 07f8 48000001 		bl cos
 3552              	.LVL267:
 3553 07fc EC1AE02A 		fadds 0,26,28
 3554 0800 EF5ED028 		fsubs 26,30,26
 3555 0804 FC18007A 		fmadd 0,24,1,0
 3556 0808 FC20B890 		fmr 1,23
 3557 080c FEE00018 		frsp 23,0
 3558 0810 48000001 		bl sin
 3559              		.loc 3 139 0 discriminator 2
 3560 0814 6F008000 		xoris 0,24,0x8000
 3561              		.loc 3 138 0 discriminator 2
 3562 0818 FF58D07A 		fmadd 26,24,1,26
 3563              		.loc 3 139 0 discriminator 2
 3564 081c 39210250 		addi 9,1,592
 3565              	.LBB1678:
 3566              	.LBB1679:
 3567              		.loc 7 2123 0 discriminator 2
 3568 0820 D2FF0000 		stfs 23,0(31)
 3569              	.LBE1679:
 3570              	.LBE1678:
 3571              		.loc 3 135 0 discriminator 2
 3572 0824 3B180001 		addi 24,24,1
 3573              		.loc 3 138 0 discriminator 2
 3574 0828 FF40D018 		frsp 26,26
 3575              	.LVL268:
 3576              	.LBB1681:
 3577              	.LBB1680:
 3578              		.loc 7 2124 0 discriminator 2
 3579 082c D35F0000 		stfs 26,0(31)
 3580              		.loc 7 2125 0 discriminator 2
 3581 0830 D3FF0000 		stfs 31,0(31)
 3582              	.LBE1680:
 3583              	.LBE1681:
 3584              		.loc 3 139 0 discriminator 2
 3585 0834 900100D4 		stw 0,212(1)
 3586 0838 92E100D0 		stw 23,208(1)
 3587 083c C80100D0 		lfd 0,208(1)
 3588 0840 FFA0E828 		fsub 29,0,29
 3589 0844 FFA0E818 		frsp 29,29
 3590 0848 ED9D753A 		fmadds 12,29,20,14
 3591 084c EDB37F7A 		fmadds 13,19,29,15
 3592 0850 EC12877A 		fmadds 0,18,29,16
 3593 0854 FD80601E 		fctiwz 12,12
 3594 0858 EFB1AF7A 		fmadds 29,17,29,21
 3595 085c FDA0681E 		fctiwz 13,13
 3596 0860 FC00001E 		fctiwz 0,0
 3597 0864 7D804FAE 		stfiwx 12,0,9
 3598 0868 FFA0E81E 		fctiwz 29,29
 3599 086c 39210254 		addi 9,1,596
 3600 0870 7DA04FAE 		stfiwx 13,0,9
 3601 0874 39210258 		addi 9,1,600
 3602 0878 7C004FAE 		stfiwx 0,0,9
 3603 087c 3921025C 		addi 9,1,604
 3604 0880 7FA04FAE 		stfiwx 29,0,9
 3605 0884 81210258 		lwz 9,600(1)
 3606 0888 81410250 		lwz 10,592(1)
 3607 088c 81610254 		lwz 11,596(1)
 3608 0890 8001025C 		lwz 0,604(1)
 3609              	.LVL269:
 3610              	.LBB1682:
 3611              	.LBB1683:
 3612              		.loc 7 2229 0 discriminator 2
 3613 0894 995F0000 		stb 10,0(31)
 3614              		.loc 7 2230 0 discriminator 2
 3615 0898 997F0000 		stb 11,0(31)
 3616              		.loc 7 2231 0 discriminator 2
 3617 089c 993F0000 		stb 9,0(31)
 3618              		.loc 7 2232 0 discriminator 2
 3619 08a0 981F0000 		stb 0,0(31)
 3620              	.LBE1683:
 3621              	.LBE1682:
 3622              		.loc 3 135 0 discriminator 2
 3623 08a4 813E0090 		lwz 9,144(30)
 3624 08a8 7F89C000 		cmpw 7,9,24
 3625 08ac 419DFEEC 		bgt+ 7,.L141
 3626              	.LVL270:
 3627              	.L140:
 3628              	.LBE1685:
 3629              		.loc 3 143 0
 3630 08b0 891E00B8 		lbz 8,184(30)
 3631              	.LVL271:
 3632              		.loc 3 146 0
 3633 08b4 3929FFFF 		addi 9,9,-1
 3634              		.loc 3 144 0
 3635 08b8 895E00B9 		lbz 10,185(30)
 3636              	.LVL272:
 3637              		.loc 3 146 0
 3638 08bc 3C004330 		lis 0,0x4330
 3639              		.loc 3 145 0
 3640 08c0 897E00BA 		lbz 11,186(30)
 3641              	.LVL273:
 3642              		.loc 3 146 0
 3643 08c4 6D298000 		xoris 9,9,0x8000
 3644 08c8 88BE00B4 		lbz 5,180(30)
 3645              		.loc 3 147 0
 3646 08cc 88DE00B5 		lbz 6,181(30)
 3647              		.loc 3 148 0
 3648 08d0 88FE00B6 		lbz 7,182(30)
 3649              		.loc 3 146 0
 3650 08d4 7CA82850 		subf 5,8,5
 3651              		.loc 3 150 0
 3652 08d8 C01E0094 		lfs 0,148(30)
 3653              		.loc 3 147 0
 3654 08dc 7CCA3050 		subf 6,10,6
 3655              		.loc 3 148 0
 3656 08e0 7CEB3850 		subf 7,11,7
 3657              		.loc 3 147 0
 3658 08e4 6CC68000 		xoris 6,6,0x8000
 3659              		.loc 3 148 0
 3660 08e8 6CE78000 		xoris 7,7,0x8000
 3661              		.loc 3 150 0
 3662 08ec ED80E02A 		fadds 12,0,28
 3663              		.loc 3 146 0
 3664 08f0 6CA58000 		xoris 5,5,0x8000
 3665              		.loc 3 150 0
 3666 08f4 EC1E0028 		fsubs 0,30,0
 3667              		.loc 3 146 0
 3668 08f8 912100DC 		stw 9,220(1)
 3669 08fc 900100D8 		stw 0,216(1)
 3670 0900 90A100E4 		stw 5,228(1)
 3671 0904 900100E0 		stw 0,224(1)
 3672              		.loc 3 147 0
 3673 0908 90C100EC 		stw 6,236(1)
 3674 090c 900100E8 		stw 0,232(1)
 3675              		.loc 3 148 0
 3676 0910 90E100F4 		stw 7,244(1)
 3677 0914 900100F0 		stw 0,240(1)
 3678              		.loc 3 146 0
 3679 0918 C9A100D8 		lfd 13,216(1)
 3680 091c CAE100E0 		lfd 23,224(1)
 3681              		.loc 3 147 0
 3682 0920 CA8100E8 		lfd 20,232(1)
 3683              	.LVL274:
 3684              		.loc 3 148 0
 3685 0924 CA6100F0 		lfd 19,240(1)
 3686              	.LVL275:
 3687              	.LBB1686:
 3688              	.LBB1687:
 3689              		.loc 7 2123 0
 3690 0928 D19F0000 		stfs 12,0(31)
 3691              		.loc 7 2124 0
 3692 092c D01F0000 		stfs 0,0(31)
 3693              		.loc 7 2125 0
 3694 0930 D3FF0000 		stfs 31,0(31)
 3695              	.LBE1687:
 3696              	.LBE1686:
 3697              		.loc 3 146 0
 3698 0934 C01A0000 		lfs 0,.LC1@l(26)
 3699              		.loc 3 151 0
 3700 0938 893E00AE 		lbz 9,174(30)
 3701 093c 88DE00AC 		lbz 6,172(30)
 3702              		.loc 3 146 0
 3703 0940 FDAD0028 		fsub 13,13,0
 3704              		.loc 3 151 0
 3705 0944 88FE00AD 		lbz 7,173(30)
 3706              		.loc 3 146 0
 3707 0948 FEF70028 		fsub 23,23,0
 3708              	.LBB1688:
 3709              	.LBB1689:
 3710              		.loc 7 2229 0
 3711 094c 98DF0000 		stb 6,0(31)
 3712              	.LBE1689:
 3713              	.LBE1688:
 3714              		.loc 3 147 0
 3715 0950 FE940028 		fsub 20,20,0
 3716              	.LBB1693:
 3717              	.LBB1690:
 3718              		.loc 7 2230 0
 3719 0954 98FF0000 		stb 7,0(31)
 3720              	.LBE1690:
 3721              	.LBE1693:
 3722              		.loc 3 148 0
 3723 0958 FE730028 		fsub 19,19,0
 3724              	.LBB1694:
 3725              	.LBB1691:
 3726              		.loc 7 2231 0
 3727 095c 993F0000 		stb 9,0(31)
 3728              	.LBE1691:
 3729              	.LBE1694:
 3730              		.loc 3 146 0
 3731 0960 FDA06818 		frsp 13,13
 3732              	.LBB1695:
 3733              	.LBB1692:
 3734              		.loc 7 2232 0
 3735 0964 9B9F0000 		stb 28,0(31)
 3736              	.LBE1692:
 3737              	.LBE1695:
 3738              		.loc 3 146 0
 3739 0968 FEE0B818 		frsp 23,23
 3740              		.loc 3 147 0
 3741 096c FE80A018 		frsp 20,20
 3742              	.LBB1696:
 3743              		.loc 3 153 0
 3744 0970 813E0090 		lwz 9,144(30)
 3745              	.LBE1696:
 3746              		.loc 3 148 0
 3747 0974 FE609818 		frsp 19,19
 3748              		.loc 3 146 0
 3749 0978 EEF76824 		fdivs 23,23,13
 3750              	.LVL276:
 3751              	.LBB1703:
 3752              		.loc 3 153 0
 3753 097c 2F890000 		cmpwi 7,9,0
 3754              	.LBE1703:
 3755              		.loc 3 147 0
 3756 0980 EE946824 		fdivs 20,20,13
 3757              	.LVL277:
 3758              		.loc 3 148 0
 3759 0984 EE736824 		fdivs 19,19,13
 3760              	.LVL278:
 3761              	.LBB1704:
 3762              		.loc 3 153 0
 3763 0988 409D0178 		ble- 7,.L142
 3764 098c 6D088000 		xoris 8,8,0x8000
 3765              	.LVL279:
 3766 0990 6D4A8000 		xoris 10,10,0x8000
 3767              	.LVL280:
 3768 0994 6D6B8000 		xoris 11,11,0x8000
 3769              	.LVL281:
 3770 0998 910100FC 		stw 8,252(1)
 3771 099c 900100F8 		stw 0,248(1)
 3772 09a0 3F600000 		lis 27,.LC5@ha
 3773 09a4 91410104 		stw 10,260(1)
 3774 09a8 3EA00000 		lis 21,.LC7@ha
 3775 09ac 90010100 		stw 0,256(1)
 3776 09b0 3F200000 		lis 25,.LC1@ha
 3777 09b4 9161010C 		stw 11,268(1)
 3778 09b8 3AC00000 		li 22,0
 3779 09bc 90010108 		stw 0,264(1)
 3780 09c0 3B000000 		li 24,0
 3781 09c4 CA0100F8 		lfd 16,248(1)
 3782 09c8 3B390000 		la 25,.LC1@l(25)
 3783 09cc CA210100 		lfd 17,256(1)
 3784              	.LVL282:
 3785 09d0 3B7B0010 		la 27,.LC5@l(27)
 3786 09d4 CA410108 		lfd 18,264(1)
 3787 09d8 FE100028 		fsub 16,16,0
 3788 09dc FE310028 		fsub 17,17,0
 3789 09e0 3AB50018 		la 21,.LC7@l(21)
 3790 09e4 FE520028 		fsub 18,18,0
 3791 09e8 FE008018 		frsp 16,16
 3792 09ec FE208818 		frsp 17,17
 3793 09f0 FE409018 		frsp 18,18
 3794              	.LVL283:
 3795              	.L143:
 3796              		.loc 3 155 0 discriminator 2
 3797 09f4 3929FFFF 		addi 9,9,-1
 3798              	.LVL284:
 3799 09f8 6EC08000 		xoris 0,22,0x8000
 3800 09fc 6D298000 		xoris 9,9,0x8000
 3801              	.LVL285:
 3802 0a00 3EE04330 		lis 23,0x4330
 3803 0a04 90010114 		stw 0,276(1)
 3804              		.loc 3 153 0 discriminator 2
 3805 0a08 3AD6005A 		addi 22,22,90
 3806              	.LVL286:
 3807              		.loc 3 155 0 discriminator 2
 3808 0a0c 9121011C 		stw 9,284(1)
 3809 0a10 92E10110 		stw 23,272(1)
 3810 0a14 92E10118 		stw 23,280(1)
 3811 0a18 CB010110 		lfd 24,272(1)
 3812 0a1c C9810118 		lfd 12,280(1)
 3813 0a20 C3590000 		lfs 26,0(25)
 3814 0a24 C1B50000 		lfs 13,0(21)
 3815 0a28 FF18D028 		fsub 24,24,26
 3816 0a2c C01B0000 		lfs 0,0(27)
 3817 0a30 FD8CD028 		fsub 12,12,26
 3818              		.loc 3 156 0 discriminator 2
 3819 0a34 C3BE0094 		lfs 29,148(30)
 3820              		.loc 3 155 0 discriminator 2
 3821 0a38 FF00C018 		frsp 24,24
 3822 0a3c FD806018 		frsp 12,12
 3823 0a40 EF186024 		fdivs 24,24,12
 3824 0a44 EF18682A 		fadds 24,24,13
 3825 0a48 EF180032 		fmuls 24,24,0
 3826              		.loc 3 156 0 discriminator 2
 3827 0a4c FC20C090 		fmr 1,24
 3828 0a50 48000001 		bl cos
 3829              	.LVL287:
 3830 0a54 FDA0E890 		fmr 13,29
 3831 0a58 EC1DE02A 		fadds 0,29,28
 3832 0a5c FC0D007A 		fmadd 0,13,1,0
 3833 0a60 FC20C090 		fmr 1,24
 3834 0a64 FF000018 		frsp 24,0
 3835 0a68 48000001 		bl sin
 3836 0a6c C1BE0098 		lfs 13,152(30)
 3837 0a70 EC1EE828 		fsubs 0,30,29
 3838              		.loc 3 157 0 discriminator 2
 3839 0a74 6F008000 		xoris 0,24,0x8000
 3840              		.loc 3 156 0 discriminator 2
 3841 0a78 EFBD6828 		fsubs 29,29,13
 3842              	.LBB1697:
 3843              	.LBB1698:
 3844              		.loc 7 2123 0 discriminator 2
 3845 0a7c D31F0000 		stfs 24,0(31)
 3846              	.LBE1698:
 3847              	.LBE1697:
 3848              		.loc 3 157 0 discriminator 2
 3849 0a80 39210244 		addi 9,1,580
 3850              		.loc 3 153 0 discriminator 2
 3851 0a84 3B180001 		addi 24,24,1
 3852              		.loc 3 156 0 discriminator 2
 3853 0a88 FFBD007A 		fmadd 29,29,1,0
 3854 0a8c FFA0E818 		frsp 29,29
 3855              	.LVL288:
 3856              	.LBB1700:
 3857              	.LBB1699:
 3858              		.loc 7 2124 0 discriminator 2
 3859 0a90 D3BF0000 		stfs 29,0(31)
 3860              		.loc 7 2125 0 discriminator 2
 3861 0a94 D3FF0000 		stfs 31,0(31)
 3862              	.LBE1699:
 3863              	.LBE1700:
 3864              		.loc 3 157 0 discriminator 2
 3865 0a98 90010124 		stw 0,292(1)
 3866 0a9c 92E10120 		stw 23,288(1)
 3867 0aa0 C8010120 		lfd 0,288(1)
 3868 0aa4 FF40D028 		fsub 26,0,26
 3869 0aa8 FF40D018 		frsp 26,26
 3870 0aac EDBA85FA 		fmadds 13,26,23,16
 3871 0ab0 EC148EBA 		fmadds 0,20,26,17
 3872 0ab4 EF5396BA 		fmadds 26,19,26,18
 3873 0ab8 FDA0681E 		fctiwz 13,13
 3874 0abc FC00001E 		fctiwz 0,0
 3875 0ac0 FF40D01E 		fctiwz 26,26
 3876 0ac4 7DA04FAE 		stfiwx 13,0,9
 3877 0ac8 39210248 		addi 9,1,584
 3878 0acc 7C004FAE 		stfiwx 0,0,9
 3879 0ad0 3921024C 		addi 9,1,588
 3880 0ad4 7F404FAE 		stfiwx 26,0,9
 3881 0ad8 81210248 		lwz 9,584(1)
 3882 0adc 81610244 		lwz 11,580(1)
 3883 0ae0 8001024C 		lwz 0,588(1)
 3884              	.LVL289:
 3885              	.LBB1701:
 3886              	.LBB1702:
 3887              		.loc 7 2229 0 discriminator 2
 3888 0ae4 997F0000 		stb 11,0(31)
 3889              		.loc 7 2230 0 discriminator 2
 3890 0ae8 993F0000 		stb 9,0(31)
 3891              		.loc 7 2231 0 discriminator 2
 3892 0aec 981F0000 		stb 0,0(31)
 3893              		.loc 7 2232 0 discriminator 2
 3894 0af0 9BBF0000 		stb 29,0(31)
 3895              	.LBE1702:
 3896              	.LBE1701:
 3897              		.loc 3 153 0 discriminator 2
 3898 0af4 813E0090 		lwz 9,144(30)
 3899 0af8 7F89C000 		cmpw 7,9,24
 3900 0afc 419DFEF8 		bgt+ 7,.L143
 3901              	.LVL290:
 3902              	.L142:
 3903              	.LBE1704:
 3904              	.LBE1666:
 3905              		.loc 3 163 0
 3906 0b00 38600080 		li 3,128
 3907 0b04 38800000 		li 4,0
 3908 0b08 38A00008 		li 5,8
 3909 0b0c 48000001 		bl GX_Begin
 3910              		.loc 3 165 0
 3911 0b10 C01E0094 		lfs 0,148(30)
 3912              		.loc 3 172 0
 3913 0b14 FDA0A81E 		fctiwz 13,21
 3914              		.loc 3 192 0
 3915 0b18 386000A0 		li 3,160
 3916              		.loc 3 165 0
 3917 0b1c ED80E02A 		fadds 12,0,28
 3918              		.loc 3 192 0
 3919 0b20 38800000 		li 4,0
 3920              		.loc 3 165 0
 3921 0b24 EC1E0028 		fsubs 0,30,0
 3922              	.LVL291:
 3923              	.LBB1705:
 3924              	.LBB1706:
 3925              		.loc 7 2123 0
 3926 0b28 D19F0000 		stfs 12,0(31)
 3927              		.loc 7 2124 0
 3928 0b2c D01F0000 		stfs 0,0(31)
 3929              		.loc 7 2125 0
 3930 0b30 D3FF0000 		stfs 31,0(31)
 3931              	.LBE1706:
 3932              	.LBE1705:
 3933              		.loc 3 166 0
 3934 0b34 897E00B8 		lbz 11,184(30)
 3935 0b38 893E00B9 		lbz 9,185(30)
 3936 0b3c 881E00BA 		lbz 0,186(30)
 3937              	.LVL292:
 3938              	.LBB1707:
 3939              	.LBB1708:
 3940              		.loc 7 2229 0
 3941 0b40 997F0000 		stb 11,0(31)
 3942              		.loc 7 2230 0
 3943 0b44 993F0000 		stb 9,0(31)
 3944              		.loc 7 2231 0
 3945 0b48 981F0000 		stb 0,0(31)
 3946              		.loc 7 2232 0
 3947 0b4c 9B9F0000 		stb 28,0(31)
 3948              	.LBE1708:
 3949              	.LBE1707:
 3950              		.loc 3 168 0
 3951 0b50 C01E0094 		lfs 0,148(30)
 3952              	.LVL293:
 3953 0b54 ED9B0028 		fsubs 12,27,0
 3954              	.LVL294:
 3955 0b58 EC1E0028 		fsubs 0,30,0
 3956              	.LVL295:
 3957              	.LBB1709:
 3958              	.LBB1710:
 3959              		.loc 7 2123 0
 3960 0b5c D19F0000 		stfs 12,0(31)
 3961              		.loc 7 2124 0
 3962 0b60 D01F0000 		stfs 0,0(31)
 3963              		.loc 7 2125 0
 3964 0b64 D3FF0000 		stfs 31,0(31)
 3965              	.LBE1710:
 3966              	.LBE1709:
 3967              		.loc 3 169 0
 3968 0b68 897E00B8 		lbz 11,184(30)
 3969              	.LVL296:
 3970 0b6c 893E00B9 		lbz 9,185(30)
 3971              	.LVL297:
 3972 0b70 881E00BA 		lbz 0,186(30)
 3973              	.LVL298:
 3974              	.LBB1711:
 3975              	.LBB1712:
 3976              		.loc 7 2229 0
 3977 0b74 997F0000 		stb 11,0(31)
 3978              		.loc 7 2230 0
 3979 0b78 993F0000 		stb 9,0(31)
 3980              	.LBE1712:
 3981              	.LBE1711:
 3982              		.loc 3 172 0
 3983 0b7c 39210240 		addi 9,1,576
 3984              	.LVL299:
 3985              	.LBB1714:
 3986              	.LBB1713:
 3987              		.loc 7 2231 0
 3988 0b80 981F0000 		stb 0,0(31)
 3989              		.loc 7 2232 0
 3990 0b84 9B9F0000 		stb 28,0(31)
 3991              	.LBE1713:
 3992              	.LBE1714:
 3993              		.loc 3 171 0
 3994 0b88 C01E0094 		lfs 0,148(30)
 3995              	.LVL300:
 3996 0b8c EC1B0028 		fsubs 0,27,0
 3997              	.LVL301:
 3998              	.LBB1715:
 3999              	.LBB1716:
 4000              		.loc 7 2123 0
 4001 0b90 D01F0000 		stfs 0,0(31)
 4002              		.loc 7 2124 0
 4003 0b94 D3DF0000 		stfs 30,0(31)
 4004              		.loc 7 2125 0
 4005 0b98 D3FF0000 		stfs 31,0(31)
 4006              	.LBE1716:
 4007              	.LBE1715:
 4008              		.loc 3 172 0
 4009 0b9c 7DA04FAE 		stfiwx 13,0,9
 4010 0ba0 80010240 		lwz 0,576(1)
 4011              	.LVL302:
 4012 0ba4 895E00BC 		lbz 10,188(30)
 4013              	.LVL303:
 4014 0ba8 897E00BD 		lbz 11,189(30)
 4015              	.LVL304:
 4016 0bac 893E00BE 		lbz 9,190(30)
 4017              	.LVL305:
 4018              	.LBB1717:
 4019              	.LBB1718:
 4020              		.loc 7 2229 0
 4021 0bb0 995F0000 		stb 10,0(31)
 4022              		.loc 7 2230 0
 4023 0bb4 997F0000 		stb 11,0(31)
 4024              		.loc 7 2231 0
 4025 0bb8 993F0000 		stb 9,0(31)
 4026              		.loc 7 2232 0
 4027 0bbc 981F0000 		stb 0,0(31)
 4028              	.LBE1718:
 4029              	.LBE1717:
 4030              		.loc 3 174 0
 4031 0bc0 C01E0094 		lfs 0,148(30)
 4032              	.LVL306:
 4033 0bc4 EC1C002A 		fadds 0,28,0
 4034              	.LVL307:
 4035              	.LBB1719:
 4036              	.LBB1720:
 4037              		.loc 7 2123 0
 4038 0bc8 D01F0000 		stfs 0,0(31)
 4039              		.loc 7 2124 0
 4040 0bcc D3DF0000 		stfs 30,0(31)
 4041              		.loc 7 2125 0
 4042 0bd0 D3FF0000 		stfs 31,0(31)
 4043              	.LBE1720:
 4044              	.LBE1719:
 4045              		.loc 3 175 0
 4046 0bd4 895E00BC 		lbz 10,188(30)
 4047              	.LVL308:
 4048 0bd8 897E00BD 		lbz 11,189(30)
 4049              	.LVL309:
 4050 0bdc 893E00BE 		lbz 9,190(30)
 4051              	.LVL310:
 4052              	.LBB1721:
 4053              	.LBB1722:
 4054              		.loc 7 2229 0
 4055 0be0 995F0000 		stb 10,0(31)
 4056              		.loc 7 2230 0
 4057 0be4 997F0000 		stb 11,0(31)
 4058              		.loc 7 2231 0
 4059 0be8 993F0000 		stb 9,0(31)
 4060              		.loc 7 2232 0
 4061 0bec 981F0000 		stb 0,0(31)
 4062              	.LBE1722:
 4063              	.LBE1721:
 4064              		.loc 3 178 0
 4065 0bf0 C01E0094 		lfs 0,148(30)
 4066              	.LVL311:
 4067 0bf4 EDA0E02A 		fadds 13,0,28
 4068 0bf8 EC1E0028 		fsubs 0,30,0
 4069              	.LVL312:
 4070              	.LBB1723:
 4071              	.LBB1724:
 4072              		.loc 7 2123 0
 4073 0bfc D1BF0000 		stfs 13,0(31)
 4074              		.loc 7 2124 0
 4075 0c00 D01F0000 		stfs 0,0(31)
 4076              		.loc 7 2125 0
 4077 0c04 D3FF0000 		stfs 31,0(31)
 4078              	.LBE1724:
 4079              	.LBE1723:
 4080              		.loc 3 179 0
 4081 0c08 897E00AC 		lbz 11,172(30)
 4082              	.LVL313:
 4083 0c0c 893E00AD 		lbz 9,173(30)
 4084              	.LVL314:
 4085 0c10 881E00AE 		lbz 0,174(30)
 4086              	.LVL315:
 4087              	.LBB1725:
 4088              	.LBB1726:
 4089              		.loc 7 2229 0
 4090 0c14 997F0000 		stb 11,0(31)
 4091              		.loc 7 2230 0
 4092 0c18 993F0000 		stb 9,0(31)
 4093              		.loc 7 2231 0
 4094 0c1c 981F0000 		stb 0,0(31)
 4095              		.loc 7 2232 0
 4096 0c20 9B9F0000 		stb 28,0(31)
 4097              	.LBE1726:
 4098              	.LBE1725:
 4099              		.loc 3 181 0
 4100 0c24 C01E0094 		lfs 0,148(30)
 4101              	.LVL316:
 4102 0c28 EDBB0028 		fsubs 13,27,0
 4103              	.LVL317:
 4104 0c2c EC1E0028 		fsubs 0,30,0
 4105              	.LVL318:
 4106              	.LBB1727:
 4107              	.LBB1728:
 4108              		.loc 7 2123 0
 4109 0c30 D1BF0000 		stfs 13,0(31)
 4110              		.loc 7 2124 0
 4111 0c34 D01F0000 		stfs 0,0(31)
 4112              		.loc 7 2125 0
 4113 0c38 D3FF0000 		stfs 31,0(31)
 4114              	.LBE1728:
 4115              	.LBE1727:
 4116              		.loc 3 182 0
 4117 0c3c 897E00AC 		lbz 11,172(30)
 4118              	.LVL319:
 4119 0c40 893E00AD 		lbz 9,173(30)
 4120              	.LVL320:
 4121 0c44 881E00AE 		lbz 0,174(30)
 4122              	.LVL321:
 4123              	.LBB1729:
 4124              	.LBB1730:
 4125              		.loc 7 2229 0
 4126 0c48 997F0000 		stb 11,0(31)
 4127              		.loc 7 2230 0
 4128 0c4c 993F0000 		stb 9,0(31)
 4129              		.loc 7 2231 0
 4130 0c50 981F0000 		stb 0,0(31)
 4131              		.loc 7 2232 0
 4132 0c54 9B9F0000 		stb 28,0(31)
 4133              	.LBE1730:
 4134              	.LBE1729:
 4135              		.loc 3 184 0
 4136 0c58 C1BE0094 		lfs 13,148(30)
 4137              	.LVL322:
 4138 0c5c C01E0098 		lfs 0,152(30)
 4139              	.LVL323:
 4140 0c60 EDBB6828 		fsubs 13,27,13
 4141 0c64 EC1E0028 		fsubs 0,30,0
 4142              	.LVL324:
 4143              	.LBB1731:
 4144              	.LBB1732:
 4145              		.loc 7 2123 0
 4146 0c68 D1BF0000 		stfs 13,0(31)
 4147              		.loc 7 2124 0
 4148 0c6c D01F0000 		stfs 0,0(31)
 4149              		.loc 7 2125 0
 4150 0c70 D3FF0000 		stfs 31,0(31)
 4151              	.LBE1732:
 4152              	.LBE1731:
 4153              		.loc 3 185 0
 4154 0c74 897E00B8 		lbz 11,184(30)
 4155              	.LVL325:
 4156 0c78 893E00B9 		lbz 9,185(30)
 4157              	.LVL326:
 4158 0c7c 881E00BA 		lbz 0,186(30)
 4159              	.LVL327:
 4160              	.LBB1733:
 4161              	.LBB1734:
 4162              		.loc 7 2229 0
 4163 0c80 997F0000 		stb 11,0(31)
 4164              		.loc 7 2230 0
 4165 0c84 993F0000 		stb 9,0(31)
 4166              		.loc 7 2231 0
 4167 0c88 981F0000 		stb 0,0(31)
 4168              		.loc 7 2232 0
 4169 0c8c 9B9F0000 		stb 28,0(31)
 4170              	.LBE1734:
 4171              	.LBE1733:
 4172              		.loc 3 187 0
 4173 0c90 C1BE0094 		lfs 13,148(30)
 4174              	.LVL328:
 4175 0c94 C01E0098 		lfs 0,152(30)
 4176              	.LVL329:
 4177 0c98 EDBC682A 		fadds 13,28,13
 4178 0c9c EC1E0028 		fsubs 0,30,0
 4179              	.LVL330:
 4180              	.LBB1735:
 4181              	.LBB1736:
 4182              		.loc 7 2123 0
 4183 0ca0 D1BF0000 		stfs 13,0(31)
 4184              		.loc 7 2124 0
 4185 0ca4 D01F0000 		stfs 0,0(31)
 4186              		.loc 7 2125 0
 4187 0ca8 D3FF0000 		stfs 31,0(31)
 4188              	.LBE1736:
 4189              	.LBE1735:
 4190              		.loc 3 188 0
 4191 0cac 897E00B8 		lbz 11,184(30)
 4192              	.LVL331:
 4193 0cb0 893E00B9 		lbz 9,185(30)
 4194              	.LVL332:
 4195 0cb4 881E00BA 		lbz 0,186(30)
 4196              	.LVL333:
 4197              	.LBB1737:
 4198              	.LBB1738:
 4199              		.loc 7 2229 0
 4200 0cb8 997F0000 		stb 11,0(31)
 4201              		.loc 7 2230 0
 4202 0cbc 993F0000 		stb 9,0(31)
 4203              		.loc 7 2231 0
 4204 0cc0 981F0000 		stb 0,0(31)
 4205              		.loc 7 2232 0
 4206 0cc4 9B9F0000 		stb 28,0(31)
 4207              	.LBE1738:
 4208              	.LBE1737:
 4209              		.loc 3 192 0
 4210 0cc8 80BE0090 		lwz 5,144(30)
 4211 0ccc 38A50001 		addi 5,5,1
 4212 0cd0 54A50C3C 		rlwinm 5,5,1,16,30
 4213 0cd4 48000001 		bl GX_Begin
 4214              	.LVL334:
 4215              	.LBB1739:
 4216              		.loc 3 195 0
 4217 0cd8 8A7E00B4 		lbz 19,180(30)
 4218              	.LVL335:
 4219              		.loc 3 196 0
 4220 0cdc 8A9E00B5 		lbz 20,181(30)
 4221              	.LVL336:
 4222              		.loc 3 199 0
 4223 0ce0 3C004330 		lis 0,0x4330
 4224              		.loc 3 197 0
 4225 0ce4 8ABE00B6 		lbz 21,182(30)
 4226              	.LVL337:
 4227              		.loc 3 202 0
 4228 0ce8 EEB5B028 		fsubs 21,21,22
 4229              	.LVL338:
 4230              		.loc 3 199 0
 4231 0cec 811E0090 		lwz 8,144(30)
 4232 0cf0 895E00BC 		lbz 10,188(30)
 4233              		.loc 3 200 0
 4234 0cf4 897E00BD 		lbz 11,189(30)
 4235              		.loc 3 199 0
 4236 0cf8 3908FFFF 		addi 8,8,-1
 4237              		.loc 3 201 0
 4238 0cfc 893E00BE 		lbz 9,190(30)
 4239              		.loc 3 199 0
 4240 0d00 7D535050 		subf 10,19,10
 4241              		.loc 3 203 0
 4242 0d04 C01E0094 		lfs 0,148(30)
 4243              		.loc 3 200 0
 4244 0d08 7D745850 		subf 11,20,11
 4245              		.loc 3 201 0
 4246 0d0c 7D354850 		subf 9,21,9
 4247              		.loc 3 199 0
 4248 0d10 6D4A8000 		xoris 10,10,0x8000
 4249              		.loc 3 200 0
 4250 0d14 6D6B8000 		xoris 11,11,0x8000
 4251              		.loc 3 201 0
 4252 0d18 6D298000 		xoris 9,9,0x8000
 4253              		.loc 3 203 0
 4254 0d1c ED9B0028 		fsubs 12,27,0
 4255              		.loc 3 199 0
 4256 0d20 6D088000 		xoris 8,8,0x8000
 4257              		.loc 3 203 0
 4258 0d24 EC1E0028 		fsubs 0,30,0
 4259              		.loc 3 199 0
 4260 0d28 9101012C 		stw 8,300(1)
 4261 0d2c 90010128 		stw 0,296(1)
 4262 0d30 91410134 		stw 10,308(1)
 4263 0d34 90010130 		stw 0,304(1)
 4264              		.loc 3 200 0
 4265 0d38 9161013C 		stw 11,316(1)
 4266 0d3c 90010138 		stw 0,312(1)
 4267              		.loc 3 201 0
 4268 0d40 91210144 		stw 9,324(1)
 4269 0d44 90010140 		stw 0,320(1)
 4270              		.loc 3 199 0
 4271 0d48 C9A10128 		lfd 13,296(1)
 4272 0d4c CA810130 		lfd 20,304(1)
 4273              	.LVL339:
 4274              		.loc 3 200 0
 4275 0d50 CA610138 		lfd 19,312(1)
 4276              	.LVL340:
 4277              		.loc 3 201 0
 4278 0d54 CA410140 		lfd 18,320(1)
 4279              	.LBB1740:
 4280              	.LBB1741:
 4281              		.loc 7 2123 0
 4282 0d58 D19F0000 		stfs 12,0(31)
 4283              		.loc 7 2124 0
 4284 0d5c D01F0000 		stfs 0,0(31)
 4285              		.loc 7 2125 0
 4286 0d60 D3FF0000 		stfs 31,0(31)
 4287              	.LBE1741:
 4288              	.LBE1740:
 4289              		.loc 3 199 0
 4290 0d64 C01A0000 		lfs 0,.LC1@l(26)
 4291              		.loc 3 204 0
 4292 0d68 893E00AE 		lbz 9,174(30)
 4293 0d6c 895E00AC 		lbz 10,172(30)
 4294              		.loc 3 199 0
 4295 0d70 FDAD0028 		fsub 13,13,0
 4296              		.loc 3 204 0
 4297 0d74 897E00AD 		lbz 11,173(30)
 4298              		.loc 3 199 0
 4299 0d78 FE940028 		fsub 20,20,0
 4300              	.LBB1742:
 4301              	.LBB1743:
 4302              		.loc 7 2229 0
 4303 0d7c 995F0000 		stb 10,0(31)
 4304              	.LBE1743:
 4305              	.LBE1742:
 4306              		.loc 3 200 0
 4307 0d80 FE730028 		fsub 19,19,0
 4308              	.LBB1747:
 4309              	.LBB1744:
 4310              		.loc 7 2230 0
 4311 0d84 997F0000 		stb 11,0(31)
 4312              	.LBE1744:
 4313              	.LBE1747:
 4314              		.loc 3 201 0
 4315 0d88 FE520028 		fsub 18,18,0
 4316              	.LBB1748:
 4317              	.LBB1745:
 4318              		.loc 7 2231 0
 4319 0d8c 993F0000 		stb 9,0(31)
 4320              	.LBE1745:
 4321              	.LBE1748:
 4322              		.loc 3 199 0
 4323 0d90 FDA06818 		frsp 13,13
 4324              	.LBB1749:
 4325              	.LBB1746:
 4326              		.loc 7 2232 0
 4327 0d94 9B9F0000 		stb 28,0(31)
 4328              	.LBE1746:
 4329              	.LBE1749:
 4330              		.loc 3 199 0
 4331 0d98 FE80A018 		frsp 20,20
 4332              		.loc 3 200 0
 4333 0d9c FE609818 		frsp 19,19
 4334              	.LBB1750:
 4335              		.loc 3 206 0
 4336 0da0 813E0090 		lwz 9,144(30)
 4337              	.LBE1750:
 4338              		.loc 3 201 0
 4339 0da4 FE409018 		frsp 18,18
 4340              		.loc 3 199 0
 4341 0da8 EE946824 		fdivs 20,20,13
 4342              	.LVL341:
 4343              	.LBB1757:
 4344              		.loc 3 206 0
 4345 0dac 2F890000 		cmpwi 7,9,0
 4346              	.LBE1757:
 4347              		.loc 3 200 0
 4348 0db0 EE736824 		fdivs 19,19,13
 4349              	.LVL342:
 4350              		.loc 3 201 0
 4351 0db4 EE526824 		fdivs 18,18,13
 4352              	.LVL343:
 4353              		.loc 3 202 0
 4354 0db8 EEB56824 		fdivs 21,21,13
 4355              	.LVL344:
 4356              	.LBB1758:
 4357              		.loc 3 206 0
 4358 0dbc 409D0174 		ble- 7,.L144
 4359 0dc0 6E688000 		xoris 8,19,0x8000
 4360 0dc4 6E8A8000 		xoris 10,20,0x8000
 4361              	.LVL345:
 4362 0dc8 6EAB8000 		xoris 11,21,0x8000
 4363              	.LVL346:
 4364 0dcc 9101014C 		stw 8,332(1)
 4365 0dd0 90010148 		stw 0,328(1)
 4366 0dd4 3F600000 		lis 27,.LC5@ha
 4367 0dd8 91410154 		stw 10,340(1)
 4368 0ddc 3F200000 		lis 25,.LC1@ha
 4369 0de0 90010150 		stw 0,336(1)
 4370 0de4 3AC00000 		li 22,0
 4371 0de8 9161015C 		stw 11,348(1)
 4372 0dec 3B000000 		li 24,0
 4373 0df0 90010158 		stw 0,344(1)
 4374 0df4 3B390000 		la 25,.LC1@l(25)
 4375 0df8 C9E10148 		lfd 15,328(1)
 4376 0dfc 3B7B0010 		la 27,.LC5@l(27)
 4377 0e00 CA010150 		lfd 16,336(1)
 4378 0e04 CA210158 		lfd 17,344(1)
 4379 0e08 FDEF0028 		fsub 15,15,0
 4380 0e0c FE100028 		fsub 16,16,0
 4381 0e10 FE310028 		fsub 17,17,0
 4382 0e14 FDE07818 		frsp 15,15
 4383 0e18 FE008018 		frsp 16,16
 4384 0e1c FE208818 		frsp 17,17
 4385              	.LVL347:
 4386              	.L145:
 4387              		.loc 3 208 0 discriminator 2
 4388 0e20 3929FFFF 		addi 9,9,-1
 4389              	.LVL348:
 4390 0e24 6EC08000 		xoris 0,22,0x8000
 4391 0e28 6D298000 		xoris 9,9,0x8000
 4392              	.LVL349:
 4393 0e2c 3EE04330 		lis 23,0x4330
 4394 0e30 90010164 		stw 0,356(1)
 4395              		.loc 3 206 0 discriminator 2
 4396 0e34 3AD6005A 		addi 22,22,90
 4397              	.LVL350:
 4398              		.loc 3 208 0 discriminator 2
 4399 0e38 9121016C 		stw 9,364(1)
 4400 0e3c 92E10160 		stw 23,352(1)
 4401 0e40 92E10168 		stw 23,360(1)
 4402 0e44 CAE10160 		lfd 23,352(1)
 4403 0e48 C9A10168 		lfd 13,360(1)
 4404 0e4c C3B90000 		lfs 29,0(25)
 4405 0e50 C01B0000 		lfs 0,0(27)
 4406 0e54 FEF7E828 		fsub 23,23,29
 4407              		.loc 3 209 0 discriminator 2
 4408 0e58 C35E0094 		lfs 26,148(30)
 4409              		.loc 3 208 0 discriminator 2
 4410 0e5c FDADE828 		fsub 13,13,29
 4411              		.loc 3 209 0 discriminator 2
 4412 0e60 FF00D090 		fmr 24,26
 4413              		.loc 3 208 0 discriminator 2
 4414 0e64 FEE0B818 		frsp 23,23
 4415 0e68 FDA06818 		frsp 13,13
 4416 0e6c EEF76824 		fdivs 23,23,13
 4417 0e70 EEF70032 		fmuls 23,23,0
 4418              		.loc 3 209 0 discriminator 2
 4419 0e74 FC20B890 		fmr 1,23
 4420 0e78 48000001 		bl cos
 4421              	.LVL351:
 4422 0e7c EC1BD028 		fsubs 0,27,26
 4423 0e80 EF5ED028 		fsubs 26,30,26
 4424 0e84 FC18007A 		fmadd 0,24,1,0
 4425 0e88 FC20B890 		fmr 1,23
 4426 0e8c FEE00018 		frsp 23,0
 4427 0e90 48000001 		bl sin
 4428              		.loc 3 210 0 discriminator 2
 4429 0e94 6F008000 		xoris 0,24,0x8000
 4430              		.loc 3 209 0 discriminator 2
 4431 0e98 FF58D07A 		fmadd 26,24,1,26
 4432              		.loc 3 210 0 discriminator 2
 4433 0e9c 39210230 		addi 9,1,560
 4434              	.LBB1751:
 4435              	.LBB1752:
 4436              		.loc 7 2123 0 discriminator 2
 4437 0ea0 D2FF0000 		stfs 23,0(31)
 4438              	.LBE1752:
 4439              	.LBE1751:
 4440              		.loc 3 206 0 discriminator 2
 4441 0ea4 3B180001 		addi 24,24,1
 4442              		.loc 3 209 0 discriminator 2
 4443 0ea8 FF40D018 		frsp 26,26
 4444              	.LVL352:
 4445              	.LBB1754:
 4446              	.LBB1753:
 4447              		.loc 7 2124 0 discriminator 2
 4448 0eac D35F0000 		stfs 26,0(31)
 4449              		.loc 7 2125 0 discriminator 2
 4450 0eb0 D3FF0000 		stfs 31,0(31)
 4451              	.LBE1753:
 4452              	.LBE1754:
 4453              		.loc 3 210 0 discriminator 2
 4454 0eb4 90010174 		stw 0,372(1)
 4455 0eb8 92E10170 		stw 23,368(1)
 4456 0ebc C8010170 		lfd 0,368(1)
 4457 0ec0 FFA0E828 		fsub 29,0,29
 4458 0ec4 FFA0E818 		frsp 29,29
 4459 0ec8 ED9D7D3A 		fmadds 12,29,20,15
 4460 0ecc EDB3877A 		fmadds 13,19,29,16
 4461 0ed0 EC128F7A 		fmadds 0,18,29,17
 4462 0ed4 FD80601E 		fctiwz 12,12
 4463 0ed8 EFB5B77A 		fmadds 29,21,29,22
 4464 0edc FDA0681E 		fctiwz 13,13
 4465 0ee0 FC00001E 		fctiwz 0,0
 4466 0ee4 7D804FAE 		stfiwx 12,0,9
 4467 0ee8 FFA0E81E 		fctiwz 29,29
 4468 0eec 39210234 		addi 9,1,564
 4469 0ef0 7DA04FAE 		stfiwx 13,0,9
 4470 0ef4 39210238 		addi 9,1,568
 4471 0ef8 7C004FAE 		stfiwx 0,0,9
 4472 0efc 3921023C 		addi 9,1,572
 4473 0f00 7FA04FAE 		stfiwx 29,0,9
 4474 0f04 81210238 		lwz 9,568(1)
 4475 0f08 81410230 		lwz 10,560(1)
 4476 0f0c 81610234 		lwz 11,564(1)
 4477 0f10 8001023C 		lwz 0,572(1)
 4478              	.LVL353:
 4479              	.LBB1755:
 4480              	.LBB1756:
 4481              		.loc 7 2229 0 discriminator 2
 4482 0f14 995F0000 		stb 10,0(31)
 4483              		.loc 7 2230 0 discriminator 2
 4484 0f18 997F0000 		stb 11,0(31)
 4485              		.loc 7 2231 0 discriminator 2
 4486 0f1c 993F0000 		stb 9,0(31)
 4487              		.loc 7 2232 0 discriminator 2
 4488 0f20 981F0000 		stb 0,0(31)
 4489              	.LBE1756:
 4490              	.LBE1755:
 4491              		.loc 3 206 0 discriminator 2
 4492 0f24 813E0090 		lwz 9,144(30)
 4493 0f28 7F89C000 		cmpw 7,9,24
 4494 0f2c 419DFEF4 		bgt+ 7,.L145
 4495              	.LVL354:
 4496              	.L144:
 4497              	.LBE1758:
 4498              		.loc 3 213 0
 4499 0f30 891E00B8 		lbz 8,184(30)
 4500 0f34 3929FFFF 		addi 9,9,-1
 4501              		.loc 3 214 0
 4502 0f38 895E00B9 		lbz 10,185(30)
 4503              		.loc 3 213 0
 4504 0f3c 3C004330 		lis 0,0x4330
 4505              		.loc 3 215 0
 4506 0f40 897E00BA 		lbz 11,186(30)
 4507              		.loc 3 213 0
 4508 0f44 7D134050 		subf 8,19,8
 4509              		.loc 3 217 0
 4510 0f48 C01E0094 		lfs 0,148(30)
 4511              		.loc 3 214 0
 4512 0f4c 7D545050 		subf 10,20,10
 4513              		.loc 3 215 0
 4514 0f50 7D755850 		subf 11,21,11
 4515              		.loc 3 213 0
 4516 0f54 6D298000 		xoris 9,9,0x8000
 4517              		.loc 3 214 0
 4518 0f58 6D4A8000 		xoris 10,10,0x8000
 4519              		.loc 3 215 0
 4520 0f5c 6D6B8000 		xoris 11,11,0x8000
 4521              		.loc 3 217 0
 4522 0f60 ED9B0028 		fsubs 12,27,0
 4523              		.loc 3 213 0
 4524 0f64 6D088000 		xoris 8,8,0x8000
 4525              		.loc 3 217 0
 4526 0f68 EC1E0028 		fsubs 0,30,0
 4527              		.loc 3 213 0
 4528 0f6c 9121017C 		stw 9,380(1)
 4529 0f70 90010178 		stw 0,376(1)
 4530 0f74 91010184 		stw 8,388(1)
 4531 0f78 90010180 		stw 0,384(1)
 4532              		.loc 3 214 0
 4533 0f7c 9141018C 		stw 10,396(1)
 4534 0f80 90010188 		stw 0,392(1)
 4535              		.loc 3 215 0
 4536 0f84 91610194 		stw 11,404(1)
 4537 0f88 90010190 		stw 0,400(1)
 4538              		.loc 3 213 0
 4539 0f8c C9A10178 		lfd 13,376(1)
 4540 0f90 CAE10180 		lfd 23,384(1)
 4541              		.loc 3 214 0
 4542 0f94 CAC10188 		lfd 22,392(1)
 4543              	.LVL355:
 4544              		.loc 3 215 0
 4545 0f98 CAA10190 		lfd 21,400(1)
 4546              	.LVL356:
 4547              	.LBB1759:
 4548              	.LBB1760:
 4549              		.loc 7 2123 0
 4550 0f9c D19F0000 		stfs 12,0(31)
 4551              		.loc 7 2124 0
 4552 0fa0 D01F0000 		stfs 0,0(31)
 4553              		.loc 7 2125 0
 4554 0fa4 D3FF0000 		stfs 31,0(31)
 4555              	.LBE1760:
 4556              	.LBE1759:
 4557              		.loc 3 213 0
 4558 0fa8 C01A0000 		lfs 0,.LC1@l(26)
 4559              		.loc 3 218 0
 4560 0fac 893E00AE 		lbz 9,174(30)
 4561 0fb0 895E00AC 		lbz 10,172(30)
 4562              		.loc 3 213 0
 4563 0fb4 FDAD0028 		fsub 13,13,0
 4564              		.loc 3 218 0
 4565 0fb8 897E00AD 		lbz 11,173(30)
 4566              		.loc 3 213 0
 4567 0fbc FEF70028 		fsub 23,23,0
 4568              	.LBB1761:
 4569              	.LBB1762:
 4570              		.loc 7 2229 0
 4571 0fc0 995F0000 		stb 10,0(31)
 4572              	.LBE1762:
 4573              	.LBE1761:
 4574              		.loc 3 214 0
 4575 0fc4 FED60028 		fsub 22,22,0
 4576              	.LBB1766:
 4577              	.LBB1763:
 4578              		.loc 7 2230 0
 4579 0fc8 997F0000 		stb 11,0(31)
 4580              	.LBE1763:
 4581              	.LBE1766:
 4582              		.loc 3 215 0
 4583 0fcc FEB50028 		fsub 21,21,0
 4584              	.LBB1767:
 4585              	.LBB1764:
 4586              		.loc 7 2231 0
 4587 0fd0 993F0000 		stb 9,0(31)
 4588              	.LBE1764:
 4589              	.LBE1767:
 4590              		.loc 3 213 0
 4591 0fd4 FDA06818 		frsp 13,13
 4592              	.LBB1768:
 4593              	.LBB1765:
 4594              		.loc 7 2232 0
 4595 0fd8 9B9F0000 		stb 28,0(31)
 4596              	.LBE1765:
 4597              	.LBE1768:
 4598              		.loc 3 213 0
 4599 0fdc FEE0B818 		frsp 23,23
 4600              		.loc 3 214 0
 4601 0fe0 FEC0B018 		frsp 22,22
 4602              	.LBB1769:
 4603              		.loc 3 220 0
 4604 0fe4 813E0090 		lwz 9,144(30)
 4605              	.LBE1769:
 4606              		.loc 3 215 0
 4607 0fe8 FEA0A818 		frsp 21,21
 4608              		.loc 3 213 0
 4609 0fec EEF76824 		fdivs 23,23,13
 4610              	.LVL357:
 4611              	.LBB1776:
 4612              		.loc 3 220 0
 4613 0ff0 2F890000 		cmpwi 7,9,0
 4614              	.LBE1776:
 4615              		.loc 3 214 0
 4616 0ff4 EED66824 		fdivs 22,22,13
 4617              	.LVL358:
 4618              		.loc 3 215 0
 4619 0ff8 EEB56824 		fdivs 21,21,13
 4620              	.LVL359:
 4621              	.LBB1777:
 4622              		.loc 3 220 0
 4623 0ffc 409D0168 		ble- 7,.L146
 4624 1000 6E738000 		xoris 19,19,0x8000
 4625              	.LVL360:
 4626 1004 6E948000 		xoris 20,20,0x8000
 4627              	.LVL361:
 4628 1008 6EB58000 		xoris 21,21,0x8000
 4629              	.LVL362:
 4630 100c 9261019C 		stw 19,412(1)
 4631 1010 90010198 		stw 0,408(1)
 4632 1014 3F600000 		lis 27,.LC5@ha
 4633 1018 928101A4 		stw 20,420(1)
 4634 101c 3F200000 		lis 25,.LC1@ha
 4635 1020 900101A0 		stw 0,416(1)
 4636 1024 3AC00000 		li 22,0
 4637 1028 92A101AC 		stw 21,428(1)
 4638 102c 3B000000 		li 24,0
 4639 1030 900101A8 		stw 0,424(1)
 4640 1034 3B390000 		la 25,.LC1@l(25)
 4641 1038 CA410198 		lfd 18,408(1)
 4642 103c 3B7B0010 		la 27,.LC5@l(27)
 4643 1040 CA6101A0 		lfd 19,416(1)
 4644 1044 CA8101A8 		lfd 20,424(1)
 4645 1048 FE520028 		fsub 18,18,0
 4646 104c FE730028 		fsub 19,19,0
 4647 1050 FE940028 		fsub 20,20,0
 4648 1054 FE409018 		frsp 18,18
 4649 1058 FE609818 		frsp 19,19
 4650 105c FE80A018 		frsp 20,20
 4651              	.LVL363:
 4652              	.L147:
 4653              		.loc 3 222 0 discriminator 2
 4654 1060 3929FFFF 		addi 9,9,-1
 4655              	.LVL364:
 4656 1064 6EC08000 		xoris 0,22,0x8000
 4657 1068 6D298000 		xoris 9,9,0x8000
 4658              	.LVL365:
 4659 106c 3EE04330 		lis 23,0x4330
 4660 1070 900101B4 		stw 0,436(1)
 4661              		.loc 3 220 0 discriminator 2
 4662 1074 3AD6005A 		addi 22,22,90
 4663              	.LVL366:
 4664              		.loc 3 222 0 discriminator 2
 4665 1078 912101BC 		stw 9,444(1)
 4666 107c 92E101B0 		stw 23,432(1)
 4667 1080 92E101B8 		stw 23,440(1)
 4668 1084 CB0101B0 		lfd 24,432(1)
 4669 1088 C9A101B8 		lfd 13,440(1)
 4670 108c C3590000 		lfs 26,0(25)
 4671 1090 C01B0000 		lfs 0,0(27)
 4672 1094 FF18D028 		fsub 24,24,26
 4673              		.loc 3 223 0 discriminator 2
 4674 1098 C3BE0094 		lfs 29,148(30)
 4675              		.loc 3 222 0 discriminator 2
 4676 109c FDADD028 		fsub 13,13,26
 4677 10a0 FF00C018 		frsp 24,24
 4678 10a4 FDA06818 		frsp 13,13
 4679 10a8 EF186824 		fdivs 24,24,13
 4680 10ac EF180032 		fmuls 24,24,0
 4681              		.loc 3 223 0 discriminator 2
 4682 10b0 FC20C090 		fmr 1,24
 4683 10b4 48000001 		bl cos
 4684              	.LVL367:
 4685 10b8 FDA0E890 		fmr 13,29
 4686 10bc EC1BE828 		fsubs 0,27,29
 4687 10c0 FC0D007A 		fmadd 0,13,1,0
 4688 10c4 FC20C090 		fmr 1,24
 4689 10c8 FF000018 		frsp 24,0
 4690 10cc 48000001 		bl sin
 4691 10d0 C1BE0098 		lfs 13,152(30)
 4692 10d4 EC1EE828 		fsubs 0,30,29
 4693              		.loc 3 224 0 discriminator 2
 4694 10d8 6F008000 		xoris 0,24,0x8000
 4695              		.loc 3 223 0 discriminator 2
 4696 10dc EFBD6828 		fsubs 29,29,13
 4697              	.LBB1770:
 4698              	.LBB1771:
 4699              		.loc 7 2123 0 discriminator 2
 4700 10e0 D31F0000 		stfs 24,0(31)
 4701              	.LBE1771:
 4702              	.LBE1770:
 4703              		.loc 3 224 0 discriminator 2
 4704 10e4 39210224 		addi 9,1,548
 4705              		.loc 3 220 0 discriminator 2
 4706 10e8 3B180001 		addi 24,24,1
 4707              		.loc 3 223 0 discriminator 2
 4708 10ec FFBD007A 		fmadd 29,29,1,0
 4709 10f0 FFA0E818 		frsp 29,29
 4710              	.LVL368:
 4711              	.LBB1773:
 4712              	.LBB1772:
 4713              		.loc 7 2124 0 discriminator 2
 4714 10f4 D3BF0000 		stfs 29,0(31)
 4715              		.loc 7 2125 0 discriminator 2
 4716 10f8 D3FF0000 		stfs 31,0(31)
 4717              	.LBE1772:
 4718              	.LBE1773:
 4719              		.loc 3 224 0 discriminator 2
 4720 10fc 900101C4 		stw 0,452(1)
 4721 1100 92E101C0 		stw 23,448(1)
 4722 1104 C80101C0 		lfd 0,448(1)
 4723 1108 FF40D028 		fsub 26,0,26
 4724 110c FF40D018 		frsp 26,26
 4725 1110 EDBA95FA 		fmadds 13,26,23,18
 4726 1114 EC169EBA 		fmadds 0,22,26,19
 4727 1118 EF55A6BA 		fmadds 26,21,26,20
 4728 111c FDA0681E 		fctiwz 13,13
 4729 1120 FC00001E 		fctiwz 0,0
 4730 1124 FF40D01E 		fctiwz 26,26
 4731 1128 7DA04FAE 		stfiwx 13,0,9
 4732 112c 39210228 		addi 9,1,552
 4733 1130 7C004FAE 		stfiwx 0,0,9
 4734 1134 3921022C 		addi 9,1,556
 4735 1138 7F404FAE 		stfiwx 26,0,9
 4736 113c 81210228 		lwz 9,552(1)
 4737 1140 81610224 		lwz 11,548(1)
 4738 1144 8001022C 		lwz 0,556(1)
 4739              	.LVL369:
 4740              	.LBB1774:
 4741              	.LBB1775:
 4742              		.loc 7 2229 0 discriminator 2
 4743 1148 997F0000 		stb 11,0(31)
 4744              		.loc 7 2230 0 discriminator 2
 4745 114c 993F0000 		stb 9,0(31)
 4746              		.loc 7 2231 0 discriminator 2
 4747 1150 981F0000 		stb 0,0(31)
 4748              		.loc 7 2232 0 discriminator 2
 4749 1154 9BBF0000 		stb 29,0(31)
 4750              	.LBE1775:
 4751              	.LBE1774:
 4752              		.loc 3 220 0 discriminator 2
 4753 1158 813E0090 		lwz 9,144(30)
 4754 115c 7F89C000 		cmpw 7,9,24
 4755 1160 419DFF00 		bgt+ 7,.L147
 4756              	.LVL370:
 4757              	.L146:
 4758              	.LBE1777:
 4759              	.LBE1739:
 4760              		.loc 3 230 0
 4761 1164 38600080 		li 3,128
 4762 1168 38800000 		li 4,0
 4763 116c 38A00004 		li 5,4
 4764 1170 48000001 		bl GX_Begin
 4765              		.loc 3 231 0
 4766 1174 C01E0094 		lfs 0,148(30)
 4767              		.loc 3 245 0
 4768 1178 386000A0 		li 3,160
 4769 117c 38800000 		li 4,0
 4770              		.loc 3 231 0
 4771 1180 EDBB0028 		fsubs 13,27,0
 4772 1184 EC19002A 		fadds 0,25,0
 4773              	.LVL371:
 4774              	.LBB1778:
 4775              	.LBB1779:
 4776              		.loc 7 2123 0
 4777 1188 D1BF0000 		stfs 13,0(31)
 4778              		.loc 7 2124 0
 4779 118c D01F0000 		stfs 0,0(31)
 4780              		.loc 7 2125 0
 4781 1190 D3FF0000 		stfs 31,0(31)
 4782              	.LBE1779:
 4783              	.LBE1778:
 4784              		.loc 3 232 0
 4785 1194 897E00A8 		lbz 11,168(30)
 4786 1198 893E00A9 		lbz 9,169(30)
 4787 119c 881E00AA 		lbz 0,170(30)
 4788              	.LVL372:
 4789              	.LBB1780:
 4790              	.LBB1781:
 4791              		.loc 7 2229 0
 4792 11a0 997F0000 		stb 11,0(31)
 4793              		.loc 7 2230 0
 4794 11a4 993F0000 		stb 9,0(31)
 4795              		.loc 7 2231 0
 4796 11a8 981F0000 		stb 0,0(31)
 4797              		.loc 7 2232 0
 4798 11ac 9B9F0000 		stb 28,0(31)
 4799              	.LBE1781:
 4800              	.LBE1780:
 4801              		.loc 3 234 0
 4802 11b0 C01E0094 		lfs 0,148(30)
 4803              	.LVL373:
 4804              	.LBB1782:
 4805              	.LBB1783:
 4806              		.loc 7 2123 0
 4807 11b4 D37F0000 		stfs 27,0(31)
 4808              	.LBE1783:
 4809              	.LBE1782:
 4810              		.loc 3 234 0
 4811 11b8 EC19002A 		fadds 0,25,0
 4812              	.LVL374:
 4813              	.LBB1785:
 4814              	.LBB1784:
 4815              		.loc 7 2124 0
 4816 11bc D01F0000 		stfs 0,0(31)
 4817              		.loc 7 2125 0
 4818 11c0 D3FF0000 		stfs 31,0(31)
 4819              	.LBE1784:
 4820              	.LBE1785:
 4821              		.loc 3 235 0
 4822 11c4 897E00B0 		lbz 11,176(30)
 4823              	.LVL375:
 4824 11c8 893E00B1 		lbz 9,177(30)
 4825              	.LVL376:
 4826 11cc 881E00B2 		lbz 0,178(30)
 4827              	.LVL377:
 4828              	.LBB1786:
 4829              	.LBB1787:
 4830              		.loc 7 2229 0
 4831 11d0 997F0000 		stb 11,0(31)
 4832              		.loc 7 2230 0
 4833 11d4 993F0000 		stb 9,0(31)
 4834              		.loc 7 2231 0
 4835 11d8 981F0000 		stb 0,0(31)
 4836              		.loc 7 2232 0
 4837 11dc 9B9F0000 		stb 28,0(31)
 4838              	.LBE1787:
 4839              	.LBE1786:
 4840              		.loc 3 237 0
 4841 11e0 C01E0094 		lfs 0,148(30)
 4842              	.LVL378:
 4843              	.LBB1788:
 4844              	.LBB1789:
 4845              		.loc 7 2123 0
 4846 11e4 D37F0000 		stfs 27,0(31)
 4847              	.LBE1789:
 4848              	.LBE1788:
 4849              		.loc 3 237 0
 4850 11e8 EC1E0028 		fsubs 0,30,0
 4851              	.LVL379:
 4852              	.LBB1791:
 4853              	.LBB1790:
 4854              		.loc 7 2124 0
 4855 11ec D01F0000 		stfs 0,0(31)
 4856              		.loc 7 2125 0
 4857 11f0 D3FF0000 		stfs 31,0(31)
 4858              	.LBE1790:
 4859              	.LBE1791:
 4860              		.loc 3 238 0
 4861 11f4 897E00B4 		lbz 11,180(30)
 4862              	.LVL380:
 4863 11f8 893E00B5 		lbz 9,181(30)
 4864              	.LVL381:
 4865 11fc 881E00B6 		lbz 0,182(30)
 4866              	.LVL382:
 4867              	.LBB1792:
 4868              	.LBB1793:
 4869              		.loc 7 2229 0
 4870 1200 997F0000 		stb 11,0(31)
 4871              		.loc 7 2230 0
 4872 1204 993F0000 		stb 9,0(31)
 4873              		.loc 7 2231 0
 4874 1208 981F0000 		stb 0,0(31)
 4875              		.loc 7 2232 0
 4876 120c 9B9F0000 		stb 28,0(31)
 4877              	.LBE1793:
 4878              	.LBE1792:
 4879              		.loc 3 240 0
 4880 1210 C01E0094 		lfs 0,148(30)
 4881              	.LVL383:
 4882 1214 EDBB0028 		fsubs 13,27,0
 4883              	.LVL384:
 4884 1218 EC1E0028 		fsubs 0,30,0
 4885              	.LVL385:
 4886              	.LBB1794:
 4887              	.LBB1795:
 4888              		.loc 7 2123 0
 4889 121c D1BF0000 		stfs 13,0(31)
 4890              		.loc 7 2124 0
 4891 1220 D01F0000 		stfs 0,0(31)
 4892              		.loc 7 2125 0
 4893 1224 D3FF0000 		stfs 31,0(31)
 4894              	.LBE1795:
 4895              	.LBE1794:
 4896              		.loc 3 241 0
 4897 1228 897E00AC 		lbz 11,172(30)
 4898              	.LVL386:
 4899 122c 893E00AD 		lbz 9,173(30)
 4900              	.LVL387:
 4901 1230 881E00AE 		lbz 0,174(30)
 4902              	.LVL388:
 4903              	.LBB1796:
 4904              	.LBB1797:
 4905              		.loc 7 2229 0
 4906 1234 997F0000 		stb 11,0(31)
 4907              		.loc 7 2230 0
 4908 1238 993F0000 		stb 9,0(31)
 4909              		.loc 7 2231 0
 4910 123c 981F0000 		stb 0,0(31)
 4911              		.loc 7 2232 0
 4912 1240 9B9F0000 		stb 28,0(31)
 4913              	.LBE1797:
 4914              	.LBE1796:
 4915              		.loc 3 245 0
 4916 1244 80BE0090 		lwz 5,144(30)
 4917 1248 38A50001 		addi 5,5,1
 4918 124c 54A5043E 		rlwinm 5,5,0,0xffff
 4919 1250 48000001 		bl GX_Begin
 4920              	.LVL389:
 4921              	.LBB1798:
 4922              		.loc 3 248 0
 4923 1254 891E00A4 		lbz 8,164(30)
 4924              	.LVL390:
 4925              		.loc 3 249 0
 4926 1258 895E00A5 		lbz 10,165(30)
 4927              	.LVL391:
 4928              		.loc 3 251 0
 4929 125c 3C004330 		lis 0,0x4330
 4930              		.loc 3 250 0
 4931 1260 897E00A6 		lbz 11,166(30)
 4932              	.LVL392:
 4933              		.loc 3 251 0
 4934 1264 80BE0090 		lwz 5,144(30)
 4935 1268 88DE00B0 		lbz 6,176(30)
 4936              		.loc 3 252 0
 4937 126c 88FE00B1 		lbz 7,177(30)
 4938              		.loc 3 251 0
 4939 1270 38A5FFFF 		addi 5,5,-1
 4940              		.loc 3 253 0
 4941 1274 893E00B2 		lbz 9,178(30)
 4942              		.loc 3 251 0
 4943 1278 7CC83050 		subf 6,8,6
 4944              		.loc 3 254 0
 4945 127c C01E0094 		lfs 0,148(30)
 4946              		.loc 3 252 0
 4947 1280 7CEA3850 		subf 7,10,7
 4948              		.loc 3 253 0
 4949 1284 7D2B4850 		subf 9,11,9
 4950              		.loc 3 251 0
 4951 1288 6CC68000 		xoris 6,6,0x8000
 4952              		.loc 3 252 0
 4953 128c 6CE78000 		xoris 7,7,0x8000
 4954              		.loc 3 253 0
 4955 1290 6D298000 		xoris 9,9,0x8000
 4956              		.loc 3 254 0
 4957 1294 ED9B0028 		fsubs 12,27,0
 4958              		.loc 3 251 0
 4959 1298 6CA58000 		xoris 5,5,0x8000
 4960              		.loc 3 254 0
 4961 129c EC19002A 		fadds 0,25,0
 4962              		.loc 3 251 0
 4963 12a0 90A101CC 		stw 5,460(1)
 4964 12a4 900101C8 		stw 0,456(1)
 4965 12a8 90C101D4 		stw 6,468(1)
 4966 12ac 900101D0 		stw 0,464(1)
 4967              		.loc 3 252 0
 4968 12b0 90E101DC 		stw 7,476(1)
 4969 12b4 900101D8 		stw 0,472(1)
 4970              		.loc 3 253 0
 4971 12b8 912101E4 		stw 9,484(1)
 4972 12bc 900101E0 		stw 0,480(1)
 4973              		.loc 3 251 0
 4974 12c0 C9A101C8 		lfd 13,456(1)
 4975 12c4 CAC101D0 		lfd 22,464(1)
 4976              	.LVL393:
 4977              		.loc 3 252 0
 4978 12c8 CAA101D8 		lfd 21,472(1)
 4979              	.LVL394:
 4980              		.loc 3 253 0
 4981 12cc CA8101E0 		lfd 20,480(1)
 4982              	.LBB1799:
 4983              	.LBB1800:
 4984              		.loc 7 2123 0
 4985 12d0 D19F0000 		stfs 12,0(31)
 4986              		.loc 7 2124 0
 4987 12d4 D01F0000 		stfs 0,0(31)
 4988              		.loc 7 2125 0
 4989 12d8 D3FF0000 		stfs 31,0(31)
 4990              	.LBE1800:
 4991              	.LBE1799:
 4992              		.loc 3 251 0
 4993 12dc C01A0000 		lfs 0,.LC1@l(26)
 4994              		.loc 3 255 0
 4995 12e0 893E00AA 		lbz 9,170(30)
 4996 12e4 88DE00A8 		lbz 6,168(30)
 4997              		.loc 3 251 0
 4998 12e8 FDAD0028 		fsub 13,13,0
 4999              		.loc 3 255 0
 5000 12ec 88FE00A9 		lbz 7,169(30)
 5001              		.loc 3 251 0
 5002 12f0 FED60028 		fsub 22,22,0
 5003              	.LBB1801:
 5004              	.LBB1802:
 5005              		.loc 7 2229 0
 5006 12f4 98DF0000 		stb 6,0(31)
 5007              	.LBE1802:
 5008              	.LBE1801:
 5009              		.loc 3 252 0
 5010 12f8 FEB50028 		fsub 21,21,0
 5011              	.LBB1806:
 5012              	.LBB1803:
 5013              		.loc 7 2230 0
 5014 12fc 98FF0000 		stb 7,0(31)
 5015              	.LBE1803:
 5016              	.LBE1806:
 5017              		.loc 3 253 0
 5018 1300 FE940028 		fsub 20,20,0
 5019              	.LBB1807:
 5020              	.LBB1804:
 5021              		.loc 7 2231 0
 5022 1304 993F0000 		stb 9,0(31)
 5023              	.LBE1804:
 5024              	.LBE1807:
 5025              		.loc 3 251 0
 5026 1308 FDA06818 		frsp 13,13
 5027              	.LBB1808:
 5028              	.LBB1805:
 5029              		.loc 7 2232 0
 5030 130c 9B9F0000 		stb 28,0(31)
 5031              	.LBE1805:
 5032              	.LBE1808:
 5033              		.loc 3 251 0
 5034 1310 FEC0B018 		frsp 22,22
 5035              		.loc 3 252 0
 5036 1314 FEA0A818 		frsp 21,21
 5037              	.LBB1809:
 5038              		.loc 3 257 0
 5039 1318 813E0090 		lwz 9,144(30)
 5040              	.LBE1809:
 5041              		.loc 3 253 0
 5042 131c FE80A018 		frsp 20,20
 5043              		.loc 3 251 0
 5044 1320 EED66824 		fdivs 22,22,13
 5045              	.LVL395:
 5046              	.LBB1816:
 5047              		.loc 3 257 0
 5048 1324 2F890000 		cmpwi 7,9,0
 5049              	.LBE1816:
 5050              		.loc 3 252 0
 5051 1328 EEB56824 		fdivs 21,21,13
 5052              	.LVL396:
 5053              		.loc 3 253 0
 5054 132c EE946824 		fdivs 20,20,13
 5055              	.LVL397:
 5056              	.LBB1817:
 5057              		.loc 3 257 0
 5058 1330 409D0170 		ble- 7,.L148
 5059 1334 6D088000 		xoris 8,8,0x8000
 5060              	.LVL398:
 5061 1338 6D4A8000 		xoris 10,10,0x8000
 5062              	.LVL399:
 5063 133c 6D6B8000 		xoris 11,11,0x8000
 5064              	.LVL400:
 5065 1340 910101EC 		stw 8,492(1)
 5066 1344 900101E8 		stw 0,488(1)
 5067 1348 3F600000 		lis 27,.LC5@ha
 5068 134c 914101F4 		stw 10,500(1)
 5069 1350 3F200000 		lis 25,.LC1@ha
 5070 1354 900101F0 		stw 0,496(1)
 5071 1358 3EC00000 		lis 22,.LC8@ha
 5072 135c 916101FC 		stw 11,508(1)
 5073 1360 3AE00000 		li 23,0
 5074 1364 900101F8 		stw 0,504(1)
 5075 1368 3B400000 		li 26,0
 5076 136c CA2101E8 		lfd 17,488(1)
 5077 1370 3B390000 		la 25,.LC1@l(25)
 5078 1374 CA4101F0 		lfd 18,496(1)
 5079 1378 3B7B0010 		la 27,.LC5@l(27)
 5080 137c CA6101F8 		lfd 19,504(1)
 5081 1380 FE310028 		fsub 17,17,0
 5082 1384 FE520028 		fsub 18,18,0
 5083 1388 3AD6001C 		la 22,.LC8@l(22)
 5084 138c FE730028 		fsub 19,19,0
 5085 1390 FE208818 		frsp 17,17
 5086 1394 FE409018 		frsp 18,18
 5087 1398 FE609818 		frsp 19,19
 5088              	.LVL401:
 5089              	.L149:
 5090              		.loc 3 259 0 discriminator 2
 5091 139c 3929FFFF 		addi 9,9,-1
 5092              	.LVL402:
 5093 13a0 6EE08000 		xoris 0,23,0x8000
 5094 13a4 6D298000 		xoris 9,9,0x8000
 5095              	.LVL403:
 5096 13a8 3F004330 		lis 24,0x4330
 5097 13ac 90010204 		stw 0,516(1)
 5098              		.loc 3 257 0 discriminator 2
 5099 13b0 3AF7005A 		addi 23,23,90
 5100              	.LVL404:
 5101              		.loc 3 259 0 discriminator 2
 5102 13b4 9121020C 		stw 9,524(1)
 5103 13b8 93010200 		stw 24,512(1)
 5104 13bc 93010208 		stw 24,520(1)
 5105 13c0 CAE10200 		lfd 23,512(1)
 5106 13c4 C9810208 		lfd 12,520(1)
 5107 13c8 C3B90000 		lfs 29,0(25)
 5108 13cc C1B60000 		lfs 13,0(22)
 5109 13d0 FEF7E828 		fsub 23,23,29
 5110 13d4 C01B0000 		lfs 0,0(27)
 5111 13d8 FD8CE828 		fsub 12,12,29
 5112              		.loc 3 260 0 discriminator 2
 5113 13dc C35E0094 		lfs 26,148(30)
 5114              		.loc 3 259 0 discriminator 2
 5115 13e0 FEE0B818 		frsp 23,23
 5116 13e4 FD806018 		frsp 12,12
 5117              		.loc 3 260 0 discriminator 2
 5118 13e8 FF00D090 		fmr 24,26
 5119              		.loc 3 259 0 discriminator 2
 5120 13ec EEF76024 		fdivs 23,23,12
 5121 13f0 EEF7682A 		fadds 23,23,13
 5122 13f4 EEF70032 		fmuls 23,23,0
 5123              		.loc 3 260 0 discriminator 2
 5124 13f8 FC20B890 		fmr 1,23
 5125 13fc 48000001 		bl cos
 5126              	.LVL405:
 5127 1400 EC1BD028 		fsubs 0,27,26
 5128 1404 EF59D02A 		fadds 26,25,26
 5129 1408 FC18007A 		fmadd 0,24,1,0
 5130 140c FC20B890 		fmr 1,23
 5131 1410 FEE00018 		frsp 23,0
 5132 1414 48000001 		bl sin
 5133              		.loc 3 261 0 discriminator 2
 5134 1418 6F408000 		xoris 0,26,0x8000
 5135              		.loc 3 260 0 discriminator 2
 5136 141c FF58D07A 		fmadd 26,24,1,26
 5137              		.loc 3 261 0 discriminator 2
 5138 1420 39210218 		addi 9,1,536
 5139              	.LBB1810:
 5140              	.LBB1811:
 5141              		.loc 7 2123 0 discriminator 2
 5142 1424 D2FF0000 		stfs 23,0(31)
 5143              	.LBE1811:
 5144              	.LBE1810:
 5145              		.loc 3 257 0 discriminator 2
 5146 1428 3B5A0001 		addi 26,26,1
 5147              		.loc 3 260 0 discriminator 2
 5148 142c FF40D018 		frsp 26,26
 5149              	.LVL406:
 5150              	.LBB1813:
 5151              	.LBB1812:
 5152              		.loc 7 2124 0 discriminator 2
 5153 1430 D35F0000 		stfs 26,0(31)
 5154              		.loc 7 2125 0 discriminator 2
 5155 1434 D3FF0000 		stfs 31,0(31)
 5156              	.LBE1812:
 5157              	.LBE1813:
 5158              		.loc 3 261 0 discriminator 2
 5159 1438 90010214 		stw 0,532(1)
 5160 143c 93010210 		stw 24,528(1)
 5161 1440 C8010210 		lfd 0,528(1)
 5162 1444 FFA0E828 		fsub 29,0,29
 5163 1448 FFA0E818 		frsp 29,29
 5164 144c EDBD8DBA 		fmadds 13,29,22,17
 5165 1450 EC15977A 		fmadds 0,21,29,18
 5166 1454 EFB49F7A 		fmadds 29,20,29,19
 5167 1458 FDA0681E 		fctiwz 13,13
 5168 145c FC00001E 		fctiwz 0,0
 5169 1460 FFA0E81E 		fctiwz 29,29
 5170 1464 7DA04FAE 		stfiwx 13,0,9
 5171 1468 3921021C 		addi 9,1,540
 5172 146c 7C004FAE 		stfiwx 0,0,9
 5173 1470 39210220 		addi 9,1,544
 5174 1474 7FA04FAE 		stfiwx 29,0,9
 5175 1478 8121021C 		lwz 9,540(1)
 5176 147c 81610218 		lwz 11,536(1)
 5177 1480 80010220 		lwz 0,544(1)
 5178              	.LVL407:
 5179              	.LBB1814:
 5180              	.LBB1815:
 5181              		.loc 7 2229 0 discriminator 2
 5182 1484 997F0000 		stb 11,0(31)
 5183              		.loc 7 2230 0 discriminator 2
 5184 1488 993F0000 		stb 9,0(31)
 5185              		.loc 7 2231 0 discriminator 2
 5186 148c 981F0000 		stb 0,0(31)
 5187              		.loc 7 2232 0 discriminator 2
 5188 1490 9BBF0000 		stb 29,0(31)
 5189              	.LBE1815:
 5190              	.LBE1814:
 5191              		.loc 3 257 0 discriminator 2
 5192 1494 813E0090 		lwz 9,144(30)
 5193 1498 7F89D000 		cmpw 7,9,26
 5194 149c 419DFF00 		bgt+ 7,.L149
 5195              	.LVL408:
 5196              	.L148:
 5197              	.LBE1817:
 5198              	.LBE1798:
 5199              		.loc 3 267 0
 5200 14a0 38A00004 		li 5,4
 5201 14a4 38600080 		li 3,128
 5202 14a8 38800000 		li 4,0
 5203 14ac 48000001 		bl GX_Begin
 5204              		.loc 3 268 0
 5205 14b0 C01E0094 		lfs 0,148(30)
 5206              		.loc 3 281 0
 5207 14b4 38600000 		li 3,0
 5208 14b8 38800000 		li 4,0
 5209              		.loc 3 268 0
 5210 14bc EDA0E02A 		fadds 13,0,28
 5211 14c0 EC19002A 		fadds 0,25,0
 5212              	.LVL409:
 5213              	.LBB1818:
 5214              	.LBB1819:
 5215              		.loc 7 2123 0
 5216 14c4 D1BF0000 		stfs 13,0(31)
 5217              		.loc 7 2124 0
 5218 14c8 D01F0000 		stfs 0,0(31)
 5219              		.loc 7 2125 0
 5220 14cc D3FF0000 		stfs 31,0(31)
 5221              	.LBE1819:
 5222              	.LBE1818:
 5223              		.loc 3 269 0
 5224 14d0 897E00A8 		lbz 11,168(30)
 5225 14d4 893E00A9 		lbz 9,169(30)
 5226 14d8 881E00AA 		lbz 0,170(30)
 5227              	.LVL410:
 5228              	.LBB1820:
 5229              	.LBB1821:
 5230              		.loc 7 2229 0
 5231 14dc 997F0000 		stb 11,0(31)
 5232              		.loc 7 2230 0
 5233 14e0 993F0000 		stb 9,0(31)
 5234              		.loc 7 2231 0
 5235 14e4 981F0000 		stb 0,0(31)
 5236              		.loc 7 2232 0
 5237 14e8 9B9F0000 		stb 28,0(31)
 5238              	.LBE1821:
 5239              	.LBE1820:
 5240              		.loc 3 271 0
 5241 14ec C01E0094 		lfs 0,148(30)
 5242              	.LVL411:
 5243 14f0 EDBB0028 		fsubs 13,27,0
 5244              	.LVL412:
 5245 14f4 EF39002A 		fadds 25,25,0
 5246              	.LVL413:
 5247              	.LBB1822:
 5248              	.LBB1823:
 5249              		.loc 7 2123 0
 5250 14f8 D1BF0000 		stfs 13,0(31)
 5251              		.loc 7 2124 0
 5252 14fc D33F0000 		stfs 25,0(31)
 5253              		.loc 7 2125 0
 5254 1500 D3FF0000 		stfs 31,0(31)
 5255              	.LBE1823:
 5256              	.LBE1822:
 5257              		.loc 3 272 0
 5258 1504 897E00A8 		lbz 11,168(30)
 5259              	.LVL414:
 5260 1508 893E00A9 		lbz 9,169(30)
 5261              	.LVL415:
 5262 150c 881E00AA 		lbz 0,170(30)
 5263              	.LVL416:
 5264              	.LBB1824:
 5265              	.LBB1825:
 5266              		.loc 7 2229 0
 5267 1510 997F0000 		stb 11,0(31)
 5268              		.loc 7 2230 0
 5269 1514 993F0000 		stb 9,0(31)
 5270              		.loc 7 2231 0
 5271 1518 981F0000 		stb 0,0(31)
 5272              		.loc 7 2232 0
 5273 151c 9B9F0000 		stb 28,0(31)
 5274              	.LBE1825:
 5275              	.LBE1824:
 5276              		.loc 3 274 0
 5277 1520 C01E0094 		lfs 0,148(30)
 5278 1524 EF7B0028 		fsubs 27,27,0
 5279              	.LVL417:
 5280 1528 EC1E0028 		fsubs 0,30,0
 5281              	.LVL418:
 5282              	.LBB1826:
 5283              	.LBB1827:
 5284              		.loc 7 2123 0
 5285 152c D37F0000 		stfs 27,0(31)
 5286              		.loc 7 2124 0
 5287 1530 D01F0000 		stfs 0,0(31)
 5288              		.loc 7 2125 0
 5289 1534 D3FF0000 		stfs 31,0(31)
 5290              	.LBE1827:
 5291              	.LBE1826:
 5292              		.loc 3 275 0
 5293 1538 897E00AC 		lbz 11,172(30)
 5294              	.LVL419:
 5295 153c 893E00AD 		lbz 9,173(30)
 5296              	.LVL420:
 5297 1540 881E00AE 		lbz 0,174(30)
 5298              	.LVL421:
 5299              	.LBB1828:
 5300              	.LBB1829:
 5301              		.loc 7 2229 0
 5302 1544 997F0000 		stb 11,0(31)
 5303              		.loc 7 2230 0
 5304 1548 993F0000 		stb 9,0(31)
 5305              		.loc 7 2231 0
 5306 154c 981F0000 		stb 0,0(31)
 5307              		.loc 7 2232 0
 5308 1550 9B9F0000 		stb 28,0(31)
 5309              	.LBE1829:
 5310              	.LBE1828:
 5311              		.loc 3 277 0
 5312 1554 C01E0094 		lfs 0,148(30)
 5313              	.LVL422:
 5314 1558 EF80E02A 		fadds 28,0,28
 5315              	.LVL423:
 5316 155c EFDE0028 		fsubs 30,30,0
 5317              	.LVL424:
 5318              	.LBB1830:
 5319              	.LBB1831:
 5320              		.loc 7 2123 0
 5321 1560 D39F0000 		stfs 28,0(31)
 5322              		.loc 7 2124 0
 5323 1564 D3DF0000 		stfs 30,0(31)
 5324              		.loc 7 2125 0
 5325 1568 D3FF0000 		stfs 31,0(31)
 5326              	.LBE1831:
 5327              	.LBE1830:
 5328              		.loc 3 278 0
 5329 156c 881E00AE 		lbz 0,174(30)
 5330              	.LVL425:
 5331 1570 897E00AC 		lbz 11,172(30)
 5332              	.LVL426:
 5333 1574 893E00AD 		lbz 9,173(30)
 5334              	.LVL427:
 5335              	.LBB1832:
 5336              	.LBB1833:
 5337              		.loc 7 2229 0
 5338 1578 997F0000 		stb 11,0(31)
 5339              		.loc 7 2230 0
 5340 157c 993F0000 		stb 9,0(31)
 5341              		.loc 7 2231 0
 5342 1580 981F0000 		stb 0,0(31)
 5343              		.loc 7 2232 0
 5344 1584 9B9F0000 		stb 28,0(31)
 5345              	.LBE1833:
 5346              	.LBE1832:
 5347              		.loc 3 281 0
 5348 1588 48000001 		bl GX_SetTevOp
 5349              	.LVL428:
 5350              		.loc 3 283 0
 5351 158c 48000001 		bl GX_EndDispList
 5352              	.LBE1836:
 5353              		.loc 3 284 0
 5354 1590 8001033C 		lwz 0,828(1)
 5355              	.LBB1837:
 5356              		.loc 3 283 0
 5357 1594 907E00A0 		stw 3,160(30)
 5358              	.LBE1837:
 5359              		.loc 3 284 0
 5360 1598 7C0803A6 		mtlr 0
 5361 159c 82610274 		lwz 19,628(1)
 5362 15a0 82810278 		lwz 20,632(1)
 5363 15a4 82A1027C 		lwz 21,636(1)
 5364 15a8 82C10280 		lwz 22,640(1)
 5365 15ac 82E10284 		lwz 23,644(1)
 5366 15b0 83010288 		lwz 24,648(1)
 5367 15b4 8321028C 		lwz 25,652(1)
 5368 15b8 83410290 		lwz 26,656(1)
 5369 15bc 83610294 		lwz 27,660(1)
 5370 15c0 83810298 		lwz 28,664(1)
 5371              	.LVL429:
 5372 15c4 83A1029C 		lwz 29,668(1)
 5373              	.LVL430:
 5374 15c8 83C102A0 		lwz 30,672(1)
 5375              	.LVL431:
 5376 15cc 83E102A4 		lwz 31,676(1)
 5377 15d0 C9C102A8 		lfd 14,680(1)
 5378 15d4 C9E102B0 		lfd 15,688(1)
 5379 15d8 CA0102B8 		lfd 16,696(1)
 5380 15dc CA2102C0 		lfd 17,704(1)
 5381 15e0 CA4102C8 		lfd 18,712(1)
 5382 15e4 CA6102D0 		lfd 19,720(1)
 5383 15e8 CA8102D8 		lfd 20,728(1)
 5384              	.LVL432:
 5385 15ec CAA102E0 		lfd 21,736(1)
 5386              	.LVL433:
 5387 15f0 CAC102E8 		lfd 22,744(1)
 5388              	.LVL434:
 5389 15f4 CAE102F0 		lfd 23,752(1)
 5390 15f8 CB0102F8 		lfd 24,760(1)
 5391 15fc CB210300 		lfd 25,768(1)
 5392              	.LVL435:
 5393 1600 CB410308 		lfd 26,776(1)
 5394 1604 CB610310 		lfd 27,784(1)
 5395              	.LVL436:
 5396 1608 CB810318 		lfd 28,792(1)
 5397              	.LVL437:
 5398 160c CBA10320 		lfd 29,800(1)
 5399 1610 CBC10328 		lfd 30,808(1)
 5400              	.LVL438:
 5401 1614 CBE10330 		lfd 31,816(1)
 5402              	.LVL439:
 5403 1618 38210338 		addi 1,1,824
 5404              	.LCFI40:
 5405              		.cfi_def_cfa_offset 0
 5406              		.cfi_restore 63
 5407              		.cfi_restore 62
 5408              		.cfi_restore 61
 5409              		.cfi_restore 60
 5410              		.cfi_restore 59
 5411              		.cfi_restore 58
 5412              		.cfi_restore 57
 5413              		.cfi_restore 56
 5414              		.cfi_restore 55
 5415              		.cfi_restore 54
 5416              		.cfi_restore 53
 5417              		.cfi_restore 52
 5418              		.cfi_restore 51
 5419              		.cfi_restore 50
 5420              		.cfi_restore 49
 5421              		.cfi_restore 48
 5422              		.cfi_restore 47
 5423              		.cfi_restore 46
 5424              		.cfi_restore 31
 5425              		.cfi_restore 30
 5426              		.cfi_restore 29
 5427              		.cfi_restore 28
 5428              		.cfi_restore 27
 5429              		.cfi_restore 26
 5430              		.cfi_restore 25
 5431              		.cfi_restore 24
 5432              		.cfi_restore 23
 5433              		.cfi_restore 22
 5434              		.cfi_restore 21
 5435              		.cfi_restore 20
 5436              		.cfi_restore 19
 5437 161c 4E800020 		blr
 5438              		.cfi_endproc
 5439              	.LFE1434:
 5440              		.size	_ZN13GuiFrameImage14CreateDrawListEv, .-_ZN13GuiFrameImage14CreateDrawListEv
 5441              		.align 2
 5442              		.globl _ZN13GuiFrameImage4DrawEv
 5443              		.type	_ZN13GuiFrameImage4DrawEv, @function
 5444              	_ZN13GuiFrameImage4DrawEv:
 5445              	.LFB1435:
 5446              		.loc 3 287 0
 5447              		.cfi_startproc
 5448              	.LVL440:
 5449 1620 7C0802A6 		mflr 0
 5450 1624 9421FFF0 		stwu 1,-16(1)
 5451              	.LCFI41:
 5452              		.cfi_def_cfa_offset 16
 5453              		.cfi_register 65, 0
 5454 1628 93E1000C 		stw 31,12(1)
 5455 162c 7C7F1B78 		mr 31,3
 5456              		.cfi_offset 31, -4
 5457 1630 90010014 		stw 0,20(1)
 5458 1634 93C10008 		stw 30,8(1)
 5459              		.loc 3 288 0
 5460 1638 81230000 		lwz 9,0(3)
 5461 163c 80090034 		lwz 0,52(9)
 5462              		.cfi_offset 30, -8
 5463              		.cfi_offset 65, 4
 5464 1640 7C0903A6 		mtctr 0
 5465 1644 4E800421 		bctrl
 5466              	.LVL441:
 5467 1648 2F830000 		cmpwi 7,3,0
 5468 164c 409E001C 		bne- 7,.L160
 5469              		.loc 3 302 0
 5470 1650 80010014 		lwz 0,20(1)
 5471 1654 83C10008 		lwz 30,8(1)
 5472 1658 7C0803A6 		mtlr 0
 5473 165c 83E1000C 		lwz 31,12(1)
 5474              	.LVL442:
 5475 1660 38210010 		addi 1,1,16
 5476              		.cfi_remember_state
 5477              	.LCFI42:
 5478              		.cfi_def_cfa_offset 0
 5479              		.cfi_restore 31
 5480              		.cfi_restore 30
 5481 1664 4E800020 		blr
 5482              	.LVL443:
 5483              	.L160:
 5484              	.LCFI43:
 5485              		.cfi_restore_state
 5486              	.LBB1840:
 5487              	.LBB1841:
 5488              		.loc 3 291 0
 5489 1668 813F0000 		lwz 9,0(31)
 5490 166c 7FE3FB78 		mr 3,31
 5491 1670 83DF00CC 		lwz 30,204(31)
 5492 1674 80090024 		lwz 0,36(9)
 5493 1678 7C0903A6 		mtctr 0
 5494 167c 4E800421 		bctrl
 5495 1680 7F9E1800 		cmpw 7,30,3
 5496 1684 419E0030 		beq- 7,.L161
 5497              	.L158:
 5498              		.loc 3 298 0
 5499 1688 7FE3FB78 		mr 3,31
 5500 168c 48000001 		bl _ZN13GuiFrameImage14CreateDrawListEv
 5501              	.L159:
 5502              		.loc 3 301 0
 5503 1690 807F009C 		lwz 3,156(31)
 5504 1694 809F00A0 		lwz 4,160(31)
 5505 1698 48000001 		bl GX_CallDispList
 5506              	.LBE1841:
 5507              	.LBE1840:
 5508              		.loc 3 302 0
 5509 169c 80010014 		lwz 0,20(1)
 5510 16a0 83C10008 		lwz 30,8(1)
 5511 16a4 7C0803A6 		mtlr 0
 5512 16a8 83E1000C 		lwz 31,12(1)
 5513              	.LVL444:
 5514 16ac 38210010 		addi 1,1,16
 5515              		.cfi_remember_state
 5516              		.cfi_restore 30
 5517              		.cfi_restore 31
 5518              	.LCFI44:
 5519              		.cfi_def_cfa_offset 0
 5520 16b0 4E800020 		blr
 5521              	.LVL445:
 5522              	.L161:
 5523              	.LCFI45:
 5524              		.cfi_restore_state
 5525              	.LBB1843:
 5526              	.LBB1842:
 5527              		.loc 3 292 0
 5528 16b4 813F0000 		lwz 9,0(31)
 5529 16b8 7FE3FB78 		mr 3,31
 5530              		.loc 3 291 0
 5531 16bc 83DF00D0 		lwz 30,208(31)
 5532              		.loc 3 292 0
 5533 16c0 80090028 		lwz 0,40(9)
 5534 16c4 7C0903A6 		mtctr 0
 5535 16c8 4E800421 		bctrl
 5536              		.loc 3 291 0
 5537 16cc 7F9E1800 		cmpw 7,30,3
 5538 16d0 409EFFB8 		bne+ 7,.L158
 5539              		.loc 3 293 0
 5540 16d4 813F0000 		lwz 9,0(31)
 5541 16d8 7FE3FB78 		mr 3,31
 5542              		.loc 3 291 0
 5543 16dc 83DF00C0 		lwz 30,192(31)
 5544              		.loc 3 293 0
 5545 16e0 80090010 		lwz 0,16(9)
 5546 16e4 7C0903A6 		mtctr 0
 5547 16e8 4E800421 		bctrl
 5548              		.loc 3 291 0
 5549 16ec 7F9E1800 		cmpw 7,30,3
 5550 16f0 409EFF98 		bne+ 7,.L158
 5551              		.loc 3 294 0
 5552 16f4 813F0000 		lwz 9,0(31)
 5553 16f8 7FE3FB78 		mr 3,31
 5554              		.loc 3 291 0
 5555 16fc 83DF00C4 		lwz 30,196(31)
 5556              		.loc 3 294 0
 5557 1700 80090014 		lwz 0,20(9)
 5558 1704 7C0903A6 		mtctr 0
 5559 1708 4E800421 		bctrl
 5560              		.loc 3 291 0
 5561 170c 7F9E1800 		cmpw 7,30,3
 5562 1710 409EFF78 		bne+ 7,.L158
 5563              		.loc 3 295 0
 5564 1714 813F0000 		lwz 9,0(31)
 5565 1718 7FE3FB78 		mr 3,31
 5566              		.loc 3 291 0
 5567 171c 83DF00C8 		lwz 30,200(31)
 5568              		.loc 3 295 0
 5569 1720 80090018 		lwz 0,24(9)
 5570 1724 7C0903A6 		mtctr 0
 5571 1728 4E800421 		bctrl
 5572              		.loc 3 291 0
 5573 172c 7F9E1800 		cmpw 7,30,3
 5574 1730 409EFF58 		bne+ 7,.L158
 5575              		.loc 3 296 0
 5576 1734 813F0000 		lwz 9,0(31)
 5577 1738 7FE3FB78 		mr 3,31
 5578              		.loc 3 291 0
 5579 173c 83DF00D4 		lwz 30,212(31)
 5580              		.loc 3 296 0
 5581 1740 80090064 		lwz 0,100(9)
 5582 1744 7C0903A6 		mtctr 0
 5583 1748 4E800421 		bctrl
 5584              		.loc 3 291 0
 5585 174c 7F9E1800 		cmpw 7,30,3
 5586 1750 409EFF38 		bne+ 7,.L158
 5587 1754 4BFFFF3C 		b .L159
 5588              	.LBE1842:
 5589              	.LBE1843:
 5590              		.cfi_endproc
 5591              	.LFE1435:
 5592              		.size	_ZN13GuiFrameImage4DrawEv, .-_ZN13GuiFrameImage4DrawEv
 5593              		.section	.text._ZNSt8_Rb_treeIPN7sigslot12_signal_baseINS0_15single_threadedEEES4_St9_IdentityIS4_
 5594              		.align 2
 5595              		.weak	_ZNSt8_Rb_treeIPN7sigslot12_signal_baseINS0_15single_threadedEEES4_St9_IdentityIS4_ESt4lessI
 5596              		.type	_ZNSt8_Rb_treeIPN7sigslot12_signal_baseINS0_15single_threadedEEES4_St9_IdentityIS4_ESt4lessI
 5597              	_ZNSt8_Rb_treeIPN7sigslot12_signal_baseINS0_15single_threadedEEES4_St9_IdentityIS4_ESt4lessIS4_ESaI
 5598              	.LFB1636:
 5599              		.file 8 "d:\\devkitpro\\devkitppc\\bin\\../lib/gcc/powerpc-eabi/4.6.3/../../../../powerpc-eabi/inc
 5600              		.loc 8 1068 0
 5601              		.cfi_startproc
 5602              	.LVL446:
 5603 0000 9421FFC8 		stwu 1,-56(1)
 5604              	.LCFI46:
 5605              		.cfi_def_cfa_offset 56
 5606 0004 7C0802A6 		mflr 0
 5607 0008 92C10010 		stw 22,16(1)
 5608              	.LBB1960:
 5609              		.loc 8 1072 0
 5610 000c 7C962379 		mr. 22,4
 5611              		.cfi_offset 22, -40
 5612              		.cfi_register 65, 0
 5613              	.LBE1960:
 5614              		.loc 8 1068 0
 5615 0010 93C10030 		stw 30,48(1)
 5616 0014 7C7E1B78 		mr 30,3
 5617              		.cfi_offset 30, -8
 5618 0018 9001003C 		stw 0,60(1)
 5619 001c 92A1000C 		stw 21,12(1)
 5620 0020 92E10014 		stw 23,20(1)
 5621 0024 93010018 		stw 24,24(1)
 5622 0028 9321001C 		stw 25,28(1)
 5623 002c 93410020 		stw 26,32(1)
 5624 0030 93610024 		stw 27,36(1)
 5625 0034 93810028 		stw 28,40(1)
 5626 0038 93A1002C 		stw 29,44(1)
 5627 003c 93E10034 		stw 31,52(1)
 5628              	.LBB2045:
 5629              		.loc 8 1072 0
 5630 0040 41820168 		beq- 0,.L162
 5631              		.cfi_offset 31, -4
 5632              		.cfi_offset 29, -12
 5633              		.cfi_offset 28, -16
 5634              		.cfi_offset 27, -20
 5635              		.cfi_offset 26, -24
 5636              		.cfi_offset 25, -28
 5637              		.cfi_offset 24, -32
 5638              		.cfi_offset 23, -36
 5639              		.cfi_offset 21, -44
 5640              		.cfi_offset 65, 4
 5641              	.LVL447:
 5642              	.L208:
 5643              		.loc 3 302 0
 5644 0044 8376000C 		lwz 27,12(22)
 5645              	.LVL448:
 5646              	.LBB1961:
 5647              	.LBB1962:
 5648              	.LBB1963:
 5649              		.loc 8 1072 0
 5650 0048 2F9B0000 		cmpwi 7,27,0
 5651 004c 419E0140 		beq- 7,.L164
 5652              	.LVL449:
 5653              	.L209:
 5654              	.LBE1963:
 5655              		.loc 3 302 0
 5656 0050 835B000C 		lwz 26,12(27)
 5657              	.LVL450:
 5658              	.LBB2039:
 5659              	.LBB1964:
 5660              	.LBB1965:
 5661              	.LBB1966:
 5662              		.loc 8 1072 0
 5663 0054 2F9A0000 		cmpwi 7,26,0
 5664 0058 419E0118 		beq- 7,.L165
 5665              	.LVL451:
 5666              	.L210:
 5667              	.LBE1966:
 5668              		.loc 3 302 0
 5669 005c 833A000C 		lwz 25,12(26)
 5670              	.LVL452:
 5671              	.LBB2032:
 5672              	.LBB1967:
 5673              	.LBB1968:
 5674              	.LBB1969:
 5675              		.loc 8 1072 0
 5676 0060 2F990000 		cmpwi 7,25,0
 5677 0064 419E00F0 		beq- 7,.L166
 5678              	.LVL453:
 5679              	.L211:
 5680              	.LBE1969:
 5681              		.loc 3 302 0
 5682 0068 8319000C 		lwz 24,12(25)
 5683              	.LVL454:
 5684              	.LBB2025:
 5685              	.LBB1970:
 5686              	.LBB1971:
 5687              	.LBB1972:
 5688              		.loc 8 1072 0
 5689 006c 2F980000 		cmpwi 7,24,0
 5690 0070 419E00C8 		beq- 7,.L167
 5691              	.LVL455:
 5692              	.L212:
 5693              	.LBE1972:
 5694              		.loc 3 302 0
 5695 0074 82F8000C 		lwz 23,12(24)
 5696              	.LVL456:
 5697              	.LBB2018:
 5698              	.LBB1973:
 5699              	.LBB1974:
 5700              	.LBB1975:
 5701              		.loc 8 1072 0
 5702 0078 2F970000 		cmpwi 7,23,0
 5703 007c 419E00A0 		beq- 7,.L168
 5704              	.LVL457:
 5705              	.L213:
 5706              	.LBE1975:
 5707              		.loc 3 302 0
 5708 0080 8397000C 		lwz 28,12(23)
 5709              	.LVL458:
 5710              	.LBB2011:
 5711              	.LBB1976:
 5712              	.LBB1977:
 5713              	.LBB1978:
 5714              		.loc 8 1072 0
 5715 0084 2F9C0000 		cmpwi 7,28,0
 5716 0088 419E0078 		beq- 7,.L169
 5717              	.LVL459:
 5718              	.L214:
 5719              	.LBE1978:
 5720              		.loc 3 302 0
 5721 008c 83BC000C 		lwz 29,12(28)
 5722              	.LVL460:
 5723              	.LBB2004:
 5724              	.LBB1979:
 5725              	.LBB1980:
 5726              	.LBB1981:
 5727              		.loc 8 1072 0
 5728 0090 2F9D0000 		cmpwi 7,29,0
 5729 0094 419E0050 		beq- 7,.L170
 5730              	.LVL461:
 5731              	.L215:
 5732              	.LBE1981:
 5733              		.loc 3 302 0
 5734 0098 83FD000C 		lwz 31,12(29)
 5735              	.LVL462:
 5736              	.LBB1997:
 5737              	.LBB1982:
 5738              	.LBB1983:
 5739              	.LBB1984:
 5740              		.loc 8 1072 0
 5741 009c 2F9F0000 		cmpwi 7,31,0
 5742 00a0 419E0028 		beq- 7,.L171
 5743              	.LVL463:
 5744              	.L216:
 5745              	.LBB1985:
 5746              		.loc 8 1074 0
 5747 00a4 809F000C 		lwz 4,12(31)
 5748 00a8 7FC3F378 		mr 3,30
 5749 00ac 48000001 		bl _ZNSt8_Rb_treeIPN7sigslot12_signal_baseINS0_15single_threadedEEES4_St9_IdentityIS4_ESt4lessIS4_
 5750              	.LBE1985:
 5751              	.LBE1984:
 5752              		.loc 3 302 0
 5753 00b0 82BF0008 		lwz 21,8(31)
 5754              	.LVL464:
 5755              	.LBB1991:
 5756              	.LBB1990:
 5757              	.LBB1986:
 5758              	.LBB1987:
 5759              	.LBB1988:
 5760              	.LBB1989:
 5761              		.loc 6 98 0
 5762 00b4 7FE3FB78 		mr 3,31
 5763 00b8 48000001 		bl _ZdlPv
 5764              	.LVL465:
 5765              	.LBE1989:
 5766              	.LBE1988:
 5767              	.LBE1987:
 5768              	.LBE1986:
 5769              	.LBE1990:
 5770              		.loc 8 1072 0
 5771 00bc 2F950000 		cmpwi 7,21,0
 5772              		.loc 8 1077 0
 5773 00c0 7EBFAB78 		mr 31,21
 5774              	.LVL466:
 5775              		.loc 8 1072 0
 5776 00c4 409EFFE0 		bne+ 7,.L216
 5777              	.LVL467:
 5778              	.L171:
 5779              	.LBE1991:
 5780              	.LBE1983:
 5781              	.LBE1982:
 5782              	.LBE1997:
 5783              		.loc 3 302 0
 5784 00c8 83FD0008 		lwz 31,8(29)
 5785              	.LVL468:
 5786              	.LBB1998:
 5787              	.LBB1996:
 5788              	.LBB1992:
 5789              	.LBB1993:
 5790              	.LBB1994:
 5791              	.LBB1995:
 5792              		.loc 6 98 0
 5793 00cc 7FA3EB78 		mr 3,29
 5794 00d0 48000001 		bl _ZdlPv
 5795              	.LVL469:
 5796              	.LBE1995:
 5797              	.LBE1994:
 5798              	.LBE1993:
 5799              	.LBE1992:
 5800              	.LBE1996:
 5801              		.loc 8 1072 0
 5802 00d4 2F9F0000 		cmpwi 7,31,0
 5803 00d8 419E000C 		beq- 7,.L170
 5804              		.loc 8 1077 0
 5805 00dc 7FFDFB78 		mr 29,31
 5806              	.LVL470:
 5807 00e0 4BFFFFB8 		b .L215
 5808              	.LVL471:
 5809              	.L170:
 5810              	.LBE1998:
 5811              	.LBE1980:
 5812              	.LBE1979:
 5813              	.LBE2004:
 5814              		.loc 3 302 0
 5815 00e4 83FC0008 		lwz 31,8(28)
 5816              	.LVL472:
 5817              	.LBB2005:
 5818              	.LBB2003:
 5819              	.LBB1999:
 5820              	.LBB2000:
 5821              	.LBB2001:
 5822              	.LBB2002:
 5823              		.loc 6 98 0
 5824 00e8 7F83E378 		mr 3,28
 5825 00ec 48000001 		bl _ZdlPv
 5826              	.LVL473:
 5827              	.LBE2002:
 5828              	.LBE2001:
 5829              	.LBE2000:
 5830              	.LBE1999:
 5831              	.LBE2003:
 5832              		.loc 8 1072 0
 5833 00f0 2F9F0000 		cmpwi 7,31,0
 5834 00f4 419E000C 		beq- 7,.L169
 5835              		.loc 8 1077 0
 5836 00f8 7FFCFB78 		mr 28,31
 5837              	.LVL474:
 5838 00fc 4BFFFF90 		b .L214
 5839              	.LVL475:
 5840              	.L169:
 5841              	.LBE2005:
 5842              	.LBE1977:
 5843              	.LBE1976:
 5844              	.LBE2011:
 5845              		.loc 3 302 0
 5846 0100 83F70008 		lwz 31,8(23)
 5847              	.LVL476:
 5848              	.LBB2012:
 5849              	.LBB2010:
 5850              	.LBB2006:
 5851              	.LBB2007:
 5852              	.LBB2008:
 5853              	.LBB2009:
 5854              		.loc 6 98 0
 5855 0104 7EE3BB78 		mr 3,23
 5856 0108 48000001 		bl _ZdlPv
 5857              	.LVL477:
 5858              	.LBE2009:
 5859              	.LBE2008:
 5860              	.LBE2007:
 5861              	.LBE2006:
 5862              	.LBE2010:
 5863              		.loc 8 1072 0
 5864 010c 2F9F0000 		cmpwi 7,31,0
 5865 0110 419E000C 		beq- 7,.L168
 5866              		.loc 8 1077 0
 5867 0114 7FF7FB78 		mr 23,31
 5868              	.LVL478:
 5869 0118 4BFFFF68 		b .L213
 5870              	.LVL479:
 5871              	.L168:
 5872              	.LBE2012:
 5873              	.LBE1974:
 5874              	.LBE1973:
 5875              	.LBE2018:
 5876              		.loc 3 302 0
 5877 011c 83F80008 		lwz 31,8(24)
 5878              	.LVL480:
 5879              	.LBB2019:
 5880              	.LBB2017:
 5881              	.LBB2013:
 5882              	.LBB2014:
 5883              	.LBB2015:
 5884              	.LBB2016:
 5885              		.loc 6 98 0
 5886 0120 7F03C378 		mr 3,24
 5887 0124 48000001 		bl _ZdlPv
 5888              	.LVL481:
 5889              	.LBE2016:
 5890              	.LBE2015:
 5891              	.LBE2014:
 5892              	.LBE2013:
 5893              	.LBE2017:
 5894              		.loc 8 1072 0
 5895 0128 2F9F0000 		cmpwi 7,31,0
 5896 012c 419E000C 		beq- 7,.L167
 5897              		.loc 8 1077 0
 5898 0130 7FF8FB78 		mr 24,31
 5899              	.LVL482:
 5900 0134 4BFFFF40 		b .L212
 5901              	.LVL483:
 5902              	.L167:
 5903              	.LBE2019:
 5904              	.LBE1971:
 5905              	.LBE1970:
 5906              	.LBE2025:
 5907              		.loc 3 302 0
 5908 0138 83F90008 		lwz 31,8(25)
 5909              	.LVL484:
 5910              	.LBB2026:
 5911              	.LBB2024:
 5912              	.LBB2020:
 5913              	.LBB2021:
 5914              	.LBB2022:
 5915              	.LBB2023:
 5916              		.loc 6 98 0
 5917 013c 7F23CB78 		mr 3,25
 5918 0140 48000001 		bl _ZdlPv
 5919              	.LVL485:
 5920              	.LBE2023:
 5921              	.LBE2022:
 5922              	.LBE2021:
 5923              	.LBE2020:
 5924              	.LBE2024:
 5925              		.loc 8 1072 0
 5926 0144 2F9F0000 		cmpwi 7,31,0
 5927 0148 419E000C 		beq- 7,.L166
 5928              		.loc 8 1077 0
 5929 014c 7FF9FB78 		mr 25,31
 5930              	.LVL486:
 5931 0150 4BFFFF18 		b .L211
 5932              	.LVL487:
 5933              	.L166:
 5934              	.LBE2026:
 5935              	.LBE1968:
 5936              	.LBE1967:
 5937              	.LBE2032:
 5938              		.loc 3 302 0
 5939 0154 83FA0008 		lwz 31,8(26)
 5940              	.LVL488:
 5941              	.LBB2033:
 5942              	.LBB2031:
 5943              	.LBB2027:
 5944              	.LBB2028:
 5945              	.LBB2029:
 5946              	.LBB2030:
 5947              		.loc 6 98 0
 5948 0158 7F43D378 		mr 3,26
 5949 015c 48000001 		bl _ZdlPv
 5950              	.LVL489:
 5951              	.LBE2030:
 5952              	.LBE2029:
 5953              	.LBE2028:
 5954              	.LBE2027:
 5955              	.LBE2031:
 5956              		.loc 8 1072 0
 5957 0160 2F9F0000 		cmpwi 7,31,0
 5958 0164 419E000C 		beq- 7,.L165
 5959              		.loc 8 1077 0
 5960 0168 7FFAFB78 		mr 26,31
 5961              	.LVL490:
 5962 016c 4BFFFEF0 		b .L210
 5963              	.LVL491:
 5964              	.L165:
 5965              	.LBE2033:
 5966              	.LBE1965:
 5967              	.LBE1964:
 5968              	.LBE2039:
 5969              		.loc 3 302 0
 5970 0170 83FB0008 		lwz 31,8(27)
 5971              	.LVL492:
 5972              	.LBB2040:
 5973              	.LBB2038:
 5974              	.LBB2034:
 5975              	.LBB2035:
 5976              	.LBB2036:
 5977              	.LBB2037:
 5978              		.loc 6 98 0
 5979 0174 7F63DB78 		mr 3,27
 5980 0178 48000001 		bl _ZdlPv
 5981              	.LVL493:
 5982              	.LBE2037:
 5983              	.LBE2036:
 5984              	.LBE2035:
 5985              	.LBE2034:
 5986              	.LBE2038:
 5987              		.loc 8 1072 0
 5988 017c 2F9F0000 		cmpwi 7,31,0
 5989 0180 419E000C 		beq- 7,.L164
 5990              		.loc 8 1077 0
 5991 0184 7FFBFB78 		mr 27,31
 5992              	.LVL494:
 5993 0188 4BFFFEC8 		b .L209
 5994              	.LVL495:
 5995              	.L164:
 5996              		.loc 3 302 0
 5997 018c 83F60008 		lwz 31,8(22)
 5998              	.LVL496:
 5999              	.LBE2040:
 6000              	.LBE1962:
 6001              	.LBB2041:
 6002              	.LBB2042:
 6003              	.LBB2043:
 6004              	.LBB2044:
 6005              		.loc 6 98 0
 6006 0190 7EC3B378 		mr 3,22
 6007 0194 48000001 		bl _ZdlPv
 6008              	.LVL497:
 6009              	.LBE2044:
 6010              	.LBE2043:
 6011              	.LBE2042:
 6012              	.LBE2041:
 6013              	.LBE1961:
 6014              		.loc 8 1072 0
 6015 0198 2F9F0000 		cmpwi 7,31,0
 6016 019c 419E000C 		beq- 7,.L162
 6017              		.loc 8 1077 0
 6018 01a0 7FF6FB78 		mr 22,31
 6019              	.LVL498:
 6020 01a4 4BFFFEA0 		b .L208
 6021              	.LVL499:
 6022              	.L162:
 6023              	.LBE2045:
 6024              		.loc 8 1079 0
 6025 01a8 8001003C 		lwz 0,60(1)
 6026 01ac 82A1000C 		lwz 21,12(1)
 6027 01b0 7C0803A6 		mtlr 0
 6028 01b4 82C10010 		lwz 22,16(1)
 6029 01b8 82E10014 		lwz 23,20(1)
 6030 01bc 83010018 		lwz 24,24(1)
 6031 01c0 8321001C 		lwz 25,28(1)
 6032 01c4 83410020 		lwz 26,32(1)
 6033 01c8 83610024 		lwz 27,36(1)
 6034 01cc 83810028 		lwz 28,40(1)
 6035 01d0 83A1002C 		lwz 29,44(1)
 6036 01d4 83C10030 		lwz 30,48(1)
 6037              	.LVL500:
 6038 01d8 83E10034 		lwz 31,52(1)
 6039 01dc 38210038 		addi 1,1,56
 6040              	.LCFI47:
 6041              		.cfi_def_cfa_offset 0
 6042              		.cfi_restore 31
 6043              		.cfi_restore 30
 6044              		.cfi_restore 29
 6045              		.cfi_restore 28
 6046              		.cfi_restore 27
 6047              		.cfi_restore 26
 6048              		.cfi_restore 25
 6049              		.cfi_restore 24
 6050              		.cfi_restore 23
 6051              		.cfi_restore 22
 6052              		.cfi_restore 21
 6053 01e0 4E800020 		blr
 6054              		.cfi_endproc
 6055              	.LFE1636:
 6056              		.size	_ZNSt8_Rb_treeIPN7sigslot12_signal_baseINS0_15single_threadedEEES4_St9_IdentityIS4_ESt4lessI
 6057              		.section	.text._ZNSt8_Rb_treeIPN7sigslot12_signal_baseINS0_15single_threadedEEES4_St9_IdentityIS4_
 6058              		.align 2
 6059              		.weak	_ZNSt8_Rb_treeIPN7sigslot12_signal_baseINS0_15single_threadedEEES4_St9_IdentityIS4_ESt4lessI
 6060              		.type	_ZNSt8_Rb_treeIPN7sigslot12_signal_baseINS0_15single_threadedEEES4_St9_IdentityIS4_ESt4lessI
 6061              	_ZNSt8_Rb_treeIPN7sigslot12_signal_baseINS0_15single_threadedEEES4_St9_IdentityIS4_ESt4lessIS4_ESaI
 6062              	.LFB1580:
 6063              		.loc 8 1510 0
 6064              		.cfi_startproc
 6065              	.LVL501:
 6066 0000 7C0802A6 		mflr 0
 6067 0004 9421FFE0 		stwu 1,-32(1)
 6068              	.LCFI48:
 6069              		.cfi_def_cfa_offset 32
 6070              		.cfi_register 65, 0
 6071 0008 93810010 		stw 28,16(1)
 6072              	.LBB2046:
 6073              	.LBB2047:
 6074              		.loc 8 1155 0
 6075 000c 3B830004 		addi 28,3,4
 6076              		.cfi_offset 28, -16
 6077              	.LBE2047:
 6078              	.LBE2046:
 6079              		.loc 8 1510 0
 6080 0010 90010024 		stw 0,36(1)
 6081 0014 93410008 		stw 26,8(1)
 6082              	.LBB2103:
 6083              	.LBB2068:
 6084              	.LBB2048:
 6085              		.loc 8 1155 0
 6086 0018 7F9AE378 		mr 26,28
 6087              		.cfi_offset 26, -24
 6088              		.cfi_offset 65, 4
 6089              	.LBE2048:
 6090              		.loc 3 302 0
 6091 001c 80030008 		lwz 0,8(3)
 6092              	.LBE2068:
 6093              	.LBE2103:
 6094              		.loc 8 1510 0
 6095 0020 93A10014 		stw 29,20(1)
 6096              	.LBB2104:
 6097              	.LBB2069:
 6098              	.LBB2061:
 6099              		.loc 8 1155 0
 6100 0024 7F9DE378 		mr 29,28
 6101              		.cfi_offset 29, -12
 6102              		.loc 8 1156 0
 6103 0028 2F800000 		cmpwi 7,0,0
 6104              	.LBE2061:
 6105              	.LBE2069:
 6106              	.LBE2104:
 6107              		.loc 8 1510 0
 6108 002c 93C10018 		stw 30,24(1)
 6109 0030 9361000C 		stw 27,12(1)
 6110 0034 7C7E1B78 		mr 30,3
 6111              		.cfi_offset 27, -20
 6112              		.cfi_offset 30, -8
 6113              	.LVL502:
 6114 0038 93E1001C 		stw 31,28(1)
 6115              	.LBB2105:
 6116              	.LBB2070:
 6117              	.LBB2062:
 6118              		.loc 8 1156 0
 6119 003c 419E0040 		beq- 7,.L218
 6120              		.cfi_offset 31, -4
 6121              	.LVL503:
 6122 0040 81640000 		lwz 11,0(4)
 6123 0044 7C1A0378 		mr 26,0
 6124 0048 48000010 		b .L229
 6125              	.LVL504:
 6126              	.L248:
 6127              	.LBE2062:
 6128              		.loc 3 302 0
 6129 004c 835A000C 		lwz 26,12(26)
 6130              	.LVL505:
 6131              	.LBB2063:
 6132              		.loc 8 1156 0
 6133 0050 2F9A0000 		cmpwi 7,26,0
 6134 0054 419E0024 		beq- 7,.L247
 6135              	.L229:
 6136              	.LVL506:
 6137              	.LBE2063:
 6138              		.loc 3 302 0
 6139 0058 813A0010 		lwz 9,16(26)
 6140              	.LBB2064:
 6141              	.LBB2049:
 6142              		.loc 8 1158 0
 6143 005c 7F895840 		cmplw 7,9,11
 6144 0060 41BCFFEC 		blt- 7,.L248
 6145              	.LVL507:
 6146              	.LBB2050:
 6147              		.loc 8 1160 0
 6148 0064 409D0094 		ble- 7,.L221
 6149              	.LVL508:
 6150              	.LBE2050:
 6151              	.LBE2049:
 6152              	.LBE2064:
 6153              		.loc 3 302 0
 6154 0068 7F5DD378 		mr 29,26
 6155              		.loc 8 1161 0
 6156 006c 835A0008 		lwz 26,8(26)
 6157              	.LVL509:
 6158              	.LBB2065:
 6159              		.loc 8 1156 0
 6160 0070 2F9A0000 		cmpwi 7,26,0
 6161 0074 409EFFE4 		bne+ 7,.L229
 6162              	.LVL510:
 6163              	.L247:
 6164 0078 7FBAEB78 		mr 26,29
 6165              	.LVL511:
 6166              	.L218:
 6167              	.LBE2065:
 6168              	.LBE2070:
 6169              	.LBB2071:
 6170              	.LBB2072:
 6171              		.loc 3 302 0
 6172 007c 813E000C 		lwz 9,12(30)
 6173              	.LBE2072:
 6174              	.LBE2071:
 6175              	.LBB2099:
 6176              	.LBB2066:
 6177 0080 837E0014 		lwz 27,20(30)
 6178              	.LVL512:
 6179              	.LBE2066:
 6180              	.LBE2099:
 6181              	.LBB2100:
 6182              	.LBB2097:
 6183              	.LBB2073:
 6184              		.loc 8 1500 0
 6185 0084 7F89D000 		cmpw 7,9,26
 6186 0088 419E00DC 		beq- 7,.L230
 6187              	.L234:
 6188              	.LVL513:
 6189              		.loc 8 1503 0
 6190 008c 7F9AE800 		cmpw 7,26,29
 6191 0090 419E0100 		beq- 7,.L249
 6192              	.LVL514:
 6193              	.L245:
 6194              	.LBB2074:
 6195              	.LBB2075:
 6196              		.loc 8 277 0
 6197 0094 7F43D378 		mr 3,26
 6198 0098 48000001 		bl _ZSt18_Rb_tree_incrementPKSt18_Rb_tree_node_base
 6199              	.LBE2075:
 6200              	.LBE2074:
 6201              	.LBB2077:
 6202              	.LBB2078:
 6203              	.LBB2079:
 6204              		.loc 8 1489 0
 6205 009c 7F84E378 		mr 4,28
 6206              	.LBE2079:
 6207              	.LBE2078:
 6208              	.LBE2077:
 6209              	.LBB2090:
 6210              	.LBB2076:
 6211              		.loc 8 277 0
 6212 00a0 7C7F1B78 		mr 31,3
 6213              	.LVL515:
 6214              	.LBE2076:
 6215              	.LBE2090:
 6216              	.LBB2091:
 6217              	.LBB2087:
 6218              	.LBB2084:
 6219              		.loc 8 1489 0
 6220 00a4 7F43D378 		mr 3,26
 6221              	.LVL516:
 6222 00a8 48000001 		bl _ZSt28_Rb_tree_rebalance_for_erasePSt18_Rb_tree_node_baseRS_
 6223              	.LBE2084:
 6224              	.LBE2087:
 6225              	.LBE2091:
 6226              		.loc 8 277 0
 6227 00ac 7FFAFB78 		mr 26,31
 6228              	.LVL517:
 6229              	.LBB2092:
 6230              	.LBB2088:
 6231              	.LBB2085:
 6232              	.LBB2080:
 6233              	.LBB2081:
 6234              	.LBB2082:
 6235              	.LBB2083:
 6236              		.loc 6 98 0
 6237 00b0 48000001 		bl _ZdlPv
 6238              	.LBE2083:
 6239              	.LBE2082:
 6240              	.LBE2081:
 6241              	.LBE2080:
 6242              	.LBE2085:
 6243              	.LBE2088:
 6244              	.LBE2092:
 6245              		.loc 8 1503 0
 6246 00b4 7F9FE800 		cmpw 7,31,29
 6247              	.LBB2093:
 6248              	.LBB2089:
 6249              	.LBB2086:
 6250              		.loc 8 1491 0
 6251 00b8 813E0014 		lwz 9,20(30)
 6252 00bc 3809FFFF 		addi 0,9,-1
 6253 00c0 901E0014 		stw 0,20(30)
 6254              	.LBE2086:
 6255              	.LBE2089:
 6256              	.LBE2093:
 6257              		.loc 8 1503 0
 6258 00c4 409EFFD0 		bne+ 7,.L245
 6259 00c8 7F60D850 		subf 27,0,27
 6260              	.LVL518:
 6261              	.L232:
 6262              	.LBE2073:
 6263              	.LBE2097:
 6264              	.LBE2100:
 6265              	.LBE2105:
 6266              		.loc 8 1517 0
 6267 00cc 80010024 		lwz 0,36(1)
 6268 00d0 7F63DB78 		mr 3,27
 6269 00d4 83410008 		lwz 26,8(1)
 6270 00d8 7C0803A6 		mtlr 0
 6271 00dc 8361000C 		lwz 27,12(1)
 6272 00e0 83810010 		lwz 28,16(1)
 6273 00e4 83A10014 		lwz 29,20(1)
 6274              	.LVL519:
 6275 00e8 83C10018 		lwz 30,24(1)
 6276              	.LVL520:
 6277 00ec 83E1001C 		lwz 31,28(1)
 6278 00f0 38210020 		addi 1,1,32
 6279              		.cfi_remember_state
 6280              	.LCFI49:
 6281              		.cfi_def_cfa_offset 0
 6282              		.cfi_restore 31
 6283              		.cfi_restore 30
 6284              		.cfi_restore 29
 6285              		.cfi_restore 28
 6286              		.cfi_restore 27
 6287              		.cfi_restore 26
 6288 00f4 4E800020 		blr
 6289              	.LVL521:
 6290              	.L221:
 6291              	.LCFI50:
 6292              		.cfi_restore_state
 6293              	.LBB2106:
 6294              	.LBB2101:
 6295              		.loc 3 302 0
 6296 00f8 815A0008 		lwz 10,8(26)
 6297              	.LVL522:
 6298 00fc 813A000C 		lwz 9,12(26)
 6299              	.LVL523:
 6300              	.L246:
 6301              	.LBB2067:
 6302              	.LBB2060:
 6303              	.LBB2059:
 6304              	.LBB2051:
 6305              	.LBB2052:
 6306              	.LBB2053:
 6307              		.loc 8 1089 0
 6308 0100 2F8A0000 		cmpwi 7,10,0
 6309 0104 419E0020 		beq- 7,.L222
 6310              	.L250:
 6311              	.LVL524:
 6312              		.loc 8 1090 0
 6313 0108 810A0010 		lwz 8,16(10)
 6314 010c 7F885840 		cmplw 7,8,11
 6315 0110 419C004C 		blt- 7,.L223
 6316              	.LVL525:
 6317              	.LBE2053:
 6318              		.loc 3 302 0
 6319 0114 7D5A5378 		mr 26,10
 6320              		.loc 8 1091 0
 6321 0118 814A0008 		lwz 10,8(10)
 6322              	.LVL526:
 6323              	.LBB2054:
 6324              		.loc 8 1089 0
 6325 011c 2F8A0000 		cmpwi 7,10,0
 6326 0120 409EFFE8 		bne+ 7,.L250
 6327              	.LVL527:
 6328              	.L222:
 6329              	.LBE2054:
 6330              	.LBE2052:
 6331              	.LBB2055:
 6332              	.LBB2056:
 6333              		.loc 8 1121 0
 6334 0124 2F890000 		cmpwi 7,9,0
 6335 0128 41BEFF54 		beq- 7,.L218
 6336              	.LVL528:
 6337              		.loc 8 1122 0
 6338 012c 81490010 		lwz 10,16(9)
 6339 0130 7F8A5840 		cmplw 7,10,11
 6340 0134 409D0020 		ble- 7,.L226
 6341              	.LVL529:
 6342              	.L251:
 6343              	.LBE2056:
 6344              		.loc 3 302 0
 6345 0138 7D3D4B78 		mr 29,9
 6346              		.loc 8 1123 0
 6347 013c 81290008 		lwz 9,8(9)
 6348              	.LVL530:
 6349              	.LBB2057:
 6350              		.loc 8 1121 0
 6351 0140 2F890000 		cmpwi 7,9,0
 6352 0144 41BEFF38 		beq- 7,.L218
 6353              	.LVL531:
 6354              		.loc 8 1122 0
 6355 0148 81490010 		lwz 10,16(9)
 6356 014c 7F8A5840 		cmplw 7,10,11
 6357 0150 41BDFFE8 		bgt- 7,.L251
 6358              	.LVL532:
 6359              	.L226:
 6360              	.LBE2057:
 6361              		.loc 3 302 0
 6362 0154 8129000C 		lwz 9,12(9)
 6363              	.LVL533:
 6364 0158 4BFFFFCC 		b .L222
 6365              	.LVL534:
 6366              	.L223:
 6367              	.LBE2055:
 6368              	.LBB2058:
 6369 015c 814A000C 		lwz 10,12(10)
 6370              	.LVL535:
 6371 0160 4BFFFFA0 		b .L246
 6372              	.LVL536:
 6373              	.L230:
 6374              	.LBE2058:
 6375              	.LBE2051:
 6376              	.LBE2059:
 6377              	.LBE2060:
 6378              	.LBE2067:
 6379              	.LBE2101:
 6380              	.LBB2102:
 6381              	.LBB2098:
 6382              	.LBB2096:
 6383              		.loc 8 1500 0
 6384 0164 7F9CE800 		cmpw 7,28,29
 6385 0168 409EFF24 		bne+ 7,.L234
 6386              	.LVL537:
 6387              	.LBB2094:
 6388              	.LBB2095:
 6389              		.loc 8 809 0
 6390 016c 7C040378 		mr 4,0
 6391              	.LVL538:
 6392 0170 7FC3F378 		mr 3,30
 6393              	.LVL539:
 6394 0174 48000001 		bl _ZNSt8_Rb_treeIPN7sigslot12_signal_baseINS0_15single_threadedEEES4_St9_IdentityIS4_ESt4lessIS4_
 6395              	.LVL540:
 6396              		.loc 8 811 0
 6397 0178 38000000 		li 0,0
 6398              		.loc 8 810 0
 6399 017c 939E000C 		stw 28,12(30)
 6400              	.LVL541:
 6401              		.loc 8 811 0
 6402 0180 901E0008 		stw 0,8(30)
 6403              	.LVL542:
 6404              		.loc 8 812 0
 6405 0184 939E0010 		stw 28,16(30)
 6406              		.loc 8 813 0
 6407 0188 901E0014 		stw 0,20(30)
 6408 018c 4BFFFF40 		b .L232
 6409              	.LVL543:
 6410              	.L249:
 6411              	.LBE2095:
 6412              	.LBE2094:
 6413              		.loc 8 1503 0
 6414 0190 3B600000 		li 27,0
 6415 0194 4BFFFF38 		b .L232
 6416              	.LBE2096:
 6417              	.LBE2098:
 6418              	.LBE2102:
 6419              	.LBE2106:
 6420              		.cfi_endproc
 6421              	.LFE1580:
 6422              		.size	_ZNSt8_Rb_treeIPN7sigslot12_signal_baseINS0_15single_threadedEEES4_St9_IdentityIS4_ESt4lessI
 6423              		.section	.text._ZN7sigslot7signal2IP10GuiElementbNS_15single_threadedEED0Ev,"axG",@progbits,_ZN7si
 6424              		.align 2
 6425              		.weak	_ZN7sigslot7signal2IP10GuiElementbNS_15single_threadedEED0Ev
 6426              		.type	_ZN7sigslot7signal2IP10GuiElementbNS_15single_threadedEED0Ev, @function
 6427              	_ZN7sigslot7signal2IP10GuiElementbNS_15single_threadedEED0Ev:
 6428              	.LFB1443:
 6429              		.loc 1 2235 0
 6430              		.cfi_startproc
 6431              		.cfi_personality 0,__gxx_personality_v0
 6432              		.cfi_lsda 0,.LLSDA1443
 6433              	.LVL544:
 6434 0000 7C0802A6 		mflr 0
 6435 0004 9421FFD8 		stwu 1,-40(1)
 6436              	.LCFI51:
 6437              		.cfi_def_cfa_offset 40
 6438              		.cfi_register 65, 0
 6439              	.LBB2205:
 6440              	.LBB2206:
 6441              	.LBB2207:
 6442              	.LBB2208:
 6443              	.LBB2209:
 6444              	.LBB2210:
 6445              		.loc 1 826 0
 6446 0008 3D200000 		lis 9,_ZTVN7sigslot13_signal_base2IP10GuiElementbNS_15single_threadedEEE+8@ha
 6447              	.LBE2210:
 6448              	.LBE2209:
 6449              	.LBE2208:
 6450              	.LBE2207:
 6451              	.LBE2206:
 6452              	.LBE2205:
 6453              		.loc 1 2235 0
 6454 000c 93810018 		stw 28,24(1)
 6455 0010 7C7C1B78 		mr 28,3
 6456              		.cfi_offset 28, -16
 6457              	.LVL545:
 6458 0014 9001002C 		stw 0,44(1)
 6459              	.LBB2307:
 6460              	.LBB2303:
 6461              	.LBB2299:
 6462              	.LBB2295:
 6463              	.LBB2291:
 6464              	.LBB2287:
 6465              		.loc 1 826 0
 6466 0018 38090008 		la 0,_ZTVN7sigslot13_signal_base2IP10GuiElementbNS_15single_threadedEEE+8@l(9)
 6467              		.cfi_offset 65, 4
 6468              	.LBE2287:
 6469              	.LBE2291:
 6470              	.LBE2295:
 6471              	.LBE2299:
 6472              	.LBE2303:
 6473              	.LBE2307:
 6474              		.loc 1 2235 0
 6475 001c 93A1001C 		stw 29,28(1)
 6476 0020 3BA30004 		addi 29,3,4
 6477              		.cfi_offset 29, -12
 6478 0024 93C10020 		stw 30,32(1)
 6479 0028 93E10024 		stw 31,36(1)
 6480              	.LBB2308:
 6481              	.LBB2304:
 6482              	.LBB2300:
 6483              	.LBB2296:
 6484              	.LBB2292:
 6485              	.LBB2288:
 6486              		.loc 1 826 0
 6487 002c 90030000 		stw 0,0(3)
 6488              	.LVL546:
 6489              	.LEHB20:
 6490              	.LBB2211:
 6491              	.LBB2212:
 6492              	.LBB2213:
 6493              	.LBB2214:
 6494              		.loc 1 338 0
 6495              		.cfi_offset 31, -4
 6496              		.cfi_offset 30, -8
 6497 0030 48000001 		bl _ZN7sigslot15single_threaded4lockEv
 6498              	.LEHE20:
 6499              	.LVL547:
 6500              	.LBE2214:
 6501              	.LBE2213:
 6502              	.LBE2212:
 6503              		.loc 3 302 0
 6504 0034 7F9DE378 		mr 29,28
 6505              	.LVL548:
 6506 0038 87FD0004 		lwzu 31,4(29)
 6507              	.LVL549:
 6508              	.LBB2245:
 6509              		.loc 1 834 0
 6510 003c 7F9FE800 		cmpw 7,31,29
 6511 0040 419E00A8 		beq- 7,.L253
 6512              	.LVL550:
 6513              	.L292:
 6514              		.loc 1 836 0
 6515 0044 807F0008 		lwz 3,8(31)
 6516 0048 81230000 		lwz 9,0(3)
 6517 004c 80090008 		lwz 0,8(9)
 6518 0050 7C0903A6 		mtctr 0
 6519              	.LEHB21:
 6520 0054 4E800421 		bctrl
 6521              	.LBB2215:
 6522              	.LBB2216:
 6523              	.LBB2217:
 6524              	.LBB2218:
 6525              		.loc 1 338 0
 6526 0058 81230000 		lwz 9,0(3)
 6527              	.LBE2218:
 6528              	.LBE2217:
 6529              	.LBE2216:
 6530              	.LBE2215:
 6531              		.loc 1 836 0
 6532 005c 7C7E1B78 		mr 30,3
 6533              	.LVL551:
 6534 0060 93810008 		stw 28,8(1)
 6535              	.LVL552:
 6536              	.LBB2227:
 6537              	.LBB2226:
 6538              	.LBB2220:
 6539              	.LBB2219:
 6540              		.loc 1 338 0
 6541 0064 80090008 		lwz 0,8(9)
 6542 0068 7C0903A6 		mtctr 0
 6543 006c 4E800421 		bctrl
 6544              	.LVL553:
 6545              	.LBE2219:
 6546              	.LBE2220:
 6547              	.LBB2221:
 6548              	.LBB2222:
 6549              		.file 9 "d:\\devkitpro\\devkitppc\\bin\\../lib/gcc/powerpc-eabi/4.6.3/../../../../powerpc-eabi/inc
 6550              		.loc 9 528 0
 6551 0070 387E0004 		addi 3,30,4
 6552 0074 38810008 		addi 4,1,8
 6553 0078 48000001 		bl _ZNSt8_Rb_treeIPN7sigslot12_signal_baseINS0_15single_threadedEEES4_St9_IdentityIS4_ESt4lessIS4_
 6554              	.LVL554:
 6555              	.LBE2222:
 6556              	.LBE2221:
 6557              	.LBB2223:
 6558              	.LBB2224:
 6559              	.LBB2225:
 6560              		.loc 1 343 0
 6561 007c 813E0000 		lwz 9,0(30)
 6562 0080 7FC3F378 		mr 3,30
 6563 0084 8009000C 		lwz 0,12(9)
 6564 0088 7C0903A6 		mtctr 0
 6565 008c 4E800421 		bctrl
 6566              	.LVL555:
 6567              	.LBE2225:
 6568              	.LBE2224:
 6569              	.LBE2223:
 6570              	.LBE2226:
 6571              	.LBE2227:
 6572              		.loc 1 837 0
 6573 0090 807F0008 		lwz 3,8(31)
 6574 0094 2F830000 		cmpwi 7,3,0
 6575 0098 419E0014 		beq- 7,.L255
 6576 009c 81230000 		lwz 9,0(3)
 6577 00a0 80090004 		lwz 0,4(9)
 6578 00a4 7C0903A6 		mtctr 0
 6579 00a8 4E800421 		bctrl
 6580              	.LEHE21:
 6581              	.L255:
 6582              	.LVL556:
 6583              	.LBB2228:
 6584              	.LBB2229:
 6585              		.loc 4 234 0
 6586 00ac 83FF0000 		lwz 31,0(31)
 6587              	.LVL557:
 6588              	.LBE2229:
 6589              	.LBE2228:
 6590              		.loc 1 834 0
 6591 00b0 7F9DF800 		cmpw 7,29,31
 6592 00b4 409EFF90 		bne+ 7,.L292
 6593              	.LBE2245:
 6594              		.loc 3 302 0
 6595 00b8 83FC0004 		lwz 31,4(28)
 6596              	.LVL558:
 6597              	.LBB2246:
 6598              	.LBB2230:
 6599              	.LBB2231:
 6600              		.loc 4 1162 0
 6601 00bc 7F9DF800 		cmpw 7,29,31
 6602 00c0 40BE000C 		bne+ 7,.L294
 6603 00c4 48000024 		b .L253
 6604              	.LVL559:
 6605              	.L287:
 6606              		.loc 4 1163 0
 6607 00c8 7FDFF378 		mr 31,30
 6608              	.LVL560:
 6609              	.L294:
 6610              	.LBB2232:
 6611              	.LBB2233:
 6612              		.file 10 "d:\\devkitpro\\devkitppc\\bin\\../lib/gcc/powerpc-eabi/4.6.3/../../../../powerpc-eabi/in
 6613              		.loc 10 112 0
 6614 00cc 83DF0000 		lwz 30,0(31)
 6615              	.LVL561:
 6616              	.LBB2234:
 6617              	.LBB2235:
 6618              		.loc 4 1532 0
 6619 00d0 7FE3FB78 		mr 3,31
 6620 00d4 48000001 		bl _ZNSt8__detail15_List_node_base9_M_unhookEv
 6621              	.LVL562:
 6622              	.LBB2236:
 6623              	.LBB2237:
 6624              	.LBB2238:
 6625              		.loc 6 98 0
 6626 00d8 7FE3FB78 		mr 3,31
 6627 00dc 48000001 		bl _ZdlPv
 6628              	.LVL563:
 6629              	.LBE2238:
 6630              	.LBE2237:
 6631              	.LBE2236:
 6632              	.LBE2235:
 6633              	.LBE2234:
 6634              	.LBE2233:
 6635              	.LBE2232:
 6636              		.loc 4 1162 0
 6637 00e0 7F9DF000 		cmpw 7,29,30
 6638 00e4 409EFFE4 		bne+ 7,.L287
 6639              	.LVL564:
 6640              	.L253:
 6641              	.LBE2231:
 6642              	.LBE2230:
 6643              	.LBB2239:
 6644              	.LBB2240:
 6645              	.LBB2241:
 6646              		.loc 1 343 0
 6647 00e8 813C0000 		lwz 9,0(28)
 6648 00ec 7F83E378 		mr 3,28
 6649 00f0 8009000C 		lwz 0,12(9)
 6650 00f4 7C0903A6 		mtctr 0
 6651              	.LEHB22:
 6652 00f8 4E800421 		bctrl
 6653              	.LEHE22:
 6654              	.LBE2241:
 6655              	.LBE2240:
 6656              	.LBE2239:
 6657              	.LBE2246:
 6658              	.LBE2211:
 6659              	.LBB2248:
 6660              	.LBB2249:
 6661              	.LBB2250:
 6662              	.LBB2251:
 6663              	.LBB2252:
 6664              	.LBB2253:
 6665              		.loc 10 70 0
 6666 00fc 807C0004 		lwz 3,4(28)
 6667              	.LVL565:
 6668              		.loc 10 71 0
 6669 0100 7F83E800 		cmpw 7,3,29
 6670 0104 40BE000C 		bne+ 7,.L296
 6671 0108 48000018 		b .L271
 6672              	.LVL566:
 6673              	.L288:
 6674              		.loc 10 74 0
 6675 010c 7FE3FB78 		mr 3,31
 6676              	.LVL567:
 6677              	.L296:
 6678              	.LBB2254:
 6679 0110 83E30000 		lwz 31,0(3)
 6680              	.LVL568:
 6681              	.LBB2255:
 6682              	.LBB2256:
 6683              	.LBB2257:
 6684              		.loc 6 98 0
 6685 0114 48000001 		bl _ZdlPv
 6686              	.LVL569:
 6687              	.LBE2257:
 6688              	.LBE2256:
 6689              	.LBE2255:
 6690              	.LBE2254:
 6691              		.loc 10 71 0
 6692 0118 7F9FE800 		cmpw 7,31,29
 6693 011c 409EFFF0 		bne+ 7,.L288
 6694              	.LVL570:
 6695              	.L271:
 6696              	.LBE2253:
 6697              	.LBE2252:
 6698              	.LBE2251:
 6699              	.LBE2250:
 6700              	.LBE2249:
 6701              	.LBE2248:
 6702              	.LBB2258:
 6703              	.LBB2259:
 6704              	.LBB2260:
 6705              	.LBB2261:
 6706              	.LBB2262:
 6707              	.LBB2263:
 6708              		.loc 1 105 0
 6709 0120 3D200000 		lis 9,_ZTVN7sigslot15single_threadedE+8@ha
 6710              	.LBE2263:
 6711              	.LBE2262:
 6712              	.LBE2261:
 6713              	.LBE2260:
 6714              	.LBE2259:
 6715              	.LBE2258:
 6716              	.LBE2288:
 6717              	.LBE2292:
 6718              	.LBE2296:
 6719              	.LBE2300:
 6720              	.LBE2304:
 6721              	.LBE2308:
 6722              		.loc 1 2238 0
 6723 0124 7F83E378 		mr 3,28
 6724              	.LBB2309:
 6725              	.LBB2305:
 6726              	.LBB2301:
 6727              	.LBB2297:
 6728              	.LBB2293:
 6729              	.LBB2289:
 6730              	.LBB2269:
 6731              	.LBB2268:
 6732              	.LBB2267:
 6733              	.LBB2266:
 6734              	.LBB2265:
 6735              	.LBB2264:
 6736              		.loc 1 105 0
 6737 0128 38090008 		la 0,_ZTVN7sigslot15single_threadedE+8@l(9)
 6738 012c 901C0000 		stw 0,0(28)
 6739              	.LBE2264:
 6740              	.LBE2265:
 6741              	.LBE2266:
 6742              	.LBE2267:
 6743              	.LBE2268:
 6744              	.LBE2269:
 6745              	.LBE2289:
 6746              	.LBE2293:
 6747              	.LBE2297:
 6748              	.LBE2301:
 6749              	.LBE2305:
 6750              	.LBE2309:
 6751              		.loc 1 2238 0
 6752 0130 48000001 		bl _ZdlPv
 6753 0134 8001002C 		lwz 0,44(1)
 6754 0138 83810018 		lwz 28,24(1)
 6755              	.LVL571:
 6756 013c 7C0803A6 		mtlr 0
 6757 0140 83A1001C 		lwz 29,28(1)
 6758              	.LVL572:
 6759 0144 83C10020 		lwz 30,32(1)
 6760 0148 83E10024 		lwz 31,36(1)
 6761 014c 38210028 		addi 1,1,40
 6762              		.cfi_remember_state
 6763              	.LCFI52:
 6764              		.cfi_def_cfa_offset 0
 6765              		.cfi_restore 31
 6766              		.cfi_restore 30
 6767              		.cfi_restore 29
 6768              		.cfi_restore 28
 6769 0150 4E800020 		blr
 6770              	.LVL573:
 6771              	.L290:
 6772              	.LCFI53:
 6773              		.cfi_restore_state
 6774 0154 7C7F1B78 		mr 31,3
 6775              	.L263:
 6776              	.LBB2310:
 6777              	.LBB2306:
 6778              	.LBB2302:
 6779              	.LBB2298:
 6780              	.LBB2294:
 6781              	.LBB2290:
 6782              	.LBB2270:
 6783              	.LBB2271:
 6784              	.LBB2272:
 6785              	.LBB2273:
 6786              	.LBB2274:
 6787              	.LBB2275:
 6788              		.loc 10 70 0
 6789 0158 807C0004 		lwz 3,4(28)
 6790              	.LVL574:
 6791              		.loc 10 71 0
 6792 015c 7F83E800 		cmpw 7,3,29
 6793 0160 419E0038 		beq- 7,.L280
 6794              	.LVL575:
 6795              	.L297:
 6796              	.LBB2276:
 6797              		.loc 10 74 0
 6798 0164 83C30000 		lwz 30,0(3)
 6799              	.LVL576:
 6800              	.LBB2277:
 6801              	.LBB2278:
 6802              	.LBB2279:
 6803              		.loc 6 98 0
 6804 0168 48000001 		bl _ZdlPv
 6805              	.LVL577:
 6806              	.LBE2279:
 6807              	.LBE2278:
 6808              	.LBE2277:
 6809              	.LBE2276:
 6810              		.loc 10 71 0
 6811 016c 7F9EE800 		cmpw 7,30,29
 6812 0170 419E0028 		beq- 7,.L280
 6813              		.loc 10 74 0
 6814 0174 7FC3F378 		mr 3,30
 6815 0178 4BFFFFEC 		b .L297
 6816              	.LVL578:
 6817              	.L291:
 6818              	.LBE2275:
 6819              	.LBE2274:
 6820              	.LBE2273:
 6821              	.LBE2272:
 6822              	.LBE2271:
 6823              	.LBE2270:
 6824              	.LBB2280:
 6825              	.LBB2247:
 6826              	.LBB2242:
 6827              	.LBB2243:
 6828              	.LBB2244:
 6829              		.loc 1 343 0
 6830 017c 813C0000 		lwz 9,0(28)
 6831 0180 7C7F1B78 		mr 31,3
 6832              	.LVL579:
 6833 0184 7F83E378 		mr 3,28
 6834 0188 8009000C 		lwz 0,12(9)
 6835 018c 7C0903A6 		mtctr 0
 6836 0190 4E800421 		bctrl
 6837 0194 4BFFFFC4 		b .L263
 6838              	.LVL580:
 6839              	.L280:
 6840              	.LBE2244:
 6841              	.LBE2243:
 6842              	.LBE2242:
 6843              	.LBE2247:
 6844              	.LBE2280:
 6845              	.LBB2281:
 6846              	.LBB2282:
 6847              	.LBB2283:
 6848              	.LBB2284:
 6849              	.LBB2285:
 6850              	.LBB2286:
 6851              		.loc 1 105 0
 6852 0198 3D200000 		lis 9,_ZTVN7sigslot15single_threadedE+8@ha
 6853 019c 7FE3FB78 		mr 3,31
 6854 01a0 38090008 		la 0,_ZTVN7sigslot15single_threadedE+8@l(9)
 6855 01a4 901C0000 		stw 0,0(28)
 6856              	.LEHB23:
 6857 01a8 48000001 		bl _Unwind_Resume
 6858              	.LEHE23:
 6859              	.LBE2286:
 6860              	.LBE2285:
 6861              	.LBE2284:
 6862              	.LBE2283:
 6863              	.LBE2282:
 6864              	.LBE2281:
 6865              	.LBE2290:
 6866              	.LBE2294:
 6867              	.LBE2298:
 6868              	.LBE2302:
 6869              	.LBE2306:
 6870              	.LBE2310:
 6871              		.cfi_endproc
 6872              	.LFE1443:
 6873              		.section	.gcc_except_table
 6874              	.LLSDA1443:
 6875 0073 FF       		.byte	0xff
 6876 0074 FF       		.byte	0xff
 6877 0075 01       		.byte	0x1
 6878 0076 15       		.uleb128 .LLSDACSE1443-.LLSDACSB1443
 6879              	.LLSDACSB1443:
 6880 0077 30       		.uleb128 .LEHB20-.LFB1443
 6881 0078 04       		.uleb128 .LEHE20-.LEHB20
 6882 0079 D402     		.uleb128 .L290-.LFB1443
 6883 007b 00       		.uleb128 0
 6884 007c 54       		.uleb128 .LEHB21-.LFB1443
 6885 007d 58       		.uleb128 .LEHE21-.LEHB21
 6886 007e FC02     		.uleb128 .L291-.LFB1443
 6887 0080 00       		.uleb128 0
 6888 0081 F801     		.uleb128 .LEHB22-.LFB1443
 6889 0083 04       		.uleb128 .LEHE22-.LEHB22
 6890 0084 D402     		.uleb128 .L290-.LFB1443
 6891 0086 00       		.uleb128 0
 6892 0087 A803     		.uleb128 .LEHB23-.LFB1443
 6893 0089 04       		.uleb128 .LEHE23-.LEHB23
 6894 008a 00       		.uleb128 0
 6895 008b 00       		.uleb128 0
 6896              	.LLSDACSE1443:
 6897              		.section	.text._ZN7sigslot7signal2IP10GuiElementbNS_15single_threadedEED0Ev,"axG",@progbits,_ZN7si
 6898              		.size	_ZN7sigslot7signal2IP10GuiElementbNS_15single_threadedEED0Ev, .-_ZN7sigslot7signal2IP10GuiEl
 6899              		.section	.text._ZN7sigslot7signal3IP10GuiElementiiNS_15single_threadedEED0Ev,"axG",@progbits,_ZN7s
 6900              		.align 2
 6901              		.weak	_ZN7sigslot7signal3IP10GuiElementiiNS_15single_threadedEED0Ev
 6902              		.type	_ZN7sigslot7signal3IP10GuiElementiiNS_15single_threadedEED0Ev, @function
 6903              	_ZN7sigslot7signal3IP10GuiElementiiNS_15single_threadedEED0Ev:
 6904              	.LFB1447:
 6905              		.loc 1 2302 0
 6906              		.cfi_startproc
 6907              		.cfi_personality 0,__gxx_personality_v0
 6908              		.cfi_lsda 0,.LLSDA1447
 6909              	.LVL581:
 6910 0000 7C0802A6 		mflr 0
 6911 0004 9421FFD8 		stwu 1,-40(1)
 6912              	.LCFI54:
 6913              		.cfi_def_cfa_offset 40
 6914              		.cfi_register 65, 0
 6915              	.LBB2409:
 6916              	.LBB2410:
 6917              	.LBB2411:
 6918              	.LBB2412:
 6919              	.LBB2413:
 6920              	.LBB2414:
 6921              		.loc 1 946 0
 6922 0008 3D200000 		lis 9,_ZTVN7sigslot13_signal_base3IP10GuiElementiiNS_15single_threadedEEE+8@ha
 6923              	.LBE2414:
 6924              	.LBE2413:
 6925              	.LBE2412:
 6926              	.LBE2411:
 6927              	.LBE2410:
 6928              	.LBE2409:
 6929              		.loc 1 2302 0
 6930 000c 93810018 		stw 28,24(1)
 6931 0010 7C7C1B78 		mr 28,3
 6932              		.cfi_offset 28, -16
 6933              	.LVL582:
 6934 0014 9001002C 		stw 0,44(1)
 6935              	.LBB2511:
 6936              	.LBB2507:
 6937              	.LBB2503:
 6938              	.LBB2499:
 6939              	.LBB2495:
 6940              	.LBB2491:
 6941              		.loc 1 946 0
 6942 0018 38090008 		la 0,_ZTVN7sigslot13_signal_base3IP10GuiElementiiNS_15single_threadedEEE+8@l(9)
 6943              		.cfi_offset 65, 4
 6944              	.LBE2491:
 6945              	.LBE2495:
 6946              	.LBE2499:
 6947              	.LBE2503:
 6948              	.LBE2507:
 6949              	.LBE2511:
 6950              		.loc 1 2302 0
 6951 001c 93A1001C 		stw 29,28(1)
 6952 0020 3BA30004 		addi 29,3,4
 6953              		.cfi_offset 29, -12
 6954 0024 93C10020 		stw 30,32(1)
 6955 0028 93E10024 		stw 31,36(1)
 6956              	.LBB2512:
 6957              	.LBB2508:
 6958              	.LBB2504:
 6959              	.LBB2500:
 6960              	.LBB2496:
 6961              	.LBB2492:
 6962              		.loc 1 946 0
 6963 002c 90030000 		stw 0,0(3)
 6964              	.LVL583:
 6965              	.LEHB24:
 6966              	.LBB2415:
 6967              	.LBB2416:
 6968              	.LBB2417:
 6969              	.LBB2418:
 6970              		.loc 1 338 0
 6971              		.cfi_offset 31, -4
 6972              		.cfi_offset 30, -8
 6973 0030 48000001 		bl _ZN7sigslot15single_threaded4lockEv
 6974              	.LEHE24:
 6975              	.LVL584:
 6976              	.LBE2418:
 6977              	.LBE2417:
 6978              	.LBE2416:
 6979              		.loc 3 302 0
 6980 0034 7F9DE378 		mr 29,28
 6981              	.LVL585:
 6982 0038 87FD0004 		lwzu 31,4(29)
 6983              	.LVL586:
 6984              	.LBB2449:
 6985              		.loc 1 954 0
 6986 003c 7F9FE800 		cmpw 7,31,29
 6987 0040 419E00A8 		beq- 7,.L299
 6988              	.LVL587:
 6989              	.L338:
 6990              		.loc 1 956 0
 6991 0044 807F0008 		lwz 3,8(31)
 6992 0048 81230000 		lwz 9,0(3)
 6993 004c 80090008 		lwz 0,8(9)
 6994 0050 7C0903A6 		mtctr 0
 6995              	.LEHB25:
 6996 0054 4E800421 		bctrl
 6997              	.LBB2419:
 6998              	.LBB2420:
 6999              	.LBB2421:
 7000              	.LBB2422:
 7001              		.loc 1 338 0
 7002 0058 81230000 		lwz 9,0(3)
 7003              	.LBE2422:
 7004              	.LBE2421:
 7005              	.LBE2420:
 7006              	.LBE2419:
 7007              		.loc 1 956 0
 7008 005c 7C7E1B78 		mr 30,3
 7009              	.LVL588:
 7010 0060 93810008 		stw 28,8(1)
 7011              	.LVL589:
 7012              	.LBB2431:
 7013              	.LBB2430:
 7014              	.LBB2424:
 7015              	.LBB2423:
 7016              		.loc 1 338 0
 7017 0064 80090008 		lwz 0,8(9)
 7018 0068 7C0903A6 		mtctr 0
 7019 006c 4E800421 		bctrl
 7020              	.LVL590:
 7021              	.LBE2423:
 7022              	.LBE2424:
 7023              	.LBB2425:
 7024              	.LBB2426:
 7025              		.loc 9 528 0
 7026 0070 387E0004 		addi 3,30,4
 7027 0074 38810008 		addi 4,1,8
 7028 0078 48000001 		bl _ZNSt8_Rb_treeIPN7sigslot12_signal_baseINS0_15single_threadedEEES4_St9_IdentityIS4_ESt4lessIS4_
 7029              	.LVL591:
 7030              	.LBE2426:
 7031              	.LBE2425:
 7032              	.LBB2427:
 7033              	.LBB2428:
 7034              	.LBB2429:
 7035              		.loc 1 343 0
 7036 007c 813E0000 		lwz 9,0(30)
 7037 0080 7FC3F378 		mr 3,30
 7038 0084 8009000C 		lwz 0,12(9)
