	.file	"gui_checkbox.cpp"
	.section	".text"
.Ltext0:
	.section	.text._ZN7sigslot15single_threadedD2Ev,"axG",@progbits,_ZN7sigslot15single_threadedD5Ev,comdat
	.align 2
	.weak	_ZN7sigslot15single_threadedD2Ev
	.type	_ZN7sigslot15single_threadedD2Ev, @function
_ZN7sigslot15single_threadedD2Ev:
.LFB1148:
	.file 1 "d:/Projects/SaveGameManager/savegame-manager-gx/trunk/source/GUI/../sigslot.h"
	.loc 1 104 0
	.cfi_startproc
.LVL0:
.LBB1394:
	.loc 1 105 0
	lis 9,_ZTVN7sigslot15single_threadedE+8@ha
.LBE1394:
	.loc 1 107 0
.LBB1395:
	.loc 1 105 0
	la 0,_ZTVN7sigslot15single_threadedE+8@l(9)
	stw 0,0(3)
.LBE1395:
	.loc 1 107 0
	blr
	.cfi_endproc
.LFE1148:
	.size	_ZN7sigslot15single_threadedD2Ev, .-_ZN7sigslot15single_threadedD2Ev
	.section	.text._ZN7sigslot15single_threaded4lockEv,"axG",@progbits,_ZN7sigslot15single_threaded4lockEv,comdat
	.align 2
	.weak	_ZN7sigslot15single_threaded4lockEv
	.type	_ZN7sigslot15single_threaded4lockEv, @function
_ZN7sigslot15single_threaded4lockEv:
.LFB1151:
	.loc 1 109 0
	.cfi_startproc
.LVL1:
	.loc 1 112 0
	blr
	.cfi_endproc
.LFE1151:
	.size	_ZN7sigslot15single_threaded4lockEv, .-_ZN7sigslot15single_threaded4lockEv
	.section	.text._ZN7sigslot15single_threaded6unlockEv,"axG",@progbits,_ZN7sigslot15single_threaded6unlockEv,comdat
	.align 2
	.weak	_ZN7sigslot15single_threaded6unlockEv
	.type	_ZN7sigslot15single_threaded6unlockEv, @function
_ZN7sigslot15single_threaded6unlockEv:
.LFB1152:
	.loc 1 114 0
	.cfi_startproc
.LVL2:
	.loc 1 117 0
	blr
	.cfi_endproc
.LFE1152:
	.size	_ZN7sigslot15single_threaded6unlockEv, .-_ZN7sigslot15single_threaded6unlockEv
	.section	.text._ZN10GuiElement9SetParentEPS_,"axG",@progbits,_ZN10GuiElement9SetParentEPS_,comdat
	.align 2
	.weak	_ZN10GuiElement9SetParentEPS_
	.type	_ZN10GuiElement9SetParentEPS_, @function
_ZN10GuiElement9SetParentEPS_:
.LFB1384:
	.file 2 "d:/Projects/SaveGameManager/savegame-manager-gx/trunk/source/GUI/gui_element.h"
	.loc 2 92 0
	.cfi_startproc
.LVL3:
	.loc 2 92 0
	stw 4,96(3)
	blr
	.cfi_endproc
.LFE1384:
	.size	_ZN10GuiElement9SetParentEPS_, .-_ZN10GuiElement9SetParentEPS_
	.section	.text._ZN10GuiElement9GetParentEv,"axG",@progbits,_ZN10GuiElement9GetParentEv,comdat
	.align 2
	.weak	_ZN10GuiElement9GetParentEv
	.type	_ZN10GuiElement9GetParentEv, @function
_ZN10GuiElement9GetParentEv:
.LFB1385:
	.loc 2 95 0
	.cfi_startproc
.LVL4:
	.loc 2 95 0
	lwz 3,96(3)
.LVL5:
	blr
	.cfi_endproc
.LFE1385:
	.size	_ZN10GuiElement9GetParentEv, .-_ZN10GuiElement9GetParentEv
	.section	.text._ZN10GuiElement12GetZPositionEv,"axG",@progbits,_ZN10GuiElement12GetZPositionEv,comdat
	.align 2
	.weak	_ZN10GuiElement12GetZPositionEv
	.type	_ZN10GuiElement12GetZPositionEv, @function
_ZN10GuiElement12GetZPositionEv:
.LFB1386:
	.loc 2 106 0
	.cfi_startproc
.LVL6:
	mflr 0
	stwu 1,-16(1)
.LCFI0:
	.cfi_def_cfa_offset 16
	.cfi_register 65, 0
	stw 31,12(1)
	mr 31,3
	.cfi_offset 31, -4
	stw 0,20(1)
.LBB1396:
	.loc 2 110 0
	lwz 11,96(3)
	.loc 2 108 0
	li 3,0
.LVL7:
	.loc 2 110 0
	cmpwi 7,11,0
	beq- 7,.L8
	.cfi_offset 65, 4
	.loc 2 111 0
	lwz 9,0(11)
	mr 3,11
	lwz 0,24(9)
	mtctr 0
	bctrl
.LVL8:
.L8:
	.loc 2 113 0
	lwz 0,52(31)
.LBE1396:
	.loc 2 114 0
	lwz 31,12(1)
.LVL9:
	add 3,3,0
.LVL10:
	lwz 0,20(1)
	addi 1,1,16
.LCFI1:
	.cfi_def_cfa_offset 0
	.cfi_restore 31
	mtlr 0
	blr
	.cfi_endproc
.LFE1386:
	.size	_ZN10GuiElement12GetZPositionEv, .-_ZN10GuiElement12GetZPositionEv
	.section	.text._ZN10GuiElement10GetLeftPosEv,"axG",@progbits,_ZN10GuiElement10GetLeftPosEv,comdat
	.align 2
	.weak	_ZN10GuiElement10GetLeftPosEv
	.type	_ZN10GuiElement10GetLeftPosEv, @function
_ZN10GuiElement10GetLeftPosEv:
.LFB1387:
	.loc 2 116 0
	.cfi_startproc
.LVL11:
	.loc 2 116 0
	lwz 3,44(3)
.LVL12:
	blr
	.cfi_endproc
.LFE1387:
	.size	_ZN10GuiElement10GetLeftPosEv, .-_ZN10GuiElement10GetLeftPosEv
	.section	.text._ZN10GuiElement9GetTopPosEv,"axG",@progbits,_ZN10GuiElement9GetTopPosEv,comdat
	.align 2
	.weak	_ZN10GuiElement9GetTopPosEv
	.type	_ZN10GuiElement9GetTopPosEv, @function
_ZN10GuiElement9GetTopPosEv:
.LFB1388:
	.loc 2 118 0
	.cfi_startproc
.LVL13:
	.loc 2 118 0
	lwz 3,48(3)
.LVL14:
	blr
	.cfi_endproc
.LFE1388:
	.size	_ZN10GuiElement9GetTopPosEv, .-_ZN10GuiElement9GetTopPosEv
	.section	.text._ZN10GuiElement8GetWidthEv,"axG",@progbits,_ZN10GuiElement8GetWidthEv,comdat
	.align 2
	.weak	_ZN10GuiElement8GetWidthEv
	.type	_ZN10GuiElement8GetWidthEv, @function
_ZN10GuiElement8GetWidthEv:
.LFB1389:
	.loc 2 121 0
	.cfi_startproc
.LVL15:
	.loc 2 121 0
	lwz 3,36(3)
.LVL16:
	blr
	.cfi_endproc
.LFE1389:
	.size	_ZN10GuiElement8GetWidthEv, .-_ZN10GuiElement8GetWidthEv
	.section	.text._ZN10GuiElement9GetHeightEv,"axG",@progbits,_ZN10GuiElement9GetHeightEv,comdat
	.align 2
	.weak	_ZN10GuiElement9GetHeightEv
	.type	_ZN10GuiElement9GetHeightEv, @function
_ZN10GuiElement9GetHeightEv:
.LFB1390:
	.loc 2 124 0
	.cfi_startproc
.LVL17:
	.loc 2 124 0
	lwz 3,40(3)
.LVL18:
	blr
	.cfi_endproc
.LFE1390:
	.size	_ZN10GuiElement9GetHeightEv, .-_ZN10GuiElement9GetHeightEv
	.section	.text._ZN10GuiElement10SetVisibleEb,"axG",@progbits,_ZN10GuiElement10SetVisibleEb,comdat
	.align 2
	.weak	_ZN10GuiElement10SetVisibleEb
	.type	_ZN10GuiElement10SetVisibleEb, @function
_ZN10GuiElement10SetVisibleEb:
.LFB1392:
	.loc 2 135 0
	.cfi_startproc
	.cfi_personality 0,__gxx_personality_v0
	.cfi_lsda 0,.LLSDA1392
.LVL19:
	mflr 0
	stwu 1,-32(1)
.LCFI2:
	.cfi_def_cfa_offset 32
	.cfi_register 65, 0
	stw 27,12(1)
.LBB1397:
.LBB1398:
	.loc 1 2270 0
	addi 27,3,4
	.cfi_offset 27, -20
.LBE1398:
.LBE1397:
	.loc 2 135 0
	stw 0,36(1)
	stw 30,24(1)
	mr 30,3
	.cfi_offset 30, -8
	.cfi_offset 65, 4
.LBB1421:
.LBB1415:
.LBB1399:
.LBB1400:
	.loc 1 338 0
	lwz 9,4(3)
	mr 3,27
.LVL20:
.LBE1400:
.LBE1399:
.LBE1415:
.LBE1421:
	.loc 2 135 0
	stw 28,16(1)
	mr 28,4
	.cfi_offset 28, -16
.LBB1422:
.LBB1416:
.LBB1404:
.LBB1401:
	.loc 1 338 0
	lwz 0,8(9)
.LBE1401:
.LBE1404:
.LBE1416:
.LBE1422:
	.loc 2 135 0
	stw 29,20(1)
.LBB1423:
	.file 3 "d:/Projects/SaveGameManager/savegame-manager-gx/trunk/source/GUI/gui_checkbox.cpp"
	.loc 3 144 0
	mr 29,30
	.cfi_offset 29, -12
.LBE1423:
	.loc 2 135 0
	stw 31,28(1)
.LBB1424:
.LBB1417:
.LBB1405:
.LBB1402:
	.loc 1 338 0
	mtctr 0
.LBE1402:
.LBE1405:
.LBE1417:
.LBE1424:
	.loc 2 137 0
	stb 4,29(30)
.LVL21:
.LEHB0:
.LBB1425:
.LBB1418:
.LBB1406:
.LBB1403:
	.loc 1 338 0
	.cfi_offset 31, -4
	bctrl
.LEHE0:
.LVL22:
.LBE1403:
.LBE1406:
.LBE1418:
	.loc 3 144 0
	lwzu 31,8(29)
.LVL23:
.LBB1419:
	.loc 1 2274 0
	cmpw 7,31,29
	beq- 7,.L16
.LVL24:
.L23:
	.loc 1 2279 0
	lwz 3,8(31)
	mr 4,30
	mr 5,28
.LBB1407:
.LBB1408:
	.file 4 "d:\\devkitpro\\devkitppc\\bin\\../lib/gcc/powerpc-eabi/4.6.3/../../../../powerpc-eabi/include/c++/4.6.3/bits/stl_list.h"
	.loc 4 234 0
	lwz 31,0(31)
.LVL25:
.LBE1408:
.LBE1407:
	.loc 1 2279 0
	lwz 9,0(3)
	lwz 0,12(9)
	mtctr 0
.LEHB1:
	bctrl
.LEHE1:
.LVL26:
	.loc 1 2274 0
	cmpw 7,29,31
	bne+ 7,.L23
.LVL27:
.L16:
.LBB1409:
.LBB1410:
.LBB1411:
	.loc 1 343 0
	lwz 9,4(30)
	mr 3,27
	lwz 0,12(9)
	mtctr 0
.LEHB2:
	bctrl
.LEHE2:
.LBE1411:
.LBE1410:
.LBE1409:
.LBE1419:
.LBE1425:
	.loc 2 139 0
	lwz 0,36(1)
	lwz 27,12(1)
.LVL28:
	mtlr 0
	lwz 28,16(1)
.LVL29:
	lwz 29,20(1)
	lwz 30,24(1)
.LVL30:
	lwz 31,28(1)
.LVL31:
	addi 1,1,32
	.cfi_remember_state
.LCFI3:
	.cfi_def_cfa_offset 0
	.cfi_restore 31
	.cfi_restore 30
	.cfi_restore 29
	.cfi_restore 28
	.cfi_restore 27
	blr
.LVL32:
.L22:
.LCFI4:
	.cfi_restore_state
.LBB1426:
.LBB1420:
.LBB1412:
.LBB1413:
.LBB1414:
	.loc 1 343 0
	lwz 9,4(30)
	mr 31,3
.LVL33:
	mr 3,27
	lwz 0,12(9)
	mtctr 0
	bctrl
	mr 3,31
.LEHB3:
	bl _Unwind_Resume
.LEHE3:
.LBE1414:
.LBE1413:
.LBE1412:
.LBE1420:
.LBE1426:
	.cfi_endproc
.LFE1392:
	.globl __gxx_personality_v0
	.section	.gcc_except_table,"a",@progbits
.LLSDA1392:
	.byte	0xff
	.byte	0xff
	.byte	0x1
	.uleb128 .LLSDACSE1392-.LLSDACSB1392
.LLSDACSB1392:
	.uleb128 .LEHB0-.LFB1392
	.uleb128 .LEHE0-.LEHB0
	.uleb128 0
	.uleb128 0
	.uleb128 .LEHB1-.LFB1392
	.uleb128 .LEHE1-.LEHB1
	.uleb128 .L22-.LFB1392
	.uleb128 0
	.uleb128 .LEHB2-.LFB1392
	.uleb128 .LEHE2-.LEHB2
	.uleb128 0
	.uleb128 0
	.uleb128 .LEHB3-.LFB1392
	.uleb128 .LEHE3-.LEHB3
	.uleb128 0
	.uleb128 0
.LLSDACSE1392:
	.section	.text._ZN10GuiElement10SetVisibleEb,"axG",@progbits,_ZN10GuiElement10SetVisibleEb,comdat
	.size	_ZN10GuiElement10SetVisibleEb, .-_ZN10GuiElement10SetVisibleEb
	.section	.text._ZN10GuiElement9IsVisibleEv,"axG",@progbits,_ZN10GuiElement9IsVisibleEv,comdat
	.align 2
	.weak	_ZN10GuiElement9IsVisibleEv
	.type	_ZN10GuiElement9IsVisibleEv, @function
_ZN10GuiElement9IsVisibleEv:
.LFB1393:
	.loc 2 142 0
	.cfi_startproc
.LVL34:
	.loc 2 142 0
	lbz 3,29(3)
.LVL35:
	blr
	.cfi_endproc
.LFE1393:
	.size	_ZN10GuiElement9IsVisibleEv, .-_ZN10GuiElement9IsVisibleEv
	.section	.text._ZN10GuiElement12IsSelectableEv,"axG",@progbits,_ZN10GuiElement12IsSelectableEv,comdat
	.align 2
	.weak	_ZN10GuiElement12IsSelectableEv
	.type	_ZN10GuiElement12IsSelectableEv, @function
_ZN10GuiElement12IsSelectableEv:
.LFB1394:
	.loc 2 145 0
	.cfi_startproc
.LVL36:
	.loc 2 149 0
	lwz 0,72(3)
	li 9,0
	cmpwi 7,0,4
	beq- 7,.L26
	.loc 2 149 0 is_stmt 0 discriminator 1
	cmpwi 7,0,2
	beq- 7,.L26
	.loc 2 149 0 discriminator 3
	lbz 9,30(3)
.L26:
	.loc 2 150 0 is_stmt 1 discriminator 5
	mr 3,9
.LVL37:
	blr
	.cfi_endproc
.LFE1394:
	.size	_ZN10GuiElement12IsSelectableEv, .-_ZN10GuiElement12IsSelectableEv
	.section	.text._ZN10GuiElement11IsClickableEv,"axG",@progbits,_ZN10GuiElement11IsClickableEv,comdat
	.align 2
	.weak	_ZN10GuiElement11IsClickableEv
	.type	_ZN10GuiElement11IsClickableEv, @function
_ZN10GuiElement11IsClickableEv:
.LFB1395:
	.loc 2 153 0
	.cfi_startproc
.LVL38:
	.loc 2 158 0
	lwz 0,72(3)
	li 9,0
	cmpwi 7,0,4
	beq- 7,.L30
	.loc 2 158 0 is_stmt 0 discriminator 1
	cmpwi 7,0,2
	beq- 7,.L30
	.loc 2 158 0 discriminator 3
	cmpwi 7,0,3
	beq- 7,.L30
	.loc 2 158 0 discriminator 4
	lbz 9,31(3)
.L30:
	.loc 2 159 0 is_stmt 1 discriminator 6
	mr 3,9
.LVL39:
	blr
	.cfi_endproc
.LFE1395:
	.size	_ZN10GuiElement11IsClickableEv, .-_ZN10GuiElement11IsClickableEv
	.section	.text._ZN10GuiElement10IsHoldableEv,"axG",@progbits,_ZN10GuiElement10IsHoldableEv,comdat
	.align 2
	.weak	_ZN10GuiElement10IsHoldableEv
	.type	_ZN10GuiElement10IsHoldableEv, @function
_ZN10GuiElement10IsHoldableEv:
.LFB1396:
	.loc 2 162 0
	.cfi_startproc
.LVL40:
	.loc 2 162 0
	lwz 9,72(3)
	li 0,0
	cmpwi 7,9,4
	beq- 7,.L35
	.loc 2 162 0 is_stmt 0 discriminator 1
	lbz 0,32(3)
.L35:
	.loc 2 162 0 discriminator 4
	mr 3,0
.LVL41:
	blr
	.cfi_endproc
.LFE1396:
	.size	_ZN10GuiElement10IsHoldableEv, .-_ZN10GuiElement10IsHoldableEv
	.section	.text._ZN10GuiElement13SetSelectableEb,"axG",@progbits,_ZN10GuiElement13SetSelectableEb,comdat
	.align 2
	.weak	_ZN10GuiElement13SetSelectableEb
	.type	_ZN10GuiElement13SetSelectableEb, @function
_ZN10GuiElement13SetSelectableEb:
.LFB1397:
	.loc 2 165 0 is_stmt 1
	.cfi_startproc
.LVL42:
	.loc 2 165 0
	stb 4,30(3)
	blr
	.cfi_endproc
.LFE1397:
	.size	_ZN10GuiElement13SetSelectableEb, .-_ZN10GuiElement13SetSelectableEb
	.section	.text._ZN10GuiElement12SetClickableEb,"axG",@progbits,_ZN10GuiElement12SetClickableEb,comdat
	.align 2
	.weak	_ZN10GuiElement12SetClickableEb
	.type	_ZN10GuiElement12SetClickableEb, @function
_ZN10GuiElement12SetClickableEb:
.LFB1398:
	.loc 2 168 0
	.cfi_startproc
.LVL43:
	.loc 2 168 0
	stb 4,31(3)
	blr
	.cfi_endproc
.LFE1398:
	.size	_ZN10GuiElement12SetClickableEb, .-_ZN10GuiElement12SetClickableEb
	.section	.text._ZN10GuiElement11SetHoldableEb,"axG",@progbits,_ZN10GuiElement11SetHoldableEb,comdat
	.align 2
	.weak	_ZN10GuiElement11SetHoldableEb
	.type	_ZN10GuiElement11SetHoldableEb, @function
_ZN10GuiElement11SetHoldableEb:
.LFB1399:
	.loc 2 171 0
	.cfi_startproc
.LVL44:
	.loc 2 171 0
	stb 4,32(3)
	blr
	.cfi_endproc
.LFE1399:
	.size	_ZN10GuiElement11SetHoldableEb, .-_ZN10GuiElement11SetHoldableEb
	.section	.text._ZN10GuiElement8GetStateEv,"axG",@progbits,_ZN10GuiElement8GetStateEv,comdat
	.align 2
	.weak	_ZN10GuiElement8GetStateEv
	.type	_ZN10GuiElement8GetStateEv, @function
_ZN10GuiElement8GetStateEv:
.LFB1400:
	.loc 2 178 0
	.cfi_startproc
.LVL45:
	.loc 2 178 0
	lwz 3,72(3)
.LVL46:
	blr
	.cfi_endproc
.LFE1400:
	.size	_ZN10GuiElement8GetStateEv, .-_ZN10GuiElement8GetStateEv
	.section	.text._ZN10GuiElement12GetStateChanEv,"axG",@progbits,_ZN10GuiElement12GetStateChanEv,comdat
	.align 2
	.weak	_ZN10GuiElement12GetStateChanEv
	.type	_ZN10GuiElement12GetStateChanEv, @function
_ZN10GuiElement12GetStateChanEv:
.LFB1401:
	.loc 2 181 0
	.cfi_startproc
.LVL47:
	.loc 2 181 0
	lwz 3,76(3)
.LVL48:
	blr
	.cfi_endproc
.LFE1401:
	.size	_ZN10GuiElement12GetStateChanEv, .-_ZN10GuiElement12GetStateChanEv
	.section	.text._ZN10GuiElement8SetAlphaEi,"axG",@progbits,_ZN10GuiElement8SetAlphaEi,comdat
	.align 2
	.weak	_ZN10GuiElement8SetAlphaEi
	.type	_ZN10GuiElement8SetAlphaEi, @function
_ZN10GuiElement8SetAlphaEi:
.LFB1403:
	.loc 2 190 0
	.cfi_startproc
.LVL49:
	.loc 2 190 0
	stw 4,56(3)
	blr
	.cfi_endproc
.LFE1403:
	.size	_ZN10GuiElement8SetAlphaEi, .-_ZN10GuiElement8SetAlphaEi
	.section	.text._ZN10GuiElement8GetAlphaEv,"axG",@progbits,_ZN10GuiElement8GetAlphaEv,comdat
	.align 2
	.weak	_ZN10GuiElement8GetAlphaEv
	.type	_ZN10GuiElement8GetAlphaEv, @function
_ZN10GuiElement8GetAlphaEv:
.LFB1404:
	.loc 2 194 0
	.cfi_startproc
.LVL50:
	mflr 0
	stwu 1,-40(1)
.LCFI5:
	.cfi_def_cfa_offset 40
	.cfi_register 65, 0
	stw 31,36(1)
	stw 0,44(1)
.LBB1427:
	.loc 2 198 0
	lwz 31,108(3)
	.cfi_offset 65, 4
	.cfi_offset 31, -4
	cmpwi 7,31,0
	blt- 7,.L46
.L44:
.LVL51:
	.loc 2 203 0
	lwz 3,96(3)
.LVL52:
	cmpwi 7,3,0
	beq- 7,.L45
	.loc 2 204 0
	lwz 9,0(3)
	xoris 31,31,0x8000
.LVL53:
	lwz 0,100(9)
	mtctr 0
	bctrl
	lis 0,0x4330
	xoris 3,3,0x8000
	stw 0,16(1)
	stw 3,20(1)
	lis 9,.LC1@ha
	lfs 0,.LC1@l(9)
	lis 9,.LC2@ha
	lfd 13,16(1)
	lfs 12,.LC2@l(9)
	addi 9,1,24
	fsub 13,13,0
	stw 31,12(1)
	stw 0,8(1)
	frsp 13,13
	fdivs 13,13,12
	lfd 12,8(1)
	fsub 0,12,0
	frsp 0,0
	fmuls 0,0,13
	fctiwz 0,0
	stfiwx 0,0,9
	lwz 31,24(1)
.LVL54:
.L45:
.LBE1427:
	.loc 2 207 0
	lwz 0,44(1)
	mr 3,31
	lwz 31,36(1)
.LVL55:
	mtlr 0
	addi 1,1,40
	.cfi_remember_state
.LCFI6:
	.cfi_def_cfa_offset 0
	.cfi_restore 31
	blr
.LVL56:
.L46:
.LCFI7:
	.cfi_restore_state
.LBB1428:
	.loc 2 201 0
	lwz 31,56(3)
.LVL57:
	b .L44
.LBE1428:
	.cfi_endproc
.LFE1404:
	.size	_ZN10GuiElement8GetAlphaEv, .-_ZN10GuiElement8GetAlphaEv
	.section	.text._ZN10GuiElement8SetScaleEf,"axG",@progbits,_ZN10GuiElement8SetScaleEf,comdat
	.align 2
	.weak	_ZN10GuiElement8SetScaleEf
	.type	_ZN10GuiElement8SetScaleEf, @function
_ZN10GuiElement8SetScaleEf:
.LFB1405:
	.loc 2 210 0
	.cfi_startproc
.LVL58:
	.loc 2 212 0
	stfs 1,60(3)
	.loc 2 214 0
	.loc 2 213 0
	stfs 1,64(3)
	.loc 2 214 0
	blr
	.cfi_endproc
.LFE1405:
	.size	_ZN10GuiElement8SetScaleEf, .-_ZN10GuiElement8SetScaleEf
	.section	.text._ZN10GuiElement9SetScaleXEf,"axG",@progbits,_ZN10GuiElement9SetScaleXEf,comdat
	.align 2
	.weak	_ZN10GuiElement9SetScaleXEf
	.type	_ZN10GuiElement9SetScaleXEf, @function
_ZN10GuiElement9SetScaleXEf:
.LFB1406:
	.loc 2 217 0
	.cfi_startproc
.LVL59:
	.loc 2 217 0
	stfs 1,60(3)
	blr
	.cfi_endproc
.LFE1406:
	.size	_ZN10GuiElement9SetScaleXEf, .-_ZN10GuiElement9SetScaleXEf
	.section	.text._ZN10GuiElement9SetScaleYEf,"axG",@progbits,_ZN10GuiElement9SetScaleYEf,comdat
	.align 2
	.weak	_ZN10GuiElement9SetScaleYEf
	.type	_ZN10GuiElement9SetScaleYEf, @function
_ZN10GuiElement9SetScaleYEf:
.LFB1407:
	.loc 2 220 0
	.cfi_startproc
.LVL60:
	.loc 2 220 0
	stfs 1,64(3)
	blr
	.cfi_endproc
.LFE1407:
	.size	_ZN10GuiElement9SetScaleYEf, .-_ZN10GuiElement9SetScaleYEf
	.section	.text._ZN10GuiElement8GetScaleEv,"axG",@progbits,_ZN10GuiElement8GetScaleEv,comdat
	.align 2
	.weak	_ZN10GuiElement8GetScaleEv
	.type	_ZN10GuiElement8GetScaleEv, @function
_ZN10GuiElement8GetScaleEv:
.LFB1408:
	.loc 2 223 0
	.cfi_startproc
.LVL61:
	mflr 0
	stwu 1,-16(1)
.LCFI8:
	.cfi_def_cfa_offset 16
	.cfi_register 65, 0
.LBB1429:
	.loc 2 225 0
	lis 9,.LC3@ha
.LBE1429:
	.loc 2 223 0
	stfd 31,8(1)
	stw 0,20(1)
.LBB1430:
	.loc 2 225 0
	lfs 0,64(3)
	lfs 31,60(3)
	.cfi_offset 65, 4
	.cfi_offset 63, -8
	.loc 2 227 0
	lwz 11,96(3)
	.loc 2 225 0
	fadds 31,31,0
	lfs 0,.LC3@l(9)
	.loc 2 227 0
	cmpwi 7,11,0
	.loc 2 225 0
	fmuls 31,31,0
	lfs 0,112(3)
	fmuls 31,31,0
.LVL62:
	.loc 2 227 0
	beq- 7,.L51
	.loc 2 228 0
	lwz 9,0(11)
	mr 3,11
.LVL63:
	lwz 0,116(9)
	mtctr 0
	bctrl
	fmuls 31,31,1
.LVL64:
.L51:
.LBE1430:
	.loc 2 231 0
	lwz 0,20(1)
	fmr 1,31
	lfd 31,8(1)
.LVL65:
	mtlr 0
	addi 1,1,16
.LCFI9:
	.cfi_def_cfa_offset 0
	.cfi_restore 63
	blr
	.cfi_endproc
.LFE1408:
	.size	_ZN10GuiElement8GetScaleEv, .-_ZN10GuiElement8GetScaleEv
	.section	.text._ZN10GuiElement9GetScaleXEv,"axG",@progbits,_ZN10GuiElement9GetScaleXEv,comdat
	.align 2
	.weak	_ZN10GuiElement9GetScaleXEv
	.type	_ZN10GuiElement9GetScaleXEv, @function
_ZN10GuiElement9GetScaleXEv:
.LFB1409:
	.loc 2 234 0
	.cfi_startproc
.LVL66:
	mflr 0
	stwu 1,-16(1)
.LCFI10:
	.cfi_def_cfa_offset 16
	.cfi_register 65, 0
	stfd 31,8(1)
	stw 0,20(1)
.LBB1431:
	.loc 2 238 0
	lwz 11,96(3)
	.loc 2 236 0
	lfs 31,60(3)
	.cfi_offset 65, 4
	.cfi_offset 63, -8
	.loc 2 238 0
	cmpwi 7,11,0
	.loc 2 236 0
	lfs 0,112(3)
	fmuls 31,31,0
.LVL67:
	.loc 2 238 0
	beq- 7,.L53
	.loc 2 239 0
	lwz 9,0(11)
	mr 3,11
.LVL68:
	lwz 0,120(9)
	mtctr 0
	bctrl
	fmuls 31,31,1
.LVL69:
.L53:
.LBE1431:
	.loc 2 242 0
	lwz 0,20(1)
	fmr 1,31
	lfd 31,8(1)
.LVL70:
	mtlr 0
	addi 1,1,16
.LCFI11:
	.cfi_def_cfa_offset 0
	.cfi_restore 63
	blr
	.cfi_endproc
.LFE1409:
	.size	_ZN10GuiElement9GetScaleXEv, .-_ZN10GuiElement9GetScaleXEv
	.section	.text._ZN10GuiElement9GetScaleYEv,"axG",@progbits,_ZN10GuiElement9GetScaleYEv,comdat
	.align 2
	.weak	_ZN10GuiElement9GetScaleYEv
	.type	_ZN10GuiElement9GetScaleYEv, @function
_ZN10GuiElement9GetScaleYEv:
.LFB1410:
	.loc 2 245 0
	.cfi_startproc
.LVL71:
	mflr 0
	stwu 1,-16(1)
.LCFI12:
	.cfi_def_cfa_offset 16
	.cfi_register 65, 0
	stfd 31,8(1)
	stw 0,20(1)
.LBB1432:
	.loc 2 249 0
	lwz 11,96(3)
	.loc 2 247 0
	lfs 31,64(3)
	.cfi_offset 65, 4
	.cfi_offset 63, -8
	.loc 2 249 0
	cmpwi 7,11,0
	.loc 2 247 0
	lfs 0,112(3)
	fmuls 31,31,0
.LVL72:
	.loc 2 249 0
	beq- 7,.L55
	.loc 2 250 0
	lwz 9,0(11)
	mr 3,11
.LVL73:
	lwz 0,124(9)
	mtctr 0
	bctrl
	fmuls 31,31,1
.LVL74:
.L55:
.LBE1432:
	.loc 2 253 0
	lwz 0,20(1)
	fmr 1,31
	lfd 31,8(1)
.LVL75:
	mtlr 0
	addi 1,1,16
.LCFI13:
	.cfi_def_cfa_offset 0
	.cfi_restore 63
	blr
	.cfi_endproc
.LFE1410:
	.size	_ZN10GuiElement9GetScaleYEv, .-_ZN10GuiElement9GetScaleYEv
	.section	.text._ZN10GuiElement6RumbleEv,"axG",@progbits,_ZN10GuiElement6RumbleEv,comdat
	.align 2
	.weak	_ZN10GuiElement6RumbleEv
	.type	_ZN10GuiElement6RumbleEv, @function
_ZN10GuiElement6RumbleEv:
.LFB1411:
	.loc 2 256 0
	.cfi_startproc
.LVL76:
	.loc 2 256 0
	lbz 3,28(3)
.LVL77:
	blr
	.cfi_endproc
.LFE1411:
	.size	_ZN10GuiElement6RumbleEv, .-_ZN10GuiElement6RumbleEv
	.section	.text._ZN10GuiElement9SetRumbleEb,"axG",@progbits,_ZN10GuiElement9SetRumbleEb,comdat
	.align 2
	.weak	_ZN10GuiElement9SetRumbleEb
	.type	_ZN10GuiElement9SetRumbleEb, @function
_ZN10GuiElement9SetRumbleEb:
.LFB1412:
	.loc 2 259 0
	.cfi_startproc
.LVL78:
	.loc 2 259 0
	stb 4,28(3)
	blr
	.cfi_endproc
.LFE1412:
	.size	_ZN10GuiElement9SetRumbleEb, .-_ZN10GuiElement9SetRumbleEb
	.section	.text._ZN10GuiElement13SetEffectGrowEv,"axG",@progbits,_ZN10GuiElement13SetEffectGrowEv,comdat
	.align 2
	.weak	_ZN10GuiElement13SetEffectGrowEv
	.type	_ZN10GuiElement13SetEffectGrowEv, @function
_ZN10GuiElement13SetEffectGrowEv:
.LFB1413:
	.loc 2 271 0
	.cfi_startproc
.LVL79:
	mflr 0
	stwu 1,-8(1)
.LCFI14:
	.cfi_def_cfa_offset 8
	.cfi_register 65, 0
	lwz 9,0(3)
	li 4,256
	li 5,4
	li 6,110
	stw 0,12(1)
	.loc 2 271 0
	lwz 0,140(9)
	.cfi_offset 65, 4
	mtctr 0
	bctrl
.LVL80:
	lwz 0,12(1)
	addi 1,1,8
.LCFI15:
	.cfi_def_cfa_offset 0
	mtlr 0
	blr
	.cfi_endproc
.LFE1413:
	.size	_ZN10GuiElement13SetEffectGrowEv, .-_ZN10GuiElement13SetEffectGrowEv
	.section	.text._ZNK10GuiElement9GetEffectEv,"axG",@progbits,_ZNK10GuiElement9GetEffectEv,comdat
	.align 2
	.weak	_ZNK10GuiElement9GetEffectEv
	.type	_ZNK10GuiElement9GetEffectEv, @function
_ZNK10GuiElement9GetEffectEv:
.LFB1414:
	.loc 2 276 0
	.cfi_startproc
.LVL81:
	.loc 2 276 0
	lwz 3,120(3)
.LVL82:
	blr
	.cfi_endproc
.LFE1414:
	.size	_ZNK10GuiElement9GetEffectEv, .-_ZNK10GuiElement9GetEffectEv
	.section	.text._ZNK10GuiElement10IsAnimatedEv,"axG",@progbits,_ZNK10GuiElement10IsAnimatedEv,comdat
	.align 2
	.weak	_ZNK10GuiElement10IsAnimatedEv
	.type	_ZNK10GuiElement10IsAnimatedEv, @function
_ZNK10GuiElement10IsAnimatedEv:
.LFB1415:
	.loc 2 278 0
	.cfi_startproc
.LVL83:
	mflr 0
	stwu 1,-8(1)
.LCFI16:
	.cfi_def_cfa_offset 8
	.cfi_register 65, 0
	stw 0,12(1)
	.loc 2 278 0
	lwz 9,0(3)
	lwz 0,152(9)
	.cfi_offset 65, 4
	mtctr 0
	bctrl
.LVL84:
	srawi 0,3,31
	subf 3,3,0
	lwz 0,12(1)
	srwi 3,3,31
	mtlr 0
	addi 1,1,8
.LCFI17:
	.cfi_def_cfa_offset 0
	blr
	.cfi_endproc
.LFE1415:
	.size	_ZNK10GuiElement10IsAnimatedEv, .-_ZNK10GuiElement10IsAnimatedEv
	.section	.text._ZN10GuiElement8IsInsideEii,"axG",@progbits,_ZN10GuiElement8IsInsideEii,comdat
	.align 2
	.weak	_ZN10GuiElement8IsInsideEii
	.type	_ZN10GuiElement8IsInsideEii, @function
_ZN10GuiElement8IsInsideEii:
.LFB1417:
	.loc 2 285 0
	.cfi_startproc
.LVL85:
	mflr 0
	stwu 1,-24(1)
.LCFI18:
	.cfi_def_cfa_offset 24
	.cfi_register 65, 0
	stw 28,8(1)
	mr 28,5
	.cfi_offset 28, -16
	stw 0,28(1)
	stw 29,12(1)
	.loc 2 290 0
	li 29,0
	.cfi_offset 29, -12
	.cfi_offset 65, 4
	.loc 2 287 0
	lwz 9,0(3)
	.loc 2 285 0
	stw 30,16(1)
	mr 30,4
	.cfi_offset 30, -8
	.loc 2 287 0
	lwz 0,16(9)
	.loc 2 285 0
	stw 31,20(1)
	.loc 2 285 0
	mr 31,3
	.cfi_offset 31, -4
	.loc 2 287 0
	mtctr 0
	bctrl
.LVL86:
	.loc 2 290 0
	cmpw 7,3,30
	blt- 7,.L66
.L62:
	.loc 2 291 0 discriminator 6
	lwz 0,28(1)
	mr 3,29
	lwz 28,8(1)
.LVL87:
	mtlr 0
	lwz 29,12(1)
	lwz 30,16(1)
.LVL88:
	lwz 31,20(1)
.LVL89:
	addi 1,1,24
	.cfi_remember_state
.LCFI19:
	.cfi_def_cfa_offset 0
	.cfi_restore 31
	.cfi_restore 30
	.cfi_restore 29
	.cfi_restore 28
	blr
.LVL90:
.L66:
.LCFI20:
	.cfi_restore_state
	.loc 2 288 0 discriminator 1
	lwz 9,0(31)
	mr 3,31
	lwz 0,16(9)
	mtctr 0
	bctrl
	.loc 2 290 0 discriminator 1
	lwz 0,36(31)
	add 0,3,0
	cmpw 7,30,0
	bge+ 7,.L62
	.loc 2 289 0 discriminator 3
	lwz 9,0(31)
	mr 3,31
	lwz 0,20(9)
	mtctr 0
	bctrl
	.loc 2 290 0 discriminator 3
	cmpw 7,3,28
	bge+ 7,.L62
	.loc 2 290 0 is_stmt 0 discriminator 4
	lwz 9,0(31)
	mr 3,31
	lwz 0,20(9)
	mtctr 0
	bctrl
	lwz 0,40(31)
	add 0,3,0
	.loc 2 285 0 is_stmt 1 discriminator 4
	cmpw 7,28,0
	mfcr 29
	rlwinm 29,29,29,1
	b .L62
	.cfi_endproc
.LFE1417:
	.size	_ZN10GuiElement8IsInsideEii, .-_ZN10GuiElement8IsInsideEii
	.section	.text._ZN10GuiElement11SetPositionEii,"axG",@progbits,_ZN10GuiElement11SetPositionEii,comdat
	.align 2
	.weak	_ZN10GuiElement11SetPositionEii
	.type	_ZN10GuiElement11SetPositionEii, @function
_ZN10GuiElement11SetPositionEii:
.LFB1418:
	.loc 2 295 0
	.cfi_startproc
.LVL91:
	.loc 2 297 0
	stw 4,44(3)
	.loc 2 299 0
	.loc 2 298 0
	stw 5,48(3)
	.loc 2 299 0
	blr
	.cfi_endproc
.LFE1418:
	.size	_ZN10GuiElement11SetPositionEii, .-_ZN10GuiElement11SetPositionEii
	.section	.text._ZN10GuiElement11SetPositionEiii,"axG",@progbits,_ZN10GuiElement11SetPositionEiii,comdat
	.align 2
	.weak	_ZN10GuiElement11SetPositionEiii
	.type	_ZN10GuiElement11SetPositionEiii, @function
_ZN10GuiElement11SetPositionEiii:
.LFB1419:
	.loc 2 304 0
	.cfi_startproc
.LVL92:
	.loc 2 306 0
	stw 4,44(3)
	.loc 2 309 0
	.loc 2 307 0
	stw 5,48(3)
	.loc 2 308 0
	stw 6,52(3)
	.loc 2 309 0
	blr
	.cfi_endproc
.LFE1419:
	.size	_ZN10GuiElement11SetPositionEiii, .-_ZN10GuiElement11SetPositionEiii
	.section	.text._ZN10GuiElement11GetSelectedEv,"axG",@progbits,_ZN10GuiElement11GetSelectedEv,comdat
	.align 2
	.weak	_ZN10GuiElement11GetSelectedEv
	.type	_ZN10GuiElement11GetSelectedEv, @function
_ZN10GuiElement11GetSelectedEv:
.LFB1420:
	.loc 2 312 0
	.cfi_startproc
.LVL93:
	.loc 2 312 0
	li 3,-1
.LVL94:
	blr
	.cfi_endproc
.LFE1420:
	.size	_ZN10GuiElement11GetSelectedEv, .-_ZN10GuiElement11GetSelectedEv
	.section	.text._ZNK10GuiElement12GetAlignmentEv,"axG",@progbits,_ZNK10GuiElement12GetAlignmentEv,comdat
	.align 2
	.weak	_ZNK10GuiElement12GetAlignmentEv
	.type	_ZNK10GuiElement12GetAlignmentEv, @function
_ZNK10GuiElement12GetAlignmentEv:
.LFB1422:
	.loc 2 318 0
	.cfi_startproc
.LVL95:
	.loc 2 318 0
	lwz 3,68(3)
.LVL96:
	blr
	.cfi_endproc
.LFE1422:
	.size	_ZNK10GuiElement12GetAlignmentEv, .-_ZNK10GuiElement12GetAlignmentEv
	.section	".text"
	.align 2
	.globl _ZN11GuiCheckbox7SetSizeEii
	.type	_ZN11GuiCheckbox7SetSizeEii, @function
_ZN11GuiCheckbox7SetSizeEii:
.LFB1604:
	.loc 3 62 0
	.cfi_startproc
.LVL97:
	mflr 0
	stwu 1,-8(1)
.LCFI21:
	.cfi_def_cfa_offset 8
	.cfi_register 65, 0
	.loc 3 72 0
	lwz 8,0(3)
	.loc 3 65 0
	addi 10,4,-4
	addi 11,5,-4
	.loc 3 63 0
	stw 4,36(3)
	.loc 3 62 0
	stw 0,12(1)
.LBB1447:
.LBB1448:
	.loc 2 297 0
	li 0,2
	.cfi_offset 65, 4
	stw 0,356(3)
	.loc 2 298 0
	stw 0,360(3)
.LBE1448:
.LBE1447:
.LBB1449:
.LBB1450:
	.loc 2 297 0
	stw 0,508(3)
	.loc 2 298 0
	stw 0,512(3)
.LBE1450:
.LBE1449:
.LBB1451:
.LBB1452:
	.loc 2 297 0
	stw 0,824(3)
	.loc 2 298 0
	stw 0,828(3)
.LBE1452:
.LBE1451:
	.loc 3 72 0
	lwz 0,180(8)
.LBB1453:
.LBB1454:
	.file 5 "d:/Projects/SaveGameManager/savegame-manager-gx/trunk/source/GUI/gui_box.hpp"
	.loc 5 39 0
	stw 4,652(3)
.LBE1454:
.LBE1453:
	.loc 3 72 0
	mtctr 0
	.loc 3 64 0
	stw 5,40(3)
.LVL98:
.LBB1456:
.LBB1457:
	.file 6 "d:/Projects/SaveGameManager/savegame-manager-gx/trunk/source/GUI/gui_checksign.hpp"
	.loc 6 36 0
	stw 10,348(3)
	stw 11,352(3)
.LVL99:
.LBE1457:
.LBE1456:
.LBB1458:
.LBB1459:
	.file 7 "d:/Projects/SaveGameManager/savegame-manager-gx/trunk/source/GUI/gui_cross.hpp"
	.loc 7 36 0
	stw 10,500(3)
	stw 11,504(3)
.LVL100:
.LBE1459:
.LBE1458:
.LBB1460:
.LBB1455:
	.loc 5 39 0
	stw 5,656(3)
.LVL101:
.LBE1455:
.LBE1460:
.LBB1461:
.LBB1462:
	stw 10,816(3)
	stw 11,820(3)
.LVL102:
.LBE1462:
.LBE1461:
	.loc 3 72 0
	lwz 4,68(3)
.LVL103:
	bctrl
.LVL104:
	.loc 3 73 0
	lwz 0,12(1)
	addi 1,1,8
.LCFI22:
	.cfi_def_cfa_offset 0
	mtlr 0
	blr
	.cfi_endproc
.LFE1604:
	.size	_ZN11GuiCheckbox7SetSizeEii, .-_ZN11GuiCheckbox7SetSizeEii
	.align 2
	.globl _ZN11GuiCheckbox12SetAlignmentEi
	.type	_ZN11GuiCheckbox12SetAlignmentEi, @function
_ZN11GuiCheckbox12SetAlignmentEi:
.LFB1608:
	.loc 3 96 0
	.cfi_startproc
.LVL105:
.LBB1463:
	.loc 3 103 0
	rlwinm 0,4,0,29,31
.LBB1464:
.LBB1465:
	.loc 2 316 0
	stw 4,68(3)
.LBE1465:
.LBE1464:
	.loc 3 106 0
	cmpwi 7,0,4
.LVL106:
.LBB1466:
.LBB1467:
	.loc 2 316 0
	stw 4,380(3)
.LVL107:
.LBE1467:
.LBE1466:
.LBB1468:
.LBB1469:
	stw 4,532(3)
.LVL108:
.LBE1469:
.LBE1468:
.LBB1470:
.LBB1471:
	stw 4,684(3)
.LVL109:
.LBE1471:
.LBE1470:
.LBB1472:
.LBB1473:
	stw 4,848(3)
.LBE1473:
.LBE1472:
	.loc 3 104 0
	rlwinm 4,4,0,25,27
.LVL110:
	.loc 3 106 0
	beq- 7,.L77
.LVL111:
	.loc 3 112 0
	cmpwi 7,0,2
	beq- 7,.L78
.LVL112:
.L74:
	.loc 3 118 0
	cmpwi 7,4,64
	beq- 7,.L79
.L75:
	.loc 3 124 0
	cmpwi 7,4,32
	bnelr+ 7
.LVL113:
.LBB1474:
.LBB1475:
	.loc 2 298 0
	li 0,0
	stw 0,360(3)
.LVL114:
.LBE1475:
.LBE1474:
.LBB1476:
.LBB1477:
	stw 0,512(3)
.LVL115:
.LBE1477:
.LBE1476:
.LBB1478:
.LBB1479:
	stw 0,828(3)
	blr
.LVL116:
.L77:
.LBE1479:
.LBE1478:
	.loc 3 118 0
	cmpwi 7,4,64
.LBB1480:
.LBB1481:
	.loc 2 297 0
	li 0,-2
.LVL117:
	stw 0,356(3)
.LVL118:
.LBE1481:
.LBE1480:
.LBB1482:
.LBB1483:
	stw 0,508(3)
.LVL119:
.LBE1483:
.LBE1482:
.LBB1484:
.LBB1485:
	stw 0,824(3)
.LBE1485:
.LBE1484:
	.loc 3 118 0
	bne+ 7,.L75
.LVL120:
.L79:
.LBB1486:
.LBB1487:
	.loc 2 298 0
	li 0,-2
	stw 0,360(3)
.LVL121:
.LBE1487:
.LBE1486:
.LBB1488:
.LBB1489:
	stw 0,512(3)
.LVL122:
.LBE1489:
.LBE1488:
.LBB1490:
.LBB1491:
	stw 0,828(3)
	blr
.LVL123:
.L78:
.LBE1491:
.LBE1490:
.LBB1492:
.LBB1493:
	.loc 2 297 0
	li 0,0
.LVL124:
	stw 0,356(3)
.LVL125:
.LBE1493:
.LBE1492:
.LBB1494:
.LBB1495:
	stw 0,508(3)
.LVL126:
.LBE1495:
.LBE1494:
.LBB1496:
.LBB1497:
	stw 0,824(3)
	b .L74
.LBE1497:
.LBE1496:
.LBE1463:
	.cfi_endproc
.LFE1608:
	.size	_ZN11GuiCheckbox12SetAlignmentEi, .-_ZN11GuiCheckbox12SetAlignmentEi
	.section	.text._ZN7sigslot12_signal_baseINS_15single_threadedEED2Ev,"axG",@progbits,_ZN7sigslot12_signal_baseINS_15single_threadedEED5Ev,comdat
	.align 2
	.weak	_ZN7sigslot12_signal_baseINS_15single_threadedEED2Ev
	.type	_ZN7sigslot12_signal_baseINS_15single_threadedEED2Ev, @function
_ZN7sigslot12_signal_baseINS_15single_threadedEED2Ev:
.LFB1639:
	.loc 1 466 0
	.cfi_startproc
.LVL127:
.LBB1498:
.LBB1499:
.LBB1500:
.LBB1501:
	.loc 1 105 0
	lis 9,_ZTVN7sigslot15single_threadedE+8@ha
.LBE1501:
.LBE1500:
.LBE1499:
.LBE1498:
	.loc 1 466 0
.LBB1505:
.LBB1504:
.LBB1503:
.LBB1502:
	.loc 1 105 0
	la 0,_ZTVN7sigslot15single_threadedE+8@l(9)
	stw 0,0(3)
.LBE1502:
.LBE1503:
.LBE1504:
.LBE1505:
	.loc 1 466 0
	blr
	.cfi_endproc
.LFE1639:
	.size	_ZN7sigslot12_signal_baseINS_15single_threadedEED2Ev, .-_ZN7sigslot12_signal_baseINS_15single_threadedEED2Ev
	.section	.text._ZN7sigslot12_signal_baseINS_15single_threadedEED0Ev,"axG",@progbits,_ZN7sigslot12_signal_baseINS_15single_threadedEED5Ev,comdat
	.align 2
	.weak	_ZN7sigslot12_signal_baseINS_15single_threadedEED0Ev
	.type	_ZN7sigslot12_signal_baseINS_15single_threadedEED0Ev, @function
_ZN7sigslot12_signal_baseINS_15single_threadedEED0Ev:
.LFB1641:
	.loc 1 466 0
	.cfi_startproc
.LVL128:
	mflr 0
	stwu 1,-8(1)
.LCFI23:
	.cfi_def_cfa_offset 8
	.cfi_register 65, 0
.LBB1506:
.LBB1507:
.LBB1508:
.LBB1509:
.LBB1510:
.LBB1511:
	.loc 1 105 0
	lis 9,_ZTVN7sigslot15single_threadedE+8@ha
.LBE1511:
.LBE1510:
.LBE1509:
.LBE1508:
.LBE1507:
.LBE1506:
	.loc 1 466 0
	stw 0,12(1)
.LBB1517:
.LBB1516:
.LBB1515:
.LBB1514:
.LBB1513:
.LBB1512:
	.loc 1 105 0
	la 0,_ZTVN7sigslot15single_threadedE+8@l(9)
	.cfi_offset 65, 4
	stw 0,0(3)
.LBE1512:
.LBE1513:
.LBE1514:
.LBE1515:
.LBE1516:
.LBE1517:
	.loc 1 466 0
	bl _ZdlPv
.LVL129:
	lwz 0,12(1)
	addi 1,1,8
.LCFI24:
	.cfi_def_cfa_offset 0
	mtlr 0
	blr
	.cfi_endproc
.LFE1641:
	.size	_ZN7sigslot12_signal_baseINS_15single_threadedEED0Ev, .-_ZN7sigslot12_signal_baseINS_15single_threadedEED0Ev
	.section	.text._ZN7sigslot15single_threadedD0Ev,"axG",@progbits,_ZN7sigslot15single_threadedD5Ev,comdat
	.align 2
	.weak	_ZN7sigslot15single_threadedD0Ev
	.type	_ZN7sigslot15single_threadedD0Ev, @function
_ZN7sigslot15single_threadedD0Ev:
.LFB1150:
	.loc 1 104 0
	.cfi_startproc
.LVL130:
	mflr 0
	stwu 1,-8(1)
.LCFI25:
	.cfi_def_cfa_offset 8
	.cfi_register 65, 0
.LBB1518:
.LBB1519:
.LBB1520:
	.loc 1 105 0
	lis 9,_ZTVN7sigslot15single_threadedE+8@ha
.LBE1520:
.LBE1519:
.LBE1518:
	.loc 1 104 0
	stw 0,12(1)
.LBB1523:
.LBB1522:
.LBB1521:
	.loc 1 105 0
	la 0,_ZTVN7sigslot15single_threadedE+8@l(9)
	.cfi_offset 65, 4
	stw 0,0(3)
.LBE1521:
.LBE1522:
.LBE1523:
	.loc 1 107 0
	bl _ZdlPv
.LVL131:
	lwz 0,12(1)
	addi 1,1,8
.LCFI26:
	.cfi_def_cfa_offset 0
	mtlr 0
	blr
	.cfi_endproc
.LFE1150:
	.size	_ZN7sigslot15single_threadedD0Ev, .-_ZN7sigslot15single_threadedD0Ev
	.section	.text._ZN7sigslot13_signal_base3IP10GuiElementiiNS_15single_threadedEE15slot_disconnectEPNS_9has_slotsIS3_EE,"axG",@progbits,_ZN7sigslot13_signal_base3IP10GuiElementiiNS_15single_threadedEE15slot_disconnectEPNS_9has_slotsIS3_EE,comdat
	.align 2
	.weak	_ZN7sigslot13_signal_base3IP10GuiElementiiNS_15single_threadedEE15slot_disconnectEPNS_9has_slotsIS3_EE
	.type	_ZN7sigslot13_signal_base3IP10GuiElementiiNS_15single_threadedEE15slot_disconnectEPNS_9has_slotsIS3_EE, @function
_ZN7sigslot13_signal_base3IP10GuiElementiiNS_15single_threadedEE15slot_disconnectEPNS_9has_slotsIS3_EE:
.LFB1852:
	.loc 1 990 0
	.cfi_startproc
	.cfi_personality 0,__gxx_personality_v0
	.cfi_lsda 0,.LLSDA1852
.LVL132:
	mflr 0
	stwu 1,-32(1)
.LCFI27:
	.cfi_def_cfa_offset 32
	.cfi_register 65, 0
	stw 27,12(1)
	mr 27,3
	.cfi_offset 27, -20
.LVL133:
	stw 0,36(1)
	stw 28,16(1)
	mr 28,4
	.cfi_offset 28, -16
	.cfi_offset 65, 4
.LBB1524:
.LBB1525:
.LBB1526:
	.loc 1 338 0
	lwz 9,0(3)
.LBE1526:
.LBE1525:
.LBE1524:
	.loc 1 990 0
	stw 29,20(1)
.LBB1547:
.LBB1529:
.LBB1527:
	.loc 3 144 0
	mr 29,27
	.cfi_offset 29, -12
	.loc 1 338 0
	lwz 0,8(9)
.LBE1527:
.LBE1529:
.LBE1547:
	.loc 1 990 0
	stw 31,28(1)
	stw 30,24(1)
.LBB1548:
.LBB1530:
.LBB1528:
	.loc 1 338 0
	mtctr 0
.LEHB4:
	.cfi_offset 30, -8
	.cfi_offset 31, -4
	bctrl
.LEHE4:
.LVL134:
	.loc 3 144 0
	lwzu 31,4(29)
.LVL135:
.LBE1528:
.LBE1530:
	.loc 1 996 0
	cmpw 7,31,29
	bne+ 7,.L102
	b .L91
.LVL136:
.L92:
	.loc 1 996 0 is_stmt 0 discriminator 1
	cmpw 7,29,30
	beq- 7,.L91
.L100:
	.loc 1 996 0
	mr 31,30
.LVL137:
.L102:
.LBB1531:
	.loc 1 1001 0 is_stmt 1
	lwz 3,8(31)
.LBB1532:
.LBB1533:
	.loc 4 154 0
	lwz 30,0(31)
.LVL138:
.LBE1533:
.LBE1532:
	.loc 1 1001 0
	lwz 9,0(3)
	lwz 0,8(9)
	mtctr 0
.LEHB5:
	bctrl
.LVL139:
	cmpw 7,28,3
	bne+ 7,.L92
.LVL140:
	.loc 1 1003 0
	lwz 3,8(31)
	cmpwi 7,3,0
	beq- 7,.L93
	.loc 1 1003 0 is_stmt 0 discriminator 1
	lwz 9,0(3)
	lwz 0,4(9)
	mtctr 0
	bctrl
.LEHE5:
.L93:
.LVL141:
.LBB1534:
.LBB1535:
.LBB1536:
.LBB1537:
	.loc 4 1532 0 is_stmt 1
	mr 3,31
	bl _ZNSt8__detail15_List_node_base9_M_unhookEv
.LVL142:
.LBB1538:
.LBB1539:
.LBB1540:
	.file 8 "d:\\devkitpro\\devkitppc\\bin\\../lib/gcc/powerpc-eabi/4.6.3/../../../../powerpc-eabi/include/c++/4.6.3/ext/new_allocator.h"
	.loc 8 98 0
	mr 3,31
	bl _ZdlPv
.LVL143:
.LBE1540:
.LBE1539:
.LBE1538:
.LBE1537:
.LBE1536:
.LBE1535:
.LBE1534:
.LBE1531:
	.loc 1 996 0
	cmpw 7,29,30
	bne+ 7,.L100
.LVL144:
.L91:
.LBB1541:
.LBB1542:
.LBB1543:
	.loc 1 343 0
	lwz 9,0(27)
	mr 3,27
	lwz 0,12(9)
	mtctr 0
.LEHB6:
	bctrl
.LEHE6:
.LBE1543:
.LBE1542:
.LBE1541:
.LBE1548:
	.loc 1 1010 0
	lwz 0,36(1)
	lwz 27,12(1)
.LVL145:
	mtlr 0
	lwz 28,16(1)
.LVL146:
	lwz 29,20(1)
.LVL147:
	lwz 30,24(1)
	lwz 31,28(1)
	addi 1,1,32
	.cfi_remember_state
.LCFI28:
	.cfi_def_cfa_offset 0
	.cfi_restore 31
	.cfi_restore 30
	.cfi_restore 29
	.cfi_restore 28
	.cfi_restore 27
	blr
.LVL148:
.L101:
.LCFI29:
	.cfi_restore_state
.LBB1549:
.LBB1544:
.LBB1545:
.LBB1546:
	.loc 1 343 0
	lwz 9,0(27)
	mr 31,3
.LVL149:
	mr 3,27
	lwz 0,12(9)
	mtctr 0
	bctrl
	mr 3,31
.LEHB7:
	bl _Unwind_Resume
.LEHE7:
.LBE1546:
.LBE1545:
.LBE1544:
.LBE1549:
	.cfi_endproc
.LFE1852:
	.section	.gcc_except_table
.LLSDA1852:
	.byte	0xff
	.byte	0xff
	.byte	0x1
	.uleb128 .LLSDACSE1852-.LLSDACSB1852
.LLSDACSB1852:
	.uleb128 .LEHB4-.LFB1852
	.uleb128 .LEHE4-.LEHB4
	.uleb128 0
	.uleb128 0
	.uleb128 .LEHB5-.LFB1852
	.uleb128 .LEHE5-.LEHB5
	.uleb128 .L101-.LFB1852
	.uleb128 0
	.uleb128 .LEHB6-.LFB1852
	.uleb128 .LEHE6-.LEHB6
	.uleb128 0
	.uleb128 0
	.uleb128 .LEHB7-.LFB1852
	.uleb128 .LEHE7-.LEHB7
	.uleb128 0
	.uleb128 0
.LLSDACSE1852:
	.section	.text._ZN7sigslot13_signal_base3IP10GuiElementiiNS_15single_threadedEE15slot_disconnectEPNS_9has_slotsIS3_EE,"axG",@progbits,_ZN7sigslot13_signal_base3IP10GuiElementiiNS_15single_threadedEE15slot_disconnectEPNS_9has_slotsIS3_EE,comdat
	.size	_ZN7sigslot13_signal_base3IP10GuiElementiiNS_15single_threadedEE15slot_disconnectEPNS_9has_slotsIS3_EE, .-_ZN7sigslot13_signal_base3IP10GuiElementiiNS_15single_threadedEE15slot_disconnectEPNS_9has_slotsIS3_EE
	.section	.text._ZN7sigslot13_signal_base2IP10GuiElementbNS_15single_threadedEE15slot_disconnectEPNS_9has_slotsIS3_EE,"axG",@progbits,_ZN7sigslot13_signal_base2IP10GuiElementbNS_15single_threadedEE15slot_disconnectEPNS_9has_slotsIS3_EE,comdat
	.align 2
	.weak	_ZN7sigslot13_signal_base2IP10GuiElementbNS_15single_threadedEE15slot_disconnectEPNS_9has_slotsIS3_EE
	.type	_ZN7sigslot13_signal_base2IP10GuiElementbNS_15single_threadedEE15slot_disconnectEPNS_9has_slotsIS3_EE, @function
_ZN7sigslot13_signal_base2IP10GuiElementbNS_15single_threadedEE15slot_disconnectEPNS_9has_slotsIS3_EE:
.LFB1854:
	.loc 1 870 0
	.cfi_startproc
	.cfi_personality 0,__gxx_personality_v0
	.cfi_lsda 0,.LLSDA1854
.LVL150:
	mflr 0
	stwu 1,-32(1)
.LCFI30:
	.cfi_def_cfa_offset 32
	.cfi_register 65, 0
	stw 27,12(1)
	mr 27,3
	.cfi_offset 27, -20
.LVL151:
	stw 0,36(1)
	stw 28,16(1)
	mr 28,4
	.cfi_offset 28, -16
	.cfi_offset 65, 4
.LBB1550:
.LBB1551:
.LBB1552:
	.loc 1 338 0
	lwz 9,0(3)
.LBE1552:
.LBE1551:
.LBE1550:
	.loc 1 870 0
	stw 29,20(1)
.LBB1573:
.LBB1555:
.LBB1553:
	.loc 3 144 0
	mr 29,27
	.cfi_offset 29, -12
	.loc 1 338 0
	lwz 0,8(9)
.LBE1553:
.LBE1555:
.LBE1573:
	.loc 1 870 0
	stw 31,28(1)
	stw 30,24(1)
.LBB1574:
.LBB1556:
.LBB1554:
	.loc 1 338 0
	mtctr 0
.LEHB8:
	.cfi_offset 30, -8
	.cfi_offset 31, -4
	bctrl
.LEHE8:
.LVL152:
	.loc 3 144 0
	lwzu 31,4(29)
.LVL153:
.LBE1554:
.LBE1556:
	.loc 1 876 0
	cmpw 7,31,29
	bne+ 7,.L115
	b .L104
.LVL154:
.L105:
	.loc 1 876 0 is_stmt 0 discriminator 1
	cmpw 7,29,30
	beq- 7,.L104
.L113:
	.loc 1 876 0
	mr 31,30
.LVL155:
.L115:
.LBB1557:
	.loc 1 881 0 is_stmt 1
	lwz 3,8(31)
.LBB1558:
.LBB1559:
	.loc 4 154 0
	lwz 30,0(31)
.LVL156:
.LBE1559:
.LBE1558:
	.loc 1 881 0
	lwz 9,0(3)
	lwz 0,8(9)
	mtctr 0
.LEHB9:
	bctrl
.LVL157:
	cmpw 7,28,3
	bne+ 7,.L105
.LVL158:
	.loc 1 883 0
	lwz 3,8(31)
	cmpwi 7,3,0
	beq- 7,.L106
	.loc 1 883 0 is_stmt 0 discriminator 1
	lwz 9,0(3)
	lwz 0,4(9)
	mtctr 0
	bctrl
.LEHE9:
.L106:
.LVL159:
.LBB1560:
.LBB1561:
.LBB1562:
.LBB1563:
	.loc 4 1532 0 is_stmt 1
	mr 3,31
	bl _ZNSt8__detail15_List_node_base9_M_unhookEv
.LVL160:
.LBB1564:
.LBB1565:
.LBB1566:
	.loc 8 98 0
	mr 3,31
	bl _ZdlPv
.LVL161:
.LBE1566:
.LBE1565:
.LBE1564:
.LBE1563:
.LBE1562:
.LBE1561:
.LBE1560:
.LBE1557:
	.loc 1 876 0
	cmpw 7,29,30
	bne+ 7,.L113
.LVL162:
.L104:
.LBB1567:
.LBB1568:
.LBB1569:
	.loc 1 343 0
	lwz 9,0(27)
	mr 3,27
	lwz 0,12(9)
	mtctr 0
.LEHB10:
	bctrl
.LEHE10:
.LBE1569:
.LBE1568:
.LBE1567:
.LBE1574:
	.loc 1 890 0
	lwz 0,36(1)
	lwz 27,12(1)
.LVL163:
	mtlr 0
	lwz 28,16(1)
.LVL164:
	lwz 29,20(1)
.LVL165:
	lwz 30,24(1)
	lwz 31,28(1)
	addi 1,1,32
	.cfi_remember_state
.LCFI31:
	.cfi_def_cfa_offset 0
	.cfi_restore 31
	.cfi_restore 30
	.cfi_restore 29
	.cfi_restore 28
	.cfi_restore 27
	blr
.LVL166:
.L114:
.LCFI32:
	.cfi_restore_state
.LBB1575:
.LBB1570:
.LBB1571:
.LBB1572:
	.loc 1 343 0
	lwz 9,0(27)
	mr 31,3
.LVL167:
	mr 3,27
	lwz 0,12(9)
	mtctr 0
	bctrl
	mr 3,31
.LEHB11:
	bl _Unwind_Resume
.LEHE11:
.LBE1572:
.LBE1571:
.LBE1570:
.LBE1575:
	.cfi_endproc
.LFE1854:
	.section	.gcc_except_table
.LLSDA1854:
	.byte	0xff
	.byte	0xff
	.byte	0x1
	.uleb128 .LLSDACSE1854-.LLSDACSB1854
.LLSDACSB1854:
	.uleb128 .LEHB8-.LFB1854
	.uleb128 .LEHE8-.LEHB8
	.uleb128 0
	.uleb128 0
	.uleb128 .LEHB9-.LFB1854
	.uleb128 .LEHE9-.LEHB9
	.uleb128 .L114-.LFB1854
	.uleb128 0
	.uleb128 .LEHB10-.LFB1854
	.uleb128 .LEHE10-.LEHB10
	.uleb128 0
	.uleb128 0
	.uleb128 .LEHB11-.LFB1854
	.uleb128 .LEHE11-.LEHB11
	.uleb128 0
	.uleb128 0
.LLSDACSE1854:
	.section	.text._ZN7sigslot13_signal_base2IP10GuiElementbNS_15single_threadedEE15slot_disconnectEPNS_9has_slotsIS3_EE,"axG",@progbits,_ZN7sigslot13_signal_base2IP10GuiElementbNS_15single_threadedEE15slot_disconnectEPNS_9has_slotsIS3_EE,comdat
	.size	_ZN7sigslot13_signal_base2IP10GuiElementbNS_15single_threadedEE15slot_disconnectEPNS_9has_slotsIS3_EE, .-_ZN7sigslot13_signal_base2IP10GuiElementbNS_15single_threadedEE15slot_disconnectEPNS_9has_slotsIS3_EE
	.section	.text._ZN7sigslot13_signal_base3IP10GuiElementiiNS_15single_threadedEE14slot_duplicateEPKNS_9has_slotsIS3_EEPS6_,"axG",@progbits,_ZN7sigslot13_signal_base3IP10GuiElementiiNS_15single_threadedEE14slot_duplicateEPKNS_9has_slotsIS3_EEPS6_,comdat
	.align 2
	.weak	_ZN7sigslot13_signal_base3IP10GuiElementiiNS_15single_threadedEE14slot_duplicateEPKNS_9has_slotsIS3_EEPS6_
	.type	_ZN7sigslot13_signal_base3IP10GuiElementiiNS_15single_threadedEE14slot_duplicateEPKNS_9has_slotsIS3_EEPS6_, @function
_ZN7sigslot13_signal_base3IP10GuiElementiiNS_15single_threadedEE14slot_duplicateEPKNS_9has_slotsIS3_EEPS6_:
.LFB1853:
	.loc 1 926 0
	.cfi_startproc
	.cfi_personality 0,__gxx_personality_v0
	.cfi_lsda 0,.LLSDA1853
.LVL168:
	mflr 0
	stwu 1,-32(1)
.LCFI33:
	.cfi_def_cfa_offset 32
	.cfi_register 65, 0
	stw 26,8(1)
	mr 26,5
	.cfi_offset 26, -24
	stw 0,36(1)
	stw 27,12(1)
	mr 27,3
	.cfi_offset 27, -20
	.cfi_offset 65, 4
.LVL169:
.LBB1576:
.LBB1577:
.LBB1578:
	.loc 1 338 0
	lwz 9,0(3)
.LBE1578:
.LBE1577:
.LBE1576:
	.loc 1 926 0
	stw 29,20(1)
	mr 29,4
	.cfi_offset 29, -12
.LBB1607:
.LBB1583:
.LBB1579:
	.loc 1 338 0
	lwz 0,8(9)
.LBE1579:
.LBE1583:
.LBE1607:
	.loc 1 926 0
	stw 30,24(1)
.LBB1608:
.LBB1584:
.LBB1580:
	.loc 3 144 0
	mr 30,27
	.cfi_offset 30, -8
.LBE1580:
.LBE1584:
.LBE1608:
	.loc 1 926 0
	stw 31,28(1)
.LBB1609:
.LBB1585:
.LBB1581:
	.loc 1 338 0
	mtctr 0
.LBE1581:
.LBE1585:
.LBE1609:
	.loc 1 926 0
	stw 28,16(1)
.LEHB12:
.LBB1610:
.LBB1586:
.LBB1582:
	.loc 1 338 0
	.cfi_offset 28, -16
	.cfi_offset 31, -4
	bctrl
.LEHE12:
.LVL170:
	.loc 3 144 0
	lwzu 31,4(30)
.LVL171:
.LBE1582:
.LBE1586:
	.loc 1 932 0
	cmpw 7,31,30
	bne+ 7,.L126
	b .L117
.LVL172:
.L118:
.LBB1587:
.LBB1588:
	.loc 4 154 0
	lwz 31,0(31)
.LVL173:
.LBE1588:
.LBE1587:
	.loc 1 932 0
	cmpw 7,30,31
	beq- 7,.L117
.LVL174:
.L126:
	.loc 1 934 0
	lwz 3,8(31)
	lwz 9,0(3)
	lwz 0,8(9)
	mtctr 0
.LEHB13:
	bctrl
	cmpw 7,29,3
	bne+ 7,.L118
.LVL175:
	.loc 1 936 0
	lwz 3,8(31)
	mr 4,26
	lwz 9,0(3)
	lwz 0,20(9)
	mtctr 0
	bctrl
	mr 28,3
.LVL176:
.LBB1590:
.LBB1591:
.LBB1592:
.LBB1593:
.LBB1594:
.LBB1595:
.LBB1596:
.LBB1597:
	.loc 8 92 0
	li 3,12
	bl _Znwj
.LEHE13:
.LVL177:
.LBE1597:
.LBE1596:
.LBE1595:
.LBB1598:
.LBB1599:
	.loc 8 108 0 discriminator 1
	cmpwi 7,3,-8
	beq- 7,.L120
	.loc 8 108 0 is_stmt 0
	stw 28,8(3)
.L120:
.LVL178:
.LBE1599:
.LBE1598:
.LBE1594:
.LBE1593:
	.loc 4 1516 0 is_stmt 1
	mr 4,30
	bl _ZNSt8__detail15_List_node_base7_M_hookEPS0_
.LVL179:
.LBE1592:
.LBE1591:
.LBE1590:
.LBB1600:
.LBB1589:
	.loc 4 154 0
	lwz 31,0(31)
.LVL180:
.LBE1589:
.LBE1600:
	.loc 1 932 0
	cmpw 7,30,31
	bne+ 7,.L126
.LVL181:
.L117:
.LBB1601:
.LBB1602:
.LBB1603:
	.loc 1 343 0
	lwz 9,0(27)
	mr 3,27
	lwz 0,12(9)
	mtctr 0
.LEHB14:
	bctrl
.LEHE14:
.LBE1603:
.LBE1602:
.LBE1601:
.LBE1610:
	.loc 1 941 0
	lwz 0,36(1)
	lwz 26,8(1)
.LVL182:
	mtlr 0
	lwz 27,12(1)
.LVL183:
	lwz 28,16(1)
	lwz 29,20(1)
.LVL184:
	lwz 30,24(1)
.LVL185:
	lwz 31,28(1)
.LVL186:
	addi 1,1,32
	.cfi_remember_state
.LCFI34:
	.cfi_def_cfa_offset 0
	.cfi_restore 31
	.cfi_restore 30
	.cfi_restore 29
	.cfi_restore 28
	.cfi_restore 27
	.cfi_restore 26
	blr
.LVL187:
.L125:
.LCFI35:
	.cfi_restore_state
.LBB1611:
.LBB1604:
.LBB1605:
.LBB1606:
	.loc 1 343 0
	lwz 9,0(27)
	mr 31,3
.LVL188:
	mr 3,27
	lwz 0,12(9)
	mtctr 0
	bctrl
	mr 3,31
.LEHB15:
	bl _Unwind_Resume
.LEHE15:
.LBE1606:
.LBE1605:
.LBE1604:
.LBE1611:
	.cfi_endproc
.LFE1853:
	.section	.gcc_except_table
.LLSDA1853:
	.byte	0xff
	.byte	0xff
	.byte	0x1
	.uleb128 .LLSDACSE1853-.LLSDACSB1853
.LLSDACSB1853:
	.uleb128 .LEHB12-.LFB1853
	.uleb128 .LEHE12-.LEHB12
	.uleb128 0
	.uleb128 0
	.uleb128 .LEHB13-.LFB1853
	.uleb128 .LEHE13-.LEHB13
	.uleb128 .L125-.LFB1853
	.uleb128 0
	.uleb128 .LEHB14-.LFB1853
	.uleb128 .LEHE14-.LEHB14
	.uleb128 0
	.uleb128 0
	.uleb128 .LEHB15-.LFB1853
	.uleb128 .LEHE15-.LEHB15
	.uleb128 0
	.uleb128 0
.LLSDACSE1853:
	.section	.text._ZN7sigslot13_signal_base3IP10GuiElementiiNS_15single_threadedEE14slot_duplicateEPKNS_9has_slotsIS3_EEPS6_,"axG",@progbits,_ZN7sigslot13_signal_base3IP10GuiElementiiNS_15single_threadedEE14slot_duplicateEPKNS_9has_slotsIS3_EEPS6_,comdat
	.size	_ZN7sigslot13_signal_base3IP10GuiElementiiNS_15single_threadedEE14slot_duplicateEPKNS_9has_slotsIS3_EEPS6_, .-_ZN7sigslot13_signal_base3IP10GuiElementiiNS_15single_threadedEE14slot_duplicateEPKNS_9has_slotsIS3_EEPS6_
	.section	.text._ZN7sigslot13_signal_base2IP10GuiElementbNS_15single_threadedEE14slot_duplicateEPKNS_9has_slotsIS3_EEPS6_,"axG",@progbits,_ZN7sigslot13_signal_base2IP10GuiElementbNS_15single_threadedEE14slot_duplicateEPKNS_9has_slotsIS3_EEPS6_,comdat
	.align 2
	.weak	_ZN7sigslot13_signal_base2IP10GuiElementbNS_15single_threadedEE14slot_duplicateEPKNS_9has_slotsIS3_EEPS6_
	.type	_ZN7sigslot13_signal_base2IP10GuiElementbNS_15single_threadedEE14slot_duplicateEPKNS_9has_slotsIS3_EEPS6_, @function
_ZN7sigslot13_signal_base2IP10GuiElementbNS_15single_threadedEE14slot_duplicateEPKNS_9has_slotsIS3_EEPS6_:
.LFB1855:
	.loc 1 806 0
	.cfi_startproc
	.cfi_personality 0,__gxx_personality_v0
	.cfi_lsda 0,.LLSDA1855
.LVL189:
	mflr 0
	stwu 1,-32(1)
.LCFI36:
	.cfi_def_cfa_offset 32
	.cfi_register 65, 0
	stw 26,8(1)
	mr 26,5
	.cfi_offset 26, -24
	stw 0,36(1)
	stw 27,12(1)
	mr 27,3
	.cfi_offset 27, -20
	.cfi_offset 65, 4
.LVL190:
.LBB1612:
.LBB1613:
.LBB1614:
	.loc 1 338 0
	lwz 9,0(3)
.LBE1614:
.LBE1613:
.LBE1612:
	.loc 1 806 0
	stw 29,20(1)
	mr 29,4
	.cfi_offset 29, -12
.LBB1643:
.LBB1619:
.LBB1615:
	.loc 1 338 0
	lwz 0,8(9)
.LBE1615:
.LBE1619:
.LBE1643:
	.loc 1 806 0
	stw 30,24(1)
.LBB1644:
.LBB1620:
.LBB1616:
	.loc 3 144 0
	mr 30,27
	.cfi_offset 30, -8
.LBE1616:
.LBE1620:
.LBE1644:
	.loc 1 806 0
	stw 31,28(1)
.LBB1645:
.LBB1621:
.LBB1617:
	.loc 1 338 0
	mtctr 0
.LBE1617:
.LBE1621:
.LBE1645:
	.loc 1 806 0
	stw 28,16(1)
.LEHB16:
.LBB1646:
.LBB1622:
.LBB1618:
	.loc 1 338 0
	.cfi_offset 28, -16
	.cfi_offset 31, -4
	bctrl
.LEHE16:
.LVL191:
	.loc 3 144 0
	lwzu 31,4(30)
.LVL192:
.LBE1618:
.LBE1622:
	.loc 1 812 0
	cmpw 7,31,30
	bne+ 7,.L138
	b .L129
.LVL193:
.L130:
.LBB1623:
.LBB1624:
	.loc 4 154 0
	lwz 31,0(31)
.LVL194:
.LBE1624:
.LBE1623:
	.loc 1 812 0
	cmpw 7,30,31
	beq- 7,.L129
.LVL195:
.L138:
	.loc 1 814 0
	lwz 3,8(31)
	lwz 9,0(3)
	lwz 0,8(9)
	mtctr 0
.LEHB17:
	bctrl
	cmpw 7,29,3
	bne+ 7,.L130
.LVL196:
	.loc 1 816 0
	lwz 3,8(31)
	mr 4,26
	lwz 9,0(3)
	lwz 0,20(9)
	mtctr 0
	bctrl
	mr 28,3
.LVL197:
.LBB1626:
.LBB1627:
.LBB1628:
.LBB1629:
.LBB1630:
.LBB1631:
.LBB1632:
.LBB1633:
	.loc 8 92 0
	li 3,12
	bl _Znwj
.LEHE17:
.LVL198:
.LBE1633:
.LBE1632:
.LBE1631:
.LBB1634:
.LBB1635:
	.loc 8 108 0 discriminator 1
	cmpwi 7,3,-8
	beq- 7,.L132
	.loc 8 108 0 is_stmt 0
	stw 28,8(3)
.L132:
.LVL199:
.LBE1635:
.LBE1634:
.LBE1630:
.LBE1629:
	.loc 4 1516 0 is_stmt 1
	mr 4,30
	bl _ZNSt8__detail15_List_node_base7_M_hookEPS0_
.LVL200:
.LBE1628:
.LBE1627:
.LBE1626:
.LBB1636:
.LBB1625:
	.loc 4 154 0
	lwz 31,0(31)
.LVL201:
.LBE1625:
.LBE1636:
	.loc 1 812 0
	cmpw 7,30,31
	bne+ 7,.L138
.LVL202:
.L129:
.LBB1637:
.LBB1638:
.LBB1639:
	.loc 1 343 0
	lwz 9,0(27)
	mr 3,27
	lwz 0,12(9)
	mtctr 0
.LEHB18:
	bctrl
.LEHE18:
.LBE1639:
.LBE1638:
.LBE1637:
.LBE1646:
	.loc 1 821 0
	lwz 0,36(1)
	lwz 26,8(1)
.LVL203:
	mtlr 0
	lwz 27,12(1)
.LVL204:
	lwz 28,16(1)
	lwz 29,20(1)
.LVL205:
	lwz 30,24(1)
.LVL206:
	lwz 31,28(1)
.LVL207:
	addi 1,1,32
	.cfi_remember_state
.LCFI37:
	.cfi_def_cfa_offset 0
	.cfi_restore 31
	.cfi_restore 30
	.cfi_restore 29
	.cfi_restore 28
	.cfi_restore 27
	.cfi_restore 26
	blr
.LVL208:
.L137:
.LCFI38:
	.cfi_restore_state
.LBB1647:
.LBB1640:
.LBB1641:
.LBB1642:
	.loc 1 343 0
	lwz 9,0(27)
	mr 31,3
.LVL209:
	mr 3,27
	lwz 0,12(9)
	mtctr 0
	bctrl
	mr 3,31
.LEHB19:
	bl _Unwind_Resume
.LEHE19:
.LBE1642:
.LBE1641:
.LBE1640:
.LBE1647:
	.cfi_endproc
.LFE1855:
	.section	.gcc_except_table
.LLSDA1855:
	.byte	0xff
	.byte	0xff
	.byte	0x1
	.uleb128 .LLSDACSE1855-.LLSDACSB1855
.LLSDACSB1855:
	.uleb128 .LEHB16-.LFB1855
	.uleb128 .LEHE16-.LEHB16
	.uleb128 0
	.uleb128 0
	.uleb128 .LEHB17-.LFB1855
	.uleb128 .LEHE17-.LEHB17
	.uleb128 .L137-.LFB1855
	.uleb128 0
	.uleb128 .LEHB18-.LFB1855
	.uleb128 .LEHE18-.LEHB18
	.uleb128 0
	.uleb128 0
	.uleb128 .LEHB19-.LFB1855
	.uleb128 .LEHE19-.LEHB19
	.uleb128 0
	.uleb128 0
.LLSDACSE1855:
	.section	.text._ZN7sigslot13_signal_base2IP10GuiElementbNS_15single_threadedEE14slot_duplicateEPKNS_9has_slotsIS3_EEPS6_,"axG",@progbits,_ZN7sigslot13_signal_base2IP10GuiElementbNS_15single_threadedEE14slot_duplicateEPKNS_9has_slotsIS3_EEPS6_,comdat
	.size	_ZN7sigslot13_signal_base2IP10GuiElementbNS_15single_threadedEE14slot_duplicateEPKNS_9has_slotsIS3_EEPS6_, .-_ZN7sigslot13_signal_base2IP10GuiElementbNS_15single_threadedEE14slot_duplicateEPKNS_9has_slotsIS3_EEPS6_
	.section	".text"
	.align 2
	.globl _ZN11GuiCheckbox8SetStateEii
	.type	_ZN11GuiCheckbox8SetStateEii, @function
_ZN11GuiCheckbox8SetStateEii:
.LFB1607:
	.loc 3 88 0
	.cfi_startproc
.LVL210:
	.loc 3 89 0
	cmpwi 7,4,2
	.loc 3 88 0
	mflr 0
	stwu 1,-8(1)
.LCFI39:
	.cfi_def_cfa_offset 8
	.cfi_register 65, 0
	stw 0,12(1)
	.loc 3 89 0
	bne+ 7,.L141
	.cfi_offset 65, 4
	.loc 3 90 0
	lbz 0,948(3)
	xori 0,0,1
	stb 0,948(3)
.L141:
	.loc 3 92 0
	bl _ZN10GuiElement8SetStateEii
.LVL211:
	.loc 3 93 0
	lwz 0,12(1)
	addi 1,1,8
.LCFI40:
	.cfi_def_cfa_offset 0
	mtlr 0
	blr
	.cfi_endproc
.LFE1607:
	.size	_ZN11GuiCheckbox8SetStateEii, .-_ZN11GuiCheckbox8SetStateEii
	.section	.text._ZN10GuiElement10ResetStateEv,"axG",@progbits,_ZN10GuiElement10ResetStateEv,comdat
	.align 2
	.weak	_ZN10GuiElement10ResetStateEv
	.type	_ZN10GuiElement10ResetStateEv, @function
_ZN10GuiElement10ResetStateEv:
.LFB1402:
	.loc 2 183 0
	.cfi_startproc
.LVL212:
	mflr 0
	stwu 1,-8(1)
.LCFI41:
	.cfi_def_cfa_offset 8
	.cfi_register 65, 0
	stw 0,12(1)
	.loc 2 185 0
	lwz 0,72(3)
	.cfi_offset 65, 4
	cmpwi 7,0,4
	beq- 7,.L142
.LVL213:
.LBB1650:
.LBB1651:
	.loc 2 186 0
	lwz 9,0(3)
	li 4,0
	li 5,-1
	lwz 0,80(9)
	mtctr 0
	bctrl
.LVL214:
.L142:
.LBE1651:
.LBE1650:
	.loc 2 187 0
	lwz 0,12(1)
	addi 1,1,8
.LCFI42:
	.cfi_def_cfa_offset 0
	mtlr 0
	blr
	.cfi_endproc
.LFE1402:
	.size	_ZN10GuiElement10ResetStateEv, .-_ZN10GuiElement10ResetStateEv
	.section	".text"
	.align 2
	.globl _ZN11GuiCheckbox4DrawEv
	.type	_ZN11GuiCheckbox4DrawEv, @function
_ZN11GuiCheckbox4DrawEv:
.LFB1609:
	.loc 3 133 0
	.cfi_startproc
.LVL215:
	stwu 1,-16(1)
.LCFI43:
	.cfi_def_cfa_offset 16
	mflr 0
	stw 31,12(1)
	mr 31,3
	.cfi_offset 31, -4
	.cfi_register 65, 0
	stw 0,20(1)
	.loc 3 134 0
	.cfi_offset 65, 4
	bl _ZN9GuiButton4DrawEv
.LVL216:
	.loc 3 135 0
	addi 3,31,616
	bl _ZN6GuiBox4DrawEv
	.loc 3 136 0
	addi 3,31,780
	bl _ZN6GuiBox4DrawEv
	.loc 3 137 0
	lbz 0,948(31)
	cmpwi 7,0,0
	beq- 7,.L144
.LVL217:
.LBB1654:
.LBB1655:
	.loc 3 139 0
	lwz 0,944(31)
	cmpwi 7,0,0
	beq- 7,.L147
	.loc 3 142 0
	addi 3,31,464
	bl _ZN8GuiCross4DrawEv
.LVL218:
.L144:
.LBE1655:
.LBE1654:
	.loc 3 144 0
	lwz 0,20(1)
	lwz 31,12(1)
.LVL219:
	mtlr 0
	addi 1,1,16
	.cfi_remember_state
.LCFI44:
	.cfi_def_cfa_offset 0
	.cfi_restore 31
	blr
.LVL220:
.L147:
.LCFI45:
	.cfi_restore_state
.LBB1657:
.LBB1656:
	.loc 3 140 0
	addi 3,31,312
	bl _ZN12GuiChecksign4DrawEv
.LBE1656:
.LBE1657:
	.loc 3 144 0
	lwz 0,20(1)
	lwz 31,12(1)
.LVL221:
	mtlr 0
	addi 1,1,16
	.cfi_restore 31
.LCFI46:
	.cfi_def_cfa_offset 0
	blr
	.cfi_endproc
.LFE1609:
	.size	_ZN11GuiCheckbox4DrawEv, .-_ZN11GuiCheckbox4DrawEv
	.align 2
	.globl _ZN11GuiCheckbox12SetClickSizeEii
	.type	_ZN11GuiCheckbox12SetClickSizeEii, @function
_ZN11GuiCheckbox12SetClickSizeEii:
.LFB1605:
	.loc 3 76 0
	.cfi_startproc
.LVL222:
	.loc 3 77 0
	stw 4,36(3)
	.loc 3 79 0
	.loc 3 78 0
	stw 5,40(3)
	.loc 3 79 0
	blr
	.cfi_endproc
.LFE1605:
	.size	_ZN11GuiCheckbox12SetClickSizeEii, .-_ZN11GuiCheckbox12SetClickSizeEii
	.align 2
	.globl _ZN11GuiCheckbox14SetTransparentEb
	.type	_ZN11GuiCheckbox14SetTransparentEb, @function
_ZN11GuiCheckbox14SetTransparentEb:
.LFB1606:
	.loc 3 82 0
	.cfi_startproc
.LVL223:
.LBB1658:
.LBB1659:
	.loc 5 40 0
	stb 4,776(3)
.LVL224:
.LBE1659:
.LBE1658:
	.loc 3 85 0
.LBB1660:
.LBB1661:
	.loc 5 40 0
	stb 4,940(3)
.LBE1661:
.LBE1660:
	.loc 3 85 0
	blr
	.cfi_endproc
.LFE1606:
	.size	_ZN11GuiCheckbox14SetTransparentEb, .-_ZN11GuiCheckbox14SetTransparentEb
	.section	.text._ZNSt8_Rb_treeIPN7sigslot12_signal_baseINS0_15single_threadedEEES4_St9_IdentityIS4_ESt4lessIS4_ESaIS4_EE8_M_eraseEPSt13_Rb_tree_nodeIS4_E,"axG",@progbits,_ZNSt8_Rb_treeIPN7sigslot12_signal_baseINS0_15single_threadedEEES4_St9_IdentityIS4_ESt4lessIS4_ESaIS4_EE8_M_eraseEPSt13_Rb_tree_nodeIS4_E,comdat
	.align 2
	.weak	_ZNSt8_Rb_treeIPN7sigslot12_signal_baseINS0_15single_threadedEEES4_St9_IdentityIS4_ESt4lessIS4_ESaIS4_EE8_M_eraseEPSt13_Rb_tree_nodeIS4_E
	.type	_ZNSt8_Rb_treeIPN7sigslot12_signal_baseINS0_15single_threadedEEES4_St9_IdentityIS4_ESt4lessIS4_ESaIS4_EE8_M_eraseEPSt13_Rb_tree_nodeIS4_E, @function
_ZNSt8_Rb_treeIPN7sigslot12_signal_baseINS0_15single_threadedEEES4_St9_IdentityIS4_ESt4lessIS4_ESaIS4_EE8_M_eraseEPSt13_Rb_tree_nodeIS4_E:
.LFB1814:
	.file 9 "d:\\devkitpro\\devkitppc\\bin\\../lib/gcc/powerpc-eabi/4.6.3/../../../../powerpc-eabi/include/c++/4.6.3/bits/stl_tree.h"
	.loc 9 1068 0
	.cfi_startproc
.LVL225:
	stwu 1,-56(1)
.LCFI47:
	.cfi_def_cfa_offset 56
	mflr 0
	stw 22,16(1)
.LBB1778:
	.loc 9 1072 0
	mr. 22,4
	.cfi_offset 22, -40
	.cfi_register 65, 0
.LBE1778:
	.loc 9 1068 0
	stw 30,48(1)
	mr 30,3
	.cfi_offset 30, -8
	stw 0,60(1)
	stw 21,12(1)
	stw 23,20(1)
	stw 24,24(1)
	stw 25,28(1)
	stw 26,32(1)
	stw 27,36(1)
	stw 28,40(1)
	stw 29,44(1)
	stw 31,52(1)
.LBB1863:
	.loc 9 1072 0
	beq- 0,.L150
	.cfi_offset 31, -4
	.cfi_offset 29, -12
	.cfi_offset 28, -16
	.cfi_offset 27, -20
	.cfi_offset 26, -24
	.cfi_offset 25, -28
	.cfi_offset 24, -32
	.cfi_offset 23, -36
	.cfi_offset 21, -44
	.cfi_offset 65, 4
.LVL226:
.L196:
	.loc 3 144 0
	lwz 27,12(22)
.LVL227:
.LBB1779:
.LBB1780:
.LBB1781:
	.loc 9 1072 0
	cmpwi 7,27,0
	beq- 7,.L152
.LVL228:
.L197:
.LBE1781:
	.loc 3 144 0
	lwz 26,12(27)
.LVL229:
.LBB1857:
.LBB1782:
.LBB1783:
.LBB1784:
	.loc 9 1072 0
	cmpwi 7,26,0
	beq- 7,.L153
.LVL230:
.L198:
.LBE1784:
	.loc 3 144 0
	lwz 25,12(26)
.LVL231:
.LBB1850:
.LBB1785:
.LBB1786:
.LBB1787:
	.loc 9 1072 0
	cmpwi 7,25,0
	beq- 7,.L154
.LVL232:
.L199:
.LBE1787:
	.loc 3 144 0
	lwz 24,12(25)
.LVL233:
.LBB1843:
.LBB1788:
.LBB1789:
.LBB1790:
	.loc 9 1072 0
	cmpwi 7,24,0
	beq- 7,.L155
.LVL234:
.L200:
.LBE1790:
	.loc 3 144 0
	lwz 23,12(24)
.LVL235:
.LBB1836:
.LBB1791:
.LBB1792:
.LBB1793:
	.loc 9 1072 0
	cmpwi 7,23,0
	beq- 7,.L156
.LVL236:
.L201:
.LBE1793:
	.loc 3 144 0
	lwz 28,12(23)
.LVL237:
.LBB1829:
.LBB1794:
.LBB1795:
.LBB1796:
	.loc 9 1072 0
	cmpwi 7,28,0
	beq- 7,.L157
.LVL238:
.L202:
.LBE1796:
	.loc 3 144 0
	lwz 29,12(28)
.LVL239:
.LBB1822:
.LBB1797:
.LBB1798:
.LBB1799:
	.loc 9 1072 0
	cmpwi 7,29,0
	beq- 7,.L158
.LVL240:
.L203:
.LBE1799:
	.loc 3 144 0
	lwz 31,12(29)
.LVL241:
.LBB1815:
.LBB1800:
.LBB1801:
.LBB1802:
	.loc 9 1072 0
	cmpwi 7,31,0
	beq- 7,.L159
.LVL242:
.L204:
.LBB1803:
	.loc 9 1074 0
	lwz 4,12(31)
	mr 3,30
	bl _ZNSt8_Rb_treeIPN7sigslot12_signal_baseINS0_15single_threadedEEES4_St9_IdentityIS4_ESt4lessIS4_ESaIS4_EE8_M_eraseEPSt13_Rb_tree_nodeIS4_E
.LBE1803:
.LBE1802:
	.loc 3 144 0
	lwz 21,8(31)
.LVL243:
.LBB1809:
.LBB1808:
.LBB1804:
.LBB1805:
.LBB1806:
.LBB1807:
	.loc 8 98 0
	mr 3,31
	bl _ZdlPv
.LVL244:
.LBE1807:
.LBE1806:
.LBE1805:
.LBE1804:
.LBE1808:
	.loc 9 1072 0
	cmpwi 7,21,0
	.loc 9 1077 0
	mr 31,21
.LVL245:
	.loc 9 1072 0
	bne+ 7,.L204
.LVL246:
.L159:
.LBE1809:
.LBE1801:
.LBE1800:
.LBE1815:
	.loc 3 144 0
	lwz 31,8(29)
.LVL247:
.LBB1816:
.LBB1814:
.LBB1810:
.LBB1811:
.LBB1812:
.LBB1813:
	.loc 8 98 0
	mr 3,29
	bl _ZdlPv
.LVL248:
.LBE1813:
.LBE1812:
.LBE1811:
.LBE1810:
.LBE1814:
	.loc 9 1072 0
	cmpwi 7,31,0
	beq- 7,.L158
	.loc 9 1077 0
	mr 29,31
.LVL249:
	b .L203
.LVL250:
.L158:
.LBE1816:
.LBE1798:
.LBE1797:
.LBE1822:
	.loc 3 144 0
	lwz 31,8(28)
.LVL251:
.LBB1823:
.LBB1821:
.LBB1817:
.LBB1818:
.LBB1819:
.LBB1820:
	.loc 8 98 0
	mr 3,28
	bl _ZdlPv
.LVL252:
.LBE1820:
.LBE1819:
.LBE1818:
.LBE1817:
.LBE1821:
	.loc 9 1072 0
	cmpwi 7,31,0
	beq- 7,.L157
	.loc 9 1077 0
	mr 28,31
.LVL253:
	b .L202
.LVL254:
.L157:
.LBE1823:
.LBE1795:
.LBE1794:
.LBE1829:
	.loc 3 144 0
	lwz 31,8(23)
.LVL255:
.LBB1830:
.LBB1828:
.LBB1824:
.LBB1825:
.LBB1826:
.LBB1827:
	.loc 8 98 0
	mr 3,23
	bl _ZdlPv
.LVL256:
.LBE1827:
.LBE1826:
.LBE1825:
.LBE1824:
.LBE1828:
	.loc 9 1072 0
	cmpwi 7,31,0
	beq- 7,.L156
	.loc 9 1077 0
	mr 23,31
.LVL257:
	b .L201
.LVL258:
.L156:
.LBE1830:
.LBE1792:
.LBE1791:
.LBE1836:
	.loc 3 144 0
	lwz 31,8(24)
.LVL259:
.LBB1837:
.LBB1835:
.LBB1831:
.LBB1832:
.LBB1833:
.LBB1834:
	.loc 8 98 0
	mr 3,24
	bl _ZdlPv
.LVL260:
.LBE1834:
.LBE1833:
.LBE1832:
.LBE1831:
.LBE1835:
	.loc 9 1072 0
	cmpwi 7,31,0
	beq- 7,.L155
	.loc 9 1077 0
	mr 24,31
.LVL261:
	b .L200
.LVL262:
.L155:
.LBE1837:
.LBE1789:
.LBE1788:
.LBE1843:
	.loc 3 144 0
	lwz 31,8(25)
.LVL263:
.LBB1844:
.LBB1842:
.LBB1838:
.LBB1839:
.LBB1840:
.LBB1841:
	.loc 8 98 0
	mr 3,25
	bl _ZdlPv
.LVL264:
.LBE1841:
.LBE1840:
.LBE1839:
.LBE1838:
.LBE1842:
	.loc 9 1072 0
	cmpwi 7,31,0
	beq- 7,.L154
	.loc 9 1077 0
	mr 25,31
.LVL265:
	b .L199
.LVL266:
.L154:
.LBE1844:
.LBE1786:
.LBE1785:
.LBE1850:
	.loc 3 144 0
	lwz 31,8(26)
.LVL267:
.LBB1851:
.LBB1849:
.LBB1845:
.LBB1846:
.LBB1847:
.LBB1848:
	.loc 8 98 0
	mr 3,26
	bl _ZdlPv
.LVL268:
.LBE1848:
.LBE1847:
.LBE1846:
.LBE1845:
.LBE1849:
	.loc 9 1072 0
	cmpwi 7,31,0
	beq- 7,.L153
	.loc 9 1077 0
	mr 26,31
.LVL269:
	b .L198
.LVL270:
.L153:
.LBE1851:
.LBE1783:
.LBE1782:
.LBE1857:
	.loc 3 144 0
	lwz 31,8(27)
.LVL271:
.LBB1858:
.LBB1856:
.LBB1852:
.LBB1853:
.LBB1854:
.LBB1855:
	.loc 8 98 0
	mr 3,27
	bl _ZdlPv
.LVL272:
.LBE1855:
.LBE1854:
.LBE1853:
.LBE1852:
.LBE1856:
	.loc 9 1072 0
	cmpwi 7,31,0
	beq- 7,.L152
	.loc 9 1077 0
	mr 27,31
.LVL273:
	b .L197
.LVL274:
.L152:
	.loc 3 144 0
	lwz 31,8(22)
.LVL275:
.LBE1858:
.LBE1780:
.LBB1859:
.LBB1860:
.LBB1861:
.LBB1862:
	.loc 8 98 0
	mr 3,22
	bl _ZdlPv
.LVL276:
.LBE1862:
.LBE1861:
.LBE1860:
.LBE1859:
.LBE1779:
	.loc 9 1072 0
	cmpwi 7,31,0
	beq- 7,.L150
	.loc 9 1077 0
	mr 22,31
.LVL277:
	b .L196
.LVL278:
.L150:
.LBE1863:
	.loc 9 1079 0
	lwz 0,60(1)
	lwz 21,12(1)
	mtlr 0
	lwz 22,16(1)
	lwz 23,20(1)
	lwz 24,24(1)
	lwz 25,28(1)
	lwz 26,32(1)
	lwz 27,36(1)
	lwz 28,40(1)
	lwz 29,44(1)
	lwz 30,48(1)
.LVL279:
	lwz 31,52(1)
	addi 1,1,56
.LCFI48:
	.cfi_def_cfa_offset 0
	.cfi_restore 31
	.cfi_restore 30
	.cfi_restore 29
	.cfi_restore 28
	.cfi_restore 27
	.cfi_restore 26
	.cfi_restore 25
	.cfi_restore 24
	.cfi_restore 23
	.cfi_restore 22
	.cfi_restore 21
	blr
	.cfi_endproc
.LFE1814:
	.size	_ZNSt8_Rb_treeIPN7sigslot12_signal_baseINS0_15single_threadedEEES4_St9_IdentityIS4_ESt4lessIS4_ESaIS4_EE8_M_eraseEPSt13_Rb_tree_nodeIS4_E, .-_ZNSt8_Rb_treeIPN7sigslot12_signal_baseINS0_15single_threadedEEES4_St9_IdentityIS4_ESt4lessIS4_ESaIS4_EE8_M_eraseEPSt13_Rb_tree_nodeIS4_E
	.section	.text._ZNSt8_Rb_treeIPN7sigslot12_signal_baseINS0_15single_threadedEEES4_St9_IdentityIS4_ESt4lessIS4_ESaIS4_EE5eraseERKS4_,"axG",@progbits,_ZNSt8_Rb_treeIPN7sigslot12_signal_baseINS0_15single_threadedEEES4_St9_IdentityIS4_ESt4lessIS4_ESaIS4_EE5eraseERKS4_,comdat
	.align 2
	.weak	_ZNSt8_Rb_treeIPN7sigslot12_signal_baseINS0_15single_threadedEEES4_St9_IdentityIS4_ESt4lessIS4_ESaIS4_EE5eraseERKS4_
	.type	_ZNSt8_Rb_treeIPN7sigslot12_signal_baseINS0_15single_threadedEEES4_St9_IdentityIS4_ESt4lessIS4_ESaIS4_EE5eraseERKS4_, @function
_ZNSt8_Rb_treeIPN7sigslot12_signal_baseINS0_15single_threadedEEES4_St9_IdentityIS4_ESt4lessIS4_ESaIS4_EE5eraseERKS4_:
.LFB1758:
	.loc 9 1510 0
	.cfi_startproc
.LVL280:
	mflr 0
	stwu 1,-32(1)
.LCFI49:
	.cfi_def_cfa_offset 32
	.cfi_register 65, 0
	stw 28,16(1)
.LBB1864:
.LBB1865:
	.loc 9 1155 0
	addi 28,3,4
	.cfi_offset 28, -16
.LBE1865:
.LBE1864:
	.loc 9 1510 0
	stw 0,36(1)
	stw 26,8(1)
.LBB1921:
.LBB1886:
.LBB1866:
	.loc 9 1155 0
	mr 26,28
	.cfi_offset 26, -24
	.cfi_offset 65, 4
.LBE1866:
	.loc 3 144 0
	lwz 0,8(3)
.LBE1886:
.LBE1921:
	.loc 9 1510 0
	stw 29,20(1)
.LBB1922:
.LBB1887:
.LBB1879:
	.loc 9 1155 0
	mr 29,28
	.cfi_offset 29, -12
	.loc 9 1156 0
	cmpwi 7,0,0
.LBE1879:
.LBE1887:
.LBE1922:
	.loc 9 1510 0
	stw 30,24(1)
	stw 27,12(1)
	mr 30,3
	.cfi_offset 27, -20
	.cfi_offset 30, -8
.LVL281:
	stw 31,28(1)
.LBB1923:
.LBB1888:
.LBB1880:
	.loc 9 1156 0
	beq- 7,.L206
	.cfi_offset 31, -4
.LVL282:
	lwz 11,0(4)
	mr 26,0
	b .L217
.LVL283:
.L236:
.LBE1880:
	.loc 3 144 0
	lwz 26,12(26)
.LVL284:
.LBB1881:
	.loc 9 1156 0
	cmpwi 7,26,0
	beq- 7,.L235
.L217:
.LVL285:
.LBE1881:
	.loc 3 144 0
	lwz 9,16(26)
.LBB1882:
.LBB1867:
	.loc 9 1158 0
	cmplw 7,9,11
	blt- 7,.L236
.LVL286:
.LBB1868:
	.loc 9 1160 0
	ble- 7,.L209
.LVL287:
.LBE1868:
.LBE1867:
.LBE1882:
	.loc 3 144 0
	mr 29,26
	.loc 9 1161 0
	lwz 26,8(26)
.LVL288:
.LBB1883:
	.loc 9 1156 0
	cmpwi 7,26,0
	bne+ 7,.L217
.LVL289:
.L235:
	mr 26,29
.LVL290:
.L206:
.LBE1883:
.LBE1888:
.LBB1889:
.LBB1890:
	.loc 3 144 0
	lwz 9,12(30)
.LBE1890:
.LBE1889:
.LBB1917:
.LBB1884:
	lwz 27,20(30)
.LVL291:
.LBE1884:
.LBE1917:
.LBB1918:
.LBB1915:
.LBB1891:
	.loc 9 1500 0
	cmpw 7,9,26
	beq- 7,.L218
.L222:
.LVL292:
	.loc 9 1503 0
	cmpw 7,26,29
	beq- 7,.L237
.LVL293:
.L233:
.LBB1892:
.LBB1893:
	.loc 9 277 0
	mr 3,26
	bl _ZSt18_Rb_tree_incrementPKSt18_Rb_tree_node_base
.LBE1893:
.LBE1892:
.LBB1895:
.LBB1896:
.LBB1897:
	.loc 9 1489 0
	mr 4,28
.LBE1897:
.LBE1896:
.LBE1895:
.LBB1908:
.LBB1894:
	.loc 9 277 0
	mr 31,3
.LVL294:
.LBE1894:
.LBE1908:
.LBB1909:
.LBB1905:
.LBB1902:
	.loc 9 1489 0
	mr 3,26
.LVL295:
	bl _ZSt28_Rb_tree_rebalance_for_erasePSt18_Rb_tree_node_baseRS_
.LBE1902:
.LBE1905:
.LBE1909:
	.loc 9 277 0
	mr 26,31
.LVL296:
.LBB1910:
.LBB1906:
.LBB1903:
.LBB1898:
.LBB1899:
.LBB1900:
.LBB1901:
	.loc 8 98 0
	bl _ZdlPv
.LBE1901:
.LBE1900:
.LBE1899:
.LBE1898:
.LBE1903:
.LBE1906:
.LBE1910:
	.loc 9 1503 0
	cmpw 7,31,29
.LBB1911:
.LBB1907:
.LBB1904:
	.loc 9 1491 0
	lwz 9,20(30)
	addi 0,9,-1
	stw 0,20(30)
.LBE1904:
.LBE1907:
.LBE1911:
	.loc 9 1503 0
	bne+ 7,.L233
	subf 27,0,27
.LVL297:
.L220:
.LBE1891:
.LBE1915:
.LBE1918:
.LBE1923:
	.loc 9 1517 0
	lwz 0,36(1)
	mr 3,27
	lwz 26,8(1)
	mtlr 0
	lwz 27,12(1)
	lwz 28,16(1)
	lwz 29,20(1)
.LVL298:
	lwz 30,24(1)
.LVL299:
	lwz 31,28(1)
	addi 1,1,32
	.cfi_remember_state
.LCFI50:
	.cfi_def_cfa_offset 0
	.cfi_restore 31
	.cfi_restore 30
	.cfi_restore 29
	.cfi_restore 28
	.cfi_restore 27
	.cfi_restore 26
	blr
.LVL300:
.L209:
.LCFI51:
	.cfi_restore_state
.LBB1924:
.LBB1919:
	.loc 3 144 0
	lwz 10,8(26)
.LVL301:
	lwz 9,12(26)
.LVL302:
.L234:
.LBB1885:
.LBB1878:
.LBB1877:
.LBB1869:
.LBB1870:
.LBB1871:
	.loc 9 1089 0
	cmpwi 7,10,0
	beq- 7,.L210
.L238:
.LVL303:
	.loc 9 1090 0
	lwz 8,16(10)
	cmplw 7,8,11
	blt- 7,.L211
.LVL304:
.LBE1871:
	.loc 3 144 0
	mr 26,10
	.loc 9 1091 0
	lwz 10,8(10)
.LVL305:
.LBB1872:
	.loc 9 1089 0
	cmpwi 7,10,0
	bne+ 7,.L238
.LVL306:
.L210:
.LBE1872:
.LBE1870:
.LBB1873:
.LBB1874:
	.loc 9 1121 0
	cmpwi 7,9,0
	beq- 7,.L206
.LVL307:
	.loc 9 1122 0
	lwz 10,16(9)
	cmplw 7,10,11
	ble- 7,.L214
.LVL308:
.L239:
.LBE1874:
	.loc 3 144 0
	mr 29,9
	.loc 9 1123 0
	lwz 9,8(9)
.LVL309:
.LBB1875:
	.loc 9 1121 0
	cmpwi 7,9,0
	beq- 7,.L206
.LVL310:
	.loc 9 1122 0
	lwz 10,16(9)
	cmplw 7,10,11
	bgt- 7,.L239
.LVL311:
.L214:
.LBE1875:
	.loc 3 144 0
	lwz 9,12(9)
.LVL312:
	b .L210
.LVL313:
.L211:
.LBE1873:
.LBB1876:
	lwz 10,12(10)
.LVL314:
	b .L234
.LVL315:
.L218:
.LBE1876:
.LBE1869:
.LBE1877:
.LBE1878:
.LBE1885:
.LBE1919:
.LBB1920:
.LBB1916:
.LBB1914:
	.loc 9 1500 0
	cmpw 7,28,29
	bne+ 7,.L222
.LVL316:
.LBB1912:
.LBB1913:
	.loc 9 809 0
	mr 4,0
.LVL317:
	mr 3,30
.LVL318:
	bl _ZNSt8_Rb_treeIPN7sigslot12_signal_baseINS0_15single_threadedEEES4_St9_IdentityIS4_ESt4lessIS4_ESaIS4_EE8_M_eraseEPSt13_Rb_tree_nodeIS4_E
.LVL319:
	.loc 9 811 0
	li 0,0
	.loc 9 810 0
	stw 28,12(30)
.LVL320:
	.loc 9 811 0
	stw 0,8(30)
.LVL321:
	.loc 9 812 0
	stw 28,16(30)
	.loc 9 813 0
	stw 0,20(30)
	b .L220
.LVL322:
.L237:
.LBE1913:
.LBE1912:
	.loc 9 1503 0
	li 27,0
	b .L220
.LBE1914:
.LBE1916:
.LBE1920:
.LBE1924:
	.cfi_endproc
.LFE1758:
	.size	_ZNSt8_Rb_treeIPN7sigslot12_signal_baseINS0_15single_threadedEEES4_St9_IdentityIS4_ESt4lessIS4_ESaIS4_EE5eraseERKS4_, .-_ZNSt8_Rb_treeIPN7sigslot12_signal_baseINS0_15single_threadedEEES4_St9_IdentityIS4_ESt4lessIS4_ESaIS4_EE5eraseERKS4_
	.section	.text._ZN7sigslot13_signal_base3IP10GuiElementiiNS_15single_threadedEED0Ev,"axG",@progbits,_ZN7sigslot13_signal_base3IP10GuiElementiiNS_15single_threadedEED5Ev,comdat
	.align 2
	.weak	_ZN7sigslot13_signal_base3IP10GuiElementiiNS_15single_threadedEED0Ev
	.type	_ZN7sigslot13_signal_base3IP10GuiElementiiNS_15single_threadedEED0Ev, @function
_ZN7sigslot13_signal_base3IP10GuiElementiiNS_15single_threadedEED0Ev:
.LFB1654:
	.loc 1 943 0
	.cfi_startproc
	.cfi_personality 0,__gxx_personality_v0
	.cfi_lsda 0,.LLSDA1654
.LVL323:
	mflr 0
	stwu 1,-40(1)
.LCFI52:
	.cfi_def_cfa_offset 40
	.cfi_register 65, 0
.LBB2020:
.LBB2021:
.LBB2022:
	.loc 1 946 0
	lis 9,_ZTVN7sigslot13_signal_base3IP10GuiElementiiNS_15single_threadedEEE+8@ha
.LBE2022:
.LBE2021:
.LBE2020:
	.loc 1 943 0
	stw 28,24(1)
	mr 28,3
	.cfi_offset 28, -16
.LVL324:
	stw 0,44(1)
.LBB2107:
.LBB2103:
.LBB2099:
	.loc 1 946 0
	la 0,_ZTVN7sigslot13_signal_base3IP10GuiElementiiNS_15single_threadedEEE+8@l(9)
	.cfi_offset 65, 4
.LBE2099:
.LBE2103:
.LBE2107:
	.loc 1 943 0
	stw 29,28(1)
	addi 29,3,4
	.cfi_offset 29, -12
	stw 30,32(1)
	stw 31,36(1)
.LBB2108:
.LBB2104:
.LBB2100:
	.loc 1 946 0
	stw 0,0(3)
.LVL325:
.LEHB20:
.LBB2023:
.LBB2024:
.LBB2025:
.LBB2026:
	.loc 1 338 0
	.cfi_offset 31, -4
	.cfi_offset 30, -8
	bl _ZN7sigslot15single_threaded4lockEv
.LEHE20:
.LVL326:
.LBE2026:
.LBE2025:
.LBE2024:
	.loc 3 144 0
	mr 29,28
	lwzu 31,4(29)
.LVL327:
.LBB2057:
	.loc 1 954 0
	cmpw 7,31,29
	beq- 7,.L241
.LVL328:
.L279:
	.loc 1 956 0
	lwz 3,8(31)
	lwz 9,0(3)
	lwz 0,8(9)
	mtctr 0
.LEHB21:
	bctrl
.LBB2027:
.LBB2028:
.LBB2029:
.LBB2030:
	.loc 1 338 0
	lwz 9,0(3)
.LBE2030:
.LBE2029:
.LBE2028:
.LBE2027:
	.loc 1 956 0
	mr 30,3
.LVL329:
	stw 28,8(1)
.LVL330:
.LBB2039:
.LBB2038:
.LBB2032:
.LBB2031:
	.loc 1 338 0
	lwz 0,8(9)
	mtctr 0
	bctrl
.LVL331:
.LBE2031:
.LBE2032:
.LBB2033:
.LBB2034:
	.file 10 "d:\\devkitpro\\devkitppc\\bin\\../lib/gcc/powerpc-eabi/4.6.3/../../../../powerpc-eabi/include/c++/4.6.3/bits/stl_set.h"
	.loc 10 528 0
	addi 3,30,4
	addi 4,1,8
	bl _ZNSt8_Rb_treeIPN7sigslot12_signal_baseINS0_15single_threadedEEES4_St9_IdentityIS4_ESt4lessIS4_ESaIS4_EE5eraseERKS4_
.LVL332:
.LBE2034:
.LBE2033:
.LBB2035:
.LBB2036:
.LBB2037:
	.loc 1 343 0
	lwz 9,0(30)
	mr 3,30
	lwz 0,12(9)
	mtctr 0
	bctrl
.LVL333:
.LBE2037:
.LBE2036:
.LBE2035:
.LBE2038:
.LBE2039:
	.loc 1 957 0
	lwz 3,8(31)
	cmpwi 7,3,0
	beq- 7,.L243
	lwz 9,0(3)
	lwz 0,4(9)
	mtctr 0
	bctrl
.LEHE21:
.L243:
.LVL334:
.LBB2040:
.LBB2041:
	.loc 4 234 0
	lwz 31,0(31)
.LVL335:
.LBE2041:
.LBE2040:
	.loc 1 954 0
	cmpw 7,29,31
	bne+ 7,.L279
.LBE2057:
	.loc 3 144 0
	lwz 31,4(28)
.LVL336:
.LBB2058:
.LBB2042:
.LBB2043:
	.loc 4 1162 0
	cmpw 7,29,31
	bne+ 7,.L281
	b .L241
.LVL337:
.L274:
	.loc 4 1163 0
	mr 31,30
.LVL338:
.L281:
.LBB2044:
.LBB2045:
	.file 11 "d:\\devkitpro\\devkitppc\\bin\\../lib/gcc/powerpc-eabi/4.6.3/../../../../powerpc-eabi/include/c++/4.6.3/bits/list.tcc"
	.loc 11 112 0
	lwz 30,0(31)
.LVL339:
.LBB2046:
.LBB2047:
	.loc 4 1532 0
	mr 3,31
	bl _ZNSt8__detail15_List_node_base9_M_unhookEv
.LVL340:
.LBB2048:
.LBB2049:
.LBB2050:
	.loc 8 98 0
	mr 3,31
	bl _ZdlPv
.LVL341:
.LBE2050:
.LBE2049:
.LBE2048:
.LBE2047:
.LBE2046:
.LBE2045:
.LBE2044:
	.loc 4 1162 0
	cmpw 7,29,30
	bne+ 7,.L274
.LVL342:
.L241:
.LBE2043:
.LBE2042:
.LBB2051:
.LBB2052:
.LBB2053:
	.loc 1 343 0
	lwz 9,0(28)
	mr 3,28
	lwz 0,12(9)
	mtctr 0
.LEHB22:
	bctrl
.LEHE22:
.LVL343:
.LBE2053:
.LBE2052:
.LBE2051:
.LBE2058:
.LBE2023:
.LBB2060:
.LBB2061:
.LBB2062:
.LBB2063:
.LBB2064:
.LBB2065:
	.loc 11 70 0
	lwz 3,4(28)
.LVL344:
	.loc 11 71 0
	cmpw 7,3,29
	bne+ 7,.L283
	b .L259
.LVL345:
.L275:
	.loc 11 74 0
	mr 3,31
.LVL346:
.L283:
.LBB2066:
	lwz 31,0(3)
.LVL347:
.LBB2067:
.LBB2068:
.LBB2069:
	.loc 8 98 0
	bl _ZdlPv
.LVL348:
.LBE2069:
.LBE2068:
.LBE2067:
.LBE2066:
	.loc 11 71 0
	cmpw 7,31,29
	bne+ 7,.L275
.LVL349:
.L259:
.LBE2065:
.LBE2064:
.LBE2063:
.LBE2062:
.LBE2061:
.LBE2060:
.LBB2070:
.LBB2071:
.LBB2072:
.LBB2073:
.LBB2074:
.LBB2075:
	.loc 1 105 0
	lis 9,_ZTVN7sigslot15single_threadedE+8@ha
.LBE2075:
.LBE2074:
.LBE2073:
.LBE2072:
.LBE2071:
.LBE2070:
.LBE2100:
.LBE2104:
.LBE2108:
	.loc 1 946 0
	mr 3,28
.LBB2109:
.LBB2105:
.LBB2101:
.LBB2081:
.LBB2080:
.LBB2079:
.LBB2078:
.LBB2077:
.LBB2076:
	.loc 1 105 0
	la 0,_ZTVN7sigslot15single_threadedE+8@l(9)
	stw 0,0(28)
.LBE2076:
.LBE2077:
.LBE2078:
.LBE2079:
.LBE2080:
.LBE2081:
.LBE2101:
.LBE2105:
.LBE2109:
	.loc 1 946 0
	bl _ZdlPv
	lwz 0,44(1)
	lwz 28,24(1)
.LVL350:
	mtlr 0
	lwz 29,28(1)
.LVL351:
	lwz 30,32(1)
	lwz 31,36(1)
	addi 1,1,40
	.cfi_remember_state
.LCFI53:
	.cfi_def_cfa_offset 0
	.cfi_restore 31
	.cfi_restore 30
	.cfi_restore 29
	.cfi_restore 28
	blr
.LVL352:
.L277:
.LCFI54:
	.cfi_restore_state
	mr 31,3
.L251:
.LVL353:
.LBB2110:
.LBB2106:
.LBB2102:
.LBB2082:
.LBB2083:
.LBB2084:
.LBB2085:
.LBB2086:
.LBB2087:
	.loc 11 70 0
	lwz 3,4(28)
.LVL354:
	.loc 11 71 0
	cmpw 7,3,29
	beq- 7,.L268
.LVL355:
.L284:
.LBB2088:
	.loc 11 74 0
	lwz 30,0(3)
.LVL356:
.LBB2089:
.LBB2090:
.LBB2091:
	.loc 8 98 0
	bl _ZdlPv
.LVL357:
.LBE2091:
.LBE2090:
.LBE2089:
.LBE2088:
	.loc 11 71 0
	cmpw 7,30,29
	beq- 7,.L268
	.loc 11 74 0
	mr 3,30
	b .L284
.LVL358:
.L278:
.LBE2087:
.LBE2086:
.LBE2085:
.LBE2084:
.LBE2083:
.LBE2082:
.LBB2092:
.LBB2059:
.LBB2054:
.LBB2055:
.LBB2056:
	.loc 1 343 0
	lwz 9,0(28)
	mr 31,3
.LVL359:
	mr 3,28
	lwz 0,12(9)
	mtctr 0
	bctrl
	b .L251
.LVL360:
.L268:
.LBE2056:
.LBE2055:
.LBE2054:
.LBE2059:
.LBE2092:
.LBB2093:
.LBB2094:
.LBB2095:
.LBB2096:
.LBB2097:
.LBB2098:
	.loc 1 105 0
	lis 9,_ZTVN7sigslot15single_threadedE+8@ha
	mr 3,31
	la 0,_ZTVN7sigslot15single_threadedE+8@l(9)
	stw 0,0(28)
.LEHB23:
	bl _Unwind_Resume
.LEHE23:
.LBE2098:
.LBE2097:
.LBE2096:
.LBE2095:
.LBE2094:
.LBE2093:
.LBE2102:
.LBE2106:
.LBE2110:
	.cfi_endproc
.LFE1654:
	.section	.gcc_except_table
.LLSDA1654:
	.byte	0xff
	.byte	0xff
	.byte	0x1
	.uleb128 .LLSDACSE1654-.LLSDACSB1654
.LLSDACSB1654:
	.uleb128 .LEHB20-.LFB1654
	.uleb128 .LEHE20-.LEHB20
	.uleb128 .L277-.LFB1654
	.uleb128 0
	.uleb128 .LEHB21-.LFB1654
	.uleb128 .LEHE21-.LEHB21
	.uleb128 .L278-.LFB1654
	.uleb128 0
	.uleb128 .LEHB22-.LFB1654
	.uleb128 .LEHE22-.LEHB22
	.uleb128 .L277-.LFB1654
	.uleb128 0
	.uleb128 .LEHB23-.LFB1654
	.uleb128 .LEHE23-.LEHB23
	.uleb128 0
	.uleb128 0
.LLSDACSE1654:
	.section	.text._ZN7sigslot13_signal_base3IP10GuiElementiiNS_15single_threadedEED0Ev,"axG",@progbits,_ZN7sigslot13_signal_base3IP10GuiElementiiNS_15single_threadedEED5Ev,comdat
	.size	_ZN7sigslot13_signal_base3IP10GuiElementiiNS_15single_threadedEED0Ev, .-_ZN7sigslot13_signal_base3IP10GuiElementiiNS_15single_threadedEED0Ev
	.section	.text._ZN7sigslot7signal2IP10GuiElementbNS_15single_threadedEED2Ev,"axG",@progbits,_ZN7sigslot7signal2IP10GuiElementbNS_15single_threadedEED5Ev,comdat
	.align 2
	.weak	_ZN7sigslot7signal2IP10GuiElementbNS_15single_threadedEED2Ev
	.type	_ZN7sigslot7signal2IP10GuiElementbNS_15single_threadedEED2Ev, @function
_ZN7sigslot7signal2IP10GuiElementbNS_15single_threadedEED2Ev:
.LFB1615:
	.loc 1 2235 0
	.cfi_startproc
	.cfi_personality 0,__gxx_personality_v0
	.cfi_lsda 0,.LLSDA1615
.LVL361:
	mflr 0
	stwu 1,-40(1)
.LCFI55:
	.cfi_def_cfa_offset 40
	.cfi_register 65, 0
.LBB2208:
.LBB2209:
.LBB2210:
.LBB2211:
	.loc 1 826 0
	lis 9,_ZTVN7sigslot13_signal_base2IP10GuiElementbNS_15single_threadedEEE+8@ha
.LBE2211:
.LBE2210:
.LBE2209:
.LBE2208:
	.loc 1 2235 0
	stw 28,24(1)
	mr 28,3
	.cfi_offset 28, -16
.LVL362:
	stw 0,44(1)
.LBB2309:
.LBB2304:
.LBB2299:
.LBB2294:
	.loc 1 826 0
	la 0,_ZTVN7sigslot13_signal_base2IP10GuiElementbNS_15single_threadedEEE+8@l(9)
	.cfi_offset 65, 4
.LBE2294:
.LBE2299:
.LBE2304:
.LBE2309:
	.loc 1 2235 0
	stw 29,28(1)
	addi 29,3,4
	.cfi_offset 29, -12
	stw 30,32(1)
	stw 31,36(1)
.LBB2310:
.LBB2305:
.LBB2300:
.LBB2295:
	.loc 1 826 0
	stw 0,0(3)
.LVL363:
.LEHB24:
.LBB2212:
.LBB2213:
.LBB2214:
.LBB2215:
	.loc 1 338 0
	.cfi_offset 31, -4
	.cfi_offset 30, -8
	bl _ZN7sigslot15single_threaded4lockEv
.LEHE24:
.LVL364:
.LBE2215:
.LBE2214:
.LBE2213:
	.loc 3 144 0
	mr 29,28
	lwzu 31,4(29)
.LVL365:
.LBB2246:
	.loc 1 834 0
	cmpw 7,31,29
	beq- 7,.L286
.LVL366:
.L324:
	.loc 1 836 0
	lwz 3,8(31)
	lwz 9,0(3)
	lwz 0,8(9)
	mtctr 0
.LEHB25:
	bctrl
.LBB2216:
.LBB2217:
.LBB2218:
.LBB2219:
	.loc 1 338 0
	lwz 9,0(3)
.LBE2219:
.LBE2218:
.LBE2217:
.LBE2216:
	.loc 1 836 0
	mr 30,3
.LVL367:
	stw 28,8(1)
.LVL368:
.LBB2228:
.LBB2227:
.LBB2221:
.LBB2220:
	.loc 1 338 0
	lwz 0,8(9)
	mtctr 0
	bctrl
.LVL369:
.LBE2220:
.LBE2221:
.LBB2222:
.LBB2223:
	.loc 10 528 0
	addi 3,30,4
	addi 4,1,8
	bl _ZNSt8_Rb_treeIPN7sigslot12_signal_baseINS0_15single_threadedEEES4_St9_IdentityIS4_ESt4lessIS4_ESaIS4_EE5eraseERKS4_
.LVL370:
.LBE2223:
.LBE2222:
.LBB2224:
.LBB2225:
.LBB2226:
	.loc 1 343 0
	lwz 9,0(30)
	mr 3,30
	lwz 0,12(9)
	mtctr 0
	bctrl
.LVL371:
.LBE2226:
.LBE2225:
.LBE2224:
.LBE2227:
.LBE2228:
	.loc 1 837 0
	lwz 3,8(31)
	cmpwi 7,3,0
	beq- 7,.L288
	lwz 9,0(3)
	lwz 0,4(9)
	mtctr 0
	bctrl
.LEHE25:
.L288:
.LVL372:
.LBB2229:
.LBB2230:
	.loc 4 234 0
	lwz 31,0(31)
.LVL373:
.LBE2230:
.LBE2229:
	.loc 1 834 0
	cmpw 7,29,31
	bne+ 7,.L324
.LBE2246:
	.loc 3 144 0
	lwz 31,4(28)
.LVL374:
.LBB2247:
.LBB2231:
.LBB2232:
	.loc 4 1162 0
	cmpw 7,29,31
	bne+ 7,.L326
	b .L286
.LVL375:
.L319:
	.loc 4 1163 0
	mr 31,30
.LVL376:
.L326:
.LBB2233:
.LBB2234:
	.loc 11 112 0
	lwz 30,0(31)
.LVL377:
.LBB2235:
.LBB2236:
	.loc 4 1532 0
	mr 3,31
	bl _ZNSt8__detail15_List_node_base9_M_unhookEv
.LVL378:
.LBB2237:
.LBB2238:
.LBB2239:
	.loc 8 98 0
	mr 3,31
	bl _ZdlPv
.LVL379:
.LBE2239:
.LBE2238:
.LBE2237:
.LBE2236:
.LBE2235:
.LBE2234:
.LBE2233:
	.loc 4 1162 0
	cmpw 7,29,30
	bne+ 7,.L319
.LVL380:
.L286:
.LBE2232:
.LBE2231:
.LBB2240:
.LBB2241:
.LBB2242:
	.loc 1 343 0
	lwz 9,0(28)
	mr 3,28
	lwz 0,12(9)
	mtctr 0
.LEHB26:
	bctrl
.LEHE26:
.LBE2242:
.LBE2241:
.LBE2240:
.LBE2247:
.LBE2212:
.LBB2249:
.LBB2250:
.LBB2251:
.LBB2252:
.LBB2253:
.LBB2254:
	.loc 11 70 0
	lwz 3,4(28)
.LVL381:
	.loc 11 71 0
	cmpw 7,3,29
	bne+ 7,.L328
	b .L304
.LVL382:
.L320:
	.loc 11 74 0
	mr 3,31
.LVL383:
.L328:
.LBB2255:
	lwz 31,0(3)
.LVL384:
.LBB2256:
.LBB2257:
.LBB2258:
	.loc 8 98 0
	bl _ZdlPv
.LVL385:
.LBE2258:
.LBE2257:
.LBE2256:
.LBE2255:
	.loc 11 71 0
	cmpw 7,31,29
	bne+ 7,.L320
.LVL386:
.L304:
.LBE2254:
.LBE2253:
.LBE2252:
.LBE2251:
.LBE2250:
.LBE2249:
.LBB2259:
.LBB2260:
.LBB2261:
.LBB2262:
.LBB2263:
.LBB2264:
	.loc 1 105 0
	lis 9,_ZTVN7sigslot15single_threadedE+8@ha
.LBE2264:
.LBE2263:
.LBE2262:
.LBE2261:
.LBE2260:
.LBE2259:
.LBE2295:
.LBE2300:
.LBE2305:
.LBE2310:
	.loc 1 2238 0
	lwz 29,28(1)
.LVL387:
.LBB2311:
.LBB2306:
.LBB2301:
.LBB2296:
.LBB2275:
.LBB2273:
.LBB2271:
.LBB2269:
.LBB2267:
.LBB2265:
	.loc 1 105 0
	la 0,_ZTVN7sigslot15single_threadedE+8@l(9)
.LBE2265:
.LBE2267:
.LBE2269:
.LBE2271:
.LBE2273:
.LBE2275:
.LBE2296:
.LBE2301:
.LBE2306:
.LBE2311:
	.loc 1 2238 0
	lwz 30,32(1)
.LBB2312:
.LBB2307:
.LBB2302:
.LBB2297:
.LBB2276:
.LBB2274:
.LBB2272:
.LBB2270:
.LBB2268:
.LBB2266:
	.loc 1 105 0
	stw 0,0(28)
.LBE2266:
.LBE2268:
.LBE2270:
.LBE2272:
.LBE2274:
.LBE2276:
.LBE2297:
.LBE2302:
.LBE2307:
.LBE2312:
	.loc 1 2238 0
	lwz 0,44(1)
	lwz 28,24(1)
.LVL388:
	mtlr 0
	lwz 31,36(1)
	addi 1,1,40
	.cfi_remember_state
.LCFI56:
	.cfi_def_cfa_offset 0
	.cfi_restore 31
	.cfi_restore 30
	.cfi_restore 29
	.cfi_restore 28
	blr
.LVL389:
.L322:
.LCFI57:
	.cfi_restore_state
	mr 31,3
.L296:
.LBB2313:
.LBB2308:
.LBB2303:
.LBB2298:
.LBB2277:
.LBB2278:
.LBB2279:
.LBB2280:
.LBB2281:
.LBB2282:
	.loc 11 70 0
	lwz 3,4(28)
.LVL390:
	.loc 11 71 0
	cmpw 7,3,29
	beq- 7,.L313
.LVL391:
.L329:
.LBB2283:
	.loc 11 74 0
	lwz 30,0(3)
.LVL392:
.LBB2284:
.LBB2285:
.LBB2286:
	.loc 8 98 0
	bl _ZdlPv
.LVL393:
.LBE2286:
.LBE2285:
.LBE2284:
.LBE2283:
	.loc 11 71 0
	cmpw 7,30,29
	beq- 7,.L313
	.loc 11 74 0
	mr 3,30
	b .L329
.LVL394:
.L323:
.LBE2282:
.LBE2281:
.LBE2280:
.LBE2279:
.LBE2278:
.LBE2277:
.LBB2287:
.LBB2248:
.LBB2243:
.LBB2244:
.LBB2245:
	.loc 1 343 0
	lwz 9,0(28)
	mr 31,3
.LVL395:
	mr 3,28
	lwz 0,12(9)
	mtctr 0
	bctrl
	b .L296
.LVL396:
.L313:
.LBE2245:
.LBE2244:
.LBE2243:
.LBE2248:
.LBE2287:
.LBB2288:
.LBB2289:
.LBB2290:
.LBB2291:
.LBB2292:
.LBB2293:
	.loc 1 105 0
	lis 9,_ZTVN7sigslot15single_threadedE+8@ha
	mr 3,31
	la 0,_ZTVN7sigslot15single_threadedE+8@l(9)
	stw 0,0(28)
.LEHB27:
	bl _Unwind_Resume
.LEHE27:
.LBE2293:
.LBE2292:
.LBE2291:
.LBE2290:
.LBE2289:
.LBE2288:
.LBE2298:
.LBE2303:
.LBE2308:
.LBE2313:
	.cfi_endproc
.LFE1615:
	.section	.gcc_except_table
.LLSDA1615:
	.byte	0xff
	.byte	0xff
	.byte	0x1
	.uleb128 .LLSDACSE1615-.LLSDACSB1615
.LLSDACSB1615:
	.uleb128 .LEHB24-.LFB1615
	.uleb128 .LEHE24-.LEHB24
	.uleb128 .L322-.LFB1615
	.uleb128 0
	.uleb128 .LEHB25-.LFB1615
	.uleb128 .LEHE25-.LEHB25
	.uleb128 .L323-.LFB1615
	.uleb128 0
	.uleb128 .LEHB26-.LFB1615
	.uleb128 .LEHE26-.LEHB26
	.uleb128 .L322-.LFB1615
	.uleb128 0
	.uleb128 .LEHB27-.LFB1615
	.uleb128 .LEHE27-.LEHB27
	.uleb128 0
	.uleb128 0
.LLSDACSE1615:
	.section	.text._ZN7sigslot7signal2IP10GuiElementbNS_15single_threadedEED2Ev,"axG",@progbits,_ZN7sigslot7signal2IP10GuiElementbNS_15single_threadedEED5Ev,comdat
	.size	_ZN7sigslot7signal2IP10GuiElementbNS_15single_threadedEED2Ev, .-_ZN7sigslot7signal2IP10GuiElementbNS_15single_threadedEED2Ev
	.section	.text._ZN7sigslot13_signal_base2IP10GuiElementbNS_15single_threadedEED2Ev,"axG",@progbits,_ZN7sigslot13_signal_base2IP10GuiElementbNS_15single_threadedEED5Ev,comdat
	.align 2
	.weak	_ZN7sigslot13_signal_base2IP10GuiElementbNS_15single_threadedEED2Ev
	.type	_ZN7sigslot13_signal_base2IP10GuiElementbNS_15single_threadedEED2Ev, @function
_ZN7sigslot13_signal_base2IP10GuiElementbNS_15single_threadedEED2Ev:
.LFB1645:
	.loc 1 823 0
	.cfi_startproc
	.cfi_personality 0,__gxx_personality_v0
	.cfi_lsda 0,.LLSDA1645
.LVL397:
	mflr 0
	stwu 1,-40(1)
.LCFI58:
	.cfi_def_cfa_offset 40
	.cfi_register 65, 0
.LBB2460:
	.loc 1 826 0
	lis 9,_ZTVN7sigslot13_signal_base2IP10GuiElementbNS_15single_threadedEEE+8@ha
.LBE2460:
	.loc 1 823 0
	stw 28,24(1)
	mr 28,3
	.cfi_offset 28, -16
	stw 0,44(1)
.LBB2543:
	.loc 1 826 0
	la 0,_ZTVN7sigslot13_signal_base2IP10GuiElementbNS_15single_threadedEEE+8@l(9)
	.cfi_offset 65, 4
.LBE2543:
	.loc 1 823 0
	stw 29,28(1)
	addi 29,3,4
	.cfi_offset 29, -12
	stw 30,32(1)
	stw 31,36(1)
.LBB2544:
	.loc 1 826 0
	stw 0,0(3)
.LVL398:
.LEHB28:
.LBB2461:
.LBB2462:
.LBB2463:
.LBB2464:
	.loc 1 338 0
	.cfi_offset 31, -4
	.cfi_offset 30, -8
	bl _ZN7sigslot15single_threaded4lockEv
.LEHE28:
.LVL399:
.LBE2464:
.LBE2463:
.LBE2462:
	.loc 3 144 0
	mr 29,28
	lwzu 31,4(29)
.LVL400:
.LBB2495:
	.loc 1 834 0
	cmpw 7,31,29
	beq- 7,.L331
.LVL401:
.L368:
	.loc 1 836 0
	lwz 3,8(31)
	lwz 9,0(3)
	lwz 0,8(9)
	mtctr 0
.LEHB29:
	bctrl
.LBB2465:
.LBB2466:
.LBB2467:
.LBB2468:
	.loc 1 338 0
	lwz 9,0(3)
.LBE2468:
.LBE2467:
.LBE2466:
.LBE2465:
	.loc 1 836 0
	mr 30,3
.LVL402:
	stw 28,8(1)
.LVL403:
.LBB2477:
.LBB2476:
.LBB2470:
.LBB2469:
	.loc 1 338 0
	lwz 0,8(9)
	mtctr 0
	bctrl
.LVL404:
.LBE2469:
.LBE2470:
.LBB2471:
.LBB2472:
	.loc 10 528 0
	addi 3,30,4
	addi 4,1,8
	bl _ZNSt8_Rb_treeIPN7sigslot12_signal_baseINS0_15single_threadedEEES4_St9_IdentityIS4_ESt4lessIS4_ESaIS4_EE5eraseERKS4_
.LVL405:
.LBE2472:
.LBE2471:
.LBB2473:
.LBB2474:
.LBB2475:
	.loc 1 343 0
	lwz 9,0(30)
	mr 3,30
	lwz 0,12(9)
	mtctr 0
	bctrl
.LVL406:
.LBE2475:
.LBE2474:
.LBE2473:
.LBE2476:
.LBE2477:
	.loc 1 837 0
	lwz 3,8(31)
	cmpwi 7,3,0
	beq- 7,.L333
	lwz 9,0(3)
	lwz 0,4(9)
	mtctr 0
	bctrl
.LEHE29:
.L333:
.LVL407:
.LBB2478:
.LBB2479:
	.loc 4 234 0
	lwz 31,0(31)
.LVL408:
.LBE2479:
.LBE2478:
	.loc 1 834 0
	cmpw 7,29,31
	bne+ 7,.L368
.LBE2495:
	.loc 3 144 0
	lwz 31,4(28)
.LVL409:
.LBB2496:
.LBB2480:
.LBB2481:
	.loc 4 1162 0
	cmpw 7,29,31
	bne+ 7,.L370
	b .L331
.LVL410:
.L363:
	.loc 4 1163 0
	mr 31,30
.LVL411:
.L370:
.LBB2482:
.LBB2483:
	.loc 11 112 0
	lwz 30,0(31)
.LVL412:
.LBB2484:
.LBB2485:
	.loc 4 1532 0
	mr 3,31
	bl _ZNSt8__detail15_List_node_base9_M_unhookEv
.LVL413:
.LBB2486:
.LBB2487:
.LBB2488:
	.loc 8 98 0
	mr 3,31
	bl _ZdlPv
.LVL414:
.LBE2488:
.LBE2487:
.LBE2486:
.LBE2485:
.LBE2484:
.LBE2483:
.LBE2482:
	.loc 4 1162 0
	cmpw 7,29,30
	bne+ 7,.L363
.LVL415:
.L331:
.LBE2481:
.LBE2480:
.LBB2489:
.LBB2490:
.LBB2491:
	.loc 1 343 0
	lwz 9,0(28)
	mr 3,28
	lwz 0,12(9)
	mtctr 0
.LEHB30:
	bctrl
.LEHE30:
.LVL416:
.LBE2491:
.LBE2490:
.LBE2489:
.LBE2496:
.LBE2461:
.LBB2498:
.LBB2499:
.LBB2500:
.LBB2501:
.LBB2502:
.LBB2503:
	.loc 11 70 0
	lwz 3,4(28)
.LVL417:
	.loc 11 71 0
	cmpw 7,3,29
	bne+ 7,.L372
	b .L349
.LVL418:
.L364:
	.loc 11 74 0
	mr 3,31
.LVL419:
.L372:
.LBB2504:
	lwz 31,0(3)
.LVL420:
.LBB2505:
.LBB2506:
.LBB2507:
	.loc 8 98 0
	bl _ZdlPv
.LVL421:
.LBE2507:
.LBE2506:
.LBE2505:
.LBE2504:
	.loc 11 71 0
	cmpw 7,31,29
	bne+ 7,.L364
.LVL422:
.L349:
.LBE2503:
.LBE2502:
.LBE2501:
.LBE2500:
.LBE2499:
.LBE2498:
.LBB2508:
.LBB2509:
.LBB2510:
.LBB2511:
.LBB2512:
.LBB2513:
	.loc 1 105 0
	lis 9,_ZTVN7sigslot15single_threadedE+8@ha
.LBE2513:
.LBE2512:
.LBE2511:
.LBE2510:
.LBE2509:
.LBE2508:
.LBE2544:
	.loc 1 826 0
	lwz 29,28(1)
.LVL423:
.LBB2545:
.LBB2524:
.LBB2522:
.LBB2520:
.LBB2518:
.LBB2516:
.LBB2514:
	.loc 1 105 0
	la 0,_ZTVN7sigslot15single_threadedE+8@l(9)
.LBE2514:
.LBE2516:
.LBE2518:
.LBE2520:
.LBE2522:
.LBE2524:
.LBE2545:
	.loc 1 826 0
	lwz 30,32(1)
.LBB2546:
.LBB2525:
.LBB2523:
.LBB2521:
.LBB2519:
.LBB2517:
.LBB2515:
	.loc 1 105 0
	stw 0,0(28)
.LBE2515:
.LBE2517:
.LBE2519:
.LBE2521:
.LBE2523:
.LBE2525:
.LBE2546:
	.loc 1 826 0
	lwz 0,44(1)
	lwz 28,24(1)
.LVL424:
	mtlr 0
	lwz 31,36(1)
	addi 1,1,40
	.cfi_remember_state
.LCFI59:
	.cfi_def_cfa_offset 0
	.cfi_restore 31
	.cfi_restore 30
	.cfi_restore 29
	.cfi_restore 28
	blr
.LVL425:
.L366:
.LCFI60:
	.cfi_restore_state
	mr 31,3
.L341:
.LVL426:
.LBB2547:
.LBB2526:
.LBB2527:
.LBB2528:
.LBB2529:
.LBB2530:
.LBB2531:
	.loc 11 70 0
	lwz 3,4(28)
.LVL427:
	.loc 11 71 0
	cmpw 7,3,29
	beq- 7,.L360
.LVL428:
.L373:
.LBB2532:
	.loc 11 74 0
	lwz 30,0(3)
.LVL429:
.LBB2533:
.LBB2534:
.LBB2535:
	.loc 8 98 0
	bl _ZdlPv
.LVL430:
.LBE2535:
.LBE2534:
.LBE2533:
.LBE2532:
	.loc 11 71 0
	cmpw 7,30,29
	beq- 7,.L360
	.loc 11 74 0
	mr 3,30
	b .L373
.LVL431:
.L367:
.LBE2531:
.LBE2530:
.LBE2529:
.LBE2528:
.LBE2527:
.LBE2526:
.LBB2536:
.LBB2497:
.LBB2492:
.LBB2493:
.LBB2494:
	.loc 1 343 0
	lwz 9,0(28)
	mr 31,3
.LVL432:
	mr 3,28
	lwz 0,12(9)
	mtctr 0
	bctrl
	b .L341
.LVL433:
.L360:
.LBE2494:
.LBE2493:
.LBE2492:
.LBE2497:
.LBE2536:
.LBB2537:
.LBB2538:
.LBB2539:
.LBB2540:
.LBB2541:
.LBB2542:
	.loc 1 105 0
	lis 9,_ZTVN7sigslot15single_threadedE+8@ha
	mr 3,31
	la 0,_ZTVN7sigslot15single_threadedE+8@l(9)
	stw 0,0(28)
.LEHB31:
	bl _Unwind_Resume
.LEHE31:
.LBE2542:
.LBE2541:
.LBE2540:
.LBE2539:
.LBE2538:
.LBE2537:
.LBE2547:
	.cfi_endproc
.LFE1645:
	.section	.gcc_except_table
.LLSDA1645:
	.byte	0xff
	.byte	0xff
	.byte	0x1
	.uleb128 .LLSDACSE1645-.LLSDACSB1645
.LLSDACSB1645:
	.uleb128 .LEHB28-.LFB1645
	.uleb128 .LEHE28-.LEHB28
	.uleb128 .L366-.LFB1645
	.uleb128 0
	.uleb128 .LEHB29-.LFB1645
	.uleb128 .LEHE29-.LEHB29
	.uleb128 .L367-.LFB1645
	.uleb128 0
	.uleb128 .LEHB30-.LFB1645
	.uleb128 .LEHE30-.LEHB30
	.uleb128 .L366-.LFB1645
	.uleb128 0
	.uleb128 .LEHB31-.LFB1645
	.uleb128 .LEHE31-.LEHB31
	.uleb128 0
	.uleb128 0
.LLSDACSE1645:
	.section	.text._ZN7sigslot13_signal_base2IP10GuiElementbNS_15single_threadedEED2Ev,"axG",@progbits,_ZN7sigslot13_signal_base2IP10GuiElementbNS_15single_threadedEED5Ev,comdat
	.size	_ZN7sigslot13_signal_base2IP10GuiElementbNS_15single_threadedEED2Ev, .-_ZN7sigslot13_signal_base2IP10GuiElementbNS_15single_threadedEED2Ev
	.section	.text._ZN7sigslot7signal2IP10GuiElementbNS_15single_threadedEED0Ev,"axG",@progbits,_ZN7sigslot7signal2IP10GuiElementbNS_15single_threadedEED5Ev,comdat
	.align 2
	.weak	_ZN7sigslot7signal2IP10GuiElementbNS_15single_threadedEED0Ev
	.type	_ZN7sigslot7signal2IP10GuiElementbNS_15single_threadedEED0Ev, @function
_ZN7sigslot7signal2IP10GuiElementbNS_15single_threadedEED0Ev:
.LFB1617:
	.loc 1 2235 0
	.cfi_startproc
	.cfi_personality 0,__gxx_personality_v0
	.cfi_lsda 0,.LLSDA1617
.LVL434:
	mflr 0
	stwu 1,-40(1)
.LCFI61:
	.cfi_def_cfa_offset 40
	.cfi_register 65, 0
.LBB2646:
.LBB2647:
.LBB2648:
.LBB2649:
.LBB2650:
.LBB2651:
	.loc 1 826 0
	lis 9,_ZTVN7sigslot13_signal_base2IP10GuiElementbNS_15single_threadedEEE+8@ha
.LBE2651:
.LBE2650:
.LBE2649:
.LBE2648:
.LBE2647:
.LBE2646:
	.loc 1 2235 0
	stw 28,24(1)
	mr 28,3
	.cfi_offset 28, -16
.LVL435:
	stw 0,44(1)
.LBB2748:
.LBB2744:
.LBB2740:
.LBB2736:
.LBB2732:
.LBB2728:
	.loc 1 826 0
	la 0,_ZTVN7sigslot13_signal_base2IP10GuiElementbNS_15single_threadedEEE+8@l(9)
	.cfi_offset 65, 4
.LBE2728:
.LBE2732:
.LBE2736:
.LBE2740:
.LBE2744:
.LBE2748:
	.loc 1 2235 0
	stw 29,28(1)
	addi 29,3,4
	.cfi_offset 29, -12
	stw 30,32(1)
	stw 31,36(1)
.LBB2749:
.LBB2745:
.LBB2741:
.LBB2737:
.LBB2733:
.LBB2729:
	.loc 1 826 0
	stw 0,0(3)
.LVL436:
.LEHB32:
.LBB2652:
.LBB2653:
.LBB2654:
.LBB2655:
	.loc 1 338 0
	.cfi_offset 31, -4
	.cfi_offset 30, -8
	bl _ZN7sigslot15single_threaded4lockEv
.LEHE32:
.LVL437:
.LBE2655:
.LBE2654:
.LBE2653:
	.loc 3 144 0
	mr 29,28
.LVL438:
	lwzu 31,4(29)
.LVL439:
.LBB2686:
	.loc 1 834 0
	cmpw 7,31,29
	beq- 7,.L375
.LVL440:
.L414:
	.loc 1 836 0
	lwz 3,8(31)
	lwz 9,0(3)
	lwz 0,8(9)
	mtctr 0
.LEHB33:
	bctrl
.LBB2656:
.LBB2657:
.LBB2658:
.LBB2659:
	.loc 1 338 0
	lwz 9,0(3)
.LBE2659:
.LBE2658:
.LBE2657:
.LBE2656:
	.loc 1 836 0
	mr 30,3
.LVL441:
	stw 28,8(1)
.LVL442:
.LBB2668:
.LBB2667:
.LBB2661:
.LBB2660:
	.loc 1 338 0
	lwz 0,8(9)
	mtctr 0
	bctrl
.LVL443:
.LBE2660:
.LBE2661:
.LBB2662:
.LBB2663:
	.loc 10 528 0
	addi 3,30,4
	addi 4,1,8
	bl _ZNSt8_Rb_treeIPN7sigslot12_signal_baseINS0_15single_threadedEEES4_St9_IdentityIS4_ESt4lessIS4_ESaIS4_EE5eraseERKS4_
.LVL444:
.LBE2663:
.LBE2662:
.LBB2664:
.LBB2665:
.LBB2666:
	.loc 1 343 0
	lwz 9,0(30)
	mr 3,30
	lwz 0,12(9)
	mtctr 0
	bctrl
.LVL445:
.LBE2666:
.LBE2665:
.LBE2664:
.LBE2667:
.LBE2668:
	.loc 1 837 0
	lwz 3,8(31)
	cmpwi 7,3,0
	beq- 7,.L377
	lwz 9,0(3)
	lwz 0,4(9)
	mtctr 0
	bctrl
.LEHE33:
.L377:
.LVL446:
.LBB2669:
.LBB2670:
	.loc 4 234 0
	lwz 31,0(31)
.LVL447:
.LBE2670:
.LBE2669:
	.loc 1 834 0
	cmpw 7,29,31
	bne+ 7,.L414
.LBE2686:
	.loc 3 144 0
	lwz 31,4(28)
.LVL448:
.LBB2687:
.LBB2671:
.LBB2672:
	.loc 4 1162 0
	cmpw 7,29,31
	bne+ 7,.L416
	b .L375
.LVL449:
.L409:
	.loc 4 1163 0
	mr 31,30
.LVL450:
.L416:
.LBB2673:
.LBB2674:
	.loc 11 112 0
	lwz 30,0(31)
.LVL451:
.LBB2675:
.LBB2676:
	.loc 4 1532 0
	mr 3,31
	bl _ZNSt8__detail15_List_node_base9_M_unhookEv
.LVL452:
.LBB2677:
.LBB2678:
.LBB2679:
	.loc 8 98 0
	mr 3,31
	bl _ZdlPv
.LVL453:
.LBE2679:
.LBE2678:
.LBE2677:
.LBE2676:
.LBE2675:
.LBE2674:
.LBE2673:
	.loc 4 1162 0
	cmpw 7,29,30
	bne+ 7,.L409
.LVL454:
.L375:
.LBE2672:
.LBE2671:
.LBB2680:
.LBB2681:
.LBB2682:
	.loc 1 343 0
	lwz 9,0(28)
	mr 3,28
	lwz 0,12(9)
	mtctr 0
.LEHB34:
	bctrl
.LEHE34:
.LBE2682:
.LBE2681:
.LBE2680:
.LBE2687:
.LBE2652:
.LBB2689:
.LBB2690:
.LBB2691:
.LBB2692:
.LBB2693:
.LBB2694:
	.loc 11 70 0
	lwz 3,4(28)
.LVL455:
	.loc 11 71 0
	cmpw 7,3,29
	bne+ 7,.L418
	b .L393
.LVL456:
.L410:
	.loc 11 74 0
	mr 3,31
.LVL457:
.L418:
.LBB2695:
	lwz 31,0(3)
.LVL458:
.LBB2696:
.LBB2697:
.LBB2698:
	.loc 8 98 0
	bl _ZdlPv
.LVL459:
.LBE2698:
.LBE2697:
.LBE2696:
.LBE2695:
	.loc 11 71 0
	cmpw 7,31,29
	bne+ 7,.L410
.LVL460:
.L393:
.LBE2694:
.LBE2693:
.LBE2692:
.LBE2691:
.LBE2690:
.LBE2689:
.LBB2699:
.LBB2700:
.LBB2701:
.LBB2702:
.LBB2703:
.LBB2704:
	.loc 1 105 0
	lis 9,_ZTVN7sigslot15single_threadedE+8@ha
.LBE2704:
.LBE2703:
.LBE2702:
.LBE2701:
.LBE2700:
.LBE2699:
.LBE2729:
.LBE2733:
.LBE2737:
.LBE2741:
.LBE2745:
.LBE2749:
	.loc 1 2238 0
	mr 3,28
.LBB2750:
.LBB2746:
.LBB2742:
.LBB2738:
.LBB2734:
.LBB2730:
.LBB2710:
.LBB2709:
.LBB2708:
.LBB2707:
.LBB2706:
.LBB2705:
	.loc 1 105 0
	la 0,_ZTVN7sigslot15single_threadedE+8@l(9)
	stw 0,0(28)
.LBE2705:
.LBE2706:
.LBE2707:
.LBE2708:
.LBE2709:
.LBE2710:
.LBE2730:
.LBE2734:
.LBE2738:
.LBE2742:
.LBE2746:
.LBE2750:
	.loc 1 2238 0
	bl _ZdlPv
	lwz 0,44(1)
	lwz 28,24(1)
.LVL461:
	mtlr 0
	lwz 29,28(1)
.LVL462:
	lwz 30,32(1)
	lwz 31,36(1)
	addi 1,1,40
	.cfi_remember_state
.LCFI62:
	.cfi_def_cfa_offset 0
	.cfi_restore 31
	.cfi_restore 30
	.cfi_restore 29
	.cfi_restore 28
	blr
.LVL463:
.L412:
.LCFI63:
	.cfi_restore_state
	mr 31,3
.L385:
.LBB2751:
.LBB2747:
.LBB2743:
.LBB2739:
.LBB2735:
.LBB2731:
.LBB2711:
.LBB2712:
.LBB2713:
.LBB2714:
.LBB2715:
.LBB2716:
	.loc 11 70 0
	lwz 3,4(28)
.LVL464:
	.loc 11 71 0
	cmpw 7,3,29
	beq- 7,.L402
.LVL465:
.L419:
.LBB2717:
	.loc 11 74 0
	lwz 30,0(3)
.LVL466:
.LBB2718:
.LBB2719:
.LBB2720:
	.loc 8 98 0
	bl _ZdlPv
.LVL467:
.LBE2720:
.LBE2719:
.LBE2718:
.LBE2717:
	.loc 11 71 0
	cmpw 7,30,29
	beq- 7,.L402
	.loc 11 74 0
	mr 3,30
	b .L419
.LVL468:
.L413:
.LBE2716:
.LBE2715:
.LBE2714:
.LBE2713:
.LBE2712:
.LBE2711:
.LBB2721:
.LBB2688:
.LBB2683:
.LBB2684:
.LBB2685:
	.loc 1 343 0
	lwz 9,0(28)
	mr 31,3
.LVL469:
	mr 3,28
	lwz 0,12(9)
	mtctr 0
	bctrl
	b .L385
.LVL470:
.L402:
.LBE2685:
.LBE2684:
.LBE2683:
.LBE2688:
.LBE2721:
.LBB2722:
.LBB2723:
.LBB2724:
.LBB2725:
.LBB2726:
.LBB2727:
	.loc 1 105 0
	lis 9,_ZTVN7sigslot15single_threadedE+8@ha
	mr 3,31
	la 0,_ZTVN7sigslot15single_threadedE+8@l(9)
	stw 0,0(28)
.LEHB35:
	bl _Unwind_Resume
.LEHE35:
.LBE2727:
.LBE2726:
.LBE2725:
.LBE2724:
.LBE2723:
.LBE2722:
.LBE2731:
.LBE2735:
.LBE2739:
.LBE2743:
.LBE2747:
.LBE2751:
	.cfi_endproc
.LFE1617:
	.section	.gcc_except_table
.LLSDA1617:
	.byte	0xff
	.byte	0xff
	.byte	0x1
	.uleb128 .LLSDACSE1617-.LLSDACSB1617
.LLSDACSB1617:
	.uleb128 .LEHB32-.LFB1617
	.uleb128 .LEHE32-.LEHB32
	.uleb128 .L412-.LFB1617
	.uleb128 0
	.uleb128 .LEHB33-.LFB1617
	.uleb128 .LEHE33-.LEHB33
	.uleb128 .L413-.LFB1617
	.uleb128 0
	.uleb128 .LEHB34-.LFB1617
	.uleb128 .LEHE34-.LEHB34
	.uleb128 .L412-.LFB1617
	.uleb128 0
	.uleb128 .LEHB35-.LFB1617
	.uleb128 .LEHE35-.LEHB35
	.uleb128 0
	.uleb128 0
.LLSDACSE1617:
	.section	.text._ZN7sigslot7signal2IP10GuiElementbNS_15single_threadedEED0Ev,"axG",@progbits,_ZN7sigslot7signal2IP10GuiElementbNS_15single_threadedEED5Ev,comdat
	.size	_ZN7sigslot7signal2IP10GuiElementbNS_15single_threadedEED0Ev, .-_ZN7sigslot7signal2IP10GuiElementbNS_15single_threadedEED0Ev
	.section	.text._ZN7sigslot13_signal_base2IP10GuiElementbNS_15single_threadedEED0Ev,"axG",@progbits,_ZN7sigslot13_signal_base2IP10GuiElementbNS_15single_threadedEED5Ev,comdat
	.align 2
	.weak	_ZN7sigslot13_signal_base2IP10GuiElementbNS_15single_threadedEED0Ev
	.type	_ZN7sigslot13_signal_base2IP10GuiElementbNS_15single_threadedEED0Ev, @function
_ZN7sigslot13_signal_base2IP10GuiElementbNS_15single_threadedEED0Ev:
.LFB1647:
	.loc 1 823 0
	.cfi_startproc
	.cfi_personality 0,__gxx_personality_v0
	.cfi_lsda 0,.LLSDA1647
.LVL471:
	mflr 0
	stwu 1,-40(1)
.LCFI64:
	.cfi_def_cfa_offset 40
	.cfi_register 65, 0
.LBB2847:
.LBB2848:
.LBB2849:
	.loc 1 826 0
	lis 9,_ZTVN7sigslot13_signal_base2IP10GuiElementbNS_15single_threadedEEE+8@ha
.LBE2849:
.LBE2848:
.LBE2847:
	.loc 1 823 0
	stw 28,24(1)
	mr 28,3
	.cfi_offset 28, -16
.LVL472:
	stw 0,44(1)
.LBB2934:
.LBB2930:
.LBB2926:
	.loc 1 826 0
	la 0,_ZTVN7sigslot13_signal_base2IP10GuiElementbNS_15single_threadedEEE+8@l(9)
	.cfi_offset 65, 4
.LBE2926:
.LBE2930:
.LBE2934:
	.loc 1 823 0
	stw 29,28(1)
	addi 29,3,4
	.cfi_offset 29, -12
	stw 30,32(1)
	stw 31,36(1)
.LBB2935:
.LBB2931:
.LBB2927:
	.loc 1 826 0
	stw 0,0(3)
.LVL473:
.LEHB36:
.LBB2850:
.LBB2851:
.LBB2852:
.LBB2853:
	.loc 1 338 0
	.cfi_offset 31, -4
	.cfi_offset 30, -8
	bl _ZN7sigslot15single_threaded4lockEv
.LEHE36:
.LVL474:
.LBE2853:
.LBE2852:
.LBE2851:
	.loc 3 144 0
	mr 29,28
.LVL475:
	lwzu 31,4(29)
.LVL476:
.LBB2884:
	.loc 1 834 0
	cmpw 7,31,29
	beq- 7,.L421
.LVL477:
.L459:
	.loc 1 836 0
	lwz 3,8(31)
	lwz 9,0(3)
	lwz 0,8(9)
	mtctr 0
.LEHB37:
	bctrl
.LBB2854:
.LBB2855:
.LBB2856:
.LBB2857:
	.loc 1 338 0
	lwz 9,0(3)
.LBE2857:
.LBE2856:
.LBE2855:
.LBE2854:
	.loc 1 836 0
	mr 30,3
.LVL478:
	stw 28,8(1)
.LVL479:
.LBB2866:
.LBB2865:
.LBB2859:
.LBB2858:
	.loc 1 338 0
	lwz 0,8(9)
	mtctr 0
	bctrl
.LVL480:
.LBE2858:
.LBE2859:
.LBB2860:
.LBB2861:
	.loc 10 528 0
	addi 3,30,4
	addi 4,1,8
	bl _ZNSt8_Rb_treeIPN7sigslot12_signal_baseINS0_15single_threadedEEES4_St9_IdentityIS4_ESt4lessIS4_ESaIS4_EE5eraseERKS4_
.LVL481:
.LBE2861:
.LBE2860:
.LBB2862:
.LBB2863:
.LBB2864:
	.loc 1 343 0
	lwz 9,0(30)
	mr 3,30
	lwz 0,12(9)
	mtctr 0
	bctrl
.LVL482:
.LBE2864:
.LBE2863:
.LBE2862:
.LBE2865:
.LBE2866:
	.loc 1 837 0
	lwz 3,8(31)
	cmpwi 7,3,0
	beq- 7,.L423
	lwz 9,0(3)
	lwz 0,4(9)
	mtctr 0
	bctrl
.LEHE37:
.L423:
.LVL483:
.LBB2867:
.LBB2868:
	.loc 4 234 0
	lwz 31,0(31)
.LVL484:
.LBE2868:
.LBE2867:
	.loc 1 834 0
	cmpw 7,29,31
	bne+ 7,.L459
.LBE2884:
	.loc 3 144 0
	lwz 31,4(28)
.LVL485:
.LBB2885:
.LBB2869:
.LBB2870:
	.loc 4 1162 0
	cmpw 7,29,31
	bne+ 7,.L461
	b .L421
.LVL486:
.L454:
	.loc 4 1163 0
	mr 31,30
.LVL487:
.L461:
.LBB2871:
.LBB2872:
	.loc 11 112 0
	lwz 30,0(31)
.LVL488:
.LBB2873:
.LBB2874:
	.loc 4 1532 0
	mr 3,31
	bl _ZNSt8__detail15_List_node_base9_M_unhookEv
.LVL489:
.LBB2875:
.LBB2876:
.LBB2877:
	.loc 8 98 0
	mr 3,31
	bl _ZdlPv
.LVL490:
.LBE2877:
.LBE2876:
.LBE2875:
.LBE2874:
.LBE2873:
.LBE2872:
.LBE2871:
	.loc 4 1162 0
	cmpw 7,29,30
	bne+ 7,.L454
.LVL491:
.L421:
.LBE2870:
.LBE2869:
.LBB2878:
.LBB2879:
.LBB2880:
	.loc 1 343 0
	lwz 9,0(28)
	mr 3,28
	lwz 0,12(9)
	mtctr 0
.LEHB38:
	bctrl
.LEHE38:
.LVL492:
.LBE2880:
.LBE2879:
.LBE2878:
.LBE2885:
.LBE2850:
.LBB2887:
.LBB2888:
.LBB2889:
.LBB2890:
.LBB2891:
.LBB2892:
	.loc 11 70 0
	lwz 3,4(28)
.LVL493:
	.loc 11 71 0
	cmpw 7,3,29
	bne+ 7,.L463
	b .L439
.LVL494:
.L455:
	.loc 11 74 0
	mr 3,31
.LVL495:
.L463:
.LBB2893:
	lwz 31,0(3)
.LVL496:
.LBB2894:
.LBB2895:
.LBB2896:
	.loc 8 98 0
	bl _ZdlPv
.LVL497:
.LBE2896:
.LBE2895:
.LBE2894:
.LBE2893:
	.loc 11 71 0
	cmpw 7,31,29
	bne+ 7,.L455
.LVL498:
.L439:
.LBE2892:
.LBE2891:
.LBE2890:
.LBE2889:
.LBE2888:
.LBE2887:
.LBB2897:
.LBB2898:
.LBB2899:
.LBB2900:
.LBB2901:
.LBB2902:
	.loc 1 105 0
	lis 9,_ZTVN7sigslot15single_threadedE+8@ha
.LBE2902:
.LBE2901:
.LBE2900:
.LBE2899:
.LBE2898:
.LBE2897:
.LBE2927:
.LBE2931:
.LBE2935:
	.loc 1 826 0
	mr 3,28
.LBB2936:
.LBB2932:
.LBB2928:
.LBB2908:
.LBB2907:
.LBB2906:
.LBB2905:
.LBB2904:
.LBB2903:
	.loc 1 105 0
	la 0,_ZTVN7sigslot15single_threadedE+8@l(9)
	stw 0,0(28)
.LBE2903:
.LBE2904:
.LBE2905:
.LBE2906:
.LBE2907:
.LBE2908:
.LBE2928:
.LBE2932:
.LBE2936:
	.loc 1 826 0
	bl _ZdlPv
	lwz 0,44(1)
	lwz 28,24(1)
.LVL499:
	mtlr 0
	lwz 29,28(1)
.LVL500:
	lwz 30,32(1)
	lwz 31,36(1)
	addi 1,1,40
	.cfi_remember_state
.LCFI65:
	.cfi_def_cfa_offset 0
	.cfi_restore 31
	.cfi_restore 30
	.cfi_restore 29
	.cfi_restore 28
	blr
.LVL501:
.L457:
.LCFI66:
	.cfi_restore_state
	mr 31,3
.L431:
.LVL502:
.LBB2937:
.LBB2933:
.LBB2929:
.LBB2909:
.LBB2910:
.LBB2911:
.LBB2912:
.LBB2913:
.LBB2914:
	.loc 11 70 0
	lwz 3,4(28)
.LVL503:
	.loc 11 71 0
	cmpw 7,3,29
	beq- 7,.L448
.LVL504:
.L464:
.LBB2915:
	.loc 11 74 0
	lwz 30,0(3)
.LVL505:
.LBB2916:
.LBB2917:
.LBB2918:
	.loc 8 98 0
	bl _ZdlPv
.LVL506:
.LBE2918:
.LBE2917:
.LBE2916:
.LBE2915:
	.loc 11 71 0
	cmpw 7,30,29
	beq- 7,.L448
	.loc 11 74 0
	mr 3,30
	b .L464
.LVL507:
.L458:
.LBE2914:
.LBE2913:
.LBE2912:
.LBE2911:
.LBE2910:
.LBE2909:
.LBB2919:
.LBB2886:
.LBB2881:
.LBB2882:
.LBB2883:
	.loc 1 343 0
	lwz 9,0(28)
	mr 31,3
.LVL508:
	mr 3,28
	lwz 0,12(9)
	mtctr 0
	bctrl
	b .L431
.LVL509:
.L448:
.LBE2883:
.LBE2882:
.LBE2881:
.LBE2886:
.LBE2919:
.LBB2920:
.LBB2921:
.LBB2922:
.LBB2923:
.LBB2924:
.LBB2925:
	.loc 1 105 0
	lis 9,_ZTVN7sigslot15single_threadedE+8@ha
	mr 3,31
	la 0,_ZTVN7sigslot15single_threadedE+8@l(9)
	stw 0,0(28)
.LEHB39:
	bl _Unwind_Resume
.LEHE39:
.LBE2925:
.LBE2924:
.LBE2923:
.LBE2922:
.LBE2921:
.LBE2920:
.LBE2929:
.LBE2933:
.LBE2937:
	.cfi_endproc
.LFE1647:
	.section	.gcc_except_table
.LLSDA1647:
	.byte	0xff
	.byte	0xff
	.byte	0x1
	.uleb128 .LLSDACSE1647-.LLSDACSB1647
.LLSDACSB1647:
	.uleb128 .LEHB36-.LFB1647
	.uleb128 .LEHE36-.LEHB36
	.uleb128 .L457-.LFB1647
	.uleb128 0
	.uleb128 .LEHB37-.LFB1647
	.uleb128 .LEHE37-.LEHB37
	.uleb128 .L458-.LFB1647
	.uleb128 0
	.uleb128 .LEHB38-.LFB1647
	.uleb128 .LEHE38-.LEHB38
	.uleb128 .L457-.LFB1647
	.uleb128 0
	.uleb128 .LEHB39-.LFB1647
	.uleb128 .LEHE39-.LEHB39
	.uleb128 0
	.uleb128 0
.LLSDACSE1647:
	.section	.text._ZN7sigslot13_signal_base2IP10GuiElementbNS_15single_threadedEED0Ev,"axG",@progbits,_ZN7sigslot13_signal_base2IP10GuiElementbNS_15single_threadedEED5Ev,comdat
	.size	_ZN7sigslot13_signal_base2IP10GuiElementbNS_15single_threadedEED0Ev, .-_ZN7sigslot13_signal_base2IP10GuiElementbNS_15single_threadedEED0Ev
	.section	.text._ZN7sigslot13_signal_base3IP10GuiElementiiNS_15single_threadedEED2Ev,"axG",@progbits,_ZN7sigslot13_signal_base3IP10GuiElementiiNS_15single_threadedEED5Ev,comdat
	.align 2
	.weak	_ZN7sigslot13_signal_base3IP10GuiElementiiNS_15single_threadedEED2Ev
	.type	_ZN7sigslot13_signal_base3IP10GuiElementiiNS_15single_threadedEED2Ev, @function
_ZN7sigslot13_signal_base3IP10GuiElementiiNS_15single_threadedEED2Ev:
.LFB1652:
	.loc 1 943 0
	.cfi_startproc
	.cfi_personality 0,__gxx_personality_v0
	.cfi_lsda 0,.LLSDA1652
.LVL510:
	mflr 0
	stwu 1,-40(1)
.LCFI67:
	.cfi_def_cfa_offset 40
	.cfi_register 65, 0
.LBB3084:
	.loc 1 946 0
	lis 9,_ZTVN7sigslot13_signal_base3IP10GuiElementiiNS_15single_threadedEEE+8@ha
.LBE3084:
	.loc 1 943 0
	stw 28,24(1)
	mr 28,3
	.cfi_offset 28, -16
	stw 0,44(1)
.LBB3167:
	.loc 1 946 0
	la 0,_ZTVN7sigslot13_signal_base3IP10GuiElementiiNS_15single_threadedEEE+8@l(9)
	.cfi_offset 65, 4
.LBE3167:
	.loc 1 943 0
	stw 29,28(1)
	addi 29,3,4
	.cfi_offset 29, -12
	stw 30,32(1)
	stw 31,36(1)
.LBB3168:
	.loc 1 946 0
	stw 0,0(3)
.LVL511:
.LEHB40:
.LBB3085:
.LBB3086:
.LBB3087:
.LBB3088:
	.loc 1 338 0
	.cfi_offset 31, -4
	.cfi_offset 30, -8
	bl _ZN7sigslot15single_threaded4lockEv
.LEHE40:
.LVL512:
.LBE3088:
.LBE3087:
.LBE3086:
	.loc 3 144 0
	mr 29,28
.LVL513:
	lwzu 31,4(29)
.LVL514:
.LBB3119:
	.loc 1 954 0
	cmpw 7,31,29
	beq- 7,.L466
.LVL515:
.L503:
	.loc 1 956 0
	lwz 3,8(31)
	lwz 9,0(3)
	lwz 0,8(9)
	mtctr 0
.LEHB41:
	bctrl
.LBB3089:
.LBB3090:
.LBB3091:
.LBB3092:
	.loc 1 338 0
	lwz 9,0(3)
.LBE3092:
.LBE3091:
.LBE3090:
.LBE3089:
	.loc 1 956 0
	mr 30,3
.LVL516:
	stw 28,8(1)
.LVL517:
.LBB3101:
.LBB3100:
.LBB3094:
.LBB3093:
	.loc 1 338 0
	lwz 0,8(9)
	mtctr 0
	bctrl
.LVL518:
.LBE3093:
.LBE3094:
.LBB3095:
.LBB3096:
	.loc 10 528 0
	addi 3,30,4
	addi 4,1,8
	bl _ZNSt8_Rb_treeIPN7sigslot12_signal_baseINS0_15single_threadedEEES4_St9_IdentityIS4_ESt4lessIS4_ESaIS4_EE5eraseERKS4_
.LVL519:
.LBE3096:
.LBE3095:
.LBB3097:
.LBB3098:
.LBB3099:
	.loc 1 343 0
	lwz 9,0(30)
	mr 3,30
	lwz 0,12(9)
	mtctr 0
	bctrl
.LVL520:
.LBE3099:
.LBE3098:
.LBE3097:
.LBE3100:
.LBE3101:
	.loc 1 957 0
	lwz 3,8(31)
	cmpwi 7,3,0
	beq- 7,.L468
	lwz 9,0(3)
	lwz 0,4(9)
	mtctr 0
	bctrl
.LEHE41:
.L468:
.LVL521:
.LBB3102:
.LBB3103:
	.loc 4 234 0
	lwz 31,0(31)
.LVL522:
.LBE3103:
.LBE3102:
	.loc 1 954 0
	cmpw 7,29,31
	bne+ 7,.L503
.LBE3119:
	.loc 3 144 0
	lwz 31,4(28)
.LVL523:
.LBB3120:
.LBB3104:
.LBB3105:
	.loc 4 1162 0
	cmpw 7,29,31
	bne+ 7,.L505
	b .L466
.LVL524:
.L498:
	.loc 4 1163 0
	mr 31,30
.LVL525:
.L505:
.LBB3106:
.LBB3107:
	.loc 11 112 0
	lwz 30,0(31)
.LVL526:
.LBB3108:
.LBB3109:
	.loc 4 1532 0
	mr 3,31
	bl _ZNSt8__detail15_List_node_base9_M_unhookEv
.LVL527:
.LBB3110:
.LBB3111:
.LBB3112:
	.loc 8 98 0
	mr 3,31
	bl _ZdlPv
.LVL528:
.LBE3112:
.LBE3111:
.LBE3110:
.LBE3109:
.LBE3108:
.LBE3107:
.LBE3106:
	.loc 4 1162 0
	cmpw 7,29,30
	bne+ 7,.L498
.LVL529:
.L466:
.LBE3105:
.LBE3104:
.LBB3113:
.LBB3114:
.LBB3115:
	.loc 1 343 0
	lwz 9,0(28)
	mr 3,28
	lwz 0,12(9)
	mtctr 0
.LEHB42:
	bctrl
.LEHE42:
.LVL530:
.LBE3115:
.LBE3114:
.LBE3113:
.LBE3120:
.LBE3085:
.LBB3122:
.LBB3123:
.LBB3124:
.LBB3125:
.LBB3126:
.LBB3127:
	.loc 11 70 0
	lwz 3,4(28)
.LVL531:
	.loc 11 71 0
	cmpw 7,3,29
	bne+ 7,.L507
	b .L484
.LVL532:
.L499:
	.loc 11 74 0
	mr 3,31
.LVL533:
.L507:
.LBB3128:
	lwz 31,0(3)
.LVL534:
.LBB3129:
.LBB3130:
.LBB3131:
	.loc 8 98 0
	bl _ZdlPv
.LVL535:
.LBE3131:
.LBE3130:
.LBE3129:
.LBE3128:
	.loc 11 71 0
	cmpw 7,31,29
	bne+ 7,.L499
.LVL536:
.L484:
.LBE3127:
.LBE3126:
.LBE3125:
.LBE3124:
.LBE3123:
.LBE3122:
.LBB3132:
.LBB3133:
.LBB3134:
.LBB3135:
.LBB3136:
.LBB3137:
	.loc 1 105 0
	lis 9,_ZTVN7sigslot15single_threadedE+8@ha
.LBE3137:
.LBE3136:
.LBE3135:
.LBE3134:
.LBE3133:
.LBE3132:
.LBE3168:
	.loc 1 946 0
	lwz 29,28(1)
.LVL537:
.LBB3169:
.LBB3148:
.LBB3146:
.LBB3144:
.LBB3142:
.LBB3140:
.LBB3138:
	.loc 1 105 0
	la 0,_ZTVN7sigslot15single_threadedE+8@l(9)
.LBE3138:
.LBE3140:
.LBE3142:
.LBE3144:
.LBE3146:
.LBE3148:
.LBE3169:
	.loc 1 946 0
	lwz 30,32(1)
.LBB3170:
.LBB3149:
.LBB3147:
.LBB3145:
.LBB3143:
.LBB3141:
.LBB3139:
	.loc 1 105 0
	stw 0,0(28)
.LBE3139:
.LBE3141:
.LBE3143:
.LBE3145:
.LBE3147:
.LBE3149:
.LBE3170:
	.loc 1 946 0
	lwz 0,44(1)
	lwz 28,24(1)
.LVL538:
	mtlr 0
	lwz 31,36(1)
	addi 1,1,40
	.cfi_remember_state
.LCFI68:
	.cfi_def_cfa_offset 0
	.cfi_restore 31
	.cfi_restore 30
	.cfi_restore 29
	.cfi_restore 28
	blr
.LVL539:
.L501:
.LCFI69:
	.cfi_restore_state
	mr 31,3
.L476:
.LVL540:
.LBB3171:
.LBB3150:
.LBB3151:
.LBB3152:
.LBB3153:
.LBB3154:
.LBB3155:
	.loc 11 70 0
	lwz 3,4(28)
.LVL541:
	.loc 11 71 0
	cmpw 7,3,29
	beq- 7,.L495
.LVL542:
.L508:
.LBB3156:
	.loc 11 74 0
	lwz 30,0(3)
.LVL543:
.LBB3157:
.LBB3158:
.LBB3159:
	.loc 8 98 0
	bl _ZdlPv
.LVL544:
.LBE3159:
.LBE3158:
.LBE3157:
.LBE3156:
	.loc 11 71 0
	cmpw 7,30,29
	beq- 7,.L495
	.loc 11 74 0
	mr 3,30
	b .L508
.LVL545:
.L502:
.LBE3155:
.LBE3154:
.LBE3153:
.LBE3152:
.LBE3151:
.LBE3150:
.LBB3160:
.LBB3121:
.LBB3116:
.LBB3117:
.LBB3118:
	.loc 1 343 0
	lwz 9,0(28)
	mr 31,3
.LVL546:
	mr 3,28
	lwz 0,12(9)
	mtctr 0
	bctrl
	b .L476
.LVL547:
.L495:
.LBE3118:
.LBE3117:
.LBE3116:
.LBE3121:
.LBE3160:
.LBB3161:
.LBB3162:
.LBB3163:
.LBB3164:
.LBB3165:
.LBB3166:
	.loc 1 105 0
	lis 9,_ZTVN7sigslot15single_threadedE+8@ha
	mr 3,31
	la 0,_ZTVN7sigslot15single_threadedE+8@l(9)
	stw 0,0(28)
.LEHB43:
	bl _Unwind_Resume
.LEHE43:
.LBE3166:
.LBE3165:
.LBE3164:
.LBE3163:
.LBE3162:
.LBE3161:
.LBE3171:
	.cfi_endproc
.LFE1652:
	.section	.gcc_except_table
.LLSDA1652:
	.byte	0xff
	.byte	0xff
	.byte	0x1
	.uleb128 .LLSDACSE1652-.LLSDACSB1652
.LLSDACSB1652:
	.uleb128 .LEHB40-.LFB1652
	.uleb128 .LEHE40-.LEHB40
	.uleb128 .L501-.LFB1652
	.uleb128 0
	.uleb128 .LEHB41-.LFB1652
	.uleb128 .LEHE41-.LEHB41
	.uleb128 .L502-.LFB1652
	.uleb128 0
	.uleb128 .LEHB42-.LFB1652
	.uleb128 .LEHE42-.LEHB42
	.uleb128 .L501-.LFB1652
	.uleb128 0
	.uleb128 .LEHB43-.LFB1652
	.uleb128 .LEHE43-.LEHB43
	.uleb128 0
	.uleb128 0
.LLSDACSE1652:
	.section	.text._ZN7sigslot13_signal_base3IP10GuiElementiiNS_15single_threadedEED2Ev,"axG",@progbits,_ZN7sigslot13_signal_base3IP10GuiElementiiNS_15single_threadedEED5Ev,comdat
	.size	_ZN7sigslot13_signal_base3IP10GuiElementiiNS_15single_threadedEED2Ev, .-_ZN7sigslot13_signal_base3IP10GuiElementiiNS_15single_threadedEED2Ev
	.section	.text._ZN10GuiElementD2Ev,"axG",@progbits,_ZN10GuiElementD5Ev,comdat
	.align 2
	.weak	_ZN10GuiElementD2Ev
	.type	_ZN10GuiElementD2Ev, @function
_ZN10GuiElementD2Ev:
.LFB1381:
	.loc 2 89 0
	.cfi_startproc
	.cfi_personality 0,__gxx_personality_v0
	.cfi_lsda 0,.LLSDA1381
.LVL548:
	mflr 0
	stwu 1,-48(1)
.LCFI70:
	.cfi_def_cfa_offset 48
	.cfi_register 65, 0
.LBB3374:
	lis 9,_ZTV10GuiElement+8@ha
.LBE3374:
	stw 27,28(1)
.LBB3636:
.LBB3375:
.LBB3376:
.LBB3377:
	.loc 1 2305 0
	addi 27,3,16
	.cfi_offset 27, -20
.LBE3377:
.LBE3376:
.LBE3375:
.LBE3636:
	.loc 2 89 0
	stw 0,52(1)
.LBB3637:
	la 0,_ZTV10GuiElement+8@l(9)
	.cfi_offset 65, 4
.LBB3511:
.LBB3502:
.LBB3493:
.LBB3378:
.LBB3379:
.LBB3380:
	.loc 1 946 0
	lis 9,_ZTVN7sigslot13_signal_base3IP10GuiElementiiNS_15single_threadedEEE+8@ha
.LBE3380:
.LBE3379:
.LBE3378:
.LBE3493:
.LBE3502:
.LBE3511:
.LBE3637:
	.loc 2 89 0
	stw 28,32(1)
	stw 29,36(1)
	mr 28,3
	.cfi_offset 29, -12
	.cfi_offset 28, -16
	stw 26,24(1)
	addi 29,28,20
	stw 30,40(1)
	stw 31,44(1)
.LBB3638:
	.loc 2 89 0
	stw 0,0(3)
.LVL549:
.LBB3512:
.LBB3503:
.LBB3494:
.LBB3485:
.LBB3477:
.LBB3469:
	.loc 1 946 0
	la 0,_ZTVN7sigslot13_signal_base3IP10GuiElementiiNS_15single_threadedEEE+8@l(9)
.LBB3381:
.LBB3382:
.LBB3383:
.LBB3384:
	.loc 1 338 0
	lis 9,_ZN7sigslot15single_threaded4lockEv@ha
.LBE3384:
.LBE3383:
.LBE3382:
.LBE3381:
	.loc 1 946 0
	stw 0,16(3)
.LVL550:
.LBB3417:
.LBB3413:
.LBB3386:
.LBB3385:
	.loc 1 338 0
	la 9,_ZN7sigslot15single_threaded4lockEv@l(9)
	mr 3,27
.LVL551:
	mtctr 9
.LEHB44:
	.cfi_offset 31, -4
	.cfi_offset 30, -8
	.cfi_offset 26, -24
	bctrl
.LEHE44:
.LBE3385:
.LBE3386:
.LBE3413:
	.loc 3 144 0
	mr 29,28
	lwzu 31,20(29)
.LVL552:
.LBB3414:
	.loc 1 954 0
	cmpw 7,31,29
	beq- 7,.L511
.LVL553:
.L589:
	.loc 1 956 0
	lwz 3,8(31)
	lwz 9,0(3)
	lwz 0,8(9)
	mtctr 0
.LEHB45:
	bctrl
	stw 27,8(1)
	mr 30,3
.LVL554:
.LBB3387:
.LBB3388:
.LBB3389:
.LBB3390:
	.loc 1 338 0
	lwz 9,0(3)
	lwz 0,8(9)
	mtctr 0
	bctrl
.LVL555:
.LBE3390:
.LBE3389:
.LBB3391:
.LBB3392:
	.loc 10 528 0
	addi 3,30,4
	addi 4,1,8
	bl _ZNSt8_Rb_treeIPN7sigslot12_signal_baseINS0_15single_threadedEEES4_St9_IdentityIS4_ESt4lessIS4_ESaIS4_EE5eraseERKS4_
.LVL556:
.LBE3392:
.LBE3391:
.LBB3393:
.LBB3394:
.LBB3395:
	.loc 1 343 0
	lwz 9,0(30)
	mr 3,30
	lwz 0,12(9)
	mtctr 0
	bctrl
.LVL557:
.LBE3395:
.LBE3394:
.LBE3393:
.LBE3388:
.LBE3387:
	.loc 1 957 0
	lwz 3,8(31)
	cmpwi 7,3,0
	beq- 7,.L513
	lwz 9,0(3)
	lwz 0,4(9)
	mtctr 0
	bctrl
.LEHE45:
.L513:
.LVL558:
.LBB3396:
.LBB3397:
	.loc 4 234 0
	lwz 31,0(31)
.LVL559:
.LBE3397:
.LBE3396:
	.loc 1 954 0
	cmpw 7,29,31
	bne+ 7,.L589
.LBE3414:
	.loc 3 144 0
	lwz 31,20(28)
.LVL560:
.LBB3415:
.LBB3398:
.LBB3399:
	.loc 4 1162 0
	cmpw 7,29,31
	bne+ 7,.L592
	b .L511
.LVL561:
.L578:
	.loc 4 1163 0
	mr 31,30
.LVL562:
.L592:
.LBB3400:
.LBB3401:
	.loc 11 112 0
	lwz 30,0(31)
.LVL563:
.LBB3402:
.LBB3403:
	.loc 4 1532 0
	mr 3,31
	bl _ZNSt8__detail15_List_node_base9_M_unhookEv
.LVL564:
.LBB3404:
.LBB3405:
.LBB3406:
	.loc 8 98 0
	mr 3,31
	bl _ZdlPv
.LVL565:
.LBE3406:
.LBE3405:
.LBE3404:
.LBE3403:
.LBE3402:
.LBE3401:
.LBE3400:
	.loc 4 1162 0
	cmpw 7,29,30
	bne+ 7,.L578
.LVL566:
.L511:
.LBE3399:
.LBE3398:
.LBB3407:
.LBB3408:
.LBB3409:
	.loc 1 343 0
	lwz 9,16(28)
	mr 3,27
	lwz 0,12(9)
	mtctr 0
.LEHB46:
	bctrl
.LEHE46:
.LBE3409:
.LBE3408:
.LBE3407:
.LBE3415:
.LBE3417:
.LBB3418:
.LBB3419:
.LBB3420:
.LBB3421:
.LBB3422:
.LBB3423:
	.loc 11 70 0
	lwz 3,20(28)
.LVL567:
	.loc 11 71 0
	cmpw 7,3,29
	bne+ 7,.L594
	b .L529
.LVL568:
.L579:
	.loc 11 74 0
	mr 3,31
.LVL569:
.L594:
.LBB3424:
	lwz 31,0(3)
.LVL570:
.LBB3425:
.LBB3426:
.LBB3427:
	.loc 8 98 0
	bl _ZdlPv
.LVL571:
.LBE3427:
.LBE3426:
.LBE3425:
.LBE3424:
	.loc 11 71 0
	cmpw 7,31,29
	bne+ 7,.L579
.LVL572:
.L529:
.LBE3423:
.LBE3422:
.LBE3421:
.LBE3420:
.LBE3419:
.LBE3418:
.LBE3469:
.LBE3477:
.LBE3485:
.LBE3494:
.LBE3503:
.LBE3512:
.LBB3513:
.LBB3514:
.LBB3515:
.LBB3516:
.LBB3517:
.LBB3518:
	.loc 1 826 0
	lis 9,_ZTVN7sigslot13_signal_base2IP10GuiElementbNS_15single_threadedEEE+8@ha
.LBE3518:
.LBE3517:
.LBE3516:
.LBE3515:
.LBE3514:
.LBE3513:
.LBB3623:
.LBB3504:
.LBB3495:
.LBB3486:
.LBB3478:
.LBB3470:
.LBB3428:
.LBB3429:
.LBB3430:
.LBB3431:
.LBB3432:
.LBB3433:
	.loc 1 105 0
	lis 26,_ZTVN7sigslot15single_threadedE+8@ha
.LBE3433:
.LBE3432:
.LBE3431:
.LBE3430:
.LBE3429:
.LBE3428:
.LBE3470:
.LBE3478:
.LBE3486:
.LBE3495:
.LBE3504:
.LBE3623:
.LBB3624:
.LBB3617:
.LBB3611:
.LBB3605:
.LBB3599:
.LBB3593:
	.loc 1 826 0
	la 0,_ZTVN7sigslot13_signal_base2IP10GuiElementbNS_15single_threadedEEE+8@l(9)
.LBB3519:
.LBB3520:
.LBB3521:
.LBB3522:
	.loc 1 338 0
	lis 9,_ZN7sigslot15single_threaded4lockEv@ha
.LBE3522:
.LBE3521:
.LBE3520:
.LBE3519:
.LBE3593:
.LBE3599:
.LBE3605:
.LBE3611:
.LBE3617:
.LBE3624:
.LBB3625:
.LBB3505:
.LBB3496:
.LBB3487:
.LBB3479:
.LBB3471:
.LBB3444:
.LBB3442:
.LBB3440:
.LBB3438:
.LBB3436:
.LBB3434:
	.loc 1 105 0
	la 26,_ZTVN7sigslot15single_threadedE+8@l(26)
.LBE3434:
.LBE3436:
.LBE3438:
.LBE3440:
.LBE3442:
.LBE3444:
.LBE3471:
.LBE3479:
.LBE3487:
.LBE3496:
.LBE3505:
.LBE3625:
.LBB3626:
.LBB3618:
.LBB3612:
	.loc 1 2238 0
	addi 27,28,4
.LVL573:
.LBB3606:
.LBB3600:
.LBB3594:
.LBB3558:
.LBB3553:
.LBB3525:
.LBB3523:
	.loc 1 338 0
	la 9,_ZN7sigslot15single_threaded4lockEv@l(9)
.LBE3523:
.LBE3525:
.LBE3553:
.LBE3558:
.LBE3594:
.LBE3600:
.LBE3606:
.LBE3612:
.LBE3618:
.LBE3626:
.LBB3627:
.LBB3506:
.LBB3497:
.LBB3488:
.LBB3480:
.LBB3472:
.LBB3445:
.LBB3443:
.LBB3441:
.LBB3439:
.LBB3437:
.LBB3435:
	.loc 1 105 0
	stw 26,16(28)
.LVL574:
.LBE3435:
.LBE3437:
.LBE3439:
.LBE3441:
.LBE3443:
.LBE3445:
.LBE3472:
.LBE3480:
.LBE3488:
.LBE3497:
.LBE3506:
.LBE3627:
.LBB3628:
.LBB3619:
.LBB3613:
.LBB3607:
.LBB3601:
.LBB3595:
	.loc 1 826 0
	stw 0,4(28)
.LVL575:
.LBB3559:
.LBB3554:
.LBB3526:
.LBB3524:
	.loc 1 338 0
	mr 3,27
	mtctr 9
	addi 29,28,8
.LVL576:
.LEHB47:
	bctrl
.LEHE47:
.LBE3524:
.LBE3526:
.LBE3554:
	.loc 3 144 0
	mr 29,28
	lwzu 31,8(29)
.LVL577:
.LBB3555:
	.loc 1 834 0
	cmpw 7,31,29
	beq- 7,.L544
.LVL578:
.L588:
	.loc 1 836 0
	lwz 3,8(31)
	lwz 9,0(3)
	lwz 0,8(9)
	mtctr 0
.LEHB48:
	bctrl
	stw 27,8(1)
	mr 30,3
.LVL579:
.LBB3527:
.LBB3528:
.LBB3529:
.LBB3530:
	.loc 1 338 0
	lwz 9,0(3)
	lwz 0,8(9)
	mtctr 0
	bctrl
.LVL580:
.LBE3530:
.LBE3529:
.LBB3531:
.LBB3532:
	.loc 10 528 0
	addi 3,30,4
	addi 4,1,8
.LVL581:
	bl _ZNSt8_Rb_treeIPN7sigslot12_signal_baseINS0_15single_threadedEEES4_St9_IdentityIS4_ESt4lessIS4_ESaIS4_EE5eraseERKS4_
.LVL582:
.LBE3532:
.LBE3531:
.LBB3533:
.LBB3534:
.LBB3535:
	.loc 1 343 0
	lwz 9,0(30)
	mr 3,30
	lwz 0,12(9)
	mtctr 0
	bctrl
.LVL583:
.LBE3535:
.LBE3534:
.LBE3533:
.LBE3528:
.LBE3527:
	.loc 1 837 0
	lwz 3,8(31)
	cmpwi 7,3,0
	beq- 7,.L546
	lwz 9,0(3)
	lwz 0,4(9)
	mtctr 0
	bctrl
.LEHE48:
.L546:
.LVL584:
.LBB3536:
.LBB3537:
	.loc 4 234 0
	lwz 31,0(31)
.LVL585:
.LBE3537:
.LBE3536:
	.loc 1 834 0
	cmpw 7,29,31
	bne+ 7,.L588
.LBE3555:
	.loc 3 144 0
	lwz 31,8(28)
.LVL586:
.LBB3556:
.LBB3538:
.LBB3539:
	.loc 4 1162 0
	cmpw 7,29,31
	bne+ 7,.L597
	b .L544
.LVL587:
.L581:
	.loc 4 1163 0
	mr 31,30
.LVL588:
.L597:
.LBB3540:
.LBB3541:
	.loc 11 112 0
	lwz 30,0(31)
.LVL589:
.LBB3542:
.LBB3543:
	.loc 4 1532 0
	mr 3,31
	bl _ZNSt8__detail15_List_node_base9_M_unhookEv
.LVL590:
.LBB3544:
.LBB3545:
.LBB3546:
	.loc 8 98 0
	mr 3,31
	bl _ZdlPv
.LVL591:
.LBE3546:
.LBE3545:
.LBE3544:
.LBE3543:
.LBE3542:
.LBE3541:
.LBE3540:
	.loc 4 1162 0
	cmpw 7,29,30
	bne+ 7,.L581
.LVL592:
.L544:
.LBE3539:
.LBE3538:
.LBB3547:
.LBB3548:
.LBB3549:
	.loc 1 343 0
	lwz 9,4(28)
	mr 3,27
	lwz 0,12(9)
	mtctr 0
.LEHB49:
	bctrl
.LEHE49:
.LBE3549:
.LBE3548:
.LBE3547:
.LBE3556:
.LBE3559:
.LBB3560:
.LBB3561:
.LBB3562:
.LBB3563:
.LBB3564:
.LBB3565:
	.loc 11 70 0
	lwz 3,8(28)
.LVL593:
	.loc 11 71 0
	cmpw 7,3,29
	bne+ 7,.L599
	b .L562
.LVL594:
.L582:
	.loc 11 74 0
	mr 3,31
.LVL595:
.L599:
.LBB3566:
	lwz 31,0(3)
.LVL596:
.LBB3567:
.LBB3568:
.LBB3569:
	.loc 8 98 0
	bl _ZdlPv
.LVL597:
.LBE3569:
.LBE3568:
.LBE3567:
.LBE3566:
	.loc 11 71 0
	cmpw 7,31,29
	bne+ 7,.L582
.LVL598:
.L562:
.LBE3565:
.LBE3564:
.LBE3563:
.LBE3562:
.LBE3561:
.LBE3560:
.LBE3595:
.LBE3601:
.LBE3607:
.LBE3613:
.LBE3619:
.LBE3628:
.LBE3638:
	.loc 2 89 0
	lwz 0,52(1)
.LBB3639:
.LBB3629:
.LBB3620:
.LBB3614:
.LBB3608:
.LBB3602:
.LBB3596:
.LBB3570:
.LBB3571:
.LBB3572:
.LBB3573:
.LBB3574:
.LBB3575:
	.loc 1 105 0
	stw 26,4(28)
.LBE3575:
.LBE3574:
.LBE3573:
.LBE3572:
.LBE3571:
.LBE3570:
.LBE3596:
.LBE3602:
.LBE3608:
.LBE3614:
.LBE3620:
.LBE3629:
.LBE3639:
	.loc 2 89 0
	mtlr 0
	lwz 26,24(1)
	lwz 27,28(1)
.LVL599:
	lwz 28,32(1)
.LVL600:
	lwz 29,36(1)
.LVL601:
	lwz 30,40(1)
	lwz 31,44(1)
	addi 1,1,48
	.cfi_remember_state
.LCFI71:
	.cfi_def_cfa_offset 0
	.cfi_restore 31
	.cfi_restore 30
	.cfi_restore 29
	.cfi_restore 28
	.cfi_restore 27
	.cfi_restore 26
	blr
.LVL602:
.L584:
.LCFI72:
	.cfi_restore_state
	mr 31,3
.L521:
.LBB3640:
.LBB3630:
.LBB3507:
.LBB3498:
.LBB3489:
.LBB3481:
.LBB3473:
.LBB3446:
.LBB3447:
.LBB3448:
.LBB3449:
.LBB3450:
.LBB3451:
	.loc 11 70 0
	lwz 3,20(28)
.LVL603:
	.loc 11 71 0
	cmpw 7,3,29
	beq- 7,.L538
.LVL604:
.L596:
.LBB3452:
	.loc 11 74 0
	lwz 30,0(3)
.LVL605:
.LBB3453:
.LBB3454:
.LBB3455:
	.loc 8 98 0
	bl _ZdlPv
.LVL606:
.LBE3455:
.LBE3454:
.LBE3453:
.LBE3452:
	.loc 11 71 0
	cmpw 7,30,29
	beq- 7,.L538
	.loc 11 74 0
	mr 3,30
	b .L596
.LVL607:
.L587:
.LBE3451:
.LBE3450:
.LBE3449:
.LBE3448:
.LBE3447:
.LBE3446:
.LBE3473:
.LBE3481:
.LBE3489:
.LBE3498:
.LBE3507:
.LBE3630:
.LBB3631:
.LBB3621:
.LBB3615:
.LBB3609:
.LBB3603:
.LBB3597:
.LBB3576:
.LBB3557:
.LBB3550:
.LBB3551:
.LBB3552:
	.loc 1 343 0
	lwz 9,4(28)
	mr 31,3
.LVL608:
	mr 3,27
	lwz 0,12(9)
	mtctr 0
	bctrl
.LVL609:
.L554:
.LBE3552:
.LBE3551:
.LBE3550:
.LBE3557:
.LBE3576:
.LBB3577:
.LBB3578:
.LBB3579:
.LBB3580:
.LBB3581:
.LBB3582:
	.loc 11 70 0
	lwz 3,8(28)
.LVL610:
	.loc 11 71 0
	cmpw 7,3,29
	beq- 7,.L571
.LVL611:
.L600:
.LBB3583:
	.loc 11 74 0
	lwz 30,0(3)
.LVL612:
.LBB3584:
.LBB3585:
.LBB3586:
	.loc 8 98 0
	bl _ZdlPv
.LVL613:
.LBE3586:
.LBE3585:
.LBE3584:
.LBE3583:
	.loc 11 71 0
	cmpw 7,30,29
	beq- 7,.L571
	.loc 11 74 0
	mr 3,30
	b .L600
.LVL614:
.L538:
.LBE3582:
.LBE3581:
.LBE3580:
.LBE3579:
.LBE3578:
.LBE3577:
.LBE3597:
.LBE3603:
.LBE3609:
.LBE3615:
.LBE3621:
.LBE3631:
.LBB3632:
.LBB3508:
.LBB3499:
.LBB3490:
.LBB3482:
.LBB3474:
.LBB3456:
.LBB3457:
.LBB3458:
.LBB3459:
.LBB3460:
.LBB3461:
	.loc 1 105 0
	lis 9,_ZTVN7sigslot15single_threadedE+8@ha
.LBE3461:
.LBE3460:
.LBE3459:
.LBE3458:
.LBE3457:
.LBE3456:
.LBE3474:
.LBE3482:
.LBE3490:
.LBE3499:
.LBE3508:
.LBE3632:
	.loc 2 89 0
	addi 3,28,4
.LBB3633:
.LBB3509:
.LBB3500:
.LBB3491:
.LBB3483:
.LBB3475:
.LBB3467:
.LBB3466:
.LBB3465:
.LBB3464:
.LBB3463:
.LBB3462:
	.loc 1 105 0
	la 0,_ZTVN7sigslot15single_threadedE+8@l(9)
	stw 0,16(28)
.LBE3462:
.LBE3463:
.LBE3464:
.LBE3465:
.LBE3466:
.LBE3467:
.LBE3475:
.LBE3483:
.LBE3491:
.LBE3500:
.LBE3509:
.LBE3633:
	.loc 2 89 0
	bl _ZN7sigslot7signal2IP10GuiElementbNS_15single_threadedEED1Ev
	mr 3,31
.LEHB50:
	bl _Unwind_Resume
.LVL615:
.L571:
.LBB3634:
.LBB3622:
.LBB3616:
.LBB3610:
.LBB3604:
.LBB3598:
.LBB3587:
.LBB3588:
.LBB3589:
.LBB3590:
.LBB3591:
.LBB3592:
	.loc 1 105 0
	stw 26,4(28)
	mr 3,31
	bl _Unwind_Resume
.LEHE50:
.LVL616:
.L586:
	mr 31,3
	b .L554
.LVL617:
.L585:
.LBE3592:
.LBE3591:
.LBE3590:
.LBE3589:
.LBE3588:
.LBE3587:
.LBE3598:
.LBE3604:
.LBE3610:
.LBE3616:
.LBE3622:
.LBE3634:
.LBB3635:
.LBB3510:
.LBB3501:
.LBB3492:
.LBB3484:
.LBB3476:
.LBB3468:
.LBB3416:
.LBB3410:
.LBB3411:
.LBB3412:
	.loc 1 343 0
	lwz 9,16(28)
	mr 31,3
.LVL618:
	mr 3,27
	lwz 0,12(9)
	mtctr 0
	bctrl
	b .L521
.LBE3412:
.LBE3411:
.LBE3410:
.LBE3416:
.LBE3468:
.LBE3476:
.LBE3484:
.LBE3492:
.LBE3501:
.LBE3510:
.LBE3635:
.LBE3640:
	.cfi_endproc
.LFE1381:
	.section	.gcc_except_table
.LLSDA1381:
	.byte	0xff
	.byte	0xff
	.byte	0x1
	.uleb128 .LLSDACSE1381-.LLSDACSB1381
.LLSDACSB1381:
	.uleb128 .LEHB44-.LFB1381
	.uleb128 .LEHE44-.LEHB44
	.uleb128 .L584-.LFB1381
	.uleb128 0
	.uleb128 .LEHB45-.LFB1381
	.uleb128 .LEHE45-.LEHB45
	.uleb128 .L585-.LFB1381
	.uleb128 0
	.uleb128 .LEHB46-.LFB1381
	.uleb128 .LEHE46-.LEHB46
	.uleb128 .L584-.LFB1381
	.uleb128 0
	.uleb128 .LEHB47-.LFB1381
	.uleb128 .LEHE47-.LEHB47
	.uleb128 .L586-.LFB1381
	.uleb128 0
	.uleb128 .LEHB48-.LFB1381
	.uleb128 .LEHE48-.LEHB48
	.uleb128 .L587-.LFB1381
	.uleb128 0
	.uleb128 .LEHB49-.LFB1381
	.uleb128 .LEHE49-.LEHB49
	.uleb128 .L586-.LFB1381
	.uleb128 0
	.uleb128 .LEHB50-.LFB1381
	.uleb128 .LEHE50-.LEHB50
	.uleb128 0
	.uleb128 0
.LLSDACSE1381:
	.section	.text._ZN10GuiElementD2Ev,"axG",@progbits,_ZN10GuiElementD5Ev,comdat
	.size	_ZN10GuiElementD2Ev, .-_ZN10GuiElementD2Ev
	.section	".text"
	.align 2
	.globl _ZN11GuiCheckboxC2Eiii
	.type	_ZN11GuiCheckboxC2Eiii, @function
_ZN11GuiCheckboxC2Eiii:
.LFB1602:
	.loc 3 45 0
	.cfi_startproc
	.cfi_personality 0,__gxx_personality_v0
	.cfi_lsda 0,.LLSDA1602
.LVL619:
	mflr 0
	stwu 1,-56(1)
.LCFI73:
	.cfi_def_cfa_offset 56
	.cfi_register 65, 0
	stw 20,8(1)
	mr 20,6
	.cfi_offset 20, -48
	stw 0,60(1)
	stw 26,32(1)
	stw 29,44(1)
	mr 29,4
	.cfi_offset 29, -12
	.cfi_offset 26, -24
	.cfi_offset 65, 4
	stw 30,48(1)
	mr 30,5
	.cfi_offset 30, -8
	stw 31,52(1)
	mr 31,3
	.cfi_offset 31, -4
	stw 21,12(1)
.LBB3698:
.LBB3699:
.LBB3700:
	.loc 6 32 0
	addi 26,31,312
.LBE3700:
.LBE3699:
.LBE3698:
	.loc 3 45 0
	stw 22,16(1)
	stw 23,20(1)
	stw 24,24(1)
	stw 25,28(1)
	stw 27,36(1)
	stw 28,40(1)
.LEHB51:
.LBB3773:
	.loc 3 46 0
	.cfi_offset 28, -16
	.cfi_offset 27, -20
	.cfi_offset 25, -28
	.cfi_offset 24, -32
	.cfi_offset 23, -36
	.cfi_offset 22, -40
	.cfi_offset 21, -44
	bl _ZN9GuiButtonC2Eii
.LEHE51:
.LVL620:
	lis 9,_ZTV11GuiCheckbox+8@ha
.LBB3704:
.LBB3701:
	.loc 6 32 0
	mr 3,26
.LBE3701:
.LBE3704:
	.loc 3 46 0
	la 0,_ZTV11GuiCheckbox+8@l(9)
	stw 0,0(31)
.LVL621:
.LEHB52:
.LBB3705:
.LBB3702:
	.loc 6 32 0
	bl _ZN10GuiElementC2Ev
.LEHE52:
	lis 28,.LC4@ha
	li 0,0
	lwz 9,.LC4@l(28)
	lis 21,_ZTV12GuiChecksign+8@ha
	la 21,_ZTV12GuiChecksign+8@l(21)
	stb 0,456(31)
	stb 0,457(31)
	li 3,12
	stb 0,458(31)
	li 0,-1
	stw 21,312(31)
	li 4,0
	stw 9,460(31)
	stb 0,459(31)
.LEHB53:
	bl GX_SetLineWidth
.LEHE53:
.LVL622:
.LBE3702:
.LBE3705:
.LBB3706:
.LBB3707:
	.loc 7 32 0 discriminator 1
	addi 25,31,464
	mr 3,25
.LEHB54:
	bl _ZN10GuiElementC2Ev
.LEHE54:
	.loc 7 32 0 is_stmt 0
	li 0,0
	lwz 9,.LC4@l(28)
	lis 22,_ZTV8GuiCross+8@ha
	stb 0,608(31)
	la 22,_ZTV8GuiCross+8@l(22)
	stb 0,609(31)
	stb 0,610(31)
	li 0,-1
	stw 22,464(31)
	li 3,12
	stw 9,612(31)
	li 4,0
	stb 0,611(31)
.LEHB55:
	bl GX_SetLineWidth
.LEHE55:
.LVL623:
.LBE3707:
.LBE3706:
.LBB3709:
.LBB3710:
	.loc 5 32 0 is_stmt 1 discriminator 2
	addi 23,31,616
	mr 3,23
.LEHB56:
	bl _ZN10GuiElementC2Ev
.LEHE56:
	.loc 5 32 0 is_stmt 0
	lis 28,_ZTV6GuiBox+8@ha
.LBE3710:
	.loc 5 35 0 is_stmt 1
	li 0,-1
.LBB3711:
	.loc 5 32 0
	la 28,_ZTV6GuiBox+8@l(28)
	li 9,1
.LBE3711:
.LBE3709:
.LBB3713:
.LBB3714:
	addi 24,31,780
.LBE3714:
.LBE3713:
.LBB3719:
.LBB3712:
	stw 28,616(31)
	stb 9,776(31)
.LVL624:
.LBE3712:
.LBE3719:
.LBB3720:
.LBB3715:
	mr 3,24
.LBE3715:
.LBE3720:
.LBB3721:
	.loc 5 35 0
	stb 0,760(31)
	stb 0,761(31)
	stb 0,762(31)
	stb 0,763(31)
.LVL625:
	stb 0,764(31)
	stb 0,765(31)
	stb 0,766(31)
	stb 0,767(31)
.LVL626:
	stb 0,768(31)
	stb 0,769(31)
	stb 0,770(31)
	stb 0,771(31)
.LVL627:
	stb 0,772(31)
	stb 0,773(31)
	stb 0,774(31)
	stb 0,775(31)
.LVL628:
.LEHB57:
.LBE3721:
.LBB3722:
.LBB3716:
	.loc 5 32 0
	bl _ZN10GuiElementC2Ev
.LEHE57:
.LBE3716:
	.loc 5 35 0
	li 0,-1
.LBE3722:
	.loc 3 53 0
	lis 27,.LC5@ha
.LBB3723:
.LBB3717:
	.loc 5 32 0
	li 9,1
.LBE3717:
	.loc 5 35 0
	stb 0,924(31)
	stb 0,925(31)
.LBE3723:
	.loc 3 53 0
	la 27,.LC5@l(27)
.LBB3724:
	.loc 5 35 0
	stb 0,926(31)
.LBE3724:
	.loc 3 53 0
	mr 3,27
.LBB3725:
	.loc 5 35 0
	stb 0,927(31)
	stb 0,928(31)
	stb 0,929(31)
	stb 0,930(31)
	stb 0,931(31)
	stb 0,932(31)
	stb 0,933(31)
	stb 0,934(31)
	stb 0,935(31)
	stb 0,936(31)
	stb 0,937(31)
	stb 0,938(31)
	stb 0,939(31)
.LBE3725:
	.loc 3 46 0
	li 0,0
.LBB3726:
.LBB3718:
	.loc 5 32 0
	stw 28,780(31)
	stb 9,940(31)
.LVL629:
.LBE3718:
.LBE3726:
	.loc 3 46 0
	stb 0,948(31)
	.loc 3 48 0
	stw 20,944(31)
.LVL630:
.LBB3727:
.LBB3728:
	.loc 2 92 0
	stw 31,408(31)
.LVL631:
.LBE3728:
.LBE3727:
.LBB3729:
.LBB3730:
	stw 31,560(31)
.LVL632:
.LBE3730:
.LBE3729:
.LBB3731:
.LBB3732:
	stw 31,712(31)
.LVL633:
.LBE3732:
.LBE3731:
.LBB3733:
.LBB3734:
	stw 31,876(31)
.LEHB58:
.LBE3734:
.LBE3733:
	.loc 3 53 0
	bl getThemeColor
	rlwinm 9,3,16,24,31
.LVL634:
	rlwinm 0,3,24,24,31
.LVL635:
	.loc 6 35 0
	rlwinm 11,3,8,24,31
	stb 3,459(31)
	stb 11,456(31)
	.loc 3 54 0
	mr 3,27
.LVL636:
	.loc 6 35 0
	stb 9,457(31)
	stb 0,458(31)
	.loc 3 54 0
	bl getThemeColor
.LVL637:
	.loc 3 54 0 is_stmt 0 discriminator 1
	rlwinm 9,3,16,24,31
.LVL638:
	rlwinm 0,3,24,24,31
.LVL639:
	.loc 7 35 0 is_stmt 1 discriminator 1
	rlwinm 11,3,8,24,31
	stb 3,611(31)
	stb 11,608(31)
	.loc 3 55 0 discriminator 1
	lis 3,.LC6@ha
.LVL640:
	.loc 7 35 0 discriminator 1
	stb 9,609(31)
	.loc 3 55 0 discriminator 1
	la 3,.LC6@l(3)
	.loc 7 35 0 discriminator 1
	stb 0,610(31)
	.loc 3 55 0 discriminator 1
	bl getThemeColor
.LVL641:
	srwi 11,3,24
.LVL642:
	rlwinm 9,3,16,24,31
.LVL643:
	rlwinm 0,3,24,24,31
.LVL644:
	rlwinm 3,3,0,0xff
.LVL645:
	.loc 5 35 0 discriminator 1
	stb 3,763(31)
.LVL646:
	stb 3,767(31)
.LVL647:
	stb 3,771(31)
.LVL648:
	stb 3,775(31)
.LVL649:
	.loc 3 56 0 discriminator 1
	lis 3,.LC7@ha
.LVL650:
	.loc 5 35 0 discriminator 1
	stb 11,760(31)
	.loc 3 56 0 discriminator 1
	la 3,.LC7@l(3)
	.loc 5 35 0 discriminator 1
	stb 9,761(31)
	stb 0,762(31)
	stb 11,764(31)
	stb 9,765(31)
	stb 0,766(31)
	stb 11,768(31)
	stb 9,769(31)
	stb 0,770(31)
	stb 11,772(31)
	stb 9,773(31)
	stb 0,774(31)
	.loc 3 56 0 discriminator 1
	bl getThemeColor
.LVL651:
	srwi 11,3,24
.LVL652:
	rlwinm 9,3,16,24,31
.LVL653:
	rlwinm 0,3,24,24,31
.LVL654:
	rlwinm 3,3,0,0xff
.LVL655:
	.loc 5 35 0 discriminator 1
	stb 11,924(31)
	stb 9,925(31)
	stb 0,926(31)
	stb 3,927(31)
.LVL656:
	stb 11,928(31)
	stb 9,929(31)
	stb 0,930(31)
	stb 3,931(31)
.LVL657:
	stb 11,932(31)
	stb 9,933(31)
	stb 0,934(31)
	stb 3,935(31)
.LVL658:
	stb 11,936(31)
.LBB3735:
.LBB3736:
	.loc 3 65 0 discriminator 1
	addi 11,29,-4
.LVL659:
.LBE3736:
.LBE3735:
	.loc 5 35 0 discriminator 1
	stb 9,937(31)
.LBB3756:
.LBB3753:
	.loc 3 65 0 discriminator 1
	addi 9,30,-4
.LVL660:
.LBE3753:
.LBE3756:
	.loc 5 35 0 discriminator 1
	stb 0,938(31)
.LBB3757:
.LBB3754:
.LBB3737:
.LBB3738:
	.loc 2 297 0 discriminator 1
	li 0,2
.LVL661:
.LBE3738:
.LBE3737:
.LBE3754:
.LBE3757:
	.loc 5 35 0 discriminator 1
	stb 3,939(31)
.LVL662:
.LBB3758:
.LBB3755:
	.loc 3 72 0 discriminator 1
	mr 3,31
.LVL663:
	lwz 10,0(31)
.LBB3740:
.LBB3739:
	.loc 2 297 0 discriminator 1
	stw 0,356(31)
	.loc 2 298 0 discriminator 1
	stw 0,360(31)
.LBE3739:
.LBE3740:
.LBB3741:
.LBB3742:
	.loc 2 297 0 discriminator 1
	stw 0,508(31)
	.loc 2 298 0 discriminator 1
	stw 0,512(31)
.LBE3742:
.LBE3741:
.LBB3743:
.LBB3744:
	.loc 2 297 0 discriminator 1
	stw 0,824(31)
	.loc 2 298 0 discriminator 1
	stw 0,828(31)
.LBE3744:
.LBE3743:
	.loc 3 72 0 discriminator 1
	lwz 0,180(10)
	.loc 3 63 0 discriminator 1
	stw 29,36(31)
	.loc 3 64 0 discriminator 1
	stw 30,40(31)
.LVL664:
	.loc 3 72 0 discriminator 1
	mtctr 0
.LBB3745:
.LBB3746:
	.loc 6 36 0 discriminator 1
	stw 11,348(31)
	stw 9,352(31)
.LVL665:
.LBE3746:
.LBE3745:
.LBB3747:
.LBB3748:
	.loc 7 36 0 discriminator 1
	stw 11,500(31)
	stw 9,504(31)
.LVL666:
.LBE3748:
.LBE3747:
.LBB3749:
.LBB3750:
	.loc 5 39 0 discriminator 1
	stw 29,652(31)
	stw 30,656(31)
.LVL667:
.LBE3750:
.LBE3749:
.LBB3751:
.LBB3752:
	stw 11,816(31)
	stw 9,820(31)
.LVL668:
.LBE3752:
.LBE3751:
	.loc 3 72 0 discriminator 1
	lwz 4,68(31)
	bctrl
.LEHE58:
.LVL669:
.LBE3755:
.LBE3758:
.LBE3773:
	.loc 3 59 0
	lwz 0,60(1)
	lwz 20,8(1)
.LVL670:
	mtlr 0
	lwz 21,12(1)
	lwz 22,16(1)
	lwz 23,20(1)
	lwz 24,24(1)
.LVL671:
	lwz 25,28(1)
	lwz 26,32(1)
.LVL672:
	lwz 27,36(1)
	lwz 28,40(1)
	lwz 29,44(1)
.LVL673:
	lwz 30,48(1)
.LVL674:
	lwz 31,52(1)
.LVL675:
	addi 1,1,56
	.cfi_remember_state
.LCFI74:
	.cfi_def_cfa_offset 0
	.cfi_restore 31
	.cfi_restore 30
	.cfi_restore 29
	.cfi_restore 28
	.cfi_restore 27
	.cfi_restore 26
	.cfi_restore 25
	.cfi_restore 24
	.cfi_restore 23
	.cfi_restore 22
	.cfi_restore 21
	.cfi_restore 20
	blr
.LVL676:
.L615:
.LCFI75:
	.cfi_restore_state
	mr 30,3
.LVL677:
.L604:
.LBB3774:
	.loc 3 46 0
	mr 3,31
	bl _ZN9GuiButtonD2Ev
	mr 3,30
.LEHB59:
	bl _Unwind_Resume
.LEHE59:
.LVL678:
.L619:
.LBB3759:
.LBB3760:
.LBB3761:
	.loc 5 29 0
	stw 28,780(31)
	mr 30,3
.LVL679:
	mr 3,24
	bl _ZN10GuiElementD2Ev
.LVL680:
.L610:
.LBE3761:
.LBE3760:
.LBE3759:
.LBB3762:
.LBB3763:
.LBB3764:
	stw 28,616(31)
	mr 3,23
	bl _ZN10GuiElementD2Ev
.LVL681:
.L612:
.LBE3764:
.LBE3763:
.LBE3762:
.LBB3765:
.LBB3766:
.LBB3767:
	.loc 7 29 0
	stw 22,464(31)
	mr 3,25
	bl _ZN10GuiElementD2Ev
.LVL682:
.L607:
.LBE3767:
.LBE3766:
.LBE3765:
.LBB3768:
.LBB3769:
.LBB3770:
	.loc 6 29 0
	stw 21,312(31)
	mr 3,26
	bl _ZN10GuiElementD2Ev
	b .L604
.LVL683:
.L618:
	mr 30,3
.LVL684:
	b .L610
.LVL685:
.L617:
	mr 30,3
.LVL686:
	b .L612
.LVL687:
.L621:
	mr 30,3
.LVL688:
.LBE3770:
.LBE3769:
.LBE3768:
.LBB3771:
.LBB3708:
	.loc 7 32 0
	mr 3,25
	bl _ZN10GuiElementD2Ev
	b .L607
.LVL689:
.L616:
	mr 30,3
.LVL690:
	b .L607
.LVL691:
.L620:
	mr 30,3
.LVL692:
.LBE3708:
.LBE3771:
.LBB3772:
.LBB3703:
	.loc 6 32 0
	mr 3,26
	bl _ZN10GuiElementD2Ev
	b .L604
.LBE3703:
.LBE3772:
.LBE3774:
	.cfi_endproc
.LFE1602:
	.section	.gcc_except_table
.LLSDA1602:
	.byte	0xff
	.byte	0xff
	.byte	0x1
	.uleb128 .LLSDACSE1602-.LLSDACSB1602
.LLSDACSB1602:
	.uleb128 .LEHB51-.LFB1602
	.uleb128 .LEHE51-.LEHB51
	.uleb128 0
	.uleb128 0
	.uleb128 .LEHB52-.LFB1602
	.uleb128 .LEHE52-.LEHB52
	.uleb128 .L615-.LFB1602
	.uleb128 0
	.uleb128 .LEHB53-.LFB1602
	.uleb128 .LEHE53-.LEHB53
	.uleb128 .L620-.LFB1602
	.uleb128 0
	.uleb128 .LEHB54-.LFB1602
	.uleb128 .LEHE54-.LEHB54
	.uleb128 .L616-.LFB1602
	.uleb128 0
	.uleb128 .LEHB55-.LFB1602
	.uleb128 .LEHE55-.LEHB55
	.uleb128 .L621-.LFB1602
	.uleb128 0
	.uleb128 .LEHB56-.LFB1602
	.uleb128 .LEHE56-.LEHB56
	.uleb128 .L617-.LFB1602
	.uleb128 0
	.uleb128 .LEHB57-.LFB1602
	.uleb128 .LEHE57-.LEHB57
	.uleb128 .L618-.LFB1602
	.uleb128 0
	.uleb128 .LEHB58-.LFB1602
	.uleb128 .LEHE58-.LEHB58
	.uleb128 .L619-.LFB1602
	.uleb128 0
	.uleb128 .LEHB59-.LFB1602
	.uleb128 .LEHE59-.LEHB59
	.uleb128 0
	.uleb128 0
.LLSDACSE1602:
	.section	".text"
	.size	_ZN11GuiCheckboxC2Eiii, .-_ZN11GuiCheckboxC2Eiii
	.align 2
	.globl _ZN11GuiCheckboxC2Ei
	.type	_ZN11GuiCheckboxC2Ei, @function
_ZN11GuiCheckboxC2Ei:
.LFB1599:
	.loc 3 29 0
	.cfi_startproc
	.cfi_personality 0,__gxx_personality_v0
	.cfi_lsda 0,.LLSDA1599
.LVL693:
	stwu 1,-48(1)
.LCFI76:
	.cfi_def_cfa_offset 48
	mflr 0
.LBB3832:
	.loc 3 30 0
	li 5,30
.LBE3832:
	.loc 3 29 0
	stw 22,8(1)
	mr 22,4
	.cfi_offset 22, -40
	.cfi_register 65, 0
.LBB3909:
	.loc 3 30 0
	li 4,30
.LVL694:
.LBE3909:
	.loc 3 29 0
	stw 0,52(1)
	stw 28,32(1)
	stw 31,44(1)
	mr 31,3
	.cfi_offset 31, -4
	.cfi_offset 28, -16
	.cfi_offset 65, 4
	stw 23,12(1)
.LBB3910:
.LBB3833:
.LBB3834:
	.loc 6 32 0
	addi 28,31,312
.LBE3834:
.LBE3833:
.LBE3910:
	.loc 3 29 0
	stw 24,16(1)
	stw 25,20(1)
	stw 26,24(1)
	stw 27,28(1)
	stw 29,36(1)
	stw 30,40(1)
.LEHB60:
.LBB3911:
	.loc 3 30 0
	.cfi_offset 30, -8
	.cfi_offset 29, -12
	.cfi_offset 27, -20
	.cfi_offset 26, -24
	.cfi_offset 25, -28
	.cfi_offset 24, -32
	.cfi_offset 23, -36
	bl _ZN9GuiButtonC2Eii
.LEHE60:
.LVL695:
	lis 9,_ZTV11GuiCheckbox+8@ha
.LBB3838:
.LBB3835:
	.loc 6 32 0
	mr 3,28
.LBE3835:
.LBE3838:
	.loc 3 30 0
	la 0,_ZTV11GuiCheckbox+8@l(9)
	stw 0,0(31)
.LVL696:
.LEHB61:
.LBB3839:
.LBB3836:
	.loc 6 32 0
	bl _ZN10GuiElementC2Ev
.LEHE61:
	lis 30,.LC4@ha
	li 0,0
	lwz 9,.LC4@l(30)
	lis 23,_ZTV12GuiChecksign+8@ha
	la 23,_ZTV12GuiChecksign+8@l(23)
	stb 0,456(31)
	stb 0,457(31)
	li 3,12
	stb 0,458(31)
	li 0,-1
	stw 23,312(31)
	li 4,0
	stw 9,460(31)
	stb 0,459(31)
.LEHB62:
	bl GX_SetLineWidth
.LEHE62:
.LVL697:
.LBE3836:
.LBE3839:
.LBB3840:
.LBB3841:
	.loc 7 32 0 discriminator 1
	addi 27,31,464
	mr 3,27
.LEHB63:
	bl _ZN10GuiElementC2Ev
.LEHE63:
	.loc 7 32 0 is_stmt 0
	li 0,0
	lwz 9,.LC4@l(30)
	lis 24,_ZTV8GuiCross+8@ha
	stb 0,608(31)
	la 24,_ZTV8GuiCross+8@l(24)
	stb 0,609(31)
	stb 0,610(31)
	li 0,-1
	stw 24,464(31)
	li 3,12
	stw 9,612(31)
	li 4,0
	stb 0,611(31)
.LEHB64:
	bl GX_SetLineWidth
.LEHE64:
.LVL698:
.LBE3841:
.LBE3840:
.LBB3843:
.LBB3844:
	.loc 5 32 0 is_stmt 1 discriminator 2
	addi 26,31,616
	mr 3,26
.LEHB65:
	bl _ZN10GuiElementC2Ev
.LEHE65:
	.loc 5 32 0 is_stmt 0
	lis 30,_ZTV6GuiBox+8@ha
.LBE3844:
	.loc 5 35 0 is_stmt 1
	li 0,-1
.LBB3845:
	.loc 5 32 0
	la 30,_ZTV6GuiBox+8@l(30)
	li 9,1
.LBE3845:
.LBE3843:
.LBB3847:
.LBB3848:
	addi 25,31,780
.LBE3848:
.LBE3847:
.LBB3853:
.LBB3846:
	stw 30,616(31)
	stb 9,776(31)
.LVL699:
.LBE3846:
.LBE3853:
.LBB3854:
.LBB3849:
	mr 3,25
.LBE3849:
.LBE3854:
.LBB3855:
	.loc 5 35 0
	stb 0,760(31)
	stb 0,761(31)
	stb 0,762(31)
	stb 0,763(31)
.LVL700:
	stb 0,764(31)
	stb 0,765(31)
	stb 0,766(31)
	stb 0,767(31)
.LVL701:
	stb 0,768(31)
	stb 0,769(31)
	stb 0,770(31)
	stb 0,771(31)
.LVL702:
	stb 0,772(31)
	stb 0,773(31)
	stb 0,774(31)
	stb 0,775(31)
.LVL703:
.LEHB66:
.LBE3855:
.LBB3856:
.LBB3850:
	.loc 5 32 0
	bl _ZN10GuiElementC2Ev
.LEHE66:
.LBE3850:
	.loc 5 35 0
	li 0,-1
.LBE3856:
	.loc 3 37 0
	lis 29,.LC5@ha
.LBB3857:
.LBB3851:
	.loc 5 32 0
	li 9,1
.LBE3851:
	.loc 5 35 0
	stb 0,924(31)
	stb 0,925(31)
.LBE3857:
	.loc 3 37 0
	la 29,.LC5@l(29)
.LBB3858:
	.loc 5 35 0
	stb 0,926(31)
.LBE3858:
	.loc 3 37 0
	mr 3,29
.LBB3859:
	.loc 5 35 0
	stb 0,927(31)
	stb 0,928(31)
	stb 0,929(31)
	stb 0,930(31)
	stb 0,931(31)
	stb 0,932(31)
	stb 0,933(31)
	stb 0,934(31)
	stb 0,935(31)
	stb 0,936(31)
	stb 0,937(31)
	stb 0,938(31)
	stb 0,939(31)
.LBE3859:
	.loc 3 30 0
	li 0,0
.LBB3860:
.LBB3852:
	.loc 5 32 0
	stw 30,780(31)
	stb 9,940(31)
.LVL704:
.LBE3852:
.LBE3860:
	.loc 3 30 0
	stb 0,948(31)
	.loc 3 32 0
	stw 22,944(31)
.LVL705:
.LBB3861:
.LBB3862:
	.loc 2 92 0
	stw 31,408(31)
.LVL706:
.LBE3862:
.LBE3861:
.LBB3863:
.LBB3864:
	stw 31,560(31)
.LVL707:
.LBE3864:
.LBE3863:
.LBB3865:
.LBB3866:
	stw 31,712(31)
.LVL708:
.LBE3866:
.LBE3865:
.LBB3867:
.LBB3868:
	stw 31,876(31)
.LEHB67:
.LBE3868:
.LBE3867:
	.loc 3 37 0
	bl getThemeColor
	rlwinm 9,3,16,24,31
.LVL709:
	rlwinm 0,3,24,24,31
.LVL710:
	.loc 6 35 0
	rlwinm 11,3,8,24,31
	stb 3,459(31)
	stb 11,456(31)
	.loc 3 38 0
	mr 3,29
.LVL711:
	.loc 6 35 0
	stb 9,457(31)
	stb 0,458(31)
	.loc 3 38 0
	bl getThemeColor
.LVL712:
	.loc 3 38 0 is_stmt 0 discriminator 1
	rlwinm 9,3,16,24,31
.LVL713:
	rlwinm 0,3,24,24,31
.LVL714:
	.loc 7 35 0 is_stmt 1 discriminator 1
	rlwinm 11,3,8,24,31
	stb 3,611(31)
	stb 11,608(31)
	.loc 3 39 0 discriminator 1
	lis 3,.LC6@ha
.LVL715:
	.loc 7 35 0 discriminator 1
	stb 9,609(31)
	.loc 3 39 0 discriminator 1
	la 3,.LC6@l(3)
	.loc 7 35 0 discriminator 1
	stb 0,610(31)
	.loc 3 39 0 discriminator 1
	bl getThemeColor
.LVL716:
	srwi 11,3,24
.LVL717:
	rlwinm 9,3,16,24,31
.LVL718:
	rlwinm 0,3,24,24,31
.LVL719:
	rlwinm 3,3,0,0xff
.LVL720:
	.loc 5 35 0 discriminator 1
	stb 3,763(31)
.LVL721:
	stb 3,767(31)
.LVL722:
	stb 3,771(31)
.LVL723:
	stb 3,775(31)
.LVL724:
	.loc 3 40 0 discriminator 1
	lis 3,.LC7@ha
.LVL725:
	.loc 5 35 0 discriminator 1
	stb 11,760(31)
	.loc 3 40 0 discriminator 1
	la 3,.LC7@l(3)
	.loc 5 35 0 discriminator 1
	stb 9,761(31)
	stb 0,762(31)
	stb 11,764(31)
	stb 9,765(31)
	stb 0,766(31)
	stb 11,768(31)
	stb 9,769(31)
	stb 0,770(31)
	stb 11,772(31)
	stb 9,773(31)
	stb 0,774(31)
	.loc 3 40 0 discriminator 1
	bl getThemeColor
.LVL726:
	srwi 11,3,24
.LVL727:
	rlwinm 9,3,16,24,31
.LVL728:
	rlwinm 0,3,24,24,31
.LVL729:
	rlwinm 3,3,0,0xff
.LVL730:
	.loc 5 35 0 discriminator 1
	stb 11,924(31)
	stb 9,925(31)
	stb 0,926(31)
	stb 3,927(31)
.LVL731:
	stb 11,928(31)
	stb 9,929(31)
	stb 0,930(31)
	stb 3,931(31)
.LVL732:
	stb 11,932(31)
	stb 9,933(31)
	stb 0,934(31)
	stb 3,935(31)
.LVL733:
	stb 11,936(31)
.LBB3869:
.LBB3870:
	.loc 3 63 0 discriminator 1
	li 11,30
.LVL734:
.LBE3870:
.LBE3869:
	.loc 5 35 0 discriminator 1
	stb 9,937(31)
.LBB3892:
.LBB3889:
.LBB3871:
.LBB3872:
	.loc 6 36 0 discriminator 1
	li 9,26
.LVL735:
.LBE3872:
.LBE3871:
.LBE3889:
.LBE3892:
	.loc 5 35 0 discriminator 1
	stb 0,938(31)
.LBB3893:
.LBB3890:
.LBB3874:
.LBB3875:
	.loc 2 297 0 discriminator 1
	li 0,2
.LVL736:
.LBE3875:
.LBE3874:
.LBE3890:
.LBE3893:
	.loc 5 35 0 discriminator 1
	stb 3,939(31)
.LVL737:
.LBB3894:
.LBB3891:
	.loc 3 72 0 discriminator 1
	mr 3,31
.LVL738:
	lwz 10,0(31)
.LBB3877:
.LBB3876:
	.loc 2 297 0 discriminator 1
	stw 0,356(31)
	.loc 2 298 0 discriminator 1
	stw 0,360(31)
.LBE3876:
.LBE3877:
.LBB3878:
.LBB3879:
	.loc 2 297 0 discriminator 1
	stw 0,508(31)
	.loc 2 298 0 discriminator 1
	stw 0,512(31)
.LBE3879:
.LBE3878:
.LBB3880:
.LBB3881:
	.loc 2 297 0 discriminator 1
	stw 0,824(31)
	.loc 2 298 0 discriminator 1
	stw 0,828(31)
.LBE3881:
.LBE3880:
	.loc 3 72 0 discriminator 1
	lwz 0,180(10)
	.loc 3 63 0 discriminator 1
	stw 11,36(31)
	.loc 3 64 0 discriminator 1
	stw 11,40(31)
.LVL739:
	.loc 3 72 0 discriminator 1
	mtctr 0
.LBB3882:
.LBB3873:
	.loc 6 36 0 discriminator 1
	stw 9,348(31)
	stw 9,352(31)
.LVL740:
.LBE3873:
.LBE3882:
.LBB3883:
.LBB3884:
	.loc 7 36 0 discriminator 1
	stw 9,500(31)
	stw 9,504(31)
.LVL741:
.LBE3884:
.LBE3883:
.LBB3885:
.LBB3886:
	.loc 5 39 0 discriminator 1
	stw 11,652(31)
	stw 11,656(31)
.LVL742:
.LBE3886:
.LBE3885:
.LBB3887:
.LBB3888:
	stw 9,816(31)
	stw 9,820(31)
.LVL743:
.LBE3888:
.LBE3887:
	.loc 3 72 0 discriminator 1
	lwz 4,68(31)
	bctrl
.LEHE67:
.LBE3891:
.LBE3894:
.LBE3911:
	.loc 3 43 0
	lwz 0,52(1)
	lwz 22,8(1)
.LVL744:
	mtlr 0
	lwz 23,12(1)
	lwz 24,16(1)
	lwz 25,20(1)
.LVL745:
	lwz 26,24(1)
	lwz 27,28(1)
	lwz 28,32(1)
.LVL746:
	lwz 29,36(1)
	lwz 30,40(1)
	lwz 31,44(1)
.LVL747:
	addi 1,1,48
	.cfi_remember_state
.LCFI77:
	.cfi_def_cfa_offset 0
	.cfi_restore 31
	.cfi_restore 30
	.cfi_restore 29
	.cfi_restore 28
	.cfi_restore 27
	.cfi_restore 26
	.cfi_restore 25
	.cfi_restore 24
	.cfi_restore 23
	.cfi_restore 22
	blr
.LVL748:
.L639:
.LCFI78:
	.cfi_restore_state
	mr 30,3
.L628:
.LBB3912:
	.loc 3 30 0
	mr 3,31
	bl _ZN9GuiButtonD2Ev
	mr 3,30
.LEHB68:
	bl _Unwind_Resume
.LEHE68:
.LVL749:
.L643:
.LBB3895:
.LBB3896:
.LBB3897:
	.loc 5 29 0
	stw 30,780(31)
	mr 29,3
.LVL750:
	mr 3,25
	bl _ZN10GuiElementD2Ev
.LVL751:
.L634:
.LBE3897:
.LBE3896:
.LBE3895:
.LBB3898:
.LBB3899:
.LBB3900:
	stw 30,616(31)
	mr 3,26
	mr 30,29
	bl _ZN10GuiElementD2Ev
.LVL752:
.L636:
.LBE3900:
.LBE3899:
.LBE3898:
.LBB3901:
.LBB3902:
.LBB3903:
	.loc 7 29 0
	stw 24,464(31)
	mr 3,27
	bl _ZN10GuiElementD2Ev
.LVL753:
.L631:
.LBE3903:
.LBE3902:
.LBE3901:
.LBB3904:
.LBB3905:
.LBB3906:
	.loc 6 29 0
	stw 23,312(31)
	mr 3,28
	bl _ZN10GuiElementD2Ev
	b .L628
.LVL754:
.L642:
	mr 29,3
	b .L634
.LVL755:
.L641:
	mr 30,3
	b .L636
.LVL756:
.L645:
	mr 30,3
.LBE3906:
.LBE3905:
.LBE3904:
.LBB3907:
.LBB3842:
	.loc 7 32 0
	mr 3,27
	bl _ZN10GuiElementD2Ev
	b .L631
.L640:
	mr 30,3
	b .L631
.LVL757:
.L644:
	mr 30,3
.LBE3842:
.LBE3907:
.LBB3908:
.LBB3837:
	.loc 6 32 0
	mr 3,28
	bl _ZN10GuiElementD2Ev
	b .L628
.LBE3837:
.LBE3908:
.LBE3912:
	.cfi_endproc
.LFE1599:
	.section	.gcc_except_table
.LLSDA1599:
	.byte	0xff
	.byte	0xff
	.byte	0x1
	.uleb128 .LLSDACSE1599-.LLSDACSB1599
.LLSDACSB1599:
	.uleb128 .LEHB60-.LFB1599
	.uleb128 .LEHE60-.LEHB60
	.uleb128 0
	.uleb128 0
	.uleb128 .LEHB61-.LFB1599
	.uleb128 .LEHE61-.LEHB61
	.uleb128 .L639-.LFB1599
	.uleb128 0
	.uleb128 .LEHB62-.LFB1599
	.uleb128 .LEHE62-.LEHB62
	.uleb128 .L644-.LFB1599
	.uleb128 0
	.uleb128 .LEHB63-.LFB1599
	.uleb128 .LEHE63-.LEHB63
	.uleb128 .L640-.LFB1599
	.uleb128 0
	.uleb128 .LEHB64-.LFB1599
	.uleb128 .LEHE64-.LEHB64
	.uleb128 .L645-.LFB1599
	.uleb128 0
	.uleb128 .LEHB65-.LFB1599
	.uleb128 .LEHE65-.LEHB65
	.uleb128 .L641-.LFB1599
	.uleb128 0
	.uleb128 .LEHB66-.LFB1599
	.uleb128 .LEHE66-.LEHB66
	.uleb128 .L642-.LFB1599
	.uleb128 0
	.uleb128 .LEHB67-.LFB1599
	.uleb128 .LEHE67-.LEHB67
	.uleb128 .L643-.LFB1599
	.uleb128 0
	.uleb128 .LEHB68-.LFB1599
	.uleb128 .LEHE68-.LEHB68
	.uleb128 0
	.uleb128 0
.LLSDACSE1599:
	.section	".text"
	.size	_ZN11GuiCheckboxC2Ei, .-_ZN11GuiCheckboxC2Ei
	.section	.text._ZN7sigslot7signal3IP10GuiElementiiNS_15single_threadedEED0Ev,"axG",@progbits,_ZN7sigslot7signal3IP10GuiElementiiNS_15single_threadedEED5Ev,comdat
	.align 2
	.weak	_ZN7sigslot7signal3IP10GuiElementiiNS_15single_threadedEED0Ev
	.type	_ZN7sigslot7signal3IP10GuiElementiiNS_15single_threadedEED0Ev, @function
_ZN7sigslot7signal3IP10GuiElementiiNS_15single_threadedEED0Ev:
.LFB1621:
	.loc 1 2302 0
	.cfi_startproc
	.cfi_personality 0,__gxx_personality_v0
	.cfi_lsda 0,.LLSDA1621
.LVL758:
	mflr 0
	stwu 1,-40(1)
.LCFI79:
	.cfi_def_cfa_offset 40
	.cfi_register 65, 0
.LBB4011:
.LBB4012:
.LBB4013:
.LBB4014:
.LBB4015:
.LBB4016:
	.loc 1 946 0
	lis 9,_ZTVN7sigslot13_signal_base3IP10GuiElementiiNS_15single_threadedEEE+8@ha
.LBE4016:
.LBE4015:
.LBE4014:
.LBE4013:
.LBE4012:
.LBE4011:
	.loc 1 2302 0
	stw 28,24(1)
	mr 28,3
	.cfi_offset 28, -16
.LVL759:
	stw 0,44(1)
.LBB4113:
.LBB4109:
.LBB4105:
.LBB4101:
.LBB4097:
.LBB4093:
	.loc 1 946 0
	la 0,_ZTVN7sigslot13_signal_base3IP10GuiElementiiNS_15single_threadedEEE+8@l(9)
	.cfi_offset 65, 4
.LBE4093:
.LBE4097:
.LBE4101:
.LBE4105:
.LBE4109:
.LBE4113:
	.loc 1 2302 0
	stw 29,28(1)
	addi 29,3,4
	.cfi_offset 29, -12
	stw 30,32(1)
	stw 31,36(1)
.LBB4114:
.LBB4110:
.LBB4106:
.LBB4102:
.LBB4098:
.LBB4094:
	.loc 1 946 0
	stw 0,0(3)
.LVL760:
.LEHB69:
.LBB4017:
.LBB4018:
.LBB4019:
.LBB4020:
	.loc 1 338 0
	.cfi_offset 31, -4
	.cfi_offset 30, -8
	bl _ZN7sigslot15single_threaded4lockEv
.LEHE69:
.LVL761:
.LBE4020:
.LBE4019:
.LBE4018:
	.loc 3 144 0
	mr 29,28
.LVL762:
	lwzu 31,4(29)
.LVL763:
.LBB4051:
	.loc 1 954 0
	cmpw 7,31,29
	beq- 7,.L650
.LVL764:
.L689:
	.loc 1 956 0
	lwz 3,8(31)
	lwz 9,0(3)
	lwz 0,8(9)
	mtctr 0
.LEHB70:
	bctrl
.LBB4021:
.LBB4022:
.LBB4023:
.LBB4024:
	.loc 1 338 0
	lwz 9,0(3)
.LBE4024:
.LBE4023:
.LBE4022:
.LBE4021:
	.loc 1 956 0
	mr 30,3
.LVL765:
	stw 28,8(1)
.LVL766:
.LBB4033:
.LBB4032:
.LBB4026:
.LBB4025:
	.loc 1 338 0
	lwz 0,8(9)
	mtctr 0
	bctrl
.LVL767:
.LBE4025:
.LBE4026:
.LBB4027:
.LBB4028:
	.loc 10 528 0
	addi 3,30,4
	addi 4,1,8
	bl _ZNSt8_Rb_treeIPN7sigslot12_signal_baseINS0_15single_threadedEEES4_St9_IdentityIS4_ESt4lessIS4_ESaIS4_EE5eraseERKS4_
.LVL768:
.LBE4028:
.LBE4027:
.LBB4029:
.LBB4030:
.LBB4031:
	.loc 1 343 0
	lwz 9,0(30)
	mr 3,30
	lwz 0,12(9)
	mtctr 0
	bctrl
.LVL769:
.LBE4031:
.LBE4030:
.LBE4029:
.LBE4032:
.LBE4033:
	.loc 1 957 0
	lwz 3,8(31)
	cmpwi 7,3,0
	beq- 7,.L652
	lwz 9,0(3)
	lwz 0,4(9)
	mtctr 0
	bctrl
.LEHE70:
.L652:
.LVL770:
.LBB4034:
.LBB4035:
	.loc 4 234 0
	lwz 31,0(31)
.LVL771:
.LBE4035:
.LBE4034:
	.loc 1 954 0
	cmpw 7,29,31
	bne+ 7,.L689
.LBE4051:
	.loc 3 144 0
	lwz 31,4(28)
.LVL772:
.LBB4052:
.LBB4036:
.LBB4037:
	.loc 4 1162 0
	cmpw 7,29,31
	bne+ 7,.L691
	b .L650
.LVL773:
.L684:
	.loc 4 1163 0
	mr 31,30
.LVL774:
.L691:
.LBB4038:
.LBB4039:
	.loc 11 112 0
	lwz 30,0(31)
.LVL775:
.LBB4040:
.LBB4041:
	.loc 4 1532 0
	mr 3,31
	bl _ZNSt8__detail15_List_node_base9_M_unhookEv
.LVL776:
.LBB4042:
.LBB4043:
.LBB4044:
	.loc 8 98 0
	mr 3,31
	bl _ZdlPv
.LVL777:
.LBE4044:
.LBE4043:
.LBE4042:
.LBE4041:
.LBE4040:
.LBE4039:
.LBE4038:
	.loc 4 1162 0
	cmpw 7,29,30
	bne+ 7,.L684
.LVL778:
.L650:
.LBE4037:
.LBE4036:
.LBB4045:
.LBB4046:
.LBB4047:
	.loc 1 343 0
	lwz 9,0(28)
	mr 3,28
	lwz 0,12(9)
	mtctr 0
.LEHB71:
	bctrl
.LEHE71:
.LBE4047:
.LBE4046:
.LBE4045:
.LBE4052:
.LBE4017:
.LBB4054:
.LBB4055:
.LBB4056:
.LBB4057:
.LBB4058:
.LBB4059:
	.loc 11 70 0
	lwz 3,4(28)
.LVL779:
	.loc 11 71 0
	cmpw 7,3,29
	bne+ 7,.L693
	b .L668
.LVL780:
.L685:
	.loc 11 74 0
	mr 3,31
.LVL781:
.L693:
.LBB4060:
	lwz 31,0(3)
.LVL782:
.LBB4061:
.LBB4062:
.LBB4063:
	.loc 8 98 0
	bl _ZdlPv
.LVL783:
.LBE4063:
.LBE4062:
.LBE4061:
.LBE4060:
	.loc 11 71 0
	cmpw 7,31,29
	bne+ 7,.L685
.LVL784:
.L668:
.LBE4059:
.LBE4058:
.LBE4057:
.LBE4056:
.LBE4055:
.LBE4054:
.LBB4064:
.LBB4065:
.LBB4066:
.LBB4067:
.LBB4068:
.LBB4069:
	.loc 1 105 0
	lis 9,_ZTVN7sigslot15single_threadedE+8@ha
.LBE4069:
.LBE4068:
.LBE4067:
.LBE4066:
.LBE4065:
.LBE4064:
.LBE4094:
.LBE4098:
.LBE4102:
.LBE4106:
.LBE4110:
.LBE4114:
	.loc 1 2305 0
	mr 3,28
.LBB4115:
.LBB4111:
.LBB4107:
.LBB4103:
.LBB4099:
.LBB4095:
.LBB4075:
.LBB4074:
.LBB4073:
.LBB4072:
.LBB4071:
.LBB4070:
	.loc 1 105 0
	la 0,_ZTVN7sigslot15single_threadedE+8@l(9)
	stw 0,0(28)
.LBE4070:
.LBE4071:
.LBE4072:
.LBE4073:
.LBE4074:
.LBE4075:
.LBE4095:
.LBE4099:
.LBE4103:
.LBE4107:
.LBE4111:
.LBE4115:
	.loc 1 2305 0
	bl _ZdlPv
	lwz 0,44(1)
	lwz 28,24(1)
.LVL785:
	mtlr 0
	lwz 29,28(1)
.LVL786:
	lwz 30,32(1)
	lwz 31,36(1)
	addi 1,1,40
	.cfi_remember_state
.LCFI80:
	.cfi_def_cfa_offset 0
	.cfi_restore 31
	.cfi_restore 30
	.cfi_restore 29
	.cfi_restore 28
	blr
.LVL787:
.L687:
.LCFI81:
	.cfi_restore_state
	mr 31,3
.L660:
.LBB4116:
.LBB4112:
.LBB4108:
.LBB4104:
.LBB4100:
.LBB4096:
.LBB4076:
.LBB4077:
.LBB4078:
.LBB4079:
.LBB4080:
.LBB4081:
	.loc 11 70 0
	lwz 3,4(28)
.LVL788:
	.loc 11 71 0
	cmpw 7,3,29
	beq- 7,.L677
.LVL789:
.L694:
.LBB4082:
	.loc 11 74 0
	lwz 30,0(3)
.LVL790:
.LBB4083:
.LBB4084:
.LBB4085:
	.loc 8 98 0
	bl _ZdlPv
.LVL791:
.LBE4085:
.LBE4084:
.LBE4083:
.LBE4082:
	.loc 11 71 0
	cmpw 7,30,29
	beq- 7,.L677
	.loc 11 74 0
	mr 3,30
	b .L694
.LVL792:
.L688:
.LBE4081:
.LBE4080:
.LBE4079:
.LBE4078:
.LBE4077:
.LBE4076:
.LBB4086:
.LBB4053:
.LBB4048:
.LBB4049:
.LBB4050:
	.loc 1 343 0
	lwz 9,0(28)
	mr 31,3
.LVL793:
	mr 3,28
	lwz 0,12(9)
	mtctr 0
	bctrl
	b .L660
.LVL794:
.L677:
.LBE4050:
.LBE4049:
.LBE4048:
.LBE4053:
.LBE4086:
.LBB4087:
.LBB4088:
.LBB4089:
.LBB4090:
.LBB4091:
.LBB4092:
	.loc 1 105 0
	lis 9,_ZTVN7sigslot15single_threadedE+8@ha
	mr 3,31
	la 0,_ZTVN7sigslot15single_threadedE+8@l(9)
	stw 0,0(28)
.LEHB72:
	bl _Unwind_Resume
.LEHE72:
.LBE4092:
.LBE4091:
.LBE4090:
.LBE4089:
.LBE4088:
.LBE4087:
.LBE4096:
.LBE4100:
.LBE4104:
.LBE4108:
.LBE4112:
.LBE4116:
	.cfi_endproc
.LFE1621:
	.section	.gcc_except_table
.LLSDA1621:
	.byte	0xff
	.byte	0xff
	.byte	0x1
	.uleb128 .LLSDACSE1621-.LLSDACSB1621
.LLSDACSB1621:
	.uleb128 .LEHB69-.LFB1621
	.uleb128 .LEHE69-.LEHB69
	.uleb128 .L687-.LFB1621
	.uleb128 0
	.uleb128 .LEHB70-.LFB1621
	.uleb128 .LEHE70-.LEHB70
	.uleb128 .L688-.LFB1621
	.uleb128 0
	.uleb128 .LEHB71-.LFB1621
	.uleb128 .LEHE71-.LEHB71
	.uleb128 .L687-.LFB1621
	.uleb128 0
	.uleb128 .LEHB72-.LFB1621
	.uleb128 .LEHE72-.LEHB72
	.uleb128 0
	.uleb128 0
.LLSDACSE1621:
	.section	.text._ZN7sigslot7signal3IP10GuiElementiiNS_15single_threadedEED0Ev,"axG",@progbits,_ZN7sigslot7signal3IP10GuiElementiiNS_15single_threadedEED5Ev,comdat
	.size	_ZN7sigslot7signal3IP10GuiElementiiNS_15single_threadedEED0Ev, .-_ZN7sigslot7signal3IP10GuiElementiiNS_15single_threadedEED0Ev
	.section	.text._ZN7sigslot7signal3IP10GuiElementiiNS_15single_threadedEED2Ev,"axG",@progbits,_ZN7sigslot7signal3IP10GuiElementiiNS_15single_threadedEED5Ev,comdat
	.align 2
	.weak	_ZN7sigslot7signal3IP10GuiElementiiNS_15single_threadedEED2Ev
	.type	_ZN7sigslot7signal3IP10GuiElementiiNS_15single_threadedEED2Ev, @function
_ZN7sigslot7signal3IP10GuiElementiiNS_15single_threadedEED2Ev:
.LFB1619:
	.loc 1 2302 0
	.cfi_startproc
	.cfi_personality 0,__gxx_personality_v0
	.cfi_lsda 0,.LLSDA1619
.LVL795:
	mflr 0
	stwu 1,-40(1)
.LCFI82:
	.cfi_def_cfa_offset 40
	.cfi_register 65, 0
.LBB4214:
.LBB4215:
.LBB4216:
.LBB4217:
	.loc 1 946 0
	lis 9,_ZTVN7sigslot13_signal_base3IP10GuiElementiiNS_15single_threadedEEE+8@ha
.LBE4217:
.LBE4216:
.LBE4215:
.LBE4214:
	.loc 1 2302 0
	stw 28,24(1)
	mr 28,3
	.cfi_offset 28, -16
.LVL796:
	stw 0,44(1)
.LBB4315:
.LBB4310:
.LBB4305:
.LBB4300:
	.loc 1 946 0
	la 0,_ZTVN7sigslot13_signal_base3IP10GuiElementiiNS_15single_threadedEEE+8@l(9)
	.cfi_offset 65, 4
.LBE4300:
.LBE4305:
.LBE4310:
.LBE4315:
	.loc 1 2302 0
	stw 29,28(1)
	addi 29,3,4
	.cfi_offset 29, -12
	stw 30,32(1)
	stw 31,36(1)
.LBB4316:
.LBB4311:
.LBB4306:
.LBB4301:
	.loc 1 946 0
	stw 0,0(3)
.LVL797:
.LEHB73:
.LBB4218:
.LBB4219:
.LBB4220:
.LBB4221:
	.loc 1 338 0
	.cfi_offset 31, -4
	.cfi_offset 30, -8
	bl _ZN7sigslot15single_threaded4lockEv
.LEHE73:
.LVL798:
.LBE4221:
.LBE4220:
.LBE4219:
	.loc 3 144 0
	mr 29,28
	lwzu 31,4(29)
.LVL799:
.LBB4252:
	.loc 1 954 0
	cmpw 7,31,29
	beq- 7,.L696
.LVL800:
.L734:
	.loc 1 956 0
	lwz 3,8(31)
	lwz 9,0(3)
	lwz 0,8(9)
	mtctr 0
.LEHB74:
	bctrl
.LBB4222:
.LBB4223:
.LBB4224:
.LBB4225:
	.loc 1 338 0
	lwz 9,0(3)
.LBE4225:
.LBE4224:
.LBE4223:
.LBE4222:
	.loc 1 956 0
	mr 30,3
.LVL801:
	stw 28,8(1)
.LVL802:
.LBB4234:
.LBB4233:
.LBB4227:
.LBB4226:
	.loc 1 338 0
	lwz 0,8(9)
	mtctr 0
	bctrl
.LVL803:
.LBE4226:
.LBE4227:
.LBB4228:
.LBB4229:
	.loc 10 528 0
	addi 3,30,4
	addi 4,1,8
	bl _ZNSt8_Rb_treeIPN7sigslot12_signal_baseINS0_15single_threadedEEES4_St9_IdentityIS4_ESt4lessIS4_ESaIS4_EE5eraseERKS4_
.LVL804:
.LBE4229:
.LBE4228:
.LBB4230:
.LBB4231:
.LBB4232:
	.loc 1 343 0
	lwz 9,0(30)
	mr 3,30
	lwz 0,12(9)
	mtctr 0
	bctrl
.LVL805:
.LBE4232:
.LBE4231:
.LBE4230:
.LBE4233:
.LBE4234:
	.loc 1 957 0
	lwz 3,8(31)
	cmpwi 7,3,0
	beq- 7,.L698
	lwz 9,0(3)
	lwz 0,4(9)
	mtctr 0
	bctrl
.LEHE74:
.L698:
.LVL806:
.LBB4235:
.LBB4236:
	.loc 4 234 0
	lwz 31,0(31)
.LVL807:
.LBE4236:
.LBE4235:
	.loc 1 954 0
	cmpw 7,29,31
	bne+ 7,.L734
.LBE4252:
	.loc 3 144 0
	lwz 31,4(28)
.LVL808:
.LBB4253:
.LBB4237:
.LBB4238:
	.loc 4 1162 0
	cmpw 7,29,31
	bne+ 7,.L736
	b .L696
.LVL809:
.L729:
	.loc 4 1163 0
	mr 31,30
.LVL810:
.L736:
.LBB4239:
.LBB4240:
	.loc 11 112 0
	lwz 30,0(31)
.LVL811:
.LBB4241:
.LBB4242:
	.loc 4 1532 0
	mr 3,31
	bl _ZNSt8__detail15_List_node_base9_M_unhookEv
.LVL812:
.LBB4243:
.LBB4244:
.LBB4245:
	.loc 8 98 0
	mr 3,31
	bl _ZdlPv
.LVL813:
.LBE4245:
.LBE4244:
.LBE4243:
.LBE4242:
.LBE4241:
.LBE4240:
.LBE4239:
	.loc 4 1162 0
	cmpw 7,29,30
	bne+ 7,.L729
.LVL814:
.L696:
.LBE4238:
.LBE4237:
.LBB4246:
.LBB4247:
.LBB4248:
	.loc 1 343 0
	lwz 9,0(28)
	mr 3,28
	lwz 0,12(9)
	mtctr 0
.LEHB75:
	bctrl
.LEHE75:
.LBE4248:
.LBE4247:
.LBE4246:
.LBE4253:
.LBE4218:
.LBB4255:
.LBB4256:
.LBB4257:
.LBB4258:
.LBB4259:
.LBB4260:
	.loc 11 70 0
	lwz 3,4(28)
.LVL815:
	.loc 11 71 0
	cmpw 7,3,29
	bne+ 7,.L738
	b .L714
.LVL816:
.L730:
	.loc 11 74 0
	mr 3,31
.LVL817:
.L738:
.LBB4261:
	lwz 31,0(3)
.LVL818:
.LBB4262:
.LBB4263:
.LBB4264:
	.loc 8 98 0
	bl _ZdlPv
.LVL819:
.LBE4264:
.LBE4263:
.LBE4262:
.LBE4261:
	.loc 11 71 0
	cmpw 7,31,29
	bne+ 7,.L730
.LVL820:
.L714:
.LBE4260:
.LBE4259:
.LBE4258:
.LBE4257:
.LBE4256:
.LBE4255:
.LBB4265:
.LBB4266:
.LBB4267:
.LBB4268:
.LBB4269:
.LBB4270:
	.loc 1 105 0
	lis 9,_ZTVN7sigslot15single_threadedE+8@ha
.LBE4270:
.LBE4269:
.LBE4268:
.LBE4267:
.LBE4266:
.LBE4265:
.LBE4301:
.LBE4306:
.LBE4311:
.LBE4316:
	.loc 1 2305 0
	lwz 29,28(1)
.LVL821:
.LBB4317:
.LBB4312:
.LBB4307:
.LBB4302:
.LBB4281:
.LBB4279:
.LBB4277:
.LBB4275:
.LBB4273:
.LBB4271:
	.loc 1 105 0
	la 0,_ZTVN7sigslot15single_threadedE+8@l(9)
.LBE4271:
.LBE4273:
.LBE4275:
.LBE4277:
.LBE4279:
.LBE4281:
.LBE4302:
.LBE4307:
.LBE4312:
.LBE4317:
	.loc 1 2305 0
	lwz 30,32(1)
.LBB4318:
.LBB4313:
.LBB4308:
.LBB4303:
.LBB4282:
.LBB4280:
.LBB4278:
.LBB4276:
.LBB4274:
.LBB4272:
	.loc 1 105 0
	stw 0,0(28)
.LBE4272:
.LBE4274:
.LBE4276:
.LBE4278:
.LBE4280:
.LBE4282:
.LBE4303:
.LBE4308:
.LBE4313:
.LBE4318:
	.loc 1 2305 0
	lwz 0,44(1)
	lwz 28,24(1)
.LVL822:
	mtlr 0
	lwz 31,36(1)
	addi 1,1,40
	.cfi_remember_state
.LCFI83:
	.cfi_def_cfa_offset 0
	.cfi_restore 31
	.cfi_restore 30
	.cfi_restore 29
	.cfi_restore 28
	blr
.LVL823:
.L732:
.LCFI84:
	.cfi_restore_state
	mr 31,3
.L706:
.LBB4319:
.LBB4314:
.LBB4309:
.LBB4304:
.LBB4283:
.LBB4284:
.LBB4285:
.LBB4286:
.LBB4287:
.LBB4288:
	.loc 11 70 0
	lwz 3,4(28)
.LVL824:
	.loc 11 71 0
	cmpw 7,3,29
	beq- 7,.L723
.LVL825:
.L739:
.LBB4289:
	.loc 11 74 0
	lwz 30,0(3)
.LVL826:
.LBB4290:
.LBB4291:
.LBB4292:
	.loc 8 98 0
	bl _ZdlPv
.LVL827:
.LBE4292:
.LBE4291:
.LBE4290:
.LBE4289:
	.loc 11 71 0
	cmpw 7,30,29
	beq- 7,.L723
	.loc 11 74 0
	mr 3,30
	b .L739
.LVL828:
.L733:
.LBE4288:
.LBE4287:
.LBE4286:
.LBE4285:
.LBE4284:
.LBE4283:
.LBB4293:
.LBB4254:
.LBB4249:
.LBB4250:
.LBB4251:
	.loc 1 343 0
	lwz 9,0(28)
	mr 31,3
.LVL829:
	mr 3,28
	lwz 0,12(9)
	mtctr 0
	bctrl
	b .L706
.LVL830:
.L723:
.LBE4251:
.LBE4250:
.LBE4249:
.LBE4254:
.LBE4293:
.LBB4294:
.LBB4295:
.LBB4296:
.LBB4297:
.LBB4298:
.LBB4299:
	.loc 1 105 0
	lis 9,_ZTVN7sigslot15single_threadedE+8@ha
	mr 3,31
	la 0,_ZTVN7sigslot15single_threadedE+8@l(9)
	stw 0,0(28)
.LEHB76:
	bl _Unwind_Resume
.LEHE76:
.LBE4299:
.LBE4298:
.LBE4297:
.LBE4296:
.LBE4295:
.LBE4294:
.LBE4304:
.LBE4309:
.LBE4314:
.LBE4319:
	.cfi_endproc
.LFE1619:
	.section	.gcc_except_table
.LLSDA1619:
	.byte	0xff
	.byte	0xff
	.byte	0x1
	.uleb128 .LLSDACSE1619-.LLSDACSB1619
.LLSDACSB1619:
	.uleb128 .LEHB73-.LFB1619
	.uleb128 .LEHE73-.LEHB73
	.uleb128 .L732-.LFB1619
	.uleb128 0
	.uleb128 .LEHB74-.LFB1619
	.uleb128 .LEHE74-.LEHB74
	.uleb128 .L733-.LFB1619
	.uleb128 0
	.uleb128 .LEHB75-.LFB1619
	.uleb128 .LEHE75-.LEHB75
	.uleb128 .L732-.LFB1619
	.uleb128 0
	.uleb128 .LEHB76-.LFB1619
	.uleb128 .LEHE76-.LEHB76
	.uleb128 0
	.uleb128 0
.LLSDACSE1619:
	.section	.text._ZN7sigslot7signal3IP10GuiElementiiNS_15single_threadedEED2Ev,"axG",@progbits,_ZN7sigslot7signal3IP10GuiElementiiNS_15single_threadedEED5Ev,comdat
	.size	_ZN7sigslot7signal3IP10GuiElementiiNS_15single_threadedEED2Ev, .-_ZN7sigslot7signal3IP10GuiElementiiNS_15single_threadedEED2Ev
	.section	.text._ZN10GuiElementD0Ev,"axG",@progbits,_ZN10GuiElementD5Ev,comdat
	.align 2
	.weak	_ZN10GuiElementD0Ev
	.type	_ZN10GuiElementD0Ev, @function
_ZN10GuiElementD0Ev:
.LFB1383:
	.loc 2 89 0
	.cfi_startproc
	.cfi_personality 0,__gxx_personality_v0
	.cfi_lsda 0,.LLSDA1383
.LVL831:
	mflr 0
	stwu 1,-48(1)
.LCFI85:
	.cfi_def_cfa_offset 48
	.cfi_register 65, 0
.LBB4521:
.LBB4522:
.LBB4523:
	lis 9,_ZTV10GuiElement+8@ha
.LBE4523:
.LBE4522:
.LBE4521:
	stw 27,28(1)
.LBB4787:
.LBB4783:
.LBB4779:
.LBB4524:
.LBB4525:
.LBB4526:
	.loc 1 2305 0
	addi 27,3,16
	.cfi_offset 27, -20
.LBE4526:
.LBE4525:
.LBE4524:
.LBE4779:
.LBE4783:
.LBE4787:
	.loc 2 89 0
	stw 0,52(1)
.LBB4788:
.LBB4784:
.LBB4780:
	la 0,_ZTV10GuiElement+8@l(9)
	.cfi_offset 65, 4
.LBB4660:
.LBB4651:
.LBB4642:
.LBB4527:
.LBB4528:
.LBB4529:
	.loc 1 946 0
	lis 9,_ZTVN7sigslot13_signal_base3IP10GuiElementiiNS_15single_threadedEEE+8@ha
.LBE4529:
.LBE4528:
.LBE4527:
.LBE4642:
.LBE4651:
.LBE4660:
.LBE4780:
.LBE4784:
.LBE4788:
	.loc 2 89 0
	stw 28,32(1)
	stw 29,36(1)
	mr 28,3
	.cfi_offset 29, -12
	.cfi_offset 28, -16
.LVL832:
	stw 26,24(1)
	addi 29,28,20
	stw 30,40(1)
	stw 31,44(1)
.LBB4789:
.LBB4785:
.LBB4781:
	.loc 2 89 0
	stw 0,0(3)
.LVL833:
.LBB4661:
.LBB4652:
.LBB4643:
.LBB4634:
.LBB4626:
.LBB4618:
	.loc 1 946 0
	la 0,_ZTVN7sigslot13_signal_base3IP10GuiElementiiNS_15single_threadedEEE+8@l(9)
.LBB4530:
.LBB4531:
.LBB4532:
.LBB4533:
	.loc 1 338 0
	lis 9,_ZN7sigslot15single_threaded4lockEv@ha
.LBE4533:
.LBE4532:
.LBE4531:
.LBE4530:
	.loc 1 946 0
	stw 0,16(3)
.LVL834:
.LBB4566:
.LBB4562:
.LBB4535:
.LBB4534:
	.loc 1 338 0
	la 9,_ZN7sigslot15single_threaded4lockEv@l(9)
	mr 3,27
.LVL835:
	mtctr 9
.LEHB77:
	.cfi_offset 31, -4
	.cfi_offset 30, -8
	.cfi_offset 26, -24
	bctrl
.LEHE77:
.LBE4534:
.LBE4535:
.LBE4562:
	.loc 3 144 0
	mr 29,28
.LVL836:
	lwzu 31,20(29)
.LVL837:
.LBB4563:
	.loc 1 954 0
	cmpw 7,31,29
	beq- 7,.L742
.LVL838:
.L821:
	.loc 1 956 0
	lwz 3,8(31)
	lwz 9,0(3)
	lwz 0,8(9)
	mtctr 0
.LEHB78:
	bctrl
	stw 27,8(1)
	mr 30,3
.LVL839:
.LBB4536:
.LBB4537:
.LBB4538:
.LBB4539:
	.loc 1 338 0
	lwz 9,0(3)
	lwz 0,8(9)
	mtctr 0
	bctrl
.LVL840:
.LBE4539:
.LBE4538:
.LBB4540:
.LBB4541:
	.loc 10 528 0
	addi 3,30,4
	addi 4,1,8
	bl _ZNSt8_Rb_treeIPN7sigslot12_signal_baseINS0_15single_threadedEEES4_St9_IdentityIS4_ESt4lessIS4_ESaIS4_EE5eraseERKS4_
.LVL841:
.LBE4541:
.LBE4540:
.LBB4542:
.LBB4543:
.LBB4544:
	.loc 1 343 0
	lwz 9,0(30)
	mr 3,30
	lwz 0,12(9)
	mtctr 0
	bctrl
.LVL842:
.LBE4544:
.LBE4543:
.LBE4542:
.LBE4537:
.LBE4536:
	.loc 1 957 0
	lwz 3,8(31)
	cmpwi 7,3,0
	beq- 7,.L744
	lwz 9,0(3)
	lwz 0,4(9)
	mtctr 0
	bctrl
.LEHE78:
.L744:
.LVL843:
.LBB4545:
.LBB4546:
	.loc 4 234 0
	lwz 31,0(31)
.LVL844:
.LBE4546:
.LBE4545:
	.loc 1 954 0
	cmpw 7,29,31
	bne+ 7,.L821
.LBE4563:
	.loc 3 144 0
	lwz 31,20(28)
.LVL845:
.LBB4564:
.LBB4547:
.LBB4548:
	.loc 4 1162 0
	cmpw 7,29,31
	bne+ 7,.L824
	b .L742
.LVL846:
.L810:
	.loc 4 1163 0
	mr 31,30
.LVL847:
.L824:
.LBB4549:
.LBB4550:
	.loc 11 112 0
	lwz 30,0(31)
.LVL848:
.LBB4551:
.LBB4552:
	.loc 4 1532 0
	mr 3,31
	bl _ZNSt8__detail15_List_node_base9_M_unhookEv
.LVL849:
.LBB4553:
.LBB4554:
.LBB4555:
	.loc 8 98 0
	mr 3,31
	bl _ZdlPv
.LVL850:
.LBE4555:
.LBE4554:
.LBE4553:
.LBE4552:
.LBE4551:
.LBE4550:
.LBE4549:
	.loc 4 1162 0
	cmpw 7,29,30
	bne+ 7,.L810
.LVL851:
.L742:
.LBE4548:
.LBE4547:
.LBB4556:
.LBB4557:
.LBB4558:
	.loc 1 343 0
	lwz 9,16(28)
	mr 3,27
	lwz 0,12(9)
	mtctr 0
.LEHB79:
	bctrl
.LEHE79:
.LBE4558:
.LBE4557:
.LBE4556:
.LBE4564:
.LBE4566:
.LBB4567:
.LBB4568:
.LBB4569:
.LBB4570:
.LBB4571:
.LBB4572:
	.loc 11 70 0
	lwz 3,20(28)
.LVL852:
	.loc 11 71 0
	cmpw 7,3,29
	bne+ 7,.L826
	b .L760
.LVL853:
.L811:
	.loc 11 74 0
	mr 3,31
.LVL854:
.L826:
.LBB4573:
	lwz 31,0(3)
.LVL855:
.LBB4574:
.LBB4575:
.LBB4576:
	.loc 8 98 0
	bl _ZdlPv
.LVL856:
.LBE4576:
.LBE4575:
.LBE4574:
.LBE4573:
	.loc 11 71 0
	cmpw 7,31,29
	bne+ 7,.L811
.LVL857:
.L760:
.LBE4572:
.LBE4571:
.LBE4570:
.LBE4569:
.LBE4568:
.LBE4567:
.LBE4618:
.LBE4626:
.LBE4634:
.LBE4643:
.LBE4652:
.LBE4661:
.LBB4662:
.LBB4663:
.LBB4664:
.LBB4665:
.LBB4666:
.LBB4667:
	.loc 1 826 0
	lis 9,_ZTVN7sigslot13_signal_base2IP10GuiElementbNS_15single_threadedEEE+8@ha
.LBE4667:
.LBE4666:
.LBE4665:
.LBE4664:
.LBE4663:
.LBE4662:
.LBB4767:
.LBB4653:
.LBB4644:
.LBB4635:
.LBB4627:
.LBB4619:
.LBB4577:
.LBB4578:
.LBB4579:
.LBB4580:
.LBB4581:
.LBB4582:
	.loc 1 105 0
	lis 26,_ZTVN7sigslot15single_threadedE+8@ha
.LBE4582:
.LBE4581:
.LBE4580:
.LBE4579:
.LBE4578:
.LBE4577:
.LBE4619:
.LBE4627:
.LBE4635:
.LBE4644:
.LBE4653:
.LBE4767:
.LBB4768:
.LBB4762:
.LBB4757:
.LBB4752:
.LBB4747:
.LBB4742:
	.loc 1 826 0
	la 0,_ZTVN7sigslot13_signal_base2IP10GuiElementbNS_15single_threadedEEE+8@l(9)
.LBB4668:
.LBB4669:
.LBB4670:
.LBB4671:
	.loc 1 338 0
	lis 9,_ZN7sigslot15single_threaded4lockEv@ha
.LBE4671:
.LBE4670:
.LBE4669:
.LBE4668:
.LBE4742:
.LBE4747:
.LBE4752:
.LBE4757:
.LBE4762:
.LBE4768:
.LBB4769:
.LBB4654:
.LBB4645:
.LBB4636:
.LBB4628:
.LBB4620:
.LBB4593:
.LBB4591:
.LBB4589:
.LBB4587:
.LBB4585:
.LBB4583:
	.loc 1 105 0
	la 26,_ZTVN7sigslot15single_threadedE+8@l(26)
.LBE4583:
.LBE4585:
.LBE4587:
.LBE4589:
.LBE4591:
.LBE4593:
.LBE4620:
.LBE4628:
.LBE4636:
.LBE4645:
.LBE4654:
.LBE4769:
.LBB4770:
.LBB4763:
.LBB4758:
	.loc 1 2238 0
	addi 27,28,4
.LVL858:
.LBB4753:
.LBB4748:
.LBB4743:
.LBB4707:
.LBB4702:
.LBB4674:
.LBB4672:
	.loc 1 338 0
	la 9,_ZN7sigslot15single_threaded4lockEv@l(9)
.LBE4672:
.LBE4674:
.LBE4702:
.LBE4707:
.LBE4743:
.LBE4748:
.LBE4753:
.LBE4758:
.LBE4763:
.LBE4770:
.LBB4771:
.LBB4655:
.LBB4646:
.LBB4637:
.LBB4629:
.LBB4621:
.LBB4594:
.LBB4592:
.LBB4590:
.LBB4588:
.LBB4586:
.LBB4584:
	.loc 1 105 0
	stw 26,16(28)
.LVL859:
.LBE4584:
.LBE4586:
.LBE4588:
.LBE4590:
.LBE4592:
.LBE4594:
.LBE4621:
.LBE4629:
.LBE4637:
.LBE4646:
.LBE4655:
.LBE4771:
.LBB4772:
.LBB4764:
.LBB4759:
.LBB4754:
.LBB4749:
.LBB4744:
	.loc 1 826 0
	stw 0,4(28)
.LVL860:
.LBB4708:
.LBB4703:
.LBB4675:
.LBB4673:
	.loc 1 338 0
	mr 3,27
	mtctr 9
	addi 29,28,8
.LVL861:
.LEHB80:
	bctrl
.LEHE80:
.LBE4673:
.LBE4675:
.LBE4703:
	.loc 3 144 0
	mr 29,28
	lwzu 31,8(29)
.LVL862:
.LBB4704:
	.loc 1 834 0
	cmpw 7,31,29
	beq- 7,.L775
.LVL863:
.L820:
	.loc 1 836 0
	lwz 3,8(31)
	lwz 9,0(3)
	lwz 0,8(9)
	mtctr 0
.LEHB81:
	bctrl
	stw 27,8(1)
	mr 30,3
.LVL864:
.LBB4676:
.LBB4677:
.LBB4678:
.LBB4679:
	.loc 1 338 0
	lwz 9,0(3)
	lwz 0,8(9)
	mtctr 0
	bctrl
.LVL865:
.LBE4679:
.LBE4678:
.LBB4680:
.LBB4681:
	.loc 10 528 0
	addi 3,30,4
	addi 4,1,8
.LVL866:
	bl _ZNSt8_Rb_treeIPN7sigslot12_signal_baseINS0_15single_threadedEEES4_St9_IdentityIS4_ESt4lessIS4_ESaIS4_EE5eraseERKS4_
.LVL867:
.LBE4681:
.LBE4680:
.LBB4682:
.LBB4683:
.LBB4684:
	.loc 1 343 0
	lwz 9,0(30)
	mr 3,30
	lwz 0,12(9)
	mtctr 0
	bctrl
.LVL868:
.LBE4684:
.LBE4683:
.LBE4682:
.LBE4677:
.LBE4676:
	.loc 1 837 0
	lwz 3,8(31)
	cmpwi 7,3,0
	beq- 7,.L777
	lwz 9,0(3)
	lwz 0,4(9)
	mtctr 0
	bctrl
.LEHE81:
.L777:
.LVL869:
.LBB4685:
.LBB4686:
	.loc 4 234 0
	lwz 31,0(31)
.LVL870:
.LBE4686:
.LBE4685:
	.loc 1 834 0
	cmpw 7,29,31
	bne+ 7,.L820
.LBE4704:
	.loc 3 144 0
	lwz 31,8(28)
.LVL871:
.LBB4705:
.LBB4687:
.LBB4688:
	.loc 4 1162 0
	cmpw 7,29,31
	bne+ 7,.L829
	b .L775
.LVL872:
.L813:
	.loc 4 1163 0
	mr 31,30
.LVL873:
.L829:
.LBB4689:
.LBB4690:
	.loc 11 112 0
	lwz 30,0(31)
.LVL874:
.LBB4691:
.LBB4692:
	.loc 4 1532 0
	mr 3,31
	bl _ZNSt8__detail15_List_node_base9_M_unhookEv
.LVL875:
.LBB4693:
.LBB4694:
.LBB4695:
	.loc 8 98 0
	mr 3,31
	bl _ZdlPv
.LVL876:
.LBE4695:
.LBE4694:
.LBE4693:
.LBE4692:
.LBE4691:
.LBE4690:
.LBE4689:
	.loc 4 1162 0
	cmpw 7,29,30
	bne+ 7,.L813
.LVL877:
.L775:
.LBE4688:
.LBE4687:
.LBB4696:
.LBB4697:
.LBB4698:
	.loc 1 343 0
	lwz 9,4(28)
	mr 3,27
	lwz 0,12(9)
	mtctr 0
.LEHB82:
	bctrl
.LEHE82:
.LBE4698:
.LBE4697:
.LBE4696:
.LBE4705:
.LBE4708:
.LBB4709:
.LBB4710:
.LBB4711:
.LBB4712:
.LBB4713:
.LBB4714:
	.loc 11 70 0
	lwz 3,8(28)
.LVL878:
	.loc 11 71 0
	cmpw 7,3,29
	bne+ 7,.L831
	b .L793
.LVL879:
.L814:
	.loc 11 74 0
	mr 3,31
.LVL880:
.L831:
.LBB4715:
	lwz 31,0(3)
.LVL881:
.LBB4716:
.LBB4717:
.LBB4718:
	.loc 8 98 0
	bl _ZdlPv
.LVL882:
.LBE4718:
.LBE4717:
.LBE4716:
.LBE4715:
	.loc 11 71 0
	cmpw 7,31,29
	bne+ 7,.L814
.LVL883:
.L793:
.LBE4714:
.LBE4713:
.LBE4712:
.LBE4711:
.LBE4710:
.LBE4709:
.LBB4719:
.LBB4720:
.LBB4721:
.LBB4722:
.LBB4723:
.LBB4724:
	.loc 1 105 0
	stw 26,4(28)
.LBE4724:
.LBE4723:
.LBE4722:
.LBE4721:
.LBE4720:
.LBE4719:
.LBE4744:
.LBE4749:
.LBE4754:
.LBE4759:
.LBE4764:
.LBE4772:
.LBE4781:
.LBE4785:
.LBE4789:
	.loc 2 89 0
	mr 3,28
	bl _ZdlPv
	lwz 0,52(1)
	lwz 26,24(1)
	mtlr 0
	lwz 27,28(1)
.LVL884:
	lwz 28,32(1)
.LVL885:
	lwz 29,36(1)
.LVL886:
	lwz 30,40(1)
	lwz 31,44(1)
	addi 1,1,48
	.cfi_remember_state
.LCFI86:
	.cfi_def_cfa_offset 0
	.cfi_restore 31
	.cfi_restore 30
	.cfi_restore 29
	.cfi_restore 28
	.cfi_restore 27
	.cfi_restore 26
	blr
.LVL887:
.L816:
.LCFI87:
	.cfi_restore_state
	mr 31,3
.L752:
.LBB4790:
.LBB4786:
.LBB4782:
.LBB4773:
.LBB4656:
.LBB4647:
.LBB4638:
.LBB4630:
.LBB4622:
.LBB4595:
.LBB4596:
.LBB4597:
.LBB4598:
.LBB4599:
.LBB4600:
	.loc 11 70 0
	lwz 3,20(28)
.LVL888:
	.loc 11 71 0
	cmpw 7,3,29
	beq- 7,.L769
.LVL889:
.L828:
.LBB4601:
	.loc 11 74 0
	lwz 30,0(3)
.LVL890:
.LBB4602:
.LBB4603:
.LBB4604:
	.loc 8 98 0
	bl _ZdlPv
.LVL891:
.LBE4604:
.LBE4603:
.LBE4602:
.LBE4601:
	.loc 11 71 0
	cmpw 7,30,29
	beq- 7,.L769
	.loc 11 74 0
	mr 3,30
	b .L828
.LVL892:
.L819:
.LBE4600:
.LBE4599:
.LBE4598:
.LBE4597:
.LBE4596:
.LBE4595:
.LBE4622:
.LBE4630:
.LBE4638:
.LBE4647:
.LBE4656:
.LBE4773:
.LBB4774:
.LBB4765:
.LBB4760:
.LBB4755:
.LBB4750:
.LBB4745:
.LBB4725:
.LBB4706:
.LBB4699:
.LBB4700:
.LBB4701:
	.loc 1 343 0
	lwz 9,4(28)
	mr 31,3
.LVL893:
	mr 3,27
	lwz 0,12(9)
	mtctr 0
	bctrl
.LVL894:
.L785:
.LBE4701:
.LBE4700:
.LBE4699:
.LBE4706:
.LBE4725:
.LBB4726:
.LBB4727:
.LBB4728:
.LBB4729:
.LBB4730:
.LBB4731:
	.loc 11 70 0
	lwz 3,8(28)
.LVL895:
	.loc 11 71 0
	cmpw 7,3,29
	beq- 7,.L802
.LVL896:
.L832:
.LBB4732:
	.loc 11 74 0
	lwz 30,0(3)
.LVL897:
.LBB4733:
.LBB4734:
.LBB4735:
	.loc 8 98 0
	bl _ZdlPv
.LVL898:
.LBE4735:
.LBE4734:
.LBE4733:
.LBE4732:
	.loc 11 71 0
	cmpw 7,30,29
	beq- 7,.L802
	.loc 11 74 0
	mr 3,30
	b .L832
.LVL899:
.L769:
.LBE4731:
.LBE4730:
.LBE4729:
.LBE4728:
.LBE4727:
.LBE4726:
.LBE4745:
.LBE4750:
.LBE4755:
.LBE4760:
.LBE4765:
.LBE4774:
.LBB4775:
.LBB4657:
.LBB4648:
.LBB4639:
.LBB4631:
.LBB4623:
.LBB4605:
.LBB4606:
.LBB4607:
.LBB4608:
.LBB4609:
.LBB4610:
	.loc 1 105 0
	lis 9,_ZTVN7sigslot15single_threadedE+8@ha
.LBE4610:
.LBE4609:
.LBE4608:
.LBE4607:
.LBE4606:
.LBE4605:
.LBE4623:
.LBE4631:
.LBE4639:
.LBE4648:
.LBE4657:
.LBE4775:
	.loc 2 89 0
	addi 3,28,4
.LBB4776:
.LBB4658:
.LBB4649:
.LBB4640:
.LBB4632:
.LBB4624:
.LBB4616:
.LBB4615:
.LBB4614:
.LBB4613:
.LBB4612:
.LBB4611:
	.loc 1 105 0
	la 0,_ZTVN7sigslot15single_threadedE+8@l(9)
	stw 0,16(28)
.LBE4611:
.LBE4612:
.LBE4613:
.LBE4614:
.LBE4615:
.LBE4616:
.LBE4624:
.LBE4632:
.LBE4640:
.LBE4649:
.LBE4658:
.LBE4776:
	.loc 2 89 0
	bl _ZN7sigslot7signal2IP10GuiElementbNS_15single_threadedEED1Ev
	mr 3,31
.LEHB83:
	bl _Unwind_Resume
.LVL900:
.L802:
.LBB4777:
.LBB4766:
.LBB4761:
.LBB4756:
.LBB4751:
.LBB4746:
.LBB4736:
.LBB4737:
.LBB4738:
.LBB4739:
.LBB4740:
.LBB4741:
	.loc 1 105 0
	stw 26,4(28)
	mr 3,31
	bl _Unwind_Resume
.LEHE83:
.LVL901:
.L818:
	mr 31,3
	b .L785
.LVL902:
.L817:
.LBE4741:
.LBE4740:
.LBE4739:
.LBE4738:
.LBE4737:
.LBE4736:
.LBE4746:
.LBE4751:
.LBE4756:
.LBE4761:
.LBE4766:
.LBE4777:
.LBB4778:
.LBB4659:
.LBB4650:
.LBB4641:
.LBB4633:
.LBB4625:
.LBB4617:
.LBB4565:
.LBB4559:
.LBB4560:
.LBB4561:
	.loc 1 343 0
	lwz 9,16(28)
	mr 31,3
.LVL903:
	mr 3,27
	lwz 0,12(9)
	mtctr 0
	bctrl
	b .L752
.LBE4561:
.LBE4560:
.LBE4559:
.LBE4565:
.LBE4617:
.LBE4625:
.LBE4633:
.LBE4641:
.LBE4650:
.LBE4659:
.LBE4778:
.LBE4782:
.LBE4786:
.LBE4790:
	.cfi_endproc
.LFE1383:
	.section	.gcc_except_table
.LLSDA1383:
	.byte	0xff
	.byte	0xff
	.byte	0x1
	.uleb128 .LLSDACSE1383-.LLSDACSB1383
.LLSDACSB1383:
	.uleb128 .LEHB77-.LFB1383
	.uleb128 .LEHE77-.LEHB77
	.uleb128 .L816-.LFB1383
	.uleb128 0
	.uleb128 .LEHB78-.LFB1383
	.uleb128 .LEHE78-.LEHB78
	.uleb128 .L817-.LFB1383
	.uleb128 0
	.uleb128 .LEHB79-.LFB1383
	.uleb128 .LEHE79-.LEHB79
	.uleb128 .L816-.LFB1383
	.uleb128 0
	.uleb128 .LEHB80-.LFB1383
	.uleb128 .LEHE80-.LEHB80
	.uleb128 .L818-.LFB1383
	.uleb128 0
	.uleb128 .LEHB81-.LFB1383
	.uleb128 .LEHE81-.LEHB81
	.uleb128 .L819-.LFB1383
	.uleb128 0
	.uleb128 .LEHB82-.LFB1383
	.uleb128 .LEHE82-.LEHB82
	.uleb128 .L818-.LFB1383
	.uleb128 0
	.uleb128 .LEHB83-.LFB1383
	.uleb128 .LEHE83-.LEHB83
	.uleb128 0
	.uleb128 0
.LLSDACSE1383:
	.section	.text._ZN10GuiElementD0Ev,"axG",@progbits,_ZN10GuiElementD5Ev,comdat
	.size	_ZN10GuiElementD0Ev, .-_ZN10GuiElementD0Ev
	.section	.text._ZN11GuiCheckboxD2Ev,"axG",@progbits,_ZN11GuiCheckboxD5Ev,comdat
	.align 2
	.weak	_ZN11GuiCheckboxD2Ev
	.type	_ZN11GuiCheckboxD2Ev, @function
_ZN11GuiCheckboxD2Ev:
.LFB1845:
	.file 12 "d:/Projects/SaveGameManager/savegame-manager-gx/trunk/source/GUI/gui_checkbox.hpp"
	.loc 12 32 0
	.cfi_startproc
	.cfi_personality 0,__gxx_personality_v0
	.cfi_lsda 0,.LLSDA1845
.LVL904:
	mflr 0
	stwu 1,-64(1)
.LCFI88:
	.cfi_def_cfa_offset 64
	.cfi_register 65, 0
.LBB5630:
	lis 9,_ZTV11GuiCheckbox+8@ha
.LBE5630:
	stw 24,32(1)
.LBB6698:
.LBB5631:
.LBB5632:
.LBB5633:
.LBB5634:
.LBB5635:
.LBB5636:
.LBB5637:
.LBB5638:
.LBB5639:
.LBB5640:
.LBB5641:
.LBB5642:
	.loc 1 946 0
	lis 24,_ZTVN7sigslot13_signal_base3IP10GuiElementiiNS_15single_threadedEEE+8@ha
	.cfi_offset 24, -32
.LBE5642:
.LBE5641:
.LBE5640:
.LBE5639:
.LBE5638:
.LBE5637:
.LBE5636:
.LBE5635:
.LBE5634:
.LBE5633:
.LBE5632:
.LBE5631:
.LBE6698:
	.loc 12 32 0
	stw 0,68(1)
.LBB6699:
	la 0,_ZTV11GuiCheckbox+8@l(9)
	.cfi_offset 65, 4
.LBE6699:
	stw 28,48(1)
.LBB6700:
.LBB5949:
.LBB5941:
.LBB5933:
.LBB5925:
.LBB5917:
.LBB5909:
.LBB5789:
.LBB5779:
.LBB5769:
.LBB5759:
.LBB5749:
.LBB5739:
.LBB5643:
.LBB5644:
.LBB5645:
.LBB5646:
	.loc 1 338 0
	lis 9,_ZN7sigslot15single_threaded4lockEv@ha
.LBE5646:
.LBE5645:
.LBE5644:
.LBE5643:
.LBE5739:
.LBE5749:
.LBE5759:
.LBE5769:
.LBE5779:
.LBE5789:
	.loc 2 89 0
	lis 28,_ZTV10GuiElement+8@ha
	.cfi_offset 28, -16
.LBE5909:
.LBE5917:
.LBE5925:
.LBE5933:
.LBE5941:
.LBE5949:
.LBE6700:
	.loc 12 32 0
	stw 26,40(1)
.LBB6701:
.LBB5950:
.LBB5942:
.LBB5934:
.LBB5926:
.LBB5918:
.LBB5910:
	.loc 2 89 0
	la 28,_ZTV10GuiElement+8@l(28)
.LBB5790:
.LBB5780:
.LBB5770:
	.loc 1 2305 0
	addi 26,3,796
	.cfi_offset 26, -24
.LBB5760:
.LBB5750:
.LBB5740:
	.loc 1 946 0
	la 24,_ZTVN7sigslot13_signal_base3IP10GuiElementiiNS_15single_threadedEEE+8@l(24)
.LBB5685:
.LBB5679:
.LBB5650:
.LBB5647:
	.loc 1 338 0
	la 9,_ZN7sigslot15single_threaded4lockEv@l(9)
.LBE5647:
.LBE5650:
.LBE5679:
.LBE5685:
.LBE5740:
.LBE5750:
.LBE5760:
.LBE5770:
.LBE5780:
.LBE5790:
.LBE5910:
.LBE5918:
.LBE5926:
.LBE5934:
.LBE5942:
.LBE5950:
.LBE6701:
	.loc 12 32 0
	stw 27,44(1)
.LBB6702:
.LBB5951:
.LBB5943:
.LBB5935:
.LBB5927:
.LBB5919:
.LBB5911:
.LBB5791:
.LBB5781:
.LBB5771:
.LBB5761:
.LBB5751:
.LBB5741:
.LBB5686:
.LBB5680:
.LBB5651:
.LBB5648:
	.loc 1 338 0
	mtctr 9
.LBE5648:
.LBE5651:
.LBE5680:
.LBE5686:
.LBE5741:
.LBE5751:
.LBE5761:
.LBE5771:
.LBE5781:
.LBE5791:
.LBE5911:
.LBE5919:
.LBE5927:
.LBE5935:
.LBE5943:
.LBE5951:
.LBE6702:
	.loc 12 32 0
	stw 30,56(1)
	mr 30,3
	.cfi_offset 30, -8
	.cfi_offset 27, -20
	stw 23,28(1)
	addi 27,30,800
	stw 25,36(1)
	stw 29,52(1)
	stw 31,60(1)
.LBB6703:
	.loc 12 32 0
	stw 0,0(3)
.LVL905:
.LBB5952:
.LBB5944:
.LBB5936:
.LBB5928:
.LBB5920:
.LBB5912:
	.loc 2 89 0
	stw 28,780(3)
.LBB5792:
.LBB5782:
.LBB5772:
.LBB5762:
.LBB5752:
.LBB5742:
	.loc 1 946 0
	stw 24,796(3)
.LBB5687:
.LBB5681:
.LBB5652:
.LBB5649:
	.loc 1 338 0
	mr 3,26
.LVL906:
.LEHB84:
	.cfi_offset 31, -4
	.cfi_offset 29, -12
	.cfi_offset 25, -28
	.cfi_offset 23, -36
	bctrl
.LEHE84:
.LBE5649:
.LBE5652:
.LBE5681:
	.loc 3 144 0
	mr 27,30
	lwzu 31,800(27)
.LVL907:
.LBB5682:
	.loc 1 954 0
	cmpw 7,31,27
	beq- 7,.L835
.LVL908:
.L1165:
	.loc 1 956 0
	lwz 3,8(31)
	lwz 9,0(3)
	lwz 0,8(9)
	mtctr 0
.LEHB85:
	bctrl
	stw 26,8(1)
	mr 29,3
.LVL909:
.LBB5653:
.LBB5654:
.LBB5655:
.LBB5656:
	.loc 1 338 0
	lwz 9,0(3)
	lwz 0,8(9)
	mtctr 0
	bctrl
.LVL910:
.LBE5656:
.LBE5655:
.LBB5657:
.LBB5658:
	.loc 10 528 0
	addi 3,29,4
	addi 4,1,8
	bl _ZNSt8_Rb_treeIPN7sigslot12_signal_baseINS0_15single_threadedEEES4_St9_IdentityIS4_ESt4lessIS4_ESaIS4_EE5eraseERKS4_
.LVL911:
.LBE5658:
.LBE5657:
.LBB5659:
.LBB5660:
.LBB5661:
	.loc 1 343 0
	lwz 9,0(29)
	mr 3,29
	lwz 0,12(9)
	mtctr 0
	bctrl
.LVL912:
.LBE5661:
.LBE5660:
.LBE5659:
.LBE5654:
.LBE5653:
	.loc 1 957 0
	lwz 3,8(31)
	cmpwi 7,3,0
	beq- 7,.L837
	lwz 9,0(3)
	lwz 0,4(9)
	mtctr 0
	bctrl
.LEHE85:
.L837:
.LVL913:
.LBB5662:
.LBB5663:
	.loc 4 234 0
	lwz 31,0(31)
.LVL914:
.LBE5663:
.LBE5662:
	.loc 1 954 0
	cmpw 7,27,31
	bne+ 7,.L1165
.LBE5682:
	.loc 3 144 0
	lwz 31,800(30)
.LVL915:
.LBB5683:
.LBB5664:
.LBB5665:
	.loc 4 1162 0
	cmpw 7,27,31
	bne+ 7,.L1174
	b .L835
.LVL916:
.L1118:
	.loc 4 1163 0
	mr 31,29
.LVL917:
.L1174:
.LBB5666:
.LBB5667:
	.loc 11 112 0
	lwz 29,0(31)
.LVL918:
.LBB5668:
.LBB5669:
	.loc 4 1532 0
	mr 3,31
	bl _ZNSt8__detail15_List_node_base9_M_unhookEv
.LVL919:
.LBB5670:
.LBB5671:
.LBB5672:
	.loc 8 98 0
	mr 3,31
	bl _ZdlPv
.LVL920:
.LBE5672:
.LBE5671:
.LBE5670:
.LBE5669:
.LBE5668:
.LBE5667:
.LBE5666:
	.loc 4 1162 0
	cmpw 7,27,29
	bne+ 7,.L1118
.LVL921:
.L835:
.LBE5665:
.LBE5664:
.LBB5673:
.LBB5674:
.LBB5675:
	.loc 1 343 0
	lwz 9,796(30)
	mr 3,26
	lwz 0,12(9)
	mtctr 0
.LEHB86:
	bctrl
.LEHE86:
.LBE5675:
.LBE5674:
.LBE5673:
.LBE5683:
.LBE5687:
.LBB5688:
.LBB5689:
.LBB5690:
.LBB5691:
.LBB5692:
.LBB5693:
	.loc 11 70 0
	lwz 3,800(30)
.LVL922:
	.loc 11 71 0
	cmpw 7,3,27
	bne+ 7,.L1176
	b .L853
.LVL923:
.L1119:
	.loc 11 74 0
	mr 3,31
.LVL924:
.L1176:
.LBB5694:
	lwz 31,0(3)
.LVL925:
.LBB5695:
.LBB5696:
.LBB5697:
	.loc 8 98 0
	bl _ZdlPv
.LVL926:
.LBE5697:
.LBE5696:
.LBE5695:
.LBE5694:
	.loc 11 71 0
	cmpw 7,31,27
	bne+ 7,.L1119
.LVL927:
.L853:
.LBE5693:
.LBE5692:
.LBE5691:
.LBE5690:
.LBE5689:
.LBE5688:
.LBB5698:
.LBB5699:
.LBB5700:
.LBB5701:
.LBB5702:
.LBB5703:
	.loc 1 105 0
	lis 29,_ZTVN7sigslot15single_threadedE+8@ha
.LBE5703:
.LBE5702:
.LBE5701:
.LBE5700:
.LBE5699:
.LBE5698:
.LBE5742:
.LBE5752:
.LBE5762:
.LBE5772:
.LBE5782:
.LBE5792:
.LBB5793:
.LBB5794:
.LBB5795:
.LBB5796:
.LBB5797:
.LBB5798:
	.loc 1 826 0
	lis 23,_ZTVN7sigslot13_signal_base2IP10GuiElementbNS_15single_threadedEEE+8@ha
.LBB5799:
.LBB5800:
.LBB5801:
.LBB5802:
	.loc 1 338 0
	lis 9,_ZN7sigslot15single_threaded4lockEv@ha
.LBE5802:
.LBE5801:
.LBE5800:
.LBE5799:
.LBE5798:
.LBE5797:
.LBE5796:
.LBE5795:
.LBE5794:
.LBE5793:
.LBB5898:
.LBB5783:
.LBB5773:
.LBB5763:
.LBB5753:
.LBB5743:
.LBB5714:
.LBB5712:
.LBB5710:
.LBB5708:
.LBB5706:
.LBB5704:
	.loc 1 105 0
	la 29,_ZTVN7sigslot15single_threadedE+8@l(29)
.LBE5704:
.LBE5706:
.LBE5708:
.LBE5710:
.LBE5712:
.LBE5714:
.LBE5743:
.LBE5753:
.LBE5763:
.LBE5773:
.LBE5783:
.LBE5898:
.LBB5899:
.LBB5893:
.LBB5888:
	.loc 1 2238 0
	addi 25,30,784
.LBB5883:
.LBB5878:
.LBB5873:
	.loc 1 826 0
	la 23,_ZTVN7sigslot13_signal_base2IP10GuiElementbNS_15single_threadedEEE+8@l(23)
.LBB5838:
.LBB5833:
.LBB5805:
.LBB5803:
	.loc 1 338 0
	la 9,_ZN7sigslot15single_threaded4lockEv@l(9)
.LBE5803:
.LBE5805:
.LBE5833:
.LBE5838:
.LBE5873:
.LBE5878:
.LBE5883:
.LBE5888:
.LBE5893:
.LBE5899:
.LBB5900:
.LBB5784:
.LBB5774:
.LBB5764:
.LBB5754:
.LBB5744:
.LBB5715:
.LBB5713:
.LBB5711:
.LBB5709:
.LBB5707:
.LBB5705:
	.loc 1 105 0
	stw 29,796(30)
.LVL928:
.LBE5705:
.LBE5707:
.LBE5709:
.LBE5711:
.LBE5713:
.LBE5715:
.LBE5744:
.LBE5754:
.LBE5764:
.LBE5774:
.LBE5784:
.LBE5900:
.LBB5901:
.LBB5894:
.LBB5889:
.LBB5884:
.LBB5879:
.LBB5874:
	.loc 1 826 0
	stw 23,784(30)
.LVL929:
.LBB5839:
.LBB5834:
.LBB5806:
.LBB5804:
	.loc 1 338 0
	mr 3,25
	mtctr 9
	addi 26,30,788
.LVL930:
.LEHB87:
	bctrl
.LEHE87:
.LBE5804:
.LBE5806:
.LBE5834:
	.loc 3 144 0
	mr 26,30
	lwzu 31,788(26)
.LVL931:
.LBB5835:
	.loc 1 834 0
	cmpw 7,31,26
	beq- 7,.L869
.LVL932:
.L1164:
	.loc 1 836 0
	lwz 3,8(31)
	lwz 9,0(3)
	lwz 0,8(9)
	mtctr 0
.LEHB88:
	bctrl
	stw 25,8(1)
	mr 27,3
.LVL933:
.LBB5807:
.LBB5808:
.LBB5809:
.LBB5810:
	.loc 1 338 0
	lwz 9,0(3)
	lwz 0,8(9)
	mtctr 0
	bctrl
.LVL934:
.LBE5810:
.LBE5809:
.LBB5811:
.LBB5812:
	.loc 10 528 0
	addi 3,27,4
	addi 4,1,8
.LVL935:
	bl _ZNSt8_Rb_treeIPN7sigslot12_signal_baseINS0_15single_threadedEEES4_St9_IdentityIS4_ESt4lessIS4_ESaIS4_EE5eraseERKS4_
.LVL936:
.LBE5812:
.LBE5811:
.LBB5813:
.LBB5814:
.LBB5815:
	.loc 1 343 0
	lwz 9,0(27)
	mr 3,27
	lwz 0,12(9)
	mtctr 0
	bctrl
.LVL937:
.LBE5815:
.LBE5814:
.LBE5813:
.LBE5808:
.LBE5807:
	.loc 1 837 0
	lwz 3,8(31)
	cmpwi 7,3,0
	beq- 7,.L871
	lwz 9,0(3)
	lwz 0,4(9)
	mtctr 0
	bctrl
.LEHE88:
.L871:
.LVL938:
.LBB5816:
.LBB5817:
	.loc 4 234 0
	lwz 31,0(31)
.LVL939:
.LBE5817:
.LBE5816:
	.loc 1 834 0
	cmpw 7,26,31
	bne+ 7,.L1164
.LBE5835:
	.loc 3 144 0
	lwz 31,788(30)
.LVL940:
.LBB5836:
.LBB5818:
.LBB5819:
	.loc 4 1162 0
	cmpw 7,26,31
	bne+ 7,.L1179
	b .L869
.LVL941:
.L1121:
	.loc 4 1163 0
	mr 31,27
.LVL942:
.L1179:
.LBB5820:
.LBB5821:
	.loc 11 112 0
	lwz 27,0(31)
.LVL943:
.LBB5822:
.LBB5823:
	.loc 4 1532 0
	mr 3,31
	bl _ZNSt8__detail15_List_node_base9_M_unhookEv
.LVL944:
.LBB5824:
.LBB5825:
.LBB5826:
	.loc 8 98 0
	mr 3,31
	bl _ZdlPv
.LVL945:
.LBE5826:
.LBE5825:
.LBE5824:
.LBE5823:
.LBE5822:
.LBE5821:
.LBE5820:
	.loc 4 1162 0
	cmpw 7,26,27
	bne+ 7,.L1121
.LVL946:
.L869:
.LBE5819:
.LBE5818:
.LBB5827:
.LBB5828:
.LBB5829:
	.loc 1 343 0
	lwz 9,784(30)
	mr 3,25
	lwz 0,12(9)
	mtctr 0
.LEHB89:
	bctrl
.LEHE89:
.LBE5829:
.LBE5828:
.LBE5827:
.LBE5836:
.LBE5839:
.LBB5840:
.LBB5841:
.LBB5842:
.LBB5843:
.LBB5844:
.LBB5845:
	.loc 11 70 0
	lwz 3,788(30)
.LVL947:
	.loc 11 71 0
	cmpw 7,3,26
	bne+ 7,.L1181
	b .L887
.LVL948:
.L1122:
	.loc 11 74 0
	mr 3,31
.LVL949:
.L1181:
.LBB5846:
	lwz 31,0(3)
.LVL950:
.LBB5847:
.LBB5848:
.LBB5849:
	.loc 8 98 0
	bl _ZdlPv
.LVL951:
.LBE5849:
.LBE5848:
.LBE5847:
.LBE5846:
	.loc 11 71 0
	cmpw 7,31,26
	bne+ 7,.L1122
.LVL952:
.L887:
.LBE5845:
.LBE5844:
.LBE5843:
.LBE5842:
.LBE5841:
.LBE5840:
.LBE5874:
.LBE5879:
.LBE5884:
.LBE5889:
.LBE5894:
.LBE5901:
.LBE5912:
.LBE5920:
.LBE5928:
.LBE5936:
.LBE5944:
.LBE5952:
.LBB5953:
.LBB5954:
.LBB5955:
.LBB5956:
.LBB5957:
.LBB5958:
.LBB5959:
.LBB5960:
.LBB5961:
.LBB5962:
.LBB5963:
.LBB5964:
.LBB5965:
.LBB5966:
.LBB5967:
.LBB5968:
	.loc 1 338 0
	lis 9,_ZN7sigslot15single_threaded4lockEv@ha
.LBE5968:
.LBE5967:
.LBE5966:
.LBE5965:
.LBE5964:
.LBE5963:
.LBE5962:
	.loc 1 2305 0
	addi 25,30,632
.LVL953:
.LBB6053:
.LBB6048:
.LBB6043:
.LBB6007:
.LBB6001:
.LBB5972:
.LBB5969:
	.loc 1 338 0
	la 9,_ZN7sigslot15single_threaded4lockEv@l(9)
.LBE5969:
.LBE5972:
.LBE6001:
.LBE6007:
.LBE6043:
.LBE6048:
.LBE6053:
.LBE5961:
.LBE5960:
.LBE5959:
.LBE5958:
.LBE5957:
.LBE5956:
.LBE5955:
.LBE5954:
.LBE5953:
.LBB6192:
.LBB5945:
.LBB5937:
.LBB5929:
.LBB5921:
.LBB5913:
.LBB5902:
.LBB5895:
.LBB5890:
.LBB5885:
.LBB5880:
.LBB5875:
.LBB5850:
.LBB5851:
.LBB5852:
.LBB5853:
.LBB5854:
.LBB5855:
	.loc 1 105 0
	stw 29,784(30)
.LVL954:
.LBE5855:
.LBE5854:
.LBE5853:
.LBE5852:
.LBE5851:
.LBE5850:
.LBE5875:
.LBE5880:
.LBE5885:
.LBE5890:
.LBE5895:
.LBE5902:
.LBE5913:
.LBE5921:
.LBE5929:
.LBE5937:
.LBE5945:
.LBE6192:
.LBB6193:
.LBB6189:
.LBB6186:
.LBB6183:
.LBB6180:
.LBB6177:
	.loc 2 89 0
	stw 28,616(30)
.LVL955:
.LBB6066:
.LBB6062:
.LBB6058:
.LBB6054:
.LBB6049:
.LBB6044:
.LBB6008:
.LBB6002:
.LBB5973:
.LBB5970:
	.loc 1 338 0
	mr 3,25
.LBE5970:
.LBE5973:
.LBE6002:
.LBE6008:
	.loc 1 946 0
	stw 24,632(30)
.LVL956:
.LBB6009:
.LBB6003:
.LBB5974:
.LBB5971:
	.loc 1 338 0
	mtctr 9
	addi 26,30,636
.LVL957:
.LEHB90:
	bctrl
.LEHE90:
.LBE5971:
.LBE5974:
.LBE6003:
	.loc 3 144 0
	mr 26,30
	lwzu 31,636(26)
.LVL958:
.LBB6004:
	.loc 1 954 0
	cmpw 7,31,26
	beq- 7,.L905
.LVL959:
.L1163:
	.loc 1 956 0
	lwz 3,8(31)
	lwz 9,0(3)
	lwz 0,8(9)
	mtctr 0
.LEHB91:
	bctrl
	stw 25,8(1)
	mr 27,3
.LVL960:
.LBB5975:
.LBB5976:
.LBB5977:
.LBB5978:
	.loc 1 338 0
	lwz 9,0(3)
	lwz 0,8(9)
	mtctr 0
	bctrl
.LVL961:
.LBE5978:
.LBE5977:
.LBB5979:
.LBB5980:
	.loc 10 528 0
	addi 3,27,4
	addi 4,1,8
.LVL962:
	bl _ZNSt8_Rb_treeIPN7sigslot12_signal_baseINS0_15single_threadedEEES4_St9_IdentityIS4_ESt4lessIS4_ESaIS4_EE5eraseERKS4_
.LVL963:
.LBE5980:
.LBE5979:
.LBB5981:
.LBB5982:
.LBB5983:
	.loc 1 343 0
	lwz 9,0(27)
	mr 3,27
	lwz 0,12(9)
	mtctr 0
	bctrl
.LVL964:
.LBE5983:
.LBE5982:
.LBE5981:
.LBE5976:
.LBE5975:
	.loc 1 957 0
	lwz 3,8(31)
	cmpwi 7,3,0
	beq- 7,.L907
	lwz 9,0(3)
	lwz 0,4(9)
	mtctr 0
	bctrl
.LEHE91:
.L907:
.LVL965:
.LBB5984:
.LBB5985:
	.loc 4 234 0
	lwz 31,0(31)
.LVL966:
.LBE5985:
.LBE5984:
	.loc 1 954 0
	cmpw 7,26,31
	bne+ 7,.L1163
.LBE6004:
	.loc 3 144 0
	lwz 31,636(30)
.LVL967:
.LBB6005:
.LBB5986:
.LBB5987:
	.loc 4 1162 0
	cmpw 7,26,31
	bne+ 7,.L1184
	b .L905
.LVL968:
.L1124:
	.loc 4 1163 0
	mr 31,27
.LVL969:
.L1184:
.LBB5988:
.LBB5989:
	.loc 11 112 0
	lwz 27,0(31)
.LVL970:
.LBB5990:
.LBB5991:
	.loc 4 1532 0
	mr 3,31
	bl _ZNSt8__detail15_List_node_base9_M_unhookEv
.LVL971:
.LBB5992:
.LBB5993:
.LBB5994:
	.loc 8 98 0
	mr 3,31
	bl _ZdlPv
.LVL972:
.LBE5994:
.LBE5993:
.LBE5992:
.LBE5991:
.LBE5990:
.LBE5989:
.LBE5988:
	.loc 4 1162 0
	cmpw 7,26,27
	bne+ 7,.L1124
.LVL973:
.L905:
.LBE5987:
.LBE5986:
.LBB5995:
.LBB5996:
.LBB5997:
	.loc 1 343 0
	lwz 9,632(30)
	mr 3,25
	lwz 0,12(9)
	mtctr 0
.LEHB92:
	bctrl
.LEHE92:
.LVL974:
.LBE5997:
.LBE5996:
.LBE5995:
.LBE6005:
.LBE6009:
.LBB6010:
.LBB6011:
.LBB6012:
.LBB6013:
.LBB6014:
.LBB6015:
	.loc 11 70 0
	lwz 3,636(30)
.LVL975:
	.loc 11 71 0
	cmpw 7,3,26
	bne+ 7,.L1186
	b .L923
.LVL976:
.L1125:
	.loc 11 74 0
	mr 3,31
.LVL977:
.L1186:
.LBB6016:
	lwz 31,0(3)
.LVL978:
.LBB6017:
.LBB6018:
.LBB6019:
	.loc 8 98 0
	bl _ZdlPv
.LVL979:
.LBE6019:
.LBE6018:
.LBE6017:
.LBE6016:
	.loc 11 71 0
	cmpw 7,31,26
	bne+ 7,.L1125
.LVL980:
.L923:
.LBE6015:
.LBE6014:
.LBE6013:
.LBE6012:
.LBE6011:
.LBE6010:
.LBE6044:
.LBE6049:
.LBE6054:
.LBE6058:
.LBE6062:
.LBE6066:
.LBB6067:
.LBB6068:
.LBB6069:
.LBB6070:
.LBB6071:
.LBB6072:
.LBB6073:
.LBB6074:
.LBB6075:
.LBB6076:
	.loc 1 338 0
	lis 9,_ZN7sigslot15single_threaded4lockEv@ha
.LBE6076:
.LBE6075:
.LBE6074:
.LBE6073:
.LBE6072:
.LBE6071:
.LBE6070:
	.loc 1 2238 0
	addi 25,30,620
.LVL981:
.LBB6157:
.LBB6152:
.LBB6147:
.LBB6112:
.LBB6107:
.LBB6079:
.LBB6077:
	.loc 1 338 0
	la 9,_ZN7sigslot15single_threaded4lockEv@l(9)
.LBE6077:
.LBE6079:
.LBE6107:
.LBE6112:
.LBE6147:
.LBE6152:
.LBE6157:
.LBE6069:
.LBE6068:
.LBE6067:
.LBB6170:
.LBB6063:
.LBB6059:
.LBB6055:
.LBB6050:
.LBB6045:
.LBB6020:
.LBB6021:
.LBB6022:
.LBB6023:
.LBB6024:
.LBB6025:
	.loc 1 105 0
	stw 29,632(30)
.LVL982:
.LBE6025:
.LBE6024:
.LBE6023:
.LBE6022:
.LBE6021:
.LBE6020:
.LBE6045:
.LBE6050:
.LBE6055:
.LBE6059:
.LBE6063:
.LBE6170:
.LBB6171:
.LBB6166:
.LBB6162:
.LBB6158:
.LBB6153:
.LBB6148:
	.loc 1 826 0
	stw 23,620(30)
.LVL983:
.LBB6113:
.LBB6108:
.LBB6080:
.LBB6078:
	.loc 1 338 0
	mr 3,25
	mtctr 9
	addi 26,30,624
.LVL984:
.LEHB93:
	bctrl
.LEHE93:
.LBE6078:
.LBE6080:
.LBE6108:
	.loc 3 144 0
	mr 26,30
	lwzu 31,624(26)
.LVL985:
.LBB6109:
	.loc 1 834 0
	cmpw 7,31,26
	beq- 7,.L939
.LVL986:
.L1162:
	.loc 1 836 0
	lwz 3,8(31)
	lwz 9,0(3)
	lwz 0,8(9)
	mtctr 0
.LEHB94:
	bctrl
	stw 25,8(1)
	mr 27,3
.LVL987:
.LBB6081:
.LBB6082:
.LBB6083:
.LBB6084:
	.loc 1 338 0
	lwz 9,0(3)
	lwz 0,8(9)
	mtctr 0
	bctrl
.LVL988:
.LBE6084:
.LBE6083:
.LBB6085:
.LBB6086:
	.loc 10 528 0
	addi 3,27,4
	addi 4,1,8
.LVL989:
	bl _ZNSt8_Rb_treeIPN7sigslot12_signal_baseINS0_15single_threadedEEES4_St9_IdentityIS4_ESt4lessIS4_ESaIS4_EE5eraseERKS4_
.LVL990:
.LBE6086:
.LBE6085:
.LBB6087:
.LBB6088:
.LBB6089:
	.loc 1 343 0
	lwz 9,0(27)
	mr 3,27
	lwz 0,12(9)
	mtctr 0
	bctrl
.LVL991:
.LBE6089:
.LBE6088:
.LBE6087:
.LBE6082:
.LBE6081:
	.loc 1 837 0
	lwz 3,8(31)
	cmpwi 7,3,0
	beq- 7,.L941
	lwz 9,0(3)
	lwz 0,4(9)
	mtctr 0
	bctrl
.LEHE94:
.L941:
.LVL992:
.LBB6090:
.LBB6091:
	.loc 4 234 0
	lwz 31,0(31)
.LVL993:
.LBE6091:
.LBE6090:
	.loc 1 834 0
	cmpw 7,26,31
	bne+ 7,.L1162
.LBE6109:
	.loc 3 144 0
	lwz 31,624(30)
.LVL994:
.LBB6110:
.LBB6092:
.LBB6093:
	.loc 4 1162 0
	cmpw 7,26,31
	bne+ 7,.L1189
	b .L939
.LVL995:
.L1127:
	.loc 4 1163 0
	mr 31,27
.LVL996:
.L1189:
.LBB6094:
.LBB6095:
	.loc 11 112 0
	lwz 27,0(31)
.LVL997:
.LBB6096:
.LBB6097:
	.loc 4 1532 0
	mr 3,31
	bl _ZNSt8__detail15_List_node_base9_M_unhookEv
.LVL998:
.LBB6098:
.LBB6099:
.LBB6100:
	.loc 8 98 0
	mr 3,31
	bl _ZdlPv
.LVL999:
.LBE6100:
.LBE6099:
.LBE6098:
.LBE6097:
.LBE6096:
.LBE6095:
.LBE6094:
	.loc 4 1162 0
	cmpw 7,26,27
	bne+ 7,.L1127
.LVL1000:
.L939:
.LBE6093:
.LBE6092:
.LBB6101:
.LBB6102:
.LBB6103:
	.loc 1 343 0
	lwz 9,620(30)
	mr 3,25
	lwz 0,12(9)
	mtctr 0
.LEHB95:
	bctrl
.LEHE95:
.LVL1001:
.LBE6103:
.LBE6102:
.LBE6101:
.LBE6110:
.LBE6113:
.LBB6114:
.LBB6115:
.LBB6116:
.LBB6117:
.LBB6118:
.LBB6119:
	.loc 11 70 0
	lwz 3,624(30)
.LVL1002:
	.loc 11 71 0
	cmpw 7,3,26
	bne+ 7,.L1191
	b .L957
.LVL1003:
.L1128:
	.loc 11 74 0
	mr 3,31
.LVL1004:
.L1191:
.LBB6120:
	lwz 31,0(3)
.LVL1005:
.LBB6121:
.LBB6122:
.LBB6123:
	.loc 8 98 0
	bl _ZdlPv
.LVL1006:
.LBE6123:
.LBE6122:
.LBE6121:
.LBE6120:
	.loc 11 71 0
	cmpw 7,31,26
	bne+ 7,.L1128
.LVL1007:
.L957:
.LBE6119:
.LBE6118:
.LBE6117:
.LBE6116:
.LBE6115:
.LBE6114:
.LBE6148:
.LBE6153:
.LBE6158:
.LBE6162:
.LBE6166:
.LBE6171:
.LBE6177:
.LBE6180:
.LBE6183:
.LBE6186:
.LBE6189:
.LBE6193:
.LBB6194:
.LBB6195:
.LBB6196:
.LBB6197:
.LBB6198:
.LBB6199:
.LBB6200:
.LBB6201:
.LBB6202:
.LBB6203:
.LBB6204:
.LBB6205:
.LBB6206:
.LBB6207:
.LBB6208:
.LBB6209:
	.loc 1 338 0
	lis 9,_ZN7sigslot15single_threaded4lockEv@ha
.LBE6209:
.LBE6208:
.LBE6207:
.LBE6206:
.LBE6205:
.LBE6204:
.LBE6203:
	.loc 1 2305 0
	addi 25,30,480
.LVL1008:
.LBB6294:
.LBB6289:
.LBB6284:
.LBB6248:
.LBB6242:
.LBB6213:
.LBB6210:
	.loc 1 338 0
	la 9,_ZN7sigslot15single_threaded4lockEv@l(9)
.LBE6210:
.LBE6213:
.LBE6242:
.LBE6248:
.LBE6284:
.LBE6289:
.LBE6294:
.LBE6202:
.LBE6201:
.LBE6200:
.LBE6199:
.LBE6198:
.LBE6197:
.LBE6196:
.LBE6195:
.LBE6194:
.LBB6439:
.LBB6190:
.LBB6187:
.LBB6184:
.LBB6181:
.LBB6178:
.LBB6172:
.LBB6167:
.LBB6163:
.LBB6159:
.LBB6154:
.LBB6149:
.LBB6124:
.LBB6125:
.LBB6126:
.LBB6127:
.LBB6128:
.LBB6129:
	.loc 1 105 0
	stw 29,620(30)
.LVL1009:
.LBE6129:
.LBE6128:
.LBE6127:
.LBE6126:
.LBE6125:
.LBE6124:
.LBE6149:
.LBE6154:
.LBE6159:
.LBE6163:
.LBE6167:
.LBE6172:
.LBE6178:
.LBE6181:
.LBE6184:
.LBE6187:
.LBE6190:
.LBE6439:
.LBB6440:
.LBB6436:
.LBB6433:
.LBB6430:
.LBB6427:
.LBB6424:
	.loc 2 89 0
	stw 28,464(30)
.LVL1010:
.LBB6307:
.LBB6303:
.LBB6299:
.LBB6295:
.LBB6290:
.LBB6285:
.LBB6249:
.LBB6243:
.LBB6214:
.LBB6211:
	.loc 1 338 0
	mr 3,25
.LBE6211:
.LBE6214:
.LBE6243:
.LBE6249:
	.loc 1 946 0
	stw 24,480(30)
.LVL1011:
.LBB6250:
.LBB6244:
.LBB6215:
.LBB6212:
	.loc 1 338 0
	mtctr 9
	addi 26,30,484
.LVL1012:
.LEHB96:
	bctrl
.LEHE96:
.LBE6212:
.LBE6215:
.LBE6244:
	.loc 3 144 0
	mr 26,30
	lwzu 31,484(26)
.LVL1013:
.LBB6245:
	.loc 1 954 0
	cmpw 7,31,26
	beq- 7,.L975
.LVL1014:
.L1161:
	.loc 1 956 0
	lwz 3,8(31)
	lwz 9,0(3)
	lwz 0,8(9)
	mtctr 0
.LEHB97:
	bctrl
	stw 25,8(1)
	mr 27,3
.LVL1015:
.LBB6216:
.LBB6217:
.LBB6218:
.LBB6219:
	.loc 1 338 0
	lwz 9,0(3)
	lwz 0,8(9)
	mtctr 0
	bctrl
.LVL1016:
.LBE6219:
.LBE6218:
.LBB6220:
.LBB6221:
	.loc 10 528 0
	addi 3,27,4
	addi 4,1,8
.LVL1017:
	bl _ZNSt8_Rb_treeIPN7sigslot12_signal_baseINS0_15single_threadedEEES4_St9_IdentityIS4_ESt4lessIS4_ESaIS4_EE5eraseERKS4_
.LVL1018:
.LBE6221:
.LBE6220:
.LBB6222:
.LBB6223:
.LBB6224:
	.loc 1 343 0
	lwz 9,0(27)
	mr 3,27
	lwz 0,12(9)
	mtctr 0
	bctrl
.LVL1019:
.LBE6224:
.LBE6223:
.LBE6222:
.LBE6217:
.LBE6216:
	.loc 1 957 0
	lwz 3,8(31)
	cmpwi 7,3,0
	beq- 7,.L977
	lwz 9,0(3)
	lwz 0,4(9)
	mtctr 0
	bctrl
.LEHE97:
.L977:
.LVL1020:
.LBB6225:
.LBB6226:
	.loc 4 234 0
	lwz 31,0(31)
.LVL1021:
.LBE6226:
.LBE6225:
	.loc 1 954 0
	cmpw 7,26,31
	bne+ 7,.L1161
.LBE6245:
	.loc 3 144 0
	lwz 31,484(30)
.LVL1022:
.LBB6246:
.LBB6227:
.LBB6228:
	.loc 4 1162 0
	cmpw 7,26,31
	bne+ 7,.L1194
	b .L975
.LVL1023:
.L1130:
	.loc 4 1163 0
	mr 31,27
.LVL1024:
.L1194:
.LBB6229:
.LBB6230:
	.loc 11 112 0
	lwz 27,0(31)
.LVL1025:
.LBB6231:
.LBB6232:
	.loc 4 1532 0
	mr 3,31
	bl _ZNSt8__detail15_List_node_base9_M_unhookEv
.LVL1026:
.LBB6233:
.LBB6234:
.LBB6235:
	.loc 8 98 0
	mr 3,31
	bl _ZdlPv
.LVL1027:
.LBE6235:
.LBE6234:
.LBE6233:
.LBE6232:
.LBE6231:
.LBE6230:
.LBE6229:
	.loc 4 1162 0
	cmpw 7,26,27
	bne+ 7,.L1130
.LVL1028:
.L975:
.LBE6228:
.LBE6227:
.LBB6236:
.LBB6237:
.LBB6238:
	.loc 1 343 0
	lwz 9,480(30)
	mr 3,25
	lwz 0,12(9)
	mtctr 0
.LEHB98:
	bctrl
.LEHE98:
.LBE6238:
.LBE6237:
.LBE6236:
.LBE6246:
.LBE6250:
.LBB6251:
.LBB6252:
.LBB6253:
.LBB6254:
.LBB6255:
.LBB6256:
	.loc 11 70 0
	lwz 3,484(30)
.LVL1029:
	.loc 11 71 0
	cmpw 7,3,26
	bne+ 7,.L1196
	b .L993
.LVL1030:
.L1131:
	.loc 11 74 0
	mr 3,31
.LVL1031:
.L1196:
.LBB6257:
	lwz 31,0(3)
.LVL1032:
.LBB6258:
.LBB6259:
.LBB6260:
	.loc 8 98 0
	bl _ZdlPv
.LVL1033:
.LBE6260:
.LBE6259:
.LBE6258:
.LBE6257:
	.loc 11 71 0
	cmpw 7,31,26
	bne+ 7,.L1131
.LVL1034:
.L993:
.LBE6256:
.LBE6255:
.LBE6254:
.LBE6253:
.LBE6252:
.LBE6251:
.LBE6285:
.LBE6290:
.LBE6295:
.LBE6299:
.LBE6303:
.LBE6307:
.LBB6308:
.LBB6309:
.LBB6310:
.LBB6311:
.LBB6312:
.LBB6313:
.LBB6314:
.LBB6315:
.LBB6316:
.LBB6317:
	.loc 1 338 0
	lis 9,_ZN7sigslot15single_threaded4lockEv@ha
.LBE6317:
.LBE6316:
.LBE6315:
.LBE6314:
.LBE6313:
.LBE6312:
.LBE6311:
	.loc 1 2238 0
	addi 25,30,468
.LVL1035:
.LBB6400:
.LBB6394:
.LBB6388:
.LBB6353:
.LBB6348:
.LBB6320:
.LBB6318:
	.loc 1 338 0
	la 9,_ZN7sigslot15single_threaded4lockEv@l(9)
.LBE6318:
.LBE6320:
.LBE6348:
.LBE6353:
.LBE6388:
.LBE6394:
.LBE6400:
.LBE6310:
.LBE6309:
.LBE6308:
.LBB6416:
.LBB6304:
.LBB6300:
.LBB6296:
.LBB6291:
.LBB6286:
.LBB6261:
.LBB6262:
.LBB6263:
.LBB6264:
.LBB6265:
.LBB6266:
	.loc 1 105 0
	stw 29,480(30)
.LVL1036:
.LBE6266:
.LBE6265:
.LBE6264:
.LBE6263:
.LBE6262:
.LBE6261:
.LBE6286:
.LBE6291:
.LBE6296:
.LBE6300:
.LBE6304:
.LBE6416:
.LBB6417:
.LBB6411:
.LBB6406:
.LBB6401:
.LBB6395:
.LBB6389:
	.loc 1 826 0
	stw 23,468(30)
.LVL1037:
.LBB6354:
.LBB6349:
.LBB6321:
.LBB6319:
	.loc 1 338 0
	mr 3,25
	mtctr 9
	addi 26,30,472
.LVL1038:
.LEHB99:
	bctrl
.LEHE99:
.LBE6319:
.LBE6321:
.LBE6349:
	.loc 3 144 0
	mr 26,30
	lwzu 31,472(26)
.LVL1039:
.LBB6350:
	.loc 1 834 0
	cmpw 7,31,26
	beq- 7,.L1009
.LVL1040:
.L1160:
	.loc 1 836 0
	lwz 3,8(31)
	lwz 9,0(3)
	lwz 0,8(9)
	mtctr 0
.LEHB100:
	bctrl
	stw 25,8(1)
	mr 27,3
.LVL1041:
.LBB6322:
.LBB6323:
.LBB6324:
.LBB6325:
	.loc 1 338 0
	lwz 9,0(3)
	lwz 0,8(9)
	mtctr 0
	bctrl
.LVL1042:
.LBE6325:
.LBE6324:
.LBB6326:
.LBB6327:
	.loc 10 528 0
	addi 3,27,4
	addi 4,1,8
.LVL1043:
	bl _ZNSt8_Rb_treeIPN7sigslot12_signal_baseINS0_15single_threadedEEES4_St9_IdentityIS4_ESt4lessIS4_ESaIS4_EE5eraseERKS4_
.LVL1044:
.LBE6327:
.LBE6326:
.LBB6328:
.LBB6329:
.LBB6330:
	.loc 1 343 0
	lwz 9,0(27)
	mr 3,27
	lwz 0,12(9)
	mtctr 0
	bctrl
.LVL1045:
.LBE6330:
.LBE6329:
.LBE6328:
.LBE6323:
.LBE6322:
	.loc 1 837 0
	lwz 3,8(31)
	cmpwi 7,3,0
	beq- 7,.L1011
	lwz 9,0(3)
	lwz 0,4(9)
	mtctr 0
	bctrl
.LEHE100:
.L1011:
.LVL1046:
.LBB6331:
.LBB6332:
	.loc 4 234 0
	lwz 31,0(31)
.LVL1047:
.LBE6332:
.LBE6331:
	.loc 1 834 0
	cmpw 7,26,31
	bne+ 7,.L1160
.LBE6350:
	.loc 3 144 0
	lwz 31,472(30)
.LVL1048:
.LBB6351:
.LBB6333:
.LBB6334:
	.loc 4 1162 0
	cmpw 7,26,31
	bne+ 7,.L1199
	b .L1009
.LVL1049:
.L1133:
	.loc 4 1163 0
	mr 31,27
.LVL1050:
.L1199:
.LBB6335:
.LBB6336:
	.loc 11 112 0
	lwz 27,0(31)
.LVL1051:
.LBB6337:
.LBB6338:
	.loc 4 1532 0
	mr 3,31
	bl _ZNSt8__detail15_List_node_base9_M_unhookEv
.LVL1052:
.LBB6339:
.LBB6340:
.LBB6341:
	.loc 8 98 0
	mr 3,31
	bl _ZdlPv
.LVL1053:
.LBE6341:
.LBE6340:
.LBE6339:
.LBE6338:
.LBE6337:
.LBE6336:
.LBE6335:
	.loc 4 1162 0
	cmpw 7,26,27
	bne+ 7,.L1133
.LVL1054:
.L1009:
.LBE6334:
.LBE6333:
.LBB6342:
.LBB6343:
.LBB6344:
	.loc 1 343 0
	lwz 9,468(30)
	mr 3,25
	lwz 0,12(9)
	mtctr 0
.LEHB101:
	bctrl
.LEHE101:
.LBE6344:
.LBE6343:
.LBE6342:
.LBE6351:
.LBE6354:
.LBB6355:
.LBB6356:
.LBB6357:
.LBB6358:
.LBB6359:
.LBB6360:
	.loc 11 70 0
	lwz 3,472(30)
.LVL1055:
	.loc 11 71 0
	cmpw 7,3,26
	bne+ 7,.L1201
	b .L1027
.LVL1056:
.L1134:
	.loc 11 74 0
	mr 3,31
.LVL1057:
.L1201:
.LBB6361:
	lwz 31,0(3)
.LVL1058:
.LBB6362:
.LBB6363:
.LBB6364:
	.loc 8 98 0
	bl _ZdlPv
.LVL1059:
.LBE6364:
.LBE6363:
.LBE6362:
.LBE6361:
	.loc 11 71 0
	cmpw 7,31,26
	bne+ 7,.L1134
.LVL1060:
.L1027:
.LBE6360:
.LBE6359:
.LBE6358:
.LBE6357:
.LBE6356:
.LBE6355:
.LBE6389:
.LBE6395:
.LBE6401:
.LBE6406:
.LBE6411:
.LBE6417:
.LBE6424:
.LBE6427:
.LBE6430:
.LBE6433:
.LBE6436:
.LBE6440:
.LBB6441:
.LBB6442:
.LBB6443:
.LBB6444:
.LBB6445:
.LBB6446:
.LBB6447:
.LBB6448:
.LBB6449:
.LBB6450:
.LBB6451:
.LBB6452:
.LBB6453:
.LBB6454:
.LBB6455:
.LBB6456:
	.loc 1 338 0
	lis 9,_ZN7sigslot15single_threaded4lockEv@ha
.LBE6456:
.LBE6455:
.LBE6454:
.LBE6453:
.LBE6452:
.LBE6451:
.LBE6450:
	.loc 1 2305 0
	addi 27,30,328
.LBB6541:
.LBB6536:
.LBB6531:
.LBB6495:
.LBB6489:
.LBB6460:
.LBB6457:
	.loc 1 338 0
	la 9,_ZN7sigslot15single_threaded4lockEv@l(9)
.LBE6457:
.LBE6460:
.LBE6489:
.LBE6495:
.LBE6531:
.LBE6536:
.LBE6541:
.LBE6449:
.LBE6448:
.LBE6447:
.LBE6446:
.LBE6445:
.LBE6444:
.LBE6443:
.LBE6442:
.LBE6441:
.LBB6679:
.LBB6437:
.LBB6434:
.LBB6431:
.LBB6428:
.LBB6425:
.LBB6418:
.LBB6412:
.LBB6407:
.LBB6402:
.LBB6396:
.LBB6390:
.LBB6365:
.LBB6366:
.LBB6367:
.LBB6368:
.LBB6369:
.LBB6370:
	.loc 1 105 0
	stw 29,468(30)
.LVL1061:
.LBE6370:
.LBE6369:
.LBE6368:
.LBE6367:
.LBE6366:
.LBE6365:
.LBE6390:
.LBE6396:
.LBE6402:
.LBE6407:
.LBE6412:
.LBE6418:
.LBE6425:
.LBE6428:
.LBE6431:
.LBE6434:
.LBE6437:
.LBE6679:
.LBB6680:
.LBB6675:
.LBB6671:
.LBB6667:
.LBB6663:
.LBB6659:
	.loc 2 89 0
	stw 28,312(30)
.LVL1062:
.LBB6554:
.LBB6550:
.LBB6546:
.LBB6542:
.LBB6537:
.LBB6532:
.LBB6496:
.LBB6490:
.LBB6461:
.LBB6458:
	.loc 1 338 0
	mr 3,27
.LBE6458:
.LBE6461:
.LBE6490:
.LBE6496:
	.loc 1 946 0
	stw 24,328(30)
.LVL1063:
.LBB6497:
.LBB6491:
.LBB6462:
.LBB6459:
	.loc 1 338 0
	mtctr 9
	addi 26,30,332
.LVL1064:
.LEHB102:
	bctrl
.LEHE102:
.LBE6459:
.LBE6462:
.LBE6491:
	.loc 3 144 0
	mr 26,30
	lwzu 31,332(26)
.LVL1065:
.LBB6492:
	.loc 1 954 0
	cmpw 7,31,26
	beq- 7,.L1045
.LVL1066:
.L1159:
	.loc 1 956 0
	lwz 3,8(31)
	lwz 9,0(3)
	lwz 0,8(9)
	mtctr 0
.LEHB103:
	bctrl
	stw 27,8(1)
	mr 28,3
.LVL1067:
.LBB6463:
.LBB6464:
.LBB6465:
.LBB6466:
	.loc 1 338 0
	lwz 9,0(3)
	lwz 0,8(9)
	mtctr 0
	bctrl
.LVL1068:
.LBE6466:
.LBE6465:
.LBB6467:
.LBB6468:
	.loc 10 528 0
	addi 3,28,4
	addi 4,1,8
.LVL1069:
	bl _ZNSt8_Rb_treeIPN7sigslot12_signal_baseINS0_15single_threadedEEES4_St9_IdentityIS4_ESt4lessIS4_ESaIS4_EE5eraseERKS4_
.LVL1070:
.LBE6468:
.LBE6467:
.LBB6469:
.LBB6470:
.LBB6471:
	.loc 1 343 0
	lwz 9,0(28)
	mr 3,28
	lwz 0,12(9)
	mtctr 0
	bctrl
.LVL1071:
.LBE6471:
.LBE6470:
.LBE6469:
.LBE6464:
.LBE6463:
	.loc 1 957 0
	lwz 3,8(31)
	cmpwi 7,3,0
	beq- 7,.L1047
	lwz 9,0(3)
	lwz 0,4(9)
	mtctr 0
	bctrl
.LEHE103:
.L1047:
.LVL1072:
.LBB6472:
.LBB6473:
	.loc 4 234 0
	lwz 31,0(31)
.LVL1073:
.LBE6473:
.LBE6472:
	.loc 1 954 0
	cmpw 7,26,31
	bne+ 7,.L1159
.LBE6492:
	.loc 3 144 0
	lwz 31,332(30)
.LVL1074:
.LBB6493:
.LBB6474:
.LBB6475:
	.loc 4 1162 0
	cmpw 7,26,31
	bne+ 7,.L1204
	b .L1045
.LVL1075:
.L1136:
	.loc 4 1163 0
	mr 31,28
.LVL1076:
.L1204:
.LBB6476:
.LBB6477:
	.loc 11 112 0
	lwz 28,0(31)
.LVL1077:
.LBB6478:
.LBB6479:
	.loc 4 1532 0
	mr 3,31
	bl _ZNSt8__detail15_List_node_base9_M_unhookEv
.LVL1078:
.LBB6480:
.LBB6481:
.LBB6482:
	.loc 8 98 0
	mr 3,31
	bl _ZdlPv
.LVL1079:
.LBE6482:
.LBE6481:
.LBE6480:
.LBE6479:
.LBE6478:
.LBE6477:
.LBE6476:
	.loc 4 1162 0
	cmpw 7,26,28
	bne+ 7,.L1136
.LVL1080:
.L1045:
.LBE6475:
.LBE6474:
.LBB6483:
.LBB6484:
.LBB6485:
	.loc 1 343 0
	lwz 9,328(30)
	mr 3,27
	lwz 0,12(9)
	mtctr 0
.LEHB104:
	bctrl
.LEHE104:
.LBE6485:
.LBE6484:
.LBE6483:
.LBE6493:
.LBE6497:
.LBB6498:
.LBB6499:
.LBB6500:
.LBB6501:
.LBB6502:
.LBB6503:
	.loc 11 70 0
	lwz 3,332(30)
.LVL1081:
	.loc 11 71 0
	cmpw 7,26,3
	bne+ 7,.L1206
	b .L1063
.LVL1082:
.L1137:
	.loc 11 74 0
	mr 3,31
.LVL1083:
.L1206:
.LBB6504:
	lwz 31,0(3)
.LVL1084:
.LBB6505:
.LBB6506:
.LBB6507:
	.loc 8 98 0
	bl _ZdlPv
.LVL1085:
.LBE6507:
.LBE6506:
.LBE6505:
.LBE6504:
	.loc 11 71 0
	cmpw 7,26,31
	bne+ 7,.L1137
.LVL1086:
.L1063:
.LBE6503:
.LBE6502:
.LBE6501:
.LBE6500:
.LBE6499:
.LBE6498:
.LBE6532:
.LBE6537:
.LBE6542:
.LBE6546:
.LBE6550:
.LBE6554:
.LBB6555:
.LBB6556:
.LBB6557:
.LBB6558:
.LBB6559:
.LBB6560:
.LBB6561:
.LBB6562:
.LBB6563:
.LBB6564:
	.loc 1 338 0
	lis 9,_ZN7sigslot15single_threaded4lockEv@ha
.LBE6564:
.LBE6563:
.LBE6562:
.LBE6561:
.LBE6560:
.LBE6559:
.LBE6558:
	.loc 1 2238 0
	addi 26,30,316
.LVL1087:
.LBB6643:
.LBB6639:
.LBB6635:
.LBB6600:
.LBB6595:
.LBB6567:
.LBB6565:
	.loc 1 338 0
	la 9,_ZN7sigslot15single_threaded4lockEv@l(9)
.LBE6565:
.LBE6567:
.LBE6595:
.LBE6600:
.LBE6635:
.LBE6639:
.LBE6643:
.LBE6557:
.LBE6556:
.LBE6555:
.LBB6653:
.LBB6551:
.LBB6547:
.LBB6543:
.LBB6538:
.LBB6533:
.LBB6508:
.LBB6509:
.LBB6510:
.LBB6511:
.LBB6512:
.LBB6513:
	.loc 1 105 0
	stw 29,328(30)
.LVL1088:
.LBE6513:
.LBE6512:
.LBE6511:
.LBE6510:
.LBE6509:
.LBE6508:
.LBE6533:
.LBE6538:
.LBE6543:
.LBE6547:
.LBE6551:
.LBE6653:
.LBB6654:
.LBB6650:
.LBB6647:
.LBB6644:
.LBB6640:
.LBB6636:
	.loc 1 826 0
	stw 23,316(30)
.LVL1089:
.LBB6601:
.LBB6596:
.LBB6568:
.LBB6566:
	.loc 1 338 0
	mr 3,26
	mtctr 9
	addi 27,30,320
.LVL1090:
.LEHB105:
	bctrl
.LEHE105:
.LBE6566:
.LBE6568:
.LBE6596:
	.loc 3 144 0
	mr 27,30
	lwzu 31,320(27)
.LVL1091:
.LBB6597:
	.loc 1 834 0
	cmpw 7,31,27
	beq- 7,.L1079
.LVL1092:
.L1158:
	.loc 1 836 0
	lwz 3,8(31)
	lwz 9,0(3)
	lwz 0,8(9)
	mtctr 0
.LEHB106:
	bctrl
	stw 26,8(1)
	mr 28,3
.LVL1093:
.LBB6569:
.LBB6570:
.LBB6571:
.LBB6572:
	.loc 1 338 0
	lwz 9,0(3)
	lwz 0,8(9)
	mtctr 0
	bctrl
.LVL1094:
.LBE6572:
.LBE6571:
.LBB6573:
.LBB6574:
	.loc 10 528 0
	addi 3,28,4
	addi 4,1,8
.LVL1095:
	bl _ZNSt8_Rb_treeIPN7sigslot12_signal_baseINS0_15single_threadedEEES4_St9_IdentityIS4_ESt4lessIS4_ESaIS4_EE5eraseERKS4_
.LVL1096:
.LBE6574:
.LBE6573:
.LBB6575:
.LBB6576:
.LBB6577:
	.loc 1 343 0
	lwz 9,0(28)
	mr 3,28
	lwz 0,12(9)
	mtctr 0
	bctrl
.LVL1097:
.LBE6577:
.LBE6576:
.LBE6575:
.LBE6570:
.LBE6569:
	.loc 1 837 0
	lwz 3,8(31)
	cmpwi 7,3,0
	beq- 7,.L1081
	lwz 9,0(3)
	lwz 0,4(9)
	mtctr 0
	bctrl
.LEHE106:
.L1081:
.LVL1098:
.LBB6578:
.LBB6579:
	.loc 4 234 0
	lwz 31,0(31)
.LVL1099:
.LBE6579:
.LBE6578:
	.loc 1 834 0
	cmpw 7,27,31
	bne+ 7,.L1158
.LBE6597:
	.loc 3 144 0
	lwz 31,320(30)
.LVL1100:
.LBB6598:
.LBB6580:
.LBB6581:
	.loc 4 1162 0
	cmpw 7,27,31
	bne+ 7,.L1209
	b .L1079
.LVL1101:
.L1139:
	.loc 4 1163 0
	mr 31,28
.LVL1102:
.L1209:
.LBB6582:
.LBB6583:
	.loc 11 112 0
	lwz 28,0(31)
.LVL1103:
.LBB6584:
.LBB6585:
	.loc 4 1532 0
	mr 3,31
	bl _ZNSt8__detail15_List_node_base9_M_unhookEv
.LVL1104:
.LBB6586:
.LBB6587:
.LBB6588:
	.loc 8 98 0
	mr 3,31
	bl _ZdlPv
.LVL1105:
.LBE6588:
.LBE6587:
.LBE6586:
.LBE6585:
.LBE6584:
.LBE6583:
.LBE6582:
	.loc 4 1162 0
	cmpw 7,27,28
	bne+ 7,.L1139
.LVL1106:
.L1079:
.LBE6581:
.LBE6580:
.LBB6589:
.LBB6590:
.LBB6591:
	.loc 1 343 0
	lwz 9,316(30)
	mr 3,26
	lwz 0,12(9)
	mtctr 0
.LEHB107:
	bctrl
.LEHE107:
.LBE6591:
.LBE6590:
.LBE6589:
.LBE6598:
.LBE6601:
.LBB6602:
.LBB6603:
.LBB6604:
.LBB6605:
.LBB6606:
.LBB6607:
	.loc 11 70 0
	lwz 3,320(30)
.LVL1107:
	.loc 11 71 0
	cmpw 7,3,27
	bne+ 7,.L1211
	b .L1097
.LVL1108:
.L1140:
	.loc 11 74 0
	mr 3,31
.LVL1109:
.L1211:
.LBB6608:
	lwz 31,0(3)
.LVL1110:
.LBB6609:
.LBB6610:
.LBB6611:
	.loc 8 98 0
	bl _ZdlPv
.LVL1111:
.LBE6611:
.LBE6610:
.LBE6609:
.LBE6608:
	.loc 11 71 0
	cmpw 7,31,27
	bne+ 7,.L1140
.LVL1112:
.L1097:
.LBE6607:
.LBE6606:
.LBE6605:
.LBE6604:
.LBE6603:
.LBE6602:
.LBB6612:
.LBB6613:
.LBB6614:
.LBB6615:
.LBB6616:
.LBB6617:
	.loc 1 105 0
	stw 29,316(30)
.LBE6617:
.LBE6616:
.LBE6615:
.LBE6614:
.LBE6613:
.LBE6612:
.LBE6636:
.LBE6640:
.LBE6644:
.LBE6647:
.LBE6650:
.LBE6654:
.LBE6659:
.LBE6663:
.LBE6667:
.LBE6671:
.LBE6675:
.LBE6680:
	.loc 12 32 0
	mr 3,30
.LEHB108:
	bl _ZN9GuiButtonD2Ev
.LEHE108:
.LBE6703:
	lwz 0,68(1)
	lwz 23,28(1)
	mtlr 0
	lwz 24,32(1)
	lwz 25,36(1)
.LVL1113:
	lwz 26,40(1)
.LVL1114:
	lwz 27,44(1)
.LVL1115:
	lwz 28,48(1)
	lwz 29,52(1)
	lwz 30,56(1)
.LVL1116:
	lwz 31,60(1)
	addi 1,1,64
	.cfi_remember_state
.LCFI89:
	.cfi_def_cfa_offset 0
	.cfi_restore 31
	.cfi_restore 30
	.cfi_restore 29
	.cfi_restore 28
	.cfi_restore 27
	.cfi_restore 26
	.cfi_restore 25
	.cfi_restore 24
	.cfi_restore 23
	blr
.LVL1117:
.L1142:
.LCFI90:
	.cfi_restore_state
	mr 31,3
.L845:
.LBB6704:
.LBB6681:
.LBB5946:
.LBB5938:
.LBB5930:
.LBB5922:
.LBB5914:
.LBB5903:
.LBB5785:
.LBB5775:
.LBB5765:
.LBB5755:
.LBB5745:
.LBB5716:
.LBB5717:
.LBB5718:
.LBB5719:
.LBB5720:
.LBB5721:
	.loc 11 70 0
	lwz 3,800(30)
.LVL1118:
	.loc 11 71 0
	cmpw 7,3,27
	beq- 7,.L862
.LVL1119:
.L1178:
.LBB5722:
	.loc 11 74 0
	lwz 29,0(3)
.LVL1120:
.LBB5723:
.LBB5724:
.LBB5725:
	.loc 8 98 0
	bl _ZdlPv
.LVL1121:
.LBE5725:
.LBE5724:
.LBE5723:
.LBE5722:
	.loc 11 71 0
	cmpw 7,29,27
	beq- 7,.L862
	.loc 11 74 0
	mr 3,29
	b .L1178
.LVL1122:
.L1157:
.LBE5721:
.LBE5720:
.LBE5719:
.LBE5718:
.LBE5717:
.LBE5716:
.LBE5745:
.LBE5755:
.LBE5765:
.LBE5775:
.LBE5785:
.LBE5903:
.LBE5914:
.LBE5922:
.LBE5930:
.LBE5938:
.LBE5946:
.LBE6681:
.LBB6682:
.LBB6676:
.LBB6672:
.LBB6668:
.LBB6664:
.LBB6660:
.LBB6655:
.LBB6651:
.LBB6648:
.LBB6645:
.LBB6641:
.LBB6637:
.LBB6618:
.LBB6599:
.LBB6592:
.LBB6593:
.LBB6594:
	.loc 1 343 0
	lwz 9,316(30)
	mr 31,3
.LVL1123:
	mr 3,26
	lwz 0,12(9)
	mtctr 0
	bctrl
.LVL1124:
.L1089:
.LBE6594:
.LBE6593:
.LBE6592:
.LBE6599:
.LBE6618:
.LBB6619:
.LBB6620:
.LBB6621:
.LBB6622:
.LBB6623:
.LBB6624:
	.loc 11 70 0
	lwz 3,320(30)
.LVL1125:
	.loc 11 71 0
	cmpw 7,3,27
	beq- 7,.L1106
.LVL1126:
.L1212:
.LBB6625:
	.loc 11 74 0
	lwz 28,0(3)
.LVL1127:
.LBB6626:
.LBB6627:
.LBB6628:
	.loc 8 98 0
	bl _ZdlPv
.LVL1128:
.LBE6628:
.LBE6627:
.LBE6626:
.LBE6625:
	.loc 11 71 0
	cmpw 7,28,27
	beq- 7,.L1106
	.loc 11 74 0
	mr 3,28
	b .L1212
.LVL1129:
.L862:
.LBE6624:
.LBE6623:
.LBE6622:
.LBE6621:
.LBE6620:
.LBE6619:
.LBE6637:
.LBE6641:
.LBE6645:
.LBE6648:
.LBE6651:
.LBE6655:
.LBE6660:
.LBE6664:
.LBE6668:
.LBE6672:
.LBE6676:
.LBE6682:
.LBB6683:
.LBB5947:
.LBB5939:
.LBB5931:
.LBB5923:
.LBB5915:
.LBB5904:
.LBB5786:
.LBB5776:
.LBB5766:
.LBB5756:
.LBB5746:
.LBB5726:
.LBB5727:
.LBB5728:
.LBB5729:
.LBB5730:
.LBB5731:
	.loc 1 105 0
	lis 9,_ZTVN7sigslot15single_threadedE+8@ha
.LBE5731:
.LBE5730:
.LBE5729:
.LBE5728:
.LBE5727:
.LBE5726:
.LBE5746:
.LBE5756:
.LBE5766:
.LBE5776:
.LBE5786:
.LBE5904:
	.loc 2 89 0
	addi 3,30,784
.LBB5905:
.LBB5787:
.LBB5777:
.LBB5767:
.LBB5757:
.LBB5747:
.LBB5737:
.LBB5736:
.LBB5735:
.LBB5734:
.LBB5733:
.LBB5732:
	.loc 1 105 0
	la 0,_ZTVN7sigslot15single_threadedE+8@l(9)
	stw 0,796(30)
.LBE5732:
.LBE5733:
.LBE5734:
.LBE5735:
.LBE5736:
.LBE5737:
.LBE5747:
.LBE5757:
.LBE5767:
.LBE5777:
.LBE5787:
.LBE5905:
	.loc 2 89 0
	bl _ZN7sigslot7signal2IP10GuiElementbNS_15single_threadedEED1Ev
.LVL1130:
.L865:
.LBE5915:
.LBE5923:
.LBE5931:
.LBE5939:
.LBE5947:
.LBE6683:
.LBB6684:
.LBB6685:
.LBB6686:
	.loc 5 29 0
	lis 9,_ZTV6GuiBox+8@ha
	mr 3,30
	la 0,_ZTV6GuiBox+8@l(9)
	stwu 0,616(3)
	bl _ZN10GuiElementD2Ev
.LVL1131:
.L935:
.LBE6686:
.LBE6685:
.LBE6684:
.LBB6687:
.LBB6688:
.LBB6689:
	.loc 7 29 0
	lis 9,_ZTV8GuiCross+8@ha
	mr 3,30
	la 0,_ZTV8GuiCross+8@l(9)
	stwu 0,464(3)
	bl _ZN10GuiElementD2Ev
.LVL1132:
.L1005:
.LBE6689:
.LBE6688:
.LBE6687:
.LBB6690:
.LBB6691:
.LBB6692:
	.loc 6 29 0
	lis 9,_ZTV12GuiChecksign+8@ha
	mr 3,30
	la 0,_ZTV12GuiChecksign+8@l(9)
	stwu 0,312(3)
	bl _ZN10GuiElementD2Ev
.LVL1133:
.L1075:
.LBE6692:
.LBE6691:
.LBE6690:
	.loc 12 32 0
	mr 3,30
	bl _ZN9GuiButtonD2Ev
	mr 3,31
.LEHB109:
	bl _Unwind_Resume
.LEHE109:
.LVL1134:
.L1106:
.LBB6693:
.LBB6677:
.LBB6673:
.LBB6669:
.LBB6665:
.LBB6661:
.LBB6656:
.LBB6652:
.LBB6649:
.LBB6646:
.LBB6642:
.LBB6638:
.LBB6629:
.LBB6630:
.LBB6631:
.LBB6632:
.LBB6633:
.LBB6634:
	.loc 1 105 0
	stw 29,316(30)
	b .L1075
.LVL1135:
.L1156:
	mr 31,3
	b .L1089
.LVL1136:
.L1155:
.LBE6634:
.LBE6633:
.LBE6632:
.LBE6631:
.LBE6630:
.LBE6629:
.LBE6638:
.LBE6642:
.LBE6646:
.LBE6649:
.LBE6652:
.LBE6656:
.LBB6657:
.LBB6552:
.LBB6548:
.LBB6544:
.LBB6539:
.LBB6534:
.LBB6514:
.LBB6494:
.LBB6486:
.LBB6487:
.LBB6488:
	.loc 1 343 0
	lwz 9,328(30)
	mr 31,3
.LVL1137:
	mr 3,27
	lwz 0,12(9)
	mtctr 0
	bctrl
.LVL1138:
.L1055:
.LBE6488:
.LBE6487:
.LBE6486:
.LBE6494:
.LBE6514:
.LBB6515:
.LBB6516:
.LBB6517:
.LBB6518:
.LBB6519:
.LBB6520:
	.loc 11 70 0
	lwz 3,332(30)
.LVL1139:
	.loc 11 71 0
	cmpw 7,3,26
	beq- 7,.L1072
.LVL1140:
.L1208:
.LBB6521:
	.loc 11 74 0
	lwz 28,0(3)
.LVL1141:
.LBB6522:
.LBB6523:
.LBB6524:
	.loc 8 98 0
	bl _ZdlPv
.LVL1142:
.LBE6524:
.LBE6523:
.LBE6522:
.LBE6521:
	.loc 11 71 0
	cmpw 7,28,26
	beq- 7,.L1072
	.loc 11 74 0
	mr 3,28
	b .L1208
.LVL1143:
.L1154:
	mr 31,3
	b .L1055
.LVL1144:
.L1152:
	mr 31,3
.L1019:
.LBE6520:
.LBE6519:
.LBE6518:
.LBE6517:
.LBE6516:
.LBE6515:
.LBE6534:
.LBE6539:
.LBE6544:
.LBE6548:
.LBE6552:
.LBE6657:
.LBE6661:
.LBE6665:
.LBE6669:
.LBE6673:
.LBE6677:
.LBE6693:
.LBB6694:
.LBB6438:
.LBB6435:
.LBB6432:
.LBB6429:
.LBB6426:
.LBB6419:
.LBB6413:
.LBB6408:
.LBB6403:
.LBB6397:
.LBB6391:
.LBB6371:
.LBB6372:
.LBB6373:
.LBB6374:
.LBB6375:
.LBB6376:
	.loc 11 70 0
	lwz 3,472(30)
.LVL1145:
	.loc 11 71 0
	cmpw 7,3,26
	beq- 7,.L1036
.LVL1146:
.L1203:
.LBB6377:
	.loc 11 74 0
	lwz 28,0(3)
.LVL1147:
.LBB6378:
.LBB6379:
.LBB6380:
	.loc 8 98 0
	bl _ZdlPv
.LVL1148:
.LBE6380:
.LBE6379:
.LBE6378:
.LBE6377:
	.loc 11 71 0
	cmpw 7,28,26
	beq- 7,.L1036
	.loc 11 74 0
	mr 3,28
	b .L1203
.LVL1149:
.L1151:
.LBE6376:
.LBE6375:
.LBE6374:
.LBE6373:
.LBE6372:
.LBE6371:
.LBE6391:
.LBE6397:
.LBE6403:
.LBE6408:
.LBE6413:
.LBE6419:
.LBB6420:
.LBB6305:
.LBB6301:
.LBB6297:
.LBB6292:
.LBB6287:
.LBB6267:
.LBB6247:
.LBB6239:
.LBB6240:
.LBB6241:
	.loc 1 343 0
	lwz 9,480(30)
	mr 31,3
.LVL1150:
	mr 3,25
	lwz 0,12(9)
	mtctr 0
	bctrl
.LVL1151:
.L985:
.LBE6241:
.LBE6240:
.LBE6239:
.LBE6247:
.LBE6267:
.LBB6268:
.LBB6269:
.LBB6270:
.LBB6271:
.LBB6272:
.LBB6273:
	.loc 11 70 0
	lwz 3,484(30)
.LVL1152:
	.loc 11 71 0
	cmpw 7,3,26
	beq- 7,.L1002
.LVL1153:
.L1198:
.LBB6274:
	.loc 11 74 0
	lwz 28,0(3)
.LVL1154:
.LBB6275:
.LBB6276:
.LBB6277:
	.loc 8 98 0
	bl _ZdlPv
.LVL1155:
.LBE6277:
.LBE6276:
.LBE6275:
.LBE6274:
	.loc 11 71 0
	cmpw 7,28,26
	beq- 7,.L1002
	.loc 11 74 0
	mr 3,28
	b .L1198
.LVL1156:
.L1036:
.LBE6273:
.LBE6272:
.LBE6271:
.LBE6270:
.LBE6269:
.LBE6268:
.LBE6287:
.LBE6292:
.LBE6297:
.LBE6301:
.LBE6305:
.LBE6420:
.LBB6421:
.LBB6414:
.LBB6409:
.LBB6404:
.LBB6398:
.LBB6392:
.LBB6381:
.LBB6382:
.LBB6383:
.LBB6384:
.LBB6385:
.LBB6386:
	.loc 1 105 0
	stw 29,468(30)
	b .L1005
.LVL1157:
.L1002:
.LBE6386:
.LBE6385:
.LBE6384:
.LBE6383:
.LBE6382:
.LBE6381:
.LBE6392:
.LBE6398:
.LBE6404:
.LBE6409:
.LBE6414:
.LBE6421:
.LBB6422:
.LBB6306:
.LBB6302:
.LBB6298:
.LBB6293:
.LBB6288:
.LBB6278:
.LBB6279:
.LBB6280:
.LBB6281:
.LBB6282:
.LBB6283:
	stw 29,480(30)
.LBE6283:
.LBE6282:
.LBE6281:
.LBE6280:
.LBE6279:
.LBE6278:
.LBE6288:
.LBE6293:
.LBE6298:
.LBE6302:
.LBE6306:
.LBE6422:
	.loc 2 89 0
	addi 3,30,468
	bl _ZN7sigslot7signal2IP10GuiElementbNS_15single_threadedEED1Ev
	b .L1005
.LVL1158:
.L1153:
.LBB6423:
.LBB6415:
.LBB6410:
.LBB6405:
.LBB6399:
.LBB6393:
.LBB6387:
.LBB6352:
.LBB6345:
.LBB6346:
.LBB6347:
	.loc 1 343 0
	lwz 9,468(30)
	mr 31,3
.LVL1159:
	mr 3,25
	lwz 0,12(9)
	mtctr 0
	bctrl
	b .L1019
.LVL1160:
.L1072:
.LBE6347:
.LBE6346:
.LBE6345:
.LBE6352:
.LBE6387:
.LBE6393:
.LBE6399:
.LBE6405:
.LBE6410:
.LBE6415:
.LBE6423:
.LBE6426:
.LBE6429:
.LBE6432:
.LBE6435:
.LBE6438:
.LBE6694:
.LBB6695:
.LBB6678:
.LBB6674:
.LBB6670:
.LBB6666:
.LBB6662:
.LBB6658:
.LBB6553:
.LBB6549:
.LBB6545:
.LBB6540:
.LBB6535:
.LBB6525:
.LBB6526:
.LBB6527:
.LBB6528:
.LBB6529:
.LBB6530:
	.loc 1 105 0
	stw 29,328(30)
.LBE6530:
.LBE6529:
.LBE6528:
.LBE6527:
.LBE6526:
.LBE6525:
.LBE6535:
.LBE6540:
.LBE6545:
.LBE6549:
.LBE6553:
.LBE6658:
	.loc 2 89 0
	addi 3,30,316
	bl _ZN7sigslot7signal2IP10GuiElementbNS_15single_threadedEED1Ev
	b .L1075
.LVL1161:
.L1150:
	mr 31,3
	b .L985
.LVL1162:
.L1149:
.LBE6662:
.LBE6666:
.LBE6670:
.LBE6674:
.LBE6678:
.LBE6695:
.LBB6696:
.LBB6191:
.LBB6188:
.LBB6185:
.LBB6182:
.LBB6179:
.LBB6173:
.LBB6168:
.LBB6164:
.LBB6160:
.LBB6155:
.LBB6150:
.LBB6130:
.LBB6111:
.LBB6104:
.LBB6105:
.LBB6106:
	.loc 1 343 0
	lwz 9,620(30)
	mr 31,3
.LVL1163:
	mr 3,25
	lwz 0,12(9)
	mtctr 0
	bctrl
.LVL1164:
.L949:
.LBE6106:
.LBE6105:
.LBE6104:
.LBE6111:
.LBE6130:
.LBB6131:
.LBB6132:
.LBB6133:
.LBB6134:
.LBB6135:
.LBB6136:
	.loc 11 70 0
	lwz 3,624(30)
.LVL1165:
	.loc 11 71 0
	cmpw 7,3,26
	beq- 7,.L966
.LVL1166:
.L1193:
.LBB6137:
	.loc 11 74 0
	lwz 28,0(3)
.LVL1167:
.LBB6138:
.LBB6139:
.LBB6140:
	.loc 8 98 0
	bl _ZdlPv
.LVL1168:
.LBE6140:
.LBE6139:
.LBE6138:
.LBE6137:
	.loc 11 71 0
	cmpw 7,28,26
	beq- 7,.L966
	.loc 11 74 0
	mr 3,28
	b .L1193
.LVL1169:
.L1148:
	mr 31,3
	b .L949
.LVL1170:
.L1147:
.LBE6136:
.LBE6135:
.LBE6134:
.LBE6133:
.LBE6132:
.LBE6131:
.LBE6150:
.LBE6155:
.LBE6160:
.LBE6164:
.LBE6168:
.LBE6173:
.LBB6174:
.LBB6064:
.LBB6060:
.LBB6056:
.LBB6051:
.LBB6046:
.LBB6026:
.LBB6006:
.LBB5998:
.LBB5999:
.LBB6000:
	.loc 1 343 0
	lwz 9,632(30)
	mr 31,3
.LVL1171:
	mr 3,25
	lwz 0,12(9)
	mtctr 0
	bctrl
.LVL1172:
.L915:
.LBE6000:
.LBE5999:
.LBE5998:
.LBE6006:
.LBE6026:
.LBB6027:
.LBB6028:
.LBB6029:
.LBB6030:
.LBB6031:
.LBB6032:
	.loc 11 70 0
	lwz 3,636(30)
.LVL1173:
	.loc 11 71 0
	cmpw 7,3,26
	beq- 7,.L932
.LVL1174:
.L1188:
.LBB6033:
	.loc 11 74 0
	lwz 28,0(3)
.LVL1175:
.LBB6034:
.LBB6035:
.LBB6036:
	.loc 8 98 0
	bl _ZdlPv
.LVL1176:
.LBE6036:
.LBE6035:
.LBE6034:
.LBE6033:
	.loc 11 71 0
	cmpw 7,28,26
	beq- 7,.L932
	.loc 11 74 0
	mr 3,28
	b .L1188
.LVL1177:
.L966:
.LBE6032:
.LBE6031:
.LBE6030:
.LBE6029:
.LBE6028:
.LBE6027:
.LBE6046:
.LBE6051:
.LBE6056:
.LBE6060:
.LBE6064:
.LBE6174:
.LBB6175:
.LBB6169:
.LBB6165:
.LBB6161:
.LBB6156:
.LBB6151:
.LBB6141:
.LBB6142:
.LBB6143:
.LBB6144:
.LBB6145:
.LBB6146:
	.loc 1 105 0
	stw 29,620(30)
	b .L935
.LVL1178:
.L932:
.LBE6146:
.LBE6145:
.LBE6144:
.LBE6143:
.LBE6142:
.LBE6141:
.LBE6151:
.LBE6156:
.LBE6161:
.LBE6165:
.LBE6169:
.LBE6175:
.LBB6176:
.LBB6065:
.LBB6061:
.LBB6057:
.LBB6052:
.LBB6047:
.LBB6037:
.LBB6038:
.LBB6039:
.LBB6040:
.LBB6041:
.LBB6042:
	stw 29,632(30)
.LBE6042:
.LBE6041:
.LBE6040:
.LBE6039:
.LBE6038:
.LBE6037:
.LBE6047:
.LBE6052:
.LBE6057:
.LBE6061:
.LBE6065:
.LBE6176:
	.loc 2 89 0
	addi 3,30,620
	bl _ZN7sigslot7signal2IP10GuiElementbNS_15single_threadedEED1Ev
	b .L935
.LVL1179:
.L1146:
	mr 31,3
	b .L915
.LVL1180:
.L1145:
.LBE6179:
.LBE6182:
.LBE6185:
.LBE6188:
.LBE6191:
.LBE6696:
.LBB6697:
.LBB5948:
.LBB5940:
.LBB5932:
.LBB5924:
.LBB5916:
.LBB5906:
.LBB5896:
.LBB5891:
.LBB5886:
.LBB5881:
.LBB5876:
.LBB5856:
.LBB5837:
.LBB5830:
.LBB5831:
.LBB5832:
	.loc 1 343 0
	lwz 9,784(30)
	mr 31,3
.LVL1181:
	mr 3,25
	lwz 0,12(9)
	mtctr 0
	bctrl
.LVL1182:
.L879:
.LBE5832:
.LBE5831:
.LBE5830:
.LBE5837:
.LBE5856:
.LBB5857:
.LBB5858:
.LBB5859:
.LBB5860:
.LBB5861:
.LBB5862:
	.loc 11 70 0
	lwz 3,788(30)
.LVL1183:
	.loc 11 71 0
	cmpw 7,3,26
	beq- 7,.L896
.LVL1184:
.L1183:
.LBB5863:
	.loc 11 74 0
	lwz 28,0(3)
.LVL1185:
.LBB5864:
.LBB5865:
.LBB5866:
	.loc 8 98 0
	bl _ZdlPv
.LVL1186:
.LBE5866:
.LBE5865:
.LBE5864:
.LBE5863:
	.loc 11 71 0
	cmpw 7,28,26
	beq- 7,.L896
	.loc 11 74 0
	mr 3,28
	b .L1183
.LVL1187:
.L1144:
	mr 31,3
	b .L879
.LVL1188:
.L1143:
.LBE5862:
.LBE5861:
.LBE5860:
.LBE5859:
.LBE5858:
.LBE5857:
.LBE5876:
.LBE5881:
.LBE5886:
.LBE5891:
.LBE5896:
.LBE5906:
.LBB5907:
.LBB5788:
.LBB5778:
.LBB5768:
.LBB5758:
.LBB5748:
.LBB5738:
.LBB5684:
.LBB5676:
.LBB5677:
.LBB5678:
	.loc 1 343 0
	lwz 9,796(30)
	mr 31,3
.LVL1189:
	mr 3,26
	lwz 0,12(9)
	mtctr 0
	bctrl
	b .L845
.LVL1190:
.L896:
.LBE5678:
.LBE5677:
.LBE5676:
.LBE5684:
.LBE5738:
.LBE5748:
.LBE5758:
.LBE5768:
.LBE5778:
.LBE5788:
.LBE5907:
.LBB5908:
.LBB5897:
.LBB5892:
.LBB5887:
.LBB5882:
.LBB5877:
.LBB5867:
.LBB5868:
.LBB5869:
.LBB5870:
.LBB5871:
.LBB5872:
	.loc 1 105 0
	stw 29,784(30)
	b .L865
.LBE5872:
.LBE5871:
.LBE5870:
.LBE5869:
.LBE5868:
.LBE5867:
.LBE5877:
.LBE5882:
.LBE5887:
.LBE5892:
.LBE5897:
.LBE5908:
.LBE5916:
.LBE5924:
.LBE5932:
.LBE5940:
.LBE5948:
.LBE6697:
.LBE6704:
	.cfi_endproc
.LFE1845:
	.section	.gcc_except_table
.LLSDA1845:
	.byte	0xff
	.byte	0xff
	.byte	0x1
	.uleb128 .LLSDACSE1845-.LLSDACSB1845
.LLSDACSB1845:
	.uleb128 .LEHB84-.LFB1845
	.uleb128 .LEHE84-.LEHB84
	.uleb128 .L1142-.LFB1845
	.uleb128 0
	.uleb128 .LEHB85-.LFB1845
	.uleb128 .LEHE85-.LEHB85
	.uleb128 .L1143-.LFB1845
	.uleb128 0
	.uleb128 .LEHB86-.LFB1845
	.uleb128 .LEHE86-.LEHB86
	.uleb128 .L1142-.LFB1845
	.uleb128 0
	.uleb128 .LEHB87-.LFB1845
	.uleb128 .LEHE87-.LEHB87
	.uleb128 .L1144-.LFB1845
	.uleb128 0
	.uleb128 .LEHB88-.LFB1845
	.uleb128 .LEHE88-.LEHB88
	.uleb128 .L1145-.LFB1845
	.uleb128 0
	.uleb128 .LEHB89-.LFB1845
	.uleb128 .LEHE89-.LEHB89
	.uleb128 .L1144-.LFB1845
	.uleb128 0
	.uleb128 .LEHB90-.LFB1845
	.uleb128 .LEHE90-.LEHB90
	.uleb128 .L1146-.LFB1845
	.uleb128 0
	.uleb128 .LEHB91-.LFB1845
	.uleb128 .LEHE91-.LEHB91
	.uleb128 .L1147-.LFB1845
	.uleb128 0
	.uleb128 .LEHB92-.LFB1845
	.uleb128 .LEHE92-.LEHB92
	.uleb128 .L1146-.LFB1845
	.uleb128 0
	.uleb128 .LEHB93-.LFB1845
	.uleb128 .LEHE93-.LEHB93
	.uleb128 .L1148-.LFB1845
	.uleb128 0
	.uleb128 .LEHB94-.LFB1845
	.uleb128 .LEHE94-.LEHB94
	.uleb128 .L1149-.LFB1845
	.uleb128 0
	.uleb128 .LEHB95-.LFB1845
	.uleb128 .LEHE95-.LEHB95
	.uleb128 .L1148-.LFB1845
	.uleb128 0
	.uleb128 .LEHB96-.LFB1845
	.uleb128 .LEHE96-.LEHB96
	.uleb128 .L1150-.LFB1845
	.uleb128 0
	.uleb128 .LEHB97-.LFB1845
	.uleb128 .LEHE97-.LEHB97
	.uleb128 .L1151-.LFB1845
	.uleb128 0
	.uleb128 .LEHB98-.LFB1845
	.uleb128 .LEHE98-.LEHB98
	.uleb128 .L1150-.LFB1845
	.uleb128 0
	.uleb128 .LEHB99-.LFB1845
	.uleb128 .LEHE99-.LEHB99
	.uleb128 .L1152-.LFB1845
	.uleb128 0
	.uleb128 .LEHB100-.LFB1845
	.uleb128 .LEHE100-.LEHB100
	.uleb128 .L1153-.LFB1845
	.uleb128 0
	.uleb128 .LEHB101-.LFB1845
	.uleb128 .LEHE101-.LEHB101
	.uleb128 .L1152-.LFB1845
	.uleb128 0
	.uleb128 .LEHB102-.LFB1845
	.uleb128 .LEHE102-.LEHB102
	.uleb128 .L1154-.LFB1845
	.uleb128 0
	.uleb128 .LEHB103-.LFB1845
	.uleb128 .LEHE103-.LEHB103
	.uleb128 .L1155-.LFB1845
	.uleb128 0
	.uleb128 .LEHB104-.LFB1845
	.uleb128 .LEHE104-.LEHB104
	.uleb128 .L1154-.LFB1845
	.uleb128 0
	.uleb128 .LEHB105-.LFB1845
	.uleb128 .LEHE105-.LEHB105
	.uleb128 .L1156-.LFB1845
	.uleb128 0
	.uleb128 .LEHB106-.LFB1845
	.uleb128 .LEHE106-.LEHB106
	.uleb128 .L1157-.LFB1845
	.uleb128 0
	.uleb128 .LEHB107-.LFB1845
	.uleb128 .LEHE107-.LEHB107
	.uleb128 .L1156-.LFB1845
	.uleb128 0
	.uleb128 .LEHB108-.LFB1845
	.uleb128 .LEHE108-.LEHB108
	.uleb128 0
	.uleb128 0
	.uleb128 .LEHB109-.LFB1845
	.uleb128 .LEHE109-.LEHB109
	.uleb128 0
	.uleb128 0
.LLSDACSE1845:
	.section	.text._ZN11GuiCheckboxD2Ev,"axG",@progbits,_ZN11GuiCheckboxD5Ev,comdat
	.size	_ZN11GuiCheckboxD2Ev, .-_ZN11GuiCheckboxD2Ev
	.section	.text._ZN11GuiCheckboxD0Ev,"axG",@progbits,_ZN11GuiCheckboxD5Ev,comdat
	.align 2
	.weak	_ZN11GuiCheckboxD0Ev
	.type	_ZN11GuiCheckboxD0Ev, @function
_ZN11GuiCheckboxD0Ev:
.LFB1847:
	.loc 12 32 0
	.cfi_startproc
	.cfi_personality 0,__gxx_personality_v0
	.cfi_lsda 0,.LLSDA1847
.LVL1191:
	mflr 0
	stwu 1,-64(1)
.LCFI91:
	.cfi_def_cfa_offset 64
	.cfi_register 65, 0
.LBB7533:
.LBB7534:
.LBB7535:
	lis 9,_ZTV11GuiCheckbox+8@ha
.LBE7535:
.LBE7534:
.LBE7533:
	stw 24,32(1)
.LBB8617:
.LBB8610:
.LBB8603:
.LBB7536:
.LBB7537:
.LBB7538:
.LBB7539:
.LBB7540:
.LBB7541:
.LBB7542:
.LBB7543:
.LBB7544:
.LBB7545:
.LBB7546:
.LBB7547:
	.loc 1 946 0
	lis 24,_ZTVN7sigslot13_signal_base3IP10GuiElementiiNS_15single_threadedEEE+8@ha
	.cfi_offset 24, -32
.LBE7547:
.LBE7546:
.LBE7545:
.LBE7544:
.LBE7543:
.LBE7542:
.LBE7541:
.LBE7540:
.LBE7539:
.LBE7538:
.LBE7537:
.LBE7536:
.LBE8603:
.LBE8610:
.LBE8617:
	.loc 12 32 0
	stw 0,68(1)
.LBB8618:
.LBB8611:
.LBB8604:
	la 0,_ZTV11GuiCheckbox+8@l(9)
	.cfi_offset 65, 4
.LBE8604:
.LBE8611:
.LBE8618:
	stw 28,48(1)
.LBB8619:
.LBB8612:
.LBB8605:
.LBB7854:
.LBB7846:
.LBB7838:
.LBB7830:
.LBB7822:
.LBB7814:
.LBB7694:
.LBB7684:
.LBB7674:
.LBB7664:
.LBB7654:
.LBB7644:
.LBB7548:
.LBB7549:
.LBB7550:
.LBB7551:
	.loc 1 338 0
	lis 9,_ZN7sigslot15single_threaded4lockEv@ha
.LBE7551:
.LBE7550:
.LBE7549:
.LBE7548:
.LBE7644:
.LBE7654:
.LBE7664:
.LBE7674:
.LBE7684:
.LBE7694:
	.loc 2 89 0
	lis 28,_ZTV10GuiElement+8@ha
	.cfi_offset 28, -16
.LBE7814:
.LBE7822:
.LBE7830:
.LBE7838:
.LBE7846:
.LBE7854:
.LBE8605:
.LBE8612:
.LBE8619:
	.loc 12 32 0
	stw 26,40(1)
.LBB8620:
.LBB8613:
.LBB8606:
.LBB7855:
.LBB7847:
.LBB7839:
.LBB7831:
.LBB7823:
.LBB7815:
	.loc 2 89 0
	la 28,_ZTV10GuiElement+8@l(28)
.LBB7695:
.LBB7685:
.LBB7675:
	.loc 1 2305 0
	addi 26,3,796
	.cfi_offset 26, -24
.LBB7665:
.LBB7655:
.LBB7645:
	.loc 1 946 0
	la 24,_ZTVN7sigslot13_signal_base3IP10GuiElementiiNS_15single_threadedEEE+8@l(24)
.LBB7590:
.LBB7584:
.LBB7555:
.LBB7552:
	.loc 1 338 0
	la 9,_ZN7sigslot15single_threaded4lockEv@l(9)
.LBE7552:
.LBE7555:
.LBE7584:
.LBE7590:
.LBE7645:
.LBE7655:
.LBE7665:
.LBE7675:
.LBE7685:
.LBE7695:
.LBE7815:
.LBE7823:
.LBE7831:
.LBE7839:
.LBE7847:
.LBE7855:
.LBE8606:
.LBE8613:
.LBE8620:
	.loc 12 32 0
	stw 27,44(1)
.LBB8621:
.LBB8614:
.LBB8607:
.LBB7856:
.LBB7848:
.LBB7840:
.LBB7832:
.LBB7824:
.LBB7816:
.LBB7696:
.LBB7686:
.LBB7676:
.LBB7666:
.LBB7656:
.LBB7646:
.LBB7591:
.LBB7585:
.LBB7556:
.LBB7553:
	.loc 1 338 0
	mtctr 9
.LBE7553:
.LBE7556:
.LBE7585:
.LBE7591:
.LBE7646:
.LBE7656:
.LBE7666:
.LBE7676:
.LBE7686:
.LBE7696:
.LBE7816:
.LBE7824:
.LBE7832:
.LBE7840:
.LBE7848:
.LBE7856:
.LBE8607:
.LBE8614:
.LBE8621:
	.loc 12 32 0
	stw 30,56(1)
	mr 30,3
	.cfi_offset 30, -8
	.cfi_offset 27, -20
.LVL1192:
	stw 23,28(1)
	addi 27,30,800
	stw 25,36(1)
	stw 29,52(1)
	stw 31,60(1)
.LBB8622:
.LBB8615:
.LBB8608:
	.loc 12 32 0
	stw 0,0(3)
.LVL1193:
.LBB7857:
.LBB7849:
.LBB7841:
.LBB7833:
.LBB7825:
.LBB7817:
	.loc 2 89 0
	stw 28,780(3)
.LBB7697:
.LBB7687:
.LBB7677:
.LBB7667:
.LBB7657:
.LBB7647:
	.loc 1 946 0
	stw 24,796(3)
.LBB7592:
.LBB7586:
.LBB7557:
.LBB7554:
	.loc 1 338 0
	mr 3,26
.LVL1194:
.LEHB110:
	.cfi_offset 31, -4
	.cfi_offset 29, -12
	.cfi_offset 25, -28
	.cfi_offset 23, -36
	bctrl
.LEHE110:
.LBE7554:
.LBE7557:
.LBE7586:
	.loc 3 144 0
	mr 27,30
.LVL1195:
	lwzu 31,800(27)
.LVL1196:
.LBB7587:
	.loc 1 954 0
	cmpw 7,31,27
	beq- 7,.L1215
.LVL1197:
.L1546:
	.loc 1 956 0
	lwz 3,8(31)
	lwz 9,0(3)
	lwz 0,8(9)
	mtctr 0
.LEHB111:
	bctrl
	stw 26,8(1)
	mr 29,3
.LVL1198:
.LBB7558:
.LBB7559:
.LBB7560:
.LBB7561:
	.loc 1 338 0
	lwz 9,0(3)
	lwz 0,8(9)
	mtctr 0
	bctrl
.LVL1199:
.LBE7561:
.LBE7560:
.LBB7562:
.LBB7563:
	.loc 10 528 0
	addi 3,29,4
	addi 4,1,8
	bl _ZNSt8_Rb_treeIPN7sigslot12_signal_baseINS0_15single_threadedEEES4_St9_IdentityIS4_ESt4lessIS4_ESaIS4_EE5eraseERKS4_
.LVL1200:
.LBE7563:
.LBE7562:
.LBB7564:
.LBB7565:
.LBB7566:
	.loc 1 343 0
	lwz 9,0(29)
	mr 3,29
	lwz 0,12(9)
	mtctr 0
	bctrl
.LVL1201:
.LBE7566:
.LBE7565:
.LBE7564:
.LBE7559:
.LBE7558:
	.loc 1 957 0
	lwz 3,8(31)
	cmpwi 7,3,0
	beq- 7,.L1217
	lwz 9,0(3)
	lwz 0,4(9)
	mtctr 0
	bctrl
.LEHE111:
.L1217:
.LVL1202:
.LBB7567:
.LBB7568:
	.loc 4 234 0
	lwz 31,0(31)
.LVL1203:
.LBE7568:
.LBE7567:
	.loc 1 954 0
	cmpw 7,27,31
	bne+ 7,.L1546
.LBE7587:
	.loc 3 144 0
	lwz 31,800(30)
.LVL1204:
.LBB7588:
.LBB7569:
.LBB7570:
	.loc 4 1162 0
	cmpw 7,27,31
	bne+ 7,.L1555
	b .L1215
.LVL1205:
.L1499:
	.loc 4 1163 0
	mr 31,29
.LVL1206:
.L1555:
.LBB7571:
.LBB7572:
	.loc 11 112 0
	lwz 29,0(31)
.LVL1207:
.LBB7573:
.LBB7574:
	.loc 4 1532 0
	mr 3,31
	bl _ZNSt8__detail15_List_node_base9_M_unhookEv
.LVL1208:
.LBB7575:
.LBB7576:
.LBB7577:
	.loc 8 98 0
	mr 3,31
	bl _ZdlPv
.LVL1209:
.LBE7577:
.LBE7576:
.LBE7575:
.LBE7574:
.LBE7573:
.LBE7572:
.LBE7571:
	.loc 4 1162 0
	cmpw 7,27,29
	bne+ 7,.L1499
.LVL1210:
.L1215:
.LBE7570:
.LBE7569:
.LBB7578:
.LBB7579:
.LBB7580:
	.loc 1 343 0
	lwz 9,796(30)
	mr 3,26
	lwz 0,12(9)
	mtctr 0
.LEHB112:
	bctrl
.LEHE112:
.LBE7580:
.LBE7579:
.LBE7578:
.LBE7588:
.LBE7592:
.LBB7593:
.LBB7594:
.LBB7595:
.LBB7596:
.LBB7597:
.LBB7598:
	.loc 11 70 0
	lwz 3,800(30)
.LVL1211:
	.loc 11 71 0
	cmpw 7,3,27
	bne+ 7,.L1557
	b .L1233
.LVL1212:
.L1500:
	.loc 11 74 0
	mr 3,31
.LVL1213:
.L1557:
.LBB7599:
	lwz 31,0(3)
.LVL1214:
.LBB7600:
.LBB7601:
.LBB7602:
	.loc 8 98 0
	bl _ZdlPv
.LVL1215:
.LBE7602:
.LBE7601:
.LBE7600:
.LBE7599:
	.loc 11 71 0
	cmpw 7,31,27
	bne+ 7,.L1500
.LVL1216:
.L1233:
.LBE7598:
.LBE7597:
.LBE7596:
.LBE7595:
.LBE7594:
.LBE7593:
.LBB7603:
.LBB7604:
.LBB7605:
.LBB7606:
.LBB7607:
.LBB7608:
	.loc 1 105 0
	lis 29,_ZTVN7sigslot15single_threadedE+8@ha
.LBE7608:
.LBE7607:
.LBE7606:
.LBE7605:
.LBE7604:
.LBE7603:
.LBE7647:
.LBE7657:
.LBE7667:
.LBE7677:
.LBE7687:
.LBE7697:
.LBB7698:
.LBB7699:
.LBB7700:
.LBB7701:
.LBB7702:
.LBB7703:
	.loc 1 826 0
	lis 23,_ZTVN7sigslot13_signal_base2IP10GuiElementbNS_15single_threadedEEE+8@ha
.LBB7704:
.LBB7705:
.LBB7706:
.LBB7707:
	.loc 1 338 0
	lis 9,_ZN7sigslot15single_threaded4lockEv@ha
.LBE7707:
.LBE7706:
.LBE7705:
.LBE7704:
.LBE7703:
.LBE7702:
.LBE7701:
.LBE7700:
.LBE7699:
.LBE7698:
.LBB7803:
.LBB7688:
.LBB7678:
.LBB7668:
.LBB7658:
.LBB7648:
.LBB7619:
.LBB7617:
.LBB7615:
.LBB7613:
.LBB7611:
.LBB7609:
	.loc 1 105 0
	la 29,_ZTVN7sigslot15single_threadedE+8@l(29)
.LBE7609:
.LBE7611:
.LBE7613:
.LBE7615:
.LBE7617:
.LBE7619:
.LBE7648:
.LBE7658:
.LBE7668:
.LBE7678:
.LBE7688:
.LBE7803:
.LBB7804:
.LBB7798:
.LBB7793:
	.loc 1 2238 0
	addi 25,30,784
.LBB7788:
.LBB7783:
.LBB7778:
	.loc 1 826 0
	la 23,_ZTVN7sigslot13_signal_base2IP10GuiElementbNS_15single_threadedEEE+8@l(23)
.LBB7743:
.LBB7738:
.LBB7710:
.LBB7708:
	.loc 1 338 0
	la 9,_ZN7sigslot15single_threaded4lockEv@l(9)
.LBE7708:
.LBE7710:
.LBE7738:
.LBE7743:
.LBE7778:
.LBE7783:
.LBE7788:
.LBE7793:
.LBE7798:
.LBE7804:
.LBB7805:
.LBB7689:
.LBB7679:
.LBB7669:
.LBB7659:
.LBB7649:
.LBB7620:
.LBB7618:
.LBB7616:
.LBB7614:
.LBB7612:
.LBB7610:
	.loc 1 105 0
	stw 29,796(30)
.LVL1217:
.LBE7610:
.LBE7612:
.LBE7614:
.LBE7616:
.LBE7618:
.LBE7620:
.LBE7649:
.LBE7659:
.LBE7669:
.LBE7679:
.LBE7689:
.LBE7805:
.LBB7806:
.LBB7799:
.LBB7794:
.LBB7789:
.LBB7784:
.LBB7779:
	.loc 1 826 0
	stw 23,784(30)
.LVL1218:
.LBB7744:
.LBB7739:
.LBB7711:
.LBB7709:
	.loc 1 338 0
	mr 3,25
	mtctr 9
	addi 26,30,788
.LVL1219:
.LEHB113:
	bctrl
.LEHE113:
.LBE7709:
.LBE7711:
.LBE7739:
	.loc 3 144 0
	mr 26,30
	lwzu 31,788(26)
.LVL1220:
.LBB7740:
	.loc 1 834 0
	cmpw 7,31,26
	beq- 7,.L1249
.LVL1221:
.L1545:
	.loc 1 836 0
	lwz 3,8(31)
	lwz 9,0(3)
	lwz 0,8(9)
	mtctr 0
.LEHB114:
	bctrl
	stw 25,8(1)
	mr 27,3
.LVL1222:
.LBB7712:
.LBB7713:
.LBB7714:
.LBB7715:
	.loc 1 338 0
	lwz 9,0(3)
	lwz 0,8(9)
	mtctr 0
	bctrl
.LVL1223:
.LBE7715:
.LBE7714:
.LBB7716:
.LBB7717:
	.loc 10 528 0
	addi 3,27,4
	addi 4,1,8
.LVL1224:
	bl _ZNSt8_Rb_treeIPN7sigslot12_signal_baseINS0_15single_threadedEEES4_St9_IdentityIS4_ESt4lessIS4_ESaIS4_EE5eraseERKS4_
.LVL1225:
.LBE7717:
.LBE7716:
.LBB7718:
.LBB7719:
.LBB7720:
	.loc 1 343 0
	lwz 9,0(27)
	mr 3,27
	lwz 0,12(9)
	mtctr 0
	bctrl
.LVL1226:
.LBE7720:
.LBE7719:
.LBE7718:
.LBE7713:
.LBE7712:
	.loc 1 837 0
	lwz 3,8(31)
	cmpwi 7,3,0
	beq- 7,.L1251
	lwz 9,0(3)
	lwz 0,4(9)
	mtctr 0
	bctrl
.LEHE114:
.L1251:
.LVL1227:
.LBB7721:
.LBB7722:
	.loc 4 234 0
	lwz 31,0(31)
.LVL1228:
.LBE7722:
.LBE7721:
	.loc 1 834 0
	cmpw 7,26,31
	bne+ 7,.L1545
.LBE7740:
	.loc 3 144 0
	lwz 31,788(30)
.LVL1229:
.LBB7741:
.LBB7723:
.LBB7724:
	.loc 4 1162 0
	cmpw 7,26,31
	bne+ 7,.L1560
	b .L1249
.LVL1230:
.L1502:
	.loc 4 1163 0
	mr 31,27
.LVL1231:
.L1560:
.LBB7725:
.LBB7726:
	.loc 11 112 0
	lwz 27,0(31)
.LVL1232:
.LBB7727:
.LBB7728:
	.loc 4 1532 0
	mr 3,31
	bl _ZNSt8__detail15_List_node_base9_M_unhookEv
.LVL1233:
.LBB7729:
.LBB7730:
.LBB7731:
	.loc 8 98 0
	mr 3,31
	bl _ZdlPv
.LVL1234:
.LBE7731:
.LBE7730:
.LBE7729:
.LBE7728:
.LBE7727:
.LBE7726:
.LBE7725:
	.loc 4 1162 0
	cmpw 7,26,27
	bne+ 7,.L1502
.LVL1235:
.L1249:
.LBE7724:
.LBE7723:
.LBB7732:
.LBB7733:
.LBB7734:
	.loc 1 343 0
	lwz 9,784(30)
	mr 3,25
	lwz 0,12(9)
	mtctr 0
.LEHB115:
	bctrl
.LEHE115:
.LBE7734:
.LBE7733:
.LBE7732:
.LBE7741:
.LBE7744:
.LBB7745:
.LBB7746:
.LBB7747:
.LBB7748:
.LBB7749:
.LBB7750:
	.loc 11 70 0
	lwz 3,788(30)
.LVL1236:
	.loc 11 71 0
	cmpw 7,3,26
	bne+ 7,.L1562
	b .L1267
.LVL1237:
.L1503:
	.loc 11 74 0
	mr 3,31
.LVL1238:
.L1562:
.LBB7751:
	lwz 31,0(3)
.LVL1239:
.LBB7752:
.LBB7753:
.LBB7754:
	.loc 8 98 0
	bl _ZdlPv
.LVL1240:
.LBE7754:
.LBE7753:
.LBE7752:
.LBE7751:
	.loc 11 71 0
	cmpw 7,31,26
	bne+ 7,.L1503
.LVL1241:
.L1267:
.LBE7750:
.LBE7749:
.LBE7748:
.LBE7747:
.LBE7746:
.LBE7745:
.LBE7779:
.LBE7784:
.LBE7789:
.LBE7794:
.LBE7799:
.LBE7806:
.LBE7817:
.LBE7825:
.LBE7833:
.LBE7841:
.LBE7849:
.LBE7857:
.LBB7858:
.LBB7859:
.LBB7860:
.LBB7861:
.LBB7862:
.LBB7863:
.LBB7864:
.LBB7865:
.LBB7866:
.LBB7867:
.LBB7868:
.LBB7869:
.LBB7870:
.LBB7871:
.LBB7872:
.LBB7873:
	.loc 1 338 0
	lis 9,_ZN7sigslot15single_threaded4lockEv@ha
.LBE7873:
.LBE7872:
.LBE7871:
.LBE7870:
.LBE7869:
.LBE7868:
.LBE7867:
	.loc 1 2305 0
	addi 25,30,632
.LVL1242:
.LBB7958:
.LBB7953:
.LBB7948:
.LBB7912:
.LBB7906:
.LBB7877:
.LBB7874:
	.loc 1 338 0
	la 9,_ZN7sigslot15single_threaded4lockEv@l(9)
.LBE7874:
.LBE7877:
.LBE7906:
.LBE7912:
.LBE7948:
.LBE7953:
.LBE7958:
.LBE7866:
.LBE7865:
.LBE7864:
.LBE7863:
.LBE7862:
.LBE7861:
.LBE7860:
.LBE7859:
.LBE7858:
.LBB8097:
.LBB7850:
.LBB7842:
.LBB7834:
.LBB7826:
.LBB7818:
.LBB7807:
.LBB7800:
.LBB7795:
.LBB7790:
.LBB7785:
.LBB7780:
.LBB7755:
.LBB7756:
.LBB7757:
.LBB7758:
.LBB7759:
.LBB7760:
	.loc 1 105 0
	stw 29,784(30)
.LVL1243:
.LBE7760:
.LBE7759:
.LBE7758:
.LBE7757:
.LBE7756:
.LBE7755:
.LBE7780:
.LBE7785:
.LBE7790:
.LBE7795:
.LBE7800:
.LBE7807:
.LBE7818:
.LBE7826:
.LBE7834:
.LBE7842:
.LBE7850:
.LBE8097:
.LBB8098:
.LBB8094:
.LBB8091:
.LBB8088:
.LBB8085:
.LBB8082:
	.loc 2 89 0
	stw 28,616(30)
.LVL1244:
.LBB7971:
.LBB7967:
.LBB7963:
.LBB7959:
.LBB7954:
.LBB7949:
.LBB7913:
.LBB7907:
.LBB7878:
.LBB7875:
	.loc 1 338 0
	mr 3,25
.LBE7875:
.LBE7878:
.LBE7907:
.LBE7913:
	.loc 1 946 0
	stw 24,632(30)
.LVL1245:
.LBB7914:
.LBB7908:
.LBB7879:
.LBB7876:
	.loc 1 338 0
	mtctr 9
	addi 26,30,636
.LVL1246:
.LEHB116:
	bctrl
.LEHE116:
.LBE7876:
.LBE7879:
.LBE7908:
	.loc 3 144 0
	mr 26,30
	lwzu 31,636(26)
.LVL1247:
.LBB7909:
	.loc 1 954 0
	cmpw 7,31,26
	beq- 7,.L1285
.LVL1248:
.L1544:
	.loc 1 956 0
	lwz 3,8(31)
	lwz 9,0(3)
	lwz 0,8(9)
	mtctr 0
.LEHB117:
	bctrl
	stw 25,8(1)
	mr 27,3
.LVL1249:
.LBB7880:
.LBB7881:
.LBB7882:
.LBB7883:
	.loc 1 338 0
	lwz 9,0(3)
	lwz 0,8(9)
	mtctr 0
	bctrl
.LVL1250:
.LBE7883:
.LBE7882:
.LBB7884:
.LBB7885:
	.loc 10 528 0
	addi 3,27,4
	addi 4,1,8
.LVL1251:
	bl _ZNSt8_Rb_treeIPN7sigslot12_signal_baseINS0_15single_threadedEEES4_St9_IdentityIS4_ESt4lessIS4_ESaIS4_EE5eraseERKS4_
.LVL1252:
.LBE7885:
.LBE7884:
.LBB7886:
.LBB7887:
.LBB7888:
	.loc 1 343 0
	lwz 9,0(27)
	mr 3,27
	lwz 0,12(9)
	mtctr 0
	bctrl
.LVL1253:
.LBE7888:
.LBE7887:
.LBE7886:
.LBE7881:
.LBE7880:
	.loc 1 957 0
	lwz 3,8(31)
	cmpwi 7,3,0
	beq- 7,.L1287
	lwz 9,0(3)
	lwz 0,4(9)
	mtctr 0
	bctrl
.LEHE117:
.L1287:
.LVL1254:
.LBB7889:
.LBB7890:
	.loc 4 234 0
	lwz 31,0(31)
.LVL1255:
.LBE7890:
.LBE7889:
	.loc 1 954 0
	cmpw 7,26,31
	bne+ 7,.L1544
.LBE7909:
	.loc 3 144 0
	lwz 31,636(30)
.LVL1256:
.LBB7910:
.LBB7891:
.LBB7892:
	.loc 4 1162 0
	cmpw 7,26,31
	bne+ 7,.L1565
	b .L1285
.LVL1257:
.L1505:
	.loc 4 1163 0
	mr 31,27
.LVL1258:
.L1565:
.LBB7893:
.LBB7894:
	.loc 11 112 0
	lwz 27,0(31)
.LVL1259:
.LBB7895:
.LBB7896:
	.loc 4 1532 0
	mr 3,31
	bl _ZNSt8__detail15_List_node_base9_M_unhookEv
.LVL1260:
.LBB7897:
.LBB7898:
.LBB7899:
	.loc 8 98 0
	mr 3,31
	bl _ZdlPv
.LVL1261:
.LBE7899:
.LBE7898:
.LBE7897:
.LBE7896:
.LBE7895:
.LBE7894:
.LBE7893:
	.loc 4 1162 0
	cmpw 7,26,27
	bne+ 7,.L1505
.LVL1262:
.L1285:
.LBE7892:
.LBE7891:
.LBB7900:
.LBB7901:
.LBB7902:
	.loc 1 343 0
	lwz 9,632(30)
	mr 3,25
	lwz 0,12(9)
	mtctr 0
.LEHB118:
	bctrl
.LEHE118:
.LVL1263:
.LBE7902:
.LBE7901:
.LBE7900:
.LBE7910:
.LBE7914:
.LBB7915:
.LBB7916:
.LBB7917:
.LBB7918:
.LBB7919:
.LBB7920:
	.loc 11 70 0
	lwz 3,636(30)
.LVL1264:
	.loc 11 71 0
	cmpw 7,3,26
	bne+ 7,.L1567
	b .L1303
.LVL1265:
.L1506:
	.loc 11 74 0
	mr 3,31
.LVL1266:
.L1567:
.LBB7921:
	lwz 31,0(3)
.LVL1267:
.LBB7922:
.LBB7923:
.LBB7924:
	.loc 8 98 0
	bl _ZdlPv
.LVL1268:
.LBE7924:
.LBE7923:
.LBE7922:
.LBE7921:
	.loc 11 71 0
	cmpw 7,31,26
	bne+ 7,.L1506
.LVL1269:
.L1303:
.LBE7920:
.LBE7919:
.LBE7918:
.LBE7917:
.LBE7916:
.LBE7915:
.LBE7949:
.LBE7954:
.LBE7959:
.LBE7963:
.LBE7967:
.LBE7971:
.LBB7972:
.LBB7973:
.LBB7974:
.LBB7975:
.LBB7976:
.LBB7977:
.LBB7978:
.LBB7979:
.LBB7980:
.LBB7981:
	.loc 1 338 0
	lis 9,_ZN7sigslot15single_threaded4lockEv@ha
.LBE7981:
.LBE7980:
.LBE7979:
.LBE7978:
.LBE7977:
.LBE7976:
.LBE7975:
	.loc 1 2238 0
	addi 25,30,620
.LVL1270:
.LBB8062:
.LBB8057:
.LBB8052:
.LBB8017:
.LBB8012:
.LBB7984:
.LBB7982:
	.loc 1 338 0
	la 9,_ZN7sigslot15single_threaded4lockEv@l(9)
.LBE7982:
.LBE7984:
.LBE8012:
.LBE8017:
.LBE8052:
.LBE8057:
.LBE8062:
.LBE7974:
.LBE7973:
.LBE7972:
.LBB8075:
.LBB7968:
.LBB7964:
.LBB7960:
.LBB7955:
.LBB7950:
.LBB7925:
.LBB7926:
.LBB7927:
.LBB7928:
.LBB7929:
.LBB7930:
	.loc 1 105 0
	stw 29,632(30)
.LVL1271:
.LBE7930:
.LBE7929:
.LBE7928:
.LBE7927:
.LBE7926:
.LBE7925:
.LBE7950:
.LBE7955:
.LBE7960:
.LBE7964:
.LBE7968:
.LBE8075:
.LBB8076:
.LBB8071:
.LBB8067:
.LBB8063:
.LBB8058:
.LBB8053:
	.loc 1 826 0
	stw 23,620(30)
.LVL1272:
.LBB8018:
.LBB8013:
.LBB7985:
.LBB7983:
	.loc 1 338 0
	mr 3,25
	mtctr 9
	addi 26,30,624
.LVL1273:
.LEHB119:
	bctrl
.LEHE119:
.LBE7983:
.LBE7985:
.LBE8013:
	.loc 3 144 0
	mr 26,30
	lwzu 31,624(26)
.LVL1274:
.LBB8014:
	.loc 1 834 0
	cmpw 7,31,26
	beq- 7,.L1319
.LVL1275:
.L1543:
	.loc 1 836 0
	lwz 3,8(31)
	lwz 9,0(3)
	lwz 0,8(9)
	mtctr 0
.LEHB120:
	bctrl
	stw 25,8(1)
	mr 27,3
.LVL1276:
.LBB7986:
.LBB7987:
.LBB7988:
.LBB7989:
	.loc 1 338 0
	lwz 9,0(3)
	lwz 0,8(9)
	mtctr 0
	bctrl
.LVL1277:
.LBE7989:
.LBE7988:
.LBB7990:
.LBB7991:
	.loc 10 528 0
	addi 3,27,4
	addi 4,1,8
.LVL1278:
	bl _ZNSt8_Rb_treeIPN7sigslot12_signal_baseINS0_15single_threadedEEES4_St9_IdentityIS4_ESt4lessIS4_ESaIS4_EE5eraseERKS4_
.LVL1279:
.LBE7991:
.LBE7990:
.LBB7992:
.LBB7993:
.LBB7994:
	.loc 1 343 0
	lwz 9,0(27)
	mr 3,27
	lwz 0,12(9)
	mtctr 0
	bctrl
.LVL1280:
.LBE7994:
.LBE7993:
.LBE7992:
.LBE7987:
.LBE7986:
	.loc 1 837 0
	lwz 3,8(31)
	cmpwi 7,3,0
	beq- 7,.L1321
	lwz 9,0(3)
	lwz 0,4(9)
	mtctr 0
	bctrl
.LEHE120:
.L1321:
.LVL1281:
.LBB7995:
.LBB7996:
	.loc 4 234 0
	lwz 31,0(31)
.LVL1282:
.LBE7996:
.LBE7995:
	.loc 1 834 0
	cmpw 7,26,31
	bne+ 7,.L1543
.LBE8014:
	.loc 3 144 0
	lwz 31,624(30)
.LVL1283:
.LBB8015:
.LBB7997:
.LBB7998:
	.loc 4 1162 0
	cmpw 7,26,31
	bne+ 7,.L1570
	b .L1319
.LVL1284:
.L1508:
	.loc 4 1163 0
	mr 31,27
.LVL1285:
.L1570:
.LBB7999:
.LBB8000:
	.loc 11 112 0
	lwz 27,0(31)
.LVL1286:
.LBB8001:
.LBB8002:
	.loc 4 1532 0
	mr 3,31
	bl _ZNSt8__detail15_List_node_base9_M_unhookEv
.LVL1287:
.LBB8003:
.LBB8004:
.LBB8005:
	.loc 8 98 0
	mr 3,31
	bl _ZdlPv
.LVL1288:
.LBE8005:
.LBE8004:
.LBE8003:
.LBE8002:
.LBE8001:
.LBE8000:
.LBE7999:
	.loc 4 1162 0
	cmpw 7,26,27
	bne+ 7,.L1508
.LVL1289:
.L1319:
.LBE7998:
.LBE7997:
.LBB8006:
.LBB8007:
.LBB8008:
	.loc 1 343 0
	lwz 9,620(30)
	mr 3,25
	lwz 0,12(9)
	mtctr 0
.LEHB121:
	bctrl
.LEHE121:
.LVL1290:
.LBE8008:
.LBE8007:
.LBE8006:
.LBE8015:
.LBE8018:
.LBB8019:
.LBB8020:
.LBB8021:
.LBB8022:
.LBB8023:
.LBB8024:
	.loc 11 70 0
	lwz 3,624(30)
.LVL1291:
	.loc 11 71 0
	cmpw 7,3,26
	bne+ 7,.L1572
	b .L1337
.LVL1292:
.L1509:
	.loc 11 74 0
	mr 3,31
.LVL1293:
.L1572:
.LBB8025:
	lwz 31,0(3)
.LVL1294:
.LBB8026:
.LBB8027:
.LBB8028:
	.loc 8 98 0
	bl _ZdlPv
.LVL1295:
.LBE8028:
.LBE8027:
.LBE8026:
.LBE8025:
	.loc 11 71 0
	cmpw 7,31,26
	bne+ 7,.L1509
.LVL1296:
.L1337:
.LBE8024:
.LBE8023:
.LBE8022:
.LBE8021:
.LBE8020:
.LBE8019:
.LBE8053:
.LBE8058:
.LBE8063:
.LBE8067:
.LBE8071:
.LBE8076:
.LBE8082:
.LBE8085:
.LBE8088:
.LBE8091:
.LBE8094:
.LBE8098:
.LBB8099:
.LBB8100:
.LBB8101:
.LBB8102:
.LBB8103:
.LBB8104:
.LBB8105:
.LBB8106:
.LBB8107:
.LBB8108:
.LBB8109:
.LBB8110:
.LBB8111:
.LBB8112:
.LBB8113:
.LBB8114:
	.loc 1 338 0
	lis 9,_ZN7sigslot15single_threaded4lockEv@ha
.LBE8114:
.LBE8113:
.LBE8112:
.LBE8111:
.LBE8110:
.LBE8109:
.LBE8108:
	.loc 1 2305 0
	addi 25,30,480
.LVL1297:
.LBB8199:
.LBB8194:
.LBB8189:
.LBB8153:
.LBB8147:
.LBB8118:
.LBB8115:
	.loc 1 338 0
	la 9,_ZN7sigslot15single_threaded4lockEv@l(9)
.LBE8115:
.LBE8118:
.LBE8147:
.LBE8153:
.LBE8189:
.LBE8194:
.LBE8199:
.LBE8107:
.LBE8106:
.LBE8105:
.LBE8104:
.LBE8103:
.LBE8102:
.LBE8101:
.LBE8100:
.LBE8099:
.LBB8344:
.LBB8095:
.LBB8092:
.LBB8089:
.LBB8086:
.LBB8083:
.LBB8077:
.LBB8072:
.LBB8068:
.LBB8064:
.LBB8059:
.LBB8054:
.LBB8029:
.LBB8030:
.LBB8031:
.LBB8032:
.LBB8033:
.LBB8034:
	.loc 1 105 0
	stw 29,620(30)
.LVL1298:
.LBE8034:
.LBE8033:
.LBE8032:
.LBE8031:
.LBE8030:
.LBE8029:
.LBE8054:
.LBE8059:
.LBE8064:
.LBE8068:
.LBE8072:
.LBE8077:
.LBE8083:
.LBE8086:
.LBE8089:
.LBE8092:
.LBE8095:
.LBE8344:
.LBB8345:
.LBB8341:
.LBB8338:
.LBB8335:
.LBB8332:
.LBB8329:
	.loc 2 89 0
	stw 28,464(30)
.LVL1299:
.LBB8212:
.LBB8208:
.LBB8204:
.LBB8200:
.LBB8195:
.LBB8190:
.LBB8154:
.LBB8148:
.LBB8119:
.LBB8116:
	.loc 1 338 0
	mr 3,25
.LBE8116:
.LBE8119:
.LBE8148:
.LBE8154:
	.loc 1 946 0
	stw 24,480(30)
.LVL1300:
.LBB8155:
.LBB8149:
.LBB8120:
.LBB8117:
	.loc 1 338 0
	mtctr 9
	addi 26,30,484
.LVL1301:
.LEHB122:
	bctrl
.LEHE122:
.LBE8117:
.LBE8120:
.LBE8149:
	.loc 3 144 0
	mr 26,30
	lwzu 31,484(26)
.LVL1302:
.LBB8150:
	.loc 1 954 0
	cmpw 7,31,26
	beq- 7,.L1355
.LVL1303:
.L1542:
	.loc 1 956 0
	lwz 3,8(31)
	lwz 9,0(3)
	lwz 0,8(9)
	mtctr 0
.LEHB123:
	bctrl
	stw 25,8(1)
	mr 27,3
.LVL1304:
.LBB8121:
.LBB8122:
.LBB8123:
.LBB8124:
	.loc 1 338 0
	lwz 9,0(3)
	lwz 0,8(9)
	mtctr 0
	bctrl
.LVL1305:
.LBE8124:
.LBE8123:
.LBB8125:
.LBB8126:
	.loc 10 528 0
	addi 3,27,4
	addi 4,1,8
.LVL1306:
	bl _ZNSt8_Rb_treeIPN7sigslot12_signal_baseINS0_15single_threadedEEES4_St9_IdentityIS4_ESt4lessIS4_ESaIS4_EE5eraseERKS4_
.LVL1307:
.LBE8126:
.LBE8125:
.LBB8127:
.LBB8128:
.LBB8129:
	.loc 1 343 0
	lwz 9,0(27)
	mr 3,27
	lwz 0,12(9)
	mtctr 0
	bctrl
.LVL1308:
.LBE8129:
.LBE8128:
.LBE8127:
.LBE8122:
.LBE8121:
	.loc 1 957 0
	lwz 3,8(31)
	cmpwi 7,3,0
	beq- 7,.L1357
	lwz 9,0(3)
	lwz 0,4(9)
	mtctr 0
	bctrl
.LEHE123:
.L1357:
.LVL1309:
.LBB8130:
.LBB8131:
	.loc 4 234 0
	lwz 31,0(31)
.LVL1310:
.LBE8131:
.LBE8130:
	.loc 1 954 0
	cmpw 7,26,31
	bne+ 7,.L1542
.LBE8150:
	.loc 3 144 0
	lwz 31,484(30)
.LVL1311:
.LBB8151:
.LBB8132:
.LBB8133:
	.loc 4 1162 0
	cmpw 7,26,31
	bne+ 7,.L1575
	b .L1355
.LVL1312:
.L1511:
	.loc 4 1163 0
	mr 31,27
.LVL1313:
.L1575:
.LBB8134:
.LBB8135:
	.loc 11 112 0
	lwz 27,0(31)
.LVL1314:
.LBB8136:
.LBB8137:
	.loc 4 1532 0
	mr 3,31
	bl _ZNSt8__detail15_List_node_base9_M_unhookEv
.LVL1315:
.LBB8138:
.LBB8139:
.LBB8140:
	.loc 8 98 0
	mr 3,31
	bl _ZdlPv
.LVL1316:
.LBE8140:
.LBE8139:
.LBE8138:
.LBE8137:
.LBE8136:
.LBE8135:
.LBE8134:
	.loc 4 1162 0
	cmpw 7,26,27
	bne+ 7,.L1511
.LVL1317:
.L1355:
.LBE8133:
.LBE8132:
.LBB8141:
.LBB8142:
.LBB8143:
	.loc 1 343 0
	lwz 9,480(30)
	mr 3,25
	lwz 0,12(9)
	mtctr 0
.LEHB124:
	bctrl
.LEHE124:
.LBE8143:
.LBE8142:
.LBE8141:
.LBE8151:
.LBE8155:
.LBB8156:
.LBB8157:
.LBB8158:
.LBB8159:
.LBB8160:
.LBB8161:
	.loc 11 70 0
	lwz 3,484(30)
.LVL1318:
	.loc 11 71 0
	cmpw 7,3,26
	bne+ 7,.L1577
	b .L1373
.LVL1319:
.L1512:
	.loc 11 74 0
	mr 3,31
.LVL1320:
.L1577:
.LBB8162:
	lwz 31,0(3)
.LVL1321:
.LBB8163:
.LBB8164:
.LBB8165:
	.loc 8 98 0
	bl _ZdlPv
.LVL1322:
.LBE8165:
.LBE8164:
.LBE8163:
.LBE8162:
	.loc 11 71 0
	cmpw 7,31,26
	bne+ 7,.L1512
.LVL1323:
.L1373:
.LBE8161:
.LBE8160:
.LBE8159:
.LBE8158:
.LBE8157:
.LBE8156:
.LBE8190:
.LBE8195:
.LBE8200:
.LBE8204:
.LBE8208:
.LBE8212:
.LBB8213:
.LBB8214:
.LBB8215:
.LBB8216:
.LBB8217:
.LBB8218:
.LBB8219:
.LBB8220:
.LBB8221:
.LBB8222:
	.loc 1 338 0
	lis 9,_ZN7sigslot15single_threaded4lockEv@ha
.LBE8222:
.LBE8221:
.LBE8220:
.LBE8219:
.LBE8218:
.LBE8217:
.LBE8216:
	.loc 1 2238 0
	addi 25,30,468
.LVL1324:
.LBB8305:
.LBB8299:
.LBB8293:
.LBB8258:
.LBB8253:
.LBB8225:
.LBB8223:
	.loc 1 338 0
	la 9,_ZN7sigslot15single_threaded4lockEv@l(9)
.LBE8223:
.LBE8225:
.LBE8253:
.LBE8258:
.LBE8293:
.LBE8299:
.LBE8305:
.LBE8215:
.LBE8214:
.LBE8213:
.LBB8321:
.LBB8209:
.LBB8205:
.LBB8201:
.LBB8196:
.LBB8191:
.LBB8166:
.LBB8167:
.LBB8168:
.LBB8169:
.LBB8170:
.LBB8171:
	.loc 1 105 0
	stw 29,480(30)
.LVL1325:
.LBE8171:
.LBE8170:
.LBE8169:
.LBE8168:
.LBE8167:
.LBE8166:
.LBE8191:
.LBE8196:
.LBE8201:
.LBE8205:
.LBE8209:
.LBE8321:
.LBB8322:
.LBB8316:
.LBB8311:
.LBB8306:
.LBB8300:
.LBB8294:
	.loc 1 826 0
	stw 23,468(30)
.LVL1326:
.LBB8259:
.LBB8254:
.LBB8226:
.LBB8224:
	.loc 1 338 0
	mr 3,25
	mtctr 9
	addi 26,30,472
.LVL1327:
.LEHB125:
	bctrl
.LEHE125:
.LBE8224:
.LBE8226:
.LBE8254:
	.loc 3 144 0
	mr 26,30
	lwzu 31,472(26)
.LVL1328:
.LBB8255:
	.loc 1 834 0
	cmpw 7,31,26
	beq- 7,.L1389
.LVL1329:
.L1541:
	.loc 1 836 0
	lwz 3,8(31)
	lwz 9,0(3)
	lwz 0,8(9)
	mtctr 0
.LEHB126:
	bctrl
	stw 25,8(1)
	mr 27,3
.LVL1330:
.LBB8227:
.LBB8228:
.LBB8229:
.LBB8230:
	.loc 1 338 0
	lwz 9,0(3)
	lwz 0,8(9)
	mtctr 0
	bctrl
.LVL1331:
.LBE8230:
.LBE8229:
.LBB8231:
.LBB8232:
	.loc 10 528 0
	addi 3,27,4
	addi 4,1,8
.LVL1332:
	bl _ZNSt8_Rb_treeIPN7sigslot12_signal_baseINS0_15single_threadedEEES4_St9_IdentityIS4_ESt4lessIS4_ESaIS4_EE5eraseERKS4_
.LVL1333:
.LBE8232:
.LBE8231:
.LBB8233:
.LBB8234:
.LBB8235:
	.loc 1 343 0
	lwz 9,0(27)
	mr 3,27
	lwz 0,12(9)
	mtctr 0
	bctrl
.LVL1334:
.LBE8235:
.LBE8234:
.LBE8233:
.LBE8228:
.LBE8227:
	.loc 1 837 0
	lwz 3,8(31)
	cmpwi 7,3,0
	beq- 7,.L1391
	lwz 9,0(3)
	lwz 0,4(9)
	mtctr 0
	bctrl
.LEHE126:
.L1391:
.LVL1335:
.LBB8236:
.LBB8237:
	.loc 4 234 0
	lwz 31,0(31)
.LVL1336:
.LBE8237:
.LBE8236:
	.loc 1 834 0
	cmpw 7,26,31
	bne+ 7,.L1541
.LBE8255:
	.loc 3 144 0
	lwz 31,472(30)
.LVL1337:
.LBB8256:
.LBB8238:
.LBB8239:
	.loc 4 1162 0
	cmpw 7,26,31
	bne+ 7,.L1580
	b .L1389
.LVL1338:
.L1514:
	.loc 4 1163 0
	mr 31,27
.LVL1339:
.L1580:
.LBB8240:
.LBB8241:
	.loc 11 112 0
	lwz 27,0(31)
.LVL1340:
.LBB8242:
.LBB8243:
	.loc 4 1532 0
	mr 3,31
	bl _ZNSt8__detail15_List_node_base9_M_unhookEv
.LVL1341:
.LBB8244:
.LBB8245:
.LBB8246:
	.loc 8 98 0
	mr 3,31
	bl _ZdlPv
.LVL1342:
.LBE8246:
.LBE8245:
.LBE8244:
.LBE8243:
.LBE8242:
.LBE8241:
.LBE8240:
	.loc 4 1162 0
	cmpw 7,26,27
	bne+ 7,.L1514
.LVL1343:
.L1389:
.LBE8239:
.LBE8238:
.LBB8247:
.LBB8248:
.LBB8249:
	.loc 1 343 0
	lwz 9,468(30)
	mr 3,25
	lwz 0,12(9)
	mtctr 0
.LEHB127:
	bctrl
.LEHE127:
.LBE8249:
.LBE8248:
.LBE8247:
.LBE8256:
.LBE8259:
.LBB8260:
.LBB8261:
.LBB8262:
.LBB8263:
.LBB8264:
.LBB8265:
	.loc 11 70 0
	lwz 3,472(30)
.LVL1344:
	.loc 11 71 0
	cmpw 7,3,26
	bne+ 7,.L1582
	b .L1407
.LVL1345:
.L1515:
	.loc 11 74 0
	mr 3,31
.LVL1346:
.L1582:
.LBB8266:
	lwz 31,0(3)
.LVL1347:
.LBB8267:
.LBB8268:
.LBB8269:
	.loc 8 98 0
	bl _ZdlPv
.LVL1348:
.LBE8269:
.LBE8268:
.LBE8267:
.LBE8266:
	.loc 11 71 0
	cmpw 7,31,26
	bne+ 7,.L1515
.LVL1349:
.L1407:
.LBE8265:
.LBE8264:
.LBE8263:
.LBE8262:
.LBE8261:
.LBE8260:
.LBE8294:
.LBE8300:
.LBE8306:
.LBE8311:
.LBE8316:
.LBE8322:
.LBE8329:
.LBE8332:
.LBE8335:
.LBE8338:
.LBE8341:
.LBE8345:
.LBB8346:
.LBB8347:
.LBB8348:
.LBB8349:
.LBB8350:
.LBB8351:
.LBB8352:
.LBB8353:
.LBB8354:
.LBB8355:
.LBB8356:
.LBB8357:
.LBB8358:
.LBB8359:
.LBB8360:
.LBB8361:
	.loc 1 338 0
	lis 9,_ZN7sigslot15single_threaded4lockEv@ha
.LBE8361:
.LBE8360:
.LBE8359:
.LBE8358:
.LBE8357:
.LBE8356:
.LBE8355:
	.loc 1 2305 0
	addi 27,30,328
.LBB8446:
.LBB8441:
.LBB8436:
.LBB8400:
.LBB8394:
.LBB8365:
.LBB8362:
	.loc 1 338 0
	la 9,_ZN7sigslot15single_threaded4lockEv@l(9)
.LBE8362:
.LBE8365:
.LBE8394:
.LBE8400:
.LBE8436:
.LBE8441:
.LBE8446:
.LBE8354:
.LBE8353:
.LBE8352:
.LBE8351:
.LBE8350:
.LBE8349:
.LBE8348:
.LBE8347:
.LBE8346:
.LBB8584:
.LBB8342:
.LBB8339:
.LBB8336:
.LBB8333:
.LBB8330:
.LBB8323:
.LBB8317:
.LBB8312:
.LBB8307:
.LBB8301:
.LBB8295:
.LBB8270:
.LBB8271:
.LBB8272:
.LBB8273:
.LBB8274:
.LBB8275:
	.loc 1 105 0
	stw 29,468(30)
.LVL1350:
.LBE8275:
.LBE8274:
.LBE8273:
.LBE8272:
.LBE8271:
.LBE8270:
.LBE8295:
.LBE8301:
.LBE8307:
.LBE8312:
.LBE8317:
.LBE8323:
.LBE8330:
.LBE8333:
.LBE8336:
.LBE8339:
.LBE8342:
.LBE8584:
.LBB8585:
.LBB8580:
.LBB8576:
.LBB8572:
.LBB8568:
.LBB8564:
	.loc 2 89 0
	stw 28,312(30)
.LVL1351:
.LBB8459:
.LBB8455:
.LBB8451:
.LBB8447:
.LBB8442:
.LBB8437:
.LBB8401:
.LBB8395:
.LBB8366:
.LBB8363:
	.loc 1 338 0
	mr 3,27
.LBE8363:
.LBE8366:
.LBE8395:
.LBE8401:
	.loc 1 946 0
	stw 24,328(30)
.LVL1352:
.LBB8402:
.LBB8396:
.LBB8367:
.LBB8364:
	.loc 1 338 0
	mtctr 9
	addi 26,30,332
.LVL1353:
.LEHB128:
	bctrl
.LEHE128:
.LBE8364:
.LBE8367:
.LBE8396:
	.loc 3 144 0
	mr 26,30
	lwzu 31,332(26)
.LVL1354:
.LBB8397:
	.loc 1 954 0
	cmpw 7,31,26
	beq- 7,.L1425
.LVL1355:
.L1540:
	.loc 1 956 0
	lwz 3,8(31)
	lwz 9,0(3)
	lwz 0,8(9)
	mtctr 0
.LEHB129:
	bctrl
	stw 27,8(1)
	mr 28,3
.LVL1356:
.LBB8368:
.LBB8369:
.LBB8370:
.LBB8371:
	.loc 1 338 0
	lwz 9,0(3)
	lwz 0,8(9)
	mtctr 0
	bctrl
.LVL1357:
.LBE8371:
.LBE8370:
.LBB8372:
.LBB8373:
	.loc 10 528 0
	addi 3,28,4
	addi 4,1,8
.LVL1358:
	bl _ZNSt8_Rb_treeIPN7sigslot12_signal_baseINS0_15single_threadedEEES4_St9_IdentityIS4_ESt4lessIS4_ESaIS4_EE5eraseERKS4_
.LVL1359:
.LBE8373:
.LBE8372:
.LBB8374:
.LBB8375:
.LBB8376:
	.loc 1 343 0
	lwz 9,0(28)
	mr 3,28
	lwz 0,12(9)
	mtctr 0
	bctrl
.LVL1360:
.LBE8376:
.LBE8375:
.LBE8374:
.LBE8369:
.LBE8368:
	.loc 1 957 0
	lwz 3,8(31)
	cmpwi 7,3,0
	beq- 7,.L1427
	lwz 9,0(3)
	lwz 0,4(9)
	mtctr 0
	bctrl
.LEHE129:
.L1427:
.LVL1361:
.LBB8377:
.LBB8378:
	.loc 4 234 0
	lwz 31,0(31)
.LVL1362:
.LBE8378:
.LBE8377:
	.loc 1 954 0
	cmpw 7,26,31
	bne+ 7,.L1540
.LBE8397:
	.loc 3 144 0
	lwz 31,332(30)
.LVL1363:
.LBB8398:
.LBB8379:
.LBB8380:
	.loc 4 1162 0
	cmpw 7,26,31
	bne+ 7,.L1585
	b .L1425
.LVL1364:
.L1517:
	.loc 4 1163 0
	mr 31,28
.LVL1365:
.L1585:
.LBB8381:
.LBB8382:
	.loc 11 112 0
	lwz 28,0(31)
.LVL1366:
.LBB8383:
.LBB8384:
	.loc 4 1532 0
	mr 3,31
	bl _ZNSt8__detail15_List_node_base9_M_unhookEv
.LVL1367:
.LBB8385:
.LBB8386:
.LBB8387:
	.loc 8 98 0
	mr 3,31
	bl _ZdlPv
.LVL1368:
.LBE8387:
.LBE8386:
.LBE8385:
.LBE8384:
.LBE8383:
.LBE8382:
.LBE8381:
	.loc 4 1162 0
	cmpw 7,26,28
	bne+ 7,.L1517
.LVL1369:
.L1425:
.LBE8380:
.LBE8379:
.LBB8388:
.LBB8389:
.LBB8390:
	.loc 1 343 0
	lwz 9,328(30)
	mr 3,27
	lwz 0,12(9)
	mtctr 0
.LEHB130:
	bctrl
.LEHE130:
.LBE8390:
.LBE8389:
.LBE8388:
.LBE8398:
.LBE8402:
.LBB8403:
.LBB8404:
.LBB8405:
.LBB8406:
.LBB8407:
.LBB8408:
	.loc 11 70 0
	lwz 3,332(30)
.LVL1370:
	.loc 11 71 0
	cmpw 7,26,3
	bne+ 7,.L1587
	b .L1443
.LVL1371:
.L1518:
	.loc 11 74 0
	mr 3,31
.LVL1372:
.L1587:
.LBB8409:
	lwz 31,0(3)
.LVL1373:
.LBB8410:
.LBB8411:
.LBB8412:
	.loc 8 98 0
	bl _ZdlPv
.LVL1374:
.LBE8412:
.LBE8411:
.LBE8410:
.LBE8409:
	.loc 11 71 0
	cmpw 7,26,31
	bne+ 7,.L1518
.LVL1375:
.L1443:
.LBE8408:
.LBE8407:
.LBE8406:
.LBE8405:
.LBE8404:
.LBE8403:
.LBE8437:
.LBE8442:
.LBE8447:
.LBE8451:
.LBE8455:
.LBE8459:
.LBB8460:
.LBB8461:
.LBB8462:
.LBB8463:
.LBB8464:
.LBB8465:
.LBB8466:
.LBB8467:
.LBB8468:
.LBB8469:
	.loc 1 338 0
	lis 9,_ZN7sigslot15single_threaded4lockEv@ha
.LBE8469:
.LBE8468:
.LBE8467:
.LBE8466:
.LBE8465:
.LBE8464:
.LBE8463:
	.loc 1 2238 0
	addi 26,30,316
.LVL1376:
.LBB8548:
.LBB8544:
.LBB8540:
.LBB8505:
.LBB8500:
.LBB8472:
.LBB8470:
	.loc 1 338 0
	la 9,_ZN7sigslot15single_threaded4lockEv@l(9)
.LBE8470:
.LBE8472:
.LBE8500:
.LBE8505:
.LBE8540:
.LBE8544:
.LBE8548:
.LBE8462:
.LBE8461:
.LBE8460:
.LBB8558:
.LBB8456:
.LBB8452:
.LBB8448:
.LBB8443:
.LBB8438:
.LBB8413:
.LBB8414:
.LBB8415:
.LBB8416:
.LBB8417:
.LBB8418:
	.loc 1 105 0
	stw 29,328(30)
.LVL1377:
.LBE8418:
.LBE8417:
.LBE8416:
.LBE8415:
.LBE8414:
.LBE8413:
.LBE8438:
.LBE8443:
.LBE8448:
.LBE8452:
.LBE8456:
.LBE8558:
.LBB8559:
.LBB8555:
.LBB8552:
.LBB8549:
.LBB8545:
.LBB8541:
	.loc 1 826 0
	stw 23,316(30)
.LVL1378:
.LBB8506:
.LBB8501:
.LBB8473:
.LBB8471:
	.loc 1 338 0
	mr 3,26
	mtctr 9
	addi 27,30,320
.LVL1379:
.LEHB131:
	bctrl
.LEHE131:
.LBE8471:
.LBE8473:
.LBE8501:
	.loc 3 144 0
	mr 27,30
	lwzu 31,320(27)
.LVL1380:
.LBB8502:
	.loc 1 834 0
	cmpw 7,31,27
	beq- 7,.L1459
.LVL1381:
.L1539:
	.loc 1 836 0
	lwz 3,8(31)
	lwz 9,0(3)
	lwz 0,8(9)
	mtctr 0
.LEHB132:
	bctrl
	stw 26,8(1)
	mr 28,3
.LVL1382:
.LBB8474:
.LBB8475:
.LBB8476:
.LBB8477:
	.loc 1 338 0
	lwz 9,0(3)
	lwz 0,8(9)
	mtctr 0
	bctrl
.LVL1383:
.LBE8477:
.LBE8476:
.LBB8478:
.LBB8479:
	.loc 10 528 0
	addi 3,28,4
	addi 4,1,8
.LVL1384:
	bl _ZNSt8_Rb_treeIPN7sigslot12_signal_baseINS0_15single_threadedEEES4_St9_IdentityIS4_ESt4lessIS4_ESaIS4_EE5eraseERKS4_
.LVL1385:
.LBE8479:
.LBE8478:
.LBB8480:
.LBB8481:
.LBB8482:
	.loc 1 343 0
	lwz 9,0(28)
	mr 3,28
	lwz 0,12(9)
	mtctr 0
	bctrl
.LVL1386:
.LBE8482:
.LBE8481:
.LBE8480:
.LBE8475:
.LBE8474:
	.loc 1 837 0
	lwz 3,8(31)
	cmpwi 7,3,0
	beq- 7,.L1461
	lwz 9,0(3)
	lwz 0,4(9)
	mtctr 0
	bctrl
.LEHE132:
.L1461:
.LVL1387:
.LBB8483:
.LBB8484:
	.loc 4 234 0
	lwz 31,0(31)
.LVL1388:
.LBE8484:
.LBE8483:
	.loc 1 834 0
	cmpw 7,27,31
	bne+ 7,.L1539
.LBE8502:
	.loc 3 144 0
	lwz 31,320(30)
.LVL1389:
.LBB8503:
.LBB8485:
.LBB8486:
	.loc 4 1162 0
	cmpw 7,27,31
	bne+ 7,.L1590
	b .L1459
.LVL1390:
.L1520:
	.loc 4 1163 0
	mr 31,28
.LVL1391:
.L1590:
.LBB8487:
.LBB8488:
	.loc 11 112 0
	lwz 28,0(31)
.LVL1392:
.LBB8489:
.LBB8490:
	.loc 4 1532 0
	mr 3,31
	bl _ZNSt8__detail15_List_node_base9_M_unhookEv
.LVL1393:
.LBB8491:
.LBB8492:
.LBB8493:
	.loc 8 98 0
	mr 3,31
	bl _ZdlPv
.LVL1394:
.LBE8493:
.LBE8492:
.LBE8491:
.LBE8490:
.LBE8489:
.LBE8488:
.LBE8487:
	.loc 4 1162 0
	cmpw 7,27,28
	bne+ 7,.L1520
.LVL1395:
.L1459:
.LBE8486:
.LBE8485:
.LBB8494:
.LBB8495:
.LBB8496:
	.loc 1 343 0
	lwz 9,316(30)
	mr 3,26
	lwz 0,12(9)
	mtctr 0
.LEHB133:
	bctrl
.LEHE133:
.LBE8496:
.LBE8495:
.LBE8494:
.LBE8503:
.LBE8506:
.LBB8507:
.LBB8508:
.LBB8509:
.LBB8510:
.LBB8511:
.LBB8512:
	.loc 11 70 0
	lwz 3,320(30)
.LVL1396:
	.loc 11 71 0
	cmpw 7,3,27
	bne+ 7,.L1592
	b .L1477
.LVL1397:
.L1521:
	.loc 11 74 0
	mr 3,31
.LVL1398:
.L1592:
.LBB8513:
	lwz 31,0(3)
.LVL1399:
.LBB8514:
.LBB8515:
.LBB8516:
	.loc 8 98 0
	bl _ZdlPv
.LVL1400:
.LBE8516:
.LBE8515:
.LBE8514:
.LBE8513:
	.loc 11 71 0
	cmpw 7,31,27
	bne+ 7,.L1521
.LVL1401:
.L1477:
.LBE8512:
.LBE8511:
.LBE8510:
.LBE8509:
.LBE8508:
.LBE8507:
.LBB8517:
.LBB8518:
.LBB8519:
.LBB8520:
.LBB8521:
.LBB8522:
	.loc 1 105 0
	stw 29,316(30)
.LBE8522:
.LBE8521:
.LBE8520:
.LBE8519:
.LBE8518:
.LBE8517:
.LBE8541:
.LBE8545:
.LBE8549:
.LBE8552:
.LBE8555:
.LBE8559:
.LBE8564:
.LBE8568:
.LBE8572:
.LBE8576:
.LBE8580:
.LBE8585:
	.loc 12 32 0
	mr 3,30
.LEHB134:
	bl _ZN9GuiButtonD2Ev
.LEHE134:
.LBE8608:
.LBE8615:
.LBE8622:
	mr 3,30
	bl _ZdlPv
	lwz 0,68(1)
	lwz 23,28(1)
	mtlr 0
	lwz 24,32(1)
	lwz 25,36(1)
.LVL1402:
	lwz 26,40(1)
.LVL1403:
	lwz 27,44(1)
.LVL1404:
	lwz 28,48(1)
	lwz 29,52(1)
	lwz 30,56(1)
.LVL1405:
	lwz 31,60(1)
	addi 1,1,64
	.cfi_remember_state
.LCFI92:
	.cfi_def_cfa_offset 0
	.cfi_restore 31
	.cfi_restore 30
	.cfi_restore 29
	.cfi_restore 28
	.cfi_restore 27
	.cfi_restore 26
	.cfi_restore 25
	.cfi_restore 24
	.cfi_restore 23
	blr
.LVL1406:
.L1523:
.LCFI93:
	.cfi_restore_state
	mr 31,3
.L1225:
.LBB8623:
.LBB8616:
.LBB8609:
.LBB8586:
.LBB7851:
.LBB7843:
.LBB7835:
.LBB7827:
.LBB7819:
.LBB7808:
.LBB7690:
.LBB7680:
.LBB7670:
.LBB7660:
.LBB7650:
.LBB7621:
.LBB7622:
.LBB7623:
.LBB7624:
.LBB7625:
.LBB7626:
	.loc 11 70 0
	lwz 3,800(30)
.LVL1407:
	.loc 11 71 0
	cmpw 7,3,27
	beq- 7,.L1242
.LVL1408:
.L1559:
.LBB7627:
	.loc 11 74 0
	lwz 29,0(3)
.LVL1409:
.LBB7628:
.LBB7629:
.LBB7630:
	.loc 8 98 0
	bl _ZdlPv
.LVL1410:
.LBE7630:
.LBE7629:
.LBE7628:
.LBE7627:
	.loc 11 71 0
	cmpw 7,29,27
	beq- 7,.L1242
	.loc 11 74 0
	mr 3,29
	b .L1559
.LVL1411:
.L1538:
.LBE7626:
.LBE7625:
.LBE7624:
.LBE7623:
.LBE7622:
.LBE7621:
.LBE7650:
.LBE7660:
.LBE7670:
.LBE7680:
.LBE7690:
.LBE7808:
.LBE7819:
.LBE7827:
.LBE7835:
.LBE7843:
.LBE7851:
.LBE8586:
.LBB8587:
.LBB8581:
.LBB8577:
.LBB8573:
.LBB8569:
.LBB8565:
.LBB8560:
.LBB8556:
.LBB8553:
.LBB8550:
.LBB8546:
.LBB8542:
.LBB8523:
.LBB8504:
.LBB8497:
.LBB8498:
.LBB8499:
	.loc 1 343 0
	lwz 9,316(30)
	mr 31,3
.LVL1412:
	mr 3,26
	lwz 0,12(9)
	mtctr 0
	bctrl
.LVL1413:
.L1469:
.LBE8499:
.LBE8498:
.LBE8497:
.LBE8504:
.LBE8523:
.LBB8524:
.LBB8525:
.LBB8526:
.LBB8527:
.LBB8528:
.LBB8529:
	.loc 11 70 0
	lwz 3,320(30)
.LVL1414:
	.loc 11 71 0
	cmpw 7,3,27
	beq- 7,.L1486
.LVL1415:
.L1593:
.LBB8530:
	.loc 11 74 0
	lwz 28,0(3)
.LVL1416:
.LBB8531:
.LBB8532:
.LBB8533:
	.loc 8 98 0
	bl _ZdlPv
.LVL1417:
.LBE8533:
.LBE8532:
.LBE8531:
.LBE8530:
	.loc 11 71 0
	cmpw 7,28,27
	beq- 7,.L1486
	.loc 11 74 0
	mr 3,28
	b .L1593
.LVL1418:
.L1242:
.LBE8529:
.LBE8528:
.LBE8527:
.LBE8526:
.LBE8525:
.LBE8524:
.LBE8542:
.LBE8546:
.LBE8550:
.LBE8553:
.LBE8556:
.LBE8560:
.LBE8565:
.LBE8569:
.LBE8573:
.LBE8577:
.LBE8581:
.LBE8587:
.LBB8588:
.LBB7852:
.LBB7844:
.LBB7836:
.LBB7828:
.LBB7820:
.LBB7809:
.LBB7691:
.LBB7681:
.LBB7671:
.LBB7661:
.LBB7651:
.LBB7631:
.LBB7632:
.LBB7633:
.LBB7634:
.LBB7635:
.LBB7636:
	.loc 1 105 0
	lis 9,_ZTVN7sigslot15single_threadedE+8@ha
.LBE7636:
.LBE7635:
.LBE7634:
.LBE7633:
.LBE7632:
.LBE7631:
.LBE7651:
.LBE7661:
.LBE7671:
.LBE7681:
.LBE7691:
.LBE7809:
	.loc 2 89 0
	addi 3,30,784
.LBB7810:
.LBB7692:
.LBB7682:
.LBB7672:
.LBB7662:
.LBB7652:
.LBB7642:
.LBB7641:
.LBB7640:
.LBB7639:
.LBB7638:
.LBB7637:
	.loc 1 105 0
	la 0,_ZTVN7sigslot15single_threadedE+8@l(9)
	stw 0,796(30)
.LBE7637:
.LBE7638:
.LBE7639:
.LBE7640:
.LBE7641:
.LBE7642:
.LBE7652:
.LBE7662:
.LBE7672:
.LBE7682:
.LBE7692:
.LBE7810:
	.loc 2 89 0
	bl _ZN7sigslot7signal2IP10GuiElementbNS_15single_threadedEED1Ev
.LVL1419:
.L1245:
.LBE7820:
.LBE7828:
.LBE7836:
.LBE7844:
.LBE7852:
.LBE8588:
.LBB8589:
.LBB8590:
.LBB8591:
	.loc 5 29 0
	lis 9,_ZTV6GuiBox+8@ha
	mr 3,30
	la 0,_ZTV6GuiBox+8@l(9)
	stwu 0,616(3)
	bl _ZN10GuiElementD2Ev
.LVL1420:
.L1315:
.LBE8591:
.LBE8590:
.LBE8589:
.LBB8592:
.LBB8593:
.LBB8594:
	.loc 7 29 0
	lis 9,_ZTV8GuiCross+8@ha
	mr 3,30
	la 0,_ZTV8GuiCross+8@l(9)
	stwu 0,464(3)
	bl _ZN10GuiElementD2Ev
.LVL1421:
.L1385:
.LBE8594:
.LBE8593:
.LBE8592:
.LBB8595:
.LBB8596:
.LBB8597:
	.loc 6 29 0
	lis 9,_ZTV12GuiChecksign+8@ha
	mr 3,30
	la 0,_ZTV12GuiChecksign+8@l(9)
	stwu 0,312(3)
	bl _ZN10GuiElementD2Ev
.LVL1422:
.L1455:
.LBE8597:
.LBE8596:
.LBE8595:
	.loc 12 32 0
	mr 3,30
	bl _ZN9GuiButtonD2Ev
	mr 3,31
.LEHB135:
	bl _Unwind_Resume
.LEHE135:
.LVL1423:
.L1486:
.LBB8598:
.LBB8582:
.LBB8578:
.LBB8574:
.LBB8570:
.LBB8566:
.LBB8561:
.LBB8557:
.LBB8554:
.LBB8551:
.LBB8547:
.LBB8543:
.LBB8534:
.LBB8535:
.LBB8536:
.LBB8537:
.LBB8538:
.LBB8539:
	.loc 1 105 0
	stw 29,316(30)
	b .L1455
.LVL1424:
.L1537:
	mr 31,3
	b .L1469
.LVL1425:
.L1536:
.LBE8539:
.LBE8538:
.LBE8537:
.LBE8536:
.LBE8535:
.LBE8534:
.LBE8543:
.LBE8547:
.LBE8551:
.LBE8554:
.LBE8557:
.LBE8561:
.LBB8562:
.LBB8457:
.LBB8453:
.LBB8449:
.LBB8444:
.LBB8439:
.LBB8419:
.LBB8399:
.LBB8391:
.LBB8392:
.LBB8393:
	.loc 1 343 0
	lwz 9,328(30)
	mr 31,3
.LVL1426:
	mr 3,27
	lwz 0,12(9)
	mtctr 0
	bctrl
.LVL1427:
.L1435:
.LBE8393:
.LBE8392:
.LBE8391:
.LBE8399:
.LBE8419:
.LBB8420:
.LBB8421:
.LBB8422:
.LBB8423:
.LBB8424:
.LBB8425:
	.loc 11 70 0
	lwz 3,332(30)
.LVL1428:
	.loc 11 71 0
	cmpw 7,3,26
	beq- 7,.L1452
.LVL1429:
.L1589:
.LBB8426:
	.loc 11 74 0
	lwz 28,0(3)
.LVL1430:
.LBB8427:
.LBB8428:
.LBB8429:
	.loc 8 98 0
	bl _ZdlPv
.LVL1431:
.LBE8429:
.LBE8428:
.LBE8427:
.LBE8426:
	.loc 11 71 0
	cmpw 7,28,26
	beq- 7,.L1452
	.loc 11 74 0
	mr 3,28
	b .L1589
.LVL1432:
.L1535:
	mr 31,3
	b .L1435
.LVL1433:
.L1533:
	mr 31,3
.L1399:
.LBE8425:
.LBE8424:
.LBE8423:
.LBE8422:
.LBE8421:
.LBE8420:
.LBE8439:
.LBE8444:
.LBE8449:
.LBE8453:
.LBE8457:
.LBE8562:
.LBE8566:
.LBE8570:
.LBE8574:
.LBE8578:
.LBE8582:
.LBE8598:
.LBB8599:
.LBB8343:
.LBB8340:
.LBB8337:
.LBB8334:
.LBB8331:
.LBB8324:
.LBB8318:
.LBB8313:
.LBB8308:
.LBB8302:
.LBB8296:
.LBB8276:
.LBB8277:
.LBB8278:
.LBB8279:
.LBB8280:
.LBB8281:
	.loc 11 70 0
	lwz 3,472(30)
.LVL1434:
	.loc 11 71 0
	cmpw 7,3,26
	beq- 7,.L1416
.LVL1435:
.L1584:
.LBB8282:
	.loc 11 74 0
	lwz 28,0(3)
.LVL1436:
.LBB8283:
.LBB8284:
.LBB8285:
	.loc 8 98 0
	bl _ZdlPv
.LVL1437:
.LBE8285:
.LBE8284:
.LBE8283:
.LBE8282:
	.loc 11 71 0
	cmpw 7,28,26
	beq- 7,.L1416
	.loc 11 74 0
	mr 3,28
	b .L1584
.LVL1438:
.L1532:
.LBE8281:
.LBE8280:
.LBE8279:
.LBE8278:
.LBE8277:
.LBE8276:
.LBE8296:
.LBE8302:
.LBE8308:
.LBE8313:
.LBE8318:
.LBE8324:
.LBB8325:
.LBB8210:
.LBB8206:
.LBB8202:
.LBB8197:
.LBB8192:
.LBB8172:
.LBB8152:
.LBB8144:
.LBB8145:
.LBB8146:
	.loc 1 343 0
	lwz 9,480(30)
	mr 31,3
.LVL1439:
	mr 3,25
	lwz 0,12(9)
	mtctr 0
	bctrl
.LVL1440:
.L1365:
.LBE8146:
.LBE8145:
.LBE8144:
.LBE8152:
.LBE8172:
.LBB8173:
.LBB8174:
.LBB8175:
.LBB8176:
.LBB8177:
.LBB8178:
	.loc 11 70 0
	lwz 3,484(30)
.LVL1441:
	.loc 11 71 0
	cmpw 7,3,26
	beq- 7,.L1382
.LVL1442:
.L1579:
.LBB8179:
	.loc 11 74 0
	lwz 28,0(3)
.LVL1443:
.LBB8180:
.LBB8181:
.LBB8182:
	.loc 8 98 0
	bl _ZdlPv
.LVL1444:
.LBE8182:
.LBE8181:
.LBE8180:
.LBE8179:
	.loc 11 71 0
	cmpw 7,28,26
	beq- 7,.L1382
	.loc 11 74 0
	mr 3,28
	b .L1579
.LVL1445:
.L1416:
.LBE8178:
.LBE8177:
.LBE8176:
.LBE8175:
.LBE8174:
.LBE8173:
.LBE8192:
.LBE8197:
.LBE8202:
.LBE8206:
.LBE8210:
.LBE8325:
.LBB8326:
.LBB8319:
.LBB8314:
.LBB8309:
.LBB8303:
.LBB8297:
.LBB8286:
.LBB8287:
.LBB8288:
.LBB8289:
.LBB8290:
.LBB8291:
	.loc 1 105 0
	stw 29,468(30)
	b .L1385
.LVL1446:
.L1382:
.LBE8291:
.LBE8290:
.LBE8289:
.LBE8288:
.LBE8287:
.LBE8286:
.LBE8297:
.LBE8303:
.LBE8309:
.LBE8314:
.LBE8319:
.LBE8326:
.LBB8327:
.LBB8211:
.LBB8207:
.LBB8203:
.LBB8198:
.LBB8193:
.LBB8183:
.LBB8184:
.LBB8185:
.LBB8186:
.LBB8187:
.LBB8188:
	stw 29,480(30)
.LBE8188:
.LBE8187:
.LBE8186:
.LBE8185:
.LBE8184:
.LBE8183:
.LBE8193:
.LBE8198:
.LBE8203:
.LBE8207:
.LBE8211:
.LBE8327:
	.loc 2 89 0
	addi 3,30,468
	bl _ZN7sigslot7signal2IP10GuiElementbNS_15single_threadedEED1Ev
	b .L1385
.LVL1447:
.L1534:
.LBB8328:
.LBB8320:
.LBB8315:
.LBB8310:
.LBB8304:
.LBB8298:
.LBB8292:
.LBB8257:
.LBB8250:
.LBB8251:
.LBB8252:
	.loc 1 343 0
	lwz 9,468(30)
	mr 31,3
.LVL1448:
	mr 3,25
	lwz 0,12(9)
	mtctr 0
	bctrl
	b .L1399
.LVL1449:
.L1452:
.LBE8252:
.LBE8251:
.LBE8250:
.LBE8257:
.LBE8292:
.LBE8298:
.LBE8304:
.LBE8310:
.LBE8315:
.LBE8320:
.LBE8328:
.LBE8331:
.LBE8334:
.LBE8337:
.LBE8340:
.LBE8343:
.LBE8599:
.LBB8600:
.LBB8583:
.LBB8579:
.LBB8575:
.LBB8571:
.LBB8567:
.LBB8563:
.LBB8458:
.LBB8454:
.LBB8450:
.LBB8445:
.LBB8440:
.LBB8430:
.LBB8431:
.LBB8432:
.LBB8433:
.LBB8434:
.LBB8435:
	.loc 1 105 0
	stw 29,328(30)
.LBE8435:
.LBE8434:
.LBE8433:
.LBE8432:
.LBE8431:
.LBE8430:
.LBE8440:
.LBE8445:
.LBE8450:
.LBE8454:
.LBE8458:
.LBE8563:
	.loc 2 89 0
	addi 3,30,316
	bl _ZN7sigslot7signal2IP10GuiElementbNS_15single_threadedEED1Ev
	b .L1455
.LVL1450:
.L1531:
	mr 31,3
	b .L1365
.LVL1451:
.L1530:
.LBE8567:
.LBE8571:
.LBE8575:
.LBE8579:
.LBE8583:
.LBE8600:
.LBB8601:
.LBB8096:
.LBB8093:
.LBB8090:
.LBB8087:
.LBB8084:
.LBB8078:
.LBB8073:
.LBB8069:
.LBB8065:
.LBB8060:
.LBB8055:
.LBB8035:
.LBB8016:
.LBB8009:
.LBB8010:
.LBB8011:
	.loc 1 343 0
	lwz 9,620(30)
	mr 31,3
.LVL1452:
	mr 3,25
	lwz 0,12(9)
	mtctr 0
	bctrl
.LVL1453:
.L1329:
.LBE8011:
.LBE8010:
.LBE8009:
.LBE8016:
.LBE8035:
.LBB8036:
.LBB8037:
.LBB8038:
.LBB8039:
.LBB8040:
.LBB8041:
	.loc 11 70 0
	lwz 3,624(30)
.LVL1454:
	.loc 11 71 0
	cmpw 7,3,26
	beq- 7,.L1346
.LVL1455:
.L1574:
.LBB8042:
	.loc 11 74 0
	lwz 28,0(3)
.LVL1456:
.LBB8043:
.LBB8044:
.LBB8045:
	.loc 8 98 0
	bl _ZdlPv
.LVL1457:
.LBE8045:
.LBE8044:
.LBE8043:
.LBE8042:
	.loc 11 71 0
	cmpw 7,28,26
	beq- 7,.L1346
	.loc 11 74 0
	mr 3,28
	b .L1574
.LVL1458:
.L1529:
	mr 31,3
	b .L1329
.LVL1459:
.L1528:
.LBE8041:
.LBE8040:
.LBE8039:
.LBE8038:
.LBE8037:
.LBE8036:
.LBE8055:
.LBE8060:
.LBE8065:
.LBE8069:
.LBE8073:
.LBE8078:
.LBB8079:
.LBB7969:
.LBB7965:
.LBB7961:
.LBB7956:
.LBB7951:
.LBB7931:
.LBB7911:
.LBB7903:
.LBB7904:
.LBB7905:
	.loc 1 343 0
	lwz 9,632(30)
	mr 31,3
.LVL1460:
	mr 3,25
	lwz 0,12(9)
	mtctr 0
	bctrl
.LVL1461:
.L1295:
.LBE7905:
.LBE7904:
.LBE7903:
.LBE7911:
.LBE7931:
.LBB7932:
.LBB7933:
.LBB7934:
.LBB7935:
.LBB7936:
.LBB7937:
	.loc 11 70 0
	lwz 3,636(30)
.LVL1462:
	.loc 11 71 0
	cmpw 7,3,26
	beq- 7,.L1312
.LVL1463:
.L1569:
.LBB7938:
	.loc 11 74 0
	lwz 28,0(3)
.LVL1464:
.LBB7939:
.LBB7940:
.LBB7941:
	.loc 8 98 0
	bl _ZdlPv
.LVL1465:
.LBE7941:
.LBE7940:
.LBE7939:
.LBE7938:
	.loc 11 71 0
	cmpw 7,28,26
	beq- 7,.L1312
	.loc 11 74 0
	mr 3,28
	b .L1569
.LVL1466:
.L1346:
.LBE7937:
.LBE7936:
.LBE7935:
.LBE7934:
.LBE7933:
.LBE7932:
.LBE7951:
.LBE7956:
.LBE7961:
.LBE7965:
.LBE7969:
.LBE8079:
.LBB8080:
.LBB8074:
.LBB8070:
.LBB8066:
.LBB8061:
.LBB8056:
.LBB8046:
.LBB8047:
.LBB8048:
.LBB8049:
.LBB8050:
.LBB8051:
	.loc 1 105 0
	stw 29,620(30)
	b .L1315
.LVL1467:
.L1312:
.LBE8051:
.LBE8050:
.LBE8049:
.LBE8048:
.LBE8047:
.LBE8046:
.LBE8056:
.LBE8061:
.LBE8066:
.LBE8070:
.LBE8074:
.LBE8080:
.LBB8081:
.LBB7970:
.LBB7966:
.LBB7962:
.LBB7957:
.LBB7952:
.LBB7942:
.LBB7943:
.LBB7944:
.LBB7945:
.LBB7946:
.LBB7947:
	stw 29,632(30)
.LBE7947:
.LBE7946:
.LBE7945:
.LBE7944:
.LBE7943:
.LBE7942:
.LBE7952:
.LBE7957:
.LBE7962:
.LBE7966:
.LBE7970:
.LBE8081:
	.loc 2 89 0
	addi 3,30,620
	bl _ZN7sigslot7signal2IP10GuiElementbNS_15single_threadedEED1Ev
	b .L1315
.LVL1468:
.L1527:
	mr 31,3
	b .L1295
.LVL1469:
.L1526:
.LBE8084:
.LBE8087:
.LBE8090:
.LBE8093:
.LBE8096:
.LBE8601:
.LBB8602:
.LBB7853:
.LBB7845:
.LBB7837:
.LBB7829:
.LBB7821:
.LBB7811:
.LBB7801:
.LBB7796:
.LBB7791:
.LBB7786:
.LBB7781:
.LBB7761:
.LBB7742:
.LBB7735:
.LBB7736:
.LBB7737:
	.loc 1 343 0
	lwz 9,784(30)
	mr 31,3
.LVL1470:
	mr 3,25
	lwz 0,12(9)
	mtctr 0
	bctrl
.LVL1471:
.L1259:
.LBE7737:
.LBE7736:
.LBE7735:
.LBE7742:
.LBE7761:
.LBB7762:
.LBB7763:
.LBB7764:
.LBB7765:
.LBB7766:
.LBB7767:
	.loc 11 70 0
	lwz 3,788(30)
.LVL1472:
	.loc 11 71 0
	cmpw 7,3,26
	beq- 7,.L1276
.LVL1473:
.L1564:
.LBB7768:
	.loc 11 74 0
	lwz 28,0(3)
.LVL1474:
.LBB7769:
.LBB7770:
.LBB7771:
	.loc 8 98 0
	bl _ZdlPv
.LVL1475:
.LBE7771:
.LBE7770:
.LBE7769:
.LBE7768:
	.loc 11 71 0
	cmpw 7,28,26
	beq- 7,.L1276
	.loc 11 74 0
	mr 3,28
	b .L1564
.LVL1476:
.L1525:
	mr 31,3
	b .L1259
.LVL1477:
.L1524:
.LBE7767:
.LBE7766:
.LBE7765:
.LBE7764:
.LBE7763:
.LBE7762:
.LBE7781:
.LBE7786:
.LBE7791:
.LBE7796:
.LBE7801:
.LBE7811:
.LBB7812:
.LBB7693:
.LBB7683:
.LBB7673:
.LBB7663:
.LBB7653:
.LBB7643:
.LBB7589:
.LBB7581:
.LBB7582:
.LBB7583:
	.loc 1 343 0
	lwz 9,796(30)
	mr 31,3
.LVL1478:
	mr 3,26
	lwz 0,12(9)
	mtctr 0
	bctrl
	b .L1225
.LVL1479:
.L1276:
.LBE7583:
.LBE7582:
.LBE7581:
.LBE7589:
.LBE7643:
.LBE7653:
.LBE7663:
.LBE7673:
.LBE7683:
.LBE7693:
.LBE7812:
.LBB7813:
.LBB7802:
.LBB7797:
.LBB7792:
.LBB7787:
.LBB7782:
.LBB7772:
.LBB7773:
.LBB7774:
.LBB7775:
.LBB7776:
.LBB7777:
	.loc 1 105 0
	stw 29,784(30)
	b .L1245
.LBE7777:
.LBE7776:
.LBE7775:
.LBE7774:
.LBE7773:
.LBE7772:
.LBE7782:
.LBE7787:
.LBE7792:
.LBE7797:
.LBE7802:
.LBE7813:
.LBE7821:
.LBE7829:
.LBE7837:
.LBE7845:
.LBE7853:
.LBE8602:
.LBE8609:
.LBE8616:
.LBE8623:
	.cfi_endproc
.LFE1847:
	.section	.gcc_except_table
.LLSDA1847:
	.byte	0xff
	.byte	0xff
	.byte	0x1
	.uleb128 .LLSDACSE1847-.LLSDACSB1847
.LLSDACSB1847:
	.uleb128 .LEHB110-.LFB1847
	.uleb128 .LEHE110-.LEHB110
	.uleb128 .L1523-.LFB1847
	.uleb128 0
	.uleb128 .LEHB111-.LFB1847
	.uleb128 .LEHE111-.LEHB111
	.uleb128 .L1524-.LFB1847
	.uleb128 0
	.uleb128 .LEHB112-.LFB1847
	.uleb128 .LEHE112-.LEHB112
	.uleb128 .L1523-.LFB1847
	.uleb128 0
	.uleb128 .LEHB113-.LFB1847
	.uleb128 .LEHE113-.LEHB113
	.uleb128 .L1525-.LFB1847
	.uleb128 0
	.uleb128 .LEHB114-.LFB1847
	.uleb128 .LEHE114-.LEHB114
	.uleb128 .L1526-.LFB1847
	.uleb128 0
	.uleb128 .LEHB115-.LFB1847
	.uleb128 .LEHE115-.LEHB115
	.uleb128 .L1525-.LFB1847
	.uleb128 0
	.uleb128 .LEHB116-.LFB1847
	.uleb128 .LEHE116-.LEHB116
	.uleb128 .L1527-.LFB1847
	.uleb128 0
	.uleb128 .LEHB117-.LFB1847
	.uleb128 .LEHE117-.LEHB117
	.uleb128 .L1528-.LFB1847
	.uleb128 0
	.uleb128 .LEHB118-.LFB1847
	.uleb128 .LEHE118-.LEHB118
	.uleb128 .L1527-.LFB1847
	.uleb128 0
	.uleb128 .LEHB119-.LFB1847
	.uleb128 .LEHE119-.LEHB119
	.uleb128 .L1529-.LFB1847
	.uleb128 0
	.uleb128 .LEHB120-.LFB1847
	.uleb128 .LEHE120-.LEHB120
	.uleb128 .L1530-.LFB1847
	.uleb128 0
	.uleb128 .LEHB121-.LFB1847
	.uleb128 .LEHE121-.LEHB121
	.uleb128 .L1529-.LFB1847
	.uleb128 0
	.uleb128 .LEHB122-.LFB1847
	.uleb128 .LEHE122-.LEHB122
	.uleb128 .L1531-.LFB1847
	.uleb128 0
	.uleb128 .LEHB123-.LFB1847
	.uleb128 .LEHE123-.LEHB123
	.uleb128 .L1532-.LFB1847
	.uleb128 0
	.uleb128 .LEHB124-.LFB1847
	.uleb128 .LEHE124-.LEHB124
	.uleb128 .L1531-.LFB1847
	.uleb128 0
	.uleb128 .LEHB125-.LFB1847
	.uleb128 .LEHE125-.LEHB125
	.uleb128 .L1533-.LFB1847
	.uleb128 0
	.uleb128 .LEHB126-.LFB1847
	.uleb128 .LEHE126-.LEHB126
	.uleb128 .L1534-.LFB1847
	.uleb128 0
	.uleb128 .LEHB127-.LFB1847
	.uleb128 .LEHE127-.LEHB127
	.uleb128 .L1533-.LFB1847
	.uleb128 0
	.uleb128 .LEHB128-.LFB1847
	.uleb128 .LEHE128-.LEHB128
	.uleb128 .L1535-.LFB1847
	.uleb128 0
	.uleb128 .LEHB129-.LFB1847
	.uleb128 .LEHE129-.LEHB129
	.uleb128 .L1536-.LFB1847
	.uleb128 0
	.uleb128 .LEHB130-.LFB1847
	.uleb128 .LEHE130-.LEHB130
	.uleb128 .L1535-.LFB1847
	.uleb128 0
	.uleb128 .LEHB131-.LFB1847
	.uleb128 .LEHE131-.LEHB131
	.uleb128 .L1537-.LFB1847
	.uleb128 0
	.uleb128 .LEHB132-.LFB1847
	.uleb128 .LEHE132-.LEHB132
	.uleb128 .L1538-.LFB1847
	.uleb128 0
	.uleb128 .LEHB133-.LFB1847
	.uleb128 .LEHE133-.LEHB133
	.uleb128 .L1537-.LFB1847
	.uleb128 0
	.uleb128 .LEHB134-.LFB1847
	.uleb128 .LEHE134-.LEHB134
	.uleb128 0
	.uleb128 0
	.uleb128 .LEHB135-.LFB1847
	.uleb128 .LEHE135-.LEHB135
	.uleb128 0
	.uleb128 0
.LLSDACSE1847:
	.section	.text._ZN11GuiCheckboxD0Ev,"axG",@progbits,_ZN11GuiCheckboxD5Ev,comdat
	.size	_ZN11GuiCheckboxD0Ev, .-_ZN11GuiCheckboxD0Ev
	.weak	_ZTS11GuiCheckbox
	.section	.rodata._ZTS11GuiCheckbox,"aG",@progbits,_ZTS11GuiCheckbox,comdat
	.align 2
	.type	_ZTS11GuiCheckbox, @object
	.size	_ZTS11GuiCheckbox, 14
_ZTS11GuiCheckbox:
	.string	"11GuiCheckbox"
	.weak	_ZTI11GuiCheckbox
	.section	.rodata._ZTI11GuiCheckbox,"aG",@progbits,_ZTI11GuiCheckbox,comdat
	.align 2
	.type	_ZTI11GuiCheckbox, @object
	.size	_ZTI11GuiCheckbox, 12
_ZTI11GuiCheckbox:
	.long	_ZTVN10__cxxabiv120__si_class_type_infoE+8
	.long	_ZTS11GuiCheckbox
	.long	_ZTI9GuiButton
	.weak	_ZTV11GuiCheckbox
	.section	.rodata._ZTV11GuiCheckbox,"aG",@progbits,_ZTV11GuiCheckbox,comdat
	.align 3
	.type	_ZTV11GuiCheckbox, @object
	.size	_ZTV11GuiCheckbox, 208
_ZTV11GuiCheckbox:
	.long	0
	.long	_ZTI11GuiCheckbox
	.long	_ZN11GuiCheckboxD1Ev
	.long	_ZN11GuiCheckboxD0Ev
	.long	_ZN10GuiElement9SetParentEPS_
