   1              		.file	"gui_frame.cpp"
   2              		.section	".text"
   3              	.Ltext0:
   4              		.section	.text._ZN7sigslot15single_threadedD2Ev,"axG",@progbits,_ZN7sigslot15single_threadedD5Ev,c
   5              		.align 2
   6              		.weak	_ZN7sigslot15single_threadedD2Ev
   7              		.type	_ZN7sigslot15single_threadedD2Ev, @function
   8              	_ZN7sigslot15single_threadedD2Ev:
   9              	.LFB1148:
  10              		.file 1 "d:/Projects/SaveGameManager/savegame-manager-gx/trunk/source/GUI/../sigslot.h"
  11              		.loc 1 104 0
  12              		.cfi_startproc
  13              	.LVL0:
  14              	.LBB2370:
  15              		.loc 1 105 0
  16 0000 3D200000 		lis 9,_ZTVN7sigslot15single_threadedE+8@ha
  17              	.LBE2370:
  18              		.loc 1 107 0
  19              	.LBB2371:
  20              		.loc 1 105 0
  21 0004 38090008 		la 0,_ZTVN7sigslot15single_threadedE+8@l(9)
  22 0008 90030000 		stw 0,0(3)
  23              	.LBE2371:
  24              		.loc 1 107 0
  25 000c 4E800020 		blr
  26              		.cfi_endproc
  27              	.LFE1148:
  28              		.size	_ZN7sigslot15single_threadedD2Ev, .-_ZN7sigslot15single_threadedD2Ev
  29              		.section	.text._ZN7sigslot15single_threaded4lockEv,"axG",@progbits,_ZN7sigslot15single_threaded4lo
  30              		.align 2
  31              		.weak	_ZN7sigslot15single_threaded4lockEv
  32              		.type	_ZN7sigslot15single_threaded4lockEv, @function
  33              	_ZN7sigslot15single_threaded4lockEv:
  34              	.LFB1151:
  35              		.loc 1 109 0
  36              		.cfi_startproc
  37              	.LVL1:
  38              		.loc 1 112 0
  39 0000 4E800020 		blr
  40              		.cfi_endproc
  41              	.LFE1151:
  42              		.size	_ZN7sigslot15single_threaded4lockEv, .-_ZN7sigslot15single_threaded4lockEv
  43              		.section	.text._ZN7sigslot15single_threaded6unlockEv,"axG",@progbits,_ZN7sigslot15single_threaded6
  44              		.align 2
  45              		.weak	_ZN7sigslot15single_threaded6unlockEv
  46              		.type	_ZN7sigslot15single_threaded6unlockEv, @function
  47              	_ZN7sigslot15single_threaded6unlockEv:
  48              	.LFB1152:
  49              		.loc 1 114 0
  50              		.cfi_startproc
  51              	.LVL2:
  52              		.loc 1 117 0
  53 0000 4E800020 		blr
  54              		.cfi_endproc
  55              	.LFE1152:
  56              		.size	_ZN7sigslot15single_threaded6unlockEv, .-_ZN7sigslot15single_threaded6unlockEv
  57              		.section	.text._ZN10GuiElement9SetParentEPS_,"axG",@progbits,_ZN10GuiElement9SetParentEPS_,comdat
  58              		.align 2
  59              		.weak	_ZN10GuiElement9SetParentEPS_
  60              		.type	_ZN10GuiElement9SetParentEPS_, @function
  61              	_ZN10GuiElement9SetParentEPS_:
  62              	.LFB1384:
  63              		.file 2 "d:/Projects/SaveGameManager/savegame-manager-gx/trunk/source/GUI/gui_element.h"
  64              		.loc 2 92 0
  65              		.cfi_startproc
  66              	.LVL3:
  67              		.loc 2 92 0
  68 0000 90830060 		stw 4,96(3)
  69 0004 4E800020 		blr
  70              		.cfi_endproc
  71              	.LFE1384:
  72              		.size	_ZN10GuiElement9SetParentEPS_, .-_ZN10GuiElement9SetParentEPS_
  73              		.section	.text._ZN10GuiElement9GetParentEv,"axG",@progbits,_ZN10GuiElement9GetParentEv,comdat
  74              		.align 2
  75              		.weak	_ZN10GuiElement9GetParentEv
  76              		.type	_ZN10GuiElement9GetParentEv, @function
  77              	_ZN10GuiElement9GetParentEv:
  78              	.LFB1385:
  79              		.loc 2 95 0
  80              		.cfi_startproc
  81              	.LVL4:
  82              		.loc 2 95 0
  83 0000 80630060 		lwz 3,96(3)
  84              	.LVL5:
  85 0004 4E800020 		blr
  86              		.cfi_endproc
  87              	.LFE1385:
  88              		.size	_ZN10GuiElement9GetParentEv, .-_ZN10GuiElement9GetParentEv
  89              		.section	.text._ZN10GuiElement12GetZPositionEv,"axG",@progbits,_ZN10GuiElement12GetZPositionEv,com
  90              		.align 2
  91              		.weak	_ZN10GuiElement12GetZPositionEv
  92              		.type	_ZN10GuiElement12GetZPositionEv, @function
  93              	_ZN10GuiElement12GetZPositionEv:
  94              	.LFB1386:
  95              		.loc 2 106 0
  96              		.cfi_startproc
  97              	.LVL6:
  98 0000 7C0802A6 		mflr 0
  99 0004 9421FFF0 		stwu 1,-16(1)
 100              	.LCFI0:
 101              		.cfi_def_cfa_offset 16
 102              		.cfi_register 65, 0
 103 0008 93E1000C 		stw 31,12(1)
 104 000c 7C7F1B78 		mr 31,3
 105              		.cfi_offset 31, -4
 106 0010 90010014 		stw 0,20(1)
 107              	.LBB2372:
 108              		.loc 2 110 0
 109 0014 81630060 		lwz 11,96(3)
 110              		.loc 2 108 0
 111 0018 38600000 		li 3,0
 112              	.LVL7:
 113              		.loc 2 110 0
 114 001c 2F8B0000 		cmpwi 7,11,0
 115 0020 419E0018 		beq- 7,.L8
 116              		.cfi_offset 65, 4
 117              		.loc 2 111 0
 118 0024 812B0000 		lwz 9,0(11)
 119 0028 7D635B78 		mr 3,11
 120 002c 80090018 		lwz 0,24(9)
 121 0030 7C0903A6 		mtctr 0
 122 0034 4E800421 		bctrl
 123              	.LVL8:
 124              	.L8:
 125              		.loc 2 113 0
 126 0038 801F0034 		lwz 0,52(31)
 127              	.LBE2372:
 128              		.loc 2 114 0
 129 003c 83E1000C 		lwz 31,12(1)
 130              	.LVL9:
 131 0040 7C630214 		add 3,3,0
 132              	.LVL10:
 133 0044 80010014 		lwz 0,20(1)
 134 0048 38210010 		addi 1,1,16
 135              	.LCFI1:
 136              		.cfi_def_cfa_offset 0
 137              		.cfi_restore 31
 138 004c 7C0803A6 		mtlr 0
 139 0050 4E800020 		blr
 140              		.cfi_endproc
 141              	.LFE1386:
 142              		.size	_ZN10GuiElement12GetZPositionEv, .-_ZN10GuiElement12GetZPositionEv
 143              		.section	.text._ZN10GuiElement10GetLeftPosEv,"axG",@progbits,_ZN10GuiElement10GetLeftPosEv,comdat
 144              		.align 2
 145              		.weak	_ZN10GuiElement10GetLeftPosEv
 146              		.type	_ZN10GuiElement10GetLeftPosEv, @function
 147              	_ZN10GuiElement10GetLeftPosEv:
 148              	.LFB1387:
 149              		.loc 2 116 0
 150              		.cfi_startproc
 151              	.LVL11:
 152              		.loc 2 116 0
 153 0000 8063002C 		lwz 3,44(3)
 154              	.LVL12:
 155 0004 4E800020 		blr
 156              		.cfi_endproc
 157              	.LFE1387:
 158              		.size	_ZN10GuiElement10GetLeftPosEv, .-_ZN10GuiElement10GetLeftPosEv
 159              		.section	.text._ZN10GuiElement9GetTopPosEv,"axG",@progbits,_ZN10GuiElement9GetTopPosEv,comdat
 160              		.align 2
 161              		.weak	_ZN10GuiElement9GetTopPosEv
 162              		.type	_ZN10GuiElement9GetTopPosEv, @function
 163              	_ZN10GuiElement9GetTopPosEv:
 164              	.LFB1388:
 165              		.loc 2 118 0
 166              		.cfi_startproc
 167              	.LVL13:
 168              		.loc 2 118 0
 169 0000 80630030 		lwz 3,48(3)
 170              	.LVL14:
 171 0004 4E800020 		blr
 172              		.cfi_endproc
 173              	.LFE1388:
 174              		.size	_ZN10GuiElement9GetTopPosEv, .-_ZN10GuiElement9GetTopPosEv
 175              		.section	.text._ZN10GuiElement8GetWidthEv,"axG",@progbits,_ZN10GuiElement8GetWidthEv,comdat
 176              		.align 2
 177              		.weak	_ZN10GuiElement8GetWidthEv
 178              		.type	_ZN10GuiElement8GetWidthEv, @function
 179              	_ZN10GuiElement8GetWidthEv:
 180              	.LFB1389:
 181              		.loc 2 121 0
 182              		.cfi_startproc
 183              	.LVL15:
 184              		.loc 2 121 0
 185 0000 80630024 		lwz 3,36(3)
 186              	.LVL16:
 187 0004 4E800020 		blr
 188              		.cfi_endproc
 189              	.LFE1389:
 190              		.size	_ZN10GuiElement8GetWidthEv, .-_ZN10GuiElement8GetWidthEv
 191              		.section	.text._ZN10GuiElement9GetHeightEv,"axG",@progbits,_ZN10GuiElement9GetHeightEv,comdat
 192              		.align 2
 193              		.weak	_ZN10GuiElement9GetHeightEv
 194              		.type	_ZN10GuiElement9GetHeightEv, @function
 195              	_ZN10GuiElement9GetHeightEv:
 196              	.LFB1390:
 197              		.loc 2 124 0
 198              		.cfi_startproc
 199              	.LVL17:
 200              		.loc 2 124 0
 201 0000 80630028 		lwz 3,40(3)
 202              	.LVL18:
 203 0004 4E800020 		blr
 204              		.cfi_endproc
 205              	.LFE1390:
 206              		.size	_ZN10GuiElement9GetHeightEv, .-_ZN10GuiElement9GetHeightEv
 207              		.section	.text._ZN10GuiElement7SetSizeEii,"axG",@progbits,_ZN10GuiElement7SetSizeEii,comdat
 208              		.align 2
 209              		.weak	_ZN10GuiElement7SetSizeEii
 210              		.type	_ZN10GuiElement7SetSizeEii, @function
 211              	_ZN10GuiElement7SetSizeEii:
 212              	.LFB1391:
 213              		.loc 2 128 0
 214              		.cfi_startproc
 215              	.LVL19:
 216              		.loc 2 130 0
 217 0000 90830024 		stw 4,36(3)
 218              		.loc 2 132 0
 219              		.loc 2 131 0
 220 0004 90A30028 		stw 5,40(3)
 221              		.loc 2 132 0
 222 0008 4E800020 		blr
 223              		.cfi_endproc
 224              	.LFE1391:
 225              		.size	_ZN10GuiElement7SetSizeEii, .-_ZN10GuiElement7SetSizeEii
 226              		.section	.text._ZN10GuiElement9IsVisibleEv,"axG",@progbits,_ZN10GuiElement9IsVisibleEv,comdat
 227              		.align 2
 228              		.weak	_ZN10GuiElement9IsVisibleEv
 229              		.type	_ZN10GuiElement9IsVisibleEv, @function
 230              	_ZN10GuiElement9IsVisibleEv:
 231              	.LFB1393:
 232              		.loc 2 142 0
 233              		.cfi_startproc
 234              	.LVL20:
 235              		.loc 2 142 0
 236 0000 8863001D 		lbz 3,29(3)
 237              	.LVL21:
 238 0004 4E800020 		blr
 239              		.cfi_endproc
 240              	.LFE1393:
 241              		.size	_ZN10GuiElement9IsVisibleEv, .-_ZN10GuiElement9IsVisibleEv
 242              		.section	.text._ZN10GuiElement12IsSelectableEv,"axG",@progbits,_ZN10GuiElement12IsSelectableEv,com
 243              		.align 2
 244              		.weak	_ZN10GuiElement12IsSelectableEv
 245              		.type	_ZN10GuiElement12IsSelectableEv, @function
 246              	_ZN10GuiElement12IsSelectableEv:
 247              	.LFB1394:
 248              		.loc 2 145 0
 249              		.cfi_startproc
 250              	.LVL22:
 251              		.loc 2 149 0
 252 0000 80030048 		lwz 0,72(3)
 253 0004 39200000 		li 9,0
 254 0008 2F800004 		cmpwi 7,0,4
 255 000c 419E0010 		beq- 7,.L18
 256              		.loc 2 149 0 is_stmt 0 discriminator 1
 257 0010 2F800002 		cmpwi 7,0,2
 258 0014 419E0008 		beq- 7,.L18
 259              		.loc 2 149 0 discriminator 3
 260 0018 8923001E 		lbz 9,30(3)
 261              	.L18:
 262              		.loc 2 150 0 is_stmt 1 discriminator 5
 263 001c 7D234B78 		mr 3,9
 264              	.LVL23:
 265 0020 4E800020 		blr
 266              		.cfi_endproc
 267              	.LFE1394:
 268              		.size	_ZN10GuiElement12IsSelectableEv, .-_ZN10GuiElement12IsSelectableEv
 269              		.section	.text._ZN10GuiElement11IsClickableEv,"axG",@progbits,_ZN10GuiElement11IsClickableEv,comda
 270              		.align 2
 271              		.weak	_ZN10GuiElement11IsClickableEv
 272              		.type	_ZN10GuiElement11IsClickableEv, @function
 273              	_ZN10GuiElement11IsClickableEv:
 274              	.LFB1395:
 275              		.loc 2 153 0
 276              		.cfi_startproc
 277              	.LVL24:
 278              		.loc 2 158 0
 279 0000 80030048 		lwz 0,72(3)
 280 0004 39200000 		li 9,0
 281 0008 2F800004 		cmpwi 7,0,4
 282 000c 419E0018 		beq- 7,.L22
 283              		.loc 2 158 0 is_stmt 0 discriminator 1
 284 0010 2F800002 		cmpwi 7,0,2
 285 0014 419E0010 		beq- 7,.L22
 286              		.loc 2 158 0 discriminator 3
 287 0018 2F800003 		cmpwi 7,0,3
 288 001c 419E0008 		beq- 7,.L22
 289              		.loc 2 158 0 discriminator 4
 290 0020 8923001F 		lbz 9,31(3)
 291              	.L22:
 292              		.loc 2 159 0 is_stmt 1 discriminator 6
 293 0024 7D234B78 		mr 3,9
 294              	.LVL25:
 295 0028 4E800020 		blr
 296              		.cfi_endproc
 297              	.LFE1395:
 298              		.size	_ZN10GuiElement11IsClickableEv, .-_ZN10GuiElement11IsClickableEv
 299              		.section	.text._ZN10GuiElement10IsHoldableEv,"axG",@progbits,_ZN10GuiElement10IsHoldableEv,comdat
 300              		.align 2
 301              		.weak	_ZN10GuiElement10IsHoldableEv
 302              		.type	_ZN10GuiElement10IsHoldableEv, @function
 303              	_ZN10GuiElement10IsHoldableEv:
 304              	.LFB1396:
 305              		.loc 2 162 0
 306              		.cfi_startproc
 307              	.LVL26:
 308              		.loc 2 162 0
 309 0000 81230048 		lwz 9,72(3)
 310 0004 38000000 		li 0,0
 311 0008 2F890004 		cmpwi 7,9,4
 312 000c 419E0008 		beq- 7,.L27
 313              		.loc 2 162 0 is_stmt 0 discriminator 1
 314 0010 88030020 		lbz 0,32(3)
 315              	.L27:
 316              		.loc 2 162 0 discriminator 4
 317 0014 7C030378 		mr 3,0
 318              	.LVL27:
 319 0018 4E800020 		blr
 320              		.cfi_endproc
 321              	.LFE1396:
 322              		.size	_ZN10GuiElement10IsHoldableEv, .-_ZN10GuiElement10IsHoldableEv
 323              		.section	.text._ZN10GuiElement13SetSelectableEb,"axG",@progbits,_ZN10GuiElement13SetSelectableEb,c
 324              		.align 2
 325              		.weak	_ZN10GuiElement13SetSelectableEb
 326              		.type	_ZN10GuiElement13SetSelectableEb, @function
 327              	_ZN10GuiElement13SetSelectableEb:
 328              	.LFB1397:
 329              		.loc 2 165 0 is_stmt 1
 330              		.cfi_startproc
 331              	.LVL28:
 332              		.loc 2 165 0
 333 0000 9883001E 		stb 4,30(3)
 334 0004 4E800020 		blr
 335              		.cfi_endproc
 336              	.LFE1397:
 337              		.size	_ZN10GuiElement13SetSelectableEb, .-_ZN10GuiElement13SetSelectableEb
 338              		.section	.text._ZN10GuiElement12SetClickableEb,"axG",@progbits,_ZN10GuiElement12SetClickableEb,com
 339              		.align 2
 340              		.weak	_ZN10GuiElement12SetClickableEb
 341              		.type	_ZN10GuiElement12SetClickableEb, @function
 342              	_ZN10GuiElement12SetClickableEb:
 343              	.LFB1398:
 344              		.loc 2 168 0
 345              		.cfi_startproc
 346              	.LVL29:
 347              		.loc 2 168 0
 348 0000 9883001F 		stb 4,31(3)
 349 0004 4E800020 		blr
 350              		.cfi_endproc
 351              	.LFE1398:
 352              		.size	_ZN10GuiElement12SetClickableEb, .-_ZN10GuiElement12SetClickableEb
 353              		.section	.text._ZN10GuiElement11SetHoldableEb,"axG",@progbits,_ZN10GuiElement11SetHoldableEb,comda
 354              		.align 2
 355              		.weak	_ZN10GuiElement11SetHoldableEb
 356              		.type	_ZN10GuiElement11SetHoldableEb, @function
 357              	_ZN10GuiElement11SetHoldableEb:
 358              	.LFB1399:
 359              		.loc 2 171 0
 360              		.cfi_startproc
 361              	.LVL30:
 362              		.loc 2 171 0
 363 0000 98830020 		stb 4,32(3)
 364 0004 4E800020 		blr
 365              		.cfi_endproc
 366              	.LFE1399:
 367              		.size	_ZN10GuiElement11SetHoldableEb, .-_ZN10GuiElement11SetHoldableEb
 368              		.section	.text._ZN10GuiElement8GetStateEv,"axG",@progbits,_ZN10GuiElement8GetStateEv,comdat
 369              		.align 2
 370              		.weak	_ZN10GuiElement8GetStateEv
 371              		.type	_ZN10GuiElement8GetStateEv, @function
 372              	_ZN10GuiElement8GetStateEv:
 373              	.LFB1400:
 374              		.loc 2 178 0
 375              		.cfi_startproc
 376              	.LVL31:
 377              		.loc 2 178 0
 378 0000 80630048 		lwz 3,72(3)
 379              	.LVL32:
 380 0004 4E800020 		blr
 381              		.cfi_endproc
 382              	.LFE1400:
 383              		.size	_ZN10GuiElement8GetStateEv, .-_ZN10GuiElement8GetStateEv
 384              		.section	.text._ZN10GuiElement12GetStateChanEv,"axG",@progbits,_ZN10GuiElement12GetStateChanEv,com
 385              		.align 2
 386              		.weak	_ZN10GuiElement12GetStateChanEv
 387              		.type	_ZN10GuiElement12GetStateChanEv, @function
 388              	_ZN10GuiElement12GetStateChanEv:
 389              	.LFB1401:
 390              		.loc 2 181 0
 391              		.cfi_startproc
 392              	.LVL33:
 393              		.loc 2 181 0
 394 0000 8063004C 		lwz 3,76(3)
 395              	.LVL34:
 396 0004 4E800020 		blr
 397              		.cfi_endproc
 398              	.LFE1401:
 399              		.size	_ZN10GuiElement12GetStateChanEv, .-_ZN10GuiElement12GetStateChanEv
 400              		.section	.text._ZN10GuiElement8SetAlphaEi,"axG",@progbits,_ZN10GuiElement8SetAlphaEi,comdat
 401              		.align 2
 402              		.weak	_ZN10GuiElement8SetAlphaEi
 403              		.type	_ZN10GuiElement8SetAlphaEi, @function
 404              	_ZN10GuiElement8SetAlphaEi:
 405              	.LFB1403:
 406              		.loc 2 190 0
 407              		.cfi_startproc
 408              	.LVL35:
 409              		.loc 2 190 0
 410 0000 90830038 		stw 4,56(3)
 411 0004 4E800020 		blr
 412              		.cfi_endproc
 413              	.LFE1403:
 414              		.size	_ZN10GuiElement8SetAlphaEi, .-_ZN10GuiElement8SetAlphaEi
 415              		.section	.text._ZN10GuiElement8GetAlphaEv,"axG",@progbits,_ZN10GuiElement8GetAlphaEv,comdat
 416              		.align 2
 417              		.weak	_ZN10GuiElement8GetAlphaEv
 418              		.type	_ZN10GuiElement8GetAlphaEv, @function
 419              	_ZN10GuiElement8GetAlphaEv:
 420              	.LFB1404:
 421              		.loc 2 194 0
 422              		.cfi_startproc
 423              	.LVL36:
 424 0000 7C0802A6 		mflr 0
 425 0004 9421FFD8 		stwu 1,-40(1)
 426              	.LCFI2:
 427              		.cfi_def_cfa_offset 40
 428              		.cfi_register 65, 0
 429 0008 93E10024 		stw 31,36(1)
 430 000c 9001002C 		stw 0,44(1)
 431              	.LBB2373:
 432              		.loc 2 198 0
 433 0010 83E3006C 		lwz 31,108(3)
 434              		.cfi_offset 65, 4
 435              		.cfi_offset 31, -4
 436 0014 2F9F0000 		cmpwi 7,31,0
 437 0018 419C0094 		blt- 7,.L38
 438              	.L36:
 439              	.LVL37:
 440              		.loc 2 203 0
 441 001c 80630060 		lwz 3,96(3)
 442              	.LVL38:
 443 0020 2F830000 		cmpwi 7,3,0
 444 0024 419E0070 		beq- 7,.L37
 445              		.loc 2 204 0
 446 0028 81230000 		lwz 9,0(3)
 447 002c 6FFF8000 		xoris 31,31,0x8000
 448              	.LVL39:
 449 0030 80090064 		lwz 0,100(9)
 450 0034 7C0903A6 		mtctr 0
 451 0038 4E800421 		bctrl
 452 003c 3C004330 		lis 0,0x4330
 453 0040 6C638000 		xoris 3,3,0x8000
 454 0044 90010010 		stw 0,16(1)
 455 0048 90610014 		stw 3,20(1)
 456 004c 3D200000 		lis 9,.LC1@ha
 457 0050 C0090000 		lfs 0,.LC1@l(9)
 458 0054 3D200000 		lis 9,.LC2@ha
 459 0058 C9A10010 		lfd 13,16(1)
 460 005c C1890004 		lfs 12,.LC2@l(9)
 461 0060 39210018 		addi 9,1,24
 462 0064 FDAD0028 		fsub 13,13,0
 463 0068 93E1000C 		stw 31,12(1)
 464 006c 90010008 		stw 0,8(1)
 465 0070 FDA06818 		frsp 13,13
 466 0074 EDAD6024 		fdivs 13,13,12
 467 0078 C9810008 		lfd 12,8(1)
 468 007c FC0C0028 		fsub 0,12,0
 469 0080 FC000018 		frsp 0,0
 470 0084 EC000372 		fmuls 0,0,13
 471 0088 FC00001E 		fctiwz 0,0
 472 008c 7C004FAE 		stfiwx 0,0,9
 473 0090 83E10018 		lwz 31,24(1)
 474              	.LVL40:
 475              	.L37:
 476              	.LBE2373:
 477              		.loc 2 207 0
 478 0094 8001002C 		lwz 0,44(1)
 479 0098 7FE3FB78 		mr 3,31
 480 009c 83E10024 		lwz 31,36(1)
 481              	.LVL41:
 482 00a0 7C0803A6 		mtlr 0
 483 00a4 38210028 		addi 1,1,40
 484              		.cfi_remember_state
 485              	.LCFI3:
 486              		.cfi_def_cfa_offset 0
 487              		.cfi_restore 31
 488 00a8 4E800020 		blr
 489              	.LVL42:
 490              	.L38:
 491              	.LCFI4:
 492              		.cfi_restore_state
 493              	.LBB2374:
 494              		.loc 2 201 0
 495 00ac 83E30038 		lwz 31,56(3)
 496              	.LVL43:
 497 00b0 4BFFFF6C 		b .L36
 498              	.LBE2374:
 499              		.cfi_endproc
 500              	.LFE1404:
 501              		.size	_ZN10GuiElement8GetAlphaEv, .-_ZN10GuiElement8GetAlphaEv
 502              		.section	.text._ZN10GuiElement8SetScaleEf,"axG",@progbits,_ZN10GuiElement8SetScaleEf,comdat
 503              		.align 2
 504              		.weak	_ZN10GuiElement8SetScaleEf
 505              		.type	_ZN10GuiElement8SetScaleEf, @function
 506              	_ZN10GuiElement8SetScaleEf:
 507              	.LFB1405:
 508              		.loc 2 210 0
 509              		.cfi_startproc
 510              	.LVL44:
 511              		.loc 2 212 0
 512 0000 D023003C 		stfs 1,60(3)
 513              		.loc 2 214 0
 514              		.loc 2 213 0
 515 0004 D0230040 		stfs 1,64(3)
 516              		.loc 2 214 0
 517 0008 4E800020 		blr
 518              		.cfi_endproc
 519              	.LFE1405:
 520              		.size	_ZN10GuiElement8SetScaleEf, .-_ZN10GuiElement8SetScaleEf
 521              		.section	.text._ZN10GuiElement9SetScaleXEf,"axG",@progbits,_ZN10GuiElement9SetScaleXEf,comdat
 522              		.align 2
 523              		.weak	_ZN10GuiElement9SetScaleXEf
 524              		.type	_ZN10GuiElement9SetScaleXEf, @function
 525              	_ZN10GuiElement9SetScaleXEf:
 526              	.LFB1406:
 527              		.loc 2 217 0
 528              		.cfi_startproc
 529              	.LVL45:
 530              		.loc 2 217 0
 531 0000 D023003C 		stfs 1,60(3)
 532 0004 4E800020 		blr
 533              		.cfi_endproc
 534              	.LFE1406:
 535              		.size	_ZN10GuiElement9SetScaleXEf, .-_ZN10GuiElement9SetScaleXEf
 536              		.section	.text._ZN10GuiElement9SetScaleYEf,"axG",@progbits,_ZN10GuiElement9SetScaleYEf,comdat
 537              		.align 2
 538              		.weak	_ZN10GuiElement9SetScaleYEf
 539              		.type	_ZN10GuiElement9SetScaleYEf, @function
 540              	_ZN10GuiElement9SetScaleYEf:
 541              	.LFB1407:
 542              		.loc 2 220 0
 543              		.cfi_startproc
 544              	.LVL46:
 545              		.loc 2 220 0
 546 0000 D0230040 		stfs 1,64(3)
 547 0004 4E800020 		blr
 548              		.cfi_endproc
 549              	.LFE1407:
 550              		.size	_ZN10GuiElement9SetScaleYEf, .-_ZN10GuiElement9SetScaleYEf
 551              		.section	.text._ZN10GuiElement8GetScaleEv,"axG",@progbits,_ZN10GuiElement8GetScaleEv,comdat
 552              		.align 2
 553              		.weak	_ZN10GuiElement8GetScaleEv
 554              		.type	_ZN10GuiElement8GetScaleEv, @function
 555              	_ZN10GuiElement8GetScaleEv:
 556              	.LFB1408:
 557              		.loc 2 223 0
 558              		.cfi_startproc
 559              	.LVL47:
 560 0000 7C0802A6 		mflr 0
 561 0004 9421FFF0 		stwu 1,-16(1)
 562              	.LCFI5:
 563              		.cfi_def_cfa_offset 16
 564              		.cfi_register 65, 0
 565              	.LBB2375:
 566              		.loc 2 225 0
 567 0008 3D200000 		lis 9,.LC3@ha
 568              	.LBE2375:
 569              		.loc 2 223 0
 570 000c DBE10008 		stfd 31,8(1)
 571 0010 90010014 		stw 0,20(1)
 572              	.LBB2376:
 573              		.loc 2 225 0
 574 0014 C0030040 		lfs 0,64(3)
 575 0018 C3E3003C 		lfs 31,60(3)
 576              		.cfi_offset 65, 4
 577              		.cfi_offset 63, -8
 578              		.loc 2 227 0
 579 001c 81630060 		lwz 11,96(3)
 580              		.loc 2 225 0
 581 0020 EFFF002A 		fadds 31,31,0
 582 0024 C0090008 		lfs 0,.LC3@l(9)
 583              		.loc 2 227 0
 584 0028 2F8B0000 		cmpwi 7,11,0
 585              		.loc 2 225 0
 586 002c EFFF0032 		fmuls 31,31,0
 587 0030 C0030070 		lfs 0,112(3)
 588 0034 EFFF0032 		fmuls 31,31,0
 589              	.LVL48:
 590              		.loc 2 227 0
 591 0038 419E001C 		beq- 7,.L43
 592              		.loc 2 228 0
 593 003c 812B0000 		lwz 9,0(11)
 594 0040 7D635B78 		mr 3,11
 595              	.LVL49:
 596 0044 80090074 		lwz 0,116(9)
 597 0048 7C0903A6 		mtctr 0
 598 004c 4E800421 		bctrl
 599 0050 EFFF0072 		fmuls 31,31,1
 600              	.LVL50:
 601              	.L43:
 602              	.LBE2376:
 603              		.loc 2 231 0
 604 0054 80010014 		lwz 0,20(1)
 605 0058 FC20F890 		fmr 1,31
 606 005c CBE10008 		lfd 31,8(1)
 607              	.LVL51:
 608 0060 7C0803A6 		mtlr 0
 609 0064 38210010 		addi 1,1,16
 610              	.LCFI6:
 611              		.cfi_def_cfa_offset 0
 612              		.cfi_restore 63
 613 0068 4E800020 		blr
 614              		.cfi_endproc
 615              	.LFE1408:
 616              		.size	_ZN10GuiElement8GetScaleEv, .-_ZN10GuiElement8GetScaleEv
 617              		.section	.text._ZN10GuiElement9GetScaleXEv,"axG",@progbits,_ZN10GuiElement9GetScaleXEv,comdat
 618              		.align 2
 619              		.weak	_ZN10GuiElement9GetScaleXEv
 620              		.type	_ZN10GuiElement9GetScaleXEv, @function
 621              	_ZN10GuiElement9GetScaleXEv:
 622              	.LFB1409:
 623              		.loc 2 234 0
 624              		.cfi_startproc
 625              	.LVL52:
 626 0000 7C0802A6 		mflr 0
 627 0004 9421FFF0 		stwu 1,-16(1)
 628              	.LCFI7:
 629              		.cfi_def_cfa_offset 16
 630              		.cfi_register 65, 0
 631 0008 DBE10008 		stfd 31,8(1)
 632 000c 90010014 		stw 0,20(1)
 633              	.LBB2377:
 634              		.loc 2 238 0
 635 0010 81630060 		lwz 11,96(3)
 636              		.loc 2 236 0
 637 0014 C3E3003C 		lfs 31,60(3)
 638              		.cfi_offset 65, 4
 639              		.cfi_offset 63, -8
 640              		.loc 2 238 0
 641 0018 2F8B0000 		cmpwi 7,11,0
 642              		.loc 2 236 0
 643 001c C0030070 		lfs 0,112(3)
 644 0020 EFFF0032 		fmuls 31,31,0
 645              	.LVL53:
 646              		.loc 2 238 0
 647 0024 419E001C 		beq- 7,.L45
 648              		.loc 2 239 0
 649 0028 812B0000 		lwz 9,0(11)
 650 002c 7D635B78 		mr 3,11
 651              	.LVL54:
 652 0030 80090078 		lwz 0,120(9)
 653 0034 7C0903A6 		mtctr 0
 654 0038 4E800421 		bctrl
 655 003c EFFF0072 		fmuls 31,31,1
 656              	.LVL55:
 657              	.L45:
 658              	.LBE2377:
 659              		.loc 2 242 0
 660 0040 80010014 		lwz 0,20(1)
 661 0044 FC20F890 		fmr 1,31
 662 0048 CBE10008 		lfd 31,8(1)
 663              	.LVL56:
 664 004c 7C0803A6 		mtlr 0
 665 0050 38210010 		addi 1,1,16
 666              	.LCFI8:
 667              		.cfi_def_cfa_offset 0
 668              		.cfi_restore 63
 669 0054 4E800020 		blr
 670              		.cfi_endproc
 671              	.LFE1409:
 672              		.size	_ZN10GuiElement9GetScaleXEv, .-_ZN10GuiElement9GetScaleXEv
 673              		.section	.text._ZN10GuiElement9GetScaleYEv,"axG",@progbits,_ZN10GuiElement9GetScaleYEv,comdat
 674              		.align 2
 675              		.weak	_ZN10GuiElement9GetScaleYEv
 676              		.type	_ZN10GuiElement9GetScaleYEv, @function
 677              	_ZN10GuiElement9GetScaleYEv:
 678              	.LFB1410:
 679              		.loc 2 245 0
 680              		.cfi_startproc
 681              	.LVL57:
 682 0000 7C0802A6 		mflr 0
 683 0004 9421FFF0 		stwu 1,-16(1)
 684              	.LCFI9:
 685              		.cfi_def_cfa_offset 16
 686              		.cfi_register 65, 0
 687 0008 DBE10008 		stfd 31,8(1)
 688 000c 90010014 		stw 0,20(1)
 689              	.LBB2378:
 690              		.loc 2 249 0
 691 0010 81630060 		lwz 11,96(3)
 692              		.loc 2 247 0
 693 0014 C3E30040 		lfs 31,64(3)
 694              		.cfi_offset 65, 4
 695              		.cfi_offset 63, -8
 696              		.loc 2 249 0
 697 0018 2F8B0000 		cmpwi 7,11,0
 698              		.loc 2 247 0
 699 001c C0030070 		lfs 0,112(3)
 700 0020 EFFF0032 		fmuls 31,31,0
 701              	.LVL58:
 702              		.loc 2 249 0
 703 0024 419E001C 		beq- 7,.L47
 704              		.loc 2 250 0
 705 0028 812B0000 		lwz 9,0(11)
 706 002c 7D635B78 		mr 3,11
 707              	.LVL59:
 708 0030 8009007C 		lwz 0,124(9)
 709 0034 7C0903A6 		mtctr 0
 710 0038 4E800421 		bctrl
 711 003c EFFF0072 		fmuls 31,31,1
 712              	.LVL60:
 713              	.L47:
 714              	.LBE2378:
 715              		.loc 2 253 0
 716 0040 80010014 		lwz 0,20(1)
 717 0044 FC20F890 		fmr 1,31
 718 0048 CBE10008 		lfd 31,8(1)
 719              	.LVL61:
 720 004c 7C0803A6 		mtlr 0
 721 0050 38210010 		addi 1,1,16
 722              	.LCFI10:
 723              		.cfi_def_cfa_offset 0
 724              		.cfi_restore 63
 725 0054 4E800020 		blr
 726              		.cfi_endproc
 727              	.LFE1410:
 728              		.size	_ZN10GuiElement9GetScaleYEv, .-_ZN10GuiElement9GetScaleYEv
 729              		.section	.text._ZN10GuiElement6RumbleEv,"axG",@progbits,_ZN10GuiElement6RumbleEv,comdat
 730              		.align 2
 731              		.weak	_ZN10GuiElement6RumbleEv
 732              		.type	_ZN10GuiElement6RumbleEv, @function
 733              	_ZN10GuiElement6RumbleEv:
 734              	.LFB1411:
 735              		.loc 2 256 0
 736              		.cfi_startproc
 737              	.LVL62:
 738              		.loc 2 256 0
 739 0000 8863001C 		lbz 3,28(3)
 740              	.LVL63:
 741 0004 4E800020 		blr
 742              		.cfi_endproc
 743              	.LFE1411:
 744              		.size	_ZN10GuiElement6RumbleEv, .-_ZN10GuiElement6RumbleEv
 745              		.section	.text._ZN10GuiElement9SetRumbleEb,"axG",@progbits,_ZN10GuiElement9SetRumbleEb,comdat
 746              		.align 2
 747              		.weak	_ZN10GuiElement9SetRumbleEb
 748              		.type	_ZN10GuiElement9SetRumbleEb, @function
 749              	_ZN10GuiElement9SetRumbleEb:
 750              	.LFB1412:
 751              		.loc 2 259 0
 752              		.cfi_startproc
 753              	.LVL64:
 754              		.loc 2 259 0
 755 0000 9883001C 		stb 4,28(3)
 756 0004 4E800020 		blr
 757              		.cfi_endproc
 758              	.LFE1412:
 759              		.size	_ZN10GuiElement9SetRumbleEb, .-_ZN10GuiElement9SetRumbleEb
 760              		.section	.text._ZN10GuiElement13SetEffectGrowEv,"axG",@progbits,_ZN10GuiElement13SetEffectGrowEv,c
 761              		.align 2
 762              		.weak	_ZN10GuiElement13SetEffectGrowEv
 763              		.type	_ZN10GuiElement13SetEffectGrowEv, @function
 764              	_ZN10GuiElement13SetEffectGrowEv:
 765              	.LFB1413:
 766              		.loc 2 271 0
 767              		.cfi_startproc
 768              	.LVL65:
 769 0000 7C0802A6 		mflr 0
 770 0004 9421FFF8 		stwu 1,-8(1)
 771              	.LCFI11:
 772              		.cfi_def_cfa_offset 8
 773              		.cfi_register 65, 0
 774 0008 81230000 		lwz 9,0(3)
 775 000c 38800100 		li 4,256
 776 0010 38A00004 		li 5,4
 777 0014 38C0006E 		li 6,110
 778 0018 9001000C 		stw 0,12(1)
 779              		.loc 2 271 0
 780 001c 8009008C 		lwz 0,140(9)
 781              		.cfi_offset 65, 4
 782 0020 7C0903A6 		mtctr 0
 783 0024 4E800421 		bctrl
 784              	.LVL66:
 785 0028 8001000C 		lwz 0,12(1)
 786 002c 38210008 		addi 1,1,8
 787              	.LCFI12:
 788              		.cfi_def_cfa_offset 0
 789 0030 7C0803A6 		mtlr 0
 790 0034 4E800020 		blr
 791              		.cfi_endproc
 792              	.LFE1413:
 793              		.size	_ZN10GuiElement13SetEffectGrowEv, .-_ZN10GuiElement13SetEffectGrowEv
 794              		.section	.text._ZNK10GuiElement9GetEffectEv,"axG",@progbits,_ZNK10GuiElement9GetEffectEv,comdat
 795              		.align 2
 796              		.weak	_ZNK10GuiElement9GetEffectEv
 797              		.type	_ZNK10GuiElement9GetEffectEv, @function
 798              	_ZNK10GuiElement9GetEffectEv:
 799              	.LFB1414:
 800              		.loc 2 276 0
 801              		.cfi_startproc
 802              	.LVL67:
 803              		.loc 2 276 0
 804 0000 80630078 		lwz 3,120(3)
 805              	.LVL68:
 806 0004 4E800020 		blr
 807              		.cfi_endproc
 808              	.LFE1414:
 809              		.size	_ZNK10GuiElement9GetEffectEv, .-_ZNK10GuiElement9GetEffectEv
 810              		.section	.text._ZNK10GuiElement10IsAnimatedEv,"axG",@progbits,_ZNK10GuiElement10IsAnimatedEv,comda
 811              		.align 2
 812              		.weak	_ZNK10GuiElement10IsAnimatedEv
 813              		.type	_ZNK10GuiElement10IsAnimatedEv, @function
 814              	_ZNK10GuiElement10IsAnimatedEv:
 815              	.LFB1415:
 816              		.loc 2 278 0
 817              		.cfi_startproc
 818              	.LVL69:
 819 0000 7C0802A6 		mflr 0
 820 0004 9421FFF8 		stwu 1,-8(1)
 821              	.LCFI13:
 822              		.cfi_def_cfa_offset 8
 823              		.cfi_register 65, 0
 824 0008 9001000C 		stw 0,12(1)
 825              		.loc 2 278 0
 826 000c 81230000 		lwz 9,0(3)
 827 0010 80090098 		lwz 0,152(9)
 828              		.cfi_offset 65, 4
 829 0014 7C0903A6 		mtctr 0
 830 0018 4E800421 		bctrl
 831              	.LVL70:
 832 001c 7C60FE70 		srawi 0,3,31
 833 0020 7C630050 		subf 3,3,0
 834 0024 8001000C 		lwz 0,12(1)
 835 0028 54630FFE 		srwi 3,3,31
 836 002c 7C0803A6 		mtlr 0
 837 0030 38210008 		addi 1,1,8
 838              	.LCFI14:
 839              		.cfi_def_cfa_offset 0
 840 0034 4E800020 		blr
 841              		.cfi_endproc
 842              	.LFE1415:
 843              		.size	_ZNK10GuiElement10IsAnimatedEv, .-_ZNK10GuiElement10IsAnimatedEv
 844              		.section	.text._ZN10GuiElement8IsInsideEii,"axG",@progbits,_ZN10GuiElement8IsInsideEii,comdat
 845              		.align 2
 846              		.weak	_ZN10GuiElement8IsInsideEii
 847              		.type	_ZN10GuiElement8IsInsideEii, @function
 848              	_ZN10GuiElement8IsInsideEii:
 849              	.LFB1417:
 850              		.loc 2 285 0
 851              		.cfi_startproc
 852              	.LVL71:
 853 0000 7C0802A6 		mflr 0
 854 0004 9421FFE8 		stwu 1,-24(1)
 855              	.LCFI15:
 856              		.cfi_def_cfa_offset 24
 857              		.cfi_register 65, 0
 858 0008 93810008 		stw 28,8(1)
 859 000c 7CBC2B78 		mr 28,5
 860              		.cfi_offset 28, -16
 861 0010 9001001C 		stw 0,28(1)
 862 0014 93A1000C 		stw 29,12(1)
 863              		.loc 2 290 0
 864 0018 3BA00000 		li 29,0
 865              		.cfi_offset 29, -12
 866              		.cfi_offset 65, 4
 867              		.loc 2 287 0
 868 001c 81230000 		lwz 9,0(3)
 869              		.loc 2 285 0
 870 0020 93C10010 		stw 30,16(1)
 871 0024 7C9E2378 		mr 30,4
 872              		.cfi_offset 30, -8
 873              		.loc 2 287 0
 874 0028 80090010 		lwz 0,16(9)
 875              		.loc 2 285 0
 876 002c 93E10014 		stw 31,20(1)
 877              		.loc 2 285 0
 878 0030 7C7F1B78 		mr 31,3
 879              		.cfi_offset 31, -4
 880              		.loc 2 287 0
 881 0034 7C0903A6 		mtctr 0
 882 0038 4E800421 		bctrl
 883              	.LVL72:
 884              		.loc 2 290 0
 885 003c 7F83F000 		cmpw 7,3,30
 886 0040 419C0028 		blt- 7,.L58
 887              	.L54:
 888              		.loc 2 291 0 discriminator 6
 889 0044 8001001C 		lwz 0,28(1)
 890 0048 7FA3EB78 		mr 3,29
 891 004c 83810008 		lwz 28,8(1)
 892              	.LVL73:
 893 0050 7C0803A6 		mtlr 0
 894 0054 83A1000C 		lwz 29,12(1)
 895 0058 83C10010 		lwz 30,16(1)
 896              	.LVL74:
 897 005c 83E10014 		lwz 31,20(1)
 898              	.LVL75:
 899 0060 38210018 		addi 1,1,24
 900              		.cfi_remember_state
 901              	.LCFI16:
 902              		.cfi_def_cfa_offset 0
 903              		.cfi_restore 31
 904              		.cfi_restore 30
 905              		.cfi_restore 29
 906              		.cfi_restore 28
 907 0064 4E800020 		blr
 908              	.LVL76:
 909              	.L58:
 910              	.LCFI17:
 911              		.cfi_restore_state
 912              		.loc 2 288 0 discriminator 1
 913 0068 813F0000 		lwz 9,0(31)
 914 006c 7FE3FB78 		mr 3,31
 915 0070 80090010 		lwz 0,16(9)
 916 0074 7C0903A6 		mtctr 0
 917 0078 4E800421 		bctrl
 918              		.loc 2 290 0 discriminator 1
 919 007c 801F0024 		lwz 0,36(31)
 920 0080 7C030214 		add 0,3,0
 921 0084 7F9E0000 		cmpw 7,30,0
 922 0088 409CFFBC 		bge+ 7,.L54
 923              		.loc 2 289 0 discriminator 3
 924 008c 813F0000 		lwz 9,0(31)
 925 0090 7FE3FB78 		mr 3,31
 926 0094 80090014 		lwz 0,20(9)
 927 0098 7C0903A6 		mtctr 0
 928 009c 4E800421 		bctrl
 929              		.loc 2 290 0 discriminator 3
 930 00a0 7F83E000 		cmpw 7,3,28
 931 00a4 409CFFA0 		bge+ 7,.L54
 932              		.loc 2 290 0 is_stmt 0 discriminator 4
 933 00a8 813F0000 		lwz 9,0(31)
 934 00ac 7FE3FB78 		mr 3,31
 935 00b0 80090014 		lwz 0,20(9)
 936 00b4 7C0903A6 		mtctr 0
 937 00b8 4E800421 		bctrl
 938 00bc 801F0028 		lwz 0,40(31)
 939 00c0 7C030214 		add 0,3,0
 940              		.loc 2 285 0 is_stmt 1 discriminator 4
 941 00c4 7F9C0000 		cmpw 7,28,0
 942 00c8 7FA00026 		mfcr 29
 943 00cc 57BDEFFE 		rlwinm 29,29,29,1
 944 00d0 4BFFFF74 		b .L54
 945              		.cfi_endproc
 946              	.LFE1417:
 947              		.size	_ZN10GuiElement8IsInsideEii, .-_ZN10GuiElement8IsInsideEii
 948              		.section	.text._ZN10GuiElement11SetPositionEii,"axG",@progbits,_ZN10GuiElement11SetPositionEii,com
 949              		.align 2
 950              		.weak	_ZN10GuiElement11SetPositionEii
 951              		.type	_ZN10GuiElement11SetPositionEii, @function
 952              	_ZN10GuiElement11SetPositionEii:
 953              	.LFB1418:
 954              		.loc 2 295 0
 955              		.cfi_startproc
 956              	.LVL77:
 957              		.loc 2 297 0
 958 0000 9083002C 		stw 4,44(3)
 959              		.loc 2 299 0
 960              		.loc 2 298 0
 961 0004 90A30030 		stw 5,48(3)
 962              		.loc 2 299 0
 963 0008 4E800020 		blr
 964              		.cfi_endproc
 965              	.LFE1418:
 966              		.size	_ZN10GuiElement11SetPositionEii, .-_ZN10GuiElement11SetPositionEii
 967              		.section	.text._ZN10GuiElement11SetPositionEiii,"axG",@progbits,_ZN10GuiElement11SetPositionEiii,c
 968              		.align 2
 969              		.weak	_ZN10GuiElement11SetPositionEiii
 970              		.type	_ZN10GuiElement11SetPositionEiii, @function
 971              	_ZN10GuiElement11SetPositionEiii:
 972              	.LFB1419:
 973              		.loc 2 304 0
 974              		.cfi_startproc
 975              	.LVL78:
 976              		.loc 2 306 0
 977 0000 9083002C 		stw 4,44(3)
 978              		.loc 2 309 0
 979              		.loc 2 307 0
 980 0004 90A30030 		stw 5,48(3)
 981              		.loc 2 308 0
 982 0008 90C30034 		stw 6,52(3)
 983              		.loc 2 309 0
 984 000c 4E800020 		blr
 985              		.cfi_endproc
 986              	.LFE1419:
 987              		.size	_ZN10GuiElement11SetPositionEiii, .-_ZN10GuiElement11SetPositionEiii
 988              		.section	.text._ZN10GuiElement12SetAlignmentEi,"axG",@progbits,_ZN10GuiElement12SetAlignmentEi,com
 989              		.align 2
 990              		.weak	_ZN10GuiElement12SetAlignmentEi
 991              		.type	_ZN10GuiElement12SetAlignmentEi, @function
 992              	_ZN10GuiElement12SetAlignmentEi:
 993              	.LFB1421:
 994              		.loc 2 316 0
 995              		.cfi_startproc
 996              	.LVL79:
 997              		.loc 2 316 0
 998 0000 90830044 		stw 4,68(3)
 999 0004 4E800020 		blr
 1000              		.cfi_endproc
 1001              	.LFE1421:
 1002              		.size	_ZN10GuiElement12SetAlignmentEi, .-_ZN10GuiElement12SetAlignmentEi
 1003              		.section	.text._ZNK10GuiElement12GetAlignmentEv,"axG",@progbits,_ZNK10GuiElement12GetAlignmentEv,c
 1004              		.align 2
 1005              		.weak	_ZNK10GuiElement12GetAlignmentEv
 1006              		.type	_ZNK10GuiElement12GetAlignmentEv, @function
 1007              	_ZNK10GuiElement12GetAlignmentEv:
 1008              	.LFB1422:
 1009              		.loc 2 318 0
 1010              		.cfi_startproc
 1011              	.LVL80:
 1012              		.loc 2 318 0
 1013 0000 80630044 		lwz 3,68(3)
 1014              	.LVL81:
 1015 0004 4E800020 		blr
 1016              		.cfi_endproc
 1017              	.LFE1422:
 1018              		.size	_ZNK10GuiElement12GetAlignmentEv, .-_ZNK10GuiElement12GetAlignmentEv
 1019              		.section	.text._ZN8GuiFrame4showEv,"axG",@progbits,_ZN8GuiFrame4showEv,comdat
 1020              		.align 2
 1021              		.weak	_ZN8GuiFrame4showEv
 1022              		.type	_ZN8GuiFrame4showEv, @function
 1023              	_ZN8GuiFrame4showEv:
 1024              	.LFB1428:
 1025              		.file 3 "d:/Projects/SaveGameManager/savegame-manager-gx/trunk/source/GUI/gui_frame.h"
 1026              		.loc 3 79 0
 1027              		.cfi_startproc
 1028              	.LVL82:
 1029              		.loc 3 79 0
 1030 0000 4E800020 		blr
 1031              		.cfi_endproc
 1032              	.LFE1428:
 1033              		.size	_ZN8GuiFrame4showEv, .-_ZN8GuiFrame4showEv
 1034              		.section	.text._ZN8GuiFrame4hideEv,"axG",@progbits,_ZN8GuiFrame4hideEv,comdat
 1035              		.align 2
 1036              		.weak	_ZN8GuiFrame4hideEv
 1037              		.type	_ZN8GuiFrame4hideEv, @function
 1038              	_ZN8GuiFrame4hideEv:
 1039              	.LFB1429:
 1040              		.loc 3 81 0
 1041              		.cfi_startproc
 1042              	.LVL83:
 1043              		.loc 3 81 0
 1044 0000 4E800020 		blr
 1045              		.cfi_endproc
 1046              	.LFE1429:
 1047              		.size	_ZN8GuiFrame4hideEv, .-_ZN8GuiFrame4hideEv
 1048              		.section	.text._ZN8GuiFrame4execEv,"axG",@progbits,_ZN8GuiFrame4execEv,comdat
 1049              		.align 2
 1050              		.weak	_ZN8GuiFrame4execEv
 1051              		.type	_ZN8GuiFrame4execEv, @function
 1052              	_ZN8GuiFrame4execEv:
 1053              	.LFB1430:
 1054              		.loc 3 83 0
 1055              		.cfi_startproc
 1056              	.LVL84:
 1057              		.loc 3 83 0
 1058 0000 4E800020 		blr
 1059              		.cfi_endproc
 1060              	.LFE1430:
 1061              		.size	_ZN8GuiFrame4execEv, .-_ZN8GuiFrame4execEv
 1062              		.section	.text._ZN8GuiFrame12updateEventsEv,"axG",@progbits,_ZN8GuiFrame12updateEventsEv,comdat
 1063              		.align 2
 1064              		.weak	_ZN8GuiFrame12updateEventsEv
 1065              		.type	_ZN8GuiFrame12updateEventsEv, @function
 1066              	_ZN8GuiFrame12updateEventsEv:
 1067              	.LFB1431:
 1068              		.loc 3 85 0
 1069              		.cfi_startproc
 1070              	.LVL85:
 1071              		.loc 3 85 0
 1072 0000 4E800020 		blr
 1073              		.cfi_endproc
 1074              	.LFE1431:
 1075              		.size	_ZN8GuiFrame12updateEventsEv, .-_ZN8GuiFrame12updateEventsEv
 1076              		.section	".text"
 1077              		.align 2
 1078              		.globl _ZN8GuiFrame10ResetStateEv
 1079              		.type	_ZN8GuiFrame10ResetStateEv, @function
 1080              	_ZN8GuiFrame10ResetStateEv:
 1081              	.LFB1497:
 1082              		.file 4 "d:/Projects/SaveGameManager/savegame-manager-gx/trunk/source/GUI/gui_frame.cpp"
 1083              		.loc 4 111 0
 1084              		.cfi_startproc
 1085              	.LVL86:
 1086 0000 7C0802A6 		mflr 0
 1087 0004 9421FFF0 		stwu 1,-16(1)
 1088              	.LCFI18:
 1089              		.cfi_def_cfa_offset 16
 1090              		.cfi_register 65, 0
 1091 0008 93C10008 		stw 30,8(1)
 1092 000c 7C7E1B78 		mr 30,3
 1093              		.cfi_offset 30, -8
 1094 0010 90010014 		stw 0,20(1)
 1095 0014 93E1000C 		stw 31,12(1)
 1096              	.LBB2379:
 1097              		.loc 4 112 0
 1098 0018 80030048 		lwz 0,72(3)
 1099              		.cfi_offset 31, -4
 1100              		.cfi_offset 65, 4
 1101 001c 2F800004 		cmpwi 7,0,4
 1102 0020 419E000C 		beq- 7,.L68
 1103              		.loc 4 113 0
 1104 0024 38000000 		li 0,0
 1105 0028 90030048 		stw 0,72(3)
 1106              	.L68:
 1107              	.LVL87:
 1108              		.loc 4 200 0 discriminator 1
 1109 002c 813E00A4 		lwz 9,164(30)
 1110              	.LBB2380:
 1111              	.LBB2381:
 1112              	.LBB2382:
 1113              		.file 5 "d:\\devkitpro\\devkitppc\\bin\\../lib/gcc/powerpc-eabi/4.6.3/../../../../powerpc-eabi/inc
 1114              		.loc 5 571 0 discriminator 1
 1115 0030 801E00A8 		lwz 0,168(30)
 1116 0034 7C090050 		subf 0,9,0
 1117              	.LBE2382:
 1118              	.LBE2381:
 1119              		.loc 4 115 0 discriminator 1
 1120 0038 540BF0BF 		srwi. 11,0,2
 1121 003c 4182003C 		beq- 0,.L67
 1122              		.loc 4 115 0 is_stmt 0
 1123 0040 3BE00000 		li 31,0
 1124              	.LVL88:
 1125              	.L70:
 1126              		.loc 4 117 0 is_stmt 1 discriminator 2
 1127 0044 57E0103A 		slwi 0,31,2
 1128              		.loc 4 115 0 discriminator 2
 1129 0048 3BFF0001 		addi 31,31,1
 1130              	.LVL89:
 1131              		.loc 4 117 0 discriminator 2
 1132 004c 7C69002E 		lwzx 3,9,0
 1133 0050 81230000 		lwz 9,0(3)
 1134 0054 8009005C 		lwz 0,92(9)
 1135 0058 7C0903A6 		mtctr 0
 1136 005c 4E800421 		bctrl
 1137              	.LVL90:
 1138              		.loc 4 200 0 discriminator 2
 1139 0060 813E00A4 		lwz 9,164(30)
 1140              	.LBB2384:
 1141              	.LBB2383:
 1142              		.loc 5 571 0 discriminator 2
 1143 0064 801E00A8 		lwz 0,168(30)
 1144 0068 7C090050 		subf 0,9,0
 1145 006c 7C001670 		srawi 0,0,2
 1146              	.LBE2383:
 1147              	.LBE2384:
 1148              		.loc 4 115 0 discriminator 2
 1149 0070 7F9F0040 		cmplw 7,31,0
 1150 0074 419CFFD0 		blt+ 7,.L70
 1151              	.LVL91:
 1152              	.L67:
 1153              	.LBE2380:
 1154              	.LBE2379:
 1155              		.loc 4 119 0
 1156 0078 80010014 		lwz 0,20(1)
 1157 007c 83C10008 		lwz 30,8(1)
 1158              	.LVL92:
 1159 0080 7C0803A6 		mtlr 0
 1160 0084 83E1000C 		lwz 31,12(1)
 1161 0088 38210010 		addi 1,1,16
 1162              	.LCFI19:
 1163              		.cfi_def_cfa_offset 0
 1164              		.cfi_restore 31
 1165              		.cfi_restore 30
 1166 008c 4E800020 		blr
 1167              		.cfi_endproc
 1168              	.LFE1497:
 1169              		.size	_ZN8GuiFrame10ResetStateEv, .-_ZN8GuiFrame10ResetStateEv
 1170              		.align 2
 1171              		.globl _ZN8GuiFrame10SetVisibleEb
 1172              		.type	_ZN8GuiFrame10SetVisibleEb, @function
 1173              	_ZN8GuiFrame10SetVisibleEb:
 1174              	.LFB1499:
 1175              		.loc 4 132 0
 1176              		.cfi_startproc
 1177              	.LVL93:
 1178 0090 7C0802A6 		mflr 0
 1179 0094 9421FFE8 		stwu 1,-24(1)
 1180              	.LCFI20:
 1181              		.cfi_def_cfa_offset 24
 1182              		.cfi_register 65, 0
 1183 0098 93C10010 		stw 30,16(1)
 1184 009c 7C7E1B78 		mr 30,3
 1185              		.cfi_offset 30, -8
 1186 00a0 9001001C 		stw 0,28(1)
 1187 00a4 93A1000C 		stw 29,12(1)
 1188 00a8 7C9D2378 		mr 29,4
 1189              		.cfi_offset 29, -12
 1190              		.cfi_offset 65, 4
 1191              	.LBB2385:
 1192              		.loc 4 200 0
 1193 00ac 812300A4 		lwz 9,164(3)
 1194              	.LBB2386:
 1195              	.LBB2387:
 1196              	.LBB2388:
 1197              		.loc 5 571 0
 1198 00b0 800300A8 		lwz 0,168(3)
 1199              	.LBE2388:
 1200              	.LBE2387:
 1201              	.LBE2386:
 1202              	.LBE2385:
 1203              		.loc 4 132 0
 1204 00b4 93E10014 		stw 31,20(1)
 1205              	.LBB2395:
 1206              	.LBB2393:
 1207              	.LBB2391:
 1208              	.LBB2389:
 1209              		.loc 5 571 0
 1210 00b8 7C090050 		subf 0,9,0
 1211              	.LBE2389:
 1212              	.LBE2391:
 1213              	.LBE2393:
 1214              		.loc 4 133 0
 1215 00bc 989E001D 		stb 4,29(30)
 1216              	.LVL94:
 1217              	.LBB2394:
 1218              		.loc 4 135 0
 1219 00c0 540BF0BF 		srwi. 11,0,2
 1220 00c4 41820040 		beq- 0,.L72
 1221              		.cfi_offset 31, -4
 1222 00c8 3BE00000 		li 31,0
 1223              	.LVL95:
 1224              	.L74:
 1225              		.loc 4 137 0 discriminator 2
 1226 00cc 57E0103A 		slwi 0,31,2
 1227 00d0 7FA4EB78 		mr 4,29
 1228 00d4 7C69002E 		lwzx 3,9,0
 1229              		.loc 4 135 0 discriminator 2
 1230 00d8 3BFF0001 		addi 31,31,1
 1231              	.LVL96:
 1232              		.loc 4 137 0 discriminator 2
 1233 00dc 81230000 		lwz 9,0(3)
 1234 00e0 80090030 		lwz 0,48(9)
 1235 00e4 7C0903A6 		mtctr 0
 1236 00e8 4E800421 		bctrl
 1237              	.LVL97:
 1238              		.loc 4 200 0 discriminator 2
 1239 00ec 813E00A4 		lwz 9,164(30)
 1240              	.LBB2392:
 1241              	.LBB2390:
 1242              		.loc 5 571 0 discriminator 2
 1243 00f0 801E00A8 		lwz 0,168(30)
 1244 00f4 7C090050 		subf 0,9,0
 1245 00f8 7C001670 		srawi 0,0,2
 1246              	.LBE2390:
 1247              	.LBE2392:
 1248              		.loc 4 135 0 discriminator 2
 1249 00fc 7F9F0040 		cmplw 7,31,0
 1250 0100 419CFFCC 		blt+ 7,.L74
 1251              	.LVL98:
 1252              	.L72:
 1253              	.LBE2394:
 1254              	.LBE2395:
 1255              		.loc 4 139 0
 1256 0104 8001001C 		lwz 0,28(1)
 1257 0108 83A1000C 		lwz 29,12(1)
 1258 010c 7C0803A6 		mtlr 0
 1259 0110 83C10010 		lwz 30,16(1)
 1260              	.LVL99:
 1261 0114 83E10014 		lwz 31,20(1)
 1262 0118 38210018 		addi 1,1,24
 1263              	.LCFI21:
 1264              		.cfi_def_cfa_offset 0
 1265              		.cfi_restore 31
 1266              		.cfi_restore 30
 1267              		.cfi_restore 29
 1268 011c 4E800020 		blr
 1269              		.cfi_endproc
 1270              	.LFE1499:
 1271              		.size	_ZN8GuiFrame10SetVisibleEb, .-_ZN8GuiFrame10SetVisibleEb
 1272              		.align 2
 1273              		.globl _ZN8GuiFrame9SetBoundsE4RectIiE
 1274              		.type	_ZN8GuiFrame9SetBoundsE4RectIiE, @function
 1275              	_ZN8GuiFrame9SetBoundsE4RectIiE:
 1276              	.LFB1500:
 1277              		.loc 4 142 0
 1278              		.cfi_startproc
 1279              	.LVL100:
 1280 0120 7C0802A6 		mflr 0
 1281 0124 9421FFD8 		stwu 1,-40(1)
 1282              	.LCFI22:
 1283              		.cfi_def_cfa_offset 40
 1284              		.cfi_register 65, 0
 1285 0128 93A1001C 		stw 29,28(1)
 1286 012c 7C7D1B78 		mr 29,3
 1287              		.cfi_offset 29, -12
 1288              	.LVL101:
 1289 0130 9001002C 		stw 0,44(1)
 1290 0134 93E10024 		stw 31,36(1)
 1291 0138 7C9F2378 		mr 31,4
 1292              		.cfi_offset 31, -4
 1293              		.cfi_offset 65, 4
 1294              	.LVL102:
 1295              	.LBB2396:
 1296              	.LBB2397:
 1297              	.LBB2398:
 1298              		.loc 4 200 0
 1299 013c 812300A4 		lwz 9,164(3)
 1300              	.LBE2398:
 1301              	.LBE2397:
 1302              	.LBE2396:
 1303              	.LBB2401:
 1304              	.LBB2402:
 1305              	.LBB2403:
 1306              		.loc 5 571 0
 1307 0140 800300A8 		lwz 0,168(3)
 1308              	.LBE2403:
 1309              	.LBE2402:
 1310              	.LBE2401:
 1311              	.LBB2418:
 1312              	.LBB2419:
 1313              		.file 6 "d:/Projects/SaveGameManager/savegame-manager-gx/trunk/source/GUI/../Tools/Rect.h"
 1314              		.loc 6 13 0
 1315 0144 81040000 		lwz 8,0(4)
 1316              	.LBE2419:
 1317              	.LBE2418:
 1318              	.LBB2422:
 1319              	.LBB2406:
 1320              	.LBB2404:
 1321              		.loc 5 571 0
 1322 0148 7C090050 		subf 0,9,0
 1323              	.LBE2404:
 1324              	.LBE2406:
 1325              	.LBE2422:
 1326              	.LBB2423:
 1327              	.LBB2420:
 1328              		.loc 6 13 0
 1329 014c 81440008 		lwz 10,8(4)
 1330              	.LBE2420:
 1331              	.LBE2423:
 1332              	.LBB2424:
 1333              		.loc 4 145 0
 1334 0150 540BF0BF 		srwi. 11,0,2
 1335              	.LBE2424:
 1336              	.LBB2425:
 1337              	.LBB2421:
 1338              		.loc 6 13 0
 1339 0154 81640004 		lwz 11,4(4)
 1340 0158 8004000C 		lwz 0,12(4)
 1341              	.LVL103:
 1342              	.LBE2421:
 1343              	.LBE2425:
 1344              		.loc 4 142 0
 1345 015c 93C10020 		stw 30,32(1)
 1346              	.LBB2426:
 1347              	.LBB2400:
 1348              	.LBB2399:
 1349              		.loc 6 30 0
 1350 0160 91030050 		stw 8,80(3)
 1351              		.loc 6 31 0
 1352 0164 91430058 		stw 10,88(3)
 1353              		.loc 6 32 0
 1354 0168 91630054 		stw 11,84(3)
 1355              		.loc 6 33 0
 1356 016c 9003005C 		stw 0,92(3)
 1357              	.LVL104:
 1358              	.LBE2399:
 1359              	.LBE2400:
 1360              	.LBE2426:
 1361              	.LBB2427:
 1362              		.loc 4 145 0
 1363 0170 41820060 		beq- 0,.L76
 1364              		.cfi_offset 30, -8
 1365 0174 3BC00000 		li 30,0
 1366              	.LVL105:
 1367              	.L80:
 1368              		.loc 4 147 0
 1369 0178 57C0103A 		slwi 0,30,2
 1370              	.LBB2407:
 1371              	.LBB2408:
 1372              		.loc 6 13 0
 1373 017c 811F0000 		lwz 8,0(31)
 1374              	.LBE2408:
 1375              	.LBE2407:
 1376              		.loc 4 147 0
 1377 0180 7C69002E 		lwzx 3,9,0
 1378 0184 38810008 		addi 4,1,8
 1379              	.LBB2413:
 1380              	.LBB2409:
 1381              		.loc 6 13 0
 1382 0188 813F000C 		lwz 9,12(31)
 1383              	.LBE2409:
 1384              	.LBE2413:
 1385              		.loc 4 145 0
 1386 018c 3BDE0001 		addi 30,30,1
 1387              	.LVL106:
 1388              		.loc 4 147 0
 1389 0190 80E30000 		lwz 7,0(3)
 1390              	.LBB2414:
 1391              	.LBB2410:
 1392              		.loc 6 13 0
 1393 0194 815F0004 		lwz 10,4(31)
 1394              	.LBE2410:
 1395              	.LBE2414:
 1396              		.loc 4 147 0
 1397 0198 800700A0 		lwz 0,160(7)
 1398              	.LVL107:
 1399              	.LBB2415:
 1400              	.LBB2411:
 1401              		.loc 6 13 0
 1402 019c 817F0008 		lwz 11,8(31)
 1403 01a0 91210014 		stw 9,20(1)
 1404              	.LBE2411:
 1405              	.LBE2415:
 1406              		.loc 4 147 0
 1407 01a4 7C0903A6 		mtctr 0
 1408              	.LBB2416:
 1409              	.LBB2412:
 1410              		.loc 6 13 0
 1411 01a8 91010008 		stw 8,8(1)
 1412 01ac 9141000C 		stw 10,12(1)
 1413 01b0 91610010 		stw 11,16(1)
 1414              	.LBE2412:
 1415              	.LBE2416:
 1416              		.loc 4 147 0
 1417 01b4 4E800421 		bctrl
 1418              	.LVL108:
 1419              		.loc 4 200 0
 1420 01b8 813D00A4 		lwz 9,164(29)
 1421              	.LBB2417:
 1422              	.LBB2405:
 1423              		.loc 5 571 0
 1424 01bc 801D00A8 		lwz 0,168(29)
 1425 01c0 7C090050 		subf 0,9,0
 1426 01c4 7C001670 		srawi 0,0,2
 1427              	.LBE2405:
 1428              	.LBE2417:
 1429              		.loc 4 145 0
 1430 01c8 7F9E0040 		cmplw 7,30,0
 1431 01cc 419CFFAC 		blt+ 7,.L80
 1432              	.LVL109:
 1433              	.L76:
 1434              	.LBE2427:
 1435              		.loc 4 149 0
 1436 01d0 8001002C 		lwz 0,44(1)
 1437 01d4 83A1001C 		lwz 29,28(1)
 1438              	.LVL110:
 1439 01d8 7C0803A6 		mtlr 0
 1440 01dc 83C10020 		lwz 30,32(1)
 1441 01e0 83E10024 		lwz 31,36(1)
 1442              	.LVL111:
 1443 01e4 38210028 		addi 1,1,40
 1444              	.LCFI23:
 1445              		.cfi_def_cfa_offset 0
 1446              		.cfi_restore 31
 1447              		.cfi_restore 30
 1448              		.cfi_restore 29
 1449 01e8 4E800020 		blr
 1450              		.cfi_endproc
 1451              	.LFE1500:
 1452              		.size	_ZN8GuiFrame9SetBoundsE4RectIiE, .-_ZN8GuiFrame9SetBoundsE4RectIiE
 1453              		.align 2
 1454              		.globl _ZN8GuiFrame11GetSelectedEv
 1455              		.type	_ZN8GuiFrame11GetSelectedEv, @function
 1456              	_ZN8GuiFrame11GetSelectedEv:
 1457              	.LFB1501:
 1458              		.loc 4 152 0
 1459              		.cfi_startproc
 1460              	.LVL112:
 1461 01ec 7C0802A6 		mflr 0
 1462 01f0 9421FFF0 		stwu 1,-16(1)
 1463              	.LCFI24:
 1464              		.cfi_def_cfa_offset 16
 1465              		.cfi_register 65, 0
 1466 01f4 93C10008 		stw 30,8(1)
 1467 01f8 7C7E1B78 		mr 30,3
 1468              		.cfi_offset 30, -8
 1469 01fc 90010014 		stw 0,20(1)
 1470 0200 93E1000C 		stw 31,12(1)
 1471              	.LBB2428:
 1472              	.LBB2429:
 1473              		.loc 4 200 0
 1474 0204 812300A4 		lwz 9,164(3)
 1475              	.LBB2430:
 1476              	.LBB2431:
 1477              		.loc 5 571 0
 1478 0208 800300A8 		lwz 0,168(3)
 1479              		.cfi_offset 31, -4
 1480              		.cfi_offset 65, 4
 1481              	.LBE2431:
 1482              	.LBE2430:
 1483              		.loc 4 154 0
 1484 020c 3860FFFF 		li 3,-1
 1485              	.LVL113:
 1486              	.LBB2434:
 1487              	.LBB2432:
 1488              		.loc 5 571 0
 1489 0210 7C090050 		subf 0,9,0
 1490              	.LBE2432:
 1491              	.LBE2434:
 1492              		.loc 4 155 0
 1493 0214 540BF0BF 		srwi. 11,0,2
 1494 0218 4182004C 		beq- 0,.L83
 1495 021c 3BE00000 		li 31,0
 1496 0220 48000020 		b .L85
 1497              	.LVL114:
 1498              	.L84:
 1499              		.loc 4 200 0
 1500 0224 813E00A4 		lwz 9,164(30)
 1501              		.loc 4 155 0
 1502 0228 3BFF0001 		addi 31,31,1
 1503              	.LVL115:
 1504              	.LBB2435:
 1505              	.LBB2433:
 1506              		.loc 5 571 0
 1507 022c 801E00A8 		lwz 0,168(30)
 1508 0230 7C090050 		subf 0,9,0
 1509 0234 7C001670 		srawi 0,0,2
 1510              	.LBE2433:
 1511              	.LBE2435:
 1512              		.loc 4 155 0
 1513 0238 7F9F0040 		cmplw 7,31,0
 1514 023c 409C0040 		bge- 7,.L88
 1515              	.LVL116:
 1516              	.L85:
 1517              		.loc 4 157 0
 1518 0240 57E0103A 		slwi 0,31,2
 1519 0244 7C69002E 		lwzx 3,9,0
 1520 0248 81230000 		lwz 9,0(3)
 1521 024c 80090054 		lwz 0,84(9)
 1522 0250 7C0903A6 		mtctr 0
 1523 0254 4E800421 		bctrl
 1524 0258 2F830001 		cmpwi 7,3,1
 1525 025c 409EFFC8 		bne+ 7,.L84
 1526              		.loc 4 159 0
 1527 0260 7FE3FB78 		mr 3,31
 1528              	.LVL117:
 1529              	.L83:
 1530              	.LBE2429:
 1531              	.LBE2428:
 1532              		.loc 4 164 0
 1533 0264 80010014 		lwz 0,20(1)
 1534 0268 83C10008 		lwz 30,8(1)
 1535              	.LVL118:
 1536 026c 7C0803A6 		mtlr 0
 1537 0270 83E1000C 		lwz 31,12(1)
 1538 0274 38210010 		addi 1,1,16
 1539              		.cfi_remember_state
 1540              	.LCFI25:
 1541              		.cfi_def_cfa_offset 0
 1542              		.cfi_restore 31
 1543              		.cfi_restore 30
 1544 0278 4E800020 		blr
 1545              	.LVL119:
 1546              	.L88:
 1547              	.LCFI26:
 1548              		.cfi_restore_state
 1549 027c 80010014 		lwz 0,20(1)
 1550              	.LBB2437:
 1551              	.LBB2436:
 1552              		.loc 4 154 0
 1553 0280 3860FFFF 		li 3,-1
 1554              	.LVL120:
 1555              	.LBE2436:
 1556              	.LBE2437:
 1557              		.loc 4 164 0
 1558 0284 83C10008 		lwz 30,8(1)
 1559              	.LVL121:
 1560 0288 7C0803A6 		mtlr 0
 1561 028c 83E1000C 		lwz 31,12(1)
 1562              	.LVL122:
 1563 0290 38210010 		addi 1,1,16
 1564              		.cfi_restore 30
 1565              		.cfi_restore 31
 1566              	.LCFI27:
 1567              		.cfi_def_cfa_offset 0
 1568 0294 4E800020 		blr
 1569              		.cfi_endproc
 1570              	.LFE1501:
 1571              		.size	_ZN8GuiFrame11GetSelectedEv, .-_ZN8GuiFrame11GetSelectedEv
 1572              		.align 2
 1573              		.globl _ZN8GuiFrame6UpdateEP10GuiTrigger
 1574              		.type	_ZN8GuiFrame6UpdateEP10GuiTrigger, @function
 1575              	_ZN8GuiFrame6UpdateEP10GuiTrigger:
 1576              	.LFB1503:
 1577              		.loc 4 189 0
 1578              		.cfi_startproc
 1579              	.LVL123:
 1580 0298 7C0802A6 		mflr 0
 1581 029c 9421FFE8 		stwu 1,-24(1)
 1582              	.LCFI28:
 1583              		.cfi_def_cfa_offset 24
 1584              		.cfi_register 65, 0
 1585 02a0 93A1000C 		stw 29,12(1)
 1586 02a4 7C9D2378 		mr 29,4
 1587              		.cfi_offset 29, -12
 1588 02a8 9001001C 		stw 0,28(1)
 1589 02ac 93C10010 		stw 30,16(1)
 1590 02b0 7C7E1B78 		mr 30,3
 1591              		.cfi_offset 30, -8
 1592              		.cfi_offset 65, 4
 1593              	.LBB2438:
 1594              		.loc 4 190 0
 1595 02b4 80030048 		lwz 0,72(3)
 1596              	.LBE2438:
 1597              		.loc 4 189 0
 1598 02b8 93810008 		stw 28,8(1)
 1599              	.LBB2446:
 1600              		.loc 4 190 0
 1601 02bc 2F800004 		cmpwi 7,0,4
 1602              	.LBE2446:
 1603              		.loc 4 189 0
 1604 02c0 93E10014 		stw 31,20(1)
 1605              	.LBB2447:
 1606              		.loc 4 190 0
 1607 02c4 419E009C 		beq- 7,.L97
 1608              		.cfi_offset 31, -4
 1609              		.cfi_offset 28, -16
 1610              	.L90:
 1611              	.LVL124:
 1612              		.loc 4 200 0
 1613 02c8 813E00A4 		lwz 9,164(30)
 1614              	.LBB2439:
 1615              		.loc 4 196 0
 1616 02cc 3BE00000 		li 31,0
 1617              	.LBE2439:
 1618              	.LBB2442:
 1619              	.LBB2443:
 1620              		.loc 5 571 0
 1621 02d0 839E00A8 		lwz 28,168(30)
 1622 02d4 7F89E050 		subf 28,9,28
 1623              	.LBE2443:
 1624              	.LBE2442:
 1625              	.LBB2444:
 1626              		.loc 4 196 0
 1627 02d8 7F9C1671 		srawi. 28,28,2
 1628 02dc 4182002C 		beq- 0,.L89
 1629              	.LVL125:
 1630              	.L95:
 1631              		.loc 4 198 0 discriminator 5
 1632 02e0 57E0103A 		slwi 0,31,2
 1633 02e4 7FA4EB78 		mr 4,29
 1634 02e8 7C69002E 		lwzx 3,9,0
 1635              		.loc 4 196 0 discriminator 5
 1636 02ec 3BFF0001 		addi 31,31,1
 1637              	.LVL126:
 1638              		.loc 4 198 0 discriminator 5
 1639 02f0 81230000 		lwz 9,0(3)
 1640 02f4 800900BC 		lwz 0,188(9)
 1641 02f8 7C0903A6 		mtctr 0
 1642 02fc 4E800421 		bctrl
 1643              	.LVL127:
 1644              		.loc 4 196 0 discriminator 5
 1645 0300 7F9FE000 		cmpw 7,31,28
 1646 0304 409E0024 		bne- 7,.L93
 1647              	.LVL128:
 1648              	.L89:
 1649              	.LBE2444:
 1650              	.LBE2447:
 1651              		.loc 4 200 0
 1652 0308 8001001C 		lwz 0,28(1)
 1653 030c 83810008 		lwz 28,8(1)
 1654 0310 7C0803A6 		mtlr 0
 1655 0314 83A1000C 		lwz 29,12(1)
 1656              	.LVL129:
 1657 0318 83C10010 		lwz 30,16(1)
 1658              	.LVL130:
 1659 031c 83E10014 		lwz 31,20(1)
 1660 0320 38210018 		addi 1,1,24
 1661              		.cfi_remember_state
 1662              	.LCFI29:
 1663              		.cfi_def_cfa_offset 0
 1664              		.cfi_restore 31
 1665              		.cfi_restore 30
 1666              		.cfi_restore 29
 1667              		.cfi_restore 28
 1668 0324 4E800020 		blr
 1669              	.LVL131:
 1670              	.L93:
 1671              	.LCFI30:
 1672              		.cfi_restore_state
 1673              	.LBB2448:
 1674              	.LBB2445:
 1675              		.loc 4 200 0 is_stmt 0 discriminator 2
 1676 0328 813E00A4 		lwz 9,164(30)
 1677              	.LBB2440:
 1678              	.LBB2441:
 1679              		.loc 5 571 0 is_stmt 1 discriminator 2
 1680 032c 801E00A8 		lwz 0,168(30)
 1681 0330 7C090050 		subf 0,9,0
 1682 0334 7C001670 		srawi 0,0,2
 1683              	.LBE2441:
 1684              	.LBE2440:
 1685              		.loc 4 196 0 discriminator 2
 1686 0338 7F9F0040 		cmplw 7,31,0
 1687 033c 41BCFFA4 		blt- 7,.L95
 1688              	.LBE2445:
 1689              	.LBE2448:
 1690              		.loc 4 200 0
 1691 0340 8001001C 		lwz 0,28(1)
 1692 0344 83810008 		lwz 28,8(1)
 1693 0348 7C0803A6 		mtlr 0
 1694 034c 83A1000C 		lwz 29,12(1)
 1695              	.LVL132:
 1696 0350 83C10010 		lwz 30,16(1)
 1697              	.LVL133:
 1698 0354 83E10014 		lwz 31,20(1)
 1699              	.LVL134:
 1700 0358 38210018 		addi 1,1,24
 1701              		.cfi_remember_state
 1702              		.cfi_restore 28
 1703              		.cfi_restore 29
 1704              		.cfi_restore 30
 1705              		.cfi_restore 31
 1706              	.LCFI31:
 1707              		.cfi_def_cfa_offset 0
 1708 035c 4E800020 		blr
 1709              	.LVL135:
 1710              	.L97:
 1711              	.LCFI32:
 1712              		.cfi_restore_state
 1713              	.LBB2449:
 1714              		.loc 4 190 0 discriminator 1
 1715 0360 80030060 		lwz 0,96(3)
 1716 0364 2F800000 		cmpwi 7,0,0
 1717 0368 409EFFA0 		bne+ 7,.L89
 1718 036c 4BFFFF5C 		b .L90
 1719              	.LBE2449:
 1720              		.cfi_endproc
 1721              	.LFE1503:
 1722              		.size	_ZN8GuiFrame6UpdateEP10GuiTrigger, .-_ZN8GuiFrame6UpdateEP10GuiTrigger
 1723              		.section	.text._ZN7sigslot12_signal_baseINS_15single_threadedEED2Ev,"axG",@progbits,_ZN7sigslot12_
 1724              		.align 2
 1725              		.weak	_ZN7sigslot12_signal_baseINS_15single_threadedEED2Ev
 1726              		.type	_ZN7sigslot12_signal_baseINS_15single_threadedEED2Ev, @function
 1727              	_ZN7sigslot12_signal_baseINS_15single_threadedEED2Ev:
 1728              	.LFB1559:
 1729              		.loc 1 466 0
 1730              		.cfi_startproc
 1731              	.LVL136:
 1732              	.LBB2450:
 1733              	.LBB2451:
 1734              	.LBB2452:
 1735              	.LBB2453:
 1736              		.loc 1 105 0
 1737 0000 3D200000 		lis 9,_ZTVN7sigslot15single_threadedE+8@ha
 1738              	.LBE2453:
 1739              	.LBE2452:
 1740              	.LBE2451:
 1741              	.LBE2450:
 1742              		.loc 1 466 0
 1743              	.LBB2457:
 1744              	.LBB2456:
 1745              	.LBB2455:
 1746              	.LBB2454:
 1747              		.loc 1 105 0
 1748 0004 38090008 		la 0,_ZTVN7sigslot15single_threadedE+8@l(9)
 1749 0008 90030000 		stw 0,0(3)
 1750              	.LBE2454:
 1751              	.LBE2455:
 1752              	.LBE2456:
 1753              	.LBE2457:
 1754              		.loc 1 466 0
 1755 000c 4E800020 		blr
 1756              		.cfi_endproc
 1757              	.LFE1559:
 1758              		.size	_ZN7sigslot12_signal_baseINS_15single_threadedEED2Ev, .-_ZN7sigslot12_signal_baseINS_15singl
 1759              		.section	.text._ZN7sigslot13_signal_base1IP8GuiFrameNS_15single_threadedEE14slot_duplicateEPKNS_9h
 1760              		.align 2
 1761              		.weak	_ZN7sigslot13_signal_base1IP8GuiFrameNS_15single_threadedEE14slot_duplicateEPKNS_9has_slotsI
 1762              		.type	_ZN7sigslot13_signal_base1IP8GuiFrameNS_15single_threadedEE14slot_duplicateEPKNS_9has_slotsI
 1763              	_ZN7sigslot13_signal_base1IP8GuiFrameNS_15single_threadedEE14slot_duplicateEPKNS_9has_slotsIS3_EEPS
 1764              	.LFB1929:
 1765              		.loc 1 685 0
 1766              		.cfi_startproc
 1767              		.cfi_personality 0,__gxx_personality_v0
 1768              		.cfi_lsda 0,.LLSDA1929
 1769              	.LVL137:
 1770 0000 7C0802A6 		mflr 0
 1771 0004 9421FFE0 		stwu 1,-32(1)
 1772              	.LCFI33:
 1773              		.cfi_def_cfa_offset 32
 1774              		.cfi_register 65, 0
 1775 0008 93410008 		stw 26,8(1)
 1776 000c 7CBA2B78 		mr 26,5
 1777              		.cfi_offset 26, -24
 1778 0010 90010024 		stw 0,36(1)
 1779 0014 9361000C 		stw 27,12(1)
 1780 0018 7C7B1B78 		mr 27,3
 1781              		.cfi_offset 27, -20
 1782              		.cfi_offset 65, 4
 1783              	.LVL138:
 1784              	.LBB2458:
 1785              	.LBB2459:
 1786              	.LBB2460:
 1787              		.loc 1 338 0
 1788 001c 81230000 		lwz 9,0(3)
 1789              	.LBE2460:
 1790              	.LBE2459:
 1791              	.LBE2458:
 1792              		.loc 1 685 0
 1793 0020 93A10014 		stw 29,20(1)
 1794 0024 7C9D2378 		mr 29,4
 1795              		.cfi_offset 29, -12
 1796              	.LBB2489:
 1797              	.LBB2465:
 1798              	.LBB2461:
 1799              		.loc 1 338 0
 1800 0028 80090008 		lwz 0,8(9)
 1801              	.LBE2461:
 1802              	.LBE2465:
 1803              	.LBE2489:
 1804              		.loc 1 685 0
 1805 002c 93C10018 		stw 30,24(1)
 1806              	.LBB2490:
 1807              	.LBB2466:
 1808              	.LBB2462:
 1809              		.loc 4 200 0
 1810 0030 7F7EDB78 		mr 30,27
 1811              		.cfi_offset 30, -8
 1812              	.LBE2462:
 1813              	.LBE2466:
 1814              	.LBE2490:
 1815              		.loc 1 685 0
 1816 0034 93E1001C 		stw 31,28(1)
 1817              	.LBB2491:
 1818              	.LBB2467:
 1819              	.LBB2463:
 1820              		.loc 1 338 0
 1821 0038 7C0903A6 		mtctr 0
 1822              	.LBE2463:
 1823              	.LBE2467:
 1824              	.LBE2491:
 1825              		.loc 1 685 0
 1826 003c 93810010 		stw 28,16(1)
 1827              	.LEHB0:
 1828              	.LBB2492:
 1829              	.LBB2468:
 1830              	.LBB2464:
 1831              		.loc 1 338 0
 1832              		.cfi_offset 28, -16
 1833              		.cfi_offset 31, -4
 1834 0040 4E800421 		bctrl
 1835              	.LEHE0:
 1836              	.LVL139:
 1837              		.loc 4 200 0
 1838 0044 87FE0004 		lwzu 31,4(30)
 1839              	.LVL140:
 1840              	.LBE2464:
 1841              	.LBE2468:
 1842              		.loc 1 691 0
 1843 0048 7F9FF000 		cmpw 7,31,30
 1844 004c 40BE0014 		bne+ 7,.L111
 1845 0050 48000070 		b .L102
 1846              	.LVL141:
 1847              	.L103:
 1848              	.LBB2469:
 1849              	.LBB2470:
 1850              		.file 7 "d:\\devkitpro\\devkitppc\\bin\\../lib/gcc/powerpc-eabi/4.6.3/../../../../powerpc-eabi/inc
 1851              		.loc 7 154 0
 1852 0054 83FF0000 		lwz 31,0(31)
 1853              	.LVL142:
 1854              	.LBE2470:
 1855              	.LBE2469:
 1856              		.loc 1 691 0
 1857 0058 7F9EF800 		cmpw 7,30,31
 1858 005c 419E0064 		beq- 7,.L102
 1859              	.LVL143:
 1860              	.L111:
 1861              		.loc 1 693 0
 1862 0060 807F0008 		lwz 3,8(31)
 1863 0064 81230000 		lwz 9,0(3)
 1864 0068 80090008 		lwz 0,8(9)
 1865 006c 7C0903A6 		mtctr 0
 1866              	.LEHB1:
 1867 0070 4E800421 		bctrl
 1868 0074 7F9D1800 		cmpw 7,29,3
 1869 0078 409EFFDC 		bne+ 7,.L103
 1870              	.LVL144:
 1871              		.loc 1 695 0
 1872 007c 807F0008 		lwz 3,8(31)
 1873 0080 7F44D378 		mr 4,26
 1874 0084 81230000 		lwz 9,0(3)
 1875 0088 80090014 		lwz 0,20(9)
 1876 008c 7C0903A6 		mtctr 0
 1877 0090 4E800421 		bctrl
 1878 0094 7C7C1B78 		mr 28,3
 1879              	.LVL145:
 1880              	.LBB2472:
 1881              	.LBB2473:
 1882              	.LBB2474:
 1883              	.LBB2475:
 1884              	.LBB2476:
 1885              	.LBB2477:
 1886              	.LBB2478:
 1887              	.LBB2479:
 1888              		.file 8 "d:\\devkitpro\\devkitppc\\bin\\../lib/gcc/powerpc-eabi/4.6.3/../../../../powerpc-eabi/inc
 1889              		.loc 8 92 0
 1890 0098 3860000C 		li 3,12
 1891 009c 48000001 		bl _Znwj
 1892              	.LEHE1:
 1893              	.LVL146:
 1894              	.LBE2479:
 1895              	.LBE2478:
 1896              	.LBE2477:
 1897              	.LBB2480:
 1898              	.LBB2481:
 1899              		.loc 8 108 0 discriminator 1
 1900 00a0 2F83FFF8 		cmpwi 7,3,-8
 1901 00a4 419E0008 		beq- 7,.L105
 1902              		.loc 8 108 0 is_stmt 0
 1903 00a8 93830008 		stw 28,8(3)
 1904              	.L105:
 1905              	.LVL147:
 1906              	.LBE2481:
 1907              	.LBE2480:
 1908              	.LBE2476:
 1909              	.LBE2475:
 1910              		.loc 7 1516 0 is_stmt 1
 1911 00ac 7FC4F378 		mr 4,30
 1912 00b0 48000001 		bl _ZNSt8__detail15_List_node_base7_M_hookEPS0_
 1913              	.LVL148:
 1914              	.LBE2474:
 1915              	.LBE2473:
 1916              	.LBE2472:
 1917              	.LBB2482:
 1918              	.LBB2471:
 1919              		.loc 7 154 0
 1920 00b4 83FF0000 		lwz 31,0(31)
 1921              	.LVL149:
 1922              	.LBE2471:
 1923              	.LBE2482:
 1924              		.loc 1 691 0
 1925 00b8 7F9EF800 		cmpw 7,30,31
 1926 00bc 409EFFA4 		bne+ 7,.L111
 1927              	.LVL150:
 1928              	.L102:
 1929              	.LBB2483:
 1930              	.LBB2484:
 1931              	.LBB2485:
 1932              		.loc 1 343 0
 1933 00c0 813B0000 		lwz 9,0(27)
 1934 00c4 7F63DB78 		mr 3,27
 1935 00c8 8009000C 		lwz 0,12(9)
 1936 00cc 7C0903A6 		mtctr 0
 1937              	.LEHB2:
 1938 00d0 4E800421 		bctrl
 1939              	.LEHE2:
 1940              	.LBE2485:
 1941              	.LBE2484:
 1942              	.LBE2483:
 1943              	.LBE2492:
 1944              		.loc 1 700 0
 1945 00d4 80010024 		lwz 0,36(1)
 1946 00d8 83410008 		lwz 26,8(1)
 1947              	.LVL151:
 1948 00dc 7C0803A6 		mtlr 0
 1949 00e0 8361000C 		lwz 27,12(1)
 1950              	.LVL152:
 1951 00e4 83810010 		lwz 28,16(1)
 1952 00e8 83A10014 		lwz 29,20(1)
 1953              	.LVL153:
 1954 00ec 83C10018 		lwz 30,24(1)
 1955              	.LVL154:
 1956 00f0 83E1001C 		lwz 31,28(1)
 1957              	.LVL155:
 1958 00f4 38210020 		addi 1,1,32
 1959              		.cfi_remember_state
 1960              	.LCFI34:
 1961              		.cfi_def_cfa_offset 0
 1962              		.cfi_restore 31
 1963              		.cfi_restore 30
 1964              		.cfi_restore 29
 1965              		.cfi_restore 28
 1966              		.cfi_restore 27
 1967              		.cfi_restore 26
 1968 00f8 4E800020 		blr
 1969              	.LVL156:
 1970              	.L110:
 1971              	.LCFI35:
 1972              		.cfi_restore_state
 1973              	.LBB2493:
 1974              	.LBB2486:
 1975              	.LBB2487:
 1976              	.LBB2488:
 1977              		.loc 1 343 0
 1978 00fc 813B0000 		lwz 9,0(27)
 1979 0100 7C7F1B78 		mr 31,3
 1980              	.LVL157:
 1981 0104 7F63DB78 		mr 3,27
 1982 0108 8009000C 		lwz 0,12(9)
 1983 010c 7C0903A6 		mtctr 0
 1984 0110 4E800421 		bctrl
 1985 0114 7FE3FB78 		mr 3,31
 1986              	.LEHB3:
 1987 0118 48000001 		bl _Unwind_Resume
 1988              	.LEHE3:
 1989              	.LBE2488:
 1990              	.LBE2487:
 1991              	.LBE2486:
 1992              	.LBE2493:
 1993              		.cfi_endproc
 1994              	.LFE1929:
 1995              		.globl __gxx_personality_v0
 1996              		.section	.gcc_except_table,"a",@progbits
 1997              	.LLSDA1929:
 1998 0000 FF       		.byte	0xff
 1999 0001 FF       		.byte	0xff
 2000 0002 01       		.byte	0x1
 2001 0003 13       		.uleb128 .LLSDACSE1929-.LLSDACSB1929
 2002              	.LLSDACSB1929:
 2003 0004 40       		.uleb128 .LEHB0-.LFB1929
 2004 0005 04       		.uleb128 .LEHE0-.LEHB0
 2005 0006 00       		.uleb128 0
 2006 0007 00       		.uleb128 0
 2007 0008 70       		.uleb128 .LEHB1-.LFB1929
 2008 0009 30       		.uleb128 .LEHE1-.LEHB1
 2009 000a FC01     		.uleb128 .L110-.LFB1929
 2010 000c 00       		.uleb128 0
 2011 000d D001     		.uleb128 .LEHB2-.LFB1929
 2012 000f 04       		.uleb128 .LEHE2-.LEHB2
 2013 0010 00       		.uleb128 0
 2014 0011 00       		.uleb128 0
 2015 0012 9802     		.uleb128 .LEHB3-.LFB1929
 2016 0014 04       		.uleb128 .LEHE3-.LEHB3
 2017 0015 00       		.uleb128 0
 2018 0016 00       		.uleb128 0
 2019              	.LLSDACSE1929:
 2020              		.section	.text._ZN7sigslot13_signal_base1IP8GuiFrameNS_15single_threadedEE14slot_duplicateEPKNS_9h
 2021              		.size	_ZN7sigslot13_signal_base1IP8GuiFrameNS_15single_threadedEE14slot_duplicateEPKNS_9has_slotsI
 2022              		.section	.text._ZN7sigslot13_signal_base3IP10GuiElementiiNS_15single_threadedEE14slot_duplicateEPK
 2023              		.align 2
 2024              		.weak	_ZN7sigslot13_signal_base3IP10GuiElementiiNS_15single_threadedEE14slot_duplicateEPKNS_9has_s
 2025              		.type	_ZN7sigslot13_signal_base3IP10GuiElementiiNS_15single_threadedEE14slot_duplicateEPKNS_9has_s
 2026              	_ZN7sigslot13_signal_base3IP10GuiElementiiNS_15single_threadedEE14slot_duplicateEPKNS_9has_slotsIS3
 2027              	.LFB1931:
 2028              		.loc 1 926 0
 2029              		.cfi_startproc
 2030              		.cfi_personality 0,__gxx_personality_v0
 2031              		.cfi_lsda 0,.LLSDA1931
 2032              	.LVL158:
 2033 0000 7C0802A6 		mflr 0
 2034 0004 9421FFE0 		stwu 1,-32(1)
 2035              	.LCFI36:
 2036              		.cfi_def_cfa_offset 32
 2037              		.cfi_register 65, 0
 2038 0008 93410008 		stw 26,8(1)
 2039 000c 7CBA2B78 		mr 26,5
 2040              		.cfi_offset 26, -24
 2041 0010 90010024 		stw 0,36(1)
 2042 0014 9361000C 		stw 27,12(1)
 2043 0018 7C7B1B78 		mr 27,3
 2044              		.cfi_offset 27, -20
 2045              		.cfi_offset 65, 4
 2046              	.LVL159:
 2047              	.LBB2494:
 2048              	.LBB2495:
 2049              	.LBB2496:
 2050              		.loc 1 338 0
 2051 001c 81230000 		lwz 9,0(3)
 2052              	.LBE2496:
 2053              	.LBE2495:
 2054              	.LBE2494:
 2055              		.loc 1 926 0
 2056 0020 93A10014 		stw 29,20(1)
 2057 0024 7C9D2378 		mr 29,4
 2058              		.cfi_offset 29, -12
 2059              	.LBB2525:
 2060              	.LBB2501:
 2061              	.LBB2497:
 2062              		.loc 1 338 0
 2063 0028 80090008 		lwz 0,8(9)
 2064              	.LBE2497:
 2065              	.LBE2501:
 2066              	.LBE2525:
 2067              		.loc 1 926 0
 2068 002c 93C10018 		stw 30,24(1)
 2069              	.LBB2526:
 2070              	.LBB2502:
 2071              	.LBB2498:
 2072              		.loc 4 200 0
 2073 0030 7F7EDB78 		mr 30,27
 2074              		.cfi_offset 30, -8
 2075              	.LBE2498:
 2076              	.LBE2502:
 2077              	.LBE2526:
 2078              		.loc 1 926 0
 2079 0034 93E1001C 		stw 31,28(1)
 2080              	.LBB2527:
 2081              	.LBB2503:
 2082              	.LBB2499:
 2083              		.loc 1 338 0
 2084 0038 7C0903A6 		mtctr 0
 2085              	.LBE2499:
 2086              	.LBE2503:
 2087              	.LBE2527:
 2088              		.loc 1 926 0
 2089 003c 93810010 		stw 28,16(1)
 2090              	.LEHB4:
 2091              	.LBB2528:
 2092              	.LBB2504:
 2093              	.LBB2500:
 2094              		.loc 1 338 0
 2095              		.cfi_offset 28, -16
 2096              		.cfi_offset 31, -4
 2097 0040 4E800421 		bctrl
 2098              	.LEHE4:
 2099              	.LVL160:
 2100              		.loc 4 200 0
 2101 0044 87FE0004 		lwzu 31,4(30)
 2102              	.LVL161:
 2103              	.LBE2500:
 2104              	.LBE2504:
 2105              		.loc 1 932 0
 2106 0048 7F9FF000 		cmpw 7,31,30
 2107 004c 40BE0014 		bne+ 7,.L123
 2108 0050 48000070 		b .L114
 2109              	.LVL162:
 2110              	.L115:
 2111              	.LBB2505:
 2112              	.LBB2506:
 2113              		.loc 7 154 0
 2114 0054 83FF0000 		lwz 31,0(31)
 2115              	.LVL163:
 2116              	.LBE2506:
 2117              	.LBE2505:
 2118              		.loc 1 932 0
 2119 0058 7F9EF800 		cmpw 7,30,31
 2120 005c 419E0064 		beq- 7,.L114
 2121              	.LVL164:
 2122              	.L123:
 2123              		.loc 1 934 0
 2124 0060 807F0008 		lwz 3,8(31)
 2125 0064 81230000 		lwz 9,0(3)
 2126 0068 80090008 		lwz 0,8(9)
 2127 006c 7C0903A6 		mtctr 0
 2128              	.LEHB5:
 2129 0070 4E800421 		bctrl
 2130 0074 7F9D1800 		cmpw 7,29,3
 2131 0078 409EFFDC 		bne+ 7,.L115
 2132              	.LVL165:
 2133              		.loc 1 936 0
 2134 007c 807F0008 		lwz 3,8(31)
 2135 0080 7F44D378 		mr 4,26
 2136 0084 81230000 		lwz 9,0(3)
 2137 0088 80090014 		lwz 0,20(9)
 2138 008c 7C0903A6 		mtctr 0
 2139 0090 4E800421 		bctrl
 2140 0094 7C7C1B78 		mr 28,3
 2141              	.LVL166:
 2142              	.LBB2508:
 2143              	.LBB2509:
 2144              	.LBB2510:
 2145              	.LBB2511:
 2146              	.LBB2512:
 2147              	.LBB2513:
 2148              	.LBB2514:
 2149              	.LBB2515:
 2150              		.loc 8 92 0
 2151 0098 3860000C 		li 3,12
 2152 009c 48000001 		bl _Znwj
 2153              	.LEHE5:
 2154              	.LVL167:
 2155              	.LBE2515:
 2156              	.LBE2514:
 2157              	.LBE2513:
 2158              	.LBB2516:
 2159              	.LBB2517:
 2160              		.loc 8 108 0 discriminator 1
 2161 00a0 2F83FFF8 		cmpwi 7,3,-8
 2162 00a4 419E0008 		beq- 7,.L117
 2163              		.loc 8 108 0 is_stmt 0
 2164 00a8 93830008 		stw 28,8(3)
 2165              	.L117:
 2166              	.LVL168:
 2167              	.LBE2517:
 2168              	.LBE2516:
 2169              	.LBE2512:
 2170              	.LBE2511:
 2171              		.loc 7 1516 0 is_stmt 1
 2172 00ac 7FC4F378 		mr 4,30
 2173 00b0 48000001 		bl _ZNSt8__detail15_List_node_base7_M_hookEPS0_
 2174              	.LVL169:
 2175              	.LBE2510:
 2176              	.LBE2509:
 2177              	.LBE2508:
 2178              	.LBB2518:
 2179              	.LBB2507:
 2180              		.loc 7 154 0
 2181 00b4 83FF0000 		lwz 31,0(31)
 2182              	.LVL170:
 2183              	.LBE2507:
 2184              	.LBE2518:
 2185              		.loc 1 932 0
 2186 00b8 7F9EF800 		cmpw 7,30,31
 2187 00bc 409EFFA4 		bne+ 7,.L123
 2188              	.LVL171:
 2189              	.L114:
 2190              	.LBB2519:
 2191              	.LBB2520:
 2192              	.LBB2521:
 2193              		.loc 1 343 0
 2194 00c0 813B0000 		lwz 9,0(27)
 2195 00c4 7F63DB78 		mr 3,27
 2196 00c8 8009000C 		lwz 0,12(9)
 2197 00cc 7C0903A6 		mtctr 0
 2198              	.LEHB6:
 2199 00d0 4E800421 		bctrl
 2200              	.LEHE6:
 2201              	.LBE2521:
 2202              	.LBE2520:
 2203              	.LBE2519:
 2204              	.LBE2528:
 2205              		.loc 1 941 0
 2206 00d4 80010024 		lwz 0,36(1)
 2207 00d8 83410008 		lwz 26,8(1)
 2208              	.LVL172:
 2209 00dc 7C0803A6 		mtlr 0
 2210 00e0 8361000C 		lwz 27,12(1)
 2211              	.LVL173:
 2212 00e4 83810010 		lwz 28,16(1)
 2213 00e8 83A10014 		lwz 29,20(1)
 2214              	.LVL174:
 2215 00ec 83C10018 		lwz 30,24(1)
 2216              	.LVL175:
 2217 00f0 83E1001C 		lwz 31,28(1)
 2218              	.LVL176:
 2219 00f4 38210020 		addi 1,1,32
 2220              		.cfi_remember_state
 2221              	.LCFI37:
 2222              		.cfi_def_cfa_offset 0
 2223              		.cfi_restore 31
 2224              		.cfi_restore 30
 2225              		.cfi_restore 29
 2226              		.cfi_restore 28
 2227              		.cfi_restore 27
 2228              		.cfi_restore 26
 2229 00f8 4E800020 		blr
 2230              	.LVL177:
 2231              	.L122:
 2232              	.LCFI38:
 2233              		.cfi_restore_state
 2234              	.LBB2529:
 2235              	.LBB2522:
 2236              	.LBB2523:
 2237              	.LBB2524:
 2238              		.loc 1 343 0
 2239 00fc 813B0000 		lwz 9,0(27)
 2240 0100 7C7F1B78 		mr 31,3
 2241              	.LVL178:
 2242 0104 7F63DB78 		mr 3,27
 2243 0108 8009000C 		lwz 0,12(9)
 2244 010c 7C0903A6 		mtctr 0
 2245 0110 4E800421 		bctrl
 2246 0114 7FE3FB78 		mr 3,31
 2247              	.LEHB7:
 2248 0118 48000001 		bl _Unwind_Resume
 2249              	.LEHE7:
 2250              	.LBE2524:
 2251              	.LBE2523:
 2252              	.LBE2522:
 2253              	.LBE2529:
 2254              		.cfi_endproc
 2255              	.LFE1931:
 2256              		.section	.gcc_except_table
 2257              	.LLSDA1931:
 2258 0017 FF       		.byte	0xff
 2259 0018 FF       		.byte	0xff
 2260 0019 01       		.byte	0x1
 2261 001a 13       		.uleb128 .LLSDACSE1931-.LLSDACSB1931
 2262              	.LLSDACSB1931:
 2263 001b 40       		.uleb128 .LEHB4-.LFB1931
 2264 001c 04       		.uleb128 .LEHE4-.LEHB4
 2265 001d 00       		.uleb128 0
 2266 001e 00       		.uleb128 0
 2267 001f 70       		.uleb128 .LEHB5-.LFB1931
 2268 0020 30       		.uleb128 .LEHE5-.LEHB5
 2269 0021 FC01     		.uleb128 .L122-.LFB1931
 2270 0023 00       		.uleb128 0
 2271 0024 D001     		.uleb128 .LEHB6-.LFB1931
 2272 0026 04       		.uleb128 .LEHE6-.LEHB6
 2273 0027 00       		.uleb128 0
 2274 0028 00       		.uleb128 0
 2275 0029 9802     		.uleb128 .LEHB7-.LFB1931
 2276 002b 04       		.uleb128 .LEHE7-.LEHB7
 2277 002c 00       		.uleb128 0
 2278 002d 00       		.uleb128 0
 2279              	.LLSDACSE1931:
 2280              		.section	.text._ZN7sigslot13_signal_base3IP10GuiElementiiNS_15single_threadedEE14slot_duplicateEPK
 2281              		.size	_ZN7sigslot13_signal_base3IP10GuiElementiiNS_15single_threadedEE14slot_duplicateEPKNS_9has_s
 2282              		.section	.text._ZN7sigslot13_signal_base2IP10GuiElementbNS_15single_threadedEE14slot_duplicateEPKN
 2283              		.align 2
 2284              		.weak	_ZN7sigslot13_signal_base2IP10GuiElementbNS_15single_threadedEE14slot_duplicateEPKNS_9has_sl
 2285              		.type	_ZN7sigslot13_signal_base2IP10GuiElementbNS_15single_threadedEE14slot_duplicateEPKNS_9has_sl
 2286              	_ZN7sigslot13_signal_base2IP10GuiElementbNS_15single_threadedEE14slot_duplicateEPKNS_9has_slotsIS3_
 2287              	.LFB1933:
 2288              		.loc 1 806 0
 2289              		.cfi_startproc
 2290              		.cfi_personality 0,__gxx_personality_v0
 2291              		.cfi_lsda 0,.LLSDA1933
 2292              	.LVL179:
 2293 0000 7C0802A6 		mflr 0
 2294 0004 9421FFE0 		stwu 1,-32(1)
 2295              	.LCFI39:
 2296              		.cfi_def_cfa_offset 32
 2297              		.cfi_register 65, 0
 2298 0008 93410008 		stw 26,8(1)
 2299 000c 7CBA2B78 		mr 26,5
 2300              		.cfi_offset 26, -24
 2301 0010 90010024 		stw 0,36(1)
 2302 0014 9361000C 		stw 27,12(1)
 2303 0018 7C7B1B78 		mr 27,3
 2304              		.cfi_offset 27, -20
 2305              		.cfi_offset 65, 4
 2306              	.LVL180:
 2307              	.LBB2530:
 2308              	.LBB2531:
 2309              	.LBB2532:
 2310              		.loc 1 338 0
 2311 001c 81230000 		lwz 9,0(3)
 2312              	.LBE2532:
 2313              	.LBE2531:
 2314              	.LBE2530:
 2315              		.loc 1 806 0
 2316 0020 93A10014 		stw 29,20(1)
 2317 0024 7C9D2378 		mr 29,4
 2318              		.cfi_offset 29, -12
 2319              	.LBB2561:
 2320              	.LBB2537:
 2321              	.LBB2533:
 2322              		.loc 1 338 0
 2323 0028 80090008 		lwz 0,8(9)
 2324              	.LBE2533:
 2325              	.LBE2537:
 2326              	.LBE2561:
 2327              		.loc 1 806 0
 2328 002c 93C10018 		stw 30,24(1)
 2329              	.LBB2562:
 2330              	.LBB2538:
 2331              	.LBB2534:
 2332              		.loc 4 200 0
 2333 0030 7F7EDB78 		mr 30,27
 2334              		.cfi_offset 30, -8
 2335              	.LBE2534:
 2336              	.LBE2538:
 2337              	.LBE2562:
 2338              		.loc 1 806 0
 2339 0034 93E1001C 		stw 31,28(1)
 2340              	.LBB2563:
 2341              	.LBB2539:
 2342              	.LBB2535:
 2343              		.loc 1 338 0
 2344 0038 7C0903A6 		mtctr 0
 2345              	.LBE2535:
 2346              	.LBE2539:
 2347              	.LBE2563:
 2348              		.loc 1 806 0
 2349 003c 93810010 		stw 28,16(1)
 2350              	.LEHB8:
 2351              	.LBB2564:
 2352              	.LBB2540:
 2353              	.LBB2536:
 2354              		.loc 1 338 0
 2355              		.cfi_offset 28, -16
 2356              		.cfi_offset 31, -4
 2357 0040 4E800421 		bctrl
 2358              	.LEHE8:
 2359              	.LVL181:
 2360              		.loc 4 200 0
 2361 0044 87FE0004 		lwzu 31,4(30)
 2362              	.LVL182:
 2363              	.LBE2536:
 2364              	.LBE2540:
 2365              		.loc 1 812 0
 2366 0048 7F9FF000 		cmpw 7,31,30
 2367 004c 40BE0014 		bne+ 7,.L135
 2368 0050 48000070 		b .L126
 2369              	.LVL183:
 2370              	.L127:
 2371              	.LBB2541:
 2372              	.LBB2542:
 2373              		.loc 7 154 0
 2374 0054 83FF0000 		lwz 31,0(31)
 2375              	.LVL184:
 2376              	.LBE2542:
 2377              	.LBE2541:
 2378              		.loc 1 812 0
 2379 0058 7F9EF800 		cmpw 7,30,31
 2380 005c 419E0064 		beq- 7,.L126
 2381              	.LVL185:
 2382              	.L135:
 2383              		.loc 1 814 0
 2384 0060 807F0008 		lwz 3,8(31)
 2385 0064 81230000 		lwz 9,0(3)
 2386 0068 80090008 		lwz 0,8(9)
 2387 006c 7C0903A6 		mtctr 0
 2388              	.LEHB9:
 2389 0070 4E800421 		bctrl
 2390 0074 7F9D1800 		cmpw 7,29,3
 2391 0078 409EFFDC 		bne+ 7,.L127
 2392              	.LVL186:
 2393              		.loc 1 816 0
 2394 007c 807F0008 		lwz 3,8(31)
 2395 0080 7F44D378 		mr 4,26
 2396 0084 81230000 		lwz 9,0(3)
 2397 0088 80090014 		lwz 0,20(9)
 2398 008c 7C0903A6 		mtctr 0
 2399 0090 4E800421 		bctrl
 2400 0094 7C7C1B78 		mr 28,3
 2401              	.LVL187:
 2402              	.LBB2544:
 2403              	.LBB2545:
 2404              	.LBB2546:
 2405              	.LBB2547:
 2406              	.LBB2548:
 2407              	.LBB2549:
 2408              	.LBB2550:
 2409              	.LBB2551:
 2410              		.loc 8 92 0
 2411 0098 3860000C 		li 3,12
 2412 009c 48000001 		bl _Znwj
 2413              	.LEHE9:
 2414              	.LVL188:
 2415              	.LBE2551:
 2416              	.LBE2550:
 2417              	.LBE2549:
 2418              	.LBB2552:
 2419              	.LBB2553:
 2420              		.loc 8 108 0 discriminator 1
 2421 00a0 2F83FFF8 		cmpwi 7,3,-8
 2422 00a4 419E0008 		beq- 7,.L129
 2423              		.loc 8 108 0 is_stmt 0
 2424 00a8 93830008 		stw 28,8(3)
 2425              	.L129:
 2426              	.LVL189:
 2427              	.LBE2553:
 2428              	.LBE2552:
 2429              	.LBE2548:
 2430              	.LBE2547:
 2431              		.loc 7 1516 0 is_stmt 1
 2432 00ac 7FC4F378 		mr 4,30
 2433 00b0 48000001 		bl _ZNSt8__detail15_List_node_base7_M_hookEPS0_
 2434              	.LVL190:
 2435              	.LBE2546:
 2436              	.LBE2545:
 2437              	.LBE2544:
 2438              	.LBB2554:
 2439              	.LBB2543:
 2440              		.loc 7 154 0
 2441 00b4 83FF0000 		lwz 31,0(31)
 2442              	.LVL191:
 2443              	.LBE2543:
 2444              	.LBE2554:
 2445              		.loc 1 812 0
 2446 00b8 7F9EF800 		cmpw 7,30,31
 2447 00bc 409EFFA4 		bne+ 7,.L135
 2448              	.LVL192:
 2449              	.L126:
 2450              	.LBB2555:
 2451              	.LBB2556:
 2452              	.LBB2557:
 2453              		.loc 1 343 0
 2454 00c0 813B0000 		lwz 9,0(27)
 2455 00c4 7F63DB78 		mr 3,27
 2456 00c8 8009000C 		lwz 0,12(9)
 2457 00cc 7C0903A6 		mtctr 0
 2458              	.LEHB10:
 2459 00d0 4E800421 		bctrl
 2460              	.LEHE10:
 2461              	.LBE2557:
 2462              	.LBE2556:
 2463              	.LBE2555:
 2464              	.LBE2564:
 2465              		.loc 1 821 0
 2466 00d4 80010024 		lwz 0,36(1)
 2467 00d8 83410008 		lwz 26,8(1)
 2468              	.LVL193:
 2469 00dc 7C0803A6 		mtlr 0
 2470 00e0 8361000C 		lwz 27,12(1)
 2471              	.LVL194:
 2472 00e4 83810010 		lwz 28,16(1)
 2473 00e8 83A10014 		lwz 29,20(1)
 2474              	.LVL195:
 2475 00ec 83C10018 		lwz 30,24(1)
 2476              	.LVL196:
 2477 00f0 83E1001C 		lwz 31,28(1)
 2478              	.LVL197:
 2479 00f4 38210020 		addi 1,1,32
 2480              		.cfi_remember_state
 2481              	.LCFI40:
 2482              		.cfi_def_cfa_offset 0
 2483              		.cfi_restore 31
 2484              		.cfi_restore 30
 2485              		.cfi_restore 29
 2486              		.cfi_restore 28
 2487              		.cfi_restore 27
 2488              		.cfi_restore 26
 2489 00f8 4E800020 		blr
 2490              	.LVL198:
 2491              	.L134:
 2492              	.LCFI41:
 2493              		.cfi_restore_state
 2494              	.LBB2565:
 2495              	.LBB2558:
 2496              	.LBB2559:
 2497              	.LBB2560:
 2498              		.loc 1 343 0
 2499 00fc 813B0000 		lwz 9,0(27)
 2500 0100 7C7F1B78 		mr 31,3
 2501              	.LVL199:
 2502 0104 7F63DB78 		mr 3,27
 2503 0108 8009000C 		lwz 0,12(9)
 2504 010c 7C0903A6 		mtctr 0
 2505 0110 4E800421 		bctrl
 2506 0114 7FE3FB78 		mr 3,31
 2507              	.LEHB11:
 2508 0118 48000001 		bl _Unwind_Resume
 2509              	.LEHE11:
 2510              	.LBE2560:
 2511              	.LBE2559:
 2512              	.LBE2558:
 2513              	.LBE2565:
 2514              		.cfi_endproc
 2515              	.LFE1933:
 2516              		.section	.gcc_except_table
 2517              	.LLSDA1933:
 2518 002e FF       		.byte	0xff
 2519 002f FF       		.byte	0xff
 2520 0030 01       		.byte	0x1
 2521 0031 13       		.uleb128 .LLSDACSE1933-.LLSDACSB1933
 2522              	.LLSDACSB1933:
 2523 0032 40       		.uleb128 .LEHB8-.LFB1933
 2524 0033 04       		.uleb128 .LEHE8-.LEHB8
 2525 0034 00       		.uleb128 0
 2526 0035 00       		.uleb128 0
 2527 0036 70       		.uleb128 .LEHB9-.LFB1933
 2528 0037 30       		.uleb128 .LEHE9-.LEHB9
 2529 0038 FC01     		.uleb128 .L134-.LFB1933
 2530 003a 00       		.uleb128 0
 2531 003b D001     		.uleb128 .LEHB10-.LFB1933
 2532 003d 04       		.uleb128 .LEHE10-.LEHB10
 2533 003e 00       		.uleb128 0
 2534 003f 00       		.uleb128 0
 2535 0040 9802     		.uleb128 .LEHB11-.LFB1933
 2536 0042 04       		.uleb128 .LEHE11-.LEHB11
 2537 0043 00       		.uleb128 0
 2538 0044 00       		.uleb128 0
 2539              	.LLSDACSE1933:
 2540              		.section	.text._ZN7sigslot13_signal_base2IP10GuiElementbNS_15single_threadedEE14slot_duplicateEPKN
 2541              		.size	_ZN7sigslot13_signal_base2IP10GuiElementbNS_15single_threadedEE14slot_duplicateEPKNS_9has_sl
 2542              		.section	.text._ZN7sigslot12_signal_baseINS_15single_threadedEED0Ev,"axG",@progbits,_ZN7sigslot12_
 2543              		.align 2
 2544              		.weak	_ZN7sigslot12_signal_baseINS_15single_threadedEED0Ev
 2545              		.type	_ZN7sigslot12_signal_baseINS_15single_threadedEED0Ev, @function
 2546              	_ZN7sigslot12_signal_baseINS_15single_threadedEED0Ev:
 2547              	.LFB1561:
 2548              		.loc 1 466 0
 2549              		.cfi_startproc
 2550              	.LVL200:
 2551 0000 7C0802A6 		mflr 0
 2552 0004 9421FFF8 		stwu 1,-8(1)
 2553              	.LCFI42:
 2554              		.cfi_def_cfa_offset 8
 2555              		.cfi_register 65, 0
 2556              	.LBB2566:
 2557              	.LBB2567:
 2558              	.LBB2568:
 2559              	.LBB2569:
 2560              	.LBB2570:
 2561              	.LBB2571:
 2562              		.loc 1 105 0
 2563 0008 3D200000 		lis 9,_ZTVN7sigslot15single_threadedE+8@ha
 2564              	.LBE2571:
 2565              	.LBE2570:
 2566              	.LBE2569:
 2567              	.LBE2568:
 2568              	.LBE2567:
 2569              	.LBE2566:
 2570              		.loc 1 466 0
 2571 000c 9001000C 		stw 0,12(1)
 2572              	.LBB2577:
 2573              	.LBB2576:
 2574              	.LBB2575:
 2575              	.LBB2574:
 2576              	.LBB2573:
 2577              	.LBB2572:
 2578              		.loc 1 105 0
 2579 0010 38090008 		la 0,_ZTVN7sigslot15single_threadedE+8@l(9)
 2580              		.cfi_offset 65, 4
 2581 0014 90030000 		stw 0,0(3)
 2582              	.LBE2572:
 2583              	.LBE2573:
 2584              	.LBE2574:
 2585              	.LBE2575:
 2586              	.LBE2576:
 2587              	.LBE2577:
 2588              		.loc 1 466 0
 2589 0018 48000001 		bl _ZdlPv
 2590              	.LVL201:
 2591 001c 8001000C 		lwz 0,12(1)
 2592 0020 38210008 		addi 1,1,8
 2593              	.LCFI43:
 2594              		.cfi_def_cfa_offset 0
 2595 0024 7C0803A6 		mtlr 0
 2596 0028 4E800020 		blr
 2597              		.cfi_endproc
 2598              	.LFE1561:
 2599              		.size	_ZN7sigslot12_signal_baseINS_15single_threadedEED0Ev, .-_ZN7sigslot12_signal_baseINS_15singl
 2600              		.section	.text._ZN7sigslot15single_threadedD0Ev,"axG",@progbits,_ZN7sigslot15single_threadedD5Ev,c
 2601              		.align 2
 2602              		.weak	_ZN7sigslot15single_threadedD0Ev
 2603              		.type	_ZN7sigslot15single_threadedD0Ev, @function
 2604              	_ZN7sigslot15single_threadedD0Ev:
 2605              	.LFB1150:
 2606              		.loc 1 104 0
 2607              		.cfi_startproc
 2608              	.LVL202:
 2609 0000 7C0802A6 		mflr 0
 2610 0004 9421FFF8 		stwu 1,-8(1)
 2611              	.LCFI44:
 2612              		.cfi_def_cfa_offset 8
 2613              		.cfi_register 65, 0
 2614              	.LBB2578:
 2615              	.LBB2579:
 2616              	.LBB2580:
 2617              		.loc 1 105 0
 2618 0008 3D200000 		lis 9,_ZTVN7sigslot15single_threadedE+8@ha
 2619              	.LBE2580:
 2620              	.LBE2579:
 2621              	.LBE2578:
 2622              		.loc 1 104 0
 2623 000c 9001000C 		stw 0,12(1)
 2624              	.LBB2583:
 2625              	.LBB2582:
 2626              	.LBB2581:
 2627              		.loc 1 105 0
 2628 0010 38090008 		la 0,_ZTVN7sigslot15single_threadedE+8@l(9)
 2629              		.cfi_offset 65, 4
 2630 0014 90030000 		stw 0,0(3)
 2631              	.LBE2581:
 2632              	.LBE2582:
 2633              	.LBE2583:
 2634              		.loc 1 107 0
 2635 0018 48000001 		bl _ZdlPv
 2636              	.LVL203:
 2637 001c 8001000C 		lwz 0,12(1)
 2638 0020 38210008 		addi 1,1,8
 2639              	.LCFI45:
 2640              		.cfi_def_cfa_offset 0
 2641 0024 7C0803A6 		mtlr 0
 2642 0028 4E800020 		blr
 2643              		.cfi_endproc
 2644              	.LFE1150:
 2645              		.size	_ZN7sigslot15single_threadedD0Ev, .-_ZN7sigslot15single_threadedD0Ev
 2646              		.section	.text._ZN7sigslot13_signal_base1IP8GuiFrameNS_15single_threadedEE15slot_disconnectEPNS_9h
 2647              		.align 2
 2648              		.weak	_ZN7sigslot13_signal_base1IP8GuiFrameNS_15single_threadedEE15slot_disconnectEPNS_9has_slotsI
 2649              		.type	_ZN7sigslot13_signal_base1IP8GuiFrameNS_15single_threadedEE15slot_disconnectEPNS_9has_slotsI
 2650              	_ZN7sigslot13_signal_base1IP8GuiFrameNS_15single_threadedEE15slot_disconnectEPNS_9has_slotsIS3_EE:
 2651              	.LFB1928:
 2652              		.loc 1 749 0
 2653              		.cfi_startproc
 2654              		.cfi_personality 0,__gxx_personality_v0
 2655              		.cfi_lsda 0,.LLSDA1928
 2656              	.LVL204:
 2657 0000 7C0802A6 		mflr 0
 2658 0004 9421FFE0 		stwu 1,-32(1)
 2659              	.LCFI46:
 2660              		.cfi_def_cfa_offset 32
 2661              		.cfi_register 65, 0
 2662 0008 9361000C 		stw 27,12(1)
 2663 000c 7C7B1B78 		mr 27,3
 2664              		.cfi_offset 27, -20
 2665              	.LVL205:
 2666 0010 90010024 		stw 0,36(1)
 2667 0014 93810010 		stw 28,16(1)
 2668 0018 7C9C2378 		mr 28,4
 2669              		.cfi_offset 28, -16
 2670              		.cfi_offset 65, 4
 2671              	.LBB2584:
 2672              	.LBB2585:
 2673              	.LBB2586:
 2674              		.loc 1 338 0
 2675 001c 81230000 		lwz 9,0(3)
 2676              	.LBE2586:
 2677              	.LBE2585:
 2678              	.LBE2584:
 2679              		.loc 1 749 0
 2680 0020 93A10014 		stw 29,20(1)
 2681              	.LBB2607:
 2682              	.LBB2589:
 2683              	.LBB2587:
 2684              		.loc 4 200 0
 2685 0024 7F7DDB78 		mr 29,27
 2686              		.cfi_offset 29, -12
 2687              		.loc 1 338 0
 2688 0028 80090008 		lwz 0,8(9)
 2689              	.LBE2587:
 2690              	.LBE2589:
 2691              	.LBE2607:
 2692              		.loc 1 749 0
 2693 002c 93E1001C 		stw 31,28(1)
 2694 0030 93C10018 		stw 30,24(1)
 2695              	.LBB2608:
 2696              	.LBB2590:
 2697              	.LBB2588:
 2698              		.loc 1 338 0
 2699 0034 7C0903A6 		mtctr 0
 2700              	.LEHB12:
 2701              		.cfi_offset 30, -8
 2702              		.cfi_offset 31, -4
 2703 0038 4E800421 		bctrl
 2704              	.LEHE12:
 2705              	.LVL206:
 2706              		.loc 4 200 0
 2707 003c 87FD0004 		lwzu 31,4(29)
 2708              	.LVL207:
 2709              	.LBE2588:
 2710              	.LBE2590:
 2711              		.loc 1 755 0
 2712 0040 7F9FE800 		cmpw 7,31,29
 2713 0044 40BE0014 		bne+ 7,.L156
 2714 0048 48000064 		b .L145
 2715              	.LVL208:
 2716              	.L146:
 2717              		.loc 1 755 0 is_stmt 0 discriminator 1
 2718 004c 7F9DF000 		cmpw 7,29,30
 2719 0050 419E005C 		beq- 7,.L145
 2720              	.L154:
 2721              		.loc 1 755 0
 2722 0054 7FDFF378 		mr 31,30
 2723              	.LVL209:
 2724              	.L156:
 2725              	.LBB2591:
 2726              		.loc 1 760 0 is_stmt 1
 2727 0058 807F0008 		lwz 3,8(31)
 2728              	.LBB2592:
 2729              	.LBB2593:
 2730              		.loc 7 154 0
 2731 005c 83DF0000 		lwz 30,0(31)
 2732              	.LVL210:
 2733              	.LBE2593:
 2734              	.LBE2592:
 2735              		.loc 1 760 0
 2736 0060 81230000 		lwz 9,0(3)
 2737 0064 80090008 		lwz 0,8(9)
 2738 0068 7C0903A6 		mtctr 0
 2739              	.LEHB13:
 2740 006c 4E800421 		bctrl
 2741              	.LVL211:
 2742 0070 7F9C1800 		cmpw 7,28,3
 2743 0074 409EFFD8 		bne+ 7,.L146
 2744              	.LVL212:
 2745              		.loc 1 762 0
 2746 0078 807F0008 		lwz 3,8(31)
 2747 007c 2F830000 		cmpwi 7,3,0
 2748 0080 419E0014 		beq- 7,.L147
 2749              		.loc 1 762 0 is_stmt 0 discriminator 1
 2750 0084 81230000 		lwz 9,0(3)
 2751 0088 80090004 		lwz 0,4(9)
 2752 008c 7C0903A6 		mtctr 0
 2753 0090 4E800421 		bctrl
 2754              	.LEHE13:
 2755              	.L147:
 2756              	.LVL213:
 2757              	.LBB2594:
 2758              	.LBB2595:
 2759              	.LBB2596:
 2760              	.LBB2597:
 2761              		.loc 7 1532 0 is_stmt 1
 2762 0094 7FE3FB78 		mr 3,31
 2763 0098 48000001 		bl _ZNSt8__detail15_List_node_base9_M_unhookEv
 2764              	.LVL214:
 2765              	.LBB2598:
 2766              	.LBB2599:
 2767              	.LBB2600:
 2768              		.loc 8 98 0
 2769 009c 7FE3FB78 		mr 3,31
 2770 00a0 48000001 		bl _ZdlPv
 2771              	.LVL215:
 2772              	.LBE2600:
 2773              	.LBE2599:
 2774              	.LBE2598:
 2775              	.LBE2597:
 2776              	.LBE2596:
 2777              	.LBE2595:
 2778              	.LBE2594:
 2779              	.LBE2591:
 2780              		.loc 1 755 0
 2781 00a4 7F9DF000 		cmpw 7,29,30
 2782 00a8 409EFFAC 		bne+ 7,.L154
 2783              	.LVL216:
 2784              	.L145:
 2785              	.LBB2601:
 2786              	.LBB2602:
 2787              	.LBB2603:
 2788              		.loc 1 343 0
 2789 00ac 813B0000 		lwz 9,0(27)
 2790 00b0 7F63DB78 		mr 3,27
 2791 00b4 8009000C 		lwz 0,12(9)
 2792 00b8 7C0903A6 		mtctr 0
 2793              	.LEHB14:
 2794 00bc 4E800421 		bctrl
 2795              	.LEHE14:
 2796              	.LBE2603:
 2797              	.LBE2602:
 2798              	.LBE2601:
 2799              	.LBE2608:
 2800              		.loc 1 769 0
 2801 00c0 80010024 		lwz 0,36(1)
 2802 00c4 8361000C 		lwz 27,12(1)
 2803              	.LVL217:
 2804 00c8 7C0803A6 		mtlr 0
 2805 00cc 83810010 		lwz 28,16(1)
 2806              	.LVL218:
 2807 00d0 83A10014 		lwz 29,20(1)
 2808              	.LVL219:
 2809 00d4 83C10018 		lwz 30,24(1)
 2810 00d8 83E1001C 		lwz 31,28(1)
 2811 00dc 38210020 		addi 1,1,32
 2812              		.cfi_remember_state
 2813              	.LCFI47:
 2814              		.cfi_def_cfa_offset 0
 2815              		.cfi_restore 31
 2816              		.cfi_restore 30
 2817              		.cfi_restore 29
 2818              		.cfi_restore 28
 2819              		.cfi_restore 27
 2820 00e0 4E800020 		blr
 2821              	.LVL220:
 2822              	.L155:
 2823              	.LCFI48:
 2824              		.cfi_restore_state
 2825              	.LBB2609:
 2826              	.LBB2604:
 2827              	.LBB2605:
 2828              	.LBB2606:
 2829              		.loc 1 343 0
 2830 00e4 813B0000 		lwz 9,0(27)
 2831 00e8 7C7F1B78 		mr 31,3
 2832              	.LVL221:
 2833 00ec 7F63DB78 		mr 3,27
 2834 00f0 8009000C 		lwz 0,12(9)
 2835 00f4 7C0903A6 		mtctr 0
 2836 00f8 4E800421 		bctrl
 2837 00fc 7FE3FB78 		mr 3,31
 2838              	.LEHB15:
 2839 0100 48000001 		bl _Unwind_Resume
 2840              	.LEHE15:
 2841              	.LBE2606:
 2842              	.LBE2605:
 2843              	.LBE2604:
 2844              	.LBE2609:
 2845              		.cfi_endproc
 2846              	.LFE1928:
 2847              		.section	.gcc_except_table
 2848              	.LLSDA1928:
 2849 0045 FF       		.byte	0xff
 2850 0046 FF       		.byte	0xff
 2851 0047 01       		.byte	0x1
 2852 0048 13       		.uleb128 .LLSDACSE1928-.LLSDACSB1928
 2853              	.LLSDACSB1928:
 2854 0049 38       		.uleb128 .LEHB12-.LFB1928
 2855 004a 04       		.uleb128 .LEHE12-.LEHB12
 2856 004b 00       		.uleb128 0
 2857 004c 00       		.uleb128 0
 2858 004d 6C       		.uleb128 .LEHB13-.LFB1928
 2859 004e 28       		.uleb128 .LEHE13-.LEHB13
 2860 004f E401     		.uleb128 .L155-.LFB1928
 2861 0051 00       		.uleb128 0
 2862 0052 BC01     		.uleb128 .LEHB14-.LFB1928
 2863 0054 04       		.uleb128 .LEHE14-.LEHB14
 2864 0055 00       		.uleb128 0
 2865 0056 00       		.uleb128 0
 2866 0057 8002     		.uleb128 .LEHB15-.LFB1928
 2867 0059 04       		.uleb128 .LEHE15-.LEHB15
 2868 005a 00       		.uleb128 0
 2869 005b 00       		.uleb128 0
 2870              	.LLSDACSE1928:
 2871              		.section	.text._ZN7sigslot13_signal_base1IP8GuiFrameNS_15single_threadedEE15slot_disconnectEPNS_9h
 2872              		.size	_ZN7sigslot13_signal_base1IP8GuiFrameNS_15single_threadedEE15slot_disconnectEPNS_9has_slotsI
 2873              		.section	.text._ZN7sigslot13_signal_base3IP10GuiElementiiNS_15single_threadedEE15slot_disconnectEP
 2874              		.align 2
 2875              		.weak	_ZN7sigslot13_signal_base3IP10GuiElementiiNS_15single_threadedEE15slot_disconnectEPNS_9has_s
 2876              		.type	_ZN7sigslot13_signal_base3IP10GuiElementiiNS_15single_threadedEE15slot_disconnectEPNS_9has_s
 2877              	_ZN7sigslot13_signal_base3IP10GuiElementiiNS_15single_threadedEE15slot_disconnectEPNS_9has_slotsIS3
 2878              	.LFB1930:
 2879              		.loc 1 990 0
 2880              		.cfi_startproc
 2881              		.cfi_personality 0,__gxx_personality_v0
 2882              		.cfi_lsda 0,.LLSDA1930
 2883              	.LVL222:
 2884 0000 7C0802A6 		mflr 0
 2885 0004 9421FFE0 		stwu 1,-32(1)
 2886              	.LCFI49:
 2887              		.cfi_def_cfa_offset 32
 2888              		.cfi_register 65, 0
 2889 0008 9361000C 		stw 27,12(1)
 2890 000c 7C7B1B78 		mr 27,3
 2891              		.cfi_offset 27, -20
 2892              	.LVL223:
 2893 0010 90010024 		stw 0,36(1)
 2894 0014 93810010 		stw 28,16(1)
 2895 0018 7C9C2378 		mr 28,4
 2896              		.cfi_offset 28, -16
 2897              		.cfi_offset 65, 4
 2898              	.LBB2610:
 2899              	.LBB2611:
 2900              	.LBB2612:
 2901              		.loc 1 338 0
 2902 001c 81230000 		lwz 9,0(3)
 2903              	.LBE2612:
 2904              	.LBE2611:
 2905              	.LBE2610:
 2906              		.loc 1 990 0
 2907 0020 93A10014 		stw 29,20(1)
 2908              	.LBB2633:
 2909              	.LBB2615:
 2910              	.LBB2613:
 2911              		.loc 4 200 0
 2912 0024 7F7DDB78 		mr 29,27
 2913              		.cfi_offset 29, -12
 2914              		.loc 1 338 0
 2915 0028 80090008 		lwz 0,8(9)
 2916              	.LBE2613:
 2917              	.LBE2615:
 2918              	.LBE2633:
 2919              		.loc 1 990 0
 2920 002c 93E1001C 		stw 31,28(1)
 2921 0030 93C10018 		stw 30,24(1)
 2922              	.LBB2634:
 2923              	.LBB2616:
 2924              	.LBB2614:
 2925              		.loc 1 338 0
 2926 0034 7C0903A6 		mtctr 0
 2927              	.LEHB16:
 2928              		.cfi_offset 30, -8
 2929              		.cfi_offset 31, -4
 2930 0038 4E800421 		bctrl
 2931              	.LEHE16:
 2932              	.LVL224:
 2933              		.loc 4 200 0
 2934 003c 87FD0004 		lwzu 31,4(29)
 2935              	.LVL225:
 2936              	.LBE2614:
 2937              	.LBE2616:
 2938              		.loc 1 996 0
 2939 0040 7F9FE800 		cmpw 7,31,29
 2940 0044 40BE0014 		bne+ 7,.L169
 2941 0048 48000064 		b .L158
 2942              	.LVL226:
 2943              	.L159:
 2944              		.loc 1 996 0 is_stmt 0 discriminator 1
 2945 004c 7F9DF000 		cmpw 7,29,30
 2946 0050 419E005C 		beq- 7,.L158
 2947              	.L167:
 2948              		.loc 1 996 0
 2949 0054 7FDFF378 		mr 31,30
 2950              	.LVL227:
 2951              	.L169:
 2952              	.LBB2617:
 2953              		.loc 1 1001 0 is_stmt 1
 2954 0058 807F0008 		lwz 3,8(31)
 2955              	.LBB2618:
 2956              	.LBB2619:
 2957              		.loc 7 154 0
 2958 005c 83DF0000 		lwz 30,0(31)
 2959              	.LVL228:
 2960              	.LBE2619:
 2961              	.LBE2618:
 2962              		.loc 1 1001 0
 2963 0060 81230000 		lwz 9,0(3)
 2964 0064 80090008 		lwz 0,8(9)
 2965 0068 7C0903A6 		mtctr 0
 2966              	.LEHB17:
 2967 006c 4E800421 		bctrl
 2968              	.LVL229:
 2969 0070 7F9C1800 		cmpw 7,28,3
 2970 0074 409EFFD8 		bne+ 7,.L159
 2971              	.LVL230:
 2972              		.loc 1 1003 0
 2973 0078 807F0008 		lwz 3,8(31)
 2974 007c 2F830000 		cmpwi 7,3,0
 2975 0080 419E0014 		beq- 7,.L160
 2976              		.loc 1 1003 0 is_stmt 0 discriminator 1
 2977 0084 81230000 		lwz 9,0(3)
 2978 0088 80090004 		lwz 0,4(9)
 2979 008c 7C0903A6 		mtctr 0
 2980 0090 4E800421 		bctrl
 2981              	.LEHE17:
 2982              	.L160:
 2983              	.LVL231:
 2984              	.LBB2620:
 2985              	.LBB2621:
 2986              	.LBB2622:
 2987              	.LBB2623:
 2988              		.loc 7 1532 0 is_stmt 1
 2989 0094 7FE3FB78 		mr 3,31
 2990 0098 48000001 		bl _ZNSt8__detail15_List_node_base9_M_unhookEv
 2991              	.LVL232:
 2992              	.LBB2624:
 2993              	.LBB2625:
 2994              	.LBB2626:
 2995              		.loc 8 98 0
 2996 009c 7FE3FB78 		mr 3,31
 2997 00a0 48000001 		bl _ZdlPv
 2998              	.LVL233:
 2999              	.LBE2626:
 3000              	.LBE2625:
 3001              	.LBE2624:
 3002              	.LBE2623:
 3003              	.LBE2622:
 3004              	.LBE2621:
 3005              	.LBE2620:
 3006              	.LBE2617:
 3007              		.loc 1 996 0
 3008 00a4 7F9DF000 		cmpw 7,29,30
 3009 00a8 409EFFAC 		bne+ 7,.L167
 3010              	.LVL234:
 3011              	.L158:
 3012              	.LBB2627:
 3013              	.LBB2628:
 3014              	.LBB2629:
 3015              		.loc 1 343 0
 3016 00ac 813B0000 		lwz 9,0(27)
 3017 00b0 7F63DB78 		mr 3,27
 3018 00b4 8009000C 		lwz 0,12(9)
 3019 00b8 7C0903A6 		mtctr 0
 3020              	.LEHB18:
 3021 00bc 4E800421 		bctrl
 3022              	.LEHE18:
 3023              	.LBE2629:
 3024              	.LBE2628:
 3025              	.LBE2627:
 3026              	.LBE2634:
 3027              		.loc 1 1010 0
 3028 00c0 80010024 		lwz 0,36(1)
 3029 00c4 8361000C 		lwz 27,12(1)
 3030              	.LVL235:
 3031 00c8 7C0803A6 		mtlr 0
 3032 00cc 83810010 		lwz 28,16(1)
 3033              	.LVL236:
 3034 00d0 83A10014 		lwz 29,20(1)
 3035              	.LVL237:
 3036 00d4 83C10018 		lwz 30,24(1)
 3037 00d8 83E1001C 		lwz 31,28(1)
 3038 00dc 38210020 		addi 1,1,32
 3039              		.cfi_remember_state
 3040              	.LCFI50:
 3041              		.cfi_def_cfa_offset 0
 3042              		.cfi_restore 31
 3043              		.cfi_restore 30
 3044              		.cfi_restore 29
 3045              		.cfi_restore 28
 3046              		.cfi_restore 27
 3047 00e0 4E800020 		blr
 3048              	.LVL238:
 3049              	.L168:
 3050              	.LCFI51:
 3051              		.cfi_restore_state
 3052              	.LBB2635:
 3053              	.LBB2630:
 3054              	.LBB2631:
 3055              	.LBB2632:
 3056              		.loc 1 343 0
 3057 00e4 813B0000 		lwz 9,0(27)
 3058 00e8 7C7F1B78 		mr 31,3
 3059              	.LVL239:
 3060 00ec 7F63DB78 		mr 3,27
 3061 00f0 8009000C 		lwz 0,12(9)
 3062 00f4 7C0903A6 		mtctr 0
 3063 00f8 4E800421 		bctrl
 3064 00fc 7FE3FB78 		mr 3,31
 3065              	.LEHB19:
 3066 0100 48000001 		bl _Unwind_Resume
 3067              	.LEHE19:
 3068              	.LBE2632:
 3069              	.LBE2631:
 3070              	.LBE2630:
 3071              	.LBE2635:
 3072              		.cfi_endproc
 3073              	.LFE1930:
 3074              		.section	.gcc_except_table
 3075              	.LLSDA1930:
 3076 005c FF       		.byte	0xff
 3077 005d FF       		.byte	0xff
 3078 005e 01       		.byte	0x1
 3079 005f 13       		.uleb128 .LLSDACSE1930-.LLSDACSB1930
 3080              	.LLSDACSB1930:
 3081 0060 38       		.uleb128 .LEHB16-.LFB1930
 3082 0061 04       		.uleb128 .LEHE16-.LEHB16
 3083 0062 00       		.uleb128 0
 3084 0063 00       		.uleb128 0
 3085 0064 6C       		.uleb128 .LEHB17-.LFB1930
 3086 0065 28       		.uleb128 .LEHE17-.LEHB17
 3087 0066 E401     		.uleb128 .L168-.LFB1930
 3088 0068 00       		.uleb128 0
 3089 0069 BC01     		.uleb128 .LEHB18-.LFB1930
 3090 006b 04       		.uleb128 .LEHE18-.LEHB18
 3091 006c 00       		.uleb128 0
 3092 006d 00       		.uleb128 0
 3093 006e 8002     		.uleb128 .LEHB19-.LFB1930
 3094 0070 04       		.uleb128 .LEHE19-.LEHB19
 3095 0071 00       		.uleb128 0
 3096 0072 00       		.uleb128 0
 3097              	.LLSDACSE1930:
 3098              		.section	.text._ZN7sigslot13_signal_base3IP10GuiElementiiNS_15single_threadedEE15slot_disconnectEP
 3099              		.size	_ZN7sigslot13_signal_base3IP10GuiElementiiNS_15single_threadedEE15slot_disconnectEPNS_9has_s
 3100              		.section	.text._ZN7sigslot13_signal_base2IP10GuiElementbNS_15single_threadedEE15slot_disconnectEPN
 3101              		.align 2
 3102              		.weak	_ZN7sigslot13_signal_base2IP10GuiElementbNS_15single_threadedEE15slot_disconnectEPNS_9has_sl
 3103              		.type	_ZN7sigslot13_signal_base2IP10GuiElementbNS_15single_threadedEE15slot_disconnectEPNS_9has_sl
 3104              	_ZN7sigslot13_signal_base2IP10GuiElementbNS_15single_threadedEE15slot_disconnectEPNS_9has_slotsIS3_
 3105              	.LFB1932:
 3106              		.loc 1 870 0
 3107              		.cfi_startproc
 3108              		.cfi_personality 0,__gxx_personality_v0
 3109              		.cfi_lsda 0,.LLSDA1932
 3110              	.LVL240:
 3111 0000 7C0802A6 		mflr 0
 3112 0004 9421FFE0 		stwu 1,-32(1)
 3113              	.LCFI52:
 3114              		.cfi_def_cfa_offset 32
 3115              		.cfi_register 65, 0
 3116 0008 9361000C 		stw 27,12(1)
 3117 000c 7C7B1B78 		mr 27,3
 3118              		.cfi_offset 27, -20
 3119              	.LVL241:
 3120 0010 90010024 		stw 0,36(1)
 3121 0014 93810010 		stw 28,16(1)
 3122 0018 7C9C2378 		mr 28,4
 3123              		.cfi_offset 28, -16
 3124              		.cfi_offset 65, 4
 3125              	.LBB2636:
 3126              	.LBB2637:
 3127              	.LBB2638:
 3128              		.loc 1 338 0
 3129 001c 81230000 		lwz 9,0(3)
 3130              	.LBE2638:
 3131              	.LBE2637:
 3132              	.LBE2636:
 3133              		.loc 1 870 0
 3134 0020 93A10014 		stw 29,20(1)
 3135              	.LBB2659:
 3136              	.LBB2641:
 3137              	.LBB2639:
 3138              		.loc 4 200 0
 3139 0024 7F7DDB78 		mr 29,27
 3140              		.cfi_offset 29, -12
 3141              		.loc 1 338 0
 3142 0028 80090008 		lwz 0,8(9)
 3143              	.LBE2639:
 3144              	.LBE2641:
 3145              	.LBE2659:
 3146              		.loc 1 870 0
 3147 002c 93E1001C 		stw 31,28(1)
 3148 0030 93C10018 		stw 30,24(1)
 3149              	.LBB2660:
 3150              	.LBB2642:
 3151              	.LBB2640:
 3152              		.loc 1 338 0
 3153 0034 7C0903A6 		mtctr 0
 3154              	.LEHB20:
 3155              		.cfi_offset 30, -8
 3156              		.cfi_offset 31, -4
 3157 0038 4E800421 		bctrl
 3158              	.LEHE20:
 3159              	.LVL242:
 3160              		.loc 4 200 0
 3161 003c 87FD0004 		lwzu 31,4(29)
 3162              	.LVL243:
 3163              	.LBE2640:
 3164              	.LBE2642:
 3165              		.loc 1 876 0
 3166 0040 7F9FE800 		cmpw 7,31,29
 3167 0044 40BE0014 		bne+ 7,.L182
 3168 0048 48000064 		b .L171
 3169              	.LVL244:
 3170              	.L172:
 3171              		.loc 1 876 0 is_stmt 0 discriminator 1
 3172 004c 7F9DF000 		cmpw 7,29,30
 3173 0050 419E005C 		beq- 7,.L171
 3174              	.L180:
 3175              		.loc 1 876 0
 3176 0054 7FDFF378 		mr 31,30
 3177              	.LVL245:
 3178              	.L182:
 3179              	.LBB2643:
 3180              		.loc 1 881 0 is_stmt 1
 3181 0058 807F0008 		lwz 3,8(31)
 3182              	.LBB2644:
 3183              	.LBB2645:
 3184              		.loc 7 154 0
 3185 005c 83DF0000 		lwz 30,0(31)
 3186              	.LVL246:
 3187              	.LBE2645:
 3188              	.LBE2644:
 3189              		.loc 1 881 0
 3190 0060 81230000 		lwz 9,0(3)
 3191 0064 80090008 		lwz 0,8(9)
 3192 0068 7C0903A6 		mtctr 0
 3193              	.LEHB21:
 3194 006c 4E800421 		bctrl
 3195              	.LVL247:
 3196 0070 7F9C1800 		cmpw 7,28,3
 3197 0074 409EFFD8 		bne+ 7,.L172
 3198              	.LVL248:
 3199              		.loc 1 883 0
 3200 0078 807F0008 		lwz 3,8(31)
 3201 007c 2F830000 		cmpwi 7,3,0
 3202 0080 419E0014 		beq- 7,.L173
 3203              		.loc 1 883 0 is_stmt 0 discriminator 1
 3204 0084 81230000 		lwz 9,0(3)
 3205 0088 80090004 		lwz 0,4(9)
 3206 008c 7C0903A6 		mtctr 0
 3207 0090 4E800421 		bctrl
 3208              	.LEHE21:
 3209              	.L173:
 3210              	.LVL249:
 3211              	.LBB2646:
 3212              	.LBB2647:
 3213              	.LBB2648:
 3214              	.LBB2649:
 3215              		.loc 7 1532 0 is_stmt 1
 3216 0094 7FE3FB78 		mr 3,31
 3217 0098 48000001 		bl _ZNSt8__detail15_List_node_base9_M_unhookEv
 3218              	.LVL250:
 3219              	.LBB2650:
 3220              	.LBB2651:
 3221              	.LBB2652:
 3222              		.loc 8 98 0
 3223 009c 7FE3FB78 		mr 3,31
 3224 00a0 48000001 		bl _ZdlPv
 3225              	.LVL251:
 3226              	.LBE2652:
 3227              	.LBE2651:
 3228              	.LBE2650:
 3229              	.LBE2649:
 3230              	.LBE2648:
 3231              	.LBE2647:
 3232              	.LBE2646:
 3233              	.LBE2643:
 3234              		.loc 1 876 0
 3235 00a4 7F9DF000 		cmpw 7,29,30
 3236 00a8 409EFFAC 		bne+ 7,.L180
 3237              	.LVL252:
 3238              	.L171:
 3239              	.LBB2653:
 3240              	.LBB2654:
 3241              	.LBB2655:
 3242              		.loc 1 343 0
 3243 00ac 813B0000 		lwz 9,0(27)
 3244 00b0 7F63DB78 		mr 3,27
 3245 00b4 8009000C 		lwz 0,12(9)
 3246 00b8 7C0903A6 		mtctr 0
 3247              	.LEHB22:
 3248 00bc 4E800421 		bctrl
 3249              	.LEHE22:
 3250              	.LBE2655:
 3251              	.LBE2654:
 3252              	.LBE2653:
 3253              	.LBE2660:
 3254              		.loc 1 890 0
 3255 00c0 80010024 		lwz 0,36(1)
 3256 00c4 8361000C 		lwz 27,12(1)
 3257              	.LVL253:
 3258 00c8 7C0803A6 		mtlr 0
 3259 00cc 83810010 		lwz 28,16(1)
 3260              	.LVL254:
 3261 00d0 83A10014 		lwz 29,20(1)
 3262              	.LVL255:
 3263 00d4 83C10018 		lwz 30,24(1)
 3264 00d8 83E1001C 		lwz 31,28(1)
 3265 00dc 38210020 		addi 1,1,32
 3266              		.cfi_remember_state
 3267              	.LCFI53:
 3268              		.cfi_def_cfa_offset 0
 3269              		.cfi_restore 31
 3270              		.cfi_restore 30
 3271              		.cfi_restore 29
 3272              		.cfi_restore 28
 3273              		.cfi_restore 27
 3274 00e0 4E800020 		blr
 3275              	.LVL256:
 3276              	.L181:
 3277              	.LCFI54:
 3278              		.cfi_restore_state
 3279              	.LBB2661:
 3280              	.LBB2656:
 3281              	.LBB2657:
 3282              	.LBB2658:
 3283              		.loc 1 343 0
 3284 00e4 813B0000 		lwz 9,0(27)
 3285 00e8 7C7F1B78 		mr 31,3
 3286              	.LVL257:
 3287 00ec 7F63DB78 		mr 3,27
 3288 00f0 8009000C 		lwz 0,12(9)
 3289 00f4 7C0903A6 		mtctr 0
 3290 00f8 4E800421 		bctrl
 3291 00fc 7FE3FB78 		mr 3,31
 3292              	.LEHB23:
 3293 0100 48000001 		bl _Unwind_Resume
 3294              	.LEHE23:
 3295              	.LBE2658:
 3296              	.LBE2657:
 3297              	.LBE2656:
 3298              	.LBE2661:
 3299              		.cfi_endproc
 3300              	.LFE1932:
 3301              		.section	.gcc_except_table
 3302              	.LLSDA1932:
 3303 0073 FF       		.byte	0xff
 3304 0074 FF       		.byte	0xff
 3305 0075 01       		.byte	0x1
 3306 0076 13       		.uleb128 .LLSDACSE1932-.LLSDACSB1932
 3307              	.LLSDACSB1932:
 3308 0077 38       		.uleb128 .LEHB20-.LFB1932
 3309 0078 04       		.uleb128 .LEHE20-.LEHB20
 3310 0079 00       		.uleb128 0
 3311 007a 00       		.uleb128 0
 3312 007b 6C       		.uleb128 .LEHB21-.LFB1932
 3313 007c 28       		.uleb128 .LEHE21-.LEHB21
 3314 007d E401     		.uleb128 .L181-.LFB1932
 3315 007f 00       		.uleb128 0
 3316 0080 BC01     		.uleb128 .LEHB22-.LFB1932
 3317 0082 04       		.uleb128 .LEHE22-.LEHB22
 3318 0083 00       		.uleb128 0
 3319 0084 00       		.uleb128 0
 3320 0085 8002     		.uleb128 .LEHB23-.LFB1932
 3321 0087 04       		.uleb128 .LEHE23-.LEHB23
 3322 0088 00       		.uleb128 0
 3323 0089 00       		.uleb128 0
 3324              	.LLSDACSE1932:
 3325              		.section	.text._ZN7sigslot13_signal_base2IP10GuiElementbNS_15single_threadedEE15slot_disconnectEPN
 3326              		.size	_ZN7sigslot13_signal_base2IP10GuiElementbNS_15single_threadedEE15slot_disconnectEPNS_9has_sl
 3327              		.section	".text"
 3328              		.align 2
 3329              		.globl _ZN8GuiFrame5CloseEv
 3330              		.type	_ZN8GuiFrame5CloseEv, @function
 3331              	_ZN8GuiFrame5CloseEv:
 3332              	.LFB1493:
 3333              		.loc 4 89 0
 3334              		.cfi_startproc
 3335              		.cfi_personality 0,__gxx_personality_v0
 3336              		.cfi_lsda 0,.LLSDA1493
 3337              	.LVL258:
 3338 0370 9421FFE8 		stwu 1,-24(1)
 3339              	.LCFI55:
 3340              		.cfi_def_cfa_offset 24
 3341 0374 7C0802A6 		mflr 0
 3342 0378 93C10010 		stw 30,16(1)
 3343              	.LBB2662:
 3344              	.LBB2663:
 3345              		.file 9 "d:/Projects/SaveGameManager/savegame-manager-gx/trunk/source/GUI/../Controls/Application.
 3346              		.loc 9 27 0
 3347 037c 3FC00000 		lis 30,_ZN11Application8instanceE@ha
 3348              		.cfi_offset 30, -8
 3349              		.cfi_register 65, 0
 3350              	.LBE2663:
 3351              	.LBE2662:
 3352              		.loc 4 89 0
 3353 0380 93E10014 		stw 31,20(1)
 3354              	.LBB2670:
 3355              	.LBB2664:
 3356              		.loc 9 27 0
 3357 0384 83FE0000 		lwz 31,_ZN11Application8instanceE@l(30)
 3358              		.cfi_offset 31, -4
 3359              	.LBE2664:
 3360              	.LBE2670:
 3361              		.loc 4 89 0
 3362 0388 93A1000C 		stw 29,12(1)
 3363 038c 7C7D1B78 		mr 29,3
 3364              		.cfi_offset 29, -12
 3365              	.LBB2671:
 3366              	.LBB2665:
 3367              		.loc 9 27 0
 3368 0390 2F9F0000 		cmpwi 7,31,0
 3369              	.LBE2665:
 3370              	.LBE2671:
 3371              		.loc 4 89 0
 3372 0394 9001001C 		stw 0,28(1)
 3373              	.LBB2672:
 3374              	.LBB2666:
 3375              		.loc 9 27 0
 3376 0398 419E002C 		beq- 7,.L187
 3377              		.cfi_offset 65, 4
 3378              	.LBE2666:
 3379              	.LBE2672:
 3380              		.loc 4 90 0
 3381 039c 7FE3FB78 		mr 3,31
 3382              	.LVL259:
 3383 03a0 7FA4EB78 		mr 4,29
 3384              	.LEHB24:
 3385 03a4 48000001 		bl _ZN11Application13PushForDeleteEP10GuiElement
 3386              		.loc 4 91 0
 3387 03a8 8001001C 		lwz 0,28(1)
 3388 03ac 83A1000C 		lwz 29,12(1)
 3389              	.LVL260:
 3390 03b0 7C0803A6 		mtlr 0
 3391 03b4 83C10010 		lwz 30,16(1)
 3392 03b8 83E10014 		lwz 31,20(1)
 3393 03bc 38210018 		addi 1,1,24
 3394              		.cfi_remember_state
 3395              	.LCFI56:
 3396              		.cfi_def_cfa_offset 0
 3397              		.cfi_restore 31
 3398              		.cfi_restore 30
 3399              		.cfi_restore 29
 3400 03c0 4E800020 		blr
 3401              	.LVL261:
 3402              	.L187:
 3403              	.LCFI57:
 3404              		.cfi_restore_state
 3405              	.LBB2673:
 3406              	.LBB2667:
 3407              		.loc 9 27 0
 3408 03c4 38600278 		li 3,632
 3409              	.LVL262:
 3410 03c8 48000001 		bl _Znwj
 3411              	.LEHE24:
 3412 03cc 7C7F1B78 		mr 31,3
 3413              	.LEHB25:
 3414 03d0 48000001 		bl _ZN11ApplicationC1Ev
 3415              	.LEHE25:
 3416              	.LBE2667:
 3417              	.LBE2673:
 3418              		.loc 4 90 0
 3419 03d4 7FE3FB78 		mr 3,31
 3420 03d8 7FA4EB78 		mr 4,29
 3421              	.LBB2674:
 3422              	.LBB2668:
 3423              		.loc 9 27 0
 3424 03dc 93FE0000 		stw 31,_ZN11Application8instanceE@l(30)
 3425              	.LEHB26:
 3426              	.LBE2668:
 3427              	.LBE2674:
 3428              		.loc 4 90 0
 3429 03e0 48000001 		bl _ZN11Application13PushForDeleteEP10GuiElement
 3430              		.loc 4 91 0
 3431 03e4 8001001C 		lwz 0,28(1)
 3432 03e8 83A1000C 		lwz 29,12(1)
 3433              	.LVL263:
 3434 03ec 7C0803A6 		mtlr 0
 3435 03f0 83C10010 		lwz 30,16(1)
 3436 03f4 83E10014 		lwz 31,20(1)
 3437 03f8 38210018 		addi 1,1,24
 3438              		.cfi_remember_state
 3439              		.cfi_restore 29
 3440              		.cfi_restore 30
 3441              		.cfi_restore 31
 3442              	.LCFI58:
 3443              		.cfi_def_cfa_offset 0
 3444 03fc 4E800020 		blr
 3445              	.LVL264:
 3446              	.L186:
 3447              	.LCFI59:
 3448              		.cfi_restore_state
 3449 0400 7C7E1B78 		mr 30,3
 3450              	.LBB2675:
 3451              	.LBB2669:
 3452              		.loc 9 27 0
 3453 0404 7FE3FB78 		mr 3,31
 3454 0408 48000001 		bl _ZdlPv
 3455 040c 7FC3F378 		mr 3,30
 3456 0410 48000001 		bl _Unwind_Resume
 3457              	.LEHE26:
 3458              	.LBE2669:
 3459              	.LBE2675:
 3460              		.cfi_endproc
 3461              	.LFE1493:
 3462              		.section	.gcc_except_table
 3463              	.LLSDA1493:
 3464 008a FF       		.byte	0xff
 3465 008b FF       		.byte	0xff
 3466 008c 01       		.byte	0x1
 3467 008d 0D       		.uleb128 .LLSDACSE1493-.LLSDACSB1493
 3468              	.LLSDACSB1493:
 3469 008e 34       		.uleb128 .LEHB24-.LFB1493
 3470 008f 28       		.uleb128 .LEHE24-.LEHB24
 3471 0090 00       		.uleb128 0
 3472 0091 00       		.uleb128 0
 3473 0092 60       		.uleb128 .LEHB25-.LFB1493
 3474 0093 04       		.uleb128 .LEHE25-.LEHB25
 3475 0094 9001     		.uleb128 .L186-.LFB1493
 3476 0096 00       		.uleb128 0
 3477 0097 70       		.uleb128 .LEHB26-.LFB1493
 3478 0098 34       		.uleb128 .LEHE26-.LEHB26
 3479 0099 00       		.uleb128 0
 3480 009a 00       		.uleb128 0
 3481              	.LLSDACSE1493:
 3482              		.section	".text"
 3483              		.size	_ZN8GuiFrame5CloseEv, .-_ZN8GuiFrame5CloseEv
 3484              		.align 2
 3485              		.globl _ZN8GuiFrame4DrawEv
 3486              		.type	_ZN8GuiFrame4DrawEv, @function
 3487              	_ZN8GuiFrame4DrawEv:
 3488              	.LFB1502:
 3489              		.loc 4 167 0
 3490              		.cfi_startproc
 3491              	.LVL265:
 3492 0414 7C0802A6 		mflr 0
 3493 0418 9421FFC0 		stwu 1,-64(1)
 3494              	.LCFI60:
 3495              		.cfi_def_cfa_offset 64
 3496              		.cfi_register 65, 0
 3497 041c 93E1003C 		stw 31,60(1)
 3498 0420 7C7F1B78 		mr 31,3
 3499              		.cfi_offset 31, -4
 3500 0424 90010044 		stw 0,68(1)
 3501 0428 93A10034 		stw 29,52(1)
 3502              	.LBB2689:
 3503              		.loc 4 168 0
 3504 042c 81230000 		lwz 9,0(3)
 3505              	.LBE2689:
 3506              		.loc 4 167 0
 3507 0430 93C10038 		stw 30,56(1)
 3508              	.LBB2690:
 3509              		.loc 4 168 0
 3510 0434 80090034 		lwz 0,52(9)
 3511              		.cfi_offset 30, -8
 3512              		.cfi_offset 29, -12
 3513              		.cfi_offset 65, 4
 3514 0438 7C0903A6 		mtctr 0
 3515 043c 4E800421 		bctrl
 3516              	.LVL266:
 3517 0440 801F0060 		lwz 0,96(31)
 3518 0444 2F830000 		cmpwi 7,3,0
 3519 0448 409E0028 		bne- 7,.L189
 3520              		.loc 4 168 0 is_stmt 0 discriminator 1
 3521 044c 2F800000 		cmpwi 7,0,0
 3522 0450 419E00E0 		beq- 7,.L191
 3523              	.LBE2690:
 3524              		.loc 4 186 0 is_stmt 1
 3525 0454 80010044 		lwz 0,68(1)
 3526 0458 83A10034 		lwz 29,52(1)
 3527 045c 7C0803A6 		mtlr 0
 3528 0460 83C10038 		lwz 30,56(1)
 3529 0464 83E1003C 		lwz 31,60(1)
 3530              	.LVL267:
 3531 0468 38210040 		addi 1,1,64
 3532              		.cfi_remember_state
 3533              	.LCFI61:
 3534              		.cfi_def_cfa_offset 0
 3535              		.cfi_restore 31
 3536              		.cfi_restore 30
 3537              		.cfi_restore 29
 3538 046c 4E800020 		blr
 3539              	.LVL268:
 3540              	.L189:
 3541              	.LCFI62:
 3542              		.cfi_restore_state
 3543              	.LBB2691:
 3544              	.LBB2692:
 3545              	.LBB2693:
 3546              		.loc 4 171 0
 3547 0470 2F800000 		cmpwi 7,0,0
 3548 0474 419E00BC 		beq- 7,.L191
 3549 0478 881F009D 		lbz 0,157(31)
 3550 047c 2F800000 		cmpwi 7,0,0
 3551 0480 41BE00B0 		beq+ 7,.L191
 3552              	.LBB2694:
 3553              		.loc 4 173 0
 3554 0484 38000000 		li 0,0
 3555              		.loc 4 174 0
 3556 0488 813F0000 		lwz 9,0(31)
 3557              		.loc 4 173 0
 3558 048c 98010008 		stb 0,8(1)
 3559              		.loc 4 174 0
 3560 0490 7FE3FB78 		mr 3,31
 3561              		.loc 4 173 0
 3562 0494 98010009 		stb 0,9(1)
 3563 0498 9801000A 		stb 0,10(1)
 3564 049c 38000070 		li 0,112
 3565 04a0 9801000B 		stb 0,11(1)
 3566              		.loc 4 174 0
 3567 04a4 80090018 		lwz 0,24(9)
 3568 04a8 7C0903A6 		mtctr 0
 3569 04ac 4E800421 		bctrl
 3570 04b0 3D200000 		lis 9,screenwidth@ha
 3571 04b4 81690000 		lwz 11,screenwidth@l(9)
 3572 04b8 3D200000 		lis 9,screenheight@ha
 3573 04bc 81290000 		lwz 9,screenheight@l(9)
 3574 04c0 3C004330 		lis 0,0x4330
 3575 04c4 6C638000 		xoris 3,3,0x8000
 3576 04c8 6D6B8000 		xoris 11,11,0x8000
 3577 04cc 6D298000 		xoris 9,9,0x8000
 3578 04d0 9061001C 		stw 3,28(1)
 3579 04d4 9121002C 		stw 9,44(1)
 3580 04d8 3D200000 		lis 9,.LC1@ha
 3581 04dc 90010018 		stw 0,24(1)
 3582 04e0 38610008 		addi 3,1,8
 3583 04e4 91610024 		stw 11,36(1)
 3584 04e8 38800000 		li 4,0
 3585 04ec 90010020 		stw 0,32(1)
 3586 04f0 38A00001 		li 5,1
 3587 04f4 90010028 		stw 0,40(1)
 3588 04f8 C0090000 		lfs 0,.LC1@l(9)
 3589 04fc 3D200000 		lis 9,.LC4@ha
 3590 0500 C8610018 		lfd 3,24(1)
 3591 0504 C8810020 		lfd 4,32(1)
 3592 0508 C8A10028 		lfd 5,40(1)
 3593 050c FC630028 		fsub 3,3,0
 3594 0510 FC840028 		fsub 4,4,0
 3595 0514 C029000C 		lfs 1,.LC4@l(9)
 3596 0518 FCA50028 		fsub 5,5,0
 3597 051c FC400890 		fmr 2,1
 3598 0520 FC601818 		frsp 3,3
 3599 0524 FC802018 		frsp 4,4
 3600 0528 FCA02818 		frsp 5,5
 3601 052c 48000001 		bl _Z18Menu_DrawRectanglefffffP9_gx_colorbb
 3602              	.LVL269:
 3603              	.L191:
 3604              	.LBE2694:
 3605              	.LBE2693:
 3606              	.LBE2692:
 3607              		.loc 4 200 0
 3608 0530 813F00A4 		lwz 9,164(31)
 3609              	.LBB2702:
 3610              	.LBB2695:
 3611              		.loc 4 180 0
 3612 0534 3BC00000 		li 30,0
 3613              	.LBE2695:
 3614              	.LBB2698:
 3615              	.LBB2699:
 3616              		.loc 5 571 0
 3617 0538 83BF00A8 		lwz 29,168(31)
 3618 053c 7FA9E850 		subf 29,9,29
 3619              	.LBE2699:
 3620              	.LBE2698:
 3621              	.LBB2700:
 3622              		.loc 4 180 0
 3623 0540 7FBD1671 		srawi. 29,29,2
 3624 0544 41820040 		beq- 0,.L193
 3625              	.LVL270:
 3626              	.L197:
 3627              		.loc 4 182 0
 3628 0548 57C0103A 		slwi 0,30,2
 3629              		.loc 4 180 0
 3630 054c 3BDE0001 		addi 30,30,1
 3631              	.LVL271:
 3632              		.loc 4 182 0
 3633 0550 7C69002E 		lwzx 3,9,0
 3634 0554 81230000 		lwz 9,0(3)
 3635 0558 800900C0 		lwz 0,192(9)
 3636 055c 7C0903A6 		mtctr 0
 3637 0560 4E800421 		bctrl
 3638              	.LVL272:
 3639              		.loc 4 180 0
 3640 0564 7F9DF000 		cmpw 7,29,30
 3641 0568 419E001C 		beq- 7,.L193
 3642              	.LBE2700:
 3643              	.LBE2702:
 3644              		.loc 4 200 0
 3645 056c 813F00A4 		lwz 9,164(31)
 3646              	.LBB2703:
 3647              	.LBB2701:
 3648              	.LBB2696:
 3649              	.LBB2697:
 3650              		.loc 5 571 0
 3651 0570 801F00A8 		lwz 0,168(31)
 3652 0574 7C090050 		subf 0,9,0
 3653 0578 7C001670 		srawi 0,0,2
 3654              	.LBE2697:
 3655              	.LBE2696:
 3656              		.loc 4 180 0
 3657 057c 7F9E0040 		cmplw 7,30,0
 3658 0580 41BCFFC8 		blt- 7,.L197
 3659              	.LVL273:
 3660              	.L193:
 3661              	.LBE2701:
 3662              		.loc 4 185 0
 3663 0584 813F0000 		lwz 9,0(31)
 3664 0588 7FE3FB78 		mr 3,31
 3665 058c 800900C4 		lwz 0,196(9)
 3666 0590 7C0903A6 		mtctr 0
 3667 0594 4E800421 		bctrl
 3668              	.LBE2703:
 3669              	.LBE2691:
 3670              		.loc 4 186 0
 3671 0598 80010044 		lwz 0,68(1)
 3672 059c 83A10034 		lwz 29,52(1)
 3673 05a0 7C0803A6 		mtlr 0
 3674 05a4 83C10038 		lwz 30,56(1)
 3675 05a8 83E1003C 		lwz 31,60(1)
 3676              	.LVL274:
 3677 05ac 38210040 		addi 1,1,64
 3678              		.cfi_restore 29
 3679              		.cfi_restore 30
 3680              		.cfi_restore 31
 3681              	.LCFI63:
 3682              		.cfi_def_cfa_offset 0
 3683 05b0 4E800020 		blr
 3684              		.cfi_endproc
 3685              	.LFE1502:
 3686              		.size	_ZN8GuiFrame4DrawEv, .-_ZN8GuiFrame4DrawEv
 3687              		.align 2
 3688              		.globl _ZN8GuiFrame6RemoveEP10GuiElement
 3689              		.type	_ZN8GuiFrame6RemoveEP10GuiElement, @function
 3690              	_ZN8GuiFrame6RemoveEP10GuiElement:
 3691              	.LFB1491:
 3692              		.loc 4 69 0
 3693              		.cfi_startproc
 3694              	.LVL275:
 3695              	.LBB2729:
 3696              		.loc 4 70 0
 3697 05b4 2C040000 		cmpwi 0,4,0
 3698              	.LBE2729:
 3699              		.loc 4 69 0
 3700 05b8 7C0802A6 		mflr 0
 3701 05bc 9421FFF0 		stwu 1,-16(1)
 3702              	.LCFI64:
 3703              		.cfi_def_cfa_offset 16
 3704              		.cfi_register 65, 0
 3705 05c0 93E1000C 		stw 31,12(1)
 3706 05c4 7C7F1B78 		mr 31,3
 3707              		.cfi_offset 31, -4
 3708 05c8 90010014 		stw 0,20(1)
 3709              	.LBB2749:
 3710              		.loc 4 70 0
 3711 05cc 41820048 		beq- 0,.L198
 3712              		.cfi_offset 65, 4
 3713              	.LVL276:
 3714              		.loc 4 200 0 discriminator 1
 3715 05d0 806300A4 		lwz 3,164(3)
 3716              	.LVL277:
 3717 05d4 817F00A8 		lwz 11,168(31)
 3718              	.LBB2730:
 3719              	.LBB2731:
 3720              	.LBB2732:
 3721              		.loc 5 571 0 discriminator 1
 3722 05d8 7C035850 		subf 0,3,11
 3723              	.LBE2732:
 3724              	.LBE2731:
 3725              		.loc 4 73 0 discriminator 1
 3726 05dc 7C001671 		srawi. 0,0,2
 3727 05e0 41820034 		beq- 0,.L198
 3728              	.LVL278:
 3729              		.loc 4 75 0
 3730 05e4 81230000 		lwz 9,0(3)
 3731 05e8 7F844800 		cmpw 7,4,9
 3732 05ec 419E003C 		beq- 7,.L200
 3733              	.LBB2733:
 3734              	.LBB2734:
 3735              		.file 10 "d:\\devkitpro\\devkitppc\\bin\\../lib/gcc/powerpc-eabi/4.6.3/../../../../powerpc-eabi/in
 3736              		.loc 10 140 0
 3737 05f0 7C691B78 		mr 9,3
 3738              	.LBE2734:
 3739              	.LBE2733:
 3740              		.loc 4 75 0
 3741 05f4 7C0903A6 		mtctr 0
 3742 05f8 48000014 		b .L202
 3743              	.LVL279:
 3744              	.L204:
 3745 05fc 80090000 		lwz 0,0(9)
 3746              		.loc 4 68 0
 3747 0600 7D234B78 		mr 3,9
 3748              		.loc 4 75 0
 3749 0604 7F840000 		cmpw 7,4,0
 3750 0608 419E0020 		beq- 7,.L200
 3751              	.L202:
 3752              		.loc 4 68 0
 3753 060c 39290004 		addi 9,9,4
 3754              		.loc 4 73 0
 3755 0610 4200FFEC 		bdnz .L204
 3756              	.L198:
 3757              	.LBE2730:
 3758              	.LBE2749:
 3759              		.loc 4 81 0
 3760 0614 80010014 		lwz 0,20(1)
 3761 0618 83E1000C 		lwz 31,12(1)
 3762              	.LVL280:
 3763 061c 7C0803A6 		mtlr 0
 3764 0620 38210010 		addi 1,1,16
 3765              		.cfi_remember_state
 3766              	.LCFI65:
 3767              		.cfi_def_cfa_offset 0
 3768              		.cfi_restore 31
 3769 0624 4E800020 		blr
 3770              	.LVL281:
 3771              	.L200:
 3772              	.LCFI66:
 3773              		.cfi_restore_state
 3774              	.LBB2750:
 3775              	.LBB2747:
 3776              	.LBB2745:
 3777              	.LBB2743:
 3778              	.LBB2735:
 3779              	.LBB2736:
 3780              		.file 11 "d:\\devkitpro\\devkitppc\\bin\\../lib/gcc/powerpc-eabi/4.6.3/../../../../powerpc-eabi/in
 3781              		.loc 11 773 0
 3782 0628 38830004 		addi 4,3,4
 3783              	.LVL282:
 3784              	.LBE2736:
 3785              	.LBE2735:
 3786              		.loc 10 138 0
 3787 062c 7F845800 		cmpw 7,4,11
 3788 0630 419E001C 		beq- 7,.L203
 3789              	.LVL283:
 3790              	.LBB2737:
 3791              	.LBB2738:
 3792              	.LBB2739:
 3793              	.LBB2740:
 3794              	.LBB2741:
 3795              	.LBB2742:
 3796              		.file 12 "d:\\devkitpro\\devkitppc\\bin\\../lib/gcc/powerpc-eabi/4.6.3/../../../../powerpc-eabi/in
 3797              		.loc 12 364 0
 3798 0634 7CA45850 		subf 5,4,11
 3799              	.LVL284:
 3800              		.loc 12 365 0
 3801 0638 7CA51671 		srawi. 5,5,2
 3802              	.LVL285:
 3803 063c 41A20010 		beq+ 0,.L203
 3804              		.loc 12 366 0
 3805 0640 54A5103A 		slwi 5,5,2
 3806              	.LVL286:
 3807 0644 48000001 		bl memmove
 3808              	.LVL287:
 3809 0648 817F00A8 		lwz 11,168(31)
 3810              	.LVL288:
 3811              	.L203:
 3812              	.LBE2742:
 3813              	.LBE2741:
 3814              	.LBE2740:
 3815              	.LBE2739:
 3816              	.LBE2738:
 3817              	.LBE2737:
 3818              	.LBE2743:
 3819              	.LBE2745:
 3820              	.LBE2747:
 3821              	.LBE2750:
 3822              		.loc 4 81 0
 3823 064c 80010014 		lwz 0,20(1)
 3824              	.LBB2751:
 3825              	.LBB2748:
 3826              	.LBB2746:
 3827              	.LBB2744:
 3828              		.loc 10 140 0
 3829 0650 396BFFFC 		addi 11,11,-4
 3830 0654 917F00A8 		stw 11,168(31)
 3831              	.LBE2744:
 3832              	.LBE2746:
 3833              	.LBE2748:
 3834              	.LBE2751:
 3835              		.loc 4 81 0
 3836 0658 7C0803A6 		mtlr 0
 3837 065c 83E1000C 		lwz 31,12(1)
 3838              	.LVL289:
 3839 0660 38210010 		addi 1,1,16
 3840              		.cfi_restore 31
 3841              	.LCFI67:
 3842              		.cfi_def_cfa_offset 0
 3843 0664 4E800020 		blr
 3844              		.cfi_endproc
 3845              	.LFE1491:
 3846              		.size	_ZN8GuiFrame6RemoveEP10GuiElement, .-_ZN8GuiFrame6RemoveEP10GuiElement
 3847              		.align 2
 3848              		.globl _ZN8GuiFrame9RemoveAllEv
 3849              		.type	_ZN8GuiFrame9RemoveAllEv, @function
 3850              	_ZN8GuiFrame9RemoveAllEv:
 3851              	.LFB1492:
 3852              		.loc 4 84 0
 3853              		.cfi_startproc
 3854              	.LVL290:
 3855              	.LBB2752:
 3856              	.LBB2753:
 3857              	.LBB2754:
 3858              	.LBB2755:
 3859              		.loc 5 1256 0
 3860 0668 800300A4 		lwz 0,164(3)
 3861              	.LBE2755:
 3862              	.LBE2754:
 3863              	.LBE2753:
 3864              	.LBE2752:
 3865              		.loc 4 86 0
 3866              	.LBB2759:
 3867              	.LBB2758:
 3868              	.LBB2757:
 3869              	.LBB2756:
 3870              		.loc 5 1256 0
 3871 066c 900300A8 		stw 0,168(3)
 3872              	.LBE2756:
 3873              	.LBE2757:
 3874              	.LBE2758:
 3875              	.LBE2759:
 3876              		.loc 4 86 0
 3877 0670 4E800020 		blr
 3878              		.cfi_endproc
 3879              	.LFE1492:
 3880              		.size	_ZN8GuiFrame9RemoveAllEv, .-_ZN8GuiFrame9RemoveAllEv
 3881              		.align 2
 3882              		.globl _ZN8GuiFrame13DimBackgroundEb
 3883              		.type	_ZN8GuiFrame13DimBackgroundEb, @function
 3884              	_ZN8GuiFrame13DimBackgroundEb:
 3885              	.LFB1494:
 3886              		.loc 4 94 0
 3887              		.cfi_startproc
 3888              	.LVL291:
 3889              		.loc 4 95 0
 3890 0674 9883009D 		stb 4,157(3)
 3891              		.loc 4 96 0
 3892 0678 4E800020 		blr
 3893              		.cfi_endproc
 3894              	.LFE1494:
 3895              		.size	_ZN8GuiFrame13DimBackgroundEb, .-_ZN8GuiFrame13DimBackgroundEb
 3896              		.align 2
 3897              		.globl _ZNK8GuiFrame15GetGuiElementAtEj
 3898              		.type	_ZNK8GuiFrame15GetGuiElementAtEj, @function
 3899              	_ZNK8GuiFrame15GetGuiElementAtEj:
 3900              	.LFB1495:
 3901              		.loc 4 99 0
 3902              		.cfi_startproc
 3903              	.LVL292:
 3904              		.loc 4 200 0
 3905 067c 812300A4 		lwz 9,164(3)
 3906              	.LBB2760:
 3907              	.LBB2761:
 3908              		.loc 5 571 0
 3909 0680 800300A8 		lwz 0,168(3)
 3910              	.LBE2761:
 3911              	.LBE2760:
 3912              		.loc 4 101 0
 3913 0684 38600000 		li 3,0
 3914              	.LVL293:
 3915              	.LBB2763:
 3916              	.LBB2762:
 3917              		.loc 5 571 0
 3918 0688 7C090050 		subf 0,9,0
 3919 068c 7C001670 		srawi 0,0,2
 3920              	.LBE2762:
 3921              	.LBE2763:
 3922              		.loc 4 100 0
 3923 0690 7F840040 		cmplw 7,4,0
 3924 0694 4C9C0020 		bgelr- 7
 3925              	.LVL294:
 3926              		.loc 4 102 0
 3927 0698 5484103A 		slwi 4,4,2
 3928              	.LVL295:
 3929 069c 7C69202E 		lwzx 3,9,4
 3930              		.loc 4 103 0
 3931 06a0 4E800020 		blr
 3932              		.cfi_endproc
 3933              	.LFE1495:
 3934              		.size	_ZNK8GuiFrame15GetGuiElementAtEj, .-_ZNK8GuiFrame15GetGuiElementAtEj
 3935              		.align 2
 3936              		.globl _ZN8GuiFrame7GetSizeEv
 3937              		.type	_ZN8GuiFrame7GetSizeEv, @function
 3938              	_ZN8GuiFrame7GetSizeEv:
 3939              	.LFB1496:
 3940              		.loc 4 106 0
 3941              		.cfi_startproc
 3942              	.LVL296:
 3943              	.LBB2764:
 3944              	.LBB2765:
 3945              		.loc 5 571 0
 3946 06a4 812300A8 		lwz 9,168(3)
 3947 06a8 800300A4 		lwz 0,164(3)
 3948              	.LBE2765:
 3949              	.LBE2764:
 3950              		.loc 4 108 0
 3951              	.LBB2767:
 3952              	.LBB2766:
 3953              		.loc 5 571 0
 3954 06ac 7C604850 		subf 3,0,9
 3955              	.LVL297:
 3956              	.LBE2766:
 3957              	.LBE2767:
 3958              		.loc 4 108 0
 3959 06b0 7C631670 		srawi 3,3,2
 3960 06b4 4E800020 		blr
 3961              		.cfi_endproc
 3962              	.LFE1496:
 3963              		.size	_ZN8GuiFrame7GetSizeEv, .-_ZN8GuiFrame7GetSizeEv
 3964              		.align 2
 3965              		.globl _ZN8GuiFrame8SetStateEi
 3966              		.type	_ZN8GuiFrame8SetStateEi, @function
 3967              	_ZN8GuiFrame8SetStateEi:
 3968              	.LFB1498:
 3969              		.loc 4 122 0
 3970              		.cfi_startproc
 3971              	.LVL298:
 3972 06b8 7C0802A6 		mflr 0
 3973 06bc 9421FFE8 		stwu 1,-24(1)
 3974              	.LCFI68:
 3975              		.cfi_def_cfa_offset 24
 3976              		.cfi_register 65, 0
 3977 06c0 93C10010 		stw 30,16(1)
 3978 06c4 7C7E1B78 		mr 30,3
 3979              		.cfi_offset 30, -8
 3980 06c8 9001001C 		stw 0,28(1)
 3981 06cc 93A1000C 		stw 29,12(1)
 3982 06d0 7C9D2378 		mr 29,4
 3983              		.cfi_offset 29, -12
 3984              		.cfi_offset 65, 4
 3985              	.LBB2768:
 3986              		.loc 4 200 0
 3987 06d4 812300A4 		lwz 9,164(3)
 3988              	.LBB2769:
 3989              	.LBB2770:
 3990              	.LBB2771:
 3991              		.loc 5 571 0
 3992 06d8 800300A8 		lwz 0,168(3)
 3993              	.LBE2771:
 3994              	.LBE2770:
 3995              	.LBE2769:
 3996              	.LBE2768:
 3997              		.loc 4 122 0
 3998 06dc 93E10014 		stw 31,20(1)
 3999              	.LBB2778:
 4000              	.LBB2776:
 4001              	.LBB2774:
 4002              	.LBB2772:
 4003              		.loc 5 571 0
 4004 06e0 7C090050 		subf 0,9,0
 4005              	.LBE2772:
 4006              	.LBE2774:
 4007              	.LBE2776:
 4008              		.loc 4 123 0
 4009 06e4 909E0048 		stw 4,72(30)
 4010              	.LVL299:
 4011              	.LBB2777:
 4012              		.loc 4 125 0
 4013 06e8 540BF0BF 		srwi. 11,0,2
 4014 06ec 41820044 		beq- 0,.L213
 4015              		.cfi_offset 31, -4
 4016 06f0 3BE00000 		li 31,0
 4017              	.LVL300:
 4018              	.L215:
 4019              		.loc 4 127 0 discriminator 2
 4020 06f4 57E0103A 		slwi 0,31,2
 4021 06f8 7FA4EB78 		mr 4,29
 4022 06fc 7C69002E 		lwzx 3,9,0
 4023 0700 38A0FFFF 		li 5,-1
 4024              		.loc 4 125 0 discriminator 2
 4025 0704 3BFF0001 		addi 31,31,1
 4026              	.LVL301:
 4027              		.loc 4 127 0 discriminator 2
 4028 0708 81230000 		lwz 9,0(3)
 4029 070c 80090050 		lwz 0,80(9)
 4030 0710 7C0903A6 		mtctr 0
 4031 0714 4E800421 		bctrl
 4032              	.LVL302:
 4033              		.loc 4 200 0 discriminator 2
 4034 0718 813E00A4 		lwz 9,164(30)
 4035              	.LBB2775:
 4036              	.LBB2773:
 4037              		.loc 5 571 0 discriminator 2
 4038 071c 801E00A8 		lwz 0,168(30)
 4039 0720 7C090050 		subf 0,9,0
 4040 0724 7C001670 		srawi 0,0,2
 4041              	.LBE2773:
 4042              	.LBE2775:
 4043              		.loc 4 125 0 discriminator 2
 4044 0728 7F9F0040 		cmplw 7,31,0
 4045 072c 419CFFC8 		blt+ 7,.L215
 4046              	.LVL303:
 4047              	.L213:
 4048              	.LBE2777:
 4049              	.LBE2778:
 4050              		.loc 4 129 0
 4051 0730 8001001C 		lwz 0,28(1)
 4052 0734 83A1000C 		lwz 29,12(1)
 4053              	.LVL304:
 4054 0738 7C0803A6 		mtlr 0
 4055 073c 83C10010 		lwz 30,16(1)
 4056              	.LVL305:
 4057 0740 83E10014 		lwz 31,20(1)
 4058 0744 38210018 		addi 1,1,24
 4059              	.LCFI69:
 4060              		.cfi_def_cfa_offset 0
 4061              		.cfi_restore 31
 4062              		.cfi_restore 30
 4063              		.cfi_restore 29
 4064 0748 4E800020 		blr
 4065              		.cfi_endproc
 4066              	.LFE1498:
 4067              		.size	_ZN8GuiFrame8SetStateEi, .-_ZN8GuiFrame8SetStateEi
 4068              		.section	.text._ZNSt6vectorIP10GuiElementSaIS1_EE13_M_insert_auxEN9__gnu_cxx17__normal_iteratorIPS
 4069              		.align 2
 4070              		.weak	_ZNSt6vectorIP10GuiElementSaIS1_EE13_M_insert_auxEN9__gnu_cxx17__normal_iteratorIPS1_S3_EERK
 4071              		.type	_ZNSt6vectorIP10GuiElementSaIS1_EE13_M_insert_auxEN9__gnu_cxx17__normal_iteratorIPS1_S3_EERK
 4072              	_ZNSt6vectorIP10GuiElementSaIS1_EE13_M_insert_auxEN9__gnu_cxx17__normal_iteratorIPS1_S3_EERKS1_:
 4073              	.LFB1594:
 4074              		.loc 10 300 0
 4075              		.cfi_startproc
 4076              	.LVL306:
 4077 0000 7C0802A6 		mflr 0
 4078 0004 9421FFD8 		stwu 1,-40(1)
 4079              	.LCFI70:
 4080              		.cfi_def_cfa_offset 40
 4081              		.cfi_register 65, 0
 4082 0008 93610014 		stw 27,20(1)
 4083 000c 9001002C 		stw 0,44(1)
 4084 0010 93C10020 		stw 30,32(1)
 4085              	.LBB2841:
 4086              		.loc 10 304 0
 4087 0014 83630004 		lwz 27,4(3)
 4088              		.cfi_offset 30, -8
 4089              		.cfi_offset 65, 4
 4090              		.cfi_offset 27, -20
 4091 0018 80030008 		lwz 0,8(3)
 4092              	.LBE2841:
 4093              		.loc 10 300 0
 4094 001c 93E10024 		stw 31,36(1)
 4095 0020 7C7F1B78 		mr 31,3
 4096              		.cfi_offset 31, -4
 4097              	.LBB2966:
 4098              		.loc 10 304 0
 4099 0024 7F9B0000 		cmpw 7,27,0
 4100              	.LBE2966:
 4101              		.loc 10 300 0
 4102 0028 93410010 		stw 26,16(1)
 4103 002c 93810018 		stw 28,24(1)
 4104 0030 93A1001C 		stw 29,28(1)
 4105              		.loc 10 300 0
 4106 0034 83C40000 		lwz 30,0(4)
 4107              	.LVL307:
 4108              	.LBB2967:
 4109              		.loc 10 304 0
 4110 0038 419E0078 		beq- 7,.L218
 4111              		.cfi_offset 29, -12
 4112              		.cfi_offset 28, -16
 4113              		.cfi_offset 26, -24
 4114              	.LVL308:
 4115              	.LBB2842:
 4116              	.LBB2843:
 4117              	.LBB2844:
 4118              		.loc 8 108 0
 4119 003c 2F9B0000 		cmpwi 7,27,0
 4120 0040 38600000 		li 3,0
 4121              	.LVL309:
 4122 0044 419E0010 		beq- 7,.L219
 4123 0048 801BFFFC 		lwz 0,-4(27)
 4124 004c 901B0000 		stw 0,0(27)
 4125 0050 807F0004 		lwz 3,4(31)
 4126              	.L219:
 4127              	.LBE2844:
 4128              	.LBE2843:
 4129              		.loc 10 313 0
 4130 0054 3803FFFC 		addi 0,3,-4
 4131              		.loc 10 309 0
 4132 0058 39230004 		addi 9,3,4
 4133              	.LBB2845:
 4134              	.LBB2846:
 4135              	.LBB2847:
 4136              	.LBB2848:
 4137              	.LBB2849:
 4138              	.LBB2850:
 4139              		.loc 12 559 0
 4140 005c 7C1E0050 		subf 0,30,0
 4141              	.LBE2850:
 4142              	.LBE2849:
 4143              	.LBE2848:
 4144              	.LBE2847:
 4145              	.LBE2846:
 4146              	.LBE2845:
 4147              		.loc 10 309 0
 4148 0060 913F0004 		stw 9,4(31)
 4149              	.LBB2866:
 4150              	.LBB2863:
 4151              	.LBB2860:
 4152              	.LBB2857:
 4153              	.LBB2854:
 4154              	.LBB2851:
 4155              		.loc 12 560 0
 4156 0064 7C001671 		srawi. 0,0,2
 4157              	.LBE2851:
 4158              	.LBE2854:
 4159              	.LBE2857:
 4160              	.LBE2860:
 4161              	.LBE2863:
 4162              	.LBE2866:
 4163              		.loc 10 311 0
 4164 0068 83E50000 		lwz 31,0(5)
 4165              	.LVL310:
 4166              	.LBB2867:
 4167              	.LBB2864:
 4168              	.LBB2861:
 4169              	.LBB2858:
 4170              	.LBB2855:
 4171              	.LBB2852:
 4172              		.loc 12 560 0
 4173 006c 40820030 		bne- 0,.L234
 4174              	.LVL311:
 4175              	.L220:
 4176              	.LBE2852:
 4177              	.LBE2855:
 4178              	.LBE2858:
 4179              	.LBE2861:
 4180              	.LBE2864:
 4181              	.LBE2867:
 4182              	.LBE2842:
 4183              	.LBE2967:
 4184              		.loc 10 373 0
 4185 0070 8001002C 		lwz 0,44(1)
 4186              	.LBB2968:
 4187              	.LBB2869:
 4188              		.loc 10 317 0
 4189 0074 93FE0000 		stw 31,0(30)
 4190              	.LBE2869:
 4191              	.LBE2968:
 4192              		.loc 10 373 0
 4193 0078 7C0803A6 		mtlr 0
 4194 007c 83410010 		lwz 26,16(1)
 4195 0080 83610014 		lwz 27,20(1)
 4196              	.LVL312:
 4197 0084 83810018 		lwz 28,24(1)
 4198 0088 83A1001C 		lwz 29,28(1)
 4199 008c 83C10020 		lwz 30,32(1)
 4200              	.LVL313:
 4201 0090 83E10024 		lwz 31,36(1)
 4202              	.LVL314:
 4203 0094 38210028 		addi 1,1,40
 4204              		.cfi_remember_state
 4205              	.LCFI71:
 4206              		.cfi_def_cfa_offset 0
 4207              		.cfi_restore 31
 4208              		.cfi_restore 30
 4209              		.cfi_restore 29
 4210              		.cfi_restore 28
 4211              		.cfi_restore 27
 4212              		.cfi_restore 26
 4213 0098 4E800020 		blr
 4214              	.LVL315:
 4215              	.L234:
 4216              	.LCFI72:
 4217              		.cfi_restore_state
 4218              	.LBB2969:
 4219              	.LBB2870:
 4220              	.LBB2868:
 4221              	.LBB2865:
 4222              	.LBB2862:
 4223              	.LBB2859:
 4224              	.LBB2856:
 4225              	.LBB2853:
 4226              		.loc 12 561 0
 4227 009c 5405103A 		slwi 5,0,2
 4228              	.LVL316:
 4229 00a0 7FC4F378 		mr 4,30
 4230 00a4 7C651850 		subf 3,5,3
 4231              	.LVL317:
 4232 00a8 48000001 		bl memmove
 4233              	.LVL318:
 4234 00ac 4BFFFFC4 		b .L220
 4235              	.LVL319:
 4236              	.L218:
 4237              	.LBE2853:
 4238              	.LBE2856:
 4239              	.LBE2859:
 4240              	.LBE2862:
 4241              	.LBE2865:
 4242              	.LBE2868:
 4243              	.LBE2870:
 4244              	.LBB2871:
 4245              	.LBB2872:
 4246              	.LBB2873:
 4247              	.LBB2874:
 4248              	.LBB2875:
 4249              		.loc 5 571 0
 4250 00b0 83830000 		lwz 28,0(3)
 4251 00b4 7F7CD850 		subf 27,28,27
 4252              	.LBE2875:
 4253              	.LBE2874:
 4254              	.LBB2876:
 4255              	.LBB2877:
 4256              		.loc 12 215 0
 4257 00b8 7F7B1671 		srawi. 27,27,2
 4258 00bc 418200E8 		beq- 0,.L222
 4259              	.LBE2877:
 4260              	.LBE2876:
 4261              		.loc 5 1244 0
 4262 00c0 5760083C 		slwi 0,27,1
 4263              	.LVL320:
 4264              		.loc 5 1245 0
 4265 00c4 7F9B0040 		cmplw 7,27,0
 4266 00c8 409D00EC 		ble- 7,.L235
 4267              	.L223:
 4268              	.LVL321:
 4269              	.LBE2873:
 4270              	.LBE2872:
 4271              	.LBB2880:
 4272              	.LBB2881:
 4273              		.loc 11 892 0
 4274 00cc 7F9CF050 		subf 28,28,30
 4275              	.LBE2881:
 4276              	.LBE2880:
 4277              		.loc 10 326 0
 4278 00d0 3B60FFFC 		li 27,-4
 4279              	.LBB2887:
 4280              	.LBB2882:
 4281              		.loc 11 892 0
 4282 00d4 7F9C1670 		srawi 28,28,2
 4283              	.LVL322:
 4284              	.L229:
 4285              	.LBE2882:
 4286              	.LBE2887:
 4287              	.LBB2888:
 4288              	.LBB2889:
 4289              	.LBB2890:
 4290              	.LBB2891:
 4291              		.loc 8 92 0
 4292 00d8 7F63DB78 		mr 3,27
 4293              	.LVL323:
 4294 00dc 90A10008 		stw 5,8(1)
 4295 00e0 48000001 		bl _Znwj
 4296              	.LVL324:
 4297 00e4 80A10008 		lwz 5,8(1)
 4298 00e8 7C7D1B78 		mr 29,3
 4299              	.L224:
 4300              	.LVL325:
 4301              	.LBE2891:
 4302              	.LBE2890:
 4303              	.LBE2889:
 4304              	.LBE2888:
 4305              		.loc 10 335 0
 4306 00ec 579C103A 		slwi 28,28,2
 4307              	.LVL326:
 4308 00f0 7C1DE214 		add 0,29,28
 4309              	.LVL327:
 4310              	.LBB2894:
 4311              	.LBB2895:
 4312              		.loc 8 108 0
 4313 00f4 2F800000 		cmpwi 7,0,0
 4314 00f8 419E000C 		beq- 7,.L225
 4315 00fc 80050000 		lwz 0,0(5)
 4316              	.LVL328:
 4317 0100 7C1DE12E 		stwx 0,29,28
 4318              	.L225:
 4319              	.LVL329:
 4320              	.LBE2895:
 4321              	.LBE2894:
 4322              		.loc 10 343 0
 4323 0104 809F0000 		lwz 4,0(31)
 4324              	.LVL330:
 4325              	.LBB2896:
 4326              	.LBB2897:
 4327              	.LBB2898:
 4328              	.LBB2899:
 4329              	.LBB2900:
 4330              	.LBB2901:
 4331              	.LBB2902:
 4332              	.LBB2903:
 4333              	.LBB2904:
 4334              	.LBB2905:
 4335              	.LBB2906:
 4336              		.loc 12 365 0
 4337 0108 3B800000 		li 28,0
 4338              		.loc 12 364 0
 4339 010c 7C04F050 		subf 0,4,30
 4340              	.LVL331:
 4341              		.loc 12 365 0
 4342 0110 7C001671 		srawi. 0,0,2
 4343              	.LVL332:
 4344 0114 41A20014 		beq+ 0,.L226
 4345              		.loc 12 366 0
 4346 0118 541C103A 		slwi 28,0,2
 4347 011c 7FA3EB78 		mr 3,29
 4348 0120 7F85E378 		mr 5,28
 4349              	.LVL333:
 4350 0124 48000001 		bl memmove
 4351              	.LVL334:
 4352              	.L226:
 4353              	.LBE2906:
 4354              	.LBE2905:
 4355              	.LBE2904:
 4356              	.LBE2903:
 4357              	.LBE2902:
 4358              	.LBE2901:
 4359              	.LBE2900:
 4360              	.LBE2899:
 4361              	.LBE2898:
 4362              	.LBE2897:
 4363              	.LBE2896:
 4364              	.LBB2917:
 4365              	.LBB2918:
 4366              	.LBB2919:
 4367              	.LBB2920:
 4368              	.LBB2921:
 4369              	.LBB2922:
 4370              	.LBB2923:
 4371              	.LBB2924:
 4372              	.LBB2925:
 4373              	.LBB2926:
 4374              	.LBB2927:
 4375              		.loc 12 364 0
 4376 0128 801F0004 		lwz 0,4(31)
 4377              	.LBE2927:
 4378              	.LBE2926:
 4379              	.LBE2925:
 4380              	.LBE2924:
 4381              	.LBE2923:
 4382              	.LBE2922:
 4383              	.LBE2921:
 4384              	.LBE2920:
 4385              	.LBE2919:
 4386              	.LBE2918:
 4387              	.LBE2917:
 4388              	.LBB2948:
 4389              	.LBB2916:
 4390              	.LBB2915:
 4391              	.LBB2914:
 4392              	.LBB2913:
 4393              	.LBB2912:
 4394              	.LBB2911:
 4395              	.LBB2910:
 4396              	.LBB2909:
 4397              	.LBB2908:
 4398              	.LBB2907:
 4399              		.loc 12 367 0
 4400 012c 7F9DE214 		add 28,29,28
 4401              	.LVL335:
 4402              	.LBE2907:
 4403              	.LBE2908:
 4404              	.LBE2909:
 4405              	.LBE2910:
 4406              	.LBE2911:
 4407              	.LBE2912:
 4408              	.LBE2913:
 4409              	.LBE2914:
 4410              	.LBE2915:
 4411              	.LBE2916:
 4412              	.LBE2948:
 4413              		.loc 10 347 0
 4414 0130 3B5C0004 		addi 26,28,4
 4415              	.LBB2949:
 4416              	.LBB2946:
 4417              	.LBB2944:
 4418              	.LBB2942:
 4419              	.LBB2940:
 4420              	.LBB2938:
 4421              	.LBB2936:
 4422              	.LBB2934:
 4423              	.LBB2932:
 4424              	.LBB2930:
 4425              	.LBB2928:
 4426              		.loc 12 365 0
 4427 0134 3B800000 		li 28,0
 4428              		.loc 12 364 0
 4429 0138 7C1E0050 		subf 0,30,0
 4430              	.LVL336:
 4431              		.loc 12 365 0
 4432 013c 7C001671 		srawi. 0,0,2
 4433              	.LVL337:
 4434 0140 41A20018 		beq+ 0,.L227
 4435              		.loc 12 366 0
 4436 0144 541C103A 		slwi 28,0,2
 4437 0148 7F43D378 		mr 3,26
 4438 014c 7FC4F378 		mr 4,30
 4439 0150 7F85E378 		mr 5,28
 4440 0154 48000001 		bl memmove
 4441              	.LVL338:
 4442              	.L227:
 4443              	.LBE2928:
 4444              	.LBE2930:
 4445              	.LBE2932:
 4446              	.LBE2934:
 4447              	.LBE2936:
 4448              	.LBE2938:
 4449              	.LBE2940:
 4450              	.LBE2942:
 4451              	.LBE2944:
 4452              	.LBE2946:
 4453              	.LBE2949:
 4454              		.loc 10 366 0
 4455 0158 807F0000 		lwz 3,0(31)
 4456              	.LBB2950:
 4457              	.LBB2947:
 4458              	.LBB2945:
 4459              	.LBB2943:
 4460              	.LBB2941:
 4461              	.LBB2939:
 4462              	.LBB2937:
 4463              	.LBB2935:
 4464              	.LBB2933:
 4465              	.LBB2931:
 4466              	.LBB2929:
 4467              		.loc 12 367 0
 4468 015c 7F9AE214 		add 28,26,28
 4469              	.LVL339:
 4470              	.LBE2929:
 4471              	.LBE2931:
 4472              	.LBE2933:
 4473              	.LBE2935:
 4474              	.LBE2937:
 4475              	.LBE2939:
 4476              	.LBE2941:
 4477              	.LBE2943:
 4478              	.LBE2945:
 4479              	.LBE2947:
 4480              	.LBE2950:
 4481              	.LBB2951:
 4482              	.LBB2952:
 4483              		.loc 5 155 0
 4484 0160 2F830000 		cmpwi 7,3,0
 4485 0164 419E0008 		beq- 7,.L228
 4486              	.LVL340:
 4487              	.LBB2953:
 4488              	.LBB2954:
 4489              		.loc 8 98 0
 4490 0168 48000001 		bl _ZdlPv
 4491              	.LVL341:
 4492              	.L228:
 4493              	.LBE2954:
 4494              	.LBE2953:
 4495              	.LBE2952:
 4496              	.LBE2951:
 4497              	.LBE2871:
 4498              	.LBE2969:
 4499              		.loc 10 373 0
 4500 016c 8001002C 		lwz 0,44(1)
 4501              	.LBB2970:
 4502              	.LBB2963:
 4503              		.loc 10 371 0
 4504 0170 7F7DDA14 		add 27,29,27
 4505              		.loc 10 369 0
 4506 0174 93BF0000 		stw 29,0(31)
 4507              	.LBE2963:
 4508              	.LBE2970:
 4509              		.loc 10 373 0
 4510 0178 7C0803A6 		mtlr 0
 4511              	.LBB2971:
 4512              	.LBB2964:
 4513              		.loc 10 370 0
 4514 017c 939F0004 		stw 28,4(31)
 4515              		.loc 10 371 0
 4516 0180 937F0008 		stw 27,8(31)
 4517              	.LBE2964:
 4518              	.LBE2971:
 4519              		.loc 10 373 0
 4520 0184 83410010 		lwz 26,16(1)
 4521              	.LVL342:
 4522 0188 83610014 		lwz 27,20(1)
 4523 018c 83810018 		lwz 28,24(1)
 4524 0190 83A1001C 		lwz 29,28(1)
 4525              	.LVL343:
 4526 0194 83C10020 		lwz 30,32(1)
 4527              	.LVL344:
 4528 0198 83E10024 		lwz 31,36(1)
 4529              	.LVL345:
 4530 019c 38210028 		addi 1,1,40
 4531              		.cfi_remember_state
 4532              		.cfi_restore 26
 4533              		.cfi_restore 27
 4534              		.cfi_restore 28
 4535              		.cfi_restore 29
 4536              		.cfi_restore 30
 4537              		.cfi_restore 31
 4538              	.LCFI73:
 4539              		.cfi_def_cfa_offset 0
 4540 01a0 4E800020 		blr
 4541              	.LVL346:
 4542              	.L222:
 4543              	.LCFI74:
 4544              		.cfi_restore_state
 4545              	.LBB2972:
 4546              	.LBB2965:
 4547              	.LBB2955:
 4548              	.LBB2883:
 4549              		.loc 11 892 0
 4550 01a4 7F9CF050 		subf 28,28,30
 4551              	.LBE2883:
 4552              	.LBE2955:
 4553              		.loc 10 326 0
 4554 01a8 3B600004 		li 27,4
 4555              	.LBB2956:
 4556              	.LBB2884:
 4557              		.loc 11 892 0
 4558 01ac 7F9C1670 		srawi 28,28,2
 4559              	.LVL347:
 4560 01b0 4BFFFF28 		b .L229
 4561              	.LVL348:
 4562              	.L235:
 4563              	.LBE2884:
 4564              	.LBE2956:
 4565              	.LBB2957:
 4566              	.LBB2878:
 4567              		.loc 5 1245 0
 4568 01b4 3D203FFF 		lis 9,0x3fff
 4569 01b8 6129FFFF 		ori 9,9,65535
 4570 01bc 7F804840 		cmplw 7,0,9
 4571 01c0 419DFF0C 		bgt+ 7,.L223
 4572              	.LBE2878:
 4573              	.LBE2957:
 4574              	.LBB2958:
 4575              	.LBB2892:
 4576              		.loc 5 150 0
 4577 01c4 2F800000 		cmpwi 7,0,0
 4578              	.LBE2892:
 4579              	.LBE2958:
 4580              	.LBB2959:
 4581              	.LBB2885:
 4582              		.loc 11 892 0
 4583 01c8 7F9CF050 		subf 28,28,30
 4584              	.LBE2885:
 4585              	.LBE2959:
 4586              	.LBB2960:
 4587              	.LBB2879:
 4588              		.loc 5 1245 0
 4589 01cc 577B1838 		slwi 27,27,3
 4590              	.LVL349:
 4591              	.LBE2879:
 4592              	.LBE2960:
 4593              	.LBB2961:
 4594              	.LBB2886:
 4595              		.loc 11 892 0
 4596 01d0 7F9C1670 		srawi 28,28,2
 4597              	.LVL350:
 4598              	.LBE2886:
 4599              	.LBE2961:
 4600              	.LBB2962:
 4601              	.LBB2893:
 4602              		.loc 5 150 0
 4603 01d4 3BA00000 		li 29,0
 4604 01d8 419EFF14 		beq+ 7,.L224
 4605 01dc 4BFFFEFC 		b .L229
 4606              	.LBE2893:
 4607              	.LBE2962:
 4608              	.LBE2965:
 4609              	.LBE2972:
 4610              		.cfi_endproc
 4611              	.LFE1594:
 4612              		.size	_ZNSt6vectorIP10GuiElementSaIS1_EE13_M_insert_auxEN9__gnu_cxx17__normal_iteratorIPS1_S3_EERK
 4613              		.section	".text"
 4614              		.align 2
 4615              		.globl _ZN8GuiFrame6InsertEP10GuiElementj
 4616              		.type	_ZN8GuiFrame6InsertEP10GuiElementj, @function
 4617              	_ZN8GuiFrame6InsertEP10GuiElementj:
 4618              	.LFB1490:
 4619              		.loc 4 59 0
 4620              		.cfi_startproc
 4621              	.LVL351:
 4622              		.loc 4 60 0
 4623 074c 2F840000 		cmpwi 7,4,0
 4624              		.loc 4 59 0
 4625 0750 7C0802A6 		mflr 0
 4626 0754 9421FFE0 		stwu 1,-32(1)
 4627              	.LCFI75:
 4628              		.cfi_def_cfa_offset 32
 4629              		.cfi_register 65, 0
 4630 0758 93E1001C 		stw 31,28(1)
 4631 075c 7C7F1B78 		mr 31,3
 4632              		.cfi_offset 31, -4
 4633 0760 90010024 		stw 0,36(1)
 4634              		.loc 4 59 0
 4635 0764 90810008 		stw 4,8(1)
 4636              		.loc 4 60 0
 4637 0768 419E0078 		beq- 7,.L236
 4638              		.cfi_offset 65, 4
 4639              	.LBB2973:
 4640              	.LBB2974:
 4641              		.loc 5 571 0 discriminator 2
 4642 076c 812300A8 		lwz 9,168(3)
 4643 0770 800300A4 		lwz 0,164(3)
 4644 0774 7C004850 		subf 0,0,9
 4645 0778 7C001670 		srawi 0,0,2
 4646              	.LBE2974:
 4647              	.LBE2973:
 4648              		.loc 4 60 0 discriminator 2
 4649 077c 7F850040 		cmplw 7,5,0
 4650 0780 409C0060 		bge- 7,.L236
 4651              		.loc 4 63 0
 4652 0784 90A10010 		stw 5,16(1)
 4653 0788 48000001 		bl _ZN8GuiFrame6RemoveEP10GuiElement
 4654              	.LVL352:
 4655              	.LBB2975:
 4656              	.LBB2976:
 4657              		.loc 10 112 0
 4658 078c 813F00AC 		lwz 9,172(31)
 4659 0790 801F00A8 		lwz 0,168(31)
 4660              	.LBE2976:
 4661              	.LBE2975:
 4662              	.LBB2982:
 4663              	.LBB2983:
 4664              		.loc 11 773 0
 4665 0794 80A10010 		lwz 5,16(1)
 4666              	.LBE2983:
 4667              	.LBE2982:
 4668              	.LBB2985:
 4669              	.LBB2979:
 4670              		.loc 10 112 0
 4671 0798 7F804800 		cmpw 7,0,9
 4672              	.LBE2979:
 4673              	.LBE2985:
 4674              	.LBB2986:
 4675              	.LBB2984:
 4676              		.loc 11 773 0
 4677 079c 817F00A4 		lwz 11,164(31)
 4678 07a0 54A5103A 		slwi 5,5,2
 4679 07a4 7D2B2A14 		add 9,11,5
 4680              	.LVL353:
 4681              	.LBE2984:
 4682              	.LBE2986:
 4683              	.LBB2987:
 4684              	.LBB2980:
 4685              		.loc 10 112 0
 4686 07a8 419E000C 		beq- 7,.L242
 4687              	.LVL354:
 4688 07ac 7F890000 		cmpw 7,9,0
 4689 07b0 419E0044 		beq- 7,.L239
 4690              	.LVL355:
 4691              	.L242:
 4692              		.loc 10 128 0
 4693 07b4 7C240B78 		mr 4,1
 4694 07b8 387F00A4 		addi 3,31,164
 4695 07bc 9524000C 		stwu 9,12(4)
 4696 07c0 38A10008 		addi 5,1,8
 4697 07c4 48000001 		bl _ZNSt6vectorIP10GuiElementSaIS1_EE13_M_insert_auxEN9__gnu_cxx17__normal_iteratorIPS1_S3_EERKS1_
 4698              	.LVL356:
 4699              	.L240:
 4700              	.LBE2980:
 4701              	.LBE2987:
 4702              		.loc 4 65 0
 4703 07c8 80610008 		lwz 3,8(1)
 4704 07cc 7FE4FB78 		mr 4,31
 4705 07d0 81230000 		lwz 9,0(3)
 4706 07d4 80090008 		lwz 0,8(9)
 4707 07d8 7C0903A6 		mtctr 0
 4708 07dc 4E800421 		bctrl
 4709              	.LVL357:
 4710              	.L236:
 4711              		.loc 4 66 0
 4712 07e0 80010024 		lwz 0,36(1)
 4713 07e4 83E1001C 		lwz 31,28(1)
 4714              	.LVL358:
 4715 07e8 7C0803A6 		mtlr 0
 4716 07ec 38210020 		addi 1,1,32
 4717              		.cfi_remember_state
 4718              	.LCFI76:
 4719              		.cfi_def_cfa_offset 0
 4720              		.cfi_restore 31
 4721 07f0 4E800020 		blr
 4722              	.LVL359:
 4723              	.L239:
 4724              	.LCFI77:
 4725              		.cfi_restore_state
 4726              	.LBB2988:
 4727              	.LBB2981:
 4728              	.LBB2977:
 4729              	.LBB2978:
 4730              		.loc 8 108 0
 4731 07f4 2F890000 		cmpwi 7,9,0
 4732 07f8 419E0010 		beq- 7,.L244
 4733 07fc 80010008 		lwz 0,8(1)
 4734 0800 7C0B292E 		stwx 0,11,5
 4735 0804 813F00A8 		lwz 9,168(31)
 4736              	.LVL360:
 4737              	.L244:
 4738              	.LBE2978:
 4739              	.LBE2977:
 4740              		.loc 10 116 0
 4741 0808 39290004 		addi 9,9,4
 4742 080c 913F00A8 		stw 9,168(31)
 4743 0810 4BFFFFB8 		b .L240
 4744              	.LBE2981:
 4745              	.LBE2988:
 4746              		.cfi_endproc
 4747              	.LFE1490:
 4748              		.size	_ZN8GuiFrame6InsertEP10GuiElementj, .-_ZN8GuiFrame6InsertEP10GuiElementj
 4749              		.align 2
 4750              		.globl _ZN8GuiFrame6AppendEP10GuiElement
 4751              		.type	_ZN8GuiFrame6AppendEP10GuiElement, @function
 4752              	_ZN8GuiFrame6AppendEP10GuiElement:
 4753              	.LFB1489:
 4754              		.loc 4 49 0
 4755              		.cfi_startproc
 4756              	.LVL361:
 4757              		.loc 4 50 0
 4758 0814 2F840000 		cmpwi 7,4,0
 4759              		.loc 4 49 0
 4760 0818 7C0802A6 		mflr 0
 4761 081c 9421FFE8 		stwu 1,-24(1)
 4762              	.LCFI78:
 4763              		.cfi_def_cfa_offset 24
 4764              		.cfi_register 65, 0
 4765 0820 93E10014 		stw 31,20(1)
 4766 0824 7C7F1B78 		mr 31,3
 4767              		.cfi_offset 31, -4
 4768 0828 9001001C 		stw 0,28(1)
 4769              		.loc 4 49 0
 4770 082c 90810008 		stw 4,8(1)
 4771              		.loc 4 50 0
 4772 0830 419E0050 		beq- 7,.L246
 4773              		.cfi_offset 65, 4
 4774              		.loc 4 53 0
 4775 0834 48000001 		bl _ZN8GuiFrame6RemoveEP10GuiElement
 4776              	.LVL362:
 4777              	.LBB2994:
 4778              	.LBB2995:
 4779              		.loc 5 828 0
 4780 0838 813F00A8 		lwz 9,168(31)
 4781 083c 801F00AC 		lwz 0,172(31)
 4782 0840 7F890000 		cmpw 7,9,0
 4783 0844 419E0050 		beq- 7,.L248
 4784              	.LVL363:
 4785              	.LBB2996:
 4786              	.LBB2997:
 4787              		.loc 8 108 0
 4788 0848 2F890000 		cmpwi 7,9,0
 4789 084c 39600000 		li 11,0
 4790 0850 419E0010 		beq- 7,.L249
 4791 0854 80010008 		lwz 0,8(1)
 4792 0858 90090000 		stw 0,0(9)
 4793 085c 817F00A8 		lwz 11,168(31)
 4794              	.L249:
 4795              	.LBE2997:
 4796              	.LBE2996:
 4797              		.loc 5 831 0
 4798 0860 396B0004 		addi 11,11,4
 4799 0864 917F00A8 		stw 11,168(31)
 4800              	.LVL364:
 4801              	.L250:
 4802              	.LBE2995:
 4803              	.LBE2994:
 4804              		.loc 4 55 0
 4805 0868 80610008 		lwz 3,8(1)
 4806 086c 7FE4FB78 		mr 4,31
 4807 0870 81230000 		lwz 9,0(3)
 4808 0874 80090008 		lwz 0,8(9)
 4809 0878 7C0903A6 		mtctr 0
 4810 087c 4E800421 		bctrl
 4811              	.LVL365:
 4812              	.L246:
 4813              		.loc 4 56 0
 4814 0880 8001001C 		lwz 0,28(1)
 4815 0884 83E10014 		lwz 31,20(1)
 4816              	.LVL366:
 4817 0888 7C0803A6 		mtlr 0
 4818 088c 38210018 		addi 1,1,24
 4819              		.cfi_remember_state
 4820              	.LCFI79:
 4821              		.cfi_def_cfa_offset 0
 4822              		.cfi_restore 31
 4823 0890 4E800020 		blr
 4824              	.LVL367:
 4825              	.L248:
 4826              	.LCFI80:
 4827              		.cfi_restore_state
 4828              	.LBB2999:
 4829              	.LBB2998:
 4830              		.loc 5 834 0
 4831 0894 7C240B78 		mr 4,1
 4832 0898 387F00A4 		addi 3,31,164
 4833 089c 9524000C 		stwu 9,12(4)
 4834 08a0 38A10008 		addi 5,1,8
 4835 08a4 48000001 		bl _ZNSt6vectorIP10GuiElementSaIS1_EE13_M_insert_auxEN9__gnu_cxx17__normal_iteratorIPS1_S3_EERKS1_
 4836 08a8 4BFFFFC0 		b .L250
 4837              	.LBE2998:
 4838              	.LBE2999:
 4839              		.cfi_endproc
 4840              	.LFE1489:
 4841              		.size	_ZN8GuiFrame6AppendEP10GuiElement, .-_ZN8GuiFrame6AppendEP10GuiElement
 4842              		.section	.text._ZNSt8_Rb_treeIPN7sigslot12_signal_baseINS0_15single_threadedEEES4_St9_IdentityIS4_
 4843              		.align 2
 4844              		.weak	_ZNSt8_Rb_treeIPN7sigslot12_signal_baseINS0_15single_threadedEEES4_St9_IdentityIS4_ESt4lessI
 4845              		.type	_ZNSt8_Rb_treeIPN7sigslot12_signal_baseINS0_15single_threadedEEES4_St9_IdentityIS4_ESt4lessI
 4846              	_ZNSt8_Rb_treeIPN7sigslot12_signal_baseINS0_15single_threadedEEES4_St9_IdentityIS4_ESt4lessIS4_ESaI
 4847              	.LFB1894:
 4848              		.file 13 "d:\\devkitpro\\devkitppc\\bin\\../lib/gcc/powerpc-eabi/4.6.3/../../../../powerpc-eabi/in
 4849              		.loc 13 1068 0
 4850              		.cfi_startproc
 4851              	.LVL368:
 4852 0000 9421FFC8 		stwu 1,-56(1)
 4853              	.LCFI81:
 4854              		.cfi_def_cfa_offset 56
 4855 0004 7C0802A6 		mflr 0
 4856 0008 92C10010 		stw 22,16(1)
 4857              	.LBB3116:
 4858              		.loc 13 1072 0
 4859 000c 7C962379 		mr. 22,4
 4860              		.cfi_offset 22, -40
 4861              		.cfi_register 65, 0
 4862              	.LBE3116:
 4863              		.loc 13 1068 0
 4864 0010 93C10030 		stw 30,48(1)
 4865 0014 7C7E1B78 		mr 30,3
 4866              		.cfi_offset 30, -8
 4867 0018 9001003C 		stw 0,60(1)
 4868 001c 92A1000C 		stw 21,12(1)
 4869 0020 92E10014 		stw 23,20(1)
 4870 0024 93010018 		stw 24,24(1)
 4871 0028 9321001C 		stw 25,28(1)
 4872 002c 93410020 		stw 26,32(1)
 4873 0030 93610024 		stw 27,36(1)
 4874 0034 93810028 		stw 28,40(1)
 4875 0038 93A1002C 		stw 29,44(1)
 4876 003c 93E10034 		stw 31,52(1)
 4877              	.LBB3201:
 4878              		.loc 13 1072 0
 4879 0040 41820168 		beq- 0,.L252
 4880              		.cfi_offset 31, -4
 4881              		.cfi_offset 29, -12
 4882              		.cfi_offset 28, -16
 4883              		.cfi_offset 27, -20
 4884              		.cfi_offset 26, -24
 4885              		.cfi_offset 25, -28
 4886              		.cfi_offset 24, -32
 4887              		.cfi_offset 23, -36
 4888              		.cfi_offset 21, -44
 4889              		.cfi_offset 65, 4
 4890              	.LVL369:
 4891              	.L298:
 4892              		.loc 4 200 0
 4893 0044 8376000C 		lwz 27,12(22)
 4894              	.LVL370:
 4895              	.LBB3117:
 4896              	.LBB3118:
 4897              	.LBB3119:
 4898              		.loc 13 1072 0
 4899 0048 2F9B0000 		cmpwi 7,27,0
 4900 004c 419E0140 		beq- 7,.L254
 4901              	.LVL371:
 4902              	.L299:
 4903              	.LBE3119:
 4904              		.loc 4 200 0
 4905 0050 835B000C 		lwz 26,12(27)
 4906              	.LVL372:
 4907              	.LBB3195:
 4908              	.LBB3120:
 4909              	.LBB3121:
 4910              	.LBB3122:
 4911              		.loc 13 1072 0
 4912 0054 2F9A0000 		cmpwi 7,26,0
 4913 0058 419E0118 		beq- 7,.L255
 4914              	.LVL373:
 4915              	.L300:
 4916              	.LBE3122:
 4917              		.loc 4 200 0
 4918 005c 833A000C 		lwz 25,12(26)
 4919              	.LVL374:
 4920              	.LBB3188:
 4921              	.LBB3123:
 4922              	.LBB3124:
 4923              	.LBB3125:
 4924              		.loc 13 1072 0
 4925 0060 2F990000 		cmpwi 7,25,0
 4926 0064 419E00F0 		beq- 7,.L256
 4927              	.LVL375:
 4928              	.L301:
 4929              	.LBE3125:
 4930              		.loc 4 200 0
 4931 0068 8319000C 		lwz 24,12(25)
 4932              	.LVL376:
 4933              	.LBB3181:
 4934              	.LBB3126:
 4935              	.LBB3127:
 4936              	.LBB3128:
 4937              		.loc 13 1072 0
 4938 006c 2F980000 		cmpwi 7,24,0
 4939 0070 419E00C8 		beq- 7,.L257
 4940              	.LVL377:
 4941              	.L302:
 4942              	.LBE3128:
 4943              		.loc 4 200 0
 4944 0074 82F8000C 		lwz 23,12(24)
 4945              	.LVL378:
 4946              	.LBB3174:
 4947              	.LBB3129:
 4948              	.LBB3130:
 4949              	.LBB3131:
 4950              		.loc 13 1072 0
 4951 0078 2F970000 		cmpwi 7,23,0
 4952 007c 419E00A0 		beq- 7,.L258
 4953              	.LVL379:
 4954              	.L303:
 4955              	.LBE3131:
 4956              		.loc 4 200 0
 4957 0080 8397000C 		lwz 28,12(23)
 4958              	.LVL380:
 4959              	.LBB3167:
 4960              	.LBB3132:
 4961              	.LBB3133:
 4962              	.LBB3134:
 4963              		.loc 13 1072 0
 4964 0084 2F9C0000 		cmpwi 7,28,0
 4965 0088 419E0078 		beq- 7,.L259
 4966              	.LVL381:
 4967              	.L304:
 4968              	.LBE3134:
 4969              		.loc 4 200 0
 4970 008c 83BC000C 		lwz 29,12(28)
 4971              	.LVL382:
 4972              	.LBB3160:
 4973              	.LBB3135:
 4974              	.LBB3136:
 4975              	.LBB3137:
 4976              		.loc 13 1072 0
 4977 0090 2F9D0000 		cmpwi 7,29,0
 4978 0094 419E0050 		beq- 7,.L260
 4979              	.LVL383:
 4980              	.L305:
 4981              	.LBE3137:
 4982              		.loc 4 200 0
 4983 0098 83FD000C 		lwz 31,12(29)
 4984              	.LVL384:
 4985              	.LBB3153:
 4986              	.LBB3138:
 4987              	.LBB3139:
 4988              	.LBB3140:
 4989              		.loc 13 1072 0
 4990 009c 2F9F0000 		cmpwi 7,31,0
 4991 00a0 419E0028 		beq- 7,.L261
 4992              	.LVL385:
 4993              	.L306:
 4994              	.LBB3141:
 4995              		.loc 13 1074 0
 4996 00a4 809F000C 		lwz 4,12(31)
 4997 00a8 7FC3F378 		mr 3,30
 4998 00ac 48000001 		bl _ZNSt8_Rb_treeIPN7sigslot12_signal_baseINS0_15single_threadedEEES4_St9_IdentityIS4_ESt4lessIS4_
 4999              	.LBE3141:
 5000              	.LBE3140:
 5001              		.loc 4 200 0
 5002 00b0 82BF0008 		lwz 21,8(31)
 5003              	.LVL386:
 5004              	.LBB3147:
 5005              	.LBB3146:
 5006              	.LBB3142:
 5007              	.LBB3143:
 5008              	.LBB3144:
 5009              	.LBB3145:
 5010              		.loc 8 98 0
 5011 00b4 7FE3FB78 		mr 3,31
 5012 00b8 48000001 		bl _ZdlPv
 5013              	.LVL387:
 5014              	.LBE3145:
 5015              	.LBE3144:
 5016              	.LBE3143:
 5017              	.LBE3142:
 5018              	.LBE3146:
 5019              		.loc 13 1072 0
 5020 00bc 2F950000 		cmpwi 7,21,0
 5021              		.loc 13 1077 0
 5022 00c0 7EBFAB78 		mr 31,21
 5023              	.LVL388:
 5024              		.loc 13 1072 0
 5025 00c4 409EFFE0 		bne+ 7,.L306
 5026              	.LVL389:
 5027              	.L261:
 5028              	.LBE3147:
 5029              	.LBE3139:
 5030              	.LBE3138:
 5031              	.LBE3153:
 5032              		.loc 4 200 0
 5033 00c8 83FD0008 		lwz 31,8(29)
 5034              	.LVL390:
 5035              	.LBB3154:
 5036              	.LBB3152:
 5037              	.LBB3148:
 5038              	.LBB3149:
 5039              	.LBB3150:
 5040              	.LBB3151:
 5041              		.loc 8 98 0
 5042 00cc 7FA3EB78 		mr 3,29
 5043 00d0 48000001 		bl _ZdlPv
 5044              	.LVL391:
 5045              	.LBE3151:
 5046              	.LBE3150:
 5047              	.LBE3149:
 5048              	.LBE3148:
 5049              	.LBE3152:
 5050              		.loc 13 1072 0
 5051 00d4 2F9F0000 		cmpwi 7,31,0
 5052 00d8 419E000C 		beq- 7,.L260
 5053              		.loc 13 1077 0
 5054 00dc 7FFDFB78 		mr 29,31
 5055              	.LVL392:
 5056 00e0 4BFFFFB8 		b .L305
 5057              	.LVL393:
 5058              	.L260:
 5059              	.LBE3154:
 5060              	.LBE3136:
 5061              	.LBE3135:
 5062              	.LBE3160:
 5063              		.loc 4 200 0
 5064 00e4 83FC0008 		lwz 31,8(28)
 5065              	.LVL394:
 5066              	.LBB3161:
 5067              	.LBB3159:
 5068              	.LBB3155:
 5069              	.LBB3156:
 5070              	.LBB3157:
 5071              	.LBB3158:
 5072              		.loc 8 98 0
 5073 00e8 7F83E378 		mr 3,28
 5074 00ec 48000001 		bl _ZdlPv
 5075              	.LVL395:
 5076              	.LBE3158:
 5077              	.LBE3157:
 5078              	.LBE3156:
 5079              	.LBE3155:
 5080              	.LBE3159:
 5081              		.loc 13 1072 0
 5082 00f0 2F9F0000 		cmpwi 7,31,0
 5083 00f4 419E000C 		beq- 7,.L259
 5084              		.loc 13 1077 0
 5085 00f8 7FFCFB78 		mr 28,31
 5086              	.LVL396:
 5087 00fc 4BFFFF90 		b .L304
 5088              	.LVL397:
 5089              	.L259:
 5090              	.LBE3161:
 5091              	.LBE3133:
 5092              	.LBE3132:
 5093              	.LBE3167:
 5094              		.loc 4 200 0
 5095 0100 83F70008 		lwz 31,8(23)
 5096              	.LVL398:
 5097              	.LBB3168:
 5098              	.LBB3166:
 5099              	.LBB3162:
 5100              	.LBB3163:
 5101              	.LBB3164:
 5102              	.LBB3165:
 5103              		.loc 8 98 0
 5104 0104 7EE3BB78 		mr 3,23
 5105 0108 48000001 		bl _ZdlPv
 5106              	.LVL399:
 5107              	.LBE3165:
 5108              	.LBE3164:
 5109              	.LBE3163:
 5110              	.LBE3162:
 5111              	.LBE3166:
 5112              		.loc 13 1072 0
 5113 010c 2F9F0000 		cmpwi 7,31,0
 5114 0110 419E000C 		beq- 7,.L258
 5115              		.loc 13 1077 0
 5116 0114 7FF7FB78 		mr 23,31
 5117              	.LVL400:
 5118 0118 4BFFFF68 		b .L303
 5119              	.LVL401:
 5120              	.L258:
 5121              	.LBE3168:
 5122              	.LBE3130:
 5123              	.LBE3129:
 5124              	.LBE3174:
 5125              		.loc 4 200 0
 5126 011c 83F80008 		lwz 31,8(24)
 5127              	.LVL402:
 5128              	.LBB3175:
 5129              	.LBB3173:
 5130              	.LBB3169:
 5131              	.LBB3170:
 5132              	.LBB3171:
 5133              	.LBB3172:
 5134              		.loc 8 98 0
 5135 0120 7F03C378 		mr 3,24
 5136 0124 48000001 		bl _ZdlPv
 5137              	.LVL403:
 5138              	.LBE3172:
 5139              	.LBE3171:
 5140              	.LBE3170:
 5141              	.LBE3169:
 5142              	.LBE3173:
 5143              		.loc 13 1072 0
 5144 0128 2F9F0000 		cmpwi 7,31,0
 5145 012c 419E000C 		beq- 7,.L257
 5146              		.loc 13 1077 0
 5147 0130 7FF8FB78 		mr 24,31
 5148              	.LVL404:
 5149 0134 4BFFFF40 		b .L302
 5150              	.LVL405:
 5151              	.L257:
 5152              	.LBE3175:
 5153              	.LBE3127:
 5154              	.LBE3126:
 5155              	.LBE3181:
 5156              		.loc 4 200 0
 5157 0138 83F90008 		lwz 31,8(25)
 5158              	.LVL406:
 5159              	.LBB3182:
 5160              	.LBB3180:
 5161              	.LBB3176:
 5162              	.LBB3177:
 5163              	.LBB3178:
 5164              	.LBB3179:
 5165              		.loc 8 98 0
 5166 013c 7F23CB78 		mr 3,25
 5167 0140 48000001 		bl _ZdlPv
 5168              	.LVL407:
 5169              	.LBE3179:
 5170              	.LBE3178:
 5171              	.LBE3177:
 5172              	.LBE3176:
 5173              	.LBE3180:
 5174              		.loc 13 1072 0
 5175 0144 2F9F0000 		cmpwi 7,31,0
 5176 0148 419E000C 		beq- 7,.L256
 5177              		.loc 13 1077 0
 5178 014c 7FF9FB78 		mr 25,31
 5179              	.LVL408:
 5180 0150 4BFFFF18 		b .L301
 5181              	.LVL409:
 5182              	.L256:
 5183              	.LBE3182:
 5184              	.LBE3124:
 5185              	.LBE3123:
 5186              	.LBE3188:
 5187              		.loc 4 200 0
 5188 0154 83FA0008 		lwz 31,8(26)
 5189              	.LVL410:
 5190              	.LBB3189:
 5191              	.LBB3187:
 5192              	.LBB3183:
 5193              	.LBB3184:
 5194              	.LBB3185:
 5195              	.LBB3186:
 5196              		.loc 8 98 0
 5197 0158 7F43D378 		mr 3,26
 5198 015c 48000001 		bl _ZdlPv
 5199              	.LVL411:
 5200              	.LBE3186:
 5201              	.LBE3185:
 5202              	.LBE3184:
 5203              	.LBE3183:
 5204              	.LBE3187:
 5205              		.loc 13 1072 0
 5206 0160 2F9F0000 		cmpwi 7,31,0
 5207 0164 419E000C 		beq- 7,.L255
 5208              		.loc 13 1077 0
 5209 0168 7FFAFB78 		mr 26,31
 5210              	.LVL412:
 5211 016c 4BFFFEF0 		b .L300
 5212              	.LVL413:
 5213              	.L255:
 5214              	.LBE3189:
 5215              	.LBE3121:
 5216              	.LBE3120:
 5217              	.LBE3195:
 5218              		.loc 4 200 0
 5219 0170 83FB0008 		lwz 31,8(27)
 5220              	.LVL414:
 5221              	.LBB3196:
 5222              	.LBB3194:
 5223              	.LBB3190:
 5224              	.LBB3191:
 5225              	.LBB3192:
 5226              	.LBB3193:
 5227              		.loc 8 98 0
 5228 0174 7F63DB78 		mr 3,27
 5229 0178 48000001 		bl _ZdlPv
 5230              	.LVL415:
 5231              	.LBE3193:
 5232              	.LBE3192:
 5233              	.LBE3191:
 5234              	.LBE3190:
 5235              	.LBE3194:
 5236              		.loc 13 1072 0
 5237 017c 2F9F0000 		cmpwi 7,31,0
 5238 0180 419E000C 		beq- 7,.L254
 5239              		.loc 13 1077 0
 5240 0184 7FFBFB78 		mr 27,31
 5241              	.LVL416:
 5242 0188 4BFFFEC8 		b .L299
 5243              	.LVL417:
 5244              	.L254:
 5245              		.loc 4 200 0
 5246 018c 83F60008 		lwz 31,8(22)
 5247              	.LVL418:
 5248              	.LBE3196:
 5249              	.LBE3118:
 5250              	.LBB3197:
 5251              	.LBB3198:
 5252              	.LBB3199:
 5253              	.LBB3200:
 5254              		.loc 8 98 0
 5255 0190 7EC3B378 		mr 3,22
 5256 0194 48000001 		bl _ZdlPv
 5257              	.LVL419:
 5258              	.LBE3200:
 5259              	.LBE3199:
 5260              	.LBE3198:
 5261              	.LBE3197:
 5262              	.LBE3117:
 5263              		.loc 13 1072 0
 5264 0198 2F9F0000 		cmpwi 7,31,0
 5265 019c 419E000C 		beq- 7,.L252
 5266              		.loc 13 1077 0
 5267 01a0 7FF6FB78 		mr 22,31
 5268              	.LVL420:
 5269 01a4 4BFFFEA0 		b .L298
 5270              	.LVL421:
 5271              	.L252:
 5272              	.LBE3201:
 5273              		.loc 13 1079 0
 5274 01a8 8001003C 		lwz 0,60(1)
 5275 01ac 82A1000C 		lwz 21,12(1)
 5276 01b0 7C0803A6 		mtlr 0
 5277 01b4 82C10010 		lwz 22,16(1)
 5278 01b8 82E10014 		lwz 23,20(1)
 5279 01bc 83010018 		lwz 24,24(1)
 5280 01c0 8321001C 		lwz 25,28(1)
 5281 01c4 83410020 		lwz 26,32(1)
 5282 01c8 83610024 		lwz 27,36(1)
 5283 01cc 83810028 		lwz 28,40(1)
 5284 01d0 83A1002C 		lwz 29,44(1)
 5285 01d4 83C10030 		lwz 30,48(1)
 5286              	.LVL422:
 5287 01d8 83E10034 		lwz 31,52(1)
 5288 01dc 38210038 		addi 1,1,56
 5289              	.LCFI82:
 5290              		.cfi_def_cfa_offset 0
 5291              		.cfi_restore 31
 5292              		.cfi_restore 30
 5293              		.cfi_restore 29
 5294              		.cfi_restore 28
 5295              		.cfi_restore 27
 5296              		.cfi_restore 26
 5297              		.cfi_restore 25
 5298              		.cfi_restore 24
 5299              		.cfi_restore 23
 5300              		.cfi_restore 22
 5301              		.cfi_restore 21
 5302 01e0 4E800020 		blr
 5303              		.cfi_endproc
 5304              	.LFE1894:
 5305              		.size	_ZNSt8_Rb_treeIPN7sigslot12_signal_baseINS0_15single_threadedEEES4_St9_IdentityIS4_ESt4lessI
 5306              		.section	.text._ZNSt8_Rb_treeIPN7sigslot12_signal_baseINS0_15single_threadedEEES4_St9_IdentityIS4_
 5307              		.align 2
 5308              		.weak	_ZNSt8_Rb_treeIPN7sigslot12_signal_baseINS0_15single_threadedEEES4_St9_IdentityIS4_ESt4lessI
 5309              		.type	_ZNSt8_Rb_treeIPN7sigslot12_signal_baseINS0_15single_threadedEEES4_St9_IdentityIS4_ESt4lessI
 5310              	_ZNSt8_Rb_treeIPN7sigslot12_signal_baseINS0_15single_threadedEEES4_St9_IdentityIS4_ESt4lessIS4_ESaI
 5311              	.LFB1810:
 5312              		.loc 13 1510 0
 5313              		.cfi_startproc
 5314              	.LVL423:
 5315 0000 7C0802A6 		mflr 0
 5316 0004 9421FFE0 		stwu 1,-32(1)
 5317              	.LCFI83:
 5318              		.cfi_def_cfa_offset 32
 5319              		.cfi_register 65, 0
 5320 0008 93810010 		stw 28,16(1)
 5321              	.LBB3202:
 5322              	.LBB3203:
 5323              		.loc 13 1155 0
 5324 000c 3B830004 		addi 28,3,4
 5325              		.cfi_offset 28, -16
 5326              	.LBE3203:
 5327              	.LBE3202:
 5328              		.loc 13 1510 0
 5329 0010 90010024 		stw 0,36(1)
 5330 0014 93410008 		stw 26,8(1)
 5331              	.LBB3259:
 5332              	.LBB3224:
 5333              	.LBB3204:
 5334              		.loc 13 1155 0
 5335 0018 7F9AE378 		mr 26,28
 5336              		.cfi_offset 26, -24
 5337              		.cfi_offset 65, 4
 5338              	.LBE3204:
 5339              		.loc 4 200 0
 5340 001c 80030008 		lwz 0,8(3)
 5341              	.LBE3224:
 5342              	.LBE3259:
 5343              		.loc 13 1510 0
 5344 0020 93A10014 		stw 29,20(1)
 5345              	.LBB3260:
 5346              	.LBB3225:
 5347              	.LBB3217:
 5348              		.loc 13 1155 0
 5349 0024 7F9DE378 		mr 29,28
 5350              		.cfi_offset 29, -12
 5351              		.loc 13 1156 0
 5352 0028 2F800000 		cmpwi 7,0,0
 5353              	.LBE3217:
 5354              	.LBE3225:
 5355              	.LBE3260:
 5356              		.loc 13 1510 0
 5357 002c 93C10018 		stw 30,24(1)
 5358 0030 9361000C 		stw 27,12(1)
 5359 0034 7C7E1B78 		mr 30,3
 5360              		.cfi_offset 27, -20
 5361              		.cfi_offset 30, -8
 5362              	.LVL424:
 5363 0038 93E1001C 		stw 31,28(1)
 5364              	.LBB3261:
 5365              	.LBB3226:
 5366              	.LBB3218:
 5367              		.loc 13 1156 0
 5368 003c 419E0040 		beq- 7,.L308
 5369              		.cfi_offset 31, -4
 5370              	.LVL425:
 5371 0040 81640000 		lwz 11,0(4)
 5372 0044 7C1A0378 		mr 26,0
 5373 0048 48000010 		b .L319
 5374              	.LVL426:
 5375              	.L338:
 5376              	.LBE3218:
 5377              		.loc 4 200 0
 5378 004c 835A000C 		lwz 26,12(26)
 5379              	.LVL427:
 5380              	.LBB3219:
 5381              		.loc 13 1156 0
 5382 0050 2F9A0000 		cmpwi 7,26,0
 5383 0054 419E0024 		beq- 7,.L337
 5384              	.L319:
 5385              	.LVL428:
 5386              	.LBE3219:
 5387              		.loc 4 200 0
 5388 0058 813A0010 		lwz 9,16(26)
 5389              	.LBB3220:
 5390              	.LBB3205:
 5391              		.loc 13 1158 0
 5392 005c 7F895840 		cmplw 7,9,11
 5393 0060 41BCFFEC 		blt- 7,.L338
 5394              	.LVL429:
 5395              	.LBB3206:
 5396              		.loc 13 1160 0
 5397 0064 409D0094 		ble- 7,.L311
 5398              	.LVL430:
 5399              	.LBE3206:
 5400              	.LBE3205:
 5401              	.LBE3220:
 5402              		.loc 4 200 0
 5403 0068 7F5DD378 		mr 29,26
 5404              		.loc 13 1161 0
 5405 006c 835A0008 		lwz 26,8(26)
 5406              	.LVL431:
 5407              	.LBB3221:
 5408              		.loc 13 1156 0
 5409 0070 2F9A0000 		cmpwi 7,26,0
 5410 0074 409EFFE4 		bne+ 7,.L319
 5411              	.LVL432:
 5412              	.L337:
 5413 0078 7FBAEB78 		mr 26,29
 5414              	.LVL433:
 5415              	.L308:
 5416              	.LBE3221:
 5417              	.LBE3226:
 5418              	.LBB3227:
 5419              	.LBB3228:
 5420              		.loc 4 200 0
 5421 007c 813E000C 		lwz 9,12(30)
 5422              	.LBE3228:
 5423              	.LBE3227:
 5424              	.LBB3255:
 5425              	.LBB3222:
 5426 0080 837E0014 		lwz 27,20(30)
 5427              	.LVL434:
 5428              	.LBE3222:
 5429              	.LBE3255:
 5430              	.LBB3256:
 5431              	.LBB3253:
 5432              	.LBB3229:
 5433              		.loc 13 1500 0
 5434 0084 7F89D000 		cmpw 7,9,26
 5435 0088 419E00DC 		beq- 7,.L320
 5436              	.L324:
 5437              	.LVL435:
 5438              		.loc 13 1503 0
 5439 008c 7F9AE800 		cmpw 7,26,29
 5440 0090 419E0100 		beq- 7,.L339
 5441              	.LVL436:
 5442              	.L335:
 5443              	.LBB3230:
 5444              	.LBB3231:
 5445              		.loc 13 277 0
 5446 0094 7F43D378 		mr 3,26
 5447 0098 48000001 		bl _ZSt18_Rb_tree_incrementPKSt18_Rb_tree_node_base
 5448              	.LBE3231:
 5449              	.LBE3230:
 5450              	.LBB3233:
 5451              	.LBB3234:
 5452              	.LBB3235:
 5453              		.loc 13 1489 0
 5454 009c 7F84E378 		mr 4,28
 5455              	.LBE3235:
 5456              	.LBE3234:
 5457              	.LBE3233:
 5458              	.LBB3246:
 5459              	.LBB3232:
 5460              		.loc 13 277 0
 5461 00a0 7C7F1B78 		mr 31,3
 5462              	.LVL437:
 5463              	.LBE3232:
 5464              	.LBE3246:
 5465              	.LBB3247:
 5466              	.LBB3243:
 5467              	.LBB3240:
 5468              		.loc 13 1489 0
 5469 00a4 7F43D378 		mr 3,26
 5470              	.LVL438:
 5471 00a8 48000001 		bl _ZSt28_Rb_tree_rebalance_for_erasePSt18_Rb_tree_node_baseRS_
 5472              	.LBE3240:
 5473              	.LBE3243:
 5474              	.LBE3247:
 5475              		.loc 13 277 0
 5476 00ac 7FFAFB78 		mr 26,31
 5477              	.LVL439:
 5478              	.LBB3248:
 5479              	.LBB3244:
 5480              	.LBB3241:
 5481              	.LBB3236:
 5482              	.LBB3237:
 5483              	.LBB3238:
 5484              	.LBB3239:
 5485              		.loc 8 98 0
 5486 00b0 48000001 		bl _ZdlPv
 5487              	.LBE3239:
 5488              	.LBE3238:
 5489              	.LBE3237:
 5490              	.LBE3236:
 5491              	.LBE3241:
 5492              	.LBE3244:
 5493              	.LBE3248:
 5494              		.loc 13 1503 0
 5495 00b4 7F9FE800 		cmpw 7,31,29
 5496              	.LBB3249:
 5497              	.LBB3245:
 5498              	.LBB3242:
 5499              		.loc 13 1491 0
 5500 00b8 813E0014 		lwz 9,20(30)
 5501 00bc 3809FFFF 		addi 0,9,-1
 5502 00c0 901E0014 		stw 0,20(30)
 5503              	.LBE3242:
 5504              	.LBE3245:
 5505              	.LBE3249:
 5506              		.loc 13 1503 0
 5507 00c4 409EFFD0 		bne+ 7,.L335
 5508 00c8 7F60D850 		subf 27,0,27
 5509              	.LVL440:
 5510              	.L322:
 5511              	.LBE3229:
 5512              	.LBE3253:
 5513              	.LBE3256:
 5514              	.LBE3261:
 5515              		.loc 13 1517 0
 5516 00cc 80010024 		lwz 0,36(1)
 5517 00d0 7F63DB78 		mr 3,27
 5518 00d4 83410008 		lwz 26,8(1)
 5519 00d8 7C0803A6 		mtlr 0
 5520 00dc 8361000C 		lwz 27,12(1)
 5521 00e0 83810010 		lwz 28,16(1)
 5522 00e4 83A10014 		lwz 29,20(1)
 5523              	.LVL441:
 5524 00e8 83C10018 		lwz 30,24(1)
 5525              	.LVL442:
 5526 00ec 83E1001C 		lwz 31,28(1)
 5527 00f0 38210020 		addi 1,1,32
 5528              		.cfi_remember_state
 5529              	.LCFI84:
 5530              		.cfi_def_cfa_offset 0
 5531              		.cfi_restore 31
 5532              		.cfi_restore 30
 5533              		.cfi_restore 29
 5534              		.cfi_restore 28
 5535              		.cfi_restore 27
 5536              		.cfi_restore 26
 5537 00f4 4E800020 		blr
 5538              	.LVL443:
 5539              	.L311:
 5540              	.LCFI85:
 5541              		.cfi_restore_state
 5542              	.LBB3262:
 5543              	.LBB3257:
 5544              		.loc 4 200 0
 5545 00f8 815A0008 		lwz 10,8(26)
 5546              	.LVL444:
 5547 00fc 813A000C 		lwz 9,12(26)
 5548              	.LVL445:
 5549              	.L336:
 5550              	.LBB3223:
 5551              	.LBB3216:
 5552              	.LBB3215:
 5553              	.LBB3207:
 5554              	.LBB3208:
 5555              	.LBB3209:
 5556              		.loc 13 1089 0
 5557 0100 2F8A0000 		cmpwi 7,10,0
 5558 0104 419E0020 		beq- 7,.L312
 5559              	.L340:
 5560              	.LVL446:
 5561              		.loc 13 1090 0
 5562 0108 810A0010 		lwz 8,16(10)
 5563 010c 7F885840 		cmplw 7,8,11
 5564 0110 419C004C 		blt- 7,.L313
 5565              	.LVL447:
 5566              	.LBE3209:
 5567              		.loc 4 200 0
 5568 0114 7D5A5378 		mr 26,10
 5569              		.loc 13 1091 0
 5570 0118 814A0008 		lwz 10,8(10)
 5571              	.LVL448:
 5572              	.LBB3210:
 5573              		.loc 13 1089 0
 5574 011c 2F8A0000 		cmpwi 7,10,0
 5575 0120 409EFFE8 		bne+ 7,.L340
 5576              	.LVL449:
 5577              	.L312:
 5578              	.LBE3210:
 5579              	.LBE3208:
 5580              	.LBB3211:
 5581              	.LBB3212:
 5582              		.loc 13 1121 0
 5583 0124 2F890000 		cmpwi 7,9,0
 5584 0128 41BEFF54 		beq- 7,.L308
 5585              	.LVL450:
 5586              		.loc 13 1122 0
 5587 012c 81490010 		lwz 10,16(9)
 5588 0130 7F8A5840 		cmplw 7,10,11
 5589 0134 409D0020 		ble- 7,.L316
 5590              	.LVL451:
 5591              	.L341:
 5592              	.LBE3212:
 5593              		.loc 4 200 0
 5594 0138 7D3D4B78 		mr 29,9
 5595              		.loc 13 1123 0
 5596 013c 81290008 		lwz 9,8(9)
 5597              	.LVL452:
 5598              	.LBB3213:
 5599              		.loc 13 1121 0
 5600 0140 2F890000 		cmpwi 7,9,0
 5601 0144 41BEFF38 		beq- 7,.L308
 5602              	.LVL453:
 5603              		.loc 13 1122 0
 5604 0148 81490010 		lwz 10,16(9)
 5605 014c 7F8A5840 		cmplw 7,10,11
 5606 0150 41BDFFE8 		bgt- 7,.L341
 5607              	.LVL454:
 5608              	.L316:
 5609              	.LBE3213:
 5610              		.loc 4 200 0
 5611 0154 8129000C 		lwz 9,12(9)
 5612              	.LVL455:
 5613 0158 4BFFFFCC 		b .L312
 5614              	.LVL456:
 5615              	.L313:
 5616              	.LBE3211:
 5617              	.LBB3214:
 5618 015c 814A000C 		lwz 10,12(10)
 5619              	.LVL457:
 5620 0160 4BFFFFA0 		b .L336
 5621              	.LVL458:
 5622              	.L320:
 5623              	.LBE3214:
 5624              	.LBE3207:
 5625              	.LBE3215:
 5626              	.LBE3216:
 5627              	.LBE3223:
 5628              	.LBE3257:
 5629              	.LBB3258:
 5630              	.LBB3254:
 5631              	.LBB3252:
 5632              		.loc 13 1500 0
 5633 0164 7F9CE800 		cmpw 7,28,29
 5634 0168 409EFF24 		bne+ 7,.L324
 5635              	.LVL459:
 5636              	.LBB3250:
 5637              	.LBB3251:
 5638              		.loc 13 809 0
 5639 016c 7C040378 		mr 4,0
 5640              	.LVL460:
 5641 0170 7FC3F378 		mr 3,30
 5642              	.LVL461:
 5643 0174 48000001 		bl _ZNSt8_Rb_treeIPN7sigslot12_signal_baseINS0_15single_threadedEEES4_St9_IdentityIS4_ESt4lessIS4_
 5644              	.LVL462:
 5645              		.loc 13 811 0
 5646 0178 38000000 		li 0,0
 5647              		.loc 13 810 0
 5648 017c 939E000C 		stw 28,12(30)
 5649              	.LVL463:
 5650              		.loc 13 811 0
 5651 0180 901E0008 		stw 0,8(30)
 5652              	.LVL464:
 5653              		.loc 13 812 0
 5654 0184 939E0010 		stw 28,16(30)
 5655              		.loc 13 813 0
 5656 0188 901E0014 		stw 0,20(30)
 5657 018c 4BFFFF40 		b .L322
 5658              	.LVL465:
 5659              	.L339:
 5660              	.LBE3251:
 5661              	.LBE3250:
 5662              		.loc 13 1503 0
 5663 0190 3B600000 		li 27,0
 5664 0194 4BFFFF38 		b .L322
 5665              	.LBE3252:
 5666              	.LBE3254:
 5667              	.LBE3258:
 5668              	.LBE3262:
 5669              		.cfi_endproc
 5670              	.LFE1810:
 5671              		.size	_ZNSt8_Rb_treeIPN7sigslot12_signal_baseINS0_15single_threadedEEES4_St9_IdentityIS4_ESt4lessI
 5672              		.section	.text._ZN7sigslot7signal1IP8GuiFrameNS_15single_threadedEED2Ev,"axG",@progbits,_ZN7sigslo
 5673              		.align 2
 5674              		.weak	_ZN7sigslot7signal1IP8GuiFrameNS_15single_threadedEED2Ev
 5675              		.type	_ZN7sigslot7signal1IP8GuiFrameNS_15single_threadedEED2Ev, @function
 5676              	_ZN7sigslot7signal1IP8GuiFrameNS_15single_threadedEED2Ev:
 5677              	.LFB1534:
 5678              		.loc 1 2169 0
 5679              		.cfi_startproc
 5680              		.cfi_personality 0,__gxx_personality_v0
 5681              		.cfi_lsda 0,.LLSDA1534
 5682              	.LVL466:
 5683 0000 7C0802A6 		mflr 0
 5684 0004 9421FFD8 		stwu 1,-40(1)
 5685              	.LCFI86:
 5686              		.cfi_def_cfa_offset 40
 5687              		.cfi_register 65, 0
 5688              	.LBB3360:
 5689              	.LBB3361:
 5690              	.LBB3362:
 5691              	.LBB3363:
 5692              		.loc 1 705 0
 5693 0008 3D200000 		lis 9,_ZTVN7sigslot13_signal_base1IP8GuiFrameNS_15single_threadedEEE+8@ha
 5694              	.LBE3363:
 5695              	.LBE3362:
 5696              	.LBE3361:
 5697              	.LBE3360:
 5698              		.loc 1 2169 0
 5699 000c 93810018 		stw 28,24(1)
 5700 0010 7C7C1B78 		mr 28,3
 5701              		.cfi_offset 28, -16
 5702              	.LVL467:
 5703 0014 9001002C 		stw 0,44(1)
 5704              	.LBB3461:
 5705              	.LBB3456:
 5706              	.LBB3451:
 5707              	.LBB3446:
 5708              		.loc 1 705 0
 5709 0018 38090008 		la 0,_ZTVN7sigslot13_signal_base1IP8GuiFrameNS_15single_threadedEEE+8@l(9)
 5710              		.cfi_offset 65, 4
 5711              	.LBE3446:
 5712              	.LBE3451:
 5713              	.LBE3456:
 5714              	.LBE3461:
 5715              		.loc 1 2169 0
 5716 001c 93A1001C 		stw 29,28(1)
 5717 0020 3BA30004 		addi 29,3,4
 5718              		.cfi_offset 29, -12
 5719 0024 93C10020 		stw 30,32(1)
 5720 0028 93E10024 		stw 31,36(1)
 5721              	.LBB3462:
 5722              	.LBB3457:
 5723              	.LBB3452:
 5724              	.LBB3447:
 5725              		.loc 1 705 0
 5726 002c 90030000 		stw 0,0(3)
 5727              	.LVL468:
 5728              	.LEHB27:
 5729              	.LBB3364:
 5730              	.LBB3365:
 5731              	.LBB3366:
 5732              	.LBB3367:
 5733              		.loc 1 338 0
 5734              		.cfi_offset 31, -4
 5735              		.cfi_offset 30, -8
 5736 0030 48000001 		bl _ZN7sigslot15single_threaded4lockEv
 5737              	.LEHE27:
 5738              	.LVL469:
 5739              	.LBE3367:
 5740              	.LBE3366:
 5741              	.LBE3365:
 5742              		.loc 4 200 0
 5743 0034 7F9DE378 		mr 29,28
 5744              	.LVL470:
 5745 0038 87FD0004 		lwzu 31,4(29)
 5746              	.LVL471:
 5747              	.LBB3398:
 5748              		.loc 1 713 0
 5749 003c 7F9FE800 		cmpw 7,31,29
 5750 0040 419E00A8 		beq- 7,.L343
 5751              	.LVL472:
 5752              	.L381:
 5753              		.loc 1 715 0
 5754 0044 807F0008 		lwz 3,8(31)
 5755 0048 81230000 		lwz 9,0(3)
 5756 004c 80090008 		lwz 0,8(9)
 5757 0050 7C0903A6 		mtctr 0
 5758              	.LEHB28:
 5759 0054 4E800421 		bctrl
 5760              	.LBB3368:
 5761              	.LBB3369:
 5762              	.LBB3370:
 5763              	.LBB3371:
 5764              		.loc 1 338 0
 5765 0058 81230000 		lwz 9,0(3)
 5766              	.LBE3371:
 5767              	.LBE3370:
 5768              	.LBE3369:
 5769              	.LBE3368:
 5770              		.loc 1 715 0
 5771 005c 7C7E1B78 		mr 30,3
 5772              	.LVL473:
 5773 0060 93810008 		stw 28,8(1)
 5774              	.LVL474:
 5775              	.LBB3380:
 5776              	.LBB3379:
 5777              	.LBB3373:
 5778              	.LBB3372:
 5779              		.loc 1 338 0
 5780 0064 80090008 		lwz 0,8(9)
 5781 0068 7C0903A6 		mtctr 0
 5782 006c 4E800421 		bctrl
 5783              	.LVL475:
 5784              	.LBE3372:
 5785              	.LBE3373:
 5786              	.LBB3374:
 5787              	.LBB3375:
 5788              		.file 14 "d:\\devkitpro\\devkitppc\\bin\\../lib/gcc/powerpc-eabi/4.6.3/../../../../powerpc-eabi/in
 5789              		.loc 14 528 0
 5790 0070 387E0004 		addi 3,30,4
 5791 0074 38810008 		addi 4,1,8
 5792 0078 48000001 		bl _ZNSt8_Rb_treeIPN7sigslot12_signal_baseINS0_15single_threadedEEES4_St9_IdentityIS4_ESt4lessIS4_
 5793              	.LVL476:
 5794              	.LBE3375:
 5795              	.LBE3374:
 5796              	.LBB3376:
 5797              	.LBB3377:
 5798              	.LBB3378:
 5799              		.loc 1 343 0
 5800 007c 813E0000 		lwz 9,0(30)
 5801 0080 7FC3F378 		mr 3,30
 5802 0084 8009000C 		lwz 0,12(9)
 5803 0088 7C0903A6 		mtctr 0
 5804 008c 4E800421 		bctrl
 5805              	.LVL477:
 5806              	.LBE3378:
 5807              	.LBE3377:
 5808              	.LBE3376:
 5809              	.LBE3379:
 5810              	.LBE3380:
 5811              		.loc 1 716 0
 5812 0090 807F0008 		lwz 3,8(31)
 5813 0094 2F830000 		cmpwi 7,3,0
 5814 0098 419E0014 		beq- 7,.L345
 5815 009c 81230000 		lwz 9,0(3)
 5816 00a0 80090004 		lwz 0,4(9)
 5817 00a4 7C0903A6 		mtctr 0
 5818 00a8 4E800421 		bctrl
 5819              	.LEHE28:
 5820              	.L345:
 5821              	.LVL478:
 5822              	.LBB3381:
 5823              	.LBB3382:
 5824              		.loc 7 234 0
 5825 00ac 83FF0000 		lwz 31,0(31)
 5826              	.LVL479:
 5827              	.LBE3382:
 5828              	.LBE3381:
 5829              		.loc 1 713 0
 5830 00b0 7F9DF800 		cmpw 7,29,31
 5831 00b4 409EFF90 		bne+ 7,.L381
 5832              	.LBE3398:
 5833              		.loc 4 200 0
 5834 00b8 83FC0004 		lwz 31,4(28)
 5835              	.LVL480:
 5836              	.LBB3399:
 5837              	.LBB3383:
 5838              	.LBB3384:
 5839              		.loc 7 1162 0
 5840 00bc 7F9DF800 		cmpw 7,29,31
 5841 00c0 40BE000C 		bne+ 7,.L383
 5842 00c4 48000024 		b .L343
 5843              	.LVL481:
 5844              	.L376:
 5845              		.loc 7 1163 0
 5846 00c8 7FDFF378 		mr 31,30
 5847              	.LVL482:
 5848              	.L383:
 5849              	.LBB3385:
 5850              	.LBB3386:
 5851              		.file 15 "d:\\devkitpro\\devkitppc\\bin\\../lib/gcc/powerpc-eabi/4.6.3/../../../../powerpc-eabi/in
 5852              		.loc 15 112 0
 5853 00cc 83DF0000 		lwz 30,0(31)
 5854              	.LVL483:
 5855              	.LBB3387:
 5856              	.LBB3388:
 5857              		.loc 7 1532 0
 5858 00d0 7FE3FB78 		mr 3,31
 5859 00d4 48000001 		bl _ZNSt8__detail15_List_node_base9_M_unhookEv
 5860              	.LVL484:
 5861              	.LBB3389:
 5862              	.LBB3390:
 5863              	.LBB3391:
 5864              		.loc 8 98 0
 5865 00d8 7FE3FB78 		mr 3,31
 5866 00dc 48000001 		bl _ZdlPv
 5867              	.LVL485:
 5868              	.LBE3391:
 5869              	.LBE3390:
 5870              	.LBE3389:
 5871              	.LBE3388:
 5872              	.LBE3387:
 5873              	.LBE3386:
 5874              	.LBE3385:
 5875              		.loc 7 1162 0
 5876 00e0 7F9DF000 		cmpw 7,29,30
 5877 00e4 409EFFE4 		bne+ 7,.L376
 5878              	.LVL486:
 5879              	.L343:
 5880              	.LBE3384:
 5881              	.LBE3383:
 5882              	.LBB3392:
 5883              	.LBB3393:
 5884              	.LBB3394:
 5885              		.loc 1 343 0
 5886 00e8 813C0000 		lwz 9,0(28)
 5887 00ec 7F83E378 		mr 3,28
 5888 00f0 8009000C 		lwz 0,12(9)
 5889 00f4 7C0903A6 		mtctr 0
 5890              	.LEHB29:
 5891 00f8 4E800421 		bctrl
 5892              	.LEHE29:
 5893              	.LBE3394:
 5894              	.LBE3393:
 5895              	.LBE3392:
 5896              	.LBE3399:
 5897              	.LBE3364:
 5898              	.LBB3401:
 5899              	.LBB3402:
 5900              	.LBB3403:
 5901              	.LBB3404:
 5902              	.LBB3405:
 5903              	.LBB3406:
 5904              		.loc 15 70 0
 5905 00fc 807C0004 		lwz 3,4(28)
 5906              	.LVL487:
 5907              		.loc 15 71 0
 5908 0100 7F83E800 		cmpw 7,3,29
 5909 0104 40BE000C 		bne+ 7,.L385
 5910 0108 48000018 		b .L361
 5911              	.LVL488:
 5912              	.L377:
 5913              		.loc 15 74 0
 5914 010c 7FE3FB78 		mr 3,31
 5915              	.LVL489:
 5916              	.L385:
 5917              	.LBB3407:
 5918 0110 83E30000 		lwz 31,0(3)
 5919              	.LVL490:
 5920              	.LBB3408:
 5921              	.LBB3409:
 5922              	.LBB3410:
 5923              		.loc 8 98 0
 5924 0114 48000001 		bl _ZdlPv
 5925              	.LVL491:
 5926              	.LBE3410:
 5927              	.LBE3409:
 5928              	.LBE3408:
 5929              	.LBE3407:
 5930              		.loc 15 71 0
 5931 0118 7F9FE800 		cmpw 7,31,29
 5932 011c 409EFFF0 		bne+ 7,.L377
 5933              	.LVL492:
 5934              	.L361:
 5935              	.LBE3406:
 5936              	.LBE3405:
 5937              	.LBE3404:
 5938              	.LBE3403:
 5939              	.LBE3402:
 5940              	.LBE3401:
 5941              	.LBB3411:
 5942              	.LBB3412:
 5943              	.LBB3413:
 5944              	.LBB3414:
 5945              	.LBB3415:
 5946              	.LBB3416:
 5947              		.loc 1 105 0
 5948 0120 3D200000 		lis 9,_ZTVN7sigslot15single_threadedE+8@ha
 5949              	.LBE3416:
 5950              	.LBE3415:
 5951              	.LBE3414:
 5952              	.LBE3413:
 5953              	.LBE3412:
 5954              	.LBE3411:
 5955              	.LBE3447:
 5956              	.LBE3452:
 5957              	.LBE3457:
 5958              	.LBE3462:
 5959              		.loc 1 2172 0
 5960 0124 83A1001C 		lwz 29,28(1)
 5961              	.LVL493:
 5962              	.LBB3463:
 5963              	.LBB3458:
 5964              	.LBB3453:
 5965              	.LBB3448:
 5966              	.LBB3427:
 5967              	.LBB3425:
 5968              	.LBB3423:
 5969              	.LBB3421:
 5970              	.LBB3419:
 5971              	.LBB3417:
 5972              		.loc 1 105 0
 5973 0128 38090008 		la 0,_ZTVN7sigslot15single_threadedE+8@l(9)
 5974              	.LBE3417:
 5975              	.LBE3419:
 5976              	.LBE3421:
 5977              	.LBE3423:
 5978              	.LBE3425:
 5979              	.LBE3427:
 5980              	.LBE3448:
 5981              	.LBE3453:
 5982              	.LBE3458:
 5983              	.LBE3463:
 5984              		.loc 1 2172 0
 5985 012c 83C10020 		lwz 30,32(1)
 5986              	.LBB3464:
 5987              	.LBB3459:
 5988              	.LBB3454:
 5989              	.LBB3449:
 5990              	.LBB3428:
 5991              	.LBB3426:
 5992              	.LBB3424:
 5993              	.LBB3422:
 5994              	.LBB3420:
 5995              	.LBB3418:
 5996              		.loc 1 105 0
 5997 0130 901C0000 		stw 0,0(28)
 5998              	.LBE3418:
 5999              	.LBE3420:
 6000              	.LBE3422:
 6001              	.LBE3424:
 6002              	.LBE3426:
 6003              	.LBE3428:
 6004              	.LBE3449:
 6005              	.LBE3454:
 6006              	.LBE3459:
 6007              	.LBE3464:
 6008              		.loc 1 2172 0
 6009 0134 8001002C 		lwz 0,44(1)
 6010 0138 83810018 		lwz 28,24(1)
 6011              	.LVL494:
 6012 013c 7C0803A6 		mtlr 0
 6013 0140 83E10024 		lwz 31,36(1)
 6014 0144 38210028 		addi 1,1,40
 6015              		.cfi_remember_state
 6016              	.LCFI87:
 6017              		.cfi_def_cfa_offset 0
 6018              		.cfi_restore 31
 6019              		.cfi_restore 30
 6020              		.cfi_restore 29
 6021              		.cfi_restore 28
 6022 0148 4E800020 		blr
 6023              	.LVL495:
 6024              	.L379:
 6025              	.LCFI88:
 6026              		.cfi_restore_state
 6027 014c 7C7F1B78 		mr 31,3
 6028              	.L353:
 6029              	.LBB3465:
 6030              	.LBB3460:
 6031              	.LBB3455:
 6032              	.LBB3450:
 6033              	.LBB3429:
 6034              	.LBB3430:
 6035              	.LBB3431:
 6036              	.LBB3432:
 6037              	.LBB3433:
 6038              	.LBB3434:
 6039              		.loc 15 70 0
 6040 0150 807C0004 		lwz 3,4(28)
 6041              	.LVL496:
 6042              		.loc 15 71 0
 6043 0154 7F83E800 		cmpw 7,3,29
 6044 0158 419E0038 		beq- 7,.L370
 6045              	.LVL497:
 6046              	.L386:
 6047              	.LBB3435:
 6048              		.loc 15 74 0
 6049 015c 83C30000 		lwz 30,0(3)
 6050              	.LVL498:
 6051              	.LBB3436:
 6052              	.LBB3437:
 6053              	.LBB3438:
 6054              		.loc 8 98 0
 6055 0160 48000001 		bl _ZdlPv
 6056              	.LVL499:
 6057              	.LBE3438:
 6058              	.LBE3437:
 6059              	.LBE3436:
 6060              	.LBE3435:
 6061              		.loc 15 71 0
 6062 0164 7F9EE800 		cmpw 7,30,29
 6063 0168 419E0028 		beq- 7,.L370
 6064              		.loc 15 74 0
 6065 016c 7FC3F378 		mr 3,30
 6066 0170 4BFFFFEC 		b .L386
 6067              	.LVL500:
 6068              	.L380:
 6069              	.LBE3434:
 6070              	.LBE3433:
 6071              	.LBE3432:
 6072              	.LBE3431:
 6073              	.LBE3430:
 6074              	.LBE3429:
 6075              	.LBB3439:
 6076              	.LBB3400:
 6077              	.LBB3395:
 6078              	.LBB3396:
 6079              	.LBB3397:
 6080              		.loc 1 343 0
 6081 0174 813C0000 		lwz 9,0(28)
 6082 0178 7C7F1B78 		mr 31,3
 6083              	.LVL501:
 6084 017c 7F83E378 		mr 3,28
 6085 0180 8009000C 		lwz 0,12(9)
 6086 0184 7C0903A6 		mtctr 0
 6087 0188 4E800421 		bctrl
 6088 018c 4BFFFFC4 		b .L353
 6089              	.LVL502:
 6090              	.L370:
 6091              	.LBE3397:
 6092              	.LBE3396:
 6093              	.LBE3395:
 6094              	.LBE3400:
 6095              	.LBE3439:
 6096              	.LBB3440:
 6097              	.LBB3441:
 6098              	.LBB3442:
 6099              	.LBB3443:
 6100              	.LBB3444:
 6101              	.LBB3445:
 6102              		.loc 1 105 0
 6103 0190 3D200000 		lis 9,_ZTVN7sigslot15single_threadedE+8@ha
 6104 0194 7FE3FB78 		mr 3,31
 6105 0198 38090008 		la 0,_ZTVN7sigslot15single_threadedE+8@l(9)
 6106 019c 901C0000 		stw 0,0(28)
 6107              	.LEHB30:
 6108 01a0 48000001 		bl _Unwind_Resume
 6109              	.LEHE30:
 6110              	.LBE3445:
 6111              	.LBE3444:
 6112              	.LBE3443:
 6113              	.LBE3442:
 6114              	.LBE3441:
 6115              	.LBE3440:
 6116              	.LBE3450:
 6117              	.LBE3455:
 6118              	.LBE3460:
 6119              	.LBE3465:
 6120              		.cfi_endproc
 6121              	.LFE1534:
 6122              		.section	.gcc_except_table
 6123              	.LLSDA1534:
 6124 009b FF       		.byte	0xff
 6125 009c FF       		.byte	0xff
 6126 009d 01       		.byte	0x1
 6127 009e 15       		.uleb128 .LLSDACSE1534-.LLSDACSB1534
 6128              	.LLSDACSB1534:
 6129 009f 30       		.uleb128 .LEHB27-.LFB1534
 6130 00a0 04       		.uleb128 .LEHE27-.LEHB27
 6131 00a1 CC02     		.uleb128 .L379-.LFB1534
 6132 00a3 00       		.uleb128 0
 6133 00a4 54       		.uleb128 .LEHB28-.LFB1534
 6134 00a5 58       		.uleb128 .LEHE28-.LEHB28
 6135 00a6 F402     		.uleb128 .L380-.LFB1534
 6136 00a8 00       		.uleb128 0
 6137 00a9 F801     		.uleb128 .LEHB29-.LFB1534
 6138 00ab 04       		.uleb128 .LEHE29-.LEHB29
 6139 00ac CC02     		.uleb128 .L379-.LFB1534
 6140 00ae 00       		.uleb128 0
 6141 00af A003     		.uleb128 .LEHB30-.LFB1534
 6142 00b1 04       		.uleb128 .LEHE30-.LEHB30
 6143 00b2 00       		.uleb128 0
 6144 00b3 00       		.uleb128 0
 6145              	.LLSDACSE1534:
 6146              		.section	.text._ZN7sigslot7signal1IP8GuiFrameNS_15single_threadedEED2Ev,"axG",@progbits,_ZN7sigslo
 6147              		.size	_ZN7sigslot7signal1IP8GuiFrameNS_15single_threadedEED2Ev, .-_ZN7sigslot7signal1IP8GuiFrameNS
 6148              		.section	.text._ZN7sigslot7signal3IP10GuiElementiiNS_15single_threadedEED0Ev,"axG",@progbits,_ZN7s
 6149              		.align 2
 6150              		.weak	_ZN7sigslot7signal3IP10GuiElementiiNS_15single_threadedEED0Ev
 6151              		.type	_ZN7sigslot7signal3IP10GuiElementiiNS_15single_threadedEED0Ev, @function
 6152              	_ZN7sigslot7signal3IP10GuiElementiiNS_15single_threadedEED0Ev:
 6153              	.LFB1515:
 6154              		.loc 1 2302 0
 6155              		.cfi_startproc
 6156              		.cfi_personality 0,__gxx_personality_v0
 6157              		.cfi_lsda 0,.LLSDA1515
 6158              	.LVL503:
 6159 0000 7C0802A6 		mflr 0
 6160 0004 9421FFD8 		stwu 1,-40(1)
 6161              	.LCFI89:
 6162              		.cfi_def_cfa_offset 40
 6163              		.cfi_register 65, 0
 6164              	.LBB3564:
 6165              	.LBB3565:
 6166              	.LBB3566:
 6167              	.LBB3567:
 6168              	.LBB3568:
 6169              	.LBB3569:
 6170              		.loc 1 946 0
 6171 0008 3D200000 		lis 9,_ZTVN7sigslot13_signal_base3IP10GuiElementiiNS_15single_threadedEEE+8@ha
 6172              	.LBE3569:
 6173              	.LBE3568:
 6174              	.LBE3567:
 6175              	.LBE3566:
 6176              	.LBE3565:
 6177              	.LBE3564:
 6178              		.loc 1 2302 0
 6179 000c 93810018 		stw 28,24(1)
 6180 0010 7C7C1B78 		mr 28,3
 6181              		.cfi_offset 28, -16
 6182              	.LVL504:
 6183 0014 9001002C 		stw 0,44(1)
 6184              	.LBB3666:
 6185              	.LBB3662:
 6186              	.LBB3658:
 6187              	.LBB3654:
 6188              	.LBB3650:
 6189              	.LBB3646:
 6190              		.loc 1 946 0
 6191 0018 38090008 		la 0,_ZTVN7sigslot13_signal_base3IP10GuiElementiiNS_15single_threadedEEE+8@l(9)
 6192              		.cfi_offset 65, 4
 6193              	.LBE3646:
 6194              	.LBE3650:
 6195              	.LBE3654:
 6196              	.LBE3658:
 6197              	.LBE3662:
 6198              	.LBE3666:
 6199              		.loc 1 2302 0
 6200 001c 93A1001C 		stw 29,28(1)
 6201 0020 3BA30004 		addi 29,3,4
 6202              		.cfi_offset 29, -12
 6203 0024 93C10020 		stw 30,32(1)
 6204 0028 93E10024 		stw 31,36(1)
 6205              	.LBB3667:
 6206              	.LBB3663:
 6207              	.LBB3659:
 6208              	.LBB3655:
 6209              	.LBB3651:
 6210              	.LBB3647:
 6211              		.loc 1 946 0
 6212 002c 90030000 		stw 0,0(3)
 6213              	.LVL505:
 6214              	.LEHB31:
 6215              	.LBB3570:
 6216              	.LBB3571:
 6217              	.LBB3572:
 6218              	.LBB3573:
 6219              		.loc 1 338 0
 6220              		.cfi_offset 31, -4
 6221              		.cfi_offset 30, -8
 6222 0030 48000001 		bl _ZN7sigslot15single_threaded4lockEv
 6223              	.LEHE31:
 6224              	.LVL506:
 6225              	.LBE3573:
 6226              	.LBE3572:
 6227              	.LBE3571:
 6228              		.loc 4 200 0
 6229 0034 7F9DE378 		mr 29,28
 6230 0038 87FD0004 		lwzu 31,4(29)
 6231              	.LVL507:
 6232              	.LBB3604:
 6233              		.loc 1 954 0
 6234 003c 7F9FE800 		cmpw 7,31,29
 6235 0040 419E00A8 		beq- 7,.L388
 6236              	.LVL508:
 6237              	.L427:
 6238              		.loc 1 956 0
 6239 0044 807F0008 		lwz 3,8(31)
 6240 0048 81230000 		lwz 9,0(3)
 6241 004c 80090008 		lwz 0,8(9)
 6242 0050 7C0903A6 		mtctr 0
 6243              	.LEHB32:
 6244 0054 4E800421 		bctrl
 6245              	.LBB3574:
 6246              	.LBB3575:
 6247              	.LBB3576:
 6248              	.LBB3577:
 6249              		.loc 1 338 0
 6250 0058 81230000 		lwz 9,0(3)
 6251              	.LBE3577:
 6252              	.LBE3576:
 6253              	.LBE3575:
 6254              	.LBE3574:
 6255              		.loc 1 956 0
 6256 005c 7C7E1B78 		mr 30,3
 6257              	.LVL509:
 6258 0060 93810008 		stw 28,8(1)
 6259              	.LVL510:
 6260              	.LBB3586:
 6261              	.LBB3585:
 6262              	.LBB3579:
 6263              	.LBB3578:
 6264              		.loc 1 338 0
 6265 0064 80090008 		lwz 0,8(9)
 6266 0068 7C0903A6 		mtctr 0
 6267 006c 4E800421 		bctrl
 6268              	.LVL511:
 6269              	.LBE3578:
 6270              	.LBE3579:
 6271              	.LBB3580:
 6272              	.LBB3581:
 6273              		.loc 14 528 0
 6274 0070 387E0004 		addi 3,30,4
 6275 0074 38810008 		addi 4,1,8
 6276 0078 48000001 		bl _ZNSt8_Rb_treeIPN7sigslot12_signal_baseINS0_15single_threadedEEES4_St9_IdentityIS4_ESt4lessIS4_
 6277              	.LVL512:
 6278              	.LBE3581:
 6279              	.LBE3580:
 6280              	.LBB3582:
 6281              	.LBB3583:
 6282              	.LBB3584:
 6283              		.loc 1 343 0
 6284 007c 813E0000 		lwz 9,0(30)
 6285 0080 7FC3F378 		mr 3,30
 6286 0084 8009000C 		lwz 0,12(9)
 6287 0088 7C0903A6 		mtctr 0
 6288 008c 4E800421 		bctrl
 6289              	.LVL513:
 6290              	.LBE3584:
 6291              	.LBE3583:
 6292              	.LBE3582:
 6293              	.LBE3585:
 6294              	.LBE3586:
 6295              		.loc 1 957 0
 6296 0090 807F0008 		lwz 3,8(31)
 6297 0094 2F830000 		cmpwi 7,3,0
 6298 0098 419E0014 		beq- 7,.L390
 6299 009c 81230000 		lwz 9,0(3)
 6300 00a0 80090004 		lwz 0,4(9)
 6301 00a4 7C0903A6 		mtctr 0
 6302 00a8 4E800421 		bctrl
 6303              	.LEHE32:
 6304              	.L390:
 6305              	.LVL514:
 6306              	.LBB3587:
 6307              	.LBB3588:
 6308              		.loc 7 234 0
 6309 00ac 83FF0000 		lwz 31,0(31)
 6310              	.LVL515:
 6311              	.LBE3588:
 6312              	.LBE3587:
 6313              		.loc 1 954 0
 6314 00b0 7F9DF800 		cmpw 7,29,31
 6315 00b4 409EFF90 		bne+ 7,.L427
 6316              	.LBE3604:
 6317              		.loc 4 200 0
 6318 00b8 83FC0004 		lwz 31,4(28)
 6319              	.LVL516:
 6320              	.LBB3605:
 6321              	.LBB3589:
 6322              	.LBB3590:
 6323              		.loc 7 1162 0
 6324 00bc 7F9DF800 		cmpw 7,29,31
 6325 00c0 40BE000C 		bne+ 7,.L429
 6326 00c4 48000024 		b .L388
 6327              	.LVL517:
 6328              	.L422:
 6329              		.loc 7 1163 0
 6330 00c8 7FDFF378 		mr 31,30
 6331              	.LVL518:
 6332              	.L429:
 6333              	.LBB3591:
 6334              	.LBB3592:
 6335              		.loc 15 112 0
 6336 00cc 83DF0000 		lwz 30,0(31)
 6337              	.LVL519:
 6338              	.LBB3593:
 6339              	.LBB3594:
 6340              		.loc 7 1532 0
 6341 00d0 7FE3FB78 		mr 3,31
 6342 00d4 48000001 		bl _ZNSt8__detail15_List_node_base9_M_unhookEv
 6343              	.LVL520:
 6344              	.LBB3595:
 6345              	.LBB3596:
 6346              	.LBB3597:
 6347              		.loc 8 98 0
 6348 00d8 7FE3FB78 		mr 3,31
 6349 00dc 48000001 		bl _ZdlPv
 6350              	.LVL521:
 6351              	.LBE3597:
 6352              	.LBE3596:
 6353              	.LBE3595:
 6354              	.LBE3594:
 6355              	.LBE3593:
 6356              	.LBE3592:
 6357              	.LBE3591:
 6358              		.loc 7 1162 0
 6359 00e0 7F9DF000 		cmpw 7,29,30
 6360 00e4 409EFFE4 		bne+ 7,.L422
 6361              	.LVL522:
 6362              	.L388:
 6363              	.LBE3590:
 6364              	.LBE3589:
 6365              	.LBB3598:
 6366              	.LBB3599:
 6367              	.LBB3600:
 6368              		.loc 1 343 0
 6369 00e8 813C0000 		lwz 9,0(28)
 6370 00ec 7F83E378 		mr 3,28
 6371 00f0 8009000C 		lwz 0,12(9)
 6372 00f4 7C0903A6 		mtctr 0
 6373              	.LEHB33:
 6374 00f8 4E800421 		bctrl
 6375              	.LEHE33:
 6376              	.LBE3600:
 6377              	.LBE3599:
 6378              	.LBE3598:
 6379              	.LBE3605:
 6380              	.LBE3570:
 6381              	.LBB3607:
 6382              	.LBB3608:
 6383              	.LBB3609:
 6384              	.LBB3610:
 6385              	.LBB3611:
 6386              	.LBB3612:
 6387              		.loc 15 70 0
 6388 00fc 807C0004 		lwz 3,4(28)
 6389              	.LVL523:
 6390              		.loc 15 71 0
 6391 0100 7F83E800 		cmpw 7,3,29
 6392 0104 40BE000C 		bne+ 7,.L431
 6393 0108 48000018 		b .L406
 6394              	.LVL524:
 6395              	.L423:
 6396              		.loc 15 74 0
 6397 010c 7FE3FB78 		mr 3,31
 6398              	.LVL525:
 6399              	.L431:
 6400              	.LBB3613:
 6401 0110 83E30000 		lwz 31,0(3)
 6402              	.LVL526:
 6403              	.LBB3614:
 6404              	.LBB3615:
 6405              	.LBB3616:
 6406              		.loc 8 98 0
 6407 0114 48000001 		bl _ZdlPv
 6408              	.LVL527:
 6409              	.LBE3616:
 6410              	.LBE3615:
 6411              	.LBE3614:
 6412              	.LBE3613:
 6413              		.loc 15 71 0
 6414 0118 7F9FE800 		cmpw 7,31,29
 6415 011c 409EFFF0 		bne+ 7,.L423
 6416              	.LVL528:
 6417              	.L406:
 6418              	.LBE3612:
 6419              	.LBE3611:
 6420              	.LBE3610:
 6421              	.LBE3609:
 6422              	.LBE3608:
 6423              	.LBE3607:
 6424              	.LBB3617:
 6425              	.LBB3618:
 6426              	.LBB3619:
 6427              	.LBB3620:
 6428              	.LBB3621:
 6429              	.LBB3622:
 6430              		.loc 1 105 0
 6431 0120 3D200000 		lis 9,_ZTVN7sigslot15single_threadedE+8@ha
 6432              	.LBE3622:
 6433              	.LBE3621:
 6434              	.LBE3620:
 6435              	.LBE3619:
 6436              	.LBE3618:
 6437              	.LBE3617:
 6438              	.LBE3647:
 6439              	.LBE3651:
 6440              	.LBE3655:
 6441              	.LBE3659:
 6442              	.LBE3663:
 6443              	.LBE3667:
 6444              		.loc 1 2305 0
 6445 0124 7F83E378 		mr 3,28
 6446              	.LBB3668:
 6447              	.LBB3664:
 6448              	.LBB3660:
 6449              	.LBB3656:
 6450              	.LBB3652:
 6451              	.LBB3648:
 6452              	.LBB3628:
 6453              	.LBB3627:
 6454              	.LBB3626:
 6455              	.LBB3625:
 6456              	.LBB3624:
 6457              	.LBB3623:
 6458              		.loc 1 105 0
 6459 0128 38090008 		la 0,_ZTVN7sigslot15single_threadedE+8@l(9)
 6460 012c 901C0000 		stw 0,0(28)
 6461              	.LBE3623:
 6462              	.LBE3624:
 6463              	.LBE3625:
 6464              	.LBE3626:
 6465              	.LBE3627:
 6466              	.LBE3628:
 6467              	.LBE3648:
 6468              	.LBE3652:
 6469              	.LBE3656:
 6470              	.LBE3660:
 6471              	.LBE3664:
 6472              	.LBE3668:
 6473              		.loc 1 2305 0
 6474 0130 48000001 		bl _ZdlPv
 6475 0134 8001002C 		lwz 0,44(1)
 6476 0138 83810018 		lwz 28,24(1)
 6477              	.LVL529:
 6478 013c 7C0803A6 		mtlr 0
 6479 0140 83A1001C 		lwz 29,28(1)
 6480              	.LVL530:
 6481 0144 83C10020 		lwz 30,32(1)
 6482 0148 83E10024 		lwz 31,36(1)
 6483 014c 38210028 		addi 1,1,40
 6484              		.cfi_remember_state
 6485              	.LCFI90:
 6486              		.cfi_def_cfa_offset 0
 6487              		.cfi_restore 31
 6488              		.cfi_restore 30
 6489              		.cfi_restore 29
 6490              		.cfi_restore 28
 6491 0150 4E800020 		blr
 6492              	.LVL531:
 6493              	.L425:
 6494              	.LCFI91:
 6495              		.cfi_restore_state
 6496 0154 7C7F1B78 		mr 31,3
 6497              	.L398:
 6498              	.LBB3669:
 6499              	.LBB3665:
 6500              	.LBB3661:
 6501              	.LBB3657:
 6502              	.LBB3653:
 6503              	.LBB3649:
 6504              	.LBB3629:
 6505              	.LBB3630:
 6506              	.LBB3631:
 6507              	.LBB3632:
 6508              	.LBB3633:
 6509              	.LBB3634:
 6510              		.loc 15 70 0
 6511 0158 807C0004 		lwz 3,4(28)
 6512              	.LVL532:
 6513              		.loc 15 71 0
 6514 015c 7F83E800 		cmpw 7,3,29
 6515 0160 419E0038 		beq- 7,.L415
 6516              	.LVL533:
 6517              	.L432:
 6518              	.LBB3635:
 6519              		.loc 15 74 0
 6520 0164 83C30000 		lwz 30,0(3)
 6521              	.LVL534:
 6522              	.LBB3636:
 6523              	.LBB3637:
 6524              	.LBB3638:
 6525              		.loc 8 98 0
 6526 0168 48000001 		bl _ZdlPv
 6527              	.LVL535:
 6528              	.LBE3638:
 6529              	.LBE3637:
 6530              	.LBE3636:
 6531              	.LBE3635:
 6532              		.loc 15 71 0
 6533 016c 7F9EE800 		cmpw 7,30,29
 6534 0170 419E0028 		beq- 7,.L415
 6535              		.loc 15 74 0
 6536 0174 7FC3F378 		mr 3,30
 6537 0178 4BFFFFEC 		b .L432
 6538              	.LVL536:
 6539              	.L426:
 6540              	.LBE3634:
 6541              	.LBE3633:
 6542              	.LBE3632:
 6543              	.LBE3631:
 6544              	.LBE3630:
 6545              	.LBE3629:
 6546              	.LBB3639:
 6547              	.LBB3606:
 6548              	.LBB3601:
 6549              	.LBB3602:
 6550              	.LBB3603:
 6551              		.loc 1 343 0
 6552 017c 813C0000 		lwz 9,0(28)
 6553 0180 7C7F1B78 		mr 31,3
 6554              	.LVL537:
 6555 0184 7F83E378 		mr 3,28
 6556 0188 8009000C 		lwz 0,12(9)
 6557 018c 7C0903A6 		mtctr 0
 6558 0190 4E800421 		bctrl
 6559 0194 4BFFFFC4 		b .L398
 6560              	.LVL538:
 6561              	.L415:
 6562              	.LBE3603:
 6563              	.LBE3602:
 6564              	.LBE3601:
 6565              	.LBE3606:
 6566              	.LBE3639:
 6567              	.LBB3640:
 6568              	.LBB3641:
 6569              	.LBB3642:
 6570              	.LBB3643:
 6571              	.LBB3644:
 6572              	.LBB3645:
 6573              		.loc 1 105 0
 6574 0198 3D200000 		lis 9,_ZTVN7sigslot15single_threadedE+8@ha
 6575 019c 7FE3FB78 		mr 3,31
 6576 01a0 38090008 		la 0,_ZTVN7sigslot15single_threadedE+8@l(9)
 6577 01a4 901C0000 		stw 0,0(28)
 6578              	.LEHB34:
 6579 01a8 48000001 		bl _Unwind_Resume
 6580              	.LEHE34:
 6581              	.LBE3645:
 6582              	.LBE3644:
 6583              	.LBE3643:
 6584              	.LBE3642:
 6585              	.LBE3641:
 6586              	.LBE3640:
 6587              	.LBE3649:
 6588              	.LBE3653:
 6589              	.LBE3657:
 6590              	.LBE3661:
 6591              	.LBE3665:
 6592              	.LBE3669:
 6593              		.cfi_endproc
 6594              	.LFE1515:
 6595              		.section	.gcc_except_table
 6596              	.LLSDA1515:
 6597 00b4 FF       		.byte	0xff
 6598 00b5 FF       		.byte	0xff
 6599 00b6 01       		.byte	0x1
 6600 00b7 15       		.uleb128 .LLSDACSE1515-.LLSDACSB1515
 6601              	.LLSDACSB1515:
 6602 00b8 30       		.uleb128 .LEHB31-.LFB1515
 6603 00b9 04       		.uleb128 .LEHE31-.LEHB31
 6604 00ba D402     		.uleb128 .L425-.LFB1515
 6605 00bc 00       		.uleb128 0
 6606 00bd 54       		.uleb128 .LEHB32-.LFB1515
 6607 00be 58       		.uleb128 .LEHE32-.LEHB32
 6608 00bf FC02     		.uleb128 .L426-.LFB1515
 6609 00c1 00       		.uleb128 0
 6610 00c2 F801     		.uleb128 .LEHB33-.LFB1515
 6611 00c4 04       		.uleb128 .LEHE33-.LEHB33
 6612 00c5 D402     		.uleb128 .L425-.LFB1515
 6613 00c7 00       		.uleb128 0
 6614 00c8 A803     		.uleb128 .LEHB34-.LFB1515
 6615 00ca 04       		.uleb128 .LEHE34-.LEHB34
 6616 00cb 00       		.uleb128 0
 6617 00cc 00       		.uleb128 0
 6618              	.LLSDACSE1515:
 6619              		.section	.text._ZN7sigslot7signal3IP10GuiElementiiNS_15single_threadedEED0Ev,"axG",@progbits,_ZN7s
 6620              		.size	_ZN7sigslot7signal3IP10GuiElementiiNS_15single_threadedEED0Ev, .-_ZN7sigslot7signal3IP10GuiE
 6621              		.section	.text._ZN7sigslot13_signal_base1IP8GuiFrameNS_15single_threadedEED2Ev,"axG",@progbits,_ZN
 6622              		.align 2
 6623              		.weak	_ZN7sigslot13_signal_base1IP8GuiFrameNS_15single_threadedEED2Ev
 6624              		.type	_ZN7sigslot13_signal_base1IP8GuiFrameNS_15single_threadedEED2Ev, @function
 6625              	_ZN7sigslot13_signal_base1IP8GuiFrameNS_15single_threadedEED2Ev:
 6626              	.LFB1612:
 6627              		.loc 1 702 0
 6628              		.cfi_startproc
 6629              		.cfi_personality 0,__gxx_personality_v0
 6630              		.cfi_lsda 0,.LLSDA1612
 6631              	.LVL539:
 6632 0000 7C0802A6 		mflr 0
 6633 0004 9421FFD8 		stwu 1,-40(1)
 6634              	.LCFI92:
 6635              		.cfi_def_cfa_offset 40
 6636              		.cfi_register 65, 0
 6637              	.LBB3816:
 6638              		.loc 1 705 0
 6639 0008 3D200000 		lis 9,_ZTVN7sigslot13_signal_base1IP8GuiFrameNS_15single_threadedEEE+8@ha
 6640              	.LBE3816:
 6641              		.loc 1 702 0
 6642 000c 93810018 		stw 28,24(1)
 6643 0010 7C7C1B78 		mr 28,3
 6644              		.cfi_offset 28, -16
 6645 0014 9001002C 		stw 0,44(1)
 6646              	.LBB3899:
 6647              		.loc 1 705 0
 6648 0018 38090008 		la 0,_ZTVN7sigslot13_signal_base1IP8GuiFrameNS_15single_threadedEEE+8@l(9)
 6649              		.cfi_offset 65, 4
 6650              	.LBE3899:
 6651              		.loc 1 702 0
 6652 001c 93A1001C 		stw 29,28(1)
 6653 0020 3BA30004 		addi 29,3,4
 6654              		.cfi_offset 29, -12
 6655 0024 93C10020 		stw 30,32(1)
 6656 0028 93E10024 		stw 31,36(1)
 6657              	.LBB3900:
 6658              		.loc 1 705 0
 6659 002c 90030000 		stw 0,0(3)
 6660              	.LVL540:
 6661              	.LEHB35:
 6662              	.LBB3817:
 6663              	.LBB3818:
 6664              	.LBB3819:
 6665              	.LBB3820:
 6666              		.loc 1 338 0
 6667              		.cfi_offset 31, -4
 6668              		.cfi_offset 30, -8
 6669 0030 48000001 		bl _ZN7sigslot15single_threaded4lockEv
 6670              	.LEHE35:
 6671              	.LVL541:
 6672              	.LBE3820:
 6673              	.LBE3819:
 6674              	.LBE3818:
 6675              		.loc 4 200 0
 6676 0034 7F9DE378 		mr 29,28
 6677              	.LVL542:
 6678 0038 87FD0004 		lwzu 31,4(29)
 6679              	.LVL543:
 6680              	.LBB3851:
 6681              		.loc 1 713 0
 6682 003c 7F9FE800 		cmpw 7,31,29
 6683 0040 419E00A8 		beq- 7,.L434
 6684              	.LVL544:
 6685              	.L471:
 6686              		.loc 1 715 0
 6687 0044 807F0008 		lwz 3,8(31)
 6688 0048 81230000 		lwz 9,0(3)
 6689 004c 80090008 		lwz 0,8(9)
 6690 0050 7C0903A6 		mtctr 0
 6691              	.LEHB36:
 6692 0054 4E800421 		bctrl
 6693              	.LBB3821:
 6694              	.LBB3822:
 6695              	.LBB3823:
 6696              	.LBB3824:
 6697              		.loc 1 338 0
 6698 0058 81230000 		lwz 9,0(3)
 6699              	.LBE3824:
 6700              	.LBE3823:
 6701              	.LBE3822:
 6702              	.LBE3821:
 6703              		.loc 1 715 0
 6704 005c 7C7E1B78 		mr 30,3
 6705              	.LVL545:
 6706 0060 93810008 		stw 28,8(1)
 6707              	.LVL546:
 6708              	.LBB3833:
 6709              	.LBB3832:
 6710              	.LBB3826:
 6711              	.LBB3825:
 6712              		.loc 1 338 0
 6713 0064 80090008 		lwz 0,8(9)
 6714 0068 7C0903A6 		mtctr 0
 6715 006c 4E800421 		bctrl
 6716              	.LVL547:
 6717              	.LBE3825:
 6718              	.LBE3826:
 6719              	.LBB3827:
 6720              	.LBB3828:
 6721              		.loc 14 528 0
 6722 0070 387E0004 		addi 3,30,4
 6723 0074 38810008 		addi 4,1,8
 6724 0078 48000001 		bl _ZNSt8_Rb_treeIPN7sigslot12_signal_baseINS0_15single_threadedEEES4_St9_IdentityIS4_ESt4lessIS4_
 6725              	.LVL548:
 6726              	.LBE3828:
 6727              	.LBE3827:
 6728              	.LBB3829:
 6729              	.LBB3830:
 6730              	.LBB3831:
 6731              		.loc 1 343 0
 6732 007c 813E0000 		lwz 9,0(30)
 6733 0080 7FC3F378 		mr 3,30
 6734 0084 8009000C 		lwz 0,12(9)
 6735 0088 7C0903A6 		mtctr 0
 6736 008c 4E800421 		bctrl
 6737              	.LVL549:
 6738              	.LBE3831:
 6739              	.LBE3830:
 6740              	.LBE3829:
 6741              	.LBE3832:
 6742              	.LBE3833:
 6743              		.loc 1 716 0
 6744 0090 807F0008 		lwz 3,8(31)
 6745 0094 2F830000 		cmpwi 7,3,0
 6746 0098 419E0014 		beq- 7,.L436
 6747 009c 81230000 		lwz 9,0(3)
 6748 00a0 80090004 		lwz 0,4(9)
 6749 00a4 7C0903A6 		mtctr 0
 6750 00a8 4E800421 		bctrl
 6751              	.LEHE36:
 6752              	.L436:
 6753              	.LVL550:
 6754              	.LBB3834:
 6755              	.LBB3835:
 6756              		.loc 7 234 0
 6757 00ac 83FF0000 		lwz 31,0(31)
 6758              	.LVL551:
 6759              	.LBE3835:
 6760              	.LBE3834:
 6761              		.loc 1 713 0
 6762 00b0 7F9DF800 		cmpw 7,29,31
 6763 00b4 409EFF90 		bne+ 7,.L471
 6764              	.LBE3851:
 6765              		.loc 4 200 0
 6766 00b8 83FC0004 		lwz 31,4(28)
 6767              	.LVL552:
 6768              	.LBB3852:
 6769              	.LBB3836:
 6770              	.LBB3837:
 6771              		.loc 7 1162 0
 6772 00bc 7F9DF800 		cmpw 7,29,31
 6773 00c0 40BE000C 		bne+ 7,.L473
 6774 00c4 48000024 		b .L434
 6775              	.LVL553:
 6776              	.L466:
 6777              		.loc 7 1163 0
 6778 00c8 7FDFF378 		mr 31,30
 6779              	.LVL554:
 6780              	.L473:
 6781              	.LBB3838:
 6782              	.LBB3839:
 6783              		.loc 15 112 0
 6784 00cc 83DF0000 		lwz 30,0(31)
 6785              	.LVL555:
 6786              	.LBB3840:
 6787              	.LBB3841:
 6788              		.loc 7 1532 0
 6789 00d0 7FE3FB78 		mr 3,31
 6790 00d4 48000001 		bl _ZNSt8__detail15_List_node_base9_M_unhookEv
 6791              	.LVL556:
 6792              	.LBB3842:
 6793              	.LBB3843:
 6794              	.LBB3844:
 6795              		.loc 8 98 0
 6796 00d8 7FE3FB78 		mr 3,31
 6797 00dc 48000001 		bl _ZdlPv
 6798              	.LVL557:
 6799              	.LBE3844:
 6800              	.LBE3843:
 6801              	.LBE3842:
 6802              	.LBE3841:
 6803              	.LBE3840:
 6804              	.LBE3839:
 6805              	.LBE3838:
 6806              		.loc 7 1162 0
 6807 00e0 7F9DF000 		cmpw 7,29,30
 6808 00e4 409EFFE4 		bne+ 7,.L466
 6809              	.LVL558:
 6810              	.L434:
 6811              	.LBE3837:
 6812              	.LBE3836:
 6813              	.LBB3845:
 6814              	.LBB3846:
 6815              	.LBB3847:
 6816              		.loc 1 343 0
 6817 00e8 813C0000 		lwz 9,0(28)
 6818 00ec 7F83E378 		mr 3,28
 6819 00f0 8009000C 		lwz 0,12(9)
 6820 00f4 7C0903A6 		mtctr 0
 6821              	.LEHB37:
 6822 00f8 4E800421 		bctrl
 6823              	.LEHE37:
 6824              	.LVL559:
 6825              	.LBE3847:
 6826              	.LBE3846:
 6827              	.LBE3845:
 6828              	.LBE3852:
 6829              	.LBE3817:
 6830              	.LBB3854:
 6831              	.LBB3855:
 6832              	.LBB3856:
 6833              	.LBB3857:
 6834              	.LBB3858:
 6835              	.LBB3859:
 6836              		.loc 15 70 0
 6837 00fc 807C0004 		lwz 3,4(28)
 6838              	.LVL560:
 6839              		.loc 15 71 0
 6840 0100 7F83E800 		cmpw 7,3,29
 6841 0104 40BE000C 		bne+ 7,.L475
 6842 0108 48000018 		b .L452
 6843              	.LVL561:
 6844              	.L467:
 6845              		.loc 15 74 0
 6846 010c 7FE3FB78 		mr 3,31
 6847              	.LVL562:
 6848              	.L475:
 6849              	.LBB3860:
 6850 0110 83E30000 		lwz 31,0(3)
 6851              	.LVL563:
 6852              	.LBB3861:
 6853              	.LBB3862:
 6854              	.LBB3863:
 6855              		.loc 8 98 0
 6856 0114 48000001 		bl _ZdlPv
 6857              	.LVL564:
 6858              	.LBE3863:
 6859              	.LBE3862:
 6860              	.LBE3861:
 6861              	.LBE3860:
 6862              		.loc 15 71 0
 6863 0118 7F9FE800 		cmpw 7,31,29
 6864 011c 409EFFF0 		bne+ 7,.L467
 6865              	.LVL565:
 6866              	.L452:
 6867              	.LBE3859:
 6868              	.LBE3858:
 6869              	.LBE3857:
 6870              	.LBE3856:
 6871              	.LBE3855:
 6872              	.LBE3854:
 6873              	.LBB3864:
 6874              	.LBB3865:
 6875              	.LBB3866:
 6876              	.LBB3867:
 6877              	.LBB3868:
 6878              	.LBB3869:
 6879              		.loc 1 105 0
 6880 0120 3D200000 		lis 9,_ZTVN7sigslot15single_threadedE+8@ha
 6881              	.LBE3869:
 6882              	.LBE3868:
 6883              	.LBE3867:
 6884              	.LBE3866:
 6885              	.LBE3865:
 6886              	.LBE3864:
 6887              	.LBE3900:
 6888              		.loc 1 705 0
 6889 0124 83A1001C 		lwz 29,28(1)
 6890              	.LVL566:
 6891              	.LBB3901:
 6892              	.LBB3880:
 6893              	.LBB3878:
 6894              	.LBB3876:
 6895              	.LBB3874:
 6896              	.LBB3872:
 6897              	.LBB3870:
 6898              		.loc 1 105 0
 6899 0128 38090008 		la 0,_ZTVN7sigslot15single_threadedE+8@l(9)
 6900              	.LBE3870:
 6901              	.LBE3872:
 6902              	.LBE3874:
 6903              	.LBE3876:
 6904              	.LBE3878:
 6905              	.LBE3880:
 6906              	.LBE3901:
 6907              		.loc 1 705 0
 6908 012c 83C10020 		lwz 30,32(1)
 6909              	.LBB3902:
 6910              	.LBB3881:
 6911              	.LBB3879:
 6912              	.LBB3877:
 6913              	.LBB3875:
 6914              	.LBB3873:
 6915              	.LBB3871:
 6916              		.loc 1 105 0
 6917 0130 901C0000 		stw 0,0(28)
 6918              	.LBE3871:
 6919              	.LBE3873:
 6920              	.LBE3875:
 6921              	.LBE3877:
 6922              	.LBE3879:
 6923              	.LBE3881:
 6924              	.LBE3902:
 6925              		.loc 1 705 0
 6926 0134 8001002C 		lwz 0,44(1)
 6927 0138 83810018 		lwz 28,24(1)
 6928              	.LVL567:
 6929 013c 7C0803A6 		mtlr 0
 6930 0140 83E10024 		lwz 31,36(1)
 6931 0144 38210028 		addi 1,1,40
 6932              		.cfi_remember_state
 6933              	.LCFI93:
 6934              		.cfi_def_cfa_offset 0
 6935              		.cfi_restore 31
 6936              		.cfi_restore 30
 6937              		.cfi_restore 29
 6938              		.cfi_restore 28
 6939 0148 4E800020 		blr
 6940              	.LVL568:
 6941              	.L469:
 6942              	.LCFI94:
 6943              		.cfi_restore_state
 6944 014c 7C7F1B78 		mr 31,3
 6945              	.L444:
 6946              	.LVL569:
 6947              	.LBB3903:
 6948              	.LBB3882:
 6949              	.LBB3883:
 6950              	.LBB3884:
 6951              	.LBB3885:
 6952              	.LBB3886:
 6953              	.LBB3887:
 6954              		.loc 15 70 0
 6955 0150 807C0004 		lwz 3,4(28)
 6956              	.LVL570:
 6957              		.loc 15 71 0
 6958 0154 7F83E800 		cmpw 7,3,29
 6959 0158 419E0038 		beq- 7,.L463
 6960              	.LVL571:
 6961              	.L476:
 6962              	.LBB3888:
 6963              		.loc 15 74 0
 6964 015c 83C30000 		lwz 30,0(3)
 6965              	.LVL572:
 6966              	.LBB3889:
 6967              	.LBB3890:
 6968              	.LBB3891:
 6969              		.loc 8 98 0
 6970 0160 48000001 		bl _ZdlPv
 6971              	.LVL573:
 6972              	.LBE3891:
 6973              	.LBE3890:
 6974              	.LBE3889:
 6975              	.LBE3888:
 6976              		.loc 15 71 0
 6977 0164 7F9EE800 		cmpw 7,30,29
 6978 0168 419E0028 		beq- 7,.L463
 6979              		.loc 15 74 0
 6980 016c 7FC3F378 		mr 3,30
 6981 0170 4BFFFFEC 		b .L476
 6982              	.LVL574:
 6983              	.L470:
 6984              	.LBE3887:
 6985              	.LBE3886:
 6986              	.LBE3885:
 6987              	.LBE3884:
 6988              	.LBE3883:
 6989              	.LBE3882:
 6990              	.LBB3892:
 6991              	.LBB3853:
 6992              	.LBB3848:
 6993              	.LBB3849:
 6994              	.LBB3850:
 6995              		.loc 1 343 0
 6996 0174 813C0000 		lwz 9,0(28)
 6997 0178 7C7F1B78 		mr 31,3
 6998              	.LVL575:
 6999 017c 7F83E378 		mr 3,28
 7000 0180 8009000C 		lwz 0,12(9)
 7001 0184 7C0903A6 		mtctr 0
 7002 0188 4E800421 		bctrl
 7003 018c 4BFFFFC4 		b .L444
 7004              	.LVL576:
 7005              	.L463:
 7006              	.LBE3850:
 7007              	.LBE3849:
 7008              	.LBE3848:
 7009              	.LBE3853:
 7010              	.LBE3892:
 7011              	.LBB3893:
 7012              	.LBB3894:
 7013              	.LBB3895:
 7014              	.LBB3896:
 7015              	.LBB3897:
 7016              	.LBB3898:
 7017              		.loc 1 105 0
 7018 0190 3D200000 		lis 9,_ZTVN7sigslot15single_threadedE+8@ha
 7019 0194 7FE3FB78 		mr 3,31
 7020 0198 38090008 		la 0,_ZTVN7sigslot15single_threadedE+8@l(9)
 7021 019c 901C0000 		stw 0,0(28)
 7022              	.LEHB38:
 7023 01a0 48000001 		bl _Unwind_Resume
 7024              	.LEHE38:
 7025              	.LBE3898:
 7026              	.LBE3897:
 7027              	.LBE3896:
 7028              	.LBE3895:
 7029              	.LBE3894:
 7030              	.LBE3893:
 7031              	.LBE3903:
 7032              		.cfi_endproc
 7033              	.LFE1612:
 7034              		.section	.gcc_except_table
 7035              	.LLSDA1612:
 7036 00cd FF       		.byte	0xff
 7037 00ce FF       		.byte	0xff
 7038 00cf 01       		.byte	0x1
 7039 00d0 15       		.uleb128 .LLSDACSE1612-.LLSDACSB1612
 7040              	.LLSDACSB1612:
 7041 00d1 30       		.uleb128 .LEHB35-.LFB1612
 7042 00d2 04       		.uleb128 .LEHE35-.LEHB35
 7043 00d3 CC02     		.uleb128 .L469-.LFB1612
 7044 00d5 00       		.uleb128 0
 7045 00d6 54       		.uleb128 .LEHB36-.LFB1612
 7046 00d7 58       		.uleb128 .LEHE36-.LEHB36
 7047 00d8 F402     		.uleb128 .L470-.LFB1612
 7048 00da 00       		.uleb128 0
 7049 00db F801     		.uleb128 .LEHB37-.LFB1612
 7050 00dd 04       		.uleb128 .LEHE37-.LEHB37
 7051 00de CC02     		.uleb128 .L469-.LFB1612
 7052 00e0 00       		.uleb128 0
 7053 00e1 A003     		.uleb128 .LEHB38-.LFB1612
 7054 00e3 04       		.uleb128 .LEHE38-.LEHB38
 7055 00e4 00       		.uleb128 0
 7056 00e5 00       		.uleb128 0
 7057              	.LLSDACSE1612:
 7058              		.section	.text._ZN7sigslot13_signal_base1IP8GuiFrameNS_15single_threadedEED2Ev,"axG",@progbits,_ZN
 7059              		.size	_ZN7sigslot13_signal_base1IP8GuiFrameNS_15single_threadedEED2Ev, .-_ZN7sigslot13_signal_base
 7060              		.section	.text._ZN7sigslot13_signal_base2IP10GuiElementbNS_15single_threadedEED0Ev,"axG",@progbits
 7061              		.align 2
 7062              		.weak	_ZN7sigslot13_signal_base2IP10GuiElementbNS_15single_threadedEED0Ev
