   1              		.file	"gui_imagedata.cpp"
   2              		.section	".text"
   3              	.Ltext0:
   4              		.align 2
   5              		.globl _ZN12GuiImageDataD2Ev
   6              		.type	_ZN12GuiImageDataD2Ev, @function
   7              	_ZN12GuiImageDataD2Ev:
   8              	.LFB869:
   9              		.file 1 "d:/Projects/SaveGameManager/savegame-manager-gx/trunk/source/GUI/gui_imagedata.cpp"
  10              		.loc 1 76 0
  11              		.cfi_startproc
  12              	.LVL0:
  13 0000 7C0802A6 		mflr 0
  14 0004 9421FFF0 		stwu 1,-16(1)
  15              	.LCFI0:
  16              		.cfi_def_cfa_offset 16
  17              		.cfi_register 65, 0
  18              	.LBB73:
  19 0008 3D200000 		lis 9,_ZTV12GuiImageData+8@ha
  20              	.LBE73:
  21 000c 93E1000C 		stw 31,12(1)
  22 0010 7C7F1B78 		mr 31,3
  23              		.cfi_offset 31, -4
  24 0014 90010014 		stw 0,20(1)
  25              	.LBB74:
  26              		.loc 1 76 0
  27 0018 38090008 		la 0,_ZTV12GuiImageData+8@l(9)
  28              		.cfi_offset 65, 4
  29 001c 901F0000 		stw 0,0(31)
  30              		.loc 1 78 0
  31 0020 80630004 		lwz 3,4(3)
  32              	.LVL1:
  33 0024 2F830000 		cmpwi 7,3,0
  34 0028 419E0010 		beq- 7,.L2
  35              		.loc 1 80 0
  36 002c 48000001 		bl free
  37              		.loc 1 81 0
  38 0030 38000000 		li 0,0
  39 0034 901F0004 		stw 0,4(31)
  40              	.L2:
  41              		.loc 1 84 0
  42 0038 807F0014 		lwz 3,20(31)
  43 003c 2F830000 		cmpwi 7,3,0
  44 0040 419E0014 		beq- 7,.L1
  45              		.loc 1 85 0 discriminator 1
  46 0044 81230000 		lwz 9,0(3)
  47 0048 80090004 		lwz 0,4(9)
  48 004c 7C0903A6 		mtctr 0
  49 0050 4E800421 		bctrl
  50              	.L1:
  51              	.LBE74:
  52              		.loc 1 86 0
  53 0054 80010014 		lwz 0,20(1)
  54 0058 83E1000C 		lwz 31,12(1)
  55              	.LVL2:
  56 005c 7C0803A6 		mtlr 0
  57 0060 38210010 		addi 1,1,16
  58              	.LCFI1:
  59              		.cfi_def_cfa_offset 0
  60              		.cfi_restore 31
  61 0064 4E800020 		blr
  62              		.cfi_endproc
  63              	.LFE869:
  64              		.size	_ZN12GuiImageDataD2Ev, .-_ZN12GuiImageDataD2Ev
  65              		.align 2
  66              		.globl _ZN12GuiImageDataD0Ev
  67              		.type	_ZN12GuiImageDataD0Ev, @function
  68              	_ZN12GuiImageDataD0Ev:
  69              	.LFB871:
  70              		.loc 1 76 0
  71              		.cfi_startproc
  72              	.LVL3:
  73 0068 7C0802A6 		mflr 0
  74 006c 9421FFF0 		stwu 1,-16(1)
  75              	.LCFI2:
  76              		.cfi_def_cfa_offset 16
  77              		.cfi_register 65, 0
  78              	.LBB78:
  79              	.LBB79:
  80              	.LBB80:
  81 0070 3D200000 		lis 9,_ZTV12GuiImageData+8@ha
  82              	.LBE80:
  83              	.LBE79:
  84              	.LBE78:
  85 0074 93E1000C 		stw 31,12(1)
  86 0078 7C7F1B78 		mr 31,3
  87              		.cfi_offset 31, -4
  88              	.LVL4:
  89 007c 90010014 		stw 0,20(1)
  90              	.LBB83:
  91              	.LBB82:
  92              	.LBB81:
  93              		.loc 1 76 0
  94 0080 38090008 		la 0,_ZTV12GuiImageData+8@l(9)
  95              		.cfi_offset 65, 4
  96 0084 901F0000 		stw 0,0(31)
  97              		.loc 1 78 0
  98 0088 80630004 		lwz 3,4(3)
  99              	.LVL5:
 100 008c 2F830000 		cmpwi 7,3,0
 101 0090 419E0010 		beq- 7,.L6
 102              		.loc 1 80 0
 103 0094 48000001 		bl free
 104              		.loc 1 81 0
 105 0098 38000000 		li 0,0
 106 009c 901F0004 		stw 0,4(31)
 107              	.LVL6:
 108              	.L6:
 109              		.loc 1 84 0
 110 00a0 807F0014 		lwz 3,20(31)
 111 00a4 2F830000 		cmpwi 7,3,0
 112 00a8 419E0014 		beq- 7,.L8
 113              		.loc 1 85 0
 114 00ac 81230000 		lwz 9,0(3)
 115 00b0 80090004 		lwz 0,4(9)
 116 00b4 7C0903A6 		mtctr 0
 117 00b8 4E800421 		bctrl
 118              	.L8:
 119              	.LBE81:
 120              	.LBE82:
 121              	.LBE83:
 122              		.loc 1 86 0 discriminator 1
 123 00bc 7FE3FB78 		mr 3,31
 124 00c0 48000001 		bl _ZdlPv
 125 00c4 80010014 		lwz 0,20(1)
 126 00c8 83E1000C 		lwz 31,12(1)
 127              	.LVL7:
 128 00cc 7C0803A6 		mtlr 0
 129 00d0 38210010 		addi 1,1,16
 130              	.LCFI3:
 131              		.cfi_def_cfa_offset 0
 132              		.cfi_restore 31
 133 00d4 4E800020 		blr
 134              		.cfi_endproc
 135              	.LFE871:
 136              		.size	_ZN12GuiImageDataD0Ev, .-_ZN12GuiImageDataD0Ev
 137              		.align 2
 138              		.globl _ZN12GuiImageDataC2Ev
 139              		.type	_ZN12GuiImageDataC2Ev, @function
 140              	_ZN12GuiImageDataC2Ev:
 141              	.LFB860:
 142              		.loc 1 28 0
 143              		.cfi_startproc
 144              	.LVL8:
 145              	.LBB84:
 146              		.loc 1 30 0
 147 00d8 38000000 		li 0,0
 148              		.loc 1 28 0
 149 00dc 3D200000 		lis 9,_ZTV12GuiImageData+8@ha
 150 00e0 39290008 		la 9,_ZTV12GuiImageData+8@l(9)
 151              		.loc 1 30 0
 152 00e4 90030004 		stw 0,4(3)
 153              		.loc 1 31 0
 154 00e8 90030014 		stw 0,20(3)
 155              	.LBE84:
 156              		.loc 1 35 0
 157              	.LBB85:
 158              		.loc 1 32 0
 159 00ec 9003000C 		stw 0,12(3)
 160              		.loc 1 33 0
 161 00f0 90030008 		stw 0,8(3)
 162              		.loc 1 34 0
 163 00f4 38000006 		li 0,6
 164              		.loc 1 28 0
 165 00f8 91230000 		stw 9,0(3)
 166              		.loc 1 34 0
 167 00fc 98030010 		stb 0,16(3)
 168              	.LBE85:
 169              		.loc 1 35 0
 170 0100 4E800020 		blr
 171              		.cfi_endproc
 172              	.LFE860:
 173              		.size	_ZN12GuiImageDataC2Ev, .-_ZN12GuiImageDataC2Ev
 174              		.align 2
 175              		.globl _ZN12GuiImageData7LoadTPLEPKhi
 176              		.type	_ZN12GuiImageData7LoadTPLEPKhi, @function
 177              	_ZN12GuiImageData7LoadTPLEPKhi:
 178              	.LFB873:
 179              		.loc 1 169 0
 180              		.cfi_startproc
 181              		.cfi_personality 0,__gxx_personality_v0
 182              		.cfi_lsda 0,.LLSDA873
 183              	.LVL9:
 184 0104 9421FFB8 		stwu 1,-72(1)
 185              	.LCFI4:
 186              		.cfi_def_cfa_offset 72
 187 0108 7C0802A6 		mflr 0
 188 010c 93E10044 		stw 31,68(1)
 189 0110 7C7F1B78 		mr 31,3
 190              		.cfi_offset 31, -4
 191              		.cfi_register 65, 0
 192              	.LBB86:
 193              		.loc 1 170 0
 194 0114 38610008 		addi 3,1,8
 195              	.LVL10:
 196              	.LBE86:
 197              		.loc 1 169 0
 198 0118 9001004C 		stw 0,76(1)
 199 011c 93A1003C 		stw 29,60(1)
 200 0120 93C10040 		stw 30,64(1)
 201              	.LEHB0:
 202              	.LBB89:
 203              		.loc 1 170 0
 204              		.cfi_offset 30, -8
 205              		.cfi_offset 29, -12
 206              		.cfi_offset 65, 4
 207 0124 48000001 		bl _ZN8TplImageC1EPKhj
 208              	.LEHE0:
 209              	.LVL11:
 210              		.loc 1 172 0
 211 0128 38610008 		addi 3,1,8
 212 012c 38800000 		li 4,0
 213              	.LEHB1:
 214 0130 48000001 		bl _ZN8TplImage8GetWidthEi
 215 0134 907F000C 		stw 3,12(31)
 216              		.loc 1 173 0
 217 0138 38800000 		li 4,0
 218 013c 38610008 		addi 3,1,8
 219 0140 48000001 		bl _ZN8TplImage9GetHeightEi
 220              		.loc 1 173 0 is_stmt 0 discriminator 1
 221 0144 907F0008 		stw 3,8(31)
 222              		.loc 1 174 0 is_stmt 1 discriminator 1
 223 0148 38800000 		li 4,0
 224 014c 38610008 		addi 3,1,8
 225 0150 48000001 		bl _ZN8TplImage9GetFormatEi
 226 0154 987F0010 		stb 3,16(31)
 227              		.loc 1 176 0 discriminator 1
 228 0158 38800000 		li 4,0
 229 015c 38610008 		addi 3,1,8
 230 0160 48000001 		bl _ZN8TplImage16GetTextureBufferEi
 231              	.LVL12:
 232              	.LBB87:
 233              		.loc 1 178 0 discriminator 1
 234 0164 7C7D1B79 		mr. 29,3
 235 0168 41820048 		beq- 0,.L12
 236              	.LBB88:
 237              		.loc 1 180 0
 238 016c 38610008 		addi 3,1,8
 239              	.LVL13:
 240 0170 38800000 		li 4,0
 241 0174 48000001 		bl _ZN8TplImage14GetTextureSizeEi
 242              	.LVL14:
 243 0178 3863001F 		addi 3,3,31
 244              	.LVL15:
 245 017c 547E0034 		rlwinm 30,3,0,0,26
 246              		.loc 1 182 0
 247 0180 38600020 		li 3,32
 248              	.LVL16:
 249 0184 7FC4F378 		mr 4,30
 250 0188 48000001 		bl memalign
 251              		.loc 1 183 0 discriminator 1
 252 018c 2F830000 		cmpwi 7,3,0
 253              		.loc 1 182 0 discriminator 1
 254 0190 907F0004 		stw 3,4(31)
 255              		.loc 1 183 0 discriminator 1
 256 0194 419E001C 		beq- 7,.L12
 257              		.loc 1 186 0
 258 0198 7FA4EB78 		mr 4,29
 259 019c 7FC5F378 		mr 5,30
 260 01a0 48000001 		bl memcpy
 261              		.loc 1 187 0
 262 01a4 807F0004 		lwz 3,4(31)
 263 01a8 7FC4F378 		mr 4,30
 264 01ac 48000001 		bl DCFlushRange
 265              	.LEHE1:
 266              	.LVL17:
 267              	.L12:
 268              	.LBE88:
 269              	.LBE87:
 270              		.loc 1 188 0
 271 01b0 38610008 		addi 3,1,8
 272              	.LEHB2:
 273 01b4 48000001 		bl _ZN8TplImageD1Ev
 274              	.LEHE2:
 275              	.LBE89:
 276              		.loc 1 189 0
 277 01b8 8001004C 		lwz 0,76(1)
 278 01bc 83A1003C 		lwz 29,60(1)
 279              	.LVL18:
 280 01c0 7C0803A6 		mtlr 0
 281 01c4 83C10040 		lwz 30,64(1)
 282 01c8 83E10044 		lwz 31,68(1)
 283              	.LVL19:
 284 01cc 38210048 		addi 1,1,72
 285              		.cfi_remember_state
 286              	.LCFI5:
 287              		.cfi_def_cfa_offset 0
 288              		.cfi_restore 31
 289              		.cfi_restore 30
 290              		.cfi_restore 29
 291 01d0 4E800020 		blr
 292              	.LVL20:
 293              	.L15:
 294              	.LCFI6:
 295              		.cfi_restore_state
 296 01d4 7C7F1B78 		mr 31,3
 297              	.LVL21:
 298              	.LBB90:
 299              		.loc 1 188 0
 300 01d8 38610008 		addi 3,1,8
 301 01dc 48000001 		bl _ZN8TplImageD1Ev
 302 01e0 7FE3FB78 		mr 3,31
 303              	.LEHB3:
 304 01e4 48000001 		bl _Unwind_Resume
 305              	.LEHE3:
 306              	.LBE90:
 307              		.cfi_endproc
 308              	.LFE873:
 309              		.globl __gxx_personality_v0
 310              		.section	.gcc_except_table,"a",@progbits
 311              	.LLSDA873:
 312 0000 FF       		.byte	0xff
 313 0001 FF       		.byte	0xff
 314 0002 01       		.byte	0x1
 315 0003 14       		.uleb128 .LLSDACSE873-.LLSDACSB873
 316              	.LLSDACSB873:
 317 0004 20       		.uleb128 .LEHB0-.LFB873
 318 0005 04       		.uleb128 .LEHE0-.LEHB0
 319 0006 00       		.uleb128 0
 320 0007 00       		.uleb128 0
 321 0008 2C       		.uleb128 .LEHB1-.LFB873
 322 0009 8001     		.uleb128 .LEHE1-.LEHB1
 323 000b D001     		.uleb128 .L15-.LFB873
 324 000d 00       		.uleb128 0
 325 000e B001     		.uleb128 .LEHB2-.LFB873
 326 0010 04       		.uleb128 .LEHE2-.LEHB2
 327 0011 00       		.uleb128 0
 328 0012 00       		.uleb128 0
 329 0013 E001     		.uleb128 .LEHB3-.LFB873
 330 0015 04       		.uleb128 .LEHE3-.LEHB3
 331 0016 00       		.uleb128 0
 332 0017 00       		.uleb128 0
 333              	.LLSDACSE873:
 334              		.section	".text"
 335              		.size	_ZN12GuiImageData7LoadTPLEPKhi, .-_ZN12GuiImageData7LoadTPLEPKhi
 336              		.align 2
 337              		.globl _ZN12GuiImageData9LoadImageEPKhi
 338              		.type	_ZN12GuiImageData9LoadImageEPKhi, @function
 339              	_ZN12GuiImageData9LoadImageEPKhi:
 340              	.LFB872:
 341              		.loc 1 89 0
 342              		.cfi_startproc
 343              		.cfi_personality 0,__gxx_personality_v0
 344              		.cfi_lsda 0,.LLSDA872
 345              	.LVL22:
 346 01e8 9421FFD8 		stwu 1,-40(1)
 347              	.LCFI7:
 348              		.cfi_def_cfa_offset 40
 349 01ec 7C0802A6 		mflr 0
 350 01f0 93E10024 		stw 31,36(1)
 351              	.LBB91:
 352              		.loc 1 90 0
 353 01f4 7C9F2379 		mr. 31,4
 354              		.cfi_offset 31, -4
 355              		.cfi_register 65, 0
 356              	.LBE91:
 357              		.loc 1 89 0
 358 01f8 93A1001C 		stw 29,28(1)
 359 01fc 7CBD2B78 		mr 29,5
 360              		.cfi_offset 29, -12
 361 0200 93C10020 		stw 30,32(1)
 362 0204 7C7E1B78 		mr 30,3
 363              		.cfi_offset 30, -8
 364 0208 9001002C 		stw 0,44(1)
 365 020c 93810018 		stw 28,24(1)
 366              	.LBB95:
 367              		.loc 1 90 0
 368 0210 41820054 		beq- 0,.L16
 369              		.cfi_offset 28, -16
 370              		.cfi_offset 65, 4
 371              		.loc 1 90 0 is_stmt 0 discriminator 1
 372 0214 2F850007 		cmpwi 7,5,7
 373 0218 409D004C 		ble- 7,.L16
 374              		.loc 1 93 0 is_stmt 1
 375 021c 80630004 		lwz 3,4(3)
 376              	.LVL23:
 377 0220 2F830000 		cmpwi 7,3,0
 378 0224 419E0010 		beq- 7,.L18
 379              		.loc 1 95 0
 380 0228 48000001 		bl free
 381              	.LVL24:
 382              		.loc 1 96 0
 383 022c 38000000 		li 0,0
 384 0230 901E0004 		stw 0,4(30)
 385              	.L18:
 386              		.loc 1 101 0
 387 0234 881F0000 		lbz 0,0(31)
 388              		.loc 1 99 0
 389 0238 39200000 		li 9,0
 390 023c 91210008 		stw 9,8(1)
 391              	.LVL25:
 392              		.loc 1 101 0
 393 0240 2F8000FF 		cmpwi 7,0,255
 394 0244 419E0114 		beq- 7,.L39
 395              		.loc 1 106 0
 396 0248 2F000049 		cmpwi 6,0,73
 397 024c 419A0180 		beq- 6,.L40
 398              		.loc 1 111 0
 399 0250 2F00004D 		cmpwi 6,0,77
 400 0254 409A0030 		bne- 6,.L20
 401              		.loc 1 111 0 is_stmt 0 discriminator 1
 402 0258 881F0001 		lbz 0,1(31)
 403 025c 2F80004D 		cmpwi 7,0,77
 404 0260 419E0178 		beq- 7,.L38
 405              	.L16:
 406              	.LBE95:
 407              		.loc 1 166 0 is_stmt 1
 408 0264 8001002C 		lwz 0,44(1)
 409 0268 83810018 		lwz 28,24(1)
 410 026c 7C0803A6 		mtlr 0
 411 0270 83A1001C 		lwz 29,28(1)
 412              	.LVL26:
 413 0274 83C10020 		lwz 30,32(1)
 414              	.LVL27:
 415 0278 83E10024 		lwz 31,36(1)
 416              	.LVL28:
 417 027c 38210028 		addi 1,1,40
 418              		.cfi_remember_state
 419              	.LCFI8:
 420              		.cfi_def_cfa_offset 0
 421              		.cfi_restore 31
 422              		.cfi_restore 30
 423              		.cfi_restore 29
 424              		.cfi_restore 28
 425 0280 4E800020 		blr
 426              	.LVL29:
 427              	.L20:
 428              	.LCFI9:
 429              		.cfi_restore_state
 430              	.LBB96:
 431              		.loc 1 116 0
 432 0284 2F000042 		cmpwi 6,0,66
 433 0288 419A01CC 		beq- 6,.L41
 434              		.loc 1 121 0
 435 028c 2F000047 		cmpwi 6,0,71
 436 0290 409A007C 		bne- 6,.L23
 437              		.loc 1 121 0 is_stmt 0 discriminator 1
 438 0294 881F0001 		lbz 0,1(31)
 439 0298 2F800049 		cmpwi 7,0,73
 440 029c 409EFFC8 		bne+ 7,.L16
 441              		.loc 1 121 0 discriminator 2
 442 02a0 881F0002 		lbz 0,2(31)
 443 02a4 2F800046 		cmpwi 7,0,70
 444 02a8 409EFFBC 		bne+ 7,.L16
 445              		.loc 1 124 0 is_stmt 1
 446 02ac 38600038 		li 3,56
 447              	.LEHB4:
 448 02b0 48000001 		bl _Znwj
 449              	.LEHE4:
 450 02b4 7FE4FB78 		mr 4,31
 451 02b8 7FA5EB78 		mr 5,29
 452 02bc 7C7C1B78 		mr 28,3
 453              	.LEHB5:
 454 02c0 48000001 		bl _ZN8GifImageC1EPKhi
 455              	.LEHE5:
 456              		.loc 1 124 0 is_stmt 0 discriminator 1
 457 02c4 939E0014 		stw 28,20(30)
 458              	.LVL30:
 459              	.LBB92:
 460              	.LBB93:
 461              	.LBB94:
 462              		.file 2 "d:\\devkitpro\\devkitppc\\bin\\../lib/gcc/powerpc-eabi/4.6.3/../../../../powerpc-eabi/inc
 463              		.loc 2 571 0 is_stmt 1 discriminator 1
 464 02c8 813C0030 		lwz 9,48(28)
 465 02cc 801C002C 		lwz 0,44(28)
 466 02d0 7C004850 		subf 0,0,9
 467              	.LBE94:
 468              	.LBE93:
 469              	.LBE92:
 470              		.loc 1 125 0 discriminator 1
 471 02d4 2F80003F 		cmpwi 7,0,63
 472 02d8 419DFF8C 		bgt+ 7,.L16
 473              		.loc 1 128 0 discriminator 1
 474 02dc 813C0000 		lwz 9,0(28)
 475 02e0 7F83E378 		mr 3,28
 476 02e4 80090004 		lwz 0,4(9)
 477 02e8 7C0903A6 		mtctr 0
 478              	.LEHB6:
 479 02ec 4E800421 		bctrl
 480              		.loc 1 129 0 discriminator 1
 481 02f0 38000000 		li 0,0
 482 02f4 901E0014 		stw 0,20(30)
 483              		.loc 1 131 0 discriminator 1
 484 02f8 7FA3EB78 		mr 3,29
 485 02fc 7FE4FB78 		mr 4,31
 486 0300 48000001 		bl gdImageCreateFromGifPtr
 487 0304 90610008 		stw 3,8(1)
 488 0308 48000108 		b .L21
 489              	.LVL31:
 490              	.L23:
 491              		.loc 1 133 0
 492 030c 2F000089 		cmpwi 6,0,137
 493 0310 409A003C 		bne- 6,.L25
 494              		.loc 1 133 0 is_stmt 0 discriminator 1
 495 0314 881F0001 		lbz 0,1(31)
 496 0318 2F800050 		cmpwi 7,0,80
 497 031c 409EFF48 		bne+ 7,.L16
 498              		.loc 1 133 0 discriminator 2
 499 0320 881F0002 		lbz 0,2(31)
 500 0324 2F80004E 		cmpwi 7,0,78
 501 0328 409EFF3C 		bne+ 7,.L16
 502              		.loc 1 133 0 discriminator 3
 503 032c 881F0003 		lbz 0,3(31)
 504 0330 2F800047 		cmpwi 7,0,71
 505 0334 409EFF30 		bne+ 7,.L16
 506              		.loc 1 136 0 is_stmt 1
 507 0338 7FA3EB78 		mr 3,29
 508 033c 7FE4FB78 		mr 4,31
 509 0340 48000001 		bl gdImageCreateFromPngPtr
 510 0344 90610008 		stw 3,8(1)
 511 0348 480000C8 		b .L21
 512              	.L25:
 513              		.loc 1 138 0
 514 034c 409E0040 		bne- 7,.L26
 515 0350 893F0001 		lbz 9,1(31)
 516 0354 48000014 		b .L31
 517              	.L39:
 518              		.loc 1 101 0 discriminator 1
 519 0358 893F0001 		lbz 9,1(31)
 520 035c 5520063E 		rlwinm 0,9,0,0xff
 521 0360 2F8000D8 		cmpwi 7,0,216
 522 0364 419E013C 		beq- 7,.L42
 523              	.L31:
 524              		.loc 1 138 0 discriminator 1
 525 0368 39290002 		addi 9,9,2
 526 036c 5529063E 		rlwinm 9,9,0,0xff
 527 0370 2B890001 		cmplwi 7,9,1
 528 0374 419DFEF0 		bgt+ 7,.L16
 529              		.loc 1 141 0
 530 0378 7FA3EB78 		mr 3,29
 531 037c 7FE4FB78 		mr 4,31
 532 0380 48000001 		bl gdImageCreateFromGdPtr
 533 0384 90610008 		stw 3,8(1)
 534 0388 48000088 		b .L21
 535              	.L26:
 536              		.loc 1 143 0
 537 038c 2F800067 		cmpwi 7,0,103
 538 0390 409E005C 		bne- 7,.L27
 539              		.loc 1 143 0 is_stmt 0 discriminator 1
 540 0394 881F0001 		lbz 0,1(31)
 541 0398 2F800064 		cmpwi 7,0,100
 542 039c 409EFEC8 		bne+ 7,.L16
 543              		.loc 1 143 0 discriminator 2
 544 03a0 881F0002 		lbz 0,2(31)
 545 03a4 2F800032 		cmpwi 7,0,50
 546 03a8 409EFEBC 		bne+ 7,.L16
 547              		.loc 1 143 0 discriminator 3
 548 03ac 881F0003 		lbz 0,3(31)
 549 03b0 2F800000 		cmpwi 7,0,0
 550 03b4 409EFEB0 		bne+ 7,.L16
 551              		.loc 1 146 0 is_stmt 1
 552 03b8 7FA3EB78 		mr 3,29
 553 03bc 7FE4FB78 		mr 4,31
 554 03c0 48000001 		bl gdImageCreateFromGd2Ptr
 555 03c4 90610008 		stw 3,8(1)
 556 03c8 48000048 		b .L21
 557              	.L40:
 558              		.loc 1 106 0 discriminator 1
 559 03cc 881F0001 		lbz 0,1(31)
 560 03d0 2F800049 		cmpwi 7,0,73
 561 03d4 409EFE90 		bne+ 7,.L16
 562              	.L38:
 563              		.loc 1 114 0
 564 03d8 7FA3EB78 		mr 3,29
 565 03dc 7FE4FB78 		mr 4,31
 566 03e0 48000001 		bl gdImageCreateFromTiffPtr
 567 03e4 90610008 		stw 3,8(1)
 568 03e8 48000028 		b .L21
 569              	.L27:
 570              		.loc 1 148 0
 571 03ec 2F800000 		cmpwi 7,0,0
 572 03f0 40BEFE74 		bne- 7,.L16
 573              		.loc 1 148 0 is_stmt 0 discriminator 1
 574 03f4 881F0001 		lbz 0,1(31)
 575 03f8 2F800020 		cmpwi 7,0,32
 576 03fc 419E0078 		beq- 7,.L43
 577              	.L28:
 578              		.loc 1 158 0 is_stmt 1
 579 0400 7FA3EB78 		mr 3,29
 580 0404 7FE4FB78 		mr 4,31
 581 0408 48000001 		bl gdImageCreateFromTgaPtr
 582 040c 90610008 		stw 3,8(1)
 583              	.L21:
 584              		.loc 1 161 0
 585 0410 2F830000 		cmpwi 7,3,0
 586 0414 41BEFE50 		beq- 7,.L16
 587              		.loc 1 164 0
 588 0418 389E000C 		addi 4,30,12
 589 041c 38BE0008 		addi 5,30,8
 590 0420 38610008 		addi 3,1,8
 591 0424 48000001 		bl GDImageToRGBA8
 592 0428 907E0004 		stw 3,4(30)
 593              		.loc 1 165 0
 594 042c 80610008 		lwz 3,8(1)
 595 0430 48000001 		bl gdImageDestroy
 596              	.LBE96:
 597              		.loc 1 166 0
 598 0434 8001002C 		lwz 0,44(1)
 599 0438 83810018 		lwz 28,24(1)
 600 043c 7C0803A6 		mtlr 0
 601 0440 83A1001C 		lwz 29,28(1)
 602              	.LVL32:
 603 0444 83C10020 		lwz 30,32(1)
 604              	.LVL33:
 605 0448 83E10024 		lwz 31,36(1)
 606              	.LVL34:
 607 044c 38210028 		addi 1,1,40
 608              		.cfi_remember_state
 609              		.cfi_restore 28
 610              		.cfi_restore 29
 611              		.cfi_restore 30
 612              		.cfi_restore 31
 613              	.LCFI10:
 614              		.cfi_def_cfa_offset 0
 615 0450 4E800020 		blr
 616              	.LVL35:
 617              	.L41:
 618              	.LCFI11:
 619              		.cfi_restore_state
 620              	.LBB97:
 621              		.loc 1 116 0 discriminator 1
 622 0454 881F0001 		lbz 0,1(31)
 623 0458 2F80004D 		cmpwi 7,0,77
 624 045c 409EFE08 		bne+ 7,.L16
 625              		.loc 1 119 0
 626 0460 7FA3EB78 		mr 3,29
 627 0464 7FE4FB78 		mr 4,31
 628 0468 48000001 		bl gdImageCreateFromBmpPtr
 629 046c 90610008 		stw 3,8(1)
 630 0470 4BFFFFA0 		b .L21
 631              	.L43:
 632              		.loc 1 148 0 discriminator 2
 633 0474 881F0002 		lbz 0,2(31)
 634 0478 2F8000AF 		cmpwi 7,0,175
 635 047c 409EFF84 		bne+ 7,.L28
 636              		.loc 1 148 0 is_stmt 0 discriminator 3
 637 0480 881F0003 		lbz 0,3(31)
 638 0484 2F800030 		cmpwi 7,0,48
 639 0488 409EFF78 		bne+ 7,.L28
 640              		.loc 1 151 0 is_stmt 1
 641 048c 7FC3F378 		mr 3,30
 642 0490 7FE4FB78 		mr 4,31
 643 0494 7FA5EB78 		mr 5,29
 644 0498 48000001 		bl _ZN12GuiImageData7LoadTPLEPKhi
 645              		.loc 1 152 0
 646 049c 4BFFFDC8 		b .L16
 647              	.L42:
 648              		.loc 1 104 0
 649 04a0 7FA3EB78 		mr 3,29
 650 04a4 7FE4FB78 		mr 4,31
 651 04a8 48000001 		bl gdImageCreateFromJpegPtr
 652 04ac 90610008 		stw 3,8(1)
 653 04b0 4BFFFF60 		b .L21
 654              	.L30:
 655 04b4 7C7F1B78 		mr 31,3
 656              	.LVL36:
 657              		.loc 1 124 0
 658 04b8 7F83E378 		mr 3,28
 659 04bc 48000001 		bl _ZdlPv
 660 04c0 7FE3FB78 		mr 3,31
 661 04c4 48000001 		bl _Unwind_Resume
 662              	.LEHE6:
 663              	.LBE97:
 664              		.cfi_endproc
 665              	.LFE872:
 666              		.section	.gcc_except_table
 667              	.LLSDA872:
 668 0018 FF       		.byte	0xff
 669 0019 FF       		.byte	0xff
 670 001a 01       		.byte	0x1
 671 001b 11       		.uleb128 .LLSDACSE872-.LLSDACSB872
 672              	.LLSDACSB872:
 673 001c C801     		.uleb128 .LEHB4-.LFB872
 674 001e 04       		.uleb128 .LEHE4-.LEHB4
 675 001f 00       		.uleb128 0
 676 0020 00       		.uleb128 0
 677 0021 D801     		.uleb128 .LEHB5-.LFB872
 678 0023 04       		.uleb128 .LEHE5-.LEHB5
 679 0024 CC05     		.uleb128 .L30-.LFB872
 680 0026 00       		.uleb128 0
 681 0027 8402     		.uleb128 .LEHB6-.LFB872
 682 0029 DC03     		.uleb128 .LEHE6-.LEHB6
 683 002b 00       		.uleb128 0
 684 002c 00       		.uleb128 0
 685              	.LLSDACSE872:
 686              		.section	".text"
 687              		.size	_ZN12GuiImageData9LoadImageEPKhi, .-_ZN12GuiImageData9LoadImageEPKhi
 688              		.align 2
 689              		.globl _ZN12GuiImageDataC2EPKhi
 690              		.type	_ZN12GuiImageDataC2EPKhi, @function
 691              	_ZN12GuiImageDataC2EPKhi:
 692              	.LFB863:
 693              		.loc 1 40 0
 694              		.cfi_startproc
 695              	.LVL37:
 696              	.LBB98:
 697              		.loc 1 42 0
 698 04c8 38000000 		li 0,0
 699              		.loc 1 40 0
 700 04cc 3D600000 		lis 11,_ZTV12GuiImageData+8@ha
 701 04d0 396B0008 		la 11,_ZTV12GuiImageData+8@l(11)
 702              		.loc 1 42 0
 703 04d4 90030004 		stw 0,4(3)
 704              		.loc 1 43 0
 705 04d8 90030014 		stw 0,20(3)
 706              	.LBE98:
 707              		.loc 1 48 0
 708              	.LBB99:
 709              		.loc 1 44 0
 710 04dc 9003000C 		stw 0,12(3)
 711              		.loc 1 45 0
 712 04e0 90030008 		stw 0,8(3)
 713              		.loc 1 46 0
 714 04e4 38000006 		li 0,6
 715              		.loc 1 40 0
 716 04e8 91630000 		stw 11,0(3)
 717              		.loc 1 46 0
 718 04ec 98030010 		stb 0,16(3)
 719              		.loc 1 47 0
 720 04f0 48000000 		b _ZN12GuiImageData9LoadImageEPKhi
 721              	.LVL38:
 722              	.LVL39:
 723              	.LVL40:
 724              	.LBE99:
 725              		.cfi_endproc
 726              	.LFE863:
 727              		.size	_ZN12GuiImageDataC2EPKhi, .-_ZN12GuiImageDataC2EPKhi
 728              		.align 2
 729              		.globl _ZN12GuiImageDataC2EPKc
 730              		.type	_ZN12GuiImageDataC2EPKc, @function
 731              	_ZN12GuiImageDataC2EPKc:
 732              	.LFB866:
 733              		.loc 1 53 0
 734              		.cfi_startproc
 735              		.cfi_personality 0,__gxx_personality_v0
 736              		.cfi_lsda 0,.LLSDA866
 737              	.LVL41:
 738 04f4 7C0802A6 		mflr 0
 739 04f8 9421FFD0 		stwu 1,-48(1)
 740              	.LCFI12:
 741              		.cfi_def_cfa_offset 48
 742              		.cfi_register 65, 0
 743              	.LBB127:
 744 04fc 3D200000 		lis 9,_ZTV12GuiImageData+8@ha
 745              	.LBB128:
 746              		.loc 1 62 0
 747 0500 39400000 		li 10,0
 748              	.LBE128:
 749              		.loc 1 53 0
 750 0504 39290008 		la 9,_ZTV12GuiImageData+8@l(9)
 751              	.LBE127:
 752 0508 93E1002C 		stw 31,44(1)
 753 050c 90010034 		stw 0,52(1)
 754              	.LBB160:
 755              	.LBB155:
 756              		.loc 1 55 0
 757 0510 38000000 		li 0,0
 758              		.cfi_offset 65, 4
 759              		.cfi_offset 31, -4
 760              	.LBE155:
 761              	.LBE160:
 762              		.loc 1 53 0
 763 0514 93C10028 		stw 30,40(1)
 764              	.LBB161:
 765              	.LBB156:
 766              		.loc 1 64 0
 767 0518 38A10009 		addi 5,1,9
 768              	.LBE156:
 769              		.loc 1 53 0
 770 051c 91230000 		stw 9,0(3)
 771              	.LBB157:
 772              		.loc 1 59 0
 773 0520 39200006 		li 9,6
 774              		.loc 1 55 0
 775 0524 90030004 		stw 0,4(3)
 776              		.loc 1 62 0
 777 0528 39600000 		li 11,0
 778              		.loc 1 56 0
 779 052c 90030014 		stw 0,20(3)
 780              	.LBE157:
 781              	.LBE161:
 782              		.loc 1 53 0
 783 0530 7C7F1B78 		mr 31,3
 784              	.LBB162:
 785              	.LBB158:
 786              		.loc 1 57 0
 787 0534 9003000C 		stw 0,12(3)
 788              		.loc 1 58 0
 789 0538 90030008 		stw 0,8(3)
 790              		.loc 1 59 0
 791 053c 99230010 		stb 9,16(3)
 792              		.loc 1 64 0
 793 0540 3861000C 		addi 3,1,12
 794              	.LVL42:
 795              		.loc 1 61 0
 796 0544 90010010 		stw 0,16(1)
 797              	.LVL43:
 798              		.loc 1 62 0
 799 0548 91410018 		stw 10,24(1)
 800              	.LVL44:
 801 054c 9161001C 		stw 11,28(1)
 802              	.LVL45:
 803              	.LEHB7:
 804              		.loc 1 64 0
 805              		.cfi_offset 30, -8
 806 0550 48000001 		bl _ZNSsC1EPKcRKSaIcE
 807              	.LEHE7:
 808              	.LVL46:
 809 0554 3861000C 		addi 3,1,12
 810 0558 38810010 		addi 4,1,16
 811 055c 38A10018 		addi 5,1,24
 812              	.LEHB8:
 813 0560 48000001 		bl _Z13LoadFileToMemSsPPhPy
 814              	.LEHE8:
 815              	.LBB129:
 816              	.LBB130:
 817              	.LBB131:
 818              	.LBB132:
 819              	.LBB133:
 820              	.LBB134:
 821              		.file 3 "d:\\devkitpro\\devkitppc\\bin\\../lib/gcc/powerpc-eabi/4.6.3/../../../../powerpc-eabi/inc
 822              		.loc 3 288 0
 823 0564 8121000C 		lwz 9,12(1)
 824              	.LBE134:
 825              	.LBE133:
 826              	.LBE132:
 827              	.LBB135:
 828              	.LBB136:
 829              		.loc 3 235 0
 830 0568 3D600000 		lis 11,_ZNSs4_Rep20_S_empty_rep_storageE@ha
 831              	.LBE136:
 832              	.LBE135:
 833              	.LBE131:
 834              	.LBE130:
 835              	.LBE129:
 836              		.loc 1 64 0
 837 056c 7C7E1B78 		mr 30,3
 838              	.LVL47:
 839              	.LBB153:
 840              	.LBB151:
 841              	.LBB149:
 842              	.LBB146:
 843              	.LBB143:
 844              		.loc 3 235 0
 845 0570 380B0000 		la 0,_ZNSs4_Rep20_S_empty_rep_storageE@l(11)
 846              	.LBE143:
 847              	.LBE146:
 848              		.loc 3 534 0
 849 0574 3869FFF4 		addi 3,9,-12
 850              	.LVL48:
 851              	.LBB147:
 852              	.LBB144:
 853              		.loc 3 235 0
 854 0578 7F830000 		cmpw 7,3,0
 855 057c 409E0044 		bne- 7,.L57
 856              	.LVL49:
 857              	.L53:
 858              	.LBE144:
 859              	.LBE147:
 860              	.LBE149:
 861              	.LBE151:
 862              	.LBE153:
 863              		.loc 1 64 0 discriminator 2
 864 0580 2F9E0000 		cmpwi 7,30,0
 865 0584 419C0024 		blt- 7,.L45
 866              		.loc 1 67 0
 867 0588 80810010 		lwz 4,16(1)
 868 058c 7FE3FB78 		mr 3,31
 869 0590 80A1001C 		lwz 5,28(1)
 870              	.LEHB9:
 871 0594 48000001 		bl _ZN12GuiImageData9LoadImageEPKhi
 872              		.loc 1 69 0
 873 0598 80610010 		lwz 3,16(1)
 874 059c 2F830000 		cmpwi 7,3,0
 875 05a0 419E0008 		beq- 7,.L45
 876              		.loc 1 70 0
 877 05a4 48000001 		bl free
 878              	.L45:
 879              	.LBE158:
 880              	.LBE162:
 881              		.loc 1 71 0
 882 05a8 80010034 		lwz 0,52(1)
 883 05ac 83C10028 		lwz 30,40(1)
 884 05b0 7C0803A6 		mtlr 0
 885 05b4 83E1002C 		lwz 31,44(1)
 886              	.LVL50:
 887 05b8 38210030 		addi 1,1,48
 888              		.cfi_remember_state
 889              	.LCFI13:
 890              		.cfi_def_cfa_offset 0
 891              		.cfi_restore 31
 892              		.cfi_restore 30
 893 05bc 4E800020 		blr
 894              	.LVL51:
 895              	.L57:
 896              	.LCFI14:
 897              		.cfi_restore_state
 898              	.LBB163:
 899              	.LBB159:
 900              	.LBB154:
 901              	.LBB152:
 902              	.LBB150:
 903              	.LBB148:
 904              	.LBB145:
 905              	.LBB137:
 906              	.LBB138:
 907              	.LBB139:
 908              		.file 4 "d:\\devkitpro\\devkitppc\\bin\\../lib/gcc/powerpc-eabi/4.6.3/../../../../powerpc-eabi/inc
 909              		.loc 4 66 0
 910 05c0 8169FFFC 		lwz 11,-4(9)
 911              	.LVL52:
 912              	.LBE139:
 913              	.LBE138:
 914              	.LBE137:
 915              		.loc 3 240 0
 916 05c4 2F8B0000 		cmpwi 7,11,0
 917              	.LBB142:
 918              	.LBB141:
 919              	.LBB140:
 920              		.loc 4 67 0
 921 05c8 396BFFFF 		addi 11,11,-1
 922 05cc 9169FFFC 		stw 11,-4(9)
 923              	.LBE140:
 924              	.LBE141:
 925              	.LBE142:
 926              		.loc 3 240 0
 927 05d0 419DFFB0 		bgt+ 7,.L53
 928              		.loc 3 244 0
 929 05d4 38810008 		addi 4,1,8
 930 05d8 48000001 		bl _ZNSs4_Rep10_M_destroyERKSaIcE
 931              	.LVL53:
 932 05dc 4BFFFFA4 		b .L53
 933              	.LVL54:
 934              	.L56:
 935 05e0 7C7F1B78 		mr 31,3
 936              	.LVL55:
 937              	.LBE145:
 938              	.LBE148:
 939              	.LBE150:
 940              	.LBE152:
 941              	.LBE154:
 942              		.loc 1 64 0
 943 05e4 3861000C 		addi 3,1,12
 944 05e8 48000001 		bl _ZNSsD1Ev
 945 05ec 7FE3FB78 		mr 3,31
 946 05f0 48000001 		bl _Unwind_Resume
 947              	.LEHE9:
 948              	.LBE159:
 949              	.LBE163:
 950              		.cfi_endproc
 951              	.LFE866:
 952              		.section	.gcc_except_table
 953              	.LLSDA866:
 954 002d FF       		.byte	0xff
 955 002e FF       		.byte	0xff
 956 002f 01       		.byte	0x1
 957 0030 0E       		.uleb128 .LLSDACSE866-.LLSDACSB866
 958              	.LLSDACSB866:
 959 0031 5C       		.uleb128 .LEHB7-.LFB866
 960 0032 04       		.uleb128 .LEHE7-.LEHB7
 961 0033 00       		.uleb128 0
 962 0034 00       		.uleb128 0
 963 0035 6C       		.uleb128 .LEHB8-.LFB866
 964 0036 04       		.uleb128 .LEHE8-.LEHB8
 965 0037 EC01     		.uleb128 .L56-.LFB866
 966 0039 00       		.uleb128 0
 967 003a A001     		.uleb128 .LEHB9-.LFB866
 968 003c 60       		.uleb128 .LEHE9-.LEHB9
 969 003d 00       		.uleb128 0
 970 003e 00       		.uleb128 0
 971              	.LLSDACSE866:
 972              		.section	".text"
 973              		.size	_ZN12GuiImageDataC2EPKc, .-_ZN12GuiImageDataC2EPKc
 974              		.weak	_ZTS12GuiImageData
 975              		.section	.rodata._ZTS12GuiImageData,"aG",@progbits,_ZTS12GuiImageData,comdat
 976              		.align 2
 977              		.type	_ZTS12GuiImageData, @object
 978              		.size	_ZTS12GuiImageData, 15
 979              	_ZTS12GuiImageData:
 980 0000 31324775 		.string	"12GuiImageData"
 980      69496D61 
 980      67654461 
 980      746100
 981              		.weak	_ZTI12GuiImageData
 982              		.section	.sdata._ZTI12GuiImageData,"awG",@progbits,_ZTI12GuiImageData,comdat
 983              		.align 2
 984              		.type	_ZTI12GuiImageData, @object
 985              		.size	_ZTI12GuiImageData, 8
 986              	_ZTI12GuiImageData:
 987 0000 00000008 		.long	_ZTVN10__cxxabiv117__class_type_infoE+8
 988 0004 00000000 		.long	_ZTS12GuiImageData
 989              		.weak	_ZTV12GuiImageData
 990              		.section	.rodata._ZTV12GuiImageData,"aG",@progbits,_ZTV12GuiImageData,comdat
 991              		.align 3
 992              		.type	_ZTV12GuiImageData, @object
 993              		.size	_ZTV12GuiImageData, 16
 994              	_ZTV12GuiImageData:
 995 0000 00000000 		.long	0
 996 0004 00000000 		.long	_ZTI12GuiImageData
 997 0008 00000000 		.long	_ZN12GuiImageDataD1Ev
 998 000c 00000000 		.long	_ZN12GuiImageDataD0Ev
 999              		.globl _ZN12GuiImageDataD1Ev
 1000              		.set	_ZN12GuiImageDataD1Ev,_ZN12GuiImageDataD2Ev
 1001              		.globl _ZN12GuiImageDataC1Ev
 1002              		.set	_ZN12GuiImageDataC1Ev,_ZN12GuiImageDataC2Ev
 1003              		.globl _ZN12GuiImageDataC1EPKhi
 1004              		.set	_ZN12GuiImageDataC1EPKhi,_ZN12GuiImageDataC2EPKhi
 1005              		.globl _ZN12GuiImageDataC1EPKc
 1006              		.set	_ZN12GuiImageDataC1EPKc,_ZN12GuiImageDataC2EPKc
 1007              		.section	".text"
 1008              	.Letext0:
 1009              		.file 5 "d:\\devkitpro\\devkitppc\\bin\\../lib/gcc/powerpc-eabi/4.6.3/../../../../powerpc-eabi/inc
 1010              		.file 6 "d:\\devkitpro\\devkitppc\\bin\\../lib/gcc/powerpc-eabi/4.6.3/../../../../powerpc-eabi/inc
 1011              		.file 7 "d:\\devkitpro\\devkitppc\\bin\\../lib/gcc/powerpc-eabi/4.6.3/include/stddef.h"
 1012              		.file 8 "d:\\devkitpro\\devkitppc\\bin\\../lib/gcc/powerpc-eabi/4.6.3/../../../../powerpc-eabi/inc
 1013              		.file 9 "d:\\devkitpro\\devkitppc\\bin\\../lib/gcc/powerpc-eabi/4.6.3/../../../../powerpc-eabi/inc
 1014              		.file 10 "d:\\devkitpro\\devkitppc\\bin\\../lib/gcc/powerpc-eabi/4.6.3/../../../../powerpc-eabi/in
 1015              		.file 11 "d:/devkitPro/libogc/include/gctypes.h"
 1016              		.file 12 "<built-in>"
 1017              		.file 13 "d:/devkitPro/libogc/include/gd.h"
 1018              		.file 14 "d:\\devkitpro\\devkitppc\\bin\\../lib/gcc/powerpc-eabi/4.6.3/../../../../powerpc-eabi/in
 1019              		.file 15 "d:\\devkitpro\\devkitppc\\bin\\../lib/gcc/powerpc-eabi/4.6.3/../../../../powerpc-eabi/in
 1020              		.file 16 "d:\\devkitpro\\devkitppc\\bin\\../lib/gcc/powerpc-eabi/4.6.3/../../../../powerpc-eabi/in
 1021              		.file 17 "d:\\devkitpro\\devkitppc\\bin\\../lib/gcc/powerpc-eabi/4.6.3/../../../../powerpc-eabi/in
 1022              		.file 18 "d:\\devkitpro\\devkitppc\\bin\\../lib/gcc/powerpc-eabi/4.6.3/../../../../powerpc-eabi/in
 1023              		.file 19 "d:\\devkitpro\\devkitppc\\bin\\../lib/gcc/powerpc-eabi/4.6.3/../../../../powerpc-eabi/in
 1024              		.file 20 "d:\\devkitpro\\devkitppc\\bin\\../lib/gcc/powerpc-eabi/4.6.3/../../../../powerpc-eabi/in
 1025              		.file 21 "d:\\devkitpro\\devkitppc\\bin\\../lib/gcc/powerpc-eabi/4.6.3/../../../../powerpc-eabi/in
 1026              		.file 22 "d:\\devkitpro\\devkitppc\\bin\\../lib/gcc/powerpc-eabi/4.6.3/../../../../powerpc-eabi/in
 1027              		.file 23 "d:/Projects/SaveGameManager/savegame-manager-gx/trunk/source/GUI/../ImageOperations/GifI
 1028              		.file 24 "d:\\devkitpro\\devkitppc\\bin\\../lib/gcc/powerpc-eabi/4.6.3/../../../../powerpc-eabi/in
 1029              		.file 25 "d:/devkitPro/libogc/include/ogc/gx.h"
 1030              		.file 26 "d:/Projects/SaveGameManager/savegame-manager-gx/trunk/source/GUI/../ImageOperations/TplI
 1031              		.file 27 "d:\\devkitpro\\devkitppc\\bin\\../lib/gcc/powerpc-eabi/4.6.3/../../../../powerpc-eabi/in
 1032              		.file 28 "d:\\devkitpro\\devkitppc\\bin\\../lib/gcc/powerpc-eabi/4.6.3/../../../../powerpc-eabi/in
 1033              		.file 29 "d:\\devkitpro\\devkitppc\\bin\\../lib/gcc/powerpc-eabi/4.6.3/../../../../powerpc-eabi/in
 1034              		.file 30 "d:\\devkitpro\\devkitppc\\bin\\../lib/gcc/powerpc-eabi/4.6.3/../../../../powerpc-eabi/in
 1035              		.file 31 "d:\\devkitpro\\devkitppc\\bin\\../lib/gcc/powerpc-eabi/4.6.3/../../../../powerpc-eabi/in
 1036              		.file 32 "d:/Projects/SaveGameManager/savegame-manager-gx/trunk/source/GUI/gui_imagedata.h"