   1              		.file	"gui_keyboard.cpp"
   2              		.section	".text"
   3              	.Ltext0:
   4              		.section	.text._ZN7sigslot15single_threadedD2Ev,"axG",@progbits,_ZN7sigslot15single_threadedD5Ev,c
   5              		.align 2
   6              		.weak	_ZN7sigslot15single_threadedD2Ev
   7              		.type	_ZN7sigslot15single_threadedD2Ev, @function
   8              	_ZN7sigslot15single_threadedD2Ev:
   9              	.LFB1148:
  10              		.file 1 "d:/Projects/SaveGameManager/savegame-manager-gx/trunk/source/GUI/../sigslot.h"
  11              		.loc 1 104 0
  12              		.cfi_startproc
  13              	.LVL0:
  14              	.LBB2049:
  15              		.loc 1 105 0
  16 0000 3D200000 		lis 9,_ZTVN7sigslot15single_threadedE+8@ha
  17              	.LBE2049:
  18              		.loc 1 107 0
  19              	.LBB2050:
  20              		.loc 1 105 0
  21 0004 38090008 		la 0,_ZTVN7sigslot15single_threadedE+8@l(9)
  22 0008 90030000 		stw 0,0(3)
  23              	.LBE2050:
  24              		.loc 1 107 0
  25 000c 4E800020 		blr
  26              		.cfi_endproc
  27              	.LFE1148:
  28              		.size	_ZN7sigslot15single_threadedD2Ev, .-_ZN7sigslot15single_threadedD2Ev
  29              		.section	.text._ZN7sigslot15single_threaded4lockEv,"axG",@progbits,_ZN7sigslot15single_threaded4lo
  30              		.align 2
  31              		.weak	_ZN7sigslot15single_threaded4lockEv
  32              		.type	_ZN7sigslot15single_threaded4lockEv, @function
  33              	_ZN7sigslot15single_threaded4lockEv:
  34              	.LFB1151:
  35              		.loc 1 109 0
  36              		.cfi_startproc
  37              	.LVL1:
  38              		.loc 1 112 0
  39 0000 4E800020 		blr
  40              		.cfi_endproc
  41              	.LFE1151:
  42              		.size	_ZN7sigslot15single_threaded4lockEv, .-_ZN7sigslot15single_threaded4lockEv
  43              		.section	.text._ZN7sigslot15single_threaded6unlockEv,"axG",@progbits,_ZN7sigslot15single_threaded6
  44              		.align 2
  45              		.weak	_ZN7sigslot15single_threaded6unlockEv
  46              		.type	_ZN7sigslot15single_threaded6unlockEv, @function
  47              	_ZN7sigslot15single_threaded6unlockEv:
  48              	.LFB1152:
  49              		.loc 1 114 0
  50              		.cfi_startproc
  51              	.LVL2:
  52              		.loc 1 117 0
  53 0000 4E800020 		blr
  54              		.cfi_endproc
  55              	.LFE1152:
  56              		.size	_ZN7sigslot15single_threaded6unlockEv, .-_ZN7sigslot15single_threaded6unlockEv
  57              		.section	.text._ZN10GuiElement9SetParentEPS_,"axG",@progbits,_ZN10GuiElement9SetParentEPS_,comdat
  58              		.align 2
  59              		.weak	_ZN10GuiElement9SetParentEPS_
  60              		.type	_ZN10GuiElement9SetParentEPS_, @function
  61              	_ZN10GuiElement9SetParentEPS_:
  62              	.LFB1384:
  63              		.file 2 "d:/Projects/SaveGameManager/savegame-manager-gx/trunk/source/GUI/gui_element.h"
  64              		.loc 2 92 0
  65              		.cfi_startproc
  66              	.LVL3:
  67              		.loc 2 92 0
  68 0000 90830060 		stw 4,96(3)
  69 0004 4E800020 		blr
  70              		.cfi_endproc
  71              	.LFE1384:
  72              		.size	_ZN10GuiElement9SetParentEPS_, .-_ZN10GuiElement9SetParentEPS_
  73              		.section	.text._ZN10GuiElement9GetParentEv,"axG",@progbits,_ZN10GuiElement9GetParentEv,comdat
  74              		.align 2
  75              		.weak	_ZN10GuiElement9GetParentEv
  76              		.type	_ZN10GuiElement9GetParentEv, @function
  77              	_ZN10GuiElement9GetParentEv:
  78              	.LFB1385:
  79              		.loc 2 95 0
  80              		.cfi_startproc
  81              	.LVL4:
  82              		.loc 2 95 0
  83 0000 80630060 		lwz 3,96(3)
  84              	.LVL5:
  85 0004 4E800020 		blr
  86              		.cfi_endproc
  87              	.LFE1385:
  88              		.size	_ZN10GuiElement9GetParentEv, .-_ZN10GuiElement9GetParentEv
  89              		.section	.text._ZN10GuiElement12GetZPositionEv,"axG",@progbits,_ZN10GuiElement12GetZPositionEv,com
  90              		.align 2
  91              		.weak	_ZN10GuiElement12GetZPositionEv
  92              		.type	_ZN10GuiElement12GetZPositionEv, @function
  93              	_ZN10GuiElement12GetZPositionEv:
  94              	.LFB1386:
  95              		.loc 2 106 0
  96              		.cfi_startproc
  97              	.LVL6:
  98 0000 7C0802A6 		mflr 0
  99 0004 9421FFF0 		stwu 1,-16(1)
 100              	.LCFI0:
 101              		.cfi_def_cfa_offset 16
 102              		.cfi_register 65, 0
 103 0008 93E1000C 		stw 31,12(1)
 104 000c 7C7F1B78 		mr 31,3
 105              		.cfi_offset 31, -4
 106 0010 90010014 		stw 0,20(1)
 107              	.LBB2051:
 108              		.loc 2 110 0
 109 0014 81630060 		lwz 11,96(3)
 110              		.loc 2 108 0
 111 0018 38600000 		li 3,0
 112              	.LVL7:
 113              		.loc 2 110 0
 114 001c 2F8B0000 		cmpwi 7,11,0
 115 0020 419E0018 		beq- 7,.L8
 116              		.cfi_offset 65, 4
 117              		.loc 2 111 0
 118 0024 812B0000 		lwz 9,0(11)
 119 0028 7D635B78 		mr 3,11
 120 002c 80090018 		lwz 0,24(9)
 121 0030 7C0903A6 		mtctr 0
 122 0034 4E800421 		bctrl
 123              	.LVL8:
 124              	.L8:
 125              		.loc 2 113 0
 126 0038 801F0034 		lwz 0,52(31)
 127              	.LBE2051:
 128              		.loc 2 114 0
 129 003c 83E1000C 		lwz 31,12(1)
 130              	.LVL9:
 131 0040 7C630214 		add 3,3,0
 132              	.LVL10:
 133 0044 80010014 		lwz 0,20(1)
 134 0048 38210010 		addi 1,1,16
 135              	.LCFI1:
 136              		.cfi_def_cfa_offset 0
 137              		.cfi_restore 31
 138 004c 7C0803A6 		mtlr 0
 139 0050 4E800020 		blr
 140              		.cfi_endproc
 141              	.LFE1386:
 142              		.size	_ZN10GuiElement12GetZPositionEv, .-_ZN10GuiElement12GetZPositionEv
 143              		.section	.text._ZN10GuiElement10GetLeftPosEv,"axG",@progbits,_ZN10GuiElement10GetLeftPosEv,comdat
 144              		.align 2
 145              		.weak	_ZN10GuiElement10GetLeftPosEv
 146              		.type	_ZN10GuiElement10GetLeftPosEv, @function
 147              	_ZN10GuiElement10GetLeftPosEv:
 148              	.LFB1387:
 149              		.loc 2 116 0
 150              		.cfi_startproc
 151              	.LVL11:
 152              		.loc 2 116 0
 153 0000 8063002C 		lwz 3,44(3)
 154              	.LVL12:
 155 0004 4E800020 		blr
 156              		.cfi_endproc
 157              	.LFE1387:
 158              		.size	_ZN10GuiElement10GetLeftPosEv, .-_ZN10GuiElement10GetLeftPosEv
 159              		.section	.text._ZN10GuiElement9GetTopPosEv,"axG",@progbits,_ZN10GuiElement9GetTopPosEv,comdat
 160              		.align 2
 161              		.weak	_ZN10GuiElement9GetTopPosEv
 162              		.type	_ZN10GuiElement9GetTopPosEv, @function
 163              	_ZN10GuiElement9GetTopPosEv:
 164              	.LFB1388:
 165              		.loc 2 118 0
 166              		.cfi_startproc
 167              	.LVL13:
 168              		.loc 2 118 0
 169 0000 80630030 		lwz 3,48(3)
 170              	.LVL14:
 171 0004 4E800020 		blr
 172              		.cfi_endproc
 173              	.LFE1388:
 174              		.size	_ZN10GuiElement9GetTopPosEv, .-_ZN10GuiElement9GetTopPosEv
 175              		.section	.text._ZN10GuiElement8GetWidthEv,"axG",@progbits,_ZN10GuiElement8GetWidthEv,comdat
 176              		.align 2
 177              		.weak	_ZN10GuiElement8GetWidthEv
 178              		.type	_ZN10GuiElement8GetWidthEv, @function
 179              	_ZN10GuiElement8GetWidthEv:
 180              	.LFB1389:
 181              		.loc 2 121 0
 182              		.cfi_startproc
 183              	.LVL15:
 184              		.loc 2 121 0
 185 0000 80630024 		lwz 3,36(3)
 186              	.LVL16:
 187 0004 4E800020 		blr
 188              		.cfi_endproc
 189              	.LFE1389:
 190              		.size	_ZN10GuiElement8GetWidthEv, .-_ZN10GuiElement8GetWidthEv
 191              		.section	.text._ZN10GuiElement9GetHeightEv,"axG",@progbits,_ZN10GuiElement9GetHeightEv,comdat
 192              		.align 2
 193              		.weak	_ZN10GuiElement9GetHeightEv
 194              		.type	_ZN10GuiElement9GetHeightEv, @function
 195              	_ZN10GuiElement9GetHeightEv:
 196              	.LFB1390:
 197              		.loc 2 124 0
 198              		.cfi_startproc
 199              	.LVL17:
 200              		.loc 2 124 0
 201 0000 80630028 		lwz 3,40(3)
 202              	.LVL18:
 203 0004 4E800020 		blr
 204              		.cfi_endproc
 205              	.LFE1390:
 206              		.size	_ZN10GuiElement9GetHeightEv, .-_ZN10GuiElement9GetHeightEv
 207              		.section	.text._ZN10GuiElement7SetSizeEii,"axG",@progbits,_ZN10GuiElement7SetSizeEii,comdat
 208              		.align 2
 209              		.weak	_ZN10GuiElement7SetSizeEii
 210              		.type	_ZN10GuiElement7SetSizeEii, @function
 211              	_ZN10GuiElement7SetSizeEii:
 212              	.LFB1391:
 213              		.loc 2 128 0
 214              		.cfi_startproc
 215              	.LVL19:
 216              		.loc 2 130 0
 217 0000 90830024 		stw 4,36(3)
 218              		.loc 2 132 0
 219              		.loc 2 131 0
 220 0004 90A30028 		stw 5,40(3)
 221              		.loc 2 132 0
 222 0008 4E800020 		blr
 223              		.cfi_endproc
 224              	.LFE1391:
 225              		.size	_ZN10GuiElement7SetSizeEii, .-_ZN10GuiElement7SetSizeEii
 226              		.section	.text._ZN10GuiElement9IsVisibleEv,"axG",@progbits,_ZN10GuiElement9IsVisibleEv,comdat
 227              		.align 2
 228              		.weak	_ZN10GuiElement9IsVisibleEv
 229              		.type	_ZN10GuiElement9IsVisibleEv, @function
 230              	_ZN10GuiElement9IsVisibleEv:
 231              	.LFB1393:
 232              		.loc 2 142 0
 233              		.cfi_startproc
 234              	.LVL20:
 235              		.loc 2 142 0
 236 0000 8863001D 		lbz 3,29(3)
 237              	.LVL21:
 238 0004 4E800020 		blr
 239              		.cfi_endproc
 240              	.LFE1393:
 241              		.size	_ZN10GuiElement9IsVisibleEv, .-_ZN10GuiElement9IsVisibleEv
 242              		.section	.text._ZN10GuiElement12IsSelectableEv,"axG",@progbits,_ZN10GuiElement12IsSelectableEv,com
 243              		.align 2
 244              		.weak	_ZN10GuiElement12IsSelectableEv
 245              		.type	_ZN10GuiElement12IsSelectableEv, @function
 246              	_ZN10GuiElement12IsSelectableEv:
 247              	.LFB1394:
 248              		.loc 2 145 0
 249              		.cfi_startproc
 250              	.LVL22:
 251              		.loc 2 149 0
 252 0000 80030048 		lwz 0,72(3)
 253 0004 39200000 		li 9,0
 254 0008 2F800004 		cmpwi 7,0,4
 255 000c 419E0010 		beq- 7,.L18
 256              		.loc 2 149 0 is_stmt 0 discriminator 1
 257 0010 2F800002 		cmpwi 7,0,2
 258 0014 419E0008 		beq- 7,.L18
 259              		.loc 2 149 0 discriminator 3
 260 0018 8923001E 		lbz 9,30(3)
 261              	.L18:
 262              		.loc 2 150 0 is_stmt 1 discriminator 5
 263 001c 7D234B78 		mr 3,9
 264              	.LVL23:
 265 0020 4E800020 		blr
 266              		.cfi_endproc
 267              	.LFE1394:
 268              		.size	_ZN10GuiElement12IsSelectableEv, .-_ZN10GuiElement12IsSelectableEv
 269              		.section	.text._ZN10GuiElement11IsClickableEv,"axG",@progbits,_ZN10GuiElement11IsClickableEv,comda
 270              		.align 2
 271              		.weak	_ZN10GuiElement11IsClickableEv
 272              		.type	_ZN10GuiElement11IsClickableEv, @function
 273              	_ZN10GuiElement11IsClickableEv:
 274              	.LFB1395:
 275              		.loc 2 153 0
 276              		.cfi_startproc
 277              	.LVL24:
 278              		.loc 2 158 0
 279 0000 80030048 		lwz 0,72(3)
 280 0004 39200000 		li 9,0
 281 0008 2F800004 		cmpwi 7,0,4
 282 000c 419E0018 		beq- 7,.L22
 283              		.loc 2 158 0 is_stmt 0 discriminator 1
 284 0010 2F800002 		cmpwi 7,0,2
 285 0014 419E0010 		beq- 7,.L22
 286              		.loc 2 158 0 discriminator 3
 287 0018 2F800003 		cmpwi 7,0,3
 288 001c 419E0008 		beq- 7,.L22
 289              		.loc 2 158 0 discriminator 4
 290 0020 8923001F 		lbz 9,31(3)
 291              	.L22:
 292              		.loc 2 159 0 is_stmt 1 discriminator 6
 293 0024 7D234B78 		mr 3,9
 294              	.LVL25:
 295 0028 4E800020 		blr
 296              		.cfi_endproc
 297              	.LFE1395:
 298              		.size	_ZN10GuiElement11IsClickableEv, .-_ZN10GuiElement11IsClickableEv
 299              		.section	.text._ZN10GuiElement10IsHoldableEv,"axG",@progbits,_ZN10GuiElement10IsHoldableEv,comdat
 300              		.align 2
 301              		.weak	_ZN10GuiElement10IsHoldableEv
 302              		.type	_ZN10GuiElement10IsHoldableEv, @function
 303              	_ZN10GuiElement10IsHoldableEv:
 304              	.LFB1396:
 305              		.loc 2 162 0
 306              		.cfi_startproc
 307              	.LVL26:
 308              		.loc 2 162 0
 309 0000 81230048 		lwz 9,72(3)
 310 0004 38000000 		li 0,0
 311 0008 2F890004 		cmpwi 7,9,4
 312 000c 419E0008 		beq- 7,.L27
 313              		.loc 2 162 0 is_stmt 0 discriminator 1
 314 0010 88030020 		lbz 0,32(3)
 315              	.L27:
 316              		.loc 2 162 0 discriminator 4
 317 0014 7C030378 		mr 3,0
 318              	.LVL27:
 319 0018 4E800020 		blr
 320              		.cfi_endproc
 321              	.LFE1396:
 322              		.size	_ZN10GuiElement10IsHoldableEv, .-_ZN10GuiElement10IsHoldableEv
 323              		.section	.text._ZN10GuiElement13SetSelectableEb,"axG",@progbits,_ZN10GuiElement13SetSelectableEb,c
 324              		.align 2
 325              		.weak	_ZN10GuiElement13SetSelectableEb
 326              		.type	_ZN10GuiElement13SetSelectableEb, @function
 327              	_ZN10GuiElement13SetSelectableEb:
 328              	.LFB1397:
 329              		.loc 2 165 0 is_stmt 1
 330              		.cfi_startproc
 331              	.LVL28:
 332              		.loc 2 165 0
 333 0000 9883001E 		stb 4,30(3)
 334 0004 4E800020 		blr
 335              		.cfi_endproc
 336              	.LFE1397:
 337              		.size	_ZN10GuiElement13SetSelectableEb, .-_ZN10GuiElement13SetSelectableEb
 338              		.section	.text._ZN10GuiElement12SetClickableEb,"axG",@progbits,_ZN10GuiElement12SetClickableEb,com
 339              		.align 2
 340              		.weak	_ZN10GuiElement12SetClickableEb
 341              		.type	_ZN10GuiElement12SetClickableEb, @function
 342              	_ZN10GuiElement12SetClickableEb:
 343              	.LFB1398:
 344              		.loc 2 168 0
 345              		.cfi_startproc
 346              	.LVL29:
 347              		.loc 2 168 0
 348 0000 9883001F 		stb 4,31(3)
 349 0004 4E800020 		blr
 350              		.cfi_endproc
 351              	.LFE1398:
 352              		.size	_ZN10GuiElement12SetClickableEb, .-_ZN10GuiElement12SetClickableEb
 353              		.section	.text._ZN10GuiElement11SetHoldableEb,"axG",@progbits,_ZN10GuiElement11SetHoldableEb,comda
 354              		.align 2
 355              		.weak	_ZN10GuiElement11SetHoldableEb
 356              		.type	_ZN10GuiElement11SetHoldableEb, @function
 357              	_ZN10GuiElement11SetHoldableEb:
 358              	.LFB1399:
 359              		.loc 2 171 0
 360              		.cfi_startproc
 361              	.LVL30:
 362              		.loc 2 171 0
 363 0000 98830020 		stb 4,32(3)
 364 0004 4E800020 		blr
 365              		.cfi_endproc
 366              	.LFE1399:
 367              		.size	_ZN10GuiElement11SetHoldableEb, .-_ZN10GuiElement11SetHoldableEb
 368              		.section	.text._ZN10GuiElement8GetStateEv,"axG",@progbits,_ZN10GuiElement8GetStateEv,comdat
 369              		.align 2
 370              		.weak	_ZN10GuiElement8GetStateEv
 371              		.type	_ZN10GuiElement8GetStateEv, @function
 372              	_ZN10GuiElement8GetStateEv:
 373              	.LFB1400:
 374              		.loc 2 178 0
 375              		.cfi_startproc
 376              	.LVL31:
 377              		.loc 2 178 0
 378 0000 80630048 		lwz 3,72(3)
 379              	.LVL32:
 380 0004 4E800020 		blr
 381              		.cfi_endproc
 382              	.LFE1400:
 383              		.size	_ZN10GuiElement8GetStateEv, .-_ZN10GuiElement8GetStateEv
 384              		.section	.text._ZN10GuiElement12GetStateChanEv,"axG",@progbits,_ZN10GuiElement12GetStateChanEv,com
 385              		.align 2
 386              		.weak	_ZN10GuiElement12GetStateChanEv
 387              		.type	_ZN10GuiElement12GetStateChanEv, @function
 388              	_ZN10GuiElement12GetStateChanEv:
 389              	.LFB1401:
 390              		.loc 2 181 0
 391              		.cfi_startproc
 392              	.LVL33:
 393              		.loc 2 181 0
 394 0000 8063004C 		lwz 3,76(3)
 395              	.LVL34:
 396 0004 4E800020 		blr
 397              		.cfi_endproc
 398              	.LFE1401:
 399              		.size	_ZN10GuiElement12GetStateChanEv, .-_ZN10GuiElement12GetStateChanEv
 400              		.section	.text._ZN10GuiElement8SetAlphaEi,"axG",@progbits,_ZN10GuiElement8SetAlphaEi,comdat
 401              		.align 2
 402              		.weak	_ZN10GuiElement8SetAlphaEi
 403              		.type	_ZN10GuiElement8SetAlphaEi, @function
 404              	_ZN10GuiElement8SetAlphaEi:
 405              	.LFB1403:
 406              		.loc 2 190 0
 407              		.cfi_startproc
 408              	.LVL35:
 409              		.loc 2 190 0
 410 0000 90830038 		stw 4,56(3)
 411 0004 4E800020 		blr
 412              		.cfi_endproc
 413              	.LFE1403:
 414              		.size	_ZN10GuiElement8SetAlphaEi, .-_ZN10GuiElement8SetAlphaEi
 415              		.section	.text._ZN10GuiElement8GetAlphaEv,"axG",@progbits,_ZN10GuiElement8GetAlphaEv,comdat
 416              		.align 2
 417              		.weak	_ZN10GuiElement8GetAlphaEv
 418              		.type	_ZN10GuiElement8GetAlphaEv, @function
 419              	_ZN10GuiElement8GetAlphaEv:
 420              	.LFB1404:
 421              		.loc 2 194 0
 422              		.cfi_startproc
 423              	.LVL36:
 424 0000 7C0802A6 		mflr 0
 425 0004 9421FFD8 		stwu 1,-40(1)
 426              	.LCFI2:
 427              		.cfi_def_cfa_offset 40
 428              		.cfi_register 65, 0
 429 0008 93E10024 		stw 31,36(1)
 430 000c 9001002C 		stw 0,44(1)
 431              	.LBB2052:
 432              		.loc 2 198 0
 433 0010 83E3006C 		lwz 31,108(3)
 434              		.cfi_offset 65, 4
 435              		.cfi_offset 31, -4
 436 0014 2F9F0000 		cmpwi 7,31,0
 437 0018 419C0094 		blt- 7,.L38
 438              	.L36:
 439              	.LVL37:
 440              		.loc 2 203 0
 441 001c 80630060 		lwz 3,96(3)
 442              	.LVL38:
 443 0020 2F830000 		cmpwi 7,3,0
 444 0024 419E0070 		beq- 7,.L37
 445              		.loc 2 204 0
 446 0028 81230000 		lwz 9,0(3)
 447 002c 6FFF8000 		xoris 31,31,0x8000
 448              	.LVL39:
 449 0030 80090064 		lwz 0,100(9)
 450 0034 7C0903A6 		mtctr 0
 451 0038 4E800421 		bctrl
 452 003c 3C004330 		lis 0,0x4330
 453 0040 6C638000 		xoris 3,3,0x8000
 454 0044 90010010 		stw 0,16(1)
 455 0048 90610014 		stw 3,20(1)
 456 004c 3D200000 		lis 9,.LC1@ha
 457 0050 C0090000 		lfs 0,.LC1@l(9)
 458 0054 3D200000 		lis 9,.LC2@ha
 459 0058 C9A10010 		lfd 13,16(1)
 460 005c C1890004 		lfs 12,.LC2@l(9)
 461 0060 39210018 		addi 9,1,24
 462 0064 FDAD0028 		fsub 13,13,0
 463 0068 93E1000C 		stw 31,12(1)
 464 006c 90010008 		stw 0,8(1)
 465 0070 FDA06818 		frsp 13,13
 466 0074 EDAD6024 		fdivs 13,13,12
 467 0078 C9810008 		lfd 12,8(1)
 468 007c FC0C0028 		fsub 0,12,0
 469 0080 FC000018 		frsp 0,0
 470 0084 EC000372 		fmuls 0,0,13
 471 0088 FC00001E 		fctiwz 0,0
 472 008c 7C004FAE 		stfiwx 0,0,9
 473 0090 83E10018 		lwz 31,24(1)
 474              	.LVL40:
 475              	.L37:
 476              	.LBE2052:
 477              		.loc 2 207 0
 478 0094 8001002C 		lwz 0,44(1)
 479 0098 7FE3FB78 		mr 3,31
 480 009c 83E10024 		lwz 31,36(1)
 481              	.LVL41:
 482 00a0 7C0803A6 		mtlr 0
 483 00a4 38210028 		addi 1,1,40
 484              		.cfi_remember_state
 485              	.LCFI3:
 486              		.cfi_def_cfa_offset 0
 487              		.cfi_restore 31
 488 00a8 4E800020 		blr
 489              	.LVL42:
 490              	.L38:
 491              	.LCFI4:
 492              		.cfi_restore_state
 493              	.LBB2053:
 494              		.loc 2 201 0
 495 00ac 83E30038 		lwz 31,56(3)
 496              	.LVL43:
 497 00b0 4BFFFF6C 		b .L36
 498              	.LBE2053:
 499              		.cfi_endproc
 500              	.LFE1404:
 501              		.size	_ZN10GuiElement8GetAlphaEv, .-_ZN10GuiElement8GetAlphaEv
 502              		.section	.text._ZN10GuiElement8SetScaleEf,"axG",@progbits,_ZN10GuiElement8SetScaleEf,comdat
 503              		.align 2
 504              		.weak	_ZN10GuiElement8SetScaleEf
 505              		.type	_ZN10GuiElement8SetScaleEf, @function
 506              	_ZN10GuiElement8SetScaleEf:
 507              	.LFB1405:
 508              		.loc 2 210 0
 509              		.cfi_startproc
 510              	.LVL44:
 511              		.loc 2 212 0
 512 0000 D023003C 		stfs 1,60(3)
 513              		.loc 2 214 0
 514              		.loc 2 213 0
 515 0004 D0230040 		stfs 1,64(3)
 516              		.loc 2 214 0
 517 0008 4E800020 		blr
 518              		.cfi_endproc
 519              	.LFE1405:
 520              		.size	_ZN10GuiElement8SetScaleEf, .-_ZN10GuiElement8SetScaleEf
 521              		.section	.text._ZN10GuiElement9SetScaleXEf,"axG",@progbits,_ZN10GuiElement9SetScaleXEf,comdat
 522              		.align 2
 523              		.weak	_ZN10GuiElement9SetScaleXEf
 524              		.type	_ZN10GuiElement9SetScaleXEf, @function
 525              	_ZN10GuiElement9SetScaleXEf:
 526              	.LFB1406:
 527              		.loc 2 217 0
 528              		.cfi_startproc
 529              	.LVL45:
 530              		.loc 2 217 0
 531 0000 D023003C 		stfs 1,60(3)
 532 0004 4E800020 		blr
 533              		.cfi_endproc
 534              	.LFE1406:
 535              		.size	_ZN10GuiElement9SetScaleXEf, .-_ZN10GuiElement9SetScaleXEf
 536              		.section	.text._ZN10GuiElement9SetScaleYEf,"axG",@progbits,_ZN10GuiElement9SetScaleYEf,comdat
 537              		.align 2
 538              		.weak	_ZN10GuiElement9SetScaleYEf
 539              		.type	_ZN10GuiElement9SetScaleYEf, @function
 540              	_ZN10GuiElement9SetScaleYEf:
 541              	.LFB1407:
 542              		.loc 2 220 0
 543              		.cfi_startproc
 544              	.LVL46:
 545              		.loc 2 220 0
 546 0000 D0230040 		stfs 1,64(3)
 547 0004 4E800020 		blr
 548              		.cfi_endproc
 549              	.LFE1407:
 550              		.size	_ZN10GuiElement9SetScaleYEf, .-_ZN10GuiElement9SetScaleYEf
 551              		.section	.text._ZN10GuiElement8GetScaleEv,"axG",@progbits,_ZN10GuiElement8GetScaleEv,comdat
 552              		.align 2
 553              		.weak	_ZN10GuiElement8GetScaleEv
 554              		.type	_ZN10GuiElement8GetScaleEv, @function
 555              	_ZN10GuiElement8GetScaleEv:
 556              	.LFB1408:
 557              		.loc 2 223 0
 558              		.cfi_startproc
 559              	.LVL47:
 560 0000 7C0802A6 		mflr 0
 561 0004 9421FFF0 		stwu 1,-16(1)
 562              	.LCFI5:
 563              		.cfi_def_cfa_offset 16
 564              		.cfi_register 65, 0
 565              	.LBB2054:
 566              		.loc 2 225 0
 567 0008 3D200000 		lis 9,.LC3@ha
 568              	.LBE2054:
 569              		.loc 2 223 0
 570 000c DBE10008 		stfd 31,8(1)
 571 0010 90010014 		stw 0,20(1)
 572              	.LBB2055:
 573              		.loc 2 225 0
 574 0014 C0030040 		lfs 0,64(3)
 575 0018 C3E3003C 		lfs 31,60(3)
 576              		.cfi_offset 65, 4
 577              		.cfi_offset 63, -8
 578              		.loc 2 227 0
 579 001c 81630060 		lwz 11,96(3)
 580              		.loc 2 225 0
 581 0020 EFFF002A 		fadds 31,31,0
 582 0024 C0090008 		lfs 0,.LC3@l(9)
 583              		.loc 2 227 0
 584 0028 2F8B0000 		cmpwi 7,11,0
 585              		.loc 2 225 0
 586 002c EFFF0032 		fmuls 31,31,0
 587 0030 C0030070 		lfs 0,112(3)
 588 0034 EFFF0032 		fmuls 31,31,0
 589              	.LVL48:
 590              		.loc 2 227 0
 591 0038 419E001C 		beq- 7,.L43
 592              		.loc 2 228 0
 593 003c 812B0000 		lwz 9,0(11)
 594 0040 7D635B78 		mr 3,11
 595              	.LVL49:
 596 0044 80090074 		lwz 0,116(9)
 597 0048 7C0903A6 		mtctr 0
 598 004c 4E800421 		bctrl
 599 0050 EFFF0072 		fmuls 31,31,1
 600              	.LVL50:
 601              	.L43:
 602              	.LBE2055:
 603              		.loc 2 231 0
 604 0054 80010014 		lwz 0,20(1)
 605 0058 FC20F890 		fmr 1,31
 606 005c CBE10008 		lfd 31,8(1)
 607              	.LVL51:
 608 0060 7C0803A6 		mtlr 0
 609 0064 38210010 		addi 1,1,16
 610              	.LCFI6:
 611              		.cfi_def_cfa_offset 0
 612              		.cfi_restore 63
 613 0068 4E800020 		blr
 614              		.cfi_endproc
 615              	.LFE1408:
 616              		.size	_ZN10GuiElement8GetScaleEv, .-_ZN10GuiElement8GetScaleEv
 617              		.section	.text._ZN10GuiElement9GetScaleXEv,"axG",@progbits,_ZN10GuiElement9GetScaleXEv,comdat
 618              		.align 2
 619              		.weak	_ZN10GuiElement9GetScaleXEv
 620              		.type	_ZN10GuiElement9GetScaleXEv, @function
 621              	_ZN10GuiElement9GetScaleXEv:
 622              	.LFB1409:
 623              		.loc 2 234 0
 624              		.cfi_startproc
 625              	.LVL52:
 626 0000 7C0802A6 		mflr 0
 627 0004 9421FFF0 		stwu 1,-16(1)
 628              	.LCFI7:
 629              		.cfi_def_cfa_offset 16
 630              		.cfi_register 65, 0
 631 0008 DBE10008 		stfd 31,8(1)
 632 000c 90010014 		stw 0,20(1)
 633              	.LBB2056:
 634              		.loc 2 238 0
 635 0010 81630060 		lwz 11,96(3)
 636              		.loc 2 236 0
 637 0014 C3E3003C 		lfs 31,60(3)
 638              		.cfi_offset 65, 4
 639              		.cfi_offset 63, -8
 640              		.loc 2 238 0
 641 0018 2F8B0000 		cmpwi 7,11,0
 642              		.loc 2 236 0
 643 001c C0030070 		lfs 0,112(3)
 644 0020 EFFF0032 		fmuls 31,31,0
 645              	.LVL53:
 646              		.loc 2 238 0
 647 0024 419E001C 		beq- 7,.L45
 648              		.loc 2 239 0
 649 0028 812B0000 		lwz 9,0(11)
 650 002c 7D635B78 		mr 3,11
 651              	.LVL54:
 652 0030 80090078 		lwz 0,120(9)
 653 0034 7C0903A6 		mtctr 0
 654 0038 4E800421 		bctrl
 655 003c EFFF0072 		fmuls 31,31,1
 656              	.LVL55:
 657              	.L45:
 658              	.LBE2056:
 659              		.loc 2 242 0
 660 0040 80010014 		lwz 0,20(1)
 661 0044 FC20F890 		fmr 1,31
 662 0048 CBE10008 		lfd 31,8(1)
 663              	.LVL56:
 664 004c 7C0803A6 		mtlr 0
 665 0050 38210010 		addi 1,1,16
 666              	.LCFI8:
 667              		.cfi_def_cfa_offset 0
 668              		.cfi_restore 63
 669 0054 4E800020 		blr
 670              		.cfi_endproc
 671              	.LFE1409:
 672              		.size	_ZN10GuiElement9GetScaleXEv, .-_ZN10GuiElement9GetScaleXEv
 673              		.section	.text._ZN10GuiElement9GetScaleYEv,"axG",@progbits,_ZN10GuiElement9GetScaleYEv,comdat
 674              		.align 2
 675              		.weak	_ZN10GuiElement9GetScaleYEv
 676              		.type	_ZN10GuiElement9GetScaleYEv, @function
 677              	_ZN10GuiElement9GetScaleYEv:
 678              	.LFB1410:
 679              		.loc 2 245 0
 680              		.cfi_startproc
 681              	.LVL57:
 682 0000 7C0802A6 		mflr 0
 683 0004 9421FFF0 		stwu 1,-16(1)
 684              	.LCFI9:
 685              		.cfi_def_cfa_offset 16
 686              		.cfi_register 65, 0
 687 0008 DBE10008 		stfd 31,8(1)
 688 000c 90010014 		stw 0,20(1)
 689              	.LBB2057:
 690              		.loc 2 249 0
 691 0010 81630060 		lwz 11,96(3)
 692              		.loc 2 247 0
 693 0014 C3E30040 		lfs 31,64(3)
 694              		.cfi_offset 65, 4
 695              		.cfi_offset 63, -8
 696              		.loc 2 249 0
 697 0018 2F8B0000 		cmpwi 7,11,0
 698              		.loc 2 247 0
 699 001c C0030070 		lfs 0,112(3)
 700 0020 EFFF0032 		fmuls 31,31,0
 701              	.LVL58:
 702              		.loc 2 249 0
 703 0024 419E001C 		beq- 7,.L47
 704              		.loc 2 250 0
 705 0028 812B0000 		lwz 9,0(11)
 706 002c 7D635B78 		mr 3,11
 707              	.LVL59:
 708 0030 8009007C 		lwz 0,124(9)
 709 0034 7C0903A6 		mtctr 0
 710 0038 4E800421 		bctrl
 711 003c EFFF0072 		fmuls 31,31,1
 712              	.LVL60:
 713              	.L47:
 714              	.LBE2057:
 715              		.loc 2 253 0
 716 0040 80010014 		lwz 0,20(1)
 717 0044 FC20F890 		fmr 1,31
 718 0048 CBE10008 		lfd 31,8(1)
 719              	.LVL61:
 720 004c 7C0803A6 		mtlr 0
 721 0050 38210010 		addi 1,1,16
 722              	.LCFI10:
 723              		.cfi_def_cfa_offset 0
 724              		.cfi_restore 63
 725 0054 4E800020 		blr
 726              		.cfi_endproc
 727              	.LFE1410:
 728              		.size	_ZN10GuiElement9GetScaleYEv, .-_ZN10GuiElement9GetScaleYEv
 729              		.section	.text._ZN10GuiElement6RumbleEv,"axG",@progbits,_ZN10GuiElement6RumbleEv,comdat
 730              		.align 2
 731              		.weak	_ZN10GuiElement6RumbleEv
 732              		.type	_ZN10GuiElement6RumbleEv, @function
 733              	_ZN10GuiElement6RumbleEv:
 734              	.LFB1411:
 735              		.loc 2 256 0
 736              		.cfi_startproc
 737              	.LVL62:
 738              		.loc 2 256 0
 739 0000 8863001C 		lbz 3,28(3)
 740              	.LVL63:
 741 0004 4E800020 		blr
 742              		.cfi_endproc
 743              	.LFE1411:
 744              		.size	_ZN10GuiElement6RumbleEv, .-_ZN10GuiElement6RumbleEv
 745              		.section	.text._ZN10GuiElement9SetRumbleEb,"axG",@progbits,_ZN10GuiElement9SetRumbleEb,comdat
 746              		.align 2
 747              		.weak	_ZN10GuiElement9SetRumbleEb
 748              		.type	_ZN10GuiElement9SetRumbleEb, @function
 749              	_ZN10GuiElement9SetRumbleEb:
 750              	.LFB1412:
 751              		.loc 2 259 0
 752              		.cfi_startproc
 753              	.LVL64:
 754              		.loc 2 259 0
 755 0000 9883001C 		stb 4,28(3)
 756 0004 4E800020 		blr
 757              		.cfi_endproc
 758              	.LFE1412:
 759              		.size	_ZN10GuiElement9SetRumbleEb, .-_ZN10GuiElement9SetRumbleEb
 760              		.section	.text._ZN10GuiElement13SetEffectGrowEv,"axG",@progbits,_ZN10GuiElement13SetEffectGrowEv,c
 761              		.align 2
 762              		.weak	_ZN10GuiElement13SetEffectGrowEv
 763              		.type	_ZN10GuiElement13SetEffectGrowEv, @function
 764              	_ZN10GuiElement13SetEffectGrowEv:
 765              	.LFB1413:
 766              		.loc 2 271 0
 767              		.cfi_startproc
 768              	.LVL65:
 769 0000 7C0802A6 		mflr 0
 770 0004 9421FFF8 		stwu 1,-8(1)
 771              	.LCFI11:
 772              		.cfi_def_cfa_offset 8
 773              		.cfi_register 65, 0
 774 0008 81230000 		lwz 9,0(3)
 775 000c 38800100 		li 4,256
 776 0010 38A00004 		li 5,4
 777 0014 38C0006E 		li 6,110
 778 0018 9001000C 		stw 0,12(1)
 779              		.loc 2 271 0
 780 001c 8009008C 		lwz 0,140(9)
 781              		.cfi_offset 65, 4
 782 0020 7C0903A6 		mtctr 0
 783 0024 4E800421 		bctrl
 784              	.LVL66:
 785 0028 8001000C 		lwz 0,12(1)
 786 002c 38210008 		addi 1,1,8
 787              	.LCFI12:
 788              		.cfi_def_cfa_offset 0
 789 0030 7C0803A6 		mtlr 0
 790 0034 4E800020 		blr
 791              		.cfi_endproc
 792              	.LFE1413:
 793              		.size	_ZN10GuiElement13SetEffectGrowEv, .-_ZN10GuiElement13SetEffectGrowEv
 794              		.section	.text._ZNK10GuiElement9GetEffectEv,"axG",@progbits,_ZNK10GuiElement9GetEffectEv,comdat
 795              		.align 2
 796              		.weak	_ZNK10GuiElement9GetEffectEv
 797              		.type	_ZNK10GuiElement9GetEffectEv, @function
 798              	_ZNK10GuiElement9GetEffectEv:
 799              	.LFB1414:
 800              		.loc 2 276 0
 801              		.cfi_startproc
 802              	.LVL67:
 803              		.loc 2 276 0
 804 0000 80630078 		lwz 3,120(3)
 805              	.LVL68:
 806 0004 4E800020 		blr
 807              		.cfi_endproc
 808              	.LFE1414:
 809              		.size	_ZNK10GuiElement9GetEffectEv, .-_ZNK10GuiElement9GetEffectEv
 810              		.section	.text._ZNK10GuiElement10IsAnimatedEv,"axG",@progbits,_ZNK10GuiElement10IsAnimatedEv,comda
 811              		.align 2
 812              		.weak	_ZNK10GuiElement10IsAnimatedEv
 813              		.type	_ZNK10GuiElement10IsAnimatedEv, @function
 814              	_ZNK10GuiElement10IsAnimatedEv:
 815              	.LFB1415:
 816              		.loc 2 278 0
 817              		.cfi_startproc
 818              	.LVL69:
 819 0000 7C0802A6 		mflr 0
 820 0004 9421FFF8 		stwu 1,-8(1)
 821              	.LCFI13:
 822              		.cfi_def_cfa_offset 8
 823              		.cfi_register 65, 0
 824 0008 9001000C 		stw 0,12(1)
 825              		.loc 2 278 0
 826 000c 81230000 		lwz 9,0(3)
 827 0010 80090098 		lwz 0,152(9)
 828              		.cfi_offset 65, 4
 829 0014 7C0903A6 		mtctr 0
 830 0018 4E800421 		bctrl
 831              	.LVL70:
 832 001c 7C60FE70 		srawi 0,3,31
 833 0020 7C630050 		subf 3,3,0
 834 0024 8001000C 		lwz 0,12(1)
 835 0028 54630FFE 		srwi 3,3,31
 836 002c 7C0803A6 		mtlr 0
 837 0030 38210008 		addi 1,1,8
 838              	.LCFI14:
 839              		.cfi_def_cfa_offset 0
 840 0034 4E800020 		blr
 841              		.cfi_endproc
 842              	.LFE1415:
 843              		.size	_ZNK10GuiElement10IsAnimatedEv, .-_ZNK10GuiElement10IsAnimatedEv
 844              		.section	.text._ZN10GuiElement8IsInsideEii,"axG",@progbits,_ZN10GuiElement8IsInsideEii,comdat
 845              		.align 2
 846              		.weak	_ZN10GuiElement8IsInsideEii
 847              		.type	_ZN10GuiElement8IsInsideEii, @function
 848              	_ZN10GuiElement8IsInsideEii:
 849              	.LFB1417:
 850              		.loc 2 285 0
 851              		.cfi_startproc
 852              	.LVL71:
 853 0000 7C0802A6 		mflr 0
 854 0004 9421FFE8 		stwu 1,-24(1)
 855              	.LCFI15:
 856              		.cfi_def_cfa_offset 24
 857              		.cfi_register 65, 0
 858 0008 93810008 		stw 28,8(1)
 859 000c 7CBC2B78 		mr 28,5
 860              		.cfi_offset 28, -16
 861 0010 9001001C 		stw 0,28(1)
 862 0014 93A1000C 		stw 29,12(1)
 863              		.loc 2 290 0
 864 0018 3BA00000 		li 29,0
 865              		.cfi_offset 29, -12
 866              		.cfi_offset 65, 4
 867              		.loc 2 287 0
 868 001c 81230000 		lwz 9,0(3)
 869              		.loc 2 285 0
 870 0020 93C10010 		stw 30,16(1)
 871 0024 7C9E2378 		mr 30,4
 872              		.cfi_offset 30, -8
 873              		.loc 2 287 0
 874 0028 80090010 		lwz 0,16(9)
 875              		.loc 2 285 0
 876 002c 93E10014 		stw 31,20(1)
 877              		.loc 2 285 0
 878 0030 7C7F1B78 		mr 31,3
 879              		.cfi_offset 31, -4
 880              		.loc 2 287 0
 881 0034 7C0903A6 		mtctr 0
 882 0038 4E800421 		bctrl
 883              	.LVL72:
 884              		.loc 2 290 0
 885 003c 7F83F000 		cmpw 7,3,30
 886 0040 419C0028 		blt- 7,.L58
 887              	.L54:
 888              		.loc 2 291 0 discriminator 6
 889 0044 8001001C 		lwz 0,28(1)
 890 0048 7FA3EB78 		mr 3,29
 891 004c 83810008 		lwz 28,8(1)
 892              	.LVL73:
 893 0050 7C0803A6 		mtlr 0
 894 0054 83A1000C 		lwz 29,12(1)
 895 0058 83C10010 		lwz 30,16(1)
 896              	.LVL74:
 897 005c 83E10014 		lwz 31,20(1)
 898              	.LVL75:
 899 0060 38210018 		addi 1,1,24
 900              		.cfi_remember_state
 901              	.LCFI16:
 902              		.cfi_def_cfa_offset 0
 903              		.cfi_restore 31
 904              		.cfi_restore 30
 905              		.cfi_restore 29
 906              		.cfi_restore 28
 907 0064 4E800020 		blr
 908              	.LVL76:
 909              	.L58:
 910              	.LCFI17:
 911              		.cfi_restore_state
 912              		.loc 2 288 0 discriminator 1
 913 0068 813F0000 		lwz 9,0(31)
 914 006c 7FE3FB78 		mr 3,31
 915 0070 80090010 		lwz 0,16(9)
 916 0074 7C0903A6 		mtctr 0
 917 0078 4E800421 		bctrl
 918              		.loc 2 290 0 discriminator 1
 919 007c 801F0024 		lwz 0,36(31)
 920 0080 7C030214 		add 0,3,0
 921 0084 7F9E0000 		cmpw 7,30,0
 922 0088 409CFFBC 		bge+ 7,.L54
 923              		.loc 2 289 0 discriminator 3
 924 008c 813F0000 		lwz 9,0(31)
 925 0090 7FE3FB78 		mr 3,31
 926 0094 80090014 		lwz 0,20(9)
 927 0098 7C0903A6 		mtctr 0
 928 009c 4E800421 		bctrl
 929              		.loc 2 290 0 discriminator 3
 930 00a0 7F83E000 		cmpw 7,3,28
 931 00a4 409CFFA0 		bge+ 7,.L54
 932              		.loc 2 290 0 is_stmt 0 discriminator 4
 933 00a8 813F0000 		lwz 9,0(31)
 934 00ac 7FE3FB78 		mr 3,31
 935 00b0 80090014 		lwz 0,20(9)
 936 00b4 7C0903A6 		mtctr 0
 937 00b8 4E800421 		bctrl
 938 00bc 801F0028 		lwz 0,40(31)
 939 00c0 7C030214 		add 0,3,0
 940              		.loc 2 285 0 is_stmt 1 discriminator 4
 941 00c4 7F9C0000 		cmpw 7,28,0
 942 00c8 7FA00026 		mfcr 29
 943 00cc 57BDEFFE 		rlwinm 29,29,29,1
 944 00d0 4BFFFF74 		b .L54
 945              		.cfi_endproc
 946              	.LFE1417:
 947              		.size	_ZN10GuiElement8IsInsideEii, .-_ZN10GuiElement8IsInsideEii
 948              		.section	.text._ZN10GuiElement11SetPositionEii,"axG",@progbits,_ZN10GuiElement11SetPositionEii,com
 949              		.align 2
 950              		.weak	_ZN10GuiElement11SetPositionEii
 951              		.type	_ZN10GuiElement11SetPositionEii, @function
 952              	_ZN10GuiElement11SetPositionEii:
 953              	.LFB1418:
 954              		.loc 2 295 0
 955              		.cfi_startproc
 956              	.LVL77:
 957              		.loc 2 297 0
 958 0000 9083002C 		stw 4,44(3)
 959              		.loc 2 299 0
 960              		.loc 2 298 0
 961 0004 90A30030 		stw 5,48(3)
 962              		.loc 2 299 0
 963 0008 4E800020 		blr
 964              		.cfi_endproc
 965              	.LFE1418:
 966              		.size	_ZN10GuiElement11SetPositionEii, .-_ZN10GuiElement11SetPositionEii
 967              		.section	.text._ZN10GuiElement11SetPositionEiii,"axG",@progbits,_ZN10GuiElement11SetPositionEiii,c
 968              		.align 2
 969              		.weak	_ZN10GuiElement11SetPositionEiii
 970              		.type	_ZN10GuiElement11SetPositionEiii, @function
 971              	_ZN10GuiElement11SetPositionEiii:
 972              	.LFB1419:
 973              		.loc 2 304 0
 974              		.cfi_startproc
 975              	.LVL78:
 976              		.loc 2 306 0
 977 0000 9083002C 		stw 4,44(3)
 978              		.loc 2 309 0
 979              		.loc 2 307 0
 980 0004 90A30030 		stw 5,48(3)
 981              		.loc 2 308 0
 982 0008 90C30034 		stw 6,52(3)
 983              		.loc 2 309 0
 984 000c 4E800020 		blr
 985              		.cfi_endproc
 986              	.LFE1419:
 987              		.size	_ZN10GuiElement11SetPositionEiii, .-_ZN10GuiElement11SetPositionEiii
 988              		.section	.text._ZN10GuiElement12SetAlignmentEi,"axG",@progbits,_ZN10GuiElement12SetAlignmentEi,com
 989              		.align 2
 990              		.weak	_ZN10GuiElement12SetAlignmentEi
 991              		.type	_ZN10GuiElement12SetAlignmentEi, @function
 992              	_ZN10GuiElement12SetAlignmentEi:
 993              	.LFB1421:
 994              		.loc 2 316 0
 995              		.cfi_startproc
 996              	.LVL79:
 997              		.loc 2 316 0
 998 0000 90830044 		stw 4,68(3)
 999 0004 4E800020 		blr
 1000              		.cfi_endproc
 1001              	.LFE1421:
 1002              		.size	_ZN10GuiElement12SetAlignmentEi, .-_ZN10GuiElement12SetAlignmentEi
 1003              		.section	.text._ZNK10GuiElement12GetAlignmentEv,"axG",@progbits,_ZNK10GuiElement12GetAlignmentEv,c
 1004              		.align 2
 1005              		.weak	_ZNK10GuiElement12GetAlignmentEv
 1006              		.type	_ZNK10GuiElement12GetAlignmentEv, @function
 1007              	_ZNK10GuiElement12GetAlignmentEv:
 1008              	.LFB1422:
 1009              		.loc 2 318 0
 1010              		.cfi_startproc
 1011              	.LVL80:
 1012              		.loc 2 318 0
 1013 0000 80630044 		lwz 3,68(3)
 1014              	.LVL81:
 1015 0004 4E800020 		blr
 1016              		.cfi_endproc
 1017              	.LFE1422:
 1018              		.size	_ZNK10GuiElement12GetAlignmentEv, .-_ZNK10GuiElement12GetAlignmentEv
 1019              		.section	.text._ZN8GuiFrame4showEv,"axG",@progbits,_ZN8GuiFrame4showEv,comdat
 1020              		.align 2
 1021              		.weak	_ZN8GuiFrame4showEv
 1022              		.type	_ZN8GuiFrame4showEv, @function
 1023              	_ZN8GuiFrame4showEv:
 1024              	.LFB1428:
 1025              		.file 3 "d:/Projects/SaveGameManager/savegame-manager-gx/trunk/source/GUI/gui_frame.h"
 1026              		.loc 3 79 0
 1027              		.cfi_startproc
 1028              	.LVL82:
 1029              		.loc 3 79 0
 1030 0000 4E800020 		blr
 1031              		.cfi_endproc
 1032              	.LFE1428:
 1033              		.size	_ZN8GuiFrame4showEv, .-_ZN8GuiFrame4showEv
 1034              		.section	.text._ZN8GuiFrame4hideEv,"axG",@progbits,_ZN8GuiFrame4hideEv,comdat
 1035              		.align 2
 1036              		.weak	_ZN8GuiFrame4hideEv
 1037              		.type	_ZN8GuiFrame4hideEv, @function
 1038              	_ZN8GuiFrame4hideEv:
 1039              	.LFB1429:
 1040              		.loc 3 81 0
 1041              		.cfi_startproc
 1042              	.LVL83:
 1043              		.loc 3 81 0
 1044 0000 4E800020 		blr
 1045              		.cfi_endproc
 1046              	.LFE1429:
 1047              		.size	_ZN8GuiFrame4hideEv, .-_ZN8GuiFrame4hideEv
 1048              		.section	.text._ZN8GuiFrame4execEv,"axG",@progbits,_ZN8GuiFrame4execEv,comdat
 1049              		.align 2
 1050              		.weak	_ZN8GuiFrame4execEv
 1051              		.type	_ZN8GuiFrame4execEv, @function
 1052              	_ZN8GuiFrame4execEv:
 1053              	.LFB1430:
 1054              		.loc 3 83 0
 1055              		.cfi_startproc
 1056              	.LVL84:
 1057              		.loc 3 83 0
 1058 0000 4E800020 		blr
 1059              		.cfi_endproc
 1060              	.LFE1430:
 1061              		.size	_ZN8GuiFrame4execEv, .-_ZN8GuiFrame4execEv
 1062              		.section	.text._ZN8GuiFrame12updateEventsEv,"axG",@progbits,_ZN8GuiFrame12updateEventsEv,comdat
 1063              		.align 2
 1064              		.weak	_ZN8GuiFrame12updateEventsEv
 1065              		.type	_ZN8GuiFrame12updateEventsEv, @function
 1066              	_ZN8GuiFrame12updateEventsEv:
 1067              	.LFB1431:
 1068              		.loc 3 85 0
 1069              		.cfi_startproc
 1070              	.LVL85:
 1071              		.loc 3 85 0
 1072 0000 4E800020 		blr
 1073              		.cfi_endproc
 1074              	.LFE1431:
 1075              		.size	_ZN8GuiFrame12updateEventsEv, .-_ZN8GuiFrame12updateEventsEv
 1076              		.section	.text._ZN7sigslot17_connection_base3IP9GuiButtoniRK6_POINTNS_15single_threadedEED2Ev,"axG
 1077              		.align 2
 1078              		.weak	_ZN7sigslot17_connection_base3IP9GuiButtoniRK6_POINTNS_15single_threadedEED2Ev
 1079              		.type	_ZN7sigslot17_connection_base3IP9GuiButtoniRK6_POINTNS_15single_threadedEED2Ev, @function
 1080              	_ZN7sigslot17_connection_base3IP9GuiButtoniRK6_POINTNS_15single_threadedEED2Ev:
 1081              	.LFB1773:
 1082              		.loc 1 387 0
 1083              		.cfi_startproc
 1084              	.LVL86:
 1085              	.LBB2058:
 1086              		.loc 1 387 0
 1087 0000 3D200000 		lis 9,_ZTVN7sigslot17_connection_base3IP9GuiButtoniRK6_POINTNS_15single_threadedEEE+8@ha
 1088              	.LBE2058:
 1089              	.LBB2059:
 1090 0004 38090008 		la 0,_ZTVN7sigslot17_connection_base3IP9GuiButtoniRK6_POINTNS_15single_threadedEEE+8@l(9)
 1091 0008 90030000 		stw 0,0(3)
 1092              	.LBE2059:
 1093 000c 4E800020 		blr
 1094              		.cfi_endproc
 1095              	.LFE1773:
 1096              		.size	_ZN7sigslot17_connection_base3IP9GuiButtoniRK6_POINTNS_15single_threadedEED2Ev, .-_ZN7sigslo
 1097              		.section	.text._ZN7sigslot12_connection3I11GuiKeyboardP9GuiButtoniRK6_POINTNS_15single_threadedEED
 1098              		.align 2
 1099              		.weak	_ZN7sigslot12_connection3I11GuiKeyboardP9GuiButtoniRK6_POINTNS_15single_threadedEED2Ev
 1100              		.type	_ZN7sigslot12_connection3I11GuiKeyboardP9GuiButtoniRK6_POINTNS_15single_threadedEED2Ev, @fun
 1101              	_ZN7sigslot12_connection3I11GuiKeyboardP9GuiButtoniRK6_POINTNS_15single_threadedEED2Ev:
 1102              	.LFB2014:
 1103              		.loc 1 1783 0
 1104              		.cfi_startproc
 1105              	.LVL87:
 1106              	.LBB2060:
 1107              	.LBB2061:
 1108              	.LBB2062:
 1109              	.LBB2063:
 1110              		.loc 1 387 0
 1111 0000 3D200000 		lis 9,_ZTVN7sigslot17_connection_base3IP9GuiButtoniRK6_POINTNS_15single_threadedEEE+8@ha
 1112              	.LBE2063:
 1113              	.LBE2062:
 1114              	.LBE2061:
 1115              	.LBE2060:
 1116              		.loc 1 1786 0
 1117              	.LBB2067:
 1118              	.LBB2066:
 1119              	.LBB2065:
 1120              	.LBB2064:
 1121              		.loc 1 387 0
 1122 0004 38090008 		la 0,_ZTVN7sigslot17_connection_base3IP9GuiButtoniRK6_POINTNS_15single_threadedEEE+8@l(9)
 1123 0008 90030000 		stw 0,0(3)
 1124              	.LBE2064:
 1125              	.LBE2065:
 1126              	.LBE2066:
 1127              	.LBE2067:
 1128              		.loc 1 1786 0
 1129 000c 4E800020 		blr
 1130              		.cfi_endproc
 1131              	.LFE2014:
 1132              		.size	_ZN7sigslot12_connection3I11GuiKeyboardP9GuiButtoniRK6_POINTNS_15single_threadedEED2Ev, .-_Z
 1133              		.section	.text._ZNK7sigslot12_connection3I11GuiKeyboardP9GuiButtoniRK6_POINTNS_15single_threadedEE
 1134              		.align 2
 1135              		.weak	_ZNK7sigslot12_connection3I11GuiKeyboardP9GuiButtoniRK6_POINTNS_15single_threadedEE7getdestE
 1136              		.type	_ZNK7sigslot12_connection3I11GuiKeyboardP9GuiButtoniRK6_POINTNS_15single_threadedEE7getdestE
 1137              	_ZNK7sigslot12_connection3I11GuiKeyboardP9GuiButtoniRK6_POINTNS_15single_threadedEE7getdestEv:
 1138              	.LFB2017:
 1139              		.loc 1 1804 0
 1140              		.cfi_startproc
 1141              	.LVL88:
 1142              		.loc 1 1806 0
 1143 0000 81230004 		lwz 9,4(3)
 1144 0004 38600000 		li 3,0
 1145              	.LVL89:
 1146 0008 2F890000 		cmpwi 7,9,0
 1147 000c 4D9E0020 		beqlr- 7
 1148              		.loc 1 1806 0 is_stmt 0 discriminator 1
 1149 0010 386900B0 		addi 3,9,176
 1150              		.loc 1 1807 0 is_stmt 1 discriminator 1
 1151 0014 4E800020 		blr
 1152              		.cfi_endproc
 1153              	.LFE2017:
 1154              		.size	_ZNK7sigslot12_connection3I11GuiKeyboardP9GuiButtoniRK6_POINTNS_15single_threadedEE7getdestE
 1155              		.section	.text._ZN7sigslot12_connection3I11GuiKeyboardP9GuiButtoniRK6_POINTNS_15single_threadedEE4
 1156              		.align 2
 1157              		.weak	_ZN7sigslot12_connection3I11GuiKeyboardP9GuiButtoniRK6_POINTNS_15single_threadedEE4emitES3_i
 1158              		.type	_ZN7sigslot12_connection3I11GuiKeyboardP9GuiButtoniRK6_POINTNS_15single_threadedEE4emitES3_i
 1159              	_ZN7sigslot12_connection3I11GuiKeyboardP9GuiButtoniRK6_POINTNS_15single_threadedEE4emitES3_iS6_:
 1160              	.LFB2018:
 1161              		.loc 1 1799 0
 1162              		.cfi_startproc
 1163              	.LVL90:
 1164 0000 7C0802A6 		mflr 0
 1165 0004 9421FFF8 		stwu 1,-8(1)
 1166              	.LCFI18:
 1167              		.cfi_def_cfa_offset 8
 1168              		.cfi_register 65, 0
 1169 0008 9001000C 		stw 0,12(1)
 1170              		.loc 1 1801 0
 1171 000c 80030008 		lwz 0,8(3)
 1172              		.cfi_offset 65, 4
 1173 0010 81630004 		lwz 11,4(3)
 1174 0014 70090001 		andi. 9,0,1
 1175 0018 8123000C 		lwz 9,12(3)
 1176 001c 40820020 		bne- 0,.L76
 1177 0020 7C0903A6 		mtctr 0
 1178 0024 7C6B4A14 		add 3,11,9
 1179              	.LVL91:
 1180 0028 4E800421 		bctrl
 1181              	.LVL92:
 1182              		.loc 1 1802 0
 1183 002c 8001000C 		lwz 0,12(1)
 1184 0030 38210008 		addi 1,1,8
 1185              		.cfi_remember_state
 1186              	.LCFI19:
 1187              		.cfi_def_cfa_offset 0
 1188 0034 7C0803A6 		mtlr 0
 1189 0038 4E800020 		blr
 1190              	.LVL93:
 1191              	.L76:
 1192              	.LCFI20:
 1193              		.cfi_restore_state
 1194              		.loc 1 1801 0 discriminator 1
 1195 003c 7D4B482E 		lwzx 10,11,9
 1196 0040 7C6B4A14 		add 3,11,9
 1197              	.LVL94:
 1198 0044 7D2A0214 		add 9,10,0
 1199 0048 8009FFFF 		lwz 0,-1(9)
 1200 004c 7C0903A6 		mtctr 0
 1201 0050 4E800421 		bctrl
 1202              	.LVL95:
 1203              		.loc 1 1802 0 discriminator 1
 1204 0054 8001000C 		lwz 0,12(1)
 1205 0058 38210008 		addi 1,1,8
 1206              	.LCFI21:
 1207              		.cfi_def_cfa_offset 0
 1208 005c 7C0803A6 		mtlr 0
 1209 0060 4E800020 		blr
 1210              		.cfi_endproc
 1211              	.LFE2018:
 1212              		.size	_ZN7sigslot12_connection3I11GuiKeyboardP9GuiButtoniRK6_POINTNS_15single_threadedEE4emitES3_i
 1213              		.section	.text._ZN7sigslot12_connection3I11GuiKeyboardP9GuiButtoniRK6_POINTNS_15single_threadedEE9
 1214              		.align 2
 1215              		.weak	_ZN7sigslot12_connection3I11GuiKeyboardP9GuiButtoniRK6_POINTNS_15single_threadedEE9duplicate
 1216              		.type	_ZN7sigslot12_connection3I11GuiKeyboardP9GuiButtoniRK6_POINTNS_15single_threadedEE9duplicate
 1217              	_ZN7sigslot12_connection3I11GuiKeyboardP9GuiButtoniRK6_POINTNS_15single_threadedEE9duplicateEPNS_9h
 1218              	.LFB2026:
 1219              		.loc 1 1794 0
 1220              		.cfi_startproc
 1221              	.LVL96:
 1222 0000 9421FFF0 		stwu 1,-16(1)
 1223              	.LCFI22:
 1224              		.cfi_def_cfa_offset 16
 1225 0004 7C0802A6 		mflr 0
 1226 0008 93C10008 		stw 30,8(1)
 1227 000c 7C9E2378 		mr 30,4
 1228              		.cfi_offset 30, -8
 1229              		.cfi_register 65, 0
 1230 0010 93E1000C 		stw 31,12(1)
 1231 0014 7C7F1B78 		mr 31,3
 1232              		.cfi_offset 31, -4
 1233              		.loc 1 1796 0
 1234 0018 38600010 		li 3,16
 1235              	.LVL97:
 1236              		.loc 1 1794 0
 1237 001c 90010014 		stw 0,20(1)
 1238              		.loc 1 1796 0
 1239              		.cfi_offset 65, 4
 1240 0020 48000001 		bl _Znwj
 1241              	.LVL98:
 1242 0024 2F9E0000 		cmpwi 7,30,0
 1243 0028 38000000 		li 0,0
 1244 002c 419E0008 		beq- 7,.L79
 1245              		.loc 1 1796 0 is_stmt 0 discriminator 1
 1246 0030 381EFF50 		addi 0,30,-176
 1247              	.L79:
 1248              	.LVL99:
 1249              		.loc 1 1796 0 discriminator 3
 1250 0034 817F0008 		lwz 11,8(31)
 1251              	.LVL100:
 1252              	.LBB2068:
 1253              	.LBB2069:
 1254              		.loc 1 1778 0 is_stmt 1 discriminator 3
 1255 0038 3D400000 		lis 10,_ZTVN7sigslot12_connection3I11GuiKeyboardP9GuiButtoniRK6_POINTNS_15single_threadedEEE+8@ha
 1256              	.LBE2069:
 1257              	.LBE2068:
 1258              		.loc 1 1796 0 discriminator 3
 1259 003c 813F000C 		lwz 9,12(31)
 1260              	.LVL101:
 1261              	.LBB2072:
 1262              	.LBB2070:
 1263              		.loc 1 1778 0 discriminator 3
 1264 0040 394A0008 		la 10,_ZTVN7sigslot12_connection3I11GuiKeyboardP9GuiButtoniRK6_POINTNS_15single_threadedEEE+8@l(10
 1265              		.loc 1 1780 0 discriminator 3
 1266 0044 91630008 		stw 11,8(3)
 1267 0048 9123000C 		stw 9,12(3)
 1268              		.loc 1 1779 0 discriminator 3
 1269 004c 90030004 		stw 0,4(3)
 1270              	.LBE2070:
 1271              	.LBE2072:
 1272              		.loc 1 1797 0 discriminator 3
 1273 0050 80010014 		lwz 0,20(1)
 1274              	.LVL102:
 1275 0054 83C10008 		lwz 30,8(1)
 1276              	.LVL103:
 1277 0058 7C0803A6 		mtlr 0
 1278 005c 83E1000C 		lwz 31,12(1)
 1279              	.LVL104:
 1280              	.LBB2073:
 1281              	.LBB2071:
 1282              		.loc 1 1778 0 discriminator 3
 1283 0060 91430000 		stw 10,0(3)
 1284              	.LBE2071:
 1285              	.LBE2073:
 1286              		.loc 1 1797 0 discriminator 3
 1287 0064 38210010 		addi 1,1,16
 1288              	.LCFI23:
 1289              		.cfi_def_cfa_offset 0
 1290              		.cfi_restore 31
 1291              		.cfi_restore 30
 1292 0068 4E800020 		blr
 1293              		.cfi_endproc
 1294              	.LFE2026:
 1295              		.size	_ZN7sigslot12_connection3I11GuiKeyboardP9GuiButtoniRK6_POINTNS_15single_threadedEE9duplicate
 1296              		.section	.text._ZN7sigslot12_connection3I11GuiKeyboardP9GuiButtoniRK6_POINTNS_15single_threadedEE5
 1297              		.align 2
 1298              		.weak	_ZN7sigslot12_connection3I11GuiKeyboardP9GuiButtoniRK6_POINTNS_15single_threadedEE5cloneEv
 1299              		.type	_ZN7sigslot12_connection3I11GuiKeyboardP9GuiButtoniRK6_POINTNS_15single_threadedEE5cloneEv, 
 1300              	_ZN7sigslot12_connection3I11GuiKeyboardP9GuiButtoniRK6_POINTNS_15single_threadedEE5cloneEv:
 1301              	.LFB2019:
 1302              		.loc 1 1789 0
 1303              		.cfi_startproc
 1304              	.LVL105:
 1305 0000 9421FFF0 		stwu 1,-16(1)
 1306              	.LCFI24:
 1307              		.cfi_def_cfa_offset 16
 1308 0004 7C0802A6 		mflr 0
 1309 0008 93E1000C 		stw 31,12(1)
 1310 000c 7C7F1B78 		mr 31,3
 1311              		.cfi_offset 31, -4
 1312              		.cfi_register 65, 0
 1313              		.loc 1 1791 0
 1314 0010 38600010 		li 3,16
 1315              	.LVL106:
 1316              		.loc 1 1789 0
 1317 0014 90010014 		stw 0,20(1)
 1318              		.loc 1 1791 0
 1319              		.cfi_offset 65, 4
 1320 0018 48000001 		bl _Znwj
 1321              		.file 4 "d:/Projects/SaveGameManager/savegame-manager-gx/trunk/source/GUI/gui_keyboard.cpp"
 1322              		.loc 4 598 0
 1323 001c 801F0004 		lwz 0,4(31)
 1324              	.LVL107:
 1325              	.LBB2074:
 1326              	.LBB2075:
 1327              		.loc 1 1767 0
 1328 0020 3D600000 		lis 11,_ZTVN7sigslot12_connection3I11GuiKeyboardP9GuiButtoniRK6_POINTNS_15single_threadedEEE+8@ha
 1329 0024 396B0008 		la 11,_ZTVN7sigslot12_connection3I11GuiKeyboardP9GuiButtoniRK6_POINTNS_15single_threadedEEE+8@l(11
 1330 0028 90030004 		stw 0,4(3)
 1331 002c 91630000 		stw 11,0(3)
 1332 0030 815F0008 		lwz 10,8(31)
 1333 0034 817F000C 		lwz 11,12(31)
 1334 0038 91430008 		stw 10,8(3)
 1335 003c 9163000C 		stw 11,12(3)
 1336              	.LBE2075:
 1337              	.LBE2074:
 1338              		.loc 1 1792 0
 1339 0040 80010014 		lwz 0,20(1)
 1340 0044 83E1000C 		lwz 31,12(1)
 1341              	.LVL108:
 1342 0048 7C0803A6 		mtlr 0
 1343 004c 38210010 		addi 1,1,16
 1344              	.LCFI25:
 1345              		.cfi_def_cfa_offset 0
 1346              		.cfi_restore 31
 1347 0050 4E800020 		blr
 1348              		.cfi_endproc
 1349              	.LFE2019:
 1350              		.size	_ZN7sigslot12_connection3I11GuiKeyboardP9GuiButtoniRK6_POINTNS_15single_threadedEE5cloneEv, 
 1351              		.section	.text._ZN7sigslot12_connection3I11GuiKeyboardP9GuiButtoniRK6_POINTNS_15single_threadedEED
 1352              		.align 2
 1353              		.weak	_ZN7sigslot12_connection3I11GuiKeyboardP9GuiButtoniRK6_POINTNS_15single_threadedEED0Ev
 1354              		.type	_ZN7sigslot12_connection3I11GuiKeyboardP9GuiButtoniRK6_POINTNS_15single_threadedEED0Ev, @fun
 1355              	_ZN7sigslot12_connection3I11GuiKeyboardP9GuiButtoniRK6_POINTNS_15single_threadedEED0Ev:
 1356              	.LFB2016:
 1357              		.loc 1 1783 0
 1358              		.cfi_startproc
 1359              	.LVL109:
 1360 0000 7C0802A6 		mflr 0
 1361 0004 9421FFF8 		stwu 1,-8(1)
 1362              	.LCFI26:
 1363              		.cfi_def_cfa_offset 8
 1364              		.cfi_register 65, 0
 1365              	.LBB2076:
 1366              	.LBB2077:
 1367              	.LBB2078:
 1368              	.LBB2079:
 1369              	.LBB2080:
 1370              	.LBB2081:
 1371              		.loc 1 387 0
 1372 0008 3D200000 		lis 9,_ZTVN7sigslot17_connection_base3IP9GuiButtoniRK6_POINTNS_15single_threadedEEE+8@ha
 1373              	.LBE2081:
 1374              	.LBE2080:
 1375              	.LBE2079:
 1376              	.LBE2078:
 1377              	.LBE2077:
 1378              	.LBE2076:
 1379              		.loc 1 1783 0
 1380 000c 9001000C 		stw 0,12(1)
 1381              	.LBB2087:
 1382              	.LBB2086:
 1383              	.LBB2085:
 1384              	.LBB2084:
 1385              	.LBB2083:
 1386              	.LBB2082:
 1387              		.loc 1 387 0
 1388 0010 38090008 		la 0,_ZTVN7sigslot17_connection_base3IP9GuiButtoniRK6_POINTNS_15single_threadedEEE+8@l(9)
 1389              		.cfi_offset 65, 4
 1390 0014 90030000 		stw 0,0(3)
 1391              	.LBE2082:
 1392              	.LBE2083:
 1393              	.LBE2084:
 1394              	.LBE2085:
 1395              	.LBE2086:
 1396              	.LBE2087:
 1397              		.loc 1 1786 0
 1398 0018 48000001 		bl _ZdlPv
 1399              	.LVL110:
 1400 001c 8001000C 		lwz 0,12(1)
 1401 0020 38210008 		addi 1,1,8
 1402              	.LCFI27:
 1403              		.cfi_def_cfa_offset 0
 1404 0024 7C0803A6 		mtlr 0
 1405 0028 4E800020 		blr
 1406              		.cfi_endproc
 1407              	.LFE2016:
 1408              		.size	_ZN7sigslot12_connection3I11GuiKeyboardP9GuiButtoniRK6_POINTNS_15single_threadedEED0Ev, .-_Z
 1409              		.section	.text._ZN7sigslot17_connection_base3IP9GuiButtoniRK6_POINTNS_15single_threadedEED0Ev,"axG
 1410              		.align 2
 1411              		.weak	_ZN7sigslot17_connection_base3IP9GuiButtoniRK6_POINTNS_15single_threadedEED0Ev
 1412              		.type	_ZN7sigslot17_connection_base3IP9GuiButtoniRK6_POINTNS_15single_threadedEED0Ev, @function
 1413              	_ZN7sigslot17_connection_base3IP9GuiButtoniRK6_POINTNS_15single_threadedEED0Ev:
 1414              	.LFB1775:
 1415              		.loc 1 387 0
 1416              		.cfi_startproc
 1417              	.LVL111:
 1418 0000 7C0802A6 		mflr 0
 1419 0004 9421FFF8 		stwu 1,-8(1)
 1420              	.LCFI28:
 1421              		.cfi_def_cfa_offset 8
 1422              		.cfi_register 65, 0
 1423              	.LBB2088:
 1424              	.LBB2089:
 1425              	.LBB2090:
 1426 0008 3D200000 		lis 9,_ZTVN7sigslot17_connection_base3IP9GuiButtoniRK6_POINTNS_15single_threadedEEE+8@ha
 1427              	.LBE2090:
 1428              	.LBE2089:
 1429              	.LBE2088:
 1430 000c 9001000C 		stw 0,12(1)
 1431              	.LBB2093:
 1432              	.LBB2092:
 1433              	.LBB2091:
 1434              		.loc 1 387 0
 1435 0010 38090008 		la 0,_ZTVN7sigslot17_connection_base3IP9GuiButtoniRK6_POINTNS_15single_threadedEEE+8@l(9)
 1436              		.cfi_offset 65, 4
 1437 0014 90030000 		stw 0,0(3)
 1438              	.LBE2091:
 1439              	.LBE2092:
 1440              	.LBE2093:
 1441 0018 48000001 		bl _ZdlPv
 1442              	.LVL112:
 1443 001c 8001000C 		lwz 0,12(1)
 1444 0020 38210008 		addi 1,1,8
 1445              	.LCFI29:
 1446              		.cfi_def_cfa_offset 0
 1447 0024 7C0803A6 		mtlr 0
 1448 0028 4E800020 		blr
 1449              		.cfi_endproc
 1450              	.LFE1775:
 1451              		.size	_ZN7sigslot17_connection_base3IP9GuiButtoniRK6_POINTNS_15single_threadedEED0Ev, .-_ZN7sigslo
 1452              		.section	.text._ZN7sigslot15single_threadedD0Ev,"axG",@progbits,_ZN7sigslot15single_threadedD5Ev,c
 1453              		.align 2
 1454              		.weak	_ZN7sigslot15single_threadedD0Ev
 1455              		.type	_ZN7sigslot15single_threadedD0Ev, @function
 1456              	_ZN7sigslot15single_threadedD0Ev:
 1457              	.LFB1150:
 1458              		.loc 1 104 0
 1459              		.cfi_startproc
 1460              	.LVL113:
 1461 0000 7C0802A6 		mflr 0
 1462 0004 9421FFF8 		stwu 1,-8(1)
 1463              	.LCFI30:
 1464              		.cfi_def_cfa_offset 8
 1465              		.cfi_register 65, 0
 1466              	.LBB2094:
 1467              	.LBB2095:
 1468              	.LBB2096:
 1469              		.loc 1 105 0
 1470 0008 3D200000 		lis 9,_ZTVN7sigslot15single_threadedE+8@ha
 1471              	.LBE2096:
 1472              	.LBE2095:
 1473              	.LBE2094:
 1474              		.loc 1 104 0
 1475 000c 9001000C 		stw 0,12(1)
 1476              	.LBB2099:
 1477              	.LBB2098:
 1478              	.LBB2097:
 1479              		.loc 1 105 0
 1480 0010 38090008 		la 0,_ZTVN7sigslot15single_threadedE+8@l(9)
 1481              		.cfi_offset 65, 4
 1482 0014 90030000 		stw 0,0(3)
 1483              	.LBE2097:
 1484              	.LBE2098:
 1485              	.LBE2099:
 1486              		.loc 1 107 0
 1487 0018 48000001 		bl _ZdlPv
 1488              	.LVL114:
 1489 001c 8001000C 		lwz 0,12(1)
 1490 0020 38210008 		addi 1,1,8
 1491              	.LCFI31:
 1492              		.cfi_def_cfa_offset 0
 1493 0024 7C0803A6 		mtlr 0
 1494 0028 4E800020 		blr
 1495              		.cfi_endproc
 1496              	.LFE1150:
 1497              		.size	_ZN7sigslot15single_threadedD0Ev, .-_ZN7sigslot15single_threadedD0Ev
 1498              		.section	".text"
 1499              		.align 2
 1500              		.globl _ZN11GuiKeyboard13OnPointerHeldEP9GuiButtoniRK6_POINT
 1501              		.type	_ZN11GuiKeyboard13OnPointerHeldEP9GuiButtoniRK6_POINT, @function
 1502              	_ZN11GuiKeyboard13OnPointerHeldEP9GuiButtoniRK6_POINT:
 1503              	.LFB1587:
 1504              		.loc 4 408 0
 1505              		.cfi_startproc
 1506              	.LVL115:
 1507 0000 7C0802A6 		mflr 0
 1508 0004 9421FFE8 		stwu 1,-24(1)
 1509              	.LCFI32:
 1510              		.cfi_def_cfa_offset 24
 1511              		.cfi_register 65, 0
 1512 0008 93E10014 		stw 31,20(1)
 1513 000c 7C7F1B78 		mr 31,3
 1514              		.cfi_offset 31, -4
 1515 0010 9001001C 		stw 0,28(1)
 1516 0014 93810008 		stw 28,8(1)
 1517 0018 7CBC2B78 		mr 28,5
 1518              		.cfi_offset 28, -16
 1519              		.cfi_offset 65, 4
 1520              		.loc 4 409 0
 1521 001c 80630324 		lwz 3,804(3)
 1522              	.LVL116:
 1523              		.loc 4 408 0
 1524 0020 93A1000C 		stw 29,12(1)
 1525              		.loc 4 409 0
 1526 0024 81230000 		lwz 9,0(3)
 1527              		.loc 4 408 0
 1528 0028 93C10010 		stw 30,16(1)
 1529              		.loc 4 408 0
 1530 002c 7CDE3378 		mr 30,6
 1531              		.cfi_offset 30, -8
 1532              		.cfi_offset 29, -12
 1533              		.loc 4 409 0
 1534 0030 80090010 		lwz 0,16(9)
 1535 0034 83A60000 		lwz 29,0(6)
 1536 0038 7C0903A6 		mtctr 0
 1537 003c 4E800421 		bctrl
 1538              	.LVL117:
 1539 0040 83FF0324 		lwz 31,804(31)
 1540              	.LVL118:
 1541 0044 7FA3E850 		subf 29,3,29
 1542 0048 83DE0004 		lwz 30,4(30)
 1543              	.LVL119:
 1544 004c 813F0000 		lwz 9,0(31)
 1545 0050 7FE3FB78 		mr 3,31
 1546 0054 80090014 		lwz 0,20(9)
 1547 0058 7C0903A6 		mtctr 0
 1548 005c 4E800421 		bctrl
 1549 0060 7F84E378 		mr 4,28
 1550 0064 7CC3F050 		subf 6,3,30
 1551 0068 7FA5EB78 		mr 5,29
 1552 006c 7FE3FB78 		mr 3,31
 1553 0070 48000001 		bl _ZN11TextPointer15PositionChangedEiii
 1554              		.loc 4 410 0
 1555 0074 8001001C 		lwz 0,28(1)
 1556 0078 83810008 		lwz 28,8(1)
 1557              	.LVL120:
 1558 007c 7C0803A6 		mtlr 0
 1559 0080 83A1000C 		lwz 29,12(1)
 1560 0084 83C10010 		lwz 30,16(1)
 1561 0088 83E10014 		lwz 31,20(1)
 1562 008c 38210018 		addi 1,1,24
 1563              	.LCFI33:
 1564              		.cfi_def_cfa_offset 0
 1565              		.cfi_restore 31
 1566              		.cfi_restore 30
 1567              		.cfi_restore 29
 1568              		.cfi_restore 28
 1569 0090 4E800020 		blr
 1570              		.cfi_endproc
 1571              	.LFE1587:
 1572              		.size	_ZN11GuiKeyboard13OnPointerHeldEP9GuiButtoniRK6_POINT, .-_ZN11GuiKeyboard13OnPointerHeldEP9G
 1573              		.align 2
 1574              		.globl _ZN11GuiKeyboard15OnPositionMovedEP9GuiButtoniRK6_POINT
 1575              		.type	_ZN11GuiKeyboard15OnPositionMovedEP9GuiButtoniRK6_POINT, @function
 1576              	_ZN11GuiKeyboard15OnPositionMovedEP9GuiButtoniRK6_POINT:
 1577              	.LFB1588:
 1578              		.loc 4 413 0
 1579              		.cfi_startproc
 1580              	.LVL121:
 1581 0094 7C0802A6 		mflr 0
 1582 0098 9421FFD0 		stwu 1,-48(1)
 1583              	.LCFI34:
 1584              		.cfi_def_cfa_offset 48
 1585              		.cfi_register 65, 0
 1586 009c 93C10028 		stw 30,40(1)
 1587 00a0 7C9E2378 		mr 30,4
 1588              		.cfi_offset 30, -8
 1589 00a4 90010034 		stw 0,52(1)
 1590 00a8 93E1002C 		stw 31,44(1)
 1591 00ac 7C7F1B78 		mr 31,3
 1592              		.cfi_offset 31, -4
 1593              		.cfi_offset 65, 4
 1594              	.LBB2166:
 1595              		.loc 4 414 0
 1596 00b0 81240000 		lwz 9,0(4)
 1597 00b4 7C832378 		mr 3,4
 1598              	.LVL122:
 1599              	.LBE2166:
 1600              		.loc 4 413 0
 1601 00b8 92C10008 		stw 22,8(1)
 1602              	.LBB2227:
 1603              		.loc 4 414 0
 1604 00bc 8009005C 		lwz 0,92(9)
 1605              	.LBE2227:
 1606              		.loc 4 413 0
 1607 00c0 92E1000C 		stw 23,12(1)
 1608              	.LBB2228:
 1609              		.loc 4 414 0
 1610 00c4 7C0903A6 		mtctr 0
 1611              	.LBE2228:
 1612              		.loc 4 413 0
 1613 00c8 93010010 		stw 24,16(1)
 1614 00cc 93210014 		stw 25,20(1)
 1615 00d0 93410018 		stw 26,24(1)
 1616 00d4 9361001C 		stw 27,28(1)
 1617 00d8 93810020 		stw 28,32(1)
 1618 00dc 93A10024 		stw 29,36(1)
 1619              	.LBB2229:
 1620              		.loc 4 414 0
 1621              		.cfi_offset 29, -12
 1622              		.cfi_offset 28, -16
 1623              		.cfi_offset 27, -20
 1624              		.cfi_offset 26, -24
 1625              		.cfi_offset 25, -28
 1626              		.cfi_offset 24, -32
 1627              		.cfi_offset 23, -36
 1628              		.cfi_offset 22, -40
 1629 00e0 4E800421 		bctrl
 1630              	.LVL123:
 1631              	.LBB2167:
 1632              		.loc 4 416 0
 1633 00e4 801F0328 		lwz 0,808(31)
 1634 00e8 7F80F000 		cmpw 7,0,30
 1635 00ec 419E018C 		beq- 7,.L115
 1636              	.LBB2168:
 1637              		.loc 4 431 0
 1638 00f0 801F032C 		lwz 0,812(31)
 1639 00f4 7F80F000 		cmpw 7,0,30
 1640 00f8 419E003C 		beq- 7,.L116
 1641              	.LBE2168:
 1642              	.LBE2167:
 1643              	.LBE2229:
 1644              		.loc 4 447 0
 1645 00fc 80010034 		lwz 0,52(1)
 1646 0100 82C10008 		lwz 22,8(1)
 1647 0104 7C0803A6 		mtlr 0
 1648 0108 82E1000C 		lwz 23,12(1)
 1649 010c 83010010 		lwz 24,16(1)
 1650 0110 83210014 		lwz 25,20(1)
 1651 0114 83410018 		lwz 26,24(1)
 1652 0118 8361001C 		lwz 27,28(1)
 1653 011c 83810020 		lwz 28,32(1)
 1654 0120 83A10024 		lwz 29,36(1)
 1655 0124 83C10028 		lwz 30,40(1)
 1656              	.LVL124:
 1657 0128 83E1002C 		lwz 31,44(1)
 1658              	.LVL125:
 1659 012c 38210030 		addi 1,1,48
 1660              		.cfi_remember_state
 1661              	.LCFI35:
 1662              		.cfi_def_cfa_offset 0
 1663              		.cfi_restore 31
 1664              		.cfi_restore 30
 1665              		.cfi_restore 29
 1666              		.cfi_restore 28
 1667              		.cfi_restore 27
 1668              		.cfi_restore 26
 1669              		.cfi_restore 25
 1670              		.cfi_restore 24
 1671              		.cfi_restore 23
 1672              		.cfi_restore 22
 1673 0130 4E800020 		blr
 1674              	.LVL126:
 1675              	.L116:
 1676              	.LCFI36:
 1677              		.cfi_restore_state
 1678              	.LBB2230:
 1679              	.LBB2224:
 1680              	.LBB2194:
 1681              		.loc 4 598 0
 1682 0134 813F0324 		lwz 9,804(31)
 1683              	.LBB2169:
 1684              	.LBB2170:
 1685              	.LBB2171:
 1686              	.LBB2172:
 1687              	.LBB2173:
 1688              	.LBB2174:
 1689              		.file 5 "d:\\devkitpro\\devkitppc\\bin\\../lib/gcc/powerpc-eabi/4.6.3/../../../../powerpc-eabi/inc
 1690              		.loc 5 288 0
 1691 0138 809F00D4 		lwz 4,212(31)
 1692              	.LBE2174:
 1693              	.LBE2173:
 1694              	.LBE2172:
 1695              	.LBE2171:
 1696              	.LBE2170:
 1697              	.LBE2169:
 1698              		.loc 4 598 0
 1699 013c 83C9014C 		lwz 30,332(9)
 1700              	.LVL127:
 1701              	.LBB2192:
 1702              	.LBB2176:
 1703              	.LBB2175:
 1704              		.loc 5 717 0
 1705 0140 82E4FFF4 		lwz 23,-12(4)
 1706              	.LBE2175:
 1707              	.LBE2176:
 1708              		.loc 4 434 0
 1709 0144 381E0001 		addi 0,30,1
 1710              	.LVL128:
 1711              		.loc 4 436 0
 1712 0148 2F800027 		cmpwi 7,0,39
 1713 014c 419D000C 		bgt- 7,.L103
 1714              		.loc 4 436 0 is_stmt 0 discriminator 1
 1715 0150 7F80B800 		cmpw 7,0,23
 1716 0154 409D0254 		ble- 7,.L113
 1717              	.L103:
 1718              	.LVL129:
 1719              		.loc 4 439 0 is_stmt 1
 1720 0158 817F00D0 		lwz 11,208(31)
 1721              		.loc 4 440 0
 1722 015c 3937FFDA 		addi 9,23,-38
 1723              		.loc 4 439 0
 1724 0160 380B0001 		addi 0,11,1
 1725              		.loc 4 440 0
 1726 0164 7F804800 		cmpw 7,0,9
 1727              		.loc 4 439 0
 1728 0168 901F00D0 		stw 0,208(31)
 1729              		.loc 4 440 0
 1730 016c 419C000C 		blt- 7,.L104
 1731              		.loc 4 441 0
 1732 0170 3817FFD9 		addi 0,23,-39
 1733 0174 901F00D0 		stw 0,208(31)
 1734              	.LVL130:
 1735              	.L104:
 1736              		.loc 4 443 0
 1737 0178 83BF0330 		lwz 29,816(31)
 1738              	.LBB2177:
 1739              	.LBB2178:
 1740              		.loc 4 582 0
 1741 017c 2F970027 		cmpwi 7,23,39
 1742              	.LBE2178:
 1743              	.LBE2177:
 1744              		.loc 4 443 0
 1745 0180 813D0000 		lwz 9,0(29)
 1746 0184 838900D0 		lwz 28,208(9)
 1747              	.LVL131:
 1748              	.LBB2191:
 1749              	.LBB2190:
 1750              		.loc 4 582 0
 1751 0188 409D0098 		ble- 7,.L105
 1752              	.LVL132:
 1753              		.loc 4 586 0
 1754 018c 82DF00D0 		lwz 22,208(31)
 1755              	.LVL133:
 1756              	.LBB2179:
 1757              		.loc 4 585 0
 1758 0190 3B600000 		li 27,0
 1759              		.loc 4 589 0
 1760 0194 7F97B000 		cmpw 7,23,22
 1761 0198 409D0070 		ble- 7,.L106
 1762              	.LBB2180:
 1763              	.LBB2181:
 1764              		.loc 5 911 0
 1765 019c 7F97B040 		cmplw 7,23,22
 1766              	.LBE2181:
 1767              	.LBE2180:
 1768              		.loc 4 591 0
 1769 01a0 3B1F00D4 		addi 24,31,212
 1770              	.LVL134:
 1771              	.LBB2187:
 1772              	.LBB2184:
 1773              		.loc 5 911 0
 1774 01a4 409D0058 		ble- 7,.L109
 1775              		.loc 4 412 0
 1776 01a8 7F1AC378 		mr 26,24
 1777 01ac 7EF6B850 		subf 23,22,23
 1778 01b0 7ED9B378 		mr 25,22
 1779              	.LVL135:
 1780              	.L110:
 1781              	.LBB2182:
 1782              	.LBB2183:
 1783              		.loc 5 311 0
 1784 01b4 8004FFFC 		lwz 0,-4(4)
 1785 01b8 2F800000 		cmpwi 7,0,0
 1786 01bc 419C0010 		blt- 7,.L108
 1787              		.loc 5 312 0
 1788 01c0 7F03C378 		mr 3,24
 1789 01c4 48000001 		bl _ZNSbIwSt11char_traitsIwESaIwEE12_M_leak_hardEv
 1790 01c8 809F00D4 		lwz 4,212(31)
 1791              	.L108:
 1792              	.LVL136:
 1793              	.LBE2183:
 1794              	.LBE2182:
 1795              	.LBE2184:
 1796              	.LBE2187:
 1797              		.loc 4 589 0
 1798 01cc 2F9B0027 		cmpwi 7,27,39
 1799              		.loc 4 591 0
 1800 01d0 5739103A 		slwi 25,25,2
 1801              	.LVL137:
 1802 01d4 7C04C82E 		lwzx 0,4,25
 1803              		.loc 4 589 0
 1804 01d8 3B7B0001 		addi 27,27,1
 1805              	.LVL138:
 1806              		.loc 4 591 0
 1807 01dc 941A0004 		stwu 0,4(26)
 1808              		.loc 4 589 0
 1809 01e0 419E0028 		beq- 7,.L106
 1810 01e4 7F9BB800 		cmpw 7,27,23
 1811 01e8 419E0020 		beq- 7,.L106
 1812              	.LBB2188:
 1813              	.LBB2185:
 1814              		.loc 5 911 0
 1815 01ec 8004FFF4 		lwz 0,-12(4)
 1816              	.LBE2185:
 1817              	.LBE2188:
 1818              		.loc 4 412 0
 1819 01f0 7F36DA14 		add 25,22,27
 1820              	.LVL139:
 1821              	.LBB2189:
 1822              	.LBB2186:
 1823              		.loc 5 911 0
 1824 01f4 7F80C840 		cmplw 7,0,25
 1825 01f8 419DFFBC 		bgt+ 7,.L110
 1826              	.LVL140:
 1827              	.L109:
 1828              		.loc 5 912 0
 1829 01fc 3C600000 		lis 3,.LC4@ha
 1830 0200 38630000 		la 3,.LC4@l(3)
 1831 0204 48000001 		bl _ZSt20__throw_out_of_rangePKc
 1832              	.LVL141:
 1833              	.L106:
 1834              	.LBE2186:
 1835              	.LBE2189:
 1836              	.LBE2179:
 1837              		.loc 4 595 0
 1838 0208 393B0034 		addi 9,27,52
 1839 020c 38000000 		li 0,0
 1840 0210 5529103A 		slwi 9,9,2
 1841              		.loc 4 597 0
 1842 0214 389F00D8 		addi 4,31,216
 1843              		.loc 4 595 0
 1844 0218 7D3F4A14 		add 9,31,9
 1845 021c 90090008 		stw 0,8(9)
 1846              	.LVL142:
 1847              	.L105:
 1848              	.LBE2190:
 1849              	.LBE2191:
 1850              		.loc 4 443 0
 1851 0220 7F8903A6 		mtctr 28
 1852 0224 7FA3EB78 		mr 3,29
 1853 0228 4E800421 		bctrl
 1854              		.loc 4 444 0
 1855 022c 807F0324 		lwz 3,804(31)
 1856 0230 48000001 		bl _ZN11TextPointer16TextWidthChangedEv
 1857              		.loc 4 445 0
 1858 0234 807F0324 		lwz 3,804(31)
 1859 0238 7FC4F378 		mr 4,30
 1860 023c 48000001 		bl _ZN11TextPointer18SetPointerPositionEi
 1861              	.LBE2192:
 1862              	.LBE2194:
 1863              	.LBE2224:
 1864              	.LBE2230:
 1865              		.loc 4 447 0
 1866 0240 80010034 		lwz 0,52(1)
 1867 0244 82C10008 		lwz 22,8(1)
 1868 0248 7C0803A6 		mtlr 0
 1869 024c 82E1000C 		lwz 23,12(1)
 1870 0250 83010010 		lwz 24,16(1)
 1871 0254 83210014 		lwz 25,20(1)
 1872 0258 83410018 		lwz 26,24(1)
 1873 025c 8361001C 		lwz 27,28(1)
 1874 0260 83810020 		lwz 28,32(1)
 1875 0264 83A10024 		lwz 29,36(1)
 1876 0268 83C10028 		lwz 30,40(1)
 1877              	.LVL143:
 1878 026c 83E1002C 		lwz 31,44(1)
 1879              	.LVL144:
 1880 0270 38210030 		addi 1,1,48
 1881              		.cfi_remember_state
 1882              		.cfi_restore 22
 1883              		.cfi_restore 23
 1884              		.cfi_restore 24
 1885              		.cfi_restore 25
 1886              		.cfi_restore 26
 1887              		.cfi_restore 27
 1888              		.cfi_restore 28
 1889              		.cfi_restore 29
 1890              		.cfi_restore 30
 1891              		.cfi_restore 31
 1892              	.LCFI37:
 1893              		.cfi_def_cfa_offset 0
 1894 0274 4E800020 		blr
 1895              	.LVL145:
 1896              	.L115:
 1897              	.LCFI38:
 1898              		.cfi_restore_state
 1899              	.LBB2231:
 1900              	.LBB2225:
 1901              		.loc 4 598 0
 1902 0278 813F0324 		lwz 9,804(31)
 1903 027c 83A9014C 		lwz 29,332(9)
 1904              	.LVL146:
 1905              	.LBB2195:
 1906              		.loc 4 420 0
 1907 0280 37BDFFFF 		addic. 29,29,-1
 1908 0284 41800104 		blt- 0,.L117
 1909              	.LVL147:
 1910              	.L95:
 1911              	.LBB2196:
 1912              	.LBB2197:
 1913              	.LBB2198:
 1914              	.LBB2199:
 1915              	.LBB2200:
 1916              	.LBB2201:
 1917              	.LBB2202:
 1918              		.loc 5 288 0
 1919 0288 809F00D4 		lwz 4,212(31)
 1920              	.LBE2202:
 1921              	.LBE2201:
 1922              	.LBE2200:
 1923              	.LBE2199:
 1924              	.LBE2198:
 1925              	.LBE2197:
 1926              	.LBE2196:
 1927              		.loc 4 427 0
 1928 028c 83DF0330 		lwz 30,816(31)
 1929              	.LVL148:
 1930              	.LBB2219:
 1931              	.LBB2216:
 1932              	.LBB2204:
 1933              	.LBB2203:
 1934              		.loc 5 711 0
 1935 0290 82E4FFF4 		lwz 23,-12(4)
 1936              	.LBE2203:
 1937              	.LBE2204:
 1938              	.LBE2216:
 1939              	.LBE2219:
 1940              		.loc 4 427 0
 1941 0294 813E0000 		lwz 9,0(30)
 1942              	.LBB2220:
 1943              	.LBB2217:
 1944              		.loc 4 582 0
 1945 0298 2F970027 		cmpwi 7,23,39
 1946              	.LBE2217:
 1947              	.LBE2220:
 1948              		.loc 4 427 0
 1949 029c 838900D0 		lwz 28,208(9)
 1950              	.LVL149:
 1951              	.LBB2221:
 1952              	.LBB2218:
 1953              		.loc 4 582 0
 1954 02a0 409D0090 		ble- 7,.L96
 1955              	.LVL150:
 1956              		.loc 4 586 0
 1957 02a4 82DF00D0 		lwz 22,208(31)
 1958              	.LVL151:
 1959              	.LBB2205:
 1960              		.loc 4 585 0
 1961 02a8 3B600000 		li 27,0
 1962              		.loc 4 589 0
 1963 02ac 7F97B000 		cmpw 7,23,22
 1964 02b0 409D0068 		ble- 7,.L97
 1965              	.LBB2206:
 1966              	.LBB2207:
 1967              		.loc 5 911 0
 1968 02b4 7F96B840 		cmplw 7,22,23
 1969              	.LBE2207:
 1970              	.LBE2206:
 1971              		.loc 4 591 0
 1972 02b8 3B1F00D4 		addi 24,31,212
 1973              	.LVL152:
 1974              	.LBB2213:
 1975              	.LBB2210:
 1976              		.loc 5 911 0
 1977 02bc 40BCFF40 		bge- 7,.L109
 1978              		.loc 4 412 0
 1979 02c0 7F1AC378 		mr 26,24
 1980 02c4 7EF6B850 		subf 23,22,23
 1981 02c8 7ED9B378 		mr 25,22
 1982              	.LVL153:
 1983              	.L101:
 1984              	.LBB2208:
 1985              	.LBB2209:
 1986              		.loc 5 311 0
 1987 02cc 8004FFFC 		lwz 0,-4(4)
 1988 02d0 2F800000 		cmpwi 7,0,0
 1989 02d4 419C0010 		blt- 7,.L99
 1990              		.loc 5 312 0
 1991 02d8 7F03C378 		mr 3,24
 1992 02dc 48000001 		bl _ZNSbIwSt11char_traitsIwESaIwEE12_M_leak_hardEv
 1993 02e0 809F00D4 		lwz 4,212(31)
 1994              	.L99:
 1995              	.LVL154:
 1996              	.LBE2209:
 1997              	.LBE2208:
 1998              	.LBE2210:
 1999              	.LBE2213:
 2000              		.loc 4 589 0
 2001 02e4 2F9B0027 		cmpwi 7,27,39
 2002              		.loc 4 591 0
 2003 02e8 5739103A 		slwi 25,25,2
 2004              	.LVL155:
 2005 02ec 7C04C82E 		lwzx 0,4,25
 2006              		.loc 4 589 0
 2007 02f0 3B7B0001 		addi 27,27,1
 2008              	.LVL156:
 2009              		.loc 4 591 0
 2010 02f4 941A0004 		stwu 0,4(26)
 2011              		.loc 4 589 0
 2012 02f8 419E0020 		beq- 7,.L97
 2013 02fc 7F9BB800 		cmpw 7,27,23
 2014 0300 419E0018 		beq- 7,.L97
 2015              	.LBB2214:
 2016              	.LBB2211:
 2017              		.loc 5 911 0
 2018 0304 8004FFF4 		lwz 0,-12(4)
 2019              	.LBE2211:
 2020              	.LBE2214:
 2021              		.loc 4 412 0
 2022 0308 7F36DA14 		add 25,22,27
 2023              	.LVL157:
 2024              	.LBB2215:
 2025              	.LBB2212:
 2026              		.loc 5 911 0
 2027 030c 7F80C840 		cmplw 7,0,25
 2028 0310 419DFFBC 		bgt+ 7,.L101
 2029 0314 4BFFFEE8 		b .L109
 2030              	.LVL158:
 2031              	.L97:
 2032              	.LBE2212:
 2033              	.LBE2215:
 2034              	.LBE2205:
 2035              		.loc 4 595 0
 2036 0318 393B0034 		addi 9,27,52
 2037 031c 38000000 		li 0,0
 2038 0320 5529103A 		slwi 9,9,2
 2039              		.loc 4 597 0
 2040 0324 389F00D8 		addi 4,31,216
 2041              		.loc 4 595 0
 2042 0328 7D3F4A14 		add 9,31,9
 2043 032c 90090008 		stw 0,8(9)
 2044              	.LVL159:
 2045              	.L96:
 2046              	.LBE2218:
 2047              	.LBE2221:
 2048              		.loc 4 427 0
 2049 0330 7F8903A6 		mtctr 28
 2050 0334 7FC3F378 		mr 3,30
 2051 0338 4E800421 		bctrl
 2052              		.loc 4 428 0
 2053 033c 807F0324 		lwz 3,804(31)
 2054 0340 48000001 		bl _ZN11TextPointer16TextWidthChangedEv
 2055              		.loc 4 429 0
 2056 0344 807F0324 		lwz 3,804(31)
 2057 0348 7FA4EB78 		mr 4,29
 2058 034c 48000001 		bl _ZN11TextPointer18SetPointerPositionEi
 2059              	.LBE2195:
 2060              	.LBE2225:
 2061              	.LBE2231:
 2062              		.loc 4 447 0
 2063 0350 80010034 		lwz 0,52(1)
 2064 0354 82C10008 		lwz 22,8(1)
 2065 0358 7C0803A6 		mtlr 0
 2066 035c 82E1000C 		lwz 23,12(1)
 2067 0360 83010010 		lwz 24,16(1)
 2068 0364 83210014 		lwz 25,20(1)
 2069 0368 83410018 		lwz 26,24(1)
 2070 036c 8361001C 		lwz 27,28(1)
 2071 0370 83810020 		lwz 28,32(1)
 2072 0374 83A10024 		lwz 29,36(1)
 2073              	.LVL160:
 2074 0378 83C10028 		lwz 30,40(1)
 2075 037c 83E1002C 		lwz 31,44(1)
 2076              	.LVL161:
 2077 0380 38210030 		addi 1,1,48
 2078              		.cfi_remember_state
 2079              		.cfi_restore 22
 2080              		.cfi_restore 23
 2081              		.cfi_restore 24
 2082              		.cfi_restore 25
 2083              		.cfi_restore 26
 2084              		.cfi_restore 27
 2085              		.cfi_restore 28
 2086              		.cfi_restore 29
 2087              		.cfi_restore 30
 2088              		.cfi_restore 31
 2089              	.LCFI39:
 2090              		.cfi_def_cfa_offset 0
 2091 0384 4E800020 		blr
 2092              	.LVL162:
 2093              	.L117:
 2094              	.LCFI40:
 2095              		.cfi_restore_state
 2096              	.LBB2232:
 2097              	.LBB2226:
 2098              	.LBB2222:
 2099              		.loc 4 423 0
 2100 0388 813F00D0 		lwz 9,208(31)
 2101              		.loc 4 422 0
 2102 038c 3BA00000 		li 29,0
 2103              		.loc 4 423 0
 2104 0390 3809FFFF 		addi 0,9,-1
 2105              		.loc 4 424 0
 2106 0394 2F800000 		cmpwi 7,0,0
 2107              		.loc 4 423 0
 2108 0398 901F00D0 		stw 0,208(31)
 2109              		.loc 4 424 0
 2110 039c 409CFEEC 		bge+ 7,.L95
 2111              		.loc 4 425 0
 2112 03a0 93BF00D0 		stw 29,208(31)
 2113 03a4 4BFFFEE4 		b .L95
 2114              	.LVL163:
 2115              	.L113:
 2116              	.LBE2222:
 2117              	.LBB2223:
 2118              	.LBB2193:
 2119              		.loc 4 436 0
 2120 03a8 7C1E0378 		mr 30,0
 2121 03ac 4BFFFDCC 		b .L104
 2122              	.LBE2193:
 2123              	.LBE2223:
 2124              	.LBE2226:
 2125              	.LBE2232:
 2126              		.cfi_endproc
 2127              	.LFE1588:
 2128              		.size	_ZN11GuiKeyboard15OnPositionMovedEP9GuiButtoniRK6_POINT, .-_ZN11GuiKeyboard15OnPositionMoved
 2129              		.align 2
 2130              		.globl _ZNK11GuiKeyboard13GetUTF8StringEv
 2131              		.type	_ZNK11GuiKeyboard13GetUTF8StringEv, @function
 2132              	_ZNK11GuiKeyboard13GetUTF8StringEv:
 2133              	.LFB1581:
 2134              		.loc 4 326 0
 2135              		.cfi_startproc
 2136              	.LVL164:
 2137 03b0 7C0802A6 		mflr 0
 2138 03b4 9421FFF0 		stwu 1,-16(1)
 2139              	.LCFI41:
 2140              		.cfi_def_cfa_offset 16
 2141              		.cfi_register 65, 0
 2142              		.loc 4 327 0
 2143 03b8 388400D4 		addi 4,4,212
 2144              	.LVL165:
 2145              		.loc 4 326 0
 2146 03bc 93E1000C 		stw 31,12(1)
 2147 03c0 7C7F1B78 		mr 31,3
 2148              		.cfi_offset 31, -4
 2149 03c4 90010014 		stw 0,20(1)
 2150              		.loc 4 327 0
 2151              		.cfi_offset 65, 4
 2152 03c8 48000001 		bl _ZNK7wString6toUTF8Ev
 2153              	.LVL166:
 2154              		.loc 4 328 0
 2155 03cc 80010014 		lwz 0,20(1)
 2156 03d0 7FE3FB78 		mr 3,31
 2157 03d4 83E1000C 		lwz 31,12(1)
 2158              	.LVL167:
 2159 03d8 7C0803A6 		mtlr 0
 2160 03dc 38210010 		addi 1,1,16
 2161              	.LCFI42:
 2162              		.cfi_def_cfa_offset 0
 2163              		.cfi_restore 31
 2164 03e0 4E800020 		blr
 2165              		.cfi_endproc
 2166              	.LFE1581:
 2167              		.size	_ZNK11GuiKeyboard13GetUTF8StringEv, .-_ZNK11GuiKeyboard13GetUTF8StringEv
 2168              		.align 2
 2169              		.globl _ZN11GuiKeyboard9GetStringEv
 2170              		.type	_ZN11GuiKeyboard9GetStringEv, @function
 2171              	_ZN11GuiKeyboard9GetStringEv:
 2172              	.LFB1582:
 2173              		.loc 4 331 0
 2174              		.cfi_startproc
 2175              	.LVL168:
 2176              		.loc 4 333 0
 2177 03e4 806300D4 		lwz 3,212(3)
 2178              	.LVL169:
 2179 03e8 4E800020 		blr
 2180              		.cfi_endproc
 2181              	.LFE1582:
 2182              		.size	_ZN11GuiKeyboard9GetStringEv, .-_ZN11GuiKeyboard9GetStringEv
 2183              		.align 2
 2184              		.globl _ZN11GuiKeyboard17SwitchKeyLanguageEv
 2185              		.type	_ZN11GuiKeyboard17SwitchKeyLanguageEv, @function
 2186              	_ZN11GuiKeyboard17SwitchKeyLanguageEv:
 2187              	.LFB1583:
 2188              		.loc 4 336 0
 2189              		.cfi_startproc
 2190              	.LVL170:
 2191 03ec 7C0802A6 		mflr 0
 2192 03f0 9421FFE8 		stwu 1,-24(1)
 2193              	.LCFI43:
 2194              		.cfi_def_cfa_offset 24
 2195              		.cfi_register 65, 0
 2196              		.loc 4 339 0
 2197 03f4 38800000 		li 4,0
 2198 03f8 38A001A0 		li 5,416
 2199              		.loc 4 336 0
 2200 03fc 93A1000C 		stw 29,12(1)
 2201              		.loc 4 339 0
 2202 0400 3BA3017C 		addi 29,3,380
 2203              		.cfi_offset 29, -12
 2204              		.loc 4 336 0
 2205 0404 9001001C 		stw 0,28(1)
 2206 0408 93E10014 		stw 31,20(1)
 2207 040c 7C7F1B78 		mr 31,3
 2208              		.cfi_offset 31, -4
 2209              		.cfi_offset 65, 4
 2210              		.loc 4 337 0
 2211 0410 88030323 		lbz 0,803(3)
 2212              		.loc 4 336 0
 2213 0414 93C10010 		stw 30,16(1)
 2214              		.loc 4 337 0
 2215 0418 68000001 		xori 0,0,1
 2216 041c 98030323 		stb 0,803(3)
 2217              		.loc 4 339 0
 2218 0420 7FA3EB78 		mr 3,29
 2219              	.LVL171:
 2220              		.cfi_offset 30, -8
 2221 0424 48000001 		bl memset
 2222              		.loc 4 341 0
 2223 0428 881F0323 		lbz 0,803(31)
 2224 042c 2F800000 		cmpwi 7,0,0
 2225 0430 409E0188 		bne- 7,.L123
 2226              		.loc 4 355 0
 2227 0434 3C600000 		lis 3,.LC13@ha
 2228 0438 3FC00000 		lis 30,.LC14@ha
 2229 043c 38630014 		la 3,.LC13@l(3)
 2230 0440 3BDE0024 		la 30,.LC14@l(30)
 2231 0444 48000001 		bl gettext
 2232 0448 7C641B78 		mr 4,3
 2233 044c 7FC3F378 		mr 3,30
 2234 0450 4CC63182 		crxor 6,6,6
 2235 0454 48000001 		bl _Z4wfmtPKcz
 2236 0458 38A0000D 		li 5,13
 2237 045c 7C641B78 		mr 4,3
 2238 0460 7FA3EB78 		mr 3,29
 2239 0464 48000001 		bl wcsncpy
 2240              		.loc 4 356 0
 2241 0468 3C600000 		lis 3,.LC15@ha
 2242 046c 38630028 		la 3,.LC15@l(3)
 2243 0470 48000001 		bl gettext
 2244 0474 7C641B78 		mr 4,3
 2245 0478 7FC3F378 		mr 3,30
 2246 047c 4CC63182 		crxor 6,6,6
 2247 0480 48000001 		bl _Z4wfmtPKcz
 2248 0484 38A0000D 		li 5,13
 2249 0488 7C641B78 		mr 4,3
 2250 048c 387F01B0 		addi 3,31,432
 2251 0490 48000001 		bl wcsncpy
 2252              		.loc 4 357 0
 2253 0494 3C600000 		lis 3,.LC16@ha
 2254 0498 38630038 		la 3,.LC16@l(3)
 2255 049c 48000001 		bl gettext
 2256 04a0 7C641B78 		mr 4,3
 2257 04a4 7FC3F378 		mr 3,30
 2258 04a8 4CC63182 		crxor 6,6,6
 2259 04ac 48000001 		bl _Z4wfmtPKcz
 2260 04b0 38A0000D 		li 5,13
 2261 04b4 7C641B78 		mr 4,3
 2262 04b8 387F01E4 		addi 3,31,484
 2263 04bc 48000001 		bl wcsncpy
 2264              		.loc 4 358 0
 2265 04c0 3C600000 		lis 3,.LC17@ha
 2266 04c4 38630048 		la 3,.LC17@l(3)
 2267 04c8 48000001 		bl gettext
 2268 04cc 7C641B78 		mr 4,3
 2269 04d0 7FC3F378 		mr 3,30
 2270 04d4 4CC63182 		crxor 6,6,6
 2271 04d8 48000001 		bl _Z4wfmtPKcz
 2272 04dc 38A0000D 		li 5,13
 2273 04e0 7C641B78 		mr 4,3
 2274 04e4 387F0218 		addi 3,31,536
 2275 04e8 48000001 		bl wcsncpy
 2276              		.loc 4 359 0
 2277 04ec 3C600000 		lis 3,.LC18@ha
 2278 04f0 38630058 		la 3,.LC18@l(3)
 2279 04f4 48000001 		bl gettext
 2280 04f8 7C641B78 		mr 4,3
 2281 04fc 7FC3F378 		mr 3,30
 2282 0500 4CC63182 		crxor 6,6,6
 2283 0504 48000001 		bl _Z4wfmtPKcz
 2284 0508 38A0000D 		li 5,13
 2285 050c 7C641B78 		mr 4,3
 2286 0510 387F024C 		addi 3,31,588
 2287 0514 48000001 		bl wcsncpy
 2288              		.loc 4 360 0
 2289 0518 3C600000 		lis 3,.LC19@ha
 2290 051c 38630068 		la 3,.LC19@l(3)
 2291 0520 48000001 		bl gettext
 2292 0524 7C641B78 		mr 4,3
 2293 0528 7FC3F378 		mr 3,30
 2294 052c 4CC63182 		crxor 6,6,6
 2295 0530 48000001 		bl _Z4wfmtPKcz
 2296 0534 38A0000D 		li 5,13
 2297 0538 7C641B78 		mr 4,3
 2298 053c 387F0280 		addi 3,31,640
 2299 0540 48000001 		bl wcsncpy
 2300              		.loc 4 361 0
 2301 0544 3C600000 		lis 3,.LC20@ha
 2302 0548 38630078 		la 3,.LC20@l(3)
 2303 054c 48000001 		bl gettext
 2304 0550 7C641B78 		mr 4,3
 2305 0554 7FC3F378 		mr 3,30
 2306 0558 4CC63182 		crxor 6,6,6
 2307 055c 48000001 		bl _Z4wfmtPKcz
 2308 0560 38A0000D 		li 5,13
 2309 0564 7C641B78 		mr 4,3
 2310 0568 387F02B4 		addi 3,31,692
 2311 056c 48000001 		bl wcsncpy
 2312              		.loc 4 362 0
 2313 0570 3C600000 		lis 3,.LC21@ha
 2314 0574 38630084 		la 3,.LC21@l(3)
 2315 0578 48000001 		bl gettext
 2316 057c 7C641B78 		mr 4,3
 2317 0580 7FC3F378 		mr 3,30
 2318 0584 4CC63182 		crxor 6,6,6
 2319 0588 48000001 		bl _Z4wfmtPKcz
 2320 058c 38A0000D 		li 5,13
 2321 0590 7C641B78 		mr 4,3
 2322 0594 387F02E8 		addi 3,31,744
 2323 0598 48000001 		bl wcsncpy
 2324              		.loc 4 364 0
 2325 059c 8001001C 		lwz 0,28(1)
 2326 05a0 83A1000C 		lwz 29,12(1)
 2327 05a4 7C0803A6 		mtlr 0
 2328 05a8 83C10010 		lwz 30,16(1)
 2329 05ac 83E10014 		lwz 31,20(1)
 2330              	.LVL172:
 2331 05b0 38210018 		addi 1,1,24
 2332              		.cfi_remember_state
 2333              	.LCFI44:
 2334              		.cfi_def_cfa_offset 0
 2335              		.cfi_restore 31
 2336              		.cfi_restore 30
 2337              		.cfi_restore 29
 2338 05b4 4E800020 		blr
 2339              	.LVL173:
 2340              	.L123:
 2341              	.LCFI45:
 2342              		.cfi_restore_state
 2343              		.loc 4 343 0
 2344 05b8 3C800000 		lis 4,.LC5@ha
 2345 05bc 7FA3EB78 		mr 3,29
 2346 05c0 38840000 		la 4,.LC5@l(4)
 2347 05c4 38A0000D 		li 5,13
 2348 05c8 48000001 		bl wcsncpy
 2349              		.loc 4 344 0
 2350 05cc 3C800000 		lis 4,.LC6@ha
 2351 05d0 38840034 		la 4,.LC6@l(4)
 2352 05d4 387F01B0 		addi 3,31,432
 2353 05d8 38A0000D 		li 5,13
 2354 05dc 48000001 		bl wcsncpy
 2355              		.loc 4 345 0
 2356 05e0 3C800000 		lis 4,.LC7@ha
 2357 05e4 38840068 		la 4,.LC7@l(4)
 2358 05e8 387F01E4 		addi 3,31,484
 2359 05ec 38A0000D 		li 5,13
 2360 05f0 48000001 		bl wcsncpy
 2361              		.loc 4 346 0
 2362 05f4 3C800000 		lis 4,.LC8@ha
 2363 05f8 388400A0 		la 4,.LC8@l(4)
 2364 05fc 387F0218 		addi 3,31,536
 2365 0600 38A0000D 		li 5,13
 2366 0604 48000001 		bl wcsncpy
 2367              		.loc 4 347 0
 2368 0608 3C800000 		lis 4,.LC9@ha
 2369 060c 388400D8 		la 4,.LC9@l(4)
 2370 0610 387F024C 		addi 3,31,588
 2371 0614 38A0000D 		li 5,13
 2372 0618 48000001 		bl wcsncpy
 2373              		.loc 4 348 0
 2374 061c 3C800000 		lis 4,.LC10@ha
 2375 0620 3884010C 		la 4,.LC10@l(4)
 2376 0624 387F0280 		addi 3,31,640
 2377 0628 38A0000D 		li 5,13
 2378 062c 48000001 		bl wcsncpy
 2379              		.loc 4 349 0
 2380 0630 3C800000 		lis 4,.LC11@ha
 2381 0634 38840140 		la 4,.LC11@l(4)
 2382 0638 387F02B4 		addi 3,31,692
 2383 063c 38A0000D 		li 5,13
 2384 0640 48000001 		bl wcsncpy
 2385              		.loc 4 350 0
 2386 0644 3C800000 		lis 4,.LC12@ha
 2387 0648 387F02E8 		addi 3,31,744
 2388 064c 3884016C 		la 4,.LC12@l(4)
 2389 0650 38A0000D 		li 5,13
 2390 0654 48000001 		bl wcsncpy
 2391              		.loc 4 364 0
 2392 0658 8001001C 		lwz 0,28(1)
 2393 065c 83A1000C 		lwz 29,12(1)
 2394 0660 7C0803A6 		mtlr 0
 2395 0664 83C10010 		lwz 30,16(1)
 2396 0668 83E10014 		lwz 31,20(1)
 2397              	.LVL174:
 2398 066c 38210018 		addi 1,1,24
 2399              		.cfi_restore 29
 2400              		.cfi_restore 30
 2401              		.cfi_restore 31
 2402              	.LCFI46:
 2403              		.cfi_def_cfa_offset 0
 2404 0670 4E800020 		blr
 2405              		.cfi_endproc
 2406              	.LFE1583:
 2407              		.size	_ZN11GuiKeyboard17SwitchKeyLanguageEv, .-_ZN11GuiKeyboard17SwitchKeyLanguageEv
 2408              		.align 2
 2409              		.globl _ZN11GuiKeyboard8MoveTextEi
 2410              		.type	_ZN11GuiKeyboard8MoveTextEi, @function
 2411              	_ZN11GuiKeyboard8MoveTextEi:
 2412              	.LFB1586:
 2413              		.loc 4 386 0
 2414              		.cfi_startproc
 2415              	.LVL175:
 2416 0674 7C0802A6 		mflr 0
 2417 0678 9421FFD0 		stwu 1,-48(1)
 2418              	.LCFI47:
 2419              		.cfi_def_cfa_offset 48
 2420              		.cfi_register 65, 0
 2421 067c 93C10028 		stw 30,40(1)
 2422 0680 90010034 		stw 0,52(1)
 2423 0684 93A10024 		stw 29,36(1)
 2424 0688 7C9D2378 		mr 29,4
 2425              		.cfi_offset 29, -12
 2426              		.cfi_offset 65, 4
 2427              		.cfi_offset 30, -8
 2428              	.LBB2279:
 2429              	.LBB2280:
 2430              	.LBB2281:
 2431              	.LBB2282:
 2432              	.LBB2283:
 2433              	.LBB2284:
 2434              		.loc 5 288 0
 2435 068c 812300D4 		lwz 9,212(3)
 2436              	.LBE2284:
 2437              	.LBE2283:
 2438              	.LBE2282:
 2439              	.LBE2281:
 2440              	.LBE2280:
 2441              	.LBE2279:
 2442              		.loc 4 386 0
 2443 0690 93E1002C 		stw 31,44(1)
 2444 0694 7C7F1B78 		mr 31,3
 2445              		.cfi_offset 31, -4
 2446              	.LVL176:
 2447              	.LBB2310:
 2448              	.LBB2286:
 2449              	.LBB2285:
 2450              		.loc 5 711 0
 2451 0698 83C9FFF4 		lwz 30,-12(9)
 2452              	.LVL177:
 2453              	.LBE2285:
 2454              	.LBE2286:
 2455              	.LBE2310:
 2456              		.loc 4 386 0
 2457 069c 92E1000C 		stw 23,12(1)
 2458              	.LBB2311:
 2459              		.loc 4 389 0
 2460 06a0 2F9E0028 		cmpwi 7,30,40
 2461              	.LBE2311:
 2462              		.loc 4 386 0
 2463 06a4 93010010 		stw 24,16(1)
 2464 06a8 93210014 		stw 25,20(1)
 2465 06ac 93410018 		stw 26,24(1)
 2466 06b0 9361001C 		stw 27,28(1)
 2467 06b4 93810020 		stw 28,32(1)
 2468              	.LBB2312:
 2469              		.loc 4 389 0
 2470 06b8 409D0108 		ble- 7,.L125
 2471              		.cfi_offset 28, -16
 2472              		.cfi_offset 27, -20
 2473              		.cfi_offset 26, -24
 2474              		.cfi_offset 25, -28
 2475              		.cfi_offset 24, -32
 2476              		.cfi_offset 23, -36
 2477              		.loc 4 391 0
 2478 06bc 830300D0 		lwz 24,208(3)
 2479 06c0 7F04C214 		add 24,4,24
 2480              		.loc 4 392 0
 2481 06c4 2F980000 		cmpwi 7,24,0
 2482              		.loc 4 391 0
 2483 06c8 930300D0 		stw 24,208(3)
 2484              		.loc 4 392 0
 2485 06cc 419C0174 		blt- 7,.L138
 2486              	.L126:
 2487              		.loc 4 398 0
 2488 06d0 82FF0330 		lwz 23,816(31)
 2489 06d4 81770000 		lwz 11,0(23)
 2490 06d8 838B00D0 		lwz 28,208(11)
 2491              	.LVL178:
 2492              	.L136:
 2493              	.LBB2287:
 2494              	.LBB2288:
 2495              	.LBB2289:
 2496              		.loc 4 589 0
 2497 06dc 7F9EC000 		cmpw 7,30,24
 2498              		.loc 4 585 0
 2499 06e0 3BA00000 		li 29,0
 2500              		.loc 4 589 0
 2501 06e4 409D0070 		ble- 7,.L128
 2502              	.LBB2290:
 2503              	.LBB2291:
 2504              		.loc 5 911 0
 2505 06e8 7F9EC040 		cmplw 7,30,24
 2506              	.LBE2291:
 2507              	.LBE2290:
 2508              		.loc 4 591 0
 2509 06ec 3B5F00D4 		addi 26,31,212
 2510              	.LVL179:
 2511              	.LBB2297:
 2512              	.LBB2294:
 2513              		.loc 5 911 0
 2514 06f0 409D0058 		ble- 7,.L131
 2515              		.loc 4 385 0
 2516 06f4 7F38F050 		subf 25,24,30
 2517 06f8 7F5BD378 		mr 27,26
 2518 06fc 7F1EC378 		mr 30,24
 2519              	.LVL180:
 2520              	.L132:
 2521              	.LBB2292:
 2522              	.LBB2293:
 2523              		.loc 5 311 0
 2524 0700 8009FFFC 		lwz 0,-4(9)
 2525 0704 2F800000 		cmpwi 7,0,0
 2526 0708 419C0010 		blt- 7,.L130
 2527              		.loc 5 312 0
 2528 070c 7F43D378 		mr 3,26
 2529 0710 48000001 		bl _ZNSbIwSt11char_traitsIwESaIwEE12_M_leak_hardEv
 2530 0714 813F00D4 		lwz 9,212(31)
 2531              	.L130:
 2532              	.LVL181:
 2533              	.LBE2293:
 2534              	.LBE2292:
 2535              	.LBE2294:
 2536              	.LBE2297:
 2537              		.loc 4 589 0
 2538 0718 2F9D0027 		cmpwi 7,29,39
 2539              		.loc 4 591 0
 2540 071c 57DE103A 		slwi 30,30,2
 2541              	.LVL182:
 2542 0720 7C09F02E 		lwzx 0,9,30
 2543              		.loc 4 589 0
 2544 0724 3BBD0001 		addi 29,29,1
 2545              	.LVL183:
 2546              		.loc 4 591 0
 2547 0728 941B0004 		stwu 0,4(27)
 2548              		.loc 4 589 0
 2549 072c 419E0028 		beq- 7,.L128
 2550 0730 7F9DC800 		cmpw 7,29,25
 2551 0734 419E0020 		beq- 7,.L128
 2552              	.LBB2298:
 2553              	.LBB2295:
 2554              		.loc 5 911 0
 2555 0738 8009FFF4 		lwz 0,-12(9)
 2556              	.LBE2295:
 2557              	.LBE2298:
 2558              		.loc 4 385 0
 2559 073c 7FDDC214 		add 30,29,24
 2560              	.LVL184:
 2561              	.LBB2299:
 2562              	.LBB2296:
 2563              		.loc 5 911 0
 2564 0740 7F80F040 		cmplw 7,0,30
 2565 0744 419DFFBC 		bgt+ 7,.L132
 2566              	.LVL185:
 2567              	.L131:
 2568              		.loc 5 912 0
 2569 0748 3C600000 		lis 3,.LC4@ha
 2570 074c 38630000 		la 3,.LC4@l(3)
 2571 0750 48000001 		bl _ZSt20__throw_out_of_rangePKc
 2572              	.L128:
 2573              	.LBE2296:
 2574              	.LBE2299:
 2575              	.LBE2289:
 2576              		.loc 4 595 0
 2577 0754 393D0034 		addi 9,29,52
 2578 0758 38000000 		li 0,0
 2579 075c 5529103A 		slwi 9,9,2
 2580              	.LBE2288:
 2581              	.LBE2287:
 2582              		.loc 4 398 0
 2583 0760 7EE3BB78 		mr 3,23
 2584              	.LBB2305:
 2585              	.LBB2300:
 2586              		.loc 4 595 0
 2587 0764 7D3F4A14 		add 9,31,9
 2588              	.LBE2300:
 2589              	.LBE2305:
 2590              		.loc 4 398 0
 2591 0768 389F00D8 		addi 4,31,216
 2592              	.LBB2306:
 2593              	.LBB2301:
 2594              		.loc 4 595 0
 2595 076c 90090008 		stw 0,8(9)
 2596              	.LBE2301:
 2597              	.LBE2306:
 2598              		.loc 4 398 0
 2599 0770 7F8903A6 		mtctr 28
 2600 0774 4E800421 		bctrl
 2601              		.loc 4 399 0
 2602 0778 807F0324 		lwz 3,804(31)
 2603 077c 48000001 		bl _ZN11TextPointer16TextWidthChangedEv
 2604              	.LVL186:
 2605              	.L133:
 2606              	.LBE2312:
 2607              	.LBB2313:
 2608              	.LBB2314:
 2609              	.LBB2315:
 2610              		.loc 4 402 0
 2611 0780 807F0324 		lwz 3,804(31)
 2612 0784 8083014C 		lwz 4,332(3)
 2613 0788 48000001 		bl _ZN11TextPointer18SetPointerPositionEi
 2614              	.LBE2315:
 2615              	.LBE2314:
 2616              	.LBE2313:
 2617              		.loc 4 405 0
 2618 078c 80010034 		lwz 0,52(1)
 2619 0790 82E1000C 		lwz 23,12(1)
 2620 0794 7C0803A6 		mtlr 0
 2621 0798 83010010 		lwz 24,16(1)
 2622 079c 83210014 		lwz 25,20(1)
 2623 07a0 83410018 		lwz 26,24(1)
 2624 07a4 8361001C 		lwz 27,28(1)
 2625 07a8 83810020 		lwz 28,32(1)
 2626 07ac 83A10024 		lwz 29,36(1)
 2627 07b0 83C10028 		lwz 30,40(1)
 2628 07b4 83E1002C 		lwz 31,44(1)
 2629              	.LVL187:
 2630 07b8 38210030 		addi 1,1,48
 2631              		.cfi_remember_state
 2632              	.LCFI48:
 2633              		.cfi_def_cfa_offset 0
 2634              		.cfi_restore 31
 2635              		.cfi_restore 30
 2636              		.cfi_restore 29
 2637              		.cfi_restore 28
 2638              		.cfi_restore 27
 2639              		.cfi_restore 26
 2640              		.cfi_restore 25
 2641              		.cfi_restore 24
 2642              		.cfi_restore 23
 2643 07bc 4E800020 		blr
 2644              	.LVL188:
 2645              	.L125:
 2646              	.LCFI49:
 2647              		.cfi_restore_state
 2648              	.LBB2316:
 2649              		.loc 4 398 0
 2650 07c0 82E30330 		lwz 23,816(3)
 2651              	.LBB2307:
 2652              	.LBB2302:
 2653              		.loc 4 582 0
 2654 07c4 2F9E0027 		cmpwi 7,30,39
 2655              	.LBE2302:
 2656              	.LBE2307:
 2657              		.loc 4 396 0
 2658 07c8 38000000 		li 0,0
 2659              		.loc 4 398 0
 2660 07cc 81770000 		lwz 11,0(23)
 2661              		.loc 4 396 0
 2662 07d0 900300D0 		stw 0,208(3)
 2663              		.loc 4 398 0
 2664 07d4 838B00D0 		lwz 28,208(11)
 2665              	.LVL189:
 2666              	.LBB2308:
 2667              	.LBB2303:
 2668              		.loc 4 582 0
 2669 07d8 419D0078 		bgt- 7,.L139
 2670              	.LBE2303:
 2671              	.LBE2308:
 2672              		.loc 4 398 0
 2673 07dc 7EE3BB78 		mr 3,23
 2674              	.LVL190:
 2675 07e0 7D244B78 		mr 4,9
 2676              	.LVL191:
 2677 07e4 7F8903A6 		mtctr 28
 2678 07e8 4E800421 		bctrl
 2679              		.loc 4 399 0
 2680 07ec 807F0324 		lwz 3,804(31)
 2681 07f0 48000001 		bl _ZN11TextPointer16TextWidthChangedEv
 2682              		.loc 4 401 0
 2683 07f4 2F9E0026 		cmpwi 7,30,38
 2684 07f8 41BDFF88 		bgt- 7,.L133
 2685              		.loc 4 404 0
 2686 07fc 807F0324 		lwz 3,804(31)
 2687 0800 8083014C 		lwz 4,332(3)
 2688 0804 7C9D2214 		add 4,29,4
 2689 0808 48000001 		bl _ZN11TextPointer18SetPointerPositionEi
 2690              	.LBE2316:
 2691              		.loc 4 405 0
 2692 080c 80010034 		lwz 0,52(1)
 2693 0810 82E1000C 		lwz 23,12(1)
 2694 0814 7C0803A6 		mtlr 0
 2695 0818 83010010 		lwz 24,16(1)
 2696 081c 83210014 		lwz 25,20(1)
 2697 0820 83410018 		lwz 26,24(1)
 2698 0824 8361001C 		lwz 27,28(1)
 2699 0828 83810020 		lwz 28,32(1)
 2700 082c 83A10024 		lwz 29,36(1)
 2701              	.LVL192:
 2702 0830 83C10028 		lwz 30,40(1)
 2703              	.LVL193:
 2704 0834 83E1002C 		lwz 31,44(1)
 2705              	.LVL194:
 2706 0838 38210030 		addi 1,1,48
 2707              		.cfi_remember_state
 2708              		.cfi_restore 23
 2709              		.cfi_restore 24
 2710              		.cfi_restore 25
 2711              		.cfi_restore 26
 2712              		.cfi_restore 27
 2713              		.cfi_restore 28
 2714              		.cfi_restore 29
 2715              		.cfi_restore 30
 2716              		.cfi_restore 31
 2717              	.LCFI50:
 2718              		.cfi_def_cfa_offset 0
 2719 083c 4E800020 		blr
 2720              	.LVL195:
 2721              	.L138:
 2722              	.LCFI51:
 2723              		.cfi_restore_state
 2724              	.LBB2317:
 2725              		.loc 4 393 0
 2726 0840 38000000 		li 0,0
 2727 0844 3B000000 		li 24,0
 2728 0848 900300D0 		stw 0,208(3)
 2729 084c 4BFFFE84 		b .L126
 2730              	.LVL196:
 2731              	.L139:
 2732              	.LBB2309:
 2733              	.LBB2304:
 2734              		.loc 4 582 0
 2735 0850 3B000000 		li 24,0
 2736 0854 4BFFFE88 		b .L136
 2737              	.LBE2304:
 2738              	.LBE2309:
 2739              	.LBE2317:
 2740              		.cfi_endproc
 2741              	.LFE1586:
 2742              		.size	_ZN11GuiKeyboard8MoveTextEi, .-_ZN11GuiKeyboard8MoveTextEi
 2743              		.align 2
 2744              		.globl _ZN11GuiKeyboard10RemoveCharEi
 2745              		.type	_ZN11GuiKeyboard10RemoveCharEi, @function
 2746              	_ZN11GuiKeyboard10RemoveCharEi:
 2747              	.LFB1585:
 2748              		.loc 4 377 0
 2749              		.cfi_startproc
 2750              	.LVL197:
 2751              		.loc 4 378 0
 2752 0858 2C040000 		cmpwi 0,4,0
 2753              		.loc 4 377 0
 2754 085c 7C0802A6 		mflr 0
 2755 0860 9421FFF0 		stwu 1,-16(1)
 2756              	.LCFI52:
 2757              		.cfi_def_cfa_offset 16
 2758              		.cfi_register 65, 0
 2759 0864 93E1000C 		stw 31,12(1)
 2760 0868 7C7F1B78 		mr 31,3
 2761              		.cfi_offset 31, -4
 2762 086c 90010014 		stw 0,20(1)
 2763              		.loc 4 378 0
 2764 0870 4180004C 		blt- 0,.L140
 2765              		.cfi_offset 65, 4
 2766              	.LVL198:
 2767              	.LBB2356:
 2768              	.LBB2357:
 2769              		.loc 5 711 0 discriminator 2
 2770 0874 812300D4 		lwz 9,212(3)
 2771 0878 80A9FFF4 		lwz 5,-12(9)
 2772              	.LBE2357:
 2773              	.LBE2356:
 2774              		.loc 4 378 0 discriminator 2
 2775 087c 7F842800 		cmpw 7,4,5
 2776 0880 409C003C 		bge- 7,.L140
 2777              	.LVL199:
 2778              	.LBB2358:
 2779              	.LBB2359:
 2780              	.LBB2360:
 2781              	.LBB2361:
 2782              	.LBB2362:
 2783              	.LBB2363:
 2784              		.loc 5 318 0
 2785 0884 7F852040 		cmplw 7,5,4
 2786 0888 419C0070 		blt- 7,.L148
 2787              	.LVL200:
 2788              	.LBE2363:
 2789              	.LBE2362:
 2790              		.loc 5 1349 0
 2791 088c 7CA42851 		subf. 5,4,5
 2792              	.LBE2361:
 2793              	.LBE2360:
 2794              		.loc 4 381 0
 2795 0890 387F00D4 		addi 3,31,212
 2796              	.LVL201:
 2797              	.LBB2369:
 2798              	.LBB2366:
 2799              		.loc 5 1349 0
 2800 0894 4082003C 		bne- 0,.L149
 2801 0898 38C00000 		li 6,0
 2802 089c 48000001 		bl _ZNSbIwSt11char_traitsIwESaIwEE9_M_mutateEjjj
 2803              	.LVL202:
 2804              	.LBE2366:
 2805              	.LBE2369:
 2806              	.LBE2359:
 2807              	.LBE2358:
 2808              		.loc 4 383 0
 2809 08a0 80010014 		lwz 0,20(1)
 2810              	.LBB2379:
 2811              	.LBB2372:
 2812              		.loc 4 382 0
 2813 08a4 7FE3FB78 		mr 3,31
 2814              	.LBE2372:
 2815              	.LBE2379:
 2816              		.loc 4 383 0
 2817 08a8 83E1000C 		lwz 31,12(1)
 2818              	.LVL203:
 2819 08ac 7C0803A6 		mtlr 0
 2820              	.LBB2380:
 2821              	.LBB2373:
 2822              		.loc 4 382 0
 2823 08b0 3880FFFF 		li 4,-1
 2824              	.LBE2373:
 2825              	.LBE2380:
 2826              		.loc 4 383 0
 2827 08b4 38210010 		addi 1,1,16
 2828              		.cfi_remember_state
 2829              	.LCFI53:
 2830              		.cfi_def_cfa_offset 0
 2831              		.cfi_restore 31
 2832              	.LBB2381:
 2833              	.LBB2374:
 2834              		.loc 4 382 0
 2835 08b8 48000000 		b _ZN11GuiKeyboard8MoveTextEi
 2836              	.LVL204:
 2837              	.L140:
 2838              	.LCFI54:
 2839              		.cfi_restore_state
 2840              	.LBE2374:
 2841              	.LBE2381:
 2842              		.loc 4 383 0
 2843 08bc 80010014 		lwz 0,20(1)
 2844 08c0 83E1000C 		lwz 31,12(1)
 2845 08c4 7C0803A6 		mtlr 0
 2846 08c8 38210010 		addi 1,1,16
 2847              		.cfi_remember_state
 2848              	.LCFI55:
 2849              		.cfi_def_cfa_offset 0
 2850              		.cfi_restore 31
 2851 08cc 4E800020 		blr
 2852              	.LVL205:
 2853              	.L149:
 2854              	.LCFI56:
 2855              		.cfi_restore_state
 2856              	.LBB2382:
 2857              	.LBB2375:
 2858              	.LBB2370:
 2859              	.LBB2367:
 2860              		.loc 5 1349 0
 2861 08d0 38A00001 		li 5,1
 2862 08d4 38C00000 		li 6,0
 2863 08d8 48000001 		bl _ZNSbIwSt11char_traitsIwESaIwEE9_M_mutateEjjj
 2864              	.LVL206:
 2865              	.LBE2367:
 2866              	.LBE2370:
 2867              	.LBE2375:
 2868              	.LBE2382:
 2869              		.loc 4 383 0
 2870 08dc 80010014 		lwz 0,20(1)
 2871              	.LBB2383:
 2872              	.LBB2376:
 2873              		.loc 4 382 0
 2874 08e0 7FE3FB78 		mr 3,31
 2875              	.LBE2376:
 2876              	.LBE2383:
 2877              		.loc 4 383 0
 2878 08e4 83E1000C 		lwz 31,12(1)
 2879              	.LVL207:
 2880 08e8 7C0803A6 		mtlr 0
 2881              	.LBB2384:
 2882              	.LBB2377:
 2883              		.loc 4 382 0
 2884 08ec 3880FFFF 		li 4,-1
 2885              	.LBE2377:
 2886              	.LBE2384:
 2887              		.loc 4 383 0
 2888 08f0 38210010 		addi 1,1,16
 2889              		.cfi_remember_state
 2890              		.cfi_restore 31
 2891              	.LCFI57:
 2892              		.cfi_def_cfa_offset 0
 2893              	.LBB2385:
 2894              	.LBB2378:
 2895              		.loc 4 382 0
 2896 08f4 48000000 		b _ZN11GuiKeyboard8MoveTextEi
 2897              	.LVL208:
 2898              	.L148:
 2899              	.LCFI58:
 2900              		.cfi_restore_state
 2901              	.LBB2371:
 2902              	.LBB2368:
 2903              	.LBB2365:
 2904              	.LBB2364:
 2905              		.loc 5 319 0
 2906 08f8 3C600000 		lis 3,.LC22@ha
 2907              	.LVL209:
 2908 08fc 38630090 		la 3,.LC22@l(3)
 2909 0900 48000001 		bl _ZSt20__throw_out_of_rangePKc
 2910              	.LVL210:
 2911              	.LVL211:
 2912              	.LVL212:
 2913              	.LVL213:
 2914              	.LBE2364:
 2915              	.LBE2365:
 2916              	.LBE2368:
 2917              	.LBE2371:
 2918              	.LBE2378:
 2919              	.LBE2385:
 2920              		.cfi_endproc
 2921              	.LFE1585:
 2922              		.size	_ZN11GuiKeyboard10RemoveCharEi, .-_ZN11GuiKeyboard10RemoveCharEi
 2923              		.align 2
 2924              		.globl _ZN11GuiKeyboard7AddCharEiw
 2925              		.type	_ZN11GuiKeyboard7AddCharEiw, @function
 2926              	_ZN11GuiKeyboard7AddCharEiw:
 2927              	.LFB1584:
 2928              		.loc 4 367 0
 2929              		.cfi_startproc
 2930              	.LVL214:
 2931 0904 7C0802A6 		mflr 0
 2932 0908 9421FFF0 		stwu 1,-16(1)
 2933              	.LCFI59:
 2934              		.cfi_def_cfa_offset 16
 2935              		.cfi_register 65, 0
 2936 090c 7CA72B78 		mr 7,5
 2937 0910 93E1000C 		stw 31,12(1)
 2938 0914 7C7F1B78 		mr 31,3
 2939              		.cfi_offset 31, -4
 2940 0918 90010014 		stw 0,20(1)
 2941              		.loc 4 368 0
 2942 091c 7C802379 		mr. 0,4
 2943              		.cfi_offset 65, 4
 2944 0920 41800040 		blt- 0,.L150
 2945              	.LVL215:
 2946              	.LBB2397:
 2947              	.LBB2398:
 2948              	.LBB2399:
 2949              	.LBB2400:
 2950              	.LBB2401:
 2951              	.LBB2402:
 2952              	.LBB2403:
 2953              	.LBB2404:
 2954              		.loc 5 711 0
 2955 0924 812300D4 		lwz 9,212(3)
 2956              	.LBE2404:
 2957              	.LBE2403:
 2958              		.loc 5 318 0
 2959 0928 8129FFF4 		lwz 9,-12(9)
 2960 092c 7F804840 		cmplw 7,0,9
 2961 0930 419D0044 		bgt- 7,.L153
 2962              	.LBE2402:
 2963              	.LBE2401:
 2964              		.loc 5 1308 0
 2965 0934 386300D4 		addi 3,3,212
 2966              	.LVL216:
 2967 0938 38A00000 		li 5,0
 2968              	.LVL217:
 2969 093c 38C00001 		li 6,1
 2970 0940 48000001 		bl _ZNSbIwSt11char_traitsIwESaIwEE14_M_replace_auxEjjjw
 2971              	.LVL218:
 2972              	.LBE2400:
 2973              	.LBE2399:
 2974              	.LBE2398:
 2975              	.LBE2397:
 2976              		.loc 4 374 0
 2977 0944 80010014 		lwz 0,20(1)
 2978              	.LBB2413:
 2979              	.LBB2409:
 2980              		.loc 4 373 0
 2981 0948 7FE3FB78 		mr 3,31
 2982              	.LBE2409:
 2983              	.LBE2413:
 2984              		.loc 4 374 0
 2985 094c 83E1000C 		lwz 31,12(1)
 2986              	.LVL219:
 2987 0950 7C0803A6 		mtlr 0
 2988              	.LBB2414:
 2989              	.LBB2410:
 2990              		.loc 4 373 0
 2991 0954 38800001 		li 4,1
 2992              	.LBE2410:
 2993              	.LBE2414:
 2994              		.loc 4 374 0
 2995 0958 38210010 		addi 1,1,16
 2996              		.cfi_remember_state
 2997              	.LCFI60:
 2998              		.cfi_def_cfa_offset 0
 2999              		.cfi_restore 31
 3000              	.LBB2415:
 3001              	.LBB2411:
 3002              		.loc 4 373 0
 3003 095c 48000000 		b _ZN11GuiKeyboard8MoveTextEi
 3004              	.LVL220:
 3005              	.L150:
 3006              	.LCFI61:
 3007              		.cfi_restore_state
 3008              	.LBE2411:
 3009              	.LBE2415:
 3010              		.loc 4 374 0
 3011 0960 80010014 		lwz 0,20(1)
 3012              	.LVL221:
 3013 0964 83E1000C 		lwz 31,12(1)
 3014 0968 7C0803A6 		mtlr 0
 3015 096c 38210010 		addi 1,1,16
 3016              		.cfi_remember_state
 3017              	.LCFI62:
 3018              		.cfi_def_cfa_offset 0
 3019              		.cfi_restore 31
 3020 0970 4E800020 		blr
 3021              	.LVL222:
 3022              	.L153:
 3023              	.LCFI63:
 3024              		.cfi_restore_state
 3025              	.LBB2416:
 3026              	.LBB2412:
 3027              	.LBB2408:
 3028              	.LBB2407:
 3029              	.LBB2406:
 3030              	.LBB2405:
 3031              		.loc 5 319 0
 3032 0974 3C600000 		lis 3,.LC23@ha
 3033              	.LVL223:
 3034 0978 386300A4 		la 3,.LC23@l(3)
 3035 097c 48000001 		bl _ZSt20__throw_out_of_rangePKc
 3036              	.LVL224:
 3037              	.LVL225:
 3038              	.LVL226:
 3039              	.LVL227:
 3040              	.LVL228:
 3041              	.LVL229:
 3042              	.LVL230:
 3043              	.LBE2405:
 3044              	.LBE2406:
 3045              	.LBE2407:
 3046              	.LBE2408:
 3047              	.LBE2412:
 3048              	.LBE2416:
 3049              		.cfi_endproc
 3050              	.LFE1584:
 3051              		.size	_ZN11GuiKeyboard7AddCharEiw, .-_ZN11GuiKeyboard7AddCharEiw
 3052              		.align 2
 3053              		.globl _ZN11GuiKeyboard16OnNormalKeyPressEP9GuiButtoniRK6_POINT
 3054              		.type	_ZN11GuiKeyboard16OnNormalKeyPressEP9GuiButtoniRK6_POINT, @function
 3055              	_ZN11GuiKeyboard16OnNormalKeyPressEP9GuiButtoniRK6_POINT:
 3056              	.LFB1590:
 3057              		.loc 4 489 0
 3058              		.cfi_startproc
 3059              	.LVL231:
 3060 0980 7C0802A6 		mflr 0
 3061 0984 9421FFD0 		stwu 1,-48(1)
 3062              	.LCFI64:
 3063              		.cfi_def_cfa_offset 48
 3064              		.cfi_register 65, 0
 3065 0988 93E1002C 		stw 31,44(1)
 3066 098c 90010034 		stw 0,52(1)
 3067 0990 93010010 		stw 24,16(1)
 3068              	.LBB2450:
 3069              	.LBB2451:
 3070              	.LBB2452:
 3071              	.LBB2453:
 3072              	.LBB2454:
 3073              	.LBB2455:
 3074              		.loc 4 371 0
 3075 0994 3B0300D4 		addi 24,3,212
 3076              		.cfi_offset 24, -32
 3077              		.cfi_offset 65, 4
 3078              		.cfi_offset 31, -4
 3079              	.LBE2455:
 3080              	.LBE2454:
 3081              	.LBE2453:
 3082              	.LBE2452:
 3083              	.LBE2451:
 3084              	.LBE2450:
 3085              		.loc 4 489 0
 3086 0998 93210014 		stw 25,20(1)
 3087              	.LBB2484:
 3088              	.LBB2480:
 3089              		.loc 4 510 0
 3090 099c 3B200000 		li 25,0
 3091              		.cfi_offset 25, -28
 3092              	.LBE2480:
 3093              	.LBE2484:
 3094              		.loc 4 489 0
 3095 09a0 93410018 		stw 26,24(1)
 3096              	.LBB2485:
 3097              	.LBB2481:
 3098              		.loc 4 511 0
 3099 09a4 3B400001 		li 26,1
 3100              		.cfi_offset 26, -24
 3101              	.LBE2481:
 3102              	.LBE2485:
 3103              		.loc 4 489 0
 3104 09a8 9361001C 		stw 27,28(1)
 3105              		.loc 4 490 0
 3106 09ac 3B600000 		li 27,0
 3107              		.cfi_offset 27, -20
 3108              		.loc 4 489 0
 3109 09b0 93810020 		stw 28,32(1)
 3110 09b4 7C7C1B78 		mr 28,3
 3111              		.cfi_offset 28, -16
 3112 09b8 93A10024 		stw 29,36(1)
 3113 09bc 7C9D2378 		mr 29,4
 3114              		.cfi_offset 29, -12
 3115 09c0 93C10028 		stw 30,40(1)
 3116              		.loc 4 488 0
 3117 09c4 3BC00000 		li 30,0
 3118              		.cfi_offset 30, -8
 3119              	.LVL232:
 3120              	.L155:
 3121              	.LBB2486:
 3122              		.loc 4 488 0 is_stmt 0 discriminator 1
 3123 09c8 1FFB0068 		mulli 31,27,104
 3124              	.LBE2486:
 3125 09cc 3800000D 		li 0,13
 3126 09d0 90010008 		stw 0,8(1)
 3127              	.LBB2487:
 3128 09d4 7FFCFA14 		add 31,28,31
 3129 09d8 3BFF017C 		addi 31,31,380
 3130 09dc 48000018 		b .L163
 3131              	.LVL233:
 3132              	.L156:
 3133              	.LBB2482:
 3134              		.loc 4 492 0 is_stmt 1
 3135 09e0 80010008 		lwz 0,8(1)
 3136              		.loc 4 511 0
 3137 09e4 3BFF0004 		addi 31,31,4
 3138              		.loc 4 492 0
 3139 09e8 3520FFFF 		addic. 9,0,-1
 3140 09ec 91210008 		stw 9,8(1)
 3141 09f0 418200A4 		beq- 0,.L168
 3142              	.L163:
 3143              		.loc 4 488 0
 3144 09f4 7D3FF214 		add 9,31,30
 3145              		.loc 4 494 0
 3146 09f8 80090228 		lwz 0,552(9)
 3147 09fc 7F80E800 		cmpw 7,0,29
 3148 0a00 409EFFE0 		bne+ 7,.L156
 3149              	.LVL234:
 3150              	.LBB2463:
 3151              	.LBB2464:
 3152              		.loc 5 717 0
 3153 0a04 813C00D4 		lwz 9,212(28)
 3154              	.LBE2464:
 3155              	.LBE2463:
 3156              		.loc 4 496 0
 3157 0a08 801C0178 		lwz 0,376(28)
 3158              	.LBB2466:
 3159              	.LBB2465:
 3160              		.loc 5 717 0
 3161 0a0c 8129FFF4 		lwz 9,-12(9)
 3162              	.LBE2465:
 3163              	.LBE2466:
 3164              		.loc 4 496 0
 3165 0a10 7F804840 		cmplw 7,0,9
 3166              		.loc 4 498 0
 3167 0a14 881C0320 		lbz 0,800(28)
 3168              		.loc 4 496 0
 3169 0a18 409D00FC 		ble- 7,.L166
 3170              		.loc 4 498 0
 3171 0a1c 2F800000 		cmpwi 7,0,0
 3172 0a20 409E0010 		bne- 7,.L159
 3173              		.loc 4 498 0 is_stmt 0 discriminator 1
 3174 0a24 881C0321 		lbz 0,801(28)
 3175 0a28 2F000000 		cmpwi 6,0,0
 3176 0a2c 419A00A8 		beq- 6,.L160
 3177              	.L159:
 3178              		.loc 4 598 0 is_stmt 1
 3179 0a30 817C0324 		lwz 11,804(28)
 3180              		.loc 4 500 0
 3181 0a34 809C00D0 		lwz 4,208(28)
 3182 0a38 800B014C 		lwz 0,332(11)
 3183 0a3c 80FF0034 		lwz 7,52(31)
 3184              	.LVL235:
 3185              	.LBB2467:
 3186              	.LBB2462:
 3187              		.loc 4 368 0
 3188 0a40 7C840215 		add. 4,4,0
 3189 0a44 41800030 		blt- 0,.L158
 3190              	.LVL236:
 3191              	.LBB2461:
 3192              	.LBB2460:
 3193              	.LBB2456:
 3194              	.LBB2457:
 3195              	.LBB2458:
 3196              	.LBB2459:
 3197              		.loc 5 318 0
 3198 0a48 7F892040 		cmplw 7,9,4
 3199 0a4c 419C00D0 		blt- 7,.L167
 3200              	.LBE2459:
 3201              	.LBE2458:
 3202              		.loc 5 1308 0
 3203 0a50 38A00000 		li 5,0
 3204 0a54 38C00001 		li 6,1
 3205 0a58 7F03C378 		mr 3,24
 3206 0a5c 48000001 		bl _ZNSbIwSt11char_traitsIwESaIwEE14_M_replace_auxEjjjw
 3207              	.LVL237:
 3208              	.LBE2457:
 3209              	.LBE2456:
 3210              		.loc 4 373 0
 3211 0a60 7F83E378 		mr 3,28
 3212 0a64 38800001 		li 4,1
 3213 0a68 48000001 		bl _ZN11GuiKeyboard8MoveTextEi
 3214 0a6c 881C0320 		lbz 0,800(28)
 3215 0a70 2F800000 		cmpwi 7,0,0
 3216              	.LVL238:
 3217              	.L158:
 3218              	.LBE2460:
 3219              	.LBE2461:
 3220              	.LBE2462:
 3221              	.LBE2467:
 3222              		.loc 4 508 0
 3223 0a74 41BEFF6C 		beq- 7,.L156
 3224              		.loc 4 492 0
 3225 0a78 80010008 		lwz 0,8(1)
 3226              		.loc 4 511 0
 3227 0a7c 3BFF0004 		addi 31,31,4
 3228              		.loc 4 510 0
 3229 0a80 9B3C0320 		stb 25,800(28)
 3230              		.loc 4 492 0
 3231 0a84 3520FFFF 		addic. 9,0,-1
 3232              		.loc 4 511 0
 3233 0a88 9B5C0322 		stb 26,802(28)
 3234              		.loc 4 492 0
 3235 0a8c 91210008 		stw 9,8(1)
 3236 0a90 4082FF64 		bne+ 0,.L163
 3237              	.LVL239:
 3238              	.L168:
 3239              	.LBE2482:
 3240              		.loc 4 490 0
 3241 0a94 2F9B0003 		cmpwi 7,27,3
 3242 0a98 3BDEFFCC 		addi 30,30,-52
 3243 0a9c 3B7B0001 		addi 27,27,1
 3244              	.LVL240:
 3245 0aa0 409EFF28 		bne+ 7,.L155
 3246              	.LBE2487:
 3247              		.loc 4 516 0
 3248 0aa4 80010034 		lwz 0,52(1)
 3249 0aa8 83010010 		lwz 24,16(1)
 3250 0aac 7C0803A6 		mtlr 0
 3251 0ab0 83210014 		lwz 25,20(1)
 3252 0ab4 83410018 		lwz 26,24(1)
 3253 0ab8 8361001C 		lwz 27,28(1)
 3254              	.LVL241:
 3255 0abc 83810020 		lwz 28,32(1)
 3256              	.LVL242:
 3257 0ac0 83A10024 		lwz 29,36(1)
 3258              	.LVL243:
 3259 0ac4 83C10028 		lwz 30,40(1)
 3260 0ac8 83E1002C 		lwz 31,44(1)
 3261 0acc 38210030 		addi 1,1,48
 3262              		.cfi_remember_state
 3263              	.LCFI65:
 3264              		.cfi_def_cfa_offset 0
 3265              		.cfi_restore 31
 3266              		.cfi_restore 30
 3267              		.cfi_restore 29
 3268              		.cfi_restore 28
 3269              		.cfi_restore 27
 3270              		.cfi_restore 26
 3271              		.cfi_restore 25
 3272              		.cfi_restore 24
 3273 0ad0 4E800020 		blr
 3274              	.LVL244:
 3275              	.L160:
 3276              	.LCFI66:
 3277              		.cfi_restore_state
 3278              	.LBB2488:
 3279              	.LBB2483:
 3280              		.loc 4 598 0
 3281 0ad4 815C0324 		lwz 10,804(28)
 3282              		.loc 4 504 0
 3283 0ad8 817C00D0 		lwz 11,208(28)
 3284 0adc 800A014C 		lwz 0,332(10)
 3285 0ae0 80FF0000 		lwz 7,0(31)
 3286              	.LVL245:
 3287              	.LBB2468:
 3288              	.LBB2469:
 3289              		.loc 4 368 0
 3290 0ae4 7C8B0215 		add. 4,11,0
 3291 0ae8 41A0FEF8 		blt- 0,.L156
 3292              	.LVL246:
 3293              	.LBB2470:
 3294              	.LBB2471:
 3295              	.LBB2472:
 3296              	.LBB2473:
 3297              	.LBB2474:
 3298              	.LBB2475:
 3299              		.loc 5 318 0
 3300 0aec 7F892040 		cmplw 7,9,4
 3301 0af0 419C002C 		blt- 7,.L167
 3302              	.LBE2475:
 3303              	.LBE2474:
 3304              		.loc 5 1308 0
 3305 0af4 38A00000 		li 5,0
 3306 0af8 38C00001 		li 6,1
 3307 0afc 7F03C378 		mr 3,24
 3308 0b00 48000001 		bl _ZNSbIwSt11char_traitsIwESaIwEE14_M_replace_auxEjjjw
 3309              	.LVL247:
 3310              	.LBE2473:
 3311              	.LBE2472:
 3312              		.loc 4 373 0
 3313 0b04 7F83E378 		mr 3,28
 3314 0b08 38800001 		li 4,1
 3315 0b0c 48000001 		bl _ZN11GuiKeyboard8MoveTextEi
 3316 0b10 881C0320 		lbz 0,800(28)
 3317              	.LVL248:
 3318              	.L166:
 3319 0b14 2F800000 		cmpwi 7,0,0
 3320 0b18 4BFFFF5C 		b .L158
 3321              	.LVL249:
 3322              	.L167:
 3323              	.LBB2479:
 3324              	.LBB2478:
 3325              	.LBB2477:
 3326              	.LBB2476:
 3327              		.loc 5 319 0
 3328 0b1c 3C600000 		lis 3,.LC23@ha
 3329 0b20 386300A4 		la 3,.LC23@l(3)
 3330 0b24 48000001 		bl _ZSt20__throw_out_of_rangePKc
 3331              	.LVL250:
 3332              	.LBE2476:
 3333              	.LBE2477:
 3334              	.LBE2478:
 3335              	.LBE2479:
 3336              	.LBE2471:
 3337              	.LBE2470:
 3338              	.LBE2469:
 3339              	.LBE2468:
 3340              	.LBE2483:
 3341              	.LBE2488:
 3342              		.cfi_endproc
 3343              	.LFE1590:
 3344              		.size	_ZN11GuiKeyboard16OnNormalKeyPressEP9GuiButtoniRK6_POINT, .-_ZN11GuiKeyboard16OnNormalKeyPre
 3345              		.align 2
 3346              		.globl _ZN11GuiKeyboard6UpdateEP10GuiTrigger
 3347              		.type	_ZN11GuiKeyboard6UpdateEP10GuiTrigger, @function
 3348              	_ZN11GuiKeyboard6UpdateEP10GuiTrigger:
 3349              	.LFB1591:
 3350              		.loc 4 519 0
 3351              		.cfi_startproc
 3352              	.LVL251:
 3353 0b28 9421FFD0 		stwu 1,-48(1)
 3354              	.LCFI67:
 3355              		.cfi_def_cfa_offset 48
 3356 0b2c 7C0802A6 		mflr 0
 3357 0b30 93A10024 		stw 29,36(1)
 3358 0b34 7C9D2378 		mr 29,4
 3359              		.cfi_offset 29, -12
 3360              		.cfi_register 65, 0
 3361 0b38 90010034 		stw 0,52(1)
 3362 0b3c 93C10028 		stw 30,40(1)
 3363              	.LBB2529:
 3364              		.loc 4 524 0
 3365 0b40 3FC00000 		lis 30,Settings@ha
 3366              		.cfi_offset 30, -8
 3367              		.cfi_offset 65, 4
 3368              	.LBE2529:
 3369              		.loc 4 519 0
 3370 0b44 93E1002C 		stw 31,44(1)
 3371              		.loc 4 519 0
 3372 0b48 7C7F1B78 		mr 31,3
 3373              		.cfi_offset 31, -4
 3374              	.LBB2559:
 3375              		.loc 4 520 0
 3376 0b4c 48000001 		bl _ZN8GuiFrame6UpdateEP10GuiTrigger
 3377              	.LVL252:
 3378              		.loc 4 524 0
 3379 0b50 813D000C 		lwz 9,12(29)
 3380 0b54 3BDE0000 		la 30,Settings@l(30)
 3381              		.loc 4 522 0
 3382 0b58 815F00CC 		lwz 10,204(31)
 3383              		.loc 4 524 0
 3384 0b5c A01E0A4C 		lhz 0,2636(30)
 3385 0b60 8169000C 		lwz 11,12(9)
 3386 0b64 7C085839 		and. 8,0,11
 3387              		.loc 4 522 0
 3388 0b68 380A0001 		addi 0,10,1
 3389 0b6c 901F00CC 		stw 0,204(31)
 3390              		.loc 4 524 0
 3391 0b70 40820014 		bne- 0,.L170
 3392              		.loc 4 524 0 is_stmt 0 discriminator 2
 3393 0b74 A15E0A68 		lhz 10,2664(30)
 3394 0b78 554A801E 		slwi 10,10,16
 3395 0b7c 7D485839 		and. 8,10,11
 3396 0b80 418204B4 		beq- 0,.L254
 3397              	.L170:
 3398              		.loc 4 524 0 discriminator 1
 3399 0b84 A97E007E 		lha 11,126(30)
 3400 0b88 7F805840 		cmplw 7,0,11
 3401 0b8c 419D04C4 		bgt- 7,.L255
 3402              	.L171:
 3403              		.loc 4 533 0 is_stmt 1
 3404 0b90 8009000C 		lwz 0,12(9)
 3405 0b94 A13E0A4A 		lhz 9,2634(30)
 3406 0b98 7D2B0039 		and. 11,9,0
 3407 0b9c 40820014 		bne- 0,.L175
 3408              		.loc 4 533 0 is_stmt 0 discriminator 1
 3409 0ba0 A13E0A66 		lhz 9,2662(30)
 3410 0ba4 5529801E 		slwi 9,9,16
 3411 0ba8 7D280039 		and. 8,9,0
 3412 0bac 41820460 		beq- 0,.L256
 3413              	.L175:
 3414              		.loc 4 539 0 is_stmt 1
 3415 0bb0 813F031C 		lwz 9,796(31)
 3416              		.loc 4 537 0
 3417 0bb4 38000001 		li 0,1
 3418 0bb8 981F0321 		stb 0,801(31)
 3419              		.loc 4 539 0
 3420 0bbc 2F890000 		cmpwi 7,9,0
 3421 0bc0 419C04F4 		blt- 7,.L177
 3422 0bc4 881F0322 		lbz 0,802(31)
 3423              	.L178:
 3424              		.loc 4 542 0
 3425 0bc8 813D0008 		lwz 9,8(29)
 3426 0bcc 913F031C 		stw 9,796(31)
 3427              	.L179:
 3428              	.LBB2530:
 3429              		.loc 4 555 0
 3430 0bd0 2F800000 		cmpwi 7,0,0
 3431 0bd4 419E03B4 		beq- 7,.L169
 3432              	.L181:
 3433              	.LBB2531:
 3434              		.loc 4 557 0
 3435 0bd8 38000000 		li 0,0
 3436 0bdc 39200004 		li 9,4
 3437 0be0 90010008 		stw 0,8(1)
 3438 0be4 7FFEFB78 		mr 30,31
 3439 0be8 9001000C 		stw 0,12(1)
 3440              	.LVL253:
 3441 0bec 7FFDFB78 		mr 29,31
 3442              	.LVL254:
 3443 0bf0 91210018 		stw 9,24(1)
 3444              	.LVL255:
 3445              	.L235:
 3446              	.LBB2532:
 3447              	.LBB2533:
 3448              		.loc 4 563 0 discriminator 1
 3449 0bf4 801E017C 		lwz 0,380(30)
 3450 0bf8 2F800000 		cmpwi 7,0,0
 3451 0bfc 419E003C 		beq- 7,.L183
 3452              		.loc 4 565 0
 3453 0c00 893F0320 		lbz 9,800(31)
 3454 0c04 2F890000 		cmpwi 7,9,0
 3455 0c08 409E0010 		bne- 7,.L184
 3456 0c0c 893F0321 		lbz 9,801(31)
 3457 0c10 2F890000 		cmpwi 7,9,0
 3458 0c14 419E03F0 		beq- 7,.L257
 3459              	.L184:
 3460              		.loc 4 566 0
 3461 0c18 801E01B0 		lwz 0,432(30)
 3462 0c1c 90010008 		stw 0,8(1)
 3463              	.L186:
 3464              		.loc 4 570 0
 3465 0c20 807D0614 		lwz 3,1556(29)
 3466 0c24 38810008 		addi 4,1,8
 3467 0c28 81230000 		lwz 9,0(3)
 3468 0c2c 800900D0 		lwz 0,208(9)
 3469 0c30 7C0903A6 		mtctr 0
 3470 0c34 4E800421 		bctrl
 3471              	.L183:
 3472              	.LVL256:
 3473              		.loc 4 563 0
 3474 0c38 801E0180 		lwz 0,384(30)
 3475 0c3c 2F800000 		cmpwi 7,0,0
 3476 0c40 419E003C 		beq- 7,.L187
 3477              		.loc 4 565 0
 3478 0c44 893F0320 		lbz 9,800(31)
 3479 0c48 2F890000 		cmpwi 7,9,0
 3480 0c4c 409E0010 		bne- 7,.L188
 3481 0c50 893F0321 		lbz 9,801(31)
 3482 0c54 2F890000 		cmpwi 7,9,0
 3483 0c58 419E03A4 		beq- 7,.L258
 3484              	.L188:
 3485              		.loc 4 566 0
 3486 0c5c 801E01B4 		lwz 0,436(30)
 3487 0c60 90010008 		stw 0,8(1)
 3488              	.L190:
 3489              		.loc 4 570 0
 3490 0c64 807D0618 		lwz 3,1560(29)
 3491 0c68 38810008 		addi 4,1,8
 3492 0c6c 81230000 		lwz 9,0(3)
 3493 0c70 800900D0 		lwz 0,208(9)
 3494 0c74 7C0903A6 		mtctr 0
 3495 0c78 4E800421 		bctrl
 3496              	.L187:
 3497              	.LVL257:
 3498              		.loc 4 563 0
 3499 0c7c 801E0184 		lwz 0,388(30)
 3500 0c80 2F800000 		cmpwi 7,0,0
 3501 0c84 419E003C 		beq- 7,.L191
 3502              		.loc 4 565 0
 3503 0c88 893F0320 		lbz 9,800(31)
 3504 0c8c 2F890000 		cmpwi 7,9,0
 3505 0c90 409E0010 		bne- 7,.L192
 3506 0c94 893F0321 		lbz 9,801(31)
 3507 0c98 2F890000 		cmpwi 7,9,0
 3508 0c9c 419E0358 		beq- 7,.L259
 3509              	.L192:
 3510              		.loc 4 566 0
 3511 0ca0 801E01B8 		lwz 0,440(30)
 3512 0ca4 90010008 		stw 0,8(1)
 3513              	.L194:
 3514              		.loc 4 570 0
 3515 0ca8 807D061C 		lwz 3,1564(29)
 3516 0cac 38810008 		addi 4,1,8
 3517 0cb0 81230000 		lwz 9,0(3)
 3518 0cb4 800900D0 		lwz 0,208(9)
 3519 0cb8 7C0903A6 		mtctr 0
 3520 0cbc 4E800421 		bctrl
 3521              	.L191:
 3522              	.LVL258:
 3523              		.loc 4 563 0
 3524 0cc0 801E0188 		lwz 0,392(30)
 3525 0cc4 2F800000 		cmpwi 7,0,0
 3526 0cc8 419E003C 		beq- 7,.L195
 3527              		.loc 4 565 0
 3528 0ccc 893F0320 		lbz 9,800(31)
 3529 0cd0 2F890000 		cmpwi 7,9,0
 3530 0cd4 409E0010 		bne- 7,.L196
 3531 0cd8 893F0321 		lbz 9,801(31)
 3532 0cdc 2F890000 		cmpwi 7,9,0
 3533 0ce0 419E030C 		beq- 7,.L260
 3534              	.L196:
 3535              		.loc 4 566 0
 3536 0ce4 801E01BC 		lwz 0,444(30)
 3537 0ce8 90010008 		stw 0,8(1)
 3538              	.L198:
 3539              		.loc 4 570 0
 3540 0cec 807D0620 		lwz 3,1568(29)
 3541 0cf0 38810008 		addi 4,1,8
 3542 0cf4 81230000 		lwz 9,0(3)
 3543 0cf8 800900D0 		lwz 0,208(9)
 3544 0cfc 7C0903A6 		mtctr 0
 3545 0d00 4E800421 		bctrl
 3546              	.L195:
 3547              	.LVL259:
 3548              		.loc 4 563 0
 3549 0d04 801E018C 		lwz 0,396(30)
 3550 0d08 2F800000 		cmpwi 7,0,0
 3551 0d0c 419E003C 		beq- 7,.L199
 3552              		.loc 4 565 0
 3553 0d10 893F0320 		lbz 9,800(31)
 3554 0d14 2F890000 		cmpwi 7,9,0
 3555 0d18 409E0010 		bne- 7,.L200
 3556 0d1c 893F0321 		lbz 9,801(31)
 3557 0d20 2F890000 		cmpwi 7,9,0
 3558 0d24 419E02C0 		beq- 7,.L261
 3559              	.L200:
 3560              		.loc 4 566 0
 3561 0d28 801E01C0 		lwz 0,448(30)
 3562 0d2c 90010008 		stw 0,8(1)
 3563              	.L202:
 3564              		.loc 4 570 0
 3565 0d30 807D0624 		lwz 3,1572(29)
 3566 0d34 38810008 		addi 4,1,8
 3567 0d38 81230000 		lwz 9,0(3)
 3568 0d3c 800900D0 		lwz 0,208(9)
 3569 0d40 7C0903A6 		mtctr 0
 3570 0d44 4E800421 		bctrl
 3571              	.L199:
 3572              	.LVL260:
 3573              		.loc 4 563 0
 3574 0d48 801E0190 		lwz 0,400(30)
 3575 0d4c 2F800000 		cmpwi 7,0,0
 3576 0d50 419E003C 		beq- 7,.L203
 3577              		.loc 4 565 0
 3578 0d54 893F0320 		lbz 9,800(31)
 3579 0d58 2F890000 		cmpwi 7,9,0
 3580 0d5c 409E0010 		bne- 7,.L204
 3581 0d60 893F0321 		lbz 9,801(31)
 3582 0d64 2F890000 		cmpwi 7,9,0
 3583 0d68 419E0274 		beq- 7,.L262
 3584              	.L204:
 3585              		.loc 4 566 0
 3586 0d6c 801E01C4 		lwz 0,452(30)
 3587 0d70 90010008 		stw 0,8(1)
 3588              	.L206:
 3589              		.loc 4 570 0
 3590 0d74 807D0628 		lwz 3,1576(29)
 3591 0d78 38810008 		addi 4,1,8
 3592 0d7c 81230000 		lwz 9,0(3)
 3593 0d80 800900D0 		lwz 0,208(9)
 3594 0d84 7C0903A6 		mtctr 0
 3595 0d88 4E800421 		bctrl
 3596              	.L203:
 3597              	.LVL261:
 3598              		.loc 4 563 0
 3599 0d8c 801E0194 		lwz 0,404(30)
 3600 0d90 2F800000 		cmpwi 7,0,0
 3601 0d94 419E003C 		beq- 7,.L207
 3602              		.loc 4 565 0
 3603 0d98 893F0320 		lbz 9,800(31)
 3604 0d9c 2F890000 		cmpwi 7,9,0
 3605 0da0 409E0010 		bne- 7,.L208
 3606 0da4 893F0321 		lbz 9,801(31)
 3607 0da8 2F890000 		cmpwi 7,9,0
 3608 0dac 419E0228 		beq- 7,.L263
 3609              	.L208:
 3610              		.loc 4 566 0
 3611 0db0 801E01C8 		lwz 0,456(30)
 3612 0db4 90010008 		stw 0,8(1)
 3613              	.L210:
 3614              		.loc 4 570 0
 3615 0db8 807D062C 		lwz 3,1580(29)
 3616 0dbc 38810008 		addi 4,1,8
 3617 0dc0 81230000 		lwz 9,0(3)
 3618 0dc4 800900D0 		lwz 0,208(9)
 3619 0dc8 7C0903A6 		mtctr 0
 3620 0dcc 4E800421 		bctrl
 3621              	.L207:
 3622              	.LVL262:
 3623              		.loc 4 563 0
 3624 0dd0 801E0198 		lwz 0,408(30)
 3625 0dd4 2F800000 		cmpwi 7,0,0
 3626 0dd8 419E003C 		beq- 7,.L211
 3627              		.loc 4 565 0
 3628 0ddc 893F0320 		lbz 9,800(31)
 3629 0de0 2F890000 		cmpwi 7,9,0
 3630 0de4 409E0010 		bne- 7,.L212
 3631 0de8 893F0321 		lbz 9,801(31)
 3632 0dec 2F890000 		cmpwi 7,9,0
 3633 0df0 419E01DC 		beq- 7,.L264
 3634              	.L212:
 3635              		.loc 4 566 0
 3636 0df4 801E01CC 		lwz 0,460(30)
 3637 0df8 90010008 		stw 0,8(1)
 3638              	.L214:
 3639              		.loc 4 570 0
 3640 0dfc 807D0630 		lwz 3,1584(29)
 3641 0e00 38810008 		addi 4,1,8
 3642 0e04 81230000 		lwz 9,0(3)
 3643 0e08 800900D0 		lwz 0,208(9)
 3644 0e0c 7C0903A6 		mtctr 0
 3645 0e10 4E800421 		bctrl
 3646              	.L211:
 3647              	.LVL263:
 3648              		.loc 4 563 0
 3649 0e14 801E019C 		lwz 0,412(30)
 3650 0e18 2F800000 		cmpwi 7,0,0
 3651 0e1c 419E003C 		beq- 7,.L215
 3652              		.loc 4 565 0
 3653 0e20 893F0320 		lbz 9,800(31)
 3654 0e24 2F890000 		cmpwi 7,9,0
 3655 0e28 409E0010 		bne- 7,.L216
 3656 0e2c 893F0321 		lbz 9,801(31)
 3657 0e30 2F890000 		cmpwi 7,9,0
 3658 0e34 419E0190 		beq- 7,.L265
 3659              	.L216:
 3660              		.loc 4 566 0
 3661 0e38 801E01D0 		lwz 0,464(30)
 3662 0e3c 90010008 		stw 0,8(1)
 3663              	.L218:
 3664              		.loc 4 570 0
 3665 0e40 807D0634 		lwz 3,1588(29)
 3666 0e44 38810008 		addi 4,1,8
 3667 0e48 81230000 		lwz 9,0(3)
 3668 0e4c 800900D0 		lwz 0,208(9)
 3669 0e50 7C0903A6 		mtctr 0
 3670 0e54 4E800421 		bctrl
 3671              	.L215:
 3672              	.LVL264:
 3673              		.loc 4 563 0
 3674 0e58 801E01A0 		lwz 0,416(30)
 3675 0e5c 2F800000 		cmpwi 7,0,0
 3676 0e60 419E003C 		beq- 7,.L219
 3677              		.loc 4 565 0
 3678 0e64 893F0320 		lbz 9,800(31)
 3679 0e68 2F890000 		cmpwi 7,9,0
 3680 0e6c 409E0010 		bne- 7,.L220
 3681 0e70 893F0321 		lbz 9,801(31)
 3682 0e74 2F890000 		cmpwi 7,9,0
 3683 0e78 419E0144 		beq- 7,.L266
 3684              	.L220:
 3685              		.loc 4 566 0
 3686 0e7c 801E01D4 		lwz 0,468(30)
 3687 0e80 90010008 		stw 0,8(1)
 3688              	.L222:
 3689              		.loc 4 570 0
 3690 0e84 807D0638 		lwz 3,1592(29)
 3691 0e88 38810008 		addi 4,1,8
 3692 0e8c 81230000 		lwz 9,0(3)
 3693 0e90 800900D0 		lwz 0,208(9)
 3694 0e94 7C0903A6 		mtctr 0
 3695 0e98 4E800421 		bctrl
 3696              	.L219:
 3697              	.LVL265:
 3698              		.loc 4 563 0
 3699 0e9c 801E01A4 		lwz 0,420(30)
 3700 0ea0 2F800000 		cmpwi 7,0,0
 3701 0ea4 419E003C 		beq- 7,.L223
 3702              		.loc 4 565 0
 3703 0ea8 893F0320 		lbz 9,800(31)
 3704 0eac 2F890000 		cmpwi 7,9,0
 3705 0eb0 409E0010 		bne- 7,.L224
 3706 0eb4 893F0321 		lbz 9,801(31)
 3707 0eb8 2F890000 		cmpwi 7,9,0
 3708 0ebc 419E00F8 		beq- 7,.L267
 3709              	.L224:
 3710              		.loc 4 566 0
 3711 0ec0 801E01D8 		lwz 0,472(30)
 3712 0ec4 90010008 		stw 0,8(1)
 3713              	.L226:
 3714              		.loc 4 570 0
 3715 0ec8 807D063C 		lwz 3,1596(29)
 3716 0ecc 38810008 		addi 4,1,8
 3717 0ed0 81230000 		lwz 9,0(3)
 3718 0ed4 800900D0 		lwz 0,208(9)
 3719 0ed8 7C0903A6 		mtctr 0
 3720 0edc 4E800421 		bctrl
 3721              	.L223:
 3722              	.LVL266:
 3723              		.loc 4 563 0
 3724 0ee0 801E01A8 		lwz 0,424(30)
 3725 0ee4 2F800000 		cmpwi 7,0,0
 3726 0ee8 419E003C 		beq- 7,.L227
 3727              		.loc 4 565 0
 3728 0eec 893F0320 		lbz 9,800(31)
 3729 0ef0 2F890000 		cmpwi 7,9,0
 3730 0ef4 409E0010 		bne- 7,.L228
 3731 0ef8 893F0321 		lbz 9,801(31)
 3732 0efc 2F890000 		cmpwi 7,9,0
 3733 0f00 419E00AC 		beq- 7,.L268
 3734              	.L228:
 3735              		.loc 4 566 0
 3736 0f04 801E01DC 		lwz 0,476(30)
 3737 0f08 90010008 		stw 0,8(1)
 3738              	.L230:
 3739              		.loc 4 570 0
 3740 0f0c 807D0640 		lwz 3,1600(29)
 3741 0f10 38810008 		addi 4,1,8
 3742 0f14 81230000 		lwz 9,0(3)
 3743 0f18 800900D0 		lwz 0,208(9)
 3744 0f1c 7C0903A6 		mtctr 0
 3745 0f20 4E800421 		bctrl
 3746              	.L227:
 3747              	.LVL267:
 3748              		.loc 4 563 0
 3749 0f24 801E01AC 		lwz 0,428(30)
 3750 0f28 2F800000 		cmpwi 7,0,0
 3751 0f2c 419E003C 		beq- 7,.L231
 3752              		.loc 4 565 0
 3753 0f30 893F0320 		lbz 9,800(31)
 3754 0f34 2F890000 		cmpwi 7,9,0
 3755 0f38 409E0010 		bne- 7,.L232
 3756 0f3c 893F0321 		lbz 9,801(31)
 3757 0f40 2F890000 		cmpwi 7,9,0
 3758 0f44 419E0060 		beq- 7,.L269
 3759              	.L232:
 3760              		.loc 4 566 0
 3761 0f48 801E01E0 		lwz 0,480(30)
 3762 0f4c 90010008 		stw 0,8(1)
 3763              	.L234:
 3764              		.loc 4 570 0
 3765 0f50 807D0644 		lwz 3,1604(29)
 3766 0f54 38810008 		addi 4,1,8
 3767 0f58 81230000 		lwz 9,0(3)
 3768 0f5c 800900D0 		lwz 0,208(9)
 3769 0f60 7C0903A6 		mtctr 0
 3770 0f64 4E800421 		bctrl
 3771              	.L231:
 3772              	.LVL268:
 3773              	.LBE2533:
 3774              		.loc 4 559 0
 3775 0f68 80010018 		lwz 0,24(1)
 3776              	.LBB2534:
 3777              		.loc 4 568 0
 3778 0f6c 3BDE0068 		addi 30,30,104
 3779 0f70 3BBD0034 		addi 29,29,52
 3780              	.LBE2534:
 3781              		.loc 4 559 0
 3782 0f74 3500FFFF 		addic. 8,0,-1
 3783 0f78 91010018 		stw 8,24(1)
 3784 0f7c 4082FC78 		bne+ 0,.L235
 3785              	.LBE2532:
 3786              		.loc 4 574 0
 3787 0f80 81210018 		lwz 9,24(1)
 3788 0f84 993F0322 		stb 9,802(31)
 3789              	.LVL269:
 3790              	.L169:
 3791              	.LBE2531:
 3792              	.LBE2530:
 3793              	.LBE2559:
 3794              		.loc 4 576 0
 3795 0f88 80010034 		lwz 0,52(1)
 3796 0f8c 83A10024 		lwz 29,36(1)
 3797 0f90 7C0803A6 		mtlr 0
 3798 0f94 83C10028 		lwz 30,40(1)
 3799 0f98 83E1002C 		lwz 31,44(1)
 3800              	.LVL270:
 3801 0f9c 38210030 		addi 1,1,48
 3802              		.cfi_remember_state
 3803              	.LCFI68:
 3804              		.cfi_def_cfa_offset 0
 3805              		.cfi_restore 31
 3806              		.cfi_restore 30
 3807              		.cfi_restore 29
 3808 0fa0 4E800020 		blr
 3809              	.LVL271:
 3810              	.L269:
 3811              	.LCFI69:
 3812              		.cfi_restore_state
 3813              	.LBB2560:
 3814              	.LBB2538:
 3815              	.LBB2537:
 3816              	.LBB2536:
 3817              	.LBB2535:
 3818              		.loc 4 568 0
 3819 0fa4 90010008 		stw 0,8(1)
 3820 0fa8 4BFFFFA8 		b .L234
 3821              	.LVL272:
 3822              	.L268:
 3823 0fac 90010008 		stw 0,8(1)
 3824 0fb0 4BFFFF5C 		b .L230
 3825              	.LVL273:
 3826              	.L267:
 3827 0fb4 90010008 		stw 0,8(1)
 3828 0fb8 4BFFFF10 		b .L226
 3829              	.LVL274:
 3830              	.L266:
 3831 0fbc 90010008 		stw 0,8(1)
 3832 0fc0 4BFFFEC4 		b .L222
 3833              	.LVL275:
 3834              	.L265:
 3835 0fc4 90010008 		stw 0,8(1)
 3836 0fc8 4BFFFE78 		b .L218
 3837              	.LVL276:
 3838              	.L264:
 3839 0fcc 90010008 		stw 0,8(1)
 3840 0fd0 4BFFFE2C 		b .L214
 3841              	.LVL277:
 3842              	.L263:
 3843 0fd4 90010008 		stw 0,8(1)
 3844 0fd8 4BFFFDE0 		b .L210
 3845              	.LVL278:
 3846              	.L262:
 3847 0fdc 90010008 		stw 0,8(1)
 3848 0fe0 4BFFFD94 		b .L206
 3849              	.LVL279:
 3850              	.L261:
 3851 0fe4 90010008 		stw 0,8(1)
 3852 0fe8 4BFFFD48 		b .L202
 3853              	.LVL280:
 3854              	.L260:
 3855 0fec 90010008 		stw 0,8(1)
 3856 0ff0 4BFFFCFC 		b .L198
 3857              	.LVL281:
 3858              	.L259:
 3859 0ff4 90010008 		stw 0,8(1)
 3860 0ff8 4BFFFCB0 		b .L194
 3861              	.LVL282:
 3862              	.L258:
 3863 0ffc 90010008 		stw 0,8(1)
 3864 1000 4BFFFC64 		b .L190
 3865              	.LVL283:
 3866              	.L257:
 3867 1004 90010008 		stw 0,8(1)
 3868 1008 4BFFFC18 		b .L186
 3869              	.LVL284:
 3870              	.L256:
 3871              	.LBE2535:
 3872              	.LBE2536:
 3873              	.LBE2537:
 3874              	.LBE2538:
 3875              		.loc 4 533 0 discriminator 2
 3876 100c A13E0A82 		lhz 9,2690(30)
 3877 1010 A01D0168 		lhz 0,360(29)
 3878 1014 7D200039 		and. 0,9,0
 3879 1018 40A2FB98 		bne- 0,.L175
 3880              		.loc 4 546 0
 3881 101c 817D0008 		lwz 11,8(29)
 3882 1020 813F031C 		lwz 9,796(31)
 3883 1024 7F8B4800 		cmpw 7,11,9
 3884 1028 419E0098 		beq- 7,.L180
 3885 102c 881F0322 		lbz 0,802(31)
 3886 1030 4BFFFBA0 		b .L179
 3887              	.L254:
 3888              		.loc 4 524 0 discriminator 3
 3889 1034 A17E0A84 		lhz 11,2692(30)
 3890 1038 A15D0168 		lhz 10,360(29)
 3891 103c 7D485839 		and. 8,10,11
 3892 1040 41A2FB50 		beq- 0,.L171
 3893              		.loc 4 524 0 is_stmt 0
 3894 1044 A97E007E 		lha 11,126(30)
 3895 1048 7F805840 		cmplw 7,0,11
 3896 104c 409DFB44 		ble+ 7,.L171
 3897              	.L255:
 3898              	.LVL285:
 3899              		.loc 4 598 0 is_stmt 1
 3900 1050 817F0324 		lwz 11,804(31)
 3901              		.loc 4 529 0
 3902 1054 809F00D0 		lwz 4,208(31)
 3903 1058 800B014C 		lwz 0,332(11)
 3904 105c 7C840214 		add 4,4,0
 3905              	.LVL286:
 3906              	.LBB2539:
 3907              	.LBB2540:
 3908              		.loc 4 378 0
 3909 1060 3484FFFF 		addic. 4,4,-1
 3910              	.LVL287:
 3911 1064 41800044 		blt- 0,.L172
 3912              	.LVL288:
 3913              	.LBB2541:
 3914              	.LBB2542:
 3915              		.loc 5 711 0
 3916 1068 817F00D4 		lwz 11,212(31)
 3917 106c 80ABFFF4 		lwz 5,-12(11)
 3918              	.LBE2542:
 3919              	.LBE2541:
 3920              		.loc 4 378 0
 3921 1070 7F842800 		cmpw 7,4,5
 3922 1074 409C0034 		bge- 7,.L172
 3923              	.LVL289:
 3924              	.LBB2543:
 3925              	.LBB2544:
 3926              	.LBB2545:
 3927              	.LBB2546:
 3928              	.LBB2547:
 3929              	.LBB2548:
 3930              		.loc 5 318 0
 3931 1078 7F852040 		cmplw 7,5,4
 3932 107c 419C0060 		blt- 7,.L270
 3933              	.LVL290:
 3934              	.LBE2548:
 3935              	.LBE2547:
 3936              		.loc 5 1349 0
 3937 1080 7CA42851 		subf. 5,4,5
 3938              	.LBE2546:
 3939              	.LBE2545:
 3940              		.loc 4 381 0
 3941 1084 387F00D4 		addi 3,31,212
 3942              	.LBB2553:
 3943              	.LBB2551:
 3944              		.loc 5 1349 0
 3945 1088 41820008 		beq- 0,.L174
 3946 108c 38A00001 		li 5,1
 3947              	.L174:
 3948 1090 38C00000 		li 6,0
 3949 1094 48000001 		bl _ZNSbIwSt11char_traitsIwESaIwEE9_M_mutateEjjj
 3950              	.LVL291:
 3951              	.LBE2551:
 3952              	.LBE2553:
 3953              		.loc 4 382 0
 3954 1098 7FE3FB78 		mr 3,31
 3955 109c 3880FFFF 		li 4,-1
 3956 10a0 48000001 		bl _ZN11GuiKeyboard8MoveTextEi
 3957 10a4 813D000C 		lwz 9,12(29)
 3958              	.LVL292:
 3959              	.L172:
 3960              	.LBE2544:
 3961              	.LBE2543:
 3962              	.LBE2540:
 3963              	.LBE2539:
 3964              		.loc 4 530 0
 3965 10a8 38000000 		li 0,0
 3966 10ac 901F00CC 		stw 0,204(31)
 3967 10b0 4BFFFAE0 		b .L171
 3968              	.LVL293:
 3969              	.L177:
 3970              		.loc 4 540 0
 3971 10b4 981F0322 		stb 0,802(31)
 3972 10b8 38000001 		li 0,1
 3973 10bc 4BFFFB0C 		b .L178
 3974              	.L180:
 3975              		.loc 4 548 0
 3976 10c0 981F0321 		stb 0,801(31)
 3977              		.loc 4 549 0
 3978 10c4 981F0320 		stb 0,800(31)
 3979              		.loc 4 550 0
 3980 10c8 38000001 		li 0,1
 3981 10cc 981F0322 		stb 0,802(31)
 3982              		.loc 4 551 0
 3983 10d0 3800FFFF 		li 0,-1
 3984 10d4 901F031C 		stw 0,796(31)
 3985 10d8 4BFFFB00 		b .L181
 3986              	.LVL294:
 3987              	.L270:
 3988              	.LBB2558:
 3989              	.LBB2557:
 3990              	.LBB2556:
 3991              	.LBB2555:
 3992              	.LBB2554:
 3993              	.LBB2552:
 3994              	.LBB2550:
 3995              	.LBB2549:
 3996              		.loc 5 319 0
 3997 10dc 3C600000 		lis 3,.LC22@ha
 3998 10e0 38630090 		la 3,.LC22@l(3)
 3999 10e4 48000001 		bl _ZSt20__throw_out_of_rangePKc
 4000              	.LVL295:
 4001              	.LVL296:
 4002              	.LVL297:
 4003              	.LVL298:
 4004              	.LBE2549:
 4005              	.LBE2550:
 4006              	.LBE2552:
 4007              	.LBE2554:
 4008              	.LBE2555:
 4009              	.LBE2556:
 4010              	.LBE2557:
 4011              	.LBE2558:
 4012              	.LBE2560:
 4013              		.cfi_endproc
 4014              	.LFE1591:
 4015              		.size	_ZN11GuiKeyboard6UpdateEP10GuiTrigger, .-_ZN11GuiKeyboard6UpdateEP10GuiTrigger
 4016              		.align 2
 4017              		.globl _ZN11GuiKeyboard17OnSpecialKeyPressEP9GuiButtoniRK6_POINT
 4018              		.type	_ZN11GuiKeyboard17OnSpecialKeyPressEP9GuiButtoniRK6_POINT, @function
 4019              	_ZN11GuiKeyboard17OnSpecialKeyPressEP9GuiButtoniRK6_POINT:
 4020              	.LFB1589:
 4021              		.loc 4 450 0
 4022              		.cfi_startproc
 4023              	.LVL299:
 4024 10e8 7C0802A6 		mflr 0
 4025 10ec 9421FFD0 		stwu 1,-48(1)
 4026              	.LCFI70:
 4027              		.cfi_def_cfa_offset 48
 4028              		.cfi_register 65, 0
 4029 10f0 93E1002C 		stw 31,44(1)
 4030 10f4 7C7F1B78 		mr 31,3
 4031              		.cfi_offset 31, -4
 4032 10f8 90010034 		stw 0,52(1)
 4033 10fc 92E1000C 		stw 23,12(1)
 4034              		.loc 4 451 0
 4035 1100 80030370 		lwz 0,880(3)
 4036              		.cfi_offset 23, -36
 4037              		.cfi_offset 65, 4
 4038              		.loc 4 450 0
 4039 1104 93010010 		stw 24,16(1)
 4040              		.loc 4 451 0
 4041 1108 7F802000 		cmpw 7,0,4
 4042              		.loc 4 450 0
 4043 110c 93210014 		stw 25,20(1)
 4044 1110 93410018 		stw 26,24(1)
 4045 1114 9361001C 		stw 27,28(1)
 4046 1118 93810020 		stw 28,32(1)
 4047 111c 93A10024 		stw 29,36(1)
 4048 1120 93C10028 		stw 30,40(1)
 4049              		.loc 4 451 0
 4050 1124 419E0080 		beq- 7,.L299
 4051              		.cfi_offset 30, -8
 4052              		.cfi_offset 29, -12
 4053              		.cfi_offset 28, -16
 4054              		.cfi_offset 27, -20
 4055              		.cfi_offset 26, -24
 4056              		.cfi_offset 25, -28
 4057              		.cfi_offset 24, -32
 4058              	.L272:
 4059              		.loc 4 455 0
 4060 1128 801F0364 		lwz 0,868(31)
 4061 112c 7F802000 		cmpw 7,0,4
 4062 1130 419E0138 		beq- 7,.L300
 4063              		.loc 4 459 0
 4064 1134 801F0380 		lwz 0,896(31)
 4065 1138 7F802000 		cmpw 7,0,4
 4066 113c 419E0180 		beq- 7,.L301
 4067              		.loc 4 463 0
 4068 1140 801F0390 		lwz 0,912(31)
 4069 1144 7F802000 		cmpw 7,0,4
 4070 1148 419E01AC 		beq- 7,.L302
 4071              		.loc 4 471 0
 4072 114c 801F0354 		lwz 0,852(31)
 4073 1150 7F802000 		cmpw 7,0,4
 4074 1154 419E00D0 		beq- 7,.L303
 4075              		.loc 4 476 0
 4076 1158 801F0344 		lwz 0,836(31)
 4077 115c 7F802000 		cmpw 7,0,4
 4078 1160 419E00DC 		beq- 7,.L304
 4079              		.loc 4 481 0
 4080 1164 801F03A0 		lwz 0,928(31)
 4081 1168 7F802000 		cmpw 7,0,4
 4082 116c 419E00E8 		beq- 7,.L305
 4083              	.LVL300:
 4084              	.L271:
 4085              		.loc 4 486 0
 4086 1170 80010034 		lwz 0,52(1)
 4087 1174 82E1000C 		lwz 23,12(1)
 4088 1178 7C0803A6 		mtlr 0
 4089 117c 83010010 		lwz 24,16(1)
 4090 1180 83210014 		lwz 25,20(1)
 4091 1184 83410018 		lwz 26,24(1)
 4092 1188 8361001C 		lwz 27,28(1)
 4093 118c 83810020 		lwz 28,32(1)
 4094 1190 83A10024 		lwz 29,36(1)
 4095 1194 83C10028 		lwz 30,40(1)
 4096 1198 83E1002C 		lwz 31,44(1)
 4097              	.LVL301:
 4098 119c 38210030 		addi 1,1,48
 4099              		.cfi_remember_state
 4100              	.LCFI71:
 4101              		.cfi_def_cfa_offset 0
 4102              		.cfi_restore 31
 4103              		.cfi_restore 30
 4104              		.cfi_restore 29
 4105              		.cfi_restore 28
 4106              		.cfi_restore 27
 4107              		.cfi_restore 26
 4108              		.cfi_restore 25
 4109              		.cfi_restore 24
 4110              		.cfi_restore 23
 4111 11a0 4E800020 		blr
 4112              	.LVL302:
 4113              	.L299:
 4114              	.LCFI72:
 4115              		.cfi_restore_state
 4116              	.LBB2662:
 4117              	.LBB2663:
 4118              		.loc 5 717 0 discriminator 1
 4119 11a4 816300D4 		lwz 11,212(3)
 4120              	.LBE2663:
 4121              	.LBE2662:
 4122              		.loc 4 451 0 discriminator 1
 4123 11a8 81230178 		lwz 9,376(3)
 4124              	.LBB2665:
 4125              	.LBB2664:
 4126              		.loc 5 717 0 discriminator 1
 4127 11ac 800BFFF4 		lwz 0,-12(11)
 4128              	.LBE2664:
 4129              	.LBE2665:
 4130              		.loc 4 451 0 discriminator 1
 4131 11b0 7F890040 		cmplw 7,9,0
 4132 11b4 40BDFF74 		ble- 7,.L272
 4133              	.LVL303:
 4134              		.loc 4 598 0 discriminator 4
 4135 11b8 81230324 		lwz 9,804(3)
 4136              		.loc 4 453 0 discriminator 4
 4137 11bc 808300D0 		lwz 4,208(3)
 4138              	.LVL304:
 4139 11c0 8129014C 		lwz 9,332(9)
 4140              	.LVL305:
 4141              	.LBB2666:
 4142              	.LBB2667:
 4143              		.loc 4 368 0 discriminator 4
 4144 11c4 7C844A15 		add. 4,4,9
 4145 11c8 41A0FFA8 		blt- 0,.L271
 4146              	.LVL306:
 4147              	.LBB2668:
 4148              	.LBB2669:
 4149              	.LBB2670:
 4150              	.LBB2671:
 4151              	.LBB2672:
 4152              	.LBB2673:
 4153              		.loc 5 318 0
 4154 11cc 7F802040 		cmplw 7,0,4
 4155 11d0 419C0218 		blt- 7,.L298
 4156              	.LBE2673:
 4157              	.LBE2672:
 4158              		.loc 5 1308 0
 4159 11d4 386300D4 		addi 3,3,212
 4160              	.LVL307:
 4161 11d8 38A00000 		li 5,0
 4162              	.LVL308:
 4163 11dc 38C00001 		li 6,1
 4164              	.LVL309:
 4165 11e0 38E00020 		li 7,32
 4166              	.LVL310:
 4167              	.L296:
 4168              	.LBE2671:
 4169              	.LBE2670:
 4170              	.LBE2669:
 4171              	.LBE2668:
 4172              	.LBE2667:
 4173              	.LBE2666:
 4174              	.LBB2674:
 4175              	.LBB2675:
 4176              	.LBB2676:
 4177              	.LBB2677:
 4178              	.LBB2678:
 4179              	.LBB2679:
 4180 11e4 48000001 		bl _ZNSbIwSt11char_traitsIwESaIwEE14_M_replace_auxEjjjw
 4181              	.LVL311:
 4182              	.LBE2679:
 4183              	.LBE2678:
 4184              		.loc 4 373 0
 4185 11e8 7FE3FB78 		mr 3,31
 4186 11ec 38800001 		li 4,1
 4187              	.L297:
 4188              	.LBE2677:
 4189              	.LBE2676:
 4190              	.LBE2675:
 4191              	.LBE2674:
 4192              		.loc 4 486 0
 4193 11f0 80010034 		lwz 0,52(1)
 4194 11f4 82E1000C 		lwz 23,12(1)
 4195 11f8 83010010 		lwz 24,16(1)
 4196 11fc 7C0803A6 		mtlr 0
 4197 1200 83210014 		lwz 25,20(1)
 4198 1204 83410018 		lwz 26,24(1)
 4199 1208 8361001C 		lwz 27,28(1)
 4200 120c 83810020 		lwz 28,32(1)
 4201 1210 83A10024 		lwz 29,36(1)
 4202 1214 83C10028 		lwz 30,40(1)
 4203 1218 83E1002C 		lwz 31,44(1)
 4204              	.LVL312:
 4205 121c 38210030 		addi 1,1,48
 4206              		.cfi_remember_state
 4207              	.LCFI73:
 4208              		.cfi_def_cfa_offset 0
 4209              		.cfi_restore 31
 4210              		.cfi_restore 30
 4211              		.cfi_restore 29
 4212              		.cfi_restore 28
 4213              		.cfi_restore 27
 4214              		.cfi_restore 26
 4215              		.cfi_restore 25
 4216              		.cfi_restore 24
 4217              		.cfi_restore 23
 4218              	.LBB2699:
 4219              	.LBB2696:
 4220              	.LBB2693:
 4221              	.LBB2690:
 4222              		.loc 4 373 0
 4223 1220 48000000 		b _ZN11GuiKeyboard8MoveTextEi
 4224              	.LVL313:
 4225              	.L303:
 4226              	.LCFI74:
 4227              		.cfi_restore_state
 4228              	.LBE2690:
 4229              	.LBE2693:
 4230              	.LBE2696:
 4231              	.LBE2699:
 4232              		.loc 4 473 0
 4233 1224 881F0320 		lbz 0,800(31)
 4234 1228 68000001 		xori 0,0,1
 4235 122c 981F0320 		stb 0,800(31)
 4236              		.loc 4 474 0
 4237 1230 38000001 		li 0,1
 4238 1234 981F0322 		stb 0,802(31)
 4239 1238 4BFFFF38 		b .L271
 4240              	.L304:
 4241              		.loc 4 478 0
 4242 123c 881F0321 		lbz 0,801(31)
 4243 1240 68000001 		xori 0,0,1
 4244 1244 981F0321 		stb 0,801(31)
 4245              		.loc 4 479 0
 4246 1248 38000001 		li 0,1
 4247 124c 981F0322 		stb 0,802(31)
 4248 1250 4BFFFF20 		b .L271
 4249              	.L305:
 4250              		.loc 4 483 0
 4251 1254 7FE3FB78 		mr 3,31
 4252              	.LVL314:
 4253 1258 48000001 		bl _ZN11GuiKeyboard17SwitchKeyLanguageEv
 4254              	.LVL315:
 4255              		.loc 4 484 0
 4256 125c 38000001 		li 0,1
 4257 1260 981F0322 		stb 0,802(31)
 4258 1264 4BFFFF0C 		b .L271
 4259              	.LVL316:
 4260              	.L300:
 4261              		.loc 4 598 0
 4262 1268 813F0324 		lwz 9,804(31)
 4263              		.loc 4 457 0
 4264 126c 809F00D0 		lwz 4,208(31)
 4265              	.LVL317:
 4266 1270 8009014C 		lwz 0,332(9)
 4267 1274 7C840214 		add 4,4,0
 4268              	.LVL318:
 4269              	.LBB2700:
 4270              	.LBB2701:
 4271              		.loc 4 378 0
 4272 1278 3484FFFF 		addic. 4,4,-1
 4273              	.LVL319:
 4274 127c 41A0FEF4 		blt- 0,.L271
 4275              	.LVL320:
 4276              	.LBB2702:
 4277              	.LBB2703:
 4278              		.loc 5 711 0
 4279 1280 813F00D4 		lwz 9,212(31)
 4280 1284 80A9FFF4 		lwz 5,-12(9)
 4281              	.LVL321:
 4282              	.LBE2703:
 4283              	.LBE2702:
 4284              		.loc 4 378 0
 4285 1288 7F842800 		cmpw 7,4,5
 4286 128c 40BCFEE4 		bge- 7,.L271
 4287              	.LVL322:
 4288              	.LBB2704:
 4289              	.LBB2705:
 4290              	.LBB2706:
 4291              	.LBB2707:
 4292              	.LBB2708:
 4293              	.LBB2709:
 4294              		.loc 5 318 0
 4295 1290 7F852040 		cmplw 7,5,4
 4296 1294 419C0160 		blt- 7,.L306
 4297              	.LVL323:
 4298              	.LBE2709:
 4299              	.LBE2708:
 4300              		.loc 5 1349 0
 4301 1298 7CA42851 		subf. 5,4,5
 4302              	.LBE2707:
 4303              	.LBE2706:
 4304              		.loc 4 381 0
 4305 129c 387F00D4 		addi 3,31,212
 4306              	.LBB2714:
 4307              	.LBB2712:
 4308              		.loc 5 1349 0
 4309 12a0 41820008 		beq- 0,.L276
 4310 12a4 38A00001 		li 5,1
 4311              	.L276:
 4312 12a8 38C00000 		li 6,0
 4313              	.LVL324:
 4314 12ac 48000001 		bl _ZNSbIwSt11char_traitsIwESaIwEE9_M_mutateEjjj
 4315              	.LVL325:
 4316              	.LBE2712:
 4317              	.LBE2714:
 4318              		.loc 4 382 0
 4319 12b0 7FE3FB78 		mr 3,31
 4320 12b4 3880FFFF 		li 4,-1
 4321 12b8 4BFFFF38 		b .L297
 4322              	.LVL326:
 4323              	.L301:
 4324              	.LBE2705:
 4325              	.LBE2704:
 4326              	.LBE2701:
 4327              	.LBE2700:
 4328              		.loc 4 598 0
 4329 12bc 813F0324 		lwz 9,804(31)
 4330              		.loc 4 461 0
 4331 12c0 809F00D0 		lwz 4,208(31)
 4332              	.LVL327:
 4333 12c4 8009014C 		lwz 0,332(9)
 4334              	.LVL328:
 4335              	.LBB2719:
 4336              	.LBB2697:
 4337              		.loc 4 368 0
 4338 12c8 7C840215 		add. 4,4,0
 4339 12cc 41A0FEA4 		blt- 0,.L271
 4340              	.LVL329:
 4341              	.LBB2694:
 4342              	.LBB2691:
 4343              	.LBB2688:
 4344              	.LBB2686:
 4345              	.LBB2680:
 4346              	.LBB2681:
 4347              	.LBB2682:
 4348              	.LBB2683:
 4349              		.loc 5 711 0
 4350 12d0 813F00D4 		lwz 9,212(31)
 4351              	.LBE2683:
 4352              	.LBE2682:
 4353              		.loc 5 318 0
 4354 12d4 8009FFF4 		lwz 0,-12(9)
 4355 12d8 7F840040 		cmplw 7,4,0
 4356 12dc 419D010C 		bgt- 7,.L298
 4357              	.LBE2681:
 4358              	.LBE2680:
 4359              		.loc 5 1308 0
 4360 12e0 387F00D4 		addi 3,31,212
 4361 12e4 38A00000 		li 5,0
 4362              	.LVL330:
 4363 12e8 38C00001 		li 6,1
 4364              	.LVL331:
 4365 12ec 38E0000A 		li 7,10
 4366 12f0 4BFFFEF4 		b .L296
 4367              	.LVL332:
 4368              	.L302:
 4369              	.LBE2686:
 4370              	.LBE2688:
 4371              	.LBE2691:
 4372              	.LBE2694:
 4373              	.LBE2697:
 4374              	.LBE2719:
 4375              	.LBB2720:
 4376              	.LBB2721:
 4377              	.LBB2722:
 4378              	.LBB2723:
 4379              		.loc 5 711 0
 4380 12f4 813F00D4 		lwz 9,212(31)
 4381              	.LBE2723:
 4382              	.LBE2722:
 4383              	.LBE2721:
 4384              	.LBE2720:
 4385              		.loc 4 465 0
 4386 12f8 38000000 		li 0,0
 4387 12fc 901F00D0 		stw 0,208(31)
 4388              		.loc 4 466 0
 4389 1300 3BDF00D4 		addi 30,31,212
 4390              	.LVL333:
 4391              	.LBB2725:
 4392              	.LBB2724:
 4393              		.loc 5 796 0
 4394 1304 80A9FFF4 		lwz 5,-12(9)
 4395              	.LVL334:
 4396 1308 38800000 		li 4,0
 4397              	.LVL335:
 4398 130c 7FC3F378 		mr 3,30
 4399 1310 38C00000 		li 6,0
 4400              	.LVL336:
 4401 1314 48000001 		bl _ZNSbIwSt11char_traitsIwESaIwEE9_M_mutateEjjj
 4402              	.LBE2724:
 4403              	.LBE2725:
 4404              	.LBB2726:
 4405              	.LBB2727:
 4406              	.LBB2728:
 4407              	.LBB2729:
 4408              	.LBB2730:
 4409              	.LBB2731:
 4410              	.LBB2732:
 4411              		.loc 5 288 0
 4412 1318 809F00D4 		lwz 4,212(31)
 4413              	.LBE2732:
 4414              	.LBE2731:
 4415              	.LBE2730:
 4416              	.LBE2729:
 4417              	.LBE2728:
 4418              	.LBE2727:
 4419              	.LBE2726:
 4420              		.loc 4 467 0
 4421 131c 83BF0330 		lwz 29,816(31)
 4422              	.LBB2749:
 4423              	.LBB2745:
 4424              	.LBB2734:
 4425              	.LBB2733:
 4426              		.loc 5 711 0
 4427 1320 8304FFF4 		lwz 24,-12(4)
 4428              	.LBE2733:
 4429              	.LBE2734:
 4430              	.LBE2745:
 4431              	.LBE2749:
 4432              		.loc 4 467 0
 4433 1324 813D0000 		lwz 9,0(29)
 4434              	.LBB2750:
 4435              	.LBB2746:
 4436              		.loc 4 582 0
 4437 1328 2F980027 		cmpwi 7,24,39
 4438              	.LBE2746:
 4439              	.LBE2750:
 4440              		.loc 4 467 0
 4441 132c 838900D0 		lwz 28,208(9)
 4442              	.LVL337:
 4443              	.LBB2751:
 4444              	.LBB2747:
 4445              		.loc 4 582 0
 4446 1330 409D0070 		ble- 7,.L280
 4447              	.LVL338:
 4448              		.loc 4 586 0
 4449 1334 82FF00D0 		lwz 23,208(31)
 4450              	.LVL339:
 4451              	.LBB2735:
 4452              		.loc 4 585 0
 4453 1338 3B600000 		li 27,0
 4454              		.loc 4 589 0
 4455 133c 7F98B800 		cmpw 7,24,23
 4456 1340 409D0048 		ble- 7,.L281
 4457              	.LVL340:
 4458              	.LBB2736:
 4459              	.LBB2737:
 4460              		.loc 5 911 0
 4461 1344 7F98B840 		cmplw 7,24,23
 4462 1348 409D0094 		ble- 7,.L284
 4463              		.loc 4 449 0
 4464 134c 7FDAF378 		mr 26,30
 4465 1350 7F17C050 		subf 24,23,24
 4466 1354 7EF9BB78 		mr 25,23
 4467              	.LVL341:
 4468              	.L285:
 4469              	.LBB2738:
 4470              	.LBB2739:
 4471              		.loc 5 311 0
 4472 1358 8004FFFC 		lwz 0,-4(4)
 4473 135c 2F800000 		cmpwi 7,0,0
 4474 1360 419C0010 		blt- 7,.L283
 4475              		.loc 5 312 0
 4476 1364 7FC3F378 		mr 3,30
 4477 1368 48000001 		bl _ZNSbIwSt11char_traitsIwESaIwEE12_M_leak_hardEv
 4478 136c 809F00D4 		lwz 4,212(31)
 4479              	.L283:
 4480              	.LVL342:
 4481              	.LBE2739:
 4482              	.LBE2738:
 4483              	.LBE2737:
 4484              	.LBE2736:
 4485              		.loc 4 589 0
 4486 1370 2F9B0027 		cmpwi 7,27,39
 4487              		.loc 4 591 0
 4488 1374 5739103A 		slwi 25,25,2
 4489              	.LVL343:
 4490 1378 7C04C82E 		lwzx 0,4,25
 4491              		.loc 4 589 0
 4492 137c 3B7B0001 		addi 27,27,1
 4493              	.LVL344:
 4494              		.loc 4 591 0
 4495 1380 941A0004 		stwu 0,4(26)
 4496              		.loc 4 589 0
 4497 1384 409E0040 		bne- 7,.L307
 4498              	.LVL345:
 4499              	.L281:
 4500              	.LBE2735:
 4501              		.loc 4 595 0
 4502 1388 393B0034 		addi 9,27,52
 4503 138c 38000000 		li 0,0
 4504 1390 5529103A 		slwi 9,9,2
 4505              		.loc 4 597 0
 4506 1394 389F00D8 		addi 4,31,216
 4507              		.loc 4 595 0
 4508 1398 7D3F4A14 		add 9,31,9
 4509 139c 90090008 		stw 0,8(9)
 4510              	.LVL346:
 4511              	.L280:
 4512              	.LBE2747:
 4513              	.LBE2751:
 4514              		.loc 4 467 0
 4515 13a0 7FA3EB78 		mr 3,29
 4516 13a4 7F8903A6 		mtctr 28
 4517 13a8 4E800421 		bctrl
 4518              		.loc 4 468 0
 4519 13ac 807F0324 		lwz 3,804(31)
 4520 13b0 48000001 		bl _ZN11TextPointer16TextWidthChangedEv
 4521              		.loc 4 469 0
 4522 13b4 807F0324 		lwz 3,804(31)
 4523 13b8 38800000 		li 4,0
 4524 13bc 48000001 		bl _ZN11TextPointer18SetPointerPositionEi
 4525 13c0 4BFFFDB0 		b .L271
 4526              	.LVL347:
 4527              	.L307:
 4528              	.LBB2752:
 4529              	.LBB2748:
 4530              	.LBB2744:
 4531              		.loc 4 589 0
 4532 13c4 7F9BC000 		cmpw 7,27,24
 4533 13c8 41BEFFC0 		beq- 7,.L281
 4534              	.LBB2742:
 4535              	.LBB2740:
 4536              		.loc 5 911 0
 4537 13cc 8004FFF4 		lwz 0,-12(4)
 4538              	.LBE2740:
 4539              	.LBE2742:
 4540              		.loc 4 449 0
 4541 13d0 7F37DA14 		add 25,23,27
 4542              	.LVL348:
 4543              	.LBB2743:
 4544              	.LBB2741:
 4545              		.loc 5 911 0
 4546 13d4 7F80C840 		cmplw 7,0,25
 4547 13d8 419DFF80 		bgt+ 7,.L285
 4548              	.LVL349:
 4549              	.L284:
 4550              		.loc 5 912 0
 4551 13dc 3C600000 		lis 3,.LC4@ha
 4552 13e0 38630000 		la 3,.LC4@l(3)
 4553 13e4 48000001 		bl _ZSt20__throw_out_of_rangePKc
 4554              	.LVL350:
 4555              	.L298:
 4556              	.LBE2741:
 4557              	.LBE2743:
 4558              	.LBE2744:
 4559              	.LBE2748:
 4560              	.LBE2752:
 4561              	.LBB2753:
 4562              	.LBB2698:
 4563              	.LBB2695:
 4564              	.LBB2692:
 4565              	.LBB2689:
 4566              	.LBB2687:
 4567              	.LBB2685:
 4568              	.LBB2684:
 4569              		.loc 5 319 0
 4570 13e8 3C600000 		lis 3,.LC23@ha
 4571 13ec 386300A4 		la 3,.LC23@l(3)
 4572 13f0 48000001 		bl _ZSt20__throw_out_of_rangePKc
 4573              	.LVL351:
 4574              	.L306:
 4575              	.LBE2684:
 4576              	.LBE2685:
 4577              	.LBE2687:
 4578              	.LBE2689:
 4579              	.LBE2692:
 4580              	.LBE2695:
 4581              	.LBE2698:
 4582              	.LBE2753:
 4583              	.LBB2754:
 4584              	.LBB2718:
 4585              	.LBB2717:
 4586              	.LBB2716:
 4587              	.LBB2715:
 4588              	.LBB2713:
 4589              	.LBB2711:
 4590              	.LBB2710:
 4591 13f4 3C600000 		lis 3,.LC22@ha
 4592 13f8 38630090 		la 3,.LC22@l(3)
 4593 13fc 48000001 		bl _ZSt20__throw_out_of_rangePKc
 4594              	.LVL352:
 4595              	.LVL353:
 4596              	.LVL354:
 4597              	.LVL355:
 4598              	.LVL356:
 4599              	.LBE2710:
 4600              	.LBE2711:
 4601              	.LBE2713:
 4602              	.LBE2715:
 4603              	.LBE2716:
 4604              	.LBE2717:
 4605              	.LBE2718:
 4606              	.LBE2754:
 4607              		.cfi_endproc
 4608              	.LFE1589:
 4609              		.size	_ZN11GuiKeyboard17OnSpecialKeyPressEP9GuiButtoniRK6_POINT, .-_ZN11GuiKeyboard17OnSpecialKeyP
 4610              		.align 2
 4611              		.globl _ZN11GuiKeyboard14GetDisplayTextEv
 4612              		.type	_ZN11GuiKeyboard14GetDisplayTextEv, @function
 4613              	_ZN11GuiKeyboard14GetDisplayTextEv:
 4614              	.LFB1592:
 4615              		.loc 4 579 0
 4616              		.cfi_startproc
 4617              	.LVL357:
 4618 1400 7C0802A6 		mflr 0
 4619 1404 9421FFD8 		stwu 1,-40(1)
 4620              	.LCFI75:
 4621              		.cfi_def_cfa_offset 40
 4622              		.cfi_register 65, 0
 4623 1408 93810018 		stw 28,24(1)
 4624 140c 7C7C1B78 		mr 28,3
 4625              		.cfi_offset 28, -16
 4626              	.LVL358:
 4627 1410 9001002C 		stw 0,44(1)
 4628 1414 93410010 		stw 26,16(1)
 4629              	.LBB2791:
 4630              	.LBB2792:
 4631              	.LBB2793:
 4632              	.LBB2794:
 4633              	.LBB2795:
 4634              	.LBB2796:
 4635              		.loc 5 288 0
 4636 1418 806300D4 		lwz 3,212(3)
 4637              	.LVL359:
 4638              	.LBE2796:
 4639              	.LBE2795:
 4640              	.LBE2794:
 4641              	.LBE2793:
 4642              	.LBE2792:
 4643              	.LBE2791:
 4644              		.loc 4 579 0
 4645 141c 9321000C 		stw 25,12(1)
 4646              	.LBB2810:
 4647              	.LBB2798:
 4648              	.LBB2797:
 4649              		.loc 5 711 0
 4650 1420 8343FFF4 		lwz 26,-12(3)
 4651              		.cfi_offset 25, -28
 4652              		.cfi_offset 26, -24
 4653              		.cfi_offset 65, 4
 4654              	.LVL360:
 4655              	.LBE2797:
 4656              	.LBE2798:
 4657              	.LBE2810:
 4658              		.loc 4 579 0
 4659 1424 93610014 		stw 27,20(1)
 4660              	.LBB2811:
 4661              		.loc 4 582 0
 4662 1428 2F9A0027 		cmpwi 7,26,39
 4663              	.LBE2811:
 4664              		.loc 4 579 0
 4665 142c 93A1001C 		stw 29,28(1)
 4666 1430 93C10020 		stw 30,32(1)
 4667 1434 93E10024 		stw 31,36(1)
 4668              	.LBB2812:
 4669              		.loc 4 582 0
 4670 1438 409D0098 		ble- 7,.L309
 4671              		.cfi_offset 31, -4
 4672              		.cfi_offset 30, -8
 4673              		.cfi_offset 29, -12
 4674              		.cfi_offset 27, -20
 4675              	.LVL361:
 4676              		.loc 4 586 0
 4677 143c 833C00D0 		lwz 25,208(28)
 4678              	.LVL362:
 4679              	.LBB2799:
 4680              		.loc 4 585 0
 4681 1440 3BE00000 		li 31,0
 4682              		.loc 4 589 0
 4683 1444 7F9AC800 		cmpw 7,26,25
 4684 1448 409D0070 		ble- 7,.L310
 4685              	.LBB2800:
 4686              	.LBB2801:
 4687              		.loc 5 911 0
 4688 144c 7F99D040 		cmplw 7,25,26
 4689              	.LBE2801:
 4690              	.LBE2800:
 4691              		.loc 4 591 0
 4692 1450 3B7C00D4 		addi 27,28,212
 4693              	.LVL363:
 4694              	.LBB2807:
 4695              	.LBB2804:
 4696              		.loc 5 911 0
 4697 1454 409C0058 		bge- 7,.L313
 4698              		.loc 4 578 0
 4699 1458 7F7EDB78 		mr 30,27
 4700 145c 7F59D050 		subf 26,25,26
 4701 1460 7F3DCB78 		mr 29,25
 4702              	.LVL364:
 4703              	.L314:
 4704              	.LBB2802:
 4705              	.LBB2803:
 4706              		.loc 5 311 0
 4707 1464 8003FFFC 		lwz 0,-4(3)
 4708 1468 2F800000 		cmpwi 7,0,0
 4709 146c 419C0010 		blt- 7,.L312
 4710              		.loc 5 312 0
 4711 1470 7F63DB78 		mr 3,27
 4712 1474 48000001 		bl _ZNSbIwSt11char_traitsIwESaIwEE12_M_leak_hardEv
 4713 1478 807C00D4 		lwz 3,212(28)
 4714              	.L312:
 4715              	.LVL365:
 4716              	.LBE2803:
 4717              	.LBE2802:
 4718              	.LBE2804:
 4719              	.LBE2807:
 4720              		.loc 4 589 0
 4721 147c 2F9F0027 		cmpwi 7,31,39
 4722              		.loc 4 591 0
 4723 1480 57BD103A 		slwi 29,29,2
 4724              	.LVL366:
 4725 1484 7C03E82E 		lwzx 0,3,29
 4726              		.loc 4 589 0
 4727 1488 3BFF0001 		addi 31,31,1
 4728              	.LVL367:
 4729              		.loc 4 591 0
 4730 148c 941E0004 		stwu 0,4(30)
 4731              		.loc 4 589 0
 4732 1490 419E0028 		beq- 7,.L310
 4733              		.loc 4 589 0 is_stmt 0 discriminator 2
 4734 1494 7F9FD000 		cmpw 7,31,26
 4735 1498 419E0020 		beq- 7,.L310
 4736              	.LBB2808:
 4737              	.LBB2805:
 4738              		.loc 5 911 0 is_stmt 1 discriminator 5
 4739 149c 8003FFF4 		lwz 0,-12(3)
 4740              	.LBE2805:
 4741              	.LBE2808:
 4742              		.loc 4 578 0 discriminator 5
 4743 14a0 7FB9FA14 		add 29,25,31
 4744              	.LVL368:
 4745              	.LBB2809:
 4746              	.LBB2806:
 4747              		.loc 5 911 0 discriminator 5
 4748 14a4 7F80E840 		cmplw 7,0,29
 4749 14a8 419DFFBC 		bgt+ 7,.L314
 4750              	.LVL369:
 4751              	.L313:
 4752              		.loc 5 912 0
 4753 14ac 3C600000 		lis 3,.LC4@ha
 4754 14b0 38630000 		la 3,.LC4@l(3)
 4755 14b4 48000001 		bl _ZSt20__throw_out_of_rangePKc
 4756              	.L310:
 4757              	.LBE2806:
 4758              	.LBE2809:
 4759              	.LBE2799:
 4760              		.loc 4 595 0
 4761 14b8 393F0034 		addi 9,31,52
 4762 14bc 38000000 		li 0,0
 4763 14c0 5529103A 		slwi 9,9,2
 4764              		.loc 4 597 0
 4765 14c4 387C00D8 		addi 3,28,216
 4766              		.loc 4 595 0
 4767 14c8 7D3C4A14 		add 9,28,9
 4768 14cc 90090008 		stw 0,8(9)
 4769              	.LVL370:
 4770              	.L309:
 4771              	.LBE2812:
 4772              		.loc 4 598 0
 4773 14d0 8001002C 		lwz 0,44(1)
 4774 14d4 8321000C 		lwz 25,12(1)
 4775 14d8 7C0803A6 		mtlr 0
 4776 14dc 83410010 		lwz 26,16(1)
 4777 14e0 83610014 		lwz 27,20(1)
 4778 14e4 83810018 		lwz 28,24(1)
 4779              	.LVL371:
 4780 14e8 83A1001C 		lwz 29,28(1)
 4781 14ec 83C10020 		lwz 30,32(1)
 4782 14f0 83E10024 		lwz 31,36(1)
 4783 14f4 38210028 		addi 1,1,40
 4784              	.LCFI76:
 4785              		.cfi_def_cfa_offset 0
 4786              		.cfi_restore 31
 4787              		.cfi_restore 30
 4788              		.cfi_restore 29
 4789              		.cfi_restore 28
 4790              		.cfi_restore 27
 4791              		.cfi_restore 26
 4792              		.cfi_restore 25
 4793 14f8 4E800020 		blr
 4794              		.cfi_endproc
 4795              	.LFE1592:
 4796              		.size	_ZN11GuiKeyboard14GetDisplayTextEv, .-_ZN11GuiKeyboard14GetDisplayTextEv
 4797              		.section	.text._ZNSt8_Rb_treeIPN7sigslot12_signal_baseINS0_15single_threadedEEES4_St9_IdentityIS4_
 4798              		.align 2
 4799              		.weak	_ZNSt8_Rb_treeIPN7sigslot12_signal_baseINS0_15single_threadedEEES4_St9_IdentityIS4_ESt4lessI
 4800              		.type	_ZNSt8_Rb_treeIPN7sigslot12_signal_baseINS0_15single_threadedEEES4_St9_IdentityIS4_ESt4lessI
 4801              	_ZNSt8_Rb_treeIPN7sigslot12_signal_baseINS0_15single_threadedEEES4_St9_IdentityIS4_ESt4lessIS4_ESaI
 4802              	.LFB1764:
 4803              		.file 6 "d:\\devkitpro\\devkitppc\\bin\\../lib/gcc/powerpc-eabi/4.6.3/../../../../powerpc-eabi/inc
 4804              		.loc 6 1068 0
 4805              		.cfi_startproc
 4806              	.LVL372:
 4807 0000 9421FFC8 		stwu 1,-56(1)
 4808              	.LCFI77:
 4809              		.cfi_def_cfa_offset 56
 4810 0004 7C0802A6 		mflr 0
 4811 0008 92C10010 		stw 22,16(1)
 4812              	.LBB2929:
 4813              		.loc 6 1072 0
 4814 000c 7C962379 		mr. 22,4
 4815              		.cfi_offset 22, -40
 4816              		.cfi_register 65, 0
 4817              	.LBE2929:
 4818              		.loc 6 1068 0
 4819 0010 93C10030 		stw 30,48(1)
 4820 0014 7C7E1B78 		mr 30,3
 4821              		.cfi_offset 30, -8
 4822 0018 9001003C 		stw 0,60(1)
 4823 001c 92A1000C 		stw 21,12(1)
 4824 0020 92E10014 		stw 23,20(1)
 4825 0024 93010018 		stw 24,24(1)
 4826 0028 9321001C 		stw 25,28(1)
 4827 002c 93410020 		stw 26,32(1)
 4828 0030 93610024 		stw 27,36(1)
 4829 0034 93810028 		stw 28,40(1)
 4830 0038 93A1002C 		stw 29,44(1)
 4831 003c 93E10034 		stw 31,52(1)
 4832              	.LBB3014:
 4833              		.loc 6 1072 0
 4834 0040 41820168 		beq- 0,.L316
 4835              		.cfi_offset 31, -4
 4836              		.cfi_offset 29, -12
 4837              		.cfi_offset 28, -16
 4838              		.cfi_offset 27, -20
 4839              		.cfi_offset 26, -24
 4840              		.cfi_offset 25, -28
 4841              		.cfi_offset 24, -32
 4842              		.cfi_offset 23, -36
 4843              		.cfi_offset 21, -44
 4844              		.cfi_offset 65, 4
 4845              	.LVL373:
 4846              	.L362:
 4847              		.loc 4 598 0
 4848 0044 8376000C 		lwz 27,12(22)
 4849              	.LVL374:
 4850              	.LBB2930:
 4851              	.LBB2931:
 4852              	.LBB2932:
 4853              		.loc 6 1072 0
 4854 0048 2F9B0000 		cmpwi 7,27,0
 4855 004c 419E0140 		beq- 7,.L318
 4856              	.LVL375:
 4857              	.L363:
 4858              	.LBE2932:
 4859              		.loc 4 598 0
 4860 0050 835B000C 		lwz 26,12(27)
 4861              	.LVL376:
 4862              	.LBB3008:
 4863              	.LBB2933:
 4864              	.LBB2934:
 4865              	.LBB2935:
 4866              		.loc 6 1072 0
 4867 0054 2F9A0000 		cmpwi 7,26,0
 4868 0058 419E0118 		beq- 7,.L319
 4869              	.LVL377:
 4870              	.L364:
 4871              	.LBE2935:
 4872              		.loc 4 598 0
 4873 005c 833A000C 		lwz 25,12(26)
 4874              	.LVL378:
 4875              	.LBB3001:
 4876              	.LBB2936:
 4877              	.LBB2937:
 4878              	.LBB2938:
 4879              		.loc 6 1072 0
 4880 0060 2F990000 		cmpwi 7,25,0
 4881 0064 419E00F0 		beq- 7,.L320
 4882              	.LVL379:
 4883              	.L365:
 4884              	.LBE2938:
 4885              		.loc 4 598 0
 4886 0068 8319000C 		lwz 24,12(25)
 4887              	.LVL380:
 4888              	.LBB2994:
 4889              	.LBB2939:
 4890              	.LBB2940:
 4891              	.LBB2941:
 4892              		.loc 6 1072 0
 4893 006c 2F980000 		cmpwi 7,24,0
 4894 0070 419E00C8 		beq- 7,.L321
 4895              	.LVL381:
 4896              	.L366:
 4897              	.LBE2941:
 4898              		.loc 4 598 0
 4899 0074 82F8000C 		lwz 23,12(24)
 4900              	.LVL382:
 4901              	.LBB2987:
 4902              	.LBB2942:
 4903              	.LBB2943:
 4904              	.LBB2944:
 4905              		.loc 6 1072 0
 4906 0078 2F970000 		cmpwi 7,23,0
 4907 007c 419E00A0 		beq- 7,.L322
 4908              	.LVL383:
 4909              	.L367:
 4910              	.LBE2944:
 4911              		.loc 4 598 0
 4912 0080 8397000C 		lwz 28,12(23)
 4913              	.LVL384:
 4914              	.LBB2980:
 4915              	.LBB2945:
 4916              	.LBB2946:
 4917              	.LBB2947:
 4918              		.loc 6 1072 0
 4919 0084 2F9C0000 		cmpwi 7,28,0
 4920 0088 419E0078 		beq- 7,.L323
 4921              	.LVL385:
 4922              	.L368:
 4923              	.LBE2947:
 4924              		.loc 4 598 0
 4925 008c 83BC000C 		lwz 29,12(28)
 4926              	.LVL386:
 4927              	.LBB2973:
 4928              	.LBB2948:
 4929              	.LBB2949:
 4930              	.LBB2950:
 4931              		.loc 6 1072 0
 4932 0090 2F9D0000 		cmpwi 7,29,0
 4933 0094 419E0050 		beq- 7,.L324
 4934              	.LVL387:
 4935              	.L369:
 4936              	.LBE2950:
 4937              		.loc 4 598 0
 4938 0098 83FD000C 		lwz 31,12(29)
 4939              	.LVL388:
 4940              	.LBB2966:
 4941              	.LBB2951:
 4942              	.LBB2952:
 4943              	.LBB2953:
 4944              		.loc 6 1072 0
 4945 009c 2F9F0000 		cmpwi 7,31,0
 4946 00a0 419E0028 		beq- 7,.L325
 4947              	.LVL389:
 4948              	.L370:
 4949              	.LBB2954:
 4950              		.loc 6 1074 0
 4951 00a4 809F000C 		lwz 4,12(31)
 4952 00a8 7FC3F378 		mr 3,30
 4953 00ac 48000001 		bl _ZNSt8_Rb_treeIPN7sigslot12_signal_baseINS0_15single_threadedEEES4_St9_IdentityIS4_ESt4lessIS4_
 4954              	.LBE2954:
 4955              	.LBE2953:
 4956              		.loc 4 598 0
 4957 00b0 82BF0008 		lwz 21,8(31)
 4958              	.LVL390:
 4959              	.LBB2960:
 4960              	.LBB2959:
 4961              	.LBB2955:
 4962              	.LBB2956:
 4963              	.LBB2957:
 4964              	.LBB2958:
 4965              		.file 7 "d:\\devkitpro\\devkitppc\\bin\\../lib/gcc/powerpc-eabi/4.6.3/../../../../powerpc-eabi/inc
 4966              		.loc 7 98 0
 4967 00b4 7FE3FB78 		mr 3,31
 4968 00b8 48000001 		bl _ZdlPv
 4969              	.LVL391:
 4970              	.LBE2958:
 4971              	.LBE2957:
 4972              	.LBE2956:
 4973              	.LBE2955:
 4974              	.LBE2959:
 4975              		.loc 6 1072 0
 4976 00bc 2F950000 		cmpwi 7,21,0
 4977              		.loc 6 1077 0
 4978 00c0 7EBFAB78 		mr 31,21
 4979              	.LVL392:
 4980              		.loc 6 1072 0
 4981 00c4 409EFFE0 		bne+ 7,.L370
 4982              	.LVL393:
 4983              	.L325:
 4984              	.LBE2960:
 4985              	.LBE2952:
 4986              	.LBE2951:
 4987              	.LBE2966:
 4988              		.loc 4 598 0
 4989 00c8 83FD0008 		lwz 31,8(29)
 4990              	.LVL394:
 4991              	.LBB2967:
 4992              	.LBB2965:
 4993              	.LBB2961:
 4994              	.LBB2962:
 4995              	.LBB2963:
 4996              	.LBB2964:
 4997              		.loc 7 98 0
 4998 00cc 7FA3EB78 		mr 3,29
 4999 00d0 48000001 		bl _ZdlPv
 5000              	.LVL395:
 5001              	.LBE2964:
 5002              	.LBE2963:
 5003              	.LBE2962:
 5004              	.LBE2961:
 5005              	.LBE2965:
 5006              		.loc 6 1072 0
 5007 00d4 2F9F0000 		cmpwi 7,31,0
 5008 00d8 419E000C 		beq- 7,.L324
 5009              		.loc 6 1077 0
 5010 00dc 7FFDFB78 		mr 29,31
 5011              	.LVL396:
 5012 00e0 4BFFFFB8 		b .L369
 5013              	.LVL397:
 5014              	.L324:
 5015              	.LBE2967:
 5016              	.LBE2949:
 5017              	.LBE2948:
 5018              	.LBE2973:
 5019              		.loc 4 598 0
 5020 00e4 83FC0008 		lwz 31,8(28)
 5021              	.LVL398:
 5022              	.LBB2974:
 5023              	.LBB2972:
 5024              	.LBB2968:
 5025              	.LBB2969:
 5026              	.LBB2970:
 5027              	.LBB2971:
 5028              		.loc 7 98 0
 5029 00e8 7F83E378 		mr 3,28
 5030 00ec 48000001 		bl _ZdlPv
 5031              	.LVL399:
 5032              	.LBE2971:
 5033              	.LBE2970:
 5034              	.LBE2969:
 5035              	.LBE2968:
 5036              	.LBE2972:
 5037              		.loc 6 1072 0
 5038 00f0 2F9F0000 		cmpwi 7,31,0
 5039 00f4 419E000C 		beq- 7,.L323
 5040              		.loc 6 1077 0
 5041 00f8 7FFCFB78 		mr 28,31
 5042              	.LVL400:
 5043 00fc 4BFFFF90 		b .L368
 5044              	.LVL401:
 5045              	.L323:
 5046              	.LBE2974:
 5047              	.LBE2946:
 5048              	.LBE2945:
 5049              	.LBE2980:
 5050              		.loc 4 598 0
 5051 0100 83F70008 		lwz 31,8(23)
 5052              	.LVL402:
 5053              	.LBB2981:
 5054              	.LBB2979:
 5055              	.LBB2975:
 5056              	.LBB2976:
 5057              	.LBB2977:
 5058              	.LBB2978:
 5059              		.loc 7 98 0
 5060 0104 7EE3BB78 		mr 3,23
 5061 0108 48000001 		bl _ZdlPv
 5062              	.LVL403:
 5063              	.LBE2978:
 5064              	.LBE2977:
 5065              	.LBE2976:
 5066              	.LBE2975:
 5067              	.LBE2979:
 5068              		.loc 6 1072 0
 5069 010c 2F9F0000 		cmpwi 7,31,0
 5070 0110 419E000C 		beq- 7,.L322
 5071              		.loc 6 1077 0
 5072 0114 7FF7FB78 		mr 23,31
 5073              	.LVL404:
 5074 0118 4BFFFF68 		b .L367
 5075              	.LVL405:
 5076              	.L322:
 5077              	.LBE2981:
 5078              	.LBE2943:
 5079              	.LBE2942:
 5080              	.LBE2987:
 5081              		.loc 4 598 0
 5082 011c 83F80008 		lwz 31,8(24)
 5083              	.LVL406:
 5084              	.LBB2988:
 5085              	.LBB2986:
 5086              	.LBB2982:
 5087              	.LBB2983:
 5088              	.LBB2984:
 5089              	.LBB2985:
 5090              		.loc 7 98 0
 5091 0120 7F03C378 		mr 3,24
 5092 0124 48000001 		bl _ZdlPv
 5093              	.LVL407:
 5094              	.LBE2985:
 5095              	.LBE2984:
 5096              	.LBE2983:
 5097              	.LBE2982:
 5098              	.LBE2986:
 5099              		.loc 6 1072 0
 5100 0128 2F9F0000 		cmpwi 7,31,0
 5101 012c 419E000C 		beq- 7,.L321
 5102              		.loc 6 1077 0
 5103 0130 7FF8FB78 		mr 24,31
 5104              	.LVL408:
 5105 0134 4BFFFF40 		b .L366
 5106              	.LVL409:
 5107              	.L321:
 5108              	.LBE2988:
 5109              	.LBE2940:
 5110              	.LBE2939:
 5111              	.LBE2994:
 5112              		.loc 4 598 0
 5113 0138 83F90008 		lwz 31,8(25)
 5114              	.LVL410:
 5115              	.LBB2995:
 5116              	.LBB2993:
 5117              	.LBB2989:
 5118              	.LBB2990:
 5119              	.LBB2991:
 5120              	.LBB2992:
 5121              		.loc 7 98 0
 5122 013c 7F23CB78 		mr 3,25
 5123 0140 48000001 		bl _ZdlPv
 5124              	.LVL411:
 5125              	.LBE2992:
 5126              	.LBE2991:
 5127              	.LBE2990:
 5128              	.LBE2989:
 5129              	.LBE2993:
 5130              		.loc 6 1072 0
 5131 0144 2F9F0000 		cmpwi 7,31,0
 5132 0148 419E000C 		beq- 7,.L320
 5133              		.loc 6 1077 0
 5134 014c 7FF9FB78 		mr 25,31
 5135              	.LVL412:
 5136 0150 4BFFFF18 		b .L365
 5137              	.LVL413:
 5138              	.L320:
 5139              	.LBE2995:
 5140              	.LBE2937:
 5141              	.LBE2936:
 5142              	.LBE3001:
 5143              		.loc 4 598 0
 5144 0154 83FA0008 		lwz 31,8(26)
 5145              	.LVL414:
 5146              	.LBB3002:
 5147              	.LBB3000:
 5148              	.LBB2996:
 5149              	.LBB2997:
 5150              	.LBB2998:
 5151              	.LBB2999:
 5152              		.loc 7 98 0
 5153 0158 7F43D378 		mr 3,26
 5154 015c 48000001 		bl _ZdlPv
 5155              	.LVL415:
 5156              	.LBE2999:
 5157              	.LBE2998:
 5158              	.LBE2997:
 5159              	.LBE2996:
 5160              	.LBE3000:
 5161              		.loc 6 1072 0
 5162 0160 2F9F0000 		cmpwi 7,31,0
 5163 0164 419E000C 		beq- 7,.L319
 5164              		.loc 6 1077 0
 5165 0168 7FFAFB78 		mr 26,31
 5166              	.LVL416:
 5167 016c 4BFFFEF0 		b .L364
 5168              	.LVL417:
 5169              	.L319:
 5170              	.LBE3002:
 5171              	.LBE2934:
 5172              	.LBE2933:
 5173              	.LBE3008:
 5174              		.loc 4 598 0
 5175 0170 83FB0008 		lwz 31,8(27)
 5176              	.LVL418:
 5177              	.LBB3009:
 5178              	.LBB3007:
 5179              	.LBB3003:
 5180              	.LBB3004:
 5181              	.LBB3005:
 5182              	.LBB3006:
 5183              		.loc 7 98 0
 5184 0174 7F63DB78 		mr 3,27
 5185 0178 48000001 		bl _ZdlPv
 5186              	.LVL419:
 5187              	.LBE3006:
 5188              	.LBE3005:
 5189              	.LBE3004:
 5190              	.LBE3003:
 5191              	.LBE3007:
 5192              		.loc 6 1072 0
 5193 017c 2F9F0000 		cmpwi 7,31,0
 5194 0180 419E000C 		beq- 7,.L318
 5195              		.loc 6 1077 0
 5196 0184 7FFBFB78 		mr 27,31
 5197              	.LVL420:
 5198 0188 4BFFFEC8 		b .L363
 5199              	.LVL421:
 5200              	.L318:
 5201              		.loc 4 598 0
 5202 018c 83F60008 		lwz 31,8(22)
 5203              	.LVL422:
 5204              	.LBE3009:
 5205              	.LBE2931:
 5206              	.LBB3010:
 5207              	.LBB3011:
 5208              	.LBB3012:
 5209              	.LBB3013:
 5210              		.loc 7 98 0
 5211 0190 7EC3B378 		mr 3,22
 5212 0194 48000001 		bl _ZdlPv
 5213              	.LVL423:
 5214              	.LBE3013:
 5215              	.LBE3012:
 5216              	.LBE3011:
 5217              	.LBE3010:
 5218              	.LBE2930:
 5219              		.loc 6 1072 0
 5220 0198 2F9F0000 		cmpwi 7,31,0
 5221 019c 419E000C 		beq- 7,.L316
 5222              		.loc 6 1077 0
 5223 01a0 7FF6FB78 		mr 22,31
 5224              	.LVL424:
 5225 01a4 4BFFFEA0 		b .L362
 5226              	.LVL425:
 5227              	.L316:
 5228              	.LBE3014:
 5229              		.loc 6 1079 0
 5230 01a8 8001003C 		lwz 0,60(1)
 5231 01ac 82A1000C 		lwz 21,12(1)
 5232 01b0 7C0803A6 		mtlr 0
 5233 01b4 82C10010 		lwz 22,16(1)
 5234 01b8 82E10014 		lwz 23,20(1)
 5235 01bc 83010018 		lwz 24,24(1)
 5236 01c0 8321001C 		lwz 25,28(1)
 5237 01c4 83410020 		lwz 26,32(1)
 5238 01c8 83610024 		lwz 27,36(1)
 5239 01cc 83810028 		lwz 28,40(1)
 5240 01d0 83A1002C 		lwz 29,44(1)
 5241 01d4 83C10030 		lwz 30,48(1)
 5242              	.LVL426:
 5243 01d8 83E10034 		lwz 31,52(1)
 5244 01dc 38210038 		addi 1,1,56
 5245              	.LCFI78:
 5246              		.cfi_def_cfa_offset 0
 5247              		.cfi_restore 31
 5248              		.cfi_restore 30
 5249              		.cfi_restore 29
 5250              		.cfi_restore 28
 5251              		.cfi_restore 27
 5252              		.cfi_restore 26
 5253              		.cfi_restore 25
 5254              		.cfi_restore 24
 5255              		.cfi_restore 23
 5256              		.cfi_restore 22
 5257              		.cfi_restore 21
 5258 01e0 4E800020 		blr
 5259              		.cfi_endproc
 5260              	.LFE1764:
 5261              		.size	_ZNSt8_Rb_treeIPN7sigslot12_signal_baseINS0_15single_threadedEEES4_St9_IdentityIS4_ESt4lessI
 5262              		.section	.text._ZN7sigslot9has_slotsINS_15single_threadedEED2Ev,"axG",@progbits,_ZN7sigslot9has_sl
 5263              		.align 2
 5264              		.weak	_ZN7sigslot9has_slotsINS_15single_threadedEED2Ev
 5265              		.type	_ZN7sigslot9has_slotsINS_15single_threadedEED2Ev, @function
 5266              	_ZN7sigslot9has_slotsINS_15single_threadedEED2Ev:
 5267              	.LFB1629:
 5268              		.loc 1 513 0
 5269              		.cfi_startproc
 5270              		.cfi_personality 0,__gxx_personality_v0
 5271              		.cfi_lsda 0,.LLSDA1629
 5272              	.LVL427:
 5273 0000 7C0802A6 		mflr 0
 5274 0004 9421FFE0 		stwu 1,-32(1)
 5275              	.LCFI79:
 5276              		.cfi_def_cfa_offset 32
 5277              		.cfi_register 65, 0
 5278              	.LBB3161:
 5279              		.loc 1 516 0
 5280 0008 3D200000 		lis 9,_ZTVN7sigslot9has_slotsINS_15single_threadedEEE+8@ha
 5281              	.LBE3161:
 5282              		.loc 1 513 0
 5283 000c 93810010 		stw 28,16(1)
 5284 0010 3B830004 		addi 28,3,4
 5285              		.cfi_offset 28, -16
 5286 0014 90010024 		stw 0,36(1)
 5287              	.LBB3237:
 5288              		.loc 1 516 0
 5289 0018 38090008 		la 0,_ZTVN7sigslot9has_slotsINS_15single_threadedEEE+8@l(9)
 5290              		.cfi_offset 65, 4
 5291              	.LBE3237:
 5292              		.loc 1 513 0
 5293 001c 93A10014 		stw 29,20(1)
 5294 0020 7C7D1B78 		mr 29,3
 5295              		.cfi_offset 29, -12
 5296 0024 93410008 		stw 26,8(1)
 5297 0028 9361000C 		stw 27,12(1)
 5298 002c 93C10018 		stw 30,24(1)
 5299 0030 93E1001C 		stw 31,28(1)
 5300              	.LBB3238:
 5301              		.loc 1 516 0
 5302 0034 90030000 		stw 0,0(3)
 5303              	.LVL428:
 5304              	.LEHB0:
 5305              	.LBB3162:
 5306              	.LBB3163:
 5307              	.LBB3164:
 5308              	.LBB3165:
 5309              		.loc 1 338 0
 5310              		.cfi_offset 31, -4
 5311              		.cfi_offset 30, -8
 5312              		.cfi_offset 27, -20
 5313              		.cfi_offset 26, -24
 5314 0038 48000001 		bl _ZN7sigslot15single_threaded4lockEv
 5315              	.LEHE0:
 5316              	.LVL429:
 5317              	.LBE3165:
 5318              	.LBE3164:
 5319              	.LBB3166:
 5320              		.loc 4 598 0
 5321 003c 83FD0010 		lwz 31,16(29)
 5322              	.LVL430:
 5323              	.LBE3166:
 5324              	.LBB3167:
 5325              	.LBB3168:
 5326              	.LBB3169:
 5327              		.loc 6 671 0
 5328 0040 3BDC0004 		addi 30,28,4
 5329              	.LVL431:
 5330              	.LBE3169:
 5331              	.LBE3168:
 5332              	.LBE3167:
 5333              		.loc 1 524 0
 5334 0044 7F9FF000 		cmpw 7,31,30
 5335 0048 419E0034 		beq- 7,.L372
 5336              	.LVL432:
 5337              	.L399:
 5338              		.loc 1 526 0
 5339 004c 807F0010 		lwz 3,16(31)
 5340 0050 7FA4EB78 		mr 4,29
 5341 0054 81230000 		lwz 9,0(3)
 5342 0058 80090010 		lwz 0,16(9)
 5343 005c 7C0903A6 		mtctr 0
 5344              	.LEHB1:
 5345 0060 4E800421 		bctrl
 5346              	.LEHE1:
 5347              	.LVL433:
 5348              	.LBB3170:
 5349              	.LBB3171:
 5350              		.loc 6 269 0
 5351 0064 7FE3FB78 		mr 3,31
 5352 0068 48000001 		bl _ZSt18_Rb_tree_incrementPKSt18_Rb_tree_node_base
 5353              	.LBE3171:
 5354              	.LBE3170:
 5355              		.loc 1 524 0
 5356 006c 7F9E1800 		cmpw 7,30,3
 5357              	.LBB3173:
 5358              	.LBB3172:
 5359              		.loc 6 269 0
 5360 0070 7C7F1B78 		mr 31,3
 5361              	.LVL434:
 5362              	.LBE3172:
 5363              	.LBE3173:
 5364              		.loc 1 524 0
 5365 0074 409EFFD8 		bne+ 7,.L399
 5366 0078 83FD0010 		lwz 31,16(29)
 5367              	.LVL435:
 5368              	.L372:
 5369              	.LBB3174:
 5370              	.LBB3175:
 5371              	.LBB3176:
 5372              	.LBB3177:
 5373              	.LBB3178:
 5374              	.LBB3179:
 5375              	.LBB3180:
 5376              		.loc 6 665 0
 5377 007c 3B5C0004 		addi 26,28,4
 5378              	.LBE3180:
 5379              	.LBE3179:
 5380              		.loc 6 1500 0
 5381 0080 7F9ED000 		cmpw 7,30,26
 5382 0084 419E0098 		beq- 7,.L374
 5383              	.LVL436:
 5384              		.loc 6 1503 0
 5385 0088 7F9EF800 		cmpw 7,30,31
 5386 008c 40BE000C 		bne+ 7,.L401
 5387 0090 48000038 		b .L375
 5388              	.LVL437:
 5389              	.L396:
 5390              		.loc 6 277 0
 5391 0094 7F7FDB78 		mr 31,27
 5392              	.LVL438:
 5393              	.L401:
 5394              	.LBB3181:
 5395              	.LBB3182:
 5396 0098 7FE3FB78 		mr 3,31
 5397 009c 48000001 		bl _ZSt18_Rb_tree_incrementPKSt18_Rb_tree_node_base
 5398              	.LBE3182:
 5399              	.LBE3181:
 5400              	.LBB3184:
 5401              	.LBB3185:
 5402              	.LBB3186:
 5403              		.loc 6 1489 0
 5404 00a0 7F44D378 		mr 4,26
 5405              	.LBE3186:
 5406              	.LBE3185:
 5407              	.LBE3184:
 5408              	.LBB3195:
 5409              	.LBB3183:
 5410              		.loc 6 277 0
 5411 00a4 7C7B1B78 		mr 27,3
 5412              	.LVL439:
 5413              	.LBE3183:
 5414              	.LBE3195:
 5415              	.LBB3196:
 5416              	.LBB3193:
 5417              	.LBB3191:
 5418              		.loc 6 1489 0
 5419 00a8 7FE3FB78 		mr 3,31
 5420              	.LVL440:
 5421 00ac 48000001 		bl _ZSt28_Rb_tree_rebalance_for_erasePSt18_Rb_tree_node_baseRS_
 5422              	.LBB3187:
 5423              	.LBB3188:
 5424              	.LBB3189:
 5425              	.LBB3190:
 5426              		.loc 7 98 0
 5427 00b0 48000001 		bl _ZdlPv
 5428              	.LBE3190:
 5429              	.LBE3189:
 5430              	.LBE3188:
 5431              	.LBE3187:
 5432              	.LBE3191:
 5433              	.LBE3193:
 5434              	.LBE3196:
 5435              		.loc 6 1503 0
 5436 00b4 7F9ED800 		cmpw 7,30,27
 5437              	.LBB3197:
 5438              	.LBB3194:
 5439              	.LBB3192:
 5440              		.loc 6 1491 0
 5441 00b8 813C0014 		lwz 9,20(28)
 5442 00bc 3809FFFF 		addi 0,9,-1
 5443 00c0 901C0014 		stw 0,20(28)
 5444              	.LBE3192:
 5445              	.LBE3194:
 5446              	.LBE3197:
 5447              		.loc 6 1503 0
 5448 00c4 409EFFD0 		bne+ 7,.L396
 5449              	.LVL441:
 5450              	.L375:
 5451              	.LBE3178:
 5452              	.LBE3177:
 5453              	.LBE3176:
 5454              	.LBE3175:
 5455              	.LBE3174:
 5456              	.LBB3206:
 5457              	.LBB3207:
 5458              	.LBB3208:
 5459              		.loc 1 343 0
 5460 00c8 813D0000 		lwz 9,0(29)
 5461 00cc 7FA3EB78 		mr 3,29
 5462 00d0 8009000C 		lwz 0,12(9)
 5463 00d4 7C0903A6 		mtctr 0
 5464              	.LEHB2:
 5465 00d8 4E800421 		bctrl
 5466              	.LEHE2:
 5467              	.LVL442:
 5468              	.LBE3208:
 5469              	.LBE3207:
 5470              	.LBE3206:
 5471              	.LBE3163:
 5472              	.LBE3162:
 5473              	.LBB3215:
 5474              	.LBB3216:
 5475              	.LBB3217:
 5476              	.LBB3218:
 5477              	.LBB3219:
 5478              		.loc 6 639 0
 5479 00dc 809D000C 		lwz 4,12(29)
 5480 00e0 7F83E378 		mr 3,28
 5481 00e4 48000001 		bl _ZNSt8_Rb_treeIPN7sigslot12_signal_baseINS0_15single_threadedEEES4_St9_IdentityIS4_ESt4lessIS4_
 5482              	.LVL443:
 5483              	.LBE3219:
 5484              	.LBE3218:
 5485              	.LBE3217:
 5486              	.LBE3216:
 5487              	.LBE3215:
 5488              	.LBB3220:
 5489              	.LBB3221:
 5490              	.LBB3222:
 5491              		.loc 1 105 0
 5492 00e8 3D200000 		lis 9,_ZTVN7sigslot15single_threadedE+8@ha
 5493 00ec 38090008 		la 0,_ZTVN7sigslot15single_threadedE+8@l(9)
 5494              	.LBE3222:
 5495              	.LBE3221:
 5496              	.LBE3220:
 5497              	.LBE3238:
 5498              		.loc 1 516 0
 5499 00f0 83410008 		lwz 26,8(1)
 5500              	.LBB3239:
 5501              	.LBB3225:
 5502              	.LBB3224:
 5503              	.LBB3223:
 5504              		.loc 1 105 0
 5505 00f4 901D0000 		stw 0,0(29)
 5506              	.LBE3223:
 5507              	.LBE3224:
 5508              	.LBE3225:
 5509              	.LBE3239:
 5510              		.loc 1 516 0
 5511 00f8 80010024 		lwz 0,36(1)
 5512 00fc 8361000C 		lwz 27,12(1)
 5513 0100 7C0803A6 		mtlr 0
 5514 0104 83810010 		lwz 28,16(1)
 5515              	.LVL444:
 5516 0108 83A10014 		lwz 29,20(1)
 5517              	.LVL445:
 5518 010c 83C10018 		lwz 30,24(1)
 5519              	.LVL446:
 5520 0110 83E1001C 		lwz 31,28(1)
 5521 0114 38210020 		addi 1,1,32
 5522              		.cfi_remember_state
 5523              	.LCFI80:
 5524              		.cfi_def_cfa_offset 0
 5525              		.cfi_restore 31
 5526              		.cfi_restore 30
 5527              		.cfi_restore 29
 5528              		.cfi_restore 28
 5529              		.cfi_restore 27
 5530              		.cfi_restore 26
 5531 0118 4E800020 		blr
 5532              	.LVL447:
 5533              	.L374:
 5534              	.LCFI81:
 5535              		.cfi_restore_state
 5536              	.LBB3240:
 5537              	.LBB3226:
 5538              	.LBB3213:
 5539              	.LBB3209:
 5540              	.LBB3205:
 5541              	.LBB3204:
 5542              	.LBB3203:
 5543              	.LBB3202:
 5544              	.LBB3198:
 5545              	.LBB3199:
 5546              	.LBB3200:
 5547              	.LBB3201:
 5548              		.loc 6 809 0
 5549 011c 809D000C 		lwz 4,12(29)
 5550 0120 7F83E378 		mr 3,28
 5551 0124 48000001 		bl _ZNSt8_Rb_treeIPN7sigslot12_signal_baseINS0_15single_threadedEEES4_St9_IdentityIS4_ESt4lessIS4_
 5552              	.LVL448:
 5553              		.loc 6 811 0
 5554 0128 38000000 		li 0,0
 5555              		.loc 6 810 0
 5556 012c 93DD0010 		stw 30,16(29)
 5557              	.LVL449:
 5558              		.loc 6 811 0
 5559 0130 901D000C 		stw 0,12(29)
 5560              	.LVL450:
 5561              		.loc 6 812 0
 5562 0134 93DD0014 		stw 30,20(29)
 5563              		.loc 6 813 0
 5564 0138 901D0018 		stw 0,24(29)
 5565 013c 4BFFFF8C 		b .L375
 5566              	.LVL451:
 5567              	.L397:
 5568 0140 7C7F1B78 		mr 31,3
 5569              	.L382:
 5570              	.LVL452:
 5571              	.LBE3201:
 5572              	.LBE3200:
 5573              	.LBE3199:
 5574              	.LBE3198:
 5575              	.LBE3202:
 5576              	.LBE3203:
 5577              	.LBE3204:
 5578              	.LBE3205:
 5579              	.LBE3209:
 5580              	.LBE3213:
 5581              	.LBE3226:
 5582              	.LBB3227:
 5583              	.LBB3228:
 5584              	.LBB3229:
 5585              	.LBB3230:
 5586              	.LBB3231:
 5587              	.LBB3232:
 5588              		.loc 6 639 0
 5589 0144 809D000C 		lwz 4,12(29)
 5590 0148 7F83E378 		mr 3,28
 5591 014c 48000001 		bl _ZNSt8_Rb_treeIPN7sigslot12_signal_baseINS0_15single_threadedEEES4_St9_IdentityIS4_ESt4lessIS4_
 5592              	.LVL453:
 5593              	.LBE3232:
 5594              	.LBE3231:
 5595              	.LBE3230:
 5596              	.LBE3229:
 5597              	.LBE3228:
 5598              	.LBE3227:
 5599              	.LBB3233:
 5600              	.LBB3234:
 5601              	.LBB3235:
 5602              		.loc 1 105 0
 5603 0150 3D200000 		lis 9,_ZTVN7sigslot15single_threadedE+8@ha
 5604 0154 38090008 		la 0,_ZTVN7sigslot15single_threadedE+8@l(9)
 5605 0158 7FE3FB78 		mr 3,31
 5606 015c 901D0000 		stw 0,0(29)
 5607              	.LEHB3:
 5608 0160 48000001 		bl _Unwind_Resume
 5609              	.LEHE3:
 5610              	.LVL454:
 5611              	.L398:
 5612              	.LBE3235:
 5613              	.LBE3234:
 5614              	.LBE3233:
 5615              	.LBB3236:
 5616              	.LBB3214:
 5617              	.LBB3210:
 5618              	.LBB3211:
 5619              	.LBB3212:
 5620              		.loc 1 343 0
 5621 0164 813D0000 		lwz 9,0(29)
 5622 0168 7C7F1B78 		mr 31,3
 5623              	.LVL455:
 5624 016c 7FA3EB78 		mr 3,29
 5625 0170 8009000C 		lwz 0,12(9)
 5626 0174 7C0903A6 		mtctr 0
 5627 0178 4E800421 		bctrl
 5628 017c 4BFFFFC8 		b .L382
 5629              	.LBE3212:
 5630              	.LBE3211:
 5631              	.LBE3210:
 5632              	.LBE3214:
 5633              	.LBE3236:
 5634              	.LBE3240:
 5635              		.cfi_endproc
 5636              	.LFE1629:
 5637              		.globl __gxx_personality_v0
 5638              		.section	.gcc_except_table,"a",@progbits
 5639              	.LLSDA1629:
 5640 0000 FF       		.byte	0xff
 5641 0001 FF       		.byte	0xff
 5642 0002 01       		.byte	0x1
 5643 0003 15       		.uleb128 .LLSDACSE1629-.LLSDACSB1629
 5644              	.LLSDACSB1629:
 5645 0004 38       		.uleb128 .LEHB0-.LFB1629
 5646 0005 04       		.uleb128 .LEHE0-.LEHB0
 5647 0006 C002     		.uleb128 .L397-.LFB1629
 5648 0008 00       		.uleb128 0
 5649 0009 60       		.uleb128 .LEHB1-.LFB1629
 5650 000a 04       		.uleb128 .LEHE1-.LEHB1
 5651 000b E402     		.uleb128 .L398-.LFB1629
 5652 000d 00       		.uleb128 0
 5653 000e D801     		.uleb128 .LEHB2-.LFB1629
 5654 0010 04       		.uleb128 .LEHE2-.LEHB2
 5655 0011 C002     		.uleb128 .L397-.LFB1629
 5656 0013 00       		.uleb128 0
 5657 0014 E002     		.uleb128 .LEHB3-.LFB1629
 5658 0016 04       		.uleb128 .LEHE3-.LEHB3
 5659 0017 00       		.uleb128 0
 5660 0018 00       		.uleb128 0
 5661              	.LLSDACSE1629:
 5662              		.section	.text._ZN7sigslot9has_slotsINS_15single_threadedEED2Ev,"axG",@progbits,_ZN7sigslot9has_sl
 5663              		.size	_ZN7sigslot9has_slotsINS_15single_threadedEED2Ev, .-_ZN7sigslot9has_slotsINS_15single_thread
 5664              		.section	.text._ZN7sigslot9has_slotsINS_15single_threadedEED0Ev,"axG",@progbits,_ZN7sigslot9has_sl
 5665              		.align 2
 5666              		.weak	_ZN7sigslot9has_slotsINS_15single_threadedEED0Ev
 5667              		.type	_ZN7sigslot9has_slotsINS_15single_threadedEED0Ev, @function
 5668              	_ZN7sigslot9has_slotsINS_15single_threadedEED0Ev:
 5669              	.LFB1631:
 5670              		.loc 1 513 0
 5671              		.cfi_startproc
 5672              		.cfi_personality 0,__gxx_personality_v0
 5673              		.cfi_lsda 0,.LLSDA1631
 5674              	.LVL456:
 5675 0000 7C0802A6 		mflr 0
 5676 0004 9421FFE0 		stwu 1,-32(1)
 5677              	.LCFI82:
 5678              		.cfi_def_cfa_offset 32
 5679              		.cfi_register 65, 0
 5680              	.LBB3334:
 5681              	.LBB3335:
 5682              	.LBB3336:
 5683              		.loc 1 516 0
 5684 0008 3D200000 		lis 9,_ZTVN7sigslot9has_slotsINS_15single_threadedEEE+8@ha
 5685              	.LBE3336:
 5686              	.LBE3335:
 5687              	.LBE3334:
 5688              		.loc 1 513 0
 5689 000c 93810010 		stw 28,16(1)
 5690 0010 3B830004 		addi 28,3,4
 5691              		.cfi_offset 28, -16
 5692 0014 90010024 		stw 0,36(1)
 5693              	.LBB3420:
 5694              	.LBB3416:
 5695              	.LBB3412:
 5696              		.loc 1 516 0
 5697 0018 38090008 		la 0,_ZTVN7sigslot9has_slotsINS_15single_threadedEEE+8@l(9)
 5698              		.cfi_offset 65, 4
 5699              	.LBE3412:
 5700              	.LBE3416:
 5701              	.LBE3420:
 5702              		.loc 1 513 0
 5703 001c 93A10014 		stw 29,20(1)
 5704 0020 7C7D1B78 		mr 29,3
 5705              		.cfi_offset 29, -12
 5706              	.LVL457:
 5707 0024 93410008 		stw 26,8(1)
 5708 0028 9361000C 		stw 27,12(1)
 5709 002c 93C10018 		stw 30,24(1)
 5710 0030 93E1001C 		stw 31,28(1)
 5711              	.LBB3421:
 5712              	.LBB3417:
 5713              	.LBB3413:
 5714              		.loc 1 516 0
 5715 0034 90030000 		stw 0,0(3)
 5716              	.LVL458:
 5717              	.LEHB4:
 5718              	.LBB3337:
 5719              	.LBB3338:
 5720              	.LBB3339:
 5721              	.LBB3340:
 5722              		.loc 1 338 0
 5723              		.cfi_offset 31, -4
 5724              		.cfi_offset 30, -8
 5725              		.cfi_offset 27, -20
 5726              		.cfi_offset 26, -24
 5727 0038 48000001 		bl _ZN7sigslot15single_threaded4lockEv
 5728              	.LEHE4:
 5729              	.LVL459:
 5730              	.LBE3340:
 5731              	.LBE3339:
 5732              	.LBB3341:
 5733              		.loc 4 598 0
 5734 003c 83FD0010 		lwz 31,16(29)
 5735              	.LVL460:
 5736              	.LBE3341:
 5737              	.LBB3342:
 5738              	.LBB3343:
 5739              	.LBB3344:
 5740              		.loc 6 671 0
 5741 0040 3BDC0004 		addi 30,28,4
 5742              	.LVL461:
 5743              	.LBE3344:
 5744              	.LBE3343:
 5745              	.LBE3342:
 5746              		.loc 1 524 0
 5747 0044 7F9FF000 		cmpw 7,31,30
 5748 0048 419E0034 		beq- 7,.L404
 5749              	.LVL462:
 5750              	.L432:
 5751              		.loc 1 526 0
 5752 004c 807F0010 		lwz 3,16(31)
 5753 0050 7FA4EB78 		mr 4,29
 5754 0054 81230000 		lwz 9,0(3)
 5755 0058 80090010 		lwz 0,16(9)
 5756 005c 7C0903A6 		mtctr 0
 5757              	.LEHB5:
 5758 0060 4E800421 		bctrl
 5759              	.LEHE5:
 5760              	.LVL463:
 5761              	.LBB3345:
 5762              	.LBB3346:
 5763              		.loc 6 269 0
 5764 0064 7FE3FB78 		mr 3,31
 5765 0068 48000001 		bl _ZSt18_Rb_tree_incrementPKSt18_Rb_tree_node_base
 5766              	.LBE3346:
 5767              	.LBE3345:
 5768              		.loc 1 524 0
 5769 006c 7F9E1800 		cmpw 7,30,3
 5770              	.LBB3348:
 5771              	.LBB3347:
 5772              		.loc 6 269 0
 5773 0070 7C7F1B78 		mr 31,3
 5774              	.LVL464:
 5775              	.LBE3347:
 5776              	.LBE3348:
 5777              		.loc 1 524 0
 5778 0074 409EFFD8 		bne+ 7,.L432
 5779 0078 83FD0010 		lwz 31,16(29)
 5780              	.LVL465:
 5781              	.L404:
 5782              	.LBB3349:
 5783              	.LBB3350:
 5784              	.LBB3351:
 5785              	.LBB3352:
 5786              	.LBB3353:
 5787              	.LBB3354:
 5788              	.LBB3355:
 5789              		.loc 6 665 0
 5790 007c 3B5C0004 		addi 26,28,4
 5791              	.LBE3355:
 5792              	.LBE3354:
 5793              		.loc 6 1500 0
 5794 0080 7F9ED000 		cmpw 7,30,26
 5795 0084 419E00A0 		beq- 7,.L406
 5796              	.LVL466:
 5797              		.loc 6 1503 0
 5798 0088 7F9EF800 		cmpw 7,30,31
 5799 008c 40BE000C 		bne+ 7,.L434
 5800 0090 48000038 		b .L407
 5801              	.LVL467:
 5802              	.L429:
 5803              		.loc 6 277 0
 5804 0094 7F7FDB78 		mr 31,27
 5805              	.LVL468:
 5806              	.L434:
 5807              	.LBB3356:
 5808              	.LBB3357:
 5809 0098 7FE3FB78 		mr 3,31
 5810 009c 48000001 		bl _ZSt18_Rb_tree_incrementPKSt18_Rb_tree_node_base
 5811              	.LBE3357:
 5812              	.LBE3356:
 5813              	.LBB3359:
 5814              	.LBB3360:
 5815              	.LBB3361:
 5816              		.loc 6 1489 0
 5817 00a0 7F44D378 		mr 4,26
 5818              	.LBE3361:
 5819              	.LBE3360:
 5820              	.LBE3359:
 5821              	.LBB3370:
 5822              	.LBB3358:
 5823              		.loc 6 277 0
 5824 00a4 7C7B1B78 		mr 27,3
 5825              	.LVL469:
 5826              	.LBE3358:
 5827              	.LBE3370:
 5828              	.LBB3371:
 5829              	.LBB3368:
 5830              	.LBB3366:
 5831              		.loc 6 1489 0
 5832 00a8 7FE3FB78 		mr 3,31
 5833              	.LVL470:
 5834 00ac 48000001 		bl _ZSt28_Rb_tree_rebalance_for_erasePSt18_Rb_tree_node_baseRS_
 5835              	.LBB3362:
 5836              	.LBB3363:
 5837              	.LBB3364:
 5838              	.LBB3365:
 5839              		.loc 7 98 0
 5840 00b0 48000001 		bl _ZdlPv
 5841              	.LBE3365:
 5842              	.LBE3364:
 5843              	.LBE3363:
 5844              	.LBE3362:
 5845              	.LBE3366:
 5846              	.LBE3368:
 5847              	.LBE3371:
 5848              		.loc 6 1503 0
 5849 00b4 7F9ED800 		cmpw 7,30,27
 5850              	.LBB3372:
 5851              	.LBB3369:
 5852              	.LBB3367:
 5853              		.loc 6 1491 0
 5854 00b8 813C0014 		lwz 9,20(28)
 5855 00bc 3809FFFF 		addi 0,9,-1
 5856 00c0 901C0014 		stw 0,20(28)
 5857              	.LBE3367:
 5858              	.LBE3369:
 5859              	.LBE3372:
 5860              		.loc 6 1503 0
 5861 00c4 409EFFD0 		bne+ 7,.L429
 5862              	.LVL471:
 5863              	.L407:
 5864              	.LBE3353:
 5865              	.LBE3352:
 5866              	.LBE3351:
 5867              	.LBE3350:
 5868              	.LBE3349:
 5869              	.LBB3381:
 5870              	.LBB3382:
 5871              	.LBB3383:
 5872              		.loc 1 343 0
 5873 00c8 813D0000 		lwz 9,0(29)
 5874 00cc 7FA3EB78 		mr 3,29
 5875 00d0 8009000C 		lwz 0,12(9)
 5876 00d4 7C0903A6 		mtctr 0
 5877              	.LEHB6:
 5878 00d8 4E800421 		bctrl
 5879              	.LEHE6:
 5880              	.LVL472:
 5881              	.LBE3383:
 5882              	.LBE3382:
 5883              	.LBE3381:
 5884              	.LBE3338:
 5885              	.LBE3337:
 5886              	.LBB3390:
 5887              	.LBB3391:
 5888              	.LBB3392:
 5889              	.LBB3393:
 5890              	.LBB3394:
 5891              		.loc 6 639 0
 5892 00dc 809D000C 		lwz 4,12(29)
 5893 00e0 7F83E378 		mr 3,28
 5894 00e4 48000001 		bl _ZNSt8_Rb_treeIPN7sigslot12_signal_baseINS0_15single_threadedEEES4_St9_IdentityIS4_ESt4lessIS4_
 5895              	.LVL473:
 5896              	.LBE3394:
 5897              	.LBE3393:
 5898              	.LBE3392:
 5899              	.LBE3391:
 5900              	.LBE3390:
 5901              	.LBB3395:
 5902              	.LBB3396:
 5903              	.LBB3397:
 5904              		.loc 1 105 0
 5905 00e8 3D200000 		lis 9,_ZTVN7sigslot15single_threadedE+8@ha
 5906 00ec 38090008 		la 0,_ZTVN7sigslot15single_threadedE+8@l(9)
 5907              	.LBE3397:
 5908              	.LBE3396:
 5909              	.LBE3395:
 5910              	.LBE3413:
 5911              	.LBE3417:
 5912              	.LBE3421:
 5913              		.loc 1 516 0
 5914 00f0 7FA3EB78 		mr 3,29
 5915              	.LBB3422:
 5916              	.LBB3418:
 5917              	.LBB3414:
 5918              	.LBB3400:
 5919              	.LBB3399:
 5920              	.LBB3398:
 5921              		.loc 1 105 0
 5922 00f4 901D0000 		stw 0,0(29)
 5923              	.LBE3398:
 5924              	.LBE3399:
 5925              	.LBE3400:
 5926              	.LBE3414:
 5927              	.LBE3418:
 5928              	.LBE3422:
 5929              		.loc 1 516 0
 5930 00f8 48000001 		bl _ZdlPv
 5931 00fc 80010024 		lwz 0,36(1)
 5932 0100 83410008 		lwz 26,8(1)
 5933 0104 7C0803A6 		mtlr 0
 5934 0108 8361000C 		lwz 27,12(1)
 5935 010c 83810010 		lwz 28,16(1)
 5936              	.LVL474:
 5937 0110 83A10014 		lwz 29,20(1)
 5938              	.LVL475:
 5939 0114 83C10018 		lwz 30,24(1)
 5940              	.LVL476:
 5941 0118 83E1001C 		lwz 31,28(1)
 5942 011c 38210020 		addi 1,1,32
 5943              		.cfi_remember_state
 5944              	.LCFI83:
 5945              		.cfi_def_cfa_offset 0
 5946              		.cfi_restore 31
 5947              		.cfi_restore 30
 5948              		.cfi_restore 29
 5949              		.cfi_restore 28
 5950              		.cfi_restore 27
 5951              		.cfi_restore 26
 5952 0120 4E800020 		blr
 5953              	.LVL477:
 5954              	.L406:
 5955              	.LCFI84:
 5956              		.cfi_restore_state
 5957              	.LBB3423:
 5958              	.LBB3419:
 5959              	.LBB3415:
 5960              	.LBB3401:
 5961              	.LBB3388:
 5962              	.LBB3384:
 5963              	.LBB3380:
 5964              	.LBB3379:
 5965              	.LBB3378:
 5966              	.LBB3377:
 5967              	.LBB3373:
 5968              	.LBB3374:
 5969              	.LBB3375:
 5970              	.LBB3376:
 5971              		.loc 6 809 0
 5972 0124 809D000C 		lwz 4,12(29)
 5973 0128 7F83E378 		mr 3,28
 5974 012c 48000001 		bl _ZNSt8_Rb_treeIPN7sigslot12_signal_baseINS0_15single_threadedEEES4_St9_IdentityIS4_ESt4lessIS4_
 5975              	.LVL478:
 5976              		.loc 6 811 0
 5977 0130 38000000 		li 0,0
 5978              		.loc 6 810 0
 5979 0134 93DD0010 		stw 30,16(29)
 5980              	.LVL479:
 5981              		.loc 6 811 0
 5982 0138 901D000C 		stw 0,12(29)
 5983              	.LVL480:
 5984              		.loc 6 812 0
 5985 013c 93DD0014 		stw 30,20(29)
 5986              		.loc 6 813 0
 5987 0140 901D0018 		stw 0,24(29)
 5988 0144 4BFFFF84 		b .L407
 5989              	.LVL481:
 5990              	.L430:
 5991 0148 7C7F1B78 		mr 31,3
 5992              	.L414:
 5993              	.LVL482:
 5994              	.LBE3376:
 5995              	.LBE3375:
 5996              	.LBE3374:
 5997              	.LBE3373:
 5998              	.LBE3377:
 5999              	.LBE3378:
 6000              	.LBE3379:
 6001              	.LBE3380:
 6002              	.LBE3384:
 6003              	.LBE3388:
 6004              	.LBE3401:
 6005              	.LBB3402:
 6006              	.LBB3403:
 6007              	.LBB3404:
 6008              	.LBB3405:
 6009              	.LBB3406:
 6010              	.LBB3407:
 6011              		.loc 6 639 0
 6012 014c 809D000C 		lwz 4,12(29)
 6013 0150 7F83E378 		mr 3,28
 6014 0154 48000001 		bl _ZNSt8_Rb_treeIPN7sigslot12_signal_baseINS0_15single_threadedEEES4_St9_IdentityIS4_ESt4lessIS4_
 6015              	.LVL483:
 6016              	.LBE3407:
 6017              	.LBE3406:
 6018              	.LBE3405:
 6019              	.LBE3404:
 6020              	.LBE3403:
 6021              	.LBE3402:
 6022              	.LBB3408:
 6023              	.LBB3409:
 6024              	.LBB3410:
 6025              		.loc 1 105 0
 6026 0158 3D200000 		lis 9,_ZTVN7sigslot15single_threadedE+8@ha
 6027 015c 38090008 		la 0,_ZTVN7sigslot15single_threadedE+8@l(9)
 6028 0160 7FE3FB78 		mr 3,31
 6029 0164 901D0000 		stw 0,0(29)
 6030              	.LEHB7:
 6031 0168 48000001 		bl _Unwind_Resume
 6032              	.LEHE7:
 6033              	.LVL484:
 6034              	.L431:
 6035              	.LBE3410:
 6036              	.LBE3409:
 6037              	.LBE3408:
 6038              	.LBB3411:
 6039              	.LBB3389:
 6040              	.LBB3385:
 6041              	.LBB3386:
 6042              	.LBB3387:
 6043              		.loc 1 343 0
 6044 016c 813D0000 		lwz 9,0(29)
 6045 0170 7C7F1B78 		mr 31,3
 6046              	.LVL485:
 6047 0174 7FA3EB78 		mr 3,29
 6048 0178 8009000C 		lwz 0,12(9)
 6049 017c 7C0903A6 		mtctr 0
 6050 0180 4E800421 		bctrl
 6051 0184 4BFFFFC8 		b .L414
 6052              	.LBE3387:
 6053              	.LBE3386:
 6054              	.LBE3385:
 6055              	.LBE3389:
 6056              	.LBE3411:
 6057              	.LBE3415:
 6058              	.LBE3419:
 6059              	.LBE3423:
 6060              		.cfi_endproc
 6061              	.LFE1631:
 6062              		.section	.gcc_except_table
 6063              	.LLSDA1631:
 6064 0019 FF       		.byte	0xff
 6065 001a FF       		.byte	0xff
 6066 001b 01       		.byte	0x1
 6067 001c 15       		.uleb128 .LLSDACSE1631-.LLSDACSB1631
 6068              	.LLSDACSB1631:
 6069 001d 38       		.uleb128 .LEHB4-.LFB1631
 6070 001e 04       		.uleb128 .LEHE4-.LEHB4
 6071 001f C802     		.uleb128 .L430-.LFB1631
 6072 0021 00       		.uleb128 0
 6073 0022 60       		.uleb128 .LEHB5-.LFB1631
 6074 0023 04       		.uleb128 .LEHE5-.LEHB5
 6075 0024 EC02     		.uleb128 .L431-.LFB1631
 6076 0026 00       		.uleb128 0
 6077 0027 D801     		.uleb128 .LEHB6-.LFB1631
 6078 0029 04       		.uleb128 .LEHE6-.LEHB6
 6079 002a C802     		.uleb128 .L430-.LFB1631
 6080 002c 00       		.uleb128 0
 6081 002d E802     		.uleb128 .LEHB7-.LFB1631
 6082 002f 04       		.uleb128 .LEHE7-.LEHB7
 6083 0030 00       		.uleb128 0
 6084 0031 00       		.uleb128 0
 6085              	.LLSDACSE1631:
 6086              		.section	.text._ZN7sigslot9has_slotsINS_15single_threadedEED0Ev,"axG",@progbits,_ZN7sigslot9has_sl
 6087              		.size	_ZN7sigslot9has_slotsINS_15single_threadedEED0Ev, .-_ZN7sigslot9has_slotsINS_15single_thread
 6088              		.section	".text"
 6089              		.align 2
 6090              		.globl _ZThn176_N11GuiKeyboardD1Ev
 6091              		.type	_ZThn176_N11GuiKeyboardD1Ev, @function
 6092              	_ZThn176_N11GuiKeyboardD1Ev:
 6093              	.LFB2162:
 6094              		.cfi_startproc
 6095 14fc 3863FF50 		addi 3,3,-176
 6096 1500 48000004 		b .LTHUNK0
 6097              		.cfi_endproc
 6098              	.LFE2162:
 6099              		.size	_ZThn176_N11GuiKeyboardD1Ev, .-_ZThn176_N11GuiKeyboardD1Ev
 6100              		.align 2
 6101              		.globl _ZN11GuiKeyboardD2Ev
 6102              		.type	_ZN11GuiKeyboardD2Ev, @function
 6103              	_ZN11GuiKeyboardD2Ev:
 6104              	.LFB1578:
 6105              		.loc 4 262 0
 6106              		.cfi_startproc
 6107              		.cfi_personality 0,__gxx_personality_v0
 6108              		.cfi_lsda 0,.LLSDA1578
 6109              	.LVL486:
 6110 1504 7C0802A6 		mflr 0
 6111 1508 9421FFD0 		stwu 1,-48(1)
 6112              	.LCFI85:
 6113              		.cfi_def_cfa_offset 48
 6114              		.cfi_register 65, 0
 6115              	.LBB3548:
 6116 150c 3D200000 		lis 9,_ZTV11GuiKeyboard+8@ha
 6117              	.LBE3548:
 6118 1510 93C10028 		stw 30,40(1)
 6119 1514 7C7E1B78 		mr 30,3
 6120              		.cfi_offset 30, -8
 6121 1518 90010034 		stw 0,52(1)
 6122              	.LBB3672:
 6123 151c 39290008 		la 9,_ZTV11GuiKeyboard+8@l(9)
 6124 1520 380900E4 		addi 0,9,228
 6125              		.cfi_offset 65, 4
 6126              	.LBE3672:
 6127 1524 93810020 		stw 28,32(1)
 6128              	.LBB3673:
 6129              	.LBB3549:
 6130              		.loc 4 264 0
 6131 1528 80630324 		lwz 3,804(3)
 6132              	.LVL487:
 6133              	.LBE3549:
 6134              	.LBE3673:
 6135              		.loc 4 262 0
 6136 152c 93A10024 		stw 29,36(1)
 6137              	.LBB3674:
 6138              	.LBB3553:
 6139              		.loc 4 264 0
 6140 1530 2F830000 		cmpwi 7,3,0
 6141              	.LBE3553:
 6142              	.LBE3674:
 6143              		.loc 4 262 0
 6144 1534 93E1002C 		stw 31,44(1)
 6145              	.LBB3675:
 6146              		.loc 4 262 0
 6147 1538 913E0000 		stw 9,0(30)
 6148 153c 901E00B0 		stw 0,176(30)
 6149              	.LBB3554:
 6150              		.loc 4 264 0
 6151 1540 419E0014 		beq- 7,.L437
 6152              		.cfi_offset 31, -4
 6153              		.cfi_offset 29, -12
 6154              		.cfi_offset 28, -16
 6155              		.loc 4 264 0 is_stmt 0 discriminator 1
 6156 1544 81230000 		lwz 9,0(3)
 6157 1548 80090004 		lwz 0,4(9)
 6158 154c 7C0903A6 		mtctr 0
 6159              	.LEHB8:
 6160 1550 4E800421 		bctrl
 6161              	.L437:
 6162              		.loc 4 265 0 is_stmt 1
 6163 1554 807E032C 		lwz 3,812(30)
 6164 1558 2F830000 		cmpwi 7,3,0
 6165 155c 419E0014 		beq- 7,.L438
 6166              		.loc 4 265 0 is_stmt 0 discriminator 1
 6167 1560 81230000 		lwz 9,0(3)
 6168 1564 80090004 		lwz 0,4(9)
 6169 1568 7C0903A6 		mtctr 0
 6170 156c 4E800421 		bctrl
 6171              	.L438:
 6172              		.loc 4 266 0 is_stmt 1
 6173 1570 807E0328 		lwz 3,808(30)
 6174 1574 2F830000 		cmpwi 7,3,0
 6175 1578 419E0014 		beq- 7,.L439
 6176              		.loc 4 266 0 is_stmt 0 discriminator 1
 6177 157c 81230000 		lwz 9,0(3)
 6178 1580 80090004 		lwz 0,4(9)
 6179 1584 7C0903A6 		mtctr 0
 6180 1588 4E800421 		bctrl
 6181              	.L439:
 6182              		.loc 4 267 0 is_stmt 1
 6183 158c 807E0330 		lwz 3,816(30)
 6184 1590 2F830000 		cmpwi 7,3,0
 6185 1594 419E0014 		beq- 7,.L440
 6186              		.loc 4 267 0 is_stmt 0 discriminator 1
 6187 1598 81230000 		lwz 9,0(3)
 6188 159c 80090004 		lwz 0,4(9)
 6189 15a0 7C0903A6 		mtctr 0
 6190 15a4 4E800421 		bctrl
 6191              	.L440:
 6192              		.loc 4 268 0 is_stmt 1
 6193 15a8 807E0334 		lwz 3,820(30)
 6194 15ac 2F830000 		cmpwi 7,3,0
 6195 15b0 419E0014 		beq- 7,.L441
 6196              		.loc 4 268 0 is_stmt 0 discriminator 1
 6197 15b4 81230000 		lwz 9,0(3)
 6198 15b8 80090004 		lwz 0,4(9)
 6199 15bc 7C0903A6 		mtctr 0
 6200 15c0 4E800421 		bctrl
 6201              	.L441:
 6202              		.loc 4 269 0 is_stmt 1
 6203 15c4 807E0338 		lwz 3,824(30)
 6204 15c8 2F830000 		cmpwi 7,3,0
 6205 15cc 419E0014 		beq- 7,.L442
 6206              		.loc 4 269 0 is_stmt 0 discriminator 1
 6207 15d0 81230000 		lwz 9,0(3)
 6208 15d4 80090004 		lwz 0,4(9)
 6209 15d8 7C0903A6 		mtctr 0
 6210 15dc 4E800421 		bctrl
 6211              	.L442:
 6212              		.loc 4 270 0 is_stmt 1
 6213 15e0 807E033C 		lwz 3,828(30)
 6214 15e4 2F830000 		cmpwi 7,3,0
 6215 15e8 419E0014 		beq- 7,.L443
 6216              		.loc 4 270 0 is_stmt 0 discriminator 1
 6217 15ec 81230000 		lwz 9,0(3)
 6218 15f0 80090004 		lwz 0,4(9)
 6219 15f4 7C0903A6 		mtctr 0
 6220 15f8 4E800421 		bctrl
 6221              	.L443:
 6222              		.loc 4 271 0 is_stmt 1
 6223 15fc 807E0340 		lwz 3,832(30)
 6224 1600 2F830000 		cmpwi 7,3,0
 6225 1604 419E0014 		beq- 7,.L444
 6226              		.loc 4 271 0 is_stmt 0 discriminator 1
 6227 1608 81230000 		lwz 9,0(3)
 6228 160c 80090004 		lwz 0,4(9)
 6229 1610 7C0903A6 		mtctr 0
 6230 1614 4E800421 		bctrl
 6231              	.L444:
 6232              		.loc 4 272 0 is_stmt 1
 6233 1618 807E0344 		lwz 3,836(30)
 6234 161c 2F830000 		cmpwi 7,3,0
 6235 1620 419E0014 		beq- 7,.L445
 6236              		.loc 4 272 0 is_stmt 0 discriminator 1
 6237 1624 81230000 		lwz 9,0(3)
 6238 1628 80090004 		lwz 0,4(9)
 6239 162c 7C0903A6 		mtctr 0
 6240 1630 4E800421 		bctrl
 6241              	.L445:
 6242              		.loc 4 273 0 is_stmt 1
 6243 1634 807E0348 		lwz 3,840(30)
 6244 1638 2F830000 		cmpwi 7,3,0
 6245 163c 419E0014 		beq- 7,.L446
 6246              		.loc 4 273 0 is_stmt 0 discriminator 1
 6247 1640 81230000 		lwz 9,0(3)
 6248 1644 80090004 		lwz 0,4(9)
 6249 1648 7C0903A6 		mtctr 0
 6250 164c 4E800421 		bctrl
 6251              	.L446:
 6252              		.loc 4 274 0 is_stmt 1
 6253 1650 807E034C 		lwz 3,844(30)
 6254 1654 2F830000 		cmpwi 7,3,0
 6255 1658 419E0014 		beq- 7,.L447
 6256              		.loc 4 274 0 is_stmt 0 discriminator 1
 6257 165c 81230000 		lwz 9,0(3)
 6258 1660 80090004 		lwz 0,4(9)
 6259 1664 7C0903A6 		mtctr 0
 6260 1668 4E800421 		bctrl
 6261              	.L447:
 6262              		.loc 4 275 0 is_stmt 1
 6263 166c 807E0350 		lwz 3,848(30)
 6264 1670 2F830000 		cmpwi 7,3,0
 6265 1674 419E0014 		beq- 7,.L448
 6266              		.loc 4 275 0 is_stmt 0 discriminator 1
 6267 1678 81230000 		lwz 9,0(3)
 6268 167c 80090004 		lwz 0,4(9)
 6269 1680 7C0903A6 		mtctr 0
 6270 1684 4E800421 		bctrl
 6271              	.L448:
 6272              		.loc 4 276 0 is_stmt 1
 6273 1688 807E0354 		lwz 3,852(30)
 6274 168c 2F830000 		cmpwi 7,3,0
 6275 1690 419E0014 		beq- 7,.L449
 6276              		.loc 4 276 0 is_stmt 0 discriminator 1
 6277 1694 81230000 		lwz 9,0(3)
 6278 1698 80090004 		lwz 0,4(9)
 6279 169c 7C0903A6 		mtctr 0
 6280 16a0 4E800421 		bctrl
 6281              	.L449:
 6282              		.loc 4 277 0 is_stmt 1
 6283 16a4 807E0358 		lwz 3,856(30)
 6284 16a8 2F830000 		cmpwi 7,3,0
 6285 16ac 419E0014 		beq- 7,.L450
 6286              		.loc 4 277 0 is_stmt 0 discriminator 1
 6287 16b0 81230000 		lwz 9,0(3)
 6288 16b4 80090004 		lwz 0,4(9)
 6289 16b8 7C0903A6 		mtctr 0
 6290 16bc 4E800421 		bctrl
 6291              	.L450:
 6292              		.loc 4 278 0 is_stmt 1
 6293 16c0 807E035C 		lwz 3,860(30)
 6294 16c4 2F830000 		cmpwi 7,3,0
 6295 16c8 419E0014 		beq- 7,.L451
 6296              		.loc 4 278 0 is_stmt 0 discriminator 1
 6297 16cc 81230000 		lwz 9,0(3)
 6298 16d0 80090004 		lwz 0,4(9)
 6299 16d4 7C0903A6 		mtctr 0
 6300 16d8 4E800421 		bctrl
 6301              	.L451:
 6302              		.loc 4 279 0 is_stmt 1
 6303 16dc 807E0360 		lwz 3,864(30)
 6304 16e0 2F830000 		cmpwi 7,3,0
 6305 16e4 419E0014 		beq- 7,.L452
 6306              		.loc 4 279 0 is_stmt 0 discriminator 1
 6307 16e8 81230000 		lwz 9,0(3)
 6308 16ec 80090004 		lwz 0,4(9)
 6309 16f0 7C0903A6 		mtctr 0
 6310 16f4 4E800421 		bctrl
 6311              	.L452:
 6312              		.loc 4 280 0 is_stmt 1
 6313 16f8 807E0364 		lwz 3,868(30)
 6314 16fc 2F830000 		cmpwi 7,3,0
 6315 1700 419E0014 		beq- 7,.L453
 6316              		.loc 4 280 0 is_stmt 0 discriminator 1
 6317 1704 81230000 		lwz 9,0(3)
 6318 1708 80090004 		lwz 0,4(9)
 6319 170c 7C0903A6 		mtctr 0
 6320 1710 4E800421 		bctrl
 6321              	.L453:
 6322              		.loc 4 281 0 is_stmt 1
 6323 1714 807E0368 		lwz 3,872(30)
 6324 1718 2F830000 		cmpwi 7,3,0
 6325 171c 419E0014 		beq- 7,.L454
 6326              		.loc 4 281 0 is_stmt 0 discriminator 1
 6327 1720 81230000 		lwz 9,0(3)
 6328 1724 80090004 		lwz 0,4(9)
 6329 1728 7C0903A6 		mtctr 0
 6330 172c 4E800421 		bctrl
 6331              	.L454:
 6332              		.loc 4 282 0 is_stmt 1
 6333 1730 807E036C 		lwz 3,876(30)
 6334 1734 2F830000 		cmpwi 7,3,0
 6335 1738 419E0014 		beq- 7,.L455
 6336              		.loc 4 282 0 is_stmt 0 discriminator 1
 6337 173c 81230000 		lwz 9,0(3)
 6338 1740 80090004 		lwz 0,4(9)
 6339 1744 7C0903A6 		mtctr 0
 6340 1748 4E800421 		bctrl
 6341              	.L455:
 6342              		.loc 4 283 0 is_stmt 1
 6343 174c 807E0370 		lwz 3,880(30)
 6344 1750 2F830000 		cmpwi 7,3,0
 6345 1754 419E0014 		beq- 7,.L456
 6346              		.loc 4 283 0 is_stmt 0 discriminator 1
 6347 1758 81230000 		lwz 9,0(3)
 6348 175c 80090004 		lwz 0,4(9)
 6349 1760 7C0903A6 		mtctr 0
 6350 1764 4E800421 		bctrl
 6351              	.L456:
 6352              		.loc 4 284 0 is_stmt 1
 6353 1768 807E0374 		lwz 3,884(30)
 6354 176c 2F830000 		cmpwi 7,3,0
 6355 1770 419E0014 		beq- 7,.L457
 6356              		.loc 4 284 0 is_stmt 0 discriminator 1
 6357 1774 81230000 		lwz 9,0(3)
 6358 1778 80090004 		lwz 0,4(9)
 6359 177c 7C0903A6 		mtctr 0
 6360 1780 4E800421 		bctrl
 6361              	.L457:
 6362              		.loc 4 285 0 is_stmt 1
 6363 1784 807E0378 		lwz 3,888(30)
 6364 1788 2F830000 		cmpwi 7,3,0
 6365 178c 419E0014 		beq- 7,.L458
 6366              		.loc 4 285 0 is_stmt 0 discriminator 1
 6367 1790 81230000 		lwz 9,0(3)
 6368 1794 80090004 		lwz 0,4(9)
 6369 1798 7C0903A6 		mtctr 0
 6370 179c 4E800421 		bctrl
 6371              	.L458:
 6372              		.loc 4 286 0 is_stmt 1
 6373 17a0 807E037C 		lwz 3,892(30)
 6374 17a4 2F830000 		cmpwi 7,3,0
 6375 17a8 419E0014 		beq- 7,.L459
 6376              		.loc 4 286 0 is_stmt 0 discriminator 1
 6377 17ac 81230000 		lwz 9,0(3)
 6378 17b0 80090004 		lwz 0,4(9)
 6379 17b4 7C0903A6 		mtctr 0
 6380 17b8 4E800421 		bctrl
 6381              	.L459:
 6382              		.loc 4 287 0 is_stmt 1
 6383 17bc 807E0380 		lwz 3,896(30)
 6384 17c0 2F830000 		cmpwi 7,3,0
 6385 17c4 419E0014 		beq- 7,.L460
 6386              		.loc 4 287 0 is_stmt 0 discriminator 1
 6387 17c8 81230000 		lwz 9,0(3)
 6388 17cc 80090004 		lwz 0,4(9)
 6389 17d0 7C0903A6 		mtctr 0
 6390 17d4 4E800421 		bctrl
 6391              	.L460:
 6392              		.loc 4 288 0 is_stmt 1
 6393 17d8 807E0384 		lwz 3,900(30)
 6394 17dc 2F830000 		cmpwi 7,3,0
 6395 17e0 419E0014 		beq- 7,.L461
 6396              		.loc 4 288 0 is_stmt 0 discriminator 1
 6397 17e4 81230000 		lwz 9,0(3)
 6398 17e8 80090004 		lwz 0,4(9)
 6399 17ec 7C0903A6 		mtctr 0
 6400 17f0 4E800421 		bctrl
 6401              	.L461:
 6402              		.loc 4 289 0 is_stmt 1
 6403 17f4 807E0388 		lwz 3,904(30)
 6404 17f8 2F830000 		cmpwi 7,3,0
 6405 17fc 419E0014 		beq- 7,.L462
 6406              		.loc 4 289 0 is_stmt 0 discriminator 1
 6407 1800 81230000 		lwz 9,0(3)
 6408 1804 80090004 		lwz 0,4(9)
 6409 1808 7C0903A6 		mtctr 0
 6410 180c 4E800421 		bctrl
 6411              	.L462:
 6412              		.loc 4 290 0 is_stmt 1
 6413 1810 807E038C 		lwz 3,908(30)
 6414 1814 2F830000 		cmpwi 7,3,0
 6415 1818 419E0014 		beq- 7,.L463
 6416              		.loc 4 290 0 is_stmt 0 discriminator 1
 6417 181c 81230000 		lwz 9,0(3)
 6418 1820 80090004 		lwz 0,4(9)
 6419 1824 7C0903A6 		mtctr 0
 6420 1828 4E800421 		bctrl
 6421              	.L463:
 6422              		.loc 4 291 0 is_stmt 1
 6423 182c 807E0390 		lwz 3,912(30)
 6424 1830 2F830000 		cmpwi 7,3,0
 6425 1834 419E0014 		beq- 7,.L464
 6426              		.loc 4 291 0 is_stmt 0 discriminator 1
 6427 1838 81230000 		lwz 9,0(3)
 6428 183c 80090004 		lwz 0,4(9)
 6429 1840 7C0903A6 		mtctr 0
 6430 1844 4E800421 		bctrl
 6431              	.L464:
 6432              		.loc 4 292 0 is_stmt 1
 6433 1848 807E0394 		lwz 3,916(30)
 6434 184c 2F830000 		cmpwi 7,3,0
 6435 1850 419E0014 		beq- 7,.L465
 6436              		.loc 4 292 0 is_stmt 0 discriminator 1
 6437 1854 81230000 		lwz 9,0(3)
 6438 1858 80090004 		lwz 0,4(9)
 6439 185c 7C0903A6 		mtctr 0
 6440 1860 4E800421 		bctrl
 6441              	.L465:
 6442              		.loc 4 293 0 is_stmt 1
 6443 1864 807E0398 		lwz 3,920(30)
 6444 1868 2F830000 		cmpwi 7,3,0
 6445 186c 419E0014 		beq- 7,.L466
 6446              		.loc 4 293 0 is_stmt 0 discriminator 1
 6447 1870 81230000 		lwz 9,0(3)
 6448 1874 80090004 		lwz 0,4(9)
 6449 1878 7C0903A6 		mtctr 0
 6450 187c 4E800421 		bctrl
 6451              	.L466:
 6452              		.loc 4 294 0 is_stmt 1
 6453 1880 807E039C 		lwz 3,924(30)
 6454 1884 2F830000 		cmpwi 7,3,0
 6455 1888 419E0014 		beq- 7,.L467
 6456              		.loc 4 294 0 is_stmt 0 discriminator 1
 6457 188c 81230000 		lwz 9,0(3)
 6458 1890 80090004 		lwz 0,4(9)
 6459 1894 7C0903A6 		mtctr 0
 6460 1898 4E800421 		bctrl
 6461              	.L467:
 6462              		.loc 4 295 0 is_stmt 1
 6463 189c 807E03A0 		lwz 3,928(30)
 6464 18a0 2F830000 		cmpwi 7,3,0
 6465 18a4 419E0014 		beq- 7,.L468
 6466              		.loc 4 295 0 is_stmt 0 discriminator 1
 6467 18a8 81230000 		lwz 9,0(3)
 6468 18ac 80090004 		lwz 0,4(9)
 6469 18b0 7C0903A6 		mtctr 0
 6470 18b4 4E800421 		bctrl
 6471              	.L468:
 6472              		.loc 4 296 0 is_stmt 1
 6473 18b8 807E0708 		lwz 3,1800(30)
 6474 18bc 2F830000 		cmpwi 7,3,0
 6475 18c0 419E0014 		beq- 7,.L469
 6476              		.loc 4 296 0 is_stmt 0 discriminator 1
 6477 18c4 81230000 		lwz 9,0(3)
 6478 18c8 80090004 		lwz 0,4(9)
 6479 18cc 7C0903A6 		mtctr 0
 6480 18d0 4E800421 		bctrl
 6481              	.L469:
 6482              		.loc 4 297 0 is_stmt 1
 6483 18d4 807E070C 		lwz 3,1804(30)
 6484 18d8 2F830000 		cmpwi 7,3,0
 6485 18dc 419E0014 		beq- 7,.L470
 6486              		.loc 4 297 0 is_stmt 0 discriminator 1
 6487 18e0 81230000 		lwz 9,0(3)
 6488 18e4 80090004 		lwz 0,4(9)
 6489 18e8 7C0903A6 		mtctr 0
 6490 18ec 4E800421 		bctrl
 6491              	.L470:
 6492              		.loc 4 298 0 is_stmt 1
 6493 18f0 807E0710 		lwz 3,1808(30)
 6494 18f4 2F830000 		cmpwi 7,3,0
 6495 18f8 419E0014 		beq- 7,.L471
 6496              		.loc 4 298 0 is_stmt 0 discriminator 1
 6497 18fc 81230000 		lwz 9,0(3)
 6498 1900 80090004 		lwz 0,4(9)
 6499 1904 7C0903A6 		mtctr 0
 6500 1908 4E800421 		bctrl
 6501              	.L471:
 6502              		.loc 4 299 0 is_stmt 1
 6503 190c 807E0714 		lwz 3,1812(30)
 6504 1910 2F830000 		cmpwi 7,3,0
 6505 1914 419E0014 		beq- 7,.L472
 6506              		.loc 4 299 0 is_stmt 0 discriminator 1
 6507 1918 81230000 		lwz 9,0(3)
 6508 191c 80090004 		lwz 0,4(9)
 6509 1920 7C0903A6 		mtctr 0
 6510 1924 4E800421 		bctrl
 6511              	.L472:
 6512              		.loc 4 300 0 is_stmt 1
 6513 1928 807E06E4 		lwz 3,1764(30)
 6514 192c 48000001 		bl _ZN9Resources6RemoveEP12GuiImageData
 6515              		.loc 4 301 0
 6516 1930 807E06E8 		lwz 3,1768(30)
 6517 1934 48000001 		bl _ZN9Resources6RemoveEP12GuiImageData
 6518              		.loc 4 302 0
 6519 1938 807E06EC 		lwz 3,1772(30)
 6520 193c 48000001 		bl _ZN9Resources6RemoveEP12GuiImageData
 6521              		.loc 4 303 0
 6522 1940 807E06F0 		lwz 3,1776(30)
 6523 1944 48000001 		bl _ZN9Resources6RemoveEP12GuiImageData
 6524              		.loc 4 304 0
 6525 1948 807E06F4 		lwz 3,1780(30)
 6526 194c 48000001 		bl _ZN9Resources6RemoveEP12GuiImageData
 6527              		.loc 4 305 0
 6528 1950 807E06F8 		lwz 3,1784(30)
 6529 1954 48000001 		bl _ZN9Resources6RemoveEP12GuiImageData
 6530              		.loc 4 306 0
 6531 1958 807E06FC 		lwz 3,1788(30)
 6532 195c 48000001 		bl _ZN9Resources6RemoveEP12GuiImageData
 6533              		.loc 4 307 0
 6534 1960 807E0700 		lwz 3,1792(30)
 6535 1964 48000001 		bl _ZN9Resources6RemoveEP8GuiSound
 6536              		.loc 4 308 0
 6537 1968 807E0704 		lwz 3,1796(30)
 6538 196c 48000001 		bl _ZN9Resources6RemoveEP8GuiSound
 6539 1970 38000004 		li 0,4
 6540 1974 7FDFF378 		mr 31,30
 6541 1978 90010018 		stw 0,24(1)
 6542 197c 7FDDF378 		mr 29,30
 6543              	.L564:
 6544              	.LVL488:
 6545              	.LBB3550:
 6546              	.LBB3551:
 6547              		.loc 4 314 0 discriminator 1
 6548 1980 801D017C 		lwz 0,380(29)
 6549 1984 2F800000 		cmpwi 7,0,0
 6550 1988 419E0074 		beq- 7,.L473
 6551              		.loc 4 316 0
 6552 198c 807F0474 		lwz 3,1140(31)
 6553 1990 2F830000 		cmpwi 7,3,0
 6554 1994 419E0014 		beq- 7,.L479
 6555 1998 81230000 		lwz 9,0(3)
 6556 199c 80090004 		lwz 0,4(9)
 6557 19a0 7C0903A6 		mtctr 0
 6558 19a4 4E800421 		bctrl
 6559              	.L479:
 6560              		.loc 4 317 0
 6561 19a8 807F0544 		lwz 3,1348(31)
 6562 19ac 2F830000 		cmpwi 7,3,0
 6563 19b0 419E0014 		beq- 7,.L478
 6564 19b4 81230000 		lwz 9,0(3)
 6565 19b8 80090004 		lwz 0,4(9)
 6566 19bc 7C0903A6 		mtctr 0
 6567 19c0 4E800421 		bctrl
 6568              	.L478:
 6569              		.loc 4 318 0
 6570 19c4 807F0614 		lwz 3,1556(31)
 6571 19c8 2F830000 		cmpwi 7,3,0
 6572 19cc 419E0014 		beq- 7,.L477
 6573 19d0 81230000 		lwz 9,0(3)
 6574 19d4 80090004 		lwz 0,4(9)
 6575 19d8 7C0903A6 		mtctr 0
 6576 19dc 4E800421 		bctrl
 6577              	.L477:
 6578              		.loc 4 319 0
 6579 19e0 807F03A4 		lwz 3,932(31)
 6580 19e4 2F830000 		cmpwi 7,3,0
 6581 19e8 419E0014 		beq- 7,.L473
 6582 19ec 81230000 		lwz 9,0(3)
 6583 19f0 80090004 		lwz 0,4(9)
 6584 19f4 7C0903A6 		mtctr 0
 6585 19f8 4E800421 		bctrl
 6586              	.L473:
 6587              	.LVL489:
 6588              		.loc 4 314 0
 6589 19fc 801D0180 		lwz 0,384(29)
 6590 1a00 2F800000 		cmpwi 7,0,0
 6591 1a04 419E0074 		beq- 7,.L480
 6592              		.loc 4 316 0
 6593 1a08 807F0478 		lwz 3,1144(31)
 6594 1a0c 2F830000 		cmpwi 7,3,0
 6595 1a10 419E0014 		beq- 7,.L486
 6596 1a14 81230000 		lwz 9,0(3)
 6597 1a18 80090004 		lwz 0,4(9)
 6598 1a1c 7C0903A6 		mtctr 0
 6599 1a20 4E800421 		bctrl
 6600              	.L486:
 6601              		.loc 4 317 0
 6602 1a24 807F0548 		lwz 3,1352(31)
 6603 1a28 2F830000 		cmpwi 7,3,0
 6604 1a2c 419E0014 		beq- 7,.L485
 6605 1a30 81230000 		lwz 9,0(3)
 6606 1a34 80090004 		lwz 0,4(9)
 6607 1a38 7C0903A6 		mtctr 0
 6608 1a3c 4E800421 		bctrl
 6609              	.L485:
 6610              		.loc 4 318 0
 6611 1a40 807F0618 		lwz 3,1560(31)
 6612 1a44 2F830000 		cmpwi 7,3,0
 6613 1a48 419E0014 		beq- 7,.L484
 6614 1a4c 81230000 		lwz 9,0(3)
 6615 1a50 80090004 		lwz 0,4(9)
 6616 1a54 7C0903A6 		mtctr 0
 6617 1a58 4E800421 		bctrl
 6618              	.L484:
 6619              		.loc 4 319 0
 6620 1a5c 807F03A8 		lwz 3,936(31)
 6621 1a60 2F830000 		cmpwi 7,3,0
 6622 1a64 419E0014 		beq- 7,.L480
 6623 1a68 81230000 		lwz 9,0(3)
 6624 1a6c 80090004 		lwz 0,4(9)
 6625 1a70 7C0903A6 		mtctr 0
 6626 1a74 4E800421 		bctrl
 6627              	.L480:
 6628              	.LVL490:
 6629              		.loc 4 314 0
 6630 1a78 801D0184 		lwz 0,388(29)
 6631 1a7c 2F800000 		cmpwi 7,0,0
 6632 1a80 419E0074 		beq- 7,.L487
 6633              		.loc 4 316 0
 6634 1a84 807F047C 		lwz 3,1148(31)
 6635 1a88 2F830000 		cmpwi 7,3,0
 6636 1a8c 419E0014 		beq- 7,.L493
 6637 1a90 81230000 		lwz 9,0(3)
 6638 1a94 80090004 		lwz 0,4(9)
 6639 1a98 7C0903A6 		mtctr 0
 6640 1a9c 4E800421 		bctrl
 6641              	.L493:
 6642              		.loc 4 317 0
 6643 1aa0 807F054C 		lwz 3,1356(31)
 6644 1aa4 2F830000 		cmpwi 7,3,0
 6645 1aa8 419E0014 		beq- 7,.L492
 6646 1aac 81230000 		lwz 9,0(3)
 6647 1ab0 80090004 		lwz 0,4(9)
 6648 1ab4 7C0903A6 		mtctr 0
 6649 1ab8 4E800421 		bctrl
 6650              	.L492:
 6651              		.loc 4 318 0
 6652 1abc 807F061C 		lwz 3,1564(31)
 6653 1ac0 2F830000 		cmpwi 7,3,0
 6654 1ac4 419E0014 		beq- 7,.L491
 6655 1ac8 81230000 		lwz 9,0(3)
 6656 1acc 80090004 		lwz 0,4(9)
 6657 1ad0 7C0903A6 		mtctr 0
 6658 1ad4 4E800421 		bctrl
 6659              	.L491:
 6660              		.loc 4 319 0
 6661 1ad8 807F03AC 		lwz 3,940(31)
 6662 1adc 2F830000 		cmpwi 7,3,0
 6663 1ae0 419E0014 		beq- 7,.L487
 6664 1ae4 81230000 		lwz 9,0(3)
 6665 1ae8 80090004 		lwz 0,4(9)
 6666 1aec 7C0903A6 		mtctr 0
 6667 1af0 4E800421 		bctrl
 6668              	.L487:
 6669              	.LVL491:
 6670              		.loc 4 314 0
 6671 1af4 801D0188 		lwz 0,392(29)
 6672 1af8 2F800000 		cmpwi 7,0,0
 6673 1afc 419E0074 		beq- 7,.L494
 6674              		.loc 4 316 0
 6675 1b00 807F0480 		lwz 3,1152(31)
 6676 1b04 2F830000 		cmpwi 7,3,0
 6677 1b08 419E0014 		beq- 7,.L500
 6678 1b0c 81230000 		lwz 9,0(3)
 6679 1b10 80090004 		lwz 0,4(9)
 6680 1b14 7C0903A6 		mtctr 0
 6681 1b18 4E800421 		bctrl
 6682              	.L500:
 6683              		.loc 4 317 0
 6684 1b1c 807F0550 		lwz 3,1360(31)
 6685 1b20 2F830000 		cmpwi 7,3,0
 6686 1b24 419E0014 		beq- 7,.L499
 6687 1b28 81230000 		lwz 9,0(3)
 6688 1b2c 80090004 		lwz 0,4(9)
 6689 1b30 7C0903A6 		mtctr 0
 6690 1b34 4E800421 		bctrl
 6691              	.L499:
 6692              		.loc 4 318 0
 6693 1b38 807F0620 		lwz 3,1568(31)
 6694 1b3c 2F830000 		cmpwi 7,3,0
 6695 1b40 419E0014 		beq- 7,.L498
 6696 1b44 81230000 		lwz 9,0(3)
 6697 1b48 80090004 		lwz 0,4(9)
 6698 1b4c 7C0903A6 		mtctr 0
 6699 1b50 4E800421 		bctrl
 6700              	.L498:
 6701              		.loc 4 319 0
 6702 1b54 807F03B0 		lwz 3,944(31)
 6703 1b58 2F830000 		cmpwi 7,3,0
 6704 1b5c 419E0014 		beq- 7,.L494
 6705 1b60 81230000 		lwz 9,0(3)
 6706 1b64 80090004 		lwz 0,4(9)
 6707 1b68 7C0903A6 		mtctr 0
 6708 1b6c 4E800421 		bctrl
 6709              	.L494:
 6710              	.LVL492:
 6711              		.loc 4 314 0
 6712 1b70 801D018C 		lwz 0,396(29)
 6713 1b74 2F800000 		cmpwi 7,0,0
 6714 1b78 419E0074 		beq- 7,.L501
 6715              		.loc 4 316 0
 6716 1b7c 807F0484 		lwz 3,1156(31)
 6717 1b80 2F830000 		cmpwi 7,3,0
 6718 1b84 419E0014 		beq- 7,.L507
 6719 1b88 81230000 		lwz 9,0(3)
 6720 1b8c 80090004 		lwz 0,4(9)
 6721 1b90 7C0903A6 		mtctr 0
 6722 1b94 4E800421 		bctrl
 6723              	.L507:
 6724              		.loc 4 317 0
 6725 1b98 807F0554 		lwz 3,1364(31)
 6726 1b9c 2F830000 		cmpwi 7,3,0
 6727 1ba0 419E0014 		beq- 7,.L506
 6728 1ba4 81230000 		lwz 9,0(3)
 6729 1ba8 80090004 		lwz 0,4(9)
 6730 1bac 7C0903A6 		mtctr 0
 6731 1bb0 4E800421 		bctrl
 6732              	.L506:
 6733              		.loc 4 318 0
 6734 1bb4 807F0624 		lwz 3,1572(31)
 6735 1bb8 2F830000 		cmpwi 7,3,0
 6736 1bbc 419E0014 		beq- 7,.L505
 6737 1bc0 81230000 		lwz 9,0(3)
 6738 1bc4 80090004 		lwz 0,4(9)
 6739 1bc8 7C0903A6 		mtctr 0
 6740 1bcc 4E800421 		bctrl
 6741              	.L505:
 6742              		.loc 4 319 0
 6743 1bd0 807F03B4 		lwz 3,948(31)
 6744 1bd4 2F830000 		cmpwi 7,3,0
 6745 1bd8 419E0014 		beq- 7,.L501
 6746 1bdc 81230000 		lwz 9,0(3)
 6747 1be0 80090004 		lwz 0,4(9)
 6748 1be4 7C0903A6 		mtctr 0
 6749 1be8 4E800421 		bctrl
 6750              	.L501:
 6751              	.LVL493:
 6752              		.loc 4 314 0
 6753 1bec 801D0190 		lwz 0,400(29)
 6754 1bf0 2F800000 		cmpwi 7,0,0
 6755 1bf4 419E0074 		beq- 7,.L508
 6756              		.loc 4 316 0
 6757 1bf8 807F0488 		lwz 3,1160(31)
 6758 1bfc 2F830000 		cmpwi 7,3,0
 6759 1c00 419E0014 		beq- 7,.L514
 6760 1c04 81230000 		lwz 9,0(3)
 6761 1c08 80090004 		lwz 0,4(9)
 6762 1c0c 7C0903A6 		mtctr 0
 6763 1c10 4E800421 		bctrl
 6764              	.L514:
 6765              		.loc 4 317 0
 6766 1c14 807F0558 		lwz 3,1368(31)
 6767 1c18 2F830000 		cmpwi 7,3,0
 6768 1c1c 419E0014 		beq- 7,.L513
 6769 1c20 81230000 		lwz 9,0(3)
 6770 1c24 80090004 		lwz 0,4(9)
 6771 1c28 7C0903A6 		mtctr 0
 6772 1c2c 4E800421 		bctrl
 6773              	.L513:
 6774              		.loc 4 318 0
 6775 1c30 807F0628 		lwz 3,1576(31)
 6776 1c34 2F830000 		cmpwi 7,3,0
 6777 1c38 419E0014 		beq- 7,.L512
 6778 1c3c 81230000 		lwz 9,0(3)
 6779 1c40 80090004 		lwz 0,4(9)
 6780 1c44 7C0903A6 		mtctr 0
 6781 1c48 4E800421 		bctrl
 6782              	.L512:
 6783              		.loc 4 319 0
 6784 1c4c 807F03B8 		lwz 3,952(31)
 6785 1c50 2F830000 		cmpwi 7,3,0
 6786 1c54 419E0014 		beq- 7,.L508
 6787 1c58 81230000 		lwz 9,0(3)
 6788 1c5c 80090004 		lwz 0,4(9)
 6789 1c60 7C0903A6 		mtctr 0
 6790 1c64 4E800421 		bctrl
 6791              	.L508:
 6792              	.LVL494:
 6793              		.loc 4 314 0
 6794 1c68 801D0194 		lwz 0,404(29)
 6795 1c6c 2F800000 		cmpwi 7,0,0
 6796 1c70 419E0074 		beq- 7,.L515
 6797              		.loc 4 316 0
 6798 1c74 807F048C 		lwz 3,1164(31)
 6799 1c78 2F830000 		cmpwi 7,3,0
 6800 1c7c 419E0014 		beq- 7,.L521
 6801 1c80 81230000 		lwz 9,0(3)
 6802 1c84 80090004 		lwz 0,4(9)
 6803 1c88 7C0903A6 		mtctr 0
 6804 1c8c 4E800421 		bctrl
 6805              	.L521:
 6806              		.loc 4 317 0
 6807 1c90 807F055C 		lwz 3,1372(31)
 6808 1c94 2F830000 		cmpwi 7,3,0
 6809 1c98 419E0014 		beq- 7,.L520
 6810 1c9c 81230000 		lwz 9,0(3)
 6811 1ca0 80090004 		lwz 0,4(9)
 6812 1ca4 7C0903A6 		mtctr 0
 6813 1ca8 4E800421 		bctrl
 6814              	.L520:
 6815              		.loc 4 318 0
 6816 1cac 807F062C 		lwz 3,1580(31)
 6817 1cb0 2F830000 		cmpwi 7,3,0
 6818 1cb4 419E0014 		beq- 7,.L519
 6819 1cb8 81230000 		lwz 9,0(3)
 6820 1cbc 80090004 		lwz 0,4(9)
 6821 1cc0 7C0903A6 		mtctr 0
 6822 1cc4 4E800421 		bctrl
 6823              	.L519:
 6824              		.loc 4 319 0
 6825 1cc8 807F03BC 		lwz 3,956(31)
 6826 1ccc 2F830000 		cmpwi 7,3,0
 6827 1cd0 419E0014 		beq- 7,.L515
 6828 1cd4 81230000 		lwz 9,0(3)
 6829 1cd8 80090004 		lwz 0,4(9)
 6830 1cdc 7C0903A6 		mtctr 0
 6831 1ce0 4E800421 		bctrl
 6832              	.L515:
 6833              	.LVL495:
 6834              		.loc 4 314 0
 6835 1ce4 801D0198 		lwz 0,408(29)
 6836 1ce8 2F800000 		cmpwi 7,0,0
 6837 1cec 419E0074 		beq- 7,.L522
 6838              		.loc 4 316 0
 6839 1cf0 807F0490 		lwz 3,1168(31)
 6840 1cf4 2F830000 		cmpwi 7,3,0
 6841 1cf8 419E0014 		beq- 7,.L528
 6842 1cfc 81230000 		lwz 9,0(3)
 6843 1d00 80090004 		lwz 0,4(9)
 6844 1d04 7C0903A6 		mtctr 0
 6845 1d08 4E800421 		bctrl
 6846              	.L528:
 6847              		.loc 4 317 0
 6848 1d0c 807F0560 		lwz 3,1376(31)
 6849 1d10 2F830000 		cmpwi 7,3,0
 6850 1d14 419E0014 		beq- 7,.L527
 6851 1d18 81230000 		lwz 9,0(3)
 6852 1d1c 80090004 		lwz 0,4(9)
 6853 1d20 7C0903A6 		mtctr 0
 6854 1d24 4E800421 		bctrl
 6855              	.L527:
 6856              		.loc 4 318 0
 6857 1d28 807F0630 		lwz 3,1584(31)
 6858 1d2c 2F830000 		cmpwi 7,3,0
 6859 1d30 419E0014 		beq- 7,.L526
 6860 1d34 81230000 		lwz 9,0(3)
 6861 1d38 80090004 		lwz 0,4(9)
 6862 1d3c 7C0903A6 		mtctr 0
 6863 1d40 4E800421 		bctrl
 6864              	.L526:
 6865              		.loc 4 319 0
 6866 1d44 807F03C0 		lwz 3,960(31)
 6867 1d48 2F830000 		cmpwi 7,3,0
 6868 1d4c 419E0014 		beq- 7,.L522
 6869 1d50 81230000 		lwz 9,0(3)
 6870 1d54 80090004 		lwz 0,4(9)
 6871 1d58 7C0903A6 		mtctr 0
 6872 1d5c 4E800421 		bctrl
 6873              	.L522:
 6874              	.LVL496:
 6875              		.loc 4 314 0
 6876 1d60 801D019C 		lwz 0,412(29)
 6877 1d64 2F800000 		cmpwi 7,0,0
 6878 1d68 419E0074 		beq- 7,.L529
 6879              		.loc 4 316 0
 6880 1d6c 807F0494 		lwz 3,1172(31)
 6881 1d70 2F830000 		cmpwi 7,3,0
 6882 1d74 419E0014 		beq- 7,.L535
 6883 1d78 81230000 		lwz 9,0(3)
 6884 1d7c 80090004 		lwz 0,4(9)
 6885 1d80 7C0903A6 		mtctr 0
 6886 1d84 4E800421 		bctrl
 6887              	.L535:
 6888              		.loc 4 317 0
 6889 1d88 807F0564 		lwz 3,1380(31)
 6890 1d8c 2F830000 		cmpwi 7,3,0
 6891 1d90 419E0014 		beq- 7,.L534
 6892 1d94 81230000 		lwz 9,0(3)
 6893 1d98 80090004 		lwz 0,4(9)
 6894 1d9c 7C0903A6 		mtctr 0
 6895 1da0 4E800421 		bctrl
 6896              	.L534:
 6897              		.loc 4 318 0
 6898 1da4 807F0634 		lwz 3,1588(31)
 6899 1da8 2F830000 		cmpwi 7,3,0
 6900 1dac 419E0014 		beq- 7,.L533
 6901 1db0 81230000 		lwz 9,0(3)
 6902 1db4 80090004 		lwz 0,4(9)
 6903 1db8 7C0903A6 		mtctr 0
 6904 1dbc 4E800421 		bctrl
 6905              	.L533:
 6906              		.loc 4 319 0
 6907 1dc0 807F03C4 		lwz 3,964(31)
 6908 1dc4 2F830000 		cmpwi 7,3,0
 6909 1dc8 419E0014 		beq- 7,.L529
 6910 1dcc 81230000 		lwz 9,0(3)
 6911 1dd0 80090004 		lwz 0,4(9)
 6912 1dd4 7C0903A6 		mtctr 0
 6913 1dd8 4E800421 		bctrl
 6914              	.L529:
 6915              	.LVL497:
 6916              		.loc 4 314 0
 6917 1ddc 801D01A0 		lwz 0,416(29)
 6918 1de0 2F800000 		cmpwi 7,0,0
 6919 1de4 419E0074 		beq- 7,.L536
 6920              		.loc 4 316 0
 6921 1de8 807F0498 		lwz 3,1176(31)
 6922 1dec 2F830000 		cmpwi 7,3,0
 6923 1df0 419E0014 		beq- 7,.L542
 6924 1df4 81230000 		lwz 9,0(3)
 6925 1df8 80090004 		lwz 0,4(9)
 6926 1dfc 7C0903A6 		mtctr 0
 6927 1e00 4E800421 		bctrl
 6928              	.L542:
 6929              		.loc 4 317 0
 6930 1e04 807F0568 		lwz 3,1384(31)
 6931 1e08 2F830000 		cmpwi 7,3,0
 6932 1e0c 419E0014 		beq- 7,.L541
 6933 1e10 81230000 		lwz 9,0(3)
 6934 1e14 80090004 		lwz 0,4(9)
 6935 1e18 7C0903A6 		mtctr 0
 6936 1e1c 4E800421 		bctrl
 6937              	.L541:
 6938              		.loc 4 318 0
 6939 1e20 807F0638 		lwz 3,1592(31)
 6940 1e24 2F830000 		cmpwi 7,3,0
 6941 1e28 419E0014 		beq- 7,.L540
 6942 1e2c 81230000 		lwz 9,0(3)
 6943 1e30 80090004 		lwz 0,4(9)
 6944 1e34 7C0903A6 		mtctr 0
 6945 1e38 4E800421 		bctrl
 6946              	.L540:
 6947              		.loc 4 319 0
 6948 1e3c 807F03C8 		lwz 3,968(31)
 6949 1e40 2F830000 		cmpwi 7,3,0
 6950 1e44 419E0014 		beq- 7,.L536
 6951 1e48 81230000 		lwz 9,0(3)
 6952 1e4c 80090004 		lwz 0,4(9)
 6953 1e50 7C0903A6 		mtctr 0
 6954 1e54 4E800421 		bctrl
 6955              	.L536:
 6956              	.LVL498:
 6957              		.loc 4 314 0
 6958 1e58 801D01A4 		lwz 0,420(29)
 6959 1e5c 2F800000 		cmpwi 7,0,0
 6960 1e60 419E0074 		beq- 7,.L543
 6961              		.loc 4 316 0
 6962 1e64 807F049C 		lwz 3,1180(31)
 6963 1e68 2F830000 		cmpwi 7,3,0
 6964 1e6c 419E0014 		beq- 7,.L549
 6965 1e70 81230000 		lwz 9,0(3)
 6966 1e74 80090004 		lwz 0,4(9)
 6967 1e78 7C0903A6 		mtctr 0
 6968 1e7c 4E800421 		bctrl
 6969              	.L549:
 6970              		.loc 4 317 0
 6971 1e80 807F056C 		lwz 3,1388(31)
 6972 1e84 2F830000 		cmpwi 7,3,0
 6973 1e88 419E0014 		beq- 7,.L548
 6974 1e8c 81230000 		lwz 9,0(3)
 6975 1e90 80090004 		lwz 0,4(9)
 6976 1e94 7C0903A6 		mtctr 0
 6977 1e98 4E800421 		bctrl
 6978              	.L548:
 6979              		.loc 4 318 0
 6980 1e9c 807F063C 		lwz 3,1596(31)
 6981 1ea0 2F830000 		cmpwi 7,3,0
 6982 1ea4 419E0014 		beq- 7,.L547
 6983 1ea8 81230000 		lwz 9,0(3)
 6984 1eac 80090004 		lwz 0,4(9)
 6985 1eb0 7C0903A6 		mtctr 0
 6986 1eb4 4E800421 		bctrl
 6987              	.L547:
 6988              		.loc 4 319 0
 6989 1eb8 807F03CC 		lwz 3,972(31)
 6990 1ebc 2F830000 		cmpwi 7,3,0
 6991 1ec0 419E0014 		beq- 7,.L543
 6992 1ec4 81230000 		lwz 9,0(3)
 6993 1ec8 80090004 		lwz 0,4(9)
 6994 1ecc 7C0903A6 		mtctr 0
 6995 1ed0 4E800421 		bctrl
 6996              	.L543:
 6997              	.LVL499:
 6998              		.loc 4 314 0
 6999 1ed4 801D01A8 		lwz 0,424(29)
 7000 1ed8 2F800000 		cmpwi 7,0,0
 7001 1edc 419E0074 		beq- 7,.L550
 7002              		.loc 4 316 0
 7003 1ee0 807F04A0 		lwz 3,1184(31)
 7004 1ee4 2F830000 		cmpwi 7,3,0
 7005 1ee8 419E0014 		beq- 7,.L556
 7006 1eec 81230000 		lwz 9,0(3)
 7007 1ef0 80090004 		lwz 0,4(9)
 7008 1ef4 7C0903A6 		mtctr 0
 7009 1ef8 4E800421 		bctrl
