	.file	"gui_keyboard.cpp"
	.section	".text"
.Ltext0:
	.section	.text._ZN7sigslot15single_threadedD2Ev,"axG",@progbits,_ZN7sigslot15single_threadedD5Ev,comdat
	.align 2
	.weak	_ZN7sigslot15single_threadedD2Ev
	.type	_ZN7sigslot15single_threadedD2Ev, @function
_ZN7sigslot15single_threadedD2Ev:
.LFB1148:
	.file 1 "d:/Projects/SaveGameManager/savegame-manager-gx/trunk/source/GUI/../sigslot.h"
	.loc 1 104 0
	.cfi_startproc
.LVL0:
.LBB2049:
	.loc 1 105 0
	lis 9,_ZTVN7sigslot15single_threadedE+8@ha
.LBE2049:
	.loc 1 107 0
.LBB2050:
	.loc 1 105 0
	la 0,_ZTVN7sigslot15single_threadedE+8@l(9)
	stw 0,0(3)
.LBE2050:
	.loc 1 107 0
	blr
	.cfi_endproc
.LFE1148:
	.size	_ZN7sigslot15single_threadedD2Ev, .-_ZN7sigslot15single_threadedD2Ev
	.section	.text._ZN7sigslot15single_threaded4lockEv,"axG",@progbits,_ZN7sigslot15single_threaded4lockEv,comdat
	.align 2
	.weak	_ZN7sigslot15single_threaded4lockEv
	.type	_ZN7sigslot15single_threaded4lockEv, @function
_ZN7sigslot15single_threaded4lockEv:
.LFB1151:
	.loc 1 109 0
	.cfi_startproc
.LVL1:
	.loc 1 112 0
	blr
	.cfi_endproc
.LFE1151:
	.size	_ZN7sigslot15single_threaded4lockEv, .-_ZN7sigslot15single_threaded4lockEv
	.section	.text._ZN7sigslot15single_threaded6unlockEv,"axG",@progbits,_ZN7sigslot15single_threaded6unlockEv,comdat
	.align 2
	.weak	_ZN7sigslot15single_threaded6unlockEv
	.type	_ZN7sigslot15single_threaded6unlockEv, @function
_ZN7sigslot15single_threaded6unlockEv:
.LFB1152:
	.loc 1 114 0
	.cfi_startproc
.LVL2:
	.loc 1 117 0
	blr
	.cfi_endproc
.LFE1152:
	.size	_ZN7sigslot15single_threaded6unlockEv, .-_ZN7sigslot15single_threaded6unlockEv
	.section	.text._ZN10GuiElement9SetParentEPS_,"axG",@progbits,_ZN10GuiElement9SetParentEPS_,comdat
	.align 2
	.weak	_ZN10GuiElement9SetParentEPS_
	.type	_ZN10GuiElement9SetParentEPS_, @function
_ZN10GuiElement9SetParentEPS_:
.LFB1384:
	.file 2 "d:/Projects/SaveGameManager/savegame-manager-gx/trunk/source/GUI/gui_element.h"
	.loc 2 92 0
	.cfi_startproc
.LVL3:
	.loc 2 92 0
	stw 4,96(3)
	blr
	.cfi_endproc
.LFE1384:
	.size	_ZN10GuiElement9SetParentEPS_, .-_ZN10GuiElement9SetParentEPS_
	.section	.text._ZN10GuiElement9GetParentEv,"axG",@progbits,_ZN10GuiElement9GetParentEv,comdat
	.align 2
	.weak	_ZN10GuiElement9GetParentEv
	.type	_ZN10GuiElement9GetParentEv, @function
_ZN10GuiElement9GetParentEv:
.LFB1385:
	.loc 2 95 0
	.cfi_startproc
.LVL4:
	.loc 2 95 0
	lwz 3,96(3)
.LVL5:
	blr
	.cfi_endproc
.LFE1385:
	.size	_ZN10GuiElement9GetParentEv, .-_ZN10GuiElement9GetParentEv
	.section	.text._ZN10GuiElement12GetZPositionEv,"axG",@progbits,_ZN10GuiElement12GetZPositionEv,comdat
	.align 2
	.weak	_ZN10GuiElement12GetZPositionEv
	.type	_ZN10GuiElement12GetZPositionEv, @function
_ZN10GuiElement12GetZPositionEv:
.LFB1386:
	.loc 2 106 0
	.cfi_startproc
.LVL6:
	mflr 0
	stwu 1,-16(1)
.LCFI0:
	.cfi_def_cfa_offset 16
	.cfi_register 65, 0
	stw 31,12(1)
	mr 31,3
	.cfi_offset 31, -4
	stw 0,20(1)
.LBB2051:
	.loc 2 110 0
	lwz 11,96(3)
	.loc 2 108 0
	li 3,0
.LVL7:
	.loc 2 110 0
	cmpwi 7,11,0
	beq- 7,.L8
	.cfi_offset 65, 4
	.loc 2 111 0
	lwz 9,0(11)
	mr 3,11
	lwz 0,24(9)
	mtctr 0
	bctrl
.LVL8:
.L8:
	.loc 2 113 0
	lwz 0,52(31)
.LBE2051:
	.loc 2 114 0
	lwz 31,12(1)
.LVL9:
	add 3,3,0
.LVL10:
	lwz 0,20(1)
	addi 1,1,16
.LCFI1:
	.cfi_def_cfa_offset 0
	.cfi_restore 31
	mtlr 0
	blr
	.cfi_endproc
.LFE1386:
	.size	_ZN10GuiElement12GetZPositionEv, .-_ZN10GuiElement12GetZPositionEv
	.section	.text._ZN10GuiElement10GetLeftPosEv,"axG",@progbits,_ZN10GuiElement10GetLeftPosEv,comdat
	.align 2
	.weak	_ZN10GuiElement10GetLeftPosEv
	.type	_ZN10GuiElement10GetLeftPosEv, @function
_ZN10GuiElement10GetLeftPosEv:
.LFB1387:
	.loc 2 116 0
	.cfi_startproc
.LVL11:
	.loc 2 116 0
	lwz 3,44(3)
.LVL12:
	blr
	.cfi_endproc
.LFE1387:
	.size	_ZN10GuiElement10GetLeftPosEv, .-_ZN10GuiElement10GetLeftPosEv
	.section	.text._ZN10GuiElement9GetTopPosEv,"axG",@progbits,_ZN10GuiElement9GetTopPosEv,comdat
	.align 2
	.weak	_ZN10GuiElement9GetTopPosEv
	.type	_ZN10GuiElement9GetTopPosEv, @function
_ZN10GuiElement9GetTopPosEv:
.LFB1388:
	.loc 2 118 0
	.cfi_startproc
.LVL13:
	.loc 2 118 0
	lwz 3,48(3)
.LVL14:
	blr
	.cfi_endproc
.LFE1388:
	.size	_ZN10GuiElement9GetTopPosEv, .-_ZN10GuiElement9GetTopPosEv
	.section	.text._ZN10GuiElement8GetWidthEv,"axG",@progbits,_ZN10GuiElement8GetWidthEv,comdat
	.align 2
	.weak	_ZN10GuiElement8GetWidthEv
	.type	_ZN10GuiElement8GetWidthEv, @function
_ZN10GuiElement8GetWidthEv:
.LFB1389:
	.loc 2 121 0
	.cfi_startproc
.LVL15:
	.loc 2 121 0
	lwz 3,36(3)
.LVL16:
	blr
	.cfi_endproc
.LFE1389:
	.size	_ZN10GuiElement8GetWidthEv, .-_ZN10GuiElement8GetWidthEv
	.section	.text._ZN10GuiElement9GetHeightEv,"axG",@progbits,_ZN10GuiElement9GetHeightEv,comdat
	.align 2
	.weak	_ZN10GuiElement9GetHeightEv
	.type	_ZN10GuiElement9GetHeightEv, @function
_ZN10GuiElement9GetHeightEv:
.LFB1390:
	.loc 2 124 0
	.cfi_startproc
.LVL17:
	.loc 2 124 0
	lwz 3,40(3)
.LVL18:
	blr
	.cfi_endproc
.LFE1390:
	.size	_ZN10GuiElement9GetHeightEv, .-_ZN10GuiElement9GetHeightEv
	.section	.text._ZN10GuiElement7SetSizeEii,"axG",@progbits,_ZN10GuiElement7SetSizeEii,comdat
	.align 2
	.weak	_ZN10GuiElement7SetSizeEii
	.type	_ZN10GuiElement7SetSizeEii, @function
_ZN10GuiElement7SetSizeEii:
.LFB1391:
	.loc 2 128 0
	.cfi_startproc
.LVL19:
	.loc 2 130 0
	stw 4,36(3)
	.loc 2 132 0
	.loc 2 131 0
	stw 5,40(3)
	.loc 2 132 0
	blr
	.cfi_endproc
.LFE1391:
	.size	_ZN10GuiElement7SetSizeEii, .-_ZN10GuiElement7SetSizeEii
	.section	.text._ZN10GuiElement9IsVisibleEv,"axG",@progbits,_ZN10GuiElement9IsVisibleEv,comdat
	.align 2
	.weak	_ZN10GuiElement9IsVisibleEv
	.type	_ZN10GuiElement9IsVisibleEv, @function
_ZN10GuiElement9IsVisibleEv:
.LFB1393:
	.loc 2 142 0
	.cfi_startproc
.LVL20:
	.loc 2 142 0
	lbz 3,29(3)
.LVL21:
	blr
	.cfi_endproc
.LFE1393:
	.size	_ZN10GuiElement9IsVisibleEv, .-_ZN10GuiElement9IsVisibleEv
	.section	.text._ZN10GuiElement12IsSelectableEv,"axG",@progbits,_ZN10GuiElement12IsSelectableEv,comdat
	.align 2
	.weak	_ZN10GuiElement12IsSelectableEv
	.type	_ZN10GuiElement12IsSelectableEv, @function
_ZN10GuiElement12IsSelectableEv:
.LFB1394:
	.loc 2 145 0
	.cfi_startproc
.LVL22:
	.loc 2 149 0
	lwz 0,72(3)
	li 9,0
	cmpwi 7,0,4
	beq- 7,.L18
	.loc 2 149 0 is_stmt 0 discriminator 1
	cmpwi 7,0,2
	beq- 7,.L18
	.loc 2 149 0 discriminator 3
	lbz 9,30(3)
.L18:
	.loc 2 150 0 is_stmt 1 discriminator 5
	mr 3,9
.LVL23:
	blr
	.cfi_endproc
.LFE1394:
	.size	_ZN10GuiElement12IsSelectableEv, .-_ZN10GuiElement12IsSelectableEv
	.section	.text._ZN10GuiElement11IsClickableEv,"axG",@progbits,_ZN10GuiElement11IsClickableEv,comdat
	.align 2
	.weak	_ZN10GuiElement11IsClickableEv
	.type	_ZN10GuiElement11IsClickableEv, @function
_ZN10GuiElement11IsClickableEv:
.LFB1395:
	.loc 2 153 0
	.cfi_startproc
.LVL24:
	.loc 2 158 0
	lwz 0,72(3)
	li 9,0
	cmpwi 7,0,4
	beq- 7,.L22
	.loc 2 158 0 is_stmt 0 discriminator 1
	cmpwi 7,0,2
	beq- 7,.L22
	.loc 2 158 0 discriminator 3
	cmpwi 7,0,3
	beq- 7,.L22
	.loc 2 158 0 discriminator 4
	lbz 9,31(3)
.L22:
	.loc 2 159 0 is_stmt 1 discriminator 6
	mr 3,9
.LVL25:
	blr
	.cfi_endproc
.LFE1395:
	.size	_ZN10GuiElement11IsClickableEv, .-_ZN10GuiElement11IsClickableEv
	.section	.text._ZN10GuiElement10IsHoldableEv,"axG",@progbits,_ZN10GuiElement10IsHoldableEv,comdat
	.align 2
	.weak	_ZN10GuiElement10IsHoldableEv
	.type	_ZN10GuiElement10IsHoldableEv, @function
_ZN10GuiElement10IsHoldableEv:
.LFB1396:
	.loc 2 162 0
	.cfi_startproc
.LVL26:
	.loc 2 162 0
	lwz 9,72(3)
	li 0,0
	cmpwi 7,9,4
	beq- 7,.L27
	.loc 2 162 0 is_stmt 0 discriminator 1
	lbz 0,32(3)
.L27:
	.loc 2 162 0 discriminator 4
	mr 3,0
.LVL27:
	blr
	.cfi_endproc
.LFE1396:
	.size	_ZN10GuiElement10IsHoldableEv, .-_ZN10GuiElement10IsHoldableEv
	.section	.text._ZN10GuiElement13SetSelectableEb,"axG",@progbits,_ZN10GuiElement13SetSelectableEb,comdat
	.align 2
	.weak	_ZN10GuiElement13SetSelectableEb
	.type	_ZN10GuiElement13SetSelectableEb, @function
_ZN10GuiElement13SetSelectableEb:
.LFB1397:
	.loc 2 165 0 is_stmt 1
	.cfi_startproc
.LVL28:
	.loc 2 165 0
	stb 4,30(3)
	blr
	.cfi_endproc
.LFE1397:
	.size	_ZN10GuiElement13SetSelectableEb, .-_ZN10GuiElement13SetSelectableEb
	.section	.text._ZN10GuiElement12SetClickableEb,"axG",@progbits,_ZN10GuiElement12SetClickableEb,comdat
	.align 2
	.weak	_ZN10GuiElement12SetClickableEb
	.type	_ZN10GuiElement12SetClickableEb, @function
_ZN10GuiElement12SetClickableEb:
.LFB1398:
	.loc 2 168 0
	.cfi_startproc
.LVL29:
	.loc 2 168 0
	stb 4,31(3)
	blr
	.cfi_endproc
.LFE1398:
	.size	_ZN10GuiElement12SetClickableEb, .-_ZN10GuiElement12SetClickableEb
	.section	.text._ZN10GuiElement11SetHoldableEb,"axG",@progbits,_ZN10GuiElement11SetHoldableEb,comdat
	.align 2
	.weak	_ZN10GuiElement11SetHoldableEb
	.type	_ZN10GuiElement11SetHoldableEb, @function
_ZN10GuiElement11SetHoldableEb:
.LFB1399:
	.loc 2 171 0
	.cfi_startproc
.LVL30:
	.loc 2 171 0
	stb 4,32(3)
	blr
	.cfi_endproc
.LFE1399:
	.size	_ZN10GuiElement11SetHoldableEb, .-_ZN10GuiElement11SetHoldableEb
	.section	.text._ZN10GuiElement8GetStateEv,"axG",@progbits,_ZN10GuiElement8GetStateEv,comdat
	.align 2
	.weak	_ZN10GuiElement8GetStateEv
	.type	_ZN10GuiElement8GetStateEv, @function
_ZN10GuiElement8GetStateEv:
.LFB1400:
	.loc 2 178 0
	.cfi_startproc
.LVL31:
	.loc 2 178 0
	lwz 3,72(3)
.LVL32:
	blr
	.cfi_endproc
.LFE1400:
	.size	_ZN10GuiElement8GetStateEv, .-_ZN10GuiElement8GetStateEv
	.section	.text._ZN10GuiElement12GetStateChanEv,"axG",@progbits,_ZN10GuiElement12GetStateChanEv,comdat
	.align 2
	.weak	_ZN10GuiElement12GetStateChanEv
	.type	_ZN10GuiElement12GetStateChanEv, @function
_ZN10GuiElement12GetStateChanEv:
.LFB1401:
	.loc 2 181 0
	.cfi_startproc
.LVL33:
	.loc 2 181 0
	lwz 3,76(3)
.LVL34:
	blr
	.cfi_endproc
.LFE1401:
	.size	_ZN10GuiElement12GetStateChanEv, .-_ZN10GuiElement12GetStateChanEv
	.section	.text._ZN10GuiElement8SetAlphaEi,"axG",@progbits,_ZN10GuiElement8SetAlphaEi,comdat
	.align 2
	.weak	_ZN10GuiElement8SetAlphaEi
	.type	_ZN10GuiElement8SetAlphaEi, @function
_ZN10GuiElement8SetAlphaEi:
.LFB1403:
	.loc 2 190 0
	.cfi_startproc
.LVL35:
	.loc 2 190 0
	stw 4,56(3)
	blr
	.cfi_endproc
.LFE1403:
	.size	_ZN10GuiElement8SetAlphaEi, .-_ZN10GuiElement8SetAlphaEi
	.section	.text._ZN10GuiElement8GetAlphaEv,"axG",@progbits,_ZN10GuiElement8GetAlphaEv,comdat
	.align 2
	.weak	_ZN10GuiElement8GetAlphaEv
	.type	_ZN10GuiElement8GetAlphaEv, @function
_ZN10GuiElement8GetAlphaEv:
.LFB1404:
	.loc 2 194 0
	.cfi_startproc
.LVL36:
	mflr 0
	stwu 1,-40(1)
.LCFI2:
	.cfi_def_cfa_offset 40
	.cfi_register 65, 0
	stw 31,36(1)
	stw 0,44(1)
.LBB2052:
	.loc 2 198 0
	lwz 31,108(3)
	.cfi_offset 65, 4
	.cfi_offset 31, -4
	cmpwi 7,31,0
	blt- 7,.L38
.L36:
.LVL37:
	.loc 2 203 0
	lwz 3,96(3)
.LVL38:
	cmpwi 7,3,0
	beq- 7,.L37
	.loc 2 204 0
	lwz 9,0(3)
	xoris 31,31,0x8000
.LVL39:
	lwz 0,100(9)
	mtctr 0
	bctrl
	lis 0,0x4330
	xoris 3,3,0x8000
	stw 0,16(1)
	stw 3,20(1)
	lis 9,.LC1@ha
	lfs 0,.LC1@l(9)
	lis 9,.LC2@ha
	lfd 13,16(1)
	lfs 12,.LC2@l(9)
	addi 9,1,24
	fsub 13,13,0
	stw 31,12(1)
	stw 0,8(1)
	frsp 13,13
	fdivs 13,13,12
	lfd 12,8(1)
	fsub 0,12,0
	frsp 0,0
	fmuls 0,0,13
	fctiwz 0,0
	stfiwx 0,0,9
	lwz 31,24(1)
.LVL40:
.L37:
.LBE2052:
	.loc 2 207 0
	lwz 0,44(1)
	mr 3,31
	lwz 31,36(1)
.LVL41:
	mtlr 0
	addi 1,1,40
	.cfi_remember_state
.LCFI3:
	.cfi_def_cfa_offset 0
	.cfi_restore 31
	blr
.LVL42:
.L38:
.LCFI4:
	.cfi_restore_state
.LBB2053:
	.loc 2 201 0
	lwz 31,56(3)
.LVL43:
	b .L36
.LBE2053:
	.cfi_endproc
.LFE1404:
	.size	_ZN10GuiElement8GetAlphaEv, .-_ZN10GuiElement8GetAlphaEv
	.section	.text._ZN10GuiElement8SetScaleEf,"axG",@progbits,_ZN10GuiElement8SetScaleEf,comdat
	.align 2
	.weak	_ZN10GuiElement8SetScaleEf
	.type	_ZN10GuiElement8SetScaleEf, @function
_ZN10GuiElement8SetScaleEf:
.LFB1405:
	.loc 2 210 0
	.cfi_startproc
.LVL44:
	.loc 2 212 0
	stfs 1,60(3)
	.loc 2 214 0
	.loc 2 213 0
	stfs 1,64(3)
	.loc 2 214 0
	blr
	.cfi_endproc
.LFE1405:
	.size	_ZN10GuiElement8SetScaleEf, .-_ZN10GuiElement8SetScaleEf
	.section	.text._ZN10GuiElement9SetScaleXEf,"axG",@progbits,_ZN10GuiElement9SetScaleXEf,comdat
	.align 2
	.weak	_ZN10GuiElement9SetScaleXEf
	.type	_ZN10GuiElement9SetScaleXEf, @function
_ZN10GuiElement9SetScaleXEf:
.LFB1406:
	.loc 2 217 0
	.cfi_startproc
.LVL45:
	.loc 2 217 0
	stfs 1,60(3)
	blr
	.cfi_endproc
.LFE1406:
	.size	_ZN10GuiElement9SetScaleXEf, .-_ZN10GuiElement9SetScaleXEf
	.section	.text._ZN10GuiElement9SetScaleYEf,"axG",@progbits,_ZN10GuiElement9SetScaleYEf,comdat
	.align 2
	.weak	_ZN10GuiElement9SetScaleYEf
	.type	_ZN10GuiElement9SetScaleYEf, @function
_ZN10GuiElement9SetScaleYEf:
.LFB1407:
	.loc 2 220 0
	.cfi_startproc
.LVL46:
	.loc 2 220 0
	stfs 1,64(3)
	blr
	.cfi_endproc
.LFE1407:
	.size	_ZN10GuiElement9SetScaleYEf, .-_ZN10GuiElement9SetScaleYEf
	.section	.text._ZN10GuiElement8GetScaleEv,"axG",@progbits,_ZN10GuiElement8GetScaleEv,comdat
	.align 2
	.weak	_ZN10GuiElement8GetScaleEv
	.type	_ZN10GuiElement8GetScaleEv, @function
_ZN10GuiElement8GetScaleEv:
.LFB1408:
	.loc 2 223 0
	.cfi_startproc
.LVL47:
	mflr 0
	stwu 1,-16(1)
.LCFI5:
	.cfi_def_cfa_offset 16
	.cfi_register 65, 0
.LBB2054:
	.loc 2 225 0
	lis 9,.LC3@ha
.LBE2054:
	.loc 2 223 0
	stfd 31,8(1)
	stw 0,20(1)
.LBB2055:
	.loc 2 225 0
	lfs 0,64(3)
	lfs 31,60(3)
	.cfi_offset 65, 4
	.cfi_offset 63, -8
	.loc 2 227 0
	lwz 11,96(3)
	.loc 2 225 0
	fadds 31,31,0
	lfs 0,.LC3@l(9)
	.loc 2 227 0
	cmpwi 7,11,0
	.loc 2 225 0
	fmuls 31,31,0
	lfs 0,112(3)
	fmuls 31,31,0
.LVL48:
	.loc 2 227 0
	beq- 7,.L43
	.loc 2 228 0
	lwz 9,0(11)
	mr 3,11
.LVL49:
	lwz 0,116(9)
	mtctr 0
	bctrl
	fmuls 31,31,1
.LVL50:
.L43:
.LBE2055:
	.loc 2 231 0
	lwz 0,20(1)
	fmr 1,31
	lfd 31,8(1)
.LVL51:
	mtlr 0
	addi 1,1,16
.LCFI6:
	.cfi_def_cfa_offset 0
	.cfi_restore 63
	blr
	.cfi_endproc
.LFE1408:
	.size	_ZN10GuiElement8GetScaleEv, .-_ZN10GuiElement8GetScaleEv
	.section	.text._ZN10GuiElement9GetScaleXEv,"axG",@progbits,_ZN10GuiElement9GetScaleXEv,comdat
	.align 2
	.weak	_ZN10GuiElement9GetScaleXEv
	.type	_ZN10GuiElement9GetScaleXEv, @function
_ZN10GuiElement9GetScaleXEv:
.LFB1409:
	.loc 2 234 0
	.cfi_startproc
.LVL52:
	mflr 0
	stwu 1,-16(1)
.LCFI7:
	.cfi_def_cfa_offset 16
	.cfi_register 65, 0
	stfd 31,8(1)
	stw 0,20(1)
.LBB2056:
	.loc 2 238 0
	lwz 11,96(3)
	.loc 2 236 0
	lfs 31,60(3)
	.cfi_offset 65, 4
	.cfi_offset 63, -8
	.loc 2 238 0
	cmpwi 7,11,0
	.loc 2 236 0
	lfs 0,112(3)
	fmuls 31,31,0
.LVL53:
	.loc 2 238 0
	beq- 7,.L45
	.loc 2 239 0
	lwz 9,0(11)
	mr 3,11
.LVL54:
	lwz 0,120(9)
	mtctr 0
	bctrl
	fmuls 31,31,1
.LVL55:
.L45:
.LBE2056:
	.loc 2 242 0
	lwz 0,20(1)
	fmr 1,31
	lfd 31,8(1)
.LVL56:
	mtlr 0
	addi 1,1,16
.LCFI8:
	.cfi_def_cfa_offset 0
	.cfi_restore 63
	blr
	.cfi_endproc
.LFE1409:
	.size	_ZN10GuiElement9GetScaleXEv, .-_ZN10GuiElement9GetScaleXEv
	.section	.text._ZN10GuiElement9GetScaleYEv,"axG",@progbits,_ZN10GuiElement9GetScaleYEv,comdat
	.align 2
	.weak	_ZN10GuiElement9GetScaleYEv
	.type	_ZN10GuiElement9GetScaleYEv, @function
_ZN10GuiElement9GetScaleYEv:
.LFB1410:
	.loc 2 245 0
	.cfi_startproc
.LVL57:
	mflr 0
	stwu 1,-16(1)
.LCFI9:
	.cfi_def_cfa_offset 16
	.cfi_register 65, 0
	stfd 31,8(1)
	stw 0,20(1)
.LBB2057:
	.loc 2 249 0
	lwz 11,96(3)
	.loc 2 247 0
	lfs 31,64(3)
	.cfi_offset 65, 4
	.cfi_offset 63, -8
	.loc 2 249 0
	cmpwi 7,11,0
	.loc 2 247 0
	lfs 0,112(3)
	fmuls 31,31,0
.LVL58:
	.loc 2 249 0
	beq- 7,.L47
	.loc 2 250 0
	lwz 9,0(11)
	mr 3,11
.LVL59:
	lwz 0,124(9)
	mtctr 0
	bctrl
	fmuls 31,31,1
.LVL60:
.L47:
.LBE2057:
	.loc 2 253 0
	lwz 0,20(1)
	fmr 1,31
	lfd 31,8(1)
.LVL61:
	mtlr 0
	addi 1,1,16
.LCFI10:
	.cfi_def_cfa_offset 0
	.cfi_restore 63
	blr
	.cfi_endproc
.LFE1410:
	.size	_ZN10GuiElement9GetScaleYEv, .-_ZN10GuiElement9GetScaleYEv
	.section	.text._ZN10GuiElement6RumbleEv,"axG",@progbits,_ZN10GuiElement6RumbleEv,comdat
	.align 2
	.weak	_ZN10GuiElement6RumbleEv
	.type	_ZN10GuiElement6RumbleEv, @function
_ZN10GuiElement6RumbleEv:
.LFB1411:
	.loc 2 256 0
	.cfi_startproc
.LVL62:
	.loc 2 256 0
	lbz 3,28(3)
.LVL63:
	blr
	.cfi_endproc
.LFE1411:
	.size	_ZN10GuiElement6RumbleEv, .-_ZN10GuiElement6RumbleEv
	.section	.text._ZN10GuiElement9SetRumbleEb,"axG",@progbits,_ZN10GuiElement9SetRumbleEb,comdat
	.align 2
	.weak	_ZN10GuiElement9SetRumbleEb
	.type	_ZN10GuiElement9SetRumbleEb, @function
_ZN10GuiElement9SetRumbleEb:
.LFB1412:
	.loc 2 259 0
	.cfi_startproc
.LVL64:
	.loc 2 259 0
	stb 4,28(3)
	blr
	.cfi_endproc
.LFE1412:
	.size	_ZN10GuiElement9SetRumbleEb, .-_ZN10GuiElement9SetRumbleEb
	.section	.text._ZN10GuiElement13SetEffectGrowEv,"axG",@progbits,_ZN10GuiElement13SetEffectGrowEv,comdat
	.align 2
	.weak	_ZN10GuiElement13SetEffectGrowEv
	.type	_ZN10GuiElement13SetEffectGrowEv, @function
_ZN10GuiElement13SetEffectGrowEv:
.LFB1413:
	.loc 2 271 0
	.cfi_startproc
.LVL65:
	mflr 0
	stwu 1,-8(1)
.LCFI11:
	.cfi_def_cfa_offset 8
	.cfi_register 65, 0
	lwz 9,0(3)
	li 4,256
	li 5,4
	li 6,110
	stw 0,12(1)
	.loc 2 271 0
	lwz 0,140(9)
	.cfi_offset 65, 4
	mtctr 0
	bctrl
.LVL66:
	lwz 0,12(1)
	addi 1,1,8
.LCFI12:
	.cfi_def_cfa_offset 0
	mtlr 0
	blr
	.cfi_endproc
.LFE1413:
	.size	_ZN10GuiElement13SetEffectGrowEv, .-_ZN10GuiElement13SetEffectGrowEv
	.section	.text._ZNK10GuiElement9GetEffectEv,"axG",@progbits,_ZNK10GuiElement9GetEffectEv,comdat
	.align 2
	.weak	_ZNK10GuiElement9GetEffectEv
	.type	_ZNK10GuiElement9GetEffectEv, @function
_ZNK10GuiElement9GetEffectEv:
.LFB1414:
	.loc 2 276 0
	.cfi_startproc
.LVL67:
	.loc 2 276 0
	lwz 3,120(3)
.LVL68:
	blr
	.cfi_endproc
.LFE1414:
	.size	_ZNK10GuiElement9GetEffectEv, .-_ZNK10GuiElement9GetEffectEv
	.section	.text._ZNK10GuiElement10IsAnimatedEv,"axG",@progbits,_ZNK10GuiElement10IsAnimatedEv,comdat
	.align 2
	.weak	_ZNK10GuiElement10IsAnimatedEv
	.type	_ZNK10GuiElement10IsAnimatedEv, @function
_ZNK10GuiElement10IsAnimatedEv:
.LFB1415:
	.loc 2 278 0
	.cfi_startproc
.LVL69:
	mflr 0
	stwu 1,-8(1)
.LCFI13:
	.cfi_def_cfa_offset 8
	.cfi_register 65, 0
	stw 0,12(1)
	.loc 2 278 0
	lwz 9,0(3)
	lwz 0,152(9)
	.cfi_offset 65, 4
	mtctr 0
	bctrl
.LVL70:
	srawi 0,3,31
	subf 3,3,0
	lwz 0,12(1)
	srwi 3,3,31
	mtlr 0
	addi 1,1,8
.LCFI14:
	.cfi_def_cfa_offset 0
	blr
	.cfi_endproc
.LFE1415:
	.size	_ZNK10GuiElement10IsAnimatedEv, .-_ZNK10GuiElement10IsAnimatedEv
	.section	.text._ZN10GuiElement8IsInsideEii,"axG",@progbits,_ZN10GuiElement8IsInsideEii,comdat
	.align 2
	.weak	_ZN10GuiElement8IsInsideEii
	.type	_ZN10GuiElement8IsInsideEii, @function
_ZN10GuiElement8IsInsideEii:
.LFB1417:
	.loc 2 285 0
	.cfi_startproc
.LVL71:
	mflr 0
	stwu 1,-24(1)
.LCFI15:
	.cfi_def_cfa_offset 24
	.cfi_register 65, 0
	stw 28,8(1)
	mr 28,5
	.cfi_offset 28, -16
	stw 0,28(1)
	stw 29,12(1)
	.loc 2 290 0
	li 29,0
	.cfi_offset 29, -12
	.cfi_offset 65, 4
	.loc 2 287 0
	lwz 9,0(3)
	.loc 2 285 0
	stw 30,16(1)
	mr 30,4
	.cfi_offset 30, -8
	.loc 2 287 0
	lwz 0,16(9)
	.loc 2 285 0
	stw 31,20(1)
	.loc 2 285 0
	mr 31,3
	.cfi_offset 31, -4
	.loc 2 287 0
	mtctr 0
	bctrl
.LVL72:
	.loc 2 290 0
	cmpw 7,3,30
	blt- 7,.L58
.L54:
	.loc 2 291 0 discriminator 6
	lwz 0,28(1)
	mr 3,29
	lwz 28,8(1)
.LVL73:
	mtlr 0
	lwz 29,12(1)
	lwz 30,16(1)
.LVL74:
	lwz 31,20(1)
.LVL75:
	addi 1,1,24
	.cfi_remember_state
.LCFI16:
	.cfi_def_cfa_offset 0
	.cfi_restore 31
	.cfi_restore 30
	.cfi_restore 29
	.cfi_restore 28
	blr
.LVL76:
.L58:
.LCFI17:
	.cfi_restore_state
	.loc 2 288 0 discriminator 1
	lwz 9,0(31)
	mr 3,31
	lwz 0,16(9)
	mtctr 0
	bctrl
	.loc 2 290 0 discriminator 1
	lwz 0,36(31)
	add 0,3,0
	cmpw 7,30,0
	bge+ 7,.L54
	.loc 2 289 0 discriminator 3
	lwz 9,0(31)
	mr 3,31
	lwz 0,20(9)
	mtctr 0
	bctrl
	.loc 2 290 0 discriminator 3
	cmpw 7,3,28
	bge+ 7,.L54
	.loc 2 290 0 is_stmt 0 discriminator 4
	lwz 9,0(31)
	mr 3,31
	lwz 0,20(9)
	mtctr 0
	bctrl
	lwz 0,40(31)
	add 0,3,0
	.loc 2 285 0 is_stmt 1 discriminator 4
	cmpw 7,28,0
	mfcr 29
	rlwinm 29,29,29,1
	b .L54
	.cfi_endproc
.LFE1417:
	.size	_ZN10GuiElement8IsInsideEii, .-_ZN10GuiElement8IsInsideEii
	.section	.text._ZN10GuiElement11SetPositionEii,"axG",@progbits,_ZN10GuiElement11SetPositionEii,comdat
	.align 2
	.weak	_ZN10GuiElement11SetPositionEii
	.type	_ZN10GuiElement11SetPositionEii, @function
_ZN10GuiElement11SetPositionEii:
.LFB1418:
	.loc 2 295 0
	.cfi_startproc
.LVL77:
	.loc 2 297 0
	stw 4,44(3)
	.loc 2 299 0
	.loc 2 298 0
	stw 5,48(3)
	.loc 2 299 0
	blr
	.cfi_endproc
.LFE1418:
	.size	_ZN10GuiElement11SetPositionEii, .-_ZN10GuiElement11SetPositionEii
	.section	.text._ZN10GuiElement11SetPositionEiii,"axG",@progbits,_ZN10GuiElement11SetPositionEiii,comdat
	.align 2
	.weak	_ZN10GuiElement11SetPositionEiii
	.type	_ZN10GuiElement11SetPositionEiii, @function
_ZN10GuiElement11SetPositionEiii:
.LFB1419:
	.loc 2 304 0
	.cfi_startproc
.LVL78:
	.loc 2 306 0
	stw 4,44(3)
	.loc 2 309 0
	.loc 2 307 0
	stw 5,48(3)
	.loc 2 308 0
	stw 6,52(3)
	.loc 2 309 0
	blr
	.cfi_endproc
.LFE1419:
	.size	_ZN10GuiElement11SetPositionEiii, .-_ZN10GuiElement11SetPositionEiii
	.section	.text._ZN10GuiElement12SetAlignmentEi,"axG",@progbits,_ZN10GuiElement12SetAlignmentEi,comdat
	.align 2
	.weak	_ZN10GuiElement12SetAlignmentEi
	.type	_ZN10GuiElement12SetAlignmentEi, @function
_ZN10GuiElement12SetAlignmentEi:
.LFB1421:
	.loc 2 316 0
	.cfi_startproc
.LVL79:
	.loc 2 316 0
	stw 4,68(3)
	blr
	.cfi_endproc
.LFE1421:
	.size	_ZN10GuiElement12SetAlignmentEi, .-_ZN10GuiElement12SetAlignmentEi
	.section	.text._ZNK10GuiElement12GetAlignmentEv,"axG",@progbits,_ZNK10GuiElement12GetAlignmentEv,comdat
	.align 2
	.weak	_ZNK10GuiElement12GetAlignmentEv
	.type	_ZNK10GuiElement12GetAlignmentEv, @function
_ZNK10GuiElement12GetAlignmentEv:
.LFB1422:
	.loc 2 318 0
	.cfi_startproc
.LVL80:
	.loc 2 318 0
	lwz 3,68(3)
.LVL81:
	blr
	.cfi_endproc
.LFE1422:
	.size	_ZNK10GuiElement12GetAlignmentEv, .-_ZNK10GuiElement12GetAlignmentEv
	.section	.text._ZN8GuiFrame4showEv,"axG",@progbits,_ZN8GuiFrame4showEv,comdat
	.align 2
	.weak	_ZN8GuiFrame4showEv
	.type	_ZN8GuiFrame4showEv, @function
_ZN8GuiFrame4showEv:
.LFB1428:
	.file 3 "d:/Projects/SaveGameManager/savegame-manager-gx/trunk/source/GUI/gui_frame.h"
	.loc 3 79 0
	.cfi_startproc
.LVL82:
	.loc 3 79 0
	blr
	.cfi_endproc
.LFE1428:
	.size	_ZN8GuiFrame4showEv, .-_ZN8GuiFrame4showEv
	.section	.text._ZN8GuiFrame4hideEv,"axG",@progbits,_ZN8GuiFrame4hideEv,comdat
	.align 2
	.weak	_ZN8GuiFrame4hideEv
	.type	_ZN8GuiFrame4hideEv, @function
_ZN8GuiFrame4hideEv:
.LFB1429:
	.loc 3 81 0
	.cfi_startproc
.LVL83:
	.loc 3 81 0
	blr
	.cfi_endproc
.LFE1429:
	.size	_ZN8GuiFrame4hideEv, .-_ZN8GuiFrame4hideEv
	.section	.text._ZN8GuiFrame4execEv,"axG",@progbits,_ZN8GuiFrame4execEv,comdat
	.align 2
	.weak	_ZN8GuiFrame4execEv
	.type	_ZN8GuiFrame4execEv, @function
_ZN8GuiFrame4execEv:
.LFB1430:
	.loc 3 83 0
	.cfi_startproc
.LVL84:
	.loc 3 83 0
	blr
	.cfi_endproc
.LFE1430:
	.size	_ZN8GuiFrame4execEv, .-_ZN8GuiFrame4execEv
	.section	.text._ZN8GuiFrame12updateEventsEv,"axG",@progbits,_ZN8GuiFrame12updateEventsEv,comdat
	.align 2
	.weak	_ZN8GuiFrame12updateEventsEv
	.type	_ZN8GuiFrame12updateEventsEv, @function
_ZN8GuiFrame12updateEventsEv:
.LFB1431:
	.loc 3 85 0
	.cfi_startproc
.LVL85:
	.loc 3 85 0
	blr
	.cfi_endproc
.LFE1431:
	.size	_ZN8GuiFrame12updateEventsEv, .-_ZN8GuiFrame12updateEventsEv
	.section	.text._ZN7sigslot17_connection_base3IP9GuiButtoniRK6_POINTNS_15single_threadedEED2Ev,"axG",@progbits,_ZN7sigslot17_connection_base3IP9GuiButtoniRK6_POINTNS_15single_threadedEED5Ev,comdat
	.align 2
	.weak	_ZN7sigslot17_connection_base3IP9GuiButtoniRK6_POINTNS_15single_threadedEED2Ev
	.type	_ZN7sigslot17_connection_base3IP9GuiButtoniRK6_POINTNS_15single_threadedEED2Ev, @function
_ZN7sigslot17_connection_base3IP9GuiButtoniRK6_POINTNS_15single_threadedEED2Ev:
.LFB1773:
	.loc 1 387 0
	.cfi_startproc
.LVL86:
.LBB2058:
	.loc 1 387 0
	lis 9,_ZTVN7sigslot17_connection_base3IP9GuiButtoniRK6_POINTNS_15single_threadedEEE+8@ha
.LBE2058:
.LBB2059:
	la 0,_ZTVN7sigslot17_connection_base3IP9GuiButtoniRK6_POINTNS_15single_threadedEEE+8@l(9)
	stw 0,0(3)
.LBE2059:
	blr
	.cfi_endproc
.LFE1773:
	.size	_ZN7sigslot17_connection_base3IP9GuiButtoniRK6_POINTNS_15single_threadedEED2Ev, .-_ZN7sigslot17_connection_base3IP9GuiButtoniRK6_POINTNS_15single_threadedEED2Ev
	.section	.text._ZN7sigslot12_connection3I11GuiKeyboardP9GuiButtoniRK6_POINTNS_15single_threadedEED2Ev,"axG",@progbits,_ZN7sigslot12_connection3I11GuiKeyboardP9GuiButtoniRK6_POINTNS_15single_threadedEED5Ev,comdat
	.align 2
	.weak	_ZN7sigslot12_connection3I11GuiKeyboardP9GuiButtoniRK6_POINTNS_15single_threadedEED2Ev
	.type	_ZN7sigslot12_connection3I11GuiKeyboardP9GuiButtoniRK6_POINTNS_15single_threadedEED2Ev, @function
_ZN7sigslot12_connection3I11GuiKeyboardP9GuiButtoniRK6_POINTNS_15single_threadedEED2Ev:
.LFB2014:
	.loc 1 1783 0
	.cfi_startproc
.LVL87:
.LBB2060:
.LBB2061:
.LBB2062:
.LBB2063:
	.loc 1 387 0
	lis 9,_ZTVN7sigslot17_connection_base3IP9GuiButtoniRK6_POINTNS_15single_threadedEEE+8@ha
.LBE2063:
.LBE2062:
.LBE2061:
.LBE2060:
	.loc 1 1786 0
.LBB2067:
.LBB2066:
.LBB2065:
.LBB2064:
	.loc 1 387 0
	la 0,_ZTVN7sigslot17_connection_base3IP9GuiButtoniRK6_POINTNS_15single_threadedEEE+8@l(9)
	stw 0,0(3)
.LBE2064:
.LBE2065:
.LBE2066:
.LBE2067:
	.loc 1 1786 0
	blr
	.cfi_endproc
.LFE2014:
	.size	_ZN7sigslot12_connection3I11GuiKeyboardP9GuiButtoniRK6_POINTNS_15single_threadedEED2Ev, .-_ZN7sigslot12_connection3I11GuiKeyboardP9GuiButtoniRK6_POINTNS_15single_threadedEED2Ev
	.section	.text._ZNK7sigslot12_connection3I11GuiKeyboardP9GuiButtoniRK6_POINTNS_15single_threadedEE7getdestEv,"axG",@progbits,_ZNK7sigslot12_connection3I11GuiKeyboardP9GuiButtoniRK6_POINTNS_15single_threadedEE7getdestEv,comdat
	.align 2
	.weak	_ZNK7sigslot12_connection3I11GuiKeyboardP9GuiButtoniRK6_POINTNS_15single_threadedEE7getdestEv
	.type	_ZNK7sigslot12_connection3I11GuiKeyboardP9GuiButtoniRK6_POINTNS_15single_threadedEE7getdestEv, @function
_ZNK7sigslot12_connection3I11GuiKeyboardP9GuiButtoniRK6_POINTNS_15single_threadedEE7getdestEv:
.LFB2017:
	.loc 1 1804 0
	.cfi_startproc
.LVL88:
	.loc 1 1806 0
	lwz 9,4(3)
	li 3,0
.LVL89:
	cmpwi 7,9,0
	beqlr- 7
	.loc 1 1806 0 is_stmt 0 discriminator 1
	addi 3,9,176
	.loc 1 1807 0 is_stmt 1 discriminator 1
	blr
	.cfi_endproc
.LFE2017:
	.size	_ZNK7sigslot12_connection3I11GuiKeyboardP9GuiButtoniRK6_POINTNS_15single_threadedEE7getdestEv, .-_ZNK7sigslot12_connection3I11GuiKeyboardP9GuiButtoniRK6_POINTNS_15single_threadedEE7getdestEv
	.section	.text._ZN7sigslot12_connection3I11GuiKeyboardP9GuiButtoniRK6_POINTNS_15single_threadedEE4emitES3_iS6_,"axG",@progbits,_ZN7sigslot12_connection3I11GuiKeyboardP9GuiButtoniRK6_POINTNS_15single_threadedEE4emitES3_iS6_,comdat
	.align 2
	.weak	_ZN7sigslot12_connection3I11GuiKeyboardP9GuiButtoniRK6_POINTNS_15single_threadedEE4emitES3_iS6_
	.type	_ZN7sigslot12_connection3I11GuiKeyboardP9GuiButtoniRK6_POINTNS_15single_threadedEE4emitES3_iS6_, @function
_ZN7sigslot12_connection3I11GuiKeyboardP9GuiButtoniRK6_POINTNS_15single_threadedEE4emitES3_iS6_:
.LFB2018:
	.loc 1 1799 0
	.cfi_startproc
.LVL90:
	mflr 0
	stwu 1,-8(1)
.LCFI18:
	.cfi_def_cfa_offset 8
	.cfi_register 65, 0
	stw 0,12(1)
	.loc 1 1801 0
	lwz 0,8(3)
	.cfi_offset 65, 4
	lwz 11,4(3)
	andi. 9,0,1
	lwz 9,12(3)
	bne- 0,.L76
	mtctr 0
	add 3,11,9
.LVL91:
	bctrl
.LVL92:
	.loc 1 1802 0
	lwz 0,12(1)
	addi 1,1,8
	.cfi_remember_state
.LCFI19:
	.cfi_def_cfa_offset 0
	mtlr 0
	blr
.LVL93:
.L76:
.LCFI20:
	.cfi_restore_state
	.loc 1 1801 0 discriminator 1
	lwzx 10,11,9
	add 3,11,9
.LVL94:
	add 9,10,0
	lwz 0,-1(9)
	mtctr 0
	bctrl
.LVL95:
	.loc 1 1802 0 discriminator 1
	lwz 0,12(1)
	addi 1,1,8
.LCFI21:
	.cfi_def_cfa_offset 0
	mtlr 0
	blr
	.cfi_endproc
.LFE2018:
	.size	_ZN7sigslot12_connection3I11GuiKeyboardP9GuiButtoniRK6_POINTNS_15single_threadedEE4emitES3_iS6_, .-_ZN7sigslot12_connection3I11GuiKeyboardP9GuiButtoniRK6_POINTNS_15single_threadedEE4emitES3_iS6_
	.section	.text._ZN7sigslot12_connection3I11GuiKeyboardP9GuiButtoniRK6_POINTNS_15single_threadedEE9duplicateEPNS_9has_slotsIS7_EE,"axG",@progbits,_ZN7sigslot12_connection3I11GuiKeyboardP9GuiButtoniRK6_POINTNS_15single_threadedEE9duplicateEPNS_9has_slotsIS7_EE,comdat
	.align 2
	.weak	_ZN7sigslot12_connection3I11GuiKeyboardP9GuiButtoniRK6_POINTNS_15single_threadedEE9duplicateEPNS_9has_slotsIS7_EE
	.type	_ZN7sigslot12_connection3I11GuiKeyboardP9GuiButtoniRK6_POINTNS_15single_threadedEE9duplicateEPNS_9has_slotsIS7_EE, @function
_ZN7sigslot12_connection3I11GuiKeyboardP9GuiButtoniRK6_POINTNS_15single_threadedEE9duplicateEPNS_9has_slotsIS7_EE:
.LFB2026:
	.loc 1 1794 0
	.cfi_startproc
.LVL96:
	stwu 1,-16(1)
.LCFI22:
	.cfi_def_cfa_offset 16
	mflr 0
	stw 30,8(1)
	mr 30,4
	.cfi_offset 30, -8
	.cfi_register 65, 0
	stw 31,12(1)
	mr 31,3
	.cfi_offset 31, -4
	.loc 1 1796 0
	li 3,16
.LVL97:
	.loc 1 1794 0
	stw 0,20(1)
	.loc 1 1796 0
	.cfi_offset 65, 4
	bl _Znwj
.LVL98:
	cmpwi 7,30,0
	li 0,0
	beq- 7,.L79
	.loc 1 1796 0 is_stmt 0 discriminator 1
	addi 0,30,-176
.L79:
.LVL99:
	.loc 1 1796 0 discriminator 3
	lwz 11,8(31)
.LVL100:
.LBB2068:
.LBB2069:
	.loc 1 1778 0 is_stmt 1 discriminator 3
	lis 10,_ZTVN7sigslot12_connection3I11GuiKeyboardP9GuiButtoniRK6_POINTNS_15single_threadedEEE+8@ha
.LBE2069:
.LBE2068:
	.loc 1 1796 0 discriminator 3
	lwz 9,12(31)
.LVL101:
.LBB2072:
.LBB2070:
	.loc 1 1778 0 discriminator 3
	la 10,_ZTVN7sigslot12_connection3I11GuiKeyboardP9GuiButtoniRK6_POINTNS_15single_threadedEEE+8@l(10)
	.loc 1 1780 0 discriminator 3
	stw 11,8(3)
	stw 9,12(3)
	.loc 1 1779 0 discriminator 3
	stw 0,4(3)
.LBE2070:
.LBE2072:
	.loc 1 1797 0 discriminator 3
	lwz 0,20(1)
.LVL102:
	lwz 30,8(1)
.LVL103:
	mtlr 0
	lwz 31,12(1)
.LVL104:
.LBB2073:
.LBB2071:
	.loc 1 1778 0 discriminator 3
	stw 10,0(3)
.LBE2071:
.LBE2073:
	.loc 1 1797 0 discriminator 3
	addi 1,1,16
.LCFI23:
	.cfi_def_cfa_offset 0
	.cfi_restore 31
	.cfi_restore 30
	blr
	.cfi_endproc
.LFE2026:
	.size	_ZN7sigslot12_connection3I11GuiKeyboardP9GuiButtoniRK6_POINTNS_15single_threadedEE9duplicateEPNS_9has_slotsIS7_EE, .-_ZN7sigslot12_connection3I11GuiKeyboardP9GuiButtoniRK6_POINTNS_15single_threadedEE9duplicateEPNS_9has_slotsIS7_EE
	.section	.text._ZN7sigslot12_connection3I11GuiKeyboardP9GuiButtoniRK6_POINTNS_15single_threadedEE5cloneEv,"axG",@progbits,_ZN7sigslot12_connection3I11GuiKeyboardP9GuiButtoniRK6_POINTNS_15single_threadedEE5cloneEv,comdat
	.align 2
	.weak	_ZN7sigslot12_connection3I11GuiKeyboardP9GuiButtoniRK6_POINTNS_15single_threadedEE5cloneEv
	.type	_ZN7sigslot12_connection3I11GuiKeyboardP9GuiButtoniRK6_POINTNS_15single_threadedEE5cloneEv, @function
_ZN7sigslot12_connection3I11GuiKeyboardP9GuiButtoniRK6_POINTNS_15single_threadedEE5cloneEv:
.LFB2019:
	.loc 1 1789 0
	.cfi_startproc
.LVL105:
	stwu 1,-16(1)
.LCFI24:
	.cfi_def_cfa_offset 16
	mflr 0
	stw 31,12(1)
	mr 31,3
	.cfi_offset 31, -4
	.cfi_register 65, 0
	.loc 1 1791 0
	li 3,16
.LVL106:
	.loc 1 1789 0
	stw 0,20(1)
	.loc 1 1791 0
	.cfi_offset 65, 4
	bl _Znwj
	.file 4 "d:/Projects/SaveGameManager/savegame-manager-gx/trunk/source/GUI/gui_keyboard.cpp"
	.loc 4 598 0
	lwz 0,4(31)
.LVL107:
.LBB2074:
.LBB2075:
	.loc 1 1767 0
	lis 11,_ZTVN7sigslot12_connection3I11GuiKeyboardP9GuiButtoniRK6_POINTNS_15single_threadedEEE+8@ha
	la 11,_ZTVN7sigslot12_connection3I11GuiKeyboardP9GuiButtoniRK6_POINTNS_15single_threadedEEE+8@l(11)
	stw 0,4(3)
	stw 11,0(3)
	lwz 10,8(31)
	lwz 11,12(31)
	stw 10,8(3)
	stw 11,12(3)
.LBE2075:
.LBE2074:
	.loc 1 1792 0
	lwz 0,20(1)
	lwz 31,12(1)
.LVL108:
	mtlr 0
	addi 1,1,16
.LCFI25:
	.cfi_def_cfa_offset 0
	.cfi_restore 31
	blr
	.cfi_endproc
.LFE2019:
	.size	_ZN7sigslot12_connection3I11GuiKeyboardP9GuiButtoniRK6_POINTNS_15single_threadedEE5cloneEv, .-_ZN7sigslot12_connection3I11GuiKeyboardP9GuiButtoniRK6_POINTNS_15single_threadedEE5cloneEv
	.section	.text._ZN7sigslot12_connection3I11GuiKeyboardP9GuiButtoniRK6_POINTNS_15single_threadedEED0Ev,"axG",@progbits,_ZN7sigslot12_connection3I11GuiKeyboardP9GuiButtoniRK6_POINTNS_15single_threadedEED5Ev,comdat
	.align 2
	.weak	_ZN7sigslot12_connection3I11GuiKeyboardP9GuiButtoniRK6_POINTNS_15single_threadedEED0Ev
	.type	_ZN7sigslot12_connection3I11GuiKeyboardP9GuiButtoniRK6_POINTNS_15single_threadedEED0Ev, @function
_ZN7sigslot12_connection3I11GuiKeyboardP9GuiButtoniRK6_POINTNS_15single_threadedEED0Ev:
.LFB2016:
	.loc 1 1783 0
	.cfi_startproc
.LVL109:
	mflr 0
	stwu 1,-8(1)
.LCFI26:
	.cfi_def_cfa_offset 8
	.cfi_register 65, 0
.LBB2076:
.LBB2077:
.LBB2078:
.LBB2079:
.LBB2080:
.LBB2081:
	.loc 1 387 0
	lis 9,_ZTVN7sigslot17_connection_base3IP9GuiButtoniRK6_POINTNS_15single_threadedEEE+8@ha
.LBE2081:
.LBE2080:
.LBE2079:
.LBE2078:
.LBE2077:
.LBE2076:
	.loc 1 1783 0
	stw 0,12(1)
.LBB2087:
.LBB2086:
.LBB2085:
.LBB2084:
.LBB2083:
.LBB2082:
	.loc 1 387 0
	la 0,_ZTVN7sigslot17_connection_base3IP9GuiButtoniRK6_POINTNS_15single_threadedEEE+8@l(9)
	.cfi_offset 65, 4
	stw 0,0(3)
.LBE2082:
.LBE2083:
.LBE2084:
.LBE2085:
.LBE2086:
.LBE2087:
	.loc 1 1786 0
	bl _ZdlPv
.LVL110:
	lwz 0,12(1)
	addi 1,1,8
.LCFI27:
	.cfi_def_cfa_offset 0
	mtlr 0
	blr
	.cfi_endproc
.LFE2016:
	.size	_ZN7sigslot12_connection3I11GuiKeyboardP9GuiButtoniRK6_POINTNS_15single_threadedEED0Ev, .-_ZN7sigslot12_connection3I11GuiKeyboardP9GuiButtoniRK6_POINTNS_15single_threadedEED0Ev
	.section	.text._ZN7sigslot17_connection_base3IP9GuiButtoniRK6_POINTNS_15single_threadedEED0Ev,"axG",@progbits,_ZN7sigslot17_connection_base3IP9GuiButtoniRK6_POINTNS_15single_threadedEED5Ev,comdat
	.align 2
	.weak	_ZN7sigslot17_connection_base3IP9GuiButtoniRK6_POINTNS_15single_threadedEED0Ev
	.type	_ZN7sigslot17_connection_base3IP9GuiButtoniRK6_POINTNS_15single_threadedEED0Ev, @function
_ZN7sigslot17_connection_base3IP9GuiButtoniRK6_POINTNS_15single_threadedEED0Ev:
.LFB1775:
	.loc 1 387 0
	.cfi_startproc
.LVL111:
	mflr 0
	stwu 1,-8(1)
.LCFI28:
	.cfi_def_cfa_offset 8
	.cfi_register 65, 0
.LBB2088:
.LBB2089:
.LBB2090:
	lis 9,_ZTVN7sigslot17_connection_base3IP9GuiButtoniRK6_POINTNS_15single_threadedEEE+8@ha
.LBE2090:
.LBE2089:
.LBE2088:
	stw 0,12(1)
.LBB2093:
.LBB2092:
.LBB2091:
	.loc 1 387 0
	la 0,_ZTVN7sigslot17_connection_base3IP9GuiButtoniRK6_POINTNS_15single_threadedEEE+8@l(9)
	.cfi_offset 65, 4
	stw 0,0(3)
.LBE2091:
.LBE2092:
.LBE2093:
	bl _ZdlPv
.LVL112:
	lwz 0,12(1)
	addi 1,1,8
.LCFI29:
	.cfi_def_cfa_offset 0
	mtlr 0
	blr
	.cfi_endproc
.LFE1775:
	.size	_ZN7sigslot17_connection_base3IP9GuiButtoniRK6_POINTNS_15single_threadedEED0Ev, .-_ZN7sigslot17_connection_base3IP9GuiButtoniRK6_POINTNS_15single_threadedEED0Ev
	.section	.text._ZN7sigslot15single_threadedD0Ev,"axG",@progbits,_ZN7sigslot15single_threadedD5Ev,comdat
	.align 2
	.weak	_ZN7sigslot15single_threadedD0Ev
	.type	_ZN7sigslot15single_threadedD0Ev, @function
_ZN7sigslot15single_threadedD0Ev:
.LFB1150:
	.loc 1 104 0
	.cfi_startproc
.LVL113:
	mflr 0
	stwu 1,-8(1)
.LCFI30:
	.cfi_def_cfa_offset 8
	.cfi_register 65, 0
.LBB2094:
.LBB2095:
.LBB2096:
	.loc 1 105 0
	lis 9,_ZTVN7sigslot15single_threadedE+8@ha
.LBE2096:
.LBE2095:
.LBE2094:
	.loc 1 104 0
	stw 0,12(1)
.LBB2099:
.LBB2098:
.LBB2097:
	.loc 1 105 0
	la 0,_ZTVN7sigslot15single_threadedE+8@l(9)
	.cfi_offset 65, 4
	stw 0,0(3)
.LBE2097:
.LBE2098:
.LBE2099:
	.loc 1 107 0
	bl _ZdlPv
.LVL114:
	lwz 0,12(1)
	addi 1,1,8
.LCFI31:
	.cfi_def_cfa_offset 0
	mtlr 0
	blr
	.cfi_endproc
.LFE1150:
	.size	_ZN7sigslot15single_threadedD0Ev, .-_ZN7sigslot15single_threadedD0Ev
	.section	".text"
	.align 2
	.globl _ZN11GuiKeyboard13OnPointerHeldEP9GuiButtoniRK6_POINT
	.type	_ZN11GuiKeyboard13OnPointerHeldEP9GuiButtoniRK6_POINT, @function
_ZN11GuiKeyboard13OnPointerHeldEP9GuiButtoniRK6_POINT:
.LFB1587:
	.loc 4 408 0
	.cfi_startproc
.LVL115:
	mflr 0
	stwu 1,-24(1)
.LCFI32:
	.cfi_def_cfa_offset 24
	.cfi_register 65, 0
	stw 31,20(1)
	mr 31,3
	.cfi_offset 31, -4
	stw 0,28(1)
	stw 28,8(1)
	mr 28,5
	.cfi_offset 28, -16
	.cfi_offset 65, 4
	.loc 4 409 0
	lwz 3,804(3)
.LVL116:
	.loc 4 408 0
	stw 29,12(1)
	.loc 4 409 0
	lwz 9,0(3)
	.loc 4 408 0
	stw 30,16(1)
	.loc 4 408 0
	mr 30,6
	.cfi_offset 30, -8
	.cfi_offset 29, -12
	.loc 4 409 0
	lwz 0,16(9)
	lwz 29,0(6)
	mtctr 0
	bctrl
.LVL117:
	lwz 31,804(31)
.LVL118:
	subf 29,3,29
	lwz 30,4(30)
.LVL119:
	lwz 9,0(31)
	mr 3,31
	lwz 0,20(9)
	mtctr 0
	bctrl
	mr 4,28
	subf 6,3,30
	mr 5,29
	mr 3,31
	bl _ZN11TextPointer15PositionChangedEiii
	.loc 4 410 0
	lwz 0,28(1)
	lwz 28,8(1)
.LVL120:
	mtlr 0
	lwz 29,12(1)
	lwz 30,16(1)
	lwz 31,20(1)
	addi 1,1,24
.LCFI33:
	.cfi_def_cfa_offset 0
	.cfi_restore 31
	.cfi_restore 30
	.cfi_restore 29
	.cfi_restore 28
	blr
	.cfi_endproc
.LFE1587:
	.size	_ZN11GuiKeyboard13OnPointerHeldEP9GuiButtoniRK6_POINT, .-_ZN11GuiKeyboard13OnPointerHeldEP9GuiButtoniRK6_POINT
	.align 2
	.globl _ZN11GuiKeyboard15OnPositionMovedEP9GuiButtoniRK6_POINT
	.type	_ZN11GuiKeyboard15OnPositionMovedEP9GuiButtoniRK6_POINT, @function
_ZN11GuiKeyboard15OnPositionMovedEP9GuiButtoniRK6_POINT:
.LFB1588:
	.loc 4 413 0
	.cfi_startproc
.LVL121:
	mflr 0
	stwu 1,-48(1)
.LCFI34:
	.cfi_def_cfa_offset 48
	.cfi_register 65, 0
	stw 30,40(1)
	mr 30,4
	.cfi_offset 30, -8
	stw 0,52(1)
	stw 31,44(1)
	mr 31,3
	.cfi_offset 31, -4
	.cfi_offset 65, 4
.LBB2166:
	.loc 4 414 0
	lwz 9,0(4)
	mr 3,4
.LVL122:
.LBE2166:
	.loc 4 413 0
	stw 22,8(1)
.LBB2227:
	.loc 4 414 0
	lwz 0,92(9)
.LBE2227:
	.loc 4 413 0
	stw 23,12(1)
.LBB2228:
	.loc 4 414 0
	mtctr 0
.LBE2228:
	.loc 4 413 0
	stw 24,16(1)
	stw 25,20(1)
	stw 26,24(1)
	stw 27,28(1)
	stw 28,32(1)
	stw 29,36(1)
.LBB2229:
	.loc 4 414 0
	.cfi_offset 29, -12
	.cfi_offset 28, -16
	.cfi_offset 27, -20
	.cfi_offset 26, -24
	.cfi_offset 25, -28
	.cfi_offset 24, -32
	.cfi_offset 23, -36
	.cfi_offset 22, -40
	bctrl
.LVL123:
.LBB2167:
	.loc 4 416 0
	lwz 0,808(31)
	cmpw 7,0,30
	beq- 7,.L115
.LBB2168:
	.loc 4 431 0
	lwz 0,812(31)
	cmpw 7,0,30
	beq- 7,.L116
.LBE2168:
.LBE2167:
.LBE2229:
	.loc 4 447 0
	lwz 0,52(1)
	lwz 22,8(1)
	mtlr 0
	lwz 23,12(1)
	lwz 24,16(1)
	lwz 25,20(1)
	lwz 26,24(1)
	lwz 27,28(1)
	lwz 28,32(1)
	lwz 29,36(1)
	lwz 30,40(1)
.LVL124:
	lwz 31,44(1)
.LVL125:
	addi 1,1,48
	.cfi_remember_state
.LCFI35:
	.cfi_def_cfa_offset 0
	.cfi_restore 31
	.cfi_restore 30
	.cfi_restore 29
	.cfi_restore 28
	.cfi_restore 27
	.cfi_restore 26
	.cfi_restore 25
	.cfi_restore 24
	.cfi_restore 23
	.cfi_restore 22
	blr
.LVL126:
.L116:
.LCFI36:
	.cfi_restore_state
.LBB2230:
.LBB2224:
.LBB2194:
	.loc 4 598 0
	lwz 9,804(31)
.LBB2169:
.LBB2170:
.LBB2171:
.LBB2172:
.LBB2173:
.LBB2174:
	.file 5 "d:\\devkitpro\\devkitppc\\bin\\../lib/gcc/powerpc-eabi/4.6.3/../../../../powerpc-eabi/include/c++/4.6.3/bits/basic_string.h"
	.loc 5 288 0
	lwz 4,212(31)
.LBE2174:
.LBE2173:
.LBE2172:
.LBE2171:
.LBE2170:
.LBE2169:
	.loc 4 598 0
	lwz 30,332(9)
.LVL127:
.LBB2192:
.LBB2176:
.LBB2175:
	.loc 5 717 0
	lwz 23,-12(4)
.LBE2175:
.LBE2176:
	.loc 4 434 0
	addi 0,30,1
.LVL128:
	.loc 4 436 0
	cmpwi 7,0,39
	bgt- 7,.L103
	.loc 4 436 0 is_stmt 0 discriminator 1
	cmpw 7,0,23
	ble- 7,.L113
.L103:
.LVL129:
	.loc 4 439 0 is_stmt 1
	lwz 11,208(31)
	.loc 4 440 0
	addi 9,23,-38
	.loc 4 439 0
	addi 0,11,1
	.loc 4 440 0
	cmpw 7,0,9
	.loc 4 439 0
	stw 0,208(31)
	.loc 4 440 0
	blt- 7,.L104
	.loc 4 441 0
	addi 0,23,-39
	stw 0,208(31)
.LVL130:
.L104:
	.loc 4 443 0
	lwz 29,816(31)
.LBB2177:
.LBB2178:
	.loc 4 582 0
	cmpwi 7,23,39
.LBE2178:
.LBE2177:
	.loc 4 443 0
	lwz 9,0(29)
	lwz 28,208(9)
.LVL131:
.LBB2191:
.LBB2190:
	.loc 4 582 0
	ble- 7,.L105
.LVL132:
	.loc 4 586 0
	lwz 22,208(31)
.LVL133:
.LBB2179:
	.loc 4 585 0
	li 27,0
	.loc 4 589 0
	cmpw 7,23,22
	ble- 7,.L106
.LBB2180:
.LBB2181:
	.loc 5 911 0
	cmplw 7,23,22
.LBE2181:
.LBE2180:
	.loc 4 591 0
	addi 24,31,212
.LVL134:
.LBB2187:
.LBB2184:
	.loc 5 911 0
	ble- 7,.L109
	.loc 4 412 0
	mr 26,24
	subf 23,22,23
	mr 25,22
.LVL135:
.L110:
.LBB2182:
.LBB2183:
	.loc 5 311 0
	lwz 0,-4(4)
	cmpwi 7,0,0
	blt- 7,.L108
	.loc 5 312 0
	mr 3,24
	bl _ZNSbIwSt11char_traitsIwESaIwEE12_M_leak_hardEv
	lwz 4,212(31)
.L108:
.LVL136:
.LBE2183:
.LBE2182:
.LBE2184:
.LBE2187:
	.loc 4 589 0
	cmpwi 7,27,39
	.loc 4 591 0
	slwi 25,25,2
.LVL137:
	lwzx 0,4,25
	.loc 4 589 0
	addi 27,27,1
.LVL138:
	.loc 4 591 0
	stwu 0,4(26)
	.loc 4 589 0
	beq- 7,.L106
	cmpw 7,27,23
	beq- 7,.L106
.LBB2188:
.LBB2185:
	.loc 5 911 0
	lwz 0,-12(4)
.LBE2185:
.LBE2188:
	.loc 4 412 0
	add 25,22,27
.LVL139:
.LBB2189:
.LBB2186:
	.loc 5 911 0
	cmplw 7,0,25
	bgt+ 7,.L110
.LVL140:
.L109:
	.loc 5 912 0
	lis 3,.LC4@ha
	la 3,.LC4@l(3)
	bl _ZSt20__throw_out_of_rangePKc
.LVL141:
.L106:
.LBE2186:
.LBE2189:
.LBE2179:
	.loc 4 595 0
	addi 9,27,52
	li 0,0
	slwi 9,9,2
	.loc 4 597 0
	addi 4,31,216
	.loc 4 595 0
	add 9,31,9
	stw 0,8(9)
.LVL142:
.L105:
.LBE2190:
.LBE2191:
	.loc 4 443 0
	mtctr 28
	mr 3,29
	bctrl
	.loc 4 444 0
	lwz 3,804(31)
	bl _ZN11TextPointer16TextWidthChangedEv
	.loc 4 445 0
	lwz 3,804(31)
	mr 4,30
	bl _ZN11TextPointer18SetPointerPositionEi
.LBE2192:
.LBE2194:
.LBE2224:
.LBE2230:
	.loc 4 447 0
	lwz 0,52(1)
	lwz 22,8(1)
	mtlr 0
	lwz 23,12(1)
	lwz 24,16(1)
	lwz 25,20(1)
	lwz 26,24(1)
	lwz 27,28(1)
	lwz 28,32(1)
	lwz 29,36(1)
	lwz 30,40(1)
.LVL143:
	lwz 31,44(1)
.LVL144:
	addi 1,1,48
	.cfi_remember_state
	.cfi_restore 22
	.cfi_restore 23
	.cfi_restore 24
	.cfi_restore 25
	.cfi_restore 26
	.cfi_restore 27
	.cfi_restore 28
	.cfi_restore 29
	.cfi_restore 30
	.cfi_restore 31
.LCFI37:
	.cfi_def_cfa_offset 0
	blr
.LVL145:
.L115:
.LCFI38:
	.cfi_restore_state
.LBB2231:
.LBB2225:
	.loc 4 598 0
	lwz 9,804(31)
	lwz 29,332(9)
.LVL146:
.LBB2195:
	.loc 4 420 0
	addic. 29,29,-1
	blt- 0,.L117
.LVL147:
.L95:
.LBB2196:
.LBB2197:
.LBB2198:
.LBB2199:
.LBB2200:
.LBB2201:
.LBB2202:
	.loc 5 288 0
	lwz 4,212(31)
.LBE2202:
.LBE2201:
.LBE2200:
.LBE2199:
.LBE2198:
.LBE2197:
.LBE2196:
	.loc 4 427 0
	lwz 30,816(31)
.LVL148:
.LBB2219:
.LBB2216:
.LBB2204:
.LBB2203:
	.loc 5 711 0
	lwz 23,-12(4)
.LBE2203:
.LBE2204:
.LBE2216:
.LBE2219:
	.loc 4 427 0
	lwz 9,0(30)
.LBB2220:
.LBB2217:
	.loc 4 582 0
	cmpwi 7,23,39
.LBE2217:
.LBE2220:
	.loc 4 427 0
	lwz 28,208(9)
.LVL149:
.LBB2221:
.LBB2218:
	.loc 4 582 0
	ble- 7,.L96
.LVL150:
	.loc 4 586 0
	lwz 22,208(31)
.LVL151:
.LBB2205:
	.loc 4 585 0
	li 27,0
	.loc 4 589 0
	cmpw 7,23,22
	ble- 7,.L97
.LBB2206:
.LBB2207:
	.loc 5 911 0
	cmplw 7,22,23
.LBE2207:
.LBE2206:
	.loc 4 591 0
	addi 24,31,212
.LVL152:
.LBB2213:
.LBB2210:
	.loc 5 911 0
	bge- 7,.L109
	.loc 4 412 0
	mr 26,24
	subf 23,22,23
	mr 25,22
.LVL153:
.L101:
.LBB2208:
.LBB2209:
	.loc 5 311 0
	lwz 0,-4(4)
	cmpwi 7,0,0
	blt- 7,.L99
	.loc 5 312 0
	mr 3,24
	bl _ZNSbIwSt11char_traitsIwESaIwEE12_M_leak_hardEv
	lwz 4,212(31)
.L99:
.LVL154:
.LBE2209:
.LBE2208:
.LBE2210:
.LBE2213:
	.loc 4 589 0
	cmpwi 7,27,39
	.loc 4 591 0
	slwi 25,25,2
.LVL155:
	lwzx 0,4,25
	.loc 4 589 0
	addi 27,27,1
.LVL156:
	.loc 4 591 0
	stwu 0,4(26)
	.loc 4 589 0
	beq- 7,.L97
	cmpw 7,27,23
	beq- 7,.L97
.LBB2214:
.LBB2211:
	.loc 5 911 0
	lwz 0,-12(4)
.LBE2211:
.LBE2214:
	.loc 4 412 0
	add 25,22,27
.LVL157:
.LBB2215:
.LBB2212:
	.loc 5 911 0
	cmplw 7,0,25
	bgt+ 7,.L101
	b .L109
.LVL158:
.L97:
.LBE2212:
.LBE2215:
.LBE2205:
	.loc 4 595 0
	addi 9,27,52
	li 0,0
	slwi 9,9,2
	.loc 4 597 0
	addi 4,31,216
	.loc 4 595 0
	add 9,31,9
	stw 0,8(9)
.LVL159:
.L96:
.LBE2218:
.LBE2221:
	.loc 4 427 0
	mtctr 28
	mr 3,30
	bctrl
	.loc 4 428 0
	lwz 3,804(31)
	bl _ZN11TextPointer16TextWidthChangedEv
	.loc 4 429 0
	lwz 3,804(31)
	mr 4,29
	bl _ZN11TextPointer18SetPointerPositionEi
.LBE2195:
.LBE2225:
.LBE2231:
	.loc 4 447 0
	lwz 0,52(1)
	lwz 22,8(1)
	mtlr 0
	lwz 23,12(1)
	lwz 24,16(1)
	lwz 25,20(1)
	lwz 26,24(1)
	lwz 27,28(1)
	lwz 28,32(1)
	lwz 29,36(1)
.LVL160:
	lwz 30,40(1)
	lwz 31,44(1)
.LVL161:
	addi 1,1,48
	.cfi_remember_state
	.cfi_restore 22
	.cfi_restore 23
	.cfi_restore 24
	.cfi_restore 25
	.cfi_restore 26
	.cfi_restore 27
	.cfi_restore 28
	.cfi_restore 29
	.cfi_restore 30
	.cfi_restore 31
.LCFI39:
	.cfi_def_cfa_offset 0
	blr
.LVL162:
.L117:
.LCFI40:
	.cfi_restore_state
.LBB2232:
.LBB2226:
.LBB2222:
	.loc 4 423 0
	lwz 9,208(31)
	.loc 4 422 0
	li 29,0
	.loc 4 423 0
	addi 0,9,-1
	.loc 4 424 0
	cmpwi 7,0,0
	.loc 4 423 0
	stw 0,208(31)
	.loc 4 424 0
	bge+ 7,.L95
	.loc 4 425 0
	stw 29,208(31)
	b .L95
.LVL163:
.L113:
.LBE2222:
.LBB2223:
.LBB2193:
	.loc 4 436 0
	mr 30,0
	b .L104
.LBE2193:
.LBE2223:
.LBE2226:
.LBE2232:
	.cfi_endproc
.LFE1588:
	.size	_ZN11GuiKeyboard15OnPositionMovedEP9GuiButtoniRK6_POINT, .-_ZN11GuiKeyboard15OnPositionMovedEP9GuiButtoniRK6_POINT
	.align 2
	.globl _ZNK11GuiKeyboard13GetUTF8StringEv
	.type	_ZNK11GuiKeyboard13GetUTF8StringEv, @function
_ZNK11GuiKeyboard13GetUTF8StringEv:
.LFB1581:
	.loc 4 326 0
	.cfi_startproc
.LVL164:
	mflr 0
	stwu 1,-16(1)
.LCFI41:
	.cfi_def_cfa_offset 16
	.cfi_register 65, 0
	.loc 4 327 0
	addi 4,4,212
.LVL165:
	.loc 4 326 0
	stw 31,12(1)
	mr 31,3
	.cfi_offset 31, -4
	stw 0,20(1)
	.loc 4 327 0
	.cfi_offset 65, 4
	bl _ZNK7wString6toUTF8Ev
.LVL166:
	.loc 4 328 0
	lwz 0,20(1)
	mr 3,31
	lwz 31,12(1)
.LVL167:
	mtlr 0
	addi 1,1,16
.LCFI42:
	.cfi_def_cfa_offset 0
	.cfi_restore 31
	blr
	.cfi_endproc
.LFE1581:
	.size	_ZNK11GuiKeyboard13GetUTF8StringEv, .-_ZNK11GuiKeyboard13GetUTF8StringEv
	.align 2
	.globl _ZN11GuiKeyboard9GetStringEv
	.type	_ZN11GuiKeyboard9GetStringEv, @function
_ZN11GuiKeyboard9GetStringEv:
.LFB1582:
	.loc 4 331 0
	.cfi_startproc
.LVL168:
	.loc 4 333 0
	lwz 3,212(3)
.LVL169:
	blr
	.cfi_endproc
.LFE1582:
	.size	_ZN11GuiKeyboard9GetStringEv, .-_ZN11GuiKeyboard9GetStringEv
	.align 2
	.globl _ZN11GuiKeyboard17SwitchKeyLanguageEv
	.type	_ZN11GuiKeyboard17SwitchKeyLanguageEv, @function
_ZN11GuiKeyboard17SwitchKeyLanguageEv:
.LFB1583:
	.loc 4 336 0
	.cfi_startproc
.LVL170:
	mflr 0
	stwu 1,-24(1)
.LCFI43:
	.cfi_def_cfa_offset 24
	.cfi_register 65, 0
	.loc 4 339 0
	li 4,0
	li 5,416
	.loc 4 336 0
	stw 29,12(1)
	.loc 4 339 0
	addi 29,3,380
	.cfi_offset 29, -12
	.loc 4 336 0
	stw 0,28(1)
	stw 31,20(1)
	mr 31,3
	.cfi_offset 31, -4
	.cfi_offset 65, 4
	.loc 4 337 0
	lbz 0,803(3)
	.loc 4 336 0
	stw 30,16(1)
	.loc 4 337 0
	xori 0,0,1
	stb 0,803(3)
	.loc 4 339 0
	mr 3,29
.LVL171:
	.cfi_offset 30, -8
	bl memset
	.loc 4 341 0
	lbz 0,803(31)
	cmpwi 7,0,0
	bne- 7,.L123
	.loc 4 355 0
	lis 3,.LC13@ha
	lis 30,.LC14@ha
	la 3,.LC13@l(3)
	la 30,.LC14@l(30)
	bl gettext
	mr 4,3
	mr 3,30
	crxor 6,6,6
	bl _Z4wfmtPKcz
	li 5,13
	mr 4,3
	mr 3,29
	bl wcsncpy
	.loc 4 356 0
	lis 3,.LC15@ha
	la 3,.LC15@l(3)
	bl gettext
	mr 4,3
	mr 3,30
	crxor 6,6,6
	bl _Z4wfmtPKcz
	li 5,13
	mr 4,3
	addi 3,31,432
	bl wcsncpy
	.loc 4 357 0
	lis 3,.LC16@ha
	la 3,.LC16@l(3)
	bl gettext
	mr 4,3
	mr 3,30
	crxor 6,6,6
	bl _Z4wfmtPKcz
	li 5,13
	mr 4,3
	addi 3,31,484
	bl wcsncpy
	.loc 4 358 0
	lis 3,.LC17@ha
	la 3,.LC17@l(3)
	bl gettext
	mr 4,3
	mr 3,30
	crxor 6,6,6
	bl _Z4wfmtPKcz
	li 5,13
	mr 4,3
	addi 3,31,536
	bl wcsncpy
	.loc 4 359 0
	lis 3,.LC18@ha
	la 3,.LC18@l(3)
	bl gettext
	mr 4,3
	mr 3,30
	crxor 6,6,6
	bl _Z4wfmtPKcz
	li 5,13
	mr 4,3
	addi 3,31,588
	bl wcsncpy
	.loc 4 360 0
	lis 3,.LC19@ha
	la 3,.LC19@l(3)
	bl gettext
	mr 4,3
	mr 3,30
	crxor 6,6,6
	bl _Z4wfmtPKcz
	li 5,13
	mr 4,3
	addi 3,31,640
	bl wcsncpy
	.loc 4 361 0
	lis 3,.LC20@ha
	la 3,.LC20@l(3)
	bl gettext
	mr 4,3
	mr 3,30
	crxor 6,6,6
	bl _Z4wfmtPKcz
	li 5,13
	mr 4,3
	addi 3,31,692
	bl wcsncpy
	.loc 4 362 0
	lis 3,.LC21@ha
	la 3,.LC21@l(3)
	bl gettext
	mr 4,3
	mr 3,30
	crxor 6,6,6
	bl _Z4wfmtPKcz
	li 5,13
	mr 4,3
	addi 3,31,744
	bl wcsncpy
	.loc 4 364 0
	lwz 0,28(1)
	lwz 29,12(1)
	mtlr 0
	lwz 30,16(1)
	lwz 31,20(1)
.LVL172:
	addi 1,1,24
	.cfi_remember_state
.LCFI44:
	.cfi_def_cfa_offset 0
	.cfi_restore 31
	.cfi_restore 30
	.cfi_restore 29
	blr
.LVL173:
.L123:
.LCFI45:
	.cfi_restore_state
	.loc 4 343 0
	lis 4,.LC5@ha
	mr 3,29
	la 4,.LC5@l(4)
	li 5,13
	bl wcsncpy
	.loc 4 344 0
	lis 4,.LC6@ha
	la 4,.LC6@l(4)
	addi 3,31,432
	li 5,13
	bl wcsncpy
	.loc 4 345 0
	lis 4,.LC7@ha
	la 4,.LC7@l(4)
	addi 3,31,484
	li 5,13
	bl wcsncpy
	.loc 4 346 0
	lis 4,.LC8@ha
	la 4,.LC8@l(4)
	addi 3,31,536
	li 5,13
	bl wcsncpy
	.loc 4 347 0
	lis 4,.LC9@ha
	la 4,.LC9@l(4)
	addi 3,31,588
	li 5,13
	bl wcsncpy
	.loc 4 348 0
	lis 4,.LC10@ha
	la 4,.LC10@l(4)
	addi 3,31,640
	li 5,13
	bl wcsncpy
	.loc 4 349 0
	lis 4,.LC11@ha
	la 4,.LC11@l(4)
	addi 3,31,692
	li 5,13
	bl wcsncpy
	.loc 4 350 0
	lis 4,.LC12@ha
	addi 3,31,744
	la 4,.LC12@l(4)
	li 5,13
	bl wcsncpy
	.loc 4 364 0
	lwz 0,28(1)
	lwz 29,12(1)
	mtlr 0
	lwz 30,16(1)
	lwz 31,20(1)
.LVL174:
	addi 1,1,24
	.cfi_restore 29
	.cfi_restore 30
	.cfi_restore 31
.LCFI46:
	.cfi_def_cfa_offset 0
	blr
	.cfi_endproc
.LFE1583:
	.size	_ZN11GuiKeyboard17SwitchKeyLanguageEv, .-_ZN11GuiKeyboard17SwitchKeyLanguageEv
	.align 2
	.globl _ZN11GuiKeyboard8MoveTextEi
	.type	_ZN11GuiKeyboard8MoveTextEi, @function
_ZN11GuiKeyboard8MoveTextEi:
.LFB1586:
	.loc 4 386 0
	.cfi_startproc
.LVL175:
	mflr 0
	stwu 1,-48(1)
.LCFI47:
	.cfi_def_cfa_offset 48
	.cfi_register 65, 0
	stw 30,40(1)
	stw 0,52(1)
	stw 29,36(1)
	mr 29,4
	.cfi_offset 29, -12
	.cfi_offset 65, 4
	.cfi_offset 30, -8
.LBB2279:
.LBB2280:
.LBB2281:
.LBB2282:
.LBB2283:
.LBB2284:
	.loc 5 288 0
	lwz 9,212(3)
.LBE2284:
.LBE2283:
.LBE2282:
.LBE2281:
.LBE2280:
.LBE2279:
	.loc 4 386 0
	stw 31,44(1)
	mr 31,3
	.cfi_offset 31, -4
.LVL176:
.LBB2310:
.LBB2286:
.LBB2285:
	.loc 5 711 0
	lwz 30,-12(9)
.LVL177:
.LBE2285:
.LBE2286:
.LBE2310:
	.loc 4 386 0
	stw 23,12(1)
.LBB2311:
	.loc 4 389 0
	cmpwi 7,30,40
.LBE2311:
	.loc 4 386 0
	stw 24,16(1)
	stw 25,20(1)
	stw 26,24(1)
	stw 27,28(1)
	stw 28,32(1)
.LBB2312:
	.loc 4 389 0
	ble- 7,.L125
	.cfi_offset 28, -16
	.cfi_offset 27, -20
	.cfi_offset 26, -24
	.cfi_offset 25, -28
	.cfi_offset 24, -32
	.cfi_offset 23, -36
	.loc 4 391 0
	lwz 24,208(3)
	add 24,4,24
	.loc 4 392 0
	cmpwi 7,24,0
	.loc 4 391 0
	stw 24,208(3)
	.loc 4 392 0
	blt- 7,.L138
.L126:
	.loc 4 398 0
	lwz 23,816(31)
	lwz 11,0(23)
	lwz 28,208(11)
.LVL178:
.L136:
.LBB2287:
.LBB2288:
.LBB2289:
	.loc 4 589 0
	cmpw 7,30,24
	.loc 4 585 0
	li 29,0
	.loc 4 589 0
	ble- 7,.L128
.LBB2290:
.LBB2291:
	.loc 5 911 0
	cmplw 7,30,24
.LBE2291:
.LBE2290:
	.loc 4 591 0
	addi 26,31,212
.LVL179:
.LBB2297:
.LBB2294:
	.loc 5 911 0
	ble- 7,.L131
	.loc 4 385 0
	subf 25,24,30
	mr 27,26
	mr 30,24
.LVL180:
.L132:
.LBB2292:
.LBB2293:
	.loc 5 311 0
	lwz 0,-4(9)
	cmpwi 7,0,0
	blt- 7,.L130
	.loc 5 312 0
	mr 3,26
	bl _ZNSbIwSt11char_traitsIwESaIwEE12_M_leak_hardEv
	lwz 9,212(31)
.L130:
.LVL181:
.LBE2293:
.LBE2292:
.LBE2294:
.LBE2297:
	.loc 4 589 0
	cmpwi 7,29,39
	.loc 4 591 0
	slwi 30,30,2
.LVL182:
	lwzx 0,9,30
	.loc 4 589 0
	addi 29,29,1
.LVL183:
	.loc 4 591 0
	stwu 0,4(27)
	.loc 4 589 0
	beq- 7,.L128
	cmpw 7,29,25
	beq- 7,.L128
.LBB2298:
.LBB2295:
	.loc 5 911 0
	lwz 0,-12(9)
.LBE2295:
.LBE2298:
	.loc 4 385 0
	add 30,29,24
.LVL184:
.LBB2299:
.LBB2296:
	.loc 5 911 0
	cmplw 7,0,30
	bgt+ 7,.L132
.LVL185:
.L131:
	.loc 5 912 0
	lis 3,.LC4@ha
	la 3,.LC4@l(3)
	bl _ZSt20__throw_out_of_rangePKc
.L128:
.LBE2296:
.LBE2299:
.LBE2289:
	.loc 4 595 0
	addi 9,29,52
	li 0,0
	slwi 9,9,2
.LBE2288:
.LBE2287:
	.loc 4 398 0
	mr 3,23
.LBB2305:
.LBB2300:
	.loc 4 595 0
	add 9,31,9
.LBE2300:
.LBE2305:
	.loc 4 398 0
	addi 4,31,216
.LBB2306:
.LBB2301:
	.loc 4 595 0
	stw 0,8(9)
.LBE2301:
.LBE2306:
	.loc 4 398 0
	mtctr 28
	bctrl
	.loc 4 399 0
	lwz 3,804(31)
	bl _ZN11TextPointer16TextWidthChangedEv
.LVL186:
.L133:
.LBE2312:
.LBB2313:
.LBB2314:
.LBB2315:
	.loc 4 402 0
	lwz 3,804(31)
	lwz 4,332(3)
	bl _ZN11TextPointer18SetPointerPositionEi
.LBE2315:
.LBE2314:
.LBE2313:
	.loc 4 405 0
	lwz 0,52(1)
	lwz 23,12(1)
	mtlr 0
	lwz 24,16(1)
	lwz 25,20(1)
	lwz 26,24(1)
	lwz 27,28(1)
	lwz 28,32(1)
	lwz 29,36(1)
	lwz 30,40(1)
	lwz 31,44(1)
.LVL187:
	addi 1,1,48
	.cfi_remember_state
.LCFI48:
	.cfi_def_cfa_offset 0
	.cfi_restore 31
	.cfi_restore 30
	.cfi_restore 29
	.cfi_restore 28
	.cfi_restore 27
	.cfi_restore 26
	.cfi_restore 25
	.cfi_restore 24
	.cfi_restore 23
	blr
.LVL188:
.L125:
.LCFI49:
	.cfi_restore_state
.LBB2316:
	.loc 4 398 0
	lwz 23,816(3)
.LBB2307:
.LBB2302:
	.loc 4 582 0
	cmpwi 7,30,39
.LBE2302:
.LBE2307:
	.loc 4 396 0
	li 0,0
	.loc 4 398 0
	lwz 11,0(23)
	.loc 4 396 0
	stw 0,208(3)
	.loc 4 398 0
	lwz 28,208(11)
.LVL189:
.LBB2308:
.LBB2303:
	.loc 4 582 0
	bgt- 7,.L139
.LBE2303:
.LBE2308:
	.loc 4 398 0
	mr 3,23
.LVL190:
	mr 4,9
.LVL191:
	mtctr 28
	bctrl
	.loc 4 399 0
	lwz 3,804(31)
	bl _ZN11TextPointer16TextWidthChangedEv
	.loc 4 401 0
	cmpwi 7,30,38
	bgt- 7,.L133
	.loc 4 404 0
	lwz 3,804(31)
	lwz 4,332(3)
	add 4,29,4
	bl _ZN11TextPointer18SetPointerPositionEi
.LBE2316:
	.loc 4 405 0
	lwz 0,52(1)
	lwz 23,12(1)
	mtlr 0
	lwz 24,16(1)
	lwz 25,20(1)
	lwz 26,24(1)
	lwz 27,28(1)
	lwz 28,32(1)
	lwz 29,36(1)
.LVL192:
	lwz 30,40(1)
.LVL193:
	lwz 31,44(1)
.LVL194:
	addi 1,1,48
	.cfi_remember_state
	.cfi_restore 23
	.cfi_restore 24
	.cfi_restore 25
	.cfi_restore 26
	.cfi_restore 27
	.cfi_restore 28
	.cfi_restore 29
	.cfi_restore 30
	.cfi_restore 31
.LCFI50:
	.cfi_def_cfa_offset 0
	blr
.LVL195:
.L138:
.LCFI51:
	.cfi_restore_state
.LBB2317:
	.loc 4 393 0
	li 0,0
	li 24,0
	stw 0,208(3)
	b .L126
.LVL196:
.L139:
.LBB2309:
.LBB2304:
	.loc 4 582 0
	li 24,0
	b .L136
.LBE2304:
.LBE2309:
.LBE2317:
	.cfi_endproc
.LFE1586:
	.size	_ZN11GuiKeyboard8MoveTextEi, .-_ZN11GuiKeyboard8MoveTextEi
	.align 2
	.globl _ZN11GuiKeyboard10RemoveCharEi
	.type	_ZN11GuiKeyboard10RemoveCharEi, @function
_ZN11GuiKeyboard10RemoveCharEi:
.LFB1585:
	.loc 4 377 0
	.cfi_startproc
.LVL197:
	.loc 4 378 0
	cmpwi 0,4,0
	.loc 4 377 0
	mflr 0
	stwu 1,-16(1)
.LCFI52:
	.cfi_def_cfa_offset 16
	.cfi_register 65, 0
	stw 31,12(1)
	mr 31,3
	.cfi_offset 31, -4
	stw 0,20(1)
	.loc 4 378 0
	blt- 0,.L140
	.cfi_offset 65, 4
.LVL198:
.LBB2356:
.LBB2357:
	.loc 5 711 0 discriminator 2
	lwz 9,212(3)
	lwz 5,-12(9)
.LBE2357:
.LBE2356:
	.loc 4 378 0 discriminator 2
	cmpw 7,4,5
	bge- 7,.L140
.LVL199:
.LBB2358:
.LBB2359:
.LBB2360:
.LBB2361:
.LBB2362:
.LBB2363:
	.loc 5 318 0
	cmplw 7,5,4
	blt- 7,.L148
.LVL200:
.LBE2363:
.LBE2362:
	.loc 5 1349 0
	subf. 5,4,5
.LBE2361:
.LBE2360:
	.loc 4 381 0
	addi 3,31,212
.LVL201:
.LBB2369:
.LBB2366:
	.loc 5 1349 0
	bne- 0,.L149
	li 6,0
	bl _ZNSbIwSt11char_traitsIwESaIwEE9_M_mutateEjjj
.LVL202:
.LBE2366:
.LBE2369:
.LBE2359:
.LBE2358:
	.loc 4 383 0
	lwz 0,20(1)
.LBB2379:
.LBB2372:
	.loc 4 382 0
	mr 3,31
.LBE2372:
.LBE2379:
	.loc 4 383 0
	lwz 31,12(1)
.LVL203:
	mtlr 0
.LBB2380:
.LBB2373:
	.loc 4 382 0
	li 4,-1
.LBE2373:
.LBE2380:
	.loc 4 383 0
	addi 1,1,16
	.cfi_remember_state
.LCFI53:
	.cfi_def_cfa_offset 0
	.cfi_restore 31
.LBB2381:
.LBB2374:
	.loc 4 382 0
	b _ZN11GuiKeyboard8MoveTextEi
.LVL204:
.L140:
.LCFI54:
	.cfi_restore_state
.LBE2374:
.LBE2381:
	.loc 4 383 0
	lwz 0,20(1)
	lwz 31,12(1)
	mtlr 0
	addi 1,1,16
	.cfi_remember_state
.LCFI55:
	.cfi_def_cfa_offset 0
	.cfi_restore 31
	blr
.LVL205:
.L149:
.LCFI56:
	.cfi_restore_state
.LBB2382:
.LBB2375:
.LBB2370:
.LBB2367:
	.loc 5 1349 0
	li 5,1
	li 6,0
	bl _ZNSbIwSt11char_traitsIwESaIwEE9_M_mutateEjjj
.LVL206:
.LBE2367:
.LBE2370:
.LBE2375:
.LBE2382:
	.loc 4 383 0
	lwz 0,20(1)
.LBB2383:
.LBB2376:
	.loc 4 382 0
	mr 3,31
.LBE2376:
.LBE2383:
	.loc 4 383 0
	lwz 31,12(1)
.LVL207:
	mtlr 0
.LBB2384:
.LBB2377:
	.loc 4 382 0
	li 4,-1
.LBE2377:
.LBE2384:
	.loc 4 383 0
	addi 1,1,16
	.cfi_remember_state
	.cfi_restore 31
.LCFI57:
	.cfi_def_cfa_offset 0
.LBB2385:
.LBB2378:
	.loc 4 382 0
	b _ZN11GuiKeyboard8MoveTextEi
.LVL208:
.L148:
.LCFI58:
	.cfi_restore_state
.LBB2371:
.LBB2368:
.LBB2365:
.LBB2364:
	.loc 5 319 0
	lis 3,.LC22@ha
.LVL209:
	la 3,.LC22@l(3)
	bl _ZSt20__throw_out_of_rangePKc
.LVL210:
.LVL211:
.LVL212:
.LVL213:
.LBE2364:
.LBE2365:
.LBE2368:
.LBE2371:
.LBE2378:
.LBE2385:
	.cfi_endproc
.LFE1585:
	.size	_ZN11GuiKeyboard10RemoveCharEi, .-_ZN11GuiKeyboard10RemoveCharEi
	.align 2
	.globl _ZN11GuiKeyboard7AddCharEiw
	.type	_ZN11GuiKeyboard7AddCharEiw, @function
_ZN11GuiKeyboard7AddCharEiw:
.LFB1584:
	.loc 4 367 0
	.cfi_startproc
.LVL214:
	mflr 0
	stwu 1,-16(1)
.LCFI59:
	.cfi_def_cfa_offset 16
	.cfi_register 65, 0
	mr 7,5
	stw 31,12(1)
	mr 31,3
	.cfi_offset 31, -4
	stw 0,20(1)
	.loc 4 368 0
	mr. 0,4
	.cfi_offset 65, 4
	blt- 0,.L150
.LVL215:
.LBB2397:
.LBB2398:
.LBB2399:
.LBB2400:
.LBB2401:
.LBB2402:
.LBB2403:
.LBB2404:
	.loc 5 711 0
	lwz 9,212(3)
.LBE2404:
.LBE2403:
	.loc 5 318 0
	lwz 9,-12(9)
	cmplw 7,0,9
	bgt- 7,.L153
.LBE2402:
.LBE2401:
	.loc 5 1308 0
	addi 3,3,212
.LVL216:
	li 5,0
.LVL217:
	li 6,1
	bl _ZNSbIwSt11char_traitsIwESaIwEE14_M_replace_auxEjjjw
.LVL218:
.LBE2400:
.LBE2399:
.LBE2398:
.LBE2397:
	.loc 4 374 0
	lwz 0,20(1)
.LBB2413:
.LBB2409:
	.loc 4 373 0
	mr 3,31
.LBE2409:
.LBE2413:
	.loc 4 374 0
	lwz 31,12(1)
.LVL219:
	mtlr 0
.LBB2414:
.LBB2410:
	.loc 4 373 0
	li 4,1
.LBE2410:
.LBE2414:
	.loc 4 374 0
	addi 1,1,16
	.cfi_remember_state
.LCFI60:
	.cfi_def_cfa_offset 0
	.cfi_restore 31
.LBB2415:
.LBB2411:
	.loc 4 373 0
	b _ZN11GuiKeyboard8MoveTextEi
.LVL220:
.L150:
.LCFI61:
	.cfi_restore_state
.LBE2411:
.LBE2415:
	.loc 4 374 0
	lwz 0,20(1)
.LVL221:
	lwz 31,12(1)
	mtlr 0
	addi 1,1,16
	.cfi_remember_state
.LCFI62:
	.cfi_def_cfa_offset 0
	.cfi_restore 31
	blr
.LVL222:
.L153:
.LCFI63:
	.cfi_restore_state
.LBB2416:
.LBB2412:
.LBB2408:
.LBB2407:
.LBB2406:
.LBB2405:
	.loc 5 319 0
	lis 3,.LC23@ha
.LVL223:
	la 3,.LC23@l(3)
	bl _ZSt20__throw_out_of_rangePKc
.LVL224:
.LVL225:
.LVL226:
.LVL227:
.LVL228:
.LVL229:
.LVL230:
.LBE2405:
.LBE2406:
.LBE2407:
.LBE2408:
.LBE2412:
.LBE2416:
	.cfi_endproc
.LFE1584:
	.size	_ZN11GuiKeyboard7AddCharEiw, .-_ZN11GuiKeyboard7AddCharEiw
	.align 2
	.globl _ZN11GuiKeyboard16OnNormalKeyPressEP9GuiButtoniRK6_POINT
	.type	_ZN11GuiKeyboard16OnNormalKeyPressEP9GuiButtoniRK6_POINT, @function
_ZN11GuiKeyboard16OnNormalKeyPressEP9GuiButtoniRK6_POINT:
.LFB1590:
	.loc 4 489 0
	.cfi_startproc
.LVL231:
	mflr 0
	stwu 1,-48(1)
.LCFI64:
	.cfi_def_cfa_offset 48
	.cfi_register 65, 0
	stw 31,44(1)
	stw 0,52(1)
	stw 24,16(1)
.LBB2450:
.LBB2451:
.LBB2452:
.LBB2453:
.LBB2454:
.LBB2455:
	.loc 4 371 0
	addi 24,3,212
	.cfi_offset 24, -32
	.cfi_offset 65, 4
	.cfi_offset 31, -4
.LBE2455:
.LBE2454:
.LBE2453:
.LBE2452:
.LBE2451:
.LBE2450:
	.loc 4 489 0
	stw 25,20(1)
.LBB2484:
.LBB2480:
	.loc 4 510 0
	li 25,0
	.cfi_offset 25, -28
.LBE2480:
.LBE2484:
	.loc 4 489 0
	stw 26,24(1)
.LBB2485:
.LBB2481:
	.loc 4 511 0
	li 26,1
	.cfi_offset 26, -24
.LBE2481:
.LBE2485:
	.loc 4 489 0
	stw 27,28(1)
	.loc 4 490 0
	li 27,0
	.cfi_offset 27, -20
	.loc 4 489 0
	stw 28,32(1)
	mr 28,3
	.cfi_offset 28, -16
	stw 29,36(1)
	mr 29,4
	.cfi_offset 29, -12
	stw 30,40(1)
	.loc 4 488 0
	li 30,0
	.cfi_offset 30, -8
.LVL232:
.L155:
.LBB2486:
	.loc 4 488 0 is_stmt 0 discriminator 1
	mulli 31,27,104
.LBE2486:
	li 0,13
	stw 0,8(1)
.LBB2487:
	add 31,28,31
	addi 31,31,380
	b .L163
.LVL233:
.L156:
.LBB2482:
	.loc 4 492 0 is_stmt 1
	lwz 0,8(1)
	.loc 4 511 0
	addi 31,31,4
	.loc 4 492 0
	addic. 9,0,-1
	stw 9,8(1)
	beq- 0,.L168
.L163:
	.loc 4 488 0
	add 9,31,30
	.loc 4 494 0
	lwz 0,552(9)
	cmpw 7,0,29
	bne+ 7,.L156
.LVL234:
.LBB2463:
.LBB2464:
	.loc 5 717 0
	lwz 9,212(28)
.LBE2464:
.LBE2463:
	.loc 4 496 0
	lwz 0,376(28)
.LBB2466:
.LBB2465:
	.loc 5 717 0
	lwz 9,-12(9)
.LBE2465:
.LBE2466:
	.loc 4 496 0
	cmplw 7,0,9
	.loc 4 498 0
	lbz 0,800(28)
	.loc 4 496 0
	ble- 7,.L166
	.loc 4 498 0
	cmpwi 7,0,0
	bne- 7,.L159
	.loc 4 498 0 is_stmt 0 discriminator 1
	lbz 0,801(28)
	cmpwi 6,0,0
	beq- 6,.L160
.L159:
	.loc 4 598 0 is_stmt 1
	lwz 11,804(28)
	.loc 4 500 0
	lwz 4,208(28)
	lwz 0,332(11)
	lwz 7,52(31)
.LVL235:
.LBB2467:
.LBB2462:
	.loc 4 368 0
	add. 4,4,0
	blt- 0,.L158
.LVL236:
.LBB2461:
.LBB2460:
.LBB2456:
.LBB2457:
.LBB2458:
.LBB2459:
	.loc 5 318 0
	cmplw 7,9,4
	blt- 7,.L167
.LBE2459:
.LBE2458:
	.loc 5 1308 0
	li 5,0
	li 6,1
	mr 3,24
	bl _ZNSbIwSt11char_traitsIwESaIwEE14_M_replace_auxEjjjw
.LVL237:
.LBE2457:
.LBE2456:
	.loc 4 373 0
	mr 3,28
	li 4,1
	bl _ZN11GuiKeyboard8MoveTextEi
	lbz 0,800(28)
	cmpwi 7,0,0
.LVL238:
.L158:
.LBE2460:
.LBE2461:
.LBE2462:
.LBE2467:
	.loc 4 508 0
	beq- 7,.L156
	.loc 4 492 0
	lwz 0,8(1)
	.loc 4 511 0
	addi 31,31,4
	.loc 4 510 0
	stb 25,800(28)
	.loc 4 492 0
	addic. 9,0,-1
	.loc 4 511 0
	stb 26,802(28)
	.loc 4 492 0
	stw 9,8(1)
	bne+ 0,.L163
.LVL239:
.L168:
.LBE2482:
	.loc 4 490 0
	cmpwi 7,27,3
	addi 30,30,-52
	addi 27,27,1
.LVL240:
	bne+ 7,.L155
.LBE2487:
	.loc 4 516 0
	lwz 0,52(1)
	lwz 24,16(1)
	mtlr 0
	lwz 25,20(1)
	lwz 26,24(1)
	lwz 27,28(1)
.LVL241:
	lwz 28,32(1)
.LVL242:
	lwz 29,36(1)
.LVL243:
	lwz 30,40(1)
	lwz 31,44(1)
	addi 1,1,48
	.cfi_remember_state
.LCFI65:
	.cfi_def_cfa_offset 0
	.cfi_restore 31
	.cfi_restore 30
	.cfi_restore 29
	.cfi_restore 28
	.cfi_restore 27
	.cfi_restore 26
	.cfi_restore 25
	.cfi_restore 24
	blr
.LVL244:
.L160:
.LCFI66:
	.cfi_restore_state
.LBB2488:
.LBB2483:
	.loc 4 598 0
	lwz 10,804(28)
	.loc 4 504 0
	lwz 11,208(28)
	lwz 0,332(10)
	lwz 7,0(31)
.LVL245:
.LBB2468:
.LBB2469:
	.loc 4 368 0
	add. 4,11,0
	blt- 0,.L156
.LVL246:
.LBB2470:
.LBB2471:
.LBB2472:
.LBB2473:
.LBB2474:
.LBB2475:
	.loc 5 318 0
	cmplw 7,9,4
	blt- 7,.L167
.LBE2475:
.LBE2474:
	.loc 5 1308 0
	li 5,0
	li 6,1
	mr 3,24
	bl _ZNSbIwSt11char_traitsIwESaIwEE14_M_replace_auxEjjjw
.LVL247:
.LBE2473:
.LBE2472:
	.loc 4 373 0
	mr 3,28
	li 4,1
	bl _ZN11GuiKeyboard8MoveTextEi
	lbz 0,800(28)
.LVL248:
.L166:
	cmpwi 7,0,0
	b .L158
.LVL249:
.L167:
.LBB2479:
.LBB2478:
.LBB2477:
.LBB2476:
	.loc 5 319 0
	lis 3,.LC23@ha
	la 3,.LC23@l(3)
	bl _ZSt20__throw_out_of_rangePKc
.LVL250:
.LBE2476:
.LBE2477:
.LBE2478:
.LBE2479:
.LBE2471:
.LBE2470:
.LBE2469:
.LBE2468:
.LBE2483:
.LBE2488:
	.cfi_endproc
.LFE1590:
	.size	_ZN11GuiKeyboard16OnNormalKeyPressEP9GuiButtoniRK6_POINT, .-_ZN11GuiKeyboard16OnNormalKeyPressEP9GuiButtoniRK6_POINT
	.align 2
	.globl _ZN11GuiKeyboard6UpdateEP10GuiTrigger
	.type	_ZN11GuiKeyboard6UpdateEP10GuiTrigger, @function
_ZN11GuiKeyboard6UpdateEP10GuiTrigger:
.LFB1591:
	.loc 4 519 0
	.cfi_startproc
.LVL251:
	stwu 1,-48(1)
.LCFI67:
	.cfi_def_cfa_offset 48
	mflr 0
	stw 29,36(1)
	mr 29,4
	.cfi_offset 29, -12
	.cfi_register 65, 0
	stw 0,52(1)
	stw 30,40(1)
.LBB2529:
	.loc 4 524 0
	lis 30,Settings@ha
	.cfi_offset 30, -8
	.cfi_offset 65, 4
.LBE2529:
	.loc 4 519 0
	stw 31,44(1)
	.loc 4 519 0
	mr 31,3
	.cfi_offset 31, -4
.LBB2559:
	.loc 4 520 0
	bl _ZN8GuiFrame6UpdateEP10GuiTrigger
.LVL252:
	.loc 4 524 0
	lwz 9,12(29)
	la 30,Settings@l(30)
	.loc 4 522 0
	lwz 10,204(31)
	.loc 4 524 0
	lhz 0,2636(30)
	lwz 11,12(9)
	and. 8,0,11
	.loc 4 522 0
	addi 0,10,1
	stw 0,204(31)
	.loc 4 524 0
	bne- 0,.L170
	.loc 4 524 0 is_stmt 0 discriminator 2
	lhz 10,2664(30)
	slwi 10,10,16
	and. 8,10,11
	beq- 0,.L254
.L170:
	.loc 4 524 0 discriminator 1
	lha 11,126(30)
	cmplw 7,0,11
	bgt- 7,.L255
.L171:
	.loc 4 533 0 is_stmt 1
	lwz 0,12(9)
	lhz 9,2634(30)
	and. 11,9,0
	bne- 0,.L175
	.loc 4 533 0 is_stmt 0 discriminator 1
	lhz 9,2662(30)
	slwi 9,9,16
	and. 8,9,0
	beq- 0,.L256
.L175:
	.loc 4 539 0 is_stmt 1
	lwz 9,796(31)
	.loc 4 537 0
	li 0,1
	stb 0,801(31)
	.loc 4 539 0
	cmpwi 7,9,0
	blt- 7,.L177
	lbz 0,802(31)
.L178:
	.loc 4 542 0
	lwz 9,8(29)
	stw 9,796(31)
.L179:
.LBB2530:
	.loc 4 555 0
	cmpwi 7,0,0
	beq- 7,.L169
.L181:
.LBB2531:
	.loc 4 557 0
	li 0,0
	li 9,4
	stw 0,8(1)
	mr 30,31
	stw 0,12(1)
.LVL253:
	mr 29,31
.LVL254:
	stw 9,24(1)
.LVL255:
.L235:
.LBB2532:
.LBB2533:
	.loc 4 563 0 discriminator 1
	lwz 0,380(30)
	cmpwi 7,0,0
	beq- 7,.L183
	.loc 4 565 0
	lbz 9,800(31)
	cmpwi 7,9,0
	bne- 7,.L184
	lbz 9,801(31)
	cmpwi 7,9,0
	beq- 7,.L257
.L184:
	.loc 4 566 0
	lwz 0,432(30)
	stw 0,8(1)
.L186:
	.loc 4 570 0
	lwz 3,1556(29)
	addi 4,1,8
	lwz 9,0(3)
	lwz 0,208(9)
	mtctr 0
	bctrl
.L183:
.LVL256:
	.loc 4 563 0
	lwz 0,384(30)
	cmpwi 7,0,0
	beq- 7,.L187
	.loc 4 565 0
	lbz 9,800(31)
	cmpwi 7,9,0
	bne- 7,.L188
	lbz 9,801(31)
	cmpwi 7,9,0
	beq- 7,.L258
.L188:
	.loc 4 566 0
	lwz 0,436(30)
	stw 0,8(1)
.L190:
	.loc 4 570 0
	lwz 3,1560(29)
	addi 4,1,8
	lwz 9,0(3)
	lwz 0,208(9)
	mtctr 0
	bctrl
.L187:
.LVL257:
	.loc 4 563 0
	lwz 0,388(30)
	cmpwi 7,0,0
	beq- 7,.L191
	.loc 4 565 0
	lbz 9,800(31)
	cmpwi 7,9,0
	bne- 7,.L192
	lbz 9,801(31)
	cmpwi 7,9,0
	beq- 7,.L259
.L192:
	.loc 4 566 0
	lwz 0,440(30)
	stw 0,8(1)
.L194:
	.loc 4 570 0
	lwz 3,1564(29)
	addi 4,1,8
	lwz 9,0(3)
	lwz 0,208(9)
	mtctr 0
	bctrl
.L191:
.LVL258:
	.loc 4 563 0
	lwz 0,392(30)
	cmpwi 7,0,0
	beq- 7,.L195
	.loc 4 565 0
	lbz 9,800(31)
	cmpwi 7,9,0
	bne- 7,.L196
	lbz 9,801(31)
	cmpwi 7,9,0
	beq- 7,.L260
.L196:
	.loc 4 566 0
	lwz 0,444(30)
	stw 0,8(1)
.L198:
	.loc 4 570 0
	lwz 3,1568(29)
	addi 4,1,8
	lwz 9,0(3)
	lwz 0,208(9)
	mtctr 0
	bctrl
.L195:
.LVL259:
	.loc 4 563 0
	lwz 0,396(30)
	cmpwi 7,0,0
	beq- 7,.L199
	.loc 4 565 0
	lbz 9,800(31)
	cmpwi 7,9,0
	bne- 7,.L200
	lbz 9,801(31)
	cmpwi 7,9,0
	beq- 7,.L261
.L200:
	.loc 4 566 0
	lwz 0,448(30)
	stw 0,8(1)
.L202:
	.loc 4 570 0
	lwz 3,1572(29)
	addi 4,1,8
	lwz 9,0(3)
	lwz 0,208(9)
	mtctr 0
	bctrl
.L199:
.LVL260:
	.loc 4 563 0
	lwz 0,400(30)
	cmpwi 7,0,0
	beq- 7,.L203
	.loc 4 565 0
	lbz 9,800(31)
	cmpwi 7,9,0
	bne- 7,.L204
	lbz 9,801(31)
	cmpwi 7,9,0
	beq- 7,.L262
.L204:
	.loc 4 566 0
	lwz 0,452(30)
	stw 0,8(1)
.L206:
	.loc 4 570 0
	lwz 3,1576(29)
	addi 4,1,8
	lwz 9,0(3)
	lwz 0,208(9)
	mtctr 0
	bctrl
.L203:
.LVL261:
	.loc 4 563 0
	lwz 0,404(30)
	cmpwi 7,0,0
	beq- 7,.L207
	.loc 4 565 0
	lbz 9,800(31)
	cmpwi 7,9,0
	bne- 7,.L208
	lbz 9,801(31)
	cmpwi 7,9,0
	beq- 7,.L263
.L208:
	.loc 4 566 0
	lwz 0,456(30)
	stw 0,8(1)
.L210:
	.loc 4 570 0
	lwz 3,1580(29)
	addi 4,1,8
	lwz 9,0(3)
	lwz 0,208(9)
	mtctr 0
	bctrl
.L207:
.LVL262:
	.loc 4 563 0
	lwz 0,408(30)
	cmpwi 7,0,0
	beq- 7,.L211
	.loc 4 565 0
	lbz 9,800(31)
	cmpwi 7,9,0
	bne- 7,.L212
	lbz 9,801(31)
	cmpwi 7,9,0
	beq- 7,.L264
.L212:
	.loc 4 566 0
	lwz 0,460(30)
	stw 0,8(1)
.L214:
	.loc 4 570 0
	lwz 3,1584(29)
	addi 4,1,8
	lwz 9,0(3)
	lwz 0,208(9)
	mtctr 0
	bctrl
.L211:
.LVL263:
	.loc 4 563 0
	lwz 0,412(30)
	cmpwi 7,0,0
	beq- 7,.L215
	.loc 4 565 0
	lbz 9,800(31)
	cmpwi 7,9,0
	bne- 7,.L216
	lbz 9,801(31)
	cmpwi 7,9,0
	beq- 7,.L265
.L216:
	.loc 4 566 0
	lwz 0,464(30)
	stw 0,8(1)
.L218:
	.loc 4 570 0
	lwz 3,1588(29)
	addi 4,1,8
	lwz 9,0(3)
	lwz 0,208(9)
	mtctr 0
	bctrl
.L215:
.LVL264:
	.loc 4 563 0
	lwz 0,416(30)
	cmpwi 7,0,0
	beq- 7,.L219
	.loc 4 565 0
	lbz 9,800(31)
	cmpwi 7,9,0
	bne- 7,.L220
	lbz 9,801(31)
	cmpwi 7,9,0
	beq- 7,.L266
.L220:
	.loc 4 566 0
	lwz 0,468(30)
	stw 0,8(1)
.L222:
	.loc 4 570 0
	lwz 3,1592(29)
	addi 4,1,8
	lwz 9,0(3)
	lwz 0,208(9)
	mtctr 0
	bctrl
.L219:
.LVL265:
	.loc 4 563 0
	lwz 0,420(30)
	cmpwi 7,0,0
	beq- 7,.L223
	.loc 4 565 0
	lbz 9,800(31)
	cmpwi 7,9,0
	bne- 7,.L224
	lbz 9,801(31)
	cmpwi 7,9,0
	beq- 7,.L267
.L224:
	.loc 4 566 0
	lwz 0,472(30)
	stw 0,8(1)
.L226:
	.loc 4 570 0
	lwz 3,1596(29)
	addi 4,1,8
	lwz 9,0(3)
	lwz 0,208(9)
	mtctr 0
	bctrl
.L223:
.LVL266:
	.loc 4 563 0
	lwz 0,424(30)
	cmpwi 7,0,0
	beq- 7,.L227
	.loc 4 565 0
	lbz 9,800(31)
	cmpwi 7,9,0
	bne- 7,.L228
	lbz 9,801(31)
	cmpwi 7,9,0
	beq- 7,.L268
.L228:
	.loc 4 566 0
	lwz 0,476(30)
	stw 0,8(1)
.L230:
	.loc 4 570 0
	lwz 3,1600(29)
	addi 4,1,8
	lwz 9,0(3)
	lwz 0,208(9)
	mtctr 0
	bctrl
.L227:
.LVL267:
	.loc 4 563 0
	lwz 0,428(30)
	cmpwi 7,0,0
	beq- 7,.L231
	.loc 4 565 0
	lbz 9,800(31)
	cmpwi 7,9,0
	bne- 7,.L232
	lbz 9,801(31)
	cmpwi 7,9,0
	beq- 7,.L269
.L232:
	.loc 4 566 0
	lwz 0,480(30)
	stw 0,8(1)
.L234:
	.loc 4 570 0
	lwz 3,1604(29)
	addi 4,1,8
	lwz 9,0(3)
	lwz 0,208(9)
	mtctr 0
	bctrl
.L231:
.LVL268:
.LBE2533:
	.loc 4 559 0
	lwz 0,24(1)
.LBB2534:
	.loc 4 568 0
	addi 30,30,104
	addi 29,29,52
.LBE2534:
	.loc 4 559 0
	addic. 8,0,-1
	stw 8,24(1)
	bne+ 0,.L235
.LBE2532:
	.loc 4 574 0
	lwz 9,24(1)
	stb 9,802(31)
.LVL269:
.L169:
.LBE2531:
.LBE2530:
.LBE2559:
	.loc 4 576 0
	lwz 0,52(1)
	lwz 29,36(1)
	mtlr 0
	lwz 30,40(1)
	lwz 31,44(1)
.LVL270:
	addi 1,1,48
	.cfi_remember_state
.LCFI68:
	.cfi_def_cfa_offset 0
	.cfi_restore 31
	.cfi_restore 30
	.cfi_restore 29
	blr
.LVL271:
.L269:
.LCFI69:
	.cfi_restore_state
.LBB2560:
.LBB2538:
.LBB2537:
.LBB2536:
.LBB2535:
	.loc 4 568 0
	stw 0,8(1)
	b .L234
.LVL272:
.L268:
	stw 0,8(1)
	b .L230
.LVL273:
.L267:
	stw 0,8(1)
	b .L226
.LVL274:
.L266:
	stw 0,8(1)
	b .L222
.LVL275:
.L265:
	stw 0,8(1)
	b .L218
.LVL276:
.L264:
	stw 0,8(1)
	b .L214
.LVL277:
.L263:
	stw 0,8(1)
	b .L210
.LVL278:
.L262:
	stw 0,8(1)
	b .L206
.LVL279:
.L261:
	stw 0,8(1)
	b .L202
.LVL280:
.L260:
	stw 0,8(1)
	b .L198
.LVL281:
.L259:
	stw 0,8(1)
	b .L194
.LVL282:
.L258:
	stw 0,8(1)
	b .L190
.LVL283:
.L257:
	stw 0,8(1)
	b .L186
.LVL284:
.L256:
.LBE2535:
.LBE2536:
.LBE2537:
.LBE2538:
	.loc 4 533 0 discriminator 2
	lhz 9,2690(30)
	lhz 0,360(29)
	and. 0,9,0
	bne- 0,.L175
	.loc 4 546 0
	lwz 11,8(29)
	lwz 9,796(31)
	cmpw 7,11,9
	beq- 7,.L180
	lbz 0,802(31)
	b .L179
.L254:
	.loc 4 524 0 discriminator 3
	lhz 11,2692(30)
	lhz 10,360(29)
	and. 8,10,11
	beq- 0,.L171
	.loc 4 524 0 is_stmt 0
	lha 11,126(30)
	cmplw 7,0,11
	ble+ 7,.L171
.L255:
.LVL285:
	.loc 4 598 0 is_stmt 1
	lwz 11,804(31)
	.loc 4 529 0
	lwz 4,208(31)
	lwz 0,332(11)
	add 4,4,0
.LVL286:
.LBB2539:
.LBB2540:
	.loc 4 378 0
	addic. 4,4,-1
.LVL287:
	blt- 0,.L172
.LVL288:
.LBB2541:
.LBB2542:
	.loc 5 711 0
	lwz 11,212(31)
	lwz 5,-12(11)
.LBE2542:
.LBE2541:
	.loc 4 378 0
	cmpw 7,4,5
	bge- 7,.L172
.LVL289:
.LBB2543:
.LBB2544:
.LBB2545:
.LBB2546:
.LBB2547:
.LBB2548:
	.loc 5 318 0
	cmplw 7,5,4
	blt- 7,.L270
.LVL290:
.LBE2548:
.LBE2547:
	.loc 5 1349 0
	subf. 5,4,5
.LBE2546:
.LBE2545:
	.loc 4 381 0
	addi 3,31,212
.LBB2553:
.LBB2551:
	.loc 5 1349 0
	beq- 0,.L174
	li 5,1
.L174:
	li 6,0
	bl _ZNSbIwSt11char_traitsIwESaIwEE9_M_mutateEjjj
.LVL291:
.LBE2551:
.LBE2553:
	.loc 4 382 0
	mr 3,31
	li 4,-1
	bl _ZN11GuiKeyboard8MoveTextEi
	lwz 9,12(29)
.LVL292:
.L172:
.LBE2544:
.LBE2543:
.LBE2540:
.LBE2539:
	.loc 4 530 0
	li 0,0
	stw 0,204(31)
	b .L171
.LVL293:
.L177:
	.loc 4 540 0
	stb 0,802(31)
	li 0,1
	b .L178
.L180:
	.loc 4 548 0
	stb 0,801(31)
	.loc 4 549 0
	stb 0,800(31)
	.loc 4 550 0
	li 0,1
	stb 0,802(31)
	.loc 4 551 0
	li 0,-1
	stw 0,796(31)
	b .L181
.LVL294:
.L270:
.LBB2558:
.LBB2557:
.LBB2556:
.LBB2555:
.LBB2554:
.LBB2552:
.LBB2550:
.LBB2549:
	.loc 5 319 0
	lis 3,.LC22@ha
	la 3,.LC22@l(3)
	bl _ZSt20__throw_out_of_rangePKc
.LVL295:
.LVL296:
.LVL297:
.LVL298:
.LBE2549:
.LBE2550:
.LBE2552:
.LBE2554:
.LBE2555:
.LBE2556:
.LBE2557:
.LBE2558:
.LBE2560:
	.cfi_endproc
.LFE1591:
	.size	_ZN11GuiKeyboard6UpdateEP10GuiTrigger, .-_ZN11GuiKeyboard6UpdateEP10GuiTrigger
	.align 2
	.globl _ZN11GuiKeyboard17OnSpecialKeyPressEP9GuiButtoniRK6_POINT
	.type	_ZN11GuiKeyboard17OnSpecialKeyPressEP9GuiButtoniRK6_POINT, @function
_ZN11GuiKeyboard17OnSpecialKeyPressEP9GuiButtoniRK6_POINT:
.LFB1589:
	.loc 4 450 0
	.cfi_startproc
.LVL299:
	mflr 0
	stwu 1,-48(1)
.LCFI70:
	.cfi_def_cfa_offset 48
	.cfi_register 65, 0
	stw 31,44(1)
	mr 31,3
	.cfi_offset 31, -4
	stw 0,52(1)
	stw 23,12(1)
	.loc 4 451 0
	lwz 0,880(3)
	.cfi_offset 23, -36
	.cfi_offset 65, 4
	.loc 4 450 0
	stw 24,16(1)
	.loc 4 451 0
	cmpw 7,0,4
	.loc 4 450 0
	stw 25,20(1)
	stw 26,24(1)
	stw 27,28(1)
	stw 28,32(1)
	stw 29,36(1)
	stw 30,40(1)
	.loc 4 451 0
	beq- 7,.L299
	.cfi_offset 30, -8
	.cfi_offset 29, -12
	.cfi_offset 28, -16
	.cfi_offset 27, -20
	.cfi_offset 26, -24
	.cfi_offset 25, -28
	.cfi_offset 24, -32
.L272:
	.loc 4 455 0
	lwz 0,868(31)
	cmpw 7,0,4
	beq- 7,.L300
	.loc 4 459 0
	lwz 0,896(31)
	cmpw 7,0,4
	beq- 7,.L301
	.loc 4 463 0
	lwz 0,912(31)
	cmpw 7,0,4
	beq- 7,.L302
	.loc 4 471 0
	lwz 0,852(31)
	cmpw 7,0,4
	beq- 7,.L303
	.loc 4 476 0
	lwz 0,836(31)
	cmpw 7,0,4
	beq- 7,.L304
	.loc 4 481 0
	lwz 0,928(31)
	cmpw 7,0,4
	beq- 7,.L305
.LVL300:
.L271:
	.loc 4 486 0
	lwz 0,52(1)
	lwz 23,12(1)
	mtlr 0
	lwz 24,16(1)
	lwz 25,20(1)
	lwz 26,24(1)
	lwz 27,28(1)
	lwz 28,32(1)
	lwz 29,36(1)
	lwz 30,40(1)
	lwz 31,44(1)
.LVL301:
	addi 1,1,48
	.cfi_remember_state
.LCFI71:
	.cfi_def_cfa_offset 0
	.cfi_restore 31
	.cfi_restore 30
	.cfi_restore 29
	.cfi_restore 28
	.cfi_restore 27
	.cfi_restore 26
	.cfi_restore 25
	.cfi_restore 24
	.cfi_restore 23
	blr
.LVL302:
.L299:
.LCFI72:
	.cfi_restore_state
.LBB2662:
.LBB2663:
	.loc 5 717 0 discriminator 1
	lwz 11,212(3)
.LBE2663:
.LBE2662:
	.loc 4 451 0 discriminator 1
	lwz 9,376(3)
.LBB2665:
.LBB2664:
	.loc 5 717 0 discriminator 1
	lwz 0,-12(11)
.LBE2664:
.LBE2665:
	.loc 4 451 0 discriminator 1
	cmplw 7,9,0
	ble- 7,.L272
.LVL303:
	.loc 4 598 0 discriminator 4
	lwz 9,804(3)
	.loc 4 453 0 discriminator 4
	lwz 4,208(3)
.LVL304:
	lwz 9,332(9)
.LVL305:
.LBB2666:
.LBB2667:
	.loc 4 368 0 discriminator 4
	add. 4,4,9
	blt- 0,.L271
.LVL306:
.LBB2668:
.LBB2669:
.LBB2670:
.LBB2671:
.LBB2672:
.LBB2673:
	.loc 5 318 0
	cmplw 7,0,4
	blt- 7,.L298
.LBE2673:
.LBE2672:
	.loc 5 1308 0
	addi 3,3,212
.LVL307:
	li 5,0
.LVL308:
	li 6,1
.LVL309:
	li 7,32
.LVL310:
.L296:
.LBE2671:
.LBE2670:
.LBE2669:
.LBE2668:
.LBE2667:
.LBE2666:
.LBB2674:
.LBB2675:
.LBB2676:
.LBB2677:
.LBB2678:
.LBB2679:
	bl _ZNSbIwSt11char_traitsIwESaIwEE14_M_replace_auxEjjjw
.LVL311:
.LBE2679:
.LBE2678:
	.loc 4 373 0
	mr 3,31
	li 4,1
.L297:
.LBE2677:
.LBE2676:
.LBE2675:
.LBE2674:
	.loc 4 486 0
	lwz 0,52(1)
	lwz 23,12(1)
	lwz 24,16(1)
	mtlr 0
	lwz 25,20(1)
	lwz 26,24(1)
	lwz 27,28(1)
	lwz 28,32(1)
	lwz 29,36(1)
	lwz 30,40(1)
	lwz 31,44(1)
.LVL312:
	addi 1,1,48
	.cfi_remember_state
.LCFI73:
	.cfi_def_cfa_offset 0
	.cfi_restore 31
	.cfi_restore 30
	.cfi_restore 29
	.cfi_restore 28
	.cfi_restore 27
	.cfi_restore 26
	.cfi_restore 25
	.cfi_restore 24
	.cfi_restore 23
.LBB2699:
.LBB2696:
.LBB2693:
.LBB2690:
	.loc 4 373 0
	b _ZN11GuiKeyboard8MoveTextEi
.LVL313:
.L303:
.LCFI74:
	.cfi_restore_state
.LBE2690:
.LBE2693:
.LBE2696:
.LBE2699:
	.loc 4 473 0
	lbz 0,800(31)
	xori 0,0,1
	stb 0,800(31)
	.loc 4 474 0
	li 0,1
	stb 0,802(31)
	b .L271
.L304:
	.loc 4 478 0
	lbz 0,801(31)
	xori 0,0,1
	stb 0,801(31)
	.loc 4 479 0
	li 0,1
	stb 0,802(31)
	b .L271
.L305:
	.loc 4 483 0
	mr 3,31
.LVL314:
	bl _ZN11GuiKeyboard17SwitchKeyLanguageEv
.LVL315:
	.loc 4 484 0
	li 0,1
	stb 0,802(31)
	b .L271
.LVL316:
.L300:
	.loc 4 598 0
	lwz 9,804(31)
	.loc 4 457 0
	lwz 4,208(31)
.LVL317:
	lwz 0,332(9)
	add 4,4,0
.LVL318:
.LBB2700:
.LBB2701:
	.loc 4 378 0
	addic. 4,4,-1
.LVL319:
	blt- 0,.L271
.LVL320:
.LBB2702:
.LBB2703:
	.loc 5 711 0
	lwz 9,212(31)
	lwz 5,-12(9)
.LVL321:
.LBE2703:
.LBE2702:
	.loc 4 378 0
	cmpw 7,4,5
	bge- 7,.L271
.LVL322:
.LBB2704:
.LBB2705:
.LBB2706:
.LBB2707:
.LBB2708:
.LBB2709:
	.loc 5 318 0
	cmplw 7,5,4
	blt- 7,.L306
.LVL323:
.LBE2709:
.LBE2708:
	.loc 5 1349 0
	subf. 5,4,5
.LBE2707:
.LBE2706:
	.loc 4 381 0
	addi 3,31,212
.LBB2714:
.LBB2712:
	.loc 5 1349 0
	beq- 0,.L276
	li 5,1
.L276:
	li 6,0
.LVL324:
	bl _ZNSbIwSt11char_traitsIwESaIwEE9_M_mutateEjjj
.LVL325:
.LBE2712:
.LBE2714:
	.loc 4 382 0
	mr 3,31
	li 4,-1
	b .L297
.LVL326:
.L301:
.LBE2705:
.LBE2704:
.LBE2701:
.LBE2700:
	.loc 4 598 0
	lwz 9,804(31)
	.loc 4 461 0
	lwz 4,208(31)
.LVL327:
	lwz 0,332(9)
.LVL328:
.LBB2719:
.LBB2697:
	.loc 4 368 0
	add. 4,4,0
	blt- 0,.L271
.LVL329:
.LBB2694:
.LBB2691:
.LBB2688:
.LBB2686:
.LBB2680:
.LBB2681:
.LBB2682:
.LBB2683:
	.loc 5 711 0
	lwz 9,212(31)
.LBE2683:
.LBE2682:
	.loc 5 318 0
	lwz 0,-12(9)
	cmplw 7,4,0
	bgt- 7,.L298
.LBE2681:
.LBE2680:
	.loc 5 1308 0
	addi 3,31,212
	li 5,0
.LVL330:
	li 6,1
.LVL331:
	li 7,10
	b .L296
.LVL332:
.L302:
.LBE2686:
.LBE2688:
.LBE2691:
.LBE2694:
.LBE2697:
.LBE2719:
.LBB2720:
.LBB2721:
.LBB2722:
.LBB2723:
	.loc 5 711 0
	lwz 9,212(31)
.LBE2723:
.LBE2722:
.LBE2721:
.LBE2720:
	.loc 4 465 0
	li 0,0
	stw 0,208(31)
	.loc 4 466 0
	addi 30,31,212
.LVL333:
.LBB2725:
.LBB2724:
	.loc 5 796 0
	lwz 5,-12(9)
.LVL334:
	li 4,0
.LVL335:
	mr 3,30
	li 6,0
.LVL336:
	bl _ZNSbIwSt11char_traitsIwESaIwEE9_M_mutateEjjj
.LBE2724:
.LBE2725:
.LBB2726:
.LBB2727:
.LBB2728:
.LBB2729:
.LBB2730:
.LBB2731:
.LBB2732:
	.loc 5 288 0
	lwz 4,212(31)
.LBE2732:
.LBE2731:
.LBE2730:
.LBE2729:
.LBE2728:
.LBE2727:
.LBE2726:
	.loc 4 467 0
	lwz 29,816(31)
.LBB2749:
.LBB2745:
.LBB2734:
.LBB2733:
	.loc 5 711 0
	lwz 24,-12(4)
.LBE2733:
.LBE2734:
.LBE2745:
.LBE2749:
	.loc 4 467 0
	lwz 9,0(29)
.LBB2750:
.LBB2746:
	.loc 4 582 0
	cmpwi 7,24,39
.LBE2746:
.LBE2750:
	.loc 4 467 0
	lwz 28,208(9)
.LVL337:
.LBB2751:
.LBB2747:
	.loc 4 582 0
	ble- 7,.L280
.LVL338:
	.loc 4 586 0
	lwz 23,208(31)
.LVL339:
.LBB2735:
	.loc 4 585 0
	li 27,0
	.loc 4 589 0
	cmpw 7,24,23
	ble- 7,.L281
.LVL340:
.LBB2736:
.LBB2737:
	.loc 5 911 0
	cmplw 7,24,23
	ble- 7,.L284
	.loc 4 449 0
	mr 26,30
	subf 24,23,24
	mr 25,23
.LVL341:
.L285:
.LBB2738:
.LBB2739:
	.loc 5 311 0
	lwz 0,-4(4)
	cmpwi 7,0,0
	blt- 7,.L283
	.loc 5 312 0
	mr 3,30
	bl _ZNSbIwSt11char_traitsIwESaIwEE12_M_leak_hardEv
	lwz 4,212(31)
.L283:
.LVL342:
.LBE2739:
.LBE2738:
.LBE2737:
.LBE2736:
	.loc 4 589 0
	cmpwi 7,27,39
	.loc 4 591 0
	slwi 25,25,2
.LVL343:
	lwzx 0,4,25
	.loc 4 589 0
	addi 27,27,1
.LVL344:
	.loc 4 591 0
	stwu 0,4(26)
	.loc 4 589 0
	bne- 7,.L307
.LVL345:
.L281:
.LBE2735:
	.loc 4 595 0
	addi 9,27,52
	li 0,0
	slwi 9,9,2
	.loc 4 597 0
	addi 4,31,216
	.loc 4 595 0
	add 9,31,9
	stw 0,8(9)
.LVL346:
.L280:
.LBE2747:
.LBE2751:
	.loc 4 467 0
	mr 3,29
	mtctr 28
	bctrl
	.loc 4 468 0
	lwz 3,804(31)
	bl _ZN11TextPointer16TextWidthChangedEv
	.loc 4 469 0
	lwz 3,804(31)
	li 4,0
	bl _ZN11TextPointer18SetPointerPositionEi
	b .L271
.LVL347:
.L307:
.LBB2752:
.LBB2748:
.LBB2744:
	.loc 4 589 0
	cmpw 7,27,24
	beq- 7,.L281
.LBB2742:
.LBB2740:
	.loc 5 911 0
	lwz 0,-12(4)
.LBE2740:
.LBE2742:
	.loc 4 449 0
	add 25,23,27
.LVL348:
.LBB2743:
.LBB2741:
	.loc 5 911 0
	cmplw 7,0,25
	bgt+ 7,.L285
.LVL349:
.L284:
	.loc 5 912 0
	lis 3,.LC4@ha
	la 3,.LC4@l(3)
	bl _ZSt20__throw_out_of_rangePKc
.LVL350:
.L298:
.LBE2741:
.LBE2743:
.LBE2744:
.LBE2748:
.LBE2752:
.LBB2753:
.LBB2698:
.LBB2695:
.LBB2692:
.LBB2689:
.LBB2687:
.LBB2685:
.LBB2684:
	.loc 5 319 0
	lis 3,.LC23@ha
	la 3,.LC23@l(3)
	bl _ZSt20__throw_out_of_rangePKc
.LVL351:
.L306:
.LBE2684:
.LBE2685:
.LBE2687:
.LBE2689:
.LBE2692:
.LBE2695:
.LBE2698:
.LBE2753:
.LBB2754:
.LBB2718:
.LBB2717:
.LBB2716:
.LBB2715:
.LBB2713:
.LBB2711:
.LBB2710:
	lis 3,.LC22@ha
	la 3,.LC22@l(3)
	bl _ZSt20__throw_out_of_rangePKc
.LVL352:
.LVL353:
.LVL354:
.LVL355:
.LVL356:
.LBE2710:
.LBE2711:
.LBE2713:
.LBE2715:
.LBE2716:
.LBE2717:
.LBE2718:
.LBE2754:
	.cfi_endproc
.LFE1589:
	.size	_ZN11GuiKeyboard17OnSpecialKeyPressEP9GuiButtoniRK6_POINT, .-_ZN11GuiKeyboard17OnSpecialKeyPressEP9GuiButtoniRK6_POINT
	.align 2
	.globl _ZN11GuiKeyboard14GetDisplayTextEv
	.type	_ZN11GuiKeyboard14GetDisplayTextEv, @function
_ZN11GuiKeyboard14GetDisplayTextEv:
.LFB1592:
	.loc 4 579 0
	.cfi_startproc
.LVL357:
	mflr 0
	stwu 1,-40(1)
.LCFI75:
	.cfi_def_cfa_offset 40
	.cfi_register 65, 0
	stw 28,24(1)
	mr 28,3
	.cfi_offset 28, -16
.LVL358:
	stw 0,44(1)
	stw 26,16(1)
.LBB2791:
.LBB2792:
.LBB2793:
.LBB2794:
.LBB2795:
.LBB2796:
	.loc 5 288 0
	lwz 3,212(3)
.LVL359:
.LBE2796:
.LBE2795:
.LBE2794:
.LBE2793:
.LBE2792:
.LBE2791:
	.loc 4 579 0
	stw 25,12(1)
.LBB2810:
.LBB2798:
.LBB2797:
	.loc 5 711 0
	lwz 26,-12(3)
	.cfi_offset 25, -28
	.cfi_offset 26, -24
	.cfi_offset 65, 4
.LVL360:
.LBE2797:
.LBE2798:
.LBE2810:
	.loc 4 579 0
	stw 27,20(1)
.LBB2811:
	.loc 4 582 0
	cmpwi 7,26,39
.LBE2811:
	.loc 4 579 0
	stw 29,28(1)
	stw 30,32(1)
	stw 31,36(1)
.LBB2812:
	.loc 4 582 0
	ble- 7,.L309
	.cfi_offset 31, -4
	.cfi_offset 30, -8
	.cfi_offset 29, -12
	.cfi_offset 27, -20
.LVL361:
	.loc 4 586 0
	lwz 25,208(28)
.LVL362:
.LBB2799:
	.loc 4 585 0
	li 31,0
	.loc 4 589 0
	cmpw 7,26,25
	ble- 7,.L310
.LBB2800:
.LBB2801:
	.loc 5 911 0
	cmplw 7,25,26
.LBE2801:
.LBE2800:
	.loc 4 591 0
	addi 27,28,212
.LVL363:
.LBB2807:
.LBB2804:
	.loc 5 911 0
	bge- 7,.L313
	.loc 4 578 0
	mr 30,27
	subf 26,25,26
	mr 29,25
.LVL364:
.L314:
.LBB2802:
.LBB2803:
	.loc 5 311 0
	lwz 0,-4(3)
	cmpwi 7,0,0
	blt- 7,.L312
	.loc 5 312 0
	mr 3,27
	bl _ZNSbIwSt11char_traitsIwESaIwEE12_M_leak_hardEv
	lwz 3,212(28)
.L312:
.LVL365:
.LBE2803:
.LBE2802:
.LBE2804:
.LBE2807:
	.loc 4 589 0
	cmpwi 7,31,39
	.loc 4 591 0
	slwi 29,29,2
.LVL366:
	lwzx 0,3,29
	.loc 4 589 0
	addi 31,31,1
.LVL367:
	.loc 4 591 0
	stwu 0,4(30)
	.loc 4 589 0
	beq- 7,.L310
	.loc 4 589 0 is_stmt 0 discriminator 2
	cmpw 7,31,26
	beq- 7,.L310
.LBB2808:
.LBB2805:
	.loc 5 911 0 is_stmt 1 discriminator 5
	lwz 0,-12(3)
.LBE2805:
.LBE2808:
	.loc 4 578 0 discriminator 5
	add 29,25,31
.LVL368:
.LBB2809:
.LBB2806:
	.loc 5 911 0 discriminator 5
	cmplw 7,0,29
	bgt+ 7,.L314
.LVL369:
.L313:
	.loc 5 912 0
	lis 3,.LC4@ha
	la 3,.LC4@l(3)
	bl _ZSt20__throw_out_of_rangePKc
.L310:
.LBE2806:
.LBE2809:
.LBE2799:
	.loc 4 595 0
	addi 9,31,52
	li 0,0
	slwi 9,9,2
	.loc 4 597 0
	addi 3,28,216
	.loc 4 595 0
	add 9,28,9
	stw 0,8(9)
.LVL370:
.L309:
.LBE2812:
	.loc 4 598 0
	lwz 0,44(1)
	lwz 25,12(1)
	mtlr 0
	lwz 26,16(1)
	lwz 27,20(1)
	lwz 28,24(1)
.LVL371:
	lwz 29,28(1)
	lwz 30,32(1)
	lwz 31,36(1)
	addi 1,1,40
.LCFI76:
	.cfi_def_cfa_offset 0
	.cfi_restore 31
	.cfi_restore 30
	.cfi_restore 29
	.cfi_restore 28
	.cfi_restore 27
	.cfi_restore 26
	.cfi_restore 25
	blr
	.cfi_endproc
.LFE1592:
	.size	_ZN11GuiKeyboard14GetDisplayTextEv, .-_ZN11GuiKeyboard14GetDisplayTextEv
	.section	.text._ZNSt8_Rb_treeIPN7sigslot12_signal_baseINS0_15single_threadedEEES4_St9_IdentityIS4_ESt4lessIS4_ESaIS4_EE8_M_eraseEPSt13_Rb_tree_nodeIS4_E,"axG",@progbits,_ZNSt8_Rb_treeIPN7sigslot12_signal_baseINS0_15single_threadedEEES4_St9_IdentityIS4_ESt4lessIS4_ESaIS4_EE8_M_eraseEPSt13_Rb_tree_nodeIS4_E,comdat
	.align 2
	.weak	_ZNSt8_Rb_treeIPN7sigslot12_signal_baseINS0_15single_threadedEEES4_St9_IdentityIS4_ESt4lessIS4_ESaIS4_EE8_M_eraseEPSt13_Rb_tree_nodeIS4_E
	.type	_ZNSt8_Rb_treeIPN7sigslot12_signal_baseINS0_15single_threadedEEES4_St9_IdentityIS4_ESt4lessIS4_ESaIS4_EE8_M_eraseEPSt13_Rb_tree_nodeIS4_E, @function
_ZNSt8_Rb_treeIPN7sigslot12_signal_baseINS0_15single_threadedEEES4_St9_IdentityIS4_ESt4lessIS4_ESaIS4_EE8_M_eraseEPSt13_Rb_tree_nodeIS4_E:
.LFB1764:
	.file 6 "d:\\devkitpro\\devkitppc\\bin\\../lib/gcc/powerpc-eabi/4.6.3/../../../../powerpc-eabi/include/c++/4.6.3/bits/stl_tree.h"
	.loc 6 1068 0
	.cfi_startproc
.LVL372:
	stwu 1,-56(1)
.LCFI77:
	.cfi_def_cfa_offset 56
	mflr 0
	stw 22,16(1)
.LBB2929:
	.loc 6 1072 0
	mr. 22,4
	.cfi_offset 22, -40
	.cfi_register 65, 0
.LBE2929:
	.loc 6 1068 0
	stw 30,48(1)
	mr 30,3
	.cfi_offset 30, -8
	stw 0,60(1)
	stw 21,12(1)
	stw 23,20(1)
	stw 24,24(1)
	stw 25,28(1)
	stw 26,32(1)
	stw 27,36(1)
	stw 28,40(1)
	stw 29,44(1)
	stw 31,52(1)
.LBB3014:
	.loc 6 1072 0
	beq- 0,.L316
	.cfi_offset 31, -4
	.cfi_offset 29, -12
	.cfi_offset 28, -16
	.cfi_offset 27, -20
	.cfi_offset 26, -24
	.cfi_offset 25, -28
	.cfi_offset 24, -32
	.cfi_offset 23, -36
	.cfi_offset 21, -44
	.cfi_offset 65, 4
.LVL373:
.L362:
	.loc 4 598 0
	lwz 27,12(22)
.LVL374:
.LBB2930:
.LBB2931:
.LBB2932:
	.loc 6 1072 0
	cmpwi 7,27,0
	beq- 7,.L318
.LVL375:
.L363:
.LBE2932:
	.loc 4 598 0
	lwz 26,12(27)
.LVL376:
.LBB3008:
.LBB2933:
.LBB2934:
.LBB2935:
	.loc 6 1072 0
	cmpwi 7,26,0
	beq- 7,.L319
.LVL377:
.L364:
.LBE2935:
	.loc 4 598 0
	lwz 25,12(26)
.LVL378:
.LBB3001:
.LBB2936:
.LBB2937:
.LBB2938:
	.loc 6 1072 0
	cmpwi 7,25,0
	beq- 7,.L320
.LVL379:
.L365:
.LBE2938:
	.loc 4 598 0
	lwz 24,12(25)
.LVL380:
.LBB2994:
.LBB2939:
.LBB2940:
.LBB2941:
	.loc 6 1072 0
	cmpwi 7,24,0
	beq- 7,.L321
.LVL381:
.L366:
.LBE2941:
	.loc 4 598 0
	lwz 23,12(24)
.LVL382:
.LBB2987:
.LBB2942:
.LBB2943:
.LBB2944:
	.loc 6 1072 0
	cmpwi 7,23,0
	beq- 7,.L322
.LVL383:
.L367:
.LBE2944:
	.loc 4 598 0
	lwz 28,12(23)
.LVL384:
.LBB2980:
.LBB2945:
.LBB2946:
.LBB2947:
	.loc 6 1072 0
	cmpwi 7,28,0
	beq- 7,.L323
.LVL385:
.L368:
.LBE2947:
	.loc 4 598 0
	lwz 29,12(28)
.LVL386:
.LBB2973:
.LBB2948:
.LBB2949:
.LBB2950:
	.loc 6 1072 0
	cmpwi 7,29,0
	beq- 7,.L324
.LVL387:
.L369:
.LBE2950:
	.loc 4 598 0
	lwz 31,12(29)
.LVL388:
.LBB2966:
.LBB2951:
.LBB2952:
.LBB2953:
	.loc 6 1072 0
	cmpwi 7,31,0
	beq- 7,.L325
.LVL389:
.L370:
.LBB2954:
	.loc 6 1074 0
	lwz 4,12(31)
	mr 3,30
	bl _ZNSt8_Rb_treeIPN7sigslot12_signal_baseINS0_15single_threadedEEES4_St9_IdentityIS4_ESt4lessIS4_ESaIS4_EE8_M_eraseEPSt13_Rb_tree_nodeIS4_E
.LBE2954:
.LBE2953:
	.loc 4 598 0
	lwz 21,8(31)
.LVL390:
.LBB2960:
.LBB2959:
.LBB2955:
.LBB2956:
.LBB2957:
.LBB2958:
	.file 7 "d:\\devkitpro\\devkitppc\\bin\\../lib/gcc/powerpc-eabi/4.6.3/../../../../powerpc-eabi/include/c++/4.6.3/ext/new_allocator.h"
	.loc 7 98 0
	mr 3,31
	bl _ZdlPv
.LVL391:
.LBE2958:
.LBE2957:
.LBE2956:
.LBE2955:
.LBE2959:
	.loc 6 1072 0
	cmpwi 7,21,0
	.loc 6 1077 0
	mr 31,21
.LVL392:
	.loc 6 1072 0
	bne+ 7,.L370
.LVL393:
.L325:
.LBE2960:
.LBE2952:
.LBE2951:
.LBE2966:
	.loc 4 598 0
	lwz 31,8(29)
.LVL394:
.LBB2967:
.LBB2965:
.LBB2961:
.LBB2962:
.LBB2963:
.LBB2964:
	.loc 7 98 0
	mr 3,29
	bl _ZdlPv
.LVL395:
.LBE2964:
.LBE2963:
.LBE2962:
.LBE2961:
.LBE2965:
	.loc 6 1072 0
	cmpwi 7,31,0
	beq- 7,.L324
	.loc 6 1077 0
	mr 29,31
.LVL396:
	b .L369
.LVL397:
.L324:
.LBE2967:
.LBE2949:
.LBE2948:
.LBE2973:
	.loc 4 598 0
	lwz 31,8(28)
.LVL398:
.LBB2974:
.LBB2972:
.LBB2968:
.LBB2969:
.LBB2970:
.LBB2971:
	.loc 7 98 0
	mr 3,28
	bl _ZdlPv
.LVL399:
.LBE2971:
.LBE2970:
.LBE2969:
.LBE2968:
.LBE2972:
	.loc 6 1072 0
	cmpwi 7,31,0
	beq- 7,.L323
	.loc 6 1077 0
	mr 28,31
.LVL400:
	b .L368
.LVL401:
.L323:
.LBE2974:
.LBE2946:
.LBE2945:
.LBE2980:
	.loc 4 598 0
	lwz 31,8(23)
.LVL402:
.LBB2981:
.LBB2979:
.LBB2975:
.LBB2976:
.LBB2977:
.LBB2978:
	.loc 7 98 0
	mr 3,23
	bl _ZdlPv
.LVL403:
.LBE2978:
.LBE2977:
.LBE2976:
.LBE2975:
.LBE2979:
	.loc 6 1072 0
	cmpwi 7,31,0
	beq- 7,.L322
	.loc 6 1077 0
	mr 23,31
.LVL404:
	b .L367
.LVL405:
.L322:
.LBE2981:
.LBE2943:
.LBE2942:
.LBE2987:
	.loc 4 598 0
	lwz 31,8(24)
.LVL406:
.LBB2988:
.LBB2986:
.LBB2982:
.LBB2983:
.LBB2984:
.LBB2985:
	.loc 7 98 0
	mr 3,24
	bl _ZdlPv
.LVL407:
.LBE2985:
.LBE2984:
.LBE2983:
.LBE2982:
.LBE2986:
	.loc 6 1072 0
	cmpwi 7,31,0
	beq- 7,.L321
	.loc 6 1077 0
	mr 24,31
.LVL408:
	b .L366
.LVL409:
.L321:
.LBE2988:
.LBE2940:
.LBE2939:
.LBE2994:
	.loc 4 598 0
	lwz 31,8(25)
.LVL410:
.LBB2995:
.LBB2993:
.LBB2989:
.LBB2990:
.LBB2991:
.LBB2992:
	.loc 7 98 0
	mr 3,25
	bl _ZdlPv
.LVL411:
.LBE2992:
.LBE2991:
.LBE2990:
.LBE2989:
.LBE2993:
	.loc 6 1072 0
	cmpwi 7,31,0
	beq- 7,.L320
	.loc 6 1077 0
	mr 25,31
.LVL412:
	b .L365
.LVL413:
.L320:
.LBE2995:
.LBE2937:
.LBE2936:
.LBE3001:
	.loc 4 598 0
	lwz 31,8(26)
.LVL414:
.LBB3002:
.LBB3000:
.LBB2996:
.LBB2997:
.LBB2998:
.LBB2999:
	.loc 7 98 0
	mr 3,26
	bl _ZdlPv
.LVL415:
.LBE2999:
.LBE2998:
.LBE2997:
.LBE2996:
.LBE3000:
	.loc 6 1072 0
	cmpwi 7,31,0
	beq- 7,.L319
	.loc 6 1077 0
	mr 26,31
.LVL416:
	b .L364
.LVL417:
.L319:
.LBE3002:
.LBE2934:
.LBE2933:
.LBE3008:
	.loc 4 598 0
	lwz 31,8(27)
.LVL418:
.LBB3009:
.LBB3007:
.LBB3003:
.LBB3004:
.LBB3005:
.LBB3006:
	.loc 7 98 0
	mr 3,27
	bl _ZdlPv
.LVL419:
.LBE3006:
.LBE3005:
.LBE3004:
.LBE3003:
.LBE3007:
	.loc 6 1072 0
	cmpwi 7,31,0
	beq- 7,.L318
	.loc 6 1077 0
	mr 27,31
.LVL420:
	b .L363
.LVL421:
.L318:
	.loc 4 598 0
	lwz 31,8(22)
.LVL422:
.LBE3009:
.LBE2931:
.LBB3010:
.LBB3011:
.LBB3012:
.LBB3013:
	.loc 7 98 0
	mr 3,22
	bl _ZdlPv
.LVL423:
.LBE3013:
.LBE3012:
.LBE3011:
.LBE3010:
.LBE2930:
	.loc 6 1072 0
	cmpwi 7,31,0
	beq- 7,.L316
	.loc 6 1077 0
	mr 22,31
.LVL424:
	b .L362
.LVL425:
.L316:
.LBE3014:
	.loc 6 1079 0
	lwz 0,60(1)
	lwz 21,12(1)
	mtlr 0
	lwz 22,16(1)
	lwz 23,20(1)
	lwz 24,24(1)
	lwz 25,28(1)
	lwz 26,32(1)
	lwz 27,36(1)
	lwz 28,40(1)
	lwz 29,44(1)
	lwz 30,48(1)
.LVL426:
	lwz 31,52(1)
	addi 1,1,56
.LCFI78:
	.cfi_def_cfa_offset 0
	.cfi_restore 31
	.cfi_restore 30
	.cfi_restore 29
	.cfi_restore 28
	.cfi_restore 27
	.cfi_restore 26
	.cfi_restore 25
	.cfi_restore 24
	.cfi_restore 23
	.cfi_restore 22
	.cfi_restore 21
	blr
	.cfi_endproc
.LFE1764:
	.size	_ZNSt8_Rb_treeIPN7sigslot12_signal_baseINS0_15single_threadedEEES4_St9_IdentityIS4_ESt4lessIS4_ESaIS4_EE8_M_eraseEPSt13_Rb_tree_nodeIS4_E, .-_ZNSt8_Rb_treeIPN7sigslot12_signal_baseINS0_15single_threadedEEES4_St9_IdentityIS4_ESt4lessIS4_ESaIS4_EE8_M_eraseEPSt13_Rb_tree_nodeIS4_E
	.section	.text._ZN7sigslot9has_slotsINS_15single_threadedEED2Ev,"axG",@progbits,_ZN7sigslot9has_slotsINS_15single_threadedEED5Ev,comdat
	.align 2
	.weak	_ZN7sigslot9has_slotsINS_15single_threadedEED2Ev
	.type	_ZN7sigslot9has_slotsINS_15single_threadedEED2Ev, @function
_ZN7sigslot9has_slotsINS_15single_threadedEED2Ev:
.LFB1629:
	.loc 1 513 0
	.cfi_startproc
	.cfi_personality 0,__gxx_personality_v0
	.cfi_lsda 0,.LLSDA1629
.LVL427:
	mflr 0
	stwu 1,-32(1)
.LCFI79:
	.cfi_def_cfa_offset 32
	.cfi_register 65, 0
.LBB3161:
	.loc 1 516 0
	lis 9,_ZTVN7sigslot9has_slotsINS_15single_threadedEEE+8@ha
.LBE3161:
	.loc 1 513 0
	stw 28,16(1)
	addi 28,3,4
	.cfi_offset 28, -16
	stw 0,36(1)
.LBB3237:
	.loc 1 516 0
	la 0,_ZTVN7sigslot9has_slotsINS_15single_threadedEEE+8@l(9)
	.cfi_offset 65, 4
.LBE3237:
	.loc 1 513 0
	stw 29,20(1)
	mr 29,3
	.cfi_offset 29, -12
	stw 26,8(1)
	stw 27,12(1)
	stw 30,24(1)
	stw 31,28(1)
.LBB3238:
	.loc 1 516 0
	stw 0,0(3)
.LVL428:
.LEHB0:
.LBB3162:
.LBB3163:
.LBB3164:
.LBB3165:
	.loc 1 338 0
	.cfi_offset 31, -4
	.cfi_offset 30, -8
	.cfi_offset 27, -20
	.cfi_offset 26, -24
	bl _ZN7sigslot15single_threaded4lockEv
.LEHE0:
.LVL429:
.LBE3165:
.LBE3164:
.LBB3166:
	.loc 4 598 0
	lwz 31,16(29)
.LVL430:
.LBE3166:
.LBB3167:
.LBB3168:
.LBB3169:
	.loc 6 671 0
	addi 30,28,4
.LVL431:
.LBE3169:
.LBE3168:
.LBE3167:
	.loc 1 524 0
	cmpw 7,31,30
	beq- 7,.L372
.LVL432:
.L399:
	.loc 1 526 0
	lwz 3,16(31)
	mr 4,29
	lwz 9,0(3)
	lwz 0,16(9)
	mtctr 0
.LEHB1:
	bctrl
.LEHE1:
.LVL433:
.LBB3170:
.LBB3171:
	.loc 6 269 0
	mr 3,31
	bl _ZSt18_Rb_tree_incrementPKSt18_Rb_tree_node_base
.LBE3171:
.LBE3170:
	.loc 1 524 0
	cmpw 7,30,3
.LBB3173:
.LBB3172:
	.loc 6 269 0
	mr 31,3
.LVL434:
.LBE3172:
.LBE3173:
	.loc 1 524 0
	bne+ 7,.L399
	lwz 31,16(29)
.LVL435:
.L372:
.LBB3174:
.LBB3175:
.LBB3176:
.LBB3177:
.LBB3178:
.LBB3179:
.LBB3180:
	.loc 6 665 0
	addi 26,28,4
.LBE3180:
.LBE3179:
	.loc 6 1500 0
	cmpw 7,30,26
	beq- 7,.L374
.LVL436:
	.loc 6 1503 0
	cmpw 7,30,31
	bne+ 7,.L401
	b .L375
.LVL437:
.L396:
	.loc 6 277 0
	mr 31,27
.LVL438:
.L401:
.LBB3181:
.LBB3182:
	mr 3,31
	bl _ZSt18_Rb_tree_incrementPKSt18_Rb_tree_node_base
.LBE3182:
.LBE3181:
.LBB3184:
.LBB3185:
.LBB3186:
	.loc 6 1489 0
	mr 4,26
.LBE3186:
.LBE3185:
.LBE3184:
.LBB3195:
.LBB3183:
	.loc 6 277 0
	mr 27,3
.LVL439:
.LBE3183:
.LBE3195:
.LBB3196:
.LBB3193:
.LBB3191:
	.loc 6 1489 0
	mr 3,31
.LVL440:
	bl _ZSt28_Rb_tree_rebalance_for_erasePSt18_Rb_tree_node_baseRS_
.LBB3187:
.LBB3188:
.LBB3189:
.LBB3190:
	.loc 7 98 0
	bl _ZdlPv
.LBE3190:
.LBE3189:
.LBE3188:
.LBE3187:
.LBE3191:
.LBE3193:
.LBE3196:
	.loc 6 1503 0
	cmpw 7,30,27
.LBB3197:
.LBB3194:
.LBB3192:
	.loc 6 1491 0
	lwz 9,20(28)
	addi 0,9,-1
	stw 0,20(28)
.LBE3192:
.LBE3194:
.LBE3197:
	.loc 6 1503 0
	bne+ 7,.L396
.LVL441:
.L375:
.LBE3178:
.LBE3177:
.LBE3176:
.LBE3175:
.LBE3174:
.LBB3206:
.LBB3207:
.LBB3208:
	.loc 1 343 0
	lwz 9,0(29)
	mr 3,29
	lwz 0,12(9)
	mtctr 0
.LEHB2:
	bctrl
.LEHE2:
.LVL442:
.LBE3208:
.LBE3207:
.LBE3206:
.LBE3163:
.LBE3162:
.LBB3215:
.LBB3216:
.LBB3217:
.LBB3218:
.LBB3219:
	.loc 6 639 0
	lwz 4,12(29)
	mr 3,28
	bl _ZNSt8_Rb_treeIPN7sigslot12_signal_baseINS0_15single_threadedEEES4_St9_IdentityIS4_ESt4lessIS4_ESaIS4_EE8_M_eraseEPSt13_Rb_tree_nodeIS4_E
.LVL443:
.LBE3219:
.LBE3218:
.LBE3217:
.LBE3216:
.LBE3215:
.LBB3220:
.LBB3221:
.LBB3222:
	.loc 1 105 0
	lis 9,_ZTVN7sigslot15single_threadedE+8@ha
	la 0,_ZTVN7sigslot15single_threadedE+8@l(9)
.LBE3222:
.LBE3221:
.LBE3220:
.LBE3238:
	.loc 1 516 0
	lwz 26,8(1)
.LBB3239:
.LBB3225:
.LBB3224:
.LBB3223:
	.loc 1 105 0
	stw 0,0(29)
.LBE3223:
.LBE3224:
.LBE3225:
.LBE3239:
	.loc 1 516 0
	lwz 0,36(1)
	lwz 27,12(1)
	mtlr 0
	lwz 28,16(1)
.LVL444:
	lwz 29,20(1)
.LVL445:
	lwz 30,24(1)
.LVL446:
	lwz 31,28(1)
	addi 1,1,32
	.cfi_remember_state
.LCFI80:
	.cfi_def_cfa_offset 0
	.cfi_restore 31
	.cfi_restore 30
	.cfi_restore 29
	.cfi_restore 28
	.cfi_restore 27
	.cfi_restore 26
	blr
.LVL447:
.L374:
.LCFI81:
	.cfi_restore_state
.LBB3240:
.LBB3226:
.LBB3213:
.LBB3209:
.LBB3205:
.LBB3204:
.LBB3203:
.LBB3202:
.LBB3198:
.LBB3199:
.LBB3200:
.LBB3201:
	.loc 6 809 0
	lwz 4,12(29)
	mr 3,28
	bl _ZNSt8_Rb_treeIPN7sigslot12_signal_baseINS0_15single_threadedEEES4_St9_IdentityIS4_ESt4lessIS4_ESaIS4_EE8_M_eraseEPSt13_Rb_tree_nodeIS4_E
.LVL448:
	.loc 6 811 0
	li 0,0
	.loc 6 810 0
	stw 30,16(29)
.LVL449:
	.loc 6 811 0
	stw 0,12(29)
.LVL450:
	.loc 6 812 0
	stw 30,20(29)
	.loc 6 813 0
	stw 0,24(29)
	b .L375
.LVL451:
.L397:
	mr 31,3
.L382:
.LVL452:
.LBE3201:
.LBE3200:
.LBE3199:
.LBE3198:
.LBE3202:
.LBE3203:
.LBE3204:
.LBE3205:
.LBE3209:
.LBE3213:
.LBE3226:
.LBB3227:
.LBB3228:
.LBB3229:
.LBB3230:
.LBB3231:
.LBB3232:
	.loc 6 639 0
	lwz 4,12(29)
	mr 3,28
	bl _ZNSt8_Rb_treeIPN7sigslot12_signal_baseINS0_15single_threadedEEES4_St9_IdentityIS4_ESt4lessIS4_ESaIS4_EE8_M_eraseEPSt13_Rb_tree_nodeIS4_E
.LVL453:
.LBE3232:
.LBE3231:
.LBE3230:
.LBE3229:
.LBE3228:
.LBE3227:
.LBB3233:
.LBB3234:
.LBB3235:
	.loc 1 105 0
	lis 9,_ZTVN7sigslot15single_threadedE+8@ha
	la 0,_ZTVN7sigslot15single_threadedE+8@l(9)
	mr 3,31
	stw 0,0(29)
.LEHB3:
	bl _Unwind_Resume
.LEHE3:
.LVL454:
.L398:
.LBE3235:
.LBE3234:
.LBE3233:
.LBB3236:
.LBB3214:
.LBB3210:
.LBB3211:
.LBB3212:
	.loc 1 343 0
	lwz 9,0(29)
	mr 31,3
.LVL455:
	mr 3,29
	lwz 0,12(9)
	mtctr 0
	bctrl
	b .L382
.LBE3212:
.LBE3211:
.LBE3210:
.LBE3214:
.LBE3236:
.LBE3240:
	.cfi_endproc
.LFE1629:
	.globl __gxx_personality_v0
	.section	.gcc_except_table,"a",@progbits
.LLSDA1629:
	.byte	0xff
	.byte	0xff
	.byte	0x1
	.uleb128 .LLSDACSE1629-.LLSDACSB1629
.LLSDACSB1629:
	.uleb128 .LEHB0-.LFB1629
	.uleb128 .LEHE0-.LEHB0
	.uleb128 .L397-.LFB1629
	.uleb128 0
	.uleb128 .LEHB1-.LFB1629
	.uleb128 .LEHE1-.LEHB1
	.uleb128 .L398-.LFB1629
	.uleb128 0
	.uleb128 .LEHB2-.LFB1629
	.uleb128 .LEHE2-.LEHB2
	.uleb128 .L397-.LFB1629
	.uleb128 0
	.uleb128 .LEHB3-.LFB1629
	.uleb128 .LEHE3-.LEHB3
	.uleb128 0
	.uleb128 0
.LLSDACSE1629:
	.section	.text._ZN7sigslot9has_slotsINS_15single_threadedEED2Ev,"axG",@progbits,_ZN7sigslot9has_slotsINS_15single_threadedEED5Ev,comdat
	.size	_ZN7sigslot9has_slotsINS_15single_threadedEED2Ev, .-_ZN7sigslot9has_slotsINS_15single_threadedEED2Ev
	.section	.text._ZN7sigslot9has_slotsINS_15single_threadedEED0Ev,"axG",@progbits,_ZN7sigslot9has_slotsINS_15single_threadedEED5Ev,comdat
	.align 2
	.weak	_ZN7sigslot9has_slotsINS_15single_threadedEED0Ev
	.type	_ZN7sigslot9has_slotsINS_15single_threadedEED0Ev, @function
_ZN7sigslot9has_slotsINS_15single_threadedEED0Ev:
.LFB1631:
	.loc 1 513 0
	.cfi_startproc
	.cfi_personality 0,__gxx_personality_v0
	.cfi_lsda 0,.LLSDA1631
.LVL456:
	mflr 0
	stwu 1,-32(1)
.LCFI82:
	.cfi_def_cfa_offset 32
	.cfi_register 65, 0
.LBB3334:
.LBB3335:
.LBB3336:
	.loc 1 516 0
	lis 9,_ZTVN7sigslot9has_slotsINS_15single_threadedEEE+8@ha
.LBE3336:
.LBE3335:
.LBE3334:
	.loc 1 513 0
	stw 28,16(1)
	addi 28,3,4
	.cfi_offset 28, -16
	stw 0,36(1)
.LBB3420:
.LBB3416:
.LBB3412:
	.loc 1 516 0
	la 0,_ZTVN7sigslot9has_slotsINS_15single_threadedEEE+8@l(9)
	.cfi_offset 65, 4
.LBE3412:
.LBE3416:
.LBE3420:
	.loc 1 513 0
	stw 29,20(1)
	mr 29,3
	.cfi_offset 29, -12
.LVL457:
	stw 26,8(1)
	stw 27,12(1)
	stw 30,24(1)
	stw 31,28(1)
.LBB3421:
.LBB3417:
.LBB3413:
	.loc 1 516 0
	stw 0,0(3)
.LVL458:
.LEHB4:
.LBB3337:
.LBB3338:
.LBB3339:
.LBB3340:
	.loc 1 338 0
	.cfi_offset 31, -4
	.cfi_offset 30, -8
	.cfi_offset 27, -20
	.cfi_offset 26, -24
	bl _ZN7sigslot15single_threaded4lockEv
.LEHE4:
.LVL459:
.LBE3340:
.LBE3339:
.LBB3341:
	.loc 4 598 0
	lwz 31,16(29)
.LVL460:
.LBE3341:
.LBB3342:
.LBB3343:
.LBB3344:
	.loc 6 671 0
	addi 30,28,4
.LVL461:
.LBE3344:
.LBE3343:
.LBE3342:
	.loc 1 524 0
	cmpw 7,31,30
	beq- 7,.L404
.LVL462:
.L432:
	.loc 1 526 0
	lwz 3,16(31)
	mr 4,29
	lwz 9,0(3)
	lwz 0,16(9)
	mtctr 0
.LEHB5:
	bctrl
.LEHE5:
.LVL463:
.LBB3345:
.LBB3346:
	.loc 6 269 0
	mr 3,31
	bl _ZSt18_Rb_tree_incrementPKSt18_Rb_tree_node_base
.LBE3346:
.LBE3345:
	.loc 1 524 0
	cmpw 7,30,3
.LBB3348:
.LBB3347:
	.loc 6 269 0
	mr 31,3
.LVL464:
.LBE3347:
.LBE3348:
	.loc 1 524 0
	bne+ 7,.L432
	lwz 31,16(29)
.LVL465:
.L404:
.LBB3349:
.LBB3350:
.LBB3351:
.LBB3352:
.LBB3353:
.LBB3354:
.LBB3355:
	.loc 6 665 0
	addi 26,28,4
.LBE3355:
.LBE3354:
	.loc 6 1500 0
	cmpw 7,30,26
	beq- 7,.L406
.LVL466:
	.loc 6 1503 0
	cmpw 7,30,31
	bne+ 7,.L434
	b .L407
.LVL467:
.L429:
	.loc 6 277 0
	mr 31,27
.LVL468:
.L434:
.LBB3356:
.LBB3357:
	mr 3,31
	bl _ZSt18_Rb_tree_incrementPKSt18_Rb_tree_node_base
.LBE3357:
.LBE3356:
.LBB3359:
.LBB3360:
.LBB3361:
	.loc 6 1489 0
	mr 4,26
.LBE3361:
.LBE3360:
.LBE3359:
.LBB3370:
.LBB3358:
	.loc 6 277 0
	mr 27,3
.LVL469:
.LBE3358:
.LBE3370:
.LBB3371:
.LBB3368:
.LBB3366:
	.loc 6 1489 0
	mr 3,31
.LVL470:
	bl _ZSt28_Rb_tree_rebalance_for_erasePSt18_Rb_tree_node_baseRS_
.LBB3362:
.LBB3363:
.LBB3364:
.LBB3365:
	.loc 7 98 0
	bl _ZdlPv
.LBE3365:
.LBE3364:
.LBE3363:
.LBE3362:
.LBE3366:
.LBE3368:
.LBE3371:
	.loc 6 1503 0
	cmpw 7,30,27
.LBB3372:
.LBB3369:
.LBB3367:
	.loc 6 1491 0
	lwz 9,20(28)
	addi 0,9,-1
	stw 0,20(28)
.LBE3367:
.LBE3369:
.LBE3372:
	.loc 6 1503 0
	bne+ 7,.L429
.LVL471:
.L407:
.LBE3353:
.LBE3352:
.LBE3351:
.LBE3350:
.LBE3349:
.LBB3381:
.LBB3382:
.LBB3383:
	.loc 1 343 0
	lwz 9,0(29)
	mr 3,29
	lwz 0,12(9)
	mtctr 0
.LEHB6:
	bctrl
.LEHE6:
.LVL472:
.LBE3383:
.LBE3382:
.LBE3381:
.LBE3338:
.LBE3337:
.LBB3390:
.LBB3391:
.LBB3392:
.LBB3393:
.LBB3394:
	.loc 6 639 0
	lwz 4,12(29)
	mr 3,28
	bl _ZNSt8_Rb_treeIPN7sigslot12_signal_baseINS0_15single_threadedEEES4_St9_IdentityIS4_ESt4lessIS4_ESaIS4_EE8_M_eraseEPSt13_Rb_tree_nodeIS4_E
.LVL473:
.LBE3394:
.LBE3393:
.LBE3392:
.LBE3391:
.LBE3390:
.LBB3395:
.LBB3396:
.LBB3397:
	.loc 1 105 0
	lis 9,_ZTVN7sigslot15single_threadedE+8@ha
	la 0,_ZTVN7sigslot15single_threadedE+8@l(9)
.LBE3397:
.LBE3396:
.LBE3395:
.LBE3413:
.LBE3417:
.LBE3421:
	.loc 1 516 0
	mr 3,29
.LBB3422:
.LBB3418:
.LBB3414:
.LBB3400:
.LBB3399:
.LBB3398:
	.loc 1 105 0
	stw 0,0(29)
.LBE3398:
.LBE3399:
.LBE3400:
.LBE3414:
.LBE3418:
.LBE3422:
	.loc 1 516 0
	bl _ZdlPv
	lwz 0,36(1)
	lwz 26,8(1)
	mtlr 0
	lwz 27,12(1)
	lwz 28,16(1)
.LVL474:
	lwz 29,20(1)
.LVL475:
	lwz 30,24(1)
.LVL476:
	lwz 31,28(1)
	addi 1,1,32
	.cfi_remember_state
.LCFI83:
	.cfi_def_cfa_offset 0
	.cfi_restore 31
	.cfi_restore 30
	.cfi_restore 29
	.cfi_restore 28
	.cfi_restore 27
	.cfi_restore 26
	blr
.LVL477:
.L406:
.LCFI84:
	.cfi_restore_state
.LBB3423:
.LBB3419:
.LBB3415:
.LBB3401:
.LBB3388:
.LBB3384:
.LBB3380:
.LBB3379:
.LBB3378:
.LBB3377:
.LBB3373:
.LBB3374:
.LBB3375:
.LBB3376:
	.loc 6 809 0
	lwz 4,12(29)
	mr 3,28
	bl _ZNSt8_Rb_treeIPN7sigslot12_signal_baseINS0_15single_threadedEEES4_St9_IdentityIS4_ESt4lessIS4_ESaIS4_EE8_M_eraseEPSt13_Rb_tree_nodeIS4_E
.LVL478:
	.loc 6 811 0
	li 0,0
	.loc 6 810 0
	stw 30,16(29)
.LVL479:
	.loc 6 811 0
	stw 0,12(29)
.LVL480:
	.loc 6 812 0
	stw 30,20(29)
	.loc 6 813 0
	stw 0,24(29)
	b .L407
.LVL481:
.L430:
	mr 31,3
.L414:
.LVL482:
.LBE3376:
.LBE3375:
.LBE3374:
.LBE3373:
.LBE3377:
.LBE3378:
.LBE3379:
.LBE3380:
.LBE3384:
.LBE3388:
.LBE3401:
.LBB3402:
.LBB3403:
.LBB3404:
.LBB3405:
.LBB3406:
.LBB3407:
	.loc 6 639 0
	lwz 4,12(29)
	mr 3,28
	bl _ZNSt8_Rb_treeIPN7sigslot12_signal_baseINS0_15single_threadedEEES4_St9_IdentityIS4_ESt4lessIS4_ESaIS4_EE8_M_eraseEPSt13_Rb_tree_nodeIS4_E
.LVL483:
.LBE3407:
.LBE3406:
.LBE3405:
.LBE3404:
.LBE3403:
.LBE3402:
.LBB3408:
.LBB3409:
.LBB3410:
	.loc 1 105 0
	lis 9,_ZTVN7sigslot15single_threadedE+8@ha
	la 0,_ZTVN7sigslot15single_threadedE+8@l(9)
	mr 3,31
	stw 0,0(29)
.LEHB7:
	bl _Unwind_Resume
.LEHE7:
.LVL484:
.L431:
.LBE3410:
.LBE3409:
.LBE3408:
.LBB3411:
.LBB3389:
.LBB3385:
.LBB3386:
.LBB3387:
	.loc 1 343 0
	lwz 9,0(29)
	mr 31,3
.LVL485:
	mr 3,29
	lwz 0,12(9)
	mtctr 0
	bctrl
	b .L414
.LBE3387:
.LBE3386:
.LBE3385:
.LBE3389:
.LBE3411:
.LBE3415:
.LBE3419:
.LBE3423:
	.cfi_endproc
.LFE1631:
	.section	.gcc_except_table
.LLSDA1631:
	.byte	0xff
	.byte	0xff
	.byte	0x1
	.uleb128 .LLSDACSE1631-.LLSDACSB1631
.LLSDACSB1631:
	.uleb128 .LEHB4-.LFB1631
	.uleb128 .LEHE4-.LEHB4
	.uleb128 .L430-.LFB1631
	.uleb128 0
	.uleb128 .LEHB5-.LFB1631
	.uleb128 .LEHE5-.LEHB5
	.uleb128 .L431-.LFB1631
	.uleb128 0
	.uleb128 .LEHB6-.LFB1631
	.uleb128 .LEHE6-.LEHB6
	.uleb128 .L430-.LFB1631
	.uleb128 0
	.uleb128 .LEHB7-.LFB1631
	.uleb128 .LEHE7-.LEHB7
	.uleb128 0
	.uleb128 0
.LLSDACSE1631:
	.section	.text._ZN7sigslot9has_slotsINS_15single_threadedEED0Ev,"axG",@progbits,_ZN7sigslot9has_slotsINS_15single_threadedEED5Ev,comdat
	.size	_ZN7sigslot9has_slotsINS_15single_threadedEED0Ev, .-_ZN7sigslot9has_slotsINS_15single_threadedEED0Ev
	.section	".text"
	.align 2
	.globl _ZThn176_N11GuiKeyboardD1Ev
	.type	_ZThn176_N11GuiKeyboardD1Ev, @function
_ZThn176_N11GuiKeyboardD1Ev:
.LFB2162:
	.cfi_startproc
	addi 3,3,-176
	b .LTHUNK0
	.cfi_endproc
.LFE2162:
	.size	_ZThn176_N11GuiKeyboardD1Ev, .-_ZThn176_N11GuiKeyboardD1Ev
	.align 2
	.globl _ZN11GuiKeyboardD2Ev
	.type	_ZN11GuiKeyboardD2Ev, @function
_ZN11GuiKeyboardD2Ev:
.LFB1578:
	.loc 4 262 0
	.cfi_startproc
	.cfi_personality 0,__gxx_personality_v0
	.cfi_lsda 0,.LLSDA1578
.LVL486:
	mflr 0
	stwu 1,-48(1)
.LCFI85:
	.cfi_def_cfa_offset 48
	.cfi_register 65, 0
.LBB3548:
	lis 9,_ZTV11GuiKeyboard+8@ha
.LBE3548:
	stw 30,40(1)
	mr 30,3
	.cfi_offset 30, -8
	stw 0,52(1)
.LBB3672:
	la 9,_ZTV11GuiKeyboard+8@l(9)
	addi 0,9,228
	.cfi_offset 65, 4
.LBE3672:
	stw 28,32(1)
.LBB3673:
.LBB3549:
	.loc 4 264 0
	lwz 3,804(3)
.LVL487:
.LBE3549:
.LBE3673:
	.loc 4 262 0
	stw 29,36(1)
.LBB3674:
.LBB3553:
	.loc 4 264 0
	cmpwi 7,3,0
.LBE3553:
.LBE3674:
	.loc 4 262 0
	stw 31,44(1)
.LBB3675:
	.loc 4 262 0
	stw 9,0(30)
	stw 0,176(30)
.LBB3554:
	.loc 4 264 0
	beq- 7,.L437
	.cfi_offset 31, -4
	.cfi_offset 29, -12
	.cfi_offset 28, -16
	.loc 4 264 0 is_stmt 0 discriminator 1
	lwz 9,0(3)
	lwz 0,4(9)
	mtctr 0
.LEHB8:
	bctrl
.L437:
	.loc 4 265 0 is_stmt 1
	lwz 3,812(30)
	cmpwi 7,3,0
	beq- 7,.L438
	.loc 4 265 0 is_stmt 0 discriminator 1
	lwz 9,0(3)
	lwz 0,4(9)
	mtctr 0
	bctrl
.L438:
	.loc 4 266 0 is_stmt 1
	lwz 3,808(30)
	cmpwi 7,3,0
	beq- 7,.L439
	.loc 4 266 0 is_stmt 0 discriminator 1
	lwz 9,0(3)
	lwz 0,4(9)
	mtctr 0
	bctrl
.L439:
	.loc 4 267 0 is_stmt 1
	lwz 3,816(30)
	cmpwi 7,3,0
	beq- 7,.L440
	.loc 4 267 0 is_stmt 0 discriminator 1
	lwz 9,0(3)
	lwz 0,4(9)
	mtctr 0
	bctrl
.L440:
	.loc 4 268 0 is_stmt 1
	lwz 3,820(30)
	cmpwi 7,3,0
	beq- 7,.L441
	.loc 4 268 0 is_stmt 0 discriminator 1
	lwz 9,0(3)
	lwz 0,4(9)
	mtctr 0
	bctrl
.L441:
	.loc 4 269 0 is_stmt 1
	lwz 3,824(30)
	cmpwi 7,3,0
	beq- 7,.L442
	.loc 4 269 0 is_stmt 0 discriminator 1
	lwz 9,0(3)
	lwz 0,4(9)
	mtctr 0
	bctrl
.L442:
	.loc 4 270 0 is_stmt 1
	lwz 3,828(30)
	cmpwi 7,3,0
	beq- 7,.L443
	.loc 4 270 0 is_stmt 0 discriminator 1
	lwz 9,0(3)
	lwz 0,4(9)
	mtctr 0
	bctrl
.L443:
	.loc 4 271 0 is_stmt 1
	lwz 3,832(30)
	cmpwi 7,3,0
	beq- 7,.L444
	.loc 4 271 0 is_stmt 0 discriminator 1
	lwz 9,0(3)
	lwz 0,4(9)
	mtctr 0
	bctrl
.L444:
	.loc 4 272 0 is_stmt 1
	lwz 3,836(30)
	cmpwi 7,3,0
	beq- 7,.L445
	.loc 4 272 0 is_stmt 0 discriminator 1
	lwz 9,0(3)
	lwz 0,4(9)
	mtctr 0
	bctrl
.L445:
	.loc 4 273 0 is_stmt 1
	lwz 3,840(30)
	cmpwi 7,3,0
	beq- 7,.L446
	.loc 4 273 0 is_stmt 0 discriminator 1
	lwz 9,0(3)
	lwz 0,4(9)
	mtctr 0
	bctrl
.L446:
	.loc 4 274 0 is_stmt 1
	lwz 3,844(30)
	cmpwi 7,3,0
	beq- 7,.L447
	.loc 4 274 0 is_stmt 0 discriminator 1
	lwz 9,0(3)
	lwz 0,4(9)
	mtctr 0
	bctrl
.L447:
	.loc 4 275 0 is_stmt 1
	lwz 3,848(30)
	cmpwi 7,3,0
	beq- 7,.L448
	.loc 4 275 0 is_stmt 0 discriminator 1
	lwz 9,0(3)
	lwz 0,4(9)
	mtctr 0
	bctrl
.L448:
	.loc 4 276 0 is_stmt 1
	lwz 3,852(30)
	cmpwi 7,3,0
	beq- 7,.L449
	.loc 4 276 0 is_stmt 0 discriminator 1
	lwz 9,0(3)
	lwz 0,4(9)
	mtctr 0
	bctrl
.L449:
	.loc 4 277 0 is_stmt 1
	lwz 3,856(30)
	cmpwi 7,3,0
	beq- 7,.L450
	.loc 4 277 0 is_stmt 0 discriminator 1
	lwz 9,0(3)
	lwz 0,4(9)
	mtctr 0
	bctrl
.L450:
	.loc 4 278 0 is_stmt 1
	lwz 3,860(30)
	cmpwi 7,3,0
	beq- 7,.L451
	.loc 4 278 0 is_stmt 0 discriminator 1
	lwz 9,0(3)
	lwz 0,4(9)
	mtctr 0
	bctrl
.L451:
	.loc 4 279 0 is_stmt 1
	lwz 3,864(30)
	cmpwi 7,3,0
	beq- 7,.L452
	.loc 4 279 0 is_stmt 0 discriminator 1
	lwz 9,0(3)
	lwz 0,4(9)
	mtctr 0
	bctrl
.L452:
	.loc 4 280 0 is_stmt 1
	lwz 3,868(30)
	cmpwi 7,3,0
	beq- 7,.L453
	.loc 4 280 0 is_stmt 0 discriminator 1
	lwz 9,0(3)
	lwz 0,4(9)
	mtctr 0
	bctrl
.L453:
	.loc 4 281 0 is_stmt 1
	lwz 3,872(30)
	cmpwi 7,3,0
	beq- 7,.L454
	.loc 4 281 0 is_stmt 0 discriminator 1
	lwz 9,0(3)
	lwz 0,4(9)
	mtctr 0
	bctrl
.L454:
	.loc 4 282 0 is_stmt 1
	lwz 3,876(30)
	cmpwi 7,3,0
	beq- 7,.L455
	.loc 4 282 0 is_stmt 0 discriminator 1
	lwz 9,0(3)
	lwz 0,4(9)
	mtctr 0
	bctrl
.L455:
	.loc 4 283 0 is_stmt 1
	lwz 3,880(30)
	cmpwi 7,3,0
	beq- 7,.L456
	.loc 4 283 0 is_stmt 0 discriminator 1
	lwz 9,0(3)
	lwz 0,4(9)
	mtctr 0
	bctrl
.L456:
	.loc 4 284 0 is_stmt 1
	lwz 3,884(30)
	cmpwi 7,3,0
	beq- 7,.L457
	.loc 4 284 0 is_stmt 0 discriminator 1
	lwz 9,0(3)
	lwz 0,4(9)
	mtctr 0
	bctrl
.L457:
	.loc 4 285 0 is_stmt 1
	lwz 3,888(30)
	cmpwi 7,3,0
	beq- 7,.L458
	.loc 4 285 0 is_stmt 0 discriminator 1
	lwz 9,0(3)
	lwz 0,4(9)
	mtctr 0
	bctrl
.L458:
	.loc 4 286 0 is_stmt 1
	lwz 3,892(30)
	cmpwi 7,3,0
	beq- 7,.L459
	.loc 4 286 0 is_stmt 0 discriminator 1
	lwz 9,0(3)
	lwz 0,4(9)
	mtctr 0
	bctrl
.L459:
	.loc 4 287 0 is_stmt 1
	lwz 3,896(30)
	cmpwi 7,3,0
	beq- 7,.L460
	.loc 4 287 0 is_stmt 0 discriminator 1
	lwz 9,0(3)
	lwz 0,4(9)
	mtctr 0
	bctrl
.L460:
	.loc 4 288 0 is_stmt 1
	lwz 3,900(30)
	cmpwi 7,3,0
	beq- 7,.L461
	.loc 4 288 0 is_stmt 0 discriminator 1
	lwz 9,0(3)
	lwz 0,4(9)
	mtctr 0
	bctrl
.L461:
	.loc 4 289 0 is_stmt 1
	lwz 3,904(30)
	cmpwi 7,3,0
	beq- 7,.L462
	.loc 4 289 0 is_stmt 0 discriminator 1
	lwz 9,0(3)
	lwz 0,4(9)
	mtctr 0
	bctrl
.L462:
	.loc 4 290 0 is_stmt 1
	lwz 3,908(30)
	cmpwi 7,3,0
	beq- 7,.L463
	.loc 4 290 0 is_stmt 0 discriminator 1
	lwz 9,0(3)
	lwz 0,4(9)
	mtctr 0
	bctrl
.L463:
	.loc 4 291 0 is_stmt 1
	lwz 3,912(30)
	cmpwi 7,3,0
	beq- 7,.L464
	.loc 4 291 0 is_stmt 0 discriminator 1
	lwz 9,0(3)
	lwz 0,4(9)
	mtctr 0
	bctrl
.L464:
	.loc 4 292 0 is_stmt 1
	lwz 3,916(30)
	cmpwi 7,3,0
	beq- 7,.L465
	.loc 4 292 0 is_stmt 0 discriminator 1
	lwz 9,0(3)
	lwz 0,4(9)
	mtctr 0
	bctrl
.L465:
	.loc 4 293 0 is_stmt 1
	lwz 3,920(30)
	cmpwi 7,3,0
	beq- 7,.L466
	.loc 4 293 0 is_stmt 0 discriminator 1
	lwz 9,0(3)
	lwz 0,4(9)
	mtctr 0
	bctrl
.L466:
	.loc 4 294 0 is_stmt 1
	lwz 3,924(30)
	cmpwi 7,3,0
	beq- 7,.L467
	.loc 4 294 0 is_stmt 0 discriminator 1
	lwz 9,0(3)
	lwz 0,4(9)
	mtctr 0
	bctrl
.L467:
	.loc 4 295 0 is_stmt 1
	lwz 3,928(30)
	cmpwi 7,3,0
	beq- 7,.L468
	.loc 4 295 0 is_stmt 0 discriminator 1
	lwz 9,0(3)
	lwz 0,4(9)
	mtctr 0
	bctrl
.L468:
	.loc 4 296 0 is_stmt 1
	lwz 3,1800(30)
	cmpwi 7,3,0
	beq- 7,.L469
	.loc 4 296 0 is_stmt 0 discriminator 1
	lwz 9,0(3)
	lwz 0,4(9)
	mtctr 0
	bctrl
.L469:
	.loc 4 297 0 is_stmt 1
	lwz 3,1804(30)
	cmpwi 7,3,0
	beq- 7,.L470
	.loc 4 297 0 is_stmt 0 discriminator 1
	lwz 9,0(3)
	lwz 0,4(9)
	mtctr 0
	bctrl
.L470:
	.loc 4 298 0 is_stmt 1
	lwz 3,1808(30)
	cmpwi 7,3,0
	beq- 7,.L471
	.loc 4 298 0 is_stmt 0 discriminator 1
	lwz 9,0(3)
	lwz 0,4(9)
	mtctr 0
	bctrl
.L471:
	.loc 4 299 0 is_stmt 1
	lwz 3,1812(30)
	cmpwi 7,3,0
	beq- 7,.L472
	.loc 4 299 0 is_stmt 0 discriminator 1
	lwz 9,0(3)
	lwz 0,4(9)
	mtctr 0
	bctrl
.L472:
	.loc 4 300 0 is_stmt 1
	lwz 3,1764(30)
	bl _ZN9Resources6RemoveEP12GuiImageData
	.loc 4 301 0
	lwz 3,1768(30)
	bl _ZN9Resources6RemoveEP12GuiImageData
	.loc 4 302 0
	lwz 3,1772(30)
	bl _ZN9Resources6RemoveEP12GuiImageData
	.loc 4 303 0
	lwz 3,1776(30)
	bl _ZN9Resources6RemoveEP12GuiImageData
	.loc 4 304 0
	lwz 3,1780(30)
	bl _ZN9Resources6RemoveEP12GuiImageData
	.loc 4 305 0
	lwz 3,1784(30)
	bl _ZN9Resources6RemoveEP12GuiImageData
	.loc 4 306 0
	lwz 3,1788(30)
	bl _ZN9Resources6RemoveEP12GuiImageData
	.loc 4 307 0
	lwz 3,1792(30)
	bl _ZN9Resources6RemoveEP8GuiSound
	.loc 4 308 0
	lwz 3,1796(30)
	bl _ZN9Resources6RemoveEP8GuiSound
	li 0,4
	mr 31,30
	stw 0,24(1)
	mr 29,30
.L564:
.LVL488:
.LBB3550:
.LBB3551:
	.loc 4 314 0 discriminator 1
	lwz 0,380(29)
	cmpwi 7,0,0
	beq- 7,.L473
	.loc 4 316 0
	lwz 3,1140(31)
	cmpwi 7,3,0
	beq- 7,.L479
	lwz 9,0(3)
	lwz 0,4(9)
	mtctr 0
	bctrl
.L479:
	.loc 4 317 0
	lwz 3,1348(31)
	cmpwi 7,3,0
	beq- 7,.L478
	lwz 9,0(3)
	lwz 0,4(9)
	mtctr 0
	bctrl
.L478:
	.loc 4 318 0
	lwz 3,1556(31)
	cmpwi 7,3,0
	beq- 7,.L477
	lwz 9,0(3)
	lwz 0,4(9)
	mtctr 0
	bctrl
.L477:
	.loc 4 319 0
	lwz 3,932(31)
	cmpwi 7,3,0
	beq- 7,.L473
	lwz 9,0(3)
	lwz 0,4(9)
	mtctr 0
	bctrl
.L473:
.LVL489:
	.loc 4 314 0
	lwz 0,384(29)
	cmpwi 7,0,0
	beq- 7,.L480
	.loc 4 316 0
	lwz 3,1144(31)
	cmpwi 7,3,0
	beq- 7,.L486
	lwz 9,0(3)
	lwz 0,4(9)
	mtctr 0
	bctrl
.L486:
	.loc 4 317 0
	lwz 3,1352(31)
	cmpwi 7,3,0
	beq- 7,.L485
	lwz 9,0(3)
	lwz 0,4(9)
	mtctr 0
	bctrl
.L485:
	.loc 4 318 0
	lwz 3,1560(31)
	cmpwi 7,3,0
	beq- 7,.L484
	lwz 9,0(3)
	lwz 0,4(9)
	mtctr 0
	bctrl
.L484:
	.loc 4 319 0
	lwz 3,936(31)
	cmpwi 7,3,0
	beq- 7,.L480
	lwz 9,0(3)
	lwz 0,4(9)
	mtctr 0
	bctrl
.L480:
.LVL490:
	.loc 4 314 0
	lwz 0,388(29)
	cmpwi 7,0,0
	beq- 7,.L487
	.loc 4 316 0
	lwz 3,1148(31)
	cmpwi 7,3,0
	beq- 7,.L493
	lwz 9,0(3)
	lwz 0,4(9)
	mtctr 0
	bctrl
.L493:
	.loc 4 317 0
	lwz 3,1356(31)
	cmpwi 7,3,0
	beq- 7,.L492
	lwz 9,0(3)
	lwz 0,4(9)
	mtctr 0
	bctrl
.L492:
	.loc 4 318 0
	lwz 3,1564(31)
	cmpwi 7,3,0
	beq- 7,.L491
	lwz 9,0(3)
	lwz 0,4(9)
	mtctr 0
	bctrl
.L491:
	.loc 4 319 0
	lwz 3,940(31)
	cmpwi 7,3,0
	beq- 7,.L487
	lwz 9,0(3)
	lwz 0,4(9)
	mtctr 0
	bctrl
.L487:
.LVL491:
	.loc 4 314 0
	lwz 0,392(29)
	cmpwi 7,0,0
	beq- 7,.L494
	.loc 4 316 0
	lwz 3,1152(31)
	cmpwi 7,3,0
	beq- 7,.L500
	lwz 9,0(3)
	lwz 0,4(9)
	mtctr 0
	bctrl
.L500:
	.loc 4 317 0
	lwz 3,1360(31)
	cmpwi 7,3,0
	beq- 7,.L499
	lwz 9,0(3)
	lwz 0,4(9)
	mtctr 0
	bctrl
.L499:
	.loc 4 318 0
	lwz 3,1568(31)
	cmpwi 7,3,0
	beq- 7,.L498
	lwz 9,0(3)
	lwz 0,4(9)
	mtctr 0
	bctrl
.L498:
	.loc 4 319 0
	lwz 3,944(31)
	cmpwi 7,3,0
	beq- 7,.L494
	lwz 9,0(3)
	lwz 0,4(9)
	mtctr 0
	bctrl
.L494:
.LVL492:
	.loc 4 314 0
	lwz 0,396(29)
	cmpwi 7,0,0
	beq- 7,.L501
	.loc 4 316 0
	lwz 3,1156(31)
	cmpwi 7,3,0
	beq- 7,.L507
	lwz 9,0(3)
	lwz 0,4(9)
	mtctr 0
	bctrl
.L507:
	.loc 4 317 0
	lwz 3,1364(31)
	cmpwi 7,3,0
	beq- 7,.L506
	lwz 9,0(3)
	lwz 0,4(9)
	mtctr 0
	bctrl
.L506:
	.loc 4 318 0
	lwz 3,1572(31)
	cmpwi 7,3,0
	beq- 7,.L505
	lwz 9,0(3)
	lwz 0,4(9)
	mtctr 0
	bctrl
.L505:
	.loc 4 319 0
	lwz 3,948(31)
	cmpwi 7,3,0
	beq- 7,.L501
	lwz 9,0(3)
	lwz 0,4(9)
	mtctr 0
	bctrl
.L501:
.LVL493:
	.loc 4 314 0
	lwz 0,400(29)
	cmpwi 7,0,0
	beq- 7,.L508
	.loc 4 316 0
	lwz 3,1160(31)
	cmpwi 7,3,0
	beq- 7,.L514
	lwz 9,0(3)
	lwz 0,4(9)
	mtctr 0
	bctrl
.L514:
	.loc 4 317 0
	lwz 3,1368(31)
	cmpwi 7,3,0
	beq- 7,.L513
	lwz 9,0(3)
	lwz 0,4(9)
	mtctr 0
	bctrl
.L513:
	.loc 4 318 0
	lwz 3,1576(31)
	cmpwi 7,3,0
	beq- 7,.L512
	lwz 9,0(3)
	lwz 0,4(9)
	mtctr 0
	bctrl
.L512:
	.loc 4 319 0
	lwz 3,952(31)
	cmpwi 7,3,0
	beq- 7,.L508
	lwz 9,0(3)
	lwz 0,4(9)
	mtctr 0
	bctrl
.L508:
.LVL494:
	.loc 4 314 0
	lwz 0,404(29)
	cmpwi 7,0,0
	beq- 7,.L515
	.loc 4 316 0
	lwz 3,1164(31)
	cmpwi 7,3,0
	beq- 7,.L521
	lwz 9,0(3)
	lwz 0,4(9)
	mtctr 0
	bctrl
.L521:
	.loc 4 317 0
	lwz 3,1372(31)
	cmpwi 7,3,0
	beq- 7,.L520
	lwz 9,0(3)
	lwz 0,4(9)
	mtctr 0
	bctrl
.L520:
	.loc 4 318 0
	lwz 3,1580(31)
	cmpwi 7,3,0
	beq- 7,.L519
	lwz 9,0(3)
	lwz 0,4(9)
	mtctr 0
	bctrl
.L519:
	.loc 4 319 0
	lwz 3,956(31)
	cmpwi 7,3,0
	beq- 7,.L515
	lwz 9,0(3)
	lwz 0,4(9)
	mtctr 0
	bctrl
.L515:
.LVL495:
	.loc 4 314 0
	lwz 0,408(29)
	cmpwi 7,0,0
	beq- 7,.L522
	.loc 4 316 0
	lwz 3,1168(31)
	cmpwi 7,3,0
	beq- 7,.L528
	lwz 9,0(3)
	lwz 0,4(9)
	mtctr 0
	bctrl
.L528:
	.loc 4 317 0
	lwz 3,1376(31)
	cmpwi 7,3,0
	beq- 7,.L527
	lwz 9,0(3)
	lwz 0,4(9)
	mtctr 0
	bctrl
.L527:
	.loc 4 318 0
	lwz 3,1584(31)
	cmpwi 7,3,0
	beq- 7,.L526
	lwz 9,0(3)
	lwz 0,4(9)
	mtctr 0
	bctrl
.L526:
	.loc 4 319 0
	lwz 3,960(31)
	cmpwi 7,3,0
	beq- 7,.L522
	lwz 9,0(3)
	lwz 0,4(9)
	mtctr 0
	bctrl
.L522:
.LVL496:
	.loc 4 314 0
	lwz 0,412(29)
	cmpwi 7,0,0
	beq- 7,.L529
	.loc 4 316 0
	lwz 3,1172(31)
	cmpwi 7,3,0
	beq- 7,.L535
	lwz 9,0(3)
	lwz 0,4(9)
	mtctr 0
	bctrl
.L535:
	.loc 4 317 0
	lwz 3,1380(31)
	cmpwi 7,3,0
	beq- 7,.L534
	lwz 9,0(3)
	lwz 0,4(9)
	mtctr 0
	bctrl
.L534:
	.loc 4 318 0
	lwz 3,1588(31)
	cmpwi 7,3,0
	beq- 7,.L533
	lwz 9,0(3)
	lwz 0,4(9)
	mtctr 0
	bctrl
.L533:
	.loc 4 319 0
	lwz 3,964(31)
	cmpwi 7,3,0
	beq- 7,.L529
	lwz 9,0(3)
	lwz 0,4(9)
	mtctr 0
	bctrl
.L529:
.LVL497:
	.loc 4 314 0
	lwz 0,416(29)
	cmpwi 7,0,0
	beq- 7,.L536
	.loc 4 316 0
	lwz 3,1176(31)
	cmpwi 7,3,0
	beq- 7,.L542
	lwz 9,0(3)
	lwz 0,4(9)
	mtctr 0
	bctrl
.L542:
	.loc 4 317 0
	lwz 3,1384(31)
	cmpwi 7,3,0
	beq- 7,.L541
	lwz 9,0(3)
	lwz 0,4(9)
	mtctr 0
	bctrl
.L541:
	.loc 4 318 0
	lwz 3,1592(31)
	cmpwi 7,3,0
	beq- 7,.L540
	lwz 9,0(3)
	lwz 0,4(9)
	mtctr 0
	bctrl
.L540:
	.loc 4 319 0
	lwz 3,968(31)
	cmpwi 7,3,0
	beq- 7,.L536
	lwz 9,0(3)
	lwz 0,4(9)
	mtctr 0
	bctrl
.L536:
.LVL498:
	.loc 4 314 0
	lwz 0,420(29)
	cmpwi 7,0,0
	beq- 7,.L543
	.loc 4 316 0
	lwz 3,1180(31)
	cmpwi 7,3,0
	beq- 7,.L549
	lwz 9,0(3)
	lwz 0,4(9)
	mtctr 0
	bctrl
.L549:
	.loc 4 317 0
	lwz 3,1388(31)
	cmpwi 7,3,0
	beq- 7,.L548
	lwz 9,0(3)
	lwz 0,4(9)
	mtctr 0
	bctrl
.L548:
	.loc 4 318 0
	lwz 3,1596(31)
	cmpwi 7,3,0
	beq- 7,.L547
	lwz 9,0(3)
	lwz 0,4(9)
	mtctr 0
	bctrl
.L547:
	.loc 4 319 0
	lwz 3,972(31)
	cmpwi 7,3,0
	beq- 7,.L543
	lwz 9,0(3)
	lwz 0,4(9)
	mtctr 0
	bctrl
.L543:
.LVL499:
	.loc 4 314 0
	lwz 0,424(29)
	cmpwi 7,0,0
	beq- 7,.L550
	.loc 4 316 0
	lwz 3,1184(31)
	cmpwi 7,3,0
	beq- 7,.L556
	lwz 9,0(3)
	lwz 0,4(9)
	mtctr 0
	bctrl
.L556:
	.loc 4 317 0
	lwz 3,1392(31)
	cmpwi 7,3,0
	beq- 7,.L555
	lwz 9,0(3)
	lwz 0,4(9)
	mtctr 0
	bctrl
.L555:
	.loc 4 318 0
	lwz 3,1600(31)
	cmpwi 7,3,0
	beq- 7,.L554
	lwz 9,0(3)
	lwz 0,4(9)
	mtctr 0
	bctrl
.L554:
	.loc 4 319 0
	lwz 3,976(31)
	cmpwi 7,3,0
	beq- 7,.L550
	lwz 9,0(3)
	lwz 0,4(9)
	mtctr 0
	bctrl
.L550:
.LVL500:
	.loc 4 314 0
	lwz 0,428(29)
	cmpwi 7,0,0
	beq- 7,.L557
	.loc 4 316 0
	lwz 3,1188(31)
	cmpwi 7,3,0
	beq- 7,.L563
	lwz 9,0(3)
	lwz 0,4(9)
	mtctr 0
	bctrl
.L563:
	.loc 4 317 0
	lwz 3,1396(31)
	cmpwi 7,3,0
	beq- 7,.L562
	lwz 9,0(3)
	lwz 0,4(9)
	mtctr 0
	bctrl
.L562:
	.loc 4 318 0
	lwz 3,1604(31)
	cmpwi 7,3,0
	beq- 7,.L561
	lwz 9,0(3)
	lwz 0,4(9)
	mtctr 0
	bctrl
.L561:
	.loc 4 319 0
	lwz 3,980(31)
	cmpwi 7,3,0
	beq- 7,.L557
	lwz 9,0(3)
	lwz 0,4(9)
	mtctr 0
	bctrl
.LEHE8:
.L557:
.LVL501:
.LBE3551:
	.loc 4 310 0
	lwz 0,24(1)
.LBB3552:
	.loc 4 316 0
	addi 29,29,104
	addi 31,31,52
.LBE3552:
	.loc 4 310 0
	addic. 9,0,-1
	stw 9,24(1)
	bne+ 0,.L564
.LVL502:
.LBE3550:
.LBE3554:
.LBB3555:
.LBB3556:
.LBB3557:
.LBB3558:
.LBB3559:
.LBB3560:
.LBB3561:
.LBB3562:
	.loc 5 288 0
	lwz 9,212(30)
.LBE3562:
.LBE3561:
.LBE3560:
.LBB3563:
.LBB3564:
	.loc 5 235 0
	lis 11,_ZNSbIwSt11char_traitsIwESaIwEE4_Rep20_S_empty_rep_storageE@ha
	la 0,_ZNSbIwSt11char_traitsIwESaIwEE4_Rep20_S_empty_rep_storageE@l(11)
.LBE3564:
.LBE3563:
	.loc 5 534 0
	addi 3,9,-12
.LVL503:
.LBB3573:
.LBB3571:
	.loc 5 235 0
	cmpw 7,3,0
	bne- 7,.L608
.LVL504:
.L571:
.LBE3571:
.LBE3573:
.LBE3559:
.LBE3558:
.LBE3557:
.LBE3556:
.LBE3555:
.LBB3579:
.LBB3580:
.LBB3581:
	.loc 1 516 0
	lis 9,_ZTVN7sigslot9has_slotsINS_15single_threadedEEE+8@ha
.LBE3581:
.LBE3580:
.LBE3579:
	.loc 4 262 0
	addi 28,30,176
.LVL505:
.LBB3665:
.LBB3662:
.LBB3659:
	.loc 1 516 0
	la 0,_ZTVN7sigslot9has_slotsINS_15single_threadedEEE+8@l(9)
.LBB3582:
.LBB3583:
.LBB3584:
.LBB3585:
	.loc 1 338 0
	mr 3,28
.LBE3585:
.LBE3584:
.LBE3583:
.LBE3582:
	.loc 1 516 0
	stw 0,176(30)
.LVL506:
	addi 31,30,180
.LEHB9:
.LBB3637:
.LBB3635:
.LBB3587:
.LBB3586:
	.loc 1 338 0
	bl _ZN7sigslot15single_threaded4lockEv
.LEHE9:
.LVL507:
.LBE3586:
.LBE3587:
.LBB3588:
	.loc 4 598 0
	lwz 31,192(30)
.LVL508:
.LBE3588:
.LBB3589:
.LBB3590:
.LBB3591:
	.loc 6 671 0
	addi 29,30,184
.LVL509:
.LBE3591:
.LBE3590:
.LBE3589:
	.loc 1 524 0
	cmpw 7,31,29
	beq- 7,.L572
.LVL510:
.L604:
	.loc 1 526 0
	lwz 3,16(31)
	mr 4,28
	lwz 9,0(3)
	lwz 0,16(9)
	mtctr 0
.LEHB10:
	bctrl
.LEHE10:
.LVL511:
.LBB3592:
.LBB3593:
	.loc 6 269 0
	mr 3,31
	bl _ZSt18_Rb_tree_incrementPKSt18_Rb_tree_node_base
.LBE3593:
.LBE3592:
	.loc 1 524 0
	cmpw 7,29,3
.LBB3595:
.LBB3594:
	.loc 6 269 0
	mr 31,3
.LVL512:
.LBE3594:
.LBE3595:
	.loc 1 524 0
	bne+ 7,.L604
.LVL513:
.L572:
.LBB3596:
.LBB3597:
	.file 8 "d:\\devkitpro\\devkitppc\\bin\\../lib/gcc/powerpc-eabi/4.6.3/../../../../powerpc-eabi/include/c++/4.6.3/bits/stl_set.h"
	.loc 8 562 0
	addi 31,30,180
.LVL514:
.LBB3598:
.LBB3599:
.LBB3600:
.LBB3601:
.LBB3602:
.LBB3603:
.LBB3604:
	.loc 6 809 0
	lwz 4,188(30)
	mr 3,31
	bl _ZNSt8_Rb_treeIPN7sigslot12_signal_baseINS0_15single_threadedEEES4_St9_IdentityIS4_ESt4lessIS4_ESaIS4_EE8_M_eraseEPSt13_Rb_tree_nodeIS4_E
.LVL515:
	.loc 6 811 0
	li 0,0
	.loc 6 810 0
	stw 29,192(30)
.LVL516:
.LBE3604:
.LBE3603:
.LBE3602:
.LBE3601:
.LBE3600:
.LBE3599:
.LBE3598:
.LBE3597:
.LBE3596:
.LBB3621:
.LBB3622:
.LBB3623:
	.loc 1 343 0
	mr 3,28
.LBE3623:
.LBE3622:
.LBE3621:
.LBB3628:
.LBB3619:
.LBB3617:
.LBB3615:
.LBB3613:
.LBB3611:
.LBB3609:
.LBB3607:
.LBB3605:
	.loc 6 811 0
	stw 0,188(30)
.LVL517:
	.loc 6 812 0
	stw 29,196(30)
.LBE3605:
.LBE3607:
.LBE3609:
.LBE3611:
.LBE3613:
.LBE3615:
.LBE3617:
.LBE3619:
.LBE3628:
.LBB3629:
.LBB3626:
.LBB3624:
	.loc 1 343 0
	lwz 9,176(30)
.LBE3624:
.LBE3626:
.LBE3629:
.LBB3630:
.LBB3620:
.LBB3618:
.LBB3616:
.LBB3614:
.LBB3612:
.LBB3610:
.LBB3608:
.LBB3606:
	.loc 6 813 0
	stw 0,200(30)
.LVL518:
.LBE3606:
.LBE3608:
.LBE3610:
.LBE3612:
.LBE3614:
.LBE3616:
.LBE3618:
.LBE3620:
.LBE3630:
.LBB3631:
.LBB3627:
.LBB3625:
	.loc 1 343 0
	lwz 0,12(9)
	mtctr 0
.LEHB11:
	bctrl
.LEHE11:
.LVL519:
.LBE3625:
.LBE3627:
.LBE3631:
.LBE3635:
.LBE3637:
.LBB3638:
.LBB3639:
.LBB3640:
.LBB3641:
.LBB3642:
	.loc 6 639 0
	lwz 4,188(30)
	mr 3,31
	bl _ZNSt8_Rb_treeIPN7sigslot12_signal_baseINS0_15single_threadedEEES4_St9_IdentityIS4_ESt4lessIS4_ESaIS4_EE8_M_eraseEPSt13_Rb_tree_nodeIS4_E
.LBE3642:
.LBE3641:
.LBE3640:
.LBE3639:
.LBE3638:
.LBB3643:
.LBB3644:
.LBB3645:
	.loc 1 105 0
	lis 9,_ZTVN7sigslot15single_threadedE+8@ha
	la 0,_ZTVN7sigslot15single_threadedE+8@l(9)
.LBE3645:
.LBE3644:
.LBE3643:
.LBE3659:
.LBE3662:
.LBE3665:
	.loc 4 262 0
	mr 3,30
.LBB3666:
.LBB3663:
.LBB3660:
.LBB3648:
.LBB3647:
.LBB3646:
	.loc 1 105 0
	stw 0,176(30)
.LEHB12:
.LBE3646:
.LBE3647:
.LBE3648:
.LBE3660:
.LBE3663:
.LBE3666:
	.loc 4 262 0
	bl _ZN8GuiFrameD2Ev
.LEHE12:
.LBE3675:
	.loc 4 323 0
	lwz 0,52(1)
	lwz 28,32(1)
.LVL520:
	mtlr 0
	lwz 29,36(1)
.LVL521:
	lwz 30,40(1)
.LVL522:
	lwz 31,44(1)
.LVL523:
	addi 1,1,48
	.cfi_remember_state
.LCFI86:
	.cfi_def_cfa_offset 0
	.cfi_restore 31
	.cfi_restore 30
	.cfi_restore 29
	.cfi_restore 28
	blr
.LVL524:
.L601:
.LCFI87:
	.cfi_restore_state
	mr 29,3
.LVL525:
.LBB3676:
.LBB3667:
.LBB3668:
.LBB3669:
	.file 9 "d:/Projects/SaveGameManager/savegame-manager-gx/trunk/source/GUI/../TextOperations/wstring.hpp"
	.loc 9 10 0
	addi 3,30,212
	bl _ZNSbIwSt11char_traitsIwESaIwEED2Ev
.LBE3669:
.LBE3668:
.LBE3667:
	.loc 4 262 0
	addi 3,30,176
	bl _ZN7sigslot9has_slotsINS_15single_threadedEED2Ev
.LVL526:
.L595:
	mr 3,30
	bl _ZN8GuiFrameD2Ev
	mr 3,29
.LEHB13:
	bl _Unwind_Resume
.LEHE13:
.LVL527:
.L603:
.LBB3670:
.LBB3664:
.LBB3661:
.LBB3649:
.LBB3636:
.LBB3632:
.LBB3633:
.LBB3634:
	.loc 1 343 0
	lwz 9,176(30)
	mr 29,3
.LVL528:
	mr 3,28
	addi 31,30,180
.LVL529:
	lwz 0,12(9)
	mtctr 0
	bctrl
.LVL530:
.L582:
.LBE3634:
.LBE3633:
.LBE3632:
.LBE3636:
.LBE3649:
.LBB3650:
.LBB3651:
.LBB3652:
.LBB3653:
.LBB3654:
.LBB3655:
	.loc 6 639 0
	lwz 4,188(30)
	mr 3,31
	bl _ZNSt8_Rb_treeIPN7sigslot12_signal_baseINS0_15single_threadedEEES4_St9_IdentityIS4_ESt4lessIS4_ESaIS4_EE8_M_eraseEPSt13_Rb_tree_nodeIS4_E
.LBE3655:
.LBE3654:
.LBE3653:
.LBE3652:
.LBE3651:
.LBE3650:
.LBB3656:
.LBB3657:
.LBB3658:
	.loc 1 105 0
	lis 9,_ZTVN7sigslot15single_threadedE+8@ha
	la 0,_ZTVN7sigslot15single_threadedE+8@l(9)
	stw 0,176(30)
	b .L595
.LVL531:
.L602:
	mr 29,3
	b .L582
.LVL532:
.L608:
.LBE3658:
.LBE3657:
.LBE3656:
.LBE3661:
.LBE3664:
.LBE3670:
.LBB3671:
.LBB3578:
.LBB3577:
.LBB3576:
.LBB3575:
.LBB3574:
.LBB3572:
.LBB3565:
.LBB3566:
.LBB3567:
	.file 10 "d:\\devkitpro\\devkitppc\\bin\\../lib/gcc/powerpc-eabi/4.6.3/../../../../powerpc-eabi/include/c++/4.6.3/ext/atomicity.h"
	.loc 10 66 0
	lwz 11,-4(9)
.LVL533:
.LBE3567:
.LBE3566:
.LBE3565:
	.loc 5 240 0
	cmpwi 7,11,0
.LBB3570:
.LBB3569:
.LBB3568:
	.loc 10 67 0
	addi 11,11,-1
	stw 11,-4(9)
.LBE3568:
.LBE3569:
.LBE3570:
	.loc 5 240 0
	bgt+ 7,.L571
	.loc 5 244 0
	addi 4,1,8
	bl _ZNSbIwSt11char_traitsIwESaIwEE4_Rep10_M_destroyERKS1_
.LVL534:
	b .L571
.LBE3572:
.LBE3574:
.LBE3575:
.LBE3576:
.LBE3577:
.LBE3578:
.LBE3671:
.LBE3676:
	.cfi_endproc
.LFE1578:
	.section	.gcc_except_table
.LLSDA1578:
	.byte	0xff
	.byte	0xff
	.byte	0x1
	.uleb128 .LLSDACSE1578-.LLSDACSB1578
.LLSDACSB1578:
	.uleb128 .LEHB8-.LFB1578
	.uleb128 .LEHE8-.LEHB8
	.uleb128 .L601-.LFB1578
	.uleb128 0
	.uleb128 .LEHB9-.LFB1578
	.uleb128 .LEHE9-.LEHB9
	.uleb128 .L602-.LFB1578
	.uleb128 0
	.uleb128 .LEHB10-.LFB1578
	.uleb128 .LEHE10-.LEHB10
	.uleb128 .L603-.LFB1578
	.uleb128 0
	.uleb128 .LEHB11-.LFB1578
	.uleb128 .LEHE11-.LEHB11
	.uleb128 .L602-.LFB1578
	.uleb128 0
	.uleb128 .LEHB12-.LFB1578
	.uleb128 .LEHE12-.LEHB12
	.uleb128 0
	.uleb128 0
	.uleb128 .LEHB13-.LFB1578
	.uleb128 .LEHE13-.LEHB13
	.uleb128 0
	.uleb128 0
.LLSDACSE1578:
	.section	".text"
	.size	_ZN11GuiKeyboardD2Ev, .-_ZN11GuiKeyboardD2Ev
	.align 2
	.globl _ZThn176_N11GuiKeyboardD0Ev
	.type	_ZThn176_N11GuiKeyboardD0Ev, @function
_ZThn176_N11GuiKeyboardD0Ev:
.LFB2163:
	.cfi_startproc
	addi 3,3,-176
	b .LTHUNK1
	.cfi_endproc
.LFE2163:
	.size	_ZThn176_N11GuiKeyboardD0Ev, .-_ZThn176_N11GuiKeyboardD0Ev
	.align 2
	.globl _ZN11GuiKeyboardD0Ev
	.type	_ZN11GuiKeyboardD0Ev, @function
_ZN11GuiKeyboardD0Ev:
.LFB1580:
	.loc 4 262 0
	.cfi_startproc
.LVL535:
	stwu 1,-16(1)
.LCFI88:
	.cfi_def_cfa_offset 16
	mflr 0
	stw 31,12(1)
	mr 31,3
	.cfi_offset 31, -4
	.cfi_register 65, 0
	stw 0,20(1)
	.loc 4 323 0
	.cfi_offset 65, 4
	bl _ZN11GuiKeyboardD1Ev
.LVL536:
	mr 3,31
	bl _ZdlPv
	lwz 0,20(1)
	lwz 31,12(1)
.LVL537:
	mtlr 0
	addi 1,1,16
.LCFI89:
	.cfi_def_cfa_offset 0
	.cfi_restore 31
	blr
	.cfi_endproc
.LFE1580:
	.size	_ZN11GuiKeyboardD0Ev, .-_ZN11GuiKeyboardD0Ev
	.section	.text._ZNSt8_Rb_treeIPN7sigslot12_signal_baseINS0_15single_threadedEEES4_St9_IdentityIS4_ESt4lessIS4_ESaIS4_EE16_M_insert_uniqueERKS4_,"axG",@progbits,_ZNSt8_Rb_treeIPN7sigslot12_signal_baseINS0_15single_threadedEEES4_St9_IdentityIS4_ESt4lessIS4_ESaIS4_EE16_M_insert_uniqueERKS4_,comdat
	.align 2
	.weak	_ZNSt8_Rb_treeIPN7sigslot12_signal_baseINS0_15single_threadedEEES4_St9_IdentityIS4_ESt4lessIS4_ESaIS4_EE16_M_insert_uniqueERKS4_
	.type	_ZNSt8_Rb_treeIPN7sigslot12_signal_baseINS0_15single_threadedEEES4_St9_IdentityIS4_ESt4lessIS4_ESaIS4_EE16_M_insert_uniqueERKS4_, @function
_ZNSt8_Rb_treeIPN7sigslot12_signal_baseINS0_15single_threadedEEES4_St9_IdentityIS4_ESt4lessIS4_ESaIS4_EE16_M_insert_uniqueERKS4_:
.LFB1833:
	.loc 6 1264 0
	.cfi_startproc
.LVL538:
	mflr 0
	stwu 1,-32(1)
.LCFI90:
	.cfi_def_cfa_offset 32
	.cfi_register 65, 0
	stw 28,16(1)
	stw 0,36(1)
	stw 27,12(1)
	mr 27,4
	.cfi_offset 27, -20
	.cfi_offset 65, 4
	.cfi_offset 28, -16
.LBB3716:
.LBB3717:
.LBB3718:
	.loc 4 598 0
	lwz 28,8(3)
.LVL539:
.LBE3718:
.LBE3717:
.LBE3716:
	.loc 6 1264 0
	stw 29,20(1)
.LBB3743:
.LBB3735:
.LBB3731:
	.loc 6 1272 0
	addi 29,3,4
	.cfi_offset 29, -12
.LVL540:
.LBE3731:
.LBE3735:
	.loc 6 1274 0
	cmpwi 7,28,0
.LBE3743:
	.loc 6 1264 0
	stw 31,28(1)
	stw 26,8(1)
	mr 31,3
	.cfi_offset 26, -24
	.cfi_offset 31, -4
	stw 30,24(1)
.LBB3744:
	.loc 6 1274 0
	beq- 7,.L626
	.cfi_offset 30, -8
.LVL541:
	lwz 10,0(4)
	b .L615
.LVL542:
.L634:
	.loc 4 598 0 discriminator 1
	lwz 0,8(28)
.LVL543:
	.loc 6 1274 0 discriminator 1
	cmpwi 7,0,0
	beq- 7,.L633
.LVL544:
.L627:
	.loc 6 1274 0 is_stmt 0
	mr 28,0
.LVL545:
.L615:
	.loc 4 598 0 is_stmt 1
	lwz 9,16(28)
	li 11,1
	.loc 6 1278 0
	cmplw 7,9,10
	bgt- 7,.L634
.LVL546:
	.loc 4 598 0 discriminator 2
	lwz 0,12(28)
	li 11,0
.LVL547:
	.loc 6 1274 0 discriminator 2
	cmpwi 7,0,0
	bne+ 7,.L627
.LVL548:
.L633:
	.loc 6 1281 0
	cmpwi 7,11,0
	mr 3,28
.LVL549:
	bne- 7,.L612
.LVL550:
	.loc 6 1289 0
	cmplw 7,10,9
	bgt- 7,.L635
.LVL551:
.L622:
	.loc 6 1292 0
	li 0,0
	li 4,0
	rlwimi 4,0,24,0,7
.LBE3744:
	.loc 6 1293 0
	lwz 0,36(1)
	lwz 26,8(1)
	mtlr 0
	lwz 27,12(1)
.LVL552:
	lwz 28,16(1)
	lwz 29,20(1)
	lwz 30,24(1)
	lwz 31,28(1)
.LVL553:
	addi 1,1,32
	.cfi_remember_state
.LCFI91:
	.cfi_def_cfa_offset 0
	.cfi_restore 31
	.cfi_restore 30
	.cfi_restore 29
	.cfi_restore 28
	.cfi_restore 27
	.cfi_restore 26
	blr
.LVL554:
.L626:
.LCFI92:
	.cfi_restore_state
.LBB3745:
	.loc 6 1272 0
	mr 28,29
.LVL555:
.L612:
	.loc 6 1283 0
	lwz 0,12(31)
	cmpw 7,28,0
	beq- 7,.L636
.LVL556:
.LBB3736:
.LBB3737:
	.loc 6 203 0
	mr 3,28
	bl _ZSt18_Rb_tree_decrementPSt18_Rb_tree_node_base
.LVL557:
	lwz 10,0(27)
	lwz 9,16(3)
.LVL558:
.LBE3737:
.LBE3736:
	.loc 6 1289 0
	cmplw 7,10,9
	ble+ 7,.L622
.LVL559:
.L635:
.LBB3738:
.LBB3732:
	.loc 6 969 0
	cmpw 7,28,29
	li 26,1
	beq- 7,.L623
.LVL560:
	.loc 6 1264 0
	lwz 26,16(28)
	subfc 26,26,10
	subfe 26,26,26
	neg 26,26
	b .L623
.LVL561:
.L636:
.LBE3732:
.LBE3738:
.LBB3739:
.LBB3740:
	.loc 6 969 0
	cmpw 7,28,29
	li 26,1
	beq- 7,.L623
.LVL562:
	.loc 6 1264 0
	lwz 26,0(27)
	lwz 0,16(28)
.LVL563:
	subfc 26,0,26
	subfe 26,26,26
	neg 26,26
.LVL564:
.L623:
.LBE3740:
.LBE3739:
.LBB3741:
.LBB3733:
.LBB3719:
.LBB3720:
.LBB3721:
.LBB3722:
.LBB3723:
	.loc 7 92 0
	li 3,20
	bl _Znwj
.LBE3723:
.LBE3722:
.LBE3721:
.LBB3726:
.LBB3727:
	.loc 7 108 0
	cmpwi 7,3,-16
.LBE3727:
.LBE3726:
.LBB3729:
.LBB3725:
.LBB3724:
	.loc 7 92 0
	mr 30,3
.LVL565:
.LBE3724:
.LBE3725:
.LBE3729:
.LBB3730:
.LBB3728:
	.loc 7 108 0
	beq- 7,.L625
	lwz 0,0(27)
	stw 0,16(3)
.L625:
.LVL566:
.LBE3728:
.LBE3730:
.LBE3720:
.LBE3719:
	.loc 6 973 0
	mr 3,26
.LVL567:
	mr 4,30
	mr 5,28
	mr 6,29
	bl _ZSt29_Rb_tree_insert_and_rebalancebPSt18_Rb_tree_node_baseS0_RS_
	.loc 6 976 0
	lwz 9,20(31)
	.loc 6 1291 0
	li 4,0
	mr 3,30
	.loc 6 976 0
	addi 0,9,1
.LBE3733:
.LBE3741:
.LBE3745:
	.loc 6 1293 0
	lwz 26,8(1)
.LVL568:
.LBB3746:
.LBB3742:
.LBB3734:
	.loc 6 976 0
	stw 0,20(31)
.LVL569:
	.loc 6 1291 0
	li 0,1
	rlwimi 4,0,24,0,7
.LBE3734:
.LBE3742:
.LBE3746:
	.loc 6 1293 0
	lwz 0,36(1)
	lwz 27,12(1)
.LVL570:
	mtlr 0
	lwz 28,16(1)
	lwz 29,20(1)
	lwz 30,24(1)
.LVL571:
	lwz 31,28(1)
.LVL572:
	addi 1,1,32
	.cfi_restore 26
	.cfi_restore 27
	.cfi_restore 28
	.cfi_restore 29
	.cfi_restore 30
	.cfi_restore 31
.LCFI93:
	.cfi_def_cfa_offset 0
	blr
	.cfi_endproc
.LFE1833:
	.size	_ZNSt8_Rb_treeIPN7sigslot12_signal_baseINS0_15single_threadedEEES4_St9_IdentityIS4_ESt4lessIS4_ESaIS4_EE16_M_insert_uniqueERKS4_, .-_ZNSt8_Rb_treeIPN7sigslot12_signal_baseINS0_15single_threadedEEES4_St9_IdentityIS4_ESt4lessIS4_ESaIS4_EE16_M_insert_uniqueERKS4_
	.section	.text._ZN7sigslot7signal3IP9GuiButtoniRK6_POINTNS_15single_threadedEE7connectI11GuiKeyboardEEvPT_MSA_FvS2_iS5_E,"axG",@progbits,_ZN7sigslot7signal3IP9GuiButtoniRK6_POINTNS_15single_threadedEE7connectI11GuiKeyboardEEvPT_MSA_FvS2_iS5_E,comdat
	.align 2
	.weak	_ZN7sigslot7signal3IP9GuiButtoniRK6_POINTNS_15single_threadedEE7connectI11GuiKeyboardEEvPT_MSA_FvS2_iS5_E
	.type	_ZN7sigslot7signal3IP9GuiButtoniRK6_POINTNS_15single_threadedEE7connectI11GuiKeyboardEEvPT_MSA_FvS2_iS5_E, @function
_ZN7sigslot7signal3IP9GuiButtoniRK6_POINTNS_15single_threadedEE7connectI11GuiKeyboardEEvPT_MSA_FvS2_iS5_E:
.LFB1633:
	.loc 1 2308 0
	.cfi_startproc
	.cfi_personality 0,__gxx_personality_v0
	.cfi_lsda 0,.LLSDA1633
.LVL573:
	mflr 0
	stwu 1,-48(1)
.LCFI94:
	.cfi_def_cfa_offset 48
	.cfi_register 65, 0
	stw 27,28(1)
	stw 0,52(1)
	stw 30,40(1)
	mr 30,4
	.cfi_offset 30, -8
	.cfi_offset 65, 4
	.cfi_offset 27, -20
.LBB3747:
.LBB3748:
.LBB3749:
	.loc 1 338 0
	lwz 9,0(3)
.LBE3749:
.LBE3748:
.LBE3747:
	.loc 1 2308 0
	stw 31,44(1)
	mr 31,3
	.cfi_offset 31, -4
.LVL574:
.LBB3802:
.LBB3753:
.LBB3750:
	.loc 1 338 0
	lwz 0,8(9)
.LBE3750:
.LBE3753:
.LBE3802:
	.loc 1 2308 0
	stw 28,32(1)
	stw 29,36(1)
.LBB3803:
.LBB3754:
.LBB3751:
	.loc 1 338 0
	mtctr 0
.LBE3751:
.LBE3754:
.LBE3803:
	.loc 1 2308 0
	lwz 27,0(5)
	lwz 28,4(5)
	.cfi_offset 29, -12
	.cfi_offset 28, -16
.LEHB14:
.LBB3804:
.LBB3755:
.LBB3752:
	.loc 1 338 0
	bctrl
.LEHE14:
.LVL575:
.LBE3752:
.LBE3755:
	.loc 1 2314 0
	li 3,16
.LEHB15:
	bl _Znwj
.LBB3756:
.LBB3757:
	.loc 1 1778 0
	lis 9,_ZTVN7sigslot12_connection3I11GuiKeyboardP9GuiButtoniRK6_POINTNS_15single_threadedEEE+8@ha
	.loc 1 1779 0
	stw 30,4(3)
	.loc 1 1778 0
	la 0,_ZTVN7sigslot12_connection3I11GuiKeyboardP9GuiButtoniRK6_POINTNS_15single_threadedEEE+8@l(9)
	.loc 1 1780 0
	stw 27,8(3)
	.loc 1 1778 0
	stw 0,0(3)
.LBE3757:
.LBE3756:
	.loc 1 2314 0
	mr 29,3
.LVL576:
.LBB3759:
.LBB3758:
	.loc 1 1780 0
	stw 28,12(3)
.LVL577:
.LBE3758:
.LBE3759:
.LBB3760:
.LBB3761:
.LBB3762:
.LBB3763:
.LBB3764:
.LBB3765:
.LBB3766:
.LBB3767:
	.loc 7 92 0
	li 3,12
.LVL578:
	bl _Znwj
.LVL579:
.LBE3767:
.LBE3766:
.LBE3765:
.LBB3768:
.LBB3769:
	.loc 7 108 0 discriminator 1
	cmpwi 7,3,-8
	beq- 7,.L639
	.loc 7 108 0 is_stmt 0
	stw 29,8(3)
.LVL580:
.L639:
.LBE3769:
.LBE3768:
.LBE3764:
.LBE3763:
	.file 11 "d:\\devkitpro\\devkitppc\\bin\\../lib/gcc/powerpc-eabi/4.6.3/../../../../powerpc-eabi/include/c++/4.6.3/bits/stl_list.h"
	.loc 11 1516 0 is_stmt 1
	addi 4,31,4
.LBE3762:
.LBE3761:
.LBE3760:
.LBB3774:
.LBB3775:
	.loc 1 503 0
	addi 29,30,176
.LVL581:
.LBE3775:
.LBE3774:
.LBB3791:
.LBB3772:
.LBB3770:
	.loc 11 1516 0
	bl _ZNSt8__detail15_List_node_base7_M_hookEPS0_
.LVL582:
.LBE3770:
.LBE3772:
.LBE3791:
.LBB3792:
.LBB3788:
.LBB3776:
.LBB3777:
	.loc 1 338 0
	lwz 9,176(30)
.LBE3777:
.LBE3776:
.LBE3788:
.LBE3792:
.LBB3793:
.LBB3773:
.LBB3771:
	.loc 11 1516 0
	stw 31,8(1)
.LVL583:
.LBE3771:
.LBE3773:
.LBE3793:
.LBB3794:
.LBB3789:
.LBB3779:
.LBB3778:
	.loc 1 338 0
	mr 3,29
	lwz 0,8(9)
	mtctr 0
	bctrl
.LEHE15:
.LVL584:
.LBE3778:
.LBE3779:
.LBB3780:
.LBB3781:
	.loc 8 410 0
	addi 3,30,180
	addi 4,1,8
.LEHB16:
	bl _ZNSt8_Rb_treeIPN7sigslot12_signal_baseINS0_15single_threadedEEES4_St9_IdentityIS4_ESt4lessIS4_ESaIS4_EE16_M_insert_uniqueERKS4_
.LEHE16:
.LVL585:
.LBE3781:
.LBE3780:
.LBB3782:
.LBB3783:
.LBB3784:
	.loc 1 343 0
	lwz 9,176(30)
	mr 3,29
	lwz 0,12(9)
	mtctr 0
.LEHB17:
	bctrl
.LEHE17:
.LVL586:
.LBE3784:
.LBE3783:
.LBE3782:
.LBE3789:
.LBE3794:
.LBB3795:
.LBB3796:
.LBB3797:
	lwz 9,0(31)
	mr 3,31
	lwz 0,12(9)
	mtctr 0
.LEHB18:
	bctrl
.LEHE18:
.LBE3797:
.LBE3796:
.LBE3795:
.LBE3804:
	.loc 1 2317 0
	lwz 0,52(1)
	lwz 27,28(1)
.LVL587:
	mtlr 0
	lwz 28,32(1)
.LVL588:
	lwz 29,36(1)
.LVL589:
	lwz 30,40(1)
.LVL590:
	lwz 31,44(1)
.LVL591:
	addi 1,1,48
	.cfi_remember_state
.LCFI95:
	.cfi_def_cfa_offset 0
	.cfi_restore 31
	.cfi_restore 30
	.cfi_restore 29
	.cfi_restore 28
	.cfi_restore 27
	blr
.LVL592:
.L646:
.LCFI96:
	.cfi_restore_state
	mr 30,3
.LVL593:
.L643:
.LBB3805:
.LBB3798:
.LBB3799:
.LBB3800:
	.loc 1 343 0
	lwz 9,0(31)
	mr 3,31
	lwz 0,12(9)
	mtctr 0
	bctrl
	mr 3,30
.LEHB19:
	bl _Unwind_Resume
.LEHE19:
.LVL594:
.L647:
.LBE3800:
.LBE3799:
.LBE3798:
.LBB3801:
.LBB3790:
.LBB3785:
.LBB3786:
.LBB3787:
	lwz 9,176(30)
	mr 30,3
.LVL595:
	mr 3,29
	lwz 0,12(9)
	mtctr 0
	bctrl
	b .L643
.LBE3787:
.LBE3786:
.LBE3785:
.LBE3790:
.LBE3801:
.LBE3805:
	.cfi_endproc
.LFE1633:
	.section	.gcc_except_table
.LLSDA1633:
	.byte	0xff
	.byte	0xff
	.byte	0x1
	.uleb128 .LLSDACSE1633-.LLSDACSB1633
.LLSDACSB1633:
	.uleb128 .LEHB14-.LFB1633
	.uleb128 .LEHE14-.LEHB14
	.uleb128 0
	.uleb128 0
	.uleb128 .LEHB15-.LFB1633
	.uleb128 .LEHE15-.LEHB15
	.uleb128 .L646-.LFB1633
	.uleb128 0
	.uleb128 .LEHB16-.LFB1633
	.uleb128 .LEHE16-.LEHB16
	.uleb128 .L647-.LFB1633
	.uleb128 0
	.uleb128 .LEHB17-.LFB1633
	.uleb128 .LEHE17-.LEHB17
	.uleb128 .L646-.LFB1633
	.uleb128 0
	.uleb128 .LEHB18-.LFB1633
	.uleb128 .LEHE18-.LEHB18
	.uleb128 0
	.uleb128 0
	.uleb128 .LEHB19-.LFB1633
	.uleb128 .LEHE19-.LEHB19
	.uleb128 0
	.uleb128 0
.LLSDACSE1633:
	.section	.text._ZN7sigslot7signal3IP9GuiButtoniRK6_POINTNS_15single_threadedEE7connectI11GuiKeyboardEEvPT_MSA_FvS2_iS5_E,"axG",@progbits,_ZN7sigslot7signal3IP9GuiButtoniRK6_POINTNS_15single_threadedEE7connectI11GuiKeyboardEEvPT_MSA_FvS2_iS5_E,comdat
	.size	_ZN7sigslot7signal3IP9GuiButtoniRK6_POINTNS_15single_threadedEE7connectI11GuiKeyboardEEvPT_MSA_FvS2_iS5_E, .-_ZN7sigslot7signal3IP9GuiButtoniRK6_POINTNS_15single_threadedEE7connectI11GuiKeyboardEEvPT_MSA_FvS2_iS5_E
	.section	".text"
	.align 2
	.globl _ZN11GuiKeyboard13SetupKeyboardEPKwj
	.type	_ZN11GuiKeyboard13SetupKeyboardEPKwj, @function
_ZN11GuiKeyboard13SetupKeyboardEPKwj:
.LFB1576:
	.loc 4 34 0
	.cfi_startproc
	.cfi_personality 0,__gxx_personality_v0
	.cfi_lsda 0,.LLSDA1576
.LVL596:
	mflr 0
	stwu 1,-104(1)
.LCFI97:
	.cfi_def_cfa_offset 104
	.cfi_register 65, 0
.LBB3841:
	.loc 4 35 0
	li 9,540
.LBE3841:
	.loc 4 34 0
	stw 27,84(1)
.LBB3896:
	.loc 4 45 0
	li 27,0
	.cfi_offset 27, -20
.LBE3896:
	.loc 4 34 0
	stw 0,108(1)
.LBB3897:
	.loc 4 37 0
	li 0,0
	.cfi_offset 65, 4
.LBE3897:
	.loc 4 34 0
	stw 28,88(1)
	mr 28,5
	.cfi_offset 28, -16
	stw 29,92(1)
	mr 29,4
	.cfi_offset 29, -12
	stw 30,96(1)
	mr 30,3
	.cfi_offset 30, -8
	stw 31,100(1)
.LBB3898:
	.loc 4 43 0
	addi 31,3,212
	.cfi_offset 31, -4
.LVL597:
.LBE3898:
	.loc 4 34 0
	stw 17,44(1)
	stw 18,48(1)
	stw 19,52(1)
	stw 20,56(1)
	stw 21,60(1)
	stw 22,64(1)
	stw 23,68(1)
	stw 24,72(1)
	stw 25,76(1)
	stw 26,80(1)
.LBB3899:
	.loc 4 37 0
	stb 0,800(3)
	.loc 4 38 0
	stb 0,801(3)
	.loc 4 39 0
	stb 0,802(3)
	.loc 4 40 0
	stb 0,803(3)
	.loc 4 41 0
	li 0,1
	.loc 4 35 0
	stw 9,36(3)
	.loc 4 36 0
	li 9,400
	.loc 4 41 0
	stb 0,30(3)
	.loc 4 42 0
	li 0,-1
	.loc 4 36 0
	stw 9,40(3)
	.loc 4 42 0
	stw 0,796(3)
.LBB3842:
.LBB3843:
.LBB3844:
.LBB3845:
	.file 12 "d:\\devkitpro\\devkitppc\\bin\\../lib/gcc/powerpc-eabi/4.6.3/../../../../powerpc-eabi/include/c++/4.6.3/bits/char_traits.h"
	.loc 12 332 0
	mr 3,4
.LVL598:
	.cfi_offset 26, -24
	.cfi_offset 25, -28
	.cfi_offset 24, -32
	.cfi_offset 23, -36
	.cfi_offset 22, -40
	.cfi_offset 21, -44
	.cfi_offset 20, -48
	.cfi_offset 19, -52
	.cfi_offset 18, -56
	.cfi_offset 17, -60
	bl wcslen
.LVL599:
.LBE3845:
.LBE3844:
	.loc 5 1121 0
	mr 4,29
.LBB3847:
.LBB3846:
	.loc 12 332 0
	mr 5,3
.LBE3846:
.LBE3847:
	.loc 5 1121 0
	mr 3,31
.LEHB20:
	bl _ZNSbIwSt11char_traitsIwESaIwEE6assignEPKwj
.LBE3843:
.LBE3842:
	.loc 4 47 0
	cmpwi 7,29,0
	.loc 4 44 0
	stw 28,376(30)
	.loc 4 45 0
	stw 27,204(30)
	.loc 4 46 0
	stw 27,208(30)
	.loc 4 47 0
	beq- 7,.L650
	.loc 4 49 0
	mr 3,29
	bl wcslen
	addi 3,3,-39
	.loc 4 50 0
	cmpwi 7,3,0
	.loc 4 49 0
	stw 3,208(30)
	.loc 4 50 0
	blt- 7,.L749
.LVL600:
.L650:
	.loc 4 54 0
	addi 28,30,380
.LVL601:
	li 5,416
	li 4,0
	mr 3,28
	bl memset
	.loc 4 56 0
	lis 3,.LC13@ha
	la 3,.LC13@l(3)
	lis 29,.LC14@ha
.LVL602:
	la 29,.LC14@l(29)
	bl gettext
	mr 4,3
	mr 3,29
	crxor 6,6,6
	bl _Z4wfmtPKcz
	li 5,13
	mr 4,3
	mr 3,28
	bl wcsncpy
	.loc 4 57 0
	lis 3,.LC15@ha
	la 3,.LC15@l(3)
	bl gettext
	mr 4,3
	mr 3,29
	crxor 6,6,6
	bl _Z4wfmtPKcz
	li 5,13
	mr 4,3
	addi 3,30,432
	bl wcsncpy
	.loc 4 58 0
	lis 3,.LC16@ha
	la 3,.LC16@l(3)
	bl gettext
	mr 4,3
	mr 3,29
	crxor 6,6,6
	bl _Z4wfmtPKcz
	li 5,13
	mr 4,3
	addi 3,30,484
	bl wcsncpy
	.loc 4 59 0
	lis 3,.LC17@ha
	la 3,.LC17@l(3)
	bl gettext
	mr 4,3
	mr 3,29
	crxor 6,6,6
	bl _Z4wfmtPKcz
	li 5,13
	mr 4,3
	addi 3,30,536
	bl wcsncpy
	.loc 4 60 0
	lis 3,.LC18@ha
	la 3,.LC18@l(3)
	bl gettext
	mr 4,3
	mr 3,29
	crxor 6,6,6
	bl _Z4wfmtPKcz
	li 5,13
	mr 4,3
	addi 3,30,588
	bl wcsncpy
	.loc 4 61 0
	lis 3,.LC19@ha
	la 3,.LC19@l(3)
	bl gettext
	mr 4,3
	mr 3,29
	crxor 6,6,6
	bl _Z4wfmtPKcz
	li 5,13
	mr 4,3
	addi 3,30,640
	bl wcsncpy
	.loc 4 62 0
	lis 3,.LC20@ha
	la 3,.LC20@l(3)
	bl gettext
	mr 4,3
	mr 3,29
	crxor 6,6,6
	bl _Z4wfmtPKcz
	li 5,13
	mr 4,3
	addi 3,30,692
	bl wcsncpy
	.loc 4 63 0
	lis 3,.LC21@ha
	la 3,.LC21@l(3)
	bl gettext
	mr 4,3
	mr 3,29
	crxor 6,6,6
	bl _Z4wfmtPKcz
	li 5,13
	mr 4,3
	addi 3,30,744
	bl wcsncpy
.LVL603:
	.loc 4 67 0
	lis 3,.LC24@ha
	la 3,.LC24@l(3)
	bl _ZN9Resources12GetImageDataEPKc
	stw 3,1764(30)
	.loc 4 68 0
	li 3,196
	bl _Znwj
.LEHE20:
	lwz 4,1764(30)
	mr 29,3
.LEHB21:
	bl _ZN8GuiImageC1EP12GuiImageData
.LEHE21:
	.loc 4 69 0 discriminator 1
	lwz 9,0(29)
	mr 3,29
	.loc 4 68 0 discriminator 1
	stw 29,820(30)
	.loc 4 69 0 discriminator 1
	li 4,18
	lwz 0,180(9)
	mtctr 0
.LEHB22:
	bctrl
	.loc 4 70 0 discriminator 1
	lwz 3,820(30)
	li 5,0
	li 4,0
	lwz 9,0(3)
	lwz 0,168(9)
	mtctr 0
	bctrl
	.loc 4 71 0 discriminator 1
	lwz 4,820(30)
	mr 3,30
	bl _ZN8GuiFrame6AppendEP10GuiElement
	.loc 4 73 0 discriminator 1
	li 3,368
	bl _Znwj
.LEHE22:
	mr 28,3
.LEHB23:
	bl _ZN10GuiTriggerC1Ev
.LEHE23:
	.loc 4 74 0 discriminator 1
	lis 29,Settings@ha
	mr 3,28
	la 29,Settings@l(29)
	li 4,-1
	lhz 5,2644(29)
	lhz 0,2616(29)
	slwi 5,5,16
	.loc 4 73 0 discriminator 1
	stw 28,1804(30)
	.loc 4 74 0 discriminator 1
	lhz 6,2672(29)
	or 5,5,0
.LEHB24:
	bl _ZN10GuiTrigger14SetHeldTriggerEijt
.LVL604:
.LBB3848:
.LBB3849:
.LBB3850:
.LBB3851:
.LBB3852:
.LBB3853:
.LBB3854:
	.loc 5 288 0 discriminator 1
	lwz 25,212(30)
.LBE3854:
.LBE3853:
.LBE3852:
	.loc 5 711 0 discriminator 1
	lwz 24,-12(25)
.LVL605:
.LBE3851:
.LBE3850:
	.loc 4 582 0 discriminator 1
	cmpwi 7,24,39
	ble- 7,.L651
.LVL606:
	.loc 4 586 0
	lwz 23,208(30)
.LVL607:
.LBB3855:
	.loc 4 585 0
	li 28,0
	.loc 4 589 0
	cmpw 7,24,23
	bgt- 7,.L750
.LVL608:
.L652:
.LBE3855:
	.loc 4 595 0
	addi 9,28,52
	li 0,0
	slwi 9,9,2
	.loc 4 597 0
	addi 25,30,216
	.loc 4 595 0
	add 9,30,9
	stw 0,8(9)
.LVL609:
.L651:
.LBE3849:
.LBE3848:
	.loc 4 76 0
	lis 3,.LC25@ha
	mr 24,1
	la 3,.LC25@l(3)
	bl getThemeColor
	mr 28,3
	li 3,208
	bl _Znwj
.LEHE24:
	stwu 28,24(24)
	mr 4,25
	li 5,20
	mr 6,24
	mr 31,3
.LVL610:
.LEHB25:
	bl _ZN7GuiTextC1EPKwi9_gx_color
.LEHE25:
	.loc 4 76 0 is_stmt 0 discriminator 1
	stw 31,816(30)
	.loc 4 78 0 is_stmt 1 discriminator 1
	li 3,360
.LEHB26:
	bl _Znwj
.LEHE26:
	lwz 4,816(30)
	li 5,0
	mr 31,3
.LEHB27:
	bl _ZN11TextPointerC1EP7GuiTexti
.LEHE27:
	.loc 4 79 0 discriminator 1
	lwz 9,0(31)
	mr 3,31
	.loc 4 78 0 discriminator 1
	stw 31,804(30)
	.loc 4 79 0 discriminator 1
	li 4,18
	lwz 0,180(9)
	mtctr 0
.LEHB28:
	bctrl
	.loc 4 80 0 discriminator 1
	lwz 3,816(30)
	li 4,17
	lwz 9,0(3)
	lwz 0,180(9)
	mtctr 0
	bctrl
	.loc 4 81 0 discriminator 1
	lwz 3,804(30)
	li 5,11
	li 4,0
	lwz 9,0(3)
	lwz 0,168(9)
	mtctr 0
	bctrl
	.loc 4 82 0 discriminator 1
	lwz 3,804(30)
	li 4,1
	lwz 9,0(3)
	lwz 0,76(9)
	mtctr 0
	bctrl
	.loc 4 83 0 discriminator 1
	lwz 3,804(30)
	lwz 4,1804(30)
	bl _ZN9GuiButton10SetTriggerEP10GuiTrigger
	.loc 4 84 0 discriminator 1
	lis 9,_ZN11GuiKeyboard13OnPointerHeldEP9GuiButtoniRK6_POINT@ha
	lwz 3,804(30)
	la 0,_ZN11GuiKeyboard13OnPointerHeldEP9GuiButtoniRK6_POINT@l(9)
	addi 5,1,32
	mr 4,30
	addi 3,3,156
	stw 0,32(1)
	li 0,0
	stw 0,36(1)
	bl _ZN7sigslot7signal3IP9GuiButtoniRK6_POINTNS_15single_threadedEE7connectI11GuiKeyboardEEvPT_MSA_FvS2_iS5_E
	.loc 4 85 0 discriminator 1
	lwz 4,804(30)
	mr 3,30
	bl _ZN8GuiFrame6AppendEP10GuiElement
	.loc 4 87 0 discriminator 1
	lwz 3,804(30)
	li 5,0
	li 6,0
	li 4,0
	bl _ZN11TextPointer15PositionChangedEiii
	.loc 4 88 0 discriminator 1
	lwz 3,804(30)
	li 4,39
	bl _ZN11TextPointer18SetPointerPositionEi
	.loc 4 90 0 discriminator 1
	lis 3,.LC26@ha
	la 3,.LC26@l(3)
	bl _ZN9Resources12GetImageDataEPKc
	stw 3,1768(30)
	.loc 4 91 0 discriminator 1
	lis 3,.LC27@ha
	la 3,.LC27@l(3)
	bl _ZN9Resources12GetImageDataEPKc
	stw 3,1772(30)
	.loc 4 92 0 discriminator 1
	lis 3,.LC28@ha
	la 3,.LC28@l(3)
	bl _ZN9Resources12GetImageDataEPKc
	stw 3,1776(30)
	.loc 4 93 0 discriminator 1
	lis 3,.LC29@ha
	la 3,.LC29@l(3)
	bl _ZN9Resources12GetImageDataEPKc
	stw 3,1780(30)
	.loc 4 94 0 discriminator 1
	lis 3,.LC30@ha
	la 3,.LC30@l(3)
	bl _ZN9Resources12GetImageDataEPKc
	stw 3,1784(30)
	.loc 4 95 0 discriminator 1
	lis 3,.LC31@ha
	la 3,.LC31@l(3)
	bl _ZN9Resources12GetImageDataEPKc
	stw 3,1788(30)
	.loc 4 97 0 discriminator 1
	lis 3,.LC32@ha
	la 3,.LC32@l(3)
	bl _ZN9Resources8GetSoundEPKc
	stw 3,1792(30)
	.loc 4 98 0 discriminator 1
	lis 3,.LC33@ha
	la 3,.LC33@l(3)
	bl _ZN9Resources8GetSoundEPKc
	stw 3,1796(30)
	.loc 4 100 0 discriminator 1
	li 3,368
	bl _Znwj
.LEHE28:
	mr 31,3
.LEHB29:
	bl _ZN10GuiTriggerC1Ev
.LEHE29:
	.loc 4 101 0 discriminator 1
	lhz 5,2644(29)
	mr 3,31
	lhz 0,2616(29)
	li 4,-1
	lhz 6,2672(29)
	slwi 5,5,16
	.loc 4 100 0 discriminator 1
	stw 31,1800(30)
	.loc 4 101 0 discriminator 1
	or 5,5,0
.LEHB30:
	bl _ZN10GuiTrigger16SetSimpleTriggerEijt
	.loc 4 103 0 discriminator 1
	li 3,368
	bl _Znwj
.LEHE30:
	mr 31,3
.LEHB31:
	bl _ZN10GuiTriggerC1Ev
.LEHE31:
	.loc 4 104 0 discriminator 1
	lhz 5,2652(29)
	mr 3,31
	lhz 0,2624(29)
	li 4,-1
	lhz 6,2680(29)
	slwi 5,5,16
	.loc 4 103 0 discriminator 1
	stw 31,1808(30)
	.loc 4 104 0 discriminator 1
	or 5,5,0
.LEHB32:
	bl _ZN10GuiTrigger20SetButtonOnlyTriggerEijt
	.loc 4 105 0 discriminator 1
	li 3,368
	bl _Znwj
.LEHE32:
	mr 31,3
.LEHB33:
	bl _ZN10GuiTriggerC1Ev
.LEHE33:
	.loc 4 106 0 discriminator 1
	lhz 5,2654(29)
	li 4,-1
	lhz 0,2626(29)
	mr 3,31
	lhz 6,2682(29)
	slwi 5,5,16
	.loc 4 105 0 discriminator 1
	stw 31,1812(30)
	.loc 4 106 0 discriminator 1
	or 5,5,0
.LEHB34:
	bl _ZN10GuiTrigger20SetButtonOnlyTriggerEijt
	.loc 4 108 0 discriminator 1
	li 3,312
	bl _Znwj
.LEHE34:
	li 4,1
	li 5,1
	mr 31,3
.LEHB35:
	bl _ZN9GuiButtonC1Eii
.LEHE35:
	.loc 4 109 0 discriminator 1
	lwz 4,1796(30)
	mr 3,31
	.loc 4 108 0 discriminator 1
	stw 31,812(30)
	.loc 4 111 0 discriminator 1
	lis 29,_ZN11GuiKeyboard15OnPositionMovedEP9GuiButtoniRK6_POINT@ha
	la 29,_ZN11GuiKeyboard15OnPositionMovedEP9GuiButtoniRK6_POINT@l(29)
.LEHB36:
	.loc 4 109 0 discriminator 1
	bl _ZN9GuiButton13SetSoundClickEP8GuiSound
	.loc 4 110 0 discriminator 1
	lwz 3,812(30)
	lwz 4,1812(30)
	bl _ZN9GuiButton10SetTriggerEP10GuiTrigger
	.loc 4 111 0 discriminator 1
	lwz 3,812(30)
	addi 5,1,32
	li 0,0
	mr 4,30
	addi 3,3,144
	stw 0,36(1)
	stw 29,32(1)
	bl _ZN7sigslot7signal3IP9GuiButtoniRK6_POINTNS_15single_threadedEE7connectI11GuiKeyboardEEvPT_MSA_FvS2_iS5_E
	.loc 4 112 0 discriminator 1
	lwz 4,812(30)
	mr 3,30
	bl _ZN8GuiFrame6AppendEP10GuiElement
	.loc 4 114 0 discriminator 1
	li 3,312
	bl _Znwj
.LEHE36:
	li 4,1
	li 5,1
	mr 31,3
.LEHB37:
	bl _ZN9GuiButtonC1Eii
.LEHE37:
	.loc 4 115 0 discriminator 1
	lwz 4,1796(30)
	mr 3,31
	.loc 4 114 0 discriminator 1
	stw 31,808(30)
.LEHB38:
	.loc 4 115 0 discriminator 1
	bl _ZN9GuiButton13SetSoundClickEP8GuiSound
	.loc 4 116 0 discriminator 1
	lwz 3,808(30)
	lwz 4,1808(30)
	bl _ZN9GuiButton10SetTriggerEP10GuiTrigger
	.loc 4 117 0 discriminator 1
	lwz 3,808(30)
	li 0,0
	addi 5,1,32
	mr 4,30
	addi 3,3,144
	stw 0,36(1)
	stw 29,32(1)
	bl _ZN7sigslot7signal3IP9GuiButtoniRK6_POINTNS_15single_threadedEE7connectI11GuiKeyboardEEvPT_MSA_FvS2_iS5_E
	.loc 4 118 0 discriminator 1
	lwz 4,808(30)
	mr 3,30
	bl _ZN8GuiFrame6AppendEP10GuiElement
	.loc 4 120 0 discriminator 1
	li 3,196
	bl _Znwj
.LEHE38:
	lwz 4,1776(30)
	mr 31,3
.LEHB39:
	bl _ZN8GuiImageC1EP12GuiImageData
.LEHE39:
	stw 31,860(30)
	.loc 4 121 0 discriminator 1
	li 3,196
.LEHB40:
	bl _Znwj
.LEHE40:
	lwz 4,1780(30)
	mr 31,3
.LEHB41:
	bl _ZN8GuiImageC1EP12GuiImageData
.LEHE41:
	stw 31,864(30)
	.loc 4 122 0 discriminator 1
	lis 3,.LC34@ha
	la 3,.LC34@l(3)
	lis 29,.LC35@ha
.LEHB42:
	bl gettext
	la 29,.LC35@l(29)
	mr 27,3
	mr 3,29
	bl getThemeColor
	mr 28,3
	li 3,208
	bl _Znwj
.LEHE42:
	mr 4,27
	li 5,20
	mr 6,24
	mr 31,3
	stw 28,24(1)
.LEHB43:
	bl _ZN7GuiTextC1EPKci9_gx_color
.LEHE43:
	stw 31,856(30)
	.loc 4 123 0 discriminator 1
	li 3,312
	lwz 9,1776(30)
	.loc 4 598 0 discriminator 1
	lwz 27,12(9)
	lwz 28,8(9)
.LEHB44:
	.loc 4 123 0 discriminator 1
	bl _Znwj
.LEHE44:
	mr 4,27
	mr 31,3
	mr 5,28
.LEHB45:
	bl _ZN9GuiButtonC1Eii
.LEHE45:
	.loc 4 124 0 discriminator 1
	lwz 4,860(30)
	mr 3,31
	.loc 4 123 0 discriminator 1
	stw 31,868(30)
	.loc 4 132 0 discriminator 1
	lis 31,_ZN11GuiKeyboard17OnSpecialKeyPressEP9GuiButtoniRK6_POINT@ha
	la 31,_ZN11GuiKeyboard17OnSpecialKeyPressEP9GuiButtoniRK6_POINT@l(31)
.LEHB46:
	.loc 4 124 0 discriminator 1
	bl _ZN9GuiButton8SetImageEP8GuiImage
	.loc 4 125 0 discriminator 1
	lwz 3,868(30)
	lwz 4,864(30)
	bl _ZN9GuiButton12SetImageOverEP8GuiImage
	.loc 4 126 0 discriminator 1
	lwz 3,868(30)
	lwz 4,856(30)
	li 5,0
	bl _ZN9GuiButton8SetLabelEP7GuiTexti
	.loc 4 127 0 discriminator 1
	lwz 3,868(30)
	lwz 4,1792(30)
	bl _ZN9GuiButton12SetSoundOverEP8GuiSound
	.loc 4 128 0 discriminator 1
	lwz 3,868(30)
	lwz 4,1796(30)
	bl _ZN9GuiButton13SetSoundClickEP8GuiSound
	.loc 4 129 0 discriminator 1
	lwz 3,868(30)
	lwz 4,1800(30)
	bl _ZN9GuiButton10SetTriggerEP10GuiTrigger
	.loc 4 130 0 discriminator 1
	lwz 3,868(30)
	li 4,477
	li 5,80
	lwz 9,0(3)
	lwz 0,168(9)
	mtctr 0
	bctrl
	.loc 4 131 0 discriminator 1
	lwz 3,868(30)
	lwz 9,0(3)
	lwz 0,144(9)
	mtctr 0
	bctrl
	.loc 4 132 0 discriminator 1
	lwz 3,868(30)
	li 0,0
	addi 5,1,32
	mr 4,30
	addi 3,3,144
	stw 0,36(1)
	stw 31,32(1)
	bl _ZN7sigslot7signal3IP9GuiButtoniRK6_POINTNS_15single_threadedEE7connectI11GuiKeyboardEEvPT_MSA_FvS2_iS5_E
	.loc 4 133 0 discriminator 1
	lwz 4,868(30)
	mr 3,30
	bl _ZN8GuiFrame6AppendEP10GuiElement
	.loc 4 135 0 discriminator 1
	li 3,196
	bl _Znwj
.LEHE46:
	lwz 4,1776(30)
	mr 28,3
.LEHB47:
	bl _ZN8GuiImageC1EP12GuiImageData
.LEHE47:
	stw 28,828(30)
	.loc 4 136 0 discriminator 1
	li 3,196
.LEHB48:
	bl _Znwj
.LEHE48:
	lwz 4,1780(30)
	mr 28,3
.LEHB49:
	bl _ZN8GuiImageC1EP12GuiImageData
.LEHE49:
	stw 28,832(30)
	.loc 4 137 0 discriminator 1
	lis 3,.LC36@ha
	la 3,.LC36@l(3)
.LEHB50:
	bl gettext
	mr 26,3
	mr 3,29
	bl getThemeColor
	mr 27,3
	li 3,208
	bl _Znwj
.LEHE50:
	mr 4,26
	li 5,20
	mr 6,24
	mr 28,3
	stw 27,24(1)
.LEHB51:
	bl _ZN7GuiTextC1EPKci9_gx_color
.LEHE51:
	stw 28,824(30)
	.loc 4 138 0 discriminator 1
	li 3,312
	lwz 9,1776(30)
	.loc 4 598 0 discriminator 1
	lwz 26,12(9)
	lwz 27,8(9)
.LEHB52:
	.loc 4 138 0 discriminator 1
	bl _Znwj
.LEHE52:
	mr 4,26
	mr 28,3
	mr 5,27
.LEHB53:
	bl _ZN9GuiButtonC1Eii
.LEHE53:
	.loc 4 139 0 discriminator 1
	lwz 4,828(30)
	mr 3,28
	.loc 4 138 0 discriminator 1
	stw 28,836(30)
.LEHB54:
	.loc 4 139 0 discriminator 1
	bl _ZN9GuiButton8SetImageEP8GuiImage
	.loc 4 140 0 discriminator 1
	lwz 3,836(30)
	lwz 4,832(30)
	bl _ZN9GuiButton12SetImageOverEP8GuiImage
	.loc 4 141 0 discriminator 1
	lwz 3,836(30)
	lwz 4,824(30)
	li 5,0
	bl _ZN9GuiButton8SetLabelEP7GuiTexti
	.loc 4 142 0 discriminator 1
	lwz 3,836(30)
	lwz 4,1792(30)
	bl _ZN9GuiButton12SetSoundOverEP8GuiSound
	.loc 4 143 0 discriminator 1
	lwz 3,836(30)
	lwz 4,1796(30)
	bl _ZN9GuiButton13SetSoundClickEP8GuiSound
	.loc 4 144 0 discriminator 1
	lwz 3,836(30)
	lwz 4,1800(30)
	bl _ZN9GuiButton10SetTriggerEP10GuiTrigger
	.loc 4 145 0 discriminator 1
	lwz 3,836(30)
	li 4,-25
	li 5,164
	lwz 9,0(3)
	lwz 0,168(9)
	mtctr 0
	bctrl
	.loc 4 146 0 discriminator 1
	lwz 3,836(30)
	lwz 9,0(3)
	lwz 0,144(9)
	mtctr 0
	bctrl
	.loc 4 147 0 discriminator 1
	lwz 3,836(30)
	li 0,0
	addi 5,1,32
	mr 4,30
	addi 3,3,144
	stw 0,36(1)
	stw 31,32(1)
	bl _ZN7sigslot7signal3IP9GuiButtoniRK6_POINTNS_15single_threadedEE7connectI11GuiKeyboardEEvPT_MSA_FvS2_iS5_E
	.loc 4 148 0 discriminator 1
	lwz 4,836(30)
	mr 3,30
	bl _ZN8GuiFrame6AppendEP10GuiElement
	.loc 4 150 0 discriminator 1
	li 3,196
	bl _Znwj
.LEHE54:
	lwz 4,1776(30)
	mr 28,3
.LEHB55:
	bl _ZN8GuiImageC1EP12GuiImageData
.LEHE55:
	stw 28,844(30)
	.loc 4 151 0 discriminator 1
	li 3,196
.LEHB56:
	bl _Znwj
.LEHE56:
	lwz 4,1780(30)
	mr 28,3
.LEHB57:
	bl _ZN8GuiImageC1EP12GuiImageData
.LEHE57:
	stw 28,848(30)
	.loc 4 152 0 discriminator 1
	lis 3,.LC37@ha
	la 3,.LC37@l(3)
.LEHB58:
	bl gettext
	mr 26,3
	mr 3,29
	bl getThemeColor
	mr 27,3
	li 3,208
	bl _Znwj
.LEHE58:
	mr 4,26
	li 5,20
	mr 6,24
	mr 28,3
	stw 27,24(1)
.LEHB59:
	bl _ZN7GuiTextC1EPKci9_gx_color
.LEHE59:
	stw 28,840(30)
	.loc 4 153 0 discriminator 1
	li 3,312
	lwz 9,1776(30)
	.loc 4 598 0 discriminator 1
	lwz 26,12(9)
	lwz 27,8(9)
.LEHB60:
	.loc 4 153 0 discriminator 1
	bl _Znwj
.LEHE60:
	mr 4,26
	mr 28,3
	mr 5,27
.LEHB61:
	bl _ZN9GuiButtonC1Eii
.LEHE61:
	.loc 4 154 0 discriminator 1
	lwz 4,844(30)
	mr 3,28
	.loc 4 153 0 discriminator 1
	stw 28,852(30)
.LEHB62:
	.loc 4 154 0 discriminator 1
	bl _ZN9GuiButton8SetImageEP8GuiImage
	.loc 4 155 0 discriminator 1
	lwz 3,852(30)
	lwz 4,848(30)
	bl _ZN9GuiButton12SetImageOverEP8GuiImage
	.loc 4 156 0 discriminator 1
	lwz 3,852(30)
	lwz 4,840(30)
	li 5,0
	bl _ZN9GuiButton8SetLabelEP7GuiTexti
	.loc 4 157 0 discriminator 1
	lwz 3,852(30)
	lwz 4,1792(30)
	bl _ZN9GuiButton12SetSoundOverEP8GuiSound
	.loc 4 158 0 discriminator 1
	lwz 3,852(30)
	lwz 4,1796(30)
	bl _ZN9GuiButton13SetSoundClickEP8GuiSound
	.loc 4 159 0 discriminator 1
	lwz 3,852(30)
	lwz 4,1800(30)
	bl _ZN9GuiButton10SetTriggerEP10GuiTrigger
	.loc 4 160 0 discriminator 1
	lwz 3,852(30)
	li 4,-25
	li 5,206
	lwz 9,0(3)
	lwz 0,168(9)
	mtctr 0
	bctrl
	.loc 4 161 0 discriminator 1
	lwz 3,852(30)
	lwz 9,0(3)
	lwz 0,144(9)
	mtctr 0
	bctrl
	.loc 4 162 0 discriminator 1
	lwz 3,852(30)
	li 0,0
	addi 5,1,32
	mr 4,30
	addi 3,3,144
	stw 0,36(1)
	stw 31,32(1)
	bl _ZN7sigslot7signal3IP9GuiButtoniRK6_POINTNS_15single_threadedEE7connectI11GuiKeyboardEEvPT_MSA_FvS2_iS5_E
	.loc 4 163 0 discriminator 1
	lwz 4,852(30)
	mr 3,30
	bl _ZN8GuiFrame6AppendEP10GuiElement
	.loc 4 165 0 discriminator 1
	li 3,196
	bl _Znwj
.LEHE62:
	lwz 4,1776(30)
	mr 28,3
.LEHB63:
	bl _ZN8GuiImageC1EP12GuiImageData
.LEHE63:
	stw 28,920(30)
	.loc 4 166 0 discriminator 1
	li 3,196
.LEHB64:
	bl _Znwj
.LEHE64:
	lwz 4,1780(30)
	mr 28,3
.LEHB65:
	bl _ZN8GuiImageC1EP12GuiImageData
.LEHE65:
	stw 28,924(30)
	.loc 4 167 0 discriminator 1
	lis 3,.LC38@ha
	la 3,.LC38@l(3)
.LEHB66:
	bl gettext
	mr 26,3
	mr 3,29
	bl getThemeColor
	mr 27,3
	li 3,208
	bl _Znwj
.LEHE66:
	mr 4,26
	li 5,20
	mr 6,24
	mr 28,3
	stw 27,24(1)
.LEHB67:
	bl _ZN7GuiTextC1EPKci9_gx_color
.LEHE67:
	stw 28,916(30)
	.loc 4 168 0 discriminator 1
	li 3,312
	lwz 9,1776(30)
	.loc 4 598 0 discriminator 1
	lwz 26,12(9)
	lwz 27,8(9)
.LEHB68:
	.loc 4 168 0 discriminator 1
	bl _Znwj
.LEHE68:
	mr 4,26
	mr 28,3
	mr 5,27
.LEHB69:
	bl _ZN9GuiButtonC1Eii
.LEHE69:
	.loc 4 169 0 discriminator 1
	lwz 4,920(30)
	mr 3,28
	.loc 4 168 0 discriminator 1
	stw 28,928(30)
.LEHB70:
	.loc 4 169 0 discriminator 1
	bl _ZN9GuiButton8SetImageEP8GuiImage
	.loc 4 170 0 discriminator 1
	lwz 3,928(30)
	lwz 4,924(30)
	bl _ZN9GuiButton12SetImageOverEP8GuiImage
	.loc 4 171 0 discriminator 1
	lwz 3,928(30)
	lwz 4,916(30)
	li 5,0
	bl _ZN9GuiButton8SetLabelEP7GuiTexti
	.loc 4 172 0 discriminator 1
	lwz 3,928(30)
	lwz 4,1792(30)
	bl _ZN9GuiButton12SetSoundOverEP8GuiSound
	.loc 4 173 0 discriminator 1
	lwz 3,928(30)
	lwz 4,1796(30)
	bl _ZN9GuiButton13SetSoundClickEP8GuiSound
	.loc 4 174 0 discriminator 1
	lwz 3,928(30)
	lwz 4,1800(30)
	bl _ZN9GuiButton10SetTriggerEP10GuiTrigger
	.loc 4 175 0 discriminator 1
	lwz 3,928(30)
	li 4,-25
	li 5,248
	lwz 9,0(3)
	lwz 0,168(9)
	mtctr 0
	bctrl
	.loc 4 176 0 discriminator 1
	lwz 3,928(30)
	lwz 9,0(3)
	lwz 0,144(9)
	mtctr 0
	bctrl
	.loc 4 177 0 discriminator 1
	lwz 3,928(30)
	addi 5,1,32
	li 0,0
	mr 4,30
	addi 3,3,144
	stw 0,36(1)
	stw 31,32(1)
	bl _ZN7sigslot7signal3IP9GuiButtoniRK6_POINTNS_15single_threadedEE7connectI11GuiKeyboardEEvPT_MSA_FvS2_iS5_E
	.loc 4 178 0 discriminator 1
	lwz 4,928(30)
	mr 3,30
	bl _ZN8GuiFrame6AppendEP10GuiElement
	.loc 4 180 0 discriminator 1
	lis 3,.LC39@ha
	la 3,.LC39@l(3)
	bl gettext
	mr 26,3
	mr 3,29
	bl getThemeColor
	mr 27,3
	li 3,208
	bl _Znwj
.LEHE70:
	mr 4,26
	li 5,18
	mr 6,24
	mr 28,3
	stw 27,24(1)
.LEHB71:
	bl _ZN7GuiTextC1EPKci9_gx_color
.LEHE71:
	stw 28,884(30)
	.loc 4 181 0 discriminator 1
	li 3,196
.LEHB72:
	bl _Znwj
.LEHE72:
	lwz 4,1776(30)
	mr 28,3
.LEHB73:
	bl _ZN8GuiImageC1EP12GuiImageData
.LEHE73:
	stw 28,888(30)
	.loc 4 182 0 discriminator 1
	li 3,196
.LEHB74:
	bl _Znwj
.LEHE74:
	lwz 4,1780(30)
	mr 28,3
.LEHB75:
	bl _ZN8GuiImageC1EP12GuiImageData
.LEHE75:
	stw 28,892(30)
	.loc 4 183 0 discriminator 1
	li 3,312
	lwz 9,1776(30)
	.loc 4 598 0 discriminator 1
	lwz 26,12(9)
	lwz 27,8(9)
.LEHB76:
	.loc 4 183 0 discriminator 1
	bl _Znwj
.LEHE76:
	mr 4,26
	mr 28,3
	mr 5,27
.LEHB77:
	bl _ZN9GuiButtonC1Eii
.LEHE77:
	.loc 4 184 0 discriminator 1
	lwz 4,888(30)
	mr 3,28
	.loc 4 183 0 discriminator 1
	stw 28,896(30)
.LEHB78:
	.loc 4 184 0 discriminator 1
	bl _ZN9GuiButton8SetImageEP8GuiImage
	.loc 4 185 0 discriminator 1
	lwz 3,896(30)
	lwz 4,892(30)
	bl _ZN9GuiButton12SetImageOverEP8GuiImage
	.loc 4 186 0 discriminator 1
	lwz 3,896(30)
	lwz 4,1792(30)
	bl _ZN9GuiButton12SetSoundOverEP8GuiSound
	.loc 4 187 0 discriminator 1
	lwz 3,896(30)
	lwz 4,1796(30)
	bl _ZN9GuiButton13SetSoundClickEP8GuiSound
	.loc 4 188 0 discriminator 1
	lwz 3,896(30)
	lwz 4,884(30)
	li 5,0
	bl _ZN9GuiButton8SetLabelEP7GuiTexti
	.loc 4 189 0 discriminator 1
	lwz 3,896(30)
	lwz 4,1800(30)
	bl _ZN9GuiButton10SetTriggerEP10GuiTrigger
	.loc 4 190 0 discriminator 1
	lwz 3,896(30)
	li 4,393
	li 5,248
	lwz 9,0(3)
	lwz 0,168(9)
	mtctr 0
	bctrl
	.loc 4 191 0 discriminator 1
	lwz 3,896(30)
	lwz 9,0(3)
	lwz 0,144(9)
	mtctr 0
	bctrl
	.loc 4 192 0 discriminator 1
	lwz 3,896(30)
	addi 5,1,32
	li 0,0
	mr 4,30
	addi 3,3,144
	stw 0,36(1)
	stw 31,32(1)
	bl _ZN7sigslot7signal3IP9GuiButtoniRK6_POINTNS_15single_threadedEE7connectI11GuiKeyboardEEvPT_MSA_FvS2_iS5_E
	.loc 4 193 0 discriminator 1
	lwz 4,896(30)
	mr 3,30
	bl _ZN8GuiFrame6AppendEP10GuiElement
	.loc 4 195 0 discriminator 1
	lis 3,.LC40@ha
	la 3,.LC40@l(3)
	bl gettext
	mr 27,3
	mr 3,29
	bl getThemeColor
	mr 28,3
	li 3,208
	bl _Znwj
.LEHE78:
	mr 4,27
	li 5,20
	mr 6,24
	mr 29,3
	stw 28,24(1)
.LEHB79:
	bl _ZN7GuiTextC1EPKci9_gx_color
.LEHE79:
	stw 29,900(30)
	.loc 4 196 0 discriminator 1
	li 3,196
.LEHB80:
	bl _Znwj
.LEHE80:
	lwz 4,1776(30)
	mr 29,3
.LEHB81:
	bl _ZN8GuiImageC1EP12GuiImageData
.LEHE81:
	stw 29,904(30)
	.loc 4 197 0 discriminator 1
	li 3,196
.LEHB82:
	bl _Znwj
.LEHE82:
	lwz 4,1780(30)
	mr 29,3
.LEHB83:
	bl _ZN8GuiImageC1EP12GuiImageData
.LEHE83:
	stw 29,908(30)
	.loc 4 198 0 discriminator 1
	li 3,312
	lwz 9,1776(30)
	.loc 4 598 0 discriminator 1
	lwz 27,12(9)
	lwz 28,8(9)
.LEHB84:
	.loc 4 198 0 discriminator 1
	bl _Znwj
.LEHE84:
	mr 4,27
	mr 29,3
	mr 5,28
.LEHB85:
	bl _ZN9GuiButtonC1Eii
.LEHE85:
	.loc 4 199 0 discriminator 1
	lwz 4,904(30)
	mr 3,29
	.loc 4 198 0 discriminator 1
	stw 29,912(30)
.LEHB86:
	.loc 4 199 0 discriminator 1
	bl _ZN9GuiButton8SetImageEP8GuiImage
	.loc 4 200 0 discriminator 1
	lwz 3,912(30)
	lwz 4,908(30)
	bl _ZN9GuiButton12SetImageOverEP8GuiImage
	.loc 4 201 0 discriminator 1
	lwz 3,912(30)
	lwz 4,1792(30)
	bl _ZN9GuiButton12SetSoundOverEP8GuiSound
	.loc 4 202 0 discriminator 1
	lwz 3,912(30)
	lwz 4,1796(30)
	bl _ZN9GuiButton13SetSoundClickEP8GuiSound
	.loc 4 203 0 discriminator 1
	lwz 3,912(30)
	lwz 4,900(30)
	li 5,0
	bl _ZN9GuiButton8SetLabelEP7GuiTexti
	.loc 4 204 0 discriminator 1
	lwz 3,912(30)
	lwz 4,1800(30)
	bl _ZN9GuiButton10SetTriggerEP10GuiTrigger
	.loc 4 205 0 discriminator 1
	lwz 3,912(30)
	li 4,477
	li 5,248
	lwz 9,0(3)
	lwz 0,168(9)
	mtctr 0
	bctrl
	.loc 4 206 0 discriminator 1
	lwz 3,912(30)
	lwz 9,0(3)
	lwz 0,144(9)
	mtctr 0
	bctrl
	.loc 4 207 0 discriminator 1
	lwz 3,912(30)
	li 0,0
	addi 5,1,32
	mr 4,30
	addi 3,3,144
	stw 0,36(1)
	stw 31,32(1)
	bl _ZN7sigslot7signal3IP9GuiButtoniRK6_POINTNS_15single_threadedEE7connectI11GuiKeyboardEEvPT_MSA_FvS2_iS5_E
	.loc 4 208 0 discriminator 1
	lwz 4,912(30)
	mr 3,30
	bl _ZN8GuiFrame6AppendEP10GuiElement
	.loc 4 210 0 discriminator 1
	li 3,196
	bl _Znwj
.LEHE86:
	lwz 4,1784(30)
	mr 29,3
.LEHB87:
	bl _ZN8GuiImageC1EP12GuiImageData
.LEHE87:
	stw 29,872(30)
	.loc 4 211 0 discriminator 1
	li 3,196
.LEHB88:
	bl _Znwj
.LEHE88:
	lwz 4,1788(30)
	mr 29,3
.LEHB89:
	bl _ZN8GuiImageC1EP12GuiImageData
.LEHE89:
	stw 29,876(30)
	.loc 4 212 0 discriminator 1
	li 3,312
	lwz 9,1784(30)
	.loc 4 598 0 discriminator 1
	lwz 27,12(9)
	lwz 28,8(9)
.LEHB90:
	.loc 4 212 0 discriminator 1
	bl _Znwj
.LEHE90:
	mr 4,27
	mr 29,3
	mr 5,28
.LEHB91:
	bl _ZN9GuiButtonC1Eii
.LEHE91:
	.loc 4 213 0 discriminator 1
	lwz 4,872(30)
	mr 3,29
	.loc 4 212 0 discriminator 1
	stw 29,880(30)
	.loc 4 221 0 discriminator 1
	li 29,0
.LBB3880:
.LBB3881:
	.loc 4 236 0 discriminator 1
	lis 20,.LC41@ha
	.loc 4 252 0 discriminator 1
	lis 19,_ZN11GuiKeyboard16OnNormalKeyPressEP9GuiButtoniRK6_POINT@ha
.LEHB92:
.LBE3881:
.LBE3880:
	.loc 4 213 0 discriminator 1
	bl _ZN9GuiButton8SetImageEP8GuiImage
	.loc 4 214 0 discriminator 1
	lwz 3,880(30)
	lwz 4,876(30)
	.loc 4 225 0 discriminator 1
	li 23,80
	li 22,40
	li 28,0
	.loc 4 214 0 discriminator 1
	bl _ZN9GuiButton12SetImageOverEP8GuiImage
	.loc 4 215 0 discriminator 1
	lwz 3,880(30)
	lwz 4,1792(30)
	.loc 4 227 0 discriminator 1
	li 26,0
	.loc 4 224 0 discriminator 1
	li 25,0
.LBB3887:
.LBB3876:
.LBB3872:
	.loc 4 33 0 discriminator 1
	li 21,0
.LBE3872:
.LBE3876:
.LBE3887:
	.loc 4 215 0 discriminator 1
	bl _ZN9GuiButton12SetSoundOverEP8GuiSound
	.loc 4 216 0 discriminator 1
	lwz 3,880(30)
	lwz 4,1796(30)
.LBB3888:
.LBB3882:
	.loc 4 236 0 discriminator 1
	la 20,.LC41@l(20)
	.loc 4 252 0 discriminator 1
	la 19,_ZN11GuiKeyboard16OnNormalKeyPressEP9GuiButtoniRK6_POINT@l(19)
.LBE3882:
.LBE3888:
	.loc 4 216 0 discriminator 1
	bl _ZN9GuiButton13SetSoundClickEP8GuiSound
	.loc 4 217 0 discriminator 1
	lwz 3,880(30)
	lwz 4,1800(30)
	bl _ZN9GuiButton10SetTriggerEP10GuiTrigger
	.loc 4 218 0 discriminator 1
	lwz 3,880(30)
	li 5,248
	li 4,0
	lwz 9,0(3)
	lwz 0,168(9)
	mtctr 0
	bctrl
	.loc 4 219 0 discriminator 1
	lwz 3,880(30)
	li 4,18
	lwz 9,0(3)
	lwz 0,180(9)
	mtctr 0
	bctrl
	.loc 4 220 0 discriminator 1
	lwz 3,880(30)
	lwz 9,0(3)
	lwz 0,144(9)
	mtctr 0
	bctrl
	.loc 4 221 0 discriminator 1
	lwz 3,880(30)
	mr 4,30
	addi 5,1,32
	addi 3,3,144
	stw 31,32(1)
	stw 29,36(1)
	bl _ZN7sigslot7signal3IP9GuiButtoniRK6_POINTNS_15single_threadedEE7connectI11GuiKeyboardEEvPT_MSA_FvS2_iS5_E
	.loc 4 222 0 discriminator 1
	lwz 4,880(30)
	mr 3,30
	bl _ZN8GuiFrame6AppendEP10GuiElement
.LVL611:
	.loc 4 225 0 discriminator 1
	stw 29,8(1)
	stw 29,12(1)
.LVL612:
.L657:
.LBB3889:
.LBB3883:
	.loc 4 33 0 discriminator 1
	mulli 31,26,52
.LBE3883:
.LBE3889:
.LBB3890:
.LBB3877:
.LBB3873:
	li 29,0
.LBE3873:
.LBE3877:
.LBE3890:
.LBB3891:
.LBB3884:
	add 31,30,31
	addi 31,31,932
	b .L660
.LVL613:
.L658:
	.loc 4 229 0
	cmpwi 7,29,504
	.loc 4 253 0
	addi 31,31,4
	.loc 4 229 0
	addi 29,29,42
	beq- 7,.L751
.L660:
	.loc 4 33 0
	add 9,31,28
	.loc 4 231 0
	lwz 0,-552(9)
	cmpwi 7,0,0
	beq+ 7,.L658
	.loc 4 234 0
	li 3,196
	.loc 4 233 0
	stw 0,8(1)
	.loc 4 234 0
	bl _Znwj
.LEHE92:
	lwz 4,1768(30)
	mr 27,3
.LEHB93:
	bl _ZN8GuiImageC1EP12GuiImageData
.LEHE93:
	.loc 4 234 0 is_stmt 0 discriminator 1
	stw 27,208(31)
	.loc 4 235 0 is_stmt 1 discriminator 1
	li 3,196
.LEHB94:
	bl _Znwj
.LEHE94:
	lwz 4,1772(30)
	mr 27,3
.LEHB95:
	bl _ZN8GuiImageC1EP12GuiImageData
.LEHE95:
	stw 27,416(31)
	.loc 4 236 0 discriminator 1
	mr 3,20
.LEHB96:
	bl getThemeColor
	mr 18,3
	li 3,208
	bl _Znwj
.LEHE96:
	addi 4,1,8
	li 5,20
	mr 6,24
	mr 27,3
	stw 18,24(1)
.LEHB97:
	bl _ZN7GuiTextC1EPKwi9_gx_color
.LEHE97:
	stw 27,624(31)
	.loc 4 237 0 discriminator 1
	mr 3,27
	li 4,66
	lwz 9,0(27)
	lwz 0,180(9)
	mtctr 0
.LEHB98:
	bctrl
	.loc 4 238 0 discriminator 1
	lwz 3,624(31)
	li 4,0
	li 5,-10
	lwz 9,0(3)
	lwz 0,168(9)
	mtctr 0
	bctrl
	.loc 4 239 0 discriminator 1
	lwz 9,1768(30)
	li 3,312
	.loc 4 598 0 discriminator 1
	lwz 17,12(9)
	lwz 18,8(9)
	.loc 4 239 0 discriminator 1
	bl _Znwj
.LEHE98:
	mr 4,17
	mr 27,3
	mr 5,18
.LEHB99:
	bl _ZN9GuiButtonC1Eii
.LEHE99:
	.loc 4 240 0 discriminator 1
	lwz 4,208(31)
	mr 3,27
	.loc 4 239 0 discriminator 1
	stw 27,0(31)
.LEHB100:
	.loc 4 240 0 discriminator 1
	bl _ZN9GuiButton8SetImageEP8GuiImage
	.loc 4 241 0 discriminator 1
	lwz 3,0(31)
	lwz 4,416(31)
	bl _ZN9GuiButton12SetImageOverEP8GuiImage
	.loc 4 242 0 discriminator 1
	lwz 3,0(31)
	lwz 4,1792(30)
	bl _ZN9GuiButton12SetSoundOverEP8GuiSound
	.loc 4 243 0 discriminator 1
	lwz 3,0(31)
	lwz 4,1796(30)
	bl _ZN9GuiButton13SetSoundClickEP8GuiSound
	.loc 4 244 0 discriminator 1
	lwz 3,0(31)
	lwz 4,1800(30)
	bl _ZN9GuiButton10SetTriggerEP10GuiTrigger
	.loc 4 245 0 discriminator 1
	lwz 3,0(31)
	lwz 4,624(31)
	li 5,0
	bl _ZN9GuiButton8SetLabelEP7GuiTexti
	.loc 4 246 0 discriminator 1
	cmpwi 7,26,1
	beq- 7,.L703
	.loc 4 248 0
	cmpwi 7,26,0
	beq- 7,.L659
	.loc 4 249 0
	mr 25,22
.LVL614:
.L659:
	.loc 4 250 0
	lwz 3,0(31)
	add 4,29,25
	addi 4,4,-25
	mr 5,23
	lwz 9,0(3)
	lwz 0,168(9)
	mtctr 0
	bctrl
	.loc 4 251 0
	lwz 3,0(31)
	lwz 9,0(3)
	lwz 0,144(9)
	mtctr 0
	bctrl
	.loc 4 252 0
	lwz 3,0(31)
	mr 4,30
	addi 5,1,32
	addi 3,3,144
	stw 19,32(1)
	stw 21,36(1)
	bl _ZN7sigslot7signal3IP9GuiButtoniRK6_POINTNS_15single_threadedEE7connectI11GuiKeyboardEEvPT_MSA_FvS2_iS5_E
	.loc 4 253 0
	lwz 4,0(31)
	mr 3,30
	addi 31,31,4
	bl _ZN8GuiFrame6AppendEP10GuiElement
	.loc 4 229 0
	cmpwi 7,29,504
	addi 29,29,42
	bne+ 7,.L660
.L751:
.LVL615:
.LBE3884:
	.loc 4 227 0
	cmpwi 7,26,3
	addi 28,28,52
	addi 22,22,20
	addi 23,23,42
	addi 26,26,1
.LVL616:
	bne+ 7,.L657
.LBE3891:
.LBE3899:
	.loc 4 257 0
	lwz 0,108(1)
	lwz 17,44(1)
	mtlr 0
	lwz 18,48(1)
	lwz 19,52(1)
	lwz 20,56(1)
	lwz 21,60(1)
	lwz 22,64(1)
	lwz 23,68(1)
	lwz 24,72(1)
	lwz 25,76(1)
.LVL617:
	lwz 26,80(1)
.LVL618:
	lwz 27,84(1)
	lwz 28,88(1)
	lwz 29,92(1)
	lwz 30,96(1)
.LVL619:
	lwz 31,100(1)
	addi 1,1,104
	.cfi_remember_state
.LCFI98:
	.cfi_def_cfa_offset 0
	.cfi_restore 31
	.cfi_restore 30
	.cfi_restore 29
	.cfi_restore 28
	.cfi_restore 27
	.cfi_restore 26
	.cfi_restore 25
	.cfi_restore 24
	.cfi_restore 23
	.cfi_restore 22
	.cfi_restore 21
	.cfi_restore 20
	.cfi_restore 19
	.cfi_restore 18
	.cfi_restore 17
	blr
.LVL620:
.L703:
.LCFI99:
	.cfi_restore_state
.LBB3900:
.LBB3892:
.LBB3885:
	.loc 4 247 0
	li 25,20
.LVL621:
	b .L659
.LVL622:
.L750:
.LBE3885:
.LBE3892:
.LBB3893:
.LBB3878:
.LBB3874:
.LBB3856:
.LBB3857:
	.loc 5 911 0
	cmplw 7,23,24
	bge- 7,.L655
.LBB3858:
.LBB3859:
	.loc 5 311 0
	lwz 0,-4(25)
.LBE3859:
.LBE3858:
	.loc 4 33 0
	mr 27,31
	subf 24,23,24
.LVL623:
	mr 9,25
.LBB3863:
.LBB3860:
	.loc 5 311 0
	cmpwi 7,0,0
.LBE3860:
.LBE3863:
	.loc 4 33 0
	mr 26,23
.LVL624:
.LBB3864:
.LBB3861:
	.loc 5 311 0
	blt- 7,.L654
.LVL625:
.L752:
	.loc 5 312 0
	mr 3,31
	bl _ZNSbIwSt11char_traitsIwESaIwEE12_M_leak_hardEv
	lwz 9,212(30)
.L654:
.LVL626:
.LBE3861:
.LBE3864:
.LBE3857:
.LBE3856:
	.loc 4 589 0
	cmpwi 7,28,39
	.loc 4 591 0
	slwi 26,26,2
.LVL627:
	lwzx 0,9,26
	.loc 4 589 0
	addi 28,28,1
.LVL628:
	.loc 4 591 0
	stwu 0,4(27)
	.loc 4 589 0
	beq- 7,.L652
	cmpw 7,28,24
	beq- 7,.L652
.LBB3869:
.LBB3866:
	.loc 5 911 0
	lwz 0,-12(9)
.LBE3866:
.LBE3869:
	.loc 4 33 0
	add 26,23,28
.LVL629:
.LBB3870:
.LBB3867:
	.loc 5 911 0
	cmplw 7,26,0
	bge- 7,.L655
	mr 25,9
.LBB3865:
.LBB3862:
	.loc 5 311 0
	lwz 0,-4(25)
	cmpwi 7,0,0
	bge+ 7,.L752
	b .L654
.LVL630:
.L749:
.LBE3862:
.LBE3865:
.LBE3867:
.LBE3870:
.LBE3874:
.LBE3878:
.LBE3893:
	.loc 4 51 0
	stw 27,208(30)
	b .L650
.LVL631:
.L655:
.LBB3894:
.LBB3879:
.LBB3875:
.LBB3871:
.LBB3868:
	.loc 5 912 0
	lis 3,.LC4@ha
	la 3,.LC4@l(3)
	bl _ZSt20__throw_out_of_rangePKc
.LVL632:
.L730:
.L746:
	mr 31,3
.LBE3868:
.LBE3871:
.LBE3875:
.LBE3879:
.LBE3894:
	.loc 4 135 0
	mr 3,28
	bl _ZdlPv
	mr 3,31
	bl _Unwind_Resume
.LVL633:
.L729:
	b .L746
.L728:
	b .L746
.L727:
	b .L746
.L726:
	b .L746
.L725:
	b .L746
.L724:
	b .L746
.L723:
	b .L746
.L722:
	b .L746
.L721:
	b .L746
.L720:
	b .L746
.L719:
	b .L746
.L718:
	b .L746
.L717:
	b .L746
.L716:
.L748:
	mr 30,3
.LVL634:
	.loc 4 78 0
	mr 3,31
	bl _ZdlPv
	mr 3,30
	bl _Unwind_Resume
.LVL635:
.L715:
	b .L748
.L738:
.LVL636:
.L745:
	mr 31,3
	.loc 4 195 0
	mr 3,29
	bl _ZdlPv
	mr 3,31
	bl _Unwind_Resume
.LVL637:
.L737:
	b .L745
.L736:
	b .L745
.L735:
	b .L745
.L734:
	b .L745
.L733:
	b .L745
.L732:
	b .L746
.L731:
	b .L746
.LVL638:
.L742:
.L747:
	mr 31,3
.LBB3895:
.LBB3886:
	.loc 4 239 0
	mr 3,27
	bl _ZdlPv
	mr 3,31
	bl _Unwind_Resume
.LEHE100:
.L741:
	b .L747
.L740:
	b .L747
.LVL639:
.L739:
	b .L745
.LVL640:
.L704:
	b .L745
.LVL641:
.L743:
	b .L747
.LVL642:
.L705:
	b .L746
.LVL643:
.L706:
	b .L748
.L714:
	b .L748
.L713:
	b .L748
.L712:
	b .L748
.L711:
	b .L748
.L710:
	b .L748
.L709:
	b .L748
.L708:
	b .L748
.L707:
	b .L748
.LBE3886:
.LBE3895:
.LBE3900:
	.cfi_endproc
.LFE1576:
	.section	.gcc_except_table
.LLSDA1576:
	.byte	0xff
	.byte	0xff
	.byte	0x1
	.uleb128 .LLSDACSE1576-.LLSDACSB1576
.LLSDACSB1576:
	.uleb128 .LEHB20-.LFB1576
	.uleb128 .LEHE20-.LEHB20
	.uleb128 0
	.uleb128 0
	.uleb128 .LEHB21-.LFB1576
	.uleb128 .LEHE21-.LEHB21
	.uleb128 .L704-.LFB1576
	.uleb128 0
	.uleb128 .LEHB22-.LFB1576
	.uleb128 .LEHE22-.LEHB22
	.uleb128 0
	.uleb128 0
	.uleb128 .LEHB23-.LFB1576
	.uleb128 .LEHE23-.LEHB23
	.uleb128 .L705-.LFB1576
	.uleb128 0
	.uleb128 .LEHB24-.LFB1576
	.uleb128 .LEHE24-.LEHB24
	.uleb128 0
	.uleb128 0
	.uleb128 .LEHB25-.LFB1576
	.uleb128 .LEHE25-.LEHB25
	.uleb128 .L706-.LFB1576
	.uleb128 0
	.uleb128 .LEHB26-.LFB1576
	.uleb128 .LEHE26-.LEHB26
	.uleb128 0
	.uleb128 0
	.uleb128 .LEHB27-.LFB1576
	.uleb128 .LEHE27-.LEHB27
	.uleb128 .L707-.LFB1576
	.uleb128 0
	.uleb128 .LEHB28-.LFB1576
	.uleb128 .LEHE28-.LEHB28
	.uleb128 0
	.uleb128 0
	.uleb128 .LEHB29-.LFB1576
	.uleb128 .LEHE29-.LEHB29
	.uleb128 .L708-.LFB1576
	.uleb128 0
	.uleb128 .LEHB30-.LFB1576
	.uleb128 .LEHE30-.LEHB30
	.uleb128 0
	.uleb128 0
	.uleb128 .LEHB31-.LFB1576
	.uleb128 .LEHE31-.LEHB31
	.uleb128 .L709-.LFB1576
	.uleb128 0
	.uleb128 .LEHB32-.LFB1576
	.uleb128 .LEHE32-.LEHB32
	.uleb128 0
	.uleb128 0
	.uleb128 .LEHB33-.LFB1576
	.uleb128 .LEHE33-.LEHB33
	.uleb128 .L710-.LFB1576
	.uleb128 0
	.uleb128 .LEHB34-.LFB1576
	.uleb128 .LEHE34-.LEHB34
	.uleb128 0
	.uleb128 0
	.uleb128 .LEHB35-.LFB1576
	.uleb128 .LEHE35-.LEHB35
	.uleb128 .L711-.LFB1576
	.uleb128 0
	.uleb128 .LEHB36-.LFB1576
	.uleb128 .LEHE36-.LEHB36
	.uleb128 0
	.uleb128 0
	.uleb128 .LEHB37-.LFB1576
	.uleb128 .LEHE37-.LEHB37
	.uleb128 .L712-.LFB1576
	.uleb128 0
	.uleb128 .LEHB38-.LFB1576
	.uleb128 .LEHE38-.LEHB38
	.uleb128 0
	.uleb128 0
	.uleb128 .LEHB39-.LFB1576
	.uleb128 .LEHE39-.LEHB39
	.uleb128 .L713-.LFB1576
	.uleb128 0
	.uleb128 .LEHB40-.LFB1576
	.uleb128 .LEHE40-.LEHB40
	.uleb128 0
	.uleb128 0
	.uleb128 .LEHB41-.LFB1576
	.uleb128 .LEHE41-.LEHB41
	.uleb128 .L714-.LFB1576
	.uleb128 0
	.uleb128 .LEHB42-.LFB1576
	.uleb128 .LEHE42-.LEHB42
	.uleb128 0
	.uleb128 0
	.uleb128 .LEHB43-.LFB1576
	.uleb128 .LEHE43-.LEHB43
	.uleb128 .L715-.LFB1576
	.uleb128 0
	.uleb128 .LEHB44-.LFB1576
	.uleb128 .LEHE44-.LEHB44
	.uleb128 0
	.uleb128 0
	.uleb128 .LEHB45-.LFB1576
	.uleb128 .LEHE45-.LEHB45
	.uleb128 .L716-.LFB1576
	.uleb128 0
	.uleb128 .LEHB46-.LFB1576
	.uleb128 .LEHE46-.LEHB46
	.uleb128 0
	.uleb128 0
	.uleb128 .LEHB47-.LFB1576
	.uleb128 .LEHE47-.LEHB47
	.uleb128 .L717-.LFB1576
	.uleb128 0
	.uleb128 .LEHB48-.LFB1576
	.uleb128 .LEHE48-.LEHB48
	.uleb128 0
	.uleb128 0
	.uleb128 .LEHB49-.LFB1576
	.uleb128 .LEHE49-.LEHB49
	.uleb128 .L718-.LFB1576
	.uleb128 0
	.uleb128 .LEHB50-.LFB1576
	.uleb128 .LEHE50-.LEHB50
	.uleb128 0
	.uleb128 0
	.uleb128 .LEHB51-.LFB1576
	.uleb128 .LEHE51-.LEHB51
	.uleb128 .L719-.LFB1576
	.uleb128 0
	.uleb128 .LEHB52-.LFB1576
	.uleb128 .LEHE52-.LEHB52
	.uleb128 0
	.uleb128 0
	.uleb128 .LEHB53-.LFB1576
	.uleb128 .LEHE53-.LEHB53
	.uleb128 .L720-.LFB1576
	.uleb128 0
	.uleb128 .LEHB54-.LFB1576
	.uleb128 .LEHE54-.LEHB54
	.uleb128 0
	.uleb128 0
	.uleb128 .LEHB55-.LFB1576
	.uleb128 .LEHE55-.LEHB55
	.uleb128 .L721-.LFB1576
	.uleb128 0
	.uleb128 .LEHB56-.LFB1576
	.uleb128 .LEHE56-.LEHB56
	.uleb128 0
	.uleb128 0
	.uleb128 .LEHB57-.LFB1576
	.uleb128 .LEHE57-.LEHB57
	.uleb128 .L722-.LFB1576
	.uleb128 0
	.uleb128 .LEHB58-.LFB1576
	.uleb128 .LEHE58-.LEHB58
	.uleb128 0
	.uleb128 0
	.uleb128 .LEHB59-.LFB1576
	.uleb128 .LEHE59-.LEHB59
	.uleb128 .L723-.LFB1576
	.uleb128 0
	.uleb128 .LEHB60-.LFB1576
	.uleb128 .LEHE60-.LEHB60
	.uleb128 0
	.uleb128 0
	.uleb128 .LEHB61-.LFB1576
	.uleb128 .LEHE61-.LEHB61
	.uleb128 .L724-.LFB1576
	.uleb128 0
	.uleb128 .LEHB62-.LFB1576
	.uleb128 .LEHE62-.LEHB62
	.uleb128 0
	.uleb128 0
	.uleb128 .LEHB63-.LFB1576
	.uleb128 .LEHE63-.LEHB63
	.uleb128 .L725-.LFB1576
	.uleb128 0
	.uleb128 .LEHB64-.LFB1576
	.uleb128 .LEHE64-.LEHB64
	.uleb128 0
	.uleb128 0
	.uleb128 .LEHB65-.LFB1576
	.uleb128 .LEHE65-.LEHB65
	.uleb128 .L726-.LFB1576
	.uleb128 0
	.uleb128 .LEHB66-.LFB1576
	.uleb128 .LEHE66-.LEHB66
	.uleb128 0
	.uleb128 0
	.uleb128 .LEHB67-.LFB1576
	.uleb128 .LEHE67-.LEHB67
	.uleb128 .L727-.LFB1576
	.uleb128 0
	.uleb128 .LEHB68-.LFB1576
	.uleb128 .LEHE68-.LEHB68
	.uleb128 0
	.uleb128 0
	.uleb128 .LEHB69-.LFB1576
	.uleb128 .LEHE69-.LEHB69
	.uleb128 .L728-.LFB1576
	.uleb128 0
	.uleb128 .LEHB70-.LFB1576
	.uleb128 .LEHE70-.LEHB70
	.uleb128 0
	.uleb128 0
	.uleb128 .LEHB71-.LFB1576
	.uleb128 .LEHE71-.LEHB71
	.uleb128 .L729-.LFB1576
	.uleb128 0
	.uleb128 .LEHB72-.LFB1576
	.uleb128 .LEHE72-.LEHB72
	.uleb128 0
	.uleb128 0
	.uleb128 .LEHB73-.LFB1576
	.uleb128 .LEHE73-.LEHB73
	.uleb128 .L730-.LFB1576
	.uleb128 0
	.uleb128 .LEHB74-.LFB1576
	.uleb128 .LEHE74-.LEHB74
	.uleb128 0
	.uleb128 0
	.uleb128 .LEHB75-.LFB1576
	.uleb128 .LEHE75-.LEHB75
	.uleb128 .L731-.LFB1576
	.uleb128 0
	.uleb128 .LEHB76-.LFB1576
	.uleb128 .LEHE76-.LEHB76
	.uleb128 0
	.uleb128 0
	.uleb128 .LEHB77-.LFB1576
	.uleb128 .LEHE77-.LEHB77
	.uleb128 .L732-.LFB1576
	.uleb128 0
	.uleb128 .LEHB78-.LFB1576
	.uleb128 .LEHE78-.LEHB78
	.uleb128 0
	.uleb128 0
	.uleb128 .LEHB79-.LFB1576
	.uleb128 .LEHE79-.LEHB79
	.uleb128 .L733-.LFB1576
	.uleb128 0
	.uleb128 .LEHB80-.LFB1576
	.uleb128 .LEHE80-.LEHB80
	.uleb128 0
	.uleb128 0
	.uleb128 .LEHB81-.LFB1576
	.uleb128 .LEHE81-.LEHB81
	.uleb128 .L734-.LFB1576
	.uleb128 0
	.uleb128 .LEHB82-.LFB1576
	.uleb128 .LEHE82-.LEHB82
	.uleb128 0
	.uleb128 0
	.uleb128 .LEHB83-.LFB1576
	.uleb128 .LEHE83-.LEHB83
	.uleb128 .L735-.LFB1576
	.uleb128 0
	.uleb128 .LEHB84-.LFB1576
	.uleb128 .LEHE84-.LEHB84
	.uleb128 0
	.uleb128 0
	.uleb128 .LEHB85-.LFB1576
	.uleb128 .LEHE85-.LEHB85
	.uleb128 .L736-.LFB1576
	.uleb128 0
	.uleb128 .LEHB86-.LFB1576
	.uleb128 .LEHE86-.LEHB86
	.uleb128 0
	.uleb128 0
	.uleb128 .LEHB87-.LFB1576
	.uleb128 .LEHE87-.LEHB87
	.uleb128 .L737-.LFB1576
	.uleb128 0
	.uleb128 .LEHB88-.LFB1576
	.uleb128 .LEHE88-.LEHB88
	.uleb128 0
	.uleb128 0
	.uleb128 .LEHB89-.LFB1576
	.uleb128 .LEHE89-.LEHB89
	.uleb128 .L738-.LFB1576
	.uleb128 0
	.uleb128 .LEHB90-.LFB1576
	.uleb128 .LEHE90-.LEHB90
	.uleb128 0
	.uleb128 0
	.uleb128 .LEHB91-.LFB1576
	.uleb128 .LEHE91-.LEHB91
	.uleb128 .L739-.LFB1576
	.uleb128 0
	.uleb128 .LEHB92-.LFB1576
	.uleb128 .LEHE92-.LEHB92
	.uleb128 0
	.uleb128 0
	.uleb128 .LEHB93-.LFB1576
	.uleb128 .LEHE93-.LEHB93
	.uleb128 .L740-.LFB1576
	.uleb128 0
	.uleb128 .LEHB94-.LFB1576
	.uleb128 .LEHE94-.LEHB94
	.uleb128 0
	.uleb128 0
	.uleb128 .LEHB95-.LFB1576
	.uleb128 .LEHE95-.LEHB95
	.uleb128 .L741-.LFB1576
	.uleb128 0
	.uleb128 .LEHB96-.LFB1576
	.uleb128 .LEHE96-.LEHB96
	.uleb128 0
	.uleb128 0
	.uleb128 .LEHB97-.LFB1576
	.uleb128 .LEHE97-.LEHB97
	.uleb128 .L742-.LFB1576
	.uleb128 0
	.uleb128 .LEHB98-.LFB1576
	.uleb128 .LEHE98-.LEHB98
	.uleb128 0
	.uleb128 0
	.uleb128 .LEHB99-.LFB1576
	.uleb128 .LEHE99-.LEHB99
	.uleb128 .L743-.LFB1576
	.uleb128 0
	.uleb128 .LEHB100-.LFB1576
	.uleb128 .LEHE100-.LEHB100
	.uleb128 0
	.uleb128 0
.LLSDACSE1576:
	.section	".text"
	.size	_ZN11GuiKeyboard13SetupKeyboardEPKwj, .-_ZN11GuiKeyboard13SetupKeyboardEPKwj
	.align 2
	.globl _ZN11GuiKeyboardC2EPKwj
	.type	_ZN11GuiKeyboardC2EPKwj, @function
_ZN11GuiKeyboardC2EPKwj:
.LFB1574:
	.loc 4 28 0
	.cfi_startproc
	.cfi_personality 0,__gxx_personality_v0
	.cfi_lsda 0,.LLSDA1574
.LVL644:
	stwu 1,-24(1)
.LCFI100:
	.cfi_def_cfa_offset 24
	mflr 0
	stw 30,16(1)
	mr 30,4
	.cfi_offset 30, -8
	.cfi_register 65, 0
.LBB3901:
	li 4,0
.LVL645:
.LBE3901:
	stw 0,28(1)
	stw 31,20(1)
	.loc 4 28 0
	mr 31,3
	.cfi_offset 31, -4
	.cfi_offset 65, 4
.LBB3959:
	stw 5,8(1)
.LEHB101:
	bl _ZN8GuiFrameC2EPS_
.LEHE101:
.LVL646:
	lis 9,_ZTV11GuiKeyboard+8@ha
.LBB3902:
.LBB3903:
.LBB3904:
.LBB3905:
.LBB3906:
.LBB3907:
	.loc 6 445 0
	li 0,0
.LBE3907:
.LBE3906:
.LBE3905:
.LBE3904:
.LBE3903:
.LBE3902:
	.loc 4 28 0
	la 9,_ZTV11GuiKeyboard+8@l(9)
.LBB3939:
.LBB3934:
.LBB3929:
.LBB3924:
.LBB3919:
.LBB3914:
.LBB3908:
.LBB3909:
	.loc 6 459 0
	addi 11,31,184
.LBE3909:
.LBE3908:
.LBE3914:
.LBE3919:
.LBE3924:
.LBE3929:
.LBE3934:
.LBE3939:
	.loc 4 28 0
	addi 10,9,228
	stw 9,0(31)
.LBB3940:
.LBB3941:
.LBB3942:
.LBB3943:
	.loc 5 270 0
	lis 9,_ZNSbIwSt11char_traitsIwESaIwEE4_Rep20_S_empty_rep_storageE+12@ha
.LBE3943:
.LBE3942:
.LBE3941:
.LBE3940:
.LBB3950:
.LBB3935:
.LBB3930:
.LBB3925:
.LBB3920:
.LBB3915:
	.loc 6 445 0
	stw 0,184(31)
	stw 0,188(31)
.LBE3915:
.LBE3920:
.LBE3925:
.LBE3930:
.LBE3935:
.LBE3950:
	.loc 4 30 0
	mr 3,31
.LBB3951:
.LBB3936:
.LBB3931:
.LBB3926:
.LBB3921:
.LBB3916:
	.loc 6 445 0
	stw 0,200(31)
.LVL647:
.LBE3916:
.LBE3921:
.LBE3926:
.LBE3931:
.LBE3936:
.LBE3951:
.LBB3952:
.LBB3948:
.LBB3946:
.LBB3944:
	.loc 5 270 0
	la 0,_ZNSbIwSt11char_traitsIwESaIwEE4_Rep20_S_empty_rep_storageE+12@l(9)
.LBE3944:
.LBE3946:
.LBE3948:
.LBE3952:
.LBB3953:
.LBB3937:
.LBB3932:
.LBB3927:
.LBB3922:
.LBB3917:
.LBB3912:
.LBB3910:
	.loc 6 459 0
	stw 11,192(31)
.LBE3910:
.LBE3912:
.LBE3917:
.LBE3922:
.LBE3927:
.LBE3932:
.LBE3937:
.LBE3953:
	.loc 4 30 0
	mr 4,30
.LBB3954:
.LBB3938:
.LBB3933:
.LBB3928:
.LBB3923:
.LBB3918:
.LBB3913:
.LBB3911:
	.loc 6 460 0
	stw 11,196(31)
.LBE3911:
.LBE3913:
.LBE3918:
.LBE3923:
.LBE3928:
.LBE3933:
.LBE3938:
.LBE3954:
	.loc 4 28 0
	stw 10,176(31)
.LVL648:
.LBB3955:
.LBB3949:
.LBB3947:
.LBB3945:
	.loc 5 270 0
	stw 0,212(31)
.LBE3945:
.LBE3947:
.LBE3949:
.LBE3955:
	.loc 4 30 0
	lwz 5,8(1)
.LEHB102:
	bl _ZN11GuiKeyboard13SetupKeyboardEPKwj
.LEHE102:
.LBE3959:
	.loc 4 31 0
	lwz 0,28(1)
	lwz 30,16(1)
.LVL649:
	mtlr 0
	lwz 31,20(1)
.LVL650:
	addi 1,1,24
	.cfi_remember_state
.LCFI101:
	.cfi_def_cfa_offset 0
	.cfi_restore 31
	.cfi_restore 30
	blr
.LVL651:
.L758:
.LCFI102:
	.cfi_restore_state
	mr 30,3
.LVL652:
.LBB3960:
.LBB3956:
.LBB3957:
.LBB3958:
	.loc 9 10 0
	addi 3,31,212
	bl _ZNSbIwSt11char_traitsIwESaIwEED2Ev
.LBE3958:
.LBE3957:
.LBE3956:
	.loc 4 28 0
	addi 3,31,176
	bl _ZN7sigslot9has_slotsINS_15single_threadedEED2Ev
	mr 3,31
	bl _ZN8GuiFrameD2Ev
	mr 3,30
.LEHB103:
	bl _Unwind_Resume
.LEHE103:
.LBE3960:
	.cfi_endproc
.LFE1574:
	.section	.gcc_except_table
.LLSDA1574:
	.byte	0xff
	.byte	0xff
	.byte	0x1
	.uleb128 .LLSDACSE1574-.LLSDACSB1574
.LLSDACSB1574:
	.uleb128 .LEHB101-.LFB1574
	.uleb128 .LEHE101-.LEHB101
	.uleb128 0
	.uleb128 0
	.uleb128 .LEHB102-.LFB1574
	.uleb128 .LEHE102-.LEHB102
	.uleb128 .L758-.LFB1574
	.uleb128 0
	.uleb128 .LEHB103-.LFB1574
	.uleb128 .LEHE103-.LEHB103
	.uleb128 0
	.uleb128 0
.LLSDACSE1574:
	.section	".text"
	.size	_ZN11GuiKeyboardC2EPKwj, .-_ZN11GuiKeyboardC2EPKwj
	.align 2
	.globl _ZN11GuiKeyboardC2EPKcj
	.type	_ZN11GuiKeyboardC2EPKcj, @function
_ZN11GuiKeyboardC2EPKcj:
.LFB1571:
	.loc 4 23 0
	.cfi_startproc
	.cfi_personality 0,__gxx_personality_v0
	.cfi_lsda 0,.LLSDA1571
.LVL653:
	stwu 1,-24(1)
.LCFI103:
	.cfi_def_cfa_offset 24
	mflr 0
	stw 29,12(1)
	mr 29,4
	.cfi_offset 29, -12
	.cfi_register 65, 0
.LBB3961:
	li 4,0
.LVL654:
.LBE3961:
	stw 0,28(1)
	stw 30,16(1)
	mr 30,5
	.cfi_offset 30, -8
	.cfi_offset 65, 4
	stw 31,20(1)
	.loc 4 23 0
	mr 31,3
	.cfi_offset 31, -4
.LEHB104:
.LBB4005:
	bl _ZN8GuiFrameC2EPS_
.LEHE104:
.LVL655:
	lis 9,_ZTV11GuiKeyboard+8@ha
	la 9,_ZTV11GuiKeyboard+8@l(9)
.LBB3962:
.LBB3963:
.LBB3964:
.LBB3965:
.LBB3966:
.LBB3967:
	.loc 6 445 0
	li 0,0
.LBE3967:
.LBE3966:
.LBE3965:
.LBE3964:
.LBE3963:
.LBE3962:
	.loc 4 23 0
	addi 10,9,228
	stw 9,0(31)
.LBB3987:
.LBB3988:
.LBB3989:
.LBB3990:
	.loc 5 270 0
	lis 9,_ZNSbIwSt11char_traitsIwESaIwEE4_Rep20_S_empty_rep_storageE+12@ha
.LBE3990:
.LBE3989:
.LBE3988:
.LBE3987:
.LBB3997:
.LBB3984:
.LBB3981:
.LBB3978:
.LBB3975:
.LBB3972:
.LBB3968:
.LBB3969:
	.loc 6 459 0
	addi 11,31,184
.LBE3969:
.LBE3968:
	.loc 6 445 0
	stw 0,184(31)
.LBE3972:
.LBE3975:
.LBE3978:
.LBE3981:
.LBE3984:
.LBE3997:
	.loc 4 25 0
	mr 3,29
.LBB3998:
.LBB3985:
.LBB3982:
.LBB3979:
.LBB3976:
.LBB3973:
	.loc 6 445 0
	stw 0,188(31)
	stw 0,200(31)
.LVL656:
.LBE3973:
.LBE3976:
.LBE3979:
.LBE3982:
.LBE3985:
.LBE3998:
.LBB3999:
.LBB3995:
.LBB3993:
.LBB3991:
	.loc 5 270 0
	la 0,_ZNSbIwSt11char_traitsIwESaIwEE4_Rep20_S_empty_rep_storageE+12@l(9)
.LBE3991:
.LBE3993:
.LBE3995:
.LBE3999:
.LBB4000:
.LBB3986:
.LBB3983:
.LBB3980:
.LBB3977:
.LBB3974:
.LBB3971:
.LBB3970:
	.loc 6 459 0
	stw 11,192(31)
	.loc 6 460 0
	stw 11,196(31)
.LBE3970:
.LBE3971:
.LBE3974:
.LBE3977:
.LBE3980:
.LBE3983:
.LBE3986:
.LBE4000:
	.loc 4 23 0
	stw 10,176(31)
.LVL657:
.LBB4001:
.LBB3996:
.LBB3994:
.LBB3992:
	.loc 5 270 0
	stw 0,212(31)
.LEHB105:
.LBE3992:
.LBE3994:
.LBE3996:
.LBE4001:
	.loc 4 25 0
	crxor 6,6,6
	bl _Z4wfmtPKcz
	mr 4,3
	mr 5,30
	mr 3,31
	bl _ZN11GuiKeyboard13SetupKeyboardEPKwj
.LEHE105:
.LBE4005:
	.loc 4 26 0
	lwz 0,28(1)
	lwz 29,12(1)
.LVL658:
	mtlr 0
	lwz 30,16(1)
.LVL659:
	lwz 31,20(1)
.LVL660:
	addi 1,1,24
	.cfi_remember_state
.LCFI104:
	.cfi_def_cfa_offset 0
	.cfi_restore 31
	.cfi_restore 30
	.cfi_restore 29
	blr
.LVL661:
.L765:
.LCFI105:
	.cfi_restore_state
	mr 30,3
.LVL662:
.LBB4006:
.LBB4002:
.LBB4003:
.LBB4004:
	.loc 9 10 0
	addi 3,31,212
	bl _ZNSbIwSt11char_traitsIwESaIwEED2Ev
.LBE4004:
.LBE4003:
.LBE4002:
	.loc 4 23 0
	addi 3,31,176
	bl _ZN7sigslot9has_slotsINS_15single_threadedEED2Ev
	mr 3,31
	bl _ZN8GuiFrameD2Ev
	mr 3,30
.LEHB106:
	bl _Unwind_Resume
.LEHE106:
.LBE4006:
	.cfi_endproc
.LFE1571:
	.section	.gcc_except_table
.LLSDA1571:
	.byte	0xff
	.byte	0xff
	.byte	0x1
	.uleb128 .LLSDACSE1571-.LLSDACSB1571
.LLSDACSB1571:
	.uleb128 .LEHB104-.LFB1571
	.uleb128 .LEHE104-.LEHB104
	.uleb128 0
	.uleb128 0
	.uleb128 .LEHB105-.LFB1571
	.uleb128 .LEHE105-.LEHB105
	.uleb128 .L765-.LFB1571
	.uleb128 0
	.uleb128 .LEHB106-.LFB1571
	.uleb128 .LEHE106-.LEHB106
	.uleb128 0
	.uleb128 0
.LLSDACSE1571:
	.section	".text"
	.size	_ZN11GuiKeyboardC2EPKcj, .-_ZN11GuiKeyboardC2EPKcj
	.weak	_ZTS11GuiKeyboard
	.section	.rodata._ZTS11GuiKeyboard,"aG",@progbits,_ZTS11GuiKeyboard,comdat
	.align 2
	.type	_ZTS11GuiKeyboard, @object
	.size	_ZTS11GuiKeyboard, 14
_ZTS11GuiKeyboard:
	.string	"11GuiKeyboard"
	.weak	_ZTI11GuiKeyboard
	.section	.rodata._ZTI11GuiKeyboard,"aG",@progbits,_ZTI11GuiKeyboard,comdat
	.align 2
	.type	_ZTI11GuiKeyboard, @object
	.size	_ZTI11GuiKeyboard, 32
_ZTI11GuiKeyboard:
	.long	_ZTVN10__cxxabiv121__vmi_class_type_infoE+8
	.long	_ZTS11GuiKeyboard
	.long	0
	.long	2
	.long	_ZTI8GuiFrame
	.long	2
	.long	_ZTIN7sigslot9has_slotsINS_15single_threadedEEE
	.long	45058
	.weak	_ZTV11GuiKeyboard
	.section	.rodata._ZTV11GuiKeyboard,"aG",@progbits,_ZTV11GuiKeyboard,comdat
	.align 3
	.type	_ZTV11GuiKeyboard, @object
	.size	_ZTV11GuiKeyboard, 252
_ZTV11GuiKeyboard:
	.long	0
	.long	_ZTI11GuiKeyboard
	.long	_ZN11GuiKeyboardD1Ev
	.long	_ZN11GuiKeyboardD0Ev
	.long	_ZN10GuiElement9SetParentEPS_
	.long	_ZN10GuiElement9GetParentEv
	.long	_ZN10GuiElement7GetLeftEv
	.long	_ZN10GuiElement6GetTopEv
	.long	_ZN10GuiElement12GetZPositionEv
	.long	_ZN10GuiElement10GetLeftPosEv
	.long	_ZN10GuiElement9GetTopPosEv
	.long	_ZN10GuiElement8GetWidthEv
	.long	_ZN10GuiElement9GetHeightEv
	.long	_ZN10GuiElement7SetSizeEii
	.long	_ZN8GuiFrame10SetVisibleEb
	.long	_ZN10GuiElement9IsVisibleEv
	.long	_ZN10GuiElement12IsSelectableEv
	.long	_ZN10GuiElement11IsClickableEv
	.long	_ZN10GuiElement10IsHoldableEv
	.long	_ZN10GuiElement13SetSelectableEb
	.long	_ZN10GuiElement12SetClickableEb
	.long	_ZN10GuiElement11SetHoldableEb
	.long	_ZN10GuiElement8SetStateEii
	.long	_ZN10GuiElement8GetStateEv
	.long	_ZN10GuiElement12GetStateChanEv
	.long	_ZN8GuiFrame10ResetStateEv
	.long	_ZN10GuiElement8SetAlphaEi
	.long	_ZN10GuiElement8GetAlphaEv
	.long	_ZN10GuiElement8SetScaleEf
	.long	_ZN10GuiElement9SetScaleXEf
	.long	_ZN10GuiElement9SetScaleYEf
	.long	_ZN10GuiElement8GetScaleEv
	.long	_ZN10GuiElement9GetScaleXEv
	.long	_ZN10GuiElement9GetScaleYEv
	.long	_ZN10GuiElement6RumbleEv
	.long	_ZN10GuiElement9SetRumbleEb
	.long	_ZN10GuiElement9SetEffectEiii
	.long	_ZN10GuiElement15SetEffectOnOverEiii
	.long	_ZN10GuiElement13SetEffectGrowEv
	.long	_ZN10GuiElement12ResetEffectsEv
	.long	_ZNK10GuiElement9GetEffectEv
	.long	_ZNK10GuiElement10IsAnimatedEv
	.long	_ZN8GuiFrame9SetBoundsE4RectIiE
	.long	_ZN10GuiElement8IsInsideEii
	.long	_ZN10GuiElement11SetPositionEii
	.long	_ZN10GuiElement11SetPositionEiii
	.long	_ZN8GuiFrame11GetSelectedEv
	.long	_ZN10GuiElement12SetAlignmentEi
	.long	_ZNK10GuiElement12GetAlignmentEv
	.long	_ZN11GuiKeyboard6UpdateEP10GuiTrigger
	.long	_ZN8GuiFrame4DrawEv
	.long	_ZN10GuiElement13UpdateEffectsEv
	.long	_ZN8GuiFrame5CloseEv
	.long	_ZN8GuiFrame4showEv
	.long	_ZN8GuiFrame4hideEv
	.long	_ZN8GuiFrame4execEv
	.long	_ZN8GuiFrame12updateEventsEv
	.long	-176
	.long	_ZTI11GuiKeyboard
	.long	_ZThn176_N11GuiKeyboardD1Ev
	.long	_ZThn176_N11GuiKeyboardD0Ev
	.long	_ZN7sigslot15single_threaded4lockEv
	.long	_ZN7sigslot15single_threaded6unlockEv
	.weak	_ZTVN7sigslot15single_threadedE
	.section	.rodata._ZTVN7sigslot15single_threadedE,"aG",@progbits,_ZTVN7sigslot15single_threadedE,comdat
	.align 3
	.type	_ZTVN7sigslot15single_threadedE, @object
	.size	_ZTVN7sigslot15single_threadedE, 24
_ZTVN7sigslot15single_threadedE:
	.long	0
	.long	_ZTIN7sigslot15single_threadedE
	.long	_ZN7sigslot15single_threadedD1Ev
	.long	_ZN7sigslot15single_threadedD0Ev
	.long	_ZN7sigslot15single_threaded4lockEv
	.long	_ZN7sigslot15single_threaded6unlockEv
	.weak	_ZTVN7sigslot9has_slotsINS_15single_threadedEEE
	.section	.rodata._ZTVN7sigslot9has_slotsINS_15single_threadedEEE,"aG",@progbits,_ZTVN7sigslot9has_slotsINS_15single_threadedEEE,comdat
	.align 3
	.type	_ZTVN7sigslot9has_slotsINS_15single_threadedEEE, @object
	.size	_ZTVN7sigslot9has_slotsINS_15single_threadedEEE, 24
_ZTVN7sigslot9has_slotsINS_15single_threadedEEE:
	.long	0
	.long	_ZTIN7sigslot9has_slotsINS_15single_threadedEEE
	.long	_ZN7sigslot9has_slotsINS_15single_threadedEED1Ev
	.long	_ZN7sigslot9has_slotsINS_15single_threadedEED0Ev
	.long	_ZN7sigslot15single_threaded4lockEv
	.long	_ZN7sigslot15single_threaded6unlockEv
	.weak	_ZTVN7sigslot17_connection_base3IP9GuiButtoniRK6_POINTNS_15single_threadedEEE
	.section	.rodata._ZTVN7sigslot17_connection_base3IP9GuiButtoniRK6_POINTNS_15single_threadedEEE,"aG",@progbits,_ZTVN7sigslot17_connection_base3IP9GuiButtoniRK6_POINTNS_15single_threadedEEE,comdat
	.align 3
	.type	_ZTVN7sigslot17_connection_base3IP9GuiButtoniRK6_POINTNS_15single_threadedEEE, @object
	.size	_ZTVN7sigslot17_connection_base3IP9GuiButtoniRK6_POINTNS_15single_threadedEEE, 32
_ZTVN7sigslot17_connection_base3IP9GuiButtoniRK6_POINTNS_15single_threadedEEE:
	.long	0
	.long	_ZTIN7sigslot17_connection_base3IP9GuiButtoniRK6_POINTNS_15single_threadedEEE
	.long	_ZN7sigslot17_connection_base3IP9GuiButtoniRK6_POINTNS_15single_threadedEED1Ev
	.long	_ZN7sigslot17_connection_base3IP9GuiButtoniRK6_POINTNS_15single_threadedEED0Ev
	.long	__cxa_pure_virtual
	.long	__cxa_pure_virtual
	.long	__cxa_pure_virtual
	.long	__cxa_pure_virtual
	.weak	_ZTVN7sigslot12_connection3I11GuiKeyboardP9GuiButtoniRK6_POINTNS_15single_threadedEEE
	.section	.rodata._ZTVN7sigslot12_connection3I11GuiKeyboardP9GuiButtoniRK6_POINTNS_15single_threadedEEE,"aG",@progbits,_ZTVN7sigslot12_connection3I11GuiKeyboardP9GuiButtoniRK6_POINTNS_15single_threadedEEE,comdat
	.align 3
	.type	_ZTVN7sigslot12_connection3I11GuiKeyboardP9GuiButtoniRK6_POINTNS_15single_threadedEEE, @object
	.size	_ZTVN7sigslot12_connection3I11GuiKeyboardP9GuiButtoniRK6_POINTNS_15single_threadedEEE, 32
_ZTVN7sigslot12_connection3I11GuiKeyboardP9GuiButtoniRK6_POINTNS_15single_threadedEEE:
	.long	0
	.long	_ZTIN7sigslot12_connection3I11GuiKeyboardP9GuiButtoniRK6_POINTNS_15single_threadedEEE
	.long	_ZN7sigslot12_connection3I11GuiKeyboardP9GuiButtoniRK6_POINTNS_15single_threadedEED1Ev
	.long	_ZN7sigslot12_connection3I11GuiKeyboardP9GuiButtoniRK6_POINTNS_15single_threadedEED0Ev
	.long	_ZNK7sigslot12_connection3I11GuiKeyboardP9GuiButtoniRK6_POINTNS_15single_threadedEE7getdestEv
	.long	_ZN7sigslot12_connection3I11GuiKeyboardP9GuiButtoniRK6_POINTNS_15single_threadedEE4emitES3_iS6_
	.long	_ZN7sigslot12_connection3I11GuiKeyboardP9GuiButtoniRK6_POINTNS_15single_threadedEE5cloneEv
	.long	_ZN7sigslot12_connection3I11GuiKeyboardP9GuiButtoniRK6_POINTNS_15single_threadedEE9duplicateEPNS_9has_slotsIS7_EE
	.weak	_ZTIN7sigslot9has_slotsINS_15single_threadedEEE
	.section	.rodata._ZTIN7sigslot9has_slotsINS_15single_threadedEEE,"aG",@progbits,_ZTIN7sigslot9has_slotsINS_15single_threadedEEE,comdat
	.align 2
	.type	_ZTIN7sigslot9has_slotsINS_15single_threadedEEE, @object
	.size	_ZTIN7sigslot9has_slotsINS_15single_threadedEEE, 12
_ZTIN7sigslot9has_slotsINS_15single_threadedEEE:
	.long	_ZTVN10__cxxabiv120__si_class_type_infoE+8
	.long	_ZTSN7sigslot9has_slotsINS_15single_threadedEEE
	.long	_ZTIN7sigslot15single_threadedE
	.weak	_ZTIN7sigslot15single_threadedE
	.section	.sdata._ZTIN7sigslot15single_threadedE,"awG",@progbits,_ZTIN7sigslot15single_threadedE,comdat
	.align 2
	.type	_ZTIN7sigslot15single_threadedE, @object
	.size	_ZTIN7sigslot15single_threadedE, 8
_ZTIN7sigslot15single_threadedE:
	.long	_ZTVN10__cxxabiv117__class_type_infoE+8
	.long	_ZTSN7sigslot15single_threadedE
	.weak	_ZTIN7sigslot17_connection_base3IP9GuiButtoniRK6_POINTNS_15single_threadedEEE
	.section	.sdata._ZTIN7sigslot17_connection_base3IP9GuiButtoniRK6_POINTNS_15single_threadedEEE,"awG",@progbits,_ZTIN7sigslot17_connection_base3IP9GuiButtoniRK6_POINTNS_15single_threadedEEE,comdat
	.align 2
	.type	_ZTIN7sigslot17_connection_base3IP9GuiButtoniRK6_POINTNS_15single_threadedEEE, @object
	.size	_ZTIN7sigslot17_connection_base3IP9GuiButtoniRK6_POINTNS_15single_threadedEEE, 8
_ZTIN7sigslot17_connection_base3IP9GuiButtoniRK6_POINTNS_15single_threadedEEE:
	.long	_ZTVN10__cxxabiv117__class_type_infoE+8
	.long	_ZTSN7sigslot17_connection_base3IP9GuiButtoniRK6_POINTNS_15single_threadedEEE
	.weak	_ZTIN7sigslot12_connection3I11GuiKeyboardP9GuiButtoniRK6_POINTNS_15single_threadedEEE
	.section	.rodata._ZTIN7sigslot12_connection3I11GuiKeyboardP9GuiButtoniRK6_POINTNS_15single_threadedEEE,"aG",@progbits,_ZTIN7sigslot12_connection3I11GuiKeyboardP9GuiButtoniRK6_POINTNS_15single_threadedEEE,comdat
	.align 2
	.type	_ZTIN7sigslot12_connection3I11GuiKeyboardP9GuiButtoniRK6_POINTNS_15single_threadedEEE, @object
	.size	_ZTIN7sigslot12_connection3I11GuiKeyboardP9GuiButtoniRK6_POINTNS_15single_threadedEEE, 12
_ZTIN7sigslot12_connection3I11GuiKeyboardP9GuiButtoniRK6_POINTNS_15single_threadedEEE:
	.long	_ZTVN10__cxxabiv120__si_class_type_infoE+8
	.long	_ZTSN7sigslot12_connection3I11GuiKeyboardP9GuiButtoniRK6_POINTNS_15single_threadedEEE
	.long	_ZTIN7sigslot17_connection_base3IP9GuiButtoniRK6_POINTNS_15single_threadedEEE
	.weak	_ZTSN7sigslot9has_slotsINS_15single_threadedEEE
	.section	.rodata._ZTSN7sigslot9has_slotsINS_15single_threadedEEE,"aG",@progbits,_ZTSN7sigslot9has_slotsINS_15single_threadedEEE,comdat
	.align 2
	.type	_ZTSN7sigslot9has_slotsINS_15single_threadedEEE, @object
	.size	_ZTSN7sigslot9has_slotsINS_15single_threadedEEE, 44
_ZTSN7sigslot9has_slotsINS_15single_threadedEEE:
	.string	"N7sigslot9has_slotsINS_15single_threadedEEE"
	.weak	_ZTSN7sigslot15single_threadedE
	.section	.rodata._ZTSN7sigslot15single_threadedE,"aG",@progbits,_ZTSN7sigslot15single_threadedE,comdat
	.align 2
	.type	_ZTSN7sigslot15single_threadedE, @object
	.size	_ZTSN7sigslot15single_threadedE, 28
_ZTSN7sigslot15single_threadedE:
	.string	"N7sigslot15single_threadedE"
	.weak	_ZTSN7sigslot17_connection_base3IP9GuiButtoniRK6_POINTNS_15single_threadedEEE
	.section	.rodata._ZTSN7sigslot17_connection_base3IP9GuiButtoniRK6_POINTNS_15single_threadedEEE,"aG",@progbits,_ZTSN7sigslot17_connection_base3IP9GuiButtoniRK6_POINTNS_15single_threadedEEE,comdat
	.align 2
	.type	_ZTSN7sigslot17_connection_base3IP9GuiButtoniRK6_POINTNS_15single_threadedEEE, @object
	.size	_ZTSN7sigslot17_connection_base3IP9GuiButtoniRK6_POINTNS_15single_threadedEEE, 74
_ZTSN7sigslot17_connection_base3IP9GuiButtoniRK6_POINTNS_15single_threadedEEE:
	.string	"N7sigslot17_connection_base3IP9GuiButtoniRK6_POINTNS_15single_threadedEEE"
	.weak	_ZTSN7sigslot12_connection3I11GuiKeyboardP9GuiButtoniRK6_POINTNS_15single_threadedEEE
	.section	.rodata._ZTSN7sigslot12_connection3I11GuiKeyboardP9GuiButtoniRK6_POINTNS_15single_threadedEEE,"aG",@progbits,_ZTSN7sigslot12_connection3I11GuiKeyboardP9GuiButtoniRK6_POINTNS_15single_threadedEEE,comdat
	.align 2
	.type	_ZTSN7sigslot12_connection3I11GuiKeyboardP9GuiButtoniRK6_POINTNS_15single_threadedEEE, @object
	.size	_ZTSN7sigslot12_connection3I11GuiKeyboardP9GuiButtoniRK6_POINTNS_15single_threadedEEE, 82
_ZTSN7sigslot12_connection3I11GuiKeyboardP9GuiButtoniRK6_POINTNS_15single_threadedEEE:
	.string	"N7sigslot12_connection3I11GuiKeyboardP9GuiButtoniRK6_POINTNS_15single_threadedEEE"
	.weak	_ZN7sigslot15single_threadedD1Ev
	.set	_ZN7sigslot15single_threadedD1Ev,_ZN7sigslot15single_threadedD2Ev
	.weak	_ZN7sigslot17_connection_base3IP9GuiButtoniRK6_POINTNS_15single_threadedEED1Ev
	.set	_ZN7sigslot17_connection_base3IP9GuiButtoniRK6_POINTNS_15single_threadedEED1Ev,_ZN7sigslot17_connection_base3IP9GuiButtoniRK6_POINTNS_15single_threadedEED2Ev
	.weak	_ZN7sigslot12_connection3I11GuiKeyboardP9GuiButtoniRK6_POINTNS_15single_threadedEED1Ev
	.set	_ZN7sigslot12_connection3I11GuiKeyboardP9GuiButtoniRK6_POINTNS_15single_threadedEED1Ev,_ZN7sigslot12_connection3I11GuiKeyboardP9GuiButtoniRK6_POINTNS_15single_threadedEED2Ev
	.weak	_ZN7sigslot9has_slotsINS_15single_threadedEED1Ev
	.set	_ZN7sigslot9has_slotsINS_15single_threadedEED1Ev,_ZN7sigslot9has_slotsINS_15single_threadedEED2Ev
	.globl _ZN11GuiKeyboardD1Ev
	.set	_ZN11GuiKeyboardD1Ev,_ZN11GuiKeyboardD2Ev
	.set	.LTHUNK0,_ZN11GuiKeyboardD1Ev
	.set	.LTHUNK1,_ZN11GuiKeyboardD0Ev
	.globl _ZN11GuiKeyboardC1EPKwj
	.set	_ZN11GuiKeyboardC1EPKwj,_ZN11GuiKeyboardC2EPKwj
	.globl _ZN11GuiKeyboardC1EPKcj
	.set	_ZN11GuiKeyboardC1EPKcj,_ZN11GuiKeyboardC2EPKcj
	.section	.rodata.cst4,"aM",@progbits,4
	.align 2
.LC1:
	.4byte	1501560836
.LC2:
	.4byte	1132396544
.LC3:
	.4byte	1056964608
	.section	.rodata.str1.4,"aMS",@progbits,1
	.align 2
.LC4:
	.string	"basic_string::at"
	.zero	3
.LC13:
	.string	"`1234567890-"
	.zero	3
.LC14:
	.string	"%s"
	.zero	1
.LC15:
	.string	"~!@#$%^&*()_"
	.zero	3
.LC16:
	.string	"qwertyuiop[]\\"
	.zero	2
.LC17:
	.string	"QWERTYUIOP{}|"
	.zero	2
.LC18:
	.string	"asdfghjkl;'="
	.zero	3
.LC19:
	.string	"ASDFGHJKL:\"+"
	.zero	3
.LC20:
	.string	"zxcvbnm,./"
	.zero	1
.LC21:
	.string	"ZXCVBNM<>?"
	.zero	1
.LC22:
	.string	"basic_string::erase"
.LC23:
	.string	"basic_string::insert"
	.zero	3
.LC24:
	.string	"keyboard_textbox.png"
	.zero	3
.LC25:
	.string	"r=0 g=0 b=0 a=255 - keyboard text color"
.LC26:
	.string	"keyboard_key.png"
	.zero	3
.LC27:
	.string	"keyboard_key_over.png"
	.zero	2
.LC28:
	.string	"keyboard_mediumkey.png"
	.zero	1
.LC29:
	.string	"keyboard_mediumkey_over.png"
.LC30:
	.string	"keyboard_largekey.png"
	.zero	2
.LC31:
	.string	"keyboard_largekey_over.png"
	.zero	1
.LC32:
	.string	"button_over.wav"
.LC33:
	.string	"button_click.wav"
	.zero	3
.LC34:
	.string	"Back"
	.zero	3
.LC35:
	.string	"r=0 g=0 b=0 a=255 - keyboard spec buttons text color"
	.zero	3
.LC36:
	.string	"Caps"
	.zero	3
.LC37:
	.string	"Shift"
	.zero	2
.LC38:
	.string	"Lang."
	.zero	2
.LC39:
	.string	"Linebreak"
	.zero	2
.LC40:
	.string	"Clear"
	.zero	2
.LC41:
	.string	"r=0 g=0 b=0 a=255 - keyboard buttons text color"
	.section	.rodata.str4.4,"aMS",@progbits,4
	.align 2
.LC5:
	.string	""
	.string	""
	.string	""
	.string	"`"
	.string	""
	.string	""
	.string	"1"
	.string	""
	.string	""
	.string	"2"
	.string	""
	.string	""
	.string	"3"
	.string	""
	.string	""
	.string	"4"
	.string	""
	.string	""
	.string	"5"
	.string	""
	.string	""
	.string	"6"
	.string	""
	.string	""
	.string	"7"
	.string	""
	.string	""
	.string	"8"
	.string	""
	.string	""
	.string	"9"
	.string	""
	.string	""
	.string	"0"
	.string	""
	.string	""
	.string	"-"
	.string	""
	.string	""
	.string	""
.LC6:
	.string	""
	.string	""
	.string	""
	.string	"~"
	.string	""
	.string	""
	.string	"!"
	.string	""
	.string	""
	.string	"@"
	.string	""
	.string	""
	.string	"#"
	.string	""
	.string	""
	.string	"$"
	.string	""
	.string	""
	.string	"%"
	.string	""
	.string	""
	.string	"^"
	.string	""
	.string	""
	.string	"&"
	.string	""
	.string	""
	.string	"*"
	.string	""
	.string	""
	.string	"("
	.string	""
	.string	""
	.string	")"
	.string	""
	.string	""
	.string	"_"
	.string	""
	.string	""
	.string	""
.LC7:
	.string	""
	.string	""
	.string	""
	.string	"q"
	.string	""
	.string	""
	.string	"w"
	.string	""
	.string	""
	.string	"e"
	.string	""
	.string	""
	.string	"r"
	.string	""
	.string	""
	.string	"t"
	.string	""
	.string	""
	.string	"y"
	.string	""
	.string	""
	.string	"u"
	.string	""
	.string	""
	.string	"i"
	.string	""
	.string	""
	.string	"o"
	.string	""
	.string	""
	.string	"p"
	.string	""
	.string	""
	.string	"["
	.string	""
	.string	""
	.string	"]"
	.string	""
	.string	""
	.string	"\\"
	.string	""
	.string	""
	.string	""
.LC8:
	.string	""
	.string	""
	.string	""
	.string	"Q"
	.string	""
	.string	""
	.string	"W"
	.string	""
	.string	""
	.string	"E"
	.string	""
	.string	""
	.string	"R"
	.string	""
	.string	""
	.string	"T"
	.string	""
	.string	""
	.string	"Y"
	.string	""
	.string	""
	.string	"U"
	.string	""
	.string	""
	.string	"I"
	.string	""
	.string	""
	.string	"O"
	.string	""
	.string	""
	.string	"P"
	.string	""
	.string	""
	.string	"{"
	.string	""
	.string	""
	.string	"}"
	.string	""
	.string	""
	.string	"|"
	.string	""
	.string	""
	.string	""
.LC9:
	.string	""
	.string	""
	.string	""
	.string	"a"
	.string	""
	.string	""
	.string	"s"
	.string	""
	.string	""
	.string	"d"
	.string	""
	.string	""
	.string	"f"
	.string	""
	.string	""
	.string	"g"
	.string	""
	.string	""
	.string	"h"
	.string	""
	.string	""
	.string	"j"
	.string	""
	.string	""
	.string	"k"
	.string	""
	.string	""
	.string	"l"
	.string	""
	.string	""
	.string	";"
	.string	""
	.string	""
	.string	"'"
	.string	""
	.string	""
	.string	"="
	.string	""
	.string	""
	.string	""
.LC10:
	.string	""
	.string	""
	.string	""
	.string	"A"
	.string	""
	.string	""
	.string	"S"
	.string	""
	.string	""
	.string	"D"
	.string	""
	.string	""
	.string	"F"
	.string	""
	.string	""
	.string	"G"
	.string	""
	.string	""
	.string	"H"
	.string	""
	.string	""
	.string	"J"
	.string	""
	.string	""
	.string	"K"
	.string	""
	.string	""
	.string	"L"
	.string	""
	.string	""
	.string	":"
	.string	""
	.string	""
	.string	"\""
	.string	""
	.string	""
	.string	"+"
	.string	""
	.string	""
	.string	""
.LC11:
	.string	""
	.string	""
	.string	""
	.string	"z"
	.string	""
	.string	""
	.string	"x"
	.string	""
	.string	""
	.string	"c"
	.string	""
	.string	""
	.string	"v"
	.string	""
	.string	""
	.string	"b"
	.string	""
	.string	""
	.string	"n"
	.string	""
	.string	""
	.string	"m"
	.string	""
	.string	""
	.string	","
	.string	""
	.string	""
	.string	"."
	.string	""
	.string	""
	.string	"/"
	.string	""
	.string	""
	.string	""
.LC12:
	.string	""
	.string	""
	.string	""
	.string	"Z"
	.string	""
	.string	""
	.string	"X"
	.string	""
	.string	""
	.string	"C"
	.string	""
	.string	""
	.string	"V"
	.string	""
	.string	""
	.string	"B"
	.string	""
	.string	""
	.string	"N"
	.string	""
	.string	""
	.string	"M"
	.string	""
	.string	""
	.string	"<"
	.string	""
	.string	""
	.string	">"
	.string	""
	.string	""
	.string	"?"
	.string	""
	.string	""
	.string	""
	.section	".text"
.Letext0:
	.file 13 "d:\\devkitpro\\devkitppc\\bin\\../lib/gcc/powerpc-eabi/4.6.3/../../../../powerpc-eabi/include/stdint.h"
	.file 14 "d:/devkitPro/libogc/include/gctypes.h"
	.file 15 "d:/devkitPro/libogc/include/ogc/gx.h"
	.file 16 "d:\\devkitpro\\devkitppc\\bin\\../lib/gcc/powerpc-eabi/4.6.3/../../../../powerpc-eabi/include/machine/_types.h"
	.file 17 "d:\\devkitpro\\devkitppc\\bin\\../lib/gcc/powerpc-eabi/4.6.3/../../../../powerpc-eabi/include/sys/lock.h"
	.file 18 "d:\\devkitpro\\devkitppc\\bin\\../lib/gcc/powerpc-eabi/4.6.3/include/stddef.h"
	.file 19 "d:\\devkitpro\\devkitppc\\bin\\../lib/gcc/powerpc-eabi/4.6.3/../../../../powerpc-eabi/include/sys/_types.h"
	.file 20 "d:\\devkitpro\\devkitppc\\bin\\../lib/gcc/powerpc-eabi/4.6.3/../../../../powerpc-eabi/include/sys/reent.h"
	.file 21 "d:\\devkitpro\\devkitppc\\bin\\../lib/gcc/powerpc-eabi/4.6.3/../../../../powerpc-eabi/include/time.h"
	.file 22 "<built-in>"
	.file 23 "d:\\devkitpro\\devkitppc\\bin\\../lib/gcc/powerpc-eabi/4.6.3/../../../../powerpc-eabi/include/stdio.h"
	.file 24 "d:\\devkitpro\\devkitppc\\bin\\../lib/gcc/powerpc-eabi/4.6.3/../../../../powerpc-eabi/include/wchar.h"
	.file 25 "d:\\devkitpro\\devkitppc\\bin\\../lib/gcc/powerpc-eabi/4.6.3/../../../../powerpc-eabi/include/c++/4.6.3/cwchar"
	.file 26 "d:\\devkitpro\\devkitppc\\bin\\../lib/gcc/powerpc-eabi/4.6.3/../../../../powerpc-eabi/include/c++/4.6.3/powerpc-eabi/bits/c++config.h"
	.file 27 "d:\\devkitpro\\devkitppc\\bin\\../lib/gcc/powerpc-eabi/4.6.3/../../../../powerpc-eabi/include/c++/4.6.3/clocale"
	.file 28 "d:\\devkitpro\\devkitppc\\bin\\../lib/gcc/powerpc-eabi/4.6.3/../../../../powerpc-eabi/include/c++/4.6.3/bits/stringfwd.h"
	.file 29 "d:\\devkitpro\\devkitppc\\bin\\../lib/gcc/powerpc-eabi/4.6.3/../../../../powerpc-eabi/include/c++/4.6.3/bits/move.h"
	.file 30 "d:\\devkitpro\\devkitppc\\bin\\../lib/gcc/powerpc-eabi/4.6.3/../../../../powerpc-eabi/include/c++/4.6.3/bits/cpp_type_traits.h"
	.file 31 "d:\\devkitpro\\devkitppc\\bin\\../lib/gcc/powerpc-eabi/4.6.3/../../../../powerpc-eabi/include/c++/4.6.3/debug/debug.h"
	.file 32 "d:\\devkitpro\\devkitppc\\bin\\../lib/gcc/powerpc-eabi/4.6.3/../../../../powerpc-eabi/include/c++/4.6.3/bits/allocator.h"
	.file 33 "d:\\devkitpro\\devkitppc\\bin\\../lib/gcc/powerpc-eabi/4.6.3/../../../../powerpc-eabi/include/locale.h"
	.file 34 "d:\\devkitpro\\devkitppc\\bin\\../lib/gcc/powerpc-eabi/4.6.3/../../../../powerpc-eabi/include/c++/4.6.3/powerpc-eabi/bits/atomic_word.h"
	.file 35 "d:\\devkitpro\\devkitppc\\bin\\../lib/gcc/powerpc-eabi/4.6.3/../../../../powerpc-eabi/include/c++/4.6.3/ext/numeric_traits.h"
	.file 36 "d:\\devkitpro\\devkitppc\\bin\\../lib/gcc/powerpc-eabi/4.6.3/../../../../powerpc-eabi/include/c++/4.6.3/bits/basic_string.tcc"
	.file 37 "d:\\devkitpro\\devkitppc\\bin\\../lib/gcc/powerpc-eabi/4.6.3/../../../../powerpc-eabi/include/c++/4.6.3/bits/stl_iterator_base_types.h"
	.file 38 "d:\\devkitpro\\devkitppc\\bin\\../lib/gcc/powerpc-eabi/4.6.3/../../../../powerpc-eabi/include/c++/4.6.3/bits/stl_iterator.h"
	.file 39 "d:/Projects/SaveGameManager/savegame-manager-gx/trunk/source/GUI/../Settings/../FileOperations/FileExtensions.h"
	.file 40 "d:/Projects/SaveGameManager/savegame-manager-gx/trunk/source/GUI/../Settings/../Controls/AppControls.hpp"
	.file 41 "d:/Projects/SaveGameManager/savegame-manager-gx/trunk/source/GUI/../Settings/CSettings.h"
	.file 42 "d:/Projects/SaveGameManager/savegame-manager-gx/trunk/source/GUI/../Tools/Rect.h"
	.file 43 "d:\\devkitpro\\devkitppc\\bin\\../lib/gcc/powerpc-eabi/4.6.3/../../../../powerpc-eabi/include/c++/4.6.3/bits/list.tcc"
	.file 44 "d:/Projects/SaveGameManager/savegame-manager-gx/trunk/source/GUI/gui_keyboard.h"
	.file 45 "d:\\devkitpro\\devkitppc\\bin\\../lib/gcc/powerpc-eabi/4.6.3/../../../../powerpc-eabi/include/c++/4.6.3/bits/stl_function.h"
	.file 46 "d:/Projects/SaveGameManager/savegame-manager-gx/trunk/source/GUI/gui_imagedata.h"
	.file 47 "d:\\devkitpro\\devkitppc\\bin\\../lib/gcc/powerpc-eabi/4.6.3/../../../../powerpc-eabi/include/c++/4.6.3/bits/stl_pair.h"
	.file 48 "d:/Projects/SaveGameManager/savegame-manager-gx/trunk/source/GUI/../TextOperations/TextPointer.h"
	.file 49 "d:\\devkitpro\\devkitppc\\bin\\../lib/gcc/powerpc-eabi/4.6.3/../../../../powerpc-eabi/include/c++/4.6.3/new"