	.file	"gui_button.cpp"
	.section	".text"
.Ltext0:
	.section	.text._ZN7sigslot15single_threadedD2Ev,"axG",@progbits,_ZN7sigslot15single_threadedD5Ev,comdat
	.align 2
	.weak	_ZN7sigslot15single_threadedD2Ev
	.type	_ZN7sigslot15single_threadedD2Ev, @function
_ZN7sigslot15single_threadedD2Ev:
.LFB1148:
	.file 1 "d:/Projects/SaveGameManager/savegame-manager-gx/trunk/source/GUI/../sigslot.h"
	.loc 1 104 0
	.cfi_startproc
.LVL0:
.LBB1949:
	.loc 1 105 0
	lis 9,_ZTVN7sigslot15single_threadedE+8@ha
.LBE1949:
	.loc 1 107 0
.LBB1950:
	.loc 1 105 0
	la 0,_ZTVN7sigslot15single_threadedE+8@l(9)
	stw 0,0(3)
.LBE1950:
	.loc 1 107 0
	blr
	.cfi_endproc
.LFE1148:
	.size	_ZN7sigslot15single_threadedD2Ev, .-_ZN7sigslot15single_threadedD2Ev
	.section	.text._ZN7sigslot15single_threaded4lockEv,"axG",@progbits,_ZN7sigslot15single_threaded4lockEv,comdat
	.align 2
	.weak	_ZN7sigslot15single_threaded4lockEv
	.type	_ZN7sigslot15single_threaded4lockEv, @function
_ZN7sigslot15single_threaded4lockEv:
.LFB1151:
	.loc 1 109 0
	.cfi_startproc
.LVL1:
	.loc 1 112 0
	blr
	.cfi_endproc
.LFE1151:
	.size	_ZN7sigslot15single_threaded4lockEv, .-_ZN7sigslot15single_threaded4lockEv
	.section	.text._ZN7sigslot15single_threaded6unlockEv,"axG",@progbits,_ZN7sigslot15single_threaded6unlockEv,comdat
	.align 2
	.weak	_ZN7sigslot15single_threaded6unlockEv
	.type	_ZN7sigslot15single_threaded6unlockEv, @function
_ZN7sigslot15single_threaded6unlockEv:
.LFB1152:
	.loc 1 114 0
	.cfi_startproc
.LVL2:
	.loc 1 117 0
	blr
	.cfi_endproc
.LFE1152:
	.size	_ZN7sigslot15single_threaded6unlockEv, .-_ZN7sigslot15single_threaded6unlockEv
	.section	.text._ZN10GuiElement9SetParentEPS_,"axG",@progbits,_ZN10GuiElement9SetParentEPS_,comdat
	.align 2
	.weak	_ZN10GuiElement9SetParentEPS_
	.type	_ZN10GuiElement9SetParentEPS_, @function
_ZN10GuiElement9SetParentEPS_:
.LFB1384:
	.file 2 "d:/Projects/SaveGameManager/savegame-manager-gx/trunk/source/GUI/gui_element.h"
	.loc 2 92 0
	.cfi_startproc
.LVL3:
	.loc 2 92 0
	stw 4,96(3)
	blr
	.cfi_endproc
.LFE1384:
	.size	_ZN10GuiElement9SetParentEPS_, .-_ZN10GuiElement9SetParentEPS_
	.section	.text._ZN10GuiElement9GetParentEv,"axG",@progbits,_ZN10GuiElement9GetParentEv,comdat
	.align 2
	.weak	_ZN10GuiElement9GetParentEv
	.type	_ZN10GuiElement9GetParentEv, @function
_ZN10GuiElement9GetParentEv:
.LFB1385:
	.loc 2 95 0
	.cfi_startproc
.LVL4:
	.loc 2 95 0
	lwz 3,96(3)
.LVL5:
	blr
	.cfi_endproc
.LFE1385:
	.size	_ZN10GuiElement9GetParentEv, .-_ZN10GuiElement9GetParentEv
	.section	.text._ZN10GuiElement12GetZPositionEv,"axG",@progbits,_ZN10GuiElement12GetZPositionEv,comdat
	.align 2
	.weak	_ZN10GuiElement12GetZPositionEv
	.type	_ZN10GuiElement12GetZPositionEv, @function
_ZN10GuiElement12GetZPositionEv:
.LFB1386:
	.loc 2 106 0
	.cfi_startproc
.LVL6:
	mflr 0
	stwu 1,-16(1)
.LCFI0:
	.cfi_def_cfa_offset 16
	.cfi_register 65, 0
	stw 31,12(1)
	mr 31,3
	.cfi_offset 31, -4
	stw 0,20(1)
.LBB1951:
	.loc 2 110 0
	lwz 11,96(3)
	.loc 2 108 0
	li 3,0
.LVL7:
	.loc 2 110 0
	cmpwi 7,11,0
	beq- 7,.L8
	.cfi_offset 65, 4
	.loc 2 111 0
	lwz 9,0(11)
	mr 3,11
	lwz 0,24(9)
	mtctr 0
	bctrl
.LVL8:
.L8:
	.loc 2 113 0
	lwz 0,52(31)
.LBE1951:
	.loc 2 114 0
	lwz 31,12(1)
.LVL9:
	add 3,3,0
.LVL10:
	lwz 0,20(1)
	addi 1,1,16
.LCFI1:
	.cfi_def_cfa_offset 0
	.cfi_restore 31
	mtlr 0
	blr
	.cfi_endproc
.LFE1386:
	.size	_ZN10GuiElement12GetZPositionEv, .-_ZN10GuiElement12GetZPositionEv
	.section	.text._ZN10GuiElement10GetLeftPosEv,"axG",@progbits,_ZN10GuiElement10GetLeftPosEv,comdat
	.align 2
	.weak	_ZN10GuiElement10GetLeftPosEv
	.type	_ZN10GuiElement10GetLeftPosEv, @function
_ZN10GuiElement10GetLeftPosEv:
.LFB1387:
	.loc 2 116 0
	.cfi_startproc
.LVL11:
	.loc 2 116 0
	lwz 3,44(3)
.LVL12:
	blr
	.cfi_endproc
.LFE1387:
	.size	_ZN10GuiElement10GetLeftPosEv, .-_ZN10GuiElement10GetLeftPosEv
	.section	.text._ZN10GuiElement9GetTopPosEv,"axG",@progbits,_ZN10GuiElement9GetTopPosEv,comdat
	.align 2
	.weak	_ZN10GuiElement9GetTopPosEv
	.type	_ZN10GuiElement9GetTopPosEv, @function
_ZN10GuiElement9GetTopPosEv:
.LFB1388:
	.loc 2 118 0
	.cfi_startproc
.LVL13:
	.loc 2 118 0
	lwz 3,48(3)
.LVL14:
	blr
	.cfi_endproc
.LFE1388:
	.size	_ZN10GuiElement9GetTopPosEv, .-_ZN10GuiElement9GetTopPosEv
	.section	.text._ZN10GuiElement8GetWidthEv,"axG",@progbits,_ZN10GuiElement8GetWidthEv,comdat
	.align 2
	.weak	_ZN10GuiElement8GetWidthEv
	.type	_ZN10GuiElement8GetWidthEv, @function
_ZN10GuiElement8GetWidthEv:
.LFB1389:
	.loc 2 121 0
	.cfi_startproc
.LVL15:
	.loc 2 121 0
	lwz 3,36(3)
.LVL16:
	blr
	.cfi_endproc
.LFE1389:
	.size	_ZN10GuiElement8GetWidthEv, .-_ZN10GuiElement8GetWidthEv
	.section	.text._ZN10GuiElement9GetHeightEv,"axG",@progbits,_ZN10GuiElement9GetHeightEv,comdat
	.align 2
	.weak	_ZN10GuiElement9GetHeightEv
	.type	_ZN10GuiElement9GetHeightEv, @function
_ZN10GuiElement9GetHeightEv:
.LFB1390:
	.loc 2 124 0
	.cfi_startproc
.LVL17:
	.loc 2 124 0
	lwz 3,40(3)
.LVL18:
	blr
	.cfi_endproc
.LFE1390:
	.size	_ZN10GuiElement9GetHeightEv, .-_ZN10GuiElement9GetHeightEv
	.section	.text._ZN10GuiElement7SetSizeEii,"axG",@progbits,_ZN10GuiElement7SetSizeEii,comdat
	.align 2
	.weak	_ZN10GuiElement7SetSizeEii
	.type	_ZN10GuiElement7SetSizeEii, @function
_ZN10GuiElement7SetSizeEii:
.LFB1391:
	.loc 2 128 0
	.cfi_startproc
.LVL19:
	.loc 2 130 0
	stw 4,36(3)
	.loc 2 132 0
	.loc 2 131 0
	stw 5,40(3)
	.loc 2 132 0
	blr
	.cfi_endproc
.LFE1391:
	.size	_ZN10GuiElement7SetSizeEii, .-_ZN10GuiElement7SetSizeEii
	.section	.text._ZN10GuiElement10SetVisibleEb,"axG",@progbits,_ZN10GuiElement10SetVisibleEb,comdat
	.align 2
	.weak	_ZN10GuiElement10SetVisibleEb
	.type	_ZN10GuiElement10SetVisibleEb, @function
_ZN10GuiElement10SetVisibleEb:
.LFB1392:
	.loc 2 135 0
	.cfi_startproc
	.cfi_personality 0,__gxx_personality_v0
	.cfi_lsda 0,.LLSDA1392
.LVL20:
	mflr 0
	stwu 1,-32(1)
.LCFI2:
	.cfi_def_cfa_offset 32
	.cfi_register 65, 0
	stw 27,12(1)
.LBB1952:
.LBB1953:
	.loc 1 2270 0
	addi 27,3,4
	.cfi_offset 27, -20
.LBE1953:
.LBE1952:
	.loc 2 135 0
	stw 0,36(1)
	stw 30,24(1)
	mr 30,3
	.cfi_offset 30, -8
	.cfi_offset 65, 4
.LBB1976:
.LBB1970:
.LBB1954:
.LBB1955:
	.loc 1 338 0
	lwz 9,4(3)
	mr 3,27
.LVL21:
.LBE1955:
.LBE1954:
.LBE1970:
.LBE1976:
	.loc 2 135 0
	stw 28,16(1)
	mr 28,4
	.cfi_offset 28, -16
.LBB1977:
.LBB1971:
.LBB1959:
.LBB1956:
	.loc 1 338 0
	lwz 0,8(9)
.LBE1956:
.LBE1959:
.LBE1971:
.LBE1977:
	.loc 2 135 0
	stw 29,20(1)
.LBB1978:
	.file 3 "d:/Projects/SaveGameManager/savegame-manager-gx/trunk/source/GUI/gui_button.cpp"
	.loc 3 406 0
	mr 29,30
	.cfi_offset 29, -12
.LBE1978:
	.loc 2 135 0
	stw 31,28(1)
.LBB1979:
.LBB1972:
.LBB1960:
.LBB1957:
	.loc 1 338 0
	mtctr 0
.LBE1957:
.LBE1960:
.LBE1972:
.LBE1979:
	.loc 2 137 0
	stb 4,29(30)
.LVL22:
.LEHB0:
.LBB1980:
.LBB1973:
.LBB1961:
.LBB1958:
	.loc 1 338 0
	.cfi_offset 31, -4
	bctrl
.LEHE0:
.LVL23:
.LBE1958:
.LBE1961:
.LBE1973:
	.loc 3 406 0
	lwzu 31,8(29)
.LVL24:
.LBB1974:
	.loc 1 2274 0
	cmpw 7,31,29
	beq- 7,.L17
.LVL25:
.L24:
	.loc 1 2279 0
	lwz 3,8(31)
	mr 4,30
	mr 5,28
.LBB1962:
.LBB1963:
	.file 4 "d:\\devkitpro\\devkitppc\\bin\\../lib/gcc/powerpc-eabi/4.6.3/../../../../powerpc-eabi/include/c++/4.6.3/bits/stl_list.h"
	.loc 4 234 0
	lwz 31,0(31)
.LVL26:
.LBE1963:
.LBE1962:
	.loc 1 2279 0
	lwz 9,0(3)
	lwz 0,12(9)
	mtctr 0
.LEHB1:
	bctrl
.LEHE1:
.LVL27:
	.loc 1 2274 0
	cmpw 7,29,31
	bne+ 7,.L24
.LVL28:
.L17:
.LBB1964:
.LBB1965:
.LBB1966:
	.loc 1 343 0
	lwz 9,4(30)
	mr 3,27
	lwz 0,12(9)
	mtctr 0
.LEHB2:
	bctrl
.LEHE2:
.LBE1966:
.LBE1965:
.LBE1964:
.LBE1974:
.LBE1980:
	.loc 2 139 0
	lwz 0,36(1)
	lwz 27,12(1)
.LVL29:
	mtlr 0
	lwz 28,16(1)
.LVL30:
	lwz 29,20(1)
	lwz 30,24(1)
.LVL31:
	lwz 31,28(1)
.LVL32:
	addi 1,1,32
	.cfi_remember_state
.LCFI3:
	.cfi_def_cfa_offset 0
	.cfi_restore 31
	.cfi_restore 30
	.cfi_restore 29
	.cfi_restore 28
	.cfi_restore 27
	blr
.LVL33:
.L23:
.LCFI4:
	.cfi_restore_state
.LBB1981:
.LBB1975:
.LBB1967:
.LBB1968:
.LBB1969:
	.loc 1 343 0
	lwz 9,4(30)
	mr 31,3
.LVL34:
	mr 3,27
	lwz 0,12(9)
	mtctr 0
	bctrl
	mr 3,31
.LEHB3:
	bl _Unwind_Resume
.LEHE3:
.LBE1969:
.LBE1968:
.LBE1967:
.LBE1975:
.LBE1981:
	.cfi_endproc
.LFE1392:
	.globl __gxx_personality_v0
	.section	.gcc_except_table,"a",@progbits
.LLSDA1392:
	.byte	0xff
	.byte	0xff
	.byte	0x1
	.uleb128 .LLSDACSE1392-.LLSDACSB1392
.LLSDACSB1392:
	.uleb128 .LEHB0-.LFB1392
	.uleb128 .LEHE0-.LEHB0
	.uleb128 0
	.uleb128 0
	.uleb128 .LEHB1-.LFB1392
	.uleb128 .LEHE1-.LEHB1
	.uleb128 .L23-.LFB1392
	.uleb128 0
	.uleb128 .LEHB2-.LFB1392
	.uleb128 .LEHE2-.LEHB2
	.uleb128 0
	.uleb128 0
	.uleb128 .LEHB3-.LFB1392
	.uleb128 .LEHE3-.LEHB3
	.uleb128 0
	.uleb128 0
.LLSDACSE1392:
	.section	.text._ZN10GuiElement10SetVisibleEb,"axG",@progbits,_ZN10GuiElement10SetVisibleEb,comdat
	.size	_ZN10GuiElement10SetVisibleEb, .-_ZN10GuiElement10SetVisibleEb
	.section	.text._ZN10GuiElement9IsVisibleEv,"axG",@progbits,_ZN10GuiElement9IsVisibleEv,comdat
	.align 2
	.weak	_ZN10GuiElement9IsVisibleEv
	.type	_ZN10GuiElement9IsVisibleEv, @function
_ZN10GuiElement9IsVisibleEv:
.LFB1393:
	.loc 2 142 0
	.cfi_startproc
.LVL35:
	.loc 2 142 0
	lbz 3,29(3)
.LVL36:
	blr
	.cfi_endproc
.LFE1393:
	.size	_ZN10GuiElement9IsVisibleEv, .-_ZN10GuiElement9IsVisibleEv
	.section	.text._ZN10GuiElement12IsSelectableEv,"axG",@progbits,_ZN10GuiElement12IsSelectableEv,comdat
	.align 2
	.weak	_ZN10GuiElement12IsSelectableEv
	.type	_ZN10GuiElement12IsSelectableEv, @function
_ZN10GuiElement12IsSelectableEv:
.LFB1394:
	.loc 2 145 0
	.cfi_startproc
.LVL37:
	.loc 2 149 0
	lwz 0,72(3)
	li 9,0
	cmpwi 7,0,4
	beq- 7,.L27
	.loc 2 149 0 is_stmt 0 discriminator 1
	cmpwi 7,0,2
	beq- 7,.L27
	.loc 2 149 0 discriminator 3
	lbz 9,30(3)
.L27:
	.loc 2 150 0 is_stmt 1 discriminator 5
	mr 3,9
.LVL38:
	blr
	.cfi_endproc
.LFE1394:
	.size	_ZN10GuiElement12IsSelectableEv, .-_ZN10GuiElement12IsSelectableEv
	.section	.text._ZN10GuiElement11IsClickableEv,"axG",@progbits,_ZN10GuiElement11IsClickableEv,comdat
	.align 2
	.weak	_ZN10GuiElement11IsClickableEv
	.type	_ZN10GuiElement11IsClickableEv, @function
_ZN10GuiElement11IsClickableEv:
.LFB1395:
	.loc 2 153 0
	.cfi_startproc
.LVL39:
	.loc 2 158 0
	lwz 0,72(3)
	li 9,0
	cmpwi 7,0,4
	beq- 7,.L31
	.loc 2 158 0 is_stmt 0 discriminator 1
	cmpwi 7,0,2
	beq- 7,.L31
	.loc 2 158 0 discriminator 3
	cmpwi 7,0,3
	beq- 7,.L31
	.loc 2 158 0 discriminator 4
	lbz 9,31(3)
.L31:
	.loc 2 159 0 is_stmt 1 discriminator 6
	mr 3,9
.LVL40:
	blr
	.cfi_endproc
.LFE1395:
	.size	_ZN10GuiElement11IsClickableEv, .-_ZN10GuiElement11IsClickableEv
	.section	.text._ZN10GuiElement10IsHoldableEv,"axG",@progbits,_ZN10GuiElement10IsHoldableEv,comdat
	.align 2
	.weak	_ZN10GuiElement10IsHoldableEv
	.type	_ZN10GuiElement10IsHoldableEv, @function
_ZN10GuiElement10IsHoldableEv:
.LFB1396:
	.loc 2 162 0
	.cfi_startproc
.LVL41:
	.loc 2 162 0
	lwz 9,72(3)
	li 0,0
	cmpwi 7,9,4
	beq- 7,.L36
	.loc 2 162 0 is_stmt 0 discriminator 1
	lbz 0,32(3)
.L36:
	.loc 2 162 0 discriminator 4
	mr 3,0
.LVL42:
	blr
	.cfi_endproc
.LFE1396:
	.size	_ZN10GuiElement10IsHoldableEv, .-_ZN10GuiElement10IsHoldableEv
	.section	.text._ZN10GuiElement13SetSelectableEb,"axG",@progbits,_ZN10GuiElement13SetSelectableEb,comdat
	.align 2
	.weak	_ZN10GuiElement13SetSelectableEb
	.type	_ZN10GuiElement13SetSelectableEb, @function
_ZN10GuiElement13SetSelectableEb:
.LFB1397:
	.loc 2 165 0 is_stmt 1
	.cfi_startproc
.LVL43:
	.loc 2 165 0
	stb 4,30(3)
	blr
	.cfi_endproc
.LFE1397:
	.size	_ZN10GuiElement13SetSelectableEb, .-_ZN10GuiElement13SetSelectableEb
	.section	.text._ZN10GuiElement12SetClickableEb,"axG",@progbits,_ZN10GuiElement12SetClickableEb,comdat
	.align 2
	.weak	_ZN10GuiElement12SetClickableEb
	.type	_ZN10GuiElement12SetClickableEb, @function
_ZN10GuiElement12SetClickableEb:
.LFB1398:
	.loc 2 168 0
	.cfi_startproc
.LVL44:
	.loc 2 168 0
	stb 4,31(3)
	blr
	.cfi_endproc
.LFE1398:
	.size	_ZN10GuiElement12SetClickableEb, .-_ZN10GuiElement12SetClickableEb
	.section	.text._ZN10GuiElement11SetHoldableEb,"axG",@progbits,_ZN10GuiElement11SetHoldableEb,comdat
	.align 2
	.weak	_ZN10GuiElement11SetHoldableEb
	.type	_ZN10GuiElement11SetHoldableEb, @function
_ZN10GuiElement11SetHoldableEb:
.LFB1399:
	.loc 2 171 0
	.cfi_startproc
.LVL45:
	.loc 2 171 0
	stb 4,32(3)
	blr
	.cfi_endproc
.LFE1399:
	.size	_ZN10GuiElement11SetHoldableEb, .-_ZN10GuiElement11SetHoldableEb
	.section	.text._ZN10GuiElement8GetStateEv,"axG",@progbits,_ZN10GuiElement8GetStateEv,comdat
	.align 2
	.weak	_ZN10GuiElement8GetStateEv
	.type	_ZN10GuiElement8GetStateEv, @function
_ZN10GuiElement8GetStateEv:
.LFB1400:
	.loc 2 178 0
	.cfi_startproc
.LVL46:
	.loc 2 178 0
	lwz 3,72(3)
.LVL47:
	blr
	.cfi_endproc
.LFE1400:
	.size	_ZN10GuiElement8GetStateEv, .-_ZN10GuiElement8GetStateEv
	.section	.text._ZN10GuiElement12GetStateChanEv,"axG",@progbits,_ZN10GuiElement12GetStateChanEv,comdat
	.align 2
	.weak	_ZN10GuiElement12GetStateChanEv
	.type	_ZN10GuiElement12GetStateChanEv, @function
_ZN10GuiElement12GetStateChanEv:
.LFB1401:
	.loc 2 181 0
	.cfi_startproc
.LVL48:
	.loc 2 181 0
	lwz 3,76(3)
.LVL49:
	blr
	.cfi_endproc
.LFE1401:
	.size	_ZN10GuiElement12GetStateChanEv, .-_ZN10GuiElement12GetStateChanEv
	.section	.text._ZN10GuiElement8SetAlphaEi,"axG",@progbits,_ZN10GuiElement8SetAlphaEi,comdat
	.align 2
	.weak	_ZN10GuiElement8SetAlphaEi
	.type	_ZN10GuiElement8SetAlphaEi, @function
_ZN10GuiElement8SetAlphaEi:
.LFB1403:
	.loc 2 190 0
	.cfi_startproc
.LVL50:
	.loc 2 190 0
	stw 4,56(3)
	blr
	.cfi_endproc
.LFE1403:
	.size	_ZN10GuiElement8SetAlphaEi, .-_ZN10GuiElement8SetAlphaEi
	.section	.text._ZN10GuiElement8GetAlphaEv,"axG",@progbits,_ZN10GuiElement8GetAlphaEv,comdat
	.align 2
	.weak	_ZN10GuiElement8GetAlphaEv
	.type	_ZN10GuiElement8GetAlphaEv, @function
_ZN10GuiElement8GetAlphaEv:
.LFB1404:
	.loc 2 194 0
	.cfi_startproc
.LVL51:
	mflr 0
	stwu 1,-40(1)
.LCFI5:
	.cfi_def_cfa_offset 40
	.cfi_register 65, 0
	stw 31,36(1)
	stw 0,44(1)
.LBB1982:
	.loc 2 198 0
	lwz 31,108(3)
	.cfi_offset 65, 4
	.cfi_offset 31, -4
	cmpwi 7,31,0
	blt- 7,.L47
.L45:
.LVL52:
	.loc 2 203 0
	lwz 3,96(3)
.LVL53:
	cmpwi 7,3,0
	beq- 7,.L46
	.loc 2 204 0
	lwz 9,0(3)
	xoris 31,31,0x8000
.LVL54:
	lwz 0,100(9)
	mtctr 0
	bctrl
	lis 0,0x4330
	xoris 3,3,0x8000
	stw 0,16(1)
	stw 3,20(1)
	lis 9,.LC1@ha
	lfs 0,.LC1@l(9)
	lis 9,.LC2@ha
	lfd 13,16(1)
	lfs 12,.LC2@l(9)
	addi 9,1,24
	fsub 13,13,0
	stw 31,12(1)
	stw 0,8(1)
	frsp 13,13
	fdivs 13,13,12
	lfd 12,8(1)
	fsub 0,12,0
	frsp 0,0
	fmuls 0,0,13
	fctiwz 0,0
	stfiwx 0,0,9
	lwz 31,24(1)
.LVL55:
.L46:
.LBE1982:
	.loc 2 207 0
	lwz 0,44(1)
	mr 3,31
	lwz 31,36(1)
.LVL56:
	mtlr 0
	addi 1,1,40
	.cfi_remember_state
.LCFI6:
	.cfi_def_cfa_offset 0
	.cfi_restore 31
	blr
.LVL57:
.L47:
.LCFI7:
	.cfi_restore_state
.LBB1983:
	.loc 2 201 0
	lwz 31,56(3)
.LVL58:
	b .L45
.LBE1983:
	.cfi_endproc
.LFE1404:
	.size	_ZN10GuiElement8GetAlphaEv, .-_ZN10GuiElement8GetAlphaEv
	.section	.text._ZN10GuiElement8SetScaleEf,"axG",@progbits,_ZN10GuiElement8SetScaleEf,comdat
	.align 2
	.weak	_ZN10GuiElement8SetScaleEf
	.type	_ZN10GuiElement8SetScaleEf, @function
_ZN10GuiElement8SetScaleEf:
.LFB1405:
	.loc 2 210 0
	.cfi_startproc
.LVL59:
	.loc 2 212 0
	stfs 1,60(3)
	.loc 2 214 0
	.loc 2 213 0
	stfs 1,64(3)
	.loc 2 214 0
	blr
	.cfi_endproc
.LFE1405:
	.size	_ZN10GuiElement8SetScaleEf, .-_ZN10GuiElement8SetScaleEf
	.section	.text._ZN10GuiElement9SetScaleXEf,"axG",@progbits,_ZN10GuiElement9SetScaleXEf,comdat
	.align 2
	.weak	_ZN10GuiElement9SetScaleXEf
	.type	_ZN10GuiElement9SetScaleXEf, @function
_ZN10GuiElement9SetScaleXEf:
.LFB1406:
	.loc 2 217 0
	.cfi_startproc
.LVL60:
	.loc 2 217 0
	stfs 1,60(3)
	blr
	.cfi_endproc
.LFE1406:
	.size	_ZN10GuiElement9SetScaleXEf, .-_ZN10GuiElement9SetScaleXEf
	.section	.text._ZN10GuiElement9SetScaleYEf,"axG",@progbits,_ZN10GuiElement9SetScaleYEf,comdat
	.align 2
	.weak	_ZN10GuiElement9SetScaleYEf
	.type	_ZN10GuiElement9SetScaleYEf, @function
_ZN10GuiElement9SetScaleYEf:
.LFB1407:
	.loc 2 220 0
	.cfi_startproc
.LVL61:
	.loc 2 220 0
	stfs 1,64(3)
	blr
	.cfi_endproc
.LFE1407:
	.size	_ZN10GuiElement9SetScaleYEf, .-_ZN10GuiElement9SetScaleYEf
	.section	.text._ZN10GuiElement8GetScaleEv,"axG",@progbits,_ZN10GuiElement8GetScaleEv,comdat
	.align 2
	.weak	_ZN10GuiElement8GetScaleEv
	.type	_ZN10GuiElement8GetScaleEv, @function
_ZN10GuiElement8GetScaleEv:
.LFB1408:
	.loc 2 223 0
	.cfi_startproc
.LVL62:
	mflr 0
	stwu 1,-16(1)
.LCFI8:
	.cfi_def_cfa_offset 16
	.cfi_register 65, 0
.LBB1984:
	.loc 2 225 0
	lis 9,.LC3@ha
.LBE1984:
	.loc 2 223 0
	stfd 31,8(1)
	stw 0,20(1)
.LBB1985:
	.loc 2 225 0
	lfs 0,64(3)
	lfs 31,60(3)
	.cfi_offset 65, 4
	.cfi_offset 63, -8
	.loc 2 227 0
	lwz 11,96(3)
	.loc 2 225 0
	fadds 31,31,0
	lfs 0,.LC3@l(9)
	.loc 2 227 0
	cmpwi 7,11,0
	.loc 2 225 0
	fmuls 31,31,0
	lfs 0,112(3)
	fmuls 31,31,0
.LVL63:
	.loc 2 227 0
	beq- 7,.L52
	.loc 2 228 0
	lwz 9,0(11)
	mr 3,11
.LVL64:
	lwz 0,116(9)
	mtctr 0
	bctrl
	fmuls 31,31,1
.LVL65:
.L52:
.LBE1985:
	.loc 2 231 0
	lwz 0,20(1)
	fmr 1,31
	lfd 31,8(1)
.LVL66:
	mtlr 0
	addi 1,1,16
.LCFI9:
	.cfi_def_cfa_offset 0
	.cfi_restore 63
	blr
	.cfi_endproc
.LFE1408:
	.size	_ZN10GuiElement8GetScaleEv, .-_ZN10GuiElement8GetScaleEv
	.section	.text._ZN10GuiElement9GetScaleXEv,"axG",@progbits,_ZN10GuiElement9GetScaleXEv,comdat
	.align 2
	.weak	_ZN10GuiElement9GetScaleXEv
	.type	_ZN10GuiElement9GetScaleXEv, @function
_ZN10GuiElement9GetScaleXEv:
.LFB1409:
	.loc 2 234 0
	.cfi_startproc
.LVL67:
	mflr 0
	stwu 1,-16(1)
.LCFI10:
	.cfi_def_cfa_offset 16
	.cfi_register 65, 0
	stfd 31,8(1)
	stw 0,20(1)
.LBB1986:
	.loc 2 238 0
	lwz 11,96(3)
	.loc 2 236 0
	lfs 31,60(3)
	.cfi_offset 65, 4
	.cfi_offset 63, -8
	.loc 2 238 0
	cmpwi 7,11,0
	.loc 2 236 0
	lfs 0,112(3)
	fmuls 31,31,0
.LVL68:
	.loc 2 238 0
	beq- 7,.L54
	.loc 2 239 0
	lwz 9,0(11)
	mr 3,11
.LVL69:
	lwz 0,120(9)
	mtctr 0
	bctrl
	fmuls 31,31,1
.LVL70:
.L54:
.LBE1986:
	.loc 2 242 0
	lwz 0,20(1)
	fmr 1,31
	lfd 31,8(1)
.LVL71:
	mtlr 0
	addi 1,1,16
.LCFI11:
	.cfi_def_cfa_offset 0
	.cfi_restore 63
	blr
	.cfi_endproc
.LFE1409:
	.size	_ZN10GuiElement9GetScaleXEv, .-_ZN10GuiElement9GetScaleXEv
	.section	.text._ZN10GuiElement9GetScaleYEv,"axG",@progbits,_ZN10GuiElement9GetScaleYEv,comdat
	.align 2
	.weak	_ZN10GuiElement9GetScaleYEv
	.type	_ZN10GuiElement9GetScaleYEv, @function
_ZN10GuiElement9GetScaleYEv:
.LFB1410:
	.loc 2 245 0
	.cfi_startproc
.LVL72:
	mflr 0
	stwu 1,-16(1)
.LCFI12:
	.cfi_def_cfa_offset 16
	.cfi_register 65, 0
	stfd 31,8(1)
	stw 0,20(1)
.LBB1987:
	.loc 2 249 0
	lwz 11,96(3)
	.loc 2 247 0
	lfs 31,64(3)
	.cfi_offset 65, 4
	.cfi_offset 63, -8
	.loc 2 249 0
	cmpwi 7,11,0
	.loc 2 247 0
	lfs 0,112(3)
	fmuls 31,31,0
.LVL73:
	.loc 2 249 0
	beq- 7,.L56
	.loc 2 250 0
	lwz 9,0(11)
	mr 3,11
.LVL74:
	lwz 0,124(9)
	mtctr 0
	bctrl
	fmuls 31,31,1
.LVL75:
.L56:
.LBE1987:
	.loc 2 253 0
	lwz 0,20(1)
	fmr 1,31
	lfd 31,8(1)
.LVL76:
	mtlr 0
	addi 1,1,16
.LCFI13:
	.cfi_def_cfa_offset 0
	.cfi_restore 63
	blr
	.cfi_endproc
.LFE1410:
	.size	_ZN10GuiElement9GetScaleYEv, .-_ZN10GuiElement9GetScaleYEv
	.section	.text._ZN10GuiElement6RumbleEv,"axG",@progbits,_ZN10GuiElement6RumbleEv,comdat
	.align 2
	.weak	_ZN10GuiElement6RumbleEv
	.type	_ZN10GuiElement6RumbleEv, @function
_ZN10GuiElement6RumbleEv:
.LFB1411:
	.loc 2 256 0
	.cfi_startproc
.LVL77:
	.loc 2 256 0
	lbz 3,28(3)
.LVL78:
	blr
	.cfi_endproc
.LFE1411:
	.size	_ZN10GuiElement6RumbleEv, .-_ZN10GuiElement6RumbleEv
	.section	.text._ZN10GuiElement9SetRumbleEb,"axG",@progbits,_ZN10GuiElement9SetRumbleEb,comdat
	.align 2
	.weak	_ZN10GuiElement9SetRumbleEb
	.type	_ZN10GuiElement9SetRumbleEb, @function
_ZN10GuiElement9SetRumbleEb:
.LFB1412:
	.loc 2 259 0
	.cfi_startproc
.LVL79:
	.loc 2 259 0
	stb 4,28(3)
	blr
	.cfi_endproc
.LFE1412:
	.size	_ZN10GuiElement9SetRumbleEb, .-_ZN10GuiElement9SetRumbleEb
	.section	.text._ZN10GuiElement13SetEffectGrowEv,"axG",@progbits,_ZN10GuiElement13SetEffectGrowEv,comdat
	.align 2
	.weak	_ZN10GuiElement13SetEffectGrowEv
	.type	_ZN10GuiElement13SetEffectGrowEv, @function
_ZN10GuiElement13SetEffectGrowEv:
.LFB1413:
	.loc 2 271 0
	.cfi_startproc
.LVL80:
	mflr 0
	stwu 1,-8(1)
.LCFI14:
	.cfi_def_cfa_offset 8
	.cfi_register 65, 0
	lwz 9,0(3)
	li 4,256
	li 5,4
	li 6,110
	stw 0,12(1)
	.loc 2 271 0
	lwz 0,140(9)
	.cfi_offset 65, 4
	mtctr 0
	bctrl
.LVL81:
	lwz 0,12(1)
	addi 1,1,8
.LCFI15:
	.cfi_def_cfa_offset 0
	mtlr 0
	blr
	.cfi_endproc
.LFE1413:
	.size	_ZN10GuiElement13SetEffectGrowEv, .-_ZN10GuiElement13SetEffectGrowEv
	.section	.text._ZNK10GuiElement9GetEffectEv,"axG",@progbits,_ZNK10GuiElement9GetEffectEv,comdat
	.align 2
	.weak	_ZNK10GuiElement9GetEffectEv
	.type	_ZNK10GuiElement9GetEffectEv, @function
_ZNK10GuiElement9GetEffectEv:
.LFB1414:
	.loc 2 276 0
	.cfi_startproc
.LVL82:
	.loc 2 276 0
	lwz 3,120(3)
.LVL83:
	blr
	.cfi_endproc
.LFE1414:
	.size	_ZNK10GuiElement9GetEffectEv, .-_ZNK10GuiElement9GetEffectEv
	.section	.text._ZNK10GuiElement10IsAnimatedEv,"axG",@progbits,_ZNK10GuiElement10IsAnimatedEv,comdat
	.align 2
	.weak	_ZNK10GuiElement10IsAnimatedEv
	.type	_ZNK10GuiElement10IsAnimatedEv, @function
_ZNK10GuiElement10IsAnimatedEv:
.LFB1415:
	.loc 2 278 0
	.cfi_startproc
.LVL84:
	mflr 0
	stwu 1,-8(1)
.LCFI16:
	.cfi_def_cfa_offset 8
	.cfi_register 65, 0
	stw 0,12(1)
	.loc 2 278 0
	lwz 9,0(3)
	lwz 0,152(9)
	.cfi_offset 65, 4
	mtctr 0
	bctrl
.LVL85:
	srawi 0,3,31
	subf 3,3,0
	lwz 0,12(1)
	srwi 3,3,31
	mtlr 0
	addi 1,1,8
.LCFI17:
	.cfi_def_cfa_offset 0
	blr
	.cfi_endproc
.LFE1415:
	.size	_ZNK10GuiElement10IsAnimatedEv, .-_ZNK10GuiElement10IsAnimatedEv
	.section	.text._ZN10GuiElement8IsInsideEii,"axG",@progbits,_ZN10GuiElement8IsInsideEii,comdat
	.align 2
	.weak	_ZN10GuiElement8IsInsideEii
	.type	_ZN10GuiElement8IsInsideEii, @function
_ZN10GuiElement8IsInsideEii:
.LFB1417:
	.loc 2 285 0
	.cfi_startproc
.LVL86:
	mflr 0
	stwu 1,-24(1)
.LCFI18:
	.cfi_def_cfa_offset 24
	.cfi_register 65, 0
	stw 28,8(1)
	mr 28,5
	.cfi_offset 28, -16
	stw 0,28(1)
	stw 29,12(1)
	.loc 2 290 0
	li 29,0
	.cfi_offset 29, -12
	.cfi_offset 65, 4
	.loc 2 287 0
	lwz 9,0(3)
	.loc 2 285 0
	stw 30,16(1)
	mr 30,4
	.cfi_offset 30, -8
	.loc 2 287 0
	lwz 0,16(9)
	.loc 2 285 0
	stw 31,20(1)
	.loc 2 285 0
	mr 31,3
	.cfi_offset 31, -4
	.loc 2 287 0
	mtctr 0
	bctrl
.LVL87:
	.loc 2 290 0
	cmpw 7,3,30
	blt- 7,.L67
.L63:
	.loc 2 291 0 discriminator 6
	lwz 0,28(1)
	mr 3,29
	lwz 28,8(1)
.LVL88:
	mtlr 0
	lwz 29,12(1)
	lwz 30,16(1)
.LVL89:
	lwz 31,20(1)
.LVL90:
	addi 1,1,24
	.cfi_remember_state
.LCFI19:
	.cfi_def_cfa_offset 0
	.cfi_restore 31
	.cfi_restore 30
	.cfi_restore 29
	.cfi_restore 28
	blr
.LVL91:
.L67:
.LCFI20:
	.cfi_restore_state
	.loc 2 288 0 discriminator 1
	lwz 9,0(31)
	mr 3,31
	lwz 0,16(9)
	mtctr 0
	bctrl
	.loc 2 290 0 discriminator 1
	lwz 0,36(31)
	add 0,3,0
	cmpw 7,30,0
	bge+ 7,.L63
	.loc 2 289 0 discriminator 3
	lwz 9,0(31)
	mr 3,31
	lwz 0,20(9)
	mtctr 0
	bctrl
	.loc 2 290 0 discriminator 3
	cmpw 7,3,28
	bge+ 7,.L63
	.loc 2 290 0 is_stmt 0 discriminator 4
	lwz 9,0(31)
	mr 3,31
	lwz 0,20(9)
	mtctr 0
	bctrl
	lwz 0,40(31)
	add 0,3,0
	.loc 2 285 0 is_stmt 1 discriminator 4
	cmpw 7,28,0
	mfcr 29
	rlwinm 29,29,29,1
	b .L63
	.cfi_endproc
.LFE1417:
	.size	_ZN10GuiElement8IsInsideEii, .-_ZN10GuiElement8IsInsideEii
	.section	.text._ZN10GuiElement11SetPositionEii,"axG",@progbits,_ZN10GuiElement11SetPositionEii,comdat
	.align 2
	.weak	_ZN10GuiElement11SetPositionEii
	.type	_ZN10GuiElement11SetPositionEii, @function
_ZN10GuiElement11SetPositionEii:
.LFB1418:
	.loc 2 295 0
	.cfi_startproc
.LVL92:
	.loc 2 297 0
	stw 4,44(3)
	.loc 2 299 0
	.loc 2 298 0
	stw 5,48(3)
	.loc 2 299 0
	blr
	.cfi_endproc
.LFE1418:
	.size	_ZN10GuiElement11SetPositionEii, .-_ZN10GuiElement11SetPositionEii
	.section	.text._ZN10GuiElement11SetPositionEiii,"axG",@progbits,_ZN10GuiElement11SetPositionEiii,comdat
	.align 2
	.weak	_ZN10GuiElement11SetPositionEiii
	.type	_ZN10GuiElement11SetPositionEiii, @function
_ZN10GuiElement11SetPositionEiii:
.LFB1419:
	.loc 2 304 0
	.cfi_startproc
.LVL93:
	.loc 2 306 0
	stw 4,44(3)
	.loc 2 309 0
	.loc 2 307 0
	stw 5,48(3)
	.loc 2 308 0
	stw 6,52(3)
	.loc 2 309 0
	blr
	.cfi_endproc
.LFE1419:
	.size	_ZN10GuiElement11SetPositionEiii, .-_ZN10GuiElement11SetPositionEiii
	.section	.text._ZN10GuiElement11GetSelectedEv,"axG",@progbits,_ZN10GuiElement11GetSelectedEv,comdat
	.align 2
	.weak	_ZN10GuiElement11GetSelectedEv
	.type	_ZN10GuiElement11GetSelectedEv, @function
_ZN10GuiElement11GetSelectedEv:
.LFB1420:
	.loc 2 312 0
	.cfi_startproc
.LVL94:
	.loc 2 312 0
	li 3,-1
.LVL95:
	blr
	.cfi_endproc
.LFE1420:
	.size	_ZN10GuiElement11GetSelectedEv, .-_ZN10GuiElement11GetSelectedEv
	.section	.text._ZN10GuiElement12SetAlignmentEi,"axG",@progbits,_ZN10GuiElement12SetAlignmentEi,comdat
	.align 2
	.weak	_ZN10GuiElement12SetAlignmentEi
	.type	_ZN10GuiElement12SetAlignmentEi, @function
_ZN10GuiElement12SetAlignmentEi:
.LFB1421:
	.loc 2 316 0
	.cfi_startproc
.LVL96:
	.loc 2 316 0
	stw 4,68(3)
	blr
	.cfi_endproc
.LFE1421:
	.size	_ZN10GuiElement12SetAlignmentEi, .-_ZN10GuiElement12SetAlignmentEi
	.section	.text._ZNK10GuiElement12GetAlignmentEv,"axG",@progbits,_ZNK10GuiElement12GetAlignmentEv,comdat
	.align 2
	.weak	_ZNK10GuiElement12GetAlignmentEv
	.type	_ZNK10GuiElement12GetAlignmentEv, @function
_ZNK10GuiElement12GetAlignmentEv:
.LFB1422:
	.loc 2 318 0
	.cfi_startproc
.LVL97:
	.loc 2 318 0
	lwz 3,68(3)
.LVL98:
	blr
	.cfi_endproc
.LFE1422:
	.size	_ZNK10GuiElement12GetAlignmentEv, .-_ZNK10GuiElement12GetAlignmentEv
	.section	".text"
	.align 2
	.globl _ZN9GuiButton9SetBoundsE4RectIiE
	.type	_ZN9GuiButton9SetBoundsE4RectIiE, @function
_ZN9GuiButton9SetBoundsE4RectIiE:
.LFB1488:
	.loc 3 175 0
	.cfi_startproc
.LVL99:
	mflr 0
	stwu 1,-160(1)
.LCFI21:
	.cfi_def_cfa_offset 160
	.cfi_register 65, 0
	stw 30,152(1)
	mr 30,3
	.cfi_offset 30, -8
	stw 0,164(1)
	stw 31,156(1)
	.loc 3 175 0
	mr 31,4
	.cfi_offset 31, -4
	.cfi_offset 65, 4
	.loc 3 176 0
	lwz 3,184(3)
.LVL100:
	cmpwi 7,3,0
	beq- 7,.L74
	.loc 3 177 0
	lwz 7,0(3)
.LBB1988:
.LBB1989:
	.file 5 "d:/Projects/SaveGameManager/savegame-manager-gx/trunk/source/GUI/../Tools/Rect.h"
	.loc 5 13 0
	lwz 8,0(4)
	lwz 10,4(4)
	lwz 11,8(4)
	lwz 9,12(4)
.LBE1989:
.LBE1988:
	.loc 3 177 0
	addi 4,1,136
.LVL101:
	lwz 0,160(7)
.LVL102:
.LBB1992:
.LBB1990:
	.loc 5 13 0
	stw 8,136(1)
	stw 10,140(1)
.LBE1990:
.LBE1992:
	.loc 3 177 0
	mtctr 0
.LBB1993:
.LBB1991:
	.loc 5 13 0
	stw 11,144(1)
	stw 9,148(1)
.LBE1991:
.LBE1993:
	.loc 3 177 0
	bctrl
.LVL103:
.L74:
	.loc 3 178 0
	lwz 3,188(30)
	cmpwi 7,3,0
	beq- 7,.L75
	.loc 3 179 0
	lwz 7,0(3)
	addi 4,1,120
.LBB1994:
.LBB1995:
	.loc 5 13 0
	lwz 8,0(31)
	lwz 10,4(31)
	lwz 11,8(31)
	lwz 9,12(31)
.LBE1995:
.LBE1994:
	.loc 3 179 0
	lwz 0,160(7)
.LVL104:
.LBB1998:
.LBB1996:
	.loc 5 13 0
	stw 8,120(1)
	stw 10,124(1)
.LBE1996:
.LBE1998:
	.loc 3 179 0
	mtctr 0
.LBB1999:
.LBB1997:
	.loc 5 13 0
	stw 11,128(1)
	stw 9,132(1)
.LBE1997:
.LBE1999:
	.loc 3 179 0
	bctrl
.LVL105:
.L75:
	.loc 3 180 0
	lwz 3,192(30)
	cmpwi 7,3,0
	beq- 7,.L76
	.loc 3 181 0
	lwz 7,0(3)
	addi 4,1,104
.LBB2000:
.LBB2001:
	.loc 5 13 0
	lwz 8,0(31)
	lwz 10,4(31)
	lwz 11,8(31)
	lwz 9,12(31)
.LBE2001:
.LBE2000:
	.loc 3 181 0
	lwz 0,160(7)
.LVL106:
.LBB2004:
.LBB2002:
	.loc 5 13 0
	stw 8,104(1)
	stw 10,108(1)
.LBE2002:
.LBE2004:
	.loc 3 181 0
	mtctr 0
.LBB2005:
.LBB2003:
	.loc 5 13 0
	stw 11,112(1)
	stw 9,116(1)
.LBE2003:
.LBE2005:
	.loc 3 181 0
	bctrl
.LVL107:
.L76:
	.loc 3 182 0
	lwz 3,196(30)
	cmpwi 7,3,0
	beq- 7,.L77
	.loc 3 183 0
	lwz 7,0(3)
	addi 4,1,88
.LBB2006:
.LBB2007:
	.loc 5 13 0
	lwz 8,0(31)
	lwz 10,4(31)
	lwz 11,8(31)
	lwz 9,12(31)
.LBE2007:
.LBE2006:
	.loc 3 183 0
	lwz 0,160(7)
.LVL108:
.LBB2010:
.LBB2008:
	.loc 5 13 0
	stw 8,88(1)
	stw 10,92(1)
.LBE2008:
.LBE2010:
	.loc 3 183 0
	mtctr 0
.LBB2011:
.LBB2009:
	.loc 5 13 0
	stw 11,96(1)
	stw 9,100(1)
.LBE2009:
.LBE2011:
	.loc 3 183 0
	bctrl
.LVL109:
.L77:
	.loc 3 184 0
	lwz 3,200(30)
	cmpwi 7,3,0
	beq- 7,.L78
	.loc 3 185 0
	lwz 7,0(3)
	addi 4,1,72
.LBB2012:
.LBB2013:
	.loc 5 13 0
	lwz 8,0(31)
	lwz 10,4(31)
	lwz 11,8(31)
	lwz 9,12(31)
.LBE2013:
.LBE2012:
	.loc 3 185 0
	lwz 0,160(7)
.LVL110:
.LBB2016:
.LBB2014:
	.loc 5 13 0
	stw 8,72(1)
	stw 10,76(1)
.LBE2014:
.LBE2016:
	.loc 3 185 0
	mtctr 0
.LBB2017:
.LBB2015:
	.loc 5 13 0
	stw 11,80(1)
	stw 9,84(1)
.LBE2015:
.LBE2017:
	.loc 3 185 0
	bctrl
.LVL111:
.L78:
	.loc 3 186 0
	lwz 3,204(30)
	cmpwi 7,3,0
	beq- 7,.L79
	.loc 3 187 0
	lwz 7,0(3)
	addi 4,1,56
.LBB2018:
.LBB2019:
	.loc 5 13 0
	lwz 8,0(31)
	lwz 10,4(31)
	lwz 11,8(31)
	lwz 9,12(31)
.LBE2019:
.LBE2018:
	.loc 3 187 0
	lwz 0,160(7)
.LVL112:
.LBB2022:
.LBB2020:
	.loc 5 13 0
	stw 8,56(1)
	stw 10,60(1)
.LBE2020:
.LBE2022:
	.loc 3 187 0
	mtctr 0
.LBB2023:
.LBB2021:
	.loc 5 13 0
	stw 11,64(1)
	stw 9,68(1)
.LBE2021:
.LBE2023:
	.loc 3 187 0
	bctrl
.LVL113:
.L79:
	.loc 3 188 0
	lwz 3,208(30)
	cmpwi 7,3,0
	beq- 7,.L80
	.loc 3 189 0
	lwz 7,0(3)
	addi 4,1,40
.LBB2024:
.LBB2025:
	.loc 5 13 0
	lwz 8,0(31)
	lwz 10,4(31)
	lwz 11,8(31)
	lwz 9,12(31)
.LBE2025:
.LBE2024:
	.loc 3 189 0
	lwz 0,160(7)
.LVL114:
.LBB2028:
.LBB2026:
	.loc 5 13 0
	stw 8,40(1)
	stw 10,44(1)
.LBE2026:
.LBE2028:
	.loc 3 189 0
	mtctr 0
.LBB2029:
.LBB2027:
	.loc 5 13 0
	stw 11,48(1)
	stw 9,52(1)
.LBE2027:
.LBE2029:
	.loc 3 189 0
	bctrl
.LVL115:
.L80:
	.loc 3 190 0
	lwz 3,212(30)
	cmpwi 7,3,0
	beq- 7,.L81
	.loc 3 191 0
	lwz 7,0(3)
	addi 4,1,24
.LBB2030:
.LBB2031:
	.loc 5 13 0
	lwz 8,0(31)
	lwz 10,4(31)
	lwz 11,8(31)
	lwz 9,12(31)
.LBE2031:
.LBE2030:
	.loc 3 191 0
	lwz 0,160(7)
.LVL116:
.LBB2034:
.LBB2032:
	.loc 5 13 0
	stw 8,24(1)
	stw 10,28(1)
.LBE2032:
.LBE2034:
	.loc 3 191 0
	mtctr 0
.LBB2035:
.LBB2033:
	.loc 5 13 0
	stw 11,32(1)
	stw 9,36(1)
.LBE2033:
.LBE2035:
	.loc 3 191 0
	bctrl
.LVL117:
.L81:
	.loc 3 192 0
	lwz 3,276(30)
	cmpwi 7,3,0
	beq- 7,.L73
	.loc 3 193 0
	lwz 7,0(3)
	addi 4,1,8
.LBB2036:
.LBB2037:
	.loc 5 13 0
	lwz 8,0(31)
	lwz 10,4(31)
	lwz 11,8(31)
	lwz 9,12(31)
.LBE2037:
.LBE2036:
	.loc 3 193 0
	lwz 0,160(7)
.LVL118:
.LBB2040:
.LBB2038:
	.loc 5 13 0
	stw 8,8(1)
	stw 10,12(1)
.LBE2038:
.LBE2040:
	.loc 3 193 0
	mtctr 0
.LBB2041:
.LBB2039:
	.loc 5 13 0
	stw 11,16(1)
	stw 9,20(1)
.LBE2039:
.LBE2041:
	.loc 3 193 0
	bctrl
.LVL119:
.L73:
	.loc 3 194 0
	lwz 0,164(1)
	lwz 30,152(1)
.LVL120:
	mtlr 0
	lwz 31,156(1)
.LVL121:
	addi 1,1,160
.LCFI22:
	.cfi_def_cfa_offset 0
	.cfi_restore 31
	.cfi_restore 30
	blr
	.cfi_endproc
.LFE1488:
	.size	_ZN9GuiButton9SetBoundsE4RectIiE, .-_ZN9GuiButton9SetBoundsE4RectIiE
	.section	.text._ZN7sigslot12_signal_baseINS_15single_threadedEED2Ev,"axG",@progbits,_ZN7sigslot12_signal_baseINS_15single_threadedEED5Ev,comdat
	.align 2
	.weak	_ZN7sigslot12_signal_baseINS_15single_threadedEED2Ev
	.type	_ZN7sigslot12_signal_baseINS_15single_threadedEED2Ev, @function
_ZN7sigslot12_signal_baseINS_15single_threadedEED2Ev:
.LFB1531:
	.loc 1 466 0
	.cfi_startproc
.LVL122:
.LBB2042:
.LBB2043:
.LBB2044:
.LBB2045:
	.loc 1 105 0
	lis 9,_ZTVN7sigslot15single_threadedE+8@ha
.LBE2045:
.LBE2044:
.LBE2043:
.LBE2042:
	.loc 1 466 0
.LBB2049:
.LBB2048:
.LBB2047:
.LBB2046:
	.loc 1 105 0
	la 0,_ZTVN7sigslot15single_threadedE+8@l(9)
	stw 0,0(3)
.LBE2046:
.LBE2047:
.LBE2048:
.LBE2049:
	.loc 1 466 0
	blr
	.cfi_endproc
.LFE1531:
	.size	_ZN7sigslot12_signal_baseINS_15single_threadedEED2Ev, .-_ZN7sigslot12_signal_baseINS_15single_threadedEED2Ev
	.section	.text._ZN7sigslot13_signal_base3IP9GuiButtoniRK6_POINTNS_15single_threadedEE14slot_duplicateEPKNS_9has_slotsIS6_EEPS9_,"axG",@progbits,_ZN7sigslot13_signal_base3IP9GuiButtoniRK6_POINTNS_15single_threadedEE14slot_duplicateEPKNS_9has_slotsIS6_EEPS9_,comdat
	.align 2
	.weak	_ZN7sigslot13_signal_base3IP9GuiButtoniRK6_POINTNS_15single_threadedEE14slot_duplicateEPKNS_9has_slotsIS6_EEPS9_
	.type	_ZN7sigslot13_signal_base3IP9GuiButtoniRK6_POINTNS_15single_threadedEE14slot_duplicateEPKNS_9has_slotsIS6_EEPS9_, @function
_ZN7sigslot13_signal_base3IP9GuiButtoniRK6_POINTNS_15single_threadedEE14slot_duplicateEPKNS_9has_slotsIS6_EEPS9_:
.LFB1830:
	.loc 1 926 0
	.cfi_startproc
	.cfi_personality 0,__gxx_personality_v0
	.cfi_lsda 0,.LLSDA1830
.LVL123:
	mflr 0
	stwu 1,-32(1)
.LCFI23:
	.cfi_def_cfa_offset 32
	.cfi_register 65, 0
	stw 26,8(1)
	mr 26,5
	.cfi_offset 26, -24
	stw 0,36(1)
	stw 27,12(1)
	mr 27,3
	.cfi_offset 27, -20
	.cfi_offset 65, 4
.LVL124:
.LBB2050:
.LBB2051:
.LBB2052:
	.loc 1 338 0
	lwz 9,0(3)
.LBE2052:
.LBE2051:
.LBE2050:
	.loc 1 926 0
	stw 29,20(1)
	mr 29,4
	.cfi_offset 29, -12
.LBB2081:
.LBB2057:
.LBB2053:
	.loc 1 338 0
	lwz 0,8(9)
.LBE2053:
.LBE2057:
.LBE2081:
	.loc 1 926 0
	stw 30,24(1)
.LBB2082:
.LBB2058:
.LBB2054:
	.loc 3 406 0
	mr 30,27
	.cfi_offset 30, -8
.LBE2054:
.LBE2058:
.LBE2082:
	.loc 1 926 0
	stw 31,28(1)
.LBB2083:
.LBB2059:
.LBB2055:
	.loc 1 338 0
	mtctr 0
.LBE2055:
.LBE2059:
.LBE2083:
	.loc 1 926 0
	stw 28,16(1)
.LEHB4:
.LBB2084:
.LBB2060:
.LBB2056:
	.loc 1 338 0
	.cfi_offset 28, -16
	.cfi_offset 31, -4
	bctrl
.LEHE4:
.LVL125:
	.loc 3 406 0
	lwzu 31,4(30)
.LVL126:
.LBE2056:
.LBE2060:
	.loc 1 932 0
	cmpw 7,31,30
	bne+ 7,.L96
	b .L87
.LVL127:
.L88:
.LBB2061:
.LBB2062:
	.loc 4 154 0
	lwz 31,0(31)
.LVL128:
.LBE2062:
.LBE2061:
	.loc 1 932 0
	cmpw 7,30,31
	beq- 7,.L87
.LVL129:
.L96:
	.loc 1 934 0
	lwz 3,8(31)
	lwz 9,0(3)
	lwz 0,8(9)
	mtctr 0
.LEHB5:
	bctrl
	cmpw 7,29,3
	bne+ 7,.L88
.LVL130:
	.loc 1 936 0
	lwz 3,8(31)
	mr 4,26
	lwz 9,0(3)
	lwz 0,20(9)
	mtctr 0
	bctrl
	mr 28,3
.LVL131:
.LBB2064:
.LBB2065:
.LBB2066:
.LBB2067:
.LBB2068:
.LBB2069:
.LBB2070:
.LBB2071:
	.file 6 "d:\\devkitpro\\devkitppc\\bin\\../lib/gcc/powerpc-eabi/4.6.3/../../../../powerpc-eabi/include/c++/4.6.3/ext/new_allocator.h"
	.loc 6 92 0
	li 3,12
	bl _Znwj
.LEHE5:
.LVL132:
.LBE2071:
.LBE2070:
.LBE2069:
.LBB2072:
.LBB2073:
	.loc 6 108 0 discriminator 1
	cmpwi 7,3,-8
	beq- 7,.L90
	.loc 6 108 0 is_stmt 0
	stw 28,8(3)
.L90:
.LVL133:
.LBE2073:
.LBE2072:
.LBE2068:
.LBE2067:
	.loc 4 1516 0 is_stmt 1
	mr 4,30
	bl _ZNSt8__detail15_List_node_base7_M_hookEPS0_
.LVL134:
.LBE2066:
.LBE2065:
.LBE2064:
.LBB2074:
.LBB2063:
	.loc 4 154 0
	lwz 31,0(31)
.LVL135:
.LBE2063:
.LBE2074:
	.loc 1 932 0
	cmpw 7,30,31
	bne+ 7,.L96
.LVL136:
.L87:
.LBB2075:
.LBB2076:
.LBB2077:
	.loc 1 343 0
	lwz 9,0(27)
	mr 3,27
	lwz 0,12(9)
	mtctr 0
.LEHB6:
	bctrl
.LEHE6:
.LBE2077:
.LBE2076:
.LBE2075:
.LBE2084:
	.loc 1 941 0
	lwz 0,36(1)
	lwz 26,8(1)
.LVL137:
	mtlr 0
	lwz 27,12(1)
.LVL138:
	lwz 28,16(1)
	lwz 29,20(1)
.LVL139:
	lwz 30,24(1)
.LVL140:
	lwz 31,28(1)
.LVL141:
	addi 1,1,32
	.cfi_remember_state
.LCFI24:
	.cfi_def_cfa_offset 0
	.cfi_restore 31
	.cfi_restore 30
	.cfi_restore 29
	.cfi_restore 28
	.cfi_restore 27
	.cfi_restore 26
	blr
.LVL142:
.L95:
.LCFI25:
	.cfi_restore_state
.LBB2085:
.LBB2078:
.LBB2079:
.LBB2080:
	.loc 1 343 0
	lwz 9,0(27)
	mr 31,3
.LVL143:
	mr 3,27
	lwz 0,12(9)
	mtctr 0
	bctrl
	mr 3,31
.LEHB7:
	bl _Unwind_Resume
.LEHE7:
.LBE2080:
.LBE2079:
.LBE2078:
.LBE2085:
	.cfi_endproc
.LFE1830:
	.section	.gcc_except_table
.LLSDA1830:
	.byte	0xff
	.byte	0xff
	.byte	0x1
	.uleb128 .LLSDACSE1830-.LLSDACSB1830
.LLSDACSB1830:
	.uleb128 .LEHB4-.LFB1830
	.uleb128 .LEHE4-.LEHB4
	.uleb128 0
	.uleb128 0
	.uleb128 .LEHB5-.LFB1830
	.uleb128 .LEHE5-.LEHB5
	.uleb128 .L95-.LFB1830
	.uleb128 0
	.uleb128 .LEHB6-.LFB1830
	.uleb128 .LEHE6-.LEHB6
	.uleb128 0
	.uleb128 0
	.uleb128 .LEHB7-.LFB1830
	.uleb128 .LEHE7-.LEHB7
	.uleb128 0
	.uleb128 0
.LLSDACSE1830:
	.section	.text._ZN7sigslot13_signal_base3IP9GuiButtoniRK6_POINTNS_15single_threadedEE14slot_duplicateEPKNS_9has_slotsIS6_EEPS9_,"axG",@progbits,_ZN7sigslot13_signal_base3IP9GuiButtoniRK6_POINTNS_15single_threadedEE14slot_duplicateEPKNS_9has_slotsIS6_EEPS9_,comdat
	.size	_ZN7sigslot13_signal_base3IP9GuiButtoniRK6_POINTNS_15single_threadedEE14slot_duplicateEPKNS_9has_slotsIS6_EEPS9_, .-_ZN7sigslot13_signal_base3IP9GuiButtoniRK6_POINTNS_15single_threadedEE14slot_duplicateEPKNS_9has_slotsIS6_EEPS9_
	.section	.text._ZN7sigslot13_signal_base3IP10GuiElementiiNS_15single_threadedEE14slot_duplicateEPKNS_9has_slotsIS3_EEPS6_,"axG",@progbits,_ZN7sigslot13_signal_base3IP10GuiElementiiNS_15single_threadedEE14slot_duplicateEPKNS_9has_slotsIS3_EEPS6_,comdat
	.align 2
	.weak	_ZN7sigslot13_signal_base3IP10GuiElementiiNS_15single_threadedEE14slot_duplicateEPKNS_9has_slotsIS3_EEPS6_
	.type	_ZN7sigslot13_signal_base3IP10GuiElementiiNS_15single_threadedEE14slot_duplicateEPKNS_9has_slotsIS3_EEPS6_, @function
_ZN7sigslot13_signal_base3IP10GuiElementiiNS_15single_threadedEE14slot_duplicateEPKNS_9has_slotsIS3_EEPS6_:
.LFB1832:
	.loc 1 926 0
	.cfi_startproc
	.cfi_personality 0,__gxx_personality_v0
	.cfi_lsda 0,.LLSDA1832
.LVL144:
	mflr 0
	stwu 1,-32(1)
.LCFI26:
	.cfi_def_cfa_offset 32
	.cfi_register 65, 0
	stw 26,8(1)
	mr 26,5
	.cfi_offset 26, -24
	stw 0,36(1)
	stw 27,12(1)
	mr 27,3
	.cfi_offset 27, -20
	.cfi_offset 65, 4
.LVL145:
.LBB2086:
.LBB2087:
.LBB2088:
	.loc 1 338 0
	lwz 9,0(3)
.LBE2088:
.LBE2087:
.LBE2086:
	.loc 1 926 0
	stw 29,20(1)
	mr 29,4
	.cfi_offset 29, -12
.LBB2117:
.LBB2093:
.LBB2089:
	.loc 1 338 0
	lwz 0,8(9)
.LBE2089:
.LBE2093:
.LBE2117:
	.loc 1 926 0
	stw 30,24(1)
.LBB2118:
.LBB2094:
.LBB2090:
	.loc 3 406 0
	mr 30,27
	.cfi_offset 30, -8
.LBE2090:
.LBE2094:
.LBE2118:
	.loc 1 926 0
	stw 31,28(1)
.LBB2119:
.LBB2095:
.LBB2091:
	.loc 1 338 0
	mtctr 0
.LBE2091:
.LBE2095:
.LBE2119:
	.loc 1 926 0
	stw 28,16(1)
.LEHB8:
.LBB2120:
.LBB2096:
.LBB2092:
	.loc 1 338 0
	.cfi_offset 28, -16
	.cfi_offset 31, -4
	bctrl
.LEHE8:
.LVL146:
	.loc 3 406 0
	lwzu 31,4(30)
.LVL147:
.LBE2092:
.LBE2096:
	.loc 1 932 0
	cmpw 7,31,30
	bne+ 7,.L108
	b .L99
.LVL148:
.L100:
.LBB2097:
.LBB2098:
	.loc 4 154 0
	lwz 31,0(31)
.LVL149:
.LBE2098:
.LBE2097:
	.loc 1 932 0
	cmpw 7,30,31
	beq- 7,.L99
.LVL150:
.L108:
	.loc 1 934 0
	lwz 3,8(31)
	lwz 9,0(3)
	lwz 0,8(9)
	mtctr 0
.LEHB9:
	bctrl
	cmpw 7,29,3
	bne+ 7,.L100
.LVL151:
	.loc 1 936 0
	lwz 3,8(31)
	mr 4,26
	lwz 9,0(3)
	lwz 0,20(9)
	mtctr 0
	bctrl
	mr 28,3
.LVL152:
.LBB2100:
.LBB2101:
.LBB2102:
.LBB2103:
.LBB2104:
.LBB2105:
.LBB2106:
.LBB2107:
	.loc 6 92 0
	li 3,12
	bl _Znwj
.LEHE9:
.LVL153:
.LBE2107:
.LBE2106:
.LBE2105:
.LBB2108:
.LBB2109:
	.loc 6 108 0 discriminator 1
	cmpwi 7,3,-8
	beq- 7,.L102
	.loc 6 108 0 is_stmt 0
	stw 28,8(3)
.L102:
.LVL154:
.LBE2109:
.LBE2108:
.LBE2104:
.LBE2103:
	.loc 4 1516 0 is_stmt 1
	mr 4,30
	bl _ZNSt8__detail15_List_node_base7_M_hookEPS0_
.LVL155:
.LBE2102:
.LBE2101:
.LBE2100:
.LBB2110:
.LBB2099:
	.loc 4 154 0
	lwz 31,0(31)
.LVL156:
.LBE2099:
.LBE2110:
	.loc 1 932 0
	cmpw 7,30,31
	bne+ 7,.L108
.LVL157:
.L99:
.LBB2111:
.LBB2112:
.LBB2113:
	.loc 1 343 0
	lwz 9,0(27)
	mr 3,27
	lwz 0,12(9)
	mtctr 0
.LEHB10:
	bctrl
.LEHE10:
.LBE2113:
.LBE2112:
.LBE2111:
.LBE2120:
	.loc 1 941 0
	lwz 0,36(1)
	lwz 26,8(1)
.LVL158:
	mtlr 0
	lwz 27,12(1)
.LVL159:
	lwz 28,16(1)
	lwz 29,20(1)
.LVL160:
	lwz 30,24(1)
.LVL161:
	lwz 31,28(1)
.LVL162:
	addi 1,1,32
	.cfi_remember_state
.LCFI27:
	.cfi_def_cfa_offset 0
	.cfi_restore 31
	.cfi_restore 30
	.cfi_restore 29
	.cfi_restore 28
	.cfi_restore 27
	.cfi_restore 26
	blr
.LVL163:
.L107:
.LCFI28:
	.cfi_restore_state
.LBB2121:
.LBB2114:
.LBB2115:
.LBB2116:
	.loc 1 343 0
	lwz 9,0(27)
	mr 31,3
.LVL164:
	mr 3,27
	lwz 0,12(9)
	mtctr 0
	bctrl
	mr 3,31
.LEHB11:
	bl _Unwind_Resume
.LEHE11:
.LBE2116:
.LBE2115:
.LBE2114:
.LBE2121:
	.cfi_endproc
.LFE1832:
	.section	.gcc_except_table
.LLSDA1832:
	.byte	0xff
	.byte	0xff
	.byte	0x1
	.uleb128 .LLSDACSE1832-.LLSDACSB1832
.LLSDACSB1832:
	.uleb128 .LEHB8-.LFB1832
	.uleb128 .LEHE8-.LEHB8
	.uleb128 0
	.uleb128 0
	.uleb128 .LEHB9-.LFB1832
	.uleb128 .LEHE9-.LEHB9
	.uleb128 .L107-.LFB1832
	.uleb128 0
	.uleb128 .LEHB10-.LFB1832
	.uleb128 .LEHE10-.LEHB10
	.uleb128 0
	.uleb128 0
	.uleb128 .LEHB11-.LFB1832
	.uleb128 .LEHE11-.LEHB11
	.uleb128 0
	.uleb128 0
.LLSDACSE1832:
	.section	.text._ZN7sigslot13_signal_base3IP10GuiElementiiNS_15single_threadedEE14slot_duplicateEPKNS_9has_slotsIS3_EEPS6_,"axG",@progbits,_ZN7sigslot13_signal_base3IP10GuiElementiiNS_15single_threadedEE14slot_duplicateEPKNS_9has_slotsIS3_EEPS6_,comdat
	.size	_ZN7sigslot13_signal_base3IP10GuiElementiiNS_15single_threadedEE14slot_duplicateEPKNS_9has_slotsIS3_EEPS6_, .-_ZN7sigslot13_signal_base3IP10GuiElementiiNS_15single_threadedEE14slot_duplicateEPKNS_9has_slotsIS3_EEPS6_
	.section	.text._ZN7sigslot13_signal_base2IP10GuiElementbNS_15single_threadedEE14slot_duplicateEPKNS_9has_slotsIS3_EEPS6_,"axG",@progbits,_ZN7sigslot13_signal_base2IP10GuiElementbNS_15single_threadedEE14slot_duplicateEPKNS_9has_slotsIS3_EEPS6_,comdat
	.align 2
	.weak	_ZN7sigslot13_signal_base2IP10GuiElementbNS_15single_threadedEE14slot_duplicateEPKNS_9has_slotsIS3_EEPS6_
	.type	_ZN7sigslot13_signal_base2IP10GuiElementbNS_15single_threadedEE14slot_duplicateEPKNS_9has_slotsIS3_EEPS6_, @function
_ZN7sigslot13_signal_base2IP10GuiElementbNS_15single_threadedEE14slot_duplicateEPKNS_9has_slotsIS3_EEPS6_:
.LFB1834:
	.loc 1 806 0
	.cfi_startproc
	.cfi_personality 0,__gxx_personality_v0
	.cfi_lsda 0,.LLSDA1834
.LVL165:
	mflr 0
	stwu 1,-32(1)
.LCFI29:
	.cfi_def_cfa_offset 32
	.cfi_register 65, 0
	stw 26,8(1)
	mr 26,5
	.cfi_offset 26, -24
	stw 0,36(1)
	stw 27,12(1)
	mr 27,3
	.cfi_offset 27, -20
	.cfi_offset 65, 4
.LVL166:
.LBB2122:
.LBB2123:
.LBB2124:
	.loc 1 338 0
	lwz 9,0(3)
.LBE2124:
.LBE2123:
.LBE2122:
	.loc 1 806 0
	stw 29,20(1)
	mr 29,4
	.cfi_offset 29, -12
.LBB2153:
.LBB2129:
.LBB2125:
	.loc 1 338 0
	lwz 0,8(9)
.LBE2125:
.LBE2129:
.LBE2153:
	.loc 1 806 0
	stw 30,24(1)
.LBB2154:
.LBB2130:
.LBB2126:
	.loc 3 406 0
	mr 30,27
	.cfi_offset 30, -8
.LBE2126:
.LBE2130:
.LBE2154:
	.loc 1 806 0
	stw 31,28(1)
.LBB2155:
.LBB2131:
.LBB2127:
	.loc 1 338 0
	mtctr 0
.LBE2127:
.LBE2131:
.LBE2155:
	.loc 1 806 0
	stw 28,16(1)
.LEHB12:
.LBB2156:
.LBB2132:
.LBB2128:
	.loc 1 338 0
	.cfi_offset 28, -16
	.cfi_offset 31, -4
	bctrl
.LEHE12:
.LVL167:
	.loc 3 406 0
	lwzu 31,4(30)
.LVL168:
.LBE2128:
.LBE2132:
	.loc 1 812 0
	cmpw 7,31,30
	bne+ 7,.L120
	b .L111
.LVL169:
.L112:
.LBB2133:
.LBB2134:
	.loc 4 154 0
	lwz 31,0(31)
.LVL170:
.LBE2134:
.LBE2133:
	.loc 1 812 0
	cmpw 7,30,31
	beq- 7,.L111
.LVL171:
.L120:
	.loc 1 814 0
	lwz 3,8(31)
	lwz 9,0(3)
	lwz 0,8(9)
	mtctr 0
.LEHB13:
	bctrl
	cmpw 7,29,3
	bne+ 7,.L112
.LVL172:
	.loc 1 816 0
	lwz 3,8(31)
	mr 4,26
	lwz 9,0(3)
	lwz 0,20(9)
	mtctr 0
	bctrl
	mr 28,3
.LVL173:
.LBB2136:
.LBB2137:
.LBB2138:
.LBB2139:
.LBB2140:
.LBB2141:
.LBB2142:
.LBB2143:
	.loc 6 92 0
	li 3,12
	bl _Znwj
.LEHE13:
.LVL174:
.LBE2143:
.LBE2142:
.LBE2141:
.LBB2144:
.LBB2145:
	.loc 6 108 0 discriminator 1
	cmpwi 7,3,-8
	beq- 7,.L114
	.loc 6 108 0 is_stmt 0
	stw 28,8(3)
.L114:
.LVL175:
.LBE2145:
.LBE2144:
.LBE2140:
.LBE2139:
	.loc 4 1516 0 is_stmt 1
	mr 4,30
	bl _ZNSt8__detail15_List_node_base7_M_hookEPS0_
.LVL176:
.LBE2138:
.LBE2137:
.LBE2136:
.LBB2146:
.LBB2135:
	.loc 4 154 0
	lwz 31,0(31)
.LVL177:
.LBE2135:
.LBE2146:
	.loc 1 812 0
	cmpw 7,30,31
	bne+ 7,.L120
.LVL178:
.L111:
.LBB2147:
.LBB2148:
.LBB2149:
	.loc 1 343 0
	lwz 9,0(27)
	mr 3,27
	lwz 0,12(9)
	mtctr 0
.LEHB14:
	bctrl
.LEHE14:
.LBE2149:
.LBE2148:
.LBE2147:
.LBE2156:
	.loc 1 821 0
	lwz 0,36(1)
	lwz 26,8(1)
.LVL179:
	mtlr 0
	lwz 27,12(1)
.LVL180:
	lwz 28,16(1)
	lwz 29,20(1)
.LVL181:
	lwz 30,24(1)
.LVL182:
	lwz 31,28(1)
.LVL183:
	addi 1,1,32
	.cfi_remember_state
.LCFI30:
	.cfi_def_cfa_offset 0
	.cfi_restore 31
	.cfi_restore 30
	.cfi_restore 29
	.cfi_restore 28
	.cfi_restore 27
	.cfi_restore 26
	blr
.LVL184:
.L119:
.LCFI31:
	.cfi_restore_state
.LBB2157:
.LBB2150:
.LBB2151:
.LBB2152:
	.loc 1 343 0
	lwz 9,0(27)
	mr 31,3
.LVL185:
	mr 3,27
	lwz 0,12(9)
	mtctr 0
	bctrl
	mr 3,31
.LEHB15:
	bl _Unwind_Resume
.LEHE15:
.LBE2152:
.LBE2151:
.LBE2150:
.LBE2157:
	.cfi_endproc
.LFE1834:
	.section	.gcc_except_table
.LLSDA1834:
	.byte	0xff
	.byte	0xff
	.byte	0x1
	.uleb128 .LLSDACSE1834-.LLSDACSB1834
.LLSDACSB1834:
	.uleb128 .LEHB12-.LFB1834
	.uleb128 .LEHE12-.LEHB12
	.uleb128 0
	.uleb128 0
	.uleb128 .LEHB13-.LFB1834
	.uleb128 .LEHE13-.LEHB13
	.uleb128 .L119-.LFB1834
	.uleb128 0
	.uleb128 .LEHB14-.LFB1834
	.uleb128 .LEHE14-.LEHB14
	.uleb128 0
	.uleb128 0
	.uleb128 .LEHB15-.LFB1834
	.uleb128 .LEHE15-.LEHB15
	.uleb128 0
	.uleb128 0
.LLSDACSE1834:
	.section	.text._ZN7sigslot13_signal_base2IP10GuiElementbNS_15single_threadedEE14slot_duplicateEPKNS_9has_slotsIS3_EEPS6_,"axG",@progbits,_ZN7sigslot13_signal_base2IP10GuiElementbNS_15single_threadedEE14slot_duplicateEPKNS_9has_slotsIS3_EEPS6_,comdat
	.size	_ZN7sigslot13_signal_base2IP10GuiElementbNS_15single_threadedEE14slot_duplicateEPKNS_9has_slotsIS3_EEPS6_, .-_ZN7sigslot13_signal_base2IP10GuiElementbNS_15single_threadedEE14slot_duplicateEPKNS_9has_slotsIS3_EEPS6_
	.section	.text._ZN7sigslot12_signal_baseINS_15single_threadedEED0Ev,"axG",@progbits,_ZN7sigslot12_signal_baseINS_15single_threadedEED5Ev,comdat
	.align 2
	.weak	_ZN7sigslot12_signal_baseINS_15single_threadedEED0Ev
	.type	_ZN7sigslot12_signal_baseINS_15single_threadedEED0Ev, @function
_ZN7sigslot12_signal_baseINS_15single_threadedEED0Ev:
.LFB1533:
	.loc 1 466 0
	.cfi_startproc
.LVL186:
	mflr 0
	stwu 1,-8(1)
.LCFI32:
	.cfi_def_cfa_offset 8
	.cfi_register 65, 0
.LBB2158:
.LBB2159:
.LBB2160:
.LBB2161:
.LBB2162:
.LBB2163:
	.loc 1 105 0
	lis 9,_ZTVN7sigslot15single_threadedE+8@ha
.LBE2163:
.LBE2162:
.LBE2161:
.LBE2160:
.LBE2159:
.LBE2158:
	.loc 1 466 0
	stw 0,12(1)
.LBB2169:
.LBB2168:
.LBB2167:
.LBB2166:
.LBB2165:
.LBB2164:
	.loc 1 105 0
	la 0,_ZTVN7sigslot15single_threadedE+8@l(9)
	.cfi_offset 65, 4
	stw 0,0(3)
.LBE2164:
.LBE2165:
.LBE2166:
.LBE2167:
.LBE2168:
.LBE2169:
	.loc 1 466 0
	bl _ZdlPv
.LVL187:
	lwz 0,12(1)
	addi 1,1,8
.LCFI33:
	.cfi_def_cfa_offset 0
	mtlr 0
	blr
	.cfi_endproc
.LFE1533:
	.size	_ZN7sigslot12_signal_baseINS_15single_threadedEED0Ev, .-_ZN7sigslot12_signal_baseINS_15single_threadedEED0Ev
	.section	.text._ZN7sigslot15single_threadedD0Ev,"axG",@progbits,_ZN7sigslot15single_threadedD5Ev,comdat
	.align 2
	.weak	_ZN7sigslot15single_threadedD0Ev
	.type	_ZN7sigslot15single_threadedD0Ev, @function
_ZN7sigslot15single_threadedD0Ev:
.LFB1150:
	.loc 1 104 0
	.cfi_startproc
.LVL188:
	mflr 0
	stwu 1,-8(1)
.LCFI34:
	.cfi_def_cfa_offset 8
	.cfi_register 65, 0
.LBB2170:
.LBB2171:
.LBB2172:
	.loc 1 105 0
	lis 9,_ZTVN7sigslot15single_threadedE+8@ha
.LBE2172:
.LBE2171:
.LBE2170:
	.loc 1 104 0
	stw 0,12(1)
.LBB2175:
.LBB2174:
.LBB2173:
	.loc 1 105 0
	la 0,_ZTVN7sigslot15single_threadedE+8@l(9)
	.cfi_offset 65, 4
	stw 0,0(3)
.LBE2173:
.LBE2174:
.LBE2175:
	.loc 1 107 0
	bl _ZdlPv
.LVL189:
	lwz 0,12(1)
	addi 1,1,8
.LCFI35:
	.cfi_def_cfa_offset 0
	mtlr 0
	blr
	.cfi_endproc
.LFE1150:
	.size	_ZN7sigslot15single_threadedD0Ev, .-_ZN7sigslot15single_threadedD0Ev
	.section	.text._ZN7sigslot13_signal_base3IP9GuiButtoniRK6_POINTNS_15single_threadedEE15slot_disconnectEPNS_9has_slotsIS6_EE,"axG",@progbits,_ZN7sigslot13_signal_base3IP9GuiButtoniRK6_POINTNS_15single_threadedEE15slot_disconnectEPNS_9has_slotsIS6_EE,comdat
	.align 2
	.weak	_ZN7sigslot13_signal_base3IP9GuiButtoniRK6_POINTNS_15single_threadedEE15slot_disconnectEPNS_9has_slotsIS6_EE
	.type	_ZN7sigslot13_signal_base3IP9GuiButtoniRK6_POINTNS_15single_threadedEE15slot_disconnectEPNS_9has_slotsIS6_EE, @function
_ZN7sigslot13_signal_base3IP9GuiButtoniRK6_POINTNS_15single_threadedEE15slot_disconnectEPNS_9has_slotsIS6_EE:
.LFB1829:
	.loc 1 990 0
	.cfi_startproc
	.cfi_personality 0,__gxx_personality_v0
	.cfi_lsda 0,.LLSDA1829
.LVL190:
	mflr 0
	stwu 1,-32(1)
.LCFI36:
	.cfi_def_cfa_offset 32
	.cfi_register 65, 0
	stw 27,12(1)
	mr 27,3
	.cfi_offset 27, -20
.LVL191:
	stw 0,36(1)
	stw 28,16(1)
	mr 28,4
	.cfi_offset 28, -16
	.cfi_offset 65, 4
.LBB2176:
.LBB2177:
.LBB2178:
	.loc 1 338 0
	lwz 9,0(3)
.LBE2178:
.LBE2177:
.LBE2176:
	.loc 1 990 0
	stw 29,20(1)
.LBB2199:
.LBB2181:
.LBB2179:
	.loc 3 406 0
	mr 29,27
	.cfi_offset 29, -12
	.loc 1 338 0
	lwz 0,8(9)
.LBE2179:
.LBE2181:
.LBE2199:
	.loc 1 990 0
	stw 31,28(1)
	stw 30,24(1)
.LBB2200:
.LBB2182:
.LBB2180:
	.loc 1 338 0
	mtctr 0
.LEHB16:
	.cfi_offset 30, -8
	.cfi_offset 31, -4
	bctrl
.LEHE16:
.LVL192:
	.loc 3 406 0
	lwzu 31,4(29)
.LVL193:
.LBE2180:
.LBE2182:
	.loc 1 996 0
	cmpw 7,31,29
	bne+ 7,.L141
	b .L130
.LVL194:
.L131:
	.loc 1 996 0 is_stmt 0 discriminator 1
	cmpw 7,29,30
	beq- 7,.L130
.L139:
	.loc 1 996 0
	mr 31,30
.LVL195:
.L141:
.LBB2183:
	.loc 1 1001 0 is_stmt 1
	lwz 3,8(31)
.LBB2184:
.LBB2185:
	.loc 4 154 0
	lwz 30,0(31)
.LVL196:
.LBE2185:
.LBE2184:
	.loc 1 1001 0
	lwz 9,0(3)
	lwz 0,8(9)
	mtctr 0
.LEHB17:
	bctrl
.LVL197:
	cmpw 7,28,3
	bne+ 7,.L131
.LVL198:
	.loc 1 1003 0
	lwz 3,8(31)
	cmpwi 7,3,0
	beq- 7,.L132
	.loc 1 1003 0 is_stmt 0 discriminator 1
	lwz 9,0(3)
	lwz 0,4(9)
	mtctr 0
	bctrl
.LEHE17:
.L132:
.LVL199:
.LBB2186:
.LBB2187:
.LBB2188:
.LBB2189:
	.loc 4 1532 0 is_stmt 1
	mr 3,31
	bl _ZNSt8__detail15_List_node_base9_M_unhookEv
.LVL200:
.LBB2190:
.LBB2191:
.LBB2192:
	.loc 6 98 0
	mr 3,31
	bl _ZdlPv
.LVL201:
.LBE2192:
.LBE2191:
.LBE2190:
.LBE2189:
.LBE2188:
.LBE2187:
.LBE2186:
.LBE2183:
	.loc 1 996 0
	cmpw 7,29,30
	bne+ 7,.L139
.LVL202:
.L130:
.LBB2193:
.LBB2194:
.LBB2195:
	.loc 1 343 0
	lwz 9,0(27)
	mr 3,27
	lwz 0,12(9)
	mtctr 0
.LEHB18:
	bctrl
.LEHE18:
.LBE2195:
.LBE2194:
.LBE2193:
.LBE2200:
	.loc 1 1010 0
	lwz 0,36(1)
	lwz 27,12(1)
.LVL203:
	mtlr 0
	lwz 28,16(1)
.LVL204:
	lwz 29,20(1)
.LVL205:
	lwz 30,24(1)
	lwz 31,28(1)
	addi 1,1,32
	.cfi_remember_state
.LCFI37:
	.cfi_def_cfa_offset 0
	.cfi_restore 31
	.cfi_restore 30
	.cfi_restore 29
	.cfi_restore 28
	.cfi_restore 27
	blr
.LVL206:
.L140:
.LCFI38:
	.cfi_restore_state
.LBB2201:
.LBB2196:
.LBB2197:
.LBB2198:
	.loc 1 343 0
	lwz 9,0(27)
	mr 31,3
.LVL207:
	mr 3,27
	lwz 0,12(9)
	mtctr 0
	bctrl
	mr 3,31
.LEHB19:
	bl _Unwind_Resume
.LEHE19:
.LBE2198:
.LBE2197:
.LBE2196:
.LBE2201:
	.cfi_endproc
.LFE1829:
	.section	.gcc_except_table
.LLSDA1829:
	.byte	0xff
	.byte	0xff
	.byte	0x1
	.uleb128 .LLSDACSE1829-.LLSDACSB1829
.LLSDACSB1829:
	.uleb128 .LEHB16-.LFB1829
	.uleb128 .LEHE16-.LEHB16
	.uleb128 0
	.uleb128 0
	.uleb128 .LEHB17-.LFB1829
	.uleb128 .LEHE17-.LEHB17
	.uleb128 .L140-.LFB1829
	.uleb128 0
	.uleb128 .LEHB18-.LFB1829
	.uleb128 .LEHE18-.LEHB18
	.uleb128 0
	.uleb128 0
	.uleb128 .LEHB19-.LFB1829
	.uleb128 .LEHE19-.LEHB19
	.uleb128 0
	.uleb128 0
.LLSDACSE1829:
	.section	.text._ZN7sigslot13_signal_base3IP9GuiButtoniRK6_POINTNS_15single_threadedEE15slot_disconnectEPNS_9has_slotsIS6_EE,"axG",@progbits,_ZN7sigslot13_signal_base3IP9GuiButtoniRK6_POINTNS_15single_threadedEE15slot_disconnectEPNS_9has_slotsIS6_EE,comdat
	.size	_ZN7sigslot13_signal_base3IP9GuiButtoniRK6_POINTNS_15single_threadedEE15slot_disconnectEPNS_9has_slotsIS6_EE, .-_ZN7sigslot13_signal_base3IP9GuiButtoniRK6_POINTNS_15single_threadedEE15slot_disconnectEPNS_9has_slotsIS6_EE
	.section	.text._ZN7sigslot13_signal_base3IP10GuiElementiiNS_15single_threadedEE15slot_disconnectEPNS_9has_slotsIS3_EE,"axG",@progbits,_ZN7sigslot13_signal_base3IP10GuiElementiiNS_15single_threadedEE15slot_disconnectEPNS_9has_slotsIS3_EE,comdat
	.align 2
	.weak	_ZN7sigslot13_signal_base3IP10GuiElementiiNS_15single_threadedEE15slot_disconnectEPNS_9has_slotsIS3_EE
	.type	_ZN7sigslot13_signal_base3IP10GuiElementiiNS_15single_threadedEE15slot_disconnectEPNS_9has_slotsIS3_EE, @function
_ZN7sigslot13_signal_base3IP10GuiElementiiNS_15single_threadedEE15slot_disconnectEPNS_9has_slotsIS3_EE:
.LFB1831:
	.loc 1 990 0
	.cfi_startproc
	.cfi_personality 0,__gxx_personality_v0
	.cfi_lsda 0,.LLSDA1831
.LVL208:
	mflr 0
	stwu 1,-32(1)
.LCFI39:
	.cfi_def_cfa_offset 32
	.cfi_register 65, 0
	stw 27,12(1)
	mr 27,3
	.cfi_offset 27, -20
.LVL209:
	stw 0,36(1)
	stw 28,16(1)
	mr 28,4
	.cfi_offset 28, -16
	.cfi_offset 65, 4
.LBB2202:
.LBB2203:
.LBB2204:
	.loc 1 338 0
	lwz 9,0(3)
.LBE2204:
.LBE2203:
.LBE2202:
	.loc 1 990 0
	stw 29,20(1)
.LBB2225:
.LBB2207:
.LBB2205:
	.loc 3 406 0
	mr 29,27
	.cfi_offset 29, -12
	.loc 1 338 0
	lwz 0,8(9)
.LBE2205:
.LBE2207:
.LBE2225:
	.loc 1 990 0
	stw 31,28(1)
	stw 30,24(1)
.LBB2226:
.LBB2208:
.LBB2206:
	.loc 1 338 0
	mtctr 0
.LEHB20:
	.cfi_offset 30, -8
	.cfi_offset 31, -4
	bctrl
.LEHE20:
.LVL210:
	.loc 3 406 0
	lwzu 31,4(29)
.LVL211:
.LBE2206:
.LBE2208:
	.loc 1 996 0
	cmpw 7,31,29
	bne+ 7,.L154
	b .L143
.LVL212:
.L144:
	.loc 1 996 0 is_stmt 0 discriminator 1
	cmpw 7,29,30
	beq- 7,.L143
.L152:
	.loc 1 996 0
	mr 31,30
.LVL213:
.L154:
.LBB2209:
	.loc 1 1001 0 is_stmt 1
	lwz 3,8(31)
.LBB2210:
.LBB2211:
	.loc 4 154 0
	lwz 30,0(31)
.LVL214:
.LBE2211:
.LBE2210:
	.loc 1 1001 0
	lwz 9,0(3)
	lwz 0,8(9)
	mtctr 0
.LEHB21:
	bctrl
.LVL215:
	cmpw 7,28,3
	bne+ 7,.L144
.LVL216:
	.loc 1 1003 0
	lwz 3,8(31)
	cmpwi 7,3,0
	beq- 7,.L145
	.loc 1 1003 0 is_stmt 0 discriminator 1
	lwz 9,0(3)
	lwz 0,4(9)
	mtctr 0
	bctrl
.LEHE21:
.L145:
.LVL217:
.LBB2212:
.LBB2213:
.LBB2214:
.LBB2215:
	.loc 4 1532 0 is_stmt 1
	mr 3,31
	bl _ZNSt8__detail15_List_node_base9_M_unhookEv
.LVL218:
.LBB2216:
.LBB2217:
.LBB2218:
	.loc 6 98 0
	mr 3,31
	bl _ZdlPv
.LVL219:
.LBE2218:
.LBE2217:
.LBE2216:
.LBE2215:
.LBE2214:
.LBE2213:
.LBE2212:
.LBE2209:
	.loc 1 996 0
	cmpw 7,29,30
	bne+ 7,.L152
.LVL220:
.L143:
.LBB2219:
.LBB2220:
.LBB2221:
	.loc 1 343 0
	lwz 9,0(27)
	mr 3,27
	lwz 0,12(9)
	mtctr 0
.LEHB22:
	bctrl
.LEHE22:
.LBE2221:
.LBE2220:
.LBE2219:
.LBE2226:
	.loc 1 1010 0
	lwz 0,36(1)
	lwz 27,12(1)
.LVL221:
	mtlr 0
	lwz 28,16(1)
.LVL222:
	lwz 29,20(1)
.LVL223:
	lwz 30,24(1)
	lwz 31,28(1)
	addi 1,1,32
	.cfi_remember_state
.LCFI40:
	.cfi_def_cfa_offset 0
	.cfi_restore 31
	.cfi_restore 30
	.cfi_restore 29
	.cfi_restore 28
	.cfi_restore 27
	blr
.LVL224:
.L153:
.LCFI41:
	.cfi_restore_state
.LBB2227:
.LBB2222:
.LBB2223:
.LBB2224:
	.loc 1 343 0
	lwz 9,0(27)
	mr 31,3
.LVL225:
	mr 3,27
	lwz 0,12(9)
	mtctr 0
	bctrl
	mr 3,31
.LEHB23:
	bl _Unwind_Resume
.LEHE23:
.LBE2224:
.LBE2223:
.LBE2222:
.LBE2227:
	.cfi_endproc
.LFE1831:
	.section	.gcc_except_table
.LLSDA1831:
	.byte	0xff
	.byte	0xff
	.byte	0x1
	.uleb128 .LLSDACSE1831-.LLSDACSB1831
.LLSDACSB1831:
	.uleb128 .LEHB20-.LFB1831
	.uleb128 .LEHE20-.LEHB20
	.uleb128 0
	.uleb128 0
	.uleb128 .LEHB21-.LFB1831
	.uleb128 .LEHE21-.LEHB21
	.uleb128 .L153-.LFB1831
	.uleb128 0
	.uleb128 .LEHB22-.LFB1831
	.uleb128 .LEHE22-.LEHB22
	.uleb128 0
	.uleb128 0
	.uleb128 .LEHB23-.LFB1831
	.uleb128 .LEHE23-.LEHB23
	.uleb128 0
	.uleb128 0
.LLSDACSE1831:
	.section	.text._ZN7sigslot13_signal_base3IP10GuiElementiiNS_15single_threadedEE15slot_disconnectEPNS_9has_slotsIS3_EE,"axG",@progbits,_ZN7sigslot13_signal_base3IP10GuiElementiiNS_15single_threadedEE15slot_disconnectEPNS_9has_slotsIS3_EE,comdat
	.size	_ZN7sigslot13_signal_base3IP10GuiElementiiNS_15single_threadedEE15slot_disconnectEPNS_9has_slotsIS3_EE, .-_ZN7sigslot13_signal_base3IP10GuiElementiiNS_15single_threadedEE15slot_disconnectEPNS_9has_slotsIS3_EE
	.section	.text._ZN7sigslot13_signal_base2IP10GuiElementbNS_15single_threadedEE15slot_disconnectEPNS_9has_slotsIS3_EE,"axG",@progbits,_ZN7sigslot13_signal_base2IP10GuiElementbNS_15single_threadedEE15slot_disconnectEPNS_9has_slotsIS3_EE,comdat
	.align 2
	.weak	_ZN7sigslot13_signal_base2IP10GuiElementbNS_15single_threadedEE15slot_disconnectEPNS_9has_slotsIS3_EE
	.type	_ZN7sigslot13_signal_base2IP10GuiElementbNS_15single_threadedEE15slot_disconnectEPNS_9has_slotsIS3_EE, @function
_ZN7sigslot13_signal_base2IP10GuiElementbNS_15single_threadedEE15slot_disconnectEPNS_9has_slotsIS3_EE:
.LFB1833:
	.loc 1 870 0
	.cfi_startproc
	.cfi_personality 0,__gxx_personality_v0
	.cfi_lsda 0,.LLSDA1833
.LVL226:
	mflr 0
	stwu 1,-32(1)
.LCFI42:
	.cfi_def_cfa_offset 32
	.cfi_register 65, 0
	stw 27,12(1)
	mr 27,3
	.cfi_offset 27, -20
.LVL227:
	stw 0,36(1)
	stw 28,16(1)
	mr 28,4
	.cfi_offset 28, -16
	.cfi_offset 65, 4
.LBB2228:
.LBB2229:
.LBB2230:
	.loc 1 338 0
	lwz 9,0(3)
.LBE2230:
.LBE2229:
.LBE2228:
	.loc 1 870 0
	stw 29,20(1)
.LBB2251:
.LBB2233:
.LBB2231:
	.loc 3 406 0
	mr 29,27
	.cfi_offset 29, -12
	.loc 1 338 0
	lwz 0,8(9)
.LBE2231:
.LBE2233:
.LBE2251:
	.loc 1 870 0
	stw 31,28(1)
	stw 30,24(1)
.LBB2252:
.LBB2234:
.LBB2232:
	.loc 1 338 0
	mtctr 0
.LEHB24:
	.cfi_offset 30, -8
	.cfi_offset 31, -4
	bctrl
.LEHE24:
.LVL228:
	.loc 3 406 0
	lwzu 31,4(29)
.LVL229:
.LBE2232:
.LBE2234:
	.loc 1 876 0
	cmpw 7,31,29
	bne+ 7,.L167
	b .L156
.LVL230:
.L157:
	.loc 1 876 0 is_stmt 0 discriminator 1
	cmpw 7,29,30
	beq- 7,.L156
.L165:
	.loc 1 876 0
	mr 31,30
.LVL231:
.L167:
.LBB2235:
	.loc 1 881 0 is_stmt 1
	lwz 3,8(31)
.LBB2236:
.LBB2237:
	.loc 4 154 0
	lwz 30,0(31)
.LVL232:
.LBE2237:
.LBE2236:
	.loc 1 881 0
	lwz 9,0(3)
	lwz 0,8(9)
	mtctr 0
.LEHB25:
	bctrl
.LVL233:
	cmpw 7,28,3
	bne+ 7,.L157
.LVL234:
	.loc 1 883 0
	lwz 3,8(31)
	cmpwi 7,3,0
	beq- 7,.L158
	.loc 1 883 0 is_stmt 0 discriminator 1
	lwz 9,0(3)
	lwz 0,4(9)
	mtctr 0
	bctrl
.LEHE25:
.L158:
.LVL235:
.LBB2238:
.LBB2239:
.LBB2240:
.LBB2241:
	.loc 4 1532 0 is_stmt 1
	mr 3,31
	bl _ZNSt8__detail15_List_node_base9_M_unhookEv
.LVL236:
.LBB2242:
.LBB2243:
.LBB2244:
	.loc 6 98 0
	mr 3,31
	bl _ZdlPv
.LVL237:
.LBE2244:
.LBE2243:
.LBE2242:
.LBE2241:
.LBE2240:
.LBE2239:
.LBE2238:
.LBE2235:
	.loc 1 876 0
	cmpw 7,29,30
	bne+ 7,.L165
.LVL238:
.L156:
.LBB2245:
.LBB2246:
.LBB2247:
	.loc 1 343 0
	lwz 9,0(27)
	mr 3,27
	lwz 0,12(9)
	mtctr 0
.LEHB26:
	bctrl
.LEHE26:
.LBE2247:
.LBE2246:
.LBE2245:
.LBE2252:
	.loc 1 890 0
	lwz 0,36(1)
	lwz 27,12(1)
.LVL239:
	mtlr 0
	lwz 28,16(1)
.LVL240:
	lwz 29,20(1)
.LVL241:
	lwz 30,24(1)
	lwz 31,28(1)
	addi 1,1,32
	.cfi_remember_state
.LCFI43:
	.cfi_def_cfa_offset 0
	.cfi_restore 31
	.cfi_restore 30
	.cfi_restore 29
	.cfi_restore 28
	.cfi_restore 27
	blr
.LVL242:
.L166:
.LCFI44:
	.cfi_restore_state
.LBB2253:
.LBB2248:
.LBB2249:
.LBB2250:
	.loc 1 343 0
	lwz 9,0(27)
	mr 31,3
.LVL243:
	mr 3,27
	lwz 0,12(9)
	mtctr 0
	bctrl
	mr 3,31
.LEHB27:
	bl _Unwind_Resume
.LEHE27:
.LBE2250:
.LBE2249:
.LBE2248:
.LBE2253:
	.cfi_endproc
.LFE1833:
	.section	.gcc_except_table
.LLSDA1833:
	.byte	0xff
	.byte	0xff
	.byte	0x1
	.uleb128 .LLSDACSE1833-.LLSDACSB1833
.LLSDACSB1833:
	.uleb128 .LEHB24-.LFB1833
	.uleb128 .LEHE24-.LEHB24
	.uleb128 0
	.uleb128 0
	.uleb128 .LEHB25-.LFB1833
	.uleb128 .LEHE25-.LEHB25
	.uleb128 .L166-.LFB1833
	.uleb128 0
	.uleb128 .LEHB26-.LFB1833
	.uleb128 .LEHE26-.LEHB26
	.uleb128 0
	.uleb128 0
	.uleb128 .LEHB27-.LFB1833
	.uleb128 .LEHE27-.LEHB27
	.uleb128 0
	.uleb128 0
.LLSDACSE1833:
	.section	.text._ZN7sigslot13_signal_base2IP10GuiElementbNS_15single_threadedEE15slot_disconnectEPNS_9has_slotsIS3_EE,"axG",@progbits,_ZN7sigslot13_signal_base2IP10GuiElementbNS_15single_threadedEE15slot_disconnectEPNS_9has_slotsIS3_EE,comdat
	.size	_ZN7sigslot13_signal_base2IP10GuiElementbNS_15single_threadedEE15slot_disconnectEPNS_9has_slotsIS3_EE, .-_ZN7sigslot13_signal_base2IP10GuiElementbNS_15single_threadedEE15slot_disconnectEPNS_9has_slotsIS3_EE
	.section	.text._ZN10GuiElement10ResetStateEv,"axG",@progbits,_ZN10GuiElement10ResetStateEv,comdat
	.align 2
	.weak	_ZN10GuiElement10ResetStateEv
	.type	_ZN10GuiElement10ResetStateEv, @function
_ZN10GuiElement10ResetStateEv:
.LFB1402:
	.loc 2 183 0
	.cfi_startproc
.LVL244:
	mflr 0
	stwu 1,-8(1)
.LCFI45:
	.cfi_def_cfa_offset 8
	.cfi_register 65, 0
	stw 0,12(1)
	.loc 2 185 0
	lwz 0,72(3)
	.cfi_offset 65, 4
	cmpwi 7,0,4
	beq- 7,.L168
.LVL245:
.LBB2256:
.LBB2257:
	.loc 2 186 0
	lwz 9,0(3)
	li 4,0
	li 5,-1
	lwz 0,80(9)
	mtctr 0
	bctrl
.LVL246:
.L168:
.LBE2257:
.LBE2256:
	.loc 2 187 0
	lwz 0,12(1)
	addi 1,1,8
.LCFI46:
	.cfi_def_cfa_offset 0
	mtlr 0
	blr
	.cfi_endproc
.LFE1402:
	.size	_ZN10GuiElement10ResetStateEv, .-_ZN10GuiElement10ResetStateEv
	.globl __floatundisf
	.section	".text"
	.align 2
	.globl _ZN9GuiButton4DrawEv
	.type	_ZN9GuiButton4DrawEv, @function
_ZN9GuiButton4DrawEv:
.LFB1489:
	.loc 3 200 0
	.cfi_startproc
.LVL247:
	mflr 0
	stwu 1,-16(1)
.LCFI47:
	.cfi_def_cfa_offset 16
	.cfi_register 65, 0
	stw 31,12(1)
	mr 31,3
	.cfi_offset 31, -4
	stw 0,20(1)
	stw 30,8(1)
.LBB2265:
	.loc 3 201 0
	lwz 9,0(3)
	lwz 0,52(9)
	.cfi_offset 30, -8
	.cfi_offset 65, 4
	mtctr 0
	bctrl
.LVL248:
	cmpwi 7,3,0
	beq- 7,.L170
.LVL249:
.LBE2265:
.LBB2266:
.LBB2267:
	.loc 3 205 0
	lwz 0,72(31)
	cmpwi 7,0,1
	beq- 7,.L172
	cmpwi 6,0,3
	beq- 6,.L172
.L173:
	.loc 3 207 0
	lwz 3,184(31)
	cmpwi 6,3,0
	beq- 6,.L174
.L205:
	.loc 3 208 0
	lwz 9,0(3)
	lwz 0,192(9)
	mtctr 0
	bctrl
	lwz 0,72(31)
	cmpwi 7,0,1
.L174:
	.loc 3 210 0
	beq- 7,.L175
	cmpwi 6,0,3
	beq- 6,.L175
.L176:
	.loc 3 212 0
	lwz 3,200(31)
	cmpwi 6,3,0
	beq- 6,.L177
.L206:
	.loc 3 213 0
	lwz 9,0(3)
	lwz 0,192(9)
	mtctr 0
	bctrl
	lwz 0,72(31)
	cmpwi 7,0,1
.L177:
.LVL250:
.LBB2268:
	.loc 3 217 0
	beq- 7,.L178
	cmpwi 7,0,3
	beq- 7,.L178
.L181:
	.loc 3 219 0
	lwz 3,216(31)
	cmpwi 7,3,0
	beq- 7,.L180
.L207:
	.loc 3 218 0
	lwz 9,0(3)
	lwz 0,192(9)
	mtctr 0
	bctrl
	lwz 0,72(31)
.L180:
.LVL251:
	.loc 3 217 0
	cmpwi 7,0,1
	beq- 7,.L182
	cmpwi 7,0,3
	beq- 7,.L182
.L185:
	.loc 3 219 0
	lwz 3,220(31)
	cmpwi 7,3,0
	beq- 7,.L184
.L208:
	.loc 3 218 0
	lwz 9,0(3)
	lwz 0,192(9)
	mtctr 0
	bctrl
	lwz 0,72(31)
.L184:
.LVL252:
	.loc 3 217 0
	cmpwi 7,0,1
	beq- 7,.L186
	cmpwi 7,0,3
	beq- 7,.L186
.L187:
	.loc 3 219 0
	lwz 3,224(31)
	cmpwi 7,3,0
	beq- 7,.L188
.L209:
	.loc 3 220 0
	lwz 9,0(3)
	lwz 0,192(9)
	mtctr 0
	bctrl
.L188:
.LVL253:
.LBE2268:
	.loc 3 223 0
	lis 9,Settings+104@ha
	lha 0,Settings+104@l(9)
	cmpwi 7,0,0
	bne- 7,.L213
.L191:
	.loc 3 247 0
	lwz 9,0(31)
	mr 3,31
	lwz 0,196(9)
	mtctr 0
	bctrl
.LVL254:
.L170:
.LBE2267:
.LBE2266:
	.loc 3 248 0
	lwz 0,20(1)
	lwz 30,8(1)
	mtlr 0
	lwz 31,12(1)
.LVL255:
	addi 1,1,16
	.cfi_remember_state
.LCFI48:
	.cfi_def_cfa_offset 0
	.cfi_restore 31
	.cfi_restore 30
	blr
.LVL256:
.L172:
.LCFI49:
	.cfi_restore_state
.LBB2277:
.LBB2276:
	.loc 3 205 0
	lwz 3,188(31)
	cmpwi 6,3,0
	bne+ 6,.L205
	b .L173
.L175:
	.loc 3 210 0
	lwz 3,204(31)
	cmpwi 6,3,0
	bne+ 6,.L206
	b .L176
.LVL257:
.L186:
.LBB2269:
	.loc 3 217 0
	lwz 3,236(31)
	cmpwi 7,3,0
	bne+ 7,.L209
	b .L187
.LVL258:
.L182:
	lwz 3,232(31)
	cmpwi 7,3,0
	bne+ 7,.L208
	b .L185
.LVL259:
.L178:
	lwz 3,228(31)
	cmpwi 7,3,0
	bne+ 7,.L207
	b .L181
.LVL260:
.L213:
.LBE2269:
	.loc 3 223 0
	lwz 9,0(31)
	mr 3,31
	lwz 0,152(9)
	mtctr 0
	bctrl
	cmpwi 7,3,8192
	beq- 7,.L191
	.loc 3 225 0
	lwz 0,72(31)
	cmpwi 7,0,1
	beq- 7,.L214
	.loc 3 235 0
	lwz 3,276(31)
	cmpwi 7,3,0
	beq- 7,.L191
	.loc 3 237 0
	lwz 9,0(3)
	lwz 0,52(9)
	mtctr 0
	bctrl
	cmpwi 7,3,0
	bne- 7,.L215
.L196:
	.loc 3 242 0
	lwz 0,72(31)
	cmpwi 7,0,4
	beq- 7,.L191
.L212:
	lwz 3,96(31)
	cmpwi 7,3,0
	beq- 7,.L191
	lwz 9,0(3)
	lwz 0,84(9)
	mtctr 0
	bctrl
	cmpwi 7,3,4
	beq- 7,.L191
	.loc 3 243 0
	lwz 3,276(31)
	lwz 9,0(3)
	lwz 0,192(9)
	mtctr 0
	bctrl
	b .L191
.L214:
	.loc 3 225 0
	lwz 3,276(31)
	cmpwi 7,3,0
	beq- 7,.L191
	.loc 3 227 0
	lwz 9,0(3)
	lwz 0,52(9)
	mtctr 0
	bctrl
	cmpwi 7,3,0
	bne+ 7,.L212
.LVL261:
.LBB2270:
.LBB2271:
	.file 7 "d:/Projects/SaveGameManager/savegame-manager-gx/trunk/source/GUI/../ImageOperations/../Tools/timer.h"
	.loc 7 59 0
	bl gettime
	lwz 10,280(31)
	lwz 11,284(31)
.LBE2271:
.LBE2270:
	.loc 3 227 0
	lwz 30,276(31)
.LBB2274:
.LBB2272:
	.loc 7 59 0
	subfc 4,11,4
	subfe 3,10,3
	bl __floatundisf
	lis 9,.LC4@ha
	lfs 13,.LC4@l(9)
.LBE2272:
.LBE2274:
	.loc 3 227 0
	lfs 0,144(30)
.LBB2275:
.LBB2273:
	.loc 7 59 0
	fdivs 13,1,13
.LBE2273:
.LBE2275:
	.loc 3 227 0
	fcmpu 7,13,0
	bng- 7,.L212
	.loc 3 229 0
	lwz 9,0(30)
	mr 3,30
	li 4,128
	li 5,20
	lwz 0,136(9)
	li 6,0
	mtctr 0
	bctrl
	.loc 3 230 0
	lwz 3,276(31)
	li 4,1
	lwz 9,0(3)
	lwz 0,48(9)
	mtctr 0
	bctrl
	b .L212
.LVL262:
.L215:
	.loc 3 239 0
	lwz 3,276(31)
	li 4,128
	li 5,-20
	li 6,0
	lwz 9,0(3)
	lwz 0,136(9)
	mtctr 0
	bctrl
	.loc 3 240 0
	lwz 3,276(31)
	li 4,0
	lwz 9,0(3)
	lwz 0,48(9)
	mtctr 0
	bctrl
	b .L196
.LBE2276:
.LBE2277:
	.cfi_endproc
.LFE1489:
	.size	_ZN9GuiButton4DrawEv, .-_ZN9GuiButton4DrawEv
	.align 2
	.globl _ZN9GuiButton6UpdateEP10GuiTrigger
	.type	_ZN9GuiButton6UpdateEP10GuiTrigger, @function
_ZN9GuiButton6UpdateEP10GuiTrigger:
.LFB1490:
	.loc 3 251 0
	.cfi_startproc
	.cfi_personality 0,__gxx_personality_v0
	.cfi_lsda 0,.LLSDA1490
.LVL263:
	mflr 0
	stwu 1,-104(1)
.LCFI50:
	.cfi_def_cfa_offset 104
	.cfi_register 65, 0
	stw 30,96(1)
	mr 30,4
	.cfi_offset 30, -8
	stw 0,108(1)
	stw 31,100(1)
	mr 31,3
	.cfi_offset 31, -4
	.cfi_offset 65, 4
.LBB2361:
	.loc 3 252 0
	lwz 0,72(3)
.LBE2361:
	.loc 3 251 0
	stw 26,80(1)
.LBB2362:
	.loc 3 252 0
	cmpwi 7,0,4
.LBE2362:
	.loc 3 251 0
	stw 27,84(1)
	stw 28,88(1)
	stw 29,92(1)
.LBB2363:
	.loc 3 252 0
	beq- 7,.L216
	.cfi_offset 29, -12
	.cfi_offset 28, -16
	.cfi_offset 27, -20
	.cfi_offset 26, -24
	.loc 3 252 0 is_stmt 0 discriminator 2
	cmpwi 7,4,0
	beq- 7,.L216
	.loc 3 252 0 discriminator 3
	lwz 9,0(3)
	lwz 0,156(9)
	mtctr 0
.LEHB28:
	bctrl
.LVL264:
	cmpwi 7,3,0
	bne- 7,.L364
.L218:
.LVL265:
.LBE2363:
.LBB2364:
.LBB2365:
	.loc 3 254 0 is_stmt 1
	lwz 3,96(31)
	cmpwi 7,3,0
	beq- 7,.L332
	lwz 9,0(3)
	lwz 0,84(9)
	mtctr 0
	bctrl
	cmpwi 7,3,4
	beq- 7,.L216
	lwz 3,96(31)
	lwz 9,0(3)
	lwz 0,156(9)
	mtctr 0
	bctrl
	cmpwi 7,3,0
	bne- 7,.L216
.L332:
	.loc 3 259 0
	lwz 9,12(30)
	lwz 0,172(9)
	cmpwi 7,0,0
	beq- 7,.L219
	lwz 0,8(30)
	cmpwi 7,0,0
	blt- 7,.L219
	.loc 3 261 0
	lfs 13,176(9)
	addi 8,1,72
	lfs 0,180(9)
	mr 3,31
	lwz 9,0(31)
	fctiwz 13,13
	fctiwz 0,0
	lwz 0,164(9)
	addi 9,1,76
	stfiwx 13,0,8
	stfiwx 0,0,9
	mtctr 0
	lwz 4,72(1)
	lwz 5,76(1)
	bctrl
	.loc 3 263 0
	lwz 0,72(31)
	.loc 3 261 0
	cmpwi 7,3,0
	beq- 7,.L220
	.loc 3 263 0
	cmpwi 7,0,0
	beq- 7,.L365
	cmpwi 7,0,1
	bne+ 7,.L219
	lwz 5,8(30)
	lwz 0,76(31)
	cmpw 7,5,0
	beq- 7,.L219
.L222:
	.loc 3 265 0
	lwz 9,0(31)
	mr 3,31
	li 4,1
	lwz 0,80(9)
	mtctr 0
	bctrl
	.loc 3 267 0
	lwz 9,0(31)
	mr 3,31
	lwz 0,128(9)
	mtctr 0
	bctrl
	cmpwi 7,3,0
	bne- 7,.L366
.L223:
	.loc 3 270 0
	lwz 3,264(31)
	cmpwi 7,3,0
	beq- 7,.L224
	.loc 3 271 0
	bl _ZN8GuiSound4PlayEv
.L224:
	.loc 3 273 0
	lwz 0,276(31)
	cmpwi 7,0,0
	beq- 7,.L225
.LVL266:
.LBB2366:
.LBB2367:
	.loc 7 61 0
	bl gettime
	stw 3,280(31)
	stw 4,284(31)
.LVL267:
.L225:
.LBE2367:
.LBE2366:
	.loc 3 276 0
	lwz 0,132(31)
	cmpwi 7,0,0
	beq- 7,.L219
	lwz 9,120(31)
	cmpwi 7,9,0
	bne- 7,.L219
	.loc 3 280 0
	lwz 11,136(31)
	.loc 3 281 0
	lwz 9,140(31)
	.loc 3 279 0
	stw 0,120(31)
	.loc 3 280 0
	stw 11,124(31)
	.loc 3 281 0
	stw 9,128(31)
.L219:
.LBB2368:
	.loc 3 302 0
	lbz 0,31(31)
	cmpwi 7,0,0
	beq- 7,.L228
.LBB2369:
.LBB2370:
.LBB2371:
	.loc 3 308 0
	lwz 9,288(31)
.LBE2371:
.LBE2370:
	.loc 3 304 0
	lwz 11,12(30)
.LBB2444:
.LBB2438:
	.loc 3 308 0
	cmpwi 7,9,0
.LBE2438:
.LBE2444:
	.loc 3 304 0
	lwz 29,20(11)
.LVL268:
.LBB2445:
.LBB2439:
	.loc 3 308 0
	beq- 7,.L229
	lwz 0,8(9)
	cmpwi 7,0,-1
	beq- 7,.L236
	lwz 10,8(30)
	cmpw 7,0,10
	beq- 7,.L236
.LVL269:
.L229:
	lwz 9,292(31)
	cmpwi 7,9,0
	beq- 7,.L237
	lwz 0,8(9)
	cmpwi 7,0,-1
	beq- 7,.L242
	lwz 11,8(30)
	cmpw 7,0,11
	beq- 7,.L242
.L237:
.LVL270:
	lwz 9,296(31)
	cmpwi 7,9,0
	beq- 7,.L243
	lwz 0,8(9)
	cmpwi 7,0,-1
	beq- 7,.L248
	lwz 11,8(30)
	cmpw 7,0,11
	beq- 7,.L248
.L243:
.LVL271:
	lwz 9,300(31)
	cmpwi 7,9,0
	beq- 7,.L249
	lwz 0,8(9)
	cmpwi 7,0,-1
	beq- 7,.L254
	lwz 11,8(30)
	cmpw 7,0,11
	beq- 7,.L254
.L249:
.LVL272:
	lwz 9,304(31)
	cmpwi 7,9,0
	beq- 7,.L255
	lwz 0,8(9)
	cmpwi 7,0,-1
	beq- 7,.L260
	lwz 11,8(30)
	cmpw 7,0,11
	beq- 7,.L260
.L255:
.LVL273:
	lwz 9,308(31)
	cmpwi 7,9,0
	beq- 7,.L228
	lwz 0,8(9)
	cmpwi 7,0,-1
	beq- 7,.L262
	lwz 11,8(30)
	cmpw 7,0,11
	beq- 7,.L262
.LVL274:
.L228:
.LBE2439:
.LBE2445:
.LBE2369:
.LBE2368:
.LBB2454:
	.loc 3 349 0
	lbz 0,32(31)
	cmpwi 7,0,0
	beq- 7,.L216
.LBB2455:
.LBB2456:
	.loc 3 356 0
	lwz 9,288(31)
.LBE2456:
.LBE2455:
	.loc 3 349 0
	lwz 0,72(31)
.LBB2513:
.LBB2457:
	.loc 3 356 0
	cmpwi 7,9,0
	beq- 7,.L277
	.loc 3 359 0
	lwz 10,12(9)
	lwz 11,12(30)
	lwz 10,12(10)
	lwz 11,12(11)
	and. 8,10,11
	bne- 0,.L283
	lhz 11,360(9)
	lhz 10,360(30)
	and. 8,10,11
	bne- 0,.L283
.L277:
.LVL275:
	.loc 3 356 0
	lwz 9,292(31)
	cmpwi 7,9,0
	beq- 7,.L284
	.loc 3 359 0
	lwz 10,12(9)
	lwz 11,12(30)
	lwz 10,12(10)
	lwz 11,12(11)
	and. 8,10,11
	bne- 0,.L290
	lhz 11,360(9)
	lhz 10,360(30)
	and. 8,10,11
	beq- 0,.L284
.L290:
	.loc 3 362 0
	lbz 11,4(9)
	cmpwi 7,11,3
	beq- 7,.L307
	.loc 3 370 0
	cmpwi 7,11,1
	beq- 7,.L367
.LVL276:
.L284:
	.loc 3 356 0
	lwz 9,296(31)
	cmpwi 7,9,0
	beq- 7,.L294
	.loc 3 359 0
	lwz 10,12(9)
	lwz 11,12(30)
	lwz 10,12(10)
	lwz 11,12(11)
	and. 8,10,11
	bne- 0,.L297
	lhz 11,360(9)
	lhz 10,360(30)
	and. 8,10,11
	beq- 0,.L294
.L297:
	.loc 3 362 0
	lbz 11,4(9)
	cmpwi 7,11,3
	beq- 7,.L307
	.loc 3 370 0
	cmpwi 7,11,1
	beq- 7,.L368
.LVL277:
.L294:
	.loc 3 356 0
	lwz 9,300(31)
	cmpwi 7,9,0
	beq- 7,.L301
	.loc 3 359 0
	lwz 10,12(9)
	lwz 11,12(30)
	lwz 10,12(10)
	lwz 11,12(11)
	and. 8,10,11
	bne- 0,.L304
	lhz 11,360(9)
	lhz 10,360(30)
	and. 8,10,11
	beq- 0,.L301
.L304:
	.loc 3 362 0
	lbz 11,4(9)
	cmpwi 7,11,3
	beq- 7,.L307
	.loc 3 370 0
	cmpwi 7,11,1
	beq- 7,.L369
.LVL278:
.L301:
	.loc 3 356 0
	lwz 9,304(31)
	cmpwi 7,9,0
	beq- 7,.L308
	.loc 3 359 0
	lwz 10,12(9)
	lwz 11,12(30)
	lwz 10,12(10)
	lwz 11,12(11)
	and. 8,10,11
	bne- 0,.L311
	lhz 11,360(9)
	lhz 10,360(30)
	and. 8,10,11
	beq- 0,.L308
.L311:
	.loc 3 362 0
	lbz 11,4(9)
	cmpwi 7,11,3
	beq- 7,.L307
	.loc 3 370 0
	cmpwi 7,11,1
	beq- 7,.L370
.LVL279:
.L308:
	.loc 3 356 0
	lwz 9,308(31)
	cmpwi 7,9,0
	beq- 7,.L314
	.loc 3 359 0
	lwz 10,12(9)
	lwz 11,12(30)
	lwz 10,12(10)
	lwz 11,12(11)
	and. 8,10,11
	bne- 0,.L313
	lhz 11,360(9)
	lhz 10,360(30)
	and. 8,10,11
	bne- 0,.L313
.LVL280:
.L314:
.LBE2457:
.LBB2458:
.LBB2459:
	.loc 3 392 0
	cmpwi 7,0,3
	bne+ 7,.L216
	lwz 0,76(31)
	lwz 9,8(30)
	cmpw 7,0,9
	bne+ 7,.L216
.LBB2460:
	.loc 3 395 0
	mulli 0,0,368
	lis 9,userInput@ha
	la 9,userInput@l(9)
	add 9,9,0
	.loc 3 394 0
	li 0,0
	.loc 3 395 0
	lwz 9,12(9)
	.loc 3 394 0
	stw 0,8(1)
	.loc 3 395 0
	cmpwi 7,9,0
	.loc 3 394 0
	stw 0,12(1)
	.loc 3 395 0
	beq- 7,.L324
	lwz 0,172(9)
	cmpwi 7,0,0
	beq- 7,.L324
	.loc 3 397 0
	lfs 13,176(9)
	addi 8,1,8
	.loc 3 398 0
	lfs 0,180(9)
	addi 9,1,12
	.loc 3 397 0
	fctiwz 13,13
	.loc 3 398 0
	fctiwz 0,0
	.loc 3 397 0
	stfiwx 13,0,8
	.loc 3 398 0
	stfiwx 0,0,9
.L324:
	.loc 3 400 0
	lwz 9,0(31)
	mr 3,31
.LBB2461:
.LBB2462:
	.loc 1 2338 0
	addi 26,31,168
.LBE2462:
	.loc 3 406 0
	mr 28,31
.LBE2461:
	.loc 3 400 0
	lwz 0,92(9)
	mtctr 0
	bctrl
.LBB2479:
.LBB2475:
.LBB2463:
.LBB2464:
	.loc 1 338 0
	lwz 9,168(31)
	mr 3,26
.LBE2464:
.LBE2463:
.LBE2475:
.LBE2479:
	.loc 3 401 0
	lwz 27,8(30)
.LVL281:
.LBB2480:
.LBB2476:
.LBB2466:
.LBB2465:
	.loc 1 338 0
	lwz 0,8(9)
	mtctr 0
	bctrl
.LEHE28:
.LVL282:
.LBE2465:
.LBE2466:
.LBE2476:
	.loc 3 406 0
	lwzu 30,172(28)
.LVL283:
.LBB2477:
	.loc 1 2342 0
	cmpw 7,30,28
	beq- 7,.L325
	addi 29,1,8
.LVL284:
.L326:
	.loc 1 2347 0
	lwz 3,8(30)
	mr 4,31
	mr 5,27
	mr 6,29
	lwz 9,0(3)
.LBB2467:
.LBB2468:
	.loc 4 234 0
	lwz 30,0(30)
.LVL285:
.LBE2468:
.LBE2467:
	.loc 1 2347 0
	lwz 0,12(9)
	mtctr 0
.LEHB29:
	bctrl
.LEHE29:
.LVL286:
	.loc 1 2342 0
	cmpw 7,28,30
	bne+ 7,.L326
.LVL287:
.L325:
.LBB2469:
.LBB2470:
.LBB2471:
	.loc 1 343 0
	lwz 9,168(31)
	mr 3,26
	lwz 0,12(9)
	mtctr 0
.LEHB30:
	bctrl
.LBE2471:
.LBE2470:
.LBE2469:
.LBE2477:
.LBE2480:
	.loc 3 402 0
	li 0,0
	stb 0,180(31)
.LVL288:
.L216:
.LBE2460:
.LBE2459:
.LBE2458:
.LBE2513:
.LBE2454:
.LBE2365:
.LBE2364:
	.loc 3 406 0
	lwz 0,108(1)
	lwz 26,80(1)
	mtlr 0
	lwz 27,84(1)
	lwz 28,88(1)
	lwz 29,92(1)
	lwz 30,96(1)
	lwz 31,100(1)
.LVL289:
	addi 1,1,104
	.cfi_remember_state
.LCFI51:
	.cfi_def_cfa_offset 0
	.cfi_restore 31
	.cfi_restore 30
	.cfi_restore 29
	.cfi_restore 28
	.cfi_restore 27
	.cfi_restore 26
	blr
.LVL290:
.L364:
.LCFI52:
	.cfi_restore_state
.LBB2527:
	.loc 3 252 0 discriminator 4
	lwz 9,0(31)
	mr 3,31
	lwz 0,152(9)
	mtctr 0
	bctrl
	cmpwi 7,3,8192
	beq- 7,.L218
.LBE2527:
	.loc 3 406 0
	lwz 0,108(1)
	lwz 26,80(1)
	mtlr 0
	lwz 27,84(1)
	lwz 28,88(1)
	lwz 29,92(1)
	lwz 30,96(1)
.LVL291:
	lwz 31,100(1)
.LVL292:
	addi 1,1,104
	.cfi_remember_state
	.cfi_restore 26
	.cfi_restore 27
	.cfi_restore 28
	.cfi_restore 29
	.cfi_restore 30
	.cfi_restore 31
.LCFI53:
	.cfi_def_cfa_offset 0
	blr
.LVL293:
.L283:
.LCFI54:
	.cfi_restore_state
.LBB2528:
.LBB2526:
.LBB2518:
.LBB2514:
.LBB2506:
	.loc 3 362 0
	lbz 11,4(9)
	cmpwi 7,11,3
	beq- 7,.L307
	.loc 3 370 0
	cmpwi 7,11,1
	bne+ 7,.L277
	lwz 9,8(9)
	cmpwi 7,9,-1
	beq- 7,.L282
	lwz 11,8(30)
	cmpw 7,9,11
	bne+ 7,.L277
.L282:
.LVL294:
	.loc 3 375 0
	lbz 9,180(31)
	cmpwi 7,9,0
	beq- 7,.L277
.LVL295:
.L354:
	cmpwi 6,0,1
	cmpwi 7,0,3
	beq- 6,.L352
.L312:
.LVL296:
.LBE2506:
.LBB2507:
	.loc 3 381 0
	bne+ 7,.L216
.LVL297:
.L316:
	lwz 0,76(31)
	lwz 28,8(30)
	cmpw 7,0,28
	bne+ 7,.L216
.LBB2483:
	.loc 3 384 0
	mulli 0,28,368
	lis 9,userInput@ha
	la 9,userInput@l(9)
	add 9,9,0
	.loc 3 383 0
	li 0,0
	.loc 3 384 0
	lwz 9,12(9)
	.loc 3 383 0
	stw 0,8(1)
	.loc 3 384 0
	cmpwi 7,9,0
	.loc 3 383 0
	stw 0,12(1)
	.loc 3 384 0
	beq- 7,.L319
	lwz 0,172(9)
	cmpwi 7,0,0
	beq- 7,.L319
	.loc 3 386 0
	lfs 13,176(9)
	addi 8,1,8
	.loc 3 387 0
	lfs 0,180(9)
	addi 9,1,12
	.loc 3 386 0
	fctiwz 13,13
	.loc 3 387 0
	fctiwz 0,0
	.loc 3 386 0
	stfiwx 13,0,8
	.loc 3 387 0
	stfiwx 0,0,9
.L319:
.LVL298:
.LBB2484:
.LBB2485:
.LBB2486:
.LBB2487:
	.loc 1 338 0
	lwz 9,156(31)
.LBE2487:
.LBE2486:
	.loc 1 2338 0
	addi 26,31,156
.LVL299:
.LBB2490:
.LBB2488:
	.loc 1 338 0
	mr 3,26
.LBE2488:
.LBE2490:
.LBE2485:
	.loc 3 406 0
	mr 27,31
.LBB2500:
.LBB2491:
.LBB2489:
	.loc 1 338 0
	lwz 0,8(9)
	mtctr 0
	bctrl
.LEHE30:
.LVL300:
.LBE2489:
.LBE2491:
.LBE2500:
	.loc 3 406 0
	lwzu 30,160(27)
.LVL301:
.LBB2501:
	.loc 1 2342 0
	cmpw 7,30,27
	beq- 7,.L320
	addi 29,1,8
.LVL302:
.L321:
	.loc 1 2347 0
	lwz 3,8(30)
	mr 4,31
	mr 5,28
	mr 6,29
	lwz 9,0(3)
.LBB2492:
.LBB2493:
	.loc 4 234 0
	lwz 30,0(30)
.LVL303:
.LBE2493:
.LBE2492:
	.loc 1 2347 0
	lwz 0,12(9)
	mtctr 0
.LEHB31:
	bctrl
.LEHE31:
.LVL304:
	.loc 1 2342 0
	cmpw 7,27,30
	bne+ 7,.L321
.LVL305:
.L320:
.LBB2494:
.LBB2495:
.LBB2496:
	.loc 1 343 0
	lwz 9,156(31)
	mr 3,26
	lwz 0,12(9)
	mtctr 0
.LEHB32:
	bctrl
	b .L216
.LVL306:
.L307:
.LBE2496:
.LBE2495:
.LBE2494:
.LBE2501:
.LBE2484:
.LBE2483:
.LBE2507:
.LBB2508:
	.loc 3 365 0
	cmpwi 7,0,3
	beq- 7,.L312
.LVL307:
.L352:
	.loc 3 376 0
	lwz 9,0(31)
	mr 3,31
	li 4,3
	lwz 5,8(30)
	lwz 0,80(9)
	mtctr 0
	bctrl
	lwz 0,72(31)
	cmpwi 7,0,3
.LVL308:
.LBE2508:
.LBB2509:
	.loc 3 381 0
	bne+ 7,.L216
	b .L316
.LVL309:
.L236:
.LBE2509:
.LBE2514:
.LBE2518:
.LBB2519:
.LBB2450:
.LBB2446:
.LBB2440:
.LBB2372:
	.loc 3 310 0
	lwz 10,12(9)
	lwz 0,20(10)
	and. 8,29,0
	beq- 0,.L231
.L235:
.LBB2373:
	.loc 3 312 0
	lwz 0,72(31)
	cmpwi 7,0,1
	beq- 7,.L232
.LBB2374:
	.loc 3 330 0
	lbz 0,4(9)
	cmpwi 7,0,2
	bne+ 7,.L229
.LVL310:
.L233:
.LBB2375:
	.loc 3 333 0
	lwz 27,8(30)
	lis 11,userInput@ha
	la 11,userInput@l(11)
	.loc 3 332 0
	li 0,0
	.loc 3 333 0
	mulli 9,27,368
	.loc 3 332 0
	stw 0,8(1)
	stw 0,12(1)
	.loc 3 333 0
	add 9,11,9
	lwz 9,12(9)
	cmpwi 7,9,0
	beq- 7,.L272
	.loc 3 335 0
	lwz 0,172(9)
	cmpwi 7,0,0
	beq- 7,.L272
	.loc 3 337 0
	lfs 13,176(9)
	addi 8,1,8
	.loc 3 338 0
	lfs 0,180(9)
	addi 9,1,12
	.loc 3 337 0
	fctiwz 13,13
	.loc 3 338 0
	fctiwz 0,0
	.loc 3 337 0
	stfiwx 13,0,8
	.loc 3 338 0
	stfiwx 0,0,9
.L272:
.LVL311:
.LBB2376:
.LBB2377:
.LBB2378:
.LBB2379:
	.loc 1 338 0
	lwz 9,144(31)
.LBE2379:
.LBE2378:
	.loc 1 2338 0
	addi 26,31,144
.LVL312:
.LBB2382:
.LBB2380:
	.loc 1 338 0
	mr 3,26
.LBE2380:
.LBE2382:
.LBE2377:
	.loc 3 406 0
	mr 28,31
.LBB2392:
.LBB2383:
.LBB2381:
	.loc 1 338 0
	lwz 0,8(9)
	mtctr 0
	bctrl
.LEHE32:
.LVL313:
.LBE2381:
.LBE2383:
.LBE2392:
	.loc 3 406 0
	lwzu 30,148(28)
.LVL314:
.LBB2393:
	.loc 1 2342 0
	cmpw 7,30,28
	beq- 7,.L273
	addi 29,1,8
.LVL315:
.L274:
	.loc 1 2347 0
	lwz 3,8(30)
	mr 4,31
	mr 5,27
	mr 6,29
	lwz 9,0(3)
.LBB2384:
.LBB2385:
	.loc 4 234 0
	lwz 30,0(30)
.LVL316:
.LBE2385:
.LBE2384:
	.loc 1 2347 0
	lwz 0,12(9)
	mtctr 0
.LEHB33:
	bctrl
.LEHE33:
.LVL317:
	.loc 1 2342 0
	cmpw 7,28,30
	bne+ 7,.L274
.LVL318:
.L273:
.LBB2386:
.LBB2387:
.LBB2388:
	.loc 1 343 0
	lwz 9,144(31)
	mr 3,26
	lwz 0,12(9)
	mtctr 0
.LEHB34:
	bctrl
	b .L216
.LVL319:
.L242:
.LBE2388:
.LBE2387:
.LBE2386:
.LBE2393:
.LBE2376:
.LBE2375:
.LBE2374:
.LBE2373:
	.loc 3 310 0
	lwz 11,12(9)
	lwz 0,20(11)
	and. 10,29,0
	beq- 0,.L239
.L241:
.LBB2427:
	.loc 3 312 0
	lwz 0,72(31)
	cmpwi 7,0,1
	beq- 7,.L240
.LBB2397:
	.loc 3 330 0
	lbz 0,4(9)
	cmpwi 7,0,2
	bne+ 7,.L237
	b .L233
.LVL320:
.L248:
.LBE2397:
.LBE2427:
	.loc 3 310 0
	lwz 11,12(9)
	lwz 0,20(11)
	and. 10,29,0
	beq- 0,.L245
.L247:
.LBB2428:
	.loc 3 312 0
	lwz 0,72(31)
	cmpwi 7,0,1
	beq- 7,.L246
.LBB2398:
	.loc 3 330 0
	lbz 0,4(9)
	cmpwi 7,0,2
	bne+ 7,.L243
	b .L233
.LVL321:
.L254:
.LBE2398:
.LBE2428:
	.loc 3 310 0
	lwz 11,12(9)
	lwz 0,20(11)
	and. 10,29,0
	beq- 0,.L251
.L253:
.LBB2429:
	.loc 3 312 0
	lwz 0,72(31)
	cmpwi 7,0,1
	beq- 7,.L252
.LBB2399:
	.loc 3 330 0
	lbz 0,4(9)
	cmpwi 7,0,2
	bne+ 7,.L249
	b .L233
.LVL322:
.L260:
.LBE2399:
.LBE2429:
	.loc 3 310 0
	lwz 11,12(9)
	lwz 0,20(11)
	and. 10,29,0
	beq- 0,.L257
.L259:
.LBB2430:
	.loc 3 312 0
	lwz 0,72(31)
	cmpwi 7,0,1
	beq- 7,.L258
.LBB2400:
	.loc 3 330 0
	lbz 0,4(9)
	cmpwi 7,0,2
	bne+ 7,.L255
	b .L233
.LVL323:
.L262:
.LBE2400:
.LBE2430:
	.loc 3 310 0
	lwz 11,12(9)
	lwz 0,20(11)
	and. 10,29,0
	beq- 0,.L371
.L263:
.LBB2431:
	.loc 3 312 0
	lwz 0,72(31)
	cmpwi 7,0,1
	beq- 7,.L372
.LBB2401:
	.loc 3 330 0
	lbz 0,4(9)
	cmpwi 7,0,2
	bne+ 7,.L228
	b .L233
.LVL324:
.L220:
.LBE2401:
.LBE2431:
.LBE2372:
.LBE2440:
.LBE2446:
.LBE2450:
.LBE2519:
	.loc 3 287 0
	cmpwi 7,0,1
	beq- 7,.L373
.L226:
	.loc 3 290 0
	lwz 9,128(31)
	lwz 0,140(31)
	cmpw 7,9,0
	bne+ 7,.L219
	lwz 0,124(31)
	lwz 9,136(31)
	cmpw 7,0,9
	bne+ 7,.L219
	.loc 3 294 0
	neg 0,0
	.loc 3 293 0
	lwz 9,132(31)
	.loc 3 294 0
	stw 0,124(31)
	.loc 3 295 0
	li 0,100
	.loc 3 293 0
	stw 9,120(31)
	.loc 3 295 0
	stw 0,128(31)
	b .L219
.LVL325:
.L231:
.LBB2520:
.LBB2451:
.LBB2447:
.LBB2441:
.LBB2435:
	.loc 3 310 0
	lhz 0,356(9)
	lhz 10,356(30)
	and. 8,10,0
	bne- 0,.L235
	b .L229
.LVL326:
.L239:
	lhz 0,356(9)
	lhz 11,356(30)
	and. 8,11,0
	bne- 0,.L241
	b .L237
.LVL327:
.L245:
	lhz 0,356(9)
	lhz 11,356(30)
	and. 8,11,0
	bne- 0,.L247
	b .L243
.LVL328:
.L251:
	lhz 0,356(9)
	lhz 11,356(30)
	and. 8,11,0
	bne- 0,.L253
	b .L249
.LVL329:
.L257:
	lhz 0,356(9)
	lhz 11,356(30)
	and. 8,11,0
	bne- 0,.L259
	b .L255
.LVL330:
.L371:
	lhz 0,356(9)
	lhz 11,356(30)
	and. 8,11,0
	beq- 0,.L228
	b .L263
.LVL331:
.L232:
.LBB2432:
.LBB2402:
	.loc 3 314 0
	lwz 0,172(11)
	cmpwi 7,0,0
	bne- 7,.L374
.LVL332:
.L234:
.LBB2403:
	.loc 3 316 0
	lwz 3,272(31)
	cmpwi 7,3,0
	beq- 7,.L265
	.loc 3 317 0
	bl _ZN8GuiSound4PlayEv
.L265:
	.loc 3 320 0
	lwz 27,8(30)
	lis 11,userInput@ha
	la 11,userInput@l(11)
	.loc 3 319 0
	li 0,0
	.loc 3 320 0
	mulli 9,27,368
	.loc 3 319 0
	stw 0,8(1)
	stw 0,12(1)
	.loc 3 320 0
	add 9,11,9
	lwz 9,12(9)
	cmpwi 7,9,0
	beq- 7,.L266
	lwz 0,172(9)
	cmpwi 7,0,0
	beq- 7,.L266
	.loc 3 322 0
	lfs 13,176(9)
	addi 8,1,8
	.loc 3 323 0
	lfs 0,180(9)
	addi 9,1,12
	.loc 3 322 0
	fctiwz 13,13
	.loc 3 323 0
	fctiwz 0,0
	.loc 3 322 0
	stfiwx 13,0,8
	.loc 3 323 0
	stfiwx 0,0,9
.L266:
.LVL333:
.LBB2404:
.LBB2405:
.LBB2406:
.LBB2407:
	.loc 1 338 0
	lwz 9,144(31)
.LBE2407:
.LBE2406:
	.loc 1 2338 0
	addi 26,31,144
.LVL334:
.LBB2410:
.LBB2408:
	.loc 1 338 0
	mr 3,26
.LBE2408:
.LBE2410:
.LBE2405:
	.loc 3 406 0
	mr 28,31
.LBB2420:
.LBB2411:
.LBB2409:
	.loc 1 338 0
	lwz 0,8(9)
	mtctr 0
	bctrl
.LEHE34:
.LVL335:
.LBE2409:
.LBE2411:
.LBE2420:
	.loc 3 406 0
	lwzu 30,148(28)
.LVL336:
.LBB2421:
	.loc 1 2342 0
	cmpw 7,30,28
	beq- 7,.L267
	addi 29,1,8
.LVL337:
.L268:
	.loc 1 2347 0
	lwz 3,8(30)
	mr 4,31
	mr 5,27
	mr 6,29
	lwz 9,0(3)
.LBB2412:
.LBB2413:
	.loc 4 234 0
	lwz 30,0(30)
.LVL338:
.LBE2413:
.LBE2412:
	.loc 1 2347 0
	lwz 0,12(9)
	mtctr 0
.LEHB35:
	bctrl
.LEHE35:
.LVL339:
	.loc 1 2342 0
	cmpw 7,28,30
	bne+ 7,.L268
.LVL340:
.L267:
.LBB2414:
.LBB2415:
.LBB2416:
	.loc 1 343 0
	lwz 9,144(31)
	mr 3,26
	lwz 0,12(9)
	mtctr 0
.LEHB36:
	bctrl
.LBE2416:
.LBE2415:
.LBE2414:
.LBE2421:
.LBE2404:
	.loc 3 326 0
	li 0,1
	stb 0,180(31)
	b .L216
.LVL341:
.L240:
.LBE2403:
	.loc 3 314 0
	lwz 9,12(30)
	lwz 0,172(9)
	cmpwi 7,0,0
	beq+ 7,.L234
	lfs 13,176(9)
	addi 11,1,56
	lfs 0,180(9)
	addi 8,1,60
	fctiwz 13,13
	lwz 9,0(31)
	fctiwz 0,0
	mr 3,31
	lwz 0,164(9)
	stfiwx 13,0,11
	stfiwx 0,0,8
	mtctr 0
	lwz 4,56(1)
	lwz 5,60(1)
	bctrl
	cmpwi 7,3,0
	bne- 7,.L234
	b .L237
.LVL342:
.L246:
	lwz 9,12(30)
	lwz 0,172(9)
	cmpwi 7,0,0
	beq+ 7,.L234
	lfs 13,176(9)
	addi 11,1,48
	lfs 0,180(9)
	addi 8,1,52
	fctiwz 13,13
	lwz 9,0(31)
	fctiwz 0,0
	mr 3,31
	lwz 0,164(9)
	stfiwx 13,0,11
	stfiwx 0,0,8
	mtctr 0
	lwz 4,48(1)
	lwz 5,52(1)
	bctrl
	cmpwi 7,3,0
	bne- 7,.L234
	b .L243
.LVL343:
.L252:
	lwz 9,12(30)
	lwz 0,172(9)
	cmpwi 7,0,0
	beq+ 7,.L234
	lfs 13,176(9)
	addi 11,1,40
	lfs 0,180(9)
	addi 8,1,44
	fctiwz 13,13
	lwz 9,0(31)
	fctiwz 0,0
	mr 3,31
	lwz 0,164(9)
	stfiwx 13,0,11
	stfiwx 0,0,8
	mtctr 0
	lwz 4,40(1)
	lwz 5,44(1)
	bctrl
	cmpwi 7,3,0
	bne- 7,.L234
	b .L249
.LVL344:
.L258:
	lwz 9,12(30)
	lwz 0,172(9)
	cmpwi 7,0,0
	beq+ 7,.L234
	lfs 13,176(9)
	addi 11,1,32
	lfs 0,180(9)
	addi 8,1,36
	fctiwz 13,13
	lwz 9,0(31)
	fctiwz 0,0
	mr 3,31
	lwz 0,164(9)
	stfiwx 13,0,11
	stfiwx 0,0,8
	mtctr 0
	lwz 4,32(1)
	lwz 5,36(1)
	bctrl
	cmpwi 7,3,0
	bne- 7,.L234
	b .L255
.LVL345:
.L372:
	lwz 9,12(30)
	lwz 0,172(9)
	cmpwi 7,0,0
	beq+ 7,.L234
	lfs 13,176(9)
	addi 10,1,28
	lfs 0,180(9)
	mr 3,31
	lwz 9,0(31)
	fctiwz 13,13
	fctiwz 0,0
	lwz 0,164(9)
	addi 9,1,24
	stfiwx 13,0,9
	stfiwx 0,0,10
	mtctr 0
	lwz 4,24(1)
	lwz 5,28(1)
	bctrl
	cmpwi 7,3,0
	beq- 7,.L228
	b .L234
.LVL346:
.L313:
.LBE2402:
.LBE2432:
.LBE2435:
.LBE2441:
.LBE2447:
.LBE2451:
.LBE2520:
.LBB2521:
.LBB2515:
.LBB2510:
	.loc 3 362 0
	lbz 11,4(9)
	cmpwi 7,11,3
	beq- 7,.L375
	.loc 3 370 0
	cmpwi 7,11,1
	bne+ 7,.L314
	lwz 9,8(9)
	cmpwi 7,9,-1
	beq- 7,.L317
	lwz 11,8(30)
	cmpw 7,9,11
	bne+ 7,.L314
.L317:
.LVL347:
	.loc 3 375 0
	lbz 9,180(31)
	cmpwi 7,9,0
	beq- 7,.L314
	b .L354
.LVL348:
.L375:
	.loc 3 365 0
	cmpwi 7,0,3
	bne- 7,.L352
	b .L316
.LVL349:
.L365:
.LBE2510:
.LBE2515:
.LBE2521:
	.loc 3 263 0
	lwz 5,8(30)
	b .L222
.LVL350:
.L370:
.LBB2522:
.LBB2516:
.LBB2511:
	.loc 3 370 0
	lwz 9,8(9)
	cmpwi 7,9,-1
	beq- 7,.L310
	lwz 11,8(30)
	cmpw 7,9,11
	bne+ 7,.L308
.L310:
.LVL351:
	.loc 3 375 0
	lbz 9,180(31)
	cmpwi 7,9,0
	beq- 7,.L308
	b .L354
.LVL352:
.L368:
	.loc 3 370 0
	lwz 9,8(9)
	cmpwi 7,9,-1
	beq- 7,.L296
	lwz 11,8(30)
	cmpw 7,9,11
	bne+ 7,.L294
.L296:
.LVL353:
	.loc 3 375 0
	lbz 9,180(31)
	cmpwi 7,9,0
	beq- 7,.L294
	b .L354
.LVL354:
.L369:
	.loc 3 370 0
	lwz 9,8(9)
	cmpwi 7,9,-1
	beq- 7,.L303
	lwz 11,8(30)
	cmpw 7,9,11
	bne+ 7,.L301
.L303:
.LVL355:
	.loc 3 375 0
	lbz 9,180(31)
	cmpwi 7,9,0
	beq- 7,.L301
	b .L354
.LVL356:
.L367:
	.loc 3 370 0
	lwz 9,8(9)
	cmpwi 7,9,-1
	beq- 7,.L289
	lwz 11,8(30)
	cmpw 7,9,11
	bne+ 7,.L284
.L289:
.LVL357:
	.loc 3 375 0
	lbz 9,180(31)
	cmpwi 7,9,0
	beq- 7,.L284
	b .L354
.LVL358:
.L373:
.LBE2511:
.LBE2516:
.LBE2522:
	.loc 3 287 0
	lwz 0,76(31)
	lwz 9,8(30)
	cmpw 7,0,9
	beq- 7,.L227
	cmpwi 7,0,-1
	bne+ 7,.L226
.L227:
	.loc 3 288 0
	lwz 9,0(31)
	mr 3,31
	lwz 0,92(9)
	mtctr 0
	bctrl
	b .L226
.L366:
	.loc 3 268 0
	lwz 3,8(30)
	bl _Z13RequestRumblei
	b .L223
.LVL359:
.L374:
.LBB2523:
.LBB2452:
.LBB2448:
.LBB2442:
.LBB2436:
.LBB2433:
.LBB2425:
	.loc 3 314 0
	lfs 13,176(11)
	addi 10,1,68
	lfs 0,180(11)
	mr 3,31
	lwz 9,0(31)
	fctiwz 13,13
	fctiwz 0,0
	lwz 0,164(9)
	addi 9,1,64
	stfiwx 13,0,9
	stfiwx 0,0,10
	mtctr 0
	lwz 4,64(1)
	lwz 5,68(1)
	bctrl
.LEHE36:
	cmpwi 7,3,0
	bne- 7,.L234
	b .L229
.LVL360:
.L341:
.LBB2424:
.LBB2423:
.LBB2422:
.LBB2417:
.LBB2418:
.LBB2419:
	.loc 1 343 0
	lwz 9,144(31)
	mr 31,3
.LVL361:
	mr 3,26
	lwz 0,12(9)
	mtctr 0
	bctrl
	mr 3,31
.LEHB37:
	bl _Unwind_Resume
.LEHE37:
.LVL362:
.L344:
.LBE2419:
.LBE2418:
.LBE2417:
.LBE2422:
.LBE2423:
.LBE2424:
.LBE2425:
.LBE2433:
.LBE2436:
.LBE2442:
.LBE2448:
.LBE2452:
.LBE2523:
.LBB2524:
.LBB2517:
.LBB2512:
.LBB2504:
.LBB2482:
.LBB2481:
.LBB2478:
.LBB2472:
.LBB2473:
.LBB2474:
	lwz 9,168(31)
	mr 31,3
.LVL363:
	mr 3,26
	lwz 0,12(9)
	mtctr 0
	bctrl
	mr 3,31
.LEHB38:
	bl _Unwind_Resume
.LEHE38:
.LVL364:
.L343:
.LBE2474:
.LBE2473:
.LBE2472:
.LBE2478:
.LBE2481:
.LBE2482:
.LBE2504:
.LBB2505:
.LBB2503:
.LBB2502:
.LBB2497:
.LBB2498:
.LBB2499:
	lwz 9,156(31)
	mr 31,3
.LVL365:
	mr 3,26
	lwz 0,12(9)
	mtctr 0
	bctrl
	mr 3,31
.LEHB39:
	bl _Unwind_Resume
.LEHE39:
.LVL366:
.L342:
.LBE2499:
.LBE2498:
.LBE2497:
.LBE2502:
.LBE2503:
.LBE2505:
.LBE2512:
.LBE2517:
.LBE2524:
.LBB2525:
.LBB2453:
.LBB2449:
.LBB2443:
.LBB2437:
.LBB2434:
.LBB2426:
.LBB2396:
.LBB2395:
.LBB2394:
.LBB2389:
.LBB2390:
.LBB2391:
	lwz 9,144(31)
	mr 31,3
.LVL367:
	mr 3,26
	lwz 0,12(9)
	mtctr 0
	bctrl
	mr 3,31
.LEHB40:
	bl _Unwind_Resume
.LEHE40:
.LBE2391:
.LBE2390:
.LBE2389:
.LBE2394:
.LBE2395:
.LBE2396:
.LBE2426:
.LBE2434:
.LBE2437:
.LBE2443:
.LBE2449:
.LBE2453:
.LBE2525:
.LBE2526:
.LBE2528:
	.cfi_endproc
.LFE1490:
	.section	.gcc_except_table
.LLSDA1490:
	.byte	0xff
	.byte	0xff
	.byte	0x1
	.uleb128 .LLSDACSE1490-.LLSDACSB1490
.LLSDACSB1490:
	.uleb128 .LEHB28-.LFB1490
	.uleb128 .LEHE28-.LEHB28
	.uleb128 0
	.uleb128 0
	.uleb128 .LEHB29-.LFB1490
	.uleb128 .LEHE29-.LEHB29
	.uleb128 .L344-.LFB1490
	.uleb128 0
	.uleb128 .LEHB30-.LFB1490
	.uleb128 .LEHE30-.LEHB30
	.uleb128 0
	.uleb128 0
	.uleb128 .LEHB31-.LFB1490
	.uleb128 .LEHE31-.LEHB31
	.uleb128 .L343-.LFB1490
	.uleb128 0
	.uleb128 .LEHB32-.LFB1490
	.uleb128 .LEHE32-.LEHB32
	.uleb128 0
	.uleb128 0
	.uleb128 .LEHB33-.LFB1490
	.uleb128 .LEHE33-.LEHB33
	.uleb128 .L342-.LFB1490
	.uleb128 0
	.uleb128 .LEHB34-.LFB1490
	.uleb128 .LEHE34-.LEHB34
	.uleb128 0
	.uleb128 0
	.uleb128 .LEHB35-.LFB1490
	.uleb128 .LEHE35-.LEHB35
	.uleb128 .L341-.LFB1490
	.uleb128 0
	.uleb128 .LEHB36-.LFB1490
	.uleb128 .LEHE36-.LEHB36
	.uleb128 0
	.uleb128 0
	.uleb128 .LEHB37-.LFB1490
	.uleb128 .LEHE37-.LEHB37
	.uleb128 0
	.uleb128 0
	.uleb128 .LEHB38-.LFB1490
	.uleb128 .LEHE38-.LEHB38
	.uleb128 0
	.uleb128 0
	.uleb128 .LEHB39-.LFB1490
	.uleb128 .LEHE39-.LEHB39
	.uleb128 0
	.uleb128 0
	.uleb128 .LEHB40-.LFB1490
	.uleb128 .LEHE40-.LEHB40
	.uleb128 0
	.uleb128 0
.LLSDACSE1490:
	.section	".text"
	.size	_ZN9GuiButton6UpdateEP10GuiTrigger, .-_ZN9GuiButton6UpdateEP10GuiTrigger
	.align 2
	.globl _ZN9GuiButton4InitEv
	.type	_ZN9GuiButton4InitEv, @function
_ZN9GuiButton4InitEv:
.LFB1469:
	.loc 3 40 0
	.cfi_startproc
.LVL368:
.LBB2532:
	.loc 3 41 0
	li 0,0
	.loc 3 62 0
	li 9,1
	.loc 3 41 0
	stw 0,184(3)
	.loc 3 42 0
	stw 0,188(3)
	.loc 3 43 0
	stw 0,192(3)
	.loc 3 44 0
	stw 0,196(3)
	.loc 3 45 0
	stw 0,200(3)
	.loc 3 46 0
	stw 0,204(3)
	.loc 3 47 0
	stw 0,208(3)
	.loc 3 48 0
	stw 0,212(3)
	.loc 3 49 0
	stw 0,276(3)
.LVL369:
	stw 0,216(3)
	stw 0,220(3)
	stw 0,224(3)
	stw 0,228(3)
	stw 0,232(3)
	stw 0,236(3)
	stw 0,240(3)
	stw 0,244(3)
	stw 0,248(3)
	stw 0,252(3)
	stw 0,256(3)
	stw 0,260(3)
	.loc 3 59 0
	stw 0,264(3)
	.loc 3 60 0
	stw 0,268(3)
	.loc 3 61 0
	stw 0,272(3)
	.loc 3 62 0
	stb 9,30(3)
	.loc 3 63 0
	stb 0,32(3)
	.loc 3 64 0
	stb 9,31(3)
.LVL370:
.LBB2533:
	.loc 3 67 0
	stw 0,288(3)
.LVL371:
	stw 0,292(3)
.LVL372:
	stw 0,296(3)
.LVL373:
	stw 0,300(3)
.LVL374:
	stw 0,304(3)
.LVL375:
	stw 0,308(3)
.LVL376:
.LBE2533:
.LBE2532:
	.loc 3 68 0
	blr
	.cfi_endproc
.LFE1469:
	.size	_ZN9GuiButton4InitEv, .-_ZN9GuiButton4InitEv
	.align 2
	.globl _ZN9GuiButton8SetImageEP8GuiImage
	.type	_ZN9GuiButton8SetImageEP8GuiImage, @function
_ZN9GuiButton8SetImageEP8GuiImage:
.LFB1470:
	.loc 3 71 0
	.cfi_startproc
.LVL377:
	.loc 3 73 0
	cmpwi 7,4,0
	.loc 3 71 0
	mflr 0
	stwu 1,-8(1)
.LCFI55:
	.cfi_def_cfa_offset 8
	.cfi_register 65, 0
	mr 9,3
	stw 0,12(1)
	.loc 3 72 0
	stw 4,184(3)
	.loc 3 73 0
	beq- 7,.L377
	.cfi_offset 65, 4
	.loc 3 73 0 is_stmt 0 discriminator 1
	lwz 11,0(4)
	mr 3,4
.LVL378:
	mr 4,9
.LVL379:
	lwz 0,8(11)
	mtctr 0
	bctrl
.LVL380:
.L377:
	.loc 3 74 0 is_stmt 1
	lwz 0,12(1)
	addi 1,1,8
.LCFI56:
	.cfi_def_cfa_offset 0
	mtlr 0
	blr
	.cfi_endproc
.LFE1470:
	.size	_ZN9GuiButton8SetImageEP8GuiImage, .-_ZN9GuiButton8SetImageEP8GuiImage
	.align 2
	.globl _ZN9GuiButton12SetImageOverEP8GuiImage
	.type	_ZN9GuiButton12SetImageOverEP8GuiImage, @function
_ZN9GuiButton12SetImageOverEP8GuiImage:
.LFB1471:
	.loc 3 76 0
	.cfi_startproc
.LVL381:
	.loc 3 78 0
	cmpwi 7,4,0
	.loc 3 76 0
	mflr 0
	stwu 1,-8(1)
.LCFI57:
	.cfi_def_cfa_offset 8
	.cfi_register 65, 0
	mr 9,3
	stw 0,12(1)
	.loc 3 77 0
	stw 4,188(3)
	.loc 3 78 0
	beq- 7,.L379
	.cfi_offset 65, 4
	.loc 3 78 0 is_stmt 0 discriminator 1
	lwz 11,0(4)
	mr 3,4
.LVL382:
	mr 4,9
.LVL383:
	lwz 0,8(11)
	mtctr 0
	bctrl
.LVL384:
.L379:
	.loc 3 79 0 is_stmt 1
	lwz 0,12(1)
	addi 1,1,8
.LCFI58:
	.cfi_def_cfa_offset 0
	mtlr 0
	blr
	.cfi_endproc
.LFE1471:
	.size	_ZN9GuiButton12SetImageOverEP8GuiImage, .-_ZN9GuiButton12SetImageOverEP8GuiImage
	.align 2
	.globl _ZN9GuiButton12SetImageHoldEP8GuiImage
	.type	_ZN9GuiButton12SetImageHoldEP8GuiImage, @function
_ZN9GuiButton12SetImageHoldEP8GuiImage:
.LFB1472:
	.loc 3 81 0
	.cfi_startproc
.LVL385:
	.loc 3 83 0
	cmpwi 7,4,0
	.loc 3 81 0
	mflr 0
	stwu 1,-8(1)
.LCFI59:
	.cfi_def_cfa_offset 8
	.cfi_register 65, 0
	mr 9,3
	stw 0,12(1)
	.loc 3 82 0
	stw 4,192(3)
	.loc 3 83 0
	beq- 7,.L381
	.cfi_offset 65, 4
	.loc 3 83 0 is_stmt 0 discriminator 1
	lwz 11,0(4)
	mr 3,4
.LVL386:
	mr 4,9
.LVL387:
	lwz 0,8(11)
	mtctr 0
	bctrl
.LVL388:
.L381:
	.loc 3 84 0 is_stmt 1
	lwz 0,12(1)
	addi 1,1,8
.LCFI60:
	.cfi_def_cfa_offset 0
	mtlr 0
	blr
	.cfi_endproc
.LFE1472:
	.size	_ZN9GuiButton12SetImageHoldEP8GuiImage, .-_ZN9GuiButton12SetImageHoldEP8GuiImage
	.align 2
	.globl _ZN9GuiButton13SetImageClickEP8GuiImage
	.type	_ZN9GuiButton13SetImageClickEP8GuiImage, @function
_ZN9GuiButton13SetImageClickEP8GuiImage:
.LFB1473:
	.loc 3 86 0
	.cfi_startproc
.LVL389:
	.loc 3 88 0
	cmpwi 7,4,0
	.loc 3 86 0
	mflr 0
	stwu 1,-8(1)
.LCFI61:
	.cfi_def_cfa_offset 8
	.cfi_register 65, 0
	mr 9,3
	stw 0,12(1)
	.loc 3 87 0
	stw 4,196(3)
	.loc 3 88 0
	beq- 7,.L383
	.cfi_offset 65, 4
	.loc 3 88 0 is_stmt 0 discriminator 1
	lwz 11,0(4)
	mr 3,4
.LVL390:
	mr 4,9
.LVL391:
	lwz 0,8(11)
	mtctr 0
	bctrl
.LVL392:
.L383:
	.loc 3 89 0 is_stmt 1
	lwz 0,12(1)
	addi 1,1,8
.LCFI62:
	.cfi_def_cfa_offset 0
	mtlr 0
	blr
	.cfi_endproc
.LFE1473:
	.size	_ZN9GuiButton13SetImageClickEP8GuiImage, .-_ZN9GuiButton13SetImageClickEP8GuiImage
	.align 2
	.globl _ZN9GuiButton7SetIconEP8GuiImage
	.type	_ZN9GuiButton7SetIconEP8GuiImage, @function
_ZN9GuiButton7SetIconEP8GuiImage:
.LFB1474:
	.loc 3 91 0
	.cfi_startproc
.LVL393:
	.loc 3 93 0
	cmpwi 7,4,0
	.loc 3 91 0
	mflr 0
	stwu 1,-8(1)
.LCFI63:
	.cfi_def_cfa_offset 8
	.cfi_register 65, 0
	mr 9,3
	stw 0,12(1)
	.loc 3 92 0
	stw 4,200(3)
	.loc 3 93 0
	beq- 7,.L385
	.cfi_offset 65, 4
	.loc 3 93 0 is_stmt 0 discriminator 1
	lwz 11,0(4)
	mr 3,4
.LVL394:
	mr 4,9
.LVL395:
	lwz 0,8(11)
	mtctr 0
	bctrl
.LVL396:
.L385:
	.loc 3 94 0 is_stmt 1
	lwz 0,12(1)
	addi 1,1,8
.LCFI64:
	.cfi_def_cfa_offset 0
	mtlr 0
	blr
	.cfi_endproc
.LFE1474:
	.size	_ZN9GuiButton7SetIconEP8GuiImage, .-_ZN9GuiButton7SetIconEP8GuiImage
	.align 2
	.globl _ZN9GuiButton11SetIconOverEP8GuiImage
	.type	_ZN9GuiButton11SetIconOverEP8GuiImage, @function
_ZN9GuiButton11SetIconOverEP8GuiImage:
.LFB1475:
	.loc 3 96 0
	.cfi_startproc
.LVL397:
	.loc 3 98 0
	cmpwi 7,4,0
	.loc 3 96 0
	mflr 0
	stwu 1,-8(1)
.LCFI65:
	.cfi_def_cfa_offset 8
	.cfi_register 65, 0
	mr 9,3
	stw 0,12(1)
	.loc 3 97 0
	stw 4,204(3)
	.loc 3 98 0
	beq- 7,.L387
	.cfi_offset 65, 4
	.loc 3 98 0 is_stmt 0 discriminator 1
	lwz 11,0(4)
	mr 3,4
.LVL398:
	mr 4,9
.LVL399:
	lwz 0,8(11)
	mtctr 0
	bctrl
.LVL400:
.L387:
	.loc 3 99 0 is_stmt 1
	lwz 0,12(1)
	addi 1,1,8
.LCFI66:
	.cfi_def_cfa_offset 0
	mtlr 0
	blr
	.cfi_endproc
.LFE1475:
	.size	_ZN9GuiButton11SetIconOverEP8GuiImage, .-_ZN9GuiButton11SetIconOverEP8GuiImage
	.align 2
	.globl _ZN9GuiButton11SetIconHoldEP8GuiImage
	.type	_ZN9GuiButton11SetIconHoldEP8GuiImage, @function
_ZN9GuiButton11SetIconHoldEP8GuiImage:
.LFB1476:
	.loc 3 101 0
	.cfi_startproc
.LVL401:
	.loc 3 103 0
	cmpwi 7,4,0
	.loc 3 101 0
	mflr 0
	stwu 1,-8(1)
.LCFI67:
	.cfi_def_cfa_offset 8
	.cfi_register 65, 0
	mr 9,3
	stw 0,12(1)
	.loc 3 102 0
	stw 4,208(3)
	.loc 3 103 0
	beq- 7,.L389
	.cfi_offset 65, 4
	.loc 3 103 0 is_stmt 0 discriminator 1
	lwz 11,0(4)
	mr 3,4
.LVL402:
	mr 4,9
.LVL403:
	lwz 0,8(11)
	mtctr 0
	bctrl
.LVL404:
.L389:
	.loc 3 104 0 is_stmt 1
	lwz 0,12(1)
	addi 1,1,8
.LCFI68:
	.cfi_def_cfa_offset 0
	mtlr 0
	blr
	.cfi_endproc
.LFE1476:
	.size	_ZN9GuiButton11SetIconHoldEP8GuiImage, .-_ZN9GuiButton11SetIconHoldEP8GuiImage
	.align 2
	.globl _ZN9GuiButton12SetIconClickEP8GuiImage
	.type	_ZN9GuiButton12SetIconClickEP8GuiImage, @function
_ZN9GuiButton12SetIconClickEP8GuiImage:
.LFB1477:
	.loc 3 106 0
	.cfi_startproc
.LVL405:
	.loc 3 108 0
	cmpwi 7,4,0
	.loc 3 106 0
	mflr 0
	stwu 1,-8(1)
.LCFI69:
	.cfi_def_cfa_offset 8
	.cfi_register 65, 0
	mr 9,3
	stw 0,12(1)
	.loc 3 107 0
	stw 4,212(3)
	.loc 3 108 0
	beq- 7,.L391
	.cfi_offset 65, 4
	.loc 3 108 0 is_stmt 0 discriminator 1
	lwz 11,0(4)
	mr 3,4
.LVL406:
	mr 4,9
.LVL407:
	lwz 0,8(11)
	mtctr 0
	bctrl
.LVL408:
.L391:
	.loc 3 109 0 is_stmt 1
	lwz 0,12(1)
	addi 1,1,8
.LCFI70:
	.cfi_def_cfa_offset 0
	mtlr 0
	blr
	.cfi_endproc
.LFE1477:
	.size	_ZN9GuiButton12SetIconClickEP8GuiImage, .-_ZN9GuiButton12SetIconClickEP8GuiImage
	.align 2
	.globl _ZN9GuiButton8SetLabelEP7GuiTexti
	.type	_ZN9GuiButton8SetLabelEP7GuiTexti, @function
_ZN9GuiButton8SetLabelEP7GuiTexti:
.LFB1478:
	.loc 3 111 0
	.cfi_startproc
.LVL409:
	.loc 3 113 0
	cmpwi 7,4,0
	.loc 3 111 0
	mflr 0
	.loc 3 112 0
	addi 5,5,52
.LVL410:
	.loc 3 111 0
	stwu 1,-8(1)
.LCFI71:
	.cfi_def_cfa_offset 8
	.cfi_register 65, 0
	.loc 3 112 0
	slwi 5,5,2
.LVL411:
	.loc 3 111 0
	mr 9,3
	.loc 3 112 0
	add 5,3,5
	.loc 3 111 0
	stw 0,12(1)
	.loc 3 112 0
	stw 4,8(5)
	.loc 3 113 0
	beq- 7,.L393
	.cfi_offset 65, 4
	.loc 3 113 0 is_stmt 0 discriminator 1
	lwz 11,0(4)
	mr 3,4
.LVL412:
	mr 4,9
.LVL413:
	lwz 0,8(11)
	mtctr 0
	bctrl
.LVL414:
.L393:
	.loc 3 114 0 is_stmt 1
	lwz 0,12(1)
	addi 1,1,8
.LCFI72:
	.cfi_def_cfa_offset 0
	mtlr 0
	blr
	.cfi_endproc
.LFE1478:
	.size	_ZN9GuiButton8SetLabelEP7GuiTexti, .-_ZN9GuiButton8SetLabelEP7GuiTexti
	.align 2
	.globl _ZN9GuiButton12SetLabelOverEP7GuiTexti
	.type	_ZN9GuiButton12SetLabelOverEP7GuiTexti, @function
_ZN9GuiButton12SetLabelOverEP7GuiTexti:
.LFB1479:
	.loc 3 116 0
	.cfi_startproc
.LVL415:
	.loc 3 118 0
	cmpwi 7,4,0
	.loc 3 116 0
	mflr 0
	.loc 3 117 0
	addi 5,5,56
.LVL416:
	.loc 3 116 0
	stwu 1,-8(1)
.LCFI73:
	.cfi_def_cfa_offset 8
	.cfi_register 65, 0
	.loc 3 117 0
	slwi 5,5,2
.LVL417:
	.loc 3 116 0
	mr 9,3
	.loc 3 117 0
	add 5,3,5
	.loc 3 116 0
	stw 0,12(1)
	.loc 3 117 0
	stw 4,4(5)
	.loc 3 118 0
	beq- 7,.L395
	.cfi_offset 65, 4
	.loc 3 118 0 is_stmt 0 discriminator 1
	lwz 11,0(4)
	mr 3,4
.LVL418:
	mr 4,9
.LVL419:
	lwz 0,8(11)
	mtctr 0
	bctrl
.LVL420:
.L395:
	.loc 3 119 0 is_stmt 1
	lwz 0,12(1)
	addi 1,1,8
.LCFI74:
	.cfi_def_cfa_offset 0
	mtlr 0
	blr
	.cfi_endproc
.LFE1479:
	.size	_ZN9GuiButton12SetLabelOverEP7GuiTexti, .-_ZN9GuiButton12SetLabelOverEP7GuiTexti
	.align 2
	.globl _ZN9GuiButton12SetLabelHoldEP7GuiTexti
	.type	_ZN9GuiButton12SetLabelHoldEP7GuiTexti, @function
_ZN9GuiButton12SetLabelHoldEP7GuiTexti:
.LFB1480:
	.loc 3 121 0
	.cfi_startproc
.LVL421:
	.loc 3 123 0
	cmpwi 7,4,0
	.loc 3 121 0
	mflr 0
	stwu 1,-8(1)
.LCFI75:
	.cfi_def_cfa_offset 8
	.cfi_register 65, 0
	.loc 3 122 0
	addi 5,5,60
.LVL422:
	slwi 5,5,2
.LVL423:
	.loc 3 121 0
	mr 9,3
	stw 0,12(1)
	.loc 3 122 0
	stwx 4,3,5
	.loc 3 123 0
	beq- 7,.L397
	.cfi_offset 65, 4
	.loc 3 123 0 is_stmt 0 discriminator 1
	lwz 11,0(4)
	mr 3,4
.LVL424:
	mr 4,9
.LVL425:
	lwz 0,8(11)
	mtctr 0
	bctrl
.LVL426:
.L397:
	.loc 3 124 0 is_stmt 1
	lwz 0,12(1)
	addi 1,1,8
.LCFI76:
	.cfi_def_cfa_offset 0
	mtlr 0
	blr
	.cfi_endproc
.LFE1480:
	.size	_ZN9GuiButton12SetLabelHoldEP7GuiTexti, .-_ZN9GuiButton12SetLabelHoldEP7GuiTexti
	.align 2
	.globl _ZN9GuiButton13SetLabelClickEP7GuiTexti
	.type	_ZN9GuiButton13SetLabelClickEP7GuiTexti, @function
_ZN9GuiButton13SetLabelClickEP7GuiTexti:
.LFB1481:
	.loc 3 126 0
	.cfi_startproc
.LVL427:
	.loc 3 128 0
	cmpwi 7,4,0
	.loc 3 126 0
	mflr 0
	.loc 3 127 0
	addi 5,5,60
.LVL428:
	.loc 3 126 0
	stwu 1,-8(1)
.LCFI77:
	.cfi_def_cfa_offset 8
	.cfi_register 65, 0
	.loc 3 127 0
	slwi 5,5,2
.LVL429:
	.loc 3 126 0
	mr 9,3
	.loc 3 127 0
	add 5,3,5
	.loc 3 126 0
	stw 0,12(1)
	.loc 3 127 0
	stw 4,12(5)
	.loc 3 128 0
	beq- 7,.L399
	.cfi_offset 65, 4
	.loc 3 128 0 is_stmt 0 discriminator 1
	lwz 11,0(4)
	mr 3,4
.LVL430:
	mr 4,9
.LVL431:
	lwz 0,8(11)
	mtctr 0
	bctrl
.LVL432:
.L399:
	.loc 3 129 0 is_stmt 1
	lwz 0,12(1)
	addi 1,1,8
.LCFI78:
	.cfi_def_cfa_offset 0
	mtlr 0
	blr
	.cfi_endproc
.LFE1481:
	.size	_ZN9GuiButton13SetLabelClickEP7GuiTexti, .-_ZN9GuiButton13SetLabelClickEP7GuiTexti
	.align 2
	.globl _ZN9GuiButton12SetSoundOverEP8GuiSound
	.type	_ZN9GuiButton12SetSoundOverEP8GuiSound, @function
_ZN9GuiButton12SetSoundOverEP8GuiSound:
.LFB1482:
	.loc 3 131 0
	.cfi_startproc
.LVL433:
	.loc 3 132 0
	stw 4,264(3)
	.loc 3 133 0
	blr
	.cfi_endproc
.LFE1482:
	.size	_ZN9GuiButton12SetSoundOverEP8GuiSound, .-_ZN9GuiButton12SetSoundOverEP8GuiSound
	.align 2
	.globl _ZN9GuiButton12SetSoundHoldEP8GuiSound
	.type	_ZN9GuiButton12SetSoundHoldEP8GuiSound, @function
_ZN9GuiButton12SetSoundHoldEP8GuiSound:
.LFB1483:
	.loc 3 135 0
	.cfi_startproc
.LVL434:
	.loc 3 136 0
	stw 4,268(3)
	.loc 3 137 0
	blr
	.cfi_endproc
.LFE1483:
	.size	_ZN9GuiButton12SetSoundHoldEP8GuiSound, .-_ZN9GuiButton12SetSoundHoldEP8GuiSound
	.align 2
	.globl _ZN9GuiButton13SetSoundClickEP8GuiSound
	.type	_ZN9GuiButton13SetSoundClickEP8GuiSound, @function
_ZN9GuiButton13SetSoundClickEP8GuiSound:
.LFB1484:
	.loc 3 140 0
	.cfi_startproc
.LVL435:
	.loc 3 141 0
	stw 4,272(3)
	.loc 3 142 0
	blr
	.cfi_endproc
.LFE1484:
	.size	_ZN9GuiButton13SetSoundClickEP8GuiSound, .-_ZN9GuiButton13SetSoundClickEP8GuiSound
	.align 2
	.globl _ZN9GuiButton10SetTriggerEP10GuiTrigger
	.type	_ZN9GuiButton10SetTriggerEP10GuiTrigger, @function
_ZN9GuiButton10SetTriggerEP10GuiTrigger:
.LFB1485:
	.loc 3 145 0
	.cfi_startproc
.LVL436:
	.loc 3 146 0
	lwz 0,288(3)
	cmpwi 7,0,0
	beq- 7,.L411
	.loc 3 148 0
	lwz 0,292(3)
	cmpwi 7,0,0
	beq- 7,.L412
	.loc 3 150 0
	lwz 0,296(3)
	cmpwi 7,0,0
	beq- 7,.L413
	.loc 3 152 0
	lwz 0,300(3)
	cmpwi 7,0,0
	beq- 7,.L414
	.loc 3 154 0
	lwz 0,304(3)
	cmpwi 7,0,0
	beq- 7,.L415
	.loc 3 156 0
	lwz 0,308(3)
	cmpwi 7,0,0
	beq- 7,.L416
.L411:
	.loc 3 159 0
	stw 4,288(3)
	blr
.L412:
	.loc 3 149 0
	stw 4,292(3)
	blr
.L413:
	.loc 3 151 0
	stw 4,296(3)
	blr
.L414:
	.loc 3 153 0
	stw 4,300(3)
	blr
.L415:
	.loc 3 155 0
	stw 4,304(3)
	blr
.L416:
	.loc 3 157 0
	stw 4,308(3)
	blr
	.cfi_endproc
.LFE1485:
	.size	_ZN9GuiButton10SetTriggerEP10GuiTrigger, .-_ZN9GuiButton10SetTriggerEP10GuiTrigger
	.align 2
	.globl _ZN9GuiButton10SetTriggerEhP10GuiTrigger
	.type	_ZN9GuiButton10SetTriggerEhP10GuiTrigger, @function
_ZN9GuiButton10SetTriggerEhP10GuiTrigger:
.LFB1486:
	.loc 3 163 0
	.cfi_startproc
.LVL437:
	.loc 3 164 0
	addi 4,4,72
.LVL438:
	slwi 4,4,2
	stwx 5,3,4
	.loc 3 165 0
	blr
	.cfi_endproc
.LFE1486:
	.size	_ZN9GuiButton10SetTriggerEhP10GuiTrigger, .-_ZN9GuiButton10SetTriggerEhP10GuiTrigger
	.align 2
	.globl _ZN9GuiButton10SetTooltipEP10GuiTooltip
	.type	_ZN9GuiButton10SetTooltipEP10GuiTooltip, @function
_ZN9GuiButton10SetTooltipEP10GuiTooltip:
.LFB1487:
	.loc 3 168 0
	.cfi_startproc
.LVL439:
	.loc 3 170 0
	cmpwi 7,4,0
	.loc 3 168 0
	mflr 0
	stwu 1,-8(1)
.LCFI79:
	.cfi_def_cfa_offset 8
	.cfi_register 65, 0
	mr 9,3
	stw 0,12(1)
	.loc 3 169 0
	stw 4,276(3)
	.loc 3 170 0
	beq- 7,.L418
	.cfi_offset 65, 4
	.loc 3 171 0
	lwz 11,0(4)
	mr 3,4
.LVL440:
	mr 4,9
.LVL441:
	lwz 0,8(11)
	mtctr 0
	bctrl
.LVL442:
.L418:
	.loc 3 172 0
	lwz 0,12(1)
	addi 1,1,8
.LCFI80:
	.cfi_def_cfa_offset 0
	mtlr 0
	blr
	.cfi_endproc
.LFE1487:
	.size	_ZN9GuiButton10SetTooltipEP10GuiTooltip, .-_ZN9GuiButton10SetTooltipEP10GuiTooltip
	.section	.text._ZNSt8_Rb_treeIPN7sigslot12_signal_baseINS0_15single_threadedEEES4_St9_IdentityIS4_ESt4lessIS4_ESaIS4_EE8_M_eraseEPSt13_Rb_tree_nodeIS4_E,"axG",@progbits,_ZNSt8_Rb_treeIPN7sigslot12_signal_baseINS0_15single_threadedEEES4_St9_IdentityIS4_ESt4lessIS4_ESaIS4_EE8_M_eraseEPSt13_Rb_tree_nodeIS4_E,comdat
	.align 2
	.weak	_ZNSt8_Rb_treeIPN7sigslot12_signal_baseINS0_15single_threadedEEES4_St9_IdentityIS4_ESt4lessIS4_ESaIS4_EE8_M_eraseEPSt13_Rb_tree_nodeIS4_E
	.type	_ZNSt8_Rb_treeIPN7sigslot12_signal_baseINS0_15single_threadedEEES4_St9_IdentityIS4_ESt4lessIS4_ESaIS4_EE8_M_eraseEPSt13_Rb_tree_nodeIS4_E, @function
_ZNSt8_Rb_treeIPN7sigslot12_signal_baseINS0_15single_threadedEEES4_St9_IdentityIS4_ESt4lessIS4_ESaIS4_EE8_M_eraseEPSt13_Rb_tree_nodeIS4_E:
.LFB1795:
	.file 8 "d:\\devkitpro\\devkitppc\\bin\\../lib/gcc/powerpc-eabi/4.6.3/../../../../powerpc-eabi/include/c++/4.6.3/bits/stl_tree.h"
	.loc 8 1068 0
	.cfi_startproc
.LVL443:
	stwu 1,-56(1)
.LCFI81:
	.cfi_def_cfa_offset 56
	mflr 0
	stw 22,16(1)
.LBB2650:
	.loc 8 1072 0
	mr. 22,4
	.cfi_offset 22, -40
	.cfi_register 65, 0
.LBE2650:
	.loc 8 1068 0
	stw 30,48(1)
	mr 30,3
	.cfi_offset 30, -8
	stw 0,60(1)
	stw 21,12(1)
	stw 23,20(1)
	stw 24,24(1)
	stw 25,28(1)
	stw 26,32(1)
	stw 27,36(1)
	stw 28,40(1)
	stw 29,44(1)
	stw 31,52(1)
.LBB2735:
	.loc 8 1072 0
	beq- 0,.L420
	.cfi_offset 31, -4
	.cfi_offset 29, -12
	.cfi_offset 28, -16
	.cfi_offset 27, -20
	.cfi_offset 26, -24
	.cfi_offset 25, -28
	.cfi_offset 24, -32
	.cfi_offset 23, -36
	.cfi_offset 21, -44
	.cfi_offset 65, 4
.LVL444:
.L466:
	.loc 3 406 0
	lwz 27,12(22)
.LVL445:
.LBB2651:
.LBB2652:
.LBB2653:
	.loc 8 1072 0
	cmpwi 7,27,0
	beq- 7,.L422
.LVL446:
.L467:
.LBE2653:
	.loc 3 406 0
	lwz 26,12(27)
.LVL447:
.LBB2729:
.LBB2654:
.LBB2655:
.LBB2656:
	.loc 8 1072 0
	cmpwi 7,26,0
	beq- 7,.L423
.LVL448:
.L468:
.LBE2656:
	.loc 3 406 0
	lwz 25,12(26)
.LVL449:
.LBB2722:
.LBB2657:
.LBB2658:
.LBB2659:
	.loc 8 1072 0
	cmpwi 7,25,0
	beq- 7,.L424
.LVL450:
.L469:
.LBE2659:
	.loc 3 406 0
	lwz 24,12(25)
.LVL451:
.LBB2715:
.LBB2660:
.LBB2661:
.LBB2662:
	.loc 8 1072 0
	cmpwi 7,24,0
	beq- 7,.L425
.LVL452:
.L470:
.LBE2662:
	.loc 3 406 0
	lwz 23,12(24)
.LVL453:
.LBB2708:
.LBB2663:
.LBB2664:
.LBB2665:
	.loc 8 1072 0
	cmpwi 7,23,0
	beq- 7,.L426
.LVL454:
.L471:
.LBE2665:
	.loc 3 406 0
	lwz 28,12(23)
.LVL455:
.LBB2701:
.LBB2666:
.LBB2667:
.LBB2668:
	.loc 8 1072 0
	cmpwi 7,28,0
	beq- 7,.L427
.LVL456:
.L472:
.LBE2668:
	.loc 3 406 0
	lwz 29,12(28)
.LVL457:
.LBB2694:
.LBB2669:
.LBB2670:
.LBB2671:
	.loc 8 1072 0
	cmpwi 7,29,0
	beq- 7,.L428
.LVL458:
.L473:
.LBE2671:
	.loc 3 406 0
	lwz 31,12(29)
.LVL459:
.LBB2687:
.LBB2672:
.LBB2673:
.LBB2674:
	.loc 8 1072 0
	cmpwi 7,31,0
	beq- 7,.L429
.LVL460:
.L474:
.LBB2675:
	.loc 8 1074 0
	lwz 4,12(31)
	mr 3,30
	bl _ZNSt8_Rb_treeIPN7sigslot12_signal_baseINS0_15single_threadedEEES4_St9_IdentityIS4_ESt4lessIS4_ESaIS4_EE8_M_eraseEPSt13_Rb_tree_nodeIS4_E
.LBE2675:
.LBE2674:
	.loc 3 406 0
	lwz 21,8(31)
.LVL461:
.LBB2681:
.LBB2680:
.LBB2676:
.LBB2677:
.LBB2678:
.LBB2679:
	.loc 6 98 0
	mr 3,31
	bl _ZdlPv
.LVL462:
.LBE2679:
.LBE2678:
.LBE2677:
.LBE2676:
.LBE2680:
	.loc 8 1072 0
	cmpwi 7,21,0
	.loc 8 1077 0
	mr 31,21
.LVL463:
	.loc 8 1072 0
	bne+ 7,.L474
.LVL464:
.L429:
.LBE2681:
.LBE2673:
.LBE2672:
.LBE2687:
	.loc 3 406 0
	lwz 31,8(29)
.LVL465:
.LBB2688:
.LBB2686:
.LBB2682:
.LBB2683:
.LBB2684:
.LBB2685:
	.loc 6 98 0
	mr 3,29
	bl _ZdlPv
.LVL466:
.LBE2685:
.LBE2684:
.LBE2683:
.LBE2682:
.LBE2686:
	.loc 8 1072 0
	cmpwi 7,31,0
	beq- 7,.L428
	.loc 8 1077 0
	mr 29,31
.LVL467:
	b .L473
.LVL468:
.L428:
.LBE2688:
.LBE2670:
.LBE2669:
.LBE2694:
	.loc 3 406 0
	lwz 31,8(28)
.LVL469:
.LBB2695:
.LBB2693:
.LBB2689:
.LBB2690:
.LBB2691:
.LBB2692:
	.loc 6 98 0
	mr 3,28
	bl _ZdlPv
.LVL470:
.LBE2692:
.LBE2691:
.LBE2690:
.LBE2689:
.LBE2693:
	.loc 8 1072 0
	cmpwi 7,31,0
	beq- 7,.L427
	.loc 8 1077 0
	mr 28,31
.LVL471:
	b .L472
.LVL472:
.L427:
.LBE2695:
.LBE2667:
.LBE2666:
.LBE2701:
	.loc 3 406 0
	lwz 31,8(23)
.LVL473:
.LBB2702:
.LBB2700:
.LBB2696:
.LBB2697:
.LBB2698:
.LBB2699:
	.loc 6 98 0
	mr 3,23
	bl _ZdlPv
.LVL474:
.LBE2699:
.LBE2698:
.LBE2697:
.LBE2696:
.LBE2700:
	.loc 8 1072 0
	cmpwi 7,31,0
	beq- 7,.L426
	.loc 8 1077 0
	mr 23,31
.LVL475:
	b .L471
.LVL476:
.L426:
.LBE2702:
.LBE2664:
.LBE2663:
.LBE2708:
	.loc 3 406 0
	lwz 31,8(24)
.LVL477:
.LBB2709:
.LBB2707:
.LBB2703:
.LBB2704:
.LBB2705:
.LBB2706:
	.loc 6 98 0
	mr 3,24
	bl _ZdlPv
.LVL478:
.LBE2706:
.LBE2705:
.LBE2704:
.LBE2703:
.LBE2707:
	.loc 8 1072 0
	cmpwi 7,31,0
	beq- 7,.L425
	.loc 8 1077 0
	mr 24,31
.LVL479:
	b .L470
.LVL480:
.L425:
.LBE2709:
.LBE2661:
.LBE2660:
.LBE2715:
	.loc 3 406 0
	lwz 31,8(25)
.LVL481:
.LBB2716:
.LBB2714:
.LBB2710:
.LBB2711:
.LBB2712:
.LBB2713:
	.loc 6 98 0
	mr 3,25
	bl _ZdlPv
.LVL482:
.LBE2713:
.LBE2712:
.LBE2711:
.LBE2710:
.LBE2714:
	.loc 8 1072 0
	cmpwi 7,31,0
	beq- 7,.L424
	.loc 8 1077 0
	mr 25,31
.LVL483:
	b .L469
.LVL484:
.L424:
.LBE2716:
.LBE2658:
.LBE2657:
.LBE2722:
	.loc 3 406 0
	lwz 31,8(26)
.LVL485:
.LBB2723:
.LBB2721:
.LBB2717:
.LBB2718:
.LBB2719:
.LBB2720:
	.loc 6 98 0
	mr 3,26
	bl _ZdlPv
.LVL486:
.LBE2720:
.LBE2719:
.LBE2718:
.LBE2717:
.LBE2721:
	.loc 8 1072 0
	cmpwi 7,31,0
	beq- 7,.L423
	.loc 8 1077 0
	mr 26,31
.LVL487:
	b .L468
.LVL488:
.L423:
.LBE2723:
.LBE2655:
.LBE2654:
.LBE2729:
	.loc 3 406 0
	lwz 31,8(27)
.LVL489:
.LBB2730:
.LBB2728:
.LBB2724:
.LBB2725:
.LBB2726:
.LBB2727:
	.loc 6 98 0
	mr 3,27
	bl _ZdlPv
.LVL490:
.LBE2727:
.LBE2726:
.LBE2725:
.LBE2724:
.LBE2728:
	.loc 8 1072 0
	cmpwi 7,31,0
	beq- 7,.L422
	.loc 8 1077 0
	mr 27,31
.LVL491:
	b .L467
.LVL492:
.L422:
	.loc 3 406 0
	lwz 31,8(22)
.LVL493:
.LBE2730:
.LBE2652:
.LBB2731:
.LBB2732:
.LBB2733:
.LBB2734:
	.loc 6 98 0
	mr 3,22
	bl _ZdlPv
.LVL494:
.LBE2734:
.LBE2733:
.LBE2732:
.LBE2731:
.LBE2651:
	.loc 8 1072 0
	cmpwi 7,31,0
	beq- 7,.L420
	.loc 8 1077 0
	mr 22,31
.LVL495:
	b .L466
.LVL496:
.L420:
.LBE2735:
	.loc 8 1079 0
	lwz 0,60(1)
	lwz 21,12(1)
	mtlr 0
	lwz 22,16(1)
	lwz 23,20(1)
	lwz 24,24(1)
	lwz 25,28(1)
	lwz 26,32(1)
	lwz 27,36(1)
	lwz 28,40(1)
	lwz 29,44(1)
	lwz 30,48(1)
.LVL497:
	lwz 31,52(1)
	addi 1,1,56
.LCFI82:
	.cfi_def_cfa_offset 0
	.cfi_restore 31
	.cfi_restore 30
	.cfi_restore 29
	.cfi_restore 28
	.cfi_restore 27
	.cfi_restore 26
	.cfi_restore 25
	.cfi_restore 24
	.cfi_restore 23
	.cfi_restore 22
	.cfi_restore 21
	blr
	.cfi_endproc
.LFE1795:
	.size	_ZNSt8_Rb_treeIPN7sigslot12_signal_baseINS0_15single_threadedEEES4_St9_IdentityIS4_ESt4lessIS4_ESaIS4_EE8_M_eraseEPSt13_Rb_tree_nodeIS4_E, .-_ZNSt8_Rb_treeIPN7sigslot12_signal_baseINS0_15single_threadedEEES4_St9_IdentityIS4_ESt4lessIS4_ESaIS4_EE8_M_eraseEPSt13_Rb_tree_nodeIS4_E
	.section	.text._ZNSt8_Rb_treeIPN7sigslot12_signal_baseINS0_15single_threadedEEES4_St9_IdentityIS4_ESt4lessIS4_ESaIS4_EE5eraseERKS4_,"axG",@progbits,_ZNSt8_Rb_treeIPN7sigslot12_signal_baseINS0_15single_threadedEEES4_St9_IdentityIS4_ESt4lessIS4_ESaIS4_EE5eraseERKS4_,comdat
	.align 2
	.weak	_ZNSt8_Rb_treeIPN7sigslot12_signal_baseINS0_15single_threadedEEES4_St9_IdentityIS4_ESt4lessIS4_ESaIS4_EE5eraseERKS4_
	.type	_ZNSt8_Rb_treeIPN7sigslot12_signal_baseINS0_15single_threadedEEES4_St9_IdentityIS4_ESt4lessIS4_ESaIS4_EE5eraseERKS4_, @function
_ZNSt8_Rb_treeIPN7sigslot12_signal_baseINS0_15single_threadedEEES4_St9_IdentityIS4_ESt4lessIS4_ESaIS4_EE5eraseERKS4_:
.LFB1715:
	.loc 8 1510 0
	.cfi_startproc
.LVL498:
	mflr 0
	stwu 1,-32(1)
.LCFI83:
	.cfi_def_cfa_offset 32
	.cfi_register 65, 0
	stw 28,16(1)
.LBB2736:
.LBB2737:
	.loc 8 1155 0
	addi 28,3,4
	.cfi_offset 28, -16
.LBE2737:
.LBE2736:
	.loc 8 1510 0
	stw 0,36(1)
	stw 26,8(1)
.LBB2793:
.LBB2758:
.LBB2738:
	.loc 8 1155 0
	mr 26,28
	.cfi_offset 26, -24
	.cfi_offset 65, 4
.LBE2738:
	.loc 3 406 0
	lwz 0,8(3)
.LBE2758:
.LBE2793:
	.loc 8 1510 0
	stw 29,20(1)
.LBB2794:
.LBB2759:
.LBB2751:
	.loc 8 1155 0
	mr 29,28
	.cfi_offset 29, -12
	.loc 8 1156 0
	cmpwi 7,0,0
.LBE2751:
.LBE2759:
.LBE2794:
	.loc 8 1510 0
	stw 30,24(1)
	stw 27,12(1)
	mr 30,3
	.cfi_offset 27, -20
	.cfi_offset 30, -8
.LVL499:
	stw 31,28(1)
.LBB2795:
.LBB2760:
.LBB2752:
	.loc 8 1156 0
	beq- 7,.L476
	.cfi_offset 31, -4
	lwz 11,0(4)
	mr 26,0
	b .L487
.LVL500:
.L506:
.LBE2752:
	.loc 3 406 0
	lwz 26,12(26)
.LVL501:
.LBB2753:
	.loc 8 1156 0
	cmpwi 7,26,0
	beq- 7,.L505
.L487:
.LVL502:
.LBE2753:
	.loc 3 406 0
	lwz 9,16(26)
.LBB2754:
.LBB2739:
	.loc 8 1158 0
	cmplw 7,9,11
	blt- 7,.L506
.LVL503:
.LBB2740:
	.loc 8 1160 0
	ble- 7,.L479
.LVL504:
.LBE2740:
.LBE2739:
.LBE2754:
	.loc 3 406 0
	mr 29,26
	.loc 8 1161 0
	lwz 26,8(26)
.LVL505:
.LBB2755:
	.loc 8 1156 0
	cmpwi 7,26,0
	bne+ 7,.L487
.LVL506:
.L505:
	mr 26,29
.LVL507:
.L476:
.LBE2755:
.LBE2760:
.LBB2761:
.LBB2762:
	.loc 3 406 0
	lwz 9,12(30)
.LBE2762:
.LBE2761:
.LBB2789:
.LBB2756:
	lwz 27,20(30)
.LVL508:
.LBE2756:
.LBE2789:
.LBB2790:
.LBB2787:
.LBB2763:
	.loc 8 1500 0
	cmpw 7,9,26
	beq- 7,.L488
.L492:
.LVL509:
	.loc 8 1503 0
	cmpw 7,26,29
	beq- 7,.L507
.LVL510:
.L503:
.LBB2764:
.LBB2765:
	.loc 8 277 0
	mr 3,26
	bl _ZSt18_Rb_tree_incrementPKSt18_Rb_tree_node_base
.LBE2765:
.LBE2764:
.LBB2767:
.LBB2768:
.LBB2769:
	.loc 8 1489 0
	mr 4,28
.LBE2769:
.LBE2768:
.LBE2767:
.LBB2780:
.LBB2766:
	.loc 8 277 0
	mr 31,3
.LVL511:
.LBE2766:
.LBE2780:
.LBB2781:
.LBB2777:
.LBB2774:
	.loc 8 1489 0
	mr 3,26
.LVL512:
	bl _ZSt28_Rb_tree_rebalance_for_erasePSt18_Rb_tree_node_baseRS_
.LBE2774:
.LBE2777:
.LBE2781:
	.loc 8 277 0
	mr 26,31
.LVL513:
.LBB2782:
.LBB2778:
.LBB2775:
.LBB2770:
.LBB2771:
.LBB2772:
.LBB2773:
	.loc 6 98 0
	bl _ZdlPv
.LBE2773:
.LBE2772:
.LBE2771:
.LBE2770:
.LBE2775:
.LBE2778:
.LBE2782:
	.loc 8 1503 0
	cmpw 7,31,29
.LBB2783:
.LBB2779:
.LBB2776:
	.loc 8 1491 0
	lwz 9,20(30)
	addi 0,9,-1
	stw 0,20(30)
.LBE2776:
.LBE2779:
.LBE2783:
	.loc 8 1503 0
	bne+ 7,.L503
	subf 27,0,27
.LVL514:
.L490:
.LBE2763:
.LBE2787:
.LBE2790:
.LBE2795:
	.loc 8 1517 0
	lwz 0,36(1)
	mr 3,27
	lwz 26,8(1)
	mtlr 0
	lwz 27,12(1)
	lwz 28,16(1)
	lwz 29,20(1)
.LVL515:
	lwz 30,24(1)
.LVL516:
	lwz 31,28(1)
	addi 1,1,32
	.cfi_remember_state
.LCFI84:
	.cfi_def_cfa_offset 0
	.cfi_restore 31
	.cfi_restore 30
	.cfi_restore 29
	.cfi_restore 28
	.cfi_restore 27
	.cfi_restore 26
	blr
.LVL517:
.L479:
.LCFI85:
	.cfi_restore_state
.LBB2796:
.LBB2791:
	.loc 3 406 0
	lwz 10,8(26)
.LVL518:
	lwz 9,12(26)
.LVL519:
.L504:
.LBB2757:
.LBB2750:
.LBB2749:
.LBB2741:
.LBB2742:
.LBB2743:
	.loc 8 1089 0
	cmpwi 7,10,0
	beq- 7,.L480
.L508:
.LVL520:
	.loc 8 1090 0
	lwz 8,16(10)
	cmplw 7,8,11
	blt- 7,.L481
.LVL521:
.LBE2743:
	.loc 3 406 0
	mr 26,10
	.loc 8 1091 0
	lwz 10,8(10)
.LVL522:
.LBB2744:
	.loc 8 1089 0
	cmpwi 7,10,0
	bne+ 7,.L508
.LVL523:
.L480:
.LBE2744:
.LBE2742:
.LBB2745:
.LBB2746:
	.loc 8 1121 0
	cmpwi 7,9,0
	beq- 7,.L476
.LVL524:
	.loc 8 1122 0
	lwz 10,16(9)
	cmplw 7,10,11
	ble- 7,.L484
.LVL525:
.L509:
.LBE2746:
	.loc 3 406 0
	mr 29,9
	.loc 8 1123 0
	lwz 9,8(9)
.LVL526:
.LBB2747:
	.loc 8 1121 0
	cmpwi 7,9,0
	beq- 7,.L476
.LVL527:
	.loc 8 1122 0
	lwz 10,16(9)
	cmplw 7,10,11
	bgt- 7,.L509
.LVL528:
.L484:
.LBE2747:
	.loc 3 406 0
	lwz 9,12(9)
.LVL529:
	b .L480
.LVL530:
.L481:
.LBE2745:
.LBB2748:
	lwz 10,12(10)
.LVL531:
	b .L504
.LVL532:
.L488:
.LBE2748:
.LBE2741:
.LBE2749:
.LBE2750:
.LBE2757:
.LBE2791:
.LBB2792:
.LBB2788:
.LBB2786:
	.loc 8 1500 0
	cmpw 7,28,29
	bne+ 7,.L492
.LVL533:
.LBB2784:
.LBB2785:
	.loc 8 809 0
	mr 4,0
.LVL534:
	mr 3,30
.LVL535:
	bl _ZNSt8_Rb_treeIPN7sigslot12_signal_baseINS0_15single_threadedEEES4_St9_IdentityIS4_ESt4lessIS4_ESaIS4_EE8_M_eraseEPSt13_Rb_tree_nodeIS4_E
.LVL536:
	.loc 8 811 0
	li 0,0
	.loc 8 810 0
	stw 28,12(30)
.LVL537:
	.loc 8 811 0
	stw 0,8(30)
.LVL538:
	.loc 8 812 0
	stw 28,16(30)
	.loc 8 813 0
	stw 0,20(30)
	b .L490
.LVL539:
.L507:
.LBE2785:
.LBE2784:
	.loc 8 1503 0
	li 27,0
	b .L490
.LBE2786:
.LBE2788:
.LBE2792:
.LBE2796:
	.cfi_endproc
.LFE1715:
	.size	_ZNSt8_Rb_treeIPN7sigslot12_signal_baseINS0_15single_threadedEEES4_St9_IdentityIS4_ESt4lessIS4_ESaIS4_EE5eraseERKS4_, .-_ZNSt8_Rb_treeIPN7sigslot12_signal_baseINS0_15single_threadedEEES4_St9_IdentityIS4_ESt4lessIS4_ESaIS4_EE5eraseERKS4_
	.section	.text._ZN7sigslot7signal2IP10GuiElementbNS_15single_threadedEED0Ev,"axG",@progbits,_ZN7sigslot7signal2IP10GuiElementbNS_15single_threadedEED5Ev,comdat
	.align 2
	.weak	_ZN7sigslot7signal2IP10GuiElementbNS_15single_threadedEED0Ev
	.type	_ZN7sigslot7signal2IP10GuiElementbNS_15single_threadedEED0Ev, @function
_ZN7sigslot7signal2IP10GuiElementbNS_15single_threadedEED0Ev:
.LFB1498:
	.loc 1 2235 0
	.cfi_startproc
	.cfi_personality 0,__gxx_personality_v0
	.cfi_lsda 0,.LLSDA1498
.LVL540:
	mflr 0
	stwu 1,-40(1)
.LCFI86:
	.cfi_def_cfa_offset 40
	.cfi_register 65, 0
.LBB2895:
.LBB2896:
.LBB2897:
.LBB2898:
.LBB2899:
.LBB2900:
	.loc 1 826 0
	lis 9,_ZTVN7sigslot13_signal_base2IP10GuiElementbNS_15single_threadedEEE+8@ha
.LBE2900:
.LBE2899:
.LBE2898:
.LBE2897:
.LBE2896:
.LBE2895:
	.loc 1 2235 0
	stw 28,24(1)
	mr 28,3
	.cfi_offset 28, -16
.LVL541:
	stw 0,44(1)
.LBB2997:
.LBB2993:
.LBB2989:
.LBB2985:
.LBB2981:
.LBB2977:
	.loc 1 826 0
	la 0,_ZTVN7sigslot13_signal_base2IP10GuiElementbNS_15single_threadedEEE+8@l(9)
	.cfi_offset 65, 4
.LBE2977:
.LBE2981:
.LBE2985:
.LBE2989:
.LBE2993:
.LBE2997:
	.loc 1 2235 0
	stw 29,28(1)
	addi 29,3,4
	.cfi_offset 29, -12
	stw 30,32(1)
	stw 31,36(1)
.LBB2998:
.LBB2994:
.LBB2990:
.LBB2986:
.LBB2982:
.LBB2978:
	.loc 1 826 0
	stw 0,0(3)
.LVL542:
.LEHB41:
.LBB2901:
.LBB2902:
.LBB2903:
.LBB2904:
	.loc 1 338 0
	.cfi_offset 31, -4
	.cfi_offset 30, -8
	bl _ZN7sigslot15single_threaded4lockEv
.LEHE41:
.LVL543:
.LBE2904:
.LBE2903:
.LBE2902:
	.loc 3 406 0
	mr 29,28
.LVL544:
	lwzu 31,4(29)
.LVL545:
.LBB2935:
	.loc 1 834 0
	cmpw 7,31,29
	beq- 7,.L511
.LVL546:
.L550:
	.loc 1 836 0
	lwz 3,8(31)
	lwz 9,0(3)
	lwz 0,8(9)
	mtctr 0
.LEHB42:
	bctrl
.LBB2905:
.LBB2906:
.LBB2907:
.LBB2908:
	.loc 1 338 0
	lwz 9,0(3)
.LBE2908:
.LBE2907:
.LBE2906:
.LBE2905:
	.loc 1 836 0
	mr 30,3
.LVL547:
	stw 28,8(1)
.LVL548:
.LBB2917:
.LBB2916:
.LBB2910:
.LBB2909:
	.loc 1 338 0
	lwz 0,8(9)
	mtctr 0
	bctrl
.LVL549:
.LBE2909:
.LBE2910:
.LBB2911:
.LBB2912:
	.file 9 "d:\\devkitpro\\devkitppc\\bin\\../lib/gcc/powerpc-eabi/4.6.3/../../../../powerpc-eabi/include/c++/4.6.3/bits/stl_set.h"
	.loc 9 528 0
	addi 3,30,4
	addi 4,1,8
	bl _ZNSt8_Rb_treeIPN7sigslot12_signal_baseINS0_15single_threadedEEES4_St9_IdentityIS4_ESt4lessIS4_ESaIS4_EE5eraseERKS4_
.LVL550:
.LBE2912:
.LBE2911:
.LBB2913:
.LBB2914:
.LBB2915:
	.loc 1 343 0
	lwz 9,0(30)
	mr 3,30
	lwz 0,12(9)
	mtctr 0
	bctrl
.LVL551:
.LBE2915:
.LBE2914:
.LBE2913:
.LBE2916:
.LBE2917:
	.loc 1 837 0
	lwz 3,8(31)
	cmpwi 7,3,0
	beq- 7,.L513
	lwz 9,0(3)
	lwz 0,4(9)
	mtctr 0
	bctrl
.LEHE42:
.L513:
.LVL552:
.LBB2918:
.LBB2919:
	.loc 4 234 0
	lwz 31,0(31)
.LVL553:
.LBE2919:
.LBE2918:
	.loc 1 834 0
	cmpw 7,29,31
	bne+ 7,.L550
.LBE2935:
	.loc 3 406 0
	lwz 31,4(28)
.LVL554:
.LBB2936:
.LBB2920:
.LBB2921:
	.loc 4 1162 0
	cmpw 7,29,31
	bne+ 7,.L552
	b .L511
.LVL555:
.L545:
	.loc 4 1163 0
	mr 31,30
.LVL556:
.L552:
.LBB2922:
.LBB2923:
	.file 10 "d:\\devkitpro\\devkitppc\\bin\\../lib/gcc/powerpc-eabi/4.6.3/../../../../powerpc-eabi/include/c++/4.6.3/bits/list.tcc"
	.loc 10 112 0
	lwz 30,0(31)
.LVL557:
.LBB2924:
.LBB2925:
	.loc 4 1532 0
	mr 3,31
	bl _ZNSt8__detail15_List_node_base9_M_unhookEv
.LVL558:
.LBB2926:
.LBB2927:
.LBB2928:
	.loc 6 98 0
	mr 3,31
	bl _ZdlPv
.LVL559:
.LBE2928:
.LBE2927:
.LBE2926:
.LBE2925:
.LBE2924:
.LBE2923:
.LBE2922:
	.loc 4 1162 0
	cmpw 7,29,30
	bne+ 7,.L545
.LVL560:
.L511:
.LBE2921:
.LBE2920:
.LBB2929:
.LBB2930:
.LBB2931:
	.loc 1 343 0
	lwz 9,0(28)
	mr 3,28
	lwz 0,12(9)
	mtctr 0
.LEHB43:
	bctrl
.LEHE43:
.LBE2931:
.LBE2930:
.LBE2929:
.LBE2936:
.LBE2901:
.LBB2938:
.LBB2939:
.LBB2940:
.LBB2941:
.LBB2942:
.LBB2943:
	.loc 10 70 0
	lwz 3,4(28)
.LVL561:
	.loc 10 71 0
	cmpw 7,3,29
	bne+ 7,.L554
	b .L529
.LVL562:
.L546:
	.loc 10 74 0
	mr 3,31
.LVL563:
.L554:
.LBB2944:
	lwz 31,0(3)
.LVL564:
.LBB2945:
.LBB2946:
.LBB2947:
	.loc 6 98 0
	bl _ZdlPv
.LVL565:
.LBE2947:
.LBE2946:
.LBE2945:
.LBE2944:
	.loc 10 71 0
	cmpw 7,31,29
	bne+ 7,.L546
.LVL566:
.L529:
.LBE2943:
.LBE2942:
.LBE2941:
.LBE2940:
.LBE2939:
.LBE2938:
.LBB2948:
.LBB2949:
.LBB2950:
.LBB2951:
.LBB2952:
.LBB2953:
	.loc 1 105 0
	lis 9,_ZTVN7sigslot15single_threadedE+8@ha
.LBE2953:
.LBE2952:
.LBE2951:
.LBE2950:
.LBE2949:
.LBE2948:
.LBE2978:
.LBE2982:
.LBE2986:
.LBE2990:
.LBE2994:
.LBE2998:
	.loc 1 2238 0
	mr 3,28
.LBB2999:
.LBB2995:
.LBB2991:
.LBB2987:
.LBB2983:
.LBB2979:
.LBB2959:
.LBB2958:
.LBB2957:
.LBB2956:
.LBB2955:
.LBB2954:
	.loc 1 105 0
	la 0,_ZTVN7sigslot15single_threadedE+8@l(9)
	stw 0,0(28)
.LBE2954:
.LBE2955:
.LBE2956:
.LBE2957:
.LBE2958:
.LBE2959:
.LBE2979:
.LBE2983:
.LBE2987:
.LBE2991:
.LBE2995:
.LBE2999:
	.loc 1 2238 0
	bl _ZdlPv
	lwz 0,44(1)
	lwz 28,24(1)
.LVL567:
	mtlr 0
	lwz 29,28(1)
.LVL568:
	lwz 30,32(1)
	lwz 31,36(1)
	addi 1,1,40
	.cfi_remember_state
.LCFI87:
	.cfi_def_cfa_offset 0
	.cfi_restore 31
	.cfi_restore 30
	.cfi_restore 29
	.cfi_restore 28
	blr
.LVL569:
.L548:
.LCFI88:
	.cfi_restore_state
	mr 31,3
.L521:
.LBB3000:
.LBB2996:
.LBB2992:
.LBB2988:
.LBB2984:
.LBB2980:
.LBB2960:
.LBB2961:
.LBB2962:
.LBB2963:
.LBB2964:
.LBB2965:
	.loc 10 70 0
	lwz 3,4(28)
.LVL570:
	.loc 10 71 0
	cmpw 7,3,29
	beq- 7,.L538
.LVL571:
.L555:
.LBB2966:
	.loc 10 74 0
	lwz 30,0(3)
.LVL572:
.LBB2967:
.LBB2968:
.LBB2969:
	.loc 6 98 0
	bl _ZdlPv
.LVL573:
.LBE2969:
.LBE2968:
.LBE2967:
.LBE2966:
	.loc 10 71 0
	cmpw 7,30,29
	beq- 7,.L538
	.loc 10 74 0
	mr 3,30
	b .L555
.LVL574:
.L549:
.LBE2965:
.LBE2964:
.LBE2963:
.LBE2962:
.LBE2961:
.LBE2960:
.LBB2970:
.LBB2937:
.LBB2932:
.LBB2933:
.LBB2934:
	.loc 1 343 0
	lwz 9,0(28)
	mr 31,3
.LVL575:
	mr 3,28
	lwz 0,12(9)
	mtctr 0
	bctrl
	b .L521
.LVL576:
.L538:
.LBE2934:
.LBE2933:
.LBE2932:
.LBE2937:
.LBE2970:
.LBB2971:
.LBB2972:
.LBB2973:
.LBB2974:
.LBB2975:
.LBB2976:
	.loc 1 105 0
	lis 9,_ZTVN7sigslot15single_threadedE+8@ha
	mr 3,31
	la 0,_ZTVN7sigslot15single_threadedE+8@l(9)
	stw 0,0(28)
.LEHB44:
	bl _Unwind_Resume
.LEHE44:
.LBE2976:
.LBE2975:
.LBE2974:
.LBE2973:
.LBE2972:
.LBE2971:
.LBE2980:
.LBE2984:
.LBE2988:
.LBE2992:
.LBE2996:
.LBE3000:
	.cfi_endproc
.LFE1498:
	.section	.gcc_except_table
.LLSDA1498:
	.byte	0xff
	.byte	0xff
	.byte	0x1
	.uleb128 .LLSDACSE1498-.LLSDACSB1498
.LLSDACSB1498:
	.uleb128 .LEHB41-.LFB1498
	.uleb128 .LEHE41-.LEHB41
	.uleb128 .L548-.LFB1498
	.uleb128 0
	.uleb128 .LEHB42-.LFB1498
	.uleb128 .LEHE42-.LEHB42
	.uleb128 .L549-.LFB1498
	.uleb128 0
	.uleb128 .LEHB43-.LFB1498
	.uleb128 .LEHE43-.LEHB43
	.uleb128 .L548-.LFB1498
	.uleb128 0
	.uleb128 .LEHB44-.LFB1498
	.uleb128 .LEHE44-.LEHB44
	.uleb128 0
	.uleb128 0
.LLSDACSE1498:
	.section	.text._ZN7sigslot7signal2IP10GuiElementbNS_15single_threadedEED0Ev,"axG",@progbits,_ZN7sigslot7signal2IP10GuiElementbNS_15single_threadedEED5Ev,comdat
	.size	_ZN7sigslot7signal2IP10GuiElementbNS_15single_threadedEED0Ev, .-_ZN7sigslot7signal2IP10GuiElementbNS_15single_threadedEED0Ev
	.section	.text._ZN7sigslot13_signal_base3IP10GuiElementiiNS_15single_threadedEED0Ev,"axG",@progbits,_ZN7sigslot13_signal_base3IP10GuiElementiiNS_15single_threadedEED5Ev,comdat
	.align 2
	.weak	_ZN7sigslot13_signal_base3IP10GuiElementiiNS_15single_threadedEED0Ev
	.type	_ZN7sigslot13_signal_base3IP10GuiElementiiNS_15single_threadedEED0Ev, @function
_ZN7sigslot13_signal_base3IP10GuiElementiiNS_15single_threadedEED0Ev:
.LFB1546:
	.loc 1 943 0
	.cfi_startproc
	.cfi_personality 0,__gxx_personality_v0
	.cfi_lsda 0,.LLSDA1546
.LVL577:
	mflr 0
	stwu 1,-40(1)
.LCFI89:
	.cfi_def_cfa_offset 40
	.cfi_register 65, 0
.LBB3096:
.LBB3097:
.LBB3098:
	.loc 1 946 0
	lis 9,_ZTVN7sigslot13_signal_base3IP10GuiElementiiNS_15single_threadedEEE+8@ha
.LBE3098:
.LBE3097:
.LBE3096:
	.loc 1 943 0
	stw 28,24(1)
	mr 28,3
	.cfi_offset 28, -16
.LVL578:
	stw 0,44(1)
.LBB3183:
.LBB3179:
.LBB3175:
	.loc 1 946 0
	la 0,_ZTVN7sigslot13_signal_base3IP10GuiElementiiNS_15single_threadedEEE+8@l(9)
	.cfi_offset 65, 4
.LBE3175:
.LBE3179:
.LBE3183:
	.loc 1 943 0
	stw 29,28(1)
	addi 29,3,4
	.cfi_offset 29, -12
	stw 30,32(1)
	stw 31,36(1)
.LBB3184:
.LBB3180:
.LBB3176:
	.loc 1 946 0
	stw 0,0(3)
.LVL579:
.LEHB45:
.LBB3099:
.LBB3100:
.LBB3101:
.LBB3102:
	.loc 1 338 0
	.cfi_offset 31, -4
	.cfi_offset 30, -8
	bl _ZN7sigslot15single_threaded4lockEv
.LEHE45:
.LVL580:
.LBE3102:
.LBE3101:
.LBE3100:
	.loc 3 406 0
	mr 29,28
	lwzu 31,4(29)
.LVL581:
.LBB3133:
	.loc 1 954 0
	cmpw 7,31,29
	beq- 7,.L557
.LVL582:
.L595:
	.loc 1 956 0
	lwz 3,8(31)
	lwz 9,0(3)
	lwz 0,8(9)
	mtctr 0
.LEHB46:
	bctrl
.LBB3103:
.LBB3104:
.LBB3105:
.LBB3106:
	.loc 1 338 0
	lwz 9,0(3)
.LBE3106:
.LBE3105:
.LBE3104:
.LBE3103:
	.loc 1 956 0
	mr 30,3
.LVL583:
	stw 28,8(1)
.LVL584:
.LBB3115:
.LBB3114:
.LBB3108:
.LBB3107:
	.loc 1 338 0
	lwz 0,8(9)
	mtctr 0
	bctrl
.LVL585:
.LBE3107:
.LBE3108:
.LBB3109:
.LBB3110:
	.loc 9 528 0
	addi 3,30,4
	addi 4,1,8
	bl _ZNSt8_Rb_treeIPN7sigslot12_signal_baseINS0_15single_threadedEEES4_St9_IdentityIS4_ESt4lessIS4_ESaIS4_EE5eraseERKS4_
.LVL586:
.LBE3110:
.LBE3109:
.LBB3111:
.LBB3112:
.LBB3113:
	.loc 1 343 0
	lwz 9,0(30)
	mr 3,30
	lwz 0,12(9)
	mtctr 0
	bctrl
.LVL587:
.LBE3113:
.LBE3112:
.LBE3111:
.LBE3114:
.LBE3115:
	.loc 1 957 0
	lwz 3,8(31)
	cmpwi 7,3,0
	beq- 7,.L559
	lwz 9,0(3)
	lwz 0,4(9)
	mtctr 0
	bctrl
.LEHE46:
.L559:
.LVL588:
.LBB3116:
.LBB3117:
	.loc 4 234 0
	lwz 31,0(31)
.LVL589:
.LBE3117:
.LBE3116:
	.loc 1 954 0
	cmpw 7,29,31
	bne+ 7,.L595
.LBE3133:
	.loc 3 406 0
	lwz 31,4(28)
.LVL590:
.LBB3134:
.LBB3118:
.LBB3119:
	.loc 4 1162 0
	cmpw 7,29,31
	bne+ 7,.L597
	b .L557
.LVL591:
.L590:
	.loc 4 1163 0
	mr 31,30
.LVL592:
.L597:
.LBB3120:
.LBB3121:
	.loc 10 112 0
	lwz 30,0(31)
.LVL593:
.LBB3122:
.LBB3123:
	.loc 4 1532 0
	mr 3,31
	bl _ZNSt8__detail15_List_node_base9_M_unhookEv
.LVL594:
.LBB3124:
.LBB3125:
.LBB3126:
	.loc 6 98 0
	mr 3,31
	bl _ZdlPv
.LVL595:
.LBE3126:
.LBE3125:
.LBE3124:
.LBE3123:
.LBE3122:
.LBE3121:
.LBE3120:
	.loc 4 1162 0
	cmpw 7,29,30
	bne+ 7,.L590
.LVL596:
.L557:
.LBE3119:
.LBE3118:
.LBB3127:
.LBB3128:
.LBB3129:
	.loc 1 343 0
	lwz 9,0(28)
	mr 3,28
	lwz 0,12(9)
	mtctr 0
.LEHB47:
	bctrl
.LEHE47:
.LVL597:
.LBE3129:
.LBE3128:
.LBE3127:
.LBE3134:
.LBE3099:
.LBB3136:
.LBB3137:
.LBB3138:
.LBB3139:
.LBB3140:
.LBB3141:
	.loc 10 70 0
	lwz 3,4(28)
.LVL598:
	.loc 10 71 0
	cmpw 7,3,29
	bne+ 7,.L599
	b .L575
.LVL599:
.L591:
	.loc 10 74 0
	mr 3,31
.LVL600:
.L599:
.LBB3142:
	lwz 31,0(3)
.LVL601:
.LBB3143:
.LBB3144:
.LBB3145:
	.loc 6 98 0
	bl _ZdlPv
.LVL602:
.LBE3145:
.LBE3144:
.LBE3143:
.LBE3142:
	.loc 10 71 0
	cmpw 7,31,29
	bne+ 7,.L591
.LVL603:
.L575:
.LBE3141:
.LBE3140:
.LBE3139:
.LBE3138:
.LBE3137:
.LBE3136:
.LBB3146:
.LBB3147:
.LBB3148:
.LBB3149:
.LBB3150:
.LBB3151:
	.loc 1 105 0
	lis 9,_ZTVN7sigslot15single_threadedE+8@ha
.LBE3151:
.LBE3150:
.LBE3149:
.LBE3148:
.LBE3147:
.LBE3146:
.LBE3176:
.LBE3180:
.LBE3184:
	.loc 1 946 0
	mr 3,28
.LBB3185:
.LBB3181:
.LBB3177:
.LBB3157:
.LBB3156:
.LBB3155:
.LBB3154:
.LBB3153:
.LBB3152:
	.loc 1 105 0
	la 0,_ZTVN7sigslot15single_threadedE+8@l(9)
	stw 0,0(28)
.LBE3152:
.LBE3153:
.LBE3154:
.LBE3155:
.LBE3156:
.LBE3157:
.LBE3177:
.LBE3181:
.LBE3185:
	.loc 1 946 0
	bl _ZdlPv
	lwz 0,44(1)
	lwz 28,24(1)
.LVL604:
	mtlr 0
	lwz 29,28(1)
.LVL605:
	lwz 30,32(1)
	lwz 31,36(1)
	addi 1,1,40
	.cfi_remember_state
.LCFI90:
	.cfi_def_cfa_offset 0
	.cfi_restore 31
	.cfi_restore 30
	.cfi_restore 29
	.cfi_restore 28
	blr
.LVL606:
.L593:
.LCFI91:
	.cfi_restore_state
	mr 31,3
.L567:
.LVL607:
.LBB3186:
.LBB3182:
.LBB3178:
.LBB3158:
.LBB3159:
.LBB3160:
.LBB3161:
.LBB3162:
.LBB3163:
	.loc 10 70 0
	lwz 3,4(28)
.LVL608:
	.loc 10 71 0
	cmpw 7,3,29
	beq- 7,.L584
.LVL609:
.L600:
.LBB3164:
	.loc 10 74 0
	lwz 30,0(3)
.LVL610:
.LBB3165:
.LBB3166:
.LBB3167:
	.loc 6 98 0
	bl _ZdlPv
.LVL611:
.LBE3167:
.LBE3166:
.LBE3165:
.LBE3164:
	.loc 10 71 0
	cmpw 7,30,29
	beq- 7,.L584
	.loc 10 74 0
	mr 3,30
	b .L600
.LVL612:
.L594:
.LBE3163:
.LBE3162:
.LBE3161:
.LBE3160:
.LBE3159:
.LBE3158:
.LBB3168:
.LBB3135:
.LBB3130:
.LBB3131:
.LBB3132:
	.loc 1 343 0
	lwz 9,0(28)
	mr 31,3
.LVL613:
	mr 3,28
	lwz 0,12(9)
	mtctr 0
	bctrl
	b .L567
.LVL614:
.L584:
.LBE3132:
.LBE3131:
.LBE3130:
.LBE3135:
.LBE3168:
.LBB3169:
.LBB3170:
.LBB3171:
.LBB3172:
.LBB3173:
.LBB3174:
	.loc 1 105 0
	lis 9,_ZTVN7sigslot15single_threadedE+8@ha
	mr 3,31
	la 0,_ZTVN7sigslot15single_threadedE+8@l(9)
	stw 0,0(28)
.LEHB48:
	bl _Unwind_Resume
.LEHE48:
.LBE3174:
.LBE3173:
.LBE3172:
.LBE3171:
.LBE3170:
.LBE3169:
.LBE3178:
.LBE3182:
.LBE3186:
	.cfi_endproc
.LFE1546:
	.section	.gcc_except_table
.LLSDA1546:
	.byte	0xff
	.byte	0xff
	.byte	0x1
	.uleb128 .LLSDACSE1546-.LLSDACSB1546
.LLSDACSB1546:
	.uleb128 .LEHB45-.LFB1546
	.uleb128 .LEHE45-.LEHB45
	.uleb128 .L593-.LFB1546
	.uleb128 0
	.uleb128 .LEHB46-.LFB1546
	.uleb128 .LEHE46-.LEHB46
	.uleb128 .L594-.LFB1546
	.uleb128 0
	.uleb128 .LEHB47-.LFB1546
	.uleb128 .LEHE47-.LEHB47
	.uleb128 .L593-.LFB1546
	.uleb128 0
	.uleb128 .LEHB48-.LFB1546
	.uleb128 .LEHE48-.LEHB48
	.uleb128 0
	.uleb128 0
.LLSDACSE1546:
	.section	.text._ZN7sigslot13_signal_base3IP10GuiElementiiNS_15single_threadedEED0Ev,"axG",@progbits,_ZN7sigslot13_signal_base3IP10GuiElementiiNS_15single_threadedEED5Ev,comdat
	.size	_ZN7sigslot13_signal_base3IP10GuiElementiiNS_15single_threadedEED0Ev, .-_ZN7sigslot13_signal_base3IP10GuiElementiiNS_15single_threadedEED0Ev
	.section	.text._ZN7sigslot13_signal_base3IP10GuiElementiiNS_15single_threadedEED2Ev,"axG",@progbits,_ZN7sigslot13_signal_base3IP10GuiElementiiNS_15single_threadedEED5Ev,comdat
	.align 2
	.weak	_ZN7sigslot13_signal_base3IP10GuiElementiiNS_15single_threadedEED2Ev
	.type	_ZN7sigslot13_signal_base3IP10GuiElementiiNS_15single_threadedEED2Ev, @function
_ZN7sigslot13_signal_base3IP10GuiElementiiNS_15single_threadedEED2Ev:
.LFB1544:
	.loc 1 943 0
	.cfi_startproc
	.cfi_personality 0,__gxx_personality_v0
	.cfi_lsda 0,.LLSDA1544
.LVL615:
	mflr 0
	stwu 1,-40(1)
.LCFI92:
	.cfi_def_cfa_offset 40
	.cfi_register 65, 0
.LBB3333:
	.loc 1 946 0
	lis 9,_ZTVN7sigslot13_signal_base3IP10GuiElementiiNS_15single_threadedEEE+8@ha
.LBE3333:
	.loc 1 943 0
	stw 28,24(1)
	mr 28,3
	.cfi_offset 28, -16
	stw 0,44(1)
.LBB3416:
	.loc 1 946 0
	la 0,_ZTVN7sigslot13_signal_base3IP10GuiElementiiNS_15single_threadedEEE+8@l(9)
	.cfi_offset 65, 4
.LBE3416:
	.loc 1 943 0
	stw 29,28(1)
	addi 29,3,4
	.cfi_offset 29, -12
	stw 30,32(1)
	stw 31,36(1)
.LBB3417:
	.loc 1 946 0
	stw 0,0(3)
.LVL616:
.LEHB49:
.LBB3334:
.LBB3335:
.LBB3336:
.LBB3337:
	.loc 1 338 0
	.cfi_offset 31, -4
	.cfi_offset 30, -8
	bl _ZN7sigslot15single_threaded4lockEv
.LEHE49:
.LVL617:
.LBE3337:
.LBE3336:
.LBE3335:
	.loc 3 406 0
	mr 29,28
.LVL618:
	lwzu 31,4(29)
.LVL619:
.LBB3368:
	.loc 1 954 0
	cmpw 7,31,29
	beq- 7,.L602
.LVL620:
.L639:
	.loc 1 956 0
	lwz 3,8(31)
	lwz 9,0(3)
	lwz 0,8(9)
	mtctr 0
.LEHB50:
	bctrl
.LBB3338:
.LBB3339:
.LBB3340:
.LBB3341:
	.loc 1 338 0
	lwz 9,0(3)
.LBE3341:
.LBE3340:
.LBE3339:
.LBE3338:
	.loc 1 956 0
	mr 30,3
.LVL621:
	stw 28,8(1)
.LVL622:
.LBB3350:
.LBB3349:
.LBB3343:
.LBB3342:
	.loc 1 338 0
	lwz 0,8(9)
	mtctr 0
	bctrl
.LVL623:
.LBE3342:
.LBE3343:
.LBB3344:
.LBB3345:
	.loc 9 528 0
	addi 3,30,4
	addi 4,1,8
	bl _ZNSt8_Rb_treeIPN7sigslot12_signal_baseINS0_15single_threadedEEES4_St9_IdentityIS4_ESt4lessIS4_ESaIS4_EE5eraseERKS4_
.LVL624:
.LBE3345:
.LBE3344:
.LBB3346:
.LBB3347:
.LBB3348:
	.loc 1 343 0
	lwz 9,0(30)
	mr 3,30
	lwz 0,12(9)
	mtctr 0
	bctrl
.LVL625:
.LBE3348:
.LBE3347:
.LBE3346:
.LBE3349:
.LBE3350:
	.loc 1 957 0
	lwz 3,8(31)
	cmpwi 7,3,0
	beq- 7,.L604
	lwz 9,0(3)
	lwz 0,4(9)
	mtctr 0
	bctrl
.LEHE50:
.L604:
.LVL626:
.LBB3351:
.LBB3352:
	.loc 4 234 0
	lwz 31,0(31)
.LVL627:
.LBE3352:
.LBE3351:
	.loc 1 954 0
	cmpw 7,29,31
	bne+ 7,.L639
.LBE3368:
	.loc 3 406 0
	lwz 31,4(28)
.LVL628:
.LBB3369:
.LBB3353:
.LBB3354:
	.loc 4 1162 0
	cmpw 7,29,31
	bne+ 7,.L641
	b .L602
.LVL629:
.L634:
	.loc 4 1163 0
	mr 31,30
.LVL630:
.L641:
.LBB3355:
.LBB3356:
	.loc 10 112 0
	lwz 30,0(31)
.LVL631:
.LBB3357:
.LBB3358:
	.loc 4 1532 0
	mr 3,31
	bl _ZNSt8__detail15_List_node_base9_M_unhookEv
.LVL632:
.LBB3359:
.LBB3360:
.LBB3361:
	.loc 6 98 0
	mr 3,31
	bl _ZdlPv
.LVL633:
.LBE3361:
.LBE3360:
.LBE3359:
.LBE3358:
.LBE3357:
.LBE3356:
.LBE3355:
	.loc 4 1162 0
	cmpw 7,29,30
	bne+ 7,.L634
.LVL634:
.L602:
.LBE3354:
.LBE3353:
.LBB3362:
.LBB3363:
.LBB3364:
	.loc 1 343 0
	lwz 9,0(28)
	mr 3,28
	lwz 0,12(9)
	mtctr 0
.LEHB51:
	bctrl
.LEHE51:
.LVL635:
.LBE3364:
.LBE3363:
.LBE3362:
.LBE3369:
.LBE3334:
.LBB3371:
.LBB3372:
.LBB3373:
.LBB3374:
.LBB3375:
.LBB3376:
	.loc 10 70 0
	lwz 3,4(28)
.LVL636:
	.loc 10 71 0
	cmpw 7,3,29
	bne+ 7,.L643
	b .L620
.LVL637:
.L635:
	.loc 10 74 0
	mr 3,31
.LVL638:
.L643:
.LBB3377:
	lwz 31,0(3)
.LVL639:
.LBB3378:
.LBB3379:
.LBB3380:
	.loc 6 98 0
	bl _ZdlPv
.LVL640:
.LBE3380:
.LBE3379:
.LBE3378:
.LBE3377:
	.loc 10 71 0
	cmpw 7,31,29
	bne+ 7,.L635
.LVL641:
.L620:
.LBE3376:
.LBE3375:
.LBE3374:
.LBE3373:
.LBE3372:
.LBE3371:
.LBB3381:
.LBB3382:
.LBB3383:
.LBB3384:
.LBB3385:
.LBB3386:
	.loc 1 105 0
	lis 9,_ZTVN7sigslot15single_threadedE+8@ha
.LBE3386:
.LBE3385:
.LBE3384:
.LBE3383:
.LBE3382:
.LBE3381:
.LBE3417:
	.loc 1 946 0
	lwz 29,28(1)
.LVL642:
.LBB3418:
.LBB3397:
.LBB3395:
.LBB3393:
.LBB3391:
.LBB3389:
.LBB3387:
	.loc 1 105 0
	la 0,_ZTVN7sigslot15single_threadedE+8@l(9)
.LBE3387:
.LBE3389:
.LBE3391:
.LBE3393:
.LBE3395:
.LBE3397:
.LBE3418:
	.loc 1 946 0
	lwz 30,32(1)
.LBB3419:
.LBB3398:
.LBB3396:
.LBB3394:
.LBB3392:
.LBB3390:
.LBB3388:
	.loc 1 105 0
	stw 0,0(28)
.LBE3388:
.LBE3390:
.LBE3392:
.LBE3394:
.LBE3396:
.LBE3398:
.LBE3419:
	.loc 1 946 0
	lwz 0,44(1)
	lwz 28,24(1)
.LVL643:
	mtlr 0
	lwz 31,36(1)
	addi 1,1,40
	.cfi_remember_state
.LCFI93:
	.cfi_def_cfa_offset 0
	.cfi_restore 31
	.cfi_restore 30
	.cfi_restore 29
	.cfi_restore 28
	blr
.LVL644:
.L637:
.LCFI94:
	.cfi_restore_state
	mr 31,3
.L612:
.LVL645:
.LBB3420:
.LBB3399:
.LBB3400:
.LBB3401:
.LBB3402:
.LBB3403:
.LBB3404:
	.loc 10 70 0
	lwz 3,4(28)
.LVL646:
	.loc 10 71 0
	cmpw 7,3,29
	beq- 7,.L631
.LVL647:
.L644:
.LBB3405:
	.loc 10 74 0
	lwz 30,0(3)
.LVL648:
.LBB3406:
.LBB3407:
.LBB3408:
	.loc 6 98 0
	bl _ZdlPv
.LVL649:
.LBE3408:
.LBE3407:
.LBE3406:
.LBE3405:
	.loc 10 71 0
	cmpw 7,30,29
	beq- 7,.L631
	.loc 10 74 0
	mr 3,30
	b .L644
.LVL650:
.L638:
.LBE3404:
.LBE3403:
.LBE3402:
.LBE3401:
.LBE3400:
.LBE3399:
.LBB3409:
.LBB3370:
.LBB3365:
.LBB3366:
.LBB3367:
	.loc 1 343 0
	lwz 9,0(28)
	mr 31,3
.LVL651:
	mr 3,28
	lwz 0,12(9)
	mtctr 0
	bctrl
	b .L612
.LVL652:
.L631:
.LBE3367:
.LBE3366:
.LBE3365:
.LBE3370:
.LBE3409:
.LBB3410:
.LBB3411:
.LBB3412:
.LBB3413:
.LBB3414:
.LBB3415:
	.loc 1 105 0
	lis 9,_ZTVN7sigslot15single_threadedE+8@ha
	mr 3,31
	la 0,_ZTVN7sigslot15single_threadedE+8@l(9)
	stw 0,0(28)
.LEHB52:
	bl _Unwind_Resume
.LEHE52:
.LBE3415:
.LBE3414:
.LBE3413:
.LBE3412:
.LBE3411:
.LBE3410:
.LBE3420:
	.cfi_endproc
.LFE1544:
	.section	.gcc_except_table
.LLSDA1544:
	.byte	0xff
	.byte	0xff
	.byte	0x1
	.uleb128 .LLSDACSE1544-.LLSDACSB1544
.LLSDACSB1544:
	.uleb128 .LEHB49-.LFB1544
	.uleb128 .LEHE49-.LEHB49
	.uleb128 .L637-.LFB1544
	.uleb128 0
	.uleb128 .LEHB50-.LFB1544
	.uleb128 .LEHE50-.LEHB50
	.uleb128 .L638-.LFB1544
	.uleb128 0
	.uleb128 .LEHB51-.LFB1544
	.uleb128 .LEHE51-.LEHB51
	.uleb128 .L637-.LFB1544
	.uleb128 0
	.uleb128 .LEHB52-.LFB1544
	.uleb128 .LEHE52-.LEHB52
	.uleb128 0
	.uleb128 0
.LLSDACSE1544:
	.section	.text._ZN7sigslot13_signal_base3IP10GuiElementiiNS_15single_threadedEED2Ev,"axG",@progbits,_ZN7sigslot13_signal_base3IP10GuiElementiiNS_15single_threadedEED5Ev,comdat
	.size	_ZN7sigslot13_signal_base3IP10GuiElementiiNS_15single_threadedEED2Ev, .-_ZN7sigslot13_signal_base3IP10GuiElementiiNS_15single_threadedEED2Ev
	.section	.text._ZN7sigslot7signal3IP10GuiElementiiNS_15single_threadedEED0Ev,"axG",@progbits,_ZN7sigslot7signal3IP10GuiElementiiNS_15single_threadedEED5Ev,comdat
	.align 2
	.weak	_ZN7sigslot7signal3IP10GuiElementiiNS_15single_threadedEED0Ev
	.type	_ZN7sigslot7signal3IP10GuiElementiiNS_15single_threadedEED0Ev, @function
_ZN7sigslot7signal3IP10GuiElementiiNS_15single_threadedEED0Ev:
.LFB1502:
	.loc 1 2302 0
	.cfi_startproc
	.cfi_personality 0,__gxx_personality_v0
	.cfi_lsda 0,.LLSDA1502
.LVL653:
	mflr 0
	stwu 1,-40(1)
.LCFI95:
	.cfi_def_cfa_offset 40
	.cfi_register 65, 0
.LBB3519:
.LBB3520:
.LBB3521:
.LBB3522:
.LBB3523:
.LBB3524:
	.loc 1 946 0
	lis 9,_ZTVN7sigslot13_signal_base3IP10GuiElementiiNS_15single_threadedEEE+8@ha
.LBE3524:
.LBE3523:
.LBE3522:
.LBE3521:
.LBE3520:
.LBE3519:
	.loc 1 2302 0
	stw 28,24(1)
	mr 28,3
	.cfi_offset 28, -16
.LVL654:
	stw 0,44(1)
.LBB3621:
.LBB3617:
.LBB3613:
.LBB3609:
.LBB3605:
.LBB3601:
	.loc 1 946 0
	la 0,_ZTVN7sigslot13_signal_base3IP10GuiElementiiNS_15single_threadedEEE+8@l(9)
	.cfi_offset 65, 4
.LBE3601:
.LBE3605:
.LBE3609:
.LBE3613:
.LBE3617:
.LBE3621:
	.loc 1 2302 0
	stw 29,28(1)
	addi 29,3,4
	.cfi_offset 29, -12
	stw 30,32(1)
	stw 31,36(1)
.LBB3622:
.LBB3618:
.LBB3614:
.LBB3610:
.LBB3606:
.LBB3602:
	.loc 1 946 0
	stw 0,0(3)
.LVL655:
.LEHB53:
.LBB3525:
.LBB3526:
.LBB3527:
.LBB3528:
	.loc 1 338 0
	.cfi_offset 31, -4
	.cfi_offset 30, -8
	bl _ZN7sigslot15single_threaded4lockEv
.LEHE53:
.LVL656:
.LBE3528:
.LBE3527:
.LBE3526:
	.loc 3 406 0
	mr 29,28
.LVL657:
	lwzu 31,4(29)
.LVL658:
.LBB3559:
	.loc 1 954 0
	cmpw 7,31,29
	beq- 7,.L646
.LVL659:
.L685:
	.loc 1 956 0
	lwz 3,8(31)
	lwz 9,0(3)
	lwz 0,8(9)
	mtctr 0
.LEHB54:
	bctrl
.LBB3529:
.LBB3530:
.LBB3531:
.LBB3532:
	.loc 1 338 0
	lwz 9,0(3)
.LBE3532:
.LBE3531:
.LBE3530:
.LBE3529:
	.loc 1 956 0
	mr 30,3
.LVL660:
	stw 28,8(1)
.LVL661:
.LBB3541:
.LBB3540:
.LBB3534:
.LBB3533:
	.loc 1 338 0
	lwz 0,8(9)
	mtctr 0
	bctrl
.LVL662:
.LBE3533:
.LBE3534:
.LBB3535:
.LBB3536:
	.loc 9 528 0
	addi 3,30,4
	addi 4,1,8
	bl _ZNSt8_Rb_treeIPN7sigslot12_signal_baseINS0_15single_threadedEEES4_St9_IdentityIS4_ESt4lessIS4_ESaIS4_EE5eraseERKS4_
.LVL663:
.LBE3536:
.LBE3535:
.LBB3537:
.LBB3538:
.LBB3539:
	.loc 1 343 0
	lwz 9,0(30)
	mr 3,30
	lwz 0,12(9)
	mtctr 0
	bctrl
.LVL664:
.LBE3539:
.LBE3538:
.LBE3537:
.LBE3540:
.LBE3541:
	.loc 1 957 0
	lwz 3,8(31)
	cmpwi 7,3,0
	beq- 7,.L648
	lwz 9,0(3)
	lwz 0,4(9)
	mtctr 0
	bctrl
.LEHE54:
.L648:
.LVL665:
.LBB3542:
.LBB3543:
	.loc 4 234 0
	lwz 31,0(31)
.LVL666:
.LBE3543:
.LBE3542:
	.loc 1 954 0
	cmpw 7,29,31
	bne+ 7,.L685
.LBE3559:
	.loc 3 406 0
	lwz 31,4(28)
.LVL667:
.LBB3560:
.LBB3544:
.LBB3545:
	.loc 4 1162 0
	cmpw 7,29,31
	bne+ 7,.L687
	b .L646
.LVL668:
.L680:
	.loc 4 1163 0
	mr 31,30
.LVL669:
.L687:
.LBB3546:
.LBB3547:
	.loc 10 112 0
	lwz 30,0(31)
.LVL670:
.LBB3548:
.LBB3549:
	.loc 4 1532 0
	mr 3,31
	bl _ZNSt8__detail15_List_node_base9_M_unhookEv
.LVL671:
.LBB3550:
.LBB3551:
.LBB3552:
	.loc 6 98 0
	mr 3,31
	bl _ZdlPv
.LVL672:
.LBE3552:
.LBE3551:
.LBE3550:
.LBE3549:
.LBE3548:
.LBE3547:
.LBE3546:
	.loc 4 1162 0
	cmpw 7,29,30
	bne+ 7,.L680
.LVL673:
.L646:
.LBE3545:
.LBE3544:
.LBB3553:
.LBB3554:
.LBB3555:
	.loc 1 343 0
	lwz 9,0(28)
	mr 3,28
	lwz 0,12(9)
	mtctr 0
.LEHB55:
	bctrl
.LEHE55:
.LBE3555:
.LBE3554:
.LBE3553:
.LBE3560:
.LBE3525:
.LBB3562:
.LBB3563:
.LBB3564:
.LBB3565:
.LBB3566:
.LBB3567:
	.loc 10 70 0
	lwz 3,4(28)
.LVL674:
	.loc 10 71 0
	cmpw 7,3,29
	bne+ 7,.L689
	b .L664
.LVL675:
.L681:
	.loc 10 74 0
	mr 3,31
.LVL676:
.L689:
.LBB3568:
	lwz 31,0(3)
.LVL677:
.LBB3569:
.LBB3570:
.LBB3571:
	.loc 6 98 0
	bl _ZdlPv
.LVL678:
.LBE3571:
.LBE3570:
.LBE3569:
.LBE3568:
	.loc 10 71 0
	cmpw 7,31,29
	bne+ 7,.L681
.LVL679:
.L664:
.LBE3567:
.LBE3566:
.LBE3565:
.LBE3564:
.LBE3563:
.LBE3562:
.LBB3572:
.LBB3573:
.LBB3574:
.LBB3575:
.LBB3576:
.LBB3577:
	.loc 1 105 0
	lis 9,_ZTVN7sigslot15single_threadedE+8@ha
.LBE3577:
.LBE3576:
.LBE3575:
.LBE3574:
.LBE3573:
.LBE3572:
.LBE3602:
.LBE3606:
.LBE3610:
.LBE3614:
.LBE3618:
.LBE3622:
	.loc 1 2305 0
	mr 3,28
.LBB3623:
.LBB3619:
.LBB3615:
.LBB3611:
.LBB3607:
.LBB3603:
.LBB3583:
.LBB3582:
.LBB3581:
.LBB3580:
.LBB3579:
.LBB3578:
	.loc 1 105 0
	la 0,_ZTVN7sigslot15single_threadedE+8@l(9)
	stw 0,0(28)
.LBE3578:
.LBE3579:
.LBE3580:
.LBE3581:
.LBE3582:
.LBE3583:
.LBE3603:
.LBE3607:
.LBE3611:
.LBE3615:
.LBE3619:
.LBE3623:
	.loc 1 2305 0
	bl _ZdlPv
	lwz 0,44(1)
	lwz 28,24(1)
.LVL680:
	mtlr 0
	lwz 29,28(1)
.LVL681:
	lwz 30,32(1)
	lwz 31,36(1)
	addi 1,1,40
	.cfi_remember_state
.LCFI96:
	.cfi_def_cfa_offset 0
	.cfi_restore 31
	.cfi_restore 30
	.cfi_restore 29
	.cfi_restore 28
	blr
.LVL682:
.L683:
.LCFI97:
	.cfi_restore_state
	mr 31,3
.L656:
.LBB3624:
.LBB3620:
.LBB3616:
.LBB3612:
.LBB3608:
.LBB3604:
.LBB3584:
.LBB3585:
.LBB3586:
.LBB3587:
.LBB3588:
.LBB3589:
	.loc 10 70 0
	lwz 3,4(28)
.LVL683:
	.loc 10 71 0
	cmpw 7,3,29
	beq- 7,.L673
.LVL684:
.L690:
.LBB3590:
	.loc 10 74 0
	lwz 30,0(3)
.LVL685:
.LBB3591:
.LBB3592:
.LBB3593:
	.loc 6 98 0
	bl _ZdlPv
.LVL686:
.LBE3593:
.LBE3592:
.LBE3591:
.LBE3590:
	.loc 10 71 0
	cmpw 7,30,29
	beq- 7,.L673
	.loc 10 74 0
	mr 3,30
	b .L690
.LVL687:
.L684:
.LBE3589:
.LBE3588:
.LBE3587:
.LBE3586:
.LBE3585:
.LBE3584:
.LBB3594:
.LBB3561:
.LBB3556:
.LBB3557:
.LBB3558:
	.loc 1 343 0
	lwz 9,0(28)
	mr 31,3
.LVL688:
	mr 3,28
	lwz 0,12(9)
	mtctr 0
	bctrl
	b .L656
.LVL689:
.L673:
.LBE3558:
.LBE3557:
.LBE3556:
.LBE3561:
.LBE3594:
.LBB3595:
.LBB3596:
.LBB3597:
.LBB3598:
.LBB3599:
.LBB3600:
	.loc 1 105 0
	lis 9,_ZTVN7sigslot15single_threadedE+8@ha
	mr 3,31
	la 0,_ZTVN7sigslot15single_threadedE+8@l(9)
	stw 0,0(28)
.LEHB56:
	bl _Unwind_Resume
.LEHE56:
.LBE3600:
.LBE3599:
.LBE3598:
.LBE3597:
.LBE3596:
.LBE3595:
.LBE3604:
.LBE3608:
.LBE3612:
.LBE3616:
.LBE3620:
.LBE3624:
	.cfi_endproc
.LFE1502:
	.section	.gcc_except_table
.LLSDA1502:
	.byte	0xff
	.byte	0xff
	.byte	0x1
	.uleb128 .LLSDACSE1502-.LLSDACSB1502
.LLSDACSB1502:
	.uleb128 .LEHB53-.LFB1502
	.uleb128 .LEHE53-.LEHB53
	.uleb128 .L683-.LFB1502
	.uleb128 0
	.uleb128 .LEHB54-.LFB1502
	.uleb128 .LEHE54-.LEHB54
	.uleb128 .L684-.LFB1502
	.uleb128 0
	.uleb128 .LEHB55-.LFB1502
	.uleb128 .LEHE55-.LEHB55
	.uleb128 .L683-.LFB1502
	.uleb128 0
	.uleb128 .LEHB56-.LFB1502
	.uleb128 .LEHE56-.LEHB56
	.uleb128 0
	.uleb128 0
.LLSDACSE1502:
	.section	.text._ZN7sigslot7signal3IP10GuiElementiiNS_15single_threadedEED0Ev,"axG",@progbits,_ZN7sigslot7signal3IP10GuiElementiiNS_15single_threadedEED5Ev,comdat
	.size	_ZN7sigslot7signal3IP10GuiElementiiNS_15single_threadedEED0Ev, .-_ZN7sigslot7signal3IP10GuiElementiiNS_15single_threadedEED0Ev
	.section	.text._ZN7sigslot7signal3IP10GuiElementiiNS_15single_threadedEED2Ev,"axG",@progbits,_ZN7sigslot7signal3IP10GuiElementiiNS_15single_threadedEED5Ev,comdat
	.align 2
	.weak	_ZN7sigslot7signal3IP10GuiElementiiNS_15single_threadedEED2Ev
	.type	_ZN7sigslot7signal3IP10GuiElementiiNS_15single_threadedEED2Ev, @function
_ZN7sigslot7signal3IP10GuiElementiiNS_15single_threadedEED2Ev:
.LFB1500:
	.loc 1 2302 0
	.cfi_startproc
	.cfi_personality 0,__gxx_personality_v0
	.cfi_lsda 0,.LLSDA1500
.LVL690:
	mflr 0
	stwu 1,-40(1)
.LCFI98:
	.cfi_def_cfa_offset 40
	.cfi_register 65, 0
.LBB3722:
.LBB3723:
.LBB3724:
.LBB3725:
	.loc 1 946 0
	lis 9,_ZTVN7sigslot13_signal_base3IP10GuiElementiiNS_15single_threadedEEE+8@ha
.LBE3725:
.LBE3724:
.LBE3723:
.LBE3722:
	.loc 1 2302 0
	stw 28,24(1)
	mr 28,3
	.cfi_offset 28, -16
.LVL691:
	stw 0,44(1)
.LBB3823:
.LBB3818:
.LBB3813:
.LBB3808:
	.loc 1 946 0
	la 0,_ZTVN7sigslot13_signal_base3IP10GuiElementiiNS_15single_threadedEEE+8@l(9)
	.cfi_offset 65, 4
.LBE3808:
.LBE3813:
.LBE3818:
.LBE3823:
	.loc 1 2302 0
	stw 29,28(1)
	addi 29,3,4
	.cfi_offset 29, -12
	stw 30,32(1)
	stw 31,36(1)
.LBB3824:
.LBB3819:
.LBB3814:
.LBB3809:
	.loc 1 946 0
	stw 0,0(3)
.LVL692:
.LEHB57:
.LBB3726:
.LBB3727:
.LBB3728:
.LBB3729:
	.loc 1 338 0
	.cfi_offset 31, -4
	.cfi_offset 30, -8
	bl _ZN7sigslot15single_threaded4lockEv
.LEHE57:
.LVL693:
.LBE3729:
.LBE3728:
.LBE3727:
	.loc 3 406 0
	mr 29,28
.LVL694:
	lwzu 31,4(29)
.LVL695:
.LBB3760:
	.loc 1 954 0
	cmpw 7,31,29
	beq- 7,.L692
.LVL696:
.L730:
	.loc 1 956 0
	lwz 3,8(31)
	lwz 9,0(3)
	lwz 0,8(9)
	mtctr 0
.LEHB58:
	bctrl
.LBB3730:
.LBB3731:
.LBB3732:
.LBB3733:
	.loc 1 338 0
	lwz 9,0(3)
.LBE3733:
.LBE3732:
.LBE3731:
.LBE3730:
	.loc 1 956 0
	mr 30,3
.LVL697:
	stw 28,8(1)
.LVL698:
.LBB3742:
.LBB3741:
.LBB3735:
.LBB3734:
	.loc 1 338 0
	lwz 0,8(9)
	mtctr 0
	bctrl
.LVL699:
.LBE3734:
.LBE3735:
.LBB3736:
.LBB3737:
	.loc 9 528 0
	addi 3,30,4
	addi 4,1,8
	bl _ZNSt8_Rb_treeIPN7sigslot12_signal_baseINS0_15single_threadedEEES4_St9_IdentityIS4_ESt4lessIS4_ESaIS4_EE5eraseERKS4_
.LVL700:
.LBE3737:
.LBE3736:
.LBB3738:
.LBB3739:
.LBB3740:
	.loc 1 343 0
	lwz 9,0(30)
	mr 3,30
	lwz 0,12(9)
	mtctr 0
	bctrl
.LVL701:
.LBE3740:
.LBE3739:
.LBE3738:
.LBE3741:
.LBE3742:
	.loc 1 957 0
	lwz 3,8(31)
	cmpwi 7,3,0
	beq- 7,.L694
	lwz 9,0(3)
	lwz 0,4(9)
	mtctr 0
	bctrl
.LEHE58:
.L694:
.LVL702:
.LBB3743:
.LBB3744:
	.loc 4 234 0
	lwz 31,0(31)
.LVL703:
.LBE3744:
.LBE3743:
	.loc 1 954 0
	cmpw 7,29,31
	bne+ 7,.L730
.LBE3760:
	.loc 3 406 0
	lwz 31,4(28)
.LVL704:
.LBB3761:
.LBB3745:
.LBB3746:
	.loc 4 1162 0
	cmpw 7,29,31
	bne+ 7,.L732
	b .L692
.LVL705:
.L725:
	.loc 4 1163 0
	mr 31,30
.LVL706:
.L732:
.LBB3747:
.LBB3748:
	.loc 10 112 0
	lwz 30,0(31)
.LVL707:
.LBB3749:
.LBB3750:
	.loc 4 1532 0
	mr 3,31
	bl _ZNSt8__detail15_List_node_base9_M_unhookEv
.LVL708:
.LBB3751:
.LBB3752:
.LBB3753:
	.loc 6 98 0
	mr 3,31
	bl _ZdlPv
.LVL709:
.LBE3753:
.LBE3752:
.LBE3751:
.LBE3750:
.LBE3749:
.LBE3748:
.LBE3747:
	.loc 4 1162 0
	cmpw 7,29,30
	bne+ 7,.L725
.LVL710:
.L692:
.LBE3746:
.LBE3745:
.LBB3754:
.LBB3755:
.LBB3756:
	.loc 1 343 0
	lwz 9,0(28)
	mr 3,28
	lwz 0,12(9)
	mtctr 0
.LEHB59:
	bctrl
.LEHE59:
.LBE3756:
.LBE3755:
.LBE3754:
.LBE3761:
.LBE3726:
.LBB3763:
.LBB3764:
.LBB3765:
.LBB3766:
.LBB3767:
.LBB3768:
	.loc 10 70 0
	lwz 3,4(28)
.LVL711:
	.loc 10 71 0
	cmpw 7,3,29
	bne+ 7,.L734
	b .L710
.LVL712:
.L726:
	.loc 10 74 0
	mr 3,31
.LVL713:
.L734:
.LBB3769:
	lwz 31,0(3)
.LVL714:
.LBB3770:
.LBB3771:
.LBB3772:
	.loc 6 98 0
	bl _ZdlPv
.LVL715:
.LBE3772:
.LBE3771:
.LBE3770:
.LBE3769:
	.loc 10 71 0
	cmpw 7,31,29
	bne+ 7,.L726
.LVL716:
.L710:
.LBE3768:
.LBE3767:
.LBE3766:
.LBE3765:
.LBE3764:
.LBE3763:
.LBB3773:
.LBB3774:
.LBB3775:
.LBB3776:
.LBB3777:
.LBB3778:
	.loc 1 105 0
	lis 9,_ZTVN7sigslot15single_threadedE+8@ha
.LBE3778:
.LBE3777:
.LBE3776:
.LBE3775:
.LBE3774:
.LBE3773:
.LBE3809:
.LBE3814:
.LBE3819:
.LBE3824:
	.loc 1 2305 0
	lwz 29,28(1)
.LVL717:
.LBB3825:
.LBB3820:
.LBB3815:
.LBB3810:
.LBB3789:
.LBB3787:
.LBB3785:
.LBB3783:
.LBB3781:
.LBB3779:
	.loc 1 105 0
	la 0,_ZTVN7sigslot15single_threadedE+8@l(9)
.LBE3779:
.LBE3781:
.LBE3783:
.LBE3785:
.LBE3787:
.LBE3789:
.LBE3810:
.LBE3815:
.LBE3820:
.LBE3825:
	.loc 1 2305 0
	lwz 30,32(1)
.LBB3826:
.LBB3821:
.LBB3816:
.LBB3811:
.LBB3790:
.LBB3788:
.LBB3786:
.LBB3784:
.LBB3782:
.LBB3780:
	.loc 1 105 0
	stw 0,0(28)
.LBE3780:
.LBE3782:
.LBE3784:
.LBE3786:
.LBE3788:
.LBE3790:
.LBE3811:
.LBE3816:
.LBE3821:
.LBE3826:
	.loc 1 2305 0
	lwz 0,44(1)
	lwz 28,24(1)
.LVL718:
	mtlr 0
	lwz 31,36(1)
	addi 1,1,40
	.cfi_remember_state
.LCFI99:
	.cfi_def_cfa_offset 0
	.cfi_restore 31
	.cfi_restore 30
	.cfi_restore 29
	.cfi_restore 28
	blr
.LVL719:
.L728:
.LCFI100:
	.cfi_restore_state
	mr 31,3
.L702:
.LBB3827:
.LBB3822:
.LBB3817:
.LBB3812:
.LBB3791:
.LBB3792:
.LBB3793:
.LBB3794:
.LBB3795:
.LBB3796:
	.loc 10 70 0
	lwz 3,4(28)
.LVL720:
	.loc 10 71 0
	cmpw 7,3,29
	beq- 7,.L719
.LVL721:
.L735:
.LBB3797:
	.loc 10 74 0
	lwz 30,0(3)
.LVL722:
.LBB3798:
.LBB3799:
.LBB3800:
	.loc 6 98 0
	bl _ZdlPv
.LVL723:
.LBE3800:
.LBE3799:
.LBE3798:
.LBE3797:
	.loc 10 71 0
	cmpw 7,30,29
	beq- 7,.L719
	.loc 10 74 0
	mr 3,30
	b .L735
.LVL724:
.L729:
.LBE3796:
.LBE3795:
.LBE3794:
.LBE3793:
.LBE3792:
.LBE3791:
.LBB3801:
.LBB3762:
.LBB3757:
.LBB3758:
.LBB3759:
	.loc 1 343 0
	lwz 9,0(28)
	mr 31,3
.LVL725:
	mr 3,28
	lwz 0,12(9)
	mtctr 0
	bctrl
	b .L702
.LVL726:
.L719:
.LBE3759:
.LBE3758:
.LBE3757:
.LBE3762:
.LBE3801:
.LBB3802:
.LBB3803:
.LBB3804:
.LBB3805:
.LBB3806:
.LBB3807:
	.loc 1 105 0
	lis 9,_ZTVN7sigslot15single_threadedE+8@ha
	mr 3,31
	la 0,_ZTVN7sigslot15single_threadedE+8@l(9)
	stw 0,0(28)
.LEHB60:
	bl _Unwind_Resume
.LEHE60:
.LBE3807:
.LBE3806:
.LBE3805:
.LBE3804:
.LBE3803:
.LBE3802:
.LBE3812:
.LBE3817:
.LBE3822:
.LBE3827:
	.cfi_endproc
.LFE1500:
	.section	.gcc_except_table
.LLSDA1500:
	.byte	0xff
	.byte	0xff
	.byte	0x1
	.uleb128 .LLSDACSE1500-.LLSDACSB1500
.LLSDACSB1500:
	.uleb128 .LEHB57-.LFB1500
	.uleb128 .LEHE57-.LEHB57
	.uleb128 .L728-.LFB1500
	.uleb128 0
	.uleb128 .LEHB58-.LFB1500
	.uleb128 .LEHE58-.LEHB58
	.uleb128 .L729-.LFB1500
	.uleb128 0
	.uleb128 .LEHB59-.LFB1500
	.uleb128 .LEHE59-.LEHB59
	.uleb128 .L728-.LFB1500
	.uleb128 0
	.uleb128 .LEHB60-.LFB1500
	.uleb128 .LEHE60-.LEHB60
	.uleb128 0
	.uleb128 0
.LLSDACSE1500:
	.section	.text._ZN7sigslot7signal3IP10GuiElementiiNS_15single_threadedEED2Ev,"axG",@progbits,_ZN7sigslot7signal3IP10GuiElementiiNS_15single_threadedEED5Ev,comdat
	.size	_ZN7sigslot7signal3IP10GuiElementiiNS_15single_threadedEED2Ev, .-_ZN7sigslot7signal3IP10GuiElementiiNS_15single_threadedEED2Ev
	.section	.text._ZN7sigslot13_signal_base2IP10GuiElementbNS_15single_threadedEED0Ev,"axG",@progbits,_ZN7sigslot13_signal_base2IP10GuiElementbNS_15single_threadedEED5Ev,comdat
	.align 2
	.weak	_ZN7sigslot13_signal_base2IP10GuiElementbNS_15single_threadedEED0Ev
	.type	_ZN7sigslot13_signal_base2IP10GuiElementbNS_15single_threadedEED0Ev, @function
_ZN7sigslot13_signal_base2IP10GuiElementbNS_15single_threadedEED0Ev:
.LFB1539:
	.loc 1 823 0
	.cfi_startproc
	.cfi_personality 0,__gxx_personality_v0
	.cfi_lsda 0,.LLSDA1539
.LVL727:
	mflr 0
	stwu 1,-40(1)
.LCFI101:
	.cfi_def_cfa_offset 40
	.cfi_register 65, 0
.LBB3923:
.LBB3924:
.LBB3925:
	.loc 1 826 0
	lis 9,_ZTVN7sigslot13_signal_base2IP10GuiElementbNS_15single_threadedEEE+8@ha
.LBE3925:
.LBE3924:
.LBE3923:
	.loc 1 823 0
	stw 28,24(1)
	mr 28,3
	.cfi_offset 28, -16
.LVL728:
	stw 0,44(1)
.LBB4010:
.LBB4006:
.LBB4002:
	.loc 1 826 0
	la 0,_ZTVN7sigslot13_signal_base2IP10GuiElementbNS_15single_threadedEEE+8@l(9)
	.cfi_offset 65, 4
.LBE4002:
.LBE4006:
.LBE4010:
	.loc 1 823 0
	stw 29,28(1)
	addi 29,3,4
	.cfi_offset 29, -12
	stw 30,32(1)
	stw 31,36(1)
.LBB4011:
.LBB4007:
.LBB4003:
	.loc 1 826 0
	stw 0,0(3)
.LVL729:
.LEHB61:
.LBB3926:
.LBB3927:
.LBB3928:
.LBB3929:
	.loc 1 338 0
	.cfi_offset 31, -4
	.cfi_offset 30, -8
	bl _ZN7sigslot15single_threaded4lockEv
.LEHE61:
.LVL730:
.LBE3929:
.LBE3928:
.LBE3927:
	.loc 3 406 0
	mr 29,28
.LVL731:
	lwzu 31,4(29)
.LVL732:
.LBB3960:
	.loc 1 834 0
	cmpw 7,31,29
	beq- 7,.L737
.LVL733:
.L775:
	.loc 1 836 0
	lwz 3,8(31)
	lwz 9,0(3)
	lwz 0,8(9)
	mtctr 0
.LEHB62:
	bctrl
.LBB3930:
.LBB3931:
.LBB3932:
.LBB3933:
	.loc 1 338 0
	lwz 9,0(3)
.LBE3933:
.LBE3932:
.LBE3931:
.LBE3930:
	.loc 1 836 0
	mr 30,3
.LVL734:
	stw 28,8(1)
.LVL735:
.LBB3942:
.LBB3941:
.LBB3935:
.LBB3934:
	.loc 1 338 0
	lwz 0,8(9)
	mtctr 0
	bctrl
.LVL736:
.LBE3934:
.LBE3935:
.LBB3936:
.LBB3937:
	.loc 9 528 0
	addi 3,30,4
	addi 4,1,8
	bl _ZNSt8_Rb_treeIPN7sigslot12_signal_baseINS0_15single_threadedEEES4_St9_IdentityIS4_ESt4lessIS4_ESaIS4_EE5eraseERKS4_
.LVL737:
.LBE3937:
.LBE3936:
.LBB3938:
.LBB3939:
.LBB3940:
	.loc 1 343 0
	lwz 9,0(30)
	mr 3,30
	lwz 0,12(9)
	mtctr 0
	bctrl
.LVL738:
.LBE3940:
.LBE3939:
.LBE3938:
.LBE3941:
.LBE3942:
	.loc 1 837 0
	lwz 3,8(31)
	cmpwi 7,3,0
	beq- 7,.L739
	lwz 9,0(3)
	lwz 0,4(9)
	mtctr 0
	bctrl
.LEHE62:
.L739:
.LVL739:
.LBB3943:
.LBB3944:
	.loc 4 234 0
	lwz 31,0(31)
.LVL740:
.LBE3944:
.LBE3943:
	.loc 1 834 0
	cmpw 7,29,31
	bne+ 7,.L775
.LBE3960:
	.loc 3 406 0
	lwz 31,4(28)
.LVL741:
.LBB3961:
.LBB3945:
.LBB3946:
	.loc 4 1162 0
	cmpw 7,29,31
	bne+ 7,.L777
	b .L737
.LVL742:
.L770:
	.loc 4 1163 0
	mr 31,30
.LVL743:
.L777:
.LBB3947:
.LBB3948:
	.loc 10 112 0
	lwz 30,0(31)
.LVL744:
.LBB3949:
.LBB3950:
	.loc 4 1532 0
	mr 3,31
	bl _ZNSt8__detail15_List_node_base9_M_unhookEv
.LVL745:
.LBB3951:
.LBB3952:
.LBB3953:
	.loc 6 98 0
	mr 3,31
	bl _ZdlPv
.LVL746:
.LBE3953:
.LBE3952:
.LBE3951:
.LBE3950:
.LBE3949:
.LBE3948:
.LBE3947:
	.loc 4 1162 0
	cmpw 7,29,30
	bne+ 7,.L770
.LVL747:
.L737:
.LBE3946:
.LBE3945:
.LBB3954:
.LBB3955:
.LBB3956:
	.loc 1 343 0
	lwz 9,0(28)
	mr 3,28
	lwz 0,12(9)
	mtctr 0
.LEHB63:
	bctrl
.LEHE63:
.LVL748:
.LBE3956:
.LBE3955:
.LBE3954:
.LBE3961:
.LBE3926:
.LBB3963:
.LBB3964:
.LBB3965:
.LBB3966:
.LBB3967:
.LBB3968:
	.loc 10 70 0
	lwz 3,4(28)
.LVL749:
	.loc 10 71 0
	cmpw 7,3,29
	bne+ 7,.L779
	b .L755
.LVL750:
.L771:
	.loc 10 74 0
	mr 3,31
.LVL751:
.L779:
.LBB3969:
	lwz 31,0(3)
.LVL752:
.LBB3970:
.LBB3971:
.LBB3972:
	.loc 6 98 0
	bl _ZdlPv
.LVL753:
.LBE3972:
.LBE3971:
.LBE3970:
.LBE3969:
	.loc 10 71 0
	cmpw 7,31,29
	bne+ 7,.L771
.LVL754:
.L755:
.LBE3968:
.LBE3967:
.LBE3966:
.LBE3965:
.LBE3964:
.LBE3963:
.LBB3973:
.LBB3974:
.LBB3975:
.LBB3976:
.LBB3977:
.LBB3978:
	.loc 1 105 0
	lis 9,_ZTVN7sigslot15single_threadedE+8@ha
.LBE3978:
.LBE3977:
.LBE3976:
.LBE3975:
.LBE3974:
.LBE3973:
.LBE4003:
.LBE4007:
.LBE4011:
	.loc 1 826 0
	mr 3,28
.LBB4012:
.LBB4008:
.LBB4004:
.LBB3984:
.LBB3983:
.LBB3982:
.LBB3981:
.LBB3980:
.LBB3979:
	.loc 1 105 0
	la 0,_ZTVN7sigslot15single_threadedE+8@l(9)
	stw 0,0(28)
.LBE3979:
.LBE3980:
.LBE3981:
.LBE3982:
.LBE3983:
.LBE3984:
.LBE4004:
.LBE4008:
.LBE4012:
	.loc 1 826 0
	bl _ZdlPv
	lwz 0,44(1)
	lwz 28,24(1)
.LVL755:
	mtlr 0
	lwz 29,28(1)
.LVL756:
	lwz 30,32(1)
	lwz 31,36(1)
	addi 1,1,40
	.cfi_remember_state
.LCFI102:
	.cfi_def_cfa_offset 0
	.cfi_restore 31
	.cfi_restore 30
	.cfi_restore 29
	.cfi_restore 28
	blr
.LVL757:
.L773:
.LCFI103:
	.cfi_restore_state
	mr 31,3
.L747:
.LVL758:
.LBB4013:
.LBB4009:
.LBB4005:
.LBB3985:
.LBB3986:
.LBB3987:
.LBB3988:
.LBB3989:
.LBB3990:
	.loc 10 70 0
	lwz 3,4(28)
.LVL759:
	.loc 10 71 0
	cmpw 7,3,29
	beq- 7,.L764
.LVL760:
.L780:
.LBB3991:
	.loc 10 74 0
	lwz 30,0(3)
.LVL761:
.LBB3992:
.LBB3993:
.LBB3994:
	.loc 6 98 0
	bl _ZdlPv
.LVL762:
.LBE3994:
.LBE3993:
.LBE3992:
.LBE3991:
	.loc 10 71 0
	cmpw 7,30,29
	beq- 7,.L764
	.loc 10 74 0
	mr 3,30
	b .L780
.LVL763:
.L774:
.LBE3990:
.LBE3989:
.LBE3988:
.LBE3987:
.LBE3986:
.LBE3985:
.LBB3995:
.LBB3962:
.LBB3957:
.LBB3958:
.LBB3959:
	.loc 1 343 0
	lwz 9,0(28)
	mr 31,3
.LVL764:
	mr 3,28
	lwz 0,12(9)
	mtctr 0
	bctrl
	b .L747
.LVL765:
.L764:
.LBE3959:
.LBE3958:
.LBE3957:
.LBE3962:
.LBE3995:
.LBB3996:
.LBB3997:
.LBB3998:
.LBB3999:
.LBB4000:
.LBB4001:
	.loc 1 105 0
	lis 9,_ZTVN7sigslot15single_threadedE+8@ha
	mr 3,31
	la 0,_ZTVN7sigslot15single_threadedE+8@l(9)
	stw 0,0(28)
.LEHB64:
	bl _Unwind_Resume
.LEHE64:
.LBE4001:
.LBE4000:
.LBE3999:
.LBE3998:
.LBE3997:
.LBE3996:
.LBE4005:
.LBE4009:
.LBE4013:
	.cfi_endproc
.LFE1539:
	.section	.gcc_except_table
.LLSDA1539:
	.byte	0xff
	.byte	0xff
	.byte	0x1
	.uleb128 .LLSDACSE1539-.LLSDACSB1539
.LLSDACSB1539:
	.uleb128 .LEHB61-.LFB1539
	.uleb128 .LEHE61-.LEHB61
	.uleb128 .L773-.LFB1539
	.uleb128 0
	.uleb128 .LEHB62-.LFB1539
	.uleb128 .LEHE62-.LEHB62
	.uleb128 .L774-.LFB1539
	.uleb128 0
	.uleb128 .LEHB63-.LFB1539
	.uleb128 .LEHE63-.LEHB63
	.uleb128 .L773-.LFB1539
	.uleb128 0
	.uleb128 .LEHB64-.LFB1539
	.uleb128 .LEHE64-.LEHB64
	.uleb128 0
	.uleb128 0
.LLSDACSE1539:
	.section	.text._ZN7sigslot13_signal_base2IP10GuiElementbNS_15single_threadedEED0Ev,"axG",@progbits,_ZN7sigslot13_signal_base2IP10GuiElementbNS_15single_threadedEED5Ev,comdat
	.size	_ZN7sigslot13_signal_base2IP10GuiElementbNS_15single_threadedEED0Ev, .-_ZN7sigslot13_signal_base2IP10GuiElementbNS_15single_threadedEED0Ev
	.section	.text._ZN7sigslot13_signal_base2IP10GuiElementbNS_15single_threadedEED2Ev,"axG",@progbits,_ZN7sigslot13_signal_base2IP10GuiElementbNS_15single_threadedEED5Ev,comdat
	.align 2
	.weak	_ZN7sigslot13_signal_base2IP10GuiElementbNS_15single_threadedEED2Ev
	.type	_ZN7sigslot13_signal_base2IP10GuiElementbNS_15single_threadedEED2Ev, @function
_ZN7sigslot13_signal_base2IP10GuiElementbNS_15single_threadedEED2Ev:
.LFB1537:
	.loc 1 823 0
	.cfi_startproc
	.cfi_personality 0,__gxx_personality_v0
	.cfi_lsda 0,.LLSDA1537
.LVL766:
	mflr 0
	stwu 1,-40(1)
.LCFI104:
	.cfi_def_cfa_offset 40
	.cfi_register 65, 0
.LBB4160:
	.loc 1 826 0
	lis 9,_ZTVN7sigslot13_signal_base2IP10GuiElementbNS_15single_threadedEEE+8@ha
.LBE4160:
	.loc 1 823 0
	stw 28,24(1)
	mr 28,3
	.cfi_offset 28, -16
	stw 0,44(1)
.LBB4243:
	.loc 1 826 0
	la 0,_ZTVN7sigslot13_signal_base2IP10GuiElementbNS_15single_threadedEEE+8@l(9)
	.cfi_offset 65, 4
.LBE4243:
	.loc 1 823 0
	stw 29,28(1)
	addi 29,3,4
	.cfi_offset 29, -12
	stw 30,32(1)
	stw 31,36(1)
.LBB4244:
	.loc 1 826 0
	stw 0,0(3)
.LVL767:
.LEHB65:
.LBB4161:
.LBB4162:
.LBB4163:
.LBB4164:
	.loc 1 338 0
	.cfi_offset 31, -4
	.cfi_offset 30, -8
	bl _ZN7sigslot15single_threaded4lockEv
.LEHE65:
.LVL768:
.LBE4164:
.LBE4163:
.LBE4162:
	.loc 3 406 0
	mr 29,28
	lwzu 31,4(29)
.LVL769:
.LBB4195:
	.loc 1 834 0
	cmpw 7,31,29
	beq- 7,.L782
.LVL770:
.L819:
	.loc 1 836 0
	lwz 3,8(31)
	lwz 9,0(3)
	lwz 0,8(9)
	mtctr 0
.LEHB66:
	bctrl
.LBB4165:
.LBB4166:
.LBB4167:
.LBB4168:
	.loc 1 338 0
	lwz 9,0(3)
.LBE4168:
.LBE4167:
.LBE4166:
.LBE4165:
	.loc 1 836 0
	mr 30,3
.LVL771:
	stw 28,8(1)
.LVL772:
.LBB4177:
.LBB4176:
.LBB4170:
.LBB4169:
	.loc 1 338 0
	lwz 0,8(9)
	mtctr 0
	bctrl
.LVL773:
.LBE4169:
.LBE4170:
.LBB4171:
.LBB4172:
	.loc 9 528 0
	addi 3,30,4
	addi 4,1,8
	bl _ZNSt8_Rb_treeIPN7sigslot12_signal_baseINS0_15single_threadedEEES4_St9_IdentityIS4_ESt4lessIS4_ESaIS4_EE5eraseERKS4_
.LVL774:
.LBE4172:
.LBE4171:
.LBB4173:
.LBB4174:
.LBB4175:
	.loc 1 343 0
	lwz 9,0(30)
	mr 3,30
	lwz 0,12(9)
	mtctr 0
	bctrl
.LVL775:
.LBE4175:
.LBE4174:
.LBE4173:
.LBE4176:
.LBE4177:
	.loc 1 837 0
	lwz 3,8(31)
	cmpwi 7,3,0
	beq- 7,.L784
	lwz 9,0(3)
	lwz 0,4(9)
	mtctr 0
	bctrl
.LEHE66:
.L784:
.LVL776:
.LBB4178:
.LBB4179:
	.loc 4 234 0
	lwz 31,0(31)
.LVL777:
.LBE4179:
.LBE4178:
	.loc 1 834 0
	cmpw 7,29,31
	bne+ 7,.L819
.LBE4195:
	.loc 3 406 0
	lwz 31,4(28)
.LVL778:
.LBB4196:
.LBB4180:
.LBB4181:
	.loc 4 1162 0
	cmpw 7,29,31
	bne+ 7,.L821
	b .L782
.LVL779:
.L814:
	.loc 4 1163 0
	mr 31,30
.LVL780:
.L821:
.LBB4182:
.LBB4183:
	.loc 10 112 0
	lwz 30,0(31)
.LVL781:
.LBB4184:
.LBB4185:
	.loc 4 1532 0
	mr 3,31
	bl _ZNSt8__detail15_List_node_base9_M_unhookEv
.LVL782:
.LBB4186:
.LBB4187:
.LBB4188:
	.loc 6 98 0
	mr 3,31
	bl _ZdlPv
.LVL783:
.LBE4188:
.LBE4187:
.LBE4186:
.LBE4185:
.LBE4184:
.LBE4183:
.LBE4182:
	.loc 4 1162 0
	cmpw 7,29,30
	bne+ 7,.L814
.LVL784:
.L782:
.LBE4181:
.LBE4180:
.LBB4189:
.LBB4190:
.LBB4191:
	.loc 1 343 0
	lwz 9,0(28)
	mr 3,28
	lwz 0,12(9)
	mtctr 0
.LEHB67:
	bctrl
.LEHE67:
.LVL785:
.LBE4191:
.LBE4190:
.LBE4189:
.LBE4196:
.LBE4161:
.LBB4198:
.LBB4199:
.LBB4200:
.LBB4201:
.LBB4202:
.LBB4203:
	.loc 10 70 0
	lwz 3,4(28)
.LVL786:
	.loc 10 71 0
	cmpw 7,3,29
	bne+ 7,.L823
	b .L800
.LVL787:
.L815:
	.loc 10 74 0
	mr 3,31
.LVL788:
.L823:
.LBB4204:
	lwz 31,0(3)
.LVL789:
.LBB4205:
.LBB4206:
.LBB4207:
	.loc 6 98 0
	bl _ZdlPv
.LVL790:
.LBE4207:
.LBE4206:
.LBE4205:
.LBE4204:
	.loc 10 71 0
	cmpw 7,31,29
	bne+ 7,.L815
.LVL791:
.L800:
.LBE4203:
.LBE4202:
.LBE4201:
.LBE4200:
.LBE4199:
.LBE4198:
.LBB4208:
.LBB4209:
.LBB4210:
.LBB4211:
.LBB4212:
.LBB4213:
	.loc 1 105 0
	lis 9,_ZTVN7sigslot15single_threadedE+8@ha
.LBE4213:
.LBE4212:
.LBE4211:
.LBE4210:
.LBE4209:
.LBE4208:
.LBE4244:
	.loc 1 826 0
	lwz 29,28(1)
.LVL792:
.LBB4245:
.LBB4224:
.LBB4222:
.LBB4220:
.LBB4218:
.LBB4216:
.LBB4214:
	.loc 1 105 0
	la 0,_ZTVN7sigslot15single_threadedE+8@l(9)
.LBE4214:
.LBE4216:
.LBE4218:
.LBE4220:
.LBE4222:
.LBE4224:
.LBE4245:
	.loc 1 826 0
	lwz 30,32(1)
.LBB4246:
.LBB4225:
.LBB4223:
.LBB4221:
.LBB4219:
.LBB4217:
.LBB4215:
	.loc 1 105 0
	stw 0,0(28)
.LBE4215:
.LBE4217:
.LBE4219:
.LBE4221:
.LBE4223:
.LBE4225:
.LBE4246:
	.loc 1 826 0
	lwz 0,44(1)
	lwz 28,24(1)
.LVL793:
	mtlr 0
	lwz 31,36(1)
	addi 1,1,40
	.cfi_remember_state
.LCFI105:
	.cfi_def_cfa_offset 0
	.cfi_restore 31
	.cfi_restore 30
	.cfi_restore 29
	.cfi_restore 28
	blr
.LVL794:
.L817:
.LCFI106:
	.cfi_restore_state
	mr 31,3
.L792:
.LVL795:
.LBB4247:
.LBB4226:
.LBB4227:
.LBB4228:
.LBB4229:
.LBB4230:
.LBB4231:
	.loc 10 70 0
	lwz 3,4(28)
.LVL796:
	.loc 10 71 0
	cmpw 7,3,29
	beq- 7,.L811
.LVL797:
.L824:
.LBB4232:
	.loc 10 74 0
	lwz 30,0(3)
.LVL798:
.LBB4233:
.LBB4234:
.LBB4235:
	.loc 6 98 0
	bl _ZdlPv
.LVL799:
.LBE4235:
.LBE4234:
.LBE4233:
.LBE4232:
	.loc 10 71 0
	cmpw 7,30,29
	beq- 7,.L811
	.loc 10 74 0
	mr 3,30
	b .L824
.LVL800:
.L818:
.LBE4231:
.LBE4230:
.LBE4229:
.LBE4228:
.LBE4227:
.LBE4226:
.LBB4236:
.LBB4197:
.LBB4192:
.LBB4193:
.LBB4194:
	.loc 1 343 0
	lwz 9,0(28)
	mr 31,3
.LVL801:
	mr 3,28
	lwz 0,12(9)
	mtctr 0
	bctrl
	b .L792
.LVL802:
.L811:
.LBE4194:
.LBE4193:
.LBE4192:
.LBE4197:
.LBE4236:
.LBB4237:
.LBB4238:
.LBB4239:
.LBB4240:
.LBB4241:
.LBB4242:
	.loc 1 105 0
	lis 9,_ZTVN7sigslot15single_threadedE+8@ha
	mr 3,31
	la 0,_ZTVN7sigslot15single_threadedE+8@l(9)
	stw 0,0(28)
.LEHB68:
	bl _Unwind_Resume
.LEHE68:
.LBE4242:
.LBE4241:
.LBE4240:
.LBE4239:
.LBE4238:
.LBE4237:
.LBE4247:
	.cfi_endproc
.LFE1537:
	.section	.gcc_except_table
.LLSDA1537:
	.byte	0xff
	.byte	0xff
	.byte	0x1
	.uleb128 .LLSDACSE1537-.LLSDACSB1537
.LLSDACSB1537:
	.uleb128 .LEHB65-.LFB1537
	.uleb128 .LEHE65-.LEHB65
	.uleb128 .L817-.LFB1537
	.uleb128 0
	.uleb128 .LEHB66-.LFB1537
	.uleb128 .LEHE66-.LEHB66
	.uleb128 .L818-.LFB1537
	.uleb128 0
	.uleb128 .LEHB67-.LFB1537
	.uleb128 .LEHE67-.LEHB67
	.uleb128 .L817-.LFB1537
	.uleb128 0
	.uleb128 .LEHB68-.LFB1537
	.uleb128 .LEHE68-.LEHB68
	.uleb128 0
	.uleb128 0
.LLSDACSE1537:
	.section	.text._ZN7sigslot13_signal_base2IP10GuiElementbNS_15single_threadedEED2Ev,"axG",@progbits,_ZN7sigslot13_signal_base2IP10GuiElementbNS_15single_threadedEED5Ev,comdat
	.size	_ZN7sigslot13_signal_base2IP10GuiElementbNS_15single_threadedEED2Ev, .-_ZN7sigslot13_signal_base2IP10GuiElementbNS_15single_threadedEED2Ev
	.section	.text._ZN7sigslot7signal2IP10GuiElementbNS_15single_threadedEED2Ev,"axG",@progbits,_ZN7sigslot7signal2IP10GuiElementbNS_15single_threadedEED5Ev,comdat
	.align 2
	.weak	_ZN7sigslot7signal2IP10GuiElementbNS_15single_threadedEED2Ev
	.type	_ZN7sigslot7signal2IP10GuiElementbNS_15single_threadedEED2Ev, @function
_ZN7sigslot7signal2IP10GuiElementbNS_15single_threadedEED2Ev:
.LFB1496:
	.loc 1 2235 0
	.cfi_startproc
	.cfi_personality 0,__gxx_personality_v0
	.cfi_lsda 0,.LLSDA1496
.LVL803:
	mflr 0
	stwu 1,-40(1)
.LCFI107:
	.cfi_def_cfa_offset 40
	.cfi_register 65, 0
.LBB4345:
.LBB4346:
.LBB4347:
.LBB4348:
	.loc 1 826 0
	lis 9,_ZTVN7sigslot13_signal_base2IP10GuiElementbNS_15single_threadedEEE+8@ha
.LBE4348:
.LBE4347:
.LBE4346:
.LBE4345:
	.loc 1 2235 0
	stw 28,24(1)
	mr 28,3
	.cfi_offset 28, -16
.LVL804:
	stw 0,44(1)
.LBB4446:
.LBB4441:
.LBB4436:
.LBB4431:
	.loc 1 826 0
	la 0,_ZTVN7sigslot13_signal_base2IP10GuiElementbNS_15single_threadedEEE+8@l(9)
	.cfi_offset 65, 4
.LBE4431:
.LBE4436:
.LBE4441:
.LBE4446:
	.loc 1 2235 0
	stw 29,28(1)
	addi 29,3,4
	.cfi_offset 29, -12
	stw 30,32(1)
	stw 31,36(1)
.LBB4447:
.LBB4442:
.LBB4437:
.LBB4432:
	.loc 1 826 0
	stw 0,0(3)
.LVL805:
.LEHB69:
.LBB4349:
.LBB4350:
.LBB4351:
.LBB4352:
	.loc 1 338 0
	.cfi_offset 31, -4
	.cfi_offset 30, -8
	bl _ZN7sigslot15single_threaded4lockEv
.LEHE69:
.LVL806:
.LBE4352:
.LBE4351:
.LBE4350:
	.loc 3 406 0
	mr 29,28
.LVL807:
	lwzu 31,4(29)
.LVL808:
.LBB4383:
	.loc 1 834 0
	cmpw 7,31,29
	beq- 7,.L826
.LVL809:
.L864:
	.loc 1 836 0
	lwz 3,8(31)
	lwz 9,0(3)
	lwz 0,8(9)
	mtctr 0
.LEHB70:
	bctrl
.LBB4353:
.LBB4354:
.LBB4355:
.LBB4356:
	.loc 1 338 0
	lwz 9,0(3)
.LBE4356:
.LBE4355:
.LBE4354:
.LBE4353:
	.loc 1 836 0
	mr 30,3
.LVL810:
	stw 28,8(1)
.LVL811:
.LBB4365:
.LBB4364:
.LBB4358:
.LBB4357:
	.loc 1 338 0
	lwz 0,8(9)
	mtctr 0
	bctrl
.LVL812:
.LBE4357:
.LBE4358:
.LBB4359:
.LBB4360:
	.loc 9 528 0
	addi 3,30,4
	addi 4,1,8
	bl _ZNSt8_Rb_treeIPN7sigslot12_signal_baseINS0_15single_threadedEEES4_St9_IdentityIS4_ESt4lessIS4_ESaIS4_EE5eraseERKS4_
.LVL813:
.LBE4360:
.LBE4359:
.LBB4361:
.LBB4362:
.LBB4363:
	.loc 1 343 0
	lwz 9,0(30)
	mr 3,30
	lwz 0,12(9)
	mtctr 0
	bctrl
.LVL814:
.LBE4363:
.LBE4362:
.LBE4361:
.LBE4364:
.LBE4365:
	.loc 1 837 0
	lwz 3,8(31)
	cmpwi 7,3,0
	beq- 7,.L828
	lwz 9,0(3)
	lwz 0,4(9)
	mtctr 0
	bctrl
.LEHE70:
.L828:
.LVL815:
.LBB4366:
.LBB4367:
	.loc 4 234 0
	lwz 31,0(31)
.LVL816:
.LBE4367:
.LBE4366:
	.loc 1 834 0
	cmpw 7,29,31
	bne+ 7,.L864
.LBE4383:
	.loc 3 406 0
	lwz 31,4(28)
.LVL817:
.LBB4384:
.LBB4368:
.LBB4369:
	.loc 4 1162 0
	cmpw 7,29,31
	bne+ 7,.L866
	b .L826
.LVL818:
.L859:
	.loc 4 1163 0
	mr 31,30
.LVL819:
.L866:
.LBB4370:
.LBB4371:
	.loc 10 112 0
	lwz 30,0(31)
.LVL820:
.LBB4372:
.LBB4373:
	.loc 4 1532 0
	mr 3,31
	bl _ZNSt8__detail15_List_node_base9_M_unhookEv
.LVL821:
.LBB4374:
.LBB4375:
.LBB4376:
	.loc 6 98 0
	mr 3,31
	bl _ZdlPv
.LVL822:
.LBE4376:
.LBE4375:
.LBE4374:
.LBE4373:
.LBE4372:
.LBE4371:
.LBE4370:
	.loc 4 1162 0
	cmpw 7,29,30
	bne+ 7,.L859
.LVL823:
.L826:
.LBE4369:
.LBE4368:
.LBB4377:
.LBB4378:
.LBB4379:
	.loc 1 343 0
	lwz 9,0(28)
	mr 3,28
	lwz 0,12(9)
	mtctr 0
.LEHB71:
	bctrl
.LEHE71:
.LBE4379:
.LBE4378:
.LBE4377:
.LBE4384:
.LBE4349:
.LBB4386:
.LBB4387:
.LBB4388:
.LBB4389:
.LBB4390:
.LBB4391:
	.loc 10 70 0
	lwz 3,4(28)
.LVL824:
	.loc 10 71 0
	cmpw 7,3,29
	bne+ 7,.L868
	b .L844
.LVL825:
.L860:
	.loc 10 74 0
	mr 3,31
.LVL826:
.L868:
.LBB4392:
	lwz 31,0(3)
.LVL827:
.LBB4393:
.LBB4394:
.LBB4395:
	.loc 6 98 0
	bl _ZdlPv
.LVL828:
.LBE4395:
.LBE4394:
.LBE4393:
.LBE4392:
	.loc 10 71 0
	cmpw 7,31,29
	bne+ 7,.L860
.LVL829:
.L844:
.LBE4391:
.LBE4390:
.LBE4389:
.LBE4388:
.LBE4387:
.LBE4386:
.LBB4396:
.LBB4397:
.LBB4398:
.LBB4399:
.LBB4400:
.LBB4401:
	.loc 1 105 0
	lis 9,_ZTVN7sigslot15single_threadedE+8@ha
.LBE4401:
.LBE4400:
.LBE4399:
.LBE4398:
.LBE4397:
.LBE4396:
.LBE4432:
.LBE4437:
.LBE4442:
.LBE4447:
	.loc 1 2238 0
	lwz 29,28(1)
.LVL830:
.LBB4448:
.LBB4443:
.LBB4438:
.LBB4433:
.LBB4412:
.LBB4410:
.LBB4408:
.LBB4406:
.LBB4404:
.LBB4402:
	.loc 1 105 0
	la 0,_ZTVN7sigslot15single_threadedE+8@l(9)
.LBE4402:
.LBE4404:
.LBE4406:
.LBE4408:
.LBE4410:
.LBE4412:
.LBE4433:
.LBE4438:
.LBE4443:
.LBE4448:
	.loc 1 2238 0
	lwz 30,32(1)
.LBB4449:
.LBB4444:
.LBB4439:
.LBB4434:
.LBB4413:
.LBB4411:
.LBB4409:
.LBB4407:
.LBB4405:
.LBB4403:
	.loc 1 105 0
	stw 0,0(28)
.LBE4403:
.LBE4405:
.LBE4407:
.LBE4409:
.LBE4411:
.LBE4413:
.LBE4434:
.LBE4439:
.LBE4444:
.LBE4449:
	.loc 1 2238 0
	lwz 0,44(1)
	lwz 28,24(1)
.LVL831:
	mtlr 0
	lwz 31,36(1)
	addi 1,1,40
	.cfi_remember_state
.LCFI108:
	.cfi_def_cfa_offset 0
	.cfi_restore 31
	.cfi_restore 30
	.cfi_restore 29
	.cfi_restore 28
	blr
.LVL832:
.L862:
.LCFI109:
	.cfi_restore_state
	mr 31,3
.L836:
.LBB4450:
.LBB4445:
.LBB4440:
.LBB4435:
.LBB4414:
.LBB4415:
.LBB4416:
.LBB4417:
.LBB4418:
.LBB4419:
	.loc 10 70 0
	lwz 3,4(28)
.LVL833:
	.loc 10 71 0
	cmpw 7,3,29
	beq- 7,.L853
.LVL834:
.L869:
.LBB4420:
	.loc 10 74 0
	lwz 30,0(3)
.LVL835:
.LBB4421:
.LBB4422:
.LBB4423:
	.loc 6 98 0
	bl _ZdlPv
.LVL836:
.LBE4423:
.LBE4422:
.LBE4421:
.LBE4420:
	.loc 10 71 0
	cmpw 7,30,29
	beq- 7,.L853
	.loc 10 74 0
	mr 3,30
	b .L869
.LVL837:
.L863:
.LBE4419:
.LBE4418:
.LBE4417:
.LBE4416:
.LBE4415:
.LBE4414:
.LBB4424:
.LBB4385:
.LBB4380:
.LBB4381:
.LBB4382:
	.loc 1 343 0
	lwz 9,0(28)
	mr 31,3
.LVL838:
	mr 3,28
	lwz 0,12(9)
	mtctr 0
	bctrl
	b .L836
.LVL839:
.L853:
.LBE4382:
.LBE4381:
.LBE4380:
.LBE4385:
.LBE4424:
.LBB4425:
.LBB4426:
.LBB4427:
.LBB4428:
.LBB4429:
.LBB4430:
	.loc 1 105 0
	lis 9,_ZTVN7sigslot15single_threadedE+8@ha
	mr 3,31
	la 0,_ZTVN7sigslot15single_threadedE+8@l(9)
	stw 0,0(28)
.LEHB72:
	bl _Unwind_Resume
.LEHE72:
.LBE4430:
.LBE4429:
.LBE4428:
.LBE4427:
.LBE4426:
.LBE4425:
.LBE4435:
.LBE4440:
.LBE4445:
.LBE4450:
	.cfi_endproc
.LFE1496:
	.section	.gcc_except_table
.LLSDA1496:
	.byte	0xff
	.byte	0xff
	.byte	0x1
	.uleb128 .LLSDACSE1496-.LLSDACSB1496
.LLSDACSB1496:
	.uleb128 .LEHB69-.LFB1496
	.uleb128 .LEHE69-.LEHB69
	.uleb128 .L862-.LFB1496
	.uleb128 0
	.uleb128 .LEHB70-.LFB1496
	.uleb128 .LEHE70-.LEHB70
	.uleb128 .L863-.LFB1496
	.uleb128 0
	.uleb128 .LEHB71-.LFB1496
	.uleb128 .LEHE71-.LEHB71
	.uleb128 .L862-.LFB1496
	.uleb128 0
	.uleb128 .LEHB72-.LFB1496
	.uleb128 .LEHE72-.LEHB72
	.uleb128 0
	.uleb128 0
.LLSDACSE1496:
	.section	.text._ZN7sigslot7signal2IP10GuiElementbNS_15single_threadedEED2Ev,"axG",@progbits,_ZN7sigslot7signal2IP10GuiElementbNS_15single_threadedEED5Ev,comdat
	.size	_ZN7sigslot7signal2IP10GuiElementbNS_15single_threadedEED2Ev, .-_ZN7sigslot7signal2IP10GuiElementbNS_15single_threadedEED2Ev
	.section	.text._ZN10GuiElementD0Ev,"axG",@progbits,_ZN10GuiElementD5Ev,comdat
	.align 2
	.weak	_ZN10GuiElementD0Ev
	.type	_ZN10GuiElementD0Ev, @function
_ZN10GuiElementD0Ev:
.LFB1383:
	.loc 2 89 0
	.cfi_startproc
	.cfi_personality 0,__gxx_personality_v0
	.cfi_lsda 0,.LLSDA1383
.LVL840:
	mflr 0
	stwu 1,-48(1)
.LCFI110:
	.cfi_def_cfa_offset 48
	.cfi_register 65, 0
.LBB4652:
.LBB4653:
.LBB4654:
	lis 9,_ZTV10GuiElement+8@ha
.LBE4654:
.LBE4653:
.LBE4652:
	stw 27,28(1)
.LBB4918:
.LBB4914:
.LBB4910:
.LBB4655:
.LBB4656:
.LBB4657:
	.loc 1 2305 0
	addi 27,3,16
	.cfi_offset 27, -20
.LBE4657:
.LBE4656:
.LBE4655:
.LBE4910:
.LBE4914:
.LBE4918:
	.loc 2 89 0
	stw 0,52(1)
.LBB4919:
.LBB4915:
.LBB4911:
	la 0,_ZTV10GuiElement+8@l(9)
	.cfi_offset 65, 4
.LBB4791:
.LBB4782:
.LBB4773:
.LBB4658:
.LBB4659:
.LBB4660:
	.loc 1 946 0
	lis 9,_ZTVN7sigslot13_signal_base3IP10GuiElementiiNS_15single_threadedEEE+8@ha
.LBE4660:
.LBE4659:
.LBE4658:
.LBE4773:
.LBE4782:
.LBE4791:
.LBE4911:
.LBE4915:
.LBE4919:
	.loc 2 89 0
	stw 28,32(1)
	stw 29,36(1)
	mr 28,3
	.cfi_offset 29, -12
	.cfi_offset 28, -16
.LVL841:
	stw 26,24(1)
	addi 29,28,20
	stw 30,40(1)
	stw 31,44(1)
.LBB4920:
.LBB4916:
.LBB4912:
	.loc 2 89 0
	stw 0,0(3)
.LVL842:
.LBB4792:
.LBB4783:
.LBB4774:
.LBB4765:
.LBB4757:
.LBB4749:
	.loc 1 946 0
	la 0,_ZTVN7sigslot13_signal_base3IP10GuiElementiiNS_15single_threadedEEE+8@l(9)
.LBB4661:
.LBB4662:
.LBB4663:
.LBB4664:
	.loc 1 338 0
	lis 9,_ZN7sigslot15single_threaded4lockEv@ha
.LBE4664:
.LBE4663:
.LBE4662:
.LBE4661:
	.loc 1 946 0
	stw 0,16(3)
.LVL843:
.LBB4697:
.LBB4693:
.LBB4666:
.LBB4665:
	.loc 1 338 0
	la 9,_ZN7sigslot15single_threaded4lockEv@l(9)
	mr 3,27
.LVL844:
	mtctr 9
.LEHB73:
	.cfi_offset 31, -4
	.cfi_offset 30, -8
	.cfi_offset 26, -24
	bctrl
.LEHE73:
.LBE4665:
.LBE4666:
.LBE4693:
	.loc 3 406 0
	mr 29,28
.LVL845:
	lwzu 31,20(29)
.LVL846:
.LBB4694:
	.loc 1 954 0
	cmpw 7,31,29
	beq- 7,.L872
.LVL847:
.L951:
	.loc 1 956 0
	lwz 3,8(31)
	lwz 9,0(3)
	lwz 0,8(9)
	mtctr 0
.LEHB74:
	bctrl
	stw 27,8(1)
	mr 30,3
.LVL848:
.LBB4667:
.LBB4668:
.LBB4669:
.LBB4670:
	.loc 1 338 0
	lwz 9,0(3)
	lwz 0,8(9)
	mtctr 0
	bctrl
.LVL849:
.LBE4670:
.LBE4669:
.LBB4671:
.LBB4672:
	.loc 9 528 0
	addi 3,30,4
	addi 4,1,8
	bl _ZNSt8_Rb_treeIPN7sigslot12_signal_baseINS0_15single_threadedEEES4_St9_IdentityIS4_ESt4lessIS4_ESaIS4_EE5eraseERKS4_
.LVL850:
.LBE4672:
.LBE4671:
.LBB4673:
.LBB4674:
.LBB4675:
	.loc 1 343 0
	lwz 9,0(30)
	mr 3,30
	lwz 0,12(9)
	mtctr 0
	bctrl
.LVL851:
.LBE4675:
.LBE4674:
.LBE4673:
.LBE4668:
.LBE4667:
	.loc 1 957 0
	lwz 3,8(31)
	cmpwi 7,3,0
	beq- 7,.L874
	lwz 9,0(3)
	lwz 0,4(9)
	mtctr 0
	bctrl
.LEHE74:
.L874:
.LVL852:
.LBB4676:
.LBB4677:
	.loc 4 234 0
	lwz 31,0(31)
.LVL853:
.LBE4677:
.LBE4676:
	.loc 1 954 0
	cmpw 7,29,31
	bne+ 7,.L951
.LBE4694:
	.loc 3 406 0
	lwz 31,20(28)
.LVL854:
.LBB4695:
.LBB4678:
.LBB4679:
	.loc 4 1162 0
	cmpw 7,29,31
	bne+ 7,.L954
	b .L872
.LVL855:
.L940:
	.loc 4 1163 0
	mr 31,30
.LVL856:
.L954:
.LBB4680:
.LBB4681:
	.loc 10 112 0
	lwz 30,0(31)
.LVL857:
.LBB4682:
.LBB4683:
	.loc 4 1532 0
	mr 3,31
	bl _ZNSt8__detail15_List_node_base9_M_unhookEv
.LVL858:
.LBB4684:
.LBB4685:
.LBB4686:
	.loc 6 98 0
	mr 3,31
	bl _ZdlPv
.LVL859:
.LBE4686:
.LBE4685:
.LBE4684:
.LBE4683:
.LBE4682:
.LBE4681:
.LBE4680:
	.loc 4 1162 0
	cmpw 7,29,30
	bne+ 7,.L940
.LVL860:
.L872:
.LBE4679:
.LBE4678:
.LBB4687:
.LBB4688:
.LBB4689:
	.loc 1 343 0
	lwz 9,16(28)
	mr 3,27
	lwz 0,12(9)
	mtctr 0
.LEHB75:
	bctrl
.LEHE75:
.LBE4689:
.LBE4688:
.LBE4687:
.LBE4695:
.LBE4697:
.LBB4698:
.LBB4699:
.LBB4700:
.LBB4701:
.LBB4702:
.LBB4703:
	.loc 10 70 0
	lwz 3,20(28)
.LVL861:
	.loc 10 71 0
	cmpw 7,3,29
	bne+ 7,.L956
	b .L890
.LVL862:
.L941:
	.loc 10 74 0
	mr 3,31
.LVL863:
.L956:
.LBB4704:
	lwz 31,0(3)
.LVL864:
.LBB4705:
.LBB4706:
.LBB4707:
	.loc 6 98 0
	bl _ZdlPv
.LVL865:
.LBE4707:
.LBE4706:
.LBE4705:
.LBE4704:
	.loc 10 71 0
	cmpw 7,31,29
	bne+ 7,.L941
.LVL866:
.L890:
.LBE4703:
.LBE4702:
.LBE4701:
.LBE4700:
.LBE4699:
.LBE4698:
.LBE4749:
.LBE4757:
.LBE4765:
.LBE4774:
.LBE4783:
.LBE4792:
.LBB4793:
.LBB4794:
.LBB4795:
.LBB4796:
.LBB4797:
.LBB4798:
	.loc 1 826 0
	lis 9,_ZTVN7sigslot13_signal_base2IP10GuiElementbNS_15single_threadedEEE+8@ha
.LBE4798:
.LBE4797:
.LBE4796:
.LBE4795:
.LBE4794:
.LBE4793:
.LBB4898:
.LBB4784:
.LBB4775:
.LBB4766:
.LBB4758:
.LBB4750:
.LBB4708:
.LBB4709:
.LBB4710:
.LBB4711:
.LBB4712:
.LBB4713:
	.loc 1 105 0
	lis 26,_ZTVN7sigslot15single_threadedE+8@ha
.LBE4713:
.LBE4712:
.LBE4711:
.LBE4710:
.LBE4709:
.LBE4708:
.LBE4750:
.LBE4758:
.LBE4766:
.LBE4775:
.LBE4784:
.LBE4898:
.LBB4899:
.LBB4893:
.LBB4888:
.LBB4883:
.LBB4878:
.LBB4873:
	.loc 1 826 0
	la 0,_ZTVN7sigslot13_signal_base2IP10GuiElementbNS_15single_threadedEEE+8@l(9)
.LBB4799:
.LBB4800:
.LBB4801:
.LBB4802:
	.loc 1 338 0
	lis 9,_ZN7sigslot15single_threaded4lockEv@ha
.LBE4802:
.LBE4801:
.LBE4800:
.LBE4799:
.LBE4873:
.LBE4878:
.LBE4883:
.LBE4888:
.LBE4893:
.LBE4899:
.LBB4900:
.LBB4785:
.LBB4776:
.LBB4767:
.LBB4759:
.LBB4751:
.LBB4724:
.LBB4722:
.LBB4720:
.LBB4718:
.LBB4716:
.LBB4714:
	.loc 1 105 0
	la 26,_ZTVN7sigslot15single_threadedE+8@l(26)
.LBE4714:
.LBE4716:
.LBE4718:
.LBE4720:
.LBE4722:
.LBE4724:
.LBE4751:
.LBE4759:
.LBE4767:
.LBE4776:
.LBE4785:
.LBE4900:
.LBB4901:
.LBB4894:
.LBB4889:
	.loc 1 2238 0
	addi 27,28,4
.LVL867:
.LBB4884:
.LBB4879:
.LBB4874:
.LBB4838:
.LBB4833:
.LBB4805:
.LBB4803:
	.loc 1 338 0
	la 9,_ZN7sigslot15single_threaded4lockEv@l(9)
.LBE4803:
.LBE4805:
.LBE4833:
.LBE4838:
.LBE4874:
.LBE4879:
.LBE4884:
.LBE4889:
.LBE4894:
.LBE4901:
.LBB4902:
.LBB4786:
.LBB4777:
.LBB4768:
.LBB4760:
.LBB4752:
.LBB4725:
.LBB4723:
.LBB4721:
.LBB4719:
.LBB4717:
.LBB4715:
	.loc 1 105 0
	stw 26,16(28)
.LVL868:
.LBE4715:
.LBE4717:
.LBE4719:
.LBE4721:
.LBE4723:
.LBE4725:
.LBE4752:
.LBE4760:
.LBE4768:
.LBE4777:
.LBE4786:
.LBE4902:
.LBB4903:
.LBB4895:
.LBB4890:
.LBB4885:
.LBB4880:
.LBB4875:
	.loc 1 826 0
	stw 0,4(28)
.LVL869:
.LBB4839:
.LBB4834:
.LBB4806:
.LBB4804:
	.loc 1 338 0
	mr 3,27
	mtctr 9
	addi 29,28,8
.LVL870:
.LEHB76:
	bctrl
.LEHE76:
.LBE4804:
.LBE4806:
.LBE4834:
	.loc 3 406 0
	mr 29,28
	lwzu 31,8(29)
.LVL871:
.LBB4835:
	.loc 1 834 0
	cmpw 7,31,29
	beq- 7,.L905
.LVL872:
.L950:
	.loc 1 836 0
	lwz 3,8(31)
	lwz 9,0(3)
	lwz 0,8(9)
	mtctr 0
.LEHB77:
	bctrl
	stw 27,8(1)
	mr 30,3
.LVL873:
.LBB4807:
.LBB4808:
.LBB4809:
.LBB4810:
	.loc 1 338 0
	lwz 9,0(3)
	lwz 0,8(9)
	mtctr 0
	bctrl
.LVL874:
.LBE4810:
.LBE4809:
.LBB4811:
.LBB4812:
	.loc 9 528 0
	addi 3,30,4
	addi 4,1,8
.LVL875:
	bl _ZNSt8_Rb_treeIPN7sigslot12_signal_baseINS0_15single_threadedEEES4_St9_IdentityIS4_ESt4lessIS4_ESaIS4_EE5eraseERKS4_
.LVL876:
.LBE4812:
.LBE4811:
.LBB4813:
.LBB4814:
.LBB4815:
	.loc 1 343 0
	lwz 9,0(30)
	mr 3,30
	lwz 0,12(9)
	mtctr 0
	bctrl
.LVL877:
.LBE4815:
.LBE4814:
.LBE4813:
.LBE4808:
.LBE4807:
	.loc 1 837 0
	lwz 3,8(31)
	cmpwi 7,3,0
	beq- 7,.L907
	lwz 9,0(3)
	lwz 0,4(9)
	mtctr 0
	bctrl
.LEHE77:
.L907:
.LVL878:
.LBB4816:
.LBB4817:
	.loc 4 234 0
	lwz 31,0(31)
.LVL879:
.LBE4817:
.LBE4816:
	.loc 1 834 0
	cmpw 7,29,31
	bne+ 7,.L950
.LBE4835:
	.loc 3 406 0
	lwz 31,8(28)
.LVL880:
.LBB4836:
.LBB4818:
.LBB4819:
	.loc 4 1162 0
	cmpw 7,29,31
	bne+ 7,.L959
	b .L905
.LVL881:
.L943:
	.loc 4 1163 0
	mr 31,30
.LVL882:
.L959:
.LBB4820:
.LBB4821:
	.loc 10 112 0
	lwz 30,0(31)
.LVL883:
.LBB4822:
.LBB4823:
	.loc 4 1532 0
	mr 3,31
	bl _ZNSt8__detail15_List_node_base9_M_unhookEv
.LVL884:
.LBB4824:
.LBB4825:
.LBB4826:
	.loc 6 98 0
	mr 3,31
	bl _ZdlPv
.LVL885:
.LBE4826:
.LBE4825:
.LBE4824:
.LBE4823:
.LBE4822:
.LBE4821:
.LBE4820:
	.loc 4 1162 0
	cmpw 7,29,30
	bne+ 7,.L943
.LVL886:
.L905:
.LBE4819:
.LBE4818:
.LBB4827:
.LBB4828:
.LBB4829:
	.loc 1 343 0
	lwz 9,4(28)
	mr 3,27
	lwz 0,12(9)
	mtctr 0
.LEHB78:
	bctrl
.LEHE78:
.LBE4829:
.LBE4828:
.LBE4827:
.LBE4836:
.LBE4839:
.LBB4840:
.LBB4841:
.LBB4842:
.LBB4843:
.LBB4844:
.LBB4845:
	.loc 10 70 0
	lwz 3,8(28)
.LVL887:
	.loc 10 71 0
	cmpw 7,3,29
	bne+ 7,.L961
	b .L923
.LVL888:
.L944:
	.loc 10 74 0
	mr 3,31
.LVL889:
.L961:
.LBB4846:
	lwz 31,0(3)
.LVL890:
.LBB4847:
.LBB4848:
.LBB4849:
	.loc 6 98 0
	bl _ZdlPv
.LVL891:
.LBE4849:
.LBE4848:
.LBE4847:
.LBE4846:
	.loc 10 71 0
	cmpw 7,31,29
	bne+ 7,.L944
.LVL892:
.L923:
.LBE4845:
.LBE4844:
.LBE4843:
.LBE4842:
.LBE4841:
.LBE4840:
.LBB4850:
.LBB4851:
.LBB4852:
.LBB4853:
.LBB4854:
.LBB4855:
	.loc 1 105 0
	stw 26,4(28)
.LBE4855:
.LBE4854:
.LBE4853:
.LBE4852:
.LBE4851:
.LBE4850:
.LBE4875:
.LBE4880:
.LBE4885:
.LBE4890:
.LBE4895:
.LBE4903:
.LBE4912:
.LBE4916:
.LBE4920:
	.loc 2 89 0
	mr 3,28
	bl _ZdlPv
	lwz 0,52(1)
	lwz 26,24(1)
	mtlr 0
	lwz 27,28(1)
.LVL893:
	lwz 28,32(1)
.LVL894:
	lwz 29,36(1)
.LVL895:
	lwz 30,40(1)
	lwz 31,44(1)
	addi 1,1,48
	.cfi_remember_state
.LCFI111:
	.cfi_def_cfa_offset 0
	.cfi_restore 31
	.cfi_restore 30
	.cfi_restore 29
	.cfi_restore 28
	.cfi_restore 27
	.cfi_restore 26
	blr
.LVL896:
.L946:
.LCFI112:
	.cfi_restore_state
	mr 31,3
.L882:
.LBB4921:
.LBB4917:
.LBB4913:
.LBB4904:
.LBB4787:
.LBB4778:
.LBB4769:
.LBB4761:
.LBB4753:
.LBB4726:
.LBB4727:
.LBB4728:
.LBB4729:
.LBB4730:
.LBB4731:
	.loc 10 70 0
	lwz 3,20(28)
.LVL897:
	.loc 10 71 0
	cmpw 7,3,29
	beq- 7,.L899
.LVL898:
.L958:
.LBB4732:
	.loc 10 74 0
	lwz 30,0(3)
.LVL899:
.LBB4733:
.LBB4734:
.LBB4735:
	.loc 6 98 0
	bl _ZdlPv
.LVL900:
.LBE4735:
.LBE4734:
.LBE4733:
.LBE4732:
	.loc 10 71 0
	cmpw 7,30,29
	beq- 7,.L899
	.loc 10 74 0
	mr 3,30
	b .L958
.LVL901:
.L949:
.LBE4731:
.LBE4730:
.LBE4729:
.LBE4728:
.LBE4727:
.LBE4726:
.LBE4753:
.LBE4761:
.LBE4769:
.LBE4778:
.LBE4787:
.LBE4904:
.LBB4905:
.LBB4896:
.LBB4891:
.LBB4886:
.LBB4881:
.LBB4876:
.LBB4856:
.LBB4837:
.LBB4830:
.LBB4831:
.LBB4832:
	.loc 1 343 0
	lwz 9,4(28)
	mr 31,3
.LVL902:
	mr 3,27
	lwz 0,12(9)
	mtctr 0
	bctrl
.LVL903:
.L915:
.LBE4832:
.LBE4831:
.LBE4830:
.LBE4837:
.LBE4856:
.LBB4857:
.LBB4858:
.LBB4859:
.LBB4860:
.LBB4861:
.LBB4862:
	.loc 10 70 0
	lwz 3,8(28)
.LVL904:
	.loc 10 71 0
	cmpw 7,3,29
	beq- 7,.L932
.LVL905:
.L962:
.LBB4863:
	.loc 10 74 0
	lwz 30,0(3)
.LVL906:
.LBB4864:
.LBB4865:
.LBB4866:
	.loc 6 98 0
	bl _ZdlPv
.LVL907:
.LBE4866:
.LBE4865:
.LBE4864:
.LBE4863:
	.loc 10 71 0
	cmpw 7,30,29
	beq- 7,.L932
	.loc 10 74 0
	mr 3,30
	b .L962
.LVL908:
.L899:
.LBE4862:
.LBE4861:
.LBE4860:
.LBE4859:
.LBE4858:
.LBE4857:
.LBE4876:
.LBE4881:
.LBE4886:
.LBE4891:
.LBE4896:
.LBE4905:
.LBB4906:
.LBB4788:
.LBB4779:
.LBB4770:
.LBB4762:
.LBB4754:
.LBB4736:
.LBB4737:
.LBB4738:
.LBB4739:
.LBB4740:
.LBB4741:
	.loc 1 105 0
	lis 9,_ZTVN7sigslot15single_threadedE+8@ha
.LBE4741:
.LBE4740:
.LBE4739:
.LBE4738:
.LBE4737:
.LBE4736:
.LBE4754:
.LBE4762:
.LBE4770:
.LBE4779:
.LBE4788:
.LBE4906:
	.loc 2 89 0
	addi 3,28,4
.LBB4907:
.LBB4789:
.LBB4780:
.LBB4771:
.LBB4763:
.LBB4755:
.LBB4747:
.LBB4746:
.LBB4745:
.LBB4744:
.LBB4743:
.LBB4742:
	.loc 1 105 0
	la 0,_ZTVN7sigslot15single_threadedE+8@l(9)
	stw 0,16(28)
.LBE4742:
.LBE4743:
.LBE4744:
.LBE4745:
.LBE4746:
.LBE4747:
.LBE4755:
.LBE4763:
.LBE4771:
.LBE4780:
.LBE4789:
.LBE4907:
	.loc 2 89 0
	bl _ZN7sigslot7signal2IP10GuiElementbNS_15single_threadedEED1Ev
	mr 3,31
.LEHB79:
	bl _Unwind_Resume
.LVL909:
.L932:
.LBB4908:
.LBB4897:
.LBB4892:
.LBB4887:
.LBB4882:
.LBB4877:
.LBB4867:
.LBB4868:
.LBB4869:
.LBB4870:
.LBB4871:
.LBB4872:
	.loc 1 105 0
	stw 26,4(28)
	mr 3,31
	bl _Unwind_Resume
.LEHE79:
.LVL910:
.L948:
	mr 31,3
	b .L915
.LVL911:
.L947:
.LBE4872:
.LBE4871:
.LBE4870:
.LBE4869:
.LBE4868:
.LBE4867:
.LBE4877:
.LBE4882:
.LBE4887:
.LBE4892:
.LBE4897:
.LBE4908:
.LBB4909:
.LBB4790:
.LBB4781:
.LBB4772:
.LBB4764:
.LBB4756:
.LBB4748:
.LBB4696:
.LBB4690:
.LBB4691:
.LBB4692:
	.loc 1 343 0
	lwz 9,16(28)
	mr 31,3
.LVL912:
	mr 3,27
	lwz 0,12(9)
	mtctr 0
	bctrl
	b .L882
.LBE4692:
.LBE4691:
.LBE4690:
.LBE4696:
.LBE4748:
.LBE4756:
.LBE4764:
.LBE4772:
.LBE4781:
.LBE4790:
.LBE4909:
.LBE4913:
.LBE4917:
.LBE4921:
	.cfi_endproc
.LFE1383:
	.section	.gcc_except_table
.LLSDA1383:
	.byte	0xff
	.byte	0xff
	.byte	0x1
	.uleb128 .LLSDACSE1383-.LLSDACSB1383
.LLSDACSB1383:
	.uleb128 .LEHB73-.LFB1383
	.uleb128 .LEHE73-.LEHB73
	.uleb128 .L946-.LFB1383
	.uleb128 0
	.uleb128 .LEHB74-.LFB1383
	.uleb128 .LEHE74-.LEHB74
	.uleb128 .L947-.LFB1383
	.uleb128 0
	.uleb128 .LEHB75-.LFB1383
	.uleb128 .LEHE75-.LEHB75
	.uleb128 .L946-.LFB1383
	.uleb128 0
	.uleb128 .LEHB76-.LFB1383
	.uleb128 .LEHE76-.LEHB76
	.uleb128 .L948-.LFB1383
	.uleb128 0
	.uleb128 .LEHB77-.LFB1383
	.uleb128 .LEHE77-.LEHB77
	.uleb128 .L949-.LFB1383
	.uleb128 0
	.uleb128 .LEHB78-.LFB1383
	.uleb128 .LEHE78-.LEHB78
	.uleb128 .L948-.LFB1383
	.uleb128 0
	.uleb128 .LEHB79-.LFB1383
	.uleb128 .LEHE79-.LEHB79
	.uleb128 0
	.uleb128 0
.LLSDACSE1383:
	.section	.text._ZN10GuiElementD0Ev,"axG",@progbits,_ZN10GuiElementD5Ev,comdat
	.size	_ZN10GuiElementD0Ev, .-_ZN10GuiElementD0Ev
	.section	.text._ZN10GuiElementD2Ev,"axG",@progbits,_ZN10GuiElementD5Ev,comdat
	.align 2
	.weak	_ZN10GuiElementD2Ev
	.type	_ZN10GuiElementD2Ev, @function
_ZN10GuiElementD2Ev:
.LFB1381:
	.loc 2 89 0
	.cfi_startproc
	.cfi_personality 0,__gxx_personality_v0
	.cfi_lsda 0,.LLSDA1381
.LVL913:
	mflr 0
	stwu 1,-48(1)
.LCFI113:
	.cfi_def_cfa_offset 48
	.cfi_register 65, 0
.LBB5124:
	lis 9,_ZTV10GuiElement+8@ha
.LBE5124:
	stw 27,28(1)
.LBB5386:
.LBB5125:
.LBB5126:
.LBB5127:
	.loc 1 2305 0
	addi 27,3,16
	.cfi_offset 27, -20
.LBE5127:
.LBE5126:
.LBE5125:
.LBE5386:
	.loc 2 89 0
	stw 0,52(1)
.LBB5387:
	la 0,_ZTV10GuiElement+8@l(9)
	.cfi_offset 65, 4
.LBB5261:
.LBB5252:
.LBB5243:
.LBB5128:
.LBB5129:
.LBB5130:
	.loc 1 946 0
	lis 9,_ZTVN7sigslot13_signal_base3IP10GuiElementiiNS_15single_threadedEEE+8@ha
.LBE5130:
.LBE5129:
.LBE5128:
.LBE5243:
.LBE5252:
.LBE5261:
.LBE5387:
	.loc 2 89 0
	stw 28,32(1)
	stw 29,36(1)
	mr 28,3
	.cfi_offset 29, -12
	.cfi_offset 28, -16
	stw 26,24(1)
	addi 29,28,20
	stw 30,40(1)
	stw 31,44(1)
.LBB5388:
	.loc 2 89 0
	stw 0,0(3)
.LVL914:
.LBB5262:
.LBB5253:
.LBB5244:
.LBB5235:
.LBB5227:
.LBB5219:
	.loc 1 946 0
	la 0,_ZTVN7sigslot13_signal_base3IP10GuiElementiiNS_15single_threadedEEE+8@l(9)
.LBB5131:
.LBB5132:
.LBB5133:
.LBB5134:
	.loc 1 338 0
	lis 9,_ZN7sigslot15single_threaded4lockEv@ha
.LBE5134:
.LBE5133:
.LBE5132:
.LBE5131:
	.loc 1 946 0
	stw 0,16(3)
.LVL915:
.LBB5167:
.LBB5163:
.LBB5136:
.LBB5135:
	.loc 1 338 0
	la 9,_ZN7sigslot15single_threaded4lockEv@l(9)
	mr 3,27
.LVL916:
	mtctr 9
.LEHB80:
	.cfi_offset 31, -4
	.cfi_offset 30, -8
	.cfi_offset 26, -24
	bctrl
.LEHE80:
.LBE5135:
.LBE5136:
.LBE5163:
	.loc 3 406 0
	mr 29,28
	lwzu 31,20(29)
.LVL917:
.LBB5164:
	.loc 1 954 0
	cmpw 7,31,29
	beq- 7,.L965
.LVL918:
.L1043:
	.loc 1 956 0
	lwz 3,8(31)
	lwz 9,0(3)
	lwz 0,8(9)
	mtctr 0
.LEHB81:
	bctrl
	stw 27,8(1)
	mr 30,3
.LVL919:
.LBB5137:
.LBB5138:
.LBB5139:
.LBB5140:
	.loc 1 338 0
	lwz 9,0(3)
	lwz 0,8(9)
	mtctr 0
	bctrl
.LVL920:
.LBE5140:
.LBE5139:
.LBB5141:
.LBB5142:
	.loc 9 528 0
	addi 3,30,4
	addi 4,1,8
	bl _ZNSt8_Rb_treeIPN7sigslot12_signal_baseINS0_15single_threadedEEES4_St9_IdentityIS4_ESt4lessIS4_ESaIS4_EE5eraseERKS4_
.LVL921:
.LBE5142:
.LBE5141:
.LBB5143:
.LBB5144:
.LBB5145:
	.loc 1 343 0
	lwz 9,0(30)
	mr 3,30
	lwz 0,12(9)
	mtctr 0
	bctrl
.LVL922:
.LBE5145:
.LBE5144:
.LBE5143:
.LBE5138:
.LBE5137:
	.loc 1 957 0
	lwz 3,8(31)
	cmpwi 7,3,0
	beq- 7,.L967
	lwz 9,0(3)
	lwz 0,4(9)
	mtctr 0
	bctrl
.LEHE81:
.L967:
.LVL923:
.LBB5146:
.LBB5147:
	.loc 4 234 0
	lwz 31,0(31)
.LVL924:
.LBE5147:
.LBE5146:
	.loc 1 954 0
	cmpw 7,29,31
	bne+ 7,.L1043
.LBE5164:
	.loc 3 406 0
	lwz 31,20(28)
.LVL925:
.LBB5165:
.LBB5148:
.LBB5149:
	.loc 4 1162 0
	cmpw 7,29,31
	bne+ 7,.L1046
	b .L965
.LVL926:
.L1032:
	.loc 4 1163 0
	mr 31,30
.LVL927:
.L1046:
.LBB5150:
.LBB5151:
	.loc 10 112 0
	lwz 30,0(31)
.LVL928:
.LBB5152:
.LBB5153:
	.loc 4 1532 0
	mr 3,31
	bl _ZNSt8__detail15_List_node_base9_M_unhookEv
.LVL929:
.LBB5154:
.LBB5155:
.LBB5156:
	.loc 6 98 0
	mr 3,31
	bl _ZdlPv
.LVL930:
.LBE5156:
.LBE5155:
.LBE5154:
.LBE5153:
.LBE5152:
.LBE5151:
.LBE5150:
	.loc 4 1162 0
	cmpw 7,29,30
	bne+ 7,.L1032
.LVL931:
.L965:
.LBE5149:
.LBE5148:
.LBB5157:
.LBB5158:
.LBB5159:
	.loc 1 343 0
	lwz 9,16(28)
	mr 3,27
	lwz 0,12(9)
	mtctr 0
.LEHB82:
	bctrl
.LEHE82:
.LBE5159:
.LBE5158:
.LBE5157:
.LBE5165:
.LBE5167:
.LBB5168:
.LBB5169:
.LBB5170:
.LBB5171:
.LBB5172:
.LBB5173:
	.loc 10 70 0
	lwz 3,20(28)
.LVL932:
	.loc 10 71 0
	cmpw 7,3,29
	bne+ 7,.L1048
	b .L983
.LVL933:
.L1033:
	.loc 10 74 0
	mr 3,31
.LVL934:
.L1048:
.LBB5174:
	lwz 31,0(3)
.LVL935:
.LBB5175:
.LBB5176:
.LBB5177:
	.loc 6 98 0
	bl _ZdlPv
.LVL936:
.LBE5177:
.LBE5176:
.LBE5175:
.LBE5174:
	.loc 10 71 0
	cmpw 7,31,29
	bne+ 7,.L1033
.LVL937:
.L983:
.LBE5173:
.LBE5172:
.LBE5171:
.LBE5170:
.LBE5169:
.LBE5168:
.LBE5219:
.LBE5227:
.LBE5235:
.LBE5244:
.LBE5253:
.LBE5262:
.LBB5263:
.LBB5264:
.LBB5265:
.LBB5266:
.LBB5267:
.LBB5268:
	.loc 1 826 0
	lis 9,_ZTVN7sigslot13_signal_base2IP10GuiElementbNS_15single_threadedEEE+8@ha
.LBE5268:
.LBE5267:
.LBE5266:
.LBE5265:
.LBE5264:
.LBE5263:
.LBB5373:
.LBB5254:
.LBB5245:
.LBB5236:
.LBB5228:
.LBB5220:
.LBB5178:
.LBB5179:
.LBB5180:
.LBB5181:
.LBB5182:
.LBB5183:
	.loc 1 105 0
	lis 26,_ZTVN7sigslot15single_threadedE+8@ha
.LBE5183:
.LBE5182:
.LBE5181:
.LBE5180:
.LBE5179:
.LBE5178:
.LBE5220:
.LBE5228:
.LBE5236:
.LBE5245:
.LBE5254:
.LBE5373:
.LBB5374:
.LBB5367:
.LBB5361:
.LBB5355:
.LBB5349:
.LBB5343:
	.loc 1 826 0
	la 0,_ZTVN7sigslot13_signal_base2IP10GuiElementbNS_15single_threadedEEE+8@l(9)
.LBB5269:
.LBB5270:
.LBB5271:
.LBB5272:
	.loc 1 338 0
	lis 9,_ZN7sigslot15single_threaded4lockEv@ha
.LBE5272:
.LBE5271:
.LBE5270:
.LBE5269:
.LBE5343:
.LBE5349:
.LBE5355:
.LBE5361:
.LBE5367:
.LBE5374:
.LBB5375:
.LBB5255:
.LBB5246:
.LBB5237:
.LBB5229:
.LBB5221:
.LBB5194:
.LBB5192:
.LBB5190:
.LBB5188:
.LBB5186:
.LBB5184:
	.loc 1 105 0
	la 26,_ZTVN7sigslot15single_threadedE+8@l(26)
.LBE5184:
.LBE5186:
.LBE5188:
.LBE5190:
.LBE5192:
.LBE5194:
.LBE5221:
.LBE5229:
.LBE5237:
.LBE5246:
.LBE5255:
.LBE5375:
.LBB5376:
.LBB5368:
.LBB5362:
	.loc 1 2238 0
	addi 27,28,4
.LVL938:
.LBB5356:
.LBB5350:
.LBB5344:
.LBB5308:
.LBB5303:
.LBB5275:
.LBB5273:
	.loc 1 338 0
	la 9,_ZN7sigslot15single_threaded4lockEv@l(9)
.LBE5273:
.LBE5275:
.LBE5303:
.LBE5308:
.LBE5344:
.LBE5350:
.LBE5356:
.LBE5362:
.LBE5368:
.LBE5376:
.LBB5377:
.LBB5256:
.LBB5247:
.LBB5238:
.LBB5230:
.LBB5222:
.LBB5195:
.LBB5193:
.LBB5191:
.LBB5189:
.LBB5187:
.LBB5185:
	.loc 1 105 0
	stw 26,16(28)
.LVL939:
.LBE5185:
.LBE5187:
.LBE5189:
.LBE5191:
.LBE5193:
.LBE5195:
.LBE5222:
.LBE5230:
.LBE5238:
.LBE5247:
.LBE5256:
.LBE5377:
.LBB5378:
.LBB5369:
.LBB5363:
.LBB5357:
.LBB5351:
.LBB5345:
	.loc 1 826 0
	stw 0,4(28)
.LVL940:
.LBB5309:
.LBB5304:
.LBB5276:
.LBB5274:
	.loc 1 338 0
	mr 3,27
	mtctr 9
	addi 29,28,8
.LVL941:
.LEHB83:
	bctrl
.LEHE83:
.LBE5274:
.LBE5276:
.LBE5304:
	.loc 3 406 0
	mr 29,28
	lwzu 31,8(29)
.LVL942:
.LBB5305:
	.loc 1 834 0
	cmpw 7,31,29
	beq- 7,.L998
.LVL943:
.L1042:
	.loc 1 836 0
	lwz 3,8(31)
	lwz 9,0(3)
	lwz 0,8(9)
	mtctr 0
.LEHB84:
	bctrl
	stw 27,8(1)
	mr 30,3
.LVL944:
.LBB5277:
.LBB5278:
.LBB5279:
.LBB5280:
	.loc 1 338 0
	lwz 9,0(3)
	lwz 0,8(9)
	mtctr 0
	bctrl
.LVL945:
.LBE5280:
.LBE5279:
.LBB5281:
.LBB5282:
	.loc 9 528 0
	addi 3,30,4
	addi 4,1,8
.LVL946:
	bl _ZNSt8_Rb_treeIPN7sigslot12_signal_baseINS0_15single_threadedEEES4_St9_IdentityIS4_ESt4lessIS4_ESaIS4_EE5eraseERKS4_
.LVL947:
.LBE5282:
.LBE5281:
.LBB5283:
.LBB5284:
.LBB5285:
	.loc 1 343 0
	lwz 9,0(30)
	mr 3,30
	lwz 0,12(9)
	mtctr 0
	bctrl
.LVL948:
.LBE5285:
.LBE5284:
.LBE5283:
.LBE5278:
.LBE5277:
	.loc 1 837 0
	lwz 3,8(31)
	cmpwi 7,3,0
	beq- 7,.L1000
	lwz 9,0(3)
	lwz 0,4(9)
	mtctr 0
	bctrl
.LEHE84:
.L1000:
.LVL949:
.LBB5286:
.LBB5287:
	.loc 4 234 0
	lwz 31,0(31)
.LVL950:
.LBE5287:
.LBE5286:
	.loc 1 834 0
	cmpw 7,29,31
	bne+ 7,.L1042
.LBE5305:
	.loc 3 406 0
	lwz 31,8(28)
.LVL951:
.LBB5306:
.LBB5288:
.LBB5289:
	.loc 4 1162 0
	cmpw 7,29,31
	bne+ 7,.L1051
	b .L998
.LVL952:
.L1035:
	.loc 4 1163 0
	mr 31,30
.LVL953:
.L1051:
.LBB5290:
.LBB5291:
	.loc 10 112 0
	lwz 30,0(31)
.LVL954:
.LBB5292:
.LBB5293:
	.loc 4 1532 0
	mr 3,31
	bl _ZNSt8__detail15_List_node_base9_M_unhookEv
.LVL955:
.LBB5294:
.LBB5295:
.LBB5296:
	.loc 6 98 0
	mr 3,31
	bl _ZdlPv
.LVL956:
.LBE5296:
.LBE5295:
.LBE5294:
.LBE5293:
.LBE5292:
.LBE5291:
.LBE5290:
	.loc 4 1162 0
	cmpw 7,29,30
	bne+ 7,.L1035
.LVL957:
.L998:
.LBE5289:
.LBE5288:
.LBB5297:
.LBB5298:
.LBB5299:
	.loc 1 343 0
	lwz 9,4(28)
	mr 3,27
	lwz 0,12(9)
	mtctr 0
.LEHB85:
	bctrl
.LEHE85:
.LBE5299:
.LBE5298:
.LBE5297:
.LBE5306:
.LBE5309:
.LBB5310:
.LBB5311:
.LBB5312:
.LBB5313:
.LBB5314:
.LBB5315:
	.loc 10 70 0
	lwz 3,8(28)
.LVL958:
	.loc 10 71 0
	cmpw 7,3,29
	bne+ 7,.L1053
	b .L1016
.LVL959:
.L1036:
	.loc 10 74 0
	mr 3,31
.LVL960:
.L1053:
.LBB5316:
	lwz 31,0(3)
.LVL961:
.LBB5317:
.LBB5318:
.LBB5319:
	.loc 6 98 0
	bl _ZdlPv
.LVL962:
.LBE5319:
.LBE5318:
.LBE5317:
.LBE5316:
	.loc 10 71 0
	cmpw 7,31,29
	bne+ 7,.L1036
.LVL963:
.L1016:
.LBE5315:
.LBE5314:
.LBE5313:
.LBE5312:
.LBE5311:
.LBE5310:
.LBE5345:
.LBE5351:
.LBE5357:
.LBE5363:
.LBE5369:
.LBE5378:
.LBE5388:
	.loc 2 89 0
	lwz 0,52(1)
.LBB5389:
.LBB5379:
.LBB5370:
.LBB5364:
.LBB5358:
.LBB5352:
.LBB5346:
.LBB5320:
.LBB5321:
.LBB5322:
.LBB5323:
.LBB5324:
.LBB5325:
	.loc 1 105 0
	stw 26,4(28)
.LBE5325:
.LBE5324:
.LBE5323:
.LBE5322:
.LBE5321:
.LBE5320:
.LBE5346:
.LBE5352:
.LBE5358:
.LBE5364:
.LBE5370:
.LBE5379:
.LBE5389:
	.loc 2 89 0
	mtlr 0
	lwz 26,24(1)
	lwz 27,28(1)
.LVL964:
	lwz 28,32(1)
.LVL965:
	lwz 29,36(1)
.LVL966:
	lwz 30,40(1)
	lwz 31,44(1)
	addi 1,1,48
	.cfi_remember_state
.LCFI114:
	.cfi_def_cfa_offset 0
	.cfi_restore 31
	.cfi_restore 30
	.cfi_restore 29
	.cfi_restore 28
	.cfi_restore 27
	.cfi_restore 26
	blr
.LVL967:
.L1038:
.LCFI115:
	.cfi_restore_state
	mr 31,3
.L975:
.LBB5390:
.LBB5380:
.LBB5257:
.LBB5248:
.LBB5239:
.LBB5231:
.LBB5223:
.LBB5196:
.LBB5197:
.LBB5198:
.LBB5199:
.LBB5200:
.LBB5201:
	.loc 10 70 0
	lwz 3,20(28)
.LVL968:
	.loc 10 71 0
	cmpw 7,3,29
	beq- 7,.L992
.LVL969:
.L1050:
.LBB5202:
	.loc 10 74 0
	lwz 30,0(3)
.LVL970:
.LBB5203:
.LBB5204:
.LBB5205:
	.loc 6 98 0
	bl _ZdlPv
.LVL971:
.LBE5205:
.LBE5204:
.LBE5203:
.LBE5202:
	.loc 10 71 0
	cmpw 7,30,29
	beq- 7,.L992
	.loc 10 74 0
	mr 3,30
	b .L1050
.LVL972:
.L1041:
.LBE5201:
.LBE5200:
.LBE5199:
.LBE5198:
.LBE5197:
.LBE5196:
.LBE5223:
.LBE5231:
.LBE5239:
.LBE5248:
.LBE5257:
.LBE5380:
.LBB5381:
.LBB5371:
.LBB5365:
.LBB5359:
.LBB5353:
.LBB5347:
.LBB5326:
.LBB5307:
.LBB5300:
.LBB5301:
.LBB5302:
	.loc 1 343 0
	lwz 9,4(28)
	mr 31,3
.LVL973:
	mr 3,27
	lwz 0,12(9)
	mtctr 0
	bctrl
.LVL974:
.L1008:
.LBE5302:
.LBE5301:
.LBE5300:
.LBE5307:
.LBE5326:
.LBB5327:
.LBB5328:
.LBB5329:
.LBB5330:
.LBB5331:
.LBB5332:
	.loc 10 70 0
	lwz 3,8(28)
.LVL975:
	.loc 10 71 0
	cmpw 7,3,29
	beq- 7,.L1025
.LVL976:
.L1054:
.LBB5333:
	.loc 10 74 0
	lwz 30,0(3)
.LVL977:
.LBB5334:
.LBB5335:
.LBB5336:
	.loc 6 98 0
	bl _ZdlPv
.LVL978:
.LBE5336:
.LBE5335:
.LBE5334:
.LBE5333:
	.loc 10 71 0
	cmpw 7,30,29
	beq- 7,.L1025
	.loc 10 74 0
	mr 3,30
	b .L1054
.LVL979:
.L992:
.LBE5332:
.LBE5331:
.LBE5330:
.LBE5329:
.LBE5328:
.LBE5327:
.LBE5347:
.LBE5353:
.LBE5359:
.LBE5365:
.LBE5371:
.LBE5381:
.LBB5382:
.LBB5258:
.LBB5249:
.LBB5240:
.LBB5232:
.LBB5224:
.LBB5206:
.LBB5207:
.LBB5208:
.LBB5209:
.LBB5210:
.LBB5211:
	.loc 1 105 0
	lis 9,_ZTVN7sigslot15single_threadedE+8@ha
.LBE5211:
.LBE5210:
.LBE5209:
.LBE5208:
.LBE5207:
.LBE5206:
.LBE5224:
.LBE5232:
.LBE5240:
.LBE5249:
.LBE5258:
.LBE5382:
	.loc 2 89 0
	addi 3,28,4
.LBB5383:
.LBB5259:
.LBB5250:
.LBB5241:
.LBB5233:
.LBB5225:
.LBB5217:
.LBB5216:
.LBB5215:
.LBB5214:
.LBB5213:
.LBB5212:
	.loc 1 105 0
	la 0,_ZTVN7sigslot15single_threadedE+8@l(9)
	stw 0,16(28)
.LBE5212:
.LBE5213:
.LBE5214:
.LBE5215:
.LBE5216:
.LBE5217:
.LBE5225:
.LBE5233:
.LBE5241:
.LBE5250:
.LBE5259:
.LBE5383:
	.loc 2 89 0
	bl _ZN7sigslot7signal2IP10GuiElementbNS_15single_threadedEED1Ev
	mr 3,31
.LEHB86:
	bl _Unwind_Resume
.LVL980:
.L1025:
.LBB5384:
.LBB5372:
.LBB5366:
.LBB5360:
.LBB5354:
.LBB5348:
.LBB5337:
.LBB5338:
.LBB5339:
.LBB5340:
.LBB5341:
.LBB5342:
	.loc 1 105 0
	stw 26,4(28)
	mr 3,31
	bl _Unwind_Resume
.LEHE86:
.LVL981:
.L1040:
	mr 31,3
	b .L1008
.LVL982:
.L1039:
.LBE5342:
.LBE5341:
.LBE5340:
.LBE5339:
.LBE5338:
.LBE5337:
.LBE5348:
.LBE5354:
.LBE5360:
.LBE5366:
.LBE5372:
.LBE5384:
.LBB5385:
.LBB5260:
.LBB5251:
.LBB5242:
.LBB5234:
.LBB5226:
.LBB5218:
.LBB5166:
.LBB5160:
.LBB5161:
.LBB5162:
	.loc 1 343 0
	lwz 9,16(28)
	mr 31,3
.LVL983:
	mr 3,27
	lwz 0,12(9)
	mtctr 0
	bctrl
	b .L975
.LBE5162:
.LBE5161:
.LBE5160:
.LBE5166:
.LBE5218:
.LBE5226:
.LBE5234:
.LBE5242:
.LBE5251:
.LBE5260:
.LBE5385:
.LBE5390:
	.cfi_endproc
.LFE1381:
	.section	.gcc_except_table
.LLSDA1381:
	.byte	0xff
	.byte	0xff
	.byte	0x1
	.uleb128 .LLSDACSE1381-.LLSDACSB1381
.LLSDACSB1381:
	.uleb128 .LEHB80-.LFB1381
	.uleb128 .LEHE80-.LEHB80
	.uleb128 .L1038-.LFB1381
	.uleb128 0
	.uleb128 .LEHB81-.LFB1381
	.uleb128 .LEHE81-.LEHB81
	.uleb128 .L1039-.LFB1381
	.uleb128 0
	.uleb128 .LEHB82-.LFB1381
	.uleb128 .LEHE82-.LEHB82
	.uleb128 .L1038-.LFB1381
	.uleb128 0
	.uleb128 .LEHB83-.LFB1381
	.uleb128 .LEHE83-.LEHB83
	.uleb128 .L1040-.LFB1381
	.uleb128 0
	.uleb128 .LEHB84-.LFB1381
	.uleb128 .LEHE84-.LEHB84
	.uleb128 .L1041-.LFB1381
	.uleb128 0
	.uleb128 .LEHB85-.LFB1381
	.uleb128 .LEHE85-.LEHB85
	.uleb128 .L1040-.LFB1381
	.uleb128 0
	.uleb128 .LEHB86-.LFB1381
	.uleb128 .LEHE86-.LEHB86
	.uleb128 0
	.uleb128 0
.LLSDACSE1381:
	.section	.text._ZN10GuiElementD2Ev,"axG",@progbits,_ZN10GuiElementD5Ev,comdat
	.size	_ZN10GuiElementD2Ev, .-_ZN10GuiElementD2Ev
	.section	.text._ZN7sigslot13_signal_base3IP9GuiButtoniRK6_POINTNS_15single_threadedEED2Ev,"axG",@progbits,_ZN7sigslot13_signal_base3IP9GuiButtoniRK6_POINTNS_15single_threadedEED5Ev,comdat
	.align 2
	.weak	_ZN7sigslot13_signal_base3IP9GuiButtoniRK6_POINTNS_15single_threadedEED2Ev
	.type	_ZN7sigslot13_signal_base3IP9GuiButtoniRK6_POINTNS_15single_threadedEED2Ev, @function
_ZN7sigslot13_signal_base3IP9GuiButtoniRK6_POINTNS_15single_threadedEED2Ev:
.LFB1575:
	.loc 1 943 0
	.cfi_startproc
	.cfi_personality 0,__gxx_personality_v0
	.cfi_lsda 0,.LLSDA1575
.LVL984:
	mflr 0
	stwu 1,-40(1)
.LCFI116:
	.cfi_def_cfa_offset 40
	.cfi_register 65, 0
.LBB5537:
	.loc 1 946 0
	lis 9,_ZTVN7sigslot13_signal_base3IP9GuiButtoniRK6_POINTNS_15single_threadedEEE+8@ha
.LBE5537:
	.loc 1 943 0
	stw 28,24(1)
	mr 28,3
	.cfi_offset 28, -16
	stw 0,44(1)
.LBB5620:
	.loc 1 946 0
	la 0,_ZTVN7sigslot13_signal_base3IP9GuiButtoniRK6_POINTNS_15single_threadedEEE+8@l(9)
	.cfi_offset 65, 4
.LBE5620:
	.loc 1 943 0
	stw 29,28(1)
	addi 29,3,4
	.cfi_offset 29, -12
	stw 30,32(1)
	stw 31,36(1)
.LBB5621:
	.loc 1 946 0
	stw 0,0(3)
.LVL985:
.LEHB87:
.LBB5538:
.LBB5539:
.LBB5540:
.LBB5541:
	.loc 1 338 0
	.cfi_offset 31, -4
	.cfi_offset 30, -8
	bl _ZN7sigslot15single_threaded4lockEv
.LEHE87:
.LVL986:
.LBE5541:
.LBE5540:
.LBE5539:
	.loc 3 406 0
	mr 29,28
.LVL987:
	lwzu 31,4(29)
.LVL988:
.LBB5572:
	.loc 1 954 0
	cmpw 7,31,29
	beq- 7,.L1056
.LVL989:
.L1093:
	.loc 1 956 0
	lwz 3,8(31)
	lwz 9,0(3)
	lwz 0,8(9)
	mtctr 0
.LEHB88:
	bctrl
.LBB5542:
.LBB5543:
.LBB5544:
.LBB5545:
	.loc 1 338 0
	lwz 9,0(3)
.LBE5545:
.LBE5544:
.LBE5543:
.LBE5542:
	.loc 1 956 0
	mr 30,3
.LVL990:
	stw 28,8(1)
.LVL991:
.LBB5554:
.LBB5553:
.LBB5547:
.LBB5546:
	.loc 1 338 0
	lwz 0,8(9)
	mtctr 0
	bctrl
.LVL992:
.LBE5546:
.LBE5547:
.LBB5548:
.LBB5549:
	.loc 9 528 0
	addi 3,30,4
	addi 4,1,8
	bl _ZNSt8_Rb_treeIPN7sigslot12_signal_baseINS0_15single_threadedEEES4_St9_IdentityIS4_ESt4lessIS4_ESaIS4_EE5eraseERKS4_
.LVL993:
.LBE5549:
.LBE5548:
.LBB5550:
.LBB5551:
.LBB5552:
	.loc 1 343 0
	lwz 9,0(30)
	mr 3,30
	lwz 0,12(9)
	mtctr 0
	bctrl
.LVL994:
.LBE5552:
.LBE5551:
.LBE5550:
.LBE5553:
.LBE5554:
	.loc 1 957 0
	lwz 3,8(31)
	cmpwi 7,3,0
	beq- 7,.L1058
	lwz 9,0(3)
	lwz 0,4(9)
	mtctr 0
	bctrl
.LEHE88:
.L1058:
.LVL995:
.LBB5555:
.LBB5556:
	.loc 4 234 0
	lwz 31,0(31)
.LVL996:
.LBE5556:
.LBE5555:
	.loc 1 954 0
	cmpw 7,29,31
	bne+ 7,.L1093
.LBE5572:
	.loc 3 406 0
	lwz 31,4(28)
.LVL997:
.LBB5573:
.LBB5557:
.LBB5558:
	.loc 4 1162 0
	cmpw 7,29,31
	bne+ 7,.L1095
	b .L1056
.LVL998:
.L1088:
	.loc 4 1163 0
	mr 31,30
.LVL999:
.L1095:
.LBB5559:
.LBB5560:
	.loc 10 112 0
	lwz 30,0(31)
.LVL1000:
.LBB5561:
.LBB5562:
	.loc 4 1532 0
	mr 3,31
	bl _ZNSt8__detail15_List_node_base9_M_unhookEv
.LVL1001:
.LBB5563:
.LBB5564:
.LBB5565:
	.loc 6 98 0
	mr 3,31
	bl _ZdlPv
.LVL1002:
.LBE5565:
.LBE5564:
.LBE5563:
.LBE5562:
.LBE5561:
.LBE5560:
.LBE5559:
	.loc 4 1162 0
	cmpw 7,29,30
	bne+ 7,.L1088
.LVL1003:
.L1056:
.LBE5558:
.LBE5557:
.LBB5566:
.LBB5567:
.LBB5568:
	.loc 1 343 0
	lwz 9,0(28)
	mr 3,28
	lwz 0,12(9)
	mtctr 0
.LEHB89:
	bctrl
.LEHE89:
.LVL1004:
.LBE5568:
.LBE5567:
.LBE5566:
.LBE5573:
.LBE5538:
.LBB5575:
.LBB5576:
.LBB5577:
.LBB5578:
.LBB5579:
.LBB5580:
	.loc 10 70 0
	lwz 3,4(28)
.LVL1005:
	.loc 10 71 0
	cmpw 7,3,29
	bne+ 7,.L1097
	b .L1074
.LVL1006:
.L1089:
	.loc 10 74 0
	mr 3,31
.LVL1007:
.L1097:
.LBB5581:
	lwz 31,0(3)
.LVL1008:
.LBB5582:
.LBB5583:
.LBB5584:
	.loc 6 98 0
	bl _ZdlPv
.LVL1009:
.LBE5584:
.LBE5583:
.LBE5582:
.LBE5581:
	.loc 10 71 0
	cmpw 7,31,29
	bne+ 7,.L1089
.LVL1010:
.L1074:
.LBE5580:
.LBE5579:
.LBE5578:
.LBE5577:
.LBE5576:
.LBE5575:
.LBB5585:
.LBB5586:
.LBB5587:
.LBB5588:
.LBB5589:
.LBB5590:
	.loc 1 105 0
	lis 9,_ZTVN7sigslot15single_threadedE+8@ha
.LBE5590:
.LBE5589:
.LBE5588:
.LBE5587:
.LBE5586:
.LBE5585:
.LBE5621:
	.loc 1 946 0
	lwz 29,28(1)
.LVL1011:
.LBB5622:
.LBB5601:
.LBB5599:
.LBB5597:
.LBB5595:
.LBB5593:
.LBB5591:
	.loc 1 105 0
	la 0,_ZTVN7sigslot15single_threadedE+8@l(9)
.LBE5591:
.LBE5593:
.LBE5595:
.LBE5597:
.LBE5599:
.LBE5601:
.LBE5622:
	.loc 1 946 0
	lwz 30,32(1)
.LBB5623:
.LBB5602:
.LBB5600:
.LBB5598:
.LBB5596:
.LBB5594:
.LBB5592:
	.loc 1 105 0
	stw 0,0(28)
.LBE5592:
.LBE5594:
.LBE5596:
.LBE5598:
.LBE5600:
.LBE5602:
.LBE5623:
	.loc 1 946 0
	lwz 0,44(1)
	lwz 28,24(1)
.LVL1012:
	mtlr 0
	lwz 31,36(1)
	addi 1,1,40
	.cfi_remember_state
.LCFI117:
	.cfi_def_cfa_offset 0
	.cfi_restore 31
	.cfi_restore 30
	.cfi_restore 29
	.cfi_restore 28
	blr
.LVL1013:
.L1091:
.LCFI118:
	.cfi_restore_state
	mr 31,3
.L1066:
.LVL1014:
.LBB5624:
.LBB5603:
.LBB5604:
.LBB5605:
.LBB5606:
.LBB5607:
.LBB5608:
	.loc 10 70 0
	lwz 3,4(28)
.LVL1015:
	.loc 10 71 0
	cmpw 7,3,29
	beq- 7,.L1085
.LVL1016:
.L1098:
.LBB5609:
	.loc 10 74 0
	lwz 30,0(3)
.LVL1017:
.LBB5610:
.LBB5611:
.LBB5612:
	.loc 6 98 0
	bl _ZdlPv
.LVL1018:
.LBE5612:
.LBE5611:
.LBE5610:
.LBE5609:
	.loc 10 71 0
	cmpw 7,30,29
	beq- 7,.L1085
	.loc 10 74 0
	mr 3,30
	b .L1098
.LVL1019:
.L1092:
.LBE5608:
.LBE5607:
.LBE5606:
.LBE5605:
.LBE5604:
.LBE5603:
.LBB5613:
.LBB5574:
.LBB5569:
.LBB5570:
.LBB5571:
	.loc 1 343 0
	lwz 9,0(28)
	mr 31,3
.LVL1020:
	mr 3,28
	lwz 0,12(9)
	mtctr 0
	bctrl
	b .L1066
.LVL1021:
.L1085:
.LBE5571:
.LBE5570:
.LBE5569:
.LBE5574:
.LBE5613:
.LBB5614:
.LBB5615:
.LBB5616:
.LBB5617:
.LBB5618:
.LBB5619:
	.loc 1 105 0
	lis 9,_ZTVN7sigslot15single_threadedE+8@ha
	mr 3,31
	la 0,_ZTVN7sigslot15single_threadedE+8@l(9)
	stw 0,0(28)
.LEHB90:
	bl _Unwind_Resume
.LEHE90:
.LBE5619:
.LBE5618:
.LBE5617:
.LBE5616:
.LBE5615:
.LBE5614:
.LBE5624:
	.cfi_endproc
.LFE1575:
	.section	.gcc_except_table
.LLSDA1575:
	.byte	0xff
	.byte	0xff
	.byte	0x1
	.uleb128 .LLSDACSE1575-.LLSDACSB1575
.LLSDACSB1575:
	.uleb128 .LEHB87-.LFB1575
	.uleb128 .LEHE87-.LEHB87
	.uleb128 .L1091-.LFB1575
	.uleb128 0
	.uleb128 .LEHB88-.LFB1575
	.uleb128 .LEHE88-.LEHB88
	.uleb128 .L1092-.LFB1575
	.uleb128 0
	.uleb128 .LEHB89-.LFB1575
	.uleb128 .LEHE89-.LEHB89
	.uleb128 .L1091-.LFB1575
	.uleb128 0
	.uleb128 .LEHB90-.LFB1575
	.uleb128 .LEHE90-.LEHB90
	.uleb128 0
	.uleb128 0
.LLSDACSE1575:
	.section	.text._ZN7sigslot13_signal_base3IP9GuiButtoniRK6_POINTNS_15single_threadedEED2Ev,"axG",@progbits,_ZN7sigslot13_signal_base3IP9GuiButtoniRK6_POINTNS_15single_threadedEED5Ev,comdat
	.size	_ZN7sigslot13_signal_base3IP9GuiButtoniRK6_POINTNS_15single_threadedEED2Ev, .-_ZN7sigslot13_signal_base3IP9GuiButtoniRK6_POINTNS_15single_threadedEED2Ev
	.section	.text._ZN7sigslot7signal3IP9GuiButtoniRK6_POINTNS_15single_threadedEED0Ev,"axG",@progbits,_ZN7sigslot7signal3IP9GuiButtoniRK6_POINTNS_15single_threadedEED5Ev,comdat
	.align 2
	.weak	_ZN7sigslot7signal3IP9GuiButtoniRK6_POINTNS_15single_threadedEED0Ev
	.type	_ZN7sigslot7signal3IP9GuiButtoniRK6_POINTNS_15single_threadedEED0Ev, @function
_ZN7sigslot7signal3IP9GuiButtoniRK6_POINTNS_15single_threadedEED0Ev:
.LFB1517:
	.loc 1 2302 0
	.cfi_startproc
	.cfi_personality 0,__gxx_personality_v0
	.cfi_lsda 0,.LLSDA1517
.LVL1022:
	mflr 0
	stwu 1,-40(1)
.LCFI119:
	.cfi_def_cfa_offset 40
	.cfi_register 65, 0
.LBB5723:
.LBB5724:
.LBB5725:
.LBB5726:
.LBB5727:
.LBB5728:
	.loc 1 946 0
	lis 9,_ZTVN7sigslot13_signal_base3IP9GuiButtoniRK6_POINTNS_15single_threadedEEE+8@ha
.LBE5728:
.LBE5727:
.LBE5726:
.LBE5725:
.LBE5724:
.LBE5723:
	.loc 1 2302 0
	stw 28,24(1)
	mr 28,3
	.cfi_offset 28, -16
.LVL1023:
	stw 0,44(1)
.LBB5825:
.LBB5821:
.LBB5817:
.LBB5813:
.LBB5809:
.LBB5805:
	.loc 1 946 0
	la 0,_ZTVN7sigslot13_signal_base3IP9GuiButtoniRK6_POINTNS_15single_threadedEEE+8@l(9)
	.cfi_offset 65, 4
.LBE5805:
.LBE5809:
.LBE5813:
.LBE5817:
.LBE5821:
.LBE5825:
	.loc 1 2302 0
	stw 29,28(1)
	addi 29,3,4
	.cfi_offset 29, -12
	stw 30,32(1)
	stw 31,36(1)
.LBB5826:
.LBB5822:
.LBB5818:
.LBB5814:
.LBB5810:
.LBB5806:
	.loc 1 946 0
	stw 0,0(3)
.LVL1024:
.LEHB91:
.LBB5729:
.LBB5730:
.LBB5731:
.LBB5732:
	.loc 1 338 0
	.cfi_offset 31, -4
	.cfi_offset 30, -8
	bl _ZN7sigslot15single_threaded4lockEv
.LEHE91:
.LVL1025:
.LBE5732:
.LBE5731:
.LBE5730:
	.loc 3 406 0
	mr 29,28
.LVL1026:
	lwzu 31,4(29)
.LVL1027:
.LBB5763:
	.loc 1 954 0
	cmpw 7,31,29
	beq- 7,.L1100
.LVL1028:
.L1139:
	.loc 1 956 0
	lwz 3,8(31)
	lwz 9,0(3)
	lwz 0,8(9)
	mtctr 0
.LEHB92:
	bctrl
.LBB5733:
.LBB5734:
.LBB5735:
.LBB5736:
	.loc 1 338 0
	lwz 9,0(3)
.LBE5736:
.LBE5735:
.LBE5734:
.LBE5733:
	.loc 1 956 0
	mr 30,3
.LVL1029:
	stw 28,8(1)
.LVL1030:
.LBB5745:
.LBB5744:
.LBB5738:
.LBB5737:
	.loc 1 338 0
	lwz 0,8(9)
	mtctr 0
	bctrl
.LVL1031:
.LBE5737:
.LBE5738:
.LBB5739:
.LBB5740:
	.loc 9 528 0
	addi 3,30,4
	addi 4,1,8
	bl _ZNSt8_Rb_treeIPN7sigslot12_signal_baseINS0_15single_threadedEEES4_St9_IdentityIS4_ESt4lessIS4_ESaIS4_EE5eraseERKS4_
.LVL1032:
.LBE5740:
.LBE5739:
.LBB5741:
.LBB5742:
.LBB5743:
	.loc 1 343 0
	lwz 9,0(30)
	mr 3,30
	lwz 0,12(9)
	mtctr 0
	bctrl
.LVL1033:
.LBE5743:
.LBE5742:
.LBE5741:
.LBE5744:
.LBE5745:
	.loc 1 957 0
	lwz 3,8(31)
	cmpwi 7,3,0
	beq- 7,.L1102
	lwz 9,0(3)
	lwz 0,4(9)
	mtctr 0
	bctrl
.LEHE92:
.L1102:
.LVL1034:
.LBB5746:
.LBB5747:
	.loc 4 234 0
	lwz 31,0(31)
.LVL1035:
.LBE5747:
.LBE5746:
	.loc 1 954 0
	cmpw 7,29,31
	bne+ 7,.L1139
.LBE5763:
	.loc 3 406 0
	lwz 31,4(28)
.LVL1036:
.LBB5764:
.LBB5748:
.LBB5749:
	.loc 4 1162 0
	cmpw 7,29,31
	bne+ 7,.L1141
	b .L1100
.LVL1037:
.L1134:
	.loc 4 1163 0
	mr 31,30
.LVL1038:
.L1141:
.LBB5750:
.LBB5751:
	.loc 10 112 0
	lwz 30,0(31)
.LVL1039:
.LBB5752:
.LBB5753:
	.loc 4 1532 0
	mr 3,31
	bl _ZNSt8__detail15_List_node_base9_M_unhookEv
.LVL1040:
.LBB5754:
.LBB5755:
.LBB5756:
	.loc 6 98 0
	mr 3,31
	bl _ZdlPv
.LVL1041:
.LBE5756:
.LBE5755:
.LBE5754:
.LBE5753:
.LBE5752:
.LBE5751:
.LBE5750:
	.loc 4 1162 0
	cmpw 7,29,30
	bne+ 7,.L1134
.LVL1042:
.L1100:
.LBE5749:
.LBE5748:
.LBB5757:
.LBB5758:
.LBB5759:
	.loc 1 343 0
	lwz 9,0(28)
	mr 3,28
	lwz 0,12(9)
	mtctr 0
.LEHB93:
	bctrl
.LEHE93:
.LBE5759:
.LBE5758:
.LBE5757:
.LBE5764:
.LBE5729:
.LBB5766:
.LBB5767:
.LBB5768:
.LBB5769:
.LBB5770:
.LBB5771:
	.loc 10 70 0
	lwz 3,4(28)
.LVL1043:
	.loc 10 71 0
	cmpw 7,3,29
	bne+ 7,.L1143
	b .L1118
.LVL1044:
.L1135:
	.loc 10 74 0
	mr 3,31
.LVL1045:
.L1143:
.LBB5772:
	lwz 31,0(3)
.LVL1046:
.LBB5773:
.LBB5774:
.LBB5775:
	.loc 6 98 0
	bl _ZdlPv
.LVL1047:
.LBE5775:
.LBE5774:
.LBE5773:
.LBE5772:
	.loc 10 71 0
	cmpw 7,31,29
	bne+ 7,.L1135
.LVL1048:
.L1118:
.LBE5771:
.LBE5770:
.LBE5769:
.LBE5768:
.LBE5767:
.LBE5766:
.LBB5776:
.LBB5777:
.LBB5778:
.LBB5779:
.LBB5780:
.LBB5781:
	.loc 1 105 0
	lis 9,_ZTVN7sigslot15single_threadedE+8@ha
.LBE5781:
.LBE5780:
.LBE5779:
.LBE5778:
.LBE5777:
.LBE5776:
.LBE5806:
.LBE5810:
.LBE5814:
.LBE5818:
.LBE5822:
.LBE5826:
	.loc 1 2305 0
	mr 3,28
.LBB5827:
.LBB5823:
.LBB5819:
.LBB5815:
.LBB5811:
.LBB5807:
.LBB5787:
.LBB5786:
.LBB5785:
.LBB5784:
.LBB5783:
.LBB5782:
	.loc 1 105 0
	la 0,_ZTVN7sigslot15single_threadedE+8@l(9)
	stw 0,0(28)
.LBE5782:
.LBE5783:
.LBE5784:
.LBE5785:
.LBE5786:
.LBE5787:
.LBE5807:
.LBE5811:
.LBE5815:
.LBE5819:
.LBE5823:
.LBE5827:
	.loc 1 2305 0
	bl _ZdlPv
	lwz 0,44(1)
	lwz 28,24(1)
.LVL1049:
	mtlr 0
	lwz 29,28(1)
.LVL1050:
	lwz 30,32(1)
	lwz 31,36(1)
	addi 1,1,40
	.cfi_remember_state
.LCFI120:
	.cfi_def_cfa_offset 0
	.cfi_restore 31
	.cfi_restore 30
	.cfi_restore 29
	.cfi_restore 28
	blr
.LVL1051:
.L1137:
.LCFI121:
	.cfi_restore_state
	mr 31,3
.L1110:
.LBB5828:
.LBB5824:
.LBB5820:
.LBB5816:
.LBB5812:
.LBB5808:
.LBB5788:
.LBB5789:
.LBB5790:
.LBB5791:
.LBB5792:
.LBB5793:
	.loc 10 70 0
	lwz 3,4(28)
.LVL1052:
	.loc 10 71 0
	cmpw 7,3,29
	beq- 7,.L1127
.LVL1053:
.L1144:
.LBB5794:
	.loc 10 74 0
	lwz 30,0(3)
.LVL1054:
.LBB5795:
.LBB5796:
.LBB5797:
	.loc 6 98 0
	bl _ZdlPv
.LVL1055:
.LBE5797:
.LBE5796:
.LBE5795:
.LBE5794:
	.loc 10 71 0
	cmpw 7,30,29
	beq- 7,.L1127
	.loc 10 74 0
	mr 3,30
	b .L1144
.LVL1056:
.L1138:
.LBE5793:
.LBE5792:
.LBE5791:
.LBE5790:
.LBE5789:
.LBE5788:
.LBB5798:
.LBB5765:
.LBB5760:
.LBB5761:
.LBB5762:
	.loc 1 343 0
	lwz 9,0(28)
	mr 31,3
.LVL1057:
	mr 3,28
	lwz 0,12(9)
	mtctr 0
	bctrl
	b .L1110
.LVL1058:
.L1127:
.LBE5762:
.LBE5761:
.LBE5760:
.LBE5765:
.LBE5798:
.LBB5799:
.LBB5800:
.LBB5801:
.LBB5802:
.LBB5803:
.LBB5804:
	.loc 1 105 0
	lis 9,_ZTVN7sigslot15single_threadedE+8@ha
	mr 3,31
	la 0,_ZTVN7sigslot15single_threadedE+8@l(9)
	stw 0,0(28)
.LEHB94:
	bl _Unwind_Resume
.LEHE94:
.LBE5804:
.LBE5803:
.LBE5802:
.LBE5801:
.LBE5800:
.LBE5799:
.LBE5808:
.LBE5812:
.LBE5816:
.LBE5820:
.LBE5824:
.LBE5828:
	.cfi_endproc
.LFE1517:
	.section	.gcc_except_table
.LLSDA1517:
	.byte	0xff
	.byte	0xff
	.byte	0x1
	.uleb128 .LLSDACSE1517-.LLSDACSB1517
.LLSDACSB1517:
	.uleb128 .LEHB91-.LFB1517
	.uleb128 .LEHE91-.LEHB91
	.uleb128 .L1137-.LFB1517
	.uleb128 0
	.uleb128 .LEHB92-.LFB1517
	.uleb128 .LEHE92-.LEHB92
	.uleb128 .L1138-.LFB1517
	.uleb128 0
	.uleb128 .LEHB93-.LFB1517
	.uleb128 .LEHE93-.LEHB93
	.uleb128 .L1137-.LFB1517
	.uleb128 0
	.uleb128 .LEHB94-.LFB1517
	.uleb128 .LEHE94-.LEHB94
	.uleb128 0
	.uleb128 0
.LLSDACSE1517:
	.section	.text._ZN7sigslot7signal3IP9GuiButtoniRK6_POINTNS_15single_threadedEED0Ev,"axG",@progbits,_ZN7sigslot7signal3IP9GuiButtoniRK6_POINTNS_15single_threadedEED5Ev,comdat
	.size	_ZN7sigslot7signal3IP9GuiButtoniRK6_POINTNS_15single_threadedEED0Ev, .-_ZN7sigslot7signal3IP9GuiButtoniRK6_POINTNS_15single_threadedEED0Ev
	.section	.text._ZN7sigslot13_signal_base3IP9GuiButtoniRK6_POINTNS_15single_threadedEED0Ev,"axG",@progbits,_ZN7sigslot13_signal_base3IP9GuiButtoniRK6_POINTNS_15single_threadedEED5Ev,comdat
	.align 2
	.weak	_ZN7sigslot13_signal_base3IP9GuiButtoniRK6_POINTNS_15single_threadedEED0Ev
	.type	_ZN7sigslot13_signal_base3IP9GuiButtoniRK6_POINTNS_15single_threadedEED0Ev, @function
_ZN7sigslot13_signal_base3IP9GuiButtoniRK6_POINTNS_15single_threadedEED0Ev:
.LFB1577:
	.loc 1 943 0
	.cfi_startproc
	.cfi_personality 0,__gxx_personality_v0
	.cfi_lsda 0,.LLSDA1577
.LVL1059:
	mflr 0
	stwu 1,-40(1)
.LCFI122:
	.cfi_def_cfa_offset 40
	.cfi_register 65, 0
.LBB5924:
.LBB5925:
.LBB5926:
	.loc 1 946 0
	lis 9,_ZTVN7sigslot13_signal_base3IP9GuiButtoniRK6_POINTNS_15single_threadedEEE+8@ha
.LBE5926:
.LBE5925:
.LBE5924:
	.loc 1 943 0
	stw 28,24(1)
	mr 28,3
	.cfi_offset 28, -16
.LVL1060:
	stw 0,44(1)
.LBB6011:
.LBB6007:
.LBB6003:
	.loc 1 946 0
	la 0,_ZTVN7sigslot13_signal_base3IP9GuiButtoniRK6_POINTNS_15single_threadedEEE+8@l(9)
	.cfi_offset 65, 4
.LBE6003:
.LBE6007:
.LBE6011:
	.loc 1 943 0
	stw 29,28(1)
	addi 29,3,4
	.cfi_offset 29, -12
	stw 30,32(1)
	stw 31,36(1)
.LBB6012:
.LBB6008:
.LBB6004:
	.loc 1 946 0
	stw 0,0(3)
.LVL1061:
.LEHB95:
.LBB5927:
.LBB5928:
.LBB5929:
.LBB5930:
	.loc 1 338 0
	.cfi_offset 31, -4
	.cfi_offset 30, -8
	bl _ZN7sigslot15single_threaded4lockEv
.LEHE95:
.LVL1062:
.LBE5930:
.LBE5929:
.LBE5928:
	.loc 3 406 0
	mr 29,28
.LVL1063:
	lwzu 31,4(29)
.LVL1064:
.LBB5961:
	.loc 1 954 0
	cmpw 7,31,29
	beq- 7,.L1146
.LVL1065:
.L1184:
	.loc 1 956 0
	lwz 3,8(31)
	lwz 9,0(3)
	lwz 0,8(9)
	mtctr 0
.LEHB96:
	bctrl
.LBB5931:
.LBB5932:
.LBB5933:
.LBB5934:
	.loc 1 338 0
	lwz 9,0(3)
.LBE5934:
.LBE5933:
.LBE5932:
.LBE5931:
	.loc 1 956 0
	mr 30,3
.LVL1066:
	stw 28,8(1)
.LVL1067:
.LBB5943:
.LBB5942:
.LBB5936:
.LBB5935:
	.loc 1 338 0
	lwz 0,8(9)
	mtctr 0
	bctrl
.LVL1068:
.LBE5935:
.LBE5936:
.LBB5937:
.LBB5938:
	.loc 9 528 0
	addi 3,30,4
	addi 4,1,8
	bl _ZNSt8_Rb_treeIPN7sigslot12_signal_baseINS0_15single_threadedEEES4_St9_IdentityIS4_ESt4lessIS4_ESaIS4_EE5eraseERKS4_
.LVL1069:
.LBE5938:
.LBE5937:
.LBB5939:
.LBB5940:
.LBB5941:
	.loc 1 343 0
	lwz 9,0(30)
	mr 3,30
	lwz 0,12(9)
	mtctr 0
	bctrl
.LVL1070:
.LBE5941:
.LBE5940:
.LBE5939:
.LBE5942:
.LBE5943:
	.loc 1 957 0
	lwz 3,8(31)
	cmpwi 7,3,0
	beq- 7,.L1148
	lwz 9,0(3)
	lwz 0,4(9)
	mtctr 0
	bctrl
.LEHE96:
.L1148:
.LVL1071:
.LBB5944:
.LBB5945:
	.loc 4 234 0
	lwz 31,0(31)
.LVL1072:
.LBE5945:
.LBE5944:
	.loc 1 954 0
	cmpw 7,29,31
	bne+ 7,.L1184
.LBE5961:
	.loc 3 406 0
	lwz 31,4(28)
.LVL1073:
.LBB5962:
.LBB5946:
.LBB5947:
	.loc 4 1162 0
	cmpw 7,29,31
	bne+ 7,.L1186
	b .L1146
.LVL1074:
.L1179:
	.loc 4 1163 0
	mr 31,30
.LVL1075:
.L1186:
.LBB5948:
.LBB5949:
	.loc 10 112 0
	lwz 30,0(31)
.LVL1076:
.LBB5950:
.LBB5951:
	.loc 4 1532 0
	mr 3,31
	bl _ZNSt8__detail15_List_node_base9_M_unhookEv
.LVL1077:
.LBB5952:
.LBB5953:
.LBB5954:
	.loc 6 98 0
	mr 3,31
	bl _ZdlPv
.LVL1078:
.LBE5954:
.LBE5953:
.LBE5952:
.LBE5951:
.LBE5950:
.LBE5949:
.LBE5948:
	.loc 4 1162 0
	cmpw 7,29,30
	bne+ 7,.L1179
.LVL1079:
.L1146:
.LBE5947:
.LBE5946:
.LBB5955:
.LBB5956:
.LBB5957:
	.loc 1 343 0
	lwz 9,0(28)
	mr 3,28
	lwz 0,12(9)
	mtctr 0
.LEHB97:
	bctrl
.LEHE97:
.LVL1080:
.LBE5957:
.LBE5956:
.LBE5955:
.LBE5962:
.LBE5927:
.LBB5964:
.LBB5965:
.LBB5966:
.LBB5967:
.LBB5968:
.LBB5969:
	.loc 10 70 0
	lwz 3,4(28)
.LVL1081:
	.loc 10 71 0
	cmpw 7,3,29
	bne+ 7,.L1188
	b .L1164
.LVL1082:
.L1180:
	.loc 10 74 0
	mr 3,31
.LVL1083:
.L1188:
.LBB5970:
	lwz 31,0(3)
.LVL1084:
.LBB5971:
.LBB5972:
.LBB5973:
	.loc 6 98 0
	bl _ZdlPv
.LVL1085:
.LBE5973:
.LBE5972:
.LBE5971:
.LBE5970:
	.loc 10 71 0
	cmpw 7,31,29
	bne+ 7,.L1180
.LVL1086:
.L1164:
.LBE5969:
.LBE5968:
.LBE5967:
.LBE5966:
.LBE5965:
.LBE5964:
.LBB5974:
.LBB5975:
.LBB5976:
.LBB5977:
.LBB5978:
.LBB5979:
	.loc 1 105 0
	lis 9,_ZTVN7sigslot15single_threadedE+8@ha
.LBE5979:
.LBE5978:
.LBE5977:
.LBE5976:
.LBE5975:
.LBE5974:
.LBE6004:
.LBE6008:
.LBE6012:
	.loc 1 946 0
	mr 3,28
.LBB6013:
.LBB6009:
.LBB6005:
.LBB5985:
.LBB5984:
.LBB5983:
.LBB5982:
.LBB5981:
.LBB5980:
	.loc 1 105 0
	la 0,_ZTVN7sigslot15single_threadedE+8@l(9)
	stw 0,0(28)
.LBE5980:
.LBE5981:
.LBE5982:
.LBE5983:
.LBE5984:
.LBE5985:
.LBE6005:
.LBE6009:
.LBE6013:
	.loc 1 946 0
	bl _ZdlPv
	lwz 0,44(1)
	lwz 28,24(1)
.LVL1087:
	mtlr 0
	lwz 29,28(1)
.LVL1088:
	lwz 30,32(1)
	lwz 31,36(1)
	addi 1,1,40
	.cfi_remember_state
.LCFI123:
	.cfi_def_cfa_offset 0
	.cfi_restore 31
	.cfi_restore 30
	.cfi_restore 29
	.cfi_restore 28
	blr
.LVL1089:
.L1182:
.LCFI124:
	.cfi_restore_state
	mr 31,3
.L1156:
.LVL1090:
.LBB6014:
.LBB6010:
.LBB6006:
.LBB5986:
.LBB5987:
.LBB5988:
.LBB5989:
.LBB5990:
.LBB5991:
	.loc 10 70 0
	lwz 3,4(28)
.LVL1091:
	.loc 10 71 0
	cmpw 7,3,29
	beq- 7,.L1173
.LVL1092:
.L1189:
.LBB5992:
	.loc 10 74 0
	lwz 30,0(3)
.LVL1093:
.LBB5993:
.LBB5994:
.LBB5995:
	.loc 6 98 0
	bl _ZdlPv
.LVL1094:
.LBE5995:
.LBE5994:
.LBE5993:
.LBE5992:
	.loc 10 71 0
	cmpw 7,30,29
	beq- 7,.L1173
	.loc 10 74 0
	mr 3,30
	b .L1189
.LVL1095:
.L1183:
.LBE5991:
.LBE5990:
.LBE5989:
.LBE5988:
.LBE5987:
.LBE5986:
.LBB5996:
.LBB5963:
.LBB5958:
.LBB5959:
.LBB5960:
	.loc 1 343 0
	lwz 9,0(28)
	mr 31,3
.LVL1096:
	mr 3,28
	lwz 0,12(9)
	mtctr 0
	bctrl
	b .L1156
.LVL1097:
.L1173:
.LBE5960:
.LBE5959:
.LBE5958:
.LBE5963:
.LBE5996:
.LBB5997:
.LBB5998:
.LBB5999:
.LBB6000:
.LBB6001:
.LBB6002:
	.loc 1 105 0
	lis 9,_ZTVN7sigslot15single_threadedE+8@ha
	mr 3,31
	la 0,_ZTVN7sigslot15single_threadedE+8@l(9)
	stw 0,0(28)
.LEHB98:
	bl _Unwind_Resume
.LEHE98:
.LBE6002:
.LBE6001:
.LBE6000:
.LBE5999:
.LBE5998:
.LBE5997:
.LBE6006:
.LBE6010:
.LBE6014:
	.cfi_endproc
.LFE1577:
	.section	.gcc_except_table
.LLSDA1577:
	.byte	0xff
	.byte	0xff
	.byte	0x1
	.uleb128 .LLSDACSE1577-.LLSDACSB1577
.LLSDACSB1577:
	.uleb128 .LEHB95-.LFB1577
	.uleb128 .LEHE95-.LEHB95
	.uleb128 .L1182-.LFB1577
	.uleb128 0
	.uleb128 .LEHB96-.LFB1577
	.uleb128 .LEHE96-.LEHB96
	.uleb128 .L1183-.LFB1577
	.uleb128 0
	.uleb128 .LEHB97-.LFB1577
	.uleb128 .LEHE97-.LEHB97
	.uleb128 .L1182-.LFB1577
	.uleb128 0
	.uleb128 .LEHB98-.LFB1577
	.uleb128 .LEHE98-.LEHB98
	.uleb128 0
	.uleb128 0
.LLSDACSE1577:
	.section	.text._ZN7sigslot13_signal_base3IP9GuiButtoniRK6_POINTNS_15single_threadedEED0Ev,"axG",@progbits,_ZN7sigslot13_signal_base3IP9GuiButtoniRK6_POINTNS_15single_threadedEED5Ev,comdat
	.size	_ZN7sigslot13_signal_base3IP9GuiButtoniRK6_POINTNS_15single_threadedEED0Ev, .-_ZN7sigslot13_signal_base3IP9GuiButtoniRK6_POINTNS_15single_threadedEED0Ev
	.section	.text._ZN7sigslot7signal3IP9GuiButtoniRK6_POINTNS_15single_threadedEED2Ev,"axG",@progbits,_ZN7sigslot7signal3IP9GuiButtoniRK6_POINTNS_15single_threadedEED5Ev,comdat
	.align 2
	.weak	_ZN7sigslot7signal3IP9GuiButtoniRK6_POINTNS_15single_threadedEED2Ev
	.type	_ZN7sigslot7signal3IP9GuiButtoniRK6_POINTNS_15single_threadedEED2Ev, @function
_ZN7sigslot7signal3IP9GuiButtoniRK6_POINTNS_15single_threadedEED2Ev:
.LFB1515:
	.loc 1 2302 0
	.cfi_startproc
	.cfi_personality 0,__gxx_personality_v0
	.cfi_lsda 0,.LLSDA1515
.LVL1098:
	mflr 0
	stwu 1,-40(1)
.LCFI125:
	.cfi_def_cfa_offset 40
	.cfi_register 65, 0
.LBB6112:
.LBB6113:
.LBB6114:
.LBB6115:
	.loc 1 946 0
	lis 9,_ZTVN7sigslot13_signal_base3IP9GuiButtoniRK6_POINTNS_15single_threadedEEE+8@ha
.LBE6115:
.LBE6114:
.LBE6113:
.LBE6112:
	.loc 1 2302 0
	stw 28,24(1)
	mr 28,3
	.cfi_offset 28, -16
.LVL1099:
	stw 0,44(1)
.LBB6213:
.LBB6208:
.LBB6203:
.LBB6198:
	.loc 1 946 0
	la 0,_ZTVN7sigslot13_signal_base3IP9GuiButtoniRK6_POINTNS_15single_threadedEEE+8@l(9)
	.cfi_offset 65, 4
.LBE6198:
.LBE6203:
.LBE6208:
.LBE6213:
	.loc 1 2302 0
	stw 29,28(1)
	addi 29,3,4
	.cfi_offset 29, -12
	stw 30,32(1)
	stw 31,36(1)
.LBB6214:
.LBB6209:
.LBB6204:
.LBB6199:
	.loc 1 946 0
	stw 0,0(3)
.LVL1100:
.LEHB99:
.LBB6116:
.LBB6117:
.LBB6118:
.LBB6119:
	.loc 1 338 0
	.cfi_offset 31, -4
	.cfi_offset 30, -8
	bl _ZN7sigslot15single_threaded4lockEv
.LEHE99:
.LVL1101:
.LBE6119:
.LBE6118:
.LBE6117:
	.loc 3 406 0
	mr 29,28
	lwzu 31,4(29)
.LVL1102:
.LBB6150:
	.loc 1 954 0
	cmpw 7,31,29
	beq- 7,.L1191
.LVL1103:
.L1229:
	.loc 1 956 0
	lwz 3,8(31)
	lwz 9,0(3)
	lwz 0,8(9)
	mtctr 0
.LEHB100:
	bctrl
.LBB6120:
.LBB6121:
.LBB6122:
.LBB6123:
	.loc 1 338 0
	lwz 9,0(3)
.LBE6123:
.LBE6122:
.LBE6121:
.LBE6120:
	.loc 1 956 0
	mr 30,3
.LVL1104:
	stw 28,8(1)
.LVL1105:
.LBB6132:
.LBB6131:
.LBB6125:
.LBB6124:
	.loc 1 338 0
	lwz 0,8(9)
	mtctr 0
	bctrl
.LVL1106:
.LBE6124:
.LBE6125:
.LBB6126:
.LBB6127:
	.loc 9 528 0
	addi 3,30,4
	addi 4,1,8
	bl _ZNSt8_Rb_treeIPN7sigslot12_signal_baseINS0_15single_threadedEEES4_St9_IdentityIS4_ESt4lessIS4_ESaIS4_EE5eraseERKS4_
.LVL1107:
.LBE6127:
.LBE6126:
.LBB6128:
.LBB6129:
.LBB6130:
	.loc 1 343 0
	lwz 9,0(30)
	mr 3,30
	lwz 0,12(9)
	mtctr 0
	bctrl
.LVL1108:
.LBE6130:
.LBE6129:
.LBE6128:
.LBE6131:
.LBE6132:
	.loc 1 957 0
	lwz 3,8(31)
	cmpwi 7,3,0
	beq- 7,.L1193
	lwz 9,0(3)
	lwz 0,4(9)
	mtctr 0
	bctrl
.LEHE100:
.L1193:
.LVL1109:
.LBB6133:
.LBB6134:
	.loc 4 234 0
	lwz 31,0(31)
.LVL1110:
.LBE6134:
.LBE6133:
	.loc 1 954 0
	cmpw 7,29,31
	bne+ 7,.L1229
.LBE6150:
	.loc 3 406 0
	lwz 31,4(28)
.LVL1111:
.LBB6151:
.LBB6135:
.LBB6136:
	.loc 4 1162 0
	cmpw 7,29,31
	bne+ 7,.L1231
	b .L1191
.LVL1112:
.L1224:
	.loc 4 1163 0
	mr 31,30
.LVL1113:
.L1231:
.LBB6137:
.LBB6138:
	.loc 10 112 0
	lwz 30,0(31)
.LVL1114:
.LBB6139:
.LBB6140:
	.loc 4 1532 0
	mr 3,31
	bl _ZNSt8__detail15_List_node_base9_M_unhookEv
.LVL1115:
.LBB6141:
.LBB6142:
.LBB6143:
	.loc 6 98 0
	mr 3,31
	bl _ZdlPv
.LVL1116:
.LBE6143:
.LBE6142:
.LBE6141:
.LBE6140:
.LBE6139:
.LBE6138:
.LBE6137:
	.loc 4 1162 0
	cmpw 7,29,30
	bne+ 7,.L1224
.LVL1117:
.L1191:
.LBE6136:
.LBE6135:
.LBB6144:
.LBB6145:
.LBB6146:
	.loc 1 343 0
	lwz 9,0(28)
	mr 3,28
	lwz 0,12(9)
	mtctr 0
.LEHB101:
	bctrl
.LEHE101:
.LBE6146:
.LBE6145:
.LBE6144:
.LBE6151:
.LBE6116:
.LBB6153:
.LBB6154:
.LBB6155:
.LBB6156:
.LBB6157:
.LBB6158:
	.loc 10 70 0
	lwz 3,4(28)
.LVL1118:
	.loc 10 71 0
	cmpw 7,3,29
	bne+ 7,.L1233
	b .L1209
.LVL1119:
.L1225:
	.loc 10 74 0
	mr 3,31
.LVL1120:
.L1233:
.LBB6159:
	lwz 31,0(3)
.LVL1121:
.LBB6160:
.LBB6161:
.LBB6162:
	.loc 6 98 0
	bl _ZdlPv
.LVL1122:
.LBE6162:
.LBE6161:
.LBE6160:
.LBE6159:
	.loc 10 71 0
	cmpw 7,31,29
	bne+ 7,.L1225
.LVL1123:
.L1209:
.LBE6158:
.LBE6157:
.LBE6156:
.LBE6155:
.LBE6154:
.LBE6153:
.LBB6163:
.LBB6164:
.LBB6165:
.LBB6166:
.LBB6167:
.LBB6168:
	.loc 1 105 0
	lis 9,_ZTVN7sigslot15single_threadedE+8@ha
.LBE6168:
.LBE6167:
.LBE6166:
.LBE6165:
.LBE6164:
.LBE6163:
.LBE6199:
.LBE6204:
.LBE6209:
.LBE6214:
	.loc 1 2305 0
	lwz 29,28(1)
.LVL1124:
.LBB6215:
.LBB6210:
.LBB6205:
.LBB6200:
.LBB6179:
.LBB6177:
.LBB6175:
.LBB6173:
.LBB6171:
.LBB6169:
	.loc 1 105 0
	la 0,_ZTVN7sigslot15single_threadedE+8@l(9)
.LBE6169:
.LBE6171:
.LBE6173:
.LBE6175:
.LBE6177:
.LBE6179:
.LBE6200:
.LBE6205:
.LBE6210:
.LBE6215:
	.loc 1 2305 0
	lwz 30,32(1)
.LBB6216:
.LBB6211:
.LBB6206:
.LBB6201:
.LBB6180:
.LBB6178:
.LBB6176:
.LBB6174:
.LBB6172:
.LBB6170:
	.loc 1 105 0
	stw 0,0(28)
.LBE6170:
.LBE6172:
.LBE6174:
.LBE6176:
.LBE6178:
.LBE6180:
.LBE6201:
.LBE6206:
.LBE6211:
.LBE6216:
	.loc 1 2305 0
	lwz 0,44(1)
	lwz 28,24(1)
.LVL1125:
	mtlr 0
	lwz 31,36(1)
	addi 1,1,40
	.cfi_remember_state
.LCFI126:
	.cfi_def_cfa_offset 0
	.cfi_restore 31
	.cfi_restore 30
	.cfi_restore 29
	.cfi_restore 28
	blr
.LVL1126:
.L1227:
.LCFI127:
	.cfi_restore_state
	mr 31,3
.L1201:
.LBB6217:
.LBB6212:
.LBB6207:
.LBB6202:
.LBB6181:
.LBB6182:
.LBB6183:
.LBB6184:
.LBB6185:
.LBB6186:
	.loc 10 70 0
	lwz 3,4(28)
.LVL1127:
	.loc 10 71 0
	cmpw 7,3,29
	beq- 7,.L1218
.LVL1128:
.L1234:
.LBB6187:
	.loc 10 74 0
	lwz 30,0(3)
.LVL1129:
.LBB6188:
.LBB6189:
.LBB6190:
	.loc 6 98 0
	bl _ZdlPv
.LVL1130:
.LBE6190:
.LBE6189:
.LBE6188:
.LBE6187:
	.loc 10 71 0
	cmpw 7,30,29
	beq- 7,.L1218
	.loc 10 74 0
	mr 3,30
	b .L1234
.LVL1131:
.L1228:
.LBE6186:
.LBE6185:
.LBE6184:
.LBE6183:
.LBE6182:
.LBE6181:
.LBB6191:
.LBB6152:
.LBB6147:
.LBB6148:
.LBB6149:
	.loc 1 343 0
	lwz 9,0(28)
	mr 31,3
.LVL1132:
	mr 3,28
	lwz 0,12(9)
	mtctr 0
	bctrl
	b .L1201
.LVL1133:
.L1218:
.LBE6149:
.LBE6148:
.LBE6147:
.LBE6152:
.LBE6191:
.LBB6192:
.LBB6193:
.LBB6194:
.LBB6195:
.LBB6196:
.LBB6197:
	.loc 1 105 0
	lis 9,_ZTVN7sigslot15single_threadedE+8@ha
	mr 3,31
	la 0,_ZTVN7sigslot15single_threadedE+8@l(9)
	stw 0,0(28)
.LEHB102:
	bl _Unwind_Resume
.LEHE102:
.LBE6197:
.LBE6196:
.LBE6195:
.LBE6194:
.LBE6193:
.LBE6192:
.LBE6202:
.LBE6207:
.LBE6212:
.LBE6217:
	.cfi_endproc
.LFE1515:
	.section	.gcc_except_table
.LLSDA1515:
	.byte	0xff
	.byte	0xff
	.byte	0x1
	.uleb128 .LLSDACSE1515-.LLSDACSB1515
.LLSDACSB1515:
	.uleb128 .LEHB99-.LFB1515
	.uleb128 .LEHE99-.LEHB99
	.uleb128 .L1227-.LFB1515
	.uleb128 0
	.uleb128 .LEHB100-.LFB1515
	.uleb128 .LEHE100-.LEHB100
	.uleb128 .L1228-.LFB1515
	.uleb128 0
	.uleb128 .LEHB101-.LFB1515
	.uleb128 .LEHE101-.LEHB101
	.uleb128 .L1227-.LFB1515
	.uleb128 0
	.uleb128 .LEHB102-.LFB1515
	.uleb128 .LEHE102-.LEHB102
	.uleb128 0
	.uleb128 0
.LLSDACSE1515:
	.section	.text._ZN7sigslot7signal3IP9GuiButtoniRK6_POINTNS_15single_threadedEED2Ev,"axG",@progbits,_ZN7sigslot7signal3IP9GuiButtoniRK6_POINTNS_15single_threadedEED5Ev,comdat
	.size	_ZN7sigslot7signal3IP9GuiButtoniRK6_POINTNS_15single_threadedEED2Ev, .-_ZN7sigslot7signal3IP9GuiButtoniRK6_POINTNS_15single_threadedEED2Ev
	.section	".text"
	.align 2
	.globl _ZN9GuiButtonC2Eii
	.type	_ZN9GuiButtonC2Eii, @function
_ZN9GuiButtonC2Eii:
.LFB1463:
	.loc 3 24 0
	.cfi_startproc
	.cfi_personality 0,__gxx_personality_v0
	.cfi_lsda 0,.LLSDA1463
.LVL1134:
	mflr 0
	stwu 1,-24(1)
.LCFI128:
	.cfi_def_cfa_offset 24
	.cfi_register 65, 0
	stw 29,12(1)
	mr 29,4
	.cfi_offset 29, -12
	stw 0,28(1)
	stw 30,16(1)
	mr 30,5
	.cfi_offset 30, -8
	.cfi_offset 65, 4
	stw 31,20(1)
	.loc 3 24 0
	mr 31,3
	.cfi_offset 31, -4
.LEHB103:
.LBB6268:
	bl _ZN10GuiElementC2Ev
.LEHE103:
.LVL1135:
.LBB6269:
.LBB6270:
	.loc 1 2292 0
	lis 9,_ZTVN7sigslot7signal3IP9GuiButtoniRK6_POINTNS_15single_threadedEEE+8@ha
.LBE6270:
.LBE6269:
	.loc 3 24 0
	lis 8,_ZTV9GuiButton+8@ha
.LBB6285:
.LBB6283:
	.loc 1 2292 0
	la 0,_ZTVN7sigslot7signal3IP9GuiButtoniRK6_POINTNS_15single_threadedEEE+8@l(9)
.LBB6271:
.LBB6272:
.LBB6273:
.LBB6274:
.LBB6275:
.LBB6276:
	.loc 4 380 0
	addi 10,31,148
.LBE6276:
.LBE6275:
.LBE6274:
.LBE6273:
.LBE6272:
.LBE6271:
.LBE6283:
.LBE6285:
.LBB6286:
.LBB6287:
.LBB6288:
.LBB6289:
.LBB6290:
.LBB6291:
.LBB6292:
.LBB6293:
	addi 11,31,160
.LBE6293:
.LBE6292:
.LBE6291:
.LBE6290:
.LBE6289:
.LBE6288:
.LBE6287:
.LBE6286:
.LBB6301:
.LBB6302:
.LBB6303:
.LBB6304:
.LBB6305:
.LBB6306:
.LBB6307:
.LBB6308:
	addi 9,31,172
.LBE6308:
.LBE6307:
.LBE6306:
.LBE6305:
.LBE6304:
.LBE6303:
.LBE6302:
.LBE6301:
	.loc 3 24 0
	la 8,_ZTV9GuiButton+8@l(8)
	stw 8,0(31)
.LVL1136:
.LBB6316:
.LBB6284:
.LBB6282:
.LBB6281:
.LBB6280:
.LBB6279:
.LBB6278:
.LBB6277:
	.loc 4 380 0
	stw 10,148(31)
	.loc 4 381 0
	stw 10,152(31)
.LBE6277:
.LBE6278:
.LBE6279:
.LBE6280:
.LBE6281:
.LBE6282:
	.loc 1 2292 0
	stw 0,144(31)
.LVL1137:
.LBE6284:
.LBE6316:
.LBB6317:
.LBB6300:
.LBB6299:
.LBB6298:
.LBB6297:
.LBB6296:
.LBB6295:
.LBB6294:
	.loc 4 380 0
	stw 11,160(31)
	.loc 4 381 0
	stw 11,164(31)
.LBE6294:
.LBE6295:
.LBE6296:
.LBE6297:
.LBE6298:
.LBE6299:
	.loc 1 2292 0
	stw 0,156(31)
.LVL1138:
.LBE6300:
.LBE6317:
.LBB6318:
.LBB6315:
.LBB6314:
.LBB6313:
.LBB6312:
.LBB6311:
.LBB6310:
.LBB6309:
	.loc 4 380 0
	stw 9,172(31)
	.loc 4 381 0
	stw 9,176(31)
.LBE6309:
.LBE6310:
.LBE6311:
.LBE6312:
.LBE6313:
.LBE6314:
	.loc 1 2292 0
	stw 0,168(31)
.LVL1139:
.LEHB104:
.LBE6315:
.LBE6318:
.LBB6319:
.LBB6320:
	.loc 7 57 0
	bl gettime
.LEHE104:
.LBE6320:
.LBE6319:
.LBB6322:
.LBB6323:
	.loc 3 41 0
	li 0,0
	.loc 3 62 0
	li 9,1
.LBE6323:
.LBE6322:
	.loc 3 26 0
	li 6,0
	.loc 3 27 0
	stw 29,36(31)
	.loc 3 28 0
	stw 30,40(31)
.LVL1140:
.LBB6328:
.LBB6326:
	.loc 3 41 0
	stw 0,184(31)
	.loc 3 42 0
	stw 0,188(31)
	.loc 3 43 0
	stw 0,192(31)
	.loc 3 44 0
	stw 0,196(31)
	.loc 3 45 0
	stw 0,200(31)
	.loc 3 46 0
	stw 0,204(31)
	.loc 3 47 0
	stw 0,208(31)
	.loc 3 48 0
	stw 0,212(31)
	.loc 3 49 0
	stw 0,276(31)
.LVL1141:
	stw 0,216(31)
	stw 0,220(31)
	stw 0,224(31)
	stw 0,228(31)
	stw 0,232(31)
	stw 0,236(31)
	stw 0,240(31)
	stw 0,244(31)
	stw 0,248(31)
	stw 0,252(31)
	stw 0,256(31)
	stw 0,260(31)
	.loc 3 59 0
	stw 0,264(31)
	.loc 3 60 0
	stw 0,268(31)
	.loc 3 61 0
	stw 0,272(31)
	.loc 3 63 0
	stb 0,32(31)
.LBB6324:
	.loc 3 67 0
	stw 0,288(31)
.LBE6324:
.LBE6326:
.LBE6328:
.LBB6329:
.LBB6321:
	.loc 7 57 0
	stw 3,280(31)
	stw 4,284(31)
.LBE6321:
.LBE6329:
	.loc 3 26 0
	stb 6,180(31)
.LBB6330:
.LBB6327:
	.loc 3 62 0
	stb 9,30(31)
	.loc 3 64 0
	stb 9,31(31)
.LVL1142:
.LBB6325:
	.loc 3 67 0
	stw 0,292(31)
.LVL1143:
	stw 0,296(31)
.LVL1144:
	stw 0,300(31)
.LVL1145:
	stw 0,304(31)
.LVL1146:
	stw 0,308(31)
.LVL1147:
.LBE6325:
.LBE6327:
.LBE6330:
.LBE6268:
	.loc 3 30 0
	lwz 0,28(1)
	lwz 29,12(1)
.LVL1148:
	mtlr 0
	lwz 30,16(1)
.LVL1149:
	lwz 31,20(1)
.LVL1150:
	addi 1,1,24
	.cfi_remember_state
.LCFI129:
	.cfi_def_cfa_offset 0
	.cfi_restore 31
	.cfi_restore 30
	.cfi_restore 29
	blr
.LVL1151:
.L1237:
.LCFI130:
	.cfi_restore_state
	mr 30,3
.LVL1152:
.LBB6331:
	.loc 3 24 0
	addi 3,31,168
	bl _ZN7sigslot7signal3IP9GuiButtoniRK6_POINTNS_15single_threadedEED1Ev
	addi 3,31,156
	bl _ZN7sigslot7signal3IP9GuiButtoniRK6_POINTNS_15single_threadedEED1Ev
	addi 3,31,144
	bl _ZN7sigslot7signal3IP9GuiButtoniRK6_POINTNS_15single_threadedEED1Ev
	mr 3,31
	bl _ZN10GuiElementD2Ev
	mr 3,30
.LEHB105:
	bl _Unwind_Resume
.LEHE105:
.LBE6331:
	.cfi_endproc
.LFE1463:
	.section	.gcc_except_table
.LLSDA1463:
	.byte	0xff
	.byte	0xff
	.byte	0x1
	.uleb128 .LLSDACSE1463-.LLSDACSB1463
.LLSDACSB1463:
	.uleb128 .LEHB103-.LFB1463
	.uleb128 .LEHE103-.LEHB103
	.uleb128 0
	.uleb128 0
	.uleb128 .LEHB104-.LFB1463
	.uleb128 .LEHE104-.LEHB104
	.uleb128 .L1237-.LFB1463
	.uleb128 0
	.uleb128 .LEHB105-.LFB1463
	.uleb128 .LEHE105-.LEHB105
	.uleb128 0
	.uleb128 0
.LLSDACSE1463:
	.section	".text"
	.size	_ZN9GuiButtonC2Eii, .-_ZN9GuiButtonC2Eii
	.align 2
	.globl _ZN9GuiButtonD2Ev
	.type	_ZN9GuiButtonD2Ev, @function
_ZN9GuiButtonD2Ev:
.LFB1466:
	.loc 3 35 0
	.cfi_startproc
	.cfi_personality 0,__gxx_personality_v0
	.cfi_lsda 0,.LLSDA1466
.LVL1153:
	mflr 0
	stwu 1,-56(1)
.LCFI131:
	.cfi_def_cfa_offset 56
	.cfi_register 65, 0
.LBB6830:
	lis 9,_ZTV9GuiButton+8@ha
.LBE6830:
	stw 27,36(1)
.LBB7447:
.LBB6831:
.LBB6832:
.LBB6833:
.LBB6834:
.LBB6835:
.LBB6836:
	.loc 1 946 0
	lis 27,_ZTVN7sigslot13_signal_base3IP9GuiButtoniRK6_POINTNS_15single_threadedEEE+8@ha
	.cfi_offset 27, -20
.LBE6836:
.LBE6835:
.LBE6834:
.LBE6833:
.LBE6832:
.LBE6831:
.LBE7447:
	.loc 3 35 0
	stw 0,60(1)
.LBB7448:
	la 0,_ZTV9GuiButton+8@l(9)
	.cfi_offset 65, 4
.LBB6986:
.LBB6976:
.LBB6966:
.LBB6955:
.LBB6944:
.LBB6933:
.LBB6837:
.LBB6838:
.LBB6839:
.LBB6840:
	.loc 1 338 0
	lis 9,_ZN7sigslot15single_threaded4lockEv@ha
.LBE6840:
.LBE6839:
.LBE6838:
.LBE6837:
.LBE6933:
.LBE6944:
.LBE6955:
.LBE6966:
.LBE6976:
.LBE6986:
.LBE7448:
	.loc 3 35 0
	stw 26,32(1)
.LBB7449:
.LBB6987:
.LBB6977:
.LBB6967:
.LBB6956:
.LBB6945:
.LBB6934:
	.loc 1 946 0
	la 27,_ZTVN7sigslot13_signal_base3IP9GuiButtoniRK6_POINTNS_15single_threadedEEE+8@l(27)
.LBE6934:
.LBE6945:
.LBE6956:
	.loc 1 2305 0
	addi 26,3,168
	.cfi_offset 26, -24
.LBB6957:
.LBB6946:
.LBB6935:
.LBB6879:
.LBB6873:
.LBB6844:
.LBB6841:
	.loc 1 338 0
	la 9,_ZN7sigslot15single_threaded4lockEv@l(9)
.LBE6841:
.LBE6844:
.LBE6873:
.LBE6879:
.LBE6935:
.LBE6946:
.LBE6957:
.LBE6967:
.LBE6977:
.LBE6987:
.LBE7449:
	.loc 3 35 0
	stw 28,40(1)
	stw 29,44(1)
.LBB7450:
.LBB6988:
.LBB6978:
.LBB6968:
.LBB6958:
.LBB6947:
.LBB6936:
.LBB6880:
.LBB6874:
.LBB6845:
.LBB6842:
	.loc 1 338 0
	mtctr 9
.LBE6842:
.LBE6845:
.LBE6874:
.LBE6880:
.LBE6936:
.LBE6947:
.LBE6958:
.LBE6968:
.LBE6978:
.LBE6988:
.LBE7450:
	.loc 3 35 0
	stw 25,28(1)
	mr 29,3
	.cfi_offset 25, -28
	.cfi_offset 29, -12
	.cfi_offset 28, -16
	stw 30,48(1)
	addi 28,29,172
	stw 31,52(1)
.LBB7451:
	.loc 3 35 0
	stw 0,0(3)
.LVL1154:
.LBB6989:
.LBB6979:
.LBB6969:
.LBB6959:
.LBB6948:
.LBB6937:
	.loc 1 946 0
	stw 27,168(3)
.LVL1155:
.LBB6881:
.LBB6875:
.LBB6846:
.LBB6843:
	.loc 1 338 0
	mr 3,26
.LVL1156:
.LEHB106:
	.cfi_offset 31, -4
	.cfi_offset 30, -8
	bctrl
.LEHE106:
.LBE6843:
.LBE6846:
.LBE6875:
	.loc 3 406 0
	mr 28,29
	lwzu 31,172(28)
.LVL1157:
.LBB6876:
	.loc 1 954 0
	cmpw 7,31,28
	beq- 7,.L1240
.LVL1158:
.L1439:
	.loc 1 956 0
	lwz 3,8(31)
	lwz 9,0(3)
	lwz 0,8(9)
	mtctr 0
.LEHB107:
	bctrl
	stw 26,8(1)
	mr 30,3
.LVL1159:
.LBB6847:
.LBB6848:
.LBB6849:
.LBB6850:
	.loc 1 338 0
	lwz 9,0(3)
	lwz 0,8(9)
	mtctr 0
	bctrl
.LVL1160:
.LBE6850:
.LBE6849:
.LBB6851:
.LBB6852:
	.loc 9 528 0
	addi 3,30,4
	addi 4,1,8
	bl _ZNSt8_Rb_treeIPN7sigslot12_signal_baseINS0_15single_threadedEEES4_St9_IdentityIS4_ESt4lessIS4_ESaIS4_EE5eraseERKS4_
.LVL1161:
.LBE6852:
.LBE6851:
.LBB6853:
.LBB6854:
.LBB6855:
	.loc 1 343 0
	lwz 9,0(30)
	mr 3,30
	lwz 0,12(9)
	mtctr 0
	bctrl
.LVL1162:
.LBE6855:
.LBE6854:
.LBE6853:
.LBE6848:
.LBE6847:
	.loc 1 957 0
	lwz 3,8(31)
	cmpwi 7,3,0
	beq- 7,.L1242
	lwz 9,0(3)
	lwz 0,4(9)
	mtctr 0
	bctrl
.LEHE107:
.L1242:
.LVL1163:
.LBB6856:
.LBB6857:
	.loc 4 234 0
	lwz 31,0(31)
.LVL1164:
.LBE6857:
.LBE6856:
	.loc 1 954 0
	cmpw 7,28,31
	bne+ 7,.L1439
.LBE6876:
	.loc 3 406 0
	lwz 31,172(29)
.LVL1165:
.LBB6877:
.LBB6858:
.LBB6859:
	.loc 4 1162 0
	cmpw 7,28,31
	bne+ 7,.L1445
	b .L1240
.LVL1166:
.L1410:
	.loc 4 1163 0
	mr 31,30
.LVL1167:
.L1445:
.LBB6860:
.LBB6861:
	.loc 10 112 0
	lwz 30,0(31)
.LVL1168:
.LBB6862:
.LBB6863:
	.loc 4 1532 0
	mr 3,31
	bl _ZNSt8__detail15_List_node_base9_M_unhookEv
.LVL1169:
.LBB6864:
.LBB6865:
.LBB6866:
	.loc 6 98 0
	mr 3,31
	bl _ZdlPv
.LVL1170:
.LBE6866:
.LBE6865:
.LBE6864:
.LBE6863:
.LBE6862:
.LBE6861:
.LBE6860:
	.loc 4 1162 0
	cmpw 7,28,30
	bne+ 7,.L1410
.LVL1171:
.L1240:
.LBE6859:
.LBE6858:
.LBB6867:
.LBB6868:
.LBB6869:
	.loc 1 343 0
	lwz 9,168(29)
	mr 3,26
	lwz 0,12(9)
	mtctr 0
.LEHB108:
	bctrl
.LEHE108:
.LBE6869:
.LBE6868:
.LBE6867:
.LBE6877:
.LBE6881:
.LBB6882:
.LBB6883:
.LBB6884:
.LBB6885:
.LBB6886:
.LBB6887:
	.loc 10 70 0
	lwz 3,172(29)
.LVL1172:
	.loc 10 71 0
	cmpw 7,3,28
	bne+ 7,.L1447
	b .L1258
.LVL1173:
.L1411:
	.loc 10 74 0
	mr 3,31
.LVL1174:
.L1447:
.LBB6888:
	lwz 31,0(3)
.LVL1175:
.LBB6889:
.LBB6890:
.LBB6891:
	.loc 6 98 0
	bl _ZdlPv
.LVL1176:
.LBE6891:
.LBE6890:
.LBE6889:
.LBE6888:
	.loc 10 71 0
	cmpw 7,31,28
	bne+ 7,.L1411
.LVL1177:
.L1258:
.LBE6887:
.LBE6886:
.LBE6885:
.LBE6884:
.LBE6883:
.LBE6882:
.LBB6892:
.LBB6893:
.LBB6894:
.LBB6895:
.LBB6896:
.LBB6897:
	.loc 1 105 0
	lis 28,_ZTVN7sigslot15single_threadedE+8@ha
.LVL1178:
.LBE6897:
.LBE6896:
.LBE6895:
.LBE6894:
.LBE6893:
.LBE6892:
.LBE6937:
.LBE6948:
.LBE6959:
.LBE6969:
.LBE6979:
.LBE6989:
.LBB6990:
.LBB6991:
.LBB6992:
.LBB6993:
.LBB6994:
.LBB6995:
.LBB6996:
.LBB6997:
.LBB6998:
.LBB6999:
	.loc 1 338 0
	lis 9,_ZN7sigslot15single_threaded4lockEv@ha
.LBE6999:
.LBE6998:
.LBE6997:
.LBE6996:
.LBE6995:
.LBE6994:
.LBE6993:
.LBE6992:
.LBE6991:
.LBE6990:
.LBB7095:
.LBB6980:
.LBB6970:
.LBB6960:
.LBB6949:
.LBB6938:
.LBB6908:
.LBB6906:
.LBB6904:
.LBB6902:
.LBB6900:
.LBB6898:
	.loc 1 105 0
	la 28,_ZTVN7sigslot15single_threadedE+8@l(28)
.LBE6898:
.LBE6900:
.LBE6902:
.LBE6904:
.LBE6906:
.LBE6908:
.LBE6938:
.LBE6949:
.LBE6960:
.LBE6970:
.LBE6980:
.LBE7095:
.LBB7096:
.LBB7090:
.LBB7085:
	.loc 1 2305 0
	addi 25,29,156
.LBB7080:
.LBB7075:
.LBB7070:
.LBB7035:
.LBB7030:
.LBB7002:
.LBB7000:
	.loc 1 338 0
	la 9,_ZN7sigslot15single_threaded4lockEv@l(9)
.LBE7000:
.LBE7002:
.LBE7030:
.LBE7035:
.LBE7070:
.LBE7075:
.LBE7080:
.LBE7085:
.LBE7090:
.LBE7096:
.LBB7097:
.LBB6981:
.LBB6971:
.LBB6961:
.LBB6950:
.LBB6939:
.LBB6909:
.LBB6907:
.LBB6905:
.LBB6903:
.LBB6901:
.LBB6899:
	.loc 1 105 0
	stw 28,168(29)
.LVL1179:
.LBE6899:
.LBE6901:
.LBE6903:
.LBE6905:
.LBE6907:
.LBE6909:
.LBE6939:
.LBE6950:
.LBE6961:
.LBE6971:
.LBE6981:
.LBE7097:
.LBB7098:
.LBB7091:
.LBB7086:
.LBB7081:
.LBB7076:
.LBB7071:
	.loc 1 946 0
	stw 27,156(29)
.LVL1180:
.LBB7036:
.LBB7031:
.LBB7003:
.LBB7001:
	.loc 1 338 0
	mr 3,25
	mtctr 9
	addi 26,29,160
.LVL1181:
.LEHB109:
	bctrl
.LEHE109:
.LBE7001:
.LBE7003:
.LBE7031:
	.loc 3 406 0
	mr 26,29
	lwzu 31,160(26)
.LVL1182:
.LBB7032:
	.loc 1 954 0
	cmpw 7,31,26
	beq- 7,.L1274
.LVL1183:
.L1438:
	.loc 1 956 0
	lwz 3,8(31)
	lwz 9,0(3)
	lwz 0,8(9)
	mtctr 0
.LEHB110:
	bctrl
	stw 25,8(1)
	mr 30,3
.LVL1184:
.LBB7004:
.LBB7005:
.LBB7006:
.LBB7007:
	.loc 1 338 0
	lwz 9,0(3)
	lwz 0,8(9)
	mtctr 0
	bctrl
.LVL1185:
.LBE7007:
.LBE7006:
.LBB7008:
.LBB7009:
	.loc 9 528 0
	addi 3,30,4
	addi 4,1,8
.LVL1186:
	bl _ZNSt8_Rb_treeIPN7sigslot12_signal_baseINS0_15single_threadedEEES4_St9_IdentityIS4_ESt4lessIS4_ESaIS4_EE5eraseERKS4_
.LVL1187:
.LBE7009:
.LBE7008:
.LBB7010:
.LBB7011:
.LBB7012:
	.loc 1 343 0
	lwz 9,0(30)
	mr 3,30
	lwz 0,12(9)
	mtctr 0
	bctrl
.LVL1188:
.LBE7012:
.LBE7011:
.LBE7010:
.LBE7005:
.LBE7004:
	.loc 1 957 0
	lwz 3,8(31)
	cmpwi 7,3,0
	beq- 7,.L1276
	lwz 9,0(3)
	lwz 0,4(9)
	mtctr 0
	bctrl
.LEHE110:
.L1276:
.LVL1189:
.LBB7013:
.LBB7014:
	.loc 4 234 0
	lwz 31,0(31)
.LVL1190:
.LBE7014:
.LBE7013:
	.loc 1 954 0
	cmpw 7,26,31
	bne+ 7,.L1438
.LBE7032:
	.loc 3 406 0
	lwz 31,160(29)
.LVL1191:
.LBB7033:
.LBB7015:
.LBB7016:
	.loc 4 1162 0
	cmpw 7,26,31
	bne+ 7,.L1450
	b .L1274
.LVL1192:
.L1413:
	.loc 4 1163 0
	mr 31,30
.LVL1193:
.L1450:
.LBB7017:
.LBB7018:
	.loc 10 112 0
	lwz 30,0(31)
.LVL1194:
.LBB7019:
.LBB7020:
	.loc 4 1532 0
	mr 3,31
	bl _ZNSt8__detail15_List_node_base9_M_unhookEv
.LVL1195:
.LBB7021:
.LBB7022:
.LBB7023:
	.loc 6 98 0
	mr 3,31
	bl _ZdlPv
.LVL1196:
.LBE7023:
.LBE7022:
.LBE7021:
.LBE7020:
.LBE7019:
.LBE7018:
.LBE7017:
	.loc 4 1162 0
	cmpw 7,26,30
	bne+ 7,.L1413
.LVL1197:
.L1274:
.LBE7016:
.LBE7015:
.LBB7024:
.LBB7025:
.LBB7026:
	.loc 1 343 0
	lwz 9,156(29)
	mr 3,25
	lwz 0,12(9)
	mtctr 0
.LEHB111:
	bctrl
.LEHE111:
.LVL1198:
.LBE7026:
.LBE7025:
.LBE7024:
.LBE7033:
.LBE7036:
.LBB7037:
.LBB7038:
.LBB7039:
.LBB7040:
.LBB7041:
.LBB7042:
	.loc 10 70 0
	lwz 3,160(29)
.LVL1199:
	.loc 10 71 0
	cmpw 7,3,26
	bne+ 7,.L1452
	b .L1292
.LVL1200:
.L1414:
	.loc 10 74 0
	mr 3,31
.LVL1201:
.L1452:
.LBB7043:
	lwz 31,0(3)
.LVL1202:
.LBB7044:
.LBB7045:
.LBB7046:
	.loc 6 98 0
	bl _ZdlPv
.LVL1203:
.LBE7046:
.LBE7045:
.LBE7044:
.LBE7043:
	.loc 10 71 0
	cmpw 7,31,26
	bne+ 7,.L1414
.LVL1204:
.L1292:
.LBE7042:
.LBE7041:
.LBE7040:
.LBE7039:
.LBE7038:
.LBE7037:
.LBE7071:
.LBE7076:
.LBE7081:
.LBE7086:
.LBE7091:
.LBE7098:
.LBB7099:
.LBB7100:
.LBB7101:
.LBB7102:
.LBB7103:
.LBB7104:
.LBB7105:
.LBB7106:
.LBB7107:
.LBB7108:
	.loc 1 338 0
	lis 9,_ZN7sigslot15single_threaded4lockEv@ha
.LBE7108:
.LBE7107:
.LBE7106:
.LBE7105:
.LBE7104:
.LBE7103:
.LBE7102:
	.loc 1 2305 0
	addi 26,29,144
.LVL1205:
.LBB7189:
.LBB7184:
.LBB7179:
.LBB7144:
.LBB7139:
.LBB7111:
.LBB7109:
	.loc 1 338 0
	la 9,_ZN7sigslot15single_threaded4lockEv@l(9)
.LBE7109:
.LBE7111:
.LBE7139:
.LBE7144:
	.loc 1 946 0
	stw 27,144(29)
.LBE7179:
.LBE7184:
.LBE7189:
.LBE7101:
.LBE7100:
.LBE7099:
.LBB7202:
.LBB7092:
.LBB7087:
.LBB7082:
.LBB7077:
.LBB7072:
.LBB7047:
.LBB7048:
.LBB7049:
.LBB7050:
.LBB7051:
.LBB7052:
	.loc 1 105 0
	stw 28,156(29)
.LVL1206:
.LBE7052:
.LBE7051:
.LBE7050:
.LBE7049:
.LBE7048:
.LBE7047:
.LBE7072:
.LBE7077:
.LBE7082:
.LBE7087:
.LBE7092:
.LBE7202:
.LBB7203:
.LBB7198:
.LBB7194:
.LBB7190:
.LBB7185:
.LBB7180:
.LBB7145:
.LBB7140:
.LBB7112:
.LBB7110:
	.loc 1 338 0
	mr 3,26
	mtctr 9
	addi 27,29,148
.LEHB112:
	bctrl
.LEHE112:
.LBE7110:
.LBE7112:
.LBE7140:
	.loc 3 406 0
	mr 27,29
	lwzu 31,148(27)
.LVL1207:
.LBB7141:
	.loc 1 954 0
	cmpw 7,31,27
	beq- 7,.L1307
.LVL1208:
.L1437:
	.loc 1 956 0
	lwz 3,8(31)
	lwz 9,0(3)
	lwz 0,8(9)
	mtctr 0
.LEHB113:
	bctrl
	stw 26,8(1)
	mr 30,3
.LVL1209:
.LBB7113:
.LBB7114:
.LBB7115:
.LBB7116:
	.loc 1 338 0
	lwz 9,0(3)
	lwz 0,8(9)
	mtctr 0
	bctrl
.LVL1210:
.LBE7116:
.LBE7115:
.LBB7117:
.LBB7118:
	.loc 9 528 0
	addi 3,30,4
	addi 4,1,8
.LVL1211:
	bl _ZNSt8_Rb_treeIPN7sigslot12_signal_baseINS0_15single_threadedEEES4_St9_IdentityIS4_ESt4lessIS4_ESaIS4_EE5eraseERKS4_
.LVL1212:
.LBE7118:
.LBE7117:
.LBB7119:
.LBB7120:
.LBB7121:
	.loc 1 343 0
	lwz 9,0(30)
	mr 3,30
	lwz 0,12(9)
	mtctr 0
	bctrl
.LVL1213:
.LBE7121:
.LBE7120:
.LBE7119:
.LBE7114:
.LBE7113:
	.loc 1 957 0
	lwz 3,8(31)
	cmpwi 7,3,0
	beq- 7,.L1309
	lwz 9,0(3)
	lwz 0,4(9)
	mtctr 0
	bctrl
.LEHE113:
.L1309:
.LVL1214:
.LBB7122:
.LBB7123:
	.loc 4 234 0
	lwz 31,0(31)
.LVL1215:
.LBE7123:
.LBE7122:
	.loc 1 954 0
	cmpw 7,27,31
	bne+ 7,.L1437
.LBE7141:
	.loc 3 406 0
	lwz 31,148(29)
.LVL1216:
.LBB7142:
.LBB7124:
.LBB7125:
	.loc 4 1162 0
	cmpw 7,27,31
	bne+ 7,.L1455
	b .L1307
.LVL1217:
.L1416:
	.loc 4 1163 0
	mr 31,30
.LVL1218:
.L1455:
.LBB7126:
.LBB7127:
	.loc 10 112 0
	lwz 30,0(31)
.LVL1219:
.LBB7128:
.LBB7129:
	.loc 4 1532 0
	mr 3,31
	bl _ZNSt8__detail15_List_node_base9_M_unhookEv
.LVL1220:
.LBB7130:
.LBB7131:
.LBB7132:
	.loc 6 98 0
	mr 3,31
	bl _ZdlPv
.LVL1221:
.LBE7132:
.LBE7131:
.LBE7130:
.LBE7129:
.LBE7128:
.LBE7127:
.LBE7126:
	.loc 4 1162 0
	cmpw 7,27,30
	bne+ 7,.L1416
.LVL1222:
.L1307:
.LBE7125:
.LBE7124:
.LBB7133:
.LBB7134:
.LBB7135:
	.loc 1 343 0
	lwz 9,144(29)
	mr 3,26
	lwz 0,12(9)
	mtctr 0
.LEHB114:
	bctrl
.LEHE114:
.LBE7135:
.LBE7134:
.LBE7133:
.LBE7142:
.LBE7145:
.LBB7146:
.LBB7147:
.LBB7148:
.LBB7149:
.LBB7150:
.LBB7151:
	.loc 10 70 0
	lwz 3,148(29)
.LVL1223:
	.loc 10 71 0
	cmpw 7,3,27
	bne+ 7,.L1457
	b .L1325
.LVL1224:
.L1417:
	.loc 10 74 0
	mr 3,31
.LVL1225:
.L1457:
.LBB7152:
	lwz 31,0(3)
.LVL1226:
.LBB7153:
.LBB7154:
.LBB7155:
	.loc 6 98 0
	bl _ZdlPv
.LVL1227:
.LBE7155:
.LBE7154:
.LBE7153:
.LBE7152:
	.loc 10 71 0
	cmpw 7,31,27
	bne+ 7,.L1417
.LVL1228:
.L1325:
.LBE7151:
.LBE7150:
.LBE7149:
.LBE7148:
.LBE7147:
.LBE7146:
.LBE7180:
.LBE7185:
.LBE7190:
.LBE7194:
.LBE7198:
.LBE7203:
.LBB7204:
.LBB7205:
.LBB7206:
	.loc 2 89 0
	lis 9,_ZTV10GuiElement+8@ha
.LBB7207:
.LBB7208:
.LBB7209:
	.loc 1 2305 0
	addi 26,29,16
.LVL1229:
.LBE7209:
.LBE7208:
.LBE7207:
	.loc 2 89 0
	la 0,_ZTV10GuiElement+8@l(9)
.LBB7314:
.LBB7308:
.LBB7302:
.LBB7210:
.LBB7211:
.LBB7212:
	.loc 1 946 0
	lis 9,_ZTVN7sigslot13_signal_base3IP10GuiElementiiNS_15single_threadedEEE+8@ha
.LBE7212:
.LBE7211:
.LBE7210:
.LBE7302:
.LBE7308:
.LBE7314:
	.loc 2 89 0
	stw 0,0(29)
.LBB7315:
.LBB7309:
.LBB7303:
.LBB7297:
.LBB7292:
.LBB7287:
	.loc 1 946 0
	la 0,_ZTVN7sigslot13_signal_base3IP10GuiElementiiNS_15single_threadedEEE+8@l(9)
.LBB7213:
.LBB7214:
.LBB7215:
.LBB7216:
	.loc 1 338 0
	lis 9,_ZN7sigslot15single_threaded4lockEv@ha
.LBE7216:
.LBE7215:
.LBE7214:
.LBE7213:
.LBE7287:
.LBE7292:
.LBE7297:
.LBE7303:
.LBE7309:
.LBE7315:
.LBE7206:
.LBE7205:
.LBE7204:
.LBB7433:
.LBB7199:
.LBB7195:
.LBB7191:
.LBB7186:
.LBB7181:
.LBB7156:
.LBB7157:
.LBB7158:
.LBB7159:
.LBB7160:
.LBB7161:
	.loc 1 105 0
	stw 28,144(29)
.LVL1230:
.LBE7161:
.LBE7160:
.LBE7159:
.LBE7158:
.LBE7157:
.LBE7156:
.LBE7181:
.LBE7186:
.LBE7191:
.LBE7195:
.LBE7199:
.LBE7433:
.LBB7434:
.LBB7428:
.LBB7423:
.LBB7316:
.LBB7310:
.LBB7304:
.LBB7298:
.LBB7293:
.LBB7288:
.LBB7252:
.LBB7247:
.LBB7219:
.LBB7217:
	.loc 1 338 0
	la 9,_ZN7sigslot15single_threaded4lockEv@l(9)
.LBE7217:
.LBE7219:
.LBE7247:
.LBE7252:
	.loc 1 946 0
	stw 0,16(29)
.LVL1231:
.LBB7253:
.LBB7248:
.LBB7220:
.LBB7218:
	.loc 1 338 0
	mr 3,26
	mtctr 9
	addi 27,29,20
.LVL1232:
.LEHB115:
	bctrl
.LEHE115:
.LBE7218:
.LBE7220:
.LBE7248:
	.loc 3 406 0
	mr 27,29
	lwzu 31,20(27)
.LVL1233:
.LBB7249:
	.loc 1 954 0
	cmpw 7,31,27
	beq- 7,.L1342
.LVL1234:
.L1436:
	.loc 1 956 0
	lwz 3,8(31)
	lwz 9,0(3)
	lwz 0,8(9)
	mtctr 0
.LEHB116:
	bctrl
	stw 26,8(1)
	mr 30,3
.LVL1235:
.LBB7221:
.LBB7222:
.LBB7223:
.LBB7224:
	.loc 1 338 0
	lwz 9,0(3)
	lwz 0,8(9)
	mtctr 0
	bctrl
.LVL1236:
.LBE7224:
.LBE7223:
.LBB7225:
.LBB7226:
	.loc 9 528 0
	addi 3,30,4
	addi 4,1,8
.LVL1237:
	bl _ZNSt8_Rb_treeIPN7sigslot12_signal_baseINS0_15single_threadedEEES4_St9_IdentityIS4_ESt4lessIS4_ESaIS4_EE5eraseERKS4_
.LVL1238:
.LBE7226:
.LBE7225:
.LBB7227:
.LBB7228:
.LBB7229:
	.loc 1 343 0
	lwz 9,0(30)
	mr 3,30
	lwz 0,12(9)
	mtctr 0
	bctrl
.LVL1239:
.LBE7229:
.LBE7228:
.LBE7227:
.LBE7222:
.LBE7221:
	.loc 1 957 0
	lwz 3,8(31)
	cmpwi 7,3,0
	beq- 7,.L1344
	lwz 9,0(3)
	lwz 0,4(9)
	mtctr 0
	bctrl
.LEHE116:
.L1344:
.LVL1240:
.LBB7230:
.LBB7231:
	.loc 4 234 0
	lwz 31,0(31)
.LVL1241:
.LBE7231:
.LBE7230:
	.loc 1 954 0
	cmpw 7,27,31
	bne+ 7,.L1436
.LBE7249:
	.loc 3 406 0
	lwz 31,20(29)
.LVL1242:
.LBB7250:
.LBB7232:
.LBB7233:
	.loc 4 1162 0
	cmpw 7,27,31
	bne+ 7,.L1460
	b .L1342
.LVL1243:
.L1419:
	.loc 4 1163 0
	mr 31,30
.LVL1244:
.L1460:
.LBB7234:
.LBB7235:
	.loc 10 112 0
	lwz 30,0(31)
.LVL1245:
.LBB7236:
.LBB7237:
	.loc 4 1532 0
	mr 3,31
	bl _ZNSt8__detail15_List_node_base9_M_unhookEv
.LVL1246:
.LBB7238:
.LBB7239:
.LBB7240:
	.loc 6 98 0
	mr 3,31
	bl _ZdlPv
.LVL1247:
.LBE7240:
.LBE7239:
.LBE7238:
.LBE7237:
.LBE7236:
.LBE7235:
.LBE7234:
	.loc 4 1162 0
	cmpw 7,27,30
	bne+ 7,.L1419
.LVL1248:
.L1342:
.LBE7233:
.LBE7232:
.LBB7241:
.LBB7242:
.LBB7243:
	.loc 1 343 0
	lwz 9,16(29)
	mr 3,26
	lwz 0,12(9)
	mtctr 0
.LEHB117:
	bctrl
.LEHE117:
.LBE7243:
.LBE7242:
.LBE7241:
.LBE7250:
.LBE7253:
.LBB7254:
.LBB7255:
.LBB7256:
.LBB7257:
.LBB7258:
.LBB7259:
	.loc 10 70 0
	lwz 3,20(29)
.LVL1249:
	.loc 10 71 0
	cmpw 7,3,27
	bne+ 7,.L1462
	b .L1360
.LVL1250:
.L1420:
	.loc 10 74 0
	mr 3,31
.LVL1251:
.L1462:
.LBB7260:
	lwz 31,0(3)
.LVL1252:
.LBB7261:
.LBB7262:
.LBB7263:
	.loc 6 98 0
	bl _ZdlPv
.LVL1253:
.LBE7263:
.LBE7262:
.LBE7261:
.LBE7260:
	.loc 10 71 0
	cmpw 7,31,27
	bne+ 7,.L1420
.LVL1254:
.L1360:
.LBE7259:
.LBE7258:
.LBE7257:
.LBE7256:
.LBE7255:
.LBE7254:
.LBE7288:
.LBE7293:
.LBE7298:
.LBE7304:
.LBE7310:
.LBE7316:
.LBB7317:
.LBB7318:
.LBB7319:
.LBB7320:
.LBB7321:
.LBB7322:
	.loc 1 826 0
	lis 9,_ZTVN7sigslot13_signal_base2IP10GuiElementbNS_15single_threadedEEE+8@ha
.LBE7322:
.LBE7321:
.LBE7320:
	.loc 1 2238 0
	addi 26,29,4
.LVL1255:
.LBB7403:
.LBB7398:
.LBB7393:
	.loc 1 826 0
	la 0,_ZTVN7sigslot13_signal_base2IP10GuiElementbNS_15single_threadedEEE+8@l(9)
.LBB7323:
.LBB7324:
.LBB7325:
.LBB7326:
	.loc 1 338 0
	lis 9,_ZN7sigslot15single_threaded4lockEv@ha
	la 9,_ZN7sigslot15single_threaded4lockEv@l(9)
.LBE7326:
.LBE7325:
.LBE7324:
.LBE7323:
.LBE7393:
.LBE7398:
.LBE7403:
.LBE7319:
.LBE7318:
.LBE7317:
.LBB7416:
.LBB7311:
.LBB7305:
.LBB7299:
.LBB7294:
.LBB7289:
.LBB7264:
.LBB7265:
.LBB7266:
.LBB7267:
.LBB7268:
.LBB7269:
	.loc 1 105 0
	stw 28,16(29)
.LVL1256:
.LBE7269:
.LBE7268:
.LBE7267:
.LBE7266:
.LBE7265:
.LBE7264:
.LBE7289:
.LBE7294:
.LBE7299:
.LBE7305:
.LBE7311:
.LBE7416:
.LBB7417:
.LBB7412:
.LBB7408:
.LBB7404:
.LBB7399:
.LBB7394:
	.loc 1 826 0
	stw 0,4(29)
.LVL1257:
.LBB7359:
.LBB7355:
.LBB7328:
.LBB7327:
	.loc 1 338 0
	mr 3,26
	mtctr 9
	addi 27,29,8
.LVL1258:
.LEHB118:
	bctrl
.LEHE118:
.LBE7327:
.LBE7328:
.LBE7355:
	.loc 3 406 0
	mr 27,29
	lwzu 31,8(27)
.LVL1259:
.LBB7356:
	.loc 1 834 0
	cmpw 7,31,27
	beq- 7,.L1375
.LVL1260:
.L1435:
	.loc 1 836 0
	lwz 3,8(31)
	lwz 9,0(3)
	lwz 0,8(9)
	mtctr 0
.LEHB119:
	bctrl
	stw 26,8(1)
	mr 30,3
.LVL1261:
.LBB7329:
.LBB7330:
.LBB7331:
.LBB7332:
	.loc 1 338 0
	lwz 9,0(3)
	lwz 0,8(9)
	mtctr 0
	bctrl
.LVL1262:
.LBE7332:
.LBE7331:
.LBB7333:
.LBB7334:
	.loc 9 528 0
	addi 3,30,4
	addi 4,1,8
.LVL1263:
	bl _ZNSt8_Rb_treeIPN7sigslot12_signal_baseINS0_15single_threadedEEES4_St9_IdentityIS4_ESt4lessIS4_ESaIS4_EE5eraseERKS4_
.LVL1264:
.LBE7334:
.LBE7333:
.LBB7335:
.LBB7336:
.LBB7337:
	.loc 1 343 0
	lwz 9,0(30)
	mr 3,30
	lwz 0,12(9)
	mtctr 0
	bctrl
.LVL1265:
.LBE7337:
.LBE7336:
.LBE7335:
.LBE7330:
.LBE7329:
	.loc 1 837 0
	lwz 3,8(31)
	cmpwi 7,3,0
	beq- 7,.L1377
	lwz 9,0(3)
	lwz 0,4(9)
	mtctr 0
	bctrl
.LEHE119:
.L1377:
.LVL1266:
.LBB7338:
.LBB7339:
	.loc 4 234 0
	lwz 31,0(31)
.LVL1267:
.LBE7339:
.LBE7338:
	.loc 1 834 0
	cmpw 7,27,31
	bne+ 7,.L1435
.LBE7356:
	.loc 3 406 0
	lwz 31,8(29)
.LVL1268:
.LBB7357:
.LBB7340:
.LBB7341:
	.loc 4 1162 0
	cmpw 7,27,31
	bne+ 7,.L1465
	b .L1375
.LVL1269:
.L1422:
	.loc 4 1163 0
	mr 31,30
.LVL1270:
.L1465:
.LBB7342:
.LBB7343:
	.loc 10 112 0
	lwz 30,0(31)
.LVL1271:
.LBB7344:
.LBB7345:
	.loc 4 1532 0
	mr 3,31
	bl _ZNSt8__detail15_List_node_base9_M_unhookEv
.LVL1272:
.LBB7346:
.LBB7347:
.LBB7348:
	.loc 6 98 0
	mr 3,31
	bl _ZdlPv
.LVL1273:
.LBE7348:
.LBE7347:
.LBE7346:
.LBE7345:
.LBE7344:
.LBE7343:
.LBE7342:
	.loc 4 1162 0
	cmpw 7,27,30
	bne+ 7,.L1422
.LVL1274:
.L1375:
.LBE7341:
.LBE7340:
.LBB7349:
.LBB7350:
.LBB7351:
	.loc 1 343 0
	lwz 9,4(29)
	mr 3,26
	lwz 0,12(9)
	mtctr 0
.LEHB120:
	bctrl
.LEHE120:
.LBE7351:
.LBE7350:
.LBE7349:
.LBE7357:
.LBE7359:
.LBB7360:
.LBB7361:
.LBB7362:
.LBB7363:
.LBB7364:
.LBB7365:
	.loc 10 70 0
	lwz 3,8(29)
.LVL1275:
	.loc 10 71 0
	cmpw 7,3,27
	bne+ 7,.L1467
	b .L1393
.LVL1276:
.L1423:
	.loc 10 74 0
	mr 3,31
.LVL1277:
.L1467:
.LBB7366:
	lwz 31,0(3)
.LVL1278:
.LBB7367:
.LBB7368:
.LBB7369:
	.loc 6 98 0
	bl _ZdlPv
.LVL1279:
.LBE7369:
.LBE7368:
.LBE7367:
.LBE7366:
	.loc 10 71 0
	cmpw 7,31,27
	bne+ 7,.L1423
.LVL1280:
.L1393:
.LBE7365:
.LBE7364:
.LBE7363:
.LBE7362:
.LBE7361:
.LBE7360:
.LBE7394:
.LBE7399:
.LBE7404:
.LBE7408:
.LBE7412:
.LBE7417:
.LBE7423:
.LBE7428:
.LBE7434:
.LBE7451:
	.loc 3 37 0
	lwz 0,60(1)
.LBB7452:
.LBB7435:
.LBB7429:
.LBB7424:
.LBB7418:
.LBB7413:
.LBB7409:
.LBB7405:
.LBB7400:
.LBB7395:
.LBB7370:
.LBB7371:
.LBB7372:
.LBB7373:
.LBB7374:
.LBB7375:
	.loc 1 105 0
	stw 28,4(29)
.LBE7375:
.LBE7374:
.LBE7373:
.LBE7372:
.LBE7371:
.LBE7370:
.LBE7395:
.LBE7400:
.LBE7405:
.LBE7409:
.LBE7413:
.LBE7418:
.LBE7424:
.LBE7429:
.LBE7435:
.LBE7452:
	.loc 3 37 0
	mtlr 0
	lwz 25,28(1)
.LVL1281:
	lwz 26,32(1)
.LVL1282:
	lwz 27,36(1)
.LVL1283:
	lwz 28,40(1)
	lwz 29,44(1)
.LVL1284:
	lwz 30,48(1)
	lwz 31,52(1)
	addi 1,1,56
	.cfi_remember_state
.LCFI132:
	.cfi_def_cfa_offset 0
	.cfi_restore 31
	.cfi_restore 30
	.cfi_restore 29
	.cfi_restore 28
	.cfi_restore 27
	.cfi_restore 26
	.cfi_restore 25
	blr
.LVL1285:
.L1425:
.LCFI133:
	.cfi_restore_state
	mr 31,3
.L1250:
.LBB7453:
.LBB7436:
.LBB6982:
.LBB6972:
.LBB6962:
.LBB6951:
.LBB6940:
.LBB6910:
.LBB6911:
.LBB6912:
.LBB6913:
.LBB6914:
.LBB6915:
	.loc 10 70 0
	lwz 3,172(29)
.LVL1286:
	.loc 10 71 0
	cmpw 7,3,28
	beq- 7,.L1267
.LVL1287:
.L1449:
.LBB6916:
	.loc 10 74 0
	lwz 30,0(3)
.LVL1288:
.LBB6917:
.LBB6918:
.LBB6919:
	.loc 6 98 0
	bl _ZdlPv
.LVL1289:
.LBE6919:
.LBE6918:
.LBE6917:
.LBE6916:
	.loc 10 71 0
	cmpw 7,30,28
	beq- 7,.L1267
	.loc 10 74 0
	mr 3,30
	b .L1449
.LVL1290:
.L1434:
.LBE6915:
.LBE6914:
.LBE6913:
.LBE6912:
.LBE6911:
.LBE6910:
.LBE6940:
.LBE6951:
.LBE6962:
.LBE6972:
.LBE6982:
.LBE7436:
.LBB7437:
.LBB7430:
.LBB7425:
.LBB7419:
.LBB7414:
.LBB7410:
.LBB7406:
.LBB7401:
.LBB7396:
.LBB7376:
.LBB7358:
.LBB7352:
.LBB7353:
.LBB7354:
	.loc 1 343 0
	lwz 9,4(29)
	mr 31,3
.LVL1291:
	mr 3,26
	lwz 0,12(9)
	mtctr 0
	bctrl
.LVL1292:
.L1385:
.LBE7354:
.LBE7353:
.LBE7352:
.LBE7358:
.LBE7376:
.LBB7377:
.LBB7378:
.LBB7379:
.LBB7380:
.LBB7381:
.LBB7382:
	.loc 10 70 0
	lwz 3,8(29)
.LVL1293:
	.loc 10 71 0
	cmpw 7,3,27
	beq- 7,.L1402
.LVL1294:
.L1468:
.LBB7383:
	.loc 10 74 0
	lwz 30,0(3)
.LVL1295:
.LBB7384:
.LBB7385:
.LBB7386:
	.loc 6 98 0
	bl _ZdlPv
.LVL1296:
.LBE7386:
.LBE7385:
.LBE7384:
.LBE7383:
	.loc 10 71 0
	cmpw 7,30,27
	beq- 7,.L1402
	.loc 10 74 0
	mr 3,30
	b .L1468
.LVL1297:
.L1267:
.LBE7382:
.LBE7381:
.LBE7380:
.LBE7379:
.LBE7378:
.LBE7377:
.LBE7396:
.LBE7401:
.LBE7406:
.LBE7410:
.LBE7414:
.LBE7419:
.LBE7425:
.LBE7430:
.LBE7437:
.LBB7438:
.LBB6983:
.LBB6973:
.LBB6963:
.LBB6952:
.LBB6941:
.LBB6920:
.LBB6921:
.LBB6922:
.LBB6923:
.LBB6924:
.LBB6925:
	.loc 1 105 0
	lis 9,_ZTVN7sigslot15single_threadedE+8@ha
.LBE6925:
.LBE6924:
.LBE6923:
.LBE6922:
.LBE6921:
.LBE6920:
.LBE6941:
.LBE6952:
.LBE6963:
.LBE6973:
.LBE6983:
.LBE7438:
	.loc 3 35 0
	addi 3,29,156
.LBB7439:
.LBB6984:
.LBB6974:
.LBB6964:
.LBB6953:
.LBB6942:
.LBB6931:
.LBB6930:
.LBB6929:
.LBB6928:
.LBB6927:
.LBB6926:
	.loc 1 105 0
	la 0,_ZTVN7sigslot15single_threadedE+8@l(9)
	stw 0,168(29)
.LBE6926:
.LBE6927:
.LBE6928:
.LBE6929:
.LBE6930:
.LBE6931:
.LBE6942:
.LBE6953:
.LBE6964:
.LBE6974:
.LBE6984:
.LBE7439:
	.loc 3 35 0
	bl _ZN7sigslot7signal3IP9GuiButtoniRK6_POINTNS_15single_threadedEED1Ev
.LVL1298:
.L1270:
	addi 3,29,144
	bl _ZN7sigslot7signal3IP9GuiButtoniRK6_POINTNS_15single_threadedEED1Ev
.LVL1299:
.L1337:
	mr 3,29
	bl _ZN10GuiElementD2Ev
	mr 3,31
.LEHB121:
	bl _Unwind_Resume
.LVL1300:
.L1402:
.LBB7440:
.LBB7431:
.LBB7426:
.LBB7420:
.LBB7415:
.LBB7411:
.LBB7407:
.LBB7402:
.LBB7397:
.LBB7387:
.LBB7388:
.LBB7389:
.LBB7390:
.LBB7391:
.LBB7392:
	.loc 1 105 0
	stw 28,4(29)
	mr 3,31
	bl _Unwind_Resume
.LEHE121:
.LVL1301:
.L1433:
	mr 31,3
	b .L1385
.LVL1302:
.L1432:
.LBE7392:
.LBE7391:
.LBE7390:
.LBE7389:
.LBE7388:
.LBE7387:
.LBE7397:
.LBE7402:
.LBE7407:
.LBE7411:
.LBE7415:
.LBE7420:
.LBB7421:
.LBB7312:
.LBB7306:
.LBB7300:
.LBB7295:
.LBB7290:
.LBB7270:
.LBB7251:
.LBB7244:
.LBB7245:
.LBB7246:
	.loc 1 343 0
	lwz 9,16(29)
	mr 31,3
.LVL1303:
	mr 3,26
	lwz 0,12(9)
	mtctr 0
	bctrl
.LVL1304:
.L1352:
.LBE7246:
.LBE7245:
.LBE7244:
.LBE7251:
.LBE7270:
.LBB7271:
.LBB7272:
.LBB7273:
.LBB7274:
.LBB7275:
.LBB7276:
	.loc 10 70 0
	lwz 3,20(29)
.LVL1305:
	.loc 10 71 0
	cmpw 7,3,27
	beq- 7,.L1369
.LVL1306:
.L1464:
.LBB7277:
	.loc 10 74 0
	lwz 30,0(3)
.LVL1307:
.LBB7278:
.LBB7279:
.LBB7280:
	.loc 6 98 0
	bl _ZdlPv
.LVL1308:
.LBE7280:
.LBE7279:
.LBE7278:
.LBE7277:
	.loc 10 71 0
	cmpw 7,30,27
	beq- 7,.L1369
	.loc 10 74 0
	mr 3,30
	b .L1464
.LVL1309:
.L1431:
	mr 31,3
	b .L1352
.LVL1310:
.L1430:
.LBE7276:
.LBE7275:
.LBE7274:
.LBE7273:
.LBE7272:
.LBE7271:
.LBE7290:
.LBE7295:
.LBE7300:
.LBE7306:
.LBE7312:
.LBE7421:
.LBE7426:
.LBE7431:
.LBE7440:
.LBB7441:
.LBB7200:
.LBB7196:
.LBB7192:
.LBB7187:
.LBB7182:
.LBB7162:
.LBB7143:
.LBB7136:
.LBB7137:
.LBB7138:
	.loc 1 343 0
	lwz 9,144(29)
	mr 31,3
.LVL1311:
	mr 3,26
	lwz 0,12(9)
	mtctr 0
	bctrl
.LVL1312:
.L1317:
.LBE7138:
.LBE7137:
.LBE7136:
.LBE7143:
.LBE7162:
.LBB7163:
.LBB7164:
.LBB7165:
.LBB7166:
.LBB7167:
.LBB7168:
	.loc 10 70 0
	lwz 3,148(29)
.LVL1313:
	.loc 10 71 0
	cmpw 7,3,27
	beq- 7,.L1334
.LVL1314:
.L1459:
.LBB7169:
	.loc 10 74 0
	lwz 30,0(3)
.LVL1315:
.LBB7170:
.LBB7171:
.LBB7172:
	.loc 6 98 0
	bl _ZdlPv
.LVL1316:
.LBE7172:
.LBE7171:
.LBE7170:
.LBE7169:
	.loc 10 71 0
	cmpw 7,30,27
	beq- 7,.L1334
	.loc 10 74 0
	mr 3,30
	b .L1459
.LVL1317:
.L1369:
.LBE7168:
.LBE7167:
.LBE7166:
.LBE7165:
.LBE7164:
.LBE7163:
.LBE7182:
.LBE7187:
.LBE7192:
.LBE7196:
.LBE7200:
.LBE7441:
.LBB7442:
.LBB7432:
.LBB7427:
.LBB7422:
.LBB7313:
.LBB7307:
.LBB7301:
.LBB7296:
.LBB7291:
.LBB7281:
.LBB7282:
.LBB7283:
.LBB7284:
.LBB7285:
.LBB7286:
	.loc 1 105 0
	stw 28,16(29)
.LBE7286:
.LBE7285:
.LBE7284:
.LBE7283:
.LBE7282:
.LBE7281:
.LBE7291:
.LBE7296:
.LBE7301:
.LBE7307:
.LBE7313:
.LBE7422:
	.loc 2 89 0
	addi 3,29,4
	bl _ZN7sigslot7signal2IP10GuiElementbNS_15single_threadedEED1Ev
	mr 3,31
.LEHB122:
	bl _Unwind_Resume
.LEHE122:
.LVL1318:
.L1334:
.LBE7427:
.LBE7432:
.LBE7442:
.LBB7443:
.LBB7201:
.LBB7197:
.LBB7193:
.LBB7188:
.LBB7183:
.LBB7173:
.LBB7174:
.LBB7175:
.LBB7176:
.LBB7177:
.LBB7178:
	.loc 1 105 0
	stw 28,144(29)
	b .L1337
.LVL1319:
.L1429:
	mr 31,3
	b .L1317
.LVL1320:
.L1428:
.LBE7178:
.LBE7177:
.LBE7176:
.LBE7175:
.LBE7174:
.LBE7173:
.LBE7183:
.LBE7188:
.LBE7193:
.LBE7197:
.LBE7201:
.LBE7443:
.LBB7444:
.LBB7093:
.LBB7088:
.LBB7083:
.LBB7078:
.LBB7073:
.LBB7053:
.LBB7034:
.LBB7027:
.LBB7028:
.LBB7029:
	.loc 1 343 0
	lwz 9,156(29)
	mr 31,3
.LVL1321:
	mr 3,25
	lwz 0,12(9)
	mtctr 0
	bctrl
.LVL1322:
.L1284:
.LBE7029:
.LBE7028:
.LBE7027:
.LBE7034:
.LBE7053:
.LBB7054:
.LBB7055:
.LBB7056:
.LBB7057:
.LBB7058:
.LBB7059:
	.loc 10 70 0
	lwz 3,160(29)
.LVL1323:
	.loc 10 71 0
	cmpw 7,3,26
	beq- 7,.L1301
.LVL1324:
.L1454:
.LBB7060:
	.loc 10 74 0
	lwz 30,0(3)
.LVL1325:
.LBB7061:
.LBB7062:
.LBB7063:
	.loc 6 98 0
	bl _ZdlPv
.LVL1326:
.LBE7063:
.LBE7062:
.LBE7061:
.LBE7060:
	.loc 10 71 0
	cmpw 7,30,26
	beq- 7,.L1301
	.loc 10 74 0
	mr 3,30
	b .L1454
.LVL1327:
.L1427:
	mr 31,3
	b .L1284
.LVL1328:
.L1426:
.LBE7059:
.LBE7058:
.LBE7057:
.LBE7056:
.LBE7055:
.LBE7054:
.LBE7073:
.LBE7078:
.LBE7083:
.LBE7088:
.LBE7093:
.LBE7444:
.LBB7445:
.LBB6985:
.LBB6975:
.LBB6965:
.LBB6954:
.LBB6943:
.LBB6932:
.LBB6878:
.LBB6870:
.LBB6871:
.LBB6872:
	.loc 1 343 0
	lwz 9,168(29)
	mr 31,3
.LVL1329:
	mr 3,26
	lwz 0,12(9)
	mtctr 0
	bctrl
	b .L1250
.LVL1330:
.L1301:
.LBE6872:
.LBE6871:
.LBE6870:
.LBE6878:
.LBE6932:
.LBE6943:
.LBE6954:
.LBE6965:
.LBE6975:
.LBE6985:
.LBE7445:
.LBB7446:
.LBB7094:
.LBB7089:
.LBB7084:
.LBB7079:
.LBB7074:
.LBB7064:
.LBB7065:
.LBB7066:
.LBB7067:
.LBB7068:
.LBB7069:
	.loc 1 105 0
	stw 28,156(29)
	b .L1270
.LBE7069:
.LBE7068:
.LBE7067:
.LBE7066:
.LBE7065:
.LBE7064:
.LBE7074:
.LBE7079:
.LBE7084:
.LBE7089:
.LBE7094:
.LBE7446:
.LBE7453:
	.cfi_endproc
.LFE1466:
	.section	.gcc_except_table
.LLSDA1466:
	.byte	0xff
	.byte	0xff
	.byte	0x1
	.uleb128 .LLSDACSE1466-.LLSDACSB1466
.LLSDACSB1466:
	.uleb128 .LEHB106-.LFB1466
	.uleb128 .LEHE106-.LEHB106
	.uleb128 .L1425-.LFB1466
	.uleb128 0
	.uleb128 .LEHB107-.LFB1466
	.uleb128 .LEHE107-.LEHB107
	.uleb128 .L1426-.LFB1466
	.uleb128 0
	.uleb128 .LEHB108-.LFB1466
	.uleb128 .LEHE108-.LEHB108
	.uleb128 .L1425-.LFB1466
	.uleb128 0
	.uleb128 .LEHB109-.LFB1466
	.uleb128 .LEHE109-.LEHB109
	.uleb128 .L1427-.LFB1466
	.uleb128 0
	.uleb128 .LEHB110-.LFB1466
	.uleb128 .LEHE110-.LEHB110
	.uleb128 .L1428-.LFB1466
	.uleb128 0
	.uleb128 .LEHB111-.LFB1466
	.uleb128 .LEHE111-.LEHB111
	.uleb128 .L1427-.LFB1466
	.uleb128 0
	.uleb128 .LEHB112-.LFB1466
	.uleb128 .LEHE112-.LEHB112
	.uleb128 .L1429-.LFB1466
	.uleb128 0
	.uleb128 .LEHB113-.LFB1466
	.uleb128 .LEHE113-.LEHB113
	.uleb128 .L1430-.LFB1466
	.uleb128 0
	.uleb128 .LEHB114-.LFB1466
	.uleb128 .LEHE114-.LEHB114
	.uleb128 .L1429-.LFB1466
	.uleb128 0
	.uleb128 .LEHB115-.LFB1466
	.uleb128 .LEHE115-.LEHB115
	.uleb128 .L1431-.LFB1466
	.uleb128 0
	.uleb128 .LEHB116-.LFB1466
	.uleb128 .LEHE116-.LEHB116
	.uleb128 .L1432-.LFB1466
	.uleb128 0
	.uleb128 .LEHB117-.LFB1466
	.uleb128 .LEHE117-.LEHB117
	.uleb128 .L1431-.LFB1466
	.uleb128 0
	.uleb128 .LEHB118-.LFB1466
	.uleb128 .LEHE118-.LEHB118
	.uleb128 .L1433-.LFB1466
	.uleb128 0
	.uleb128 .LEHB119-.LFB1466
	.uleb128 .LEHE119-.LEHB119
	.uleb128 .L1434-.LFB1466
	.uleb128 0
	.uleb128 .LEHB120-.LFB1466
	.uleb128 .LEHE120-.LEHB120
	.uleb128 .L1433-.LFB1466
	.uleb128 0
	.uleb128 .LEHB121-.LFB1466
	.uleb128 .LEHE121-.LEHB121
	.uleb128 0
	.uleb128 0
	.uleb128 .LEHB122-.LFB1466
	.uleb128 .LEHE122-.LEHB122
	.uleb128 0
	.uleb128 0
.LLSDACSE1466:
	.section	".text"
	.size	_ZN9GuiButtonD2Ev, .-_ZN9GuiButtonD2Ev
	.align 2
	.globl _ZN9GuiButtonD0Ev
	.type	_ZN9GuiButtonD0Ev, @function
_ZN9GuiButtonD0Ev:
.LFB1468:
	.loc 3 35 0
	.cfi_startproc
.LVL1331:
	stwu 1,-16(1)
.LCFI134:
	.cfi_def_cfa_offset 16
	mflr 0
	stw 31,12(1)
	mr 31,3
	.cfi_offset 31, -4
	.cfi_register 65, 0
	stw 0,20(1)
	.loc 3 37 0
	.cfi_offset 65, 4
	bl _ZN9GuiButtonD1Ev
.LVL1332:
	mr 3,31
	bl _ZdlPv
	lwz 0,20(1)
	lwz 31,12(1)
.LVL1333:
	mtlr 0
	addi 1,1,16
.LCFI135:
	.cfi_def_cfa_offset 0
	.cfi_restore 31
	blr
	.cfi_endproc
.LFE1468:
	.size	_ZN9GuiButtonD0Ev, .-_ZN9GuiButtonD0Ev
	.weak	_ZTS9GuiButton
	.section	.rodata._ZTS9GuiButton,"aG",@progbits,_ZTS9GuiButton,comdat
	.align 2
	.type	_ZTS9GuiButton, @object
	.size	_ZTS9GuiButton, 11
_ZTS9GuiButton:
	.string	"9GuiButton"
	.weak	_ZTI9GuiButton
	.section	.rodata._ZTI9GuiButton,"aG",@progbits,_ZTI9GuiButton,comdat
	.align 2
	.type	_ZTI9GuiButton, @object
	.size	_ZTI9GuiButton, 12
_ZTI9GuiButton:
	.long	_ZTVN10__cxxabiv120__si_class_type_infoE+8
	.long	_ZTS9GuiButton
	.long	_ZTI10GuiElement
	.weak	_ZTV9GuiButton
	.section	.rodata._ZTV9GuiButton,"aG",@progbits,_ZTV9GuiButton,comdat
	.align 3
	.type	_ZTV9GuiButton, @object
	.size	_ZTV9GuiButton, 208
_ZTV9GuiButton:
	.long	0
	.long	_ZTI9GuiButton
	.long	_ZN9GuiButtonD1Ev
	.long	_ZN9GuiButtonD0Ev
	.long	_ZN10GuiElement9SetParentEPS_
	.long	_ZN10GuiElement9GetParentEv
	.long	_ZN10GuiElement7GetLeftEv
	.long	_ZN10GuiElement6GetTopEv
	.long	_ZN10GuiElement12GetZPositionEv
	.long	_ZN10GuiElement10GetLeftPosEv
	.long	_ZN10GuiElement9GetTopPosEv
	.long	_ZN10GuiElement8GetWidthEv
	.long	_ZN10GuiElement9GetHeightEv
	.long	_ZN10GuiElement7SetSizeEii
	.long	_ZN10GuiElement10SetVisibleEb
	.long	_ZN10GuiElement9IsVisibleEv
	.long	_ZN10GuiElement12IsSelectableEv
	.long	_ZN10GuiElement11IsClickableEv
	.long	_ZN10GuiElement10IsHoldableEv
	.long	_ZN10GuiElement13SetSelectableEb
	.long	_ZN10GuiElement12SetClickableEb
	.long	_ZN10GuiElement11SetHoldableEb
	.long	_ZN10GuiElement8SetStateEii
	.long	_ZN10GuiElement8GetStateEv
	.long	_ZN10GuiElement12GetStateChanEv
	.long	_ZN10GuiElement10ResetStateEv
	.long	_ZN10GuiElement8SetAlphaEi
	.long	_ZN10GuiElement8GetAlphaEv
	.long	_ZN10GuiElement8SetScaleEf
	.long	_ZN10GuiElement9SetScaleXEf
	.long	_ZN10GuiElement9SetScaleYEf
	.long	_ZN10GuiElement8GetScaleEv
	.long	_ZN10GuiElement9GetScaleXEv
	.long	_ZN10GuiElement9GetScaleYEv
	.long	_ZN10GuiElement6RumbleEv
	.long	_ZN10GuiElement9SetRumbleEb
	.long	_ZN10GuiElement9SetEffectEiii
	.long	_ZN10GuiElement15SetEffectOnOverEiii
	.long	_ZN10GuiElement13SetEffectGrowEv
	.long	_ZN10GuiElement12ResetEffectsEv
	.long	_ZNK10GuiElement9GetEffectEv
	.long	_ZNK10GuiElement10IsAnimatedEv
	.long	_ZN9GuiButton9SetBoundsE4RectIiE
	.long	_ZN10GuiElement8IsInsideEii
	.long	_ZN10GuiElement11SetPositionEii
	.long	_ZN10GuiElement11SetPositionEiii
	.long	_ZN10GuiElement11GetSelectedEv
	.long	_ZN10GuiElement12SetAlignmentEi
	.long	_ZNK10GuiElement12GetAlignmentEv
	.long	_ZN9GuiButton6UpdateEP10GuiTrigger
	.long	_ZN9GuiButton4DrawEv
	.long	_ZN10GuiElement13UpdateEffectsEv
	.weak	_ZTVN7sigslot15single_threadedE
	.section	.rodata._ZTVN7sigslot15single_threadedE,"aG",@progbits,_ZTVN7sigslot15single_threadedE,comdat
	.align 3
	.type	_ZTVN7sigslot15single_threadedE, @object
	.size	_ZTVN7sigslot15single_threadedE, 24
_ZTVN7sigslot15single_threadedE:
	.long	0
	.long	_ZTIN7sigslot15single_threadedE
	.long	_ZN7sigslot15single_threadedD1Ev
	.long	_ZN7sigslot15single_threadedD0Ev
	.long	_ZN7sigslot15single_threaded4lockEv
	.long	_ZN7sigslot15single_threaded6unlockEv
	.weak	_ZTVN7sigslot12_signal_baseINS_15single_threadedEEE
	.section	.rodata._ZTVN7sigslot12_signal_baseINS_15single_threadedEEE,"aG",@progbits,_ZTVN7sigslot12_signal_baseINS_15single_threadedEEE,comdat
	.align 3
	.type	_ZTVN7sigslot12_signal_baseINS_15single_threadedEEE, @object
	.size	_ZTVN7sigslot12_signal_baseINS_15single_threadedEEE, 32
_ZTVN7sigslot12_signal_baseINS_15single_threadedEEE:
	.long	0
	.long	_ZTIN7sigslot12_signal_baseINS_15single_threadedEEE
	.long	_ZN7sigslot12_signal_baseINS_15single_threadedEED1Ev
	.long	_ZN7sigslot12_signal_baseINS_15single_threadedEED0Ev
	.long	_ZN7sigslot15single_threaded4lockEv
	.long	_ZN7sigslot15single_threaded6unlockEv
	.long	__cxa_pure_virtual
	.long	__cxa_pure_virtual
	.weak	_ZTVN7sigslot13_signal_base3IP9GuiButtoniRK6_POINTNS_15single_threadedEEE
	.section	.rodata._ZTVN7sigslot13_signal_base3IP9GuiButtoniRK6_POINTNS_15single_threadedEEE,"aG",@progbits,_ZTVN7sigslot13_signal_base3IP9GuiButtoniRK6_POINTNS_15single_threadedEEE,comdat
	.align 3
	.type	_ZTVN7sigslot13_signal_base3IP9GuiButtoniRK6_POINTNS_15single_threadedEEE, @object
	.size	_ZTVN7sigslot13_signal_base3IP9GuiButtoniRK6_POINTNS_15single_threadedEEE, 32
_ZTVN7sigslot13_signal_base3IP9GuiButtoniRK6_POINTNS_15single_threadedEEE:
	.long	0
	.long	_ZTIN7sigslot13_signal_base3IP9GuiButtoniRK6_POINTNS_15single_threadedEEE
