   1              		.file	"gui_button.cpp"
   2              		.section	".text"
   3              	.Ltext0:
   4              		.section	.text._ZN7sigslot15single_threadedD2Ev,"axG",@progbits,_ZN7sigslot15single_threadedD5Ev,c
   5              		.align 2
   6              		.weak	_ZN7sigslot15single_threadedD2Ev
   7              		.type	_ZN7sigslot15single_threadedD2Ev, @function
   8              	_ZN7sigslot15single_threadedD2Ev:
   9              	.LFB1148:
  10              		.file 1 "d:/Projects/SaveGameManager/savegame-manager-gx/trunk/source/GUI/../sigslot.h"
  11              		.loc 1 104 0
  12              		.cfi_startproc
  13              	.LVL0:
  14              	.LBB1949:
  15              		.loc 1 105 0
  16 0000 3D200000 		lis 9,_ZTVN7sigslot15single_threadedE+8@ha
  17              	.LBE1949:
  18              		.loc 1 107 0
  19              	.LBB1950:
  20              		.loc 1 105 0
  21 0004 38090008 		la 0,_ZTVN7sigslot15single_threadedE+8@l(9)
  22 0008 90030000 		stw 0,0(3)
  23              	.LBE1950:
  24              		.loc 1 107 0
  25 000c 4E800020 		blr
  26              		.cfi_endproc
  27              	.LFE1148:
  28              		.size	_ZN7sigslot15single_threadedD2Ev, .-_ZN7sigslot15single_threadedD2Ev
  29              		.section	.text._ZN7sigslot15single_threaded4lockEv,"axG",@progbits,_ZN7sigslot15single_threaded4lo
  30              		.align 2
  31              		.weak	_ZN7sigslot15single_threaded4lockEv
  32              		.type	_ZN7sigslot15single_threaded4lockEv, @function
  33              	_ZN7sigslot15single_threaded4lockEv:
  34              	.LFB1151:
  35              		.loc 1 109 0
  36              		.cfi_startproc
  37              	.LVL1:
  38              		.loc 1 112 0
  39 0000 4E800020 		blr
  40              		.cfi_endproc
  41              	.LFE1151:
  42              		.size	_ZN7sigslot15single_threaded4lockEv, .-_ZN7sigslot15single_threaded4lockEv
  43              		.section	.text._ZN7sigslot15single_threaded6unlockEv,"axG",@progbits,_ZN7sigslot15single_threaded6
  44              		.align 2
  45              		.weak	_ZN7sigslot15single_threaded6unlockEv
  46              		.type	_ZN7sigslot15single_threaded6unlockEv, @function
  47              	_ZN7sigslot15single_threaded6unlockEv:
  48              	.LFB1152:
  49              		.loc 1 114 0
  50              		.cfi_startproc
  51              	.LVL2:
  52              		.loc 1 117 0
  53 0000 4E800020 		blr
  54              		.cfi_endproc
  55              	.LFE1152:
  56              		.size	_ZN7sigslot15single_threaded6unlockEv, .-_ZN7sigslot15single_threaded6unlockEv
  57              		.section	.text._ZN10GuiElement9SetParentEPS_,"axG",@progbits,_ZN10GuiElement9SetParentEPS_,comdat
  58              		.align 2
  59              		.weak	_ZN10GuiElement9SetParentEPS_
  60              		.type	_ZN10GuiElement9SetParentEPS_, @function
  61              	_ZN10GuiElement9SetParentEPS_:
  62              	.LFB1384:
  63              		.file 2 "d:/Projects/SaveGameManager/savegame-manager-gx/trunk/source/GUI/gui_element.h"
  64              		.loc 2 92 0
  65              		.cfi_startproc
  66              	.LVL3:
  67              		.loc 2 92 0
  68 0000 90830060 		stw 4,96(3)
  69 0004 4E800020 		blr
  70              		.cfi_endproc
  71              	.LFE1384:
  72              		.size	_ZN10GuiElement9SetParentEPS_, .-_ZN10GuiElement9SetParentEPS_
  73              		.section	.text._ZN10GuiElement9GetParentEv,"axG",@progbits,_ZN10GuiElement9GetParentEv,comdat
  74              		.align 2
  75              		.weak	_ZN10GuiElement9GetParentEv
  76              		.type	_ZN10GuiElement9GetParentEv, @function
  77              	_ZN10GuiElement9GetParentEv:
  78              	.LFB1385:
  79              		.loc 2 95 0
  80              		.cfi_startproc
  81              	.LVL4:
  82              		.loc 2 95 0
  83 0000 80630060 		lwz 3,96(3)
  84              	.LVL5:
  85 0004 4E800020 		blr
  86              		.cfi_endproc
  87              	.LFE1385:
  88              		.size	_ZN10GuiElement9GetParentEv, .-_ZN10GuiElement9GetParentEv
  89              		.section	.text._ZN10GuiElement12GetZPositionEv,"axG",@progbits,_ZN10GuiElement12GetZPositionEv,com
  90              		.align 2
  91              		.weak	_ZN10GuiElement12GetZPositionEv
  92              		.type	_ZN10GuiElement12GetZPositionEv, @function
  93              	_ZN10GuiElement12GetZPositionEv:
  94              	.LFB1386:
  95              		.loc 2 106 0
  96              		.cfi_startproc
  97              	.LVL6:
  98 0000 7C0802A6 		mflr 0
  99 0004 9421FFF0 		stwu 1,-16(1)
 100              	.LCFI0:
 101              		.cfi_def_cfa_offset 16
 102              		.cfi_register 65, 0
 103 0008 93E1000C 		stw 31,12(1)
 104 000c 7C7F1B78 		mr 31,3
 105              		.cfi_offset 31, -4
 106 0010 90010014 		stw 0,20(1)
 107              	.LBB1951:
 108              		.loc 2 110 0
 109 0014 81630060 		lwz 11,96(3)
 110              		.loc 2 108 0
 111 0018 38600000 		li 3,0
 112              	.LVL7:
 113              		.loc 2 110 0
 114 001c 2F8B0000 		cmpwi 7,11,0
 115 0020 419E0018 		beq- 7,.L8
 116              		.cfi_offset 65, 4
 117              		.loc 2 111 0
 118 0024 812B0000 		lwz 9,0(11)
 119 0028 7D635B78 		mr 3,11
 120 002c 80090018 		lwz 0,24(9)
 121 0030 7C0903A6 		mtctr 0
 122 0034 4E800421 		bctrl
 123              	.LVL8:
 124              	.L8:
 125              		.loc 2 113 0
 126 0038 801F0034 		lwz 0,52(31)
 127              	.LBE1951:
 128              		.loc 2 114 0
 129 003c 83E1000C 		lwz 31,12(1)
 130              	.LVL9:
 131 0040 7C630214 		add 3,3,0
 132              	.LVL10:
 133 0044 80010014 		lwz 0,20(1)
 134 0048 38210010 		addi 1,1,16
 135              	.LCFI1:
 136              		.cfi_def_cfa_offset 0
 137              		.cfi_restore 31
 138 004c 7C0803A6 		mtlr 0
 139 0050 4E800020 		blr
 140              		.cfi_endproc
 141              	.LFE1386:
 142              		.size	_ZN10GuiElement12GetZPositionEv, .-_ZN10GuiElement12GetZPositionEv
 143              		.section	.text._ZN10GuiElement10GetLeftPosEv,"axG",@progbits,_ZN10GuiElement10GetLeftPosEv,comdat
 144              		.align 2
 145              		.weak	_ZN10GuiElement10GetLeftPosEv
 146              		.type	_ZN10GuiElement10GetLeftPosEv, @function
 147              	_ZN10GuiElement10GetLeftPosEv:
 148              	.LFB1387:
 149              		.loc 2 116 0
 150              		.cfi_startproc
 151              	.LVL11:
 152              		.loc 2 116 0
 153 0000 8063002C 		lwz 3,44(3)
 154              	.LVL12:
 155 0004 4E800020 		blr
 156              		.cfi_endproc
 157              	.LFE1387:
 158              		.size	_ZN10GuiElement10GetLeftPosEv, .-_ZN10GuiElement10GetLeftPosEv
 159              		.section	.text._ZN10GuiElement9GetTopPosEv,"axG",@progbits,_ZN10GuiElement9GetTopPosEv,comdat
 160              		.align 2
 161              		.weak	_ZN10GuiElement9GetTopPosEv
 162              		.type	_ZN10GuiElement9GetTopPosEv, @function
 163              	_ZN10GuiElement9GetTopPosEv:
 164              	.LFB1388:
 165              		.loc 2 118 0
 166              		.cfi_startproc
 167              	.LVL13:
 168              		.loc 2 118 0
 169 0000 80630030 		lwz 3,48(3)
 170              	.LVL14:
 171 0004 4E800020 		blr
 172              		.cfi_endproc
 173              	.LFE1388:
 174              		.size	_ZN10GuiElement9GetTopPosEv, .-_ZN10GuiElement9GetTopPosEv
 175              		.section	.text._ZN10GuiElement8GetWidthEv,"axG",@progbits,_ZN10GuiElement8GetWidthEv,comdat
 176              		.align 2
 177              		.weak	_ZN10GuiElement8GetWidthEv
 178              		.type	_ZN10GuiElement8GetWidthEv, @function
 179              	_ZN10GuiElement8GetWidthEv:
 180              	.LFB1389:
 181              		.loc 2 121 0
 182              		.cfi_startproc
 183              	.LVL15:
 184              		.loc 2 121 0
 185 0000 80630024 		lwz 3,36(3)
 186              	.LVL16:
 187 0004 4E800020 		blr
 188              		.cfi_endproc
 189              	.LFE1389:
 190              		.size	_ZN10GuiElement8GetWidthEv, .-_ZN10GuiElement8GetWidthEv
 191              		.section	.text._ZN10GuiElement9GetHeightEv,"axG",@progbits,_ZN10GuiElement9GetHeightEv,comdat
 192              		.align 2
 193              		.weak	_ZN10GuiElement9GetHeightEv
 194              		.type	_ZN10GuiElement9GetHeightEv, @function
 195              	_ZN10GuiElement9GetHeightEv:
 196              	.LFB1390:
 197              		.loc 2 124 0
 198              		.cfi_startproc
 199              	.LVL17:
 200              		.loc 2 124 0
 201 0000 80630028 		lwz 3,40(3)
 202              	.LVL18:
 203 0004 4E800020 		blr
 204              		.cfi_endproc
 205              	.LFE1390:
 206              		.size	_ZN10GuiElement9GetHeightEv, .-_ZN10GuiElement9GetHeightEv
 207              		.section	.text._ZN10GuiElement7SetSizeEii,"axG",@progbits,_ZN10GuiElement7SetSizeEii,comdat
 208              		.align 2
 209              		.weak	_ZN10GuiElement7SetSizeEii
 210              		.type	_ZN10GuiElement7SetSizeEii, @function
 211              	_ZN10GuiElement7SetSizeEii:
 212              	.LFB1391:
 213              		.loc 2 128 0
 214              		.cfi_startproc
 215              	.LVL19:
 216              		.loc 2 130 0
 217 0000 90830024 		stw 4,36(3)
 218              		.loc 2 132 0
 219              		.loc 2 131 0
 220 0004 90A30028 		stw 5,40(3)
 221              		.loc 2 132 0
 222 0008 4E800020 		blr
 223              		.cfi_endproc
 224              	.LFE1391:
 225              		.size	_ZN10GuiElement7SetSizeEii, .-_ZN10GuiElement7SetSizeEii
 226              		.section	.text._ZN10GuiElement10SetVisibleEb,"axG",@progbits,_ZN10GuiElement10SetVisibleEb,comdat
 227              		.align 2
 228              		.weak	_ZN10GuiElement10SetVisibleEb
 229              		.type	_ZN10GuiElement10SetVisibleEb, @function
 230              	_ZN10GuiElement10SetVisibleEb:
 231              	.LFB1392:
 232              		.loc 2 135 0
 233              		.cfi_startproc
 234              		.cfi_personality 0,__gxx_personality_v0
 235              		.cfi_lsda 0,.LLSDA1392
 236              	.LVL20:
 237 0000 7C0802A6 		mflr 0
 238 0004 9421FFE0 		stwu 1,-32(1)
 239              	.LCFI2:
 240              		.cfi_def_cfa_offset 32
 241              		.cfi_register 65, 0
 242 0008 9361000C 		stw 27,12(1)
 243              	.LBB1952:
 244              	.LBB1953:
 245              		.loc 1 2270 0
 246 000c 3B630004 		addi 27,3,4
 247              		.cfi_offset 27, -20
 248              	.LBE1953:
 249              	.LBE1952:
 250              		.loc 2 135 0
 251 0010 90010024 		stw 0,36(1)
 252 0014 93C10018 		stw 30,24(1)
 253 0018 7C7E1B78 		mr 30,3
 254              		.cfi_offset 30, -8
 255              		.cfi_offset 65, 4
 256              	.LBB1976:
 257              	.LBB1970:
 258              	.LBB1954:
 259              	.LBB1955:
 260              		.loc 1 338 0
 261 001c 81230004 		lwz 9,4(3)
 262 0020 7F63DB78 		mr 3,27
 263              	.LVL21:
 264              	.LBE1955:
 265              	.LBE1954:
 266              	.LBE1970:
 267              	.LBE1976:
 268              		.loc 2 135 0
 269 0024 93810010 		stw 28,16(1)
 270 0028 7C9C2378 		mr 28,4
 271              		.cfi_offset 28, -16
 272              	.LBB1977:
 273              	.LBB1971:
 274              	.LBB1959:
 275              	.LBB1956:
 276              		.loc 1 338 0
 277 002c 80090008 		lwz 0,8(9)
 278              	.LBE1956:
 279              	.LBE1959:
 280              	.LBE1971:
 281              	.LBE1977:
 282              		.loc 2 135 0
 283 0030 93A10014 		stw 29,20(1)
 284              	.LBB1978:
 285              		.file 3 "d:/Projects/SaveGameManager/savegame-manager-gx/trunk/source/GUI/gui_button.cpp"
 286              		.loc 3 406 0
 287 0034 7FDDF378 		mr 29,30
 288              		.cfi_offset 29, -12
 289              	.LBE1978:
 290              		.loc 2 135 0
 291 0038 93E1001C 		stw 31,28(1)
 292              	.LBB1979:
 293              	.LBB1972:
 294              	.LBB1960:
 295              	.LBB1957:
 296              		.loc 1 338 0
 297 003c 7C0903A6 		mtctr 0
 298              	.LBE1957:
 299              	.LBE1960:
 300              	.LBE1972:
 301              	.LBE1979:
 302              		.loc 2 137 0
 303 0040 989E001D 		stb 4,29(30)
 304              	.LVL22:
 305              	.LEHB0:
 306              	.LBB1980:
 307              	.LBB1973:
 308              	.LBB1961:
 309              	.LBB1958:
 310              		.loc 1 338 0
 311              		.cfi_offset 31, -4
 312 0044 4E800421 		bctrl
 313              	.LEHE0:
 314              	.LVL23:
 315              	.LBE1958:
 316              	.LBE1961:
 317              	.LBE1973:
 318              		.loc 3 406 0
 319 0048 87FD0008 		lwzu 31,8(29)
 320              	.LVL24:
 321              	.LBB1974:
 322              		.loc 1 2274 0
 323 004c 7F9FE800 		cmpw 7,31,29
 324 0050 419E002C 		beq- 7,.L17
 325              	.LVL25:
 326              	.L24:
 327              		.loc 1 2279 0
 328 0054 807F0008 		lwz 3,8(31)
 329 0058 7FC4F378 		mr 4,30
 330 005c 7F85E378 		mr 5,28
 331              	.LBB1962:
 332              	.LBB1963:
 333              		.file 4 "d:\\devkitpro\\devkitppc\\bin\\../lib/gcc/powerpc-eabi/4.6.3/../../../../powerpc-eabi/inc
 334              		.loc 4 234 0
 335 0060 83FF0000 		lwz 31,0(31)
 336              	.LVL26:
 337              	.LBE1963:
 338              	.LBE1962:
 339              		.loc 1 2279 0
 340 0064 81230000 		lwz 9,0(3)
 341 0068 8009000C 		lwz 0,12(9)
 342 006c 7C0903A6 		mtctr 0
 343              	.LEHB1:
 344 0070 4E800421 		bctrl
 345              	.LEHE1:
 346              	.LVL27:
 347              		.loc 1 2274 0
 348 0074 7F9DF800 		cmpw 7,29,31
 349 0078 409EFFDC 		bne+ 7,.L24
 350              	.LVL28:
 351              	.L17:
 352              	.LBB1964:
 353              	.LBB1965:
 354              	.LBB1966:
 355              		.loc 1 343 0
 356 007c 813E0004 		lwz 9,4(30)
 357 0080 7F63DB78 		mr 3,27
 358 0084 8009000C 		lwz 0,12(9)
 359 0088 7C0903A6 		mtctr 0
 360              	.LEHB2:
 361 008c 4E800421 		bctrl
 362              	.LEHE2:
 363              	.LBE1966:
 364              	.LBE1965:
 365              	.LBE1964:
 366              	.LBE1974:
 367              	.LBE1980:
 368              		.loc 2 139 0
 369 0090 80010024 		lwz 0,36(1)
 370 0094 8361000C 		lwz 27,12(1)
 371              	.LVL29:
 372 0098 7C0803A6 		mtlr 0
 373 009c 83810010 		lwz 28,16(1)
 374              	.LVL30:
 375 00a0 83A10014 		lwz 29,20(1)
 376 00a4 83C10018 		lwz 30,24(1)
 377              	.LVL31:
 378 00a8 83E1001C 		lwz 31,28(1)
 379              	.LVL32:
 380 00ac 38210020 		addi 1,1,32
 381              		.cfi_remember_state
 382              	.LCFI3:
 383              		.cfi_def_cfa_offset 0
 384              		.cfi_restore 31
 385              		.cfi_restore 30
 386              		.cfi_restore 29
 387              		.cfi_restore 28
 388              		.cfi_restore 27
 389 00b0 4E800020 		blr
 390              	.LVL33:
 391              	.L23:
 392              	.LCFI4:
 393              		.cfi_restore_state
 394              	.LBB1981:
 395              	.LBB1975:
 396              	.LBB1967:
 397              	.LBB1968:
 398              	.LBB1969:
 399              		.loc 1 343 0
 400 00b4 813E0004 		lwz 9,4(30)
 401 00b8 7C7F1B78 		mr 31,3
 402              	.LVL34:
 403 00bc 7F63DB78 		mr 3,27
 404 00c0 8009000C 		lwz 0,12(9)
 405 00c4 7C0903A6 		mtctr 0
 406 00c8 4E800421 		bctrl
 407 00cc 7FE3FB78 		mr 3,31
 408              	.LEHB3:
 409 00d0 48000001 		bl _Unwind_Resume
 410              	.LEHE3:
 411              	.LBE1969:
 412              	.LBE1968:
 413              	.LBE1967:
 414              	.LBE1975:
 415              	.LBE1981:
 416              		.cfi_endproc
 417              	.LFE1392:
 418              		.globl __gxx_personality_v0
 419              		.section	.gcc_except_table,"a",@progbits
 420              	.LLSDA1392:
 421 0000 FF       		.byte	0xff
 422 0001 FF       		.byte	0xff
 423 0002 01       		.byte	0x1
 424 0003 13       		.uleb128 .LLSDACSE1392-.LLSDACSB1392
 425              	.LLSDACSB1392:
 426 0004 44       		.uleb128 .LEHB0-.LFB1392
 427 0005 04       		.uleb128 .LEHE0-.LEHB0
 428 0006 00       		.uleb128 0
 429 0007 00       		.uleb128 0
 430 0008 70       		.uleb128 .LEHB1-.LFB1392
 431 0009 04       		.uleb128 .LEHE1-.LEHB1
 432 000a B401     		.uleb128 .L23-.LFB1392
 433 000c 00       		.uleb128 0
 434 000d 8C01     		.uleb128 .LEHB2-.LFB1392
 435 000f 04       		.uleb128 .LEHE2-.LEHB2
 436 0010 00       		.uleb128 0
 437 0011 00       		.uleb128 0
 438 0012 D001     		.uleb128 .LEHB3-.LFB1392
 439 0014 04       		.uleb128 .LEHE3-.LEHB3
 440 0015 00       		.uleb128 0
 441 0016 00       		.uleb128 0
 442              	.LLSDACSE1392:
 443              		.section	.text._ZN10GuiElement10SetVisibleEb,"axG",@progbits,_ZN10GuiElement10SetVisibleEb,comdat
 444              		.size	_ZN10GuiElement10SetVisibleEb, .-_ZN10GuiElement10SetVisibleEb
 445              		.section	.text._ZN10GuiElement9IsVisibleEv,"axG",@progbits,_ZN10GuiElement9IsVisibleEv,comdat
 446              		.align 2
 447              		.weak	_ZN10GuiElement9IsVisibleEv
 448              		.type	_ZN10GuiElement9IsVisibleEv, @function
 449              	_ZN10GuiElement9IsVisibleEv:
 450              	.LFB1393:
 451              		.loc 2 142 0
 452              		.cfi_startproc
 453              	.LVL35:
 454              		.loc 2 142 0
 455 0000 8863001D 		lbz 3,29(3)
 456              	.LVL36:
 457 0004 4E800020 		blr
 458              		.cfi_endproc
 459              	.LFE1393:
 460              		.size	_ZN10GuiElement9IsVisibleEv, .-_ZN10GuiElement9IsVisibleEv
 461              		.section	.text._ZN10GuiElement12IsSelectableEv,"axG",@progbits,_ZN10GuiElement12IsSelectableEv,com
 462              		.align 2
 463              		.weak	_ZN10GuiElement12IsSelectableEv
 464              		.type	_ZN10GuiElement12IsSelectableEv, @function
 465              	_ZN10GuiElement12IsSelectableEv:
 466              	.LFB1394:
 467              		.loc 2 145 0
 468              		.cfi_startproc
 469              	.LVL37:
 470              		.loc 2 149 0
 471 0000 80030048 		lwz 0,72(3)
 472 0004 39200000 		li 9,0
 473 0008 2F800004 		cmpwi 7,0,4
 474 000c 419E0010 		beq- 7,.L27
 475              		.loc 2 149 0 is_stmt 0 discriminator 1
 476 0010 2F800002 		cmpwi 7,0,2
 477 0014 419E0008 		beq- 7,.L27
 478              		.loc 2 149 0 discriminator 3
 479 0018 8923001E 		lbz 9,30(3)
 480              	.L27:
 481              		.loc 2 150 0 is_stmt 1 discriminator 5
 482 001c 7D234B78 		mr 3,9
 483              	.LVL38:
 484 0020 4E800020 		blr
 485              		.cfi_endproc
 486              	.LFE1394:
 487              		.size	_ZN10GuiElement12IsSelectableEv, .-_ZN10GuiElement12IsSelectableEv
 488              		.section	.text._ZN10GuiElement11IsClickableEv,"axG",@progbits,_ZN10GuiElement11IsClickableEv,comda
 489              		.align 2
 490              		.weak	_ZN10GuiElement11IsClickableEv
 491              		.type	_ZN10GuiElement11IsClickableEv, @function
 492              	_ZN10GuiElement11IsClickableEv:
 493              	.LFB1395:
 494              		.loc 2 153 0
 495              		.cfi_startproc
 496              	.LVL39:
 497              		.loc 2 158 0
 498 0000 80030048 		lwz 0,72(3)
 499 0004 39200000 		li 9,0
 500 0008 2F800004 		cmpwi 7,0,4
 501 000c 419E0018 		beq- 7,.L31
 502              		.loc 2 158 0 is_stmt 0 discriminator 1
 503 0010 2F800002 		cmpwi 7,0,2
 504 0014 419E0010 		beq- 7,.L31
 505              		.loc 2 158 0 discriminator 3
 506 0018 2F800003 		cmpwi 7,0,3
 507 001c 419E0008 		beq- 7,.L31
 508              		.loc 2 158 0 discriminator 4
 509 0020 8923001F 		lbz 9,31(3)
 510              	.L31:
 511              		.loc 2 159 0 is_stmt 1 discriminator 6
 512 0024 7D234B78 		mr 3,9
 513              	.LVL40:
 514 0028 4E800020 		blr
 515              		.cfi_endproc
 516              	.LFE1395:
 517              		.size	_ZN10GuiElement11IsClickableEv, .-_ZN10GuiElement11IsClickableEv
 518              		.section	.text._ZN10GuiElement10IsHoldableEv,"axG",@progbits,_ZN10GuiElement10IsHoldableEv,comdat
 519              		.align 2
 520              		.weak	_ZN10GuiElement10IsHoldableEv
 521              		.type	_ZN10GuiElement10IsHoldableEv, @function
 522              	_ZN10GuiElement10IsHoldableEv:
 523              	.LFB1396:
 524              		.loc 2 162 0
 525              		.cfi_startproc
 526              	.LVL41:
 527              		.loc 2 162 0
 528 0000 81230048 		lwz 9,72(3)
 529 0004 38000000 		li 0,0
 530 0008 2F890004 		cmpwi 7,9,4
 531 000c 419E0008 		beq- 7,.L36
 532              		.loc 2 162 0 is_stmt 0 discriminator 1
 533 0010 88030020 		lbz 0,32(3)
 534              	.L36:
 535              		.loc 2 162 0 discriminator 4
 536 0014 7C030378 		mr 3,0
 537              	.LVL42:
 538 0018 4E800020 		blr
 539              		.cfi_endproc
 540              	.LFE1396:
 541              		.size	_ZN10GuiElement10IsHoldableEv, .-_ZN10GuiElement10IsHoldableEv
 542              		.section	.text._ZN10GuiElement13SetSelectableEb,"axG",@progbits,_ZN10GuiElement13SetSelectableEb,c
 543              		.align 2
 544              		.weak	_ZN10GuiElement13SetSelectableEb
 545              		.type	_ZN10GuiElement13SetSelectableEb, @function
 546              	_ZN10GuiElement13SetSelectableEb:
 547              	.LFB1397:
 548              		.loc 2 165 0 is_stmt 1
 549              		.cfi_startproc
 550              	.LVL43:
 551              		.loc 2 165 0
 552 0000 9883001E 		stb 4,30(3)
 553 0004 4E800020 		blr
 554              		.cfi_endproc
 555              	.LFE1397:
 556              		.size	_ZN10GuiElement13SetSelectableEb, .-_ZN10GuiElement13SetSelectableEb
 557              		.section	.text._ZN10GuiElement12SetClickableEb,"axG",@progbits,_ZN10GuiElement12SetClickableEb,com
 558              		.align 2
 559              		.weak	_ZN10GuiElement12SetClickableEb
 560              		.type	_ZN10GuiElement12SetClickableEb, @function
 561              	_ZN10GuiElement12SetClickableEb:
 562              	.LFB1398:
 563              		.loc 2 168 0
 564              		.cfi_startproc
 565              	.LVL44:
 566              		.loc 2 168 0
 567 0000 9883001F 		stb 4,31(3)
 568 0004 4E800020 		blr
 569              		.cfi_endproc
 570              	.LFE1398:
 571              		.size	_ZN10GuiElement12SetClickableEb, .-_ZN10GuiElement12SetClickableEb
 572              		.section	.text._ZN10GuiElement11SetHoldableEb,"axG",@progbits,_ZN10GuiElement11SetHoldableEb,comda
 573              		.align 2
 574              		.weak	_ZN10GuiElement11SetHoldableEb
 575              		.type	_ZN10GuiElement11SetHoldableEb, @function
 576              	_ZN10GuiElement11SetHoldableEb:
 577              	.LFB1399:
 578              		.loc 2 171 0
 579              		.cfi_startproc
 580              	.LVL45:
 581              		.loc 2 171 0
 582 0000 98830020 		stb 4,32(3)
 583 0004 4E800020 		blr
 584              		.cfi_endproc
 585              	.LFE1399:
 586              		.size	_ZN10GuiElement11SetHoldableEb, .-_ZN10GuiElement11SetHoldableEb
 587              		.section	.text._ZN10GuiElement8GetStateEv,"axG",@progbits,_ZN10GuiElement8GetStateEv,comdat
 588              		.align 2
 589              		.weak	_ZN10GuiElement8GetStateEv
 590              		.type	_ZN10GuiElement8GetStateEv, @function
 591              	_ZN10GuiElement8GetStateEv:
 592              	.LFB1400:
 593              		.loc 2 178 0
 594              		.cfi_startproc
 595              	.LVL46:
 596              		.loc 2 178 0
 597 0000 80630048 		lwz 3,72(3)
 598              	.LVL47:
 599 0004 4E800020 		blr
 600              		.cfi_endproc
 601              	.LFE1400:
 602              		.size	_ZN10GuiElement8GetStateEv, .-_ZN10GuiElement8GetStateEv
 603              		.section	.text._ZN10GuiElement12GetStateChanEv,"axG",@progbits,_ZN10GuiElement12GetStateChanEv,com
 604              		.align 2
 605              		.weak	_ZN10GuiElement12GetStateChanEv
 606              		.type	_ZN10GuiElement12GetStateChanEv, @function
 607              	_ZN10GuiElement12GetStateChanEv:
 608              	.LFB1401:
 609              		.loc 2 181 0
 610              		.cfi_startproc
 611              	.LVL48:
 612              		.loc 2 181 0
 613 0000 8063004C 		lwz 3,76(3)
 614              	.LVL49:
 615 0004 4E800020 		blr
 616              		.cfi_endproc
 617              	.LFE1401:
 618              		.size	_ZN10GuiElement12GetStateChanEv, .-_ZN10GuiElement12GetStateChanEv
 619              		.section	.text._ZN10GuiElement8SetAlphaEi,"axG",@progbits,_ZN10GuiElement8SetAlphaEi,comdat
 620              		.align 2
 621              		.weak	_ZN10GuiElement8SetAlphaEi
 622              		.type	_ZN10GuiElement8SetAlphaEi, @function
 623              	_ZN10GuiElement8SetAlphaEi:
 624              	.LFB1403:
 625              		.loc 2 190 0
 626              		.cfi_startproc
 627              	.LVL50:
 628              		.loc 2 190 0
 629 0000 90830038 		stw 4,56(3)
 630 0004 4E800020 		blr
 631              		.cfi_endproc
 632              	.LFE1403:
 633              		.size	_ZN10GuiElement8SetAlphaEi, .-_ZN10GuiElement8SetAlphaEi
 634              		.section	.text._ZN10GuiElement8GetAlphaEv,"axG",@progbits,_ZN10GuiElement8GetAlphaEv,comdat
 635              		.align 2
 636              		.weak	_ZN10GuiElement8GetAlphaEv
 637              		.type	_ZN10GuiElement8GetAlphaEv, @function
 638              	_ZN10GuiElement8GetAlphaEv:
 639              	.LFB1404:
 640              		.loc 2 194 0
 641              		.cfi_startproc
 642              	.LVL51:
 643 0000 7C0802A6 		mflr 0
 644 0004 9421FFD8 		stwu 1,-40(1)
 645              	.LCFI5:
 646              		.cfi_def_cfa_offset 40
 647              		.cfi_register 65, 0
 648 0008 93E10024 		stw 31,36(1)
 649 000c 9001002C 		stw 0,44(1)
 650              	.LBB1982:
 651              		.loc 2 198 0
 652 0010 83E3006C 		lwz 31,108(3)
 653              		.cfi_offset 65, 4
 654              		.cfi_offset 31, -4
 655 0014 2F9F0000 		cmpwi 7,31,0
 656 0018 419C0094 		blt- 7,.L47
 657              	.L45:
 658              	.LVL52:
 659              		.loc 2 203 0
 660 001c 80630060 		lwz 3,96(3)
 661              	.LVL53:
 662 0020 2F830000 		cmpwi 7,3,0
 663 0024 419E0070 		beq- 7,.L46
 664              		.loc 2 204 0
 665 0028 81230000 		lwz 9,0(3)
 666 002c 6FFF8000 		xoris 31,31,0x8000
 667              	.LVL54:
 668 0030 80090064 		lwz 0,100(9)
 669 0034 7C0903A6 		mtctr 0
 670 0038 4E800421 		bctrl
 671 003c 3C004330 		lis 0,0x4330
 672 0040 6C638000 		xoris 3,3,0x8000
 673 0044 90010010 		stw 0,16(1)
 674 0048 90610014 		stw 3,20(1)
 675 004c 3D200000 		lis 9,.LC1@ha
 676 0050 C0090000 		lfs 0,.LC1@l(9)
 677 0054 3D200000 		lis 9,.LC2@ha
 678 0058 C9A10010 		lfd 13,16(1)
 679 005c C1890004 		lfs 12,.LC2@l(9)
 680 0060 39210018 		addi 9,1,24
 681 0064 FDAD0028 		fsub 13,13,0
 682 0068 93E1000C 		stw 31,12(1)
 683 006c 90010008 		stw 0,8(1)
 684 0070 FDA06818 		frsp 13,13
 685 0074 EDAD6024 		fdivs 13,13,12
 686 0078 C9810008 		lfd 12,8(1)
 687 007c FC0C0028 		fsub 0,12,0
 688 0080 FC000018 		frsp 0,0
 689 0084 EC000372 		fmuls 0,0,13
 690 0088 FC00001E 		fctiwz 0,0
 691 008c 7C004FAE 		stfiwx 0,0,9
 692 0090 83E10018 		lwz 31,24(1)
 693              	.LVL55:
 694              	.L46:
 695              	.LBE1982:
 696              		.loc 2 207 0
 697 0094 8001002C 		lwz 0,44(1)
 698 0098 7FE3FB78 		mr 3,31
 699 009c 83E10024 		lwz 31,36(1)
 700              	.LVL56:
 701 00a0 7C0803A6 		mtlr 0
 702 00a4 38210028 		addi 1,1,40
 703              		.cfi_remember_state
 704              	.LCFI6:
 705              		.cfi_def_cfa_offset 0
 706              		.cfi_restore 31
 707 00a8 4E800020 		blr
 708              	.LVL57:
 709              	.L47:
 710              	.LCFI7:
 711              		.cfi_restore_state
 712              	.LBB1983:
 713              		.loc 2 201 0
 714 00ac 83E30038 		lwz 31,56(3)
 715              	.LVL58:
 716 00b0 4BFFFF6C 		b .L45
 717              	.LBE1983:
 718              		.cfi_endproc
 719              	.LFE1404:
 720              		.size	_ZN10GuiElement8GetAlphaEv, .-_ZN10GuiElement8GetAlphaEv
 721              		.section	.text._ZN10GuiElement8SetScaleEf,"axG",@progbits,_ZN10GuiElement8SetScaleEf,comdat
 722              		.align 2
 723              		.weak	_ZN10GuiElement8SetScaleEf
 724              		.type	_ZN10GuiElement8SetScaleEf, @function
 725              	_ZN10GuiElement8SetScaleEf:
 726              	.LFB1405:
 727              		.loc 2 210 0
 728              		.cfi_startproc
 729              	.LVL59:
 730              		.loc 2 212 0
 731 0000 D023003C 		stfs 1,60(3)
 732              		.loc 2 214 0
 733              		.loc 2 213 0
 734 0004 D0230040 		stfs 1,64(3)
 735              		.loc 2 214 0
 736 0008 4E800020 		blr
 737              		.cfi_endproc
 738              	.LFE1405:
 739              		.size	_ZN10GuiElement8SetScaleEf, .-_ZN10GuiElement8SetScaleEf
 740              		.section	.text._ZN10GuiElement9SetScaleXEf,"axG",@progbits,_ZN10GuiElement9SetScaleXEf,comdat
 741              		.align 2
 742              		.weak	_ZN10GuiElement9SetScaleXEf
 743              		.type	_ZN10GuiElement9SetScaleXEf, @function
 744              	_ZN10GuiElement9SetScaleXEf:
 745              	.LFB1406:
 746              		.loc 2 217 0
 747              		.cfi_startproc
 748              	.LVL60:
 749              		.loc 2 217 0
 750 0000 D023003C 		stfs 1,60(3)
 751 0004 4E800020 		blr
 752              		.cfi_endproc
 753              	.LFE1406:
 754              		.size	_ZN10GuiElement9SetScaleXEf, .-_ZN10GuiElement9SetScaleXEf
 755              		.section	.text._ZN10GuiElement9SetScaleYEf,"axG",@progbits,_ZN10GuiElement9SetScaleYEf,comdat
 756              		.align 2
 757              		.weak	_ZN10GuiElement9SetScaleYEf
 758              		.type	_ZN10GuiElement9SetScaleYEf, @function
 759              	_ZN10GuiElement9SetScaleYEf:
 760              	.LFB1407:
 761              		.loc 2 220 0
 762              		.cfi_startproc
 763              	.LVL61:
 764              		.loc 2 220 0
 765 0000 D0230040 		stfs 1,64(3)
 766 0004 4E800020 		blr
 767              		.cfi_endproc
 768              	.LFE1407:
 769              		.size	_ZN10GuiElement9SetScaleYEf, .-_ZN10GuiElement9SetScaleYEf
 770              		.section	.text._ZN10GuiElement8GetScaleEv,"axG",@progbits,_ZN10GuiElement8GetScaleEv,comdat
 771              		.align 2
 772              		.weak	_ZN10GuiElement8GetScaleEv
 773              		.type	_ZN10GuiElement8GetScaleEv, @function
 774              	_ZN10GuiElement8GetScaleEv:
 775              	.LFB1408:
 776              		.loc 2 223 0
 777              		.cfi_startproc
 778              	.LVL62:
 779 0000 7C0802A6 		mflr 0
 780 0004 9421FFF0 		stwu 1,-16(1)
 781              	.LCFI8:
 782              		.cfi_def_cfa_offset 16
 783              		.cfi_register 65, 0
 784              	.LBB1984:
 785              		.loc 2 225 0
 786 0008 3D200000 		lis 9,.LC3@ha
 787              	.LBE1984:
 788              		.loc 2 223 0
 789 000c DBE10008 		stfd 31,8(1)
 790 0010 90010014 		stw 0,20(1)
 791              	.LBB1985:
 792              		.loc 2 225 0
 793 0014 C0030040 		lfs 0,64(3)
 794 0018 C3E3003C 		lfs 31,60(3)
 795              		.cfi_offset 65, 4
 796              		.cfi_offset 63, -8
 797              		.loc 2 227 0
 798 001c 81630060 		lwz 11,96(3)
 799              		.loc 2 225 0
 800 0020 EFFF002A 		fadds 31,31,0
 801 0024 C0090008 		lfs 0,.LC3@l(9)
 802              		.loc 2 227 0
 803 0028 2F8B0000 		cmpwi 7,11,0
 804              		.loc 2 225 0
 805 002c EFFF0032 		fmuls 31,31,0
 806 0030 C0030070 		lfs 0,112(3)
 807 0034 EFFF0032 		fmuls 31,31,0
 808              	.LVL63:
 809              		.loc 2 227 0
 810 0038 419E001C 		beq- 7,.L52
 811              		.loc 2 228 0
 812 003c 812B0000 		lwz 9,0(11)
 813 0040 7D635B78 		mr 3,11
 814              	.LVL64:
 815 0044 80090074 		lwz 0,116(9)
 816 0048 7C0903A6 		mtctr 0
 817 004c 4E800421 		bctrl
 818 0050 EFFF0072 		fmuls 31,31,1
 819              	.LVL65:
 820              	.L52:
 821              	.LBE1985:
 822              		.loc 2 231 0
 823 0054 80010014 		lwz 0,20(1)
 824 0058 FC20F890 		fmr 1,31
 825 005c CBE10008 		lfd 31,8(1)
 826              	.LVL66:
 827 0060 7C0803A6 		mtlr 0
 828 0064 38210010 		addi 1,1,16
 829              	.LCFI9:
 830              		.cfi_def_cfa_offset 0
 831              		.cfi_restore 63
 832 0068 4E800020 		blr
 833              		.cfi_endproc
 834              	.LFE1408:
 835              		.size	_ZN10GuiElement8GetScaleEv, .-_ZN10GuiElement8GetScaleEv
 836              		.section	.text._ZN10GuiElement9GetScaleXEv,"axG",@progbits,_ZN10GuiElement9GetScaleXEv,comdat
 837              		.align 2
 838              		.weak	_ZN10GuiElement9GetScaleXEv
 839              		.type	_ZN10GuiElement9GetScaleXEv, @function
 840              	_ZN10GuiElement9GetScaleXEv:
 841              	.LFB1409:
 842              		.loc 2 234 0
 843              		.cfi_startproc
 844              	.LVL67:
 845 0000 7C0802A6 		mflr 0
 846 0004 9421FFF0 		stwu 1,-16(1)
 847              	.LCFI10:
 848              		.cfi_def_cfa_offset 16
 849              		.cfi_register 65, 0
 850 0008 DBE10008 		stfd 31,8(1)
 851 000c 90010014 		stw 0,20(1)
 852              	.LBB1986:
 853              		.loc 2 238 0
 854 0010 81630060 		lwz 11,96(3)
 855              		.loc 2 236 0
 856 0014 C3E3003C 		lfs 31,60(3)
 857              		.cfi_offset 65, 4
 858              		.cfi_offset 63, -8
 859              		.loc 2 238 0
 860 0018 2F8B0000 		cmpwi 7,11,0
 861              		.loc 2 236 0
 862 001c C0030070 		lfs 0,112(3)
 863 0020 EFFF0032 		fmuls 31,31,0
 864              	.LVL68:
 865              		.loc 2 238 0
 866 0024 419E001C 		beq- 7,.L54
 867              		.loc 2 239 0
 868 0028 812B0000 		lwz 9,0(11)
 869 002c 7D635B78 		mr 3,11
 870              	.LVL69:
 871 0030 80090078 		lwz 0,120(9)
 872 0034 7C0903A6 		mtctr 0
 873 0038 4E800421 		bctrl
 874 003c EFFF0072 		fmuls 31,31,1
 875              	.LVL70:
 876              	.L54:
 877              	.LBE1986:
 878              		.loc 2 242 0
 879 0040 80010014 		lwz 0,20(1)
 880 0044 FC20F890 		fmr 1,31
 881 0048 CBE10008 		lfd 31,8(1)
 882              	.LVL71:
 883 004c 7C0803A6 		mtlr 0
 884 0050 38210010 		addi 1,1,16
 885              	.LCFI11:
 886              		.cfi_def_cfa_offset 0
 887              		.cfi_restore 63
 888 0054 4E800020 		blr
 889              		.cfi_endproc
 890              	.LFE1409:
 891              		.size	_ZN10GuiElement9GetScaleXEv, .-_ZN10GuiElement9GetScaleXEv
 892              		.section	.text._ZN10GuiElement9GetScaleYEv,"axG",@progbits,_ZN10GuiElement9GetScaleYEv,comdat
 893              		.align 2
 894              		.weak	_ZN10GuiElement9GetScaleYEv
 895              		.type	_ZN10GuiElement9GetScaleYEv, @function
 896              	_ZN10GuiElement9GetScaleYEv:
 897              	.LFB1410:
 898              		.loc 2 245 0
 899              		.cfi_startproc
 900              	.LVL72:
 901 0000 7C0802A6 		mflr 0
 902 0004 9421FFF0 		stwu 1,-16(1)
 903              	.LCFI12:
 904              		.cfi_def_cfa_offset 16
 905              		.cfi_register 65, 0
 906 0008 DBE10008 		stfd 31,8(1)
 907 000c 90010014 		stw 0,20(1)
 908              	.LBB1987:
 909              		.loc 2 249 0
 910 0010 81630060 		lwz 11,96(3)
 911              		.loc 2 247 0
 912 0014 C3E30040 		lfs 31,64(3)
 913              		.cfi_offset 65, 4
 914              		.cfi_offset 63, -8
 915              		.loc 2 249 0
 916 0018 2F8B0000 		cmpwi 7,11,0
 917              		.loc 2 247 0
 918 001c C0030070 		lfs 0,112(3)
 919 0020 EFFF0032 		fmuls 31,31,0
 920              	.LVL73:
 921              		.loc 2 249 0
 922 0024 419E001C 		beq- 7,.L56
 923              		.loc 2 250 0
 924 0028 812B0000 		lwz 9,0(11)
 925 002c 7D635B78 		mr 3,11
 926              	.LVL74:
 927 0030 8009007C 		lwz 0,124(9)
 928 0034 7C0903A6 		mtctr 0
 929 0038 4E800421 		bctrl
 930 003c EFFF0072 		fmuls 31,31,1
 931              	.LVL75:
 932              	.L56:
 933              	.LBE1987:
 934              		.loc 2 253 0
 935 0040 80010014 		lwz 0,20(1)
 936 0044 FC20F890 		fmr 1,31
 937 0048 CBE10008 		lfd 31,8(1)
 938              	.LVL76:
 939 004c 7C0803A6 		mtlr 0
 940 0050 38210010 		addi 1,1,16
 941              	.LCFI13:
 942              		.cfi_def_cfa_offset 0
 943              		.cfi_restore 63
 944 0054 4E800020 		blr
 945              		.cfi_endproc
 946              	.LFE1410:
 947              		.size	_ZN10GuiElement9GetScaleYEv, .-_ZN10GuiElement9GetScaleYEv
 948              		.section	.text._ZN10GuiElement6RumbleEv,"axG",@progbits,_ZN10GuiElement6RumbleEv,comdat
 949              		.align 2
 950              		.weak	_ZN10GuiElement6RumbleEv
 951              		.type	_ZN10GuiElement6RumbleEv, @function
 952              	_ZN10GuiElement6RumbleEv:
 953              	.LFB1411:
 954              		.loc 2 256 0
 955              		.cfi_startproc
 956              	.LVL77:
 957              		.loc 2 256 0
 958 0000 8863001C 		lbz 3,28(3)
 959              	.LVL78:
 960 0004 4E800020 		blr
 961              		.cfi_endproc
 962              	.LFE1411:
 963              		.size	_ZN10GuiElement6RumbleEv, .-_ZN10GuiElement6RumbleEv
 964              		.section	.text._ZN10GuiElement9SetRumbleEb,"axG",@progbits,_ZN10GuiElement9SetRumbleEb,comdat
 965              		.align 2
 966              		.weak	_ZN10GuiElement9SetRumbleEb
 967              		.type	_ZN10GuiElement9SetRumbleEb, @function
 968              	_ZN10GuiElement9SetRumbleEb:
 969              	.LFB1412:
 970              		.loc 2 259 0
 971              		.cfi_startproc
 972              	.LVL79:
 973              		.loc 2 259 0
 974 0000 9883001C 		stb 4,28(3)
 975 0004 4E800020 		blr
 976              		.cfi_endproc
 977              	.LFE1412:
 978              		.size	_ZN10GuiElement9SetRumbleEb, .-_ZN10GuiElement9SetRumbleEb
 979              		.section	.text._ZN10GuiElement13SetEffectGrowEv,"axG",@progbits,_ZN10GuiElement13SetEffectGrowEv,c
 980              		.align 2
 981              		.weak	_ZN10GuiElement13SetEffectGrowEv
 982              		.type	_ZN10GuiElement13SetEffectGrowEv, @function
 983              	_ZN10GuiElement13SetEffectGrowEv:
 984              	.LFB1413:
 985              		.loc 2 271 0
 986              		.cfi_startproc
 987              	.LVL80:
 988 0000 7C0802A6 		mflr 0
 989 0004 9421FFF8 		stwu 1,-8(1)
 990              	.LCFI14:
 991              		.cfi_def_cfa_offset 8
 992              		.cfi_register 65, 0
 993 0008 81230000 		lwz 9,0(3)
 994 000c 38800100 		li 4,256
 995 0010 38A00004 		li 5,4
 996 0014 38C0006E 		li 6,110
 997 0018 9001000C 		stw 0,12(1)
 998              		.loc 2 271 0
 999 001c 8009008C 		lwz 0,140(9)
 1000              		.cfi_offset 65, 4
 1001 0020 7C0903A6 		mtctr 0
 1002 0024 4E800421 		bctrl
 1003              	.LVL81:
 1004 0028 8001000C 		lwz 0,12(1)
 1005 002c 38210008 		addi 1,1,8
 1006              	.LCFI15:
 1007              		.cfi_def_cfa_offset 0
 1008 0030 7C0803A6 		mtlr 0
 1009 0034 4E800020 		blr
 1010              		.cfi_endproc
 1011              	.LFE1413:
 1012              		.size	_ZN10GuiElement13SetEffectGrowEv, .-_ZN10GuiElement13SetEffectGrowEv
 1013              		.section	.text._ZNK10GuiElement9GetEffectEv,"axG",@progbits,_ZNK10GuiElement9GetEffectEv,comdat
 1014              		.align 2
 1015              		.weak	_ZNK10GuiElement9GetEffectEv
 1016              		.type	_ZNK10GuiElement9GetEffectEv, @function
 1017              	_ZNK10GuiElement9GetEffectEv:
 1018              	.LFB1414:
 1019              		.loc 2 276 0
 1020              		.cfi_startproc
 1021              	.LVL82:
 1022              		.loc 2 276 0
 1023 0000 80630078 		lwz 3,120(3)
 1024              	.LVL83:
 1025 0004 4E800020 		blr
 1026              		.cfi_endproc
 1027              	.LFE1414:
 1028              		.size	_ZNK10GuiElement9GetEffectEv, .-_ZNK10GuiElement9GetEffectEv
 1029              		.section	.text._ZNK10GuiElement10IsAnimatedEv,"axG",@progbits,_ZNK10GuiElement10IsAnimatedEv,comda
 1030              		.align 2
 1031              		.weak	_ZNK10GuiElement10IsAnimatedEv
 1032              		.type	_ZNK10GuiElement10IsAnimatedEv, @function
 1033              	_ZNK10GuiElement10IsAnimatedEv:
 1034              	.LFB1415:
 1035              		.loc 2 278 0
 1036              		.cfi_startproc
 1037              	.LVL84:
 1038 0000 7C0802A6 		mflr 0
 1039 0004 9421FFF8 		stwu 1,-8(1)
 1040              	.LCFI16:
 1041              		.cfi_def_cfa_offset 8
 1042              		.cfi_register 65, 0
 1043 0008 9001000C 		stw 0,12(1)
 1044              		.loc 2 278 0
 1045 000c 81230000 		lwz 9,0(3)
 1046 0010 80090098 		lwz 0,152(9)
 1047              		.cfi_offset 65, 4
 1048 0014 7C0903A6 		mtctr 0
 1049 0018 4E800421 		bctrl
 1050              	.LVL85:
 1051 001c 7C60FE70 		srawi 0,3,31
 1052 0020 7C630050 		subf 3,3,0
 1053 0024 8001000C 		lwz 0,12(1)
 1054 0028 54630FFE 		srwi 3,3,31
 1055 002c 7C0803A6 		mtlr 0
 1056 0030 38210008 		addi 1,1,8
 1057              	.LCFI17:
 1058              		.cfi_def_cfa_offset 0
 1059 0034 4E800020 		blr
 1060              		.cfi_endproc
 1061              	.LFE1415:
 1062              		.size	_ZNK10GuiElement10IsAnimatedEv, .-_ZNK10GuiElement10IsAnimatedEv
 1063              		.section	.text._ZN10GuiElement8IsInsideEii,"axG",@progbits,_ZN10GuiElement8IsInsideEii,comdat
 1064              		.align 2
 1065              		.weak	_ZN10GuiElement8IsInsideEii
 1066              		.type	_ZN10GuiElement8IsInsideEii, @function
 1067              	_ZN10GuiElement8IsInsideEii:
 1068              	.LFB1417:
 1069              		.loc 2 285 0
 1070              		.cfi_startproc
 1071              	.LVL86:
 1072 0000 7C0802A6 		mflr 0
 1073 0004 9421FFE8 		stwu 1,-24(1)
 1074              	.LCFI18:
 1075              		.cfi_def_cfa_offset 24
 1076              		.cfi_register 65, 0
 1077 0008 93810008 		stw 28,8(1)
 1078 000c 7CBC2B78 		mr 28,5
 1079              		.cfi_offset 28, -16
 1080 0010 9001001C 		stw 0,28(1)
 1081 0014 93A1000C 		stw 29,12(1)
 1082              		.loc 2 290 0
 1083 0018 3BA00000 		li 29,0
 1084              		.cfi_offset 29, -12
 1085              		.cfi_offset 65, 4
 1086              		.loc 2 287 0
 1087 001c 81230000 		lwz 9,0(3)
 1088              		.loc 2 285 0
 1089 0020 93C10010 		stw 30,16(1)
 1090 0024 7C9E2378 		mr 30,4
 1091              		.cfi_offset 30, -8
 1092              		.loc 2 287 0
 1093 0028 80090010 		lwz 0,16(9)
 1094              		.loc 2 285 0
 1095 002c 93E10014 		stw 31,20(1)
 1096              		.loc 2 285 0
 1097 0030 7C7F1B78 		mr 31,3
 1098              		.cfi_offset 31, -4
 1099              		.loc 2 287 0
 1100 0034 7C0903A6 		mtctr 0
 1101 0038 4E800421 		bctrl
 1102              	.LVL87:
 1103              		.loc 2 290 0
 1104 003c 7F83F000 		cmpw 7,3,30
 1105 0040 419C0028 		blt- 7,.L67
 1106              	.L63:
 1107              		.loc 2 291 0 discriminator 6
 1108 0044 8001001C 		lwz 0,28(1)
 1109 0048 7FA3EB78 		mr 3,29
 1110 004c 83810008 		lwz 28,8(1)
 1111              	.LVL88:
 1112 0050 7C0803A6 		mtlr 0
 1113 0054 83A1000C 		lwz 29,12(1)
 1114 0058 83C10010 		lwz 30,16(1)
 1115              	.LVL89:
 1116 005c 83E10014 		lwz 31,20(1)
 1117              	.LVL90:
 1118 0060 38210018 		addi 1,1,24
 1119              		.cfi_remember_state
 1120              	.LCFI19:
 1121              		.cfi_def_cfa_offset 0
 1122              		.cfi_restore 31
 1123              		.cfi_restore 30
 1124              		.cfi_restore 29
 1125              		.cfi_restore 28
 1126 0064 4E800020 		blr
 1127              	.LVL91:
 1128              	.L67:
 1129              	.LCFI20:
 1130              		.cfi_restore_state
 1131              		.loc 2 288 0 discriminator 1
 1132 0068 813F0000 		lwz 9,0(31)
 1133 006c 7FE3FB78 		mr 3,31
 1134 0070 80090010 		lwz 0,16(9)
 1135 0074 7C0903A6 		mtctr 0
 1136 0078 4E800421 		bctrl
 1137              		.loc 2 290 0 discriminator 1
 1138 007c 801F0024 		lwz 0,36(31)
 1139 0080 7C030214 		add 0,3,0
 1140 0084 7F9E0000 		cmpw 7,30,0
 1141 0088 409CFFBC 		bge+ 7,.L63
 1142              		.loc 2 289 0 discriminator 3
 1143 008c 813F0000 		lwz 9,0(31)
 1144 0090 7FE3FB78 		mr 3,31
 1145 0094 80090014 		lwz 0,20(9)
 1146 0098 7C0903A6 		mtctr 0
 1147 009c 4E800421 		bctrl
 1148              		.loc 2 290 0 discriminator 3
 1149 00a0 7F83E000 		cmpw 7,3,28
 1150 00a4 409CFFA0 		bge+ 7,.L63
 1151              		.loc 2 290 0 is_stmt 0 discriminator 4
 1152 00a8 813F0000 		lwz 9,0(31)
 1153 00ac 7FE3FB78 		mr 3,31
 1154 00b0 80090014 		lwz 0,20(9)
 1155 00b4 7C0903A6 		mtctr 0
 1156 00b8 4E800421 		bctrl
 1157 00bc 801F0028 		lwz 0,40(31)
 1158 00c0 7C030214 		add 0,3,0
 1159              		.loc 2 285 0 is_stmt 1 discriminator 4
 1160 00c4 7F9C0000 		cmpw 7,28,0
 1161 00c8 7FA00026 		mfcr 29
 1162 00cc 57BDEFFE 		rlwinm 29,29,29,1
 1163 00d0 4BFFFF74 		b .L63
 1164              		.cfi_endproc
 1165              	.LFE1417:
 1166              		.size	_ZN10GuiElement8IsInsideEii, .-_ZN10GuiElement8IsInsideEii
 1167              		.section	.text._ZN10GuiElement11SetPositionEii,"axG",@progbits,_ZN10GuiElement11SetPositionEii,com
 1168              		.align 2
 1169              		.weak	_ZN10GuiElement11SetPositionEii
 1170              		.type	_ZN10GuiElement11SetPositionEii, @function
 1171              	_ZN10GuiElement11SetPositionEii:
 1172              	.LFB1418:
 1173              		.loc 2 295 0
 1174              		.cfi_startproc
 1175              	.LVL92:
 1176              		.loc 2 297 0
 1177 0000 9083002C 		stw 4,44(3)
 1178              		.loc 2 299 0
 1179              		.loc 2 298 0
 1180 0004 90A30030 		stw 5,48(3)
 1181              		.loc 2 299 0
 1182 0008 4E800020 		blr
 1183              		.cfi_endproc
 1184              	.LFE1418:
 1185              		.size	_ZN10GuiElement11SetPositionEii, .-_ZN10GuiElement11SetPositionEii
 1186              		.section	.text._ZN10GuiElement11SetPositionEiii,"axG",@progbits,_ZN10GuiElement11SetPositionEiii,c
 1187              		.align 2
 1188              		.weak	_ZN10GuiElement11SetPositionEiii
 1189              		.type	_ZN10GuiElement11SetPositionEiii, @function
 1190              	_ZN10GuiElement11SetPositionEiii:
 1191              	.LFB1419:
 1192              		.loc 2 304 0
 1193              		.cfi_startproc
 1194              	.LVL93:
 1195              		.loc 2 306 0
 1196 0000 9083002C 		stw 4,44(3)
 1197              		.loc 2 309 0
 1198              		.loc 2 307 0
 1199 0004 90A30030 		stw 5,48(3)
 1200              		.loc 2 308 0
 1201 0008 90C30034 		stw 6,52(3)
 1202              		.loc 2 309 0
 1203 000c 4E800020 		blr
 1204              		.cfi_endproc
 1205              	.LFE1419:
 1206              		.size	_ZN10GuiElement11SetPositionEiii, .-_ZN10GuiElement11SetPositionEiii
 1207              		.section	.text._ZN10GuiElement11GetSelectedEv,"axG",@progbits,_ZN10GuiElement11GetSelectedEv,comda
 1208              		.align 2
 1209              		.weak	_ZN10GuiElement11GetSelectedEv
 1210              		.type	_ZN10GuiElement11GetSelectedEv, @function
 1211              	_ZN10GuiElement11GetSelectedEv:
 1212              	.LFB1420:
 1213              		.loc 2 312 0
 1214              		.cfi_startproc
 1215              	.LVL94:
 1216              		.loc 2 312 0
 1217 0000 3860FFFF 		li 3,-1
 1218              	.LVL95:
 1219 0004 4E800020 		blr
 1220              		.cfi_endproc
 1221              	.LFE1420:
 1222              		.size	_ZN10GuiElement11GetSelectedEv, .-_ZN10GuiElement11GetSelectedEv
 1223              		.section	.text._ZN10GuiElement12SetAlignmentEi,"axG",@progbits,_ZN10GuiElement12SetAlignmentEi,com
 1224              		.align 2
 1225              		.weak	_ZN10GuiElement12SetAlignmentEi
 1226              		.type	_ZN10GuiElement12SetAlignmentEi, @function
 1227              	_ZN10GuiElement12SetAlignmentEi:
 1228              	.LFB1421:
 1229              		.loc 2 316 0
 1230              		.cfi_startproc
 1231              	.LVL96:
 1232              		.loc 2 316 0
 1233 0000 90830044 		stw 4,68(3)
 1234 0004 4E800020 		blr
 1235              		.cfi_endproc
 1236              	.LFE1421:
 1237              		.size	_ZN10GuiElement12SetAlignmentEi, .-_ZN10GuiElement12SetAlignmentEi
 1238              		.section	.text._ZNK10GuiElement12GetAlignmentEv,"axG",@progbits,_ZNK10GuiElement12GetAlignmentEv,c
 1239              		.align 2
 1240              		.weak	_ZNK10GuiElement12GetAlignmentEv
 1241              		.type	_ZNK10GuiElement12GetAlignmentEv, @function
 1242              	_ZNK10GuiElement12GetAlignmentEv:
 1243              	.LFB1422:
 1244              		.loc 2 318 0
 1245              		.cfi_startproc
 1246              	.LVL97:
 1247              		.loc 2 318 0
 1248 0000 80630044 		lwz 3,68(3)
 1249              	.LVL98:
 1250 0004 4E800020 		blr
 1251              		.cfi_endproc
 1252              	.LFE1422:
 1253              		.size	_ZNK10GuiElement12GetAlignmentEv, .-_ZNK10GuiElement12GetAlignmentEv
 1254              		.section	".text"
 1255              		.align 2
 1256              		.globl _ZN9GuiButton9SetBoundsE4RectIiE
 1257              		.type	_ZN9GuiButton9SetBoundsE4RectIiE, @function
 1258              	_ZN9GuiButton9SetBoundsE4RectIiE:
 1259              	.LFB1488:
 1260              		.loc 3 175 0
 1261              		.cfi_startproc
 1262              	.LVL99:
 1263 0000 7C0802A6 		mflr 0
 1264 0004 9421FF60 		stwu 1,-160(1)
 1265              	.LCFI21:
 1266              		.cfi_def_cfa_offset 160
 1267              		.cfi_register 65, 0
 1268 0008 93C10098 		stw 30,152(1)
 1269 000c 7C7E1B78 		mr 30,3
 1270              		.cfi_offset 30, -8
 1271 0010 900100A4 		stw 0,164(1)
 1272 0014 93E1009C 		stw 31,156(1)
 1273              		.loc 3 175 0
 1274 0018 7C9F2378 		mr 31,4
 1275              		.cfi_offset 31, -4
 1276              		.cfi_offset 65, 4
 1277              		.loc 3 176 0
 1278 001c 806300B8 		lwz 3,184(3)
 1279              	.LVL100:
 1280 0020 2F830000 		cmpwi 7,3,0
 1281 0024 419E0038 		beq- 7,.L74
 1282              		.loc 3 177 0
 1283 0028 80E30000 		lwz 7,0(3)
 1284              	.LBB1988:
 1285              	.LBB1989:
 1286              		.file 5 "d:/Projects/SaveGameManager/savegame-manager-gx/trunk/source/GUI/../Tools/Rect.h"
 1287              		.loc 5 13 0
 1288 002c 81040000 		lwz 8,0(4)
 1289 0030 81440004 		lwz 10,4(4)
 1290 0034 81640008 		lwz 11,8(4)
 1291 0038 8124000C 		lwz 9,12(4)
 1292              	.LBE1989:
 1293              	.LBE1988:
 1294              		.loc 3 177 0
 1295 003c 38810088 		addi 4,1,136
 1296              	.LVL101:
 1297 0040 800700A0 		lwz 0,160(7)
 1298              	.LVL102:
 1299              	.LBB1992:
 1300              	.LBB1990:
 1301              		.loc 5 13 0
 1302 0044 91010088 		stw 8,136(1)
 1303 0048 9141008C 		stw 10,140(1)
 1304              	.LBE1990:
 1305              	.LBE1992:
 1306              		.loc 3 177 0
 1307 004c 7C0903A6 		mtctr 0
 1308              	.LBB1993:
 1309              	.LBB1991:
 1310              		.loc 5 13 0
 1311 0050 91610090 		stw 11,144(1)
 1312 0054 91210094 		stw 9,148(1)
 1313              	.LBE1991:
 1314              	.LBE1993:
 1315              		.loc 3 177 0
 1316 0058 4E800421 		bctrl
 1317              	.LVL103:
 1318              	.L74:
 1319              		.loc 3 178 0
 1320 005c 807E00BC 		lwz 3,188(30)
 1321 0060 2F830000 		cmpwi 7,3,0
 1322 0064 419E0038 		beq- 7,.L75
 1323              		.loc 3 179 0
 1324 0068 80E30000 		lwz 7,0(3)
 1325 006c 38810078 		addi 4,1,120
 1326              	.LBB1994:
 1327              	.LBB1995:
 1328              		.loc 5 13 0
 1329 0070 811F0000 		lwz 8,0(31)
 1330 0074 815F0004 		lwz 10,4(31)
 1331 0078 817F0008 		lwz 11,8(31)
 1332 007c 813F000C 		lwz 9,12(31)
 1333              	.LBE1995:
 1334              	.LBE1994:
 1335              		.loc 3 179 0
 1336 0080 800700A0 		lwz 0,160(7)
 1337              	.LVL104:
 1338              	.LBB1998:
 1339              	.LBB1996:
 1340              		.loc 5 13 0
 1341 0084 91010078 		stw 8,120(1)
 1342 0088 9141007C 		stw 10,124(1)
 1343              	.LBE1996:
 1344              	.LBE1998:
 1345              		.loc 3 179 0
 1346 008c 7C0903A6 		mtctr 0
 1347              	.LBB1999:
 1348              	.LBB1997:
 1349              		.loc 5 13 0
 1350 0090 91610080 		stw 11,128(1)
 1351 0094 91210084 		stw 9,132(1)
 1352              	.LBE1997:
 1353              	.LBE1999:
 1354              		.loc 3 179 0
 1355 0098 4E800421 		bctrl
 1356              	.LVL105:
 1357              	.L75:
 1358              		.loc 3 180 0
 1359 009c 807E00C0 		lwz 3,192(30)
 1360 00a0 2F830000 		cmpwi 7,3,0
 1361 00a4 419E0038 		beq- 7,.L76
 1362              		.loc 3 181 0
 1363 00a8 80E30000 		lwz 7,0(3)
 1364 00ac 38810068 		addi 4,1,104
 1365              	.LBB2000:
 1366              	.LBB2001:
 1367              		.loc 5 13 0
 1368 00b0 811F0000 		lwz 8,0(31)
 1369 00b4 815F0004 		lwz 10,4(31)
 1370 00b8 817F0008 		lwz 11,8(31)
 1371 00bc 813F000C 		lwz 9,12(31)
 1372              	.LBE2001:
 1373              	.LBE2000:
 1374              		.loc 3 181 0
 1375 00c0 800700A0 		lwz 0,160(7)
 1376              	.LVL106:
 1377              	.LBB2004:
 1378              	.LBB2002:
 1379              		.loc 5 13 0
 1380 00c4 91010068 		stw 8,104(1)
 1381 00c8 9141006C 		stw 10,108(1)
 1382              	.LBE2002:
 1383              	.LBE2004:
 1384              		.loc 3 181 0
 1385 00cc 7C0903A6 		mtctr 0
 1386              	.LBB2005:
 1387              	.LBB2003:
 1388              		.loc 5 13 0
 1389 00d0 91610070 		stw 11,112(1)
 1390 00d4 91210074 		stw 9,116(1)
 1391              	.LBE2003:
 1392              	.LBE2005:
 1393              		.loc 3 181 0
 1394 00d8 4E800421 		bctrl
 1395              	.LVL107:
 1396              	.L76:
 1397              		.loc 3 182 0
 1398 00dc 807E00C4 		lwz 3,196(30)
 1399 00e0 2F830000 		cmpwi 7,3,0
 1400 00e4 419E0038 		beq- 7,.L77
 1401              		.loc 3 183 0
 1402 00e8 80E30000 		lwz 7,0(3)
 1403 00ec 38810058 		addi 4,1,88
 1404              	.LBB2006:
 1405              	.LBB2007:
 1406              		.loc 5 13 0
 1407 00f0 811F0000 		lwz 8,0(31)
 1408 00f4 815F0004 		lwz 10,4(31)
 1409 00f8 817F0008 		lwz 11,8(31)
 1410 00fc 813F000C 		lwz 9,12(31)
 1411              	.LBE2007:
 1412              	.LBE2006:
 1413              		.loc 3 183 0
 1414 0100 800700A0 		lwz 0,160(7)
 1415              	.LVL108:
 1416              	.LBB2010:
 1417              	.LBB2008:
 1418              		.loc 5 13 0
 1419 0104 91010058 		stw 8,88(1)
 1420 0108 9141005C 		stw 10,92(1)
 1421              	.LBE2008:
 1422              	.LBE2010:
 1423              		.loc 3 183 0
 1424 010c 7C0903A6 		mtctr 0
 1425              	.LBB2011:
 1426              	.LBB2009:
 1427              		.loc 5 13 0
 1428 0110 91610060 		stw 11,96(1)
 1429 0114 91210064 		stw 9,100(1)
 1430              	.LBE2009:
 1431              	.LBE2011:
 1432              		.loc 3 183 0
 1433 0118 4E800421 		bctrl
 1434              	.LVL109:
 1435              	.L77:
 1436              		.loc 3 184 0
 1437 011c 807E00C8 		lwz 3,200(30)
 1438 0120 2F830000 		cmpwi 7,3,0
 1439 0124 419E0038 		beq- 7,.L78
 1440              		.loc 3 185 0
 1441 0128 80E30000 		lwz 7,0(3)
 1442 012c 38810048 		addi 4,1,72
 1443              	.LBB2012:
 1444              	.LBB2013:
 1445              		.loc 5 13 0
 1446 0130 811F0000 		lwz 8,0(31)
 1447 0134 815F0004 		lwz 10,4(31)
 1448 0138 817F0008 		lwz 11,8(31)
 1449 013c 813F000C 		lwz 9,12(31)
 1450              	.LBE2013:
 1451              	.LBE2012:
 1452              		.loc 3 185 0
 1453 0140 800700A0 		lwz 0,160(7)
 1454              	.LVL110:
 1455              	.LBB2016:
 1456              	.LBB2014:
 1457              		.loc 5 13 0
 1458 0144 91010048 		stw 8,72(1)
 1459 0148 9141004C 		stw 10,76(1)
 1460              	.LBE2014:
 1461              	.LBE2016:
 1462              		.loc 3 185 0
 1463 014c 7C0903A6 		mtctr 0
 1464              	.LBB2017:
 1465              	.LBB2015:
 1466              		.loc 5 13 0
 1467 0150 91610050 		stw 11,80(1)
 1468 0154 91210054 		stw 9,84(1)
 1469              	.LBE2015:
 1470              	.LBE2017:
 1471              		.loc 3 185 0
 1472 0158 4E800421 		bctrl
 1473              	.LVL111:
 1474              	.L78:
 1475              		.loc 3 186 0
 1476 015c 807E00CC 		lwz 3,204(30)
 1477 0160 2F830000 		cmpwi 7,3,0
 1478 0164 419E0038 		beq- 7,.L79
 1479              		.loc 3 187 0
 1480 0168 80E30000 		lwz 7,0(3)
 1481 016c 38810038 		addi 4,1,56
 1482              	.LBB2018:
 1483              	.LBB2019:
 1484              		.loc 5 13 0
 1485 0170 811F0000 		lwz 8,0(31)
 1486 0174 815F0004 		lwz 10,4(31)
 1487 0178 817F0008 		lwz 11,8(31)
 1488 017c 813F000C 		lwz 9,12(31)
 1489              	.LBE2019:
 1490              	.LBE2018:
 1491              		.loc 3 187 0
 1492 0180 800700A0 		lwz 0,160(7)
 1493              	.LVL112:
 1494              	.LBB2022:
 1495              	.LBB2020:
 1496              		.loc 5 13 0
 1497 0184 91010038 		stw 8,56(1)
 1498 0188 9141003C 		stw 10,60(1)
 1499              	.LBE2020:
 1500              	.LBE2022:
 1501              		.loc 3 187 0
 1502 018c 7C0903A6 		mtctr 0
 1503              	.LBB2023:
 1504              	.LBB2021:
 1505              		.loc 5 13 0
 1506 0190 91610040 		stw 11,64(1)
 1507 0194 91210044 		stw 9,68(1)
 1508              	.LBE2021:
 1509              	.LBE2023:
 1510              		.loc 3 187 0
 1511 0198 4E800421 		bctrl
 1512              	.LVL113:
 1513              	.L79:
 1514              		.loc 3 188 0
 1515 019c 807E00D0 		lwz 3,208(30)
 1516 01a0 2F830000 		cmpwi 7,3,0
 1517 01a4 419E0038 		beq- 7,.L80
 1518              		.loc 3 189 0
 1519 01a8 80E30000 		lwz 7,0(3)
 1520 01ac 38810028 		addi 4,1,40
 1521              	.LBB2024:
 1522              	.LBB2025:
 1523              		.loc 5 13 0
 1524 01b0 811F0000 		lwz 8,0(31)
 1525 01b4 815F0004 		lwz 10,4(31)
 1526 01b8 817F0008 		lwz 11,8(31)
 1527 01bc 813F000C 		lwz 9,12(31)
 1528              	.LBE2025:
 1529              	.LBE2024:
 1530              		.loc 3 189 0
 1531 01c0 800700A0 		lwz 0,160(7)
 1532              	.LVL114:
 1533              	.LBB2028:
 1534              	.LBB2026:
 1535              		.loc 5 13 0
 1536 01c4 91010028 		stw 8,40(1)
 1537 01c8 9141002C 		stw 10,44(1)
 1538              	.LBE2026:
 1539              	.LBE2028:
 1540              		.loc 3 189 0
 1541 01cc 7C0903A6 		mtctr 0
 1542              	.LBB2029:
 1543              	.LBB2027:
 1544              		.loc 5 13 0
 1545 01d0 91610030 		stw 11,48(1)
 1546 01d4 91210034 		stw 9,52(1)
 1547              	.LBE2027:
 1548              	.LBE2029:
 1549              		.loc 3 189 0
 1550 01d8 4E800421 		bctrl
 1551              	.LVL115:
 1552              	.L80:
 1553              		.loc 3 190 0
 1554 01dc 807E00D4 		lwz 3,212(30)
 1555 01e0 2F830000 		cmpwi 7,3,0
 1556 01e4 419E0038 		beq- 7,.L81
 1557              		.loc 3 191 0
 1558 01e8 80E30000 		lwz 7,0(3)
 1559 01ec 38810018 		addi 4,1,24
 1560              	.LBB2030:
 1561              	.LBB2031:
 1562              		.loc 5 13 0
 1563 01f0 811F0000 		lwz 8,0(31)
 1564 01f4 815F0004 		lwz 10,4(31)
 1565 01f8 817F0008 		lwz 11,8(31)
 1566 01fc 813F000C 		lwz 9,12(31)
 1567              	.LBE2031:
 1568              	.LBE2030:
 1569              		.loc 3 191 0
 1570 0200 800700A0 		lwz 0,160(7)
 1571              	.LVL116:
 1572              	.LBB2034:
 1573              	.LBB2032:
 1574              		.loc 5 13 0
 1575 0204 91010018 		stw 8,24(1)
 1576 0208 9141001C 		stw 10,28(1)
 1577              	.LBE2032:
 1578              	.LBE2034:
 1579              		.loc 3 191 0
 1580 020c 7C0903A6 		mtctr 0
 1581              	.LBB2035:
 1582              	.LBB2033:
 1583              		.loc 5 13 0
 1584 0210 91610020 		stw 11,32(1)
 1585 0214 91210024 		stw 9,36(1)
 1586              	.LBE2033:
 1587              	.LBE2035:
 1588              		.loc 3 191 0
 1589 0218 4E800421 		bctrl
 1590              	.LVL117:
 1591              	.L81:
 1592              		.loc 3 192 0
 1593 021c 807E0114 		lwz 3,276(30)
 1594 0220 2F830000 		cmpwi 7,3,0
 1595 0224 419E0038 		beq- 7,.L73
 1596              		.loc 3 193 0
 1597 0228 80E30000 		lwz 7,0(3)
 1598 022c 38810008 		addi 4,1,8
 1599              	.LBB2036:
 1600              	.LBB2037:
 1601              		.loc 5 13 0
 1602 0230 811F0000 		lwz 8,0(31)
 1603 0234 815F0004 		lwz 10,4(31)
 1604 0238 817F0008 		lwz 11,8(31)
 1605 023c 813F000C 		lwz 9,12(31)
 1606              	.LBE2037:
 1607              	.LBE2036:
 1608              		.loc 3 193 0
 1609 0240 800700A0 		lwz 0,160(7)
 1610              	.LVL118:
 1611              	.LBB2040:
 1612              	.LBB2038:
 1613              		.loc 5 13 0
 1614 0244 91010008 		stw 8,8(1)
 1615 0248 9141000C 		stw 10,12(1)
 1616              	.LBE2038:
 1617              	.LBE2040:
 1618              		.loc 3 193 0
 1619 024c 7C0903A6 		mtctr 0
 1620              	.LBB2041:
 1621              	.LBB2039:
 1622              		.loc 5 13 0
 1623 0250 91610010 		stw 11,16(1)
 1624 0254 91210014 		stw 9,20(1)
 1625              	.LBE2039:
 1626              	.LBE2041:
 1627              		.loc 3 193 0
 1628 0258 4E800421 		bctrl
 1629              	.LVL119:
 1630              	.L73:
 1631              		.loc 3 194 0
 1632 025c 800100A4 		lwz 0,164(1)
 1633 0260 83C10098 		lwz 30,152(1)
 1634              	.LVL120:
 1635 0264 7C0803A6 		mtlr 0
 1636 0268 83E1009C 		lwz 31,156(1)
 1637              	.LVL121:
 1638 026c 382100A0 		addi 1,1,160
 1639              	.LCFI22:
 1640              		.cfi_def_cfa_offset 0
 1641              		.cfi_restore 31
 1642              		.cfi_restore 30
 1643 0270 4E800020 		blr
 1644              		.cfi_endproc
 1645              	.LFE1488:
 1646              		.size	_ZN9GuiButton9SetBoundsE4RectIiE, .-_ZN9GuiButton9SetBoundsE4RectIiE
 1647              		.section	.text._ZN7sigslot12_signal_baseINS_15single_threadedEED2Ev,"axG",@progbits,_ZN7sigslot12_
 1648              		.align 2
 1649              		.weak	_ZN7sigslot12_signal_baseINS_15single_threadedEED2Ev
 1650              		.type	_ZN7sigslot12_signal_baseINS_15single_threadedEED2Ev, @function
 1651              	_ZN7sigslot12_signal_baseINS_15single_threadedEED2Ev:
 1652              	.LFB1531:
 1653              		.loc 1 466 0
 1654              		.cfi_startproc
 1655              	.LVL122:
 1656              	.LBB2042:
 1657              	.LBB2043:
 1658              	.LBB2044:
 1659              	.LBB2045:
 1660              		.loc 1 105 0
 1661 0000 3D200000 		lis 9,_ZTVN7sigslot15single_threadedE+8@ha
 1662              	.LBE2045:
 1663              	.LBE2044:
 1664              	.LBE2043:
 1665              	.LBE2042:
 1666              		.loc 1 466 0
 1667              	.LBB2049:
 1668              	.LBB2048:
 1669              	.LBB2047:
 1670              	.LBB2046:
 1671              		.loc 1 105 0
 1672 0004 38090008 		la 0,_ZTVN7sigslot15single_threadedE+8@l(9)
 1673 0008 90030000 		stw 0,0(3)
 1674              	.LBE2046:
 1675              	.LBE2047:
 1676              	.LBE2048:
 1677              	.LBE2049:
 1678              		.loc 1 466 0
 1679 000c 4E800020 		blr
 1680              		.cfi_endproc
 1681              	.LFE1531:
 1682              		.size	_ZN7sigslot12_signal_baseINS_15single_threadedEED2Ev, .-_ZN7sigslot12_signal_baseINS_15singl
 1683              		.section	.text._ZN7sigslot13_signal_base3IP9GuiButtoniRK6_POINTNS_15single_threadedEE14slot_duplic
 1684              		.align 2
 1685              		.weak	_ZN7sigslot13_signal_base3IP9GuiButtoniRK6_POINTNS_15single_threadedEE14slot_duplicateEPKNS_
 1686              		.type	_ZN7sigslot13_signal_base3IP9GuiButtoniRK6_POINTNS_15single_threadedEE14slot_duplicateEPKNS_
 1687              	_ZN7sigslot13_signal_base3IP9GuiButtoniRK6_POINTNS_15single_threadedEE14slot_duplicateEPKNS_9has_sl
 1688              	.LFB1830:
 1689              		.loc 1 926 0
 1690              		.cfi_startproc
 1691              		.cfi_personality 0,__gxx_personality_v0
 1692              		.cfi_lsda 0,.LLSDA1830
 1693              	.LVL123:
 1694 0000 7C0802A6 		mflr 0
 1695 0004 9421FFE0 		stwu 1,-32(1)
 1696              	.LCFI23:
 1697              		.cfi_def_cfa_offset 32
 1698              		.cfi_register 65, 0
 1699 0008 93410008 		stw 26,8(1)
 1700 000c 7CBA2B78 		mr 26,5
 1701              		.cfi_offset 26, -24
 1702 0010 90010024 		stw 0,36(1)
 1703 0014 9361000C 		stw 27,12(1)
 1704 0018 7C7B1B78 		mr 27,3
 1705              		.cfi_offset 27, -20
 1706              		.cfi_offset 65, 4
 1707              	.LVL124:
 1708              	.LBB2050:
 1709              	.LBB2051:
 1710              	.LBB2052:
 1711              		.loc 1 338 0
 1712 001c 81230000 		lwz 9,0(3)
 1713              	.LBE2052:
 1714              	.LBE2051:
 1715              	.LBE2050:
 1716              		.loc 1 926 0
 1717 0020 93A10014 		stw 29,20(1)
 1718 0024 7C9D2378 		mr 29,4
 1719              		.cfi_offset 29, -12
 1720              	.LBB2081:
 1721              	.LBB2057:
 1722              	.LBB2053:
 1723              		.loc 1 338 0
 1724 0028 80090008 		lwz 0,8(9)
 1725              	.LBE2053:
 1726              	.LBE2057:
 1727              	.LBE2081:
 1728              		.loc 1 926 0
 1729 002c 93C10018 		stw 30,24(1)
 1730              	.LBB2082:
 1731              	.LBB2058:
 1732              	.LBB2054:
 1733              		.loc 3 406 0
 1734 0030 7F7EDB78 		mr 30,27
 1735              		.cfi_offset 30, -8
 1736              	.LBE2054:
 1737              	.LBE2058:
 1738              	.LBE2082:
 1739              		.loc 1 926 0
 1740 0034 93E1001C 		stw 31,28(1)
 1741              	.LBB2083:
 1742              	.LBB2059:
 1743              	.LBB2055:
 1744              		.loc 1 338 0
 1745 0038 7C0903A6 		mtctr 0
 1746              	.LBE2055:
 1747              	.LBE2059:
 1748              	.LBE2083:
 1749              		.loc 1 926 0
 1750 003c 93810010 		stw 28,16(1)
 1751              	.LEHB4:
 1752              	.LBB2084:
 1753              	.LBB2060:
 1754              	.LBB2056:
 1755              		.loc 1 338 0
 1756              		.cfi_offset 28, -16
 1757              		.cfi_offset 31, -4
 1758 0040 4E800421 		bctrl
 1759              	.LEHE4:
 1760              	.LVL125:
 1761              		.loc 3 406 0
 1762 0044 87FE0004 		lwzu 31,4(30)
 1763              	.LVL126:
 1764              	.LBE2056:
 1765              	.LBE2060:
 1766              		.loc 1 932 0
 1767 0048 7F9FF000 		cmpw 7,31,30
 1768 004c 40BE0014 		bne+ 7,.L96
 1769 0050 48000070 		b .L87
 1770              	.LVL127:
 1771              	.L88:
 1772              	.LBB2061:
 1773              	.LBB2062:
 1774              		.loc 4 154 0
 1775 0054 83FF0000 		lwz 31,0(31)
 1776              	.LVL128:
 1777              	.LBE2062:
 1778              	.LBE2061:
 1779              		.loc 1 932 0
 1780 0058 7F9EF800 		cmpw 7,30,31
 1781 005c 419E0064 		beq- 7,.L87
 1782              	.LVL129:
 1783              	.L96:
 1784              		.loc 1 934 0
 1785 0060 807F0008 		lwz 3,8(31)
 1786 0064 81230000 		lwz 9,0(3)
 1787 0068 80090008 		lwz 0,8(9)
 1788 006c 7C0903A6 		mtctr 0
 1789              	.LEHB5:
 1790 0070 4E800421 		bctrl
 1791 0074 7F9D1800 		cmpw 7,29,3
 1792 0078 409EFFDC 		bne+ 7,.L88
 1793              	.LVL130:
 1794              		.loc 1 936 0
 1795 007c 807F0008 		lwz 3,8(31)
 1796 0080 7F44D378 		mr 4,26
 1797 0084 81230000 		lwz 9,0(3)
 1798 0088 80090014 		lwz 0,20(9)
 1799 008c 7C0903A6 		mtctr 0
 1800 0090 4E800421 		bctrl
 1801 0094 7C7C1B78 		mr 28,3
 1802              	.LVL131:
 1803              	.LBB2064:
 1804              	.LBB2065:
 1805              	.LBB2066:
 1806              	.LBB2067:
 1807              	.LBB2068:
 1808              	.LBB2069:
 1809              	.LBB2070:
 1810              	.LBB2071:
 1811              		.file 6 "d:\\devkitpro\\devkitppc\\bin\\../lib/gcc/powerpc-eabi/4.6.3/../../../../powerpc-eabi/inc
 1812              		.loc 6 92 0
 1813 0098 3860000C 		li 3,12
 1814 009c 48000001 		bl _Znwj
 1815              	.LEHE5:
 1816              	.LVL132:
 1817              	.LBE2071:
 1818              	.LBE2070:
 1819              	.LBE2069:
 1820              	.LBB2072:
 1821              	.LBB2073:
 1822              		.loc 6 108 0 discriminator 1
 1823 00a0 2F83FFF8 		cmpwi 7,3,-8
 1824 00a4 419E0008 		beq- 7,.L90
 1825              		.loc 6 108 0 is_stmt 0
 1826 00a8 93830008 		stw 28,8(3)
 1827              	.L90:
 1828              	.LVL133:
 1829              	.LBE2073:
 1830              	.LBE2072:
 1831              	.LBE2068:
 1832              	.LBE2067:
 1833              		.loc 4 1516 0 is_stmt 1
 1834 00ac 7FC4F378 		mr 4,30
 1835 00b0 48000001 		bl _ZNSt8__detail15_List_node_base7_M_hookEPS0_
 1836              	.LVL134:
 1837              	.LBE2066:
 1838              	.LBE2065:
 1839              	.LBE2064:
 1840              	.LBB2074:
 1841              	.LBB2063:
 1842              		.loc 4 154 0
 1843 00b4 83FF0000 		lwz 31,0(31)
 1844              	.LVL135:
 1845              	.LBE2063:
 1846              	.LBE2074:
 1847              		.loc 1 932 0
 1848 00b8 7F9EF800 		cmpw 7,30,31
 1849 00bc 409EFFA4 		bne+ 7,.L96
 1850              	.LVL136:
 1851              	.L87:
 1852              	.LBB2075:
 1853              	.LBB2076:
 1854              	.LBB2077:
 1855              		.loc 1 343 0
 1856 00c0 813B0000 		lwz 9,0(27)
 1857 00c4 7F63DB78 		mr 3,27
 1858 00c8 8009000C 		lwz 0,12(9)
 1859 00cc 7C0903A6 		mtctr 0
 1860              	.LEHB6:
 1861 00d0 4E800421 		bctrl
 1862              	.LEHE6:
 1863              	.LBE2077:
 1864              	.LBE2076:
 1865              	.LBE2075:
 1866              	.LBE2084:
 1867              		.loc 1 941 0
 1868 00d4 80010024 		lwz 0,36(1)
 1869 00d8 83410008 		lwz 26,8(1)
 1870              	.LVL137:
 1871 00dc 7C0803A6 		mtlr 0
 1872 00e0 8361000C 		lwz 27,12(1)
 1873              	.LVL138:
 1874 00e4 83810010 		lwz 28,16(1)
 1875 00e8 83A10014 		lwz 29,20(1)
 1876              	.LVL139:
 1877 00ec 83C10018 		lwz 30,24(1)
 1878              	.LVL140:
 1879 00f0 83E1001C 		lwz 31,28(1)
 1880              	.LVL141:
 1881 00f4 38210020 		addi 1,1,32
 1882              		.cfi_remember_state
 1883              	.LCFI24:
 1884              		.cfi_def_cfa_offset 0
 1885              		.cfi_restore 31
 1886              		.cfi_restore 30
 1887              		.cfi_restore 29
 1888              		.cfi_restore 28
 1889              		.cfi_restore 27
 1890              		.cfi_restore 26
 1891 00f8 4E800020 		blr
 1892              	.LVL142:
 1893              	.L95:
 1894              	.LCFI25:
 1895              		.cfi_restore_state
 1896              	.LBB2085:
 1897              	.LBB2078:
 1898              	.LBB2079:
 1899              	.LBB2080:
 1900              		.loc 1 343 0
 1901 00fc 813B0000 		lwz 9,0(27)
 1902 0100 7C7F1B78 		mr 31,3
 1903              	.LVL143:
 1904 0104 7F63DB78 		mr 3,27
 1905 0108 8009000C 		lwz 0,12(9)
 1906 010c 7C0903A6 		mtctr 0
 1907 0110 4E800421 		bctrl
 1908 0114 7FE3FB78 		mr 3,31
 1909              	.LEHB7:
 1910 0118 48000001 		bl _Unwind_Resume
 1911              	.LEHE7:
 1912              	.LBE2080:
 1913              	.LBE2079:
 1914              	.LBE2078:
 1915              	.LBE2085:
 1916              		.cfi_endproc
 1917              	.LFE1830:
 1918              		.section	.gcc_except_table
 1919              	.LLSDA1830:
 1920 0017 FF       		.byte	0xff
 1921 0018 FF       		.byte	0xff
 1922 0019 01       		.byte	0x1
 1923 001a 13       		.uleb128 .LLSDACSE1830-.LLSDACSB1830
 1924              	.LLSDACSB1830:
 1925 001b 40       		.uleb128 .LEHB4-.LFB1830
 1926 001c 04       		.uleb128 .LEHE4-.LEHB4
 1927 001d 00       		.uleb128 0
 1928 001e 00       		.uleb128 0
 1929 001f 70       		.uleb128 .LEHB5-.LFB1830
 1930 0020 30       		.uleb128 .LEHE5-.LEHB5
 1931 0021 FC01     		.uleb128 .L95-.LFB1830
 1932 0023 00       		.uleb128 0
 1933 0024 D001     		.uleb128 .LEHB6-.LFB1830
 1934 0026 04       		.uleb128 .LEHE6-.LEHB6
 1935 0027 00       		.uleb128 0
 1936 0028 00       		.uleb128 0
 1937 0029 9802     		.uleb128 .LEHB7-.LFB1830
 1938 002b 04       		.uleb128 .LEHE7-.LEHB7
 1939 002c 00       		.uleb128 0
 1940 002d 00       		.uleb128 0
 1941              	.LLSDACSE1830:
 1942              		.section	.text._ZN7sigslot13_signal_base3IP9GuiButtoniRK6_POINTNS_15single_threadedEE14slot_duplic
 1943              		.size	_ZN7sigslot13_signal_base3IP9GuiButtoniRK6_POINTNS_15single_threadedEE14slot_duplicateEPKNS_
 1944              		.section	.text._ZN7sigslot13_signal_base3IP10GuiElementiiNS_15single_threadedEE14slot_duplicateEPK
 1945              		.align 2
 1946              		.weak	_ZN7sigslot13_signal_base3IP10GuiElementiiNS_15single_threadedEE14slot_duplicateEPKNS_9has_s
 1947              		.type	_ZN7sigslot13_signal_base3IP10GuiElementiiNS_15single_threadedEE14slot_duplicateEPKNS_9has_s
 1948              	_ZN7sigslot13_signal_base3IP10GuiElementiiNS_15single_threadedEE14slot_duplicateEPKNS_9has_slotsIS3
 1949              	.LFB1832:
 1950              		.loc 1 926 0
 1951              		.cfi_startproc
 1952              		.cfi_personality 0,__gxx_personality_v0
 1953              		.cfi_lsda 0,.LLSDA1832
 1954              	.LVL144:
 1955 0000 7C0802A6 		mflr 0
 1956 0004 9421FFE0 		stwu 1,-32(1)
 1957              	.LCFI26:
 1958              		.cfi_def_cfa_offset 32
 1959              		.cfi_register 65, 0
 1960 0008 93410008 		stw 26,8(1)
 1961 000c 7CBA2B78 		mr 26,5
 1962              		.cfi_offset 26, -24
 1963 0010 90010024 		stw 0,36(1)
 1964 0014 9361000C 		stw 27,12(1)
 1965 0018 7C7B1B78 		mr 27,3
 1966              		.cfi_offset 27, -20
 1967              		.cfi_offset 65, 4
 1968              	.LVL145:
 1969              	.LBB2086:
 1970              	.LBB2087:
 1971              	.LBB2088:
 1972              		.loc 1 338 0
 1973 001c 81230000 		lwz 9,0(3)
 1974              	.LBE2088:
 1975              	.LBE2087:
 1976              	.LBE2086:
 1977              		.loc 1 926 0
 1978 0020 93A10014 		stw 29,20(1)
 1979 0024 7C9D2378 		mr 29,4
 1980              		.cfi_offset 29, -12
 1981              	.LBB2117:
 1982              	.LBB2093:
 1983              	.LBB2089:
 1984              		.loc 1 338 0
 1985 0028 80090008 		lwz 0,8(9)
 1986              	.LBE2089:
 1987              	.LBE2093:
 1988              	.LBE2117:
 1989              		.loc 1 926 0
 1990 002c 93C10018 		stw 30,24(1)
 1991              	.LBB2118:
 1992              	.LBB2094:
 1993              	.LBB2090:
 1994              		.loc 3 406 0
 1995 0030 7F7EDB78 		mr 30,27
 1996              		.cfi_offset 30, -8
 1997              	.LBE2090:
 1998              	.LBE2094:
 1999              	.LBE2118:
 2000              		.loc 1 926 0
 2001 0034 93E1001C 		stw 31,28(1)
 2002              	.LBB2119:
 2003              	.LBB2095:
 2004              	.LBB2091:
 2005              		.loc 1 338 0
 2006 0038 7C0903A6 		mtctr 0
 2007              	.LBE2091:
 2008              	.LBE2095:
 2009              	.LBE2119:
 2010              		.loc 1 926 0
 2011 003c 93810010 		stw 28,16(1)
 2012              	.LEHB8:
 2013              	.LBB2120:
 2014              	.LBB2096:
 2015              	.LBB2092:
 2016              		.loc 1 338 0
 2017              		.cfi_offset 28, -16
 2018              		.cfi_offset 31, -4
 2019 0040 4E800421 		bctrl
 2020              	.LEHE8:
 2021              	.LVL146:
 2022              		.loc 3 406 0
 2023 0044 87FE0004 		lwzu 31,4(30)
 2024              	.LVL147:
 2025              	.LBE2092:
 2026              	.LBE2096:
 2027              		.loc 1 932 0
 2028 0048 7F9FF000 		cmpw 7,31,30
 2029 004c 40BE0014 		bne+ 7,.L108
 2030 0050 48000070 		b .L99
 2031              	.LVL148:
 2032              	.L100:
 2033              	.LBB2097:
 2034              	.LBB2098:
 2035              		.loc 4 154 0
 2036 0054 83FF0000 		lwz 31,0(31)
 2037              	.LVL149:
 2038              	.LBE2098:
 2039              	.LBE2097:
 2040              		.loc 1 932 0
 2041 0058 7F9EF800 		cmpw 7,30,31
 2042 005c 419E0064 		beq- 7,.L99
 2043              	.LVL150:
 2044              	.L108:
 2045              		.loc 1 934 0
 2046 0060 807F0008 		lwz 3,8(31)
 2047 0064 81230000 		lwz 9,0(3)
 2048 0068 80090008 		lwz 0,8(9)
 2049 006c 7C0903A6 		mtctr 0
 2050              	.LEHB9:
 2051 0070 4E800421 		bctrl
 2052 0074 7F9D1800 		cmpw 7,29,3
 2053 0078 409EFFDC 		bne+ 7,.L100
 2054              	.LVL151:
 2055              		.loc 1 936 0
 2056 007c 807F0008 		lwz 3,8(31)
 2057 0080 7F44D378 		mr 4,26
 2058 0084 81230000 		lwz 9,0(3)
 2059 0088 80090014 		lwz 0,20(9)
 2060 008c 7C0903A6 		mtctr 0
 2061 0090 4E800421 		bctrl
 2062 0094 7C7C1B78 		mr 28,3
 2063              	.LVL152:
 2064              	.LBB2100:
 2065              	.LBB2101:
 2066              	.LBB2102:
 2067              	.LBB2103:
 2068              	.LBB2104:
 2069              	.LBB2105:
 2070              	.LBB2106:
 2071              	.LBB2107:
 2072              		.loc 6 92 0
 2073 0098 3860000C 		li 3,12
 2074 009c 48000001 		bl _Znwj
 2075              	.LEHE9:
 2076              	.LVL153:
 2077              	.LBE2107:
 2078              	.LBE2106:
 2079              	.LBE2105:
 2080              	.LBB2108:
 2081              	.LBB2109:
 2082              		.loc 6 108 0 discriminator 1
 2083 00a0 2F83FFF8 		cmpwi 7,3,-8
 2084 00a4 419E0008 		beq- 7,.L102
 2085              		.loc 6 108 0 is_stmt 0
 2086 00a8 93830008 		stw 28,8(3)
 2087              	.L102:
 2088              	.LVL154:
 2089              	.LBE2109:
 2090              	.LBE2108:
 2091              	.LBE2104:
 2092              	.LBE2103:
 2093              		.loc 4 1516 0 is_stmt 1
 2094 00ac 7FC4F378 		mr 4,30
 2095 00b0 48000001 		bl _ZNSt8__detail15_List_node_base7_M_hookEPS0_
 2096              	.LVL155:
 2097              	.LBE2102:
 2098              	.LBE2101:
 2099              	.LBE2100:
 2100              	.LBB2110:
 2101              	.LBB2099:
 2102              		.loc 4 154 0
 2103 00b4 83FF0000 		lwz 31,0(31)
 2104              	.LVL156:
 2105              	.LBE2099:
 2106              	.LBE2110:
 2107              		.loc 1 932 0
 2108 00b8 7F9EF800 		cmpw 7,30,31
 2109 00bc 409EFFA4 		bne+ 7,.L108
 2110              	.LVL157:
 2111              	.L99:
 2112              	.LBB2111:
 2113              	.LBB2112:
 2114              	.LBB2113:
 2115              		.loc 1 343 0
 2116 00c0 813B0000 		lwz 9,0(27)
 2117 00c4 7F63DB78 		mr 3,27
 2118 00c8 8009000C 		lwz 0,12(9)
 2119 00cc 7C0903A6 		mtctr 0
 2120              	.LEHB10:
 2121 00d0 4E800421 		bctrl
 2122              	.LEHE10:
 2123              	.LBE2113:
 2124              	.LBE2112:
 2125              	.LBE2111:
 2126              	.LBE2120:
 2127              		.loc 1 941 0
 2128 00d4 80010024 		lwz 0,36(1)
 2129 00d8 83410008 		lwz 26,8(1)
 2130              	.LVL158:
 2131 00dc 7C0803A6 		mtlr 0
 2132 00e0 8361000C 		lwz 27,12(1)
 2133              	.LVL159:
 2134 00e4 83810010 		lwz 28,16(1)
 2135 00e8 83A10014 		lwz 29,20(1)
 2136              	.LVL160:
 2137 00ec 83C10018 		lwz 30,24(1)
 2138              	.LVL161:
 2139 00f0 83E1001C 		lwz 31,28(1)
 2140              	.LVL162:
 2141 00f4 38210020 		addi 1,1,32
 2142              		.cfi_remember_state
 2143              	.LCFI27:
 2144              		.cfi_def_cfa_offset 0
 2145              		.cfi_restore 31
 2146              		.cfi_restore 30
 2147              		.cfi_restore 29
 2148              		.cfi_restore 28
 2149              		.cfi_restore 27
 2150              		.cfi_restore 26
 2151 00f8 4E800020 		blr
 2152              	.LVL163:
 2153              	.L107:
 2154              	.LCFI28:
 2155              		.cfi_restore_state
 2156              	.LBB2121:
 2157              	.LBB2114:
 2158              	.LBB2115:
 2159              	.LBB2116:
 2160              		.loc 1 343 0
 2161 00fc 813B0000 		lwz 9,0(27)
 2162 0100 7C7F1B78 		mr 31,3
 2163              	.LVL164:
 2164 0104 7F63DB78 		mr 3,27
 2165 0108 8009000C 		lwz 0,12(9)
 2166 010c 7C0903A6 		mtctr 0
 2167 0110 4E800421 		bctrl
 2168 0114 7FE3FB78 		mr 3,31
 2169              	.LEHB11:
 2170 0118 48000001 		bl _Unwind_Resume
 2171              	.LEHE11:
 2172              	.LBE2116:
 2173              	.LBE2115:
 2174              	.LBE2114:
 2175              	.LBE2121:
 2176              		.cfi_endproc
 2177              	.LFE1832:
 2178              		.section	.gcc_except_table
 2179              	.LLSDA1832:
 2180 002e FF       		.byte	0xff
 2181 002f FF       		.byte	0xff
 2182 0030 01       		.byte	0x1
 2183 0031 13       		.uleb128 .LLSDACSE1832-.LLSDACSB1832
 2184              	.LLSDACSB1832:
 2185 0032 40       		.uleb128 .LEHB8-.LFB1832
 2186 0033 04       		.uleb128 .LEHE8-.LEHB8
 2187 0034 00       		.uleb128 0
 2188 0035 00       		.uleb128 0
 2189 0036 70       		.uleb128 .LEHB9-.LFB1832
 2190 0037 30       		.uleb128 .LEHE9-.LEHB9
 2191 0038 FC01     		.uleb128 .L107-.LFB1832
 2192 003a 00       		.uleb128 0
 2193 003b D001     		.uleb128 .LEHB10-.LFB1832
 2194 003d 04       		.uleb128 .LEHE10-.LEHB10
 2195 003e 00       		.uleb128 0
 2196 003f 00       		.uleb128 0
 2197 0040 9802     		.uleb128 .LEHB11-.LFB1832
 2198 0042 04       		.uleb128 .LEHE11-.LEHB11
 2199 0043 00       		.uleb128 0
 2200 0044 00       		.uleb128 0
 2201              	.LLSDACSE1832:
 2202              		.section	.text._ZN7sigslot13_signal_base3IP10GuiElementiiNS_15single_threadedEE14slot_duplicateEPK
 2203              		.size	_ZN7sigslot13_signal_base3IP10GuiElementiiNS_15single_threadedEE14slot_duplicateEPKNS_9has_s
 2204              		.section	.text._ZN7sigslot13_signal_base2IP10GuiElementbNS_15single_threadedEE14slot_duplicateEPKN
 2205              		.align 2
 2206              		.weak	_ZN7sigslot13_signal_base2IP10GuiElementbNS_15single_threadedEE14slot_duplicateEPKNS_9has_sl
 2207              		.type	_ZN7sigslot13_signal_base2IP10GuiElementbNS_15single_threadedEE14slot_duplicateEPKNS_9has_sl
 2208              	_ZN7sigslot13_signal_base2IP10GuiElementbNS_15single_threadedEE14slot_duplicateEPKNS_9has_slotsIS3_
 2209              	.LFB1834:
 2210              		.loc 1 806 0
 2211              		.cfi_startproc
 2212              		.cfi_personality 0,__gxx_personality_v0
 2213              		.cfi_lsda 0,.LLSDA1834
 2214              	.LVL165:
 2215 0000 7C0802A6 		mflr 0
 2216 0004 9421FFE0 		stwu 1,-32(1)
 2217              	.LCFI29:
 2218              		.cfi_def_cfa_offset 32
 2219              		.cfi_register 65, 0
 2220 0008 93410008 		stw 26,8(1)
 2221 000c 7CBA2B78 		mr 26,5
 2222              		.cfi_offset 26, -24
 2223 0010 90010024 		stw 0,36(1)
 2224 0014 9361000C 		stw 27,12(1)
 2225 0018 7C7B1B78 		mr 27,3
 2226              		.cfi_offset 27, -20
 2227              		.cfi_offset 65, 4
 2228              	.LVL166:
 2229              	.LBB2122:
 2230              	.LBB2123:
 2231              	.LBB2124:
 2232              		.loc 1 338 0
 2233 001c 81230000 		lwz 9,0(3)
 2234              	.LBE2124:
 2235              	.LBE2123:
 2236              	.LBE2122:
 2237              		.loc 1 806 0
 2238 0020 93A10014 		stw 29,20(1)
 2239 0024 7C9D2378 		mr 29,4
 2240              		.cfi_offset 29, -12
 2241              	.LBB2153:
 2242              	.LBB2129:
 2243              	.LBB2125:
 2244              		.loc 1 338 0
 2245 0028 80090008 		lwz 0,8(9)
 2246              	.LBE2125:
 2247              	.LBE2129:
 2248              	.LBE2153:
 2249              		.loc 1 806 0
 2250 002c 93C10018 		stw 30,24(1)
 2251              	.LBB2154:
 2252              	.LBB2130:
 2253              	.LBB2126:
 2254              		.loc 3 406 0
 2255 0030 7F7EDB78 		mr 30,27
 2256              		.cfi_offset 30, -8
 2257              	.LBE2126:
 2258              	.LBE2130:
 2259              	.LBE2154:
 2260              		.loc 1 806 0
 2261 0034 93E1001C 		stw 31,28(1)
 2262              	.LBB2155:
 2263              	.LBB2131:
 2264              	.LBB2127:
 2265              		.loc 1 338 0
 2266 0038 7C0903A6 		mtctr 0
 2267              	.LBE2127:
 2268              	.LBE2131:
 2269              	.LBE2155:
 2270              		.loc 1 806 0
 2271 003c 93810010 		stw 28,16(1)
 2272              	.LEHB12:
 2273              	.LBB2156:
 2274              	.LBB2132:
 2275              	.LBB2128:
 2276              		.loc 1 338 0
 2277              		.cfi_offset 28, -16
 2278              		.cfi_offset 31, -4
 2279 0040 4E800421 		bctrl
 2280              	.LEHE12:
 2281              	.LVL167:
 2282              		.loc 3 406 0
 2283 0044 87FE0004 		lwzu 31,4(30)
 2284              	.LVL168:
 2285              	.LBE2128:
 2286              	.LBE2132:
 2287              		.loc 1 812 0
 2288 0048 7F9FF000 		cmpw 7,31,30
 2289 004c 40BE0014 		bne+ 7,.L120
 2290 0050 48000070 		b .L111
 2291              	.LVL169:
 2292              	.L112:
 2293              	.LBB2133:
 2294              	.LBB2134:
 2295              		.loc 4 154 0
 2296 0054 83FF0000 		lwz 31,0(31)
 2297              	.LVL170:
 2298              	.LBE2134:
 2299              	.LBE2133:
 2300              		.loc 1 812 0
 2301 0058 7F9EF800 		cmpw 7,30,31
 2302 005c 419E0064 		beq- 7,.L111
 2303              	.LVL171:
 2304              	.L120:
 2305              		.loc 1 814 0
 2306 0060 807F0008 		lwz 3,8(31)
 2307 0064 81230000 		lwz 9,0(3)
 2308 0068 80090008 		lwz 0,8(9)
 2309 006c 7C0903A6 		mtctr 0
 2310              	.LEHB13:
 2311 0070 4E800421 		bctrl
 2312 0074 7F9D1800 		cmpw 7,29,3
 2313 0078 409EFFDC 		bne+ 7,.L112
 2314              	.LVL172:
 2315              		.loc 1 816 0
 2316 007c 807F0008 		lwz 3,8(31)
 2317 0080 7F44D378 		mr 4,26
 2318 0084 81230000 		lwz 9,0(3)
 2319 0088 80090014 		lwz 0,20(9)
 2320 008c 7C0903A6 		mtctr 0
 2321 0090 4E800421 		bctrl
 2322 0094 7C7C1B78 		mr 28,3
 2323              	.LVL173:
 2324              	.LBB2136:
 2325              	.LBB2137:
 2326              	.LBB2138:
 2327              	.LBB2139:
 2328              	.LBB2140:
 2329              	.LBB2141:
 2330              	.LBB2142:
 2331              	.LBB2143:
 2332              		.loc 6 92 0
 2333 0098 3860000C 		li 3,12
 2334 009c 48000001 		bl _Znwj
 2335              	.LEHE13:
 2336              	.LVL174:
 2337              	.LBE2143:
 2338              	.LBE2142:
 2339              	.LBE2141:
 2340              	.LBB2144:
 2341              	.LBB2145:
 2342              		.loc 6 108 0 discriminator 1
 2343 00a0 2F83FFF8 		cmpwi 7,3,-8
 2344 00a4 419E0008 		beq- 7,.L114
 2345              		.loc 6 108 0 is_stmt 0
 2346 00a8 93830008 		stw 28,8(3)
 2347              	.L114:
 2348              	.LVL175:
 2349              	.LBE2145:
 2350              	.LBE2144:
 2351              	.LBE2140:
 2352              	.LBE2139:
 2353              		.loc 4 1516 0 is_stmt 1
 2354 00ac 7FC4F378 		mr 4,30
 2355 00b0 48000001 		bl _ZNSt8__detail15_List_node_base7_M_hookEPS0_
 2356              	.LVL176:
 2357              	.LBE2138:
 2358              	.LBE2137:
 2359              	.LBE2136:
 2360              	.LBB2146:
 2361              	.LBB2135:
 2362              		.loc 4 154 0
 2363 00b4 83FF0000 		lwz 31,0(31)
 2364              	.LVL177:
 2365              	.LBE2135:
 2366              	.LBE2146:
 2367              		.loc 1 812 0
 2368 00b8 7F9EF800 		cmpw 7,30,31
 2369 00bc 409EFFA4 		bne+ 7,.L120
 2370              	.LVL178:
 2371              	.L111:
 2372              	.LBB2147:
 2373              	.LBB2148:
 2374              	.LBB2149:
 2375              		.loc 1 343 0
 2376 00c0 813B0000 		lwz 9,0(27)
 2377 00c4 7F63DB78 		mr 3,27
 2378 00c8 8009000C 		lwz 0,12(9)
 2379 00cc 7C0903A6 		mtctr 0
 2380              	.LEHB14:
 2381 00d0 4E800421 		bctrl
 2382              	.LEHE14:
 2383              	.LBE2149:
 2384              	.LBE2148:
 2385              	.LBE2147:
 2386              	.LBE2156:
 2387              		.loc 1 821 0
 2388 00d4 80010024 		lwz 0,36(1)
 2389 00d8 83410008 		lwz 26,8(1)
 2390              	.LVL179:
 2391 00dc 7C0803A6 		mtlr 0
 2392 00e0 8361000C 		lwz 27,12(1)
 2393              	.LVL180:
 2394 00e4 83810010 		lwz 28,16(1)
 2395 00e8 83A10014 		lwz 29,20(1)
 2396              	.LVL181:
 2397 00ec 83C10018 		lwz 30,24(1)
 2398              	.LVL182:
 2399 00f0 83E1001C 		lwz 31,28(1)
 2400              	.LVL183:
 2401 00f4 38210020 		addi 1,1,32
 2402              		.cfi_remember_state
 2403              	.LCFI30:
 2404              		.cfi_def_cfa_offset 0
 2405              		.cfi_restore 31
 2406              		.cfi_restore 30
 2407              		.cfi_restore 29
 2408              		.cfi_restore 28
 2409              		.cfi_restore 27
 2410              		.cfi_restore 26
 2411 00f8 4E800020 		blr
 2412              	.LVL184:
 2413              	.L119:
 2414              	.LCFI31:
 2415              		.cfi_restore_state
 2416              	.LBB2157:
 2417              	.LBB2150:
 2418              	.LBB2151:
 2419              	.LBB2152:
 2420              		.loc 1 343 0
 2421 00fc 813B0000 		lwz 9,0(27)
 2422 0100 7C7F1B78 		mr 31,3
 2423              	.LVL185:
 2424 0104 7F63DB78 		mr 3,27
 2425 0108 8009000C 		lwz 0,12(9)
 2426 010c 7C0903A6 		mtctr 0
 2427 0110 4E800421 		bctrl
 2428 0114 7FE3FB78 		mr 3,31
 2429              	.LEHB15:
 2430 0118 48000001 		bl _Unwind_Resume
 2431              	.LEHE15:
 2432              	.LBE2152:
 2433              	.LBE2151:
 2434              	.LBE2150:
 2435              	.LBE2157:
 2436              		.cfi_endproc
 2437              	.LFE1834:
 2438              		.section	.gcc_except_table
 2439              	.LLSDA1834:
 2440 0045 FF       		.byte	0xff
 2441 0046 FF       		.byte	0xff
 2442 0047 01       		.byte	0x1
 2443 0048 13       		.uleb128 .LLSDACSE1834-.LLSDACSB1834
 2444              	.LLSDACSB1834:
 2445 0049 40       		.uleb128 .LEHB12-.LFB1834
 2446 004a 04       		.uleb128 .LEHE12-.LEHB12
 2447 004b 00       		.uleb128 0
 2448 004c 00       		.uleb128 0
 2449 004d 70       		.uleb128 .LEHB13-.LFB1834
 2450 004e 30       		.uleb128 .LEHE13-.LEHB13
 2451 004f FC01     		.uleb128 .L119-.LFB1834
 2452 0051 00       		.uleb128 0
 2453 0052 D001     		.uleb128 .LEHB14-.LFB1834
 2454 0054 04       		.uleb128 .LEHE14-.LEHB14
 2455 0055 00       		.uleb128 0
 2456 0056 00       		.uleb128 0
 2457 0057 9802     		.uleb128 .LEHB15-.LFB1834
 2458 0059 04       		.uleb128 .LEHE15-.LEHB15
 2459 005a 00       		.uleb128 0
 2460 005b 00       		.uleb128 0
 2461              	.LLSDACSE1834:
 2462              		.section	.text._ZN7sigslot13_signal_base2IP10GuiElementbNS_15single_threadedEE14slot_duplicateEPKN
 2463              		.size	_ZN7sigslot13_signal_base2IP10GuiElementbNS_15single_threadedEE14slot_duplicateEPKNS_9has_sl
 2464              		.section	.text._ZN7sigslot12_signal_baseINS_15single_threadedEED0Ev,"axG",@progbits,_ZN7sigslot12_
 2465              		.align 2
 2466              		.weak	_ZN7sigslot12_signal_baseINS_15single_threadedEED0Ev
 2467              		.type	_ZN7sigslot12_signal_baseINS_15single_threadedEED0Ev, @function
 2468              	_ZN7sigslot12_signal_baseINS_15single_threadedEED0Ev:
 2469              	.LFB1533:
 2470              		.loc 1 466 0
 2471              		.cfi_startproc
 2472              	.LVL186:
 2473 0000 7C0802A6 		mflr 0
 2474 0004 9421FFF8 		stwu 1,-8(1)
 2475              	.LCFI32:
 2476              		.cfi_def_cfa_offset 8
 2477              		.cfi_register 65, 0
 2478              	.LBB2158:
 2479              	.LBB2159:
 2480              	.LBB2160:
 2481              	.LBB2161:
 2482              	.LBB2162:
 2483              	.LBB2163:
 2484              		.loc 1 105 0
 2485 0008 3D200000 		lis 9,_ZTVN7sigslot15single_threadedE+8@ha
 2486              	.LBE2163:
 2487              	.LBE2162:
 2488              	.LBE2161:
 2489              	.LBE2160:
 2490              	.LBE2159:
 2491              	.LBE2158:
 2492              		.loc 1 466 0
 2493 000c 9001000C 		stw 0,12(1)
 2494              	.LBB2169:
 2495              	.LBB2168:
 2496              	.LBB2167:
 2497              	.LBB2166:
 2498              	.LBB2165:
 2499              	.LBB2164:
 2500              		.loc 1 105 0
 2501 0010 38090008 		la 0,_ZTVN7sigslot15single_threadedE+8@l(9)
 2502              		.cfi_offset 65, 4
 2503 0014 90030000 		stw 0,0(3)
 2504              	.LBE2164:
 2505              	.LBE2165:
 2506              	.LBE2166:
 2507              	.LBE2167:
 2508              	.LBE2168:
 2509              	.LBE2169:
 2510              		.loc 1 466 0
 2511 0018 48000001 		bl _ZdlPv
 2512              	.LVL187:
 2513 001c 8001000C 		lwz 0,12(1)
 2514 0020 38210008 		addi 1,1,8
 2515              	.LCFI33:
 2516              		.cfi_def_cfa_offset 0
 2517 0024 7C0803A6 		mtlr 0
 2518 0028 4E800020 		blr
 2519              		.cfi_endproc
 2520              	.LFE1533:
 2521              		.size	_ZN7sigslot12_signal_baseINS_15single_threadedEED0Ev, .-_ZN7sigslot12_signal_baseINS_15singl
 2522              		.section	.text._ZN7sigslot15single_threadedD0Ev,"axG",@progbits,_ZN7sigslot15single_threadedD5Ev,c
 2523              		.align 2
 2524              		.weak	_ZN7sigslot15single_threadedD0Ev
 2525              		.type	_ZN7sigslot15single_threadedD0Ev, @function
 2526              	_ZN7sigslot15single_threadedD0Ev:
 2527              	.LFB1150:
 2528              		.loc 1 104 0
 2529              		.cfi_startproc
 2530              	.LVL188:
 2531 0000 7C0802A6 		mflr 0
 2532 0004 9421FFF8 		stwu 1,-8(1)
 2533              	.LCFI34:
 2534              		.cfi_def_cfa_offset 8
 2535              		.cfi_register 65, 0
 2536              	.LBB2170:
 2537              	.LBB2171:
 2538              	.LBB2172:
 2539              		.loc 1 105 0
 2540 0008 3D200000 		lis 9,_ZTVN7sigslot15single_threadedE+8@ha
 2541              	.LBE2172:
 2542              	.LBE2171:
 2543              	.LBE2170:
 2544              		.loc 1 104 0
 2545 000c 9001000C 		stw 0,12(1)
 2546              	.LBB2175:
 2547              	.LBB2174:
 2548              	.LBB2173:
 2549              		.loc 1 105 0
 2550 0010 38090008 		la 0,_ZTVN7sigslot15single_threadedE+8@l(9)
 2551              		.cfi_offset 65, 4
 2552 0014 90030000 		stw 0,0(3)
 2553              	.LBE2173:
 2554              	.LBE2174:
 2555              	.LBE2175:
 2556              		.loc 1 107 0
 2557 0018 48000001 		bl _ZdlPv
 2558              	.LVL189:
 2559 001c 8001000C 		lwz 0,12(1)
 2560 0020 38210008 		addi 1,1,8
 2561              	.LCFI35:
 2562              		.cfi_def_cfa_offset 0
 2563 0024 7C0803A6 		mtlr 0
 2564 0028 4E800020 		blr
 2565              		.cfi_endproc
 2566              	.LFE1150:
 2567              		.size	_ZN7sigslot15single_threadedD0Ev, .-_ZN7sigslot15single_threadedD0Ev
 2568              		.section	.text._ZN7sigslot13_signal_base3IP9GuiButtoniRK6_POINTNS_15single_threadedEE15slot_discon
 2569              		.align 2
 2570              		.weak	_ZN7sigslot13_signal_base3IP9GuiButtoniRK6_POINTNS_15single_threadedEE15slot_disconnectEPNS_
 2571              		.type	_ZN7sigslot13_signal_base3IP9GuiButtoniRK6_POINTNS_15single_threadedEE15slot_disconnectEPNS_
 2572              	_ZN7sigslot13_signal_base3IP9GuiButtoniRK6_POINTNS_15single_threadedEE15slot_disconnectEPNS_9has_sl
 2573              	.LFB1829:
 2574              		.loc 1 990 0
 2575              		.cfi_startproc
 2576              		.cfi_personality 0,__gxx_personality_v0
 2577              		.cfi_lsda 0,.LLSDA1829
 2578              	.LVL190:
 2579 0000 7C0802A6 		mflr 0
 2580 0004 9421FFE0 		stwu 1,-32(1)
 2581              	.LCFI36:
 2582              		.cfi_def_cfa_offset 32
 2583              		.cfi_register 65, 0
 2584 0008 9361000C 		stw 27,12(1)
 2585 000c 7C7B1B78 		mr 27,3
 2586              		.cfi_offset 27, -20
 2587              	.LVL191:
 2588 0010 90010024 		stw 0,36(1)
 2589 0014 93810010 		stw 28,16(1)
 2590 0018 7C9C2378 		mr 28,4
 2591              		.cfi_offset 28, -16
 2592              		.cfi_offset 65, 4
 2593              	.LBB2176:
 2594              	.LBB2177:
 2595              	.LBB2178:
 2596              		.loc 1 338 0
 2597 001c 81230000 		lwz 9,0(3)
 2598              	.LBE2178:
 2599              	.LBE2177:
 2600              	.LBE2176:
 2601              		.loc 1 990 0
 2602 0020 93A10014 		stw 29,20(1)
 2603              	.LBB2199:
 2604              	.LBB2181:
 2605              	.LBB2179:
 2606              		.loc 3 406 0
 2607 0024 7F7DDB78 		mr 29,27
 2608              		.cfi_offset 29, -12
 2609              		.loc 1 338 0
 2610 0028 80090008 		lwz 0,8(9)
 2611              	.LBE2179:
 2612              	.LBE2181:
 2613              	.LBE2199:
 2614              		.loc 1 990 0
 2615 002c 93E1001C 		stw 31,28(1)
 2616 0030 93C10018 		stw 30,24(1)
 2617              	.LBB2200:
 2618              	.LBB2182:
 2619              	.LBB2180:
 2620              		.loc 1 338 0
 2621 0034 7C0903A6 		mtctr 0
 2622              	.LEHB16:
 2623              		.cfi_offset 30, -8
 2624              		.cfi_offset 31, -4
 2625 0038 4E800421 		bctrl
 2626              	.LEHE16:
 2627              	.LVL192:
 2628              		.loc 3 406 0
 2629 003c 87FD0004 		lwzu 31,4(29)
 2630              	.LVL193:
 2631              	.LBE2180:
 2632              	.LBE2182:
 2633              		.loc 1 996 0
 2634 0040 7F9FE800 		cmpw 7,31,29
 2635 0044 40BE0014 		bne+ 7,.L141
 2636 0048 48000064 		b .L130
 2637              	.LVL194:
 2638              	.L131:
 2639              		.loc 1 996 0 is_stmt 0 discriminator 1
 2640 004c 7F9DF000 		cmpw 7,29,30
 2641 0050 419E005C 		beq- 7,.L130
 2642              	.L139:
 2643              		.loc 1 996 0
 2644 0054 7FDFF378 		mr 31,30
 2645              	.LVL195:
 2646              	.L141:
 2647              	.LBB2183:
 2648              		.loc 1 1001 0 is_stmt 1
 2649 0058 807F0008 		lwz 3,8(31)
 2650              	.LBB2184:
 2651              	.LBB2185:
 2652              		.loc 4 154 0
 2653 005c 83DF0000 		lwz 30,0(31)
 2654              	.LVL196:
 2655              	.LBE2185:
 2656              	.LBE2184:
 2657              		.loc 1 1001 0
 2658 0060 81230000 		lwz 9,0(3)
 2659 0064 80090008 		lwz 0,8(9)
 2660 0068 7C0903A6 		mtctr 0
 2661              	.LEHB17:
 2662 006c 4E800421 		bctrl
 2663              	.LVL197:
 2664 0070 7F9C1800 		cmpw 7,28,3
 2665 0074 409EFFD8 		bne+ 7,.L131
 2666              	.LVL198:
 2667              		.loc 1 1003 0
 2668 0078 807F0008 		lwz 3,8(31)
 2669 007c 2F830000 		cmpwi 7,3,0
 2670 0080 419E0014 		beq- 7,.L132
 2671              		.loc 1 1003 0 is_stmt 0 discriminator 1
 2672 0084 81230000 		lwz 9,0(3)
 2673 0088 80090004 		lwz 0,4(9)
 2674 008c 7C0903A6 		mtctr 0
 2675 0090 4E800421 		bctrl
 2676              	.LEHE17:
 2677              	.L132:
 2678              	.LVL199:
 2679              	.LBB2186:
 2680              	.LBB2187:
 2681              	.LBB2188:
 2682              	.LBB2189:
 2683              		.loc 4 1532 0 is_stmt 1
 2684 0094 7FE3FB78 		mr 3,31
 2685 0098 48000001 		bl _ZNSt8__detail15_List_node_base9_M_unhookEv
 2686              	.LVL200:
 2687              	.LBB2190:
 2688              	.LBB2191:
 2689              	.LBB2192:
 2690              		.loc 6 98 0
 2691 009c 7FE3FB78 		mr 3,31
 2692 00a0 48000001 		bl _ZdlPv
 2693              	.LVL201:
 2694              	.LBE2192:
 2695              	.LBE2191:
 2696              	.LBE2190:
 2697              	.LBE2189:
 2698              	.LBE2188:
 2699              	.LBE2187:
 2700              	.LBE2186:
 2701              	.LBE2183:
 2702              		.loc 1 996 0
 2703 00a4 7F9DF000 		cmpw 7,29,30
 2704 00a8 409EFFAC 		bne+ 7,.L139
 2705              	.LVL202:
 2706              	.L130:
 2707              	.LBB2193:
 2708              	.LBB2194:
 2709              	.LBB2195:
 2710              		.loc 1 343 0
 2711 00ac 813B0000 		lwz 9,0(27)
 2712 00b0 7F63DB78 		mr 3,27
 2713 00b4 8009000C 		lwz 0,12(9)
 2714 00b8 7C0903A6 		mtctr 0
 2715              	.LEHB18:
 2716 00bc 4E800421 		bctrl
 2717              	.LEHE18:
 2718              	.LBE2195:
 2719              	.LBE2194:
 2720              	.LBE2193:
 2721              	.LBE2200:
 2722              		.loc 1 1010 0
 2723 00c0 80010024 		lwz 0,36(1)
 2724 00c4 8361000C 		lwz 27,12(1)
 2725              	.LVL203:
 2726 00c8 7C0803A6 		mtlr 0
 2727 00cc 83810010 		lwz 28,16(1)
 2728              	.LVL204:
 2729 00d0 83A10014 		lwz 29,20(1)
 2730              	.LVL205:
 2731 00d4 83C10018 		lwz 30,24(1)
 2732 00d8 83E1001C 		lwz 31,28(1)
 2733 00dc 38210020 		addi 1,1,32
 2734              		.cfi_remember_state
 2735              	.LCFI37:
 2736              		.cfi_def_cfa_offset 0
 2737              		.cfi_restore 31
 2738              		.cfi_restore 30
 2739              		.cfi_restore 29
 2740              		.cfi_restore 28
 2741              		.cfi_restore 27
 2742 00e0 4E800020 		blr
 2743              	.LVL206:
 2744              	.L140:
 2745              	.LCFI38:
 2746              		.cfi_restore_state
 2747              	.LBB2201:
 2748              	.LBB2196:
 2749              	.LBB2197:
 2750              	.LBB2198:
 2751              		.loc 1 343 0
 2752 00e4 813B0000 		lwz 9,0(27)
 2753 00e8 7C7F1B78 		mr 31,3
 2754              	.LVL207:
 2755 00ec 7F63DB78 		mr 3,27
 2756 00f0 8009000C 		lwz 0,12(9)
 2757 00f4 7C0903A6 		mtctr 0
 2758 00f8 4E800421 		bctrl
 2759 00fc 7FE3FB78 		mr 3,31
 2760              	.LEHB19:
 2761 0100 48000001 		bl _Unwind_Resume
 2762              	.LEHE19:
 2763              	.LBE2198:
 2764              	.LBE2197:
 2765              	.LBE2196:
 2766              	.LBE2201:
 2767              		.cfi_endproc
 2768              	.LFE1829:
 2769              		.section	.gcc_except_table
 2770              	.LLSDA1829:
 2771 005c FF       		.byte	0xff
 2772 005d FF       		.byte	0xff
 2773 005e 01       		.byte	0x1
 2774 005f 13       		.uleb128 .LLSDACSE1829-.LLSDACSB1829
 2775              	.LLSDACSB1829:
 2776 0060 38       		.uleb128 .LEHB16-.LFB1829
 2777 0061 04       		.uleb128 .LEHE16-.LEHB16
 2778 0062 00       		.uleb128 0
 2779 0063 00       		.uleb128 0
 2780 0064 6C       		.uleb128 .LEHB17-.LFB1829
 2781 0065 28       		.uleb128 .LEHE17-.LEHB17
 2782 0066 E401     		.uleb128 .L140-.LFB1829
 2783 0068 00       		.uleb128 0
 2784 0069 BC01     		.uleb128 .LEHB18-.LFB1829
 2785 006b 04       		.uleb128 .LEHE18-.LEHB18
 2786 006c 00       		.uleb128 0
 2787 006d 00       		.uleb128 0
 2788 006e 8002     		.uleb128 .LEHB19-.LFB1829
 2789 0070 04       		.uleb128 .LEHE19-.LEHB19
 2790 0071 00       		.uleb128 0
 2791 0072 00       		.uleb128 0
 2792              	.LLSDACSE1829:
 2793              		.section	.text._ZN7sigslot13_signal_base3IP9GuiButtoniRK6_POINTNS_15single_threadedEE15slot_discon
 2794              		.size	_ZN7sigslot13_signal_base3IP9GuiButtoniRK6_POINTNS_15single_threadedEE15slot_disconnectEPNS_
 2795              		.section	.text._ZN7sigslot13_signal_base3IP10GuiElementiiNS_15single_threadedEE15slot_disconnectEP
 2796              		.align 2
 2797              		.weak	_ZN7sigslot13_signal_base3IP10GuiElementiiNS_15single_threadedEE15slot_disconnectEPNS_9has_s
 2798              		.type	_ZN7sigslot13_signal_base3IP10GuiElementiiNS_15single_threadedEE15slot_disconnectEPNS_9has_s
 2799              	_ZN7sigslot13_signal_base3IP10GuiElementiiNS_15single_threadedEE15slot_disconnectEPNS_9has_slotsIS3
 2800              	.LFB1831:
 2801              		.loc 1 990 0
 2802              		.cfi_startproc
 2803              		.cfi_personality 0,__gxx_personality_v0
 2804              		.cfi_lsda 0,.LLSDA1831
 2805              	.LVL208:
 2806 0000 7C0802A6 		mflr 0
 2807 0004 9421FFE0 		stwu 1,-32(1)
 2808              	.LCFI39:
 2809              		.cfi_def_cfa_offset 32
 2810              		.cfi_register 65, 0
 2811 0008 9361000C 		stw 27,12(1)
 2812 000c 7C7B1B78 		mr 27,3
 2813              		.cfi_offset 27, -20
 2814              	.LVL209:
 2815 0010 90010024 		stw 0,36(1)
 2816 0014 93810010 		stw 28,16(1)
 2817 0018 7C9C2378 		mr 28,4
 2818              		.cfi_offset 28, -16
 2819              		.cfi_offset 65, 4
 2820              	.LBB2202:
 2821              	.LBB2203:
 2822              	.LBB2204:
 2823              		.loc 1 338 0
 2824 001c 81230000 		lwz 9,0(3)
 2825              	.LBE2204:
 2826              	.LBE2203:
 2827              	.LBE2202:
 2828              		.loc 1 990 0
 2829 0020 93A10014 		stw 29,20(1)
 2830              	.LBB2225:
 2831              	.LBB2207:
 2832              	.LBB2205:
 2833              		.loc 3 406 0
 2834 0024 7F7DDB78 		mr 29,27
 2835              		.cfi_offset 29, -12
 2836              		.loc 1 338 0
 2837 0028 80090008 		lwz 0,8(9)
 2838              	.LBE2205:
 2839              	.LBE2207:
 2840              	.LBE2225:
 2841              		.loc 1 990 0
 2842 002c 93E1001C 		stw 31,28(1)
 2843 0030 93C10018 		stw 30,24(1)
 2844              	.LBB2226:
 2845              	.LBB2208:
 2846              	.LBB2206:
 2847              		.loc 1 338 0
 2848 0034 7C0903A6 		mtctr 0
 2849              	.LEHB20:
 2850              		.cfi_offset 30, -8
 2851              		.cfi_offset 31, -4
 2852 0038 4E800421 		bctrl
 2853              	.LEHE20:
 2854              	.LVL210:
 2855              		.loc 3 406 0
 2856 003c 87FD0004 		lwzu 31,4(29)
 2857              	.LVL211:
 2858              	.LBE2206:
 2859              	.LBE2208:
 2860              		.loc 1 996 0
 2861 0040 7F9FE800 		cmpw 7,31,29
 2862 0044 40BE0014 		bne+ 7,.L154
 2863 0048 48000064 		b .L143
 2864              	.LVL212:
 2865              	.L144:
 2866              		.loc 1 996 0 is_stmt 0 discriminator 1
 2867 004c 7F9DF000 		cmpw 7,29,30
 2868 0050 419E005C 		beq- 7,.L143
 2869              	.L152:
 2870              		.loc 1 996 0
 2871 0054 7FDFF378 		mr 31,30
 2872              	.LVL213:
 2873              	.L154:
 2874              	.LBB2209:
 2875              		.loc 1 1001 0 is_stmt 1
 2876 0058 807F0008 		lwz 3,8(31)
 2877              	.LBB2210:
 2878              	.LBB2211:
 2879              		.loc 4 154 0
 2880 005c 83DF0000 		lwz 30,0(31)
 2881              	.LVL214:
 2882              	.LBE2211:
 2883              	.LBE2210:
 2884              		.loc 1 1001 0
 2885 0060 81230000 		lwz 9,0(3)
 2886 0064 80090008 		lwz 0,8(9)
 2887 0068 7C0903A6 		mtctr 0
 2888              	.LEHB21:
 2889 006c 4E800421 		bctrl
 2890              	.LVL215:
 2891 0070 7F9C1800 		cmpw 7,28,3
 2892 0074 409EFFD8 		bne+ 7,.L144
 2893              	.LVL216:
 2894              		.loc 1 1003 0
 2895 0078 807F0008 		lwz 3,8(31)
 2896 007c 2F830000 		cmpwi 7,3,0
 2897 0080 419E0014 		beq- 7,.L145
 2898              		.loc 1 1003 0 is_stmt 0 discriminator 1
 2899 0084 81230000 		lwz 9,0(3)
 2900 0088 80090004 		lwz 0,4(9)
 2901 008c 7C0903A6 		mtctr 0
 2902 0090 4E800421 		bctrl
 2903              	.LEHE21:
 2904              	.L145:
 2905              	.LVL217:
 2906              	.LBB2212:
 2907              	.LBB2213:
 2908              	.LBB2214:
 2909              	.LBB2215:
 2910              		.loc 4 1532 0 is_stmt 1
 2911 0094 7FE3FB78 		mr 3,31
 2912 0098 48000001 		bl _ZNSt8__detail15_List_node_base9_M_unhookEv
 2913              	.LVL218:
 2914              	.LBB2216:
 2915              	.LBB2217:
 2916              	.LBB2218:
 2917              		.loc 6 98 0
 2918 009c 7FE3FB78 		mr 3,31
 2919 00a0 48000001 		bl _ZdlPv
 2920              	.LVL219:
 2921              	.LBE2218:
 2922              	.LBE2217:
 2923              	.LBE2216:
 2924              	.LBE2215:
 2925              	.LBE2214:
 2926              	.LBE2213:
 2927              	.LBE2212:
 2928              	.LBE2209:
 2929              		.loc 1 996 0
 2930 00a4 7F9DF000 		cmpw 7,29,30
 2931 00a8 409EFFAC 		bne+ 7,.L152
 2932              	.LVL220:
 2933              	.L143:
 2934              	.LBB2219:
 2935              	.LBB2220:
 2936              	.LBB2221:
 2937              		.loc 1 343 0
 2938 00ac 813B0000 		lwz 9,0(27)
 2939 00b0 7F63DB78 		mr 3,27
 2940 00b4 8009000C 		lwz 0,12(9)
 2941 00b8 7C0903A6 		mtctr 0
 2942              	.LEHB22:
 2943 00bc 4E800421 		bctrl
 2944              	.LEHE22:
 2945              	.LBE2221:
 2946              	.LBE2220:
 2947              	.LBE2219:
 2948              	.LBE2226:
 2949              		.loc 1 1010 0
 2950 00c0 80010024 		lwz 0,36(1)
 2951 00c4 8361000C 		lwz 27,12(1)
 2952              	.LVL221:
 2953 00c8 7C0803A6 		mtlr 0
 2954 00cc 83810010 		lwz 28,16(1)
 2955              	.LVL222:
 2956 00d0 83A10014 		lwz 29,20(1)
 2957              	.LVL223:
 2958 00d4 83C10018 		lwz 30,24(1)
 2959 00d8 83E1001C 		lwz 31,28(1)
 2960 00dc 38210020 		addi 1,1,32
 2961              		.cfi_remember_state
 2962              	.LCFI40:
 2963              		.cfi_def_cfa_offset 0
 2964              		.cfi_restore 31
 2965              		.cfi_restore 30
 2966              		.cfi_restore 29
 2967              		.cfi_restore 28
 2968              		.cfi_restore 27
 2969 00e0 4E800020 		blr
 2970              	.LVL224:
 2971              	.L153:
 2972              	.LCFI41:
 2973              		.cfi_restore_state
 2974              	.LBB2227:
 2975              	.LBB2222:
 2976              	.LBB2223:
 2977              	.LBB2224:
 2978              		.loc 1 343 0
 2979 00e4 813B0000 		lwz 9,0(27)
 2980 00e8 7C7F1B78 		mr 31,3
 2981              	.LVL225:
 2982 00ec 7F63DB78 		mr 3,27
 2983 00f0 8009000C 		lwz 0,12(9)
 2984 00f4 7C0903A6 		mtctr 0
 2985 00f8 4E800421 		bctrl
 2986 00fc 7FE3FB78 		mr 3,31
 2987              	.LEHB23:
 2988 0100 48000001 		bl _Unwind_Resume
 2989              	.LEHE23:
 2990              	.LBE2224:
 2991              	.LBE2223:
 2992              	.LBE2222:
 2993              	.LBE2227:
 2994              		.cfi_endproc
 2995              	.LFE1831:
 2996              		.section	.gcc_except_table
 2997              	.LLSDA1831:
 2998 0073 FF       		.byte	0xff
 2999 0074 FF       		.byte	0xff
 3000 0075 01       		.byte	0x1
 3001 0076 13       		.uleb128 .LLSDACSE1831-.LLSDACSB1831
 3002              	.LLSDACSB1831:
 3003 0077 38       		.uleb128 .LEHB20-.LFB1831
 3004 0078 04       		.uleb128 .LEHE20-.LEHB20
 3005 0079 00       		.uleb128 0
 3006 007a 00       		.uleb128 0
 3007 007b 6C       		.uleb128 .LEHB21-.LFB1831
 3008 007c 28       		.uleb128 .LEHE21-.LEHB21
 3009 007d E401     		.uleb128 .L153-.LFB1831
 3010 007f 00       		.uleb128 0
 3011 0080 BC01     		.uleb128 .LEHB22-.LFB1831
 3012 0082 04       		.uleb128 .LEHE22-.LEHB22
 3013 0083 00       		.uleb128 0
 3014 0084 00       		.uleb128 0
 3015 0085 8002     		.uleb128 .LEHB23-.LFB1831
 3016 0087 04       		.uleb128 .LEHE23-.LEHB23
 3017 0088 00       		.uleb128 0
 3018 0089 00       		.uleb128 0
 3019              	.LLSDACSE1831:
 3020              		.section	.text._ZN7sigslot13_signal_base3IP10GuiElementiiNS_15single_threadedEE15slot_disconnectEP
 3021              		.size	_ZN7sigslot13_signal_base3IP10GuiElementiiNS_15single_threadedEE15slot_disconnectEPNS_9has_s
 3022              		.section	.text._ZN7sigslot13_signal_base2IP10GuiElementbNS_15single_threadedEE15slot_disconnectEPN
 3023              		.align 2
 3024              		.weak	_ZN7sigslot13_signal_base2IP10GuiElementbNS_15single_threadedEE15slot_disconnectEPNS_9has_sl
 3025              		.type	_ZN7sigslot13_signal_base2IP10GuiElementbNS_15single_threadedEE15slot_disconnectEPNS_9has_sl
 3026              	_ZN7sigslot13_signal_base2IP10GuiElementbNS_15single_threadedEE15slot_disconnectEPNS_9has_slotsIS3_
 3027              	.LFB1833:
 3028              		.loc 1 870 0
 3029              		.cfi_startproc
 3030              		.cfi_personality 0,__gxx_personality_v0
 3031              		.cfi_lsda 0,.LLSDA1833
 3032              	.LVL226:
 3033 0000 7C0802A6 		mflr 0
 3034 0004 9421FFE0 		stwu 1,-32(1)
 3035              	.LCFI42:
 3036              		.cfi_def_cfa_offset 32
 3037              		.cfi_register 65, 0
 3038 0008 9361000C 		stw 27,12(1)
 3039 000c 7C7B1B78 		mr 27,3
 3040              		.cfi_offset 27, -20
 3041              	.LVL227:
 3042 0010 90010024 		stw 0,36(1)
 3043 0014 93810010 		stw 28,16(1)
 3044 0018 7C9C2378 		mr 28,4
 3045              		.cfi_offset 28, -16
 3046              		.cfi_offset 65, 4
 3047              	.LBB2228:
 3048              	.LBB2229:
 3049              	.LBB2230:
 3050              		.loc 1 338 0
 3051 001c 81230000 		lwz 9,0(3)
 3052              	.LBE2230:
 3053              	.LBE2229:
 3054              	.LBE2228:
 3055              		.loc 1 870 0
 3056 0020 93A10014 		stw 29,20(1)
 3057              	.LBB2251:
 3058              	.LBB2233:
 3059              	.LBB2231:
 3060              		.loc 3 406 0
 3061 0024 7F7DDB78 		mr 29,27
 3062              		.cfi_offset 29, -12
 3063              		.loc 1 338 0
 3064 0028 80090008 		lwz 0,8(9)
 3065              	.LBE2231:
 3066              	.LBE2233:
 3067              	.LBE2251:
 3068              		.loc 1 870 0
 3069 002c 93E1001C 		stw 31,28(1)
 3070 0030 93C10018 		stw 30,24(1)
 3071              	.LBB2252:
 3072              	.LBB2234:
 3073              	.LBB2232:
 3074              		.loc 1 338 0
 3075 0034 7C0903A6 		mtctr 0
 3076              	.LEHB24:
 3077              		.cfi_offset 30, -8
 3078              		.cfi_offset 31, -4
 3079 0038 4E800421 		bctrl
 3080              	.LEHE24:
 3081              	.LVL228:
 3082              		.loc 3 406 0
 3083 003c 87FD0004 		lwzu 31,4(29)
 3084              	.LVL229:
 3085              	.LBE2232:
 3086              	.LBE2234:
 3087              		.loc 1 876 0
 3088 0040 7F9FE800 		cmpw 7,31,29
 3089 0044 40BE0014 		bne+ 7,.L167
 3090 0048 48000064 		b .L156
 3091              	.LVL230:
 3092              	.L157:
 3093              		.loc 1 876 0 is_stmt 0 discriminator 1
 3094 004c 7F9DF000 		cmpw 7,29,30
 3095 0050 419E005C 		beq- 7,.L156
 3096              	.L165:
 3097              		.loc 1 876 0
 3098 0054 7FDFF378 		mr 31,30
 3099              	.LVL231:
 3100              	.L167:
 3101              	.LBB2235:
 3102              		.loc 1 881 0 is_stmt 1
 3103 0058 807F0008 		lwz 3,8(31)
 3104              	.LBB2236:
 3105              	.LBB2237:
 3106              		.loc 4 154 0
 3107 005c 83DF0000 		lwz 30,0(31)
 3108              	.LVL232:
 3109              	.LBE2237:
 3110              	.LBE2236:
 3111              		.loc 1 881 0
 3112 0060 81230000 		lwz 9,0(3)
 3113 0064 80090008 		lwz 0,8(9)
 3114 0068 7C0903A6 		mtctr 0
 3115              	.LEHB25:
 3116 006c 4E800421 		bctrl
 3117              	.LVL233:
 3118 0070 7F9C1800 		cmpw 7,28,3
 3119 0074 409EFFD8 		bne+ 7,.L157
 3120              	.LVL234:
 3121              		.loc 1 883 0
 3122 0078 807F0008 		lwz 3,8(31)
 3123 007c 2F830000 		cmpwi 7,3,0
 3124 0080 419E0014 		beq- 7,.L158
 3125              		.loc 1 883 0 is_stmt 0 discriminator 1
 3126 0084 81230000 		lwz 9,0(3)
 3127 0088 80090004 		lwz 0,4(9)
 3128 008c 7C0903A6 		mtctr 0
 3129 0090 4E800421 		bctrl
 3130              	.LEHE25:
 3131              	.L158:
 3132              	.LVL235:
 3133              	.LBB2238:
 3134              	.LBB2239:
 3135              	.LBB2240:
 3136              	.LBB2241:
 3137              		.loc 4 1532 0 is_stmt 1
 3138 0094 7FE3FB78 		mr 3,31
 3139 0098 48000001 		bl _ZNSt8__detail15_List_node_base9_M_unhookEv
 3140              	.LVL236:
 3141              	.LBB2242:
 3142              	.LBB2243:
 3143              	.LBB2244:
 3144              		.loc 6 98 0
 3145 009c 7FE3FB78 		mr 3,31
 3146 00a0 48000001 		bl _ZdlPv
 3147              	.LVL237:
 3148              	.LBE2244:
 3149              	.LBE2243:
 3150              	.LBE2242:
 3151              	.LBE2241:
 3152              	.LBE2240:
 3153              	.LBE2239:
 3154              	.LBE2238:
 3155              	.LBE2235:
 3156              		.loc 1 876 0
 3157 00a4 7F9DF000 		cmpw 7,29,30
 3158 00a8 409EFFAC 		bne+ 7,.L165
 3159              	.LVL238:
 3160              	.L156:
 3161              	.LBB2245:
 3162              	.LBB2246:
 3163              	.LBB2247:
 3164              		.loc 1 343 0
 3165 00ac 813B0000 		lwz 9,0(27)
 3166 00b0 7F63DB78 		mr 3,27
 3167 00b4 8009000C 		lwz 0,12(9)
 3168 00b8 7C0903A6 		mtctr 0
 3169              	.LEHB26:
 3170 00bc 4E800421 		bctrl
 3171              	.LEHE26:
 3172              	.LBE2247:
 3173              	.LBE2246:
 3174              	.LBE2245:
 3175              	.LBE2252:
 3176              		.loc 1 890 0
 3177 00c0 80010024 		lwz 0,36(1)
 3178 00c4 8361000C 		lwz 27,12(1)
 3179              	.LVL239:
 3180 00c8 7C0803A6 		mtlr 0
 3181 00cc 83810010 		lwz 28,16(1)
 3182              	.LVL240:
 3183 00d0 83A10014 		lwz 29,20(1)
 3184              	.LVL241:
 3185 00d4 83C10018 		lwz 30,24(1)
 3186 00d8 83E1001C 		lwz 31,28(1)
 3187 00dc 38210020 		addi 1,1,32
 3188              		.cfi_remember_state
 3189              	.LCFI43:
 3190              		.cfi_def_cfa_offset 0
 3191              		.cfi_restore 31
 3192              		.cfi_restore 30
 3193              		.cfi_restore 29
 3194              		.cfi_restore 28
 3195              		.cfi_restore 27
 3196 00e0 4E800020 		blr
 3197              	.LVL242:
 3198              	.L166:
 3199              	.LCFI44:
 3200              		.cfi_restore_state
 3201              	.LBB2253:
 3202              	.LBB2248:
 3203              	.LBB2249:
 3204              	.LBB2250:
 3205              		.loc 1 343 0
 3206 00e4 813B0000 		lwz 9,0(27)
 3207 00e8 7C7F1B78 		mr 31,3
 3208              	.LVL243:
 3209 00ec 7F63DB78 		mr 3,27
 3210 00f0 8009000C 		lwz 0,12(9)
 3211 00f4 7C0903A6 		mtctr 0
 3212 00f8 4E800421 		bctrl
 3213 00fc 7FE3FB78 		mr 3,31
 3214              	.LEHB27:
 3215 0100 48000001 		bl _Unwind_Resume
 3216              	.LEHE27:
 3217              	.LBE2250:
 3218              	.LBE2249:
 3219              	.LBE2248:
 3220              	.LBE2253:
 3221              		.cfi_endproc
 3222              	.LFE1833:
 3223              		.section	.gcc_except_table
 3224              	.LLSDA1833:
 3225 008a FF       		.byte	0xff
 3226 008b FF       		.byte	0xff
 3227 008c 01       		.byte	0x1
 3228 008d 13       		.uleb128 .LLSDACSE1833-.LLSDACSB1833
 3229              	.LLSDACSB1833:
 3230 008e 38       		.uleb128 .LEHB24-.LFB1833
 3231 008f 04       		.uleb128 .LEHE24-.LEHB24
 3232 0090 00       		.uleb128 0
 3233 0091 00       		.uleb128 0
 3234 0092 6C       		.uleb128 .LEHB25-.LFB1833
 3235 0093 28       		.uleb128 .LEHE25-.LEHB25
 3236 0094 E401     		.uleb128 .L166-.LFB1833
 3237 0096 00       		.uleb128 0
 3238 0097 BC01     		.uleb128 .LEHB26-.LFB1833
 3239 0099 04       		.uleb128 .LEHE26-.LEHB26
 3240 009a 00       		.uleb128 0
 3241 009b 00       		.uleb128 0
 3242 009c 8002     		.uleb128 .LEHB27-.LFB1833
 3243 009e 04       		.uleb128 .LEHE27-.LEHB27
 3244 009f 00       		.uleb128 0
 3245 00a0 00       		.uleb128 0
 3246              	.LLSDACSE1833:
 3247              		.section	.text._ZN7sigslot13_signal_base2IP10GuiElementbNS_15single_threadedEE15slot_disconnectEPN
 3248              		.size	_ZN7sigslot13_signal_base2IP10GuiElementbNS_15single_threadedEE15slot_disconnectEPNS_9has_sl
 3249              		.section	.text._ZN10GuiElement10ResetStateEv,"axG",@progbits,_ZN10GuiElement10ResetStateEv,comdat
 3250              		.align 2
 3251              		.weak	_ZN10GuiElement10ResetStateEv
 3252              		.type	_ZN10GuiElement10ResetStateEv, @function
 3253              	_ZN10GuiElement10ResetStateEv:
 3254              	.LFB1402:
 3255              		.loc 2 183 0
 3256              		.cfi_startproc
 3257              	.LVL244:
 3258 0000 7C0802A6 		mflr 0
 3259 0004 9421FFF8 		stwu 1,-8(1)
 3260              	.LCFI45:
 3261              		.cfi_def_cfa_offset 8
 3262              		.cfi_register 65, 0
 3263 0008 9001000C 		stw 0,12(1)
 3264              		.loc 2 185 0
 3265 000c 80030048 		lwz 0,72(3)
 3266              		.cfi_offset 65, 4
 3267 0010 2F800004 		cmpwi 7,0,4
 3268 0014 419E001C 		beq- 7,.L168
 3269              	.LVL245:
 3270              	.LBB2256:
 3271              	.LBB2257:
 3272              		.loc 2 186 0
 3273 0018 81230000 		lwz 9,0(3)
 3274 001c 38800000 		li 4,0
 3275 0020 38A0FFFF 		li 5,-1
 3276 0024 80090050 		lwz 0,80(9)
 3277 0028 7C0903A6 		mtctr 0
 3278 002c 4E800421 		bctrl
 3279              	.LVL246:
 3280              	.L168:
 3281              	.LBE2257:
 3282              	.LBE2256:
 3283              		.loc 2 187 0
 3284 0030 8001000C 		lwz 0,12(1)
 3285 0034 38210008 		addi 1,1,8
 3286              	.LCFI46:
 3287              		.cfi_def_cfa_offset 0
 3288 0038 7C0803A6 		mtlr 0
 3289 003c 4E800020 		blr
 3290              		.cfi_endproc
 3291              	.LFE1402:
 3292              		.size	_ZN10GuiElement10ResetStateEv, .-_ZN10GuiElement10ResetStateEv
 3293              		.globl __floatundisf
 3294              		.section	".text"
 3295              		.align 2
 3296              		.globl _ZN9GuiButton4DrawEv
 3297              		.type	_ZN9GuiButton4DrawEv, @function
 3298              	_ZN9GuiButton4DrawEv:
 3299              	.LFB1489:
 3300              		.loc 3 200 0
 3301              		.cfi_startproc
 3302              	.LVL247:
 3303 0274 7C0802A6 		mflr 0
 3304 0278 9421FFF0 		stwu 1,-16(1)
 3305              	.LCFI47:
 3306              		.cfi_def_cfa_offset 16
 3307              		.cfi_register 65, 0
 3308 027c 93E1000C 		stw 31,12(1)
 3309 0280 7C7F1B78 		mr 31,3
 3310              		.cfi_offset 31, -4
 3311 0284 90010014 		stw 0,20(1)
 3312 0288 93C10008 		stw 30,8(1)
 3313              	.LBB2265:
 3314              		.loc 3 201 0
 3315 028c 81230000 		lwz 9,0(3)
 3316 0290 80090034 		lwz 0,52(9)
 3317              		.cfi_offset 30, -8
 3318              		.cfi_offset 65, 4
 3319 0294 7C0903A6 		mtctr 0
 3320 0298 4E800421 		bctrl
 3321              	.LVL248:
 3322 029c 2F830000 		cmpwi 7,3,0
 3323 02a0 419E0118 		beq- 7,.L170
 3324              	.LVL249:
 3325              	.LBE2265:
 3326              	.LBB2266:
 3327              	.LBB2267:
 3328              		.loc 3 205 0
 3329 02a4 801F0048 		lwz 0,72(31)
 3330 02a8 2F800001 		cmpwi 7,0,1
 3331 02ac 419E0124 		beq- 7,.L172
 3332 02b0 2F000003 		cmpwi 6,0,3
 3333 02b4 419A011C 		beq- 6,.L172
 3334              	.L173:
 3335              		.loc 3 207 0
 3336 02b8 807F00B8 		lwz 3,184(31)
 3337 02bc 2F030000 		cmpwi 6,3,0
 3338 02c0 419A001C 		beq- 6,.L174
 3339              	.L205:
 3340              		.loc 3 208 0
 3341 02c4 81230000 		lwz 9,0(3)
 3342 02c8 800900C0 		lwz 0,192(9)
 3343 02cc 7C0903A6 		mtctr 0
 3344 02d0 4E800421 		bctrl
 3345 02d4 801F0048 		lwz 0,72(31)
 3346 02d8 2F800001 		cmpwi 7,0,1
 3347              	.L174:
 3348              		.loc 3 210 0
 3349 02dc 419E0104 		beq- 7,.L175
 3350 02e0 2F000003 		cmpwi 6,0,3
 3351 02e4 419A00FC 		beq- 6,.L175
 3352              	.L176:
 3353              		.loc 3 212 0
 3354 02e8 807F00C8 		lwz 3,200(31)
 3355 02ec 2F030000 		cmpwi 6,3,0
 3356 02f0 419A001C 		beq- 6,.L177
 3357              	.L206:
 3358              		.loc 3 213 0
 3359 02f4 81230000 		lwz 9,0(3)
 3360 02f8 800900C0 		lwz 0,192(9)
 3361 02fc 7C0903A6 		mtctr 0
 3362 0300 4E800421 		bctrl
 3363 0304 801F0048 		lwz 0,72(31)
 3364 0308 2F800001 		cmpwi 7,0,1
 3365              	.L177:
 3366              	.LVL250:
 3367              	.LBB2268:
 3368              		.loc 3 217 0
 3369 030c 419E0104 		beq- 7,.L178
 3370 0310 2F800003 		cmpwi 7,0,3
 3371 0314 419E00FC 		beq- 7,.L178
 3372              	.L181:
 3373              		.loc 3 219 0
 3374 0318 807F00D8 		lwz 3,216(31)
 3375 031c 2F830000 		cmpwi 7,3,0
 3376 0320 419E0018 		beq- 7,.L180
 3377              	.L207:
 3378              		.loc 3 218 0
 3379 0324 81230000 		lwz 9,0(3)
 3380 0328 800900C0 		lwz 0,192(9)
 3381 032c 7C0903A6 		mtctr 0
 3382 0330 4E800421 		bctrl
 3383 0334 801F0048 		lwz 0,72(31)
 3384              	.L180:
 3385              	.LVL251:
 3386              		.loc 3 217 0
 3387 0338 2F800001 		cmpwi 7,0,1
 3388 033c 419E00C4 		beq- 7,.L182
 3389 0340 2F800003 		cmpwi 7,0,3
 3390 0344 419E00BC 		beq- 7,.L182
 3391              	.L185:
 3392              		.loc 3 219 0
 3393 0348 807F00DC 		lwz 3,220(31)
 3394 034c 2F830000 		cmpwi 7,3,0
 3395 0350 419E0018 		beq- 7,.L184
 3396              	.L208:
 3397              		.loc 3 218 0
 3398 0354 81230000 		lwz 9,0(3)
 3399 0358 800900C0 		lwz 0,192(9)
 3400 035c 7C0903A6 		mtctr 0
 3401 0360 4E800421 		bctrl
 3402 0364 801F0048 		lwz 0,72(31)
 3403              	.L184:
 3404              	.LVL252:
 3405              		.loc 3 217 0
 3406 0368 2F800001 		cmpwi 7,0,1
 3407 036c 419E0084 		beq- 7,.L186
 3408 0370 2F800003 		cmpwi 7,0,3
 3409 0374 419E007C 		beq- 7,.L186
 3410              	.L187:
 3411              		.loc 3 219 0
 3412 0378 807F00E0 		lwz 3,224(31)
 3413 037c 2F830000 		cmpwi 7,3,0
 3414 0380 419E0014 		beq- 7,.L188
 3415              	.L209:
 3416              		.loc 3 220 0
 3417 0384 81230000 		lwz 9,0(3)
 3418 0388 800900C0 		lwz 0,192(9)
 3419 038c 7C0903A6 		mtctr 0
 3420 0390 4E800421 		bctrl
 3421              	.L188:
 3422              	.LVL253:
 3423              	.LBE2268:
 3424              		.loc 3 223 0
 3425 0394 3D200000 		lis 9,Settings+104@ha
 3426 0398 A8090068 		lha 0,Settings+104@l(9)
 3427 039c 2F800000 		cmpwi 7,0,0
 3428 03a0 409E0080 		bne- 7,.L213
 3429              	.L191:
 3430              		.loc 3 247 0
 3431 03a4 813F0000 		lwz 9,0(31)
 3432 03a8 7FE3FB78 		mr 3,31
 3433 03ac 800900C4 		lwz 0,196(9)
 3434 03b0 7C0903A6 		mtctr 0
 3435 03b4 4E800421 		bctrl
 3436              	.LVL254:
 3437              	.L170:
 3438              	.LBE2267:
 3439              	.LBE2266:
 3440              		.loc 3 248 0
 3441 03b8 80010014 		lwz 0,20(1)
 3442 03bc 83C10008 		lwz 30,8(1)
 3443 03c0 7C0803A6 		mtlr 0
 3444 03c4 83E1000C 		lwz 31,12(1)
 3445              	.LVL255:
 3446 03c8 38210010 		addi 1,1,16
 3447              		.cfi_remember_state
 3448              	.LCFI48:
 3449              		.cfi_def_cfa_offset 0
 3450              		.cfi_restore 31
 3451              		.cfi_restore 30
 3452 03cc 4E800020 		blr
 3453              	.LVL256:
 3454              	.L172:
 3455              	.LCFI49:
 3456              		.cfi_restore_state
 3457              	.LBB2277:
 3458              	.LBB2276:
 3459              		.loc 3 205 0
 3460 03d0 807F00BC 		lwz 3,188(31)
 3461 03d4 2F030000 		cmpwi 6,3,0
 3462 03d8 409AFEEC 		bne+ 6,.L205
 3463 03dc 4BFFFEDC 		b .L173
 3464              	.L175:
 3465              		.loc 3 210 0
 3466 03e0 807F00CC 		lwz 3,204(31)
 3467 03e4 2F030000 		cmpwi 6,3,0
 3468 03e8 409AFF0C 		bne+ 6,.L206
 3469 03ec 4BFFFEFC 		b .L176
 3470              	.LVL257:
 3471              	.L186:
 3472              	.LBB2269:
 3473              		.loc 3 217 0
 3474 03f0 807F00EC 		lwz 3,236(31)
 3475 03f4 2F830000 		cmpwi 7,3,0
 3476 03f8 409EFF8C 		bne+ 7,.L209
 3477 03fc 4BFFFF7C 		b .L187
 3478              	.LVL258:
 3479              	.L182:
 3480 0400 807F00E8 		lwz 3,232(31)
 3481 0404 2F830000 		cmpwi 7,3,0
 3482 0408 409EFF4C 		bne+ 7,.L208
 3483 040c 4BFFFF3C 		b .L185
 3484              	.LVL259:
 3485              	.L178:
 3486 0410 807F00E4 		lwz 3,228(31)
 3487 0414 2F830000 		cmpwi 7,3,0
 3488 0418 409EFF0C 		bne+ 7,.L207
 3489 041c 4BFFFEFC 		b .L181
 3490              	.LVL260:
 3491              	.L213:
 3492              	.LBE2269:
 3493              		.loc 3 223 0
 3494 0420 813F0000 		lwz 9,0(31)
 3495 0424 7FE3FB78 		mr 3,31
 3496 0428 80090098 		lwz 0,152(9)
 3497 042c 7C0903A6 		mtctr 0
 3498 0430 4E800421 		bctrl
 3499 0434 2F832000 		cmpwi 7,3,8192
 3500 0438 41BEFF6C 		beq- 7,.L191
 3501              		.loc 3 225 0
 3502 043c 801F0048 		lwz 0,72(31)
 3503 0440 2F800001 		cmpwi 7,0,1
 3504 0444 419E0070 		beq- 7,.L214
 3505              		.loc 3 235 0
 3506 0448 807F0114 		lwz 3,276(31)
 3507 044c 2F830000 		cmpwi 7,3,0
 3508 0450 41BEFF54 		beq- 7,.L191
 3509              		.loc 3 237 0
 3510 0454 81230000 		lwz 9,0(3)
 3511 0458 80090034 		lwz 0,52(9)
 3512 045c 7C0903A6 		mtctr 0
 3513 0460 4E800421 		bctrl
 3514 0464 2F830000 		cmpwi 7,3,0
 3515 0468 409E00E0 		bne- 7,.L215
 3516              	.L196:
 3517              		.loc 3 242 0
 3518 046c 801F0048 		lwz 0,72(31)
 3519 0470 2F800004 		cmpwi 7,0,4
 3520 0474 41BEFF30 		beq- 7,.L191
 3521              	.L212:
 3522 0478 807F0060 		lwz 3,96(31)
 3523 047c 2F830000 		cmpwi 7,3,0
 3524 0480 41BEFF24 		beq- 7,.L191
 3525 0484 81230000 		lwz 9,0(3)
 3526 0488 80090054 		lwz 0,84(9)
 3527 048c 7C0903A6 		mtctr 0
 3528 0490 4E800421 		bctrl
 3529 0494 2F830004 		cmpwi 7,3,4
 3530 0498 41BEFF0C 		beq- 7,.L191
 3531              		.loc 3 243 0
 3532 049c 807F0114 		lwz 3,276(31)
 3533 04a0 81230000 		lwz 9,0(3)
 3534 04a4 800900C0 		lwz 0,192(9)
 3535 04a8 7C0903A6 		mtctr 0
 3536 04ac 4E800421 		bctrl
 3537 04b0 4BFFFEF4 		b .L191
 3538              	.L214:
 3539              		.loc 3 225 0
 3540 04b4 807F0114 		lwz 3,276(31)
 3541 04b8 2F830000 		cmpwi 7,3,0
 3542 04bc 41BEFEE8 		beq- 7,.L191
 3543              		.loc 3 227 0
 3544 04c0 81230000 		lwz 9,0(3)
 3545 04c4 80090034 		lwz 0,52(9)
 3546 04c8 7C0903A6 		mtctr 0
 3547 04cc 4E800421 		bctrl
 3548 04d0 2F830000 		cmpwi 7,3,0
 3549 04d4 409EFFA4 		bne+ 7,.L212
 3550              	.LVL261:
 3551              	.LBB2270:
 3552              	.LBB2271:
 3553              		.file 7 "d:/Projects/SaveGameManager/savegame-manager-gx/trunk/source/GUI/../ImageOperations/../To
 3554              		.loc 7 59 0
 3555 04d8 48000001 		bl gettime
 3556 04dc 815F0118 		lwz 10,280(31)
 3557 04e0 817F011C 		lwz 11,284(31)
 3558              	.LBE2271:
 3559              	.LBE2270:
 3560              		.loc 3 227 0
 3561 04e4 83DF0114 		lwz 30,276(31)
 3562              	.LBB2274:
 3563              	.LBB2272:
 3564              		.loc 7 59 0
 3565 04e8 7C8B2010 		subfc 4,11,4
 3566 04ec 7C6A1910 		subfe 3,10,3
 3567 04f0 48000001 		bl __floatundisf
 3568 04f4 3D200000 		lis 9,.LC4@ha
 3569 04f8 C1A9000C 		lfs 13,.LC4@l(9)
 3570              	.LBE2272:
 3571              	.LBE2274:
 3572              		.loc 3 227 0
 3573 04fc C01E0090 		lfs 0,144(30)
 3574              	.LBB2275:
 3575              	.LBB2273:
 3576              		.loc 7 59 0
 3577 0500 EDA16824 		fdivs 13,1,13
 3578              	.LBE2273:
 3579              	.LBE2275:
 3580              		.loc 3 227 0
 3581 0504 FF8D0000 		fcmpu 7,13,0
 3582 0508 40BDFF70 		bng- 7,.L212
 3583              		.loc 3 229 0
 3584 050c 813E0000 		lwz 9,0(30)
 3585 0510 7FC3F378 		mr 3,30
 3586 0514 38800080 		li 4,128
 3587 0518 38A00014 		li 5,20
 3588 051c 80090088 		lwz 0,136(9)
 3589 0520 38C00000 		li 6,0
 3590 0524 7C0903A6 		mtctr 0
 3591 0528 4E800421 		bctrl
 3592              		.loc 3 230 0
 3593 052c 807F0114 		lwz 3,276(31)
 3594 0530 38800001 		li 4,1
 3595 0534 81230000 		lwz 9,0(3)
 3596 0538 80090030 		lwz 0,48(9)
 3597 053c 7C0903A6 		mtctr 0
 3598 0540 4E800421 		bctrl
 3599 0544 4BFFFF34 		b .L212
 3600              	.LVL262:
 3601              	.L215:
 3602              		.loc 3 239 0
 3603 0548 807F0114 		lwz 3,276(31)
 3604 054c 38800080 		li 4,128
 3605 0550 38A0FFEC 		li 5,-20
 3606 0554 38C00000 		li 6,0
 3607 0558 81230000 		lwz 9,0(3)
 3608 055c 80090088 		lwz 0,136(9)
 3609 0560 7C0903A6 		mtctr 0
 3610 0564 4E800421 		bctrl
 3611              		.loc 3 240 0
 3612 0568 807F0114 		lwz 3,276(31)
 3613 056c 38800000 		li 4,0
 3614 0570 81230000 		lwz 9,0(3)
 3615 0574 80090030 		lwz 0,48(9)
 3616 0578 7C0903A6 		mtctr 0
 3617 057c 4E800421 		bctrl
 3618 0580 4BFFFEEC 		b .L196
 3619              	.LBE2276:
 3620              	.LBE2277:
 3621              		.cfi_endproc
 3622              	.LFE1489:
 3623              		.size	_ZN9GuiButton4DrawEv, .-_ZN9GuiButton4DrawEv
 3624              		.align 2
 3625              		.globl _ZN9GuiButton6UpdateEP10GuiTrigger
 3626              		.type	_ZN9GuiButton6UpdateEP10GuiTrigger, @function
 3627              	_ZN9GuiButton6UpdateEP10GuiTrigger:
 3628              	.LFB1490:
 3629              		.loc 3 251 0
 3630              		.cfi_startproc
 3631              		.cfi_personality 0,__gxx_personality_v0
 3632              		.cfi_lsda 0,.LLSDA1490
 3633              	.LVL263:
 3634 0584 7C0802A6 		mflr 0
 3635 0588 9421FF98 		stwu 1,-104(1)
 3636              	.LCFI50:
 3637              		.cfi_def_cfa_offset 104
 3638              		.cfi_register 65, 0
 3639 058c 93C10060 		stw 30,96(1)
 3640 0590 7C9E2378 		mr 30,4
 3641              		.cfi_offset 30, -8
 3642 0594 9001006C 		stw 0,108(1)
 3643 0598 93E10064 		stw 31,100(1)
 3644 059c 7C7F1B78 		mr 31,3
 3645              		.cfi_offset 31, -4
 3646              		.cfi_offset 65, 4
 3647              	.LBB2361:
 3648              		.loc 3 252 0
 3649 05a0 80030048 		lwz 0,72(3)
 3650              	.LBE2361:
 3651              		.loc 3 251 0
 3652 05a4 93410050 		stw 26,80(1)
 3653              	.LBB2362:
 3654              		.loc 3 252 0
 3655 05a8 2F800004 		cmpwi 7,0,4
 3656              	.LBE2362:
 3657              		.loc 3 251 0
 3658 05ac 93610054 		stw 27,84(1)
 3659 05b0 93810058 		stw 28,88(1)
 3660 05b4 93A1005C 		stw 29,92(1)
 3661              	.LBB2363:
 3662              		.loc 3 252 0
 3663 05b8 419E04EC 		beq- 7,.L216
 3664              		.cfi_offset 29, -12
 3665              		.cfi_offset 28, -16
 3666              		.cfi_offset 27, -20
 3667              		.cfi_offset 26, -24
 3668              		.loc 3 252 0 is_stmt 0 discriminator 2
 3669 05bc 2F840000 		cmpwi 7,4,0
 3670 05c0 419E04E4 		beq- 7,.L216
 3671              		.loc 3 252 0 discriminator 3
 3672 05c4 81230000 		lwz 9,0(3)
 3673 05c8 8009009C 		lwz 0,156(9)
 3674 05cc 7C0903A6 		mtctr 0
 3675              	.LEHB28:
 3676 05d0 4E800421 		bctrl
 3677              	.LVL264:
 3678 05d4 2F830000 		cmpwi 7,3,0
 3679 05d8 409E04F4 		bne- 7,.L364
 3680              	.L218:
 3681              	.LVL265:
 3682              	.LBE2363:
 3683              	.LBB2364:
 3684              	.LBB2365:
 3685              		.loc 3 254 0 is_stmt 1
 3686 05dc 807F0060 		lwz 3,96(31)
 3687 05e0 2F830000 		cmpwi 7,3,0
 3688 05e4 419E0038 		beq- 7,.L332
 3689 05e8 81230000 		lwz 9,0(3)
 3690 05ec 80090054 		lwz 0,84(9)
 3691 05f0 7C0903A6 		mtctr 0
 3692 05f4 4E800421 		bctrl
 3693 05f8 2F830004 		cmpwi 7,3,4
 3694 05fc 419E04A8 		beq- 7,.L216
 3695 0600 807F0060 		lwz 3,96(31)
 3696 0604 81230000 		lwz 9,0(3)
 3697 0608 8009009C 		lwz 0,156(9)
 3698 060c 7C0903A6 		mtctr 0
 3699 0610 4E800421 		bctrl
 3700 0614 2F830000 		cmpwi 7,3,0
 3701 0618 409E048C 		bne- 7,.L216
 3702              	.L332:
 3703              		.loc 3 259 0
 3704 061c 813E000C 		lwz 9,12(30)
 3705 0620 800900AC 		lwz 0,172(9)
 3706 0624 2F800000 		cmpwi 7,0,0
 3707 0628 419E0100 		beq- 7,.L219
 3708 062c 801E0008 		lwz 0,8(30)
 3709 0630 2F800000 		cmpwi 7,0,0
 3710 0634 419C00F4 		blt- 7,.L219
 3711              		.loc 3 261 0
 3712 0638 C1A900B0 		lfs 13,176(9)
 3713 063c 39010048 		addi 8,1,72
 3714 0640 C00900B4 		lfs 0,180(9)
 3715 0644 7FE3FB78 		mr 3,31
 3716 0648 813F0000 		lwz 9,0(31)
 3717 064c FDA0681E 		fctiwz 13,13
 3718 0650 FC00001E 		fctiwz 0,0
 3719 0654 800900A4 		lwz 0,164(9)
 3720 0658 3921004C 		addi 9,1,76
 3721 065c 7DA047AE 		stfiwx 13,0,8
 3722 0660 7C004FAE 		stfiwx 0,0,9
 3723 0664 7C0903A6 		mtctr 0
 3724 0668 80810048 		lwz 4,72(1)
 3725 066c 80A1004C 		lwz 5,76(1)
 3726 0670 4E800421 		bctrl
 3727              		.loc 3 263 0
 3728 0674 801F0048 		lwz 0,72(31)
 3729              		.loc 3 261 0
 3730 0678 2F830000 		cmpwi 7,3,0
 3731 067c 419E07B0 		beq- 7,.L220
 3732              		.loc 3 263 0
 3733 0680 2F800000 		cmpwi 7,0,0
 3734 0684 419E0B50 		beq- 7,.L365
 3735 0688 2F800001 		cmpwi 7,0,1
 3736 068c 40BE009C 		bne+ 7,.L219
 3737 0690 80BE0008 		lwz 5,8(30)
 3738 0694 801F004C 		lwz 0,76(31)
 3739 0698 7F850000 		cmpw 7,5,0
 3740 069c 419E008C 		beq- 7,.L219
 3741              	.L222:
 3742              		.loc 3 265 0
 3743 06a0 813F0000 		lwz 9,0(31)
 3744 06a4 7FE3FB78 		mr 3,31
 3745 06a8 38800001 		li 4,1
 3746 06ac 80090050 		lwz 0,80(9)
 3747 06b0 7C0903A6 		mtctr 0
 3748 06b4 4E800421 		bctrl
 3749              		.loc 3 267 0
 3750 06b8 813F0000 		lwz 9,0(31)
 3751 06bc 7FE3FB78 		mr 3,31
 3752 06c0 80090080 		lwz 0,128(9)
 3753 06c4 7C0903A6 		mtctr 0
 3754 06c8 4E800421 		bctrl
 3755 06cc 2F830000 		cmpwi 7,3,0
 3756 06d0 409E0BDC 		bne- 7,.L366
 3757              	.L223:
 3758              		.loc 3 270 0
 3759 06d4 807F0108 		lwz 3,264(31)
 3760 06d8 2F830000 		cmpwi 7,3,0
 3761 06dc 419E0008 		beq- 7,.L224
 3762              		.loc 3 271 0
 3763 06e0 48000001 		bl _ZN8GuiSound4PlayEv
 3764              	.L224:
 3765              		.loc 3 273 0
 3766 06e4 801F0114 		lwz 0,276(31)
 3767 06e8 2F800000 		cmpwi 7,0,0
 3768 06ec 419E0010 		beq- 7,.L225
 3769              	.LVL266:
 3770              	.LBB2366:
 3771              	.LBB2367:
 3772              		.loc 7 61 0
 3773 06f0 48000001 		bl gettime
 3774 06f4 907F0118 		stw 3,280(31)
 3775 06f8 909F011C 		stw 4,284(31)
 3776              	.LVL267:
 3777              	.L225:
 3778              	.LBE2367:
 3779              	.LBE2366:
 3780              		.loc 3 276 0
 3781 06fc 801F0084 		lwz 0,132(31)
 3782 0700 2F800000 		cmpwi 7,0,0
 3783 0704 419E0024 		beq- 7,.L219
 3784 0708 813F0078 		lwz 9,120(31)
 3785 070c 2F890000 		cmpwi 7,9,0
 3786 0710 409E0018 		bne- 7,.L219
 3787              		.loc 3 280 0
 3788 0714 817F0088 		lwz 11,136(31)
 3789              		.loc 3 281 0
 3790 0718 813F008C 		lwz 9,140(31)
 3791              		.loc 3 279 0
 3792 071c 901F0078 		stw 0,120(31)
 3793              		.loc 3 280 0
 3794 0720 917F007C 		stw 11,124(31)
 3795              		.loc 3 281 0
 3796 0724 913F0080 		stw 9,128(31)
 3797              	.L219:
 3798              	.LBB2368:
 3799              		.loc 3 302 0
 3800 0728 881F001F 		lbz 0,31(31)
 3801 072c 2F800000 		cmpwi 7,0,0
 3802 0730 419E00E4 		beq- 7,.L228
 3803              	.LBB2369:
 3804              	.LBB2370:
 3805              	.LBB2371:
 3806              		.loc 3 308 0
 3807 0734 813F0120 		lwz 9,288(31)
 3808              	.LBE2371:
 3809              	.LBE2370:
 3810              		.loc 3 304 0
 3811 0738 817E000C 		lwz 11,12(30)
 3812              	.LBB2444:
 3813              	.LBB2438:
 3814              		.loc 3 308 0
 3815 073c 2F890000 		cmpwi 7,9,0
 3816              	.LBE2438:
 3817              	.LBE2444:
 3818              		.loc 3 304 0
 3819 0740 83AB0014 		lwz 29,20(11)
 3820              	.LVL268:
 3821              	.LBB2445:
 3822              	.LBB2439:
 3823              		.loc 3 308 0
 3824 0744 419E001C 		beq- 7,.L229
 3825 0748 80090008 		lwz 0,8(9)
 3826 074c 2F80FFFF 		cmpwi 7,0,-1
 3827 0750 419E0510 		beq- 7,.L236
 3828 0754 815E0008 		lwz 10,8(30)
 3829 0758 7F805000 		cmpw 7,0,10
 3830 075c 419E0504 		beq- 7,.L236
 3831              	.LVL269:
 3832              	.L229:
 3833 0760 813F0124 		lwz 9,292(31)
 3834 0764 2F890000 		cmpwi 7,9,0
 3835 0768 419E001C 		beq- 7,.L237
 3836 076c 80090008 		lwz 0,8(9)
 3837 0770 2F80FFFF 		cmpwi 7,0,-1
 3838 0774 419E05DC 		beq- 7,.L242
 3839 0778 817E0008 		lwz 11,8(30)
 3840 077c 7F805800 		cmpw 7,0,11
 3841 0780 419E05D0 		beq- 7,.L242
 3842              	.L237:
 3843              	.LVL270:
 3844 0784 813F0128 		lwz 9,296(31)
 3845 0788 2F890000 		cmpwi 7,9,0
 3846 078c 419E001C 		beq- 7,.L243
 3847 0790 80090008 		lwz 0,8(9)
 3848 0794 2F80FFFF 		cmpwi 7,0,-1
 3849 0798 419E05E4 		beq- 7,.L248
 3850 079c 817E0008 		lwz 11,8(30)
 3851 07a0 7F805800 		cmpw 7,0,11
 3852 07a4 419E05D8 		beq- 7,.L248
 3853              	.L243:
 3854              	.LVL271:
 3855 07a8 813F012C 		lwz 9,300(31)
 3856 07ac 2F890000 		cmpwi 7,9,0
 3857 07b0 419E001C 		beq- 7,.L249
 3858 07b4 80090008 		lwz 0,8(9)
 3859 07b8 2F80FFFF 		cmpwi 7,0,-1
 3860 07bc 419E05EC 		beq- 7,.L254
 3861 07c0 817E0008 		lwz 11,8(30)
 3862 07c4 7F805800 		cmpw 7,0,11
 3863 07c8 419E05E0 		beq- 7,.L254
 3864              	.L249:
 3865              	.LVL272:
 3866 07cc 813F0130 		lwz 9,304(31)
 3867 07d0 2F890000 		cmpwi 7,9,0
 3868 07d4 419E001C 		beq- 7,.L255
 3869 07d8 80090008 		lwz 0,8(9)
 3870 07dc 2F80FFFF 		cmpwi 7,0,-1
 3871 07e0 419E05F4 		beq- 7,.L260
 3872 07e4 817E0008 		lwz 11,8(30)
 3873 07e8 7F805800 		cmpw 7,0,11
 3874 07ec 419E05E8 		beq- 7,.L260
 3875              	.L255:
 3876              	.LVL273:
 3877 07f0 813F0134 		lwz 9,308(31)
 3878 07f4 2F890000 		cmpwi 7,9,0
 3879 07f8 419E001C 		beq- 7,.L228
 3880 07fc 80090008 		lwz 0,8(9)
 3881 0800 2F80FFFF 		cmpwi 7,0,-1
 3882 0804 419E05FC 		beq- 7,.L262
 3883 0808 817E0008 		lwz 11,8(30)
 3884 080c 7F805800 		cmpw 7,0,11
 3885 0810 419E05F0 		beq- 7,.L262
 3886              	.LVL274:
 3887              	.L228:
 3888              	.LBE2439:
 3889              	.LBE2445:
 3890              	.LBE2369:
 3891              	.LBE2368:
 3892              	.LBB2454:
 3893              		.loc 3 349 0
 3894 0814 881F0020 		lbz 0,32(31)
 3895 0818 2F800000 		cmpwi 7,0,0
 3896 081c 419E0288 		beq- 7,.L216
 3897              	.LBB2455:
 3898              	.LBB2456:
 3899              		.loc 3 356 0
 3900 0820 813F0120 		lwz 9,288(31)
 3901              	.LBE2456:
 3902              	.LBE2455:
 3903              		.loc 3 349 0
 3904 0824 801F0048 		lwz 0,72(31)
 3905              	.LBB2513:
 3906              	.LBB2457:
 3907              		.loc 3 356 0
 3908 0828 2F890000 		cmpwi 7,9,0
 3909 082c 419E002C 		beq- 7,.L277
 3910              		.loc 3 359 0
 3911 0830 8149000C 		lwz 10,12(9)
 3912 0834 817E000C 		lwz 11,12(30)
 3913 0838 814A000C 		lwz 10,12(10)
 3914 083c 816B000C 		lwz 11,12(11)
 3915 0840 7D485839 		and. 8,10,11
 3916 0844 408202CC 		bne- 0,.L283
 3917 0848 A1690168 		lhz 11,360(9)
 3918 084c A15E0168 		lhz 10,360(30)
 3919 0850 7D485839 		and. 8,10,11
 3920 0854 408202BC 		bne- 0,.L283
 3921              	.L277:
 3922              	.LVL275:
 3923              		.loc 3 356 0
 3924 0858 813F0124 		lwz 9,292(31)
 3925 085c 2F890000 		cmpwi 7,9,0
 3926 0860 419E0040 		beq- 7,.L284
 3927              		.loc 3 359 0
 3928 0864 8149000C 		lwz 10,12(9)
 3929 0868 817E000C 		lwz 11,12(30)
 3930 086c 814A000C 		lwz 10,12(10)
 3931 0870 816B000C 		lwz 11,12(11)
 3932 0874 7D485839 		and. 8,10,11
 3933 0878 40820014 		bne- 0,.L290
 3934 087c A1690168 		lhz 11,360(9)
 3935 0880 A15E0168 		lhz 10,360(30)
 3936 0884 7D485839 		and. 8,10,11
 3937 0888 41820018 		beq- 0,.L284
 3938              	.L290:
 3939              		.loc 3 362 0
 3940 088c 89690004 		lbz 11,4(9)
 3941 0890 2F8B0003 		cmpwi 7,11,3
 3942 0894 419E0398 		beq- 7,.L307
 3943              		.loc 3 370 0
 3944 0898 2F8B0001 		cmpwi 7,11,1
 3945 089c 419E09B8 		beq- 7,.L367
 3946              	.LVL276:
 3947              	.L284:
 3948              		.loc 3 356 0
 3949 08a0 813F0128 		lwz 9,296(31)
 3950 08a4 2F890000 		cmpwi 7,9,0
 3951 08a8 419E0040 		beq- 7,.L294
 3952              		.loc 3 359 0
 3953 08ac 8149000C 		lwz 10,12(9)
 3954 08b0 817E000C 		lwz 11,12(30)
 3955 08b4 814A000C 		lwz 10,12(10)
 3956 08b8 816B000C 		lwz 11,12(11)
 3957 08bc 7D485839 		and. 8,10,11
 3958 08c0 40820014 		bne- 0,.L297
 3959 08c4 A1690168 		lhz 11,360(9)
 3960 08c8 A15E0168 		lhz 10,360(30)
 3961 08cc 7D485839 		and. 8,10,11
 3962 08d0 41820018 		beq- 0,.L294
 3963              	.L297:
 3964              		.loc 3 362 0
 3965 08d4 89690004 		lbz 11,4(9)
 3966 08d8 2F8B0003 		cmpwi 7,11,3
 3967 08dc 419E0350 		beq- 7,.L307
 3968              		.loc 3 370 0
 3969 08e0 2F8B0001 		cmpwi 7,11,1
 3970 08e4 419E0920 		beq- 7,.L368
 3971              	.LVL277:
 3972              	.L294:
 3973              		.loc 3 356 0
 3974 08e8 813F012C 		lwz 9,300(31)
 3975 08ec 2F890000 		cmpwi 7,9,0
 3976 08f0 419E0040 		beq- 7,.L301
 3977              		.loc 3 359 0
 3978 08f4 8149000C 		lwz 10,12(9)
 3979 08f8 817E000C 		lwz 11,12(30)
 3980 08fc 814A000C 		lwz 10,12(10)
 3981 0900 816B000C 		lwz 11,12(11)
 3982 0904 7D485839 		and. 8,10,11
 3983 0908 40820014 		bne- 0,.L304
 3984 090c A1690168 		lhz 11,360(9)
 3985 0910 A15E0168 		lhz 10,360(30)
 3986 0914 7D485839 		and. 8,10,11
 3987 0918 41820018 		beq- 0,.L301
 3988              	.L304:
 3989              		.loc 3 362 0
 3990 091c 89690004 		lbz 11,4(9)
 3991 0920 2F8B0003 		cmpwi 7,11,3
 3992 0924 419E0308 		beq- 7,.L307
 3993              		.loc 3 370 0
 3994 0928 2F8B0001 		cmpwi 7,11,1
 3995 092c 419E0900 		beq- 7,.L369
 3996              	.LVL278:
 3997              	.L301:
 3998              		.loc 3 356 0
 3999 0930 813F0130 		lwz 9,304(31)
 4000 0934 2F890000 		cmpwi 7,9,0
 4001 0938 419E0040 		beq- 7,.L308
 4002              		.loc 3 359 0
 4003 093c 8149000C 		lwz 10,12(9)
 4004 0940 817E000C 		lwz 11,12(30)
 4005 0944 814A000C 		lwz 10,12(10)
 4006 0948 816B000C 		lwz 11,12(11)
 4007 094c 7D485839 		and. 8,10,11
 4008 0950 40820014 		bne- 0,.L311
 4009 0954 A1690168 		lhz 11,360(9)
 4010 0958 A15E0168 		lhz 10,360(30)
 4011 095c 7D485839 		and. 8,10,11
 4012 0960 41820018 		beq- 0,.L308
 4013              	.L311:
 4014              		.loc 3 362 0
 4015 0964 89690004 		lbz 11,4(9)
 4016 0968 2F8B0003 		cmpwi 7,11,3
 4017 096c 419E02C0 		beq- 7,.L307
 4018              		.loc 3 370 0
 4019 0970 2F8B0001 		cmpwi 7,11,1
 4020 0974 419E0868 		beq- 7,.L370
 4021              	.LVL279:
 4022              	.L308:
 4023              		.loc 3 356 0
 4024 0978 813F0134 		lwz 9,308(31)
 4025 097c 2F890000 		cmpwi 7,9,0
 4026 0980 419E002C 		beq- 7,.L314
 4027              		.loc 3 359 0
 4028 0984 8149000C 		lwz 10,12(9)
 4029 0988 817E000C 		lwz 11,12(30)
 4030 098c 814A000C 		lwz 10,12(10)
 4031 0990 816B000C 		lwz 11,12(11)
 4032 0994 7D485839 		and. 8,10,11
 4033 0998 408207F4 		bne- 0,.L313
 4034 099c A1690168 		lhz 11,360(9)
 4035 09a0 A15E0168 		lhz 10,360(30)
 4036 09a4 7D485839 		and. 8,10,11
 4037 09a8 408207E4 		bne- 0,.L313
 4038              	.LVL280:
 4039              	.L314:
 4040              	.LBE2457:
 4041              	.LBB2458:
 4042              	.LBB2459:
 4043              		.loc 3 392 0
 4044 09ac 2F800003 		cmpwi 7,0,3
 4045 09b0 40BE00F4 		bne+ 7,.L216
 4046 09b4 801F004C 		lwz 0,76(31)
 4047 09b8 813E0008 		lwz 9,8(30)
 4048 09bc 7F804800 		cmpw 7,0,9
 4049 09c0 40BE00E4 		bne+ 7,.L216
 4050              	.LBB2460:
 4051              		.loc 3 395 0
 4052 09c4 1C000170 		mulli 0,0,368
 4053 09c8 3D200000 		lis 9,userInput@ha
 4054 09cc 39290000 		la 9,userInput@l(9)
 4055 09d0 7D290214 		add 9,9,0
 4056              		.loc 3 394 0
 4057 09d4 38000000 		li 0,0
 4058              		.loc 3 395 0
 4059 09d8 8129000C 		lwz 9,12(9)
 4060              		.loc 3 394 0
 4061 09dc 90010008 		stw 0,8(1)
 4062              		.loc 3 395 0
 4063 09e0 2F890000 		cmpwi 7,9,0
 4064              		.loc 3 394 0
 4065 09e4 9001000C 		stw 0,12(1)
 4066              		.loc 3 395 0
 4067 09e8 419E0030 		beq- 7,.L324
 4068 09ec 800900AC 		lwz 0,172(9)
 4069 09f0 2F800000 		cmpwi 7,0,0
 4070 09f4 419E0024 		beq- 7,.L324
 4071              		.loc 3 397 0
 4072 09f8 C1A900B0 		lfs 13,176(9)
 4073 09fc 39010008 		addi 8,1,8
 4074              		.loc 3 398 0
 4075 0a00 C00900B4 		lfs 0,180(9)
 4076 0a04 3921000C 		addi 9,1,12
 4077              		.loc 3 397 0
 4078 0a08 FDA0681E 		fctiwz 13,13
 4079              		.loc 3 398 0
 4080 0a0c FC00001E 		fctiwz 0,0
 4081              		.loc 3 397 0
 4082 0a10 7DA047AE 		stfiwx 13,0,8
 4083              		.loc 3 398 0
 4084 0a14 7C004FAE 		stfiwx 0,0,9
 4085              	.L324:
 4086              		.loc 3 400 0
 4087 0a18 813F0000 		lwz 9,0(31)
 4088 0a1c 7FE3FB78 		mr 3,31
 4089              	.LBB2461:
 4090              	.LBB2462:
 4091              		.loc 1 2338 0
 4092 0a20 3B5F00A8 		addi 26,31,168
 4093              	.LBE2462:
 4094              		.loc 3 406 0
 4095 0a24 7FFCFB78 		mr 28,31
 4096              	.LBE2461:
 4097              		.loc 3 400 0
 4098 0a28 8009005C 		lwz 0,92(9)
 4099 0a2c 7C0903A6 		mtctr 0
 4100 0a30 4E800421 		bctrl
 4101              	.LBB2479:
 4102              	.LBB2475:
 4103              	.LBB2463:
 4104              	.LBB2464:
 4105              		.loc 1 338 0
 4106 0a34 813F00A8 		lwz 9,168(31)
 4107 0a38 7F43D378 		mr 3,26
 4108              	.LBE2464:
 4109              	.LBE2463:
 4110              	.LBE2475:
 4111              	.LBE2479:
 4112              		.loc 3 401 0
 4113 0a3c 837E0008 		lwz 27,8(30)
 4114              	.LVL281:
 4115              	.LBB2480:
 4116              	.LBB2476:
 4117              	.LBB2466:
 4118              	.LBB2465:
 4119              		.loc 1 338 0
 4120 0a40 80090008 		lwz 0,8(9)
 4121 0a44 7C0903A6 		mtctr 0
 4122 0a48 4E800421 		bctrl
 4123              	.LEHE28:
 4124              	.LVL282:
 4125              	.LBE2465:
 4126              	.LBE2466:
 4127              	.LBE2476:
 4128              		.loc 3 406 0
 4129 0a4c 87DC00AC 		lwzu 30,172(28)
 4130              	.LVL283:
 4131              	.LBB2477:
 4132              		.loc 1 2342 0
 4133 0a50 7F9EE000 		cmpw 7,30,28
 4134 0a54 419E0034 		beq- 7,.L325
 4135 0a58 3BA10008 		addi 29,1,8
 4136              	.LVL284:
 4137              	.L326:
 4138              		.loc 1 2347 0
 4139 0a5c 807E0008 		lwz 3,8(30)
 4140 0a60 7FE4FB78 		mr 4,31
 4141 0a64 7F65DB78 		mr 5,27
 4142 0a68 7FA6EB78 		mr 6,29
 4143 0a6c 81230000 		lwz 9,0(3)
 4144              	.LBB2467:
 4145              	.LBB2468:
 4146              		.loc 4 234 0
 4147 0a70 83DE0000 		lwz 30,0(30)
 4148              	.LVL285:
 4149              	.LBE2468:
 4150              	.LBE2467:
 4151              		.loc 1 2347 0
 4152 0a74 8009000C 		lwz 0,12(9)
 4153 0a78 7C0903A6 		mtctr 0
 4154              	.LEHB29:
 4155 0a7c 4E800421 		bctrl
 4156              	.LEHE29:
 4157              	.LVL286:
 4158              		.loc 1 2342 0
 4159 0a80 7F9CF000 		cmpw 7,28,30
 4160 0a84 409EFFD8 		bne+ 7,.L326
 4161              	.LVL287:
 4162              	.L325:
 4163              	.LBB2469:
 4164              	.LBB2470:
 4165              	.LBB2471:
 4166              		.loc 1 343 0
 4167 0a88 813F00A8 		lwz 9,168(31)
 4168 0a8c 7F43D378 		mr 3,26
 4169 0a90 8009000C 		lwz 0,12(9)
 4170 0a94 7C0903A6 		mtctr 0
 4171              	.LEHB30:
 4172 0a98 4E800421 		bctrl
 4173              	.LBE2471:
 4174              	.LBE2470:
 4175              	.LBE2469:
 4176              	.LBE2477:
 4177              	.LBE2480:
 4178              		.loc 3 402 0
 4179 0a9c 38000000 		li 0,0
 4180 0aa0 981F00B4 		stb 0,180(31)
 4181              	.LVL288:
 4182              	.L216:
 4183              	.LBE2460:
 4184              	.LBE2459:
 4185              	.LBE2458:
 4186              	.LBE2513:
 4187              	.LBE2454:
 4188              	.LBE2365:
 4189              	.LBE2364:
 4190              		.loc 3 406 0
 4191 0aa4 8001006C 		lwz 0,108(1)
 4192 0aa8 83410050 		lwz 26,80(1)
 4193 0aac 7C0803A6 		mtlr 0
 4194 0ab0 83610054 		lwz 27,84(1)
 4195 0ab4 83810058 		lwz 28,88(1)
 4196 0ab8 83A1005C 		lwz 29,92(1)
 4197 0abc 83C10060 		lwz 30,96(1)
 4198 0ac0 83E10064 		lwz 31,100(1)
 4199              	.LVL289:
 4200 0ac4 38210068 		addi 1,1,104
 4201              		.cfi_remember_state
 4202              	.LCFI51:
 4203              		.cfi_def_cfa_offset 0
 4204              		.cfi_restore 31
 4205              		.cfi_restore 30
 4206              		.cfi_restore 29
 4207              		.cfi_restore 28
 4208              		.cfi_restore 27
 4209              		.cfi_restore 26
 4210 0ac8 4E800020 		blr
 4211              	.LVL290:
 4212              	.L364:
 4213              	.LCFI52:
 4214              		.cfi_restore_state
 4215              	.LBB2527:
 4216              		.loc 3 252 0 discriminator 4
 4217 0acc 813F0000 		lwz 9,0(31)
 4218 0ad0 7FE3FB78 		mr 3,31
 4219 0ad4 80090098 		lwz 0,152(9)
 4220 0ad8 7C0903A6 		mtctr 0
 4221 0adc 4E800421 		bctrl
 4222 0ae0 2F832000 		cmpwi 7,3,8192
 4223 0ae4 41BEFAF8 		beq- 7,.L218
 4224              	.LBE2527:
 4225              		.loc 3 406 0
 4226 0ae8 8001006C 		lwz 0,108(1)
 4227 0aec 83410050 		lwz 26,80(1)
 4228 0af0 7C0803A6 		mtlr 0
 4229 0af4 83610054 		lwz 27,84(1)
 4230 0af8 83810058 		lwz 28,88(1)
 4231 0afc 83A1005C 		lwz 29,92(1)
 4232 0b00 83C10060 		lwz 30,96(1)
 4233              	.LVL291:
 4234 0b04 83E10064 		lwz 31,100(1)
 4235              	.LVL292:
 4236 0b08 38210068 		addi 1,1,104
 4237              		.cfi_remember_state
 4238              		.cfi_restore 26
 4239              		.cfi_restore 27
 4240              		.cfi_restore 28
 4241              		.cfi_restore 29
 4242              		.cfi_restore 30
 4243              		.cfi_restore 31
 4244              	.LCFI53:
 4245              		.cfi_def_cfa_offset 0
 4246 0b0c 4E800020 		blr
 4247              	.LVL293:
 4248              	.L283:
 4249              	.LCFI54:
 4250              		.cfi_restore_state
 4251              	.LBB2528:
 4252              	.LBB2526:
 4253              	.LBB2518:
 4254              	.LBB2514:
 4255              	.LBB2506:
 4256              		.loc 3 362 0
 4257 0b10 89690004 		lbz 11,4(9)
 4258 0b14 2F8B0003 		cmpwi 7,11,3
 4259 0b18 419E0114 		beq- 7,.L307
 4260              		.loc 3 370 0
 4261 0b1c 2F8B0001 		cmpwi 7,11,1
 4262 0b20 409EFD38 		bne+ 7,.L277
 4263 0b24 81290008 		lwz 9,8(9)
 4264 0b28 2F89FFFF 		cmpwi 7,9,-1
 4265 0b2c 419E0010 		beq- 7,.L282
 4266 0b30 817E0008 		lwz 11,8(30)
 4267 0b34 7F895800 		cmpw 7,9,11
 4268 0b38 409EFD20 		bne+ 7,.L277
 4269              	.L282:
 4270              	.LVL294:
 4271              		.loc 3 375 0
 4272 0b3c 893F00B4 		lbz 9,180(31)
 4273 0b40 2F890000 		cmpwi 7,9,0
 4274 0b44 41BEFD14 		beq- 7,.L277
 4275              	.LVL295:
 4276              	.L354:
 4277 0b48 2F000001 		cmpwi 6,0,1
 4278 0b4c 2F800003 		cmpwi 7,0,3
 4279 0b50 419A00E4 		beq- 6,.L352
 4280              	.L312:
 4281              	.LVL296:
 4282              	.LBE2506:
 4283              	.LBB2507:
 4284              		.loc 3 381 0
 4285 0b54 409EFF50 		bne+ 7,.L216
 4286              	.LVL297:
 4287              	.L316:
 4288 0b58 801F004C 		lwz 0,76(31)
 4289 0b5c 839E0008 		lwz 28,8(30)
 4290 0b60 7F80E000 		cmpw 7,0,28
 4291 0b64 409EFF40 		bne+ 7,.L216
 4292              	.LBB2483:
 4293              		.loc 3 384 0
 4294 0b68 1C1C0170 		mulli 0,28,368
 4295 0b6c 3D200000 		lis 9,userInput@ha
 4296 0b70 39290000 		la 9,userInput@l(9)
 4297 0b74 7D290214 		add 9,9,0
 4298              		.loc 3 383 0
 4299 0b78 38000000 		li 0,0
 4300              		.loc 3 384 0
 4301 0b7c 8129000C 		lwz 9,12(9)
 4302              		.loc 3 383 0
 4303 0b80 90010008 		stw 0,8(1)
 4304              		.loc 3 384 0
 4305 0b84 2F890000 		cmpwi 7,9,0
 4306              		.loc 3 383 0
 4307 0b88 9001000C 		stw 0,12(1)
 4308              		.loc 3 384 0
 4309 0b8c 419E0030 		beq- 7,.L319
 4310 0b90 800900AC 		lwz 0,172(9)
 4311 0b94 2F800000 		cmpwi 7,0,0
 4312 0b98 419E0024 		beq- 7,.L319
 4313              		.loc 3 386 0
 4314 0b9c C1A900B0 		lfs 13,176(9)
 4315 0ba0 39010008 		addi 8,1,8
 4316              		.loc 3 387 0
 4317 0ba4 C00900B4 		lfs 0,180(9)
 4318 0ba8 3921000C 		addi 9,1,12
 4319              		.loc 3 386 0
 4320 0bac FDA0681E 		fctiwz 13,13
 4321              		.loc 3 387 0
 4322 0bb0 FC00001E 		fctiwz 0,0
 4323              		.loc 3 386 0
 4324 0bb4 7DA047AE 		stfiwx 13,0,8
 4325              		.loc 3 387 0
 4326 0bb8 7C004FAE 		stfiwx 0,0,9
 4327              	.L319:
 4328              	.LVL298:
 4329              	.LBB2484:
 4330              	.LBB2485:
 4331              	.LBB2486:
 4332              	.LBB2487:
 4333              		.loc 1 338 0
 4334 0bbc 813F009C 		lwz 9,156(31)
 4335              	.LBE2487:
 4336              	.LBE2486:
 4337              		.loc 1 2338 0
 4338 0bc0 3B5F009C 		addi 26,31,156
 4339              	.LVL299:
 4340              	.LBB2490:
 4341              	.LBB2488:
 4342              		.loc 1 338 0
 4343 0bc4 7F43D378 		mr 3,26
 4344              	.LBE2488:
 4345              	.LBE2490:
 4346              	.LBE2485:
 4347              		.loc 3 406 0
 4348 0bc8 7FFBFB78 		mr 27,31
 4349              	.LBB2500:
 4350              	.LBB2491:
 4351              	.LBB2489:
 4352              		.loc 1 338 0
 4353 0bcc 80090008 		lwz 0,8(9)
 4354 0bd0 7C0903A6 		mtctr 0
 4355 0bd4 4E800421 		bctrl
 4356              	.LEHE30:
 4357              	.LVL300:
 4358              	.LBE2489:
 4359              	.LBE2491:
 4360              	.LBE2500:
 4361              		.loc 3 406 0
 4362 0bd8 87DB00A0 		lwzu 30,160(27)
 4363              	.LVL301:
 4364              	.LBB2501:
 4365              		.loc 1 2342 0
 4366 0bdc 7F9ED800 		cmpw 7,30,27
 4367 0be0 419E0034 		beq- 7,.L320
 4368 0be4 3BA10008 		addi 29,1,8
 4369              	.LVL302:
 4370              	.L321:
 4371              		.loc 1 2347 0
 4372 0be8 807E0008 		lwz 3,8(30)
 4373 0bec 7FE4FB78 		mr 4,31
 4374 0bf0 7F85E378 		mr 5,28
 4375 0bf4 7FA6EB78 		mr 6,29
 4376 0bf8 81230000 		lwz 9,0(3)
 4377              	.LBB2492:
 4378              	.LBB2493:
 4379              		.loc 4 234 0
 4380 0bfc 83DE0000 		lwz 30,0(30)
 4381              	.LVL303:
 4382              	.LBE2493:
 4383              	.LBE2492:
 4384              		.loc 1 2347 0
 4385 0c00 8009000C 		lwz 0,12(9)
 4386 0c04 7C0903A6 		mtctr 0
 4387              	.LEHB31:
 4388 0c08 4E800421 		bctrl
 4389              	.LEHE31:
 4390              	.LVL304:
 4391              		.loc 1 2342 0
 4392 0c0c 7F9BF000 		cmpw 7,27,30
 4393 0c10 409EFFD8 		bne+ 7,.L321
 4394              	.LVL305:
 4395              	.L320:
 4396              	.LBB2494:
 4397              	.LBB2495:
 4398              	.LBB2496:
 4399              		.loc 1 343 0
 4400 0c14 813F009C 		lwz 9,156(31)
 4401 0c18 7F43D378 		mr 3,26
 4402 0c1c 8009000C 		lwz 0,12(9)
 4403 0c20 7C0903A6 		mtctr 0
 4404              	.LEHB32:
 4405 0c24 4E800421 		bctrl
 4406 0c28 4BFFFE7C 		b .L216
 4407              	.LVL306:
 4408              	.L307:
 4409              	.LBE2496:
 4410              	.LBE2495:
 4411              	.LBE2494:
 4412              	.LBE2501:
 4413              	.LBE2484:
 4414              	.LBE2483:
 4415              	.LBE2507:
 4416              	.LBB2508:
 4417              		.loc 3 365 0
 4418 0c2c 2F800003 		cmpwi 7,0,3
 4419 0c30 41BEFF24 		beq- 7,.L312
 4420              	.LVL307:
 4421              	.L352:
 4422              		.loc 3 376 0
 4423 0c34 813F0000 		lwz 9,0(31)
 4424 0c38 7FE3FB78 		mr 3,31
 4425 0c3c 38800003 		li 4,3
 4426 0c40 80BE0008 		lwz 5,8(30)
 4427 0c44 80090050 		lwz 0,80(9)
 4428 0c48 7C0903A6 		mtctr 0
 4429 0c4c 4E800421 		bctrl
 4430 0c50 801F0048 		lwz 0,72(31)
 4431 0c54 2F800003 		cmpwi 7,0,3
 4432              	.LVL308:
 4433              	.LBE2508:
 4434              	.LBB2509:
 4435              		.loc 3 381 0
 4436 0c58 409EFE4C 		bne+ 7,.L216
 4437 0c5c 4BFFFEFC 		b .L316
 4438              	.LVL309:
 4439              	.L236:
 4440              	.LBE2509:
 4441              	.LBE2514:
 4442              	.LBE2518:
 4443              	.LBB2519:
 4444              	.LBB2450:
 4445              	.LBB2446:
 4446              	.LBB2440:
 4447              	.LBB2372:
 4448              		.loc 3 310 0
 4449 0c60 8149000C 		lwz 10,12(9)
 4450 0c64 800A0014 		lwz 0,20(10)
 4451 0c68 7FA80039 		and. 8,29,0
 4452 0c6c 41820204 		beq- 0,.L231
 4453              	.L235:
 4454              	.LBB2373:
 4455              		.loc 3 312 0
 4456 0c70 801F0048 		lwz 0,72(31)
 4457 0c74 2F800001 		cmpwi 7,0,1
 4458 0c78 419E0270 		beq- 7,.L232
 4459              	.LBB2374:
 4460              		.loc 3 330 0
 4461 0c7c 88090004 		lbz 0,4(9)
 4462 0c80 2F800002 		cmpwi 7,0,2
 4463 0c84 409EFADC 		bne+ 7,.L229
 4464              	.LVL310:
 4465              	.L233:
 4466              	.LBB2375:
 4467              		.loc 3 333 0
 4468 0c88 837E0008 		lwz 27,8(30)
 4469 0c8c 3D600000 		lis 11,userInput@ha
 4470 0c90 396B0000 		la 11,userInput@l(11)
 4471              		.loc 3 332 0
 4472 0c94 38000000 		li 0,0
 4473              		.loc 3 333 0
 4474 0c98 1D3B0170 		mulli 9,27,368
 4475              		.loc 3 332 0
 4476 0c9c 90010008 		stw 0,8(1)
 4477 0ca0 9001000C 		stw 0,12(1)
 4478              		.loc 3 333 0
 4479 0ca4 7D2B4A14 		add 9,11,9
 4480 0ca8 8129000C 		lwz 9,12(9)
 4481 0cac 2F890000 		cmpwi 7,9,0
 4482 0cb0 419E0030 		beq- 7,.L272
 4483              		.loc 3 335 0
 4484 0cb4 800900AC 		lwz 0,172(9)
 4485 0cb8 2F800000 		cmpwi 7,0,0
 4486 0cbc 419E0024 		beq- 7,.L272
 4487              		.loc 3 337 0
 4488 0cc0 C1A900B0 		lfs 13,176(9)
 4489 0cc4 39010008 		addi 8,1,8
 4490              		.loc 3 338 0
 4491 0cc8 C00900B4 		lfs 0,180(9)
 4492 0ccc 3921000C 		addi 9,1,12
 4493              		.loc 3 337 0
 4494 0cd0 FDA0681E 		fctiwz 13,13
 4495              		.loc 3 338 0
 4496 0cd4 FC00001E 		fctiwz 0,0
 4497              		.loc 3 337 0
 4498 0cd8 7DA047AE 		stfiwx 13,0,8
 4499              		.loc 3 338 0
 4500 0cdc 7C004FAE 		stfiwx 0,0,9
 4501              	.L272:
 4502              	.LVL311:
 4503              	.LBB2376:
 4504              	.LBB2377:
 4505              	.LBB2378:
 4506              	.LBB2379:
 4507              		.loc 1 338 0
 4508 0ce0 813F0090 		lwz 9,144(31)
 4509              	.LBE2379:
 4510              	.LBE2378:
 4511              		.loc 1 2338 0
 4512 0ce4 3B5F0090 		addi 26,31,144
 4513              	.LVL312:
 4514              	.LBB2382:
 4515              	.LBB2380:
 4516              		.loc 1 338 0
 4517 0ce8 7F43D378 		mr 3,26
 4518              	.LBE2380:
 4519              	.LBE2382:
 4520              	.LBE2377:
 4521              		.loc 3 406 0
 4522 0cec 7FFCFB78 		mr 28,31
 4523              	.LBB2392:
 4524              	.LBB2383:
 4525              	.LBB2381:
 4526              		.loc 1 338 0
 4527 0cf0 80090008 		lwz 0,8(9)
 4528 0cf4 7C0903A6 		mtctr 0
 4529 0cf8 4E800421 		bctrl
 4530              	.LEHE32:
 4531              	.LVL313:
 4532              	.LBE2381:
 4533              	.LBE2383:
 4534              	.LBE2392:
 4535              		.loc 3 406 0
 4536 0cfc 87DC0094 		lwzu 30,148(28)
 4537              	.LVL314:
 4538              	.LBB2393:
 4539              		.loc 1 2342 0
 4540 0d00 7F9EE000 		cmpw 7,30,28
 4541 0d04 419E0034 		beq- 7,.L273
 4542 0d08 3BA10008 		addi 29,1,8
 4543              	.LVL315:
 4544              	.L274:
 4545              		.loc 1 2347 0
 4546 0d0c 807E0008 		lwz 3,8(30)
 4547 0d10 7FE4FB78 		mr 4,31
 4548 0d14 7F65DB78 		mr 5,27
 4549 0d18 7FA6EB78 		mr 6,29
 4550 0d1c 81230000 		lwz 9,0(3)
 4551              	.LBB2384:
 4552              	.LBB2385:
 4553              		.loc 4 234 0
 4554 0d20 83DE0000 		lwz 30,0(30)
 4555              	.LVL316:
 4556              	.LBE2385:
 4557              	.LBE2384:
 4558              		.loc 1 2347 0
 4559 0d24 8009000C 		lwz 0,12(9)
 4560 0d28 7C0903A6 		mtctr 0
 4561              	.LEHB33:
 4562 0d2c 4E800421 		bctrl
 4563              	.LEHE33:
 4564              	.LVL317:
 4565              		.loc 1 2342 0
 4566 0d30 7F9CF000 		cmpw 7,28,30
 4567 0d34 409EFFD8 		bne+ 7,.L274
 4568              	.LVL318:
 4569              	.L273:
 4570              	.LBB2386:
 4571              	.LBB2387:
 4572              	.LBB2388:
 4573              		.loc 1 343 0
 4574 0d38 813F0090 		lwz 9,144(31)
 4575 0d3c 7F43D378 		mr 3,26
 4576 0d40 8009000C 		lwz 0,12(9)
 4577 0d44 7C0903A6 		mtctr 0
 4578              	.LEHB34:
 4579 0d48 4E800421 		bctrl
 4580 0d4c 4BFFFD58 		b .L216
 4581              	.LVL319:
 4582              	.L242:
 4583              	.LBE2388:
 4584              	.LBE2387:
 4585              	.LBE2386:
 4586              	.LBE2393:
 4587              	.LBE2376:
 4588              	.LBE2375:
 4589              	.LBE2374:
 4590              	.LBE2373:
 4591              		.loc 3 310 0
 4592 0d50 8169000C 		lwz 11,12(9)
 4593 0d54 800B0014 		lwz 0,20(11)
 4594 0d58 7FAA0039 		and. 10,29,0
 4595 0d5c 41820128 		beq- 0,.L239
 4596              	.L241:
 4597              	.LBB2427:
 4598              		.loc 3 312 0
 4599 0d60 801F0048 		lwz 0,72(31)
 4600 0d64 2F800001 		cmpwi 7,0,1
 4601 0d68 419E026C 		beq- 7,.L240
 4602              	.LBB2397:
 4603              		.loc 3 330 0
 4604 0d6c 88090004 		lbz 0,4(9)
 4605 0d70 2F800002 		cmpwi 7,0,2
 4606 0d74 409EFA10 		bne+ 7,.L237
 4607 0d78 4BFFFF10 		b .L233
 4608              	.LVL320:
 4609              	.L248:
 4610              	.LBE2397:
 4611              	.LBE2427:
 4612              		.loc 3 310 0
 4613 0d7c 8169000C 		lwz 11,12(9)
 4614 0d80 800B0014 		lwz 0,20(11)
 4615 0d84 7FAA0039 		and. 10,29,0
 4616 0d88 41820110 		beq- 0,.L245
 4617              	.L247:
 4618              	.LBB2428:
 4619              		.loc 3 312 0
 4620 0d8c 801F0048 		lwz 0,72(31)
 4621 0d90 2F800001 		cmpwi 7,0,1
 4622 0d94 419E0298 		beq- 7,.L246
 4623              	.LBB2398:
 4624              		.loc 3 330 0
 4625 0d98 88090004 		lbz 0,4(9)
 4626 0d9c 2F800002 		cmpwi 7,0,2
 4627 0da0 409EFA08 		bne+ 7,.L243
 4628 0da4 4BFFFEE4 		b .L233
 4629              	.LVL321:
 4630              	.L254:
 4631              	.LBE2398:
 4632              	.LBE2428:
 4633              		.loc 3 310 0
 4634 0da8 8169000C 		lwz 11,12(9)
 4635 0dac 800B0014 		lwz 0,20(11)
 4636 0db0 7FAA0039 		and. 10,29,0
 4637 0db4 418200F8 		beq- 0,.L251
 4638              	.L253:
 4639              	.LBB2429:
 4640              		.loc 3 312 0
 4641 0db8 801F0048 		lwz 0,72(31)
 4642 0dbc 2F800001 		cmpwi 7,0,1
 4643 0dc0 419E02C4 		beq- 7,.L252
 4644              	.LBB2399:
 4645              		.loc 3 330 0
 4646 0dc4 88090004 		lbz 0,4(9)
 4647 0dc8 2F800002 		cmpwi 7,0,2
 4648 0dcc 409EFA00 		bne+ 7,.L249
 4649 0dd0 4BFFFEB8 		b .L233
 4650              	.LVL322:
 4651              	.L260:
 4652              	.LBE2399:
 4653              	.LBE2429:
 4654              		.loc 3 310 0
 4655 0dd4 8169000C 		lwz 11,12(9)
 4656 0dd8 800B0014 		lwz 0,20(11)
 4657 0ddc 7FAA0039 		and. 10,29,0
 4658 0de0 418200E0 		beq- 0,.L257
 4659              	.L259:
 4660              	.LBB2430:
 4661              		.loc 3 312 0
 4662 0de4 801F0048 		lwz 0,72(31)
 4663 0de8 2F800001 		cmpwi 7,0,1
 4664 0dec 419E02F0 		beq- 7,.L258
 4665              	.LBB2400:
 4666              		.loc 3 330 0
 4667 0df0 88090004 		lbz 0,4(9)
 4668 0df4 2F800002 		cmpwi 7,0,2
 4669 0df8 409EF9F8 		bne+ 7,.L255
 4670 0dfc 4BFFFE8C 		b .L233
 4671              	.LVL323:
 4672              	.L262:
 4673              	.LBE2400:
 4674              	.LBE2430:
 4675              		.loc 3 310 0
 4676 0e00 8169000C 		lwz 11,12(9)
 4677 0e04 800B0014 		lwz 0,20(11)
 4678 0e08 7FAA0039 		and. 10,29,0
 4679 0e0c 418200C8 		beq- 0,.L371
 4680              	.L263:
 4681              	.LBB2431:
 4682              		.loc 3 312 0
 4683 0e10 801F0048 		lwz 0,72(31)
 4684 0e14 2F800001 		cmpwi 7,0,1
 4685 0e18 419E031C 		beq- 7,.L372
 4686              	.LBB2401:
 4687              		.loc 3 330 0
 4688 0e1c 88090004 		lbz 0,4(9)
 4689 0e20 2F800002 		cmpwi 7,0,2
 4690 0e24 409EF9F0 		bne+ 7,.L228
 4691 0e28 4BFFFE60 		b .L233
 4692              	.LVL324:
 4693              	.L220:
 4694              	.LBE2401:
 4695              	.LBE2431:
 4696              	.LBE2372:
 4697              	.LBE2440:
 4698              	.LBE2446:
 4699              	.LBE2450:
 4700              	.LBE2519:
 4701              		.loc 3 287 0
 4702 0e2c 2F800001 		cmpwi 7,0,1
 4703 0e30 419E044C 		beq- 7,.L373
 4704              	.L226:
 4705              		.loc 3 290 0
 4706 0e34 813F0080 		lwz 9,128(31)
 4707 0e38 801F008C 		lwz 0,140(31)
 4708 0e3c 7F890000 		cmpw 7,9,0
 4709 0e40 409EF8E8 		bne+ 7,.L219
 4710 0e44 801F007C 		lwz 0,124(31)
 4711 0e48 813F0088 		lwz 9,136(31)
 4712 0e4c 7F804800 		cmpw 7,0,9
 4713 0e50 409EF8D8 		bne+ 7,.L219
 4714              		.loc 3 294 0
 4715 0e54 7C0000D0 		neg 0,0
 4716              		.loc 3 293 0
 4717 0e58 813F0084 		lwz 9,132(31)
 4718              		.loc 3 294 0
 4719 0e5c 901F007C 		stw 0,124(31)
 4720              		.loc 3 295 0
 4721 0e60 38000064 		li 0,100
 4722              		.loc 3 293 0
 4723 0e64 913F0078 		stw 9,120(31)
 4724              		.loc 3 295 0
 4725 0e68 901F0080 		stw 0,128(31)
 4726 0e6c 4BFFF8BC 		b .L219
 4727              	.LVL325:
 4728              	.L231:
 4729              	.LBB2520:
 4730              	.LBB2451:
 4731              	.LBB2447:
 4732              	.LBB2441:
 4733              	.LBB2435:
 4734              		.loc 3 310 0
 4735 0e70 A0090164 		lhz 0,356(9)
 4736 0e74 A15E0164 		lhz 10,356(30)
 4737 0e78 7D480039 		and. 8,10,0
 4738 0e7c 40A2FDF4 		bne- 0,.L235
 4739 0e80 4BFFF8E0 		b .L229
 4740              	.LVL326:
 4741              	.L239:
 4742 0e84 A0090164 		lhz 0,356(9)
 4743 0e88 A17E0164 		lhz 11,356(30)
 4744 0e8c 7D680039 		and. 8,11,0
 4745 0e90 40A2FED0 		bne- 0,.L241
 4746 0e94 4BFFF8F0 		b .L237
 4747              	.LVL327:
 4748              	.L245:
 4749 0e98 A0090164 		lhz 0,356(9)
 4750 0e9c A17E0164 		lhz 11,356(30)
 4751 0ea0 7D680039 		and. 8,11,0
 4752 0ea4 40A2FEE8 		bne- 0,.L247
 4753 0ea8 4BFFF900 		b .L243
 4754              	.LVL328:
 4755              	.L251:
 4756 0eac A0090164 		lhz 0,356(9)
 4757 0eb0 A17E0164 		lhz 11,356(30)
 4758 0eb4 7D680039 		and. 8,11,0
 4759 0eb8 40A2FF00 		bne- 0,.L253
 4760 0ebc 4BFFF910 		b .L249
 4761              	.LVL329:
 4762              	.L257:
 4763 0ec0 A0090164 		lhz 0,356(9)
 4764 0ec4 A17E0164 		lhz 11,356(30)
 4765 0ec8 7D680039 		and. 8,11,0
 4766 0ecc 40A2FF18 		bne- 0,.L259
 4767 0ed0 4BFFF920 		b .L255
 4768              	.LVL330:
 4769              	.L371:
 4770 0ed4 A0090164 		lhz 0,356(9)
 4771 0ed8 A17E0164 		lhz 11,356(30)
 4772 0edc 7D680039 		and. 8,11,0
 4773 0ee0 41A2F934 		beq- 0,.L228
 4774 0ee4 4BFFFF2C 		b .L263
 4775              	.LVL331:
 4776              	.L232:
 4777              	.LBB2432:
 4778              	.LBB2402:
 4779              		.loc 3 314 0
 4780 0ee8 800B00AC 		lwz 0,172(11)
 4781 0eec 2F800000 		cmpwi 7,0,0
 4782 0ef0 409E03C8 		bne- 7,.L374
 4783              	.LVL332:
 4784              	.L234:
 4785              	.LBB2403:
 4786              		.loc 3 316 0
 4787 0ef4 807F0110 		lwz 3,272(31)
 4788 0ef8 2F830000 		cmpwi 7,3,0
 4789 0efc 419E0008 		beq- 7,.L265
 4790              		.loc 3 317 0
 4791 0f00 48000001 		bl _ZN8GuiSound4PlayEv
 4792              	.L265:
 4793              		.loc 3 320 0
 4794 0f04 837E0008 		lwz 27,8(30)
 4795 0f08 3D600000 		lis 11,userInput@ha
 4796 0f0c 396B0000 		la 11,userInput@l(11)
 4797              		.loc 3 319 0
 4798 0f10 38000000 		li 0,0
 4799              		.loc 3 320 0
 4800 0f14 1D3B0170 		mulli 9,27,368
 4801              		.loc 3 319 0
 4802 0f18 90010008 		stw 0,8(1)
 4803 0f1c 9001000C 		stw 0,12(1)
 4804              		.loc 3 320 0
 4805 0f20 7D2B4A14 		add 9,11,9
 4806 0f24 8129000C 		lwz 9,12(9)
 4807 0f28 2F890000 		cmpwi 7,9,0
 4808 0f2c 419E0030 		beq- 7,.L266
 4809 0f30 800900AC 		lwz 0,172(9)
 4810 0f34 2F800000 		cmpwi 7,0,0
 4811 0f38 419E0024 		beq- 7,.L266
 4812              		.loc 3 322 0
 4813 0f3c C1A900B0 		lfs 13,176(9)
 4814 0f40 39010008 		addi 8,1,8
 4815              		.loc 3 323 0
 4816 0f44 C00900B4 		lfs 0,180(9)
 4817 0f48 3921000C 		addi 9,1,12
 4818              		.loc 3 322 0
 4819 0f4c FDA0681E 		fctiwz 13,13
 4820              		.loc 3 323 0
 4821 0f50 FC00001E 		fctiwz 0,0
 4822              		.loc 3 322 0
 4823 0f54 7DA047AE 		stfiwx 13,0,8
 4824              		.loc 3 323 0
 4825 0f58 7C004FAE 		stfiwx 0,0,9
 4826              	.L266:
 4827              	.LVL333:
 4828              	.LBB2404:
 4829              	.LBB2405:
 4830              	.LBB2406:
 4831              	.LBB2407:
 4832              		.loc 1 338 0
 4833 0f5c 813F0090 		lwz 9,144(31)
 4834              	.LBE2407:
 4835              	.LBE2406:
 4836              		.loc 1 2338 0
 4837 0f60 3B5F0090 		addi 26,31,144
 4838              	.LVL334:
 4839              	.LBB2410:
 4840              	.LBB2408:
 4841              		.loc 1 338 0
 4842 0f64 7F43D378 		mr 3,26
 4843              	.LBE2408:
 4844              	.LBE2410:
 4845              	.LBE2405:
 4846              		.loc 3 406 0
 4847 0f68 7FFCFB78 		mr 28,31
 4848              	.LBB2420:
 4849              	.LBB2411:
 4850              	.LBB2409:
 4851              		.loc 1 338 0
 4852 0f6c 80090008 		lwz 0,8(9)
 4853 0f70 7C0903A6 		mtctr 0
 4854 0f74 4E800421 		bctrl
 4855              	.LEHE34:
 4856              	.LVL335:
 4857              	.LBE2409:
 4858              	.LBE2411:
 4859              	.LBE2420:
 4860              		.loc 3 406 0
 4861 0f78 87DC0094 		lwzu 30,148(28)
 4862              	.LVL336:
 4863              	.LBB2421:
 4864              		.loc 1 2342 0
 4865 0f7c 7F9EE000 		cmpw 7,30,28
 4866 0f80 419E0034 		beq- 7,.L267
 4867 0f84 3BA10008 		addi 29,1,8
 4868              	.LVL337:
 4869              	.L268:
 4870              		.loc 1 2347 0
 4871 0f88 807E0008 		lwz 3,8(30)
 4872 0f8c 7FE4FB78 		mr 4,31
 4873 0f90 7F65DB78 		mr 5,27
 4874 0f94 7FA6EB78 		mr 6,29
 4875 0f98 81230000 		lwz 9,0(3)
 4876              	.LBB2412:
 4877              	.LBB2413:
 4878              		.loc 4 234 0
 4879 0f9c 83DE0000 		lwz 30,0(30)
 4880              	.LVL338:
 4881              	.LBE2413:
 4882              	.LBE2412:
 4883              		.loc 1 2347 0
 4884 0fa0 8009000C 		lwz 0,12(9)
 4885 0fa4 7C0903A6 		mtctr 0
 4886              	.LEHB35:
 4887 0fa8 4E800421 		bctrl
 4888              	.LEHE35:
 4889              	.LVL339:
 4890              		.loc 1 2342 0
 4891 0fac 7F9CF000 		cmpw 7,28,30
 4892 0fb0 409EFFD8 		bne+ 7,.L268
 4893              	.LVL340:
 4894              	.L267:
 4895              	.LBB2414:
 4896              	.LBB2415:
 4897              	.LBB2416:
 4898              		.loc 1 343 0
 4899 0fb4 813F0090 		lwz 9,144(31)
 4900 0fb8 7F43D378 		mr 3,26
 4901 0fbc 8009000C 		lwz 0,12(9)
 4902 0fc0 7C0903A6 		mtctr 0
 4903              	.LEHB36:
 4904 0fc4 4E800421 		bctrl
 4905              	.LBE2416:
 4906              	.LBE2415:
 4907              	.LBE2414:
 4908              	.LBE2421:
 4909              	.LBE2404:
 4910              		.loc 3 326 0
 4911 0fc8 38000001 		li 0,1
 4912 0fcc 981F00B4 		stb 0,180(31)
 4913 0fd0 4BFFFAD4 		b .L216
 4914              	.LVL341:
 4915              	.L240:
 4916              	.LBE2403:
 4917              		.loc 3 314 0
 4918 0fd4 813E000C 		lwz 9,12(30)
 4919 0fd8 800900AC 		lwz 0,172(9)
 4920 0fdc 2F800000 		cmpwi 7,0,0
 4921 0fe0 419EFF14 		beq+ 7,.L234
 4922 0fe4 C1A900B0 		lfs 13,176(9)
 4923 0fe8 39610038 		addi 11,1,56
 4924 0fec C00900B4 		lfs 0,180(9)
 4925 0ff0 3901003C 		addi 8,1,60
 4926 0ff4 FDA0681E 		fctiwz 13,13
 4927 0ff8 813F0000 		lwz 9,0(31)
 4928 0ffc FC00001E 		fctiwz 0,0
 4929 1000 7FE3FB78 		mr 3,31
 4930 1004 800900A4 		lwz 0,164(9)
 4931 1008 7DA05FAE 		stfiwx 13,0,11
 4932 100c 7C0047AE 		stfiwx 0,0,8
 4933 1010 7C0903A6 		mtctr 0
 4934 1014 80810038 		lwz 4,56(1)
 4935 1018 80A1003C 		lwz 5,60(1)
 4936 101c 4E800421 		bctrl
 4937 1020 2F830000 		cmpwi 7,3,0
 4938 1024 40BEFED0 		bne- 7,.L234
 4939 1028 4BFFF75C 		b .L237
 4940              	.LVL342:
 4941              	.L246:
 4942 102c 813E000C 		lwz 9,12(30)
 4943 1030 800900AC 		lwz 0,172(9)
 4944 1034 2F800000 		cmpwi 7,0,0
 4945 1038 419EFEBC 		beq+ 7,.L234
 4946 103c C1A900B0 		lfs 13,176(9)
 4947 1040 39610030 		addi 11,1,48
 4948 1044 C00900B4 		lfs 0,180(9)
 4949 1048 39010034 		addi 8,1,52
 4950 104c FDA0681E 		fctiwz 13,13
 4951 1050 813F0000 		lwz 9,0(31)
 4952 1054 FC00001E 		fctiwz 0,0
 4953 1058 7FE3FB78 		mr 3,31
 4954 105c 800900A4 		lwz 0,164(9)
 4955 1060 7DA05FAE 		stfiwx 13,0,11
 4956 1064 7C0047AE 		stfiwx 0,0,8
 4957 1068 7C0903A6 		mtctr 0
 4958 106c 80810030 		lwz 4,48(1)
 4959 1070 80A10034 		lwz 5,52(1)
 4960 1074 4E800421 		bctrl
 4961 1078 2F830000 		cmpwi 7,3,0
 4962 107c 40BEFE78 		bne- 7,.L234
 4963 1080 4BFFF728 		b .L243
 4964              	.LVL343:
 4965              	.L252:
 4966 1084 813E000C 		lwz 9,12(30)
 4967 1088 800900AC 		lwz 0,172(9)
 4968 108c 2F800000 		cmpwi 7,0,0
 4969 1090 419EFE64 		beq+ 7,.L234
 4970 1094 C1A900B0 		lfs 13,176(9)
 4971 1098 39610028 		addi 11,1,40
 4972 109c C00900B4 		lfs 0,180(9)
 4973 10a0 3901002C 		addi 8,1,44
 4974 10a4 FDA0681E 		fctiwz 13,13
 4975 10a8 813F0000 		lwz 9,0(31)
 4976 10ac FC00001E 		fctiwz 0,0
 4977 10b0 7FE3FB78 		mr 3,31
 4978 10b4 800900A4 		lwz 0,164(9)
 4979 10b8 7DA05FAE 		stfiwx 13,0,11
 4980 10bc 7C0047AE 		stfiwx 0,0,8
 4981 10c0 7C0903A6 		mtctr 0
 4982 10c4 80810028 		lwz 4,40(1)
 4983 10c8 80A1002C 		lwz 5,44(1)
 4984 10cc 4E800421 		bctrl
 4985 10d0 2F830000 		cmpwi 7,3,0
 4986 10d4 40BEFE20 		bne- 7,.L234
 4987 10d8 4BFFF6F4 		b .L249
 4988              	.LVL344:
 4989              	.L258:
 4990 10dc 813E000C 		lwz 9,12(30)
 4991 10e0 800900AC 		lwz 0,172(9)
 4992 10e4 2F800000 		cmpwi 7,0,0
 4993 10e8 419EFE0C 		beq+ 7,.L234
 4994 10ec C1A900B0 		lfs 13,176(9)
 4995 10f0 39610020 		addi 11,1,32
 4996 10f4 C00900B4 		lfs 0,180(9)
 4997 10f8 39010024 		addi 8,1,36
 4998 10fc FDA0681E 		fctiwz 13,13
 4999 1100 813F0000 		lwz 9,0(31)
 5000 1104 FC00001E 		fctiwz 0,0
 5001 1108 7FE3FB78 		mr 3,31
 5002 110c 800900A4 		lwz 0,164(9)
 5003 1110 7DA05FAE 		stfiwx 13,0,11
 5004 1114 7C0047AE 		stfiwx 0,0,8
 5005 1118 7C0903A6 		mtctr 0
 5006 111c 80810020 		lwz 4,32(1)
 5007 1120 80A10024 		lwz 5,36(1)
 5008 1124 4E800421 		bctrl
 5009 1128 2F830000 		cmpwi 7,3,0
 5010 112c 40BEFDC8 		bne- 7,.L234
 5011 1130 4BFFF6C0 		b .L255
 5012              	.LVL345:
 5013              	.L372:
 5014 1134 813E000C 		lwz 9,12(30)
 5015 1138 800900AC 		lwz 0,172(9)
 5016 113c 2F800000 		cmpwi 7,0,0
 5017 1140 419EFDB4 		beq+ 7,.L234
 5018 1144 C1A900B0 		lfs 13,176(9)
 5019 1148 3941001C 		addi 10,1,28
 5020 114c C00900B4 		lfs 0,180(9)
 5021 1150 7FE3FB78 		mr 3,31
 5022 1154 813F0000 		lwz 9,0(31)
 5023 1158 FDA0681E 		fctiwz 13,13
 5024 115c FC00001E 		fctiwz 0,0
 5025 1160 800900A4 		lwz 0,164(9)
 5026 1164 39210018 		addi 9,1,24
 5027 1168 7DA04FAE 		stfiwx 13,0,9
 5028 116c 7C0057AE 		stfiwx 0,0,10
 5029 1170 7C0903A6 		mtctr 0
 5030 1174 80810018 		lwz 4,24(1)
 5031 1178 80A1001C 		lwz 5,28(1)
 5032 117c 4E800421 		bctrl
 5033 1180 2F830000 		cmpwi 7,3,0
 5034 1184 41BEF690 		beq- 7,.L228
 5035 1188 4BFFFD6C 		b .L234
 5036              	.LVL346:
 5037              	.L313:
 5038              	.LBE2402:
 5039              	.LBE2432:
 5040              	.LBE2435:
 5041              	.LBE2441:
 5042              	.LBE2447:
 5043              	.LBE2451:
 5044              	.LBE2520:
 5045              	.LBB2521:
 5046              	.LBB2515:
 5047              	.LBB2510:
 5048              		.loc 3 362 0
 5049 118c 89690004 		lbz 11,4(9)
 5050 1190 2F8B0003 		cmpwi 7,11,3
 5051 1194 419E0034 		beq- 7,.L375
 5052              		.loc 3 370 0
 5053 1198 2F8B0001 		cmpwi 7,11,1
 5054 119c 409EF810 		bne+ 7,.L314
 5055 11a0 81290008 		lwz 9,8(9)
 5056 11a4 2F89FFFF 		cmpwi 7,9,-1
 5057 11a8 419E0010 		beq- 7,.L317
 5058 11ac 817E0008 		lwz 11,8(30)
 5059 11b0 7F895800 		cmpw 7,9,11
 5060 11b4 409EF7F8 		bne+ 7,.L314
 5061              	.L317:
 5062              	.LVL347:
 5063              		.loc 3 375 0
 5064 11b8 893F00B4 		lbz 9,180(31)
 5065 11bc 2F890000 		cmpwi 7,9,0
 5066 11c0 41BEF7EC 		beq- 7,.L314
 5067 11c4 4BFFF984 		b .L354
 5068              	.LVL348:
 5069              	.L375:
 5070              		.loc 3 365 0
 5071 11c8 2F800003 		cmpwi 7,0,3
 5072 11cc 40BEFA68 		bne- 7,.L352
 5073 11d0 4BFFF988 		b .L316
 5074              	.LVL349:
 5075              	.L365:
 5076              	.LBE2510:
 5077              	.LBE2515:
 5078              	.LBE2521:
 5079              		.loc 3 263 0
 5080 11d4 80BE0008 		lwz 5,8(30)
 5081 11d8 4BFFF4C8 		b .L222
 5082              	.LVL350:
 5083              	.L370:
 5084              	.LBB2522:
 5085              	.LBB2516:
 5086              	.LBB2511:
 5087              		.loc 3 370 0
 5088 11dc 81290008 		lwz 9,8(9)
 5089 11e0 2F89FFFF 		cmpwi 7,9,-1
 5090 11e4 419E0010 		beq- 7,.L310
 5091 11e8 817E0008 		lwz 11,8(30)
 5092 11ec 7F895800 		cmpw 7,9,11
 5093 11f0 409EF788 		bne+ 7,.L308
 5094              	.L310:
 5095              	.LVL351:
 5096              		.loc 3 375 0
 5097 11f4 893F00B4 		lbz 9,180(31)
 5098 11f8 2F890000 		cmpwi 7,9,0
 5099 11fc 41BEF77C 		beq- 7,.L308
 5100 1200 4BFFF948 		b .L354
 5101              	.LVL352:
 5102              	.L368:
 5103              		.loc 3 370 0
 5104 1204 81290008 		lwz 9,8(9)
 5105 1208 2F89FFFF 		cmpwi 7,9,-1
 5106 120c 419E0010 		beq- 7,.L296
 5107 1210 817E0008 		lwz 11,8(30)
 5108 1214 7F895800 		cmpw 7,9,11
 5109 1218 409EF6D0 		bne+ 7,.L294
 5110              	.L296:
 5111              	.LVL353:
 5112              		.loc 3 375 0
 5113 121c 893F00B4 		lbz 9,180(31)
 5114 1220 2F890000 		cmpwi 7,9,0
 5115 1224 41BEF6C4 		beq- 7,.L294
 5116 1228 4BFFF920 		b .L354
 5117              	.LVL354:
 5118              	.L369:
 5119              		.loc 3 370 0
 5120 122c 81290008 		lwz 9,8(9)
 5121 1230 2F89FFFF 		cmpwi 7,9,-1
 5122 1234 419E0010 		beq- 7,.L303
 5123 1238 817E0008 		lwz 11,8(30)
 5124 123c 7F895800 		cmpw 7,9,11
 5125 1240 409EF6F0 		bne+ 7,.L301
 5126              	.L303:
 5127              	.LVL355:
 5128              		.loc 3 375 0
 5129 1244 893F00B4 		lbz 9,180(31)
 5130 1248 2F890000 		cmpwi 7,9,0
 5131 124c 41BEF6E4 		beq- 7,.L301
 5132 1250 4BFFF8F8 		b .L354
 5133              	.LVL356:
 5134              	.L367:
 5135              		.loc 3 370 0
 5136 1254 81290008 		lwz 9,8(9)
 5137 1258 2F89FFFF 		cmpwi 7,9,-1
 5138 125c 419E0010 		beq- 7,.L289
 5139 1260 817E0008 		lwz 11,8(30)
 5140 1264 7F895800 		cmpw 7,9,11
 5141 1268 409EF638 		bne+ 7,.L284
 5142              	.L289:
 5143              	.LVL357:
 5144              		.loc 3 375 0
 5145 126c 893F00B4 		lbz 9,180(31)
 5146 1270 2F890000 		cmpwi 7,9,0
 5147 1274 41BEF62C 		beq- 7,.L284
 5148 1278 4BFFF8D0 		b .L354
 5149              	.LVL358:
 5150              	.L373:
 5151              	.LBE2511:
 5152              	.LBE2516:
 5153              	.LBE2522:
 5154              		.loc 3 287 0
 5155 127c 801F004C 		lwz 0,76(31)
 5156 1280 813E0008 		lwz 9,8(30)
 5157 1284 7F804800 		cmpw 7,0,9
 5158 1288 419E000C 		beq- 7,.L227
 5159 128c 2F80FFFF 		cmpwi 7,0,-1
 5160 1290 409EFBA4 		bne+ 7,.L226
 5161              	.L227:
 5162              		.loc 3 288 0
 5163 1294 813F0000 		lwz 9,0(31)
 5164 1298 7FE3FB78 		mr 3,31
 5165 129c 8009005C 		lwz 0,92(9)
 5166 12a0 7C0903A6 		mtctr 0
 5167 12a4 4E800421 		bctrl
 5168 12a8 4BFFFB8C 		b .L226
 5169              	.L366:
 5170              		.loc 3 268 0
 5171 12ac 807E0008 		lwz 3,8(30)
 5172 12b0 48000001 		bl _Z13RequestRumblei
 5173 12b4 4BFFF420 		b .L223
 5174              	.LVL359:
 5175              	.L374:
 5176              	.LBB2523:
 5177              	.LBB2452:
 5178              	.LBB2448:
 5179              	.LBB2442:
 5180              	.LBB2436:
 5181              	.LBB2433:
 5182              	.LBB2425:
 5183              		.loc 3 314 0
 5184 12b8 C1AB00B0 		lfs 13,176(11)
 5185 12bc 39410044 		addi 10,1,68
 5186 12c0 C00B00B4 		lfs 0,180(11)
 5187 12c4 7FE3FB78 		mr 3,31
 5188 12c8 813F0000 		lwz 9,0(31)
 5189 12cc FDA0681E 		fctiwz 13,13
 5190 12d0 FC00001E 		fctiwz 0,0
 5191 12d4 800900A4 		lwz 0,164(9)
 5192 12d8 39210040 		addi 9,1,64
 5193 12dc 7DA04FAE 		stfiwx 13,0,9
 5194 12e0 7C0057AE 		stfiwx 0,0,10
 5195 12e4 7C0903A6 		mtctr 0
 5196 12e8 80810040 		lwz 4,64(1)
 5197 12ec 80A10044 		lwz 5,68(1)
 5198 12f0 4E800421 		bctrl
 5199              	.LEHE36:
 5200 12f4 2F830000 		cmpwi 7,3,0
 5201 12f8 40BEFBFC 		bne- 7,.L234
 5202 12fc 4BFFF464 		b .L229
 5203              	.LVL360:
 5204              	.L341:
 5205              	.LBB2424:
 5206              	.LBB2423:
 5207              	.LBB2422:
 5208              	.LBB2417:
 5209              	.LBB2418:
 5210              	.LBB2419:
 5211              		.loc 1 343 0
 5212 1300 813F0090 		lwz 9,144(31)
 5213 1304 7C7F1B78 		mr 31,3
 5214              	.LVL361:
 5215 1308 7F43D378 		mr 3,26
 5216 130c 8009000C 		lwz 0,12(9)
 5217 1310 7C0903A6 		mtctr 0
 5218 1314 4E800421 		bctrl
 5219 1318 7FE3FB78 		mr 3,31
 5220              	.LEHB37:
 5221 131c 48000001 		bl _Unwind_Resume
 5222              	.LEHE37:
 5223              	.LVL362:
 5224              	.L344:
 5225              	.LBE2419:
 5226              	.LBE2418:
 5227              	.LBE2417:
 5228              	.LBE2422:
 5229              	.LBE2423:
 5230              	.LBE2424:
 5231              	.LBE2425:
 5232              	.LBE2433:
 5233              	.LBE2436:
 5234              	.LBE2442:
 5235              	.LBE2448:
 5236              	.LBE2452:
 5237              	.LBE2523:
 5238              	.LBB2524:
 5239              	.LBB2517:
 5240              	.LBB2512:
 5241              	.LBB2504:
 5242              	.LBB2482:
 5243              	.LBB2481:
 5244              	.LBB2478:
 5245              	.LBB2472:
 5246              	.LBB2473:
 5247              	.LBB2474:
 5248 1320 813F00A8 		lwz 9,168(31)
 5249 1324 7C7F1B78 		mr 31,3
 5250              	.LVL363:
 5251 1328 7F43D378 		mr 3,26
 5252 132c 8009000C 		lwz 0,12(9)
 5253 1330 7C0903A6 		mtctr 0
 5254 1334 4E800421 		bctrl
 5255 1338 7FE3FB78 		mr 3,31
 5256              	.LEHB38:
 5257 133c 48000001 		bl _Unwind_Resume
 5258              	.LEHE38:
 5259              	.LVL364:
 5260              	.L343:
 5261              	.LBE2474:
 5262              	.LBE2473:
 5263              	.LBE2472:
 5264              	.LBE2478:
 5265              	.LBE2481:
 5266              	.LBE2482:
 5267              	.LBE2504:
 5268              	.LBB2505:
 5269              	.LBB2503:
 5270              	.LBB2502:
 5271              	.LBB2497:
 5272              	.LBB2498:
 5273              	.LBB2499:
 5274 1340 813F009C 		lwz 9,156(31)
 5275 1344 7C7F1B78 		mr 31,3
 5276              	.LVL365:
 5277 1348 7F43D378 		mr 3,26
 5278 134c 8009000C 		lwz 0,12(9)
 5279 1350 7C0903A6 		mtctr 0
 5280 1354 4E800421 		bctrl
 5281 1358 7FE3FB78 		mr 3,31
 5282              	.LEHB39:
 5283 135c 48000001 		bl _Unwind_Resume
 5284              	.LEHE39:
 5285              	.LVL366:
 5286              	.L342:
 5287              	.LBE2499:
 5288              	.LBE2498:
 5289              	.LBE2497:
 5290              	.LBE2502:
 5291              	.LBE2503:
 5292              	.LBE2505:
 5293              	.LBE2512:
 5294              	.LBE2517:
 5295              	.LBE2524:
 5296              	.LBB2525:
 5297              	.LBB2453:
 5298              	.LBB2449:
 5299              	.LBB2443:
 5300              	.LBB2437:
 5301              	.LBB2434:
 5302              	.LBB2426:
 5303              	.LBB2396:
 5304              	.LBB2395:
 5305              	.LBB2394:
 5306              	.LBB2389:
 5307              	.LBB2390:
 5308              	.LBB2391:
 5309 1360 813F0090 		lwz 9,144(31)
 5310 1364 7C7F1B78 		mr 31,3
 5311              	.LVL367:
 5312 1368 7F43D378 		mr 3,26
 5313 136c 8009000C 		lwz 0,12(9)
 5314 1370 7C0903A6 		mtctr 0
 5315 1374 4E800421 		bctrl
 5316 1378 7FE3FB78 		mr 3,31
 5317              	.LEHB40:
 5318 137c 48000001 		bl _Unwind_Resume
 5319              	.LEHE40:
 5320              	.LBE2391:
 5321              	.LBE2390:
 5322              	.LBE2389:
 5323              	.LBE2394:
 5324              	.LBE2395:
 5325              	.LBE2396:
 5326              	.LBE2426:
 5327              	.LBE2434:
 5328              	.LBE2437:
 5329              	.LBE2443:
 5330              	.LBE2449:
 5331              	.LBE2453:
 5332              	.LBE2525:
 5333              	.LBE2526:
 5334              	.LBE2528:
 5335              		.cfi_endproc
 5336              	.LFE1490:
 5337              		.section	.gcc_except_table
 5338              	.LLSDA1490:
 5339 00a1 FF       		.byte	0xff
 5340 00a2 FF       		.byte	0xff
 5341 00a3 01       		.byte	0x1
 5342 00a4 49       		.uleb128 .LLSDACSE1490-.LLSDACSB1490
 5343              	.LLSDACSB1490:
 5344 00a5 4C       		.uleb128 .LEHB28-.LFB1490
 5345 00a6 FC08     		.uleb128 .LEHE28-.LEHB28
 5346 00a8 00       		.uleb128 0
 5347 00a9 00       		.uleb128 0
 5348 00aa F809     		.uleb128 .LEHB29-.LFB1490
 5349 00ac 04       		.uleb128 .LEHE29-.LEHB29
 5350 00ad 9C1B     		.uleb128 .L344-.LFB1490
 5351 00af 00       		.uleb128 0
 5352 00b0 940A     		.uleb128 .LEHB30-.LFB1490
 5353 00b2 C002     		.uleb128 .LEHE30-.LEHB30
 5354 00b4 00       		.uleb128 0
 5355 00b5 00       		.uleb128 0
 5356 00b6 840D     		.uleb128 .LEHB31-.LFB1490
 5357 00b8 04       		.uleb128 .LEHE31-.LEHB31
 5358 00b9 BC1B     		.uleb128 .L343-.LFB1490
 5359 00bb 00       		.uleb128 0
 5360 00bc A00D     		.uleb128 .LEHB32-.LFB1490
 5361 00be D801     		.uleb128 .LEHE32-.LEHB32
 5362 00c0 00       		.uleb128 0
 5363 00c1 00       		.uleb128 0
 5364 00c2 A80F     		.uleb128 .LEHB33-.LFB1490
 5365 00c4 04       		.uleb128 .LEHE33-.LEHB33
 5366 00c5 DC1B     		.uleb128 .L342-.LFB1490
 5367 00c7 00       		.uleb128 0
 5368 00c8 C40F     		.uleb128 .LEHB34-.LFB1490
 5369 00ca B004     		.uleb128 .LEHE34-.LEHB34
 5370 00cc 00       		.uleb128 0
 5371 00cd 00       		.uleb128 0
 5372 00ce A414     		.uleb128 .LEHB35-.LFB1490
 5373 00d0 04       		.uleb128 .LEHE35-.LEHB35
 5374 00d1 FC1A     		.uleb128 .L341-.LFB1490
 5375 00d3 00       		.uleb128 0
 5376 00d4 C014     		.uleb128 .LEHB36-.LFB1490
 5377 00d6 B006     		.uleb128 .LEHE36-.LEHB36
 5378 00d8 00       		.uleb128 0
 5379 00d9 00       		.uleb128 0
 5380 00da 981B     		.uleb128 .LEHB37-.LFB1490
 5381 00dc 04       		.uleb128 .LEHE37-.LEHB37
 5382 00dd 00       		.uleb128 0
 5383 00de 00       		.uleb128 0
 5384 00df B81B     		.uleb128 .LEHB38-.LFB1490
 5385 00e1 04       		.uleb128 .LEHE38-.LEHB38
 5386 00e2 00       		.uleb128 0
 5387 00e3 00       		.uleb128 0
 5388 00e4 D81B     		.uleb128 .LEHB39-.LFB1490
 5389 00e6 04       		.uleb128 .LEHE39-.LEHB39
 5390 00e7 00       		.uleb128 0
 5391 00e8 00       		.uleb128 0
 5392 00e9 F81B     		.uleb128 .LEHB40-.LFB1490
 5393 00eb 04       		.uleb128 .LEHE40-.LEHB40
 5394 00ec 00       		.uleb128 0
 5395 00ed 00       		.uleb128 0
 5396              	.LLSDACSE1490:
 5397              		.section	".text"
 5398              		.size	_ZN9GuiButton6UpdateEP10GuiTrigger, .-_ZN9GuiButton6UpdateEP10GuiTrigger
 5399              		.align 2
 5400              		.globl _ZN9GuiButton4InitEv
 5401              		.type	_ZN9GuiButton4InitEv, @function
 5402              	_ZN9GuiButton4InitEv:
 5403              	.LFB1469:
 5404              		.loc 3 40 0
 5405              		.cfi_startproc
 5406              	.LVL368:
 5407              	.LBB2532:
 5408              		.loc 3 41 0
 5409 1380 38000000 		li 0,0
 5410              		.loc 3 62 0
 5411 1384 39200001 		li 9,1
 5412              		.loc 3 41 0
 5413 1388 900300B8 		stw 0,184(3)
 5414              		.loc 3 42 0
 5415 138c 900300BC 		stw 0,188(3)
 5416              		.loc 3 43 0
 5417 1390 900300C0 		stw 0,192(3)
 5418              		.loc 3 44 0
 5419 1394 900300C4 		stw 0,196(3)
 5420              		.loc 3 45 0
 5421 1398 900300C8 		stw 0,200(3)
 5422              		.loc 3 46 0
 5423 139c 900300CC 		stw 0,204(3)
 5424              		.loc 3 47 0
 5425 13a0 900300D0 		stw 0,208(3)
 5426              		.loc 3 48 0
 5427 13a4 900300D4 		stw 0,212(3)
 5428              		.loc 3 49 0
 5429 13a8 90030114 		stw 0,276(3)
 5430              	.LVL369:
 5431 13ac 900300D8 		stw 0,216(3)
 5432 13b0 900300DC 		stw 0,220(3)
 5433 13b4 900300E0 		stw 0,224(3)
 5434 13b8 900300E4 		stw 0,228(3)
 5435 13bc 900300E8 		stw 0,232(3)
 5436 13c0 900300EC 		stw 0,236(3)
 5437 13c4 900300F0 		stw 0,240(3)
 5438 13c8 900300F4 		stw 0,244(3)
 5439 13cc 900300F8 		stw 0,248(3)
 5440 13d0 900300FC 		stw 0,252(3)
 5441 13d4 90030100 		stw 0,256(3)
 5442 13d8 90030104 		stw 0,260(3)
 5443              		.loc 3 59 0
 5444 13dc 90030108 		stw 0,264(3)
 5445              		.loc 3 60 0
 5446 13e0 9003010C 		stw 0,268(3)
 5447              		.loc 3 61 0
 5448 13e4 90030110 		stw 0,272(3)
 5449              		.loc 3 62 0
 5450 13e8 9923001E 		stb 9,30(3)
 5451              		.loc 3 63 0
 5452 13ec 98030020 		stb 0,32(3)
 5453              		.loc 3 64 0
 5454 13f0 9923001F 		stb 9,31(3)
 5455              	.LVL370:
 5456              	.LBB2533:
 5457              		.loc 3 67 0
 5458 13f4 90030120 		stw 0,288(3)
 5459              	.LVL371:
 5460 13f8 90030124 		stw 0,292(3)
 5461              	.LVL372:
 5462 13fc 90030128 		stw 0,296(3)
 5463              	.LVL373:
 5464 1400 9003012C 		stw 0,300(3)
 5465              	.LVL374:
 5466 1404 90030130 		stw 0,304(3)
 5467              	.LVL375:
 5468 1408 90030134 		stw 0,308(3)
 5469              	.LVL376:
 5470              	.LBE2533:
 5471              	.LBE2532:
 5472              		.loc 3 68 0
 5473 140c 4E800020 		blr
 5474              		.cfi_endproc
 5475              	.LFE1469:
 5476              		.size	_ZN9GuiButton4InitEv, .-_ZN9GuiButton4InitEv
 5477              		.align 2
 5478              		.globl _ZN9GuiButton8SetImageEP8GuiImage
 5479              		.type	_ZN9GuiButton8SetImageEP8GuiImage, @function
 5480              	_ZN9GuiButton8SetImageEP8GuiImage:
 5481              	.LFB1470:
 5482              		.loc 3 71 0
 5483              		.cfi_startproc
 5484              	.LVL377:
 5485              		.loc 3 73 0
 5486 1410 2F840000 		cmpwi 7,4,0
 5487              		.loc 3 71 0
 5488 1414 7C0802A6 		mflr 0
 5489 1418 9421FFF8 		stwu 1,-8(1)
 5490              	.LCFI55:
 5491              		.cfi_def_cfa_offset 8
 5492              		.cfi_register 65, 0
 5493 141c 7C691B78 		mr 9,3
 5494 1420 9001000C 		stw 0,12(1)
 5495              		.loc 3 72 0
 5496 1424 908300B8 		stw 4,184(3)
 5497              		.loc 3 73 0
 5498 1428 419E001C 		beq- 7,.L377
 5499              		.cfi_offset 65, 4
 5500              		.loc 3 73 0 is_stmt 0 discriminator 1
 5501 142c 81640000 		lwz 11,0(4)
 5502 1430 7C832378 		mr 3,4
 5503              	.LVL378:
 5504 1434 7D244B78 		mr 4,9
 5505              	.LVL379:
 5506 1438 800B0008 		lwz 0,8(11)
 5507 143c 7C0903A6 		mtctr 0
 5508 1440 4E800421 		bctrl
 5509              	.LVL380:
 5510              	.L377:
 5511              		.loc 3 74 0 is_stmt 1
 5512 1444 8001000C 		lwz 0,12(1)
 5513 1448 38210008 		addi 1,1,8
 5514              	.LCFI56:
 5515              		.cfi_def_cfa_offset 0
 5516 144c 7C0803A6 		mtlr 0
 5517 1450 4E800020 		blr
 5518              		.cfi_endproc
 5519              	.LFE1470:
 5520              		.size	_ZN9GuiButton8SetImageEP8GuiImage, .-_ZN9GuiButton8SetImageEP8GuiImage
 5521              		.align 2
 5522              		.globl _ZN9GuiButton12SetImageOverEP8GuiImage
 5523              		.type	_ZN9GuiButton12SetImageOverEP8GuiImage, @function
 5524              	_ZN9GuiButton12SetImageOverEP8GuiImage:
 5525              	.LFB1471:
 5526              		.loc 3 76 0
 5527              		.cfi_startproc
 5528              	.LVL381:
 5529              		.loc 3 78 0
 5530 1454 2F840000 		cmpwi 7,4,0
 5531              		.loc 3 76 0
 5532 1458 7C0802A6 		mflr 0
 5533 145c 9421FFF8 		stwu 1,-8(1)
 5534              	.LCFI57:
 5535              		.cfi_def_cfa_offset 8
 5536              		.cfi_register 65, 0
 5537 1460 7C691B78 		mr 9,3
 5538 1464 9001000C 		stw 0,12(1)
 5539              		.loc 3 77 0
 5540 1468 908300BC 		stw 4,188(3)
 5541              		.loc 3 78 0
 5542 146c 419E001C 		beq- 7,.L379
 5543              		.cfi_offset 65, 4
 5544              		.loc 3 78 0 is_stmt 0 discriminator 1
 5545 1470 81640000 		lwz 11,0(4)
 5546 1474 7C832378 		mr 3,4
 5547              	.LVL382:
 5548 1478 7D244B78 		mr 4,9
 5549              	.LVL383:
 5550 147c 800B0008 		lwz 0,8(11)
 5551 1480 7C0903A6 		mtctr 0
 5552 1484 4E800421 		bctrl
 5553              	.LVL384:
 5554              	.L379:
 5555              		.loc 3 79 0 is_stmt 1
 5556 1488 8001000C 		lwz 0,12(1)
 5557 148c 38210008 		addi 1,1,8
 5558              	.LCFI58:
 5559              		.cfi_def_cfa_offset 0
 5560 1490 7C0803A6 		mtlr 0
 5561 1494 4E800020 		blr
 5562              		.cfi_endproc
 5563              	.LFE1471:
 5564              		.size	_ZN9GuiButton12SetImageOverEP8GuiImage, .-_ZN9GuiButton12SetImageOverEP8GuiImage
 5565              		.align 2
 5566              		.globl _ZN9GuiButton12SetImageHoldEP8GuiImage
 5567              		.type	_ZN9GuiButton12SetImageHoldEP8GuiImage, @function
 5568              	_ZN9GuiButton12SetImageHoldEP8GuiImage:
 5569              	.LFB1472:
 5570              		.loc 3 81 0
 5571              		.cfi_startproc
 5572              	.LVL385:
 5573              		.loc 3 83 0
 5574 1498 2F840000 		cmpwi 7,4,0
 5575              		.loc 3 81 0
 5576 149c 7C0802A6 		mflr 0
 5577 14a0 9421FFF8 		stwu 1,-8(1)
 5578              	.LCFI59:
 5579              		.cfi_def_cfa_offset 8
 5580              		.cfi_register 65, 0
 5581 14a4 7C691B78 		mr 9,3
 5582 14a8 9001000C 		stw 0,12(1)
 5583              		.loc 3 82 0
 5584 14ac 908300C0 		stw 4,192(3)
 5585              		.loc 3 83 0
 5586 14b0 419E001C 		beq- 7,.L381
 5587              		.cfi_offset 65, 4
 5588              		.loc 3 83 0 is_stmt 0 discriminator 1
 5589 14b4 81640000 		lwz 11,0(4)
 5590 14b8 7C832378 		mr 3,4
 5591              	.LVL386:
 5592 14bc 7D244B78 		mr 4,9
 5593              	.LVL387:
 5594 14c0 800B0008 		lwz 0,8(11)
 5595 14c4 7C0903A6 		mtctr 0
 5596 14c8 4E800421 		bctrl
 5597              	.LVL388:
 5598              	.L381:
 5599              		.loc 3 84 0 is_stmt 1
 5600 14cc 8001000C 		lwz 0,12(1)
 5601 14d0 38210008 		addi 1,1,8
 5602              	.LCFI60:
 5603              		.cfi_def_cfa_offset 0
 5604 14d4 7C0803A6 		mtlr 0
 5605 14d8 4E800020 		blr
 5606              		.cfi_endproc
 5607              	.LFE1472:
 5608              		.size	_ZN9GuiButton12SetImageHoldEP8GuiImage, .-_ZN9GuiButton12SetImageHoldEP8GuiImage
 5609              		.align 2
 5610              		.globl _ZN9GuiButton13SetImageClickEP8GuiImage
 5611              		.type	_ZN9GuiButton13SetImageClickEP8GuiImage, @function
 5612              	_ZN9GuiButton13SetImageClickEP8GuiImage:
 5613              	.LFB1473:
 5614              		.loc 3 86 0
 5615              		.cfi_startproc
 5616              	.LVL389:
 5617              		.loc 3 88 0
 5618 14dc 2F840000 		cmpwi 7,4,0
 5619              		.loc 3 86 0
 5620 14e0 7C0802A6 		mflr 0
 5621 14e4 9421FFF8 		stwu 1,-8(1)
 5622              	.LCFI61:
 5623              		.cfi_def_cfa_offset 8
 5624              		.cfi_register 65, 0
 5625 14e8 7C691B78 		mr 9,3
 5626 14ec 9001000C 		stw 0,12(1)
 5627              		.loc 3 87 0
 5628 14f0 908300C4 		stw 4,196(3)
 5629              		.loc 3 88 0
 5630 14f4 419E001C 		beq- 7,.L383
 5631              		.cfi_offset 65, 4
 5632              		.loc 3 88 0 is_stmt 0 discriminator 1
 5633 14f8 81640000 		lwz 11,0(4)
 5634 14fc 7C832378 		mr 3,4
 5635              	.LVL390:
 5636 1500 7D244B78 		mr 4,9
 5637              	.LVL391:
 5638 1504 800B0008 		lwz 0,8(11)
 5639 1508 7C0903A6 		mtctr 0
 5640 150c 4E800421 		bctrl
 5641              	.LVL392:
 5642              	.L383:
 5643              		.loc 3 89 0 is_stmt 1
 5644 1510 8001000C 		lwz 0,12(1)
 5645 1514 38210008 		addi 1,1,8
 5646              	.LCFI62:
 5647              		.cfi_def_cfa_offset 0
 5648 1518 7C0803A6 		mtlr 0
 5649 151c 4E800020 		blr
 5650              		.cfi_endproc
 5651              	.LFE1473:
 5652              		.size	_ZN9GuiButton13SetImageClickEP8GuiImage, .-_ZN9GuiButton13SetImageClickEP8GuiImage
 5653              		.align 2
 5654              		.globl _ZN9GuiButton7SetIconEP8GuiImage
 5655              		.type	_ZN9GuiButton7SetIconEP8GuiImage, @function
 5656              	_ZN9GuiButton7SetIconEP8GuiImage:
 5657              	.LFB1474:
 5658              		.loc 3 91 0
 5659              		.cfi_startproc
 5660              	.LVL393:
 5661              		.loc 3 93 0
 5662 1520 2F840000 		cmpwi 7,4,0
 5663              		.loc 3 91 0
 5664 1524 7C0802A6 		mflr 0
 5665 1528 9421FFF8 		stwu 1,-8(1)
 5666              	.LCFI63:
 5667              		.cfi_def_cfa_offset 8
 5668              		.cfi_register 65, 0
 5669 152c 7C691B78 		mr 9,3
 5670 1530 9001000C 		stw 0,12(1)
 5671              		.loc 3 92 0
 5672 1534 908300C8 		stw 4,200(3)
 5673              		.loc 3 93 0
 5674 1538 419E001C 		beq- 7,.L385
 5675              		.cfi_offset 65, 4
 5676              		.loc 3 93 0 is_stmt 0 discriminator 1
 5677 153c 81640000 		lwz 11,0(4)
 5678 1540 7C832378 		mr 3,4
 5679              	.LVL394:
 5680 1544 7D244B78 		mr 4,9
 5681              	.LVL395:
 5682 1548 800B0008 		lwz 0,8(11)
 5683 154c 7C0903A6 		mtctr 0
 5684 1550 4E800421 		bctrl
 5685              	.LVL396:
 5686              	.L385:
 5687              		.loc 3 94 0 is_stmt 1
 5688 1554 8001000C 		lwz 0,12(1)
 5689 1558 38210008 		addi 1,1,8
 5690              	.LCFI64:
 5691              		.cfi_def_cfa_offset 0
 5692 155c 7C0803A6 		mtlr 0
 5693 1560 4E800020 		blr
 5694              		.cfi_endproc
 5695              	.LFE1474:
 5696              		.size	_ZN9GuiButton7SetIconEP8GuiImage, .-_ZN9GuiButton7SetIconEP8GuiImage
 5697              		.align 2
 5698              		.globl _ZN9GuiButton11SetIconOverEP8GuiImage
 5699              		.type	_ZN9GuiButton11SetIconOverEP8GuiImage, @function
 5700              	_ZN9GuiButton11SetIconOverEP8GuiImage:
 5701              	.LFB1475:
 5702              		.loc 3 96 0
 5703              		.cfi_startproc
 5704              	.LVL397:
 5705              		.loc 3 98 0
 5706 1564 2F840000 		cmpwi 7,4,0
 5707              		.loc 3 96 0
 5708 1568 7C0802A6 		mflr 0
 5709 156c 9421FFF8 		stwu 1,-8(1)
 5710              	.LCFI65:
 5711              		.cfi_def_cfa_offset 8
 5712              		.cfi_register 65, 0
 5713 1570 7C691B78 		mr 9,3
 5714 1574 9001000C 		stw 0,12(1)
 5715              		.loc 3 97 0
 5716 1578 908300CC 		stw 4,204(3)
 5717              		.loc 3 98 0
 5718 157c 419E001C 		beq- 7,.L387
 5719              		.cfi_offset 65, 4
 5720              		.loc 3 98 0 is_stmt 0 discriminator 1
 5721 1580 81640000 		lwz 11,0(4)
 5722 1584 7C832378 		mr 3,4
 5723              	.LVL398:
 5724 1588 7D244B78 		mr 4,9
 5725              	.LVL399:
 5726 158c 800B0008 		lwz 0,8(11)
 5727 1590 7C0903A6 		mtctr 0
 5728 1594 4E800421 		bctrl
 5729              	.LVL400:
 5730              	.L387:
 5731              		.loc 3 99 0 is_stmt 1
 5732 1598 8001000C 		lwz 0,12(1)
 5733 159c 38210008 		addi 1,1,8
 5734              	.LCFI66:
 5735              		.cfi_def_cfa_offset 0
 5736 15a0 7C0803A6 		mtlr 0
 5737 15a4 4E800020 		blr
 5738              		.cfi_endproc
 5739              	.LFE1475:
 5740              		.size	_ZN9GuiButton11SetIconOverEP8GuiImage, .-_ZN9GuiButton11SetIconOverEP8GuiImage
 5741              		.align 2
 5742              		.globl _ZN9GuiButton11SetIconHoldEP8GuiImage
 5743              		.type	_ZN9GuiButton11SetIconHoldEP8GuiImage, @function
 5744              	_ZN9GuiButton11SetIconHoldEP8GuiImage:
 5745              	.LFB1476:
 5746              		.loc 3 101 0
 5747              		.cfi_startproc
 5748              	.LVL401:
 5749              		.loc 3 103 0
 5750 15a8 2F840000 		cmpwi 7,4,0
 5751              		.loc 3 101 0
 5752 15ac 7C0802A6 		mflr 0
 5753 15b0 9421FFF8 		stwu 1,-8(1)
 5754              	.LCFI67:
 5755              		.cfi_def_cfa_offset 8
 5756              		.cfi_register 65, 0
 5757 15b4 7C691B78 		mr 9,3
 5758 15b8 9001000C 		stw 0,12(1)
 5759              		.loc 3 102 0
 5760 15bc 908300D0 		stw 4,208(3)
 5761              		.loc 3 103 0
 5762 15c0 419E001C 		beq- 7,.L389
 5763              		.cfi_offset 65, 4
 5764              		.loc 3 103 0 is_stmt 0 discriminator 1
 5765 15c4 81640000 		lwz 11,0(4)
 5766 15c8 7C832378 		mr 3,4
 5767              	.LVL402:
 5768 15cc 7D244B78 		mr 4,9
 5769              	.LVL403:
 5770 15d0 800B0008 		lwz 0,8(11)
 5771 15d4 7C0903A6 		mtctr 0
 5772 15d8 4E800421 		bctrl
 5773              	.LVL404:
 5774              	.L389:
 5775              		.loc 3 104 0 is_stmt 1
 5776 15dc 8001000C 		lwz 0,12(1)
 5777 15e0 38210008 		addi 1,1,8
 5778              	.LCFI68:
 5779              		.cfi_def_cfa_offset 0
 5780 15e4 7C0803A6 		mtlr 0
 5781 15e8 4E800020 		blr
 5782              		.cfi_endproc
 5783              	.LFE1476:
 5784              		.size	_ZN9GuiButton11SetIconHoldEP8GuiImage, .-_ZN9GuiButton11SetIconHoldEP8GuiImage
 5785              		.align 2
 5786              		.globl _ZN9GuiButton12SetIconClickEP8GuiImage
 5787              		.type	_ZN9GuiButton12SetIconClickEP8GuiImage, @function
 5788              	_ZN9GuiButton12SetIconClickEP8GuiImage:
 5789              	.LFB1477:
 5790              		.loc 3 106 0
 5791              		.cfi_startproc
 5792              	.LVL405:
 5793              		.loc 3 108 0
 5794 15ec 2F840000 		cmpwi 7,4,0
 5795              		.loc 3 106 0
 5796 15f0 7C0802A6 		mflr 0
 5797 15f4 9421FFF8 		stwu 1,-8(1)
 5798              	.LCFI69:
 5799              		.cfi_def_cfa_offset 8
 5800              		.cfi_register 65, 0
 5801 15f8 7C691B78 		mr 9,3
 5802 15fc 9001000C 		stw 0,12(1)
 5803              		.loc 3 107 0
 5804 1600 908300D4 		stw 4,212(3)
 5805              		.loc 3 108 0
 5806 1604 419E001C 		beq- 7,.L391
 5807              		.cfi_offset 65, 4
 5808              		.loc 3 108 0 is_stmt 0 discriminator 1
 5809 1608 81640000 		lwz 11,0(4)
 5810 160c 7C832378 		mr 3,4
 5811              	.LVL406:
 5812 1610 7D244B78 		mr 4,9
 5813              	.LVL407:
 5814 1614 800B0008 		lwz 0,8(11)
 5815 1618 7C0903A6 		mtctr 0
 5816 161c 4E800421 		bctrl
 5817              	.LVL408:
 5818              	.L391:
 5819              		.loc 3 109 0 is_stmt 1
 5820 1620 8001000C 		lwz 0,12(1)
 5821 1624 38210008 		addi 1,1,8
 5822              	.LCFI70:
 5823              		.cfi_def_cfa_offset 0
 5824 1628 7C0803A6 		mtlr 0
 5825 162c 4E800020 		blr
 5826              		.cfi_endproc
 5827              	.LFE1477:
 5828              		.size	_ZN9GuiButton12SetIconClickEP8GuiImage, .-_ZN9GuiButton12SetIconClickEP8GuiImage
 5829              		.align 2
 5830              		.globl _ZN9GuiButton8SetLabelEP7GuiTexti
 5831              		.type	_ZN9GuiButton8SetLabelEP7GuiTexti, @function
 5832              	_ZN9GuiButton8SetLabelEP7GuiTexti:
 5833              	.LFB1478:
 5834              		.loc 3 111 0
 5835              		.cfi_startproc
 5836              	.LVL409:
 5837              		.loc 3 113 0
 5838 1630 2F840000 		cmpwi 7,4,0
 5839              		.loc 3 111 0
 5840 1634 7C0802A6 		mflr 0
 5841              		.loc 3 112 0
 5842 1638 38A50034 		addi 5,5,52
 5843              	.LVL410:
 5844              		.loc 3 111 0
 5845 163c 9421FFF8 		stwu 1,-8(1)
 5846              	.LCFI71:
 5847              		.cfi_def_cfa_offset 8
 5848              		.cfi_register 65, 0
 5849              		.loc 3 112 0
 5850 1640 54A5103A 		slwi 5,5,2
 5851              	.LVL411:
 5852              		.loc 3 111 0
 5853 1644 7C691B78 		mr 9,3
 5854              		.loc 3 112 0
 5855 1648 7CA32A14 		add 5,3,5
 5856              		.loc 3 111 0
 5857 164c 9001000C 		stw 0,12(1)
 5858              		.loc 3 112 0
 5859 1650 90850008 		stw 4,8(5)
 5860              		.loc 3 113 0
 5861 1654 419E001C 		beq- 7,.L393
 5862              		.cfi_offset 65, 4
 5863              		.loc 3 113 0 is_stmt 0 discriminator 1
 5864 1658 81640000 		lwz 11,0(4)
 5865 165c 7C832378 		mr 3,4
 5866              	.LVL412:
 5867 1660 7D244B78 		mr 4,9
 5868              	.LVL413:
 5869 1664 800B0008 		lwz 0,8(11)
 5870 1668 7C0903A6 		mtctr 0
 5871 166c 4E800421 		bctrl
 5872              	.LVL414:
 5873              	.L393:
 5874              		.loc 3 114 0 is_stmt 1
 5875 1670 8001000C 		lwz 0,12(1)
 5876 1674 38210008 		addi 1,1,8
 5877              	.LCFI72:
 5878              		.cfi_def_cfa_offset 0
 5879 1678 7C0803A6 		mtlr 0
 5880 167c 4E800020 		blr
 5881              		.cfi_endproc
 5882              	.LFE1478:
 5883              		.size	_ZN9GuiButton8SetLabelEP7GuiTexti, .-_ZN9GuiButton8SetLabelEP7GuiTexti
 5884              		.align 2
 5885              		.globl _ZN9GuiButton12SetLabelOverEP7GuiTexti
 5886              		.type	_ZN9GuiButton12SetLabelOverEP7GuiTexti, @function
 5887              	_ZN9GuiButton12SetLabelOverEP7GuiTexti:
 5888              	.LFB1479:
 5889              		.loc 3 116 0
 5890              		.cfi_startproc
 5891              	.LVL415:
 5892              		.loc 3 118 0
 5893 1680 2F840000 		cmpwi 7,4,0
 5894              		.loc 3 116 0
 5895 1684 7C0802A6 		mflr 0
 5896              		.loc 3 117 0
 5897 1688 38A50038 		addi 5,5,56
 5898              	.LVL416:
 5899              		.loc 3 116 0
 5900 168c 9421FFF8 		stwu 1,-8(1)
 5901              	.LCFI73:
 5902              		.cfi_def_cfa_offset 8
 5903              		.cfi_register 65, 0
 5904              		.loc 3 117 0
 5905 1690 54A5103A 		slwi 5,5,2
 5906              	.LVL417:
 5907              		.loc 3 116 0
 5908 1694 7C691B78 		mr 9,3
 5909              		.loc 3 117 0
 5910 1698 7CA32A14 		add 5,3,5
 5911              		.loc 3 116 0
 5912 169c 9001000C 		stw 0,12(1)
 5913              		.loc 3 117 0
 5914 16a0 90850004 		stw 4,4(5)
 5915              		.loc 3 118 0
 5916 16a4 419E001C 		beq- 7,.L395
 5917              		.cfi_offset 65, 4
 5918              		.loc 3 118 0 is_stmt 0 discriminator 1
 5919 16a8 81640000 		lwz 11,0(4)
 5920 16ac 7C832378 		mr 3,4
 5921              	.LVL418:
 5922 16b0 7D244B78 		mr 4,9
 5923              	.LVL419:
 5924 16b4 800B0008 		lwz 0,8(11)
 5925 16b8 7C0903A6 		mtctr 0
 5926 16bc 4E800421 		bctrl
 5927              	.LVL420:
 5928              	.L395:
 5929              		.loc 3 119 0 is_stmt 1
 5930 16c0 8001000C 		lwz 0,12(1)
 5931 16c4 38210008 		addi 1,1,8
 5932              	.LCFI74:
 5933              		.cfi_def_cfa_offset 0
 5934 16c8 7C0803A6 		mtlr 0
 5935 16cc 4E800020 		blr
 5936              		.cfi_endproc
 5937              	.LFE1479:
 5938              		.size	_ZN9GuiButton12SetLabelOverEP7GuiTexti, .-_ZN9GuiButton12SetLabelOverEP7GuiTexti
 5939              		.align 2
 5940              		.globl _ZN9GuiButton12SetLabelHoldEP7GuiTexti
 5941              		.type	_ZN9GuiButton12SetLabelHoldEP7GuiTexti, @function
 5942              	_ZN9GuiButton12SetLabelHoldEP7GuiTexti:
 5943              	.LFB1480:
 5944              		.loc 3 121 0
 5945              		.cfi_startproc
 5946              	.LVL421:
 5947              		.loc 3 123 0
 5948 16d0 2F840000 		cmpwi 7,4,0
 5949              		.loc 3 121 0
 5950 16d4 7C0802A6 		mflr 0
 5951 16d8 9421FFF8 		stwu 1,-8(1)
 5952              	.LCFI75:
 5953              		.cfi_def_cfa_offset 8
 5954              		.cfi_register 65, 0
 5955              		.loc 3 122 0
 5956 16dc 38A5003C 		addi 5,5,60
 5957              	.LVL422:
 5958 16e0 54A5103A 		slwi 5,5,2
 5959              	.LVL423:
 5960              		.loc 3 121 0
 5961 16e4 7C691B78 		mr 9,3
 5962 16e8 9001000C 		stw 0,12(1)
 5963              		.loc 3 122 0
 5964 16ec 7C83292E 		stwx 4,3,5
 5965              		.loc 3 123 0
 5966 16f0 419E001C 		beq- 7,.L397
 5967              		.cfi_offset 65, 4
 5968              		.loc 3 123 0 is_stmt 0 discriminator 1
 5969 16f4 81640000 		lwz 11,0(4)
 5970 16f8 7C832378 		mr 3,4
 5971              	.LVL424:
 5972 16fc 7D244B78 		mr 4,9
 5973              	.LVL425:
 5974 1700 800B0008 		lwz 0,8(11)
 5975 1704 7C0903A6 		mtctr 0
 5976 1708 4E800421 		bctrl
 5977              	.LVL426:
 5978              	.L397:
 5979              		.loc 3 124 0 is_stmt 1
 5980 170c 8001000C 		lwz 0,12(1)
 5981 1710 38210008 		addi 1,1,8
 5982              	.LCFI76:
 5983              		.cfi_def_cfa_offset 0
 5984 1714 7C0803A6 		mtlr 0
 5985 1718 4E800020 		blr
 5986              		.cfi_endproc
 5987              	.LFE1480:
 5988              		.size	_ZN9GuiButton12SetLabelHoldEP7GuiTexti, .-_ZN9GuiButton12SetLabelHoldEP7GuiTexti
 5989              		.align 2
 5990              		.globl _ZN9GuiButton13SetLabelClickEP7GuiTexti
 5991              		.type	_ZN9GuiButton13SetLabelClickEP7GuiTexti, @function
 5992              	_ZN9GuiButton13SetLabelClickEP7GuiTexti:
 5993              	.LFB1481:
 5994              		.loc 3 126 0
 5995              		.cfi_startproc
 5996              	.LVL427:
 5997              		.loc 3 128 0
 5998 171c 2F840000 		cmpwi 7,4,0
 5999              		.loc 3 126 0
 6000 1720 7C0802A6 		mflr 0
 6001              		.loc 3 127 0
 6002 1724 38A5003C 		addi 5,5,60
 6003              	.LVL428:
 6004              		.loc 3 126 0
 6005 1728 9421FFF8 		stwu 1,-8(1)
 6006              	.LCFI77:
 6007              		.cfi_def_cfa_offset 8
 6008              		.cfi_register 65, 0
 6009              		.loc 3 127 0
 6010 172c 54A5103A 		slwi 5,5,2
 6011              	.LVL429:
 6012              		.loc 3 126 0
 6013 1730 7C691B78 		mr 9,3
 6014              		.loc 3 127 0
 6015 1734 7CA32A14 		add 5,3,5
 6016              		.loc 3 126 0
 6017 1738 9001000C 		stw 0,12(1)
 6018              		.loc 3 127 0
 6019 173c 9085000C 		stw 4,12(5)
 6020              		.loc 3 128 0
 6021 1740 419E001C 		beq- 7,.L399
 6022              		.cfi_offset 65, 4
 6023              		.loc 3 128 0 is_stmt 0 discriminator 1
 6024 1744 81640000 		lwz 11,0(4)
 6025 1748 7C832378 		mr 3,4
 6026              	.LVL430:
 6027 174c 7D244B78 		mr 4,9
 6028              	.LVL431:
 6029 1750 800B0008 		lwz 0,8(11)
 6030 1754 7C0903A6 		mtctr 0
 6031 1758 4E800421 		bctrl
 6032              	.LVL432:
 6033              	.L399:
 6034              		.loc 3 129 0 is_stmt 1
 6035 175c 8001000C 		lwz 0,12(1)
 6036 1760 38210008 		addi 1,1,8
 6037              	.LCFI78:
 6038              		.cfi_def_cfa_offset 0
 6039 1764 7C0803A6 		mtlr 0
 6040 1768 4E800020 		blr
 6041              		.cfi_endproc
 6042              	.LFE1481:
 6043              		.size	_ZN9GuiButton13SetLabelClickEP7GuiTexti, .-_ZN9GuiButton13SetLabelClickEP7GuiTexti
 6044              		.align 2
 6045              		.globl _ZN9GuiButton12SetSoundOverEP8GuiSound
 6046              		.type	_ZN9GuiButton12SetSoundOverEP8GuiSound, @function
 6047              	_ZN9GuiButton12SetSoundOverEP8GuiSound:
 6048              	.LFB1482:
 6049              		.loc 3 131 0
 6050              		.cfi_startproc
 6051              	.LVL433:
 6052              		.loc 3 132 0
 6053 176c 90830108 		stw 4,264(3)
 6054              		.loc 3 133 0
 6055 1770 4E800020 		blr
 6056              		.cfi_endproc
 6057              	.LFE1482:
 6058              		.size	_ZN9GuiButton12SetSoundOverEP8GuiSound, .-_ZN9GuiButton12SetSoundOverEP8GuiSound
 6059              		.align 2
 6060              		.globl _ZN9GuiButton12SetSoundHoldEP8GuiSound
 6061              		.type	_ZN9GuiButton12SetSoundHoldEP8GuiSound, @function
 6062              	_ZN9GuiButton12SetSoundHoldEP8GuiSound:
 6063              	.LFB1483:
 6064              		.loc 3 135 0
 6065              		.cfi_startproc
 6066              	.LVL434:
 6067              		.loc 3 136 0
 6068 1774 9083010C 		stw 4,268(3)
 6069              		.loc 3 137 0
 6070 1778 4E800020 		blr
 6071              		.cfi_endproc
 6072              	.LFE1483:
 6073              		.size	_ZN9GuiButton12SetSoundHoldEP8GuiSound, .-_ZN9GuiButton12SetSoundHoldEP8GuiSound
 6074              		.align 2
 6075              		.globl _ZN9GuiButton13SetSoundClickEP8GuiSound
 6076              		.type	_ZN9GuiButton13SetSoundClickEP8GuiSound, @function
 6077              	_ZN9GuiButton13SetSoundClickEP8GuiSound:
 6078              	.LFB1484:
 6079              		.loc 3 140 0
 6080              		.cfi_startproc
 6081              	.LVL435:
 6082              		.loc 3 141 0
 6083 177c 90830110 		stw 4,272(3)
 6084              		.loc 3 142 0
 6085 1780 4E800020 		blr
 6086              		.cfi_endproc
 6087              	.LFE1484:
 6088              		.size	_ZN9GuiButton13SetSoundClickEP8GuiSound, .-_ZN9GuiButton13SetSoundClickEP8GuiSound
 6089              		.align 2
 6090              		.globl _ZN9GuiButton10SetTriggerEP10GuiTrigger
 6091              		.type	_ZN9GuiButton10SetTriggerEP10GuiTrigger, @function
 6092              	_ZN9GuiButton10SetTriggerEP10GuiTrigger:
 6093              	.LFB1485:
 6094              		.loc 3 145 0
 6095              		.cfi_startproc
 6096              	.LVL436:
 6097              		.loc 3 146 0
 6098 1784 80030120 		lwz 0,288(3)
 6099 1788 2F800000 		cmpwi 7,0,0
 6100 178c 419E0040 		beq- 7,.L411
 6101              		.loc 3 148 0
 6102 1790 80030124 		lwz 0,292(3)
 6103 1794 2F800000 		cmpwi 7,0,0
 6104 1798 419E003C 		beq- 7,.L412
 6105              		.loc 3 150 0
 6106 179c 80030128 		lwz 0,296(3)
 6107 17a0 2F800000 		cmpwi 7,0,0
 6108 17a4 419E0038 		beq- 7,.L413
 6109              		.loc 3 152 0
 6110 17a8 8003012C 		lwz 0,300(3)
 6111 17ac 2F800000 		cmpwi 7,0,0
 6112 17b0 419E0034 		beq- 7,.L414
 6113              		.loc 3 154 0
 6114 17b4 80030130 		lwz 0,304(3)
 6115 17b8 2F800000 		cmpwi 7,0,0
 6116 17bc 419E0030 		beq- 7,.L415
 6117              		.loc 3 156 0
 6118 17c0 80030134 		lwz 0,308(3)
 6119 17c4 2F800000 		cmpwi 7,0,0
 6120 17c8 419E002C 		beq- 7,.L416
 6121              	.L411:
 6122              		.loc 3 159 0
 6123 17cc 90830120 		stw 4,288(3)
 6124 17d0 4E800020 		blr
 6125              	.L412:
 6126              		.loc 3 149 0
 6127 17d4 90830124 		stw 4,292(3)
 6128 17d8 4E800020 		blr
 6129              	.L413:
 6130              		.loc 3 151 0
 6131 17dc 90830128 		stw 4,296(3)
 6132 17e0 4E800020 		blr
 6133              	.L414:
 6134              		.loc 3 153 0
 6135 17e4 9083012C 		stw 4,300(3)
 6136 17e8 4E800020 		blr
 6137              	.L415:
 6138              		.loc 3 155 0
 6139 17ec 90830130 		stw 4,304(3)
 6140 17f0 4E800020 		blr
 6141              	.L416:
 6142              		.loc 3 157 0
 6143 17f4 90830134 		stw 4,308(3)
 6144 17f8 4E800020 		blr
 6145              		.cfi_endproc
 6146              	.LFE1485:
 6147              		.size	_ZN9GuiButton10SetTriggerEP10GuiTrigger, .-_ZN9GuiButton10SetTriggerEP10GuiTrigger
 6148              		.align 2
 6149              		.globl _ZN9GuiButton10SetTriggerEhP10GuiTrigger
 6150              		.type	_ZN9GuiButton10SetTriggerEhP10GuiTrigger, @function
 6151              	_ZN9GuiButton10SetTriggerEhP10GuiTrigger:
 6152              	.LFB1486:
 6153              		.loc 3 163 0
 6154              		.cfi_startproc
 6155              	.LVL437:
 6156              		.loc 3 164 0
 6157 17fc 38840048 		addi 4,4,72
 6158              	.LVL438:
 6159 1800 5484103A 		slwi 4,4,2
 6160 1804 7CA3212E 		stwx 5,3,4
 6161              		.loc 3 165 0
 6162 1808 4E800020 		blr
 6163              		.cfi_endproc
 6164              	.LFE1486:
 6165              		.size	_ZN9GuiButton10SetTriggerEhP10GuiTrigger, .-_ZN9GuiButton10SetTriggerEhP10GuiTrigger
 6166              		.align 2
 6167              		.globl _ZN9GuiButton10SetTooltipEP10GuiTooltip
 6168              		.type	_ZN9GuiButton10SetTooltipEP10GuiTooltip, @function
 6169              	_ZN9GuiButton10SetTooltipEP10GuiTooltip:
 6170              	.LFB1487:
 6171              		.loc 3 168 0
 6172              		.cfi_startproc
 6173              	.LVL439:
 6174              		.loc 3 170 0
 6175 180c 2F840000 		cmpwi 7,4,0
 6176              		.loc 3 168 0
 6177 1810 7C0802A6 		mflr 0
 6178 1814 9421FFF8 		stwu 1,-8(1)
 6179              	.LCFI79:
 6180              		.cfi_def_cfa_offset 8
 6181              		.cfi_register 65, 0
 6182 1818 7C691B78 		mr 9,3
 6183 181c 9001000C 		stw 0,12(1)
 6184              		.loc 3 169 0
 6185 1820 90830114 		stw 4,276(3)
 6186              		.loc 3 170 0
 6187 1824 419E001C 		beq- 7,.L418
 6188              		.cfi_offset 65, 4
 6189              		.loc 3 171 0
 6190 1828 81640000 		lwz 11,0(4)
 6191 182c 7C832378 		mr 3,4
 6192              	.LVL440:
 6193 1830 7D244B78 		mr 4,9
 6194              	.LVL441:
 6195 1834 800B0008 		lwz 0,8(11)
 6196 1838 7C0903A6 		mtctr 0
 6197 183c 4E800421 		bctrl
 6198              	.LVL442:
 6199              	.L418:
 6200              		.loc 3 172 0
 6201 1840 8001000C 		lwz 0,12(1)
 6202 1844 38210008 		addi 1,1,8
 6203              	.LCFI80:
 6204              		.cfi_def_cfa_offset 0
 6205 1848 7C0803A6 		mtlr 0
 6206 184c 4E800020 		blr
 6207              		.cfi_endproc
 6208              	.LFE1487:
 6209              		.size	_ZN9GuiButton10SetTooltipEP10GuiTooltip, .-_ZN9GuiButton10SetTooltipEP10GuiTooltip
 6210              		.section	.text._ZNSt8_Rb_treeIPN7sigslot12_signal_baseINS0_15single_threadedEEES4_St9_IdentityIS4_
 6211              		.align 2
 6212              		.weak	_ZNSt8_Rb_treeIPN7sigslot12_signal_baseINS0_15single_threadedEEES4_St9_IdentityIS4_ESt4lessI
 6213              		.type	_ZNSt8_Rb_treeIPN7sigslot12_signal_baseINS0_15single_threadedEEES4_St9_IdentityIS4_ESt4lessI
 6214              	_ZNSt8_Rb_treeIPN7sigslot12_signal_baseINS0_15single_threadedEEES4_St9_IdentityIS4_ESt4lessIS4_ESaI
 6215              	.LFB1795:
 6216              		.file 8 "d:\\devkitpro\\devkitppc\\bin\\../lib/gcc/powerpc-eabi/4.6.3/../../../../powerpc-eabi/inc
 6217              		.loc 8 1068 0
 6218              		.cfi_startproc
 6219              	.LVL443:
 6220 0000 9421FFC8 		stwu 1,-56(1)
 6221              	.LCFI81:
 6222              		.cfi_def_cfa_offset 56
 6223 0004 7C0802A6 		mflr 0
 6224 0008 92C10010 		stw 22,16(1)
 6225              	.LBB2650:
 6226              		.loc 8 1072 0
 6227 000c 7C962379 		mr. 22,4
 6228              		.cfi_offset 22, -40
 6229              		.cfi_register 65, 0
 6230              	.LBE2650:
 6231              		.loc 8 1068 0
 6232 0010 93C10030 		stw 30,48(1)
 6233 0014 7C7E1B78 		mr 30,3
 6234              		.cfi_offset 30, -8
 6235 0018 9001003C 		stw 0,60(1)
 6236 001c 92A1000C 		stw 21,12(1)
 6237 0020 92E10014 		stw 23,20(1)
 6238 0024 93010018 		stw 24,24(1)
 6239 0028 9321001C 		stw 25,28(1)
 6240 002c 93410020 		stw 26,32(1)
 6241 0030 93610024 		stw 27,36(1)
 6242 0034 93810028 		stw 28,40(1)
 6243 0038 93A1002C 		stw 29,44(1)
 6244 003c 93E10034 		stw 31,52(1)
 6245              	.LBB2735:
 6246              		.loc 8 1072 0
 6247 0040 41820168 		beq- 0,.L420
 6248              		.cfi_offset 31, -4
 6249              		.cfi_offset 29, -12
 6250              		.cfi_offset 28, -16
 6251              		.cfi_offset 27, -20
 6252              		.cfi_offset 26, -24
 6253              		.cfi_offset 25, -28
 6254              		.cfi_offset 24, -32
 6255              		.cfi_offset 23, -36
 6256              		.cfi_offset 21, -44
 6257              		.cfi_offset 65, 4
 6258              	.LVL444:
 6259              	.L466:
 6260              		.loc 3 406 0
 6261 0044 8376000C 		lwz 27,12(22)
 6262              	.LVL445:
 6263              	.LBB2651:
 6264              	.LBB2652:
 6265              	.LBB2653:
 6266              		.loc 8 1072 0
 6267 0048 2F9B0000 		cmpwi 7,27,0
 6268 004c 419E0140 		beq- 7,.L422
 6269              	.LVL446:
 6270              	.L467:
 6271              	.LBE2653:
 6272              		.loc 3 406 0
 6273 0050 835B000C 		lwz 26,12(27)
 6274              	.LVL447:
 6275              	.LBB2729:
 6276              	.LBB2654:
 6277              	.LBB2655:
 6278              	.LBB2656:
 6279              		.loc 8 1072 0
 6280 0054 2F9A0000 		cmpwi 7,26,0
 6281 0058 419E0118 		beq- 7,.L423
 6282              	.LVL448:
 6283              	.L468:
 6284              	.LBE2656:
 6285              		.loc 3 406 0
 6286 005c 833A000C 		lwz 25,12(26)
 6287              	.LVL449:
 6288              	.LBB2722:
 6289              	.LBB2657:
 6290              	.LBB2658:
 6291              	.LBB2659:
 6292              		.loc 8 1072 0
 6293 0060 2F990000 		cmpwi 7,25,0
 6294 0064 419E00F0 		beq- 7,.L424
 6295              	.LVL450:
 6296              	.L469:
 6297              	.LBE2659:
 6298              		.loc 3 406 0
 6299 0068 8319000C 		lwz 24,12(25)
 6300              	.LVL451:
 6301              	.LBB2715:
 6302              	.LBB2660:
 6303              	.LBB2661:
 6304              	.LBB2662:
 6305              		.loc 8 1072 0
 6306 006c 2F980000 		cmpwi 7,24,0
 6307 0070 419E00C8 		beq- 7,.L425
 6308              	.LVL452:
 6309              	.L470:
 6310              	.LBE2662:
 6311              		.loc 3 406 0
 6312 0074 82F8000C 		lwz 23,12(24)
 6313              	.LVL453:
 6314              	.LBB2708:
 6315              	.LBB2663:
 6316              	.LBB2664:
 6317              	.LBB2665:
 6318              		.loc 8 1072 0
 6319 0078 2F970000 		cmpwi 7,23,0
 6320 007c 419E00A0 		beq- 7,.L426
 6321              	.LVL454:
 6322              	.L471:
 6323              	.LBE2665:
 6324              		.loc 3 406 0
 6325 0080 8397000C 		lwz 28,12(23)
 6326              	.LVL455:
 6327              	.LBB2701:
 6328              	.LBB2666:
 6329              	.LBB2667:
 6330              	.LBB2668:
 6331              		.loc 8 1072 0
 6332 0084 2F9C0000 		cmpwi 7,28,0
 6333 0088 419E0078 		beq- 7,.L427
 6334              	.LVL456:
 6335              	.L472:
 6336              	.LBE2668:
 6337              		.loc 3 406 0
 6338 008c 83BC000C 		lwz 29,12(28)
 6339              	.LVL457:
 6340              	.LBB2694:
 6341              	.LBB2669:
 6342              	.LBB2670:
 6343              	.LBB2671:
 6344              		.loc 8 1072 0
 6345 0090 2F9D0000 		cmpwi 7,29,0
 6346 0094 419E0050 		beq- 7,.L428
 6347              	.LVL458:
 6348              	.L473:
 6349              	.LBE2671:
 6350              		.loc 3 406 0
 6351 0098 83FD000C 		lwz 31,12(29)
 6352              	.LVL459:
 6353              	.LBB2687:
 6354              	.LBB2672:
 6355              	.LBB2673:
 6356              	.LBB2674:
 6357              		.loc 8 1072 0
 6358 009c 2F9F0000 		cmpwi 7,31,0
 6359 00a0 419E0028 		beq- 7,.L429
 6360              	.LVL460:
 6361              	.L474:
 6362              	.LBB2675:
 6363              		.loc 8 1074 0
 6364 00a4 809F000C 		lwz 4,12(31)
 6365 00a8 7FC3F378 		mr 3,30
 6366 00ac 48000001 		bl _ZNSt8_Rb_treeIPN7sigslot12_signal_baseINS0_15single_threadedEEES4_St9_IdentityIS4_ESt4lessIS4_
 6367              	.LBE2675:
 6368              	.LBE2674:
 6369              		.loc 3 406 0
 6370 00b0 82BF0008 		lwz 21,8(31)
 6371              	.LVL461:
 6372              	.LBB2681:
 6373              	.LBB2680:
 6374              	.LBB2676:
 6375              	.LBB2677:
 6376              	.LBB2678:
 6377              	.LBB2679:
 6378              		.loc 6 98 0
 6379 00b4 7FE3FB78 		mr 3,31
 6380 00b8 48000001 		bl _ZdlPv
 6381              	.LVL462:
 6382              	.LBE2679:
 6383              	.LBE2678:
 6384              	.LBE2677:
 6385              	.LBE2676:
 6386              	.LBE2680:
 6387              		.loc 8 1072 0
 6388 00bc 2F950000 		cmpwi 7,21,0
 6389              		.loc 8 1077 0
 6390 00c0 7EBFAB78 		mr 31,21
 6391              	.LVL463:
 6392              		.loc 8 1072 0
 6393 00c4 409EFFE0 		bne+ 7,.L474
 6394              	.LVL464:
 6395              	.L429:
 6396              	.LBE2681:
 6397              	.LBE2673:
 6398              	.LBE2672:
 6399              	.LBE2687:
 6400              		.loc 3 406 0
 6401 00c8 83FD0008 		lwz 31,8(29)
 6402              	.LVL465:
 6403              	.LBB2688:
 6404              	.LBB2686:
 6405              	.LBB2682:
 6406              	.LBB2683:
 6407              	.LBB2684:
 6408              	.LBB2685:
 6409              		.loc 6 98 0
 6410 00cc 7FA3EB78 		mr 3,29
 6411 00d0 48000001 		bl _ZdlPv
 6412              	.LVL466:
 6413              	.LBE2685:
 6414              	.LBE2684:
 6415              	.LBE2683:
 6416              	.LBE2682:
 6417              	.LBE2686:
 6418              		.loc 8 1072 0
 6419 00d4 2F9F0000 		cmpwi 7,31,0
 6420 00d8 419E000C 		beq- 7,.L428
 6421              		.loc 8 1077 0
 6422 00dc 7FFDFB78 		mr 29,31
 6423              	.LVL467:
 6424 00e0 4BFFFFB8 		b .L473
 6425              	.LVL468:
 6426              	.L428:
 6427              	.LBE2688:
 6428              	.LBE2670:
 6429              	.LBE2669:
 6430              	.LBE2694:
 6431              		.loc 3 406 0
 6432 00e4 83FC0008 		lwz 31,8(28)
 6433              	.LVL469:
 6434              	.LBB2695:
 6435              	.LBB2693:
 6436              	.LBB2689:
 6437              	.LBB2690:
 6438              	.LBB2691:
 6439              	.LBB2692:
 6440              		.loc 6 98 0
 6441 00e8 7F83E378 		mr 3,28
 6442 00ec 48000001 		bl _ZdlPv
 6443              	.LVL470:
 6444              	.LBE2692:
 6445              	.LBE2691:
 6446              	.LBE2690:
 6447              	.LBE2689:
 6448              	.LBE2693:
 6449              		.loc 8 1072 0
 6450 00f0 2F9F0000 		cmpwi 7,31,0
 6451 00f4 419E000C 		beq- 7,.L427
 6452              		.loc 8 1077 0
 6453 00f8 7FFCFB78 		mr 28,31
 6454              	.LVL471:
 6455 00fc 4BFFFF90 		b .L472
 6456              	.LVL472:
 6457              	.L427:
 6458              	.LBE2695:
 6459              	.LBE2667:
 6460              	.LBE2666:
 6461              	.LBE2701:
 6462              		.loc 3 406 0
 6463 0100 83F70008 		lwz 31,8(23)
 6464              	.LVL473:
 6465              	.LBB2702:
 6466              	.LBB2700:
 6467              	.LBB2696:
 6468              	.LBB2697:
 6469              	.LBB2698:
 6470              	.LBB2699:
 6471              		.loc 6 98 0
 6472 0104 7EE3BB78 		mr 3,23
 6473 0108 48000001 		bl _ZdlPv
 6474              	.LVL474:
 6475              	.LBE2699:
 6476              	.LBE2698:
 6477              	.LBE2697:
 6478              	.LBE2696:
 6479              	.LBE2700:
 6480              		.loc 8 1072 0
 6481 010c 2F9F0000 		cmpwi 7,31,0
 6482 0110 419E000C 		beq- 7,.L426
 6483              		.loc 8 1077 0
 6484 0114 7FF7FB78 		mr 23,31
 6485              	.LVL475:
 6486 0118 4BFFFF68 		b .L471
 6487              	.LVL476:
 6488              	.L426:
 6489              	.LBE2702:
 6490              	.LBE2664:
 6491              	.LBE2663:
 6492              	.LBE2708:
 6493              		.loc 3 406 0
 6494 011c 83F80008 		lwz 31,8(24)
 6495              	.LVL477:
 6496              	.LBB2709:
 6497              	.LBB2707:
 6498              	.LBB2703:
 6499              	.LBB2704:
 6500              	.LBB2705:
 6501              	.LBB2706:
 6502              		.loc 6 98 0
 6503 0120 7F03C378 		mr 3,24
 6504 0124 48000001 		bl _ZdlPv
 6505              	.LVL478:
 6506              	.LBE2706:
 6507              	.LBE2705:
 6508              	.LBE2704:
 6509              	.LBE2703:
 6510              	.LBE2707:
 6511              		.loc 8 1072 0
 6512 0128 2F9F0000 		cmpwi 7,31,0
 6513 012c 419E000C 		beq- 7,.L425
 6514              		.loc 8 1077 0
 6515 0130 7FF8FB78 		mr 24,31
 6516              	.LVL479:
 6517 0134 4BFFFF40 		b .L470
 6518              	.LVL480:
 6519              	.L425:
 6520              	.LBE2709:
 6521              	.LBE2661:
 6522              	.LBE2660:
 6523              	.LBE2715:
 6524              		.loc 3 406 0
 6525 0138 83F90008 		lwz 31,8(25)
 6526              	.LVL481:
 6527              	.LBB2716:
 6528              	.LBB2714:
 6529              	.LBB2710:
 6530              	.LBB2711:
 6531              	.LBB2712:
 6532              	.LBB2713:
 6533              		.loc 6 98 0
 6534 013c 7F23CB78 		mr 3,25
 6535 0140 48000001 		bl _ZdlPv
 6536              	.LVL482:
 6537              	.LBE2713:
 6538              	.LBE2712:
 6539              	.LBE2711:
 6540              	.LBE2710:
 6541              	.LBE2714:
 6542              		.loc 8 1072 0
 6543 0144 2F9F0000 		cmpwi 7,31,0
 6544 0148 419E000C 		beq- 7,.L424
 6545              		.loc 8 1077 0
 6546 014c 7FF9FB78 		mr 25,31
 6547              	.LVL483:
 6548 0150 4BFFFF18 		b .L469
 6549              	.LVL484:
 6550              	.L424:
 6551              	.LBE2716:
 6552              	.LBE2658:
 6553              	.LBE2657:
 6554              	.LBE2722:
 6555              		.loc 3 406 0
 6556 0154 83FA0008 		lwz 31,8(26)
 6557              	.LVL485:
 6558              	.LBB2723:
 6559              	.LBB2721:
 6560              	.LBB2717:
 6561              	.LBB2718:
 6562              	.LBB2719:
 6563              	.LBB2720:
 6564              		.loc 6 98 0
 6565 0158 7F43D378 		mr 3,26
 6566 015c 48000001 		bl _ZdlPv
 6567              	.LVL486:
 6568              	.LBE2720:
 6569              	.LBE2719:
 6570              	.LBE2718:
 6571              	.LBE2717:
 6572              	.LBE2721:
 6573              		.loc 8 1072 0
 6574 0160 2F9F0000 		cmpwi 7,31,0
 6575 0164 419E000C 		beq- 7,.L423
 6576              		.loc 8 1077 0
 6577 0168 7FFAFB78 		mr 26,31
 6578              	.LVL487:
 6579 016c 4BFFFEF0 		b .L468
 6580              	.LVL488:
 6581              	.L423:
 6582              	.LBE2723:
 6583              	.LBE2655:
 6584              	.LBE2654:
 6585              	.LBE2729:
 6586              		.loc 3 406 0
 6587 0170 83FB0008 		lwz 31,8(27)
 6588              	.LVL489:
 6589              	.LBB2730:
 6590              	.LBB2728:
 6591              	.LBB2724:
 6592              	.LBB2725:
 6593              	.LBB2726:
 6594              	.LBB2727:
 6595              		.loc 6 98 0
 6596 0174 7F63DB78 		mr 3,27
 6597 0178 48000001 		bl _ZdlPv
 6598              	.LVL490:
 6599              	.LBE2727:
 6600              	.LBE2726:
 6601              	.LBE2725:
 6602              	.LBE2724:
 6603              	.LBE2728:
 6604              		.loc 8 1072 0
 6605 017c 2F9F0000 		cmpwi 7,31,0
 6606 0180 419E000C 		beq- 7,.L422
 6607              		.loc 8 1077 0
 6608 0184 7FFBFB78 		mr 27,31
 6609              	.LVL491:
 6610 0188 4BFFFEC8 		b .L467
 6611              	.LVL492:
 6612              	.L422:
 6613              		.loc 3 406 0
 6614 018c 83F60008 		lwz 31,8(22)
 6615              	.LVL493:
 6616              	.LBE2730:
 6617              	.LBE2652:
 6618              	.LBB2731:
 6619              	.LBB2732:
 6620              	.LBB2733:
 6621              	.LBB2734:
 6622              		.loc 6 98 0
 6623 0190 7EC3B378 		mr 3,22
 6624 0194 48000001 		bl _ZdlPv
 6625              	.LVL494:
 6626              	.LBE2734:
 6627              	.LBE2733:
 6628              	.LBE2732:
 6629              	.LBE2731:
 6630              	.LBE2651:
 6631              		.loc 8 1072 0
 6632 0198 2F9F0000 		cmpwi 7,31,0
 6633 019c 419E000C 		beq- 7,.L420
 6634              		.loc 8 1077 0
 6635 01a0 7FF6FB78 		mr 22,31
 6636              	.LVL495:
 6637 01a4 4BFFFEA0 		b .L466
 6638              	.LVL496:
 6639              	.L420:
 6640              	.LBE2735:
 6641              		.loc 8 1079 0
 6642 01a8 8001003C 		lwz 0,60(1)
 6643 01ac 82A1000C 		lwz 21,12(1)
 6644 01b0 7C0803A6 		mtlr 0
 6645 01b4 82C10010 		lwz 22,16(1)
 6646 01b8 82E10014 		lwz 23,20(1)
 6647 01bc 83010018 		lwz 24,24(1)
 6648 01c0 8321001C 		lwz 25,28(1)
 6649 01c4 83410020 		lwz 26,32(1)
 6650 01c8 83610024 		lwz 27,36(1)
 6651 01cc 83810028 		lwz 28,40(1)
 6652 01d0 83A1002C 		lwz 29,44(1)
 6653 01d4 83C10030 		lwz 30,48(1)
 6654              	.LVL497:
 6655 01d8 83E10034 		lwz 31,52(1)
 6656 01dc 38210038 		addi 1,1,56
 6657              	.LCFI82:
 6658              		.cfi_def_cfa_offset 0
 6659              		.cfi_restore 31
 6660              		.cfi_restore 30
 6661              		.cfi_restore 29
 6662              		.cfi_restore 28
 6663              		.cfi_restore 27
 6664              		.cfi_restore 26
 6665              		.cfi_restore 25
 6666              		.cfi_restore 24
 6667              		.cfi_restore 23
 6668              		.cfi_restore 22
 6669              		.cfi_restore 21
 6670 01e0 4E800020 		blr
 6671              		.cfi_endproc
 6672              	.LFE1795:
 6673              		.size	_ZNSt8_Rb_treeIPN7sigslot12_signal_baseINS0_15single_threadedEEES4_St9_IdentityIS4_ESt4lessI
 6674              		.section	.text._ZNSt8_Rb_treeIPN7sigslot12_signal_baseINS0_15single_threadedEEES4_St9_IdentityIS4_
 6675              		.align 2
 6676              		.weak	_ZNSt8_Rb_treeIPN7sigslot12_signal_baseINS0_15single_threadedEEES4_St9_IdentityIS4_ESt4lessI
 6677              		.type	_ZNSt8_Rb_treeIPN7sigslot12_signal_baseINS0_15single_threadedEEES4_St9_IdentityIS4_ESt4lessI
 6678              	_ZNSt8_Rb_treeIPN7sigslot12_signal_baseINS0_15single_threadedEEES4_St9_IdentityIS4_ESt4lessIS4_ESaI
 6679              	.LFB1715:
 6680              		.loc 8 1510 0
 6681              		.cfi_startproc
 6682              	.LVL498:
 6683 0000 7C0802A6 		mflr 0
 6684 0004 9421FFE0 		stwu 1,-32(1)
 6685              	.LCFI83:
 6686              		.cfi_def_cfa_offset 32
 6687              		.cfi_register 65, 0
 6688 0008 93810010 		stw 28,16(1)
 6689              	.LBB2736:
 6690              	.LBB2737:
 6691              		.loc 8 1155 0
 6692 000c 3B830004 		addi 28,3,4
 6693              		.cfi_offset 28, -16
 6694              	.LBE2737:
 6695              	.LBE2736:
 6696              		.loc 8 1510 0
 6697 0010 90010024 		stw 0,36(1)
 6698 0014 93410008 		stw 26,8(1)
 6699              	.LBB2793:
 6700              	.LBB2758:
 6701              	.LBB2738:
 6702              		.loc 8 1155 0
 6703 0018 7F9AE378 		mr 26,28
 6704              		.cfi_offset 26, -24
 6705              		.cfi_offset 65, 4
 6706              	.LBE2738:
 6707              		.loc 3 406 0
 6708 001c 80030008 		lwz 0,8(3)
 6709              	.LBE2758:
 6710              	.LBE2793:
 6711              		.loc 8 1510 0
 6712 0020 93A10014 		stw 29,20(1)
 6713              	.LBB2794:
 6714              	.LBB2759:
 6715              	.LBB2751:
 6716              		.loc 8 1155 0
 6717 0024 7F9DE378 		mr 29,28
 6718              		.cfi_offset 29, -12
 6719              		.loc 8 1156 0
 6720 0028 2F800000 		cmpwi 7,0,0
 6721              	.LBE2751:
 6722              	.LBE2759:
 6723              	.LBE2794:
 6724              		.loc 8 1510 0
 6725 002c 93C10018 		stw 30,24(1)
 6726 0030 9361000C 		stw 27,12(1)
 6727 0034 7C7E1B78 		mr 30,3
 6728              		.cfi_offset 27, -20
 6729              		.cfi_offset 30, -8
 6730              	.LVL499:
 6731 0038 93E1001C 		stw 31,28(1)
 6732              	.LBB2795:
 6733              	.LBB2760:
 6734              	.LBB2752:
 6735              		.loc 8 1156 0
 6736 003c 419E0040 		beq- 7,.L476
 6737              		.cfi_offset 31, -4
 6738 0040 81640000 		lwz 11,0(4)
 6739 0044 7C1A0378 		mr 26,0
 6740 0048 48000010 		b .L487
 6741              	.LVL500:
 6742              	.L506:
 6743              	.LBE2752:
 6744              		.loc 3 406 0
 6745 004c 835A000C 		lwz 26,12(26)
 6746              	.LVL501:
 6747              	.LBB2753:
 6748              		.loc 8 1156 0
 6749 0050 2F9A0000 		cmpwi 7,26,0
 6750 0054 419E0024 		beq- 7,.L505
 6751              	.L487:
 6752              	.LVL502:
 6753              	.LBE2753:
 6754              		.loc 3 406 0
 6755 0058 813A0010 		lwz 9,16(26)
 6756              	.LBB2754:
 6757              	.LBB2739:
 6758              		.loc 8 1158 0
 6759 005c 7F895840 		cmplw 7,9,11
 6760 0060 41BCFFEC 		blt- 7,.L506
 6761              	.LVL503:
 6762              	.LBB2740:
 6763              		.loc 8 1160 0
 6764 0064 409D0094 		ble- 7,.L479
 6765              	.LVL504:
 6766              	.LBE2740:
 6767              	.LBE2739:
 6768              	.LBE2754:
 6769              		.loc 3 406 0
 6770 0068 7F5DD378 		mr 29,26
 6771              		.loc 8 1161 0
 6772 006c 835A0008 		lwz 26,8(26)
 6773              	.LVL505:
 6774              	.LBB2755:
 6775              		.loc 8 1156 0
 6776 0070 2F9A0000 		cmpwi 7,26,0
 6777 0074 409EFFE4 		bne+ 7,.L487
 6778              	.LVL506:
 6779              	.L505:
 6780 0078 7FBAEB78 		mr 26,29
 6781              	.LVL507:
 6782              	.L476:
 6783              	.LBE2755:
 6784              	.LBE2760:
 6785              	.LBB2761:
 6786              	.LBB2762:
 6787              		.loc 3 406 0
 6788 007c 813E000C 		lwz 9,12(30)
 6789              	.LBE2762:
 6790              	.LBE2761:
 6791              	.LBB2789:
 6792              	.LBB2756:
 6793 0080 837E0014 		lwz 27,20(30)
 6794              	.LVL508:
 6795              	.LBE2756:
 6796              	.LBE2789:
 6797              	.LBB2790:
 6798              	.LBB2787:
 6799              	.LBB2763:
 6800              		.loc 8 1500 0
 6801 0084 7F89D000 		cmpw 7,9,26
 6802 0088 419E00DC 		beq- 7,.L488
 6803              	.L492:
 6804              	.LVL509:
 6805              		.loc 8 1503 0
 6806 008c 7F9AE800 		cmpw 7,26,29
 6807 0090 419E0100 		beq- 7,.L507
 6808              	.LVL510:
 6809              	.L503:
 6810              	.LBB2764:
 6811              	.LBB2765:
 6812              		.loc 8 277 0
 6813 0094 7F43D378 		mr 3,26
 6814 0098 48000001 		bl _ZSt18_Rb_tree_incrementPKSt18_Rb_tree_node_base
 6815              	.LBE2765:
 6816              	.LBE2764:
 6817              	.LBB2767:
 6818              	.LBB2768:
 6819              	.LBB2769:
 6820              		.loc 8 1489 0
 6821 009c 7F84E378 		mr 4,28
 6822              	.LBE2769:
 6823              	.LBE2768:
 6824              	.LBE2767:
 6825              	.LBB2780:
 6826              	.LBB2766:
 6827              		.loc 8 277 0
 6828 00a0 7C7F1B78 		mr 31,3
 6829              	.LVL511:
 6830              	.LBE2766:
 6831              	.LBE2780:
 6832              	.LBB2781:
 6833              	.LBB2777:
 6834              	.LBB2774:
 6835              		.loc 8 1489 0
 6836 00a4 7F43D378 		mr 3,26
 6837              	.LVL512:
 6838 00a8 48000001 		bl _ZSt28_Rb_tree_rebalance_for_erasePSt18_Rb_tree_node_baseRS_
 6839              	.LBE2774:
 6840              	.LBE2777:
 6841              	.LBE2781:
 6842              		.loc 8 277 0
 6843 00ac 7FFAFB78 		mr 26,31
 6844              	.LVL513:
 6845              	.LBB2782:
 6846              	.LBB2778:
 6847              	.LBB2775:
 6848              	.LBB2770:
 6849              	.LBB2771:
 6850              	.LBB2772:
 6851              	.LBB2773:
 6852              		.loc 6 98 0
 6853 00b0 48000001 		bl _ZdlPv
 6854              	.LBE2773:
 6855              	.LBE2772:
 6856              	.LBE2771:
 6857              	.LBE2770:
 6858              	.LBE2775:
 6859              	.LBE2778:
 6860              	.LBE2782:
 6861              		.loc 8 1503 0
 6862 00b4 7F9FE800 		cmpw 7,31,29
 6863              	.LBB2783:
 6864              	.LBB2779:
 6865              	.LBB2776:
 6866              		.loc 8 1491 0
 6867 00b8 813E0014 		lwz 9,20(30)
 6868 00bc 3809FFFF 		addi 0,9,-1
 6869 00c0 901E0014 		stw 0,20(30)
 6870              	.LBE2776:
 6871              	.LBE2779:
 6872              	.LBE2783:
 6873              		.loc 8 1503 0
 6874 00c4 409EFFD0 		bne+ 7,.L503
 6875 00c8 7F60D850 		subf 27,0,27
 6876              	.LVL514:
 6877              	.L490:
 6878              	.LBE2763:
 6879              	.LBE2787:
 6880              	.LBE2790:
 6881              	.LBE2795:
 6882              		.loc 8 1517 0
 6883 00cc 80010024 		lwz 0,36(1)
 6884 00d0 7F63DB78 		mr 3,27
 6885 00d4 83410008 		lwz 26,8(1)
 6886 00d8 7C0803A6 		mtlr 0
 6887 00dc 8361000C 		lwz 27,12(1)
 6888 00e0 83810010 		lwz 28,16(1)
 6889 00e4 83A10014 		lwz 29,20(1)
 6890              	.LVL515:
 6891 00e8 83C10018 		lwz 30,24(1)
 6892              	.LVL516:
 6893 00ec 83E1001C 		lwz 31,28(1)
 6894 00f0 38210020 		addi 1,1,32
 6895              		.cfi_remember_state
 6896              	.LCFI84:
 6897              		.cfi_def_cfa_offset 0
 6898              		.cfi_restore 31
 6899              		.cfi_restore 30
 6900              		.cfi_restore 29
 6901              		.cfi_restore 28
 6902              		.cfi_restore 27
 6903              		.cfi_restore 26
 6904 00f4 4E800020 		blr
 6905              	.LVL517:
 6906              	.L479:
 6907              	.LCFI85:
 6908              		.cfi_restore_state
 6909              	.LBB2796:
 6910              	.LBB2791:
 6911              		.loc 3 406 0
 6912 00f8 815A0008 		lwz 10,8(26)
 6913              	.LVL518:
 6914 00fc 813A000C 		lwz 9,12(26)
 6915              	.LVL519:
 6916              	.L504:
 6917              	.LBB2757:
 6918              	.LBB2750:
 6919              	.LBB2749:
 6920              	.LBB2741:
 6921              	.LBB2742:
 6922              	.LBB2743:
 6923              		.loc 8 1089 0
 6924 0100 2F8A0000 		cmpwi 7,10,0
 6925 0104 419E0020 		beq- 7,.L480
 6926              	.L508:
 6927              	.LVL520:
 6928              		.loc 8 1090 0
 6929 0108 810A0010 		lwz 8,16(10)
 6930 010c 7F885840 		cmplw 7,8,11
 6931 0110 419C004C 		blt- 7,.L481
 6932              	.LVL521:
 6933              	.LBE2743:
 6934              		.loc 3 406 0
 6935 0114 7D5A5378 		mr 26,10
 6936              		.loc 8 1091 0
 6937 0118 814A0008 		lwz 10,8(10)
 6938              	.LVL522:
 6939              	.LBB2744:
 6940              		.loc 8 1089 0
 6941 011c 2F8A0000 		cmpwi 7,10,0
 6942 0120 409EFFE8 		bne+ 7,.L508
 6943              	.LVL523:
 6944              	.L480:
 6945              	.LBE2744:
 6946              	.LBE2742:
 6947              	.LBB2745:
 6948              	.LBB2746:
 6949              		.loc 8 1121 0
 6950 0124 2F890000 		cmpwi 7,9,0
 6951 0128 41BEFF54 		beq- 7,.L476
 6952              	.LVL524:
 6953              		.loc 8 1122 0
 6954 012c 81490010 		lwz 10,16(9)
 6955 0130 7F8A5840 		cmplw 7,10,11
 6956 0134 409D0020 		ble- 7,.L484
 6957              	.LVL525:
 6958              	.L509:
 6959              	.LBE2746:
 6960              		.loc 3 406 0
 6961 0138 7D3D4B78 		mr 29,9
 6962              		.loc 8 1123 0
 6963 013c 81290008 		lwz 9,8(9)
 6964              	.LVL526:
 6965              	.LBB2747:
 6966              		.loc 8 1121 0
 6967 0140 2F890000 		cmpwi 7,9,0
 6968 0144 41BEFF38 		beq- 7,.L476
 6969              	.LVL527:
 6970              		.loc 8 1122 0
 6971 0148 81490010 		lwz 10,16(9)
 6972 014c 7F8A5840 		cmplw 7,10,11
 6973 0150 41BDFFE8 		bgt- 7,.L509
 6974              	.LVL528:
 6975              	.L484:
 6976              	.LBE2747:
 6977              		.loc 3 406 0
 6978 0154 8129000C 		lwz 9,12(9)
 6979              	.LVL529:
 6980 0158 4BFFFFCC 		b .L480
 6981              	.LVL530:
 6982              	.L481:
 6983              	.LBE2745:
 6984              	.LBB2748:
 6985 015c 814A000C 		lwz 10,12(10)
 6986              	.LVL531:
 6987 0160 4BFFFFA0 		b .L504
 6988              	.LVL532:
 6989              	.L488:
 6990              	.LBE2748:
 6991              	.LBE2741:
 6992              	.LBE2749:
 6993              	.LBE2750:
 6994              	.LBE2757:
 6995              	.LBE2791:
 6996              	.LBB2792:
 6997              	.LBB2788:
 6998              	.LBB2786:
 6999              		.loc 8 1500 0
 7000 0164 7F9CE800 		cmpw 7,28,29
 7001 0168 409EFF24 		bne+ 7,.L492
 7002              	.LVL533:
 7003              	.LBB2784:
 7004              	.LBB2785:
 7005              		.loc 8 809 0
 7006 016c 7C040378 		mr 4,0
 7007              	.LVL534:
 7008 0170 7FC3F378 		mr 3,30
 7009              	.LVL535:
 7010 0174 48000001 		bl _ZNSt8_Rb_treeIPN7sigslot12_signal_baseINS0_15single_threadedEEES4_St9_IdentityIS4_ESt4lessIS4_
 7011              	.LVL536:
 7012              		.loc 8 811 0
 7013 0178 38000000 		li 0,0
 7014              		.loc 8 810 0
 7015 017c 939E000C 		stw 28,12(30)
 7016              	.LVL537:
 7017              		.loc 8 811 0
 7018 0180 901E0008 		stw 0,8(30)
 7019              	.LVL538:
 7020              		.loc 8 812 0
 7021 0184 939E0010 		stw 28,16(30)
 7022              		.loc 8 813 0
 7023 0188 901E0014 		stw 0,20(30)
 7024 018c 4BFFFF40 		b .L490
 7025              	.LVL539:
 7026              	.L507:
 7027              	.LBE2785:
 7028              	.LBE2784:
 7029              		.loc 8 1503 0
 7030 0190 3B600000 		li 27,0
 7031 0194 4BFFFF38 		b .L490
 7032              	.LBE2786:
 7033              	.LBE2788:
 7034              	.LBE2792:
 7035              	.LBE2796:
 7036              		.cfi_endproc
 7037              	.LFE1715:
 7038              		.size	_ZNSt8_Rb_treeIPN7sigslot12_signal_baseINS0_15single_threadedEEES4_St9_IdentityIS4_ESt4lessI
 7039              		.section	.text._ZN7sigslot7signal2IP10GuiElementbNS_15single_threadedEED0Ev,"axG",@progbits,_ZN7si
 7040              		.align 2
 7041              		.weak	_ZN7sigslot7signal2IP10GuiElementbNS_15single_threadedEED0Ev
 7042              		.type	_ZN7sigslot7signal2IP10GuiElementbNS_15single_threadedEED0Ev, @function
 7043              	_ZN7sigslot7signal2IP10GuiElementbNS_15single_threadedEED0Ev:
 7044              	.LFB1498:
 7045              		.loc 1 2235 0
 7046              		.cfi_startproc
 7047              		.cfi_personality 0,__gxx_personality_v0
 7048              		.cfi_lsda 0,.LLSDA1498
 7049              	.LVL540:
 7050 0000 7C0802A6 		mflr 0
 7051 0004 9421FFD8 		stwu 1,-40(1)
 7052              	.LCFI86:
 7053              		.cfi_def_cfa_offset 40
 7054              		.cfi_register 65, 0
 7055              	.LBB2895:
 7056              	.LBB2896:
 7057              	.LBB2897:
 7058              	.LBB2898:
 7059              	.LBB2899:
 7060              	.LBB2900:
 7061              		.loc 1 826 0
 7062 0008 3D200000 		lis 9,_ZTVN7sigslot13_signal_base2IP10GuiElementbNS_15single_threadedEEE+8@ha
 7063              	.LBE2900:
 7064              	.LBE2899:
 7065              	.LBE2898:
 7066              	.LBE2897:
 7067              	.LBE2896:
 7068              	.LBE2895:
 7069              		.loc 1 2235 0
 7070 000c 93810018 		stw 28,24(1)
 7071 0010 7C7C1B78 		mr 28,3
 7072              		.cfi_offset 28, -16
