   1              		.file	"gui_cross.cpp"
   2              		.section	".text"
   3              	.Ltext0:
   4              		.section	.text._ZN7sigslot15single_threadedD2Ev,"axG",@progbits,_ZN7sigslot15single_threadedD5Ev,c
   5              		.align 2
   6              		.weak	_ZN7sigslot15single_threadedD2Ev
   7              		.type	_ZN7sigslot15single_threadedD2Ev, @function
   8              	_ZN7sigslot15single_threadedD2Ev:
   9              	.LFB1148:
  10              		.file 1 "d:/Projects/SaveGameManager/savegame-manager-gx/trunk/source/GUI/../sigslot.h"
  11              		.loc 1 104 0
  12              		.cfi_startproc
  13              	.LVL0:
  14              	.LBB1263:
  15              		.loc 1 105 0
  16 0000 3D200000 		lis 9,_ZTVN7sigslot15single_threadedE+8@ha
  17              	.LBE1263:
  18              		.loc 1 107 0
  19              	.LBB1264:
  20              		.loc 1 105 0
  21 0004 38090008 		la 0,_ZTVN7sigslot15single_threadedE+8@l(9)
  22 0008 90030000 		stw 0,0(3)
  23              	.LBE1264:
  24              		.loc 1 107 0
  25 000c 4E800020 		blr
  26              		.cfi_endproc
  27              	.LFE1148:
  28              		.size	_ZN7sigslot15single_threadedD2Ev, .-_ZN7sigslot15single_threadedD2Ev
  29              		.section	.text._ZN7sigslot15single_threaded4lockEv,"axG",@progbits,_ZN7sigslot15single_threaded4lo
  30              		.align 2
  31              		.weak	_ZN7sigslot15single_threaded4lockEv
  32              		.type	_ZN7sigslot15single_threaded4lockEv, @function
  33              	_ZN7sigslot15single_threaded4lockEv:
  34              	.LFB1151:
  35              		.loc 1 109 0
  36              		.cfi_startproc
  37              	.LVL1:
  38              		.loc 1 112 0
  39 0000 4E800020 		blr
  40              		.cfi_endproc
  41              	.LFE1151:
  42              		.size	_ZN7sigslot15single_threaded4lockEv, .-_ZN7sigslot15single_threaded4lockEv
  43              		.section	.text._ZN7sigslot15single_threaded6unlockEv,"axG",@progbits,_ZN7sigslot15single_threaded6
  44              		.align 2
  45              		.weak	_ZN7sigslot15single_threaded6unlockEv
  46              		.type	_ZN7sigslot15single_threaded6unlockEv, @function
  47              	_ZN7sigslot15single_threaded6unlockEv:
  48              	.LFB1152:
  49              		.loc 1 114 0
  50              		.cfi_startproc
  51              	.LVL2:
  52              		.loc 1 117 0
  53 0000 4E800020 		blr
  54              		.cfi_endproc
  55              	.LFE1152:
  56              		.size	_ZN7sigslot15single_threaded6unlockEv, .-_ZN7sigslot15single_threaded6unlockEv
  57              		.section	.text._ZN10GuiElement9SetParentEPS_,"axG",@progbits,_ZN10GuiElement9SetParentEPS_,comdat
  58              		.align 2
  59              		.weak	_ZN10GuiElement9SetParentEPS_
  60              		.type	_ZN10GuiElement9SetParentEPS_, @function
  61              	_ZN10GuiElement9SetParentEPS_:
  62              	.LFB1384:
  63              		.file 2 "d:/Projects/SaveGameManager/savegame-manager-gx/trunk/source/GUI/gui_element.h"
  64              		.loc 2 92 0
  65              		.cfi_startproc
  66              	.LVL3:
  67              		.loc 2 92 0
  68 0000 90830060 		stw 4,96(3)
  69 0004 4E800020 		blr
  70              		.cfi_endproc
  71              	.LFE1384:
  72              		.size	_ZN10GuiElement9SetParentEPS_, .-_ZN10GuiElement9SetParentEPS_
  73              		.section	.text._ZN10GuiElement9GetParentEv,"axG",@progbits,_ZN10GuiElement9GetParentEv,comdat
  74              		.align 2
  75              		.weak	_ZN10GuiElement9GetParentEv
  76              		.type	_ZN10GuiElement9GetParentEv, @function
  77              	_ZN10GuiElement9GetParentEv:
  78              	.LFB1385:
  79              		.loc 2 95 0
  80              		.cfi_startproc
  81              	.LVL4:
  82              		.loc 2 95 0
  83 0000 80630060 		lwz 3,96(3)
  84              	.LVL5:
  85 0004 4E800020 		blr
  86              		.cfi_endproc
  87              	.LFE1385:
  88              		.size	_ZN10GuiElement9GetParentEv, .-_ZN10GuiElement9GetParentEv
  89              		.section	.text._ZN10GuiElement12GetZPositionEv,"axG",@progbits,_ZN10GuiElement12GetZPositionEv,com
  90              		.align 2
  91              		.weak	_ZN10GuiElement12GetZPositionEv
  92              		.type	_ZN10GuiElement12GetZPositionEv, @function
  93              	_ZN10GuiElement12GetZPositionEv:
  94              	.LFB1386:
  95              		.loc 2 106 0
  96              		.cfi_startproc
  97              	.LVL6:
  98 0000 7C0802A6 		mflr 0
  99 0004 9421FFF0 		stwu 1,-16(1)
 100              	.LCFI0:
 101              		.cfi_def_cfa_offset 16
 102              		.cfi_register 65, 0
 103 0008 93E1000C 		stw 31,12(1)
 104 000c 7C7F1B78 		mr 31,3
 105              		.cfi_offset 31, -4
 106 0010 90010014 		stw 0,20(1)
 107              	.LBB1265:
 108              		.loc 2 110 0
 109 0014 81630060 		lwz 11,96(3)
 110              		.loc 2 108 0
 111 0018 38600000 		li 3,0
 112              	.LVL7:
 113              		.loc 2 110 0
 114 001c 2F8B0000 		cmpwi 7,11,0
 115 0020 419E0018 		beq- 7,.L8
 116              		.cfi_offset 65, 4
 117              		.loc 2 111 0
 118 0024 812B0000 		lwz 9,0(11)
 119 0028 7D635B78 		mr 3,11
 120 002c 80090018 		lwz 0,24(9)
 121 0030 7C0903A6 		mtctr 0
 122 0034 4E800421 		bctrl
 123              	.LVL8:
 124              	.L8:
 125              		.loc 2 113 0
 126 0038 801F0034 		lwz 0,52(31)
 127              	.LBE1265:
 128              		.loc 2 114 0
 129 003c 83E1000C 		lwz 31,12(1)
 130              	.LVL9:
 131 0040 7C630214 		add 3,3,0
 132              	.LVL10:
 133 0044 80010014 		lwz 0,20(1)
 134 0048 38210010 		addi 1,1,16
 135              	.LCFI1:
 136              		.cfi_def_cfa_offset 0
 137              		.cfi_restore 31
 138 004c 7C0803A6 		mtlr 0
 139 0050 4E800020 		blr
 140              		.cfi_endproc
 141              	.LFE1386:
 142              		.size	_ZN10GuiElement12GetZPositionEv, .-_ZN10GuiElement12GetZPositionEv
 143              		.section	.text._ZN10GuiElement10GetLeftPosEv,"axG",@progbits,_ZN10GuiElement10GetLeftPosEv,comdat
 144              		.align 2
 145              		.weak	_ZN10GuiElement10GetLeftPosEv
 146              		.type	_ZN10GuiElement10GetLeftPosEv, @function
 147              	_ZN10GuiElement10GetLeftPosEv:
 148              	.LFB1387:
 149              		.loc 2 116 0
 150              		.cfi_startproc
 151              	.LVL11:
 152              		.loc 2 116 0
 153 0000 8063002C 		lwz 3,44(3)
 154              	.LVL12:
 155 0004 4E800020 		blr
 156              		.cfi_endproc
 157              	.LFE1387:
 158              		.size	_ZN10GuiElement10GetLeftPosEv, .-_ZN10GuiElement10GetLeftPosEv
 159              		.section	.text._ZN10GuiElement9GetTopPosEv,"axG",@progbits,_ZN10GuiElement9GetTopPosEv,comdat
 160              		.align 2
 161              		.weak	_ZN10GuiElement9GetTopPosEv
 162              		.type	_ZN10GuiElement9GetTopPosEv, @function
 163              	_ZN10GuiElement9GetTopPosEv:
 164              	.LFB1388:
 165              		.loc 2 118 0
 166              		.cfi_startproc
 167              	.LVL13:
 168              		.loc 2 118 0
 169 0000 80630030 		lwz 3,48(3)
 170              	.LVL14:
 171 0004 4E800020 		blr
 172              		.cfi_endproc
 173              	.LFE1388:
 174              		.size	_ZN10GuiElement9GetTopPosEv, .-_ZN10GuiElement9GetTopPosEv
 175              		.section	.text._ZN10GuiElement8GetWidthEv,"axG",@progbits,_ZN10GuiElement8GetWidthEv,comdat
 176              		.align 2
 177              		.weak	_ZN10GuiElement8GetWidthEv
 178              		.type	_ZN10GuiElement8GetWidthEv, @function
 179              	_ZN10GuiElement8GetWidthEv:
 180              	.LFB1389:
 181              		.loc 2 121 0
 182              		.cfi_startproc
 183              	.LVL15:
 184              		.loc 2 121 0
 185 0000 80630024 		lwz 3,36(3)
 186              	.LVL16:
 187 0004 4E800020 		blr
 188              		.cfi_endproc
 189              	.LFE1389:
 190              		.size	_ZN10GuiElement8GetWidthEv, .-_ZN10GuiElement8GetWidthEv
 191              		.section	.text._ZN10GuiElement9GetHeightEv,"axG",@progbits,_ZN10GuiElement9GetHeightEv,comdat
 192              		.align 2
 193              		.weak	_ZN10GuiElement9GetHeightEv
 194              		.type	_ZN10GuiElement9GetHeightEv, @function
 195              	_ZN10GuiElement9GetHeightEv:
 196              	.LFB1390:
 197              		.loc 2 124 0
 198              		.cfi_startproc
 199              	.LVL17:
 200              		.loc 2 124 0
 201 0000 80630028 		lwz 3,40(3)
 202              	.LVL18:
 203 0004 4E800020 		blr
 204              		.cfi_endproc
 205              	.LFE1390:
 206              		.size	_ZN10GuiElement9GetHeightEv, .-_ZN10GuiElement9GetHeightEv
 207              		.section	.text._ZN10GuiElement10SetVisibleEb,"axG",@progbits,_ZN10GuiElement10SetVisibleEb,comdat
 208              		.align 2
 209              		.weak	_ZN10GuiElement10SetVisibleEb
 210              		.type	_ZN10GuiElement10SetVisibleEb, @function
 211              	_ZN10GuiElement10SetVisibleEb:
 212              	.LFB1392:
 213              		.loc 2 135 0
 214              		.cfi_startproc
 215              		.cfi_personality 0,__gxx_personality_v0
 216              		.cfi_lsda 0,.LLSDA1392
 217              	.LVL19:
 218 0000 7C0802A6 		mflr 0
 219 0004 9421FFE0 		stwu 1,-32(1)
 220              	.LCFI2:
 221              		.cfi_def_cfa_offset 32
 222              		.cfi_register 65, 0
 223 0008 9361000C 		stw 27,12(1)
 224              	.LBB1266:
 225              	.LBB1267:
 226              		.loc 1 2270 0
 227 000c 3B630004 		addi 27,3,4
 228              		.cfi_offset 27, -20
 229              	.LBE1267:
 230              	.LBE1266:
 231              		.loc 2 135 0
 232 0010 90010024 		stw 0,36(1)
 233 0014 93C10018 		stw 30,24(1)
 234 0018 7C7E1B78 		mr 30,3
 235              		.cfi_offset 30, -8
 236              		.cfi_offset 65, 4
 237              	.LBB1290:
 238              	.LBB1284:
 239              	.LBB1268:
 240              	.LBB1269:
 241              		.loc 1 338 0
 242 001c 81230004 		lwz 9,4(3)
 243 0020 7F63DB78 		mr 3,27
 244              	.LVL20:
 245              	.LBE1269:
 246              	.LBE1268:
 247              	.LBE1284:
 248              	.LBE1290:
 249              		.loc 2 135 0
 250 0024 93810010 		stw 28,16(1)
 251 0028 7C9C2378 		mr 28,4
 252              		.cfi_offset 28, -16
 253              	.LBB1291:
 254              	.LBB1285:
 255              	.LBB1273:
 256              	.LBB1270:
 257              		.loc 1 338 0
 258 002c 80090008 		lwz 0,8(9)
 259              	.LBE1270:
 260              	.LBE1273:
 261              	.LBE1285:
 262              	.LBE1291:
 263              		.loc 2 135 0
 264 0030 93A10014 		stw 29,20(1)
 265              	.LBB1292:
 266              		.file 3 "d:/Projects/SaveGameManager/savegame-manager-gx/trunk/source/GUI/gui_cross.cpp"
 267              		.loc 3 51 0
 268 0034 7FDDF378 		mr 29,30
 269              		.cfi_offset 29, -12
 270              	.LBE1292:
 271              		.loc 2 135 0
 272 0038 93E1001C 		stw 31,28(1)
 273              	.LBB1293:
 274              	.LBB1286:
 275              	.LBB1274:
 276              	.LBB1271:
 277              		.loc 1 338 0
 278 003c 7C0903A6 		mtctr 0
 279              	.LBE1271:
 280              	.LBE1274:
 281              	.LBE1286:
 282              	.LBE1293:
 283              		.loc 2 137 0
 284 0040 989E001D 		stb 4,29(30)
 285              	.LVL21:
 286              	.LEHB0:
 287              	.LBB1294:
 288              	.LBB1287:
 289              	.LBB1275:
 290              	.LBB1272:
 291              		.loc 1 338 0
 292              		.cfi_offset 31, -4
 293 0044 4E800421 		bctrl
 294              	.LEHE0:
 295              	.LVL22:
 296              	.LBE1272:
 297              	.LBE1275:
 298              	.LBE1287:
 299              		.loc 3 51 0
 300 0048 87FD0008 		lwzu 31,8(29)
 301              	.LVL23:
 302              	.LBB1288:
 303              		.loc 1 2274 0
 304 004c 7F9FE800 		cmpw 7,31,29
 305 0050 419E002C 		beq- 7,.L16
 306              	.LVL24:
 307              	.L23:
 308              		.loc 1 2279 0
 309 0054 807F0008 		lwz 3,8(31)
 310 0058 7FC4F378 		mr 4,30
 311 005c 7F85E378 		mr 5,28
 312              	.LBB1276:
 313              	.LBB1277:
 314              		.file 4 "d:\\devkitpro\\devkitppc\\bin\\../lib/gcc/powerpc-eabi/4.6.3/../../../../powerpc-eabi/inc
 315              		.loc 4 234 0
 316 0060 83FF0000 		lwz 31,0(31)
 317              	.LVL25:
 318              	.LBE1277:
 319              	.LBE1276:
 320              		.loc 1 2279 0
 321 0064 81230000 		lwz 9,0(3)
 322 0068 8009000C 		lwz 0,12(9)
 323 006c 7C0903A6 		mtctr 0
 324              	.LEHB1:
 325 0070 4E800421 		bctrl
 326              	.LEHE1:
 327              	.LVL26:
 328              		.loc 1 2274 0
 329 0074 7F9DF800 		cmpw 7,29,31
 330 0078 409EFFDC 		bne+ 7,.L23
 331              	.LVL27:
 332              	.L16:
 333              	.LBB1278:
 334              	.LBB1279:
 335              	.LBB1280:
 336              		.loc 1 343 0
 337 007c 813E0004 		lwz 9,4(30)
 338 0080 7F63DB78 		mr 3,27
 339 0084 8009000C 		lwz 0,12(9)
 340 0088 7C0903A6 		mtctr 0
 341              	.LEHB2:
 342 008c 4E800421 		bctrl
 343              	.LEHE2:
 344              	.LBE1280:
 345              	.LBE1279:
 346              	.LBE1278:
 347              	.LBE1288:
 348              	.LBE1294:
 349              		.loc 2 139 0
 350 0090 80010024 		lwz 0,36(1)
 351 0094 8361000C 		lwz 27,12(1)
 352              	.LVL28:
 353 0098 7C0803A6 		mtlr 0
 354 009c 83810010 		lwz 28,16(1)
 355              	.LVL29:
 356 00a0 83A10014 		lwz 29,20(1)
 357 00a4 83C10018 		lwz 30,24(1)
 358              	.LVL30:
 359 00a8 83E1001C 		lwz 31,28(1)
 360              	.LVL31:
 361 00ac 38210020 		addi 1,1,32
 362              		.cfi_remember_state
 363              	.LCFI3:
 364              		.cfi_def_cfa_offset 0
 365              		.cfi_restore 31
 366              		.cfi_restore 30
 367              		.cfi_restore 29
 368              		.cfi_restore 28
 369              		.cfi_restore 27
 370 00b0 4E800020 		blr
 371              	.LVL32:
 372              	.L22:
 373              	.LCFI4:
 374              		.cfi_restore_state
 375              	.LBB1295:
 376              	.LBB1289:
 377              	.LBB1281:
 378              	.LBB1282:
 379              	.LBB1283:
 380              		.loc 1 343 0
 381 00b4 813E0004 		lwz 9,4(30)
 382 00b8 7C7F1B78 		mr 31,3
 383              	.LVL33:
 384 00bc 7F63DB78 		mr 3,27
 385 00c0 8009000C 		lwz 0,12(9)
 386 00c4 7C0903A6 		mtctr 0
 387 00c8 4E800421 		bctrl
 388 00cc 7FE3FB78 		mr 3,31
 389              	.LEHB3:
 390 00d0 48000001 		bl _Unwind_Resume
 391              	.LEHE3:
 392              	.LBE1283:
 393              	.LBE1282:
 394              	.LBE1281:
 395              	.LBE1289:
 396              	.LBE1295:
 397              		.cfi_endproc
 398              	.LFE1392:
 399              		.globl __gxx_personality_v0
 400              		.section	.gcc_except_table,"a",@progbits
 401              	.LLSDA1392:
 402 0000 FF       		.byte	0xff
 403 0001 FF       		.byte	0xff
 404 0002 01       		.byte	0x1
 405 0003 13       		.uleb128 .LLSDACSE1392-.LLSDACSB1392
 406              	.LLSDACSB1392:
 407 0004 44       		.uleb128 .LEHB0-.LFB1392
 408 0005 04       		.uleb128 .LEHE0-.LEHB0
 409 0006 00       		.uleb128 0
 410 0007 00       		.uleb128 0
 411 0008 70       		.uleb128 .LEHB1-.LFB1392
 412 0009 04       		.uleb128 .LEHE1-.LEHB1
 413 000a B401     		.uleb128 .L22-.LFB1392
 414 000c 00       		.uleb128 0
 415 000d 8C01     		.uleb128 .LEHB2-.LFB1392
 416 000f 04       		.uleb128 .LEHE2-.LEHB2
 417 0010 00       		.uleb128 0
 418 0011 00       		.uleb128 0
 419 0012 D001     		.uleb128 .LEHB3-.LFB1392
 420 0014 04       		.uleb128 .LEHE3-.LEHB3
 421 0015 00       		.uleb128 0
 422 0016 00       		.uleb128 0
 423              	.LLSDACSE1392:
 424              		.section	.text._ZN10GuiElement10SetVisibleEb,"axG",@progbits,_ZN10GuiElement10SetVisibleEb,comdat
 425              		.size	_ZN10GuiElement10SetVisibleEb, .-_ZN10GuiElement10SetVisibleEb
 426              		.section	.text._ZN10GuiElement9IsVisibleEv,"axG",@progbits,_ZN10GuiElement9IsVisibleEv,comdat
 427              		.align 2
 428              		.weak	_ZN10GuiElement9IsVisibleEv
 429              		.type	_ZN10GuiElement9IsVisibleEv, @function
 430              	_ZN10GuiElement9IsVisibleEv:
 431              	.LFB1393:
 432              		.loc 2 142 0
 433              		.cfi_startproc
 434              	.LVL34:
 435              		.loc 2 142 0
 436 0000 8863001D 		lbz 3,29(3)
 437              	.LVL35:
 438 0004 4E800020 		blr
 439              		.cfi_endproc
 440              	.LFE1393:
 441              		.size	_ZN10GuiElement9IsVisibleEv, .-_ZN10GuiElement9IsVisibleEv
 442              		.section	.text._ZN10GuiElement12IsSelectableEv,"axG",@progbits,_ZN10GuiElement12IsSelectableEv,com
 443              		.align 2
 444              		.weak	_ZN10GuiElement12IsSelectableEv
 445              		.type	_ZN10GuiElement12IsSelectableEv, @function
 446              	_ZN10GuiElement12IsSelectableEv:
 447              	.LFB1394:
 448              		.loc 2 145 0
 449              		.cfi_startproc
 450              	.LVL36:
 451              		.loc 2 149 0
 452 0000 80030048 		lwz 0,72(3)
 453 0004 39200000 		li 9,0
 454 0008 2F800004 		cmpwi 7,0,4
 455 000c 419E0010 		beq- 7,.L26
 456              		.loc 2 149 0 is_stmt 0 discriminator 1
 457 0010 2F800002 		cmpwi 7,0,2
 458 0014 419E0008 		beq- 7,.L26
 459              		.loc 2 149 0 discriminator 3
 460 0018 8923001E 		lbz 9,30(3)
 461              	.L26:
 462              		.loc 2 150 0 is_stmt 1 discriminator 5
 463 001c 7D234B78 		mr 3,9
 464              	.LVL37:
 465 0020 4E800020 		blr
 466              		.cfi_endproc
 467              	.LFE1394:
 468              		.size	_ZN10GuiElement12IsSelectableEv, .-_ZN10GuiElement12IsSelectableEv
 469              		.section	.text._ZN10GuiElement11IsClickableEv,"axG",@progbits,_ZN10GuiElement11IsClickableEv,comda
 470              		.align 2
 471              		.weak	_ZN10GuiElement11IsClickableEv
 472              		.type	_ZN10GuiElement11IsClickableEv, @function
 473              	_ZN10GuiElement11IsClickableEv:
 474              	.LFB1395:
 475              		.loc 2 153 0
 476              		.cfi_startproc
 477              	.LVL38:
 478              		.loc 2 158 0
 479 0000 80030048 		lwz 0,72(3)
 480 0004 39200000 		li 9,0
 481 0008 2F800004 		cmpwi 7,0,4
 482 000c 419E0018 		beq- 7,.L30
 483              		.loc 2 158 0 is_stmt 0 discriminator 1
 484 0010 2F800002 		cmpwi 7,0,2
 485 0014 419E0010 		beq- 7,.L30
 486              		.loc 2 158 0 discriminator 3
 487 0018 2F800003 		cmpwi 7,0,3
 488 001c 419E0008 		beq- 7,.L30
 489              		.loc 2 158 0 discriminator 4
 490 0020 8923001F 		lbz 9,31(3)
 491              	.L30:
 492              		.loc 2 159 0 is_stmt 1 discriminator 6
 493 0024 7D234B78 		mr 3,9
 494              	.LVL39:
 495 0028 4E800020 		blr
 496              		.cfi_endproc
 497              	.LFE1395:
 498              		.size	_ZN10GuiElement11IsClickableEv, .-_ZN10GuiElement11IsClickableEv
 499              		.section	.text._ZN10GuiElement10IsHoldableEv,"axG",@progbits,_ZN10GuiElement10IsHoldableEv,comdat
 500              		.align 2
 501              		.weak	_ZN10GuiElement10IsHoldableEv
 502              		.type	_ZN10GuiElement10IsHoldableEv, @function
 503              	_ZN10GuiElement10IsHoldableEv:
 504              	.LFB1396:
 505              		.loc 2 162 0
 506              		.cfi_startproc
 507              	.LVL40:
 508              		.loc 2 162 0
 509 0000 81230048 		lwz 9,72(3)
 510 0004 38000000 		li 0,0
 511 0008 2F890004 		cmpwi 7,9,4
 512 000c 419E0008 		beq- 7,.L35
 513              		.loc 2 162 0 is_stmt 0 discriminator 1
 514 0010 88030020 		lbz 0,32(3)
 515              	.L35:
 516              		.loc 2 162 0 discriminator 4
 517 0014 7C030378 		mr 3,0
 518              	.LVL41:
 519 0018 4E800020 		blr
 520              		.cfi_endproc
 521              	.LFE1396:
 522              		.size	_ZN10GuiElement10IsHoldableEv, .-_ZN10GuiElement10IsHoldableEv
 523              		.section	.text._ZN10GuiElement13SetSelectableEb,"axG",@progbits,_ZN10GuiElement13SetSelectableEb,c
 524              		.align 2
 525              		.weak	_ZN10GuiElement13SetSelectableEb
 526              		.type	_ZN10GuiElement13SetSelectableEb, @function
 527              	_ZN10GuiElement13SetSelectableEb:
 528              	.LFB1397:
 529              		.loc 2 165 0 is_stmt 1
 530              		.cfi_startproc
 531              	.LVL42:
 532              		.loc 2 165 0
 533 0000 9883001E 		stb 4,30(3)
 534 0004 4E800020 		blr
 535              		.cfi_endproc
 536              	.LFE1397:
 537              		.size	_ZN10GuiElement13SetSelectableEb, .-_ZN10GuiElement13SetSelectableEb
 538              		.section	.text._ZN10GuiElement12SetClickableEb,"axG",@progbits,_ZN10GuiElement12SetClickableEb,com
 539              		.align 2
 540              		.weak	_ZN10GuiElement12SetClickableEb
 541              		.type	_ZN10GuiElement12SetClickableEb, @function
 542              	_ZN10GuiElement12SetClickableEb:
 543              	.LFB1398:
 544              		.loc 2 168 0
 545              		.cfi_startproc
 546              	.LVL43:
 547              		.loc 2 168 0
 548 0000 9883001F 		stb 4,31(3)
 549 0004 4E800020 		blr
 550              		.cfi_endproc
 551              	.LFE1398:
 552              		.size	_ZN10GuiElement12SetClickableEb, .-_ZN10GuiElement12SetClickableEb
 553              		.section	.text._ZN10GuiElement11SetHoldableEb,"axG",@progbits,_ZN10GuiElement11SetHoldableEb,comda
 554              		.align 2
 555              		.weak	_ZN10GuiElement11SetHoldableEb
 556              		.type	_ZN10GuiElement11SetHoldableEb, @function
 557              	_ZN10GuiElement11SetHoldableEb:
 558              	.LFB1399:
 559              		.loc 2 171 0
 560              		.cfi_startproc
 561              	.LVL44:
 562              		.loc 2 171 0
 563 0000 98830020 		stb 4,32(3)
 564 0004 4E800020 		blr
 565              		.cfi_endproc
 566              	.LFE1399:
 567              		.size	_ZN10GuiElement11SetHoldableEb, .-_ZN10GuiElement11SetHoldableEb
 568              		.section	.text._ZN10GuiElement8GetStateEv,"axG",@progbits,_ZN10GuiElement8GetStateEv,comdat
 569              		.align 2
 570              		.weak	_ZN10GuiElement8GetStateEv
 571              		.type	_ZN10GuiElement8GetStateEv, @function
 572              	_ZN10GuiElement8GetStateEv:
 573              	.LFB1400:
 574              		.loc 2 178 0
 575              		.cfi_startproc
 576              	.LVL45:
 577              		.loc 2 178 0
 578 0000 80630048 		lwz 3,72(3)
 579              	.LVL46:
 580 0004 4E800020 		blr
 581              		.cfi_endproc
 582              	.LFE1400:
 583              		.size	_ZN10GuiElement8GetStateEv, .-_ZN10GuiElement8GetStateEv
 584              		.section	.text._ZN10GuiElement12GetStateChanEv,"axG",@progbits,_ZN10GuiElement12GetStateChanEv,com
 585              		.align 2
 586              		.weak	_ZN10GuiElement12GetStateChanEv
 587              		.type	_ZN10GuiElement12GetStateChanEv, @function
 588              	_ZN10GuiElement12GetStateChanEv:
 589              	.LFB1401:
 590              		.loc 2 181 0
 591              		.cfi_startproc
 592              	.LVL47:
 593              		.loc 2 181 0
 594 0000 8063004C 		lwz 3,76(3)
 595              	.LVL48:
 596 0004 4E800020 		blr
 597              		.cfi_endproc
 598              	.LFE1401:
 599              		.size	_ZN10GuiElement12GetStateChanEv, .-_ZN10GuiElement12GetStateChanEv
 600              		.section	.text._ZN10GuiElement8SetAlphaEi,"axG",@progbits,_ZN10GuiElement8SetAlphaEi,comdat
 601              		.align 2
 602              		.weak	_ZN10GuiElement8SetAlphaEi
 603              		.type	_ZN10GuiElement8SetAlphaEi, @function
 604              	_ZN10GuiElement8SetAlphaEi:
 605              	.LFB1403:
 606              		.loc 2 190 0
 607              		.cfi_startproc
 608              	.LVL49:
 609              		.loc 2 190 0
 610 0000 90830038 		stw 4,56(3)
 611 0004 4E800020 		blr
 612              		.cfi_endproc
 613              	.LFE1403:
 614              		.size	_ZN10GuiElement8SetAlphaEi, .-_ZN10GuiElement8SetAlphaEi
 615              		.section	.text._ZN10GuiElement8GetAlphaEv,"axG",@progbits,_ZN10GuiElement8GetAlphaEv,comdat
 616              		.align 2
 617              		.weak	_ZN10GuiElement8GetAlphaEv
 618              		.type	_ZN10GuiElement8GetAlphaEv, @function
 619              	_ZN10GuiElement8GetAlphaEv:
 620              	.LFB1404:
 621              		.loc 2 194 0
 622              		.cfi_startproc
 623              	.LVL50:
 624 0000 7C0802A6 		mflr 0
 625 0004 9421FFD8 		stwu 1,-40(1)
 626              	.LCFI5:
 627              		.cfi_def_cfa_offset 40
 628              		.cfi_register 65, 0
 629 0008 93E10024 		stw 31,36(1)
 630 000c 9001002C 		stw 0,44(1)
 631              	.LBB1296:
 632              		.loc 2 198 0
 633 0010 83E3006C 		lwz 31,108(3)
 634              		.cfi_offset 65, 4
 635              		.cfi_offset 31, -4
 636 0014 2F9F0000 		cmpwi 7,31,0
 637 0018 419C0094 		blt- 7,.L46
 638              	.L44:
 639              	.LVL51:
 640              		.loc 2 203 0
 641 001c 80630060 		lwz 3,96(3)
 642              	.LVL52:
 643 0020 2F830000 		cmpwi 7,3,0
 644 0024 419E0070 		beq- 7,.L45
 645              		.loc 2 204 0
 646 0028 81230000 		lwz 9,0(3)
 647 002c 6FFF8000 		xoris 31,31,0x8000
 648              	.LVL53:
 649 0030 80090064 		lwz 0,100(9)
 650 0034 7C0903A6 		mtctr 0
 651 0038 4E800421 		bctrl
 652 003c 3C004330 		lis 0,0x4330
 653 0040 6C638000 		xoris 3,3,0x8000
 654 0044 90010010 		stw 0,16(1)
 655 0048 90610014 		stw 3,20(1)
 656 004c 3D200000 		lis 9,.LC1@ha
 657 0050 C0090000 		lfs 0,.LC1@l(9)
 658 0054 3D200000 		lis 9,.LC2@ha
 659 0058 C9A10010 		lfd 13,16(1)
 660 005c C1890004 		lfs 12,.LC2@l(9)
 661 0060 39210018 		addi 9,1,24
 662 0064 FDAD0028 		fsub 13,13,0
 663 0068 93E1000C 		stw 31,12(1)
 664 006c 90010008 		stw 0,8(1)
 665 0070 FDA06818 		frsp 13,13
 666 0074 EDAD6024 		fdivs 13,13,12
 667 0078 C9810008 		lfd 12,8(1)
 668 007c FC0C0028 		fsub 0,12,0
 669 0080 FC000018 		frsp 0,0
 670 0084 EC000372 		fmuls 0,0,13
 671 0088 FC00001E 		fctiwz 0,0
 672 008c 7C004FAE 		stfiwx 0,0,9
 673 0090 83E10018 		lwz 31,24(1)
 674              	.LVL54:
 675              	.L45:
 676              	.LBE1296:
 677              		.loc 2 207 0
 678 0094 8001002C 		lwz 0,44(1)
 679 0098 7FE3FB78 		mr 3,31
 680 009c 83E10024 		lwz 31,36(1)
 681              	.LVL55:
 682 00a0 7C0803A6 		mtlr 0
 683 00a4 38210028 		addi 1,1,40
 684              		.cfi_remember_state
 685              	.LCFI6:
 686              		.cfi_def_cfa_offset 0
 687              		.cfi_restore 31
 688 00a8 4E800020 		blr
 689              	.LVL56:
 690              	.L46:
 691              	.LCFI7:
 692              		.cfi_restore_state
 693              	.LBB1297:
 694              		.loc 2 201 0
 695 00ac 83E30038 		lwz 31,56(3)
 696              	.LVL57:
 697 00b0 4BFFFF6C 		b .L44
 698              	.LBE1297:
 699              		.cfi_endproc
 700              	.LFE1404:
 701              		.size	_ZN10GuiElement8GetAlphaEv, .-_ZN10GuiElement8GetAlphaEv
 702              		.section	.text._ZN10GuiElement8SetScaleEf,"axG",@progbits,_ZN10GuiElement8SetScaleEf,comdat
 703              		.align 2
 704              		.weak	_ZN10GuiElement8SetScaleEf
 705              		.type	_ZN10GuiElement8SetScaleEf, @function
 706              	_ZN10GuiElement8SetScaleEf:
 707              	.LFB1405:
 708              		.loc 2 210 0
 709              		.cfi_startproc
 710              	.LVL58:
 711              		.loc 2 212 0
 712 0000 D023003C 		stfs 1,60(3)
 713              		.loc 2 214 0
 714              		.loc 2 213 0
 715 0004 D0230040 		stfs 1,64(3)
 716              		.loc 2 214 0
 717 0008 4E800020 		blr
 718              		.cfi_endproc
 719              	.LFE1405:
 720              		.size	_ZN10GuiElement8SetScaleEf, .-_ZN10GuiElement8SetScaleEf
 721              		.section	.text._ZN10GuiElement9SetScaleXEf,"axG",@progbits,_ZN10GuiElement9SetScaleXEf,comdat
 722              		.align 2
 723              		.weak	_ZN10GuiElement9SetScaleXEf
 724              		.type	_ZN10GuiElement9SetScaleXEf, @function
 725              	_ZN10GuiElement9SetScaleXEf:
 726              	.LFB1406:
 727              		.loc 2 217 0
 728              		.cfi_startproc
 729              	.LVL59:
 730              		.loc 2 217 0
 731 0000 D023003C 		stfs 1,60(3)
 732 0004 4E800020 		blr
 733              		.cfi_endproc
 734              	.LFE1406:
 735              		.size	_ZN10GuiElement9SetScaleXEf, .-_ZN10GuiElement9SetScaleXEf
 736              		.section	.text._ZN10GuiElement9SetScaleYEf,"axG",@progbits,_ZN10GuiElement9SetScaleYEf,comdat
 737              		.align 2
 738              		.weak	_ZN10GuiElement9SetScaleYEf
 739              		.type	_ZN10GuiElement9SetScaleYEf, @function
 740              	_ZN10GuiElement9SetScaleYEf:
 741              	.LFB1407:
 742              		.loc 2 220 0
 743              		.cfi_startproc
 744              	.LVL60:
 745              		.loc 2 220 0
 746 0000 D0230040 		stfs 1,64(3)
 747 0004 4E800020 		blr
 748              		.cfi_endproc
 749              	.LFE1407:
 750              		.size	_ZN10GuiElement9SetScaleYEf, .-_ZN10GuiElement9SetScaleYEf
 751              		.section	.text._ZN10GuiElement8GetScaleEv,"axG",@progbits,_ZN10GuiElement8GetScaleEv,comdat
 752              		.align 2
 753              		.weak	_ZN10GuiElement8GetScaleEv
 754              		.type	_ZN10GuiElement8GetScaleEv, @function
 755              	_ZN10GuiElement8GetScaleEv:
 756              	.LFB1408:
 757              		.loc 2 223 0
 758              		.cfi_startproc
 759              	.LVL61:
 760 0000 7C0802A6 		mflr 0
 761 0004 9421FFF0 		stwu 1,-16(1)
 762              	.LCFI8:
 763              		.cfi_def_cfa_offset 16
 764              		.cfi_register 65, 0
 765              	.LBB1298:
 766              		.loc 2 225 0
 767 0008 3D200000 		lis 9,.LC3@ha
 768              	.LBE1298:
 769              		.loc 2 223 0
 770 000c DBE10008 		stfd 31,8(1)
 771 0010 90010014 		stw 0,20(1)
 772              	.LBB1299:
 773              		.loc 2 225 0
 774 0014 C0030040 		lfs 0,64(3)
 775 0018 C3E3003C 		lfs 31,60(3)
 776              		.cfi_offset 65, 4
 777              		.cfi_offset 63, -8
 778              		.loc 2 227 0
 779 001c 81630060 		lwz 11,96(3)
 780              		.loc 2 225 0
 781 0020 EFFF002A 		fadds 31,31,0
 782 0024 C0090008 		lfs 0,.LC3@l(9)
 783              		.loc 2 227 0
 784 0028 2F8B0000 		cmpwi 7,11,0
 785              		.loc 2 225 0
 786 002c EFFF0032 		fmuls 31,31,0
 787 0030 C0030070 		lfs 0,112(3)
 788 0034 EFFF0032 		fmuls 31,31,0
 789              	.LVL62:
 790              		.loc 2 227 0
 791 0038 419E001C 		beq- 7,.L51
 792              		.loc 2 228 0
 793 003c 812B0000 		lwz 9,0(11)
 794 0040 7D635B78 		mr 3,11
 795              	.LVL63:
 796 0044 80090074 		lwz 0,116(9)
 797 0048 7C0903A6 		mtctr 0
 798 004c 4E800421 		bctrl
 799 0050 EFFF0072 		fmuls 31,31,1
 800              	.LVL64:
 801              	.L51:
 802              	.LBE1299:
 803              		.loc 2 231 0
 804 0054 80010014 		lwz 0,20(1)
 805 0058 FC20F890 		fmr 1,31
 806 005c CBE10008 		lfd 31,8(1)
 807              	.LVL65:
 808 0060 7C0803A6 		mtlr 0
 809 0064 38210010 		addi 1,1,16
 810              	.LCFI9:
 811              		.cfi_def_cfa_offset 0
 812              		.cfi_restore 63
 813 0068 4E800020 		blr
 814              		.cfi_endproc
 815              	.LFE1408:
 816              		.size	_ZN10GuiElement8GetScaleEv, .-_ZN10GuiElement8GetScaleEv
 817              		.section	.text._ZN10GuiElement9GetScaleXEv,"axG",@progbits,_ZN10GuiElement9GetScaleXEv,comdat
 818              		.align 2
 819              		.weak	_ZN10GuiElement9GetScaleXEv
 820              		.type	_ZN10GuiElement9GetScaleXEv, @function
 821              	_ZN10GuiElement9GetScaleXEv:
 822              	.LFB1409:
 823              		.loc 2 234 0
 824              		.cfi_startproc
 825              	.LVL66:
 826 0000 7C0802A6 		mflr 0
 827 0004 9421FFF0 		stwu 1,-16(1)
 828              	.LCFI10:
 829              		.cfi_def_cfa_offset 16
 830              		.cfi_register 65, 0
 831 0008 DBE10008 		stfd 31,8(1)
 832 000c 90010014 		stw 0,20(1)
 833              	.LBB1300:
 834              		.loc 2 238 0
 835 0010 81630060 		lwz 11,96(3)
 836              		.loc 2 236 0
 837 0014 C3E3003C 		lfs 31,60(3)
 838              		.cfi_offset 65, 4
 839              		.cfi_offset 63, -8
 840              		.loc 2 238 0
 841 0018 2F8B0000 		cmpwi 7,11,0
 842              		.loc 2 236 0
 843 001c C0030070 		lfs 0,112(3)
 844 0020 EFFF0032 		fmuls 31,31,0
 845              	.LVL67:
 846              		.loc 2 238 0
 847 0024 419E001C 		beq- 7,.L53
 848              		.loc 2 239 0
 849 0028 812B0000 		lwz 9,0(11)
 850 002c 7D635B78 		mr 3,11
 851              	.LVL68:
 852 0030 80090078 		lwz 0,120(9)
 853 0034 7C0903A6 		mtctr 0
 854 0038 4E800421 		bctrl
 855 003c EFFF0072 		fmuls 31,31,1
 856              	.LVL69:
 857              	.L53:
 858              	.LBE1300:
 859              		.loc 2 242 0
 860 0040 80010014 		lwz 0,20(1)
 861 0044 FC20F890 		fmr 1,31
 862 0048 CBE10008 		lfd 31,8(1)
 863              	.LVL70:
 864 004c 7C0803A6 		mtlr 0
 865 0050 38210010 		addi 1,1,16
 866              	.LCFI11:
 867              		.cfi_def_cfa_offset 0
 868              		.cfi_restore 63
 869 0054 4E800020 		blr
 870              		.cfi_endproc
 871              	.LFE1409:
 872              		.size	_ZN10GuiElement9GetScaleXEv, .-_ZN10GuiElement9GetScaleXEv
 873              		.section	.text._ZN10GuiElement9GetScaleYEv,"axG",@progbits,_ZN10GuiElement9GetScaleYEv,comdat
 874              		.align 2
 875              		.weak	_ZN10GuiElement9GetScaleYEv
 876              		.type	_ZN10GuiElement9GetScaleYEv, @function
 877              	_ZN10GuiElement9GetScaleYEv:
 878              	.LFB1410:
 879              		.loc 2 245 0
 880              		.cfi_startproc
 881              	.LVL71:
 882 0000 7C0802A6 		mflr 0
 883 0004 9421FFF0 		stwu 1,-16(1)
 884              	.LCFI12:
 885              		.cfi_def_cfa_offset 16
 886              		.cfi_register 65, 0
 887 0008 DBE10008 		stfd 31,8(1)
 888 000c 90010014 		stw 0,20(1)
 889              	.LBB1301:
 890              		.loc 2 249 0
 891 0010 81630060 		lwz 11,96(3)
 892              		.loc 2 247 0
 893 0014 C3E30040 		lfs 31,64(3)
 894              		.cfi_offset 65, 4
 895              		.cfi_offset 63, -8
 896              		.loc 2 249 0
 897 0018 2F8B0000 		cmpwi 7,11,0
 898              		.loc 2 247 0
 899 001c C0030070 		lfs 0,112(3)
 900 0020 EFFF0032 		fmuls 31,31,0
 901              	.LVL72:
 902              		.loc 2 249 0
 903 0024 419E001C 		beq- 7,.L55
 904              		.loc 2 250 0
 905 0028 812B0000 		lwz 9,0(11)
 906 002c 7D635B78 		mr 3,11
 907              	.LVL73:
 908 0030 8009007C 		lwz 0,124(9)
 909 0034 7C0903A6 		mtctr 0
 910 0038 4E800421 		bctrl
 911 003c EFFF0072 		fmuls 31,31,1
 912              	.LVL74:
 913              	.L55:
 914              	.LBE1301:
 915              		.loc 2 253 0
 916 0040 80010014 		lwz 0,20(1)
 917 0044 FC20F890 		fmr 1,31
 918 0048 CBE10008 		lfd 31,8(1)
 919              	.LVL75:
 920 004c 7C0803A6 		mtlr 0
 921 0050 38210010 		addi 1,1,16
 922              	.LCFI13:
 923              		.cfi_def_cfa_offset 0
 924              		.cfi_restore 63
 925 0054 4E800020 		blr
 926              		.cfi_endproc
 927              	.LFE1410:
 928              		.size	_ZN10GuiElement9GetScaleYEv, .-_ZN10GuiElement9GetScaleYEv
 929              		.section	.text._ZN10GuiElement6RumbleEv,"axG",@progbits,_ZN10GuiElement6RumbleEv,comdat
 930              		.align 2
 931              		.weak	_ZN10GuiElement6RumbleEv
 932              		.type	_ZN10GuiElement6RumbleEv, @function
 933              	_ZN10GuiElement6RumbleEv:
 934              	.LFB1411:
 935              		.loc 2 256 0
 936              		.cfi_startproc
 937              	.LVL76:
 938              		.loc 2 256 0
 939 0000 8863001C 		lbz 3,28(3)
 940              	.LVL77:
 941 0004 4E800020 		blr
 942              		.cfi_endproc
 943              	.LFE1411:
 944              		.size	_ZN10GuiElement6RumbleEv, .-_ZN10GuiElement6RumbleEv
 945              		.section	.text._ZN10GuiElement9SetRumbleEb,"axG",@progbits,_ZN10GuiElement9SetRumbleEb,comdat
 946              		.align 2
 947              		.weak	_ZN10GuiElement9SetRumbleEb
 948              		.type	_ZN10GuiElement9SetRumbleEb, @function
 949              	_ZN10GuiElement9SetRumbleEb:
 950              	.LFB1412:
 951              		.loc 2 259 0
 952              		.cfi_startproc
 953              	.LVL78:
 954              		.loc 2 259 0
 955 0000 9883001C 		stb 4,28(3)
 956 0004 4E800020 		blr
 957              		.cfi_endproc
 958              	.LFE1412:
 959              		.size	_ZN10GuiElement9SetRumbleEb, .-_ZN10GuiElement9SetRumbleEb
 960              		.section	.text._ZN10GuiElement13SetEffectGrowEv,"axG",@progbits,_ZN10GuiElement13SetEffectGrowEv,c
 961              		.align 2
 962              		.weak	_ZN10GuiElement13SetEffectGrowEv
 963              		.type	_ZN10GuiElement13SetEffectGrowEv, @function
 964              	_ZN10GuiElement13SetEffectGrowEv:
 965              	.LFB1413:
 966              		.loc 2 271 0
 967              		.cfi_startproc
 968              	.LVL79:
 969 0000 7C0802A6 		mflr 0
 970 0004 9421FFF8 		stwu 1,-8(1)
 971              	.LCFI14:
 972              		.cfi_def_cfa_offset 8
 973              		.cfi_register 65, 0
 974 0008 81230000 		lwz 9,0(3)
 975 000c 38800100 		li 4,256
 976 0010 38A00004 		li 5,4
 977 0014 38C0006E 		li 6,110
 978 0018 9001000C 		stw 0,12(1)
 979              		.loc 2 271 0
 980 001c 8009008C 		lwz 0,140(9)
 981              		.cfi_offset 65, 4
 982 0020 7C0903A6 		mtctr 0
 983 0024 4E800421 		bctrl
 984              	.LVL80:
 985 0028 8001000C 		lwz 0,12(1)
 986 002c 38210008 		addi 1,1,8
 987              	.LCFI15:
 988              		.cfi_def_cfa_offset 0
 989 0030 7C0803A6 		mtlr 0
 990 0034 4E800020 		blr
 991              		.cfi_endproc
 992              	.LFE1413:
 993              		.size	_ZN10GuiElement13SetEffectGrowEv, .-_ZN10GuiElement13SetEffectGrowEv
 994              		.section	.text._ZNK10GuiElement9GetEffectEv,"axG",@progbits,_ZNK10GuiElement9GetEffectEv,comdat
 995              		.align 2
 996              		.weak	_ZNK10GuiElement9GetEffectEv
 997              		.type	_ZNK10GuiElement9GetEffectEv, @function
 998              	_ZNK10GuiElement9GetEffectEv:
 999              	.LFB1414:
 1000              		.loc 2 276 0
 1001              		.cfi_startproc
 1002              	.LVL81:
 1003              		.loc 2 276 0
 1004 0000 80630078 		lwz 3,120(3)
 1005              	.LVL82:
 1006 0004 4E800020 		blr
 1007              		.cfi_endproc
 1008              	.LFE1414:
 1009              		.size	_ZNK10GuiElement9GetEffectEv, .-_ZNK10GuiElement9GetEffectEv
 1010              		.section	.text._ZNK10GuiElement10IsAnimatedEv,"axG",@progbits,_ZNK10GuiElement10IsAnimatedEv,comda
 1011              		.align 2
 1012              		.weak	_ZNK10GuiElement10IsAnimatedEv
 1013              		.type	_ZNK10GuiElement10IsAnimatedEv, @function
 1014              	_ZNK10GuiElement10IsAnimatedEv:
 1015              	.LFB1415:
 1016              		.loc 2 278 0
 1017              		.cfi_startproc
 1018              	.LVL83:
 1019 0000 7C0802A6 		mflr 0
 1020 0004 9421FFF8 		stwu 1,-8(1)
 1021              	.LCFI16:
 1022              		.cfi_def_cfa_offset 8
 1023              		.cfi_register 65, 0
 1024 0008 9001000C 		stw 0,12(1)
 1025              		.loc 2 278 0
 1026 000c 81230000 		lwz 9,0(3)
 1027 0010 80090098 		lwz 0,152(9)
 1028              		.cfi_offset 65, 4
 1029 0014 7C0903A6 		mtctr 0
 1030 0018 4E800421 		bctrl
 1031              	.LVL84:
 1032 001c 7C60FE70 		srawi 0,3,31
 1033 0020 7C630050 		subf 3,3,0
 1034 0024 8001000C 		lwz 0,12(1)
 1035 0028 54630FFE 		srwi 3,3,31
 1036 002c 7C0803A6 		mtlr 0
 1037 0030 38210008 		addi 1,1,8
 1038              	.LCFI17:
 1039              		.cfi_def_cfa_offset 0
 1040 0034 4E800020 		blr
 1041              		.cfi_endproc
 1042              	.LFE1415:
 1043              		.size	_ZNK10GuiElement10IsAnimatedEv, .-_ZNK10GuiElement10IsAnimatedEv
 1044              		.section	.text._ZN10GuiElement9SetBoundsE4RectIiE,"axG",@progbits,_ZN10GuiElement9SetBoundsE4RectI
 1045              		.align 2
 1046              		.weak	_ZN10GuiElement9SetBoundsE4RectIiE
 1047              		.type	_ZN10GuiElement9SetBoundsE4RectIiE, @function
 1048              	_ZN10GuiElement9SetBoundsE4RectIiE:
 1049              	.LFB1416:
 1050              		.loc 2 280 0
 1051              		.cfi_startproc
 1052              	.LVL85:
 1053              	.LBB1302:
 1054              	.LBB1303:
 1055              		.file 5 "d:/Projects/SaveGameManager/savegame-manager-gx/trunk/source/GUI/../Tools/Rect.h"
 1056              		.loc 5 30 0
 1057 0000 81440000 		lwz 10,0(4)
 1058              	.LBE1303:
 1059              	.LBE1302:
 1060              		.loc 2 280 0
 1061              	.LBB1305:
 1062              	.LBB1304:
 1063              		.loc 5 31 0
 1064 0004 81640008 		lwz 11,8(4)
 1065              		.loc 5 32 0
 1066 0008 81240004 		lwz 9,4(4)
 1067              		.loc 5 33 0
 1068 000c 8004000C 		lwz 0,12(4)
 1069              	.LVL86:
 1070              		.loc 5 30 0
 1071 0010 91430050 		stw 10,80(3)
 1072              		.loc 5 31 0
 1073 0014 91630058 		stw 11,88(3)
 1074              		.loc 5 32 0
 1075 0018 91230054 		stw 9,84(3)
 1076              		.loc 5 33 0
 1077 001c 9003005C 		stw 0,92(3)
 1078              	.LBE1304:
 1079              	.LBE1305:
 1080              		.loc 2 280 0
 1081 0020 4E800020 		blr
 1082              		.cfi_endproc
 1083              	.LFE1416:
 1084              		.size	_ZN10GuiElement9SetBoundsE4RectIiE, .-_ZN10GuiElement9SetBoundsE4RectIiE
 1085              		.section	.text._ZN10GuiElement8IsInsideEii,"axG",@progbits,_ZN10GuiElement8IsInsideEii,comdat
 1086              		.align 2
 1087              		.weak	_ZN10GuiElement8IsInsideEii
 1088              		.type	_ZN10GuiElement8IsInsideEii, @function
 1089              	_ZN10GuiElement8IsInsideEii:
 1090              	.LFB1417:
 1091              		.loc 2 285 0
 1092              		.cfi_startproc
 1093              	.LVL87:
 1094 0000 7C0802A6 		mflr 0
 1095 0004 9421FFE8 		stwu 1,-24(1)
 1096              	.LCFI18:
 1097              		.cfi_def_cfa_offset 24
 1098              		.cfi_register 65, 0
 1099 0008 93810008 		stw 28,8(1)
 1100 000c 7CBC2B78 		mr 28,5
 1101              		.cfi_offset 28, -16
 1102 0010 9001001C 		stw 0,28(1)
 1103 0014 93A1000C 		stw 29,12(1)
 1104              		.loc 2 290 0
 1105 0018 3BA00000 		li 29,0
 1106              		.cfi_offset 29, -12
 1107              		.cfi_offset 65, 4
 1108              		.loc 2 287 0
 1109 001c 81230000 		lwz 9,0(3)
 1110              		.loc 2 285 0
 1111 0020 93C10010 		stw 30,16(1)
 1112 0024 7C9E2378 		mr 30,4
 1113              		.cfi_offset 30, -8
 1114              		.loc 2 287 0
 1115 0028 80090010 		lwz 0,16(9)
 1116              		.loc 2 285 0
 1117 002c 93E10014 		stw 31,20(1)
 1118              		.loc 2 285 0
 1119 0030 7C7F1B78 		mr 31,3
 1120              		.cfi_offset 31, -4
 1121              		.loc 2 287 0
 1122 0034 7C0903A6 		mtctr 0
 1123 0038 4E800421 		bctrl
 1124              	.LVL88:
 1125              		.loc 2 290 0
 1126 003c 7F83F000 		cmpw 7,3,30
 1127 0040 419C0028 		blt- 7,.L67
 1128              	.L63:
 1129              		.loc 2 291 0 discriminator 6
 1130 0044 8001001C 		lwz 0,28(1)
 1131 0048 7FA3EB78 		mr 3,29
 1132 004c 83810008 		lwz 28,8(1)
 1133              	.LVL89:
 1134 0050 7C0803A6 		mtlr 0
 1135 0054 83A1000C 		lwz 29,12(1)
 1136 0058 83C10010 		lwz 30,16(1)
 1137              	.LVL90:
 1138 005c 83E10014 		lwz 31,20(1)
 1139              	.LVL91:
 1140 0060 38210018 		addi 1,1,24
 1141              		.cfi_remember_state
 1142              	.LCFI19:
 1143              		.cfi_def_cfa_offset 0
 1144              		.cfi_restore 31
 1145              		.cfi_restore 30
 1146              		.cfi_restore 29
 1147              		.cfi_restore 28
 1148 0064 4E800020 		blr
 1149              	.LVL92:
 1150              	.L67:
 1151              	.LCFI20:
 1152              		.cfi_restore_state
 1153              		.loc 2 288 0 discriminator 1
 1154 0068 813F0000 		lwz 9,0(31)
 1155 006c 7FE3FB78 		mr 3,31
 1156 0070 80090010 		lwz 0,16(9)
 1157 0074 7C0903A6 		mtctr 0
 1158 0078 4E800421 		bctrl
 1159              		.loc 2 290 0 discriminator 1
 1160 007c 801F0024 		lwz 0,36(31)
 1161 0080 7C030214 		add 0,3,0
 1162 0084 7F9E0000 		cmpw 7,30,0
 1163 0088 409CFFBC 		bge+ 7,.L63
 1164              		.loc 2 289 0 discriminator 3
 1165 008c 813F0000 		lwz 9,0(31)
 1166 0090 7FE3FB78 		mr 3,31
 1167 0094 80090014 		lwz 0,20(9)
 1168 0098 7C0903A6 		mtctr 0
 1169 009c 4E800421 		bctrl
 1170              		.loc 2 290 0 discriminator 3
 1171 00a0 7F83E000 		cmpw 7,3,28
 1172 00a4 409CFFA0 		bge+ 7,.L63
 1173              		.loc 2 290 0 is_stmt 0 discriminator 4
 1174 00a8 813F0000 		lwz 9,0(31)
 1175 00ac 7FE3FB78 		mr 3,31
 1176 00b0 80090014 		lwz 0,20(9)
 1177 00b4 7C0903A6 		mtctr 0
 1178 00b8 4E800421 		bctrl
 1179 00bc 801F0028 		lwz 0,40(31)
 1180 00c0 7C030214 		add 0,3,0
 1181              		.loc 2 285 0 is_stmt 1 discriminator 4
 1182 00c4 7F9C0000 		cmpw 7,28,0
 1183 00c8 7FA00026 		mfcr 29
 1184 00cc 57BDEFFE 		rlwinm 29,29,29,1
 1185 00d0 4BFFFF74 		b .L63
 1186              		.cfi_endproc
 1187              	.LFE1417:
 1188              		.size	_ZN10GuiElement8IsInsideEii, .-_ZN10GuiElement8IsInsideEii
 1189              		.section	.text._ZN10GuiElement11SetPositionEii,"axG",@progbits,_ZN10GuiElement11SetPositionEii,com
 1190              		.align 2
 1191              		.weak	_ZN10GuiElement11SetPositionEii
 1192              		.type	_ZN10GuiElement11SetPositionEii, @function
 1193              	_ZN10GuiElement11SetPositionEii:
 1194              	.LFB1418:
 1195              		.loc 2 295 0
 1196              		.cfi_startproc
 1197              	.LVL93:
 1198              		.loc 2 297 0
 1199 0000 9083002C 		stw 4,44(3)
 1200              		.loc 2 299 0
 1201              		.loc 2 298 0
 1202 0004 90A30030 		stw 5,48(3)
 1203              		.loc 2 299 0
 1204 0008 4E800020 		blr
 1205              		.cfi_endproc
 1206              	.LFE1418:
 1207              		.size	_ZN10GuiElement11SetPositionEii, .-_ZN10GuiElement11SetPositionEii
 1208              		.section	.text._ZN10GuiElement11SetPositionEiii,"axG",@progbits,_ZN10GuiElement11SetPositionEiii,c
 1209              		.align 2
 1210              		.weak	_ZN10GuiElement11SetPositionEiii
 1211              		.type	_ZN10GuiElement11SetPositionEiii, @function
 1212              	_ZN10GuiElement11SetPositionEiii:
 1213              	.LFB1419:
 1214              		.loc 2 304 0
 1215              		.cfi_startproc
 1216              	.LVL94:
 1217              		.loc 2 306 0
 1218 0000 9083002C 		stw 4,44(3)
 1219              		.loc 2 309 0
 1220              		.loc 2 307 0
 1221 0004 90A30030 		stw 5,48(3)
 1222              		.loc 2 308 0
 1223 0008 90C30034 		stw 6,52(3)
 1224              		.loc 2 309 0
 1225 000c 4E800020 		blr
 1226              		.cfi_endproc
 1227              	.LFE1419:
 1228              		.size	_ZN10GuiElement11SetPositionEiii, .-_ZN10GuiElement11SetPositionEiii
 1229              		.section	.text._ZN10GuiElement11GetSelectedEv,"axG",@progbits,_ZN10GuiElement11GetSelectedEv,comda
 1230              		.align 2
 1231              		.weak	_ZN10GuiElement11GetSelectedEv
 1232              		.type	_ZN10GuiElement11GetSelectedEv, @function
 1233              	_ZN10GuiElement11GetSelectedEv:
 1234              	.LFB1420:
 1235              		.loc 2 312 0
 1236              		.cfi_startproc
 1237              	.LVL95:
 1238              		.loc 2 312 0
 1239 0000 3860FFFF 		li 3,-1
 1240              	.LVL96:
 1241 0004 4E800020 		blr
 1242              		.cfi_endproc
 1243              	.LFE1420:
 1244              		.size	_ZN10GuiElement11GetSelectedEv, .-_ZN10GuiElement11GetSelectedEv
 1245              		.section	.text._ZN10GuiElement12SetAlignmentEi,"axG",@progbits,_ZN10GuiElement12SetAlignmentEi,com
 1246              		.align 2
 1247              		.weak	_ZN10GuiElement12SetAlignmentEi
 1248              		.type	_ZN10GuiElement12SetAlignmentEi, @function
 1249              	_ZN10GuiElement12SetAlignmentEi:
 1250              	.LFB1421:
 1251              		.loc 2 316 0
 1252              		.cfi_startproc
 1253              	.LVL97:
 1254              		.loc 2 316 0
 1255 0000 90830044 		stw 4,68(3)
 1256 0004 4E800020 		blr
 1257              		.cfi_endproc
 1258              	.LFE1421:
 1259              		.size	_ZN10GuiElement12SetAlignmentEi, .-_ZN10GuiElement12SetAlignmentEi
 1260              		.section	.text._ZNK10GuiElement12GetAlignmentEv,"axG",@progbits,_ZNK10GuiElement12GetAlignmentEv,c
 1261              		.align 2
 1262              		.weak	_ZNK10GuiElement12GetAlignmentEv
 1263              		.type	_ZNK10GuiElement12GetAlignmentEv, @function
 1264              	_ZNK10GuiElement12GetAlignmentEv:
 1265              	.LFB1422:
 1266              		.loc 2 318 0
 1267              		.cfi_startproc
 1268              	.LVL98:
 1269              		.loc 2 318 0
 1270 0000 80630044 		lwz 3,68(3)
 1271              	.LVL99:
 1272 0004 4E800020 		blr
 1273              		.cfi_endproc
 1274              	.LFE1422:
 1275              		.size	_ZNK10GuiElement12GetAlignmentEv, .-_ZNK10GuiElement12GetAlignmentEv
 1276              		.section	.text._ZN10GuiElement6UpdateEP10GuiTrigger,"axG",@progbits,_ZN10GuiElement6UpdateEP10GuiT
 1277              		.align 2
 1278              		.weak	_ZN10GuiElement6UpdateEP10GuiTrigger
 1279              		.type	_ZN10GuiElement6UpdateEP10GuiTrigger, @function
 1280              	_ZN10GuiElement6UpdateEP10GuiTrigger:
 1281              	.LFB1423:
 1282              		.loc 2 321 0
 1283              		.cfi_startproc
 1284              	.LVL100:
 1285              		.loc 2 321 0
 1286 0000 4E800020 		blr
 1287              		.cfi_endproc
 1288              	.LFE1423:
 1289              		.size	_ZN10GuiElement6UpdateEP10GuiTrigger, .-_ZN10GuiElement6UpdateEP10GuiTrigger
 1290              		.section	.text._ZN8GuiCross7SetSizeEii,"axG",@progbits,_ZN8GuiCross7SetSizeEii,comdat
 1291              		.align 2
 1292              		.weak	_ZN8GuiCross7SetSizeEii
 1293              		.type	_ZN8GuiCross7SetSizeEii, @function
 1294              	_ZN8GuiCross7SetSizeEii:
 1295              	.LFB1472:
 1296              		.file 6 "d:/Projects/SaveGameManager/savegame-manager-gx/trunk/source/GUI/gui_cross.hpp"
 1297              		.loc 6 36 0
 1298              		.cfi_startproc
 1299              	.LVL101:
 1300              		.loc 6 36 0
 1301 0000 90830024 		stw 4,36(3)
 1302 0004 90A30028 		stw 5,40(3)
 1303 0008 4E800020 		blr
 1304              		.cfi_endproc
 1305              	.LFE1472:
 1306              		.size	_ZN8GuiCross7SetSizeEii, .-_ZN8GuiCross7SetSizeEii
 1307              		.section	.text._ZN7sigslot12_signal_baseINS_15single_threadedEED2Ev,"axG",@progbits,_ZN7sigslot12_
 1308              		.align 2
 1309              		.weak	_ZN7sigslot12_signal_baseINS_15single_threadedEED2Ev
 1310              		.type	_ZN7sigslot12_signal_baseINS_15single_threadedEED2Ev, @function
 1311              	_ZN7sigslot12_signal_baseINS_15single_threadedEED2Ev:
 1312              	.LFB1503:
 1313              		.loc 1 466 0
 1314              		.cfi_startproc
 1315              	.LVL102:
 1316              	.LBB1306:
 1317              	.LBB1307:
 1318              	.LBB1308:
 1319              	.LBB1309:
 1320              		.loc 1 105 0
 1321 0000 3D200000 		lis 9,_ZTVN7sigslot15single_threadedE+8@ha
 1322              	.LBE1309:
 1323              	.LBE1308:
 1324              	.LBE1307:
 1325              	.LBE1306:
 1326              		.loc 1 466 0
 1327              	.LBB1313:
 1328              	.LBB1312:
 1329              	.LBB1311:
 1330              	.LBB1310:
 1331              		.loc 1 105 0
 1332 0004 38090008 		la 0,_ZTVN7sigslot15single_threadedE+8@l(9)
 1333 0008 90030000 		stw 0,0(3)
 1334              	.LBE1310:
 1335              	.LBE1311:
 1336              	.LBE1312:
 1337              	.LBE1313:
 1338              		.loc 1 466 0
 1339 000c 4E800020 		blr
 1340              		.cfi_endproc
 1341              	.LFE1503:
 1342              		.size	_ZN7sigslot12_signal_baseINS_15single_threadedEED2Ev, .-_ZN7sigslot12_signal_baseINS_15singl
 1343              		.section	.text._ZN7sigslot12_signal_baseINS_15single_threadedEED0Ev,"axG",@progbits,_ZN7sigslot12_
 1344              		.align 2
 1345              		.weak	_ZN7sigslot12_signal_baseINS_15single_threadedEED0Ev
 1346              		.type	_ZN7sigslot12_signal_baseINS_15single_threadedEED0Ev, @function
 1347              	_ZN7sigslot12_signal_baseINS_15single_threadedEED0Ev:
 1348              	.LFB1505:
 1349              		.loc 1 466 0
 1350              		.cfi_startproc
 1351              	.LVL103:
 1352 0000 7C0802A6 		mflr 0
 1353 0004 9421FFF8 		stwu 1,-8(1)
 1354              	.LCFI21:
 1355              		.cfi_def_cfa_offset 8
 1356              		.cfi_register 65, 0
 1357              	.LBB1314:
 1358              	.LBB1315:
 1359              	.LBB1316:
 1360              	.LBB1317:
 1361              	.LBB1318:
 1362              	.LBB1319:
 1363              		.loc 1 105 0
 1364 0008 3D200000 		lis 9,_ZTVN7sigslot15single_threadedE+8@ha
 1365              	.LBE1319:
 1366              	.LBE1318:
 1367              	.LBE1317:
 1368              	.LBE1316:
 1369              	.LBE1315:
 1370              	.LBE1314:
 1371              		.loc 1 466 0
 1372 000c 9001000C 		stw 0,12(1)
 1373              	.LBB1325:
 1374              	.LBB1324:
 1375              	.LBB1323:
 1376              	.LBB1322:
 1377              	.LBB1321:
 1378              	.LBB1320:
 1379              		.loc 1 105 0
 1380 0010 38090008 		la 0,_ZTVN7sigslot15single_threadedE+8@l(9)
 1381              		.cfi_offset 65, 4
 1382 0014 90030000 		stw 0,0(3)
 1383              	.LBE1320:
 1384              	.LBE1321:
 1385              	.LBE1322:
 1386              	.LBE1323:
 1387              	.LBE1324:
 1388              	.LBE1325:
 1389              		.loc 1 466 0
 1390 0018 48000001 		bl _ZdlPv
 1391              	.LVL104:
 1392 001c 8001000C 		lwz 0,12(1)
 1393 0020 38210008 		addi 1,1,8
 1394              	.LCFI22:
 1395              		.cfi_def_cfa_offset 0
 1396 0024 7C0803A6 		mtlr 0
 1397 0028 4E800020 		blr
 1398              		.cfi_endproc
 1399              	.LFE1505:
 1400              		.size	_ZN7sigslot12_signal_baseINS_15single_threadedEED0Ev, .-_ZN7sigslot12_signal_baseINS_15singl
 1401              		.section	.text._ZN7sigslot15single_threadedD0Ev,"axG",@progbits,_ZN7sigslot15single_threadedD5Ev,c
 1402              		.align 2
 1403              		.weak	_ZN7sigslot15single_threadedD0Ev
 1404              		.type	_ZN7sigslot15single_threadedD0Ev, @function
 1405              	_ZN7sigslot15single_threadedD0Ev:
 1406              	.LFB1150:
 1407              		.loc 1 104 0
 1408              		.cfi_startproc
 1409              	.LVL105:
 1410 0000 7C0802A6 		mflr 0
 1411 0004 9421FFF8 		stwu 1,-8(1)
 1412              	.LCFI23:
 1413              		.cfi_def_cfa_offset 8
 1414              		.cfi_register 65, 0
 1415              	.LBB1326:
 1416              	.LBB1327:
 1417              	.LBB1328:
 1418              		.loc 1 105 0
 1419 0008 3D200000 		lis 9,_ZTVN7sigslot15single_threadedE+8@ha
 1420              	.LBE1328:
 1421              	.LBE1327:
 1422              	.LBE1326:
 1423              		.loc 1 104 0
 1424 000c 9001000C 		stw 0,12(1)
 1425              	.LBB1331:
 1426              	.LBB1330:
 1427              	.LBB1329:
 1428              		.loc 1 105 0
 1429 0010 38090008 		la 0,_ZTVN7sigslot15single_threadedE+8@l(9)
 1430              		.cfi_offset 65, 4
 1431 0014 90030000 		stw 0,0(3)
 1432              	.LBE1329:
 1433              	.LBE1330:
 1434              	.LBE1331:
 1435              		.loc 1 107 0
 1436 0018 48000001 		bl _ZdlPv
 1437              	.LVL106:
 1438 001c 8001000C 		lwz 0,12(1)
 1439 0020 38210008 		addi 1,1,8
 1440              	.LCFI24:
 1441              		.cfi_def_cfa_offset 0
 1442 0024 7C0803A6 		mtlr 0
 1443 0028 4E800020 		blr
 1444              		.cfi_endproc
 1445              	.LFE1150:
 1446              		.size	_ZN7sigslot15single_threadedD0Ev, .-_ZN7sigslot15single_threadedD0Ev
 1447              		.section	.text._ZN7sigslot13_signal_base3IP10GuiElementiiNS_15single_threadedEE15slot_disconnectEP
 1448              		.align 2
 1449              		.weak	_ZN7sigslot13_signal_base3IP10GuiElementiiNS_15single_threadedEE15slot_disconnectEPNS_9has_s
 1450              		.type	_ZN7sigslot13_signal_base3IP10GuiElementiiNS_15single_threadedEE15slot_disconnectEPNS_9has_s
 1451              	_ZN7sigslot13_signal_base3IP10GuiElementiiNS_15single_threadedEE15slot_disconnectEPNS_9has_slotsIS3
 1452              	.LFB1716:
 1453              		.loc 1 990 0
 1454              		.cfi_startproc
 1455              		.cfi_personality 0,__gxx_personality_v0
 1456              		.cfi_lsda 0,.LLSDA1716
 1457              	.LVL107:
 1458 0000 7C0802A6 		mflr 0
 1459 0004 9421FFE0 		stwu 1,-32(1)
 1460              	.LCFI25:
 1461              		.cfi_def_cfa_offset 32
 1462              		.cfi_register 65, 0
 1463 0008 9361000C 		stw 27,12(1)
 1464 000c 7C7B1B78 		mr 27,3
 1465              		.cfi_offset 27, -20
 1466              	.LVL108:
 1467 0010 90010024 		stw 0,36(1)
 1468 0014 93810010 		stw 28,16(1)
 1469 0018 7C9C2378 		mr 28,4
 1470              		.cfi_offset 28, -16
 1471              		.cfi_offset 65, 4
 1472              	.LBB1332:
 1473              	.LBB1333:
 1474              	.LBB1334:
 1475              		.loc 1 338 0
 1476 001c 81230000 		lwz 9,0(3)
 1477              	.LBE1334:
 1478              	.LBE1333:
 1479              	.LBE1332:
 1480              		.loc 1 990 0
 1481 0020 93A10014 		stw 29,20(1)
 1482              	.LBB1355:
 1483              	.LBB1337:
 1484              	.LBB1335:
 1485              		.loc 3 51 0
 1486 0024 7F7DDB78 		mr 29,27
 1487              		.cfi_offset 29, -12
 1488              		.loc 1 338 0
 1489 0028 80090008 		lwz 0,8(9)
 1490              	.LBE1335:
 1491              	.LBE1337:
 1492              	.LBE1355:
 1493              		.loc 1 990 0
 1494 002c 93E1001C 		stw 31,28(1)
 1495 0030 93C10018 		stw 30,24(1)
 1496              	.LBB1356:
 1497              	.LBB1338:
 1498              	.LBB1336:
 1499              		.loc 1 338 0
 1500 0034 7C0903A6 		mtctr 0
 1501              	.LEHB4:
 1502              		.cfi_offset 30, -8
 1503              		.cfi_offset 31, -4
 1504 0038 4E800421 		bctrl
 1505              	.LEHE4:
 1506              	.LVL109:
 1507              		.loc 3 51 0
 1508 003c 87FD0004 		lwzu 31,4(29)
 1509              	.LVL110:
 1510              	.LBE1336:
 1511              	.LBE1338:
 1512              		.loc 1 996 0
 1513 0040 7F9FE800 		cmpw 7,31,29
 1514 0044 40BE0014 		bne+ 7,.L97
 1515 0048 48000064 		b .L86
 1516              	.LVL111:
 1517              	.L87:
 1518              		.loc 1 996 0 is_stmt 0 discriminator 1
 1519 004c 7F9DF000 		cmpw 7,29,30
 1520 0050 419E005C 		beq- 7,.L86
 1521              	.L95:
 1522              		.loc 1 996 0
 1523 0054 7FDFF378 		mr 31,30
 1524              	.LVL112:
 1525              	.L97:
 1526              	.LBB1339:
 1527              		.loc 1 1001 0 is_stmt 1
 1528 0058 807F0008 		lwz 3,8(31)
 1529              	.LBB1340:
 1530              	.LBB1341:
 1531              		.loc 4 154 0
 1532 005c 83DF0000 		lwz 30,0(31)
 1533              	.LVL113:
 1534              	.LBE1341:
 1535              	.LBE1340:
 1536              		.loc 1 1001 0
 1537 0060 81230000 		lwz 9,0(3)
 1538 0064 80090008 		lwz 0,8(9)
 1539 0068 7C0903A6 		mtctr 0
 1540              	.LEHB5:
 1541 006c 4E800421 		bctrl
 1542              	.LVL114:
 1543 0070 7F9C1800 		cmpw 7,28,3
 1544 0074 409EFFD8 		bne+ 7,.L87
 1545              	.LVL115:
 1546              		.loc 1 1003 0
 1547 0078 807F0008 		lwz 3,8(31)
 1548 007c 2F830000 		cmpwi 7,3,0
 1549 0080 419E0014 		beq- 7,.L88
 1550              		.loc 1 1003 0 is_stmt 0 discriminator 1
 1551 0084 81230000 		lwz 9,0(3)
 1552 0088 80090004 		lwz 0,4(9)
 1553 008c 7C0903A6 		mtctr 0
 1554 0090 4E800421 		bctrl
 1555              	.LEHE5:
 1556              	.L88:
 1557              	.LVL116:
 1558              	.LBB1342:
 1559              	.LBB1343:
 1560              	.LBB1344:
 1561              	.LBB1345:
 1562              		.loc 4 1532 0 is_stmt 1
 1563 0094 7FE3FB78 		mr 3,31
 1564 0098 48000001 		bl _ZNSt8__detail15_List_node_base9_M_unhookEv
 1565              	.LVL117:
 1566              	.LBB1346:
 1567              	.LBB1347:
 1568              	.LBB1348:
 1569              		.file 7 "d:\\devkitpro\\devkitppc\\bin\\../lib/gcc/powerpc-eabi/4.6.3/../../../../powerpc-eabi/inc
 1570              		.loc 7 98 0
 1571 009c 7FE3FB78 		mr 3,31
 1572 00a0 48000001 		bl _ZdlPv
 1573              	.LVL118:
 1574              	.LBE1348:
 1575              	.LBE1347:
 1576              	.LBE1346:
 1577              	.LBE1345:
 1578              	.LBE1344:
 1579              	.LBE1343:
 1580              	.LBE1342:
 1581              	.LBE1339:
 1582              		.loc 1 996 0
 1583 00a4 7F9DF000 		cmpw 7,29,30
 1584 00a8 409EFFAC 		bne+ 7,.L95
 1585              	.LVL119:
 1586              	.L86:
 1587              	.LBB1349:
 1588              	.LBB1350:
 1589              	.LBB1351:
 1590              		.loc 1 343 0
 1591 00ac 813B0000 		lwz 9,0(27)
 1592 00b0 7F63DB78 		mr 3,27
 1593 00b4 8009000C 		lwz 0,12(9)
 1594 00b8 7C0903A6 		mtctr 0
 1595              	.LEHB6:
 1596 00bc 4E800421 		bctrl
 1597              	.LEHE6:
 1598              	.LBE1351:
 1599              	.LBE1350:
 1600              	.LBE1349:
 1601              	.LBE1356:
 1602              		.loc 1 1010 0
 1603 00c0 80010024 		lwz 0,36(1)
 1604 00c4 8361000C 		lwz 27,12(1)
 1605              	.LVL120:
 1606 00c8 7C0803A6 		mtlr 0
 1607 00cc 83810010 		lwz 28,16(1)
 1608              	.LVL121:
 1609 00d0 83A10014 		lwz 29,20(1)
 1610              	.LVL122:
 1611 00d4 83C10018 		lwz 30,24(1)
 1612 00d8 83E1001C 		lwz 31,28(1)
 1613 00dc 38210020 		addi 1,1,32
 1614              		.cfi_remember_state
 1615              	.LCFI26:
 1616              		.cfi_def_cfa_offset 0
 1617              		.cfi_restore 31
 1618              		.cfi_restore 30
 1619              		.cfi_restore 29
 1620              		.cfi_restore 28
 1621              		.cfi_restore 27
 1622 00e0 4E800020 		blr
 1623              	.LVL123:
 1624              	.L96:
 1625              	.LCFI27:
 1626              		.cfi_restore_state
 1627              	.LBB1357:
 1628              	.LBB1352:
 1629              	.LBB1353:
 1630              	.LBB1354:
 1631              		.loc 1 343 0
 1632 00e4 813B0000 		lwz 9,0(27)
 1633 00e8 7C7F1B78 		mr 31,3
 1634              	.LVL124:
 1635 00ec 7F63DB78 		mr 3,27
 1636 00f0 8009000C 		lwz 0,12(9)
 1637 00f4 7C0903A6 		mtctr 0
 1638 00f8 4E800421 		bctrl
 1639 00fc 7FE3FB78 		mr 3,31
 1640              	.LEHB7:
 1641 0100 48000001 		bl _Unwind_Resume
 1642              	.LEHE7:
 1643              	.LBE1354:
 1644              	.LBE1353:
 1645              	.LBE1352:
 1646              	.LBE1357:
 1647              		.cfi_endproc
 1648              	.LFE1716:
 1649              		.section	.gcc_except_table
 1650              	.LLSDA1716:
 1651 0017 FF       		.byte	0xff
 1652 0018 FF       		.byte	0xff
 1653 0019 01       		.byte	0x1
 1654 001a 13       		.uleb128 .LLSDACSE1716-.LLSDACSB1716
 1655              	.LLSDACSB1716:
 1656 001b 38       		.uleb128 .LEHB4-.LFB1716
 1657 001c 04       		.uleb128 .LEHE4-.LEHB4
 1658 001d 00       		.uleb128 0
 1659 001e 00       		.uleb128 0
 1660 001f 6C       		.uleb128 .LEHB5-.LFB1716
 1661 0020 28       		.uleb128 .LEHE5-.LEHB5
 1662 0021 E401     		.uleb128 .L96-.LFB1716
 1663 0023 00       		.uleb128 0
 1664 0024 BC01     		.uleb128 .LEHB6-.LFB1716
 1665 0026 04       		.uleb128 .LEHE6-.LEHB6
 1666 0027 00       		.uleb128 0
 1667 0028 00       		.uleb128 0
 1668 0029 8002     		.uleb128 .LEHB7-.LFB1716
 1669 002b 04       		.uleb128 .LEHE7-.LEHB7
 1670 002c 00       		.uleb128 0
 1671 002d 00       		.uleb128 0
 1672              	.LLSDACSE1716:
 1673              		.section	.text._ZN7sigslot13_signal_base3IP10GuiElementiiNS_15single_threadedEE15slot_disconnectEP
 1674              		.size	_ZN7sigslot13_signal_base3IP10GuiElementiiNS_15single_threadedEE15slot_disconnectEPNS_9has_s
 1675              		.section	.text._ZN7sigslot13_signal_base2IP10GuiElementbNS_15single_threadedEE15slot_disconnectEPN
 1676              		.align 2
 1677              		.weak	_ZN7sigslot13_signal_base2IP10GuiElementbNS_15single_threadedEE15slot_disconnectEPNS_9has_sl
 1678              		.type	_ZN7sigslot13_signal_base2IP10GuiElementbNS_15single_threadedEE15slot_disconnectEPNS_9has_sl
 1679              	_ZN7sigslot13_signal_base2IP10GuiElementbNS_15single_threadedEE15slot_disconnectEPNS_9has_slotsIS3_
 1680              	.LFB1718:
 1681              		.loc 1 870 0
 1682              		.cfi_startproc
 1683              		.cfi_personality 0,__gxx_personality_v0
 1684              		.cfi_lsda 0,.LLSDA1718
 1685              	.LVL125:
 1686 0000 7C0802A6 		mflr 0
 1687 0004 9421FFE0 		stwu 1,-32(1)
 1688              	.LCFI28:
 1689              		.cfi_def_cfa_offset 32
 1690              		.cfi_register 65, 0
 1691 0008 9361000C 		stw 27,12(1)
 1692 000c 7C7B1B78 		mr 27,3
 1693              		.cfi_offset 27, -20
 1694              	.LVL126:
 1695 0010 90010024 		stw 0,36(1)
 1696 0014 93810010 		stw 28,16(1)
 1697 0018 7C9C2378 		mr 28,4
 1698              		.cfi_offset 28, -16
 1699              		.cfi_offset 65, 4
 1700              	.LBB1358:
 1701              	.LBB1359:
 1702              	.LBB1360:
 1703              		.loc 1 338 0
 1704 001c 81230000 		lwz 9,0(3)
 1705              	.LBE1360:
 1706              	.LBE1359:
 1707              	.LBE1358:
 1708              		.loc 1 870 0
 1709 0020 93A10014 		stw 29,20(1)
 1710              	.LBB1381:
 1711              	.LBB1363:
 1712              	.LBB1361:
 1713              		.loc 3 51 0
 1714 0024 7F7DDB78 		mr 29,27
 1715              		.cfi_offset 29, -12
 1716              		.loc 1 338 0
 1717 0028 80090008 		lwz 0,8(9)
 1718              	.LBE1361:
 1719              	.LBE1363:
 1720              	.LBE1381:
 1721              		.loc 1 870 0
 1722 002c 93E1001C 		stw 31,28(1)
 1723 0030 93C10018 		stw 30,24(1)
 1724              	.LBB1382:
 1725              	.LBB1364:
 1726              	.LBB1362:
 1727              		.loc 1 338 0
 1728 0034 7C0903A6 		mtctr 0
 1729              	.LEHB8:
 1730              		.cfi_offset 30, -8
 1731              		.cfi_offset 31, -4
 1732 0038 4E800421 		bctrl
 1733              	.LEHE8:
 1734              	.LVL127:
 1735              		.loc 3 51 0
 1736 003c 87FD0004 		lwzu 31,4(29)
 1737              	.LVL128:
 1738              	.LBE1362:
 1739              	.LBE1364:
 1740              		.loc 1 876 0
 1741 0040 7F9FE800 		cmpw 7,31,29
 1742 0044 40BE0014 		bne+ 7,.L110
 1743 0048 48000064 		b .L99
 1744              	.LVL129:
 1745              	.L100:
 1746              		.loc 1 876 0 is_stmt 0 discriminator 1
 1747 004c 7F9DF000 		cmpw 7,29,30
 1748 0050 419E005C 		beq- 7,.L99
 1749              	.L108:
 1750              		.loc 1 876 0
 1751 0054 7FDFF378 		mr 31,30
 1752              	.LVL130:
 1753              	.L110:
 1754              	.LBB1365:
 1755              		.loc 1 881 0 is_stmt 1
 1756 0058 807F0008 		lwz 3,8(31)
 1757              	.LBB1366:
 1758              	.LBB1367:
 1759              		.loc 4 154 0
 1760 005c 83DF0000 		lwz 30,0(31)
 1761              	.LVL131:
 1762              	.LBE1367:
 1763              	.LBE1366:
 1764              		.loc 1 881 0
 1765 0060 81230000 		lwz 9,0(3)
 1766 0064 80090008 		lwz 0,8(9)
 1767 0068 7C0903A6 		mtctr 0
 1768              	.LEHB9:
 1769 006c 4E800421 		bctrl
 1770              	.LVL132:
 1771 0070 7F9C1800 		cmpw 7,28,3
 1772 0074 409EFFD8 		bne+ 7,.L100
 1773              	.LVL133:
 1774              		.loc 1 883 0
 1775 0078 807F0008 		lwz 3,8(31)
 1776 007c 2F830000 		cmpwi 7,3,0
 1777 0080 419E0014 		beq- 7,.L101
 1778              		.loc 1 883 0 is_stmt 0 discriminator 1
 1779 0084 81230000 		lwz 9,0(3)
 1780 0088 80090004 		lwz 0,4(9)
 1781 008c 7C0903A6 		mtctr 0
 1782 0090 4E800421 		bctrl
 1783              	.LEHE9:
 1784              	.L101:
 1785              	.LVL134:
 1786              	.LBB1368:
 1787              	.LBB1369:
 1788              	.LBB1370:
 1789              	.LBB1371:
 1790              		.loc 4 1532 0 is_stmt 1
 1791 0094 7FE3FB78 		mr 3,31
 1792 0098 48000001 		bl _ZNSt8__detail15_List_node_base9_M_unhookEv
 1793              	.LVL135:
 1794              	.LBB1372:
 1795              	.LBB1373:
 1796              	.LBB1374:
 1797              		.loc 7 98 0
 1798 009c 7FE3FB78 		mr 3,31
 1799 00a0 48000001 		bl _ZdlPv
 1800              	.LVL136:
 1801              	.LBE1374:
 1802              	.LBE1373:
 1803              	.LBE1372:
 1804              	.LBE1371:
 1805              	.LBE1370:
 1806              	.LBE1369:
 1807              	.LBE1368:
 1808              	.LBE1365:
 1809              		.loc 1 876 0
 1810 00a4 7F9DF000 		cmpw 7,29,30
 1811 00a8 409EFFAC 		bne+ 7,.L108
 1812              	.LVL137:
 1813              	.L99:
 1814              	.LBB1375:
 1815              	.LBB1376:
 1816              	.LBB1377:
 1817              		.loc 1 343 0
 1818 00ac 813B0000 		lwz 9,0(27)
 1819 00b0 7F63DB78 		mr 3,27
 1820 00b4 8009000C 		lwz 0,12(9)
 1821 00b8 7C0903A6 		mtctr 0
 1822              	.LEHB10:
 1823 00bc 4E800421 		bctrl
 1824              	.LEHE10:
 1825              	.LBE1377:
 1826              	.LBE1376:
 1827              	.LBE1375:
 1828              	.LBE1382:
 1829              		.loc 1 890 0
 1830 00c0 80010024 		lwz 0,36(1)
 1831 00c4 8361000C 		lwz 27,12(1)
 1832              	.LVL138:
 1833 00c8 7C0803A6 		mtlr 0
 1834 00cc 83810010 		lwz 28,16(1)
 1835              	.LVL139:
 1836 00d0 83A10014 		lwz 29,20(1)
 1837              	.LVL140:
 1838 00d4 83C10018 		lwz 30,24(1)
 1839 00d8 83E1001C 		lwz 31,28(1)
 1840 00dc 38210020 		addi 1,1,32
 1841              		.cfi_remember_state
 1842              	.LCFI29:
 1843              		.cfi_def_cfa_offset 0
 1844              		.cfi_restore 31
 1845              		.cfi_restore 30
 1846              		.cfi_restore 29
 1847              		.cfi_restore 28
 1848              		.cfi_restore 27
 1849 00e0 4E800020 		blr
 1850              	.LVL141:
 1851              	.L109:
 1852              	.LCFI30:
 1853              		.cfi_restore_state
 1854              	.LBB1383:
 1855              	.LBB1378:
 1856              	.LBB1379:
 1857              	.LBB1380:
 1858              		.loc 1 343 0
 1859 00e4 813B0000 		lwz 9,0(27)
 1860 00e8 7C7F1B78 		mr 31,3
 1861              	.LVL142:
 1862 00ec 7F63DB78 		mr 3,27
 1863 00f0 8009000C 		lwz 0,12(9)
 1864 00f4 7C0903A6 		mtctr 0
 1865 00f8 4E800421 		bctrl
 1866 00fc 7FE3FB78 		mr 3,31
 1867              	.LEHB11:
 1868 0100 48000001 		bl _Unwind_Resume
 1869              	.LEHE11:
 1870              	.LBE1380:
 1871              	.LBE1379:
 1872              	.LBE1378:
 1873              	.LBE1383:
 1874              		.cfi_endproc
 1875              	.LFE1718:
 1876              		.section	.gcc_except_table
 1877              	.LLSDA1718:
 1878 002e FF       		.byte	0xff
 1879 002f FF       		.byte	0xff
 1880 0030 01       		.byte	0x1
 1881 0031 13       		.uleb128 .LLSDACSE1718-.LLSDACSB1718
 1882              	.LLSDACSB1718:
 1883 0032 38       		.uleb128 .LEHB8-.LFB1718
 1884 0033 04       		.uleb128 .LEHE8-.LEHB8
 1885 0034 00       		.uleb128 0
 1886 0035 00       		.uleb128 0
 1887 0036 6C       		.uleb128 .LEHB9-.LFB1718
 1888 0037 28       		.uleb128 .LEHE9-.LEHB9
 1889 0038 E401     		.uleb128 .L109-.LFB1718
 1890 003a 00       		.uleb128 0
 1891 003b BC01     		.uleb128 .LEHB10-.LFB1718
 1892 003d 04       		.uleb128 .LEHE10-.LEHB10
 1893 003e 00       		.uleb128 0
 1894 003f 00       		.uleb128 0
 1895 0040 8002     		.uleb128 .LEHB11-.LFB1718
 1896 0042 04       		.uleb128 .LEHE11-.LEHB11
 1897 0043 00       		.uleb128 0
 1898 0044 00       		.uleb128 0
 1899              	.LLSDACSE1718:
 1900              		.section	.text._ZN7sigslot13_signal_base2IP10GuiElementbNS_15single_threadedEE15slot_disconnectEPN
 1901              		.size	_ZN7sigslot13_signal_base2IP10GuiElementbNS_15single_threadedEE15slot_disconnectEPNS_9has_sl
 1902              		.section	.text._ZN7sigslot13_signal_base3IP10GuiElementiiNS_15single_threadedEE14slot_duplicateEPK
 1903              		.align 2
 1904              		.weak	_ZN7sigslot13_signal_base3IP10GuiElementiiNS_15single_threadedEE14slot_duplicateEPKNS_9has_s
 1905              		.type	_ZN7sigslot13_signal_base3IP10GuiElementiiNS_15single_threadedEE14slot_duplicateEPKNS_9has_s
 1906              	_ZN7sigslot13_signal_base3IP10GuiElementiiNS_15single_threadedEE14slot_duplicateEPKNS_9has_slotsIS3
 1907              	.LFB1717:
 1908              		.loc 1 926 0
 1909              		.cfi_startproc
 1910              		.cfi_personality 0,__gxx_personality_v0
 1911              		.cfi_lsda 0,.LLSDA1717
 1912              	.LVL143:
 1913 0000 7C0802A6 		mflr 0
 1914 0004 9421FFE0 		stwu 1,-32(1)
 1915              	.LCFI31:
 1916              		.cfi_def_cfa_offset 32
 1917              		.cfi_register 65, 0
 1918 0008 93410008 		stw 26,8(1)
 1919 000c 7CBA2B78 		mr 26,5
 1920              		.cfi_offset 26, -24
 1921 0010 90010024 		stw 0,36(1)
 1922 0014 9361000C 		stw 27,12(1)
 1923 0018 7C7B1B78 		mr 27,3
 1924              		.cfi_offset 27, -20
 1925              		.cfi_offset 65, 4
 1926              	.LVL144:
 1927              	.LBB1384:
 1928              	.LBB1385:
 1929              	.LBB1386:
 1930              		.loc 1 338 0
 1931 001c 81230000 		lwz 9,0(3)
 1932              	.LBE1386:
 1933              	.LBE1385:
 1934              	.LBE1384:
 1935              		.loc 1 926 0
 1936 0020 93A10014 		stw 29,20(1)
 1937 0024 7C9D2378 		mr 29,4
 1938              		.cfi_offset 29, -12
 1939              	.LBB1415:
 1940              	.LBB1391:
 1941              	.LBB1387:
 1942              		.loc 1 338 0
 1943 0028 80090008 		lwz 0,8(9)
 1944              	.LBE1387:
 1945              	.LBE1391:
 1946              	.LBE1415:
 1947              		.loc 1 926 0
 1948 002c 93C10018 		stw 30,24(1)
 1949              	.LBB1416:
 1950              	.LBB1392:
 1951              	.LBB1388:
 1952              		.loc 3 51 0
 1953 0030 7F7EDB78 		mr 30,27
 1954              		.cfi_offset 30, -8
 1955              	.LBE1388:
 1956              	.LBE1392:
 1957              	.LBE1416:
 1958              		.loc 1 926 0
 1959 0034 93E1001C 		stw 31,28(1)
 1960              	.LBB1417:
 1961              	.LBB1393:
 1962              	.LBB1389:
 1963              		.loc 1 338 0
 1964 0038 7C0903A6 		mtctr 0
 1965              	.LBE1389:
 1966              	.LBE1393:
 1967              	.LBE1417:
 1968              		.loc 1 926 0
 1969 003c 93810010 		stw 28,16(1)
 1970              	.LEHB12:
 1971              	.LBB1418:
 1972              	.LBB1394:
 1973              	.LBB1390:
 1974              		.loc 1 338 0
 1975              		.cfi_offset 28, -16
 1976              		.cfi_offset 31, -4
 1977 0040 4E800421 		bctrl
 1978              	.LEHE12:
 1979              	.LVL145:
 1980              		.loc 3 51 0
 1981 0044 87FE0004 		lwzu 31,4(30)
 1982              	.LVL146:
 1983              	.LBE1390:
 1984              	.LBE1394:
 1985              		.loc 1 932 0
 1986 0048 7F9FF000 		cmpw 7,31,30
 1987 004c 40BE0014 		bne+ 7,.L121
 1988 0050 48000070 		b .L112
 1989              	.LVL147:
 1990              	.L113:
 1991              	.LBB1395:
 1992              	.LBB1396:
 1993              		.loc 4 154 0
 1994 0054 83FF0000 		lwz 31,0(31)
 1995              	.LVL148:
 1996              	.LBE1396:
 1997              	.LBE1395:
 1998              		.loc 1 932 0
 1999 0058 7F9EF800 		cmpw 7,30,31
 2000 005c 419E0064 		beq- 7,.L112
 2001              	.LVL149:
 2002              	.L121:
 2003              		.loc 1 934 0
 2004 0060 807F0008 		lwz 3,8(31)
 2005 0064 81230000 		lwz 9,0(3)
 2006 0068 80090008 		lwz 0,8(9)
 2007 006c 7C0903A6 		mtctr 0
 2008              	.LEHB13:
 2009 0070 4E800421 		bctrl
 2010 0074 7F9D1800 		cmpw 7,29,3
 2011 0078 409EFFDC 		bne+ 7,.L113
 2012              	.LVL150:
 2013              		.loc 1 936 0
 2014 007c 807F0008 		lwz 3,8(31)
 2015 0080 7F44D378 		mr 4,26
 2016 0084 81230000 		lwz 9,0(3)
 2017 0088 80090014 		lwz 0,20(9)
 2018 008c 7C0903A6 		mtctr 0
 2019 0090 4E800421 		bctrl
 2020 0094 7C7C1B78 		mr 28,3
 2021              	.LVL151:
 2022              	.LBB1398:
 2023              	.LBB1399:
 2024              	.LBB1400:
 2025              	.LBB1401:
 2026              	.LBB1402:
 2027              	.LBB1403:
 2028              	.LBB1404:
 2029              	.LBB1405:
 2030              		.loc 7 92 0
 2031 0098 3860000C 		li 3,12
 2032 009c 48000001 		bl _Znwj
 2033              	.LEHE13:
 2034              	.LVL152:
 2035              	.LBE1405:
 2036              	.LBE1404:
 2037              	.LBE1403:
 2038              	.LBB1406:
 2039              	.LBB1407:
 2040              		.loc 7 108 0 discriminator 1
 2041 00a0 2F83FFF8 		cmpwi 7,3,-8
 2042 00a4 419E0008 		beq- 7,.L115
 2043              		.loc 7 108 0 is_stmt 0
 2044 00a8 93830008 		stw 28,8(3)
 2045              	.L115:
 2046              	.LVL153:
 2047              	.LBE1407:
 2048              	.LBE1406:
 2049              	.LBE1402:
 2050              	.LBE1401:
 2051              		.loc 4 1516 0 is_stmt 1
 2052 00ac 7FC4F378 		mr 4,30
 2053 00b0 48000001 		bl _ZNSt8__detail15_List_node_base7_M_hookEPS0_
 2054              	.LVL154:
 2055              	.LBE1400:
 2056              	.LBE1399:
 2057              	.LBE1398:
 2058              	.LBB1408:
 2059              	.LBB1397:
 2060              		.loc 4 154 0
 2061 00b4 83FF0000 		lwz 31,0(31)
 2062              	.LVL155:
 2063              	.LBE1397:
 2064              	.LBE1408:
 2065              		.loc 1 932 0
 2066 00b8 7F9EF800 		cmpw 7,30,31
 2067 00bc 409EFFA4 		bne+ 7,.L121
 2068              	.LVL156:
 2069              	.L112:
 2070              	.LBB1409:
 2071              	.LBB1410:
 2072              	.LBB1411:
 2073              		.loc 1 343 0
 2074 00c0 813B0000 		lwz 9,0(27)
 2075 00c4 7F63DB78 		mr 3,27
 2076 00c8 8009000C 		lwz 0,12(9)
 2077 00cc 7C0903A6 		mtctr 0
 2078              	.LEHB14:
 2079 00d0 4E800421 		bctrl
 2080              	.LEHE14:
 2081              	.LBE1411:
 2082              	.LBE1410:
 2083              	.LBE1409:
 2084              	.LBE1418:
 2085              		.loc 1 941 0
 2086 00d4 80010024 		lwz 0,36(1)
 2087 00d8 83410008 		lwz 26,8(1)
 2088              	.LVL157:
 2089 00dc 7C0803A6 		mtlr 0
 2090 00e0 8361000C 		lwz 27,12(1)
 2091              	.LVL158:
 2092 00e4 83810010 		lwz 28,16(1)
 2093 00e8 83A10014 		lwz 29,20(1)
 2094              	.LVL159:
 2095 00ec 83C10018 		lwz 30,24(1)
 2096              	.LVL160:
 2097 00f0 83E1001C 		lwz 31,28(1)
 2098              	.LVL161:
 2099 00f4 38210020 		addi 1,1,32
 2100              		.cfi_remember_state
 2101              	.LCFI32:
 2102              		.cfi_def_cfa_offset 0
 2103              		.cfi_restore 31
 2104              		.cfi_restore 30
 2105              		.cfi_restore 29
 2106              		.cfi_restore 28
 2107              		.cfi_restore 27
 2108              		.cfi_restore 26
 2109 00f8 4E800020 		blr
 2110              	.LVL162:
 2111              	.L120:
 2112              	.LCFI33:
 2113              		.cfi_restore_state
 2114              	.LBB1419:
 2115              	.LBB1412:
 2116              	.LBB1413:
 2117              	.LBB1414:
 2118              		.loc 1 343 0
 2119 00fc 813B0000 		lwz 9,0(27)
 2120 0100 7C7F1B78 		mr 31,3
 2121              	.LVL163:
 2122 0104 7F63DB78 		mr 3,27
 2123 0108 8009000C 		lwz 0,12(9)
 2124 010c 7C0903A6 		mtctr 0
 2125 0110 4E800421 		bctrl
 2126 0114 7FE3FB78 		mr 3,31
 2127              	.LEHB15:
 2128 0118 48000001 		bl _Unwind_Resume
 2129              	.LEHE15:
 2130              	.LBE1414:
 2131              	.LBE1413:
 2132              	.LBE1412:
 2133              	.LBE1419:
 2134              		.cfi_endproc
 2135              	.LFE1717:
 2136              		.section	.gcc_except_table
 2137              	.LLSDA1717:
 2138 0045 FF       		.byte	0xff
 2139 0046 FF       		.byte	0xff
 2140 0047 01       		.byte	0x1
 2141 0048 13       		.uleb128 .LLSDACSE1717-.LLSDACSB1717
 2142              	.LLSDACSB1717:
 2143 0049 40       		.uleb128 .LEHB12-.LFB1717
 2144 004a 04       		.uleb128 .LEHE12-.LEHB12
 2145 004b 00       		.uleb128 0
 2146 004c 00       		.uleb128 0
 2147 004d 70       		.uleb128 .LEHB13-.LFB1717
 2148 004e 30       		.uleb128 .LEHE13-.LEHB13
 2149 004f FC01     		.uleb128 .L120-.LFB1717
 2150 0051 00       		.uleb128 0
 2151 0052 D001     		.uleb128 .LEHB14-.LFB1717
 2152 0054 04       		.uleb128 .LEHE14-.LEHB14
 2153 0055 00       		.uleb128 0
 2154 0056 00       		.uleb128 0
 2155 0057 9802     		.uleb128 .LEHB15-.LFB1717
 2156 0059 04       		.uleb128 .LEHE15-.LEHB15
 2157 005a 00       		.uleb128 0
 2158 005b 00       		.uleb128 0
 2159              	.LLSDACSE1717:
 2160              		.section	.text._ZN7sigslot13_signal_base3IP10GuiElementiiNS_15single_threadedEE14slot_duplicateEPK
 2161              		.size	_ZN7sigslot13_signal_base3IP10GuiElementiiNS_15single_threadedEE14slot_duplicateEPKNS_9has_s
 2162              		.section	.text._ZN7sigslot13_signal_base2IP10GuiElementbNS_15single_threadedEE14slot_duplicateEPKN
 2163              		.align 2
 2164              		.weak	_ZN7sigslot13_signal_base2IP10GuiElementbNS_15single_threadedEE14slot_duplicateEPKNS_9has_sl
 2165              		.type	_ZN7sigslot13_signal_base2IP10GuiElementbNS_15single_threadedEE14slot_duplicateEPKNS_9has_sl
 2166              	_ZN7sigslot13_signal_base2IP10GuiElementbNS_15single_threadedEE14slot_duplicateEPKNS_9has_slotsIS3_
 2167              	.LFB1719:
 2168              		.loc 1 806 0
 2169              		.cfi_startproc
 2170              		.cfi_personality 0,__gxx_personality_v0
 2171              		.cfi_lsda 0,.LLSDA1719
 2172              	.LVL164:
 2173 0000 7C0802A6 		mflr 0
 2174 0004 9421FFE0 		stwu 1,-32(1)
 2175              	.LCFI34:
 2176              		.cfi_def_cfa_offset 32
 2177              		.cfi_register 65, 0
 2178 0008 93410008 		stw 26,8(1)
 2179 000c 7CBA2B78 		mr 26,5
 2180              		.cfi_offset 26, -24
 2181 0010 90010024 		stw 0,36(1)
 2182 0014 9361000C 		stw 27,12(1)
 2183 0018 7C7B1B78 		mr 27,3
 2184              		.cfi_offset 27, -20
 2185              		.cfi_offset 65, 4
 2186              	.LVL165:
 2187              	.LBB1420:
 2188              	.LBB1421:
 2189              	.LBB1422:
 2190              		.loc 1 338 0
 2191 001c 81230000 		lwz 9,0(3)
 2192              	.LBE1422:
 2193              	.LBE1421:
 2194              	.LBE1420:
 2195              		.loc 1 806 0
 2196 0020 93A10014 		stw 29,20(1)
 2197 0024 7C9D2378 		mr 29,4
 2198              		.cfi_offset 29, -12
 2199              	.LBB1451:
 2200              	.LBB1427:
 2201              	.LBB1423:
 2202              		.loc 1 338 0
 2203 0028 80090008 		lwz 0,8(9)
 2204              	.LBE1423:
 2205              	.LBE1427:
 2206              	.LBE1451:
 2207              		.loc 1 806 0
 2208 002c 93C10018 		stw 30,24(1)
 2209              	.LBB1452:
 2210              	.LBB1428:
 2211              	.LBB1424:
 2212              		.loc 3 51 0
 2213 0030 7F7EDB78 		mr 30,27
 2214              		.cfi_offset 30, -8
 2215              	.LBE1424:
 2216              	.LBE1428:
 2217              	.LBE1452:
 2218              		.loc 1 806 0
 2219 0034 93E1001C 		stw 31,28(1)
 2220              	.LBB1453:
 2221              	.LBB1429:
 2222              	.LBB1425:
 2223              		.loc 1 338 0
 2224 0038 7C0903A6 		mtctr 0
 2225              	.LBE1425:
 2226              	.LBE1429:
 2227              	.LBE1453:
 2228              		.loc 1 806 0
 2229 003c 93810010 		stw 28,16(1)
 2230              	.LEHB16:
 2231              	.LBB1454:
 2232              	.LBB1430:
 2233              	.LBB1426:
 2234              		.loc 1 338 0
 2235              		.cfi_offset 28, -16
 2236              		.cfi_offset 31, -4
 2237 0040 4E800421 		bctrl
 2238              	.LEHE16:
 2239              	.LVL166:
 2240              		.loc 3 51 0
 2241 0044 87FE0004 		lwzu 31,4(30)
 2242              	.LVL167:
 2243              	.LBE1426:
 2244              	.LBE1430:
 2245              		.loc 1 812 0
 2246 0048 7F9FF000 		cmpw 7,31,30
 2247 004c 40BE0014 		bne+ 7,.L133
 2248 0050 48000070 		b .L124
 2249              	.LVL168:
 2250              	.L125:
 2251              	.LBB1431:
 2252              	.LBB1432:
 2253              		.loc 4 154 0
 2254 0054 83FF0000 		lwz 31,0(31)
 2255              	.LVL169:
 2256              	.LBE1432:
 2257              	.LBE1431:
 2258              		.loc 1 812 0
 2259 0058 7F9EF800 		cmpw 7,30,31
 2260 005c 419E0064 		beq- 7,.L124
 2261              	.LVL170:
 2262              	.L133:
 2263              		.loc 1 814 0
 2264 0060 807F0008 		lwz 3,8(31)
 2265 0064 81230000 		lwz 9,0(3)
 2266 0068 80090008 		lwz 0,8(9)
 2267 006c 7C0903A6 		mtctr 0
 2268              	.LEHB17:
 2269 0070 4E800421 		bctrl
 2270 0074 7F9D1800 		cmpw 7,29,3
 2271 0078 409EFFDC 		bne+ 7,.L125
 2272              	.LVL171:
 2273              		.loc 1 816 0
 2274 007c 807F0008 		lwz 3,8(31)
 2275 0080 7F44D378 		mr 4,26
 2276 0084 81230000 		lwz 9,0(3)
 2277 0088 80090014 		lwz 0,20(9)
 2278 008c 7C0903A6 		mtctr 0
 2279 0090 4E800421 		bctrl
 2280 0094 7C7C1B78 		mr 28,3
 2281              	.LVL172:
 2282              	.LBB1434:
 2283              	.LBB1435:
 2284              	.LBB1436:
 2285              	.LBB1437:
 2286              	.LBB1438:
 2287              	.LBB1439:
 2288              	.LBB1440:
 2289              	.LBB1441:
 2290              		.loc 7 92 0
 2291 0098 3860000C 		li 3,12
 2292 009c 48000001 		bl _Znwj
 2293              	.LEHE17:
 2294              	.LVL173:
 2295              	.LBE1441:
 2296              	.LBE1440:
 2297              	.LBE1439:
 2298              	.LBB1442:
 2299              	.LBB1443:
 2300              		.loc 7 108 0 discriminator 1
 2301 00a0 2F83FFF8 		cmpwi 7,3,-8
 2302 00a4 419E0008 		beq- 7,.L127
 2303              		.loc 7 108 0 is_stmt 0
 2304 00a8 93830008 		stw 28,8(3)
 2305              	.L127:
 2306              	.LVL174:
 2307              	.LBE1443:
 2308              	.LBE1442:
 2309              	.LBE1438:
 2310              	.LBE1437:
 2311              		.loc 4 1516 0 is_stmt 1
 2312 00ac 7FC4F378 		mr 4,30
 2313 00b0 48000001 		bl _ZNSt8__detail15_List_node_base7_M_hookEPS0_
 2314              	.LVL175:
 2315              	.LBE1436:
 2316              	.LBE1435:
 2317              	.LBE1434:
 2318              	.LBB1444:
 2319              	.LBB1433:
 2320              		.loc 4 154 0
 2321 00b4 83FF0000 		lwz 31,0(31)
 2322              	.LVL176:
 2323              	.LBE1433:
 2324              	.LBE1444:
 2325              		.loc 1 812 0
 2326 00b8 7F9EF800 		cmpw 7,30,31
 2327 00bc 409EFFA4 		bne+ 7,.L133
 2328              	.LVL177:
 2329              	.L124:
 2330              	.LBB1445:
 2331              	.LBB1446:
 2332              	.LBB1447:
 2333              		.loc 1 343 0
 2334 00c0 813B0000 		lwz 9,0(27)
 2335 00c4 7F63DB78 		mr 3,27
 2336 00c8 8009000C 		lwz 0,12(9)
 2337 00cc 7C0903A6 		mtctr 0
 2338              	.LEHB18:
 2339 00d0 4E800421 		bctrl
 2340              	.LEHE18:
 2341              	.LBE1447:
 2342              	.LBE1446:
 2343              	.LBE1445:
 2344              	.LBE1454:
 2345              		.loc 1 821 0
 2346 00d4 80010024 		lwz 0,36(1)
 2347 00d8 83410008 		lwz 26,8(1)
 2348              	.LVL178:
 2349 00dc 7C0803A6 		mtlr 0
 2350 00e0 8361000C 		lwz 27,12(1)
 2351              	.LVL179:
 2352 00e4 83810010 		lwz 28,16(1)
 2353 00e8 83A10014 		lwz 29,20(1)
 2354              	.LVL180:
 2355 00ec 83C10018 		lwz 30,24(1)
 2356              	.LVL181:
 2357 00f0 83E1001C 		lwz 31,28(1)
 2358              	.LVL182:
 2359 00f4 38210020 		addi 1,1,32
 2360              		.cfi_remember_state
 2361              	.LCFI35:
 2362              		.cfi_def_cfa_offset 0
 2363              		.cfi_restore 31
 2364              		.cfi_restore 30
 2365              		.cfi_restore 29
 2366              		.cfi_restore 28
 2367              		.cfi_restore 27
 2368              		.cfi_restore 26
 2369 00f8 4E800020 		blr
 2370              	.LVL183:
 2371              	.L132:
 2372              	.LCFI36:
 2373              		.cfi_restore_state
 2374              	.LBB1455:
 2375              	.LBB1448:
 2376              	.LBB1449:
 2377              	.LBB1450:
 2378              		.loc 1 343 0
 2379 00fc 813B0000 		lwz 9,0(27)
 2380 0100 7C7F1B78 		mr 31,3
 2381              	.LVL184:
 2382 0104 7F63DB78 		mr 3,27
 2383 0108 8009000C 		lwz 0,12(9)
 2384 010c 7C0903A6 		mtctr 0
 2385 0110 4E800421 		bctrl
 2386 0114 7FE3FB78 		mr 3,31
 2387              	.LEHB19:
 2388 0118 48000001 		bl _Unwind_Resume
 2389              	.LEHE19:
 2390              	.LBE1450:
 2391              	.LBE1449:
 2392              	.LBE1448:
 2393              	.LBE1455:
 2394              		.cfi_endproc
 2395              	.LFE1719:
 2396              		.section	.gcc_except_table
 2397              	.LLSDA1719:
 2398 005c FF       		.byte	0xff
 2399 005d FF       		.byte	0xff
 2400 005e 01       		.byte	0x1
 2401 005f 13       		.uleb128 .LLSDACSE1719-.LLSDACSB1719
 2402              	.LLSDACSB1719:
 2403 0060 40       		.uleb128 .LEHB16-.LFB1719
 2404 0061 04       		.uleb128 .LEHE16-.LEHB16
 2405 0062 00       		.uleb128 0
 2406 0063 00       		.uleb128 0
 2407 0064 70       		.uleb128 .LEHB17-.LFB1719
 2408 0065 30       		.uleb128 .LEHE17-.LEHB17
 2409 0066 FC01     		.uleb128 .L132-.LFB1719
 2410 0068 00       		.uleb128 0
 2411 0069 D001     		.uleb128 .LEHB18-.LFB1719
 2412 006b 04       		.uleb128 .LEHE18-.LEHB18
 2413 006c 00       		.uleb128 0
 2414 006d 00       		.uleb128 0
 2415 006e 9802     		.uleb128 .LEHB19-.LFB1719
 2416 0070 04       		.uleb128 .LEHE19-.LEHB19
 2417 0071 00       		.uleb128 0
 2418 0072 00       		.uleb128 0
 2419              	.LLSDACSE1719:
 2420              		.section	.text._ZN7sigslot13_signal_base2IP10GuiElementbNS_15single_threadedEE14slot_duplicateEPKN
 2421              		.size	_ZN7sigslot13_signal_base2IP10GuiElementbNS_15single_threadedEE14slot_duplicateEPKNS_9has_sl
 2422              		.section	".text"
 2423              		.align 2
 2424              		.globl _ZN8GuiCross4DrawEv
 2425              		.type	_ZN8GuiCross4DrawEv, @function
 2426              	_ZN8GuiCross4DrawEv:
 2427              	.LFB1473:
 2428              		.loc 3 27 0
 2429              		.cfi_startproc
 2430              	.LVL185:
 2431 0000 9421FFB0 		stwu 1,-80(1)
 2432              	.LCFI37:
 2433              		.cfi_def_cfa_offset 80
 2434 0004 7C0802A6 		mflr 0
 2435              	.LBB1456:
 2436              		.loc 3 28 0
 2437 0008 38800004 		li 4,4
 2438              	.LBE1456:
 2439              		.loc 3 27 0
 2440 000c 93E1002C 		stw 31,44(1)
 2441 0010 7C7F1B78 		mr 31,3
 2442              		.cfi_offset 31, -36
 2443              		.cfi_register 65, 0
 2444              	.LBB1477:
 2445              		.loc 3 28 0
 2446 0014 38600000 		li 3,0
 2447              	.LVL186:
 2448              	.LBE1477:
 2449              		.loc 3 27 0
 2450 0018 90010054 		stw 0,84(1)
 2451 001c DB810030 		stfd 28,48(1)
 2452 0020 DBA10038 		stfd 29,56(1)
 2453 0024 DBC10040 		stfd 30,64(1)
 2454 0028 DBE10048 		stfd 31,72(1)
 2455 002c 93C10028 		stw 30,40(1)
 2456              	.LBB1478:
 2457              		.loc 3 28 0
 2458              		.cfi_offset 30, -40
 2459              		.cfi_offset 63, -8
 2460              		.cfi_offset 62, -16
 2461              		.cfi_offset 61, -24
 2462              		.cfi_offset 60, -32
 2463              		.cfi_offset 65, 4
 2464 0030 48000001 		bl GX_SetTevOp
 2465              		.loc 3 29 0
 2466 0034 38600009 		li 3,9
 2467 0038 38800001 		li 4,1
 2468 003c 48000001 		bl GX_SetVtxDesc
 2469              		.loc 3 30 0
 2470 0040 3860000B 		li 3,11
 2471 0044 38800001 		li 4,1
 2472              		.loc 3 33 0
 2473 0048 3FC04330 		lis 30,0x4330
 2474              		.loc 3 30 0
 2475 004c 48000001 		bl GX_SetVtxDesc
 2476              		.loc 3 31 0
 2477 0050 38800000 		li 4,0
 2478 0054 3860000D 		li 3,13
 2479 0058 48000001 		bl GX_SetVtxDesc
 2480              		.loc 3 33 0
 2481 005c 813F0000 		lwz 9,0(31)
 2482 0060 7FE3FB78 		mr 3,31
 2483 0064 80090010 		lwz 0,16(9)
 2484 0068 7C0903A6 		mtctr 0
 2485 006c 4E800421 		bctrl
 2486              		.loc 3 34 0
 2487 0070 801F0024 		lwz 0,36(31)
 2488              		.loc 3 33 0
 2489 0074 6C638000 		xoris 3,3,0x8000
 2490 0078 93C10008 		stw 30,8(1)
 2491              		.loc 3 34 0
 2492 007c 6C008000 		xoris 0,0,0x8000
 2493              		.loc 3 33 0
 2494 0080 9061000C 		stw 3,12(1)
 2495              		.loc 3 34 0
 2496 0084 93C10010 		stw 30,16(1)
 2497              		.loc 3 33 0
 2498 0088 3D200000 		lis 9,.LC1@ha
 2499              		.loc 3 34 0
 2500 008c 90010014 		stw 0,20(1)
 2501              		.loc 3 35 0
 2502 0090 7FE3FB78 		mr 3,31
 2503              		.loc 3 33 0
 2504 0094 C3E90000 		lfs 31,.LC1@l(9)
 2505              		.loc 3 35 0
 2506 0098 813F0000 		lwz 9,0(31)
 2507              		.loc 3 33 0
 2508 009c CBC10008 		lfd 30,8(1)
 2509              		.loc 3 35 0
 2510 00a0 80090014 		lwz 0,20(9)
 2511              		.loc 3 34 0
 2512 00a4 CB810010 		lfd 28,16(1)
 2513              		.loc 3 33 0
 2514 00a8 FFDEF828 		fsub 30,30,31
 2515              		.loc 3 35 0
 2516 00ac 7C0903A6 		mtctr 0
 2517              		.loc 3 34 0
 2518 00b0 FF9CF828 		fsub 28,28,31
 2519              		.loc 3 33 0
 2520 00b4 FFC0F018 		frsp 30,30
 2521              	.LVL187:
 2522              		.loc 3 35 0
 2523 00b8 4E800421 		bctrl
 2524              		.loc 3 36 0
 2525 00bc 801F0028 		lwz 0,40(31)
 2526              		.loc 3 35 0
 2527 00c0 6C638000 		xoris 3,3,0x8000
 2528 00c4 93C10018 		stw 30,24(1)
 2529              		.loc 3 36 0
 2530 00c8 6C008000 		xoris 0,0,0x8000
 2531              		.loc 3 35 0
 2532 00cc 9061001C 		stw 3,28(1)
 2533              		.loc 3 36 0
 2534 00d0 93C10020 		stw 30,32(1)
 2535              		.loc 3 38 0
 2536 00d4 7FE3FB78 		mr 3,31
 2537              		.loc 3 36 0
 2538 00d8 90010024 		stw 0,36(1)
 2539              		.loc 3 34 0
 2540 00dc FF80E018 		frsp 28,28
 2541              		.loc 3 35 0
 2542 00e0 CBA10018 		lfd 29,24(1)
 2543              		.loc 3 38 0
 2544 00e4 813F0000 		lwz 9,0(31)
 2545              		.loc 3 36 0
 2546 00e8 C8010020 		lfd 0,32(1)
 2547              		.loc 3 35 0
 2548 00ec FFBDF828 		fsub 29,29,31
 2549              		.loc 3 38 0
 2550 00f0 80090064 		lwz 0,100(9)
 2551              		.loc 3 34 0
 2552 00f4 EF9CF02A 		fadds 28,28,30
 2553              	.LVL188:
 2554              		.loc 3 36 0
 2555 00f8 FFE0F828 		fsub 31,0,31
 2556              		.loc 3 38 0
 2557 00fc 7C0903A6 		mtctr 0
 2558              		.loc 3 35 0
 2559 0100 FFA0E818 		frsp 29,29
 2560              	.LVL189:
 2561              		.loc 3 36 0
 2562 0104 FFE0F818 		frsp 31,31
 2563              		.loc 3 38 0
 2564 0108 4E800421 		bctrl
 2565              		.loc 3 40 0
 2566 010c 38800000 		li 4,0
 2567              		.loc 3 38 0
 2568 0110 7C7E1B78 		mr 30,3
 2569              		.loc 3 40 0
 2570 0114 38A00004 		li 5,4
 2571 0118 386000A8 		li 3,168
 2572              		.loc 3 36 0
 2573 011c EFFFE82A 		fadds 31,31,29
 2574              	.LVL190:
 2575              		.loc 3 40 0
 2576 0120 48000001 		bl GX_Begin
 2577              	.LVL191:
 2578              	.LBB1457:
 2579              	.LBB1458:
 2580              		.file 8 "d:/devkitPro/libogc/include/ogc/gx.h"
 2581              		.loc 8 2123 0
 2582 0124 3D200000 		lis 9,wgPipe@ha
 2583 0128 81290000 		lwz 9,wgPipe@l(9)
 2584              		.loc 8 2125 0
 2585 012c 38000000 		li 0,0
 2586              	.LBE1458:
 2587              	.LBE1457:
 2588              		.loc 3 42 0
 2589 0130 57DE063E 		rlwinm 30,30,0,0xff
 2590              	.LVL192:
 2591              		.loc 3 50 0
 2592 0134 38600000 		li 3,0
 2593              	.LBB1461:
 2594              	.LBB1459:
 2595              		.loc 8 2123 0
 2596 0138 D3C90000 		stfs 30,0(9)
 2597              	.LBE1459:
 2598              	.LBE1461:
 2599              		.loc 3 50 0
 2600 013c 38800000 		li 4,0
 2601              	.LBB1462:
 2602              	.LBB1460:
 2603              		.loc 8 2124 0
 2604 0140 D3A90000 		stfs 29,0(9)
 2605              		.loc 8 2125 0
 2606 0144 90090000 		stw 0,0(9)
 2607              	.LBE1460:
 2608              	.LBE1462:
 2609              		.loc 3 42 0
 2610 0148 891F0090 		lbz 8,144(31)
 2611              	.LVL193:
 2612 014c 895F0091 		lbz 10,145(31)
 2613              	.LVL194:
 2614 0150 897F0092 		lbz 11,146(31)
 2615              	.LVL195:
 2616              	.LBB1463:
 2617              	.LBB1464:
 2618              		.loc 8 2229 0
 2619 0154 99090000 		stb 8,0(9)
 2620              		.loc 8 2230 0
 2621 0158 99490000 		stb 10,0(9)
 2622              		.loc 8 2231 0
 2623 015c 99690000 		stb 11,0(9)
 2624              		.loc 8 2232 0
 2625 0160 9BC90000 		stb 30,0(9)
 2626              	.LVL196:
 2627              	.LBE1464:
 2628              	.LBE1463:
 2629              	.LBB1465:
 2630              	.LBB1466:
 2631              		.loc 8 2123 0
 2632 0164 D3890000 		stfs 28,0(9)
 2633              		.loc 8 2124 0
 2634 0168 D3E90000 		stfs 31,0(9)
 2635              		.loc 8 2125 0
 2636 016c 90090000 		stw 0,0(9)
 2637              	.LBE1466:
 2638              	.LBE1465:
 2639              		.loc 3 44 0
 2640 0170 891F0090 		lbz 8,144(31)
 2641              	.LVL197:
 2642 0174 895F0091 		lbz 10,145(31)
 2643              	.LVL198:
 2644 0178 897F0092 		lbz 11,146(31)
 2645              	.LVL199:
 2646              	.LBB1467:
 2647              	.LBB1468:
 2648              		.loc 8 2229 0
 2649 017c 99090000 		stb 8,0(9)
 2650              		.loc 8 2230 0
 2651 0180 99490000 		stb 10,0(9)
 2652              		.loc 8 2231 0
 2653 0184 99690000 		stb 11,0(9)
 2654              		.loc 8 2232 0
 2655 0188 9BC90000 		stb 30,0(9)
 2656              	.LVL200:
 2657              	.LBE1468:
 2658              	.LBE1467:
 2659              	.LBB1469:
 2660              	.LBB1470:
 2661              		.loc 8 2123 0
 2662 018c D3890000 		stfs 28,0(9)
 2663              		.loc 8 2124 0
 2664 0190 D3A90000 		stfs 29,0(9)
 2665              		.loc 8 2125 0
 2666 0194 90090000 		stw 0,0(9)
 2667              	.LBE1470:
 2668              	.LBE1469:
 2669              		.loc 3 46 0
 2670 0198 891F0090 		lbz 8,144(31)
 2671              	.LVL201:
 2672 019c 895F0091 		lbz 10,145(31)
 2673              	.LVL202:
 2674 01a0 897F0092 		lbz 11,146(31)
 2675              	.LVL203:
 2676              	.LBB1471:
 2677              	.LBB1472:
 2678              		.loc 8 2229 0
 2679 01a4 99090000 		stb 8,0(9)
 2680              		.loc 8 2230 0
 2681 01a8 99490000 		stb 10,0(9)
 2682              		.loc 8 2231 0
 2683 01ac 99690000 		stb 11,0(9)
 2684              		.loc 8 2232 0
 2685 01b0 9BC90000 		stb 30,0(9)
 2686              	.LVL204:
 2687              	.LBE1472:
 2688              	.LBE1471:
 2689              	.LBB1473:
 2690              	.LBB1474:
 2691              		.loc 8 2123 0
 2692 01b4 D3C90000 		stfs 30,0(9)
 2693              		.loc 8 2124 0
 2694 01b8 D3E90000 		stfs 31,0(9)
 2695              		.loc 8 2125 0
 2696 01bc 90090000 		stw 0,0(9)
 2697              	.LBE1474:
 2698              	.LBE1473:
 2699              		.loc 3 48 0
 2700 01c0 881F0092 		lbz 0,146(31)
 2701 01c4 895F0090 		lbz 10,144(31)
 2702              	.LVL205:
 2703 01c8 897F0091 		lbz 11,145(31)
 2704              	.LVL206:
 2705              	.LBB1475:
 2706              	.LBB1476:
 2707              		.loc 8 2229 0
 2708 01cc 99490000 		stb 10,0(9)
 2709              		.loc 8 2230 0
 2710 01d0 99690000 		stb 11,0(9)
 2711              		.loc 8 2231 0
 2712 01d4 98090000 		stb 0,0(9)
 2713              		.loc 8 2232 0
 2714 01d8 9BC90000 		stb 30,0(9)
 2715              	.LBE1476:
 2716              	.LBE1475:
 2717              		.loc 3 50 0
 2718 01dc 48000001 		bl GX_SetTevOp
 2719              	.LVL207:
 2720              	.LBE1478:
 2721              		.loc 3 51 0
 2722 01e0 80010054 		lwz 0,84(1)
 2723 01e4 83C10028 		lwz 30,40(1)
 2724              	.LVL208:
 2725 01e8 7C0803A6 		mtlr 0
 2726 01ec 83E1002C 		lwz 31,44(1)
 2727              	.LVL209:
 2728 01f0 CB810030 		lfd 28,48(1)
 2729              	.LVL210:
 2730 01f4 CBA10038 		lfd 29,56(1)
 2731              	.LVL211:
 2732 01f8 CBC10040 		lfd 30,64(1)
 2733              	.LVL212:
 2734 01fc CBE10048 		lfd 31,72(1)
 2735              	.LVL213:
 2736 0200 38210050 		addi 1,1,80
 2737              	.LCFI38:
 2738              		.cfi_def_cfa_offset 0
 2739              		.cfi_restore 63
 2740              		.cfi_restore 62
 2741              		.cfi_restore 61
 2742              		.cfi_restore 60
 2743              		.cfi_restore 31
 2744              		.cfi_restore 30
 2745 0204 4E800020 		blr
 2746              		.cfi_endproc
 2747              	.LFE1473:
 2748              		.size	_ZN8GuiCross4DrawEv, .-_ZN8GuiCross4DrawEv
 2749              		.section	.text._ZN10GuiElement10ResetStateEv,"axG",@progbits,_ZN10GuiElement10ResetStateEv,comdat
 2750              		.align 2
 2751              		.weak	_ZN10GuiElement10ResetStateEv
 2752              		.type	_ZN10GuiElement10ResetStateEv, @function
 2753              	_ZN10GuiElement10ResetStateEv:
 2754              	.LFB1402:
 2755              		.loc 2 183 0
 2756              		.cfi_startproc
 2757              	.LVL214:
 2758 0000 7C0802A6 		mflr 0
 2759 0004 9421FFF8 		stwu 1,-8(1)
 2760              	.LCFI39:
 2761              		.cfi_def_cfa_offset 8
 2762              		.cfi_register 65, 0
 2763 0008 9001000C 		stw 0,12(1)
 2764              		.loc 2 185 0
 2765 000c 80030048 		lwz 0,72(3)
 2766              		.cfi_offset 65, 4
 2767 0010 2F800004 		cmpwi 7,0,4
 2768 0014 419E001C 		beq- 7,.L136
 2769              	.LVL215:
 2770              	.LBB1481:
 2771              	.LBB1482:
 2772              		.loc 2 186 0
 2773 0018 81230000 		lwz 9,0(3)
 2774 001c 38800000 		li 4,0
 2775 0020 38A0FFFF 		li 5,-1
 2776 0024 80090050 		lwz 0,80(9)
 2777 0028 7C0903A6 		mtctr 0
 2778 002c 4E800421 		bctrl
 2779              	.LVL216:
 2780              	.L136:
 2781              	.LBE1482:
 2782              	.LBE1481:
 2783              		.loc 2 187 0
 2784 0030 8001000C 		lwz 0,12(1)
 2785 0034 38210008 		addi 1,1,8
 2786              	.LCFI40:
 2787              		.cfi_def_cfa_offset 0
 2788 0038 7C0803A6 		mtlr 0
 2789 003c 4E800020 		blr
 2790              		.cfi_endproc
 2791              	.LFE1402:
 2792              		.size	_ZN10GuiElement10ResetStateEv, .-_ZN10GuiElement10ResetStateEv
 2793              		.section	.text._ZNSt8_Rb_treeIPN7sigslot12_signal_baseINS0_15single_threadedEEES4_St9_IdentityIS4_
 2794              		.align 2
 2795              		.weak	_ZNSt8_Rb_treeIPN7sigslot12_signal_baseINS0_15single_threadedEEES4_St9_IdentityIS4_ESt4lessI
 2796              		.type	_ZNSt8_Rb_treeIPN7sigslot12_signal_baseINS0_15single_threadedEEES4_St9_IdentityIS4_ESt4lessI
 2797              	_ZNSt8_Rb_treeIPN7sigslot12_signal_baseINS0_15single_threadedEEES4_St9_IdentityIS4_ESt4lessIS4_ESaI
 2798              	.LFB1678:
 2799              		.file 9 "d:\\devkitpro\\devkitppc\\bin\\../lib/gcc/powerpc-eabi/4.6.3/../../../../powerpc-eabi/inc
 2800              		.loc 9 1068 0
 2801              		.cfi_startproc
 2802              	.LVL217:
 2803 0000 9421FFC8 		stwu 1,-56(1)
 2804              	.LCFI41:
 2805              		.cfi_def_cfa_offset 56
 2806 0004 7C0802A6 		mflr 0
 2807 0008 92C10010 		stw 22,16(1)
 2808              	.LBB1599:
 2809              		.loc 9 1072 0
 2810 000c 7C962379 		mr. 22,4
 2811              		.cfi_offset 22, -40
 2812              		.cfi_register 65, 0
 2813              	.LBE1599:
 2814              		.loc 9 1068 0
 2815 0010 93C10030 		stw 30,48(1)
 2816 0014 7C7E1B78 		mr 30,3
 2817              		.cfi_offset 30, -8
 2818 0018 9001003C 		stw 0,60(1)
 2819 001c 92A1000C 		stw 21,12(1)
 2820 0020 92E10014 		stw 23,20(1)
 2821 0024 93010018 		stw 24,24(1)
 2822 0028 9321001C 		stw 25,28(1)
 2823 002c 93410020 		stw 26,32(1)
 2824 0030 93610024 		stw 27,36(1)
 2825 0034 93810028 		stw 28,40(1)
 2826 0038 93A1002C 		stw 29,44(1)
 2827 003c 93E10034 		stw 31,52(1)
 2828              	.LBB1684:
 2829              		.loc 9 1072 0
 2830 0040 41820168 		beq- 0,.L138
 2831              		.cfi_offset 31, -4
 2832              		.cfi_offset 29, -12
 2833              		.cfi_offset 28, -16
 2834              		.cfi_offset 27, -20
 2835              		.cfi_offset 26, -24
 2836              		.cfi_offset 25, -28
 2837              		.cfi_offset 24, -32
 2838              		.cfi_offset 23, -36
 2839              		.cfi_offset 21, -44
 2840              		.cfi_offset 65, 4
 2841              	.LVL218:
 2842              	.L184:
 2843              		.loc 3 51 0
 2844 0044 8376000C 		lwz 27,12(22)
 2845              	.LVL219:
 2846              	.LBB1600:
 2847              	.LBB1601:
 2848              	.LBB1602:
 2849              		.loc 9 1072 0
 2850 0048 2F9B0000 		cmpwi 7,27,0
 2851 004c 419E0140 		beq- 7,.L140
 2852              	.LVL220:
 2853              	.L185:
 2854              	.LBE1602:
 2855              		.loc 3 51 0
 2856 0050 835B000C 		lwz 26,12(27)
 2857              	.LVL221:
 2858              	.LBB1678:
 2859              	.LBB1603:
 2860              	.LBB1604:
 2861              	.LBB1605:
 2862              		.loc 9 1072 0
 2863 0054 2F9A0000 		cmpwi 7,26,0
 2864 0058 419E0118 		beq- 7,.L141
 2865              	.LVL222:
 2866              	.L186:
 2867              	.LBE1605:
 2868              		.loc 3 51 0
 2869 005c 833A000C 		lwz 25,12(26)
 2870              	.LVL223:
 2871              	.LBB1671:
 2872              	.LBB1606:
 2873              	.LBB1607:
 2874              	.LBB1608:
 2875              		.loc 9 1072 0
 2876 0060 2F990000 		cmpwi 7,25,0
 2877 0064 419E00F0 		beq- 7,.L142
 2878              	.LVL224:
 2879              	.L187:
 2880              	.LBE1608:
 2881              		.loc 3 51 0
 2882 0068 8319000C 		lwz 24,12(25)
 2883              	.LVL225:
 2884              	.LBB1664:
 2885              	.LBB1609:
 2886              	.LBB1610:
 2887              	.LBB1611:
 2888              		.loc 9 1072 0
 2889 006c 2F980000 		cmpwi 7,24,0
 2890 0070 419E00C8 		beq- 7,.L143
 2891              	.LVL226:
 2892              	.L188:
 2893              	.LBE1611:
 2894              		.loc 3 51 0
 2895 0074 82F8000C 		lwz 23,12(24)
 2896              	.LVL227:
 2897              	.LBB1657:
 2898              	.LBB1612:
 2899              	.LBB1613:
 2900              	.LBB1614:
 2901              		.loc 9 1072 0
 2902 0078 2F970000 		cmpwi 7,23,0
 2903 007c 419E00A0 		beq- 7,.L144
 2904              	.LVL228:
 2905              	.L189:
 2906              	.LBE1614:
 2907              		.loc 3 51 0
 2908 0080 8397000C 		lwz 28,12(23)
 2909              	.LVL229:
 2910              	.LBB1650:
 2911              	.LBB1615:
 2912              	.LBB1616:
 2913              	.LBB1617:
 2914              		.loc 9 1072 0
 2915 0084 2F9C0000 		cmpwi 7,28,0
 2916 0088 419E0078 		beq- 7,.L145
 2917              	.LVL230:
 2918              	.L190:
 2919              	.LBE1617:
 2920              		.loc 3 51 0
 2921 008c 83BC000C 		lwz 29,12(28)
 2922              	.LVL231:
 2923              	.LBB1643:
 2924              	.LBB1618:
 2925              	.LBB1619:
 2926              	.LBB1620:
 2927              		.loc 9 1072 0
 2928 0090 2F9D0000 		cmpwi 7,29,0
 2929 0094 419E0050 		beq- 7,.L146
 2930              	.LVL232:
 2931              	.L191:
 2932              	.LBE1620:
 2933              		.loc 3 51 0
 2934 0098 83FD000C 		lwz 31,12(29)
 2935              	.LVL233:
 2936              	.LBB1636:
 2937              	.LBB1621:
 2938              	.LBB1622:
 2939              	.LBB1623:
 2940              		.loc 9 1072 0
 2941 009c 2F9F0000 		cmpwi 7,31,0
 2942 00a0 419E0028 		beq- 7,.L147
 2943              	.LVL234:
 2944              	.L192:
 2945              	.LBB1624:
 2946              		.loc 9 1074 0
 2947 00a4 809F000C 		lwz 4,12(31)
 2948 00a8 7FC3F378 		mr 3,30
 2949 00ac 48000001 		bl _ZNSt8_Rb_treeIPN7sigslot12_signal_baseINS0_15single_threadedEEES4_St9_IdentityIS4_ESt4lessIS4_
 2950              	.LBE1624:
 2951              	.LBE1623:
 2952              		.loc 3 51 0
 2953 00b0 82BF0008 		lwz 21,8(31)
 2954              	.LVL235:
 2955              	.LBB1630:
 2956              	.LBB1629:
 2957              	.LBB1625:
 2958              	.LBB1626:
 2959              	.LBB1627:
 2960              	.LBB1628:
 2961              		.loc 7 98 0
 2962 00b4 7FE3FB78 		mr 3,31
 2963 00b8 48000001 		bl _ZdlPv
 2964              	.LVL236:
 2965              	.LBE1628:
 2966              	.LBE1627:
 2967              	.LBE1626:
 2968              	.LBE1625:
 2969              	.LBE1629:
 2970              		.loc 9 1072 0
 2971 00bc 2F950000 		cmpwi 7,21,0
 2972              		.loc 9 1077 0
 2973 00c0 7EBFAB78 		mr 31,21
 2974              	.LVL237:
 2975              		.loc 9 1072 0
 2976 00c4 409EFFE0 		bne+ 7,.L192
 2977              	.LVL238:
 2978              	.L147:
 2979              	.LBE1630:
 2980              	.LBE1622:
 2981              	.LBE1621:
 2982              	.LBE1636:
 2983              		.loc 3 51 0
 2984 00c8 83FD0008 		lwz 31,8(29)
 2985              	.LVL239:
 2986              	.LBB1637:
 2987              	.LBB1635:
 2988              	.LBB1631:
 2989              	.LBB1632:
 2990              	.LBB1633:
 2991              	.LBB1634:
 2992              		.loc 7 98 0
 2993 00cc 7FA3EB78 		mr 3,29
 2994 00d0 48000001 		bl _ZdlPv
 2995              	.LVL240:
 2996              	.LBE1634:
 2997              	.LBE1633:
 2998              	.LBE1632:
 2999              	.LBE1631:
 3000              	.LBE1635:
 3001              		.loc 9 1072 0
 3002 00d4 2F9F0000 		cmpwi 7,31,0
 3003 00d8 419E000C 		beq- 7,.L146
 3004              		.loc 9 1077 0
 3005 00dc 7FFDFB78 		mr 29,31
 3006              	.LVL241:
 3007 00e0 4BFFFFB8 		b .L191
 3008              	.LVL242:
 3009              	.L146:
 3010              	.LBE1637:
 3011              	.LBE1619:
 3012              	.LBE1618:
 3013              	.LBE1643:
 3014              		.loc 3 51 0
 3015 00e4 83FC0008 		lwz 31,8(28)
 3016              	.LVL243:
 3017              	.LBB1644:
 3018              	.LBB1642:
 3019              	.LBB1638:
 3020              	.LBB1639:
 3021              	.LBB1640:
 3022              	.LBB1641:
 3023              		.loc 7 98 0
 3024 00e8 7F83E378 		mr 3,28
 3025 00ec 48000001 		bl _ZdlPv
 3026              	.LVL244:
 3027              	.LBE1641:
 3028              	.LBE1640:
 3029              	.LBE1639:
 3030              	.LBE1638:
 3031              	.LBE1642:
 3032              		.loc 9 1072 0
 3033 00f0 2F9F0000 		cmpwi 7,31,0
 3034 00f4 419E000C 		beq- 7,.L145
 3035              		.loc 9 1077 0
 3036 00f8 7FFCFB78 		mr 28,31
 3037              	.LVL245:
 3038 00fc 4BFFFF90 		b .L190
 3039              	.LVL246:
 3040              	.L145:
 3041              	.LBE1644:
 3042              	.LBE1616:
 3043              	.LBE1615:
 3044              	.LBE1650:
 3045              		.loc 3 51 0
 3046 0100 83F70008 		lwz 31,8(23)
 3047              	.LVL247:
 3048              	.LBB1651:
 3049              	.LBB1649:
 3050              	.LBB1645:
 3051              	.LBB1646:
 3052              	.LBB1647:
 3053              	.LBB1648:
 3054              		.loc 7 98 0
 3055 0104 7EE3BB78 		mr 3,23
 3056 0108 48000001 		bl _ZdlPv
 3057              	.LVL248:
 3058              	.LBE1648:
 3059              	.LBE1647:
 3060              	.LBE1646:
 3061              	.LBE1645:
 3062              	.LBE1649:
 3063              		.loc 9 1072 0
 3064 010c 2F9F0000 		cmpwi 7,31,0
 3065 0110 419E000C 		beq- 7,.L144
 3066              		.loc 9 1077 0
 3067 0114 7FF7FB78 		mr 23,31
 3068              	.LVL249:
 3069 0118 4BFFFF68 		b .L189
 3070              	.LVL250:
 3071              	.L144:
 3072              	.LBE1651:
 3073              	.LBE1613:
 3074              	.LBE1612:
 3075              	.LBE1657:
 3076              		.loc 3 51 0
 3077 011c 83F80008 		lwz 31,8(24)
 3078              	.LVL251:
 3079              	.LBB1658:
 3080              	.LBB1656:
 3081              	.LBB1652:
 3082              	.LBB1653:
 3083              	.LBB1654:
 3084              	.LBB1655:
 3085              		.loc 7 98 0
 3086 0120 7F03C378 		mr 3,24
 3087 0124 48000001 		bl _ZdlPv
 3088              	.LVL252:
 3089              	.LBE1655:
 3090              	.LBE1654:
 3091              	.LBE1653:
 3092              	.LBE1652:
 3093              	.LBE1656:
 3094              		.loc 9 1072 0
 3095 0128 2F9F0000 		cmpwi 7,31,0
 3096 012c 419E000C 		beq- 7,.L143
 3097              		.loc 9 1077 0
 3098 0130 7FF8FB78 		mr 24,31
 3099              	.LVL253:
 3100 0134 4BFFFF40 		b .L188
 3101              	.LVL254:
 3102              	.L143:
 3103              	.LBE1658:
 3104              	.LBE1610:
 3105              	.LBE1609:
 3106              	.LBE1664:
 3107              		.loc 3 51 0
 3108 0138 83F90008 		lwz 31,8(25)
 3109              	.LVL255:
 3110              	.LBB1665:
 3111              	.LBB1663:
 3112              	.LBB1659:
 3113              	.LBB1660:
 3114              	.LBB1661:
 3115              	.LBB1662:
 3116              		.loc 7 98 0
 3117 013c 7F23CB78 		mr 3,25
 3118 0140 48000001 		bl _ZdlPv
 3119              	.LVL256:
 3120              	.LBE1662:
 3121              	.LBE1661:
 3122              	.LBE1660:
 3123              	.LBE1659:
 3124              	.LBE1663:
 3125              		.loc 9 1072 0
 3126 0144 2F9F0000 		cmpwi 7,31,0
 3127 0148 419E000C 		beq- 7,.L142
 3128              		.loc 9 1077 0
 3129 014c 7FF9FB78 		mr 25,31
 3130              	.LVL257:
 3131 0150 4BFFFF18 		b .L187
 3132              	.LVL258:
 3133              	.L142:
 3134              	.LBE1665:
 3135              	.LBE1607:
 3136              	.LBE1606:
 3137              	.LBE1671:
 3138              		.loc 3 51 0
 3139 0154 83FA0008 		lwz 31,8(26)
 3140              	.LVL259:
 3141              	.LBB1672:
 3142              	.LBB1670:
 3143              	.LBB1666:
 3144              	.LBB1667:
 3145              	.LBB1668:
 3146              	.LBB1669:
 3147              		.loc 7 98 0
 3148 0158 7F43D378 		mr 3,26
 3149 015c 48000001 		bl _ZdlPv
 3150              	.LVL260:
 3151              	.LBE1669:
 3152              	.LBE1668:
 3153              	.LBE1667:
 3154              	.LBE1666:
 3155              	.LBE1670:
 3156              		.loc 9 1072 0
 3157 0160 2F9F0000 		cmpwi 7,31,0
 3158 0164 419E000C 		beq- 7,.L141
 3159              		.loc 9 1077 0
 3160 0168 7FFAFB78 		mr 26,31
 3161              	.LVL261:
 3162 016c 4BFFFEF0 		b .L186
 3163              	.LVL262:
 3164              	.L141:
 3165              	.LBE1672:
 3166              	.LBE1604:
 3167              	.LBE1603:
 3168              	.LBE1678:
 3169              		.loc 3 51 0
 3170 0170 83FB0008 		lwz 31,8(27)
 3171              	.LVL263:
 3172              	.LBB1679:
 3173              	.LBB1677:
 3174              	.LBB1673:
 3175              	.LBB1674:
 3176              	.LBB1675:
 3177              	.LBB1676:
 3178              		.loc 7 98 0
 3179 0174 7F63DB78 		mr 3,27
 3180 0178 48000001 		bl _ZdlPv
 3181              	.LVL264:
 3182              	.LBE1676:
 3183              	.LBE1675:
 3184              	.LBE1674:
 3185              	.LBE1673:
 3186              	.LBE1677:
 3187              		.loc 9 1072 0
 3188 017c 2F9F0000 		cmpwi 7,31,0
 3189 0180 419E000C 		beq- 7,.L140
 3190              		.loc 9 1077 0
 3191 0184 7FFBFB78 		mr 27,31
 3192              	.LVL265:
 3193 0188 4BFFFEC8 		b .L185
 3194              	.LVL266:
 3195              	.L140:
 3196              		.loc 3 51 0
 3197 018c 83F60008 		lwz 31,8(22)
 3198              	.LVL267:
 3199              	.LBE1679:
 3200              	.LBE1601:
 3201              	.LBB1680:
 3202              	.LBB1681:
 3203              	.LBB1682:
 3204              	.LBB1683:
 3205              		.loc 7 98 0
 3206 0190 7EC3B378 		mr 3,22
 3207 0194 48000001 		bl _ZdlPv
 3208              	.LVL268:
 3209              	.LBE1683:
 3210              	.LBE1682:
 3211              	.LBE1681:
 3212              	.LBE1680:
 3213              	.LBE1600:
 3214              		.loc 9 1072 0
 3215 0198 2F9F0000 		cmpwi 7,31,0
 3216 019c 419E000C 		beq- 7,.L138
 3217              		.loc 9 1077 0
 3218 01a0 7FF6FB78 		mr 22,31
 3219              	.LVL269:
 3220 01a4 4BFFFEA0 		b .L184
 3221              	.LVL270:
 3222              	.L138:
 3223              	.LBE1684:
 3224              		.loc 9 1079 0
 3225 01a8 8001003C 		lwz 0,60(1)
 3226 01ac 82A1000C 		lwz 21,12(1)
 3227 01b0 7C0803A6 		mtlr 0
 3228 01b4 82C10010 		lwz 22,16(1)
 3229 01b8 82E10014 		lwz 23,20(1)
 3230 01bc 83010018 		lwz 24,24(1)
 3231 01c0 8321001C 		lwz 25,28(1)
 3232 01c4 83410020 		lwz 26,32(1)
 3233 01c8 83610024 		lwz 27,36(1)
 3234 01cc 83810028 		lwz 28,40(1)
 3235 01d0 83A1002C 		lwz 29,44(1)
 3236 01d4 83C10030 		lwz 30,48(1)
 3237              	.LVL271:
 3238 01d8 83E10034 		lwz 31,52(1)
 3239 01dc 38210038 		addi 1,1,56
 3240              	.LCFI42:
 3241              		.cfi_def_cfa_offset 0
 3242              		.cfi_restore 31
 3243              		.cfi_restore 30
 3244              		.cfi_restore 29
 3245              		.cfi_restore 28
 3246              		.cfi_restore 27
 3247              		.cfi_restore 26
 3248              		.cfi_restore 25
 3249              		.cfi_restore 24
 3250              		.cfi_restore 23
 3251              		.cfi_restore 22
 3252              		.cfi_restore 21
 3253 01e0 4E800020 		blr
 3254              		.cfi_endproc
 3255              	.LFE1678:
 3256              		.size	_ZNSt8_Rb_treeIPN7sigslot12_signal_baseINS0_15single_threadedEEES4_St9_IdentityIS4_ESt4lessI
 3257              		.section	.text._ZNSt8_Rb_treeIPN7sigslot12_signal_baseINS0_15single_threadedEEES4_St9_IdentityIS4_
 3258              		.align 2
 3259              		.weak	_ZNSt8_Rb_treeIPN7sigslot12_signal_baseINS0_15single_threadedEEES4_St9_IdentityIS4_ESt4lessI
 3260              		.type	_ZNSt8_Rb_treeIPN7sigslot12_signal_baseINS0_15single_threadedEEES4_St9_IdentityIS4_ESt4lessI
 3261              	_ZNSt8_Rb_treeIPN7sigslot12_signal_baseINS0_15single_threadedEEES4_St9_IdentityIS4_ESt4lessIS4_ESaI
 3262              	.LFB1622:
 3263              		.loc 9 1510 0
 3264              		.cfi_startproc
 3265              	.LVL272:
 3266 0000 7C0802A6 		mflr 0
 3267 0004 9421FFE0 		stwu 1,-32(1)
 3268              	.LCFI43:
 3269              		.cfi_def_cfa_offset 32
 3270              		.cfi_register 65, 0
 3271 0008 93810010 		stw 28,16(1)
 3272              	.LBB1685:
 3273              	.LBB1686:
 3274              		.loc 9 1155 0
 3275 000c 3B830004 		addi 28,3,4
 3276              		.cfi_offset 28, -16
 3277              	.LBE1686:
 3278              	.LBE1685:
 3279              		.loc 9 1510 0
 3280 0010 90010024 		stw 0,36(1)
 3281 0014 93410008 		stw 26,8(1)
 3282              	.LBB1742:
 3283              	.LBB1707:
 3284              	.LBB1687:
 3285              		.loc 9 1155 0
 3286 0018 7F9AE378 		mr 26,28
 3287              		.cfi_offset 26, -24
 3288              		.cfi_offset 65, 4
 3289              	.LBE1687:
 3290              		.loc 3 51 0
 3291 001c 80030008 		lwz 0,8(3)
 3292              	.LBE1707:
 3293              	.LBE1742:
 3294              		.loc 9 1510 0
 3295 0020 93A10014 		stw 29,20(1)
 3296              	.LBB1743:
 3297              	.LBB1708:
 3298              	.LBB1700:
 3299              		.loc 9 1155 0
 3300 0024 7F9DE378 		mr 29,28
 3301              		.cfi_offset 29, -12
 3302              		.loc 9 1156 0
 3303 0028 2F800000 		cmpwi 7,0,0
 3304              	.LBE1700:
 3305              	.LBE1708:
 3306              	.LBE1743:
 3307              		.loc 9 1510 0
 3308 002c 93C10018 		stw 30,24(1)
 3309 0030 9361000C 		stw 27,12(1)
 3310 0034 7C7E1B78 		mr 30,3
 3311              		.cfi_offset 27, -20
 3312              		.cfi_offset 30, -8
 3313              	.LVL273:
 3314 0038 93E1001C 		stw 31,28(1)
 3315              	.LBB1744:
 3316              	.LBB1709:
 3317              	.LBB1701:
 3318              		.loc 9 1156 0
 3319 003c 419E0040 		beq- 7,.L194
 3320              		.cfi_offset 31, -4
 3321              	.LVL274:
 3322 0040 81640000 		lwz 11,0(4)
 3323 0044 7C1A0378 		mr 26,0
 3324 0048 48000010 		b .L205
 3325              	.LVL275:
 3326              	.L224:
 3327              	.LBE1701:
 3328              		.loc 3 51 0
 3329 004c 835A000C 		lwz 26,12(26)
 3330              	.LVL276:
 3331              	.LBB1702:
 3332              		.loc 9 1156 0
 3333 0050 2F9A0000 		cmpwi 7,26,0
 3334 0054 419E0024 		beq- 7,.L223
 3335              	.L205:
 3336              	.LVL277:
 3337              	.LBE1702:
 3338              		.loc 3 51 0
 3339 0058 813A0010 		lwz 9,16(26)
 3340              	.LBB1703:
 3341              	.LBB1688:
 3342              		.loc 9 1158 0
 3343 005c 7F895840 		cmplw 7,9,11
 3344 0060 41BCFFEC 		blt- 7,.L224
 3345              	.LVL278:
 3346              	.LBB1689:
 3347              		.loc 9 1160 0
 3348 0064 409D0094 		ble- 7,.L197
 3349              	.LVL279:
 3350              	.LBE1689:
 3351              	.LBE1688:
 3352              	.LBE1703:
 3353              		.loc 3 51 0
 3354 0068 7F5DD378 		mr 29,26
 3355              		.loc 9 1161 0
 3356 006c 835A0008 		lwz 26,8(26)
 3357              	.LVL280:
 3358              	.LBB1704:
 3359              		.loc 9 1156 0
 3360 0070 2F9A0000 		cmpwi 7,26,0
 3361 0074 409EFFE4 		bne+ 7,.L205
 3362              	.LVL281:
 3363              	.L223:
 3364 0078 7FBAEB78 		mr 26,29
 3365              	.LVL282:
 3366              	.L194:
 3367              	.LBE1704:
 3368              	.LBE1709:
 3369              	.LBB1710:
 3370              	.LBB1711:
 3371              		.loc 3 51 0
 3372 007c 813E000C 		lwz 9,12(30)
 3373              	.LBE1711:
 3374              	.LBE1710:
 3375              	.LBB1738:
 3376              	.LBB1705:
 3377 0080 837E0014 		lwz 27,20(30)
 3378              	.LVL283:
 3379              	.LBE1705:
 3380              	.LBE1738:
 3381              	.LBB1739:
 3382              	.LBB1736:
 3383              	.LBB1712:
 3384              		.loc 9 1500 0
 3385 0084 7F89D000 		cmpw 7,9,26
 3386 0088 419E00DC 		beq- 7,.L206
 3387              	.L210:
 3388              	.LVL284:
 3389              		.loc 9 1503 0
 3390 008c 7F9AE800 		cmpw 7,26,29
 3391 0090 419E0100 		beq- 7,.L225
 3392              	.LVL285:
 3393              	.L221:
 3394              	.LBB1713:
 3395              	.LBB1714:
 3396              		.loc 9 277 0
 3397 0094 7F43D378 		mr 3,26
 3398 0098 48000001 		bl _ZSt18_Rb_tree_incrementPKSt18_Rb_tree_node_base
 3399              	.LBE1714:
 3400              	.LBE1713:
 3401              	.LBB1716:
 3402              	.LBB1717:
 3403              	.LBB1718:
 3404              		.loc 9 1489 0
 3405 009c 7F84E378 		mr 4,28
 3406              	.LBE1718:
 3407              	.LBE1717:
 3408              	.LBE1716:
 3409              	.LBB1729:
 3410              	.LBB1715:
 3411              		.loc 9 277 0
 3412 00a0 7C7F1B78 		mr 31,3
 3413              	.LVL286:
 3414              	.LBE1715:
 3415              	.LBE1729:
 3416              	.LBB1730:
 3417              	.LBB1726:
 3418              	.LBB1723:
 3419              		.loc 9 1489 0
 3420 00a4 7F43D378 		mr 3,26
 3421              	.LVL287:
 3422 00a8 48000001 		bl _ZSt28_Rb_tree_rebalance_for_erasePSt18_Rb_tree_node_baseRS_
 3423              	.LBE1723:
 3424              	.LBE1726:
 3425              	.LBE1730:
 3426              		.loc 9 277 0
 3427 00ac 7FFAFB78 		mr 26,31
 3428              	.LVL288:
 3429              	.LBB1731:
 3430              	.LBB1727:
 3431              	.LBB1724:
 3432              	.LBB1719:
 3433              	.LBB1720:
 3434              	.LBB1721:
 3435              	.LBB1722:
 3436              		.loc 7 98 0
 3437 00b0 48000001 		bl _ZdlPv
 3438              	.LBE1722:
 3439              	.LBE1721:
 3440              	.LBE1720:
 3441              	.LBE1719:
 3442              	.LBE1724:
 3443              	.LBE1727:
 3444              	.LBE1731:
 3445              		.loc 9 1503 0
 3446 00b4 7F9FE800 		cmpw 7,31,29
 3447              	.LBB1732:
 3448              	.LBB1728:
 3449              	.LBB1725:
 3450              		.loc 9 1491 0
 3451 00b8 813E0014 		lwz 9,20(30)
 3452 00bc 3809FFFF 		addi 0,9,-1
 3453 00c0 901E0014 		stw 0,20(30)
 3454              	.LBE1725:
 3455              	.LBE1728:
 3456              	.LBE1732:
 3457              		.loc 9 1503 0
 3458 00c4 409EFFD0 		bne+ 7,.L221
 3459 00c8 7F60D850 		subf 27,0,27
 3460              	.LVL289:
 3461              	.L208:
 3462              	.LBE1712:
 3463              	.LBE1736:
 3464              	.LBE1739:
 3465              	.LBE1744:
 3466              		.loc 9 1517 0
 3467 00cc 80010024 		lwz 0,36(1)
 3468 00d0 7F63DB78 		mr 3,27
 3469 00d4 83410008 		lwz 26,8(1)
 3470 00d8 7C0803A6 		mtlr 0
 3471 00dc 8361000C 		lwz 27,12(1)
 3472 00e0 83810010 		lwz 28,16(1)
 3473 00e4 83A10014 		lwz 29,20(1)
 3474              	.LVL290:
 3475 00e8 83C10018 		lwz 30,24(1)
 3476              	.LVL291:
 3477 00ec 83E1001C 		lwz 31,28(1)
 3478 00f0 38210020 		addi 1,1,32
 3479              		.cfi_remember_state
 3480              	.LCFI44:
 3481              		.cfi_def_cfa_offset 0
 3482              		.cfi_restore 31
 3483              		.cfi_restore 30
 3484              		.cfi_restore 29
 3485              		.cfi_restore 28
 3486              		.cfi_restore 27
 3487              		.cfi_restore 26
 3488 00f4 4E800020 		blr
 3489              	.LVL292:
 3490              	.L197:
 3491              	.LCFI45:
 3492              		.cfi_restore_state
 3493              	.LBB1745:
 3494              	.LBB1740:
 3495              		.loc 3 51 0
 3496 00f8 815A0008 		lwz 10,8(26)
 3497              	.LVL293:
 3498 00fc 813A000C 		lwz 9,12(26)
 3499              	.LVL294:
 3500              	.L222:
 3501              	.LBB1706:
 3502              	.LBB1699:
 3503              	.LBB1698:
 3504              	.LBB1690:
 3505              	.LBB1691:
 3506              	.LBB1692:
 3507              		.loc 9 1089 0
 3508 0100 2F8A0000 		cmpwi 7,10,0
 3509 0104 419E0020 		beq- 7,.L198
 3510              	.L226:
 3511              	.LVL295:
 3512              		.loc 9 1090 0
 3513 0108 810A0010 		lwz 8,16(10)
 3514 010c 7F885840 		cmplw 7,8,11
 3515 0110 419C004C 		blt- 7,.L199
 3516              	.LVL296:
 3517              	.LBE1692:
 3518              		.loc 3 51 0
 3519 0114 7D5A5378 		mr 26,10
 3520              		.loc 9 1091 0
 3521 0118 814A0008 		lwz 10,8(10)
 3522              	.LVL297:
 3523              	.LBB1693:
 3524              		.loc 9 1089 0
 3525 011c 2F8A0000 		cmpwi 7,10,0
 3526 0120 409EFFE8 		bne+ 7,.L226
 3527              	.LVL298:
 3528              	.L198:
 3529              	.LBE1693:
 3530              	.LBE1691:
 3531              	.LBB1694:
 3532              	.LBB1695:
 3533              		.loc 9 1121 0
 3534 0124 2F890000 		cmpwi 7,9,0
 3535 0128 41BEFF54 		beq- 7,.L194
 3536              	.LVL299:
 3537              		.loc 9 1122 0
 3538 012c 81490010 		lwz 10,16(9)
 3539 0130 7F8A5840 		cmplw 7,10,11
 3540 0134 409D0020 		ble- 7,.L202
 3541              	.LVL300:
 3542              	.L227:
 3543              	.LBE1695:
 3544              		.loc 3 51 0
 3545 0138 7D3D4B78 		mr 29,9
 3546              		.loc 9 1123 0
 3547 013c 81290008 		lwz 9,8(9)
 3548              	.LVL301:
 3549              	.LBB1696:
 3550              		.loc 9 1121 0
 3551 0140 2F890000 		cmpwi 7,9,0
 3552 0144 41BEFF38 		beq- 7,.L194
 3553              	.LVL302:
 3554              		.loc 9 1122 0
 3555 0148 81490010 		lwz 10,16(9)
 3556 014c 7F8A5840 		cmplw 7,10,11
 3557 0150 41BDFFE8 		bgt- 7,.L227
 3558              	.LVL303:
 3559              	.L202:
 3560              	.LBE1696:
 3561              		.loc 3 51 0
 3562 0154 8129000C 		lwz 9,12(9)
 3563              	.LVL304:
 3564 0158 4BFFFFCC 		b .L198
 3565              	.LVL305:
 3566              	.L199:
 3567              	.LBE1694:
 3568              	.LBB1697:
 3569 015c 814A000C 		lwz 10,12(10)
 3570              	.LVL306:
 3571 0160 4BFFFFA0 		b .L222
 3572              	.LVL307:
 3573              	.L206:
 3574              	.LBE1697:
 3575              	.LBE1690:
 3576              	.LBE1698:
 3577              	.LBE1699:
 3578              	.LBE1706:
 3579              	.LBE1740:
 3580              	.LBB1741:
 3581              	.LBB1737:
 3582              	.LBB1735:
 3583              		.loc 9 1500 0
 3584 0164 7F9CE800 		cmpw 7,28,29
 3585 0168 409EFF24 		bne+ 7,.L210
 3586              	.LVL308:
 3587              	.LBB1733:
 3588              	.LBB1734:
 3589              		.loc 9 809 0
 3590 016c 7C040378 		mr 4,0
 3591              	.LVL309:
 3592 0170 7FC3F378 		mr 3,30
 3593              	.LVL310:
 3594 0174 48000001 		bl _ZNSt8_Rb_treeIPN7sigslot12_signal_baseINS0_15single_threadedEEES4_St9_IdentityIS4_ESt4lessIS4_
 3595              	.LVL311:
 3596              		.loc 9 811 0
 3597 0178 38000000 		li 0,0
 3598              		.loc 9 810 0
 3599 017c 939E000C 		stw 28,12(30)
 3600              	.LVL312:
 3601              		.loc 9 811 0
 3602 0180 901E0008 		stw 0,8(30)
 3603              	.LVL313:
 3604              		.loc 9 812 0
 3605 0184 939E0010 		stw 28,16(30)
 3606              		.loc 9 813 0
 3607 0188 901E0014 		stw 0,20(30)
 3608 018c 4BFFFF40 		b .L208
 3609              	.LVL314:
 3610              	.L225:
 3611              	.LBE1734:
 3612              	.LBE1733:
 3613              		.loc 9 1503 0
 3614 0190 3B600000 		li 27,0
 3615 0194 4BFFFF38 		b .L208
 3616              	.LBE1735:
 3617              	.LBE1737:
 3618              	.LBE1741:
 3619              	.LBE1745:
 3620              		.cfi_endproc
 3621              	.LFE1622:
 3622              		.size	_ZNSt8_Rb_treeIPN7sigslot12_signal_baseINS0_15single_threadedEEES4_St9_IdentityIS4_ESt4lessI
 3623              		.section	.text._ZN7sigslot13_signal_base3IP10GuiElementiiNS_15single_threadedEED0Ev,"axG",@progbit
 3624              		.align 2
 3625              		.weak	_ZN7sigslot13_signal_base3IP10GuiElementiiNS_15single_threadedEED0Ev
 3626              		.type	_ZN7sigslot13_signal_base3IP10GuiElementiiNS_15single_threadedEED0Ev, @function
 3627              	_ZN7sigslot13_signal_base3IP10GuiElementiiNS_15single_threadedEED0Ev:
 3628              	.LFB1518:
 3629              		.loc 1 943 0
 3630              		.cfi_startproc
 3631              		.cfi_personality 0,__gxx_personality_v0
 3632              		.cfi_lsda 0,.LLSDA1518
 3633              	.LVL315:
 3634 0000 7C0802A6 		mflr 0
 3635 0004 9421FFD8 		stwu 1,-40(1)
 3636              	.LCFI46:
 3637              		.cfi_def_cfa_offset 40
 3638              		.cfi_register 65, 0
 3639              	.LBB1841:
 3640              	.LBB1842:
 3641              	.LBB1843:
 3642              		.loc 1 946 0
 3643 0008 3D200000 		lis 9,_ZTVN7sigslot13_signal_base3IP10GuiElementiiNS_15single_threadedEEE+8@ha
 3644              	.LBE1843:
 3645              	.LBE1842:
 3646              	.LBE1841:
 3647              		.loc 1 943 0
 3648 000c 93810018 		stw 28,24(1)
 3649 0010 7C7C1B78 		mr 28,3
 3650              		.cfi_offset 28, -16
 3651              	.LVL316:
 3652 0014 9001002C 		stw 0,44(1)
 3653              	.LBB1928:
 3654              	.LBB1924:
 3655              	.LBB1920:
 3656              		.loc 1 946 0
 3657 0018 38090008 		la 0,_ZTVN7sigslot13_signal_base3IP10GuiElementiiNS_15single_threadedEEE+8@l(9)
 3658              		.cfi_offset 65, 4
 3659              	.LBE1920:
 3660              	.LBE1924:
 3661              	.LBE1928:
 3662              		.loc 1 943 0
 3663 001c 93A1001C 		stw 29,28(1)
 3664 0020 3BA30004 		addi 29,3,4
 3665              		.cfi_offset 29, -12
 3666 0024 93C10020 		stw 30,32(1)
 3667 0028 93E10024 		stw 31,36(1)
 3668              	.LBB1929:
 3669              	.LBB1925:
 3670              	.LBB1921:
 3671              		.loc 1 946 0
 3672 002c 90030000 		stw 0,0(3)
 3673              	.LVL317:
 3674              	.LEHB20:
 3675              	.LBB1844:
 3676              	.LBB1845:
 3677              	.LBB1846:
 3678              	.LBB1847:
 3679              		.loc 1 338 0
 3680              		.cfi_offset 31, -4
 3681              		.cfi_offset 30, -8
 3682 0030 48000001 		bl _ZN7sigslot15single_threaded4lockEv
 3683              	.LEHE20:
 3684              	.LVL318:
 3685              	.LBE1847:
 3686              	.LBE1846:
 3687              	.LBE1845:
 3688              		.loc 3 51 0
 3689 0034 7F9DE378 		mr 29,28
 3690 0038 87FD0004 		lwzu 31,4(29)
 3691              	.LVL319:
 3692              	.LBB1878:
 3693              		.loc 1 954 0
 3694 003c 7F9FE800 		cmpw 7,31,29
 3695 0040 419E00A8 		beq- 7,.L229
 3696              	.LVL320:
 3697              	.L267:
 3698              		.loc 1 956 0
 3699 0044 807F0008 		lwz 3,8(31)
 3700 0048 81230000 		lwz 9,0(3)
 3701 004c 80090008 		lwz 0,8(9)
 3702 0050 7C0903A6 		mtctr 0
 3703              	.LEHB21:
 3704 0054 4E800421 		bctrl
 3705              	.LBB1848:
 3706              	.LBB1849:
 3707              	.LBB1850:
 3708              	.LBB1851:
 3709              		.loc 1 338 0
 3710 0058 81230000 		lwz 9,0(3)
 3711              	.LBE1851:
 3712              	.LBE1850:
 3713              	.LBE1849:
 3714              	.LBE1848:
 3715              		.loc 1 956 0
 3716 005c 7C7E1B78 		mr 30,3
 3717              	.LVL321:
 3718 0060 93810008 		stw 28,8(1)
 3719              	.LVL322:
 3720              	.LBB1860:
 3721              	.LBB1859:
 3722              	.LBB1853:
 3723              	.LBB1852:
 3724              		.loc 1 338 0
 3725 0064 80090008 		lwz 0,8(9)
 3726 0068 7C0903A6 		mtctr 0
 3727 006c 4E800421 		bctrl
 3728              	.LVL323:
 3729              	.LBE1852:
 3730              	.LBE1853:
 3731              	.LBB1854:
 3732              	.LBB1855:
 3733              		.file 10 "d:\\devkitpro\\devkitppc\\bin\\../lib/gcc/powerpc-eabi/4.6.3/../../../../powerpc-eabi/in
 3734              		.loc 10 528 0
 3735 0070 387E0004 		addi 3,30,4
 3736 0074 38810008 		addi 4,1,8
 3737 0078 48000001 		bl _ZNSt8_Rb_treeIPN7sigslot12_signal_baseINS0_15single_threadedEEES4_St9_IdentityIS4_ESt4lessIS4_
 3738              	.LVL324:
 3739              	.LBE1855:
 3740              	.LBE1854:
 3741              	.LBB1856:
 3742              	.LBB1857:
 3743              	.LBB1858:
 3744              		.loc 1 343 0
 3745 007c 813E0000 		lwz 9,0(30)
 3746 0080 7FC3F378 		mr 3,30
 3747 0084 8009000C 		lwz 0,12(9)
 3748 0088 7C0903A6 		mtctr 0
 3749 008c 4E800421 		bctrl
 3750              	.LVL325:
 3751              	.LBE1858:
 3752              	.LBE1857:
 3753              	.LBE1856:
 3754              	.LBE1859:
 3755              	.LBE1860:
 3756              		.loc 1 957 0
 3757 0090 807F0008 		lwz 3,8(31)
 3758 0094 2F830000 		cmpwi 7,3,0
 3759 0098 419E0014 		beq- 7,.L231
 3760 009c 81230000 		lwz 9,0(3)
 3761 00a0 80090004 		lwz 0,4(9)
 3762 00a4 7C0903A6 		mtctr 0
 3763 00a8 4E800421 		bctrl
 3764              	.LEHE21:
 3765              	.L231:
 3766              	.LVL326:
 3767              	.LBB1861:
 3768              	.LBB1862:
 3769              		.loc 4 234 0
 3770 00ac 83FF0000 		lwz 31,0(31)
 3771              	.LVL327:
 3772              	.LBE1862:
 3773              	.LBE1861:
 3774              		.loc 1 954 0
 3775 00b0 7F9DF800 		cmpw 7,29,31
 3776 00b4 409EFF90 		bne+ 7,.L267
 3777              	.LBE1878:
 3778              		.loc 3 51 0
 3779 00b8 83FC0004 		lwz 31,4(28)
 3780              	.LVL328:
 3781              	.LBB1879:
 3782              	.LBB1863:
 3783              	.LBB1864:
 3784              		.loc 4 1162 0
 3785 00bc 7F9DF800 		cmpw 7,29,31
 3786 00c0 40BE000C 		bne+ 7,.L269
 3787 00c4 48000024 		b .L229
 3788              	.LVL329:
 3789              	.L262:
 3790              		.loc 4 1163 0
 3791 00c8 7FDFF378 		mr 31,30
 3792              	.LVL330:
 3793              	.L269:
 3794              	.LBB1865:
 3795              	.LBB1866:
 3796              		.file 11 "d:\\devkitpro\\devkitppc\\bin\\../lib/gcc/powerpc-eabi/4.6.3/../../../../powerpc-eabi/in
 3797              		.loc 11 112 0
 3798 00cc 83DF0000 		lwz 30,0(31)
 3799              	.LVL331:
 3800              	.LBB1867:
 3801              	.LBB1868:
 3802              		.loc 4 1532 0
 3803 00d0 7FE3FB78 		mr 3,31
 3804 00d4 48000001 		bl _ZNSt8__detail15_List_node_base9_M_unhookEv
 3805              	.LVL332:
 3806              	.LBB1869:
 3807              	.LBB1870:
 3808              	.LBB1871:
 3809              		.loc 7 98 0
 3810 00d8 7FE3FB78 		mr 3,31
 3811 00dc 48000001 		bl _ZdlPv
 3812              	.LVL333:
 3813              	.LBE1871:
 3814              	.LBE1870:
 3815              	.LBE1869:
 3816              	.LBE1868:
 3817              	.LBE1867:
 3818              	.LBE1866:
 3819              	.LBE1865:
 3820              		.loc 4 1162 0
 3821 00e0 7F9DF000 		cmpw 7,29,30
 3822 00e4 409EFFE4 		bne+ 7,.L262
 3823              	.LVL334:
 3824              	.L229:
 3825              	.LBE1864:
 3826              	.LBE1863:
 3827              	.LBB1872:
 3828              	.LBB1873:
 3829              	.LBB1874:
 3830              		.loc 1 343 0
 3831 00e8 813C0000 		lwz 9,0(28)
 3832 00ec 7F83E378 		mr 3,28
 3833 00f0 8009000C 		lwz 0,12(9)
 3834 00f4 7C0903A6 		mtctr 0
 3835              	.LEHB22:
 3836 00f8 4E800421 		bctrl
 3837              	.LEHE22:
 3838              	.LVL335:
 3839              	.LBE1874:
 3840              	.LBE1873:
 3841              	.LBE1872:
 3842              	.LBE1879:
 3843              	.LBE1844:
 3844              	.LBB1881:
 3845              	.LBB1882:
 3846              	.LBB1883:
 3847              	.LBB1884:
 3848              	.LBB1885:
 3849              	.LBB1886:
 3850              		.loc 11 70 0
 3851 00fc 807C0004 		lwz 3,4(28)
 3852              	.LVL336:
 3853              		.loc 11 71 0
 3854 0100 7F83E800 		cmpw 7,3,29
 3855 0104 40BE000C 		bne+ 7,.L271
 3856 0108 48000018 		b .L247
 3857              	.LVL337:
 3858              	.L263:
 3859              		.loc 11 74 0
 3860 010c 7FE3FB78 		mr 3,31
 3861              	.LVL338:
 3862              	.L271:
 3863              	.LBB1887:
 3864 0110 83E30000 		lwz 31,0(3)
 3865              	.LVL339:
 3866              	.LBB1888:
 3867              	.LBB1889:
 3868              	.LBB1890:
 3869              		.loc 7 98 0
 3870 0114 48000001 		bl _ZdlPv
 3871              	.LVL340:
 3872              	.LBE1890:
 3873              	.LBE1889:
 3874              	.LBE1888:
 3875              	.LBE1887:
 3876              		.loc 11 71 0
 3877 0118 7F9FE800 		cmpw 7,31,29
 3878 011c 409EFFF0 		bne+ 7,.L263
 3879              	.LVL341:
 3880              	.L247:
 3881              	.LBE1886:
 3882              	.LBE1885:
 3883              	.LBE1884:
 3884              	.LBE1883:
 3885              	.LBE1882:
 3886              	.LBE1881:
 3887              	.LBB1891:
 3888              	.LBB1892:
 3889              	.LBB1893:
 3890              	.LBB1894:
 3891              	.LBB1895:
 3892              	.LBB1896:
 3893              		.loc 1 105 0
 3894 0120 3D200000 		lis 9,_ZTVN7sigslot15single_threadedE+8@ha
 3895              	.LBE1896:
 3896              	.LBE1895:
 3897              	.LBE1894:
 3898              	.LBE1893:
 3899              	.LBE1892:
 3900              	.LBE1891:
 3901              	.LBE1921:
 3902              	.LBE1925:
 3903              	.LBE1929:
 3904              		.loc 1 946 0
 3905 0124 7F83E378 		mr 3,28
 3906              	.LBB1930:
 3907              	.LBB1926:
 3908              	.LBB1922:
 3909              	.LBB1902:
 3910              	.LBB1901:
 3911              	.LBB1900:
 3912              	.LBB1899:
 3913              	.LBB1898:
 3914              	.LBB1897:
 3915              		.loc 1 105 0
 3916 0128 38090008 		la 0,_ZTVN7sigslot15single_threadedE+8@l(9)
 3917 012c 901C0000 		stw 0,0(28)
 3918              	.LBE1897:
 3919              	.LBE1898:
 3920              	.LBE1899:
 3921              	.LBE1900:
 3922              	.LBE1901:
 3923              	.LBE1902:
 3924              	.LBE1922:
 3925              	.LBE1926:
 3926              	.LBE1930:
 3927              		.loc 1 946 0
 3928 0130 48000001 		bl _ZdlPv
 3929 0134 8001002C 		lwz 0,44(1)
 3930 0138 83810018 		lwz 28,24(1)
 3931              	.LVL342:
 3932 013c 7C0803A6 		mtlr 0
 3933 0140 83A1001C 		lwz 29,28(1)
 3934              	.LVL343:
 3935 0144 83C10020 		lwz 30,32(1)
 3936 0148 83E10024 		lwz 31,36(1)
 3937 014c 38210028 		addi 1,1,40
 3938              		.cfi_remember_state
 3939              	.LCFI47:
 3940              		.cfi_def_cfa_offset 0
 3941              		.cfi_restore 31
 3942              		.cfi_restore 30
 3943              		.cfi_restore 29
 3944              		.cfi_restore 28
 3945 0150 4E800020 		blr
 3946              	.LVL344:
 3947              	.L265:
 3948              	.LCFI48:
 3949              		.cfi_restore_state
 3950 0154 7C7F1B78 		mr 31,3
 3951              	.L239:
 3952              	.LVL345:
 3953              	.LBB1931:
 3954              	.LBB1927:
 3955              	.LBB1923:
 3956              	.LBB1903:
 3957              	.LBB1904:
 3958              	.LBB1905:
 3959              	.LBB1906:
 3960              	.LBB1907:
 3961              	.LBB1908:
 3962              		.loc 11 70 0
 3963 0158 807C0004 		lwz 3,4(28)
 3964              	.LVL346:
 3965              		.loc 11 71 0
 3966 015c 7F83E800 		cmpw 7,3,29
 3967 0160 419E0038 		beq- 7,.L256
 3968              	.LVL347:
 3969              	.L272:
 3970              	.LBB1909:
 3971              		.loc 11 74 0
 3972 0164 83C30000 		lwz 30,0(3)
 3973              	.LVL348:
 3974              	.LBB1910:
 3975              	.LBB1911:
 3976              	.LBB1912:
 3977              		.loc 7 98 0
 3978 0168 48000001 		bl _ZdlPv
 3979              	.LVL349:
 3980              	.LBE1912:
 3981              	.LBE1911:
 3982              	.LBE1910:
 3983              	.LBE1909:
 3984              		.loc 11 71 0
 3985 016c 7F9EE800 		cmpw 7,30,29
 3986 0170 419E0028 		beq- 7,.L256
 3987              		.loc 11 74 0
 3988 0174 7FC3F378 		mr 3,30
 3989 0178 4BFFFFEC 		b .L272
 3990              	.LVL350:
 3991              	.L266:
 3992              	.LBE1908:
 3993              	.LBE1907:
 3994              	.LBE1906:
 3995              	.LBE1905:
 3996              	.LBE1904:
 3997              	.LBE1903:
 3998              	.LBB1913:
 3999              	.LBB1880:
 4000              	.LBB1875:
 4001              	.LBB1876:
 4002              	.LBB1877:
 4003              		.loc 1 343 0
 4004 017c 813C0000 		lwz 9,0(28)
 4005 0180 7C7F1B78 		mr 31,3
 4006              	.LVL351:
 4007 0184 7F83E378 		mr 3,28
 4008 0188 8009000C 		lwz 0,12(9)
 4009 018c 7C0903A6 		mtctr 0
 4010 0190 4E800421 		bctrl
 4011 0194 4BFFFFC4 		b .L239
 4012              	.LVL352:
 4013              	.L256:
 4014              	.LBE1877:
 4015              	.LBE1876:
 4016              	.LBE1875:
 4017              	.LBE1880:
 4018              	.LBE1913:
 4019              	.LBB1914:
 4020              	.LBB1915:
 4021              	.LBB1916:
 4022              	.LBB1917:
 4023              	.LBB1918:
 4024              	.LBB1919:
 4025              		.loc 1 105 0
 4026 0198 3D200000 		lis 9,_ZTVN7sigslot15single_threadedE+8@ha
 4027 019c 7FE3FB78 		mr 3,31
 4028 01a0 38090008 		la 0,_ZTVN7sigslot15single_threadedE+8@l(9)
 4029 01a4 901C0000 		stw 0,0(28)
 4030              	.LEHB23:
 4031 01a8 48000001 		bl _Unwind_Resume
 4032              	.LEHE23:
 4033              	.LBE1919:
 4034              	.LBE1918:
 4035              	.LBE1917:
 4036              	.LBE1916:
 4037              	.LBE1915:
 4038              	.LBE1914:
 4039              	.LBE1923:
 4040              	.LBE1927:
 4041              	.LBE1931:
 4042              		.cfi_endproc
 4043              	.LFE1518:
 4044              		.section	.gcc_except_table
 4045              	.LLSDA1518:
 4046 0073 FF       		.byte	0xff
 4047 0074 FF       		.byte	0xff
 4048 0075 01       		.byte	0x1
 4049 0076 15       		.uleb128 .LLSDACSE1518-.LLSDACSB1518
 4050              	.LLSDACSB1518:
 4051 0077 30       		.uleb128 .LEHB20-.LFB1518
 4052 0078 04       		.uleb128 .LEHE20-.LEHB20
 4053 0079 D402     		.uleb128 .L265-.LFB1518
 4054 007b 00       		.uleb128 0
 4055 007c 54       		.uleb128 .LEHB21-.LFB1518
 4056 007d 58       		.uleb128 .LEHE21-.LEHB21
 4057 007e FC02     		.uleb128 .L266-.LFB1518
 4058 0080 00       		.uleb128 0
 4059 0081 F801     		.uleb128 .LEHB22-.LFB1518
 4060 0083 04       		.uleb128 .LEHE22-.LEHB22
 4061 0084 D402     		.uleb128 .L265-.LFB1518
 4062 0086 00       		.uleb128 0
 4063 0087 A803     		.uleb128 .LEHB23-.LFB1518
 4064 0089 04       		.uleb128 .LEHE23-.LEHB23
 4065 008a 00       		.uleb128 0
 4066 008b 00       		.uleb128 0
 4067              	.LLSDACSE1518:
 4068              		.section	.text._ZN7sigslot13_signal_base3IP10GuiElementiiNS_15single_threadedEED0Ev,"axG",@progbit
 4069              		.size	_ZN7sigslot13_signal_base3IP10GuiElementiiNS_15single_threadedEED0Ev, .-_ZN7sigslot13_signal
 4070              		.section	.text._ZN7sigslot13_signal_base2IP10GuiElementbNS_15single_threadedEED0Ev,"axG",@progbits
 4071              		.align 2
 4072              		.weak	_ZN7sigslot13_signal_base2IP10GuiElementbNS_15single_threadedEED0Ev
 4073              		.type	_ZN7sigslot13_signal_base2IP10GuiElementbNS_15single_threadedEED0Ev, @function
 4074              	_ZN7sigslot13_signal_base2IP10GuiElementbNS_15single_threadedEED0Ev:
 4075              	.LFB1511:
 4076              		.loc 1 823 0
 4077              		.cfi_startproc
 4078              		.cfi_personality 0,__gxx_personality_v0
 4079              		.cfi_lsda 0,.LLSDA1511
 4080              	.LVL353:
 4081 0000 7C0802A6 		mflr 0
 4082 0004 9421FFD8 		stwu 1,-40(1)
 4083              	.LCFI49:
 4084              		.cfi_def_cfa_offset 40
 4085              		.cfi_register 65, 0
 4086              	.LBB2027:
 4087              	.LBB2028:
 4088              	.LBB2029:
 4089              		.loc 1 826 0
 4090 0008 3D200000 		lis 9,_ZTVN7sigslot13_signal_base2IP10GuiElementbNS_15single_threadedEEE+8@ha
 4091              	.LBE2029:
 4092              	.LBE2028:
 4093              	.LBE2027:
 4094              		.loc 1 823 0
 4095 000c 93810018 		stw 28,24(1)
 4096 0010 7C7C1B78 		mr 28,3
 4097              		.cfi_offset 28, -16
 4098              	.LVL354:
 4099 0014 9001002C 		stw 0,44(1)
 4100              	.LBB2114:
 4101              	.LBB2110:
 4102              	.LBB2106:
 4103              		.loc 1 826 0
 4104 0018 38090008 		la 0,_ZTVN7sigslot13_signal_base2IP10GuiElementbNS_15single_threadedEEE+8@l(9)
 4105              		.cfi_offset 65, 4
 4106              	.LBE2106:
 4107              	.LBE2110:
 4108              	.LBE2114:
 4109              		.loc 1 823 0
 4110 001c 93A1001C 		stw 29,28(1)
 4111 0020 3BA30004 		addi 29,3,4
 4112              		.cfi_offset 29, -12
 4113 0024 93C10020 		stw 30,32(1)
 4114 0028 93E10024 		stw 31,36(1)
 4115              	.LBB2115:
 4116              	.LBB2111:
 4117              	.LBB2107:
 4118              		.loc 1 826 0
 4119 002c 90030000 		stw 0,0(3)
 4120              	.LVL355:
 4121              	.LEHB24:
 4122              	.LBB2030:
 4123              	.LBB2031:
 4124              	.LBB2032:
 4125              	.LBB2033:
 4126              		.loc 1 338 0
 4127              		.cfi_offset 31, -4
 4128              		.cfi_offset 30, -8
 4129 0030 48000001 		bl _ZN7sigslot15single_threaded4lockEv
 4130              	.LEHE24:
 4131              	.LVL356:
 4132              	.LBE2033:
 4133              	.LBE2032:
 4134              	.LBE2031:
 4135              		.loc 3 51 0
 4136 0034 7F9DE378 		mr 29,28
 4137              	.LVL357:
 4138 0038 87FD0004 		lwzu 31,4(29)
 4139              	.LVL358:
 4140              	.LBB2064:
 4141              		.loc 1 834 0
 4142 003c 7F9FE800 		cmpw 7,31,29
 4143 0040 419E00A8 		beq- 7,.L274
 4144              	.LVL359:
 4145              	.L312:
 4146              		.loc 1 836 0
 4147 0044 807F0008 		lwz 3,8(31)
 4148 0048 81230000 		lwz 9,0(3)
 4149 004c 80090008 		lwz 0,8(9)
 4150 0050 7C0903A6 		mtctr 0
 4151              	.LEHB25:
 4152 0054 4E800421 		bctrl
 4153              	.LBB2034:
 4154              	.LBB2035:
 4155              	.LBB2036:
 4156              	.LBB2037:
 4157              		.loc 1 338 0
 4158 0058 81230000 		lwz 9,0(3)
 4159              	.LBE2037:
 4160              	.LBE2036:
 4161              	.LBE2035:
 4162              	.LBE2034:
 4163              		.loc 1 836 0
 4164 005c 7C7E1B78 		mr 30,3
 4165              	.LVL360:
 4166 0060 93810008 		stw 28,8(1)
 4167              	.LVL361:
 4168              	.LBB2046:
 4169              	.LBB2045:
 4170              	.LBB2039:
 4171              	.LBB2038:
 4172              		.loc 1 338 0
 4173 0064 80090008 		lwz 0,8(9)
 4174 0068 7C0903A6 		mtctr 0
 4175 006c 4E800421 		bctrl
 4176              	.LVL362:
 4177              	.LBE2038:
 4178              	.LBE2039:
 4179              	.LBB2040:
 4180              	.LBB2041:
 4181              		.loc 10 528 0
 4182 0070 387E0004 		addi 3,30,4
 4183 0074 38810008 		addi 4,1,8
 4184 0078 48000001 		bl _ZNSt8_Rb_treeIPN7sigslot12_signal_baseINS0_15single_threadedEEES4_St9_IdentityIS4_ESt4lessIS4_
 4185              	.LVL363:
 4186              	.LBE2041:
 4187              	.LBE2040:
 4188              	.LBB2042:
 4189              	.LBB2043:
 4190              	.LBB2044:
 4191              		.loc 1 343 0
 4192 007c 813E0000 		lwz 9,0(30)
 4193 0080 7FC3F378 		mr 3,30
 4194 0084 8009000C 		lwz 0,12(9)
 4195 0088 7C0903A6 		mtctr 0
 4196 008c 4E800421 		bctrl
 4197              	.LVL364:
 4198              	.LBE2044:
 4199              	.LBE2043:
 4200              	.LBE2042:
 4201              	.LBE2045:
 4202              	.LBE2046:
 4203              		.loc 1 837 0
 4204 0090 807F0008 		lwz 3,8(31)
 4205 0094 2F830000 		cmpwi 7,3,0
 4206 0098 419E0014 		beq- 7,.L276
 4207 009c 81230000 		lwz 9,0(3)
 4208 00a0 80090004 		lwz 0,4(9)
 4209 00a4 7C0903A6 		mtctr 0
 4210 00a8 4E800421 		bctrl
 4211              	.LEHE25:
 4212              	.L276:
 4213              	.LVL365:
 4214              	.LBB2047:
 4215              	.LBB2048:
 4216              		.loc 4 234 0
 4217 00ac 83FF0000 		lwz 31,0(31)
 4218              	.LVL366:
 4219              	.LBE2048:
 4220              	.LBE2047:
 4221              		.loc 1 834 0
 4222 00b0 7F9DF800 		cmpw 7,29,31
 4223 00b4 409EFF90 		bne+ 7,.L312
 4224              	.LBE2064:
 4225              		.loc 3 51 0
 4226 00b8 83FC0004 		lwz 31,4(28)
 4227              	.LVL367:
 4228              	.LBB2065:
 4229              	.LBB2049:
 4230              	.LBB2050:
 4231              		.loc 4 1162 0
 4232 00bc 7F9DF800 		cmpw 7,29,31
 4233 00c0 40BE000C 		bne+ 7,.L314
 4234 00c4 48000024 		b .L274
 4235              	.LVL368:
 4236              	.L307:
 4237              		.loc 4 1163 0
 4238 00c8 7FDFF378 		mr 31,30
 4239              	.LVL369:
 4240              	.L314:
 4241              	.LBB2051:
 4242              	.LBB2052:
 4243              		.loc 11 112 0
 4244 00cc 83DF0000 		lwz 30,0(31)
 4245              	.LVL370:
 4246              	.LBB2053:
 4247              	.LBB2054:
 4248              		.loc 4 1532 0
 4249 00d0 7FE3FB78 		mr 3,31
 4250 00d4 48000001 		bl _ZNSt8__detail15_List_node_base9_M_unhookEv
 4251              	.LVL371:
 4252              	.LBB2055:
 4253              	.LBB2056:
 4254              	.LBB2057:
 4255              		.loc 7 98 0
 4256 00d8 7FE3FB78 		mr 3,31
 4257 00dc 48000001 		bl _ZdlPv
 4258              	.LVL372:
 4259              	.LBE2057:
 4260              	.LBE2056:
 4261              	.LBE2055:
 4262              	.LBE2054:
 4263              	.LBE2053:
 4264              	.LBE2052:
 4265              	.LBE2051:
 4266              		.loc 4 1162 0
 4267 00e0 7F9DF000 		cmpw 7,29,30
 4268 00e4 409EFFE4 		bne+ 7,.L307
 4269              	.LVL373:
 4270              	.L274:
 4271              	.LBE2050:
 4272              	.LBE2049:
 4273              	.LBB2058:
 4274              	.LBB2059:
 4275              	.LBB2060:
 4276              		.loc 1 343 0
 4277 00e8 813C0000 		lwz 9,0(28)
 4278 00ec 7F83E378 		mr 3,28
 4279 00f0 8009000C 		lwz 0,12(9)
 4280 00f4 7C0903A6 		mtctr 0
 4281              	.LEHB26:
 4282 00f8 4E800421 		bctrl
 4283              	.LEHE26:
 4284              	.LVL374:
 4285              	.LBE2060:
 4286              	.LBE2059:
 4287              	.LBE2058:
 4288              	.LBE2065:
 4289              	.LBE2030:
 4290              	.LBB2067:
 4291              	.LBB2068:
 4292              	.LBB2069:
 4293              	.LBB2070:
 4294              	.LBB2071:
 4295              	.LBB2072:
 4296              		.loc 11 70 0
 4297 00fc 807C0004 		lwz 3,4(28)
 4298              	.LVL375:
 4299              		.loc 11 71 0
 4300 0100 7F83E800 		cmpw 7,3,29
 4301 0104 40BE000C 		bne+ 7,.L316
 4302 0108 48000018 		b .L292
 4303              	.LVL376:
 4304              	.L308:
 4305              		.loc 11 74 0
 4306 010c 7FE3FB78 		mr 3,31
 4307              	.LVL377:
 4308              	.L316:
 4309              	.LBB2073:
 4310 0110 83E30000 		lwz 31,0(3)
 4311              	.LVL378:
 4312              	.LBB2074:
 4313              	.LBB2075:
 4314              	.LBB2076:
 4315              		.loc 7 98 0
 4316 0114 48000001 		bl _ZdlPv
 4317              	.LVL379:
 4318              	.LBE2076:
 4319              	.LBE2075:
 4320              	.LBE2074:
 4321              	.LBE2073:
 4322              		.loc 11 71 0
 4323 0118 7F9FE800 		cmpw 7,31,29
 4324 011c 409EFFF0 		bne+ 7,.L308
 4325              	.LVL380:
 4326              	.L292:
 4327              	.LBE2072:
 4328              	.LBE2071:
 4329              	.LBE2070:
 4330              	.LBE2069:
 4331              	.LBE2068:
 4332              	.LBE2067:
 4333              	.LBB2077:
 4334              	.LBB2078:
 4335              	.LBB2079:
 4336              	.LBB2080:
 4337              	.LBB2081:
 4338              	.LBB2082:
 4339              		.loc 1 105 0
 4340 0120 3D200000 		lis 9,_ZTVN7sigslot15single_threadedE+8@ha
 4341              	.LBE2082:
 4342              	.LBE2081:
 4343              	.LBE2080:
 4344              	.LBE2079:
 4345              	.LBE2078:
 4346              	.LBE2077:
 4347              	.LBE2107:
 4348              	.LBE2111:
 4349              	.LBE2115:
 4350              		.loc 1 826 0
 4351 0124 7F83E378 		mr 3,28
 4352              	.LBB2116:
 4353              	.LBB2112:
 4354              	.LBB2108:
 4355              	.LBB2088:
 4356              	.LBB2087:
 4357              	.LBB2086:
 4358              	.LBB2085:
 4359              	.LBB2084:
 4360              	.LBB2083:
 4361              		.loc 1 105 0
 4362 0128 38090008 		la 0,_ZTVN7sigslot15single_threadedE+8@l(9)
 4363 012c 901C0000 		stw 0,0(28)
 4364              	.LBE2083:
 4365              	.LBE2084:
 4366              	.LBE2085:
 4367              	.LBE2086:
 4368              	.LBE2087:
 4369              	.LBE2088:
 4370              	.LBE2108:
 4371              	.LBE2112:
 4372              	.LBE2116:
 4373              		.loc 1 826 0
 4374 0130 48000001 		bl _ZdlPv
 4375 0134 8001002C 		lwz 0,44(1)
 4376 0138 83810018 		lwz 28,24(1)
 4377              	.LVL381:
 4378 013c 7C0803A6 		mtlr 0
 4379 0140 83A1001C 		lwz 29,28(1)
 4380              	.LVL382:
 4381 0144 83C10020 		lwz 30,32(1)
 4382 0148 83E10024 		lwz 31,36(1)
 4383 014c 38210028 		addi 1,1,40
 4384              		.cfi_remember_state
 4385              	.LCFI50:
 4386              		.cfi_def_cfa_offset 0
 4387              		.cfi_restore 31
 4388              		.cfi_restore 30
 4389              		.cfi_restore 29
 4390              		.cfi_restore 28
 4391 0150 4E800020 		blr
 4392              	.LVL383:
 4393              	.L310:
 4394              	.LCFI51:
 4395              		.cfi_restore_state
 4396 0154 7C7F1B78 		mr 31,3
 4397              	.L284:
 4398              	.LVL384:
 4399              	.LBB2117:
 4400              	.LBB2113:
 4401              	.LBB2109:
 4402              	.LBB2089:
 4403              	.LBB2090:
 4404              	.LBB2091:
 4405              	.LBB2092:
 4406              	.LBB2093:
 4407              	.LBB2094:
 4408              		.loc 11 70 0
 4409 0158 807C0004 		lwz 3,4(28)
 4410              	.LVL385:
 4411              		.loc 11 71 0
 4412 015c 7F83E800 		cmpw 7,3,29
 4413 0160 419E0038 		beq- 7,.L301
 4414              	.LVL386:
 4415              	.L317:
 4416              	.LBB2095:
 4417              		.loc 11 74 0
 4418 0164 83C30000 		lwz 30,0(3)
 4419              	.LVL387:
 4420              	.LBB2096:
 4421              	.LBB2097:
 4422              	.LBB2098:
 4423              		.loc 7 98 0
 4424 0168 48000001 		bl _ZdlPv
 4425              	.LVL388:
 4426              	.LBE2098:
 4427              	.LBE2097:
 4428              	.LBE2096:
 4429              	.LBE2095:
 4430              		.loc 11 71 0
 4431 016c 7F9EE800 		cmpw 7,30,29
 4432 0170 419E0028 		beq- 7,.L301
 4433              		.loc 11 74 0
 4434 0174 7FC3F378 		mr 3,30
 4435 0178 4BFFFFEC 		b .L317
 4436              	.LVL389:
 4437              	.L311:
 4438              	.LBE2094:
 4439              	.LBE2093:
 4440              	.LBE2092:
 4441              	.LBE2091:
 4442              	.LBE2090:
 4443              	.LBE2089:
 4444              	.LBB2099:
 4445              	.LBB2066:
 4446              	.LBB2061:
 4447              	.LBB2062:
 4448              	.LBB2063:
 4449              		.loc 1 343 0
 4450 017c 813C0000 		lwz 9,0(28)
 4451 0180 7C7F1B78 		mr 31,3
 4452              	.LVL390:
 4453 0184 7F83E378 		mr 3,28
 4454 0188 8009000C 		lwz 0,12(9)
 4455 018c 7C0903A6 		mtctr 0
 4456 0190 4E800421 		bctrl
 4457 0194 4BFFFFC4 		b .L284
 4458              	.LVL391:
 4459              	.L301:
 4460              	.LBE2063:
 4461              	.LBE2062:
 4462              	.LBE2061:
 4463              	.LBE2066:
 4464              	.LBE2099:
 4465              	.LBB2100:
 4466              	.LBB2101:
 4467              	.LBB2102:
 4468              	.LBB2103:
 4469              	.LBB2104:
 4470              	.LBB2105:
 4471              		.loc 1 105 0
 4472 0198 3D200000 		lis 9,_ZTVN7sigslot15single_threadedE+8@ha
 4473 019c 7FE3FB78 		mr 3,31
 4474 01a0 38090008 		la 0,_ZTVN7sigslot15single_threadedE+8@l(9)
 4475 01a4 901C0000 		stw 0,0(28)
 4476              	.LEHB27:
 4477 01a8 48000001 		bl _Unwind_Resume
 4478              	.LEHE27:
 4479              	.LBE2105:
 4480              	.LBE2104:
 4481              	.LBE2103:
 4482              	.LBE2102:
 4483              	.LBE2101:
 4484              	.LBE2100:
 4485              	.LBE2109:
 4486              	.LBE2113:
 4487              	.LBE2117:
 4488              		.cfi_endproc
 4489              	.LFE1511:
 4490              		.section	.gcc_except_table
 4491              	.LLSDA1511:
 4492 008c FF       		.byte	0xff
 4493 008d FF       		.byte	0xff
 4494 008e 01       		.byte	0x1
 4495 008f 15       		.uleb128 .LLSDACSE1511-.LLSDACSB1511
 4496              	.LLSDACSB1511:
 4497 0090 30       		.uleb128 .LEHB24-.LFB1511
 4498 0091 04       		.uleb128 .LEHE24-.LEHB24
 4499 0092 D402     		.uleb128 .L310-.LFB1511
 4500 0094 00       		.uleb128 0
 4501 0095 54       		.uleb128 .LEHB25-.LFB1511
 4502 0096 58       		.uleb128 .LEHE25-.LEHB25
 4503 0097 FC02     		.uleb128 .L311-.LFB1511
 4504 0099 00       		.uleb128 0
 4505 009a F801     		.uleb128 .LEHB26-.LFB1511
 4506 009c 04       		.uleb128 .LEHE26-.LEHB26
 4507 009d D402     		.uleb128 .L310-.LFB1511
 4508 009f 00       		.uleb128 0
 4509 00a0 A803     		.uleb128 .LEHB27-.LFB1511
 4510 00a2 04       		.uleb128 .LEHE27-.LEHB27
 4511 00a3 00       		.uleb128 0
 4512 00a4 00       		.uleb128 0
 4513              	.LLSDACSE1511:
 4514              		.section	.text._ZN7sigslot13_signal_base2IP10GuiElementbNS_15single_threadedEED0Ev,"axG",@progbits
 4515              		.size	_ZN7sigslot13_signal_base2IP10GuiElementbNS_15single_threadedEED0Ev, .-_ZN7sigslot13_signal_
 4516              		.section	.text._ZN7sigslot13_signal_base3IP10GuiElementiiNS_15single_threadedEED2Ev,"axG",@progbit
 4517              		.align 2
 4518              		.weak	_ZN7sigslot13_signal_base3IP10GuiElementiiNS_15single_threadedEED2Ev
 4519              		.type	_ZN7sigslot13_signal_base3IP10GuiElementiiNS_15single_threadedEED2Ev, @function
 4520              	_ZN7sigslot13_signal_base3IP10GuiElementiiNS_15single_threadedEED2Ev:
 4521              	.LFB1516:
 4522              		.loc 1 943 0
 4523              		.cfi_startproc
 4524              		.cfi_personality 0,__gxx_personality_v0
 4525              		.cfi_lsda 0,.LLSDA1516
 4526              	.LVL392:
 4527 0000 7C0802A6 		mflr 0
 4528 0004 9421FFD8 		stwu 1,-40(1)
 4529              	.LCFI52:
 4530              		.cfi_def_cfa_offset 40
 4531              		.cfi_register 65, 0
 4532              	.LBB2264:
 4533              		.loc 1 946 0
 4534 0008 3D200000 		lis 9,_ZTVN7sigslot13_signal_base3IP10GuiElementiiNS_15single_threadedEEE+8@ha
 4535              	.LBE2264:
 4536              		.loc 1 943 0
 4537 000c 93810018 		stw 28,24(1)
 4538 0010 7C7C1B78 		mr 28,3
 4539              		.cfi_offset 28, -16
 4540 0014 9001002C 		stw 0,44(1)
 4541              	.LBB2347:
 4542              		.loc 1 946 0
 4543 0018 38090008 		la 0,_ZTVN7sigslot13_signal_base3IP10GuiElementiiNS_15single_threadedEEE+8@l(9)
 4544              		.cfi_offset 65, 4
 4545              	.LBE2347:
 4546              		.loc 1 943 0
 4547 001c 93A1001C 		stw 29,28(1)
 4548 0020 3BA30004 		addi 29,3,4
 4549              		.cfi_offset 29, -12
 4550 0024 93C10020 		stw 30,32(1)
 4551 0028 93E10024 		stw 31,36(1)
 4552              	.LBB2348:
 4553              		.loc 1 946 0
 4554 002c 90030000 		stw 0,0(3)
 4555              	.LVL393:
 4556              	.LEHB28:
 4557              	.LBB2265:
 4558              	.LBB2266:
 4559              	.LBB2267:
 4560              	.LBB2268:
 4561              		.loc 1 338 0
 4562              		.cfi_offset 31, -4
 4563              		.cfi_offset 30, -8
 4564 0030 48000001 		bl _ZN7sigslot15single_threaded4lockEv
 4565              	.LEHE28:
 4566              	.LVL394:
 4567              	.LBE2268:
 4568              	.LBE2267:
 4569              	.LBE2266:
 4570              		.loc 3 51 0
 4571 0034 7F9DE378 		mr 29,28
 4572 0038 87FD0004 		lwzu 31,4(29)
 4573              	.LVL395:
 4574              	.LBB2299:
 4575              		.loc 1 954 0
 4576 003c 7F9FE800 		cmpw 7,31,29
 4577 0040 419E00A8 		beq- 7,.L319
 4578              	.LVL396:
 4579              	.L356:
 4580              		.loc 1 956 0
 4581 0044 807F0008 		lwz 3,8(31)
 4582 0048 81230000 		lwz 9,0(3)
 4583 004c 80090008 		lwz 0,8(9)
 4584 0050 7C0903A6 		mtctr 0
 4585              	.LEHB29:
 4586 0054 4E800421 		bctrl
 4587              	.LBB2269:
 4588              	.LBB2270:
 4589              	.LBB2271:
 4590              	.LBB2272:
 4591              		.loc 1 338 0
 4592 0058 81230000 		lwz 9,0(3)
 4593              	.LBE2272:
 4594              	.LBE2271:
 4595              	.LBE2270:
 4596              	.LBE2269:
 4597              		.loc 1 956 0
 4598 005c 7C7E1B78 		mr 30,3
 4599              	.LVL397:
 4600 0060 93810008 		stw 28,8(1)
 4601              	.LVL398:
 4602              	.LBB2281:
 4603              	.LBB2280:
 4604              	.LBB2274:
 4605              	.LBB2273:
 4606              		.loc 1 338 0
 4607 0064 80090008 		lwz 0,8(9)
 4608 0068 7C0903A6 		mtctr 0
 4609 006c 4E800421 		bctrl
 4610              	.LVL399:
 4611              	.LBE2273:
 4612              	.LBE2274:
 4613              	.LBB2275:
 4614              	.LBB2276:
 4615              		.loc 10 528 0
 4616 0070 387E0004 		addi 3,30,4
 4617 0074 38810008 		addi 4,1,8
 4618 0078 48000001 		bl _ZNSt8_Rb_treeIPN7sigslot12_signal_baseINS0_15single_threadedEEES4_St9_IdentityIS4_ESt4lessIS4_
 4619              	.LVL400:
 4620              	.LBE2276:
 4621              	.LBE2275:
 4622              	.LBB2277:
 4623              	.LBB2278:
 4624              	.LBB2279:
 4625              		.loc 1 343 0
 4626 007c 813E0000 		lwz 9,0(30)
 4627 0080 7FC3F378 		mr 3,30
 4628 0084 8009000C 		lwz 0,12(9)
 4629 0088 7C0903A6 		mtctr 0
 4630 008c 4E800421 		bctrl
 4631              	.LVL401:
 4632              	.LBE2279:
 4633              	.LBE2278:
 4634              	.LBE2277:
 4635              	.LBE2280:
 4636              	.LBE2281:
 4637              		.loc 1 957 0
 4638 0090 807F0008 		lwz 3,8(31)
 4639 0094 2F830000 		cmpwi 7,3,0
 4640 0098 419E0014 		beq- 7,.L321
 4641 009c 81230000 		lwz 9,0(3)
 4642 00a0 80090004 		lwz 0,4(9)
 4643 00a4 7C0903A6 		mtctr 0
 4644 00a8 4E800421 		bctrl
 4645              	.LEHE29:
 4646              	.L321:
 4647              	.LVL402:
 4648              	.LBB2282:
 4649              	.LBB2283:
 4650              		.loc 4 234 0
 4651 00ac 83FF0000 		lwz 31,0(31)
 4652              	.LVL403:
 4653              	.LBE2283:
 4654              	.LBE2282:
 4655              		.loc 1 954 0
 4656 00b0 7F9DF800 		cmpw 7,29,31
 4657 00b4 409EFF90 		bne+ 7,.L356
 4658              	.LBE2299:
 4659              		.loc 3 51 0
 4660 00b8 83FC0004 		lwz 31,4(28)
 4661              	.LVL404:
 4662              	.LBB2300:
 4663              	.LBB2284:
 4664              	.LBB2285:
 4665              		.loc 4 1162 0
 4666 00bc 7F9DF800 		cmpw 7,29,31
 4667 00c0 40BE000C 		bne+ 7,.L358
 4668 00c4 48000024 		b .L319
 4669              	.LVL405:
 4670              	.L351:
 4671              		.loc 4 1163 0
 4672 00c8 7FDFF378 		mr 31,30
 4673              	.LVL406:
 4674              	.L358:
 4675              	.LBB2286:
 4676              	.LBB2287:
 4677              		.loc 11 112 0
 4678 00cc 83DF0000 		lwz 30,0(31)
 4679              	.LVL407:
 4680              	.LBB2288:
 4681              	.LBB2289:
 4682              		.loc 4 1532 0
 4683 00d0 7FE3FB78 		mr 3,31
 4684 00d4 48000001 		bl _ZNSt8__detail15_List_node_base9_M_unhookEv
 4685              	.LVL408:
 4686              	.LBB2290:
 4687              	.LBB2291:
 4688              	.LBB2292:
 4689              		.loc 7 98 0
 4690 00d8 7FE3FB78 		mr 3,31
 4691 00dc 48000001 		bl _ZdlPv
 4692              	.LVL409:
 4693              	.LBE2292:
 4694              	.LBE2291:
 4695              	.LBE2290:
 4696              	.LBE2289:
 4697              	.LBE2288:
 4698              	.LBE2287:
 4699              	.LBE2286:
 4700              		.loc 4 1162 0
 4701 00e0 7F9DF000 		cmpw 7,29,30
 4702 00e4 409EFFE4 		bne+ 7,.L351
 4703              	.LVL410:
 4704              	.L319:
 4705              	.LBE2285:
 4706              	.LBE2284:
 4707              	.LBB2293:
 4708              	.LBB2294:
 4709              	.LBB2295:
 4710              		.loc 1 343 0
 4711 00e8 813C0000 		lwz 9,0(28)
 4712 00ec 7F83E378 		mr 3,28
 4713 00f0 8009000C 		lwz 0,12(9)
 4714 00f4 7C0903A6 		mtctr 0
 4715              	.LEHB30:
 4716 00f8 4E800421 		bctrl
 4717              	.LEHE30:
 4718              	.LVL411:
 4719              	.LBE2295:
 4720              	.LBE2294:
 4721              	.LBE2293:
 4722              	.LBE2300:
 4723              	.LBE2265:
 4724              	.LBB2302:
 4725              	.LBB2303:
 4726              	.LBB2304:
 4727              	.LBB2305:
 4728              	.LBB2306:
 4729              	.LBB2307:
 4730              		.loc 11 70 0
 4731 00fc 807C0004 		lwz 3,4(28)
 4732              	.LVL412:
 4733              		.loc 11 71 0
 4734 0100 7F83E800 		cmpw 7,3,29
 4735 0104 40BE000C 		bne+ 7,.L360
 4736 0108 48000018 		b .L337
 4737              	.LVL413:
 4738              	.L352:
 4739              		.loc 11 74 0
 4740 010c 7FE3FB78 		mr 3,31
 4741              	.LVL414:
 4742              	.L360:
 4743              	.LBB2308:
 4744 0110 83E30000 		lwz 31,0(3)
 4745              	.LVL415:
 4746              	.LBB2309:
 4747              	.LBB2310:
 4748              	.LBB2311:
 4749              		.loc 7 98 0
 4750 0114 48000001 		bl _ZdlPv
 4751              	.LVL416:
 4752              	.LBE2311:
 4753              	.LBE2310:
 4754              	.LBE2309:
 4755              	.LBE2308:
 4756              		.loc 11 71 0
 4757 0118 7F9FE800 		cmpw 7,31,29
 4758 011c 409EFFF0 		bne+ 7,.L352
 4759              	.LVL417:
 4760              	.L337:
 4761              	.LBE2307:
 4762              	.LBE2306:
 4763              	.LBE2305:
 4764              	.LBE2304:
 4765              	.LBE2303:
 4766              	.LBE2302:
 4767              	.LBB2312:
 4768              	.LBB2313:
 4769              	.LBB2314:
 4770              	.LBB2315:
 4771              	.LBB2316:
 4772              	.LBB2317:
 4773              		.loc 1 105 0
 4774 0120 3D200000 		lis 9,_ZTVN7sigslot15single_threadedE+8@ha
 4775              	.LBE2317:
 4776              	.LBE2316:
 4777              	.LBE2315:
 4778              	.LBE2314:
 4779              	.LBE2313:
 4780              	.LBE2312:
 4781              	.LBE2348:
 4782              		.loc 1 946 0
 4783 0124 83A1001C 		lwz 29,28(1)
 4784              	.LVL418:
 4785              	.LBB2349:
 4786              	.LBB2328:
 4787              	.LBB2326:
 4788              	.LBB2324:
 4789              	.LBB2322:
 4790              	.LBB2320:
 4791              	.LBB2318:
 4792              		.loc 1 105 0
 4793 0128 38090008 		la 0,_ZTVN7sigslot15single_threadedE+8@l(9)
 4794              	.LBE2318:
 4795              	.LBE2320:
 4796              	.LBE2322:
 4797              	.LBE2324:
 4798              	.LBE2326:
 4799              	.LBE2328:
 4800              	.LBE2349:
 4801              		.loc 1 946 0
 4802 012c 83C10020 		lwz 30,32(1)
 4803              	.LBB2350:
 4804              	.LBB2329:
 4805              	.LBB2327:
 4806              	.LBB2325:
 4807              	.LBB2323:
 4808              	.LBB2321:
 4809              	.LBB2319:
 4810              		.loc 1 105 0
 4811 0130 901C0000 		stw 0,0(28)
 4812              	.LBE2319:
 4813              	.LBE2321:
 4814              	.LBE2323:
 4815              	.LBE2325:
 4816              	.LBE2327:
 4817              	.LBE2329:
 4818              	.LBE2350:
 4819              		.loc 1 946 0
 4820 0134 8001002C 		lwz 0,44(1)
 4821 0138 83810018 		lwz 28,24(1)
 4822              	.LVL419:
 4823 013c 7C0803A6 		mtlr 0
 4824 0140 83E10024 		lwz 31,36(1)
 4825 0144 38210028 		addi 1,1,40
 4826              		.cfi_remember_state
 4827              	.LCFI53:
 4828              		.cfi_def_cfa_offset 0
 4829              		.cfi_restore 31
 4830              		.cfi_restore 30
 4831              		.cfi_restore 29
 4832              		.cfi_restore 28
 4833 0148 4E800020 		blr
 4834              	.LVL420:
 4835              	.L354:
 4836              	.LCFI54:
 4837              		.cfi_restore_state
 4838 014c 7C7F1B78 		mr 31,3
 4839              	.L329:
 4840              	.LVL421:
 4841              	.LBB2351:
 4842              	.LBB2330:
 4843              	.LBB2331:
 4844              	.LBB2332:
 4845              	.LBB2333:
 4846              	.LBB2334:
 4847              	.LBB2335:
 4848              		.loc 11 70 0
 4849 0150 807C0004 		lwz 3,4(28)
 4850              	.LVL422:
 4851              		.loc 11 71 0
 4852 0154 7F83E800 		cmpw 7,3,29
 4853 0158 419E0038 		beq- 7,.L348
 4854              	.LVL423:
 4855              	.L361:
 4856              	.LBB2336:
 4857              		.loc 11 74 0
 4858 015c 83C30000 		lwz 30,0(3)
 4859              	.LVL424:
 4860              	.LBB2337:
 4861              	.LBB2338:
 4862              	.LBB2339:
 4863              		.loc 7 98 0
 4864 0160 48000001 		bl _ZdlPv
 4865              	.LVL425:
 4866              	.LBE2339:
 4867              	.LBE2338:
 4868              	.LBE2337:
 4869              	.LBE2336:
 4870              		.loc 11 71 0
 4871 0164 7F9EE800 		cmpw 7,30,29
 4872 0168 419E0028 		beq- 7,.L348
 4873              		.loc 11 74 0
 4874 016c 7FC3F378 		mr 3,30
 4875 0170 4BFFFFEC 		b .L361
 4876              	.LVL426:
 4877              	.L355:
 4878              	.LBE2335:
 4879              	.LBE2334:
 4880              	.LBE2333:
 4881              	.LBE2332:
 4882              	.LBE2331:
 4883              	.LBE2330:
 4884              	.LBB2340:
 4885              	.LBB2301:
 4886              	.LBB2296:
 4887              	.LBB2297:
 4888              	.LBB2298:
 4889              		.loc 1 343 0
 4890 0174 813C0000 		lwz 9,0(28)
 4891 0178 7C7F1B78 		mr 31,3
 4892              	.LVL427:
 4893 017c 7F83E378 		mr 3,28
 4894 0180 8009000C 		lwz 0,12(9)
 4895 0184 7C0903A6 		mtctr 0
 4896 0188 4E800421 		bctrl
 4897 018c 4BFFFFC4 		b .L329
 4898              	.LVL428:
 4899              	.L348:
 4900              	.LBE2298:
 4901              	.LBE2297:
 4902              	.LBE2296:
 4903              	.LBE2301:
 4904              	.LBE2340:
 4905              	.LBB2341:
 4906              	.LBB2342:
 4907              	.LBB2343:
 4908              	.LBB2344:
 4909              	.LBB2345:
 4910              	.LBB2346:
 4911              		.loc 1 105 0
 4912 0190 3D200000 		lis 9,_ZTVN7sigslot15single_threadedE+8@ha
 4913 0194 7FE3FB78 		mr 3,31
 4914 0198 38090008 		la 0,_ZTVN7sigslot15single_threadedE+8@l(9)
 4915 019c 901C0000 		stw 0,0(28)
 4916              	.LEHB31:
 4917 01a0 48000001 		bl _Unwind_Resume
 4918              	.LEHE31:
 4919              	.LBE2346:
 4920              	.LBE2345:
 4921              	.LBE2344:
 4922              	.LBE2343:
 4923              	.LBE2342:
 4924              	.LBE2341:
 4925              	.LBE2351:
 4926              		.cfi_endproc
 4927              	.LFE1516:
 4928              		.section	.gcc_except_table
 4929              	.LLSDA1516:
 4930 00a5 FF       		.byte	0xff
 4931 00a6 FF       		.byte	0xff
 4932 00a7 01       		.byte	0x1
 4933 00a8 15       		.uleb128 .LLSDACSE1516-.LLSDACSB1516
 4934              	.LLSDACSB1516:
 4935 00a9 30       		.uleb128 .LEHB28-.LFB1516
 4936 00aa 04       		.uleb128 .LEHE28-.LEHB28
 4937 00ab CC02     		.uleb128 .L354-.LFB1516
 4938 00ad 00       		.uleb128 0
 4939 00ae 54       		.uleb128 .LEHB29-.LFB1516
 4940 00af 58       		.uleb128 .LEHE29-.LEHB29
 4941 00b0 F402     		.uleb128 .L355-.LFB1516
 4942 00b2 00       		.uleb128 0
 4943 00b3 F801     		.uleb128 .LEHB30-.LFB1516
 4944 00b5 04       		.uleb128 .LEHE30-.LEHB30
 4945 00b6 CC02     		.uleb128 .L354-.LFB1516
 4946 00b8 00       		.uleb128 0
 4947 00b9 A003     		.uleb128 .LEHB31-.LFB1516
 4948 00bb 04       		.uleb128 .LEHE31-.LEHB31
 4949 00bc 00       		.uleb128 0
 4950 00bd 00       		.uleb128 0
 4951              	.LLSDACSE1516:
 4952              		.section	.text._ZN7sigslot13_signal_base3IP10GuiElementiiNS_15single_threadedEED2Ev,"axG",@progbit
 4953              		.size	_ZN7sigslot13_signal_base3IP10GuiElementiiNS_15single_threadedEED2Ev, .-_ZN7sigslot13_signal
 4954              		.section	.text._ZN7sigslot7signal3IP10GuiElementiiNS_15single_threadedEED2Ev,"axG",@progbits,_ZN7s
 4955              		.align 2
 4956              		.weak	_ZN7sigslot7signal3IP10GuiElementiiNS_15single_threadedEED2Ev
 4957              		.type	_ZN7sigslot7signal3IP10GuiElementiiNS_15single_threadedEED2Ev, @function
 4958              	_ZN7sigslot7signal3IP10GuiElementiiNS_15single_threadedEED2Ev:
 4959              	.LFB1483:
 4960              		.loc 1 2302 0
 4961              		.cfi_startproc
 4962              		.cfi_personality 0,__gxx_personality_v0
 4963              		.cfi_lsda 0,.LLSDA1483
 4964              	.LVL429:
 4965 0000 7C0802A6 		mflr 0
 4966 0004 9421FFD8 		stwu 1,-40(1)
 4967              	.LCFI55:
 4968              		.cfi_def_cfa_offset 40
 4969              		.cfi_register 65, 0
 4970              	.LBB2449:
 4971              	.LBB2450:
 4972              	.LBB2451:
 4973              	.LBB2452:
 4974              		.loc 1 946 0
 4975 0008 3D200000 		lis 9,_ZTVN7sigslot13_signal_base3IP10GuiElementiiNS_15single_threadedEEE+8@ha
 4976              	.LBE2452:
 4977              	.LBE2451:
 4978              	.LBE2450:
 4979              	.LBE2449:
 4980              		.loc 1 2302 0
 4981 000c 93810018 		stw 28,24(1)
 4982 0010 7C7C1B78 		mr 28,3
 4983              		.cfi_offset 28, -16
 4984              	.LVL430:
 4985 0014 9001002C 		stw 0,44(1)
 4986              	.LBB2550:
 4987              	.LBB2545:
 4988              	.LBB2540:
 4989              	.LBB2535:
 4990              		.loc 1 946 0
 4991 0018 38090008 		la 0,_ZTVN7sigslot13_signal_base3IP10GuiElementiiNS_15single_threadedEEE+8@l(9)
 4992              		.cfi_offset 65, 4
 4993              	.LBE2535:
 4994              	.LBE2540:
 4995              	.LBE2545:
 4996              	.LBE2550:
 4997              		.loc 1 2302 0
 4998 001c 93A1001C 		stw 29,28(1)
 4999 0020 3BA30004 		addi 29,3,4
 5000              		.cfi_offset 29, -12
 5001 0024 93C10020 		stw 30,32(1)
 5002 0028 93E10024 		stw 31,36(1)
 5003              	.LBB2551:
 5004              	.LBB2546:
 5005              	.LBB2541:
 5006              	.LBB2536:
 5007              		.loc 1 946 0
 5008 002c 90030000 		stw 0,0(3)
 5009              	.LVL431:
 5010              	.LEHB32:
 5011              	.LBB2453:
 5012              	.LBB2454:
 5013              	.LBB2455:
 5014              	.LBB2456:
 5015              		.loc 1 338 0
 5016              		.cfi_offset 31, -4
 5017              		.cfi_offset 30, -8
 5018 0030 48000001 		bl _ZN7sigslot15single_threaded4lockEv
 5019              	.LEHE32:
 5020              	.LVL432:
 5021              	.LBE2456:
 5022              	.LBE2455:
 5023              	.LBE2454:
 5024              		.loc 3 51 0
 5025 0034 7F9DE378 		mr 29,28
 5026              	.LVL433:
 5027 0038 87FD0004 		lwzu 31,4(29)
 5028              	.LVL434:
 5029              	.LBB2487:
 5030              		.loc 1 954 0
 5031 003c 7F9FE800 		cmpw 7,31,29
 5032 0040 419E00A8 		beq- 7,.L363
 5033              	.LVL435:
 5034              	.L401:
 5035              		.loc 1 956 0
 5036 0044 807F0008 		lwz 3,8(31)
 5037 0048 81230000 		lwz 9,0(3)
 5038 004c 80090008 		lwz 0,8(9)
 5039 0050 7C0903A6 		mtctr 0
 5040              	.LEHB33:
 5041 0054 4E800421 		bctrl
 5042              	.LBB2457:
 5043              	.LBB2458:
 5044              	.LBB2459:
 5045              	.LBB2460:
 5046              		.loc 1 338 0
 5047 0058 81230000 		lwz 9,0(3)
 5048              	.LBE2460:
 5049              	.LBE2459:
 5050              	.LBE2458:
 5051              	.LBE2457:
 5052              		.loc 1 956 0
 5053 005c 7C7E1B78 		mr 30,3
 5054              	.LVL436:
 5055 0060 93810008 		stw 28,8(1)
 5056              	.LVL437:
 5057              	.LBB2469:
 5058              	.LBB2468:
 5059              	.LBB2462:
 5060              	.LBB2461:
 5061              		.loc 1 338 0
 5062 0064 80090008 		lwz 0,8(9)
 5063 0068 7C0903A6 		mtctr 0
 5064 006c 4E800421 		bctrl
 5065              	.LVL438:
 5066              	.LBE2461:
 5067              	.LBE2462:
 5068              	.LBB2463:
 5069              	.LBB2464:
 5070              		.loc 10 528 0
 5071 0070 387E0004 		addi 3,30,4
 5072 0074 38810008 		addi 4,1,8
 5073 0078 48000001 		bl _ZNSt8_Rb_treeIPN7sigslot12_signal_baseINS0_15single_threadedEEES4_St9_IdentityIS4_ESt4lessIS4_
 5074              	.LVL439:
 5075              	.LBE2464:
 5076              	.LBE2463:
 5077              	.LBB2465:
 5078              	.LBB2466:
 5079              	.LBB2467:
 5080              		.loc 1 343 0
 5081 007c 813E0000 		lwz 9,0(30)
 5082 0080 7FC3F378 		mr 3,30
 5083 0084 8009000C 		lwz 0,12(9)
 5084 0088 7C0903A6 		mtctr 0
 5085 008c 4E800421 		bctrl
 5086              	.LVL440:
 5087              	.LBE2467:
 5088              	.LBE2466:
 5089              	.LBE2465:
 5090              	.LBE2468:
 5091              	.LBE2469:
 5092              		.loc 1 957 0
 5093 0090 807F0008 		lwz 3,8(31)
 5094 0094 2F830000 		cmpwi 7,3,0
 5095 0098 419E0014 		beq- 7,.L365
 5096 009c 81230000 		lwz 9,0(3)
 5097 00a0 80090004 		lwz 0,4(9)
 5098 00a4 7C0903A6 		mtctr 0
 5099 00a8 4E800421 		bctrl
 5100              	.LEHE33:
 5101              	.L365:
 5102              	.LVL441:
 5103              	.LBB2470:
 5104              	.LBB2471:
 5105              		.loc 4 234 0
 5106 00ac 83FF0000 		lwz 31,0(31)
 5107              	.LVL442:
 5108              	.LBE2471:
 5109              	.LBE2470:
 5110              		.loc 1 954 0
 5111 00b0 7F9DF800 		cmpw 7,29,31
 5112 00b4 409EFF90 		bne+ 7,.L401
 5113              	.LBE2487:
 5114              		.loc 3 51 0
 5115 00b8 83FC0004 		lwz 31,4(28)
 5116              	.LVL443:
 5117              	.LBB2488:
 5118              	.LBB2472:
 5119              	.LBB2473:
 5120              		.loc 4 1162 0
 5121 00bc 7F9DF800 		cmpw 7,29,31
 5122 00c0 40BE000C 		bne+ 7,.L403
 5123 00c4 48000024 		b .L363
 5124              	.LVL444:
 5125              	.L396:
 5126              		.loc 4 1163 0
 5127 00c8 7FDFF378 		mr 31,30
 5128              	.LVL445:
 5129              	.L403:
 5130              	.LBB2474:
 5131              	.LBB2475:
 5132              		.loc 11 112 0
 5133 00cc 83DF0000 		lwz 30,0(31)
 5134              	.LVL446:
 5135              	.LBB2476:
 5136              	.LBB2477:
 5137              		.loc 4 1532 0
 5138 00d0 7FE3FB78 		mr 3,31
 5139 00d4 48000001 		bl _ZNSt8__detail15_List_node_base9_M_unhookEv
 5140              	.LVL447:
 5141              	.LBB2478:
 5142              	.LBB2479:
 5143              	.LBB2480:
 5144              		.loc 7 98 0
 5145 00d8 7FE3FB78 		mr 3,31
 5146 00dc 48000001 		bl _ZdlPv
 5147              	.LVL448:
 5148              	.LBE2480:
 5149              	.LBE2479:
 5150              	.LBE2478:
 5151              	.LBE2477:
 5152              	.LBE2476:
 5153              	.LBE2475:
 5154              	.LBE2474:
 5155              		.loc 4 1162 0
 5156 00e0 7F9DF000 		cmpw 7,29,30
 5157 00e4 409EFFE4 		bne+ 7,.L396
 5158              	.LVL449:
 5159              	.L363:
 5160              	.LBE2473:
 5161              	.LBE2472:
 5162              	.LBB2481:
 5163              	.LBB2482:
 5164              	.LBB2483:
 5165              		.loc 1 343 0
 5166 00e8 813C0000 		lwz 9,0(28)
 5167 00ec 7F83E378 		mr 3,28
 5168 00f0 8009000C 		lwz 0,12(9)
 5169 00f4 7C0903A6 		mtctr 0
 5170              	.LEHB34:
 5171 00f8 4E800421 		bctrl
 5172              	.LEHE34:
 5173              	.LBE2483:
 5174              	.LBE2482:
 5175              	.LBE2481:
 5176              	.LBE2488:
 5177              	.LBE2453:
 5178              	.LBB2490:
 5179              	.LBB2491:
 5180              	.LBB2492:
 5181              	.LBB2493:
 5182              	.LBB2494:
 5183              	.LBB2495:
 5184              		.loc 11 70 0
 5185 00fc 807C0004 		lwz 3,4(28)
 5186              	.LVL450:
 5187              		.loc 11 71 0
 5188 0100 7F83E800 		cmpw 7,3,29
 5189 0104 40BE000C 		bne+ 7,.L405
 5190 0108 48000018 		b .L381
 5191              	.LVL451:
 5192              	.L397:
 5193              		.loc 11 74 0
 5194 010c 7FE3FB78 		mr 3,31
 5195              	.LVL452:
 5196              	.L405:
 5197              	.LBB2496:
 5198 0110 83E30000 		lwz 31,0(3)
 5199              	.LVL453:
 5200              	.LBB2497:
 5201              	.LBB2498:
 5202              	.LBB2499:
 5203              		.loc 7 98 0
 5204 0114 48000001 		bl _ZdlPv
 5205              	.LVL454:
 5206              	.LBE2499:
 5207              	.LBE2498:
 5208              	.LBE2497:
 5209              	.LBE2496:
 5210              		.loc 11 71 0
 5211 0118 7F9FE800 		cmpw 7,31,29
 5212 011c 409EFFF0 		bne+ 7,.L397
 5213              	.LVL455:
 5214              	.L381:
 5215              	.LBE2495:
 5216              	.LBE2494:
 5217              	.LBE2493:
 5218              	.LBE2492:
 5219              	.LBE2491:
 5220              	.LBE2490:
 5221              	.LBB2500:
 5222              	.LBB2501:
 5223              	.LBB2502:
 5224              	.LBB2503:
 5225              	.LBB2504:
 5226              	.LBB2505:
 5227              		.loc 1 105 0
 5228 0120 3D200000 		lis 9,_ZTVN7sigslot15single_threadedE+8@ha
 5229              	.LBE2505:
 5230              	.LBE2504:
 5231              	.LBE2503:
 5232              	.LBE2502:
 5233              	.LBE2501:
 5234              	.LBE2500:
 5235              	.LBE2536:
 5236              	.LBE2541:
 5237              	.LBE2546:
 5238              	.LBE2551:
 5239              		.loc 1 2305 0
 5240 0124 83A1001C 		lwz 29,28(1)
 5241              	.LVL456:
 5242              	.LBB2552:
 5243              	.LBB2547:
 5244              	.LBB2542:
 5245              	.LBB2537:
 5246              	.LBB2516:
 5247              	.LBB2514:
 5248              	.LBB2512:
 5249              	.LBB2510:
 5250              	.LBB2508:
 5251              	.LBB2506:
 5252              		.loc 1 105 0
 5253 0128 38090008 		la 0,_ZTVN7sigslot15single_threadedE+8@l(9)
 5254              	.LBE2506:
 5255              	.LBE2508:
 5256              	.LBE2510:
 5257              	.LBE2512:
 5258              	.LBE2514:
 5259              	.LBE2516:
 5260              	.LBE2537:
 5261              	.LBE2542:
 5262              	.LBE2547:
 5263              	.LBE2552:
 5264              		.loc 1 2305 0
 5265 012c 83C10020 		lwz 30,32(1)
 5266              	.LBB2553:
 5267              	.LBB2548:
 5268              	.LBB2543:
 5269              	.LBB2538:
 5270              	.LBB2517:
 5271              	.LBB2515:
 5272              	.LBB2513:
 5273              	.LBB2511:
 5274              	.LBB2509:
 5275              	.LBB2507:
 5276              		.loc 1 105 0
 5277 0130 901C0000 		stw 0,0(28)
 5278              	.LBE2507:
 5279              	.LBE2509:
 5280              	.LBE2511:
 5281              	.LBE2513:
 5282              	.LBE2515:
 5283              	.LBE2517:
 5284              	.LBE2538:
 5285              	.LBE2543:
 5286              	.LBE2548:
 5287              	.LBE2553:
 5288              		.loc 1 2305 0
 5289 0134 8001002C 		lwz 0,44(1)
 5290 0138 83810018 		lwz 28,24(1)
 5291              	.LVL457:
 5292 013c 7C0803A6 		mtlr 0
 5293 0140 83E10024 		lwz 31,36(1)
 5294 0144 38210028 		addi 1,1,40
 5295              		.cfi_remember_state
 5296              	.LCFI56:
 5297              		.cfi_def_cfa_offset 0
 5298              		.cfi_restore 31
 5299              		.cfi_restore 30
 5300              		.cfi_restore 29
 5301              		.cfi_restore 28
 5302 0148 4E800020 		blr
 5303              	.LVL458:
 5304              	.L399:
 5305              	.LCFI57:
 5306              		.cfi_restore_state
 5307 014c 7C7F1B78 		mr 31,3
 5308              	.L373:
 5309              	.LBB2554:
 5310              	.LBB2549:
 5311              	.LBB2544:
 5312              	.LBB2539:
 5313              	.LBB2518:
 5314              	.LBB2519:
 5315              	.LBB2520:
 5316              	.LBB2521:
 5317              	.LBB2522:
 5318              	.LBB2523:
 5319              		.loc 11 70 0
 5320 0150 807C0004 		lwz 3,4(28)
 5321              	.LVL459:
 5322              		.loc 11 71 0
 5323 0154 7F83E800 		cmpw 7,3,29
 5324 0158 419E0038 		beq- 7,.L390
 5325              	.LVL460:
 5326              	.L406:
 5327              	.LBB2524:
 5328              		.loc 11 74 0
 5329 015c 83C30000 		lwz 30,0(3)
 5330              	.LVL461:
 5331              	.LBB2525:
 5332              	.LBB2526:
 5333              	.LBB2527:
 5334              		.loc 7 98 0
 5335 0160 48000001 		bl _ZdlPv
 5336              	.LVL462:
 5337              	.LBE2527:
 5338              	.LBE2526:
 5339              	.LBE2525:
 5340              	.LBE2524:
 5341              		.loc 11 71 0
 5342 0164 7F9EE800 		cmpw 7,30,29
 5343 0168 419E0028 		beq- 7,.L390
 5344              		.loc 11 74 0
 5345 016c 7FC3F378 		mr 3,30
 5346 0170 4BFFFFEC 		b .L406
 5347              	.LVL463:
 5348              	.L400:
 5349              	.LBE2523:
 5350              	.LBE2522:
 5351              	.LBE2521:
 5352              	.LBE2520:
 5353              	.LBE2519:
 5354              	.LBE2518:
 5355              	.LBB2528:
 5356              	.LBB2489:
 5357              	.LBB2484:
 5358              	.LBB2485:
 5359              	.LBB2486:
 5360              		.loc 1 343 0
 5361 0174 813C0000 		lwz 9,0(28)
 5362 0178 7C7F1B78 		mr 31,3
 5363              	.LVL464:
 5364 017c 7F83E378 		mr 3,28
 5365 0180 8009000C 		lwz 0,12(9)
 5366 0184 7C0903A6 		mtctr 0
 5367 0188 4E800421 		bctrl
 5368 018c 4BFFFFC4 		b .L373
 5369              	.LVL465:
 5370              	.L390:
 5371              	.LBE2486:
 5372              	.LBE2485:
 5373              	.LBE2484:
 5374              	.LBE2489:
 5375              	.LBE2528:
 5376              	.LBB2529:
 5377              	.LBB2530:
 5378              	.LBB2531:
 5379              	.LBB2532:
 5380              	.LBB2533:
 5381              	.LBB2534:
 5382              		.loc 1 105 0
 5383 0190 3D200000 		lis 9,_ZTVN7sigslot15single_threadedE+8@ha
 5384 0194 7FE3FB78 		mr 3,31
 5385 0198 38090008 		la 0,_ZTVN7sigslot15single_threadedE+8@l(9)
 5386 019c 901C0000 		stw 0,0(28)
 5387              	.LEHB35:
 5388 01a0 48000001 		bl _Unwind_Resume
 5389              	.LEHE35:
 5390              	.LBE2534:
 5391              	.LBE2533:
 5392              	.LBE2532:
 5393              	.LBE2531:
 5394              	.LBE2530:
 5395              	.LBE2529:
 5396              	.LBE2539:
 5397              	.LBE2544:
 5398              	.LBE2549:
 5399              	.LBE2554:
 5400              		.cfi_endproc
 5401              	.LFE1483:
 5402              		.section	.gcc_except_table
 5403              	.LLSDA1483:
 5404 00be FF       		.byte	0xff
 5405 00bf FF       		.byte	0xff
 5406 00c0 01       		.byte	0x1
 5407 00c1 15       		.uleb128 .LLSDACSE1483-.LLSDACSB1483
 5408              	.LLSDACSB1483:
 5409 00c2 30       		.uleb128 .LEHB32-.LFB1483
 5410 00c3 04       		.uleb128 .LEHE32-.LEHB32
 5411 00c4 CC02     		.uleb128 .L399-.LFB1483
 5412 00c6 00       		.uleb128 0
 5413 00c7 54       		.uleb128 .LEHB33-.LFB1483
 5414 00c8 58       		.uleb128 .LEHE33-.LEHB33
 5415 00c9 F402     		.uleb128 .L400-.LFB1483
 5416 00cb 00       		.uleb128 0
 5417 00cc F801     		.uleb128 .LEHB34-.LFB1483
 5418 00ce 04       		.uleb128 .LEHE34-.LEHB34
 5419 00cf CC02     		.uleb128 .L399-.LFB1483
 5420 00d1 00       		.uleb128 0
 5421 00d2 A003     		.uleb128 .LEHB35-.LFB1483
 5422 00d4 04       		.uleb128 .LEHE35-.LEHB35
 5423 00d5 00       		.uleb128 0
 5424 00d6 00       		.uleb128 0
 5425              	.LLSDACSE1483:
 5426              		.section	.text._ZN7sigslot7signal3IP10GuiElementiiNS_15single_threadedEED2Ev,"axG",@progbits,_ZN7s
 5427              		.size	_ZN7sigslot7signal3IP10GuiElementiiNS_15single_threadedEED2Ev, .-_ZN7sigslot7signal3IP10GuiE
 5428              		.section	.text._ZN7sigslot7signal3IP10GuiElementiiNS_15single_threadedEED0Ev,"axG",@progbits,_ZN7s
 5429              		.align 2
 5430              		.weak	_ZN7sigslot7signal3IP10GuiElementiiNS_15single_threadedEED0Ev
 5431              		.type	_ZN7sigslot7signal3IP10GuiElementiiNS_15single_threadedEED0Ev, @function
 5432              	_ZN7sigslot7signal3IP10GuiElementiiNS_15single_threadedEED0Ev:
 5433              	.LFB1485:
 5434              		.loc 1 2302 0
 5435              		.cfi_startproc
 5436              		.cfi_personality 0,__gxx_personality_v0
 5437              		.cfi_lsda 0,.LLSDA1485
 5438              	.LVL466:
 5439 0000 7C0802A6 		mflr 0
 5440 0004 9421FFD8 		stwu 1,-40(1)
 5441              	.LCFI58:
 5442              		.cfi_def_cfa_offset 40
 5443              		.cfi_register 65, 0
 5444              	.LBB2653:
 5445              	.LBB2654:
 5446              	.LBB2655:
 5447              	.LBB2656:
 5448              	.LBB2657:
 5449              	.LBB2658:
 5450              		.loc 1 946 0
 5451 0008 3D200000 		lis 9,_ZTVN7sigslot13_signal_base3IP10GuiElementiiNS_15single_threadedEEE+8@ha
 5452              	.LBE2658:
 5453              	.LBE2657:
 5454              	.LBE2656:
 5455              	.LBE2655:
 5456              	.LBE2654:
 5457              	.LBE2653:
 5458              		.loc 1 2302 0
 5459 000c 93810018 		stw 28,24(1)
 5460 0010 7C7C1B78 		mr 28,3
 5461              		.cfi_offset 28, -16
 5462              	.LVL467:
 5463 0014 9001002C 		stw 0,44(1)
 5464              	.LBB2755:
 5465              	.LBB2751:
 5466              	.LBB2747:
 5467              	.LBB2743:
 5468              	.LBB2739:
 5469              	.LBB2735:
 5470              		.loc 1 946 0
 5471 0018 38090008 		la 0,_ZTVN7sigslot13_signal_base3IP10GuiElementiiNS_15single_threadedEEE+8@l(9)
 5472              		.cfi_offset 65, 4
 5473              	.LBE2735:
 5474              	.LBE2739:
 5475              	.LBE2743:
 5476              	.LBE2747:
 5477              	.LBE2751:
 5478              	.LBE2755:
 5479              		.loc 1 2302 0
 5480 001c 93A1001C 		stw 29,28(1)
 5481 0020 3BA30004 		addi 29,3,4
 5482              		.cfi_offset 29, -12
 5483 0024 93C10020 		stw 30,32(1)
 5484 0028 93E10024 		stw 31,36(1)
 5485              	.LBB2756:
 5486              	.LBB2752:
 5487              	.LBB2748:
 5488              	.LBB2744:
 5489              	.LBB2740:
 5490              	.LBB2736:
 5491              		.loc 1 946 0
 5492 002c 90030000 		stw 0,0(3)
 5493              	.LVL468:
 5494              	.LEHB36:
 5495              	.LBB2659:
 5496              	.LBB2660:
 5497              	.LBB2661:
 5498              	.LBB2662:
 5499              		.loc 1 338 0
 5500              		.cfi_offset 31, -4
 5501              		.cfi_offset 30, -8
 5502 0030 48000001 		bl _ZN7sigslot15single_threaded4lockEv
 5503              	.LEHE36:
 5504              	.LVL469:
 5505              	.LBE2662:
 5506              	.LBE2661:
 5507              	.LBE2660:
 5508              		.loc 3 51 0
 5509 0034 7F9DE378 		mr 29,28
 5510 0038 87FD0004 		lwzu 31,4(29)
 5511              	.LVL470:
 5512              	.LBB2693:
 5513              		.loc 1 954 0
 5514 003c 7F9FE800 		cmpw 7,31,29
 5515 0040 419E00A8 		beq- 7,.L408
 5516              	.LVL471:
 5517              	.L447:
 5518              		.loc 1 956 0
 5519 0044 807F0008 		lwz 3,8(31)
 5520 0048 81230000 		lwz 9,0(3)
 5521 004c 80090008 		lwz 0,8(9)
 5522 0050 7C0903A6 		mtctr 0
 5523              	.LEHB37:
 5524 0054 4E800421 		bctrl
 5525              	.LBB2663:
 5526              	.LBB2664:
 5527              	.LBB2665:
 5528              	.LBB2666:
 5529              		.loc 1 338 0
 5530 0058 81230000 		lwz 9,0(3)
 5531              	.LBE2666:
 5532              	.LBE2665:
 5533              	.LBE2664:
 5534              	.LBE2663:
 5535              		.loc 1 956 0
 5536 005c 7C7E1B78 		mr 30,3
 5537              	.LVL472:
 5538 0060 93810008 		stw 28,8(1)
 5539              	.LVL473:
 5540              	.LBB2675:
 5541              	.LBB2674:
 5542              	.LBB2668:
 5543              	.LBB2667:
 5544              		.loc 1 338 0
 5545 0064 80090008 		lwz 0,8(9)
 5546 0068 7C0903A6 		mtctr 0
 5547 006c 4E800421 		bctrl
 5548              	.LVL474:
 5549              	.LBE2667:
 5550              	.LBE2668:
 5551              	.LBB2669:
 5552              	.LBB2670:
 5553              		.loc 10 528 0
 5554 0070 387E0004 		addi 3,30,4
 5555 0074 38810008 		addi 4,1,8
 5556 0078 48000001 		bl _ZNSt8_Rb_treeIPN7sigslot12_signal_baseINS0_15single_threadedEEES4_St9_IdentityIS4_ESt4lessIS4_
 5557              	.LVL475:
 5558              	.LBE2670:
 5559              	.LBE2669:
 5560              	.LBB2671:
 5561              	.LBB2672:
 5562              	.LBB2673:
 5563              		.loc 1 343 0
 5564 007c 813E0000 		lwz 9,0(30)
 5565 0080 7FC3F378 		mr 3,30
 5566 0084 8009000C 		lwz 0,12(9)
 5567 0088 7C0903A6 		mtctr 0
 5568 008c 4E800421 		bctrl
 5569              	.LVL476:
 5570              	.LBE2673:
 5571              	.LBE2672:
 5572              	.LBE2671:
 5573              	.LBE2674:
 5574              	.LBE2675:
 5575              		.loc 1 957 0
 5576 0090 807F0008 		lwz 3,8(31)
 5577 0094 2F830000 		cmpwi 7,3,0
 5578 0098 419E0014 		beq- 7,.L410
 5579 009c 81230000 		lwz 9,0(3)
 5580 00a0 80090004 		lwz 0,4(9)
 5581 00a4 7C0903A6 		mtctr 0
 5582 00a8 4E800421 		bctrl
 5583              	.LEHE37:
 5584              	.L410:
 5585              	.LVL477:
 5586              	.LBB2676:
 5587              	.LBB2677:
 5588              		.loc 4 234 0
 5589 00ac 83FF0000 		lwz 31,0(31)
 5590              	.LVL478:
 5591              	.LBE2677:
 5592              	.LBE2676:
 5593              		.loc 1 954 0
 5594 00b0 7F9DF800 		cmpw 7,29,31
 5595 00b4 409EFF90 		bne+ 7,.L447
 5596              	.LBE2693:
 5597              		.loc 3 51 0
 5598 00b8 83FC0004 		lwz 31,4(28)
 5599              	.LVL479:
 5600              	.LBB2694:
 5601              	.LBB2678:
 5602              	.LBB2679:
 5603              		.loc 4 1162 0
 5604 00bc 7F9DF800 		cmpw 7,29,31
 5605 00c0 40BE000C 		bne+ 7,.L449
 5606 00c4 48000024 		b .L408
 5607              	.LVL480:
 5608              	.L442:
 5609              		.loc 4 1163 0
 5610 00c8 7FDFF378 		mr 31,30
 5611              	.LVL481:
 5612              	.L449:
 5613              	.LBB2680:
 5614              	.LBB2681:
 5615              		.loc 11 112 0
 5616 00cc 83DF0000 		lwz 30,0(31)
 5617              	.LVL482:
 5618              	.LBB2682:
 5619              	.LBB2683:
 5620              		.loc 4 1532 0
 5621 00d0 7FE3FB78 		mr 3,31
 5622 00d4 48000001 		bl _ZNSt8__detail15_List_node_base9_M_unhookEv
 5623              	.LVL483:
 5624              	.LBB2684:
 5625              	.LBB2685:
 5626              	.LBB2686:
 5627              		.loc 7 98 0
 5628 00d8 7FE3FB78 		mr 3,31
 5629 00dc 48000001 		bl _ZdlPv
 5630              	.LVL484:
 5631              	.LBE2686:
 5632              	.LBE2685:
 5633              	.LBE2684:
 5634              	.LBE2683:
 5635              	.LBE2682:
 5636              	.LBE2681:
 5637              	.LBE2680:
 5638              		.loc 4 1162 0
 5639 00e0 7F9DF000 		cmpw 7,29,30
 5640 00e4 409EFFE4 		bne+ 7,.L442
 5641              	.LVL485:
 5642              	.L408:
 5643              	.LBE2679:
 5644              	.LBE2678:
 5645              	.LBB2687:
 5646              	.LBB2688:
 5647              	.LBB2689:
 5648              		.loc 1 343 0
 5649 00e8 813C0000 		lwz 9,0(28)
 5650 00ec 7F83E378 		mr 3,28
 5651 00f0 8009000C 		lwz 0,12(9)
 5652 00f4 7C0903A6 		mtctr 0
 5653              	.LEHB38:
 5654 00f8 4E800421 		bctrl
 5655              	.LEHE38:
 5656              	.LBE2689:
 5657              	.LBE2688:
 5658              	.LBE2687:
 5659              	.LBE2694:
 5660              	.LBE2659:
 5661              	.LBB2696:
 5662              	.LBB2697:
 5663              	.LBB2698:
 5664              	.LBB2699:
 5665              	.LBB2700:
 5666              	.LBB2701:
 5667              		.loc 11 70 0
 5668 00fc 807C0004 		lwz 3,4(28)
 5669              	.LVL486:
 5670              		.loc 11 71 0
 5671 0100 7F83E800 		cmpw 7,3,29
 5672 0104 40BE000C 		bne+ 7,.L451
 5673 0108 48000018 		b .L426
 5674              	.LVL487:
 5675              	.L443:
 5676              		.loc 11 74 0
 5677 010c 7FE3FB78 		mr 3,31
 5678              	.LVL488:
 5679              	.L451:
 5680              	.LBB2702:
 5681 0110 83E30000 		lwz 31,0(3)
 5682              	.LVL489:
 5683              	.LBB2703:
 5684              	.LBB2704:
 5685              	.LBB2705:
 5686              		.loc 7 98 0
 5687 0114 48000001 		bl _ZdlPv
 5688              	.LVL490:
 5689              	.LBE2705:
 5690              	.LBE2704:
 5691              	.LBE2703:
 5692              	.LBE2702:
 5693              		.loc 11 71 0
 5694 0118 7F9FE800 		cmpw 7,31,29
 5695 011c 409EFFF0 		bne+ 7,.L443
 5696              	.LVL491:
 5697              	.L426:
 5698              	.LBE2701:
 5699              	.LBE2700:
 5700              	.LBE2699:
 5701              	.LBE2698:
 5702              	.LBE2697:
 5703              	.LBE2696:
 5704              	.LBB2706:
 5705              	.LBB2707:
 5706              	.LBB2708:
 5707              	.LBB2709:
 5708              	.LBB2710:
 5709              	.LBB2711:
 5710              		.loc 1 105 0
 5711 0120 3D200000 		lis 9,_ZTVN7sigslot15single_threadedE+8@ha
 5712              	.LBE2711:
 5713              	.LBE2710:
 5714              	.LBE2709:
 5715              	.LBE2708:
 5716              	.LBE2707:
 5717              	.LBE2706:
 5718              	.LBE2736:
 5719              	.LBE2740:
 5720              	.LBE2744:
 5721              	.LBE2748:
 5722              	.LBE2752:
 5723              	.LBE2756:
 5724              		.loc 1 2305 0
 5725 0124 7F83E378 		mr 3,28
 5726              	.LBB2757:
 5727              	.LBB2753:
 5728              	.LBB2749:
 5729              	.LBB2745:
 5730              	.LBB2741:
 5731              	.LBB2737:
 5732              	.LBB2717:
 5733              	.LBB2716:
 5734              	.LBB2715:
 5735              	.LBB2714:
 5736              	.LBB2713:
 5737              	.LBB2712:
 5738              		.loc 1 105 0
 5739 0128 38090008 		la 0,_ZTVN7sigslot15single_threadedE+8@l(9)
 5740 012c 901C0000 		stw 0,0(28)
 5741              	.LBE2712:
 5742              	.LBE2713:
 5743              	.LBE2714:
 5744              	.LBE2715:
 5745              	.LBE2716:
 5746              	.LBE2717:
 5747              	.LBE2737:
 5748              	.LBE2741:
 5749              	.LBE2745:
 5750              	.LBE2749:
 5751              	.LBE2753:
 5752              	.LBE2757:
 5753              		.loc 1 2305 0
 5754 0130 48000001 		bl _ZdlPv
 5755 0134 8001002C 		lwz 0,44(1)
 5756 0138 83810018 		lwz 28,24(1)
 5757              	.LVL492:
 5758 013c 7C0803A6 		mtlr 0
 5759 0140 83A1001C 		lwz 29,28(1)
 5760              	.LVL493:
 5761 0144 83C10020 		lwz 30,32(1)
 5762 0148 83E10024 		lwz 31,36(1)
 5763 014c 38210028 		addi 1,1,40
 5764              		.cfi_remember_state
 5765              	.LCFI59:
 5766              		.cfi_def_cfa_offset 0
 5767              		.cfi_restore 31
 5768              		.cfi_restore 30
 5769              		.cfi_restore 29
 5770              		.cfi_restore 28
 5771 0150 4E800020 		blr
 5772              	.LVL494:
 5773              	.L445:
 5774              	.LCFI60:
 5775              		.cfi_restore_state
 5776 0154 7C7F1B78 		mr 31,3
 5777              	.L418:
 5778              	.LBB2758:
 5779              	.LBB2754:
 5780              	.LBB2750:
 5781              	.LBB2746:
 5782              	.LBB2742:
 5783              	.LBB2738:
 5784              	.LBB2718:
 5785              	.LBB2719:
 5786              	.LBB2720:
 5787              	.LBB2721:
 5788              	.LBB2722:
 5789              	.LBB2723:
 5790              		.loc 11 70 0
 5791 0158 807C0004 		lwz 3,4(28)
 5792              	.LVL495:
 5793              		.loc 11 71 0
 5794 015c 7F83E800 		cmpw 7,3,29
 5795 0160 419E0038 		beq- 7,.L435
 5796              	.LVL496:
 5797              	.L452:
 5798              	.LBB2724:
 5799              		.loc 11 74 0
 5800 0164 83C30000 		lwz 30,0(3)
 5801              	.LVL497:
 5802              	.LBB2725:
 5803              	.LBB2726:
 5804              	.LBB2727:
 5805              		.loc 7 98 0
 5806 0168 48000001 		bl _ZdlPv
 5807              	.LVL498:
 5808              	.LBE2727:
 5809              	.LBE2726:
 5810              	.LBE2725:
 5811              	.LBE2724:
 5812              		.loc 11 71 0
 5813 016c 7F9EE800 		cmpw 7,30,29
 5814 0170 419E0028 		beq- 7,.L435
 5815              		.loc 11 74 0
 5816 0174 7FC3F378 		mr 3,30
 5817 0178 4BFFFFEC 		b .L452
 5818              	.LVL499:
 5819              	.L446:
 5820              	.LBE2723:
 5821              	.LBE2722:
 5822              	.LBE2721:
 5823              	.LBE2720:
 5824              	.LBE2719:
 5825              	.LBE2718:
 5826              	.LBB2728:
 5827              	.LBB2695:
 5828              	.LBB2690:
 5829              	.LBB2691:
 5830              	.LBB2692:
 5831              		.loc 1 343 0
 5832 017c 813C0000 		lwz 9,0(28)
 5833 0180 7C7F1B78 		mr 31,3
 5834              	.LVL500:
 5835 0184 7F83E378 		mr 3,28
 5836 0188 8009000C 		lwz 0,12(9)
 5837 018c 7C0903A6 		mtctr 0
 5838 0190 4E800421 		bctrl
 5839 0194 4BFFFFC4 		b .L418
 5840              	.LVL501:
 5841              	.L435:
 5842              	.LBE2692:
 5843              	.LBE2691:
 5844              	.LBE2690:
 5845              	.LBE2695:
 5846              	.LBE2728:
 5847              	.LBB2729:
 5848              	.LBB2730:
 5849              	.LBB2731:
 5850              	.LBB2732:
 5851              	.LBB2733:
 5852              	.LBB2734:
 5853              		.loc 1 105 0
 5854 0198 3D200000 		lis 9,_ZTVN7sigslot15single_threadedE+8@ha
 5855 019c 7FE3FB78 		mr 3,31
 5856 01a0 38090008 		la 0,_ZTVN7sigslot15single_threadedE+8@l(9)
 5857 01a4 901C0000 		stw 0,0(28)
 5858              	.LEHB39:
 5859 01a8 48000001 		bl _Unwind_Resume
 5860              	.LEHE39:
 5861              	.LBE2734:
 5862              	.LBE2733:
 5863              	.LBE2732:
 5864              	.LBE2731:
 5865              	.LBE2730:
 5866              	.LBE2729:
 5867              	.LBE2738:
 5868              	.LBE2742:
 5869              	.LBE2746:
 5870              	.LBE2750:
 5871              	.LBE2754:
 5872              	.LBE2758:
 5873              		.cfi_endproc
 5874              	.LFE1485:
 5875              		.section	.gcc_except_table
 5876              	.LLSDA1485:
 5877 00d7 FF       		.byte	0xff
 5878 00d8 FF       		.byte	0xff
 5879 00d9 01       		.byte	0x1
 5880 00da 15       		.uleb128 .LLSDACSE1485-.LLSDACSB1485
 5881              	.LLSDACSB1485:
 5882 00db 30       		.uleb128 .LEHB36-.LFB1485
 5883 00dc 04       		.uleb128 .LEHE36-.LEHB36
 5884 00dd D402     		.uleb128 .L445-.LFB1485
 5885 00df 00       		.uleb128 0
 5886 00e0 54       		.uleb128 .LEHB37-.LFB1485
 5887 00e1 58       		.uleb128 .LEHE37-.LEHB37
 5888 00e2 FC02     		.uleb128 .L446-.LFB1485
 5889 00e4 00       		.uleb128 0
 5890 00e5 F801     		.uleb128 .LEHB38-.LFB1485
 5891 00e7 04       		.uleb128 .LEHE38-.LEHB38
 5892 00e8 D402     		.uleb128 .L445-.LFB1485
 5893 00ea 00       		.uleb128 0
 5894 00eb A803     		.uleb128 .LEHB39-.LFB1485
 5895 00ed 04       		.uleb128 .LEHE39-.LEHB39
 5896 00ee 00       		.uleb128 0
 5897 00ef 00       		.uleb128 0
 5898              	.LLSDACSE1485:
 5899              		.section	.text._ZN7sigslot7signal3IP10GuiElementiiNS_15single_threadedEED0Ev,"axG",@progbits,_ZN7s
 5900              		.size	_ZN7sigslot7signal3IP10GuiElementiiNS_15single_threadedEED0Ev, .-_ZN7sigslot7signal3IP10GuiE
 5901              		.section	.text._ZN7sigslot13_signal_base2IP10GuiElementbNS_15single_threadedEED2Ev,"axG",@progbits
 5902              		.align 2
 5903              		.weak	_ZN7sigslot13_signal_base2IP10GuiElementbNS_15single_threadedEED2Ev
 5904              		.type	_ZN7sigslot13_signal_base2IP10GuiElementbNS_15single_threadedEED2Ev, @function
 5905              	_ZN7sigslot13_signal_base2IP10GuiElementbNS_15single_threadedEED2Ev:
 5906              	.LFB1509:
 5907              		.loc 1 823 0
 5908              		.cfi_startproc
 5909              		.cfi_personality 0,__gxx_personality_v0
 5910              		.cfi_lsda 0,.LLSDA1509
 5911              	.LVL502:
 5912 0000 7C0802A6 		mflr 0
 5913 0004 9421FFD8 		stwu 1,-40(1)
 5914              	.LCFI61:
 5915              		.cfi_def_cfa_offset 40
 5916              		.cfi_register 65, 0
 5917              	.LBB2905:
 5918              		.loc 1 826 0
 5919 0008 3D200000 		lis 9,_ZTVN7sigslot13_signal_base2IP10GuiElementbNS_15single_threadedEEE+8@ha
 5920              	.LBE2905:
 5921              		.loc 1 823 0
 5922 000c 93810018 		stw 28,24(1)
 5923 0010 7C7C1B78 		mr 28,3
 5924              		.cfi_offset 28, -16
 5925 0014 9001002C 		stw 0,44(1)
 5926              	.LBB2988:
 5927              		.loc 1 826 0
 5928 0018 38090008 		la 0,_ZTVN7sigslot13_signal_base2IP10GuiElementbNS_15single_threadedEEE+8@l(9)
 5929              		.cfi_offset 65, 4
 5930              	.LBE2988:
 5931              		.loc 1 823 0
 5932 001c 93A1001C 		stw 29,28(1)
 5933 0020 3BA30004 		addi 29,3,4
 5934              		.cfi_offset 29, -12
 5935 0024 93C10020 		stw 30,32(1)
 5936 0028 93E10024 		stw 31,36(1)
 5937              	.LBB2989:
 5938              		.loc 1 826 0
 5939 002c 90030000 		stw 0,0(3)
 5940              	.LVL503:
 5941              	.LEHB40:
 5942              	.LBB2906:
 5943              	.LBB2907:
 5944              	.LBB2908:
 5945              	.LBB2909:
 5946              		.loc 1 338 0
 5947              		.cfi_offset 31, -4
 5948              		.cfi_offset 30, -8
 5949 0030 48000001 		bl _ZN7sigslot15single_threaded4lockEv
 5950              	.LEHE40:
 5951              	.LVL504:
 5952              	.LBE2909:
 5953              	.LBE2908:
 5954              	.LBE2907:
 5955              		.loc 3 51 0
 5956 0034 7F9DE378 		mr 29,28
 5957 0038 87FD0004 		lwzu 31,4(29)
 5958              	.LVL505:
 5959              	.LBB2940:
 5960              		.loc 1 834 0
 5961 003c 7F9FE800 		cmpw 7,31,29
 5962 0040 419E00A8 		beq- 7,.L454
 5963              	.LVL506:
 5964              	.L491:
 5965              		.loc 1 836 0
 5966 0044 807F0008 		lwz 3,8(31)
 5967 0048 81230000 		lwz 9,0(3)
 5968 004c 80090008 		lwz 0,8(9)
 5969 0050 7C0903A6 		mtctr 0
 5970              	.LEHB41:
 5971 0054 4E800421 		bctrl
 5972              	.LBB2910:
 5973              	.LBB2911:
 5974              	.LBB2912:
 5975              	.LBB2913:
 5976              		.loc 1 338 0
 5977 0058 81230000 		lwz 9,0(3)
 5978              	.LBE2913:
 5979              	.LBE2912:
 5980              	.LBE2911:
 5981              	.LBE2910:
 5982              		.loc 1 836 0
 5983 005c 7C7E1B78 		mr 30,3
 5984              	.LVL507:
 5985 0060 93810008 		stw 28,8(1)
 5986              	.LVL508:
 5987              	.LBB2922:
 5988              	.LBB2921:
 5989              	.LBB2915:
 5990              	.LBB2914:
 5991              		.loc 1 338 0
 5992 0064 80090008 		lwz 0,8(9)
 5993 0068 7C0903A6 		mtctr 0
 5994 006c 4E800421 		bctrl
 5995              	.LVL509:
 5996              	.LBE2914:
 5997              	.LBE2915:
 5998              	.LBB2916:
 5999              	.LBB2917:
 6000              		.loc 10 528 0
 6001 0070 387E0004 		addi 3,30,4
 6002 0074 38810008 		addi 4,1,8
 6003 0078 48000001 		bl _ZNSt8_Rb_treeIPN7sigslot12_signal_baseINS0_15single_threadedEEES4_St9_IdentityIS4_ESt4lessIS4_
 6004              	.LVL510:
 6005              	.LBE2917:
 6006              	.LBE2916:
 6007              	.LBB2918:
 6008              	.LBB2919:
 6009              	.LBB2920:
 6010              		.loc 1 343 0
 6011 007c 813E0000 		lwz 9,0(30)
 6012 0080 7FC3F378 		mr 3,30
 6013 0084 8009000C 		lwz 0,12(9)
 6014 0088 7C0903A6 		mtctr 0
 6015 008c 4E800421 		bctrl
 6016              	.LVL511:
 6017              	.LBE2920:
 6018              	.LBE2919:
 6019              	.LBE2918:
 6020              	.LBE2921:
 6021              	.LBE2922:
 6022              		.loc 1 837 0
 6023 0090 807F0008 		lwz 3,8(31)
 6024 0094 2F830000 		cmpwi 7,3,0
 6025 0098 419E0014 		beq- 7,.L456
 6026 009c 81230000 		lwz 9,0(3)
 6027 00a0 80090004 		lwz 0,4(9)
 6028 00a4 7C0903A6 		mtctr 0
 6029 00a8 4E800421 		bctrl
 6030              	.LEHE41:
 6031              	.L456:
 6032              	.LVL512:
 6033              	.LBB2923:
 6034              	.LBB2924:
 6035              		.loc 4 234 0
 6036 00ac 83FF0000 		lwz 31,0(31)
 6037              	.LVL513:
 6038              	.LBE2924:
 6039              	.LBE2923:
 6040              		.loc 1 834 0
 6041 00b0 7F9DF800 		cmpw 7,29,31
 6042 00b4 409EFF90 		bne+ 7,.L491
 6043              	.LBE2940:
 6044              		.loc 3 51 0
 6045 00b8 83FC0004 		lwz 31,4(28)
 6046              	.LVL514:
 6047              	.LBB2941:
 6048              	.LBB2925:
 6049              	.LBB2926:
 6050              		.loc 4 1162 0
 6051 00bc 7F9DF800 		cmpw 7,29,31
 6052 00c0 40BE000C 		bne+ 7,.L493
 6053 00c4 48000024 		b .L454
 6054              	.LVL515:
 6055              	.L486:
 6056              		.loc 4 1163 0
 6057 00c8 7FDFF378 		mr 31,30
 6058              	.LVL516:
 6059              	.L493:
 6060              	.LBB2927:
 6061              	.LBB2928:
 6062              		.loc 11 112 0
 6063 00cc 83DF0000 		lwz 30,0(31)
 6064              	.LVL517:
 6065              	.LBB2929:
 6066              	.LBB2930:
 6067              		.loc 4 1532 0
 6068 00d0 7FE3FB78 		mr 3,31
 6069 00d4 48000001 		bl _ZNSt8__detail15_List_node_base9_M_unhookEv
 6070              	.LVL518:
 6071              	.LBB2931:
 6072              	.LBB2932:
 6073              	.LBB2933:
 6074              		.loc 7 98 0
 6075 00d8 7FE3FB78 		mr 3,31
 6076 00dc 48000001 		bl _ZdlPv
 6077              	.LVL519:
 6078              	.LBE2933:
 6079              	.LBE2932:
 6080              	.LBE2931:
 6081              	.LBE2930:
 6082              	.LBE2929:
 6083              	.LBE2928:
 6084              	.LBE2927:
 6085              		.loc 4 1162 0
 6086 00e0 7F9DF000 		cmpw 7,29,30
 6087 00e4 409EFFE4 		bne+ 7,.L486
 6088              	.LVL520:
 6089              	.L454:
 6090              	.LBE2926:
 6091              	.LBE2925:
 6092              	.LBB2934:
 6093              	.LBB2935:
 6094              	.LBB2936:
 6095              		.loc 1 343 0
 6096 00e8 813C0000 		lwz 9,0(28)
 6097 00ec 7F83E378 		mr 3,28
 6098 00f0 8009000C 		lwz 0,12(9)
 6099 00f4 7C0903A6 		mtctr 0
 6100              	.LEHB42:
 6101 00f8 4E800421 		bctrl
 6102              	.LEHE42:
 6103              	.LVL521:
 6104              	.LBE2936:
 6105              	.LBE2935:
 6106              	.LBE2934:
 6107              	.LBE2941:
 6108              	.LBE2906:
 6109              	.LBB2943:
 6110              	.LBB2944:
 6111              	.LBB2945:
 6112              	.LBB2946:
 6113              	.LBB2947:
 6114              	.LBB2948:
 6115              		.loc 11 70 0
 6116 00fc 807C0004 		lwz 3,4(28)
 6117              	.LVL522:
 6118              		.loc 11 71 0
 6119 0100 7F83E800 		cmpw 7,3,29
 6120 0104 40BE000C 		bne+ 7,.L495
 6121 0108 48000018 		b .L472
 6122              	.LVL523:
 6123              	.L487:
 6124              		.loc 11 74 0
 6125 010c 7FE3FB78 		mr 3,31
 6126              	.LVL524:
 6127              	.L495:
 6128              	.LBB2949:
 6129 0110 83E30000 		lwz 31,0(3)
 6130              	.LVL525:
 6131              	.LBB2950:
 6132              	.LBB2951:
 6133              	.LBB2952:
 6134              		.loc 7 98 0
 6135 0114 48000001 		bl _ZdlPv
 6136              	.LVL526:
 6137              	.LBE2952:
 6138              	.LBE2951:
 6139              	.LBE2950:
 6140              	.LBE2949:
 6141              		.loc 11 71 0
 6142 0118 7F9FE800 		cmpw 7,31,29
 6143 011c 409EFFF0 		bne+ 7,.L487
 6144              	.LVL527:
 6145              	.L472:
 6146              	.LBE2948:
 6147              	.LBE2947:
 6148              	.LBE2946:
 6149              	.LBE2945:
 6150              	.LBE2944:
 6151              	.LBE2943:
 6152              	.LBB2953:
 6153              	.LBB2954:
 6154              	.LBB2955:
 6155              	.LBB2956:
 6156              	.LBB2957:
 6157              	.LBB2958:
 6158              		.loc 1 105 0
 6159 0120 3D200000 		lis 9,_ZTVN7sigslot15single_threadedE+8@ha
 6160              	.LBE2958:
 6161              	.LBE2957:
 6162              	.LBE2956:
 6163              	.LBE2955:
 6164              	.LBE2954:
 6165              	.LBE2953:
 6166              	.LBE2989:
 6167              		.loc 1 826 0
 6168 0124 83A1001C 		lwz 29,28(1)
 6169              	.LVL528:
 6170              	.LBB2990:
 6171              	.LBB2969:
 6172              	.LBB2967:
 6173              	.LBB2965:
 6174              	.LBB2963:
 6175              	.LBB2961:
 6176              	.LBB2959:
 6177              		.loc 1 105 0
 6178 0128 38090008 		la 0,_ZTVN7sigslot15single_threadedE+8@l(9)
 6179              	.LBE2959:
 6180              	.LBE2961:
 6181              	.LBE2963:
 6182              	.LBE2965:
 6183              	.LBE2967:
 6184              	.LBE2969:
 6185              	.LBE2990:
 6186              		.loc 1 826 0
 6187 012c 83C10020 		lwz 30,32(1)
 6188              	.LBB2991:
 6189              	.LBB2970:
 6190              	.LBB2968:
 6191              	.LBB2966:
 6192              	.LBB2964:
 6193              	.LBB2962:
 6194              	.LBB2960:
 6195              		.loc 1 105 0
 6196 0130 901C0000 		stw 0,0(28)
 6197              	.LBE2960:
 6198              	.LBE2962:
 6199              	.LBE2964:
 6200              	.LBE2966:
 6201              	.LBE2968:
 6202              	.LBE2970:
 6203              	.LBE2991:
 6204              		.loc 1 826 0
 6205 0134 8001002C 		lwz 0,44(1)
 6206 0138 83810018 		lwz 28,24(1)
 6207              	.LVL529:
 6208 013c 7C0803A6 		mtlr 0
 6209 0140 83E10024 		lwz 31,36(1)
 6210 0144 38210028 		addi 1,1,40
 6211              		.cfi_remember_state
 6212              	.LCFI62:
 6213              		.cfi_def_cfa_offset 0
 6214              		.cfi_restore 31
 6215              		.cfi_restore 30
 6216              		.cfi_restore 29
 6217              		.cfi_restore 28
 6218 0148 4E800020 		blr
 6219              	.LVL530:
 6220              	.L489:
 6221              	.LCFI63:
 6222              		.cfi_restore_state
 6223 014c 7C7F1B78 		mr 31,3
 6224              	.L464:
 6225              	.LVL531:
 6226              	.LBB2992:
 6227              	.LBB2971:
 6228              	.LBB2972:
 6229              	.LBB2973:
 6230              	.LBB2974:
 6231              	.LBB2975:
 6232              	.LBB2976:
 6233              		.loc 11 70 0
 6234 0150 807C0004 		lwz 3,4(28)
 6235              	.LVL532:
 6236              		.loc 11 71 0
 6237 0154 7F83E800 		cmpw 7,3,29
 6238 0158 419E0038 		beq- 7,.L483
 6239              	.LVL533:
 6240              	.L496:
 6241              	.LBB2977:
 6242              		.loc 11 74 0
 6243 015c 83C30000 		lwz 30,0(3)
 6244              	.LVL534:
 6245              	.LBB2978:
 6246              	.LBB2979:
 6247              	.LBB2980:
 6248              		.loc 7 98 0
 6249 0160 48000001 		bl _ZdlPv
 6250              	.LVL535:
 6251              	.LBE2980:
 6252              	.LBE2979:
 6253              	.LBE2978:
 6254              	.LBE2977:
 6255              		.loc 11 71 0
 6256 0164 7F9EE800 		cmpw 7,30,29
 6257 0168 419E0028 		beq- 7,.L483
 6258              		.loc 11 74 0
 6259 016c 7FC3F378 		mr 3,30
 6260 0170 4BFFFFEC 		b .L496
 6261              	.LVL536:
 6262              	.L490:
 6263              	.LBE2976:
 6264              	.LBE2975:
 6265              	.LBE2974:
 6266              	.LBE2973:
 6267              	.LBE2972:
 6268              	.LBE2971:
 6269              	.LBB2981:
 6270              	.LBB2942:
 6271              	.LBB2937:
 6272              	.LBB2938:
 6273              	.LBB2939:
 6274              		.loc 1 343 0
 6275 0174 813C0000 		lwz 9,0(28)
 6276 0178 7C7F1B78 		mr 31,3
 6277              	.LVL537:
 6278 017c 7F83E378 		mr 3,28
 6279 0180 8009000C 		lwz 0,12(9)
 6280 0184 7C0903A6 		mtctr 0
 6281 0188 4E800421 		bctrl
 6282 018c 4BFFFFC4 		b .L464
 6283              	.LVL538:
 6284              	.L483:
 6285              	.LBE2939:
 6286              	.LBE2938:
 6287              	.LBE2937:
 6288              	.LBE2942:
 6289              	.LBE2981:
 6290              	.LBB2982:
 6291              	.LBB2983:
 6292              	.LBB2984:
 6293              	.LBB2985:
 6294              	.LBB2986:
 6295              	.LBB2987:
 6296              		.loc 1 105 0
 6297 0190 3D200000 		lis 9,_ZTVN7sigslot15single_threadedE+8@ha
 6298 0194 7FE3FB78 		mr 3,31
 6299 0198 38090008 		la 0,_ZTVN7sigslot15single_threadedE+8@l(9)
 6300 019c 901C0000 		stw 0,0(28)
 6301              	.LEHB43:
 6302 01a0 48000001 		bl _Unwind_Resume
 6303              	.LEHE43:
 6304              	.LBE2987:
 6305              	.LBE2986:
 6306              	.LBE2985:
 6307              	.LBE2984:
 6308              	.LBE2983:
 6309              	.LBE2982:
 6310              	.LBE2992:
 6311              		.cfi_endproc
 6312              	.LFE1509:
 6313              		.section	.gcc_except_table
 6314              	.LLSDA1509:
 6315 00f0 FF       		.byte	0xff
 6316 00f1 FF       		.byte	0xff
 6317 00f2 01       		.byte	0x1
 6318 00f3 15       		.uleb128 .LLSDACSE1509-.LLSDACSB1509
 6319              	.LLSDACSB1509:
 6320 00f4 30       		.uleb128 .LEHB40-.LFB1509
 6321 00f5 04       		.uleb128 .LEHE40-.LEHB40
 6322 00f6 CC02     		.uleb128 .L489-.LFB1509
 6323 00f8 00       		.uleb128 0
 6324 00f9 54       		.uleb128 .LEHB41-.LFB1509
 6325 00fa 58       		.uleb128 .LEHE41-.LEHB41
 6326 00fb F402     		.uleb128 .L490-.LFB1509
 6327 00fd 00       		.uleb128 0
 6328 00fe F801     		.uleb128 .LEHB42-.LFB1509
 6329 0100 04       		.uleb128 .LEHE42-.LEHB42
 6330 0101 CC02     		.uleb128 .L489-.LFB1509
 6331 0103 00       		.uleb128 0
 6332 0104 A003     		.uleb128 .LEHB43-.LFB1509
 6333 0106 04       		.uleb128 .LEHE43-.LEHB43
 6334 0107 00       		.uleb128 0
 6335 0108 00       		.uleb128 0
 6336              	.LLSDACSE1509:
 6337              		.section	.text._ZN7sigslot13_signal_base2IP10GuiElementbNS_15single_threadedEED2Ev,"axG",@progbits
 6338              		.size	_ZN7sigslot13_signal_base2IP10GuiElementbNS_15single_threadedEED2Ev, .-_ZN7sigslot13_signal_
 6339              		.section	.text._ZN7sigslot7signal2IP10GuiElementbNS_15single_threadedEED2Ev,"axG",@progbits,_ZN7si
 6340              		.align 2
 6341              		.weak	_ZN7sigslot7signal2IP10GuiElementbNS_15single_threadedEED2Ev
 6342              		.type	_ZN7sigslot7signal2IP10GuiElementbNS_15single_threadedEED2Ev, @function
 6343              	_ZN7sigslot7signal2IP10GuiElementbNS_15single_threadedEED2Ev:
 6344              	.LFB1479:
 6345              		.loc 1 2235 0
 6346              		.cfi_startproc
 6347              		.cfi_personality 0,__gxx_personality_v0
 6348              		.cfi_lsda 0,.LLSDA1479
 6349              	.LVL539:
 6350 0000 7C0802A6 		mflr 0
 6351 0004 9421FFD8 		stwu 1,-40(1)
 6352              	.LCFI64:
 6353              		.cfi_def_cfa_offset 40
 6354              		.cfi_register 65, 0
 6355              	.LBB3090:
 6356              	.LBB3091:
 6357              	.LBB3092:
 6358              	.LBB3093:
 6359              		.loc 1 826 0
 6360 0008 3D200000 		lis 9,_ZTVN7sigslot13_signal_base2IP10GuiElementbNS_15single_threadedEEE+8@ha
 6361              	.LBE3093:
 6362              	.LBE3092:
 6363              	.LBE3091:
 6364              	.LBE3090:
 6365              		.loc 1 2235 0
 6366 000c 93810018 		stw 28,24(1)
 6367 0010 7C7C1B78 		mr 28,3
 6368              		.cfi_offset 28, -16
 6369              	.LVL540:
 6370 0014 9001002C 		stw 0,44(1)
 6371              	.LBB3191:
 6372              	.LBB3186:
 6373              	.LBB3181:
 6374              	.LBB3176:
 6375              		.loc 1 826 0
 6376 0018 38090008 		la 0,_ZTVN7sigslot13_signal_base2IP10GuiElementbNS_15single_threadedEEE+8@l(9)
 6377              		.cfi_offset 65, 4
 6378              	.LBE3176:
 6379              	.LBE3181:
 6380              	.LBE3186:
 6381              	.LBE3191:
 6382              		.loc 1 2235 0
 6383 001c 93A1001C 		stw 29,28(1)
 6384 0020 3BA30004 		addi 29,3,4
 6385              		.cfi_offset 29, -12
 6386 0024 93C10020 		stw 30,32(1)
 6387 0028 93E10024 		stw 31,36(1)
 6388              	.LBB3192:
 6389              	.LBB3187:
 6390              	.LBB3182:
 6391              	.LBB3177:
 6392              		.loc 1 826 0
 6393 002c 90030000 		stw 0,0(3)
 6394              	.LVL541:
 6395              	.LEHB44:
 6396              	.LBB3094:
 6397              	.LBB3095:
 6398              	.LBB3096:
 6399              	.LBB3097:
 6400              		.loc 1 338 0
 6401              		.cfi_offset 31, -4
 6402              		.cfi_offset 30, -8
 6403 0030 48000001 		bl _ZN7sigslot15single_threaded4lockEv
 6404              	.LEHE44:
 6405              	.LVL542:
 6406              	.LBE3097:
 6407              	.LBE3096:
 6408              	.LBE3095:
 6409              		.loc 3 51 0
 6410 0034 7F9DE378 		mr 29,28
 6411              	.LVL543:
 6412 0038 87FD0004 		lwzu 31,4(29)
 6413              	.LVL544:
 6414              	.LBB3128:
 6415              		.loc 1 834 0
 6416 003c 7F9FE800 		cmpw 7,31,29
 6417 0040 419E00A8 		beq- 7,.L498
 6418              	.LVL545:
 6419              	.L536:
 6420              		.loc 1 836 0
 6421 0044 807F0008 		lwz 3,8(31)
 6422 0048 81230000 		lwz 9,0(3)
 6423 004c 80090008 		lwz 0,8(9)
 6424 0050 7C0903A6 		mtctr 0
 6425              	.LEHB45:
 6426 0054 4E800421 		bctrl
 6427              	.LBB3098:
 6428              	.LBB3099:
 6429              	.LBB3100:
 6430              	.LBB3101:
 6431              		.loc 1 338 0
 6432 0058 81230000 		lwz 9,0(3)
 6433              	.LBE3101:
 6434              	.LBE3100:
 6435              	.LBE3099:
 6436              	.LBE3098:
 6437              		.loc 1 836 0
 6438 005c 7C7E1B78 		mr 30,3
 6439              	.LVL546:
 6440 0060 93810008 		stw 28,8(1)
 6441              	.LVL547:
 6442              	.LBB3110:
 6443              	.LBB3109:
 6444              	.LBB3103:
 6445              	.LBB3102:
 6446              		.loc 1 338 0
 6447 0064 80090008 		lwz 0,8(9)
 6448 0068 7C0903A6 		mtctr 0
 6449 006c 4E800421 		bctrl
 6450              	.LVL548:
 6451              	.LBE3102:
 6452              	.LBE3103:
 6453              	.LBB3104:
 6454              	.LBB3105:
 6455              		.loc 10 528 0
 6456 0070 387E0004 		addi 3,30,4
 6457 0074 38810008 		addi 4,1,8
 6458 0078 48000001 		bl _ZNSt8_Rb_treeIPN7sigslot12_signal_baseINS0_15single_threadedEEES4_St9_IdentityIS4_ESt4lessIS4_
 6459              	.LVL549:
 6460              	.LBE3105:
 6461              	.LBE3104:
 6462              	.LBB3106:
 6463              	.LBB3107:
 6464              	.LBB3108:
 6465              		.loc 1 343 0
 6466 007c 813E0000 		lwz 9,0(30)
 6467 0080 7FC3F378 		mr 3,30
 6468 0084 8009000C 		lwz 0,12(9)
 6469 0088 7C0903A6 		mtctr 0
 6470 008c 4E800421 		bctrl
 6471              	.LVL550:
 6472              	.LBE3108:
 6473              	.LBE3107:
 6474              	.LBE3106:
 6475              	.LBE3109:
 6476              	.LBE3110:
 6477              		.loc 1 837 0
 6478 0090 807F0008 		lwz 3,8(31)
 6479 0094 2F830000 		cmpwi 7,3,0
 6480 0098 419E0014 		beq- 7,.L500
 6481 009c 81230000 		lwz 9,0(3)
 6482 00a0 80090004 		lwz 0,4(9)
 6483 00a4 7C0903A6 		mtctr 0
 6484 00a8 4E800421 		bctrl
 6485              	.LEHE45:
 6486              	.L500:
 6487              	.LVL551:
 6488              	.LBB3111:
 6489              	.LBB3112:
 6490              		.loc 4 234 0
 6491 00ac 83FF0000 		lwz 31,0(31)
 6492              	.LVL552:
 6493              	.LBE3112:
 6494              	.LBE3111:
 6495              		.loc 1 834 0
 6496 00b0 7F9DF800 		cmpw 7,29,31
 6497 00b4 409EFF90 		bne+ 7,.L536
 6498              	.LBE3128:
 6499              		.loc 3 51 0
 6500 00b8 83FC0004 		lwz 31,4(28)
 6501              	.LVL553:
 6502              	.LBB3129:
 6503              	.LBB3113:
 6504              	.LBB3114:
 6505              		.loc 4 1162 0
 6506 00bc 7F9DF800 		cmpw 7,29,31
 6507 00c0 40BE000C 		bne+ 7,.L538
 6508 00c4 48000024 		b .L498
 6509              	.LVL554:
 6510              	.L531:
 6511              		.loc 4 1163 0
 6512 00c8 7FDFF378 		mr 31,30
 6513              	.LVL555:
 6514              	.L538:
 6515              	.LBB3115:
 6516              	.LBB3116:
 6517              		.loc 11 112 0
 6518 00cc 83DF0000 		lwz 30,0(31)
 6519              	.LVL556:
 6520              	.LBB3117:
 6521              	.LBB3118:
 6522              		.loc 4 1532 0
 6523 00d0 7FE3FB78 		mr 3,31
 6524 00d4 48000001 		bl _ZNSt8__detail15_List_node_base9_M_unhookEv
 6525              	.LVL557:
 6526              	.LBB3119:
 6527              	.LBB3120:
 6528              	.LBB3121:
 6529              		.loc 7 98 0
 6530 00d8 7FE3FB78 		mr 3,31
 6531 00dc 48000001 		bl _ZdlPv
 6532              	.LVL558:
 6533              	.LBE3121:
 6534              	.LBE3120:
 6535              	.LBE3119:
 6536              	.LBE3118:
 6537              	.LBE3117:
 6538              	.LBE3116:
 6539              	.LBE3115:
 6540              		.loc 4 1162 0
 6541 00e0 7F9DF000 		cmpw 7,29,30
 6542 00e4 409EFFE4 		bne+ 7,.L531
 6543              	.LVL559:
 6544              	.L498:
 6545              	.LBE3114:
 6546              	.LBE3113:
 6547              	.LBB3122:
 6548              	.LBB3123:
 6549              	.LBB3124:
 6550              		.loc 1 343 0
 6551 00e8 813C0000 		lwz 9,0(28)
 6552 00ec 7F83E378 		mr 3,28
 6553 00f0 8009000C 		lwz 0,12(9)
 6554 00f4 7C0903A6 		mtctr 0
 6555              	.LEHB46:
 6556 00f8 4E800421 		bctrl
 6557              	.LEHE46:
 6558              	.LBE3124:
 6559              	.LBE3123:
 6560              	.LBE3122:
 6561              	.LBE3129:
 6562              	.LBE3094:
 6563              	.LBB3131:
 6564              	.LBB3132:
 6565              	.LBB3133:
 6566              	.LBB3134:
 6567              	.LBB3135:
 6568              	.LBB3136:
 6569              		.loc 11 70 0
 6570 00fc 807C0004 		lwz 3,4(28)
 6571              	.LVL560:
 6572              		.loc 11 71 0
 6573 0100 7F83E800 		cmpw 7,3,29
 6574 0104 40BE000C 		bne+ 7,.L540
 6575 0108 48000018 		b .L516
 6576              	.LVL561:
 6577              	.L532:
 6578              		.loc 11 74 0
 6579 010c 7FE3FB78 		mr 3,31
 6580              	.LVL562:
 6581              	.L540:
 6582              	.LBB3137:
 6583 0110 83E30000 		lwz 31,0(3)
 6584              	.LVL563:
 6585              	.LBB3138:
 6586              	.LBB3139:
 6587              	.LBB3140:
 6588              		.loc 7 98 0
 6589 0114 48000001 		bl _ZdlPv
 6590              	.LVL564:
 6591              	.LBE3140:
 6592              	.LBE3139:
 6593              	.LBE3138:
 6594              	.LBE3137:
 6595              		.loc 11 71 0
 6596 0118 7F9FE800 		cmpw 7,31,29
 6597 011c 409EFFF0 		bne+ 7,.L532
 6598              	.LVL565:
 6599              	.L516:
 6600              	.LBE3136:
 6601              	.LBE3135:
 6602              	.LBE3134:
 6603              	.LBE3133:
 6604              	.LBE3132:
 6605              	.LBE3131:
 6606              	.LBB3141:
 6607              	.LBB3142:
 6608              	.LBB3143:
 6609              	.LBB3144:
 6610              	.LBB3145:
 6611              	.LBB3146:
 6612              		.loc 1 105 0
 6613 0120 3D200000 		lis 9,_ZTVN7sigslot15single_threadedE+8@ha
 6614              	.LBE3146:
 6615              	.LBE3145:
 6616              	.LBE3144:
 6617              	.LBE3143:
 6618              	.LBE3142:
 6619              	.LBE3141:
 6620              	.LBE3177:
 6621              	.LBE3182:
 6622              	.LBE3187:
 6623              	.LBE3192:
 6624              		.loc 1 2238 0
 6625 0124 83A1001C 		lwz 29,28(1)
 6626              	.LVL566:
 6627              	.LBB3193:
 6628              	.LBB3188:
 6629              	.LBB3183:
 6630              	.LBB3178:
 6631              	.LBB3157:
 6632              	.LBB3155:
 6633              	.LBB3153:
 6634              	.LBB3151:
 6635              	.LBB3149:
 6636              	.LBB3147:
 6637              		.loc 1 105 0
 6638 0128 38090008 		la 0,_ZTVN7sigslot15single_threadedE+8@l(9)
 6639              	.LBE3147:
 6640              	.LBE3149:
 6641              	.LBE3151:
 6642              	.LBE3153:
 6643              	.LBE3155:
 6644              	.LBE3157:
 6645              	.LBE3178:
 6646              	.LBE3183:
 6647              	.LBE3188:
 6648              	.LBE3193:
 6649              		.loc 1 2238 0
 6650 012c 83C10020 		lwz 30,32(1)
 6651              	.LBB3194:
 6652              	.LBB3189:
 6653              	.LBB3184:
 6654              	.LBB3179:
 6655              	.LBB3158:
 6656              	.LBB3156:
 6657              	.LBB3154:
 6658              	.LBB3152:
 6659              	.LBB3150:
 6660              	.LBB3148:
 6661              		.loc 1 105 0
 6662 0130 901C0000 		stw 0,0(28)
 6663              	.LBE3148:
 6664              	.LBE3150:
 6665              	.LBE3152:
 6666              	.LBE3154:
 6667              	.LBE3156:
 6668              	.LBE3158:
 6669              	.LBE3179:
 6670              	.LBE3184:
 6671              	.LBE3189:
 6672              	.LBE3194:
 6673              		.loc 1 2238 0
 6674 0134 8001002C 		lwz 0,44(1)
 6675 0138 83810018 		lwz 28,24(1)
 6676              	.LVL567:
 6677 013c 7C0803A6 		mtlr 0
 6678 0140 83E10024 		lwz 31,36(1)
 6679 0144 38210028 		addi 1,1,40
 6680              		.cfi_remember_state
 6681              	.LCFI65:
 6682              		.cfi_def_cfa_offset 0
 6683              		.cfi_restore 31
 6684              		.cfi_restore 30
 6685              		.cfi_restore 29
 6686              		.cfi_restore 28
 6687 0148 4E800020 		blr
 6688              	.LVL568:
 6689              	.L534:
 6690              	.LCFI66:
 6691              		.cfi_restore_state
 6692 014c 7C7F1B78 		mr 31,3
 6693              	.L508:
 6694              	.LBB3195:
 6695              	.LBB3190:
 6696              	.LBB3185:
 6697              	.LBB3180:
 6698              	.LBB3159:
 6699              	.LBB3160:
 6700              	.LBB3161:
 6701              	.LBB3162:
 6702              	.LBB3163:
 6703              	.LBB3164:
 6704              		.loc 11 70 0
 6705 0150 807C0004 		lwz 3,4(28)
 6706              	.LVL569:
 6707              		.loc 11 71 0
 6708 0154 7F83E800 		cmpw 7,3,29
 6709 0158 419E0038 		beq- 7,.L525
 6710              	.LVL570:
 6711              	.L541:
 6712              	.LBB3165:
 6713              		.loc 11 74 0
 6714 015c 83C30000 		lwz 30,0(3)
 6715              	.LVL571:
 6716              	.LBB3166:
 6717              	.LBB3167:
 6718              	.LBB3168:
 6719              		.loc 7 98 0
 6720 0160 48000001 		bl _ZdlPv
 6721              	.LVL572:
 6722              	.LBE3168:
 6723              	.LBE3167:
 6724              	.LBE3166:
 6725              	.LBE3165:
 6726              		.loc 11 71 0
 6727 0164 7F9EE800 		cmpw 7,30,29
 6728 0168 419E0028 		beq- 7,.L525
 6729              		.loc 11 74 0
 6730 016c 7FC3F378 		mr 3,30
 6731 0170 4BFFFFEC 		b .L541
 6732              	.LVL573:
 6733              	.L535:
 6734              	.LBE3164:
 6735              	.LBE3163:
 6736              	.LBE3162:
 6737              	.LBE3161:
 6738              	.LBE3160:
 6739              	.LBE3159:
 6740              	.LBB3169:
 6741              	.LBB3130:
 6742              	.LBB3125:
 6743              	.LBB3126:
 6744              	.LBB3127:
 6745              		.loc 1 343 0
 6746 0174 813C0000 		lwz 9,0(28)
 6747 0178 7C7F1B78 		mr 31,3
 6748              	.LVL574:
 6749 017c 7F83E378 		mr 3,28
 6750 0180 8009000C 		lwz 0,12(9)
 6751 0184 7C0903A6 		mtctr 0
 6752 0188 4E800421 		bctrl
 6753 018c 4BFFFFC4 		b .L508
 6754              	.LVL575:
 6755              	.L525:
 6756              	.LBE3127:
 6757              	.LBE3126:
 6758              	.LBE3125:
 6759              	.LBE3130:
 6760              	.LBE3169:
 6761              	.LBB3170:
 6762              	.LBB3171:
 6763              	.LBB3172:
 6764              	.LBB3173:
 6765              	.LBB3174:
 6766              	.LBB3175:
 6767              		.loc 1 105 0
 6768 0190 3D200000 		lis 9,_ZTVN7sigslot15single_threadedE+8@ha
 6769 0194 7FE3FB78 		mr 3,31
 6770 0198 38090008 		la 0,_ZTVN7sigslot15single_threadedE+8@l(9)
 6771 019c 901C0000 		stw 0,0(28)
 6772              	.LEHB47:
 6773 01a0 48000001 		bl _Unwind_Resume
 6774              	.LEHE47:
 6775              	.LBE3175:
 6776              	.LBE3174:
 6777              	.LBE3173:
 6778              	.LBE3172:
 6779              	.LBE3171:
 6780              	.LBE3170:
 6781              	.LBE3180:
 6782              	.LBE3185:
 6783              	.LBE3190:
 6784              	.LBE3195:
 6785              		.cfi_endproc
 6786              	.LFE1479:
 6787              		.section	.gcc_except_table
 6788              	.LLSDA1479:
 6789 0109 FF       		.byte	0xff
 6790 010a FF       		.byte	0xff
 6791 010b 01       		.byte	0x1
 6792 010c 15       		.uleb128 .LLSDACSE1479-.LLSDACSB1479
 6793              	.LLSDACSB1479:
 6794 010d 30       		.uleb128 .LEHB44-.LFB1479
 6795 010e 04       		.uleb128 .LEHE44-.LEHB44
 6796 010f CC02     		.uleb128 .L534-.LFB1479
 6797 0111 00       		.uleb128 0
 6798 0112 54       		.uleb128 .LEHB45-.LFB1479
 6799 0113 58       		.uleb128 .LEHE45-.LEHB45
 6800 0114 F402     		.uleb128 .L535-.LFB1479
 6801 0116 00       		.uleb128 0
 6802 0117 F801     		.uleb128 .LEHB46-.LFB1479
 6803 0119 04       		.uleb128 .LEHE46-.LEHB46
 6804 011a CC02     		.uleb128 .L534-.LFB1479
 6805 011c 00       		.uleb128 0
 6806 011d A003     		.uleb128 .LEHB47-.LFB1479
 6807 011f 04       		.uleb128 .LEHE47-.LEHB47
 6808 0120 00       		.uleb128 0
 6809 0121 00       		.uleb128 0
 6810              	.LLSDACSE1479:
 6811              		.section	.text._ZN7sigslot7signal2IP10GuiElementbNS_15single_threadedEED2Ev,"axG",@progbits,_ZN7si
 6812              		.size	_ZN7sigslot7signal2IP10GuiElementbNS_15single_threadedEED2Ev, .-_ZN7sigslot7signal2IP10GuiEl
 6813              		.section	.text._ZN8GuiCrossD2Ev,"axG",@progbits,_ZN8GuiCrossD5Ev,comdat
 6814              		.align 2
 6815              		.weak	_ZN8GuiCrossD2Ev
 6816              		.type	_ZN8GuiCrossD2Ev, @function
 6817              	_ZN8GuiCrossD2Ev:
 6818              	.LFB1709:
 6819              		.loc 6 29 0
 6820              		.cfi_startproc
 6821              		.cfi_personality 0,__gxx_personality_v0
 6822              		.cfi_lsda 0,.LLSDA1709
 6823              	.LVL576:
 6824 0000 7C0802A6 		mflr 0
 6825 0004 9421FFD0 		stwu 1,-48(1)
 6826              	.LCFI67:
 6827              		.cfi_def_cfa_offset 48
 6828              		.cfi_register 65, 0
 6829              	.LBB3399:
 6830              	.LBB3400:
 6831              	.LBB3401:
 6832              	.LBB3402:
 6833              		.loc 2 89 0
 6834 0008 3D200000 		lis 9,_ZTV10GuiElement+8@ha
 6835              	.LBE3402:
 6836              	.LBE3401:
 6837              	.LBE3400:
 6838              	.LBE3399:
 6839              		.loc 6 29 0
 6840 000c 9361001C 		stw 27,28(1)
 6841              	.LBB3679:
 6842              	.LBB3674:
 6843              	.LBB3669:
 6844              	.LBB3664:
 6845              	.LBB3403:
 6846              	.LBB3404:
 6847              	.LBB3405:
 6848              		.loc 1 2305 0
 6849 0010 3B630010 		addi 27,3,16
 6850              		.cfi_offset 27, -20
 6851              	.LBE3405:
 6852              	.LBE3404:
 6853              	.LBE3403:
 6854              	.LBE3664:
 6855              	.LBE3669:
 6856              	.LBE3674:
 6857              	.LBE3679:
 6858              		.loc 6 29 0
 6859 0014 90010034 		stw 0,52(1)
 6860              	.LBB3680:
 6861              	.LBB3675:
 6862              	.LBB3670:
 6863              	.LBB3665:
 6864              		.loc 2 89 0
 6865 0018 38090008 		la 0,_ZTV10GuiElement+8@l(9)
 6866              		.cfi_offset 65, 4
 6867              	.LBB3539:
 6868              	.LBB3530:
 6869              	.LBB3521:
 6870              	.LBB3406:
 6871              	.LBB3407:
 6872              	.LBB3408:
 6873              		.loc 1 946 0
 6874 001c 3D200000 		lis 9,_ZTVN7sigslot13_signal_base3IP10GuiElementiiNS_15single_threadedEEE+8@ha
 6875              	.LBE3408:
 6876              	.LBE3407:
 6877              	.LBE3406:
 6878              	.LBE3521:
 6879              	.LBE3530:
 6880              	.LBE3539:
 6881              	.LBE3665:
 6882              	.LBE3670:
 6883              	.LBE3675:
 6884              	.LBE3680:
 6885              		.loc 6 29 0
 6886 0020 93810020 		stw 28,32(1)
 6887 0024 93A10024 		stw 29,36(1)
 6888 0028 7C7C1B78 		mr 28,3
 6889              		.cfi_offset 29, -12
 6890              		.cfi_offset 28, -16
 6891              	.LVL577:
 6892 002c 93410018 		stw 26,24(1)
 6893 0030 3BBC0014 		addi 29,28,20
 6894 0034 93C10028 		stw 30,40(1)
 6895 0038 93E1002C 		stw 31,44(1)
 6896              	.LBB3681:
 6897              	.LBB3676:
 6898              	.LBB3671:
 6899              	.LBB3666:
 6900              		.loc 2 89 0
 6901 003c 90030000 		stw 0,0(3)
 6902              	.LVL578:
 6903              	.LBB3540:
 6904              	.LBB3531:
 6905              	.LBB3522:
 6906              	.LBB3513:
 6907              	.LBB3505:
 6908              	.LBB3497:
 6909              		.loc 1 946 0
 6910 0040 38090008 		la 0,_ZTVN7sigslot13_signal_base3IP10GuiElementiiNS_15single_threadedEEE+8@l(9)
 6911              	.LBB3409:
 6912              	.LBB3410:
 6913              	.LBB3411:
 6914              	.LBB3412:
 6915              		.loc 1 338 0
 6916 0044 3D200000 		lis 9,_ZN7sigslot15single_threaded4lockEv@ha
 6917              	.LBE3412:
 6918              	.LBE3411:
 6919              	.LBE3410:
 6920              	.LBE3409:
 6921              		.loc 1 946 0
 6922 0048 90030010 		stw 0,16(3)
 6923              	.LVL579:
 6924              	.LBB3445:
 6925              	.LBB3441:
 6926              	.LBB3414:
 6927              	.LBB3413:
 6928              		.loc 1 338 0
 6929 004c 39290000 		la 9,_ZN7sigslot15single_threaded4lockEv@l(9)
 6930 0050 7F63DB78 		mr 3,27
 6931              	.LVL580:
 6932 0054 7D2903A6 		mtctr 9
 6933              	.LEHB48:
 6934              		.cfi_offset 31, -4
 6935              		.cfi_offset 30, -8
 6936              		.cfi_offset 26, -24
 6937 0058 4E800421 		bctrl
 6938              	.LEHE48:
 6939              	.LBE3413:
 6940              	.LBE3414:
 6941              	.LBE3441:
 6942              		.loc 3 51 0
 6943 005c 7F9DE378 		mr 29,28
 6944              	.LVL581:
 6945 0060 87FD0014 		lwzu 31,20(29)
 6946              	.LVL582:
 6947              	.LBB3442:
 6948              		.loc 1 954 0
 6949 0064 7F9FE800 		cmpw 7,31,29
 6950 0068 419E00A8 		beq- 7,.L544
 6951              	.LVL583:
 6952              	.L623:
 6953              		.loc 1 956 0
 6954 006c 807F0008 		lwz 3,8(31)
 6955 0070 81230000 		lwz 9,0(3)
 6956 0074 80090008 		lwz 0,8(9)
 6957 0078 7C0903A6 		mtctr 0
 6958              	.LEHB49:
 6959 007c 4E800421 		bctrl
 6960 0080 93610008 		stw 27,8(1)
 6961 0084 7C7E1B78 		mr 30,3
 6962              	.LVL584:
 6963              	.LBB3415:
 6964              	.LBB3416:
 6965              	.LBB3417:
 6966              	.LBB3418:
 6967              		.loc 1 338 0
 6968 0088 81230000 		lwz 9,0(3)
 6969 008c 80090008 		lwz 0,8(9)
 6970 0090 7C0903A6 		mtctr 0
 6971 0094 4E800421 		bctrl
 6972              	.LVL585:
 6973              	.LBE3418:
 6974              	.LBE3417:
 6975              	.LBB3419:
 6976              	.LBB3420:
 6977              		.loc 10 528 0
 6978 0098 387E0004 		addi 3,30,4
 6979 009c 38810008 		addi 4,1,8
 6980 00a0 48000001 		bl _ZNSt8_Rb_treeIPN7sigslot12_signal_baseINS0_15single_threadedEEES4_St9_IdentityIS4_ESt4lessIS4_
 6981              	.LVL586:
 6982              	.LBE3420:
 6983              	.LBE3419:
 6984              	.LBB3421:
 6985              	.LBB3422:
 6986              	.LBB3423:
 6987              		.loc 1 343 0
 6988 00a4 813E0000 		lwz 9,0(30)
 6989 00a8 7FC3F378 		mr 3,30
 6990 00ac 8009000C 		lwz 0,12(9)
 6991 00b0 7C0903A6 		mtctr 0
 6992 00b4 4E800421 		bctrl
 6993              	.LVL587:
 6994              	.LBE3423:
 6995              	.LBE3422:
 6996              	.LBE3421:
 6997              	.LBE3416:
 6998              	.LBE3415:
 6999              		.loc 1 957 0
 7000 00b8 807F0008 		lwz 3,8(31)
 7001 00bc 2F830000 		cmpwi 7,3,0
 7002 00c0 419E0014 		beq- 7,.L546
 7003 00c4 81230000 		lwz 9,0(3)
 7004 00c8 80090004 		lwz 0,4(9)
 7005 00cc 7C0903A6 		mtctr 0
 7006 00d0 4E800421 		bctrl
 7007              	.LEHE49:
 7008              	.L546:
 7009              	.LVL588:
 7010              	.LBB3424:
 7011              	.LBB3425:
 7012              		.loc 4 234 0
 7013 00d4 83FF0000 		lwz 31,0(31)
 7014              	.LVL589:
 7015              	.LBE3425:
 7016              	.LBE3424:
 7017              		.loc 1 954 0
 7018 00d8 7F9DF800 		cmpw 7,29,31
 7019 00dc 409EFF90 		bne+ 7,.L623
 7020              	.LBE3442:
 7021              		.loc 3 51 0
 7022 00e0 83FC0014 		lwz 31,20(28)
 7023              	.LVL590:
 7024              	.LBB3443:
 7025              	.LBB3426:
 7026              	.LBB3427:
 7027              		.loc 4 1162 0
 7028 00e4 7F9DF800 		cmpw 7,29,31
 7029 00e8 40BE000C 		bne+ 7,.L626
 7030 00ec 48000024 		b .L544
 7031              	.LVL591:
 7032              	.L612:
 7033              		.loc 4 1163 0
 7034 00f0 7FDFF378 		mr 31,30
 7035              	.LVL592:
 7036              	.L626:
 7037              	.LBB3428:
 7038              	.LBB3429:
 7039              		.loc 11 112 0
 7040 00f4 83DF0000 		lwz 30,0(31)
 7041              	.LVL593:
 7042              	.LBB3430:
 7043              	.LBB3431:
 7044              		.loc 4 1532 0
 7045 00f8 7FE3FB78 		mr 3,31
 7046 00fc 48000001 		bl _ZNSt8__detail15_List_node_base9_M_unhookEv
 7047              	.LVL594:
 7048              	.LBB3432:
 7049              	.LBB3433:
 7050              	.LBB3434:
 7051              		.loc 7 98 0
 7052 0100 7FE3FB78 		mr 3,31
 7053 0104 48000001 		bl _ZdlPv
 7054              	.LVL595:
 7055              	.LBE3434:
 7056              	.LBE3433:
 7057              	.LBE3432:
 7058              	.LBE3431:
 7059              	.LBE3430:
 7060              	.LBE3429:
 7061              	.LBE3428:
 7062              		.loc 4 1162 0
 7063 0108 7F9DF000 		cmpw 7,29,30
 7064 010c 409EFFE4 		bne+ 7,.L612
 7065              	.LVL596:
 7066              	.L544:
 7067              	.LBE3427:
 7068              	.LBE3426:
 7069              	.LBB3435:
 7070              	.LBB3436:
 7071              	.LBB3437:
 7072              		.loc 1 343 0
 7073 0110 813C0010 		lwz 9,16(28)
 7074 0114 7F63DB78 		mr 3,27
 7075 0118 8009000C 		lwz 0,12(9)
 7076 011c 7C0903A6 		mtctr 0
 7077              	.LEHB50:
 7078 0120 4E800421 		bctrl
 7079              	.LEHE50:
 7080              	.LBE3437:
 7081              	.LBE3436:
 7082              	.LBE3435:
 7083              	.LBE3443:
 7084              	.LBE3445:
 7085              	.LBB3446:
 7086              	.LBB3447:
 7087              	.LBB3448:
 7088              	.LBB3449:
 7089              	.LBB3450:
 7090              	.LBB3451:
 7091              		.loc 11 70 0
 7092 0124 807C0014 		lwz 3,20(28)
 7093              	.LVL597:
 7094              		.loc 11 71 0
 7095 0128 7F83E800 		cmpw 7,3,29
 7096 012c 40BE000C 		bne+ 7,.L628
 7097 0130 48000018 		b .L562
 7098              	.LVL598:
 7099              	.L613:
 7100              		.loc 11 74 0
 7101 0134 7FE3FB78 		mr 3,31
 7102              	.LVL599:
 7103              	.L628:
 7104              	.LBB3452:
 7105 0138 83E30000 		lwz 31,0(3)
 7106              	.LVL600:
 7107              	.LBB3453:
 7108              	.LBB3454:
 7109              	.LBB3455:
 7110              		.loc 7 98 0
 7111 013c 48000001 		bl _ZdlPv
 7112              	.LVL601:
 7113              	.LBE3455:
 7114              	.LBE3454:
 7115              	.LBE3453:
