   1              		.file	"GUISettingsMenu.cpp"
   2              		.section	".text"
   3              	.Ltext0:
   4              		.section	.text._ZN7sigslot15single_threaded4lockEv,"axG",@progbits,_ZN7sigslot15single_threaded4lo
   5              		.align 2
   6              		.weak	_ZN7sigslot15single_threaded4lockEv
   7              		.type	_ZN7sigslot15single_threaded4lockEv, @function
   8              	_ZN7sigslot15single_threaded4lockEv:
   9              	.LFB1151:
  10              		.file 1 "d:/Projects/SaveGameManager/savegame-manager-gx/trunk/source/Settings/menus/../../GUI/../
  11              		.loc 1 109 0
  12              		.cfi_startproc
  13              	.LVL0:
  14              		.loc 1 112 0
  15 0000 4E800020 		blr
  16              		.cfi_endproc
  17              	.LFE1151:
  18              		.size	_ZN7sigslot15single_threaded4lockEv, .-_ZN7sigslot15single_threaded4lockEv
  19              		.section	.text._ZN7sigslot15single_threaded6unlockEv,"axG",@progbits,_ZN7sigslot15single_threaded6
  20              		.align 2
  21              		.weak	_ZN7sigslot15single_threaded6unlockEv
  22              		.type	_ZN7sigslot15single_threaded6unlockEv, @function
  23              	_ZN7sigslot15single_threaded6unlockEv:
  24              	.LFB1152:
  25              		.loc 1 114 0
  26              		.cfi_startproc
  27              	.LVL1:
  28              		.loc 1 117 0
  29 0000 4E800020 		blr
  30              		.cfi_endproc
  31              	.LFE1152:
  32              		.size	_ZN7sigslot15single_threaded6unlockEv, .-_ZN7sigslot15single_threaded6unlockEv
  33              		.section	.text._ZN10GuiElement9SetParentEPS_,"axG",@progbits,_ZN10GuiElement9SetParentEPS_,comdat
  34              		.align 2
  35              		.weak	_ZN10GuiElement9SetParentEPS_
  36              		.type	_ZN10GuiElement9SetParentEPS_, @function
  37              	_ZN10GuiElement9SetParentEPS_:
  38              	.LFB1384:
  39              		.file 2 "d:/Projects/SaveGameManager/savegame-manager-gx/trunk/source/Settings/menus/../../GUI/gui
  40              		.loc 2 92 0
  41              		.cfi_startproc
  42              	.LVL2:
  43              		.loc 2 92 0
  44 0000 90830060 		stw 4,96(3)
  45 0004 4E800020 		blr
  46              		.cfi_endproc
  47              	.LFE1384:
  48              		.size	_ZN10GuiElement9SetParentEPS_, .-_ZN10GuiElement9SetParentEPS_
  49              		.section	.text._ZN10GuiElement9GetParentEv,"axG",@progbits,_ZN10GuiElement9GetParentEv,comdat
  50              		.align 2
  51              		.weak	_ZN10GuiElement9GetParentEv
  52              		.type	_ZN10GuiElement9GetParentEv, @function
  53              	_ZN10GuiElement9GetParentEv:
  54              	.LFB1385:
  55              		.loc 2 95 0
  56              		.cfi_startproc
  57              	.LVL3:
  58              		.loc 2 95 0
  59 0000 80630060 		lwz 3,96(3)
  60              	.LVL4:
  61 0004 4E800020 		blr
  62              		.cfi_endproc
  63              	.LFE1385:
  64              		.size	_ZN10GuiElement9GetParentEv, .-_ZN10GuiElement9GetParentEv
  65              		.section	.text._ZN10GuiElement12GetZPositionEv,"axG",@progbits,_ZN10GuiElement12GetZPositionEv,com
  66              		.align 2
  67              		.weak	_ZN10GuiElement12GetZPositionEv
  68              		.type	_ZN10GuiElement12GetZPositionEv, @function
  69              	_ZN10GuiElement12GetZPositionEv:
  70              	.LFB1386:
  71              		.loc 2 106 0
  72              		.cfi_startproc
  73              	.LVL5:
  74 0000 7C0802A6 		mflr 0
  75 0004 9421FFF0 		stwu 1,-16(1)
  76              	.LCFI0:
  77              		.cfi_def_cfa_offset 16
  78              		.cfi_register 65, 0
  79 0008 93E1000C 		stw 31,12(1)
  80 000c 7C7F1B78 		mr 31,3
  81              		.cfi_offset 31, -4
  82 0010 90010014 		stw 0,20(1)
  83              	.LBB2253:
  84              		.loc 2 110 0
  85 0014 81630060 		lwz 11,96(3)
  86              		.loc 2 108 0
  87 0018 38600000 		li 3,0
  88              	.LVL6:
  89              		.loc 2 110 0
  90 001c 2F8B0000 		cmpwi 7,11,0
  91 0020 419E0018 		beq- 7,.L6
  92              		.cfi_offset 65, 4
  93              		.loc 2 111 0
  94 0024 812B0000 		lwz 9,0(11)
  95 0028 7D635B78 		mr 3,11
  96 002c 80090018 		lwz 0,24(9)
  97 0030 7C0903A6 		mtctr 0
  98 0034 4E800421 		bctrl
  99              	.LVL7:
 100              	.L6:
 101              		.loc 2 113 0
 102 0038 801F0034 		lwz 0,52(31)
 103              	.LBE2253:
 104              		.loc 2 114 0
 105 003c 83E1000C 		lwz 31,12(1)
 106              	.LVL8:
 107 0040 7C630214 		add 3,3,0
 108              	.LVL9:
 109 0044 80010014 		lwz 0,20(1)
 110 0048 38210010 		addi 1,1,16
 111              	.LCFI1:
 112              		.cfi_def_cfa_offset 0
 113              		.cfi_restore 31
 114 004c 7C0803A6 		mtlr 0
 115 0050 4E800020 		blr
 116              		.cfi_endproc
 117              	.LFE1386:
 118              		.size	_ZN10GuiElement12GetZPositionEv, .-_ZN10GuiElement12GetZPositionEv
 119              		.section	.text._ZN10GuiElement10GetLeftPosEv,"axG",@progbits,_ZN10GuiElement10GetLeftPosEv,comdat
 120              		.align 2
 121              		.weak	_ZN10GuiElement10GetLeftPosEv
 122              		.type	_ZN10GuiElement10GetLeftPosEv, @function
 123              	_ZN10GuiElement10GetLeftPosEv:
 124              	.LFB1387:
 125              		.loc 2 116 0
 126              		.cfi_startproc
 127              	.LVL10:
 128              		.loc 2 116 0
 129 0000 8063002C 		lwz 3,44(3)
 130              	.LVL11:
 131 0004 4E800020 		blr
 132              		.cfi_endproc
 133              	.LFE1387:
 134              		.size	_ZN10GuiElement10GetLeftPosEv, .-_ZN10GuiElement10GetLeftPosEv
 135              		.section	.text._ZN10GuiElement9GetTopPosEv,"axG",@progbits,_ZN10GuiElement9GetTopPosEv,comdat
 136              		.align 2
 137              		.weak	_ZN10GuiElement9GetTopPosEv
 138              		.type	_ZN10GuiElement9GetTopPosEv, @function
 139              	_ZN10GuiElement9GetTopPosEv:
 140              	.LFB1388:
 141              		.loc 2 118 0
 142              		.cfi_startproc
 143              	.LVL12:
 144              		.loc 2 118 0
 145 0000 80630030 		lwz 3,48(3)
 146              	.LVL13:
 147 0004 4E800020 		blr
 148              		.cfi_endproc
 149              	.LFE1388:
 150              		.size	_ZN10GuiElement9GetTopPosEv, .-_ZN10GuiElement9GetTopPosEv
 151              		.section	.text._ZN10GuiElement8GetWidthEv,"axG",@progbits,_ZN10GuiElement8GetWidthEv,comdat
 152              		.align 2
 153              		.weak	_ZN10GuiElement8GetWidthEv
 154              		.type	_ZN10GuiElement8GetWidthEv, @function
 155              	_ZN10GuiElement8GetWidthEv:
 156              	.LFB1389:
 157              		.loc 2 121 0
 158              		.cfi_startproc
 159              	.LVL14:
 160              		.loc 2 121 0
 161 0000 80630024 		lwz 3,36(3)
 162              	.LVL15:
 163 0004 4E800020 		blr
 164              		.cfi_endproc
 165              	.LFE1389:
 166              		.size	_ZN10GuiElement8GetWidthEv, .-_ZN10GuiElement8GetWidthEv
 167              		.section	.text._ZN10GuiElement9GetHeightEv,"axG",@progbits,_ZN10GuiElement9GetHeightEv,comdat
 168              		.align 2
 169              		.weak	_ZN10GuiElement9GetHeightEv
 170              		.type	_ZN10GuiElement9GetHeightEv, @function
 171              	_ZN10GuiElement9GetHeightEv:
 172              	.LFB1390:
 173              		.loc 2 124 0
 174              		.cfi_startproc
 175              	.LVL16:
 176              		.loc 2 124 0
 177 0000 80630028 		lwz 3,40(3)
 178              	.LVL17:
 179 0004 4E800020 		blr
 180              		.cfi_endproc
 181              	.LFE1390:
 182              		.size	_ZN10GuiElement9GetHeightEv, .-_ZN10GuiElement9GetHeightEv
 183              		.section	.text._ZN10GuiElement7SetSizeEii,"axG",@progbits,_ZN10GuiElement7SetSizeEii,comdat
 184              		.align 2
 185              		.weak	_ZN10GuiElement7SetSizeEii
 186              		.type	_ZN10GuiElement7SetSizeEii, @function
 187              	_ZN10GuiElement7SetSizeEii:
 188              	.LFB1391:
 189              		.loc 2 128 0
 190              		.cfi_startproc
 191              	.LVL18:
 192              		.loc 2 130 0
 193 0000 90830024 		stw 4,36(3)
 194              		.loc 2 132 0
 195              		.loc 2 131 0
 196 0004 90A30028 		stw 5,40(3)
 197              		.loc 2 132 0
 198 0008 4E800020 		blr
 199              		.cfi_endproc
 200              	.LFE1391:
 201              		.size	_ZN10GuiElement7SetSizeEii, .-_ZN10GuiElement7SetSizeEii
 202              		.section	.text._ZN10GuiElement9IsVisibleEv,"axG",@progbits,_ZN10GuiElement9IsVisibleEv,comdat
 203              		.align 2
 204              		.weak	_ZN10GuiElement9IsVisibleEv
 205              		.type	_ZN10GuiElement9IsVisibleEv, @function
 206              	_ZN10GuiElement9IsVisibleEv:
 207              	.LFB1393:
 208              		.loc 2 142 0
 209              		.cfi_startproc
 210              	.LVL19:
 211              		.loc 2 142 0
 212 0000 8863001D 		lbz 3,29(3)
 213              	.LVL20:
 214 0004 4E800020 		blr
 215              		.cfi_endproc
 216              	.LFE1393:
 217              		.size	_ZN10GuiElement9IsVisibleEv, .-_ZN10GuiElement9IsVisibleEv
 218              		.section	.text._ZN10GuiElement12IsSelectableEv,"axG",@progbits,_ZN10GuiElement12IsSelectableEv,com
 219              		.align 2
 220              		.weak	_ZN10GuiElement12IsSelectableEv
 221              		.type	_ZN10GuiElement12IsSelectableEv, @function
 222              	_ZN10GuiElement12IsSelectableEv:
 223              	.LFB1394:
 224              		.loc 2 145 0
 225              		.cfi_startproc
 226              	.LVL21:
 227              		.loc 2 149 0
 228 0000 80030048 		lwz 0,72(3)
 229 0004 39200000 		li 9,0
 230 0008 2F800004 		cmpwi 7,0,4
 231 000c 419E0010 		beq- 7,.L16
 232              		.loc 2 149 0 is_stmt 0 discriminator 1
 233 0010 2F800002 		cmpwi 7,0,2
 234 0014 419E0008 		beq- 7,.L16
 235              		.loc 2 149 0 discriminator 3
 236 0018 8923001E 		lbz 9,30(3)
 237              	.L16:
 238              		.loc 2 150 0 is_stmt 1 discriminator 5
 239 001c 7D234B78 		mr 3,9
 240              	.LVL22:
 241 0020 4E800020 		blr
 242              		.cfi_endproc
 243              	.LFE1394:
 244              		.size	_ZN10GuiElement12IsSelectableEv, .-_ZN10GuiElement12IsSelectableEv
 245              		.section	.text._ZN10GuiElement11IsClickableEv,"axG",@progbits,_ZN10GuiElement11IsClickableEv,comda
 246              		.align 2
 247              		.weak	_ZN10GuiElement11IsClickableEv
 248              		.type	_ZN10GuiElement11IsClickableEv, @function
 249              	_ZN10GuiElement11IsClickableEv:
 250              	.LFB1395:
 251              		.loc 2 153 0
 252              		.cfi_startproc
 253              	.LVL23:
 254              		.loc 2 158 0
 255 0000 80030048 		lwz 0,72(3)
 256 0004 39200000 		li 9,0
 257 0008 2F800004 		cmpwi 7,0,4
 258 000c 419E0018 		beq- 7,.L20
 259              		.loc 2 158 0 is_stmt 0 discriminator 1
 260 0010 2F800002 		cmpwi 7,0,2
 261 0014 419E0010 		beq- 7,.L20
 262              		.loc 2 158 0 discriminator 3
 263 0018 2F800003 		cmpwi 7,0,3
 264 001c 419E0008 		beq- 7,.L20
 265              		.loc 2 158 0 discriminator 4
 266 0020 8923001F 		lbz 9,31(3)
 267              	.L20:
 268              		.loc 2 159 0 is_stmt 1 discriminator 6
 269 0024 7D234B78 		mr 3,9
 270              	.LVL24:
 271 0028 4E800020 		blr
 272              		.cfi_endproc
 273              	.LFE1395:
 274              		.size	_ZN10GuiElement11IsClickableEv, .-_ZN10GuiElement11IsClickableEv
 275              		.section	.text._ZN10GuiElement10IsHoldableEv,"axG",@progbits,_ZN10GuiElement10IsHoldableEv,comdat
 276              		.align 2
 277              		.weak	_ZN10GuiElement10IsHoldableEv
 278              		.type	_ZN10GuiElement10IsHoldableEv, @function
 279              	_ZN10GuiElement10IsHoldableEv:
 280              	.LFB1396:
 281              		.loc 2 162 0
 282              		.cfi_startproc
 283              	.LVL25:
 284              		.loc 2 162 0
 285 0000 81230048 		lwz 9,72(3)
 286 0004 38000000 		li 0,0
 287 0008 2F890004 		cmpwi 7,9,4
 288 000c 419E0008 		beq- 7,.L25
 289              		.loc 2 162 0 is_stmt 0 discriminator 1
 290 0010 88030020 		lbz 0,32(3)
 291              	.L25:
 292              		.loc 2 162 0 discriminator 4
 293 0014 7C030378 		mr 3,0
 294              	.LVL26:
 295 0018 4E800020 		blr
 296              		.cfi_endproc
 297              	.LFE1396:
 298              		.size	_ZN10GuiElement10IsHoldableEv, .-_ZN10GuiElement10IsHoldableEv
 299              		.section	.text._ZN10GuiElement13SetSelectableEb,"axG",@progbits,_ZN10GuiElement13SetSelectableEb,c
 300              		.align 2
 301              		.weak	_ZN10GuiElement13SetSelectableEb
 302              		.type	_ZN10GuiElement13SetSelectableEb, @function
 303              	_ZN10GuiElement13SetSelectableEb:
 304              	.LFB1397:
 305              		.loc 2 165 0 is_stmt 1
 306              		.cfi_startproc
 307              	.LVL27:
 308              		.loc 2 165 0
 309 0000 9883001E 		stb 4,30(3)
 310 0004 4E800020 		blr
 311              		.cfi_endproc
 312              	.LFE1397:
 313              		.size	_ZN10GuiElement13SetSelectableEb, .-_ZN10GuiElement13SetSelectableEb
 314              		.section	.text._ZN10GuiElement12SetClickableEb,"axG",@progbits,_ZN10GuiElement12SetClickableEb,com
 315              		.align 2
 316              		.weak	_ZN10GuiElement12SetClickableEb
 317              		.type	_ZN10GuiElement12SetClickableEb, @function
 318              	_ZN10GuiElement12SetClickableEb:
 319              	.LFB1398:
 320              		.loc 2 168 0
 321              		.cfi_startproc
 322              	.LVL28:
 323              		.loc 2 168 0
 324 0000 9883001F 		stb 4,31(3)
 325 0004 4E800020 		blr
 326              		.cfi_endproc
 327              	.LFE1398:
 328              		.size	_ZN10GuiElement12SetClickableEb, .-_ZN10GuiElement12SetClickableEb
 329              		.section	.text._ZN10GuiElement11SetHoldableEb,"axG",@progbits,_ZN10GuiElement11SetHoldableEb,comda
 330              		.align 2
 331              		.weak	_ZN10GuiElement11SetHoldableEb
 332              		.type	_ZN10GuiElement11SetHoldableEb, @function
 333              	_ZN10GuiElement11SetHoldableEb:
 334              	.LFB1399:
 335              		.loc 2 171 0
 336              		.cfi_startproc
 337              	.LVL29:
 338              		.loc 2 171 0
 339 0000 98830020 		stb 4,32(3)
 340 0004 4E800020 		blr
 341              		.cfi_endproc
 342              	.LFE1399:
 343              		.size	_ZN10GuiElement11SetHoldableEb, .-_ZN10GuiElement11SetHoldableEb
 344              		.section	.text._ZN10GuiElement8GetStateEv,"axG",@progbits,_ZN10GuiElement8GetStateEv,comdat
 345              		.align 2
 346              		.weak	_ZN10GuiElement8GetStateEv
 347              		.type	_ZN10GuiElement8GetStateEv, @function
 348              	_ZN10GuiElement8GetStateEv:
 349              	.LFB1400:
 350              		.loc 2 178 0
 351              		.cfi_startproc
 352              	.LVL30:
 353              		.loc 2 178 0
 354 0000 80630048 		lwz 3,72(3)
 355              	.LVL31:
 356 0004 4E800020 		blr
 357              		.cfi_endproc
 358              	.LFE1400:
 359              		.size	_ZN10GuiElement8GetStateEv, .-_ZN10GuiElement8GetStateEv
 360              		.section	.text._ZN10GuiElement12GetStateChanEv,"axG",@progbits,_ZN10GuiElement12GetStateChanEv,com
 361              		.align 2
 362              		.weak	_ZN10GuiElement12GetStateChanEv
 363              		.type	_ZN10GuiElement12GetStateChanEv, @function
 364              	_ZN10GuiElement12GetStateChanEv:
 365              	.LFB1401:
 366              		.loc 2 181 0
 367              		.cfi_startproc
 368              	.LVL32:
 369              		.loc 2 181 0
 370 0000 8063004C 		lwz 3,76(3)
 371              	.LVL33:
 372 0004 4E800020 		blr
 373              		.cfi_endproc
 374              	.LFE1401:
 375              		.size	_ZN10GuiElement12GetStateChanEv, .-_ZN10GuiElement12GetStateChanEv
 376              		.section	.text._ZN10GuiElement8SetAlphaEi,"axG",@progbits,_ZN10GuiElement8SetAlphaEi,comdat
 377              		.align 2
 378              		.weak	_ZN10GuiElement8SetAlphaEi
 379              		.type	_ZN10GuiElement8SetAlphaEi, @function
 380              	_ZN10GuiElement8SetAlphaEi:
 381              	.LFB1403:
 382              		.loc 2 190 0
 383              		.cfi_startproc
 384              	.LVL34:
 385              		.loc 2 190 0
 386 0000 90830038 		stw 4,56(3)
 387 0004 4E800020 		blr
 388              		.cfi_endproc
 389              	.LFE1403:
 390              		.size	_ZN10GuiElement8SetAlphaEi, .-_ZN10GuiElement8SetAlphaEi
 391              		.section	.text._ZN10GuiElement8GetAlphaEv,"axG",@progbits,_ZN10GuiElement8GetAlphaEv,comdat
 392              		.align 2
 393              		.weak	_ZN10GuiElement8GetAlphaEv
 394              		.type	_ZN10GuiElement8GetAlphaEv, @function
 395              	_ZN10GuiElement8GetAlphaEv:
 396              	.LFB1404:
 397              		.loc 2 194 0
 398              		.cfi_startproc
 399              	.LVL35:
 400 0000 7C0802A6 		mflr 0
 401 0004 9421FFD8 		stwu 1,-40(1)
 402              	.LCFI2:
 403              		.cfi_def_cfa_offset 40
 404              		.cfi_register 65, 0
 405 0008 93E10024 		stw 31,36(1)
 406 000c 9001002C 		stw 0,44(1)
 407              	.LBB2254:
 408              		.loc 2 198 0
 409 0010 83E3006C 		lwz 31,108(3)
 410              		.cfi_offset 65, 4
 411              		.cfi_offset 31, -4
 412 0014 2F9F0000 		cmpwi 7,31,0
 413 0018 419C0094 		blt- 7,.L36
 414              	.L34:
 415              	.LVL36:
 416              		.loc 2 203 0
 417 001c 80630060 		lwz 3,96(3)
 418              	.LVL37:
 419 0020 2F830000 		cmpwi 7,3,0
 420 0024 419E0070 		beq- 7,.L35
 421              		.loc 2 204 0
 422 0028 81230000 		lwz 9,0(3)
 423 002c 6FFF8000 		xoris 31,31,0x8000
 424              	.LVL38:
 425 0030 80090064 		lwz 0,100(9)
 426 0034 7C0903A6 		mtctr 0
 427 0038 4E800421 		bctrl
 428 003c 3C004330 		lis 0,0x4330
 429 0040 6C638000 		xoris 3,3,0x8000
 430 0044 90010010 		stw 0,16(1)
 431 0048 90610014 		stw 3,20(1)
 432 004c 3D200000 		lis 9,.LC1@ha
 433 0050 C0090000 		lfs 0,.LC1@l(9)
 434 0054 3D200000 		lis 9,.LC2@ha
 435 0058 C9A10010 		lfd 13,16(1)
 436 005c C1890004 		lfs 12,.LC2@l(9)
 437 0060 39210018 		addi 9,1,24
 438 0064 FDAD0028 		fsub 13,13,0
 439 0068 93E1000C 		stw 31,12(1)
 440 006c 90010008 		stw 0,8(1)
 441 0070 FDA06818 		frsp 13,13
 442 0074 EDAD6024 		fdivs 13,13,12
 443 0078 C9810008 		lfd 12,8(1)
 444 007c FC0C0028 		fsub 0,12,0
 445 0080 FC000018 		frsp 0,0
 446 0084 EC000372 		fmuls 0,0,13
 447 0088 FC00001E 		fctiwz 0,0
 448 008c 7C004FAE 		stfiwx 0,0,9
 449 0090 83E10018 		lwz 31,24(1)
 450              	.LVL39:
 451              	.L35:
 452              	.LBE2254:
 453              		.loc 2 207 0
 454 0094 8001002C 		lwz 0,44(1)
 455 0098 7FE3FB78 		mr 3,31
 456 009c 83E10024 		lwz 31,36(1)
 457              	.LVL40:
 458 00a0 7C0803A6 		mtlr 0
 459 00a4 38210028 		addi 1,1,40
 460              		.cfi_remember_state
 461              	.LCFI3:
 462              		.cfi_def_cfa_offset 0
 463              		.cfi_restore 31
 464 00a8 4E800020 		blr
 465              	.LVL41:
 466              	.L36:
 467              	.LCFI4:
 468              		.cfi_restore_state
 469              	.LBB2255:
 470              		.loc 2 201 0
 471 00ac 83E30038 		lwz 31,56(3)
 472              	.LVL42:
 473 00b0 4BFFFF6C 		b .L34
 474              	.LBE2255:
 475              		.cfi_endproc
 476              	.LFE1404:
 477              		.size	_ZN10GuiElement8GetAlphaEv, .-_ZN10GuiElement8GetAlphaEv
 478              		.section	.text._ZN10GuiElement8SetScaleEf,"axG",@progbits,_ZN10GuiElement8SetScaleEf,comdat
 479              		.align 2
 480              		.weak	_ZN10GuiElement8SetScaleEf
 481              		.type	_ZN10GuiElement8SetScaleEf, @function
 482              	_ZN10GuiElement8SetScaleEf:
 483              	.LFB1405:
 484              		.loc 2 210 0
 485              		.cfi_startproc
 486              	.LVL43:
 487              		.loc 2 212 0
 488 0000 D023003C 		stfs 1,60(3)
 489              		.loc 2 214 0
 490              		.loc 2 213 0
 491 0004 D0230040 		stfs 1,64(3)
 492              		.loc 2 214 0
 493 0008 4E800020 		blr
 494              		.cfi_endproc
 495              	.LFE1405:
 496              		.size	_ZN10GuiElement8SetScaleEf, .-_ZN10GuiElement8SetScaleEf
 497              		.section	.text._ZN10GuiElement9SetScaleXEf,"axG",@progbits,_ZN10GuiElement9SetScaleXEf,comdat
 498              		.align 2
 499              		.weak	_ZN10GuiElement9SetScaleXEf
 500              		.type	_ZN10GuiElement9SetScaleXEf, @function
 501              	_ZN10GuiElement9SetScaleXEf:
 502              	.LFB1406:
 503              		.loc 2 217 0
 504              		.cfi_startproc
 505              	.LVL44:
 506              		.loc 2 217 0
 507 0000 D023003C 		stfs 1,60(3)
 508 0004 4E800020 		blr
 509              		.cfi_endproc
 510              	.LFE1406:
 511              		.size	_ZN10GuiElement9SetScaleXEf, .-_ZN10GuiElement9SetScaleXEf
 512              		.section	.text._ZN10GuiElement9SetScaleYEf,"axG",@progbits,_ZN10GuiElement9SetScaleYEf,comdat
 513              		.align 2
 514              		.weak	_ZN10GuiElement9SetScaleYEf
 515              		.type	_ZN10GuiElement9SetScaleYEf, @function
 516              	_ZN10GuiElement9SetScaleYEf:
 517              	.LFB1407:
 518              		.loc 2 220 0
 519              		.cfi_startproc
 520              	.LVL45:
 521              		.loc 2 220 0
 522 0000 D0230040 		stfs 1,64(3)
 523 0004 4E800020 		blr
 524              		.cfi_endproc
 525              	.LFE1407:
 526              		.size	_ZN10GuiElement9SetScaleYEf, .-_ZN10GuiElement9SetScaleYEf
 527              		.section	.text._ZN10GuiElement8GetScaleEv,"axG",@progbits,_ZN10GuiElement8GetScaleEv,comdat
 528              		.align 2
 529              		.weak	_ZN10GuiElement8GetScaleEv
 530              		.type	_ZN10GuiElement8GetScaleEv, @function
 531              	_ZN10GuiElement8GetScaleEv:
 532              	.LFB1408:
 533              		.loc 2 223 0
 534              		.cfi_startproc
 535              	.LVL46:
 536 0000 7C0802A6 		mflr 0
 537 0004 9421FFF0 		stwu 1,-16(1)
 538              	.LCFI5:
 539              		.cfi_def_cfa_offset 16
 540              		.cfi_register 65, 0
 541              	.LBB2256:
 542              		.loc 2 225 0
 543 0008 3D200000 		lis 9,.LC3@ha
 544              	.LBE2256:
 545              		.loc 2 223 0
 546 000c DBE10008 		stfd 31,8(1)
 547 0010 90010014 		stw 0,20(1)
 548              	.LBB2257:
 549              		.loc 2 225 0
 550 0014 C0030040 		lfs 0,64(3)
 551 0018 C3E3003C 		lfs 31,60(3)
 552              		.cfi_offset 65, 4
 553              		.cfi_offset 63, -8
 554              		.loc 2 227 0
 555 001c 81630060 		lwz 11,96(3)
 556              		.loc 2 225 0
 557 0020 EFFF002A 		fadds 31,31,0
 558 0024 C0090008 		lfs 0,.LC3@l(9)
 559              		.loc 2 227 0
 560 0028 2F8B0000 		cmpwi 7,11,0
 561              		.loc 2 225 0
 562 002c EFFF0032 		fmuls 31,31,0
 563 0030 C0030070 		lfs 0,112(3)
 564 0034 EFFF0032 		fmuls 31,31,0
 565              	.LVL47:
 566              		.loc 2 227 0
 567 0038 419E001C 		beq- 7,.L41
 568              		.loc 2 228 0
 569 003c 812B0000 		lwz 9,0(11)
 570 0040 7D635B78 		mr 3,11
 571              	.LVL48:
 572 0044 80090074 		lwz 0,116(9)
 573 0048 7C0903A6 		mtctr 0
 574 004c 4E800421 		bctrl
 575 0050 EFFF0072 		fmuls 31,31,1
 576              	.LVL49:
 577              	.L41:
 578              	.LBE2257:
 579              		.loc 2 231 0
 580 0054 80010014 		lwz 0,20(1)
 581 0058 FC20F890 		fmr 1,31
 582 005c CBE10008 		lfd 31,8(1)
 583              	.LVL50:
 584 0060 7C0803A6 		mtlr 0
 585 0064 38210010 		addi 1,1,16
 586              	.LCFI6:
 587              		.cfi_def_cfa_offset 0
 588              		.cfi_restore 63
 589 0068 4E800020 		blr
 590              		.cfi_endproc
 591              	.LFE1408:
 592              		.size	_ZN10GuiElement8GetScaleEv, .-_ZN10GuiElement8GetScaleEv
 593              		.section	.text._ZN10GuiElement9GetScaleXEv,"axG",@progbits,_ZN10GuiElement9GetScaleXEv,comdat
 594              		.align 2
 595              		.weak	_ZN10GuiElement9GetScaleXEv
 596              		.type	_ZN10GuiElement9GetScaleXEv, @function
 597              	_ZN10GuiElement9GetScaleXEv:
 598              	.LFB1409:
 599              		.loc 2 234 0
 600              		.cfi_startproc
 601              	.LVL51:
 602 0000 7C0802A6 		mflr 0
 603 0004 9421FFF0 		stwu 1,-16(1)
 604              	.LCFI7:
 605              		.cfi_def_cfa_offset 16
 606              		.cfi_register 65, 0
 607 0008 DBE10008 		stfd 31,8(1)
 608 000c 90010014 		stw 0,20(1)
 609              	.LBB2258:
 610              		.loc 2 238 0
 611 0010 81630060 		lwz 11,96(3)
 612              		.loc 2 236 0
 613 0014 C3E3003C 		lfs 31,60(3)
 614              		.cfi_offset 65, 4
 615              		.cfi_offset 63, -8
 616              		.loc 2 238 0
 617 0018 2F8B0000 		cmpwi 7,11,0
 618              		.loc 2 236 0
 619 001c C0030070 		lfs 0,112(3)
 620 0020 EFFF0032 		fmuls 31,31,0
 621              	.LVL52:
 622              		.loc 2 238 0
 623 0024 419E001C 		beq- 7,.L43
 624              		.loc 2 239 0
 625 0028 812B0000 		lwz 9,0(11)
 626 002c 7D635B78 		mr 3,11
 627              	.LVL53:
 628 0030 80090078 		lwz 0,120(9)
 629 0034 7C0903A6 		mtctr 0
 630 0038 4E800421 		bctrl
 631 003c EFFF0072 		fmuls 31,31,1
 632              	.LVL54:
 633              	.L43:
 634              	.LBE2258:
 635              		.loc 2 242 0
 636 0040 80010014 		lwz 0,20(1)
 637 0044 FC20F890 		fmr 1,31
 638 0048 CBE10008 		lfd 31,8(1)
 639              	.LVL55:
 640 004c 7C0803A6 		mtlr 0
 641 0050 38210010 		addi 1,1,16
 642              	.LCFI8:
 643              		.cfi_def_cfa_offset 0
 644              		.cfi_restore 63
 645 0054 4E800020 		blr
 646              		.cfi_endproc
 647              	.LFE1409:
 648              		.size	_ZN10GuiElement9GetScaleXEv, .-_ZN10GuiElement9GetScaleXEv
 649              		.section	.text._ZN10GuiElement9GetScaleYEv,"axG",@progbits,_ZN10GuiElement9GetScaleYEv,comdat
 650              		.align 2
 651              		.weak	_ZN10GuiElement9GetScaleYEv
 652              		.type	_ZN10GuiElement9GetScaleYEv, @function
 653              	_ZN10GuiElement9GetScaleYEv:
 654              	.LFB1410:
 655              		.loc 2 245 0
 656              		.cfi_startproc
 657              	.LVL56:
 658 0000 7C0802A6 		mflr 0
 659 0004 9421FFF0 		stwu 1,-16(1)
 660              	.LCFI9:
 661              		.cfi_def_cfa_offset 16
 662              		.cfi_register 65, 0
 663 0008 DBE10008 		stfd 31,8(1)
 664 000c 90010014 		stw 0,20(1)
 665              	.LBB2259:
 666              		.loc 2 249 0
 667 0010 81630060 		lwz 11,96(3)
 668              		.loc 2 247 0
 669 0014 C3E30040 		lfs 31,64(3)
 670              		.cfi_offset 65, 4
 671              		.cfi_offset 63, -8
 672              		.loc 2 249 0
 673 0018 2F8B0000 		cmpwi 7,11,0
 674              		.loc 2 247 0
 675 001c C0030070 		lfs 0,112(3)
 676 0020 EFFF0032 		fmuls 31,31,0
 677              	.LVL57:
 678              		.loc 2 249 0
 679 0024 419E001C 		beq- 7,.L45
 680              		.loc 2 250 0
 681 0028 812B0000 		lwz 9,0(11)
 682 002c 7D635B78 		mr 3,11
 683              	.LVL58:
 684 0030 8009007C 		lwz 0,124(9)
 685 0034 7C0903A6 		mtctr 0
 686 0038 4E800421 		bctrl
 687 003c EFFF0072 		fmuls 31,31,1
 688              	.LVL59:
 689              	.L45:
 690              	.LBE2259:
 691              		.loc 2 253 0
 692 0040 80010014 		lwz 0,20(1)
 693 0044 FC20F890 		fmr 1,31
 694 0048 CBE10008 		lfd 31,8(1)
 695              	.LVL60:
 696 004c 7C0803A6 		mtlr 0
 697 0050 38210010 		addi 1,1,16
 698              	.LCFI10:
 699              		.cfi_def_cfa_offset 0
 700              		.cfi_restore 63
 701 0054 4E800020 		blr
 702              		.cfi_endproc
 703              	.LFE1410:
 704              		.size	_ZN10GuiElement9GetScaleYEv, .-_ZN10GuiElement9GetScaleYEv
 705              		.section	.text._ZN10GuiElement6RumbleEv,"axG",@progbits,_ZN10GuiElement6RumbleEv,comdat
 706              		.align 2
 707              		.weak	_ZN10GuiElement6RumbleEv
 708              		.type	_ZN10GuiElement6RumbleEv, @function
 709              	_ZN10GuiElement6RumbleEv:
 710              	.LFB1411:
 711              		.loc 2 256 0
 712              		.cfi_startproc
 713              	.LVL61:
 714              		.loc 2 256 0
 715 0000 8863001C 		lbz 3,28(3)
 716              	.LVL62:
 717 0004 4E800020 		blr
 718              		.cfi_endproc
 719              	.LFE1411:
 720              		.size	_ZN10GuiElement6RumbleEv, .-_ZN10GuiElement6RumbleEv
 721              		.section	.text._ZN10GuiElement9SetRumbleEb,"axG",@progbits,_ZN10GuiElement9SetRumbleEb,comdat
 722              		.align 2
 723              		.weak	_ZN10GuiElement9SetRumbleEb
 724              		.type	_ZN10GuiElement9SetRumbleEb, @function
 725              	_ZN10GuiElement9SetRumbleEb:
 726              	.LFB1412:
 727              		.loc 2 259 0
 728              		.cfi_startproc
 729              	.LVL63:
 730              		.loc 2 259 0
 731 0000 9883001C 		stb 4,28(3)
 732 0004 4E800020 		blr
 733              		.cfi_endproc
 734              	.LFE1412:
 735              		.size	_ZN10GuiElement9SetRumbleEb, .-_ZN10GuiElement9SetRumbleEb
 736              		.section	.text._ZN10GuiElement13SetEffectGrowEv,"axG",@progbits,_ZN10GuiElement13SetEffectGrowEv,c
 737              		.align 2
 738              		.weak	_ZN10GuiElement13SetEffectGrowEv
 739              		.type	_ZN10GuiElement13SetEffectGrowEv, @function
 740              	_ZN10GuiElement13SetEffectGrowEv:
 741              	.LFB1413:
 742              		.loc 2 271 0
 743              		.cfi_startproc
 744              	.LVL64:
 745 0000 7C0802A6 		mflr 0
 746 0004 9421FFF8 		stwu 1,-8(1)
 747              	.LCFI11:
 748              		.cfi_def_cfa_offset 8
 749              		.cfi_register 65, 0
 750 0008 81230000 		lwz 9,0(3)
 751 000c 38800100 		li 4,256
 752 0010 38A00004 		li 5,4
 753 0014 38C0006E 		li 6,110
 754 0018 9001000C 		stw 0,12(1)
 755              		.loc 2 271 0
 756 001c 8009008C 		lwz 0,140(9)
 757              		.cfi_offset 65, 4
 758 0020 7C0903A6 		mtctr 0
 759 0024 4E800421 		bctrl
 760              	.LVL65:
 761 0028 8001000C 		lwz 0,12(1)
 762 002c 38210008 		addi 1,1,8
 763              	.LCFI12:
 764              		.cfi_def_cfa_offset 0
 765 0030 7C0803A6 		mtlr 0
 766 0034 4E800020 		blr
 767              		.cfi_endproc
 768              	.LFE1413:
 769              		.size	_ZN10GuiElement13SetEffectGrowEv, .-_ZN10GuiElement13SetEffectGrowEv
 770              		.section	.text._ZNK10GuiElement9GetEffectEv,"axG",@progbits,_ZNK10GuiElement9GetEffectEv,comdat
 771              		.align 2
 772              		.weak	_ZNK10GuiElement9GetEffectEv
 773              		.type	_ZNK10GuiElement9GetEffectEv, @function
 774              	_ZNK10GuiElement9GetEffectEv:
 775              	.LFB1414:
 776              		.loc 2 276 0
 777              		.cfi_startproc
 778              	.LVL66:
 779              		.loc 2 276 0
 780 0000 80630078 		lwz 3,120(3)
 781              	.LVL67:
 782 0004 4E800020 		blr
 783              		.cfi_endproc
 784              	.LFE1414:
 785              		.size	_ZNK10GuiElement9GetEffectEv, .-_ZNK10GuiElement9GetEffectEv
 786              		.section	.text._ZNK10GuiElement10IsAnimatedEv,"axG",@progbits,_ZNK10GuiElement10IsAnimatedEv,comda
 787              		.align 2
 788              		.weak	_ZNK10GuiElement10IsAnimatedEv
 789              		.type	_ZNK10GuiElement10IsAnimatedEv, @function
 790              	_ZNK10GuiElement10IsAnimatedEv:
 791              	.LFB1415:
 792              		.loc 2 278 0
 793              		.cfi_startproc
 794              	.LVL68:
 795 0000 7C0802A6 		mflr 0
 796 0004 9421FFF8 		stwu 1,-8(1)
 797              	.LCFI13:
 798              		.cfi_def_cfa_offset 8
 799              		.cfi_register 65, 0
 800 0008 9001000C 		stw 0,12(1)
 801              		.loc 2 278 0
 802 000c 81230000 		lwz 9,0(3)
 803 0010 80090098 		lwz 0,152(9)
 804              		.cfi_offset 65, 4
 805 0014 7C0903A6 		mtctr 0
 806 0018 4E800421 		bctrl
 807              	.LVL69:
 808 001c 7C60FE70 		srawi 0,3,31
 809 0020 7C630050 		subf 3,3,0
 810 0024 8001000C 		lwz 0,12(1)
 811 0028 54630FFE 		srwi 3,3,31
 812 002c 7C0803A6 		mtlr 0
 813 0030 38210008 		addi 1,1,8
 814              	.LCFI14:
 815              		.cfi_def_cfa_offset 0
 816 0034 4E800020 		blr
 817              		.cfi_endproc
 818              	.LFE1415:
 819              		.size	_ZNK10GuiElement10IsAnimatedEv, .-_ZNK10GuiElement10IsAnimatedEv
 820              		.section	.text._ZN10GuiElement8IsInsideEii,"axG",@progbits,_ZN10GuiElement8IsInsideEii,comdat
 821              		.align 2
 822              		.weak	_ZN10GuiElement8IsInsideEii
 823              		.type	_ZN10GuiElement8IsInsideEii, @function
 824              	_ZN10GuiElement8IsInsideEii:
 825              	.LFB1417:
 826              		.loc 2 285 0
 827              		.cfi_startproc
 828              	.LVL70:
 829 0000 7C0802A6 		mflr 0
 830 0004 9421FFE8 		stwu 1,-24(1)
 831              	.LCFI15:
 832              		.cfi_def_cfa_offset 24
 833              		.cfi_register 65, 0
 834 0008 93810008 		stw 28,8(1)
 835 000c 7CBC2B78 		mr 28,5
 836              		.cfi_offset 28, -16
 837 0010 9001001C 		stw 0,28(1)
 838 0014 93A1000C 		stw 29,12(1)
 839              		.loc 2 290 0
 840 0018 3BA00000 		li 29,0
 841              		.cfi_offset 29, -12
 842              		.cfi_offset 65, 4
 843              		.loc 2 287 0
 844 001c 81230000 		lwz 9,0(3)
 845              		.loc 2 285 0
 846 0020 93C10010 		stw 30,16(1)
 847 0024 7C9E2378 		mr 30,4
 848              		.cfi_offset 30, -8
 849              		.loc 2 287 0
 850 0028 80090010 		lwz 0,16(9)
 851              		.loc 2 285 0
 852 002c 93E10014 		stw 31,20(1)
 853              		.loc 2 285 0
 854 0030 7C7F1B78 		mr 31,3
 855              		.cfi_offset 31, -4
 856              		.loc 2 287 0
 857 0034 7C0903A6 		mtctr 0
 858 0038 4E800421 		bctrl
 859              	.LVL71:
 860              		.loc 2 290 0
 861 003c 7F83F000 		cmpw 7,3,30
 862 0040 419C0028 		blt- 7,.L56
 863              	.L52:
 864              		.loc 2 291 0 discriminator 6
 865 0044 8001001C 		lwz 0,28(1)
 866 0048 7FA3EB78 		mr 3,29
 867 004c 83810008 		lwz 28,8(1)
 868              	.LVL72:
 869 0050 7C0803A6 		mtlr 0
 870 0054 83A1000C 		lwz 29,12(1)
 871 0058 83C10010 		lwz 30,16(1)
 872              	.LVL73:
 873 005c 83E10014 		lwz 31,20(1)
 874              	.LVL74:
 875 0060 38210018 		addi 1,1,24
 876              		.cfi_remember_state
 877              	.LCFI16:
 878              		.cfi_def_cfa_offset 0
 879              		.cfi_restore 31
 880              		.cfi_restore 30
 881              		.cfi_restore 29
 882              		.cfi_restore 28
 883 0064 4E800020 		blr
 884              	.LVL75:
 885              	.L56:
 886              	.LCFI17:
 887              		.cfi_restore_state
 888              		.loc 2 288 0 discriminator 1
 889 0068 813F0000 		lwz 9,0(31)
 890 006c 7FE3FB78 		mr 3,31
 891 0070 80090010 		lwz 0,16(9)
 892 0074 7C0903A6 		mtctr 0
 893 0078 4E800421 		bctrl
 894              		.loc 2 290 0 discriminator 1
 895 007c 801F0024 		lwz 0,36(31)
 896 0080 7C030214 		add 0,3,0
 897 0084 7F9E0000 		cmpw 7,30,0
 898 0088 409CFFBC 		bge+ 7,.L52
 899              		.loc 2 289 0 discriminator 3
 900 008c 813F0000 		lwz 9,0(31)
 901 0090 7FE3FB78 		mr 3,31
 902 0094 80090014 		lwz 0,20(9)
 903 0098 7C0903A6 		mtctr 0
 904 009c 4E800421 		bctrl
 905              		.loc 2 290 0 discriminator 3
 906 00a0 7F83E000 		cmpw 7,3,28
 907 00a4 409CFFA0 		bge+ 7,.L52
 908              		.loc 2 290 0 is_stmt 0 discriminator 4
 909 00a8 813F0000 		lwz 9,0(31)
 910 00ac 7FE3FB78 		mr 3,31
 911 00b0 80090014 		lwz 0,20(9)
 912 00b4 7C0903A6 		mtctr 0
 913 00b8 4E800421 		bctrl
 914 00bc 801F0028 		lwz 0,40(31)
 915 00c0 7C030214 		add 0,3,0
 916              		.loc 2 285 0 is_stmt 1 discriminator 4
 917 00c4 7F9C0000 		cmpw 7,28,0
 918 00c8 7FA00026 		mfcr 29
 919 00cc 57BDEFFE 		rlwinm 29,29,29,1
 920 00d0 4BFFFF74 		b .L52
 921              		.cfi_endproc
 922              	.LFE1417:
 923              		.size	_ZN10GuiElement8IsInsideEii, .-_ZN10GuiElement8IsInsideEii
 924              		.section	.text._ZN10GuiElement11SetPositionEii,"axG",@progbits,_ZN10GuiElement11SetPositionEii,com
 925              		.align 2
 926              		.weak	_ZN10GuiElement11SetPositionEii
 927              		.type	_ZN10GuiElement11SetPositionEii, @function
 928              	_ZN10GuiElement11SetPositionEii:
 929              	.LFB1418:
 930              		.loc 2 295 0
 931              		.cfi_startproc
 932              	.LVL76:
 933              		.loc 2 297 0
 934 0000 9083002C 		stw 4,44(3)
 935              		.loc 2 299 0
 936              		.loc 2 298 0
 937 0004 90A30030 		stw 5,48(3)
 938              		.loc 2 299 0
 939 0008 4E800020 		blr
 940              		.cfi_endproc
 941              	.LFE1418:
 942              		.size	_ZN10GuiElement11SetPositionEii, .-_ZN10GuiElement11SetPositionEii
 943              		.section	.text._ZN10GuiElement11SetPositionEiii,"axG",@progbits,_ZN10GuiElement11SetPositionEiii,c
 944              		.align 2
 945              		.weak	_ZN10GuiElement11SetPositionEiii
 946              		.type	_ZN10GuiElement11SetPositionEiii, @function
 947              	_ZN10GuiElement11SetPositionEiii:
 948              	.LFB1419:
 949              		.loc 2 304 0
 950              		.cfi_startproc
 951              	.LVL77:
 952              		.loc 2 306 0
 953 0000 9083002C 		stw 4,44(3)
 954              		.loc 2 309 0
 955              		.loc 2 307 0
 956 0004 90A30030 		stw 5,48(3)
 957              		.loc 2 308 0
 958 0008 90C30034 		stw 6,52(3)
 959              		.loc 2 309 0
 960 000c 4E800020 		blr
 961              		.cfi_endproc
 962              	.LFE1419:
 963              		.size	_ZN10GuiElement11SetPositionEiii, .-_ZN10GuiElement11SetPositionEiii
 964              		.section	.text._ZN10GuiElement12SetAlignmentEi,"axG",@progbits,_ZN10GuiElement12SetAlignmentEi,com
 965              		.align 2
 966              		.weak	_ZN10GuiElement12SetAlignmentEi
 967              		.type	_ZN10GuiElement12SetAlignmentEi, @function
 968              	_ZN10GuiElement12SetAlignmentEi:
 969              	.LFB1421:
 970              		.loc 2 316 0
 971              		.cfi_startproc
 972              	.LVL78:
 973              		.loc 2 316 0
 974 0000 90830044 		stw 4,68(3)
 975 0004 4E800020 		blr
 976              		.cfi_endproc
 977              	.LFE1421:
 978              		.size	_ZN10GuiElement12SetAlignmentEi, .-_ZN10GuiElement12SetAlignmentEi
 979              		.section	.text._ZNK10GuiElement12GetAlignmentEv,"axG",@progbits,_ZNK10GuiElement12GetAlignmentEv,c
 980              		.align 2
 981              		.weak	_ZNK10GuiElement12GetAlignmentEv
 982              		.type	_ZNK10GuiElement12GetAlignmentEv, @function
 983              	_ZNK10GuiElement12GetAlignmentEv:
 984              	.LFB1422:
 985              		.loc 2 318 0
 986              		.cfi_startproc
 987              	.LVL79:
 988              		.loc 2 318 0
 989 0000 80630044 		lwz 3,68(3)
 990              	.LVL80:
 991 0004 4E800020 		blr
 992              		.cfi_endproc
 993              	.LFE1422:
 994              		.size	_ZNK10GuiElement12GetAlignmentEv, .-_ZNK10GuiElement12GetAlignmentEv
 995              		.section	.text._ZN8GuiFrame4hideEv,"axG",@progbits,_ZN8GuiFrame4hideEv,comdat
 996              		.align 2
 997              		.weak	_ZN8GuiFrame4hideEv
 998              		.type	_ZN8GuiFrame4hideEv, @function
 999              	_ZN8GuiFrame4hideEv:
 1000              	.LFB1432:
 1001              		.file 3 "d:/Projects/SaveGameManager/savegame-manager-gx/trunk/source/Settings/menus/../../GUI/gui
 1002              		.loc 3 81 0
 1003              		.cfi_startproc
 1004              	.LVL81:
 1005              		.loc 3 81 0
 1006 0000 4E800020 		blr
 1007              		.cfi_endproc
 1008              	.LFE1432:
 1009              		.size	_ZN8GuiFrame4hideEv, .-_ZN8GuiFrame4hideEv
 1010              		.section	.text._ZN8GuiFrame4execEv,"axG",@progbits,_ZN8GuiFrame4execEv,comdat
 1011              		.align 2
 1012              		.weak	_ZN8GuiFrame4execEv
 1013              		.type	_ZN8GuiFrame4execEv, @function
 1014              	_ZN8GuiFrame4execEv:
 1015              	.LFB1433:
 1016              		.loc 3 83 0
 1017              		.cfi_startproc
 1018              	.LVL82:
 1019              		.loc 3 83 0
 1020 0000 4E800020 		blr
 1021              		.cfi_endproc
 1022              	.LFE1433:
 1023              		.size	_ZN8GuiFrame4execEv, .-_ZN8GuiFrame4execEv
 1024              		.section	.text._ZN8GuiFrame12updateEventsEv,"axG",@progbits,_ZN8GuiFrame12updateEventsEv,comdat
 1025              		.align 2
 1026              		.weak	_ZN8GuiFrame12updateEventsEv
 1027              		.type	_ZN8GuiFrame12updateEventsEv, @function
 1028              	_ZN8GuiFrame12updateEventsEv:
 1029              	.LFB1434:
 1030              		.loc 3 85 0
 1031              		.cfi_startproc
 1032              	.LVL83:
 1033              		.loc 3 85 0
 1034 0000 4E800020 		blr
 1035              		.cfi_endproc
 1036              	.LFE1434:
 1037              		.size	_ZN8GuiFrame12updateEventsEv, .-_ZN8GuiFrame12updateEventsEv
 1038              		.section	.text._ZN7sigslot17_connection_base4IP11PathBrowserhbRKSsNS_15single_threadedEED2Ev,"axG"
 1039              		.align 2
 1040              		.weak	_ZN7sigslot17_connection_base4IP11PathBrowserhbRKSsNS_15single_threadedEED2Ev
 1041              		.type	_ZN7sigslot17_connection_base4IP11PathBrowserhbRKSsNS_15single_threadedEED2Ev, @function
 1042              	_ZN7sigslot17_connection_base4IP11PathBrowserhbRKSsNS_15single_threadedEED2Ev:
 1043              	.LFB1921:
 1044              		.loc 1 398 0
 1045              		.cfi_startproc
 1046              	.LVL84:
 1047              	.LBB2260:
 1048              		.loc 1 398 0
 1049 0000 3D200000 		lis 9,_ZTVN7sigslot17_connection_base4IP11PathBrowserhbRKSsNS_15single_threadedEEE+8@ha
 1050              	.LBE2260:
 1051              	.LBB2261:
 1052 0004 38090008 		la 0,_ZTVN7sigslot17_connection_base4IP11PathBrowserhbRKSsNS_15single_threadedEEE+8@l(9)
 1053 0008 90030000 		stw 0,0(3)
 1054              	.LBE2261:
 1055 000c 4E800020 		blr
 1056              		.cfi_endproc
 1057              	.LFE1921:
 1058              		.size	_ZN7sigslot17_connection_base4IP11PathBrowserhbRKSsNS_15single_threadedEED2Ev, .-_ZN7sigslot
 1059              		.section	.text._ZN7sigslot12_connection4I15GuiSettingsMenuP11PathBrowserhbRKSsNS_15single_threaded
 1060              		.align 2
 1061              		.weak	_ZN7sigslot12_connection4I15GuiSettingsMenuP11PathBrowserhbRKSsNS_15single_threadedEED2Ev
 1062              		.type	_ZN7sigslot12_connection4I15GuiSettingsMenuP11PathBrowserhbRKSsNS_15single_threadedEED2Ev, @
 1063              	_ZN7sigslot12_connection4I15GuiSettingsMenuP11PathBrowserhbRKSsNS_15single_threadedEED2Ev:
 1064              	.LFB2252:
 1065              		.loc 1 1833 0
 1066              		.cfi_startproc
 1067              	.LVL85:
 1068              	.LBB2262:
 1069              	.LBB2263:
 1070              	.LBB2264:
 1071              	.LBB2265:
 1072              		.loc 1 398 0
 1073 0000 3D200000 		lis 9,_ZTVN7sigslot17_connection_base4IP11PathBrowserhbRKSsNS_15single_threadedEEE+8@ha
 1074              	.LBE2265:
 1075              	.LBE2264:
 1076              	.LBE2263:
 1077              	.LBE2262:
 1078              		.loc 1 1836 0
 1079              	.LBB2269:
 1080              	.LBB2268:
 1081              	.LBB2267:
 1082              	.LBB2266:
 1083              		.loc 1 398 0
 1084 0004 38090008 		la 0,_ZTVN7sigslot17_connection_base4IP11PathBrowserhbRKSsNS_15single_threadedEEE+8@l(9)
 1085 0008 90030000 		stw 0,0(3)
 1086              	.LBE2266:
 1087              	.LBE2267:
 1088              	.LBE2268:
 1089              	.LBE2269:
 1090              		.loc 1 1836 0
 1091 000c 4E800020 		blr
 1092              		.cfi_endproc
 1093              	.LFE2252:
 1094              		.size	_ZN7sigslot12_connection4I15GuiSettingsMenuP11PathBrowserhbRKSsNS_15single_threadedEED2Ev, .
 1095              		.section	.text._ZNK7sigslot12_connection4I15GuiSettingsMenuP11PathBrowserhbRKSsNS_15single_threade
 1096              		.align 2
 1097              		.weak	_ZNK7sigslot12_connection4I15GuiSettingsMenuP11PathBrowserhbRKSsNS_15single_threadedEE7getde
 1098              		.type	_ZNK7sigslot12_connection4I15GuiSettingsMenuP11PathBrowserhbRKSsNS_15single_threadedEE7getde
 1099              	_ZNK7sigslot12_connection4I15GuiSettingsMenuP11PathBrowserhbRKSsNS_15single_threadedEE7getdestEv:
 1100              	.LFB2255:
 1101              		.loc 1 1854 0
 1102              		.cfi_startproc
 1103              	.LVL86:
 1104              		.loc 1 1856 0
 1105 0000 81230004 		lwz 9,4(3)
 1106 0004 38600000 		li 3,0
 1107              	.LVL87:
 1108 0008 2F890000 		cmpwi 7,9,0
 1109 000c 4D9E0020 		beqlr- 7
 1110              		.loc 1 1856 0 is_stmt 0 discriminator 1
 1111 0010 386900B0 		addi 3,9,176
 1112              		.loc 1 1857 0 is_stmt 1 discriminator 1
 1113 0014 4E800020 		blr
 1114              		.cfi_endproc
 1115              	.LFE2255:
 1116              		.size	_ZNK7sigslot12_connection4I15GuiSettingsMenuP11PathBrowserhbRKSsNS_15single_threadedEE7getde
 1117              		.section	.text._ZN7sigslot12_connection4I15GuiSettingsMenuP11PathBrowserhbRKSsNS_15single_threaded
 1118              		.align 2
 1119              		.weak	_ZN7sigslot12_connection4I15GuiSettingsMenuP11PathBrowserhbRKSsNS_15single_threadedEE4emitES
 1120              		.type	_ZN7sigslot12_connection4I15GuiSettingsMenuP11PathBrowserhbRKSsNS_15single_threadedEE4emitES
 1121              	_ZN7sigslot12_connection4I15GuiSettingsMenuP11PathBrowserhbRKSsNS_15single_threadedEE4emitES3_hbS5_
 1122              	.LFB2256:
 1123              		.loc 1 1848 0
 1124              		.cfi_startproc
 1125              	.LVL88:
 1126 0000 7C0802A6 		mflr 0
 1127 0004 9421FFF8 		stwu 1,-8(1)
 1128              	.LCFI18:
 1129              		.cfi_def_cfa_offset 8
 1130              		.cfi_register 65, 0
 1131 0008 9001000C 		stw 0,12(1)
 1132              		.loc 1 1851 0
 1133 000c 80030008 		lwz 0,8(3)
 1134              		.cfi_offset 65, 4
 1135 0010 81630004 		lwz 11,4(3)
 1136 0014 70090001 		andi. 9,0,1
 1137 0018 8123000C 		lwz 9,12(3)
 1138 001c 40820020 		bne- 0,.L73
 1139 0020 7C0903A6 		mtctr 0
 1140 0024 7C6B4A14 		add 3,11,9
 1141              	.LVL89:
 1142 0028 4E800421 		bctrl
 1143              	.LVL90:
 1144              		.loc 1 1852 0
 1145 002c 8001000C 		lwz 0,12(1)
 1146 0030 38210008 		addi 1,1,8
 1147              		.cfi_remember_state
 1148              	.LCFI19:
 1149              		.cfi_def_cfa_offset 0
 1150 0034 7C0803A6 		mtlr 0
 1151 0038 4E800020 		blr
 1152              	.LVL91:
 1153              	.L73:
 1154              	.LCFI20:
 1155              		.cfi_restore_state
 1156              		.loc 1 1851 0 discriminator 1
 1157 003c 7D4B482E 		lwzx 10,11,9
 1158 0040 7C6B4A14 		add 3,11,9
 1159              	.LVL92:
 1160 0044 7D2A0214 		add 9,10,0
 1161 0048 8009FFFF 		lwz 0,-1(9)
 1162 004c 7C0903A6 		mtctr 0
 1163 0050 4E800421 		bctrl
 1164              	.LVL93:
 1165              		.loc 1 1852 0 discriminator 1
 1166 0054 8001000C 		lwz 0,12(1)
 1167 0058 38210008 		addi 1,1,8
 1168              	.LCFI21:
 1169              		.cfi_def_cfa_offset 0
 1170 005c 7C0803A6 		mtlr 0
 1171 0060 4E800020 		blr
 1172              		.cfi_endproc
 1173              	.LFE2256:
 1174              		.size	_ZN7sigslot12_connection4I15GuiSettingsMenuP11PathBrowserhbRKSsNS_15single_threadedEE4emitES
 1175              		.section	.text._ZN15GuiSettingsMenuD1Ev,"axG",@progbits,_ZN15GuiSettingsMenuD1Ev,comdat
 1176              		.align 2
 1177              		.weak	_ZThn176_N15GuiSettingsMenuD1Ev
 1178              		.type	_ZThn176_N15GuiSettingsMenuD1Ev, @function
 1179              	_ZThn176_N15GuiSettingsMenuD1Ev:
 1180              	.LFB2421:
 1181              		.cfi_startproc
 1182 0000 3863FF50 		addi 3,3,-176
 1183 0004 48000000 		b .LTHUNK0
 1184              		.cfi_endproc
 1185              	.LFE2421:
 1186              		.size	_ZThn176_N15GuiSettingsMenuD1Ev, .-_ZThn176_N15GuiSettingsMenuD1Ev
 1187              		.section	.text._ZN15GuiSettingsMenuD2Ev,"axG",@progbits,_ZN15GuiSettingsMenuD5Ev,comdat
 1188              		.align 2
 1189              		.weak	_ZN15GuiSettingsMenuD2Ev
 1190              		.type	_ZN15GuiSettingsMenuD2Ev, @function
 1191              	_ZN15GuiSettingsMenuD2Ev:
 1192              	.LFB2244:
 1193              		.file 4 "d:/Projects/SaveGameManager/savegame-manager-gx/trunk/source/Settings/menus/GUISettingsMe
 1194              		.loc 4 30 0
 1195              		.cfi_startproc
 1196              	.LVL94:
 1197 0000 7C0802A6 		mflr 0
 1198 0004 9421FFF8 		stwu 1,-8(1)
 1199              	.LCFI22:
 1200              		.cfi_def_cfa_offset 8
 1201              		.cfi_register 65, 0
 1202              	.LBB2271:
 1203 0008 3D600000 		lis 11,_ZTV15GuiSettingsMenu+8@ha
 1204 000c 396B0008 		la 11,_ZTV15GuiSettingsMenu+8@l(11)
 1205              	.LBE2271:
 1206 0010 9001000C 		stw 0,12(1)
 1207              	.LBB2272:
 1208              		.loc 4 30 0
 1209 0014 380B00F0 		addi 0,11,240
 1210              		.cfi_offset 65, 4
 1211 0018 900300B0 		stw 0,176(3)
 1212 001c 91630000 		stw 11,0(3)
 1213 0020 48000001 		bl _ZN15SettingsBrowserD2Ev
 1214              	.LVL95:
 1215              	.LBE2272:
 1216 0024 8001000C 		lwz 0,12(1)
 1217 0028 38210008 		addi 1,1,8
 1218              	.LCFI23:
 1219              		.cfi_def_cfa_offset 0
 1220 002c 7C0803A6 		mtlr 0
 1221 0030 4E800020 		blr
 1222              		.cfi_endproc
 1223              	.LFE2244:
 1224              		.size	_ZN15GuiSettingsMenuD2Ev, .-_ZN15GuiSettingsMenuD2Ev
 1225              		.section	.text._ZN7sigslot12_connection4I15GuiSettingsMenuP11PathBrowserhbRKSsNS_15single_threaded
 1226              		.align 2
 1227              		.weak	_ZN7sigslot12_connection4I15GuiSettingsMenuP11PathBrowserhbRKSsNS_15single_threadedEED0Ev
 1228              		.type	_ZN7sigslot12_connection4I15GuiSettingsMenuP11PathBrowserhbRKSsNS_15single_threadedEED0Ev, @
 1229              	_ZN7sigslot12_connection4I15GuiSettingsMenuP11PathBrowserhbRKSsNS_15single_threadedEED0Ev:
 1230              	.LFB2254:
 1231              		.loc 1 1833 0
 1232              		.cfi_startproc
 1233              	.LVL96:
 1234 0000 7C0802A6 		mflr 0
 1235 0004 9421FFF8 		stwu 1,-8(1)
 1236              	.LCFI24:
 1237              		.cfi_def_cfa_offset 8
 1238              		.cfi_register 65, 0
 1239              	.LBB2273:
 1240              	.LBB2274:
 1241              	.LBB2275:
 1242              	.LBB2276:
 1243              	.LBB2277:
 1244              	.LBB2278:
 1245              		.loc 1 398 0
 1246 0008 3D200000 		lis 9,_ZTVN7sigslot17_connection_base4IP11PathBrowserhbRKSsNS_15single_threadedEEE+8@ha
 1247              	.LBE2278:
 1248              	.LBE2277:
 1249              	.LBE2276:
 1250              	.LBE2275:
 1251              	.LBE2274:
 1252              	.LBE2273:
 1253              		.loc 1 1833 0
 1254 000c 9001000C 		stw 0,12(1)
 1255              	.LBB2284:
 1256              	.LBB2283:
 1257              	.LBB2282:
 1258              	.LBB2281:
 1259              	.LBB2280:
 1260              	.LBB2279:
 1261              		.loc 1 398 0
 1262 0010 38090008 		la 0,_ZTVN7sigslot17_connection_base4IP11PathBrowserhbRKSsNS_15single_threadedEEE+8@l(9)
 1263              		.cfi_offset 65, 4
 1264 0014 90030000 		stw 0,0(3)
 1265              	.LBE2279:
 1266              	.LBE2280:
 1267              	.LBE2281:
 1268              	.LBE2282:
 1269              	.LBE2283:
 1270              	.LBE2284:
 1271              		.loc 1 1836 0
 1272 0018 48000001 		bl _ZdlPv
 1273              	.LVL97:
 1274 001c 8001000C 		lwz 0,12(1)
 1275 0020 38210008 		addi 1,1,8
 1276              	.LCFI25:
 1277              		.cfi_def_cfa_offset 0
 1278 0024 7C0803A6 		mtlr 0
 1279 0028 4E800020 		blr
 1280              		.cfi_endproc
 1281              	.LFE2254:
 1282              		.size	_ZN7sigslot12_connection4I15GuiSettingsMenuP11PathBrowserhbRKSsNS_15single_threadedEED0Ev, .
 1283              		.section	.text._ZN7sigslot17_connection_base4IP11PathBrowserhbRKSsNS_15single_threadedEED0Ev,"axG"
 1284              		.align 2
 1285              		.weak	_ZN7sigslot17_connection_base4IP11PathBrowserhbRKSsNS_15single_threadedEED0Ev
 1286              		.type	_ZN7sigslot17_connection_base4IP11PathBrowserhbRKSsNS_15single_threadedEED0Ev, @function
 1287              	_ZN7sigslot17_connection_base4IP11PathBrowserhbRKSsNS_15single_threadedEED0Ev:
 1288              	.LFB1923:
 1289              		.loc 1 398 0
 1290              		.cfi_startproc
 1291              	.LVL98:
 1292 0000 7C0802A6 		mflr 0
 1293 0004 9421FFF8 		stwu 1,-8(1)
 1294              	.LCFI26:
 1295              		.cfi_def_cfa_offset 8
 1296              		.cfi_register 65, 0
 1297              	.LBB2285:
 1298              	.LBB2286:
 1299              	.LBB2287:
 1300 0008 3D200000 		lis 9,_ZTVN7sigslot17_connection_base4IP11PathBrowserhbRKSsNS_15single_threadedEEE+8@ha
 1301              	.LBE2287:
 1302              	.LBE2286:
 1303              	.LBE2285:
 1304 000c 9001000C 		stw 0,12(1)
 1305              	.LBB2290:
 1306              	.LBB2289:
 1307              	.LBB2288:
 1308              		.loc 1 398 0
 1309 0010 38090008 		la 0,_ZTVN7sigslot17_connection_base4IP11PathBrowserhbRKSsNS_15single_threadedEEE+8@l(9)
 1310              		.cfi_offset 65, 4
 1311 0014 90030000 		stw 0,0(3)
 1312              	.LBE2288:
 1313              	.LBE2289:
 1314              	.LBE2290:
 1315 0018 48000001 		bl _ZdlPv
 1316              	.LVL99:
 1317 001c 8001000C 		lwz 0,12(1)
 1318 0020 38210008 		addi 1,1,8
 1319              	.LCFI27:
 1320              		.cfi_def_cfa_offset 0
 1321 0024 7C0803A6 		mtlr 0
 1322 0028 4E800020 		blr
 1323              		.cfi_endproc
 1324              	.LFE1923:
 1325              		.size	_ZN7sigslot17_connection_base4IP11PathBrowserhbRKSsNS_15single_threadedEED0Ev, .-_ZN7sigslot
 1326              		.section	.text._ZN7sigslot12_connection4I15GuiSettingsMenuP11PathBrowserhbRKSsNS_15single_threaded
 1327              		.align 2
 1328              		.weak	_ZN7sigslot12_connection4I15GuiSettingsMenuP11PathBrowserhbRKSsNS_15single_threadedEE9duplic
 1329              		.type	_ZN7sigslot12_connection4I15GuiSettingsMenuP11PathBrowserhbRKSsNS_15single_threadedEE9duplic
 1330              	_ZN7sigslot12_connection4I15GuiSettingsMenuP11PathBrowserhbRKSsNS_15single_threadedEE9duplicateEPNS
 1331              	.LFB2264:
 1332              		.loc 1 1843 0
 1333              		.cfi_startproc
 1334              	.LVL100:
 1335 0000 9421FFF0 		stwu 1,-16(1)
 1336              	.LCFI28:
 1337              		.cfi_def_cfa_offset 16
 1338 0004 7C0802A6 		mflr 0
 1339 0008 93C10008 		stw 30,8(1)
 1340 000c 7C9E2378 		mr 30,4
 1341              		.cfi_offset 30, -8
 1342              		.cfi_register 65, 0
 1343 0010 93E1000C 		stw 31,12(1)
 1344 0014 7C7F1B78 		mr 31,3
 1345              		.cfi_offset 31, -4
 1346              		.loc 1 1845 0
 1347 0018 38600010 		li 3,16
 1348              	.LVL101:
 1349              		.loc 1 1843 0
 1350 001c 90010014 		stw 0,20(1)
 1351              		.loc 1 1845 0
 1352              		.cfi_offset 65, 4
 1353 0020 48000001 		bl _Znwj
 1354              	.LVL102:
 1355 0024 2F9E0000 		cmpwi 7,30,0
 1356 0028 38000000 		li 0,0
 1357 002c 419E0008 		beq- 7,.L85
 1358              		.loc 1 1845 0 is_stmt 0 discriminator 1
 1359 0030 381EFF50 		addi 0,30,-176
 1360              	.L85:
 1361              	.LVL103:
 1362              		.loc 1 1845 0 discriminator 3
 1363 0034 817F0008 		lwz 11,8(31)
 1364              	.LVL104:
 1365              	.LBB2291:
 1366              	.LBB2292:
 1367              		.loc 1 1828 0 is_stmt 1 discriminator 3
 1368 0038 3D400000 		lis 10,_ZTVN7sigslot12_connection4I15GuiSettingsMenuP11PathBrowserhbRKSsNS_15single_threadedEEE+8@
 1369              	.LBE2292:
 1370              	.LBE2291:
 1371              		.loc 1 1845 0 discriminator 3
 1372 003c 813F000C 		lwz 9,12(31)
 1373              	.LVL105:
 1374              	.LBB2295:
 1375              	.LBB2293:
 1376              		.loc 1 1828 0 discriminator 3
 1377 0040 394A0008 		la 10,_ZTVN7sigslot12_connection4I15GuiSettingsMenuP11PathBrowserhbRKSsNS_15single_threadedEEE+8@l
 1378              		.loc 1 1830 0 discriminator 3
 1379 0044 91630008 		stw 11,8(3)
 1380 0048 9123000C 		stw 9,12(3)
 1381              		.loc 1 1829 0 discriminator 3
 1382 004c 90030004 		stw 0,4(3)
 1383              	.LBE2293:
 1384              	.LBE2295:
 1385              		.loc 1 1846 0 discriminator 3
 1386 0050 80010014 		lwz 0,20(1)
 1387              	.LVL106:
 1388 0054 83C10008 		lwz 30,8(1)
 1389              	.LVL107:
 1390 0058 7C0803A6 		mtlr 0
 1391 005c 83E1000C 		lwz 31,12(1)
 1392              	.LVL108:
 1393              	.LBB2296:
 1394              	.LBB2294:
 1395              		.loc 1 1828 0 discriminator 3
 1396 0060 91430000 		stw 10,0(3)
 1397              	.LBE2294:
 1398              	.LBE2296:
 1399              		.loc 1 1846 0 discriminator 3
 1400 0064 38210010 		addi 1,1,16
 1401              	.LCFI29:
 1402              		.cfi_def_cfa_offset 0
 1403              		.cfi_restore 31
 1404              		.cfi_restore 30
 1405 0068 4E800020 		blr
 1406              		.cfi_endproc
 1407              	.LFE2264:
 1408              		.size	_ZN7sigslot12_connection4I15GuiSettingsMenuP11PathBrowserhbRKSsNS_15single_threadedEE9duplic
 1409              		.section	.text._ZN7sigslot12_connection4I15GuiSettingsMenuP11PathBrowserhbRKSsNS_15single_threaded
 1410              		.align 2
 1411              		.weak	_ZN7sigslot12_connection4I15GuiSettingsMenuP11PathBrowserhbRKSsNS_15single_threadedEE5cloneE
 1412              		.type	_ZN7sigslot12_connection4I15GuiSettingsMenuP11PathBrowserhbRKSsNS_15single_threadedEE5cloneE
 1413              	_ZN7sigslot12_connection4I15GuiSettingsMenuP11PathBrowserhbRKSsNS_15single_threadedEE5cloneEv:
 1414              	.LFB2257:
 1415              		.loc 1 1838 0
 1416              		.cfi_startproc
 1417              	.LVL109:
 1418 0000 9421FFF0 		stwu 1,-16(1)
 1419              	.LCFI30:
 1420              		.cfi_def_cfa_offset 16
 1421 0004 7C0802A6 		mflr 0
 1422 0008 93E1000C 		stw 31,12(1)
 1423 000c 7C7F1B78 		mr 31,3
 1424              		.cfi_offset 31, -4
 1425              		.cfi_register 65, 0
 1426              		.loc 1 1840 0
 1427 0010 38600010 		li 3,16
 1428              	.LVL110:
 1429              		.loc 1 1838 0
 1430 0014 90010014 		stw 0,20(1)
 1431              		.loc 1 1840 0
 1432              		.cfi_offset 65, 4
 1433 0018 48000001 		bl _Znwj
 1434              		.file 5 "d:/Projects/SaveGameManager/savegame-manager-gx/trunk/source/Settings/menus/GUISettingsMe
 1435              		.loc 5 217 0
 1436 001c 801F0004 		lwz 0,4(31)
 1437              	.LVL111:
 1438              	.LBB2297:
 1439              	.LBB2298:
 1440              		.loc 1 1816 0
 1441 0020 3D600000 		lis 11,_ZTVN7sigslot12_connection4I15GuiSettingsMenuP11PathBrowserhbRKSsNS_15single_threadedEEE+8@
 1442 0024 396B0008 		la 11,_ZTVN7sigslot12_connection4I15GuiSettingsMenuP11PathBrowserhbRKSsNS_15single_threadedEEE+8@l
 1443 0028 90030004 		stw 0,4(3)
 1444 002c 91630000 		stw 11,0(3)
 1445 0030 815F0008 		lwz 10,8(31)
 1446 0034 817F000C 		lwz 11,12(31)
 1447 0038 91430008 		stw 10,8(3)
 1448 003c 9163000C 		stw 11,12(3)
 1449              	.LBE2298:
 1450              	.LBE2297:
 1451              		.loc 1 1841 0
 1452 0040 80010014 		lwz 0,20(1)
 1453 0044 83E1000C 		lwz 31,12(1)
 1454              	.LVL112:
 1455 0048 7C0803A6 		mtlr 0
 1456 004c 38210010 		addi 1,1,16
 1457              	.LCFI31:
 1458              		.cfi_def_cfa_offset 0
 1459              		.cfi_restore 31
 1460 0050 4E800020 		blr
 1461              		.cfi_endproc
 1462              	.LFE2257:
 1463              		.size	_ZN7sigslot12_connection4I15GuiSettingsMenuP11PathBrowserhbRKSsNS_15single_threadedEE5cloneE
 1464              		.section	".text"
 1465              		.align 2
 1466              		.globl _ZN15GuiSettingsMenu15SetOptionValuesEv
 1467              		.type	_ZN15GuiSettingsMenu15SetOptionValuesEv, @function
 1468              	_ZN15GuiSettingsMenu15SetOptionValuesEv:
 1469              	.LFB1666:
 1470              		.loc 5 82 0
 1471              		.cfi_startproc
 1472              	.LVL113:
 1473 0000 9421FFC8 		stwu 1,-56(1)
 1474              	.LCFI32:
 1475              		.cfi_def_cfa_offset 56
 1476 0004 7C0802A6 		mflr 0
 1477              	.LBB2299:
 1478              		.loc 5 86 0
 1479 0008 3880002F 		li 4,47
 1480              	.LBE2299:
 1481              		.loc 5 82 0
 1482 000c 93E10034 		stw 31,52(1)
 1483              	.LBB2300:
 1484              		.loc 5 86 0
 1485 0010 3FE00000 		lis 31,Settings+1318@ha
 1486              		.cfi_offset 31, -4
 1487              		.cfi_register 65, 0
 1488 0014 3BFF0526 		la 31,Settings+1318@l(31)
 1489              	.LBE2300:
 1490              		.loc 5 82 0
 1491 0018 93C10030 		stw 30,48(1)
 1492 001c 7C7E1B78 		mr 30,3
 1493              		.cfi_offset 30, -8
 1494              	.LBB2301:
 1495              		.loc 5 86 0
 1496 0020 7FE3FB78 		mr 3,31
 1497              	.LVL114:
 1498              	.LBE2301:
 1499              		.loc 5 82 0
 1500 0024 9001003C 		stw 0,60(1)
 1501 0028 3BFFFADA 		addi 31,31,-1318
 1502 002c 92A1000C 		stw 21,12(1)
 1503 0030 92C10010 		stw 22,16(1)
 1504 0034 92E10014 		stw 23,20(1)
 1505 0038 93010018 		stw 24,24(1)
 1506 003c 9321001C 		stw 25,28(1)
 1507 0040 93410020 		stw 26,32(1)
 1508 0044 93610024 		stw 27,36(1)
 1509 0048 93810028 		stw 28,40(1)
 1510 004c 93A1002C 		stw 29,44(1)
 1511              	.LBB2302:
 1512              		.loc 5 86 0
 1513              		.cfi_offset 29, -12
 1514              		.cfi_offset 28, -16
 1515              		.cfi_offset 27, -20
 1516              		.cfi_offset 26, -24
 1517              		.cfi_offset 25, -28
 1518              		.cfi_offset 24, -32
 1519              		.cfi_offset 23, -36
 1520              		.cfi_offset 22, -40
 1521              		.cfi_offset 21, -44
 1522              		.cfi_offset 65, 4
 1523 0050 48000001 		bl strrchr
 1524              	.LVL115:
 1525              		.loc 5 87 0
 1526 0054 2C030000 		cmpwi 0,3,0
 1527 0058 41820018 		beq- 0,.L89
 1528              	.LVL116:
 1529              		.loc 5 89 0
 1530 005c 34A30001 		addic. 5,3,1
 1531 0060 41820010 		beq- 0,.L89
 1532              		.loc 5 89 0 is_stmt 0 discriminator 1
 1533 0064 881F0526 		lbz 0,1318(31)
 1534 0068 2F800000 		cmpwi 7,0,0
 1535 006c 409E01F0 		bne- 7,.L90
 1536              	.LVL117:
 1537              	.L89:
 1538              		.loc 5 90 0 is_stmt 1
 1539 0070 3C600000 		lis 3,.LC4@ha
 1540 0074 83BE00CC 		lwz 29,204(30)
 1541              	.LVL118:
 1542 0078 38630000 		la 3,.LC4@l(3)
 1543 007c 48000001 		bl gettext
 1544 0080 38800000 		li 4,0
 1545 0084 7C651B78 		mr 5,3
 1546 0088 7FA3EB78 		mr 3,29
 1547 008c 4CC63182 		crxor 6,6,6
 1548 0090 48000001 		bl _ZN10OptionList8SetValueEiPKcz
 1549              	.L91:
 1550              		.loc 5 95 0
 1551 0094 A81F0066 		lha 0,102(31)
 1552 0098 2F800001 		cmpwi 7,0,1
 1553 009c 419E01D4 		beq- 7,.L101
 1554              		.loc 5 97 0
 1555 00a0 2F800002 		cmpwi 7,0,2
 1556 00a4 419E01FC 		beq- 7,.L102
 1557              		.loc 5 99 0
 1558 00a8 2F800000 		cmpwi 7,0,0
 1559 00ac 419E016C 		beq- 7,.L103
 1560 00b0 3B800007 		li 28,7
 1561 00b4 3B600006 		li 27,6
 1562 00b8 3B400005 		li 26,5
 1563 00bc 3B200004 		li 25,4
 1564 00c0 3B000003 		li 24,3
 1565 00c4 3AE00002 		li 23,2
 1566 00c8 3AA00001 		li 21,1
 1567              	.LVL119:
 1568              	.L93:
 1569              		.loc 5 103 0
 1570 00cc A81F0068 		lha 0,104(31)
 1571 00d0 3FA00000 		lis 29,.LANCHOR0@ha
 1572 00d4 3BBD0024 		la 29,.LANCHOR0@l(29)
 1573 00d8 82DE00CC 		lwz 22,204(30)
 1574              	.LVL120:
 1575 00dc 5400103A 		slwi 0,0,2
 1576 00e0 7C7D002E 		lwzx 3,29,0
 1577 00e4 48000001 		bl gettext
 1578 00e8 7EA4AB78 		mr 4,21
 1579 00ec 7C651B78 		mr 5,3
 1580 00f0 7EC3B378 		mr 3,22
 1581 00f4 4CC63182 		crxor 6,6,6
 1582 00f8 48000001 		bl _ZN10OptionList8SetValueEiPKcz
 1583              		.loc 5 106 0
 1584 00fc 3C600000 		lis 3,.LC9@ha
 1585 0100 82DE00CC 		lwz 22,204(30)
 1586              	.LVL121:
 1587 0104 38630024 		la 3,.LC9@l(3)
 1588 0108 82BF006C 		lwz 21,108(31)
 1589 010c 48000001 		bl gettext
 1590 0110 3CA00000 		lis 5,.LC10@ha
 1591 0114 7C671B78 		mr 7,3
 1592 0118 7EA6AB78 		mr 6,21
 1593 011c 7EE4BB78 		mr 4,23
 1594 0120 7EC3B378 		mr 3,22
 1595 0124 38A5002C 		la 5,.LC10@l(5)
 1596 0128 4CC63182 		crxor 6,6,6
 1597 012c 48000001 		bl _ZN10OptionList8SetValueEiPKcz
 1598              		.loc 5 109 0
 1599 0130 A93F008C 		lha 9,140(31)
 1600 0134 82FE00CC 		lwz 23,204(30)
 1601              	.LVL122:
 1602 0138 5529103A 		slwi 9,9,2
 1603 013c 7D3D4A14 		add 9,29,9
 1604 0140 80690008 		lwz 3,8(9)
 1605 0144 48000001 		bl gettext
 1606 0148 7F04C378 		mr 4,24
 1607 014c 7C651B78 		mr 5,3
 1608              		.loc 5 112 0
 1609 0150 3F000000 		lis 24,.LC11@ha
 1610              		.loc 5 109 0
 1611 0154 7EE3BB78 		mr 3,23
 1612              		.loc 5 112 0
 1613 0158 3B180034 		la 24,.LC11@l(24)
 1614              		.loc 5 109 0
 1615 015c 4CC63182 		crxor 6,6,6
 1616 0160 48000001 		bl _ZN10OptionList8SetValueEiPKcz
 1617              	.LVL123:
 1618              		.loc 5 112 0
 1619 0164 A8DF007E 		lha 6,126(31)
 1620 0168 807E00CC 		lwz 3,204(30)
 1621 016c 7F24CB78 		mr 4,25
 1622 0170 7F05C378 		mr 5,24
 1623 0174 4CC63182 		crxor 6,6,6
 1624 0178 48000001 		bl _ZN10OptionList8SetValueEiPKcz
 1625              		.loc 5 115 0
 1626 017c A81F008A 		lha 0,138(31)
 1627 0180 833E00CC 		lwz 25,204(30)
 1628              	.LVL124:
 1629 0184 5400103A 		slwi 0,0,2
 1630 0188 7FBD0214 		add 29,29,0
 1631 018c 807D0014 		lwz 3,20(29)
 1632 0190 48000001 		bl gettext
 1633 0194 7F44D378 		mr 4,26
 1634 0198 7C651B78 		mr 5,3
 1635 019c 7F23CB78 		mr 3,25
 1636 01a0 4CC63182 		crxor 6,6,6
 1637 01a4 48000001 		bl _ZN10OptionList8SetValueEiPKcz
 1638              	.LVL125:
 1639              		.loc 5 118 0
 1640 01a8 807E00CC 		lwz 3,204(30)
 1641 01ac C03F0078 		lfs 1,120(31)
 1642 01b0 3CA00000 		lis 5,.LC12@ha
 1643 01b4 7F64DB78 		mr 4,27
 1644 01b8 38A50038 		la 5,.LC12@l(5)
 1645 01bc 4CC63242 		creqv 6,6,6
 1646 01c0 48000001 		bl _ZN10OptionList8SetValueEiPKcz
 1647              	.LVL126:
 1648              		.loc 5 121 0
 1649 01c4 807E00CC 		lwz 3,204(30)
 1650 01c8 A8DF007C 		lha 6,124(31)
 1651 01cc 7F84E378 		mr 4,28
 1652 01d0 7F05C378 		mr 5,24
 1653 01d4 4CC63182 		crxor 6,6,6
 1654 01d8 48000001 		bl _ZN10OptionList8SetValueEiPKcz
 1655              	.LBE2302:
 1656              		.loc 5 122 0
 1657 01dc 8001003C 		lwz 0,60(1)
 1658 01e0 82A1000C 		lwz 21,12(1)
 1659 01e4 7C0803A6 		mtlr 0
 1660 01e8 82C10010 		lwz 22,16(1)
 1661 01ec 82E10014 		lwz 23,20(1)
 1662 01f0 83010018 		lwz 24,24(1)
 1663 01f4 8321001C 		lwz 25,28(1)
 1664 01f8 83410020 		lwz 26,32(1)
 1665 01fc 83610024 		lwz 27,36(1)
 1666 0200 83810028 		lwz 28,40(1)
 1667              	.LVL127:
 1668 0204 83A1002C 		lwz 29,44(1)
 1669 0208 83C10030 		lwz 30,48(1)
 1670              	.LVL128:
 1671 020c 83E10034 		lwz 31,52(1)
 1672 0210 38210038 		addi 1,1,56
 1673              		.cfi_remember_state
 1674              	.LCFI33:
 1675              		.cfi_def_cfa_offset 0
 1676              		.cfi_restore 31
 1677              		.cfi_restore 30
 1678              		.cfi_restore 29
 1679              		.cfi_restore 28
 1680              		.cfi_restore 27
 1681              		.cfi_restore 26
 1682              		.cfi_restore 25
 1683              		.cfi_restore 24
 1684              		.cfi_restore 23
 1685              		.cfi_restore 22
 1686              		.cfi_restore 21
 1687 0214 4E800020 		blr
 1688              	.LVL129:
 1689              	.L103:
 1690              	.LCFI34:
 1691              		.cfi_restore_state
 1692              	.LBB2303:
 1693              		.loc 5 100 0
 1694 0218 3C600000 		lis 3,.LC8@ha
 1695 021c 83BE00CC 		lwz 29,204(30)
 1696              	.LVL130:
 1697 0220 38630020 		la 3,.LC8@l(3)
 1698 0224 48000001 		bl gettext
 1699 0228 38800001 		li 4,1
 1700 022c 7C651B78 		mr 5,3
 1701 0230 7FA3EB78 		mr 3,29
 1702 0234 4CC63182 		crxor 6,6,6
 1703 0238 48000001 		bl _ZN10OptionList8SetValueEiPKcz
 1704              	.L100:
 1705 023c 3B800008 		li 28,8
 1706 0240 3B600007 		li 27,7
 1707 0244 3B400006 		li 26,6
 1708 0248 3B200005 		li 25,5
 1709 024c 3B000004 		li 24,4
 1710 0250 3AE00003 		li 23,3
 1711 0254 3AA00002 		li 21,2
 1712 0258 4BFFFE74 		b .L93
 1713              	.LVL131:
 1714              	.L90:
 1715              		.loc 5 92 0
 1716 025c 807E00CC 		lwz 3,204(30)
 1717 0260 38800000 		li 4,0
 1718 0264 4CC63182 		crxor 6,6,6
 1719 0268 48000001 		bl _ZN10OptionList8SetValueEiPKcz
 1720              	.LVL132:
 1721 026c 4BFFFE28 		b .L91
 1722              	.L101:
 1723              		.loc 5 96 0
 1724 0270 3C600000 		lis 3,.LC5@ha
 1725 0274 83BE00CC 		lwz 29,204(30)
 1726              	.LVL133:
 1727 0278 38630008 		la 3,.LC5@l(3)
 1728 027c 48000001 		bl gettext
 1729 0280 3CA00000 		lis 5,.LC6@ha
 1730 0284 7C661B78 		mr 6,3
 1731 0288 38800001 		li 4,1
 1732 028c 7FA3EB78 		mr 3,29
 1733 0290 38A50010 		la 5,.LC6@l(5)
 1734 0294 4CC63182 		crxor 6,6,6
 1735 0298 48000001 		bl _ZN10OptionList8SetValueEiPKcz
 1736 029c 4BFFFFA0 		b .L100
 1737              	.LVL134:
 1738              	.L102:
 1739              		.loc 5 98 0
 1740 02a0 3C600000 		lis 3,.LC5@ha
 1741 02a4 83BE00CC 		lwz 29,204(30)
 1742              	.LVL135:
 1743 02a8 38630008 		la 3,.LC5@l(3)
 1744 02ac 48000001 		bl gettext
 1745 02b0 3CA00000 		lis 5,.LC7@ha
 1746 02b4 7C661B78 		mr 6,3
 1747 02b8 38800001 		li 4,1
 1748 02bc 7FA3EB78 		mr 3,29
 1749 02c0 38A50018 		la 5,.LC7@l(5)
 1750 02c4 4CC63182 		crxor 6,6,6
 1751 02c8 48000001 		bl _ZN10OptionList8SetValueEiPKcz
 1752 02cc 4BFFFF70 		b .L100
 1753              	.LBE2303:
 1754              		.cfi_endproc
 1755              	.LFE1666:
 1756              		.size	_ZN15GuiSettingsMenu15SetOptionValuesEv, .-_ZN15GuiSettingsMenu15SetOptionValuesEv
 1757              		.align 2
 1758              		.globl _ZN15GuiSettingsMenu15SetupOptionNameEv
 1759              		.type	_ZN15GuiSettingsMenu15SetupOptionNameEv, @function
 1760              	_ZN15GuiSettingsMenu15SetupOptionNameEv:
 1761              	.LFB1665:
 1762              		.loc 5 65 0
 1763              		.cfi_startproc
 1764              	.LVL136:
 1765 02d0 7C0802A6 		mflr 0
 1766 02d4 9421FFF0 		stwu 1,-16(1)
 1767              	.LCFI35:
 1768              		.cfi_def_cfa_offset 16
 1769              		.cfi_register 65, 0
 1770 02d8 93C10008 		stw 30,8(1)
 1771 02dc 90010014 		stw 0,20(1)
 1772 02e0 93E1000C 		stw 31,12(1)
 1773              		.loc 5 65 0
 1774 02e4 7C7F1B78 		mr 31,3
 1775              		.cfi_offset 31, -4
 1776              		.cfi_offset 65, 4
 1777              		.cfi_offset 30, -8
 1778              	.LBB2304:
 1779              		.loc 5 68 0
 1780 02e8 83C300CC 		lwz 30,204(3)
 1781              	.LVL137:
 1782 02ec 3C600000 		lis 3,.LC13@ha
 1783              	.LVL138:
 1784 02f0 38630040 		la 3,.LC13@l(3)
 1785 02f4 48000001 		bl gettext
 1786 02f8 38800000 		li 4,0
 1787 02fc 7C651B78 		mr 5,3
 1788 0300 7FC3F378 		mr 3,30
 1789 0304 4CC63182 		crxor 6,6,6
 1790 0308 48000001 		bl _ZN10OptionList7SetNameEiPKcz
 1791              		.loc 5 69 0
 1792 030c 3C600000 		lis 3,.LC14@ha
 1793 0310 83DF00CC 		lwz 30,204(31)
 1794              	.LVL139:
 1795 0314 3863004C 		la 3,.LC14@l(3)
 1796 0318 48000001 		bl gettext
 1797 031c 38800001 		li 4,1
 1798 0320 7C651B78 		mr 5,3
 1799 0324 7FC3F378 		mr 3,30
 1800 0328 4CC63182 		crxor 6,6,6
 1801 032c 48000001 		bl _ZN10OptionList7SetNameEiPKcz
 1802              		.loc 5 70 0
 1803 0330 3C600000 		lis 3,.LC15@ha
 1804 0334 83DF00CC 		lwz 30,204(31)
 1805              	.LVL140:
 1806 0338 38630054 		la 3,.LC15@l(3)
 1807 033c 48000001 		bl gettext
 1808 0340 38800002 		li 4,2
 1809 0344 7C651B78 		mr 5,3
 1810 0348 7FC3F378 		mr 3,30
 1811 034c 4CC63182 		crxor 6,6,6
 1812 0350 48000001 		bl _ZN10OptionList7SetNameEiPKcz
 1813              		.loc 5 71 0
 1814 0354 3C600000 		lis 3,.LC16@ha
 1815 0358 83DF00CC 		lwz 30,204(31)
 1816              	.LVL141:
 1817 035c 38630060 		la 3,.LC16@l(3)
 1818 0360 48000001 		bl gettext
 1819 0364 38800003 		li 4,3
 1820 0368 7C651B78 		mr 5,3
 1821 036c 7FC3F378 		mr 3,30
 1822 0370 4CC63182 		crxor 6,6,6
 1823 0374 48000001 		bl _ZN10OptionList7SetNameEiPKcz
 1824              		.loc 5 72 0
 1825 0378 3C600000 		lis 3,.LC17@ha
 1826 037c 83DF00CC 		lwz 30,204(31)
 1827              	.LVL142:
 1828 0380 38630070 		la 3,.LC17@l(3)
 1829 0384 48000001 		bl gettext
 1830 0388 38800004 		li 4,4
 1831 038c 7C651B78 		mr 5,3
 1832 0390 7FC3F378 		mr 3,30
 1833 0394 4CC63182 		crxor 6,6,6
 1834 0398 48000001 		bl _ZN10OptionList7SetNameEiPKcz
 1835              		.loc 5 73 0
 1836 039c 3C600000 		lis 3,.LC18@ha
 1837 03a0 83DF00CC 		lwz 30,204(31)
 1838              	.LVL143:
 1839 03a4 3863007C 		la 3,.LC18@l(3)
 1840 03a8 48000001 		bl gettext
 1841 03ac 38800005 		li 4,5
 1842 03b0 7C651B78 		mr 5,3
 1843 03b4 7FC3F378 		mr 3,30
 1844 03b8 4CC63182 		crxor 6,6,6
 1845 03bc 48000001 		bl _ZN10OptionList7SetNameEiPKcz
 1846              		.loc 5 74 0
 1847 03c0 3C600000 		lis 3,.LC19@ha
 1848 03c4 83DF00CC 		lwz 30,204(31)
 1849              	.LVL144:
 1850 03c8 38630090 		la 3,.LC19@l(3)
 1851 03cc 48000001 		bl gettext
 1852 03d0 38800006 		li 4,6
 1853 03d4 7C651B78 		mr 5,3
 1854 03d8 7FC3F378 		mr 3,30
 1855 03dc 4CC63182 		crxor 6,6,6
 1856 03e0 48000001 		bl _ZN10OptionList7SetNameEiPKcz
 1857              		.loc 5 75 0
 1858 03e4 3C600000 		lis 3,.LC20@ha
 1859 03e8 83DF00CC 		lwz 30,204(31)
 1860              	.LVL145:
 1861 03ec 3863009C 		la 3,.LC20@l(3)
 1862 03f0 48000001 		bl gettext
 1863 03f4 38800007 		li 4,7
 1864 03f8 7C651B78 		mr 5,3
 1865 03fc 7FC3F378 		mr 3,30
 1866 0400 4CC63182 		crxor 6,6,6
 1867 0404 48000001 		bl _ZN10OptionList7SetNameEiPKcz
 1868              		.loc 5 76 0
 1869 0408 3C600000 		lis 3,.LC21@ha
 1870 040c 83DF00CC 		lwz 30,204(31)
 1871              	.LVL146:
 1872 0410 386300AC 		la 3,.LC21@l(3)
 1873 0414 48000001 		bl gettext
 1874 0418 38800008 		li 4,8
 1875 041c 7C651B78 		mr 5,3
 1876 0420 7FC3F378 		mr 3,30
 1877 0424 4CC63182 		crxor 6,6,6
 1878 0428 48000001 		bl _ZN10OptionList7SetNameEiPKcz
 1879              		.loc 5 78 0
 1880 042c 813F0000 		lwz 9,0(31)
 1881 0430 7FE3FB78 		mr 3,31
 1882 0434 800900E0 		lwz 0,224(9)
 1883 0438 7C0903A6 		mtctr 0
 1884 043c 4E800421 		bctrl
 1885              	.LBE2304:
 1886              		.loc 5 79 0
 1887 0440 80010014 		lwz 0,20(1)
 1888 0444 83C10008 		lwz 30,8(1)
 1889 0448 7C0803A6 		mtlr 0
 1890 044c 83E1000C 		lwz 31,12(1)
 1891              	.LVL147:
 1892 0450 38210010 		addi 1,1,16
 1893              	.LCFI36:
 1894              		.cfi_def_cfa_offset 0
 1895              		.cfi_restore 31
 1896              		.cfi_restore 30
 1897 0454 4E800020 		blr
 1898              		.cfi_endproc
 1899              	.LFE1665:
 1900              		.size	_ZN15GuiSettingsMenu15SetupOptionNameEv, .-_ZN15GuiSettingsMenu15SetupOptionNameEv
 1901              		.section	.text._ZN15GuiSettingsMenuD0Ev,"axG",@progbits,_ZN15GuiSettingsMenuD0Ev,comdat
 1902              		.align 2
 1903              		.weak	_ZThn176_N15GuiSettingsMenuD0Ev
 1904              		.type	_ZThn176_N15GuiSettingsMenuD0Ev, @function
 1905              	_ZThn176_N15GuiSettingsMenuD0Ev:
 1906              	.LFB2423:
 1907              		.cfi_startproc
 1908 0000 3863FF50 		addi 3,3,-176
 1909 0004 48000004 		b .LTHUNK1
 1910              		.cfi_endproc
 1911              	.LFE2423:
 1912              		.size	_ZThn176_N15GuiSettingsMenuD0Ev, .-_ZThn176_N15GuiSettingsMenuD0Ev
 1913              		.align 2
 1914              		.weak	_ZN15GuiSettingsMenuD0Ev
 1915              		.type	_ZN15GuiSettingsMenuD0Ev, @function
 1916              	_ZN15GuiSettingsMenuD0Ev:
 1917              	.LFB2246:
 1918              		.loc 4 30 0
 1919              		.cfi_startproc
 1920              	.LVL148:
 1921 0008 7C0802A6 		mflr 0
 1922 000c 9421FFF0 		stwu 1,-16(1)
 1923              	.LCFI37:
 1924              		.cfi_def_cfa_offset 16
 1925              		.cfi_register 65, 0
 1926              	.LBB2308:
 1927              	.LBB2309:
 1928              	.LBB2310:
 1929 0010 3D200000 		lis 9,_ZTV15GuiSettingsMenu+8@ha
 1930 0014 39290008 		la 9,_ZTV15GuiSettingsMenu+8@l(9)
 1931              	.LBE2310:
 1932              	.LBE2309:
 1933              	.LBE2308:
 1934 0018 93E1000C 		stw 31,12(1)
 1935 001c 90010014 		stw 0,20(1)
 1936              	.LBB2315:
 1937              	.LBB2313:
 1938              	.LBB2311:
 1939              		.loc 4 30 0
 1940 0020 380900F0 		addi 0,9,240
 1941              		.cfi_offset 65, 4
 1942              		.cfi_offset 31, -4
 1943 0024 900300B0 		stw 0,176(3)
 1944              	.LBE2311:
 1945              	.LBE2313:
 1946              	.LBE2315:
 1947 0028 7C7F1B78 		mr 31,3
 1948              	.LVL149:
 1949              	.LBB2316:
 1950              	.LBB2314:
 1951              	.LBB2312:
 1952 002c 91230000 		stw 9,0(3)
 1953 0030 48000001 		bl _ZN15SettingsBrowserD2Ev
 1954              	.LVL150:
 1955              	.LBE2312:
 1956              	.LBE2314:
 1957              	.LBE2316:
 1958 0034 7FE3FB78 		mr 3,31
 1959 0038 48000001 		bl _ZdlPv
 1960 003c 80010014 		lwz 0,20(1)
 1961 0040 83E1000C 		lwz 31,12(1)
 1962              	.LVL151:
 1963 0044 7C0803A6 		mtlr 0
 1964 0048 38210010 		addi 1,1,16
 1965              	.LCFI38:
 1966              		.cfi_def_cfa_offset 0
 1967              		.cfi_restore 31
 1968 004c 4E800020 		blr
 1969              		.cfi_endproc
 1970              	.LFE2246:
 1971              		.size	_ZN15GuiSettingsMenuD0Ev, .-_ZN15GuiSettingsMenuD0Ev
 1972              		.section	".text"
 1973              		.align 2
 1974              		.globl _ZN15GuiSettingsMenu24OnPathBrowserButtonClickEP11PathBrowserhbRKSs
 1975              		.type	_ZN15GuiSettingsMenu24OnPathBrowserButtonClickEP11PathBrowserhbRKSs, @function
 1976              	_ZN15GuiSettingsMenu24OnPathBrowserButtonClickEP11PathBrowserhbRKSs:
 1977              	.LFB1668:
 1978              		.loc 5 192 0
 1979              		.cfi_startproc
 1980              		.cfi_personality 0,__gxx_personality_v0
 1981              		.cfi_lsda 0,.LLSDA1668
 1982              	.LVL152:
 1983 0458 7C0802A6 		mflr 0
 1984 045c 9421FFC8 		stwu 1,-56(1)
 1985              	.LCFI39:
 1986              		.cfi_def_cfa_offset 56
 1987              		.cfi_register 65, 0
 1988 0460 7D800026 		mfcr 12
 1989 0464 7CC93378 		mr 9,6
 1990 0468 93410020 		stw 26,32(1)
 1991              	.LBB2379:
 1992              	.LBB2380:
 1993              		.loc 5 195 0
 1994 046c 2E090000 		cmpwi 4,9,0
 1995              	.LBE2380:
 1996              	.LBE2379:
 1997              		.loc 5 192 0
 1998 0470 9001003C 		stw 0,60(1)
 1999 0474 7CBA2B78 		mr 26,5
 2000              		.cfi_offset 65, 4
 2001              		.cfi_offset 26, -24
 2002              		.cfi_register 70, 12
 2003 0478 93610024 		stw 27,36(1)
 2004              	.LBB2440:
 2005              		.loc 5 193 0
 2006 047c 38A0FFEC 		li 5,-20
 2007              	.LVL153:
 2008 0480 81640000 		lwz 11,0(4)
 2009              	.LBE2440:
 2010              		.loc 5 192 0
 2011 0484 7C7B1B78 		mr 27,3
 2012              		.cfi_offset 27, -20
 2013 0488 93810028 		stw 28,40(1)
 2014              	.LBB2441:
 2015              		.loc 5 193 0
 2016 048c 7C832378 		mr 3,4
 2017              	.LVL154:
 2018 0490 800B0088 		lwz 0,136(11)
 2019 0494 38C00000 		li 6,0
 2020              	.LVL155:
 2021              	.LBE2441:
 2022              		.loc 5 192 0
 2023 0498 93A1002C 		stw 29,44(1)
 2024 049c 7CFC3B78 		mr 28,7
 2025              		.cfi_offset 29, -12
 2026              		.cfi_offset 28, -16
 2027 04a0 93C10030 		stw 30,48(1)
 2028              	.LBB2442:
 2029              		.loc 5 193 0
 2030 04a4 7C0903A6 		mtctr 0
 2031              	.LBE2442:
 2032              		.loc 5 192 0
 2033 04a8 7C9E2378 		mr 30,4
 2034              		.cfi_offset 30, -8
 2035 04ac 93E10034 		stw 31,52(1)
 2036 04b0 9181001C 		stw 12,28(1)
 2037              	.LBB2443:
 2038              		.loc 5 193 0
 2039 04b4 38800080 		li 4,128
 2040              	.LVL156:
 2041 04b8 3FA00000 		lis 29,_ZN11Application8instanceE@ha
 2042              	.LEHB0:
 2043              		.cfi_offset 70, -28
 2044              		.cfi_offset 31, -4
 2045 04bc 4E800421 		bctrl
 2046              	.LVL157:
 2047              	.LBB2420:
 2048              		.loc 5 195 0
 2049 04c0 419200F0 		beq- 4,.L130
 2050              	.LBB2381:
 2051              		.loc 5 197 0
 2052 04c4 73400004 		andi. 0,26,4
 2053 04c8 41A200E8 		beq+ 0,.L130
 2054              	.LVL158:
 2055              	.LBB2382:
 2056              		.loc 5 199 0
 2057 04cc 3FE00000 		lis 31,.LC22@ha
 2058 04d0 80DC0000 		lwz 6,0(28)
 2059 04d4 3BFF00BC 		la 31,.LC22@l(31)
 2060 04d8 3C600000 		lis 3,Settings+1318@ha
 2061 04dc 7FE5FB78 		mr 5,31
 2062 04e0 388000FA 		li 4,250
 2063 04e4 38630526 		la 3,Settings+1318@l(3)
 2064 04e8 4CC63182 		crxor 6,6,6
 2065 04ec 48000001 		bl snprintf
 2066              		.loc 5 201 0
 2067 04f0 7F84E378 		mr 4,28
 2068 04f4 3861000C 		addi 3,1,12
 2069 04f8 48000001 		bl _ZNSsC1ERKSs
 2070              	.LEHE0:
 2071              	.LVL159:
 2072              	.LBB2383:
 2073              	.LBB2384:
 2074              		.file 6 "d:\\devkitpro\\devkitppc\\bin\\../lib/gcc/powerpc-eabi/4.6.3/../../../../powerpc-eabi/inc
 2075              		.loc 6 2022 0
 2076 04fc 3861000C 		addi 3,1,12
 2077              	.LVL160:
 2078 0500 3880002F 		li 4,47
 2079 0504 38A0FFFF 		li 5,-1
 2080              	.LEHB1:
 2081 0508 48000001 		bl _ZNKSs5rfindEcj
 2082              	.LVL161:
 2083              	.LBE2384:
 2084              	.LBE2383:
 2085              	.LBB2386:
 2086              	.LBB2387:
 2087              	.LBB2388:
 2088              	.LBB2389:
 2089              	.LBB2390:
 2090              	.LBB2391:
 2091              		.loc 6 711 0
 2092 050c 8121000C 		lwz 9,12(1)
 2093              	.LBE2391:
 2094              	.LBE2390:
 2095              	.LBE2389:
 2096              	.LBE2388:
 2097              	.LBE2387:
 2098              	.LBE2386:
 2099              	.LBB2400:
 2100              	.LBB2385:
 2101              		.loc 6 2022 0
 2102 0510 7C641B78 		mr 4,3
 2103              	.LVL162:
 2104              	.LBE2385:
 2105              	.LBE2400:
 2106              	.LBB2401:
 2107              	.LBB2398:
 2108              	.LBB2396:
 2109              	.LBB2394:
 2110              	.LBB2393:
 2111              	.LBB2392:
 2112              		.loc 6 711 0
 2113 0514 80A9FFF4 		lwz 5,-12(9)
 2114              	.LBE2392:
 2115              	.LBE2393:
 2116              		.loc 6 318 0
 2117 0518 7F832840 		cmplw 7,3,5
 2118 051c 419D01AC 		bgt- 7,.L132
 2119              	.LVL163:
 2120              	.LBE2394:
 2121              	.LBE2396:
 2122              		.loc 6 1349 0
 2123 0520 3861000C 		addi 3,1,12
 2124              	.LVL164:
 2125 0524 7CA42850 		subf 5,4,5
 2126 0528 38C00000 		li 6,0
 2127 052c 48000001 		bl _ZNSs9_M_mutateEjjj
 2128              	.LVL165:
 2129              	.LBE2398:
 2130              	.LBE2401:
 2131              		.loc 5 203 0
 2132 0530 3C600000 		lis 3,Settings+1568@ha
 2133 0534 80C1000C 		lwz 6,12(1)
 2134 0538 38630620 		la 3,Settings+1568@l(3)
 2135 053c 388000FA 		li 4,250
 2136 0540 7FE5FB78 		mr 5,31
 2137 0544 4CC63182 		crxor 6,6,6
 2138 0548 48000001 		bl snprintf
 2139              	.LEHE1:
 2140              	.LVL166:
 2141              	.LBB2402:
 2142              	.LBB2403:
 2143              	.LBB2404:
 2144              	.LBB2405:
 2145              	.LBB2406:
 2146              		.loc 6 288 0
 2147 054c 8121000C 		lwz 9,12(1)
 2148              	.LBE2406:
 2149              	.LBE2405:
 2150              	.LBE2404:
 2151              	.LBB2407:
 2152              	.LBB2408:
 2153              		.loc 6 235 0
 2154 0550 3D600000 		lis 11,_ZNSs4_Rep20_S_empty_rep_storageE@ha
 2155 0554 380B0000 		la 0,_ZNSs4_Rep20_S_empty_rep_storageE@l(11)
 2156 0558 3FA00000 		lis 29,_ZN11Application8instanceE@ha
 2157              	.LBE2408:
 2158              	.LBE2407:
 2159              		.loc 6 534 0
 2160 055c 3869FFF4 		addi 3,9,-12
 2161              	.LVL167:
 2162              	.LBB2416:
 2163              	.LBB2415:
 2164              		.loc 6 235 0
 2165 0560 7F830000 		cmpw 7,3,0
 2166 0564 41BE004C 		beq+ 7,.L130
 2167              	.LVL168:
 2168              	.LBB2409:
 2169              	.LBB2410:
 2170              	.LBB2411:
 2171              		.file 7 "d:\\devkitpro\\devkitppc\\bin\\../lib/gcc/powerpc-eabi/4.6.3/../../../../powerpc-eabi/inc
 2172              		.loc 7 66 0
 2173 0568 8169FFFC 		lwz 11,-4(9)
 2174              	.LVL169:
 2175              	.LBE2411:
 2176              	.LBE2410:
 2177              	.LBE2409:
 2178              		.loc 6 240 0
 2179 056c 2F8B0000 		cmpwi 7,11,0
 2180              	.LBB2414:
 2181              	.LBB2413:
 2182              	.LBB2412:
 2183              		.loc 7 67 0
 2184 0570 396BFFFF 		addi 11,11,-1
 2185 0574 9169FFFC 		stw 11,-4(9)
 2186              	.LBE2412:
 2187              	.LBE2413:
 2188              	.LBE2414:
 2189              		.loc 6 240 0
 2190 0578 41BD0038 		bgt+ 7,.L130
 2191              		.loc 6 244 0
 2192 057c 38810008 		addi 4,1,8
 2193 0580 48000001 		bl _ZNSs4_Rep10_M_destroyERKSaIcE
 2194              	.LVL170:
 2195 0584 4800002C 		b .L130
 2196              	.LVL171:
 2197              	.L138:
 2198              	.LBE2415:
 2199              	.LBE2416:
 2200              	.LBE2403:
 2201              	.LBE2402:
 2202              	.LBE2382:
 2203              	.LBE2381:
 2204              	.LBE2420:
 2205              	.LBB2421:
 2206              	.LBB2422:
 2207              		.file 8 "d:/Projects/SaveGameManager/savegame-manager-gx/trunk/source/Settings/menus/../../Control
 2208              		.loc 8 27 0
 2209 0588 38600278 		li 3,632
 2210              	.LEHB2:
 2211 058c 48000001 		bl _Znwj
 2212              	.LEHE2:
 2213 0590 7C7F1B78 		mr 31,3
 2214              	.LEHB3:
 2215 0594 48000001 		bl _ZN11ApplicationC1Ev
 2216              	.LEHE3:
 2217 0598 93FC0000 		stw 31,0(28)
 2218              	.L112:
 2219              	.LBE2422:
 2220              	.LBE2421:
 2221              		.loc 5 208 0
 2222 059c 813F0000 		lwz 9,0(31)
 2223 05a0 7FE3FB78 		mr 3,31
 2224 05a4 800900D8 		lwz 0,216(9)
 2225 05a8 7C0903A6 		mtctr 0
 2226              	.LEHB4:
 2227 05ac 4E800421 		bctrl
 2228              	.L130:
 2229              		.loc 5 207 0 discriminator 1
 2230 05b0 813E0000 		lwz 9,0(30)
 2231 05b4 7FC3F378 		mr 3,30
 2232 05b8 8009009C 		lwz 0,156(9)
 2233 05bc 7C0903A6 		mtctr 0
 2234 05c0 4E800421 		bctrl
 2235              	.LBB2425:
 2236              	.LBB2423:
 2237              		.loc 8 27 0 discriminator 1
 2238 05c4 83FD0000 		lwz 31,_ZN11Application8instanceE@l(29)
 2239              	.LBE2423:
 2240              	.LBE2425:
 2241              		.loc 5 207 0 discriminator 1
 2242 05c8 2F830000 		cmpwi 7,3,0
 2243 05cc 419E0014 		beq- 7,.L133
 2244              	.LBB2426:
 2245              	.LBB2424:
 2246              		.loc 8 27 0
 2247 05d0 2F9F0000 		cmpwi 7,31,0
 2248 05d4 3B9D0000 		la 28,_ZN11Application8instanceE@l(29)
 2249 05d8 409EFFC4 		bne+ 7,.L112
 2250 05dc 4BFFFFAC 		b .L138
 2251              	.L133:
 2252              	.LBE2424:
 2253              	.LBE2426:
 2254              	.LBB2427:
 2255              	.LBB2428:
 2256 05e0 2F9F0000 		cmpwi 7,31,0
 2257 05e4 419E009C 		beq- 7,.L135
 2258              	.L115:
 2259              	.LBE2428:
 2260              	.LBE2427:
 2261              		.loc 5 209 0
 2262 05e8 7FE3FB78 		mr 3,31
 2263 05ec 7FC4F378 		mr 4,30
 2264 05f0 48000001 		bl _ZN11Application13PushForDeleteEP10GuiElement
 2265              		.loc 5 211 0
 2266 05f4 4192000C 		beq- 4,.L117
 2267              		.loc 5 211 0 is_stmt 0 discriminator 1
 2268 05f8 73400004 		andi. 0,26,4
 2269 05fc 40820068 		bne- 0,.L136
 2270              	.L117:
 2271              		.loc 5 214 0 is_stmt 1
 2272 0600 813B0000 		lwz 9,0(27)
 2273 0604 7F63DB78 		mr 3,27
 2274 0608 800900E0 		lwz 0,224(9)
 2275 060c 7C0903A6 		mtctr 0
 2276 0610 4E800421 		bctrl
 2277              		.loc 5 216 0
 2278 0614 813B0000 		lwz 9,0(27)
 2279 0618 7F63DB78 		mr 3,27
 2280 061c 38800080 		li 4,128
 2281 0620 80090088 		lwz 0,136(9)
 2282 0624 38A00014 		li 5,20
 2283 0628 38C00000 		li 6,0
 2284 062c 7C0903A6 		mtctr 0
 2285 0630 4E800421 		bctrl
 2286              	.LBE2443:
 2287              		.loc 5 217 0
 2288 0634 8001003C 		lwz 0,60(1)
 2289 0638 8181001C 		lwz 12,28(1)
 2290 063c 7C0803A6 		mtlr 0
 2291 0640 83410020 		lwz 26,32(1)
 2292 0644 83610024 		lwz 27,36(1)
 2293              	.LVL172:
 2294 0648 7D808120 		mtcrf 8,12
 2295 064c 83810028 		lwz 28,40(1)
 2296 0650 83A1002C 		lwz 29,44(1)
 2297 0654 83C10030 		lwz 30,48(1)
 2298              	.LVL173:
 2299 0658 83E10034 		lwz 31,52(1)
 2300 065c 38210038 		addi 1,1,56
 2301              		.cfi_remember_state
 2302              	.LCFI40:
 2303              		.cfi_def_cfa_offset 0
 2304              		.cfi_restore 70
 2305              		.cfi_restore 31
 2306              		.cfi_restore 30
 2307              		.cfi_restore 29
 2308              		.cfi_restore 28
 2309              		.cfi_restore 27
 2310              		.cfi_restore 26
 2311 0660 4E800020 		blr
 2312              	.LVL174:
 2313              	.L136:
 2314              	.LCFI41:
 2315              		.cfi_restore_state
 2316              	.LBB2444:
 2317              	.LBB2431:
 2318              	.LBB2432:
 2319              		.loc 8 27 0
 2320 0664 801D0000 		lwz 0,_ZN11Application8instanceE@l(29)
 2321 0668 2F800000 		cmpwi 7,0,0
 2322 066c 419E002C 		beq- 7,.L137
 2323              	.L119:
 2324              	.LBE2432:
 2325              	.LBE2431:
 2326              	.LBB2434:
 2327              	.LBB2435:
 2328              		.loc 8 40 0
 2329 0670 38000001 		li 0,1
 2330 0674 3D200000 		lis 9,_ZN11Application14reloadLanguageE@ha
 2331 0678 98090000 		stb 0,_ZN11Application14reloadLanguageE@l(9)
 2332 067c 4BFFFF84 		b .L117
 2333              	.L135:
 2334              	.LBE2435:
 2335              	.LBE2434:
 2336              	.LBB2436:
 2337              	.LBB2429:
 2338              		.loc 8 27 0
 2339 0680 38600278 		li 3,632
 2340 0684 48000001 		bl _Znwj
 2341              	.LEHE4:
 2342 0688 7C7F1B78 		mr 31,3
 2343              	.LEHB5:
 2344 068c 48000001 		bl _ZN11ApplicationC1Ev
 2345              	.LEHE5:
 2346 0690 93FD0000 		stw 31,_ZN11Application8instanceE@l(29)
 2347 0694 4BFFFF54 		b .L115
 2348              	.L137:
 2349              	.LBE2429:
 2350              	.LBE2436:
 2351              	.LBB2437:
 2352              	.LBB2433:
 2353 0698 38600278 		li 3,632
 2354              	.LEHB6:
 2355 069c 48000001 		bl _Znwj
 2356              	.LEHE6:
 2357 06a0 7C7F1B78 		mr 31,3
 2358              	.LEHB7:
 2359 06a4 48000001 		bl _ZN11ApplicationC1Ev
 2360              	.LEHE7:
 2361 06a8 93FD0000 		stw 31,_ZN11Application8instanceE@l(29)
 2362 06ac 4BFFFFC4 		b .L119
 2363              	.L124:
 2364              	.L131:
 2365 06b0 7C7E1B78 		mr 30,3
 2366              	.LVL175:
 2367              	.LBE2433:
 2368              	.LBE2437:
 2369              	.LBB2438:
 2370              	.LBB2430:
 2371 06b4 7FE3FB78 		mr 3,31
 2372 06b8 48000001 		bl _ZdlPv
 2373 06bc 7FC3F378 		mr 3,30
 2374              	.LEHB8:
 2375 06c0 48000001 		bl _Unwind_Resume
 2376              	.LEHE8:
 2377              	.LVL176:
 2378              	.L125:
 2379 06c4 4BFFFFEC 		b .L131
 2380              	.LVL177:
 2381              	.L132:
 2382              	.LBE2430:
 2383              	.LBE2438:
 2384              	.LBB2439:
 2385              	.LBB2419:
 2386              	.LBB2418:
 2387              	.LBB2417:
 2388              	.LBB2399:
 2389              	.LBB2397:
 2390              	.LBB2395:
 2391              		.loc 6 319 0
 2392 06c8 3C600000 		lis 3,.LC23@ha
 2393              	.LVL178:
 2394 06cc 386300C0 		la 3,.LC23@l(3)
 2395              	.LEHB9:
 2396 06d0 48000001 		bl _ZSt20__throw_out_of_rangePKc
 2397              	.LEHE9:
 2398              	.LVL179:
 2399              	.L122:
 2400 06d4 7C7F1B78 		mr 31,3
 2401              	.LBE2395:
 2402              	.LBE2397:
 2403              	.LBE2399:
 2404              	.LBE2417:
 2405              		.loc 5 203 0
 2406 06d8 3861000C 		addi 3,1,12
 2407              	.LVL180:
 2408 06dc 48000001 		bl _ZNSsD1Ev
 2409              	.LVL181:
 2410 06e0 7FE3FB78 		mr 3,31
 2411              	.LEHB10:
 2412 06e4 48000001 		bl _Unwind_Resume
 2413              	.LEHE10:
 2414              	.LVL182:
 2415              	.L123:
 2416 06e8 4BFFFFC8 		b .L131
 2417              	.LBE2418:
 2418              	.LBE2419:
 2419              	.LBE2439:
 2420              	.LBE2444:
 2421              		.cfi_endproc
 2422              	.LFE1668:
 2423              		.globl __gxx_personality_v0
 2424              		.section	.gcc_except_table,"a",@progbits
 2425              	.LLSDA1668:
 2426 0000 FF       		.byte	0xff
 2427 0001 FF       		.byte	0xff
 2428 0002 01       		.byte	0x1
 2429 0003 3C       		.uleb128 .LLSDACSE1668-.LLSDACSB1668
 2430              	.LLSDACSB1668:
 2431 0004 64       		.uleb128 .LEHB0-.LFB1668
 2432 0005 40       		.uleb128 .LEHE0-.LEHB0
 2433 0006 00       		.uleb128 0
 2434 0007 00       		.uleb128 0
 2435 0008 B001     		.uleb128 .LEHB1-.LFB1668
 2436 000a 44       		.uleb128 .LEHE1-.LEHB1
 2437 000b FC04     		.uleb128 .L122-.LFB1668
 2438 000d 00       		.uleb128 0
 2439 000e B402     		.uleb128 .LEHB2-.LFB1668
 2440 0010 04       		.uleb128 .LEHE2-.LEHB2
 2441 0011 00       		.uleb128 0
 2442 0012 00       		.uleb128 0
 2443 0013 BC02     		.uleb128 .LEHB3-.LFB1668
 2444 0015 04       		.uleb128 .LEHE3-.LEHB3
 2445 0016 9005     		.uleb128 .L123-.LFB1668
 2446 0018 00       		.uleb128 0
 2447 0019 D402     		.uleb128 .LEHB4-.LFB1668
 2448 001b DC01     		.uleb128 .LEHE4-.LEHB4
 2449 001d 00       		.uleb128 0
 2450 001e 00       		.uleb128 0
 2451 001f B404     		.uleb128 .LEHB5-.LFB1668
 2452 0021 04       		.uleb128 .LEHE5-.LEHB5
 2453 0022 D804     		.uleb128 .L124-.LFB1668
 2454 0024 00       		.uleb128 0
 2455 0025 C404     		.uleb128 .LEHB6-.LFB1668
 2456 0027 04       		.uleb128 .LEHE6-.LEHB6
 2457 0028 00       		.uleb128 0
 2458 0029 00       		.uleb128 0
 2459 002a CC04     		.uleb128 .LEHB7-.LFB1668
 2460 002c 04       		.uleb128 .LEHE7-.LEHB7
 2461 002d EC04     		.uleb128 .L125-.LFB1668
 2462 002f 00       		.uleb128 0
 2463 0030 E804     		.uleb128 .LEHB8-.LFB1668
 2464 0032 04       		.uleb128 .LEHE8-.LEHB8
 2465 0033 00       		.uleb128 0
 2466 0034 00       		.uleb128 0
 2467 0035 F804     		.uleb128 .LEHB9-.LFB1668
 2468 0037 04       		.uleb128 .LEHE9-.LEHB9
 2469 0038 FC04     		.uleb128 .L122-.LFB1668
 2470 003a 00       		.uleb128 0
 2471 003b 8C05     		.uleb128 .LEHB10-.LFB1668
 2472 003d 04       		.uleb128 .LEHE10-.LEHB10
 2473 003e 00       		.uleb128 0
 2474 003f 00       		.uleb128 0
 2475              	.LLSDACSE1668:
 2476              		.section	".text"
 2477              		.size	_ZN15GuiSettingsMenu24OnPathBrowserButtonClickEP11PathBrowserhbRKSs, .-_ZN15GuiSettingsMenu2
 2478              		.align 2
 2479              		.globl _ZN15GuiSettingsMenuC2Ev
 2480              		.type	_ZN15GuiSettingsMenuC2Ev, @function
 2481              	_ZN15GuiSettingsMenuC2Ev:
 2482              	.LFB1663:
 2483              		.loc 5 55 0
 2484              		.cfi_startproc
 2485              		.cfi_personality 0,__gxx_personality_v0
 2486              		.cfi_lsda 0,.LLSDA1663
 2487              	.LVL183:
 2488 06ec 9421FFD8 		stwu 1,-40(1)
 2489              	.LCFI42:
 2490              		.cfi_def_cfa_offset 40
 2491 06f0 7C0802A6 		mflr 0
 2492 06f4 93A1001C 		stw 29,28(1)
 2493              	.LBB2500:
 2494              	.LBB2501:
 2495              	.LBB2502:
 2496              		.file 9 "d:/Projects/SaveGameManager/savegame-manager-gx/trunk/source/Settings/menus/SettingsMenu.
 2497              		.loc 9 46 0
 2498 06f8 3FA00000 		lis 29,_ZN12SettingsMenu8instanceE@ha
 2499              		.cfi_offset 29, -12
 2500              		.cfi_register 65, 0
 2501              	.LBE2502:
 2502              	.LBE2501:
 2503              	.LBE2500:
 2504              		.loc 5 55 0
 2505 06fc 9001002C 		stw 0,44(1)
 2506 0700 93C10020 		stw 30,32(1)
 2507 0704 93E10024 		stw 31,36(1)
 2508              		.loc 5 55 0
 2509 0708 7C7F1B78 		mr 31,3
 2510              		.cfi_offset 31, -4
 2511              		.cfi_offset 30, -8
 2512              		.cfi_offset 65, 4
 2513              	.LEHB11:
 2514              	.LBB2559:
 2515              		.loc 5 56 0
 2516 070c 48000001 		bl _ZN15SettingsBrowserC2Ev
 2517              	.LEHE11:
 2518              	.LVL184:
 2519              	.LBB2508:
 2520              	.LBB2503:
 2521              		.loc 9 46 0
 2522 0710 83DD0000 		lwz 30,_ZN12SettingsMenu8instanceE@l(29)
 2523              	.LBE2503:
 2524              	.LBE2508:
 2525              		.loc 5 56 0
 2526 0714 3D200000 		lis 9,_ZTV15GuiSettingsMenu+8@ha
 2527              	.LBB2509:
 2528              	.LBB2504:
 2529              		.loc 9 46 0
 2530 0718 2F9E0000 		cmpwi 7,30,0
 2531              	.LBE2504:
 2532              	.LBE2509:
 2533              		.loc 5 56 0
 2534 071c 39290008 		la 9,_ZTV15GuiSettingsMenu+8@l(9)
 2535 0720 380900F0 		addi 0,9,240
 2536 0724 913F0000 		stw 9,0(31)
 2537 0728 901F00B0 		stw 0,176(31)
 2538              	.LBB2510:
 2539              	.LBB2505:
 2540              		.loc 9 46 0
 2541 072c 419E00A4 		beq- 7,.L173
 2542              	.L140:
 2543              	.LBE2505:
 2544              	.LBE2510:
 2545              		.loc 5 58 0
 2546 0730 3C600000 		lis 3,.LC24@ha
 2547 0734 386300D4 		la 3,.LC24@l(3)
 2548              	.LEHB12:
 2549 0738 48000001 		bl gettext
 2550              	.LEHE12:
 2551 073c 7C641B78 		mr 4,3
 2552 0740 38A1000A 		addi 5,1,10
 2553 0744 38610010 		addi 3,1,16
 2554              	.LEHB13:
 2555 0748 48000001 		bl _ZNSsC1EPKcRKSaIcE
 2556              	.LEHE13:
 2557              		.loc 5 217 0 discriminator 3
 2558 074c 83DE00D8 		lwz 30,216(30)
 2559              	.LVL185:
 2560              	.LBB2511:
 2561              	.LBB2512:
 2562              		.loc 9 52 0 discriminator 3
 2563 0750 2F9E0000 		cmpwi 7,30,0
 2564 0754 419E0094 		beq- 7,.L174
 2565              		.loc 9 52 0 is_stmt 0
 2566 0758 813E0000 		lwz 9,0(30)
 2567 075c 3861000C 		addi 3,1,12
 2568 0760 38810010 		addi 4,1,16
 2569              	.LVL186:
 2570 0764 83A900CC 		lwz 29,204(9)
 2571              	.LEHB14:
 2572 0768 48000001 		bl _ZNSsC1ERKSs
 2573              	.LEHE14:
 2574              	.LVL187:
 2575 076c 7FC3F378 		mr 3,30
 2576 0770 3881000C 		addi 4,1,12
 2577 0774 7FA903A6 		mtctr 29
 2578              	.LEHB15:
 2579 0778 4E800421 		bctrl
 2580              	.LEHE15:
 2581              	.LVL188:
 2582              	.LBB2513:
 2583              	.LBB2514:
 2584              	.LBB2515:
 2585              	.LBB2516:
 2586              	.LBB2517:
 2587              	.LBB2518:
 2588              		.loc 6 288 0 is_stmt 1
 2589 077c 8121000C 		lwz 9,12(1)
 2590              	.LBE2518:
 2591              	.LBE2517:
 2592              	.LBE2516:
 2593              	.LBB2519:
 2594              	.LBB2520:
 2595              		.loc 6 235 0
 2596 0780 3FC00000 		lis 30,_ZNSs4_Rep20_S_empty_rep_storageE@ha
 2597 0784 3BDE0000 		la 30,_ZNSs4_Rep20_S_empty_rep_storageE@l(30)
 2598              	.LBE2520:
 2599              	.LBE2519:
 2600              		.loc 6 534 0
 2601 0788 3869FFF4 		addi 3,9,-12
 2602              	.LVL189:
 2603              	.LBB2529:
 2604              	.LBB2527:
 2605              		.loc 6 235 0
 2606 078c 7F83F000 		cmpw 7,3,30
 2607 0790 409E0084 		bne- 7,.L175
 2608              	.LVL190:
 2609              	.L151:
 2610              	.LBE2527:
 2611              	.LBE2529:
 2612              	.LBE2515:
 2613              	.LBE2514:
 2614              	.LBE2513:
 2615              	.LBE2512:
 2616              	.LBE2511:
 2617              	.LBB2536:
 2618              	.LBB2537:
 2619              	.LBB2538:
 2620              	.LBB2539:
 2621              	.LBB2540:
 2622              	.LBB2541:
 2623              		.loc 6 288 0 discriminator 1
 2624 0794 81210010 		lwz 9,16(1)
 2625              	.LBE2541:
 2626              	.LBE2540:
 2627              	.LBE2539:
 2628              		.loc 6 534 0 discriminator 1
 2629 0798 3869FFF4 		addi 3,9,-12
 2630              	.LVL191:
 2631              	.LBB2542:
 2632              	.LBB2543:
 2633              		.loc 6 235 0 discriminator 1
 2634 079c 7F83F000 		cmpw 7,3,30
 2635 07a0 409E0054 		bne- 7,.L176
 2636              	.LVL192:
 2637              	.L159:
 2638              	.LBE2543:
 2639              	.LBE2542:
 2640              	.LBE2538:
 2641              	.LBE2537:
 2642              	.LBE2536:
 2643              		.loc 5 60 0 discriminator 1
 2644 07a4 7FE3FB78 		mr 3,31
 2645              	.LEHB16:
 2646 07a8 48000001 		bl _ZN15GuiSettingsMenu15SetupOptionNameEv
 2647              		.loc 5 61 0
 2648 07ac 7FE3FB78 		mr 3,31
 2649 07b0 48000001 		bl _ZN15SettingsBrowser4showEv
 2650              	.LBE2559:
 2651              		.loc 5 62 0
 2652 07b4 8001002C 		lwz 0,44(1)
 2653 07b8 83A1001C 		lwz 29,28(1)
 2654 07bc 7C0803A6 		mtlr 0
 2655 07c0 83C10020 		lwz 30,32(1)
 2656 07c4 83E10024 		lwz 31,36(1)
 2657              	.LVL193:
 2658 07c8 38210028 		addi 1,1,40
 2659              		.cfi_remember_state
 2660              	.LCFI43:
 2661              		.cfi_def_cfa_offset 0
 2662              		.cfi_restore 31
 2663              		.cfi_restore 30
 2664              		.cfi_restore 29
 2665 07cc 4E800020 		blr
 2666              	.LVL194:
 2667              	.L173:
 2668              	.LCFI44:
 2669              		.cfi_restore_state
 2670              	.LBB2560:
 2671              	.LBB2554:
 2672              	.LBB2506:
 2673              		.loc 9 46 0
 2674 07d0 386003D4 		li 3,980
 2675 07d4 48000001 		bl _Znwj
 2676              	.LEHE16:
 2677 07d8 7C7E1B78 		mr 30,3
 2678              	.LEHB17:
 2679 07dc 48000001 		bl _ZN12SettingsMenuC1Ev
 2680              	.LEHE17:
 2681 07e0 93DD0000 		stw 30,_ZN12SettingsMenu8instanceE@l(29)
 2682 07e4 4BFFFF4C 		b .L140
 2683              	.LVL195:
 2684              	.L174:
 2685 07e8 3FC00000 		lis 30,_ZNSs4_Rep20_S_empty_rep_storageE@ha
 2686 07ec 3BDE0000 		la 30,_ZNSs4_Rep20_S_empty_rep_storageE@l(30)
 2687 07f0 4BFFFFA4 		b .L151
 2688              	.LVL196:
 2689              	.L176:
 2690              	.LBE2506:
 2691              	.LBE2554:
 2692              	.LBB2555:
 2693              	.LBB2553:
 2694              	.LBB2552:
 2695              	.LBB2551:
 2696              	.LBB2550:
 2697              	.LBB2544:
 2698              	.LBB2545:
 2699              	.LBB2546:
 2700              		.loc 7 66 0
 2701 07f4 8169FFFC 		lwz 11,-4(9)
 2702              	.LVL197:
 2703              	.LBE2546:
 2704              	.LBE2545:
 2705              	.LBE2544:
 2706              		.loc 6 240 0
 2707 07f8 2F8B0000 		cmpwi 7,11,0
 2708              	.LBB2549:
 2709              	.LBB2548:
 2710              	.LBB2547:
 2711              		.loc 7 67 0
 2712 07fc 396BFFFF 		addi 11,11,-1
 2713 0800 9169FFFC 		stw 11,-4(9)
 2714              	.LBE2547:
 2715              	.LBE2548:
 2716              	.LBE2549:
 2717              		.loc 6 240 0
 2718 0804 419DFFA0 		bgt+ 7,.L159
 2719              		.loc 6 244 0
 2720 0808 38810008 		addi 4,1,8
 2721 080c 48000001 		bl _ZNSs4_Rep10_M_destroyERKSaIcE
 2722              	.LVL198:
 2723 0810 4BFFFF94 		b .L159
 2724              	.LVL199:
 2725              	.L175:
 2726              	.LBE2550:
 2727              	.LBE2551:
 2728              	.LBE2552:
 2729              	.LBE2553:
 2730              	.LBE2555:
 2731              	.LBB2556:
 2732              	.LBB2534:
 2733              	.LBB2533:
 2734              	.LBB2532:
 2735              	.LBB2531:
 2736              	.LBB2530:
 2737              	.LBB2528:
 2738              	.LBB2521:
 2739              	.LBB2522:
 2740              	.LBB2523:
 2741              		.loc 7 66 0
 2742 0814 8169FFFC 		lwz 11,-4(9)
 2743              	.LVL200:
 2744              	.LBE2523:
 2745              	.LBE2522:
 2746              	.LBE2521:
 2747              		.loc 6 240 0
 2748 0818 2F8B0000 		cmpwi 7,11,0
 2749              	.LBB2526:
 2750              	.LBB2525:
 2751              	.LBB2524:
 2752              		.loc 7 67 0
 2753 081c 396BFFFF 		addi 11,11,-1
 2754 0820 9169FFFC 		stw 11,-4(9)
 2755              	.LBE2524:
 2756              	.LBE2525:
 2757              	.LBE2526:
 2758              		.loc 6 240 0
 2759 0824 419DFF70 		bgt+ 7,.L151
 2760              		.loc 6 244 0
 2761 0828 38810009 		addi 4,1,9
 2762 082c 48000001 		bl _ZNSs4_Rep10_M_destroyERKSaIcE
 2763              	.LVL201:
 2764 0830 4BFFFF64 		b .L151
 2765              	.LVL202:
 2766              	.L163:
 2767              	.L172:
 2768 0834 7C7E1B78 		mr 30,3
 2769              	.L143:
 2770              	.LBE2528:
 2771              	.LBE2530:
 2772              	.LBE2531:
 2773              	.LBE2532:
 2774              	.LBE2533:
 2775              	.LBE2534:
 2776              	.LBE2556:
 2777              		.loc 5 56 0
 2778 0838 7FE3FB78 		mr 3,31
 2779 083c 48000001 		bl _ZN15SettingsBrowserD2Ev
 2780 0840 7FC3F378 		mr 3,30
 2781              	.LEHB18:
 2782 0844 48000001 		bl _Unwind_Resume
 2783              	.LEHE18:
 2784              	.L166:
 2785 0848 7C7D1B78 		mr 29,3
 2786              	.LBB2557:
 2787              	.LBB2507:
 2788              		.loc 9 46 0
 2789 084c 7FC3F378 		mr 3,30
 2790 0850 48000001 		bl _ZdlPv
 2791 0854 7FBEEB78 		mr 30,29
 2792 0858 4BFFFFE0 		b .L143
 2793              	.LVL203:
 2794              	.L167:
 2795 085c 7C7E1B78 		mr 30,3
 2796              	.LBE2507:
 2797              	.LBE2557:
 2798              	.LBB2558:
 2799              	.LBB2535:
 2800              		.loc 9 52 0
 2801 0860 3861000C 		addi 3,1,12
 2802 0864 48000001 		bl _ZNSsD1Ev
 2803              	.L146:
 2804              	.LBE2535:
 2805              	.LBE2558:
 2806              		.loc 5 58 0
 2807 0868 38610010 		addi 3,1,16
 2808              	.LVL204:
 2809 086c 48000001 		bl _ZNSsD1Ev
 2810              	.LVL205:
 2811 0870 7FC3F378 		mr 3,30
 2812 0874 4BFFFFC0 		b .L172
 2813              	.LVL206:
 2814              	.L164:
 2815 0878 4BFFFFBC 		b .L172
 2816              	.LVL207:
 2817              	.L165:
 2818 087c 7C7E1B78 		mr 30,3
 2819 0880 4BFFFFE8 		b .L146
 2820              	.LBE2560:
 2821              		.cfi_endproc
 2822              	.LFE1663:
 2823              		.section	.gcc_except_table
 2824              	.LLSDA1663:
 2825 0040 FF       		.byte	0xff
 2826 0041 FF       		.byte	0xff
 2827 0042 01       		.byte	0x1
 2828 0043 2A       		.uleb128 .LLSDACSE1663-.LLSDACSB1663
 2829              	.LLSDACSB1663:
 2830 0044 20       		.uleb128 .LEHB11-.LFB1663
 2831 0045 04       		.uleb128 .LEHE11-.LEHB11
 2832 0046 00       		.uleb128 0
 2833 0047 00       		.uleb128 0
 2834 0048 4C       		.uleb128 .LEHB12-.LFB1663
 2835 0049 04       		.uleb128 .LEHE12-.LEHB12
 2836 004a C802     		.uleb128 .L163-.LFB1663
 2837 004c 00       		.uleb128 0
 2838 004d 5C       		.uleb128 .LEHB13-.LFB1663
 2839 004e 04       		.uleb128 .LEHE13-.LEHB13
 2840 004f 8C03     		.uleb128 .L164-.LFB1663
 2841 0051 00       		.uleb128 0
 2842 0052 7C       		.uleb128 .LEHB14-.LFB1663
 2843 0053 04       		.uleb128 .LEHE14-.LEHB14
 2844 0054 9003     		.uleb128 .L165-.LFB1663
 2845 0056 00       		.uleb128 0
 2846 0057 8C01     		.uleb128 .LEHB15-.LFB1663
 2847 0059 04       		.uleb128 .LEHE15-.LEHB15
 2848 005a F002     		.uleb128 .L167-.LFB1663
 2849 005c 00       		.uleb128 0
 2850 005d BC01     		.uleb128 .LEHB16-.LFB1663
 2851 005f 30       		.uleb128 .LEHE16-.LEHB16
 2852 0060 C802     		.uleb128 .L163-.LFB1663
 2853 0062 00       		.uleb128 0
 2854 0063 F001     		.uleb128 .LEHB17-.LFB1663
 2855 0065 04       		.uleb128 .LEHE17-.LEHB17
 2856 0066 DC02     		.uleb128 .L166-.LFB1663
 2857 0068 00       		.uleb128 0
 2858 0069 D802     		.uleb128 .LEHB18-.LFB1663
 2859 006b 04       		.uleb128 .LEHE18-.LEHB18
 2860 006c 00       		.uleb128 0
 2861 006d 00       		.uleb128 0
 2862              	.LLSDACSE1663:
 2863              		.section	".text"
 2864              		.size	_ZN15GuiSettingsMenuC2Ev, .-_ZN15GuiSettingsMenuC2Ev
 2865              		.section	.text._ZNSt8_Rb_treeIPN7sigslot12_signal_baseINS0_15single_threadedEEES4_St9_IdentityIS4_
 2866              		.align 2
 2867              		.weak	_ZNSt8_Rb_treeIPN7sigslot12_signal_baseINS0_15single_threadedEEES4_St9_IdentityIS4_ESt4lessI
 2868              		.type	_ZNSt8_Rb_treeIPN7sigslot12_signal_baseINS0_15single_threadedEEES4_St9_IdentityIS4_ESt4lessI
 2869              	_ZNSt8_Rb_treeIPN7sigslot12_signal_baseINS0_15single_threadedEEES4_St9_IdentityIS4_ESt4lessIS4_ESaI
 2870              	.LFB2006:
 2871              		.file 10 "d:\\devkitpro\\devkitppc\\bin\\../lib/gcc/powerpc-eabi/4.6.3/../../../../powerpc-eabi/in
 2872              		.loc 10 1264 0
 2873              		.cfi_startproc
 2874              	.LVL208:
 2875 0000 7C0802A6 		mflr 0
 2876 0004 9421FFE0 		stwu 1,-32(1)
 2877              	.LCFI45:
 2878              		.cfi_def_cfa_offset 32
 2879              		.cfi_register 65, 0
 2880 0008 93810010 		stw 28,16(1)
 2881 000c 90010024 		stw 0,36(1)
 2882 0010 9361000C 		stw 27,12(1)
 2883 0014 7C9B2378 		mr 27,4
 2884              		.cfi_offset 27, -20
 2885              		.cfi_offset 65, 4
 2886              		.cfi_offset 28, -16
 2887              	.LBB2600:
 2888              	.LBB2601:
 2889              	.LBB2602:
 2890              		.loc 5 217 0
 2891 0018 83830008 		lwz 28,8(3)
 2892              	.LVL209:
 2893              	.LBE2602:
 2894              	.LBE2601:
 2895              	.LBE2600:
 2896              		.loc 10 1264 0
 2897 001c 93A10014 		stw 29,20(1)
 2898              	.LBB2627:
 2899              	.LBB2619:
 2900              	.LBB2615:
 2901              		.loc 10 1272 0
 2902 0020 3BA30004 		addi 29,3,4
 2903              		.cfi_offset 29, -12
 2904              	.LVL210:
 2905              	.LBE2615:
 2906              	.LBE2619:
 2907              		.loc 10 1274 0
 2908 0024 2F9C0000 		cmpwi 7,28,0
 2909              	.LBE2627:
 2910              		.loc 10 1264 0
 2911 0028 93E1001C 		stw 31,28(1)
 2912 002c 93410008 		stw 26,8(1)
 2913 0030 7C7F1B78 		mr 31,3
 2914              		.cfi_offset 26, -24
 2915              		.cfi_offset 31, -4
 2916 0034 93C10018 		stw 30,24(1)
 2917              	.LBB2628:
 2918              		.loc 10 1274 0
 2919 0038 419E0084 		beq- 7,.L192
 2920              		.cfi_offset 30, -8
 2921              	.LVL211:
 2922 003c 81440000 		lwz 10,0(4)
 2923 0040 48000014 		b .L181
 2924              	.LVL212:
 2925              	.L200:
 2926              		.loc 5 217 0 discriminator 1
 2927 0044 801C0008 		lwz 0,8(28)
 2928              	.LVL213:
 2929              		.loc 10 1274 0 discriminator 1
 2930 0048 2F800000 		cmpwi 7,0,0
 2931 004c 419E0028 		beq- 7,.L199
 2932              	.LVL214:
 2933              	.L193:
 2934              		.loc 10 1274 0 is_stmt 0
 2935 0050 7C1C0378 		mr 28,0
 2936              	.LVL215:
 2937              	.L181:
 2938              		.loc 5 217 0 is_stmt 1
 2939 0054 813C0010 		lwz 9,16(28)
 2940 0058 39600001 		li 11,1
 2941              		.loc 10 1278 0
 2942 005c 7F895040 		cmplw 7,9,10
 2943 0060 41BDFFE4 		bgt- 7,.L200
 2944              	.LVL216:
 2945              		.loc 5 217 0 discriminator 2
 2946 0064 801C000C 		lwz 0,12(28)
 2947 0068 39600000 		li 11,0
 2948              	.LVL217:
 2949              		.loc 10 1274 0 discriminator 2
 2950 006c 2F800000 		cmpwi 7,0,0
 2951 0070 409EFFE0 		bne+ 7,.L193
 2952              	.LVL218:
 2953              	.L199:
 2954              		.loc 10 1281 0
 2955 0074 2F8B0000 		cmpwi 7,11,0
 2956 0078 7F83E378 		mr 3,28
 2957              	.LVL219:
 2958 007c 409E0044 		bne- 7,.L178
 2959              	.LVL220:
 2960              		.loc 10 1289 0
 2961 0080 7F8A4840 		cmplw 7,10,9
 2962 0084 419D0060 		bgt- 7,.L201
 2963              	.LVL221:
 2964              	.L188:
 2965              		.loc 10 1292 0
 2966 0088 38000000 		li 0,0
 2967 008c 38800000 		li 4,0
 2968 0090 5004C00E 		rlwimi 4,0,24,0,7
 2969              	.LBE2628:
 2970              		.loc 10 1293 0
 2971 0094 80010024 		lwz 0,36(1)
 2972 0098 83410008 		lwz 26,8(1)
 2973 009c 7C0803A6 		mtlr 0
 2974 00a0 8361000C 		lwz 27,12(1)
 2975              	.LVL222:
 2976 00a4 83810010 		lwz 28,16(1)
 2977 00a8 83A10014 		lwz 29,20(1)
 2978 00ac 83C10018 		lwz 30,24(1)
 2979 00b0 83E1001C 		lwz 31,28(1)
 2980              	.LVL223:
 2981 00b4 38210020 		addi 1,1,32
 2982              		.cfi_remember_state
 2983              	.LCFI46:
 2984              		.cfi_def_cfa_offset 0
 2985              		.cfi_restore 31
 2986              		.cfi_restore 30
 2987              		.cfi_restore 29
 2988              		.cfi_restore 28
 2989              		.cfi_restore 27
 2990              		.cfi_restore 26
 2991 00b8 4E800020 		blr
 2992              	.LVL224:
 2993              	.L192:
 2994              	.LCFI47:
 2995              		.cfi_restore_state
 2996              	.LBB2629:
 2997              		.loc 10 1272 0
 2998 00bc 7FBCEB78 		mr 28,29
 2999              	.LVL225:
 3000              	.L178:
 3001              		.loc 10 1283 0
 3002 00c0 801F000C 		lwz 0,12(31)
 3003 00c4 7F9C0000 		cmpw 7,28,0
 3004 00c8 419E003C 		beq- 7,.L202
 3005              	.LVL226:
 3006              	.LBB2620:
 3007              	.LBB2621:
 3008              		.loc 10 203 0
 3009 00cc 7F83E378 		mr 3,28
 3010 00d0 48000001 		bl _ZSt18_Rb_tree_decrementPSt18_Rb_tree_node_base
 3011              	.LVL227:
 3012 00d4 815B0000 		lwz 10,0(27)
 3013 00d8 81230010 		lwz 9,16(3)
 3014              	.LVL228:
 3015              	.LBE2621:
 3016              	.LBE2620:
 3017              		.loc 10 1289 0
 3018 00dc 7F8A4840 		cmplw 7,10,9
 3019 00e0 409DFFA8 		ble+ 7,.L188
 3020              	.LVL229:
 3021              	.L201:
 3022              	.LBB2622:
 3023              	.LBB2616:
 3024              		.loc 10 969 0
 3025 00e4 7F9CE800 		cmpw 7,28,29
 3026 00e8 3B400001 		li 26,1
 3027 00ec 419E0038 		beq- 7,.L189
 3028              	.LVL230:
 3029              		.loc 10 1264 0
 3030 00f0 835C0010 		lwz 26,16(28)
 3031 00f4 7F5A5010 		subfc 26,26,10
 3032 00f8 7F5AD110 		subfe 26,26,26
 3033 00fc 7F5A00D0 		neg 26,26
 3034 0100 48000024 		b .L189
 3035              	.LVL231:
 3036              	.L202:
 3037              	.LBE2616:
 3038              	.LBE2622:
 3039              	.LBB2623:
 3040              	.LBB2624:
 3041              		.loc 10 969 0
 3042 0104 7F9CE800 		cmpw 7,28,29
 3043 0108 3B400001 		li 26,1
 3044 010c 419E0018 		beq- 7,.L189
 3045              	.LVL232:
 3046              		.loc 10 1264 0
 3047 0110 835B0000 		lwz 26,0(27)
 3048 0114 801C0010 		lwz 0,16(28)
 3049              	.LVL233:
 3050 0118 7F40D010 		subfc 26,0,26
 3051 011c 7F5AD110 		subfe 26,26,26
 3052 0120 7F5A00D0 		neg 26,26
 3053              	.LVL234:
 3054              	.L189:
 3055              	.LBE2624:
 3056              	.LBE2623:
 3057              	.LBB2625:
 3058              	.LBB2617:
 3059              	.LBB2603:
 3060              	.LBB2604:
 3061              	.LBB2605:
 3062              	.LBB2606:
 3063              	.LBB2607:
 3064              		.file 11 "d:\\devkitpro\\devkitppc\\bin\\../lib/gcc/powerpc-eabi/4.6.3/../../../../powerpc-eabi/in
 3065              		.loc 11 92 0
 3066 0124 38600014 		li 3,20
 3067 0128 48000001 		bl _Znwj
 3068              	.LBE2607:
 3069              	.LBE2606:
 3070              	.LBE2605:
 3071              	.LBB2610:
 3072              	.LBB2611:
 3073              		.loc 11 108 0
 3074 012c 2F83FFF0 		cmpwi 7,3,-16
 3075              	.LBE2611:
 3076              	.LBE2610:
 3077              	.LBB2613:
 3078              	.LBB2609:
 3079              	.LBB2608:
 3080              		.loc 11 92 0
 3081 0130 7C7E1B78 		mr 30,3
 3082              	.LVL235:
 3083              	.LBE2608:
 3084              	.LBE2609:
 3085              	.LBE2613:
 3086              	.LBB2614:
 3087              	.LBB2612:
 3088              		.loc 11 108 0
 3089 0134 419E000C 		beq- 7,.L191
 3090 0138 801B0000 		lwz 0,0(27)
 3091 013c 90030010 		stw 0,16(3)
 3092              	.L191:
 3093              	.LVL236:
 3094              	.LBE2612:
 3095              	.LBE2614:
 3096              	.LBE2604:
 3097              	.LBE2603:
 3098              		.loc 10 973 0
 3099 0140 7F43D378 		mr 3,26
 3100              	.LVL237:
 3101 0144 7FC4F378 		mr 4,30
 3102 0148 7F85E378 		mr 5,28
 3103 014c 7FA6EB78 		mr 6,29
 3104 0150 48000001 		bl _ZSt29_Rb_tree_insert_and_rebalancebPSt18_Rb_tree_node_baseS0_RS_
 3105              		.loc 10 976 0
 3106 0154 813F0014 		lwz 9,20(31)
 3107              		.loc 10 1291 0
 3108 0158 38800000 		li 4,0
 3109 015c 7FC3F378 		mr 3,30
 3110              		.loc 10 976 0
 3111 0160 38090001 		addi 0,9,1
 3112              	.LBE2617:
 3113              	.LBE2625:
 3114              	.LBE2629:
 3115              		.loc 10 1293 0
 3116 0164 83410008 		lwz 26,8(1)
 3117              	.LVL238:
 3118              	.LBB2630:
 3119              	.LBB2626:
 3120              	.LBB2618:
 3121              		.loc 10 976 0
 3122 0168 901F0014 		stw 0,20(31)
 3123              	.LVL239:
 3124              		.loc 10 1291 0
 3125 016c 38000001 		li 0,1
 3126 0170 5004C00E 		rlwimi 4,0,24,0,7
 3127              	.LBE2618:
 3128              	.LBE2626:
 3129              	.LBE2630:
 3130              		.loc 10 1293 0
 3131 0174 80010024 		lwz 0,36(1)
 3132 0178 8361000C 		lwz 27,12(1)
 3133              	.LVL240:
 3134 017c 7C0803A6 		mtlr 0
 3135 0180 83810010 		lwz 28,16(1)
 3136 0184 83A10014 		lwz 29,20(1)
 3137 0188 83C10018 		lwz 30,24(1)
 3138              	.LVL241:
 3139 018c 83E1001C 		lwz 31,28(1)
 3140              	.LVL242:
 3141 0190 38210020 		addi 1,1,32
 3142              		.cfi_restore 26
 3143              		.cfi_restore 27
 3144              		.cfi_restore 28
 3145              		.cfi_restore 29
 3146              		.cfi_restore 30
 3147              		.cfi_restore 31
 3148              	.LCFI48:
 3149              		.cfi_def_cfa_offset 0
 3150 0194 4E800020 		blr
 3151              		.cfi_endproc
 3152              	.LFE2006:
 3153              		.size	_ZNSt8_Rb_treeIPN7sigslot12_signal_baseINS0_15single_threadedEEES4_St9_IdentityIS4_ESt4lessI
 3154              		.section	.text._ZN7sigslot7signal4IP11PathBrowserhbRKSsNS_15single_threadedEE7connectI15GuiSetting
 3155              		.align 2
 3156              		.weak	_ZN7sigslot7signal4IP11PathBrowserhbRKSsNS_15single_threadedEE7connectI15GuiSettingsMenuEEvP
 3157              		.type	_ZN7sigslot7signal4IP11PathBrowserhbRKSsNS_15single_threadedEE7connectI15GuiSettingsMenuEEvP
 3158              	_ZN7sigslot7signal4IP11PathBrowserhbRKSsNS_15single_threadedEE7connectI15GuiSettingsMenuEEvPT_MS9_F
 3159              	.LFB1744:
 3160              		.loc 1 2377 0
 3161              		.cfi_startproc
 3162              		.cfi_personality 0,__gxx_personality_v0
 3163              		.cfi_lsda 0,.LLSDA1744
 3164              	.LVL243:
 3165 0000 7C0802A6 		mflr 0
 3166 0004 9421FFD0 		stwu 1,-48(1)
 3167              	.LCFI49:
 3168              		.cfi_def_cfa_offset 48
 3169              		.cfi_register 65, 0
 3170 0008 9361001C 		stw 27,28(1)
 3171 000c 90010034 		stw 0,52(1)
 3172 0010 93C10028 		stw 30,40(1)
 3173 0014 7C9E2378 		mr 30,4
 3174              		.cfi_offset 30, -8
 3175              		.cfi_offset 65, 4
 3176              		.cfi_offset 27, -20
 3177              	.LBB2631:
 3178              	.LBB2632:
 3179              	.LBB2633:
 3180              		.loc 1 338 0
 3181 0018 81230000 		lwz 9,0(3)
 3182              	.LBE2633:
 3183              	.LBE2632:
 3184              	.LBE2631:
 3185              		.loc 1 2377 0
 3186 001c 93E1002C 		stw 31,44(1)
 3187 0020 7C7F1B78 		mr 31,3
 3188              		.cfi_offset 31, -4
 3189              	.LVL244:
 3190              	.LBB2686:
 3191              	.LBB2637:
 3192              	.LBB2634:
 3193              		.loc 1 338 0
 3194 0024 80090008 		lwz 0,8(9)
 3195              	.LBE2634:
 3196              	.LBE2637:
 3197              	.LBE2686:
 3198              		.loc 1 2377 0
 3199 0028 93810020 		stw 28,32(1)
 3200 002c 93A10024 		stw 29,36(1)
 3201              	.LBB2687:
 3202              	.LBB2638:
 3203              	.LBB2635:
 3204              		.loc 1 338 0
 3205 0030 7C0903A6 		mtctr 0
 3206              	.LBE2635:
 3207              	.LBE2638:
 3208              	.LBE2687:
 3209              		.loc 1 2377 0
 3210 0034 83650000 		lwz 27,0(5)
 3211 0038 83850004 		lwz 28,4(5)
 3212              		.cfi_offset 29, -12
 3213              		.cfi_offset 28, -16
 3214              	.LEHB19:
 3215              	.LBB2688:
 3216              	.LBB2639:
 3217              	.LBB2636:
 3218              		.loc 1 338 0
 3219 003c 4E800421 		bctrl
 3220              	.LEHE19:
 3221              	.LVL245:
 3222              	.LBE2636:
 3223              	.LBE2639:
 3224              		.loc 1 2383 0
 3225 0040 38600010 		li 3,16
 3226              	.LEHB20:
 3227 0044 48000001 		bl _Znwj
 3228              	.LBB2640:
 3229              	.LBB2641:
 3230              		.loc 1 1828 0
 3231 0048 3D200000 		lis 9,_ZTVN7sigslot12_connection4I15GuiSettingsMenuP11PathBrowserhbRKSsNS_15single_threadedEEE+8@h
 3232              		.loc 1 1829 0
 3233 004c 93C30004 		stw 30,4(3)
 3234              		.loc 1 1828 0
 3235 0050 38090008 		la 0,_ZTVN7sigslot12_connection4I15GuiSettingsMenuP11PathBrowserhbRKSsNS_15single_threadedEEE+8@l(
 3236              		.loc 1 1830 0
 3237 0054 93630008 		stw 27,8(3)
 3238              		.loc 1 1828 0
 3239 0058 90030000 		stw 0,0(3)
 3240              	.LBE2641:
 3241              	.LBE2640:
 3242              		.loc 1 2383 0
 3243 005c 7C7D1B78 		mr 29,3
 3244              	.LVL246:
 3245              	.LBB2643:
 3246              	.LBB2642:
 3247              		.loc 1 1830 0
 3248 0060 9383000C 		stw 28,12(3)
 3249              	.LVL247:
 3250              	.LBE2642:
 3251              	.LBE2643:
 3252              	.LBB2644:
 3253              	.LBB2645:
 3254              	.LBB2646:
 3255              	.LBB2647:
 3256              	.LBB2648:
 3257              	.LBB2649:
 3258              	.LBB2650:
 3259              	.LBB2651:
 3260              		.loc 11 92 0
 3261 0064 3860000C 		li 3,12
 3262              	.LVL248:
 3263 0068 48000001 		bl _Znwj
 3264              	.LVL249:
 3265              	.LBE2651:
 3266              	.LBE2650:
 3267              	.LBE2649:
 3268              	.LBB2652:
 3269              	.LBB2653:
 3270              		.loc 11 108 0 discriminator 1
 3271 006c 2F83FFF8 		cmpwi 7,3,-8
 3272 0070 419E0008 		beq- 7,.L205
 3273              		.loc 11 108 0 is_stmt 0
 3274 0074 93A30008 		stw 29,8(3)
 3275              	.LVL250:
 3276              	.L205:
 3277              	.LBE2653:
 3278              	.LBE2652:
 3279              	.LBE2648:
 3280              	.LBE2647:
 3281              		.file 12 "d:\\devkitpro\\devkitppc\\bin\\../lib/gcc/powerpc-eabi/4.6.3/../../../../powerpc-eabi/in
 3282              		.loc 12 1516 0 is_stmt 1
 3283 0078 389F0004 		addi 4,31,4
 3284              	.LBE2646:
 3285              	.LBE2645:
 3286              	.LBE2644:
 3287              	.LBB2658:
 3288              	.LBB2659:
 3289              		.loc 1 503 0
 3290 007c 3BBE00B0 		addi 29,30,176
 3291              	.LVL251:
 3292              	.LBE2659:
 3293              	.LBE2658:
 3294              	.LBB2675:
 3295              	.LBB2656:
 3296              	.LBB2654:
 3297              		.loc 12 1516 0
 3298 0080 48000001 		bl _ZNSt8__detail15_List_node_base7_M_hookEPS0_
 3299              	.LVL252:
 3300              	.LBE2654:
 3301              	.LBE2656:
 3302              	.LBE2675:
 3303              	.LBB2676:
 3304              	.LBB2672:
 3305              	.LBB2660:
 3306              	.LBB2661:
 3307              		.loc 1 338 0
 3308 0084 813E00B0 		lwz 9,176(30)
 3309              	.LBE2661:
 3310              	.LBE2660:
 3311              	.LBE2672:
 3312              	.LBE2676:
 3313              	.LBB2677:
 3314              	.LBB2657:
 3315              	.LBB2655:
 3316              		.loc 12 1516 0
 3317 0088 93E10008 		stw 31,8(1)
 3318              	.LVL253:
 3319              	.LBE2655:
 3320              	.LBE2657:
 3321              	.LBE2677:
 3322              	.LBB2678:
 3323              	.LBB2673:
 3324              	.LBB2663:
 3325              	.LBB2662:
 3326              		.loc 1 338 0
 3327 008c 7FA3EB78 		mr 3,29
 3328 0090 80090008 		lwz 0,8(9)
 3329 0094 7C0903A6 		mtctr 0
 3330 0098 4E800421 		bctrl
 3331              	.LEHE20:
 3332              	.LVL254:
 3333              	.LBE2662:
 3334              	.LBE2663:
 3335              	.LBB2664:
 3336              	.LBB2665:
 3337              		.file 13 "d:\\devkitpro\\devkitppc\\bin\\../lib/gcc/powerpc-eabi/4.6.3/../../../../powerpc-eabi/in
 3338              		.loc 13 410 0
 3339 009c 387E00B4 		addi 3,30,180
 3340 00a0 38810008 		addi 4,1,8
 3341              	.LEHB21:
 3342 00a4 48000001 		bl _ZNSt8_Rb_treeIPN7sigslot12_signal_baseINS0_15single_threadedEEES4_St9_IdentityIS4_ESt4lessIS4_
 3343              	.LEHE21:
 3344              	.LVL255:
 3345              	.LBE2665:
 3346              	.LBE2664:
 3347              	.LBB2666:
 3348              	.LBB2667:
 3349              	.LBB2668:
 3350              		.loc 1 343 0
 3351 00a8 813E00B0 		lwz 9,176(30)
 3352 00ac 7FA3EB78 		mr 3,29
 3353 00b0 8009000C 		lwz 0,12(9)
 3354 00b4 7C0903A6 		mtctr 0
 3355              	.LEHB22:
 3356 00b8 4E800421 		bctrl
 3357              	.LEHE22:
 3358              	.LVL256:
 3359              	.LBE2668:
 3360              	.LBE2667:
 3361              	.LBE2666:
 3362              	.LBE2673:
 3363              	.LBE2678:
 3364              	.LBB2679:
 3365              	.LBB2680:
 3366              	.LBB2681:
 3367 00bc 813F0000 		lwz 9,0(31)
 3368 00c0 7FE3FB78 		mr 3,31
 3369 00c4 8009000C 		lwz 0,12(9)
 3370 00c8 7C0903A6 		mtctr 0
 3371              	.LEHB23:
 3372 00cc 4E800421 		bctrl
 3373              	.LEHE23:
 3374              	.LBE2681:
 3375              	.LBE2680:
 3376              	.LBE2679:
 3377              	.LBE2688:
 3378              		.loc 1 2386 0
 3379 00d0 80010034 		lwz 0,52(1)
 3380 00d4 8361001C 		lwz 27,28(1)
 3381              	.LVL257:
 3382 00d8 7C0803A6 		mtlr 0
 3383 00dc 83810020 		lwz 28,32(1)
 3384              	.LVL258:
 3385 00e0 83A10024 		lwz 29,36(1)
 3386              	.LVL259:
 3387 00e4 83C10028 		lwz 30,40(1)
 3388              	.LVL260:
 3389 00e8 83E1002C 		lwz 31,44(1)
 3390              	.LVL261:
 3391 00ec 38210030 		addi 1,1,48
 3392              		.cfi_remember_state
 3393              	.LCFI50:
 3394              		.cfi_def_cfa_offset 0
 3395              		.cfi_restore 31
 3396              		.cfi_restore 30
 3397              		.cfi_restore 29
 3398              		.cfi_restore 28
 3399              		.cfi_restore 27
 3400 00f0 4E800020 		blr
 3401              	.LVL262:
 3402              	.L212:
 3403              	.LCFI51:
 3404              		.cfi_restore_state
 3405 00f4 7C7E1B78 		mr 30,3
 3406              	.LVL263:
 3407              	.L209:
 3408              	.LBB2689:
 3409              	.LBB2682:
 3410              	.LBB2683:
 3411              	.LBB2684:
 3412              		.loc 1 343 0
 3413 00f8 813F0000 		lwz 9,0(31)
 3414 00fc 7FE3FB78 		mr 3,31
 3415 0100 8009000C 		lwz 0,12(9)
 3416 0104 7C0903A6 		mtctr 0
 3417 0108 4E800421 		bctrl
 3418 010c 7FC3F378 		mr 3,30
 3419              	.LEHB24:
 3420 0110 48000001 		bl _Unwind_Resume
 3421              	.LEHE24:
 3422              	.LVL264:
 3423              	.L213:
 3424              	.LBE2684:
 3425              	.LBE2683:
 3426              	.LBE2682:
 3427              	.LBB2685:
 3428              	.LBB2674:
 3429              	.LBB2669:
 3430              	.LBB2670:
 3431              	.LBB2671:
 3432 0114 813E00B0 		lwz 9,176(30)
 3433 0118 7C7E1B78 		mr 30,3
 3434              	.LVL265:
 3435 011c 7FA3EB78 		mr 3,29
 3436 0120 8009000C 		lwz 0,12(9)
 3437 0124 7C0903A6 		mtctr 0
 3438 0128 4E800421 		bctrl
 3439 012c 4BFFFFCC 		b .L209
 3440              	.LBE2671:
 3441              	.LBE2670:
 3442              	.LBE2669:
 3443              	.LBE2674:
 3444              	.LBE2685:
 3445              	.LBE2689:
 3446              		.cfi_endproc
 3447              	.LFE1744:
 3448              		.section	.gcc_except_table
 3449              	.LLSDA1744:
 3450 006e FF       		.byte	0xff
 3451 006f FF       		.byte	0xff
 3452 0070 01       		.byte	0x1
 3453 0071 1F       		.uleb128 .LLSDACSE1744-.LLSDACSB1744
 3454              	.LLSDACSB1744:
 3455 0072 3C       		.uleb128 .LEHB19-.LFB1744
 3456 0073 04       		.uleb128 .LEHE19-.LEHB19
 3457 0074 00       		.uleb128 0
 3458 0075 00       		.uleb128 0
 3459 0076 44       		.uleb128 .LEHB20-.LFB1744
 3460 0077 58       		.uleb128 .LEHE20-.LEHB20
 3461 0078 F401     		.uleb128 .L212-.LFB1744
 3462 007a 00       		.uleb128 0
 3463 007b A401     		.uleb128 .LEHB21-.LFB1744
 3464 007d 04       		.uleb128 .LEHE21-.LEHB21
 3465 007e 9402     		.uleb128 .L213-.LFB1744
 3466 0080 00       		.uleb128 0
 3467 0081 B801     		.uleb128 .LEHB22-.LFB1744
 3468 0083 04       		.uleb128 .LEHE22-.LEHB22
 3469 0084 F401     		.uleb128 .L212-.LFB1744
 3470 0086 00       		.uleb128 0
 3471 0087 CC01     		.uleb128 .LEHB23-.LFB1744
 3472 0089 04       		.uleb128 .LEHE23-.LEHB23
 3473 008a 00       		.uleb128 0
 3474 008b 00       		.uleb128 0
 3475 008c 9002     		.uleb128 .LEHB24-.LFB1744
 3476 008e 04       		.uleb128 .LEHE24-.LEHB24
 3477 008f 00       		.uleb128 0
 3478 0090 00       		.uleb128 0
 3479              	.LLSDACSE1744:
 3480              		.section	.text._ZN7sigslot7signal4IP11PathBrowserhbRKSsNS_15single_threadedEE7connectI15GuiSetting
 3481              		.size	_ZN7sigslot7signal4IP11PathBrowserhbRKSsNS_15single_threadedEE7connectI15GuiSettingsMenuEEvP
 3482              		.section	".text"
 3483              		.align 2
 3484              		.globl _ZN15GuiSettingsMenu14OnBrowserClickEP16GuiOptionBrowseri
 3485              		.type	_ZN15GuiSettingsMenu14OnBrowserClickEP16GuiOptionBrowseri, @function
 3486              	_ZN15GuiSettingsMenu14OnBrowserClickEP16GuiOptionBrowseri:
 3487              	.LFB1667:
 3488              		.loc 5 125 0
 3489              		.cfi_startproc
 3490              		.cfi_personality 0,__gxx_personality_v0
 3491              		.cfi_lsda 0,.LLSDA1667
 3492              	.LVL266:
 3493              	.LBB2722:
 3494              	.LBB2723:
 3495              		.loc 5 129 0
 3496 0884 2B850008 		cmplwi 7,5,8
 3497              	.LBE2723:
 3498              	.LBE2722:
 3499              		.loc 5 125 0
 3500 0888 7C0802A6 		mflr 0
 3501 088c 9421FFB8 		stwu 1,-72(1)
 3502              	.LCFI52:
 3503              		.cfi_def_cfa_offset 72
 3504              		.cfi_register 65, 0
 3505 0890 93E10044 		stw 31,68(1)
 3506 0894 7C7F1B78 		mr 31,3
 3507              		.cfi_offset 31, -4
 3508 0898 9001004C 		stw 0,76(1)
 3509 089c 93A1003C 		stw 29,60(1)
 3510 08a0 93C10040 		stw 30,64(1)
 3511              	.LBB2759:
 3512              	.LBB2757:
 3513              		.loc 5 129 0
 3514 08a4 419D0088 		bgt- 7,.L216
 3515              		.cfi_offset 30, -8
 3516              		.cfi_offset 29, -12
 3517              		.cfi_offset 65, 4
 3518 08a8 3D200000 		lis 9,.L226@ha
 3519 08ac 54A5103A 		slwi 5,5,2
 3520              	.LVL267:
 3521 08b0 39290000 		la 9,.L226@l(9)
 3522 08b4 7C09282E 		lwzx 0,9,5
 3523 08b8 7D204A14 		add 9,0,9
 3524 08bc 7D2903A6 		mtctr 9
 3525 08c0 4E800420 		bctr
 3526              		.section	.rodata
 3527              		.align 2
 3528              		.align 2
 3529              	.L226:
 3530 0000 00000A04 		.long .L217-.L226
 3531 0004 00000A90 		.long .L218-.L226
 3532 0008 00000AC0 		.long .L219-.L226
 3533 000c 00000AF0 		.long .L220-.L226
 3534 0010 00000B40 		.long .L221-.L226
 3535 0014 00000B70 		.long .L222-.L226
 3536 0018 00000BC0 		.long .L223-.L226
 3537 001c 00000978 		.long .L224-.L226
 3538 0020 000009D8 		.long .L225-.L226
 3539              		.section	".text"
 3540              	.LVL268:
 3541              	.L249:
 3542              	.LBB2724:
 3543              	.LBB2725:
 3544              	.LBB2726:
 3545              		.loc 5 143 0
 3546 08c4 3C800000 		lis 4,Settings+1568@ha
 3547 08c8 3861000C 		addi 3,1,12
 3548 08cc 38840620 		la 4,Settings+1568@l(4)
 3549 08d0 38A10009 		addi 5,1,9
 3550              	.LEHB25:
 3551 08d4 48000001 		bl _ZNSsC1EPKcRKSaIcE
 3552              	.LEHE25:
 3553 08d8 38600418 		li 3,1048
 3554              	.LEHB26:
 3555 08dc 48000001 		bl _Znwj
 3556              	.LEHE26:
 3557 08e0 3881000C 		addi 4,1,12
 3558 08e4 38A00004 		li 5,4
 3559 08e8 7C7E1B78 		mr 30,3
 3560              	.LEHB27:
 3561 08ec 48000001 		bl _ZN11PathBrowserC1ERKSsh
 3562              	.LEHE27:
 3563              	.LVL269:
 3564              	.LBB2727:
 3565              	.LBB2728:
 3566              	.LBB2729:
 3567              	.LBB2730:
 3568              	.LBB2731:
 3569              	.LBB2732:
 3570              		.loc 6 288 0
 3571 08f0 8121000C 		lwz 9,12(1)
 3572              	.LBE2732:
 3573              	.LBE2731:
 3574              	.LBE2730:
 3575              	.LBB2733:
 3576              	.LBB2734:
 3577              		.loc 6 235 0
 3578 08f4 3D600000 		lis 11,_ZNSs4_Rep20_S_empty_rep_storageE@ha
 3579 08f8 380B0000 		la 0,_ZNSs4_Rep20_S_empty_rep_storageE@l(11)
 3580              	.LBE2734:
 3581              	.LBE2733:
 3582              		.loc 6 534 0
 3583 08fc 3869FFF4 		addi 3,9,-12
 3584              	.LVL270:
 3585              	.LBB2743:
 3586              	.LBB2741:
 3587              		.loc 6 235 0
 3588 0900 7F830000 		cmpw 7,3,0
 3589 0904 409E0320 		bne- 7,.L247
 3590              	.LVL271:
 3591              	.L240:
 3592              	.LBE2741:
 3593              	.LBE2743:
 3594              	.LBE2729:
 3595              	.LBE2728:
 3596              	.LBE2727:
 3597              		.loc 5 144 0 discriminator 3
 3598 0908 3D200000 		lis 9,_ZN15GuiSettingsMenu24OnPathBrowserButtonClickEP11PathBrowserhbRKSs@ha
 3599 090c 387E00CC 		addi 3,30,204
 3600 0910 38090000 		la 0,_ZN15GuiSettingsMenu24OnPathBrowserButtonClickEP11PathBrowserhbRKSs@l(9)
 3601 0914 7FE4FB78 		mr 4,31
 3602 0918 90010028 		stw 0,40(1)
 3603 091c 38A10028 		addi 5,1,40
 3604 0920 38000000 		li 0,0
 3605 0924 9001002C 		stw 0,44(1)
 3606              	.LEHB28:
 3607 0928 48000001 		bl _ZN7sigslot7signal4IP11PathBrowserhbRKSsNS_15single_threadedEE7connectI15GuiSettingsMenuEEvPT_M
 3608              	.LVL272:
 3609              	.L216:
 3610              	.LBE2726:
 3611              	.LBE2725:
 3612              	.LBE2724:
 3613              	.LBE2757:
 3614              		.loc 5 188 0
 3615 092c 813F0000 		lwz 9,0(31)
 3616 0930 7FE3FB78 		mr 3,31
 3617 0934 800900E0 		lwz 0,224(9)
 3618 0938 7C0903A6 		mtctr 0
 3619 093c 4E800421 		bctrl
 3620              	.LVL273:
 3621              	.L215:
 3622              	.LBE2759:
 3623              		.loc 5 189 0
 3624 0940 8001004C 		lwz 0,76(1)
 3625 0944 83A1003C 		lwz 29,60(1)
 3626 0948 7C0803A6 		mtlr 0
 3627 094c 83C10040 		lwz 30,64(1)
 3628 0950 83E10044 		lwz 31,68(1)
 3629 0954 38210048 		addi 1,1,72
 3630              		.cfi_remember_state
 3631              	.LCFI53:
 3632              		.cfi_def_cfa_offset 0
 3633              		.cfi_restore 31
 3634              		.cfi_restore 30
 3635              		.cfi_restore 29
 3636 0958 4E800020 		blr
 3637              	.LVL274:
 3638              	.L224:
 3639              	.LCFI54:
 3640              		.cfi_restore_state
 3641              	.LBB2760:
 3642              	.LBB2758:
 3643              	.LBB2756:
 3644              		.loc 5 173 0
 3645 095c 3FC00000 		lis 30,Settings@ha
 3646 0960 3CA00000 		lis 5,.LC12@ha
 3647 0964 3BDE0000 		la 30,Settings@l(30)
 3648 0968 38800014 		li 4,20
 3649              	.LVL275:
 3650 096c C03E0078 		lfs 1,120(30)
 3651 0970 38A50038 		la 5,.LC12@l(5)
 3652 0974 38610010 		addi 3,1,16
 3653              	.LVL276:
 3654 0978 4CC63242 		creqv 6,6,6
 3655 097c 48000001 		bl snprintf
 3656              		.loc 5 174 0
 3657 0980 38610010 		addi 3,1,16
 3658 0984 38800000 		li 4,0
 3659 0988 38A00000 		li 5,0
 3660 098c 48000001 		bl _Z14OnScreenNumpadPctb
 3661              	.LVL277:
 3662              		.loc 5 175 0
 3663 0990 2F830000 		cmpwi 7,3,0
 3664 0994 419EFF98 		beq+ 7,.L216
 3665              		.loc 5 176 0
 3666 0998 38610010 		addi 3,1,16
 3667              	.LVL278:
 3668 099c 48000001 		bl atof
 3669 09a0 39210030 		addi 9,1,48
 3670 09a4 FC20081E 		fctiwz 1,1
 3671 09a8 7C204FAE 		stfiwx 1,0,9
 3672 09ac 80010030 		lwz 0,48(1)
 3673 09b0 B01E007E 		sth 0,126(30)
 3674 09b4 4BFFFF78 		b .L216
 3675              	.LVL279:
 3676              	.L225:
 3677              		.loc 5 179 0
 3678 09b8 3FC00000 		lis 30,Settings@ha
 3679 09bc 3CA00000 		lis 5,.LC11@ha
 3680 09c0 3BDE0000 		la 30,Settings@l(30)
 3681 09c4 38800014 		li 4,20
 3682              	.LVL280:
 3683 09c8 A8DE007C 		lha 6,124(30)
 3684 09cc 38A50034 		la 5,.LC11@l(5)
 3685 09d0 38610010 		addi 3,1,16
 3686 09d4 4CC63182 		crxor 6,6,6
 3687 09d8 48000001 		bl snprintf
 3688              		.loc 5 180 0
 3689 09dc 38610010 		addi 3,1,16
 3690 09e0 38800000 		li 4,0
 3691 09e4 38A00000 		li 5,0
 3692 09e8 48000001 		bl _Z14OnScreenNumpadPctb
 3693              	.LVL281:
 3694              		.loc 5 181 0
 3695 09ec 2F830000 		cmpwi 7,3,0
 3696 09f0 419EFF3C 		beq+ 7,.L216
 3697              		.loc 5 182 0
 3698 09f4 38610010 		addi 3,1,16
 3699              	.LVL282:
 3700 09f8 48000001 		bl atoi
 3701 09fc B07E007C 		sth 3,124(30)
 3702 0a00 4BFFFF2C 		b .L216
 3703              	.LVL283:
 3704              	.L217:
 3705              	.LBB2754:
 3706              		.loc 5 132 0
 3707 0a04 3D200000 		lis 9,Settings+1258@ha
 3708 0a08 A80904EA 		lha 0,Settings+1258@l(9)
 3709 0a0c 2F800000 		cmpwi 7,0,0
 3710 0a10 419E01C8 		beq- 7,.L248
 3711              	.LBB2752:
 3712              		.loc 5 139 0
 3713 0a14 81230000 		lwz 9,0(3)
 3714 0a18 38800080 		li 4,128
 3715              	.LVL284:
 3716 0a1c 38A0FFEC 		li 5,-20
 3717 0a20 38C00000 		li 6,0
 3718 0a24 80090088 		lwz 0,136(9)
 3719 0a28 7C0903A6 		mtctr 0
 3720 0a2c 4E800421 		bctrl
 3721              		.loc 5 140 0
 3722 0a30 48000018 		b .L229
 3723              	.L230:
 3724              		.loc 5 141 0
 3725 0a34 813E0000 		lwz 9,0(30)
 3726 0a38 7FC3F378 		mr 3,30
 3727 0a3c 800900D8 		lwz 0,216(9)
 3728 0a40 7C0903A6 		mtctr 0
 3729 0a44 4E800421 		bctrl
 3730              	.L229:
 3731              		.loc 5 140 0 discriminator 1
 3732 0a48 813F0000 		lwz 9,0(31)
 3733 0a4c 7FE3FB78 		mr 3,31
 3734 0a50 8009009C 		lwz 0,156(9)
 3735 0a54 7C0903A6 		mtctr 0
 3736 0a58 4E800421 		bctrl
 3737 0a5c 2F830000 		cmpwi 7,3,0
 3738 0a60 41BEFE64 		beq- 7,.L249
 3739              	.LBB2747:
 3740              	.LBB2748:
 3741              		.loc 8 27 0
 3742 0a64 3FA00000 		lis 29,_ZN11Application8instanceE@ha
 3743 0a68 83DD0000 		lwz 30,_ZN11Application8instanceE@l(29)
 3744 0a6c 2F9E0000 		cmpwi 7,30,0
 3745 0a70 409EFFC4 		bne+ 7,.L230
 3746 0a74 38600278 		li 3,632
 3747 0a78 48000001 		bl _Znwj
 3748              	.LEHE28:
 3749 0a7c 7C7E1B78 		mr 30,3
 3750              	.LEHB29:
 3751 0a80 48000001 		bl _ZN11ApplicationC1Ev
 3752              	.LEHE29:
 3753 0a84 93DD0000 		stw 30,_ZN11Application8instanceE@l(29)
 3754 0a88 4BFFFFAC 		b .L230
 3755              	.LVL285:
 3756              	.L218:
 3757              	.LBE2748:
 3758              	.LBE2747:
 3759              	.LBE2752:
 3760              	.LBE2754:
 3761              		.loc 5 148 0
 3762 0a8c 3D200000 		lis 9,Settings@ha
 3763 0a90 39290000 		la 9,Settings@l(9)
 3764 0a94 A1690066 		lhz 11,102(9)
 3765 0a98 380B0001 		addi 0,11,1
 3766 0a9c 7C000734 		extsh 0,0
 3767 0aa0 2F800002 		cmpwi 7,0,2
 3768 0aa4 B0090066 		sth 0,102(9)
 3769 0aa8 40BDFE84 		ble- 7,.L216
 3770              		.loc 5 148 0 is_stmt 0 discriminator 1
 3771 0aac 38000000 		li 0,0
 3772 0ab0 B0090066 		sth 0,102(9)
 3773 0ab4 4BFFFE78 		b .L216
 3774              	.L219:
 3775              		.loc 5 151 0 is_stmt 1
 3776 0ab8 3D200000 		lis 9,Settings@ha
 3777 0abc 39290000 		la 9,Settings@l(9)
 3778 0ac0 A1690068 		lhz 11,104(9)
 3779 0ac4 380B0001 		addi 0,11,1
 3780 0ac8 7C000734 		extsh 0,0
 3781 0acc 2F800001 		cmpwi 7,0,1
 3782 0ad0 B0090068 		sth 0,104(9)
 3783 0ad4 40BDFE58 		ble- 7,.L216
 3784              		.loc 5 151 0 is_stmt 0 discriminator 1
 3785 0ad8 38000000 		li 0,0
 3786 0adc B0090068 		sth 0,104(9)
 3787 0ae0 4BFFFE4C 		b .L216
 3788              	.L220:
 3789              		.loc 5 154 0 is_stmt 1
 3790 0ae4 3FC00000 		lis 30,Settings@ha
 3791 0ae8 3CA00000 		lis 5,.LC11@ha
 3792 0aec 3BDE0000 		la 30,Settings@l(30)
 3793 0af0 38800014 		li 4,20
 3794              	.LVL286:
 3795 0af4 80DE006C 		lwz 6,108(30)
 3796 0af8 38A50034 		la 5,.LC11@l(5)
 3797 0afc 38610010 		addi 3,1,16
 3798              	.LEHB30:
 3799 0b00 4CC63182 		crxor 6,6,6
 3800 0b04 48000001 		bl snprintf
 3801              		.loc 5 155 0
 3802 0b08 38610010 		addi 3,1,16
 3803 0b0c 38800000 		li 4,0
 3804 0b10 38A00000 		li 5,0
 3805 0b14 48000001 		bl _Z14OnScreenNumpadPctb
 3806              	.LVL287:
 3807              		.loc 5 156 0
 3808 0b18 2F830000 		cmpwi 7,3,0
 3809 0b1c 419EFE10 		beq+ 7,.L216
 3810              		.loc 5 157 0
 3811 0b20 38610010 		addi 3,1,16
 3812              	.LVL288:
 3813 0b24 48000001 		bl atoi
 3814 0b28 907E006C 		stw 3,108(30)
 3815 0b2c 4BFFFE00 		b .L216
 3816              	.LVL289:
 3817              	.L221:
 3818              		.loc 5 160 0
 3819 0b30 3D200000 		lis 9,Settings@ha
 3820 0b34 39290000 		la 9,Settings@l(9)
 3821 0b38 A169008C 		lhz 11,140(9)
 3822 0b3c 380B0001 		addi 0,11,1
 3823 0b40 7C000734 		extsh 0,0
 3824 0b44 2F800002 		cmpwi 7,0,2
 3825 0b48 B009008C 		sth 0,140(9)
 3826 0b4c 40BDFDE0 		ble- 7,.L216
 3827              		.loc 5 160 0 is_stmt 0 discriminator 1
 3828 0b50 38000000 		li 0,0
 3829 0b54 B009008C 		sth 0,140(9)
 3830 0b58 4BFFFDD4 		b .L216
 3831              	.L222:
 3832              		.loc 5 163 0 is_stmt 1
 3833 0b5c 3FC00000 		lis 30,Settings@ha
 3834 0b60 3CA00000 		lis 5,.LC11@ha
 3835 0b64 3BDE0000 		la 30,Settings@l(30)
 3836 0b68 38800014 		li 4,20
 3837              	.LVL290:
 3838 0b6c A8DE007E 		lha 6,126(30)
 3839 0b70 38A50034 		la 5,.LC11@l(5)
 3840 0b74 38610010 		addi 3,1,16
 3841 0b78 4CC63182 		crxor 6,6,6
 3842 0b7c 48000001 		bl snprintf
 3843              		.loc 5 164 0
 3844 0b80 38610010 		addi 3,1,16
 3845 0b84 38800000 		li 4,0
 3846 0b88 38A00000 		li 5,0
 3847 0b8c 48000001 		bl _Z14OnScreenNumpadPctb
 3848              	.LVL291:
 3849              		.loc 5 165 0
 3850 0b90 2F830000 		cmpwi 7,3,0
 3851 0b94 419EFD98 		beq+ 7,.L216
 3852              		.loc 5 166 0
 3853 0b98 38610010 		addi 3,1,16
 3854              	.LVL292:
 3855 0b9c 48000001 		bl atoi
 3856 0ba0 B07E007E 		sth 3,126(30)
 3857 0ba4 4BFFFD88 		b .L216
 3858              	.LVL293:
 3859              	.L223:
 3860              		.loc 5 169 0
 3861 0ba8 3D200000 		lis 9,Settings@ha
 3862 0bac 39290000 		la 9,Settings@l(9)
 3863 0bb0 A169008A 		lhz 11,138(9)
 3864 0bb4 380B0001 		addi 0,11,1
 3865 0bb8 7C000734 		extsh 0,0
 3866 0bbc 2F800007 		cmpwi 7,0,7
 3867 0bc0 B009008A 		sth 0,138(9)
 3868 0bc4 409D000C 		ble- 7,.L241
 3869              		.loc 5 169 0 is_stmt 0 discriminator 1
 3870 0bc8 38000000 		li 0,0
 3871 0bcc B009008A 		sth 0,138(9)
 3872              	.L241:
 3873              		.loc 5 170 0 is_stmt 1
 3874 0bd0 48000001 		bl _Z14SetWPADTimeoutv
 3875              	.LVL294:
 3876              		.loc 5 171 0
 3877 0bd4 4BFFFD58 		b .L216
 3878              	.LVL295:
 3879              	.L248:
 3880              	.LBB2755:
 3881              		.loc 5 134 0
 3882 0bd8 3C600000 		lis 3,.LC25@ha
 3883 0bdc 386300E4 		la 3,.LC25@l(3)
 3884 0be0 48000001 		bl gettext
 3885              	.LVL296:
 3886 0be4 7C7E1B78 		mr 30,3
 3887 0be8 3C600000 		lis 3,.LC26@ha
 3888 0bec 386300F8 		la 3,.LC26@l(3)
 3889 0bf0 48000001 		bl gettext
 3890 0bf4 7C7F1B78 		mr 31,3
 3891              	.LVL297:
 3892 0bf8 3C600000 		lis 3,.LC27@ha
 3893 0bfc 38630124 		la 3,.LC27@l(3)
 3894 0c00 48000001 		bl gettext
 3895 0c04 7FE4FB78 		mr 4,31
 3896 0c08 7C651B78 		mr 5,3
 3897 0c0c 38C00000 		li 6,0
 3898 0c10 7FC3F378 		mr 3,30
 3899 0c14 38E00000 		li 7,0
 3900 0c18 39000000 		li 8,0
 3901 0c1c 48000001 		bl _Z12WindowPromptPKcS0_S0_S0_S0_S0_
 3902              		.loc 5 135 0
 3903 0c20 4BFFFD20 		b .L215
 3904              	.LVL298:
 3905              	.L247:
 3906              	.LBB2753:
 3907              	.LBB2750:
 3908              	.LBB2746:
 3909              	.LBB2745:
 3910              	.LBB2744:
 3911              	.LBB2742:
 3912              	.LBB2735:
 3913              	.LBB2736:
 3914              	.LBB2737:
 3915              		.loc 7 66 0
 3916 0c24 8169FFFC 		lwz 11,-4(9)
 3917              	.LVL299:
 3918              	.LBE2737:
 3919              	.LBE2736:
 3920              	.LBE2735:
 3921              		.loc 6 240 0
 3922 0c28 2F8B0000 		cmpwi 7,11,0
 3923              	.LBB2740:
 3924              	.LBB2739:
 3925              	.LBB2738:
 3926              		.loc 7 67 0
 3927 0c2c 396BFFFF 		addi 11,11,-1
 3928 0c30 9169FFFC 		stw 11,-4(9)
 3929              	.LBE2738:
 3930              	.LBE2739:
 3931              	.LBE2740:
 3932              		.loc 6 240 0
 3933 0c34 419DFCD4 		bgt+ 7,.L240
 3934              		.loc 6 244 0
 3935 0c38 38810008 		addi 4,1,8
 3936 0c3c 48000001 		bl _ZNSs4_Rep10_M_destroyERKSaIcE
 3937              	.LVL300:
 3938 0c40 4BFFFCC8 		b .L240
 3939              	.LVL301:
 3940              	.L246:
 3941 0c44 7C7F1B78 		mr 31,3
 3942              	.LVL302:
 3943              	.LBE2742:
 3944              	.LBE2744:
 3945              	.LBE2745:
 3946              	.LBE2746:
 3947              	.LBE2750:
 3948              	.LBB2751:
 3949              	.LBB2749:
 3950              		.loc 8 27 0
 3951 0c48 7FC3F378 		mr 3,30
 3952 0c4c 48000001 		bl _ZdlPv
 3953 0c50 7FE3FB78 		mr 3,31
 3954 0c54 48000001 		bl _Unwind_Resume
 3955              	.LVL303:
 3956              	.L245:
 3957 0c58 7C7F1B78 		mr 31,3
 3958              	.LVL304:
 3959              	.LBE2749:
 3960              	.LBE2751:
 3961              		.loc 5 143 0
 3962 0c5c 7FC3F378 		mr 3,30
 3963 0c60 48000001 		bl _ZdlPv
 3964              	.L243:
 3965 0c64 3861000C 		addi 3,1,12
 3966 0c68 48000001 		bl _ZNSsD1Ev
 3967 0c6c 7FE3FB78 		mr 3,31
 3968 0c70 48000001 		bl _Unwind_Resume
 3969              	.LEHE30:
 3970              	.LVL305:
 3971              	.L244:
 3972 0c74 7C7F1B78 		mr 31,3
 3973              	.LVL306:
 3974 0c78 4BFFFFEC 		b .L243
 3975              	.LBE2753:
 3976              	.LBE2755:
 3977              	.LBE2756:
 3978              	.LBE2758:
 3979              	.LBE2760:
 3980              		.cfi_endproc
 3981              	.LFE1667:
 3982              		.section	.gcc_except_table
 3983              	.LLSDA1667:
 3984 0091 FF       		.byte	0xff
 3985 0092 FF       		.byte	0xff
 3986 0093 01       		.byte	0x1
 3987 0094 20       		.uleb128 .LLSDACSE1667-.LLSDACSB1667
 3988              	.LLSDACSB1667:
 3989 0095 50       		.uleb128 .LEHB25-.LFB1667
 3990 0096 04       		.uleb128 .LEHE25-.LEHB25
 3991 0097 00       		.uleb128 0
 3992 0098 00       		.uleb128 0
 3993 0099 58       		.uleb128 .LEHB26-.LFB1667
 3994 009a 04       		.uleb128 .LEHE26-.LEHB26
 3995 009b F007     		.uleb128 .L244-.LFB1667
 3996 009d 00       		.uleb128 0
 3997 009e 68       		.uleb128 .LEHB27-.LFB1667
 3998 009f 04       		.uleb128 .LEHE27-.LEHB27
 3999 00a0 D407     		.uleb128 .L245-.LFB1667
 4000 00a2 00       		.uleb128 0
 4001 00a3 A401     		.uleb128 .LEHB28-.LFB1667
 4002 00a5 D402     		.uleb128 .LEHE28-.LEHB28
 4003 00a7 00       		.uleb128 0
 4004 00a8 00       		.uleb128 0
 4005 00a9 FC03     		.uleb128 .LEHB29-.LFB1667
 4006 00ab 04       		.uleb128 .LEHE29-.LEHB29
 4007 00ac C007     		.uleb128 .L246-.LFB1667
 4008 00ae 00       		.uleb128 0
 4009 00af FC04     		.uleb128 .LEHB30-.LFB1667
 4010 00b1 F402     		.uleb128 .LEHE30-.LEHB30
 4011 00b3 00       		.uleb128 0
 4012 00b4 00       		.uleb128 0
 4013              	.LLSDACSE1667:
 4014              		.section	".text"
 4015              		.size	_ZN15GuiSettingsMenu14OnBrowserClickEP16GuiOptionBrowseri, .-_ZN15GuiSettingsMenu14OnBrowser
 4016              		.weak	_ZTS15GuiSettingsMenu
 4017              		.section	.rodata._ZTS15GuiSettingsMenu,"aG",@progbits,_ZTS15GuiSettingsMenu,comdat
 4018              		.align 2
 4019              		.type	_ZTS15GuiSettingsMenu, @object
 4020              		.size	_ZTS15GuiSettingsMenu, 18
 4021              	_ZTS15GuiSettingsMenu:
 4022 0000 31354775 		.string	"15GuiSettingsMenu"
 4022      69536574 
 4022      74696E67 
 4022      734D656E 
 4022      7500
 4023              		.weak	_ZTI15GuiSettingsMenu
 4024              		.section	.rodata._ZTI15GuiSettingsMenu,"aG",@progbits,_ZTI15GuiSettingsMenu,comdat
 4025              		.align 2
 4026              		.type	_ZTI15GuiSettingsMenu, @object
 4027              		.size	_ZTI15GuiSettingsMenu, 12
 4028              	_ZTI15GuiSettingsMenu:
 4029 0000 00000008 		.long	_ZTVN10__cxxabiv120__si_class_type_infoE+8
 4030 0004 00000000 		.long	_ZTS15GuiSettingsMenu
 4031 0008 00000000 		.long	_ZTI15SettingsBrowser
 4032              		.weak	_ZTV15GuiSettingsMenu
 4033              		.section	.rodata._ZTV15GuiSettingsMenu,"aG",@progbits,_ZTV15GuiSettingsMenu,comdat
 4034              		.align 3
 4035              		.type	_ZTV15GuiSettingsMenu, @object
 4036              		.size	_ZTV15GuiSettingsMenu, 264
 4037              	_ZTV15GuiSettingsMenu:
 4038 0000 00000000 		.long	0
 4039 0004 00000000 		.long	_ZTI15GuiSettingsMenu
 4040 0008 00000000 		.long	_ZN15GuiSettingsMenuD1Ev
 4041 000c 00000000 		.long	_ZN15GuiSettingsMenuD0Ev
 4042 0010 00000000 		.long	_ZN10GuiElement9SetParentEPS_
 4043 0014 00000000 		.long	_ZN10GuiElement9GetParentEv
 4044 0018 00000000 		.long	_ZN10GuiElement7GetLeftEv
 4045 001c 00000000 		.long	_ZN10GuiElement6GetTopEv
 4046 0020 00000000 		.long	_ZN10GuiElement12GetZPositionEv
 4047 0024 00000000 		.long	_ZN10GuiElement10GetLeftPosEv
 4048 0028 00000000 		.long	_ZN10GuiElement9GetTopPosEv
 4049 002c 00000000 		.long	_ZN10GuiElement8GetWidthEv
 4050 0030 00000000 		.long	_ZN10GuiElement9GetHeightEv
 4051 0034 00000000 		.long	_ZN10GuiElement7SetSizeEii
 4052 0038 00000000 		.long	_ZN8GuiFrame10SetVisibleEb
 4053 003c 00000000 		.long	_ZN10GuiElement9IsVisibleEv
 4054 0040 00000000 		.long	_ZN10GuiElement12IsSelectableEv
 4055 0044 00000000 		.long	_ZN10GuiElement11IsClickableEv
 4056 0048 00000000 		.long	_ZN10GuiElement10IsHoldableEv
 4057 004c 00000000 		.long	_ZN10GuiElement13SetSelectableEb
 4058 0050 00000000 		.long	_ZN10GuiElement12SetClickableEb
 4059 0054 00000000 		.long	_ZN10GuiElement11SetHoldableEb
 4060 0058 00000000 		.long	_ZN10GuiElement8SetStateEii
 4061 005c 00000000 		.long	_ZN10GuiElement8GetStateEv
 4062 0060 00000000 		.long	_ZN10GuiElement12GetStateChanEv
 4063 0064 00000000 		.long	_ZN8GuiFrame10ResetStateEv
 4064 0068 00000000 		.long	_ZN10GuiElement8SetAlphaEi
 4065 006c 00000000 		.long	_ZN10GuiElement8GetAlphaEv
 4066 0070 00000000 		.long	_ZN10GuiElement8SetScaleEf
 4067 0074 00000000 		.long	_ZN10GuiElement9SetScaleXEf
 4068 0078 00000000 		.long	_ZN10GuiElement9SetScaleYEf
 4069 007c 00000000 		.long	_ZN10GuiElement8GetScaleEv
 4070 0080 00000000 		.long	_ZN10GuiElement9GetScaleXEv
 4071 0084 00000000 		.long	_ZN10GuiElement9GetScaleYEv
 4072 0088 00000000 		.long	_ZN10GuiElement6RumbleEv
 4073 008c 00000000 		.long	_ZN10GuiElement9SetRumbleEb
 4074 0090 00000000 		.long	_ZN10GuiElement9SetEffectEiii
 4075 0094 00000000 		.long	_ZN10GuiElement15SetEffectOnOverEiii
 4076 0098 00000000 		.long	_ZN10GuiElement13SetEffectGrowEv
 4077 009c 00000000 		.long	_ZN10GuiElement12ResetEffectsEv
 4078 00a0 00000000 		.long	_ZNK10GuiElement9GetEffectEv
 4079 00a4 00000000 		.long	_ZNK10GuiElement10IsAnimatedEv
 4080 00a8 00000000 		.long	_ZN8GuiFrame9SetBoundsE4RectIiE
 4081 00ac 00000000 		.long	_ZN10GuiElement8IsInsideEii
 4082 00b0 00000000 		.long	_ZN10GuiElement11SetPositionEii
 4083 00b4 00000000 		.long	_ZN10GuiElement11SetPositionEiii
 4084 00b8 00000000 		.long	_ZN8GuiFrame11GetSelectedEv
 4085 00bc 00000000 		.long	_ZN10GuiElement12SetAlignmentEi
 4086 00c0 00000000 		.long	_ZNK10GuiElement12GetAlignmentEv
 4087 00c4 00000000 		.long	_ZN8GuiFrame6UpdateEP10GuiTrigger
 4088 00c8 00000000 		.long	_ZN8GuiFrame4DrawEv
 4089 00cc 00000000 		.long	_ZN10GuiElement13UpdateEffectsEv
 4090 00d0 00000000 		.long	_ZN8GuiFrame5CloseEv
 4091 00d4 00000000 		.long	_ZN15SettingsBrowser4showEv
 4092 00d8 00000000 		.long	_ZN8GuiFrame4hideEv
 4093 00dc 00000000 		.long	_ZN8GuiFrame4execEv
 4094 00e0 00000000 		.long	_ZN8GuiFrame12updateEventsEv
 4095 00e4 00000000 		.long	_ZN15GuiSettingsMenu15SetupOptionNameEv
 4096 00e8 00000000 		.long	_ZN15GuiSettingsMenu15SetOptionValuesEv
 4097 00ec 00000000 		.long	_ZN15GuiSettingsMenu14OnBrowserClickEP16GuiOptionBrowseri
 4098 00f0 FFFFFF50 		.long	-176
 4099 00f4 00000000 		.long	_ZTI15GuiSettingsMenu
 4100 00f8 00000000 		.long	_ZThn176_N15GuiSettingsMenuD1Ev
 4101 00fc 00000000 		.long	_ZThn176_N15GuiSettingsMenuD0Ev
 4102 0100 00000000 		.long	_ZN7sigslot15single_threaded4lockEv
 4103 0104 00000000 		.long	_ZN7sigslot15single_threaded6unlockEv
 4104              		.weak	_ZTVN7sigslot17_connection_base4IP11PathBrowserhbRKSsNS_15single_threadedEEE
 4105              		.section	.rodata._ZTVN7sigslot17_connection_base4IP11PathBrowserhbRKSsNS_15single_threadedEEE,"aG"
 4106              		.align 3
 4107              		.type	_ZTVN7sigslot17_connection_base4IP11PathBrowserhbRKSsNS_15single_threadedEEE, @object
 4108              		.size	_ZTVN7sigslot17_connection_base4IP11PathBrowserhbRKSsNS_15single_threadedEEE, 32
 4109              	_ZTVN7sigslot17_connection_base4IP11PathBrowserhbRKSsNS_15single_threadedEEE:
 4110 0000 00000000 		.long	0
 4111 0004 00000000 		.long	_ZTIN7sigslot17_connection_base4IP11PathBrowserhbRKSsNS_15single_threadedEEE
 4112 0008 00000000 		.long	_ZN7sigslot17_connection_base4IP11PathBrowserhbRKSsNS_15single_threadedEED1Ev
 4113 000c 00000000 		.long	_ZN7sigslot17_connection_base4IP11PathBrowserhbRKSsNS_15single_threadedEED0Ev
 4114 0010 00000000 		.long	__cxa_pure_virtual
 4115 0014 00000000 		.long	__cxa_pure_virtual
 4116 0018 00000000 		.long	__cxa_pure_virtual
 4117 001c 00000000 		.long	__cxa_pure_virtual
 4118              		.weak	_ZTVN7sigslot12_connection4I15GuiSettingsMenuP11PathBrowserhbRKSsNS_15single_threadedEEE
 4119              		.section	.rodata._ZTVN7sigslot12_connection4I15GuiSettingsMenuP11PathBrowserhbRKSsNS_15single_thre
 4120              		.align 3
 4121              		.type	_ZTVN7sigslot12_connection4I15GuiSettingsMenuP11PathBrowserhbRKSsNS_15single_threadedEEE, @o
 4122              		.size	_ZTVN7sigslot12_connection4I15GuiSettingsMenuP11PathBrowserhbRKSsNS_15single_threadedEEE, 32
 4123              	_ZTVN7sigslot12_connection4I15GuiSettingsMenuP11PathBrowserhbRKSsNS_15single_threadedEEE:
 4124 0000 00000000 		.long	0
 4125 0004 00000000 		.long	_ZTIN7sigslot12_connection4I15GuiSettingsMenuP11PathBrowserhbRKSsNS_15single_threadedEEE
 4126 0008 00000000 		.long	_ZN7sigslot12_connection4I15GuiSettingsMenuP11PathBrowserhbRKSsNS_15single_threadedEED1Ev
 4127 000c 00000000 		.long	_ZN7sigslot12_connection4I15GuiSettingsMenuP11PathBrowserhbRKSsNS_15single_threadedEED0Ev
 4128 0010 00000000 		.long	_ZNK7sigslot12_connection4I15GuiSettingsMenuP11PathBrowserhbRKSsNS_15single_threadedEE7getde
 4129 0014 00000000 		.long	_ZN7sigslot12_connection4I15GuiSettingsMenuP11PathBrowserhbRKSsNS_15single_threadedEE4emitES
 4130 0018 00000000 		.long	_ZN7sigslot12_connection4I15GuiSettingsMenuP11PathBrowserhbRKSsNS_15single_threadedEE5cloneE
 4131 001c 00000000 		.long	_ZN7sigslot12_connection4I15GuiSettingsMenuP11PathBrowserhbRKSsNS_15single_threadedEE9duplic
 4132              		.weak	_ZTIN7sigslot17_connection_base4IP11PathBrowserhbRKSsNS_15single_threadedEEE
 4133              		.section	.sdata._ZTIN7sigslot17_connection_base4IP11PathBrowserhbRKSsNS_15single_threadedEEE,"awG"
 4134              		.align 2
 4135              		.type	_ZTIN7sigslot17_connection_base4IP11PathBrowserhbRKSsNS_15single_threadedEEE, @object
 4136              		.size	_ZTIN7sigslot17_connection_base4IP11PathBrowserhbRKSsNS_15single_threadedEEE, 8
 4137              	_ZTIN7sigslot17_connection_base4IP11PathBrowserhbRKSsNS_15single_threadedEEE:
 4138 0000 00000008 		.long	_ZTVN10__cxxabiv117__class_type_infoE+8
 4139 0004 00000000 		.long	_ZTSN7sigslot17_connection_base4IP11PathBrowserhbRKSsNS_15single_threadedEEE
 4140              		.weak	_ZTIN7sigslot12_connection4I15GuiSettingsMenuP11PathBrowserhbRKSsNS_15single_threadedEEE
 4141              		.section	.rodata._ZTIN7sigslot12_connection4I15GuiSettingsMenuP11PathBrowserhbRKSsNS_15single_thre
 4142              		.align 2
 4143              		.type	_ZTIN7sigslot12_connection4I15GuiSettingsMenuP11PathBrowserhbRKSsNS_15single_threadedEEE, @o
 4144              		.size	_ZTIN7sigslot12_connection4I15GuiSettingsMenuP11PathBrowserhbRKSsNS_15single_threadedEEE, 12
 4145              	_ZTIN7sigslot12_connection4I15GuiSettingsMenuP11PathBrowserhbRKSsNS_15single_threadedEEE:
 4146 0000 00000008 		.long	_ZTVN10__cxxabiv120__si_class_type_infoE+8
 4147 0004 00000000 		.long	_ZTSN7sigslot12_connection4I15GuiSettingsMenuP11PathBrowserhbRKSsNS_15single_threadedEEE
 4148 0008 00000000 		.long	_ZTIN7sigslot17_connection_base4IP11PathBrowserhbRKSsNS_15single_threadedEEE
 4149              		.weak	_ZTSN7sigslot17_connection_base4IP11PathBrowserhbRKSsNS_15single_threadedEEE
 4150              		.section	.rodata._ZTSN7sigslot17_connection_base4IP11PathBrowserhbRKSsNS_15single_threadedEEE,"aG"
 4151              		.align 2
 4152              		.type	_ZTSN7sigslot17_connection_base4IP11PathBrowserhbRKSsNS_15single_threadedEEE, @object
 4153              		.size	_ZTSN7sigslot17_connection_base4IP11PathBrowserhbRKSsNS_15single_threadedEEE, 73
 4154              	_ZTSN7sigslot17_connection_base4IP11PathBrowserhbRKSsNS_15single_threadedEEE:
 4155 0000 4E377369 		.string	"N7sigslot17_connection_base4IP11PathBrowserhbRKSsNS_15single_threadedEEE"
 4155      67736C6F 
 4155      7431375F 
 4155      636F6E6E 
 4155      65637469 
 4156              		.weak	_ZTSN7sigslot12_connection4I15GuiSettingsMenuP11PathBrowserhbRKSsNS_15single_threadedEEE
 4157              		.section	.rodata._ZTSN7sigslot12_connection4I15GuiSettingsMenuP11PathBrowserhbRKSsNS_15single_thre
 4158              		.align 2
 4159              		.type	_ZTSN7sigslot12_connection4I15GuiSettingsMenuP11PathBrowserhbRKSsNS_15single_threadedEEE, @o
 4160              		.size	_ZTSN7sigslot12_connection4I15GuiSettingsMenuP11PathBrowserhbRKSsNS_15single_threadedEEE, 85
 4161              	_ZTSN7sigslot12_connection4I15GuiSettingsMenuP11PathBrowserhbRKSsNS_15single_threadedEEE:
 4162 0000 4E377369 		.string	"N7sigslot12_connection4I15GuiSettingsMenuP11PathBrowserhbRKSsNS_15single_threadedEEE"
 4162      67736C6F 
 4162      7431325F 
 4162      636F6E6E 
 4162      65637469 
 4163              		.weak	_ZN7sigslot17_connection_base4IP11PathBrowserhbRKSsNS_15single_threadedEED1Ev
 4164              		.set	_ZN7sigslot17_connection_base4IP11PathBrowserhbRKSsNS_15single_threadedEED1Ev,_ZN7sigslot17_c
 4165              		.weak	_ZN7sigslot12_connection4I15GuiSettingsMenuP11PathBrowserhbRKSsNS_15single_threadedEED1Ev
 4166              		.set	_ZN7sigslot12_connection4I15GuiSettingsMenuP11PathBrowserhbRKSsNS_15single_threadedEED1Ev,_ZN
 4167              		.weak	_ZN15GuiSettingsMenuD1Ev
 4168              		.set	_ZN15GuiSettingsMenuD1Ev,_ZN15GuiSettingsMenuD2Ev
 4169              		.set	.LTHUNK0,_ZN15GuiSettingsMenuD1Ev
 4170              		.set	.LTHUNK1,_ZN15GuiSettingsMenuD0Ev
 4171              		.globl _ZN15GuiSettingsMenuC1Ev
 4172              		.set	_ZN15GuiSettingsMenuC1Ev,_ZN15GuiSettingsMenuC2Ev
 4173              		.section	.rodata
 4174              		.align 2
 4175              		.set	.LANCHOR0,. + 0
 4176              		.type	_ZL9OnOffText, @object
 4177              		.size	_ZL9OnOffText, 8
 4178              	_ZL9OnOffText:
 4179 0024 00000020 		.long	.LC8
 4180 0028 00000128 		.long	.LC28
 4181              		.type	_ZL12HomeMenuText, @object
 4182              		.size	_ZL12HomeMenuText, 12
 4183              	_ZL12HomeMenuText:
 4184 002c 0000012C 		.long	.LC29
 4185 0030 0000013C 		.long	.LC30
 4186 0034 00000000 		.long	.LC4
 4187              		.type	_ZL15ScreensaverText, @object
 4188              		.size	_ZL15ScreensaverText, 32
 4189              	_ZL15ScreensaverText:
 4190 0038 00000020 		.long	.LC8
 4191 003c 00000148 		.long	.LC31
 4192 0040 00000150 		.long	.LC32
 4193 0044 00000158 		.long	.LC33
 4194 0048 00000160 		.long	.LC34
 4195 004c 00000168 		.long	.LC35
 4196 0050 00000170 		.long	.LC36
 4197 0054 00000178 		.long	.LC37
 4198              		.section	.rodata.cst4,"aM",@progbits,4
 4199              		.align 2
 4200              	.LC1:
 4201 0000 59800004 		.4byte	1501560836
 4202              	.LC2:
 4203 0004 437F0000 		.4byte	1132396544
 4204              	.LC3:
 4205 0008 3F000000 		.4byte	1056964608
 4206              		.section	.rodata.str1.4,"aMS",@progbits,1
 4207              		.align 2
 4208              	.LC4:
 4209 0000 44656661 		.string	"Default"
 4209      756C7400 
 4210              	.LC5:
 4211 0008 486F7572 		.string	"Hours"
 4211      7300
 4212 000e 0000     		.zero	2
 4213              	.LC6:
 4214 0010 31322025 		.string	"12 %s"
 4214      7300
 4215 0016 0000     		.zero	2
 4216              	.LC7:
 4217 0018 32342025 		.string	"24 %s"
 4217      7300
 4218 001e 0000     		.zero	2
 4219              	.LC8:
 4220 0020 4F464600 		.string	"OFF"
 4221              	.LC9:
 4222 0024 7365636F 		.string	"seconds"
 4222      6E647300 
 4223              	.LC10:
 4224 002c 25642025 		.string	"%d %s"
 4224      7300
 4225 0032 0000     		.zero	2
 4226              	.LC11:
 4227 0034 256900   		.string	"%i"
 4228 0037 00       		.zero	1
 4229              	.LC12:
 4230 0038 25302E33 		.string	"%0.3f"
 4230      6600
 4231 003e 0000     		.zero	2
 4232              	.LC13:
 4233 0040 4C616E67 		.string	"Language"
 4233      75616765 
 4233      00
 4234 0049 000000   		.zero	3
 4235              	.LC14:
 4236 004c 436C6F63 		.string	"Clock"
 4236      6B00
 4237 0052 0000     		.zero	2
 4238              	.LC15:
 4239 0054 546F6F6C 		.string	"Tooltips"
 4239      74697073 
 4239      00
 4240 005d 000000   		.zero	3
 4241              	.LC16:
 4242 0060 546F6F6C 		.string	"Tooltip Delay"
 4242      74697020 
 4242      44656C61 
 4242      7900
 4243 006e 0000     		.zero	2
 4244              	.LC17:
 4245 0070 484F4D45 		.string	"HOME Menu"
 4245      204D656E 
 4245      7500
 4246 007a 0000     		.zero	2
 4247              	.LC18:
 4248 007c 4B657962 		.string	"Keyboard Del Delay"
 4248      6F617264 
 4248      2044656C 
 4248      2044656C 
 4248      617900
 4249 008f 00       		.zero	1
 4250              	.LC19:
 4251 0090 53637265 		.string	"Screensaver"
 4251      656E7361 
 4251      76657200 
 4252              	.LC20:
 4253 009c 506F696E 		.string	"Pointer Speed"
 4253      74657220 
 4253      53706565 
 4253      6400
 4254 00aa 0000     		.zero	2
 4255              	.LC21:
 4256 00ac 5363726F 		.string	"Scroll Speed"
 4256      6C6C2053 
 4256      70656564 
 4256      00
 4257 00b9 000000   		.zero	3
 4258              	.LC22:
 4259 00bc 257300   		.string	"%s"
 4260 00bf 00       		.zero	1
 4261              	.LC23:
 4262 00c0 62617369 		.string	"basic_string::erase"
 4262      635F7374 
 4262      72696E67 
 4262      3A3A6572 
 4262      61736500 
 4263              	.LC24:
 4264 00d4 47554920 		.string	"GUI Settings"
 4264      53657474 
 4264      696E6773 
 4264      00
 4265 00e1 000000   		.zero	3
 4266              	.LC25:
 4267 00e4 4C616E67 		.string	"Language change:"
 4267      75616765 
 4267      20636861 
 4267      6E67653A 
 4267      00
 4268 00f5 000000   		.zero	3
 4269              	.LC26:
 4270 00f8 436F6E73 		.string	"Console must be unlocked for this option."
 4270      6F6C6520 
 4270      6D757374 
 4270      20626520 
 4270      756E6C6F 
 4271 0122 0000     		.zero	2
 4272              	.LC27:
 4273 0124 4F4B00   		.string	"OK"
 4274 0127 00       		.zero	1
 4275              	.LC28:
 4276 0128 4F4E00   		.string	"ON"
 4277 012b 00       		.zero	1
 4278              	.LC29:
 4279 012c 53797374 		.string	"System Default"
 4279      656D2044 
 4279      65666175 
 4279      6C7400
 4280 013b 00       		.zero	1
 4281              	.LC30:
 4282 013c 46756C6C 		.string	"Full Menu"
 4282      204D656E 
 4282      7500
 4283 0146 0000     		.zero	2
 4284              	.LC31:
 4285 0148 31206D69 		.string	"1 min"
 4285      6E00
 4286 014e 0000     		.zero	2
 4287              	.LC32:
 4288 0150 33206D69 		.string	"3 mins"
 4288      6E7300
 4289 0157 00       		.zero	1
 4290              	.LC33:
 4291 0158 35206D69 		.string	"5 mins"
 4291      6E7300
 4292 015f 00       		.zero	1
 4293              	.LC34:
 4294 0160 3130206D 		.string	"10 mins"
 4294      696E7300 
 4295              	.LC35:
 4296 0168 3230206D 		.string	"20 mins"
 4296      696E7300 
 4297              	.LC36:
 4298 0170 3330206D 		.string	"30 mins"
 4298      696E7300 
 4299              	.LC37:
 4300 0178 3120686F 		.string	"1 hour"
 4300      757200
 4301              		.section	".text"
 4302              	.Letext0:
 4303              		.file 14 "d:\\devkitpro\\devkitppc\\bin\\../lib/gcc/powerpc-eabi/4.6.3/../../../../powerpc-eabi/in
 4304              		.file 15 "d:/devkitPro/libogc/include/gctypes.h"
 4305              		.file 16 "d:/devkitPro/libogc/include/ogc/gx.h"
 4306              		.file 17 "d:\\devkitpro\\devkitppc\\bin\\../lib/gcc/powerpc-eabi/4.6.3/../../../../powerpc-eabi/in
 4307              		.file 18 "d:\\devkitpro\\devkitppc\\bin\\../lib/gcc/powerpc-eabi/4.6.3/../../../../powerpc-eabi/in
 4308              		.file 19 "d:\\devkitpro\\devkitppc\\bin\\../lib/gcc/powerpc-eabi/4.6.3/include/stddef.h"
 4309              		.file 20 "d:\\devkitpro\\devkitppc\\bin\\../lib/gcc/powerpc-eabi/4.6.3/../../../../powerpc-eabi/in
 4310              		.file 21 "d:\\devkitpro\\devkitppc\\bin\\../lib/gcc/powerpc-eabi/4.6.3/../../../../powerpc-eabi/in
 4311              		.file 22 "d:\\devkitpro\\devkitppc\\bin\\../lib/gcc/powerpc-eabi/4.6.3/../../../../powerpc-eabi/in
 4312              		.file 23 "<built-in>"
 4313              		.file 24 "d:\\devkitpro\\devkitppc\\bin\\../lib/gcc/powerpc-eabi/4.6.3/../../../../powerpc-eabi/in
 4314              		.file 25 "d:\\devkitpro\\devkitppc\\bin\\../lib/gcc/powerpc-eabi/4.6.3/../../../../powerpc-eabi/in
 4315              		.file 26 "d:\\devkitpro\\devkitppc\\bin\\../lib/gcc/powerpc-eabi/4.6.3/../../../../powerpc-eabi/in
 4316              		.file 27 "d:\\devkitpro\\devkitppc\\bin\\../lib/gcc/powerpc-eabi/4.6.3/../../../../powerpc-eabi/in
 4317              		.file 28 "d:\\devkitpro\\devkitppc\\bin\\../lib/gcc/powerpc-eabi/4.6.3/../../../../powerpc-eabi/in
 4318              		.file 29 "d:\\devkitpro\\devkitppc\\bin\\../lib/gcc/powerpc-eabi/4.6.3/../../../../powerpc-eabi/in
 4319              		.file 30 "d:\\devkitpro\\devkitppc\\bin\\../lib/gcc/powerpc-eabi/4.6.3/../../../../powerpc-eabi/in
 4320              		.file 31 "d:\\devkitpro\\devkitppc\\bin\\../lib/gcc/powerpc-eabi/4.6.3/../../../../powerpc-eabi/in
 4321              		.file 32 "d:\\devkitpro\\devkitppc\\bin\\../lib/gcc/powerpc-eabi/4.6.3/../../../../powerpc-eabi/in
 4322              		.file 33 "d:\\devkitpro\\devkitppc\\bin\\../lib/gcc/powerpc-eabi/4.6.3/../../../../powerpc-eabi/in
 4323              		.file 34 "d:\\devkitpro\\devkitppc\\bin\\../lib/gcc/powerpc-eabi/4.6.3/../../../../powerpc-eabi/in
 4324              		.file 35 "d:\\devkitpro\\devkitppc\\bin\\../lib/gcc/powerpc-eabi/4.6.3/../../../../powerpc-eabi/in
 4325              		.file 36 "d:\\devkitpro\\devkitppc\\bin\\../lib/gcc/powerpc-eabi/4.6.3/../../../../powerpc-eabi/in
 4326              		.file 37 "d:\\devkitpro\\devkitppc\\bin\\../lib/gcc/powerpc-eabi/4.6.3/../../../../powerpc-eabi/in
 4327              		.file 38 "d:\\devkitpro\\devkitppc\\bin\\../lib/gcc/powerpc-eabi/4.6.3/../../../../powerpc-eabi/in
 4328              		.file 39 "d:\\devkitpro\\devkitppc\\bin\\../lib/gcc/powerpc-eabi/4.6.3/../../../../powerpc-eabi/in
 4329              		.file 40 "d:\\devkitpro\\devkitppc\\bin\\../lib/gcc/powerpc-eabi/4.6.3/../../../../powerpc-eabi/in
 4330              		.file 41 "d:\\devkitpro\\devkitppc\\bin\\../lib/gcc/powerpc-eabi/4.6.3/../../../../powerpc-eabi/in
 4331              		.file 42 "d:/Projects/SaveGameManager/savegame-manager-gx/trunk/source/Settings/menus/../../GUI/..
 4332              		.file 43 "d:/Projects/SaveGameManager/savegame-manager-gx/trunk/source/Settings/menus/../../GUI/..
 4333              		.file 44 "d:/Projects/SaveGameManager/savegame-manager-gx/trunk/source/Settings/menus/../../GUI/..
 4334              		.file 45 "d:/Projects/SaveGameManager/savegame-manager-gx/trunk/source/Settings/menus/../../GUI/..
 4335              		.file 46 "d:/Projects/SaveGameManager/savegame-manager-gx/trunk/source/Settings/menus/../../GUI/..
 4336              		.file 47 "d:\\devkitpro\\devkitppc\\bin\\../lib/gcc/powerpc-eabi/4.6.3/../../../../powerpc-eabi/in
 4337              		.file 48 "d:\\devkitpro\\devkitppc\\bin\\../lib/gcc/powerpc-eabi/4.6.3/../../../../powerpc-eabi/in
 4338              		.file 49 "d:/Projects/SaveGameManager/savegame-manager-gx/trunk/source/Settings/menus/../../Prompt
 4339              		.file 50 "d:\\devkitpro\\devkitppc\\bin\\../lib/gcc/powerpc-eabi/4.6.3/../../../../powerpc-eabi/in
 4340              		.file 51 "d:\\devkitpro\\devkitppc\\bin\\../lib/gcc/powerpc-eabi/4.6.3/../../../../powerpc-eabi/in
 4341              		.file 52 "d:/Projects/SaveGameManager/savegame-manager-gx/trunk/source/Settings/menus/../../Prompt
 4342              		.file 53 "d:\\devkitpro\\devkitppc\\bin\\../lib/gcc/powerpc-eabi/4.6.3/../../../../powerpc-eabi/in