	.file	"HomeMenu.cpp"
	.section	".text"
.Ltext0:
	.section	.text._ZN7sigslot15single_threadedD2Ev,"axG",@progbits,_ZN7sigslot15single_threadedD5Ev,comdat
	.align 2
	.weak	_ZN7sigslot15single_threadedD2Ev
	.type	_ZN7sigslot15single_threadedD2Ev, @function
_ZN7sigslot15single_threadedD2Ev:
.LFB1148:
	.file 1 "d:/Projects/SaveGameManager/savegame-manager-gx/trunk/source/Prompts/../SoundOperations/../GUI/../sigslot.h"
	.loc 1 104 0
	.cfi_startproc
.LVL0:
.LBB2165:
	.loc 1 105 0
	lis 9,_ZTVN7sigslot15single_threadedE+8@ha
.LBE2165:
	.loc 1 107 0
.LBB2166:
	.loc 1 105 0
	la 0,_ZTVN7sigslot15single_threadedE+8@l(9)
	stw 0,0(3)
.LBE2166:
	.loc 1 107 0
	blr
	.cfi_endproc
.LFE1148:
	.size	_ZN7sigslot15single_threadedD2Ev, .-_ZN7sigslot15single_threadedD2Ev
	.section	.text._ZN7sigslot15single_threaded4lockEv,"axG",@progbits,_ZN7sigslot15single_threaded4lockEv,comdat
	.align 2
	.weak	_ZN7sigslot15single_threaded4lockEv
	.type	_ZN7sigslot15single_threaded4lockEv, @function
_ZN7sigslot15single_threaded4lockEv:
.LFB1151:
	.loc 1 109 0
	.cfi_startproc
.LVL1:
	.loc 1 112 0
	blr
	.cfi_endproc
.LFE1151:
	.size	_ZN7sigslot15single_threaded4lockEv, .-_ZN7sigslot15single_threaded4lockEv
	.section	.text._ZN7sigslot15single_threaded6unlockEv,"axG",@progbits,_ZN7sigslot15single_threaded6unlockEv,comdat
	.align 2
	.weak	_ZN7sigslot15single_threaded6unlockEv
	.type	_ZN7sigslot15single_threaded6unlockEv, @function
_ZN7sigslot15single_threaded6unlockEv:
.LFB1152:
	.loc 1 114 0
	.cfi_startproc
.LVL2:
	.loc 1 117 0
	blr
	.cfi_endproc
.LFE1152:
	.size	_ZN7sigslot15single_threaded6unlockEv, .-_ZN7sigslot15single_threaded6unlockEv
	.section	.text._ZN10GuiElement9SetParentEPS_,"axG",@progbits,_ZN10GuiElement9SetParentEPS_,comdat
	.align 2
	.weak	_ZN10GuiElement9SetParentEPS_
	.type	_ZN10GuiElement9SetParentEPS_, @function
_ZN10GuiElement9SetParentEPS_:
.LFB1384:
	.file 2 "d:/Projects/SaveGameManager/savegame-manager-gx/trunk/source/Prompts/../SoundOperations/../GUI/gui_element.h"
	.loc 2 92 0
	.cfi_startproc
.LVL3:
	.loc 2 92 0
	stw 4,96(3)
	blr
	.cfi_endproc
.LFE1384:
	.size	_ZN10GuiElement9SetParentEPS_, .-_ZN10GuiElement9SetParentEPS_
	.section	.text._ZN10GuiElement9GetParentEv,"axG",@progbits,_ZN10GuiElement9GetParentEv,comdat
	.align 2
	.weak	_ZN10GuiElement9GetParentEv
	.type	_ZN10GuiElement9GetParentEv, @function
_ZN10GuiElement9GetParentEv:
.LFB1385:
	.loc 2 95 0
	.cfi_startproc
.LVL4:
	.loc 2 95 0
	lwz 3,96(3)
.LVL5:
	blr
	.cfi_endproc
.LFE1385:
	.size	_ZN10GuiElement9GetParentEv, .-_ZN10GuiElement9GetParentEv
	.section	.text._ZN10GuiElement12GetZPositionEv,"axG",@progbits,_ZN10GuiElement12GetZPositionEv,comdat
	.align 2
	.weak	_ZN10GuiElement12GetZPositionEv
	.type	_ZN10GuiElement12GetZPositionEv, @function
_ZN10GuiElement12GetZPositionEv:
.LFB1386:
	.loc 2 106 0
	.cfi_startproc
.LVL6:
	mflr 0
	stwu 1,-16(1)
.LCFI0:
	.cfi_def_cfa_offset 16
	.cfi_register 65, 0
	stw 31,12(1)
	mr 31,3
	.cfi_offset 31, -4
	stw 0,20(1)
.LBB2167:
	.loc 2 110 0
	lwz 11,96(3)
	.loc 2 108 0
	li 3,0
.LVL7:
	.loc 2 110 0
	cmpwi 7,11,0
	beq- 7,.L8
	.cfi_offset 65, 4
	.loc 2 111 0
	lwz 9,0(11)
	mr 3,11
	lwz 0,24(9)
	mtctr 0
	bctrl
.LVL8:
.L8:
	.loc 2 113 0
	lwz 0,52(31)
.LBE2167:
	.loc 2 114 0
	lwz 31,12(1)
.LVL9:
	add 3,3,0
.LVL10:
	lwz 0,20(1)
	addi 1,1,16
.LCFI1:
	.cfi_def_cfa_offset 0
	.cfi_restore 31
	mtlr 0
	blr
	.cfi_endproc
.LFE1386:
	.size	_ZN10GuiElement12GetZPositionEv, .-_ZN10GuiElement12GetZPositionEv
	.section	.text._ZN10GuiElement10GetLeftPosEv,"axG",@progbits,_ZN10GuiElement10GetLeftPosEv,comdat
	.align 2
	.weak	_ZN10GuiElement10GetLeftPosEv
	.type	_ZN10GuiElement10GetLeftPosEv, @function
_ZN10GuiElement10GetLeftPosEv:
.LFB1387:
	.loc 2 116 0
	.cfi_startproc
.LVL11:
	.loc 2 116 0
	lwz 3,44(3)
.LVL12:
	blr
	.cfi_endproc
.LFE1387:
	.size	_ZN10GuiElement10GetLeftPosEv, .-_ZN10GuiElement10GetLeftPosEv
	.section	.text._ZN10GuiElement9GetTopPosEv,"axG",@progbits,_ZN10GuiElement9GetTopPosEv,comdat
	.align 2
	.weak	_ZN10GuiElement9GetTopPosEv
	.type	_ZN10GuiElement9GetTopPosEv, @function
_ZN10GuiElement9GetTopPosEv:
.LFB1388:
	.loc 2 118 0
	.cfi_startproc
.LVL13:
	.loc 2 118 0
	lwz 3,48(3)
.LVL14:
	blr
	.cfi_endproc
.LFE1388:
	.size	_ZN10GuiElement9GetTopPosEv, .-_ZN10GuiElement9GetTopPosEv
	.section	.text._ZN10GuiElement8GetWidthEv,"axG",@progbits,_ZN10GuiElement8GetWidthEv,comdat
	.align 2
	.weak	_ZN10GuiElement8GetWidthEv
	.type	_ZN10GuiElement8GetWidthEv, @function
_ZN10GuiElement8GetWidthEv:
.LFB1389:
	.loc 2 121 0
	.cfi_startproc
.LVL15:
	.loc 2 121 0
	lwz 3,36(3)
.LVL16:
	blr
	.cfi_endproc
.LFE1389:
	.size	_ZN10GuiElement8GetWidthEv, .-_ZN10GuiElement8GetWidthEv
	.section	.text._ZN10GuiElement9GetHeightEv,"axG",@progbits,_ZN10GuiElement9GetHeightEv,comdat
	.align 2
	.weak	_ZN10GuiElement9GetHeightEv
	.type	_ZN10GuiElement9GetHeightEv, @function
_ZN10GuiElement9GetHeightEv:
.LFB1390:
	.loc 2 124 0
	.cfi_startproc
.LVL17:
	.loc 2 124 0
	lwz 3,40(3)
.LVL18:
	blr
	.cfi_endproc
.LFE1390:
	.size	_ZN10GuiElement9GetHeightEv, .-_ZN10GuiElement9GetHeightEv
	.section	.text._ZN10GuiElement7SetSizeEii,"axG",@progbits,_ZN10GuiElement7SetSizeEii,comdat
	.align 2
	.weak	_ZN10GuiElement7SetSizeEii
	.type	_ZN10GuiElement7SetSizeEii, @function
_ZN10GuiElement7SetSizeEii:
.LFB1391:
	.loc 2 128 0
	.cfi_startproc
.LVL19:
	.loc 2 130 0
	stw 4,36(3)
	.loc 2 132 0
	.loc 2 131 0
	stw 5,40(3)
	.loc 2 132 0
	blr
	.cfi_endproc
.LFE1391:
	.size	_ZN10GuiElement7SetSizeEii, .-_ZN10GuiElement7SetSizeEii
	.section	.text._ZN10GuiElement9IsVisibleEv,"axG",@progbits,_ZN10GuiElement9IsVisibleEv,comdat
	.align 2
	.weak	_ZN10GuiElement9IsVisibleEv
	.type	_ZN10GuiElement9IsVisibleEv, @function
_ZN10GuiElement9IsVisibleEv:
.LFB1393:
	.loc 2 142 0
	.cfi_startproc
.LVL20:
	.loc 2 142 0
	lbz 3,29(3)
.LVL21:
	blr
	.cfi_endproc
.LFE1393:
	.size	_ZN10GuiElement9IsVisibleEv, .-_ZN10GuiElement9IsVisibleEv
	.section	.text._ZN10GuiElement12IsSelectableEv,"axG",@progbits,_ZN10GuiElement12IsSelectableEv,comdat
	.align 2
	.weak	_ZN10GuiElement12IsSelectableEv
	.type	_ZN10GuiElement12IsSelectableEv, @function
_ZN10GuiElement12IsSelectableEv:
.LFB1394:
	.loc 2 145 0
	.cfi_startproc
.LVL22:
	.loc 2 149 0
	lwz 0,72(3)
	li 9,0
	cmpwi 7,0,4
	beq- 7,.L18
	.loc 2 149 0 is_stmt 0 discriminator 1
	cmpwi 7,0,2
	beq- 7,.L18
	.loc 2 149 0 discriminator 3
	lbz 9,30(3)
.L18:
	.loc 2 150 0 is_stmt 1 discriminator 5
	mr 3,9
.LVL23:
	blr
	.cfi_endproc
.LFE1394:
	.size	_ZN10GuiElement12IsSelectableEv, .-_ZN10GuiElement12IsSelectableEv
	.section	.text._ZN10GuiElement11IsClickableEv,"axG",@progbits,_ZN10GuiElement11IsClickableEv,comdat
	.align 2
	.weak	_ZN10GuiElement11IsClickableEv
	.type	_ZN10GuiElement11IsClickableEv, @function
_ZN10GuiElement11IsClickableEv:
.LFB1395:
	.loc 2 153 0
	.cfi_startproc
.LVL24:
	.loc 2 158 0
	lwz 0,72(3)
	li 9,0
	cmpwi 7,0,4
	beq- 7,.L22
	.loc 2 158 0 is_stmt 0 discriminator 1
	cmpwi 7,0,2
	beq- 7,.L22
	.loc 2 158 0 discriminator 3
	cmpwi 7,0,3
	beq- 7,.L22
	.loc 2 158 0 discriminator 4
	lbz 9,31(3)
.L22:
	.loc 2 159 0 is_stmt 1 discriminator 6
	mr 3,9
.LVL25:
	blr
	.cfi_endproc
.LFE1395:
	.size	_ZN10GuiElement11IsClickableEv, .-_ZN10GuiElement11IsClickableEv
	.section	.text._ZN10GuiElement10IsHoldableEv,"axG",@progbits,_ZN10GuiElement10IsHoldableEv,comdat
	.align 2
	.weak	_ZN10GuiElement10IsHoldableEv
	.type	_ZN10GuiElement10IsHoldableEv, @function
_ZN10GuiElement10IsHoldableEv:
.LFB1396:
	.loc 2 162 0
	.cfi_startproc
.LVL26:
	.loc 2 162 0
	lwz 9,72(3)
	li 0,0
	cmpwi 7,9,4
	beq- 7,.L27
	.loc 2 162 0 is_stmt 0 discriminator 1
	lbz 0,32(3)
.L27:
	.loc 2 162 0 discriminator 4
	mr 3,0
.LVL27:
	blr
	.cfi_endproc
.LFE1396:
	.size	_ZN10GuiElement10IsHoldableEv, .-_ZN10GuiElement10IsHoldableEv
	.section	.text._ZN10GuiElement13SetSelectableEb,"axG",@progbits,_ZN10GuiElement13SetSelectableEb,comdat
	.align 2
	.weak	_ZN10GuiElement13SetSelectableEb
	.type	_ZN10GuiElement13SetSelectableEb, @function
_ZN10GuiElement13SetSelectableEb:
.LFB1397:
	.loc 2 165 0 is_stmt 1
	.cfi_startproc
.LVL28:
	.loc 2 165 0
	stb 4,30(3)
	blr
	.cfi_endproc
.LFE1397:
	.size	_ZN10GuiElement13SetSelectableEb, .-_ZN10GuiElement13SetSelectableEb
	.section	.text._ZN10GuiElement12SetClickableEb,"axG",@progbits,_ZN10GuiElement12SetClickableEb,comdat
	.align 2
	.weak	_ZN10GuiElement12SetClickableEb
	.type	_ZN10GuiElement12SetClickableEb, @function
_ZN10GuiElement12SetClickableEb:
.LFB1398:
	.loc 2 168 0
	.cfi_startproc
.LVL29:
	.loc 2 168 0
	stb 4,31(3)
	blr
	.cfi_endproc
.LFE1398:
	.size	_ZN10GuiElement12SetClickableEb, .-_ZN10GuiElement12SetClickableEb
	.section	.text._ZN10GuiElement11SetHoldableEb,"axG",@progbits,_ZN10GuiElement11SetHoldableEb,comdat
	.align 2
	.weak	_ZN10GuiElement11SetHoldableEb
	.type	_ZN10GuiElement11SetHoldableEb, @function
_ZN10GuiElement11SetHoldableEb:
.LFB1399:
	.loc 2 171 0
	.cfi_startproc
.LVL30:
	.loc 2 171 0
	stb 4,32(3)
	blr
	.cfi_endproc
.LFE1399:
	.size	_ZN10GuiElement11SetHoldableEb, .-_ZN10GuiElement11SetHoldableEb
	.section	.text._ZN10GuiElement8GetStateEv,"axG",@progbits,_ZN10GuiElement8GetStateEv,comdat
	.align 2
	.weak	_ZN10GuiElement8GetStateEv
	.type	_ZN10GuiElement8GetStateEv, @function
_ZN10GuiElement8GetStateEv:
.LFB1400:
	.loc 2 178 0
	.cfi_startproc
.LVL31:
	.loc 2 178 0
	lwz 3,72(3)
.LVL32:
	blr
	.cfi_endproc
.LFE1400:
	.size	_ZN10GuiElement8GetStateEv, .-_ZN10GuiElement8GetStateEv
	.section	.text._ZN10GuiElement12GetStateChanEv,"axG",@progbits,_ZN10GuiElement12GetStateChanEv,comdat
	.align 2
	.weak	_ZN10GuiElement12GetStateChanEv
	.type	_ZN10GuiElement12GetStateChanEv, @function
_ZN10GuiElement12GetStateChanEv:
.LFB1401:
	.loc 2 181 0
	.cfi_startproc
.LVL33:
	.loc 2 181 0
	lwz 3,76(3)
.LVL34:
	blr
	.cfi_endproc
.LFE1401:
	.size	_ZN10GuiElement12GetStateChanEv, .-_ZN10GuiElement12GetStateChanEv
	.section	.text._ZN10GuiElement8SetAlphaEi,"axG",@progbits,_ZN10GuiElement8SetAlphaEi,comdat
	.align 2
	.weak	_ZN10GuiElement8SetAlphaEi
	.type	_ZN10GuiElement8SetAlphaEi, @function
_ZN10GuiElement8SetAlphaEi:
.LFB1403:
	.loc 2 190 0
	.cfi_startproc
.LVL35:
	.loc 2 190 0
	stw 4,56(3)
	blr
	.cfi_endproc
.LFE1403:
	.size	_ZN10GuiElement8SetAlphaEi, .-_ZN10GuiElement8SetAlphaEi
	.section	.text._ZN10GuiElement8GetAlphaEv,"axG",@progbits,_ZN10GuiElement8GetAlphaEv,comdat
	.align 2
	.weak	_ZN10GuiElement8GetAlphaEv
	.type	_ZN10GuiElement8GetAlphaEv, @function
_ZN10GuiElement8GetAlphaEv:
.LFB1404:
	.loc 2 194 0
	.cfi_startproc
.LVL36:
	mflr 0
	stwu 1,-40(1)
.LCFI2:
	.cfi_def_cfa_offset 40
	.cfi_register 65, 0
	stw 31,36(1)
	stw 0,44(1)
.LBB2168:
	.loc 2 198 0
	lwz 31,108(3)
	.cfi_offset 65, 4
	.cfi_offset 31, -4
	cmpwi 7,31,0
	blt- 7,.L38
.L36:
.LVL37:
	.loc 2 203 0
	lwz 3,96(3)
.LVL38:
	cmpwi 7,3,0
	beq- 7,.L37
	.loc 2 204 0
	lwz 9,0(3)
	xoris 31,31,0x8000
.LVL39:
	lwz 0,100(9)
	mtctr 0
	bctrl
	lis 0,0x4330
	xoris 3,3,0x8000
	stw 0,16(1)
	stw 3,20(1)
	lis 9,.LC1@ha
	lfs 0,.LC1@l(9)
	lis 9,.LC2@ha
	lfd 13,16(1)
	lfs 12,.LC2@l(9)
	addi 9,1,24
	fsub 13,13,0
	stw 31,12(1)
	stw 0,8(1)
	frsp 13,13
	fdivs 13,13,12
	lfd 12,8(1)
	fsub 0,12,0
	frsp 0,0
	fmuls 0,0,13
	fctiwz 0,0
	stfiwx 0,0,9
	lwz 31,24(1)
.LVL40:
.L37:
.LBE2168:
	.loc 2 207 0
	lwz 0,44(1)
	mr 3,31
	lwz 31,36(1)
.LVL41:
	mtlr 0
	addi 1,1,40
	.cfi_remember_state
.LCFI3:
	.cfi_def_cfa_offset 0
	.cfi_restore 31
	blr
.LVL42:
.L38:
.LCFI4:
	.cfi_restore_state
.LBB2169:
	.loc 2 201 0
	lwz 31,56(3)
.LVL43:
	b .L36
.LBE2169:
	.cfi_endproc
.LFE1404:
	.size	_ZN10GuiElement8GetAlphaEv, .-_ZN10GuiElement8GetAlphaEv
	.section	.text._ZN10GuiElement8SetScaleEf,"axG",@progbits,_ZN10GuiElement8SetScaleEf,comdat
	.align 2
	.weak	_ZN10GuiElement8SetScaleEf
	.type	_ZN10GuiElement8SetScaleEf, @function
_ZN10GuiElement8SetScaleEf:
.LFB1405:
	.loc 2 210 0
	.cfi_startproc
.LVL44:
	.loc 2 212 0
	stfs 1,60(3)
	.loc 2 214 0
	.loc 2 213 0
	stfs 1,64(3)
	.loc 2 214 0
	blr
	.cfi_endproc
.LFE1405:
	.size	_ZN10GuiElement8SetScaleEf, .-_ZN10GuiElement8SetScaleEf
	.section	.text._ZN10GuiElement9SetScaleXEf,"axG",@progbits,_ZN10GuiElement9SetScaleXEf,comdat
	.align 2
	.weak	_ZN10GuiElement9SetScaleXEf
	.type	_ZN10GuiElement9SetScaleXEf, @function
_ZN10GuiElement9SetScaleXEf:
.LFB1406:
	.loc 2 217 0
	.cfi_startproc
.LVL45:
	.loc 2 217 0
	stfs 1,60(3)
	blr
	.cfi_endproc
.LFE1406:
	.size	_ZN10GuiElement9SetScaleXEf, .-_ZN10GuiElement9SetScaleXEf
	.section	.text._ZN10GuiElement9SetScaleYEf,"axG",@progbits,_ZN10GuiElement9SetScaleYEf,comdat
	.align 2
	.weak	_ZN10GuiElement9SetScaleYEf
	.type	_ZN10GuiElement9SetScaleYEf, @function
_ZN10GuiElement9SetScaleYEf:
.LFB1407:
	.loc 2 220 0
	.cfi_startproc
.LVL46:
	.loc 2 220 0
	stfs 1,64(3)
	blr
	.cfi_endproc
.LFE1407:
	.size	_ZN10GuiElement9SetScaleYEf, .-_ZN10GuiElement9SetScaleYEf
	.section	.text._ZN10GuiElement8GetScaleEv,"axG",@progbits,_ZN10GuiElement8GetScaleEv,comdat
	.align 2
	.weak	_ZN10GuiElement8GetScaleEv
	.type	_ZN10GuiElement8GetScaleEv, @function
_ZN10GuiElement8GetScaleEv:
.LFB1408:
	.loc 2 223 0
	.cfi_startproc
.LVL47:
	mflr 0
	stwu 1,-16(1)
.LCFI5:
	.cfi_def_cfa_offset 16
	.cfi_register 65, 0
.LBB2170:
	.loc 2 225 0
	lis 9,.LC3@ha
.LBE2170:
	.loc 2 223 0
	stfd 31,8(1)
	stw 0,20(1)
.LBB2171:
	.loc 2 225 0
	lfs 0,64(3)
	lfs 31,60(3)
	.cfi_offset 65, 4
	.cfi_offset 63, -8
	.loc 2 227 0
	lwz 11,96(3)
	.loc 2 225 0
	fadds 31,31,0
	lfs 0,.LC3@l(9)
	.loc 2 227 0
	cmpwi 7,11,0
	.loc 2 225 0
	fmuls 31,31,0
	lfs 0,112(3)
	fmuls 31,31,0
.LVL48:
	.loc 2 227 0
	beq- 7,.L43
	.loc 2 228 0
	lwz 9,0(11)
	mr 3,11
.LVL49:
	lwz 0,116(9)
	mtctr 0
	bctrl
	fmuls 31,31,1
.LVL50:
.L43:
.LBE2171:
	.loc 2 231 0
	lwz 0,20(1)
	fmr 1,31
	lfd 31,8(1)
.LVL51:
	mtlr 0
	addi 1,1,16
.LCFI6:
	.cfi_def_cfa_offset 0
	.cfi_restore 63
	blr
	.cfi_endproc
.LFE1408:
	.size	_ZN10GuiElement8GetScaleEv, .-_ZN10GuiElement8GetScaleEv
	.section	.text._ZN10GuiElement9GetScaleXEv,"axG",@progbits,_ZN10GuiElement9GetScaleXEv,comdat
	.align 2
	.weak	_ZN10GuiElement9GetScaleXEv
	.type	_ZN10GuiElement9GetScaleXEv, @function
_ZN10GuiElement9GetScaleXEv:
.LFB1409:
	.loc 2 234 0
	.cfi_startproc
.LVL52:
	mflr 0
	stwu 1,-16(1)
.LCFI7:
	.cfi_def_cfa_offset 16
	.cfi_register 65, 0
	stfd 31,8(1)
	stw 0,20(1)
.LBB2172:
	.loc 2 238 0
	lwz 11,96(3)
	.loc 2 236 0
	lfs 31,60(3)
	.cfi_offset 65, 4
	.cfi_offset 63, -8
	.loc 2 238 0
	cmpwi 7,11,0
	.loc 2 236 0
	lfs 0,112(3)
	fmuls 31,31,0
.LVL53:
	.loc 2 238 0
	beq- 7,.L45
	.loc 2 239 0
	lwz 9,0(11)
	mr 3,11
.LVL54:
	lwz 0,120(9)
	mtctr 0
	bctrl
	fmuls 31,31,1
.LVL55:
.L45:
.LBE2172:
	.loc 2 242 0
	lwz 0,20(1)
	fmr 1,31
	lfd 31,8(1)
.LVL56:
	mtlr 0
	addi 1,1,16
.LCFI8:
	.cfi_def_cfa_offset 0
	.cfi_restore 63
	blr
	.cfi_endproc
.LFE1409:
	.size	_ZN10GuiElement9GetScaleXEv, .-_ZN10GuiElement9GetScaleXEv
	.section	.text._ZN10GuiElement9GetScaleYEv,"axG",@progbits,_ZN10GuiElement9GetScaleYEv,comdat
	.align 2
	.weak	_ZN10GuiElement9GetScaleYEv
	.type	_ZN10GuiElement9GetScaleYEv, @function
_ZN10GuiElement9GetScaleYEv:
.LFB1410:
	.loc 2 245 0
	.cfi_startproc
.LVL57:
	mflr 0
	stwu 1,-16(1)
.LCFI9:
	.cfi_def_cfa_offset 16
	.cfi_register 65, 0
	stfd 31,8(1)
	stw 0,20(1)
.LBB2173:
	.loc 2 249 0
	lwz 11,96(3)
	.loc 2 247 0
	lfs 31,64(3)
	.cfi_offset 65, 4
	.cfi_offset 63, -8
	.loc 2 249 0
	cmpwi 7,11,0
	.loc 2 247 0
	lfs 0,112(3)
	fmuls 31,31,0
.LVL58:
	.loc 2 249 0
	beq- 7,.L47
	.loc 2 250 0
	lwz 9,0(11)
	mr 3,11
.LVL59:
	lwz 0,124(9)
	mtctr 0
	bctrl
	fmuls 31,31,1
.LVL60:
.L47:
.LBE2173:
	.loc 2 253 0
	lwz 0,20(1)
	fmr 1,31
	lfd 31,8(1)
.LVL61:
	mtlr 0
	addi 1,1,16
.LCFI10:
	.cfi_def_cfa_offset 0
	.cfi_restore 63
	blr
	.cfi_endproc
.LFE1410:
	.size	_ZN10GuiElement9GetScaleYEv, .-_ZN10GuiElement9GetScaleYEv
	.section	.text._ZN10GuiElement6RumbleEv,"axG",@progbits,_ZN10GuiElement6RumbleEv,comdat
	.align 2
	.weak	_ZN10GuiElement6RumbleEv
	.type	_ZN10GuiElement6RumbleEv, @function
_ZN10GuiElement6RumbleEv:
.LFB1411:
	.loc 2 256 0
	.cfi_startproc
.LVL62:
	.loc 2 256 0
	lbz 3,28(3)
.LVL63:
	blr
	.cfi_endproc
.LFE1411:
	.size	_ZN10GuiElement6RumbleEv, .-_ZN10GuiElement6RumbleEv
	.section	.text._ZN10GuiElement9SetRumbleEb,"axG",@progbits,_ZN10GuiElement9SetRumbleEb,comdat
	.align 2
	.weak	_ZN10GuiElement9SetRumbleEb
	.type	_ZN10GuiElement9SetRumbleEb, @function
_ZN10GuiElement9SetRumbleEb:
.LFB1412:
	.loc 2 259 0
	.cfi_startproc
.LVL64:
	.loc 2 259 0
	stb 4,28(3)
	blr
	.cfi_endproc
.LFE1412:
	.size	_ZN10GuiElement9SetRumbleEb, .-_ZN10GuiElement9SetRumbleEb
	.section	.text._ZN10GuiElement13SetEffectGrowEv,"axG",@progbits,_ZN10GuiElement13SetEffectGrowEv,comdat
	.align 2
	.weak	_ZN10GuiElement13SetEffectGrowEv
	.type	_ZN10GuiElement13SetEffectGrowEv, @function
_ZN10GuiElement13SetEffectGrowEv:
.LFB1413:
	.loc 2 271 0
	.cfi_startproc
.LVL65:
	mflr 0
	stwu 1,-8(1)
.LCFI11:
	.cfi_def_cfa_offset 8
	.cfi_register 65, 0
	lwz 9,0(3)
	li 4,256
	li 5,4
	li 6,110
	stw 0,12(1)
	.loc 2 271 0
	lwz 0,140(9)
	.cfi_offset 65, 4
	mtctr 0
	bctrl
.LVL66:
	lwz 0,12(1)
	addi 1,1,8
.LCFI12:
	.cfi_def_cfa_offset 0
	mtlr 0
	blr
	.cfi_endproc
.LFE1413:
	.size	_ZN10GuiElement13SetEffectGrowEv, .-_ZN10GuiElement13SetEffectGrowEv
	.section	.text._ZNK10GuiElement9GetEffectEv,"axG",@progbits,_ZNK10GuiElement9GetEffectEv,comdat
	.align 2
	.weak	_ZNK10GuiElement9GetEffectEv
	.type	_ZNK10GuiElement9GetEffectEv, @function
_ZNK10GuiElement9GetEffectEv:
.LFB1414:
	.loc 2 276 0
	.cfi_startproc
.LVL67:
	.loc 2 276 0
	lwz 3,120(3)
.LVL68:
	blr
	.cfi_endproc
.LFE1414:
	.size	_ZNK10GuiElement9GetEffectEv, .-_ZNK10GuiElement9GetEffectEv
	.section	.text._ZNK10GuiElement10IsAnimatedEv,"axG",@progbits,_ZNK10GuiElement10IsAnimatedEv,comdat
	.align 2
	.weak	_ZNK10GuiElement10IsAnimatedEv
	.type	_ZNK10GuiElement10IsAnimatedEv, @function
_ZNK10GuiElement10IsAnimatedEv:
.LFB1415:
	.loc 2 278 0
	.cfi_startproc
.LVL69:
	mflr 0
	stwu 1,-8(1)
.LCFI13:
	.cfi_def_cfa_offset 8
	.cfi_register 65, 0
	stw 0,12(1)
	.loc 2 278 0
	lwz 9,0(3)
	lwz 0,152(9)
	.cfi_offset 65, 4
	mtctr 0
	bctrl
.LVL70:
	srawi 0,3,31
	subf 3,3,0
	lwz 0,12(1)
	srwi 3,3,31
	mtlr 0
	addi 1,1,8
.LCFI14:
	.cfi_def_cfa_offset 0
	blr
	.cfi_endproc
.LFE1415:
	.size	_ZNK10GuiElement10IsAnimatedEv, .-_ZNK10GuiElement10IsAnimatedEv
	.section	.text._ZN10GuiElement8IsInsideEii,"axG",@progbits,_ZN10GuiElement8IsInsideEii,comdat
	.align 2
	.weak	_ZN10GuiElement8IsInsideEii
	.type	_ZN10GuiElement8IsInsideEii, @function
_ZN10GuiElement8IsInsideEii:
.LFB1417:
	.loc 2 285 0
	.cfi_startproc
.LVL71:
	mflr 0
	stwu 1,-24(1)
.LCFI15:
	.cfi_def_cfa_offset 24
	.cfi_register 65, 0
	stw 28,8(1)
	mr 28,5
	.cfi_offset 28, -16
	stw 0,28(1)
	stw 29,12(1)
	.loc 2 290 0
	li 29,0
	.cfi_offset 29, -12
	.cfi_offset 65, 4
	.loc 2 287 0
	lwz 9,0(3)
	.loc 2 285 0
	stw 30,16(1)
	mr 30,4
	.cfi_offset 30, -8
	.loc 2 287 0
	lwz 0,16(9)
	.loc 2 285 0
	stw 31,20(1)
	.loc 2 285 0
	mr 31,3
	.cfi_offset 31, -4
	.loc 2 287 0
	mtctr 0
	bctrl
.LVL72:
	.loc 2 290 0
	cmpw 7,3,30
	blt- 7,.L58
.L54:
	.loc 2 291 0 discriminator 6
	lwz 0,28(1)
	mr 3,29
	lwz 28,8(1)
.LVL73:
	mtlr 0
	lwz 29,12(1)
	lwz 30,16(1)
.LVL74:
	lwz 31,20(1)
.LVL75:
	addi 1,1,24
	.cfi_remember_state
.LCFI16:
	.cfi_def_cfa_offset 0
	.cfi_restore 31
	.cfi_restore 30
	.cfi_restore 29
	.cfi_restore 28
	blr
.LVL76:
.L58:
.LCFI17:
	.cfi_restore_state
	.loc 2 288 0 discriminator 1
	lwz 9,0(31)
	mr 3,31
	lwz 0,16(9)
	mtctr 0
	bctrl
	.loc 2 290 0 discriminator 1
	lwz 0,36(31)
	add 0,3,0
	cmpw 7,30,0
	bge+ 7,.L54
	.loc 2 289 0 discriminator 3
	lwz 9,0(31)
	mr 3,31
	lwz 0,20(9)
	mtctr 0
	bctrl
	.loc 2 290 0 discriminator 3
	cmpw 7,3,28
	bge+ 7,.L54
	.loc 2 290 0 is_stmt 0 discriminator 4
	lwz 9,0(31)
	mr 3,31
	lwz 0,20(9)
	mtctr 0
	bctrl
	lwz 0,40(31)
	add 0,3,0
	.loc 2 285 0 is_stmt 1 discriminator 4
	cmpw 7,28,0
	mfcr 29
	rlwinm 29,29,29,1
	b .L54
	.cfi_endproc
.LFE1417:
	.size	_ZN10GuiElement8IsInsideEii, .-_ZN10GuiElement8IsInsideEii
	.section	.text._ZN10GuiElement11SetPositionEii,"axG",@progbits,_ZN10GuiElement11SetPositionEii,comdat
	.align 2
	.weak	_ZN10GuiElement11SetPositionEii
	.type	_ZN10GuiElement11SetPositionEii, @function
_ZN10GuiElement11SetPositionEii:
.LFB1418:
	.loc 2 295 0
	.cfi_startproc
.LVL77:
	.loc 2 297 0
	stw 4,44(3)
	.loc 2 299 0
	.loc 2 298 0
	stw 5,48(3)
	.loc 2 299 0
	blr
	.cfi_endproc
.LFE1418:
	.size	_ZN10GuiElement11SetPositionEii, .-_ZN10GuiElement11SetPositionEii
	.section	.text._ZN10GuiElement11SetPositionEiii,"axG",@progbits,_ZN10GuiElement11SetPositionEiii,comdat
	.align 2
	.weak	_ZN10GuiElement11SetPositionEiii
	.type	_ZN10GuiElement11SetPositionEiii, @function
_ZN10GuiElement11SetPositionEiii:
.LFB1419:
	.loc 2 304 0
	.cfi_startproc
.LVL78:
	.loc 2 306 0
	stw 4,44(3)
	.loc 2 309 0
	.loc 2 307 0
	stw 5,48(3)
	.loc 2 308 0
	stw 6,52(3)
	.loc 2 309 0
	blr
	.cfi_endproc
.LFE1419:
	.size	_ZN10GuiElement11SetPositionEiii, .-_ZN10GuiElement11SetPositionEiii
	.section	.text._ZN10GuiElement12SetAlignmentEi,"axG",@progbits,_ZN10GuiElement12SetAlignmentEi,comdat
	.align 2
	.weak	_ZN10GuiElement12SetAlignmentEi
	.type	_ZN10GuiElement12SetAlignmentEi, @function
_ZN10GuiElement12SetAlignmentEi:
.LFB1421:
	.loc 2 316 0
	.cfi_startproc
.LVL79:
	.loc 2 316 0
	stw 4,68(3)
	blr
	.cfi_endproc
.LFE1421:
	.size	_ZN10GuiElement12SetAlignmentEi, .-_ZN10GuiElement12SetAlignmentEi
	.section	.text._ZNK10GuiElement12GetAlignmentEv,"axG",@progbits,_ZNK10GuiElement12GetAlignmentEv,comdat
	.align 2
	.weak	_ZNK10GuiElement12GetAlignmentEv
	.type	_ZNK10GuiElement12GetAlignmentEv, @function
_ZNK10GuiElement12GetAlignmentEv:
.LFB1422:
	.loc 2 318 0
	.cfi_startproc
.LVL80:
	.loc 2 318 0
	lwz 3,68(3)
.LVL81:
	blr
	.cfi_endproc
.LFE1422:
	.size	_ZNK10GuiElement12GetAlignmentEv, .-_ZNK10GuiElement12GetAlignmentEv
	.section	.text._ZN8GuiFrame4showEv,"axG",@progbits,_ZN8GuiFrame4showEv,comdat
	.align 2
	.weak	_ZN8GuiFrame4showEv
	.type	_ZN8GuiFrame4showEv, @function
_ZN8GuiFrame4showEv:
.LFB1428:
	.file 3 "d:/Projects/SaveGameManager/savegame-manager-gx/trunk/source/Prompts/../SoundOperations/../GUI/gui_frame.h"
	.loc 3 79 0
	.cfi_startproc
.LVL82:
	.loc 3 79 0
	blr
	.cfi_endproc
.LFE1428:
	.size	_ZN8GuiFrame4showEv, .-_ZN8GuiFrame4showEv
	.section	.text._ZN8GuiFrame4hideEv,"axG",@progbits,_ZN8GuiFrame4hideEv,comdat
	.align 2
	.weak	_ZN8GuiFrame4hideEv
	.type	_ZN8GuiFrame4hideEv, @function
_ZN8GuiFrame4hideEv:
.LFB1429:
	.loc 3 81 0
	.cfi_startproc
.LVL83:
	.loc 3 81 0
	blr
	.cfi_endproc
.LFE1429:
	.size	_ZN8GuiFrame4hideEv, .-_ZN8GuiFrame4hideEv
	.section	.text._ZN8GuiFrame4execEv,"axG",@progbits,_ZN8GuiFrame4execEv,comdat
	.align 2
	.weak	_ZN8GuiFrame4execEv
	.type	_ZN8GuiFrame4execEv, @function
_ZN8GuiFrame4execEv:
.LFB1430:
	.loc 3 83 0
	.cfi_startproc
.LVL84:
	.loc 3 83 0
	blr
	.cfi_endproc
.LFE1430:
	.size	_ZN8GuiFrame4execEv, .-_ZN8GuiFrame4execEv
	.section	.text._ZN8GuiFrame12updateEventsEv,"axG",@progbits,_ZN8GuiFrame12updateEventsEv,comdat
	.align 2
	.weak	_ZN8GuiFrame12updateEventsEv
	.type	_ZN8GuiFrame12updateEventsEv, @function
_ZN8GuiFrame12updateEventsEv:
.LFB1431:
	.loc 3 85 0
	.cfi_startproc
.LVL85:
	.loc 3 85 0
	blr
	.cfi_endproc
.LFE1431:
	.size	_ZN8GuiFrame12updateEventsEv, .-_ZN8GuiFrame12updateEventsEv
	.section	.text._ZN7sigslot17_connection_base3IP9GuiButtoniRK6_POINTNS_15single_threadedEED2Ev,"axG",@progbits,_ZN7sigslot17_connection_base3IP9GuiButtoniRK6_POINTNS_15single_threadedEED5Ev,comdat
	.align 2
	.weak	_ZN7sigslot17_connection_base3IP9GuiButtoniRK6_POINTNS_15single_threadedEED2Ev
	.type	_ZN7sigslot17_connection_base3IP9GuiButtoniRK6_POINTNS_15single_threadedEED2Ev, @function
_ZN7sigslot17_connection_base3IP9GuiButtoniRK6_POINTNS_15single_threadedEED2Ev:
.LFB1797:
	.loc 1 387 0
	.cfi_startproc
.LVL86:
.LBB2174:
	.loc 1 387 0
	lis 9,_ZTVN7sigslot17_connection_base3IP9GuiButtoniRK6_POINTNS_15single_threadedEEE+8@ha
.LBE2174:
.LBB2175:
	la 0,_ZTVN7sigslot17_connection_base3IP9GuiButtoniRK6_POINTNS_15single_threadedEEE+8@l(9)
	stw 0,0(3)
.LBE2175:
	blr
	.cfi_endproc
.LFE1797:
	.size	_ZN7sigslot17_connection_base3IP9GuiButtoniRK6_POINTNS_15single_threadedEED2Ev, .-_ZN7sigslot17_connection_base3IP9GuiButtoniRK6_POINTNS_15single_threadedEED2Ev
	.section	.text._ZN7sigslot17_connection_base3IP10GuiElementiiNS_15single_threadedEED2Ev,"axG",@progbits,_ZN7sigslot17_connection_base3IP10GuiElementiiNS_15single_threadedEED5Ev,comdat
	.align 2
	.weak	_ZN7sigslot17_connection_base3IP10GuiElementiiNS_15single_threadedEED2Ev
	.type	_ZN7sigslot17_connection_base3IP10GuiElementiiNS_15single_threadedEED2Ev, @function
_ZN7sigslot17_connection_base3IP10GuiElementiiNS_15single_threadedEED2Ev:
.LFB1804:
	.loc 1 387 0
	.cfi_startproc
.LVL87:
.LBB2176:
	.loc 1 387 0
	lis 9,_ZTVN7sigslot17_connection_base3IP10GuiElementiiNS_15single_threadedEEE+8@ha
.LBE2176:
.LBB2177:
	la 0,_ZTVN7sigslot17_connection_base3IP10GuiElementiiNS_15single_threadedEEE+8@l(9)
	stw 0,0(3)
.LBE2177:
	blr
	.cfi_endproc
.LFE1804:
	.size	_ZN7sigslot17_connection_base3IP10GuiElementiiNS_15single_threadedEED2Ev, .-_ZN7sigslot17_connection_base3IP10GuiElementiiNS_15single_threadedEED2Ev
	.section	.text._ZN7sigslot12_connection3I8HomeMenuP10GuiElementiiNS_15single_threadedEED2Ev,"axG",@progbits,_ZN7sigslot12_connection3I8HomeMenuP10GuiElementiiNS_15single_threadedEED5Ev,comdat
	.align 2
	.weak	_ZN7sigslot12_connection3I8HomeMenuP10GuiElementiiNS_15single_threadedEED2Ev
	.type	_ZN7sigslot12_connection3I8HomeMenuP10GuiElementiiNS_15single_threadedEED2Ev, @function
_ZN7sigslot12_connection3I8HomeMenuP10GuiElementiiNS_15single_threadedEED2Ev:
.LFB2054:
	.loc 1 1783 0
	.cfi_startproc
.LVL88:
.LBB2178:
.LBB2179:
.LBB2180:
.LBB2181:
	.loc 1 387 0
	lis 9,_ZTVN7sigslot17_connection_base3IP10GuiElementiiNS_15single_threadedEEE+8@ha
.LBE2181:
.LBE2180:
.LBE2179:
.LBE2178:
	.loc 1 1786 0
.LBB2185:
.LBB2184:
.LBB2183:
.LBB2182:
	.loc 1 387 0
	la 0,_ZTVN7sigslot17_connection_base3IP10GuiElementiiNS_15single_threadedEEE+8@l(9)
	stw 0,0(3)
.LBE2182:
.LBE2183:
.LBE2184:
.LBE2185:
	.loc 1 1786 0
	blr
	.cfi_endproc
.LFE2054:
	.size	_ZN7sigslot12_connection3I8HomeMenuP10GuiElementiiNS_15single_threadedEED2Ev, .-_ZN7sigslot12_connection3I8HomeMenuP10GuiElementiiNS_15single_threadedEED2Ev
	.section	.text._ZNK7sigslot12_connection3I8HomeMenuP10GuiElementiiNS_15single_threadedEE7getdestEv,"axG",@progbits,_ZNK7sigslot12_connection3I8HomeMenuP10GuiElementiiNS_15single_threadedEE7getdestEv,comdat
	.align 2
	.weak	_ZNK7sigslot12_connection3I8HomeMenuP10GuiElementiiNS_15single_threadedEE7getdestEv
	.type	_ZNK7sigslot12_connection3I8HomeMenuP10GuiElementiiNS_15single_threadedEE7getdestEv, @function
_ZNK7sigslot12_connection3I8HomeMenuP10GuiElementiiNS_15single_threadedEE7getdestEv:
.LFB2057:
	.loc 1 1804 0
	.cfi_startproc
.LVL89:
	.loc 1 1806 0
	lwz 9,4(3)
	li 3,0
.LVL90:
	cmpwi 7,9,0
	beqlr- 7
	.loc 1 1806 0 is_stmt 0 discriminator 1
	addi 3,9,176
	.loc 1 1807 0 is_stmt 1 discriminator 1
	blr
	.cfi_endproc
.LFE2057:
	.size	_ZNK7sigslot12_connection3I8HomeMenuP10GuiElementiiNS_15single_threadedEE7getdestEv, .-_ZNK7sigslot12_connection3I8HomeMenuP10GuiElementiiNS_15single_threadedEE7getdestEv
	.section	.text._ZN7sigslot12_connection3I8HomeMenuP10GuiElementiiNS_15single_threadedEE4emitES3_ii,"axG",@progbits,_ZN7sigslot12_connection3I8HomeMenuP10GuiElementiiNS_15single_threadedEE4emitES3_ii,comdat
	.align 2
	.weak	_ZN7sigslot12_connection3I8HomeMenuP10GuiElementiiNS_15single_threadedEE4emitES3_ii
	.type	_ZN7sigslot12_connection3I8HomeMenuP10GuiElementiiNS_15single_threadedEE4emitES3_ii, @function
_ZN7sigslot12_connection3I8HomeMenuP10GuiElementiiNS_15single_threadedEE4emitES3_ii:
.LFB2058:
	.loc 1 1799 0
	.cfi_startproc
.LVL91:
	mflr 0
	stwu 1,-8(1)
.LCFI18:
	.cfi_def_cfa_offset 8
	.cfi_register 65, 0
	stw 0,12(1)
	.loc 1 1801 0
	lwz 0,8(3)
	.cfi_offset 65, 4
	lwz 11,4(3)
	andi. 9,0,1
	lwz 9,12(3)
	bne- 0,.L78
	mtctr 0
	add 3,11,9
.LVL92:
	bctrl
.LVL93:
	.loc 1 1802 0
	lwz 0,12(1)
	addi 1,1,8
	.cfi_remember_state
.LCFI19:
	.cfi_def_cfa_offset 0
	mtlr 0
	blr
.LVL94:
.L78:
.LCFI20:
	.cfi_restore_state
	.loc 1 1801 0 discriminator 1
	lwzx 10,11,9
	add 3,11,9
.LVL95:
	add 9,10,0
	lwz 0,-1(9)
	mtctr 0
	bctrl
.LVL96:
	.loc 1 1802 0 discriminator 1
	lwz 0,12(1)
	addi 1,1,8
.LCFI21:
	.cfi_def_cfa_offset 0
	mtlr 0
	blr
	.cfi_endproc
.LFE2058:
	.size	_ZN7sigslot12_connection3I8HomeMenuP10GuiElementiiNS_15single_threadedEE4emitES3_ii, .-_ZN7sigslot12_connection3I8HomeMenuP10GuiElementiiNS_15single_threadedEE4emitES3_ii
	.section	.text._ZN7sigslot12_connection3I8HomeMenuP9GuiButtoniRK6_POINTNS_15single_threadedEED2Ev,"axG",@progbits,_ZN7sigslot12_connection3I8HomeMenuP9GuiButtoniRK6_POINTNS_15single_threadedEED5Ev,comdat
	.align 2
	.weak	_ZN7sigslot12_connection3I8HomeMenuP9GuiButtoniRK6_POINTNS_15single_threadedEED2Ev
	.type	_ZN7sigslot12_connection3I8HomeMenuP9GuiButtoniRK6_POINTNS_15single_threadedEED2Ev, @function
_ZN7sigslot12_connection3I8HomeMenuP9GuiButtoniRK6_POINTNS_15single_threadedEED2Ev:
.LFB2068:
	.loc 1 1783 0
	.cfi_startproc
.LVL97:
.LBB2186:
.LBB2187:
.LBB2188:
.LBB2189:
	.loc 1 387 0
	lis 9,_ZTVN7sigslot17_connection_base3IP9GuiButtoniRK6_POINTNS_15single_threadedEEE+8@ha
.LBE2189:
.LBE2188:
.LBE2187:
.LBE2186:
	.loc 1 1786 0
.LBB2193:
.LBB2192:
.LBB2191:
.LBB2190:
	.loc 1 387 0
	la 0,_ZTVN7sigslot17_connection_base3IP9GuiButtoniRK6_POINTNS_15single_threadedEEE+8@l(9)
	stw 0,0(3)
.LBE2190:
.LBE2191:
.LBE2192:
.LBE2193:
	.loc 1 1786 0
	blr
	.cfi_endproc
.LFE2068:
	.size	_ZN7sigslot12_connection3I8HomeMenuP9GuiButtoniRK6_POINTNS_15single_threadedEED2Ev, .-_ZN7sigslot12_connection3I8HomeMenuP9GuiButtoniRK6_POINTNS_15single_threadedEED2Ev
	.section	.text._ZNK7sigslot12_connection3I8HomeMenuP9GuiButtoniRK6_POINTNS_15single_threadedEE7getdestEv,"axG",@progbits,_ZNK7sigslot12_connection3I8HomeMenuP9GuiButtoniRK6_POINTNS_15single_threadedEE7getdestEv,comdat
	.align 2
	.weak	_ZNK7sigslot12_connection3I8HomeMenuP9GuiButtoniRK6_POINTNS_15single_threadedEE7getdestEv
	.type	_ZNK7sigslot12_connection3I8HomeMenuP9GuiButtoniRK6_POINTNS_15single_threadedEE7getdestEv, @function
_ZNK7sigslot12_connection3I8HomeMenuP9GuiButtoniRK6_POINTNS_15single_threadedEE7getdestEv:
.LFB2071:
	.loc 1 1804 0
	.cfi_startproc
.LVL98:
	.loc 1 1806 0
	lwz 9,4(3)
	li 3,0
.LVL99:
	cmpwi 7,9,0
	beqlr- 7
	.loc 1 1806 0 is_stmt 0 discriminator 1
	addi 3,9,176
	.loc 1 1807 0 is_stmt 1 discriminator 1
	blr
	.cfi_endproc
.LFE2071:
	.size	_ZNK7sigslot12_connection3I8HomeMenuP9GuiButtoniRK6_POINTNS_15single_threadedEE7getdestEv, .-_ZNK7sigslot12_connection3I8HomeMenuP9GuiButtoniRK6_POINTNS_15single_threadedEE7getdestEv
	.section	.text._ZN7sigslot12_connection3I8HomeMenuP9GuiButtoniRK6_POINTNS_15single_threadedEE4emitES3_iS6_,"axG",@progbits,_ZN7sigslot12_connection3I8HomeMenuP9GuiButtoniRK6_POINTNS_15single_threadedEE4emitES3_iS6_,comdat
	.align 2
	.weak	_ZN7sigslot12_connection3I8HomeMenuP9GuiButtoniRK6_POINTNS_15single_threadedEE4emitES3_iS6_
	.type	_ZN7sigslot12_connection3I8HomeMenuP9GuiButtoniRK6_POINTNS_15single_threadedEE4emitES3_iS6_, @function
_ZN7sigslot12_connection3I8HomeMenuP9GuiButtoniRK6_POINTNS_15single_threadedEE4emitES3_iS6_:
.LFB2072:
	.loc 1 1799 0
	.cfi_startproc
.LVL100:
	mflr 0
	stwu 1,-8(1)
.LCFI22:
	.cfi_def_cfa_offset 8
	.cfi_register 65, 0
	stw 0,12(1)
	.loc 1 1801 0
	lwz 0,8(3)
	.cfi_offset 65, 4
	lwz 11,4(3)
	andi. 9,0,1
	lwz 9,12(3)
	bne- 0,.L87
	mtctr 0
	add 3,11,9
.LVL101:
	bctrl
.LVL102:
	.loc 1 1802 0
	lwz 0,12(1)
	addi 1,1,8
	.cfi_remember_state
.LCFI23:
	.cfi_def_cfa_offset 0
	mtlr 0
	blr
.LVL103:
.L87:
.LCFI24:
	.cfi_restore_state
	.loc 1 1801 0 discriminator 1
	lwzx 10,11,9
	add 3,11,9
.LVL104:
	add 9,10,0
	lwz 0,-1(9)
	mtctr 0
	bctrl
.LVL105:
	.loc 1 1802 0 discriminator 1
	lwz 0,12(1)
	addi 1,1,8
.LCFI25:
	.cfi_def_cfa_offset 0
	mtlr 0
	blr
	.cfi_endproc
.LFE2072:
	.size	_ZN7sigslot12_connection3I8HomeMenuP9GuiButtoniRK6_POINTNS_15single_threadedEE4emitES3_iS6_, .-_ZN7sigslot12_connection3I8HomeMenuP9GuiButtoniRK6_POINTNS_15single_threadedEE4emitES3_iS6_
	.section	.text._ZN7sigslot12_connection3I8HomeMenuP9GuiButtoniRK6_POINTNS_15single_threadedEE9duplicateEPNS_9has_slotsIS7_EE,"axG",@progbits,_ZN7sigslot12_connection3I8HomeMenuP9GuiButtoniRK6_POINTNS_15single_threadedEE9duplicateEPNS_9has_slotsIS7_EE,comdat
	.align 2
	.weak	_ZN7sigslot12_connection3I8HomeMenuP9GuiButtoniRK6_POINTNS_15single_threadedEE9duplicateEPNS_9has_slotsIS7_EE
	.type	_ZN7sigslot12_connection3I8HomeMenuP9GuiButtoniRK6_POINTNS_15single_threadedEE9duplicateEPNS_9has_slotsIS7_EE, @function
_ZN7sigslot12_connection3I8HomeMenuP9GuiButtoniRK6_POINTNS_15single_threadedEE9duplicateEPNS_9has_slotsIS7_EE:
.LFB2080:
	.loc 1 1794 0
	.cfi_startproc
.LVL106:
	stwu 1,-16(1)
.LCFI26:
	.cfi_def_cfa_offset 16
	mflr 0
	stw 30,8(1)
	mr 30,4
	.cfi_offset 30, -8
	.cfi_register 65, 0
	stw 31,12(1)
	mr 31,3
	.cfi_offset 31, -4
	.loc 1 1796 0
	li 3,16
.LVL107:
	.loc 1 1794 0
	stw 0,20(1)
	.loc 1 1796 0
	.cfi_offset 65, 4
	bl _Znwj
.LVL108:
	cmpwi 7,30,0
	li 0,0
	beq- 7,.L90
	.loc 1 1796 0 is_stmt 0 discriminator 1
	addi 0,30,-176
.L90:
.LVL109:
	.loc 1 1796 0 discriminator 3
	lwz 11,8(31)
.LVL110:
.LBB2194:
.LBB2195:
	.loc 1 1778 0 is_stmt 1 discriminator 3
	lis 10,_ZTVN7sigslot12_connection3I8HomeMenuP9GuiButtoniRK6_POINTNS_15single_threadedEEE+8@ha
.LBE2195:
.LBE2194:
	.loc 1 1796 0 discriminator 3
	lwz 9,12(31)
.LVL111:
.LBB2198:
.LBB2196:
	.loc 1 1778 0 discriminator 3
	la 10,_ZTVN7sigslot12_connection3I8HomeMenuP9GuiButtoniRK6_POINTNS_15single_threadedEEE+8@l(10)
	.loc 1 1780 0 discriminator 3
	stw 11,8(3)
	stw 9,12(3)
	.loc 1 1779 0 discriminator 3
	stw 0,4(3)
.LBE2196:
.LBE2198:
	.loc 1 1797 0 discriminator 3
	lwz 0,20(1)
.LVL112:
	lwz 30,8(1)
.LVL113:
	mtlr 0
	lwz 31,12(1)
.LVL114:
.LBB2199:
.LBB2197:
	.loc 1 1778 0 discriminator 3
	stw 10,0(3)
.LBE2197:
.LBE2199:
	.loc 1 1797 0 discriminator 3
	addi 1,1,16
.LCFI27:
	.cfi_def_cfa_offset 0
	.cfi_restore 31
	.cfi_restore 30
	blr
	.cfi_endproc
.LFE2080:
	.size	_ZN7sigslot12_connection3I8HomeMenuP9GuiButtoniRK6_POINTNS_15single_threadedEE9duplicateEPNS_9has_slotsIS7_EE, .-_ZN7sigslot12_connection3I8HomeMenuP9GuiButtoniRK6_POINTNS_15single_threadedEE9duplicateEPNS_9has_slotsIS7_EE
	.section	.text._ZN7sigslot12_connection3I8HomeMenuP10GuiElementiiNS_15single_threadedEE9duplicateEPNS_9has_slotsIS4_EE,"axG",@progbits,_ZN7sigslot12_connection3I8HomeMenuP10GuiElementiiNS_15single_threadedEE9duplicateEPNS_9has_slotsIS4_EE,comdat
	.align 2
	.weak	_ZN7sigslot12_connection3I8HomeMenuP10GuiElementiiNS_15single_threadedEE9duplicateEPNS_9has_slotsIS4_EE
	.type	_ZN7sigslot12_connection3I8HomeMenuP10GuiElementiiNS_15single_threadedEE9duplicateEPNS_9has_slotsIS4_EE, @function
_ZN7sigslot12_connection3I8HomeMenuP10GuiElementiiNS_15single_threadedEE9duplicateEPNS_9has_slotsIS4_EE:
.LFB2066:
	.loc 1 1794 0
	.cfi_startproc
.LVL115:
	stwu 1,-16(1)
.LCFI28:
	.cfi_def_cfa_offset 16
	mflr 0
	stw 30,8(1)
	mr 30,4
	.cfi_offset 30, -8
	.cfi_register 65, 0
	stw 31,12(1)
	mr 31,3
	.cfi_offset 31, -4
	.loc 1 1796 0
	li 3,16
.LVL116:
	.loc 1 1794 0
	stw 0,20(1)
	.loc 1 1796 0
	.cfi_offset 65, 4
	bl _Znwj
.LVL117:
	cmpwi 7,30,0
	li 0,0
	beq- 7,.L93
	.loc 1 1796 0 is_stmt 0 discriminator 1
	addi 0,30,-176
.L93:
.LVL118:
	.loc 1 1796 0 discriminator 3
	lwz 11,8(31)
.LVL119:
.LBB2200:
.LBB2201:
	.loc 1 1778 0 is_stmt 1 discriminator 3
	lis 10,_ZTVN7sigslot12_connection3I8HomeMenuP10GuiElementiiNS_15single_threadedEEE+8@ha
.LBE2201:
.LBE2200:
	.loc 1 1796 0 discriminator 3
	lwz 9,12(31)
.LVL120:
.LBB2204:
.LBB2202:
	.loc 1 1778 0 discriminator 3
	la 10,_ZTVN7sigslot12_connection3I8HomeMenuP10GuiElementiiNS_15single_threadedEEE+8@l(10)
	.loc 1 1780 0 discriminator 3
	stw 11,8(3)
	stw 9,12(3)
	.loc 1 1779 0 discriminator 3
	stw 0,4(3)
.LBE2202:
.LBE2204:
	.loc 1 1797 0 discriminator 3
	lwz 0,20(1)
.LVL121:
	lwz 30,8(1)
.LVL122:
	mtlr 0
	lwz 31,12(1)
.LVL123:
.LBB2205:
.LBB2203:
	.loc 1 1778 0 discriminator 3
	stw 10,0(3)
.LBE2203:
.LBE2205:
	.loc 1 1797 0 discriminator 3
	addi 1,1,16
.LCFI29:
	.cfi_def_cfa_offset 0
	.cfi_restore 31
	.cfi_restore 30
	blr
	.cfi_endproc
.LFE2066:
	.size	_ZN7sigslot12_connection3I8HomeMenuP10GuiElementiiNS_15single_threadedEE9duplicateEPNS_9has_slotsIS4_EE, .-_ZN7sigslot12_connection3I8HomeMenuP10GuiElementiiNS_15single_threadedEE9duplicateEPNS_9has_slotsIS4_EE
	.section	.text._ZN7sigslot12_connection3I8HomeMenuP10GuiElementiiNS_15single_threadedEE5cloneEv,"axG",@progbits,_ZN7sigslot12_connection3I8HomeMenuP10GuiElementiiNS_15single_threadedEE5cloneEv,comdat
	.align 2
	.weak	_ZN7sigslot12_connection3I8HomeMenuP10GuiElementiiNS_15single_threadedEE5cloneEv
	.type	_ZN7sigslot12_connection3I8HomeMenuP10GuiElementiiNS_15single_threadedEE5cloneEv, @function
_ZN7sigslot12_connection3I8HomeMenuP10GuiElementiiNS_15single_threadedEE5cloneEv:
.LFB2059:
	.loc 1 1789 0
	.cfi_startproc
.LVL124:
	stwu 1,-16(1)
.LCFI30:
	.cfi_def_cfa_offset 16
	mflr 0
	stw 31,12(1)
	mr 31,3
	.cfi_offset 31, -4
	.cfi_register 65, 0
	.loc 1 1791 0
	li 3,16
.LVL125:
	.loc 1 1789 0
	stw 0,20(1)
	.loc 1 1791 0
	.cfi_offset 65, 4
	bl _Znwj
	.file 4 "d:/Projects/SaveGameManager/savegame-manager-gx/trunk/source/Prompts/HomeMenu.cpp"
	.loc 4 473 0
	lwz 0,4(31)
.LVL126:
.LBB2206:
.LBB2207:
	.loc 1 1767 0
	lis 11,_ZTVN7sigslot12_connection3I8HomeMenuP10GuiElementiiNS_15single_threadedEEE+8@ha
	la 11,_ZTVN7sigslot12_connection3I8HomeMenuP10GuiElementiiNS_15single_threadedEEE+8@l(11)
	stw 0,4(3)
	stw 11,0(3)
	lwz 10,8(31)
	lwz 11,12(31)
	stw 10,8(3)
	stw 11,12(3)
.LBE2207:
.LBE2206:
	.loc 1 1792 0
	lwz 0,20(1)
	lwz 31,12(1)
.LVL127:
	mtlr 0
	addi 1,1,16
.LCFI31:
	.cfi_def_cfa_offset 0
	.cfi_restore 31
	blr
	.cfi_endproc
.LFE2059:
	.size	_ZN7sigslot12_connection3I8HomeMenuP10GuiElementiiNS_15single_threadedEE5cloneEv, .-_ZN7sigslot12_connection3I8HomeMenuP10GuiElementiiNS_15single_threadedEE5cloneEv
	.section	.text._ZN7sigslot12_connection3I8HomeMenuP9GuiButtoniRK6_POINTNS_15single_threadedEE5cloneEv,"axG",@progbits,_ZN7sigslot12_connection3I8HomeMenuP9GuiButtoniRK6_POINTNS_15single_threadedEE5cloneEv,comdat
	.align 2
	.weak	_ZN7sigslot12_connection3I8HomeMenuP9GuiButtoniRK6_POINTNS_15single_threadedEE5cloneEv
	.type	_ZN7sigslot12_connection3I8HomeMenuP9GuiButtoniRK6_POINTNS_15single_threadedEE5cloneEv, @function
_ZN7sigslot12_connection3I8HomeMenuP9GuiButtoniRK6_POINTNS_15single_threadedEE5cloneEv:
.LFB2073:
	.loc 1 1789 0
	.cfi_startproc
.LVL128:
	stwu 1,-16(1)
.LCFI32:
	.cfi_def_cfa_offset 16
	mflr 0
	stw 31,12(1)
	mr 31,3
	.cfi_offset 31, -4
	.cfi_register 65, 0
	.loc 1 1791 0
	li 3,16
.LVL129:
	.loc 1 1789 0
	stw 0,20(1)
	.loc 1 1791 0
	.cfi_offset 65, 4
	bl _Znwj
	.loc 4 473 0
	lwz 0,4(31)
.LVL130:
.LBB2208:
.LBB2209:
	.loc 1 1767 0
	lis 11,_ZTVN7sigslot12_connection3I8HomeMenuP9GuiButtoniRK6_POINTNS_15single_threadedEEE+8@ha
	la 11,_ZTVN7sigslot12_connection3I8HomeMenuP9GuiButtoniRK6_POINTNS_15single_threadedEEE+8@l(11)
	stw 0,4(3)
	stw 11,0(3)
	lwz 10,8(31)
	lwz 11,12(31)
	stw 10,8(3)
	stw 11,12(3)
.LBE2209:
.LBE2208:
	.loc 1 1792 0
	lwz 0,20(1)
	lwz 31,12(1)
.LVL131:
	mtlr 0
	addi 1,1,16
.LCFI33:
	.cfi_def_cfa_offset 0
	.cfi_restore 31
	blr
	.cfi_endproc
.LFE2073:
	.size	_ZN7sigslot12_connection3I8HomeMenuP9GuiButtoniRK6_POINTNS_15single_threadedEE5cloneEv, .-_ZN7sigslot12_connection3I8HomeMenuP9GuiButtoniRK6_POINTNS_15single_threadedEE5cloneEv
	.section	.text._ZN7sigslot12_connection3I8HomeMenuP9GuiButtoniRK6_POINTNS_15single_threadedEED0Ev,"axG",@progbits,_ZN7sigslot12_connection3I8HomeMenuP9GuiButtoniRK6_POINTNS_15single_threadedEED5Ev,comdat
	.align 2
	.weak	_ZN7sigslot12_connection3I8HomeMenuP9GuiButtoniRK6_POINTNS_15single_threadedEED0Ev
	.type	_ZN7sigslot12_connection3I8HomeMenuP9GuiButtoniRK6_POINTNS_15single_threadedEED0Ev, @function
_ZN7sigslot12_connection3I8HomeMenuP9GuiButtoniRK6_POINTNS_15single_threadedEED0Ev:
.LFB2070:
	.loc 1 1783 0
	.cfi_startproc
.LVL132:
	mflr 0
	stwu 1,-8(1)
.LCFI34:
	.cfi_def_cfa_offset 8
	.cfi_register 65, 0
.LBB2210:
.LBB2211:
.LBB2212:
.LBB2213:
.LBB2214:
.LBB2215:
	.loc 1 387 0
	lis 9,_ZTVN7sigslot17_connection_base3IP9GuiButtoniRK6_POINTNS_15single_threadedEEE+8@ha
.LBE2215:
.LBE2214:
.LBE2213:
.LBE2212:
.LBE2211:
.LBE2210:
	.loc 1 1783 0
	stw 0,12(1)
.LBB2221:
.LBB2220:
.LBB2219:
.LBB2218:
.LBB2217:
.LBB2216:
	.loc 1 387 0
	la 0,_ZTVN7sigslot17_connection_base3IP9GuiButtoniRK6_POINTNS_15single_threadedEEE+8@l(9)
	.cfi_offset 65, 4
	stw 0,0(3)
.LBE2216:
.LBE2217:
.LBE2218:
.LBE2219:
.LBE2220:
.LBE2221:
	.loc 1 1786 0
	bl _ZdlPv
.LVL133:
	lwz 0,12(1)
	addi 1,1,8
.LCFI35:
	.cfi_def_cfa_offset 0
	mtlr 0
	blr
	.cfi_endproc
.LFE2070:
	.size	_ZN7sigslot12_connection3I8HomeMenuP9GuiButtoniRK6_POINTNS_15single_threadedEED0Ev, .-_ZN7sigslot12_connection3I8HomeMenuP9GuiButtoniRK6_POINTNS_15single_threadedEED0Ev
	.section	.text._ZN7sigslot12_connection3I8HomeMenuP10GuiElementiiNS_15single_threadedEED0Ev,"axG",@progbits,_ZN7sigslot12_connection3I8HomeMenuP10GuiElementiiNS_15single_threadedEED5Ev,comdat
	.align 2
	.weak	_ZN7sigslot12_connection3I8HomeMenuP10GuiElementiiNS_15single_threadedEED0Ev
	.type	_ZN7sigslot12_connection3I8HomeMenuP10GuiElementiiNS_15single_threadedEED0Ev, @function
_ZN7sigslot12_connection3I8HomeMenuP10GuiElementiiNS_15single_threadedEED0Ev:
.LFB2056:
	.loc 1 1783 0
	.cfi_startproc
.LVL134:
	mflr 0
	stwu 1,-8(1)
.LCFI36:
	.cfi_def_cfa_offset 8
	.cfi_register 65, 0
.LBB2222:
.LBB2223:
.LBB2224:
.LBB2225:
.LBB2226:
.LBB2227:
	.loc 1 387 0
	lis 9,_ZTVN7sigslot17_connection_base3IP10GuiElementiiNS_15single_threadedEEE+8@ha
.LBE2227:
.LBE2226:
.LBE2225:
.LBE2224:
.LBE2223:
.LBE2222:
	.loc 1 1783 0
	stw 0,12(1)
.LBB2233:
.LBB2232:
.LBB2231:
.LBB2230:
.LBB2229:
.LBB2228:
	.loc 1 387 0
	la 0,_ZTVN7sigslot17_connection_base3IP10GuiElementiiNS_15single_threadedEEE+8@l(9)
	.cfi_offset 65, 4
	stw 0,0(3)
.LBE2228:
.LBE2229:
.LBE2230:
.LBE2231:
.LBE2232:
.LBE2233:
	.loc 1 1786 0
	bl _ZdlPv
.LVL135:
	lwz 0,12(1)
	addi 1,1,8
.LCFI37:
	.cfi_def_cfa_offset 0
	mtlr 0
	blr
	.cfi_endproc
.LFE2056:
	.size	_ZN7sigslot12_connection3I8HomeMenuP10GuiElementiiNS_15single_threadedEED0Ev, .-_ZN7sigslot12_connection3I8HomeMenuP10GuiElementiiNS_15single_threadedEED0Ev
	.section	.text._ZN7sigslot17_connection_base3IP10GuiElementiiNS_15single_threadedEED0Ev,"axG",@progbits,_ZN7sigslot17_connection_base3IP10GuiElementiiNS_15single_threadedEED5Ev,comdat
	.align 2
	.weak	_ZN7sigslot17_connection_base3IP10GuiElementiiNS_15single_threadedEED0Ev
	.type	_ZN7sigslot17_connection_base3IP10GuiElementiiNS_15single_threadedEED0Ev, @function
_ZN7sigslot17_connection_base3IP10GuiElementiiNS_15single_threadedEED0Ev:
.LFB1806:
	.loc 1 387 0
	.cfi_startproc
.LVL136:
	mflr 0
	stwu 1,-8(1)
.LCFI38:
	.cfi_def_cfa_offset 8
	.cfi_register 65, 0
.LBB2234:
.LBB2235:
.LBB2236:
	lis 9,_ZTVN7sigslot17_connection_base3IP10GuiElementiiNS_15single_threadedEEE+8@ha
.LBE2236:
.LBE2235:
.LBE2234:
	stw 0,12(1)
.LBB2239:
.LBB2238:
.LBB2237:
	.loc 1 387 0
	la 0,_ZTVN7sigslot17_connection_base3IP10GuiElementiiNS_15single_threadedEEE+8@l(9)
	.cfi_offset 65, 4
	stw 0,0(3)
.LBE2237:
.LBE2238:
.LBE2239:
	bl _ZdlPv
.LVL137:
	lwz 0,12(1)
	addi 1,1,8
.LCFI39:
	.cfi_def_cfa_offset 0
	mtlr 0
	blr
	.cfi_endproc
.LFE1806:
	.size	_ZN7sigslot17_connection_base3IP10GuiElementiiNS_15single_threadedEED0Ev, .-_ZN7sigslot17_connection_base3IP10GuiElementiiNS_15single_threadedEED0Ev
	.section	.text._ZN7sigslot17_connection_base3IP9GuiButtoniRK6_POINTNS_15single_threadedEED0Ev,"axG",@progbits,_ZN7sigslot17_connection_base3IP9GuiButtoniRK6_POINTNS_15single_threadedEED5Ev,comdat
	.align 2
	.weak	_ZN7sigslot17_connection_base3IP9GuiButtoniRK6_POINTNS_15single_threadedEED0Ev
	.type	_ZN7sigslot17_connection_base3IP9GuiButtoniRK6_POINTNS_15single_threadedEED0Ev, @function
_ZN7sigslot17_connection_base3IP9GuiButtoniRK6_POINTNS_15single_threadedEED0Ev:
.LFB1799:
	.loc 1 387 0
	.cfi_startproc
.LVL138:
	mflr 0
	stwu 1,-8(1)
.LCFI40:
	.cfi_def_cfa_offset 8
	.cfi_register 65, 0
.LBB2240:
.LBB2241:
.LBB2242:
	lis 9,_ZTVN7sigslot17_connection_base3IP9GuiButtoniRK6_POINTNS_15single_threadedEEE+8@ha
.LBE2242:
.LBE2241:
.LBE2240:
	stw 0,12(1)
.LBB2245:
.LBB2244:
.LBB2243:
	.loc 1 387 0
	la 0,_ZTVN7sigslot17_connection_base3IP9GuiButtoniRK6_POINTNS_15single_threadedEEE+8@l(9)
	.cfi_offset 65, 4
	stw 0,0(3)
.LBE2243:
.LBE2244:
.LBE2245:
	bl _ZdlPv
.LVL139:
	lwz 0,12(1)
	addi 1,1,8
.LCFI41:
	.cfi_def_cfa_offset 0
	mtlr 0
	blr
	.cfi_endproc
.LFE1799:
	.size	_ZN7sigslot17_connection_base3IP9GuiButtoniRK6_POINTNS_15single_threadedEED0Ev, .-_ZN7sigslot17_connection_base3IP9GuiButtoniRK6_POINTNS_15single_threadedEED0Ev
	.section	.text._ZN7sigslot15single_threadedD0Ev,"axG",@progbits,_ZN7sigslot15single_threadedD5Ev,comdat
	.align 2
	.weak	_ZN7sigslot15single_threadedD0Ev
	.type	_ZN7sigslot15single_threadedD0Ev, @function
_ZN7sigslot15single_threadedD0Ev:
.LFB1150:
	.loc 1 104 0
	.cfi_startproc
.LVL140:
	mflr 0
	stwu 1,-8(1)
.LCFI42:
	.cfi_def_cfa_offset 8
	.cfi_register 65, 0
.LBB2246:
.LBB2247:
.LBB2248:
	.loc 1 105 0
	lis 9,_ZTVN7sigslot15single_threadedE+8@ha
.LBE2248:
.LBE2247:
.LBE2246:
	.loc 1 104 0
	stw 0,12(1)
.LBB2251:
.LBB2250:
.LBB2249:
	.loc 1 105 0
	la 0,_ZTVN7sigslot15single_threadedE+8@l(9)
	.cfi_offset 65, 4
	stw 0,0(3)
.LBE2249:
.LBE2250:
.LBE2251:
	.loc 1 107 0
	bl _ZdlPv
.LVL141:
	lwz 0,12(1)
	addi 1,1,8
.LCFI43:
	.cfi_def_cfa_offset 0
	mtlr 0
	blr
	.cfi_endproc
.LFE1150:
	.size	_ZN7sigslot15single_threadedD0Ev, .-_ZN7sigslot15single_threadedD0Ev
	.section	".text"
	.align 2
	.globl _ZN8HomeMenu4DrawEv
	.type	_ZN8HomeMenu4DrawEv, @function
_ZN8HomeMenu4DrawEv:
.LFB1628:
	.loc 4 436 0
	.cfi_startproc
.LVL142:
.LBB2252:
.LBB2253:
	.loc 4 438 0
	lis 9,Settings+2576@ha
.LBE2253:
.LBE2252:
	.loc 4 436 0
	mflr 0
.LBB2272:
.LBB2265:
	.loc 4 438 0
	lbz 9,Settings+2576@l(9)
	lis 11,frameCount@ha
.LBE2265:
.LBE2272:
	.loc 4 436 0
	stwu 1,-64(1)
.LCFI44:
	.cfi_def_cfa_offset 64
	.cfi_register 65, 0
.LBB2273:
.LBB2266:
	.loc 4 438 0
	addic 9,9,-1
	subfe 9,9,9
	andi. 9,9,10
.LBE2266:
.LBE2273:
	.loc 4 436 0
	stw 0,68(1)
.LBB2274:
.LBB2267:
	.loc 4 438 0
	lwz 0,frameCount@l(11)
	.cfi_offset 65, 4
	addi 9,9,50
.LBE2267:
.LBE2274:
	.loc 4 436 0
	stw 31,60(1)
.LBB2275:
.LBB2268:
	.loc 4 438 0
	divwu 11,0,9
.LBE2268:
.LBE2275:
	.loc 4 436 0
	stw 30,56(1)
	.loc 4 436 0
	mr 31,3
	.cfi_offset 30, -8
	.cfi_offset 31, -4
.LBB2276:
.LBB2269:
	.loc 4 438 0
	mullw 9,11,9
	cmpw 7,0,9
	bne- 7,.L116
.LBB2254:
.LBB2255:
	.loc 4 442 0
	li 3,0
.LVL143:
	li 4,0
	bl WPAD_Probe
	cmpwi 7,3,0
	beq- 7,.L117
	.loc 4 464 0
	lwz 3,256(31)
	lwz 4,212(31)
	bl _ZN8GuiImage8SetImageEP12GuiImageData
	.loc 4 465 0
	lwz 3,240(31)
	li 4,0
	bl _ZN8GuiImage17SetTileHorizontalEi
	.loc 4 466 0
	lwz 3,364(31)
	li 4,130
	lwz 9,0(3)
	lwz 0,96(9)
	mtctr 0
	bctrl
	.loc 4 467 0
	lwz 3,308(31)
	li 4,100
	lwz 9,0(3)
	lwz 0,96(9)
	mtctr 0
	bctrl
.LVL144:
	.loc 4 442 0
	li 3,1
	li 4,0
	bl WPAD_Probe
	cmpwi 7,3,0
	beq- 7,.L121
.L138:
	.loc 4 464 0
	lwz 3,260(31)
	lwz 4,212(31)
	bl _ZN8GuiImage8SetImageEP12GuiImageData
	.loc 4 465 0
	lwz 3,244(31)
	li 4,0
	bl _ZN8GuiImage17SetTileHorizontalEi
	.loc 4 466 0
	lwz 3,368(31)
	li 4,130
	lwz 9,0(3)
	lwz 0,96(9)
	mtctr 0
	bctrl
	.loc 4 467 0
	lwz 3,312(31)
	li 4,100
	lwz 9,0(3)
	lwz 0,96(9)
	mtctr 0
	bctrl
.LVL145:
	.loc 4 442 0
	li 3,2
	li 4,0
	bl WPAD_Probe
	cmpwi 7,3,0
	beq- 7,.L125
.L139:
	.loc 4 464 0
	lwz 3,264(31)
	lwz 4,212(31)
	bl _ZN8GuiImage8SetImageEP12GuiImageData
	.loc 4 465 0
	lwz 3,248(31)
	li 4,0
	bl _ZN8GuiImage17SetTileHorizontalEi
	.loc 4 466 0
	lwz 3,372(31)
	li 4,130
	lwz 9,0(3)
	lwz 0,96(9)
	mtctr 0
	bctrl
	.loc 4 467 0
	lwz 3,316(31)
	li 4,100
	lwz 9,0(3)
	lwz 0,96(9)
	mtctr 0
	bctrl
.LVL146:
	.loc 4 442 0
	li 3,3
	li 4,0
	bl WPAD_Probe
	cmpwi 7,3,0
	bne- 7,.L129
.L140:
.LBB2256:
	.loc 4 444 0
	li 3,3
	bl WPAD_BatteryLevel
	lis 0,0x4330
	xoris 3,3,0x8000
	stw 0,32(1)
	stw 3,36(1)
	lis 9,.LC1@ha
	lfs 0,.LC1@l(9)
	lis 9,.LC5@ha
	lfd 13,32(1)
	fsub 0,13,0
	lfs 13,.LC5@l(9)
	lis 9,.LC7@ha
	fdiv 0,0,13
	lfs 13,.LC7@l(9)
	addi 9,1,40
	fmul 0,0,13
	fctiwz 0,0
	stfiwx 0,0,9
	lwz 30,40(1)
.LVL147:
	.loc 4 445 0
	cmpwi 7,30,4
	bgt- 7,.L137
	.loc 4 447 0
	cmpwi 7,30,1
	bgt- 7,.L130
	.loc 4 449 0
	lwz 3,268(31)
	lwz 4,208(31)
	bl _ZN8GuiImage8SetImageEP12GuiImageData
.LVL148:
	.loc 4 450 0
	lwz 3,252(31)
	lwz 4,216(31)
	bl _ZN8GuiImage8SetImageEP12GuiImageData
.LVL149:
.L131:
	.loc 4 458 0
	lwz 3,252(31)
	mr 4,30
	bl _ZN8GuiImage17SetTileHorizontalEi
	.loc 4 459 0
	lwz 3,376(31)
	li 4,255
	lwz 9,0(3)
	lwz 0,96(9)
	mtctr 0
	bctrl
	.loc 4 460 0
	lwz 3,320(31)
	li 4,255
	lwz 9,0(3)
	lwz 0,96(9)
	mtctr 0
	bctrl
.LVL150:
.L116:
.LBE2256:
.LBE2255:
.LBE2254:
.LBE2269:
	.loc 4 472 0
	mr 3,31
	bl _ZN8GuiFrame4DrawEv
.LBE2276:
	.loc 4 473 0
	lwz 0,68(1)
	lwz 30,56(1)
	mtlr 0
	lwz 31,60(1)
.LVL151:
	addi 1,1,64
	.cfi_remember_state
.LCFI45:
	.cfi_def_cfa_offset 0
	.cfi_restore 31
	.cfi_restore 30
	blr
.LVL152:
.L117:
.LCFI46:
	.cfi_restore_state
.LBB2277:
.LBB2270:
.LBB2263:
.LBB2261:
.LBB2257:
	.loc 4 444 0
	bl WPAD_BatteryLevel
	lis 0,0x4330
	xoris 3,3,0x8000
	stw 0,8(1)
	stw 3,12(1)
	lis 9,.LC1@ha
	lfs 0,.LC1@l(9)
	lis 9,.LC5@ha
	lfd 13,8(1)
	fsub 0,13,0
	lfs 13,.LC5@l(9)
	lis 9,.LC7@ha
	fdiv 0,0,13
	lfs 13,.LC7@l(9)
	addi 9,1,52
	fmul 0,0,13
	fctiwz 0,0
	stfiwx 0,0,9
	lwz 30,52(1)
.LVL153:
	.loc 4 445 0
	cmpwi 7,30,4
	bgt- 7,.L134
	.loc 4 447 0
	cmpwi 7,30,1
	bgt- 7,.L119
	.loc 4 449 0
	lwz 3,256(31)
	lwz 4,208(31)
	bl _ZN8GuiImage8SetImageEP12GuiImageData
.LVL154:
	.loc 4 450 0
	lwz 3,240(31)
	lwz 4,216(31)
	bl _ZN8GuiImage8SetImageEP12GuiImageData
.LVL155:
.L120:
	.loc 4 458 0
	lwz 3,240(31)
	mr 4,30
	bl _ZN8GuiImage17SetTileHorizontalEi
	.loc 4 459 0
	lwz 3,364(31)
	li 4,255
	lwz 9,0(3)
	lwz 0,96(9)
	mtctr 0
	bctrl
	.loc 4 460 0
	lwz 3,308(31)
	li 4,255
	lwz 9,0(3)
	lwz 0,96(9)
	mtctr 0
	bctrl
.LVL156:
.LBE2257:
	.loc 4 442 0
	li 3,1
	li 4,0
	bl WPAD_Probe
	cmpwi 7,3,0
	bne- 7,.L138
.L121:
.LBB2258:
	.loc 4 444 0
	li 3,1
	bl WPAD_BatteryLevel
	lis 0,0x4330
	xoris 3,3,0x8000
	stw 0,16(1)
	stw 3,20(1)
	lis 9,.LC1@ha
	lfs 0,.LC1@l(9)
	lis 9,.LC5@ha
	lfd 13,16(1)
	fsub 0,13,0
	lfs 13,.LC5@l(9)
	lis 9,.LC7@ha
	fdiv 0,0,13
	lfs 13,.LC7@l(9)
	addi 9,1,48
	fmul 0,0,13
	fctiwz 0,0
	stfiwx 0,0,9
	lwz 30,48(1)
.LVL157:
	.loc 4 445 0
	cmpwi 7,30,4
	bgt- 7,.L135
	.loc 4 447 0
	cmpwi 7,30,1
	bgt- 7,.L123
	.loc 4 449 0
	lwz 3,260(31)
	lwz 4,208(31)
	bl _ZN8GuiImage8SetImageEP12GuiImageData
.LVL158:
	.loc 4 450 0
	lwz 3,244(31)
	lwz 4,216(31)
	bl _ZN8GuiImage8SetImageEP12GuiImageData
.LVL159:
.L124:
	.loc 4 458 0
	lwz 3,244(31)
	mr 4,30
	bl _ZN8GuiImage17SetTileHorizontalEi
	.loc 4 459 0
	lwz 3,368(31)
	li 4,255
	lwz 9,0(3)
	lwz 0,96(9)
	mtctr 0
	bctrl
	.loc 4 460 0
	lwz 3,312(31)
	li 4,255
	lwz 9,0(3)
	lwz 0,96(9)
	mtctr 0
	bctrl
.LVL160:
.LBE2258:
	.loc 4 442 0
	li 3,2
	li 4,0
	bl WPAD_Probe
	cmpwi 7,3,0
	bne- 7,.L139
.L125:
.LBB2259:
	.loc 4 444 0
	li 3,2
	bl WPAD_BatteryLevel
	lis 0,0x4330
	xoris 3,3,0x8000
	stw 0,24(1)
	stw 3,28(1)
	lis 9,.LC1@ha
	lfs 0,.LC1@l(9)
	lis 9,.LC5@ha
	lfd 13,24(1)
	fsub 0,13,0
	lfs 13,.LC5@l(9)
	lis 9,.LC7@ha
	fdiv 0,0,13
	lfs 13,.LC7@l(9)
	addi 9,1,44
	fmul 0,0,13
	fctiwz 0,0
	stfiwx 0,0,9
	lwz 30,44(1)
.LVL161:
	.loc 4 445 0
	cmpwi 7,30,4
	bgt- 7,.L136
	.loc 4 447 0
	cmpwi 7,30,1
	bgt- 7,.L127
	.loc 4 449 0
	lwz 3,264(31)
	lwz 4,208(31)
	bl _ZN8GuiImage8SetImageEP12GuiImageData
.LVL162:
	.loc 4 450 0
	lwz 3,248(31)
	lwz 4,216(31)
	bl _ZN8GuiImage8SetImageEP12GuiImageData
.LVL163:
.L128:
	.loc 4 458 0
	lwz 3,248(31)
	mr 4,30
	bl _ZN8GuiImage17SetTileHorizontalEi
	.loc 4 459 0
	lwz 3,372(31)
	li 4,255
	lwz 9,0(3)
	lwz 0,96(9)
	mtctr 0
	bctrl
	.loc 4 460 0
	lwz 3,316(31)
	li 4,255
	lwz 9,0(3)
	lwz 0,96(9)
	mtctr 0
	bctrl
.LVL164:
.LBE2259:
	.loc 4 442 0
	li 3,3
	li 4,0
	bl WPAD_Probe
	cmpwi 7,3,0
	beq- 7,.L140
.L129:
	.loc 4 464 0
	lwz 3,268(31)
	lwz 4,212(31)
	bl _ZN8GuiImage8SetImageEP12GuiImageData
	.loc 4 465 0
	lwz 3,252(31)
	li 4,0
	bl _ZN8GuiImage17SetTileHorizontalEi
	.loc 4 466 0
	lwz 3,376(31)
	li 4,130
	lwz 9,0(3)
	lwz 0,96(9)
	mtctr 0
	bctrl
	.loc 4 467 0
	lwz 3,320(31)
	li 4,100
	lwz 9,0(3)
	lwz 0,96(9)
	mtctr 0
	bctrl
.LVL165:
.LBE2261:
.LBE2263:
.LBE2270:
	.loc 4 472 0
	mr 3,31
	bl _ZN8GuiFrame4DrawEv
.LBE2277:
	.loc 4 473 0
	lwz 0,68(1)
	lwz 30,56(1)
	mtlr 0
	lwz 31,60(1)
.LVL166:
	addi 1,1,64
	.cfi_remember_state
	.cfi_restore 30
	.cfi_restore 31
.LCFI47:
	.cfi_def_cfa_offset 0
	blr
.LVL167:
.L135:
.LCFI48:
	.cfi_restore_state
.LBB2278:
.LBB2271:
.LBB2264:
.LBB2262:
.LBB2260:
	.loc 4 445 0
	li 30,4
.LVL168:
.L123:
	.loc 4 454 0
	lwz 3,260(31)
	lwz 4,212(31)
	bl _ZN8GuiImage8SetImageEP12GuiImageData
.LVL169:
	.loc 4 455 0
	lwz 3,244(31)
	lwz 4,220(31)
	bl _ZN8GuiImage8SetImageEP12GuiImageData
	b .L124
.LVL170:
.L136:
	.loc 4 445 0
	li 30,4
.LVL171:
.L127:
	.loc 4 454 0
	lwz 3,264(31)
	lwz 4,212(31)
	bl _ZN8GuiImage8SetImageEP12GuiImageData
.LVL172:
	.loc 4 455 0
	lwz 3,248(31)
	lwz 4,220(31)
	bl _ZN8GuiImage8SetImageEP12GuiImageData
	b .L128
.LVL173:
.L134:
	.loc 4 445 0
	li 30,4
.LVL174:
.L119:
	.loc 4 454 0
	lwz 3,256(31)
	lwz 4,212(31)
	bl _ZN8GuiImage8SetImageEP12GuiImageData
.LVL175:
	.loc 4 455 0
	lwz 3,240(31)
	lwz 4,220(31)
	bl _ZN8GuiImage8SetImageEP12GuiImageData
	b .L120
.LVL176:
.L137:
	.loc 4 445 0
	li 30,4
.LVL177:
.L130:
	.loc 4 454 0
	lwz 3,268(31)
	lwz 4,212(31)
	bl _ZN8GuiImage8SetImageEP12GuiImageData
.LVL178:
	.loc 4 455 0
	lwz 3,252(31)
	lwz 4,220(31)
	bl _ZN8GuiImage8SetImageEP12GuiImageData
	b .L131
.LBE2260:
.LBE2262:
.LBE2264:
.LBE2271:
.LBE2278:
	.cfi_endproc
.LFE1628:
	.size	_ZN8HomeMenu4DrawEv, .-_ZN8HomeMenu4DrawEv
	.align 2
	.globl _ZN8HomeMenu13OnStateChangeEP10GuiElementii
	.type	_ZN8HomeMenu13OnStateChangeEP10GuiElementii, @function
_ZN8HomeMenu13OnStateChangeEP10GuiElementii:
.LFB1622:
	.loc 4 281 0
	.cfi_startproc
.LVL179:
	mflr 0
	stwu 1,-16(1)
.LCFI49:
	.cfi_def_cfa_offset 16
	.cfi_register 65, 0
	stw 30,8(1)
	stw 0,20(1)
	stw 31,12(1)
	.loc 4 282 0
	lbz 0,204(3)
	.cfi_offset 31, -4
	.cfi_offset 65, 4
	.cfi_offset 30, -8
	cmpwi 7,0,0
	bne- 7,.L141
.LBB2281:
.LBB2282:
	.loc 4 286 0
	lwz 30,272(3)
.LBE2282:
.LBE2281:
	.loc 4 285 0
	cmpwi 7,5,1
.LBB2285:
.LBB2283:
	.loc 4 286 0
	lwz 9,0(30)
	mr 3,30
.LVL180:
	lwz 0,16(9)
	lwz 31,168(9)
	mtctr 0
.LBE2283:
.LBE2285:
	.loc 4 285 0
	beq- 7,.L144
	.loc 4 288 0
	bctrl
.LVL181:
	li 5,232
	mr 4,3
	mtctr 31
	mr 3,30
	bctrl
.L141:
	.loc 4 289 0
	lwz 0,20(1)
	lwz 30,8(1)
	mtlr 0
	lwz 31,12(1)
	addi 1,1,16
	.cfi_remember_state
.LCFI50:
	.cfi_def_cfa_offset 0
	.cfi_restore 31
	.cfi_restore 30
	blr
.LVL182:
.L144:
.LCFI51:
	.cfi_restore_state
.LBB2286:
.LBB2284:
	.loc 4 286 0
	bctrl
.LVL183:
	mtctr 31
	mr 4,3
	li 5,210
	mr 3,30
	bctrl
.LBE2284:
.LBE2286:
	.loc 4 289 0
	lwz 0,20(1)
	lwz 30,8(1)
.LVL184:
	mtlr 0
	lwz 31,12(1)
	addi 1,1,16
	.cfi_restore 30
	.cfi_restore 31
.LCFI52:
	.cfi_def_cfa_offset 0
	blr
	.cfi_endproc
.LFE1622:
	.size	_ZN8HomeMenu13OnStateChangeEP10GuiElementii, .-_ZN8HomeMenu13OnStateChangeEP10GuiElementii
	.align 2
	.globl _ZN8HomeMenu4quitEv
	.type	_ZN8HomeMenu4quitEv, @function
_ZN8HomeMenu4quitEv:
.LFB1620:
	.loc 4 250 0
	.cfi_startproc
	.cfi_personality 0,__gxx_personality_v0
	.cfi_lsda 0,.LLSDA1620
.LVL185:
	mflr 0
	stwu 1,-24(1)
.LCFI53:
	.cfi_def_cfa_offset 24
	.cfi_register 65, 0
	stw 30,16(1)
	mr 30,3
	.cfi_offset 30, -8
	stw 0,28(1)
	stw 29,12(1)
.LBB2291:
	.loc 4 251 0
	lwz 3,1484(3)
.LVL186:
.LBE2291:
	.loc 4 250 0
	stw 31,20(1)
.LEHB0:
.LBB2297:
	.loc 4 251 0
	.cfi_offset 31, -4
	.cfi_offset 29, -12
	.cfi_offset 65, 4
	bl _ZN8GuiSound4StopEv
	.loc 4 252 0
	lwz 3,1488(30)
	bl _ZN8GuiSound4PlayEv
	.loc 4 254 0
	lwz 3,336(30)
	li 4,33
	li 5,50
	lwz 9,0(3)
	li 6,0
	lwz 0,136(9)
	mtctr 0
	bctrl
	.loc 4 255 0
	lwz 3,340(30)
	li 4,33
	li 5,50
	lwz 9,0(3)
	li 6,0
	lwz 0,136(9)
	mtctr 0
	bctrl
	.loc 4 256 0
	lwz 3,348(30)
	li 4,128
	li 5,-50
	lwz 9,0(3)
	li 6,0
	lwz 0,136(9)
	mtctr 0
	bctrl
	.loc 4 257 0
	lwz 3,352(30)
	li 4,128
	li 5,-50
	lwz 9,0(3)
	li 6,0
	lwz 0,136(9)
	mtctr 0
	bctrl
	.loc 4 258 0
	lwz 3,344(30)
	li 4,34
	li 5,50
	lwz 9,0(3)
	li 6,0
	lwz 0,136(9)
	mtctr 0
	bctrl
	.loc 4 259 0
	lwz 3,272(30)
	li 4,34
	li 5,50
	lwz 9,0(3)
	li 6,0
	lwz 0,136(9)
	mtctr 0
	bctrl
.LVL187:
.LBB2292:
	.loc 4 262 0
	lwz 3,364(30)
	li 4,34
	li 5,50
	lwz 9,0(3)
	li 6,0
	lwz 0,136(9)
	mtctr 0
	bctrl
.LVL188:
	lwz 3,368(30)
	li 4,34
	li 5,50
	lwz 9,0(3)
	li 6,0
	lwz 0,136(9)
	mtctr 0
	bctrl
.LVL189:
	lwz 3,372(30)
	li 4,34
	li 5,50
	lwz 9,0(3)
	li 6,0
	lwz 0,136(9)
	mtctr 0
	bctrl
.LVL190:
	lwz 3,376(30)
	li 4,34
	li 5,50
	lwz 9,0(3)
	li 6,0
	lwz 0,136(9)
	mtctr 0
	bctrl
.LVL191:
	b .L146
.L147:
.LBE2292:
	.loc 4 264 0
	lwz 9,0(31)
	mr 3,31
	lwz 0,216(9)
	mtctr 0
	bctrl
.L146:
	.loc 4 264 0 is_stmt 0 discriminator 1
	lwz 3,348(30)
	lwz 9,0(3)
	lwz 0,156(9)
	mtctr 0
	bctrl
	cmpwi 7,3,0
	beq- 7,.L151
.LBB2293:
.LBB2294:
	.file 5 "d:/Projects/SaveGameManager/savegame-manager-gx/trunk/source/Prompts/../Controls/Application.h"
	.loc 5 27 0 is_stmt 1
	lis 29,_ZN11Application8instanceE@ha
	lwz 31,_ZN11Application8instanceE@l(29)
	cmpwi 7,31,0
	bne+ 7,.L147
	li 3,632
	bl _Znwj
.LEHE0:
	mr 31,3
.LEHB1:
	bl _ZN11ApplicationC1Ev
.LEHE1:
	stw 31,_ZN11Application8instanceE@l(29)
	b .L147
.L151:
.LBE2294:
.LBE2293:
	.loc 4 266 0
	mr 3,30
	li 4,0
.LEHB2:
	bl _ZN8GuiFrame13DimBackgroundEb
	.loc 4 267 0
	lwz 9,0(30)
	mr 3,30
	lwz 0,200(9)
	mtctr 0
	bctrl
.LBE2297:
	.loc 4 268 0
	lwz 0,28(1)
	lwz 29,12(1)
	mtlr 0
	lwz 30,16(1)
.LVL192:
	lwz 31,20(1)
	addi 1,1,24
	.cfi_remember_state
.LCFI54:
	.cfi_def_cfa_offset 0
	.cfi_restore 31
	.cfi_restore 30
	.cfi_restore 29
	blr
.LVL193:
.L150:
.LCFI55:
	.cfi_restore_state
	mr 30,3
.LVL194:
.LBB2298:
.LBB2296:
.LBB2295:
	.loc 5 27 0
	mr 3,31
	bl _ZdlPv
	mr 3,30
	bl _Unwind_Resume
.LEHE2:
.LBE2295:
.LBE2296:
.LBE2298:
	.cfi_endproc
.LFE1620:
	.globl __gxx_personality_v0
	.section	.gcc_except_table,"a",@progbits
.LLSDA1620:
	.byte	0xff
	.byte	0xff
	.byte	0x1
	.uleb128 .LLSDACSE1620-.LLSDACSB1620
.LLSDACSB1620:
	.uleb128 .LEHB0-.LFB1620
	.uleb128 .LEHE0-.LEHB0
	.uleb128 0
	.uleb128 0
	.uleb128 .LEHB1-.LFB1620
	.uleb128 .LEHE1-.LEHB1
	.uleb128 .L150-.LFB1620
	.uleb128 0
	.uleb128 .LEHB2-.LFB1620
	.uleb128 .LEHE2-.LEHB2
	.uleb128 0
	.uleb128 0
.LLSDACSE1620:
	.section	".text"
	.size	_ZN8HomeMenu4quitEv, .-_ZN8HomeMenu4quitEv
	.align 2
	.globl _ZN8HomeMenu10IsAnimatedEv
	.type	_ZN8HomeMenu10IsAnimatedEv, @function
_ZN8HomeMenu10IsAnimatedEv:
.LFB1621:
	.loc 4 271 0
	.cfi_startproc
.LVL195:
	mflr 0
	stwu 1,-16(1)
.LCFI56:
	.cfi_def_cfa_offset 16
	.cfi_register 65, 0
	stw 30,8(1)
	.loc 4 277 0
	li 30,1
	.cfi_offset 30, -8
	.loc 4 271 0
	stw 0,20(1)
	stw 31,12(1)
	.loc 4 271 0
	mr 31,3
	.cfi_offset 31, -4
	.cfi_offset 65, 4
.LVL196:
.LBB2299:
.LBB2300:
	.loc 2 278 0
	lwz 9,0(3)
	lwz 0,152(9)
	mtctr 0
	bctrl
.LVL197:
.LBE2300:
.LBE2299:
	.loc 4 277 0
	cmpwi 7,3,0
	ble- 7,.L159
.L153:
	.loc 4 278 0 discriminator 8
	lwz 0,20(1)
	mr 3,30
	lwz 31,12(1)
.LVL198:
	mtlr 0
	lwz 30,8(1)
	addi 1,1,16
	.cfi_remember_state
.LCFI57:
	.cfi_def_cfa_offset 0
	.cfi_restore 31
	.cfi_restore 30
	blr
.LVL199:
.L159:
.LCFI58:
	.cfi_restore_state
	.loc 4 273 0 discriminator 2
	lwz 3,336(31)
	lwz 9,0(3)
	lwz 0,156(9)
	mtctr 0
	bctrl
	.loc 4 277 0 discriminator 2
	cmpwi 7,3,0
	bne+ 7,.L153
	.loc 4 274 0 discriminator 3
	lwz 3,348(31)
	lwz 9,0(3)
	lwz 0,156(9)
	mtctr 0
	bctrl
	.loc 4 277 0 discriminator 3
	cmpwi 7,3,0
	bne+ 7,.L153
	.loc 4 275 0 discriminator 4
	lwz 3,272(31)
	lwz 9,0(3)
	lwz 0,156(9)
	mtctr 0
	bctrl
	.loc 4 277 0 discriminator 4
	cmpwi 7,3,0
	bne+ 7,.L153
	.loc 4 276 0 discriminator 5
	lwz 3,276(31)
	lwz 9,0(3)
	lwz 0,156(9)
	mtctr 0
	bctrl
	.loc 4 277 0 discriminator 5
	cmpwi 7,3,0
	bne+ 7,.L153
	.loc 4 277 0 is_stmt 0 discriminator 6
	lwz 3,1488(31)
	bl _ZN8GuiSound9IsPlayingEv
	mr 30,3
	b .L153
	.cfi_endproc
.LFE1621:
	.size	_ZN8HomeMenu10IsAnimatedEv, .-_ZN8HomeMenu10IsAnimatedEv
	.align 2
	.globl _ZN8HomeMenu17SettingsBtnUpdateEv
	.type	_ZN8HomeMenu17SettingsBtnUpdateEv, @function
_ZN8HomeMenu17SettingsBtnUpdateEv:
.LFB1627:
	.loc 4 414 0 is_stmt 1
	.cfi_startproc
.LVL200:
	mflr 0
	stwu 1,-16(1)
.LCFI59:
	.cfi_def_cfa_offset 16
	.cfi_register 65, 0
	.loc 4 415 0
	lis 9,Settings+100@ha
	.loc 4 414 0
	stw 31,12(1)
	mr 31,3
	.cfi_offset 31, -4
	stw 0,20(1)
	.loc 4 415 0
	lha 0,Settings+100@l(9)
	.cfi_offset 65, 4
	cmpwi 7,0,1
	beq- 7,.L164
	.loc 4 426 0
	lwz 4,280(3)
	lwz 3,356(3)
.LVL201:
	bl _ZN9GuiButton8SetImageEP8GuiImage
	.loc 4 427 0
	lwz 3,356(31)
	lwz 9,0(3)
	lwz 0,144(9)
	mtctr 0
	bctrl
	.loc 4 428 0
	lwz 3,356(31)
	li 5,-1
	li 4,0
	lwz 9,0(3)
	lwz 0,80(9)
	mtctr 0
	bctrl
	.loc 4 429 0
	lwz 4,284(31)
	lwz 3,360(31)
	bl _ZN9GuiButton8SetImageEP8GuiImage
	.loc 4 430 0
	lwz 3,360(31)
	lwz 9,0(3)
	lwz 0,148(9)
	mtctr 0
	bctrl
	.loc 4 431 0
	lwz 3,360(31)
	li 4,4
	li 5,-1
	lwz 9,0(3)
	lwz 0,80(9)
	mtctr 0
	bctrl
	.loc 4 433 0
	lwz 0,20(1)
	lwz 31,12(1)
.LVL202:
	mtlr 0
	addi 1,1,16
	.cfi_remember_state
.LCFI60:
	.cfi_def_cfa_offset 0
	.cfi_restore 31
	blr
.LVL203:
.L164:
.LCFI61:
	.cfi_restore_state
	.loc 4 417 0
	lwz 4,284(3)
	lwz 3,356(3)
.LVL204:
	bl _ZN9GuiButton8SetImageEP8GuiImage
	.loc 4 418 0
	lwz 3,356(31)
	lwz 9,0(3)
	lwz 0,148(9)
	mtctr 0
	bctrl
	.loc 4 419 0
	lwz 3,356(31)
	li 5,-1
	li 4,4
	lwz 9,0(3)
	lwz 0,80(9)
	mtctr 0
	bctrl
	.loc 4 420 0
	lwz 4,280(31)
	lwz 3,360(31)
	bl _ZN9GuiButton8SetImageEP8GuiImage
	.loc 4 421 0
	lwz 3,360(31)
	lwz 9,0(3)
	lwz 0,144(9)
	mtctr 0
	bctrl
	.loc 4 422 0
	lwz 3,360(31)
	li 4,0
	.loc 4 431 0
	li 5,-1
	lwz 9,0(3)
	lwz 0,80(9)
	mtctr 0
	bctrl
	.loc 4 433 0
	lwz 0,20(1)
	lwz 31,12(1)
.LVL205:
	mtlr 0
	addi 1,1,16
	.cfi_restore 31
.LCFI62:
	.cfi_def_cfa_offset 0
	blr
	.cfi_endproc
.LFE1627:
	.size	_ZN8HomeMenu17SettingsBtnUpdateEv, .-_ZN8HomeMenu17SettingsBtnUpdateEv
	.align 2
	.globl _ZN8HomeMenu12SettingsAnimEb
	.type	_ZN8HomeMenu12SettingsAnimEb, @function
_ZN8HomeMenu12SettingsAnimEb:
.LFB1626:
	.loc 4 383 0
	.cfi_startproc
	.cfi_personality 0,__gxx_personality_v0
	.cfi_lsda 0,.LLSDA1626
.LVL206:
	.loc 4 384 0
	cmpwi 7,4,0
	.loc 4 383 0
	mflr 0
	stwu 1,-24(1)
.LCFI63:
	.cfi_def_cfa_offset 24
	.cfi_register 65, 0
	stw 31,20(1)
	mr 31,3
	.cfi_offset 31, -4
	stw 0,28(1)
	stw 28,8(1)
	stw 29,12(1)
	stw 30,16(1)
	.loc 4 384 0
	beq- 7,.L166
	.cfi_offset 30, -8
	.cfi_offset 29, -12
	.cfi_offset 28, -16
	.cfi_offset 65, 4
	.loc 4 386 0
	lwz 29,276(3)
	lis 11,screenwidth@ha
	lwz 28,screenwidth@l(11)
	lwz 9,0(29)
	mr 3,29
.LVL207:
	subfic 28,28,133
	lwz 0,36(9)
	lwz 30,136(9)
	mtctr 0
.LEHB3:
	bctrl
.LVL208:
	li 4,5120
	add 6,28,3
	li 5,50
	mr 3,29
	mtctr 30
	bctrl
	.loc 4 387 0
	b .L167
.L168:
	lwz 9,0(29)
	mr 3,29
	lwz 0,216(9)
	mtctr 0
	bctrl
.L167:
	.loc 4 387 0 is_stmt 0 discriminator 1
	lwz 3,276(31)
	lwz 9,0(3)
	lwz 0,156(9)
	mtctr 0
	bctrl
	cmpwi 7,3,0
	beq- 7,.L189
.LBB2309:
.LBB2310:
	.loc 5 27 0 is_stmt 1
	lis 30,_ZN11Application8instanceE@ha
	lwz 29,_ZN11Application8instanceE@l(30)
	la 30,_ZN11Application8instanceE@l(30)
	cmpwi 7,29,0
	bne+ 7,.L168
	li 3,632
	bl _Znwj
.LEHE3:
	mr 29,3
.LEHB4:
	bl _ZN11ApplicationC1Ev
.LEHE4:
	stw 29,0(30)
	b .L168
.L189:
.LBE2310:
.LBE2309:
	.loc 4 389 0
	mr 3,31
.LEHB5:
	bl _ZN8HomeMenu17SettingsBtnUpdateEv
	.loc 4 390 0
	lwz 3,324(31)
	li 4,128
	li 5,50
	lwz 9,0(3)
	li 6,0
	lwz 0,136(9)
	mtctr 0
	bctrl
	.loc 4 391 0
	lwz 3,360(31)
	li 4,128
	li 5,50
	lwz 9,0(3)
	li 6,0
	lwz 0,136(9)
	mtctr 0
	bctrl
	.loc 4 392 0
	lwz 3,356(31)
	li 5,50
	li 6,0
	lwz 9,0(3)
	li 4,128
	lwz 0,136(9)
	mtctr 0
	bctrl
	.loc 4 393 0
	lwz 4,324(31)
	mr 3,31
	bl _ZN8GuiFrame6AppendEP10GuiElement
	.loc 4 394 0
	lwz 4,360(31)
	mr 3,31
	bl _ZN8GuiFrame6AppendEP10GuiElement
	.loc 4 395 0
	lwz 4,356(31)
	mr 3,31
	bl _ZN8GuiFrame6AppendEP10GuiElement
	.loc 4 396 0
	b .L171
.L172:
	lwz 9,0(29)
	mr 3,29
	lwz 0,216(9)
	mtctr 0
	bctrl
.L171:
	.loc 4 396 0 is_stmt 0 discriminator 1
	lwz 3,356(31)
	lwz 9,0(3)
	lwz 0,156(9)
	mtctr 0
	bctrl
	cmpwi 7,3,0
	beq- 7,.L165
.LBB2311:
.LBB2312:
	.loc 5 27 0 is_stmt 1
	lis 30,_ZN11Application8instanceE@ha
	lwz 29,_ZN11Application8instanceE@l(30)
	la 30,_ZN11Application8instanceE@l(30)
	cmpwi 7,29,0
	bne+ 7,.L172
	li 3,632
	bl _Znwj
.LEHE5:
	mr 29,3
.LEHB6:
	bl _ZN11ApplicationC1Ev
.LEHE6:
	stw 29,0(30)
	b .L172
.L165:
.LBE2312:
.LBE2311:
	.loc 4 411 0
	lwz 0,28(1)
	lwz 28,8(1)
	mtlr 0
	lwz 29,12(1)
	lwz 30,16(1)
	lwz 31,20(1)
.LVL209:
	addi 1,1,24
	.cfi_remember_state
.LCFI64:
	.cfi_def_cfa_offset 0
	.cfi_restore 31
	.cfi_restore 30
	.cfi_restore 29
	.cfi_restore 28
	blr
.LVL210:
.L166:
.LCFI65:
	.cfi_restore_state
	.loc 4 400 0
	lwz 3,324(3)
.LVL211:
	li 4,128
.LVL212:
	li 5,-50
	li 6,0
	lwz 9,0(3)
	lwz 0,136(9)
	mtctr 0
.LEHB7:
	bctrl
	.loc 4 401 0
	lwz 3,360(31)
	li 4,128
	li 5,-50
	lwz 9,0(3)
	li 6,0
	lwz 0,136(9)
	mtctr 0
	bctrl
	.loc 4 402 0
	lwz 3,356(31)
	li 4,128
	li 5,-50
	lwz 9,0(3)
	li 6,0
	lwz 0,136(9)
	mtctr 0
	bctrl
	.loc 4 403 0
	b .L176
.L177:
	lwz 9,0(29)
	mr 3,29
	lwz 0,216(9)
	mtctr 0
	bctrl
.L176:
	.loc 4 403 0 is_stmt 0 discriminator 1
	lwz 3,356(31)
	lwz 9,0(3)
	lwz 0,156(9)
	mtctr 0
	bctrl
	cmpwi 7,3,0
	beq- 7,.L190
.LBB2314:
.LBB2315:
	.loc 5 27 0 is_stmt 1
	lis 30,_ZN11Application8instanceE@ha
	lwz 29,_ZN11Application8instanceE@l(30)
	la 30,_ZN11Application8instanceE@l(30)
	cmpwi 7,29,0
	bne+ 7,.L177
	li 3,632
	bl _Znwj
.LEHE7:
	mr 29,3
.LEHB8:
	bl _ZN11ApplicationC1Ev
.LEHE8:
	stw 29,0(30)
	b .L177
.L190:
.LBE2315:
.LBE2314:
	.loc 4 404 0
	lwz 4,324(31)
	mr 3,31
.LEHB9:
	bl _ZN8GuiFrame6RemoveEP10GuiElement
	.loc 4 405 0
	lwz 4,360(31)
	mr 3,31
	bl _ZN8GuiFrame6RemoveEP10GuiElement
	.loc 4 406 0
	lwz 4,356(31)
	mr 3,31
	bl _ZN8GuiFrame6RemoveEP10GuiElement
	.loc 4 408 0
	lwz 3,276(31)
	lis 11,screenwidth@ha
	li 4,5120
	lwz 9,0(3)
	li 5,50
	lwz 6,screenwidth@l(11)
	lwz 0,136(9)
	subfic 6,6,133
	mtctr 0
	bctrl
	.loc 4 409 0
	b .L180
.L181:
	lwz 9,0(29)
	mr 3,29
	lwz 0,216(9)
	mtctr 0
	bctrl
.L180:
	.loc 4 409 0 is_stmt 0 discriminator 1
	lwz 3,276(31)
	lwz 9,0(3)
	lwz 0,156(9)
	mtctr 0
	bctrl
	cmpwi 7,3,0
	beq- 7,.L165
.LBB2316:
.LBB2317:
	.loc 5 27 0 is_stmt 1
	lis 30,_ZN11Application8instanceE@ha
	lwz 29,_ZN11Application8instanceE@l(30)
	la 30,_ZN11Application8instanceE@l(30)
	cmpwi 7,29,0
	bne+ 7,.L181
	li 3,632
	bl _Znwj
.LEHE9:
	mr 29,3
.LEHB10:
	bl _ZN11ApplicationC1Ev
.LEHE10:
	stw 29,0(30)
	b .L181
.L184:
.L188:
	mr 31,3
.LVL213:
.LBE2317:
.LBE2316:
.LBB2318:
.LBB2313:
	mr 3,29
	bl _ZdlPv
	mr 3,31
.LEHB11:
	bl _Unwind_Resume
.LEHE11:
.LVL214:
.L187:
	b .L188
.L186:
	b .L188
.L185:
	b .L188
.LBE2313:
.LBE2318:
	.cfi_endproc
.LFE1626:
	.section	.gcc_except_table
.LLSDA1626:
	.byte	0xff
	.byte	0xff
	.byte	0x1
	.uleb128 .LLSDACSE1626-.LLSDACSB1626
.LLSDACSB1626:
	.uleb128 .LEHB3-.LFB1626
	.uleb128 .LEHE3-.LEHB3
	.uleb128 0
	.uleb128 0
	.uleb128 .LEHB4-.LFB1626
	.uleb128 .LEHE4-.LEHB4
	.uleb128 .L184-.LFB1626
	.uleb128 0
	.uleb128 .LEHB5-.LFB1626
	.uleb128 .LEHE5-.LEHB5
	.uleb128 0
	.uleb128 0
	.uleb128 .LEHB6-.LFB1626
	.uleb128 .LEHE6-.LEHB6
	.uleb128 .L185-.LFB1626
	.uleb128 0
	.uleb128 .LEHB7-.LFB1626
	.uleb128 .LEHE7-.LEHB7
	.uleb128 0
	.uleb128 0
	.uleb128 .LEHB8-.LFB1626
	.uleb128 .LEHE8-.LEHB8
	.uleb128 .L186-.LFB1626
	.uleb128 0
	.uleb128 .LEHB9-.LFB1626
	.uleb128 .LEHE9-.LEHB9
	.uleb128 0
	.uleb128 0
	.uleb128 .LEHB10-.LFB1626
	.uleb128 .LEHE10-.LEHB10
	.uleb128 .L187-.LFB1626
	.uleb128 0
	.uleb128 .LEHB11-.LFB1626
	.uleb128 .LEHE11-.LEHB11
	.uleb128 0
	.uleb128 0
.LLSDACSE1626:
	.section	".text"
	.size	_ZN8HomeMenu12SettingsAnimEb, .-_ZN8HomeMenu12SettingsAnimEb
	.align 2
	.globl _ZN8HomeMenu12SettingsHideEv
	.type	_ZN8HomeMenu12SettingsHideEv, @function
_ZN8HomeMenu12SettingsHideEv:
.LFB1625:
	.loc 4 366 0
	.cfi_startproc
	.cfi_personality 0,__gxx_personality_v0
	.cfi_lsda 0,.LLSDA1625
.LVL215:
	stwu 1,-24(1)
.LCFI66:
	.cfi_def_cfa_offset 24
	mflr 0
	.loc 4 367 0
	li 4,0
	.loc 4 366 0
	stw 29,12(1)
	mr 29,3
	.cfi_offset 29, -12
	.cfi_register 65, 0
	stw 0,28(1)
	stw 30,16(1)
	stw 31,20(1)
.LEHB12:
	.loc 4 367 0
	.cfi_offset 31, -4
	.cfi_offset 30, -8
	.cfi_offset 65, 4
	bl _ZN8HomeMenu12SettingsAnimEb
.LVL216:
	.loc 4 369 0
	lwz 3,272(29)
	li 4,3072
	li 5,50
	li 6,210
	lwz 9,0(3)
	lwz 0,136(9)
	mtctr 0
	bctrl
	.loc 4 370 0
	lwz 3,348(29)
	li 4,20
	li 5,50
	lwz 9,0(3)
	li 6,0
	lwz 0,136(9)
	mtctr 0
	bctrl
	.loc 4 371 0
	lwz 3,352(29)
	li 4,20
	li 5,50
	lwz 9,0(3)
	li 6,0
	lwz 0,136(9)
	mtctr 0
	bctrl
	.loc 4 372 0
	lwz 3,336(29)
	li 4,17
	li 5,50
	lwz 9,0(3)
	li 6,0
	lwz 0,136(9)
	mtctr 0
	bctrl
	.loc 4 373 0
	lwz 3,340(29)
	li 5,50
	li 6,0
	lwz 9,0(3)
	li 4,17
	lwz 0,136(9)
	mtctr 0
	bctrl
	.loc 4 374 0
	lwz 30,292(29)
	lis 3,.LC8@ha
	lwz 9,0(30)
	la 3,.LC8@l(3)
	lwz 31,200(9)
	bl gettext
	mr 4,3
	mr 3,30
	mtctr 31
	bctrl
	.loc 4 376 0
	b .L192
.L193:
	lwz 9,0(31)
	mr 3,31
	lwz 0,216(9)
	mtctr 0
	bctrl
.L192:
	.loc 4 376 0 is_stmt 0 discriminator 1
	lwz 3,340(29)
	lwz 9,0(3)
	lwz 0,156(9)
	mtctr 0
	bctrl
	cmpwi 0,3,0
	beq- 0,.L197
.LBB2321:
.LBB2322:
	.loc 5 27 0 is_stmt 1
	lis 30,_ZN11Application8instanceE@ha
	lwz 31,_ZN11Application8instanceE@l(30)
	cmpwi 7,31,0
	bne+ 7,.L193
	li 3,632
	bl _Znwj
.LEHE12:
	mr 31,3
.LEHB13:
	bl _ZN11ApplicationC1Ev
.LEHE13:
	stw 31,_ZN11Application8instanceE@l(30)
	b .L193
.L197:
.LBE2322:
.LBE2321:
	.loc 4 380 0
	lwz 0,28(1)
	.loc 4 379 0
	stb 3,204(29)
	.loc 4 380 0
	mtlr 0
	lwz 29,12(1)
.LVL217:
	lwz 30,16(1)
	lwz 31,20(1)
	addi 1,1,24
	.cfi_remember_state
.LCFI67:
	.cfi_def_cfa_offset 0
	.cfi_restore 31
	.cfi_restore 30
	.cfi_restore 29
	blr
.LVL218:
.L196:
.LCFI68:
	.cfi_restore_state
	mr 30,3
.LBB2324:
.LBB2323:
	.loc 5 27 0
	mr 3,31
	bl _ZdlPv
	mr 3,30
.LEHB14:
	bl _Unwind_Resume
.LEHE14:
.LBE2323:
.LBE2324:
	.cfi_endproc
.LFE1625:
	.section	.gcc_except_table
.LLSDA1625:
	.byte	0xff
	.byte	0xff
	.byte	0x1
	.uleb128 .LLSDACSE1625-.LLSDACSB1625
.LLSDACSB1625:
	.uleb128 .LEHB12-.LFB1625
	.uleb128 .LEHE12-.LEHB12
	.uleb128 0
	.uleb128 0
	.uleb128 .LEHB13-.LFB1625
	.uleb128 .LEHE13-.LEHB13
	.uleb128 .L196-.LFB1625
	.uleb128 0
	.uleb128 .LEHB14-.LFB1625
	.uleb128 .LEHE14-.LEHB14
	.uleb128 0
	.uleb128 0
.LLSDACSE1625:
	.section	".text"
	.size	_ZN8HomeMenu12SettingsHideEv, .-_ZN8HomeMenu12SettingsHideEv
	.align 2
	.globl _ZN8HomeMenu12SettingsShowEv
	.type	_ZN8HomeMenu12SettingsShowEv, @function
_ZN8HomeMenu12SettingsShowEv:
.LFB1624:
	.loc 4 350 0
	.cfi_startproc
	.cfi_personality 0,__gxx_personality_v0
	.cfi_lsda 0,.LLSDA1624
.LVL219:
	mflr 0
	stwu 1,-24(1)
.LCFI69:
	.cfi_def_cfa_offset 24
	.cfi_register 65, 0
	.loc 4 353 0
	li 4,36
	li 5,50
	.loc 4 350 0
	stw 29,12(1)
	mr 29,3
	.cfi_offset 29, -12
	stw 0,28(1)
	.loc 4 353 0
	li 6,0
	.loc 4 350 0
	stw 30,16(1)
	.loc 4 353 0
	lwz 3,348(3)
.LVL220:
	.loc 4 350 0
	stw 31,20(1)
	.loc 4 353 0
	lwz 9,0(3)
	lwz 0,136(9)
	.cfi_offset 31, -4
	.cfi_offset 30, -8
	.cfi_offset 65, 4
	.loc 4 351 0
	li 9,1
	stb 9,204(29)
	.loc 4 353 0
	mtctr 0
.LEHB15:
	bctrl
	.loc 4 354 0
	lwz 3,352(29)
	li 4,36
	li 5,50
	lwz 9,0(3)
	li 6,0
	lwz 0,136(9)
	mtctr 0
	bctrl
	.loc 4 355 0
	lwz 3,336(29)
	li 4,33
	li 5,50
	lwz 9,0(3)
	li 6,0
	lwz 0,136(9)
	mtctr 0
	bctrl
	.loc 4 356 0
	lwz 3,340(29)
	li 4,33
	li 5,50
	lwz 9,0(3)
	li 6,0
	lwz 0,136(9)
	mtctr 0
	bctrl
	.loc 4 357 0
	lwz 3,344(29)
	lwz 30,272(29)
	lwz 9,0(3)
	lwz 0,40(9)
	lwz 9,0(30)
	mtctr 0
	lwz 31,136(9)
	bctrl
	mtctr 31
	neg 6,3
	li 5,50
	mr 3,30
	li 4,3072
	bctrl
	.loc 4 358 0
	lwz 30,292(29)
	lis 3,.LC9@ha
	lwz 9,0(30)
	la 3,.LC9@l(3)
	lwz 31,200(9)
	bl gettext
	mr 4,3
	mr 3,30
	mtctr 31
	bctrl
	.loc 4 360 0
	b .L199
.L200:
	lwz 9,0(31)
	mr 3,31
	lwz 0,216(9)
	mtctr 0
	bctrl
.L199:
	.loc 4 360 0 is_stmt 0 discriminator 1
	lwz 3,348(29)
	lwz 9,0(3)
	lwz 0,156(9)
	mtctr 0
	bctrl
	cmpwi 7,3,0
	beq- 7,.L204
.LBB2327:
.LBB2328:
	.loc 5 27 0 is_stmt 1
	lis 30,_ZN11Application8instanceE@ha
	lwz 31,_ZN11Application8instanceE@l(30)
	cmpwi 7,31,0
	bne+ 7,.L200
	li 3,632
	bl _Znwj
.LEHE15:
	mr 31,3
.LEHB16:
	bl _ZN11ApplicationC1Ev
.LEHE16:
	stw 31,_ZN11Application8instanceE@l(30)
	b .L200
.L204:
.LBE2328:
.LBE2327:
	.loc 4 363 0
	lwz 0,28(1)
	.loc 4 362 0
	mr 3,29
	.loc 4 363 0
	lwz 30,16(1)
	.loc 4 362 0
	li 4,1
	.loc 4 363 0
	lwz 29,12(1)
.LVL221:
	mtlr 0
	lwz 31,20(1)
	addi 1,1,24
	.cfi_remember_state
.LCFI70:
	.cfi_def_cfa_offset 0
	.cfi_restore 31
	.cfi_restore 30
	.cfi_restore 29
.LEHB17:
	.loc 4 362 0
	b _ZN8HomeMenu12SettingsAnimEb
.LVL222:
.L203:
.LCFI71:
	.cfi_restore_state
	mr 30,3
.LBB2330:
.LBB2329:
	.loc 5 27 0
	mr 3,31
	bl _ZdlPv
	mr 3,30
	bl _Unwind_Resume
.LEHE17:
.LBE2329:
.LBE2330:
	.cfi_endproc
.LFE1624:
	.section	.gcc_except_table
.LLSDA1624:
	.byte	0xff
	.byte	0xff
	.byte	0x1
	.uleb128 .LLSDACSE1624-.LLSDACSB1624
.LLSDACSB1624:
	.uleb128 .LEHB15-.LFB1624
	.uleb128 .LEHE15-.LEHB15
	.uleb128 0
	.uleb128 0
	.uleb128 .LEHB16-.LFB1624
	.uleb128 .LEHE16-.LEHB16
	.uleb128 .L203-.LFB1624
	.uleb128 0
	.uleb128 .LEHB17-.LFB1624
	.uleb128 .LEHE17-.LEHB17
	.uleb128 0
	.uleb128 0
.LLSDACSE1624:
	.section	".text"
	.size	_ZN8HomeMenu12SettingsShowEv, .-_ZN8HomeMenu12SettingsShowEv
	.align 2
	.globl _ZN8HomeMenu13OnButtonClickEP9GuiButtoniRK6_POINT
	.type	_ZN8HomeMenu13OnButtonClickEP9GuiButtoniRK6_POINT, @function
_ZN8HomeMenu13OnButtonClickEP9GuiButtoniRK6_POINT:
.LFB1623:
	.loc 4 292 0
	.cfi_startproc
.LVL223:
	mflr 0
	stwu 1,-24(1)
.LCFI72:
	.cfi_def_cfa_offset 24
	.cfi_register 65, 0
	stw 30,16(1)
	mr 30,4
	.cfi_offset 30, -8
	stw 31,20(1)
	mr 31,3
	.cfi_offset 31, -4
	stw 0,28(1)
	stw 28,8(1)
	stw 29,12(1)
.LBB2347:
	.loc 4 293 0
	.cfi_offset 29, -12
	.cfi_offset 28, -16
	.cfi_offset 65, 4
	bl _ZN8HomeMenu10IsAnimatedEv
.LVL224:
	cmpwi 7,3,0
	bne- 7,.L205
.LBB2348:
	.loc 4 296 0
	lwz 0,336(31)
	cmpw 7,0,30
	beq- 7,.L225
.LVL225:
.LBE2348:
.LBE2347:
.LBB2351:
.LBB2352:
.LBB2353:
	.loc 4 303 0
	lwz 0,348(31)
	cmpw 7,30,0
	beq- 7,.L226
.LBB2354:
	.loc 4 320 0
	lwz 0,352(31)
	cmpw 7,30,0
	beq- 7,.L227
	.loc 4 335 0
	lwz 0,344(31)
	cmpw 7,30,0
	beq- 7,.L228
	.loc 4 342 0
	lwz 0,356(31)
	cmpw 7,30,0
	beq- 7,.L220
	lwz 0,360(31)
	cmpw 7,30,0
	beq- 7,.L220
.LVL226:
.L205:
.LBE2354:
.LBE2353:
.LBE2352:
.LBE2351:
	.loc 4 347 0
	lwz 0,28(1)
	lwz 28,8(1)
	mtlr 0
	lwz 29,12(1)
	lwz 30,16(1)
	lwz 31,20(1)
	addi 1,1,24
	.cfi_remember_state
.LCFI73:
	.cfi_def_cfa_offset 0
	.cfi_restore 31
	.cfi_restore 30
	.cfi_restore 29
	.cfi_restore 28
	blr
.LVL227:
.L226:
.LCFI74:
	.cfi_restore_state
.LBB2402:
.LBB2393:
.LBB2384:
.LBB2366:
	.loc 4 305 0
	lis 9,Settings+140@ha
	lha 0,Settings+140@l(9)
	cmpwi 7,0,0
	beq- 7,.L223
.LBB2367:
	.loc 4 307 0
	cmpwi 7,0,2
	beq- 7,.L222
.LBB2368:
	.loc 4 309 0
	cmpwi 7,0,1
	bne+ 7,.L205
.LBB2369:
	.loc 4 311 0
	lis 3,.LC10@ha
	la 3,.LC10@l(3)
	bl gettext
	mr 28,3
	lis 3,.LC11@ha
	la 3,.LC11@l(3)
	bl gettext
	mr 29,3
	lis 3,.LC12@ha
	la 3,.LC12@l(3)
	bl gettext
	mr 30,3
.LVL228:
	lis 3,.LC13@ha
	la 3,.LC13@l(3)
	bl gettext
	mr 31,3
.LVL229:
	lis 3,.LC14@ha
	la 3,.LC14@l(3)
	bl gettext
	li 4,0
	mr 8,3
	mr 5,29
	mr 3,28
	mr 6,30
	mr 7,31
	bl _Z12WindowPromptPKcS0_S0_S0_S0_S0_
.LVL230:
	.loc 4 312 0
	cmpwi 7,3,1
	beq- 7,.L222
	.loc 4 314 0
	cmpwi 7,3,2
	beq- 7,.L223
	.loc 4 316 0
	cmpwi 7,3,3
	bne+ 7,.L205
.LVL231:
.L224:
.LBE2369:
.LBE2368:
.LBE2367:
.LBE2366:
.LBB2373:
.LBB2355:
	.loc 4 323 0
	bl RebootApp
	b .L205
.LVL232:
.L220:
.LBE2355:
	.loc 4 344 0
	lis 9,Settings@ha
.LBE2373:
.LBE2384:
.LBE2393:
.LBE2402:
	.loc 4 347 0
	lwz 28,8(1)
.LBB2403:
.LBB2394:
.LBB2385:
.LBB2374:
	.loc 4 344 0
	la 9,Settings@l(9)
.LBE2374:
.LBE2385:
.LBE2394:
.LBE2403:
	.loc 4 347 0
	lwz 29,12(1)
.LBB2404:
.LBB2395:
.LBB2386:
.LBB2375:
	.loc 4 344 0
	lha 0,100(9)
	.loc 4 345 0
	mr 3,31
.LBE2375:
.LBE2386:
.LBE2395:
.LBE2404:
	.loc 4 347 0
	lwz 30,16(1)
.LVL233:
.LBB2405:
.LBB2396:
.LBB2387:
.LBB2376:
	.loc 4 344 0
	cntlzw 0,0
.LBE2376:
.LBE2387:
.LBE2396:
.LBE2405:
	.loc 4 347 0
	lwz 31,20(1)
.LVL234:
.LBB2406:
.LBB2397:
.LBB2388:
.LBB2377:
	.loc 4 344 0
	srwi 0,0,5
	sth 0,100(9)
.LBE2377:
.LBE2388:
.LBE2397:
.LBE2406:
	.loc 4 347 0
	lwz 0,28(1)
	addi 1,1,24
	.cfi_remember_state
.LCFI75:
	.cfi_def_cfa_offset 0
	.cfi_restore 31
	.cfi_restore 30
	.cfi_restore 29
	.cfi_restore 28
	mtlr 0
.LBB2407:
.LBB2398:
.LBB2389:
.LBB2378:
	.loc 4 345 0
	b _ZN8HomeMenu17SettingsBtnUpdateEv
.LVL235:
.L225:
.LCFI76:
	.cfi_restore_state
.LBE2378:
.LBE2389:
.LBE2398:
.LBE2407:
.LBB2408:
.LBB2349:
	.loc 4 298 0
	lbz 0,204(31)
	.loc 4 299 0
	mr 3,31
	.loc 4 298 0
	cmpwi 7,0,0
	bne- 7,.L219
.LBE2349:
.LBE2408:
	.loc 4 347 0
	lwz 0,28(1)
	lwz 28,8(1)
	lwz 29,12(1)
	mtlr 0
	lwz 30,16(1)
.LVL236:
	lwz 31,20(1)
.LVL237:
	addi 1,1,24
	.cfi_remember_state
.LCFI77:
	.cfi_def_cfa_offset 0
	.cfi_restore 31
	.cfi_restore 30
	.cfi_restore 29
	.cfi_restore 28
.LBB2409:
.LBB2350:
	.loc 4 299 0
	b _ZN8HomeMenu4quitEv
.LVL238:
.L228:
.LCFI78:
	.cfi_restore_state
.LBE2350:
.LBE2409:
.LBB2410:
.LBB2399:
.LBB2390:
.LBB2379:
	.loc 4 337 0
	lbz 0,204(31)
	.loc 4 338 0
	mr 3,31
	.loc 4 337 0
	cmpwi 7,0,0
	beq- 7,.L229
.LVL239:
.L219:
.LBE2379:
.LBE2390:
.LBE2399:
.LBE2410:
	.loc 4 347 0
	lwz 0,28(1)
	lwz 28,8(1)
	lwz 29,12(1)
	mtlr 0
	lwz 30,16(1)
.LVL240:
	lwz 31,20(1)
.LVL241:
	addi 1,1,24
	.cfi_remember_state
.LCFI79:
	.cfi_def_cfa_offset 0
	.cfi_restore 31
	.cfi_restore 30
	.cfi_restore 29
	.cfi_restore 28
.LBB2411:
.LBB2400:
.LBB2391:
.LBB2380:
	.loc 4 340 0
	b _ZN8HomeMenu12SettingsHideEv
.LVL242:
.L227:
.LCFI80:
	.cfi_restore_state
.LBB2363:
	.loc 4 322 0
	lis 9,Settings+140@ha
	lha 0,Settings+140@l(9)
	cmpwi 7,0,0
	beq- 7,.L224
.LBB2356:
	.loc 4 324 0
	cmpwi 7,0,2
	beq- 7,.L223
.LBB2357:
	.loc 4 326 0
	cmpwi 7,0,1
	bne+ 7,.L205
.LBB2358:
	.loc 4 328 0
	lis 3,.LC15@ha
	la 3,.LC15@l(3)
	bl gettext
	mr 29,3
	lis 3,.LC16@ha
	la 3,.LC16@l(3)
	bl gettext
	mr 30,3
.LVL243:
	lis 3,.LC17@ha
	la 3,.LC17@l(3)
	bl gettext
	mr 31,3
.LVL244:
	lis 3,.LC14@ha
	la 3,.LC14@l(3)
	bl gettext
	li 4,0
	mr 7,3
	mr 5,30
	mr 3,29
	mr 6,31
	li 8,0
	bl _Z12WindowPromptPKcS0_S0_S0_S0_S0_
.LVL245:
	.loc 4 329 0
	cmpwi 7,3,1
	beq- 7,.L230
	.loc 4 331 0
	cmpwi 7,3,2
	bne+ 7,.L205
	.loc 4 332 0
	bl Sys_ShutdownToIdle
.LVL246:
	b .L205
.LVL247:
.L229:
.LBE2358:
.LBE2357:
.LBE2356:
.LBE2363:
.LBE2380:
.LBE2391:
.LBE2400:
.LBE2411:
	.loc 4 347 0
	lwz 0,28(1)
	lwz 28,8(1)
	lwz 29,12(1)
	mtlr 0
	lwz 30,16(1)
.LVL248:
	lwz 31,20(1)
	addi 1,1,24
	.cfi_remember_state
.LCFI81:
	.cfi_def_cfa_offset 0
	.cfi_restore 31
	.cfi_restore 30
	.cfi_restore 29
	.cfi_restore 28
.LBB2412:
.LBB2401:
.LBB2392:
.LBB2381:
	.loc 4 338 0
	b _ZN8HomeMenu12SettingsShowEv
.LVL249:
.L223:
.LCFI82:
	.cfi_restore_state
.LBB2364:
.LBB2361:
	.loc 4 325 0
	bl Sys_LoadMenu
	b .L205
.L222:
.LBE2361:
.LBE2364:
.LBE2381:
.LBB2382:
.LBB2372:
.LBB2371:
.LBB2370:
	.loc 4 313 0
	bl Sys_LoadHBC
	b .L205
.LVL250:
.L230:
.LBE2370:
.LBE2371:
.LBE2372:
.LBE2382:
.LBB2383:
.LBB2365:
.LBB2362:
.LBB2360:
.LBB2359:
	.loc 4 330 0
	bl Sys_ShutdownToStandby
.LVL251:
	b .L205
.LBE2359:
.LBE2360:
.LBE2362:
.LBE2365:
.LBE2383:
.LBE2392:
.LBE2401:
.LBE2412:
	.cfi_endproc
.LFE1623:
	.size	_ZN8HomeMenu13OnButtonClickEP9GuiButtoniRK6_POINT, .-_ZN8HomeMenu13OnButtonClickEP9GuiButtoniRK6_POINT
	.section	.text._ZNSt6vectorIP10GuiElementSaIS1_EE13_M_insert_auxEN9__gnu_cxx17__normal_iteratorIPS1_S3_EERKS1_,"axG",@progbits,_ZNSt6vectorIP10GuiElementSaIS1_EE13_M_insert_auxEN9__gnu_cxx17__normal_iteratorIPS1_S3_EERKS1_,comdat
	.align 2
	.weak	_ZNSt6vectorIP10GuiElementSaIS1_EE13_M_insert_auxEN9__gnu_cxx17__normal_iteratorIPS1_S3_EERKS1_
	.type	_ZNSt6vectorIP10GuiElementSaIS1_EE13_M_insert_auxEN9__gnu_cxx17__normal_iteratorIPS1_S3_EERKS1_, @function
_ZNSt6vectorIP10GuiElementSaIS1_EE13_M_insert_auxEN9__gnu_cxx17__normal_iteratorIPS1_S3_EERKS1_:
.LFB1718:
	.file 6 "d:\\devkitpro\\devkitppc\\bin\\../lib/gcc/powerpc-eabi/4.6.3/../../../../powerpc-eabi/include/c++/4.6.3/bits/vector.tcc"
	.loc 6 300 0
	.cfi_startproc
.LVL252:
	mflr 0
	stwu 1,-40(1)
.LCFI83:
	.cfi_def_cfa_offset 40
	.cfi_register 65, 0
	stw 27,20(1)
	stw 0,44(1)
	stw 30,32(1)
.LBB2475:
	.loc 6 304 0
	lwz 27,4(3)
	.cfi_offset 30, -8
	.cfi_offset 65, 4
	.cfi_offset 27, -20
	lwz 0,8(3)
.LBE2475:
	.loc 6 300 0
	stw 31,36(1)
	mr 31,3
	.cfi_offset 31, -4
.LBB2600:
	.loc 6 304 0
	cmpw 7,27,0
.LBE2600:
	.loc 6 300 0
	stw 26,16(1)
	stw 28,24(1)
	stw 29,28(1)
	.loc 6 300 0
	lwz 30,0(4)
.LVL253:
.LBB2601:
	.loc 6 304 0
	beq- 7,.L232
	.cfi_offset 29, -12
	.cfi_offset 28, -16
	.cfi_offset 26, -24
.LVL254:
.LBB2476:
.LBB2477:
.LBB2478:
	.file 7 "d:\\devkitpro\\devkitppc\\bin\\../lib/gcc/powerpc-eabi/4.6.3/../../../../powerpc-eabi/include/c++/4.6.3/ext/new_allocator.h"
	.loc 7 108 0
	cmpwi 7,27,0
	li 3,0
.LVL255:
	beq- 7,.L233
	lwz 0,-4(27)
	stw 0,0(27)
	lwz 3,4(31)
.L233:
.LBE2478:
.LBE2477:
	.loc 6 313 0
	addi 0,3,-4
	.loc 6 309 0
	addi 9,3,4
.LBB2479:
.LBB2480:
.LBB2481:
.LBB2482:
.LBB2483:
.LBB2484:
	.file 8 "d:\\devkitpro\\devkitppc\\bin\\../lib/gcc/powerpc-eabi/4.6.3/../../../../powerpc-eabi/include/c++/4.6.3/bits/stl_algobase.h"
	.loc 8 559 0
	subf 0,30,0
.LBE2484:
.LBE2483:
.LBE2482:
.LBE2481:
.LBE2480:
.LBE2479:
	.loc 6 309 0
	stw 9,4(31)
.LBB2500:
.LBB2497:
.LBB2494:
.LBB2491:
.LBB2488:
.LBB2485:
	.loc 8 560 0
	srawi. 0,0,2
.LBE2485:
.LBE2488:
.LBE2491:
.LBE2494:
.LBE2497:
.LBE2500:
	.loc 6 311 0
	lwz 31,0(5)
.LVL256:
.LBB2501:
.LBB2498:
.LBB2495:
.LBB2492:
.LBB2489:
.LBB2486:
	.loc 8 560 0
	bne- 0,.L248
.LVL257:
.L234:
.LBE2486:
.LBE2489:
.LBE2492:
.LBE2495:
.LBE2498:
.LBE2501:
.LBE2476:
.LBE2601:
	.loc 6 373 0
	lwz 0,44(1)
.LBB2602:
.LBB2503:
	.loc 6 317 0
	stw 31,0(30)
.LBE2503:
.LBE2602:
	.loc 6 373 0
	mtlr 0
	lwz 26,16(1)
	lwz 27,20(1)
.LVL258:
	lwz 28,24(1)
	lwz 29,28(1)
	lwz 30,32(1)
.LVL259:
	lwz 31,36(1)
.LVL260:
	addi 1,1,40
	.cfi_remember_state
.LCFI84:
	.cfi_def_cfa_offset 0
	.cfi_restore 31
	.cfi_restore 30
	.cfi_restore 29
	.cfi_restore 28
	.cfi_restore 27
	.cfi_restore 26
	blr
.LVL261:
.L248:
.LCFI85:
	.cfi_restore_state
.LBB2603:
.LBB2504:
.LBB2502:
.LBB2499:
.LBB2496:
.LBB2493:
.LBB2490:
.LBB2487:
	.loc 8 561 0
	slwi 5,0,2
.LVL262:
	mr 4,30
	subf 3,5,3
.LVL263:
	bl memmove
.LVL264:
	b .L234
.LVL265:
.L232:
.LBE2487:
.LBE2490:
.LBE2493:
.LBE2496:
.LBE2499:
.LBE2502:
.LBE2504:
.LBB2505:
.LBB2506:
.LBB2507:
.LBB2508:
.LBB2509:
	.file 9 "d:\\devkitpro\\devkitppc\\bin\\../lib/gcc/powerpc-eabi/4.6.3/../../../../powerpc-eabi/include/c++/4.6.3/bits/stl_vector.h"
	.loc 9 571 0
	lwz 28,0(3)
	subf 27,28,27
.LBE2509:
.LBE2508:
.LBB2510:
.LBB2511:
	.loc 8 215 0
	srawi. 27,27,2
	beq- 0,.L236
.LBE2511:
.LBE2510:
	.loc 9 1244 0
	slwi 0,27,1
.LVL266:
	.loc 9 1245 0
	cmplw 7,27,0
	ble- 7,.L249
.L237:
.LVL267:
.LBE2507:
.LBE2506:
.LBB2514:
.LBB2515:
	.file 10 "d:\\devkitpro\\devkitppc\\bin\\../lib/gcc/powerpc-eabi/4.6.3/../../../../powerpc-eabi/include/c++/4.6.3/bits/stl_iterator.h"
	.loc 10 892 0
	subf 28,28,30
.LBE2515:
.LBE2514:
	.loc 6 326 0
	li 27,-4
.LBB2521:
.LBB2516:
	.loc 10 892 0
	srawi 28,28,2
.LVL268:
.L243:
.LBE2516:
.LBE2521:
.LBB2522:
.LBB2523:
.LBB2524:
.LBB2525:
	.loc 7 92 0
	mr 3,27
.LVL269:
	stw 5,8(1)
	bl _Znwj
.LVL270:
	lwz 5,8(1)
	mr 29,3
.L238:
.LVL271:
.LBE2525:
.LBE2524:
.LBE2523:
.LBE2522:
	.loc 6 335 0
	slwi 28,28,2
.LVL272:
	add 0,29,28
.LVL273:
.LBB2528:
.LBB2529:
	.loc 7 108 0
	cmpwi 7,0,0
	beq- 7,.L239
	lwz 0,0(5)
.LVL274:
	stwx 0,29,28
.L239:
.LVL275:
.LBE2529:
.LBE2528:
	.loc 6 343 0
	lwz 4,0(31)
.LVL276:
.LBB2530:
.LBB2531:
.LBB2532:
.LBB2533:
.LBB2534:
.LBB2535:
.LBB2536:
.LBB2537:
.LBB2538:
.LBB2539:
.LBB2540:
	.loc 8 365 0
	li 28,0
	.loc 8 364 0
	subf 0,4,30
.LVL277:
	.loc 8 365 0
	srawi. 0,0,2
.LVL278:
	beq+ 0,.L240
	.loc 8 366 0
	slwi 28,0,2
	mr 3,29
	mr 5,28
.LVL279:
	bl memmove
.LVL280:
.L240:
.LBE2540:
.LBE2539:
.LBE2538:
.LBE2537:
.LBE2536:
.LBE2535:
.LBE2534:
.LBE2533:
.LBE2532:
.LBE2531:
.LBE2530:
.LBB2551:
.LBB2552:
.LBB2553:
.LBB2554:
.LBB2555:
.LBB2556:
.LBB2557:
.LBB2558:
.LBB2559:
.LBB2560:
.LBB2561:
	.loc 8 364 0
	lwz 0,4(31)
.LBE2561:
.LBE2560:
.LBE2559:
.LBE2558:
.LBE2557:
.LBE2556:
.LBE2555:
.LBE2554:
.LBE2553:
.LBE2552:
.LBE2551:
.LBB2582:
.LBB2550:
.LBB2549:
.LBB2548:
.LBB2547:
.LBB2546:
.LBB2545:
.LBB2544:
.LBB2543:
.LBB2542:
.LBB2541:
	.loc 8 367 0
	add 28,29,28
.LVL281:
.LBE2541:
.LBE2542:
.LBE2543:
.LBE2544:
.LBE2545:
.LBE2546:
.LBE2547:
.LBE2548:
.LBE2549:
.LBE2550:
.LBE2582:
	.loc 6 347 0
	addi 26,28,4
.LBB2583:
.LBB2580:
.LBB2578:
.LBB2576:
.LBB2574:
.LBB2572:
.LBB2570:
.LBB2568:
.LBB2566:
.LBB2564:
.LBB2562:
	.loc 8 365 0
	li 28,0
	.loc 8 364 0
	subf 0,30,0
.LVL282:
	.loc 8 365 0
	srawi. 0,0,2
.LVL283:
	beq+ 0,.L241
	.loc 8 366 0
	slwi 28,0,2
	mr 3,26
	mr 4,30
	mr 5,28
	bl memmove
.LVL284:
.L241:
.LBE2562:
.LBE2564:
.LBE2566:
.LBE2568:
.LBE2570:
.LBE2572:
.LBE2574:
.LBE2576:
.LBE2578:
.LBE2580:
.LBE2583:
	.loc 6 366 0
	lwz 3,0(31)
.LBB2584:
.LBB2581:
.LBB2579:
.LBB2577:
.LBB2575:
.LBB2573:
.LBB2571:
.LBB2569:
.LBB2567:
.LBB2565:
.LBB2563:
	.loc 8 367 0
	add 28,26,28
.LVL285:
.LBE2563:
.LBE2565:
.LBE2567:
.LBE2569:
.LBE2571:
.LBE2573:
.LBE2575:
.LBE2577:
.LBE2579:
.LBE2581:
.LBE2584:
.LBB2585:
.LBB2586:
	.loc 9 155 0
	cmpwi 7,3,0
	beq- 7,.L242
.LVL286:
.LBB2587:
.LBB2588:
	.loc 7 98 0
	bl _ZdlPv
.LVL287:
.L242:
.LBE2588:
.LBE2587:
.LBE2586:
.LBE2585:
.LBE2505:
.LBE2603:
	.loc 6 373 0
	lwz 0,44(1)
.LBB2604:
.LBB2597:
	.loc 6 371 0
	add 27,29,27
	.loc 6 369 0
	stw 29,0(31)
.LBE2597:
.LBE2604:
	.loc 6 373 0
	mtlr 0
.LBB2605:
.LBB2598:
	.loc 6 370 0
	stw 28,4(31)
	.loc 6 371 0
	stw 27,8(31)
.LBE2598:
.LBE2605:
	.loc 6 373 0
	lwz 26,16(1)
.LVL288:
	lwz 27,20(1)
	lwz 28,24(1)
	lwz 29,28(1)
.LVL289:
	lwz 30,32(1)
.LVL290:
	lwz 31,36(1)
.LVL291:
	addi 1,1,40
	.cfi_remember_state
	.cfi_restore 26
	.cfi_restore 27
	.cfi_restore 28
	.cfi_restore 29
	.cfi_restore 30
	.cfi_restore 31
.LCFI86:
	.cfi_def_cfa_offset 0
	blr
.LVL292:
.L236:
.LCFI87:
	.cfi_restore_state
.LBB2606:
.LBB2599:
.LBB2589:
.LBB2517:
	.loc 10 892 0
	subf 28,28,30
.LBE2517:
.LBE2589:
	.loc 6 326 0
	li 27,4
.LBB2590:
.LBB2518:
	.loc 10 892 0
	srawi 28,28,2
.LVL293:
	b .L243
.LVL294:
.L249:
.LBE2518:
.LBE2590:
.LBB2591:
.LBB2512:
	.loc 9 1245 0
	lis 9,0x3fff
	ori 9,9,65535
	cmplw 7,0,9
	bgt+ 7,.L237
.LBE2512:
.LBE2591:
.LBB2592:
.LBB2526:
	.loc 9 150 0
	cmpwi 7,0,0
.LBE2526:
.LBE2592:
.LBB2593:
.LBB2519:
	.loc 10 892 0
	subf 28,28,30
.LBE2519:
.LBE2593:
.LBB2594:
.LBB2513:
	.loc 9 1245 0
	slwi 27,27,3
.LVL295:
.LBE2513:
.LBE2594:
.LBB2595:
.LBB2520:
	.loc 10 892 0
	srawi 28,28,2
.LVL296:
.LBE2520:
.LBE2595:
.LBB2596:
.LBB2527:
	.loc 9 150 0
	li 29,0
	beq+ 7,.L238
	b .L243
.LBE2527:
.LBE2596:
.LBE2599:
.LBE2606:
	.cfi_endproc
.LFE1718:
	.size	_ZNSt6vectorIP10GuiElementSaIS1_EE13_M_insert_auxEN9__gnu_cxx17__normal_iteratorIPS1_S3_EERKS1_, .-_ZNSt6vectorIP10GuiElementSaIS1_EE13_M_insert_auxEN9__gnu_cxx17__normal_iteratorIPS1_S3_EERKS1_
	.section	.text._ZNSt8_Rb_treeIPN7sigslot12_signal_baseINS0_15single_threadedEEES4_St9_IdentityIS4_ESt4lessIS4_ESaIS4_EE8_M_eraseEPSt13_Rb_tree_nodeIS4_E,"axG",@progbits,_ZNSt8_Rb_treeIPN7sigslot12_signal_baseINS0_15single_threadedEEES4_St9_IdentityIS4_ESt4lessIS4_ESaIS4_EE8_M_eraseEPSt13_Rb_tree_nodeIS4_E,comdat
	.align 2
	.weak	_ZNSt8_Rb_treeIPN7sigslot12_signal_baseINS0_15single_threadedEEES4_St9_IdentityIS4_ESt4lessIS4_ESaIS4_EE8_M_eraseEPSt13_Rb_tree_nodeIS4_E
	.type	_ZNSt8_Rb_treeIPN7sigslot12_signal_baseINS0_15single_threadedEEES4_St9_IdentityIS4_ESt4lessIS4_ESaIS4_EE8_M_eraseEPSt13_Rb_tree_nodeIS4_E, @function
_ZNSt8_Rb_treeIPN7sigslot12_signal_baseINS0_15single_threadedEEES4_St9_IdentityIS4_ESt4lessIS4_ESaIS4_EE8_M_eraseEPSt13_Rb_tree_nodeIS4_E:
.LFB1788:
	.file 11 "d:\\devkitpro\\devkitppc\\bin\\../lib/gcc/powerpc-eabi/4.6.3/../../../../powerpc-eabi/include/c++/4.6.3/bits/stl_tree.h"
	.loc 11 1068 0
	.cfi_startproc
.LVL297:
	stwu 1,-56(1)
.LCFI88:
	.cfi_def_cfa_offset 56
	mflr 0
	stw 22,16(1)
.LBB2723:
	.loc 11 1072 0
	mr. 22,4
	.cfi_offset 22, -40
	.cfi_register 65, 0
.LBE2723:
	.loc 11 1068 0
	stw 30,48(1)
	mr 30,3
	.cfi_offset 30, -8
	stw 0,60(1)
	stw 21,12(1)
	stw 23,20(1)
	stw 24,24(1)
	stw 25,28(1)
	stw 26,32(1)
	stw 27,36(1)
	stw 28,40(1)
	stw 29,44(1)
	stw 31,52(1)
.LBB2808:
	.loc 11 1072 0
	beq- 0,.L250
	.cfi_offset 31, -4
	.cfi_offset 29, -12
	.cfi_offset 28, -16
	.cfi_offset 27, -20
	.cfi_offset 26, -24
	.cfi_offset 25, -28
	.cfi_offset 24, -32
	.cfi_offset 23, -36
	.cfi_offset 21, -44
	.cfi_offset 65, 4
.LVL298:
.L296:
	.loc 4 473 0
	lwz 27,12(22)
.LVL299:
.LBB2724:
.LBB2725:
.LBB2726:
	.loc 11 1072 0
	cmpwi 7,27,0
	beq- 7,.L252
.LVL300:
.L297:
.LBE2726:
	.loc 4 473 0
	lwz 26,12(27)
.LVL301:
.LBB2802:
.LBB2727:
.LBB2728:
.LBB2729:
	.loc 11 1072 0
	cmpwi 7,26,0
	beq- 7,.L253
.LVL302:
.L298:
.LBE2729:
	.loc 4 473 0
	lwz 25,12(26)
.LVL303:
.LBB2795:
.LBB2730:
.LBB2731:
.LBB2732:
	.loc 11 1072 0
	cmpwi 7,25,0
	beq- 7,.L254
.LVL304:
.L299:
.LBE2732:
	.loc 4 473 0
	lwz 24,12(25)
.LVL305:
.LBB2788:
.LBB2733:
.LBB2734:
.LBB2735:
	.loc 11 1072 0
	cmpwi 7,24,0
	beq- 7,.L255
.LVL306:
.L300:
.LBE2735:
	.loc 4 473 0
	lwz 23,12(24)
.LVL307:
.LBB2781:
.LBB2736:
.LBB2737:
.LBB2738:
	.loc 11 1072 0
	cmpwi 7,23,0
	beq- 7,.L256
.LVL308:
.L301:
.LBE2738:
	.loc 4 473 0
	lwz 28,12(23)
.LVL309:
.LBB2774:
.LBB2739:
.LBB2740:
.LBB2741:
	.loc 11 1072 0
	cmpwi 7,28,0
	beq- 7,.L257
.LVL310:
.L302:
.LBE2741:
	.loc 4 473 0
	lwz 29,12(28)
.LVL311:
.LBB2767:
.LBB2742:
.LBB2743:
.LBB2744:
	.loc 11 1072 0
	cmpwi 7,29,0
	beq- 7,.L258
.LVL312:
.L303:
.LBE2744:
	.loc 4 473 0
	lwz 31,12(29)
.LVL313:
.LBB2760:
.LBB2745:
.LBB2746:
.LBB2747:
	.loc 11 1072 0
	cmpwi 7,31,0
	beq- 7,.L259
.LVL314:
.L304:
.LBB2748:
	.loc 11 1074 0
	lwz 4,12(31)
	mr 3,30
	bl _ZNSt8_Rb_treeIPN7sigslot12_signal_baseINS0_15single_threadedEEES4_St9_IdentityIS4_ESt4lessIS4_ESaIS4_EE8_M_eraseEPSt13_Rb_tree_nodeIS4_E
.LBE2748:
.LBE2747:
	.loc 4 473 0
	lwz 21,8(31)
.LVL315:
.LBB2754:
.LBB2753:
.LBB2749:
.LBB2750:
.LBB2751:
.LBB2752:
	.loc 7 98 0
	mr 3,31
	bl _ZdlPv
.LVL316:
.LBE2752:
.LBE2751:
.LBE2750:
.LBE2749:
.LBE2753:
	.loc 11 1072 0
	cmpwi 7,21,0
	.loc 11 1077 0
	mr 31,21
.LVL317:
	.loc 11 1072 0
	bne+ 7,.L304
.LVL318:
.L259:
.LBE2754:
.LBE2746:
.LBE2745:
.LBE2760:
	.loc 4 473 0
	lwz 31,8(29)
.LVL319:
.LBB2761:
.LBB2759:
.LBB2755:
.LBB2756:
.LBB2757:
.LBB2758:
	.loc 7 98 0
	mr 3,29
	bl _ZdlPv
.LVL320:
.LBE2758:
.LBE2757:
.LBE2756:
.LBE2755:
.LBE2759:
	.loc 11 1072 0
	cmpwi 7,31,0
	beq- 7,.L258
	.loc 11 1077 0
	mr 29,31
.LVL321:
	b .L303
.LVL322:
.L258:
.LBE2761:
.LBE2743:
.LBE2742:
.LBE2767:
	.loc 4 473 0
	lwz 31,8(28)
.LVL323:
.LBB2768:
.LBB2766:
.LBB2762:
.LBB2763:
.LBB2764:
.LBB2765:
	.loc 7 98 0
	mr 3,28
	bl _ZdlPv
.LVL324:
.LBE2765:
.LBE2764:
.LBE2763:
.LBE2762:
.LBE2766:
	.loc 11 1072 0
	cmpwi 7,31,0
	beq- 7,.L257
	.loc 11 1077 0
	mr 28,31
.LVL325:
	b .L302
.LVL326:
.L257:
.LBE2768:
.LBE2740:
.LBE2739:
.LBE2774:
	.loc 4 473 0
	lwz 31,8(23)
.LVL327:
.LBB2775:
.LBB2773:
.LBB2769:
.LBB2770:
.LBB2771:
.LBB2772:
	.loc 7 98 0
	mr 3,23
	bl _ZdlPv
.LVL328:
.LBE2772:
.LBE2771:
.LBE2770:
.LBE2769:
.LBE2773:
	.loc 11 1072 0
	cmpwi 7,31,0
	beq- 7,.L256
	.loc 11 1077 0
	mr 23,31
.LVL329:
	b .L301
.LVL330:
.L256:
.LBE2775:
.LBE2737:
.LBE2736:
.LBE2781:
	.loc 4 473 0
	lwz 31,8(24)
.LVL331:
.LBB2782:
.LBB2780:
.LBB2776:
.LBB2777:
.LBB2778:
.LBB2779:
	.loc 7 98 0
	mr 3,24
	bl _ZdlPv
.LVL332:
.LBE2779:
.LBE2778:
.LBE2777:
.LBE2776:
.LBE2780:
	.loc 11 1072 0
	cmpwi 7,31,0
	beq- 7,.L255
	.loc 11 1077 0
	mr 24,31
.LVL333:
	b .L300
.LVL334:
.L255:
.LBE2782:
.LBE2734:
.LBE2733:
.LBE2788:
	.loc 4 473 0
	lwz 31,8(25)
.LVL335:
.LBB2789:
.LBB2787:
.LBB2783:
.LBB2784:
.LBB2785:
.LBB2786:
	.loc 7 98 0
	mr 3,25
	bl _ZdlPv
.LVL336:
.LBE2786:
.LBE2785:
.LBE2784:
.LBE2783:
.LBE2787:
	.loc 11 1072 0
	cmpwi 7,31,0
	beq- 7,.L254
	.loc 11 1077 0
	mr 25,31
.LVL337:
	b .L299
.LVL338:
.L254:
.LBE2789:
.LBE2731:
.LBE2730:
.LBE2795:
	.loc 4 473 0
	lwz 31,8(26)
.LVL339:
.LBB2796:
.LBB2794:
.LBB2790:
.LBB2791:
.LBB2792:
.LBB2793:
	.loc 7 98 0
	mr 3,26
	bl _ZdlPv
.LVL340:
.LBE2793:
.LBE2792:
.LBE2791:
.LBE2790:
.LBE2794:
	.loc 11 1072 0
	cmpwi 7,31,0
	beq- 7,.L253
	.loc 11 1077 0
	mr 26,31
.LVL341:
	b .L298
.LVL342:
.L253:
.LBE2796:
.LBE2728:
.LBE2727:
.LBE2802:
	.loc 4 473 0
	lwz 31,8(27)
.LVL343:
.LBB2803:
.LBB2801:
.LBB2797:
.LBB2798:
.LBB2799:
.LBB2800:
	.loc 7 98 0
	mr 3,27
	bl _ZdlPv
.LVL344:
.LBE2800:
.LBE2799:
.LBE2798:
.LBE2797:
.LBE2801:
	.loc 11 1072 0
	cmpwi 7,31,0
	beq- 7,.L252
	.loc 11 1077 0
	mr 27,31
.LVL345:
	b .L297
.LVL346:
.L252:
	.loc 4 473 0
	lwz 31,8(22)
.LVL347:
.LBE2803:
.LBE2725:
.LBB2804:
.LBB2805:
.LBB2806:
.LBB2807:
	.loc 7 98 0
	mr 3,22
	bl _ZdlPv
.LVL348:
.LBE2807:
.LBE2806:
.LBE2805:
.LBE2804:
.LBE2724:
	.loc 11 1072 0
	cmpwi 7,31,0
	beq- 7,.L250
	.loc 11 1077 0
	mr 22,31
.LVL349:
	b .L296
.LVL350:
.L250:
.LBE2808:
	.loc 11 1079 0
	lwz 0,60(1)
	lwz 21,12(1)
	mtlr 0
	lwz 22,16(1)
	lwz 23,20(1)
	lwz 24,24(1)
	lwz 25,28(1)
	lwz 26,32(1)
	lwz 27,36(1)
	lwz 28,40(1)
	lwz 29,44(1)
	lwz 30,48(1)
.LVL351:
	lwz 31,52(1)
	addi 1,1,56
.LCFI89:
	.cfi_def_cfa_offset 0
	.cfi_restore 31
	.cfi_restore 30
	.cfi_restore 29
	.cfi_restore 28
	.cfi_restore 27
	.cfi_restore 26
	.cfi_restore 25
	.cfi_restore 24
	.cfi_restore 23
	.cfi_restore 22
	.cfi_restore 21
	blr
	.cfi_endproc
.LFE1788:
	.size	_ZNSt8_Rb_treeIPN7sigslot12_signal_baseINS0_15single_threadedEEES4_St9_IdentityIS4_ESt4lessIS4_ESaIS4_EE8_M_eraseEPSt13_Rb_tree_nodeIS4_E, .-_ZNSt8_Rb_treeIPN7sigslot12_signal_baseINS0_15single_threadedEEES4_St9_IdentityIS4_ESt4lessIS4_ESaIS4_EE8_M_eraseEPSt13_Rb_tree_nodeIS4_E
	.section	.text._ZN7sigslot9has_slotsINS_15single_threadedEED2Ev,"axG",@progbits,_ZN7sigslot9has_slotsINS_15single_threadedEED5Ev,comdat
	.align 2
	.weak	_ZN7sigslot9has_slotsINS_15single_threadedEED2Ev
	.type	_ZN7sigslot9has_slotsINS_15single_threadedEED2Ev, @function
_ZN7sigslot9has_slotsINS_15single_threadedEED2Ev:
.LFB1663:
	.loc 1 513 0
	.cfi_startproc
	.cfi_personality 0,__gxx_personality_v0
	.cfi_lsda 0,.LLSDA1663
.LVL352:
	mflr 0
	stwu 1,-32(1)
.LCFI90:
	.cfi_def_cfa_offset 32
	.cfi_register 65, 0
.LBB2955:
	.loc 1 516 0
	lis 9,_ZTVN7sigslot9has_slotsINS_15single_threadedEEE+8@ha
.LBE2955:
	.loc 1 513 0
	stw 28,16(1)
	addi 28,3,4
	.cfi_offset 28, -16
	stw 0,36(1)
.LBB3031:
	.loc 1 516 0
	la 0,_ZTVN7sigslot9has_slotsINS_15single_threadedEEE+8@l(9)
	.cfi_offset 65, 4
.LBE3031:
	.loc 1 513 0
	stw 29,20(1)
	mr 29,3
	.cfi_offset 29, -12
	stw 26,8(1)
	stw 27,12(1)
	stw 30,24(1)
	stw 31,28(1)
.LBB3032:
	.loc 1 516 0
	stw 0,0(3)
.LVL353:
.LEHB18:
.LBB2956:
.LBB2957:
.LBB2958:
.LBB2959:
	.loc 1 338 0
	.cfi_offset 31, -4
	.cfi_offset 30, -8
	.cfi_offset 27, -20
	.cfi_offset 26, -24
	bl _ZN7sigslot15single_threaded4lockEv
.LEHE18:
.LVL354:
.LBE2959:
.LBE2958:
.LBB2960:
	.loc 4 473 0
	lwz 31,16(29)
.LVL355:
.LBE2960:
.LBB2961:
.LBB2962:
.LBB2963:
	.loc 11 671 0
	addi 30,28,4
.LVL356:
.LBE2963:
.LBE2962:
.LBE2961:
	.loc 1 524 0
	cmpw 7,31,30
	beq- 7,.L306
.LVL357:
.L333:
	.loc 1 526 0
	lwz 3,16(31)
	mr 4,29
	lwz 9,0(3)
	lwz 0,16(9)
	mtctr 0
.LEHB19:
	bctrl
.LEHE19:
.LVL358:
.LBB2964:
.LBB2965:
	.loc 11 269 0
	mr 3,31
	bl _ZSt18_Rb_tree_incrementPKSt18_Rb_tree_node_base
.LBE2965:
.LBE2964:
	.loc 1 524 0
	cmpw 7,30,3
.LBB2967:
.LBB2966:
	.loc 11 269 0
	mr 31,3
.LVL359:
.LBE2966:
.LBE2967:
	.loc 1 524 0
	bne+ 7,.L333
	lwz 31,16(29)
.LVL360:
.L306:
.LBB2968:
.LBB2969:
.LBB2970:
.LBB2971:
.LBB2972:
.LBB2973:
.LBB2974:
	.loc 11 665 0
	addi 26,28,4
.LBE2974:
.LBE2973:
	.loc 11 1500 0
	cmpw 7,30,26
	beq- 7,.L308
.LVL361:
	.loc 11 1503 0
	cmpw 7,30,31
	bne+ 7,.L335
	b .L309
.LVL362:
.L330:
	.loc 11 277 0
	mr 31,27
.LVL363:
.L335:
.LBB2975:
.LBB2976:
	mr 3,31
	bl _ZSt18_Rb_tree_incrementPKSt18_Rb_tree_node_base
.LBE2976:
.LBE2975:
.LBB2978:
.LBB2979:
.LBB2980:
	.loc 11 1489 0
	mr 4,26
.LBE2980:
.LBE2979:
.LBE2978:
.LBB2989:
.LBB2977:
	.loc 11 277 0
	mr 27,3
.LVL364:
.LBE2977:
.LBE2989:
.LBB2990:
.LBB2987:
.LBB2985:
	.loc 11 1489 0
	mr 3,31
.LVL365:
	bl _ZSt28_Rb_tree_rebalance_for_erasePSt18_Rb_tree_node_baseRS_
.LBB2981:
.LBB2982:
.LBB2983:
.LBB2984:
	.loc 7 98 0
	bl _ZdlPv
.LBE2984:
.LBE2983:
.LBE2982:
.LBE2981:
.LBE2985:
.LBE2987:
.LBE2990:
	.loc 11 1503 0
	cmpw 7,30,27
.LBB2991:
.LBB2988:
.LBB2986:
	.loc 11 1491 0
	lwz 9,20(28)
	addi 0,9,-1
	stw 0,20(28)
.LBE2986:
.LBE2988:
.LBE2991:
	.loc 11 1503 0
	bne+ 7,.L330
.LVL366:
.L309:
.LBE2972:
.LBE2971:
.LBE2970:
.LBE2969:
.LBE2968:
.LBB3000:
.LBB3001:
.LBB3002:
	.loc 1 343 0
	lwz 9,0(29)
	mr 3,29
	lwz 0,12(9)
	mtctr 0
.LEHB20:
	bctrl
.LEHE20:
.LVL367:
.LBE3002:
.LBE3001:
.LBE3000:
.LBE2957:
.LBE2956:
.LBB3009:
.LBB3010:
.LBB3011:
.LBB3012:
.LBB3013:
	.loc 11 639 0
	lwz 4,12(29)
	mr 3,28
	bl _ZNSt8_Rb_treeIPN7sigslot12_signal_baseINS0_15single_threadedEEES4_St9_IdentityIS4_ESt4lessIS4_ESaIS4_EE8_M_eraseEPSt13_Rb_tree_nodeIS4_E
.LVL368:
.LBE3013:
.LBE3012:
.LBE3011:
.LBE3010:
.LBE3009:
.LBB3014:
.LBB3015:
.LBB3016:
	.loc 1 105 0
	lis 9,_ZTVN7sigslot15single_threadedE+8@ha
	la 0,_ZTVN7sigslot15single_threadedE+8@l(9)
.LBE3016:
.LBE3015:
.LBE3014:
.LBE3032:
	.loc 1 516 0
	lwz 26,8(1)
.LBB3033:
.LBB3019:
.LBB3018:
.LBB3017:
	.loc 1 105 0
	stw 0,0(29)
.LBE3017:
.LBE3018:
.LBE3019:
.LBE3033:
	.loc 1 516 0
	lwz 0,36(1)
	lwz 27,12(1)
	mtlr 0
	lwz 28,16(1)
.LVL369:
	lwz 29,20(1)
.LVL370:
	lwz 30,24(1)
.LVL371:
	lwz 31,28(1)
	addi 1,1,32
	.cfi_remember_state
.LCFI91:
	.cfi_def_cfa_offset 0
	.cfi_restore 31
	.cfi_restore 30
	.cfi_restore 29
	.cfi_restore 28
	.cfi_restore 27
	.cfi_restore 26
	blr
.LVL372:
.L308:
.LCFI92:
	.cfi_restore_state
.LBB3034:
.LBB3020:
.LBB3007:
.LBB3003:
.LBB2999:
.LBB2998:
.LBB2997:
.LBB2996:
.LBB2992:
.LBB2993:
.LBB2994:
.LBB2995:
	.loc 11 809 0
	lwz 4,12(29)
	mr 3,28
	bl _ZNSt8_Rb_treeIPN7sigslot12_signal_baseINS0_15single_threadedEEES4_St9_IdentityIS4_ESt4lessIS4_ESaIS4_EE8_M_eraseEPSt13_Rb_tree_nodeIS4_E
.LVL373:
	.loc 11 811 0
	li 0,0
	.loc 11 810 0
	stw 30,16(29)
.LVL374:
	.loc 11 811 0
	stw 0,12(29)
.LVL375:
	.loc 11 812 0
	stw 30,20(29)
	.loc 11 813 0
	stw 0,24(29)
	b .L309
.LVL376:
.L331:
	mr 31,3
.L316:
.LVL377:
.LBE2995:
.LBE2994:
.LBE2993:
.LBE2992:
.LBE2996:
.LBE2997:
.LBE2998:
.LBE2999:
.LBE3003:
.LBE3007:
.LBE3020:
.LBB3021:
.LBB3022:
.LBB3023:
.LBB3024:
.LBB3025:
.LBB3026:
	.loc 11 639 0
	lwz 4,12(29)
	mr 3,28
	bl _ZNSt8_Rb_treeIPN7sigslot12_signal_baseINS0_15single_threadedEEES4_St9_IdentityIS4_ESt4lessIS4_ESaIS4_EE8_M_eraseEPSt13_Rb_tree_nodeIS4_E
.LVL378:
.LBE3026:
.LBE3025:
.LBE3024:
.LBE3023:
.LBE3022:
.LBE3021:
.LBB3027:
.LBB3028:
.LBB3029:
	.loc 1 105 0
	lis 9,_ZTVN7sigslot15single_threadedE+8@ha
	la 0,_ZTVN7sigslot15single_threadedE+8@l(9)
	mr 3,31
	stw 0,0(29)
.LEHB21:
	bl _Unwind_Resume
.LEHE21:
.LVL379:
.L332:
.LBE3029:
.LBE3028:
.LBE3027:
.LBB3030:
.LBB3008:
.LBB3004:
.LBB3005:
.LBB3006:
	.loc 1 343 0
	lwz 9,0(29)
	mr 31,3
.LVL380:
	mr 3,29
	lwz 0,12(9)
	mtctr 0
	bctrl
	b .L316
.LBE3006:
.LBE3005:
.LBE3004:
.LBE3008:
.LBE3030:
.LBE3034:
	.cfi_endproc
.LFE1663:
	.section	.gcc_except_table
.LLSDA1663:
	.byte	0xff
	.byte	0xff
	.byte	0x1
	.uleb128 .LLSDACSE1663-.LLSDACSB1663
.LLSDACSB1663:
	.uleb128 .LEHB18-.LFB1663
	.uleb128 .LEHE18-.LEHB18
	.uleb128 .L331-.LFB1663
	.uleb128 0
	.uleb128 .LEHB19-.LFB1663
	.uleb128 .LEHE19-.LEHB19
	.uleb128 .L332-.LFB1663
	.uleb128 0
	.uleb128 .LEHB20-.LFB1663
	.uleb128 .LEHE20-.LEHB20
	.uleb128 .L331-.LFB1663
	.uleb128 0
	.uleb128 .LEHB21-.LFB1663
	.uleb128 .LEHE21-.LEHB21
	.uleb128 0
	.uleb128 0
.LLSDACSE1663:
	.section	.text._ZN7sigslot9has_slotsINS_15single_threadedEED2Ev,"axG",@progbits,_ZN7sigslot9has_slotsINS_15single_threadedEED5Ev,comdat
	.size	_ZN7sigslot9has_slotsINS_15single_threadedEED2Ev, .-_ZN7sigslot9has_slotsINS_15single_threadedEED2Ev
	.section	.text._ZN7sigslot9has_slotsINS_15single_threadedEED0Ev,"axG",@progbits,_ZN7sigslot9has_slotsINS_15single_threadedEED5Ev,comdat
	.align 2
	.weak	_ZN7sigslot9has_slotsINS_15single_threadedEED0Ev
	.type	_ZN7sigslot9has_slotsINS_15single_threadedEED0Ev, @function
_ZN7sigslot9has_slotsINS_15single_threadedEED0Ev:
.LFB1665:
	.loc 1 513 0
	.cfi_startproc
	.cfi_personality 0,__gxx_personality_v0
	.cfi_lsda 0,.LLSDA1665
.LVL381:
	mflr 0
	stwu 1,-32(1)
.LCFI93:
	.cfi_def_cfa_offset 32
	.cfi_register 65, 0
.LBB3128:
.LBB3129:
.LBB3130:
	.loc 1 516 0
	lis 9,_ZTVN7sigslot9has_slotsINS_15single_threadedEEE+8@ha
.LBE3130:
.LBE3129:
.LBE3128:
	.loc 1 513 0
	stw 28,16(1)
	addi 28,3,4
	.cfi_offset 28, -16
	stw 0,36(1)
.LBB3214:
.LBB3210:
.LBB3206:
	.loc 1 516 0
	la 0,_ZTVN7sigslot9has_slotsINS_15single_threadedEEE+8@l(9)
	.cfi_offset 65, 4
.LBE3206:
.LBE3210:
.LBE3214:
	.loc 1 513 0
	stw 29,20(1)
	mr 29,3
	.cfi_offset 29, -12
.LVL382:
	stw 26,8(1)
	stw 27,12(1)
	stw 30,24(1)
	stw 31,28(1)
.LBB3215:
.LBB3211:
.LBB3207:
	.loc 1 516 0
	stw 0,0(3)
.LVL383:
.LEHB22:
.LBB3131:
.LBB3132:
.LBB3133:
.LBB3134:
	.loc 1 338 0
	.cfi_offset 31, -4
	.cfi_offset 30, -8
	.cfi_offset 27, -20
	.cfi_offset 26, -24
	bl _ZN7sigslot15single_threaded4lockEv
.LEHE22:
.LVL384:
.LBE3134:
.LBE3133:
.LBB3135:
	.loc 4 473 0
	lwz 31,16(29)
.LVL385:
.LBE3135:
.LBB3136:
.LBB3137:
.LBB3138:
	.loc 11 671 0
	addi 30,28,4
.LVL386:
.LBE3138:
.LBE3137:
.LBE3136:
	.loc 1 524 0
	cmpw 7,31,30
	beq- 7,.L338
.LVL387:
.L366:
	.loc 1 526 0
	lwz 3,16(31)
	mr 4,29
	lwz 9,0(3)
	lwz 0,16(9)
	mtctr 0
.LEHB23:
	bctrl
.LEHE23:
.LVL388:
.LBB3139:
.LBB3140:
	.loc 11 269 0
	mr 3,31
	bl _ZSt18_Rb_tree_incrementPKSt18_Rb_tree_node_base
.LBE3140:
.LBE3139:
	.loc 1 524 0
	cmpw 7,30,3
.LBB3142:
.LBB3141:
	.loc 11 269 0
	mr 31,3
.LVL389:
.LBE3141:
.LBE3142:
	.loc 1 524 0
	bne+ 7,.L366
	lwz 31,16(29)
.LVL390:
.L338:
.LBB3143:
.LBB3144:
.LBB3145:
.LBB3146:
.LBB3147:
.LBB3148:
.LBB3149:
	.loc 11 665 0
	addi 26,28,4
.LBE3149:
.LBE3148:
	.loc 11 1500 0
	cmpw 7,30,26
	beq- 7,.L340
.LVL391:
	.loc 11 1503 0
	cmpw 7,30,31
	bne+ 7,.L368
	b .L341
.LVL392:
.L363:
	.loc 11 277 0
	mr 31,27
.LVL393:
.L368:
.LBB3150:
.LBB3151:
	mr 3,31
	bl _ZSt18_Rb_tree_incrementPKSt18_Rb_tree_node_base
.LBE3151:
.LBE3150:
.LBB3153:
.LBB3154:
.LBB3155:
	.loc 11 1489 0
	mr 4,26
.LBE3155:
.LBE3154:
.LBE3153:
.LBB3164:
.LBB3152:
	.loc 11 277 0
	mr 27,3
.LVL394:
.LBE3152:
.LBE3164:
.LBB3165:
.LBB3162:
.LBB3160:
	.loc 11 1489 0
	mr 3,31
.LVL395:
	bl _ZSt28_Rb_tree_rebalance_for_erasePSt18_Rb_tree_node_baseRS_
.LBB3156:
.LBB3157:
.LBB3158:
.LBB3159:
	.loc 7 98 0
	bl _ZdlPv
.LBE3159:
.LBE3158:
.LBE3157:
.LBE3156:
.LBE3160:
.LBE3162:
.LBE3165:
	.loc 11 1503 0
	cmpw 7,30,27
.LBB3166:
.LBB3163:
.LBB3161:
	.loc 11 1491 0
	lwz 9,20(28)
	addi 0,9,-1
	stw 0,20(28)
.LBE3161:
.LBE3163:
.LBE3166:
	.loc 11 1503 0
	bne+ 7,.L363
.LVL396:
.L341:
.LBE3147:
.LBE3146:
.LBE3145:
.LBE3144:
.LBE3143:
.LBB3175:
.LBB3176:
.LBB3177:
	.loc 1 343 0
	lwz 9,0(29)
	mr 3,29
	lwz 0,12(9)
	mtctr 0
.LEHB24:
	bctrl
.LEHE24:
.LVL397:
.LBE3177:
.LBE3176:
.LBE3175:
.LBE3132:
.LBE3131:
.LBB3184:
.LBB3185:
.LBB3186:
.LBB3187:
.LBB3188:
	.loc 11 639 0
	lwz 4,12(29)
	mr 3,28
	bl _ZNSt8_Rb_treeIPN7sigslot12_signal_baseINS0_15single_threadedEEES4_St9_IdentityIS4_ESt4lessIS4_ESaIS4_EE8_M_eraseEPSt13_Rb_tree_nodeIS4_E
.LVL398:
.LBE3188:
.LBE3187:
.LBE3186:
.LBE3185:
.LBE3184:
.LBB3189:
.LBB3190:
.LBB3191:
	.loc 1 105 0
	lis 9,_ZTVN7sigslot15single_threadedE+8@ha
	la 0,_ZTVN7sigslot15single_threadedE+8@l(9)
.LBE3191:
.LBE3190:
.LBE3189:
.LBE3207:
.LBE3211:
.LBE3215:
	.loc 1 516 0
	mr 3,29
.LBB3216:
.LBB3212:
.LBB3208:
.LBB3194:
.LBB3193:
.LBB3192:
	.loc 1 105 0
	stw 0,0(29)
.LBE3192:
.LBE3193:
.LBE3194:
.LBE3208:
.LBE3212:
.LBE3216:
	.loc 1 516 0
	bl _ZdlPv
	lwz 0,36(1)
	lwz 26,8(1)
	mtlr 0
	lwz 27,12(1)
	lwz 28,16(1)
.LVL399:
	lwz 29,20(1)
.LVL400:
	lwz 30,24(1)
.LVL401:
	lwz 31,28(1)
	addi 1,1,32
	.cfi_remember_state
.LCFI94:
	.cfi_def_cfa_offset 0
	.cfi_restore 31
	.cfi_restore 30
	.cfi_restore 29
	.cfi_restore 28
	.cfi_restore 27
	.cfi_restore 26
	blr
.LVL402:
.L340:
.LCFI95:
	.cfi_restore_state
.LBB3217:
.LBB3213:
.LBB3209:
.LBB3195:
.LBB3182:
.LBB3178:
.LBB3174:
.LBB3173:
.LBB3172:
.LBB3171:
.LBB3167:
.LBB3168:
.LBB3169:
.LBB3170:
	.loc 11 809 0
	lwz 4,12(29)
	mr 3,28
	bl _ZNSt8_Rb_treeIPN7sigslot12_signal_baseINS0_15single_threadedEEES4_St9_IdentityIS4_ESt4lessIS4_ESaIS4_EE8_M_eraseEPSt13_Rb_tree_nodeIS4_E
.LVL403:
	.loc 11 811 0
	li 0,0
	.loc 11 810 0
	stw 30,16(29)
.LVL404:
	.loc 11 811 0
	stw 0,12(29)
.LVL405:
	.loc 11 812 0
	stw 30,20(29)
	.loc 11 813 0
	stw 0,24(29)
	b .L341
.LVL406:
.L364:
	mr 31,3
.L348:
.LVL407:
.LBE3170:
.LBE3169:
.LBE3168:
.LBE3167:
.LBE3171:
.LBE3172:
.LBE3173:
.LBE3174:
.LBE3178:
.LBE3182:
.LBE3195:
.LBB3196:
.LBB3197:
.LBB3198:
.LBB3199:
.LBB3200:
.LBB3201:
	.loc 11 639 0
	lwz 4,12(29)
	mr 3,28
	bl _ZNSt8_Rb_treeIPN7sigslot12_signal_baseINS0_15single_threadedEEES4_St9_IdentityIS4_ESt4lessIS4_ESaIS4_EE8_M_eraseEPSt13_Rb_tree_nodeIS4_E
.LVL408:
.LBE3201:
.LBE3200:
.LBE3199:
.LBE3198:
.LBE3197:
.LBE3196:
.LBB3202:
.LBB3203:
.LBB3204:
	.loc 1 105 0
	lis 9,_ZTVN7sigslot15single_threadedE+8@ha
	la 0,_ZTVN7sigslot15single_threadedE+8@l(9)
	mr 3,31
	stw 0,0(29)
.LEHB25:
	bl _Unwind_Resume
.LEHE25:
.LVL409:
.L365:
.LBE3204:
.LBE3203:
.LBE3202:
.LBB3205:
.LBB3183:
.LBB3179:
.LBB3180:
.LBB3181:
	.loc 1 343 0
	lwz 9,0(29)
	mr 31,3
.LVL410:
	mr 3,29
	lwz 0,12(9)
	mtctr 0
	bctrl
	b .L348
.LBE3181:
.LBE3180:
.LBE3179:
.LBE3183:
.LBE3205:
.LBE3209:
.LBE3213:
.LBE3217:
	.cfi_endproc
.LFE1665:
	.section	.gcc_except_table
.LLSDA1665:
	.byte	0xff
	.byte	0xff
	.byte	0x1
	.uleb128 .LLSDACSE1665-.LLSDACSB1665
.LLSDACSB1665:
	.uleb128 .LEHB22-.LFB1665
	.uleb128 .LEHE22-.LEHB22
	.uleb128 .L364-.LFB1665
	.uleb128 0
	.uleb128 .LEHB23-.LFB1665
	.uleb128 .LEHE23-.LEHB23
	.uleb128 .L365-.LFB1665
	.uleb128 0
	.uleb128 .LEHB24-.LFB1665
	.uleb128 .LEHE24-.LEHB24
	.uleb128 .L364-.LFB1665
	.uleb128 0
	.uleb128 .LEHB25-.LFB1665
	.uleb128 .LEHE25-.LEHB25
	.uleb128 0
	.uleb128 0
.LLSDACSE1665:
	.section	.text._ZN7sigslot9has_slotsINS_15single_threadedEED0Ev,"axG",@progbits,_ZN7sigslot9has_slotsINS_15single_threadedEED5Ev,comdat
	.size	_ZN7sigslot9has_slotsINS_15single_threadedEED0Ev, .-_ZN7sigslot9has_slotsINS_15single_threadedEED0Ev
	.section	".text"
	.align 2
	.globl _ZThn176_N8HomeMenuD1Ev
	.type	_ZThn176_N8HomeMenuD1Ev, @function
_ZThn176_N8HomeMenuD1Ev:
.LFB2215:
	.cfi_startproc
	addi 3,3,-176
	b .LTHUNK0
	.cfi_endproc
.LFE2215:
	.size	_ZThn176_N8HomeMenuD1Ev, .-_ZThn176_N8HomeMenuD1Ev
	.align 2
	.globl _ZN8HomeMenuD2Ev
	.type	_ZN8HomeMenuD2Ev, @function
_ZN8HomeMenuD2Ev:
.LFB1617:
	.loc 4 194 0
	.cfi_startproc
	.cfi_personality 0,__gxx_personality_v0
	.cfi_lsda 0,.LLSDA1617
.LVL411:
	mflr 0
	stwu 1,-24(1)
.LCFI96:
	.cfi_def_cfa_offset 24
	.cfi_register 65, 0
.LBB3320:
	lis 9,_ZTV8HomeMenu+8@ha
	la 9,_ZTV8HomeMenu+8@l(9)
.LBE3320:
	stw 30,16(1)
	stw 0,28(1)
.LBB3417:
	addi 0,9,228
	.cfi_offset 65, 4
	.cfi_offset 30, -8
.LBE3417:
	stw 28,8(1)
	mr 30,3
	stw 29,12(1)
	stw 31,20(1)
.LBB3418:
	.loc 4 194 0
	stw 9,0(3)
	stw 0,176(3)
.LEHB26:
.LBB3321:
	.loc 4 196 0
	.cfi_offset 31, -4
	.cfi_offset 29, -12
	.cfi_offset 28, -16
	bl _ZN8GuiFrame9RemoveAllEv
.LVL412:
	.loc 4 198 0
	lwz 3,1488(30)
	bl _ZN8GuiSound4StopEv
.LBB3322:
.LBB3323:
	.file 12 "d:/Projects/SaveGameManager/savegame-manager-gx/trunk/source/Prompts/../SoundOperations/MusicPlayer.h"
	.loc 12 38 0
	lis 29,_ZN11MusicPlayer8instanceE@ha
	lwz 31,_ZN11MusicPlayer8instanceE@l(29)
	cmpwi 7,31,0
	beq- 7,.L453
.L371:
.LBE3323:
.LBE3322:
	.loc 4 200 0
	lbz 0,217(31)
	cmpwi 7,0,0
	beq- 7,.L454
.L373:
	.loc 4 203 0
	lwz 3,352(30)
	cmpwi 7,3,0
	beq- 7,.L376
	.loc 4 203 0 is_stmt 0 discriminator 1
	lwz 9,0(3)
	lwz 0,4(9)
	mtctr 0
	bctrl
.L376:
	.loc 4 204 0 is_stmt 1
	lwz 3,348(30)
	cmpwi 7,3,0
	beq- 7,.L377
	.loc 4 204 0 is_stmt 0 discriminator 1
	lwz 9,0(3)
	lwz 0,4(9)
	mtctr 0
	bctrl
.L377:
	.loc 4 205 0 is_stmt 1
	lwz 3,340(30)
	cmpwi 7,3,0
	beq- 7,.L378
	.loc 4 205 0 is_stmt 0 discriminator 1
	lwz 9,0(3)
	lwz 0,4(9)
	mtctr 0
	bctrl
.L378:
	.loc 4 206 0 is_stmt 1
	lwz 3,336(30)
	cmpwi 7,3,0
	beq- 7,.L379
	.loc 4 206 0 is_stmt 0 discriminator 1
	lwz 9,0(3)
	lwz 0,4(9)
	mtctr 0
	bctrl
.L379:
	.loc 4 207 0 is_stmt 1
	lwz 3,344(30)
	cmpwi 7,3,0
	beq- 7,.L380
	.loc 4 207 0 is_stmt 0 discriminator 1
	lwz 9,0(3)
	lwz 0,4(9)
	mtctr 0
	bctrl
.L380:
	.loc 4 208 0 is_stmt 1
	lwz 3,356(30)
	cmpwi 7,3,0
	beq- 7,.L381
	.loc 4 208 0 is_stmt 0 discriminator 1
	lwz 9,0(3)
	lwz 0,4(9)
	mtctr 0
	bctrl
.L381:
	.loc 4 209 0 is_stmt 1
	lwz 3,360(30)
	cmpwi 7,3,0
	beq- 7,.L382
	.loc 4 209 0 is_stmt 0 discriminator 1
	lwz 9,0(3)
	lwz 0,4(9)
	mtctr 0
	bctrl
.L382:
	.loc 4 211 0 is_stmt 1
	lwz 3,272(30)
	cmpwi 7,3,0
	beq- 7,.L383
	.loc 4 211 0 is_stmt 0 discriminator 1
	lwz 9,0(3)
	lwz 0,4(9)
	mtctr 0
	bctrl
.L383:
	.loc 4 212 0 is_stmt 1
	lwz 3,280(30)
	cmpwi 7,3,0
	beq- 7,.L384
	.loc 4 212 0 is_stmt 0 discriminator 1
	lwz 9,0(3)
	lwz 0,4(9)
	mtctr 0
	bctrl
.L384:
	.loc 4 213 0 is_stmt 1
	lwz 3,284(30)
	cmpwi 7,3,0
	beq- 7,.L385
	.loc 4 213 0 is_stmt 0 discriminator 1
	lwz 9,0(3)
	lwz 0,4(9)
	mtctr 0
	bctrl
.L385:
	.loc 4 214 0 is_stmt 1
	lwz 3,276(30)
	cmpwi 7,3,0
	beq- 7,.L386
	.loc 4 214 0 is_stmt 0 discriminator 1
	lwz 9,0(3)
	lwz 0,4(9)
	mtctr 0
	bctrl
.L386:
	.loc 4 216 0 is_stmt 1
	lwz 3,224(30)
	bl _ZN9Resources6RemoveEP12GuiImageData
	.loc 4 217 0
	lwz 3,228(30)
	bl _ZN9Resources6RemoveEP12GuiImageData
	.loc 4 218 0
	lwz 3,232(30)
	bl _ZN9Resources6RemoveEP12GuiImageData
	.loc 4 219 0
	lwz 3,236(30)
	bl _ZN9Resources6RemoveEP12GuiImageData
	.loc 4 221 0
	lwz 3,288(30)
	cmpwi 7,3,0
	beq- 7,.L387
	.loc 4 221 0 is_stmt 0 discriminator 1
	lwz 9,0(3)
	lwz 0,4(9)
	mtctr 0
	bctrl
.L387:
	.loc 4 222 0 is_stmt 1
	lwz 3,292(30)
	cmpwi 7,3,0
	beq- 7,.L388
	.loc 4 222 0 is_stmt 0 discriminator 1
	lwz 9,0(3)
	lwz 0,4(9)
	mtctr 0
	bctrl
.L388:
	.loc 4 223 0 is_stmt 1
	lwz 3,296(30)
	cmpwi 7,3,0
	beq- 7,.L389
	.loc 4 223 0 is_stmt 0 discriminator 1
	lwz 9,0(3)
	lwz 0,4(9)
	mtctr 0
	bctrl
.L389:
	.loc 4 224 0 is_stmt 1
	lwz 3,300(30)
	cmpwi 7,3,0
	beq- 7,.L390
	.loc 4 224 0 is_stmt 0 discriminator 1
	lwz 9,0(3)
	lwz 0,4(9)
	mtctr 0
	bctrl
.L390:
	.loc 4 225 0 is_stmt 1
	lwz 3,304(30)
	cmpwi 7,3,0
	beq- 7,.L391
	.loc 4 225 0 is_stmt 0 discriminator 1
	lwz 9,0(3)
	lwz 0,4(9)
	mtctr 0
	bctrl
.L391:
	.loc 4 226 0 is_stmt 1
	lwz 3,324(30)
	cmpwi 7,3,0
	beq- 7,.L392
	.loc 4 226 0 is_stmt 0 discriminator 1
	lwz 9,0(3)
	lwz 0,4(9)
	mtctr 0
	bctrl
.L392:
	.loc 4 227 0 is_stmt 1
	lwz 3,328(30)
	cmpwi 7,3,0
	beq- 7,.L393
	.loc 4 227 0 is_stmt 0 discriminator 1
	lwz 9,0(3)
	lwz 0,4(9)
	mtctr 0
	bctrl
.L393:
	.loc 4 228 0 is_stmt 1
	lwz 3,332(30)
	cmpwi 7,3,0
	beq- 7,.L409
	.loc 4 228 0 is_stmt 0 discriminator 1
	lwz 9,0(3)
	lwz 0,4(9)
	mtctr 0
	bctrl
.L409:
.LVL413:
.LBB3325:
	.loc 4 232 0 is_stmt 1 discriminator 1
	lwz 3,308(30)
	cmpwi 7,3,0
	beq- 7,.L395
	.loc 4 232 0 is_stmt 0
	lwz 9,0(3)
	lwz 0,4(9)
	mtctr 0
	bctrl
.L395:
	.loc 4 233 0 is_stmt 1
	lwz 3,256(30)
	cmpwi 7,3,0
	beq- 7,.L396
	lwz 9,0(3)
	lwz 0,4(9)
	mtctr 0
	bctrl
.L396:
	.loc 4 234 0
	lwz 3,240(30)
	cmpwi 7,3,0
	beq- 7,.L397
	lwz 9,0(3)
	lwz 0,4(9)
	mtctr 0
	bctrl
.L397:
	.loc 4 235 0
	lwz 3,364(30)
	cmpwi 7,3,0
	beq- 7,.L398
	lwz 9,0(3)
	lwz 0,4(9)
	mtctr 0
	bctrl
.L398:
.LVL414:
	.loc 4 232 0
	lwz 3,312(30)
	cmpwi 7,3,0
	beq- 7,.L399
	lwz 9,0(3)
	lwz 0,4(9)
	mtctr 0
	bctrl
.L399:
	.loc 4 233 0
	lwz 3,260(30)
	cmpwi 7,3,0
	beq- 7,.L400
	lwz 9,0(3)
	lwz 0,4(9)
	mtctr 0
	bctrl
.L400:
	.loc 4 234 0
	lwz 3,244(30)
	cmpwi 7,3,0
	beq- 7,.L401
	lwz 9,0(3)
	lwz 0,4(9)
	mtctr 0
	bctrl
.L401:
	.loc 4 235 0
	lwz 3,368(30)
	cmpwi 7,3,0
	beq- 7,.L402
	lwz 9,0(3)
	lwz 0,4(9)
	mtctr 0
	bctrl
.L402:
.LVL415:
	.loc 4 232 0
	lwz 3,316(30)
	cmpwi 7,3,0
	beq- 7,.L403
	lwz 9,0(3)
	lwz 0,4(9)
	mtctr 0
	bctrl
.L403:
	.loc 4 233 0
	lwz 3,264(30)
	cmpwi 7,3,0
	beq- 7,.L404
	lwz 9,0(3)
	lwz 0,4(9)
	mtctr 0
	bctrl
.L404:
	.loc 4 234 0
	lwz 3,248(30)
	cmpwi 7,3,0
	beq- 7,.L405
	lwz 9,0(3)
	lwz 0,4(9)
	mtctr 0
	bctrl
.L405:
	.loc 4 235 0
	lwz 3,372(30)
	cmpwi 7,3,0
	beq- 7,.L406
	lwz 9,0(3)
	lwz 0,4(9)
	mtctr 0
	bctrl
.L406:
.LVL416:
	.loc 4 232 0
	lwz 3,320(30)
	cmpwi 7,3,0
	beq- 7,.L408
	.loc 4 232 0 is_stmt 0 discriminator 1
	lwz 9,0(3)
	lwz 0,4(9)
	mtctr 0
	bctrl
.L408:
	.loc 4 233 0 is_stmt 1
	lwz 3,268(30)
	cmpwi 7,3,0
	beq- 7,.L410
	.loc 4 233 0 is_stmt 0 discriminator 1
	lwz 9,0(3)
	lwz 0,4(9)
	mtctr 0
	bctrl
.L410:
	.loc 4 234 0 is_stmt 1
	lwz 3,252(30)
	cmpwi 7,3,0
	beq- 7,.L411
	.loc 4 234 0 is_stmt 0 discriminator 1
	lwz 9,0(3)
	lwz 0,4(9)
	mtctr 0
	bctrl
.L411:
	.loc 4 235 0 is_stmt 1
	lwz 3,376(30)
	cmpwi 7,3,0
	beq- 7,.L412
	.loc 4 235 0 is_stmt 0 discriminator 1
	lwz 9,0(3)
	lwz 0,4(9)
	mtctr 0
	bctrl
.L412:
.LVL417:
.LBE3325:
	.loc 4 238 0 is_stmt 1
	lwz 3,208(30)
	bl _ZN9Resources6RemoveEP12GuiImageData
	.loc 4 239 0
	lwz 3,212(30)
	bl _ZN9Resources6RemoveEP12GuiImageData
	.loc 4 240 0
	lwz 3,216(30)
	bl _ZN9Resources6RemoveEP12GuiImageData
	.loc 4 241 0
	lwz 3,220(30)
	bl _ZN9Resources6RemoveEP12GuiImageData
	.loc 4 243 0
	lwz 3,1484(30)
	bl _ZN9Resources6RemoveEP8GuiSound
	.loc 4 244 0
	lwz 3,1488(30)
	bl _ZN9Resources6RemoveEP8GuiSound
	.loc 4 245 0
	lwz 3,1492(30)
	bl _ZN9Resources6RemoveEP8GuiSound
	.loc 4 246 0
	lwz 3,1496(30)
	bl _ZN9Resources6RemoveEP8GuiSound
.LEHE26:
.LBE3321:
	.loc 4 194 0
	addi 3,30,1116
.LEHB27:
	bl _ZN10GuiTriggerD1Ev
.LEHE27:
	.loc 4 194 0 is_stmt 0 discriminator 1
	addi 3,30,748
.LEHB28:
	bl _ZN10GuiTriggerD1Ev
.LEHE28:
	.loc 4 194 0 discriminator 2
	addi 3,30,380
.LEHB29:
	bl _ZN10GuiTriggerD1Ev
.LEHE29:
.LBB3327:
.LBB3328:
.LBB3329:
	.loc 1 516 0 is_stmt 1 discriminator 3
	lis 9,_ZTVN7sigslot9has_slotsINS_15single_threadedEEE+8@ha
.LBE3329:
.LBE3328:
.LBE3327:
	.loc 4 194 0 discriminator 3
	addi 28,30,176
.LVL418:
.LBB3413:
.LBB3410:
.LBB3407:
	.loc 1 516 0 discriminator 3
	la 0,_ZTVN7sigslot9has_slotsINS_15single_threadedEEE+8@l(9)
.LBB3330:
.LBB3331:
.LBB3332:
.LBB3333:
	.loc 1 338 0 discriminator 3
	mr 3,28
.LBE3333:
.LBE3332:
.LBE3331:
.LBE3330:
	.loc 1 516 0 discriminator 3
	stw 0,176(30)
.LVL419:
	addi 31,30,180
.LEHB30:
.LBB3385:
.LBB3383:
.LBB3335:
.LBB3334:
	.loc 1 338 0 discriminator 3
	bl _ZN7sigslot15single_threaded4lockEv
.LEHE30:
.LVL420:
.LBE3334:
.LBE3335:
.LBB3336:
	.loc 4 473 0
	lwz 31,192(30)
.LVL421:
.LBE3336:
.LBB3337:
.LBB3338:
.LBB3339:
	.loc 11 671 0
	addi 29,30,184
.LVL422:
.LBE3339:
.LBE3338:
.LBE3337:
	.loc 1 524 0
	cmpw 7,31,29
	beq- 7,.L413
.LVL423:
.L450:
	.loc 1 526 0
	lwz 3,16(31)
	mr 4,28
	lwz 9,0(3)
	lwz 0,16(9)
	mtctr 0
.LEHB31:
	bctrl
.LEHE31:
.LVL424:
.LBB3340:
.LBB3341:
	.loc 11 269 0
	mr 3,31
	bl _ZSt18_Rb_tree_incrementPKSt18_Rb_tree_node_base
.LBE3341:
.LBE3340:
	.loc 1 524 0
	cmpw 7,29,3
.LBB3343:
.LBB3342:
	.loc 11 269 0
	mr 31,3
.LVL425:
.LBE3342:
.LBE3343:
	.loc 1 524 0
	bne+ 7,.L450
.LVL426:
.L413:
.LBB3344:
.LBB3345:
	.file 13 "d:\\devkitpro\\devkitppc\\bin\\../lib/gcc/powerpc-eabi/4.6.3/../../../../powerpc-eabi/include/c++/4.6.3/bits/stl_set.h"
	.loc 13 562 0
	addi 31,30,180
.LVL427:
.LBB3346:
.LBB3347:
.LBB3348:
.LBB3349:
.LBB3350:
.LBB3351:
.LBB3352:
	.loc 11 809 0
	lwz 4,188(30)
	mr 3,31
	bl _ZNSt8_Rb_treeIPN7sigslot12_signal_baseINS0_15single_threadedEEES4_St9_IdentityIS4_ESt4lessIS4_ESaIS4_EE8_M_eraseEPSt13_Rb_tree_nodeIS4_E
.LVL428:
	.loc 11 811 0
	li 0,0
	.loc 11 810 0
	stw 29,192(30)
.LVL429:
.LBE3352:
.LBE3351:
.LBE3350:
.LBE3349:
.LBE3348:
.LBE3347:
.LBE3346:
.LBE3345:
.LBE3344:
.LBB3369:
.LBB3370:
.LBB3371:
	.loc 1 343 0
	mr 3,28
.LBE3371:
.LBE3370:
.LBE3369:
.LBB3376:
.LBB3367:
.LBB3365:
.LBB3363:
.LBB3361:
.LBB3359:
.LBB3357:
.LBB3355:
.LBB3353:
	.loc 11 811 0
	stw 0,188(30)
.LVL430:
	.loc 11 812 0
	stw 29,196(30)
.LBE3353:
.LBE3355:
.LBE3357:
.LBE3359:
.LBE3361:
.LBE3363:
.LBE3365:
.LBE3367:
.LBE3376:
.LBB3377:
.LBB3374:
.LBB3372:
	.loc 1 343 0
	lwz 9,176(30)
.LBE3372:
.LBE3374:
.LBE3377:
.LBB3378:
.LBB3368:
.LBB3366:
.LBB3364:
.LBB3362:
.LBB3360:
.LBB3358:
.LBB3356:
.LBB3354:
	.loc 11 813 0
	stw 0,200(30)
.LVL431:
.LBE3354:
.LBE3356:
.LBE3358:
.LBE3360:
.LBE3362:
.LBE3364:
.LBE3366:
.LBE3368:
.LBE3378:
.LBB3379:
.LBB3375:
.LBB3373:
	.loc 1 343 0
	lwz 0,12(9)
	mtctr 0
.LEHB32:
	bctrl
.LEHE32:
.LVL432:
.LBE3373:
.LBE3375:
.LBE3379:
.LBE3383:
.LBE3385:
.LBB3386:
.LBB3387:
.LBB3388:
.LBB3389:
.LBB3390:
	.loc 11 639 0
	lwz 4,188(30)
	mr 3,31
	bl _ZNSt8_Rb_treeIPN7sigslot12_signal_baseINS0_15single_threadedEEES4_St9_IdentityIS4_ESt4lessIS4_ESaIS4_EE8_M_eraseEPSt13_Rb_tree_nodeIS4_E
.LBE3390:
.LBE3389:
.LBE3388:
.LBE3387:
.LBE3386:
.LBB3391:
.LBB3392:
.LBB3393:
	.loc 1 105 0
	lis 9,_ZTVN7sigslot15single_threadedE+8@ha
	la 0,_ZTVN7sigslot15single_threadedE+8@l(9)
.LBE3393:
.LBE3392:
.LBE3391:
.LBE3407:
.LBE3410:
.LBE3413:
	.loc 4 194 0
	mr 3,30
.LBB3414:
.LBB3411:
.LBB3408:
.LBB3396:
.LBB3395:
.LBB3394:
	.loc 1 105 0
	stw 0,176(30)
.LEHB33:
.LBE3394:
.LBE3395:
.LBE3396:
.LBE3408:
.LBE3411:
.LBE3414:
	.loc 4 194 0
	bl _ZN8GuiFrameD2Ev
.LEHE33:
.LBE3418:
	.loc 4 247 0
	lwz 0,28(1)
	lwz 28,8(1)
.LVL433:
	mtlr 0
	lwz 29,12(1)
.LVL434:
	lwz 30,16(1)
.LVL435:
	lwz 31,20(1)
.LVL436:
	addi 1,1,24
	.cfi_remember_state
.LCFI97:
	.cfi_def_cfa_offset 0
	.cfi_restore 31
	.cfi_restore 30
	.cfi_restore 29
	.cfi_restore 28
	blr
.LVL437:
.L454:
.LCFI98:
	.cfi_restore_state
.LBB3419:
.LBB3415:
	.loc 4 201 0
	mr 3,31
.LEHB34:
	bl _ZN11MusicPlayer6ResumeEv
	b .L373
.L453:
.LBB3326:
.LBB3324:
	.loc 12 38 0
	li 3,636
	bl _Znwj
.LEHE34:
	mr 31,3
.LEHB35:
	bl _ZN11MusicPlayerC1Ev
.LEHE35:
	stw 31,_ZN11MusicPlayer8instanceE@l(29)
	b .L371
.L447:
	mr 29,3
	mr 3,31
	bl _ZdlPv
.L375:
.LBE3324:
.LBE3326:
.LBE3415:
	.loc 4 194 0
	addi 3,30,1116
	bl _ZN10GuiTriggerD1Ev
.L439:
	addi 3,30,748
	bl _ZN10GuiTriggerD1Ev
.L440:
	addi 3,30,380
	bl _ZN10GuiTriggerD1Ev
.L441:
	addi 3,30,176
	bl _ZN7sigslot9has_slotsINS_15single_threadedEED2Ev
.L436:
	mr 3,30
	bl _ZN8GuiFrameD2Ev
	mr 3,29
.LEHB36:
	bl _Unwind_Resume
.LEHE36:
.L443:
	mr 29,3
	b .L375
.LVL438:
.L449:
.LBB3416:
.LBB3412:
.LBB3409:
.LBB3397:
.LBB3384:
.LBB3380:
.LBB3381:
.LBB3382:
	.loc 1 343 0
	lwz 9,176(30)
	mr 29,3
.LVL439:
	mr 3,28
	addi 31,30,180
.LVL440:
	lwz 0,12(9)
	mtctr 0
	bctrl
.LVL441:
.L423:
.LBE3382:
.LBE3381:
.LBE3380:
.LBE3384:
.LBE3397:
.LBB3398:
.LBB3399:
.LBB3400:
.LBB3401:
.LBB3402:
.LBB3403:
	.loc 11 639 0
	lwz 4,188(30)
	mr 3,31
	bl _ZNSt8_Rb_treeIPN7sigslot12_signal_baseINS0_15single_threadedEEES4_St9_IdentityIS4_ESt4lessIS4_ESaIS4_EE8_M_eraseEPSt13_Rb_tree_nodeIS4_E
.LBE3403:
.LBE3402:
.LBE3401:
.LBE3400:
.LBE3399:
.LBE3398:
.LBB3404:
.LBB3405:
.LBB3406:
	.loc 1 105 0
	lis 9,_ZTVN7sigslot15single_threadedE+8@ha
	la 0,_ZTVN7sigslot15single_threadedE+8@l(9)
	stw 0,176(30)
	b .L436
.LVL442:
.L448:
	mr 29,3
	b .L423
.LVL443:
.L446:
	mr 29,3
	b .L441
.L445:
	mr 29,3
	b .L440
.L444:
	mr 29,3
	b .L439
.LBE3406:
.LBE3405:
.LBE3404:
.LBE3409:
.LBE3412:
.LBE3416:
.LBE3419:
	.cfi_endproc
.LFE1617:
	.section	.gcc_except_table
.LLSDA1617:
	.byte	0xff
	.byte	0xff
	.byte	0x1
	.uleb128 .LLSDACSE1617-.LLSDACSB1617
.LLSDACSB1617:
	.uleb128 .LEHB26-.LFB1617
	.uleb128 .LEHE26-.LEHB26
	.uleb128 .L443-.LFB1617
	.uleb128 0
	.uleb128 .LEHB27-.LFB1617
	.uleb128 .LEHE27-.LEHB27
	.uleb128 .L444-.LFB1617
	.uleb128 0
	.uleb128 .LEHB28-.LFB1617
	.uleb128 .LEHE28-.LEHB28
	.uleb128 .L445-.LFB1617
	.uleb128 0
	.uleb128 .LEHB29-.LFB1617
	.uleb128 .LEHE29-.LEHB29
	.uleb128 .L446-.LFB1617
	.uleb128 0
	.uleb128 .LEHB30-.LFB1617
	.uleb128 .LEHE30-.LEHB30
	.uleb128 .L448-.LFB1617
	.uleb128 0
	.uleb128 .LEHB31-.LFB1617
	.uleb128 .LEHE31-.LEHB31
	.uleb128 .L449-.LFB1617
	.uleb128 0
	.uleb128 .LEHB32-.LFB1617
	.uleb128 .LEHE32-.LEHB32
	.uleb128 .L448-.LFB1617
	.uleb128 0
	.uleb128 .LEHB33-.LFB1617
	.uleb128 .LEHE33-.LEHB33
	.uleb128 0
	.uleb128 0
	.uleb128 .LEHB34-.LFB1617
	.uleb128 .LEHE34-.LEHB34
	.uleb128 .L443-.LFB1617
	.uleb128 0
	.uleb128 .LEHB35-.LFB1617
	.uleb128 .LEHE35-.LEHB35
	.uleb128 .L447-.LFB1617
	.uleb128 0
	.uleb128 .LEHB36-.LFB1617
	.uleb128 .LEHE36-.LEHB36
	.uleb128 0
	.uleb128 0
.LLSDACSE1617:
	.section	".text"
	.size	_ZN8HomeMenuD2Ev, .-_ZN8HomeMenuD2Ev
	.align 2
	.globl _ZThn176_N8HomeMenuD0Ev
	.type	_ZThn176_N8HomeMenuD0Ev, @function
_ZThn176_N8HomeMenuD0Ev:
.LFB2216:
	.cfi_startproc
	addi 3,3,-176
	b .LTHUNK1
	.cfi_endproc
.LFE2216:
	.size	_ZThn176_N8HomeMenuD0Ev, .-_ZThn176_N8HomeMenuD0Ev
	.align 2
	.globl _ZN8HomeMenuD0Ev
	.type	_ZN8HomeMenuD0Ev, @function
_ZN8HomeMenuD0Ev:
.LFB1619:
	.loc 4 194 0
	.cfi_startproc
.LVL444:
	stwu 1,-16(1)
.LCFI99:
	.cfi_def_cfa_offset 16
	mflr 0
	stw 31,12(1)
	mr 31,3
	.cfi_offset 31, -4
	.cfi_register 65, 0
	stw 0,20(1)
	.loc 4 247 0
	.cfi_offset 65, 4
	bl _ZN8HomeMenuD1Ev
.LVL445:
	mr 3,31
	bl _ZdlPv
	lwz 0,20(1)
	lwz 31,12(1)
.LVL446:
	mtlr 0
	addi 1,1,16
.LCFI100:
	.cfi_def_cfa_offset 0
	.cfi_restore 31
	blr
	.cfi_endproc
.LFE1619:
	.size	_ZN8HomeMenuD0Ev, .-_ZN8HomeMenuD0Ev
	.section	.text._ZNSt8_Rb_treeIPN7sigslot12_signal_baseINS0_15single_threadedEEES4_St9_IdentityIS4_ESt4lessIS4_ESaIS4_EE16_M_insert_uniqueERKS4_,"axG",@progbits,_ZNSt8_Rb_treeIPN7sigslot12_signal_baseINS0_15single_threadedEEES4_St9_IdentityIS4_ESt4lessIS4_ESaIS4_EE16_M_insert_uniqueERKS4_,comdat
	.align 2
	.weak	_ZNSt8_Rb_treeIPN7sigslot12_signal_baseINS0_15single_threadedEEES4_St9_IdentityIS4_ESt4lessIS4_ESaIS4_EE16_M_insert_uniqueERKS4_
	.type	_ZNSt8_Rb_treeIPN7sigslot12_signal_baseINS0_15single_threadedEEES4_St9_IdentityIS4_ESt4lessIS4_ESaIS4_EE16_M_insert_uniqueERKS4_, @function
_ZNSt8_Rb_treeIPN7sigslot12_signal_baseINS0_15single_threadedEEES4_St9_IdentityIS4_ESt4lessIS4_ESaIS4_EE16_M_insert_uniqueERKS4_:
.LFB1858:
	.loc 11 1264 0
	.cfi_startproc
.LVL447:
	mflr 0
	stwu 1,-32(1)
.LCFI101:
	.cfi_def_cfa_offset 32
	.cfi_register 65, 0
	stw 28,16(1)
	stw 0,36(1)
	stw 27,12(1)
	mr 27,4
	.cfi_offset 27, -20
	.cfi_offset 65, 4
	.cfi_offset 28, -16
.LBB3459:
.LBB3460:
.LBB3461:
	.loc 4 473 0
	lwz 28,8(3)
.LVL448:
.LBE3461:
.LBE3460:
.LBE3459:
	.loc 11 1264 0
	stw 29,20(1)
.LBB3486:
.LBB3478:
.LBB3474:
	.loc 11 1272 0
	addi 29,3,4
	.cfi_offset 29, -12
.LVL449:
.LBE3474:
.LBE3478:
	.loc 11 1274 0
	cmpwi 7,28,0
.LBE3486:
	.loc 11 1264 0
	stw 31,28(1)
	stw 26,8(1)
	mr 31,3
	.cfi_offset 26, -24
	.cfi_offset 31, -4
	stw 30,24(1)
.LBB3487:
	.loc 11 1274 0
	beq- 7,.L472
	.cfi_offset 30, -8
.LVL450:
	lwz 10,0(4)
	b .L461
.LVL451:
.L480:
	.loc 4 473 0 discriminator 1
	lwz 0,8(28)
.LVL452:
	.loc 11 1274 0 discriminator 1
	cmpwi 7,0,0
	beq- 7,.L479
.LVL453:
.L473:
	.loc 11 1274 0 is_stmt 0
	mr 28,0
.LVL454:
.L461:
	.loc 4 473 0 is_stmt 1
	lwz 9,16(28)
	li 11,1
	.loc 11 1278 0
	cmplw 7,9,10
	bgt- 7,.L480
.LVL455:
	.loc 4 473 0 discriminator 2
	lwz 0,12(28)
	li 11,0
.LVL456:
	.loc 11 1274 0 discriminator 2
	cmpwi 7,0,0
	bne+ 7,.L473
.LVL457:
.L479:
	.loc 11 1281 0
	cmpwi 7,11,0
	mr 3,28
.LVL458:
	bne- 7,.L458
.LVL459:
	.loc 11 1289 0
	cmplw 7,10,9
	bgt- 7,.L481
.LVL460:
.L468:
	.loc 11 1292 0
	li 0,0
	li 4,0
	rlwimi 4,0,24,0,7
.LBE3487:
	.loc 11 1293 0
	lwz 0,36(1)
	lwz 26,8(1)
	mtlr 0
	lwz 27,12(1)
.LVL461:
	lwz 28,16(1)
	lwz 29,20(1)
	lwz 30,24(1)
	lwz 31,28(1)
.LVL462:
	addi 1,1,32
	.cfi_remember_state
.LCFI102:
	.cfi_def_cfa_offset 0
	.cfi_restore 31
	.cfi_restore 30
	.cfi_restore 29
	.cfi_restore 28
	.cfi_restore 27
	.cfi_restore 26
	blr
.LVL463:
.L472:
.LCFI103:
	.cfi_restore_state
.LBB3488:
	.loc 11 1272 0
	mr 28,29
.LVL464:
.L458:
	.loc 11 1283 0
	lwz 0,12(31)
	cmpw 7,28,0
	beq- 7,.L482
.LVL465:
.LBB3479:
.LBB3480:
	.loc 11 203 0
	mr 3,28
	bl _ZSt18_Rb_tree_decrementPSt18_Rb_tree_node_base
.LVL466:
	lwz 10,0(27)
	lwz 9,16(3)
.LVL467:
.LBE3480:
.LBE3479:
	.loc 11 1289 0
	cmplw 7,10,9
	ble+ 7,.L468
.LVL468:
.L481:
.LBB3481:
.LBB3475:
	.loc 11 969 0
	cmpw 7,28,29
	li 26,1
	beq- 7,.L469
.LVL469:
	.loc 11 1264 0
	lwz 26,16(28)
	subfc 26,26,10
	subfe 26,26,26
	neg 26,26
	b .L469
.LVL470:
.L482:
.LBE3475:
.LBE3481:
.LBB3482:
.LBB3483:
	.loc 11 969 0
	cmpw 7,28,29
	li 26,1
	beq- 7,.L469
.LVL471:
	.loc 11 1264 0
	lwz 26,0(27)
	lwz 0,16(28)
.LVL472:
	subfc 26,0,26
	subfe 26,26,26
	neg 26,26
.LVL473:
.L469:
.LBE3483:
.LBE3482:
.LBB3484:
.LBB3476:
.LBB3462:
.LBB3463:
.LBB3464:
.LBB3465:
.LBB3466:
	.loc 7 92 0
	li 3,20
	bl _Znwj
.LBE3466:
.LBE3465:
.LBE3464:
.LBB3469:
.LBB3470:
	.loc 7 108 0
	cmpwi 7,3,-16
.LBE3470:
.LBE3469:
.LBB3472:
.LBB3468:
.LBB3467:
	.loc 7 92 0
	mr 30,3
.LVL474:
.LBE3467:
.LBE3468:
.LBE3472:
.LBB3473:
.LBB3471:
	.loc 7 108 0
	beq- 7,.L471
	lwz 0,0(27)
	stw 0,16(3)
.L471:
.LVL475:
.LBE3471:
.LBE3473:
.LBE3463:
.LBE3462:
	.loc 11 973 0
	mr 3,26
.LVL476:
	mr 4,30
	mr 5,28
	mr 6,29
	bl _ZSt29_Rb_tree_insert_and_rebalancebPSt18_Rb_tree_node_baseS0_RS_
	.loc 11 976 0
	lwz 9,20(31)
	.loc 11 1291 0
	li 4,0
	mr 3,30
	.loc 11 976 0
	addi 0,9,1
.LBE3476:
.LBE3484:
.LBE3488:
	.loc 11 1293 0
	lwz 26,8(1)
.LVL477:
.LBB3489:
.LBB3485:
.LBB3477:
	.loc 11 976 0
	stw 0,20(31)
.LVL478:
	.loc 11 1291 0
	li 0,1
	rlwimi 4,0,24,0,7
.LBE3477:
.LBE3485:
.LBE3489:
	.loc 11 1293 0
	lwz 0,36(1)
	lwz 27,12(1)
.LVL479:
	mtlr 0
	lwz 28,16(1)
	lwz 29,20(1)
	lwz 30,24(1)
.LVL480:
	lwz 31,28(1)
.LVL481:
	addi 1,1,32
	.cfi_restore 26
	.cfi_restore 27
	.cfi_restore 28
	.cfi_restore 29
	.cfi_restore 30
	.cfi_restore 31
.LCFI104:
	.cfi_def_cfa_offset 0
	blr
	.cfi_endproc
.LFE1858:
	.size	_ZNSt8_Rb_treeIPN7sigslot12_signal_baseINS0_15single_threadedEEES4_St9_IdentityIS4_ESt4lessIS4_ESaIS4_EE16_M_insert_uniqueERKS4_, .-_ZNSt8_Rb_treeIPN7sigslot12_signal_baseINS0_15single_threadedEEES4_St9_IdentityIS4_ESt4lessIS4_ESaIS4_EE16_M_insert_uniqueERKS4_
	.section	.text._ZN7sigslot7signal3IP10GuiElementiiNS_15single_threadedEE7connectI8HomeMenuEEvPT_MS7_FvS2_iiE,"axG",@progbits,_ZN7sigslot7signal3IP10GuiElementiiNS_15single_threadedEE7connectI8HomeMenuEEvPT_MS7_FvS2_iiE,comdat
	.align 2
	.weak	_ZN7sigslot7signal3IP10GuiElementiiNS_15single_threadedEE7connectI8HomeMenuEEvPT_MS7_FvS2_iiE
	.type	_ZN7sigslot7signal3IP10GuiElementiiNS_15single_threadedEE7connectI8HomeMenuEEvPT_MS7_FvS2_iiE, @function
_ZN7sigslot7signal3IP10GuiElementiiNS_15single_threadedEE7connectI8HomeMenuEEvPT_MS7_FvS2_iiE:
.LFB1667:
	.loc 1 2308 0
	.cfi_startproc
	.cfi_personality 0,__gxx_personality_v0
	.cfi_lsda 0,.LLSDA1667
.LVL482:
	mflr 0
	stwu 1,-48(1)
.LCFI105:
	.cfi_def_cfa_offset 48
	.cfi_register 65, 0
	stw 27,28(1)
	stw 0,52(1)
	stw 30,40(1)
	mr 30,4
	.cfi_offset 30, -8
	.cfi_offset 65, 4
	.cfi_offset 27, -20
.LBB3533:
.LBB3534:
.LBB3535:
	.loc 1 338 0
	lwz 9,0(3)
.LBE3535:
.LBE3534:
.LBE3533:
	.loc 1 2308 0
	stw 31,44(1)
	mr 31,3
	.cfi_offset 31, -4
.LVL483:
.LBB3588:
.LBB3539:
.LBB3536:
	.loc 1 338 0
	lwz 0,8(9)
.LBE3536:
.LBE3539:
.LBE3588:
	.loc 1 2308 0
	stw 28,32(1)
	stw 29,36(1)
.LBB3589:
.LBB3540:
.LBB3537:
	.loc 1 338 0
	mtctr 0
.LBE3537:
.LBE3540:
.LBE3589:
	.loc 1 2308 0
	lwz 27,0(5)
	lwz 28,4(5)
	.cfi_offset 29, -12
	.cfi_offset 28, -16
.LEHB37:
.LBB3590:
.LBB3541:
.LBB3538:
	.loc 1 338 0
	bctrl
.LEHE37:
.LVL484:
.LBE3538:
.LBE3541:
	.loc 1 2314 0
	li 3,16
.LEHB38:
	bl _Znwj
.LBB3542:
.LBB3543:
	.loc 1 1778 0
	lis 9,_ZTVN7sigslot12_connection3I8HomeMenuP10GuiElementiiNS_15single_threadedEEE+8@ha
	.loc 1 1779 0
	stw 30,4(3)
	.loc 1 1778 0
	la 0,_ZTVN7sigslot12_connection3I8HomeMenuP10GuiElementiiNS_15single_threadedEEE+8@l(9)
	.loc 1 1780 0
	stw 27,8(3)
	.loc 1 1778 0
	stw 0,0(3)
.LBE3543:
.LBE3542:
	.loc 1 2314 0
	mr 29,3
.LVL485:
.LBB3545:
.LBB3544:
	.loc 1 1780 0
	stw 28,12(3)
.LVL486:
.LBE3544:
.LBE3545:
.LBB3546:
.LBB3547:
.LBB3548:
.LBB3549:
.LBB3550:
.LBB3551:
.LBB3552:
.LBB3553:
	.loc 7 92 0
	li 3,12
.LVL487:
	bl _Znwj
.LVL488:
.LBE3553:
.LBE3552:
.LBE3551:
.LBB3554:
.LBB3555:
	.loc 7 108 0 discriminator 1
	cmpwi 7,3,-8
	beq- 7,.L485
	.loc 7 108 0 is_stmt 0
	stw 29,8(3)
.LVL489:
.L485:
.LBE3555:
.LBE3554:
.LBE3550:
.LBE3549:
	.file 14 "d:\\devkitpro\\devkitppc\\bin\\../lib/gcc/powerpc-eabi/4.6.3/../../../../powerpc-eabi/include/c++/4.6.3/bits/stl_list.h"
	.loc 14 1516 0 is_stmt 1
	addi 4,31,4
.LBE3548:
.LBE3547:
.LBE3546:
.LBB3560:
.LBB3561:
	.loc 1 503 0
	addi 29,30,176
.LVL490:
.LBE3561:
.LBE3560:
.LBB3577:
.LBB3558:
.LBB3556:
	.loc 14 1516 0
	bl _ZNSt8__detail15_List_node_base7_M_hookEPS0_
.LVL491:
.LBE3556:
.LBE3558:
.LBE3577:
.LBB3578:
.LBB3574:
.LBB3562:
.LBB3563:
	.loc 1 338 0
	lwz 9,176(30)
.LBE3563:
.LBE3562:
.LBE3574:
.LBE3578:
.LBB3579:
.LBB3559:
.LBB3557:
	.loc 14 1516 0
	stw 31,8(1)
.LVL492:
.LBE3557:
.LBE3559:
.LBE3579:
.LBB3580:
.LBB3575:
.LBB3565:
.LBB3564:
	.loc 1 338 0
	mr 3,29
	lwz 0,8(9)
	mtctr 0
	bctrl
.LEHE38:
.LVL493:
.LBE3564:
.LBE3565:
.LBB3566:
.LBB3567:
	.loc 13 410 0
	addi 3,30,180
	addi 4,1,8
.LEHB39:
	bl _ZNSt8_Rb_treeIPN7sigslot12_signal_baseINS0_15single_threadedEEES4_St9_IdentityIS4_ESt4lessIS4_ESaIS4_EE16_M_insert_uniqueERKS4_
.LEHE39:
.LVL494:
.LBE3567:
.LBE3566:
.LBB3568:
.LBB3569:
.LBB3570:
	.loc 1 343 0
	lwz 9,176(30)
	mr 3,29
	lwz 0,12(9)
	mtctr 0
.LEHB40:
	bctrl
.LEHE40:
.LVL495:
.LBE3570:
.LBE3569:
.LBE3568:
.LBE3575:
.LBE3580:
.LBB3581:
.LBB3582:
.LBB3583:
	lwz 9,0(31)
	mr 3,31
	lwz 0,12(9)
	mtctr 0
.LEHB41:
	bctrl
.LEHE41:
.LBE3583:
.LBE3582:
.LBE3581:
.LBE3590:
	.loc 1 2317 0
	lwz 0,52(1)
	lwz 27,28(1)
.LVL496:
	mtlr 0
	lwz 28,32(1)
.LVL497:
	lwz 29,36(1)
.LVL498:
	lwz 30,40(1)
.LVL499:
	lwz 31,44(1)
.LVL500:
	addi 1,1,48
	.cfi_remember_state
.LCFI106:
	.cfi_def_cfa_offset 0
	.cfi_restore 31
	.cfi_restore 30
	.cfi_restore 29
	.cfi_restore 28
	.cfi_restore 27
	blr
.LVL501:
.L492:
.LCFI107:
	.cfi_restore_state
	mr 30,3
.LVL502:
.L489:
.LBB3591:
.LBB3584:
.LBB3585:
.LBB3586:
	.loc 1 343 0
	lwz 9,0(31)
	mr 3,31
	lwz 0,12(9)
	mtctr 0
	bctrl
	mr 3,30
.LEHB42:
	bl _Unwind_Resume
.LEHE42:
.LVL503:
.L493:
.LBE3586:
.LBE3585:
.LBE3584:
.LBB3587:
.LBB3576:
.LBB3571:
.LBB3572:
.LBB3573:
	lwz 9,176(30)
	mr 30,3
.LVL504:
	mr 3,29
	lwz 0,12(9)
	mtctr 0
	bctrl
	b .L489
.LBE3573:
.LBE3572:
.LBE3571:
.LBE3576:
.LBE3587:
.LBE3591:
	.cfi_endproc
.LFE1667:
	.section	.gcc_except_table
.LLSDA1667:
	.byte	0xff
	.byte	0xff
	.byte	0x1
	.uleb128 .LLSDACSE1667-.LLSDACSB1667
.LLSDACSB1667:
	.uleb128 .LEHB37-.LFB1667
	.uleb128 .LEHE37-.LEHB37
	.uleb128 0
	.uleb128 0
	.uleb128 .LEHB38-.LFB1667
	.uleb128 .LEHE38-.LEHB38
	.uleb128 .L492-.LFB1667
	.uleb128 0
	.uleb128 .LEHB39-.LFB1667
	.uleb128 .LEHE39-.LEHB39
	.uleb128 .L493-.LFB1667
	.uleb128 0
	.uleb128 .LEHB40-.LFB1667
	.uleb128 .LEHE40-.LEHB40
	.uleb128 .L492-.LFB1667
	.uleb128 0
	.uleb128 .LEHB41-.LFB1667
	.uleb128 .LEHE41-.LEHB41
	.uleb128 0
	.uleb128 0
	.uleb128 .LEHB42-.LFB1667
	.uleb128 .LEHE42-.LEHB42
	.uleb128 0
	.uleb128 0
.LLSDACSE1667:
	.section	.text._ZN7sigslot7signal3IP10GuiElementiiNS_15single_threadedEE7connectI8HomeMenuEEvPT_MS7_FvS2_iiE,"axG",@progbits,_ZN7sigslot7signal3IP10GuiElementiiNS_15single_threadedEE7connectI8HomeMenuEEvPT_MS7_FvS2_iiE,comdat
	.size	_ZN7sigslot7signal3IP10GuiElementiiNS_15single_threadedEE7connectI8HomeMenuEEvPT_MS7_FvS2_iiE, .-_ZN7sigslot7signal3IP10GuiElementiiNS_15single_threadedEE7connectI8HomeMenuEEvPT_MS7_FvS2_iiE
	.section	.text._ZN7sigslot7signal3IP9GuiButtoniRK6_POINTNS_15single_threadedEE7connectI8HomeMenuEEvPT_MSA_FvS2_iS5_E,"axG",@progbits,_ZN7sigslot7signal3IP9GuiButtoniRK6_POINTNS_15single_threadedEE7connectI8HomeMenuEEvPT_MSA_FvS2_iS5_E,comdat
	.align 2
	.weak	_ZN7sigslot7signal3IP9GuiButtoniRK6_POINTNS_15single_threadedEE7connectI8HomeMenuEEvPT_MSA_FvS2_iS5_E
	.type	_ZN7sigslot7signal3IP9GuiButtoniRK6_POINTNS_15single_threadedEE7connectI8HomeMenuEEvPT_MSA_FvS2_iS5_E, @function
_ZN7sigslot7signal3IP9GuiButtoniRK6_POINTNS_15single_threadedEE7connectI8HomeMenuEEvPT_MSA_FvS2_iS5_E:
.LFB1666:
	.loc 1 2308 0
	.cfi_startproc
	.cfi_personality 0,__gxx_personality_v0
	.cfi_lsda 0,.LLSDA1666
.LVL505:
	mflr 0
	stwu 1,-48(1)
.LCFI108:
	.cfi_def_cfa_offset 48
	.cfi_register 65, 0
	stw 27,28(1)
	stw 0,52(1)
	stw 30,40(1)
	mr 30,4
	.cfi_offset 30, -8
	.cfi_offset 65, 4
	.cfi_offset 27, -20
.LBB3634:
.LBB3635:
.LBB3636:
	.loc 1 338 0
	lwz 9,0(3)
.LBE3636:
.LBE3635:
.LBE3634:
	.loc 1 2308 0
	stw 31,44(1)
	mr 31,3
	.cfi_offset 31, -4
.LVL506:
.LBB3689:
.LBB3640:
.LBB3637:
	.loc 1 338 0
	lwz 0,8(9)
.LBE3637:
.LBE3640:
.LBE3689:
	.loc 1 2308 0
	stw 28,32(1)
	stw 29,36(1)
.LBB3690:
.LBB3641:
.LBB3638:
	.loc 1 338 0
	mtctr 0
.LBE3638:
.LBE3641:
.LBE3690:
	.loc 1 2308 0
	lwz 27,0(5)
	lwz 28,4(5)
	.cfi_offset 29, -12
	.cfi_offset 28, -16
.LEHB43:
.LBB3691:
.LBB3642:
.LBB3639:
	.loc 1 338 0
	bctrl
.LEHE43:
.LVL507:
.LBE3639:
.LBE3642:
	.loc 1 2314 0
	li 3,16
.LEHB44:
	bl _Znwj
.LBB3643:
.LBB3644:
	.loc 1 1778 0
	lis 9,_ZTVN7sigslot12_connection3I8HomeMenuP9GuiButtoniRK6_POINTNS_15single_threadedEEE+8@ha
	.loc 1 1779 0
	stw 30,4(3)
	.loc 1 1778 0
	la 0,_ZTVN7sigslot12_connection3I8HomeMenuP9GuiButtoniRK6_POINTNS_15single_threadedEEE+8@l(9)
	.loc 1 1780 0
	stw 27,8(3)
	.loc 1 1778 0
	stw 0,0(3)
.LBE3644:
.LBE3643:
	.loc 1 2314 0
	mr 29,3
.LVL508:
.LBB3646:
.LBB3645:
	.loc 1 1780 0
	stw 28,12(3)
.LVL509:
.LBE3645:
.LBE3646:
.LBB3647:
.LBB3648:
.LBB3649:
.LBB3650:
.LBB3651:
.LBB3652:
.LBB3653:
.LBB3654:
	.loc 7 92 0
	li 3,12
.LVL510:
	bl _Znwj
.LVL511:
.LBE3654:
.LBE3653:
.LBE3652:
.LBB3655:
.LBB3656:
	.loc 7 108 0 discriminator 1
	cmpwi 7,3,-8
	beq- 7,.L497
	.loc 7 108 0 is_stmt 0
	stw 29,8(3)
.LVL512:
.L497:
.LBE3656:
.LBE3655:
.LBE3651:
.LBE3650:
	.loc 14 1516 0 is_stmt 1
	addi 4,31,4
.LBE3649:
.LBE3648:
.LBE3647:
.LBB3661:
.LBB3662:
	.loc 1 503 0
	addi 29,30,176
.LVL513:
.LBE3662:
.LBE3661:
.LBB3678:
.LBB3659:
.LBB3657:
	.loc 14 1516 0
	bl _ZNSt8__detail15_List_node_base7_M_hookEPS0_
.LVL514:
.LBE3657:
.LBE3659:
.LBE3678:
.LBB3679:
.LBB3675:
.LBB3663:
.LBB3664:
	.loc 1 338 0
	lwz 9,176(30)
.LBE3664:
.LBE3663:
.LBE3675:
.LBE3679:
.LBB3680:
.LBB3660:
.LBB3658:
	.loc 14 1516 0
	stw 31,8(1)
.LVL515:
.LBE3658:
.LBE3660:
.LBE3680:
.LBB3681:
.LBB3676:
.LBB3666:
.LBB3665:
	.loc 1 338 0
	mr 3,29
	lwz 0,8(9)
	mtctr 0
	bctrl
.LEHE44:
.LVL516:
.LBE3665:
.LBE3666:
.LBB3667:
.LBB3668:
	.loc 13 410 0
	addi 3,30,180
	addi 4,1,8
.LEHB45:
	bl _ZNSt8_Rb_treeIPN7sigslot12_signal_baseINS0_15single_threadedEEES4_St9_IdentityIS4_ESt4lessIS4_ESaIS4_EE16_M_insert_uniqueERKS4_
.LEHE45:
.LVL517:
.LBE3668:
.LBE3667:
.LBB3669:
.LBB3670:
.LBB3671:
	.loc 1 343 0
	lwz 9,176(30)
	mr 3,29
	lwz 0,12(9)
	mtctr 0
.LEHB46:
	bctrl
.LEHE46:
.LVL518:
.LBE3671:
.LBE3670:
.LBE3669:
.LBE3676:
.LBE3681:
.LBB3682:
.LBB3683:
.LBB3684:
	lwz 9,0(31)
	mr 3,31
	lwz 0,12(9)
	mtctr 0
.LEHB47:
	bctrl
.LEHE47:
.LBE3684:
.LBE3683:
.LBE3682:
.LBE3691:
	.loc 1 2317 0
	lwz 0,52(1)
	lwz 27,28(1)
.LVL519:
	mtlr 0
	lwz 28,32(1)
.LVL520:
	lwz 29,36(1)
.LVL521:
	lwz 30,40(1)
.LVL522:
	lwz 31,44(1)
.LVL523:
	addi 1,1,48
	.cfi_remember_state
.LCFI109:
	.cfi_def_cfa_offset 0
	.cfi_restore 31
	.cfi_restore 30
	.cfi_restore 29
	.cfi_restore 28
	.cfi_restore 27
	blr
.LVL524:
.L504:
.LCFI110:
	.cfi_restore_state
	mr 30,3
.LVL525:
.L501:
.LBB3692:
.LBB3685:
.LBB3686:
.LBB3687:
	.loc 1 343 0
	lwz 9,0(31)
	mr 3,31
	lwz 0,12(9)
	mtctr 0
	bctrl
	mr 3,30
.LEHB48:
	bl _Unwind_Resume
.LEHE48:
.LVL526:
.L505:
.LBE3687:
.LBE3686:
.LBE3685:
.LBB3688:
.LBB3677:
.LBB3672:
.LBB3673:
.LBB3674:
	lwz 9,176(30)
	mr 30,3
.LVL527:
	mr 3,29
	lwz 0,12(9)
	mtctr 0
	bctrl
	b .L501
.LBE3674:
.LBE3673:
.LBE3672:
.LBE3677:
.LBE3688:
.LBE3692:
	.cfi_endproc
.LFE1666:
	.section	.gcc_except_table
.LLSDA1666:
	.byte	0xff
	.byte	0xff
	.byte	0x1
	.uleb128 .LLSDACSE1666-.LLSDACSB1666
.LLSDACSB1666:
	.uleb128 .LEHB43-.LFB1666
	.uleb128 .LEHE43-.LEHB43
	.uleb128 0
	.uleb128 0
	.uleb128 .LEHB44-.LFB1666
	.uleb128 .LEHE44-.LEHB44
	.uleb128 .L504-.LFB1666
	.uleb128 0
	.uleb128 .LEHB45-.LFB1666
	.uleb128 .LEHE45-.LEHB45
	.uleb128 .L505-.LFB1666
	.uleb128 0
	.uleb128 .LEHB46-.LFB1666
	.uleb128 .LEHE46-.LEHB46
	.uleb128 .L504-.LFB1666
	.uleb128 0
	.uleb128 .LEHB47-.LFB1666
	.uleb128 .LEHE47-.LEHB47
	.uleb128 0
	.uleb128 0
	.uleb128 .LEHB48-.LFB1666
	.uleb128 .LEHE48-.LEHB48
	.uleb128 0
	.uleb128 0
.LLSDACSE1666:
	.section	.text._ZN7sigslot7signal3IP9GuiButtoniRK6_POINTNS_15single_threadedEE7connectI8HomeMenuEEvPT_MSA_FvS2_iS5_E,"axG",@progbits,_ZN7sigslot7signal3IP9GuiButtoniRK6_POINTNS_15single_threadedEE7connectI8HomeMenuEEvPT_MSA_FvS2_iS5_E,comdat
	.size	_ZN7sigslot7signal3IP9GuiButtoniRK6_POINTNS_15single_threadedEE7connectI8HomeMenuEEvPT_MSA_FvS2_iS5_E, .-_ZN7sigslot7signal3IP9GuiButtoniRK6_POINTNS_15single_threadedEE7connectI8HomeMenuEEvPT_MSA_FvS2_iS5_E
	.section	".text"
	.align 2
	.globl _ZN8HomeMenuC2Ev
	.type	_ZN8HomeMenuC2Ev, @function
_ZN8HomeMenuC2Ev:
.LFB1614:
	.loc 4 11 0
	.cfi_startproc
	.cfi_personality 0,__gxx_personality_v0
	.cfi_lsda 0,.LLSDA1614
.LVL528:
	stwu 1,-120(1)
.LCFI111:
	.cfi_def_cfa_offset 120
	mflr 0
.LBB3754:
	.loc 4 12 0
	li 6,0
.LBE3754:
	.loc 4 11 0
	stw 19,68(1)
.LBB3862:
	.loc 4 12 0
	lis 19,screenheight@ha
	.cfi_offset 19, -52
	.cfi_register 65, 0
.LBE3862:
	.loc 4 11 0
	stw 26,96(1)
.LBB3863:
	.loc 4 12 0
	lis 26,screenwidth@ha
	.cfi_offset 26, -24
	lwz 4,screenwidth@l(26)
	lwz 5,screenheight@l(19)
.LBE3863:
	.loc 4 11 0
	stw 0,124(1)
	stw 28,104(1)
	stw 31,116(1)
	mr 31,3
	.cfi_offset 31, -4
	.cfi_offset 28, -16
	.cfi_offset 65, 4
	stw 17,60(1)
.LBB3864:
	.loc 4 12 0
	addi 28,31,380
.LBE3864:
	.loc 4 11 0
	stw 18,64(1)
	stw 20,72(1)
	stw 21,76(1)
	stw 22,80(1)
	stw 23,84(1)
	stw 24,88(1)
	stw 25,92(1)
	stw 27,100(1)
	stw 29,108(1)
	stw 30,112(1)
.LEHB49:
.LBB3865:
	.loc 4 12 0
	.cfi_offset 30, -8
	.cfi_offset 29, -12
	.cfi_offset 27, -20
	.cfi_offset 25, -28
	.cfi_offset 24, -32
	.cfi_offset 23, -36
	.cfi_offset 22, -40
	.cfi_offset 21, -44
	.cfi_offset 20, -48
	.cfi_offset 18, -56
	.cfi_offset 17, -60
	bl _ZN8GuiFrameC2EiiPS_
.LEHE49:
.LVL529:
	lis 9,_ZTV8HomeMenu+8@ha
.LBB3755:
.LBB3756:
.LBB3757:
.LBB3758:
.LBB3759:
.LBB3760:
	.loc 11 445 0
	li 0,0
.LBE3760:
.LBE3759:
.LBE3758:
.LBE3757:
.LBE3756:
.LBE3755:
	.loc 4 12 0
	la 9,_ZTV8HomeMenu+8@l(9)
.LBB3780:
.LBB3777:
.LBB3774:
.LBB3771:
.LBB3768:
.LBB3765:
.LBB3761:
.LBB3762:
	.loc 11 459 0
	addi 11,31,184
.LBE3762:
.LBE3761:
.LBE3765:
.LBE3768:
.LBE3771:
.LBE3774:
.LBE3777:
.LBE3780:
	.loc 4 12 0
	addi 10,9,228
.LBB3781:
.LBB3778:
.LBB3775:
.LBB3772:
.LBB3769:
.LBB3766:
	.loc 11 445 0
	stw 0,184(31)
	stw 0,188(31)
.LBE3766:
.LBE3769:
.LBE3772:
.LBE3775:
.LBE3778:
.LBE3781:
	.loc 4 12 0
	mr 3,28
.LBB3782:
.LBB3779:
.LBB3776:
.LBB3773:
.LBB3770:
.LBB3767:
	.loc 11 445 0
	stw 0,200(31)
.LVL530:
.LBB3764:
.LBB3763:
	.loc 11 459 0
	stw 11,192(31)
	.loc 11 460 0
	stw 11,196(31)
.LBE3763:
.LBE3764:
.LBE3767:
.LBE3770:
.LBE3773:
.LBE3776:
.LBE3779:
.LBE3782:
	.loc 4 12 0
	stw 9,0(31)
	stw 10,176(31)
.LEHB50:
	bl _ZN10GuiTriggerC1Ev
.LEHE50:
	.loc 4 12 0 is_stmt 0 discriminator 2
	addi 17,31,748
	mr 3,17
.LEHB51:
	bl _ZN10GuiTriggerC1Ev
.LEHE51:
	.loc 4 12 0 discriminator 3
	addi 18,31,1116
	mr 3,18
.LEHB52:
	bl _ZN10GuiTriggerC1Ev
.LEHE52:
.LBB3783:
.LBB3784:
.LBB3785:
	.loc 5 27 0 is_stmt 1
	lis 30,_ZN11Application8instanceE@ha
.LBE3785:
.LBE3784:
.LBB3791:
.LBB3792:
	.loc 2 297 0
	li 0,0
.LBE3792:
.LBE3791:
.LBB3794:
.LBB3786:
	.loc 5 27 0
	lwz 27,_ZN11Application8instanceE@l(30)
.LBE3786:
.LBE3794:
	.loc 4 14 0
	li 9,0
	stb 9,204(31)
.LVL531:
.LBB3795:
.LBB3787:
	.loc 5 27 0
	cmpwi 7,27,0
.LBE3787:
.LBE3795:
.LBB3796:
.LBB3793:
	.loc 2 297 0
	stw 0,44(31)
	.loc 2 298 0
	stw 0,48(31)
.LBE3793:
.LBE3796:
.LBB3797:
.LBB3788:
	.loc 5 27 0
	beq- 7,.L594
.L508:
.LBE3788:
.LBE3797:
.LBB3798:
.LBB3799:
.LBB3800:
	.loc 4 473 0
	lwz 9,604(27)
.LBB3801:
	.loc 5 69 0
	li 30,0
.LBE3801:
	.loc 4 473 0
	lwz 11,608(27)
.LBE3800:
.LBE3799:
.LBE3798:
	.loc 4 18 0
	stw 31,12(1)
.LVL532:
.LBB3842:
.LBB3839:
.LBB3831:
.LBB3829:
.LBB3802:
.LBB3803:
	.loc 9 571 0
	subf 0,9,11
.LBE3803:
.LBE3802:
	.loc 5 69 0
	srwi. 10,0,2
	mr 0,9
	bne+ 0,.L585
	b .L510
.LVL533:
.L513:
.LBB3807:
.LBB3804:
	.loc 9 571 0
	subf 9,0,11
.LBE3804:
.LBE3807:
	.loc 5 69 0
	addi 30,30,1
.LVL534:
.LBB3808:
.LBB3805:
	.loc 9 571 0
	srawi 9,9,2
.LBE3805:
.LBE3808:
	.loc 5 69 0
	cmplw 7,30,9
	bge- 7,.L510
.LVL535:
.L554:
	.loc 4 473 0
	mr 9,0
.LVL536:
.L585:
.LBE3829:
.LBE3831:
.LBE3839:
.LBE3842:
.LBB3843:
.LBB3789:
	.loc 4 11 0
	slwi 29,30,2
.LBE3789:
.LBE3843:
.LBB3844:
.LBB3840:
.LBB3832:
.LBB3830:
	.loc 5 70 0
	lwzx 9,9,29
	cmpw 7,31,9
	bne+ 7,.L513
	.loc 5 71 0
	lwz 3,628(27)
.LEHB53:
	bl LWP_MutexLock
.LBB3809:
.LBB3810:
	.loc 10 773 0
	lwz 3,604(27)
.LBE3810:
.LBE3809:
.LBB3812:
.LBB3813:
.LBB3814:
	.loc 4 473 0
	lwz 9,608(27)
.LBE3814:
.LBE3813:
.LBE3812:
.LBB3825:
.LBB3811:
	.loc 10 773 0
	add 3,3,29
.LVL537:
.LBE3811:
.LBE3825:
.LBB3826:
.LBB3823:
.LBB3815:
.LBB3816:
	addi 4,3,4
.LBE3816:
.LBE3815:
	.loc 6 138 0
	cmpw 7,4,9
	beq- 7,.L514
.LVL538:
.LBB3817:
.LBB3818:
.LBB3819:
.LBB3820:
.LBB3821:
.LBB3822:
	.loc 8 364 0
	subf 5,4,9
.LVL539:
	.loc 8 365 0
	srawi. 5,5,2
.LVL540:
	beq+ 0,.L514
	.loc 8 366 0
	slwi 5,5,2
.LVL541:
	bl memmove
.LVL542:
	lwz 9,608(27)
.LVL543:
.L514:
.LBE3822:
.LBE3821:
.LBE3820:
.LBE3819:
.LBE3818:
.LBE3817:
	.loc 6 140 0
	addi 9,9,-4
.LBE3823:
.LBE3826:
	.loc 5 73 0
	lwz 3,628(27)
.LBB3827:
.LBB3824:
	.loc 6 140 0
	stw 9,608(27)
.LBE3824:
.LBE3827:
	.loc 5 73 0
	bl LWP_MutexUnlock
	lwz 0,604(27)
	.loc 5 69 0
	addi 30,30,1
.LVL544:
	.loc 5 73 0
	lwz 11,608(27)
.LBB3828:
.LBB3806:
	.loc 9 571 0
	subf 9,0,11
	srawi 9,9,2
.LBE3806:
.LBE3828:
	.loc 5 69 0
	cmplw 7,30,9
	blt+ 7,.L554
.LVL545:
.L510:
.LBE3830:
.LBE3832:
	.loc 5 62 0
	lwz 3,628(27)
	bl LWP_MutexLock
.LVL546:
.LBB3833:
.LBB3834:
	.loc 9 828 0
	lwz 9,608(27)
	lwz 0,612(27)
	cmpw 7,9,0
	beq- 7,.L515
.LVL547:
.LBB3835:
.LBB3836:
	.loc 7 108 0
	cmpwi 7,9,0
	li 11,0
	beq- 7,.L516
	lwz 0,12(1)
	stw 0,0(9)
	lwz 11,608(27)
.L516:
.LBE3836:
.LBE3835:
	.loc 9 831 0
	addi 11,11,4
	stw 11,608(27)
.LVL548:
.L517:
.LBE3834:
.LBE3833:
	.loc 5 64 0
	lwz 3,628(27)
	bl LWP_MutexUnlock
.LBE3840:
.LBE3844:
	.loc 4 19 0
	mr 3,31
	li 4,1
	bl _ZN8GuiFrame13DimBackgroundEb
	.loc 4 21 0
	lis 30,Settings@ha
	mr 3,28
	la 30,Settings@l(30)
	li 4,-1
	lhz 5,2644(30)
	lhz 0,2616(30)
	slwi 5,5,16
	lhz 6,2672(30)
	or 5,5,0
	bl _ZN10GuiTrigger16SetSimpleTriggerEijt
	.loc 4 22 0
	lhz 5,2646(30)
	mr 3,17
	lhz 0,2618(30)
	li 4,-1
	slwi 5,5,16
	lhz 6,2674(30)
	or 5,5,0
	bl _ZN10GuiTrigger20SetButtonOnlyTriggerEijt
	.loc 4 23 0
	lhz 5,2660(30)
	mr 3,18
	lhz 0,2632(30)
	li 4,-1
	slwi 5,5,16
	lhz 6,2688(30)
	or 5,5,0
	bl _ZN10GuiTrigger20SetButtonOnlyTriggerEijt
	.loc 4 25 0
	lis 3,.LC18@ha
	la 3,.LC18@l(3)
	bl _ZN9Resources8GetSoundEPKc
	stw 3,1484(31)
	.loc 4 26 0
	lis 3,.LC19@ha
	la 3,.LC19@l(3)
	bl _ZN9Resources8GetSoundEPKc
	.loc 4 26 0 is_stmt 0 discriminator 1
	stw 3,1488(31)
	.loc 4 27 0 is_stmt 1 discriminator 1
	lis 3,.LC20@ha
	la 3,.LC20@l(3)
	bl _ZN9Resources8GetSoundEPKc
	stw 3,1492(31)
	.loc 4 28 0 discriminator 1
	lis 3,.LC21@ha
	la 3,.LC21@l(3)
	bl _ZN9Resources8GetSoundEPKc
	stw 3,1496(31)
	.loc 4 29 0 discriminator 1
	lwz 4,1248(30)
	lwz 3,1484(31)
	bl _ZN8GuiSound9SetVolumeEi
	.loc 4 30 0
	lwz 3,1488(31)
	lwz 4,1248(30)
	bl _ZN8GuiSound9SetVolumeEi
	.loc 4 31 0
	lwz 3,1492(31)
	lwz 4,1248(30)
	bl _ZN8GuiSound9SetVolumeEi
	.loc 4 32 0
	lwz 3,1496(31)
	lwz 4,1248(30)
	bl _ZN8GuiSound9SetVolumeEi
	.loc 4 34 0
	lis 3,.LC22@ha
	la 3,.LC22@l(3)
	bl gettext
	mr 23,3
	lis 3,.LC23@ha
	la 3,.LC23@l(3)
	bl getThemeInt
	.loc 4 34 0 is_stmt 0 discriminator 1
	lis 25,.LC24@ha
	mr 22,3
	la 25,.LC24@l(25)
	mr 3,25
	bl getThemeColor
	.loc 4 34 0 discriminator 2
	mr 24,3
	li 3,208
	bl _Znwj
.LEHE53:
	.loc 4 34 0 discriminator 3
	mr 29,1
	mr 4,23
	stwu 24,44(29)
	mr 5,22
	mr 27,3
.LVL549:
	mr 6,29
.LEHB54:
	bl _ZN7GuiTextC1EPKci9_gx_color
.LEHE54:
	.loc 4 34 0 discriminator 1
	stw 27,288(31)
	.loc 4 35 0 is_stmt 1 discriminator 1
	mr 3,27
	lwz 9,0(27)
	li 4,17
	lwz 0,180(9)
	mtctr 0
.LEHB55:
	bctrl
	.loc 4 36 0
	lwz 3,288(31)
	li 4,30
	li 5,40
	lwz 9,0(3)
	lwz 0,168(9)
	mtctr 0
	bctrl
	.loc 4 38 0
	li 3,320
	bl _Znwj
.LEHE55:
	lis 4,.LC25@ha
	lis 5,.LC26@ha
	lwz 6,1492(31)
	la 4,.LC25@l(4)
	lwz 7,1496(31)
	la 5,.LC26@l(5)
	mr 27,3
.LEHB56:
	bl _ZN13PictureButtonC1EPKcS1_P8GuiSoundS3_
.LEHE56:
	.loc 4 38 0 is_stmt 0 discriminator 1
	stw 27,336(31)
	.loc 4 39 0 is_stmt 1 discriminator 1
	mr 3,27
	lwz 9,0(27)
	li 4,17
	lwz 0,180(9)
	mtctr 0
.LEHB57:
	bctrl
	.loc 4 40 0
	lwz 3,336(31)
	li 5,0
	lwz 4,288(31)
	bl _ZN9GuiButton8SetLabelEP7GuiTexti
	.loc 4 41 0
	lwz 3,336(31)
	mr 4,28
	bl _ZN9GuiButton10SetTriggerEP10GuiTrigger
	.loc 4 42 0
	lwz 3,336(31)
	mr 4,17
	bl _ZN9GuiButton10SetTriggerEP10GuiTrigger
	.loc 4 43 0
	lwz 3,336(31)
	mr 4,18
	bl _ZN9GuiButton10SetTriggerEP10GuiTrigger
	.loc 4 44 0
	lwz 3,336(31)
	lwz 9,0(3)
	lwz 0,148(9)
	mtctr 0
	bctrl
	.loc 4 45 0
	lwz 3,336(31)
	li 4,17
	li 5,50
	li 6,0
	lwz 9,0(3)
	lwz 0,136(9)
	mtctr 0
	bctrl
	.loc 4 46 0
	lwz 3,336(31)
	lis 27,_ZN8HomeMenu13OnButtonClickEP9GuiButtoniRK6_POINT@ha
	la 27,_ZN8HomeMenu13OnButtonClickEP9GuiButtoniRK6_POINT@l(27)
	li 0,0
	addi 3,3,144
	mr 4,31
	addi 5,1,48
	stw 27,48(1)
	stw 0,52(1)
	bl _ZN7sigslot7signal3IP9GuiButtoniRK6_POINTNS_15single_threadedEE7connectI8HomeMenuEEvPT_MSA_FvS2_iS5_E
	.loc 4 48 0
	lis 3,.LC8@ha
	la 3,.LC8@l(3)
	bl gettext
	mr 23,3
	lis 3,.LC27@ha
	la 3,.LC27@l(3)
	bl getThemeInt
	.loc 4 48 0 is_stmt 0 discriminator 1
	mr 22,3
	mr 3,25
	bl getThemeColor
	.loc 4 48 0 discriminator 2
	mr 24,3
	li 3,208
	bl _Znwj
.LEHE57:
	.loc 4 48 0 discriminator 3
	mr 4,23
	mr 5,22
	mr 6,29
	mr 25,3
	stw 24,44(1)
.LEHB58:
	bl _ZN7GuiTextC1EPKci9_gx_color
.LEHE58:
	.loc 4 48 0 discriminator 1
	stw 25,292(31)
	.loc 4 49 0 is_stmt 1 discriminator 1
	mr 3,25
	lwz 9,0(25)
	li 4,18
	lwz 0,180(9)
	mtctr 0
.LEHB59:
	bctrl
	.loc 4 50 0
	lwz 3,292(31)
	li 4,20
	li 5,50
	lwz 9,0(3)
	lwz 0,168(9)
	mtctr 0
	bctrl
	.loc 4 52 0
	li 3,320
	bl _Znwj
.LEHE59:
	lis 4,.LC28@ha
	lis 5,.LC29@ha
	lwz 6,1492(31)
	la 4,.LC28@l(4)
	lwz 7,1496(31)
	la 5,.LC29@l(5)
	mr 25,3
.LEHB60:
	bl _ZN13PictureButtonC1EPKcS1_P8GuiSoundS3_
.LEHE60:
	.loc 4 52 0 is_stmt 0 discriminator 1
	stw 25,344(31)
	.loc 4 53 0 is_stmt 1 discriminator 1
	mr 3,25
	lwz 9,0(25)
	li 4,65
	lwz 0,180(9)
	mtctr 0
.LEHB61:
	bctrl
	.loc 4 54 0
	lwz 3,344(31)
	li 5,0
	lwz 4,292(31)
	bl _ZN9GuiButton8SetLabelEP7GuiTexti
	.loc 4 55 0
	lwz 3,344(31)
	mr 4,28
	bl _ZN9GuiButton10SetTriggerEP10GuiTrigger
	.loc 4 56 0
	lwz 3,344(31)
	lwz 9,0(3)
	lwz 0,148(9)
	mtctr 0
	bctrl
	.loc 4 57 0
	lwz 3,344(31)
	li 4,18
	li 5,50
	li 6,0
	lwz 9,0(3)
	lwz 0,136(9)
	mtctr 0
	bctrl
	.loc 4 58 0
	lwz 3,344(31)
	li 0,0
	mr 4,31
	addi 5,1,48
	addi 3,3,144
	stw 27,48(1)
	stw 0,52(1)
	bl _ZN7sigslot7signal3IP9GuiButtoniRK6_POINTNS_15single_threadedEE7connectI8HomeMenuEEvPT_MSA_FvS2_iS5_E
	.loc 4 59 0
	lwz 3,344(31)
	lis 9,_ZN8HomeMenu13OnStateChangeEP10GuiElementii@ha
	la 0,_ZN8HomeMenu13OnStateChangeEP10GuiElementii@l(9)
	mr 4,31
	stw 0,48(1)
	addi 3,3,16
	li 0,0
	addi 5,1,48
	stw 0,52(1)
	bl _ZN7sigslot7signal3IP10GuiElementiiNS_15single_threadedEE7connectI8HomeMenuEEvPT_MS7_FvS2_iiE
	.loc 4 61 0
	lis 3,.LC30@ha
	la 3,.LC30@l(3)
	bl gettext
	mr 24,3
	lis 3,.LC31@ha
	la 3,.LC31@l(3)
	bl getThemeInt
	.loc 4 61 0 is_stmt 0 discriminator 1
	mr 23,3
	lis 3,.LC32@ha
	la 3,.LC32@l(3)
	bl getThemeColor
	.loc 4 61 0 discriminator 2
	mr 22,3
	li 3,208
	bl _Znwj
.LEHE61:
	.loc 4 61 0 discriminator 3
	mr 4,24
	mr 5,23
	mr 6,29
	mr 25,3
	stw 22,44(1)
.LEHB62:
	bl _ZN7GuiTextC1EPKci9_gx_color
.LEHE62:
	.loc 4 61 0 discriminator 1
	stw 25,296(31)
	.loc 4 63 0 is_stmt 1 discriminator 1
	li 3,320
.LEHB63:
	bl _Znwj
.LEHE63:
	lis 4,.LC33@ha
	li 5,0
	la 4,.LC33@l(4)
	li 6,0
	li 7,0
	mr 25,3
.LEHB64:
	bl _ZN13PictureButtonC1EPKcS1_P8GuiSoundS3_
.LEHE64:
	stw 25,340(31)
	.loc 4 64 0 discriminator 1
	mr 3,25
	lwz 9,0(25)
	li 4,20
	lwz 0,180(9)
	mtctr 0
.LEHB65:
	bctrl
	.loc 4 65 0
	lwz 3,340(31)
	li 4,-20
	li 5,30
	lwz 9,0(3)
	lwz 0,168(9)
	mtctr 0
	bctrl
	.loc 4 66 0
	lwz 3,340(31)
	li 5,0
	lwz 4,296(31)
	bl _ZN9GuiButton8SetLabelEP7GuiTexti
	.loc 4 67 0
	lwz 3,340(31)
	li 4,17
	li 5,50
	li 6,0
	lwz 9,0(3)
	lwz 0,136(9)
	mtctr 0
	bctrl
	.loc 4 69 0
	lis 3,.LC11@ha
	la 3,.LC11@l(3)
	bl gettext
	lis 23,.LC34@ha
	mr 25,3
	la 23,.LC34@l(23)
	mr 3,23
	bl getThemeInt
	.loc 4 69 0 is_stmt 0 discriminator 1
	lis 22,.LC35@ha
	mr 21,3
	la 22,.LC35@l(22)
	mr 3,22
	bl getThemeColor
	.loc 4 69 0 discriminator 2
	mr 20,3
	li 3,208
	bl _Znwj
.LEHE65:
	.loc 4 69 0 discriminator 3
	mr 4,25
	mr 5,21
	mr 6,29
	mr 24,3
	stw 20,44(1)
.LEHB66:
	bl _ZN7GuiTextC1EPKci9_gx_color
.LEHE66:
	.loc 4 70 0 is_stmt 1 discriminator 1
	lha 0,140(30)
	.loc 4 69 0 discriminator 1
	stw 24,300(31)
	.loc 4 70 0 discriminator 1
	cmpwi 7,0,0
	beq- 7,.L595
	.loc 4 72 0
	cmpwi 7,0,1
	beq- 7,.L596
.L519:
	.loc 4 75 0
	li 3,320
.LEHB67:
	bl _Znwj
.LEHE67:
	lis 24,.LC37@ha
	lwz 6,1492(31)
	la 24,.LC37@l(24)
	lwz 7,1496(31)
	mr 4,24
	li 5,0
	mr 25,3
.LEHB68:
	bl _ZN13PictureButtonC1EPKcS1_P8GuiSoundS3_
.LEHE68:
	.loc 4 75 0 is_stmt 0 discriminator 1
	stw 25,348(31)
	.loc 4 76 0 is_stmt 1 discriminator 1
	mr 3,25
	lwz 9,0(25)
	li 4,34
	lwz 0,180(9)
	mtctr 0
.LEHB69:
	bctrl
	.loc 4 77 0
	lwz 3,348(31)
	li 4,-140
	li 5,0
	lwz 9,0(3)
	lwz 0,168(9)
	mtctr 0
	bctrl
	.loc 4 78 0
	lwz 3,348(31)
	li 5,0
	lwz 4,300(31)
	bl _ZN9GuiButton8SetLabelEP7GuiTexti
	.loc 4 79 0
	lwz 3,348(31)
	mr 4,28
	bl _ZN9GuiButton10SetTriggerEP10GuiTrigger
	.loc 4 80 0
	lwz 3,348(31)
	lwz 9,0(3)
	lwz 0,144(9)
	mtctr 0
	bctrl
	.loc 4 81 0
	lwz 3,348(31)
	li 4,128
	li 5,50
	li 6,0
	lwz 9,0(3)
	lwz 0,136(9)
	mtctr 0
	bctrl
	.loc 4 82 0
	lwz 3,348(31)
	li 0,0
	mr 4,31
	addi 5,1,48
	addi 3,3,144
	stw 27,48(1)
	stw 0,52(1)
	bl _ZN7sigslot7signal3IP9GuiButtoniRK6_POINTNS_15single_threadedEE7connectI8HomeMenuEEvPT_MSA_FvS2_iS5_E
	.loc 4 84 0
	lis 3,.LC12@ha
	la 3,.LC12@l(3)
	bl gettext
	mr 20,3
	mr 3,23
	bl getThemeInt
	.loc 4 84 0 is_stmt 0 discriminator 1
	mr 21,3
	mr 3,22
	bl getThemeColor
	.loc 4 84 0 discriminator 2
	mr 23,3
	li 3,208
	bl _Znwj
.LEHE69:
	.loc 4 84 0 discriminator 3
	mr 4,20
	mr 5,21
	mr 6,29
	mr 25,3
	stw 23,44(1)
.LEHB70:
	bl _ZN7GuiTextC1EPKci9_gx_color
.LEHE70:
	.loc 4 85 0 is_stmt 1 discriminator 1
	lha 0,140(30)
	.loc 4 84 0 discriminator 1
	stw 25,304(31)
	.loc 4 85 0 discriminator 1
	cmpwi 7,0,0
	beq- 7,.L597
	.loc 4 87 0
	cmpwi 7,0,1
	beq- 7,.L598
.L521:
	.loc 4 90 0
	li 3,320
.LEHB71:
	bl _Znwj
.LEHE71:
	lwz 6,1492(31)
	mr 4,24
	lwz 7,1496(31)
	li 5,0
	mr 30,3
.LEHB72:
	bl _ZN13PictureButtonC1EPKcS1_P8GuiSoundS3_
.LEHE72:
	.loc 4 90 0 is_stmt 0 discriminator 1
	stw 30,352(31)
	.loc 4 91 0 is_stmt 1 discriminator 1
	mr 3,30
	lwz 9,0(30)
	li 4,34
	lwz 0,180(9)
	mtctr 0
.LEHB73:
	bctrl
	.loc 4 92 0
	lwz 3,352(31)
	li 4,140
	li 5,0
	lwz 9,0(3)
	lwz 0,168(9)
	mtctr 0
	bctrl
	.loc 4 93 0
	lwz 3,352(31)
	li 5,0
	lwz 4,304(31)
	bl _ZN9GuiButton8SetLabelEP7GuiTexti
	.loc 4 94 0
	lwz 3,352(31)
	mr 4,28
	bl _ZN9GuiButton10SetTriggerEP10GuiTrigger
	.loc 4 95 0
	lwz 3,352(31)
	lwz 9,0(3)
	lwz 0,144(9)
	mtctr 0
	bctrl
	.loc 4 96 0
	lwz 3,352(31)
	li 4,128
	li 5,50
	li 6,0
	lwz 9,0(3)
	lwz 0,136(9)
	mtctr 0
	bctrl
	.loc 4 97 0
	lwz 3,352(31)
	li 0,0
	mr 4,31
	addi 5,1,48
	addi 3,3,144
	stw 27,48(1)
	stw 0,52(1)
	bl _ZN7sigslot7signal3IP9GuiButtoniRK6_POINTNS_15single_threadedEE7connectI8HomeMenuEEvPT_MSA_FvS2_iS5_E
	.loc 4 99 0
	lis 3,.LC39@ha
	la 3,.LC39@l(3)
	bl _ZN9Resources12GetImageDataEPKc
	stw 3,224(31)
	.loc 4 100 0
	li 3,196
	bl _Znwj
.LEHE73:
	.loc 4 100 0 is_stmt 0 discriminator 1
	lwz 4,224(31)
	mr 30,3
.LEHB74:
	bl _ZN8GuiImageC1EP12GuiImageData
.LEHE74:
	stw 30,272(31)
	.loc 4 101 0 is_stmt 1 discriminator 1
	mr 3,30
	lwz 9,0(30)
	li 4,65
	lwz 0,180(9)
	mtctr 0
.LEHB75:
	bctrl
	.loc 4 102 0
	lwz 3,272(31)
	li 4,45
	li 5,232
	lwz 9,0(3)
	lwz 0,168(9)
	mtctr 0
	bctrl
	.loc 4 103 0
	lwz 3,272(31)
	li 4,18
	li 5,50
	li 6,0
	lwz 9,0(3)
	lwz 0,136(9)
	mtctr 0
	bctrl
	.loc 4 105 0
	lis 3,.LC40@ha
	la 3,.LC40@l(3)
	bl _ZN9Resources12GetImageDataEPKc
	stw 3,228(31)
	.loc 4 106 0
	li 3,196
	bl _Znwj
.LEHE75:
	.loc 4 106 0 is_stmt 0 discriminator 1
	lwz 4,228(31)
	mr 30,3
.LEHB76:
	bl _ZN8GuiImageC1EP12GuiImageData
.LEHE76:
	stw 30,276(31)
	.loc 4 107 0 is_stmt 1 discriminator 1
	mr 3,30
	lwz 9,0(30)
	li 4,20
	lwz 0,180(9)
	mtctr 0
.LEHB77:
	bctrl
	.loc 4 108 0
	lwz 3,276(31)
	li 5,48
	lwz 4,screenwidth@l(26)
	lwz 9,0(3)
	subfic 4,4,133
	lwz 0,168(9)
	mtctr 0
	bctrl
	.loc 4 109 0
	lwz 3,276(31)
	addi 4,1,16
	lwz 11,screenwidth@l(26)
	lwz 10,0(3)
	lwz 9,screenheight@l(19)
.LVL550:
	lwz 0,160(10)
.LBB3845:
.LBB3846:
	.file 15 "d:/Projects/SaveGameManager/savegame-manager-gx/trunk/source/Prompts/../SoundOperations/../GUI/../Tools/Rect.h"
	.loc 15 17 0
	li 10,133
	stw 10,16(1)
	li 10,0
	stw 10,20(1)
.LBE3846:
.LBE3845:
	.loc 4 109 0
	mtctr 0
.LBB3848:
.LBB3847:
	.loc 15 17 0
	stw 11,24(1)
	stw 9,28(1)
.LBE3847:
.LBE3848:
	.loc 4 109 0
	bctrl
.LVL551:
	.loc 4 111 0 discriminator 1
	lis 3,.LC41@ha
	la 3,.LC41@l(3)
	bl _ZN9Resources12GetImageDataEPKc
	stw 3,232(31)
	.loc 4 112 0 discriminator 1
	lis 3,.LC42@ha
	la 3,.LC42@l(3)
	bl _ZN9Resources12GetImageDataEPKc
	stw 3,236(31)
	.loc 4 113 0 discriminator 1
	li 3,196
	bl _Znwj
.LEHE77:
	lwz 4,232(31)
	mr 30,3
.LEHB78:
	bl _ZN8GuiImageC1EP12GuiImageData
.LEHE78:
	stw 30,280(31)
	.loc 4 114 0 discriminator 1
	li 3,196
.LEHB79:
	bl _Znwj
.LEHE79:
	lwz 4,236(31)
	mr 30,3
.LEHB80:
	bl _ZN8GuiImageC1EP12GuiImageData
.LEHE80:
	.loc 4 116 0 discriminator 1
	lis 3,.LC43@ha
	.loc 4 114 0 discriminator 1
	stw 30,284(31)
	.loc 4 116 0 discriminator 1
	la 3,.LC43@l(3)
.LEHB81:
	bl gettext
	mr 25,3
	lis 3,.LC44@ha
	la 3,.LC44@l(3)
	bl getThemeInt
	mr 26,3
	lis 3,.LC45@ha
	la 3,.LC45@l(3)
	bl getThemeColor
	.loc 4 116 0 is_stmt 0 discriminator 2
	mr 24,3
	li 3,208
	bl _Znwj
.LEHE81:
	.loc 4 116 0 discriminator 3
	mr 4,25
	mr 5,26
	mr 6,29
	mr 30,3
	stw 24,44(1)
.LEHB82:
	bl _ZN7GuiTextC1EPKci9_gx_color
.LEHE82:
	.loc 4 116 0 discriminator 1
	stw 30,324(31)
	.loc 4 117 0 is_stmt 1 discriminator 1
	mr 3,30
	lwz 9,0(30)
	li 4,17
	lwz 0,180(9)
	mtctr 0
.LEHB83:
	bctrl
	.loc 4 118 0
	lwz 3,324(31)
	li 4,153
	li 5,82
	lwz 9,0(3)
	lwz 0,168(9)
	mtctr 0
	bctrl
	.loc 4 120 0
	lis 3,.LC46@ha
	la 3,.LC46@l(3)
	bl gettext
	lis 25,.LC47@ha
	mr 24,3
	la 25,.LC47@l(25)
	mr 3,25
	bl getThemeInt
	.loc 4 120 0 is_stmt 0 discriminator 1
	lis 26,.LC48@ha
	mr 23,3
	la 26,.LC48@l(26)
	mr 3,26
	bl getThemeColor
	.loc 4 120 0 discriminator 2
	mr 22,3
	li 3,208
	bl _Znwj
.LEHE83:
	.loc 4 120 0 discriminator 3
	mr 4,24
	mr 5,23
	mr 6,29
	mr 30,3
	stw 22,44(1)
.LEHB84:
	bl _ZN7GuiTextC1EPKci9_gx_color
.LEHE84:
	.loc 4 120 0 discriminator 1
	stw 30,328(31)
	.loc 4 121 0 is_stmt 1 discriminator 1
	mr 3,30
	lwz 9,0(30)
	li 4,34
	lwz 0,180(9)
	mtctr 0
.LEHB85:
	bctrl
	.loc 4 122 0
	lis 3,.LC49@ha
	la 3,.LC49@l(3)
	bl gettext
	mr 24,3
	mr 3,25
	bl getThemeInt
	.loc 4 122 0 is_stmt 0 discriminator 1
	mr 25,3
	mr 3,26
	bl getThemeColor
	.loc 4 122 0 discriminator 2
	mr 26,3
	li 3,208
	bl _Znwj
.LEHE85:
	.loc 4 122 0 discriminator 3
	mr 4,24
	mr 5,25
	mr 6,29
	mr 30,3
	stw 26,44(1)
.LEHB86:
	bl _ZN7GuiTextC1EPKci9_gx_color
.LEHE86:
	.loc 4 122 0 discriminator 1
	stw 30,332(31)
	.loc 4 123 0 is_stmt 1 discriminator 1
	mr 3,30
	lwz 9,0(30)
	li 4,34
	lwz 0,180(9)
	mtctr 0
.LEHB87:
	bctrl
	.loc 4 125 0
	lwz 3,280(31)
	lwz 9,0(3)
	lwz 0,36(9)
	mtctr 0
	bctrl
	mr 25,3
	lwz 3,280(31)
	lwz 9,0(3)
	lwz 0,40(9)
	mtctr 0
	bctrl
	.loc 4 125 0 is_stmt 0 discriminator 1
	mr 26,3
	li 3,312
	bl _Znwj
.LEHE87:
	.loc 4 125 0 discriminator 2
	mr 4,25
	mr 5,26
	mr 30,3
.LEHB88:
	bl _ZN9GuiButtonC1Eii
.LEHE88:
	.loc 4 125 0 discriminator 1
	stw 30,356(31)
	.loc 4 126 0 is_stmt 1 discriminator 1
	mr 3,30
	lwz 9,0(30)
	li 4,20
	lwz 0,180(9)
	mtctr 0
.LEHB89:
	bctrl
	.loc 4 127 0
	lwz 3,356(31)
	li 4,-207
	li 5,59
	lwz 9,0(3)
	lwz 0,168(9)
	mtctr 0
	bctrl
	.loc 4 128 0
	lwz 3,356(31)
	li 5,0
	lwz 4,328(31)
	bl _ZN9GuiButton8SetLabelEP7GuiTexti
	.loc 4 129 0
	lwz 3,356(31)
	lwz 4,1492(31)
	bl _ZN9GuiButton13SetSoundClickEP8GuiSound
	.loc 4 130 0
	lwz 3,356(31)
	lwz 4,1496(31)
	bl _ZN9GuiButton12SetSoundOverEP8GuiSound
	.loc 4 131 0
	lwz 3,356(31)
	mr 4,28
	bl _ZN9GuiButton10SetTriggerEP10GuiTrigger
	.loc 4 132 0
	lwz 3,356(31)
	lwz 9,0(3)
	lwz 0,144(9)
	mtctr 0
	bctrl
	.loc 4 133 0
	lwz 3,356(31)
	li 0,0
	mr 4,31
	addi 5,1,48
	addi 3,3,144
	stw 27,48(1)
	stw 0,52(1)
	bl _ZN7sigslot7signal3IP9GuiButtoniRK6_POINTNS_15single_threadedEE7connectI8HomeMenuEEvPT_MSA_FvS2_iS5_E
	.loc 4 135 0
	lwz 3,280(31)
	lwz 9,0(3)
	lwz 0,36(9)
	mtctr 0
	bctrl
	mr 25,3
	lwz 3,280(31)
	lwz 9,0(3)
	lwz 0,40(9)
	mtctr 0
	bctrl
	.loc 4 135 0 is_stmt 0 discriminator 1
	mr 26,3
	li 3,312
	bl _Znwj
.LEHE89:
	.loc 4 135 0 discriminator 2
	mr 4,25
	mr 5,26
	mr 30,3
.LEHB90:
	bl _ZN9GuiButtonC1Eii
.LEHE90:
	.loc 4 135 0 discriminator 1
	stw 30,360(31)
	.loc 4 136 0 is_stmt 1 discriminator 1
	mr 3,30
	lwz 9,0(30)
	li 4,20
	lwz 0,180(9)
	mtctr 0
.LEHB91:
	bctrl
	.loc 4 137 0
	lwz 3,360(31)
	li 4,-62
	li 5,59
	lwz 9,0(3)
	lwz 0,168(9)
	mtctr 0
	bctrl
	.loc 4 138 0
	lwz 3,360(31)
	li 5,0
	lwz 4,332(31)
	bl _ZN9GuiButton8SetLabelEP7GuiTexti
	.loc 4 139 0
	lwz 3,360(31)
	lwz 4,1492(31)
	bl _ZN9GuiButton13SetSoundClickEP8GuiSound
	.loc 4 140 0
	lwz 3,360(31)
	lwz 4,1496(31)
	bl _ZN9GuiButton12SetSoundOverEP8GuiSound
	.loc 4 141 0
	lwz 3,360(31)
	mr 4,28
	bl _ZN9GuiButton10SetTriggerEP10GuiTrigger
	.loc 4 142 0
	lwz 3,360(31)
	lwz 9,0(3)
	lwz 0,144(9)
	mtctr 0
	bctrl
	.loc 4 143 0
	lwz 3,360(31)
	li 0,0
	mr 4,31
	addi 5,1,48
	addi 3,3,144
	stw 27,48(1)
	stw 0,52(1)
	bl _ZN7sigslot7signal3IP9GuiButtoniRK6_POINTNS_15single_threadedEE7connectI8HomeMenuEEvPT_MSA_FvS2_iS5_E
	.loc 4 145 0
	lwz 4,344(31)
	mr 3,31
	bl _ZN8GuiFrame6AppendEP10GuiElement
	.loc 4 146 0
	lwz 4,336(31)
	mr 3,31
	bl _ZN8GuiFrame6AppendEP10GuiElement
	.loc 4 147 0
	lwz 4,340(31)
	mr 3,31
	bl _ZN8GuiFrame6AppendEP10GuiElement
	.loc 4 148 0
	lwz 4,348(31)
	mr 3,31
	bl _ZN8GuiFrame6AppendEP10GuiElement
	.loc 4 149 0
	lwz 4,352(31)
	mr 3,31
	bl _ZN8GuiFrame6AppendEP10GuiElement
	.loc 4 150 0
	lwz 4,276(31)
	mr 3,31
	bl _ZN8GuiFrame6AppendEP10GuiElement
	.loc 4 151 0
	lwz 4,272(31)
	mr 3,31
	bl _ZN8GuiFrame6AppendEP10GuiElement
	.loc 4 153 0
	lis 3,.LC50@ha
	la 3,.LC50@l(3)
	bl _ZN9Resources12GetImageDataEPKc
	stw 3,208(31)
	.loc 4 154 0
	lis 3,.LC51@ha
	la 3,.LC51@l(3)
	bl _ZN9Resources12GetImageDataEPKc
	.loc 4 154 0 is_stmt 0 discriminator 1
	stw 3,212(31)
	.loc 4 155 0 is_stmt 1 discriminator 1
	lis 3,.LC52@ha
	la 3,.LC52@l(3)
	bl _ZN9Resources12GetImageDataEPKc
	stw 3,216(31)
	.loc 4 156 0 discriminator 1
	lis 3,.LC53@ha
	la 3,.LC53@l(3)
	bl _ZN9Resources12GetImageDataEPKc
.LBB3849:
	.loc 4 161 0 discriminator 1
	lis 25,.LC54@ha
.LBE3849:
	.loc 4 156 0 discriminator 1
	stw 3,220(31)
.LVL552:
.LBB3850:
	.loc 4 161 0 discriminator 1
	la 25,.LC54@l(25)
	.loc 4 163 0 discriminator 1
	lis 26,.LC55@ha
	.loc 4 161 0 discriminator 1
	addi 3,1,8
	mr 4,25
	li 5,1
	.loc 4 163 0 discriminator 1
	la 26,.LC55@l(26)
	.loc 4 161 0 discriminator 1
	crxor 6,6,6
	bl sprintf
	.loc 4 163 0 discriminator 1
	mr 3,26
	bl getThemeInt
	lis 24,.LC56@ha
	mr 23,3
	la 24,.LC56@l(24)
	mr 3,24
	bl getThemeColor
	.loc 4 163 0 is_stmt 0
	mr 27,3
	li 3,208
	bl _Znwj
.LEHE91:
	addi 4,1,8
	mr 5,23
	mr 6,29
	mr 30,3
	stw 27,44(1)
.LEHB92:
	bl _ZN7GuiTextC1EPKci9_gx_color
.LEHE92:
	stw 30,308(31)
	.loc 4 164 0 is_stmt 1
	mr 3,30
	lwz 9,0(30)
	li 4,33
	lwz 0,180(9)
	mtctr 0
.LEHB93:
	bctrl
	.loc 4 165 0
	lwz 3,308(31)
	li 4,100
	lwz 9,0(3)
	lwz 0,96(9)
	mtctr 0
	bctrl
	.loc 4 167 0
	li 3,196
	bl _Znwj
.LEHE93:
	lwz 4,212(31)
	mr 30,3
.LEHB94:
	bl _ZN8GuiImageC1EP12GuiImageData
.LEHE94:
	stw 30,256(31)
	.loc 4 168 0
	mr 3,30
	lwz 9,0(30)
	li 4,33
	lwz 0,180(9)
	mtctr 0
.LEHB95:
	bctrl
	.loc 4 169 0
	lwz 3,256(31)
	li 4,33
	li 5,0
	lwz 9,0(3)
	lwz 0,168(9)
	mtctr 0
	bctrl
	.loc 4 171 0
	li 3,196
	bl _Znwj
.LEHE95:
	lwz 4,220(31)
	mr 30,3
.LEHB96:
	bl _ZN8GuiImageC1EP12GuiImageData
.LEHE96:
	stw 30,240(31)
	.loc 4 172 0
	mr 3,30
	lwz 9,0(30)
	li 4,33
	lwz 0,180(9)
	mtctr 0
.LEHB97:
	bctrl
	.loc 4 173 0
	lwz 3,240(31)
	li 4,36
	li 5,0
	lwz 9,0(3)
	lwz 0,168(9)
	mtctr 0
	bctrl
	.loc 4 175 0
	li 3,312
	bl _Znwj
.LEHE97:
	li 4,0
	li 5,0
	mr 30,3
.LEHB98:
	bl _ZN9GuiButtonC1Eii
.LEHE98:
	stw 30,364(31)
	.loc 4 176 0
	mr 3,30
	lwz 4,308(31)
	li 5,0
.LEHB99:
	bl _ZN9GuiButton8SetLabelEP7GuiTexti
	.loc 4 177 0
	lwz 3,364(31)
	lwz 4,256(31)
	bl _ZN9GuiButton8SetImageEP8GuiImage
	.loc 4 178 0
	lwz 3,364(31)
	lwz 4,240(31)
	bl _ZN9GuiButton7SetIconEP8GuiImage
	.loc 4 179 0
	lwz 3,364(31)
	li 4,33
	lwz 9,0(3)
	lwz 0,180(9)
	mtctr 0
	bctrl
	.loc 4 180 0
	lwz 3,364(31)
	li 4,180
	li 5,149
	lwz 9,0(3)
	lwz 0,168(9)
	mtctr 0
	bctrl
	.loc 4 181 0
	lwz 3,364(31)
	li 4,0
	lwz 9,0(3)
	lwz 0,132(9)
	mtctr 0
	bctrl
	.loc 4 182 0
	lwz 3,364(31)
	li 4,18
	li 5,50
	li 6,0
	lwz 9,0(3)
	lwz 0,136(9)
	mtctr 0
	bctrl
	.loc 4 183 0
	lwz 3,364(31)
	li 4,133
	lwz 9,0(3)
	lwz 0,96(9)
	mtctr 0
	bctrl
	.loc 4 185 0
	lwz 4,364(31)
	mr 3,31
	bl _ZN8GuiFrame6AppendEP10GuiElement
.LVL553:
	.loc 4 161 0
	addi 3,1,8
	mr 4,25
	li 5,2
	crxor 6,6,6
	bl sprintf
	.loc 4 163 0
	mr 3,26
	bl getThemeInt
	mr 23,3
	mr 3,24
	bl getThemeColor
	mr 27,3
	li 3,208
	bl _Znwj
.LEHE99:
	addi 4,1,8
	mr 5,23
	mr 6,29
	mr 30,3
	stw 27,44(1)
.LEHB100:
	bl _ZN7GuiTextC1EPKci9_gx_color
.LEHE100:
	stw 30,312(31)
	.loc 4 164 0
	mr 3,30
	lwz 9,0(30)
	li 4,33
	lwz 0,180(9)
	mtctr 0
.LEHB101:
	bctrl
	.loc 4 165 0
	lwz 3,312(31)
	li 4,100
	lwz 9,0(3)
	lwz 0,96(9)
	mtctr 0
	bctrl
	.loc 4 167 0
	li 3,196
	bl _Znwj
.LEHE101:
	lwz 4,212(31)
	mr 30,3
.LEHB102:
	bl _ZN8GuiImageC1EP12GuiImageData
.LEHE102:
	stw 30,260(31)
	.loc 4 168 0
	mr 3,30
	lwz 9,0(30)
	li 4,33
	lwz 0,180(9)
	mtctr 0
.LEHB103:
	bctrl
	.loc 4 169 0
	lwz 3,260(31)
	li 4,33
	li 5,0
	lwz 9,0(3)
	lwz 0,168(9)
	mtctr 0
	bctrl
	.loc 4 171 0
	li 3,196
	bl _Znwj
.LEHE103:
	lwz 4,220(31)
	mr 30,3
.LEHB104:
	bl _ZN8GuiImageC1EP12GuiImageData
.LEHE104:
	stw 30,244(31)
	.loc 4 172 0
	mr 3,30
	lwz 9,0(30)
	li 4,33
	lwz 0,180(9)
	mtctr 0
.LEHB105:
	bctrl
	.loc 4 173 0
	lwz 3,244(31)
	li 4,36
	li 5,0
	lwz 9,0(3)
	lwz 0,168(9)
	mtctr 0
	bctrl
	.loc 4 175 0
	li 3,312
	bl _Znwj
.LEHE105:
	li 4,0
	li 5,0
	mr 30,3
.LEHB106:
	bl _ZN9GuiButtonC1Eii
.LEHE106:
	stw 30,368(31)
	.loc 4 176 0
	mr 3,30
	lwz 4,312(31)
	li 5,0
.LEHB107:
	bl _ZN9GuiButton8SetLabelEP7GuiTexti
	.loc 4 177 0
	lwz 3,368(31)
	lwz 4,260(31)
	bl _ZN9GuiButton8SetImageEP8GuiImage
	.loc 4 178 0
	lwz 3,368(31)
	lwz 4,244(31)
	bl _ZN9GuiButton7SetIconEP8GuiImage
	.loc 4 179 0
	lwz 3,368(31)
	li 4,33
	lwz 9,0(3)
	lwz 0,180(9)
	mtctr 0
	bctrl
	.loc 4 180 0
	lwz 3,368(31)
	li 4,288
	li 5,149
	lwz 9,0(3)
	lwz 0,168(9)
	mtctr 0
	bctrl
	.loc 4 181 0
	lwz 3,368(31)
	li 4,0
	lwz 9,0(3)
	lwz 0,132(9)
	mtctr 0
	bctrl
	.loc 4 182 0
	lwz 3,368(31)
	li 4,18
	li 5,50
	li 6,0
	lwz 9,0(3)
	lwz 0,136(9)
	mtctr 0
	bctrl
	.loc 4 183 0
	lwz 3,368(31)
	li 4,133
	lwz 9,0(3)
	lwz 0,96(9)
	mtctr 0
	bctrl
	.loc 4 185 0
	lwz 4,368(31)
	mr 3,31
	bl _ZN8GuiFrame6AppendEP10GuiElement
.LVL554:
	.loc 4 161 0
	addi 3,1,8
	mr 4,25
	li 5,3
	crxor 6,6,6
	bl sprintf
	.loc 4 163 0
	mr 3,26
	bl getThemeInt
	mr 23,3
	mr 3,24
	bl getThemeColor
	mr 27,3
	li 3,208
	bl _Znwj
.LEHE107:
	addi 4,1,8
	mr 5,23
	mr 6,29
	mr 30,3
	stw 27,44(1)
.LEHB108:
	bl _ZN7GuiTextC1EPKci9_gx_color
.LEHE108:
	stw 30,316(31)
	.loc 4 164 0
	mr 3,30
	lwz 9,0(30)
	li 4,33
	lwz 0,180(9)
	mtctr 0
.LEHB109:
	bctrl
	.loc 4 165 0
	lwz 3,316(31)
	li 4,100
	lwz 9,0(3)
	lwz 0,96(9)
	mtctr 0
	bctrl
	.loc 4 167 0
	li 3,196
	bl _Znwj
.LEHE109:
	lwz 4,212(31)
	mr 30,3
.LEHB110:
	bl _ZN8GuiImageC1EP12GuiImageData
.LEHE110:
	stw 30,264(31)
	.loc 4 168 0
	mr 3,30
	lwz 9,0(30)
	li 4,33
	lwz 0,180(9)
	mtctr 0
.LEHB111:
	bctrl
	.loc 4 169 0
	lwz 3,264(31)
	li 4,33
	li 5,0
	lwz 9,0(3)
	lwz 0,168(9)
	mtctr 0
	bctrl
	.loc 4 171 0
	li 3,196
	bl _Znwj
.LEHE111:
	lwz 4,220(31)
	mr 30,3
.LEHB112:
	bl _ZN8GuiImageC1EP12GuiImageData
.LEHE112:
	stw 30,248(31)
	.loc 4 172 0
	mr 3,30
	lwz 9,0(30)
	li 4,33
	lwz 0,180(9)
	mtctr 0
.LEHB113:
	bctrl
	.loc 4 173 0
	lwz 3,248(31)
	li 4,36
	li 5,0
	lwz 9,0(3)
	lwz 0,168(9)
	mtctr 0
	bctrl
	.loc 4 175 0
	li 3,312
	bl _Znwj
.LEHE113:
	li 4,0
	li 5,0
	mr 30,3
.LEHB114:
	bl _ZN9GuiButtonC1Eii
.LEHE114:
	stw 30,372(31)
	.loc 4 176 0
	mr 3,30
	lwz 4,316(31)
	li 5,0
.LEHB115:
	bl _ZN9GuiButton8SetLabelEP7GuiTexti
	.loc 4 177 0
	lwz 3,372(31)
	lwz 4,264(31)
	bl _ZN9GuiButton8SetImageEP8GuiImage
	.loc 4 178 0
	lwz 3,372(31)
	lwz 4,248(31)
	bl _ZN9GuiButton7SetIconEP8GuiImage
	.loc 4 179 0
	lwz 3,372(31)
	li 4,33
	lwz 9,0(3)
	lwz 0,180(9)
	mtctr 0
	bctrl
	.loc 4 180 0
	lwz 3,372(31)
	li 4,396
	li 5,149
	lwz 9,0(3)
	lwz 0,168(9)
	mtctr 0
	bctrl
	.loc 4 181 0
	lwz 3,372(31)
	li 4,0
	lwz 9,0(3)
	lwz 0,132(9)
	mtctr 0
	bctrl
	.loc 4 182 0
	lwz 3,372(31)
	li 4,18
	li 5,50
	li 6,0
	lwz 9,0(3)
	lwz 0,136(9)
	mtctr 0
	bctrl
	.loc 4 183 0
	lwz 3,372(31)
	li 4,133
	lwz 9,0(3)
	lwz 0,96(9)
	mtctr 0
	bctrl
	.loc 4 185 0
	lwz 4,372(31)
	mr 3,31
	bl _ZN8GuiFrame6AppendEP10GuiElement
.LVL555:
	.loc 4 161 0
	addi 3,1,8
	mr 4,25
	li 5,4
	crxor 6,6,6
	bl sprintf
	.loc 4 163 0
	mr 3,26
	bl getThemeInt
	mr 26,3
	mr 3,24
	bl getThemeColor
	.loc 4 163 0 is_stmt 0 discriminator 1
	mr 27,3
	li 3,208
	bl _Znwj
.LEHE115:
	.loc 4 163 0 discriminator 2
	addi 4,1,8
	mr 5,26
	mr 6,29
	mr 30,3
	stw 27,44(1)
.LEHB116:
	bl _ZN7GuiTextC1EPKci9_gx_color
.LEHE116:
	.loc 4 163 0 discriminator 1
	stw 30,320(31)
	.loc 4 164 0 is_stmt 1 discriminator 1
	mr 3,30
	lwz 9,0(30)
	li 4,33
	lwz 0,180(9)
	mtctr 0
.LEHB117:
	bctrl
	.loc 4 165 0
	lwz 3,320(31)
	li 4,100
	lwz 9,0(3)
	lwz 0,96(9)
	mtctr 0
	bctrl
	.loc 4 167 0
	li 3,196
	bl _Znwj
.LEHE117:
	lwz 4,212(31)
	mr 30,3
.LEHB118:
	bl _ZN8GuiImageC1EP12GuiImageData
.LEHE118:
	.loc 4 167 0 is_stmt 0 discriminator 1
	stw 30,268(31)
	.loc 4 168 0 is_stmt 1 discriminator 1
	mr 3,30
	lwz 9,0(30)
	li 4,33
	lwz 0,180(9)
	mtctr 0
.LEHB119:
	bctrl
	.loc 4 169 0
	lwz 3,268(31)
	li 4,33
	li 5,0
	lwz 9,0(3)
	lwz 0,168(9)
	mtctr 0
	bctrl
	.loc 4 171 0
	li 3,196
	bl _Znwj
.LEHE119:
	lwz 4,220(31)
	mr 30,3
.LEHB120:
	bl _ZN8GuiImageC1EP12GuiImageData
.LEHE120:
	.loc 4 171 0 is_stmt 0 discriminator 1
	stw 30,252(31)
	.loc 4 172 0 is_stmt 1 discriminator 1
	mr 3,30
	lwz 9,0(30)
	li 4,33
	lwz 0,180(9)
	mtctr 0
.LEHB121:
	bctrl
	.loc 4 173 0
	lwz 3,252(31)
	li 4,36
	li 5,0
	lwz 9,0(3)
	lwz 0,168(9)
	mtctr 0
	bctrl
	.loc 4 175 0
	li 3,312
	bl _Znwj
.LEHE121:
	li 4,0
	li 5,0
	mr 30,3
.LEHB122:
	bl _ZN9GuiButtonC1Eii
.LEHE122:
	.loc 4 175 0 is_stmt 0 discriminator 1
	stw 30,376(31)
	.loc 4 176 0 is_stmt 1 discriminator 1
	mr 3,30
	lwz 4,320(31)
	li 5,0
.LEHB123:
	bl _ZN9GuiButton8SetLabelEP7GuiTexti
	.loc 4 177 0
	lwz 3,376(31)
	lwz 4,268(31)
	bl _ZN9GuiButton8SetImageEP8GuiImage
	.loc 4 178 0
	lwz 3,376(31)
	lwz 4,252(31)
	bl _ZN9GuiButton7SetIconEP8GuiImage
	.loc 4 179 0
	lwz 3,376(31)
	li 4,33
	lwz 9,0(3)
	lwz 0,180(9)
	mtctr 0
	bctrl
	.loc 4 180 0
	lwz 3,376(31)
	li 4,504
	li 5,149
	lwz 9,0(3)
	lwz 0,168(9)
	mtctr 0
	bctrl
	.loc 4 181 0
	lwz 3,376(31)
	li 4,0
	lwz 9,0(3)
	lwz 0,132(9)
	mtctr 0
	bctrl
	.loc 4 182 0
	lwz 3,376(31)
	li 4,18
	li 5,50
	li 6,0
	lwz 9,0(3)
	lwz 0,136(9)
	mtctr 0
	bctrl
	.loc 4 183 0
	lwz 3,376(31)
	li 4,133
	lwz 9,0(3)
	lwz 0,96(9)
	mtctr 0
	bctrl
	.loc 4 185 0
	lwz 4,376(31)
	mr 3,31
	bl _ZN8GuiFrame6AppendEP10GuiElement
.LVL556:
.LBE3850:
.LBB3851:
.LBB3852:
	.loc 12 38 0 discriminator 1
	lis 29,_ZN11MusicPlayer8instanceE@ha
	lwz 30,_ZN11MusicPlayer8instanceE@l(29)
	cmpwi 7,30,0
	beq- 7,.L599
.L523:
.LBE3852:
.LBE3851:
	.loc 4 188 0
	lbz 0,217(30)
	cmpwi 7,0,0
	bne- 7,.L525
.LBB3854:
.LBB3855:
	.loc 12 50 0
	lwz 3,240(30)
	bl _ZN8GuiSound5PauseEv
	li 0,1
	stb 0,216(30)
.L525:
.LBE3855:
.LBE3854:
	.loc 4 191 0
	lwz 3,1484(31)
	bl _ZN8GuiSound4PlayEv
.LBE3783:
.LBE3865:
	.loc 4 192 0
	lwz 0,124(1)
	lwz 17,60(1)
	mtlr 0
	lwz 18,64(1)
	lwz 19,68(1)
	lwz 20,72(1)
	lwz 21,76(1)
	lwz 22,80(1)
	lwz 23,84(1)
	lwz 24,88(1)
	lwz 25,92(1)
	lwz 26,96(1)
	lwz 27,100(1)
	lwz 28,104(1)
	lwz 29,108(1)
	lwz 30,112(1)
	lwz 31,116(1)
.LVL557:
	addi 1,1,120
	.cfi_remember_state
.LCFI112:
	.cfi_def_cfa_offset 0
	.cfi_restore 31
	.cfi_restore 30
	.cfi_restore 29
	.cfi_restore 28
	.cfi_restore 27
	.cfi_restore 26
	.cfi_restore 25
	.cfi_restore 24
	.cfi_restore 23
	.cfi_restore 22
	.cfi_restore 21
	.cfi_restore 20
	.cfi_restore 19
	.cfi_restore 18
	.cfi_restore 17
	blr
.LVL558:
.L595:
.LCFI113:
	.cfi_restore_state
.LBB3866:
.LBB3860:
	.loc 4 71 0
	lwz 9,0(24)
	lis 3,.LC12@ha
	la 3,.LC12@l(3)
	lwz 25,200(9)
	bl gettext
.L588:
	.loc 4 73 0
	mr 4,3
	mtctr 25
	mr 3,24
	bctrl
	b .L519
.L597:
	.loc 4 86 0
	lwz 9,0(25)
	lis 3,.LC13@ha
	la 3,.LC13@l(3)
	lwz 30,200(9)
	bl gettext
.L590:
	.loc 4 88 0
	mr 4,3
	mtctr 30
	mr 3,25
	bctrl
	b .L521
.LVL559:
.L594:
.LBB3856:
.LBB3790:
	.loc 5 27 0
	li 3,632
	bl _Znwj
.LEHE123:
	mr 27,3
.LEHB124:
	bl _ZN11ApplicationC1Ev
.LEHE124:
	stw 27,_ZN11Application8instanceE@l(30)
	b .L508
.LVL560:
.L599:
.LBE3790:
.LBE3856:
.LBB3857:
.LBB3853:
	.loc 12 38 0
	li 3,636
.LEHB125:
	bl _Znwj
.LEHE125:
	mr 30,3
.LEHB126:
	bl _ZN11MusicPlayerC1Ev
.LEHE126:
	stw 30,_ZN11MusicPlayer8instanceE@l(29)
	b .L523
.LVL561:
.L596:
.LBE3853:
.LBE3857:
	.loc 4 73 0
	lwz 9,0(24)
	lis 3,.LC36@ha
	la 3,.LC36@l(3)
	lwz 25,200(9)
.LEHB127:
	bl gettext
	b .L588
.L598:
	.loc 4 88 0
	lwz 9,0(25)
	lis 3,.LC38@ha
	la 3,.LC38@l(3)
	lwz 30,200(9)
	bl gettext
	b .L590
.LVL562:
.L515:
.LBB3858:
.LBB3841:
.LBB3838:
.LBB3837:
	.loc 9 834 0
	mr 4,1
	addi 3,27,604
	stwu 9,40(4)
	addi 5,1,12
	bl _ZNSt6vectorIP10GuiElementSaIS1_EE13_M_insert_auxEN9__gnu_cxx17__normal_iteratorIPS1_S3_EERKS1_
.LEHE127:
	b .L517
.LVL563:
.L583:
.L591:
	mr 30,3
.LBE3837:
.LBE3838:
.LBE3841:
.LBE3858:
	.loc 4 38 0
	mr 3,27
	bl _ZdlPv
.L512:
.LBE3860:
	.loc 4 12 0
	mr 3,18
	bl _ZN10GuiTriggerD1Ev
.LVL564:
.L550:
	mr 3,17
	bl _ZN10GuiTriggerD1Ev
.L551:
	mr 3,28
	bl _ZN10GuiTriggerD1Ev
.L552:
	addi 3,31,176
	bl _ZN7sigslot9has_slotsINS_15single_threadedEED2Ev
	mr 3,31
	bl _ZN8GuiFrameD2Ev
	mr 3,30
.LEHB128:
	bl _Unwind_Resume
.LEHE128:
.LVL565:
.L582:
.L592:
	mr 29,3
.LBB3861:
.LBB3859:
	.loc 4 175 0
	mr 3,30
	bl _ZdlPv
	mr 30,29
	b .L512
.LVL566:
.L581:
	b .L592
.L580:
	b .L592
.LVL567:
.L565:
.L593:
	mr 30,3
.LBE3859:
	.loc 4 84 0
	mr 3,25
	bl _ZdlPv
	b .L512
.L564:
	b .L593
.L563:
	b .L593
.L562:
	b .L593
.L567:
	b .L593
.LVL568:
.L559:
	mr 30,3
	b .L512
.LVL569:
.L561:
	b .L591
.L560:
	b .L591
.LVL570:
.L558:
	mr 30,3
	b .L550
.LVL571:
.L578:
	b .L592
.L577:
	b .L592
.L576:
	b .L592
.L575:
	b .L592
.LVL572:
.L569:
	b .L592
.L571:
	b .L592
.L570:
	b .L592
.LVL573:
.L557:
	mr 30,3
	b .L551
.L556:
	mr 30,3
	b .L552
.LVL574:
.L566:
	mr 30,3
	.loc 4 69 0
	mr 3,24
	bl _ZdlPv
	b .L512
.L568:
	b .L593
.LVL575:
.L579:
	b .L592
.L574:
	b .L592
.L573:
	b .L592
.L572:
	b .L592
.LVL576:
.L584:
	b .L592
.LBE3861:
.LBE3866:
	.cfi_endproc
.LFE1614:
	.section	.gcc_except_table
.LLSDA1614:
	.byte	0xff
	.byte	0xff
	.byte	0x1
	.uleb128 .LLSDACSE1614-.LLSDACSB1614
.LLSDACSB1614:
	.uleb128 .LEHB49-.LFB1614
	.uleb128 .LEHE49-.LEHB49
	.uleb128 0
	.uleb128 0
	.uleb128 .LEHB50-.LFB1614
	.uleb128 .LEHE50-.LEHB50
	.uleb128 .L556-.LFB1614
	.uleb128 0
	.uleb128 .LEHB51-.LFB1614
	.uleb128 .LEHE51-.LEHB51
	.uleb128 .L557-.LFB1614
	.uleb128 0
	.uleb128 .LEHB52-.LFB1614
	.uleb128 .LEHE52-.LEHB52
	.uleb128 .L558-.LFB1614
	.uleb128 0
	.uleb128 .LEHB53-.LFB1614
	.uleb128 .LEHE53-.LEHB53
	.uleb128 .L559-.LFB1614
	.uleb128 0
	.uleb128 .LEHB54-.LFB1614
	.uleb128 .LEHE54-.LEHB54
	.uleb128 .L560-.LFB1614
	.uleb128 0
	.uleb128 .LEHB55-.LFB1614
	.uleb128 .LEHE55-.LEHB55
	.uleb128 .L559-.LFB1614
	.uleb128 0
	.uleb128 .LEHB56-.LFB1614
	.uleb128 .LEHE56-.LEHB56
	.uleb128 .L561-.LFB1614
	.uleb128 0
	.uleb128 .LEHB57-.LFB1614
	.uleb128 .LEHE57-.LEHB57
	.uleb128 .L559-.LFB1614
	.uleb128 0
	.uleb128 .LEHB58-.LFB1614
	.uleb128 .LEHE58-.LEHB58
	.uleb128 .L562-.LFB1614
	.uleb128 0
	.uleb128 .LEHB59-.LFB1614
	.uleb128 .LEHE59-.LEHB59
	.uleb128 .L559-.LFB1614
	.uleb128 0
	.uleb128 .LEHB60-.LFB1614
	.uleb128 .LEHE60-.LEHB60
	.uleb128 .L563-.LFB1614
	.uleb128 0
	.uleb128 .LEHB61-.LFB1614
	.uleb128 .LEHE61-.LEHB61
	.uleb128 .L559-.LFB1614
	.uleb128 0
	.uleb128 .LEHB62-.LFB1614
	.uleb128 .LEHE62-.LEHB62
	.uleb128 .L564-.LFB1614
	.uleb128 0
	.uleb128 .LEHB63-.LFB1614
	.uleb128 .LEHE63-.LEHB63
	.uleb128 .L559-.LFB1614
	.uleb128 0
	.uleb128 .LEHB64-.LFB1614
	.uleb128 .LEHE64-.LEHB64
	.uleb128 .L565-.LFB1614
	.uleb128 0
	.uleb128 .LEHB65-.LFB1614
	.uleb128 .LEHE65-.LEHB65
	.uleb128 .L559-.LFB1614
	.uleb128 0
	.uleb128 .LEHB66-.LFB1614
	.uleb128 .LEHE66-.LEHB66
	.uleb128 .L566-.LFB1614
	.uleb128 0
	.uleb128 .LEHB67-.LFB1614
	.uleb128 .LEHE67-.LEHB67
	.uleb128 .L559-.LFB1614
	.uleb128 0
	.uleb128 .LEHB68-.LFB1614
	.uleb128 .LEHE68-.LEHB68
	.uleb128 .L567-.LFB1614
	.uleb128 0
	.uleb128 .LEHB69-.LFB1614
	.uleb128 .LEHE69-.LEHB69
	.uleb128 .L559-.LFB1614
	.uleb128 0
	.uleb128 .LEHB70-.LFB1614
	.uleb128 .LEHE70-.LEHB70
	.uleb128 .L568-.LFB1614
	.uleb128 0
	.uleb128 .LEHB71-.LFB1614
	.uleb128 .LEHE71-.LEHB71
	.uleb128 .L559-.LFB1614
	.uleb128 0
	.uleb128 .LEHB72-.LFB1614
	.uleb128 .LEHE72-.LEHB72
	.uleb128 .L569-.LFB1614
	.uleb128 0
	.uleb128 .LEHB73-.LFB1614
	.uleb128 .LEHE73-.LEHB73
	.uleb128 .L559-.LFB1614
	.uleb128 0
	.uleb128 .LEHB74-.LFB1614
	.uleb128 .LEHE74-.LEHB74
	.uleb128 .L570-.LFB1614
	.uleb128 0
	.uleb128 .LEHB75-.LFB1614
	.uleb128 .LEHE75-.LEHB75
	.uleb128 .L559-.LFB1614
	.uleb128 0
	.uleb128 .LEHB76-.LFB1614
	.uleb128 .LEHE76-.LEHB76
	.uleb128 .L571-.LFB1614
	.uleb128 0
	.uleb128 .LEHB77-.LFB1614
	.uleb128 .LEHE77-.LEHB77
	.uleb128 .L559-.LFB1614
	.uleb128 0
	.uleb128 .LEHB78-.LFB1614
	.uleb128 .LEHE78-.LEHB78
	.uleb128 .L572-.LFB1614
	.uleb128 0
	.uleb128 .LEHB79-.LFB1614
	.uleb128 .LEHE79-.LEHB79
	.uleb128 .L559-.LFB1614
	.uleb128 0
	.uleb128 .LEHB80-.LFB1614
	.uleb128 .LEHE80-.LEHB80
	.uleb128 .L573-.LFB1614
	.uleb128 0
	.uleb128 .LEHB81-.LFB1614
	.uleb128 .LEHE81-.LEHB81
	.uleb128 .L559-.LFB1614
	.uleb128 0
	.uleb128 .LEHB82-.LFB1614
	.uleb128 .LEHE82-.LEHB82
	.uleb128 .L574-.LFB1614
	.uleb128 0
	.uleb128 .LEHB83-.LFB1614
	.uleb128 .LEHE83-.LEHB83
	.uleb128 .L559-.LFB1614
	.uleb128 0
	.uleb128 .LEHB84-.LFB1614
	.uleb128 .LEHE84-.LEHB84
	.uleb128 .L575-.LFB1614
	.uleb128 0
	.uleb128 .LEHB85-.LFB1614
	.uleb128 .LEHE85-.LEHB85
	.uleb128 .L559-.LFB1614
	.uleb128 0
	.uleb128 .LEHB86-.LFB1614
	.uleb128 .LEHE86-.LEHB86
	.uleb128 .L576-.LFB1614
	.uleb128 0
	.uleb128 .LEHB87-.LFB1614
	.uleb128 .LEHE87-.LEHB87
	.uleb128 .L559-.LFB1614
	.uleb128 0
	.uleb128 .LEHB88-.LFB1614
	.uleb128 .LEHE88-.LEHB88
	.uleb128 .L577-.LFB1614
	.uleb128 0
	.uleb128 .LEHB89-.LFB1614
	.uleb128 .LEHE89-.LEHB89
	.uleb128 .L559-.LFB1614
	.uleb128 0
	.uleb128 .LEHB90-.LFB1614
	.uleb128 .LEHE90-.LEHB90
	.uleb128 .L578-.LFB1614
	.uleb128 0
	.uleb128 .LEHB91-.LFB1614
	.uleb128 .LEHE91-.LEHB91
	.uleb128 .L559-.LFB1614
	.uleb128 0
	.uleb128 .LEHB92-.LFB1614
	.uleb128 .LEHE92-.LEHB92
	.uleb128 .L579-.LFB1614
	.uleb128 0
	.uleb128 .LEHB93-.LFB1614
	.uleb128 .LEHE93-.LEHB93
	.uleb128 .L559-.LFB1614
	.uleb128 0
	.uleb128 .LEHB94-.LFB1614
	.uleb128 .LEHE94-.LEHB94
	.uleb128 .L580-.LFB1614
	.uleb128 0
	.uleb128 .LEHB95-.LFB1614
	.uleb128 .LEHE95-.LEHB95
	.uleb128 .L559-.LFB1614
	.uleb128 0
	.uleb128 .LEHB96-.LFB1614
	.uleb128 .LEHE96-.LEHB96
	.uleb128 .L581-.LFB1614
	.uleb128 0
	.uleb128 .LEHB97-.LFB1614
	.uleb128 .LEHE97-.LEHB97
	.uleb128 .L559-.LFB1614
	.uleb128 0
	.uleb128 .LEHB98-.LFB1614
	.uleb128 .LEHE98-.LEHB98
	.uleb128 .L582-.LFB1614
	.uleb128 0
	.uleb128 .LEHB99-.LFB1614
	.uleb128 .LEHE99-.LEHB99
	.uleb128 .L559-.LFB1614
	.uleb128 0
	.uleb128 .LEHB100-.LFB1614
	.uleb128 .LEHE100-.LEHB100
	.uleb128 .L579-.LFB1614
	.uleb128 0
	.uleb128 .LEHB101-.LFB1614
	.uleb128 .LEHE101-.LEHB101
	.uleb128 .L559-.LFB1614
	.uleb128 0
	.uleb128 .LEHB102-.LFB1614
	.uleb128 .LEHE102-.LEHB102
	.uleb128 .L580-.LFB1614
	.uleb128 0
	.uleb128 .LEHB103-.LFB1614
	.uleb128 .LEHE103-.LEHB103
	.uleb128 .L559-.LFB1614
	.uleb128 0
	.uleb128 .LEHB104-.LFB1614
	.uleb128 .LEHE104-.LEHB104
	.uleb128 .L581-.LFB1614
	.uleb128 0
	.uleb128 .LEHB105-.LFB1614
	.uleb128 .LEHE105-.LEHB105
	.uleb128 .L559-.LFB1614
	.uleb128 0
	.uleb128 .LEHB106-.LFB1614
	.uleb128 .LEHE106-.LEHB106
	.uleb128 .L582-.LFB1614
	.uleb128 0
	.uleb128 .LEHB107-.LFB1614
	.uleb128 .LEHE107-.LEHB107
	.uleb128 .L559-.LFB1614
	.uleb128 0
	.uleb128 .LEHB108-.LFB1614
	.uleb128 .LEHE108-.LEHB108
	.uleb128 .L579-.LFB1614
	.uleb128 0
	.uleb128 .LEHB109-.LFB1614
	.uleb128 .LEHE109-.LEHB109
	.uleb128 .L559-.LFB1614
	.uleb128 0
	.uleb128 .LEHB110-.LFB1614
	.uleb128 .LEHE110-.LEHB110
	.uleb128 .L580-.LFB1614
	.uleb128 0
	.uleb128 .LEHB111-.LFB1614
	.uleb128 .LEHE111-.LEHB111
	.uleb128 .L559-.LFB1614
	.uleb128 0
	.uleb128 .LEHB112-.LFB1614
	.uleb128 .LEHE112-.LEHB112
	.uleb128 .L581-.LFB1614
	.uleb128 0
	.uleb128 .LEHB113-.LFB1614
	.uleb128 .LEHE113-.LEHB113
	.uleb128 .L559-.LFB1614
	.uleb128 0
	.uleb128 .LEHB114-.LFB1614
	.uleb128 .LEHE114-.LEHB114
	.uleb128 .L582-.LFB1614
	.uleb128 0
	.uleb128 .LEHB115-.LFB1614
	.uleb128 .LEHE115-.LEHB115
	.uleb128 .L559-.LFB1614
	.uleb128 0
	.uleb128 .LEHB116-.LFB1614
	.uleb128 .LEHE116-.LEHB116
	.uleb128 .L579-.LFB1614
	.uleb128 0
	.uleb128 .LEHB117-.LFB1614
	.uleb128 .LEHE117-.LEHB117
	.uleb128 .L559-.LFB1614
	.uleb128 0
	.uleb128 .LEHB118-.LFB1614
	.uleb128 .LEHE118-.LEHB118
	.uleb128 .L580-.LFB1614
	.uleb128 0
	.uleb128 .LEHB119-.LFB1614
	.uleb128 .LEHE119-.LEHB119
	.uleb128 .L559-.LFB1614
	.uleb128 0
	.uleb128 .LEHB120-.LFB1614
	.uleb128 .LEHE120-.LEHB120
	.uleb128 .L581-.LFB1614
	.uleb128 0
	.uleb128 .LEHB121-.LFB1614
	.uleb128 .LEHE121-.LEHB121
	.uleb128 .L559-.LFB1614
	.uleb128 0
	.uleb128 .LEHB122-.LFB1614
	.uleb128 .LEHE122-.LEHB122
	.uleb128 .L582-.LFB1614
	.uleb128 0
	.uleb128 .LEHB123-.LFB1614
	.uleb128 .LEHE123-.LEHB123
	.uleb128 .L559-.LFB1614
	.uleb128 0
	.uleb128 .LEHB124-.LFB1614
	.uleb128 .LEHE124-.LEHB124
	.uleb128 .L583-.LFB1614
	.uleb128 0
	.uleb128 .LEHB125-.LFB1614
	.uleb128 .LEHE125-.LEHB125
	.uleb128 .L559-.LFB1614
	.uleb128 0
	.uleb128 .LEHB126-.LFB1614
	.uleb128 .LEHE126-.LEHB126
	.uleb128 .L584-.LFB1614
	.uleb128 0
	.uleb128 .LEHB127-.LFB1614
	.uleb128 .LEHE127-.LEHB127
	.uleb128 .L559-.LFB1614
	.uleb128 0
	.uleb128 .LEHB128-.LFB1614
	.uleb128 .LEHE128-.LEHB128
	.uleb128 0
	.uleb128 0
.LLSDACSE1614:
	.section	".text"
	.size	_ZN8HomeMenuC2Ev, .-_ZN8HomeMenuC2Ev
	.weak	_ZTS8HomeMenu
	.section	.rodata._ZTS8HomeMenu,"aG",@progbits,_ZTS8HomeMenu,comdat
	.align 2
	.type	_ZTS8HomeMenu, @object
	.size	_ZTS8HomeMenu, 10
_ZTS8HomeMenu:
	.string	"8HomeMenu"
	.weak	_ZTI8HomeMenu
	.section	.rodata._ZTI8HomeMenu,"aG",@progbits,_ZTI8HomeMenu,comdat
	.align 2
	.type	_ZTI8HomeMenu, @object
	.size	_ZTI8HomeMenu, 32
_ZTI8HomeMenu:
	.long	_ZTVN10__cxxabiv121__vmi_class_type_infoE+8
	.long	_ZTS8HomeMenu
	.long	0
	.long	2
	.long	_ZTI8GuiFrame
	.long	2
	.long	_ZTIN7sigslot9has_slotsINS_15single_threadedEEE
	.long	45058
	.weak	_ZTV8HomeMenu
	.section	.rodata._ZTV8HomeMenu,"aG",@progbits,_ZTV8HomeMenu,comdat
	.align 3
	.type	_ZTV8HomeMenu, @object
	.size	_ZTV8HomeMenu, 252
_ZTV8HomeMenu:
	.long	0
	.long	_ZTI8HomeMenu
	.long	_ZN8HomeMenuD1Ev
	.long	_ZN8HomeMenuD0Ev
	.long	_ZN10GuiElement9SetParentEPS_
	.long	_ZN10GuiElement9GetParentEv
	.long	_ZN10GuiElement7GetLeftEv
	.long	_ZN10GuiElement6GetTopEv
	.long	_ZN10GuiElement12GetZPositionEv
	.long	_ZN10GuiElement10GetLeftPosEv
	.long	_ZN10GuiElement9GetTopPosEv
	.long	_ZN10GuiElement8GetWidthEv
	.long	_ZN10GuiElement9GetHeightEv
	.long	_ZN10GuiElement7SetSizeEii
	.long	_ZN8GuiFrame10SetVisibleEb
	.long	_ZN10GuiElement9IsVisibleEv
	.long	_ZN10GuiElement12IsSelectableEv
	.long	_ZN10GuiElement11IsClickableEv
	.long	_ZN10GuiElement10IsHoldableEv
	.long	_ZN10GuiElement13SetSelectableEb
	.long	_ZN10GuiElement12SetClickableEb
	.long	_ZN10GuiElement11SetHoldableEb
	.long	_ZN10GuiElement8SetStateEii
	.long	_ZN10GuiElement8GetStateEv
	.long	_ZN10GuiElement12GetStateChanEv
	.long	_ZN8GuiFrame10ResetStateEv
	.long	_ZN10GuiElement8SetAlphaEi
	.long	_ZN10GuiElement8GetAlphaEv
	.long	_ZN10GuiElement8SetScaleEf
	.long	_ZN10GuiElement9SetScaleXEf
	.long	_ZN10GuiElement9SetScaleYEf
	.long	_ZN10GuiElement8GetScaleEv
	.long	_ZN10GuiElement9GetScaleXEv
	.long	_ZN10GuiElement9GetScaleYEv
	.long	_ZN10GuiElement6RumbleEv
	.long	_ZN10GuiElement9SetRumbleEb
	.long	_ZN10GuiElement9SetEffectEiii
	.long	_ZN10GuiElement15SetEffectOnOverEiii
	.long	_ZN10GuiElement13SetEffectGrowEv
	.long	_ZN10GuiElement12ResetEffectsEv
	.long	_ZNK10GuiElement9GetEffectEv
	.long	_ZNK10GuiElement10IsAnimatedEv
	.long	_ZN8GuiFrame9SetBoundsE4RectIiE
	.long	_ZN10GuiElement8IsInsideEii
	.long	_ZN10GuiElement11SetPositionEii
	.long	_ZN10GuiElement11SetPositionEiii
	.long	_ZN8GuiFrame11GetSelectedEv
	.long	_ZN10GuiElement12SetAlignmentEi
	.long	_ZNK10GuiElement12GetAlignmentEv
	.long	_ZN8GuiFrame6UpdateEP10GuiTrigger
	.long	_ZN8HomeMenu4DrawEv
	.long	_ZN10GuiElement13UpdateEffectsEv
	.long	_ZN8GuiFrame5CloseEv
	.long	_ZN8GuiFrame4showEv
	.long	_ZN8GuiFrame4hideEv
	.long	_ZN8GuiFrame4execEv
	.long	_ZN8GuiFrame12updateEventsEv
	.long	-176
	.long	_ZTI8HomeMenu
	.long	_ZThn176_N8HomeMenuD1Ev
	.long	_ZThn176_N8HomeMenuD0Ev
	.long	_ZN7sigslot15single_threaded4lockEv
	.long	_ZN7sigslot15single_threaded6unlockEv
	.weak	_ZTVN7sigslot15single_threadedE
	.section	.rodata._ZTVN7sigslot15single_threadedE,"aG",@progbits,_ZTVN7sigslot15single_threadedE,comdat
	.align 3
	.type	_ZTVN7sigslot15single_threadedE, @object
	.size	_ZTVN7sigslot15single_threadedE, 24
_ZTVN7sigslot15single_threadedE:
	.long	0
	.long	_ZTIN7sigslot15single_threadedE
	.long	_ZN7sigslot15single_threadedD1Ev
	.long	_ZN7sigslot15single_threadedD0Ev
	.long	_ZN7sigslot15single_threaded4lockEv
	.long	_ZN7sigslot15single_threaded6unlockEv
	.weak	_ZTVN7sigslot9has_slotsINS_15single_threadedEEE
	.section	.rodata._ZTVN7sigslot9has_slotsINS_15single_threadedEEE,"aG",@progbits,_ZTVN7sigslot9has_slotsINS_15single_threadedEEE,comdat
	.align 3
	.type	_ZTVN7sigslot9has_slotsINS_15single_threadedEEE, @object
	.size	_ZTVN7sigslot9has_slotsINS_15single_threadedEEE, 24
_ZTVN7sigslot9has_slotsINS_15single_threadedEEE:
	.long	0
	.long	_ZTIN7sigslot9has_slotsINS_15single_threadedEEE
	.long	_ZN7sigslot9has_slotsINS_15single_threadedEED1Ev
	.long	_ZN7sigslot9has_slotsINS_15single_threadedEED0Ev
	.long	_ZN7sigslot15single_threaded4lockEv
	.long	_ZN7sigslot15single_threaded6unlockEv
	.weak	_ZTVN7sigslot17_connection_base3IP10GuiElementiiNS_15single_threadedEEE
	.section	.rodata._ZTVN7sigslot17_connection_base3IP10GuiElementiiNS_15single_threadedEEE,"aG",@progbits,_ZTVN7sigslot17_connection_base3IP10GuiElementiiNS_15single_threadedEEE,comdat
	.align 3
	.type	_ZTVN7sigslot17_connection_base3IP10GuiElementiiNS_15single_threadedEEE, @object
	.size	_ZTVN7sigslot17_connection_base3IP10GuiElementiiNS_15single_threadedEEE, 32
_ZTVN7sigslot17_connection_base3IP10GuiElementiiNS_15single_threadedEEE:
	.long	0
	.long	_ZTIN7sigslot17_connection_base3IP10GuiElementiiNS_15single_threadedEEE
	.long	_ZN7sigslot17_connection_base3IP10GuiElementiiNS_15single_threadedEED1Ev
	.long	_ZN7sigslot17_connection_base3IP10GuiElementiiNS_15single_threadedEED0Ev
	.long	__cxa_pure_virtual
	.long	__cxa_pure_virtual
	.long	__cxa_pure_virtual
	.long	__cxa_pure_virtual
	.weak	_ZTVN7sigslot12_connection3I8HomeMenuP10GuiElementiiNS_15single_threadedEEE
	.section	.rodata._ZTVN7sigslot12_connection3I8HomeMenuP10GuiElementiiNS_15single_threadedEEE,"aG",@progbits,_ZTVN7sigslot12_connection3I8HomeMenuP10GuiElementiiNS_15single_threadedEEE,comdat
	.align 3
	.type	_ZTVN7sigslot12_connection3I8HomeMenuP10GuiElementiiNS_15single_threadedEEE, @object
	.size	_ZTVN7sigslot12_connection3I8HomeMenuP10GuiElementiiNS_15single_threadedEEE, 32
_ZTVN7sigslot12_connection3I8HomeMenuP10GuiElementiiNS_15single_threadedEEE:
	.long	0
	.long	_ZTIN7sigslot12_connection3I8HomeMenuP10GuiElementiiNS_15single_threadedEEE
	.long	_ZN7sigslot12_connection3I8HomeMenuP10GuiElementiiNS_15single_threadedEED1Ev
	.long	_ZN7sigslot12_connection3I8HomeMenuP10GuiElementiiNS_15single_threadedEED0Ev
	.long	_ZNK7sigslot12_connection3I8HomeMenuP10GuiElementiiNS_15single_threadedEE7getdestEv
	.long	_ZN7sigslot12_connection3I8HomeMenuP10GuiElementiiNS_15single_threadedEE4emitES3_ii
	.long	_ZN7sigslot12_connection3I8HomeMenuP10GuiElementiiNS_15single_threadedEE5cloneEv
	.long	_ZN7sigslot12_connection3I8HomeMenuP10GuiElementiiNS_15single_threadedEE9duplicateEPNS_9has_slotsIS4_EE
	.weak	_ZTVN7sigslot17_connection_base3IP9GuiButtoniRK6_POINTNS_15single_threadedEEE
	.section	.rodata._ZTVN7sigslot17_connection_base3IP9GuiButtoniRK6_POINTNS_15single_threadedEEE,"aG",@progbits,_ZTVN7sigslot17_connection_base3IP9GuiButtoniRK6_POINTNS_15single_threadedEEE,comdat
	.align 3
	.type	_ZTVN7sigslot17_connection_base3IP9GuiButtoniRK6_POINTNS_15single_threadedEEE, @object
	.size	_ZTVN7sigslot17_connection_base3IP9GuiButtoniRK6_POINTNS_15single_threadedEEE, 32
_ZTVN7sigslot17_connection_base3IP9GuiButtoniRK6_POINTNS_15single_threadedEEE:
	.long	0
	.long	_ZTIN7sigslot17_connection_base3IP9GuiButtoniRK6_POINTNS_15single_threadedEEE
	.long	_ZN7sigslot17_connection_base3IP9GuiButtoniRK6_POINTNS_15single_threadedEED1Ev
	.long	_ZN7sigslot17_connection_base3IP9GuiButtoniRK6_POINTNS_15single_threadedEED0Ev
	.long	__cxa_pure_virtual
	.long	__cxa_pure_virtual
	.long	__cxa_pure_virtual
	.long	__cxa_pure_virtual
	.weak	_ZTVN7sigslot12_connection3I8HomeMenuP9GuiButtoniRK6_POINTNS_15single_threadedEEE
	.section	.rodata._ZTVN7sigslot12_connection3I8HomeMenuP9GuiButtoniRK6_POINTNS_15single_threadedEEE,"aG",@progbits,_ZTVN7sigslot12_connection3I8HomeMenuP9GuiButtoniRK6_POINTNS_15single_threadedEEE,comdat
	.align 3
	.type	_ZTVN7sigslot12_connection3I8HomeMenuP9GuiButtoniRK6_POINTNS_15single_threadedEEE, @object
	.size	_ZTVN7sigslot12_connection3I8HomeMenuP9GuiButtoniRK6_POINTNS_15single_threadedEEE, 32
_ZTVN7sigslot12_connection3I8HomeMenuP9GuiButtoniRK6_POINTNS_15single_threadedEEE:
	.long	0
	.long	_ZTIN7sigslot12_connection3I8HomeMenuP9GuiButtoniRK6_POINTNS_15single_threadedEEE
	.long	_ZN7sigslot12_connection3I8HomeMenuP9GuiButtoniRK6_POINTNS_15single_threadedEED1Ev
	.long	_ZN7sigslot12_connection3I8HomeMenuP9GuiButtoniRK6_POINTNS_15single_threadedEED0Ev
	.long	_ZNK7sigslot12_connection3I8HomeMenuP9GuiButtoniRK6_POINTNS_15single_threadedEE7getdestEv
	.long	_ZN7sigslot12_connection3I8HomeMenuP9GuiButtoniRK6_POINTNS_15single_threadedEE4emitES3_iS6_
	.long	_ZN7sigslot12_connection3I8HomeMenuP9GuiButtoniRK6_POINTNS_15single_threadedEE5cloneEv
	.long	_ZN7sigslot12_connection3I8HomeMenuP9GuiButtoniRK6_POINTNS_15single_threadedEE9duplicateEPNS_9has_slotsIS7_EE
	.weak	_ZTIN7sigslot9has_slotsINS_15single_threadedEEE
	.section	.rodata._ZTIN7sigslot9has_slotsINS_15single_threadedEEE,"aG",@progbits,_ZTIN7sigslot9has_slotsINS_15single_threadedEEE,comdat
	.align 2
	.type	_ZTIN7sigslot9has_slotsINS_15single_threadedEEE, @object
	.size	_ZTIN7sigslot9has_slotsINS_15single_threadedEEE, 12
_ZTIN7sigslot9has_slotsINS_15single_threadedEEE:
	.long	_ZTVN10__cxxabiv120__si_class_type_infoE+8
	.long	_ZTSN7sigslot9has_slotsINS_15single_threadedEEE
	.long	_ZTIN7sigslot15single_threadedE
	.weak	_ZTIN7sigslot15single_threadedE
	.section	.sdata._ZTIN7sigslot15single_threadedE,"awG",@progbits,_ZTIN7sigslot15single_threadedE,comdat
	.align 2
	.type	_ZTIN7sigslot15single_threadedE, @object
	.size	_ZTIN7sigslot15single_threadedE, 8
_ZTIN7sigslot15single_threadedE:
	.long	_ZTVN10__cxxabiv117__class_type_infoE+8
	.long	_ZTSN7sigslot15single_threadedE
	.weak	_ZTIN7sigslot17_connection_base3IP10GuiElementiiNS_15single_threadedEEE
	.section	.sdata._ZTIN7sigslot17_connection_base3IP10GuiElementiiNS_15single_threadedEEE,"awG",@progbits,_ZTIN7sigslot17_connection_base3IP10GuiElementiiNS_15single_threadedEEE,comdat
	.align 2
	.type	_ZTIN7sigslot17_connection_base3IP10GuiElementiiNS_15single_threadedEEE, @object
	.size	_ZTIN7sigslot17_connection_base3IP10GuiElementiiNS_15single_threadedEEE, 8
_ZTIN7sigslot17_connection_base3IP10GuiElementiiNS_15single_threadedEEE:
	.long	_ZTVN10__cxxabiv117__class_type_infoE+8
	.long	_ZTSN7sigslot17_connection_base3IP10GuiElementiiNS_15single_threadedEEE
	.weak	_ZTIN7sigslot12_connection3I8HomeMenuP10GuiElementiiNS_15single_threadedEEE
	.section	.rodata._ZTIN7sigslot12_connection3I8HomeMenuP10GuiElementiiNS_15single_threadedEEE,"aG",@progbits,_ZTIN7sigslot12_connection3I8HomeMenuP10GuiElementiiNS_15single_threadedEEE,comdat
	.align 2
	.type	_ZTIN7sigslot12_connection3I8HomeMenuP10GuiElementiiNS_15single_threadedEEE, @object
	.size	_ZTIN7sigslot12_connection3I8HomeMenuP10GuiElementiiNS_15single_threadedEEE, 12
_ZTIN7sigslot12_connection3I8HomeMenuP10GuiElementiiNS_15single_threadedEEE:
	.long	_ZTVN10__cxxabiv120__si_class_type_infoE+8
	.long	_ZTSN7sigslot12_connection3I8HomeMenuP10GuiElementiiNS_15single_threadedEEE
	.long	_ZTIN7sigslot17_connection_base3IP10GuiElementiiNS_15single_threadedEEE
	.weak	_ZTIN7sigslot17_connection_base3IP9GuiButtoniRK6_POINTNS_15single_threadedEEE
	.section	.sdata._ZTIN7sigslot17_connection_base3IP9GuiButtoniRK6_POINTNS_15single_threadedEEE,"awG",@progbits,_ZTIN7sigslot17_connection_base3IP9GuiButtoniRK6_POINTNS_15single_threadedEEE,comdat
	.align 2
	.type	_ZTIN7sigslot17_connection_base3IP9GuiButtoniRK6_POINTNS_15single_threadedEEE, @object
	.size	_ZTIN7sigslot17_connection_base3IP9GuiButtoniRK6_POINTNS_15single_threadedEEE, 8
_ZTIN7sigslot17_connection_base3IP9GuiButtoniRK6_POINTNS_15single_threadedEEE:
	.long	_ZTVN10__cxxabiv117__class_type_infoE+8
	.long	_ZTSN7sigslot17_connection_base3IP9GuiButtoniRK6_POINTNS_15single_threadedEEE
	.weak	_ZTIN7sigslot12_connection3I8HomeMenuP9GuiButtoniRK6_POINTNS_15single_threadedEEE
	.section	.rodata._ZTIN7sigslot12_connection3I8HomeMenuP9GuiButtoniRK6_POINTNS_15single_threadedEEE,"aG",@progbits,_ZTIN7sigslot12_connection3I8HomeMenuP9GuiButtoniRK6_POINTNS_15single_threadedEEE,comdat
	.align 2
	.type	_ZTIN7sigslot12_connection3I8HomeMenuP9GuiButtoniRK6_POINTNS_15single_threadedEEE, @object
	.size	_ZTIN7sigslot12_connection3I8HomeMenuP9GuiButtoniRK6_POINTNS_15single_threadedEEE, 12
_ZTIN7sigslot12_connection3I8HomeMenuP9GuiButtoniRK6_POINTNS_15single_threadedEEE:
	.long	_ZTVN10__cxxabiv120__si_class_type_infoE+8
	.long	_ZTSN7sigslot12_connection3I8HomeMenuP9GuiButtoniRK6_POINTNS_15single_threadedEEE
	.long	_ZTIN7sigslot17_connection_base3IP9GuiButtoniRK6_POINTNS_15single_threadedEEE
	.weak	_ZTSN7sigslot9has_slotsINS_15single_threadedEEE
	.section	.rodata._ZTSN7sigslot9has_slotsINS_15single_threadedEEE,"aG",@progbits,_ZTSN7sigslot9has_slotsINS_15single_threadedEEE,comdat
	.align 2
	.type	_ZTSN7sigslot9has_slotsINS_15single_threadedEEE, @object
	.size	_ZTSN7sigslot9has_slotsINS_15single_threadedEEE, 44
_ZTSN7sigslot9has_slotsINS_15single_threadedEEE:
	.string	"N7sigslot9has_slotsINS_15single_threadedEEE"
	.weak	_ZTSN7sigslot15single_threadedE
	.section	.rodata._ZTSN7sigslot15single_threadedE,"aG",@progbits,_ZTSN7sigslot15single_threadedE,comdat
	.align 2
	.type	_ZTSN7sigslot15single_threadedE, @object
	.size	_ZTSN7sigslot15single_threadedE, 28
_ZTSN7sigslot15single_threadedE:
	.string	"N7sigslot15single_threadedE"
	.weak	_ZTSN7sigslot17_connection_base3IP10GuiElementiiNS_15single_threadedEEE
	.section	.rodata._ZTSN7sigslot17_connection_base3IP10GuiElementiiNS_15single_threadedEEE,"aG",@progbits,_ZTSN7sigslot17_connection_base3IP10GuiElementiiNS_15single_threadedEEE,comdat
	.align 2
	.type	_ZTSN7sigslot17_connection_base3IP10GuiElementiiNS_15single_threadedEEE, @object
	.size	_ZTSN7sigslot17_connection_base3IP10GuiElementiiNS_15single_threadedEEE, 68
_ZTSN7sigslot17_connection_base3IP10GuiElementiiNS_15single_threadedEEE:
	.string	"N7sigslot17_connection_base3IP10GuiElementiiNS_15single_threadedEEE"
	.weak	_ZTSN7sigslot12_connection3I8HomeMenuP10GuiElementiiNS_15single_threadedEEE
	.section	.rodata._ZTSN7sigslot12_connection3I8HomeMenuP10GuiElementiiNS_15single_threadedEEE,"aG",@progbits,_ZTSN7sigslot12_connection3I8HomeMenuP10GuiElementiiNS_15single_threadedEEE,comdat
	.align 2
	.type	_ZTSN7sigslot12_connection3I8HomeMenuP10GuiElementiiNS_15single_threadedEEE, @object
	.size	_ZTSN7sigslot12_connection3I8HomeMenuP10GuiElementiiNS_15single_threadedEEE, 72
_ZTSN7sigslot12_connection3I8HomeMenuP10GuiElementiiNS_15single_threadedEEE:
	.string	"N7sigslot12_connection3I8HomeMenuP10GuiElementiiNS_15single_threadedEEE"
	.weak	_ZTSN7sigslot17_connection_base3IP9GuiButtoniRK6_POINTNS_15single_threadedEEE
	.section	.rodata._ZTSN7sigslot17_connection_base3IP9GuiButtoniRK6_POINTNS_15single_threadedEEE,"aG",@progbits,_ZTSN7sigslot17_connection_base3IP9GuiButtoniRK6_POINTNS_15single_threadedEEE,comdat
	.align 2
	.type	_ZTSN7sigslot17_connection_base3IP9GuiButtoniRK6_POINTNS_15single_threadedEEE, @object
	.size	_ZTSN7sigslot17_connection_base3IP9GuiButtoniRK6_POINTNS_15single_threadedEEE, 74
_ZTSN7sigslot17_connection_base3IP9GuiButtoniRK6_POINTNS_15single_threadedEEE:
	.string	"N7sigslot17_connection_base3IP9GuiButtoniRK6_POINTNS_15single_threadedEEE"
	.weak	_ZTSN7sigslot12_connection3I8HomeMenuP9GuiButtoniRK6_POINTNS_15single_threadedEEE
	.section	.rodata._ZTSN7sigslot12_connection3I8HomeMenuP9GuiButtoniRK6_POINTNS_15single_threadedEEE,"aG",@progbits,_ZTSN7sigslot12_connection3I8HomeMenuP9GuiButtoniRK6_POINTNS_15single_threadedEEE,comdat
	.align 2
	.type	_ZTSN7sigslot12_connection3I8HomeMenuP9GuiButtoniRK6_POINTNS_15single_threadedEEE, @object
	.size	_ZTSN7sigslot12_connection3I8HomeMenuP9GuiButtoniRK6_POINTNS_15single_threadedEEE, 78
_ZTSN7sigslot12_connection3I8HomeMenuP9GuiButtoniRK6_POINTNS_15single_threadedEEE:
	.string	"N7sigslot12_connection3I8HomeMenuP9GuiButtoniRK6_POINTNS_15single_threadedEEE"
	.weak	_ZN7sigslot15single_threadedD1Ev
	.set	_ZN7sigslot15single_threadedD1Ev,_ZN7sigslot15single_threadedD2Ev
	.weak	_ZN7sigslot17_connection_base3IP9GuiButtoniRK6_POINTNS_15single_threadedEED1Ev
	.set	_ZN7sigslot17_connection_base3IP9GuiButtoniRK6_POINTNS_15single_threadedEED1Ev,_ZN7sigslot17_connection_base3IP9GuiButtoniRK6_POINTNS_15single_threadedEED2Ev
	.weak	_ZN7sigslot17_connection_base3IP10GuiElementiiNS_15single_threadedEED1Ev
	.set	_ZN7sigslot17_connection_base3IP10GuiElementiiNS_15single_threadedEED1Ev,_ZN7sigslot17_connection_base3IP10GuiElementiiNS_15single_threadedEED2Ev
	.weak	_ZN7sigslot12_connection3I8HomeMenuP10GuiElementiiNS_15single_threadedEED1Ev
	.set	_ZN7sigslot12_connection3I8HomeMenuP10GuiElementiiNS_15single_threadedEED1Ev,_ZN7sigslot12_connection3I8HomeMenuP10GuiElementiiNS_15single_threadedEED2Ev
	.weak	_ZN7sigslot12_connection3I8HomeMenuP9GuiButtoniRK6_POINTNS_15single_threadedEED1Ev
	.set	_ZN7sigslot12_connection3I8HomeMenuP9GuiButtoniRK6_POINTNS_15single_threadedEED1Ev,_ZN7sigslot12_connection3I8HomeMenuP9GuiButtoniRK6_POINTNS_15single_threadedEED2Ev
	.weak	_ZN7sigslot9has_slotsINS_15single_threadedEED1Ev
	.set	_ZN7sigslot9has_slotsINS_15single_threadedEED1Ev,_ZN7sigslot9has_slotsINS_15single_threadedEED2Ev
	.globl _ZN8HomeMenuD1Ev
	.set	_ZN8HomeMenuD1Ev,_ZN8HomeMenuD2Ev
	.set	.LTHUNK0,_ZN8HomeMenuD1Ev
	.set	.LTHUNK1,_ZN8HomeMenuD0Ev
	.globl _ZN8HomeMenuC1Ev
	.set	_ZN8HomeMenuC1Ev,_ZN8HomeMenuC2Ev
	.section	.rodata.cst4,"aM",@progbits,4
	.align 2
.LC1:
	.4byte	1501560836
.LC2:
	.4byte	1132396544
.LC3:
	.4byte	1056964608
.LC5:
	.4byte	1120403456
.LC7:
	.4byte	1082130432
	.section	.rodata.str1.4,"aMS",@progbits,1
	.align 2
.LC8:
	.string	"Settings"
	.zero	3
.LC9:
	.string	"Quit Settings"
	.zero	2
.LC10:
	.string	"Exit to where?"
	.zero	1
.LC11:
	.string	"Homebrew Channel"
	.zero	3
.LC12:
	.string	"Wii Menu"
	.zero	3
.LC13:
	.string	"Reset"
	.zero	2
.LC14:
	.string	"Cancel"
	.zero	1
.LC15:
	.string	"How to Shutdown?"
	.zero	3
.LC16:
	.string	"Full shutdown"
	.zero	2
.LC17:
	.string	"Standby"
.LC18:
	.string	"menuin.ogg"
	.zero	1
.LC19:
	.string	"menuout.ogg"
.LC20:
	.string	"button_click.wav"
	.zero	3
.LC21:
	.string	"button_over.wav"
.LC22:
	.string	"HOME Menu"
	.zero	2
.LC23:
	.string	"40 - homemenu title text size"
	.zero	2
.LC24:
	.string	"r=255 g=255 b=255 a=255 - homemenu main text color"
	.zero	1
.LC25:
	.string	"homemenu_top.png"
	.zero	3
.LC26:
	.string	"homemenu_top_over.png"
	.zero	2
.LC27:
	.string	"30 - homemenu main text size"
	.zero	3
.LC28:
	.string	"homemenu_bottom.png"
.LC29:
	.string	"homemenu_bottom_over.png"
	.zero	3
.LC30:
	.string	"Close"
	.zero	2
.LC31:
	.string	"28 - homemenu close text size"
	.zero	2
.LC32:
	.string	"r=0 g=0 b=0 a=255 - homemenu close text color"
	.zero	2
.LC33:
	.string	"homemenu_close.png"
	.zero	1
.LC34:
	.string	"26 - homemenu main button text size"
.LC35:
	.string	"r=0 g=0 b=0 a=255 - homemenu main button text color"
.LC36:
	.string	"Exit"
	.zero	3
.LC37:
	.string	"homemenu_button.png"
.LC38:
	.string	"Shutdown Wii"
	.zero	3
.LC39:
	.string	"homemenu_wiimote.png"
	.zero	3
.LC40:
	.string	"homemenu_settings_bg.png"
	.zero	3
.LC41:
	.string	"home_settings_button.png"
	.zero	3
.LC42:
	.string	"home_settings_button_over.png"
	.zero	2
.LC43:
	.string	"Rumble"
	.zero	1
.LC44:
	.string	"30 - homemenu settings text size"
	.zero	3
.LC45:
	.string	"r=255 g=255 b=255 a=255 - homemenu settings text color"
	.zero	1
.LC46:
	.string	"Yes"
.LC47:
	.string	"30 - homemenu settings button text size"
.LC48:
	.string	"r=0 g=0 b=0 a=255 - homemenu settings button text color"
.LC49:
	.string	"No"
	.zero	1
.LC50:
	.string	"homemenu_battery_bar_red.png"
	.zero	3
.LC51:
	.string	"homemenu_battery_bar_white.png"
	.zero	1
.LC52:
	.string	"homemenu_battery_red.png"
	.zero	3
.LC53:
	.string	"homemenu_battery_white.png"
	.zero	1
.LC54:
	.string	"P%d"
.LC55:
	.string	"22 - homemenu battery text size"
.LC56:
	.string	"r=255 g=255 b=255 a=255 - homemenu battery text color"
	.section	".text"
.Letext0:
	.file 16 "d:\\devkitpro\\devkitppc\\bin\\../lib/gcc/powerpc-eabi/4.6.3/../../../../powerpc-eabi/include/machine/_types.h"
	.file 17 "d:\\devkitpro\\devkitppc\\bin\\../lib/gcc/powerpc-eabi/4.6.3/../../../../powerpc-eabi/include/sys/lock.h"
	.file 18 "d:\\devkitpro\\devkitppc\\bin\\../lib/gcc/powerpc-eabi/4.6.3/include/stddef.h"
	.file 19 "d:\\devkitpro\\devkitppc\\bin\\../lib/gcc/powerpc-eabi/4.6.3/../../../../powerpc-eabi/include/sys/_types.h"
	.file 20 "d:\\devkitpro\\devkitppc\\bin\\../lib/gcc/powerpc-eabi/4.6.3/../../../../powerpc-eabi/include/c++/4.6.3/powerpc-eabi/bits/c++config.h"
	.file 21 "d:\\devkitpro\\devkitppc\\bin\\../lib/gcc/powerpc-eabi/4.6.3/../../../../powerpc-eabi/include/c++/4.6.3/cwchar"
	.file 22 "d:\\devkitpro\\devkitppc\\bin\\../lib/gcc/powerpc-eabi/4.6.3/../../../../powerpc-eabi/include/c++/4.6.3/clocale"
	.file 23 "d:\\devkitpro\\devkitppc\\bin\\../lib/gcc/powerpc-eabi/4.6.3/../../../../powerpc-eabi/include/c++/4.6.3/bits/basic_string.h"
	.file 24 "d:\\devkitpro\\devkitppc\\bin\\../lib/gcc/powerpc-eabi/4.6.3/../../../../powerpc-eabi/include/c++/4.6.3/bits/stringfwd.h"
	.file 25 "d:\\devkitpro\\devkitppc\\bin\\../lib/gcc/powerpc-eabi/4.6.3/../../../../powerpc-eabi/include/c++/4.6.3/bits/stl_construct.h"
	.file 26 "d:\\devkitpro\\devkitppc\\bin\\../lib/gcc/powerpc-eabi/4.6.3/../../../../powerpc-eabi/include/c++/4.6.3/bits/move.h"
	.file 27 "d:\\devkitpro\\devkitppc\\bin\\../lib/gcc/powerpc-eabi/4.6.3/../../../../powerpc-eabi/include/c++/4.6.3/bits/stl_uninitialized.h"
	.file 28 "d:\\devkitpro\\devkitppc\\bin\\../lib/gcc/powerpc-eabi/4.6.3/../../../../powerpc-eabi/include/c++/4.6.3/bits/cpp_type_traits.h"
	.file 29 "d:\\devkitpro\\devkitppc\\bin\\../lib/gcc/powerpc-eabi/4.6.3/../../../../powerpc-eabi/include/c++/4.6.3/debug/debug.h"
	.file 30 "d:\\devkitpro\\devkitppc\\bin\\../lib/gcc/powerpc-eabi/4.6.3/../../../../powerpc-eabi/include/c++/4.6.3/bits/allocator.h"
	.file 31 "d:\\devkitpro\\devkitppc\\bin\\../lib/gcc/powerpc-eabi/4.6.3/../../../../powerpc-eabi/include/c++/4.6.3/ext/numeric_traits.h"
	.file 32 "d:\\devkitpro\\devkitppc\\bin\\../lib/gcc/powerpc-eabi/4.6.3/../../../../powerpc-eabi/include/sys/reent.h"
	.file 33 "<built-in>"
	.file 34 "d:\\devkitpro\\devkitppc\\bin\\../lib/gcc/powerpc-eabi/4.6.3/../../../../powerpc-eabi/include/wchar.h"
	.file 35 "d:\\devkitpro\\devkitppc\\bin\\../lib/gcc/powerpc-eabi/4.6.3/../../../../powerpc-eabi/include/time.h"
	.file 36 "d:\\devkitpro\\devkitppc\\bin\\../lib/gcc/powerpc-eabi/4.6.3/../../../../powerpc-eabi/include/c++/4.6.3/bits/char_traits.h"
	.file 37 "d:\\devkitpro\\devkitppc\\bin\\../lib/gcc/powerpc-eabi/4.6.3/../../../../powerpc-eabi/include/locale.h"
	.file 38 "d:\\devkitpro\\devkitppc\\bin\\../lib/gcc/powerpc-eabi/4.6.3/../../../../powerpc-eabi/include/c++/4.6.3/powerpc-eabi/bits/atomic_word.h"
	.file 39 "d:\\devkitpro\\devkitppc\\bin\\../lib/gcc/powerpc-eabi/4.6.3/../../../../powerpc-eabi/include/c++/4.6.3/bits/basic_string.tcc"
	.file 40 "d:\\devkitpro\\devkitppc\\bin\\../lib/gcc/powerpc-eabi/4.6.3/../../../../powerpc-eabi/include/stdint.h"
	.file 41 "d:/devkitPro/libogc/include/gctypes.h"
	.file 42 "d:/devkitPro/libogc/include/ogc/lwp.h"
	.file 43 "d:/devkitPro/libogc/include/ogc/gx.h"
	.file 44 "d:\\devkitpro\\devkitppc\\bin\\../lib/gcc/powerpc-eabi/4.6.3/../../../../powerpc-eabi/include/stdio.h"
	.file 45 "d:\\devkitpro\\devkitppc\\bin\\../lib/gcc/powerpc-eabi/4.6.3/../../../../powerpc-eabi/include/c++/4.6.3/bits/stl_iterator_base_types.h"
	.file 46 "d:/Projects/SaveGameManager/savegame-manager-gx/trunk/source/Prompts/../SoundOperations/../GUI/../Settings/SettingsEnums.h"
	.file 47 "d:/Projects/SaveGameManager/savegame-manager-gx/trunk/source/Prompts/../SoundOperations/../GUI/../Settings/../FileOperations/FileExtensions.h"
	.file 48 "d:/Projects/SaveGameManager/savegame-manager-gx/trunk/source/Prompts/../SoundOperations/../GUI/../Settings/../Controls/AppControls.hpp"
	.file 49 "d:/Projects/SaveGameManager/savegame-manager-gx/trunk/source/Prompts/../SoundOperations/../GUI/../Settings/CSettings.h"
	.file 50 "d:\\devkitpro\\devkitppc\\bin\\../lib/gcc/powerpc-eabi/4.6.3/../../../../powerpc-eabi/include/c++/4.6.3/bits/list.tcc"
	.file 51 "d:\\devkitpro\\devkitppc\\bin\\../lib/gcc/powerpc-eabi/4.6.3/../../../../powerpc-eabi/include/c++/4.6.3/bits/stl_function.h"
	.file 52 "d:\\devkitpro\\devkitppc\\bin\\../lib/gcc/powerpc-eabi/4.6.3/../../../../powerpc-eabi/include/c++/4.6.3/bits/stl_pair.h"
	.file 53 "d:/Projects/SaveGameManager/savegame-manager-gx/trunk/source/Prompts/HomeMenu.h"
	.file 54 "d:/Projects/SaveGameManager/savegame-manager-gx/trunk/source/Prompts/../SoundOperations/../Controls/Thread.h"
	.file 55 "d:\\devkitpro\\devkitppc\\bin\\../lib/gcc/powerpc-eabi/4.6.3/../../../../powerpc-eabi/include/c++/4.6.3/new"
	.file 56 "d:/Projects/SaveGameManager/savegame-manager-gx/trunk/source/Prompts/../SoundOperations/../GUI/../stdafx.h"