   1              		.file	"HomeMenu.cpp"
   2              		.section	".text"
   3              	.Ltext0:
   4              		.section	.text._ZN7sigslot15single_threadedD2Ev,"axG",@progbits,_ZN7sigslot15single_threadedD5Ev,c
   5              		.align 2
   6              		.weak	_ZN7sigslot15single_threadedD2Ev
   7              		.type	_ZN7sigslot15single_threadedD2Ev, @function
   8              	_ZN7sigslot15single_threadedD2Ev:
   9              	.LFB1148:
  10              		.file 1 "d:/Projects/SaveGameManager/savegame-manager-gx/trunk/source/Prompts/../SoundOperations/.
  11              		.loc 1 104 0
  12              		.cfi_startproc
  13              	.LVL0:
  14              	.LBB2165:
  15              		.loc 1 105 0
  16 0000 3D200000 		lis 9,_ZTVN7sigslot15single_threadedE+8@ha
  17              	.LBE2165:
  18              		.loc 1 107 0
  19              	.LBB2166:
  20              		.loc 1 105 0
  21 0004 38090008 		la 0,_ZTVN7sigslot15single_threadedE+8@l(9)
  22 0008 90030000 		stw 0,0(3)
  23              	.LBE2166:
  24              		.loc 1 107 0
  25 000c 4E800020 		blr
  26              		.cfi_endproc
  27              	.LFE1148:
  28              		.size	_ZN7sigslot15single_threadedD2Ev, .-_ZN7sigslot15single_threadedD2Ev
  29              		.section	.text._ZN7sigslot15single_threaded4lockEv,"axG",@progbits,_ZN7sigslot15single_threaded4lo
  30              		.align 2
  31              		.weak	_ZN7sigslot15single_threaded4lockEv
  32              		.type	_ZN7sigslot15single_threaded4lockEv, @function
  33              	_ZN7sigslot15single_threaded4lockEv:
  34              	.LFB1151:
  35              		.loc 1 109 0
  36              		.cfi_startproc
  37              	.LVL1:
  38              		.loc 1 112 0
  39 0000 4E800020 		blr
  40              		.cfi_endproc
  41              	.LFE1151:
  42              		.size	_ZN7sigslot15single_threaded4lockEv, .-_ZN7sigslot15single_threaded4lockEv
  43              		.section	.text._ZN7sigslot15single_threaded6unlockEv,"axG",@progbits,_ZN7sigslot15single_threaded6
  44              		.align 2
  45              		.weak	_ZN7sigslot15single_threaded6unlockEv
  46              		.type	_ZN7sigslot15single_threaded6unlockEv, @function
  47              	_ZN7sigslot15single_threaded6unlockEv:
  48              	.LFB1152:
  49              		.loc 1 114 0
  50              		.cfi_startproc
  51              	.LVL2:
  52              		.loc 1 117 0
  53 0000 4E800020 		blr
  54              		.cfi_endproc
  55              	.LFE1152:
  56              		.size	_ZN7sigslot15single_threaded6unlockEv, .-_ZN7sigslot15single_threaded6unlockEv
  57              		.section	.text._ZN10GuiElement9SetParentEPS_,"axG",@progbits,_ZN10GuiElement9SetParentEPS_,comdat
  58              		.align 2
  59              		.weak	_ZN10GuiElement9SetParentEPS_
  60              		.type	_ZN10GuiElement9SetParentEPS_, @function
  61              	_ZN10GuiElement9SetParentEPS_:
  62              	.LFB1384:
  63              		.file 2 "d:/Projects/SaveGameManager/savegame-manager-gx/trunk/source/Prompts/../SoundOperations/.
  64              		.loc 2 92 0
  65              		.cfi_startproc
  66              	.LVL3:
  67              		.loc 2 92 0
  68 0000 90830060 		stw 4,96(3)
  69 0004 4E800020 		blr
  70              		.cfi_endproc
  71              	.LFE1384:
  72              		.size	_ZN10GuiElement9SetParentEPS_, .-_ZN10GuiElement9SetParentEPS_
  73              		.section	.text._ZN10GuiElement9GetParentEv,"axG",@progbits,_ZN10GuiElement9GetParentEv,comdat
  74              		.align 2
  75              		.weak	_ZN10GuiElement9GetParentEv
  76              		.type	_ZN10GuiElement9GetParentEv, @function
  77              	_ZN10GuiElement9GetParentEv:
  78              	.LFB1385:
  79              		.loc 2 95 0
  80              		.cfi_startproc
  81              	.LVL4:
  82              		.loc 2 95 0
  83 0000 80630060 		lwz 3,96(3)
  84              	.LVL5:
  85 0004 4E800020 		blr
  86              		.cfi_endproc
  87              	.LFE1385:
  88              		.size	_ZN10GuiElement9GetParentEv, .-_ZN10GuiElement9GetParentEv
  89              		.section	.text._ZN10GuiElement12GetZPositionEv,"axG",@progbits,_ZN10GuiElement12GetZPositionEv,com
  90              		.align 2
  91              		.weak	_ZN10GuiElement12GetZPositionEv
  92              		.type	_ZN10GuiElement12GetZPositionEv, @function
  93              	_ZN10GuiElement12GetZPositionEv:
  94              	.LFB1386:
  95              		.loc 2 106 0
  96              		.cfi_startproc
  97              	.LVL6:
  98 0000 7C0802A6 		mflr 0
  99 0004 9421FFF0 		stwu 1,-16(1)
 100              	.LCFI0:
 101              		.cfi_def_cfa_offset 16
 102              		.cfi_register 65, 0
 103 0008 93E1000C 		stw 31,12(1)
 104 000c 7C7F1B78 		mr 31,3
 105              		.cfi_offset 31, -4
 106 0010 90010014 		stw 0,20(1)
 107              	.LBB2167:
 108              		.loc 2 110 0
 109 0014 81630060 		lwz 11,96(3)
 110              		.loc 2 108 0
 111 0018 38600000 		li 3,0
 112              	.LVL7:
 113              		.loc 2 110 0
 114 001c 2F8B0000 		cmpwi 7,11,0
 115 0020 419E0018 		beq- 7,.L8
 116              		.cfi_offset 65, 4
 117              		.loc 2 111 0
 118 0024 812B0000 		lwz 9,0(11)
 119 0028 7D635B78 		mr 3,11
 120 002c 80090018 		lwz 0,24(9)
 121 0030 7C0903A6 		mtctr 0
 122 0034 4E800421 		bctrl
 123              	.LVL8:
 124              	.L8:
 125              		.loc 2 113 0
 126 0038 801F0034 		lwz 0,52(31)
 127              	.LBE2167:
 128              		.loc 2 114 0
 129 003c 83E1000C 		lwz 31,12(1)
 130              	.LVL9:
 131 0040 7C630214 		add 3,3,0
 132              	.LVL10:
 133 0044 80010014 		lwz 0,20(1)
 134 0048 38210010 		addi 1,1,16
 135              	.LCFI1:
 136              		.cfi_def_cfa_offset 0
 137              		.cfi_restore 31
 138 004c 7C0803A6 		mtlr 0
 139 0050 4E800020 		blr
 140              		.cfi_endproc
 141              	.LFE1386:
 142              		.size	_ZN10GuiElement12GetZPositionEv, .-_ZN10GuiElement12GetZPositionEv
 143              		.section	.text._ZN10GuiElement10GetLeftPosEv,"axG",@progbits,_ZN10GuiElement10GetLeftPosEv,comdat
 144              		.align 2
 145              		.weak	_ZN10GuiElement10GetLeftPosEv
 146              		.type	_ZN10GuiElement10GetLeftPosEv, @function
 147              	_ZN10GuiElement10GetLeftPosEv:
 148              	.LFB1387:
 149              		.loc 2 116 0
 150              		.cfi_startproc
 151              	.LVL11:
 152              		.loc 2 116 0
 153 0000 8063002C 		lwz 3,44(3)
 154              	.LVL12:
 155 0004 4E800020 		blr
 156              		.cfi_endproc
 157              	.LFE1387:
 158              		.size	_ZN10GuiElement10GetLeftPosEv, .-_ZN10GuiElement10GetLeftPosEv
 159              		.section	.text._ZN10GuiElement9GetTopPosEv,"axG",@progbits,_ZN10GuiElement9GetTopPosEv,comdat
 160              		.align 2
 161              		.weak	_ZN10GuiElement9GetTopPosEv
 162              		.type	_ZN10GuiElement9GetTopPosEv, @function
 163              	_ZN10GuiElement9GetTopPosEv:
 164              	.LFB1388:
 165              		.loc 2 118 0
 166              		.cfi_startproc
 167              	.LVL13:
 168              		.loc 2 118 0
 169 0000 80630030 		lwz 3,48(3)
 170              	.LVL14:
 171 0004 4E800020 		blr
 172              		.cfi_endproc
 173              	.LFE1388:
 174              		.size	_ZN10GuiElement9GetTopPosEv, .-_ZN10GuiElement9GetTopPosEv
 175              		.section	.text._ZN10GuiElement8GetWidthEv,"axG",@progbits,_ZN10GuiElement8GetWidthEv,comdat
 176              		.align 2
 177              		.weak	_ZN10GuiElement8GetWidthEv
 178              		.type	_ZN10GuiElement8GetWidthEv, @function
 179              	_ZN10GuiElement8GetWidthEv:
 180              	.LFB1389:
 181              		.loc 2 121 0
 182              		.cfi_startproc
 183              	.LVL15:
 184              		.loc 2 121 0
 185 0000 80630024 		lwz 3,36(3)
 186              	.LVL16:
 187 0004 4E800020 		blr
 188              		.cfi_endproc
 189              	.LFE1389:
 190              		.size	_ZN10GuiElement8GetWidthEv, .-_ZN10GuiElement8GetWidthEv
 191              		.section	.text._ZN10GuiElement9GetHeightEv,"axG",@progbits,_ZN10GuiElement9GetHeightEv,comdat
 192              		.align 2
 193              		.weak	_ZN10GuiElement9GetHeightEv
 194              		.type	_ZN10GuiElement9GetHeightEv, @function
 195              	_ZN10GuiElement9GetHeightEv:
 196              	.LFB1390:
 197              		.loc 2 124 0
 198              		.cfi_startproc
 199              	.LVL17:
 200              		.loc 2 124 0
 201 0000 80630028 		lwz 3,40(3)
 202              	.LVL18:
 203 0004 4E800020 		blr
 204              		.cfi_endproc
 205              	.LFE1390:
 206              		.size	_ZN10GuiElement9GetHeightEv, .-_ZN10GuiElement9GetHeightEv
 207              		.section	.text._ZN10GuiElement7SetSizeEii,"axG",@progbits,_ZN10GuiElement7SetSizeEii,comdat
 208              		.align 2
 209              		.weak	_ZN10GuiElement7SetSizeEii
 210              		.type	_ZN10GuiElement7SetSizeEii, @function
 211              	_ZN10GuiElement7SetSizeEii:
 212              	.LFB1391:
 213              		.loc 2 128 0
 214              		.cfi_startproc
 215              	.LVL19:
 216              		.loc 2 130 0
 217 0000 90830024 		stw 4,36(3)
 218              		.loc 2 132 0
 219              		.loc 2 131 0
 220 0004 90A30028 		stw 5,40(3)
 221              		.loc 2 132 0
 222 0008 4E800020 		blr
 223              		.cfi_endproc
 224              	.LFE1391:
 225              		.size	_ZN10GuiElement7SetSizeEii, .-_ZN10GuiElement7SetSizeEii
 226              		.section	.text._ZN10GuiElement9IsVisibleEv,"axG",@progbits,_ZN10GuiElement9IsVisibleEv,comdat
 227              		.align 2
 228              		.weak	_ZN10GuiElement9IsVisibleEv
 229              		.type	_ZN10GuiElement9IsVisibleEv, @function
 230              	_ZN10GuiElement9IsVisibleEv:
 231              	.LFB1393:
 232              		.loc 2 142 0
 233              		.cfi_startproc
 234              	.LVL20:
 235              		.loc 2 142 0
 236 0000 8863001D 		lbz 3,29(3)
 237              	.LVL21:
 238 0004 4E800020 		blr
 239              		.cfi_endproc
 240              	.LFE1393:
 241              		.size	_ZN10GuiElement9IsVisibleEv, .-_ZN10GuiElement9IsVisibleEv
 242              		.section	.text._ZN10GuiElement12IsSelectableEv,"axG",@progbits,_ZN10GuiElement12IsSelectableEv,com
 243              		.align 2
 244              		.weak	_ZN10GuiElement12IsSelectableEv
 245              		.type	_ZN10GuiElement12IsSelectableEv, @function
 246              	_ZN10GuiElement12IsSelectableEv:
 247              	.LFB1394:
 248              		.loc 2 145 0
 249              		.cfi_startproc
 250              	.LVL22:
 251              		.loc 2 149 0
 252 0000 80030048 		lwz 0,72(3)
 253 0004 39200000 		li 9,0
 254 0008 2F800004 		cmpwi 7,0,4
 255 000c 419E0010 		beq- 7,.L18
 256              		.loc 2 149 0 is_stmt 0 discriminator 1
 257 0010 2F800002 		cmpwi 7,0,2
 258 0014 419E0008 		beq- 7,.L18
 259              		.loc 2 149 0 discriminator 3
 260 0018 8923001E 		lbz 9,30(3)
 261              	.L18:
 262              		.loc 2 150 0 is_stmt 1 discriminator 5
 263 001c 7D234B78 		mr 3,9
 264              	.LVL23:
 265 0020 4E800020 		blr
 266              		.cfi_endproc
 267              	.LFE1394:
 268              		.size	_ZN10GuiElement12IsSelectableEv, .-_ZN10GuiElement12IsSelectableEv
 269              		.section	.text._ZN10GuiElement11IsClickableEv,"axG",@progbits,_ZN10GuiElement11IsClickableEv,comda
 270              		.align 2
 271              		.weak	_ZN10GuiElement11IsClickableEv
 272              		.type	_ZN10GuiElement11IsClickableEv, @function
 273              	_ZN10GuiElement11IsClickableEv:
 274              	.LFB1395:
 275              		.loc 2 153 0
 276              		.cfi_startproc
 277              	.LVL24:
 278              		.loc 2 158 0
 279 0000 80030048 		lwz 0,72(3)
 280 0004 39200000 		li 9,0
 281 0008 2F800004 		cmpwi 7,0,4
 282 000c 419E0018 		beq- 7,.L22
 283              		.loc 2 158 0 is_stmt 0 discriminator 1
 284 0010 2F800002 		cmpwi 7,0,2
 285 0014 419E0010 		beq- 7,.L22
 286              		.loc 2 158 0 discriminator 3
 287 0018 2F800003 		cmpwi 7,0,3
 288 001c 419E0008 		beq- 7,.L22
 289              		.loc 2 158 0 discriminator 4
 290 0020 8923001F 		lbz 9,31(3)
 291              	.L22:
 292              		.loc 2 159 0 is_stmt 1 discriminator 6
 293 0024 7D234B78 		mr 3,9
 294              	.LVL25:
 295 0028 4E800020 		blr
 296              		.cfi_endproc
 297              	.LFE1395:
 298              		.size	_ZN10GuiElement11IsClickableEv, .-_ZN10GuiElement11IsClickableEv
 299              		.section	.text._ZN10GuiElement10IsHoldableEv,"axG",@progbits,_ZN10GuiElement10IsHoldableEv,comdat
 300              		.align 2
 301              		.weak	_ZN10GuiElement10IsHoldableEv
 302              		.type	_ZN10GuiElement10IsHoldableEv, @function
 303              	_ZN10GuiElement10IsHoldableEv:
 304              	.LFB1396:
 305              		.loc 2 162 0
 306              		.cfi_startproc
 307              	.LVL26:
 308              		.loc 2 162 0
 309 0000 81230048 		lwz 9,72(3)
 310 0004 38000000 		li 0,0
 311 0008 2F890004 		cmpwi 7,9,4
 312 000c 419E0008 		beq- 7,.L27
 313              		.loc 2 162 0 is_stmt 0 discriminator 1
 314 0010 88030020 		lbz 0,32(3)
 315              	.L27:
 316              		.loc 2 162 0 discriminator 4
 317 0014 7C030378 		mr 3,0
 318              	.LVL27:
 319 0018 4E800020 		blr
 320              		.cfi_endproc
 321              	.LFE1396:
 322              		.size	_ZN10GuiElement10IsHoldableEv, .-_ZN10GuiElement10IsHoldableEv
 323              		.section	.text._ZN10GuiElement13SetSelectableEb,"axG",@progbits,_ZN10GuiElement13SetSelectableEb,c
 324              		.align 2
 325              		.weak	_ZN10GuiElement13SetSelectableEb
 326              		.type	_ZN10GuiElement13SetSelectableEb, @function
 327              	_ZN10GuiElement13SetSelectableEb:
 328              	.LFB1397:
 329              		.loc 2 165 0 is_stmt 1
 330              		.cfi_startproc
 331              	.LVL28:
 332              		.loc 2 165 0
 333 0000 9883001E 		stb 4,30(3)
 334 0004 4E800020 		blr
 335              		.cfi_endproc
 336              	.LFE1397:
 337              		.size	_ZN10GuiElement13SetSelectableEb, .-_ZN10GuiElement13SetSelectableEb
 338              		.section	.text._ZN10GuiElement12SetClickableEb,"axG",@progbits,_ZN10GuiElement12SetClickableEb,com
 339              		.align 2
 340              		.weak	_ZN10GuiElement12SetClickableEb
 341              		.type	_ZN10GuiElement12SetClickableEb, @function
 342              	_ZN10GuiElement12SetClickableEb:
 343              	.LFB1398:
 344              		.loc 2 168 0
 345              		.cfi_startproc
 346              	.LVL29:
 347              		.loc 2 168 0
 348 0000 9883001F 		stb 4,31(3)
 349 0004 4E800020 		blr
 350              		.cfi_endproc
 351              	.LFE1398:
 352              		.size	_ZN10GuiElement12SetClickableEb, .-_ZN10GuiElement12SetClickableEb
 353              		.section	.text._ZN10GuiElement11SetHoldableEb,"axG",@progbits,_ZN10GuiElement11SetHoldableEb,comda
 354              		.align 2
 355              		.weak	_ZN10GuiElement11SetHoldableEb
 356              		.type	_ZN10GuiElement11SetHoldableEb, @function
 357              	_ZN10GuiElement11SetHoldableEb:
 358              	.LFB1399:
 359              		.loc 2 171 0
 360              		.cfi_startproc
 361              	.LVL30:
 362              		.loc 2 171 0
 363 0000 98830020 		stb 4,32(3)
 364 0004 4E800020 		blr
 365              		.cfi_endproc
 366              	.LFE1399:
 367              		.size	_ZN10GuiElement11SetHoldableEb, .-_ZN10GuiElement11SetHoldableEb
 368              		.section	.text._ZN10GuiElement8GetStateEv,"axG",@progbits,_ZN10GuiElement8GetStateEv,comdat
 369              		.align 2
 370              		.weak	_ZN10GuiElement8GetStateEv
 371              		.type	_ZN10GuiElement8GetStateEv, @function
 372              	_ZN10GuiElement8GetStateEv:
 373              	.LFB1400:
 374              		.loc 2 178 0
 375              		.cfi_startproc
 376              	.LVL31:
 377              		.loc 2 178 0
 378 0000 80630048 		lwz 3,72(3)
 379              	.LVL32:
 380 0004 4E800020 		blr
 381              		.cfi_endproc
 382              	.LFE1400:
 383              		.size	_ZN10GuiElement8GetStateEv, .-_ZN10GuiElement8GetStateEv
 384              		.section	.text._ZN10GuiElement12GetStateChanEv,"axG",@progbits,_ZN10GuiElement12GetStateChanEv,com
 385              		.align 2
 386              		.weak	_ZN10GuiElement12GetStateChanEv
 387              		.type	_ZN10GuiElement12GetStateChanEv, @function
 388              	_ZN10GuiElement12GetStateChanEv:
 389              	.LFB1401:
 390              		.loc 2 181 0
 391              		.cfi_startproc
 392              	.LVL33:
 393              		.loc 2 181 0
 394 0000 8063004C 		lwz 3,76(3)
 395              	.LVL34:
 396 0004 4E800020 		blr
 397              		.cfi_endproc
 398              	.LFE1401:
 399              		.size	_ZN10GuiElement12GetStateChanEv, .-_ZN10GuiElement12GetStateChanEv
 400              		.section	.text._ZN10GuiElement8SetAlphaEi,"axG",@progbits,_ZN10GuiElement8SetAlphaEi,comdat
 401              		.align 2
 402              		.weak	_ZN10GuiElement8SetAlphaEi
 403              		.type	_ZN10GuiElement8SetAlphaEi, @function
 404              	_ZN10GuiElement8SetAlphaEi:
 405              	.LFB1403:
 406              		.loc 2 190 0
 407              		.cfi_startproc
 408              	.LVL35:
 409              		.loc 2 190 0
 410 0000 90830038 		stw 4,56(3)
 411 0004 4E800020 		blr
 412              		.cfi_endproc
 413              	.LFE1403:
 414              		.size	_ZN10GuiElement8SetAlphaEi, .-_ZN10GuiElement8SetAlphaEi
 415              		.section	.text._ZN10GuiElement8GetAlphaEv,"axG",@progbits,_ZN10GuiElement8GetAlphaEv,comdat
 416              		.align 2
 417              		.weak	_ZN10GuiElement8GetAlphaEv
 418              		.type	_ZN10GuiElement8GetAlphaEv, @function
 419              	_ZN10GuiElement8GetAlphaEv:
 420              	.LFB1404:
 421              		.loc 2 194 0
 422              		.cfi_startproc
 423              	.LVL36:
 424 0000 7C0802A6 		mflr 0
 425 0004 9421FFD8 		stwu 1,-40(1)
 426              	.LCFI2:
 427              		.cfi_def_cfa_offset 40
 428              		.cfi_register 65, 0
 429 0008 93E10024 		stw 31,36(1)
 430 000c 9001002C 		stw 0,44(1)
 431              	.LBB2168:
 432              		.loc 2 198 0
 433 0010 83E3006C 		lwz 31,108(3)
 434              		.cfi_offset 65, 4
 435              		.cfi_offset 31, -4
 436 0014 2F9F0000 		cmpwi 7,31,0
 437 0018 419C0094 		blt- 7,.L38
 438              	.L36:
 439              	.LVL37:
 440              		.loc 2 203 0
 441 001c 80630060 		lwz 3,96(3)
 442              	.LVL38:
 443 0020 2F830000 		cmpwi 7,3,0
 444 0024 419E0070 		beq- 7,.L37
 445              		.loc 2 204 0
 446 0028 81230000 		lwz 9,0(3)
 447 002c 6FFF8000 		xoris 31,31,0x8000
 448              	.LVL39:
 449 0030 80090064 		lwz 0,100(9)
 450 0034 7C0903A6 		mtctr 0
 451 0038 4E800421 		bctrl
 452 003c 3C004330 		lis 0,0x4330
 453 0040 6C638000 		xoris 3,3,0x8000
 454 0044 90010010 		stw 0,16(1)
 455 0048 90610014 		stw 3,20(1)
 456 004c 3D200000 		lis 9,.LC1@ha
 457 0050 C0090000 		lfs 0,.LC1@l(9)
 458 0054 3D200000 		lis 9,.LC2@ha
 459 0058 C9A10010 		lfd 13,16(1)
 460 005c C1890004 		lfs 12,.LC2@l(9)
 461 0060 39210018 		addi 9,1,24
 462 0064 FDAD0028 		fsub 13,13,0
 463 0068 93E1000C 		stw 31,12(1)
 464 006c 90010008 		stw 0,8(1)
 465 0070 FDA06818 		frsp 13,13
 466 0074 EDAD6024 		fdivs 13,13,12
 467 0078 C9810008 		lfd 12,8(1)
 468 007c FC0C0028 		fsub 0,12,0
 469 0080 FC000018 		frsp 0,0
 470 0084 EC000372 		fmuls 0,0,13
 471 0088 FC00001E 		fctiwz 0,0
 472 008c 7C004FAE 		stfiwx 0,0,9
 473 0090 83E10018 		lwz 31,24(1)
 474              	.LVL40:
 475              	.L37:
 476              	.LBE2168:
 477              		.loc 2 207 0
 478 0094 8001002C 		lwz 0,44(1)
 479 0098 7FE3FB78 		mr 3,31
 480 009c 83E10024 		lwz 31,36(1)
 481              	.LVL41:
 482 00a0 7C0803A6 		mtlr 0
 483 00a4 38210028 		addi 1,1,40
 484              		.cfi_remember_state
 485              	.LCFI3:
 486              		.cfi_def_cfa_offset 0
 487              		.cfi_restore 31
 488 00a8 4E800020 		blr
 489              	.LVL42:
 490              	.L38:
 491              	.LCFI4:
 492              		.cfi_restore_state
 493              	.LBB2169:
 494              		.loc 2 201 0
 495 00ac 83E30038 		lwz 31,56(3)
 496              	.LVL43:
 497 00b0 4BFFFF6C 		b .L36
 498              	.LBE2169:
 499              		.cfi_endproc
 500              	.LFE1404:
 501              		.size	_ZN10GuiElement8GetAlphaEv, .-_ZN10GuiElement8GetAlphaEv
 502              		.section	.text._ZN10GuiElement8SetScaleEf,"axG",@progbits,_ZN10GuiElement8SetScaleEf,comdat
 503              		.align 2
 504              		.weak	_ZN10GuiElement8SetScaleEf
 505              		.type	_ZN10GuiElement8SetScaleEf, @function
 506              	_ZN10GuiElement8SetScaleEf:
 507              	.LFB1405:
 508              		.loc 2 210 0
 509              		.cfi_startproc
 510              	.LVL44:
 511              		.loc 2 212 0
 512 0000 D023003C 		stfs 1,60(3)
 513              		.loc 2 214 0
 514              		.loc 2 213 0
 515 0004 D0230040 		stfs 1,64(3)
 516              		.loc 2 214 0
 517 0008 4E800020 		blr
 518              		.cfi_endproc
 519              	.LFE1405:
 520              		.size	_ZN10GuiElement8SetScaleEf, .-_ZN10GuiElement8SetScaleEf
 521              		.section	.text._ZN10GuiElement9SetScaleXEf,"axG",@progbits,_ZN10GuiElement9SetScaleXEf,comdat
 522              		.align 2
 523              		.weak	_ZN10GuiElement9SetScaleXEf
 524              		.type	_ZN10GuiElement9SetScaleXEf, @function
 525              	_ZN10GuiElement9SetScaleXEf:
 526              	.LFB1406:
 527              		.loc 2 217 0
 528              		.cfi_startproc
 529              	.LVL45:
 530              		.loc 2 217 0
 531 0000 D023003C 		stfs 1,60(3)
 532 0004 4E800020 		blr
 533              		.cfi_endproc
 534              	.LFE1406:
 535              		.size	_ZN10GuiElement9SetScaleXEf, .-_ZN10GuiElement9SetScaleXEf
 536              		.section	.text._ZN10GuiElement9SetScaleYEf,"axG",@progbits,_ZN10GuiElement9SetScaleYEf,comdat
 537              		.align 2
 538              		.weak	_ZN10GuiElement9SetScaleYEf
 539              		.type	_ZN10GuiElement9SetScaleYEf, @function
 540              	_ZN10GuiElement9SetScaleYEf:
 541              	.LFB1407:
 542              		.loc 2 220 0
 543              		.cfi_startproc
 544              	.LVL46:
 545              		.loc 2 220 0
 546 0000 D0230040 		stfs 1,64(3)
 547 0004 4E800020 		blr
 548              		.cfi_endproc
 549              	.LFE1407:
 550              		.size	_ZN10GuiElement9SetScaleYEf, .-_ZN10GuiElement9SetScaleYEf
 551              		.section	.text._ZN10GuiElement8GetScaleEv,"axG",@progbits,_ZN10GuiElement8GetScaleEv,comdat
 552              		.align 2
 553              		.weak	_ZN10GuiElement8GetScaleEv
 554              		.type	_ZN10GuiElement8GetScaleEv, @function
 555              	_ZN10GuiElement8GetScaleEv:
 556              	.LFB1408:
 557              		.loc 2 223 0
 558              		.cfi_startproc
 559              	.LVL47:
 560 0000 7C0802A6 		mflr 0
 561 0004 9421FFF0 		stwu 1,-16(1)
 562              	.LCFI5:
 563              		.cfi_def_cfa_offset 16
 564              		.cfi_register 65, 0
 565              	.LBB2170:
 566              		.loc 2 225 0
 567 0008 3D200000 		lis 9,.LC3@ha
 568              	.LBE2170:
 569              		.loc 2 223 0
 570 000c DBE10008 		stfd 31,8(1)
 571 0010 90010014 		stw 0,20(1)
 572              	.LBB2171:
 573              		.loc 2 225 0
 574 0014 C0030040 		lfs 0,64(3)
 575 0018 C3E3003C 		lfs 31,60(3)
 576              		.cfi_offset 65, 4
 577              		.cfi_offset 63, -8
 578              		.loc 2 227 0
 579 001c 81630060 		lwz 11,96(3)
 580              		.loc 2 225 0
 581 0020 EFFF002A 		fadds 31,31,0
 582 0024 C0090008 		lfs 0,.LC3@l(9)
 583              		.loc 2 227 0
 584 0028 2F8B0000 		cmpwi 7,11,0
 585              		.loc 2 225 0
 586 002c EFFF0032 		fmuls 31,31,0
 587 0030 C0030070 		lfs 0,112(3)
 588 0034 EFFF0032 		fmuls 31,31,0
 589              	.LVL48:
 590              		.loc 2 227 0
 591 0038 419E001C 		beq- 7,.L43
 592              		.loc 2 228 0
 593 003c 812B0000 		lwz 9,0(11)
 594 0040 7D635B78 		mr 3,11
 595              	.LVL49:
 596 0044 80090074 		lwz 0,116(9)
 597 0048 7C0903A6 		mtctr 0
 598 004c 4E800421 		bctrl
 599 0050 EFFF0072 		fmuls 31,31,1
 600              	.LVL50:
 601              	.L43:
 602              	.LBE2171:
 603              		.loc 2 231 0
 604 0054 80010014 		lwz 0,20(1)
 605 0058 FC20F890 		fmr 1,31
 606 005c CBE10008 		lfd 31,8(1)
 607              	.LVL51:
 608 0060 7C0803A6 		mtlr 0
 609 0064 38210010 		addi 1,1,16
 610              	.LCFI6:
 611              		.cfi_def_cfa_offset 0
 612              		.cfi_restore 63
 613 0068 4E800020 		blr
 614              		.cfi_endproc
 615              	.LFE1408:
 616              		.size	_ZN10GuiElement8GetScaleEv, .-_ZN10GuiElement8GetScaleEv
 617              		.section	.text._ZN10GuiElement9GetScaleXEv,"axG",@progbits,_ZN10GuiElement9GetScaleXEv,comdat
 618              		.align 2
 619              		.weak	_ZN10GuiElement9GetScaleXEv
 620              		.type	_ZN10GuiElement9GetScaleXEv, @function
 621              	_ZN10GuiElement9GetScaleXEv:
 622              	.LFB1409:
 623              		.loc 2 234 0
 624              		.cfi_startproc
 625              	.LVL52:
 626 0000 7C0802A6 		mflr 0
 627 0004 9421FFF0 		stwu 1,-16(1)
 628              	.LCFI7:
 629              		.cfi_def_cfa_offset 16
 630              		.cfi_register 65, 0
 631 0008 DBE10008 		stfd 31,8(1)
 632 000c 90010014 		stw 0,20(1)
 633              	.LBB2172:
 634              		.loc 2 238 0
 635 0010 81630060 		lwz 11,96(3)
 636              		.loc 2 236 0
 637 0014 C3E3003C 		lfs 31,60(3)
 638              		.cfi_offset 65, 4
 639              		.cfi_offset 63, -8
 640              		.loc 2 238 0
 641 0018 2F8B0000 		cmpwi 7,11,0
 642              		.loc 2 236 0
 643 001c C0030070 		lfs 0,112(3)
 644 0020 EFFF0032 		fmuls 31,31,0
 645              	.LVL53:
 646              		.loc 2 238 0
 647 0024 419E001C 		beq- 7,.L45
 648              		.loc 2 239 0
 649 0028 812B0000 		lwz 9,0(11)
 650 002c 7D635B78 		mr 3,11
 651              	.LVL54:
 652 0030 80090078 		lwz 0,120(9)
 653 0034 7C0903A6 		mtctr 0
 654 0038 4E800421 		bctrl
 655 003c EFFF0072 		fmuls 31,31,1
 656              	.LVL55:
 657              	.L45:
 658              	.LBE2172:
 659              		.loc 2 242 0
 660 0040 80010014 		lwz 0,20(1)
 661 0044 FC20F890 		fmr 1,31
 662 0048 CBE10008 		lfd 31,8(1)
 663              	.LVL56:
 664 004c 7C0803A6 		mtlr 0
 665 0050 38210010 		addi 1,1,16
 666              	.LCFI8:
 667              		.cfi_def_cfa_offset 0
 668              		.cfi_restore 63
 669 0054 4E800020 		blr
 670              		.cfi_endproc
 671              	.LFE1409:
 672              		.size	_ZN10GuiElement9GetScaleXEv, .-_ZN10GuiElement9GetScaleXEv
 673              		.section	.text._ZN10GuiElement9GetScaleYEv,"axG",@progbits,_ZN10GuiElement9GetScaleYEv,comdat
 674              		.align 2
 675              		.weak	_ZN10GuiElement9GetScaleYEv
 676              		.type	_ZN10GuiElement9GetScaleYEv, @function
 677              	_ZN10GuiElement9GetScaleYEv:
 678              	.LFB1410:
 679              		.loc 2 245 0
 680              		.cfi_startproc
 681              	.LVL57:
 682 0000 7C0802A6 		mflr 0
 683 0004 9421FFF0 		stwu 1,-16(1)
 684              	.LCFI9:
 685              		.cfi_def_cfa_offset 16
 686              		.cfi_register 65, 0
 687 0008 DBE10008 		stfd 31,8(1)
 688 000c 90010014 		stw 0,20(1)
 689              	.LBB2173:
 690              		.loc 2 249 0
 691 0010 81630060 		lwz 11,96(3)
 692              		.loc 2 247 0
 693 0014 C3E30040 		lfs 31,64(3)
 694              		.cfi_offset 65, 4
 695              		.cfi_offset 63, -8
 696              		.loc 2 249 0
 697 0018 2F8B0000 		cmpwi 7,11,0
 698              		.loc 2 247 0
 699 001c C0030070 		lfs 0,112(3)
 700 0020 EFFF0032 		fmuls 31,31,0
 701              	.LVL58:
 702              		.loc 2 249 0
 703 0024 419E001C 		beq- 7,.L47
 704              		.loc 2 250 0
 705 0028 812B0000 		lwz 9,0(11)
 706 002c 7D635B78 		mr 3,11
 707              	.LVL59:
 708 0030 8009007C 		lwz 0,124(9)
 709 0034 7C0903A6 		mtctr 0
 710 0038 4E800421 		bctrl
 711 003c EFFF0072 		fmuls 31,31,1
 712              	.LVL60:
 713              	.L47:
 714              	.LBE2173:
 715              		.loc 2 253 0
 716 0040 80010014 		lwz 0,20(1)
 717 0044 FC20F890 		fmr 1,31
 718 0048 CBE10008 		lfd 31,8(1)
 719              	.LVL61:
 720 004c 7C0803A6 		mtlr 0
 721 0050 38210010 		addi 1,1,16
 722              	.LCFI10:
 723              		.cfi_def_cfa_offset 0
 724              		.cfi_restore 63
 725 0054 4E800020 		blr
 726              		.cfi_endproc
 727              	.LFE1410:
 728              		.size	_ZN10GuiElement9GetScaleYEv, .-_ZN10GuiElement9GetScaleYEv
 729              		.section	.text._ZN10GuiElement6RumbleEv,"axG",@progbits,_ZN10GuiElement6RumbleEv,comdat
 730              		.align 2
 731              		.weak	_ZN10GuiElement6RumbleEv
 732              		.type	_ZN10GuiElement6RumbleEv, @function
 733              	_ZN10GuiElement6RumbleEv:
 734              	.LFB1411:
 735              		.loc 2 256 0
 736              		.cfi_startproc
 737              	.LVL62:
 738              		.loc 2 256 0
 739 0000 8863001C 		lbz 3,28(3)
 740              	.LVL63:
 741 0004 4E800020 		blr
 742              		.cfi_endproc
 743              	.LFE1411:
 744              		.size	_ZN10GuiElement6RumbleEv, .-_ZN10GuiElement6RumbleEv
 745              		.section	.text._ZN10GuiElement9SetRumbleEb,"axG",@progbits,_ZN10GuiElement9SetRumbleEb,comdat
 746              		.align 2
 747              		.weak	_ZN10GuiElement9SetRumbleEb
 748              		.type	_ZN10GuiElement9SetRumbleEb, @function
 749              	_ZN10GuiElement9SetRumbleEb:
 750              	.LFB1412:
 751              		.loc 2 259 0
 752              		.cfi_startproc
 753              	.LVL64:
 754              		.loc 2 259 0
 755 0000 9883001C 		stb 4,28(3)
 756 0004 4E800020 		blr
 757              		.cfi_endproc
 758              	.LFE1412:
 759              		.size	_ZN10GuiElement9SetRumbleEb, .-_ZN10GuiElement9SetRumbleEb
 760              		.section	.text._ZN10GuiElement13SetEffectGrowEv,"axG",@progbits,_ZN10GuiElement13SetEffectGrowEv,c
 761              		.align 2
 762              		.weak	_ZN10GuiElement13SetEffectGrowEv
 763              		.type	_ZN10GuiElement13SetEffectGrowEv, @function
 764              	_ZN10GuiElement13SetEffectGrowEv:
 765              	.LFB1413:
 766              		.loc 2 271 0
 767              		.cfi_startproc
 768              	.LVL65:
 769 0000 7C0802A6 		mflr 0
 770 0004 9421FFF8 		stwu 1,-8(1)
 771              	.LCFI11:
 772              		.cfi_def_cfa_offset 8
 773              		.cfi_register 65, 0
 774 0008 81230000 		lwz 9,0(3)
 775 000c 38800100 		li 4,256
 776 0010 38A00004 		li 5,4
 777 0014 38C0006E 		li 6,110
 778 0018 9001000C 		stw 0,12(1)
 779              		.loc 2 271 0
 780 001c 8009008C 		lwz 0,140(9)
 781              		.cfi_offset 65, 4
 782 0020 7C0903A6 		mtctr 0
 783 0024 4E800421 		bctrl
 784              	.LVL66:
 785 0028 8001000C 		lwz 0,12(1)
 786 002c 38210008 		addi 1,1,8
 787              	.LCFI12:
 788              		.cfi_def_cfa_offset 0
 789 0030 7C0803A6 		mtlr 0
 790 0034 4E800020 		blr
 791              		.cfi_endproc
 792              	.LFE1413:
 793              		.size	_ZN10GuiElement13SetEffectGrowEv, .-_ZN10GuiElement13SetEffectGrowEv
 794              		.section	.text._ZNK10GuiElement9GetEffectEv,"axG",@progbits,_ZNK10GuiElement9GetEffectEv,comdat
 795              		.align 2
 796              		.weak	_ZNK10GuiElement9GetEffectEv
 797              		.type	_ZNK10GuiElement9GetEffectEv, @function
 798              	_ZNK10GuiElement9GetEffectEv:
 799              	.LFB1414:
 800              		.loc 2 276 0
 801              		.cfi_startproc
 802              	.LVL67:
 803              		.loc 2 276 0
 804 0000 80630078 		lwz 3,120(3)
 805              	.LVL68:
 806 0004 4E800020 		blr
 807              		.cfi_endproc
 808              	.LFE1414:
 809              		.size	_ZNK10GuiElement9GetEffectEv, .-_ZNK10GuiElement9GetEffectEv
 810              		.section	.text._ZNK10GuiElement10IsAnimatedEv,"axG",@progbits,_ZNK10GuiElement10IsAnimatedEv,comda
 811              		.align 2
 812              		.weak	_ZNK10GuiElement10IsAnimatedEv
 813              		.type	_ZNK10GuiElement10IsAnimatedEv, @function
 814              	_ZNK10GuiElement10IsAnimatedEv:
 815              	.LFB1415:
 816              		.loc 2 278 0
 817              		.cfi_startproc
 818              	.LVL69:
 819 0000 7C0802A6 		mflr 0
 820 0004 9421FFF8 		stwu 1,-8(1)
 821              	.LCFI13:
 822              		.cfi_def_cfa_offset 8
 823              		.cfi_register 65, 0
 824 0008 9001000C 		stw 0,12(1)
 825              		.loc 2 278 0
 826 000c 81230000 		lwz 9,0(3)
 827 0010 80090098 		lwz 0,152(9)
 828              		.cfi_offset 65, 4
 829 0014 7C0903A6 		mtctr 0
 830 0018 4E800421 		bctrl
 831              	.LVL70:
 832 001c 7C60FE70 		srawi 0,3,31
 833 0020 7C630050 		subf 3,3,0
 834 0024 8001000C 		lwz 0,12(1)
 835 0028 54630FFE 		srwi 3,3,31
 836 002c 7C0803A6 		mtlr 0
 837 0030 38210008 		addi 1,1,8
 838              	.LCFI14:
 839              		.cfi_def_cfa_offset 0
 840 0034 4E800020 		blr
 841              		.cfi_endproc
 842              	.LFE1415:
 843              		.size	_ZNK10GuiElement10IsAnimatedEv, .-_ZNK10GuiElement10IsAnimatedEv
 844              		.section	.text._ZN10GuiElement8IsInsideEii,"axG",@progbits,_ZN10GuiElement8IsInsideEii,comdat
 845              		.align 2
 846              		.weak	_ZN10GuiElement8IsInsideEii
 847              		.type	_ZN10GuiElement8IsInsideEii, @function
 848              	_ZN10GuiElement8IsInsideEii:
 849              	.LFB1417:
 850              		.loc 2 285 0
 851              		.cfi_startproc
 852              	.LVL71:
 853 0000 7C0802A6 		mflr 0
 854 0004 9421FFE8 		stwu 1,-24(1)
 855              	.LCFI15:
 856              		.cfi_def_cfa_offset 24
 857              		.cfi_register 65, 0
 858 0008 93810008 		stw 28,8(1)
 859 000c 7CBC2B78 		mr 28,5
 860              		.cfi_offset 28, -16
 861 0010 9001001C 		stw 0,28(1)
 862 0014 93A1000C 		stw 29,12(1)
 863              		.loc 2 290 0
 864 0018 3BA00000 		li 29,0
 865              		.cfi_offset 29, -12
 866              		.cfi_offset 65, 4
 867              		.loc 2 287 0
 868 001c 81230000 		lwz 9,0(3)
 869              		.loc 2 285 0
 870 0020 93C10010 		stw 30,16(1)
 871 0024 7C9E2378 		mr 30,4
 872              		.cfi_offset 30, -8
 873              		.loc 2 287 0
 874 0028 80090010 		lwz 0,16(9)
 875              		.loc 2 285 0
 876 002c 93E10014 		stw 31,20(1)
 877              		.loc 2 285 0
 878 0030 7C7F1B78 		mr 31,3
 879              		.cfi_offset 31, -4
 880              		.loc 2 287 0
 881 0034 7C0903A6 		mtctr 0
 882 0038 4E800421 		bctrl
 883              	.LVL72:
 884              		.loc 2 290 0
 885 003c 7F83F000 		cmpw 7,3,30
 886 0040 419C0028 		blt- 7,.L58
 887              	.L54:
 888              		.loc 2 291 0 discriminator 6
 889 0044 8001001C 		lwz 0,28(1)
 890 0048 7FA3EB78 		mr 3,29
 891 004c 83810008 		lwz 28,8(1)
 892              	.LVL73:
 893 0050 7C0803A6 		mtlr 0
 894 0054 83A1000C 		lwz 29,12(1)
 895 0058 83C10010 		lwz 30,16(1)
 896              	.LVL74:
 897 005c 83E10014 		lwz 31,20(1)
 898              	.LVL75:
 899 0060 38210018 		addi 1,1,24
 900              		.cfi_remember_state
 901              	.LCFI16:
 902              		.cfi_def_cfa_offset 0
 903              		.cfi_restore 31
 904              		.cfi_restore 30
 905              		.cfi_restore 29
 906              		.cfi_restore 28
 907 0064 4E800020 		blr
 908              	.LVL76:
 909              	.L58:
 910              	.LCFI17:
 911              		.cfi_restore_state
 912              		.loc 2 288 0 discriminator 1
 913 0068 813F0000 		lwz 9,0(31)
 914 006c 7FE3FB78 		mr 3,31
 915 0070 80090010 		lwz 0,16(9)
 916 0074 7C0903A6 		mtctr 0
 917 0078 4E800421 		bctrl
 918              		.loc 2 290 0 discriminator 1
 919 007c 801F0024 		lwz 0,36(31)
 920 0080 7C030214 		add 0,3,0
 921 0084 7F9E0000 		cmpw 7,30,0
 922 0088 409CFFBC 		bge+ 7,.L54
 923              		.loc 2 289 0 discriminator 3
 924 008c 813F0000 		lwz 9,0(31)
 925 0090 7FE3FB78 		mr 3,31
 926 0094 80090014 		lwz 0,20(9)
 927 0098 7C0903A6 		mtctr 0
 928 009c 4E800421 		bctrl
 929              		.loc 2 290 0 discriminator 3
 930 00a0 7F83E000 		cmpw 7,3,28
 931 00a4 409CFFA0 		bge+ 7,.L54
 932              		.loc 2 290 0 is_stmt 0 discriminator 4
 933 00a8 813F0000 		lwz 9,0(31)
 934 00ac 7FE3FB78 		mr 3,31
 935 00b0 80090014 		lwz 0,20(9)
 936 00b4 7C0903A6 		mtctr 0
 937 00b8 4E800421 		bctrl
 938 00bc 801F0028 		lwz 0,40(31)
 939 00c0 7C030214 		add 0,3,0
 940              		.loc 2 285 0 is_stmt 1 discriminator 4
 941 00c4 7F9C0000 		cmpw 7,28,0
 942 00c8 7FA00026 		mfcr 29
 943 00cc 57BDEFFE 		rlwinm 29,29,29,1
 944 00d0 4BFFFF74 		b .L54
 945              		.cfi_endproc
 946              	.LFE1417:
 947              		.size	_ZN10GuiElement8IsInsideEii, .-_ZN10GuiElement8IsInsideEii
 948              		.section	.text._ZN10GuiElement11SetPositionEii,"axG",@progbits,_ZN10GuiElement11SetPositionEii,com
 949              		.align 2
 950              		.weak	_ZN10GuiElement11SetPositionEii
 951              		.type	_ZN10GuiElement11SetPositionEii, @function
 952              	_ZN10GuiElement11SetPositionEii:
 953              	.LFB1418:
 954              		.loc 2 295 0
 955              		.cfi_startproc
 956              	.LVL77:
 957              		.loc 2 297 0
 958 0000 9083002C 		stw 4,44(3)
 959              		.loc 2 299 0
 960              		.loc 2 298 0
 961 0004 90A30030 		stw 5,48(3)
 962              		.loc 2 299 0
 963 0008 4E800020 		blr
 964              		.cfi_endproc
 965              	.LFE1418:
 966              		.size	_ZN10GuiElement11SetPositionEii, .-_ZN10GuiElement11SetPositionEii
 967              		.section	.text._ZN10GuiElement11SetPositionEiii,"axG",@progbits,_ZN10GuiElement11SetPositionEiii,c
 968              		.align 2
 969              		.weak	_ZN10GuiElement11SetPositionEiii
 970              		.type	_ZN10GuiElement11SetPositionEiii, @function
 971              	_ZN10GuiElement11SetPositionEiii:
 972              	.LFB1419:
 973              		.loc 2 304 0
 974              		.cfi_startproc
 975              	.LVL78:
 976              		.loc 2 306 0
 977 0000 9083002C 		stw 4,44(3)
 978              		.loc 2 309 0
 979              		.loc 2 307 0
 980 0004 90A30030 		stw 5,48(3)
 981              		.loc 2 308 0
 982 0008 90C30034 		stw 6,52(3)
 983              		.loc 2 309 0
 984 000c 4E800020 		blr
 985              		.cfi_endproc
 986              	.LFE1419:
 987              		.size	_ZN10GuiElement11SetPositionEiii, .-_ZN10GuiElement11SetPositionEiii
 988              		.section	.text._ZN10GuiElement12SetAlignmentEi,"axG",@progbits,_ZN10GuiElement12SetAlignmentEi,com
 989              		.align 2
 990              		.weak	_ZN10GuiElement12SetAlignmentEi
 991              		.type	_ZN10GuiElement12SetAlignmentEi, @function
 992              	_ZN10GuiElement12SetAlignmentEi:
 993              	.LFB1421:
 994              		.loc 2 316 0
 995              		.cfi_startproc
 996              	.LVL79:
 997              		.loc 2 316 0
 998 0000 90830044 		stw 4,68(3)
 999 0004 4E800020 		blr
 1000              		.cfi_endproc
 1001              	.LFE1421:
 1002              		.size	_ZN10GuiElement12SetAlignmentEi, .-_ZN10GuiElement12SetAlignmentEi
 1003              		.section	.text._ZNK10GuiElement12GetAlignmentEv,"axG",@progbits,_ZNK10GuiElement12GetAlignmentEv,c
 1004              		.align 2
 1005              		.weak	_ZNK10GuiElement12GetAlignmentEv
 1006              		.type	_ZNK10GuiElement12GetAlignmentEv, @function
 1007              	_ZNK10GuiElement12GetAlignmentEv:
 1008              	.LFB1422:
 1009              		.loc 2 318 0
 1010              		.cfi_startproc
 1011              	.LVL80:
 1012              		.loc 2 318 0
 1013 0000 80630044 		lwz 3,68(3)
 1014              	.LVL81:
 1015 0004 4E800020 		blr
 1016              		.cfi_endproc
 1017              	.LFE1422:
 1018              		.size	_ZNK10GuiElement12GetAlignmentEv, .-_ZNK10GuiElement12GetAlignmentEv
 1019              		.section	.text._ZN8GuiFrame4showEv,"axG",@progbits,_ZN8GuiFrame4showEv,comdat
 1020              		.align 2
 1021              		.weak	_ZN8GuiFrame4showEv
 1022              		.type	_ZN8GuiFrame4showEv, @function
 1023              	_ZN8GuiFrame4showEv:
 1024              	.LFB1428:
 1025              		.file 3 "d:/Projects/SaveGameManager/savegame-manager-gx/trunk/source/Prompts/../SoundOperations/.
 1026              		.loc 3 79 0
 1027              		.cfi_startproc
 1028              	.LVL82:
 1029              		.loc 3 79 0
 1030 0000 4E800020 		blr
 1031              		.cfi_endproc
 1032              	.LFE1428:
 1033              		.size	_ZN8GuiFrame4showEv, .-_ZN8GuiFrame4showEv
 1034              		.section	.text._ZN8GuiFrame4hideEv,"axG",@progbits,_ZN8GuiFrame4hideEv,comdat
 1035              		.align 2
 1036              		.weak	_ZN8GuiFrame4hideEv
 1037              		.type	_ZN8GuiFrame4hideEv, @function
 1038              	_ZN8GuiFrame4hideEv:
 1039              	.LFB1429:
 1040              		.loc 3 81 0
 1041              		.cfi_startproc
 1042              	.LVL83:
 1043              		.loc 3 81 0
 1044 0000 4E800020 		blr
 1045              		.cfi_endproc
 1046              	.LFE1429:
 1047              		.size	_ZN8GuiFrame4hideEv, .-_ZN8GuiFrame4hideEv
 1048              		.section	.text._ZN8GuiFrame4execEv,"axG",@progbits,_ZN8GuiFrame4execEv,comdat
 1049              		.align 2
 1050              		.weak	_ZN8GuiFrame4execEv
 1051              		.type	_ZN8GuiFrame4execEv, @function
 1052              	_ZN8GuiFrame4execEv:
 1053              	.LFB1430:
 1054              		.loc 3 83 0
 1055              		.cfi_startproc
 1056              	.LVL84:
 1057              		.loc 3 83 0
 1058 0000 4E800020 		blr
 1059              		.cfi_endproc
 1060              	.LFE1430:
 1061              		.size	_ZN8GuiFrame4execEv, .-_ZN8GuiFrame4execEv
 1062              		.section	.text._ZN8GuiFrame12updateEventsEv,"axG",@progbits,_ZN8GuiFrame12updateEventsEv,comdat
 1063              		.align 2
 1064              		.weak	_ZN8GuiFrame12updateEventsEv
 1065              		.type	_ZN8GuiFrame12updateEventsEv, @function
 1066              	_ZN8GuiFrame12updateEventsEv:
 1067              	.LFB1431:
 1068              		.loc 3 85 0
 1069              		.cfi_startproc
 1070              	.LVL85:
 1071              		.loc 3 85 0
 1072 0000 4E800020 		blr
 1073              		.cfi_endproc
 1074              	.LFE1431:
 1075              		.size	_ZN8GuiFrame12updateEventsEv, .-_ZN8GuiFrame12updateEventsEv
 1076              		.section	.text._ZN7sigslot17_connection_base3IP9GuiButtoniRK6_POINTNS_15single_threadedEED2Ev,"axG
 1077              		.align 2
 1078              		.weak	_ZN7sigslot17_connection_base3IP9GuiButtoniRK6_POINTNS_15single_threadedEED2Ev
 1079              		.type	_ZN7sigslot17_connection_base3IP9GuiButtoniRK6_POINTNS_15single_threadedEED2Ev, @function
 1080              	_ZN7sigslot17_connection_base3IP9GuiButtoniRK6_POINTNS_15single_threadedEED2Ev:
 1081              	.LFB1797:
 1082              		.loc 1 387 0
 1083              		.cfi_startproc
 1084              	.LVL86:
 1085              	.LBB2174:
 1086              		.loc 1 387 0
 1087 0000 3D200000 		lis 9,_ZTVN7sigslot17_connection_base3IP9GuiButtoniRK6_POINTNS_15single_threadedEEE+8@ha
 1088              	.LBE2174:
 1089              	.LBB2175:
 1090 0004 38090008 		la 0,_ZTVN7sigslot17_connection_base3IP9GuiButtoniRK6_POINTNS_15single_threadedEEE+8@l(9)
 1091 0008 90030000 		stw 0,0(3)
 1092              	.LBE2175:
 1093 000c 4E800020 		blr
 1094              		.cfi_endproc
 1095              	.LFE1797:
 1096              		.size	_ZN7sigslot17_connection_base3IP9GuiButtoniRK6_POINTNS_15single_threadedEED2Ev, .-_ZN7sigslo
 1097              		.section	.text._ZN7sigslot17_connection_base3IP10GuiElementiiNS_15single_threadedEED2Ev,"axG",@pro
 1098              		.align 2
 1099              		.weak	_ZN7sigslot17_connection_base3IP10GuiElementiiNS_15single_threadedEED2Ev
 1100              		.type	_ZN7sigslot17_connection_base3IP10GuiElementiiNS_15single_threadedEED2Ev, @function
 1101              	_ZN7sigslot17_connection_base3IP10GuiElementiiNS_15single_threadedEED2Ev:
 1102              	.LFB1804:
 1103              		.loc 1 387 0
 1104              		.cfi_startproc
 1105              	.LVL87:
 1106              	.LBB2176:
 1107              		.loc 1 387 0
 1108 0000 3D200000 		lis 9,_ZTVN7sigslot17_connection_base3IP10GuiElementiiNS_15single_threadedEEE+8@ha
 1109              	.LBE2176:
 1110              	.LBB2177:
 1111 0004 38090008 		la 0,_ZTVN7sigslot17_connection_base3IP10GuiElementiiNS_15single_threadedEEE+8@l(9)
 1112 0008 90030000 		stw 0,0(3)
 1113              	.LBE2177:
 1114 000c 4E800020 		blr
 1115              		.cfi_endproc
 1116              	.LFE1804:
 1117              		.size	_ZN7sigslot17_connection_base3IP10GuiElementiiNS_15single_threadedEED2Ev, .-_ZN7sigslot17_co
 1118              		.section	.text._ZN7sigslot12_connection3I8HomeMenuP10GuiElementiiNS_15single_threadedEED2Ev,"axG",
 1119              		.align 2
 1120              		.weak	_ZN7sigslot12_connection3I8HomeMenuP10GuiElementiiNS_15single_threadedEED2Ev
 1121              		.type	_ZN7sigslot12_connection3I8HomeMenuP10GuiElementiiNS_15single_threadedEED2Ev, @function
 1122              	_ZN7sigslot12_connection3I8HomeMenuP10GuiElementiiNS_15single_threadedEED2Ev:
 1123              	.LFB2054:
 1124              		.loc 1 1783 0
 1125              		.cfi_startproc
 1126              	.LVL88:
 1127              	.LBB2178:
 1128              	.LBB2179:
 1129              	.LBB2180:
 1130              	.LBB2181:
 1131              		.loc 1 387 0
 1132 0000 3D200000 		lis 9,_ZTVN7sigslot17_connection_base3IP10GuiElementiiNS_15single_threadedEEE+8@ha
 1133              	.LBE2181:
 1134              	.LBE2180:
 1135              	.LBE2179:
 1136              	.LBE2178:
 1137              		.loc 1 1786 0
 1138              	.LBB2185:
 1139              	.LBB2184:
 1140              	.LBB2183:
 1141              	.LBB2182:
 1142              		.loc 1 387 0
 1143 0004 38090008 		la 0,_ZTVN7sigslot17_connection_base3IP10GuiElementiiNS_15single_threadedEEE+8@l(9)
 1144 0008 90030000 		stw 0,0(3)
 1145              	.LBE2182:
 1146              	.LBE2183:
 1147              	.LBE2184:
 1148              	.LBE2185:
 1149              		.loc 1 1786 0
 1150 000c 4E800020 		blr
 1151              		.cfi_endproc
 1152              	.LFE2054:
 1153              		.size	_ZN7sigslot12_connection3I8HomeMenuP10GuiElementiiNS_15single_threadedEED2Ev, .-_ZN7sigslot1
 1154              		.section	.text._ZNK7sigslot12_connection3I8HomeMenuP10GuiElementiiNS_15single_threadedEE7getdestEv
 1155              		.align 2
 1156              		.weak	_ZNK7sigslot12_connection3I8HomeMenuP10GuiElementiiNS_15single_threadedEE7getdestEv
 1157              		.type	_ZNK7sigslot12_connection3I8HomeMenuP10GuiElementiiNS_15single_threadedEE7getdestEv, @functi
 1158              	_ZNK7sigslot12_connection3I8HomeMenuP10GuiElementiiNS_15single_threadedEE7getdestEv:
 1159              	.LFB2057:
 1160              		.loc 1 1804 0
 1161              		.cfi_startproc
 1162              	.LVL89:
 1163              		.loc 1 1806 0
 1164 0000 81230004 		lwz 9,4(3)
 1165 0004 38600000 		li 3,0
 1166              	.LVL90:
 1167 0008 2F890000 		cmpwi 7,9,0
 1168 000c 4D9E0020 		beqlr- 7
 1169              		.loc 1 1806 0 is_stmt 0 discriminator 1
 1170 0010 386900B0 		addi 3,9,176
 1171              		.loc 1 1807 0 is_stmt 1 discriminator 1
 1172 0014 4E800020 		blr
 1173              		.cfi_endproc
 1174              	.LFE2057:
 1175              		.size	_ZNK7sigslot12_connection3I8HomeMenuP10GuiElementiiNS_15single_threadedEE7getdestEv, .-_ZNK7
 1176              		.section	.text._ZN7sigslot12_connection3I8HomeMenuP10GuiElementiiNS_15single_threadedEE4emitES3_ii
 1177              		.align 2
 1178              		.weak	_ZN7sigslot12_connection3I8HomeMenuP10GuiElementiiNS_15single_threadedEE4emitES3_ii
 1179              		.type	_ZN7sigslot12_connection3I8HomeMenuP10GuiElementiiNS_15single_threadedEE4emitES3_ii, @functi
 1180              	_ZN7sigslot12_connection3I8HomeMenuP10GuiElementiiNS_15single_threadedEE4emitES3_ii:
 1181              	.LFB2058:
 1182              		.loc 1 1799 0
 1183              		.cfi_startproc
 1184              	.LVL91:
 1185 0000 7C0802A6 		mflr 0
 1186 0004 9421FFF8 		stwu 1,-8(1)
 1187              	.LCFI18:
 1188              		.cfi_def_cfa_offset 8
 1189              		.cfi_register 65, 0
 1190 0008 9001000C 		stw 0,12(1)
 1191              		.loc 1 1801 0
 1192 000c 80030008 		lwz 0,8(3)
 1193              		.cfi_offset 65, 4
 1194 0010 81630004 		lwz 11,4(3)
 1195 0014 70090001 		andi. 9,0,1
 1196 0018 8123000C 		lwz 9,12(3)
 1197 001c 40820020 		bne- 0,.L78
 1198 0020 7C0903A6 		mtctr 0
 1199 0024 7C6B4A14 		add 3,11,9
 1200              	.LVL92:
 1201 0028 4E800421 		bctrl
 1202              	.LVL93:
 1203              		.loc 1 1802 0
 1204 002c 8001000C 		lwz 0,12(1)
 1205 0030 38210008 		addi 1,1,8
 1206              		.cfi_remember_state
 1207              	.LCFI19:
 1208              		.cfi_def_cfa_offset 0
 1209 0034 7C0803A6 		mtlr 0
 1210 0038 4E800020 		blr
 1211              	.LVL94:
 1212              	.L78:
 1213              	.LCFI20:
 1214              		.cfi_restore_state
 1215              		.loc 1 1801 0 discriminator 1
 1216 003c 7D4B482E 		lwzx 10,11,9
 1217 0040 7C6B4A14 		add 3,11,9
 1218              	.LVL95:
 1219 0044 7D2A0214 		add 9,10,0
 1220 0048 8009FFFF 		lwz 0,-1(9)
 1221 004c 7C0903A6 		mtctr 0
 1222 0050 4E800421 		bctrl
 1223              	.LVL96:
 1224              		.loc 1 1802 0 discriminator 1
 1225 0054 8001000C 		lwz 0,12(1)
 1226 0058 38210008 		addi 1,1,8
 1227              	.LCFI21:
 1228              		.cfi_def_cfa_offset 0
 1229 005c 7C0803A6 		mtlr 0
 1230 0060 4E800020 		blr
 1231              		.cfi_endproc
 1232              	.LFE2058:
 1233              		.size	_ZN7sigslot12_connection3I8HomeMenuP10GuiElementiiNS_15single_threadedEE4emitES3_ii, .-_ZN7s
 1234              		.section	.text._ZN7sigslot12_connection3I8HomeMenuP9GuiButtoniRK6_POINTNS_15single_threadedEED2Ev,
 1235              		.align 2
 1236              		.weak	_ZN7sigslot12_connection3I8HomeMenuP9GuiButtoniRK6_POINTNS_15single_threadedEED2Ev
 1237              		.type	_ZN7sigslot12_connection3I8HomeMenuP9GuiButtoniRK6_POINTNS_15single_threadedEED2Ev, @functio
 1238              	_ZN7sigslot12_connection3I8HomeMenuP9GuiButtoniRK6_POINTNS_15single_threadedEED2Ev:
 1239              	.LFB2068:
 1240              		.loc 1 1783 0
 1241              		.cfi_startproc
 1242              	.LVL97:
 1243              	.LBB2186:
 1244              	.LBB2187:
 1245              	.LBB2188:
 1246              	.LBB2189:
 1247              		.loc 1 387 0
 1248 0000 3D200000 		lis 9,_ZTVN7sigslot17_connection_base3IP9GuiButtoniRK6_POINTNS_15single_threadedEEE+8@ha
 1249              	.LBE2189:
 1250              	.LBE2188:
 1251              	.LBE2187:
 1252              	.LBE2186:
 1253              		.loc 1 1786 0
 1254              	.LBB2193:
 1255              	.LBB2192:
 1256              	.LBB2191:
 1257              	.LBB2190:
 1258              		.loc 1 387 0
 1259 0004 38090008 		la 0,_ZTVN7sigslot17_connection_base3IP9GuiButtoniRK6_POINTNS_15single_threadedEEE+8@l(9)
 1260 0008 90030000 		stw 0,0(3)
 1261              	.LBE2190:
 1262              	.LBE2191:
 1263              	.LBE2192:
 1264              	.LBE2193:
 1265              		.loc 1 1786 0
 1266 000c 4E800020 		blr
 1267              		.cfi_endproc
 1268              	.LFE2068:
 1269              		.size	_ZN7sigslot12_connection3I8HomeMenuP9GuiButtoniRK6_POINTNS_15single_threadedEED2Ev, .-_ZN7si
 1270              		.section	.text._ZNK7sigslot12_connection3I8HomeMenuP9GuiButtoniRK6_POINTNS_15single_threadedEE7get
 1271              		.align 2
 1272              		.weak	_ZNK7sigslot12_connection3I8HomeMenuP9GuiButtoniRK6_POINTNS_15single_threadedEE7getdestEv
 1273              		.type	_ZNK7sigslot12_connection3I8HomeMenuP9GuiButtoniRK6_POINTNS_15single_threadedEE7getdestEv, @
 1274              	_ZNK7sigslot12_connection3I8HomeMenuP9GuiButtoniRK6_POINTNS_15single_threadedEE7getdestEv:
 1275              	.LFB2071:
 1276              		.loc 1 1804 0
 1277              		.cfi_startproc
 1278              	.LVL98:
 1279              		.loc 1 1806 0
 1280 0000 81230004 		lwz 9,4(3)
 1281 0004 38600000 		li 3,0
 1282              	.LVL99:
 1283 0008 2F890000 		cmpwi 7,9,0
 1284 000c 4D9E0020 		beqlr- 7
 1285              		.loc 1 1806 0 is_stmt 0 discriminator 1
 1286 0010 386900B0 		addi 3,9,176
 1287              		.loc 1 1807 0 is_stmt 1 discriminator 1
 1288 0014 4E800020 		blr
 1289              		.cfi_endproc
 1290              	.LFE2071:
 1291              		.size	_ZNK7sigslot12_connection3I8HomeMenuP9GuiButtoniRK6_POINTNS_15single_threadedEE7getdestEv, .
 1292              		.section	.text._ZN7sigslot12_connection3I8HomeMenuP9GuiButtoniRK6_POINTNS_15single_threadedEE4emit
 1293              		.align 2
 1294              		.weak	_ZN7sigslot12_connection3I8HomeMenuP9GuiButtoniRK6_POINTNS_15single_threadedEE4emitES3_iS6_
 1295              		.type	_ZN7sigslot12_connection3I8HomeMenuP9GuiButtoniRK6_POINTNS_15single_threadedEE4emitES3_iS6_,
 1296              	_ZN7sigslot12_connection3I8HomeMenuP9GuiButtoniRK6_POINTNS_15single_threadedEE4emitES3_iS6_:
 1297              	.LFB2072:
 1298              		.loc 1 1799 0
 1299              		.cfi_startproc
 1300              	.LVL100:
 1301 0000 7C0802A6 		mflr 0
 1302 0004 9421FFF8 		stwu 1,-8(1)
 1303              	.LCFI22:
 1304              		.cfi_def_cfa_offset 8
 1305              		.cfi_register 65, 0
 1306 0008 9001000C 		stw 0,12(1)
 1307              		.loc 1 1801 0
 1308 000c 80030008 		lwz 0,8(3)
 1309              		.cfi_offset 65, 4
 1310 0010 81630004 		lwz 11,4(3)
 1311 0014 70090001 		andi. 9,0,1
 1312 0018 8123000C 		lwz 9,12(3)
 1313 001c 40820020 		bne- 0,.L87
 1314 0020 7C0903A6 		mtctr 0
 1315 0024 7C6B4A14 		add 3,11,9
 1316              	.LVL101:
 1317 0028 4E800421 		bctrl
 1318              	.LVL102:
 1319              		.loc 1 1802 0
 1320 002c 8001000C 		lwz 0,12(1)
 1321 0030 38210008 		addi 1,1,8
 1322              		.cfi_remember_state
 1323              	.LCFI23:
 1324              		.cfi_def_cfa_offset 0
 1325 0034 7C0803A6 		mtlr 0
 1326 0038 4E800020 		blr
 1327              	.LVL103:
 1328              	.L87:
 1329              	.LCFI24:
 1330              		.cfi_restore_state
 1331              		.loc 1 1801 0 discriminator 1
 1332 003c 7D4B482E 		lwzx 10,11,9
 1333 0040 7C6B4A14 		add 3,11,9
 1334              	.LVL104:
 1335 0044 7D2A0214 		add 9,10,0
 1336 0048 8009FFFF 		lwz 0,-1(9)
 1337 004c 7C0903A6 		mtctr 0
 1338 0050 4E800421 		bctrl
 1339              	.LVL105:
 1340              		.loc 1 1802 0 discriminator 1
 1341 0054 8001000C 		lwz 0,12(1)
 1342 0058 38210008 		addi 1,1,8
 1343              	.LCFI25:
 1344              		.cfi_def_cfa_offset 0
 1345 005c 7C0803A6 		mtlr 0
 1346 0060 4E800020 		blr
 1347              		.cfi_endproc
 1348              	.LFE2072:
 1349              		.size	_ZN7sigslot12_connection3I8HomeMenuP9GuiButtoniRK6_POINTNS_15single_threadedEE4emitES3_iS6_,
 1350              		.section	.text._ZN7sigslot12_connection3I8HomeMenuP9GuiButtoniRK6_POINTNS_15single_threadedEE9dupl
 1351              		.align 2
 1352              		.weak	_ZN7sigslot12_connection3I8HomeMenuP9GuiButtoniRK6_POINTNS_15single_threadedEE9duplicateEPNS
 1353              		.type	_ZN7sigslot12_connection3I8HomeMenuP9GuiButtoniRK6_POINTNS_15single_threadedEE9duplicateEPNS
 1354              	_ZN7sigslot12_connection3I8HomeMenuP9GuiButtoniRK6_POINTNS_15single_threadedEE9duplicateEPNS_9has_s
 1355              	.LFB2080:
 1356              		.loc 1 1794 0
 1357              		.cfi_startproc
 1358              	.LVL106:
 1359 0000 9421FFF0 		stwu 1,-16(1)
 1360              	.LCFI26:
 1361              		.cfi_def_cfa_offset 16
 1362 0004 7C0802A6 		mflr 0
 1363 0008 93C10008 		stw 30,8(1)
 1364 000c 7C9E2378 		mr 30,4
 1365              		.cfi_offset 30, -8
 1366              		.cfi_register 65, 0
 1367 0010 93E1000C 		stw 31,12(1)
 1368 0014 7C7F1B78 		mr 31,3
 1369              		.cfi_offset 31, -4
 1370              		.loc 1 1796 0
 1371 0018 38600010 		li 3,16
 1372              	.LVL107:
 1373              		.loc 1 1794 0
 1374 001c 90010014 		stw 0,20(1)
 1375              		.loc 1 1796 0
 1376              		.cfi_offset 65, 4
 1377 0020 48000001 		bl _Znwj
 1378              	.LVL108:
 1379 0024 2F9E0000 		cmpwi 7,30,0
 1380 0028 38000000 		li 0,0
 1381 002c 419E0008 		beq- 7,.L90
 1382              		.loc 1 1796 0 is_stmt 0 discriminator 1
 1383 0030 381EFF50 		addi 0,30,-176
 1384              	.L90:
 1385              	.LVL109:
 1386              		.loc 1 1796 0 discriminator 3
 1387 0034 817F0008 		lwz 11,8(31)
 1388              	.LVL110:
 1389              	.LBB2194:
 1390              	.LBB2195:
 1391              		.loc 1 1778 0 is_stmt 1 discriminator 3
 1392 0038 3D400000 		lis 10,_ZTVN7sigslot12_connection3I8HomeMenuP9GuiButtoniRK6_POINTNS_15single_threadedEEE+8@ha
 1393              	.LBE2195:
 1394              	.LBE2194:
 1395              		.loc 1 1796 0 discriminator 3
 1396 003c 813F000C 		lwz 9,12(31)
 1397              	.LVL111:
 1398              	.LBB2198:
 1399              	.LBB2196:
 1400              		.loc 1 1778 0 discriminator 3
 1401 0040 394A0008 		la 10,_ZTVN7sigslot12_connection3I8HomeMenuP9GuiButtoniRK6_POINTNS_15single_threadedEEE+8@l(10)
 1402              		.loc 1 1780 0 discriminator 3
 1403 0044 91630008 		stw 11,8(3)
 1404 0048 9123000C 		stw 9,12(3)
 1405              		.loc 1 1779 0 discriminator 3
 1406 004c 90030004 		stw 0,4(3)
 1407              	.LBE2196:
 1408              	.LBE2198:
 1409              		.loc 1 1797 0 discriminator 3
 1410 0050 80010014 		lwz 0,20(1)
 1411              	.LVL112:
 1412 0054 83C10008 		lwz 30,8(1)
 1413              	.LVL113:
 1414 0058 7C0803A6 		mtlr 0
 1415 005c 83E1000C 		lwz 31,12(1)
 1416              	.LVL114:
 1417              	.LBB2199:
 1418              	.LBB2197:
 1419              		.loc 1 1778 0 discriminator 3
 1420 0060 91430000 		stw 10,0(3)
 1421              	.LBE2197:
 1422              	.LBE2199:
 1423              		.loc 1 1797 0 discriminator 3
 1424 0064 38210010 		addi 1,1,16
 1425              	.LCFI27:
 1426              		.cfi_def_cfa_offset 0
 1427              		.cfi_restore 31
 1428              		.cfi_restore 30
 1429 0068 4E800020 		blr
 1430              		.cfi_endproc
 1431              	.LFE2080:
 1432              		.size	_ZN7sigslot12_connection3I8HomeMenuP9GuiButtoniRK6_POINTNS_15single_threadedEE9duplicateEPNS
 1433              		.section	.text._ZN7sigslot12_connection3I8HomeMenuP10GuiElementiiNS_15single_threadedEE9duplicateE
 1434              		.align 2
 1435              		.weak	_ZN7sigslot12_connection3I8HomeMenuP10GuiElementiiNS_15single_threadedEE9duplicateEPNS_9has_
 1436              		.type	_ZN7sigslot12_connection3I8HomeMenuP10GuiElementiiNS_15single_threadedEE9duplicateEPNS_9has_
 1437              	_ZN7sigslot12_connection3I8HomeMenuP10GuiElementiiNS_15single_threadedEE9duplicateEPNS_9has_slotsIS
 1438              	.LFB2066:
 1439              		.loc 1 1794 0
 1440              		.cfi_startproc
 1441              	.LVL115:
 1442 0000 9421FFF0 		stwu 1,-16(1)
 1443              	.LCFI28:
 1444              		.cfi_def_cfa_offset 16
 1445 0004 7C0802A6 		mflr 0
 1446 0008 93C10008 		stw 30,8(1)
 1447 000c 7C9E2378 		mr 30,4
 1448              		.cfi_offset 30, -8
 1449              		.cfi_register 65, 0
 1450 0010 93E1000C 		stw 31,12(1)
 1451 0014 7C7F1B78 		mr 31,3
 1452              		.cfi_offset 31, -4
 1453              		.loc 1 1796 0
 1454 0018 38600010 		li 3,16
 1455              	.LVL116:
 1456              		.loc 1 1794 0
 1457 001c 90010014 		stw 0,20(1)
 1458              		.loc 1 1796 0
 1459              		.cfi_offset 65, 4
 1460 0020 48000001 		bl _Znwj
 1461              	.LVL117:
 1462 0024 2F9E0000 		cmpwi 7,30,0
 1463 0028 38000000 		li 0,0
 1464 002c 419E0008 		beq- 7,.L93
 1465              		.loc 1 1796 0 is_stmt 0 discriminator 1
 1466 0030 381EFF50 		addi 0,30,-176
 1467              	.L93:
 1468              	.LVL118:
 1469              		.loc 1 1796 0 discriminator 3
 1470 0034 817F0008 		lwz 11,8(31)
 1471              	.LVL119:
 1472              	.LBB2200:
 1473              	.LBB2201:
 1474              		.loc 1 1778 0 is_stmt 1 discriminator 3
 1475 0038 3D400000 		lis 10,_ZTVN7sigslot12_connection3I8HomeMenuP10GuiElementiiNS_15single_threadedEEE+8@ha
 1476              	.LBE2201:
 1477              	.LBE2200:
 1478              		.loc 1 1796 0 discriminator 3
 1479 003c 813F000C 		lwz 9,12(31)
 1480              	.LVL120:
 1481              	.LBB2204:
 1482              	.LBB2202:
 1483              		.loc 1 1778 0 discriminator 3
 1484 0040 394A0008 		la 10,_ZTVN7sigslot12_connection3I8HomeMenuP10GuiElementiiNS_15single_threadedEEE+8@l(10)
 1485              		.loc 1 1780 0 discriminator 3
 1486 0044 91630008 		stw 11,8(3)
 1487 0048 9123000C 		stw 9,12(3)
 1488              		.loc 1 1779 0 discriminator 3
 1489 004c 90030004 		stw 0,4(3)
 1490              	.LBE2202:
 1491              	.LBE2204:
 1492              		.loc 1 1797 0 discriminator 3
 1493 0050 80010014 		lwz 0,20(1)
 1494              	.LVL121:
 1495 0054 83C10008 		lwz 30,8(1)
 1496              	.LVL122:
 1497 0058 7C0803A6 		mtlr 0
 1498 005c 83E1000C 		lwz 31,12(1)
 1499              	.LVL123:
 1500              	.LBB2205:
 1501              	.LBB2203:
 1502              		.loc 1 1778 0 discriminator 3
 1503 0060 91430000 		stw 10,0(3)
 1504              	.LBE2203:
 1505              	.LBE2205:
 1506              		.loc 1 1797 0 discriminator 3
 1507 0064 38210010 		addi 1,1,16
 1508              	.LCFI29:
 1509              		.cfi_def_cfa_offset 0
 1510              		.cfi_restore 31
 1511              		.cfi_restore 30
 1512 0068 4E800020 		blr
 1513              		.cfi_endproc
 1514              	.LFE2066:
 1515              		.size	_ZN7sigslot12_connection3I8HomeMenuP10GuiElementiiNS_15single_threadedEE9duplicateEPNS_9has_
 1516              		.section	.text._ZN7sigslot12_connection3I8HomeMenuP10GuiElementiiNS_15single_threadedEE5cloneEv,"a
 1517              		.align 2
 1518              		.weak	_ZN7sigslot12_connection3I8HomeMenuP10GuiElementiiNS_15single_threadedEE5cloneEv
 1519              		.type	_ZN7sigslot12_connection3I8HomeMenuP10GuiElementiiNS_15single_threadedEE5cloneEv, @function
 1520              	_ZN7sigslot12_connection3I8HomeMenuP10GuiElementiiNS_15single_threadedEE5cloneEv:
 1521              	.LFB2059:
 1522              		.loc 1 1789 0
 1523              		.cfi_startproc
 1524              	.LVL124:
 1525 0000 9421FFF0 		stwu 1,-16(1)
 1526              	.LCFI30:
 1527              		.cfi_def_cfa_offset 16
 1528 0004 7C0802A6 		mflr 0
 1529 0008 93E1000C 		stw 31,12(1)
 1530 000c 7C7F1B78 		mr 31,3
 1531              		.cfi_offset 31, -4
 1532              		.cfi_register 65, 0
 1533              		.loc 1 1791 0
 1534 0010 38600010 		li 3,16
 1535              	.LVL125:
 1536              		.loc 1 1789 0
 1537 0014 90010014 		stw 0,20(1)
 1538              		.loc 1 1791 0
 1539              		.cfi_offset 65, 4
 1540 0018 48000001 		bl _Znwj
 1541              		.file 4 "d:/Projects/SaveGameManager/savegame-manager-gx/trunk/source/Prompts/HomeMenu.cpp"
 1542              		.loc 4 473 0
 1543 001c 801F0004 		lwz 0,4(31)
 1544              	.LVL126:
 1545              	.LBB2206:
 1546              	.LBB2207:
 1547              		.loc 1 1767 0
 1548 0020 3D600000 		lis 11,_ZTVN7sigslot12_connection3I8HomeMenuP10GuiElementiiNS_15single_threadedEEE+8@ha
 1549 0024 396B0008 		la 11,_ZTVN7sigslot12_connection3I8HomeMenuP10GuiElementiiNS_15single_threadedEEE+8@l(11)
 1550 0028 90030004 		stw 0,4(3)
 1551 002c 91630000 		stw 11,0(3)
 1552 0030 815F0008 		lwz 10,8(31)
 1553 0034 817F000C 		lwz 11,12(31)
 1554 0038 91430008 		stw 10,8(3)
 1555 003c 9163000C 		stw 11,12(3)
 1556              	.LBE2207:
 1557              	.LBE2206:
 1558              		.loc 1 1792 0
 1559 0040 80010014 		lwz 0,20(1)
 1560 0044 83E1000C 		lwz 31,12(1)
 1561              	.LVL127:
 1562 0048 7C0803A6 		mtlr 0
 1563 004c 38210010 		addi 1,1,16
 1564              	.LCFI31:
 1565              		.cfi_def_cfa_offset 0
 1566              		.cfi_restore 31
 1567 0050 4E800020 		blr
 1568              		.cfi_endproc
 1569              	.LFE2059:
 1570              		.size	_ZN7sigslot12_connection3I8HomeMenuP10GuiElementiiNS_15single_threadedEE5cloneEv, .-_ZN7sigs
 1571              		.section	.text._ZN7sigslot12_connection3I8HomeMenuP9GuiButtoniRK6_POINTNS_15single_threadedEE5clon
 1572              		.align 2
 1573              		.weak	_ZN7sigslot12_connection3I8HomeMenuP9GuiButtoniRK6_POINTNS_15single_threadedEE5cloneEv
 1574              		.type	_ZN7sigslot12_connection3I8HomeMenuP9GuiButtoniRK6_POINTNS_15single_threadedEE5cloneEv, @fun
 1575              	_ZN7sigslot12_connection3I8HomeMenuP9GuiButtoniRK6_POINTNS_15single_threadedEE5cloneEv:
 1576              	.LFB2073:
 1577              		.loc 1 1789 0
 1578              		.cfi_startproc
 1579              	.LVL128:
 1580 0000 9421FFF0 		stwu 1,-16(1)
 1581              	.LCFI32:
 1582              		.cfi_def_cfa_offset 16
 1583 0004 7C0802A6 		mflr 0
 1584 0008 93E1000C 		stw 31,12(1)
 1585 000c 7C7F1B78 		mr 31,3
 1586              		.cfi_offset 31, -4
 1587              		.cfi_register 65, 0
 1588              		.loc 1 1791 0
 1589 0010 38600010 		li 3,16
 1590              	.LVL129:
 1591              		.loc 1 1789 0
 1592 0014 90010014 		stw 0,20(1)
 1593              		.loc 1 1791 0
 1594              		.cfi_offset 65, 4
 1595 0018 48000001 		bl _Znwj
 1596              		.loc 4 473 0
 1597 001c 801F0004 		lwz 0,4(31)
 1598              	.LVL130:
 1599              	.LBB2208:
 1600              	.LBB2209:
 1601              		.loc 1 1767 0
 1602 0020 3D600000 		lis 11,_ZTVN7sigslot12_connection3I8HomeMenuP9GuiButtoniRK6_POINTNS_15single_threadedEEE+8@ha
 1603 0024 396B0008 		la 11,_ZTVN7sigslot12_connection3I8HomeMenuP9GuiButtoniRK6_POINTNS_15single_threadedEEE+8@l(11)
 1604 0028 90030004 		stw 0,4(3)
 1605 002c 91630000 		stw 11,0(3)
 1606 0030 815F0008 		lwz 10,8(31)
 1607 0034 817F000C 		lwz 11,12(31)
 1608 0038 91430008 		stw 10,8(3)
 1609 003c 9163000C 		stw 11,12(3)
 1610              	.LBE2209:
 1611              	.LBE2208:
 1612              		.loc 1 1792 0
 1613 0040 80010014 		lwz 0,20(1)
 1614 0044 83E1000C 		lwz 31,12(1)
 1615              	.LVL131:
 1616 0048 7C0803A6 		mtlr 0
 1617 004c 38210010 		addi 1,1,16
 1618              	.LCFI33:
 1619              		.cfi_def_cfa_offset 0
 1620              		.cfi_restore 31
 1621 0050 4E800020 		blr
 1622              		.cfi_endproc
 1623              	.LFE2073:
 1624              		.size	_ZN7sigslot12_connection3I8HomeMenuP9GuiButtoniRK6_POINTNS_15single_threadedEE5cloneEv, .-_Z
 1625              		.section	.text._ZN7sigslot12_connection3I8HomeMenuP9GuiButtoniRK6_POINTNS_15single_threadedEED0Ev,
 1626              		.align 2
 1627              		.weak	_ZN7sigslot12_connection3I8HomeMenuP9GuiButtoniRK6_POINTNS_15single_threadedEED0Ev
 1628              		.type	_ZN7sigslot12_connection3I8HomeMenuP9GuiButtoniRK6_POINTNS_15single_threadedEED0Ev, @functio
 1629              	_ZN7sigslot12_connection3I8HomeMenuP9GuiButtoniRK6_POINTNS_15single_threadedEED0Ev:
 1630              	.LFB2070:
 1631              		.loc 1 1783 0
 1632              		.cfi_startproc
 1633              	.LVL132:
 1634 0000 7C0802A6 		mflr 0
 1635 0004 9421FFF8 		stwu 1,-8(1)
 1636              	.LCFI34:
 1637              		.cfi_def_cfa_offset 8
 1638              		.cfi_register 65, 0
 1639              	.LBB2210:
 1640              	.LBB2211:
 1641              	.LBB2212:
 1642              	.LBB2213:
 1643              	.LBB2214:
 1644              	.LBB2215:
 1645              		.loc 1 387 0
 1646 0008 3D200000 		lis 9,_ZTVN7sigslot17_connection_base3IP9GuiButtoniRK6_POINTNS_15single_threadedEEE+8@ha
 1647              	.LBE2215:
 1648              	.LBE2214:
 1649              	.LBE2213:
 1650              	.LBE2212:
 1651              	.LBE2211:
 1652              	.LBE2210:
 1653              		.loc 1 1783 0
 1654 000c 9001000C 		stw 0,12(1)
 1655              	.LBB2221:
 1656              	.LBB2220:
 1657              	.LBB2219:
 1658              	.LBB2218:
 1659              	.LBB2217:
 1660              	.LBB2216:
 1661              		.loc 1 387 0
 1662 0010 38090008 		la 0,_ZTVN7sigslot17_connection_base3IP9GuiButtoniRK6_POINTNS_15single_threadedEEE+8@l(9)
 1663              		.cfi_offset 65, 4
 1664 0014 90030000 		stw 0,0(3)
 1665              	.LBE2216:
 1666              	.LBE2217:
 1667              	.LBE2218:
 1668              	.LBE2219:
 1669              	.LBE2220:
 1670              	.LBE2221:
 1671              		.loc 1 1786 0
 1672 0018 48000001 		bl _ZdlPv
 1673              	.LVL133:
 1674 001c 8001000C 		lwz 0,12(1)
 1675 0020 38210008 		addi 1,1,8
 1676              	.LCFI35:
 1677              		.cfi_def_cfa_offset 0
 1678 0024 7C0803A6 		mtlr 0
 1679 0028 4E800020 		blr
 1680              		.cfi_endproc
 1681              	.LFE2070:
 1682              		.size	_ZN7sigslot12_connection3I8HomeMenuP9GuiButtoniRK6_POINTNS_15single_threadedEED0Ev, .-_ZN7si
 1683              		.section	.text._ZN7sigslot12_connection3I8HomeMenuP10GuiElementiiNS_15single_threadedEED0Ev,"axG",
 1684              		.align 2
 1685              		.weak	_ZN7sigslot12_connection3I8HomeMenuP10GuiElementiiNS_15single_threadedEED0Ev
 1686              		.type	_ZN7sigslot12_connection3I8HomeMenuP10GuiElementiiNS_15single_threadedEED0Ev, @function
 1687              	_ZN7sigslot12_connection3I8HomeMenuP10GuiElementiiNS_15single_threadedEED0Ev:
 1688              	.LFB2056:
 1689              		.loc 1 1783 0
 1690              		.cfi_startproc
 1691              	.LVL134:
 1692 0000 7C0802A6 		mflr 0
 1693 0004 9421FFF8 		stwu 1,-8(1)
 1694              	.LCFI36:
 1695              		.cfi_def_cfa_offset 8
 1696              		.cfi_register 65, 0
 1697              	.LBB2222:
 1698              	.LBB2223:
 1699              	.LBB2224:
 1700              	.LBB2225:
 1701              	.LBB2226:
 1702              	.LBB2227:
 1703              		.loc 1 387 0
 1704 0008 3D200000 		lis 9,_ZTVN7sigslot17_connection_base3IP10GuiElementiiNS_15single_threadedEEE+8@ha
 1705              	.LBE2227:
 1706              	.LBE2226:
 1707              	.LBE2225:
 1708              	.LBE2224:
 1709              	.LBE2223:
 1710              	.LBE2222:
 1711              		.loc 1 1783 0
 1712 000c 9001000C 		stw 0,12(1)
 1713              	.LBB2233:
 1714              	.LBB2232:
 1715              	.LBB2231:
 1716              	.LBB2230:
 1717              	.LBB2229:
 1718              	.LBB2228:
 1719              		.loc 1 387 0
 1720 0010 38090008 		la 0,_ZTVN7sigslot17_connection_base3IP10GuiElementiiNS_15single_threadedEEE+8@l(9)
 1721              		.cfi_offset 65, 4
 1722 0014 90030000 		stw 0,0(3)
 1723              	.LBE2228:
 1724              	.LBE2229:
 1725              	.LBE2230:
 1726              	.LBE2231:
 1727              	.LBE2232:
 1728              	.LBE2233:
 1729              		.loc 1 1786 0
 1730 0018 48000001 		bl _ZdlPv
 1731              	.LVL135:
 1732 001c 8001000C 		lwz 0,12(1)
 1733 0020 38210008 		addi 1,1,8
 1734              	.LCFI37:
 1735              		.cfi_def_cfa_offset 0
 1736 0024 7C0803A6 		mtlr 0
 1737 0028 4E800020 		blr
 1738              		.cfi_endproc
 1739              	.LFE2056:
 1740              		.size	_ZN7sigslot12_connection3I8HomeMenuP10GuiElementiiNS_15single_threadedEED0Ev, .-_ZN7sigslot1
 1741              		.section	.text._ZN7sigslot17_connection_base3IP10GuiElementiiNS_15single_threadedEED0Ev,"axG",@pro
 1742              		.align 2
 1743              		.weak	_ZN7sigslot17_connection_base3IP10GuiElementiiNS_15single_threadedEED0Ev
 1744              		.type	_ZN7sigslot17_connection_base3IP10GuiElementiiNS_15single_threadedEED0Ev, @function
 1745              	_ZN7sigslot17_connection_base3IP10GuiElementiiNS_15single_threadedEED0Ev:
 1746              	.LFB1806:
 1747              		.loc 1 387 0
 1748              		.cfi_startproc
 1749              	.LVL136:
 1750 0000 7C0802A6 		mflr 0
 1751 0004 9421FFF8 		stwu 1,-8(1)
 1752              	.LCFI38:
 1753              		.cfi_def_cfa_offset 8
 1754              		.cfi_register 65, 0
 1755              	.LBB2234:
 1756              	.LBB2235:
 1757              	.LBB2236:
 1758 0008 3D200000 		lis 9,_ZTVN7sigslot17_connection_base3IP10GuiElementiiNS_15single_threadedEEE+8@ha
 1759              	.LBE2236:
 1760              	.LBE2235:
 1761              	.LBE2234:
 1762 000c 9001000C 		stw 0,12(1)
 1763              	.LBB2239:
 1764              	.LBB2238:
 1765              	.LBB2237:
 1766              		.loc 1 387 0
 1767 0010 38090008 		la 0,_ZTVN7sigslot17_connection_base3IP10GuiElementiiNS_15single_threadedEEE+8@l(9)
 1768              		.cfi_offset 65, 4
 1769 0014 90030000 		stw 0,0(3)
 1770              	.LBE2237:
 1771              	.LBE2238:
 1772              	.LBE2239:
 1773 0018 48000001 		bl _ZdlPv
 1774              	.LVL137:
 1775 001c 8001000C 		lwz 0,12(1)
 1776 0020 38210008 		addi 1,1,8
 1777              	.LCFI39:
 1778              		.cfi_def_cfa_offset 0
 1779 0024 7C0803A6 		mtlr 0
 1780 0028 4E800020 		blr
 1781              		.cfi_endproc
 1782              	.LFE1806:
 1783              		.size	_ZN7sigslot17_connection_base3IP10GuiElementiiNS_15single_threadedEED0Ev, .-_ZN7sigslot17_co
 1784              		.section	.text._ZN7sigslot17_connection_base3IP9GuiButtoniRK6_POINTNS_15single_threadedEED0Ev,"axG
 1785              		.align 2
 1786              		.weak	_ZN7sigslot17_connection_base3IP9GuiButtoniRK6_POINTNS_15single_threadedEED0Ev
 1787              		.type	_ZN7sigslot17_connection_base3IP9GuiButtoniRK6_POINTNS_15single_threadedEED0Ev, @function
 1788              	_ZN7sigslot17_connection_base3IP9GuiButtoniRK6_POINTNS_15single_threadedEED0Ev:
 1789              	.LFB1799:
 1790              		.loc 1 387 0
 1791              		.cfi_startproc
 1792              	.LVL138:
 1793 0000 7C0802A6 		mflr 0
 1794 0004 9421FFF8 		stwu 1,-8(1)
 1795              	.LCFI40:
 1796              		.cfi_def_cfa_offset 8
 1797              		.cfi_register 65, 0
 1798              	.LBB2240:
 1799              	.LBB2241:
 1800              	.LBB2242:
 1801 0008 3D200000 		lis 9,_ZTVN7sigslot17_connection_base3IP9GuiButtoniRK6_POINTNS_15single_threadedEEE+8@ha
 1802              	.LBE2242:
 1803              	.LBE2241:
 1804              	.LBE2240:
 1805 000c 9001000C 		stw 0,12(1)
 1806              	.LBB2245:
 1807              	.LBB2244:
 1808              	.LBB2243:
 1809              		.loc 1 387 0
 1810 0010 38090008 		la 0,_ZTVN7sigslot17_connection_base3IP9GuiButtoniRK6_POINTNS_15single_threadedEEE+8@l(9)
 1811              		.cfi_offset 65, 4
 1812 0014 90030000 		stw 0,0(3)
 1813              	.LBE2243:
 1814              	.LBE2244:
 1815              	.LBE2245:
 1816 0018 48000001 		bl _ZdlPv
 1817              	.LVL139:
 1818 001c 8001000C 		lwz 0,12(1)
 1819 0020 38210008 		addi 1,1,8
 1820              	.LCFI41:
 1821              		.cfi_def_cfa_offset 0
 1822 0024 7C0803A6 		mtlr 0
 1823 0028 4E800020 		blr
 1824              		.cfi_endproc
 1825              	.LFE1799:
 1826              		.size	_ZN7sigslot17_connection_base3IP9GuiButtoniRK6_POINTNS_15single_threadedEED0Ev, .-_ZN7sigslo
 1827              		.section	.text._ZN7sigslot15single_threadedD0Ev,"axG",@progbits,_ZN7sigslot15single_threadedD5Ev,c
 1828              		.align 2
 1829              		.weak	_ZN7sigslot15single_threadedD0Ev
 1830              		.type	_ZN7sigslot15single_threadedD0Ev, @function
 1831              	_ZN7sigslot15single_threadedD0Ev:
 1832              	.LFB1150:
 1833              		.loc 1 104 0
 1834              		.cfi_startproc
 1835              	.LVL140:
 1836 0000 7C0802A6 		mflr 0
 1837 0004 9421FFF8 		stwu 1,-8(1)
 1838              	.LCFI42:
 1839              		.cfi_def_cfa_offset 8
 1840              		.cfi_register 65, 0
 1841              	.LBB2246:
 1842              	.LBB2247:
 1843              	.LBB2248:
 1844              		.loc 1 105 0
 1845 0008 3D200000 		lis 9,_ZTVN7sigslot15single_threadedE+8@ha
 1846              	.LBE2248:
 1847              	.LBE2247:
 1848              	.LBE2246:
 1849              		.loc 1 104 0
 1850 000c 9001000C 		stw 0,12(1)
 1851              	.LBB2251:
 1852              	.LBB2250:
 1853              	.LBB2249:
 1854              		.loc 1 105 0
 1855 0010 38090008 		la 0,_ZTVN7sigslot15single_threadedE+8@l(9)
 1856              		.cfi_offset 65, 4
 1857 0014 90030000 		stw 0,0(3)
 1858              	.LBE2249:
 1859              	.LBE2250:
 1860              	.LBE2251:
 1861              		.loc 1 107 0
 1862 0018 48000001 		bl _ZdlPv
 1863              	.LVL141:
 1864 001c 8001000C 		lwz 0,12(1)
 1865 0020 38210008 		addi 1,1,8
 1866              	.LCFI43:
 1867              		.cfi_def_cfa_offset 0
 1868 0024 7C0803A6 		mtlr 0
 1869 0028 4E800020 		blr
 1870              		.cfi_endproc
 1871              	.LFE1150:
 1872              		.size	_ZN7sigslot15single_threadedD0Ev, .-_ZN7sigslot15single_threadedD0Ev
 1873              		.section	".text"
 1874              		.align 2
 1875              		.globl _ZN8HomeMenu4DrawEv
 1876              		.type	_ZN8HomeMenu4DrawEv, @function
 1877              	_ZN8HomeMenu4DrawEv:
 1878              	.LFB1628:
 1879              		.loc 4 436 0
 1880              		.cfi_startproc
 1881              	.LVL142:
 1882              	.LBB2252:
 1883              	.LBB2253:
 1884              		.loc 4 438 0
 1885 0000 3D200000 		lis 9,Settings+2576@ha
 1886              	.LBE2253:
 1887              	.LBE2252:
 1888              		.loc 4 436 0
 1889 0004 7C0802A6 		mflr 0
 1890              	.LBB2272:
 1891              	.LBB2265:
 1892              		.loc 4 438 0
 1893 0008 89290A10 		lbz 9,Settings+2576@l(9)
 1894 000c 3D600000 		lis 11,frameCount@ha
 1895              	.LBE2265:
 1896              	.LBE2272:
 1897              		.loc 4 436 0
 1898 0010 9421FFC0 		stwu 1,-64(1)
 1899              	.LCFI44:
 1900              		.cfi_def_cfa_offset 64
 1901              		.cfi_register 65, 0
 1902              	.LBB2273:
 1903              	.LBB2266:
 1904              		.loc 4 438 0
 1905 0014 3129FFFF 		addic 9,9,-1
 1906 0018 7D294910 		subfe 9,9,9
 1907 001c 7129000A 		andi. 9,9,10
 1908              	.LBE2266:
 1909              	.LBE2273:
 1910              		.loc 4 436 0
 1911 0020 90010044 		stw 0,68(1)
 1912              	.LBB2274:
 1913              	.LBB2267:
 1914              		.loc 4 438 0
 1915 0024 800B0000 		lwz 0,frameCount@l(11)
 1916              		.cfi_offset 65, 4
 1917 0028 39290032 		addi 9,9,50
 1918              	.LBE2267:
 1919              	.LBE2274:
 1920              		.loc 4 436 0
 1921 002c 93E1003C 		stw 31,60(1)
 1922              	.LBB2275:
 1923              	.LBB2268:
 1924              		.loc 4 438 0
 1925 0030 7D604B96 		divwu 11,0,9
 1926              	.LBE2268:
 1927              	.LBE2275:
 1928              		.loc 4 436 0
 1929 0034 93C10038 		stw 30,56(1)
 1930              		.loc 4 436 0
 1931 0038 7C7F1B78 		mr 31,3
 1932              		.cfi_offset 30, -8
 1933              		.cfi_offset 31, -4
 1934              	.LBB2276:
 1935              	.LBB2269:
 1936              		.loc 4 438 0
 1937 003c 7D2B49D6 		mullw 9,11,9
 1938 0040 7F804800 		cmpw 7,0,9
 1939 0044 409E01E0 		bne- 7,.L116
 1940              	.LBB2254:
 1941              	.LBB2255:
 1942              		.loc 4 442 0
 1943 0048 38600000 		li 3,0
 1944              	.LVL143:
 1945 004c 38800000 		li 4,0
 1946 0050 48000001 		bl WPAD_Probe
 1947 0054 2F830000 		cmpwi 7,3,0
 1948 0058 419E01EC 		beq- 7,.L117
 1949              		.loc 4 464 0
 1950 005c 807F0100 		lwz 3,256(31)
 1951 0060 809F00D4 		lwz 4,212(31)
 1952 0064 48000001 		bl _ZN8GuiImage8SetImageEP12GuiImageData
 1953              		.loc 4 465 0
 1954 0068 807F00F0 		lwz 3,240(31)
 1955 006c 38800000 		li 4,0
 1956 0070 48000001 		bl _ZN8GuiImage17SetTileHorizontalEi
 1957              		.loc 4 466 0
 1958 0074 807F016C 		lwz 3,364(31)
 1959 0078 38800082 		li 4,130
 1960 007c 81230000 		lwz 9,0(3)
 1961 0080 80090060 		lwz 0,96(9)
 1962 0084 7C0903A6 		mtctr 0
 1963 0088 4E800421 		bctrl
 1964              		.loc 4 467 0
 1965 008c 807F0134 		lwz 3,308(31)
 1966 0090 38800064 		li 4,100
 1967 0094 81230000 		lwz 9,0(3)
 1968 0098 80090060 		lwz 0,96(9)
 1969 009c 7C0903A6 		mtctr 0
 1970 00a0 4E800421 		bctrl
 1971              	.LVL144:
 1972              		.loc 4 442 0
 1973 00a4 38600001 		li 3,1
 1974 00a8 38800000 		li 4,0
 1975 00ac 48000001 		bl WPAD_Probe
 1976 00b0 2F830000 		cmpwi 7,3,0
 1977 00b4 419E0254 		beq- 7,.L121
 1978              	.L138:
 1979              		.loc 4 464 0
 1980 00b8 807F0104 		lwz 3,260(31)
 1981 00bc 809F00D4 		lwz 4,212(31)
 1982 00c0 48000001 		bl _ZN8GuiImage8SetImageEP12GuiImageData
 1983              		.loc 4 465 0
 1984 00c4 807F00F4 		lwz 3,244(31)
 1985 00c8 38800000 		li 4,0
 1986 00cc 48000001 		bl _ZN8GuiImage17SetTileHorizontalEi
 1987              		.loc 4 466 0
 1988 00d0 807F0170 		lwz 3,368(31)
 1989 00d4 38800082 		li 4,130
 1990 00d8 81230000 		lwz 9,0(3)
 1991 00dc 80090060 		lwz 0,96(9)
 1992 00e0 7C0903A6 		mtctr 0
 1993 00e4 4E800421 		bctrl
 1994              		.loc 4 467 0
 1995 00e8 807F0138 		lwz 3,312(31)
 1996 00ec 38800064 		li 4,100
 1997 00f0 81230000 		lwz 9,0(3)
 1998 00f4 80090060 		lwz 0,96(9)
 1999 00f8 7C0903A6 		mtctr 0
 2000 00fc 4E800421 		bctrl
 2001              	.LVL145:
 2002              		.loc 4 442 0
 2003 0100 38600002 		li 3,2
 2004 0104 38800000 		li 4,0
 2005 0108 48000001 		bl WPAD_Probe
 2006 010c 2F830000 		cmpwi 7,3,0
 2007 0110 419E02C0 		beq- 7,.L125
 2008              	.L139:
 2009              		.loc 4 464 0
 2010 0114 807F0108 		lwz 3,264(31)
 2011 0118 809F00D4 		lwz 4,212(31)
 2012 011c 48000001 		bl _ZN8GuiImage8SetImageEP12GuiImageData
 2013              		.loc 4 465 0
 2014 0120 807F00F8 		lwz 3,248(31)
 2015 0124 38800000 		li 4,0
 2016 0128 48000001 		bl _ZN8GuiImage17SetTileHorizontalEi
 2017              		.loc 4 466 0
 2018 012c 807F0174 		lwz 3,372(31)
 2019 0130 38800082 		li 4,130
 2020 0134 81230000 		lwz 9,0(3)
 2021 0138 80090060 		lwz 0,96(9)
 2022 013c 7C0903A6 		mtctr 0
 2023 0140 4E800421 		bctrl
 2024              		.loc 4 467 0
 2025 0144 807F013C 		lwz 3,316(31)
 2026 0148 38800064 		li 4,100
 2027 014c 81230000 		lwz 9,0(3)
 2028 0150 80090060 		lwz 0,96(9)
 2029 0154 7C0903A6 		mtctr 0
 2030 0158 4E800421 		bctrl
 2031              	.LVL146:
 2032              		.loc 4 442 0
 2033 015c 38600003 		li 3,3
 2034 0160 38800000 		li 4,0
 2035 0164 48000001 		bl WPAD_Probe
 2036 0168 2F830000 		cmpwi 7,3,0
 2037 016c 409E032C 		bne- 7,.L129
 2038              	.L140:
 2039              	.LBB2256:
 2040              		.loc 4 444 0
 2041 0170 38600003 		li 3,3
 2042 0174 48000001 		bl WPAD_BatteryLevel
 2043 0178 3C004330 		lis 0,0x4330
 2044 017c 6C638000 		xoris 3,3,0x8000
 2045 0180 90010020 		stw 0,32(1)
 2046 0184 90610024 		stw 3,36(1)
 2047 0188 3D200000 		lis 9,.LC1@ha
 2048 018c C0090000 		lfs 0,.LC1@l(9)
 2049 0190 3D200000 		lis 9,.LC5@ha
 2050 0194 C9A10020 		lfd 13,32(1)
 2051 0198 FC0D0028 		fsub 0,13,0
 2052 019c C1A9000C 		lfs 13,.LC5@l(9)
 2053 01a0 3D200000 		lis 9,.LC7@ha
 2054 01a4 FC006824 		fdiv 0,0,13
 2055 01a8 C1A90010 		lfs 13,.LC7@l(9)
 2056 01ac 39210028 		addi 9,1,40
 2057 01b0 FC000372 		fmul 0,0,13
 2058 01b4 FC00001E 		fctiwz 0,0
 2059 01b8 7C004FAE 		stfiwx 0,0,9
 2060 01bc 83C10028 		lwz 30,40(1)
 2061              	.LVL147:
 2062              		.loc 4 445 0
 2063 01c0 2F9E0004 		cmpwi 7,30,4
 2064 01c4 419D039C 		bgt- 7,.L137
 2065              		.loc 4 447 0
 2066 01c8 2F9E0001 		cmpwi 7,30,1
 2067 01cc 419D0398 		bgt- 7,.L130
 2068              		.loc 4 449 0
 2069 01d0 807F010C 		lwz 3,268(31)
 2070 01d4 809F00D0 		lwz 4,208(31)
 2071 01d8 48000001 		bl _ZN8GuiImage8SetImageEP12GuiImageData
 2072              	.LVL148:
 2073              		.loc 4 450 0
 2074 01dc 807F00FC 		lwz 3,252(31)
 2075 01e0 809F00D8 		lwz 4,216(31)
 2076 01e4 48000001 		bl _ZN8GuiImage8SetImageEP12GuiImageData
 2077              	.LVL149:
 2078              	.L131:
 2079              		.loc 4 458 0
 2080 01e8 807F00FC 		lwz 3,252(31)
 2081 01ec 7FC4F378 		mr 4,30
 2082 01f0 48000001 		bl _ZN8GuiImage17SetTileHorizontalEi
 2083              		.loc 4 459 0
 2084 01f4 807F0178 		lwz 3,376(31)
 2085 01f8 388000FF 		li 4,255
 2086 01fc 81230000 		lwz 9,0(3)
 2087 0200 80090060 		lwz 0,96(9)
 2088 0204 7C0903A6 		mtctr 0
 2089 0208 4E800421 		bctrl
 2090              		.loc 4 460 0
 2091 020c 807F0140 		lwz 3,320(31)
 2092 0210 388000FF 		li 4,255
 2093 0214 81230000 		lwz 9,0(3)
 2094 0218 80090060 		lwz 0,96(9)
 2095 021c 7C0903A6 		mtctr 0
 2096 0220 4E800421 		bctrl
 2097              	.LVL150:
 2098              	.L116:
 2099              	.LBE2256:
 2100              	.LBE2255:
 2101              	.LBE2254:
 2102              	.LBE2269:
 2103              		.loc 4 472 0
 2104 0224 7FE3FB78 		mr 3,31
 2105 0228 48000001 		bl _ZN8GuiFrame4DrawEv
 2106              	.LBE2276:
 2107              		.loc 4 473 0
 2108 022c 80010044 		lwz 0,68(1)
 2109 0230 83C10038 		lwz 30,56(1)
 2110 0234 7C0803A6 		mtlr 0
 2111 0238 83E1003C 		lwz 31,60(1)
 2112              	.LVL151:
 2113 023c 38210040 		addi 1,1,64
 2114              		.cfi_remember_state
 2115              	.LCFI45:
 2116              		.cfi_def_cfa_offset 0
 2117              		.cfi_restore 31
 2118              		.cfi_restore 30
 2119 0240 4E800020 		blr
 2120              	.LVL152:
 2121              	.L117:
 2122              	.LCFI46:
 2123              		.cfi_restore_state
 2124              	.LBB2277:
 2125              	.LBB2270:
 2126              	.LBB2263:
 2127              	.LBB2261:
 2128              	.LBB2257:
 2129              		.loc 4 444 0
 2130 0244 48000001 		bl WPAD_BatteryLevel
 2131 0248 3C004330 		lis 0,0x4330
 2132 024c 6C638000 		xoris 3,3,0x8000
 2133 0250 90010008 		stw 0,8(1)
 2134 0254 9061000C 		stw 3,12(1)
 2135 0258 3D200000 		lis 9,.LC1@ha
 2136 025c C0090000 		lfs 0,.LC1@l(9)
 2137 0260 3D200000 		lis 9,.LC5@ha
 2138 0264 C9A10008 		lfd 13,8(1)
 2139 0268 FC0D0028 		fsub 0,13,0
 2140 026c C1A9000C 		lfs 13,.LC5@l(9)
 2141 0270 3D200000 		lis 9,.LC7@ha
 2142 0274 FC006824 		fdiv 0,0,13
 2143 0278 C1A90010 		lfs 13,.LC7@l(9)
 2144 027c 39210034 		addi 9,1,52
 2145 0280 FC000372 		fmul 0,0,13
 2146 0284 FC00001E 		fctiwz 0,0
 2147 0288 7C004FAE 		stfiwx 0,0,9
 2148 028c 83C10034 		lwz 30,52(1)
 2149              	.LVL153:
 2150              		.loc 4 445 0
 2151 0290 2F9E0004 		cmpwi 7,30,4
 2152 0294 419D02AC 		bgt- 7,.L134
 2153              		.loc 4 447 0
 2154 0298 2F9E0001 		cmpwi 7,30,1
 2155 029c 419D02A8 		bgt- 7,.L119
 2156              		.loc 4 449 0
 2157 02a0 807F0100 		lwz 3,256(31)
 2158 02a4 809F00D0 		lwz 4,208(31)
 2159 02a8 48000001 		bl _ZN8GuiImage8SetImageEP12GuiImageData
 2160              	.LVL154:
 2161              		.loc 4 450 0
 2162 02ac 807F00F0 		lwz 3,240(31)
 2163 02b0 809F00D8 		lwz 4,216(31)
 2164 02b4 48000001 		bl _ZN8GuiImage8SetImageEP12GuiImageData
 2165              	.LVL155:
 2166              	.L120:
 2167              		.loc 4 458 0
 2168 02b8 807F00F0 		lwz 3,240(31)
 2169 02bc 7FC4F378 		mr 4,30
 2170 02c0 48000001 		bl _ZN8GuiImage17SetTileHorizontalEi
 2171              		.loc 4 459 0
 2172 02c4 807F016C 		lwz 3,364(31)
 2173 02c8 388000FF 		li 4,255
 2174 02cc 81230000 		lwz 9,0(3)
 2175 02d0 80090060 		lwz 0,96(9)
 2176 02d4 7C0903A6 		mtctr 0
 2177 02d8 4E800421 		bctrl
 2178              		.loc 4 460 0
 2179 02dc 807F0134 		lwz 3,308(31)
 2180 02e0 388000FF 		li 4,255
 2181 02e4 81230000 		lwz 9,0(3)
 2182 02e8 80090060 		lwz 0,96(9)
 2183 02ec 7C0903A6 		mtctr 0
 2184 02f0 4E800421 		bctrl
 2185              	.LVL156:
 2186              	.LBE2257:
 2187              		.loc 4 442 0
 2188 02f4 38600001 		li 3,1
 2189 02f8 38800000 		li 4,0
 2190 02fc 48000001 		bl WPAD_Probe
 2191 0300 2F830000 		cmpwi 7,3,0
 2192 0304 40BEFDB4 		bne- 7,.L138
 2193              	.L121:
 2194              	.LBB2258:
 2195              		.loc 4 444 0
 2196 0308 38600001 		li 3,1
 2197 030c 48000001 		bl WPAD_BatteryLevel
 2198 0310 3C004330 		lis 0,0x4330
 2199 0314 6C638000 		xoris 3,3,0x8000
 2200 0318 90010010 		stw 0,16(1)
 2201 031c 90610014 		stw 3,20(1)
 2202 0320 3D200000 		lis 9,.LC1@ha
 2203 0324 C0090000 		lfs 0,.LC1@l(9)
 2204 0328 3D200000 		lis 9,.LC5@ha
 2205 032c C9A10010 		lfd 13,16(1)
 2206 0330 FC0D0028 		fsub 0,13,0
 2207 0334 C1A9000C 		lfs 13,.LC5@l(9)
 2208 0338 3D200000 		lis 9,.LC7@ha
 2209 033c FC006824 		fdiv 0,0,13
 2210 0340 C1A90010 		lfs 13,.LC7@l(9)
 2211 0344 39210030 		addi 9,1,48
 2212 0348 FC000372 		fmul 0,0,13
 2213 034c FC00001E 		fctiwz 0,0
 2214 0350 7C004FAE 		stfiwx 0,0,9
 2215 0354 83C10030 		lwz 30,48(1)
 2216              	.LVL157:
 2217              		.loc 4 445 0
 2218 0358 2F9E0004 		cmpwi 7,30,4
 2219 035c 419D01A4 		bgt- 7,.L135
 2220              		.loc 4 447 0
 2221 0360 2F9E0001 		cmpwi 7,30,1
 2222 0364 419D01A0 		bgt- 7,.L123
 2223              		.loc 4 449 0
 2224 0368 807F0104 		lwz 3,260(31)
 2225 036c 809F00D0 		lwz 4,208(31)
 2226 0370 48000001 		bl _ZN8GuiImage8SetImageEP12GuiImageData
 2227              	.LVL158:
 2228              		.loc 4 450 0
 2229 0374 807F00F4 		lwz 3,244(31)
 2230 0378 809F00D8 		lwz 4,216(31)
 2231 037c 48000001 		bl _ZN8GuiImage8SetImageEP12GuiImageData
 2232              	.LVL159:
 2233              	.L124:
 2234              		.loc 4 458 0
 2235 0380 807F00F4 		lwz 3,244(31)
 2236 0384 7FC4F378 		mr 4,30
 2237 0388 48000001 		bl _ZN8GuiImage17SetTileHorizontalEi
 2238              		.loc 4 459 0
 2239 038c 807F0170 		lwz 3,368(31)
 2240 0390 388000FF 		li 4,255
 2241 0394 81230000 		lwz 9,0(3)
 2242 0398 80090060 		lwz 0,96(9)
 2243 039c 7C0903A6 		mtctr 0
 2244 03a0 4E800421 		bctrl
 2245              		.loc 4 460 0
 2246 03a4 807F0138 		lwz 3,312(31)
 2247 03a8 388000FF 		li 4,255
 2248 03ac 81230000 		lwz 9,0(3)
 2249 03b0 80090060 		lwz 0,96(9)
 2250 03b4 7C0903A6 		mtctr 0
 2251 03b8 4E800421 		bctrl
 2252              	.LVL160:
 2253              	.LBE2258:
 2254              		.loc 4 442 0
 2255 03bc 38600002 		li 3,2
 2256 03c0 38800000 		li 4,0
 2257 03c4 48000001 		bl WPAD_Probe
 2258 03c8 2F830000 		cmpwi 7,3,0
 2259 03cc 40BEFD48 		bne- 7,.L139
 2260              	.L125:
 2261              	.LBB2259:
 2262              		.loc 4 444 0
 2263 03d0 38600002 		li 3,2
 2264 03d4 48000001 		bl WPAD_BatteryLevel
 2265 03d8 3C004330 		lis 0,0x4330
 2266 03dc 6C638000 		xoris 3,3,0x8000
 2267 03e0 90010018 		stw 0,24(1)
 2268 03e4 9061001C 		stw 3,28(1)
 2269 03e8 3D200000 		lis 9,.LC1@ha
 2270 03ec C0090000 		lfs 0,.LC1@l(9)
 2271 03f0 3D200000 		lis 9,.LC5@ha
 2272 03f4 C9A10018 		lfd 13,24(1)
 2273 03f8 FC0D0028 		fsub 0,13,0
 2274 03fc C1A9000C 		lfs 13,.LC5@l(9)
 2275 0400 3D200000 		lis 9,.LC7@ha
 2276 0404 FC006824 		fdiv 0,0,13
 2277 0408 C1A90010 		lfs 13,.LC7@l(9)
 2278 040c 3921002C 		addi 9,1,44
 2279 0410 FC000372 		fmul 0,0,13
 2280 0414 FC00001E 		fctiwz 0,0
 2281 0418 7C004FAE 		stfiwx 0,0,9
 2282 041c 83C1002C 		lwz 30,44(1)
 2283              	.LVL161:
 2284              		.loc 4 445 0
 2285 0420 2F9E0004 		cmpwi 7,30,4
 2286 0424 419D00FC 		bgt- 7,.L136
 2287              		.loc 4 447 0
 2288 0428 2F9E0001 		cmpwi 7,30,1
 2289 042c 419D00F8 		bgt- 7,.L127
 2290              		.loc 4 449 0
 2291 0430 807F0108 		lwz 3,264(31)
 2292 0434 809F00D0 		lwz 4,208(31)
 2293 0438 48000001 		bl _ZN8GuiImage8SetImageEP12GuiImageData
 2294              	.LVL162:
 2295              		.loc 4 450 0
 2296 043c 807F00F8 		lwz 3,248(31)
 2297 0440 809F00D8 		lwz 4,216(31)
 2298 0444 48000001 		bl _ZN8GuiImage8SetImageEP12GuiImageData
 2299              	.LVL163:
 2300              	.L128:
 2301              		.loc 4 458 0
 2302 0448 807F00F8 		lwz 3,248(31)
 2303 044c 7FC4F378 		mr 4,30
 2304 0450 48000001 		bl _ZN8GuiImage17SetTileHorizontalEi
 2305              		.loc 4 459 0
 2306 0454 807F0174 		lwz 3,372(31)
 2307 0458 388000FF 		li 4,255
 2308 045c 81230000 		lwz 9,0(3)
 2309 0460 80090060 		lwz 0,96(9)
 2310 0464 7C0903A6 		mtctr 0
 2311 0468 4E800421 		bctrl
 2312              		.loc 4 460 0
 2313 046c 807F013C 		lwz 3,316(31)
 2314 0470 388000FF 		li 4,255
 2315 0474 81230000 		lwz 9,0(3)
 2316 0478 80090060 		lwz 0,96(9)
 2317 047c 7C0903A6 		mtctr 0
 2318 0480 4E800421 		bctrl
 2319              	.LVL164:
 2320              	.LBE2259:
 2321              		.loc 4 442 0
 2322 0484 38600003 		li 3,3
 2323 0488 38800000 		li 4,0
 2324 048c 48000001 		bl WPAD_Probe
 2325 0490 2F830000 		cmpwi 7,3,0
 2326 0494 41BEFCDC 		beq- 7,.L140
 2327              	.L129:
 2328              		.loc 4 464 0
 2329 0498 807F010C 		lwz 3,268(31)
 2330 049c 809F00D4 		lwz 4,212(31)
 2331 04a0 48000001 		bl _ZN8GuiImage8SetImageEP12GuiImageData
 2332              		.loc 4 465 0
 2333 04a4 807F00FC 		lwz 3,252(31)
 2334 04a8 38800000 		li 4,0
 2335 04ac 48000001 		bl _ZN8GuiImage17SetTileHorizontalEi
 2336              		.loc 4 466 0
 2337 04b0 807F0178 		lwz 3,376(31)
 2338 04b4 38800082 		li 4,130
 2339 04b8 81230000 		lwz 9,0(3)
 2340 04bc 80090060 		lwz 0,96(9)
 2341 04c0 7C0903A6 		mtctr 0
 2342 04c4 4E800421 		bctrl
 2343              		.loc 4 467 0
 2344 04c8 807F0140 		lwz 3,320(31)
 2345 04cc 38800064 		li 4,100
 2346 04d0 81230000 		lwz 9,0(3)
 2347 04d4 80090060 		lwz 0,96(9)
 2348 04d8 7C0903A6 		mtctr 0
 2349 04dc 4E800421 		bctrl
 2350              	.LVL165:
 2351              	.LBE2261:
 2352              	.LBE2263:
 2353              	.LBE2270:
 2354              		.loc 4 472 0
 2355 04e0 7FE3FB78 		mr 3,31
 2356 04e4 48000001 		bl _ZN8GuiFrame4DrawEv
 2357              	.LBE2277:
 2358              		.loc 4 473 0
 2359 04e8 80010044 		lwz 0,68(1)
 2360 04ec 83C10038 		lwz 30,56(1)
 2361 04f0 7C0803A6 		mtlr 0
 2362 04f4 83E1003C 		lwz 31,60(1)
 2363              	.LVL166:
 2364 04f8 38210040 		addi 1,1,64
 2365              		.cfi_remember_state
 2366              		.cfi_restore 30
 2367              		.cfi_restore 31
 2368              	.LCFI47:
 2369              		.cfi_def_cfa_offset 0
 2370 04fc 4E800020 		blr
 2371              	.LVL167:
 2372              	.L135:
 2373              	.LCFI48:
 2374              		.cfi_restore_state
 2375              	.LBB2278:
 2376              	.LBB2271:
 2377              	.LBB2264:
 2378              	.LBB2262:
 2379              	.LBB2260:
 2380              		.loc 4 445 0
 2381 0500 3BC00004 		li 30,4
 2382              	.LVL168:
 2383              	.L123:
 2384              		.loc 4 454 0
 2385 0504 807F0104 		lwz 3,260(31)
 2386 0508 809F00D4 		lwz 4,212(31)
 2387 050c 48000001 		bl _ZN8GuiImage8SetImageEP12GuiImageData
 2388              	.LVL169:
 2389              		.loc 4 455 0
 2390 0510 807F00F4 		lwz 3,244(31)
 2391 0514 809F00DC 		lwz 4,220(31)
 2392 0518 48000001 		bl _ZN8GuiImage8SetImageEP12GuiImageData
 2393 051c 4BFFFE64 		b .L124
 2394              	.LVL170:
 2395              	.L136:
 2396              		.loc 4 445 0
 2397 0520 3BC00004 		li 30,4
 2398              	.LVL171:
 2399              	.L127:
 2400              		.loc 4 454 0
 2401 0524 807F0108 		lwz 3,264(31)
 2402 0528 809F00D4 		lwz 4,212(31)
 2403 052c 48000001 		bl _ZN8GuiImage8SetImageEP12GuiImageData
 2404              	.LVL172:
 2405              		.loc 4 455 0
 2406 0530 807F00F8 		lwz 3,248(31)
 2407 0534 809F00DC 		lwz 4,220(31)
 2408 0538 48000001 		bl _ZN8GuiImage8SetImageEP12GuiImageData
 2409 053c 4BFFFF0C 		b .L128
 2410              	.LVL173:
 2411              	.L134:
 2412              		.loc 4 445 0
 2413 0540 3BC00004 		li 30,4
 2414              	.LVL174:
 2415              	.L119:
 2416              		.loc 4 454 0
 2417 0544 807F0100 		lwz 3,256(31)
 2418 0548 809F00D4 		lwz 4,212(31)
 2419 054c 48000001 		bl _ZN8GuiImage8SetImageEP12GuiImageData
 2420              	.LVL175:
 2421              		.loc 4 455 0
 2422 0550 807F00F0 		lwz 3,240(31)
 2423 0554 809F00DC 		lwz 4,220(31)
 2424 0558 48000001 		bl _ZN8GuiImage8SetImageEP12GuiImageData
 2425 055c 4BFFFD5C 		b .L120
 2426              	.LVL176:
 2427              	.L137:
 2428              		.loc 4 445 0
 2429 0560 3BC00004 		li 30,4
 2430              	.LVL177:
 2431              	.L130:
 2432              		.loc 4 454 0
 2433 0564 807F010C 		lwz 3,268(31)
 2434 0568 809F00D4 		lwz 4,212(31)
 2435 056c 48000001 		bl _ZN8GuiImage8SetImageEP12GuiImageData
 2436              	.LVL178:
 2437              		.loc 4 455 0
 2438 0570 807F00FC 		lwz 3,252(31)
 2439 0574 809F00DC 		lwz 4,220(31)
 2440 0578 48000001 		bl _ZN8GuiImage8SetImageEP12GuiImageData
 2441 057c 4BFFFC6C 		b .L131
 2442              	.LBE2260:
 2443              	.LBE2262:
 2444              	.LBE2264:
 2445              	.LBE2271:
 2446              	.LBE2278:
 2447              		.cfi_endproc
 2448              	.LFE1628:
 2449              		.size	_ZN8HomeMenu4DrawEv, .-_ZN8HomeMenu4DrawEv
 2450              		.align 2
 2451              		.globl _ZN8HomeMenu13OnStateChangeEP10GuiElementii
 2452              		.type	_ZN8HomeMenu13OnStateChangeEP10GuiElementii, @function
 2453              	_ZN8HomeMenu13OnStateChangeEP10GuiElementii:
 2454              	.LFB1622:
 2455              		.loc 4 281 0
 2456              		.cfi_startproc
 2457              	.LVL179:
 2458 0580 7C0802A6 		mflr 0
 2459 0584 9421FFF0 		stwu 1,-16(1)
 2460              	.LCFI49:
 2461              		.cfi_def_cfa_offset 16
 2462              		.cfi_register 65, 0
 2463 0588 93C10008 		stw 30,8(1)
 2464 058c 90010014 		stw 0,20(1)
 2465 0590 93E1000C 		stw 31,12(1)
 2466              		.loc 4 282 0
 2467 0594 880300CC 		lbz 0,204(3)
 2468              		.cfi_offset 31, -4
 2469              		.cfi_offset 65, 4
 2470              		.cfi_offset 30, -8
 2471 0598 2F800000 		cmpwi 7,0,0
 2472 059c 409E003C 		bne- 7,.L141
 2473              	.LBB2281:
 2474              	.LBB2282:
 2475              		.loc 4 286 0
 2476 05a0 83C30110 		lwz 30,272(3)
 2477              	.LBE2282:
 2478              	.LBE2281:
 2479              		.loc 4 285 0
 2480 05a4 2F850001 		cmpwi 7,5,1
 2481              	.LBB2285:
 2482              	.LBB2283:
 2483              		.loc 4 286 0
 2484 05a8 813E0000 		lwz 9,0(30)
 2485 05ac 7FC3F378 		mr 3,30
 2486              	.LVL180:
 2487 05b0 80090010 		lwz 0,16(9)
 2488 05b4 83E900A8 		lwz 31,168(9)
 2489 05b8 7C0903A6 		mtctr 0
 2490              	.LBE2283:
 2491              	.LBE2285:
 2492              		.loc 4 285 0
 2493 05bc 419E0034 		beq- 7,.L144
 2494              		.loc 4 288 0
 2495 05c0 4E800421 		bctrl
 2496              	.LVL181:
 2497 05c4 38A000E8 		li 5,232
 2498 05c8 7C641B78 		mr 4,3
 2499 05cc 7FE903A6 		mtctr 31
 2500 05d0 7FC3F378 		mr 3,30
 2501 05d4 4E800421 		bctrl
 2502              	.L141:
 2503              		.loc 4 289 0
 2504 05d8 80010014 		lwz 0,20(1)
 2505 05dc 83C10008 		lwz 30,8(1)
 2506 05e0 7C0803A6 		mtlr 0
 2507 05e4 83E1000C 		lwz 31,12(1)
 2508 05e8 38210010 		addi 1,1,16
 2509              		.cfi_remember_state
 2510              	.LCFI50:
 2511              		.cfi_def_cfa_offset 0
 2512              		.cfi_restore 31
 2513              		.cfi_restore 30
 2514 05ec 4E800020 		blr
 2515              	.LVL182:
 2516              	.L144:
 2517              	.LCFI51:
 2518              		.cfi_restore_state
 2519              	.LBB2286:
 2520              	.LBB2284:
 2521              		.loc 4 286 0
 2522 05f0 4E800421 		bctrl
 2523              	.LVL183:
 2524 05f4 7FE903A6 		mtctr 31
 2525 05f8 7C641B78 		mr 4,3
 2526 05fc 38A000D2 		li 5,210
 2527 0600 7FC3F378 		mr 3,30
 2528 0604 4E800421 		bctrl
 2529              	.LBE2284:
 2530              	.LBE2286:
 2531              		.loc 4 289 0
 2532 0608 80010014 		lwz 0,20(1)
 2533 060c 83C10008 		lwz 30,8(1)
 2534              	.LVL184:
 2535 0610 7C0803A6 		mtlr 0
 2536 0614 83E1000C 		lwz 31,12(1)
 2537 0618 38210010 		addi 1,1,16
 2538              		.cfi_restore 30
 2539              		.cfi_restore 31
 2540              	.LCFI52:
 2541              		.cfi_def_cfa_offset 0
 2542 061c 4E800020 		blr
 2543              		.cfi_endproc
 2544              	.LFE1622:
 2545              		.size	_ZN8HomeMenu13OnStateChangeEP10GuiElementii, .-_ZN8HomeMenu13OnStateChangeEP10GuiElementii
 2546              		.align 2
 2547              		.globl _ZN8HomeMenu4quitEv
 2548              		.type	_ZN8HomeMenu4quitEv, @function
 2549              	_ZN8HomeMenu4quitEv:
 2550              	.LFB1620:
 2551              		.loc 4 250 0
 2552              		.cfi_startproc
 2553              		.cfi_personality 0,__gxx_personality_v0
 2554              		.cfi_lsda 0,.LLSDA1620
 2555              	.LVL185:
 2556 0620 7C0802A6 		mflr 0
 2557 0624 9421FFE8 		stwu 1,-24(1)
 2558              	.LCFI53:
 2559              		.cfi_def_cfa_offset 24
 2560              		.cfi_register 65, 0
 2561 0628 93C10010 		stw 30,16(1)
 2562 062c 7C7E1B78 		mr 30,3
 2563              		.cfi_offset 30, -8
 2564 0630 9001001C 		stw 0,28(1)
 2565 0634 93A1000C 		stw 29,12(1)
 2566              	.LBB2291:
 2567              		.loc 4 251 0
 2568 0638 806305CC 		lwz 3,1484(3)
 2569              	.LVL186:
 2570              	.LBE2291:
 2571              		.loc 4 250 0
 2572 063c 93E10014 		stw 31,20(1)
 2573              	.LEHB0:
 2574              	.LBB2297:
 2575              		.loc 4 251 0
 2576              		.cfi_offset 31, -4
 2577              		.cfi_offset 29, -12
 2578              		.cfi_offset 65, 4
 2579 0640 48000001 		bl _ZN8GuiSound4StopEv
 2580              		.loc 4 252 0
 2581 0644 807E05D0 		lwz 3,1488(30)
 2582 0648 48000001 		bl _ZN8GuiSound4PlayEv
 2583              		.loc 4 254 0
 2584 064c 807E0150 		lwz 3,336(30)
 2585 0650 38800021 		li 4,33
 2586 0654 38A00032 		li 5,50
 2587 0658 81230000 		lwz 9,0(3)
 2588 065c 38C00000 		li 6,0
 2589 0660 80090088 		lwz 0,136(9)
 2590 0664 7C0903A6 		mtctr 0
 2591 0668 4E800421 		bctrl
 2592              		.loc 4 255 0
 2593 066c 807E0154 		lwz 3,340(30)
 2594 0670 38800021 		li 4,33
 2595 0674 38A00032 		li 5,50
 2596 0678 81230000 		lwz 9,0(3)
 2597 067c 38C00000 		li 6,0
 2598 0680 80090088 		lwz 0,136(9)
 2599 0684 7C0903A6 		mtctr 0
 2600 0688 4E800421 		bctrl
 2601              		.loc 4 256 0
 2602 068c 807E015C 		lwz 3,348(30)
 2603 0690 38800080 		li 4,128
 2604 0694 38A0FFCE 		li 5,-50
 2605 0698 81230000 		lwz 9,0(3)
 2606 069c 38C00000 		li 6,0
 2607 06a0 80090088 		lwz 0,136(9)
 2608 06a4 7C0903A6 		mtctr 0
 2609 06a8 4E800421 		bctrl
 2610              		.loc 4 257 0
 2611 06ac 807E0160 		lwz 3,352(30)
 2612 06b0 38800080 		li 4,128
 2613 06b4 38A0FFCE 		li 5,-50
 2614 06b8 81230000 		lwz 9,0(3)
 2615 06bc 38C00000 		li 6,0
 2616 06c0 80090088 		lwz 0,136(9)
 2617 06c4 7C0903A6 		mtctr 0
 2618 06c8 4E800421 		bctrl
 2619              		.loc 4 258 0
 2620 06cc 807E0158 		lwz 3,344(30)
 2621 06d0 38800022 		li 4,34
 2622 06d4 38A00032 		li 5,50
 2623 06d8 81230000 		lwz 9,0(3)
 2624 06dc 38C00000 		li 6,0
 2625 06e0 80090088 		lwz 0,136(9)
 2626 06e4 7C0903A6 		mtctr 0
 2627 06e8 4E800421 		bctrl
 2628              		.loc 4 259 0
 2629 06ec 807E0110 		lwz 3,272(30)
 2630 06f0 38800022 		li 4,34
 2631 06f4 38A00032 		li 5,50
 2632 06f8 81230000 		lwz 9,0(3)
 2633 06fc 38C00000 		li 6,0
 2634 0700 80090088 		lwz 0,136(9)
 2635 0704 7C0903A6 		mtctr 0
 2636 0708 4E800421 		bctrl
 2637              	.LVL187:
 2638              	.LBB2292:
 2639              		.loc 4 262 0
 2640 070c 807E016C 		lwz 3,364(30)
 2641 0710 38800022 		li 4,34
 2642 0714 38A00032 		li 5,50
 2643 0718 81230000 		lwz 9,0(3)
 2644 071c 38C00000 		li 6,0
 2645 0720 80090088 		lwz 0,136(9)
 2646 0724 7C0903A6 		mtctr 0
 2647 0728 4E800421 		bctrl
 2648              	.LVL188:
 2649 072c 807E0170 		lwz 3,368(30)
 2650 0730 38800022 		li 4,34
 2651 0734 38A00032 		li 5,50
 2652 0738 81230000 		lwz 9,0(3)
 2653 073c 38C00000 		li 6,0
 2654 0740 80090088 		lwz 0,136(9)
 2655 0744 7C0903A6 		mtctr 0
 2656 0748 4E800421 		bctrl
 2657              	.LVL189:
 2658 074c 807E0174 		lwz 3,372(30)
 2659 0750 38800022 		li 4,34
 2660 0754 38A00032 		li 5,50
 2661 0758 81230000 		lwz 9,0(3)
 2662 075c 38C00000 		li 6,0
 2663 0760 80090088 		lwz 0,136(9)
 2664 0764 7C0903A6 		mtctr 0
 2665 0768 4E800421 		bctrl
 2666              	.LVL190:
 2667 076c 807E0178 		lwz 3,376(30)
 2668 0770 38800022 		li 4,34
 2669 0774 38A00032 		li 5,50
 2670 0778 81230000 		lwz 9,0(3)
 2671 077c 38C00000 		li 6,0
 2672 0780 80090088 		lwz 0,136(9)
 2673 0784 7C0903A6 		mtctr 0
 2674 0788 4E800421 		bctrl
 2675              	.LVL191:
 2676 078c 48000018 		b .L146
 2677              	.L147:
 2678              	.LBE2292:
 2679              		.loc 4 264 0
 2680 0790 813F0000 		lwz 9,0(31)
 2681 0794 7FE3FB78 		mr 3,31
 2682 0798 800900D8 		lwz 0,216(9)
 2683 079c 7C0903A6 		mtctr 0
 2684 07a0 4E800421 		bctrl
 2685              	.L146:
 2686              		.loc 4 264 0 is_stmt 0 discriminator 1
 2687 07a4 807E015C 		lwz 3,348(30)
 2688 07a8 81230000 		lwz 9,0(3)
 2689 07ac 8009009C 		lwz 0,156(9)
 2690 07b0 7C0903A6 		mtctr 0
 2691 07b4 4E800421 		bctrl
 2692 07b8 2F830000 		cmpwi 7,3,0
 2693 07bc 419E002C 		beq- 7,.L151
 2694              	.LBB2293:
 2695              	.LBB2294:
 2696              		.file 5 "d:/Projects/SaveGameManager/savegame-manager-gx/trunk/source/Prompts/../Controls/Applicat
 2697              		.loc 5 27 0 is_stmt 1
 2698 07c0 3FA00000 		lis 29,_ZN11Application8instanceE@ha
 2699 07c4 83FD0000 		lwz 31,_ZN11Application8instanceE@l(29)
 2700 07c8 2F9F0000 		cmpwi 7,31,0
 2701 07cc 409EFFC4 		bne+ 7,.L147
 2702 07d0 38600278 		li 3,632
 2703 07d4 48000001 		bl _Znwj
 2704              	.LEHE0:
 2705 07d8 7C7F1B78 		mr 31,3
 2706              	.LEHB1:
 2707 07dc 48000001 		bl _ZN11ApplicationC1Ev
 2708              	.LEHE1:
 2709 07e0 93FD0000 		stw 31,_ZN11Application8instanceE@l(29)
 2710 07e4 4BFFFFAC 		b .L147
 2711              	.L151:
 2712              	.LBE2294:
 2713              	.LBE2293:
 2714              		.loc 4 266 0
 2715 07e8 7FC3F378 		mr 3,30
 2716 07ec 38800000 		li 4,0
 2717              	.LEHB2:
 2718 07f0 48000001 		bl _ZN8GuiFrame13DimBackgroundEb
 2719              		.loc 4 267 0
 2720 07f4 813E0000 		lwz 9,0(30)
 2721 07f8 7FC3F378 		mr 3,30
 2722 07fc 800900C8 		lwz 0,200(9)
 2723 0800 7C0903A6 		mtctr 0
 2724 0804 4E800421 		bctrl
 2725              	.LBE2297:
 2726              		.loc 4 268 0
 2727 0808 8001001C 		lwz 0,28(1)
 2728 080c 83A1000C 		lwz 29,12(1)
 2729 0810 7C0803A6 		mtlr 0
 2730 0814 83C10010 		lwz 30,16(1)
 2731              	.LVL192:
 2732 0818 83E10014 		lwz 31,20(1)
 2733 081c 38210018 		addi 1,1,24
 2734              		.cfi_remember_state
 2735              	.LCFI54:
 2736              		.cfi_def_cfa_offset 0
 2737              		.cfi_restore 31
 2738              		.cfi_restore 30
 2739              		.cfi_restore 29
 2740 0820 4E800020 		blr
 2741              	.LVL193:
 2742              	.L150:
 2743              	.LCFI55:
 2744              		.cfi_restore_state
 2745 0824 7C7E1B78 		mr 30,3
 2746              	.LVL194:
 2747              	.LBB2298:
 2748              	.LBB2296:
 2749              	.LBB2295:
 2750              		.loc 5 27 0
 2751 0828 7FE3FB78 		mr 3,31
 2752 082c 48000001 		bl _ZdlPv
 2753 0830 7FC3F378 		mr 3,30
 2754 0834 48000001 		bl _Unwind_Resume
 2755              	.LEHE2:
 2756              	.LBE2295:
 2757              	.LBE2296:
 2758              	.LBE2298:
 2759              		.cfi_endproc
 2760              	.LFE1620:
 2761              		.globl __gxx_personality_v0
 2762              		.section	.gcc_except_table,"a",@progbits
 2763              	.LLSDA1620:
 2764 0000 FF       		.byte	0xff
 2765 0001 FF       		.byte	0xff
 2766 0002 01       		.byte	0x1
 2767 0003 10       		.uleb128 .LLSDACSE1620-.LLSDACSB1620
 2768              	.LLSDACSB1620:
 2769 0004 20       		.uleb128 .LEHB0-.LFB1620
 2770 0005 9803     		.uleb128 .LEHE0-.LEHB0
 2771 0007 00       		.uleb128 0
 2772 0008 00       		.uleb128 0
 2773 0009 BC03     		.uleb128 .LEHB1-.LFB1620
 2774 000b 04       		.uleb128 .LEHE1-.LEHB1
 2775 000c 8404     		.uleb128 .L150-.LFB1620
 2776 000e 00       		.uleb128 0
 2777 000f D003     		.uleb128 .LEHB2-.LFB1620
 2778 0011 48       		.uleb128 .LEHE2-.LEHB2
 2779 0012 00       		.uleb128 0
 2780 0013 00       		.uleb128 0
 2781              	.LLSDACSE1620:
 2782              		.section	".text"
 2783              		.size	_ZN8HomeMenu4quitEv, .-_ZN8HomeMenu4quitEv
 2784              		.align 2
 2785              		.globl _ZN8HomeMenu10IsAnimatedEv
 2786              		.type	_ZN8HomeMenu10IsAnimatedEv, @function
 2787              	_ZN8HomeMenu10IsAnimatedEv:
 2788              	.LFB1621:
 2789              		.loc 4 271 0
 2790              		.cfi_startproc
 2791              	.LVL195:
 2792 0838 7C0802A6 		mflr 0
 2793 083c 9421FFF0 		stwu 1,-16(1)
 2794              	.LCFI56:
 2795              		.cfi_def_cfa_offset 16
 2796              		.cfi_register 65, 0
 2797 0840 93C10008 		stw 30,8(1)
 2798              		.loc 4 277 0
 2799 0844 3BC00001 		li 30,1
 2800              		.cfi_offset 30, -8
 2801              		.loc 4 271 0
 2802 0848 90010014 		stw 0,20(1)
 2803 084c 93E1000C 		stw 31,12(1)
 2804              		.loc 4 271 0
 2805 0850 7C7F1B78 		mr 31,3
 2806              		.cfi_offset 31, -4
 2807              		.cfi_offset 65, 4
 2808              	.LVL196:
 2809              	.LBB2299:
 2810              	.LBB2300:
 2811              		.loc 2 278 0
 2812 0854 81230000 		lwz 9,0(3)
 2813 0858 80090098 		lwz 0,152(9)
 2814 085c 7C0903A6 		mtctr 0
 2815 0860 4E800421 		bctrl
 2816              	.LVL197:
 2817              	.LBE2300:
 2818              	.LBE2299:
 2819              		.loc 4 277 0
 2820 0864 2F830000 		cmpwi 7,3,0
 2821 0868 409D0020 		ble- 7,.L159
 2822              	.L153:
 2823              		.loc 4 278 0 discriminator 8
 2824 086c 80010014 		lwz 0,20(1)
 2825 0870 7FC3F378 		mr 3,30
 2826 0874 83E1000C 		lwz 31,12(1)
 2827              	.LVL198:
 2828 0878 7C0803A6 		mtlr 0
 2829 087c 83C10008 		lwz 30,8(1)
 2830 0880 38210010 		addi 1,1,16
 2831              		.cfi_remember_state
 2832              	.LCFI57:
 2833              		.cfi_def_cfa_offset 0
 2834              		.cfi_restore 31
 2835              		.cfi_restore 30
 2836 0884 4E800020 		blr
 2837              	.LVL199:
 2838              	.L159:
 2839              	.LCFI58:
 2840              		.cfi_restore_state
 2841              		.loc 4 273 0 discriminator 2
 2842 0888 807F0150 		lwz 3,336(31)
 2843 088c 81230000 		lwz 9,0(3)
 2844 0890 8009009C 		lwz 0,156(9)
 2845 0894 7C0903A6 		mtctr 0
 2846 0898 4E800421 		bctrl
 2847              		.loc 4 277 0 discriminator 2
 2848 089c 2F830000 		cmpwi 7,3,0
 2849 08a0 409EFFCC 		bne+ 7,.L153
 2850              		.loc 4 274 0 discriminator 3
 2851 08a4 807F015C 		lwz 3,348(31)
 2852 08a8 81230000 		lwz 9,0(3)
 2853 08ac 8009009C 		lwz 0,156(9)
 2854 08b0 7C0903A6 		mtctr 0
 2855 08b4 4E800421 		bctrl
 2856              		.loc 4 277 0 discriminator 3
 2857 08b8 2F830000 		cmpwi 7,3,0
 2858 08bc 409EFFB0 		bne+ 7,.L153
 2859              		.loc 4 275 0 discriminator 4
 2860 08c0 807F0110 		lwz 3,272(31)
 2861 08c4 81230000 		lwz 9,0(3)
 2862 08c8 8009009C 		lwz 0,156(9)
 2863 08cc 7C0903A6 		mtctr 0
 2864 08d0 4E800421 		bctrl
 2865              		.loc 4 277 0 discriminator 4
 2866 08d4 2F830000 		cmpwi 7,3,0
 2867 08d8 409EFF94 		bne+ 7,.L153
 2868              		.loc 4 276 0 discriminator 5
 2869 08dc 807F0114 		lwz 3,276(31)
 2870 08e0 81230000 		lwz 9,0(3)
 2871 08e4 8009009C 		lwz 0,156(9)
 2872 08e8 7C0903A6 		mtctr 0
 2873 08ec 4E800421 		bctrl
 2874              		.loc 4 277 0 discriminator 5
 2875 08f0 2F830000 		cmpwi 7,3,0
 2876 08f4 409EFF78 		bne+ 7,.L153
 2877              		.loc 4 277 0 is_stmt 0 discriminator 6
 2878 08f8 807F05D0 		lwz 3,1488(31)
 2879 08fc 48000001 		bl _ZN8GuiSound9IsPlayingEv
 2880 0900 7C7E1B78 		mr 30,3
 2881 0904 4BFFFF68 		b .L153
 2882              		.cfi_endproc
 2883              	.LFE1621:
 2884              		.size	_ZN8HomeMenu10IsAnimatedEv, .-_ZN8HomeMenu10IsAnimatedEv
 2885              		.align 2
 2886              		.globl _ZN8HomeMenu17SettingsBtnUpdateEv
 2887              		.type	_ZN8HomeMenu17SettingsBtnUpdateEv, @function
 2888              	_ZN8HomeMenu17SettingsBtnUpdateEv:
 2889              	.LFB1627:
 2890              		.loc 4 414 0 is_stmt 1
 2891              		.cfi_startproc
 2892              	.LVL200:
 2893 0908 7C0802A6 		mflr 0
 2894 090c 9421FFF0 		stwu 1,-16(1)
 2895              	.LCFI59:
 2896              		.cfi_def_cfa_offset 16
 2897              		.cfi_register 65, 0
 2898              		.loc 4 415 0
 2899 0910 3D200000 		lis 9,Settings+100@ha
 2900              		.loc 4 414 0
 2901 0914 93E1000C 		stw 31,12(1)
 2902 0918 7C7F1B78 		mr 31,3
 2903              		.cfi_offset 31, -4
 2904 091c 90010014 		stw 0,20(1)
 2905              		.loc 4 415 0
 2906 0920 A8090064 		lha 0,Settings+100@l(9)
 2907              		.cfi_offset 65, 4
 2908 0924 2F800001 		cmpwi 7,0,1
 2909 0928 419E0090 		beq- 7,.L164
 2910              		.loc 4 426 0
 2911 092c 80830118 		lwz 4,280(3)
 2912 0930 80630164 		lwz 3,356(3)
 2913              	.LVL201:
 2914 0934 48000001 		bl _ZN9GuiButton8SetImageEP8GuiImage
 2915              		.loc 4 427 0
 2916 0938 807F0164 		lwz 3,356(31)
 2917 093c 81230000 		lwz 9,0(3)
 2918 0940 80090090 		lwz 0,144(9)
 2919 0944 7C0903A6 		mtctr 0
 2920 0948 4E800421 		bctrl
 2921              		.loc 4 428 0
 2922 094c 807F0164 		lwz 3,356(31)
 2923 0950 38A0FFFF 		li 5,-1
 2924 0954 38800000 		li 4,0
 2925 0958 81230000 		lwz 9,0(3)
 2926 095c 80090050 		lwz 0,80(9)
 2927 0960 7C0903A6 		mtctr 0
 2928 0964 4E800421 		bctrl
 2929              		.loc 4 429 0
 2930 0968 809F011C 		lwz 4,284(31)
 2931 096c 807F0168 		lwz 3,360(31)
 2932 0970 48000001 		bl _ZN9GuiButton8SetImageEP8GuiImage
 2933              		.loc 4 430 0
 2934 0974 807F0168 		lwz 3,360(31)
 2935 0978 81230000 		lwz 9,0(3)
 2936 097c 80090094 		lwz 0,148(9)
 2937 0980 7C0903A6 		mtctr 0
 2938 0984 4E800421 		bctrl
 2939              		.loc 4 431 0
 2940 0988 807F0168 		lwz 3,360(31)
 2941 098c 38800004 		li 4,4
 2942 0990 38A0FFFF 		li 5,-1
 2943 0994 81230000 		lwz 9,0(3)
 2944 0998 80090050 		lwz 0,80(9)
 2945 099c 7C0903A6 		mtctr 0
 2946 09a0 4E800421 		bctrl
 2947              		.loc 4 433 0
 2948 09a4 80010014 		lwz 0,20(1)
 2949 09a8 83E1000C 		lwz 31,12(1)
 2950              	.LVL202:
 2951 09ac 7C0803A6 		mtlr 0
 2952 09b0 38210010 		addi 1,1,16
 2953              		.cfi_remember_state
 2954              	.LCFI60:
 2955              		.cfi_def_cfa_offset 0
 2956              		.cfi_restore 31
 2957 09b4 4E800020 		blr
 2958              	.LVL203:
 2959              	.L164:
 2960              	.LCFI61:
 2961              		.cfi_restore_state
 2962              		.loc 4 417 0
 2963 09b8 8083011C 		lwz 4,284(3)
 2964 09bc 80630164 		lwz 3,356(3)
 2965              	.LVL204:
 2966 09c0 48000001 		bl _ZN9GuiButton8SetImageEP8GuiImage
 2967              		.loc 4 418 0
 2968 09c4 807F0164 		lwz 3,356(31)
 2969 09c8 81230000 		lwz 9,0(3)
 2970 09cc 80090094 		lwz 0,148(9)
 2971 09d0 7C0903A6 		mtctr 0
 2972 09d4 4E800421 		bctrl
 2973              		.loc 4 419 0
 2974 09d8 807F0164 		lwz 3,356(31)
 2975 09dc 38A0FFFF 		li 5,-1
 2976 09e0 38800004 		li 4,4
 2977 09e4 81230000 		lwz 9,0(3)
 2978 09e8 80090050 		lwz 0,80(9)
 2979 09ec 7C0903A6 		mtctr 0
 2980 09f0 4E800421 		bctrl
 2981              		.loc 4 420 0
 2982 09f4 809F0118 		lwz 4,280(31)
 2983 09f8 807F0168 		lwz 3,360(31)
 2984 09fc 48000001 		bl _ZN9GuiButton8SetImageEP8GuiImage
 2985              		.loc 4 421 0
 2986 0a00 807F0168 		lwz 3,360(31)
 2987 0a04 81230000 		lwz 9,0(3)
 2988 0a08 80090090 		lwz 0,144(9)
 2989 0a0c 7C0903A6 		mtctr 0
 2990 0a10 4E800421 		bctrl
 2991              		.loc 4 422 0
 2992 0a14 807F0168 		lwz 3,360(31)
 2993 0a18 38800000 		li 4,0
 2994              		.loc 4 431 0
 2995 0a1c 38A0FFFF 		li 5,-1
 2996 0a20 81230000 		lwz 9,0(3)
 2997 0a24 80090050 		lwz 0,80(9)
 2998 0a28 7C0903A6 		mtctr 0
 2999 0a2c 4E800421 		bctrl
 3000              		.loc 4 433 0
 3001 0a30 80010014 		lwz 0,20(1)
 3002 0a34 83E1000C 		lwz 31,12(1)
 3003              	.LVL205:
 3004 0a38 7C0803A6 		mtlr 0
 3005 0a3c 38210010 		addi 1,1,16
 3006              		.cfi_restore 31
 3007              	.LCFI62:
 3008              		.cfi_def_cfa_offset 0
 3009 0a40 4E800020 		blr
 3010              		.cfi_endproc
 3011              	.LFE1627:
 3012              		.size	_ZN8HomeMenu17SettingsBtnUpdateEv, .-_ZN8HomeMenu17SettingsBtnUpdateEv
 3013              		.align 2
 3014              		.globl _ZN8HomeMenu12SettingsAnimEb
 3015              		.type	_ZN8HomeMenu12SettingsAnimEb, @function
 3016              	_ZN8HomeMenu12SettingsAnimEb:
 3017              	.LFB1626:
 3018              		.loc 4 383 0
 3019              		.cfi_startproc
 3020              		.cfi_personality 0,__gxx_personality_v0
 3021              		.cfi_lsda 0,.LLSDA1626
 3022              	.LVL206:
 3023              		.loc 4 384 0
 3024 0a44 2F840000 		cmpwi 7,4,0
 3025              		.loc 4 383 0
 3026 0a48 7C0802A6 		mflr 0
 3027 0a4c 9421FFE8 		stwu 1,-24(1)
 3028              	.LCFI63:
 3029              		.cfi_def_cfa_offset 24
 3030              		.cfi_register 65, 0
 3031 0a50 93E10014 		stw 31,20(1)
 3032 0a54 7C7F1B78 		mr 31,3
 3033              		.cfi_offset 31, -4
 3034 0a58 9001001C 		stw 0,28(1)
 3035 0a5c 93810008 		stw 28,8(1)
 3036 0a60 93A1000C 		stw 29,12(1)
 3037 0a64 93C10010 		stw 30,16(1)
 3038              		.loc 4 384 0
 3039 0a68 419E01B0 		beq- 7,.L166
 3040              		.cfi_offset 30, -8
 3041              		.cfi_offset 29, -12
 3042              		.cfi_offset 28, -16
 3043              		.cfi_offset 65, 4
 3044              		.loc 4 386 0
 3045 0a6c 83A30114 		lwz 29,276(3)
 3046 0a70 3D600000 		lis 11,screenwidth@ha
 3047 0a74 838B0000 		lwz 28,screenwidth@l(11)
 3048 0a78 813D0000 		lwz 9,0(29)
 3049 0a7c 7FA3EB78 		mr 3,29
 3050              	.LVL207:
 3051 0a80 239C0085 		subfic 28,28,133
 3052 0a84 80090024 		lwz 0,36(9)
 3053 0a88 83C90088 		lwz 30,136(9)
 3054 0a8c 7C0903A6 		mtctr 0
 3055              	.LEHB3:
 3056 0a90 4E800421 		bctrl
 3057              	.LVL208:
 3058 0a94 38801400 		li 4,5120
 3059 0a98 7CDC1A14 		add 6,28,3
 3060 0a9c 38A00032 		li 5,50
 3061 0aa0 7FA3EB78 		mr 3,29
 3062 0aa4 7FC903A6 		mtctr 30
 3063 0aa8 4E800421 		bctrl
 3064              		.loc 4 387 0
 3065 0aac 48000018 		b .L167
 3066              	.L168:
 3067 0ab0 813D0000 		lwz 9,0(29)
 3068 0ab4 7FA3EB78 		mr 3,29
 3069 0ab8 800900D8 		lwz 0,216(9)
 3070 0abc 7C0903A6 		mtctr 0
 3071 0ac0 4E800421 		bctrl
 3072              	.L167:
 3073              		.loc 4 387 0 is_stmt 0 discriminator 1
 3074 0ac4 807F0114 		lwz 3,276(31)
 3075 0ac8 81230000 		lwz 9,0(3)
 3076 0acc 8009009C 		lwz 0,156(9)
 3077 0ad0 7C0903A6 		mtctr 0
 3078 0ad4 4E800421 		bctrl
 3079 0ad8 2F830000 		cmpwi 7,3,0
 3080 0adc 419E0030 		beq- 7,.L189
 3081              	.LBB2309:
 3082              	.LBB2310:
 3083              		.loc 5 27 0 is_stmt 1
 3084 0ae0 3FC00000 		lis 30,_ZN11Application8instanceE@ha
 3085 0ae4 83BE0000 		lwz 29,_ZN11Application8instanceE@l(30)
 3086 0ae8 3BDE0000 		la 30,_ZN11Application8instanceE@l(30)
 3087 0aec 2F9D0000 		cmpwi 7,29,0
 3088 0af0 409EFFC0 		bne+ 7,.L168
 3089 0af4 38600278 		li 3,632
 3090 0af8 48000001 		bl _Znwj
 3091              	.LEHE3:
 3092 0afc 7C7D1B78 		mr 29,3
 3093              	.LEHB4:
 3094 0b00 48000001 		bl _ZN11ApplicationC1Ev
 3095              	.LEHE4:
 3096 0b04 93BE0000 		stw 29,0(30)
 3097 0b08 4BFFFFA8 		b .L168
 3098              	.L189:
 3099              	.LBE2310:
 3100              	.LBE2309:
 3101              		.loc 4 389 0
 3102 0b0c 7FE3FB78 		mr 3,31
 3103              	.LEHB5:
 3104 0b10 48000001 		bl _ZN8HomeMenu17SettingsBtnUpdateEv
 3105              		.loc 4 390 0
 3106 0b14 807F0144 		lwz 3,324(31)
 3107 0b18 38800080 		li 4,128
 3108 0b1c 38A00032 		li 5,50
 3109 0b20 81230000 		lwz 9,0(3)
 3110 0b24 38C00000 		li 6,0
 3111 0b28 80090088 		lwz 0,136(9)
 3112 0b2c 7C0903A6 		mtctr 0
 3113 0b30 4E800421 		bctrl
 3114              		.loc 4 391 0
 3115 0b34 807F0168 		lwz 3,360(31)
 3116 0b38 38800080 		li 4,128
 3117 0b3c 38A00032 		li 5,50
 3118 0b40 81230000 		lwz 9,0(3)
 3119 0b44 38C00000 		li 6,0
 3120 0b48 80090088 		lwz 0,136(9)
 3121 0b4c 7C0903A6 		mtctr 0
 3122 0b50 4E800421 		bctrl
 3123              		.loc 4 392 0
 3124 0b54 807F0164 		lwz 3,356(31)
 3125 0b58 38A00032 		li 5,50
 3126 0b5c 38C00000 		li 6,0
 3127 0b60 81230000 		lwz 9,0(3)
 3128 0b64 38800080 		li 4,128
 3129 0b68 80090088 		lwz 0,136(9)
 3130 0b6c 7C0903A6 		mtctr 0
 3131 0b70 4E800421 		bctrl
 3132              		.loc 4 393 0
 3133 0b74 809F0144 		lwz 4,324(31)
 3134 0b78 7FE3FB78 		mr 3,31
 3135 0b7c 48000001 		bl _ZN8GuiFrame6AppendEP10GuiElement
 3136              		.loc 4 394 0
 3137 0b80 809F0168 		lwz 4,360(31)
 3138 0b84 7FE3FB78 		mr 3,31
 3139 0b88 48000001 		bl _ZN8GuiFrame6AppendEP10GuiElement
 3140              		.loc 4 395 0
 3141 0b8c 809F0164 		lwz 4,356(31)
 3142 0b90 7FE3FB78 		mr 3,31
 3143 0b94 48000001 		bl _ZN8GuiFrame6AppendEP10GuiElement
 3144              		.loc 4 396 0
 3145 0b98 48000018 		b .L171
 3146              	.L172:
 3147 0b9c 813D0000 		lwz 9,0(29)
 3148 0ba0 7FA3EB78 		mr 3,29
 3149 0ba4 800900D8 		lwz 0,216(9)
 3150 0ba8 7C0903A6 		mtctr 0
 3151 0bac 4E800421 		bctrl
 3152              	.L171:
 3153              		.loc 4 396 0 is_stmt 0 discriminator 1
 3154 0bb0 807F0164 		lwz 3,356(31)
 3155 0bb4 81230000 		lwz 9,0(3)
 3156 0bb8 8009009C 		lwz 0,156(9)
 3157 0bbc 7C0903A6 		mtctr 0
 3158 0bc0 4E800421 		bctrl
 3159 0bc4 2F830000 		cmpwi 7,3,0
 3160 0bc8 419E0030 		beq- 7,.L165
 3161              	.LBB2311:
 3162              	.LBB2312:
 3163              		.loc 5 27 0 is_stmt 1
 3164 0bcc 3FC00000 		lis 30,_ZN11Application8instanceE@ha
 3165 0bd0 83BE0000 		lwz 29,_ZN11Application8instanceE@l(30)
 3166 0bd4 3BDE0000 		la 30,_ZN11Application8instanceE@l(30)
 3167 0bd8 2F9D0000 		cmpwi 7,29,0
 3168 0bdc 409EFFC0 		bne+ 7,.L172
 3169 0be0 38600278 		li 3,632
 3170 0be4 48000001 		bl _Znwj
 3171              	.LEHE5:
 3172 0be8 7C7D1B78 		mr 29,3
 3173              	.LEHB6:
 3174 0bec 48000001 		bl _ZN11ApplicationC1Ev
 3175              	.LEHE6:
 3176 0bf0 93BE0000 		stw 29,0(30)
 3177 0bf4 4BFFFFA8 		b .L172
 3178              	.L165:
 3179              	.LBE2312:
 3180              	.LBE2311:
 3181              		.loc 4 411 0
 3182 0bf8 8001001C 		lwz 0,28(1)
 3183 0bfc 83810008 		lwz 28,8(1)
 3184 0c00 7C0803A6 		mtlr 0
 3185 0c04 83A1000C 		lwz 29,12(1)
 3186 0c08 83C10010 		lwz 30,16(1)
 3187 0c0c 83E10014 		lwz 31,20(1)
 3188              	.LVL209:
 3189 0c10 38210018 		addi 1,1,24
 3190              		.cfi_remember_state
 3191              	.LCFI64:
 3192              		.cfi_def_cfa_offset 0
 3193              		.cfi_restore 31
 3194              		.cfi_restore 30
 3195              		.cfi_restore 29
 3196              		.cfi_restore 28
 3197 0c14 4E800020 		blr
 3198              	.LVL210:
 3199              	.L166:
 3200              	.LCFI65:
 3201              		.cfi_restore_state
 3202              		.loc 4 400 0
 3203 0c18 80630144 		lwz 3,324(3)
 3204              	.LVL211:
 3205 0c1c 38800080 		li 4,128
 3206              	.LVL212:
 3207 0c20 38A0FFCE 		li 5,-50
 3208 0c24 38C00000 		li 6,0
 3209 0c28 81230000 		lwz 9,0(3)
 3210 0c2c 80090088 		lwz 0,136(9)
 3211 0c30 7C0903A6 		mtctr 0
 3212              	.LEHB7:
 3213 0c34 4E800421 		bctrl
 3214              		.loc 4 401 0
 3215 0c38 807F0168 		lwz 3,360(31)
 3216 0c3c 38800080 		li 4,128
 3217 0c40 38A0FFCE 		li 5,-50
 3218 0c44 81230000 		lwz 9,0(3)
 3219 0c48 38C00000 		li 6,0
 3220 0c4c 80090088 		lwz 0,136(9)
 3221 0c50 7C0903A6 		mtctr 0
 3222 0c54 4E800421 		bctrl
 3223              		.loc 4 402 0
 3224 0c58 807F0164 		lwz 3,356(31)
 3225 0c5c 38800080 		li 4,128
 3226 0c60 38A0FFCE 		li 5,-50
 3227 0c64 81230000 		lwz 9,0(3)
 3228 0c68 38C00000 		li 6,0
 3229 0c6c 80090088 		lwz 0,136(9)
 3230 0c70 7C0903A6 		mtctr 0
 3231 0c74 4E800421 		bctrl
 3232              		.loc 4 403 0
 3233 0c78 48000018 		b .L176
 3234              	.L177:
 3235 0c7c 813D0000 		lwz 9,0(29)
 3236 0c80 7FA3EB78 		mr 3,29
 3237 0c84 800900D8 		lwz 0,216(9)
 3238 0c88 7C0903A6 		mtctr 0
 3239 0c8c 4E800421 		bctrl
 3240              	.L176:
 3241              		.loc 4 403 0 is_stmt 0 discriminator 1
 3242 0c90 807F0164 		lwz 3,356(31)
 3243 0c94 81230000 		lwz 9,0(3)
 3244 0c98 8009009C 		lwz 0,156(9)
 3245 0c9c 7C0903A6 		mtctr 0
 3246 0ca0 4E800421 		bctrl
 3247 0ca4 2F830000 		cmpwi 7,3,0
 3248 0ca8 419E0030 		beq- 7,.L190
 3249              	.LBB2314:
 3250              	.LBB2315:
 3251              		.loc 5 27 0 is_stmt 1
 3252 0cac 3FC00000 		lis 30,_ZN11Application8instanceE@ha
 3253 0cb0 83BE0000 		lwz 29,_ZN11Application8instanceE@l(30)
 3254 0cb4 3BDE0000 		la 30,_ZN11Application8instanceE@l(30)
 3255 0cb8 2F9D0000 		cmpwi 7,29,0
 3256 0cbc 409EFFC0 		bne+ 7,.L177
 3257 0cc0 38600278 		li 3,632
 3258 0cc4 48000001 		bl _Znwj
 3259              	.LEHE7:
 3260 0cc8 7C7D1B78 		mr 29,3
 3261              	.LEHB8:
 3262 0ccc 48000001 		bl _ZN11ApplicationC1Ev
 3263              	.LEHE8:
 3264 0cd0 93BE0000 		stw 29,0(30)
 3265 0cd4 4BFFFFA8 		b .L177
 3266              	.L190:
 3267              	.LBE2315:
 3268              	.LBE2314:
 3269              		.loc 4 404 0
 3270 0cd8 809F0144 		lwz 4,324(31)
 3271 0cdc 7FE3FB78 		mr 3,31
 3272              	.LEHB9:
 3273 0ce0 48000001 		bl _ZN8GuiFrame6RemoveEP10GuiElement
 3274              		.loc 4 405 0
 3275 0ce4 809F0168 		lwz 4,360(31)
 3276 0ce8 7FE3FB78 		mr 3,31
 3277 0cec 48000001 		bl _ZN8GuiFrame6RemoveEP10GuiElement
 3278              		.loc 4 406 0
 3279 0cf0 809F0164 		lwz 4,356(31)
 3280 0cf4 7FE3FB78 		mr 3,31
 3281 0cf8 48000001 		bl _ZN8GuiFrame6RemoveEP10GuiElement
 3282              		.loc 4 408 0
 3283 0cfc 807F0114 		lwz 3,276(31)
 3284 0d00 3D600000 		lis 11,screenwidth@ha
 3285 0d04 38801400 		li 4,5120
 3286 0d08 81230000 		lwz 9,0(3)
 3287 0d0c 38A00032 		li 5,50
 3288 0d10 80CB0000 		lwz 6,screenwidth@l(11)
 3289 0d14 80090088 		lwz 0,136(9)
 3290 0d18 20C60085 		subfic 6,6,133
 3291 0d1c 7C0903A6 		mtctr 0
 3292 0d20 4E800421 		bctrl
 3293              		.loc 4 409 0
 3294 0d24 48000018 		b .L180
 3295              	.L181:
 3296 0d28 813D0000 		lwz 9,0(29)
 3297 0d2c 7FA3EB78 		mr 3,29
 3298 0d30 800900D8 		lwz 0,216(9)
 3299 0d34 7C0903A6 		mtctr 0
 3300 0d38 4E800421 		bctrl
 3301              	.L180:
 3302              		.loc 4 409 0 is_stmt 0 discriminator 1
 3303 0d3c 807F0114 		lwz 3,276(31)
 3304 0d40 81230000 		lwz 9,0(3)
 3305 0d44 8009009C 		lwz 0,156(9)
 3306 0d48 7C0903A6 		mtctr 0
 3307 0d4c 4E800421 		bctrl
 3308 0d50 2F830000 		cmpwi 7,3,0
 3309 0d54 41BEFEA4 		beq- 7,.L165
 3310              	.LBB2316:
 3311              	.LBB2317:
 3312              		.loc 5 27 0 is_stmt 1
 3313 0d58 3FC00000 		lis 30,_ZN11Application8instanceE@ha
 3314 0d5c 83BE0000 		lwz 29,_ZN11Application8instanceE@l(30)
 3315 0d60 3BDE0000 		la 30,_ZN11Application8instanceE@l(30)
 3316 0d64 2F9D0000 		cmpwi 7,29,0
 3317 0d68 409EFFC0 		bne+ 7,.L181
 3318 0d6c 38600278 		li 3,632
 3319 0d70 48000001 		bl _Znwj
 3320              	.LEHE9:
 3321 0d74 7C7D1B78 		mr 29,3
 3322              	.LEHB10:
 3323 0d78 48000001 		bl _ZN11ApplicationC1Ev
 3324              	.LEHE10:
 3325 0d7c 93BE0000 		stw 29,0(30)
 3326 0d80 4BFFFFA8 		b .L181
 3327              	.L184:
 3328              	.L188:
 3329 0d84 7C7F1B78 		mr 31,3
 3330              	.LVL213:
 3331              	.LBE2317:
 3332              	.LBE2316:
 3333              	.LBB2318:
 3334              	.LBB2313:
 3335 0d88 7FA3EB78 		mr 3,29
 3336 0d8c 48000001 		bl _ZdlPv
 3337 0d90 7FE3FB78 		mr 3,31
 3338              	.LEHB11:
 3339 0d94 48000001 		bl _Unwind_Resume
 3340              	.LEHE11:
 3341              	.LVL214:
 3342              	.L187:
 3343 0d98 4BFFFFEC 		b .L188
 3344              	.L186:
 3345 0d9c 4BFFFFE8 		b .L188
 3346              	.L185:
 3347 0da0 4BFFFFE4 		b .L188
 3348              	.LBE2313:
 3349              	.LBE2318:
 3350              		.cfi_endproc
 3351              	.LFE1626:
 3352              		.section	.gcc_except_table
 3353              	.LLSDA1626:
 3354 0014 FF       		.byte	0xff
 3355 0015 FF       		.byte	0xff
 3356 0016 01       		.byte	0x1
 3357 0017 33       		.uleb128 .LLSDACSE1626-.LLSDACSB1626
 3358              	.LLSDACSB1626:
 3359 0018 4C       		.uleb128 .LEHB3-.LFB1626
 3360 0019 6C       		.uleb128 .LEHE3-.LEHB3
 3361 001a 00       		.uleb128 0
 3362 001b 00       		.uleb128 0
 3363 001c BC01     		.uleb128 .LEHB4-.LFB1626
 3364 001e 04       		.uleb128 .LEHE4-.LEHB4
 3365 001f C006     		.uleb128 .L184-.LFB1626
 3366 0021 00       		.uleb128 0
 3367 0022 CC01     		.uleb128 .LEHB5-.LFB1626
 3368 0024 D801     		.uleb128 .LEHE5-.LEHB5
 3369 0026 00       		.uleb128 0
 3370 0027 00       		.uleb128 0
 3371 0028 A803     		.uleb128 .LEHB6-.LFB1626
 3372 002a 04       		.uleb128 .LEHE6-.LEHB6
 3373 002b DC06     		.uleb128 .L185-.LFB1626
 3374 002d 00       		.uleb128 0
 3375 002e F003     		.uleb128 .LEHB7-.LFB1626
 3376 0030 9401     		.uleb128 .LEHE7-.LEHB7
 3377 0032 00       		.uleb128 0
 3378 0033 00       		.uleb128 0
 3379 0034 8805     		.uleb128 .LEHB8-.LFB1626
 3380 0036 04       		.uleb128 .LEHE8-.LEHB8
 3381 0037 D806     		.uleb128 .L186-.LFB1626
 3382 0039 00       		.uleb128 0
 3383 003a 9C05     		.uleb128 .LEHB9-.LFB1626
 3384 003c 9401     		.uleb128 .LEHE9-.LEHB9
 3385 003e 00       		.uleb128 0
 3386 003f 00       		.uleb128 0
 3387 0040 B406     		.uleb128 .LEHB10-.LFB1626
 3388 0042 04       		.uleb128 .LEHE10-.LEHB10
 3389 0043 D406     		.uleb128 .L187-.LFB1626
 3390 0045 00       		.uleb128 0
 3391 0046 D006     		.uleb128 .LEHB11-.LFB1626
 3392 0048 04       		.uleb128 .LEHE11-.LEHB11
 3393 0049 00       		.uleb128 0
 3394 004a 00       		.uleb128 0
 3395              	.LLSDACSE1626:
 3396              		.section	".text"
 3397              		.size	_ZN8HomeMenu12SettingsAnimEb, .-_ZN8HomeMenu12SettingsAnimEb
 3398              		.align 2
 3399              		.globl _ZN8HomeMenu12SettingsHideEv
 3400              		.type	_ZN8HomeMenu12SettingsHideEv, @function
 3401              	_ZN8HomeMenu12SettingsHideEv:
 3402              	.LFB1625:
 3403              		.loc 4 366 0
 3404              		.cfi_startproc
 3405              		.cfi_personality 0,__gxx_personality_v0
 3406              		.cfi_lsda 0,.LLSDA1625
 3407              	.LVL215:
 3408 0da4 9421FFE8 		stwu 1,-24(1)
 3409              	.LCFI66:
 3410              		.cfi_def_cfa_offset 24
 3411 0da8 7C0802A6 		mflr 0
 3412              		.loc 4 367 0
 3413 0dac 38800000 		li 4,0
 3414              		.loc 4 366 0
 3415 0db0 93A1000C 		stw 29,12(1)
 3416 0db4 7C7D1B78 		mr 29,3
 3417              		.cfi_offset 29, -12
 3418              		.cfi_register 65, 0
 3419 0db8 9001001C 		stw 0,28(1)
 3420 0dbc 93C10010 		stw 30,16(1)
 3421 0dc0 93E10014 		stw 31,20(1)
 3422              	.LEHB12:
 3423              		.loc 4 367 0
 3424              		.cfi_offset 31, -4
 3425              		.cfi_offset 30, -8
 3426              		.cfi_offset 65, 4
 3427 0dc4 48000001 		bl _ZN8HomeMenu12SettingsAnimEb
 3428              	.LVL216:
 3429              		.loc 4 369 0
 3430 0dc8 807D0110 		lwz 3,272(29)
 3431 0dcc 38800C00 		li 4,3072
 3432 0dd0 38A00032 		li 5,50
 3433 0dd4 38C000D2 		li 6,210
 3434 0dd8 81230000 		lwz 9,0(3)
 3435 0ddc 80090088 		lwz 0,136(9)
 3436 0de0 7C0903A6 		mtctr 0
 3437 0de4 4E800421 		bctrl
 3438              		.loc 4 370 0
 3439 0de8 807D015C 		lwz 3,348(29)
 3440 0dec 38800014 		li 4,20
 3441 0df0 38A00032 		li 5,50
 3442 0df4 81230000 		lwz 9,0(3)
 3443 0df8 38C00000 		li 6,0
 3444 0dfc 80090088 		lwz 0,136(9)
 3445 0e00 7C0903A6 		mtctr 0
 3446 0e04 4E800421 		bctrl
 3447              		.loc 4 371 0
 3448 0e08 807D0160 		lwz 3,352(29)
 3449 0e0c 38800014 		li 4,20
 3450 0e10 38A00032 		li 5,50
 3451 0e14 81230000 		lwz 9,0(3)
 3452 0e18 38C00000 		li 6,0
 3453 0e1c 80090088 		lwz 0,136(9)
 3454 0e20 7C0903A6 		mtctr 0
 3455 0e24 4E800421 		bctrl
 3456              		.loc 4 372 0
 3457 0e28 807D0150 		lwz 3,336(29)
 3458 0e2c 38800011 		li 4,17
 3459 0e30 38A00032 		li 5,50
 3460 0e34 81230000 		lwz 9,0(3)
 3461 0e38 38C00000 		li 6,0
 3462 0e3c 80090088 		lwz 0,136(9)
 3463 0e40 7C0903A6 		mtctr 0
 3464 0e44 4E800421 		bctrl
 3465              		.loc 4 373 0
 3466 0e48 807D0154 		lwz 3,340(29)
 3467 0e4c 38A00032 		li 5,50
 3468 0e50 38C00000 		li 6,0
 3469 0e54 81230000 		lwz 9,0(3)
 3470 0e58 38800011 		li 4,17
 3471 0e5c 80090088 		lwz 0,136(9)
 3472 0e60 7C0903A6 		mtctr 0
 3473 0e64 4E800421 		bctrl
 3474              		.loc 4 374 0
 3475 0e68 83DD0124 		lwz 30,292(29)
 3476 0e6c 3C600000 		lis 3,.LC8@ha
 3477 0e70 813E0000 		lwz 9,0(30)
 3478 0e74 38630000 		la 3,.LC8@l(3)
 3479 0e78 83E900C8 		lwz 31,200(9)
 3480 0e7c 48000001 		bl gettext
 3481 0e80 7C641B78 		mr 4,3
 3482 0e84 7FC3F378 		mr 3,30
 3483 0e88 7FE903A6 		mtctr 31
 3484 0e8c 4E800421 		bctrl
 3485              		.loc 4 376 0
 3486 0e90 48000018 		b .L192
 3487              	.L193:
 3488 0e94 813F0000 		lwz 9,0(31)
 3489 0e98 7FE3FB78 		mr 3,31
 3490 0e9c 800900D8 		lwz 0,216(9)
 3491 0ea0 7C0903A6 		mtctr 0
 3492 0ea4 4E800421 		bctrl
 3493              	.L192:
 3494              		.loc 4 376 0 is_stmt 0 discriminator 1
 3495 0ea8 807D0154 		lwz 3,340(29)
 3496 0eac 81230000 		lwz 9,0(3)
 3497 0eb0 8009009C 		lwz 0,156(9)
 3498 0eb4 7C0903A6 		mtctr 0
 3499 0eb8 4E800421 		bctrl
 3500 0ebc 2C030000 		cmpwi 0,3,0
 3501 0ec0 4182002C 		beq- 0,.L197
 3502              	.LBB2321:
 3503              	.LBB2322:
 3504              		.loc 5 27 0 is_stmt 1
 3505 0ec4 3FC00000 		lis 30,_ZN11Application8instanceE@ha
 3506 0ec8 83FE0000 		lwz 31,_ZN11Application8instanceE@l(30)
 3507 0ecc 2F9F0000 		cmpwi 7,31,0
 3508 0ed0 409EFFC4 		bne+ 7,.L193
 3509 0ed4 38600278 		li 3,632
 3510 0ed8 48000001 		bl _Znwj
 3511              	.LEHE12:
 3512 0edc 7C7F1B78 		mr 31,3
 3513              	.LEHB13:
 3514 0ee0 48000001 		bl _ZN11ApplicationC1Ev
 3515              	.LEHE13:
 3516 0ee4 93FE0000 		stw 31,_ZN11Application8instanceE@l(30)
 3517 0ee8 4BFFFFAC 		b .L193
 3518              	.L197:
 3519              	.LBE2322:
 3520              	.LBE2321:
 3521              		.loc 4 380 0
 3522 0eec 8001001C 		lwz 0,28(1)
 3523              		.loc 4 379 0
 3524 0ef0 987D00CC 		stb 3,204(29)
 3525              		.loc 4 380 0
 3526 0ef4 7C0803A6 		mtlr 0
 3527 0ef8 83A1000C 		lwz 29,12(1)
 3528              	.LVL217:
 3529 0efc 83C10010 		lwz 30,16(1)
 3530 0f00 83E10014 		lwz 31,20(1)
 3531 0f04 38210018 		addi 1,1,24
 3532              		.cfi_remember_state
 3533              	.LCFI67:
 3534              		.cfi_def_cfa_offset 0
 3535              		.cfi_restore 31
 3536              		.cfi_restore 30
 3537              		.cfi_restore 29
 3538 0f08 4E800020 		blr
 3539              	.LVL218:
 3540              	.L196:
 3541              	.LCFI68:
 3542              		.cfi_restore_state
 3543 0f0c 7C7E1B78 		mr 30,3
 3544              	.LBB2324:
 3545              	.LBB2323:
 3546              		.loc 5 27 0
 3547 0f10 7FE3FB78 		mr 3,31
 3548 0f14 48000001 		bl _ZdlPv
 3549 0f18 7FC3F378 		mr 3,30
 3550              	.LEHB14:
 3551 0f1c 48000001 		bl _Unwind_Resume
 3552              	.LEHE14:
 3553              	.LBE2323:
 3554              	.LBE2324:
 3555              		.cfi_endproc
 3556              	.LFE1625:
 3557              		.section	.gcc_except_table
 3558              	.LLSDA1625:
 3559 004b FF       		.byte	0xff
 3560 004c FF       		.byte	0xff
 3561 004d 01       		.byte	0x1
 3562 004e 10       		.uleb128 .LLSDACSE1625-.LLSDACSB1625
 3563              	.LLSDACSB1625:
 3564 004f 20       		.uleb128 .LEHB12-.LFB1625
 3565 0050 9802     		.uleb128 .LEHE12-.LEHB12
 3566 0052 00       		.uleb128 0
 3567 0053 00       		.uleb128 0
 3568 0054 BC02     		.uleb128 .LEHB13-.LFB1625
 3569 0056 04       		.uleb128 .LEHE13-.LEHB13
 3570 0057 E802     		.uleb128 .L196-.LFB1625
 3571 0059 00       		.uleb128 0
 3572 005a F802     		.uleb128 .LEHB14-.LFB1625
 3573 005c 04       		.uleb128 .LEHE14-.LEHB14
 3574 005d 00       		.uleb128 0
 3575 005e 00       		.uleb128 0
 3576              	.LLSDACSE1625:
 3577              		.section	".text"
 3578              		.size	_ZN8HomeMenu12SettingsHideEv, .-_ZN8HomeMenu12SettingsHideEv
 3579              		.align 2
 3580              		.globl _ZN8HomeMenu12SettingsShowEv
 3581              		.type	_ZN8HomeMenu12SettingsShowEv, @function
 3582              	_ZN8HomeMenu12SettingsShowEv:
 3583              	.LFB1624:
 3584              		.loc 4 350 0
 3585              		.cfi_startproc
 3586              		.cfi_personality 0,__gxx_personality_v0
 3587              		.cfi_lsda 0,.LLSDA1624
 3588              	.LVL219:
 3589 0f20 7C0802A6 		mflr 0
 3590 0f24 9421FFE8 		stwu 1,-24(1)
 3591              	.LCFI69:
 3592              		.cfi_def_cfa_offset 24
 3593              		.cfi_register 65, 0
 3594              		.loc 4 353 0
 3595 0f28 38800024 		li 4,36
 3596 0f2c 38A00032 		li 5,50
 3597              		.loc 4 350 0
 3598 0f30 93A1000C 		stw 29,12(1)
 3599 0f34 7C7D1B78 		mr 29,3
 3600              		.cfi_offset 29, -12
 3601 0f38 9001001C 		stw 0,28(1)
 3602              		.loc 4 353 0
 3603 0f3c 38C00000 		li 6,0
 3604              		.loc 4 350 0
 3605 0f40 93C10010 		stw 30,16(1)
 3606              		.loc 4 353 0
 3607 0f44 8063015C 		lwz 3,348(3)
 3608              	.LVL220:
 3609              		.loc 4 350 0
 3610 0f48 93E10014 		stw 31,20(1)
 3611              		.loc 4 353 0
 3612 0f4c 81230000 		lwz 9,0(3)
 3613 0f50 80090088 		lwz 0,136(9)
 3614              		.cfi_offset 31, -4
 3615              		.cfi_offset 30, -8
 3616              		.cfi_offset 65, 4
 3617              		.loc 4 351 0
 3618 0f54 39200001 		li 9,1
 3619 0f58 993D00CC 		stb 9,204(29)
 3620              		.loc 4 353 0
 3621 0f5c 7C0903A6 		mtctr 0
 3622              	.LEHB15:
 3623 0f60 4E800421 		bctrl
 3624              		.loc 4 354 0
 3625 0f64 807D0160 		lwz 3,352(29)
 3626 0f68 38800024 		li 4,36
 3627 0f6c 38A00032 		li 5,50
 3628 0f70 81230000 		lwz 9,0(3)
 3629 0f74 38C00000 		li 6,0
 3630 0f78 80090088 		lwz 0,136(9)
 3631 0f7c 7C0903A6 		mtctr 0
 3632 0f80 4E800421 		bctrl
 3633              		.loc 4 355 0
 3634 0f84 807D0150 		lwz 3,336(29)
 3635 0f88 38800021 		li 4,33
 3636 0f8c 38A00032 		li 5,50
 3637 0f90 81230000 		lwz 9,0(3)
 3638 0f94 38C00000 		li 6,0
 3639 0f98 80090088 		lwz 0,136(9)
 3640 0f9c 7C0903A6 		mtctr 0
 3641 0fa0 4E800421 		bctrl
 3642              		.loc 4 356 0
 3643 0fa4 807D0154 		lwz 3,340(29)
 3644 0fa8 38800021 		li 4,33
 3645 0fac 38A00032 		li 5,50
 3646 0fb0 81230000 		lwz 9,0(3)
 3647 0fb4 38C00000 		li 6,0
 3648 0fb8 80090088 		lwz 0,136(9)
 3649 0fbc 7C0903A6 		mtctr 0
 3650 0fc0 4E800421 		bctrl
 3651              		.loc 4 357 0
 3652 0fc4 807D0158 		lwz 3,344(29)
 3653 0fc8 83DD0110 		lwz 30,272(29)
 3654 0fcc 81230000 		lwz 9,0(3)
 3655 0fd0 80090028 		lwz 0,40(9)
 3656 0fd4 813E0000 		lwz 9,0(30)
 3657 0fd8 7C0903A6 		mtctr 0
 3658 0fdc 83E90088 		lwz 31,136(9)
 3659 0fe0 4E800421 		bctrl
 3660 0fe4 7FE903A6 		mtctr 31
 3661 0fe8 7CC300D0 		neg 6,3
 3662 0fec 38A00032 		li 5,50
 3663 0ff0 7FC3F378 		mr 3,30
 3664 0ff4 38800C00 		li 4,3072
 3665 0ff8 4E800421 		bctrl
 3666              		.loc 4 358 0
 3667 0ffc 83DD0124 		lwz 30,292(29)
 3668 1000 3C600000 		lis 3,.LC9@ha
 3669 1004 813E0000 		lwz 9,0(30)
 3670 1008 3863000C 		la 3,.LC9@l(3)
 3671 100c 83E900C8 		lwz 31,200(9)
 3672 1010 48000001 		bl gettext
 3673 1014 7C641B78 		mr 4,3
 3674 1018 7FC3F378 		mr 3,30
 3675 101c 7FE903A6 		mtctr 31
 3676 1020 4E800421 		bctrl
 3677              		.loc 4 360 0
 3678 1024 48000018 		b .L199
 3679              	.L200:
 3680 1028 813F0000 		lwz 9,0(31)
 3681 102c 7FE3FB78 		mr 3,31
 3682 1030 800900D8 		lwz 0,216(9)
 3683 1034 7C0903A6 		mtctr 0
 3684 1038 4E800421 		bctrl
 3685              	.L199:
 3686              		.loc 4 360 0 is_stmt 0 discriminator 1
 3687 103c 807D015C 		lwz 3,348(29)
 3688 1040 81230000 		lwz 9,0(3)
 3689 1044 8009009C 		lwz 0,156(9)
 3690 1048 7C0903A6 		mtctr 0
 3691 104c 4E800421 		bctrl
 3692 1050 2F830000 		cmpwi 7,3,0
 3693 1054 419E002C 		beq- 7,.L204
 3694              	.LBB2327:
 3695              	.LBB2328:
 3696              		.loc 5 27 0 is_stmt 1
 3697 1058 3FC00000 		lis 30,_ZN11Application8instanceE@ha
 3698 105c 83FE0000 		lwz 31,_ZN11Application8instanceE@l(30)
 3699 1060 2F9F0000 		cmpwi 7,31,0
 3700 1064 409EFFC4 		bne+ 7,.L200
 3701 1068 38600278 		li 3,632
 3702 106c 48000001 		bl _Znwj
 3703              	.LEHE15:
 3704 1070 7C7F1B78 		mr 31,3
 3705              	.LEHB16:
 3706 1074 48000001 		bl _ZN11ApplicationC1Ev
 3707              	.LEHE16:
 3708 1078 93FE0000 		stw 31,_ZN11Application8instanceE@l(30)
 3709 107c 4BFFFFAC 		b .L200
 3710              	.L204:
 3711              	.LBE2328:
 3712              	.LBE2327:
 3713              		.loc 4 363 0
 3714 1080 8001001C 		lwz 0,28(1)
 3715              		.loc 4 362 0
 3716 1084 7FA3EB78 		mr 3,29
 3717              		.loc 4 363 0
 3718 1088 83C10010 		lwz 30,16(1)
 3719              		.loc 4 362 0
 3720 108c 38800001 		li 4,1
 3721              		.loc 4 363 0
 3722 1090 83A1000C 		lwz 29,12(1)
 3723              	.LVL221:
 3724 1094 7C0803A6 		mtlr 0
 3725 1098 83E10014 		lwz 31,20(1)
 3726 109c 38210018 		addi 1,1,24
 3727              		.cfi_remember_state
 3728              	.LCFI70:
 3729              		.cfi_def_cfa_offset 0
 3730              		.cfi_restore 31
 3731              		.cfi_restore 30
 3732              		.cfi_restore 29
 3733              	.LEHB17:
 3734              		.loc 4 362 0
 3735 10a0 48000000 		b _ZN8HomeMenu12SettingsAnimEb
 3736              	.LVL222:
 3737              	.L203:
 3738              	.LCFI71:
 3739              		.cfi_restore_state
 3740 10a4 7C7E1B78 		mr 30,3
 3741              	.LBB2330:
 3742              	.LBB2329:
 3743              		.loc 5 27 0
 3744 10a8 7FE3FB78 		mr 3,31
 3745 10ac 48000001 		bl _ZdlPv
 3746 10b0 7FC3F378 		mr 3,30
 3747 10b4 48000001 		bl _Unwind_Resume
 3748              	.LEHE17:
 3749              	.LBE2329:
 3750              	.LBE2330:
 3751              		.cfi_endproc
 3752              	.LFE1624:
 3753              		.section	.gcc_except_table
 3754              	.LLSDA1624:
 3755 005f FF       		.byte	0xff
 3756 0060 FF       		.byte	0xff
 3757 0061 01       		.byte	0x1
 3758 0062 10       		.uleb128 .LLSDACSE1624-.LLSDACSB1624
 3759              	.LLSDACSB1624:
 3760 0063 40       		.uleb128 .LEHB15-.LFB1624
 3761 0064 9002     		.uleb128 .LEHE15-.LEHB15
 3762 0066 00       		.uleb128 0
 3763 0067 00       		.uleb128 0
 3764 0068 D402     		.uleb128 .LEHB16-.LFB1624
 3765 006a 04       		.uleb128 .LEHE16-.LEHB16
 3766 006b 8403     		.uleb128 .L203-.LFB1624
 3767 006d 00       		.uleb128 0
 3768 006e 8003     		.uleb128 .LEHB17-.LFB1624
 3769 0070 18       		.uleb128 .LEHE17-.LEHB17
 3770 0071 00       		.uleb128 0
 3771 0072 00       		.uleb128 0
 3772              	.LLSDACSE1624:
 3773              		.section	".text"
 3774              		.size	_ZN8HomeMenu12SettingsShowEv, .-_ZN8HomeMenu12SettingsShowEv
 3775              		.align 2
 3776              		.globl _ZN8HomeMenu13OnButtonClickEP9GuiButtoniRK6_POINT
 3777              		.type	_ZN8HomeMenu13OnButtonClickEP9GuiButtoniRK6_POINT, @function
 3778              	_ZN8HomeMenu13OnButtonClickEP9GuiButtoniRK6_POINT:
 3779              	.LFB1623:
 3780              		.loc 4 292 0
 3781              		.cfi_startproc
 3782              	.LVL223:
 3783 10b8 7C0802A6 		mflr 0
 3784 10bc 9421FFE8 		stwu 1,-24(1)
 3785              	.LCFI72:
 3786              		.cfi_def_cfa_offset 24
 3787              		.cfi_register 65, 0
 3788 10c0 93C10010 		stw 30,16(1)
 3789 10c4 7C9E2378 		mr 30,4
 3790              		.cfi_offset 30, -8
 3791 10c8 93E10014 		stw 31,20(1)
 3792 10cc 7C7F1B78 		mr 31,3
 3793              		.cfi_offset 31, -4
 3794 10d0 9001001C 		stw 0,28(1)
 3795 10d4 93810008 		stw 28,8(1)
 3796 10d8 93A1000C 		stw 29,12(1)
 3797              	.LBB2347:
 3798              		.loc 4 293 0
 3799              		.cfi_offset 29, -12
 3800              		.cfi_offset 28, -16
 3801              		.cfi_offset 65, 4
 3802 10dc 48000001 		bl _ZN8HomeMenu10IsAnimatedEv
 3803              	.LVL224:
 3804 10e0 2F830000 		cmpwi 7,3,0
 3805 10e4 409E004C 		bne- 7,.L205
 3806              	.LBB2348:
 3807              		.loc 4 296 0
 3808 10e8 801F0150 		lwz 0,336(31)
 3809 10ec 7F80F000 		cmpw 7,0,30
 3810 10f0 419E0144 		beq- 7,.L225
 3811              	.LVL225:
 3812              	.LBE2348:
 3813              	.LBE2347:
 3814              	.LBB2351:
 3815              	.LBB2352:
 3816              	.LBB2353:
 3817              		.loc 4 303 0
 3818 10f4 801F015C 		lwz 0,348(31)
 3819 10f8 7F9E0000 		cmpw 7,30,0
 3820 10fc 419E0054 		beq- 7,.L226
 3821              	.LBB2354:
 3822              		.loc 4 320 0
 3823 1100 801F0160 		lwz 0,352(31)
 3824 1104 7F9E0000 		cmpw 7,30,0
 3825 1108 419E018C 		beq- 7,.L227
 3826              		.loc 4 335 0
 3827 110c 801F0158 		lwz 0,344(31)
 3828 1110 7F9E0000 		cmpw 7,30,0
 3829 1114 419E0150 		beq- 7,.L228
 3830              		.loc 4 342 0
 3831 1118 801F0164 		lwz 0,356(31)
 3832 111c 7F9E0000 		cmpw 7,30,0
 3833 1120 419E00D8 		beq- 7,.L220
 3834 1124 801F0168 		lwz 0,360(31)
 3835 1128 7F9E0000 		cmpw 7,30,0
 3836 112c 419E00CC 		beq- 7,.L220
 3837              	.LVL226:
 3838              	.L205:
 3839              	.LBE2354:
 3840              	.LBE2353:
 3841              	.LBE2352:
 3842              	.LBE2351:
 3843              		.loc 4 347 0
 3844 1130 8001001C 		lwz 0,28(1)
 3845 1134 83810008 		lwz 28,8(1)
 3846 1138 7C0803A6 		mtlr 0
 3847 113c 83A1000C 		lwz 29,12(1)
 3848 1140 83C10010 		lwz 30,16(1)
 3849 1144 83E10014 		lwz 31,20(1)
 3850 1148 38210018 		addi 1,1,24
 3851              		.cfi_remember_state
 3852              	.LCFI73:
 3853              		.cfi_def_cfa_offset 0
 3854              		.cfi_restore 31
 3855              		.cfi_restore 30
 3856              		.cfi_restore 29
 3857              		.cfi_restore 28
 3858 114c 4E800020 		blr
 3859              	.LVL227:
 3860              	.L226:
 3861              	.LCFI74:
 3862              		.cfi_restore_state
 3863              	.LBB2402:
 3864              	.LBB2393:
 3865              	.LBB2384:
 3866              	.LBB2366:
 3867              		.loc 4 305 0
 3868 1150 3D200000 		lis 9,Settings+140@ha
 3869 1154 A809008C 		lha 0,Settings+140@l(9)
 3870 1158 2F800000 		cmpwi 7,0,0
 3871 115c 419E01E8 		beq- 7,.L223
 3872              	.LBB2367:
 3873              		.loc 4 307 0
 3874 1160 2F800002 		cmpwi 7,0,2
 3875 1164 419E01E8 		beq- 7,.L222
 3876              	.LBB2368:
 3877              		.loc 4 309 0
 3878 1168 2F800001 		cmpwi 7,0,1
 3879 116c 409EFFC4 		bne+ 7,.L205
 3880              	.LBB2369:
 3881              		.loc 4 311 0
 3882 1170 3C600000 		lis 3,.LC10@ha
 3883 1174 3863001C 		la 3,.LC10@l(3)
 3884 1178 48000001 		bl gettext
 3885 117c 7C7C1B78 		mr 28,3
 3886 1180 3C600000 		lis 3,.LC11@ha
 3887 1184 3863002C 		la 3,.LC11@l(3)
 3888 1188 48000001 		bl gettext
 3889 118c 7C7D1B78 		mr 29,3
 3890 1190 3C600000 		lis 3,.LC12@ha
 3891 1194 38630040 		la 3,.LC12@l(3)
 3892 1198 48000001 		bl gettext
 3893 119c 7C7E1B78 		mr 30,3
 3894              	.LVL228:
 3895 11a0 3C600000 		lis 3,.LC13@ha
 3896 11a4 3863004C 		la 3,.LC13@l(3)
 3897 11a8 48000001 		bl gettext
 3898 11ac 7C7F1B78 		mr 31,3
 3899              	.LVL229:
 3900 11b0 3C600000 		lis 3,.LC14@ha
 3901 11b4 38630054 		la 3,.LC14@l(3)
 3902 11b8 48000001 		bl gettext
 3903 11bc 38800000 		li 4,0
 3904 11c0 7C681B78 		mr 8,3
 3905 11c4 7FA5EB78 		mr 5,29
 3906 11c8 7F83E378 		mr 3,28
 3907 11cc 7FC6F378 		mr 6,30
 3908 11d0 7FE7FB78 		mr 7,31
 3909 11d4 48000001 		bl _Z12WindowPromptPKcS0_S0_S0_S0_S0_
 3910              	.LVL230:
 3911              		.loc 4 312 0
 3912 11d8 2F830001 		cmpwi 7,3,1
 3913 11dc 419E0170 		beq- 7,.L222
 3914              		.loc 4 314 0
 3915 11e0 2F830002 		cmpwi 7,3,2
 3916 11e4 419E0160 		beq- 7,.L223
 3917              		.loc 4 316 0
 3918 11e8 2F830003 		cmpwi 7,3,3
 3919 11ec 409EFF44 		bne+ 7,.L205
 3920              	.LVL231:
 3921              	.L224:
 3922              	.LBE2369:
 3923              	.LBE2368:
 3924              	.LBE2367:
 3925              	.LBE2366:
 3926              	.LBB2373:
 3927              	.LBB2355:
 3928              		.loc 4 323 0
 3929 11f0 48000001 		bl RebootApp
 3930 11f4 4BFFFF3C 		b .L205
 3931              	.LVL232:
 3932              	.L220:
 3933              	.LBE2355:
 3934              		.loc 4 344 0
 3935 11f8 3D200000 		lis 9,Settings@ha
 3936              	.LBE2373:
 3937              	.LBE2384:
 3938              	.LBE2393:
 3939              	.LBE2402:
 3940              		.loc 4 347 0
 3941 11fc 83810008 		lwz 28,8(1)
 3942              	.LBB2403:
 3943              	.LBB2394:
 3944              	.LBB2385:
 3945              	.LBB2374:
 3946              		.loc 4 344 0
 3947 1200 39290000 		la 9,Settings@l(9)
 3948              	.LBE2374:
 3949              	.LBE2385:
 3950              	.LBE2394:
 3951              	.LBE2403:
 3952              		.loc 4 347 0
 3953 1204 83A1000C 		lwz 29,12(1)
 3954              	.LBB2404:
 3955              	.LBB2395:
 3956              	.LBB2386:
 3957              	.LBB2375:
 3958              		.loc 4 344 0
 3959 1208 A8090064 		lha 0,100(9)
 3960              		.loc 4 345 0
 3961 120c 7FE3FB78 		mr 3,31
 3962              	.LBE2375:
 3963              	.LBE2386:
 3964              	.LBE2395:
 3965              	.LBE2404:
 3966              		.loc 4 347 0
 3967 1210 83C10010 		lwz 30,16(1)
 3968              	.LVL233:
 3969              	.LBB2405:
 3970              	.LBB2396:
 3971              	.LBB2387:
 3972              	.LBB2376:
 3973              		.loc 4 344 0
 3974 1214 7C000034 		cntlzw 0,0
 3975              	.LBE2376:
 3976              	.LBE2387:
 3977              	.LBE2396:
 3978              	.LBE2405:
 3979              		.loc 4 347 0
 3980 1218 83E10014 		lwz 31,20(1)
 3981              	.LVL234:
 3982              	.LBB2406:
 3983              	.LBB2397:
 3984              	.LBB2388:
 3985              	.LBB2377:
 3986              		.loc 4 344 0
 3987 121c 5400D97E 		srwi 0,0,5
 3988 1220 B0090064 		sth 0,100(9)
 3989              	.LBE2377:
 3990              	.LBE2388:
 3991              	.LBE2397:
 3992              	.LBE2406:
 3993              		.loc 4 347 0
 3994 1224 8001001C 		lwz 0,28(1)
 3995 1228 38210018 		addi 1,1,24
 3996              		.cfi_remember_state
 3997              	.LCFI75:
 3998              		.cfi_def_cfa_offset 0
 3999              		.cfi_restore 31
 4000              		.cfi_restore 30
 4001              		.cfi_restore 29
 4002              		.cfi_restore 28
 4003 122c 7C0803A6 		mtlr 0
 4004              	.LBB2407:
 4005              	.LBB2398:
 4006              	.LBB2389:
 4007              	.LBB2378:
 4008              		.loc 4 345 0
 4009 1230 48000000 		b _ZN8HomeMenu17SettingsBtnUpdateEv
 4010              	.LVL235:
 4011              	.L225:
 4012              	.LCFI76:
 4013              		.cfi_restore_state
 4014              	.LBE2378:
 4015              	.LBE2389:
 4016              	.LBE2398:
 4017              	.LBE2407:
 4018              	.LBB2408:
 4019              	.LBB2349:
 4020              		.loc 4 298 0
 4021 1234 881F00CC 		lbz 0,204(31)
 4022              		.loc 4 299 0
 4023 1238 7FE3FB78 		mr 3,31
 4024              		.loc 4 298 0
 4025 123c 2F800000 		cmpwi 7,0,0
 4026 1240 409E0034 		bne- 7,.L219
 4027              	.LBE2349:
 4028              	.LBE2408:
 4029              		.loc 4 347 0
 4030 1244 8001001C 		lwz 0,28(1)
 4031 1248 83810008 		lwz 28,8(1)
 4032 124c 83A1000C 		lwz 29,12(1)
 4033 1250 7C0803A6 		mtlr 0
 4034 1254 83C10010 		lwz 30,16(1)
 4035              	.LVL236:
 4036 1258 83E10014 		lwz 31,20(1)
 4037              	.LVL237:
 4038 125c 38210018 		addi 1,1,24
 4039              		.cfi_remember_state
 4040              	.LCFI77:
 4041              		.cfi_def_cfa_offset 0
 4042              		.cfi_restore 31
 4043              		.cfi_restore 30
 4044              		.cfi_restore 29
 4045              		.cfi_restore 28
 4046              	.LBB2409:
 4047              	.LBB2350:
 4048              		.loc 4 299 0
 4049 1260 48000000 		b _ZN8HomeMenu4quitEv
 4050              	.LVL238:
 4051              	.L228:
 4052              	.LCFI78:
 4053              		.cfi_restore_state
 4054              	.LBE2350:
 4055              	.LBE2409:
 4056              	.LBB2410:
 4057              	.LBB2399:
 4058              	.LBB2390:
 4059              	.LBB2379:
 4060              		.loc 4 337 0
 4061 1264 881F00CC 		lbz 0,204(31)
 4062              		.loc 4 338 0
 4063 1268 7FE3FB78 		mr 3,31
 4064              		.loc 4 337 0
 4065 126c 2F800000 		cmpwi 7,0,0
 4066 1270 419E00B4 		beq- 7,.L229
 4067              	.LVL239:
 4068              	.L219:
 4069              	.LBE2379:
 4070              	.LBE2390:
 4071              	.LBE2399:
 4072              	.LBE2410:
 4073              		.loc 4 347 0
 4074 1274 8001001C 		lwz 0,28(1)
 4075 1278 83810008 		lwz 28,8(1)
 4076 127c 83A1000C 		lwz 29,12(1)
 4077 1280 7C0803A6 		mtlr 0
 4078 1284 83C10010 		lwz 30,16(1)
 4079              	.LVL240:
 4080 1288 83E10014 		lwz 31,20(1)
 4081              	.LVL241:
 4082 128c 38210018 		addi 1,1,24
 4083              		.cfi_remember_state
 4084              	.LCFI79:
 4085              		.cfi_def_cfa_offset 0
 4086              		.cfi_restore 31
 4087              		.cfi_restore 30
 4088              		.cfi_restore 29
 4089              		.cfi_restore 28
 4090              	.LBB2411:
 4091              	.LBB2400:
 4092              	.LBB2391:
 4093              	.LBB2380:
 4094              		.loc 4 340 0
 4095 1290 48000000 		b _ZN8HomeMenu12SettingsHideEv
 4096              	.LVL242:
 4097              	.L227:
 4098              	.LCFI80:
 4099              		.cfi_restore_state
 4100              	.LBB2363:
 4101              		.loc 4 322 0
 4102 1294 3D200000 		lis 9,Settings+140@ha
 4103 1298 A809008C 		lha 0,Settings+140@l(9)
 4104 129c 2F800000 		cmpwi 7,0,0
 4105 12a0 41BEFF50 		beq- 7,.L224
 4106              	.LBB2356:
 4107              		.loc 4 324 0
 4108 12a4 2F800002 		cmpwi 7,0,2
 4109 12a8 419E009C 		beq- 7,.L223
 4110              	.LBB2357:
 4111              		.loc 4 326 0
 4112 12ac 2F800001 		cmpwi 7,0,1
 4113 12b0 409EFE80 		bne+ 7,.L205
 4114              	.LBB2358:
 4115              		.loc 4 328 0
 4116 12b4 3C600000 		lis 3,.LC15@ha
 4117 12b8 3863005C 		la 3,.LC15@l(3)
 4118 12bc 48000001 		bl gettext
 4119 12c0 7C7D1B78 		mr 29,3
 4120 12c4 3C600000 		lis 3,.LC16@ha
 4121 12c8 38630070 		la 3,.LC16@l(3)
 4122 12cc 48000001 		bl gettext
 4123 12d0 7C7E1B78 		mr 30,3
 4124              	.LVL243:
 4125 12d4 3C600000 		lis 3,.LC17@ha
 4126 12d8 38630080 		la 3,.LC17@l(3)
 4127 12dc 48000001 		bl gettext
 4128 12e0 7C7F1B78 		mr 31,3
 4129              	.LVL244:
 4130 12e4 3C600000 		lis 3,.LC14@ha
 4131 12e8 38630054 		la 3,.LC14@l(3)
 4132 12ec 48000001 		bl gettext
 4133 12f0 38800000 		li 4,0
 4134 12f4 7C671B78 		mr 7,3
 4135 12f8 7FC5F378 		mr 5,30
 4136 12fc 7FA3EB78 		mr 3,29
 4137 1300 7FE6FB78 		mr 6,31
 4138 1304 39000000 		li 8,0
 4139 1308 48000001 		bl _Z12WindowPromptPKcS0_S0_S0_S0_S0_
 4140              	.LVL245:
 4141              		.loc 4 329 0
 4142 130c 2F830001 		cmpwi 7,3,1
 4143 1310 419E0044 		beq- 7,.L230
 4144              		.loc 4 331 0
 4145 1314 2F830002 		cmpwi 7,3,2
 4146 1318 409EFE18 		bne+ 7,.L205
 4147              		.loc 4 332 0
 4148 131c 48000001 		bl Sys_ShutdownToIdle
 4149              	.LVL246:
 4150 1320 4BFFFE10 		b .L205
 4151              	.LVL247:
 4152              	.L229:
 4153              	.LBE2358:
 4154              	.LBE2357:
 4155              	.LBE2356:
 4156              	.LBE2363:
 4157              	.LBE2380:
 4158              	.LBE2391:
 4159              	.LBE2400:
 4160              	.LBE2411:
 4161              		.loc 4 347 0
 4162 1324 8001001C 		lwz 0,28(1)
 4163 1328 83810008 		lwz 28,8(1)
 4164 132c 83A1000C 		lwz 29,12(1)
 4165 1330 7C0803A6 		mtlr 0
 4166 1334 83C10010 		lwz 30,16(1)
 4167              	.LVL248:
 4168 1338 83E10014 		lwz 31,20(1)
 4169 133c 38210018 		addi 1,1,24
 4170              		.cfi_remember_state
 4171              	.LCFI81:
 4172              		.cfi_def_cfa_offset 0
 4173              		.cfi_restore 31
 4174              		.cfi_restore 30
 4175              		.cfi_restore 29
 4176              		.cfi_restore 28
 4177              	.LBB2412:
 4178              	.LBB2401:
 4179              	.LBB2392:
 4180              	.LBB2381:
 4181              		.loc 4 338 0
 4182 1340 48000000 		b _ZN8HomeMenu12SettingsShowEv
 4183              	.LVL249:
 4184              	.L223:
 4185              	.LCFI82:
 4186              		.cfi_restore_state
 4187              	.LBB2364:
 4188              	.LBB2361:
 4189              		.loc 4 325 0
 4190 1344 48000001 		bl Sys_LoadMenu
 4191 1348 4BFFFDE8 		b .L205
 4192              	.L222:
 4193              	.LBE2361:
 4194              	.LBE2364:
 4195              	.LBE2381:
 4196              	.LBB2382:
 4197              	.LBB2372:
 4198              	.LBB2371:
 4199              	.LBB2370:
 4200              		.loc 4 313 0
 4201 134c 48000001 		bl Sys_LoadHBC
 4202 1350 4BFFFDE0 		b .L205
 4203              	.LVL250:
 4204              	.L230:
 4205              	.LBE2370:
 4206              	.LBE2371:
 4207              	.LBE2372:
 4208              	.LBE2382:
 4209              	.LBB2383:
 4210              	.LBB2365:
 4211              	.LBB2362:
 4212              	.LBB2360:
 4213              	.LBB2359:
 4214              		.loc 4 330 0
 4215 1354 48000001 		bl Sys_ShutdownToStandby
 4216              	.LVL251:
 4217 1358 4BFFFDD8 		b .L205
 4218              	.LBE2359:
 4219              	.LBE2360:
 4220              	.LBE2362:
 4221              	.LBE2365:
 4222              	.LBE2383:
 4223              	.LBE2392:
 4224              	.LBE2401:
 4225              	.LBE2412:
 4226              		.cfi_endproc
 4227              	.LFE1623:
 4228              		.size	_ZN8HomeMenu13OnButtonClickEP9GuiButtoniRK6_POINT, .-_ZN8HomeMenu13OnButtonClickEP9GuiButton
 4229              		.section	.text._ZNSt6vectorIP10GuiElementSaIS1_EE13_M_insert_auxEN9__gnu_cxx17__normal_iteratorIPS
 4230              		.align 2
 4231              		.weak	_ZNSt6vectorIP10GuiElementSaIS1_EE13_M_insert_auxEN9__gnu_cxx17__normal_iteratorIPS1_S3_EERK
 4232              		.type	_ZNSt6vectorIP10GuiElementSaIS1_EE13_M_insert_auxEN9__gnu_cxx17__normal_iteratorIPS1_S3_EERK
 4233              	_ZNSt6vectorIP10GuiElementSaIS1_EE13_M_insert_auxEN9__gnu_cxx17__normal_iteratorIPS1_S3_EERKS1_:
 4234              	.LFB1718:
 4235              		.file 6 "d:\\devkitpro\\devkitppc\\bin\\../lib/gcc/powerpc-eabi/4.6.3/../../../../powerpc-eabi/inc
 4236              		.loc 6 300 0
 4237              		.cfi_startproc
 4238              	.LVL252:
 4239 0000 7C0802A6 		mflr 0
 4240 0004 9421FFD8 		stwu 1,-40(1)
 4241              	.LCFI83:
 4242              		.cfi_def_cfa_offset 40
 4243              		.cfi_register 65, 0
 4244 0008 93610014 		stw 27,20(1)
 4245 000c 9001002C 		stw 0,44(1)
 4246 0010 93C10020 		stw 30,32(1)
 4247              	.LBB2475:
 4248              		.loc 6 304 0
 4249 0014 83630004 		lwz 27,4(3)
 4250              		.cfi_offset 30, -8
 4251              		.cfi_offset 65, 4
 4252              		.cfi_offset 27, -20
 4253 0018 80030008 		lwz 0,8(3)
 4254              	.LBE2475:
 4255              		.loc 6 300 0
 4256 001c 93E10024 		stw 31,36(1)
 4257 0020 7C7F1B78 		mr 31,3
 4258              		.cfi_offset 31, -4
 4259              	.LBB2600:
 4260              		.loc 6 304 0
 4261 0024 7F9B0000 		cmpw 7,27,0
 4262              	.LBE2600:
 4263              		.loc 6 300 0
 4264 0028 93410010 		stw 26,16(1)
 4265 002c 93810018 		stw 28,24(1)
 4266 0030 93A1001C 		stw 29,28(1)
 4267              		.loc 6 300 0
 4268 0034 83C40000 		lwz 30,0(4)
 4269              	.LVL253:
 4270              	.LBB2601:
 4271              		.loc 6 304 0
 4272 0038 419E0078 		beq- 7,.L232
 4273              		.cfi_offset 29, -12
 4274              		.cfi_offset 28, -16
 4275              		.cfi_offset 26, -24
 4276              	.LVL254:
 4277              	.LBB2476:
 4278              	.LBB2477:
 4279              	.LBB2478:
 4280              		.file 7 "d:\\devkitpro\\devkitppc\\bin\\../lib/gcc/powerpc-eabi/4.6.3/../../../../powerpc-eabi/inc
 4281              		.loc 7 108 0
 4282 003c 2F9B0000 		cmpwi 7,27,0
 4283 0040 38600000 		li 3,0
 4284              	.LVL255:
 4285 0044 419E0010 		beq- 7,.L233
 4286 0048 801BFFFC 		lwz 0,-4(27)
 4287 004c 901B0000 		stw 0,0(27)
 4288 0050 807F0004 		lwz 3,4(31)
 4289              	.L233:
 4290              	.LBE2478:
 4291              	.LBE2477:
 4292              		.loc 6 313 0
 4293 0054 3803FFFC 		addi 0,3,-4
 4294              		.loc 6 309 0
 4295 0058 39230004 		addi 9,3,4
 4296              	.LBB2479:
 4297              	.LBB2480:
 4298              	.LBB2481:
 4299              	.LBB2482:
 4300              	.LBB2483:
 4301              	.LBB2484:
 4302              		.file 8 "d:\\devkitpro\\devkitppc\\bin\\../lib/gcc/powerpc-eabi/4.6.3/../../../../powerpc-eabi/inc
 4303              		.loc 8 559 0
 4304 005c 7C1E0050 		subf 0,30,0
 4305              	.LBE2484:
 4306              	.LBE2483:
 4307              	.LBE2482:
 4308              	.LBE2481:
 4309              	.LBE2480:
 4310              	.LBE2479:
 4311              		.loc 6 309 0
 4312 0060 913F0004 		stw 9,4(31)
 4313              	.LBB2500:
 4314              	.LBB2497:
 4315              	.LBB2494:
 4316              	.LBB2491:
 4317              	.LBB2488:
 4318              	.LBB2485:
 4319              		.loc 8 560 0
 4320 0064 7C001671 		srawi. 0,0,2
 4321              	.LBE2485:
 4322              	.LBE2488:
 4323              	.LBE2491:
 4324              	.LBE2494:
 4325              	.LBE2497:
 4326              	.LBE2500:
 4327              		.loc 6 311 0
 4328 0068 83E50000 		lwz 31,0(5)
 4329              	.LVL256:
 4330              	.LBB2501:
 4331              	.LBB2498:
 4332              	.LBB2495:
 4333              	.LBB2492:
 4334              	.LBB2489:
 4335              	.LBB2486:
 4336              		.loc 8 560 0
 4337 006c 40820030 		bne- 0,.L248
 4338              	.LVL257:
 4339              	.L234:
 4340              	.LBE2486:
 4341              	.LBE2489:
 4342              	.LBE2492:
 4343              	.LBE2495:
 4344              	.LBE2498:
 4345              	.LBE2501:
 4346              	.LBE2476:
 4347              	.LBE2601:
 4348              		.loc 6 373 0
 4349 0070 8001002C 		lwz 0,44(1)
 4350              	.LBB2602:
 4351              	.LBB2503:
 4352              		.loc 6 317 0
 4353 0074 93FE0000 		stw 31,0(30)
 4354              	.LBE2503:
 4355              	.LBE2602:
 4356              		.loc 6 373 0
 4357 0078 7C0803A6 		mtlr 0
 4358 007c 83410010 		lwz 26,16(1)
 4359 0080 83610014 		lwz 27,20(1)
 4360              	.LVL258:
 4361 0084 83810018 		lwz 28,24(1)
 4362 0088 83A1001C 		lwz 29,28(1)
 4363 008c 83C10020 		lwz 30,32(1)
 4364              	.LVL259:
 4365 0090 83E10024 		lwz 31,36(1)
 4366              	.LVL260:
 4367 0094 38210028 		addi 1,1,40
 4368              		.cfi_remember_state
 4369              	.LCFI84:
 4370              		.cfi_def_cfa_offset 0
 4371              		.cfi_restore 31
 4372              		.cfi_restore 30
 4373              		.cfi_restore 29
 4374              		.cfi_restore 28
 4375              		.cfi_restore 27
 4376              		.cfi_restore 26
 4377 0098 4E800020 		blr
 4378              	.LVL261:
 4379              	.L248:
 4380              	.LCFI85:
 4381              		.cfi_restore_state
 4382              	.LBB2603:
 4383              	.LBB2504:
 4384              	.LBB2502:
 4385              	.LBB2499:
 4386              	.LBB2496:
 4387              	.LBB2493:
 4388              	.LBB2490:
 4389              	.LBB2487:
 4390              		.loc 8 561 0
 4391 009c 5405103A 		slwi 5,0,2
 4392              	.LVL262:
 4393 00a0 7FC4F378 		mr 4,30
 4394 00a4 7C651850 		subf 3,5,3
 4395              	.LVL263:
 4396 00a8 48000001 		bl memmove
 4397              	.LVL264:
 4398 00ac 4BFFFFC4 		b .L234
 4399              	.LVL265:
 4400              	.L232:
 4401              	.LBE2487:
 4402              	.LBE2490:
 4403              	.LBE2493:
 4404              	.LBE2496:
 4405              	.LBE2499:
 4406              	.LBE2502:
 4407              	.LBE2504:
 4408              	.LBB2505:
 4409              	.LBB2506:
 4410              	.LBB2507:
 4411              	.LBB2508:
 4412              	.LBB2509:
 4413              		.file 9 "d:\\devkitpro\\devkitppc\\bin\\../lib/gcc/powerpc-eabi/4.6.3/../../../../powerpc-eabi/inc
 4414              		.loc 9 571 0
 4415 00b0 83830000 		lwz 28,0(3)
 4416 00b4 7F7CD850 		subf 27,28,27
 4417              	.LBE2509:
 4418              	.LBE2508:
 4419              	.LBB2510:
 4420              	.LBB2511:
 4421              		.loc 8 215 0
 4422 00b8 7F7B1671 		srawi. 27,27,2
 4423 00bc 418200E8 		beq- 0,.L236
 4424              	.LBE2511:
 4425              	.LBE2510:
 4426              		.loc 9 1244 0
 4427 00c0 5760083C 		slwi 0,27,1
 4428              	.LVL266:
 4429              		.loc 9 1245 0
 4430 00c4 7F9B0040 		cmplw 7,27,0
 4431 00c8 409D00EC 		ble- 7,.L249
 4432              	.L237:
 4433              	.LVL267:
 4434              	.LBE2507:
 4435              	.LBE2506:
 4436              	.LBB2514:
 4437              	.LBB2515:
 4438              		.file 10 "d:\\devkitpro\\devkitppc\\bin\\../lib/gcc/powerpc-eabi/4.6.3/../../../../powerpc-eabi/in
 4439              		.loc 10 892 0
 4440 00cc 7F9CF050 		subf 28,28,30
 4441              	.LBE2515:
 4442              	.LBE2514:
 4443              		.loc 6 326 0
 4444 00d0 3B60FFFC 		li 27,-4
 4445              	.LBB2521:
 4446              	.LBB2516:
 4447              		.loc 10 892 0
 4448 00d4 7F9C1670 		srawi 28,28,2
 4449              	.LVL268:
 4450              	.L243:
 4451              	.LBE2516:
 4452              	.LBE2521:
 4453              	.LBB2522:
 4454              	.LBB2523:
 4455              	.LBB2524:
 4456              	.LBB2525:
 4457              		.loc 7 92 0
 4458 00d8 7F63DB78 		mr 3,27
 4459              	.LVL269:
 4460 00dc 90A10008 		stw 5,8(1)
 4461 00e0 48000001 		bl _Znwj
 4462              	.LVL270:
 4463 00e4 80A10008 		lwz 5,8(1)
 4464 00e8 7C7D1B78 		mr 29,3
 4465              	.L238:
 4466              	.LVL271:
 4467              	.LBE2525:
 4468              	.LBE2524:
 4469              	.LBE2523:
 4470              	.LBE2522:
 4471              		.loc 6 335 0
 4472 00ec 579C103A 		slwi 28,28,2
 4473              	.LVL272:
 4474 00f0 7C1DE214 		add 0,29,28
 4475              	.LVL273:
 4476              	.LBB2528:
 4477              	.LBB2529:
 4478              		.loc 7 108 0
 4479 00f4 2F800000 		cmpwi 7,0,0
 4480 00f8 419E000C 		beq- 7,.L239
 4481 00fc 80050000 		lwz 0,0(5)
 4482              	.LVL274:
 4483 0100 7C1DE12E 		stwx 0,29,28
 4484              	.L239:
 4485              	.LVL275:
 4486              	.LBE2529:
 4487              	.LBE2528:
 4488              		.loc 6 343 0
 4489 0104 809F0000 		lwz 4,0(31)
 4490              	.LVL276:
 4491              	.LBB2530:
 4492              	.LBB2531:
 4493              	.LBB2532:
 4494              	.LBB2533:
 4495              	.LBB2534:
 4496              	.LBB2535:
 4497              	.LBB2536:
 4498              	.LBB2537:
 4499              	.LBB2538:
 4500              	.LBB2539:
 4501              	.LBB2540:
 4502              		.loc 8 365 0
 4503 0108 3B800000 		li 28,0
 4504              		.loc 8 364 0
 4505 010c 7C04F050 		subf 0,4,30
 4506              	.LVL277:
 4507              		.loc 8 365 0
 4508 0110 7C001671 		srawi. 0,0,2
 4509              	.LVL278:
 4510 0114 41A20014 		beq+ 0,.L240
 4511              		.loc 8 366 0
 4512 0118 541C103A 		slwi 28,0,2
 4513 011c 7FA3EB78 		mr 3,29
 4514 0120 7F85E378 		mr 5,28
 4515              	.LVL279:
 4516 0124 48000001 		bl memmove
 4517              	.LVL280:
 4518              	.L240:
 4519              	.LBE2540:
 4520              	.LBE2539:
 4521              	.LBE2538:
 4522              	.LBE2537:
 4523              	.LBE2536:
 4524              	.LBE2535:
 4525              	.LBE2534:
 4526              	.LBE2533:
 4527              	.LBE2532:
 4528              	.LBE2531:
 4529              	.LBE2530:
 4530              	.LBB2551:
 4531              	.LBB2552:
 4532              	.LBB2553:
 4533              	.LBB2554:
 4534              	.LBB2555:
 4535              	.LBB2556:
 4536              	.LBB2557:
 4537              	.LBB2558:
 4538              	.LBB2559:
 4539              	.LBB2560:
 4540              	.LBB2561:
 4541              		.loc 8 364 0
 4542 0128 801F0004 		lwz 0,4(31)
 4543              	.LBE2561:
 4544              	.LBE2560:
 4545              	.LBE2559:
 4546              	.LBE2558:
 4547              	.LBE2557:
 4548              	.LBE2556:
 4549              	.LBE2555:
 4550              	.LBE2554:
 4551              	.LBE2553:
 4552              	.LBE2552:
 4553              	.LBE2551:
 4554              	.LBB2582:
 4555              	.LBB2550:
 4556              	.LBB2549:
 4557              	.LBB2548:
 4558              	.LBB2547:
 4559              	.LBB2546:
 4560              	.LBB2545:
 4561              	.LBB2544:
 4562              	.LBB2543:
 4563              	.LBB2542:
 4564              	.LBB2541:
 4565              		.loc 8 367 0
 4566 012c 7F9DE214 		add 28,29,28
 4567              	.LVL281:
 4568              	.LBE2541:
 4569              	.LBE2542:
 4570              	.LBE2543:
 4571              	.LBE2544:
 4572              	.LBE2545:
 4573              	.LBE2546:
 4574              	.LBE2547:
 4575              	.LBE2548:
 4576              	.LBE2549:
 4577              	.LBE2550:
 4578              	.LBE2582:
 4579              		.loc 6 347 0
 4580 0130 3B5C0004 		addi 26,28,4
 4581              	.LBB2583:
 4582              	.LBB2580:
 4583              	.LBB2578:
 4584              	.LBB2576:
 4585              	.LBB2574:
 4586              	.LBB2572:
 4587              	.LBB2570:
 4588              	.LBB2568:
 4589              	.LBB2566:
 4590              	.LBB2564:
 4591              	.LBB2562:
 4592              		.loc 8 365 0
 4593 0134 3B800000 		li 28,0
 4594              		.loc 8 364 0
 4595 0138 7C1E0050 		subf 0,30,0
 4596              	.LVL282:
 4597              		.loc 8 365 0
 4598 013c 7C001671 		srawi. 0,0,2
 4599              	.LVL283:
 4600 0140 41A20018 		beq+ 0,.L241
 4601              		.loc 8 366 0
 4602 0144 541C103A 		slwi 28,0,2
 4603 0148 7F43D378 		mr 3,26
 4604 014c 7FC4F378 		mr 4,30
 4605 0150 7F85E378 		mr 5,28
 4606 0154 48000001 		bl memmove
 4607              	.LVL284:
 4608              	.L241:
 4609              	.LBE2562:
 4610              	.LBE2564:
 4611              	.LBE2566:
 4612              	.LBE2568:
 4613              	.LBE2570:
 4614              	.LBE2572:
 4615              	.LBE2574:
 4616              	.LBE2576:
 4617              	.LBE2578:
 4618              	.LBE2580:
 4619              	.LBE2583:
 4620              		.loc 6 366 0
 4621 0158 807F0000 		lwz 3,0(31)
 4622              	.LBB2584:
 4623              	.LBB2581:
 4624              	.LBB2579:
 4625              	.LBB2577:
 4626              	.LBB2575:
 4627              	.LBB2573:
 4628              	.LBB2571:
 4629              	.LBB2569:
 4630              	.LBB2567:
 4631              	.LBB2565:
 4632              	.LBB2563:
 4633              		.loc 8 367 0
 4634 015c 7F9AE214 		add 28,26,28
 4635              	.LVL285:
 4636              	.LBE2563:
 4637              	.LBE2565:
 4638              	.LBE2567:
 4639              	.LBE2569:
 4640              	.LBE2571:
 4641              	.LBE2573:
 4642              	.LBE2575:
 4643              	.LBE2577:
 4644              	.LBE2579:
 4645              	.LBE2581:
 4646              	.LBE2584:
 4647              	.LBB2585:
 4648              	.LBB2586:
 4649              		.loc 9 155 0
 4650 0160 2F830000 		cmpwi 7,3,0
 4651 0164 419E0008 		beq- 7,.L242
 4652              	.LVL286:
 4653              	.LBB2587:
 4654              	.LBB2588:
 4655              		.loc 7 98 0
 4656 0168 48000001 		bl _ZdlPv
 4657              	.LVL287:
 4658              	.L242:
 4659              	.LBE2588:
 4660              	.LBE2587:
 4661              	.LBE2586:
 4662              	.LBE2585:
 4663              	.LBE2505:
 4664              	.LBE2603:
 4665              		.loc 6 373 0
 4666 016c 8001002C 		lwz 0,44(1)
 4667              	.LBB2604:
 4668              	.LBB2597:
 4669              		.loc 6 371 0
 4670 0170 7F7DDA14 		add 27,29,27
 4671              		.loc 6 369 0
 4672 0174 93BF0000 		stw 29,0(31)
 4673              	.LBE2597:
 4674              	.LBE2604:
 4675              		.loc 6 373 0
 4676 0178 7C0803A6 		mtlr 0
 4677              	.LBB2605:
 4678              	.LBB2598:
 4679              		.loc 6 370 0
 4680 017c 939F0004 		stw 28,4(31)
 4681              		.loc 6 371 0
 4682 0180 937F0008 		stw 27,8(31)
 4683              	.LBE2598:
 4684              	.LBE2605:
 4685              		.loc 6 373 0
 4686 0184 83410010 		lwz 26,16(1)
 4687              	.LVL288:
 4688 0188 83610014 		lwz 27,20(1)
 4689 018c 83810018 		lwz 28,24(1)
 4690 0190 83A1001C 		lwz 29,28(1)
 4691              	.LVL289:
 4692 0194 83C10020 		lwz 30,32(1)
 4693              	.LVL290:
 4694 0198 83E10024 		lwz 31,36(1)
 4695              	.LVL291:
 4696 019c 38210028 		addi 1,1,40
 4697              		.cfi_remember_state
 4698              		.cfi_restore 26
 4699              		.cfi_restore 27
 4700              		.cfi_restore 28
 4701              		.cfi_restore 29
 4702              		.cfi_restore 30
 4703              		.cfi_restore 31
 4704              	.LCFI86:
 4705              		.cfi_def_cfa_offset 0
 4706 01a0 4E800020 		blr
 4707              	.LVL292:
 4708              	.L236:
 4709              	.LCFI87:
 4710              		.cfi_restore_state
 4711              	.LBB2606:
 4712              	.LBB2599:
 4713              	.LBB2589:
 4714              	.LBB2517:
 4715              		.loc 10 892 0
 4716 01a4 7F9CF050 		subf 28,28,30
 4717              	.LBE2517:
 4718              	.LBE2589:
 4719              		.loc 6 326 0
 4720 01a8 3B600004 		li 27,4
 4721              	.LBB2590:
 4722              	.LBB2518:
 4723              		.loc 10 892 0
 4724 01ac 7F9C1670 		srawi 28,28,2
 4725              	.LVL293:
 4726 01b0 4BFFFF28 		b .L243
 4727              	.LVL294:
 4728              	.L249:
 4729              	.LBE2518:
 4730              	.LBE2590:
 4731              	.LBB2591:
 4732              	.LBB2512:
 4733              		.loc 9 1245 0
 4734 01b4 3D203FFF 		lis 9,0x3fff
 4735 01b8 6129FFFF 		ori 9,9,65535
 4736 01bc 7F804840 		cmplw 7,0,9
 4737 01c0 419DFF0C 		bgt+ 7,.L237
 4738              	.LBE2512:
 4739              	.LBE2591:
 4740              	.LBB2592:
 4741              	.LBB2526:
 4742              		.loc 9 150 0
 4743 01c4 2F800000 		cmpwi 7,0,0
 4744              	.LBE2526:
 4745              	.LBE2592:
 4746              	.LBB2593:
 4747              	.LBB2519:
 4748              		.loc 10 892 0
 4749 01c8 7F9CF050 		subf 28,28,30
 4750              	.LBE2519:
 4751              	.LBE2593:
 4752              	.LBB2594:
 4753              	.LBB2513:
 4754              		.loc 9 1245 0
 4755 01cc 577B1838 		slwi 27,27,3
 4756              	.LVL295:
 4757              	.LBE2513:
 4758              	.LBE2594:
 4759              	.LBB2595:
 4760              	.LBB2520:
 4761              		.loc 10 892 0
 4762 01d0 7F9C1670 		srawi 28,28,2
 4763              	.LVL296:
 4764              	.LBE2520:
 4765              	.LBE2595:
 4766              	.LBB2596:
 4767              	.LBB2527:
 4768              		.loc 9 150 0
 4769 01d4 3BA00000 		li 29,0
 4770 01d8 419EFF14 		beq+ 7,.L238
 4771 01dc 4BFFFEFC 		b .L243
 4772              	.LBE2527:
 4773              	.LBE2596:
 4774              	.LBE2599:
 4775              	.LBE2606:
 4776              		.cfi_endproc
 4777              	.LFE1718:
 4778              		.size	_ZNSt6vectorIP10GuiElementSaIS1_EE13_M_insert_auxEN9__gnu_cxx17__normal_iteratorIPS1_S3_EERK
 4779              		.section	.text._ZNSt8_Rb_treeIPN7sigslot12_signal_baseINS0_15single_threadedEEES4_St9_IdentityIS4_
 4780              		.align 2
 4781              		.weak	_ZNSt8_Rb_treeIPN7sigslot12_signal_baseINS0_15single_threadedEEES4_St9_IdentityIS4_ESt4lessI
 4782              		.type	_ZNSt8_Rb_treeIPN7sigslot12_signal_baseINS0_15single_threadedEEES4_St9_IdentityIS4_ESt4lessI
 4783              	_ZNSt8_Rb_treeIPN7sigslot12_signal_baseINS0_15single_threadedEEES4_St9_IdentityIS4_ESt4lessIS4_ESaI
 4784              	.LFB1788:
 4785              		.file 11 "d:\\devkitpro\\devkitppc\\bin\\../lib/gcc/powerpc-eabi/4.6.3/../../../../powerpc-eabi/in
 4786              		.loc 11 1068 0
 4787              		.cfi_startproc
 4788              	.LVL297:
 4789 0000 9421FFC8 		stwu 1,-56(1)
 4790              	.LCFI88:
 4791              		.cfi_def_cfa_offset 56
 4792 0004 7C0802A6 		mflr 0
 4793 0008 92C10010 		stw 22,16(1)
 4794              	.LBB2723:
 4795              		.loc 11 1072 0
 4796 000c 7C962379 		mr. 22,4
 4797              		.cfi_offset 22, -40
 4798              		.cfi_register 65, 0
 4799              	.LBE2723:
 4800              		.loc 11 1068 0
 4801 0010 93C10030 		stw 30,48(1)
 4802 0014 7C7E1B78 		mr 30,3
 4803              		.cfi_offset 30, -8
 4804 0018 9001003C 		stw 0,60(1)
 4805 001c 92A1000C 		stw 21,12(1)
 4806 0020 92E10014 		stw 23,20(1)
 4807 0024 93010018 		stw 24,24(1)
 4808 0028 9321001C 		stw 25,28(1)
 4809 002c 93410020 		stw 26,32(1)
 4810 0030 93610024 		stw 27,36(1)
 4811 0034 93810028 		stw 28,40(1)
 4812 0038 93A1002C 		stw 29,44(1)
 4813 003c 93E10034 		stw 31,52(1)
 4814              	.LBB2808:
 4815              		.loc 11 1072 0
 4816 0040 41820168 		beq- 0,.L250
 4817              		.cfi_offset 31, -4
 4818              		.cfi_offset 29, -12
 4819              		.cfi_offset 28, -16
 4820              		.cfi_offset 27, -20
 4821              		.cfi_offset 26, -24
 4822              		.cfi_offset 25, -28
 4823              		.cfi_offset 24, -32
 4824              		.cfi_offset 23, -36
 4825              		.cfi_offset 21, -44
 4826              		.cfi_offset 65, 4
 4827              	.LVL298:
 4828              	.L296:
 4829              		.loc 4 473 0
 4830 0044 8376000C 		lwz 27,12(22)
 4831              	.LVL299:
 4832              	.LBB2724:
 4833              	.LBB2725:
 4834              	.LBB2726:
 4835              		.loc 11 1072 0
 4836 0048 2F9B0000 		cmpwi 7,27,0
 4837 004c 419E0140 		beq- 7,.L252
 4838              	.LVL300:
 4839              	.L297:
 4840              	.LBE2726:
 4841              		.loc 4 473 0
 4842 0050 835B000C 		lwz 26,12(27)
 4843              	.LVL301:
 4844              	.LBB2802:
 4845              	.LBB2727:
 4846              	.LBB2728:
 4847              	.LBB2729:
 4848              		.loc 11 1072 0
 4849 0054 2F9A0000 		cmpwi 7,26,0
 4850 0058 419E0118 		beq- 7,.L253
 4851              	.LVL302:
 4852              	.L298:
 4853              	.LBE2729:
 4854              		.loc 4 473 0
 4855 005c 833A000C 		lwz 25,12(26)
 4856              	.LVL303:
 4857              	.LBB2795:
 4858              	.LBB2730:
 4859              	.LBB2731:
 4860              	.LBB2732:
 4861              		.loc 11 1072 0
 4862 0060 2F990000 		cmpwi 7,25,0
 4863 0064 419E00F0 		beq- 7,.L254
 4864              	.LVL304:
 4865              	.L299:
 4866              	.LBE2732:
 4867              		.loc 4 473 0
 4868 0068 8319000C 		lwz 24,12(25)
 4869              	.LVL305:
 4870              	.LBB2788:
 4871              	.LBB2733:
 4872              	.LBB2734:
 4873              	.LBB2735:
 4874              		.loc 11 1072 0
 4875 006c 2F980000 		cmpwi 7,24,0
 4876 0070 419E00C8 		beq- 7,.L255
 4877              	.LVL306:
 4878              	.L300:
 4879              	.LBE2735:
 4880              		.loc 4 473 0
 4881 0074 82F8000C 		lwz 23,12(24)
 4882              	.LVL307:
 4883              	.LBB2781:
 4884              	.LBB2736:
 4885              	.LBB2737:
 4886              	.LBB2738:
 4887              		.loc 11 1072 0
 4888 0078 2F970000 		cmpwi 7,23,0
 4889 007c 419E00A0 		beq- 7,.L256
 4890              	.LVL308:
 4891              	.L301:
 4892              	.LBE2738:
 4893              		.loc 4 473 0
 4894 0080 8397000C 		lwz 28,12(23)
 4895              	.LVL309:
 4896              	.LBB2774:
 4897              	.LBB2739:
 4898              	.LBB2740:
 4899              	.LBB2741:
 4900              		.loc 11 1072 0
 4901 0084 2F9C0000 		cmpwi 7,28,0
 4902 0088 419E0078 		beq- 7,.L257
 4903              	.LVL310:
 4904              	.L302:
 4905              	.LBE2741:
 4906              		.loc 4 473 0
 4907 008c 83BC000C 		lwz 29,12(28)
 4908              	.LVL311:
 4909              	.LBB2767:
 4910              	.LBB2742:
 4911              	.LBB2743:
 4912              	.LBB2744:
 4913              		.loc 11 1072 0
 4914 0090 2F9D0000 		cmpwi 7,29,0
 4915 0094 419E0050 		beq- 7,.L258
 4916              	.LVL312:
 4917              	.L303:
 4918              	.LBE2744:
 4919              		.loc 4 473 0
 4920 0098 83FD000C 		lwz 31,12(29)
 4921              	.LVL313:
 4922              	.LBB2760:
 4923              	.LBB2745:
 4924              	.LBB2746:
 4925              	.LBB2747:
 4926              		.loc 11 1072 0
 4927 009c 2F9F0000 		cmpwi 7,31,0
 4928 00a0 419E0028 		beq- 7,.L259
 4929              	.LVL314:
 4930              	.L304:
 4931              	.LBB2748:
 4932              		.loc 11 1074 0
 4933 00a4 809F000C 		lwz 4,12(31)
 4934 00a8 7FC3F378 		mr 3,30
 4935 00ac 48000001 		bl _ZNSt8_Rb_treeIPN7sigslot12_signal_baseINS0_15single_threadedEEES4_St9_IdentityIS4_ESt4lessIS4_
 4936              	.LBE2748:
 4937              	.LBE2747:
 4938              		.loc 4 473 0
 4939 00b0 82BF0008 		lwz 21,8(31)
 4940              	.LVL315:
 4941              	.LBB2754:
 4942              	.LBB2753:
 4943              	.LBB2749:
 4944              	.LBB2750:
 4945              	.LBB2751:
 4946              	.LBB2752:
 4947              		.loc 7 98 0
 4948 00b4 7FE3FB78 		mr 3,31
 4949 00b8 48000001 		bl _ZdlPv
 4950              	.LVL316:
 4951              	.LBE2752:
 4952              	.LBE2751:
 4953              	.LBE2750:
 4954              	.LBE2749:
 4955              	.LBE2753:
 4956              		.loc 11 1072 0
 4957 00bc 2F950000 		cmpwi 7,21,0
 4958              		.loc 11 1077 0
 4959 00c0 7EBFAB78 		mr 31,21
 4960              	.LVL317:
 4961              		.loc 11 1072 0
 4962 00c4 409EFFE0 		bne+ 7,.L304
 4963              	.LVL318:
 4964              	.L259:
 4965              	.LBE2754:
 4966              	.LBE2746:
 4967              	.LBE2745:
 4968              	.LBE2760:
 4969              		.loc 4 473 0
 4970 00c8 83FD0008 		lwz 31,8(29)
 4971              	.LVL319:
 4972              	.LBB2761:
 4973              	.LBB2759:
 4974              	.LBB2755:
 4975              	.LBB2756:
 4976              	.LBB2757:
 4977              	.LBB2758:
 4978              		.loc 7 98 0
 4979 00cc 7FA3EB78 		mr 3,29
 4980 00d0 48000001 		bl _ZdlPv
 4981              	.LVL320:
 4982              	.LBE2758:
 4983              	.LBE2757:
 4984              	.LBE2756:
 4985              	.LBE2755:
 4986              	.LBE2759:
 4987              		.loc 11 1072 0
 4988 00d4 2F9F0000 		cmpwi 7,31,0
 4989 00d8 419E000C 		beq- 7,.L258
 4990              		.loc 11 1077 0
 4991 00dc 7FFDFB78 		mr 29,31
 4992              	.LVL321:
 4993 00e0 4BFFFFB8 		b .L303
 4994              	.LVL322:
 4995              	.L258:
 4996              	.LBE2761:
 4997              	.LBE2743:
 4998              	.LBE2742:
 4999              	.LBE2767:
 5000              		.loc 4 473 0
 5001 00e4 83FC0008 		lwz 31,8(28)
 5002              	.LVL323:
 5003              	.LBB2768:
 5004              	.LBB2766:
 5005              	.LBB2762:
 5006              	.LBB2763:
 5007              	.LBB2764:
 5008              	.LBB2765:
 5009              		.loc 7 98 0
 5010 00e8 7F83E378 		mr 3,28
 5011 00ec 48000001 		bl _ZdlPv
 5012              	.LVL324:
 5013              	.LBE2765:
 5014              	.LBE2764:
 5015              	.LBE2763:
 5016              	.LBE2762:
 5017              	.LBE2766:
 5018              		.loc 11 1072 0
 5019 00f0 2F9F0000 		cmpwi 7,31,0
 5020 00f4 419E000C 		beq- 7,.L257
 5021              		.loc 11 1077 0
 5022 00f8 7FFCFB78 		mr 28,31
 5023              	.LVL325:
 5024 00fc 4BFFFF90 		b .L302
 5025              	.LVL326:
 5026              	.L257:
 5027              	.LBE2768:
 5028              	.LBE2740:
 5029              	.LBE2739:
 5030              	.LBE2774:
 5031              		.loc 4 473 0
 5032 0100 83F70008 		lwz 31,8(23)
 5033              	.LVL327:
 5034              	.LBB2775:
 5035              	.LBB2773:
 5036              	.LBB2769:
 5037              	.LBB2770:
 5038              	.LBB2771:
 5039              	.LBB2772:
 5040              		.loc 7 98 0
 5041 0104 7EE3BB78 		mr 3,23
 5042 0108 48000001 		bl _ZdlPv
 5043              	.LVL328:
 5044              	.LBE2772:
 5045              	.LBE2771:
 5046              	.LBE2770:
 5047              	.LBE2769:
 5048              	.LBE2773:
 5049              		.loc 11 1072 0
 5050 010c 2F9F0000 		cmpwi 7,31,0
 5051 0110 419E000C 		beq- 7,.L256
 5052              		.loc 11 1077 0
 5053 0114 7FF7FB78 		mr 23,31
 5054              	.LVL329:
 5055 0118 4BFFFF68 		b .L301
 5056              	.LVL330:
 5057              	.L256:
 5058              	.LBE2775:
 5059              	.LBE2737:
 5060              	.LBE2736:
 5061              	.LBE2781:
 5062              		.loc 4 473 0
 5063 011c 83F80008 		lwz 31,8(24)
 5064              	.LVL331:
 5065              	.LBB2782:
 5066              	.LBB2780:
 5067              	.LBB2776:
 5068              	.LBB2777:
 5069              	.LBB2778:
 5070              	.LBB2779:
 5071              		.loc 7 98 0
 5072 0120 7F03C378 		mr 3,24
 5073 0124 48000001 		bl _ZdlPv
 5074              	.LVL332:
 5075              	.LBE2779:
 5076              	.LBE2778:
 5077              	.LBE2777:
 5078              	.LBE2776:
 5079              	.LBE2780:
 5080              		.loc 11 1072 0
 5081 0128 2F9F0000 		cmpwi 7,31,0
 5082 012c 419E000C 		beq- 7,.L255
 5083              		.loc 11 1077 0
 5084 0130 7FF8FB78 		mr 24,31
 5085              	.LVL333:
 5086 0134 4BFFFF40 		b .L300
 5087              	.LVL334:
 5088              	.L255:
 5089              	.LBE2782:
 5090              	.LBE2734:
 5091              	.LBE2733:
 5092              	.LBE2788:
 5093              		.loc 4 473 0
 5094 0138 83F90008 		lwz 31,8(25)
 5095              	.LVL335:
 5096              	.LBB2789:
 5097              	.LBB2787:
 5098              	.LBB2783:
 5099              	.LBB2784:
 5100              	.LBB2785:
 5101              	.LBB2786:
 5102              		.loc 7 98 0
 5103 013c 7F23CB78 		mr 3,25
 5104 0140 48000001 		bl _ZdlPv
 5105              	.LVL336:
 5106              	.LBE2786:
 5107              	.LBE2785:
 5108              	.LBE2784:
 5109              	.LBE2783:
 5110              	.LBE2787:
 5111              		.loc 11 1072 0
 5112 0144 2F9F0000 		cmpwi 7,31,0
 5113 0148 419E000C 		beq- 7,.L254
 5114              		.loc 11 1077 0
 5115 014c 7FF9FB78 		mr 25,31
 5116              	.LVL337:
 5117 0150 4BFFFF18 		b .L299
 5118              	.LVL338:
 5119              	.L254:
 5120              	.LBE2789:
 5121              	.LBE2731:
 5122              	.LBE2730:
 5123              	.LBE2795:
 5124              		.loc 4 473 0
 5125 0154 83FA0008 		lwz 31,8(26)
 5126              	.LVL339:
 5127              	.LBB2796:
 5128              	.LBB2794:
 5129              	.LBB2790:
 5130              	.LBB2791:
 5131              	.LBB2792:
 5132              	.LBB2793:
 5133              		.loc 7 98 0
 5134 0158 7F43D378 		mr 3,26
 5135 015c 48000001 		bl _ZdlPv
 5136              	.LVL340:
 5137              	.LBE2793:
 5138              	.LBE2792:
 5139              	.LBE2791:
 5140              	.LBE2790:
 5141              	.LBE2794:
 5142              		.loc 11 1072 0
 5143 0160 2F9F0000 		cmpwi 7,31,0
 5144 0164 419E000C 		beq- 7,.L253
 5145              		.loc 11 1077 0
 5146 0168 7FFAFB78 		mr 26,31
 5147              	.LVL341:
 5148 016c 4BFFFEF0 		b .L298
 5149              	.LVL342:
 5150              	.L253:
 5151              	.LBE2796:
 5152              	.LBE2728:
 5153              	.LBE2727:
 5154              	.LBE2802:
 5155              		.loc 4 473 0
 5156 0170 83FB0008 		lwz 31,8(27)
 5157              	.LVL343:
 5158              	.LBB2803:
 5159              	.LBB2801:
 5160              	.LBB2797:
 5161              	.LBB2798:
 5162              	.LBB2799:
 5163              	.LBB2800:
 5164              		.loc 7 98 0
 5165 0174 7F63DB78 		mr 3,27
 5166 0178 48000001 		bl _ZdlPv
 5167              	.LVL344:
 5168              	.LBE2800:
 5169              	.LBE2799:
 5170              	.LBE2798:
 5171              	.LBE2797:
 5172              	.LBE2801:
 5173              		.loc 11 1072 0
 5174 017c 2F9F0000 		cmpwi 7,31,0
 5175 0180 419E000C 		beq- 7,.L252
 5176              		.loc 11 1077 0
 5177 0184 7FFBFB78 		mr 27,31
 5178              	.LVL345:
 5179 0188 4BFFFEC8 		b .L297
 5180              	.LVL346:
 5181              	.L252:
 5182              		.loc 4 473 0
 5183 018c 83F60008 		lwz 31,8(22)
 5184              	.LVL347:
 5185              	.LBE2803:
 5186              	.LBE2725:
 5187              	.LBB2804:
 5188              	.LBB2805:
 5189              	.LBB2806:
 5190              	.LBB2807:
 5191              		.loc 7 98 0
 5192 0190 7EC3B378 		mr 3,22
 5193 0194 48000001 		bl _ZdlPv
 5194              	.LVL348:
 5195              	.LBE2807:
 5196              	.LBE2806:
 5197              	.LBE2805:
 5198              	.LBE2804:
 5199              	.LBE2724:
 5200              		.loc 11 1072 0
 5201 0198 2F9F0000 		cmpwi 7,31,0
 5202 019c 419E000C 		beq- 7,.L250
 5203              		.loc 11 1077 0
 5204 01a0 7FF6FB78 		mr 22,31
 5205              	.LVL349:
 5206 01a4 4BFFFEA0 		b .L296
 5207              	.LVL350:
 5208              	.L250:
 5209              	.LBE2808:
 5210              		.loc 11 1079 0
 5211 01a8 8001003C 		lwz 0,60(1)
 5212 01ac 82A1000C 		lwz 21,12(1)
 5213 01b0 7C0803A6 		mtlr 0
 5214 01b4 82C10010 		lwz 22,16(1)
 5215 01b8 82E10014 		lwz 23,20(1)
 5216 01bc 83010018 		lwz 24,24(1)
 5217 01c0 8321001C 		lwz 25,28(1)
 5218 01c4 83410020 		lwz 26,32(1)
 5219 01c8 83610024 		lwz 27,36(1)
 5220 01cc 83810028 		lwz 28,40(1)
 5221 01d0 83A1002C 		lwz 29,44(1)
 5222 01d4 83C10030 		lwz 30,48(1)
 5223              	.LVL351:
 5224 01d8 83E10034 		lwz 31,52(1)
 5225 01dc 38210038 		addi 1,1,56
 5226              	.LCFI89:
 5227              		.cfi_def_cfa_offset 0
 5228              		.cfi_restore 31
 5229              		.cfi_restore 30
 5230              		.cfi_restore 29
 5231              		.cfi_restore 28
 5232              		.cfi_restore 27
 5233              		.cfi_restore 26
 5234              		.cfi_restore 25
 5235              		.cfi_restore 24
 5236              		.cfi_restore 23
 5237              		.cfi_restore 22
 5238              		.cfi_restore 21
 5239 01e0 4E800020 		blr
 5240              		.cfi_endproc
 5241              	.LFE1788:
 5242              		.size	_ZNSt8_Rb_treeIPN7sigslot12_signal_baseINS0_15single_threadedEEES4_St9_IdentityIS4_ESt4lessI
 5243              		.section	.text._ZN7sigslot9has_slotsINS_15single_threadedEED2Ev,"axG",@progbits,_ZN7sigslot9has_sl
 5244              		.align 2
 5245              		.weak	_ZN7sigslot9has_slotsINS_15single_threadedEED2Ev
 5246              		.type	_ZN7sigslot9has_slotsINS_15single_threadedEED2Ev, @function
 5247              	_ZN7sigslot9has_slotsINS_15single_threadedEED2Ev:
 5248              	.LFB1663:
 5249              		.loc 1 513 0
 5250              		.cfi_startproc
 5251              		.cfi_personality 0,__gxx_personality_v0
 5252              		.cfi_lsda 0,.LLSDA1663
 5253              	.LVL352:
 5254 0000 7C0802A6 		mflr 0
 5255 0004 9421FFE0 		stwu 1,-32(1)
 5256              	.LCFI90:
 5257              		.cfi_def_cfa_offset 32
 5258              		.cfi_register 65, 0
 5259              	.LBB2955:
 5260              		.loc 1 516 0
 5261 0008 3D200000 		lis 9,_ZTVN7sigslot9has_slotsINS_15single_threadedEEE+8@ha
 5262              	.LBE2955:
 5263              		.loc 1 513 0
 5264 000c 93810010 		stw 28,16(1)
 5265 0010 3B830004 		addi 28,3,4
 5266              		.cfi_offset 28, -16
 5267 0014 90010024 		stw 0,36(1)
 5268              	.LBB3031:
 5269              		.loc 1 516 0
 5270 0018 38090008 		la 0,_ZTVN7sigslot9has_slotsINS_15single_threadedEEE+8@l(9)
 5271              		.cfi_offset 65, 4
 5272              	.LBE3031:
 5273              		.loc 1 513 0
 5274 001c 93A10014 		stw 29,20(1)
 5275 0020 7C7D1B78 		mr 29,3
 5276              		.cfi_offset 29, -12
 5277 0024 93410008 		stw 26,8(1)
 5278 0028 9361000C 		stw 27,12(1)
 5279 002c 93C10018 		stw 30,24(1)
 5280 0030 93E1001C 		stw 31,28(1)
 5281              	.LBB3032:
 5282              		.loc 1 516 0
 5283 0034 90030000 		stw 0,0(3)
 5284              	.LVL353:
 5285              	.LEHB18:
 5286              	.LBB2956:
 5287              	.LBB2957:
 5288              	.LBB2958:
 5289              	.LBB2959:
 5290              		.loc 1 338 0
 5291              		.cfi_offset 31, -4
 5292              		.cfi_offset 30, -8
 5293              		.cfi_offset 27, -20
 5294              		.cfi_offset 26, -24
 5295 0038 48000001 		bl _ZN7sigslot15single_threaded4lockEv
 5296              	.LEHE18:
 5297              	.LVL354:
 5298              	.LBE2959:
 5299              	.LBE2958:
 5300              	.LBB2960:
 5301              		.loc 4 473 0
 5302 003c 83FD0010 		lwz 31,16(29)
 5303              	.LVL355:
 5304              	.LBE2960:
 5305              	.LBB2961:
 5306              	.LBB2962:
 5307              	.LBB2963:
 5308              		.loc 11 671 0
 5309 0040 3BDC0004 		addi 30,28,4
 5310              	.LVL356:
 5311              	.LBE2963:
 5312              	.LBE2962:
 5313              	.LBE2961:
 5314              		.loc 1 524 0
 5315 0044 7F9FF000 		cmpw 7,31,30
 5316 0048 419E0034 		beq- 7,.L306
 5317              	.LVL357:
 5318              	.L333:
 5319              		.loc 1 526 0
 5320 004c 807F0010 		lwz 3,16(31)
 5321 0050 7FA4EB78 		mr 4,29
 5322 0054 81230000 		lwz 9,0(3)
 5323 0058 80090010 		lwz 0,16(9)
 5324 005c 7C0903A6 		mtctr 0
 5325              	.LEHB19:
 5326 0060 4E800421 		bctrl
 5327              	.LEHE19:
 5328              	.LVL358:
 5329              	.LBB2964:
 5330              	.LBB2965:
 5331              		.loc 11 269 0
 5332 0064 7FE3FB78 		mr 3,31
 5333 0068 48000001 		bl _ZSt18_Rb_tree_incrementPKSt18_Rb_tree_node_base
 5334              	.LBE2965:
 5335              	.LBE2964:
 5336              		.loc 1 524 0
 5337 006c 7F9E1800 		cmpw 7,30,3
 5338              	.LBB2967:
 5339              	.LBB2966:
 5340              		.loc 11 269 0
 5341 0070 7C7F1B78 		mr 31,3
 5342              	.LVL359:
 5343              	.LBE2966:
 5344              	.LBE2967:
 5345              		.loc 1 524 0
 5346 0074 409EFFD8 		bne+ 7,.L333
 5347 0078 83FD0010 		lwz 31,16(29)
 5348              	.LVL360:
 5349              	.L306:
 5350              	.LBB2968:
 5351              	.LBB2969:
 5352              	.LBB2970:
 5353              	.LBB2971:
 5354              	.LBB2972:
 5355              	.LBB2973:
 5356              	.LBB2974:
 5357              		.loc 11 665 0
 5358 007c 3B5C0004 		addi 26,28,4
 5359              	.LBE2974:
 5360              	.LBE2973:
 5361              		.loc 11 1500 0
 5362 0080 7F9ED000 		cmpw 7,30,26
 5363 0084 419E0098 		beq- 7,.L308
 5364              	.LVL361:
 5365              		.loc 11 1503 0
 5366 0088 7F9EF800 		cmpw 7,30,31
 5367 008c 40BE000C 		bne+ 7,.L335
 5368 0090 48000038 		b .L309
 5369              	.LVL362:
 5370              	.L330:
 5371              		.loc 11 277 0
 5372 0094 7F7FDB78 		mr 31,27
 5373              	.LVL363:
 5374              	.L335:
 5375              	.LBB2975:
 5376              	.LBB2976:
 5377 0098 7FE3FB78 		mr 3,31
 5378 009c 48000001 		bl _ZSt18_Rb_tree_incrementPKSt18_Rb_tree_node_base
 5379              	.LBE2976:
 5380              	.LBE2975:
 5381              	.LBB2978:
 5382              	.LBB2979:
 5383              	.LBB2980:
 5384              		.loc 11 1489 0
 5385 00a0 7F44D378 		mr 4,26
 5386              	.LBE2980:
 5387              	.LBE2979:
 5388              	.LBE2978:
 5389              	.LBB2989:
 5390              	.LBB2977:
 5391              		.loc 11 277 0
 5392 00a4 7C7B1B78 		mr 27,3
 5393              	.LVL364:
 5394              	.LBE2977:
 5395              	.LBE2989:
 5396              	.LBB2990:
 5397              	.LBB2987:
 5398              	.LBB2985:
 5399              		.loc 11 1489 0
 5400 00a8 7FE3FB78 		mr 3,31
 5401              	.LVL365:
 5402 00ac 48000001 		bl _ZSt28_Rb_tree_rebalance_for_erasePSt18_Rb_tree_node_baseRS_
 5403              	.LBB2981:
 5404              	.LBB2982:
 5405              	.LBB2983:
 5406              	.LBB2984:
 5407              		.loc 7 98 0
 5408 00b0 48000001 		bl _ZdlPv
 5409              	.LBE2984:
 5410              	.LBE2983:
 5411              	.LBE2982:
 5412              	.LBE2981:
 5413              	.LBE2985:
 5414              	.LBE2987:
 5415              	.LBE2990:
 5416              		.loc 11 1503 0
 5417 00b4 7F9ED800 		cmpw 7,30,27
 5418              	.LBB2991:
 5419              	.LBB2988:
 5420              	.LBB2986:
 5421              		.loc 11 1491 0
 5422 00b8 813C0014 		lwz 9,20(28)
 5423 00bc 3809FFFF 		addi 0,9,-1
 5424 00c0 901C0014 		stw 0,20(28)
 5425              	.LBE2986:
 5426              	.LBE2988:
 5427              	.LBE2991:
 5428              		.loc 11 1503 0
 5429 00c4 409EFFD0 		bne+ 7,.L330
 5430              	.LVL366:
 5431              	.L309:
 5432              	.LBE2972:
 5433              	.LBE2971:
 5434              	.LBE2970:
 5435              	.LBE2969:
 5436              	.LBE2968:
 5437              	.LBB3000:
 5438              	.LBB3001:
 5439              	.LBB3002:
 5440              		.loc 1 343 0
 5441 00c8 813D0000 		lwz 9,0(29)
 5442 00cc 7FA3EB78 		mr 3,29
 5443 00d0 8009000C 		lwz 0,12(9)
 5444 00d4 7C0903A6 		mtctr 0
 5445              	.LEHB20:
 5446 00d8 4E800421 		bctrl
 5447              	.LEHE20:
 5448              	.LVL367:
 5449              	.LBE3002:
 5450              	.LBE3001:
 5451              	.LBE3000:
 5452              	.LBE2957:
 5453              	.LBE2956:
 5454              	.LBB3009:
 5455              	.LBB3010:
 5456              	.LBB3011:
 5457              	.LBB3012:
 5458              	.LBB3013:
 5459              		.loc 11 639 0
 5460 00dc 809D000C 		lwz 4,12(29)
 5461 00e0 7F83E378 		mr 3,28
 5462 00e4 48000001 		bl _ZNSt8_Rb_treeIPN7sigslot12_signal_baseINS0_15single_threadedEEES4_St9_IdentityIS4_ESt4lessIS4_
 5463              	.LVL368:
 5464              	.LBE3013:
 5465              	.LBE3012:
 5466              	.LBE3011:
 5467              	.LBE3010:
 5468              	.LBE3009:
 5469              	.LBB3014:
 5470              	.LBB3015:
 5471              	.LBB3016:
 5472              		.loc 1 105 0
 5473 00e8 3D200000 		lis 9,_ZTVN7sigslot15single_threadedE+8@ha
 5474 00ec 38090008 		la 0,_ZTVN7sigslot15single_threadedE+8@l(9)
 5475              	.LBE3016:
 5476              	.LBE3015:
 5477              	.LBE3014:
 5478              	.LBE3032:
 5479              		.loc 1 516 0
 5480 00f0 83410008 		lwz 26,8(1)
 5481              	.LBB3033:
 5482              	.LBB3019:
 5483              	.LBB3018:
 5484              	.LBB3017:
 5485              		.loc 1 105 0
 5486 00f4 901D0000 		stw 0,0(29)
 5487              	.LBE3017:
 5488              	.LBE3018:
 5489              	.LBE3019:
 5490              	.LBE3033:
 5491              		.loc 1 516 0
 5492 00f8 80010024 		lwz 0,36(1)
 5493 00fc 8361000C 		lwz 27,12(1)
 5494 0100 7C0803A6 		mtlr 0
 5495 0104 83810010 		lwz 28,16(1)
 5496              	.LVL369:
 5497 0108 83A10014 		lwz 29,20(1)
 5498              	.LVL370:
 5499 010c 83C10018 		lwz 30,24(1)
 5500              	.LVL371:
 5501 0110 83E1001C 		lwz 31,28(1)
 5502 0114 38210020 		addi 1,1,32
 5503              		.cfi_remember_state
 5504              	.LCFI91:
 5505              		.cfi_def_cfa_offset 0
 5506              		.cfi_restore 31
 5507              		.cfi_restore 30
 5508              		.cfi_restore 29
 5509              		.cfi_restore 28
 5510              		.cfi_restore 27
 5511              		.cfi_restore 26
 5512 0118 4E800020 		blr
 5513              	.LVL372:
 5514              	.L308:
 5515              	.LCFI92:
 5516              		.cfi_restore_state
 5517              	.LBB3034:
 5518              	.LBB3020:
 5519              	.LBB3007:
 5520              	.LBB3003:
 5521              	.LBB2999:
 5522              	.LBB2998:
 5523              	.LBB2997:
 5524              	.LBB2996:
 5525              	.LBB2992:
 5526              	.LBB2993:
 5527              	.LBB2994:
 5528              	.LBB2995:
 5529              		.loc 11 809 0
 5530 011c 809D000C 		lwz 4,12(29)
 5531 0120 7F83E378 		mr 3,28
 5532 0124 48000001 		bl _ZNSt8_Rb_treeIPN7sigslot12_signal_baseINS0_15single_threadedEEES4_St9_IdentityIS4_ESt4lessIS4_
 5533              	.LVL373:
 5534              		.loc 11 811 0
 5535 0128 38000000 		li 0,0
 5536              		.loc 11 810 0
 5537 012c 93DD0010 		stw 30,16(29)
 5538              	.LVL374:
 5539              		.loc 11 811 0
 5540 0130 901D000C 		stw 0,12(29)
 5541              	.LVL375:
 5542              		.loc 11 812 0
 5543 0134 93DD0014 		stw 30,20(29)
 5544              		.loc 11 813 0
 5545 0138 901D0018 		stw 0,24(29)
 5546 013c 4BFFFF8C 		b .L309
 5547              	.LVL376:
 5548              	.L331:
 5549 0140 7C7F1B78 		mr 31,3
 5550              	.L316:
 5551              	.LVL377:
 5552              	.LBE2995:
 5553              	.LBE2994:
 5554              	.LBE2993:
 5555              	.LBE2992:
 5556              	.LBE2996:
 5557              	.LBE2997:
 5558              	.LBE2998:
 5559              	.LBE2999:
 5560              	.LBE3003:
 5561              	.LBE3007:
 5562              	.LBE3020:
 5563              	.LBB3021:
 5564              	.LBB3022:
 5565              	.LBB3023:
 5566              	.LBB3024:
 5567              	.LBB3025:
 5568              	.LBB3026:
 5569              		.loc 11 639 0
 5570 0144 809D000C 		lwz 4,12(29)
 5571 0148 7F83E378 		mr 3,28
 5572 014c 48000001 		bl _ZNSt8_Rb_treeIPN7sigslot12_signal_baseINS0_15single_threadedEEES4_St9_IdentityIS4_ESt4lessIS4_
 5573              	.LVL378:
 5574              	.LBE3026:
 5575              	.LBE3025:
 5576              	.LBE3024:
 5577              	.LBE3023:
 5578              	.LBE3022:
 5579              	.LBE3021:
 5580              	.LBB3027:
 5581              	.LBB3028:
 5582              	.LBB3029:
 5583              		.loc 1 105 0
 5584 0150 3D200000 		lis 9,_ZTVN7sigslot15single_threadedE+8@ha
 5585 0154 38090008 		la 0,_ZTVN7sigslot15single_threadedE+8@l(9)
 5586 0158 7FE3FB78 		mr 3,31
 5587 015c 901D0000 		stw 0,0(29)
 5588              	.LEHB21:
 5589 0160 48000001 		bl _Unwind_Resume
 5590              	.LEHE21:
 5591              	.LVL379:
 5592              	.L332:
 5593              	.LBE3029:
 5594              	.LBE3028:
 5595              	.LBE3027:
 5596              	.LBB3030:
 5597              	.LBB3008:
 5598              	.LBB3004:
 5599              	.LBB3005:
 5600              	.LBB3006:
 5601              		.loc 1 343 0
 5602 0164 813D0000 		lwz 9,0(29)
 5603 0168 7C7F1B78 		mr 31,3
 5604              	.LVL380:
 5605 016c 7FA3EB78 		mr 3,29
 5606 0170 8009000C 		lwz 0,12(9)
 5607 0174 7C0903A6 		mtctr 0
 5608 0178 4E800421 		bctrl
 5609 017c 4BFFFFC8 		b .L316
 5610              	.LBE3006:
 5611              	.LBE3005:
 5612              	.LBE3004:
 5613              	.LBE3008:
 5614              	.LBE3030:
 5615              	.LBE3034:
 5616              		.cfi_endproc
 5617              	.LFE1663:
 5618              		.section	.gcc_except_table
 5619              	.LLSDA1663:
 5620 0073 FF       		.byte	0xff
 5621 0074 FF       		.byte	0xff
 5622 0075 01       		.byte	0x1
 5623 0076 15       		.uleb128 .LLSDACSE1663-.LLSDACSB1663
 5624              	.LLSDACSB1663:
 5625 0077 38       		.uleb128 .LEHB18-.LFB1663
 5626 0078 04       		.uleb128 .LEHE18-.LEHB18
 5627 0079 C002     		.uleb128 .L331-.LFB1663
 5628 007b 00       		.uleb128 0
 5629 007c 60       		.uleb128 .LEHB19-.LFB1663
 5630 007d 04       		.uleb128 .LEHE19-.LEHB19
 5631 007e E402     		.uleb128 .L332-.LFB1663
 5632 0080 00       		.uleb128 0
 5633 0081 D801     		.uleb128 .LEHB20-.LFB1663
 5634 0083 04       		.uleb128 .LEHE20-.LEHB20
 5635 0084 C002     		.uleb128 .L331-.LFB1663
 5636 0086 00       		.uleb128 0
 5637 0087 E002     		.uleb128 .LEHB21-.LFB1663
 5638 0089 04       		.uleb128 .LEHE21-.LEHB21
 5639 008a 00       		.uleb128 0
 5640 008b 00       		.uleb128 0
 5641              	.LLSDACSE1663:
 5642              		.section	.text._ZN7sigslot9has_slotsINS_15single_threadedEED2Ev,"axG",@progbits,_ZN7sigslot9has_sl
 5643              		.size	_ZN7sigslot9has_slotsINS_15single_threadedEED2Ev, .-_ZN7sigslot9has_slotsINS_15single_thread
 5644              		.section	.text._ZN7sigslot9has_slotsINS_15single_threadedEED0Ev,"axG",@progbits,_ZN7sigslot9has_sl
 5645              		.align 2
 5646              		.weak	_ZN7sigslot9has_slotsINS_15single_threadedEED0Ev
 5647              		.type	_ZN7sigslot9has_slotsINS_15single_threadedEED0Ev, @function
 5648              	_ZN7sigslot9has_slotsINS_15single_threadedEED0Ev:
 5649              	.LFB1665:
 5650              		.loc 1 513 0
 5651              		.cfi_startproc
 5652              		.cfi_personality 0,__gxx_personality_v0
 5653              		.cfi_lsda 0,.LLSDA1665
 5654              	.LVL381:
 5655 0000 7C0802A6 		mflr 0
 5656 0004 9421FFE0 		stwu 1,-32(1)
 5657              	.LCFI93:
 5658              		.cfi_def_cfa_offset 32
 5659              		.cfi_register 65, 0
 5660              	.LBB3128:
 5661              	.LBB3129:
 5662              	.LBB3130:
 5663              		.loc 1 516 0
 5664 0008 3D200000 		lis 9,_ZTVN7sigslot9has_slotsINS_15single_threadedEEE+8@ha
 5665              	.LBE3130:
 5666              	.LBE3129:
 5667              	.LBE3128:
 5668              		.loc 1 513 0
 5669 000c 93810010 		stw 28,16(1)
 5670 0010 3B830004 		addi 28,3,4
 5671              		.cfi_offset 28, -16
 5672 0014 90010024 		stw 0,36(1)
 5673              	.LBB3214:
 5674              	.LBB3210:
 5675              	.LBB3206:
 5676              		.loc 1 516 0
 5677 0018 38090008 		la 0,_ZTVN7sigslot9has_slotsINS_15single_threadedEEE+8@l(9)
 5678              		.cfi_offset 65, 4
 5679              	.LBE3206:
 5680              	.LBE3210:
 5681              	.LBE3214:
 5682              		.loc 1 513 0
 5683 001c 93A10014 		stw 29,20(1)
 5684 0020 7C7D1B78 		mr 29,3
 5685              		.cfi_offset 29, -12
 5686              	.LVL382:
 5687 0024 93410008 		stw 26,8(1)
 5688 0028 9361000C 		stw 27,12(1)
 5689 002c 93C10018 		stw 30,24(1)
 5690 0030 93E1001C 		stw 31,28(1)
 5691              	.LBB3215:
 5692              	.LBB3211:
 5693              	.LBB3207:
 5694              		.loc 1 516 0
 5695 0034 90030000 		stw 0,0(3)
 5696              	.LVL383:
 5697              	.LEHB22:
 5698              	.LBB3131:
 5699              	.LBB3132:
 5700              	.LBB3133:
 5701              	.LBB3134:
 5702              		.loc 1 338 0
 5703              		.cfi_offset 31, -4
 5704              		.cfi_offset 30, -8
 5705              		.cfi_offset 27, -20
 5706              		.cfi_offset 26, -24
 5707 0038 48000001 		bl _ZN7sigslot15single_threaded4lockEv
 5708              	.LEHE22:
 5709              	.LVL384:
 5710              	.LBE3134:
 5711              	.LBE3133:
 5712              	.LBB3135:
 5713              		.loc 4 473 0
 5714 003c 83FD0010 		lwz 31,16(29)
 5715              	.LVL385:
 5716              	.LBE3135:
 5717              	.LBB3136:
 5718              	.LBB3137:
 5719              	.LBB3138:
 5720              		.loc 11 671 0
 5721 0040 3BDC0004 		addi 30,28,4
 5722              	.LVL386:
 5723              	.LBE3138:
 5724              	.LBE3137:
 5725              	.LBE3136:
 5726              		.loc 1 524 0
 5727 0044 7F9FF000 		cmpw 7,31,30
 5728 0048 419E0034 		beq- 7,.L338
 5729              	.LVL387:
 5730              	.L366:
 5731              		.loc 1 526 0
 5732 004c 807F0010 		lwz 3,16(31)
 5733 0050 7FA4EB78 		mr 4,29
 5734 0054 81230000 		lwz 9,0(3)
 5735 0058 80090010 		lwz 0,16(9)
 5736 005c 7C0903A6 		mtctr 0
 5737              	.LEHB23:
 5738 0060 4E800421 		bctrl
 5739              	.LEHE23:
 5740              	.LVL388:
 5741              	.LBB3139:
 5742              	.LBB3140:
 5743              		.loc 11 269 0
 5744 0064 7FE3FB78 		mr 3,31
 5745 0068 48000001 		bl _ZSt18_Rb_tree_incrementPKSt18_Rb_tree_node_base
 5746              	.LBE3140:
 5747              	.LBE3139:
 5748              		.loc 1 524 0
 5749 006c 7F9E1800 		cmpw 7,30,3
 5750              	.LBB3142:
 5751              	.LBB3141:
 5752              		.loc 11 269 0
 5753 0070 7C7F1B78 		mr 31,3
 5754              	.LVL389:
 5755              	.LBE3141:
 5756              	.LBE3142:
 5757              		.loc 1 524 0
 5758 0074 409EFFD8 		bne+ 7,.L366
 5759 0078 83FD0010 		lwz 31,16(29)
 5760              	.LVL390:
 5761              	.L338:
 5762              	.LBB3143:
 5763              	.LBB3144:
 5764              	.LBB3145:
 5765              	.LBB3146:
 5766              	.LBB3147:
 5767              	.LBB3148:
 5768              	.LBB3149:
 5769              		.loc 11 665 0
 5770 007c 3B5C0004 		addi 26,28,4
 5771              	.LBE3149:
 5772              	.LBE3148:
 5773              		.loc 11 1500 0
 5774 0080 7F9ED000 		cmpw 7,30,26
 5775 0084 419E00A0 		beq- 7,.L340
 5776              	.LVL391:
 5777              		.loc 11 1503 0
 5778 0088 7F9EF800 		cmpw 7,30,31
 5779 008c 40BE000C 		bne+ 7,.L368
 5780 0090 48000038 		b .L341
 5781              	.LVL392:
 5782              	.L363:
 5783              		.loc 11 277 0
 5784 0094 7F7FDB78 		mr 31,27
 5785              	.LVL393:
 5786              	.L368:
 5787              	.LBB3150:
 5788              	.LBB3151:
 5789 0098 7FE3FB78 		mr 3,31
 5790 009c 48000001 		bl _ZSt18_Rb_tree_incrementPKSt18_Rb_tree_node_base
 5791              	.LBE3151:
 5792              	.LBE3150:
 5793              	.LBB3153:
 5794              	.LBB3154:
 5795              	.LBB3155:
 5796              		.loc 11 1489 0
 5797 00a0 7F44D378 		mr 4,26
 5798              	.LBE3155:
 5799              	.LBE3154:
 5800              	.LBE3153:
 5801              	.LBB3164:
 5802              	.LBB3152:
 5803              		.loc 11 277 0
 5804 00a4 7C7B1B78 		mr 27,3
 5805              	.LVL394:
 5806              	.LBE3152:
 5807              	.LBE3164:
 5808              	.LBB3165:
 5809              	.LBB3162:
 5810              	.LBB3160:
 5811              		.loc 11 1489 0
 5812 00a8 7FE3FB78 		mr 3,31
 5813              	.LVL395:
 5814 00ac 48000001 		bl _ZSt28_Rb_tree_rebalance_for_erasePSt18_Rb_tree_node_baseRS_
 5815              	.LBB3156:
 5816              	.LBB3157:
 5817              	.LBB3158:
 5818              	.LBB3159:
 5819              		.loc 7 98 0
 5820 00b0 48000001 		bl _ZdlPv
 5821              	.LBE3159:
 5822              	.LBE3158:
 5823              	.LBE3157:
 5824              	.LBE3156:
 5825              	.LBE3160:
 5826              	.LBE3162:
 5827              	.LBE3165:
 5828              		.loc 11 1503 0
 5829 00b4 7F9ED800 		cmpw 7,30,27
 5830              	.LBB3166:
 5831              	.LBB3163:
 5832              	.LBB3161:
 5833              		.loc 11 1491 0
 5834 00b8 813C0014 		lwz 9,20(28)
 5835 00bc 3809FFFF 		addi 0,9,-1
 5836 00c0 901C0014 		stw 0,20(28)
 5837              	.LBE3161:
 5838              	.LBE3163:
 5839              	.LBE3166:
 5840              		.loc 11 1503 0
 5841 00c4 409EFFD0 		bne+ 7,.L363
 5842              	.LVL396:
 5843              	.L341:
 5844              	.LBE3147:
 5845              	.LBE3146:
 5846              	.LBE3145:
 5847              	.LBE3144:
 5848              	.LBE3143:
 5849              	.LBB3175:
 5850              	.LBB3176:
 5851              	.LBB3177:
 5852              		.loc 1 343 0
 5853 00c8 813D0000 		lwz 9,0(29)
 5854 00cc 7FA3EB78 		mr 3,29
 5855 00d0 8009000C 		lwz 0,12(9)
 5856 00d4 7C0903A6 		mtctr 0
 5857              	.LEHB24:
 5858 00d8 4E800421 		bctrl
 5859              	.LEHE24:
 5860              	.LVL397:
 5861              	.LBE3177:
 5862              	.LBE3176:
 5863              	.LBE3175:
 5864              	.LBE3132:
 5865              	.LBE3131:
 5866              	.LBB3184:
 5867              	.LBB3185:
 5868              	.LBB3186:
 5869              	.LBB3187:
 5870              	.LBB3188:
 5871              		.loc 11 639 0
 5872 00dc 809D000C 		lwz 4,12(29)
 5873 00e0 7F83E378 		mr 3,28
 5874 00e4 48000001 		bl _ZNSt8_Rb_treeIPN7sigslot12_signal_baseINS0_15single_threadedEEES4_St9_IdentityIS4_ESt4lessIS4_
 5875              	.LVL398:
 5876              	.LBE3188:
 5877              	.LBE3187:
 5878              	.LBE3186:
 5879              	.LBE3185:
 5880              	.LBE3184:
 5881              	.LBB3189:
 5882              	.LBB3190:
 5883              	.LBB3191:
 5884              		.loc 1 105 0
 5885 00e8 3D200000 		lis 9,_ZTVN7sigslot15single_threadedE+8@ha
 5886 00ec 38090008 		la 0,_ZTVN7sigslot15single_threadedE+8@l(9)
 5887              	.LBE3191:
 5888              	.LBE3190:
 5889              	.LBE3189:
 5890              	.LBE3207:
 5891              	.LBE3211:
 5892              	.LBE3215:
 5893              		.loc 1 516 0
 5894 00f0 7FA3EB78 		mr 3,29
 5895              	.LBB3216:
 5896              	.LBB3212:
 5897              	.LBB3208:
 5898              	.LBB3194:
 5899              	.LBB3193:
 5900              	.LBB3192:
 5901              		.loc 1 105 0
 5902 00f4 901D0000 		stw 0,0(29)
 5903              	.LBE3192:
 5904              	.LBE3193:
 5905              	.LBE3194:
 5906              	.LBE3208:
 5907              	.LBE3212:
 5908              	.LBE3216:
 5909              		.loc 1 516 0
 5910 00f8 48000001 		bl _ZdlPv
 5911 00fc 80010024 		lwz 0,36(1)
 5912 0100 83410008 		lwz 26,8(1)
 5913 0104 7C0803A6 		mtlr 0
 5914 0108 8361000C 		lwz 27,12(1)
 5915 010c 83810010 		lwz 28,16(1)
 5916              	.LVL399:
 5917 0110 83A10014 		lwz 29,20(1)
 5918              	.LVL400:
 5919 0114 83C10018 		lwz 30,24(1)
 5920              	.LVL401:
 5921 0118 83E1001C 		lwz 31,28(1)
 5922 011c 38210020 		addi 1,1,32
 5923              		.cfi_remember_state
 5924              	.LCFI94:
 5925              		.cfi_def_cfa_offset 0
 5926              		.cfi_restore 31
 5927              		.cfi_restore 30
 5928              		.cfi_restore 29
 5929              		.cfi_restore 28
 5930              		.cfi_restore 27
 5931              		.cfi_restore 26
 5932 0120 4E800020 		blr
 5933              	.LVL402:
 5934              	.L340:
 5935              	.LCFI95:
 5936              		.cfi_restore_state
 5937              	.LBB3217:
 5938              	.LBB3213:
 5939              	.LBB3209:
 5940              	.LBB3195:
 5941              	.LBB3182:
 5942              	.LBB3178:
 5943              	.LBB3174:
 5944              	.LBB3173:
 5945              	.LBB3172:
 5946              	.LBB3171:
 5947              	.LBB3167:
 5948              	.LBB3168:
 5949              	.LBB3169:
 5950              	.LBB3170:
 5951              		.loc 11 809 0
 5952 0124 809D000C 		lwz 4,12(29)
 5953 0128 7F83E378 		mr 3,28
 5954 012c 48000001 		bl _ZNSt8_Rb_treeIPN7sigslot12_signal_baseINS0_15single_threadedEEES4_St9_IdentityIS4_ESt4lessIS4_
 5955              	.LVL403:
 5956              		.loc 11 811 0
 5957 0130 38000000 		li 0,0
 5958              		.loc 11 810 0
 5959 0134 93DD0010 		stw 30,16(29)
 5960              	.LVL404:
 5961              		.loc 11 811 0
 5962 0138 901D000C 		stw 0,12(29)
 5963              	.LVL405:
 5964              		.loc 11 812 0
 5965 013c 93DD0014 		stw 30,20(29)
 5966              		.loc 11 813 0
 5967 0140 901D0018 		stw 0,24(29)
 5968 0144 4BFFFF84 		b .L341
 5969              	.LVL406:
 5970              	.L364:
 5971 0148 7C7F1B78 		mr 31,3
 5972              	.L348:
 5973              	.LVL407:
 5974              	.LBE3170:
 5975              	.LBE3169:
 5976              	.LBE3168:
 5977              	.LBE3167:
 5978              	.LBE3171:
 5979              	.LBE3172:
 5980              	.LBE3173:
 5981              	.LBE3174:
 5982              	.LBE3178:
 5983              	.LBE3182:
 5984              	.LBE3195:
 5985              	.LBB3196:
 5986              	.LBB3197:
 5987              	.LBB3198:
 5988              	.LBB3199:
 5989              	.LBB3200:
 5990              	.LBB3201:
 5991              		.loc 11 639 0
 5992 014c 809D000C 		lwz 4,12(29)
 5993 0150 7F83E378 		mr 3,28
 5994 0154 48000001 		bl _ZNSt8_Rb_treeIPN7sigslot12_signal_baseINS0_15single_threadedEEES4_St9_IdentityIS4_ESt4lessIS4_
 5995              	.LVL408:
 5996              	.LBE3201:
 5997              	.LBE3200:
 5998              	.LBE3199:
 5999              	.LBE3198:
 6000              	.LBE3197:
 6001              	.LBE3196:
 6002              	.LBB3202:
 6003              	.LBB3203:
 6004              	.LBB3204:
 6005              		.loc 1 105 0
 6006 0158 3D200000 		lis 9,_ZTVN7sigslot15single_threadedE+8@ha
 6007 015c 38090008 		la 0,_ZTVN7sigslot15single_threadedE+8@l(9)
 6008 0160 7FE3FB78 		mr 3,31
 6009 0164 901D0000 		stw 0,0(29)
 6010              	.LEHB25:
 6011 0168 48000001 		bl _Unwind_Resume
 6012              	.LEHE25:
 6013              	.LVL409:
 6014              	.L365:
 6015              	.LBE3204:
 6016              	.LBE3203:
 6017              	.LBE3202:
 6018              	.LBB3205:
 6019              	.LBB3183:
 6020              	.LBB3179:
 6021              	.LBB3180:
 6022              	.LBB3181:
 6023              		.loc 1 343 0
 6024 016c 813D0000 		lwz 9,0(29)
 6025 0170 7C7F1B78 		mr 31,3
 6026              	.LVL410:
 6027 0174 7FA3EB78 		mr 3,29
 6028 0178 8009000C 		lwz 0,12(9)
 6029 017c 7C0903A6 		mtctr 0
 6030 0180 4E800421 		bctrl
 6031 0184 4BFFFFC8 		b .L348
 6032              	.LBE3181:
 6033              	.LBE3180:
 6034              	.LBE3179:
 6035              	.LBE3183:
 6036              	.LBE3205:
 6037              	.LBE3209:
 6038              	.LBE3213:
 6039              	.LBE3217:
 6040              		.cfi_endproc
 6041              	.LFE1665:
 6042              		.section	.gcc_except_table
 6043              	.LLSDA1665:
 6044 008c FF       		.byte	0xff
 6045 008d FF       		.byte	0xff
 6046 008e 01       		.byte	0x1
 6047 008f 15       		.uleb128 .LLSDACSE1665-.LLSDACSB1665
 6048              	.LLSDACSB1665:
 6049 0090 38       		.uleb128 .LEHB22-.LFB1665
 6050 0091 04       		.uleb128 .LEHE22-.LEHB22
 6051 0092 C802     		.uleb128 .L364-.LFB1665
 6052 0094 00       		.uleb128 0
 6053 0095 60       		.uleb128 .LEHB23-.LFB1665
 6054 0096 04       		.uleb128 .LEHE23-.LEHB23
 6055 0097 EC02     		.uleb128 .L365-.LFB1665
 6056 0099 00       		.uleb128 0
 6057 009a D801     		.uleb128 .LEHB24-.LFB1665
 6058 009c 04       		.uleb128 .LEHE24-.LEHB24
 6059 009d C802     		.uleb128 .L364-.LFB1665
 6060 009f 00       		.uleb128 0
 6061 00a0 E802     		.uleb128 .LEHB25-.LFB1665
 6062 00a2 04       		.uleb128 .LEHE25-.LEHB25
 6063 00a3 00       		.uleb128 0
 6064 00a4 00       		.uleb128 0
 6065              	.LLSDACSE1665:
 6066              		.section	.text._ZN7sigslot9has_slotsINS_15single_threadedEED0Ev,"axG",@progbits,_ZN7sigslot9has_sl
 6067              		.size	_ZN7sigslot9has_slotsINS_15single_threadedEED0Ev, .-_ZN7sigslot9has_slotsINS_15single_thread
 6068              		.section	".text"
 6069              		.align 2
 6070              		.globl _ZThn176_N8HomeMenuD1Ev
 6071              		.type	_ZThn176_N8HomeMenuD1Ev, @function
 6072              	_ZThn176_N8HomeMenuD1Ev:
 6073              	.LFB2215:
 6074              		.cfi_startproc
 6075 135c 3863FF50 		addi 3,3,-176
 6076 1360 48000004 		b .LTHUNK0
 6077              		.cfi_endproc
 6078              	.LFE2215:
 6079              		.size	_ZThn176_N8HomeMenuD1Ev, .-_ZThn176_N8HomeMenuD1Ev
 6080              		.align 2
 6081              		.globl _ZN8HomeMenuD2Ev
 6082              		.type	_ZN8HomeMenuD2Ev, @function
 6083              	_ZN8HomeMenuD2Ev:
 6084              	.LFB1617:
 6085              		.loc 4 194 0
 6086              		.cfi_startproc
 6087              		.cfi_personality 0,__gxx_personality_v0
 6088              		.cfi_lsda 0,.LLSDA1617
 6089              	.LVL411:
 6090 1364 7C0802A6 		mflr 0
 6091 1368 9421FFE8 		stwu 1,-24(1)
 6092              	.LCFI96:
 6093              		.cfi_def_cfa_offset 24
 6094              		.cfi_register 65, 0
 6095              	.LBB3320:
 6096 136c 3D200000 		lis 9,_ZTV8HomeMenu+8@ha
 6097 1370 39290008 		la 9,_ZTV8HomeMenu+8@l(9)
 6098              	.LBE3320:
 6099 1374 93C10010 		stw 30,16(1)
 6100 1378 9001001C 		stw 0,28(1)
 6101              	.LBB3417:
 6102 137c 380900E4 		addi 0,9,228
 6103              		.cfi_offset 65, 4
 6104              		.cfi_offset 30, -8
 6105              	.LBE3417:
 6106 1380 93810008 		stw 28,8(1)
 6107 1384 7C7E1B78 		mr 30,3
 6108 1388 93A1000C 		stw 29,12(1)
 6109 138c 93E10014 		stw 31,20(1)
 6110              	.LBB3418:
 6111              		.loc 4 194 0
 6112 1390 91230000 		stw 9,0(3)
 6113 1394 900300B0 		stw 0,176(3)
 6114              	.LEHB26:
 6115              	.LBB3321:
 6116              		.loc 4 196 0
 6117              		.cfi_offset 31, -4
 6118              		.cfi_offset 29, -12
 6119              		.cfi_offset 28, -16
 6120 1398 48000001 		bl _ZN8GuiFrame9RemoveAllEv
 6121              	.LVL412:
 6122              		.loc 4 198 0
 6123 139c 807E05D0 		lwz 3,1488(30)
 6124 13a0 48000001 		bl _ZN8GuiSound4StopEv
 6125              	.LBB3322:
 6126              	.LBB3323:
 6127              		.file 12 "d:/Projects/SaveGameManager/savegame-manager-gx/trunk/source/Prompts/../SoundOperations/
 6128              		.loc 12 38 0
 6129 13a4 3FA00000 		lis 29,_ZN11MusicPlayer8instanceE@ha
 6130 13a8 83FD0000 		lwz 31,_ZN11MusicPlayer8instanceE@l(29)
 6131 13ac 2F9F0000 		cmpwi 7,31,0
 6132 13b0 419E0538 		beq- 7,.L453
 6133              	.L371:
 6134              	.LBE3323:
 6135              	.LBE3322:
 6136              		.loc 4 200 0
 6137 13b4 881F00D9 		lbz 0,217(31)
 6138 13b8 2F800000 		cmpwi 7,0,0
 6139 13bc 419E0520 		beq- 7,.L454
 6140              	.L373:
 6141              		.loc 4 203 0
 6142 13c0 807E0160 		lwz 3,352(30)
 6143 13c4 2F830000 		cmpwi 7,3,0
 6144 13c8 419E0014 		beq- 7,.L376
 6145              		.loc 4 203 0 is_stmt 0 discriminator 1
 6146 13cc 81230000 		lwz 9,0(3)
 6147 13d0 80090004 		lwz 0,4(9)
 6148 13d4 7C0903A6 		mtctr 0
 6149 13d8 4E800421 		bctrl
 6150              	.L376:
 6151              		.loc 4 204 0 is_stmt 1
 6152 13dc 807E015C 		lwz 3,348(30)
 6153 13e0 2F830000 		cmpwi 7,3,0
 6154 13e4 419E0014 		beq- 7,.L377
 6155              		.loc 4 204 0 is_stmt 0 discriminator 1
 6156 13e8 81230000 		lwz 9,0(3)
 6157 13ec 80090004 		lwz 0,4(9)
 6158 13f0 7C0903A6 		mtctr 0
 6159 13f4 4E800421 		bctrl
 6160              	.L377:
 6161              		.loc 4 205 0 is_stmt 1
 6162 13f8 807E0154 		lwz 3,340(30)
 6163 13fc 2F830000 		cmpwi 7,3,0
 6164 1400 419E0014 		beq- 7,.L378
 6165              		.loc 4 205 0 is_stmt 0 discriminator 1
 6166 1404 81230000 		lwz 9,0(3)
 6167 1408 80090004 		lwz 0,4(9)
 6168 140c 7C0903A6 		mtctr 0
 6169 1410 4E800421 		bctrl
 6170              	.L378:
 6171              		.loc 4 206 0 is_stmt 1
 6172 1414 807E0150 		lwz 3,336(30)
 6173 1418 2F830000 		cmpwi 7,3,0
 6174 141c 419E0014 		beq- 7,.L379
 6175              		.loc 4 206 0 is_stmt 0 discriminator 1
 6176 1420 81230000 		lwz 9,0(3)
 6177 1424 80090004 		lwz 0,4(9)
 6178 1428 7C0903A6 		mtctr 0
 6179 142c 4E800421 		bctrl
 6180              	.L379:
 6181              		.loc 4 207 0 is_stmt 1
 6182 1430 807E0158 		lwz 3,344(30)
 6183 1434 2F830000 		cmpwi 7,3,0
 6184 1438 419E0014 		beq- 7,.L380
 6185              		.loc 4 207 0 is_stmt 0 discriminator 1
 6186 143c 81230000 		lwz 9,0(3)
 6187 1440 80090004 		lwz 0,4(9)
 6188 1444 7C0903A6 		mtctr 0
 6189 1448 4E800421 		bctrl
 6190              	.L380:
 6191              		.loc 4 208 0 is_stmt 1
 6192 144c 807E0164 		lwz 3,356(30)
 6193 1450 2F830000 		cmpwi 7,3,0
 6194 1454 419E0014 		beq- 7,.L381
 6195              		.loc 4 208 0 is_stmt 0 discriminator 1
 6196 1458 81230000 		lwz 9,0(3)
 6197 145c 80090004 		lwz 0,4(9)
 6198 1460 7C0903A6 		mtctr 0
 6199 1464 4E800421 		bctrl
 6200              	.L381:
 6201              		.loc 4 209 0 is_stmt 1
 6202 1468 807E0168 		lwz 3,360(30)
 6203 146c 2F830000 		cmpwi 7,3,0
 6204 1470 419E0014 		beq- 7,.L382
 6205              		.loc 4 209 0 is_stmt 0 discriminator 1
 6206 1474 81230000 		lwz 9,0(3)
 6207 1478 80090004 		lwz 0,4(9)
 6208 147c 7C0903A6 		mtctr 0
 6209 1480 4E800421 		bctrl
 6210              	.L382:
 6211              		.loc 4 211 0 is_stmt 1
 6212 1484 807E0110 		lwz 3,272(30)
 6213 1488 2F830000 		cmpwi 7,3,0
 6214 148c 419E0014 		beq- 7,.L383
 6215              		.loc 4 211 0 is_stmt 0 discriminator 1
 6216 1490 81230000 		lwz 9,0(3)
 6217 1494 80090004 		lwz 0,4(9)
 6218 1498 7C0903A6 		mtctr 0
 6219 149c 4E800421 		bctrl
 6220              	.L383:
 6221              		.loc 4 212 0 is_stmt 1
 6222 14a0 807E0118 		lwz 3,280(30)
 6223 14a4 2F830000 		cmpwi 7,3,0
 6224 14a8 419E0014 		beq- 7,.L384
 6225              		.loc 4 212 0 is_stmt 0 discriminator 1
 6226 14ac 81230000 		lwz 9,0(3)
 6227 14b0 80090004 		lwz 0,4(9)
 6228 14b4 7C0903A6 		mtctr 0
 6229 14b8 4E800421 		bctrl
 6230              	.L384:
 6231              		.loc 4 213 0 is_stmt 1
 6232 14bc 807E011C 		lwz 3,284(30)
 6233 14c0 2F830000 		cmpwi 7,3,0
 6234 14c4 419E0014 		beq- 7,.L385
 6235              		.loc 4 213 0 is_stmt 0 discriminator 1
 6236 14c8 81230000 		lwz 9,0(3)
 6237 14cc 80090004 		lwz 0,4(9)
 6238 14d0 7C0903A6 		mtctr 0
 6239 14d4 4E800421 		bctrl
 6240              	.L385:
 6241              		.loc 4 214 0 is_stmt 1
 6242 14d8 807E0114 		lwz 3,276(30)
 6243 14dc 2F830000 		cmpwi 7,3,0
 6244 14e0 419E0014 		beq- 7,.L386
 6245              		.loc 4 214 0 is_stmt 0 discriminator 1
 6246 14e4 81230000 		lwz 9,0(3)
 6247 14e8 80090004 		lwz 0,4(9)
 6248 14ec 7C0903A6 		mtctr 0
 6249 14f0 4E800421 		bctrl
 6250              	.L386:
 6251              		.loc 4 216 0 is_stmt 1
 6252 14f4 807E00E0 		lwz 3,224(30)
 6253 14f8 48000001 		bl _ZN9Resources6RemoveEP12GuiImageData
 6254              		.loc 4 217 0
 6255 14fc 807E00E4 		lwz 3,228(30)
 6256 1500 48000001 		bl _ZN9Resources6RemoveEP12GuiImageData
 6257              		.loc 4 218 0
 6258 1504 807E00E8 		lwz 3,232(30)
 6259 1508 48000001 		bl _ZN9Resources6RemoveEP12GuiImageData
 6260              		.loc 4 219 0
 6261 150c 807E00EC 		lwz 3,236(30)
 6262 1510 48000001 		bl _ZN9Resources6RemoveEP12GuiImageData
 6263              		.loc 4 221 0
 6264 1514 807E0120 		lwz 3,288(30)
 6265 1518 2F830000 		cmpwi 7,3,0
 6266 151c 419E0014 		beq- 7,.L387
 6267              		.loc 4 221 0 is_stmt 0 discriminator 1
 6268 1520 81230000 		lwz 9,0(3)
 6269 1524 80090004 		lwz 0,4(9)
 6270 1528 7C0903A6 		mtctr 0
 6271 152c 4E800421 		bctrl
 6272              	.L387:
 6273              		.loc 4 222 0 is_stmt 1
 6274 1530 807E0124 		lwz 3,292(30)
 6275 1534 2F830000 		cmpwi 7,3,0
 6276 1538 419E0014 		beq- 7,.L388
 6277              		.loc 4 222 0 is_stmt 0 discriminator 1
 6278 153c 81230000 		lwz 9,0(3)
 6279 1540 80090004 		lwz 0,4(9)
 6280 1544 7C0903A6 		mtctr 0
 6281 1548 4E800421 		bctrl
 6282              	.L388:
 6283              		.loc 4 223 0 is_stmt 1
 6284 154c 807E0128 		lwz 3,296(30)
 6285 1550 2F830000 		cmpwi 7,3,0
 6286 1554 419E0014 		beq- 7,.L389
 6287              		.loc 4 223 0 is_stmt 0 discriminator 1
 6288 1558 81230000 		lwz 9,0(3)
 6289 155c 80090004 		lwz 0,4(9)
 6290 1560 7C0903A6 		mtctr 0
 6291 1564 4E800421 		bctrl
 6292              	.L389:
 6293              		.loc 4 224 0 is_stmt 1
 6294 1568 807E012C 		lwz 3,300(30)
 6295 156c 2F830000 		cmpwi 7,3,0
 6296 1570 419E0014 		beq- 7,.L390
 6297              		.loc 4 224 0 is_stmt 0 discriminator 1
 6298 1574 81230000 		lwz 9,0(3)
 6299 1578 80090004 		lwz 0,4(9)
 6300 157c 7C0903A6 		mtctr 0
 6301 1580 4E800421 		bctrl
 6302              	.L390:
 6303              		.loc 4 225 0 is_stmt 1
 6304 1584 807E0130 		lwz 3,304(30)
 6305 1588 2F830000 		cmpwi 7,3,0
 6306 158c 419E0014 		beq- 7,.L391
 6307              		.loc 4 225 0 is_stmt 0 discriminator 1
 6308 1590 81230000 		lwz 9,0(3)
 6309 1594 80090004 		lwz 0,4(9)
 6310 1598 7C0903A6 		mtctr 0
 6311 159c 4E800421 		bctrl
 6312              	.L391:
 6313              		.loc 4 226 0 is_stmt 1
 6314 15a0 807E0144 		lwz 3,324(30)
 6315 15a4 2F830000 		cmpwi 7,3,0
 6316 15a8 419E0014 		beq- 7,.L392
 6317              		.loc 4 226 0 is_stmt 0 discriminator 1
 6318 15ac 81230000 		lwz 9,0(3)
 6319 15b0 80090004 		lwz 0,4(9)
 6320 15b4 7C0903A6 		mtctr 0
 6321 15b8 4E800421 		bctrl
 6322              	.L392:
 6323              		.loc 4 227 0 is_stmt 1
 6324 15bc 807E0148 		lwz 3,328(30)
 6325 15c0 2F830000 		cmpwi 7,3,0
 6326 15c4 419E0014 		beq- 7,.L393
 6327              		.loc 4 227 0 is_stmt 0 discriminator 1
 6328 15c8 81230000 		lwz 9,0(3)
 6329 15cc 80090004 		lwz 0,4(9)
 6330 15d0 7C0903A6 		mtctr 0
 6331 15d4 4E800421 		bctrl
 6332              	.L393:
 6333              		.loc 4 228 0 is_stmt 1
 6334 15d8 807E014C 		lwz 3,332(30)
 6335 15dc 2F830000 		cmpwi 7,3,0
 6336 15e0 419E0014 		beq- 7,.L409
 6337              		.loc 4 228 0 is_stmt 0 discriminator 1
 6338 15e4 81230000 		lwz 9,0(3)
 6339 15e8 80090004 		lwz 0,4(9)
 6340 15ec 7C0903A6 		mtctr 0
 6341 15f0 4E800421 		bctrl
 6342              	.L409:
 6343              	.LVL413:
 6344              	.LBB3325:
 6345              		.loc 4 232 0 is_stmt 1 discriminator 1
 6346 15f4 807E0134 		lwz 3,308(30)
 6347 15f8 2F830000 		cmpwi 7,3,0
 6348 15fc 419E0014 		beq- 7,.L395
 6349              		.loc 4 232 0 is_stmt 0
 6350 1600 81230000 		lwz 9,0(3)
 6351 1604 80090004 		lwz 0,4(9)
 6352 1608 7C0903A6 		mtctr 0
 6353 160c 4E800421 		bctrl
 6354              	.L395:
 6355              		.loc 4 233 0 is_stmt 1
 6356 1610 807E0100 		lwz 3,256(30)
 6357 1614 2F830000 		cmpwi 7,3,0
 6358 1618 419E0014 		beq- 7,.L396
 6359 161c 81230000 		lwz 9,0(3)
 6360 1620 80090004 		lwz 0,4(9)
 6361 1624 7C0903A6 		mtctr 0
 6362 1628 4E800421 		bctrl
 6363              	.L396:
 6364              		.loc 4 234 0
 6365 162c 807E00F0 		lwz 3,240(30)
 6366 1630 2F830000 		cmpwi 7,3,0
 6367 1634 419E0014 		beq- 7,.L397
 6368 1638 81230000 		lwz 9,0(3)
 6369 163c 80090004 		lwz 0,4(9)
 6370 1640 7C0903A6 		mtctr 0
 6371 1644 4E800421 		bctrl
 6372              	.L397:
 6373              		.loc 4 235 0
 6374 1648 807E016C 		lwz 3,364(30)
 6375 164c 2F830000 		cmpwi 7,3,0
 6376 1650 419E0014 		beq- 7,.L398
 6377 1654 81230000 		lwz 9,0(3)
 6378 1658 80090004 		lwz 0,4(9)
 6379 165c 7C0903A6 		mtctr 0
 6380 1660 4E800421 		bctrl
 6381              	.L398:
 6382              	.LVL414:
 6383              		.loc 4 232 0
 6384 1664 807E0138 		lwz 3,312(30)
 6385 1668 2F830000 		cmpwi 7,3,0
 6386 166c 419E0014 		beq- 7,.L399
 6387 1670 81230000 		lwz 9,0(3)
 6388 1674 80090004 		lwz 0,4(9)
 6389 1678 7C0903A6 		mtctr 0
 6390 167c 4E800421 		bctrl
 6391              	.L399:
 6392              		.loc 4 233 0
 6393 1680 807E0104 		lwz 3,260(30)
 6394 1684 2F830000 		cmpwi 7,3,0
 6395 1688 419E0014 		beq- 7,.L400
 6396 168c 81230000 		lwz 9,0(3)
 6397 1690 80090004 		lwz 0,4(9)
 6398 1694 7C0903A6 		mtctr 0
 6399 1698 4E800421 		bctrl
 6400              	.L400:
 6401              		.loc 4 234 0
 6402 169c 807E00F4 		lwz 3,244(30)
 6403 16a0 2F830000 		cmpwi 7,3,0
 6404 16a4 419E0014 		beq- 7,.L401
 6405 16a8 81230000 		lwz 9,0(3)
 6406 16ac 80090004 		lwz 0,4(9)
 6407 16b0 7C0903A6 		mtctr 0
 6408 16b4 4E800421 		bctrl
 6409              	.L401:
 6410              		.loc 4 235 0
 6411 16b8 807E0170 		lwz 3,368(30)
 6412 16bc 2F830000 		cmpwi 7,3,0
 6413 16c0 419E0014 		beq- 7,.L402
 6414 16c4 81230000 		lwz 9,0(3)
 6415 16c8 80090004 		lwz 0,4(9)
 6416 16cc 7C0903A6 		mtctr 0
 6417 16d0 4E800421 		bctrl
 6418              	.L402:
 6419              	.LVL415:
 6420              		.loc 4 232 0
 6421 16d4 807E013C 		lwz 3,316(30)
 6422 16d8 2F830000 		cmpwi 7,3,0
 6423 16dc 419E0014 		beq- 7,.L403
 6424 16e0 81230000 		lwz 9,0(3)
 6425 16e4 80090004 		lwz 0,4(9)
 6426 16e8 7C0903A6 		mtctr 0
 6427 16ec 4E800421 		bctrl
 6428              	.L403:
 6429              		.loc 4 233 0
 6430 16f0 807E0108 		lwz 3,264(30)
 6431 16f4 2F830000 		cmpwi 7,3,0
 6432 16f8 419E0014 		beq- 7,.L404
 6433 16fc 81230000 		lwz 9,0(3)
 6434 1700 80090004 		lwz 0,4(9)
 6435 1704 7C0903A6 		mtctr 0
 6436 1708 4E800421 		bctrl
 6437              	.L404:
 6438              		.loc 4 234 0
 6439 170c 807E00F8 		lwz 3,248(30)
 6440 1710 2F830000 		cmpwi 7,3,0
 6441 1714 419E0014 		beq- 7,.L405
 6442 1718 81230000 		lwz 9,0(3)
 6443 171c 80090004 		lwz 0,4(9)
 6444 1720 7C0903A6 		mtctr 0
 6445 1724 4E800421 		bctrl
 6446              	.L405:
 6447              		.loc 4 235 0
 6448 1728 807E0174 		lwz 3,372(30)
 6449 172c 2F830000 		cmpwi 7,3,0
 6450 1730 419E0014 		beq- 7,.L406
 6451 1734 81230000 		lwz 9,0(3)
 6452 1738 80090004 		lwz 0,4(9)
 6453 173c 7C0903A6 		mtctr 0
 6454 1740 4E800421 		bctrl
 6455              	.L406:
 6456              	.LVL416:
 6457              		.loc 4 232 0
 6458 1744 807E0140 		lwz 3,320(30)
 6459 1748 2F830000 		cmpwi 7,3,0
 6460 174c 419E0014 		beq- 7,.L408
 6461              		.loc 4 232 0 is_stmt 0 discriminator 1
 6462 1750 81230000 		lwz 9,0(3)
 6463 1754 80090004 		lwz 0,4(9)
 6464 1758 7C0903A6 		mtctr 0
 6465 175c 4E800421 		bctrl
 6466              	.L408:
 6467              		.loc 4 233 0 is_stmt 1
 6468 1760 807E010C 		lwz 3,268(30)
 6469 1764 2F830000 		cmpwi 7,3,0
 6470 1768 419E0014 		beq- 7,.L410
 6471              		.loc 4 233 0 is_stmt 0 discriminator 1
 6472 176c 81230000 		lwz 9,0(3)
 6473 1770 80090004 		lwz 0,4(9)
 6474 1774 7C0903A6 		mtctr 0
 6475 1778 4E800421 		bctrl
 6476              	.L410:
 6477              		.loc 4 234 0 is_stmt 1
 6478 177c 807E00FC 		lwz 3,252(30)
 6479 1780 2F830000 		cmpwi 7,3,0
 6480 1784 419E0014 		beq- 7,.L411
 6481              		.loc 4 234 0 is_stmt 0 discriminator 1
 6482 1788 81230000 		lwz 9,0(3)
 6483 178c 80090004 		lwz 0,4(9)
 6484 1790 7C0903A6 		mtctr 0
 6485 1794 4E800421 		bctrl
 6486              	.L411:
 6487              		.loc 4 235 0 is_stmt 1
 6488 1798 807E0178 		lwz 3,376(30)
 6489 179c 2F830000 		cmpwi 7,3,0
 6490 17a0 419E0014 		beq- 7,.L412
 6491              		.loc 4 235 0 is_stmt 0 discriminator 1
 6492 17a4 81230000 		lwz 9,0(3)
 6493 17a8 80090004 		lwz 0,4(9)
 6494 17ac 7C0903A6 		mtctr 0
 6495 17b0 4E800421 		bctrl
 6496              	.L412:
 6497              	.LVL417:
 6498              	.LBE3325:
 6499              		.loc 4 238 0 is_stmt 1
 6500 17b4 807E00D0 		lwz 3,208(30)
 6501 17b8 48000001 		bl _ZN9Resources6RemoveEP12GuiImageData
 6502              		.loc 4 239 0
 6503 17bc 807E00D4 		lwz 3,212(30)
 6504 17c0 48000001 		bl _ZN9Resources6RemoveEP12GuiImageData
 6505              		.loc 4 240 0
 6506 17c4 807E00D8 		lwz 3,216(30)
 6507 17c8 48000001 		bl _ZN9Resources6RemoveEP12GuiImageData
 6508              		.loc 4 241 0
 6509 17cc 807E00DC 		lwz 3,220(30)
 6510 17d0 48000001 		bl _ZN9Resources6RemoveEP12GuiImageData
 6511              		.loc 4 243 0
 6512 17d4 807E05CC 		lwz 3,1484(30)
 6513 17d8 48000001 		bl _ZN9Resources6RemoveEP8GuiSound
 6514              		.loc 4 244 0
 6515 17dc 807E05D0 		lwz 3,1488(30)
 6516 17e0 48000001 		bl _ZN9Resources6RemoveEP8GuiSound
 6517              		.loc 4 245 0
 6518 17e4 807E05D4 		lwz 3,1492(30)
 6519 17e8 48000001 		bl _ZN9Resources6RemoveEP8GuiSound
 6520              		.loc 4 246 0
 6521 17ec 807E05D8 		lwz 3,1496(30)
 6522 17f0 48000001 		bl _ZN9Resources6RemoveEP8GuiSound
 6523              	.LEHE26:
 6524              	.LBE3321:
 6525              		.loc 4 194 0
 6526 17f4 387E045C 		addi 3,30,1116
 6527              	.LEHB27:
 6528 17f8 48000001 		bl _ZN10GuiTriggerD1Ev
 6529              	.LEHE27:
 6530              		.loc 4 194 0 is_stmt 0 discriminator 1
 6531 17fc 387E02EC 		addi 3,30,748
 6532              	.LEHB28:
 6533 1800 48000001 		bl _ZN10GuiTriggerD1Ev
 6534              	.LEHE28:
 6535              		.loc 4 194 0 discriminator 2
 6536 1804 387E017C 		addi 3,30,380
 6537              	.LEHB29:
 6538 1808 48000001 		bl _ZN10GuiTriggerD1Ev
 6539              	.LEHE29:
 6540              	.LBB3327:
 6541              	.LBB3328:
 6542              	.LBB3329:
 6543              		.loc 1 516 0 is_stmt 1 discriminator 3
 6544 180c 3D200000 		lis 9,_ZTVN7sigslot9has_slotsINS_15single_threadedEEE+8@ha
 6545              	.LBE3329:
 6546              	.LBE3328:
 6547              	.LBE3327:
 6548              		.loc 4 194 0 discriminator 3
 6549 1810 3B9E00B0 		addi 28,30,176
 6550              	.LVL418:
 6551              	.LBB3413:
 6552              	.LBB3410:
 6553              	.LBB3407:
 6554              		.loc 1 516 0 discriminator 3
 6555 1814 38090008 		la 0,_ZTVN7sigslot9has_slotsINS_15single_threadedEEE+8@l(9)
 6556              	.LBB3330:
 6557              	.LBB3331:
 6558              	.LBB3332:
 6559              	.LBB3333:
 6560              		.loc 1 338 0 discriminator 3
 6561 1818 7F83E378 		mr 3,28
 6562              	.LBE3333:
 6563              	.LBE3332:
 6564              	.LBE3331:
 6565              	.LBE3330:
 6566              		.loc 1 516 0 discriminator 3
 6567 181c 901E00B0 		stw 0,176(30)
 6568              	.LVL419:
 6569 1820 3BFE00B4 		addi 31,30,180
 6570              	.LEHB30:
 6571              	.LBB3385:
 6572              	.LBB3383:
 6573              	.LBB3335:
 6574              	.LBB3334:
 6575              		.loc 1 338 0 discriminator 3
 6576 1824 48000001 		bl _ZN7sigslot15single_threaded4lockEv
 6577              	.LEHE30:
 6578              	.LVL420:
 6579              	.LBE3334:
 6580              	.LBE3335:
 6581              	.LBB3336:
 6582              		.loc 4 473 0
 6583 1828 83FE00C0 		lwz 31,192(30)
 6584              	.LVL421:
 6585              	.LBE3336:
 6586              	.LBB3337:
 6587              	.LBB3338:
 6588              	.LBB3339:
 6589              		.loc 11 671 0
 6590 182c 3BBE00B8 		addi 29,30,184
 6591              	.LVL422:
 6592              	.LBE3339:
 6593              	.LBE3338:
 6594              	.LBE3337:
 6595              		.loc 1 524 0
 6596 1830 7F9FE800 		cmpw 7,31,29
 6597 1834 419E0030 		beq- 7,.L413
 6598              	.LVL423:
 6599              	.L450:
 6600              		.loc 1 526 0
 6601 1838 807F0010 		lwz 3,16(31)
 6602 183c 7F84E378 		mr 4,28
 6603 1840 81230000 		lwz 9,0(3)
 6604 1844 80090010 		lwz 0,16(9)
 6605 1848 7C0903A6 		mtctr 0
 6606              	.LEHB31:
 6607 184c 4E800421 		bctrl
 6608              	.LEHE31:
 6609              	.LVL424:
 6610              	.LBB3340:
 6611              	.LBB3341:
 6612              		.loc 11 269 0
 6613 1850 7FE3FB78 		mr 3,31
 6614 1854 48000001 		bl _ZSt18_Rb_tree_incrementPKSt18_Rb_tree_node_base
 6615              	.LBE3341:
 6616              	.LBE3340:
 6617              		.loc 1 524 0
 6618 1858 7F9D1800 		cmpw 7,29,3
 6619              	.LBB3343:
 6620              	.LBB3342:
 6621              		.loc 11 269 0
 6622 185c 7C7F1B78 		mr 31,3
 6623              	.LVL425:
 6624              	.LBE3342:
 6625              	.LBE3343:
 6626              		.loc 1 524 0
 6627 1860 409EFFD8 		bne+ 7,.L450
 6628              	.LVL426:
 6629              	.L413:
 6630              	.LBB3344:
 6631              	.LBB3345:
 6632              		.file 13 "d:\\devkitpro\\devkitppc\\bin\\../lib/gcc/powerpc-eabi/4.6.3/../../../../powerpc-eabi/in
 6633              		.loc 13 562 0
 6634 1864 3BFE00B4 		addi 31,30,180
 6635              	.LVL427:
 6636              	.LBB3346:
 6637              	.LBB3347:
 6638              	.LBB3348:
 6639              	.LBB3349:
 6640              	.LBB3350:
 6641              	.LBB3351:
 6642              	.LBB3352:
 6643              		.loc 11 809 0
 6644 1868 809E00BC 		lwz 4,188(30)
 6645 186c 7FE3FB78 		mr 3,31
 6646 1870 48000001 		bl _ZNSt8_Rb_treeIPN7sigslot12_signal_baseINS0_15single_threadedEEES4_St9_IdentityIS4_ESt4lessIS4_
 6647              	.LVL428:
 6648              		.loc 11 811 0
 6649 1874 38000000 		li 0,0
 6650              		.loc 11 810 0
 6651 1878 93BE00C0 		stw 29,192(30)
 6652              	.LVL429:
 6653              	.LBE3352:
 6654              	.LBE3351:
 6655              	.LBE3350:
 6656              	.LBE3349:
 6657              	.LBE3348:
 6658              	.LBE3347:
 6659              	.LBE3346:
 6660              	.LBE3345:
 6661              	.LBE3344:
 6662              	.LBB3369:
 6663              	.LBB3370:
 6664              	.LBB3371:
 6665              		.loc 1 343 0
 6666 187c 7F83E378 		mr 3,28
 6667              	.LBE3371:
 6668              	.LBE3370:
 6669              	.LBE3369:
 6670              	.LBB3376:
 6671              	.LBB3367:
 6672              	.LBB3365:
 6673              	.LBB3363:
 6674              	.LBB3361:
 6675              	.LBB3359:
 6676              	.LBB3357:
 6677              	.LBB3355:
 6678              	.LBB3353:
 6679              		.loc 11 811 0
 6680 1880 901E00BC 		stw 0,188(30)
 6681              	.LVL430:
 6682              		.loc 11 812 0
 6683 1884 93BE00C4 		stw 29,196(30)
 6684              	.LBE3353:
 6685              	.LBE3355:
 6686              	.LBE3357:
 6687              	.LBE3359:
 6688              	.LBE3361:
 6689              	.LBE3363:
 6690              	.LBE3365:
 6691              	.LBE3367:
 6692              	.LBE3376:
 6693              	.LBB3377:
 6694              	.LBB3374:
 6695              	.LBB3372:
 6696              		.loc 1 343 0
 6697 1888 813E00B0 		lwz 9,176(30)
 6698              	.LBE3372:
 6699              	.LBE3374:
 6700              	.LBE3377:
 6701              	.LBB3378:
 6702              	.LBB3368:
 6703              	.LBB3366:
 6704              	.LBB3364:
 6705              	.LBB3362:
 6706              	.LBB3360:
 6707              	.LBB3358:
 6708              	.LBB3356:
 6709              	.LBB3354:
 6710              		.loc 11 813 0
 6711 188c 901E00C8 		stw 0,200(30)
 6712              	.LVL431:
 6713              	.LBE3354:
 6714              	.LBE3356:
 6715              	.LBE3358:
 6716              	.LBE3360:
 6717              	.LBE3362:
 6718              	.LBE3364:
 6719              	.LBE3366:
 6720              	.LBE3368:
 6721              	.LBE3378:
 6722              	.LBB3379:
 6723              	.LBB3375:
 6724              	.LBB3373:
 6725              		.loc 1 343 0
 6726 1890 8009000C 		lwz 0,12(9)
 6727 1894 7C0903A6 		mtctr 0
 6728              	.LEHB32:
 6729 1898 4E800421 		bctrl
 6730              	.LEHE32:
 6731              	.LVL432:
 6732              	.LBE3373:
 6733              	.LBE3375:
 6734              	.LBE3379:
 6735              	.LBE3383:
 6736              	.LBE3385:
 6737              	.LBB3386:
 6738              	.LBB3387:
 6739              	.LBB3388:
 6740              	.LBB3389:
 6741              	.LBB3390:
 6742              		.loc 11 639 0
 6743 189c 809E00BC 		lwz 4,188(30)
 6744 18a0 7FE3FB78 		mr 3,31
 6745 18a4 48000001 		bl _ZNSt8_Rb_treeIPN7sigslot12_signal_baseINS0_15single_threadedEEES4_St9_IdentityIS4_ESt4lessIS4_
 6746              	.LBE3390:
 6747              	.LBE3389:
 6748              	.LBE3388:
 6749              	.LBE3387:
 6750              	.LBE3386:
 6751              	.LBB3391:
 6752              	.LBB3392:
 6753              	.LBB3393:
 6754              		.loc 1 105 0
 6755 18a8 3D200000 		lis 9,_ZTVN7sigslot15single_threadedE+8@ha
 6756 18ac 38090008 		la 0,_ZTVN7sigslot15single_threadedE+8@l(9)
 6757              	.LBE3393:
 6758              	.LBE3392:
 6759              	.LBE3391:
 6760              	.LBE3407:
 6761              	.LBE3410:
 6762              	.LBE3413:
 6763              		.loc 4 194 0
 6764 18b0 7FC3F378 		mr 3,30
 6765              	.LBB3414:
 6766              	.LBB3411:
 6767              	.LBB3408:
 6768              	.LBB3396:
 6769              	.LBB3395:
 6770              	.LBB3394:
 6771              		.loc 1 105 0
 6772 18b4 901E00B0 		stw 0,176(30)
 6773              	.LEHB33:
 6774              	.LBE3394:
 6775              	.LBE3395:
 6776              	.LBE3396:
 6777              	.LBE3408:
 6778              	.LBE3411:
 6779              	.LBE3414:
 6780              		.loc 4 194 0
 6781 18b8 48000001 		bl _ZN8GuiFrameD2Ev
 6782              	.LEHE33:
 6783              	.LBE3418:
 6784              		.loc 4 247 0
 6785 18bc 8001001C 		lwz 0,28(1)
 6786 18c0 83810008 		lwz 28,8(1)
 6787              	.LVL433:
 6788 18c4 7C0803A6 		mtlr 0
 6789 18c8 83A1000C 		lwz 29,12(1)
 6790              	.LVL434:
 6791 18cc 83C10010 		lwz 30,16(1)
 6792              	.LVL435:
 6793 18d0 83E10014 		lwz 31,20(1)
 6794              	.LVL436:
 6795 18d4 38210018 		addi 1,1,24
 6796              		.cfi_remember_state
 6797              	.LCFI97:
 6798              		.cfi_def_cfa_offset 0
 6799              		.cfi_restore 31
 6800              		.cfi_restore 30
 6801              		.cfi_restore 29
 6802              		.cfi_restore 28
 6803 18d8 4E800020 		blr
 6804              	.LVL437:
 6805              	.L454:
 6806              	.LCFI98:
 6807              		.cfi_restore_state
 6808              	.LBB3419:
 6809              	.LBB3415:
 6810              		.loc 4 201 0
 6811 18dc 7FE3FB78 		mr 3,31
 6812              	.LEHB34:
 6813 18e0 48000001 		bl _ZN11MusicPlayer6ResumeEv
 6814 18e4 4BFFFADC 		b .L373
 6815              	.L453:
 6816              	.LBB3326:
 6817              	.LBB3324:
 6818              		.loc 12 38 0
 6819 18e8 3860027C 		li 3,636
 6820 18ec 48000001 		bl _Znwj
 6821              	.LEHE34:
 6822 18f0 7C7F1B78 		mr 31,3
 6823              	.LEHB35:
 6824 18f4 48000001 		bl _ZN11MusicPlayerC1Ev
 6825              	.LEHE35:
 6826 18f8 93FD0000 		stw 31,_ZN11MusicPlayer8instanceE@l(29)
 6827 18fc 4BFFFAB8 		b .L371
 6828              	.L447:
 6829 1900 7C7D1B78 		mr 29,3
 6830 1904 7FE3FB78 		mr 3,31
 6831 1908 48000001 		bl _ZdlPv
 6832              	.L375:
 6833              	.LBE3324:
 6834              	.LBE3326:
 6835              	.LBE3415:
 6836              		.loc 4 194 0
 6837 190c 387E045C 		addi 3,30,1116
 6838 1910 48000001 		bl _ZN10GuiTriggerD1Ev
 6839              	.L439:
 6840 1914 387E02EC 		addi 3,30,748
 6841 1918 48000001 		bl _ZN10GuiTriggerD1Ev
 6842              	.L440:
 6843 191c 387E017C 		addi 3,30,380
