	.file	"HTML_Stream.cpp"
	.section	".text"
.Ltext0:
	.align 2
	.globl _ZN11HTML_StreamC2Ev
	.type	_ZN11HTML_StreamC2Ev, @function
_ZN11HTML_StreamC2Ev:
.LFB63:
	.file 1 "d:/Projects/SaveGameManager/savegame-manager-gx/trunk/source/Network/HTML_Stream.cpp"
	.loc 1 34 0
	.cfi_startproc
.LVL0:
.LBB2:
	.loc 1 36 0
	li 0,0
.LBE2:
	.loc 1 39 0
.LBB3:
	.loc 1 36 0
	stw 0,8(3)
	.loc 1 37 0
	stw 0,0(3)
	.loc 1 38 0
	stw 0,4(3)
.LBE3:
	.loc 1 39 0
	blr
	.cfi_endproc
.LFE63:
	.size	_ZN11HTML_StreamC2Ev, .-_ZN11HTML_StreamC2Ev
	.align 2
	.globl _ZN11HTML_StreamC2EPKc
	.type	_ZN11HTML_StreamC2EPKc, @function
_ZN11HTML_StreamC2EPKc:
.LFB66:
	.loc 1 41 0
	.cfi_startproc
.LVL1:
	mflr 0
	stwu 1,-24(1)
.LCFI0:
	.cfi_def_cfa_offset 24
	.cfi_register 65, 0
	stw 30,16(1)
	mr 30,4
	.cfi_offset 30, -8
	stw 0,28(1)
.LBB8:
	.loc 1 43 0
	li 0,0
	.cfi_offset 65, 4
.LBE8:
	.loc 1 41 0
	stw 31,20(1)
	mr 31,3
	.cfi_offset 31, -4
	stw 29,12(1)
.LBB15:
	.loc 1 43 0
	stw 0,8(3)
	.loc 1 44 0
	stw 0,0(3)
	.loc 1 45 0
	stw 0,4(3)
.LVL2:
.LBB9:
.LBB10:
	.loc 1 58 0
	.cfi_offset 29, -12
	bl _Z13IsNetworkInitv
.LVL3:
	cmpwi 7,3,0
	bne- 7,.L6
.LVL4:
.L2:
.LBE10:
.LBE9:
.LBE15:
	.loc 1 48 0
	lwz 0,28(1)
	lwz 29,12(1)
	mtlr 0
	lwz 30,16(1)
	lwz 31,20(1)
.LVL5:
	addi 1,1,24
	.cfi_remember_state
.LCFI1:
	.cfi_def_cfa_offset 0
	.cfi_restore 31
	.cfi_restore 30
	.cfi_restore 29
	blr
.LVL6:
.L6:
.LCFI2:
	.cfi_restore_state
.LBB16:
.LBB13:
.LBB11:
	.loc 1 61 0
	mr 3,30
	bl downloadfile
	.loc 1 63 0
	mr. 29,4
	.loc 1 61 0
	mr 30,3
.LVL7:
	.loc 1 63 0
	beq- 0,.L2
	cmpwi 7,30,0
	beq- 7,.L2
	.loc 1 66 0
	lwz 3,8(31)
.LVL8:
	cmpwi 7,3,0
	beq- 7,.L4
	.loc 1 67 0
	bl free
.LVL9:
.L4:
	.loc 1 71 0
	li 0,0
.LVL10:
	.loc 1 69 0
	stw 29,8(31)
	.loc 1 71 0
	stw 0,0(31)
.LBE11:
.LBE13:
.LBE16:
	.loc 1 48 0
	lwz 0,28(1)
.LBB17:
.LBB14:
.LBB12:
	.loc 1 70 0
	stw 30,4(31)
.LBE12:
.LBE14:
.LBE17:
	.loc 1 48 0
	mtlr 0
	lwz 29,12(1)
.LVL11:
	lwz 30,16(1)
.LVL12:
	lwz 31,20(1)
.LVL13:
	addi 1,1,24
	.cfi_restore 29
	.cfi_restore 30
	.cfi_restore 31
.LCFI3:
	.cfi_def_cfa_offset 0
	blr
	.cfi_endproc
.LFE66:
	.size	_ZN11HTML_StreamC2EPKc, .-_ZN11HTML_StreamC2EPKc
	.align 2
	.globl _ZN11HTML_StreamD2Ev
	.type	_ZN11HTML_StreamD2Ev, @function
_ZN11HTML_StreamD2Ev:
.LFB69:
	.loc 1 50 0
	.cfi_startproc
.LVL14:
	mflr 0
	stwu 1,-8(1)
.LCFI4:
	.cfi_def_cfa_offset 8
	.cfi_register 65, 0
	stw 0,12(1)
.LBB18:
	.loc 1 52 0
	lwz 3,8(3)
.LVL15:
	cmpwi 7,3,0
	beq- 7,.L7
	.cfi_offset 65, 4
	.loc 1 53 0
	bl free
.L7:
.LBE18:
	.loc 1 54 0
	lwz 0,12(1)
	addi 1,1,8
.LCFI5:
	.cfi_def_cfa_offset 0
	mtlr 0
	blr
	.cfi_endproc
.LFE69:
	.size	_ZN11HTML_StreamD2Ev, .-_ZN11HTML_StreamD2Ev
	.align 2
	.globl _ZN11HTML_Stream8LoadLinkEPKc
	.type	_ZN11HTML_Stream8LoadLinkEPKc, @function
_ZN11HTML_Stream8LoadLinkEPKc:
.LFB71:
	.loc 1 57 0
	.cfi_startproc
.LVL16:
	mflr 0
	stwu 1,-24(1)
.LCFI6:
	.cfi_def_cfa_offset 24
	.cfi_register 65, 0
	stw 29,12(1)
	mr 29,4
	.cfi_offset 29, -12
	stw 30,16(1)
	mr 30,3
	.cfi_offset 30, -8
	stw 31,20(1)
.LBB19:
	.loc 1 59 0
	li 31,0
	.cfi_offset 31, -4
.LBE19:
	.loc 1 57 0
	stw 0,28(1)
	stw 28,8(1)
.LBB20:
	.loc 1 58 0
	.cfi_offset 28, -16
	.cfi_offset 65, 4
	bl _Z13IsNetworkInitv
.LVL17:
	cmpwi 7,3,0
	bne- 7,.L15
.LVL18:
.L10:
.LBE20:
	.loc 1 74 0
	lwz 0,28(1)
	mr 3,31
	lwz 28,8(1)
	mtlr 0
	lwz 29,12(1)
	lwz 30,16(1)
.LVL19:
	lwz 31,20(1)
	addi 1,1,24
	.cfi_remember_state
.LCFI7:
	.cfi_def_cfa_offset 0
	.cfi_restore 31
	.cfi_restore 30
	.cfi_restore 29
	.cfi_restore 28
	blr
.LVL20:
.L15:
.LCFI8:
	.cfi_restore_state
.LBB21:
	.loc 1 61 0
	mr 3,29
	bl downloadfile
	.loc 1 63 0
	mr. 28,4
	.loc 1 61 0
	mr 29,3
.LVL21:
	.loc 1 63 0
	beq- 0,.L10
	.loc 1 63 0 is_stmt 0 discriminator 1
	cmpwi 7,29,0
	beq- 7,.L10
	.loc 1 66 0 is_stmt 1
	lwz 3,8(30)
.LVL22:
	cmpwi 7,3,0
	beq- 7,.L11
	.loc 1 67 0
	bl free
.LVL23:
.L11:
	.loc 1 71 0
	li 0,0
	.loc 1 73 0
	li 31,1
	.loc 1 71 0
	stw 0,0(30)
.LBE21:
	.loc 1 74 0
	mr 3,31
	lwz 0,28(1)
.LVL24:
.LBB22:
	.loc 1 69 0
	stw 28,8(30)
.LBE22:
	.loc 1 74 0
	mtlr 0
.LBB23:
	.loc 1 70 0
	stw 29,4(30)
.LBE23:
	.loc 1 74 0
	lwz 28,8(1)
.LVL25:
	lwz 29,12(1)
.LVL26:
	lwz 30,16(1)
.LVL27:
	lwz 31,20(1)
	addi 1,1,24
	.cfi_restore 28
	.cfi_restore 29
	.cfi_restore 30
	.cfi_restore 31
.LCFI9:
	.cfi_def_cfa_offset 0
	blr
	.cfi_endproc
.LFE71:
	.size	_ZN11HTML_Stream8LoadLinkEPKc, .-_ZN11HTML_Stream8LoadLinkEPKc
	.align 2
	.globl _ZN11HTML_Stream15FindStringStartEPKc
	.type	_ZN11HTML_Stream15FindStringStartEPKc, @function
_ZN11HTML_Stream15FindStringStartEPKc:
.LFB72:
	.loc 1 77 0
	.cfi_startproc
.LVL28:
	mflr 0
	stwu 1,-32(1)
.LCFI10:
	.cfi_def_cfa_offset 32
	.cfi_register 65, 0
	stw 27,12(1)
	stw 0,36(1)
	stw 28,16(1)
	mr 28,3
	.cfi_offset 28, -16
	.cfi_offset 65, 4
	.cfi_offset 27, -20
	.loc 1 78 0
	lwz 27,8(3)
	.loc 1 77 0
	stw 29,20(1)
	mr 29,4
	.cfi_offset 29, -12
	.loc 1 78 0
	cmpwi 7,27,0
	.loc 1 77 0
	stw 30,24(1)
	stw 26,8(1)
	.loc 1 79 0
	li 30,0
	.cfi_offset 26, -24
	.cfi_offset 30, -8
	.loc 1 77 0
	stw 31,28(1)
	.loc 1 78 0
	beq- 7,.L17
	.cfi_offset 31, -4
	.loc 1 81 0 discriminator 1
	lwz 31,0(3)
	lwz 26,4(3)
	cmplw 7,31,26
	blt+ 7,.L22
	b .L24
.LVL29:
.L25:
	.loc 1 86 0
	stw 31,0(28)
	.loc 1 81 0
	bge- 6,.L24
.L22:
	.loc 1 83 0
	mr 3,29
	add 30,27,31
	bl strlen
	mr 4,29
	mr 5,3
	mr 3,30
	bl strncasecmp
	.loc 1 86 0
	addi 31,31,1
	.loc 1 83 0
	cmpwi 7,3,0
	.loc 1 81 0
	cmplw 6,31,26
	.loc 1 83 0
	bne+ 7,.L25
.L17:
	.loc 1 90 0
	lwz 0,36(1)
	mr 3,30
	lwz 26,8(1)
	mtlr 0
	lwz 27,12(1)
	lwz 28,16(1)
.LVL30:
	lwz 29,20(1)
.LVL31:
	lwz 30,24(1)
	lwz 31,28(1)
	addi 1,1,32
	.cfi_remember_state
.LCFI11:
	.cfi_def_cfa_offset 0
	.cfi_restore 31
	.cfi_restore 30
	.cfi_restore 29
	.cfi_restore 28
	.cfi_restore 27
	.cfi_restore 26
	blr
.LVL32:
.L24:
.LCFI12:
	.cfi_restore_state
	lwz 0,36(1)
	.loc 1 81 0
	add 30,27,31
	.loc 1 90 0
	mr 3,30
	lwz 26,8(1)
	mtlr 0
	lwz 27,12(1)
	lwz 28,16(1)
.LVL33:
	lwz 29,20(1)
.LVL34:
	lwz 30,24(1)
	lwz 31,28(1)
	addi 1,1,32
	.cfi_restore 26
	.cfi_restore 27
	.cfi_restore 28
	.cfi_restore 29
	.cfi_restore 30
	.cfi_restore 31
.LCFI13:
	.cfi_def_cfa_offset 0
	blr
	.cfi_endproc
.LFE72:
	.size	_ZN11HTML_Stream15FindStringStartEPKc, .-_ZN11HTML_Stream15FindStringStartEPKc
	.align 2
	.globl _ZN11HTML_Stream13FindStringEndEPKc
	.type	_ZN11HTML_Stream13FindStringEndEPKc, @function
_ZN11HTML_Stream13FindStringEndEPKc:
.LFB73:
	.loc 1 93 0
	.cfi_startproc
.LVL35:
	mflr 0
	stwu 1,-32(1)
.LCFI14:
	.cfi_def_cfa_offset 32
	.cfi_register 65, 0
	stw 27,12(1)
	stw 0,36(1)
	stw 28,16(1)
	mr 28,3
	.cfi_offset 28, -16
	.cfi_offset 65, 4
	.cfi_offset 27, -20
	.loc 1 94 0
	lwz 27,8(3)
	.loc 1 95 0
	li 3,0
.LVL36:
	.loc 1 93 0
	stw 30,24(1)
	mr 30,4
	.cfi_offset 30, -8
	.loc 1 94 0
	cmpwi 7,27,0
	.loc 1 93 0
	stw 26,8(1)
	stw 29,20(1)
	stw 31,28(1)
	.loc 1 94 0
	beq- 7,.L27
	.cfi_offset 31, -4
	.cfi_offset 29, -12
	.cfi_offset 26, -24
	.loc 1 97 0 discriminator 1
	lwz 31,0(28)
	lwz 26,4(28)
	cmplw 7,26,31
	bgt+ 7,.L33
	b .L27
.LVL37:
.L36:
	.loc 1 102 0
	addi 31,31,1
	.loc 1 97 0
	cmplw 7,31,26
	.loc 1 102 0
	stw 31,0(28)
	.loc 1 97 0
	bge- 7,.L35
.L33:
	.loc 1 99 0
	mr 3,30
	bl strlen
	mr 4,30
	mr 29,3
	add 3,27,31
	mr 5,29
	bl strncasecmp
	cmpwi 7,3,0
	bne+ 7,.L36
	.loc 1 105 0
	cmplw 7,26,31
	.loc 1 106 0
	li 3,0
	.loc 1 105 0
	ble- 7,.L27
	.loc 1 108 0
	add 31,29,31
	stw 31,0(28)
	.loc 1 110 0
	add 3,27,31
.L27:
	.loc 1 111 0
	lwz 0,36(1)
	lwz 26,8(1)
	mtlr 0
	lwz 27,12(1)
	lwz 28,16(1)
.LVL38:
	lwz 29,20(1)
	lwz 30,24(1)
.LVL39:
	lwz 31,28(1)
	addi 1,1,32
	.cfi_remember_state
.LCFI15:
	.cfi_def_cfa_offset 0
	.cfi_restore 31
	.cfi_restore 30
	.cfi_restore 29
	.cfi_restore 28
	.cfi_restore 27
	.cfi_restore 26
	blr
.LVL40:
.L35:
.LCFI16:
	.cfi_restore_state
	lwz 0,36(1)
	.loc 1 106 0
	li 3,0
	.loc 1 111 0
	lwz 26,8(1)
	mtlr 0
	lwz 27,12(1)
	lwz 28,16(1)
.LVL41:
	lwz 29,20(1)
	lwz 30,24(1)
.LVL42:
	lwz 31,28(1)
	addi 1,1,32
	.cfi_restore 26
	.cfi_restore 27
	.cfi_restore 28
	.cfi_restore 29
	.cfi_restore 30
	.cfi_restore 31
.LCFI17:
	.cfi_def_cfa_offset 0
	blr
	.cfi_endproc
.LFE73:
	.size	_ZN11HTML_Stream13FindStringEndEPKc, .-_ZN11HTML_Stream13FindStringEndEPKc
	.align 2
	.globl _ZN11HTML_Stream10CopyStringEPKc
	.type	_ZN11HTML_Stream10CopyStringEPKc, @function
_ZN11HTML_Stream10CopyStringEPKc:
.LFB74:
	.loc 1 114 0
	.cfi_startproc
.LVL43:
	stwu 1,-40(1)
.LCFI18:
	.cfi_def_cfa_offset 40
	mflr 0
	stw 26,16(1)
.LBB24:
	.loc 1 115 0
	mr. 26,4
	.cfi_offset 26, -24
	.cfi_register 65, 0
.LBE24:
	.loc 1 114 0
	stw 25,12(1)
.LBB31:
	.loc 1 116 0
	li 25,0
	.cfi_offset 25, -28
.LBE31:
	.loc 1 114 0
	stw 31,36(1)
	mr 31,3
	.cfi_offset 31, -4
	stw 0,44(1)
	stw 24,8(1)
	stw 27,20(1)
	stw 28,24(1)
	stw 29,28(1)
	stw 30,32(1)
.LBB32:
	.loc 1 115 0
	beq- 0,.L38
	.cfi_offset 30, -8
	.cfi_offset 29, -12
	.cfi_offset 28, -16
	.cfi_offset 27, -20
	.cfi_offset 24, -32
	.cfi_offset 65, 4
	.loc 1 115 0 is_stmt 0 discriminator 1
	lwz 0,8(3)
	cmpwi 7,0,0
	beq- 7,.L38
.LVL44:
	.loc 1 121 0 is_stmt 1
	li 3,1024
.LVL45:
	bl malloc
.LVL46:
	.loc 1 122 0
	mr. 25,3
	beq- 0,.L38
	.loc 1 125 0
	li 4,0
	li 5,1024
	bl memset
.LVL47:
	lwz 30,0(31)
	.loc 1 119 0
	li 29,0
	.loc 1 118 0
	li 24,1024
.LVL48:
.L39:
	.loc 1 127 0 discriminator 1
	lwz 28,8(31)
	mr 3,26
	bl strlen
	mr 4,26
	mr 27,3
	add 28,28,30
	mr 3,28
	mr 5,27
	bl strncasecmp
	add 30,30,27
	cmpwi 7,3,0
	bne- 7,.L46
.L41:
	.loc 1 149 0
	li 0,0
	.loc 1 150 0
	mr 3,25
	.loc 1 149 0
	stbx 0,25,29
	.loc 1 150 0
	addi 4,29,1
	bl realloc
	mr 25,3
.LVL49:
.L38:
.LBE32:
	.loc 1 153 0
	lwz 0,44(1)
	mr 3,25
	lwz 24,8(1)
	mtlr 0
	lwz 25,12(1)
	lwz 26,16(1)
.LVL50:
	lwz 27,20(1)
	lwz 28,24(1)
	lwz 29,28(1)
	lwz 30,32(1)
	lwz 31,36(1)
.LVL51:
	addi 1,1,40
	.cfi_remember_state
.LCFI19:
	.cfi_def_cfa_offset 0
	.cfi_restore 31
	.cfi_restore 30
	.cfi_restore 29
	.cfi_restore 28
	.cfi_restore 27
	.cfi_restore 26
	.cfi_restore 25
	.cfi_restore 24
	blr
.LVL52:
.L46:
.LCFI20:
	.cfi_restore_state
.LBB33:
	.loc 1 127 0 discriminator 2
	lwz 0,4(31)
.LBB25:
.LBB26:
	.loc 1 129 0 discriminator 2
	cmplw 6,24,29
.LBE26:
.LBE25:
	.loc 1 127 0 discriminator 2
	cmplw 7,30,0
	bge- 7,.L41
.LBB30:
.LBB28:
	.loc 1 129 0 discriminator 5
	blt- 6,.L47
.LVL53:
.L43:
.LBE28:
	.loc 1 144 0
	lbz 0,0(28)
	stbx 0,25,29
	.loc 1 146 0
	addi 29,29,1
.LVL54:
	.loc 1 145 0
	lwz 30,0(31)
	addi 30,30,1
	stw 30,0(31)
	b .L39
.L47:
.LBB29:
.LBB27:
	.loc 1 131 0
	addi 24,24,1024
.LVL55:
	.loc 1 132 0
	mr 3,25
	mr 4,24
	bl realloc
.LVL56:
	.loc 1 133 0
	cmpwi 0,3,0
	beq- 0,.L48
	.loc 1 138 0
	lwz 0,0(31)
	.loc 1 133 0
	mr 25,3
.LVL57:
	.loc 1 138 0
	lwz 28,8(31)
	add 28,28,0
	b .L43
.LVL58:
.L48:
	.loc 1 135 0
	mr 3,25
.LVL59:
	.loc 1 138 0
	li 25,0
.LVL60:
	.loc 1 135 0
	bl free
.LVL61:
.LBE27:
.LBE29:
.LBE30:
.LBE33:
	.loc 1 153 0
	lwz 0,44(1)
	mr 3,25
	lwz 24,8(1)
.LVL62:
	mtlr 0
	lwz 25,12(1)
	lwz 26,16(1)
.LVL63:
	lwz 27,20(1)
	lwz 28,24(1)
	lwz 29,28(1)
.LVL64:
	lwz 30,32(1)
	lwz 31,36(1)
.LVL65:
	addi 1,1,40
	.cfi_restore 24
	.cfi_restore 25
	.cfi_restore 26
	.cfi_restore 27
	.cfi_restore 28
	.cfi_restore 29
	.cfi_restore 30
	.cfi_restore 31
.LCFI21:
	.cfi_def_cfa_offset 0
	blr
	.cfi_endproc
.LFE74:
	.size	_ZN11HTML_Stream10CopyStringEPKc, .-_ZN11HTML_Stream10CopyStringEPKc
	.align 2
	.globl _ZN11HTML_Stream4SeekEji
	.type	_ZN11HTML_Stream4SeekEji, @function
_ZN11HTML_Stream4SeekEji:
.LFB75:
	.loc 1 156 0
	.cfi_startproc
.LVL66:
	.loc 1 157 0
	lwz 0,8(3)
	.loc 1 156 0
	mr 9,3
	.loc 1 158 0
	li 3,-1
.LVL67:
	.loc 1 157 0
	cmpwi 7,0,0
	beqlr- 7
	.loc 1 160 0
	cmpwi 7,5,1
	beq- 7,.L52
	cmpwi 7,5,2
	beq- 7,.L53
	cmpwi 7,5,0
	bne- 7,.L56
	.loc 1 163 0
	stw 4,0(9)
	.loc 1 173 0
	li 3,0
	.loc 1 164 0
	blr
.L56:
	.loc 1 173 0
	li 3,0
	.loc 1 174 0
	blr
.L53:
	.loc 1 169 0
	lwz 0,4(9)
	.loc 1 173 0
	li 3,0
	.loc 1 169 0
	add 4,4,0
.LVL68:
	stw 4,0(9)
	.loc 1 170 0
	blr
.LVL69:
.L52:
	.loc 1 166 0
	lwz 0,0(9)
	.loc 1 173 0
	li 3,0
	.loc 1 166 0
	add 4,0,4
.LVL70:
	stw 4,0(9)
	.loc 1 167 0
	blr
	.cfi_endproc
.LFE75:
	.size	_ZN11HTML_Stream4SeekEji, .-_ZN11HTML_Stream4SeekEji
	.align 2
	.globl _ZN11HTML_Stream6RewindEv
	.type	_ZN11HTML_Stream6RewindEv, @function
_ZN11HTML_Stream6RewindEv:
.LFB76:
	.loc 1 177 0
	.cfi_startproc
.LVL71:
	.loc 1 178 0
	lwz 0,8(3)
	cmpwi 7,0,0
	beqlr- 7
	.loc 1 181 0
	li 0,0
	stw 0,0(3)
	blr
	.cfi_endproc
.LFE76:
	.size	_ZN11HTML_Stream6RewindEv, .-_ZN11HTML_Stream6RewindEv
	.globl _ZN11HTML_StreamC1Ev
	.set	_ZN11HTML_StreamC1Ev,_ZN11HTML_StreamC2Ev
	.globl _ZN11HTML_StreamC1EPKc
	.set	_ZN11HTML_StreamC1EPKc,_ZN11HTML_StreamC2EPKc
	.globl _ZN11HTML_StreamD1Ev
	.set	_ZN11HTML_StreamD1Ev,_ZN11HTML_StreamD2Ev
.Letext0:
	.file 2 "d:\\devkitpro\\devkitppc\\bin\\../lib/gcc/powerpc-eabi/4.6.3/../../../../powerpc-eabi/include/stdint.h"
	.file 3 "d:/devkitPro/libogc/include/gctypes.h"
	.file 4 "d:/Projects/SaveGameManager/savegame-manager-gx/trunk/source/Network/HTML_Stream.h"
	.file 5 "d:/devkitPro/libogc/include/ogc/gx.h"
	.file 6 "d:/Projects/SaveGameManager/savegame-manager-gx/trunk/source/Network/http.h"